


Disassembly of section .text:

00000000000070a0 <_start>:
    70a0:	f3 0f 1e fa          	endbr64 
    70a4:	31 ed                	xor    %ebp,%ebp
    70a6:	49 89 d1             	mov    %rdx,%r9
    70a9:	5e                   	pop    %rsi
    70aa:	48 89 e2             	mov    %rsp,%rdx
    70ad:	48 83 e4 f0          	and    $0xfffffffffffffff0,%rsp
    70b1:	50                   	push   %rax
    70b2:	54                   	push   %rsp
    70b3:	4c 8d 05 36 38 01 00 	lea    0x13836(%rip),%r8        # 1a8f0 <__libc_csu_fini>
    70ba:	48 8d 0d bf 37 01 00 	lea    0x137bf(%rip),%rcx        # 1a880 <__libc_csu_init>
    70c1:	48 8d 3d b4 2b 01 00 	lea    0x12bb4(%rip),%rdi        # 19c7c <main>
    70c8:	ff 15 02 9f 01 00    	callq  *0x19f02(%rip)        # 20fd0 <__libc_start_main@GLIBC_2.2.5>
    70ce:	f4                   	hlt    
    70cf:	90                   	nop

00000000000070d0 <deregister_tm_clones>:
    70d0:	48 8d 3d 99 d0 01 00 	lea    0x1d099(%rip),%rdi        # 24170 <__TMC_END__>
    70d7:	48 8d 05 92 d0 01 00 	lea    0x1d092(%rip),%rax        # 24170 <__TMC_END__>
    70de:	48 39 f8             	cmp    %rdi,%rax
    70e1:	74 15                	je     70f8 <deregister_tm_clones+0x28>
    70e3:	48 8b 05 de 9e 01 00 	mov    0x19ede(%rip),%rax        # 20fc8 <_ITM_deregisterTMCloneTable>
    70ea:	48 85 c0             	test   %rax,%rax
    70ed:	74 09                	je     70f8 <deregister_tm_clones+0x28>
    70ef:	ff e0                	jmpq   *%rax
    70f1:	0f 1f 80 00 00 00 00 	nopl   0x0(%rax)
    70f8:	c3                   	retq   
    70f9:	0f 1f 80 00 00 00 00 	nopl   0x0(%rax)

0000000000007100 <register_tm_clones>:
    7100:	48 8d 3d 69 d0 01 00 	lea    0x1d069(%rip),%rdi        # 24170 <__TMC_END__>
    7107:	48 8d 35 62 d0 01 00 	lea    0x1d062(%rip),%rsi        # 24170 <__TMC_END__>
    710e:	48 29 fe             	sub    %rdi,%rsi
    7111:	48 89 f0             	mov    %rsi,%rax
    7114:	48 c1 ee 3f          	shr    $0x3f,%rsi
    7118:	48 c1 f8 03          	sar    $0x3,%rax
    711c:	48 01 c6             	add    %rax,%rsi
    711f:	48 d1 fe             	sar    %rsi
    7122:	74 14                	je     7138 <register_tm_clones+0x38>
    7124:	48 8b 05 b5 9e 01 00 	mov    0x19eb5(%rip),%rax        # 20fe0 <_ITM_registerTMCloneTable>
    712b:	48 85 c0             	test   %rax,%rax
    712e:	74 08                	je     7138 <register_tm_clones+0x38>
    7130:	ff e0                	jmpq   *%rax
    7132:	66 0f 1f 44 00 00    	nopw   0x0(%rax,%rax,1)
    7138:	c3                   	retq   
    7139:	0f 1f 80 00 00 00 00 	nopl   0x0(%rax)

0000000000007140 <__do_global_dtors_aux>:
    7140:	f3 0f 1e fa          	endbr64 
    7144:	80 3d 35 d0 01 00 00 	cmpb   $0x0,0x1d035(%rip)        # 24180 <completed.8061>
    714b:	75 2b                	jne    7178 <__do_global_dtors_aux+0x38>
    714d:	55                   	push   %rbp
    714e:	48 83 3d 92 9e 01 00 	cmpq   $0x0,0x19e92(%rip)        # 20fe8 <__cxa_finalize@GLIBC_2.2.5>
    7155:	00 
    7156:	48 89 e5             	mov    %rsp,%rbp
    7159:	74 0c                	je     7167 <__do_global_dtors_aux+0x27>
    715b:	48 8b 3d a6 9e 01 00 	mov    0x19ea6(%rip),%rdi        # 21008 <__dso_handle>
    7162:	e8 f9 fe ff ff       	callq  7060 <__cxa_finalize@plt>
    7167:	e8 64 ff ff ff       	callq  70d0 <deregister_tm_clones>
    716c:	c6 05 0d d0 01 00 01 	movb   $0x1,0x1d00d(%rip)        # 24180 <completed.8061>
    7173:	5d                   	pop    %rbp
    7174:	c3                   	retq   
    7175:	0f 1f 00             	nopl   (%rax)
    7178:	c3                   	retq   
    7179:	0f 1f 80 00 00 00 00 	nopl   0x0(%rax)

0000000000007180 <frame_dummy>:
    7180:	f3 0f 1e fa          	endbr64 
    7184:	e9 77 ff ff ff       	jmpq   7100 <register_tm_clones>

0000000000007189 <platform_main_begin>:
    7189:	f3 0f 1e fa          	endbr64 
    718d:	55                   	push   %rbp
    718e:	48 89 e5             	mov    %rsp,%rbp
    7191:	90                   	nop
    7192:	5d                   	pop    %rbp
    7193:	c3                   	retq   

0000000000007194 <platform_main_end>:
    7194:	f3 0f 1e fa          	endbr64 
    7198:	55                   	push   %rbp
    7199:	48 89 e5             	mov    %rsp,%rbp
    719c:	48 83 ec 10          	sub    $0x10,%rsp
    71a0:	89 7d fc             	mov    %edi,-0x4(%rbp)
    71a3:	89 75 f8             	mov    %esi,-0x8(%rbp)
    71a6:	8b 45 fc             	mov    -0x4(%rbp),%eax
    71a9:	89 c6                	mov    %eax,%esi
    71ab:	48 8d 3d 6e 3e 01 00 	lea    0x13e6e(%rip),%rdi        # 1b020 <_IO_stdin_used+0x20>
    71b2:	b8 00 00 00 00       	mov    $0x0,%eax
    71b7:	e8 c4 fe ff ff       	callq  7080 <printf@plt>
    71bc:	90                   	nop
    71bd:	c9                   	leaveq 
    71be:	c3                   	retq   

00000000000071bf <safe_unary_minus_func_int8_t_s>:
    71bf:	f3 0f 1e fa          	endbr64 
    71c3:	55                   	push   %rbp
    71c4:	48 89 e5             	mov    %rsp,%rbp
    71c7:	89 f8                	mov    %edi,%eax
    71c9:	88 45 fc             	mov    %al,-0x4(%rbp)
    71cc:	0f b6 45 fc          	movzbl -0x4(%rbp),%eax
    71d0:	f7 d8                	neg    %eax
    71d2:	5d                   	pop    %rbp
    71d3:	c3                   	retq   

00000000000071d4 <safe_add_func_int8_t_s_s>:
    71d4:	f3 0f 1e fa          	endbr64 
    71d8:	55                   	push   %rbp
    71d9:	48 89 e5             	mov    %rsp,%rbp
    71dc:	89 fa                	mov    %edi,%edx
    71de:	89 f0                	mov    %esi,%eax
    71e0:	88 55 fc             	mov    %dl,-0x4(%rbp)
    71e3:	88 45 f8             	mov    %al,-0x8(%rbp)
    71e6:	0f b6 55 fc          	movzbl -0x4(%rbp),%edx
    71ea:	0f b6 45 f8          	movzbl -0x8(%rbp),%eax
    71ee:	01 d0                	add    %edx,%eax
    71f0:	5d                   	pop    %rbp
    71f1:	c3                   	retq   

00000000000071f2 <safe_sub_func_int8_t_s_s>:
    71f2:	f3 0f 1e fa          	endbr64 
    71f6:	55                   	push   %rbp
    71f7:	48 89 e5             	mov    %rsp,%rbp
    71fa:	89 fa                	mov    %edi,%edx
    71fc:	89 f0                	mov    %esi,%eax
    71fe:	88 55 fc             	mov    %dl,-0x4(%rbp)
    7201:	88 45 f8             	mov    %al,-0x8(%rbp)
    7204:	0f b6 55 fc          	movzbl -0x4(%rbp),%edx
    7208:	0f b6 45 f8          	movzbl -0x8(%rbp),%eax
    720c:	29 c2                	sub    %eax,%edx
    720e:	89 d0                	mov    %edx,%eax
    7210:	5d                   	pop    %rbp
    7211:	c3                   	retq   

0000000000007212 <safe_mul_func_int8_t_s_s>:
    7212:	f3 0f 1e fa          	endbr64 
    7216:	55                   	push   %rbp
    7217:	48 89 e5             	mov    %rsp,%rbp
    721a:	89 fa                	mov    %edi,%edx
    721c:	89 f0                	mov    %esi,%eax
    721e:	88 55 fc             	mov    %dl,-0x4(%rbp)
    7221:	88 45 f8             	mov    %al,-0x8(%rbp)
    7224:	0f b6 45 fc          	movzbl -0x4(%rbp),%eax
    7228:	0f b6 55 f8          	movzbl -0x8(%rbp),%edx
    722c:	0f af c2             	imul   %edx,%eax
    722f:	5d                   	pop    %rbp
    7230:	c3                   	retq   

0000000000007231 <safe_mod_func_int8_t_s_s>:
    7231:	f3 0f 1e fa          	endbr64 
    7235:	55                   	push   %rbp
    7236:	48 89 e5             	mov    %rsp,%rbp
    7239:	89 fa                	mov    %edi,%edx
    723b:	89 f0                	mov    %esi,%eax
    723d:	88 55 fc             	mov    %dl,-0x4(%rbp)
    7240:	88 45 f8             	mov    %al,-0x8(%rbp)
    7243:	80 7d f8 00          	cmpb   $0x0,-0x8(%rbp)
    7247:	74 1b                	je     7264 <safe_mod_func_int8_t_s_s+0x33>
    7249:	80 7d fc 80          	cmpb   $0x80,-0x4(%rbp)
    724d:	75 06                	jne    7255 <safe_mod_func_int8_t_s_s+0x24>
    724f:	80 7d f8 ff          	cmpb   $0xff,-0x8(%rbp)
    7253:	74 0f                	je     7264 <safe_mod_func_int8_t_s_s+0x33>
    7255:	0f be 45 fc          	movsbl -0x4(%rbp),%eax
    7259:	0f be 4d f8          	movsbl -0x8(%rbp),%ecx
    725d:	99                   	cltd   
    725e:	f7 f9                	idiv   %ecx
    7260:	89 d0                	mov    %edx,%eax
    7262:	eb 04                	jmp    7268 <safe_mod_func_int8_t_s_s+0x37>
    7264:	0f b6 45 fc          	movzbl -0x4(%rbp),%eax
    7268:	5d                   	pop    %rbp
    7269:	c3                   	retq   

000000000000726a <safe_div_func_int8_t_s_s>:
    726a:	f3 0f 1e fa          	endbr64 
    726e:	55                   	push   %rbp
    726f:	48 89 e5             	mov    %rsp,%rbp
    7272:	89 fa                	mov    %edi,%edx
    7274:	89 f0                	mov    %esi,%eax
    7276:	88 55 fc             	mov    %dl,-0x4(%rbp)
    7279:	88 45 f8             	mov    %al,-0x8(%rbp)
    727c:	80 7d f8 00          	cmpb   $0x0,-0x8(%rbp)
    7280:	74 19                	je     729b <safe_div_func_int8_t_s_s+0x31>
    7282:	80 7d fc 80          	cmpb   $0x80,-0x4(%rbp)
    7286:	75 06                	jne    728e <safe_div_func_int8_t_s_s+0x24>
    7288:	80 7d f8 ff          	cmpb   $0xff,-0x8(%rbp)
    728c:	74 0d                	je     729b <safe_div_func_int8_t_s_s+0x31>
    728e:	0f be 45 fc          	movsbl -0x4(%rbp),%eax
    7292:	0f be 4d f8          	movsbl -0x8(%rbp),%ecx
    7296:	99                   	cltd   
    7297:	f7 f9                	idiv   %ecx
    7299:	eb 04                	jmp    729f <safe_div_func_int8_t_s_s+0x35>
    729b:	0f b6 45 fc          	movzbl -0x4(%rbp),%eax
    729f:	5d                   	pop    %rbp
    72a0:	c3                   	retq   

00000000000072a1 <safe_lshift_func_int8_t_s_s>:
    72a1:	f3 0f 1e fa          	endbr64 
    72a5:	55                   	push   %rbp
    72a6:	48 89 e5             	mov    %rsp,%rbp
    72a9:	89 f8                	mov    %edi,%eax
    72ab:	89 75 f8             	mov    %esi,-0x8(%rbp)
    72ae:	88 45 fc             	mov    %al,-0x4(%rbp)
    72b1:	80 7d fc 00          	cmpb   $0x0,-0x4(%rbp)
    72b5:	78 31                	js     72e8 <safe_lshift_func_int8_t_s_s+0x47>
    72b7:	83 7d f8 00          	cmpl   $0x0,-0x8(%rbp)
    72bb:	78 2b                	js     72e8 <safe_lshift_func_int8_t_s_s+0x47>
    72bd:	83 7d f8 1f          	cmpl   $0x1f,-0x8(%rbp)
    72c1:	7f 25                	jg     72e8 <safe_lshift_func_int8_t_s_s+0x47>
    72c3:	0f be 55 fc          	movsbl -0x4(%rbp),%edx
    72c7:	8b 45 f8             	mov    -0x8(%rbp),%eax
    72ca:	be 7f 00 00 00       	mov    $0x7f,%esi
    72cf:	89 c1                	mov    %eax,%ecx
    72d1:	d3 fe                	sar    %cl,%esi
    72d3:	89 f0                	mov    %esi,%eax
    72d5:	39 c2                	cmp    %eax,%edx
    72d7:	7f 0f                	jg     72e8 <safe_lshift_func_int8_t_s_s+0x47>
    72d9:	0f be 55 fc          	movsbl -0x4(%rbp),%edx
    72dd:	8b 45 f8             	mov    -0x8(%rbp),%eax
    72e0:	89 c1                	mov    %eax,%ecx
    72e2:	d3 e2                	shl    %cl,%edx
    72e4:	89 d0                	mov    %edx,%eax
    72e6:	eb 04                	jmp    72ec <safe_lshift_func_int8_t_s_s+0x4b>
    72e8:	0f b6 45 fc          	movzbl -0x4(%rbp),%eax
    72ec:	5d                   	pop    %rbp
    72ed:	c3                   	retq   

00000000000072ee <safe_lshift_func_int8_t_s_u>:
    72ee:	f3 0f 1e fa          	endbr64 
    72f2:	55                   	push   %rbp
    72f3:	48 89 e5             	mov    %rsp,%rbp
    72f6:	89 f8                	mov    %edi,%eax
    72f8:	89 75 f8             	mov    %esi,-0x8(%rbp)
    72fb:	88 45 fc             	mov    %al,-0x4(%rbp)
    72fe:	80 7d fc 00          	cmpb   $0x0,-0x4(%rbp)
    7302:	78 2b                	js     732f <safe_lshift_func_int8_t_s_u+0x41>
    7304:	83 7d f8 1f          	cmpl   $0x1f,-0x8(%rbp)
    7308:	77 25                	ja     732f <safe_lshift_func_int8_t_s_u+0x41>
    730a:	0f be 55 fc          	movsbl -0x4(%rbp),%edx
    730e:	8b 45 f8             	mov    -0x8(%rbp),%eax
    7311:	be 7f 00 00 00       	mov    $0x7f,%esi
    7316:	89 c1                	mov    %eax,%ecx
    7318:	d3 fe                	sar    %cl,%esi
    731a:	89 f0                	mov    %esi,%eax
    731c:	39 c2                	cmp    %eax,%edx
    731e:	7f 0f                	jg     732f <safe_lshift_func_int8_t_s_u+0x41>
    7320:	0f be 55 fc          	movsbl -0x4(%rbp),%edx
    7324:	8b 45 f8             	mov    -0x8(%rbp),%eax
    7327:	89 c1                	mov    %eax,%ecx
    7329:	d3 e2                	shl    %cl,%edx
    732b:	89 d0                	mov    %edx,%eax
    732d:	eb 04                	jmp    7333 <safe_lshift_func_int8_t_s_u+0x45>
    732f:	0f b6 45 fc          	movzbl -0x4(%rbp),%eax
    7333:	5d                   	pop    %rbp
    7334:	c3                   	retq   

0000000000007335 <safe_rshift_func_int8_t_s_s>:
    7335:	f3 0f 1e fa          	endbr64 
    7339:	55                   	push   %rbp
    733a:	48 89 e5             	mov    %rsp,%rbp
    733d:	89 f8                	mov    %edi,%eax
    733f:	89 75 f8             	mov    %esi,-0x8(%rbp)
    7342:	88 45 fc             	mov    %al,-0x4(%rbp)
    7345:	80 7d fc 00          	cmpb   $0x0,-0x4(%rbp)
    7349:	78 1b                	js     7366 <safe_rshift_func_int8_t_s_s+0x31>
    734b:	83 7d f8 00          	cmpl   $0x0,-0x8(%rbp)
    734f:	78 15                	js     7366 <safe_rshift_func_int8_t_s_s+0x31>
    7351:	83 7d f8 1f          	cmpl   $0x1f,-0x8(%rbp)
    7355:	7f 0f                	jg     7366 <safe_rshift_func_int8_t_s_s+0x31>
    7357:	0f be 55 fc          	movsbl -0x4(%rbp),%edx
    735b:	8b 45 f8             	mov    -0x8(%rbp),%eax
    735e:	89 c1                	mov    %eax,%ecx
    7360:	d3 fa                	sar    %cl,%edx
    7362:	89 d0                	mov    %edx,%eax
    7364:	eb 04                	jmp    736a <safe_rshift_func_int8_t_s_s+0x35>
    7366:	0f b6 45 fc          	movzbl -0x4(%rbp),%eax
    736a:	5d                   	pop    %rbp
    736b:	c3                   	retq   

000000000000736c <safe_rshift_func_int8_t_s_u>:
    736c:	f3 0f 1e fa          	endbr64 
    7370:	55                   	push   %rbp
    7371:	48 89 e5             	mov    %rsp,%rbp
    7374:	89 f8                	mov    %edi,%eax
    7376:	89 75 f8             	mov    %esi,-0x8(%rbp)
    7379:	88 45 fc             	mov    %al,-0x4(%rbp)
    737c:	80 7d fc 00          	cmpb   $0x0,-0x4(%rbp)
    7380:	78 15                	js     7397 <safe_rshift_func_int8_t_s_u+0x2b>
    7382:	83 7d f8 1f          	cmpl   $0x1f,-0x8(%rbp)
    7386:	77 0f                	ja     7397 <safe_rshift_func_int8_t_s_u+0x2b>
    7388:	0f be 55 fc          	movsbl -0x4(%rbp),%edx
    738c:	8b 45 f8             	mov    -0x8(%rbp),%eax
    738f:	89 c1                	mov    %eax,%ecx
    7391:	d3 fa                	sar    %cl,%edx
    7393:	89 d0                	mov    %edx,%eax
    7395:	eb 04                	jmp    739b <safe_rshift_func_int8_t_s_u+0x2f>
    7397:	0f b6 45 fc          	movzbl -0x4(%rbp),%eax
    739b:	5d                   	pop    %rbp
    739c:	c3                   	retq   

000000000000739d <safe_unary_minus_func_int16_t_s>:
    739d:	f3 0f 1e fa          	endbr64 
    73a1:	55                   	push   %rbp
    73a2:	48 89 e5             	mov    %rsp,%rbp
    73a5:	89 f8                	mov    %edi,%eax
    73a7:	66 89 45 fc          	mov    %ax,-0x4(%rbp)
    73ab:	0f b7 45 fc          	movzwl -0x4(%rbp),%eax
    73af:	f7 d8                	neg    %eax
    73b1:	5d                   	pop    %rbp
    73b2:	c3                   	retq   

00000000000073b3 <safe_add_func_int16_t_s_s>:
    73b3:	f3 0f 1e fa          	endbr64 
    73b7:	55                   	push   %rbp
    73b8:	48 89 e5             	mov    %rsp,%rbp
    73bb:	89 fa                	mov    %edi,%edx
    73bd:	89 f0                	mov    %esi,%eax
    73bf:	66 89 55 fc          	mov    %dx,-0x4(%rbp)
    73c3:	66 89 45 f8          	mov    %ax,-0x8(%rbp)
    73c7:	0f b7 55 fc          	movzwl -0x4(%rbp),%edx
    73cb:	0f b7 45 f8          	movzwl -0x8(%rbp),%eax
    73cf:	01 d0                	add    %edx,%eax
    73d1:	5d                   	pop    %rbp
    73d2:	c3                   	retq   

00000000000073d3 <safe_sub_func_int16_t_s_s>:
    73d3:	f3 0f 1e fa          	endbr64 
    73d7:	55                   	push   %rbp
    73d8:	48 89 e5             	mov    %rsp,%rbp
    73db:	89 fa                	mov    %edi,%edx
    73dd:	89 f0                	mov    %esi,%eax
    73df:	66 89 55 fc          	mov    %dx,-0x4(%rbp)
    73e3:	66 89 45 f8          	mov    %ax,-0x8(%rbp)
    73e7:	0f b7 55 fc          	movzwl -0x4(%rbp),%edx
    73eb:	0f b7 45 f8          	movzwl -0x8(%rbp),%eax
    73ef:	29 c2                	sub    %eax,%edx
    73f1:	89 d0                	mov    %edx,%eax
    73f3:	5d                   	pop    %rbp
    73f4:	c3                   	retq   

00000000000073f5 <safe_mul_func_int16_t_s_s>:
    73f5:	f3 0f 1e fa          	endbr64 
    73f9:	55                   	push   %rbp
    73fa:	48 89 e5             	mov    %rsp,%rbp
    73fd:	89 fa                	mov    %edi,%edx
    73ff:	89 f0                	mov    %esi,%eax
    7401:	66 89 55 fc          	mov    %dx,-0x4(%rbp)
    7405:	66 89 45 f8          	mov    %ax,-0x8(%rbp)
    7409:	0f b7 55 fc          	movzwl -0x4(%rbp),%edx
    740d:	0f b7 45 f8          	movzwl -0x8(%rbp),%eax
    7411:	0f af c2             	imul   %edx,%eax
    7414:	5d                   	pop    %rbp
    7415:	c3                   	retq   

0000000000007416 <safe_mod_func_int16_t_s_s>:
    7416:	f3 0f 1e fa          	endbr64 
    741a:	55                   	push   %rbp
    741b:	48 89 e5             	mov    %rsp,%rbp
    741e:	89 fa                	mov    %edi,%edx
    7420:	89 f0                	mov    %esi,%eax
    7422:	66 89 55 fc          	mov    %dx,-0x4(%rbp)
    7426:	66 89 45 f8          	mov    %ax,-0x8(%rbp)
    742a:	66 83 7d f8 00       	cmpw   $0x0,-0x8(%rbp)
    742f:	74 1e                	je     744f <safe_mod_func_int16_t_s_s+0x39>
    7431:	66 81 7d fc 00 80    	cmpw   $0x8000,-0x4(%rbp)
    7437:	75 07                	jne    7440 <safe_mod_func_int16_t_s_s+0x2a>
    7439:	66 83 7d f8 ff       	cmpw   $0xffff,-0x8(%rbp)
    743e:	74 0f                	je     744f <safe_mod_func_int16_t_s_s+0x39>
    7440:	0f bf 45 fc          	movswl -0x4(%rbp),%eax
    7444:	0f bf 4d f8          	movswl -0x8(%rbp),%ecx
    7448:	99                   	cltd   
    7449:	f7 f9                	idiv   %ecx
    744b:	89 d0                	mov    %edx,%eax
    744d:	eb 04                	jmp    7453 <safe_mod_func_int16_t_s_s+0x3d>
    744f:	0f b7 45 fc          	movzwl -0x4(%rbp),%eax
    7453:	5d                   	pop    %rbp
    7454:	c3                   	retq   

0000000000007455 <safe_div_func_int16_t_s_s>:
    7455:	f3 0f 1e fa          	endbr64 
    7459:	55                   	push   %rbp
    745a:	48 89 e5             	mov    %rsp,%rbp
    745d:	89 fa                	mov    %edi,%edx
    745f:	89 f0                	mov    %esi,%eax
    7461:	66 89 55 fc          	mov    %dx,-0x4(%rbp)
    7465:	66 89 45 f8          	mov    %ax,-0x8(%rbp)
    7469:	66 83 7d f8 00       	cmpw   $0x0,-0x8(%rbp)
    746e:	74 1c                	je     748c <safe_div_func_int16_t_s_s+0x37>
    7470:	66 81 7d fc 00 80    	cmpw   $0x8000,-0x4(%rbp)
    7476:	75 07                	jne    747f <safe_div_func_int16_t_s_s+0x2a>
    7478:	66 83 7d f8 ff       	cmpw   $0xffff,-0x8(%rbp)
    747d:	74 0d                	je     748c <safe_div_func_int16_t_s_s+0x37>
    747f:	0f bf 45 fc          	movswl -0x4(%rbp),%eax
    7483:	0f bf 4d f8          	movswl -0x8(%rbp),%ecx
    7487:	99                   	cltd   
    7488:	f7 f9                	idiv   %ecx
    748a:	eb 04                	jmp    7490 <safe_div_func_int16_t_s_s+0x3b>
    748c:	0f b7 45 fc          	movzwl -0x4(%rbp),%eax
    7490:	5d                   	pop    %rbp
    7491:	c3                   	retq   

0000000000007492 <safe_lshift_func_int16_t_s_s>:
    7492:	f3 0f 1e fa          	endbr64 
    7496:	55                   	push   %rbp
    7497:	48 89 e5             	mov    %rsp,%rbp
    749a:	89 f8                	mov    %edi,%eax
    749c:	89 75 f8             	mov    %esi,-0x8(%rbp)
    749f:	66 89 45 fc          	mov    %ax,-0x4(%rbp)
    74a3:	66 83 7d fc 00       	cmpw   $0x0,-0x4(%rbp)
    74a8:	78 31                	js     74db <safe_lshift_func_int16_t_s_s+0x49>
    74aa:	83 7d f8 00          	cmpl   $0x0,-0x8(%rbp)
    74ae:	78 2b                	js     74db <safe_lshift_func_int16_t_s_s+0x49>
    74b0:	83 7d f8 1f          	cmpl   $0x1f,-0x8(%rbp)
    74b4:	7f 25                	jg     74db <safe_lshift_func_int16_t_s_s+0x49>
    74b6:	0f bf 55 fc          	movswl -0x4(%rbp),%edx
    74ba:	8b 45 f8             	mov    -0x8(%rbp),%eax
    74bd:	be ff 7f 00 00       	mov    $0x7fff,%esi
    74c2:	89 c1                	mov    %eax,%ecx
    74c4:	d3 fe                	sar    %cl,%esi
    74c6:	89 f0                	mov    %esi,%eax
    74c8:	39 c2                	cmp    %eax,%edx
    74ca:	7f 0f                	jg     74db <safe_lshift_func_int16_t_s_s+0x49>
    74cc:	0f bf 55 fc          	movswl -0x4(%rbp),%edx
    74d0:	8b 45 f8             	mov    -0x8(%rbp),%eax
    74d3:	89 c1                	mov    %eax,%ecx
    74d5:	d3 e2                	shl    %cl,%edx
    74d7:	89 d0                	mov    %edx,%eax
    74d9:	eb 04                	jmp    74df <safe_lshift_func_int16_t_s_s+0x4d>
    74db:	0f b7 45 fc          	movzwl -0x4(%rbp),%eax
    74df:	5d                   	pop    %rbp
    74e0:	c3                   	retq   

00000000000074e1 <safe_lshift_func_int16_t_s_u>:
    74e1:	f3 0f 1e fa          	endbr64 
    74e5:	55                   	push   %rbp
    74e6:	48 89 e5             	mov    %rsp,%rbp
    74e9:	89 f8                	mov    %edi,%eax
    74eb:	89 75 f8             	mov    %esi,-0x8(%rbp)
    74ee:	66 89 45 fc          	mov    %ax,-0x4(%rbp)
    74f2:	66 83 7d fc 00       	cmpw   $0x0,-0x4(%rbp)
    74f7:	78 2b                	js     7524 <safe_lshift_func_int16_t_s_u+0x43>
    74f9:	83 7d f8 1f          	cmpl   $0x1f,-0x8(%rbp)
    74fd:	77 25                	ja     7524 <safe_lshift_func_int16_t_s_u+0x43>
    74ff:	0f bf 55 fc          	movswl -0x4(%rbp),%edx
    7503:	8b 45 f8             	mov    -0x8(%rbp),%eax
    7506:	be ff 7f 00 00       	mov    $0x7fff,%esi
    750b:	89 c1                	mov    %eax,%ecx
    750d:	d3 fe                	sar    %cl,%esi
    750f:	89 f0                	mov    %esi,%eax
    7511:	39 c2                	cmp    %eax,%edx
    7513:	7f 0f                	jg     7524 <safe_lshift_func_int16_t_s_u+0x43>
    7515:	0f bf 55 fc          	movswl -0x4(%rbp),%edx
    7519:	8b 45 f8             	mov    -0x8(%rbp),%eax
    751c:	89 c1                	mov    %eax,%ecx
    751e:	d3 e2                	shl    %cl,%edx
    7520:	89 d0                	mov    %edx,%eax
    7522:	eb 04                	jmp    7528 <safe_lshift_func_int16_t_s_u+0x47>
    7524:	0f b7 45 fc          	movzwl -0x4(%rbp),%eax
    7528:	5d                   	pop    %rbp
    7529:	c3                   	retq   

000000000000752a <safe_rshift_func_int16_t_s_s>:
    752a:	f3 0f 1e fa          	endbr64 
    752e:	55                   	push   %rbp
    752f:	48 89 e5             	mov    %rsp,%rbp
    7532:	89 f8                	mov    %edi,%eax
    7534:	89 75 f8             	mov    %esi,-0x8(%rbp)
    7537:	66 89 45 fc          	mov    %ax,-0x4(%rbp)
    753b:	66 83 7d fc 00       	cmpw   $0x0,-0x4(%rbp)
    7540:	78 1b                	js     755d <safe_rshift_func_int16_t_s_s+0x33>
    7542:	83 7d f8 00          	cmpl   $0x0,-0x8(%rbp)
    7546:	78 15                	js     755d <safe_rshift_func_int16_t_s_s+0x33>
    7548:	83 7d f8 1f          	cmpl   $0x1f,-0x8(%rbp)
    754c:	7f 0f                	jg     755d <safe_rshift_func_int16_t_s_s+0x33>
    754e:	0f bf 55 fc          	movswl -0x4(%rbp),%edx
    7552:	8b 45 f8             	mov    -0x8(%rbp),%eax
    7555:	89 c1                	mov    %eax,%ecx
    7557:	d3 fa                	sar    %cl,%edx
    7559:	89 d0                	mov    %edx,%eax
    755b:	eb 04                	jmp    7561 <safe_rshift_func_int16_t_s_s+0x37>
    755d:	0f b7 45 fc          	movzwl -0x4(%rbp),%eax
    7561:	5d                   	pop    %rbp
    7562:	c3                   	retq   

0000000000007563 <safe_rshift_func_int16_t_s_u>:
    7563:	f3 0f 1e fa          	endbr64 
    7567:	55                   	push   %rbp
    7568:	48 89 e5             	mov    %rsp,%rbp
    756b:	89 f8                	mov    %edi,%eax
    756d:	89 75 f8             	mov    %esi,-0x8(%rbp)
    7570:	66 89 45 fc          	mov    %ax,-0x4(%rbp)
    7574:	66 83 7d fc 00       	cmpw   $0x0,-0x4(%rbp)
    7579:	78 15                	js     7590 <safe_rshift_func_int16_t_s_u+0x2d>
    757b:	83 7d f8 1f          	cmpl   $0x1f,-0x8(%rbp)
    757f:	77 0f                	ja     7590 <safe_rshift_func_int16_t_s_u+0x2d>
    7581:	0f bf 55 fc          	movswl -0x4(%rbp),%edx
    7585:	8b 45 f8             	mov    -0x8(%rbp),%eax
    7588:	89 c1                	mov    %eax,%ecx
    758a:	d3 fa                	sar    %cl,%edx
    758c:	89 d0                	mov    %edx,%eax
    758e:	eb 04                	jmp    7594 <safe_rshift_func_int16_t_s_u+0x31>
    7590:	0f b7 45 fc          	movzwl -0x4(%rbp),%eax
    7594:	5d                   	pop    %rbp
    7595:	c3                   	retq   

0000000000007596 <safe_unary_minus_func_int32_t_s>:
    7596:	f3 0f 1e fa          	endbr64 
    759a:	55                   	push   %rbp
    759b:	48 89 e5             	mov    %rsp,%rbp
    759e:	89 7d fc             	mov    %edi,-0x4(%rbp)
    75a1:	81 7d fc 00 00 00 80 	cmpl   $0x80000000,-0x4(%rbp)
    75a8:	74 07                	je     75b1 <safe_unary_minus_func_int32_t_s+0x1b>
    75aa:	8b 45 fc             	mov    -0x4(%rbp),%eax
    75ad:	f7 d8                	neg    %eax
    75af:	eb 03                	jmp    75b4 <safe_unary_minus_func_int32_t_s+0x1e>
    75b1:	8b 45 fc             	mov    -0x4(%rbp),%eax
    75b4:	5d                   	pop    %rbp
    75b5:	c3                   	retq   

00000000000075b6 <safe_add_func_int32_t_s_s>:
    75b6:	f3 0f 1e fa          	endbr64 
    75ba:	55                   	push   %rbp
    75bb:	48 89 e5             	mov    %rsp,%rbp
    75be:	89 7d fc             	mov    %edi,-0x4(%rbp)
    75c1:	89 75 f8             	mov    %esi,-0x8(%rbp)
    75c4:	83 7d fc 00          	cmpl   $0x0,-0x4(%rbp)
    75c8:	7e 13                	jle    75dd <safe_add_func_int32_t_s_s+0x27>
    75ca:	83 7d f8 00          	cmpl   $0x0,-0x8(%rbp)
    75ce:	7e 0d                	jle    75dd <safe_add_func_int32_t_s_s+0x27>
    75d0:	b8 ff ff ff 7f       	mov    $0x7fffffff,%eax
    75d5:	2b 45 f8             	sub    -0x8(%rbp),%eax
    75d8:	39 45 fc             	cmp    %eax,-0x4(%rbp)
    75db:	7f 23                	jg     7600 <safe_add_func_int32_t_s_s+0x4a>
    75dd:	83 7d fc 00          	cmpl   $0x0,-0x4(%rbp)
    75e1:	79 13                	jns    75f6 <safe_add_func_int32_t_s_s+0x40>
    75e3:	83 7d f8 00          	cmpl   $0x0,-0x8(%rbp)
    75e7:	79 0d                	jns    75f6 <safe_add_func_int32_t_s_s+0x40>
    75e9:	b8 00 00 00 80       	mov    $0x80000000,%eax
    75ee:	2b 45 f8             	sub    -0x8(%rbp),%eax
    75f1:	39 45 fc             	cmp    %eax,-0x4(%rbp)
    75f4:	7c 0a                	jl     7600 <safe_add_func_int32_t_s_s+0x4a>
    75f6:	8b 55 fc             	mov    -0x4(%rbp),%edx
    75f9:	8b 45 f8             	mov    -0x8(%rbp),%eax
    75fc:	01 d0                	add    %edx,%eax
    75fe:	eb 03                	jmp    7603 <safe_add_func_int32_t_s_s+0x4d>
    7600:	8b 45 fc             	mov    -0x4(%rbp),%eax
    7603:	5d                   	pop    %rbp
    7604:	c3                   	retq   

0000000000007605 <safe_sub_func_int32_t_s_s>:
    7605:	f3 0f 1e fa          	endbr64 
    7609:	55                   	push   %rbp
    760a:	48 89 e5             	mov    %rsp,%rbp
    760d:	89 7d fc             	mov    %edi,-0x4(%rbp)
    7610:	89 75 f8             	mov    %esi,-0x8(%rbp)
    7613:	8b 45 fc             	mov    -0x4(%rbp),%eax
    7616:	33 45 f8             	xor    -0x8(%rbp),%eax
    7619:	89 c2                	mov    %eax,%edx
    761b:	8b 45 fc             	mov    -0x4(%rbp),%eax
    761e:	33 45 f8             	xor    -0x8(%rbp),%eax
    7621:	25 00 00 00 80       	and    $0x80000000,%eax
    7626:	33 45 fc             	xor    -0x4(%rbp),%eax
    7629:	2b 45 f8             	sub    -0x8(%rbp),%eax
    762c:	33 45 f8             	xor    -0x8(%rbp),%eax
    762f:	21 d0                	and    %edx,%eax
    7631:	85 c0                	test   %eax,%eax
    7633:	78 08                	js     763d <safe_sub_func_int32_t_s_s+0x38>
    7635:	8b 45 fc             	mov    -0x4(%rbp),%eax
    7638:	2b 45 f8             	sub    -0x8(%rbp),%eax
    763b:	eb 03                	jmp    7640 <safe_sub_func_int32_t_s_s+0x3b>
    763d:	8b 45 fc             	mov    -0x4(%rbp),%eax
    7640:	5d                   	pop    %rbp
    7641:	c3                   	retq   

0000000000007642 <safe_mul_func_int32_t_s_s>:
    7642:	f3 0f 1e fa          	endbr64 
    7646:	55                   	push   %rbp
    7647:	48 89 e5             	mov    %rsp,%rbp
    764a:	89 7d fc             	mov    %edi,-0x4(%rbp)
    764d:	89 75 f8             	mov    %esi,-0x8(%rbp)
    7650:	83 7d fc 00          	cmpl   $0x0,-0x4(%rbp)
    7654:	7e 14                	jle    766a <safe_mul_func_int32_t_s_s+0x28>
    7656:	83 7d f8 00          	cmpl   $0x0,-0x8(%rbp)
    765a:	7e 0e                	jle    766a <safe_mul_func_int32_t_s_s+0x28>
    765c:	b8 ff ff ff 7f       	mov    $0x7fffffff,%eax
    7661:	99                   	cltd   
    7662:	f7 7d f8             	idivl  -0x8(%rbp)
    7665:	39 45 fc             	cmp    %eax,-0x4(%rbp)
    7668:	7f 5d                	jg     76c7 <safe_mul_func_int32_t_s_s+0x85>
    766a:	83 7d fc 00          	cmpl   $0x0,-0x4(%rbp)
    766e:	7e 14                	jle    7684 <safe_mul_func_int32_t_s_s+0x42>
    7670:	83 7d f8 00          	cmpl   $0x0,-0x8(%rbp)
    7674:	7f 0e                	jg     7684 <safe_mul_func_int32_t_s_s+0x42>
    7676:	b8 00 00 00 80       	mov    $0x80000000,%eax
    767b:	99                   	cltd   
    767c:	f7 7d fc             	idivl  -0x4(%rbp)
    767f:	39 45 f8             	cmp    %eax,-0x8(%rbp)
    7682:	7c 43                	jl     76c7 <safe_mul_func_int32_t_s_s+0x85>
    7684:	83 7d fc 00          	cmpl   $0x0,-0x4(%rbp)
    7688:	7f 14                	jg     769e <safe_mul_func_int32_t_s_s+0x5c>
    768a:	83 7d f8 00          	cmpl   $0x0,-0x8(%rbp)
    768e:	7e 0e                	jle    769e <safe_mul_func_int32_t_s_s+0x5c>
    7690:	b8 00 00 00 80       	mov    $0x80000000,%eax
    7695:	99                   	cltd   
    7696:	f7 7d f8             	idivl  -0x8(%rbp)
    7699:	39 45 fc             	cmp    %eax,-0x4(%rbp)
    769c:	7c 29                	jl     76c7 <safe_mul_func_int32_t_s_s+0x85>
    769e:	83 7d fc 00          	cmpl   $0x0,-0x4(%rbp)
    76a2:	7f 1a                	jg     76be <safe_mul_func_int32_t_s_s+0x7c>
    76a4:	83 7d f8 00          	cmpl   $0x0,-0x8(%rbp)
    76a8:	7f 14                	jg     76be <safe_mul_func_int32_t_s_s+0x7c>
    76aa:	83 7d fc 00          	cmpl   $0x0,-0x4(%rbp)
    76ae:	74 0e                	je     76be <safe_mul_func_int32_t_s_s+0x7c>
    76b0:	b8 ff ff ff 7f       	mov    $0x7fffffff,%eax
    76b5:	99                   	cltd   
    76b6:	f7 7d fc             	idivl  -0x4(%rbp)
    76b9:	39 45 f8             	cmp    %eax,-0x8(%rbp)
    76bc:	7c 09                	jl     76c7 <safe_mul_func_int32_t_s_s+0x85>
    76be:	8b 45 fc             	mov    -0x4(%rbp),%eax
    76c1:	0f af 45 f8          	imul   -0x8(%rbp),%eax
    76c5:	eb 03                	jmp    76ca <safe_mul_func_int32_t_s_s+0x88>
    76c7:	8b 45 fc             	mov    -0x4(%rbp),%eax
    76ca:	5d                   	pop    %rbp
    76cb:	c3                   	retq   

00000000000076cc <safe_mod_func_int32_t_s_s>:
    76cc:	f3 0f 1e fa          	endbr64 
    76d0:	55                   	push   %rbp
    76d1:	48 89 e5             	mov    %rsp,%rbp
    76d4:	89 7d fc             	mov    %edi,-0x4(%rbp)
    76d7:	89 75 f8             	mov    %esi,-0x8(%rbp)
    76da:	83 7d f8 00          	cmpl   $0x0,-0x8(%rbp)
    76de:	74 1a                	je     76fa <safe_mod_func_int32_t_s_s+0x2e>
    76e0:	81 7d fc 00 00 00 80 	cmpl   $0x80000000,-0x4(%rbp)
    76e7:	75 06                	jne    76ef <safe_mod_func_int32_t_s_s+0x23>
    76e9:	83 7d f8 ff          	cmpl   $0xffffffff,-0x8(%rbp)
    76ed:	74 0b                	je     76fa <safe_mod_func_int32_t_s_s+0x2e>
    76ef:	8b 45 fc             	mov    -0x4(%rbp),%eax
    76f2:	99                   	cltd   
    76f3:	f7 7d f8             	idivl  -0x8(%rbp)
    76f6:	89 d0                	mov    %edx,%eax
    76f8:	eb 03                	jmp    76fd <safe_mod_func_int32_t_s_s+0x31>
    76fa:	8b 45 fc             	mov    -0x4(%rbp),%eax
    76fd:	5d                   	pop    %rbp
    76fe:	c3                   	retq   

00000000000076ff <safe_div_func_int32_t_s_s>:
    76ff:	f3 0f 1e fa          	endbr64 
    7703:	55                   	push   %rbp
    7704:	48 89 e5             	mov    %rsp,%rbp
    7707:	89 7d fc             	mov    %edi,-0x4(%rbp)
    770a:	89 75 f8             	mov    %esi,-0x8(%rbp)
    770d:	83 7d f8 00          	cmpl   $0x0,-0x8(%rbp)
    7711:	74 18                	je     772b <safe_div_func_int32_t_s_s+0x2c>
    7713:	81 7d fc 00 00 00 80 	cmpl   $0x80000000,-0x4(%rbp)
    771a:	75 06                	jne    7722 <safe_div_func_int32_t_s_s+0x23>
    771c:	83 7d f8 ff          	cmpl   $0xffffffff,-0x8(%rbp)
    7720:	74 09                	je     772b <safe_div_func_int32_t_s_s+0x2c>
    7722:	8b 45 fc             	mov    -0x4(%rbp),%eax
    7725:	99                   	cltd   
    7726:	f7 7d f8             	idivl  -0x8(%rbp)
    7729:	eb 03                	jmp    772e <safe_div_func_int32_t_s_s+0x2f>
    772b:	8b 45 fc             	mov    -0x4(%rbp),%eax
    772e:	5d                   	pop    %rbp
    772f:	c3                   	retq   

0000000000007730 <safe_lshift_func_int32_t_s_s>:
    7730:	f3 0f 1e fa          	endbr64 
    7734:	55                   	push   %rbp
    7735:	48 89 e5             	mov    %rsp,%rbp
    7738:	89 7d fc             	mov    %edi,-0x4(%rbp)
    773b:	89 75 f8             	mov    %esi,-0x8(%rbp)
    773e:	83 7d fc 00          	cmpl   $0x0,-0x4(%rbp)
    7742:	78 2d                	js     7771 <safe_lshift_func_int32_t_s_s+0x41>
    7744:	83 7d f8 00          	cmpl   $0x0,-0x8(%rbp)
    7748:	78 27                	js     7771 <safe_lshift_func_int32_t_s_s+0x41>
    774a:	83 7d f8 1f          	cmpl   $0x1f,-0x8(%rbp)
    774e:	7f 21                	jg     7771 <safe_lshift_func_int32_t_s_s+0x41>
    7750:	8b 45 f8             	mov    -0x8(%rbp),%eax
    7753:	ba ff ff ff 7f       	mov    $0x7fffffff,%edx
    7758:	89 c1                	mov    %eax,%ecx
    775a:	d3 fa                	sar    %cl,%edx
    775c:	89 d0                	mov    %edx,%eax
    775e:	39 45 fc             	cmp    %eax,-0x4(%rbp)
    7761:	7f 0e                	jg     7771 <safe_lshift_func_int32_t_s_s+0x41>
    7763:	8b 45 f8             	mov    -0x8(%rbp),%eax
    7766:	8b 55 fc             	mov    -0x4(%rbp),%edx
    7769:	89 c1                	mov    %eax,%ecx
    776b:	d3 e2                	shl    %cl,%edx
    776d:	89 d0                	mov    %edx,%eax
    776f:	eb 03                	jmp    7774 <safe_lshift_func_int32_t_s_s+0x44>
    7771:	8b 45 fc             	mov    -0x4(%rbp),%eax
    7774:	5d                   	pop    %rbp
    7775:	c3                   	retq   

0000000000007776 <safe_lshift_func_int32_t_s_u>:
    7776:	f3 0f 1e fa          	endbr64 
    777a:	55                   	push   %rbp
    777b:	48 89 e5             	mov    %rsp,%rbp
    777e:	89 7d fc             	mov    %edi,-0x4(%rbp)
    7781:	89 75 f8             	mov    %esi,-0x8(%rbp)
    7784:	83 7d fc 00          	cmpl   $0x0,-0x4(%rbp)
    7788:	78 27                	js     77b1 <safe_lshift_func_int32_t_s_u+0x3b>
    778a:	83 7d f8 1f          	cmpl   $0x1f,-0x8(%rbp)
    778e:	77 21                	ja     77b1 <safe_lshift_func_int32_t_s_u+0x3b>
    7790:	8b 45 f8             	mov    -0x8(%rbp),%eax
    7793:	ba ff ff ff 7f       	mov    $0x7fffffff,%edx
    7798:	89 c1                	mov    %eax,%ecx
    779a:	d3 fa                	sar    %cl,%edx
    779c:	89 d0                	mov    %edx,%eax
    779e:	39 45 fc             	cmp    %eax,-0x4(%rbp)
    77a1:	7f 0e                	jg     77b1 <safe_lshift_func_int32_t_s_u+0x3b>
    77a3:	8b 45 f8             	mov    -0x8(%rbp),%eax
    77a6:	8b 55 fc             	mov    -0x4(%rbp),%edx
    77a9:	89 c1                	mov    %eax,%ecx
    77ab:	d3 e2                	shl    %cl,%edx
    77ad:	89 d0                	mov    %edx,%eax
    77af:	eb 03                	jmp    77b4 <safe_lshift_func_int32_t_s_u+0x3e>
    77b1:	8b 45 fc             	mov    -0x4(%rbp),%eax
    77b4:	5d                   	pop    %rbp
    77b5:	c3                   	retq   

00000000000077b6 <safe_rshift_func_int32_t_s_s>:
    77b6:	f3 0f 1e fa          	endbr64 
    77ba:	55                   	push   %rbp
    77bb:	48 89 e5             	mov    %rsp,%rbp
    77be:	89 7d fc             	mov    %edi,-0x4(%rbp)
    77c1:	89 75 f8             	mov    %esi,-0x8(%rbp)
    77c4:	83 7d fc 00          	cmpl   $0x0,-0x4(%rbp)
    77c8:	78 1a                	js     77e4 <safe_rshift_func_int32_t_s_s+0x2e>
    77ca:	83 7d f8 00          	cmpl   $0x0,-0x8(%rbp)
    77ce:	78 14                	js     77e4 <safe_rshift_func_int32_t_s_s+0x2e>
    77d0:	83 7d f8 1f          	cmpl   $0x1f,-0x8(%rbp)
    77d4:	7f 0e                	jg     77e4 <safe_rshift_func_int32_t_s_s+0x2e>
    77d6:	8b 45 f8             	mov    -0x8(%rbp),%eax
    77d9:	8b 55 fc             	mov    -0x4(%rbp),%edx
    77dc:	89 c1                	mov    %eax,%ecx
    77de:	d3 fa                	sar    %cl,%edx
    77e0:	89 d0                	mov    %edx,%eax
    77e2:	eb 03                	jmp    77e7 <safe_rshift_func_int32_t_s_s+0x31>
    77e4:	8b 45 fc             	mov    -0x4(%rbp),%eax
    77e7:	5d                   	pop    %rbp
    77e8:	c3                   	retq   

00000000000077e9 <safe_rshift_func_int32_t_s_u>:
    77e9:	f3 0f 1e fa          	endbr64 
    77ed:	55                   	push   %rbp
    77ee:	48 89 e5             	mov    %rsp,%rbp
    77f1:	89 7d fc             	mov    %edi,-0x4(%rbp)
    77f4:	89 75 f8             	mov    %esi,-0x8(%rbp)
    77f7:	83 7d fc 00          	cmpl   $0x0,-0x4(%rbp)
    77fb:	78 14                	js     7811 <safe_rshift_func_int32_t_s_u+0x28>
    77fd:	83 7d f8 1f          	cmpl   $0x1f,-0x8(%rbp)
    7801:	77 0e                	ja     7811 <safe_rshift_func_int32_t_s_u+0x28>
    7803:	8b 45 f8             	mov    -0x8(%rbp),%eax
    7806:	8b 55 fc             	mov    -0x4(%rbp),%edx
    7809:	89 c1                	mov    %eax,%ecx
    780b:	d3 fa                	sar    %cl,%edx
    780d:	89 d0                	mov    %edx,%eax
    780f:	eb 03                	jmp    7814 <safe_rshift_func_int32_t_s_u+0x2b>
    7811:	8b 45 fc             	mov    -0x4(%rbp),%eax
    7814:	5d                   	pop    %rbp
    7815:	c3                   	retq   

0000000000007816 <safe_unary_minus_func_int64_t_s>:
    7816:	f3 0f 1e fa          	endbr64 
    781a:	55                   	push   %rbp
    781b:	48 89 e5             	mov    %rsp,%rbp
    781e:	48 89 7d f8          	mov    %rdi,-0x8(%rbp)
    7822:	48 b8 00 00 00 00 00 	movabs $0x8000000000000000,%rax
    7829:	00 00 80 
    782c:	48 39 45 f8          	cmp    %rax,-0x8(%rbp)
    7830:	74 09                	je     783b <safe_unary_minus_func_int64_t_s+0x25>
    7832:	48 8b 45 f8          	mov    -0x8(%rbp),%rax
    7836:	48 f7 d8             	neg    %rax
    7839:	eb 04                	jmp    783f <safe_unary_minus_func_int64_t_s+0x29>
    783b:	48 8b 45 f8          	mov    -0x8(%rbp),%rax
    783f:	5d                   	pop    %rbp
    7840:	c3                   	retq   

0000000000007841 <safe_add_func_int64_t_s_s>:
    7841:	f3 0f 1e fa          	endbr64 
    7845:	55                   	push   %rbp
    7846:	48 89 e5             	mov    %rsp,%rbp
    7849:	48 89 7d f8          	mov    %rdi,-0x8(%rbp)
    784d:	48 89 75 f0          	mov    %rsi,-0x10(%rbp)
    7851:	48 83 7d f8 00       	cmpq   $0x0,-0x8(%rbp)
    7856:	7e 1b                	jle    7873 <safe_add_func_int64_t_s_s+0x32>
    7858:	48 83 7d f0 00       	cmpq   $0x0,-0x10(%rbp)
    785d:	7e 14                	jle    7873 <safe_add_func_int64_t_s_s+0x32>
    785f:	48 b8 ff ff ff ff ff 	movabs $0x7fffffffffffffff,%rax
    7866:	ff ff 7f 
    7869:	48 2b 45 f0          	sub    -0x10(%rbp),%rax
    786d:	48 39 45 f8          	cmp    %rax,-0x8(%rbp)
    7871:	7f 2f                	jg     78a2 <safe_add_func_int64_t_s_s+0x61>
    7873:	48 83 7d f8 00       	cmpq   $0x0,-0x8(%rbp)
    7878:	79 1b                	jns    7895 <safe_add_func_int64_t_s_s+0x54>
    787a:	48 83 7d f0 00       	cmpq   $0x0,-0x10(%rbp)
    787f:	79 14                	jns    7895 <safe_add_func_int64_t_s_s+0x54>
    7881:	48 b8 00 00 00 00 00 	movabs $0x8000000000000000,%rax
    7888:	00 00 80 
    788b:	48 2b 45 f0          	sub    -0x10(%rbp),%rax
    788f:	48 39 45 f8          	cmp    %rax,-0x8(%rbp)
    7893:	7c 0d                	jl     78a2 <safe_add_func_int64_t_s_s+0x61>
    7895:	48 8b 55 f8          	mov    -0x8(%rbp),%rdx
    7899:	48 8b 45 f0          	mov    -0x10(%rbp),%rax
    789d:	48 01 d0             	add    %rdx,%rax
    78a0:	eb 04                	jmp    78a6 <safe_add_func_int64_t_s_s+0x65>
    78a2:	48 8b 45 f8          	mov    -0x8(%rbp),%rax
    78a6:	5d                   	pop    %rbp
    78a7:	c3                   	retq   

00000000000078a8 <safe_sub_func_int64_t_s_s>:
    78a8:	f3 0f 1e fa          	endbr64 
    78ac:	55                   	push   %rbp
    78ad:	48 89 e5             	mov    %rsp,%rbp
    78b0:	48 89 7d f8          	mov    %rdi,-0x8(%rbp)
    78b4:	48 89 75 f0          	mov    %rsi,-0x10(%rbp)
    78b8:	48 8b 45 f8          	mov    -0x8(%rbp),%rax
    78bc:	48 33 45 f0          	xor    -0x10(%rbp),%rax
    78c0:	48 89 c2             	mov    %rax,%rdx
    78c3:	48 8b 45 f8          	mov    -0x8(%rbp),%rax
    78c7:	48 33 45 f0          	xor    -0x10(%rbp),%rax
    78cb:	48 b9 00 00 00 00 00 	movabs $0x8000000000000000,%rcx
    78d2:	00 00 80 
    78d5:	48 21 c8             	and    %rcx,%rax
    78d8:	48 33 45 f8          	xor    -0x8(%rbp),%rax
    78dc:	48 2b 45 f0          	sub    -0x10(%rbp),%rax
    78e0:	48 33 45 f0          	xor    -0x10(%rbp),%rax
    78e4:	48 21 d0             	and    %rdx,%rax
    78e7:	48 85 c0             	test   %rax,%rax
    78ea:	78 0a                	js     78f6 <safe_sub_func_int64_t_s_s+0x4e>
    78ec:	48 8b 45 f8          	mov    -0x8(%rbp),%rax
    78f0:	48 2b 45 f0          	sub    -0x10(%rbp),%rax
    78f4:	eb 04                	jmp    78fa <safe_sub_func_int64_t_s_s+0x52>
    78f6:	48 8b 45 f8          	mov    -0x8(%rbp),%rax
    78fa:	5d                   	pop    %rbp
    78fb:	c3                   	retq   

00000000000078fc <safe_mul_func_int64_t_s_s>:
    78fc:	f3 0f 1e fa          	endbr64 
    7900:	55                   	push   %rbp
    7901:	48 89 e5             	mov    %rsp,%rbp
    7904:	48 89 7d f8          	mov    %rdi,-0x8(%rbp)
    7908:	48 89 75 f0          	mov    %rsi,-0x10(%rbp)
    790c:	48 83 7d f8 00       	cmpq   $0x0,-0x8(%rbp)
    7911:	7e 1d                	jle    7930 <safe_mul_func_int64_t_s_s+0x34>
    7913:	48 83 7d f0 00       	cmpq   $0x0,-0x10(%rbp)
    7918:	7e 16                	jle    7930 <safe_mul_func_int64_t_s_s+0x34>
    791a:	48 b8 ff ff ff ff ff 	movabs $0x7fffffffffffffff,%rax
    7921:	ff ff 7f 
    7924:	48 99                	cqto   
    7926:	48 f7 7d f0          	idivq  -0x10(%rbp)
    792a:	48 39 45 f8          	cmp    %rax,-0x8(%rbp)
    792e:	7f 7e                	jg     79ae <safe_mul_func_int64_t_s_s+0xb2>
    7930:	48 83 7d f8 00       	cmpq   $0x0,-0x8(%rbp)
    7935:	7e 1d                	jle    7954 <safe_mul_func_int64_t_s_s+0x58>
    7937:	48 83 7d f0 00       	cmpq   $0x0,-0x10(%rbp)
    793c:	7f 16                	jg     7954 <safe_mul_func_int64_t_s_s+0x58>
    793e:	48 b8 00 00 00 00 00 	movabs $0x8000000000000000,%rax
    7945:	00 00 80 
    7948:	48 99                	cqto   
    794a:	48 f7 7d f8          	idivq  -0x8(%rbp)
    794e:	48 39 45 f0          	cmp    %rax,-0x10(%rbp)
    7952:	7c 5a                	jl     79ae <safe_mul_func_int64_t_s_s+0xb2>
    7954:	48 83 7d f8 00       	cmpq   $0x0,-0x8(%rbp)
    7959:	7f 1d                	jg     7978 <safe_mul_func_int64_t_s_s+0x7c>
    795b:	48 83 7d f0 00       	cmpq   $0x0,-0x10(%rbp)
    7960:	7e 16                	jle    7978 <safe_mul_func_int64_t_s_s+0x7c>
    7962:	48 b8 00 00 00 00 00 	movabs $0x8000000000000000,%rax
    7969:	00 00 80 
    796c:	48 99                	cqto   
    796e:	48 f7 7d f0          	idivq  -0x10(%rbp)
    7972:	48 39 45 f8          	cmp    %rax,-0x8(%rbp)
    7976:	7c 36                	jl     79ae <safe_mul_func_int64_t_s_s+0xb2>
    7978:	48 83 7d f8 00       	cmpq   $0x0,-0x8(%rbp)
    797d:	7f 24                	jg     79a3 <safe_mul_func_int64_t_s_s+0xa7>
    797f:	48 83 7d f0 00       	cmpq   $0x0,-0x10(%rbp)
    7984:	7f 1d                	jg     79a3 <safe_mul_func_int64_t_s_s+0xa7>
    7986:	48 83 7d f8 00       	cmpq   $0x0,-0x8(%rbp)
    798b:	74 16                	je     79a3 <safe_mul_func_int64_t_s_s+0xa7>
    798d:	48 b8 ff ff ff ff ff 	movabs $0x7fffffffffffffff,%rax
    7994:	ff ff 7f 
    7997:	48 99                	cqto   
    7999:	48 f7 7d f8          	idivq  -0x8(%rbp)
    799d:	48 39 45 f0          	cmp    %rax,-0x10(%rbp)
    79a1:	7c 0b                	jl     79ae <safe_mul_func_int64_t_s_s+0xb2>
    79a3:	48 8b 45 f8          	mov    -0x8(%rbp),%rax
    79a7:	48 0f af 45 f0       	imul   -0x10(%rbp),%rax
    79ac:	eb 04                	jmp    79b2 <safe_mul_func_int64_t_s_s+0xb6>
    79ae:	48 8b 45 f8          	mov    -0x8(%rbp),%rax
    79b2:	5d                   	pop    %rbp
    79b3:	c3                   	retq   

00000000000079b4 <safe_mod_func_int64_t_s_s>:
    79b4:	f3 0f 1e fa          	endbr64 
    79b8:	55                   	push   %rbp
    79b9:	48 89 e5             	mov    %rsp,%rbp
    79bc:	48 89 7d f8          	mov    %rdi,-0x8(%rbp)
    79c0:	48 89 75 f0          	mov    %rsi,-0x10(%rbp)
    79c4:	48 83 7d f0 00       	cmpq   $0x0,-0x10(%rbp)
    79c9:	74 26                	je     79f1 <safe_mod_func_int64_t_s_s+0x3d>
    79cb:	48 b8 00 00 00 00 00 	movabs $0x8000000000000000,%rax
    79d2:	00 00 80 
    79d5:	48 39 45 f8          	cmp    %rax,-0x8(%rbp)
    79d9:	75 07                	jne    79e2 <safe_mod_func_int64_t_s_s+0x2e>
    79db:	48 83 7d f0 ff       	cmpq   $0xffffffffffffffff,-0x10(%rbp)
    79e0:	74 0f                	je     79f1 <safe_mod_func_int64_t_s_s+0x3d>
    79e2:	48 8b 45 f8          	mov    -0x8(%rbp),%rax
    79e6:	48 99                	cqto   
    79e8:	48 f7 7d f0          	idivq  -0x10(%rbp)
    79ec:	48 89 d0             	mov    %rdx,%rax
    79ef:	eb 04                	jmp    79f5 <safe_mod_func_int64_t_s_s+0x41>
    79f1:	48 8b 45 f8          	mov    -0x8(%rbp),%rax
    79f5:	5d                   	pop    %rbp
    79f6:	c3                   	retq   

00000000000079f7 <safe_div_func_int64_t_s_s>:
    79f7:	f3 0f 1e fa          	endbr64 
    79fb:	55                   	push   %rbp
    79fc:	48 89 e5             	mov    %rsp,%rbp
    79ff:	48 89 7d f8          	mov    %rdi,-0x8(%rbp)
    7a03:	48 89 75 f0          	mov    %rsi,-0x10(%rbp)
    7a07:	48 83 7d f0 00       	cmpq   $0x0,-0x10(%rbp)
    7a0c:	74 23                	je     7a31 <safe_div_func_int64_t_s_s+0x3a>
    7a0e:	48 b8 00 00 00 00 00 	movabs $0x8000000000000000,%rax
    7a15:	00 00 80 
    7a18:	48 39 45 f8          	cmp    %rax,-0x8(%rbp)
    7a1c:	75 07                	jne    7a25 <safe_div_func_int64_t_s_s+0x2e>
    7a1e:	48 83 7d f0 ff       	cmpq   $0xffffffffffffffff,-0x10(%rbp)
    7a23:	74 0c                	je     7a31 <safe_div_func_int64_t_s_s+0x3a>
    7a25:	48 8b 45 f8          	mov    -0x8(%rbp),%rax
    7a29:	48 99                	cqto   
    7a2b:	48 f7 7d f0          	idivq  -0x10(%rbp)
    7a2f:	eb 04                	jmp    7a35 <safe_div_func_int64_t_s_s+0x3e>
    7a31:	48 8b 45 f8          	mov    -0x8(%rbp),%rax
    7a35:	5d                   	pop    %rbp
    7a36:	c3                   	retq   

0000000000007a37 <safe_lshift_func_int64_t_s_s>:
    7a37:	f3 0f 1e fa          	endbr64 
    7a3b:	55                   	push   %rbp
    7a3c:	48 89 e5             	mov    %rsp,%rbp
    7a3f:	48 89 7d f8          	mov    %rdi,-0x8(%rbp)
    7a43:	89 75 f4             	mov    %esi,-0xc(%rbp)
    7a46:	48 83 7d f8 00       	cmpq   $0x0,-0x8(%rbp)
    7a4b:	78 38                	js     7a85 <safe_lshift_func_int64_t_s_s+0x4e>
    7a4d:	83 7d f4 00          	cmpl   $0x0,-0xc(%rbp)
    7a51:	78 32                	js     7a85 <safe_lshift_func_int64_t_s_s+0x4e>
    7a53:	83 7d f4 1f          	cmpl   $0x1f,-0xc(%rbp)
    7a57:	7f 2c                	jg     7a85 <safe_lshift_func_int64_t_s_s+0x4e>
    7a59:	8b 45 f4             	mov    -0xc(%rbp),%eax
    7a5c:	48 ba ff ff ff ff ff 	movabs $0x7fffffffffffffff,%rdx
    7a63:	ff ff 7f 
    7a66:	89 c1                	mov    %eax,%ecx
    7a68:	48 d3 fa             	sar    %cl,%rdx
    7a6b:	48 89 d0             	mov    %rdx,%rax
    7a6e:	48 39 45 f8          	cmp    %rax,-0x8(%rbp)
    7a72:	7f 11                	jg     7a85 <safe_lshift_func_int64_t_s_s+0x4e>
    7a74:	8b 45 f4             	mov    -0xc(%rbp),%eax
    7a77:	48 8b 55 f8          	mov    -0x8(%rbp),%rdx
    7a7b:	89 c1                	mov    %eax,%ecx
    7a7d:	48 d3 e2             	shl    %cl,%rdx
    7a80:	48 89 d0             	mov    %rdx,%rax
    7a83:	eb 04                	jmp    7a89 <safe_lshift_func_int64_t_s_s+0x52>
    7a85:	48 8b 45 f8          	mov    -0x8(%rbp),%rax
    7a89:	5d                   	pop    %rbp
    7a8a:	c3                   	retq   

0000000000007a8b <safe_lshift_func_int64_t_s_u>:
    7a8b:	f3 0f 1e fa          	endbr64 
    7a8f:	55                   	push   %rbp
    7a90:	48 89 e5             	mov    %rsp,%rbp
    7a93:	48 89 7d f8          	mov    %rdi,-0x8(%rbp)
    7a97:	89 75 f4             	mov    %esi,-0xc(%rbp)
    7a9a:	48 83 7d f8 00       	cmpq   $0x0,-0x8(%rbp)
    7a9f:	78 32                	js     7ad3 <safe_lshift_func_int64_t_s_u+0x48>
    7aa1:	83 7d f4 1f          	cmpl   $0x1f,-0xc(%rbp)
    7aa5:	77 2c                	ja     7ad3 <safe_lshift_func_int64_t_s_u+0x48>
    7aa7:	8b 45 f4             	mov    -0xc(%rbp),%eax
    7aaa:	48 ba ff ff ff ff ff 	movabs $0x7fffffffffffffff,%rdx
    7ab1:	ff ff 7f 
    7ab4:	89 c1                	mov    %eax,%ecx
    7ab6:	48 d3 fa             	sar    %cl,%rdx
    7ab9:	48 89 d0             	mov    %rdx,%rax
    7abc:	48 39 45 f8          	cmp    %rax,-0x8(%rbp)
    7ac0:	7f 11                	jg     7ad3 <safe_lshift_func_int64_t_s_u+0x48>
    7ac2:	8b 45 f4             	mov    -0xc(%rbp),%eax
    7ac5:	48 8b 55 f8          	mov    -0x8(%rbp),%rdx
    7ac9:	89 c1                	mov    %eax,%ecx
    7acb:	48 d3 e2             	shl    %cl,%rdx
    7ace:	48 89 d0             	mov    %rdx,%rax
    7ad1:	eb 04                	jmp    7ad7 <safe_lshift_func_int64_t_s_u+0x4c>
    7ad3:	48 8b 45 f8          	mov    -0x8(%rbp),%rax
    7ad7:	5d                   	pop    %rbp
    7ad8:	c3                   	retq   

0000000000007ad9 <safe_rshift_func_int64_t_s_s>:
    7ad9:	f3 0f 1e fa          	endbr64 
    7add:	55                   	push   %rbp
    7ade:	48 89 e5             	mov    %rsp,%rbp
    7ae1:	48 89 7d f8          	mov    %rdi,-0x8(%rbp)
    7ae5:	89 75 f4             	mov    %esi,-0xc(%rbp)
    7ae8:	48 83 7d f8 00       	cmpq   $0x0,-0x8(%rbp)
    7aed:	78 1d                	js     7b0c <safe_rshift_func_int64_t_s_s+0x33>
    7aef:	83 7d f4 00          	cmpl   $0x0,-0xc(%rbp)
    7af3:	78 17                	js     7b0c <safe_rshift_func_int64_t_s_s+0x33>
    7af5:	83 7d f4 1f          	cmpl   $0x1f,-0xc(%rbp)
    7af9:	7f 11                	jg     7b0c <safe_rshift_func_int64_t_s_s+0x33>
    7afb:	8b 45 f4             	mov    -0xc(%rbp),%eax
    7afe:	48 8b 55 f8          	mov    -0x8(%rbp),%rdx
    7b02:	89 c1                	mov    %eax,%ecx
    7b04:	48 d3 fa             	sar    %cl,%rdx
    7b07:	48 89 d0             	mov    %rdx,%rax
    7b0a:	eb 04                	jmp    7b10 <safe_rshift_func_int64_t_s_s+0x37>
    7b0c:	48 8b 45 f8          	mov    -0x8(%rbp),%rax
    7b10:	5d                   	pop    %rbp
    7b11:	c3                   	retq   

0000000000007b12 <safe_rshift_func_int64_t_s_u>:
    7b12:	f3 0f 1e fa          	endbr64 
    7b16:	55                   	push   %rbp
    7b17:	48 89 e5             	mov    %rsp,%rbp
    7b1a:	48 89 7d f8          	mov    %rdi,-0x8(%rbp)
    7b1e:	89 75 f4             	mov    %esi,-0xc(%rbp)
    7b21:	48 83 7d f8 00       	cmpq   $0x0,-0x8(%rbp)
    7b26:	78 17                	js     7b3f <safe_rshift_func_int64_t_s_u+0x2d>
    7b28:	83 7d f4 1f          	cmpl   $0x1f,-0xc(%rbp)
    7b2c:	77 11                	ja     7b3f <safe_rshift_func_int64_t_s_u+0x2d>
    7b2e:	8b 45 f4             	mov    -0xc(%rbp),%eax
    7b31:	48 8b 55 f8          	mov    -0x8(%rbp),%rdx
    7b35:	89 c1                	mov    %eax,%ecx
    7b37:	48 d3 fa             	sar    %cl,%rdx
    7b3a:	48 89 d0             	mov    %rdx,%rax
    7b3d:	eb 04                	jmp    7b43 <safe_rshift_func_int64_t_s_u+0x31>
    7b3f:	48 8b 45 f8          	mov    -0x8(%rbp),%rax
    7b43:	5d                   	pop    %rbp
    7b44:	c3                   	retq   

0000000000007b45 <safe_unary_minus_func_uint8_t_u>:
    7b45:	f3 0f 1e fa          	endbr64 
    7b49:	55                   	push   %rbp
    7b4a:	48 89 e5             	mov    %rsp,%rbp
    7b4d:	89 f8                	mov    %edi,%eax
    7b4f:	88 45 fc             	mov    %al,-0x4(%rbp)
    7b52:	0f b6 45 fc          	movzbl -0x4(%rbp),%eax
    7b56:	f7 d8                	neg    %eax
    7b58:	5d                   	pop    %rbp
    7b59:	c3                   	retq   

0000000000007b5a <safe_add_func_uint8_t_u_u>:
    7b5a:	f3 0f 1e fa          	endbr64 
    7b5e:	55                   	push   %rbp
    7b5f:	48 89 e5             	mov    %rsp,%rbp
    7b62:	89 fa                	mov    %edi,%edx
    7b64:	89 f0                	mov    %esi,%eax
    7b66:	88 55 fc             	mov    %dl,-0x4(%rbp)
    7b69:	88 45 f8             	mov    %al,-0x8(%rbp)
    7b6c:	0f b6 55 fc          	movzbl -0x4(%rbp),%edx
    7b70:	0f b6 45 f8          	movzbl -0x8(%rbp),%eax
    7b74:	01 d0                	add    %edx,%eax
    7b76:	5d                   	pop    %rbp
    7b77:	c3                   	retq   

0000000000007b78 <safe_sub_func_uint8_t_u_u>:
    7b78:	f3 0f 1e fa          	endbr64 
    7b7c:	55                   	push   %rbp
    7b7d:	48 89 e5             	mov    %rsp,%rbp
    7b80:	89 fa                	mov    %edi,%edx
    7b82:	89 f0                	mov    %esi,%eax
    7b84:	88 55 fc             	mov    %dl,-0x4(%rbp)
    7b87:	88 45 f8             	mov    %al,-0x8(%rbp)
    7b8a:	0f b6 45 fc          	movzbl -0x4(%rbp),%eax
    7b8e:	2a 45 f8             	sub    -0x8(%rbp),%al
    7b91:	5d                   	pop    %rbp
    7b92:	c3                   	retq   

0000000000007b93 <safe_mul_func_uint8_t_u_u>:
    7b93:	f3 0f 1e fa          	endbr64 
    7b97:	55                   	push   %rbp
    7b98:	48 89 e5             	mov    %rsp,%rbp
    7b9b:	89 fa                	mov    %edi,%edx
    7b9d:	89 f0                	mov    %esi,%eax
    7b9f:	88 55 fc             	mov    %dl,-0x4(%rbp)
    7ba2:	88 45 f8             	mov    %al,-0x8(%rbp)
    7ba5:	0f b6 45 fc          	movzbl -0x4(%rbp),%eax
    7ba9:	f6 65 f8             	mulb   -0x8(%rbp)
    7bac:	5d                   	pop    %rbp
    7bad:	c3                   	retq   

0000000000007bae <safe_mod_func_uint8_t_u_u>:
    7bae:	f3 0f 1e fa          	endbr64 
    7bb2:	55                   	push   %rbp
    7bb3:	48 89 e5             	mov    %rsp,%rbp
    7bb6:	89 fa                	mov    %edi,%edx
    7bb8:	89 f0                	mov    %esi,%eax
    7bba:	88 55 fc             	mov    %dl,-0x4(%rbp)
    7bbd:	88 45 f8             	mov    %al,-0x8(%rbp)
    7bc0:	80 7d f8 00          	cmpb   $0x0,-0x8(%rbp)
    7bc4:	74 0f                	je     7bd5 <safe_mod_func_uint8_t_u_u+0x27>
    7bc6:	0f b6 45 fc          	movzbl -0x4(%rbp),%eax
    7bca:	0f b6 c0             	movzbl %al,%eax
    7bcd:	f6 75 f8             	divb   -0x8(%rbp)
    7bd0:	0f b6 c4             	movzbl %ah,%eax
    7bd3:	eb 04                	jmp    7bd9 <safe_mod_func_uint8_t_u_u+0x2b>
    7bd5:	0f b6 45 fc          	movzbl -0x4(%rbp),%eax
    7bd9:	5d                   	pop    %rbp
    7bda:	c3                   	retq   

0000000000007bdb <safe_div_func_uint8_t_u_u>:
    7bdb:	f3 0f 1e fa          	endbr64 
    7bdf:	55                   	push   %rbp
    7be0:	48 89 e5             	mov    %rsp,%rbp
    7be3:	89 fa                	mov    %edi,%edx
    7be5:	89 f0                	mov    %esi,%eax
    7be7:	88 55 fc             	mov    %dl,-0x4(%rbp)
    7bea:	88 45 f8             	mov    %al,-0x8(%rbp)
    7bed:	80 7d f8 00          	cmpb   $0x0,-0x8(%rbp)
    7bf1:	74 0c                	je     7bff <safe_div_func_uint8_t_u_u+0x24>
    7bf3:	0f b6 45 fc          	movzbl -0x4(%rbp),%eax
    7bf7:	0f b6 c0             	movzbl %al,%eax
    7bfa:	f6 75 f8             	divb   -0x8(%rbp)
    7bfd:	eb 04                	jmp    7c03 <safe_div_func_uint8_t_u_u+0x28>
    7bff:	0f b6 45 fc          	movzbl -0x4(%rbp),%eax
    7c03:	5d                   	pop    %rbp
    7c04:	c3                   	retq   

0000000000007c05 <safe_lshift_func_uint8_t_u_s>:
    7c05:	f3 0f 1e fa          	endbr64 
    7c09:	55                   	push   %rbp
    7c0a:	48 89 e5             	mov    %rsp,%rbp
    7c0d:	89 f8                	mov    %edi,%eax
    7c0f:	89 75 f8             	mov    %esi,-0x8(%rbp)
    7c12:	88 45 fc             	mov    %al,-0x4(%rbp)
    7c15:	83 7d f8 00          	cmpl   $0x0,-0x8(%rbp)
    7c19:	78 2b                	js     7c46 <safe_lshift_func_uint8_t_u_s+0x41>
    7c1b:	83 7d f8 1f          	cmpl   $0x1f,-0x8(%rbp)
    7c1f:	7f 25                	jg     7c46 <safe_lshift_func_uint8_t_u_s+0x41>
    7c21:	0f b6 55 fc          	movzbl -0x4(%rbp),%edx
    7c25:	8b 45 f8             	mov    -0x8(%rbp),%eax
    7c28:	be ff 00 00 00       	mov    $0xff,%esi
    7c2d:	89 c1                	mov    %eax,%ecx
    7c2f:	d3 fe                	sar    %cl,%esi
    7c31:	89 f0                	mov    %esi,%eax
    7c33:	39 c2                	cmp    %eax,%edx
    7c35:	7f 0f                	jg     7c46 <safe_lshift_func_uint8_t_u_s+0x41>
    7c37:	0f b6 55 fc          	movzbl -0x4(%rbp),%edx
    7c3b:	8b 45 f8             	mov    -0x8(%rbp),%eax
    7c3e:	89 c1                	mov    %eax,%ecx
    7c40:	d3 e2                	shl    %cl,%edx
    7c42:	89 d0                	mov    %edx,%eax
    7c44:	eb 04                	jmp    7c4a <safe_lshift_func_uint8_t_u_s+0x45>
    7c46:	0f b6 45 fc          	movzbl -0x4(%rbp),%eax
    7c4a:	5d                   	pop    %rbp
    7c4b:	c3                   	retq   

0000000000007c4c <safe_lshift_func_uint8_t_u_u>:
    7c4c:	f3 0f 1e fa          	endbr64 
    7c50:	55                   	push   %rbp
    7c51:	48 89 e5             	mov    %rsp,%rbp
    7c54:	89 f8                	mov    %edi,%eax
    7c56:	89 75 f8             	mov    %esi,-0x8(%rbp)
    7c59:	88 45 fc             	mov    %al,-0x4(%rbp)
    7c5c:	83 7d f8 1f          	cmpl   $0x1f,-0x8(%rbp)
    7c60:	77 25                	ja     7c87 <safe_lshift_func_uint8_t_u_u+0x3b>
    7c62:	0f b6 55 fc          	movzbl -0x4(%rbp),%edx
    7c66:	8b 45 f8             	mov    -0x8(%rbp),%eax
    7c69:	be ff 00 00 00       	mov    $0xff,%esi
    7c6e:	89 c1                	mov    %eax,%ecx
    7c70:	d3 fe                	sar    %cl,%esi
    7c72:	89 f0                	mov    %esi,%eax
    7c74:	39 c2                	cmp    %eax,%edx
    7c76:	7f 0f                	jg     7c87 <safe_lshift_func_uint8_t_u_u+0x3b>
    7c78:	0f b6 55 fc          	movzbl -0x4(%rbp),%edx
    7c7c:	8b 45 f8             	mov    -0x8(%rbp),%eax
    7c7f:	89 c1                	mov    %eax,%ecx
    7c81:	d3 e2                	shl    %cl,%edx
    7c83:	89 d0                	mov    %edx,%eax
    7c85:	eb 04                	jmp    7c8b <safe_lshift_func_uint8_t_u_u+0x3f>
    7c87:	0f b6 45 fc          	movzbl -0x4(%rbp),%eax
    7c8b:	5d                   	pop    %rbp
    7c8c:	c3                   	retq   

0000000000007c8d <safe_rshift_func_uint8_t_u_s>:
    7c8d:	f3 0f 1e fa          	endbr64 
    7c91:	55                   	push   %rbp
    7c92:	48 89 e5             	mov    %rsp,%rbp
    7c95:	89 f8                	mov    %edi,%eax
    7c97:	89 75 f8             	mov    %esi,-0x8(%rbp)
    7c9a:	88 45 fc             	mov    %al,-0x4(%rbp)
    7c9d:	83 7d f8 00          	cmpl   $0x0,-0x8(%rbp)
    7ca1:	78 15                	js     7cb8 <safe_rshift_func_uint8_t_u_s+0x2b>
    7ca3:	83 7d f8 1f          	cmpl   $0x1f,-0x8(%rbp)
    7ca7:	7f 0f                	jg     7cb8 <safe_rshift_func_uint8_t_u_s+0x2b>
    7ca9:	0f b6 55 fc          	movzbl -0x4(%rbp),%edx
    7cad:	8b 45 f8             	mov    -0x8(%rbp),%eax
    7cb0:	89 c1                	mov    %eax,%ecx
    7cb2:	d3 fa                	sar    %cl,%edx
    7cb4:	89 d0                	mov    %edx,%eax
    7cb6:	eb 04                	jmp    7cbc <safe_rshift_func_uint8_t_u_s+0x2f>
    7cb8:	0f b6 45 fc          	movzbl -0x4(%rbp),%eax
    7cbc:	5d                   	pop    %rbp
    7cbd:	c3                   	retq   

0000000000007cbe <safe_rshift_func_uint8_t_u_u>:
    7cbe:	f3 0f 1e fa          	endbr64 
    7cc2:	55                   	push   %rbp
    7cc3:	48 89 e5             	mov    %rsp,%rbp
    7cc6:	89 f8                	mov    %edi,%eax
    7cc8:	89 75 f8             	mov    %esi,-0x8(%rbp)
    7ccb:	88 45 fc             	mov    %al,-0x4(%rbp)
    7cce:	83 7d f8 1f          	cmpl   $0x1f,-0x8(%rbp)
    7cd2:	77 0f                	ja     7ce3 <safe_rshift_func_uint8_t_u_u+0x25>
    7cd4:	0f b6 55 fc          	movzbl -0x4(%rbp),%edx
    7cd8:	8b 45 f8             	mov    -0x8(%rbp),%eax
    7cdb:	89 c1                	mov    %eax,%ecx
    7cdd:	d3 fa                	sar    %cl,%edx
    7cdf:	89 d0                	mov    %edx,%eax
    7ce1:	eb 04                	jmp    7ce7 <safe_rshift_func_uint8_t_u_u+0x29>
    7ce3:	0f b6 45 fc          	movzbl -0x4(%rbp),%eax
    7ce7:	5d                   	pop    %rbp
    7ce8:	c3                   	retq   

0000000000007ce9 <safe_unary_minus_func_uint16_t_u>:
    7ce9:	f3 0f 1e fa          	endbr64 
    7ced:	55                   	push   %rbp
    7cee:	48 89 e5             	mov    %rsp,%rbp
    7cf1:	89 f8                	mov    %edi,%eax
    7cf3:	66 89 45 fc          	mov    %ax,-0x4(%rbp)
    7cf7:	0f b7 45 fc          	movzwl -0x4(%rbp),%eax
    7cfb:	f7 d8                	neg    %eax
    7cfd:	5d                   	pop    %rbp
    7cfe:	c3                   	retq   

0000000000007cff <safe_add_func_uint16_t_u_u>:
    7cff:	f3 0f 1e fa          	endbr64 
    7d03:	55                   	push   %rbp
    7d04:	48 89 e5             	mov    %rsp,%rbp
    7d07:	89 fa                	mov    %edi,%edx
    7d09:	89 f0                	mov    %esi,%eax
    7d0b:	66 89 55 fc          	mov    %dx,-0x4(%rbp)
    7d0f:	66 89 45 f8          	mov    %ax,-0x8(%rbp)
    7d13:	0f b7 55 fc          	movzwl -0x4(%rbp),%edx
    7d17:	0f b7 45 f8          	movzwl -0x8(%rbp),%eax
    7d1b:	01 d0                	add    %edx,%eax
    7d1d:	5d                   	pop    %rbp
    7d1e:	c3                   	retq   

0000000000007d1f <safe_sub_func_uint16_t_u_u>:
    7d1f:	f3 0f 1e fa          	endbr64 
    7d23:	55                   	push   %rbp
    7d24:	48 89 e5             	mov    %rsp,%rbp
    7d27:	89 fa                	mov    %edi,%edx
    7d29:	89 f0                	mov    %esi,%eax
    7d2b:	66 89 55 fc          	mov    %dx,-0x4(%rbp)
    7d2f:	66 89 45 f8          	mov    %ax,-0x8(%rbp)
    7d33:	0f b7 45 fc          	movzwl -0x4(%rbp),%eax
    7d37:	66 2b 45 f8          	sub    -0x8(%rbp),%ax
    7d3b:	5d                   	pop    %rbp
    7d3c:	c3                   	retq   

0000000000007d3d <safe_mul_func_uint16_t_u_u>:
    7d3d:	f3 0f 1e fa          	endbr64 
    7d41:	55                   	push   %rbp
    7d42:	48 89 e5             	mov    %rsp,%rbp
    7d45:	89 fa                	mov    %edi,%edx
    7d47:	89 f0                	mov    %esi,%eax
    7d49:	66 89 55 fc          	mov    %dx,-0x4(%rbp)
    7d4d:	66 89 45 f8          	mov    %ax,-0x8(%rbp)
    7d51:	0f b7 45 fc          	movzwl -0x4(%rbp),%eax
    7d55:	66 0f af 45 f8       	imul   -0x8(%rbp),%ax
    7d5a:	5d                   	pop    %rbp
    7d5b:	c3                   	retq   

0000000000007d5c <safe_mod_func_uint16_t_u_u>:
    7d5c:	f3 0f 1e fa          	endbr64 
    7d60:	55                   	push   %rbp
    7d61:	48 89 e5             	mov    %rsp,%rbp
    7d64:	89 fa                	mov    %edi,%edx
    7d66:	89 f0                	mov    %esi,%eax
    7d68:	66 89 55 fc          	mov    %dx,-0x4(%rbp)
    7d6c:	66 89 45 f8          	mov    %ax,-0x8(%rbp)
    7d70:	66 83 7d f8 00       	cmpw   $0x0,-0x8(%rbp)
    7d75:	74 11                	je     7d88 <safe_mod_func_uint16_t_u_u+0x2c>
    7d77:	0f b7 45 fc          	movzwl -0x4(%rbp),%eax
    7d7b:	ba 00 00 00 00       	mov    $0x0,%edx
    7d80:	66 f7 75 f8          	divw   -0x8(%rbp)
    7d84:	89 d0                	mov    %edx,%eax
    7d86:	eb 04                	jmp    7d8c <safe_mod_func_uint16_t_u_u+0x30>
    7d88:	0f b7 45 fc          	movzwl -0x4(%rbp),%eax
    7d8c:	5d                   	pop    %rbp
    7d8d:	c3                   	retq   

0000000000007d8e <safe_div_func_uint16_t_u_u>:
    7d8e:	f3 0f 1e fa          	endbr64 
    7d92:	55                   	push   %rbp
    7d93:	48 89 e5             	mov    %rsp,%rbp
    7d96:	89 fa                	mov    %edi,%edx
    7d98:	89 f0                	mov    %esi,%eax
    7d9a:	66 89 55 fc          	mov    %dx,-0x4(%rbp)
    7d9e:	66 89 45 f8          	mov    %ax,-0x8(%rbp)
    7da2:	66 83 7d f8 00       	cmpw   $0x0,-0x8(%rbp)
    7da7:	74 0f                	je     7db8 <safe_div_func_uint16_t_u_u+0x2a>
    7da9:	0f b7 45 fc          	movzwl -0x4(%rbp),%eax
    7dad:	ba 00 00 00 00       	mov    $0x0,%edx
    7db2:	66 f7 75 f8          	divw   -0x8(%rbp)
    7db6:	eb 04                	jmp    7dbc <safe_div_func_uint16_t_u_u+0x2e>
    7db8:	0f b7 45 fc          	movzwl -0x4(%rbp),%eax
    7dbc:	5d                   	pop    %rbp
    7dbd:	c3                   	retq   

0000000000007dbe <safe_lshift_func_uint16_t_u_s>:
    7dbe:	f3 0f 1e fa          	endbr64 
    7dc2:	55                   	push   %rbp
    7dc3:	48 89 e5             	mov    %rsp,%rbp
    7dc6:	89 f8                	mov    %edi,%eax
    7dc8:	89 75 f8             	mov    %esi,-0x8(%rbp)
    7dcb:	66 89 45 fc          	mov    %ax,-0x4(%rbp)
    7dcf:	83 7d f8 00          	cmpl   $0x0,-0x8(%rbp)
    7dd3:	78 2b                	js     7e00 <safe_lshift_func_uint16_t_u_s+0x42>
    7dd5:	83 7d f8 1f          	cmpl   $0x1f,-0x8(%rbp)
    7dd9:	7f 25                	jg     7e00 <safe_lshift_func_uint16_t_u_s+0x42>
    7ddb:	0f b7 55 fc          	movzwl -0x4(%rbp),%edx
    7ddf:	8b 45 f8             	mov    -0x8(%rbp),%eax
    7de2:	be ff ff 00 00       	mov    $0xffff,%esi
    7de7:	89 c1                	mov    %eax,%ecx
    7de9:	d3 fe                	sar    %cl,%esi
    7deb:	89 f0                	mov    %esi,%eax
    7ded:	39 c2                	cmp    %eax,%edx
    7def:	7f 0f                	jg     7e00 <safe_lshift_func_uint16_t_u_s+0x42>
    7df1:	0f b7 55 fc          	movzwl -0x4(%rbp),%edx
    7df5:	8b 45 f8             	mov    -0x8(%rbp),%eax
    7df8:	89 c1                	mov    %eax,%ecx
    7dfa:	d3 e2                	shl    %cl,%edx
    7dfc:	89 d0                	mov    %edx,%eax
    7dfe:	eb 04                	jmp    7e04 <safe_lshift_func_uint16_t_u_s+0x46>
    7e00:	0f b7 45 fc          	movzwl -0x4(%rbp),%eax
    7e04:	5d                   	pop    %rbp
    7e05:	c3                   	retq   

0000000000007e06 <safe_lshift_func_uint16_t_u_u>:
    7e06:	f3 0f 1e fa          	endbr64 
    7e0a:	55                   	push   %rbp
    7e0b:	48 89 e5             	mov    %rsp,%rbp
    7e0e:	89 f8                	mov    %edi,%eax
    7e10:	89 75 f8             	mov    %esi,-0x8(%rbp)
    7e13:	66 89 45 fc          	mov    %ax,-0x4(%rbp)
    7e17:	83 7d f8 1f          	cmpl   $0x1f,-0x8(%rbp)
    7e1b:	77 25                	ja     7e42 <safe_lshift_func_uint16_t_u_u+0x3c>
    7e1d:	0f b7 55 fc          	movzwl -0x4(%rbp),%edx
    7e21:	8b 45 f8             	mov    -0x8(%rbp),%eax
    7e24:	be ff ff 00 00       	mov    $0xffff,%esi
    7e29:	89 c1                	mov    %eax,%ecx
    7e2b:	d3 fe                	sar    %cl,%esi
    7e2d:	89 f0                	mov    %esi,%eax
    7e2f:	39 c2                	cmp    %eax,%edx
    7e31:	7f 0f                	jg     7e42 <safe_lshift_func_uint16_t_u_u+0x3c>
    7e33:	0f b7 55 fc          	movzwl -0x4(%rbp),%edx
    7e37:	8b 45 f8             	mov    -0x8(%rbp),%eax
    7e3a:	89 c1                	mov    %eax,%ecx
    7e3c:	d3 e2                	shl    %cl,%edx
    7e3e:	89 d0                	mov    %edx,%eax
    7e40:	eb 04                	jmp    7e46 <safe_lshift_func_uint16_t_u_u+0x40>
    7e42:	0f b7 45 fc          	movzwl -0x4(%rbp),%eax
    7e46:	5d                   	pop    %rbp
    7e47:	c3                   	retq   

0000000000007e48 <safe_rshift_func_uint16_t_u_s>:
    7e48:	f3 0f 1e fa          	endbr64 
    7e4c:	55                   	push   %rbp
    7e4d:	48 89 e5             	mov    %rsp,%rbp
    7e50:	89 f8                	mov    %edi,%eax
    7e52:	89 75 f8             	mov    %esi,-0x8(%rbp)
    7e55:	66 89 45 fc          	mov    %ax,-0x4(%rbp)
    7e59:	83 7d f8 00          	cmpl   $0x0,-0x8(%rbp)
    7e5d:	78 15                	js     7e74 <safe_rshift_func_uint16_t_u_s+0x2c>
    7e5f:	83 7d f8 1f          	cmpl   $0x1f,-0x8(%rbp)
    7e63:	7f 0f                	jg     7e74 <safe_rshift_func_uint16_t_u_s+0x2c>
    7e65:	0f b7 55 fc          	movzwl -0x4(%rbp),%edx
    7e69:	8b 45 f8             	mov    -0x8(%rbp),%eax
    7e6c:	89 c1                	mov    %eax,%ecx
    7e6e:	d3 fa                	sar    %cl,%edx
    7e70:	89 d0                	mov    %edx,%eax
    7e72:	eb 04                	jmp    7e78 <safe_rshift_func_uint16_t_u_s+0x30>
    7e74:	0f b7 45 fc          	movzwl -0x4(%rbp),%eax
    7e78:	5d                   	pop    %rbp
    7e79:	c3                   	retq   

0000000000007e7a <safe_rshift_func_uint16_t_u_u>:
    7e7a:	f3 0f 1e fa          	endbr64 
    7e7e:	55                   	push   %rbp
    7e7f:	48 89 e5             	mov    %rsp,%rbp
    7e82:	89 f8                	mov    %edi,%eax
    7e84:	89 75 f8             	mov    %esi,-0x8(%rbp)
    7e87:	66 89 45 fc          	mov    %ax,-0x4(%rbp)
    7e8b:	83 7d f8 1f          	cmpl   $0x1f,-0x8(%rbp)
    7e8f:	77 0f                	ja     7ea0 <safe_rshift_func_uint16_t_u_u+0x26>
    7e91:	0f b7 55 fc          	movzwl -0x4(%rbp),%edx
    7e95:	8b 45 f8             	mov    -0x8(%rbp),%eax
    7e98:	89 c1                	mov    %eax,%ecx
    7e9a:	d3 fa                	sar    %cl,%edx
    7e9c:	89 d0                	mov    %edx,%eax
    7e9e:	eb 04                	jmp    7ea4 <safe_rshift_func_uint16_t_u_u+0x2a>
    7ea0:	0f b7 45 fc          	movzwl -0x4(%rbp),%eax
    7ea4:	5d                   	pop    %rbp
    7ea5:	c3                   	retq   

0000000000007ea6 <safe_unary_minus_func_uint32_t_u>:
    7ea6:	f3 0f 1e fa          	endbr64 
    7eaa:	55                   	push   %rbp
    7eab:	48 89 e5             	mov    %rsp,%rbp
    7eae:	89 7d fc             	mov    %edi,-0x4(%rbp)
    7eb1:	8b 45 fc             	mov    -0x4(%rbp),%eax
    7eb4:	f7 d8                	neg    %eax
    7eb6:	5d                   	pop    %rbp
    7eb7:	c3                   	retq   

0000000000007eb8 <safe_add_func_uint32_t_u_u>:
    7eb8:	f3 0f 1e fa          	endbr64 
    7ebc:	55                   	push   %rbp
    7ebd:	48 89 e5             	mov    %rsp,%rbp
    7ec0:	89 7d fc             	mov    %edi,-0x4(%rbp)
    7ec3:	89 75 f8             	mov    %esi,-0x8(%rbp)
    7ec6:	8b 55 fc             	mov    -0x4(%rbp),%edx
    7ec9:	8b 45 f8             	mov    -0x8(%rbp),%eax
    7ecc:	01 d0                	add    %edx,%eax
    7ece:	5d                   	pop    %rbp
    7ecf:	c3                   	retq   

0000000000007ed0 <safe_sub_func_uint32_t_u_u>:
    7ed0:	f3 0f 1e fa          	endbr64 
    7ed4:	55                   	push   %rbp
    7ed5:	48 89 e5             	mov    %rsp,%rbp
    7ed8:	89 7d fc             	mov    %edi,-0x4(%rbp)
    7edb:	89 75 f8             	mov    %esi,-0x8(%rbp)
    7ede:	8b 45 fc             	mov    -0x4(%rbp),%eax
    7ee1:	2b 45 f8             	sub    -0x8(%rbp),%eax
    7ee4:	5d                   	pop    %rbp
    7ee5:	c3                   	retq   

0000000000007ee6 <safe_mul_func_uint32_t_u_u>:
    7ee6:	f3 0f 1e fa          	endbr64 
    7eea:	55                   	push   %rbp
    7eeb:	48 89 e5             	mov    %rsp,%rbp
    7eee:	89 7d fc             	mov    %edi,-0x4(%rbp)
    7ef1:	89 75 f8             	mov    %esi,-0x8(%rbp)
    7ef4:	8b 45 fc             	mov    -0x4(%rbp),%eax
    7ef7:	0f af 45 f8          	imul   -0x8(%rbp),%eax
    7efb:	5d                   	pop    %rbp
    7efc:	c3                   	retq   

0000000000007efd <safe_mod_func_uint32_t_u_u>:
    7efd:	f3 0f 1e fa          	endbr64 
    7f01:	55                   	push   %rbp
    7f02:	48 89 e5             	mov    %rsp,%rbp
    7f05:	89 7d fc             	mov    %edi,-0x4(%rbp)
    7f08:	89 75 f8             	mov    %esi,-0x8(%rbp)
    7f0b:	83 7d f8 00          	cmpl   $0x0,-0x8(%rbp)
    7f0f:	74 0f                	je     7f20 <safe_mod_func_uint32_t_u_u+0x23>
    7f11:	8b 45 fc             	mov    -0x4(%rbp),%eax
    7f14:	ba 00 00 00 00       	mov    $0x0,%edx
    7f19:	f7 75 f8             	divl   -0x8(%rbp)
    7f1c:	89 d0                	mov    %edx,%eax
    7f1e:	eb 03                	jmp    7f23 <safe_mod_func_uint32_t_u_u+0x26>
    7f20:	8b 45 fc             	mov    -0x4(%rbp),%eax
    7f23:	5d                   	pop    %rbp
    7f24:	c3                   	retq   

0000000000007f25 <safe_div_func_uint32_t_u_u>:
    7f25:	f3 0f 1e fa          	endbr64 
    7f29:	55                   	push   %rbp
    7f2a:	48 89 e5             	mov    %rsp,%rbp
    7f2d:	89 7d fc             	mov    %edi,-0x4(%rbp)
    7f30:	89 75 f8             	mov    %esi,-0x8(%rbp)
    7f33:	83 7d f8 00          	cmpl   $0x0,-0x8(%rbp)
    7f37:	74 0d                	je     7f46 <safe_div_func_uint32_t_u_u+0x21>
    7f39:	8b 45 fc             	mov    -0x4(%rbp),%eax
    7f3c:	ba 00 00 00 00       	mov    $0x0,%edx
    7f41:	f7 75 f8             	divl   -0x8(%rbp)
    7f44:	eb 03                	jmp    7f49 <safe_div_func_uint32_t_u_u+0x24>
    7f46:	8b 45 fc             	mov    -0x4(%rbp),%eax
    7f49:	5d                   	pop    %rbp
    7f4a:	c3                   	retq   

0000000000007f4b <safe_lshift_func_uint32_t_u_s>:
    7f4b:	f3 0f 1e fa          	endbr64 
    7f4f:	55                   	push   %rbp
    7f50:	48 89 e5             	mov    %rsp,%rbp
    7f53:	89 7d fc             	mov    %edi,-0x4(%rbp)
    7f56:	89 75 f8             	mov    %esi,-0x8(%rbp)
    7f59:	83 7d f8 00          	cmpl   $0x0,-0x8(%rbp)
    7f5d:	78 27                	js     7f86 <safe_lshift_func_uint32_t_u_s+0x3b>
    7f5f:	83 7d f8 1f          	cmpl   $0x1f,-0x8(%rbp)
    7f63:	7f 21                	jg     7f86 <safe_lshift_func_uint32_t_u_s+0x3b>
    7f65:	8b 45 f8             	mov    -0x8(%rbp),%eax
    7f68:	ba ff ff ff ff       	mov    $0xffffffff,%edx
    7f6d:	89 c1                	mov    %eax,%ecx
    7f6f:	d3 ea                	shr    %cl,%edx
    7f71:	89 d0                	mov    %edx,%eax
    7f73:	39 45 fc             	cmp    %eax,-0x4(%rbp)
    7f76:	77 0e                	ja     7f86 <safe_lshift_func_uint32_t_u_s+0x3b>
    7f78:	8b 45 f8             	mov    -0x8(%rbp),%eax
    7f7b:	8b 55 fc             	mov    -0x4(%rbp),%edx
    7f7e:	89 c1                	mov    %eax,%ecx
    7f80:	d3 e2                	shl    %cl,%edx
    7f82:	89 d0                	mov    %edx,%eax
    7f84:	eb 03                	jmp    7f89 <safe_lshift_func_uint32_t_u_s+0x3e>
    7f86:	8b 45 fc             	mov    -0x4(%rbp),%eax
    7f89:	5d                   	pop    %rbp
    7f8a:	c3                   	retq   

0000000000007f8b <safe_lshift_func_uint32_t_u_u>:
    7f8b:	f3 0f 1e fa          	endbr64 
    7f8f:	55                   	push   %rbp
    7f90:	48 89 e5             	mov    %rsp,%rbp
    7f93:	89 7d fc             	mov    %edi,-0x4(%rbp)
    7f96:	89 75 f8             	mov    %esi,-0x8(%rbp)
    7f99:	83 7d f8 1f          	cmpl   $0x1f,-0x8(%rbp)
    7f9d:	77 21                	ja     7fc0 <safe_lshift_func_uint32_t_u_u+0x35>
    7f9f:	8b 45 f8             	mov    -0x8(%rbp),%eax
    7fa2:	ba ff ff ff ff       	mov    $0xffffffff,%edx
    7fa7:	89 c1                	mov    %eax,%ecx
    7fa9:	d3 ea                	shr    %cl,%edx
    7fab:	89 d0                	mov    %edx,%eax
    7fad:	39 45 fc             	cmp    %eax,-0x4(%rbp)
    7fb0:	77 0e                	ja     7fc0 <safe_lshift_func_uint32_t_u_u+0x35>
    7fb2:	8b 45 f8             	mov    -0x8(%rbp),%eax
    7fb5:	8b 55 fc             	mov    -0x4(%rbp),%edx
    7fb8:	89 c1                	mov    %eax,%ecx
    7fba:	d3 e2                	shl    %cl,%edx
    7fbc:	89 d0                	mov    %edx,%eax
    7fbe:	eb 03                	jmp    7fc3 <safe_lshift_func_uint32_t_u_u+0x38>
    7fc0:	8b 45 fc             	mov    -0x4(%rbp),%eax
    7fc3:	5d                   	pop    %rbp
    7fc4:	c3                   	retq   

0000000000007fc5 <safe_rshift_func_uint32_t_u_s>:
    7fc5:	f3 0f 1e fa          	endbr64 
    7fc9:	55                   	push   %rbp
    7fca:	48 89 e5             	mov    %rsp,%rbp
    7fcd:	89 7d fc             	mov    %edi,-0x4(%rbp)
    7fd0:	89 75 f8             	mov    %esi,-0x8(%rbp)
    7fd3:	83 7d f8 00          	cmpl   $0x0,-0x8(%rbp)
    7fd7:	78 14                	js     7fed <safe_rshift_func_uint32_t_u_s+0x28>
    7fd9:	83 7d f8 1f          	cmpl   $0x1f,-0x8(%rbp)
    7fdd:	7f 0e                	jg     7fed <safe_rshift_func_uint32_t_u_s+0x28>
    7fdf:	8b 45 f8             	mov    -0x8(%rbp),%eax
    7fe2:	8b 55 fc             	mov    -0x4(%rbp),%edx
    7fe5:	89 c1                	mov    %eax,%ecx
    7fe7:	d3 ea                	shr    %cl,%edx
    7fe9:	89 d0                	mov    %edx,%eax
    7feb:	eb 03                	jmp    7ff0 <safe_rshift_func_uint32_t_u_s+0x2b>
    7fed:	8b 45 fc             	mov    -0x4(%rbp),%eax
    7ff0:	5d                   	pop    %rbp
    7ff1:	c3                   	retq   

0000000000007ff2 <safe_rshift_func_uint32_t_u_u>:
    7ff2:	f3 0f 1e fa          	endbr64 
    7ff6:	55                   	push   %rbp
    7ff7:	48 89 e5             	mov    %rsp,%rbp
    7ffa:	89 7d fc             	mov    %edi,-0x4(%rbp)
    7ffd:	89 75 f8             	mov    %esi,-0x8(%rbp)
    8000:	83 7d f8 1f          	cmpl   $0x1f,-0x8(%rbp)
    8004:	77 0e                	ja     8014 <safe_rshift_func_uint32_t_u_u+0x22>
    8006:	8b 45 f8             	mov    -0x8(%rbp),%eax
    8009:	8b 55 fc             	mov    -0x4(%rbp),%edx
    800c:	89 c1                	mov    %eax,%ecx
    800e:	d3 ea                	shr    %cl,%edx
    8010:	89 d0                	mov    %edx,%eax
    8012:	eb 03                	jmp    8017 <safe_rshift_func_uint32_t_u_u+0x25>
    8014:	8b 45 fc             	mov    -0x4(%rbp),%eax
    8017:	5d                   	pop    %rbp
    8018:	c3                   	retq   

0000000000008019 <safe_unary_minus_func_uint64_t_u>:
    8019:	f3 0f 1e fa          	endbr64 
    801d:	55                   	push   %rbp
    801e:	48 89 e5             	mov    %rsp,%rbp
    8021:	48 89 7d f8          	mov    %rdi,-0x8(%rbp)
    8025:	48 8b 45 f8          	mov    -0x8(%rbp),%rax
    8029:	48 f7 d8             	neg    %rax
    802c:	5d                   	pop    %rbp
    802d:	c3                   	retq   

000000000000802e <safe_add_func_uint64_t_u_u>:
    802e:	f3 0f 1e fa          	endbr64 
    8032:	55                   	push   %rbp
    8033:	48 89 e5             	mov    %rsp,%rbp
    8036:	48 89 7d f8          	mov    %rdi,-0x8(%rbp)
    803a:	48 89 75 f0          	mov    %rsi,-0x10(%rbp)
    803e:	48 8b 55 f8          	mov    -0x8(%rbp),%rdx
    8042:	48 8b 45 f0          	mov    -0x10(%rbp),%rax
    8046:	48 01 d0             	add    %rdx,%rax
    8049:	5d                   	pop    %rbp
    804a:	c3                   	retq   

000000000000804b <safe_sub_func_uint64_t_u_u>:
    804b:	f3 0f 1e fa          	endbr64 
    804f:	55                   	push   %rbp
    8050:	48 89 e5             	mov    %rsp,%rbp
    8053:	48 89 7d f8          	mov    %rdi,-0x8(%rbp)
    8057:	48 89 75 f0          	mov    %rsi,-0x10(%rbp)
    805b:	48 8b 45 f8          	mov    -0x8(%rbp),%rax
    805f:	48 2b 45 f0          	sub    -0x10(%rbp),%rax
    8063:	5d                   	pop    %rbp
    8064:	c3                   	retq   

0000000000008065 <safe_mul_func_uint64_t_u_u>:
    8065:	f3 0f 1e fa          	endbr64 
    8069:	55                   	push   %rbp
    806a:	48 89 e5             	mov    %rsp,%rbp
    806d:	48 89 7d f8          	mov    %rdi,-0x8(%rbp)
    8071:	48 89 75 f0          	mov    %rsi,-0x10(%rbp)
    8075:	48 8b 45 f8          	mov    -0x8(%rbp),%rax
    8079:	48 0f af 45 f0       	imul   -0x10(%rbp),%rax
    807e:	5d                   	pop    %rbp
    807f:	c3                   	retq   

0000000000008080 <safe_mod_func_uint64_t_u_u>:
    8080:	f3 0f 1e fa          	endbr64 
    8084:	55                   	push   %rbp
    8085:	48 89 e5             	mov    %rsp,%rbp
    8088:	48 89 7d f8          	mov    %rdi,-0x8(%rbp)
    808c:	48 89 75 f0          	mov    %rsi,-0x10(%rbp)
    8090:	48 83 7d f0 00       	cmpq   $0x0,-0x10(%rbp)
    8095:	74 12                	je     80a9 <safe_mod_func_uint64_t_u_u+0x29>
    8097:	48 8b 45 f8          	mov    -0x8(%rbp),%rax
    809b:	ba 00 00 00 00       	mov    $0x0,%edx
    80a0:	48 f7 75 f0          	divq   -0x10(%rbp)
    80a4:	48 89 d0             	mov    %rdx,%rax
    80a7:	eb 04                	jmp    80ad <safe_mod_func_uint64_t_u_u+0x2d>
    80a9:	48 8b 45 f8          	mov    -0x8(%rbp),%rax
    80ad:	5d                   	pop    %rbp
    80ae:	c3                   	retq   

00000000000080af <safe_div_func_uint64_t_u_u>:
    80af:	f3 0f 1e fa          	endbr64 
    80b3:	55                   	push   %rbp
    80b4:	48 89 e5             	mov    %rsp,%rbp
    80b7:	48 89 7d f8          	mov    %rdi,-0x8(%rbp)
    80bb:	48 89 75 f0          	mov    %rsi,-0x10(%rbp)
    80bf:	48 83 7d f0 00       	cmpq   $0x0,-0x10(%rbp)
    80c4:	74 0f                	je     80d5 <safe_div_func_uint64_t_u_u+0x26>
    80c6:	48 8b 45 f8          	mov    -0x8(%rbp),%rax
    80ca:	ba 00 00 00 00       	mov    $0x0,%edx
    80cf:	48 f7 75 f0          	divq   -0x10(%rbp)
    80d3:	eb 04                	jmp    80d9 <safe_div_func_uint64_t_u_u+0x2a>
    80d5:	48 8b 45 f8          	mov    -0x8(%rbp),%rax
    80d9:	5d                   	pop    %rbp
    80da:	c3                   	retq   

00000000000080db <safe_lshift_func_uint64_t_u_s>:
    80db:	f3 0f 1e fa          	endbr64 
    80df:	55                   	push   %rbp
    80e0:	48 89 e5             	mov    %rsp,%rbp
    80e3:	48 89 7d f8          	mov    %rdi,-0x8(%rbp)
    80e7:	89 75 f4             	mov    %esi,-0xc(%rbp)
    80ea:	83 7d f4 00          	cmpl   $0x0,-0xc(%rbp)
    80ee:	78 2f                	js     811f <safe_lshift_func_uint64_t_u_s+0x44>
    80f0:	83 7d f4 1f          	cmpl   $0x1f,-0xc(%rbp)
    80f4:	7f 29                	jg     811f <safe_lshift_func_uint64_t_u_s+0x44>
    80f6:	8b 45 f4             	mov    -0xc(%rbp),%eax
    80f9:	48 c7 c2 ff ff ff ff 	mov    $0xffffffffffffffff,%rdx
    8100:	89 c1                	mov    %eax,%ecx
    8102:	48 d3 ea             	shr    %cl,%rdx
    8105:	48 89 d0             	mov    %rdx,%rax
    8108:	48 39 45 f8          	cmp    %rax,-0x8(%rbp)
    810c:	77 11                	ja     811f <safe_lshift_func_uint64_t_u_s+0x44>
    810e:	8b 45 f4             	mov    -0xc(%rbp),%eax
    8111:	48 8b 55 f8          	mov    -0x8(%rbp),%rdx
    8115:	89 c1                	mov    %eax,%ecx
    8117:	48 d3 e2             	shl    %cl,%rdx
    811a:	48 89 d0             	mov    %rdx,%rax
    811d:	eb 04                	jmp    8123 <safe_lshift_func_uint64_t_u_s+0x48>
    811f:	48 8b 45 f8          	mov    -0x8(%rbp),%rax
    8123:	5d                   	pop    %rbp
    8124:	c3                   	retq   

0000000000008125 <safe_lshift_func_uint64_t_u_u>:
    8125:	f3 0f 1e fa          	endbr64 
    8129:	55                   	push   %rbp
    812a:	48 89 e5             	mov    %rsp,%rbp
    812d:	48 89 7d f8          	mov    %rdi,-0x8(%rbp)
    8131:	89 75 f4             	mov    %esi,-0xc(%rbp)
    8134:	83 7d f4 1f          	cmpl   $0x1f,-0xc(%rbp)
    8138:	77 29                	ja     8163 <safe_lshift_func_uint64_t_u_u+0x3e>
    813a:	8b 45 f4             	mov    -0xc(%rbp),%eax
    813d:	48 c7 c2 ff ff ff ff 	mov    $0xffffffffffffffff,%rdx
    8144:	89 c1                	mov    %eax,%ecx
    8146:	48 d3 ea             	shr    %cl,%rdx
    8149:	48 89 d0             	mov    %rdx,%rax
    814c:	48 39 45 f8          	cmp    %rax,-0x8(%rbp)
    8150:	77 11                	ja     8163 <safe_lshift_func_uint64_t_u_u+0x3e>
    8152:	8b 45 f4             	mov    -0xc(%rbp),%eax
    8155:	48 8b 55 f8          	mov    -0x8(%rbp),%rdx
    8159:	89 c1                	mov    %eax,%ecx
    815b:	48 d3 e2             	shl    %cl,%rdx
    815e:	48 89 d0             	mov    %rdx,%rax
    8161:	eb 04                	jmp    8167 <safe_lshift_func_uint64_t_u_u+0x42>
    8163:	48 8b 45 f8          	mov    -0x8(%rbp),%rax
    8167:	5d                   	pop    %rbp
    8168:	c3                   	retq   

0000000000008169 <safe_rshift_func_uint64_t_u_s>:
    8169:	f3 0f 1e fa          	endbr64 
    816d:	55                   	push   %rbp
    816e:	48 89 e5             	mov    %rsp,%rbp
    8171:	48 89 7d f8          	mov    %rdi,-0x8(%rbp)
    8175:	89 75 f4             	mov    %esi,-0xc(%rbp)
    8178:	83 7d f4 00          	cmpl   $0x0,-0xc(%rbp)
    817c:	78 17                	js     8195 <safe_rshift_func_uint64_t_u_s+0x2c>
    817e:	83 7d f4 1f          	cmpl   $0x1f,-0xc(%rbp)
    8182:	7f 11                	jg     8195 <safe_rshift_func_uint64_t_u_s+0x2c>
    8184:	8b 45 f4             	mov    -0xc(%rbp),%eax
    8187:	48 8b 55 f8          	mov    -0x8(%rbp),%rdx
    818b:	89 c1                	mov    %eax,%ecx
    818d:	48 d3 ea             	shr    %cl,%rdx
    8190:	48 89 d0             	mov    %rdx,%rax
    8193:	eb 04                	jmp    8199 <safe_rshift_func_uint64_t_u_s+0x30>
    8195:	48 8b 45 f8          	mov    -0x8(%rbp),%rax
    8199:	5d                   	pop    %rbp
    819a:	c3                   	retq   

000000000000819b <safe_rshift_func_uint64_t_u_u>:
    819b:	f3 0f 1e fa          	endbr64 
    819f:	55                   	push   %rbp
    81a0:	48 89 e5             	mov    %rsp,%rbp
    81a3:	48 89 7d f8          	mov    %rdi,-0x8(%rbp)
    81a7:	89 75 f4             	mov    %esi,-0xc(%rbp)
    81aa:	83 7d f4 1f          	cmpl   $0x1f,-0xc(%rbp)
    81ae:	77 11                	ja     81c1 <safe_rshift_func_uint64_t_u_u+0x26>
    81b0:	8b 45 f4             	mov    -0xc(%rbp),%eax
    81b3:	48 8b 55 f8          	mov    -0x8(%rbp),%rdx
    81b7:	89 c1                	mov    %eax,%ecx
    81b9:	48 d3 ea             	shr    %cl,%rdx
    81bc:	48 89 d0             	mov    %rdx,%rax
    81bf:	eb 04                	jmp    81c5 <safe_rshift_func_uint64_t_u_u+0x2a>
    81c1:	48 8b 45 f8          	mov    -0x8(%rbp),%rax
    81c5:	5d                   	pop    %rbp
    81c6:	c3                   	retq   

00000000000081c7 <safe_add_func_float_f_f>:
    81c7:	f3 0f 1e fa          	endbr64 
    81cb:	55                   	push   %rbp
    81cc:	48 89 e5             	mov    %rsp,%rbp
    81cf:	f3 0f 11 45 fc       	movss  %xmm0,-0x4(%rbp)
    81d4:	f3 0f 11 4d f8       	movss  %xmm1,-0x8(%rbp)
    81d9:	f3 0f 10 4d fc       	movss  -0x4(%rbp),%xmm1
    81de:	f3 0f 10 05 86 58 01 	movss  0x15886(%rip),%xmm0        # 1da6c <l_1245.5026+0x1c>
    81e5:	00 
    81e6:	f3 0f 59 c8          	mulss  %xmm0,%xmm1
    81ea:	f3 0f 10 55 f8       	movss  -0x8(%rbp),%xmm2
    81ef:	f3 0f 10 05 75 58 01 	movss  0x15875(%rip),%xmm0        # 1da6c <l_1245.5026+0x1c>
    81f6:	00 
    81f7:	f3 0f 59 c2          	mulss  %xmm2,%xmm0
    81fb:	f3 0f 58 c1          	addss  %xmm1,%xmm0
    81ff:	f3 0f 10 0d 69 58 01 	movss  0x15869(%rip),%xmm1        # 1da70 <l_1245.5026+0x20>
    8206:	00 
    8207:	0f 54 c1             	andps  %xmm1,%xmm0
    820a:	0f 2f 05 6f 58 01 00 	comiss 0x1586f(%rip),%xmm0        # 1da80 <l_1245.5026+0x30>
    8211:	76 07                	jbe    821a <safe_add_func_float_f_f+0x53>
    8213:	f3 0f 10 45 fc       	movss  -0x4(%rbp),%xmm0
    8218:	eb 0a                	jmp    8224 <safe_add_func_float_f_f+0x5d>
    821a:	f3 0f 10 45 fc       	movss  -0x4(%rbp),%xmm0
    821f:	f3 0f 58 45 f8       	addss  -0x8(%rbp),%xmm0
    8224:	5d                   	pop    %rbp
    8225:	c3                   	retq   

0000000000008226 <safe_sub_func_float_f_f>:
    8226:	f3 0f 1e fa          	endbr64 
    822a:	55                   	push   %rbp
    822b:	48 89 e5             	mov    %rsp,%rbp
    822e:	f3 0f 11 45 fc       	movss  %xmm0,-0x4(%rbp)
    8233:	f3 0f 11 4d f8       	movss  %xmm1,-0x8(%rbp)
    8238:	f3 0f 10 4d fc       	movss  -0x4(%rbp),%xmm1
    823d:	f3 0f 10 05 27 58 01 	movss  0x15827(%rip),%xmm0        # 1da6c <l_1245.5026+0x1c>
    8244:	00 
    8245:	f3 0f 59 c1          	mulss  %xmm1,%xmm0
    8249:	f3 0f 10 55 f8       	movss  -0x8(%rbp),%xmm2
    824e:	f3 0f 10 0d 16 58 01 	movss  0x15816(%rip),%xmm1        # 1da6c <l_1245.5026+0x1c>
    8255:	00 
    8256:	f3 0f 59 ca          	mulss  %xmm2,%xmm1
    825a:	f3 0f 5c c1          	subss  %xmm1,%xmm0
    825e:	f3 0f 10 0d 0a 58 01 	movss  0x1580a(%rip),%xmm1        # 1da70 <l_1245.5026+0x20>
    8265:	00 
    8266:	0f 54 c1             	andps  %xmm1,%xmm0
    8269:	0f 2f 05 10 58 01 00 	comiss 0x15810(%rip),%xmm0        # 1da80 <l_1245.5026+0x30>
    8270:	76 07                	jbe    8279 <safe_sub_func_float_f_f+0x53>
    8272:	f3 0f 10 45 fc       	movss  -0x4(%rbp),%xmm0
    8277:	eb 0a                	jmp    8283 <safe_sub_func_float_f_f+0x5d>
    8279:	f3 0f 10 45 fc       	movss  -0x4(%rbp),%xmm0
    827e:	f3 0f 5c 45 f8       	subss  -0x8(%rbp),%xmm0
    8283:	5d                   	pop    %rbp
    8284:	c3                   	retq   

0000000000008285 <safe_mul_func_float_f_f>:
    8285:	f3 0f 1e fa          	endbr64 
    8289:	55                   	push   %rbp
    828a:	48 89 e5             	mov    %rsp,%rbp
    828d:	f3 0f 11 45 fc       	movss  %xmm0,-0x4(%rbp)
    8292:	f3 0f 11 4d f8       	movss  %xmm1,-0x8(%rbp)
    8297:	f3 0f 10 4d fc       	movss  -0x4(%rbp),%xmm1
    829c:	f3 0f 10 05 e0 57 01 	movss  0x157e0(%rip),%xmm0        # 1da84 <l_1245.5026+0x34>
    82a3:	00 
    82a4:	f3 0f 59 c8          	mulss  %xmm0,%xmm1
    82a8:	f3 0f 10 55 f8       	movss  -0x8(%rbp),%xmm2
    82ad:	f3 0f 10 05 d3 57 01 	movss  0x157d3(%rip),%xmm0        # 1da88 <l_1245.5026+0x38>
    82b4:	00 
    82b5:	f3 0f 59 c2          	mulss  %xmm2,%xmm0
    82b9:	f3 0f 59 c1          	mulss  %xmm1,%xmm0
    82bd:	f3 0f 10 0d ab 57 01 	movss  0x157ab(%rip),%xmm1        # 1da70 <l_1245.5026+0x20>
    82c4:	00 
    82c5:	0f 54 c1             	andps  %xmm1,%xmm0
    82c8:	0f 2f 05 bd 57 01 00 	comiss 0x157bd(%rip),%xmm0        # 1da8c <l_1245.5026+0x3c>
    82cf:	76 07                	jbe    82d8 <safe_mul_func_float_f_f+0x53>
    82d1:	f3 0f 10 45 fc       	movss  -0x4(%rbp),%xmm0
    82d6:	eb 0a                	jmp    82e2 <safe_mul_func_float_f_f+0x5d>
    82d8:	f3 0f 10 45 fc       	movss  -0x4(%rbp),%xmm0
    82dd:	f3 0f 59 45 f8       	mulss  -0x8(%rbp),%xmm0
    82e2:	5d                   	pop    %rbp
    82e3:	c3                   	retq   

00000000000082e4 <safe_div_func_float_f_f>:
    82e4:	f3 0f 1e fa          	endbr64 
    82e8:	55                   	push   %rbp
    82e9:	48 89 e5             	mov    %rsp,%rbp
    82ec:	f3 0f 11 45 fc       	movss  %xmm0,-0x4(%rbp)
    82f1:	f3 0f 11 4d f8       	movss  %xmm1,-0x8(%rbp)
    82f6:	f3 0f 10 45 f8       	movss  -0x8(%rbp),%xmm0
    82fb:	f3 0f 10 0d 6d 57 01 	movss  0x1576d(%rip),%xmm1        # 1da70 <l_1245.5026+0x20>
    8302:	00 
    8303:	0f 54 c8             	andps  %xmm0,%xmm1
    8306:	f3 0f 10 05 82 57 01 	movss  0x15782(%rip),%xmm0        # 1da90 <l_1245.5026+0x40>
    830d:	00 
    830e:	0f 2f c1             	comiss %xmm1,%xmm0
    8311:	0f 97 c0             	seta   %al
    8314:	83 f0 01             	xor    $0x1,%eax
    8317:	84 c0                	test   %al,%al
    8319:	75 56                	jne    8371 <safe_div_func_float_f_f+0x8d>
    831b:	66 0f ef c0          	pxor   %xmm0,%xmm0
    831f:	0f 2e 45 f8          	ucomiss -0x8(%rbp),%xmm0
    8323:	7a 0a                	jp     832f <safe_div_func_float_f_f+0x4b>
    8325:	66 0f ef c0          	pxor   %xmm0,%xmm0
    8329:	0f 2e 45 f8          	ucomiss -0x8(%rbp),%xmm0
    832d:	74 4e                	je     837d <safe_div_func_float_f_f+0x99>
    832f:	f3 0f 10 4d fc       	movss  -0x4(%rbp),%xmm1
    8334:	f3 0f 10 05 58 57 01 	movss  0x15758(%rip),%xmm0        # 1da94 <l_1245.5026+0x44>
    833b:	00 
    833c:	f3 0f 59 c1          	mulss  %xmm1,%xmm0
    8340:	f3 0f 10 55 f8       	movss  -0x8(%rbp),%xmm2
    8345:	f3 0f 10 0d 4b 57 01 	movss  0x1574b(%rip),%xmm1        # 1da98 <l_1245.5026+0x48>
    834c:	00 
    834d:	f3 0f 59 ca          	mulss  %xmm2,%xmm1
    8351:	f3 0f 5e c1          	divss  %xmm1,%xmm0
    8355:	f3 0f 10 0d 13 57 01 	movss  0x15713(%rip),%xmm1        # 1da70 <l_1245.5026+0x20>
    835c:	00 
    835d:	0f 54 c1             	andps  %xmm1,%xmm0
    8360:	0f 2f 05 35 57 01 00 	comiss 0x15735(%rip),%xmm0        # 1da9c <l_1245.5026+0x4c>
    8367:	0f 97 c0             	seta   %al
    836a:	83 f0 01             	xor    $0x1,%eax
    836d:	84 c0                	test   %al,%al
    836f:	74 0c                	je     837d <safe_div_func_float_f_f+0x99>
    8371:	f3 0f 10 45 fc       	movss  -0x4(%rbp),%xmm0
    8376:	f3 0f 5e 45 f8       	divss  -0x8(%rbp),%xmm0
    837b:	eb 05                	jmp    8382 <safe_div_func_float_f_f+0x9e>
    837d:	f3 0f 10 45 fc       	movss  -0x4(%rbp),%xmm0
    8382:	5d                   	pop    %rbp
    8383:	c3                   	retq   

0000000000008384 <safe_add_func_double_f_f>:
    8384:	f3 0f 1e fa          	endbr64 
    8388:	55                   	push   %rbp
    8389:	48 89 e5             	mov    %rsp,%rbp
    838c:	f2 0f 11 45 f8       	movsd  %xmm0,-0x8(%rbp)
    8391:	f2 0f 11 4d f0       	movsd  %xmm1,-0x10(%rbp)
    8396:	f2 0f 10 4d f8       	movsd  -0x8(%rbp),%xmm1
    839b:	f2 0f 10 05 fd 56 01 	movsd  0x156fd(%rip),%xmm0        # 1daa0 <l_1245.5026+0x50>
    83a2:	00 
    83a3:	f2 0f 59 c8          	mulsd  %xmm0,%xmm1
    83a7:	f2 0f 10 55 f0       	movsd  -0x10(%rbp),%xmm2
    83ac:	f2 0f 10 05 ec 56 01 	movsd  0x156ec(%rip),%xmm0        # 1daa0 <l_1245.5026+0x50>
    83b3:	00 
    83b4:	f2 0f 59 c2          	mulsd  %xmm2,%xmm0
    83b8:	f2 0f 58 c1          	addsd  %xmm1,%xmm0
    83bc:	f3 0f 7e 0d ec 56 01 	movq   0x156ec(%rip),%xmm1        # 1dab0 <l_1245.5026+0x60>
    83c3:	00 
    83c4:	66 0f 54 c1          	andpd  %xmm1,%xmm0
    83c8:	66 0f 2f 05 f0 56 01 	comisd 0x156f0(%rip),%xmm0        # 1dac0 <l_1245.5026+0x70>
    83cf:	00 
    83d0:	76 07                	jbe    83d9 <safe_add_func_double_f_f+0x55>
    83d2:	f2 0f 10 45 f8       	movsd  -0x8(%rbp),%xmm0
    83d7:	eb 0a                	jmp    83e3 <safe_add_func_double_f_f+0x5f>
    83d9:	f2 0f 10 45 f8       	movsd  -0x8(%rbp),%xmm0
    83de:	f2 0f 58 45 f0       	addsd  -0x10(%rbp),%xmm0
    83e3:	5d                   	pop    %rbp
    83e4:	c3                   	retq   

00000000000083e5 <safe_sub_func_double_f_f>:
    83e5:	f3 0f 1e fa          	endbr64 
    83e9:	55                   	push   %rbp
    83ea:	48 89 e5             	mov    %rsp,%rbp
    83ed:	f2 0f 11 45 f8       	movsd  %xmm0,-0x8(%rbp)
    83f2:	f2 0f 11 4d f0       	movsd  %xmm1,-0x10(%rbp)
    83f7:	f2 0f 10 4d f8       	movsd  -0x8(%rbp),%xmm1
    83fc:	f2 0f 10 05 9c 56 01 	movsd  0x1569c(%rip),%xmm0        # 1daa0 <l_1245.5026+0x50>
    8403:	00 
    8404:	f2 0f 59 c1          	mulsd  %xmm1,%xmm0
    8408:	f2 0f 10 55 f0       	movsd  -0x10(%rbp),%xmm2
    840d:	f2 0f 10 0d 8b 56 01 	movsd  0x1568b(%rip),%xmm1        # 1daa0 <l_1245.5026+0x50>
    8414:	00 
    8415:	f2 0f 59 ca          	mulsd  %xmm2,%xmm1
    8419:	f2 0f 5c c1          	subsd  %xmm1,%xmm0
    841d:	f3 0f 7e 0d 8b 56 01 	movq   0x1568b(%rip),%xmm1        # 1dab0 <l_1245.5026+0x60>
    8424:	00 
    8425:	66 0f 54 c1          	andpd  %xmm1,%xmm0
    8429:	66 0f 2f 05 8f 56 01 	comisd 0x1568f(%rip),%xmm0        # 1dac0 <l_1245.5026+0x70>
    8430:	00 
    8431:	76 07                	jbe    843a <safe_sub_func_double_f_f+0x55>
    8433:	f2 0f 10 45 f8       	movsd  -0x8(%rbp),%xmm0
    8438:	eb 0a                	jmp    8444 <safe_sub_func_double_f_f+0x5f>
    843a:	f2 0f 10 45 f8       	movsd  -0x8(%rbp),%xmm0
    843f:	f2 0f 5c 45 f0       	subsd  -0x10(%rbp),%xmm0
    8444:	5d                   	pop    %rbp
    8445:	c3                   	retq   

0000000000008446 <safe_mul_func_double_f_f>:
    8446:	f3 0f 1e fa          	endbr64 
    844a:	55                   	push   %rbp
    844b:	48 89 e5             	mov    %rsp,%rbp
    844e:	f2 0f 11 45 f8       	movsd  %xmm0,-0x8(%rbp)
    8453:	f2 0f 11 4d f0       	movsd  %xmm1,-0x10(%rbp)
    8458:	f2 0f 10 4d f8       	movsd  -0x8(%rbp),%xmm1
    845d:	f2 0f 10 05 63 56 01 	movsd  0x15663(%rip),%xmm0        # 1dac8 <l_1245.5026+0x78>
    8464:	00 
    8465:	f2 0f 59 c8          	mulsd  %xmm0,%xmm1
    8469:	f2 0f 10 55 f0       	movsd  -0x10(%rbp),%xmm2
    846e:	f2 0f 10 05 5a 56 01 	movsd  0x1565a(%rip),%xmm0        # 1dad0 <l_1245.5026+0x80>
    8475:	00 
    8476:	f2 0f 59 c2          	mulsd  %xmm2,%xmm0
    847a:	f2 0f 59 c1          	mulsd  %xmm1,%xmm0
    847e:	f3 0f 7e 0d 2a 56 01 	movq   0x1562a(%rip),%xmm1        # 1dab0 <l_1245.5026+0x60>
    8485:	00 
    8486:	66 0f 54 c1          	andpd  %xmm1,%xmm0
    848a:	66 0f 2f 05 46 56 01 	comisd 0x15646(%rip),%xmm0        # 1dad8 <l_1245.5026+0x88>
    8491:	00 
    8492:	76 07                	jbe    849b <safe_mul_func_double_f_f+0x55>
    8494:	f2 0f 10 45 f8       	movsd  -0x8(%rbp),%xmm0
    8499:	eb 0a                	jmp    84a5 <safe_mul_func_double_f_f+0x5f>
    849b:	f2 0f 10 45 f8       	movsd  -0x8(%rbp),%xmm0
    84a0:	f2 0f 59 45 f0       	mulsd  -0x10(%rbp),%xmm0
    84a5:	5d                   	pop    %rbp
    84a6:	c3                   	retq   

00000000000084a7 <safe_div_func_double_f_f>:
    84a7:	f3 0f 1e fa          	endbr64 
    84ab:	55                   	push   %rbp
    84ac:	48 89 e5             	mov    %rsp,%rbp
    84af:	f2 0f 11 45 f8       	movsd  %xmm0,-0x8(%rbp)
    84b4:	f2 0f 11 4d f0       	movsd  %xmm1,-0x10(%rbp)
    84b9:	f2 0f 10 45 f0       	movsd  -0x10(%rbp),%xmm0
    84be:	f3 0f 7e 0d ea 55 01 	movq   0x155ea(%rip),%xmm1        # 1dab0 <l_1245.5026+0x60>
    84c5:	00 
    84c6:	66 0f 54 c8          	andpd  %xmm0,%xmm1
    84ca:	f2 0f 10 05 0e 56 01 	movsd  0x1560e(%rip),%xmm0        # 1dae0 <l_1245.5026+0x90>
    84d1:	00 
    84d2:	66 0f 2f c1          	comisd %xmm1,%xmm0
    84d6:	0f 97 c0             	seta   %al
    84d9:	83 f0 01             	xor    $0x1,%eax
    84dc:	84 c0                	test   %al,%al
    84de:	75 5a                	jne    853a <safe_div_func_double_f_f+0x93>
    84e0:	66 0f ef c0          	pxor   %xmm0,%xmm0
    84e4:	66 0f 2e 45 f0       	ucomisd -0x10(%rbp),%xmm0
    84e9:	7a 0b                	jp     84f6 <safe_div_func_double_f_f+0x4f>
    84eb:	66 0f ef c0          	pxor   %xmm0,%xmm0
    84ef:	66 0f 2e 45 f0       	ucomisd -0x10(%rbp),%xmm0
    84f4:	74 50                	je     8546 <safe_div_func_double_f_f+0x9f>
    84f6:	f2 0f 10 4d f8       	movsd  -0x8(%rbp),%xmm1
    84fb:	f2 0f 10 05 e5 55 01 	movsd  0x155e5(%rip),%xmm0        # 1dae8 <l_1245.5026+0x98>
    8502:	00 
    8503:	f2 0f 59 c1          	mulsd  %xmm1,%xmm0
    8507:	f2 0f 10 55 f0       	movsd  -0x10(%rbp),%xmm2
    850c:	f2 0f 10 0d dc 55 01 	movsd  0x155dc(%rip),%xmm1        # 1daf0 <l_1245.5026+0xa0>
    8513:	00 
    8514:	f2 0f 59 ca          	mulsd  %xmm2,%xmm1
    8518:	f2 0f 5e c1          	divsd  %xmm1,%xmm0
    851c:	f3 0f 7e 0d 8c 55 01 	movq   0x1558c(%rip),%xmm1        # 1dab0 <l_1245.5026+0x60>
    8523:	00 
    8524:	66 0f 54 c1          	andpd  %xmm1,%xmm0
    8528:	66 0f 2f 05 c8 55 01 	comisd 0x155c8(%rip),%xmm0        # 1daf8 <l_1245.5026+0xa8>
    852f:	00 
    8530:	0f 97 c0             	seta   %al
    8533:	83 f0 01             	xor    $0x1,%eax
    8536:	84 c0                	test   %al,%al
    8538:	74 0c                	je     8546 <safe_div_func_double_f_f+0x9f>
    853a:	f2 0f 10 45 f8       	movsd  -0x8(%rbp),%xmm0
    853f:	f2 0f 5e 45 f0       	divsd  -0x10(%rbp),%xmm0
    8544:	eb 05                	jmp    854b <safe_div_func_double_f_f+0xa4>
    8546:	f2 0f 10 45 f8       	movsd  -0x8(%rbp),%xmm0
    854b:	5d                   	pop    %rbp
    854c:	c3                   	retq   

000000000000854d <safe_convert_func_float_to_int32_t>:
    854d:	f3 0f 1e fa          	endbr64 
    8551:	55                   	push   %rbp
    8552:	48 89 e5             	mov    %rsp,%rbp
    8555:	f3 0f 11 45 fc       	movss  %xmm0,-0x4(%rbp)
    855a:	f3 0f 10 05 9e 55 01 	movss  0x1559e(%rip),%xmm0        # 1db00 <l_1245.5026+0xb0>
    8561:	00 
    8562:	0f 2f 45 fc          	comiss -0x4(%rbp),%xmm0
    8566:	0f 93 c0             	setae  %al
    8569:	83 f0 01             	xor    $0x1,%eax
    856c:	84 c0                	test   %al,%al
    856e:	74 21                	je     8591 <safe_convert_func_float_to_int32_t+0x44>
    8570:	f3 0f 10 45 fc       	movss  -0x4(%rbp),%xmm0
    8575:	0f 2f 05 88 55 01 00 	comiss 0x15588(%rip),%xmm0        # 1db04 <l_1245.5026+0xb4>
    857c:	0f 93 c0             	setae  %al
    857f:	83 f0 01             	xor    $0x1,%eax
    8582:	84 c0                	test   %al,%al
    8584:	74 0b                	je     8591 <safe_convert_func_float_to_int32_t+0x44>
    8586:	f3 0f 10 45 fc       	movss  -0x4(%rbp),%xmm0
    858b:	f3 0f 2c c0          	cvttss2si %xmm0,%eax
    858f:	eb 05                	jmp    8596 <safe_convert_func_float_to_int32_t+0x49>
    8591:	b8 ff ff ff 7f       	mov    $0x7fffffff,%eax
    8596:	5d                   	pop    %rbp
    8597:	c3                   	retq   

0000000000008598 <crc32_gentab>:
    8598:	f3 0f 1e fa          	endbr64 
    859c:	55                   	push   %rbp
    859d:	48 89 e5             	mov    %rsp,%rbp
    85a0:	c7 45 fc 20 83 b8 ed 	movl   $0xedb88320,-0x4(%rbp)
    85a7:	c7 45 f4 00 00 00 00 	movl   $0x0,-0xc(%rbp)
    85ae:	eb 51                	jmp    8601 <crc32_gentab+0x69>
    85b0:	8b 45 f4             	mov    -0xc(%rbp),%eax
    85b3:	89 45 f0             	mov    %eax,-0x10(%rbp)
    85b6:	c7 45 f8 08 00 00 00 	movl   $0x8,-0x8(%rbp)
    85bd:	eb 1e                	jmp    85dd <crc32_gentab+0x45>
    85bf:	8b 45 f0             	mov    -0x10(%rbp),%eax
    85c2:	83 e0 01             	and    $0x1,%eax
    85c5:	85 c0                	test   %eax,%eax
    85c7:	74 0d                	je     85d6 <crc32_gentab+0x3e>
    85c9:	8b 45 f0             	mov    -0x10(%rbp),%eax
    85cc:	d1 e8                	shr    %eax
    85ce:	33 45 fc             	xor    -0x4(%rbp),%eax
    85d1:	89 45 f0             	mov    %eax,-0x10(%rbp)
    85d4:	eb 03                	jmp    85d9 <crc32_gentab+0x41>
    85d6:	d1 6d f0             	shrl   -0x10(%rbp)
    85d9:	83 6d f8 01          	subl   $0x1,-0x8(%rbp)
    85dd:	83 7d f8 00          	cmpl   $0x0,-0x8(%rbp)
    85e1:	7f dc                	jg     85bf <crc32_gentab+0x27>
    85e3:	8b 45 f4             	mov    -0xc(%rbp),%eax
    85e6:	48 98                	cltq   
    85e8:	48 8d 0c 85 00 00 00 	lea    0x0(,%rax,4),%rcx
    85ef:	00 
    85f0:	48 8d 15 a9 bb 01 00 	lea    0x1bba9(%rip),%rdx        # 241a0 <crc32_tab>
    85f7:	8b 45 f0             	mov    -0x10(%rbp),%eax
    85fa:	89 04 11             	mov    %eax,(%rcx,%rdx,1)
    85fd:	83 45 f4 01          	addl   $0x1,-0xc(%rbp)
    8601:	81 7d f4 ff 00 00 00 	cmpl   $0xff,-0xc(%rbp)
    8608:	7e a6                	jle    85b0 <crc32_gentab+0x18>
    860a:	90                   	nop
    860b:	90                   	nop
    860c:	5d                   	pop    %rbp
    860d:	c3                   	retq   

000000000000860e <crc32_byte>:
    860e:	f3 0f 1e fa          	endbr64 
    8612:	55                   	push   %rbp
    8613:	48 89 e5             	mov    %rsp,%rbp
    8616:	89 f8                	mov    %edi,%eax
    8618:	88 45 fc             	mov    %al,-0x4(%rbp)
    861b:	8b 05 ff 89 01 00    	mov    0x189ff(%rip),%eax        # 21020 <crc32_context>
    8621:	c1 e8 08             	shr    $0x8,%eax
    8624:	89 c1                	mov    %eax,%ecx
    8626:	0f b6 55 fc          	movzbl -0x4(%rbp),%edx
    862a:	8b 05 f0 89 01 00    	mov    0x189f0(%rip),%eax        # 21020 <crc32_context>
    8630:	31 d0                	xor    %edx,%eax
    8632:	0f b6 c0             	movzbl %al,%eax
    8635:	89 c0                	mov    %eax,%eax
    8637:	48 8d 14 85 00 00 00 	lea    0x0(,%rax,4),%rdx
    863e:	00 
    863f:	48 8d 05 5a bb 01 00 	lea    0x1bb5a(%rip),%rax        # 241a0 <crc32_tab>
    8646:	8b 04 02             	mov    (%rdx,%rax,1),%eax
    8649:	31 c8                	xor    %ecx,%eax
    864b:	89 05 cf 89 01 00    	mov    %eax,0x189cf(%rip)        # 21020 <crc32_context>
    8651:	90                   	nop
    8652:	5d                   	pop    %rbp
    8653:	c3                   	retq   

0000000000008654 <crc32_8bytes>:
    8654:	f3 0f 1e fa          	endbr64 
    8658:	55                   	push   %rbp
    8659:	48 89 e5             	mov    %rsp,%rbp
    865c:	48 83 ec 08          	sub    $0x8,%rsp
    8660:	48 89 7d f8          	mov    %rdi,-0x8(%rbp)
    8664:	48 8b 45 f8          	mov    -0x8(%rbp),%rax
    8668:	0f b6 c0             	movzbl %al,%eax
    866b:	89 c7                	mov    %eax,%edi
    866d:	e8 9c ff ff ff       	callq  860e <crc32_byte>
    8672:	48 8b 45 f8          	mov    -0x8(%rbp),%rax
    8676:	48 c1 e8 08          	shr    $0x8,%rax
    867a:	0f b6 c0             	movzbl %al,%eax
    867d:	89 c7                	mov    %eax,%edi
    867f:	e8 8a ff ff ff       	callq  860e <crc32_byte>
    8684:	48 8b 45 f8          	mov    -0x8(%rbp),%rax
    8688:	48 c1 e8 10          	shr    $0x10,%rax
    868c:	0f b6 c0             	movzbl %al,%eax
    868f:	89 c7                	mov    %eax,%edi
    8691:	e8 78 ff ff ff       	callq  860e <crc32_byte>
    8696:	48 8b 45 f8          	mov    -0x8(%rbp),%rax
    869a:	48 c1 e8 18          	shr    $0x18,%rax
    869e:	0f b6 c0             	movzbl %al,%eax
    86a1:	89 c7                	mov    %eax,%edi
    86a3:	e8 66 ff ff ff       	callq  860e <crc32_byte>
    86a8:	48 8b 45 f8          	mov    -0x8(%rbp),%rax
    86ac:	48 c1 e8 20          	shr    $0x20,%rax
    86b0:	0f b6 c0             	movzbl %al,%eax
    86b3:	89 c7                	mov    %eax,%edi
    86b5:	e8 54 ff ff ff       	callq  860e <crc32_byte>
    86ba:	48 8b 45 f8          	mov    -0x8(%rbp),%rax
    86be:	48 c1 e8 28          	shr    $0x28,%rax
    86c2:	0f b6 c0             	movzbl %al,%eax
    86c5:	89 c7                	mov    %eax,%edi
    86c7:	e8 42 ff ff ff       	callq  860e <crc32_byte>
    86cc:	48 8b 45 f8          	mov    -0x8(%rbp),%rax
    86d0:	48 c1 e8 30          	shr    $0x30,%rax
    86d4:	0f b6 c0             	movzbl %al,%eax
    86d7:	89 c7                	mov    %eax,%edi
    86d9:	e8 30 ff ff ff       	callq  860e <crc32_byte>
    86de:	48 8b 45 f8          	mov    -0x8(%rbp),%rax
    86e2:	48 c1 e8 38          	shr    $0x38,%rax
    86e6:	0f b6 c0             	movzbl %al,%eax
    86e9:	89 c7                	mov    %eax,%edi
    86eb:	e8 1e ff ff ff       	callq  860e <crc32_byte>
    86f0:	90                   	nop
    86f1:	c9                   	leaveq 
    86f2:	c3                   	retq   

00000000000086f3 <transparent_crc>:
    86f3:	f3 0f 1e fa          	endbr64 
    86f7:	55                   	push   %rbp
    86f8:	48 89 e5             	mov    %rsp,%rbp
    86fb:	48 83 ec 20          	sub    $0x20,%rsp
    86ff:	48 89 7d f8          	mov    %rdi,-0x8(%rbp)
    8703:	48 89 75 f0          	mov    %rsi,-0x10(%rbp)
    8707:	89 55 ec             	mov    %edx,-0x14(%rbp)
    870a:	48 8b 45 f8          	mov    -0x8(%rbp),%rax
    870e:	48 89 c7             	mov    %rax,%rdi
    8711:	e8 3e ff ff ff       	callq  8654 <crc32_8bytes>
    8716:	83 7d ec 00          	cmpl   $0x0,-0x14(%rbp)
    871a:	74 22                	je     873e <transparent_crc+0x4b>
    871c:	8b 05 fe 88 01 00    	mov    0x188fe(%rip),%eax        # 21020 <crc32_context>
    8722:	f7 d0                	not    %eax
    8724:	89 c2                	mov    %eax,%edx
    8726:	48 8b 45 f0          	mov    -0x10(%rbp),%rax
    872a:	48 89 c6             	mov    %rax,%rsi
    872d:	48 8d 3d fc 28 01 00 	lea    0x128fc(%rip),%rdi        # 1b030 <_IO_stdin_used+0x30>
    8734:	b8 00 00 00 00       	mov    $0x0,%eax
    8739:	e8 42 e9 ff ff       	callq  7080 <printf@plt>
    873e:	90                   	nop
    873f:	c9                   	leaveq 
    8740:	c3                   	retq   

0000000000008741 <transparent_crc_bytes>:
    8741:	f3 0f 1e fa          	endbr64 
    8745:	55                   	push   %rbp
    8746:	48 89 e5             	mov    %rsp,%rbp
    8749:	48 83 ec 30          	sub    $0x30,%rsp
    874d:	48 89 7d e8          	mov    %rdi,-0x18(%rbp)
    8751:	89 75 e4             	mov    %esi,-0x1c(%rbp)
    8754:	48 89 55 d8          	mov    %rdx,-0x28(%rbp)
    8758:	89 4d e0             	mov    %ecx,-0x20(%rbp)
    875b:	c7 45 fc 00 00 00 00 	movl   $0x0,-0x4(%rbp)
    8762:	eb 1e                	jmp    8782 <transparent_crc_bytes+0x41>
    8764:	8b 45 fc             	mov    -0x4(%rbp),%eax
    8767:	48 63 d0             	movslq %eax,%rdx
    876a:	48 8b 45 e8          	mov    -0x18(%rbp),%rax
    876e:	48 01 d0             	add    %rdx,%rax
    8771:	0f b6 00             	movzbl (%rax),%eax
    8774:	0f b6 c0             	movzbl %al,%eax
    8777:	89 c7                	mov    %eax,%edi
    8779:	e8 90 fe ff ff       	callq  860e <crc32_byte>
    877e:	83 45 fc 01          	addl   $0x1,-0x4(%rbp)
    8782:	8b 45 fc             	mov    -0x4(%rbp),%eax
    8785:	3b 45 e4             	cmp    -0x1c(%rbp),%eax
    8788:	7c da                	jl     8764 <transparent_crc_bytes+0x23>
    878a:	83 7d e0 00          	cmpl   $0x0,-0x20(%rbp)
    878e:	74 22                	je     87b2 <transparent_crc_bytes+0x71>
    8790:	8b 05 8a 88 01 00    	mov    0x1888a(%rip),%eax        # 21020 <crc32_context>
    8796:	f7 d0                	not    %eax
    8798:	89 c2                	mov    %eax,%edx
    879a:	48 8b 45 d8          	mov    -0x28(%rbp),%rax
    879e:	48 89 c6             	mov    %rax,%rsi
    87a1:	48 8d 3d 88 28 01 00 	lea    0x12888(%rip),%rdi        # 1b030 <_IO_stdin_used+0x30>
    87a8:	b8 00 00 00 00       	mov    $0x0,%eax
    87ad:	e8 ce e8 ff ff       	callq  7080 <printf@plt>
    87b2:	90                   	nop
    87b3:	c9                   	leaveq 
    87b4:	c3                   	retq   

00000000000087b5 <func_1>:
    87b5:	f3 0f 1e fa          	endbr64 
    87b9:	55                   	push   %rbp
    87ba:	48 89 e5             	mov    %rsp,%rbp
    87bd:	41 54                	push   %r12
    87bf:	53                   	push   %rbx
    87c0:	48 81 ec 80 06 00 00 	sub    $0x680,%rsp
    87c7:	64 48 8b 04 25 28 00 	mov    %fs:0x28,%rax
    87ce:	00 00 
    87d0:	48 89 45 e8          	mov    %rax,-0x18(%rbp)
    87d4:	31 c0                	xor    %eax,%eax
    87d6:	c7 85 78 f9 ff ff 00 	movl   $0x0,-0x688(%rbp)
    87dd:	00 00 00 
    87e0:	48 8d 05 a1 b6 01 00 	lea    0x1b6a1(%rip),%rax        # 23e88 <g_2360>
    87e7:	48 89 85 98 f9 ff ff 	mov    %rax,-0x668(%rbp)
    87ee:	48 8d 85 98 f9 ff ff 	lea    -0x668(%rbp),%rax
    87f5:	48 89 85 a0 f9 ff ff 	mov    %rax,-0x660(%rbp)
    87fc:	48 8d 85 a0 f9 ff ff 	lea    -0x660(%rbp),%rax
    8803:	48 89 85 c8 f9 ff ff 	mov    %rax,-0x638(%rbp)
    880a:	48 c7 85 a8 f9 ff ff 	movq   $0x0,-0x658(%rbp)
    8811:	00 00 00 00 
    8815:	48 8d 85 a8 f9 ff ff 	lea    -0x658(%rbp),%rax
    881c:	48 89 85 b0 f9 ff ff 	mov    %rax,-0x650(%rbp)
    8823:	48 8d 85 b0 f9 ff ff 	lea    -0x650(%rbp),%rax
    882a:	48 89 85 b8 f9 ff ff 	mov    %rax,-0x648(%rbp)
    8831:	48 8d 85 b8 f9 ff ff 	lea    -0x648(%rbp),%rax
    8838:	48 89 85 d0 f9 ff ff 	mov    %rax,-0x630(%rbp)
    883f:	48 8d 85 f0 fb ff ff 	lea    -0x410(%rbp),%rax
    8846:	48 8d 15 b3 29 01 00 	lea    0x129b3(%rip),%rdx        # 1b200 <g_2878+0x1a0>
    884d:	b9 7e 00 00 00       	mov    $0x7e,%ecx
    8852:	48 89 c7             	mov    %rax,%rdi
    8855:	48 89 d6             	mov    %rdx,%rsi
    8858:	f3 48 a5             	rep movsq %ds:(%rsi),%es:(%rdi)
    885b:	c7 85 10 fa ff ff 05 	movl   $0x5,-0x5f0(%rbp)
    8862:	00 00 00 
    8865:	c7 85 14 fa ff ff 05 	movl   $0x5,-0x5ec(%rbp)
    886c:	00 00 00 
    886f:	c7 85 18 fa ff ff 05 	movl   $0x5,-0x5e8(%rbp)
    8876:	00 00 00 
    8879:	c7 85 1c fa ff ff 05 	movl   $0x5,-0x5e4(%rbp)
    8880:	00 00 00 
    8883:	c7 85 20 fa ff ff 05 	movl   $0x5,-0x5e0(%rbp)
    888a:	00 00 00 
    888d:	48 c7 85 d8 f9 ff ff 	movq   $0x0,-0x628(%rbp)
    8894:	00 00 00 00 
    8898:	48 c7 85 e0 f9 ff ff 	movq   $0x0,-0x620(%rbp)
    889f:	00 00 00 00 
    88a3:	48 c7 85 f0 fa ff ff 	movq   $0x0,-0x510(%rbp)
    88aa:	00 00 00 00 
    88ae:	48 8d 05 6f 87 01 00 	lea    0x1876f(%rip),%rax        # 21024 <g_11>
    88b5:	48 89 85 f8 fa ff ff 	mov    %rax,-0x508(%rbp)
    88bc:	48 c7 85 00 fb ff ff 	movq   $0x0,-0x500(%rbp)
    88c3:	00 00 00 00 
    88c7:	48 8d 05 56 87 01 00 	lea    0x18756(%rip),%rax        # 21024 <g_11>
    88ce:	48 89 85 08 fb ff ff 	mov    %rax,-0x4f8(%rbp)
    88d5:	48 c7 85 10 fb ff ff 	movq   $0x0,-0x4f0(%rbp)
    88dc:	00 00 00 00 
    88e0:	48 8d 05 3d 87 01 00 	lea    0x1873d(%rip),%rax        # 21024 <g_11>
    88e7:	48 89 85 18 fb ff ff 	mov    %rax,-0x4e8(%rbp)
    88ee:	48 c7 85 20 fb ff ff 	movq   $0x0,-0x4e0(%rbp)
    88f5:	00 00 00 00 
    88f9:	48 8d 05 24 87 01 00 	lea    0x18724(%rip),%rax        # 21024 <g_11>
    8900:	48 89 85 28 fb ff ff 	mov    %rax,-0x4d8(%rbp)
    8907:	48 c7 85 30 fb ff ff 	movq   $0x0,-0x4d0(%rbp)
    890e:	00 00 00 00 
    8912:	48 8d 05 0b 87 01 00 	lea    0x1870b(%rip),%rax        # 21024 <g_11>
    8919:	48 89 85 38 fb ff ff 	mov    %rax,-0x4c8(%rbp)
    8920:	48 c7 85 40 fb ff ff 	movq   $0x0,-0x4c0(%rbp)
    8927:	00 00 00 00 
    892b:	48 8d 05 f2 86 01 00 	lea    0x186f2(%rip),%rax        # 21024 <g_11>
    8932:	48 89 85 48 fb ff ff 	mov    %rax,-0x4b8(%rbp)
    8939:	48 c7 85 50 fb ff ff 	movq   $0x0,-0x4b0(%rbp)
    8940:	00 00 00 00 
    8944:	48 8d 05 d9 86 01 00 	lea    0x186d9(%rip),%rax        # 21024 <g_11>
    894b:	48 89 85 58 fb ff ff 	mov    %rax,-0x4a8(%rbp)
    8952:	48 c7 85 60 fb ff ff 	movq   $0x0,-0x4a0(%rbp)
    8959:	00 00 00 00 
    895d:	48 8d 05 c0 86 01 00 	lea    0x186c0(%rip),%rax        # 21024 <g_11>
    8964:	48 89 85 68 fb ff ff 	mov    %rax,-0x498(%rbp)
    896b:	48 c7 85 70 fb ff ff 	movq   $0x0,-0x490(%rbp)
    8972:	00 00 00 00 
    8976:	48 8d 05 a7 86 01 00 	lea    0x186a7(%rip),%rax        # 21024 <g_11>
    897d:	48 89 85 78 fb ff ff 	mov    %rax,-0x488(%rbp)
    8984:	48 c7 85 80 fb ff ff 	movq   $0x0,-0x480(%rbp)
    898b:	00 00 00 00 
    898f:	48 8d 05 8e 86 01 00 	lea    0x1868e(%rip),%rax        # 21024 <g_11>
    8996:	48 89 85 88 fb ff ff 	mov    %rax,-0x478(%rbp)
    899d:	48 c7 85 90 fb ff ff 	movq   $0x0,-0x470(%rbp)
    89a4:	00 00 00 00 
    89a8:	48 8d 05 75 86 01 00 	lea    0x18675(%rip),%rax        # 21024 <g_11>
    89af:	48 89 85 98 fb ff ff 	mov    %rax,-0x468(%rbp)
    89b6:	48 c7 85 a0 fb ff ff 	movq   $0x0,-0x460(%rbp)
    89bd:	00 00 00 00 
    89c1:	48 8d 05 5c 86 01 00 	lea    0x1865c(%rip),%rax        # 21024 <g_11>
    89c8:	48 89 85 a8 fb ff ff 	mov    %rax,-0x458(%rbp)
    89cf:	48 c7 85 b0 fb ff ff 	movq   $0x0,-0x450(%rbp)
    89d6:	00 00 00 00 
    89da:	48 8d 05 43 86 01 00 	lea    0x18643(%rip),%rax        # 21024 <g_11>
    89e1:	48 89 85 b8 fb ff ff 	mov    %rax,-0x448(%rbp)
    89e8:	48 c7 85 c0 fb ff ff 	movq   $0x0,-0x440(%rbp)
    89ef:	00 00 00 00 
    89f3:	48 8d 05 2a 86 01 00 	lea    0x1862a(%rip),%rax        # 21024 <g_11>
    89fa:	48 89 85 c8 fb ff ff 	mov    %rax,-0x438(%rbp)
    8a01:	48 c7 85 d0 fb ff ff 	movq   $0x0,-0x430(%rbp)
    8a08:	00 00 00 00 
    8a0c:	48 8d 05 11 86 01 00 	lea    0x18611(%rip),%rax        # 21024 <g_11>
    8a13:	48 89 85 d8 fb ff ff 	mov    %rax,-0x428(%rbp)
    8a1a:	48 c7 85 e0 fb ff ff 	movq   $0x0,-0x420(%rbp)
    8a21:	00 00 00 00 
    8a25:	48 8d 05 f8 85 01 00 	lea    0x185f8(%rip),%rax        # 21024 <g_11>
    8a2c:	48 89 85 e8 fb ff ff 	mov    %rax,-0x418(%rbp)
    8a33:	c6 85 73 f9 ff ff ff 	movb   $0xff,-0x68d(%rbp)
    8a3a:	48 c7 85 e8 f9 ff ff 	movq   $0x0,-0x618(%rbp)
    8a41:	00 00 00 00 
    8a45:	48 8d 05 04 89 01 00 	lea    0x18904(%rip),%rax        # 21350 <g_2313+0x10>
    8a4c:	48 89 85 30 fa ff ff 	mov    %rax,-0x5d0(%rbp)
    8a53:	48 8d 05 f6 88 01 00 	lea    0x188f6(%rip),%rax        # 21350 <g_2313+0x10>
    8a5a:	48 89 85 38 fa ff ff 	mov    %rax,-0x5c8(%rbp)
    8a61:	48 8d 05 e8 88 01 00 	lea    0x188e8(%rip),%rax        # 21350 <g_2313+0x10>
    8a68:	48 89 85 40 fa ff ff 	mov    %rax,-0x5c0(%rbp)
    8a6f:	48 8d 05 da 88 01 00 	lea    0x188da(%rip),%rax        # 21350 <g_2313+0x10>
    8a76:	48 89 85 48 fa ff ff 	mov    %rax,-0x5b8(%rbp)
    8a7d:	48 8d 05 cc 88 01 00 	lea    0x188cc(%rip),%rax        # 21350 <g_2313+0x10>
    8a84:	48 89 85 50 fa ff ff 	mov    %rax,-0x5b0(%rbp)
    8a8b:	48 8d 05 be 88 01 00 	lea    0x188be(%rip),%rax        # 21350 <g_2313+0x10>
    8a92:	48 89 85 58 fa ff ff 	mov    %rax,-0x5a8(%rbp)
    8a99:	48 8d 05 b0 88 01 00 	lea    0x188b0(%rip),%rax        # 21350 <g_2313+0x10>
    8aa0:	48 89 85 60 fa ff ff 	mov    %rax,-0x5a0(%rbp)
    8aa7:	48 8d 05 a2 88 01 00 	lea    0x188a2(%rip),%rax        # 21350 <g_2313+0x10>
    8aae:	48 89 85 68 fa ff ff 	mov    %rax,-0x598(%rbp)
    8ab5:	48 8d 05 94 88 01 00 	lea    0x18894(%rip),%rax        # 21350 <g_2313+0x10>
    8abc:	48 89 85 70 fa ff ff 	mov    %rax,-0x590(%rbp)
    8ac3:	48 8d 05 86 88 01 00 	lea    0x18886(%rip),%rax        # 21350 <g_2313+0x10>
    8aca:	48 89 85 78 fa ff ff 	mov    %rax,-0x588(%rbp)
    8ad1:	48 8d 05 78 88 01 00 	lea    0x18878(%rip),%rax        # 21350 <g_2313+0x10>
    8ad8:	48 89 85 80 fa ff ff 	mov    %rax,-0x580(%rbp)
    8adf:	48 8d 05 6a 88 01 00 	lea    0x1886a(%rip),%rax        # 21350 <g_2313+0x10>
    8ae6:	48 89 85 88 fa ff ff 	mov    %rax,-0x578(%rbp)
    8aed:	48 8d 05 5c 88 01 00 	lea    0x1885c(%rip),%rax        # 21350 <g_2313+0x10>
    8af4:	48 89 85 90 fa ff ff 	mov    %rax,-0x570(%rbp)
    8afb:	48 8d 05 4e 88 01 00 	lea    0x1884e(%rip),%rax        # 21350 <g_2313+0x10>
    8b02:	48 89 85 98 fa ff ff 	mov    %rax,-0x568(%rbp)
    8b09:	48 8d 05 40 88 01 00 	lea    0x18840(%rip),%rax        # 21350 <g_2313+0x10>
    8b10:	48 89 85 a0 fa ff ff 	mov    %rax,-0x560(%rbp)
    8b17:	48 8d 05 32 88 01 00 	lea    0x18832(%rip),%rax        # 21350 <g_2313+0x10>
    8b1e:	48 89 85 a8 fa ff ff 	mov    %rax,-0x558(%rbp)
    8b25:	48 8d 05 24 88 01 00 	lea    0x18824(%rip),%rax        # 21350 <g_2313+0x10>
    8b2c:	48 89 85 b0 fa ff ff 	mov    %rax,-0x550(%rbp)
    8b33:	48 8d 05 16 88 01 00 	lea    0x18816(%rip),%rax        # 21350 <g_2313+0x10>
    8b3a:	48 89 85 b8 fa ff ff 	mov    %rax,-0x548(%rbp)
    8b41:	48 8d 05 08 88 01 00 	lea    0x18808(%rip),%rax        # 21350 <g_2313+0x10>
    8b48:	48 89 85 c0 fa ff ff 	mov    %rax,-0x540(%rbp)
    8b4f:	48 8d 05 fa 87 01 00 	lea    0x187fa(%rip),%rax        # 21350 <g_2313+0x10>
    8b56:	48 89 85 c8 fa ff ff 	mov    %rax,-0x538(%rbp)
    8b5d:	48 8d 05 ec 87 01 00 	lea    0x187ec(%rip),%rax        # 21350 <g_2313+0x10>
    8b64:	48 89 85 d0 fa ff ff 	mov    %rax,-0x530(%rbp)
    8b6b:	48 8d 05 de 87 01 00 	lea    0x187de(%rip),%rax        # 21350 <g_2313+0x10>
    8b72:	48 89 85 d8 fa ff ff 	mov    %rax,-0x528(%rbp)
    8b79:	48 8d 05 d0 87 01 00 	lea    0x187d0(%rip),%rax        # 21350 <g_2313+0x10>
    8b80:	48 89 85 e0 fa ff ff 	mov    %rax,-0x520(%rbp)
    8b87:	48 8d 05 c2 87 01 00 	lea    0x187c2(%rip),%rax        # 21350 <g_2313+0x10>
    8b8e:	48 89 85 e8 fa ff ff 	mov    %rax,-0x518(%rbp)
    8b95:	c7 85 7c f9 ff ff c4 	movl   $0xf1fb75c4,-0x684(%rbp)
    8b9c:	75 fb f1 
    8b9f:	48 8d 05 9a 84 01 00 	lea    0x1849a(%rip),%rax        # 21040 <g_59>
    8ba6:	48 89 85 f0 f9 ff ff 	mov    %rax,-0x610(%rbp)
    8bad:	66 c7 85 74 f9 ff ff 	movw   $0x77dd,-0x68c(%rbp)
    8bb4:	dd 77 
    8bb6:	48 c7 85 c0 f9 ff ff 	movq   $0x0,-0x640(%rbp)
    8bbd:	00 00 00 00 
    8bc1:	48 8d 85 c0 f9 ff ff 	lea    -0x640(%rbp),%rax
    8bc8:	48 89 85 f8 f9 ff ff 	mov    %rax,-0x608(%rbp)
    8bcf:	c7 85 80 f9 ff ff 07 	movl   $0x7,-0x680(%rbp)
    8bd6:	00 00 00 
    8bd9:	c7 85 84 f9 ff ff 21 	movl   $0xb65ef21,-0x67c(%rbp)
    8be0:	ef 65 0b 
    8be3:	c7 85 88 f9 ff ff 00 	movl   $0x0,-0x678(%rbp)
    8bea:	00 00 00 
    8bed:	48 c7 85 00 fa ff ff 	movq   $0x0,-0x600(%rbp)
    8bf4:	00 00 00 00 
    8bf8:	48 8d 05 a9 85 01 00 	lea    0x185a9(%rip),%rax        # 211a8 <g_396>
    8bff:	48 89 85 08 fa ff ff 	mov    %rax,-0x5f8(%rbp)
    8c06:	66 c7 85 76 f9 ff ff 	movw   $0x5ca5,-0x68a(%rbp)
    8c0d:	a5 5c 
    8c0f:	c7 85 8c f9 ff ff 01 	movl   $0x1,-0x674(%rbp)
    8c16:	00 00 00 
    8c19:	c7 85 90 f9 ff ff 67 	movl   $0x5f5cab67,-0x670(%rbp)
    8c20:	ab 5c 5f 
    8c23:	c7 85 94 f9 ff ff ff 	movl   $0xffffffff,-0x66c(%rbp)
    8c2a:	ff ff ff 
    8c2d:	8b 85 78 f9 ff ff    	mov    -0x688(%rbp),%eax
    8c33:	48 63 d8             	movslq %eax,%rbx
    8c36:	0f b6 05 13 88 01 00 	movzbl 0x18813(%rip),%eax        # 21450 <g_2479>
    8c3d:	4c 0f be e0          	movsbq %al,%r12
    8c41:	8b 85 78 f9 ff ff    	mov    -0x688(%rbp),%eax
    8c47:	c1 e8 1f             	shr    $0x1f,%eax
    8c4a:	0f b6 d0             	movzbl %al,%edx
    8c4d:	48 8d 05 dc b4 01 00 	lea    0x1b4dc(%rip),%rax        # 24130 <g_2782+0x270>
    8c54:	48 39 85 c8 f9 ff ff 	cmp    %rax,-0x638(%rbp)
    8c5b:	0f 95 c0             	setne  %al
    8c5e:	0f b6 c0             	movzbl %al,%eax
    8c61:	89 d6                	mov    %edx,%esi
    8c63:	89 c7                	mov    %eax,%edi
    8c65:	e8 69 e7 ff ff       	callq  73d3 <safe_sub_func_int16_t_s_s>
    8c6a:	8b 85 78 f9 ff ff    	mov    -0x688(%rbp),%eax
    8c70:	48 98                	cltq   
    8c72:	48 ba 91 8c 67 8e 14 	movabs $0xc08400148e678c91,%rdx
    8c79:	00 84 c0 
    8c7c:	48 39 d0             	cmp    %rdx,%rax
    8c7f:	0f 95 c0             	setne  %al
    8c82:	0f b6 c0             	movzbl %al,%eax
    8c85:	be 6f 00 00 00       	mov    $0x6f,%esi
    8c8a:	89 c7                	mov    %eax,%edi
    8c8c:	e8 02 ef ff ff       	callq  7b93 <safe_mul_func_uint8_t_u_u>
    8c91:	48 83 bd d0 f9 ff ff 	cmpq   $0x0,-0x630(%rbp)
    8c98:	00 
    8c99:	0f 95 c0             	setne  %al
    8c9c:	0f b6 c0             	movzbl %al,%eax
    8c9f:	4c 89 e6             	mov    %r12,%rsi
    8ca2:	48 89 c7             	mov    %rax,%rdi
    8ca5:	e8 0a ed ff ff       	callq  79b4 <safe_mod_func_int64_t_s_s>
    8caa:	83 e0 05             	and    $0x5,%eax
    8cad:	89 85 34 ff ff ff    	mov    %eax,-0xcc(%rbp)
    8cb3:	8b 85 34 ff ff ff    	mov    -0xcc(%rbp),%eax
    8cb9:	39 85 78 f9 ff ff    	cmp    %eax,-0x688(%rbp)
    8cbf:	0f 9e c0             	setle  %al
    8cc2:	0f b6 c0             	movzbl %al,%eax
    8cc5:	89 85 20 fa ff ff    	mov    %eax,-0x5e0(%rbp)
    8ccb:	48 8d 05 9e b9 01 00 	lea    0x1b99e(%rip),%rax        # 24670 <g_845>
    8cd2:	48 39 85 d8 f9 ff ff 	cmp    %rax,-0x628(%rbp)
    8cd9:	0f 95 c0             	setne  %al
    8cdc:	0f b6 c0             	movzbl %al,%eax
    8cdf:	48 89 de             	mov    %rbx,%rsi
    8ce2:	48 89 c7             	mov    %rax,%rdi
    8ce5:	e8 44 f3 ff ff       	callq  802e <safe_add_func_uint64_t_u_u>
    8cea:	48 89 c3             	mov    %rax,%rbx
    8ced:	8b 85 78 f9 ff ff    	mov    -0x688(%rbp),%eax
    8cf3:	0f be d0             	movsbl %al,%edx
    8cf6:	8b 85 78 f9 ff ff    	mov    -0x688(%rbp),%eax
    8cfc:	89 d6                	mov    %edx,%esi
    8cfe:	89 c7                	mov    %eax,%edi
    8d00:	e8 39 1a 00 00       	callq  a73e <func_6>
    8d05:	bf 0b 07 47 9d       	mov    $0x9d47070b,%edi
    8d0a:	e8 de 01 00 00       	callq  8eed <func_4>
    8d0f:	48 89 de             	mov    %rbx,%rsi
    8d12:	48 89 c7             	mov    %rax,%rdi
    8d15:	e8 31 f3 ff ff       	callq  804b <safe_sub_func_uint64_t_u_u>
    8d1a:	48 8b 95 e0 f9 ff ff 	mov    -0x620(%rbp),%rdx
    8d21:	48 21 c2             	and    %rax,%rdx
    8d24:	8b 85 78 f9 ff ff    	mov    -0x688(%rbp),%eax
    8d2a:	48 98                	cltq   
    8d2c:	48 39 c2             	cmp    %rax,%rdx
    8d2f:	0f 95 c0             	setne  %al
    8d32:	88 85 73 f9 ff ff    	mov    %al,-0x68d(%rbp)
    8d38:	48 8b 05 91 af 01 00 	mov    0x1af91(%rip),%rax        # 23cd0 <g_2302>
    8d3f:	48 8b 00             	mov    (%rax),%rax
    8d42:	48 8b 00             	mov    (%rax),%rax
    8d45:	48 89 c2             	mov    %rax,%rdx
    8d48:	48 b8 54 a6 e1 46 f4 	movabs $0xd21838f446e1a654,%rax
    8d4f:	38 18 d2 
    8d52:	48 39 c2             	cmp    %rax,%rdx
    8d55:	0f 97 c0             	seta   %al
    8d58:	0f b6 d0             	movzbl %al,%edx
    8d5b:	48 8b 05 1e b1 01 00 	mov    0x1b11e(%rip),%rax        # 23e80 <g_2361>
    8d62:	8b 00                	mov    (%rax),%eax
    8d64:	39 c2                	cmp    %eax,%edx
    8d66:	0f 95 c2             	setne  %dl
    8d69:	48 8b 05 30 af 01 00 	mov    0x1af30(%rip),%rax        # 23ca0 <g_1987>
    8d70:	48 8b 00             	mov    (%rax),%rax
    8d73:	0f b6 d2             	movzbl %dl,%edx
    8d76:	48 89 10             	mov    %rdx,(%rax)
    8d79:	4c 8b 20             	mov    (%rax),%r12
    8d7c:	8b 05 fe 84 01 00    	mov    0x184fe(%rip),%eax        # 21280 <g_2131>
    8d82:	48 63 d8             	movslq %eax,%rbx
    8d85:	8b 05 4d 85 01 00    	mov    0x1854d(%rip),%eax        # 212d8 <g_2195+0x18>
    8d8b:	48 63 d0             	movslq %eax,%rdx
    8d8e:	48 8b 85 f0 f9 ff ff 	mov    -0x610(%rbp),%rax
    8d95:	48 89 10             	mov    %rdx,(%rax)
    8d98:	48 8b 85 f0 f9 ff ff 	mov    -0x610(%rbp),%rax
    8d9f:	48 8b 00             	mov    (%rax),%rax
    8da2:	48 85 c0             	test   %rax,%rax
    8da5:	75 29                	jne    8dd0 <func_1+0x61b>
    8da7:	0f b7 95 74 f9 ff ff 	movzwl -0x68c(%rbp),%edx
    8dae:	48 8d 85 c0 f9 ff ff 	lea    -0x640(%rbp),%rax
    8db5:	48 39 85 f8 f9 ff ff 	cmp    %rax,-0x608(%rbp)
    8dbc:	0f 95 c0             	setne  %al
    8dbf:	0f b6 c0             	movzbl %al,%eax
    8dc2:	39 c2                	cmp    %eax,%edx
    8dc4:	0f 95 c0             	setne  %al
    8dc7:	0f b6 c0             	movzbl %al,%eax
    8dca:	39 85 80 f9 ff ff    	cmp    %eax,-0x680(%rbp)
    8dd0:	48 8b 05 b9 ac 01 00 	mov    0x1acb9(%rip),%rax        # 23a90 <g_1407>
    8dd7:	48 8b 00             	mov    (%rax),%rax
    8dda:	48 8b 00             	mov    (%rax),%rax
    8ddd:	0f b7 00             	movzwl (%rax),%eax
    8de0:	0f b7 c0             	movzwl %ax,%eax
    8de3:	be c5 7b 00 00       	mov    $0x7bc5,%esi
    8de8:	89 c7                	mov    %eax,%edi
    8dea:	e8 9f ef ff ff       	callq  7d8e <safe_div_func_uint16_t_u_u>
    8def:	0f b7 c0             	movzwl %ax,%eax
    8df2:	be 01 00 00 00       	mov    $0x1,%esi
    8df7:	89 c7                	mov    %eax,%edi
    8df9:	e8 7c f0 ff ff       	callq  7e7a <safe_rshift_func_uint16_t_u_u>
    8dfe:	0f b7 c0             	movzwl %ax,%eax
    8e01:	39 85 84 f9 ff ff    	cmp    %eax,-0x67c(%rbp)
    8e07:	0f 97 c0             	seta   %al
    8e0a:	89 c2                	mov    %eax,%edx
    8e0c:	8b 85 88 f9 ff ff    	mov    -0x678(%rbp),%eax
    8e12:	31 d0                	xor    %edx,%eax
    8e14:	89 c2                	mov    %eax,%edx
    8e16:	48 8b 85 08 fa ff ff 	mov    -0x5f8(%rbp),%rax
    8e1d:	88 10                	mov    %dl,(%rax)
    8e1f:	48 8b 85 e8 f9 ff ff 	mov    -0x618(%rbp),%rax
    8e26:	21 85 7c f9 ff ff    	and    %eax,-0x684(%rbp)
    8e2c:	48 89 de             	mov    %rbx,%rsi
    8e2f:	bf 01 00 00 00       	mov    $0x1,%edi
    8e34:	e8 f5 f1 ff ff       	callq  802e <safe_add_func_uint64_t_u_u>
    8e39:	48 8b 15 50 ac 01 00 	mov    0x1ac50(%rip),%rdx        # 23a90 <g_1407>
    8e40:	48 8b 12             	mov    (%rdx),%rdx
    8e43:	48 8b 12             	mov    (%rdx),%rdx
    8e46:	0f b7 12             	movzwl (%rdx),%edx
    8e49:	0f b7 d2             	movzwl %dx,%edx
    8e4c:	48 39 d0             	cmp    %rdx,%rax
    8e4f:	0f 95 c0             	setne  %al
    8e52:	0f b6 c0             	movzbl %al,%eax
    8e55:	49 39 c4             	cmp    %rax,%r12
    8e58:	0f 95 c0             	setne  %al
    8e5b:	0f b6 d0             	movzbl %al,%edx
    8e5e:	0f b7 85 76 f9 ff ff 	movzwl -0x68a(%rbp),%eax
    8e65:	39 c2                	cmp    %eax,%edx
    8e67:	0f 9e c0             	setle  %al
    8e6a:	0f b6 c0             	movzbl %al,%eax
    8e6d:	be 07 00 00 00       	mov    $0x7,%esi
    8e72:	89 c7                	mov    %eax,%edi
    8e74:	e8 b1 e6 ff ff       	callq  752a <safe_rshift_func_int16_t_s_s>
    8e79:	98                   	cwtl   
    8e7a:	09 85 8c f9 ff ff    	or     %eax,-0x674(%rbp)
    8e80:	48 8b 05 91 ae 01 00 	mov    0x1ae91(%rip),%rax        # 23d18 <g_2307>
    8e87:	48 8b 00             	mov    (%rax),%rax
    8e8a:	48 8b 00             	mov    (%rax),%rax
    8e8d:	c7 00 01 00 00 00    	movl   $0x1,(%rax)
    8e93:	66 c7 05 04 84 01 00 	movw   $0x0,0x18404(%rip)        # 212a0 <g_2134>
    8e9a:	00 00 
    8e9c:	90                   	nop
    8e9d:	0f b7 05 fc 83 01 00 	movzwl 0x183fc(%rip),%eax        # 212a0 <g_2134>
    8ea4:	66 85 c0             	test   %ax,%ax
    8ea7:	78 0f                	js     8eb8 <func_1+0x703>
    8ea9:	48 8b 05 f8 ab 01 00 	mov    0x1abf8(%rip),%rax        # 23aa8 <g_1546>
    8eb0:	48 8b 00             	mov    (%rax),%rax
    8eb3:	0f b7 00             	movzwl (%rax),%eax
    8eb6:	eb 15                	jmp    8ecd <func_1+0x718>
    8eb8:	8b 05 a6 85 01 00    	mov    0x185a6(%rip),%eax        # 21464 <g_3045>
    8ebe:	83 e8 01             	sub    $0x1,%eax
    8ec1:	89 05 9d 85 01 00    	mov    %eax,0x1859d(%rip)        # 21464 <g_3045>
    8ec7:	8b 85 94 f9 ff ff    	mov    -0x66c(%rbp),%eax
    8ecd:	48 8b 4d e8          	mov    -0x18(%rbp),%rcx
    8ed1:	64 48 33 0c 25 28 00 	xor    %fs:0x28,%rcx
    8ed8:	00 00 
    8eda:	74 05                	je     8ee1 <func_1+0x72c>
    8edc:	e8 8f e1 ff ff       	callq  7070 <__stack_chk_fail@plt>
    8ee1:	48 81 c4 80 06 00 00 	add    $0x680,%rsp
    8ee8:	5b                   	pop    %rbx
    8ee9:	41 5c                	pop    %r12
    8eeb:	5d                   	pop    %rbp
    8eec:	c3                   	retq   

0000000000008eed <func_4>:
    8eed:	f3 0f 1e fa          	endbr64 
    8ef1:	55                   	push   %rbp
    8ef2:	48 89 e5             	mov    %rsp,%rbp
    8ef5:	41 56                	push   %r14
    8ef7:	41 55                	push   %r13
    8ef9:	41 54                	push   %r12
    8efb:	53                   	push   %rbx
    8efc:	48 81 ec 20 0e 00 00 	sub    $0xe20,%rsp
    8f03:	89 bd cc f1 ff ff    	mov    %edi,-0xe34(%rbp)
    8f09:	64 48 8b 04 25 28 00 	mov    %fs:0x28,%rax
    8f10:	00 00 
    8f12:	48 89 45 d8          	mov    %rax,-0x28(%rbp)
    8f16:	31 c0                	xor    %eax,%eax
    8f18:	48 c7 85 08 f2 ff ff 	movq   $0x1,-0xdf8(%rbp)
    8f1f:	01 00 00 00 
    8f23:	c7 85 90 f2 ff ff 01 	movl   $0x1,-0xd70(%rbp)
    8f2a:	00 00 00 
    8f2d:	c7 85 94 f2 ff ff ff 	movl   $0xffffffff,-0xd6c(%rbp)
    8f34:	ff ff ff 
    8f37:	c7 85 98 f2 ff ff 01 	movl   $0x1,-0xd68(%rbp)
    8f3e:	00 00 00 
    8f41:	c7 85 9c f2 ff ff ff 	movl   $0xffffffff,-0xd64(%rbp)
    8f48:	ff ff ff 
    8f4b:	c7 85 a0 f2 ff ff 01 	movl   $0x1,-0xd60(%rbp)
    8f52:	00 00 00 
    8f55:	c7 85 a4 f2 ff ff ff 	movl   $0xffffffff,-0xd5c(%rbp)
    8f5c:	ff ff ff 
    8f5f:	c7 85 a8 f2 ff ff 01 	movl   $0x1,-0xd58(%rbp)
    8f66:	00 00 00 
    8f69:	c7 85 ac f2 ff ff ff 	movl   $0xffffffff,-0xd54(%rbp)
    8f70:	ff ff ff 
    8f73:	c7 85 b0 f2 ff ff 01 	movl   $0x1,-0xd50(%rbp)
    8f7a:	00 00 00 
    8f7d:	c7 85 e4 f1 ff ff ff 	movl   $0xffffffff,-0xe1c(%rbp)
    8f84:	ff ff ff 
    8f87:	c7 85 e8 f1 ff ff 9d 	movl   $0x6619de9d,-0xe18(%rbp)
    8f8e:	de 19 66 
    8f91:	48 c7 85 20 f3 ff ff 	movq   $0xfffffffffffffffb,-0xce0(%rbp)
    8f98:	fb ff ff ff 
    8f9c:	48 c7 85 28 f3 ff ff 	movq   $0x0,-0xcd8(%rbp)
    8fa3:	00 00 00 00 
    8fa7:	48 c7 85 30 f3 ff ff 	movq   $0x0,-0xcd0(%rbp)
    8fae:	00 00 00 00 
    8fb2:	48 b8 92 c9 9a 74 a4 	movabs $0xf9fcc5a4749ac992,%rax
    8fb9:	c5 fc f9 
    8fbc:	48 89 85 38 f3 ff ff 	mov    %rax,-0xcc8(%rbp)
    8fc3:	48 c7 85 40 f3 ff ff 	movq   $0x0,-0xcc0(%rbp)
    8fca:	00 00 00 00 
    8fce:	48 89 85 48 f3 ff ff 	mov    %rax,-0xcb8(%rbp)
    8fd5:	48 b8 e7 74 62 da b4 	movabs $0xe45827b4da6274e7,%rax
    8fdc:	27 58 e4 
    8fdf:	48 89 85 50 f3 ff ff 	mov    %rax,-0xcb0(%rbp)
    8fe6:	48 c7 85 58 f3 ff ff 	movq   $0xfffffffffffffffb,-0xca8(%rbp)
    8fed:	fb ff ff ff 
    8ff1:	48 c7 85 60 f3 ff ff 	movq   $0x0,-0xca0(%rbp)
    8ff8:	00 00 00 00 
    8ffc:	48 89 85 68 f3 ff ff 	mov    %rax,-0xc98(%rbp)
    9003:	48 89 85 70 f3 ff ff 	mov    %rax,-0xc90(%rbp)
    900a:	48 c7 85 78 f3 ff ff 	movq   $0xfffffffffffffffb,-0xc88(%rbp)
    9011:	fb ff ff ff 
    9015:	48 8b 85 08 f2 ff ff 	mov    -0xdf8(%rbp),%rax
    901c:	48 83 c0 01          	add    $0x1,%rax
    9020:	48 89 85 08 f2 ff ff 	mov    %rax,-0xdf8(%rbp)
    9027:	66 c7 05 84 81 01 00 	movw   $0xffe6,0x18184(%rip)        # 211b4 <g_465>
    902e:	e6 ff 
    9030:	e9 c9 16 00 00       	jmpq   a6fe <func_4+0x1811>
    9035:	48 8d 85 f0 f2 ff ff 	lea    -0xd10(%rbp),%rax
    903c:	48 83 c0 28          	add    $0x28,%rax
    9040:	48 89 85 10 f2 ff ff 	mov    %rax,-0xdf0(%rbp)
    9047:	48 8d 85 10 f2 ff ff 	lea    -0xdf0(%rbp),%rax
    904e:	48 89 85 18 f2 ff ff 	mov    %rax,-0xde8(%rbp)
    9055:	66 c7 85 de f1 ff ff 	movw   $0x6776,-0xe22(%rbp)
    905c:	76 67 
    905e:	66 c7 85 80 f3 ff ff 	movw   $0xffff,-0xc80(%rbp)
    9065:	ff ff 
    9067:	66 c7 85 82 f3 ff ff 	movw   $0x7efb,-0xc7e(%rbp)
    906e:	fb 7e 
    9070:	66 c7 85 84 f3 ff ff 	movw   $0x669f,-0xc7c(%rbp)
    9077:	9f 66 
    9079:	66 c7 85 86 f3 ff ff 	movw   $0xe04,-0xc7a(%rbp)
    9080:	04 0e 
    9082:	66 c7 85 88 f3 ff ff 	movw   $0xe04,-0xc78(%rbp)
    9089:	04 0e 
    908b:	66 c7 85 8a f3 ff ff 	movw   $0x9,-0xc76(%rbp)
    9092:	09 00 
    9094:	66 c7 85 8c f3 ff ff 	movw   $0xfffa,-0xc74(%rbp)
    909b:	fa ff 
    909d:	66 c7 85 8e f3 ff ff 	movw   $0x0,-0xc72(%rbp)
    90a4:	00 00 
    90a6:	66 c7 85 90 f3 ff ff 	movw   $0xfffd,-0xc70(%rbp)
    90ad:	fd ff 
    90af:	66 c7 85 92 f3 ff ff 	movw   $0x1,-0xc6e(%rbp)
    90b6:	01 00 
    90b8:	66 c7 85 94 f3 ff ff 	movw   $0x0,-0xc6c(%rbp)
    90bf:	00 00 
    90c1:	66 c7 85 96 f3 ff ff 	movw   $0x3460,-0xc6a(%rbp)
    90c8:	60 34 
    90ca:	66 c7 85 98 f3 ff ff 	movw   $0x0,-0xc68(%rbp)
    90d1:	00 00 
    90d3:	66 c7 85 9a f3 ff ff 	movw   $0x1,-0xc66(%rbp)
    90da:	01 00 
    90dc:	66 c7 85 9c f3 ff ff 	movw   $0xfffd,-0xc64(%rbp)
    90e3:	fd ff 
    90e5:	66 c7 85 9e f3 ff ff 	movw   $0x0,-0xc62(%rbp)
    90ec:	00 00 
    90ee:	66 c7 85 a0 f3 ff ff 	movw   $0x669f,-0xc60(%rbp)
    90f5:	9f 66 
    90f7:	66 c7 85 a2 f3 ff ff 	movw   $0x4,-0xc5e(%rbp)
    90fe:	04 00 
    9100:	66 c7 85 a4 f3 ff ff 	movw   $0xd480,-0xc5c(%rbp)
    9107:	80 d4 
    9109:	66 c7 85 a6 f3 ff ff 	movw   $0xa772,-0xc5a(%rbp)
    9110:	72 a7 
    9112:	66 c7 85 a8 f3 ff ff 	movw   $0xffff,-0xc58(%rbp)
    9119:	ff ff 
    911b:	66 c7 85 aa f3 ff ff 	movw   $0xffff,-0xc56(%rbp)
    9122:	ff ff 
    9124:	66 c7 85 ac f3 ff ff 	movw   $0x4,-0xc54(%rbp)
    912b:	04 00 
    912d:	66 c7 85 ae f3 ff ff 	movw   $0xffff,-0xc52(%rbp)
    9134:	ff ff 
    9136:	66 c7 85 b0 f3 ff ff 	movw   $0x0,-0xc50(%rbp)
    913d:	00 00 
    913f:	66 c7 85 b2 f3 ff ff 	movw   $0xffff,-0xc4e(%rbp)
    9146:	ff ff 
    9148:	66 c7 85 b4 f3 ff ff 	movw   $0x9348,-0xc4c(%rbp)
    914f:	48 93 
    9151:	66 c7 85 b6 f3 ff ff 	movw   $0x22dd,-0xc4a(%rbp)
    9158:	dd 22 
    915a:	66 c7 85 b8 f3 ff ff 	movw   $0xffff,-0xc48(%rbp)
    9161:	ff ff 
    9163:	66 c7 85 ba f3 ff ff 	movw   $0x0,-0xc46(%rbp)
    916a:	00 00 
    916c:	66 c7 85 bc f3 ff ff 	movw   $0x1,-0xc44(%rbp)
    9173:	01 00 
    9175:	66 c7 85 be f3 ff ff 	movw   $0x3460,-0xc42(%rbp)
    917c:	60 34 
    917e:	66 c7 85 c0 f3 ff ff 	movw   $0x669f,-0xc40(%rbp)
    9185:	9f 66 
    9187:	66 c7 85 c2 f3 ff ff 	movw   $0x1,-0xc3e(%rbp)
    918e:	01 00 
    9190:	66 c7 85 c4 f3 ff ff 	movw   $0x6843,-0xc3c(%rbp)
    9197:	43 68 
    9199:	66 c7 85 c6 f3 ff ff 	movw   $0xffff,-0xc3a(%rbp)
    91a0:	ff ff 
    91a2:	66 c7 85 c8 f3 ff ff 	movw   $0x0,-0xc38(%rbp)
    91a9:	00 00 
    91ab:	66 c7 85 ca f3 ff ff 	movw   $0xa602,-0xc36(%rbp)
    91b2:	02 a6 
    91b4:	66 c7 85 cc f3 ff ff 	movw   $0xfff6,-0xc34(%rbp)
    91bb:	f6 ff 
    91bd:	66 c7 85 ce f3 ff ff 	movw   $0x6843,-0xc32(%rbp)
    91c4:	43 68 
    91c6:	66 c7 85 d0 f3 ff ff 	movw   $0xfffd,-0xc30(%rbp)
    91cd:	fd ff 
    91cf:	66 c7 85 d2 f3 ff ff 	movw   $0x6,-0xc2e(%rbp)
    91d6:	06 00 
    91d8:	66 c7 85 d4 f3 ff ff 	movw   $0x0,-0xc2c(%rbp)
    91df:	00 00 
    91e1:	66 c7 85 d6 f3 ff ff 	movw   $0x4,-0xc2a(%rbp)
    91e8:	04 00 
    91ea:	66 c7 85 d8 f3 ff ff 	movw   $0xe04,-0xc28(%rbp)
    91f1:	04 0e 
    91f3:	66 c7 85 da f3 ff ff 	movw   $0x9dbc,-0xc26(%rbp)
    91fa:	bc 9d 
    91fc:	66 c7 85 dc f3 ff ff 	movw   $0xffff,-0xc24(%rbp)
    9203:	ff ff 
    9205:	66 c7 85 de f3 ff ff 	movw   $0xb116,-0xc22(%rbp)
    920c:	16 b1 
    920e:	66 c7 85 e0 f3 ff ff 	movw   $0x9,-0xc20(%rbp)
    9215:	09 00 
    9217:	66 c7 85 e2 f3 ff ff 	movw   $0x8108,-0xc1e(%rbp)
    921e:	08 81 
    9220:	66 c7 85 e4 f3 ff ff 	movw   $0x0,-0xc1c(%rbp)
    9227:	00 00 
    9229:	66 c7 85 e6 f3 ff ff 	movw   $0x22dd,-0xc1a(%rbp)
    9230:	dd 22 
    9232:	66 c7 85 e8 f3 ff ff 	movw   $0x4,-0xc18(%rbp)
    9239:	04 00 
    923b:	66 c7 85 ea f3 ff ff 	movw   $0x1,-0xc16(%rbp)
    9242:	01 00 
    9244:	66 c7 85 ec f3 ff ff 	movw   $0x1,-0xc14(%rbp)
    924b:	01 00 
    924d:	66 c7 85 ee f3 ff ff 	movw   $0x4,-0xc12(%rbp)
    9254:	04 00 
    9256:	66 c7 85 f0 f3 ff ff 	movw   $0x0,-0xc10(%rbp)
    925d:	00 00 
    925f:	66 c7 85 f2 f3 ff ff 	movw   $0xfffa,-0xc0e(%rbp)
    9266:	fa ff 
    9268:	66 c7 85 f4 f3 ff ff 	movw   $0xfffa,-0xc0c(%rbp)
    926f:	fa ff 
    9271:	66 c7 85 f6 f3 ff ff 	movw   $0x0,-0xc0a(%rbp)
    9278:	00 00 
    927a:	66 c7 85 f8 f3 ff ff 	movw   $0x9,-0xc08(%rbp)
    9281:	09 00 
    9283:	66 c7 85 fa f3 ff ff 	movw   $0x6843,-0xc06(%rbp)
    928a:	43 68 
    928c:	66 c7 85 fc f3 ff ff 	movw   $0x4,-0xc04(%rbp)
    9293:	04 00 
    9295:	66 c7 85 fe f3 ff ff 	movw   $0x0,-0xc02(%rbp)
    929c:	00 00 
    929e:	66 c7 85 00 f4 ff ff 	movw   $0x4,-0xc00(%rbp)
    92a5:	04 00 
    92a7:	66 c7 85 02 f4 ff ff 	movw   $0xfff6,-0xbfe(%rbp)
    92ae:	f6 ff 
    92b0:	66 c7 85 04 f4 ff ff 	movw   $0x0,-0xbfc(%rbp)
    92b7:	00 00 
    92b9:	66 c7 85 06 f4 ff ff 	movw   $0x0,-0xbfa(%rbp)
    92c0:	00 00 
    92c2:	66 c7 85 08 f4 ff ff 	movw   $0x9d8a,-0xbf8(%rbp)
    92c9:	8a 9d 
    92cb:	66 c7 85 0a f4 ff ff 	movw   $0xd480,-0xbf6(%rbp)
    92d2:	80 d4 
    92d4:	66 c7 85 0c f4 ff ff 	movw   $0xffff,-0xbf4(%rbp)
    92db:	ff ff 
    92dd:	66 c7 85 0e f4 ff ff 	movw   $0x3460,-0xbf2(%rbp)
    92e4:	60 34 
    92e6:	66 c7 85 10 f4 ff ff 	movw   $0x6843,-0xbf0(%rbp)
    92ed:	43 68 
    92ef:	66 c7 85 12 f4 ff ff 	movw   $0xfff6,-0xbee(%rbp)
    92f6:	f6 ff 
    92f8:	66 c7 85 14 f4 ff ff 	movw   $0xa602,-0xbec(%rbp)
    92ff:	02 a6 
    9301:	66 c7 85 16 f4 ff ff 	movw   $0x0,-0xbea(%rbp)
    9308:	00 00 
    930a:	66 c7 85 18 f4 ff ff 	movw   $0xffff,-0xbe8(%rbp)
    9311:	ff ff 
    9313:	66 c7 85 1a f4 ff ff 	movw   $0x6843,-0xbe6(%rbp)
    931a:	43 68 
    931c:	66 c7 85 1c f4 ff ff 	movw   $0x1,-0xbe4(%rbp)
    9323:	01 00 
    9325:	66 c7 85 1e f4 ff ff 	movw   $0x669f,-0xbe2(%rbp)
    932c:	9f 66 
    932e:	66 c7 85 20 f4 ff ff 	movw   $0xfffd,-0xbe0(%rbp)
    9335:	fd ff 
    9337:	66 c7 85 22 f4 ff ff 	movw   $0xfffa,-0xbde(%rbp)
    933e:	fa ff 
    9340:	66 c7 85 24 f4 ff ff 	movw   $0x22dd,-0xbdc(%rbp)
    9347:	dd 22 
    9349:	66 c7 85 26 f4 ff ff 	movw   $0x6,-0xbda(%rbp)
    9350:	06 00 
    9352:	66 c7 85 28 f4 ff ff 	movw   $0xffff,-0xbd8(%rbp)
    9359:	ff ff 
    935b:	66 c7 85 2a f4 ff ff 	movw   $0x1,-0xbd6(%rbp)
    9362:	01 00 
    9364:	66 c7 85 2c f4 ff ff 	movw   $0x6,-0xbd4(%rbp)
    936b:	06 00 
    936d:	66 c7 85 2e f4 ff ff 	movw   $0xf3ba,-0xbd2(%rbp)
    9374:	ba f3 
    9376:	66 c7 85 30 f4 ff ff 	movw   $0xe04,-0xbd0(%rbp)
    937d:	04 0e 
    937f:	66 c7 85 32 f4 ff ff 	movw   $0x8108,-0xbce(%rbp)
    9386:	08 81 
    9388:	66 c7 85 34 f4 ff ff 	movw   $0xd480,-0xbcc(%rbp)
    938f:	80 d4 
    9391:	66 c7 85 36 f4 ff ff 	movw   $0x3460,-0xbca(%rbp)
    9398:	60 34 
    939a:	66 c7 85 38 f4 ff ff 	movw   $0x6,-0xbc8(%rbp)
    93a1:	06 00 
    93a3:	66 c7 85 3a f4 ff ff 	movw   $0x9dbc,-0xbc6(%rbp)
    93aa:	bc 9d 
    93ac:	66 c7 85 3c f4 ff ff 	movw   $0x8108,-0xbc4(%rbp)
    93b3:	08 81 
    93b5:	66 c7 85 3e f4 ff ff 	movw   $0xffff,-0xbc2(%rbp)
    93bc:	ff ff 
    93be:	66 c7 85 40 f4 ff ff 	movw   $0x6843,-0xbc0(%rbp)
    93c5:	43 68 
    93c7:	66 c7 85 42 f4 ff ff 	movw   $0x6,-0xbbe(%rbp)
    93ce:	06 00 
    93d0:	66 c7 85 44 f4 ff ff 	movw   $0xfffa,-0xbbc(%rbp)
    93d7:	fa ff 
    93d9:	66 c7 85 46 f4 ff ff 	movw   $0xa602,-0xbba(%rbp)
    93e0:	02 a6 
    93e2:	66 c7 85 48 f4 ff ff 	movw   $0xffff,-0xbb8(%rbp)
    93e9:	ff ff 
    93eb:	66 c7 85 4a f4 ff ff 	movw   $0xa602,-0xbb6(%rbp)
    93f2:	02 a6 
    93f4:	66 c7 85 4c f4 ff ff 	movw   $0xfffa,-0xbb4(%rbp)
    93fb:	fa ff 
    93fd:	66 c7 85 4e f4 ff ff 	movw   $0x6,-0xbb2(%rbp)
    9404:	06 00 
    9406:	66 c7 85 50 f4 ff ff 	movw   $0xffff,-0xbb0(%rbp)
    940d:	ff ff 
    940f:	66 c7 85 52 f4 ff ff 	movw   $0x1,-0xbae(%rbp)
    9416:	01 00 
    9418:	66 c7 85 54 f4 ff ff 	movw   $0xf3ba,-0xbac(%rbp)
    941f:	ba f3 
    9421:	66 c7 85 56 f4 ff ff 	movw   $0x0,-0xbaa(%rbp)
    9428:	00 00 
    942a:	66 c7 85 58 f4 ff ff 	movw   $0x9,-0xba8(%rbp)
    9431:	09 00 
    9433:	66 c7 85 5a f4 ff ff 	movw   $0x0,-0xba6(%rbp)
    943a:	00 00 
    943c:	66 c7 85 5c f4 ff ff 	movw   $0xfff6,-0xba4(%rbp)
    9443:	f6 ff 
    9445:	66 c7 85 5e f4 ff ff 	movw   $0xf3ba,-0xba2(%rbp)
    944c:	ba f3 
    944e:	66 c7 85 60 f4 ff ff 	movw   $0xa772,-0xba0(%rbp)
    9455:	72 a7 
    9457:	66 c7 85 62 f4 ff ff 	movw   $0xffff,-0xb9e(%rbp)
    945e:	ff ff 
    9460:	66 c7 85 64 f4 ff ff 	movw   $0xffff,-0xb9c(%rbp)
    9467:	ff ff 
    9469:	66 c7 85 66 f4 ff ff 	movw   $0x4,-0xb9a(%rbp)
    9470:	04 00 
    9472:	66 c7 85 68 f4 ff ff 	movw   $0xffff,-0xb98(%rbp)
    9479:	ff ff 
    947b:	66 c7 85 6a f4 ff ff 	movw   $0xffff,-0xb96(%rbp)
    9482:	ff ff 
    9484:	66 c7 85 6c f4 ff ff 	movw   $0xfff6,-0xb94(%rbp)
    948b:	f6 ff 
    948d:	66 c7 85 6e f4 ff ff 	movw   $0x0,-0xb92(%rbp)
    9494:	00 00 
    9496:	66 c7 85 70 f4 ff ff 	movw   $0x9,-0xb90(%rbp)
    949d:	09 00 
    949f:	66 c7 85 72 f4 ff ff 	movw   $0x4,-0xb8e(%rbp)
    94a6:	04 00 
    94a8:	66 c7 85 74 f4 ff ff 	movw   $0xf3ba,-0xb8c(%rbp)
    94af:	ba f3 
    94b1:	66 c7 85 76 f4 ff ff 	movw   $0x0,-0xb8a(%rbp)
    94b8:	00 00 
    94ba:	66 c7 85 78 f4 ff ff 	movw   $0x8108,-0xb88(%rbp)
    94c1:	08 81 
    94c3:	66 c7 85 7a f4 ff ff 	movw   $0x1,-0xb86(%rbp)
    94ca:	01 00 
    94cc:	66 c7 85 7c f4 ff ff 	movw   $0xfffa,-0xb84(%rbp)
    94d3:	fa ff 
    94d5:	66 c7 85 7e f4 ff ff 	movw   $0xb116,-0xb82(%rbp)
    94dc:	16 b1 
    94de:	48 8d 85 90 f9 ff ff 	lea    -0x670(%rbp),%rax
    94e5:	48 8d 15 94 7f 01 00 	lea    0x17f94(%rip),%rdx        # 21480 <g_3045+0x1c>
    94ec:	b9 c8 00 00 00       	mov    $0xc8,%ecx
    94f1:	48 89 c7             	mov    %rax,%rdi
    94f4:	48 89 d6             	mov    %rdx,%rsi
    94f7:	f3 48 a5             	rep movsq %ds:(%rsi),%es:(%rdi)
    94fa:	c6 85 da f1 ff ff 71 	movb   $0x71,-0xe26(%rbp)
    9501:	c7 85 ec f1 ff ff ff 	movl   $0xffffffff,-0xe14(%rbp)
    9508:	ff ff ff 
    950b:	c6 85 db f1 ff ff fd 	movb   $0xfd,-0xe25(%rbp)
    9512:	66 c7 85 e0 f1 ff ff 	movw   $0x1eb4,-0xe20(%rbp)
    9519:	b4 1e 
    951b:	c7 85 f4 f1 ff ff 00 	movl   $0x0,-0xe0c(%rbp)
    9522:	00 00 00 
    9525:	eb 1b                	jmp    9542 <func_4+0x655>
    9527:	8b 85 f4 f1 ff ff    	mov    -0xe0c(%rbp),%eax
    952d:	48 98                	cltq   
    952f:	48 c7 84 c5 f0 f2 ff 	movq   $0x0,-0xd10(%rbp,%rax,8)
    9536:	ff 00 00 00 00 
    953b:	83 85 f4 f1 ff ff 01 	addl   $0x1,-0xe0c(%rbp)
    9542:	83 bd f4 f1 ff ff 05 	cmpl   $0x5,-0xe0c(%rbp)
    9549:	7e dc                	jle    9527 <func_4+0x63a>
    954b:	48 8b 05 4e a4 01 00 	mov    0x1a44e(%rip),%rax        # 239a0 <g_1122>
    9552:	0f b7 00             	movzwl (%rax),%eax
    9555:	0f b7 d8             	movzwl %ax,%ebx
    9558:	83 bd cc f1 ff ff 00 	cmpl   $0x0,-0xe34(%rbp)
    955f:	0f 85 8c 00 00 00    	jne    95f1 <func_4+0x704>
    9565:	44 8b ad cc f1 ff ff 	mov    -0xe34(%rbp),%r13d
    956c:	44 8b a5 cc f1 ff ff 	mov    -0xe34(%rbp),%r12d
    9573:	0f bf 85 de f1 ff ff 	movswl -0xe22(%rbp),%eax
    957a:	89 c6                	mov    %eax,%esi
    957c:	bf 01 00 00 00       	mov    $0x1,%edi
    9581:	e8 38 e8 ff ff       	callq  7dbe <safe_lshift_func_uint16_t_u_s>
    9586:	0f b7 c0             	movzwl %ax,%eax
    9589:	4c 89 e6             	mov    %r12,%rsi
    958c:	48 89 c7             	mov    %rax,%rdi
    958f:	e8 63 e4 ff ff       	callq  79f7 <safe_div_func_int64_t_s_s>
    9594:	4c 09 e8             	or     %r13,%rax
    9597:	48 3d f8 ff 00 00    	cmp    $0xfff8,%rax
    959d:	0f 96 c0             	setbe  %al
    95a0:	0f b6 d0             	movzbl %al,%edx
    95a3:	0f bf 85 de f1 ff ff 	movswl -0xe22(%rbp),%eax
    95aa:	39 c2                	cmp    %eax,%edx
    95ac:	0f 9f c0             	setg   %al
    95af:	0f b6 c0             	movzbl %al,%eax
    95b2:	be 03 00 00 00       	mov    $0x3,%esi
    95b7:	89 c7                	mov    %eax,%edi
    95b9:	e8 d4 de ff ff       	callq  7492 <safe_lshift_func_int16_t_s_s>
    95be:	44 0f be e0          	movsbl %al,%r12d
    95c2:	8b 05 dc 43 01 00    	mov    0x143dc(%rip),%eax        # 1d9a4 <l_2897.4197+0x4>
    95c8:	89 c2                	mov    %eax,%edx
    95ca:	48 8b 85 08 f2 ff ff 	mov    -0xdf8(%rbp),%rax
    95d1:	21 d0                	and    %edx,%eax
    95d3:	98                   	cwtl   
    95d4:	be 04 00 00 00       	mov    $0x4,%esi
    95d9:	89 c7                	mov    %eax,%edi
    95db:	e8 4a df ff ff       	callq  752a <safe_rshift_func_int16_t_s_s>
    95e0:	0f be c0             	movsbl %al,%eax
    95e3:	44 89 e6             	mov    %r12d,%esi
    95e6:	89 c7                	mov    %eax,%edi
    95e8:	e8 44 dc ff ff       	callq  7231 <safe_mod_func_int8_t_s_s>
    95ed:	84 c0                	test   %al,%al
    95ef:	74 07                	je     95f8 <func_4+0x70b>
    95f1:	b8 01 00 00 00       	mov    $0x1,%eax
    95f6:	eb 05                	jmp    95fd <func_4+0x710>
    95f8:	b8 00 00 00 00       	mov    $0x0,%eax
    95fd:	98                   	cwtl   
    95fe:	89 de                	mov    %ebx,%esi
    9600:	89 c7                	mov    %eax,%edi
    9602:	e8 da de ff ff       	callq  74e1 <safe_lshift_func_int16_t_s_u>
    9607:	98                   	cwtl   
    9608:	be 0e 00 00 00       	mov    $0xe,%esi
    960d:	89 c7                	mov    %eax,%edi
    960f:	e8 4f df ff ff       	callq  7563 <safe_rshift_func_int16_t_s_u>
    9614:	0f b7 85 7c f4 ff ff 	movzwl -0xb84(%rbp),%eax
    961b:	0f b6 c0             	movzbl %al,%eax
    961e:	be de 00 00 00       	mov    $0xde,%esi
    9623:	89 c7                	mov    %eax,%edi
    9625:	e8 84 e5 ff ff       	callq  7bae <safe_mod_func_uint8_t_u_u>
    962a:	48 8b 05 ef a6 01 00 	mov    0x1a6ef(%rip),%rax        # 23d20 <g_2306>
    9631:	48 8b 00             	mov    (%rax),%rax
    9634:	48 8b 10             	mov    (%rax),%rdx
    9637:	48 8b 05 da a6 01 00 	mov    0x1a6da(%rip),%rax        # 23d18 <g_2307>
    963e:	48 8b 00             	mov    (%rax),%rax
    9641:	48 8b 12             	mov    (%rdx),%rdx
    9644:	48 89 10             	mov    %rdx,(%rax)
    9647:	c7 05 33 7b 01 00 00 	movl   $0x0,0x17b33(%rip)        # 21184 <g_122>
    964e:	00 00 00 
    9651:	e9 aa 03 00 00       	jmpq   9a00 <func_4+0xb13>
    9656:	c6 85 dc f1 ff ff 00 	movb   $0x0,-0xe24(%rbp)
    965d:	48 8d 05 dc 79 01 00 	lea    0x179dc(%rip),%rax        # 21040 <g_59>
    9664:	48 89 85 30 f2 ff ff 	mov    %rax,-0xdd0(%rbp)
    966b:	c7 05 17 7b 01 00 0e 	movl   $0xe,0x17b17(%rip)        # 2118c <g_192>
    9672:	00 00 00 
    9675:	e9 5d 03 00 00       	jmpq   99d7 <func_4+0xaea>
    967a:	c6 85 dd f1 ff ff 07 	movb   $0x7,-0xe23(%rbp)
    9681:	c7 85 80 f4 ff ff 47 	movl   $0xfff5d747,-0xb80(%rbp)
    9688:	d7 f5 ff 
    968b:	c7 85 84 f4 ff ff 47 	movl   $0xfff5d747,-0xb7c(%rbp)
    9692:	d7 f5 ff 
    9695:	c7 85 88 f4 ff ff 47 	movl   $0xfff5d747,-0xb78(%rbp)
    969c:	d7 f5 ff 
    969f:	c7 85 8c f4 ff ff 47 	movl   $0xfff5d747,-0xb74(%rbp)
    96a6:	d7 f5 ff 
    96a9:	c7 85 90 f4 ff ff 47 	movl   $0xfff5d747,-0xb70(%rbp)
    96b0:	d7 f5 ff 
    96b3:	c7 85 94 f4 ff ff 47 	movl   $0xfff5d747,-0xb6c(%rbp)
    96ba:	d7 f5 ff 
    96bd:	c7 85 98 f4 ff ff 47 	movl   $0xfff5d747,-0xb68(%rbp)
    96c4:	d7 f5 ff 
    96c7:	c7 85 9c f4 ff ff 47 	movl   $0xfff5d747,-0xb64(%rbp)
    96ce:	d7 f5 ff 
    96d1:	c7 85 a0 f4 ff ff 47 	movl   $0xfff5d747,-0xb60(%rbp)
    96d8:	d7 f5 ff 
    96db:	48 8d 05 42 79 01 00 	lea    0x17942(%rip),%rax        # 21024 <g_11>
    96e2:	48 89 85 38 f2 ff ff 	mov    %rax,-0xdc8(%rbp)
    96e9:	48 8d 85 08 f2 ff ff 	lea    -0xdf8(%rbp),%rax
    96f0:	48 89 85 40 f2 ff ff 	mov    %rax,-0xdc0(%rbp)
    96f7:	48 8d 05 aa af 01 00 	lea    0x1afaa(%rip),%rax        # 246a8 <g_1351>
    96fe:	48 89 85 48 f2 ff ff 	mov    %rax,-0xdb8(%rbp)
    9705:	0f be 9d dc f1 ff ff 	movsbl -0xe24(%rbp),%ebx
    970c:	44 0f b6 a5 dd f1 ff 	movzbl -0xe23(%rbp),%r12d
    9713:	ff 
    9714:	be 01 00 00 00       	mov    $0x1,%esi
    9719:	bf ff ff ff ff       	mov    $0xffffffff,%edi
    971e:	e8 7e db ff ff       	callq  72a1 <safe_lshift_func_int8_t_s_s>
    9723:	89 c2                	mov    %eax,%edx
    9725:	48 8b 05 ac a5 01 00 	mov    0x1a5ac(%rip),%rax        # 23cd8 <g_2301>
    972c:	48 8b 00             	mov    (%rax),%rax
    972f:	48 8b 00             	mov    (%rax),%rax
    9732:	48 0f be d2          	movsbq %dl,%rdx
    9736:	48 89 10             	mov    %rdx,(%rax)
    9739:	48 8b 00             	mov    (%rax),%rax
    973c:	49 39 c4             	cmp    %rax,%r12
    973f:	0f 9c c0             	setl   %al
    9742:	0f b6 c8             	movzbl %al,%ecx
    9745:	48 8b 05 54 a7 01 00 	mov    0x1a754(%rip),%rax        # 23ea0 <g_2357>
    974c:	48 8b 00             	mov    (%rax),%rax
    974f:	48 8b 00             	mov    (%rax),%rax
    9752:	48 8b 00             	mov    (%rax),%rax
    9755:	48 8b 00             	mov    (%rax),%rax
    9758:	8b 10                	mov    (%rax),%edx
    975a:	48 8b 05 3f a7 01 00 	mov    0x1a73f(%rip),%rax        # 23ea0 <g_2357>
    9761:	48 8b 00             	mov    (%rax),%rax
    9764:	48 8b 00             	mov    (%rax),%rax
    9767:	48 8b 00             	mov    (%rax),%rax
    976a:	48 8b 00             	mov    (%rax),%rax
    976d:	21 ca                	and    %ecx,%edx
    976f:	89 10                	mov    %edx,(%rax)
    9771:	8b 00                	mov    (%rax),%eax
    9773:	83 c8 01             	or     $0x1,%eax
    9776:	89 c6                	mov    %eax,%esi
    9778:	bf 48 88 6a 59       	mov    $0x596a8848,%edi
    977d:	e8 34 de ff ff       	callq  75b6 <safe_add_func_int32_t_s_s>
    9782:	41 89 c4             	mov    %eax,%r12d
    9785:	48 8b 85 08 f2 ff ff 	mov    -0xdf8(%rbp),%rax
    978c:	0f be c0             	movsbl %al,%eax
    978f:	be 02 00 00 00       	mov    $0x2,%esi
    9794:	89 c7                	mov    %eax,%edi
    9796:	e8 77 da ff ff       	callq  7212 <safe_mul_func_int8_t_s_s>
    979b:	0f be c0             	movsbl %al,%eax
    979e:	44 89 e6             	mov    %r12d,%esi
    97a1:	89 c7                	mov    %eax,%edi
    97a3:	e8 8d db ff ff       	callq  7335 <safe_rshift_func_int8_t_s_s>
    97a8:	48 0f be d0          	movsbq %al,%rdx
    97ac:	48 8b 85 08 f2 ff ff 	mov    -0xdf8(%rbp),%rax
    97b3:	48 39 c2             	cmp    %rax,%rdx
    97b6:	0f 92 c1             	setb   %cl
    97b9:	8b 05 a1 7c 01 00    	mov    0x17ca1(%rip),%eax        # 21460 <g_2922>
    97bf:	48 98                	cltq   
    97c1:	83 e0 fb             	and    $0xfffffffb,%eax
    97c4:	48 89 c2             	mov    %rax,%rdx
    97c7:	48 8b 85 08 f2 ff ff 	mov    -0xdf8(%rbp),%rax
    97ce:	48 39 c2             	cmp    %rax,%rdx
    97d1:	0f 95 c0             	setne  %al
    97d4:	31 c8                	xor    %ecx,%eax
    97d6:	84 c0                	test   %al,%al
    97d8:	74 10                	je     97ea <func_4+0x8fd>
    97da:	83 bd cc f1 ff ff 00 	cmpl   $0x0,-0xe34(%rbp)
    97e1:	74 07                	je     97ea <func_4+0x8fd>
    97e3:	ba 01 00 00 00       	mov    $0x1,%edx
    97e8:	eb 05                	jmp    97ef <func_4+0x902>
    97ea:	ba 00 00 00 00       	mov    $0x0,%edx
    97ef:	0f b6 85 dd f1 ff ff 	movzbl -0xe23(%rbp),%eax
    97f6:	39 c2                	cmp    %eax,%edx
    97f8:	0f 9c c0             	setl   %al
    97fb:	0f b6 d0             	movzbl %al,%edx
    97fe:	0f b7 85 ca f3 ff ff 	movzwl -0xc36(%rbp),%eax
    9805:	98                   	cwtl   
    9806:	39 c2                	cmp    %eax,%edx
    9808:	0f 9f c0             	setg   %al
    980b:	89 c2                	mov    %eax,%edx
    980d:	8b 05 91 41 01 00    	mov    0x14191(%rip),%eax        # 1d9a4 <l_2897.4197+0x4>
    9813:	31 d0                	xor    %edx,%eax
    9815:	0f b6 c0             	movzbl %al,%eax
    9818:	89 de                	mov    %ebx,%esi
    981a:	89 c7                	mov    %eax,%edi
    981c:	e8 6c e4 ff ff       	callq  7c8d <safe_rshift_func_uint8_t_u_s>
    9821:	0f b6 c0             	movzbl %al,%eax
    9824:	89 85 84 f4 ff ff    	mov    %eax,-0xb7c(%rbp)
    982a:	8b 95 84 f4 ff ff    	mov    -0xb7c(%rbp),%edx
    9830:	48 8b 85 38 f2 ff ff 	mov    -0xdc8(%rbp),%rax
    9837:	8b 00                	mov    (%rax),%eax
    9839:	09 c2                	or     %eax,%edx
    983b:	48 8b 85 38 f2 ff ff 	mov    -0xdc8(%rbp),%rax
    9842:	89 10                	mov    %edx,(%rax)
    9844:	48 8b 85 40 f2 ff ff 	mov    -0xdc0(%rbp),%rax
    984b:	48 8b 00             	mov    (%rax),%rax
    984e:	48 8d 50 01          	lea    0x1(%rax),%rdx
    9852:	48 8b 85 40 f2 ff ff 	mov    -0xdc0(%rbp),%rax
    9859:	48 89 10             	mov    %rdx,(%rax)
    985c:	48 8b 85 40 f2 ff ff 	mov    -0xdc0(%rbp),%rax
    9863:	48 8b 10             	mov    (%rax),%rdx
    9866:	48 8b 85 48 f2 ff ff 	mov    -0xdb8(%rbp),%rax
    986d:	0f b7 00             	movzwl (%rax),%eax
    9870:	89 c1                	mov    %eax,%ecx
    9872:	89 d0                	mov    %edx,%eax
    9874:	09 c8                	or     %ecx,%eax
    9876:	89 c2                	mov    %eax,%edx
    9878:	48 8b 85 48 f2 ff ff 	mov    -0xdb8(%rbp),%rax
    987f:	66 89 10             	mov    %dx,(%rax)
    9882:	44 8b ad b0 f2 ff ff 	mov    -0xd50(%rbp),%r13d
    9889:	8b 05 15 41 01 00    	mov    0x14115(%rip),%eax        # 1d9a4 <l_2897.4197+0x4>
    988f:	0f be d8             	movsbl %al,%ebx
    9892:	44 8b a5 cc f1 ff ff 	mov    -0xe34(%rbp),%r12d
    9899:	0f b7 85 7c f4 ff ff 	movzwl -0xb84(%rbp),%eax
    98a0:	66 3d 73 34          	cmp    $0x3473,%ax
    98a4:	0f 9f c0             	setg   %al
    98a7:	0f b6 d0             	movzbl %al,%edx
    98aa:	8b 85 e4 f1 ff ff    	mov    -0xe1c(%rbp),%eax
    98b0:	35 bd 18 29 47       	xor    $0x472918bd,%eax
    98b5:	89 85 e4 f1 ff ff    	mov    %eax,-0xe1c(%rbp)
    98bb:	8b 85 e4 f1 ff ff    	mov    -0xe1c(%rbp),%eax
    98c1:	39 c2                	cmp    %eax,%edx
    98c3:	0f 95 c0             	setne  %al
    98c6:	44 0f b6 f0          	movzbl %al,%r14d
    98ca:	8b 95 cc f1 ff ff    	mov    -0xe34(%rbp),%edx
    98d0:	8b 85 cc f1 ff ff    	mov    -0xe34(%rbp),%eax
    98d6:	89 d6                	mov    %edx,%esi
    98d8:	89 c7                	mov    %eax,%edi
    98da:	e8 46 e6 ff ff       	callq  7f25 <safe_div_func_uint32_t_u_u>
    98df:	33 85 cc f1 ff ff    	xor    -0xe34(%rbp),%eax
    98e5:	89 c2                	mov    %eax,%edx
    98e7:	48 8b 85 38 f2 ff ff 	mov    -0xdc8(%rbp),%rax
    98ee:	89 10                	mov    %edx,(%rax)
    98f0:	48 8b 85 38 f2 ff ff 	mov    -0xdc8(%rbp),%rax
    98f7:	8b 10                	mov    (%rax),%edx
    98f9:	0f bf 85 de f1 ff ff 	movswl -0xe22(%rbp),%eax
    9900:	21 d0                	and    %edx,%eax
    9902:	44 31 f0             	xor    %r14d,%eax
    9905:	48 98                	cltq   
    9907:	4c 89 e6             	mov    %r12,%rsi
    990a:	48 89 c7             	mov    %rax,%rdi
    990d:	e8 6e e7 ff ff       	callq  8080 <safe_mod_func_uint64_t_u_u>
    9912:	8b 95 9c f2 ff ff    	mov    -0xd64(%rbp),%edx
    9918:	0f b7 85 7c f4 ff ff 	movzwl -0xb84(%rbp),%eax
    991f:	98                   	cwtl   
    9920:	39 c2                	cmp    %eax,%edx
    9922:	0f 95 c0             	setne  %al
    9925:	0f b6 d0             	movzbl %al,%edx
    9928:	0f bf 85 de f1 ff ff 	movswl -0xe22(%rbp),%eax
    992f:	39 c2                	cmp    %eax,%edx
    9931:	0f 9d c0             	setge  %al
    9934:	0f b6 c0             	movzbl %al,%eax
    9937:	89 de                	mov    %ebx,%esi
    9939:	89 c7                	mov    %eax,%edi
    993b:	e8 d2 d8 ff ff       	callq  7212 <safe_mul_func_int8_t_s_s>
    9940:	48 0f be c0          	movsbq %al,%rax
    9944:	ba ff ff ff ff       	mov    $0xffffffff,%edx
    9949:	48 09 c2             	or     %rax,%rdx
    994c:	48 b8 de 4a 0f ba c0 	movabs $0x6427abc0ba0f4ade,%rax
    9953:	ab 27 64 
    9956:	48 39 c2             	cmp    %rax,%rdx
    9959:	0f 96 c0             	setbe  %al
    995c:	0f b6 c0             	movzbl %al,%eax
    995f:	be 0d 00 00 00       	mov    $0xd,%esi
    9964:	89 c7                	mov    %eax,%edi
    9966:	e8 bf db ff ff       	callq  752a <safe_rshift_func_int16_t_s_s>
    996b:	98                   	cwtl   
    996c:	41 39 c5             	cmp    %eax,%r13d
    996f:	48 8b 85 58 fa ff ff 	mov    -0x5a8(%rbp),%rax
    9976:	48 85 c0             	test   %rax,%rax
    9979:	74 07                	je     9982 <func_4+0xa95>
    997b:	b8 fe 00 00 00       	mov    $0xfe,%eax
    9980:	eb 05                	jmp    9987 <func_4+0xa9a>
    9982:	b8 ff 00 00 00       	mov    $0xff,%eax
    9987:	48 89 c6             	mov    %rax,%rsi
    998a:	48 bf 3b 12 16 17 6d 	movabs $0x58eaca6d1716123b,%rdi
    9991:	ca ea 58 
    9994:	e8 1b e0 ff ff       	callq  79b4 <safe_mod_func_int64_t_s_s>
    9999:	89 c2                	mov    %eax,%edx
    999b:	8b 85 e8 f1 ff ff    	mov    -0xe18(%rbp),%eax
    99a1:	21 d0                	and    %edx,%eax
    99a3:	89 85 e8 f1 ff ff    	mov    %eax,-0xe18(%rbp)
    99a9:	48 8b 05 70 a3 01 00 	mov    0x1a370(%rip),%rax        # 23d20 <g_2306>
    99b0:	48 8b 00             	mov    (%rax),%rax
    99b3:	48 8b 00             	mov    (%rax),%rax
    99b6:	48 8b 00             	mov    (%rax),%rax
    99b9:	c7 00 9e 37 a6 26    	movl   $0x26a6379e,(%rax)
    99bf:	8b 05 c7 77 01 00    	mov    0x177c7(%rip),%eax        # 2118c <g_192>
    99c5:	be 08 00 00 00       	mov    $0x8,%esi
    99ca:	89 c7                	mov    %eax,%edi
    99cc:	e8 e7 e4 ff ff       	callq  7eb8 <safe_add_func_uint32_t_u_u>
    99d1:	89 05 b5 77 01 00    	mov    %eax,0x177b5(%rip)        # 2118c <g_192>
    99d7:	8b 05 af 77 01 00    	mov    0x177af(%rip),%eax        # 2118c <g_192>
    99dd:	83 f8 16             	cmp    $0x16,%eax
    99e0:	0f 85 94 fc ff ff    	jne    967a <func_4+0x78d>
    99e6:	8b 05 98 77 01 00    	mov    0x17798(%rip),%eax        # 21184 <g_122>
    99ec:	98                   	cwtl   
    99ed:	be 01 00 00 00       	mov    $0x1,%esi
    99f2:	89 c7                	mov    %eax,%edi
    99f4:	e8 ba d9 ff ff       	callq  73b3 <safe_add_func_int16_t_s_s>
    99f9:	98                   	cwtl   
    99fa:	89 05 84 77 01 00    	mov    %eax,0x17784(%rip)        # 21184 <g_122>
    9a00:	8b 05 7e 77 01 00    	mov    0x1777e(%rip),%eax        # 21184 <g_122>
    9a06:	83 f8 36             	cmp    $0x36,%eax
    9a09:	0f 87 47 fc ff ff    	ja     9656 <func_4+0x769>
    9a0f:	80 bd da f1 ff ff 00 	cmpb   $0x0,-0xe26(%rbp)
    9a16:	0f 85 f5 0c 00 00    	jne    a711 <func_4+0x1824>
    9a1c:	66 c7 05 cb 77 01 00 	movw   $0xfffb,0x177cb(%rip)        # 211f0 <g_976>
    9a23:	fb ff 
    9a25:	e9 b2 0c 00 00       	jmpq   a6dc <func_4+0x17ef>
    9a2a:	48 c7 85 20 f2 ff ff 	movq   $0x0,-0xde0(%rbp)
    9a31:	00 00 00 00 
    9a35:	48 8d 05 3c 77 01 00 	lea    0x1773c(%rip),%rax        # 21178 <g_112>
    9a3c:	48 89 85 c0 f2 ff ff 	mov    %rax,-0xd40(%rbp)
    9a43:	48 8d 05 2e 77 01 00 	lea    0x1772e(%rip),%rax        # 21178 <g_112>
    9a4a:	48 89 85 c8 f2 ff ff 	mov    %rax,-0xd38(%rbp)
    9a51:	48 8d 05 20 77 01 00 	lea    0x17720(%rip),%rax        # 21178 <g_112>
    9a58:	48 89 85 d0 f2 ff ff 	mov    %rax,-0xd30(%rbp)
    9a5f:	48 8d 05 12 77 01 00 	lea    0x17712(%rip),%rax        # 21178 <g_112>
    9a66:	48 89 85 d8 f2 ff ff 	mov    %rax,-0xd28(%rbp)
    9a6d:	48 8d 05 04 77 01 00 	lea    0x17704(%rip),%rax        # 21178 <g_112>
    9a74:	48 89 85 e0 f2 ff ff 	mov    %rax,-0xd20(%rbp)
    9a7b:	c7 85 f0 f1 ff ff ef 	movl   $0x6e7f3ef,-0xe10(%rbp)
    9a82:	f3 e7 06 
    9a85:	66 c7 85 e2 f1 ff ff 	movw   $0xfffa,-0xe1e(%rbp)
    9a8c:	fa ff 
    9a8e:	48 c7 85 80 f4 ff ff 	movq   $0x0,-0xb80(%rbp)
    9a95:	00 00 00 00 
    9a99:	48 8d 05 90 75 01 00 	lea    0x17590(%rip),%rax        # 21030 <g_14>
    9aa0:	48 89 85 88 f4 ff ff 	mov    %rax,-0xb78(%rbp)
    9aa7:	48 8d 05 76 75 01 00 	lea    0x17576(%rip),%rax        # 21024 <g_11>
    9aae:	48 89 85 90 f4 ff ff 	mov    %rax,-0xb70(%rbp)
    9ab5:	48 8d 05 74 75 01 00 	lea    0x17574(%rip),%rax        # 21030 <g_14>
    9abc:	48 89 85 98 f4 ff ff 	mov    %rax,-0xb68(%rbp)
    9ac3:	48 8d 05 86 75 01 00 	lea    0x17586(%rip),%rax        # 21050 <g_79>
    9aca:	48 89 85 a0 f4 ff ff 	mov    %rax,-0xb60(%rbp)
    9ad1:	48 8d 85 ec f1 ff ff 	lea    -0xe14(%rbp),%rax
    9ad8:	48 89 85 a8 f4 ff ff 	mov    %rax,-0xb58(%rbp)
    9adf:	48 8d 05 3e 75 01 00 	lea    0x1753e(%rip),%rax        # 21024 <g_11>
    9ae6:	48 89 85 b0 f4 ff ff 	mov    %rax,-0xb50(%rbp)
    9aed:	48 c7 85 b8 f4 ff ff 	movq   $0x0,-0xb48(%rbp)
    9af4:	00 00 00 00 
    9af8:	48 8d 05 25 75 01 00 	lea    0x17525(%rip),%rax        # 21024 <g_11>
    9aff:	48 89 85 c0 f4 ff ff 	mov    %rax,-0xb40(%rbp)
    9b06:	48 8d 85 ec f1 ff ff 	lea    -0xe14(%rbp),%rax
    9b0d:	48 89 85 c8 f4 ff ff 	mov    %rax,-0xb38(%rbp)
    9b14:	48 8d 85 ec f1 ff ff 	lea    -0xe14(%rbp),%rax
    9b1b:	48 89 85 d0 f4 ff ff 	mov    %rax,-0xb30(%rbp)
    9b22:	48 8d 05 07 75 01 00 	lea    0x17507(%rip),%rax        # 21030 <g_14>
    9b29:	48 89 85 d8 f4 ff ff 	mov    %rax,-0xb28(%rbp)
    9b30:	48 8d 05 19 75 01 00 	lea    0x17519(%rip),%rax        # 21050 <g_79>
    9b37:	48 89 85 e0 f4 ff ff 	mov    %rax,-0xb20(%rbp)
    9b3e:	48 8d 05 eb 74 01 00 	lea    0x174eb(%rip),%rax        # 21030 <g_14>
    9b45:	48 89 85 e8 f4 ff ff 	mov    %rax,-0xb18(%rbp)
    9b4c:	48 c7 85 f0 f4 ff ff 	movq   $0x0,-0xb10(%rbp)
    9b53:	00 00 00 00 
    9b57:	48 8d 05 c6 74 01 00 	lea    0x174c6(%rip),%rax        # 21024 <g_11>
    9b5e:	48 89 85 f8 f4 ff ff 	mov    %rax,-0xb08(%rbp)
    9b65:	48 8d 85 f0 f1 ff ff 	lea    -0xe10(%rbp),%rax
    9b6c:	48 89 85 00 f5 ff ff 	mov    %rax,-0xb00(%rbp)
    9b73:	48 8d 85 e4 f1 ff ff 	lea    -0xe1c(%rbp),%rax
    9b7a:	48 89 85 08 f5 ff ff 	mov    %rax,-0xaf8(%rbp)
    9b81:	48 8d 85 ec f1 ff ff 	lea    -0xe14(%rbp),%rax
    9b88:	48 89 85 10 f5 ff ff 	mov    %rax,-0xaf0(%rbp)
    9b8f:	48 8d 85 f0 f1 ff ff 	lea    -0xe10(%rbp),%rax
    9b96:	48 89 85 18 f5 ff ff 	mov    %rax,-0xae8(%rbp)
    9b9d:	48 c7 85 20 f5 ff ff 	movq   $0x0,-0xae0(%rbp)
    9ba4:	00 00 00 00 
    9ba8:	48 c7 85 28 f5 ff ff 	movq   $0x0,-0xad8(%rbp)
    9baf:	00 00 00 00 
    9bb3:	48 8d 85 e4 f1 ff ff 	lea    -0xe1c(%rbp),%rax
    9bba:	48 89 85 30 f5 ff ff 	mov    %rax,-0xad0(%rbp)
    9bc1:	48 8d 85 ec f1 ff ff 	lea    -0xe14(%rbp),%rax
    9bc8:	48 89 85 38 f5 ff ff 	mov    %rax,-0xac8(%rbp)
    9bcf:	48 c7 85 40 f5 ff ff 	movq   $0x0,-0xac0(%rbp)
    9bd6:	00 00 00 00 
    9bda:	48 8d 05 6f 74 01 00 	lea    0x1746f(%rip),%rax        # 21050 <g_79>
    9be1:	48 89 85 48 f5 ff ff 	mov    %rax,-0xab8(%rbp)
    9be8:	48 8d 85 ec f1 ff ff 	lea    -0xe14(%rbp),%rax
    9bef:	48 89 85 50 f5 ff ff 	mov    %rax,-0xab0(%rbp)
    9bf6:	48 8d 05 53 74 01 00 	lea    0x17453(%rip),%rax        # 21050 <g_79>
    9bfd:	48 89 85 58 f5 ff ff 	mov    %rax,-0xaa8(%rbp)
    9c04:	48 8d 05 19 74 01 00 	lea    0x17419(%rip),%rax        # 21024 <g_11>
    9c0b:	48 89 85 60 f5 ff ff 	mov    %rax,-0xaa0(%rbp)
    9c12:	48 8d 05 37 74 01 00 	lea    0x17437(%rip),%rax        # 21050 <g_79>
    9c19:	48 89 85 68 f5 ff ff 	mov    %rax,-0xa98(%rbp)
    9c20:	48 8d 85 f0 f1 ff ff 	lea    -0xe10(%rbp),%rax
    9c27:	48 89 85 70 f5 ff ff 	mov    %rax,-0xa90(%rbp)
    9c2e:	48 8d 85 f0 f1 ff ff 	lea    -0xe10(%rbp),%rax
    9c35:	48 89 85 78 f5 ff ff 	mov    %rax,-0xa88(%rbp)
    9c3c:	48 8d 05 0d 74 01 00 	lea    0x1740d(%rip),%rax        # 21050 <g_79>
    9c43:	48 89 85 80 f5 ff ff 	mov    %rax,-0xa80(%rbp)
    9c4a:	48 8d 05 d3 73 01 00 	lea    0x173d3(%rip),%rax        # 21024 <g_11>
    9c51:	48 89 85 88 f5 ff ff 	mov    %rax,-0xa78(%rbp)
    9c58:	48 8d 05 f1 73 01 00 	lea    0x173f1(%rip),%rax        # 21050 <g_79>
    9c5f:	48 89 85 90 f5 ff ff 	mov    %rax,-0xa70(%rbp)
    9c66:	48 8d 85 ec f1 ff ff 	lea    -0xe14(%rbp),%rax
    9c6d:	48 89 85 98 f5 ff ff 	mov    %rax,-0xa68(%rbp)
    9c74:	48 8d 85 f0 f1 ff ff 	lea    -0xe10(%rbp),%rax
    9c7b:	48 89 85 a0 f5 ff ff 	mov    %rax,-0xa60(%rbp)
    9c82:	48 c7 85 a8 f5 ff ff 	movq   $0x0,-0xa58(%rbp)
    9c89:	00 00 00 00 
    9c8d:	48 c7 85 b0 f5 ff ff 	movq   $0x0,-0xa50(%rbp)
    9c94:	00 00 00 00 
    9c98:	48 8d 05 85 73 01 00 	lea    0x17385(%rip),%rax        # 21024 <g_11>
    9c9f:	48 89 85 b8 f5 ff ff 	mov    %rax,-0xa48(%rbp)
    9ca6:	48 8d 85 ec f1 ff ff 	lea    -0xe14(%rbp),%rax
    9cad:	48 89 85 c0 f5 ff ff 	mov    %rax,-0xa40(%rbp)
    9cb4:	48 8d 05 69 73 01 00 	lea    0x17369(%rip),%rax        # 21024 <g_11>
    9cbb:	48 89 85 c8 f5 ff ff 	mov    %rax,-0xa38(%rbp)
    9cc2:	48 8d 85 ec f1 ff ff 	lea    -0xe14(%rbp),%rax
    9cc9:	48 89 85 d0 f5 ff ff 	mov    %rax,-0xa30(%rbp)
    9cd0:	48 c7 85 d8 f5 ff ff 	movq   $0x0,-0xa28(%rbp)
    9cd7:	00 00 00 00 
    9cdb:	48 8d 85 ec f1 ff ff 	lea    -0xe14(%rbp),%rax
    9ce2:	48 89 85 e0 f5 ff ff 	mov    %rax,-0xa20(%rbp)
    9ce9:	48 8d 85 f0 f1 ff ff 	lea    -0xe10(%rbp),%rax
    9cf0:	48 89 85 e8 f5 ff ff 	mov    %rax,-0xa18(%rbp)
    9cf7:	48 8d 05 26 73 01 00 	lea    0x17326(%rip),%rax        # 21024 <g_11>
    9cfe:	48 89 85 f0 f5 ff ff 	mov    %rax,-0xa10(%rbp)
    9d05:	48 c7 85 f8 f5 ff ff 	movq   $0x0,-0xa08(%rbp)
    9d0c:	00 00 00 00 
    9d10:	48 8d 05 19 73 01 00 	lea    0x17319(%rip),%rax        # 21030 <g_14>
    9d17:	48 89 85 00 f6 ff ff 	mov    %rax,-0xa00(%rbp)
    9d1e:	48 8d 05 2b 73 01 00 	lea    0x1732b(%rip),%rax        # 21050 <g_79>
    9d25:	48 89 85 08 f6 ff ff 	mov    %rax,-0x9f8(%rbp)
    9d2c:	48 8d 05 fd 72 01 00 	lea    0x172fd(%rip),%rax        # 21030 <g_14>
    9d33:	48 89 85 10 f6 ff ff 	mov    %rax,-0x9f0(%rbp)
    9d3a:	48 8d 85 ec f1 ff ff 	lea    -0xe14(%rbp),%rax
    9d41:	48 89 85 18 f6 ff ff 	mov    %rax,-0x9e8(%rbp)
    9d48:	48 8d 85 ec f1 ff ff 	lea    -0xe14(%rbp),%rax
    9d4f:	48 89 85 20 f6 ff ff 	mov    %rax,-0x9e0(%rbp)
    9d56:	48 8d 85 f0 f1 ff ff 	lea    -0xe10(%rbp),%rax
    9d5d:	48 89 85 28 f6 ff ff 	mov    %rax,-0x9d8(%rbp)
    9d64:	48 8d 05 b9 72 01 00 	lea    0x172b9(%rip),%rax        # 21024 <g_11>
    9d6b:	48 89 85 30 f6 ff ff 	mov    %rax,-0x9d0(%rbp)
    9d72:	48 8d 85 ec f1 ff ff 	lea    -0xe14(%rbp),%rax
    9d79:	48 89 85 38 f6 ff ff 	mov    %rax,-0x9c8(%rbp)
    9d80:	48 8d 05 c9 72 01 00 	lea    0x172c9(%rip),%rax        # 21050 <g_79>
    9d87:	48 89 85 40 f6 ff ff 	mov    %rax,-0x9c0(%rbp)
    9d8e:	48 8d 85 f0 f1 ff ff 	lea    -0xe10(%rbp),%rax
    9d95:	48 89 85 48 f6 ff ff 	mov    %rax,-0x9b8(%rbp)
    9d9c:	48 8d 05 8d 72 01 00 	lea    0x1728d(%rip),%rax        # 21030 <g_14>
    9da3:	48 89 85 50 f6 ff ff 	mov    %rax,-0x9b0(%rbp)
    9daa:	48 8d 05 7f 72 01 00 	lea    0x1727f(%rip),%rax        # 21030 <g_14>
    9db1:	48 89 85 58 f6 ff ff 	mov    %rax,-0x9a8(%rbp)
    9db8:	48 8d 85 e4 f1 ff ff 	lea    -0xe1c(%rbp),%rax
    9dbf:	48 89 85 60 f6 ff ff 	mov    %rax,-0x9a0(%rbp)
    9dc6:	48 8d 85 f0 f1 ff ff 	lea    -0xe10(%rbp),%rax
    9dcd:	48 89 85 68 f6 ff ff 	mov    %rax,-0x998(%rbp)
    9dd4:	48 8d 05 49 72 01 00 	lea    0x17249(%rip),%rax        # 21024 <g_11>
    9ddb:	48 89 85 70 f6 ff ff 	mov    %rax,-0x990(%rbp)
    9de2:	48 c7 85 78 f6 ff ff 	movq   $0x0,-0x988(%rbp)
    9de9:	00 00 00 00 
    9ded:	48 8d 85 e4 f1 ff ff 	lea    -0xe1c(%rbp),%rax
    9df4:	48 89 85 80 f6 ff ff 	mov    %rax,-0x980(%rbp)
    9dfb:	48 c7 85 88 f6 ff ff 	movq   $0x0,-0x978(%rbp)
    9e02:	00 00 00 00 
    9e06:	48 8d 85 e4 f1 ff ff 	lea    -0xe1c(%rbp),%rax
    9e0d:	48 89 85 90 f6 ff ff 	mov    %rax,-0x970(%rbp)
    9e14:	48 8d 85 e8 f1 ff ff 	lea    -0xe18(%rbp),%rax
    9e1b:	48 89 85 98 f6 ff ff 	mov    %rax,-0x968(%rbp)
    9e22:	48 c7 85 a0 f6 ff ff 	movq   $0x0,-0x960(%rbp)
    9e29:	00 00 00 00 
    9e2d:	48 8d 85 e8 f1 ff ff 	lea    -0xe18(%rbp),%rax
    9e34:	48 89 85 a8 f6 ff ff 	mov    %rax,-0x958(%rbp)
    9e3b:	48 8d 05 0e 72 01 00 	lea    0x1720e(%rip),%rax        # 21050 <g_79>
    9e42:	48 89 85 b0 f6 ff ff 	mov    %rax,-0x950(%rbp)
    9e49:	48 8d 05 e0 71 01 00 	lea    0x171e0(%rip),%rax        # 21030 <g_14>
    9e50:	48 89 85 b8 f6 ff ff 	mov    %rax,-0x948(%rbp)
    9e57:	48 8d 05 f2 71 01 00 	lea    0x171f2(%rip),%rax        # 21050 <g_79>
    9e5e:	48 89 85 c0 f6 ff ff 	mov    %rax,-0x940(%rbp)
    9e65:	48 8d 85 e8 f1 ff ff 	lea    -0xe18(%rbp),%rax
    9e6c:	48 89 85 c8 f6 ff ff 	mov    %rax,-0x938(%rbp)
    9e73:	48 8d 85 e4 f1 ff ff 	lea    -0xe1c(%rbp),%rax
    9e7a:	48 89 85 d0 f6 ff ff 	mov    %rax,-0x930(%rbp)
    9e81:	48 8d 05 9c 71 01 00 	lea    0x1719c(%rip),%rax        # 21024 <g_11>
    9e88:	48 89 85 d8 f6 ff ff 	mov    %rax,-0x928(%rbp)
    9e8f:	48 8d 85 e4 f1 ff ff 	lea    -0xe1c(%rbp),%rax
    9e96:	48 89 85 e0 f6 ff ff 	mov    %rax,-0x920(%rbp)
    9e9d:	48 8d 85 ec f1 ff ff 	lea    -0xe14(%rbp),%rax
    9ea4:	48 89 85 e8 f6 ff ff 	mov    %rax,-0x918(%rbp)
    9eab:	48 8d 85 ec f1 ff ff 	lea    -0xe14(%rbp),%rax
    9eb2:	48 89 85 f0 f6 ff ff 	mov    %rax,-0x910(%rbp)
    9eb9:	48 c7 85 f8 f6 ff ff 	movq   $0x0,-0x908(%rbp)
    9ec0:	00 00 00 00 
    9ec4:	48 c7 85 00 f7 ff ff 	movq   $0x0,-0x900(%rbp)
    9ecb:	00 00 00 00 
    9ecf:	48 8d 85 f0 f1 ff ff 	lea    -0xe10(%rbp),%rax
    9ed6:	48 89 85 08 f7 ff ff 	mov    %rax,-0x8f8(%rbp)
    9edd:	48 8d 85 e8 f1 ff ff 	lea    -0xe18(%rbp),%rax
    9ee4:	48 89 85 10 f7 ff ff 	mov    %rax,-0x8f0(%rbp)
    9eeb:	48 8d 05 3e 71 01 00 	lea    0x1713e(%rip),%rax        # 21030 <g_14>
    9ef2:	48 89 85 18 f7 ff ff 	mov    %rax,-0x8e8(%rbp)
    9ef9:	48 8d 05 50 71 01 00 	lea    0x17150(%rip),%rax        # 21050 <g_79>
    9f00:	48 89 85 20 f7 ff ff 	mov    %rax,-0x8e0(%rbp)
    9f07:	48 c7 85 28 f7 ff ff 	movq   $0x0,-0x8d8(%rbp)
    9f0e:	00 00 00 00 
    9f12:	48 8d 05 37 71 01 00 	lea    0x17137(%rip),%rax        # 21050 <g_79>
    9f19:	48 89 85 30 f7 ff ff 	mov    %rax,-0x8d0(%rbp)
    9f20:	48 8d 05 29 71 01 00 	lea    0x17129(%rip),%rax        # 21050 <g_79>
    9f27:	48 89 85 38 f7 ff ff 	mov    %rax,-0x8c8(%rbp)
    9f2e:	48 8d 85 e4 f1 ff ff 	lea    -0xe1c(%rbp),%rax
    9f35:	48 89 85 40 f7 ff ff 	mov    %rax,-0x8c0(%rbp)
    9f3c:	48 8d 85 e8 f1 ff ff 	lea    -0xe18(%rbp),%rax
    9f43:	48 89 85 48 f7 ff ff 	mov    %rax,-0x8b8(%rbp)
    9f4a:	48 8d 85 ec f1 ff ff 	lea    -0xe14(%rbp),%rax
    9f51:	48 89 85 50 f7 ff ff 	mov    %rax,-0x8b0(%rbp)
    9f58:	48 8d 85 e4 f1 ff ff 	lea    -0xe1c(%rbp),%rax
    9f5f:	48 89 85 58 f7 ff ff 	mov    %rax,-0x8a8(%rbp)
    9f66:	48 8d 85 ec f1 ff ff 	lea    -0xe14(%rbp),%rax
    9f6d:	48 89 85 60 f7 ff ff 	mov    %rax,-0x8a0(%rbp)
    9f74:	48 8d 85 e8 f1 ff ff 	lea    -0xe18(%rbp),%rax
    9f7b:	48 89 85 68 f7 ff ff 	mov    %rax,-0x898(%rbp)
    9f82:	48 c7 85 70 f7 ff ff 	movq   $0x0,-0x890(%rbp)
    9f89:	00 00 00 00 
    9f8d:	48 c7 85 78 f7 ff ff 	movq   $0x0,-0x888(%rbp)
    9f94:	00 00 00 00 
    9f98:	48 c7 85 80 f7 ff ff 	movq   $0x0,-0x880(%rbp)
    9f9f:	00 00 00 00 
    9fa3:	48 c7 85 88 f7 ff ff 	movq   $0x0,-0x878(%rbp)
    9faa:	00 00 00 00 
    9fae:	48 8d 85 e8 f1 ff ff 	lea    -0xe18(%rbp),%rax
    9fb5:	48 89 85 90 f7 ff ff 	mov    %rax,-0x870(%rbp)
    9fbc:	48 8d 85 e4 f1 ff ff 	lea    -0xe1c(%rbp),%rax
    9fc3:	48 89 85 98 f7 ff ff 	mov    %rax,-0x868(%rbp)
    9fca:	48 8d 85 ec f1 ff ff 	lea    -0xe14(%rbp),%rax
    9fd1:	48 89 85 a0 f7 ff ff 	mov    %rax,-0x860(%rbp)
    9fd8:	48 8d 85 e4 f1 ff ff 	lea    -0xe1c(%rbp),%rax
    9fdf:	48 89 85 a8 f7 ff ff 	mov    %rax,-0x858(%rbp)
    9fe6:	48 c7 85 b0 f7 ff ff 	movq   $0x0,-0x850(%rbp)
    9fed:	00 00 00 00 
    9ff1:	48 c7 85 b8 f7 ff ff 	movq   $0x0,-0x848(%rbp)
    9ff8:	00 00 00 00 
    9ffc:	48 8d 05 4d 70 01 00 	lea    0x1704d(%rip),%rax        # 21050 <g_79>
    a003:	48 89 85 c0 f7 ff ff 	mov    %rax,-0x840(%rbp)
    a00a:	48 8d 85 e8 f1 ff ff 	lea    -0xe18(%rbp),%rax
    a011:	48 89 85 c8 f7 ff ff 	mov    %rax,-0x838(%rbp)
    a018:	48 8d 05 31 70 01 00 	lea    0x17031(%rip),%rax        # 21050 <g_79>
    a01f:	48 89 85 d0 f7 ff ff 	mov    %rax,-0x830(%rbp)
    a026:	48 8d 85 ec f1 ff ff 	lea    -0xe14(%rbp),%rax
    a02d:	48 89 85 d8 f7 ff ff 	mov    %rax,-0x828(%rbp)
    a034:	48 8d 85 f0 f1 ff ff 	lea    -0xe10(%rbp),%rax
    a03b:	48 89 85 e0 f7 ff ff 	mov    %rax,-0x820(%rbp)
    a042:	48 8d 05 db 6f 01 00 	lea    0x16fdb(%rip),%rax        # 21024 <g_11>
    a049:	48 89 85 e8 f7 ff ff 	mov    %rax,-0x818(%rbp)
    a050:	48 8d 85 ec f1 ff ff 	lea    -0xe14(%rbp),%rax
    a057:	48 89 85 f0 f7 ff ff 	mov    %rax,-0x810(%rbp)
    a05e:	48 8d 05 cb 6f 01 00 	lea    0x16fcb(%rip),%rax        # 21030 <g_14>
    a065:	48 89 85 f8 f7 ff ff 	mov    %rax,-0x808(%rbp)
    a06c:	48 8d 85 f0 f1 ff ff 	lea    -0xe10(%rbp),%rax
    a073:	48 89 85 00 f8 ff ff 	mov    %rax,-0x800(%rbp)
    a07a:	48 8d 05 cf 6f 01 00 	lea    0x16fcf(%rip),%rax        # 21050 <g_79>
    a081:	48 89 85 08 f8 ff ff 	mov    %rax,-0x7f8(%rbp)
    a088:	48 c7 85 10 f8 ff ff 	movq   $0x0,-0x7f0(%rbp)
    a08f:	00 00 00 00 
    a093:	48 8d 85 ec f1 ff ff 	lea    -0xe14(%rbp),%rax
    a09a:	48 89 85 18 f8 ff ff 	mov    %rax,-0x7e8(%rbp)
    a0a1:	48 8d 85 e4 f1 ff ff 	lea    -0xe1c(%rbp),%rax
    a0a8:	48 89 85 20 f8 ff ff 	mov    %rax,-0x7e0(%rbp)
    a0af:	48 c7 85 28 f8 ff ff 	movq   $0x0,-0x7d8(%rbp)
    a0b6:	00 00 00 00 
    a0ba:	48 8d 85 ec f1 ff ff 	lea    -0xe14(%rbp),%rax
    a0c1:	48 89 85 30 f8 ff ff 	mov    %rax,-0x7d0(%rbp)
    a0c8:	48 8d 05 61 6f 01 00 	lea    0x16f61(%rip),%rax        # 21030 <g_14>
    a0cf:	48 89 85 38 f8 ff ff 	mov    %rax,-0x7c8(%rbp)
    a0d6:	48 c7 85 40 f8 ff ff 	movq   $0x0,-0x7c0(%rbp)
    a0dd:	00 00 00 00 
    a0e1:	48 8d 05 68 6f 01 00 	lea    0x16f68(%rip),%rax        # 21050 <g_79>
    a0e8:	48 89 85 48 f8 ff ff 	mov    %rax,-0x7b8(%rbp)
    a0ef:	48 8d 85 ec f1 ff ff 	lea    -0xe14(%rbp),%rax
    a0f6:	48 89 85 50 f8 ff ff 	mov    %rax,-0x7b0(%rbp)
    a0fd:	48 8d 05 20 6f 01 00 	lea    0x16f20(%rip),%rax        # 21024 <g_11>
    a104:	48 89 85 58 f8 ff ff 	mov    %rax,-0x7a8(%rbp)
    a10b:	48 8d 85 ec f1 ff ff 	lea    -0xe14(%rbp),%rax
    a112:	48 89 85 60 f8 ff ff 	mov    %rax,-0x7a0(%rbp)
    a119:	48 8d 05 10 6f 01 00 	lea    0x16f10(%rip),%rax        # 21030 <g_14>
    a120:	48 89 85 68 f8 ff ff 	mov    %rax,-0x798(%rbp)
    a127:	48 8d 05 02 6f 01 00 	lea    0x16f02(%rip),%rax        # 21030 <g_14>
    a12e:	48 89 85 70 f8 ff ff 	mov    %rax,-0x790(%rbp)
    a135:	48 8d 85 f0 f1 ff ff 	lea    -0xe10(%rbp),%rax
    a13c:	48 89 85 78 f8 ff ff 	mov    %rax,-0x788(%rbp)
    a143:	48 8d 05 06 6f 01 00 	lea    0x16f06(%rip),%rax        # 21050 <g_79>
    a14a:	48 89 85 80 f8 ff ff 	mov    %rax,-0x780(%rbp)
    a151:	48 8d 85 e8 f1 ff ff 	lea    -0xe18(%rbp),%rax
    a158:	48 89 85 88 f8 ff ff 	mov    %rax,-0x778(%rbp)
    a15f:	48 c7 85 90 f8 ff ff 	movq   $0x0,-0x770(%rbp)
    a166:	00 00 00 00 
    a16a:	48 c7 85 98 f8 ff ff 	movq   $0x0,-0x768(%rbp)
    a171:	00 00 00 00 
    a175:	48 8d 05 d4 6e 01 00 	lea    0x16ed4(%rip),%rax        # 21050 <g_79>
    a17c:	48 89 85 a0 f8 ff ff 	mov    %rax,-0x760(%rbp)
    a183:	48 8d 85 ec f1 ff ff 	lea    -0xe14(%rbp),%rax
    a18a:	48 89 85 a8 f8 ff ff 	mov    %rax,-0x758(%rbp)
    a191:	48 c7 85 b0 f8 ff ff 	movq   $0x0,-0x750(%rbp)
    a198:	00 00 00 00 
    a19c:	48 8d 05 ad 6e 01 00 	lea    0x16ead(%rip),%rax        # 21050 <g_79>
    a1a3:	48 89 85 b8 f8 ff ff 	mov    %rax,-0x748(%rbp)
    a1aa:	48 8d 85 e4 f1 ff ff 	lea    -0xe1c(%rbp),%rax
    a1b1:	48 89 85 c0 f8 ff ff 	mov    %rax,-0x740(%rbp)
    a1b8:	48 c7 85 c8 f8 ff ff 	movq   $0x0,-0x738(%rbp)
    a1bf:	00 00 00 00 
    a1c3:	48 8d 05 86 6e 01 00 	lea    0x16e86(%rip),%rax        # 21050 <g_79>
    a1ca:	48 89 85 d0 f8 ff ff 	mov    %rax,-0x730(%rbp)
    a1d1:	48 8d 85 f0 f1 ff ff 	lea    -0xe10(%rbp),%rax
    a1d8:	48 89 85 d8 f8 ff ff 	mov    %rax,-0x728(%rbp)
    a1df:	48 c7 85 e0 f8 ff ff 	movq   $0x0,-0x720(%rbp)
    a1e6:	00 00 00 00 
    a1ea:	48 8d 85 f0 f1 ff ff 	lea    -0xe10(%rbp),%rax
    a1f1:	48 89 85 e8 f8 ff ff 	mov    %rax,-0x718(%rbp)
    a1f8:	48 8d 85 ec f1 ff ff 	lea    -0xe14(%rbp),%rax
    a1ff:	48 89 85 f0 f8 ff ff 	mov    %rax,-0x710(%rbp)
    a206:	48 8d 05 17 6e 01 00 	lea    0x16e17(%rip),%rax        # 21024 <g_11>
    a20d:	48 89 85 f8 f8 ff ff 	mov    %rax,-0x708(%rbp)
    a214:	48 8d 85 e4 f1 ff ff 	lea    -0xe1c(%rbp),%rax
    a21b:	48 89 85 00 f9 ff ff 	mov    %rax,-0x700(%rbp)
    a222:	48 8d 85 e8 f1 ff ff 	lea    -0xe18(%rbp),%rax
    a229:	48 89 85 08 f9 ff ff 	mov    %rax,-0x6f8(%rbp)
    a230:	48 8d 85 ec f1 ff ff 	lea    -0xe14(%rbp),%rax
    a237:	48 89 85 10 f9 ff ff 	mov    %rax,-0x6f0(%rbp)
    a23e:	48 8d 05 df 6d 01 00 	lea    0x16ddf(%rip),%rax        # 21024 <g_11>
    a245:	48 89 85 18 f9 ff ff 	mov    %rax,-0x6e8(%rbp)
    a24c:	48 8d 85 e8 f1 ff ff 	lea    -0xe18(%rbp),%rax
    a253:	48 89 85 20 f9 ff ff 	mov    %rax,-0x6e0(%rbp)
    a25a:	48 c7 85 28 f9 ff ff 	movq   $0x0,-0x6d8(%rbp)
    a261:	00 00 00 00 
    a265:	48 8d 05 c4 6d 01 00 	lea    0x16dc4(%rip),%rax        # 21030 <g_14>
    a26c:	48 89 85 30 f9 ff ff 	mov    %rax,-0x6d0(%rbp)
    a273:	48 8d 05 d6 6d 01 00 	lea    0x16dd6(%rip),%rax        # 21050 <g_79>
    a27a:	48 89 85 38 f9 ff ff 	mov    %rax,-0x6c8(%rbp)
    a281:	48 8d 85 f0 f1 ff ff 	lea    -0xe10(%rbp),%rax
    a288:	48 89 85 40 f9 ff ff 	mov    %rax,-0x6c0(%rbp)
    a28f:	48 8d 85 e8 f1 ff ff 	lea    -0xe18(%rbp),%rax
    a296:	48 89 85 48 f9 ff ff 	mov    %rax,-0x6b8(%rbp)
    a29d:	48 8d 05 ac 6d 01 00 	lea    0x16dac(%rip),%rax        # 21050 <g_79>
    a2a4:	48 89 85 50 f9 ff ff 	mov    %rax,-0x6b0(%rbp)
    a2ab:	48 8d 85 f0 f1 ff ff 	lea    -0xe10(%rbp),%rax
    a2b2:	48 89 85 58 f9 ff ff 	mov    %rax,-0x6a8(%rbp)
    a2b9:	48 8d 85 e4 f1 ff ff 	lea    -0xe1c(%rbp),%rax
    a2c0:	48 89 85 60 f9 ff ff 	mov    %rax,-0x6a0(%rbp)
    a2c7:	48 8d 85 f0 f1 ff ff 	lea    -0xe10(%rbp),%rax
    a2ce:	48 89 85 68 f9 ff ff 	mov    %rax,-0x698(%rbp)
    a2d5:	48 c7 85 70 f9 ff ff 	movq   $0x0,-0x690(%rbp)
    a2dc:	00 00 00 00 
    a2e0:	48 8d 85 e4 f1 ff ff 	lea    -0xe1c(%rbp),%rax
    a2e7:	48 89 85 78 f9 ff ff 	mov    %rax,-0x688(%rbp)
    a2ee:	48 8d 85 e8 f1 ff ff 	lea    -0xe18(%rbp),%rax
    a2f5:	48 89 85 80 f9 ff ff 	mov    %rax,-0x680(%rbp)
    a2fc:	48 8d 85 e8 f1 ff ff 	lea    -0xe18(%rbp),%rax
    a303:	48 89 85 88 f9 ff ff 	mov    %rax,-0x678(%rbp)
    a30a:	c7 85 04 f2 ff ff 03 	movl   $0x3,-0xdfc(%rbp)
    a311:	00 00 00 
    a314:	48 c7 85 28 f2 ff ff 	movq   $0x0,-0xdd8(%rbp)
    a31b:	00 00 00 00 
    a31f:	c7 85 f8 f1 ff ff 00 	movl   $0x0,-0xe08(%rbp)
    a326:	00 00 00 
    a329:	eb 6d                	jmp    a398 <func_4+0x14ab>
    a32b:	c7 85 fc f1 ff ff 00 	movl   $0x0,-0xe04(%rbp)
    a332:	00 00 00 
    a335:	eb 51                	jmp    a388 <func_4+0x149b>
    a337:	c7 85 00 f2 ff ff 00 	movl   $0x0,-0xe00(%rbp)
    a33e:	00 00 00 
    a341:	eb 35                	jmp    a378 <func_4+0x148b>
    a343:	8b 85 00 f2 ff ff    	mov    -0xe00(%rbp),%eax
    a349:	48 98                	cltq   
    a34b:	8b 95 f8 f1 ff ff    	mov    -0xe08(%rbp),%edx
    a351:	48 63 ca             	movslq %edx,%rcx
    a354:	8b 95 fc f1 ff ff    	mov    -0xe04(%rbp),%edx
    a35a:	48 63 d2             	movslq %edx,%rdx
    a35d:	48 01 ca             	add    %rcx,%rdx
    a360:	48 c1 e2 03          	shl    $0x3,%rdx
    a364:	48 01 d0             	add    %rdx,%rax
    a367:	66 c7 84 45 50 f2 ff 	movw   $0x4d52,-0xdb0(%rbp,%rax,2)
    a36e:	ff 52 4d 
    a371:	83 85 00 f2 ff ff 01 	addl   $0x1,-0xe00(%rbp)
    a378:	83 bd 00 f2 ff ff 07 	cmpl   $0x7,-0xe00(%rbp)
    a37f:	7e c2                	jle    a343 <func_4+0x1456>
    a381:	83 85 fc f1 ff ff 01 	addl   $0x1,-0xe04(%rbp)
    a388:	83 bd fc f1 ff ff 00 	cmpl   $0x0,-0xe04(%rbp)
    a38f:	7e a6                	jle    a337 <func_4+0x144a>
    a391:	83 85 f8 f1 ff ff 01 	addl   $0x1,-0xe08(%rbp)
    a398:	83 bd f8 f1 ff ff 01 	cmpl   $0x1,-0xe08(%rbp)
    a39f:	7e 8a                	jle    a32b <func_4+0x143e>
    a3a1:	c7 85 f8 f1 ff ff 00 	movl   $0x0,-0xe08(%rbp)
    a3a8:	00 00 00 
    a3ab:	eb 1b                	jmp    a3c8 <func_4+0x14db>
    a3ad:	8b 85 f8 f1 ff ff    	mov    -0xe08(%rbp),%eax
    a3b3:	48 98                	cltq   
    a3b5:	48 c7 84 c5 70 f2 ff 	movq   $0x0,-0xd90(%rbp,%rax,8)
    a3bc:	ff 00 00 00 00 
    a3c1:	83 85 f8 f1 ff ff 01 	addl   $0x1,-0xe08(%rbp)
    a3c8:	83 bd f8 f1 ff ff 03 	cmpl   $0x3,-0xe08(%rbp)
    a3cf:	7e dc                	jle    a3ad <func_4+0x14c0>
    a3d1:	48 8b 05 a0 6d 01 00 	mov    0x16da0(%rip),%rax        # 21178 <g_112>
    a3d8:	48 8d 50 01          	lea    0x1(%rax),%rdx
    a3dc:	48 89 15 95 6d 01 00 	mov    %rdx,0x16d95(%rip)        # 21178 <g_112>
    a3e3:	89 85 e8 f1 ff ff    	mov    %eax,-0xe18(%rbp)
    a3e9:	8b 85 cc f1 ff ff    	mov    -0xe34(%rbp),%eax
    a3ef:	0f b7 d8             	movzwl %ax,%ebx
    a3f2:	44 8b a5 e4 f1 ff ff 	mov    -0xe1c(%rbp),%r12d
    a3f9:	44 8b ad cc f1 ff ff 	mov    -0xe34(%rbp),%r13d
    a400:	66 0f be 85 db f1 ff 	movsbw -0xe25(%rbp),%ax
    a407:	ff 
    a408:	44 0f b7 f0          	movzwl %ax,%r14d
    a40c:	48 8b 05 95 96 01 00 	mov    0x19695(%rip),%rax        # 23aa8 <g_1546>
    a413:	48 8b 00             	mov    (%rax),%rax
    a416:	48 85 c0             	test   %rax,%rax
    a419:	0f 95 c0             	setne  %al
    a41c:	0f b6 d0             	movzbl %al,%edx
    a41f:	48 8b 05 5a 96 01 00 	mov    0x1965a(%rip),%rax        # 23a80 <g_1409>
    a426:	0f b7 08             	movzwl (%rax),%ecx
    a429:	83 c1 01             	add    $0x1,%ecx
    a42c:	66 89 08             	mov    %cx,(%rax)
    a42f:	0f b7 00             	movzwl (%rax),%eax
    a432:	0f b7 c0             	movzwl %ax,%eax
    a435:	89 d6                	mov    %edx,%esi
    a437:	89 c7                	mov    %eax,%edi
    a439:	e8 e1 d8 ff ff       	callq  7d1f <safe_sub_func_uint16_t_u_u>
    a43e:	66 85 c0             	test   %ax,%ax
    a441:	74 07                	je     a44a <func_4+0x155d>
    a443:	b8 01 00 00 00       	mov    $0x1,%eax
    a448:	eb 05                	jmp    a44f <func_4+0x1562>
    a44a:	b8 00 00 00 00       	mov    $0x0,%eax
    a44f:	89 c6                	mov    %eax,%esi
    a451:	bf f7 ff ff ff       	mov    $0xfffffff7,%edi
    a456:	e8 11 cf ff ff       	callq  736c <safe_rshift_func_int8_t_s_u>
    a45b:	0f b7 85 de f1 ff ff 	movzwl -0xe22(%rbp),%eax
    a462:	0f b7 c0             	movzwl %ax,%eax
    a465:	44 89 f6             	mov    %r14d,%esi
    a468:	89 c7                	mov    %eax,%edi
    a46a:	e8 b0 d8 ff ff       	callq  7d1f <safe_sub_func_uint16_t_u_u>
    a46f:	66 85 c0             	test   %ax,%ax
    a472:	0f 95 c0             	setne  %al
    a475:	0f b6 d0             	movzbl %al,%edx
    a478:	48 8b 05 59 98 01 00 	mov    0x19859(%rip),%rax        # 23cd8 <g_2301>
    a47f:	48 8b 00             	mov    (%rax),%rax
    a482:	48 8b 00             	mov    (%rax),%rax
    a485:	48 8b 08             	mov    (%rax),%rcx
    a488:	48 63 d2             	movslq %edx,%rdx
    a48b:	48 31 ca             	xor    %rcx,%rdx
    a48e:	48 89 10             	mov    %rdx,(%rax)
    a491:	48 8b 10             	mov    (%rax),%rdx
    a494:	0f b7 85 e2 f1 ff ff 	movzwl -0xe1e(%rbp),%eax
    a49b:	48 09 d0             	or     %rdx,%rax
    a49e:	4c 89 ee             	mov    %r13,%rsi
    a4a1:	48 89 c7             	mov    %rax,%rdi
    a4a4:	e8 0b d5 ff ff       	callq  79b4 <safe_mod_func_int64_t_s_s>
    a4a9:	8b 95 cc f1 ff ff    	mov    -0xe34(%rbp),%edx
    a4af:	48 39 d0             	cmp    %rdx,%rax
    a4b2:	0f 9e c0             	setle  %al
    a4b5:	0f b6 d0             	movzbl %al,%edx
    a4b8:	8b 85 cc f1 ff ff    	mov    -0xe34(%rbp),%eax
    a4be:	0f b7 c0             	movzwl %ax,%eax
    a4c1:	89 d6                	mov    %edx,%esi
    a4c3:	89 c7                	mov    %eax,%edi
    a4c5:	e8 35 d8 ff ff       	callq  7cff <safe_add_func_uint16_t_u_u>
    a4ca:	89 c2                	mov    %eax,%edx
    a4cc:	48 8b 05 c5 99 01 00 	mov    0x199c5(%rip),%rax        # 23e98 <g_2358>
    a4d3:	48 8b 00             	mov    (%rax),%rax
    a4d6:	48 8b 00             	mov    (%rax),%rax
    a4d9:	48 8b 00             	mov    (%rax),%rax
    a4dc:	0f b7 d2             	movzwl %dx,%edx
    a4df:	89 10                	mov    %edx,(%rax)
    a4e1:	c7 85 ec f1 ff ff 01 	movl   $0x1,-0xe14(%rbp)
    a4e8:	00 00 00 
    a4eb:	83 bd cc f1 ff ff 00 	cmpl   $0x0,-0xe34(%rbp)
    a4f2:	74 07                	je     a4fb <func_4+0x160e>
    a4f4:	b8 01 00 00 00       	mov    $0x1,%eax
    a4f9:	eb 05                	jmp    a500 <func_4+0x1613>
    a4fb:	b8 00 00 00 00       	mov    $0x0,%eax
    a500:	98                   	cwtl   
    a501:	89 c7                	mov    %eax,%edi
    a503:	e8 95 ce ff ff       	callq  739d <safe_unary_minus_func_int16_t_s>
    a508:	0f bf d0             	movswl %ax,%edx
    a50b:	8b 85 f0 f1 ff ff    	mov    -0xe10(%rbp),%eax
    a511:	39 c2                	cmp    %eax,%edx
    a513:	0f 9f c0             	setg   %al
    a516:	0f b6 c0             	movzbl %al,%eax
    a519:	23 85 cc f1 ff ff    	and    -0xe34(%rbp),%eax
    a51f:	8b 95 e4 f1 ff ff    	mov    -0xe1c(%rbp),%edx
    a525:	39 d0                	cmp    %edx,%eax
    a527:	0f 93 c0             	setae  %al
    a52a:	0f b6 d0             	movzbl %al,%edx
    a52d:	8b 85 cc f1 ff ff    	mov    -0xe34(%rbp),%eax
    a533:	89 d6                	mov    %edx,%esi
    a535:	89 c7                	mov    %eax,%edi
    a537:	e8 94 d9 ff ff       	callq  7ed0 <safe_sub_func_uint32_t_u_u>
    a53c:	8b 85 cc f1 ff ff    	mov    -0xe34(%rbp),%eax
    a542:	0f be c0             	movsbl %al,%eax
    a545:	be 07 00 00 00       	mov    $0x7,%esi
    a54a:	89 c7                	mov    %eax,%edi
    a54c:	e8 50 cd ff ff       	callq  72a1 <safe_lshift_func_int8_t_s_s>
    a551:	66 0f be d0          	movsbw %al,%dx
    a555:	0f b7 85 7c f4 ff ff 	movzwl -0xb84(%rbp),%eax
    a55c:	66 39 c2             	cmp    %ax,%dx
    a55f:	0f 9f c0             	setg   %al
    a562:	0f b6 c0             	movzbl %al,%eax
    a565:	44 89 e6             	mov    %r12d,%esi
    a568:	89 c7                	mov    %eax,%edi
    a56a:	e8 96 d6 ff ff       	callq  7c05 <safe_lshift_func_uint8_t_u_s>
    a56f:	0f b6 c0             	movzbl %al,%eax
    a572:	89 de                	mov    %ebx,%esi
    a574:	89 c7                	mov    %eax,%edi
    a576:	e8 e1 d7 ff ff       	callq  7d5c <safe_mod_func_uint16_t_u_u>
    a57b:	8b 85 cc f1 ff ff    	mov    -0xe34(%rbp),%eax
    a581:	0f b6 c0             	movzbl %al,%eax
    a584:	be 03 00 00 00       	mov    $0x3,%esi
    a589:	89 c7                	mov    %eax,%edi
    a58b:	e8 fd d6 ff ff       	callq  7c8d <safe_rshift_func_uint8_t_u_s>
    a590:	8b 85 04 f2 ff ff    	mov    -0xdfc(%rbp),%eax
    a596:	48 63 d0             	movslq %eax,%rdx
    a599:	48 8b 85 60 f3 ff ff 	mov    -0xca0(%rbp),%rax
    a5a0:	48 39 c2             	cmp    %rax,%rdx
    a5a3:	0f 9e c2             	setle  %dl
    a5a6:	48 8b 05 73 97 01 00 	mov    0x19773(%rip),%rax        # 23d20 <g_2306>
    a5ad:	48 8b 00             	mov    (%rax),%rax
    a5b0:	48 8b 00             	mov    (%rax),%rax
    a5b3:	48 8b 00             	mov    (%rax),%rax
    a5b6:	0f b6 d2             	movzbl %dl,%edx
    a5b9:	89 10                	mov    %edx,(%rax)
    a5bb:	0f be 9d db f1 ff ff 	movsbl -0xe25(%rbp),%ebx
    a5c2:	48 8b 05 37 97 01 00 	mov    0x19737(%rip),%rax        # 23d00 <g_2299>
    a5c9:	48 8b 00             	mov    (%rax),%rax
    a5cc:	48 8b 00             	mov    (%rax),%rax
    a5cf:	48 8b 00             	mov    (%rax),%rax
    a5d2:	48 8b 00             	mov    (%rax),%rax
    a5d5:	48 8b 00             	mov    (%rax),%rax
    a5d8:	49 89 c4             	mov    %rax,%r12
    a5db:	48 8b 85 60 f3 ff ff 	mov    -0xca0(%rbp),%rax
    a5e2:	41 89 c5             	mov    %eax,%r13d
    a5e5:	0f b7 85 58 f2 ff ff 	movzwl -0xda8(%rbp),%eax
    a5ec:	66 85 c0             	test   %ax,%ax
    a5ef:	0f 95 c0             	setne  %al
    a5f2:	0f b6 c0             	movzbl %al,%eax
    a5f5:	89 85 e8 f1 ff ff    	mov    %eax,-0xe18(%rbp)
    a5fb:	8b 85 e8 f1 ff ff    	mov    -0xe18(%rbp),%eax
    a601:	0f b6 c0             	movzbl %al,%eax
    a604:	be 02 00 00 00       	mov    $0x2,%esi
    a609:	89 c7                	mov    %eax,%edi
    a60b:	e8 cb d5 ff ff       	callq  7bdb <safe_div_func_uint8_t_u_u>
    a610:	0f bf 85 e0 f1 ff ff 	movswl -0xe20(%rbp),%eax
    a617:	0d df 1a d8 09       	or     $0x9d81adf,%eax
    a61c:	89 c2                	mov    %eax,%edx
    a61e:	8b 85 cc f1 ff ff    	mov    -0xe34(%rbp),%eax
    a624:	98                   	cwtl   
    a625:	89 d6                	mov    %edx,%esi
    a627:	89 c7                	mov    %eax,%edi
    a629:	e8 35 cf ff ff       	callq  7563 <safe_rshift_func_int16_t_s_u>
    a62e:	8b 05 6c 33 01 00    	mov    0x1336c(%rip),%eax        # 1d9a0 <l_2897.4197>
    a634:	39 85 cc f1 ff ff    	cmp    %eax,-0xe34(%rbp)
    a63a:	0f 92 c0             	setb   %al
    a63d:	0f b6 d0             	movzbl %al,%edx
    a640:	48 8b 85 78 f3 ff ff 	mov    -0xc88(%rbp),%rax
    a647:	98                   	cwtl   
    a648:	89 d6                	mov    %edx,%esi
    a64a:	89 c7                	mov    %eax,%edi
    a64c:	e8 62 cd ff ff       	callq  73b3 <safe_add_func_int16_t_s_s>
    a651:	0f be c0             	movsbl %al,%eax
    a654:	89 c6                	mov    %eax,%esi
    a656:	bf 3a 00 00 00       	mov    $0x3a,%edi
    a65b:	e8 b2 cb ff ff       	callq  7212 <safe_mul_func_int8_t_s_s>
    a660:	0f be c0             	movsbl %al,%eax
    a663:	39 85 cc f1 ff ff    	cmp    %eax,-0xe34(%rbp)
    a669:	8b 85 cc f1 ff ff    	mov    -0xe34(%rbp),%eax
    a66f:	0f be c0             	movsbl %al,%eax
    a672:	44 89 ee             	mov    %r13d,%esi
    a675:	89 c7                	mov    %eax,%edi
    a677:	e8 f0 cc ff ff       	callq  736c <safe_rshift_func_int8_t_s_u>
    a67c:	8b 85 cc f1 ff ff    	mov    -0xe34(%rbp),%eax
    a682:	4c 89 e6             	mov    %r12,%rsi
    a685:	48 89 c7             	mov    %rax,%rdi
    a688:	e8 be d9 ff ff       	callq  804b <safe_sub_func_uint64_t_u_u>
    a68d:	8b 95 cc f1 ff ff    	mov    -0xe34(%rbp),%edx
    a693:	48 39 d0             	cmp    %rdx,%rax
    a696:	73 07                	jae    a69f <func_4+0x17b2>
    a698:	b8 01 00 00 00       	mov    $0x1,%eax
    a69d:	eb 05                	jmp    a6a4 <func_4+0x17b7>
    a69f:	b8 00 00 00 00       	mov    $0x0,%eax
    a6a4:	39 d8                	cmp    %ebx,%eax
    a6a6:	0f 9f c0             	setg   %al
    a6a9:	0f b6 d0             	movzbl %al,%edx
    a6ac:	8b 85 e4 f1 ff ff    	mov    -0xe1c(%rbp),%eax
    a6b2:	09 d0                	or     %edx,%eax
    a6b4:	89 85 e4 f1 ff ff    	mov    %eax,-0xe1c(%rbp)
    a6ba:	48 8b 05 a7 9a 01 00 	mov    0x19aa7(%rip),%rax        # 24168 <g_2999>
    a6c1:	48 8d 95 e4 f1 ff ff 	lea    -0xe1c(%rbp),%rdx
    a6c8:	48 89 10             	mov    %rdx,(%rax)
    a6cb:	0f b7 05 1e 6b 01 00 	movzwl 0x16b1e(%rip),%eax        # 211f0 <g_976>
    a6d2:	83 c0 01             	add    $0x1,%eax
    a6d5:	66 89 05 14 6b 01 00 	mov    %ax,0x16b14(%rip)        # 211f0 <g_976>
    a6dc:	0f b7 05 0d 6b 01 00 	movzwl 0x16b0d(%rip),%eax        # 211f0 <g_976>
    a6e3:	66 83 f8 24          	cmp    $0x24,%ax
    a6e7:	0f 87 3d f3 ff ff    	ja     9a2a <func_4+0xb3d>
    a6ed:	0f b7 05 c0 6a 01 00 	movzwl 0x16ac0(%rip),%eax        # 211b4 <g_465>
    a6f4:	83 c0 01             	add    $0x1,%eax
    a6f7:	66 89 05 b6 6a 01 00 	mov    %ax,0x16ab6(%rip)        # 211b4 <g_465>
    a6fe:	0f b7 05 af 6a 01 00 	movzwl 0x16aaf(%rip),%eax        # 211b4 <g_465>
    a705:	66 83 f8 27          	cmp    $0x27,%ax
    a709:	0f 87 26 e9 ff ff    	ja     9035 <func_4+0x148>
    a70f:	eb 01                	jmp    a712 <func_4+0x1825>
    a711:	90                   	nop
    a712:	8b 85 e4 f1 ff ff    	mov    -0xe1c(%rbp),%eax
    a718:	48 98                	cltq   
    a71a:	48 8b 5d d8          	mov    -0x28(%rbp),%rbx
    a71e:	64 48 33 1c 25 28 00 	xor    %fs:0x28,%rbx
    a725:	00 00 
    a727:	74 05                	je     a72e <func_4+0x1841>
    a729:	e8 42 c9 ff ff       	callq  7070 <__stack_chk_fail@plt>
    a72e:	48 81 c4 20 0e 00 00 	add    $0xe20,%rsp
    a735:	5b                   	pop    %rbx
    a736:	41 5c                	pop    %r12
    a738:	41 5d                	pop    %r13
    a73a:	41 5e                	pop    %r14
    a73c:	5d                   	pop    %rbp
    a73d:	c3                   	retq   

000000000000a73e <func_6>:
    a73e:	f3 0f 1e fa          	endbr64 
    a742:	55                   	push   %rbp
    a743:	48 89 e5             	mov    %rsp,%rbp
    a746:	41 57                	push   %r15
    a748:	41 56                	push   %r14
    a74a:	41 55                	push   %r13
    a74c:	41 54                	push   %r12
    a74e:	53                   	push   %rbx
    a74f:	48 81 ec 00 10 00 00 	sub    $0x1000,%rsp
    a756:	48 83 0c 24 00       	orq    $0x0,(%rsp)
    a75b:	48 81 ec 38 02 00 00 	sub    $0x238,%rsp
    a762:	89 bd bc ed ff ff    	mov    %edi,-0x1244(%rbp)
    a768:	89 f0                	mov    %esi,%eax
    a76a:	88 85 b8 ed ff ff    	mov    %al,-0x1248(%rbp)
    a770:	64 48 8b 04 25 28 00 	mov    %fs:0x28,%rax
    a777:	00 00 
    a779:	48 89 45 c8          	mov    %rax,-0x38(%rbp)
    a77d:	31 c0                	xor    %eax,%eax
    a77f:	c7 85 10 f1 ff ff 54 	movl   $0xcbcef054,-0xef0(%rbp)
    a786:	f0 ce cb 
    a789:	c7 85 14 f1 ff ff 00 	movl   $0x0,-0xeec(%rbp)
    a790:	00 00 00 
    a793:	c7 85 18 f1 ff ff 01 	movl   $0x1,-0xee8(%rbp)
    a79a:	00 00 00 
    a79d:	c7 85 1c f1 ff ff 00 	movl   $0x0,-0xee4(%rbp)
    a7a4:	00 00 00 
    a7a7:	c7 85 20 f1 ff ff 00 	movl   $0x0,-0xee0(%rbp)
    a7ae:	00 00 00 
    a7b1:	c7 85 24 f1 ff ff 00 	movl   $0x0,-0xedc(%rbp)
    a7b8:	00 00 00 
    a7bb:	c7 85 28 f1 ff ff ff 	movl   $0xffffffff,-0xed8(%rbp)
    a7c2:	ff ff ff 
    a7c5:	c7 85 2c f1 ff ff 9d 	movl   $0xbb4aad9d,-0xed4(%rbp)
    a7cc:	ad 4a bb 
    a7cf:	c7 85 30 f1 ff ff 01 	movl   $0x1,-0xed0(%rbp)
    a7d6:	00 00 00 
    a7d9:	c7 85 34 f1 ff ff ff 	movl   $0xffffffff,-0xecc(%rbp)
    a7e0:	ff ff ff 
    a7e3:	c7 85 38 f1 ff ff 86 	movl   $0x4b03e386,-0xec8(%rbp)
    a7ea:	e3 03 4b 
    a7ed:	c7 85 3c f1 ff ff 54 	movl   $0xcbcef054,-0xec4(%rbp)
    a7f4:	f0 ce cb 
    a7f7:	c7 85 40 f1 ff ff 00 	movl   $0x0,-0xec0(%rbp)
    a7fe:	00 00 00 
    a801:	c7 85 44 f1 ff ff 9d 	movl   $0xbb4aad9d,-0xebc(%rbp)
    a808:	ad 4a bb 
    a80b:	c7 85 48 f1 ff ff 54 	movl   $0xcbcef054,-0xeb8(%rbp)
    a812:	f0 ce cb 
    a815:	c7 85 4c f1 ff ff 54 	movl   $0xcbcef054,-0xeb4(%rbp)
    a81c:	f0 ce cb 
    a81f:	c7 85 50 f1 ff ff 00 	movl   $0x0,-0xeb0(%rbp)
    a826:	00 00 00 
    a829:	c7 85 54 f1 ff ff 01 	movl   $0x1,-0xeac(%rbp)
    a830:	00 00 00 
    a833:	c7 85 58 f1 ff ff 00 	movl   $0x0,-0xea8(%rbp)
    a83a:	00 00 00 
    a83d:	c7 85 5c f1 ff ff 00 	movl   $0x0,-0xea4(%rbp)
    a844:	00 00 00 
    a847:	c7 85 60 f1 ff ff 00 	movl   $0x0,-0xea0(%rbp)
    a84e:	00 00 00 
    a851:	c7 85 64 f1 ff ff ff 	movl   $0xffffffff,-0xe9c(%rbp)
    a858:	ff ff ff 
    a85b:	c7 85 68 f1 ff ff 9d 	movl   $0xbb4aad9d,-0xe98(%rbp)
    a862:	ad 4a bb 
    a865:	c7 85 6c f1 ff ff 01 	movl   $0x1,-0xe94(%rbp)
    a86c:	00 00 00 
    a86f:	c7 85 70 f1 ff ff ff 	movl   $0xffffffff,-0xe90(%rbp)
    a876:	ff ff ff 
    a879:	c7 85 74 f1 ff ff 86 	movl   $0x4b03e386,-0xe8c(%rbp)
    a880:	e3 03 4b 
    a883:	c7 85 78 f1 ff ff 54 	movl   $0xcbcef054,-0xe88(%rbp)
    a88a:	f0 ce cb 
    a88d:	c7 85 7c f1 ff ff 00 	movl   $0x0,-0xe84(%rbp)
    a894:	00 00 00 
    a897:	c7 85 80 f1 ff ff 9d 	movl   $0xbb4aad9d,-0xe80(%rbp)
    a89e:	ad 4a bb 
    a8a1:	c7 85 84 f1 ff ff 54 	movl   $0xcbcef054,-0xe7c(%rbp)
    a8a8:	f0 ce cb 
    a8ab:	48 8d 05 82 67 01 00 	lea    0x16782(%rip),%rax        # 21034 <g_25>
    a8b2:	48 89 85 d8 ee ff ff 	mov    %rax,-0x1128(%rbp)
    a8b9:	c7 85 dc ed ff ff fa 	movl   $0xfffffffa,-0x1224(%rbp)
    a8c0:	ff ff ff 
    a8c3:	48 8d 05 86 8f 01 00 	lea    0x18f86(%rip),%rax        # 23850 <g_408>
    a8ca:	48 89 85 e0 ee ff ff 	mov    %rax,-0x1120(%rbp)
    a8d1:	66 c7 85 ce ed ff ff 	movw   $0xaf1e,-0x1232(%rbp)
    a8d8:	1e af 
    a8da:	48 8d 85 00 f9 ff ff 	lea    -0x700(%rbp),%rax
    a8e1:	48 8d 15 d8 71 01 00 	lea    0x171d8(%rip),%rdx        # 21ac0 <g_3045+0x65c>
    a8e8:	b9 d8 00 00 00       	mov    $0xd8,%ecx
    a8ed:	48 89 c7             	mov    %rax,%rdi
    a8f0:	48 89 d6             	mov    %rdx,%rsi
    a8f3:	f3 48 a5             	rep movsq %ds:(%rsi),%es:(%rdi)
    a8f6:	48 c7 85 e8 ee ff ff 	movq   $0x0,-0x1118(%rbp)
    a8fd:	00 00 00 00 
    a901:	c6 85 cb ed ff ff 01 	movb   $0x1,-0x1235(%rbp)
    a908:	48 c7 85 f0 ee ff ff 	movq   $0x0,-0x1110(%rbp)
    a90f:	00 00 00 00 
    a913:	48 8d 05 8a 69 01 00 	lea    0x1698a(%rip),%rax        # 212a4 <g_2159>
    a91a:	48 89 85 68 ee ff ff 	mov    %rax,-0x1198(%rbp)
    a921:	c7 85 00 ee ff ff fa 	movl   $0x4be085fa,-0x1200(%rbp)
    a928:	85 e0 4b 
    a92b:	66 c7 85 d0 ed ff ff 	movw   $0xffff,-0x1230(%rbp)
    a932:	ff ff 
    a934:	c7 85 04 ee ff ff 64 	movl   $0x2f9e764,-0x11fc(%rbp)
    a93b:	e7 f9 02 
    a93e:	48 c7 85 70 ee ff ff 	movq   $0x0,-0x1190(%rbp)
    a945:	00 00 00 00 
    a949:	48 8d 85 70 ee ff ff 	lea    -0x1190(%rbp),%rax
    a950:	48 89 85 f8 ee ff ff 	mov    %rax,-0x1108(%rbp)
    a957:	c7 85 e4 ed ff ff 00 	movl   $0x0,-0x121c(%rbp)
    a95e:	00 00 00 
    a961:	eb 1e                	jmp    a981 <func_6+0x243>
    a963:	8b 85 e4 ed ff ff    	mov    -0x121c(%rbp),%eax
    a969:	48 98                	cltq   
    a96b:	48 8d 15 96 68 01 00 	lea    0x16896(%rip),%rdx        # 21208 <g_1489>
    a972:	48 89 94 c5 30 f0 ff 	mov    %rdx,-0xfd0(%rbp,%rax,8)
    a979:	ff 
    a97a:	83 85 e4 ed ff ff 01 	addl   $0x1,-0x121c(%rbp)
    a981:	83 bd e4 ed ff ff 02 	cmpl   $0x2,-0x121c(%rbp)
    a988:	7e d9                	jle    a963 <func_6+0x225>
    a98a:	c7 85 bc ed ff ff 00 	movl   $0x0,-0x1244(%rbp)
    a991:	00 00 00 
    a994:	83 bd bc ed ff ff 02 	cmpl   $0x2,-0x1244(%rbp)
    a99b:	0f 8f c5 0b 00 00    	jg     b566 <func_6+0xe28>
    a9a1:	66 c7 85 d8 ed ff ff 	movw   $0x1,-0x1228(%rbp)
    a9a8:	01 00 
    a9aa:	c7 85 e0 ed ff ff ff 	movl   $0xffffffff,-0x1220(%rbp)
    a9b1:	ff ff ff 
    a9b4:	c6 85 ca ed ff ff f7 	movb   $0xf7,-0x1236(%rbp)
    a9bb:	48 8d 05 be 94 01 00 	lea    0x194be(%rip),%rax        # 23e80 <g_2361>
    a9c2:	48 89 85 d0 ee ff ff 	mov    %rax,-0x1130(%rbp)
    a9c9:	48 8d 85 d0 ee ff ff 	lea    -0x1130(%rbp),%rax
    a9d0:	48 89 85 d0 f2 ff ff 	mov    %rax,-0xd30(%rbp)
    a9d7:	48 8d 85 d0 ee ff ff 	lea    -0x1130(%rbp),%rax
    a9de:	48 89 85 d8 f2 ff ff 	mov    %rax,-0xd28(%rbp)
    a9e5:	48 8d 85 d0 ee ff ff 	lea    -0x1130(%rbp),%rax
    a9ec:	48 89 85 e0 f2 ff ff 	mov    %rax,-0xd20(%rbp)
    a9f3:	48 8d 85 d0 ee ff ff 	lea    -0x1130(%rbp),%rax
    a9fa:	48 89 85 e8 f2 ff ff 	mov    %rax,-0xd18(%rbp)
    aa01:	48 8d 85 d0 ee ff ff 	lea    -0x1130(%rbp),%rax
    aa08:	48 89 85 f0 f2 ff ff 	mov    %rax,-0xd10(%rbp)
    aa0f:	48 8d 85 d0 ee ff ff 	lea    -0x1130(%rbp),%rax
    aa16:	48 89 85 f8 f2 ff ff 	mov    %rax,-0xd08(%rbp)
    aa1d:	48 8d 85 d0 ee ff ff 	lea    -0x1130(%rbp),%rax
    aa24:	48 89 85 00 f3 ff ff 	mov    %rax,-0xd00(%rbp)
    aa2b:	48 8d 85 d0 ee ff ff 	lea    -0x1130(%rbp),%rax
    aa32:	48 89 85 08 f3 ff ff 	mov    %rax,-0xcf8(%rbp)
    aa39:	48 8d 85 d0 ee ff ff 	lea    -0x1130(%rbp),%rax
    aa40:	48 89 85 10 f3 ff ff 	mov    %rax,-0xcf0(%rbp)
    aa47:	48 8d 85 d0 ee ff ff 	lea    -0x1130(%rbp),%rax
    aa4e:	48 89 85 18 f3 ff ff 	mov    %rax,-0xce8(%rbp)
    aa55:	48 8d 85 d0 ee ff ff 	lea    -0x1130(%rbp),%rax
    aa5c:	48 89 85 20 f3 ff ff 	mov    %rax,-0xce0(%rbp)
    aa63:	48 8d 85 d0 ee ff ff 	lea    -0x1130(%rbp),%rax
    aa6a:	48 89 85 28 f3 ff ff 	mov    %rax,-0xcd8(%rbp)
    aa71:	48 8d 85 d0 ee ff ff 	lea    -0x1130(%rbp),%rax
    aa78:	48 89 85 30 f3 ff ff 	mov    %rax,-0xcd0(%rbp)
    aa7f:	48 8d 85 d0 ee ff ff 	lea    -0x1130(%rbp),%rax
    aa86:	48 89 85 38 f3 ff ff 	mov    %rax,-0xcc8(%rbp)
    aa8d:	48 8d 85 d0 ee ff ff 	lea    -0x1130(%rbp),%rax
    aa94:	48 89 85 40 f3 ff ff 	mov    %rax,-0xcc0(%rbp)
    aa9b:	48 8d 85 d0 ee ff ff 	lea    -0x1130(%rbp),%rax
    aaa2:	48 89 85 48 f3 ff ff 	mov    %rax,-0xcb8(%rbp)
    aaa9:	48 8d 85 d0 ee ff ff 	lea    -0x1130(%rbp),%rax
    aab0:	48 89 85 50 f3 ff ff 	mov    %rax,-0xcb0(%rbp)
    aab7:	48 8d 85 d0 ee ff ff 	lea    -0x1130(%rbp),%rax
    aabe:	48 89 85 58 f3 ff ff 	mov    %rax,-0xca8(%rbp)
    aac5:	48 8d 85 d0 ee ff ff 	lea    -0x1130(%rbp),%rax
    aacc:	48 89 85 60 f3 ff ff 	mov    %rax,-0xca0(%rbp)
    aad3:	48 8d 85 d0 ee ff ff 	lea    -0x1130(%rbp),%rax
    aada:	48 89 85 68 f3 ff ff 	mov    %rax,-0xc98(%rbp)
    aae1:	48 8d 85 d0 ee ff ff 	lea    -0x1130(%rbp),%rax
    aae8:	48 89 85 70 f3 ff ff 	mov    %rax,-0xc90(%rbp)
    aaef:	48 8d 85 d0 ee ff ff 	lea    -0x1130(%rbp),%rax
    aaf6:	48 89 85 78 f3 ff ff 	mov    %rax,-0xc88(%rbp)
    aafd:	48 8d 85 d0 ee ff ff 	lea    -0x1130(%rbp),%rax
    ab04:	48 89 85 80 f3 ff ff 	mov    %rax,-0xc80(%rbp)
    ab0b:	48 8d 85 d0 ee ff ff 	lea    -0x1130(%rbp),%rax
    ab12:	48 89 85 88 f3 ff ff 	mov    %rax,-0xc78(%rbp)
    ab19:	48 8d 85 d0 ee ff ff 	lea    -0x1130(%rbp),%rax
    ab20:	48 89 85 90 f3 ff ff 	mov    %rax,-0xc70(%rbp)
    ab27:	48 8d 85 d0 ee ff ff 	lea    -0x1130(%rbp),%rax
    ab2e:	48 89 85 98 f3 ff ff 	mov    %rax,-0xc68(%rbp)
    ab35:	48 8d 85 d0 ee ff ff 	lea    -0x1130(%rbp),%rax
    ab3c:	48 89 85 a0 f3 ff ff 	mov    %rax,-0xc60(%rbp)
    ab43:	48 c7 85 a8 f3 ff ff 	movq   $0x0,-0xc58(%rbp)
    ab4a:	00 00 00 00 
    ab4e:	48 8d 85 d0 ee ff ff 	lea    -0x1130(%rbp),%rax
    ab55:	48 89 85 b0 f3 ff ff 	mov    %rax,-0xc50(%rbp)
    ab5c:	48 8d 85 d0 ee ff ff 	lea    -0x1130(%rbp),%rax
    ab63:	48 89 85 b8 f3 ff ff 	mov    %rax,-0xc48(%rbp)
    ab6a:	48 8d 85 d0 ee ff ff 	lea    -0x1130(%rbp),%rax
    ab71:	48 89 85 c0 f3 ff ff 	mov    %rax,-0xc40(%rbp)
    ab78:	48 c7 85 c8 f3 ff ff 	movq   $0x0,-0xc38(%rbp)
    ab7f:	00 00 00 00 
    ab83:	48 c7 85 d0 f3 ff ff 	movq   $0x0,-0xc30(%rbp)
    ab8a:	00 00 00 00 
    ab8e:	48 8d 85 d0 ee ff ff 	lea    -0x1130(%rbp),%rax
    ab95:	48 89 85 d8 f3 ff ff 	mov    %rax,-0xc28(%rbp)
    ab9c:	48 c7 85 e0 f3 ff ff 	movq   $0x0,-0xc20(%rbp)
    aba3:	00 00 00 00 
    aba7:	48 8d 85 d0 ee ff ff 	lea    -0x1130(%rbp),%rax
    abae:	48 89 85 e8 f3 ff ff 	mov    %rax,-0xc18(%rbp)
    abb5:	48 8d 85 d0 ee ff ff 	lea    -0x1130(%rbp),%rax
    abbc:	48 89 85 f0 f3 ff ff 	mov    %rax,-0xc10(%rbp)
    abc3:	48 8d 85 d0 ee ff ff 	lea    -0x1130(%rbp),%rax
    abca:	48 89 85 f8 f3 ff ff 	mov    %rax,-0xc08(%rbp)
    abd1:	48 c7 85 00 f4 ff ff 	movq   $0x0,-0xc00(%rbp)
    abd8:	00 00 00 00 
    abdc:	48 8d 85 d0 ee ff ff 	lea    -0x1130(%rbp),%rax
    abe3:	48 89 85 08 f4 ff ff 	mov    %rax,-0xbf8(%rbp)
    abea:	48 8d 85 d0 ee ff ff 	lea    -0x1130(%rbp),%rax
    abf1:	48 89 85 10 f4 ff ff 	mov    %rax,-0xbf0(%rbp)
    abf8:	48 c7 85 18 f4 ff ff 	movq   $0x0,-0xbe8(%rbp)
    abff:	00 00 00 00 
    ac03:	48 8d 85 d0 ee ff ff 	lea    -0x1130(%rbp),%rax
    ac0a:	48 89 85 20 f4 ff ff 	mov    %rax,-0xbe0(%rbp)
    ac11:	48 8d 85 d0 ee ff ff 	lea    -0x1130(%rbp),%rax
    ac18:	48 89 85 28 f4 ff ff 	mov    %rax,-0xbd8(%rbp)
    ac1f:	48 8d 85 d0 ee ff ff 	lea    -0x1130(%rbp),%rax
    ac26:	48 89 85 30 f4 ff ff 	mov    %rax,-0xbd0(%rbp)
    ac2d:	48 c7 85 38 f4 ff ff 	movq   $0x0,-0xbc8(%rbp)
    ac34:	00 00 00 00 
    ac38:	48 c7 85 40 f4 ff ff 	movq   $0x0,-0xbc0(%rbp)
    ac3f:	00 00 00 00 
    ac43:	48 8d 85 d0 ee ff ff 	lea    -0x1130(%rbp),%rax
    ac4a:	48 89 85 48 f4 ff ff 	mov    %rax,-0xbb8(%rbp)
    ac51:	48 8d 85 d0 ee ff ff 	lea    -0x1130(%rbp),%rax
    ac58:	48 89 85 50 f4 ff ff 	mov    %rax,-0xbb0(%rbp)
    ac5f:	48 8d 85 d0 ee ff ff 	lea    -0x1130(%rbp),%rax
    ac66:	48 89 85 58 f4 ff ff 	mov    %rax,-0xba8(%rbp)
    ac6d:	48 8d 85 d0 ee ff ff 	lea    -0x1130(%rbp),%rax
    ac74:	48 89 85 60 f4 ff ff 	mov    %rax,-0xba0(%rbp)
    ac7b:	48 8d 85 d0 ee ff ff 	lea    -0x1130(%rbp),%rax
    ac82:	48 89 85 68 f4 ff ff 	mov    %rax,-0xb98(%rbp)
    ac89:	48 8d 85 d0 ee ff ff 	lea    -0x1130(%rbp),%rax
    ac90:	48 89 85 70 f4 ff ff 	mov    %rax,-0xb90(%rbp)
    ac97:	48 8d 85 d0 ee ff ff 	lea    -0x1130(%rbp),%rax
    ac9e:	48 89 85 78 f4 ff ff 	mov    %rax,-0xb88(%rbp)
    aca5:	48 8d 85 d0 ee ff ff 	lea    -0x1130(%rbp),%rax
    acac:	48 89 85 80 f4 ff ff 	mov    %rax,-0xb80(%rbp)
    acb3:	48 8d 85 d0 ee ff ff 	lea    -0x1130(%rbp),%rax
    acba:	48 89 85 88 f4 ff ff 	mov    %rax,-0xb78(%rbp)
    acc1:	48 8d 85 d0 ee ff ff 	lea    -0x1130(%rbp),%rax
    acc8:	48 89 85 90 f4 ff ff 	mov    %rax,-0xb70(%rbp)
    accf:	48 8d 85 d0 ee ff ff 	lea    -0x1130(%rbp),%rax
    acd6:	48 89 85 98 f4 ff ff 	mov    %rax,-0xb68(%rbp)
    acdd:	48 8d 85 d0 ee ff ff 	lea    -0x1130(%rbp),%rax
    ace4:	48 89 85 a0 f4 ff ff 	mov    %rax,-0xb60(%rbp)
    aceb:	48 8d 85 d0 ee ff ff 	lea    -0x1130(%rbp),%rax
    acf2:	48 89 85 a8 f4 ff ff 	mov    %rax,-0xb58(%rbp)
    acf9:	48 8d 85 d0 ee ff ff 	lea    -0x1130(%rbp),%rax
    ad00:	48 89 85 b0 f4 ff ff 	mov    %rax,-0xb50(%rbp)
    ad07:	48 8d 85 d0 ee ff ff 	lea    -0x1130(%rbp),%rax
    ad0e:	48 89 85 b8 f4 ff ff 	mov    %rax,-0xb48(%rbp)
    ad15:	48 8d 85 d0 ee ff ff 	lea    -0x1130(%rbp),%rax
    ad1c:	48 89 85 c0 f4 ff ff 	mov    %rax,-0xb40(%rbp)
    ad23:	48 8d 85 d0 ee ff ff 	lea    -0x1130(%rbp),%rax
    ad2a:	48 89 85 c8 f4 ff ff 	mov    %rax,-0xb38(%rbp)
    ad31:	48 c7 85 d0 f4 ff ff 	movq   $0x0,-0xb30(%rbp)
    ad38:	00 00 00 00 
    ad3c:	48 8d 85 d0 ee ff ff 	lea    -0x1130(%rbp),%rax
    ad43:	48 89 85 d8 f4 ff ff 	mov    %rax,-0xb28(%rbp)
    ad4a:	48 8d 85 d0 ee ff ff 	lea    -0x1130(%rbp),%rax
    ad51:	48 89 85 e0 f4 ff ff 	mov    %rax,-0xb20(%rbp)
    ad58:	48 8d 85 d0 ee ff ff 	lea    -0x1130(%rbp),%rax
    ad5f:	48 89 85 e8 f4 ff ff 	mov    %rax,-0xb18(%rbp)
    ad66:	48 8d 85 d0 ee ff ff 	lea    -0x1130(%rbp),%rax
    ad6d:	48 89 85 f0 f4 ff ff 	mov    %rax,-0xb10(%rbp)
    ad74:	48 8d 85 d0 ee ff ff 	lea    -0x1130(%rbp),%rax
    ad7b:	48 89 85 f8 f4 ff ff 	mov    %rax,-0xb08(%rbp)
    ad82:	48 c7 85 00 f5 ff ff 	movq   $0x0,-0xb00(%rbp)
    ad89:	00 00 00 00 
    ad8d:	48 8d 85 d0 ee ff ff 	lea    -0x1130(%rbp),%rax
    ad94:	48 89 85 08 f5 ff ff 	mov    %rax,-0xaf8(%rbp)
    ad9b:	c7 85 24 ee ff ff 03 	movl   $0x3,-0x11dc(%rbp)
    ada2:	00 00 00 
    ada5:	c7 85 28 ee ff ff 24 	movl   $0x52f62424,-0x11d8(%rbp)
    adac:	24 f6 52 
    adaf:	c7 85 2c ee ff ff 74 	movl   $0x41b3be74,-0x11d4(%rbp)
    adb6:	be b3 41 
    adb9:	c7 85 30 ee ff ff 44 	movl   $0x6c8fc444,-0x11d0(%rbp)
    adc0:	c4 8f 6c 
    adc3:	c7 85 34 ee ff ff f6 	movl   $0xfffffff6,-0x11cc(%rbp)
    adca:	ff ff ff 
    adcd:	c7 85 38 ee ff ff d9 	movl   $0x1e27cad9,-0x11c8(%rbp)
    add4:	ca 27 1e 
    add7:	c7 85 3c ee ff ff 09 	movl   $0x9,-0x11c4(%rbp)
    adde:	00 00 00 
    ade1:	c7 85 40 ee ff ff 00 	movl   $0x0,-0x11c0(%rbp)
    ade8:	00 00 00 
    adeb:	c7 85 44 ee ff ff f7 	movl   $0xfffffff7,-0x11bc(%rbp)
    adf2:	ff ff ff 
    adf5:	c7 85 48 ee ff ff ff 	movl   $0xffffffff,-0x11b8(%rbp)
    adfc:	ff ff ff 
    adff:	48 c7 85 d0 f0 ff ff 	movq   $0x0,-0xf30(%rbp)
    ae06:	00 00 00 00 
    ae0a:	48 c7 85 d8 f0 ff ff 	movq   $0x0,-0xf28(%rbp)
    ae11:	00 00 00 00 
    ae15:	48 c7 85 e0 f0 ff ff 	movq   $0x0,-0xf20(%rbp)
    ae1c:	00 00 00 00 
    ae20:	48 c7 85 e8 f0 ff ff 	movq   $0x0,-0xf18(%rbp)
    ae27:	00 00 00 00 
    ae2b:	c7 85 f0 f0 ff ff 00 	movl   $0x0,-0xf10(%rbp)
    ae32:	00 00 00 
    ae35:	66 c7 85 da ed ff ff 	movw   $0xc3cf,-0x1226(%rbp)
    ae3c:	cf c3 
    ae3e:	c6 85 b8 ed ff ff 00 	movb   $0x0,-0x1248(%rbp)
    ae45:	e9 7d 01 00 00       	jmpq   afc7 <func_6+0x889>
    ae4a:	48 8d 85 10 f5 ff ff 	lea    -0xaf0(%rbp),%rax
    ae51:	48 8d 15 a8 07 01 00 	lea    0x107a8(%rip),%rdx        # 1b600 <g_2878+0x5a0>
    ae58:	b9 7e 00 00 00       	mov    $0x7e,%ecx
    ae5d:	48 89 c7             	mov    %rax,%rdi
    ae60:	48 89 d6             	mov    %rdx,%rsi
    ae63:	f3 48 a5             	rep movsq %ds:(%rsi),%es:(%rdi)
    ae66:	48 8d 05 c7 61 01 00 	lea    0x161c7(%rip),%rax        # 21034 <g_25>
    ae6d:	48 89 85 d8 ef ff ff 	mov    %rax,-0x1028(%rbp)
    ae74:	c7 85 60 ee ff ff 26 	movl   $0x35097e26,-0x11a0(%rbp)
    ae7b:	7e 09 35 
    ae7e:	c7 85 64 ee ff ff 00 	movl   $0x0,-0x119c(%rbp)
    ae85:	00 00 00 
    ae88:	c7 85 e8 ed ff ff 00 	movl   $0x0,-0x1218(%rbp)
    ae8f:	00 00 00 
    ae92:	eb 1b                	jmp    aeaf <func_6+0x771>
    ae94:	8b 85 e8 ed ff ff    	mov    -0x1218(%rbp),%eax
    ae9a:	48 98                	cltq   
    ae9c:	48 c7 84 c5 a0 f0 ff 	movq   $0x0,-0xf60(%rbp,%rax,8)
    aea3:	ff 00 00 00 00 
    aea8:	83 85 e8 ed ff ff 01 	addl   $0x1,-0x1218(%rbp)
    aeaf:	83 bd e8 ed ff ff 01 	cmpl   $0x1,-0x1218(%rbp)
    aeb6:	7e dc                	jle    ae94 <func_6+0x756>
    aeb8:	c7 05 62 61 01 00 02 	movl   $0x2,0x16162(%rip)        # 21024 <g_11>
    aebf:	00 00 00 
    aec2:	e9 e2 00 00 00       	jmpq   afa9 <func_6+0x86b>
    aec7:	48 8d 05 82 61 01 00 	lea    0x16182(%rip),%rax        # 21050 <g_79>
    aece:	48 89 85 e0 ef ff ff 	mov    %rax,-0x1020(%rbp)
    aed5:	48 c7 85 e8 ef ff ff 	movq   $0x0,-0x1018(%rbp)
    aedc:	00 00 00 00 
    aee0:	48 8d 05 69 61 01 00 	lea    0x16169(%rip),%rax        # 21050 <g_79>
    aee7:	48 89 85 f0 ef ff ff 	mov    %rax,-0x1010(%rbp)
    aeee:	48 8d 85 90 f1 ff ff 	lea    -0xe70(%rbp),%rax
    aef5:	48 8d 15 84 72 01 00 	lea    0x17284(%rip),%rdx        # 22180 <g_3045+0xd1c>
    aefc:	b9 28 00 00 00       	mov    $0x28,%ecx
    af01:	48 89 c7             	mov    %rax,%rdi
    af04:	48 89 d6             	mov    %rdx,%rsi
    af07:	f3 48 a5             	rep movsq %ds:(%rsi),%es:(%rdi)
    af0a:	c7 05 1c 61 01 00 02 	movl   $0x2,0x1611c(%rip)        # 21030 <g_14>
    af11:	00 00 00 
    af14:	eb 6a                	jmp    af80 <func_6+0x842>
    af16:	48 c7 85 f8 ef ff ff 	movq   $0x0,-0x1008(%rbp)
    af1d:	00 00 00 00 
    af21:	8b 05 fd 60 01 00    	mov    0x160fd(%rip),%eax        # 21024 <g_11>
    af27:	8d 50 03             	lea    0x3(%rax),%edx
    af2a:	8b 05 00 61 01 00    	mov    0x16100(%rip),%eax        # 21030 <g_14>
    af30:	8d 78 06             	lea    0x6(%rax),%edi
    af33:	8b 85 bc ed ff ff    	mov    -0x1244(%rbp),%eax
    af39:	48 63 c8             	movslq %eax,%rcx
    af3c:	48 63 d2             	movslq %edx,%rdx
    af3f:	48 89 d0             	mov    %rdx,%rax
    af42:	48 01 c0             	add    %rax,%rax
    af45:	48 01 d0             	add    %rdx,%rax
    af48:	48 01 c8             	add    %rcx,%rax
    af4b:	8b 8c 85 10 f1 ff ff 	mov    -0xef0(%rbp,%rax,4),%ecx
    af52:	8b 85 bc ed ff ff    	mov    -0x1244(%rbp),%eax
    af58:	48 63 f0             	movslq %eax,%rsi
    af5b:	48 63 d7             	movslq %edi,%rdx
    af5e:	48 89 d0             	mov    %rdx,%rax
    af61:	48 01 c0             	add    %rax,%rax
    af64:	48 01 d0             	add    %rdx,%rax
    af67:	48 01 f0             	add    %rsi,%rax
    af6a:	89 8c 85 10 f1 ff ff 	mov    %ecx,-0xef0(%rbp,%rax,4)
    af71:	8b 05 b9 60 01 00    	mov    0x160b9(%rip),%eax        # 21030 <g_14>
    af77:	83 e8 01             	sub    $0x1,%eax
    af7a:	89 05 b0 60 01 00    	mov    %eax,0x160b0(%rip)        # 21030 <g_14>
    af80:	8b 05 aa 60 01 00    	mov    0x160aa(%rip),%eax        # 21030 <g_14>
    af86:	85 c0                	test   %eax,%eax
    af88:	79 8c                	jns    af16 <func_6+0x7d8>
    af8a:	0f b6 85 ca ed ff ff 	movzbl -0x1236(%rbp),%eax
    af91:	83 c0 01             	add    $0x1,%eax
    af94:	88 85 ca ed ff ff    	mov    %al,-0x1236(%rbp)
    af9a:	8b 05 84 60 01 00    	mov    0x16084(%rip),%eax        # 21024 <g_11>
    afa0:	83 e8 01             	sub    $0x1,%eax
    afa3:	89 05 7b 60 01 00    	mov    %eax,0x1607b(%rip)        # 21024 <g_11>
    afa9:	8b 05 75 60 01 00    	mov    0x16075(%rip),%eax        # 21024 <g_11>
    afaf:	85 c0                	test   %eax,%eax
    afb1:	0f 89 10 ff ff ff    	jns    aec7 <func_6+0x789>
    afb7:	0f b6 85 b8 ed ff ff 	movzbl -0x1248(%rbp),%eax
    afbe:	83 c0 01             	add    $0x1,%eax
    afc1:	88 85 b8 ed ff ff    	mov    %al,-0x1248(%rbp)
    afc7:	80 bd b8 ed ff ff 02 	cmpb   $0x2,-0x1248(%rbp)
    afce:	0f 8e 76 fe ff ff    	jle    ae4a <func_6+0x70c>
    afd4:	c7 05 32 62 01 00 00 	movl   $0x0,0x16232(%rip)        # 21210 <g_1562>
    afdb:	00 00 00 
    afde:	e9 6a 05 00 00       	jmpq   b54d <func_6+0xe0f>
    afe3:	48 c7 85 88 ef ff ff 	movq   $0x0,-0x1078(%rbp)
    afea:	00 00 00 00 
    afee:	48 8d 85 d0 f2 ff ff 	lea    -0xd30(%rbp),%rax
    aff5:	48 05 18 01 00 00    	add    $0x118,%rax
    affb:	48 89 85 90 ef ff ff 	mov    %rax,-0x1070(%rbp)
    b002:	c7 85 4c ee ff ff 01 	movl   $0x1,-0x11b4(%rbp)
    b009:	00 00 00 
    b00c:	c7 85 50 ee ff ff 4f 	movl   $0x241724f,-0x11b0(%rbp)
    b013:	72 41 02 
    b016:	c7 85 54 ee ff ff ff 	movl   $0xffffffff,-0x11ac(%rbp)
    b01d:	ff ff ff 
    b020:	c7 85 58 ee ff ff f1 	movl   $0x3ee92ef1,-0x11a8(%rbp)
    b027:	2e e9 3e 
    b02a:	c7 85 ec ed ff ff 01 	movl   $0x1,-0x1214(%rbp)
    b031:	00 00 00 
    b034:	66 c7 05 b3 61 01 00 	movw   $0x2,0x161b3(%rip)        # 211f0 <g_976>
    b03b:	02 00 
    b03d:	eb 37                	jmp    b076 <func_6+0x938>
    b03f:	c7 85 5c ee ff ff ff 	movl   $0xffffffff,-0x11a4(%rbp)
    b046:	ff ff ff 
    b049:	0f bf 95 d8 ed ff ff 	movswl -0x1228(%rbp),%edx
    b050:	48 8b 05 49 89 01 00 	mov    0x18949(%rip),%rax        # 239a0 <g_1122>
    b057:	0f b7 00             	movzwl (%rax),%eax
    b05a:	0f b7 c0             	movzwl %ax,%eax
    b05d:	09 d0                	or     %edx,%eax
    b05f:	21 85 5c ee ff ff    	and    %eax,-0x11a4(%rbp)
    b065:	0f b7 05 84 61 01 00 	movzwl 0x16184(%rip),%eax        # 211f0 <g_976>
    b06c:	83 c0 01             	add    $0x1,%eax
    b06f:	66 89 05 7a 61 01 00 	mov    %ax,0x1617a(%rip)        # 211f0 <g_976>
    b076:	0f b7 05 73 61 01 00 	movzwl 0x16173(%rip),%eax        # 211f0 <g_976>
    b07d:	66 83 f8 06          	cmp    $0x6,%ax
    b081:	76 bc                	jbe    b03f <func_6+0x901>
    b083:	66 c7 05 28 61 01 00 	movw   $0x0,0x16128(%rip)        # 211b4 <g_465>
    b08a:	00 00 
    b08c:	eb 58                	jmp    b0e6 <func_6+0x9a8>
    b08e:	66 c7 05 1b 61 01 00 	movw   $0x0,0x1611b(%rip)        # 211b2 <g_442>
    b095:	00 00 
    b097:	90                   	nop
    b098:	0f b7 05 13 61 01 00 	movzwl 0x16113(%rip),%eax        # 211b2 <g_442>
    b09f:	66 85 c0             	test   %ax,%ax
    b0a2:	75 31                	jne    b0d5 <func_6+0x997>
    b0a4:	0f b7 05 09 61 01 00 	movzwl 0x16109(%rip),%eax        # 211b4 <g_465>
    b0ab:	0f b7 c0             	movzwl %ax,%eax
    b0ae:	8d 50 04             	lea    0x4(%rax),%edx
    b0b1:	8b 85 bc ed ff ff    	mov    -0x1244(%rbp),%eax
    b0b7:	48 63 c8             	movslq %eax,%rcx
    b0ba:	48 63 d2             	movslq %edx,%rdx
    b0bd:	48 89 d0             	mov    %rdx,%rax
    b0c0:	48 01 c0             	add    %rax,%rax
    b0c3:	48 01 d0             	add    %rdx,%rax
    b0c6:	48 01 c8             	add    %rcx,%rax
    b0c9:	8b 84 85 10 f1 ff ff 	mov    -0xef0(%rbp,%rax,4),%eax
    b0d0:	e9 c8 1b 00 00       	jmpq   cc9d <func_6+0x255f>
    b0d5:	0f b7 05 d8 60 01 00 	movzwl 0x160d8(%rip),%eax        # 211b4 <g_465>
    b0dc:	83 c0 01             	add    $0x1,%eax
    b0df:	66 89 05 ce 60 01 00 	mov    %ax,0x160ce(%rip)        # 211b4 <g_465>
    b0e6:	0f b7 05 c7 60 01 00 	movzwl 0x160c7(%rip),%eax        # 211b4 <g_465>
    b0ed:	66 85 c0             	test   %ax,%ax
    b0f0:	74 9c                	je     b08e <func_6+0x950>
    b0f2:	8b 05 18 61 01 00    	mov    0x16118(%rip),%eax        # 21210 <g_1562>
    b0f8:	8d 50 01             	lea    0x1(%rax),%edx
    b0fb:	8b 05 0f 61 01 00    	mov    0x1610f(%rip),%eax        # 21210 <g_1562>
    b101:	83 c0 02             	add    $0x2,%eax
    b104:	89 c1                	mov    %eax,%ecx
    b106:	89 d2                	mov    %edx,%edx
    b108:	48 89 d0             	mov    %rdx,%rax
    b10b:	48 01 c0             	add    %rax,%rax
    b10e:	48 01 d0             	add    %rdx,%rax
    b111:	48 01 c8             	add    %rcx,%rax
    b114:	8b 84 85 10 f1 ff ff 	mov    -0xef0(%rbp,%rax,4),%eax
    b11b:	85 c0                	test   %eax,%eax
    b11d:	0f 85 1a 04 00 00    	jne    b53d <func_6+0xdff>
    b123:	8b 85 bc ed ff ff    	mov    -0x1244(%rbp),%eax
    b129:	89 c2                	mov    %eax,%edx
    b12b:	48 8b 85 d8 ee ff ff 	mov    -0x1128(%rbp),%rax
    b132:	88 10                	mov    %dl,(%rax)
    b134:	48 8b 85 d8 ee ff ff 	mov    -0x1128(%rbp),%rax
    b13b:	0f b6 00             	movzbl (%rax),%eax
    b13e:	0f be d0             	movsbl %al,%edx
    b141:	48 8b 8d e8 f3 ff ff 	mov    -0xc18(%rbp),%rcx
    b148:	48 8b 85 90 ef ff ff 	mov    -0x1070(%rbp),%rax
    b14f:	48 89 08             	mov    %rcx,(%rax)
    b152:	48 8b 85 90 ef ff ff 	mov    -0x1070(%rbp),%rax
    b159:	48 8b 08             	mov    (%rax),%rcx
    b15c:	48 8d 85 d0 ee ff ff 	lea    -0x1130(%rbp),%rax
    b163:	48 39 c1             	cmp    %rax,%rcx
    b166:	0f 95 c0             	setne  %al
    b169:	0f b6 c0             	movzbl %al,%eax
    b16c:	89 d6                	mov    %edx,%esi
    b16e:	89 c7                	mov    %eax,%edi
    b170:	e8 f5 c0 ff ff       	callq  726a <safe_div_func_int8_t_s_s>
    b175:	48 8b 05 04 89 01 00 	mov    0x18904(%rip),%rax        # 23a80 <g_1409>
    b17c:	0f b7 00             	movzwl (%rax),%eax
    b17f:	0f bf d8             	movswl %ax,%ebx
    b182:	8b 05 88 60 01 00    	mov    0x16088(%rip),%eax        # 21210 <g_1562>
    b188:	8d 50 01             	lea    0x1(%rax),%edx
    b18b:	8b 05 7f 60 01 00    	mov    0x1607f(%rip),%eax        # 21210 <g_1562>
    b191:	83 c0 02             	add    $0x2,%eax
    b194:	89 c1                	mov    %eax,%ecx
    b196:	89 d2                	mov    %edx,%edx
    b198:	48 89 d0             	mov    %rdx,%rax
    b19b:	48 01 c0             	add    %rax,%rax
    b19e:	48 01 d0             	add    %rdx,%rax
    b1a1:	48 01 c8             	add    %rcx,%rax
    b1a4:	c7 84 85 10 f1 ff ff 	movl   $0x0,-0xef0(%rbp,%rax,4)
    b1ab:	00 00 00 00 
    b1af:	be 05 00 00 00       	mov    $0x5,%esi
    b1b4:	bf 9e 62 00 00       	mov    $0x629e,%edi
    b1b9:	e8 37 c2 ff ff       	callq  73f5 <safe_mul_func_int16_t_s_s>
    b1be:	66 83 f8 05          	cmp    $0x5,%ax
    b1c2:	0f 95 c0             	setne  %al
    b1c5:	0f b6 c0             	movzbl %al,%eax
    b1c8:	be 05 00 00 00       	mov    $0x5,%esi
    b1cd:	89 c7                	mov    %eax,%edi
    b1cf:	e8 2b c5 ff ff       	callq  76ff <safe_div_func_int32_t_s_s>
    b1d4:	8b 05 36 60 01 00    	mov    0x16036(%rip),%eax        # 21210 <g_1562>
    b1da:	8d 50 01             	lea    0x1(%rax),%edx
    b1dd:	8b 05 2d 60 01 00    	mov    0x1602d(%rip),%eax        # 21210 <g_1562>
    b1e3:	83 c0 02             	add    $0x2,%eax
    b1e6:	89 c1                	mov    %eax,%ecx
    b1e8:	89 d2                	mov    %edx,%edx
    b1ea:	48 89 d0             	mov    %rdx,%rax
    b1ed:	48 01 c0             	add    %rax,%rax
    b1f0:	48 01 d0             	add    %rdx,%rax
    b1f3:	48 01 c8             	add    %rcx,%rax
    b1f6:	8b 84 85 10 f1 ff ff 	mov    -0xef0(%rbp,%rax,4),%eax
    b1fd:	98                   	cwtl   
    b1fe:	89 de                	mov    %ebx,%esi
    b200:	89 c7                	mov    %eax,%edi
    b202:	e8 4e c2 ff ff       	callq  7455 <safe_div_func_int16_t_s_s>
    b207:	be 02 00 00 00       	mov    $0x2,%esi
    b20c:	bf 00 00 00 00       	mov    $0x0,%edi
    b211:	e8 ef c9 ff ff       	callq  7c05 <safe_lshift_func_uint8_t_u_s>
    b216:	80 bd b8 ed ff ff 00 	cmpb   $0x0,-0x1248(%rbp)
    b21d:	0f 95 c0             	setne  %al
    b220:	0f b6 c0             	movzbl %al,%eax
    b223:	48 8b 15 6e 8c 01 00 	mov    0x18c6e(%rip),%rdx        # 23e98 <g_2358>
    b22a:	48 8b 12             	mov    (%rdx),%rdx
    b22d:	48 8b 12             	mov    (%rdx),%rdx
    b230:	48 8b 1a             	mov    (%rdx),%rbx
    b233:	be fb ff ff ff       	mov    $0xfffffffb,%esi
    b238:	89 c7                	mov    %eax,%edi
    b23a:	e8 be cc ff ff       	callq  7efd <safe_mod_func_uint32_t_u_u>
    b23f:	89 03                	mov    %eax,(%rbx)
    b241:	8b 03                	mov    (%rbx),%eax
    b243:	89 85 dc ed ff ff    	mov    %eax,-0x1224(%rbp)
    b249:	8b 85 dc ed ff ff    	mov    -0x1224(%rbp),%eax
    b24f:	39 85 e0 ed ff ff    	cmp    %eax,-0x1220(%rbp)
    b255:	0f 9f c0             	setg   %al
    b258:	0f b6 c8             	movzbl %al,%ecx
    b25b:	48 8b 05 be 8a 01 00 	mov    0x18abe(%rip),%rax        # 23d20 <g_2306>
    b262:	48 8b 00             	mov    (%rax),%rax
    b265:	48 8b 00             	mov    (%rax),%rax
    b268:	48 8b 00             	mov    (%rax),%rax
    b26b:	8b 10                	mov    (%rax),%edx
    b26d:	31 ca                	xor    %ecx,%edx
    b26f:	89 10                	mov    %edx,(%rax)
    b271:	c7 85 e0 ed ff ff 00 	movl   $0x0,-0x1220(%rbp)
    b278:	00 00 00 
    b27b:	e9 ae 02 00 00       	jmpq   b52e <func_6+0xdf0>
    b280:	48 c7 85 98 ef ff ff 	movq   $0x0,-0x1068(%rbp)
    b287:	00 00 00 00 
    b28b:	8b 05 7f 5f 01 00    	mov    0x15f7f(%rip),%eax        # 21210 <g_1562>
    b291:	8d 70 07             	lea    0x7(%rax),%esi
    b294:	48 8d 95 10 f1 ff ff 	lea    -0xef0(%rbp),%rdx
    b29b:	8b 85 bc ed ff ff    	mov    -0x1244(%rbp),%eax
    b2a1:	48 63 c8             	movslq %eax,%rcx
    b2a4:	89 f6                	mov    %esi,%esi
    b2a6:	48 89 f0             	mov    %rsi,%rax
    b2a9:	48 01 c0             	add    %rax,%rax
    b2ac:	48 01 f0             	add    %rsi,%rax
    b2af:	48 01 c8             	add    %rcx,%rax
    b2b2:	48 c1 e0 02          	shl    $0x2,%rax
    b2b6:	48 01 d0             	add    %rdx,%rax
    b2b9:	48 89 85 a0 ef ff ff 	mov    %rax,-0x1060(%rbp)
    b2c0:	48 c7 85 a8 ef ff ff 	movq   $0x0,-0x1058(%rbp)
    b2c7:	00 00 00 00 
    b2cb:	48 8d 05 52 5d 01 00 	lea    0x15d52(%rip),%rax        # 21024 <g_11>
    b2d2:	48 89 85 b0 ef ff ff 	mov    %rax,-0x1050(%rbp)
    b2d9:	48 8d 85 dc ed ff ff 	lea    -0x1224(%rbp),%rax
    b2e0:	48 89 85 b8 ef ff ff 	mov    %rax,-0x1048(%rbp)
    b2e7:	48 8d 05 42 5d 01 00 	lea    0x15d42(%rip),%rax        # 21030 <g_14>
    b2ee:	48 89 85 c0 ef ff ff 	mov    %rax,-0x1040(%rbp)
    b2f5:	48 8d 85 dc ed ff ff 	lea    -0x1224(%rbp),%rax
    b2fc:	48 89 85 c8 ef ff ff 	mov    %rax,-0x1038(%rbp)
    b303:	48 8d 05 1a 5d 01 00 	lea    0x15d1a(%rip),%rax        # 21024 <g_11>
    b30a:	48 89 85 d0 ef ff ff 	mov    %rax,-0x1030(%rbp)
    b311:	8b 05 f9 5e 01 00    	mov    0x15ef9(%rip),%eax        # 21210 <g_1562>
    b317:	8d 70 07             	lea    0x7(%rax),%esi
    b31a:	48 8d 95 10 f1 ff ff 	lea    -0xef0(%rbp),%rdx
    b321:	8b 85 bc ed ff ff    	mov    -0x1244(%rbp),%eax
    b327:	48 63 c8             	movslq %eax,%rcx
    b32a:	89 f6                	mov    %esi,%esi
    b32c:	48 89 f0             	mov    %rsi,%rax
    b32f:	48 01 c0             	add    %rax,%rax
    b332:	48 01 f0             	add    %rsi,%rax
    b335:	48 01 c8             	add    %rcx,%rax
    b338:	48 c1 e0 02          	shl    $0x2,%rax
    b33c:	48 01 d0             	add    %rdx,%rax
    b33f:	48 89 85 10 f5 ff ff 	mov    %rax,-0xaf0(%rbp)
    b346:	48 8d 85 10 f1 ff ff 	lea    -0xef0(%rbp),%rax
    b34d:	48 83 c0 14          	add    $0x14,%rax
    b351:	48 89 85 18 f5 ff ff 	mov    %rax,-0xae8(%rbp)
    b358:	8b 05 b2 5e 01 00    	mov    0x15eb2(%rip),%eax        # 21210 <g_1562>
    b35e:	8d 70 07             	lea    0x7(%rax),%esi
    b361:	48 8d 95 10 f1 ff ff 	lea    -0xef0(%rbp),%rdx
    b368:	8b 85 bc ed ff ff    	mov    -0x1244(%rbp),%eax
    b36e:	48 63 c8             	movslq %eax,%rcx
    b371:	89 f6                	mov    %esi,%esi
    b373:	48 89 f0             	mov    %rsi,%rax
    b376:	48 01 c0             	add    %rax,%rax
    b379:	48 01 f0             	add    %rsi,%rax
    b37c:	48 01 c8             	add    %rcx,%rax
    b37f:	48 c1 e0 02          	shl    $0x2,%rax
    b383:	48 01 d0             	add    %rdx,%rax
    b386:	48 89 85 20 f5 ff ff 	mov    %rax,-0xae0(%rbp)
    b38d:	48 8d 85 10 f1 ff ff 	lea    -0xef0(%rbp),%rax
    b394:	48 83 c0 14          	add    $0x14,%rax
    b398:	48 89 85 28 f5 ff ff 	mov    %rax,-0xad8(%rbp)
    b39f:	8b 05 6b 5e 01 00    	mov    0x15e6b(%rip),%eax        # 21210 <g_1562>
    b3a5:	8d 70 07             	lea    0x7(%rax),%esi
    b3a8:	48 8d 95 10 f1 ff ff 	lea    -0xef0(%rbp),%rdx
    b3af:	8b 85 bc ed ff ff    	mov    -0x1244(%rbp),%eax
    b3b5:	48 63 c8             	movslq %eax,%rcx
    b3b8:	89 f6                	mov    %esi,%esi
    b3ba:	48 89 f0             	mov    %rsi,%rax
    b3bd:	48 01 c0             	add    %rax,%rax
    b3c0:	48 01 f0             	add    %rsi,%rax
    b3c3:	48 01 c8             	add    %rcx,%rax
    b3c6:	48 c1 e0 02          	shl    $0x2,%rax
    b3ca:	48 01 d0             	add    %rdx,%rax
    b3cd:	48 89 85 30 f5 ff ff 	mov    %rax,-0xad0(%rbp)
    b3d4:	48 8d 85 10 f1 ff ff 	lea    -0xef0(%rbp),%rax
    b3db:	48 83 c0 14          	add    $0x14,%rax
    b3df:	48 89 85 38 f5 ff ff 	mov    %rax,-0xac8(%rbp)
    b3e6:	8b 05 24 5e 01 00    	mov    0x15e24(%rip),%eax        # 21210 <g_1562>
    b3ec:	8d 70 07             	lea    0x7(%rax),%esi
    b3ef:	48 8d 95 10 f1 ff ff 	lea    -0xef0(%rbp),%rdx
    b3f6:	8b 85 bc ed ff ff    	mov    -0x1244(%rbp),%eax
    b3fc:	48 63 c8             	movslq %eax,%rcx
    b3ff:	89 f6                	mov    %esi,%esi
    b401:	48 89 f0             	mov    %rsi,%rax
    b404:	48 01 c0             	add    %rax,%rax
    b407:	48 01 f0             	add    %rsi,%rax
    b40a:	48 01 c8             	add    %rcx,%rax
    b40d:	48 c1 e0 02          	shl    $0x2,%rax
    b411:	48 01 d0             	add    %rdx,%rax
    b414:	48 89 85 40 f5 ff ff 	mov    %rax,-0xac0(%rbp)
    b41b:	48 8d 85 10 f1 ff ff 	lea    -0xef0(%rbp),%rax
    b422:	48 83 c0 14          	add    $0x14,%rax
    b426:	48 89 85 48 f5 ff ff 	mov    %rax,-0xab8(%rbp)
    b42d:	8b 15 dd 5d 01 00    	mov    0x15ddd(%rip),%edx        # 21210 <g_1562>
    b433:	8b 85 e0 ed ff ff    	mov    -0x1220(%rbp),%eax
    b439:	48 98                	cltq   
    b43b:	89 d2                	mov    %edx,%edx
    b43d:	48 c1 e0 05          	shl    $0x5,%rax
    b441:	48 89 c1             	mov    %rax,%rcx
    b444:	48 89 d0             	mov    %rdx,%rax
    b447:	48 01 c0             	add    %rax,%rax
    b44a:	48 01 d0             	add    %rdx,%rax
    b44d:	48 c1 e0 03          	shl    $0x3,%rax
    b451:	48 8d 14 01          	lea    (%rcx,%rax,1),%rdx
    b455:	48 8d 05 64 85 01 00 	lea    0x18564(%rip),%rax        # 239c0 <g_1140>
    b45c:	48 01 d0             	add    %rdx,%rax
    b45f:	48 8b 00             	mov    (%rax),%rax
    b462:	48 39 85 e0 ee ff ff 	cmp    %rax,-0x1120(%rbp)
    b469:	0f 95 c0             	setne  %al
    b46c:	44 0f b6 e8          	movzbl %al,%r13d
    b470:	8b 85 4c ee ff ff    	mov    -0x11b4(%rbp),%eax
    b476:	0f be d8             	movsbl %al,%ebx
    b479:	44 0f be a5 b8 ed ff 	movsbl -0x1248(%rbp),%r12d
    b480:	ff 
    b481:	8b 05 89 5d 01 00    	mov    0x15d89(%rip),%eax        # 21210 <g_1562>
    b487:	8d 48 07             	lea    0x7(%rax),%ecx
    b48a:	8b 85 bc ed ff ff    	mov    -0x1244(%rbp),%eax
    b490:	48 63 d0             	movslq %eax,%rdx
    b493:	89 c9                	mov    %ecx,%ecx
    b495:	48 89 c8             	mov    %rcx,%rax
    b498:	48 01 c0             	add    %rax,%rax
    b49b:	48 01 c8             	add    %rcx,%rax
    b49e:	48 01 d0             	add    %rdx,%rax
    b4a1:	8b 94 85 10 f1 ff ff 	mov    -0xef0(%rbp,%rax,4),%edx
    b4a8:	8b 85 bc ed ff ff    	mov    -0x1244(%rbp),%eax
    b4ae:	98                   	cwtl   
    b4af:	89 d6                	mov    %edx,%esi
    b4b1:	89 c7                	mov    %eax,%edi
    b4b3:	e8 72 c0 ff ff       	callq  752a <safe_rshift_func_int16_t_s_s>
    b4b8:	f7 d0                	not    %eax
    b4ba:	0f bf d0             	movswl %ax,%edx
    b4bd:	0f be 85 b8 ed ff ff 	movsbl -0x1248(%rbp),%eax
    b4c4:	89 d6                	mov    %edx,%esi
    b4c6:	89 c7                	mov    %eax,%edi
    b4c8:	e8 e6 be ff ff       	callq  73b3 <safe_add_func_int16_t_s_s>
    b4cd:	44 89 e6             	mov    %r12d,%esi
    b4d0:	bf 01 00 00 00       	mov    $0x1,%edi
    b4d5:	e8 de c9 ff ff       	callq  7eb8 <safe_add_func_uint32_t_u_u>
    b4da:	85 c0                	test   %eax,%eax
    b4dc:	75 09                	jne    b4e7 <func_6+0xda9>
    b4de:	83 bd bc ed ff ff 00 	cmpl   $0x0,-0x1244(%rbp)
    b4e5:	74 07                	je     b4ee <func_6+0xdb0>
    b4e7:	b8 01 00 00 00       	mov    $0x1,%eax
    b4ec:	eb 05                	jmp    b4f3 <func_6+0xdb5>
    b4ee:	b8 00 00 00 00       	mov    $0x0,%eax
    b4f3:	0f be c0             	movsbl %al,%eax
    b4f6:	89 de                	mov    %ebx,%esi
    b4f8:	89 c7                	mov    %eax,%edi
    b4fa:	e8 f3 bc ff ff       	callq  71f2 <safe_sub_func_int8_t_s_s>
    b4ff:	0f be c0             	movsbl %al,%eax
    b502:	39 85 bc ed ff ff    	cmp    %eax,-0x1244(%rbp)
    b508:	0f 95 c0             	setne  %al
    b50b:	0f b6 d0             	movzbl %al,%edx
    b50e:	48 8b 05 03 88 01 00 	mov    0x18803(%rip),%rax        # 23d18 <g_2307>
    b515:	48 8b 00             	mov    (%rax),%rax
    b518:	48 8b 00             	mov    (%rax),%rax
    b51b:	44 31 ea             	xor    %r13d,%edx
    b51e:	89 10                	mov    %edx,(%rax)
    b520:	83 ad ec ed ff ff 01 	subl   $0x1,-0x1214(%rbp)
    b527:	83 ad e0 ed ff ff 01 	subl   $0x1,-0x1220(%rbp)
    b52e:	83 bd e0 ed ff ff 00 	cmpl   $0x0,-0x1220(%rbp)
    b535:	0f 89 45 fd ff ff    	jns    b280 <func_6+0xb42>
    b53b:	eb 01                	jmp    b53e <func_6+0xe00>
    b53d:	90                   	nop
    b53e:	8b 05 cc 5c 01 00    	mov    0x15ccc(%rip),%eax        # 21210 <g_1562>
    b544:	83 c0 01             	add    $0x1,%eax
    b547:	89 05 c3 5c 01 00    	mov    %eax,0x15cc3(%rip)        # 21210 <g_1562>
    b54d:	8b 05 bd 5c 01 00    	mov    0x15cbd(%rip),%eax        # 21210 <g_1562>
    b553:	85 c0                	test   %eax,%eax
    b555:	0f 84 88 fa ff ff    	je     afe3 <func_6+0x8a5>
    b55b:	8b 85 30 ee ff ff    	mov    -0x11d0(%rbp),%eax
    b561:	e9 37 17 00 00       	jmpq   cc9d <func_6+0x255f>
    b566:	66 c7 05 a5 5c 01 00 	movw   $0x0,0x15ca5(%rip)        # 21214 <g_1794>
    b56d:	00 00 
    b56f:	90                   	nop
    b570:	0f b7 05 9d 5c 01 00 	movzwl 0x15c9d(%rip),%eax        # 21214 <g_1794>
    b577:	66 83 f8 04          	cmp    $0x4,%ax
    b57b:	74 0b                	je     b588 <func_6+0xe4a>
    b57d:	8b 85 bc ed ff ff    	mov    -0x1244(%rbp),%eax
    b583:	e9 15 17 00 00       	jmpq   cc9d <func_6+0x255f>
    b588:	48 8b 85 e0 ee ff ff 	mov    -0x1120(%rbp),%rax
    b58f:	48 8b 00             	mov    (%rax),%rax
    b592:	8b 00                	mov    (%rax),%eax
    b594:	0f b6 c0             	movzbl %al,%eax
    b597:	89 c7                	mov    %eax,%edi
    b599:	e8 a7 c5 ff ff       	callq  7b45 <safe_unary_minus_func_uint8_t_u>
    b59e:	48 8b 15 fb 86 01 00 	mov    0x186fb(%rip),%rdx        # 23ca0 <g_1987>
    b5a5:	48 8b 12             	mov    (%rdx),%rdx
    b5a8:	48 8b 0a             	mov    (%rdx),%rcx
    b5ab:	0f b6 d0             	movzbl %al,%edx
    b5ae:	48 8b 05 eb 86 01 00 	mov    0x186eb(%rip),%rax        # 23ca0 <g_1987>
    b5b5:	48 8b 00             	mov    (%rax),%rax
    b5b8:	48 09 ca             	or     %rcx,%rdx
    b5bb:	48 89 10             	mov    %rdx,(%rax)
    b5be:	48 8b 10             	mov    (%rax),%rdx
    b5c1:	48 8b 85 e0 ee ff ff 	mov    -0x1120(%rbp),%rax
    b5c8:	48 8b 00             	mov    (%rax),%rax
    b5cb:	89 10                	mov    %edx,(%rax)
    b5cd:	8b 10                	mov    (%rax),%edx
    b5cf:	48 8b 05 8a 90 01 00 	mov    0x1908a(%rip),%rax        # 24660 <g_309>
    b5d6:	48 89 05 83 90 01 00 	mov    %rax,0x19083(%rip)        # 24660 <g_309>
    b5dd:	48 8b 05 7c 90 01 00 	mov    0x1907c(%rip),%rax        # 24660 <g_309>
    b5e4:	48 8d 0d 55 82 01 00 	lea    0x18255(%rip),%rcx        # 23840 <g_198+0x40>
    b5eb:	48 39 c8             	cmp    %rcx,%rax
    b5ee:	0f 95 c0             	setne  %al
    b5f1:	0f b6 c0             	movzbl %al,%eax
    b5f4:	89 85 dc ed ff ff    	mov    %eax,-0x1224(%rbp)
    b5fa:	8b 85 dc ed ff ff    	mov    -0x1224(%rbp),%eax
    b600:	39 c2                	cmp    %eax,%edx
    b602:	0f 9e c2             	setle  %dl
    b605:	48 8b 05 0c 87 01 00 	mov    0x1870c(%rip),%rax        # 23d18 <g_2307>
    b60c:	48 8b 00             	mov    (%rax),%rax
    b60f:	48 8b 00             	mov    (%rax),%rax
    b612:	0f b6 d2             	movzbl %dl,%edx
    b615:	89 10                	mov    %edx,(%rax)
    b617:	66 c7 05 94 5b 01 00 	movw   $0xfff7,0x15b94(%rip)        # 211b4 <g_465>
    b61e:	f7 ff 
    b620:	e9 60 16 00 00       	jmpq   cc85 <func_6+0x2547>
    b625:	c7 85 08 ee ff ff f2 	movl   $0x4bdadbf2,-0x11f8(%rbp)
    b62c:	db da 4b 
    b62f:	c7 85 f0 ed ff ff 01 	movl   $0x1,-0x1210(%rbp)
    b636:	00 00 00 
    b639:	48 8d 05 d0 8f 01 00 	lea    0x18fd0(%rip),%rax        # 24610 <g_26+0x50>
    b640:	48 89 85 00 ef ff ff 	mov    %rax,-0x1100(%rbp)
    b647:	48 8d 05 f2 59 01 00 	lea    0x159f2(%rip),%rax        # 21040 <g_59>
    b64e:	48 89 85 08 ef ff ff 	mov    %rax,-0x10f8(%rbp)
    b655:	48 c7 85 78 ee ff ff 	movq   $0x0,-0x1188(%rbp)
    b65c:	00 00 00 00 
    b660:	48 8d 85 78 ee ff ff 	lea    -0x1188(%rbp),%rax
    b667:	48 89 85 10 ef ff ff 	mov    %rax,-0x10f0(%rbp)
    b66e:	48 8d 05 2b 86 01 00 	lea    0x1862b(%rip),%rax        # 23ca0 <g_1987>
    b675:	48 89 85 80 ee ff ff 	mov    %rax,-0x1180(%rbp)
    b67c:	48 8d 05 b5 83 01 00 	lea    0x183b5(%rip),%rax        # 23a38 <g_1140+0x78>
    b683:	48 89 85 88 ee ff ff 	mov    %rax,-0x1178(%rbp)
    b68a:	48 c7 85 d0 f0 ff ff 	movq   $0x0,-0xf30(%rbp)
    b691:	00 00 00 00 
    b695:	48 8d 85 88 ee ff ff 	lea    -0x1178(%rbp),%rax
    b69c:	48 89 85 d8 f0 ff ff 	mov    %rax,-0xf28(%rbp)
    b6a3:	48 8d 85 88 ee ff ff 	lea    -0x1178(%rbp),%rax
    b6aa:	48 89 85 e0 f0 ff ff 	mov    %rax,-0xf20(%rbp)
    b6b1:	48 c7 85 e8 f0 ff ff 	movq   $0x0,-0xf18(%rbp)
    b6b8:	00 00 00 00 
    b6bc:	48 8d 85 88 ee ff ff 	lea    -0x1178(%rbp),%rax
    b6c3:	48 89 85 f0 f0 ff ff 	mov    %rax,-0xf10(%rbp)
    b6ca:	48 8d 85 88 ee ff ff 	lea    -0x1178(%rbp),%rax
    b6d1:	48 89 85 f8 f0 ff ff 	mov    %rax,-0xf08(%rbp)
    b6d8:	48 c7 85 00 f1 ff ff 	movq   $0x0,-0xf00(%rbp)
    b6df:	00 00 00 00 
    b6e3:	48 8d 85 88 ee ff ff 	lea    -0x1178(%rbp),%rax
    b6ea:	48 89 85 08 f1 ff ff 	mov    %rax,-0xef8(%rbp)
    b6f1:	48 8d 85 d0 f0 ff ff 	lea    -0xf30(%rbp),%rax
    b6f8:	48 83 c0 10          	add    $0x10,%rax
    b6fc:	48 89 85 18 ef ff ff 	mov    %rax,-0x10e8(%rbp)
    b703:	48 8d 85 90 f1 ff ff 	lea    -0xe70(%rbp),%rax
    b70a:	48 89 85 d0 f2 ff ff 	mov    %rax,-0xd30(%rbp)
    b711:	48 8d 85 90 f1 ff ff 	lea    -0xe70(%rbp),%rax
    b718:	48 89 85 d8 f2 ff ff 	mov    %rax,-0xd28(%rbp)
    b71f:	48 8d 85 90 f1 ff ff 	lea    -0xe70(%rbp),%rax
    b726:	48 83 c0 08          	add    $0x8,%rax
    b72a:	48 89 85 e0 f2 ff ff 	mov    %rax,-0xd20(%rbp)
    b731:	48 8d 85 90 f1 ff ff 	lea    -0xe70(%rbp),%rax
    b738:	48 83 c0 20          	add    $0x20,%rax
    b73c:	48 89 85 e8 f2 ff ff 	mov    %rax,-0xd18(%rbp)
    b743:	48 8d 85 90 f1 ff ff 	lea    -0xe70(%rbp),%rax
    b74a:	48 83 c0 08          	add    $0x8,%rax
    b74e:	48 89 85 f0 f2 ff ff 	mov    %rax,-0xd10(%rbp)
    b755:	48 8d 85 90 f1 ff ff 	lea    -0xe70(%rbp),%rax
    b75c:	48 89 85 f8 f2 ff ff 	mov    %rax,-0xd08(%rbp)
    b763:	48 8d 85 90 f1 ff ff 	lea    -0xe70(%rbp),%rax
    b76a:	48 89 85 00 f3 ff ff 	mov    %rax,-0xd00(%rbp)
    b771:	48 8d 85 90 f1 ff ff 	lea    -0xe70(%rbp),%rax
    b778:	48 89 85 08 f3 ff ff 	mov    %rax,-0xcf8(%rbp)
    b77f:	48 8d 85 90 f1 ff ff 	lea    -0xe70(%rbp),%rax
    b786:	48 83 c0 38          	add    $0x38,%rax
    b78a:	48 89 85 10 f3 ff ff 	mov    %rax,-0xcf0(%rbp)
    b791:	48 8d 85 90 f1 ff ff 	lea    -0xe70(%rbp),%rax
    b798:	48 83 c0 28          	add    $0x28,%rax
    b79c:	48 89 85 18 f3 ff ff 	mov    %rax,-0xce8(%rbp)
    b7a3:	48 8d 85 90 f1 ff ff 	lea    -0xe70(%rbp),%rax
    b7aa:	48 83 c0 38          	add    $0x38,%rax
    b7ae:	48 89 85 20 f3 ff ff 	mov    %rax,-0xce0(%rbp)
    b7b5:	48 8d 85 90 f1 ff ff 	lea    -0xe70(%rbp),%rax
    b7bc:	48 89 85 28 f3 ff ff 	mov    %rax,-0xcd8(%rbp)
    b7c3:	48 8d 85 90 f1 ff ff 	lea    -0xe70(%rbp),%rax
    b7ca:	48 89 85 30 f3 ff ff 	mov    %rax,-0xcd0(%rbp)
    b7d1:	48 8d 85 90 f1 ff ff 	lea    -0xe70(%rbp),%rax
    b7d8:	48 83 c0 38          	add    $0x38,%rax
    b7dc:	48 89 85 38 f3 ff ff 	mov    %rax,-0xcc8(%rbp)
    b7e3:	48 8d 85 90 f1 ff ff 	lea    -0xe70(%rbp),%rax
    b7ea:	48 83 c0 30          	add    $0x30,%rax
    b7ee:	48 89 85 40 f3 ff ff 	mov    %rax,-0xcc0(%rbp)
    b7f5:	48 8d 85 90 f1 ff ff 	lea    -0xe70(%rbp),%rax
    b7fc:	48 83 c0 20          	add    $0x20,%rax
    b800:	48 89 85 48 f3 ff ff 	mov    %rax,-0xcb8(%rbp)
    b807:	48 8d 85 90 f1 ff ff 	lea    -0xe70(%rbp),%rax
    b80e:	48 83 c0 30          	add    $0x30,%rax
    b812:	48 89 85 50 f3 ff ff 	mov    %rax,-0xcb0(%rbp)
    b819:	48 8d 85 90 f1 ff ff 	lea    -0xe70(%rbp),%rax
    b820:	48 83 c0 08          	add    $0x8,%rax
    b824:	48 89 85 58 f3 ff ff 	mov    %rax,-0xca8(%rbp)
    b82b:	48 8d 85 90 f1 ff ff 	lea    -0xe70(%rbp),%rax
    b832:	48 83 c0 08          	add    $0x8,%rax
    b836:	48 89 85 60 f3 ff ff 	mov    %rax,-0xca0(%rbp)
    b83d:	48 8d 85 90 f1 ff ff 	lea    -0xe70(%rbp),%rax
    b844:	48 83 c0 30          	add    $0x30,%rax
    b848:	48 89 85 68 f3 ff ff 	mov    %rax,-0xc98(%rbp)
    b84f:	48 8d 85 90 f1 ff ff 	lea    -0xe70(%rbp),%rax
    b856:	48 83 c0 20          	add    $0x20,%rax
    b85a:	48 89 85 70 f3 ff ff 	mov    %rax,-0xc90(%rbp)
    b861:	48 8d 85 d0 f2 ff ff 	lea    -0xd30(%rbp),%rax
    b868:	48 83 c0 70          	add    $0x70,%rax
    b86c:	48 89 85 70 f0 ff ff 	mov    %rax,-0xf90(%rbp)
    b873:	48 8d 85 d0 f2 ff ff 	lea    -0xd30(%rbp),%rax
    b87a:	48 83 c0 70          	add    $0x70,%rax
    b87e:	48 89 85 78 f0 ff ff 	mov    %rax,-0xf88(%rbp)
    b885:	48 8d 85 d0 f2 ff ff 	lea    -0xd30(%rbp),%rax
    b88c:	48 83 c0 70          	add    $0x70,%rax
    b890:	48 89 85 80 f0 ff ff 	mov    %rax,-0xf80(%rbp)
    b897:	48 8d 85 d0 f2 ff ff 	lea    -0xd30(%rbp),%rax
    b89e:	48 83 c0 70          	add    $0x70,%rax
    b8a2:	48 89 85 88 f0 ff ff 	mov    %rax,-0xf78(%rbp)
    b8a9:	48 8d 85 d0 f2 ff ff 	lea    -0xd30(%rbp),%rax
    b8b0:	48 83 c0 70          	add    $0x70,%rax
    b8b4:	48 89 85 90 f0 ff ff 	mov    %rax,-0xf70(%rbp)
    b8bb:	48 8d 05 8e 8d 01 00 	lea    0x18d8e(%rip),%rax        # 24650 <g_111>
    b8c2:	48 89 85 20 ef ff ff 	mov    %rax,-0x10e0(%rbp)
    b8c9:	c7 85 0c ee ff ff 76 	movl   $0x497aa76,-0x11f4(%rbp)
    b8d0:	aa 97 04 
    b8d3:	48 8d 05 a6 81 01 00 	lea    0x181a6(%rip),%rax        # 23a80 <g_1409>
    b8da:	48 89 85 28 ef ff ff 	mov    %rax,-0x10d8(%rbp)
    b8e1:	48 c7 85 30 ef ff ff 	movq   $0x0,-0x10d0(%rbp)
    b8e8:	00 00 00 00 
    b8ec:	c7 85 f4 ed ff ff 00 	movl   $0x0,-0x120c(%rbp)
    b8f3:	00 00 00 
    b8f6:	eb 1b                	jmp    b913 <func_6+0x11d5>
    b8f8:	8b 85 f4 ed ff ff    	mov    -0x120c(%rbp),%eax
    b8fe:	48 98                	cltq   
    b900:	48 c7 84 c5 90 f1 ff 	movq   $0x0,-0xe70(%rbp,%rax,8)
    b907:	ff 00 00 00 00 
    b90c:	83 85 f4 ed ff ff 01 	addl   $0x1,-0x120c(%rbp)
    b913:	83 bd f4 ed ff ff 07 	cmpl   $0x7,-0x120c(%rbp)
    b91a:	7e dc                	jle    b8f8 <func_6+0x11ba>
    b91c:	48 8b 05 85 80 01 00 	mov    0x18085(%rip),%rax        # 239a8 <g_1121>
    b923:	48 8b 00             	mov    (%rax),%rax
    b926:	0f b7 00             	movzwl (%rax),%eax
    b929:	66 85 c0             	test   %ax,%ax
    b92c:	0f 85 f8 00 00 00    	jne    ba2a <func_6+0x12ec>
    b932:	8b 85 bc ed ff ff    	mov    -0x1244(%rbp),%eax
    b938:	89 c2                	mov    %eax,%edx
    b93a:	48 8b 85 d8 ee ff ff 	mov    -0x1128(%rbp),%rax
    b941:	88 10                	mov    %dl,(%rax)
    b943:	48 8b 85 d8 ee ff ff 	mov    -0x1128(%rbp),%rax
    b94a:	0f b6 00             	movzbl (%rax),%eax
    b94d:	84 c0                	test   %al,%al
    b94f:	74 5e                	je     b9af <func_6+0x1271>
    b951:	8b 85 bc ed ff ff    	mov    -0x1244(%rbp),%eax
    b957:	0f b6 d8             	movzbl %al,%ebx
    b95a:	8b 85 bc ed ff ff    	mov    -0x1244(%rbp),%eax
    b960:	0f b7 d0             	movzwl %ax,%edx
    b963:	48 8b 05 e6 7e 01 00 	mov    0x17ee6(%rip),%rax        # 23850 <g_408>
    b96a:	0f be 8d b8 ed ff ff 	movsbl -0x1248(%rbp),%ecx
    b971:	89 08                	mov    %ecx,(%rax)
    b973:	8b 00                	mov    (%rax),%eax
    b975:	89 85 f0 ed ff ff    	mov    %eax,-0x1210(%rbp)
    b97b:	89 d6                	mov    %edx,%esi
    b97d:	bf 01 00 00 00       	mov    $0x1,%edi
    b982:	e8 07 c4 ff ff       	callq  7d8e <safe_div_func_uint16_t_u_u>
    b987:	66 85 c0             	test   %ax,%ax
    b98a:	74 07                	je     b993 <func_6+0x1255>
    b98c:	b8 01 00 00 00       	mov    $0x1,%eax
    b991:	eb 05                	jmp    b998 <func_6+0x125a>
    b993:	b8 00 00 00 00       	mov    $0x0,%eax
    b998:	0f b6 c0             	movzbl %al,%eax
    b99b:	89 de                	mov    %ebx,%esi
    b99d:	89 c7                	mov    %eax,%edi
    b99f:	e8 0a c2 ff ff       	callq  7bae <safe_mod_func_uint8_t_u_u>
    b9a4:	84 c0                	test   %al,%al
    b9a6:	74 07                	je     b9af <func_6+0x1271>
    b9a8:	b8 01 00 00 00       	mov    $0x1,%eax
    b9ad:	eb 05                	jmp    b9b4 <func_6+0x1276>
    b9af:	b8 00 00 00 00       	mov    $0x0,%eax
    b9b4:	3d 18 0d 00 00       	cmp    $0xd18,%eax
    b9b9:	0f 9e c0             	setle  %al
    b9bc:	0f b6 d0             	movzbl %al,%edx
    b9bf:	48 8b 85 08 ef ff ff 	mov    -0x10f8(%rbp),%rax
    b9c6:	48 89 10             	mov    %rdx,(%rax)
    b9c9:	48 8b 85 08 ef ff ff 	mov    -0x10f8(%rbp),%rax
    b9d0:	48 8b 10             	mov    (%rax),%rdx
    b9d3:	8b 85 bc ed ff ff    	mov    -0x1244(%rbp),%eax
    b9d9:	48 98                	cltq   
    b9db:	48 39 c2             	cmp    %rax,%rdx
    b9de:	0f 95 c0             	setne  %al
    b9e1:	0f b6 d0             	movzbl %al,%edx
    b9e4:	48 8b 05 ad 84 01 00 	mov    0x184ad(%rip),%rax        # 23e98 <g_2358>
    b9eb:	48 8b 00             	mov    (%rax),%rax
    b9ee:	48 8b 00             	mov    (%rax),%rax
    b9f1:	48 8b 00             	mov    (%rax),%rax
    b9f4:	8b 00                	mov    (%rax),%eax
    b9f6:	21 c2                	and    %eax,%edx
    b9f8:	8b 85 08 ee ff ff    	mov    -0x11f8(%rbp),%eax
    b9fe:	39 c2                	cmp    %eax,%edx
    ba00:	0f be 95 b8 ed ff ff 	movsbl -0x1248(%rbp),%edx
    ba07:	48 8b 85 e0 ee ff ff 	mov    -0x1120(%rbp),%rax
    ba0e:	48 8b 00             	mov    (%rax),%rax
    ba11:	8b 00                	mov    (%rax),%eax
    ba13:	39 c2                	cmp    %eax,%edx
    ba15:	75 13                	jne    ba2a <func_6+0x12ec>
    ba17:	48 8b 05 62 80 01 00 	mov    0x18062(%rip),%rax        # 23a80 <g_1409>
    ba1e:	0f b7 00             	movzwl (%rax),%eax
    ba21:	66 85 c0             	test   %ax,%ax
    ba24:	0f 84 4a 0f 00 00    	je     c974 <func_6+0x2236>
    ba2a:	c7 85 14 ee ff ff fc 	movl   $0xfffffffc,-0x11ec(%rbp)
    ba31:	ff ff ff 
    ba34:	c7 85 00 f0 ff ff 4e 	movl   $0xbd25cc4e,-0x1000(%rbp)
    ba3b:	cc 25 bd 
    ba3e:	c7 85 04 f0 ff ff 52 	movl   $0xa3c57d52,-0xffc(%rbp)
    ba45:	7d c5 a3 
    ba48:	c7 85 08 f0 ff ff 4e 	movl   $0xbd25cc4e,-0xff8(%rbp)
    ba4f:	cc 25 bd 
    ba52:	c7 85 0c f0 ff ff 52 	movl   $0xa3c57d52,-0xff4(%rbp)
    ba59:	7d c5 a3 
    ba5c:	48 8d 05 2d 82 01 00 	lea    0x1822d(%rip),%rax        # 23c90 <g_1988+0x10>
    ba63:	48 89 85 90 ee ff ff 	mov    %rax,-0x1170(%rbp)
    ba6a:	48 8d 85 90 ee ff ff 	lea    -0x1170(%rbp),%rax
    ba71:	48 89 85 98 ee ff ff 	mov    %rax,-0x1168(%rbp)
    ba78:	48 8d 85 98 ee ff ff 	lea    -0x1168(%rbp),%rax
    ba7f:	48 89 85 a0 ee ff ff 	mov    %rax,-0x1160(%rbp)
    ba86:	48 8d 85 a0 ee ff ff 	lea    -0x1160(%rbp),%rax
    ba8d:	48 89 85 a0 f0 ff ff 	mov    %rax,-0xf60(%rbp)
    ba94:	48 8d 85 a0 ee ff ff 	lea    -0x1160(%rbp),%rax
    ba9b:	48 89 85 a8 f0 ff ff 	mov    %rax,-0xf58(%rbp)
    baa2:	48 8d 85 a0 ee ff ff 	lea    -0x1160(%rbp),%rax
    baa9:	48 89 85 b0 f0 ff ff 	mov    %rax,-0xf50(%rbp)
    bab0:	48 8d 85 a0 ee ff ff 	lea    -0x1160(%rbp),%rax
    bab7:	48 89 85 b8 f0 ff ff 	mov    %rax,-0xf48(%rbp)
    babe:	48 8d 85 a0 ee ff ff 	lea    -0x1160(%rbp),%rax
    bac5:	48 89 85 c0 f0 ff ff 	mov    %rax,-0xf40(%rbp)
    bacc:	48 8d 85 a0 ee ff ff 	lea    -0x1160(%rbp),%rax
    bad3:	48 89 85 c8 f0 ff ff 	mov    %rax,-0xf38(%rbp)
    bada:	48 b8 b0 84 d2 11 31 	movabs $0x90abba3111d284b0,%rax
    bae1:	ba ab 90 
    bae4:	48 89 85 38 ef ff ff 	mov    %rax,-0x10c8(%rbp)
    baeb:	c6 85 cc ed ff ff 91 	movb   $0x91,-0x1234(%rbp)
    baf2:	66 0f be 85 b8 ed ff 	movsbw -0x1248(%rbp),%ax
    baf9:	ff 
    bafa:	0f b7 d8             	movzwl %ax,%ebx
    bafd:	48 8b 05 84 7f 01 00 	mov    0x17f84(%rip),%rax        # 23a88 <g_1408>
    bb04:	48 8b 00             	mov    (%rax),%rax
    bb07:	0f b7 00             	movzwl (%rax),%eax
    bb0a:	66 85 c0             	test   %ax,%ax
    bb0d:	0f 85 b1 01 00 00    	jne    bcc4 <func_6+0x1586>
    bb13:	48 8b 05 8e 7f 01 00 	mov    0x17f8e(%rip),%rax        # 23aa8 <g_1546>
    bb1a:	48 8b 00             	mov    (%rax),%rax
    bb1d:	48 85 c0             	test   %rax,%rax
    bb20:	0f 95 c0             	setne  %al
    bb23:	88 85 b0 ed ff ff    	mov    %al,-0x1250(%rbp)
    bb29:	48 8b 85 e0 ee ff ff 	mov    -0x1120(%rbp),%rax
    bb30:	48 8b 00             	mov    (%rax),%rax
    bb33:	8b 00                	mov    (%rax),%eax
    bb35:	48 98                	cltq   
    bb37:	48 89 85 a8 ed ff ff 	mov    %rax,-0x1258(%rbp)
    bb3e:	48 8b 05 3b 83 01 00 	mov    0x1833b(%rip),%rax        # 23e80 <g_2361>
    bb45:	8b 00                	mov    (%rax),%eax
    bb47:	89 c0                	mov    %eax,%eax
    bb49:	48 89 85 a0 ed ff ff 	mov    %rax,-0x1260(%rbp)
    bb50:	8b 85 bc ed ff ff    	mov    -0x1244(%rbp),%eax
    bb56:	4c 63 e0             	movslq %eax,%r12
    bb59:	8b 85 f0 ed ff ff    	mov    -0x1210(%rbp),%eax
    bb5f:	44 0f bf e8          	movswl %ax,%r13d
    bb63:	8b 85 08 ee ff ff    	mov    -0x11f8(%rbp),%eax
    bb69:	4c 63 f0             	movslq %eax,%r14
    bb6c:	8b 85 14 ee ff ff    	mov    -0x11ec(%rbp),%eax
    bb72:	44 0f b7 f8          	movzwl %ax,%r15d
    bb76:	8b 85 14 ee ff ff    	mov    -0x11ec(%rbp),%eax
    bb7c:	0f b6 c0             	movzbl %al,%eax
    bb7f:	8b 95 bc ed ff ff    	mov    -0x1244(%rbp),%edx
    bb85:	89 d6                	mov    %edx,%esi
    bb87:	89 c7                	mov    %eax,%edi
    bb89:	e8 77 c0 ff ff       	callq  7c05 <safe_lshift_func_uint8_t_u_s>
    bb8e:	8b 85 bc ed ff ff    	mov    -0x1244(%rbp),%eax
    bb94:	0f b7 c0             	movzwl %ax,%eax
    bb97:	44 89 fe             	mov    %r15d,%esi
    bb9a:	89 c7                	mov    %eax,%edi
    bb9c:	e8 ed c1 ff ff       	callq  7d8e <safe_div_func_uint16_t_u_u>
    bba1:	48 8b 85 d8 ee ff ff 	mov    -0x1128(%rbp),%rax
    bba8:	c6 00 00             	movb   $0x0,(%rax)
    bbab:	48 8b 05 7e 7d 01 00 	mov    0x17d7e(%rip),%rax        # 23930 <g_794>
    bbb2:	48 8b 00             	mov    (%rax),%rax
    bbb5:	48 8b 00             	mov    (%rax),%rax
    bbb8:	48 8b 10             	mov    (%rax),%rdx
    bbbb:	48 8b 05 de 80 01 00 	mov    0x180de(%rip),%rax        # 23ca0 <g_1987>
    bbc2:	48 8b 00             	mov    (%rax),%rax
    bbc5:	48 8b 00             	mov    (%rax),%rax
    bbc8:	48 39 c2             	cmp    %rax,%rdx
    bbcb:	0f 95 c0             	setne  %al
    bbce:	0f b6 c0             	movzbl %al,%eax
    bbd1:	4c 89 f6             	mov    %r14,%rsi
    bbd4:	48 89 c7             	mov    %rax,%rdi
    bbd7:	e8 d8 bd ff ff       	callq  79b4 <safe_mod_func_int64_t_s_s>
    bbdc:	48 85 c0             	test   %rax,%rax
    bbdf:	74 07                	je     bbe8 <func_6+0x14aa>
    bbe1:	b8 01 00 00 00       	mov    $0x1,%eax
    bbe6:	eb 05                	jmp    bbed <func_6+0x14af>
    bbe8:	b8 00 00 00 00       	mov    $0x0,%eax
    bbed:	0f be c0             	movsbl %al,%eax
    bbf0:	be 5d 00 00 00       	mov    $0x5d,%esi
    bbf5:	89 c7                	mov    %eax,%edi
    bbf7:	e8 35 b6 ff ff       	callq  7231 <safe_mod_func_int8_t_s_s>
    bbfc:	0f be c0             	movsbl %al,%eax
    bbff:	44 89 ee             	mov    %r13d,%esi
    bc02:	89 c7                	mov    %eax,%edi
    bc04:	e8 ec b7 ff ff       	callq  73f5 <safe_mul_func_int16_t_s_s>
    bc09:	0f bf d0             	movswl %ax,%edx
    bc0c:	48 8b 85 e0 ee ff ff 	mov    -0x1120(%rbp),%rax
    bc13:	48 8b 00             	mov    (%rax),%rax
    bc16:	8b 00                	mov    (%rax),%eax
    bc18:	39 c2                	cmp    %eax,%edx
    bc1a:	0f 95 c0             	setne  %al
    bc1d:	0f b6 d0             	movzbl %al,%edx
    bc20:	48 8b 05 29 7c 01 00 	mov    0x17c29(%rip),%rax        # 23850 <g_408>
    bc27:	8b 00                	mov    (%rax),%eax
    bc29:	39 c2                	cmp    %eax,%edx
    bc2b:	0f 9f c0             	setg   %al
    bc2e:	0f b6 c0             	movzbl %al,%eax
    bc31:	4c 89 e6             	mov    %r12,%rsi
    bc34:	48 89 c7             	mov    %rax,%rdi
    bc37:	e8 44 c4 ff ff       	callq  8080 <safe_mod_func_uint64_t_u_u>
    bc3c:	48 23 85 a0 ed ff ff 	and    -0x1260(%rbp),%rax
    bc43:	48 39 85 a8 ed ff ff 	cmp    %rax,-0x1258(%rbp)
    bc4a:	77 07                	ja     bc53 <func_6+0x1515>
    bc4c:	b8 01 00 00 00       	mov    $0x1,%eax
    bc51:	eb 05                	jmp    bc58 <func_6+0x151a>
    bc53:	b8 00 00 00 00       	mov    $0x0,%eax
    bc58:	3b 85 f0 ed ff ff    	cmp    -0x1210(%rbp),%eax
    bc5e:	0f 9e c0             	setle  %al
    bc61:	32 85 b0 ed ff ff    	xor    -0x1250(%rbp),%al
    bc67:	83 c8 11             	or     $0x11,%eax
    bc6a:	0f b6 d0             	movzbl %al,%edx
    bc6d:	8b 85 bc ed ff ff    	mov    -0x1244(%rbp),%eax
    bc73:	0f b6 c0             	movzbl %al,%eax
    bc76:	89 d6                	mov    %edx,%esi
    bc78:	89 c7                	mov    %eax,%edi
    bc7a:	e8 db be ff ff       	callq  7b5a <safe_add_func_uint8_t_u_u>
    bc7f:	0f b6 c0             	movzbl %al,%eax
    bc82:	be 0f 89 01 b4       	mov    $0xb401890f,%esi
    bc87:	89 c7                	mov    %eax,%edi
    bc89:	e8 3e ba ff ff       	callq  76cc <safe_mod_func_int32_t_s_s>
    bc8e:	85 c0                	test   %eax,%eax
    bc90:	74 10                	je     bca2 <func_6+0x1564>
    bc92:	83 bd bc ed ff ff 00 	cmpl   $0x0,-0x1244(%rbp)
    bc99:	74 07                	je     bca2 <func_6+0x1564>
    bc9b:	ba 01 00 00 00       	mov    $0x1,%edx
    bca0:	eb 05                	jmp    bca7 <func_6+0x1569>
    bca2:	ba 00 00 00 00       	mov    $0x0,%edx
    bca7:	48 8b 05 da 7d 01 00 	mov    0x17dda(%rip),%rax        # 23a88 <g_1408>
    bcae:	48 8b 00             	mov    (%rax),%rax
    bcb1:	0f b7 00             	movzwl (%rax),%eax
    bcb4:	0f b7 c0             	movzwl %ax,%eax
    bcb7:	09 c2                	or     %eax,%edx
    bcb9:	0f be 85 b8 ed ff ff 	movsbl -0x1248(%rbp),%eax
    bcc0:	39 c2                	cmp    %eax,%edx
    bcc2:	74 07                	je     bccb <func_6+0x158d>
    bcc4:	b8 01 00 00 00       	mov    $0x1,%eax
    bcc9:	eb 05                	jmp    bcd0 <func_6+0x1592>
    bccb:	b8 00 00 00 00       	mov    $0x0,%eax
    bcd0:	0f b7 c0             	movzwl %ax,%eax
    bcd3:	89 de                	mov    %ebx,%esi
    bcd5:	89 c7                	mov    %eax,%edi
    bcd7:	e8 61 c0 ff ff       	callq  7d3d <safe_mul_func_uint16_t_u_u>
    bcdc:	48 8b 15 bd 7d 01 00 	mov    0x17dbd(%rip),%rdx        # 23aa0 <g_1547>
    bce3:	0f b7 12             	movzwl (%rdx),%edx
    bce6:	66 39 d0             	cmp    %dx,%ax
    bce9:	0f 92 c0             	setb   %al
    bcec:	0f b6 d0             	movzbl %al,%edx
    bcef:	0f be 85 b8 ed ff ff 	movsbl -0x1248(%rbp),%eax
    bcf6:	39 c2                	cmp    %eax,%edx
    bcf8:	0f 9d c0             	setge  %al
    bcfb:	0f b6 c0             	movzbl %al,%eax
    bcfe:	48 c7 c6 fc ff ff ff 	mov    $0xfffffffffffffffc,%rsi
    bd05:	48 89 c7             	mov    %rax,%rdi
    bd08:	e8 ea bc ff ff       	callq  79f7 <safe_div_func_int64_t_s_s>
    bd0d:	48 89 c2             	mov    %rax,%rdx
    bd10:	48 8b 85 e0 ee ff ff 	mov    -0x1120(%rbp),%rax
    bd17:	48 8b 00             	mov    (%rax),%rax
    bd1a:	89 10                	mov    %edx,(%rax)
    bd1c:	8b 00                	mov    (%rax),%eax
    bd1e:	85 c0                	test   %eax,%eax
    bd20:	74 2b                	je     bd4d <func_6+0x160f>
    bd22:	8b 85 bc ed ff ff    	mov    -0x1244(%rbp),%eax
    bd28:	0f be c0             	movsbl %al,%eax
    bd2b:	89 c7                	mov    %eax,%edi
    bd2d:	e8 8d b4 ff ff       	callq  71bf <safe_unary_minus_func_int8_t_s>
    bd32:	48 8b 05 df 7f 01 00 	mov    0x17fdf(%rip),%rax        # 23d18 <g_2307>
    bd39:	48 8b 00             	mov    (%rax),%rax
    bd3c:	48 8b 00             	mov    (%rax),%rax
    bd3f:	0f be 95 b8 ed ff ff 	movsbl -0x1248(%rbp),%edx
    bd46:	89 10                	mov    %edx,(%rax)
    bd48:	e9 16 0c 00 00       	jmpq   c963 <func_6+0x2225>
    bd4d:	48 8d 05 e4 7b 01 00 	lea    0x17be4(%rip),%rax        # 23938 <g_844>
    bd54:	48 89 85 a8 ee ff ff 	mov    %rax,-0x1158(%rbp)
    bd5b:	48 8d 85 a8 ee ff ff 	lea    -0x1158(%rbp),%rax
    bd62:	48 89 85 b0 ee ff ff 	mov    %rax,-0x1150(%rbp)
    bd69:	c7 85 10 f5 ff ff f1 	movl   $0x95c154f1,-0xaf0(%rbp)
    bd70:	54 c1 95 
    bd73:	c7 85 14 f5 ff ff 01 	movl   $0x1,-0xaec(%rbp)
    bd7a:	00 00 00 
    bd7d:	c7 85 18 f5 ff ff bf 	movl   $0x6c3ea2bf,-0xae8(%rbp)
    bd84:	a2 3e 6c 
    bd87:	c7 85 1c f5 ff ff 01 	movl   $0x1,-0xae4(%rbp)
    bd8e:	00 00 00 
    bd91:	c7 85 20 f5 ff ff f1 	movl   $0x95c154f1,-0xae0(%rbp)
    bd98:	54 c1 95 
    bd9b:	c7 85 24 f5 ff ff 1d 	movl   $0xa273581d,-0xadc(%rbp)
    bda2:	58 73 a2 
    bda5:	c7 85 28 f5 ff ff f1 	movl   $0x85a6fbf1,-0xad8(%rbp)
    bdac:	fb a6 85 
    bdaf:	c7 85 2c f5 ff ff 1e 	movl   $0x6fae6d1e,-0xad4(%rbp)
    bdb6:	6d ae 6f 
    bdb9:	c7 85 30 f5 ff ff f1 	movl   $0x85a6fbf1,-0xad0(%rbp)
    bdc0:	fb a6 85 
    bdc3:	c7 85 34 f5 ff ff 1d 	movl   $0xa273581d,-0xacc(%rbp)
    bdca:	58 73 a2 
    bdcd:	c7 85 38 f5 ff ff f1 	movl   $0x95c154f1,-0xac8(%rbp)
    bdd4:	54 c1 95 
    bdd7:	c7 85 3c f5 ff ff 01 	movl   $0x1,-0xac4(%rbp)
    bdde:	00 00 00 
    bde1:	c7 85 40 f5 ff ff bf 	movl   $0x6c3ea2bf,-0xac0(%rbp)
    bde8:	a2 3e 6c 
    bdeb:	c7 85 44 f5 ff ff 01 	movl   $0x1,-0xabc(%rbp)
    bdf2:	00 00 00 
    bdf5:	c7 85 48 f5 ff ff f1 	movl   $0x95c154f1,-0xab8(%rbp)
    bdfc:	54 c1 95 
    bdff:	c7 85 4c f5 ff ff 1d 	movl   $0xa273581d,-0xab4(%rbp)
    be06:	58 73 a2 
    be09:	c7 85 50 f5 ff ff f1 	movl   $0x85a6fbf1,-0xab0(%rbp)
    be10:	fb a6 85 
    be13:	c7 85 54 f5 ff ff 1e 	movl   $0x6fae6d1e,-0xaac(%rbp)
    be1a:	6d ae 6f 
    be1d:	c7 85 58 f5 ff ff f1 	movl   $0x85a6fbf1,-0xaa8(%rbp)
    be24:	fb a6 85 
    be27:	c7 85 5c f5 ff ff 1d 	movl   $0xa273581d,-0xaa4(%rbp)
    be2e:	58 73 a2 
    be31:	c7 85 60 f5 ff ff f1 	movl   $0x95c154f1,-0xaa0(%rbp)
    be38:	54 c1 95 
    be3b:	c7 85 64 f5 ff ff 01 	movl   $0x1,-0xa9c(%rbp)
    be42:	00 00 00 
    be45:	c7 85 68 f5 ff ff bf 	movl   $0x6c3ea2bf,-0xa98(%rbp)
    be4c:	a2 3e 6c 
    be4f:	c7 85 6c f5 ff ff 01 	movl   $0x1,-0xa94(%rbp)
    be56:	00 00 00 
    be59:	c7 85 70 f5 ff ff f1 	movl   $0x95c154f1,-0xa90(%rbp)
    be60:	54 c1 95 
    be63:	c7 85 74 f5 ff ff 1d 	movl   $0xa273581d,-0xa8c(%rbp)
    be6a:	58 73 a2 
    be6d:	c7 85 78 f5 ff ff f1 	movl   $0x85a6fbf1,-0xa88(%rbp)
    be74:	fb a6 85 
    be77:	c7 85 7c f5 ff ff 1e 	movl   $0x6fae6d1e,-0xa84(%rbp)
    be7e:	6d ae 6f 
    be81:	c7 85 80 f5 ff ff f1 	movl   $0x85a6fbf1,-0xa80(%rbp)
    be88:	fb a6 85 
    be8b:	c7 85 84 f5 ff ff 1d 	movl   $0xa273581d,-0xa7c(%rbp)
    be92:	58 73 a2 
    be95:	c7 85 88 f5 ff ff f1 	movl   $0x95c154f1,-0xa78(%rbp)
    be9c:	54 c1 95 
    be9f:	c7 85 8c f5 ff ff 01 	movl   $0x1,-0xa74(%rbp)
    bea6:	00 00 00 
    bea9:	c7 85 90 f5 ff ff bf 	movl   $0x6c3ea2bf,-0xa70(%rbp)
    beb0:	a2 3e 6c 
    beb3:	c7 85 94 f5 ff ff 01 	movl   $0x1,-0xa6c(%rbp)
    beba:	00 00 00 
    bebd:	c7 85 98 f5 ff ff f1 	movl   $0x95c154f1,-0xa68(%rbp)
    bec4:	54 c1 95 
    bec7:	c7 85 9c f5 ff ff 1d 	movl   $0xa273581d,-0xa64(%rbp)
    bece:	58 73 a2 
    bed1:	c7 85 a0 f5 ff ff f1 	movl   $0x85a6fbf1,-0xa60(%rbp)
    bed8:	fb a6 85 
    bedb:	c7 85 a4 f5 ff ff 1e 	movl   $0x6fae6d1e,-0xa5c(%rbp)
    bee2:	6d ae 6f 
    bee5:	c7 85 a8 f5 ff ff f1 	movl   $0x85a6fbf1,-0xa58(%rbp)
    beec:	fb a6 85 
    beef:	c7 85 ac f5 ff ff 1d 	movl   $0xa273581d,-0xa54(%rbp)
    bef6:	58 73 a2 
    bef9:	c7 85 b0 f5 ff ff f1 	movl   $0x95c154f1,-0xa50(%rbp)
    bf00:	54 c1 95 
    bf03:	c7 85 b4 f5 ff ff 01 	movl   $0x1,-0xa4c(%rbp)
    bf0a:	00 00 00 
    bf0d:	c7 85 b8 f5 ff ff bf 	movl   $0x6c3ea2bf,-0xa48(%rbp)
    bf14:	a2 3e 6c 
    bf17:	c7 85 bc f5 ff ff 01 	movl   $0x1,-0xa44(%rbp)
    bf1e:	00 00 00 
    bf21:	c7 85 c0 f5 ff ff f1 	movl   $0x95c154f1,-0xa40(%rbp)
    bf28:	54 c1 95 
    bf2b:	c7 85 c4 f5 ff ff 1d 	movl   $0xa273581d,-0xa3c(%rbp)
    bf32:	58 73 a2 
    bf35:	c7 85 c8 f5 ff ff f1 	movl   $0x85a6fbf1,-0xa38(%rbp)
    bf3c:	fb a6 85 
    bf3f:	c7 85 cc f5 ff ff 1e 	movl   $0x6fae6d1e,-0xa34(%rbp)
    bf46:	6d ae 6f 
    bf49:	c7 85 d0 f5 ff ff f1 	movl   $0x85a6fbf1,-0xa30(%rbp)
    bf50:	fb a6 85 
    bf53:	c7 85 d4 f5 ff ff 1d 	movl   $0xa273581d,-0xa2c(%rbp)
    bf5a:	58 73 a2 
    bf5d:	48 8d 05 4c 52 01 00 	lea    0x1524c(%rip),%rax        # 211b0 <g_407>
    bf64:	48 89 85 40 ef ff ff 	mov    %rax,-0x10c0(%rbp)
    bf6b:	66 c7 85 d4 ed ff ff 	movw   $0x0,-0x122c(%rbp)
    bf72:	00 00 
    bf74:	48 c7 85 48 ef ff ff 	movq   $0x1,-0x10b8(%rbp)
    bf7b:	01 00 00 00 
    bf7f:	c7 85 f8 ed ff ff 00 	movl   $0x0,-0x1208(%rbp)
    bf86:	00 00 00 
    bf89:	eb 1e                	jmp    bfa9 <func_6+0x186b>
    bf8b:	8b 85 f8 ed ff ff    	mov    -0x1208(%rbp),%eax
    bf91:	48 98                	cltq   
    bf93:	48 8d 95 b0 ee ff ff 	lea    -0x1150(%rbp),%rdx
    bf9a:	48 89 94 c5 50 f0 ff 	mov    %rdx,-0xfb0(%rbp,%rax,8)
    bfa1:	ff 
    bfa2:	83 85 f8 ed ff ff 01 	addl   $0x1,-0x1208(%rbp)
    bfa9:	83 bd f8 ed ff ff 02 	cmpl   $0x2,-0x1208(%rbp)
    bfb0:	7e d9                	jle    bf8b <func_6+0x184d>
    bfb2:	48 8b 85 d8 ee ff ff 	mov    -0x1128(%rbp),%rax
    bfb9:	c6 00 f6             	movb   $0xf6,(%rax)
    bfbc:	48 8b 85 d8 ee ff ff 	mov    -0x1128(%rbp),%rax
    bfc3:	0f b6 10             	movzbl (%rax),%edx
    bfc6:	48 8b 85 40 ef ff ff 	mov    -0x10c0(%rbp),%rax
    bfcd:	88 10                	mov    %dl,(%rax)
    bfcf:	48 8b 85 40 ef ff ff 	mov    -0x10c0(%rbp),%rax
    bfd6:	0f b6 00             	movzbl (%rax),%eax
    bfd9:	0f b6 d8             	movzbl %al,%ebx
    bfdc:	44 8b a5 28 f5 ff ff 	mov    -0xad8(%rbp),%r12d
    bfe3:	8b 85 9c f5 ff ff    	mov    -0xa64(%rbp),%eax
    bfe9:	85 c0                	test   %eax,%eax
    bfeb:	0f 95 c0             	setne  %al
    bfee:	0f b6 d0             	movzbl %al,%edx
    bff1:	8b 85 bc ed ff ff    	mov    -0x1244(%rbp),%eax
    bff7:	0f be c0             	movsbl %al,%eax
    bffa:	89 d6                	mov    %edx,%esi
    bffc:	89 c7                	mov    %eax,%edi
    bffe:	e8 eb b2 ff ff       	callq  72ee <safe_lshift_func_int8_t_s_u>
    c003:	0f be c0             	movsbl %al,%eax
    c006:	41 39 c4             	cmp    %eax,%r12d
    c009:	0f 95 c0             	setne  %al
    c00c:	0f b6 c0             	movzbl %al,%eax
    c00f:	89 de                	mov    %ebx,%esi
    c011:	89 c7                	mov    %eax,%edi
    c013:	e8 54 b3 ff ff       	callq  736c <safe_rshift_func_int8_t_s_u>
    c018:	0f be d0             	movsbl %al,%edx
    c01b:	48 8b 05 fe 78 01 00 	mov    0x178fe(%rip),%rax        # 23920 <g_796>
    c022:	48 8b 00             	mov    (%rax),%rax
    c025:	48 8b 85 f0 ee ff ff 	mov    -0x1110(%rbp),%rax
    c02c:	48 89 85 60 f0 ff ff 	mov    %rax,-0xfa0(%rbp)
    c033:	48 8b 85 60 f0 ff ff 	mov    -0xfa0(%rbp),%rax
    c03a:	48 39 85 10 ef ff ff 	cmp    %rax,-0x10f0(%rbp)
    c041:	0f 95 c0             	setne  %al
    c044:	0f b6 c0             	movzbl %al,%eax
    c047:	89 d6                	mov    %edx,%esi
    c049:	89 c7                	mov    %eax,%edi
    c04b:	e8 80 be ff ff       	callq  7ed0 <safe_sub_func_uint32_t_u_u>
    c050:	85 c0                	test   %eax,%eax
    c052:	74 65                	je     c0b9 <func_6+0x197b>
    c054:	66 c7 85 d6 ed ff ff 	movw   $0xffff,-0x122a(%rbp)
    c05b:	ff ff 
    c05d:	8b 85 08 f0 ff ff    	mov    -0xff8(%rbp),%eax
    c063:	83 e0 01             	and    $0x1,%eax
    c066:	89 85 08 f0 ff ff    	mov    %eax,-0xff8(%rbp)
    c06c:	8b 9d bc ed ff ff    	mov    -0x1244(%rbp),%ebx
    c072:	48 8b 85 e0 ee ff ff 	mov    -0x1120(%rbp),%rax
    c079:	48 8b 00             	mov    (%rax),%rax
    c07c:	8b 00                	mov    (%rax),%eax
    c07e:	44 0f bf e0          	movswl %ax,%r12d
    c082:	be 03 00 00 00       	mov    $0x3,%esi
    c087:	bf ff ff ff ff       	mov    $0xffffffff,%edi
    c08c:	e8 a4 b2 ff ff       	callq  7335 <safe_rshift_func_int8_t_s_s>
    c091:	0f be d0             	movsbl %al,%edx
    c094:	8b 85 c0 f5 ff ff    	mov    -0xa40(%rbp),%eax
    c09a:	89 c1                	mov    %eax,%ecx
    c09c:	48 8b 05 fd 7d 01 00 	mov    0x17dfd(%rip),%rax        # 23ea0 <g_2357>
    c0a3:	48 8b 00             	mov    (%rax),%rax
    c0a6:	48 8b 00             	mov    (%rax),%rax
    c0a9:	48 8b 00             	mov    (%rax),%rax
    c0ac:	48 8b 00             	mov    (%rax),%rax
    c0af:	8b 00                	mov    (%rax),%eax
    c0b1:	21 c8                	and    %ecx,%eax
    c0b3:	39 c2                	cmp    %eax,%edx
    c0b5:	72 2c                	jb     c0e3 <func_6+0x19a5>
    c0b7:	eb 20                	jmp    c0d9 <func_6+0x199b>
    c0b9:	48 8b 85 e0 ee ff ff 	mov    -0x1120(%rbp),%rax
    c0c0:	48 8d 95 10 f5 ff ff 	lea    -0xaf0(%rbp),%rdx
    c0c7:	48 83 c2 2c          	add    $0x2c,%rdx
    c0cb:	48 89 10             	mov    %rdx,(%rax)
    c0ce:	8b 05 00 19 01 00    	mov    0x11900(%rip),%eax        # 1d9d4 <l_2698.4401+0x14>
    c0d4:	e9 c4 0b 00 00       	jmpq   cc9d <func_6+0x255f>
    c0d9:	8b 05 5d 19 01 00    	mov    0x1195d(%rip),%eax        # 1da3c <l_2698.4401+0x7c>
    c0df:	85 c0                	test   %eax,%eax
    c0e1:	74 07                	je     c0ea <func_6+0x19ac>
    c0e3:	b8 01 00 00 00       	mov    $0x1,%eax
    c0e8:	eb 05                	jmp    c0ef <func_6+0x19b1>
    c0ea:	b8 00 00 00 00       	mov    $0x0,%eax
    c0ef:	89 c2                	mov    %eax,%edx
    c0f1:	8b 85 28 f5 ff ff    	mov    -0xad8(%rbp),%eax
    c0f7:	31 d0                	xor    %edx,%eax
    c0f9:	89 c2                	mov    %eax,%edx
    c0fb:	48 8b 85 d8 ee ff ff 	mov    -0x1128(%rbp),%rax
    c102:	88 10                	mov    %dl,(%rax)
    c104:	48 8b 85 d8 ee ff ff 	mov    -0x1128(%rbp),%rax
    c10b:	0f b6 00             	movzbl (%rax),%eax
    c10e:	44 0f b6 e8          	movzbl %al,%r13d
    c112:	48 8b 05 a7 7b 01 00 	mov    0x17ba7(%rip),%rax        # 23cc0 <g_2154>
    c119:	48 8b 10             	mov    (%rax),%rdx
    c11c:	48 8b 85 68 ee ff ff 	mov    -0x1198(%rbp),%rax
    c123:	48 39 c2             	cmp    %rax,%rdx
    c126:	0f 95 c0             	setne  %al
    c129:	0f b6 d0             	movzbl %al,%edx
    c12c:	0f be 85 b8 ed ff ff 	movsbl -0x1248(%rbp),%eax
    c133:	89 d6                	mov    %edx,%esi
    c135:	89 c7                	mov    %eax,%edi
    c137:	e8 94 bd ff ff       	callq  7ed0 <safe_sub_func_uint32_t_u_u>
    c13c:	41 89 c6             	mov    %eax,%r14d
    c13f:	48 8b 85 e0 ee ff ff 	mov    -0x1120(%rbp),%rax
    c146:	48 8b 00             	mov    (%rax),%rax
    c149:	8b 00                	mov    (%rax),%eax
    c14b:	98                   	cwtl   
    c14c:	8b 95 14 ee ff ff    	mov    -0x11ec(%rbp),%edx
    c152:	89 d6                	mov    %edx,%esi
    c154:	89 c7                	mov    %eax,%edi
    c156:	e8 37 b3 ff ff       	callq  7492 <safe_lshift_func_int16_t_s_s>
    c15b:	44 31 f0             	xor    %r14d,%eax
    c15e:	0f b6 c0             	movzbl %al,%eax
    c161:	44 89 ee             	mov    %r13d,%esi
    c164:	89 c7                	mov    %eax,%edi
    c166:	e8 28 ba ff ff       	callq  7b93 <safe_mul_func_uint8_t_u_u>
    c16b:	84 c0                	test   %al,%al
    c16d:	74 11                	je     c180 <func_6+0x1a42>
    c16f:	8b 85 08 f0 ff ff    	mov    -0xff8(%rbp),%eax
    c175:	85 c0                	test   %eax,%eax
    c177:	74 07                	je     c180 <func_6+0x1a42>
    c179:	b8 01 00 00 00       	mov    $0x1,%eax
    c17e:	eb 05                	jmp    c185 <func_6+0x1a47>
    c180:	b8 00 00 00 00       	mov    $0x0,%eax
    c185:	48 63 d0             	movslq %eax,%rdx
    c188:	8b 85 14 ee ff ff    	mov    -0x11ec(%rbp),%eax
    c18e:	48 98                	cltq   
    c190:	48 89 d6             	mov    %rdx,%rsi
    c193:	48 89 c7             	mov    %rax,%rdi
    c196:	e8 14 bf ff ff       	callq  80af <safe_div_func_uint64_t_u_u>
    c19b:	89 c2                	mov    %eax,%edx
    c19d:	66 0f be 85 b8 ed ff 	movsbw -0x1248(%rbp),%ax
    c1a4:	ff 
    c1a5:	31 d0                	xor    %edx,%eax
    c1a7:	98                   	cwtl   
    c1a8:	44 89 e6             	mov    %r12d,%esi
    c1ab:	89 c7                	mov    %eax,%edi
    c1ad:	e8 01 b2 ff ff       	callq  73b3 <safe_add_func_int16_t_s_s>
    c1b2:	89 de                	mov    %ebx,%esi
    c1b4:	bf 99 ff ff ff       	mov    $0xffffff99,%edi
    c1b9:	e8 30 b1 ff ff       	callq  72ee <safe_lshift_func_int8_t_s_u>
    c1be:	0f be d0             	movsbl %al,%edx
    c1c1:	8b 85 a0 f5 ff ff    	mov    -0xa60(%rbp),%eax
    c1c7:	39 c2                	cmp    %eax,%edx
    c1c9:	0f 8d 35 02 00 00    	jge    c404 <func_6+0x1cc6>
    c1cf:	48 8d 05 62 4e 01 00 	lea    0x14e62(%rip),%rax        # 21038 <g_27>
    c1d6:	48 89 85 80 ef ff ff 	mov    %rax,-0x1080(%rbp)
    c1dd:	8b 95 28 f5 ff ff    	mov    -0xad8(%rbp),%edx
    c1e3:	48 8b 85 e0 ee ff ff 	mov    -0x1120(%rbp),%rax
    c1ea:	48 8b 00             	mov    (%rax),%rax
    c1ed:	8b 00                	mov    (%rax),%eax
    c1ef:	31 d0                	xor    %edx,%eax
    c1f1:	89 85 28 f5 ff ff    	mov    %eax,-0xad8(%rbp)
    c1f7:	48 8b 05 aa 7c 01 00 	mov    0x17caa(%rip),%rax        # 23ea8 <g_2718>
    c1fe:	48 8b 95 80 ef ff ff 	mov    -0x1080(%rbp),%rdx
    c205:	48 89 10             	mov    %rdx,(%rax)
    c208:	8b 85 bc ed ff ff    	mov    -0x1244(%rbp),%eax
    c20e:	0f bf d8             	movswl %ax,%ebx
    c211:	be 04 00 00 00       	mov    $0x4,%esi
    c216:	bf ff 00 00 00       	mov    $0xff,%edi
    c21b:	e8 e5 b9 ff ff       	callq  7c05 <safe_lshift_func_uint8_t_u_s>
    c220:	0f b6 c0             	movzbl %al,%eax
    c223:	89 c6                	mov    %eax,%esi
    c225:	bf 5b 67 00 00       	mov    $0x675b,%edi
    c22a:	e8 63 b2 ff ff       	callq  7492 <safe_lshift_func_int16_t_s_s>
    c22f:	41 89 c6             	mov    %eax,%r14d
    c232:	48 8b 05 67 78 01 00 	mov    0x17867(%rip),%rax        # 23aa0 <g_1547>
    c239:	44 0f b7 38          	movzwl (%rax),%r15d
    c23d:	48 8b 85 e0 ee ff ff 	mov    -0x1120(%rbp),%rax
    c244:	48 8b 00             	mov    (%rax),%rax
    c247:	44 8b 20             	mov    (%rax),%r12d
    c24a:	48 8b 85 88 ee ff ff 	mov    -0x1178(%rbp),%rax
    c251:	48 8b 00             	mov    (%rax),%rax
    c254:	48 8b 00             	mov    (%rax),%rax
    c257:	8b 00                	mov    (%rax),%eax
    c259:	44 0f bf e8          	movswl %ax,%r13d
    c25d:	48 8b 85 e0 ee ff ff 	mov    -0x1120(%rbp),%rax
    c264:	48 8b 00             	mov    (%rax),%rax
    c267:	8b 00                	mov    (%rax),%eax
    c269:	48 63 d0             	movslq %eax,%rdx
    c26c:	48 8b 85 08 ef ff ff 	mov    -0x10f8(%rbp),%rax
    c273:	48 89 10             	mov    %rdx,(%rax)
    c276:	48 8b 85 08 ef ff ff 	mov    -0x10f8(%rbp),%rax
    c27d:	48 8b 00             	mov    (%rax),%rax
    c280:	48 89 85 b0 ed ff ff 	mov    %rax,-0x1250(%rbp)
    c287:	48 8b 85 e0 ee ff ff 	mov    -0x1120(%rbp),%rax
    c28e:	48 8b 00             	mov    (%rax),%rax
    c291:	8b 00                	mov    (%rax),%eax
    c293:	83 f8 01             	cmp    $0x1,%eax
    c296:	0f 9e c0             	setle  %al
    c299:	0f b6 c0             	movzbl %al,%eax
    c29c:	39 85 bc ed ff ff    	cmp    %eax,-0x1244(%rbp)
    c2a2:	0f 95 c0             	setne  %al
    c2a5:	0f b6 c0             	movzbl %al,%eax
    c2a8:	be 3a 99 ff ff       	mov    $0xffff993a,%esi
    c2ad:	89 c7                	mov    %eax,%edi
    c2af:	e8 41 b1 ff ff       	callq  73f5 <safe_mul_func_int16_t_s_s>
    c2b4:	48 8b 85 80 f0 ff ff 	mov    -0xf80(%rbp),%rax
    c2bb:	48 8d 95 d0 f2 ff ff 	lea    -0xd30(%rbp),%rdx
    c2c2:	48 83 c2 70          	add    $0x70,%rdx
    c2c6:	48 39 d0             	cmp    %rdx,%rax
    c2c9:	0f 95 c0             	setne  %al
    c2cc:	0f b6 c0             	movzbl %al,%eax
    c2cf:	be 02 00 00 00       	mov    $0x2,%esi
    c2d4:	48 89 c7             	mov    %rax,%rdi
    c2d7:	e8 65 b5 ff ff       	callq  7841 <safe_add_func_int64_t_s_s>
    c2dc:	0f b6 c0             	movzbl %al,%eax
    c2df:	be fc 00 00 00       	mov    $0xfc,%esi
    c2e4:	89 c7                	mov    %eax,%edi
    c2e6:	e8 a8 b8 ff ff       	callq  7b93 <safe_mul_func_uint8_t_u_u>
    c2eb:	0f b6 c0             	movzbl %al,%eax
    c2ee:	48 39 85 b0 ed ff ff 	cmp    %rax,-0x1250(%rbp)
    c2f5:	0f 95 c0             	setne  %al
    c2f8:	0f b6 c0             	movzbl %al,%eax
    c2fb:	44 89 ee             	mov    %r13d,%esi
    c2fe:	89 c7                	mov    %eax,%edi
    c300:	e8 11 b1 ff ff       	callq  7416 <safe_mod_func_int16_t_s_s>
    c305:	98                   	cwtl   
    c306:	89 c6                	mov    %eax,%esi
    c308:	bf ef e6 12 b5       	mov    $0xb512e6ef,%edi
    c30d:	e8 f3 b2 ff ff       	callq  7605 <safe_sub_func_int32_t_s_s>
    c312:	0f b7 95 d0 ed ff ff 	movzwl -0x1230(%rbp),%edx
    c319:	39 d0                	cmp    %edx,%eax
    c31b:	0f 9d c0             	setge  %al
    c31e:	0f b6 c0             	movzbl %al,%eax
    c321:	44 89 e6             	mov    %r12d,%esi
    c324:	89 c7                	mov    %eax,%edi
    c326:	e8 d4 b3 ff ff       	callq  76ff <safe_div_func_int32_t_s_s>
    c32b:	0f bf d0             	movswl %ax,%edx
    c32e:	48 8b 85 e0 ee ff ff 	mov    -0x1120(%rbp),%rax
    c335:	48 8b 00             	mov    (%rax),%rax
    c338:	8b 00                	mov    (%rax),%eax
    c33a:	98                   	cwtl   
    c33b:	89 d6                	mov    %edx,%esi
    c33d:	89 c7                	mov    %eax,%edi
    c33f:	e8 b1 b0 ff ff       	callq  73f5 <safe_mul_func_int16_t_s_s>
    c344:	98                   	cwtl   
    c345:	be 00 00 00 00       	mov    $0x0,%esi
    c34a:	89 c7                	mov    %eax,%edi
    c34c:	e8 62 b0 ff ff       	callq  73b3 <safe_add_func_int16_t_s_s>
    c351:	0f b7 c0             	movzwl %ax,%eax
    c354:	be 00 00 00 00       	mov    $0x0,%esi
    c359:	89 c7                	mov    %eax,%edi
    c35b:	e8 bf b9 ff ff       	callq  7d1f <safe_sub_func_uint16_t_u_u>
    c360:	0f b7 c0             	movzwl %ax,%eax
    c363:	be 0b 00 00 00       	mov    $0xb,%esi
    c368:	89 c7                	mov    %eax,%edi
    c36a:	e8 97 ba ff ff       	callq  7e06 <safe_lshift_func_uint16_t_u_u>
    c36f:	48 be e9 03 83 b9 f1 	movabs $0x52f011f1b98303e9,%rsi
    c376:	11 f0 52 
    c379:	48 c7 c7 ff ff ff ff 	mov    $0xffffffffffffffff,%rdi
    c380:	e8 a9 bc ff ff       	callq  802e <safe_add_func_uint64_t_u_u>
    c385:	48 8b 85 40 ef ff ff 	mov    -0x10c0(%rbp),%rax
    c38c:	48 89 85 20 ef ff ff 	mov    %rax,-0x10e0(%rbp)
    c393:	48 8d 05 05 4e 01 00 	lea    0x14e05(%rip),%rax        # 2119f <g_359>
    c39a:	48 39 85 20 ef ff ff 	cmp    %rax,-0x10e0(%rbp)
    c3a1:	0f 95 c0             	setne  %al
    c3a4:	0f b6 d0             	movzbl %al,%edx
    c3a7:	0f bf 85 d4 ed ff ff 	movswl -0x122c(%rbp),%eax
    c3ae:	39 c2                	cmp    %eax,%edx
    c3b0:	0f 9e c0             	setle  %al
    c3b3:	0f b6 c0             	movzbl %al,%eax
    c3b6:	be 05 00 00 00       	mov    $0x5,%esi
    c3bb:	89 c7                	mov    %eax,%edi
    c3bd:	e8 cb b8 ff ff       	callq  7c8d <safe_rshift_func_uint8_t_u_s>
    c3c2:	0f b6 c0             	movzbl %al,%eax
    c3c5:	66 41 39 c7          	cmp    %ax,%r15w
    c3c9:	0f 95 c0             	setne  %al
    c3cc:	0f b6 c0             	movzbl %al,%eax
    c3cf:	8b 95 bc ed ff ff    	mov    -0x1244(%rbp),%edx
    c3d5:	21 d0                	and    %edx,%eax
    c3d7:	44 09 f0             	or     %r14d,%eax
    c3da:	98                   	cwtl   
    c3db:	89 de                	mov    %ebx,%esi
    c3dd:	89 c7                	mov    %eax,%edi
    c3df:	e8 ef af ff ff       	callq  73d3 <safe_sub_func_int16_t_s_s>
    c3e4:	b9 3c d6 85 c8       	mov    $0xc885d63c,%ecx
    c3e9:	48 8b 05 30 79 01 00 	mov    0x17930(%rip),%rax        # 23d20 <g_2306>
    c3f0:	48 8b 00             	mov    (%rax),%rax
    c3f3:	48 8b 00             	mov    (%rax),%rax
    c3f6:	48 8b 00             	mov    (%rax),%rax
    c3f9:	8b 10                	mov    (%rax),%edx
    c3fb:	21 ca                	and    %ecx,%edx
    c3fd:	89 10                	mov    %edx,(%rax)
    c3ff:	e9 5f 05 00 00       	jmpq   c963 <func_6+0x2225>
    c404:	48 c7 85 b8 ee ff ff 	movq   $0x0,-0x1148(%rbp)
    c40b:	00 00 00 00 
    c40f:	48 8d 85 b8 ee ff ff 	lea    -0x1148(%rbp),%rax
    c416:	48 89 85 50 ef ff ff 	mov    %rax,-0x10b0(%rbp)
    c41d:	48 8d 85 80 ee ff ff 	lea    -0x1180(%rbp),%rax
    c424:	48 89 85 58 ef ff ff 	mov    %rax,-0x10a8(%rbp)
    c42b:	48 c7 85 60 ef ff ff 	movq   $0x0,-0x10a0(%rbp)
    c432:	00 00 00 00 
    c436:	c7 85 18 ee ff ff 00 	movl   $0x0,-0x11e8(%rbp)
    c43d:	00 00 00 
    c440:	c7 85 1c ee ff ff 05 	movl   $0x5,-0x11e4(%rbp)
    c447:	00 00 00 
    c44a:	c7 85 20 ee ff ff 09 	movl   $0x9,-0x11e0(%rbp)
    c451:	00 00 00 
    c454:	48 c7 05 41 4d 01 00 	movq   $0x0,0x14d41(%rip)        # 211a0 <g_361>
    c45b:	00 00 00 00 
    c45f:	eb 1b                	jmp    c47c <func_6+0x1d3e>
    c461:	83 bd bc ed ff ff 00 	cmpl   $0x0,-0x1244(%rbp)
    c468:	75 21                	jne    c48b <func_6+0x1d4d>
    c46a:	48 8b 05 2f 4d 01 00 	mov    0x14d2f(%rip),%rax        # 211a0 <g_361>
    c471:	48 83 c0 01          	add    $0x1,%rax
    c475:	48 89 05 24 4d 01 00 	mov    %rax,0x14d24(%rip)        # 211a0 <g_361>
    c47c:	48 8b 05 1d 4d 01 00 	mov    0x14d1d(%rip),%rax        # 211a0 <g_361>
    c483:	48 83 f8 03          	cmp    $0x3,%rax
    c487:	7e d8                	jle    c461 <func_6+0x1d23>
    c489:	eb 01                	jmp    c48c <func_6+0x1d4e>
    c48b:	90                   	nop
    c48c:	8b 85 bc ed ff ff    	mov    -0x1244(%rbp),%eax
    c492:	0f bf d8             	movswl %ax,%ebx
    c495:	48 8b 85 e0 ee ff ff 	mov    -0x1120(%rbp),%rax
    c49c:	48 8b 00             	mov    (%rax),%rax
    c49f:	8b 00                	mov    (%rax),%eax
    c4a1:	44 0f b6 e0          	movzbl %al,%r12d
    c4a5:	83 bd f0 ed ff ff 00 	cmpl   $0x0,-0x1210(%rbp)
    c4ac:	0f 85 c7 00 00 00    	jne    c579 <func_6+0x1e3b>
    c4b2:	66 0f be 85 b8 ed ff 	movsbw -0x1248(%rbp),%ax
    c4b9:	ff 
    c4ba:	44 0f b7 e8          	movzwl %ax,%r13d
    c4be:	0f be 95 b8 ed ff ff 	movsbl -0x1248(%rbp),%edx
    c4c5:	48 8b 85 c8 f0 ff ff 	mov    -0xf38(%rbp),%rax
    c4cc:	48 85 c0             	test   %rax,%rax
    c4cf:	0f 95 c0             	setne  %al
    c4d2:	0f b6 c0             	movzbl %al,%eax
    c4d5:	89 d6                	mov    %edx,%esi
    c4d7:	89 c7                	mov    %eax,%edi
    c4d9:	e8 27 b1 ff ff       	callq  7605 <safe_sub_func_int32_t_s_s>
    c4de:	0f be c0             	movsbl %al,%eax
    c4e1:	be dd ff ff ff       	mov    $0xffffffdd,%esi
    c4e6:	89 c7                	mov    %eax,%edi
    c4e8:	e8 7d ad ff ff       	callq  726a <safe_div_func_int8_t_s_s>
    c4ed:	38 85 b8 ed ff ff    	cmp    %al,-0x1248(%rbp)
    c4f3:	0f 9f c0             	setg   %al
    c4f6:	0f b6 c0             	movzbl %al,%eax
    c4f9:	44 89 ee             	mov    %r13d,%esi
    c4fc:	89 c7                	mov    %eax,%edi
    c4fe:	e8 59 b8 ff ff       	callq  7d5c <safe_mod_func_uint16_t_u_u>
    c503:	66 83 f8 ff          	cmp    $0xffff,%ax
    c507:	0f 95 c0             	setne  %al
    c50a:	0f b6 d0             	movzbl %al,%edx
    c50d:	48 8b 05 74 79 01 00 	mov    0x17974(%rip),%rax        # 23e88 <g_2360>
    c514:	48 8b 00             	mov    (%rax),%rax
    c517:	8b 00                	mov    (%rax),%eax
    c519:	39 c2                	cmp    %eax,%edx
    c51b:	0f 97 c0             	seta   %al
    c51e:	0f b6 d0             	movzbl %al,%edx
    c521:	48 8b 8d 80 ee ff ff 	mov    -0x1180(%rbp),%rcx
    c528:	48 8b 85 58 ef ff ff 	mov    -0x10a8(%rbp),%rax
    c52f:	48 89 08             	mov    %rcx,(%rax)
    c532:	48 8b 85 58 ef ff ff 	mov    -0x10a8(%rbp),%rax
    c539:	48 8b 00             	mov    (%rax),%rax
    c53c:	48 39 85 50 ef ff ff 	cmp    %rax,-0x10b0(%rbp)
    c543:	0f 95 c0             	setne  %al
    c546:	0f b6 c0             	movzbl %al,%eax
    c549:	89 d6                	mov    %edx,%esi
    c54b:	89 c7                	mov    %eax,%edi
    c54d:	e8 9c ad ff ff       	callq  72ee <safe_lshift_func_int8_t_s_u>
    c552:	44 0f b6 e8          	movzbl %al,%r13d
    c556:	0f be 85 b8 ed ff ff 	movsbl -0x1248(%rbp),%eax
    c55d:	8b 95 bc ed ff ff    	mov    -0x1244(%rbp),%edx
    c563:	89 d6                	mov    %edx,%esi
    c565:	89 c7                	mov    %eax,%edi
    c567:	e8 26 af ff ff       	callq  7492 <safe_lshift_func_int16_t_s_s>
    c56c:	0f b6 c0             	movzbl %al,%eax
    c56f:	44 89 ee             	mov    %r13d,%esi
    c572:	89 c7                	mov    %eax,%edi
    c574:	e8 e1 b5 ff ff       	callq  7b5a <safe_add_func_uint8_t_u_u>
    c579:	b8 01 00 00 00       	mov    $0x1,%eax
    c57e:	0f b6 c0             	movzbl %al,%eax
    c581:	44 89 e6             	mov    %r12d,%esi
    c584:	89 c7                	mov    %eax,%edi
    c586:	e8 50 b6 ff ff       	callq  7bdb <safe_div_func_uint8_t_u_u>
    c58b:	89 c2                	mov    %eax,%edx
    c58d:	48 8b 85 e0 ee ff ff 	mov    -0x1120(%rbp),%rax
    c594:	48 8b 00             	mov    (%rax),%rax
    c597:	0f b6 d2             	movzbl %dl,%edx
    c59a:	89 10                	mov    %edx,(%rax)
    c59c:	8b 00                	mov    (%rax),%eax
    c59e:	89 85 08 ee ff ff    	mov    %eax,-0x11f8(%rbp)
    c5a4:	8b 85 08 ee ff ff    	mov    -0x11f8(%rbp),%eax
    c5aa:	98                   	cwtl   
    c5ab:	89 de                	mov    %ebx,%esi
    c5ad:	89 c7                	mov    %eax,%edi
    c5af:	e8 62 ae ff ff       	callq  7416 <safe_mod_func_int16_t_s_s>
    c5b4:	48 0f bf d0          	movswq %ax,%rdx
    c5b8:	48 8b 05 11 77 01 00 	mov    0x17711(%rip),%rax        # 23cd0 <g_2302>
    c5bf:	48 8b 00             	mov    (%rax),%rax
    c5c2:	48 8b 00             	mov    (%rax),%rax
    c5c5:	48 39 c2             	cmp    %rax,%rdx
    c5c8:	0f 9c c0             	setl   %al
    c5cb:	0a 85 b8 ed ff ff    	or     -0x1248(%rbp),%al
    c5d1:	0f be d0             	movsbl %al,%edx
    c5d4:	8b 85 28 f5 ff ff    	mov    -0xad8(%rbp),%eax
    c5da:	f7 d0                	not    %eax
    c5dc:	0f be c0             	movsbl %al,%eax
    c5df:	89 d6                	mov    %edx,%esi
    c5e1:	89 c7                	mov    %eax,%edi
    c5e3:	e8 ec ab ff ff       	callq  71d4 <safe_add_func_int8_t_s_s>
    c5e8:	0f be d0             	movsbl %al,%edx
    c5eb:	48 8b 05 a6 78 01 00 	mov    0x178a6(%rip),%rax        # 23e98 <g_2358>
    c5f2:	48 8b 00             	mov    (%rax),%rax
    c5f5:	48 8b 00             	mov    (%rax),%rax
    c5f8:	48 8b 00             	mov    (%rax),%rax
    c5fb:	8b 00                	mov    (%rax),%eax
    c5fd:	39 c2                	cmp    %eax,%edx
    c5ff:	0f 95 c0             	setne  %al
    c602:	0f b6 d0             	movzbl %al,%edx
    c605:	48 8b 05 7c 74 01 00 	mov    0x1747c(%rip),%rax        # 23a88 <g_1408>
    c60c:	48 8b 00             	mov    (%rax),%rax
    c60f:	0f b7 00             	movzwl (%rax),%eax
    c612:	0f b7 c0             	movzwl %ax,%eax
    c615:	39 c2                	cmp    %eax,%edx
    c617:	0f 9c c0             	setl   %al
    c61a:	0f b6 c0             	movzbl %al,%eax
    c61d:	39 85 bc ed ff ff    	cmp    %eax,-0x1244(%rbp)
    c623:	0f 8c 20 03 00 00    	jl     c949 <func_6+0x220b>
    c629:	48 8d 05 98 80 01 00 	lea    0x18098(%rip),%rax        # 246c8 <g_2218>
    c630:	48 89 85 c0 ee ff ff 	mov    %rax,-0x1140(%rbp)
    c637:	48 8d 85 c0 ee ff ff 	lea    -0x1140(%rbp),%rax
    c63e:	48 89 85 68 ef ff ff 	mov    %rax,-0x1098(%rbp)
    c645:	48 8d 05 24 80 01 00 	lea    0x18024(%rip),%rax        # 24670 <g_845>
    c64c:	48 89 85 c8 ee ff ff 	mov    %rax,-0x1138(%rbp)
    c653:	48 8d 85 c8 ee ff ff 	lea    -0x1138(%rbp),%rax
    c65a:	48 89 85 d0 ee ff ff 	mov    %rax,-0x1130(%rbp)
    c661:	48 8d 85 d0 ee ff ff 	lea    -0x1130(%rbp),%rax
    c668:	48 89 85 70 ef ff ff 	mov    %rax,-0x1090(%rbp)
    c66f:	48 b8 25 69 72 01 e5 	movabs $0x77bfdfe501726925,%rax
    c676:	df bf 77 
    c679:	48 89 85 78 ef ff ff 	mov    %rax,-0x1088(%rbp)
    c680:	c7 85 fc ed ff ff 00 	movl   $0x0,-0x1204(%rbp)
    c687:	00 00 00 
    c68a:	eb 1a                	jmp    c6a6 <func_6+0x1f68>
    c68c:	8b 85 fc ed ff ff    	mov    -0x1204(%rbp),%eax
    c692:	48 98                	cltq   
    c694:	c7 84 85 10 f0 ff ff 	movl   $0x721edff9,-0xff0(%rbp,%rax,4)
    c69b:	f9 df 1e 72 
    c69f:	83 85 fc ed ff ff 01 	addl   $0x1,-0x1204(%rbp)
    c6a6:	83 bd fc ed ff ff 04 	cmpl   $0x4,-0x1204(%rbp)
    c6ad:	7e dd                	jle    c68c <func_6+0x1f4e>
    c6af:	48 8b 85 68 ef ff ff 	mov    -0x1098(%rbp),%rax
    c6b6:	48 8d 15 0b 80 01 00 	lea    0x1800b(%rip),%rdx        # 246c8 <g_2218>
    c6bd:	48 89 10             	mov    %rdx,(%rax)
    c6c0:	8b 85 08 f0 ff ff    	mov    -0xff8(%rbp),%eax
    c6c6:	23 85 bc ed ff ff    	and    -0x1244(%rbp),%eax
    c6cc:	89 85 08 f0 ff ff    	mov    %eax,-0xff8(%rbp)
    c6d2:	8b 05 e8 12 01 00    	mov    0x112e8(%rip),%eax        # 1d9c0 <l_2698.4401>
    c6d8:	0f b6 d8             	movzbl %al,%ebx
    c6db:	8b 85 1c ee ff ff    	mov    -0x11e4(%rbp),%eax
    c6e1:	44 0f b7 e0          	movzwl %ax,%r12d
    c6e5:	8b 85 bc ed ff ff    	mov    -0x1244(%rbp),%eax
    c6eb:	44 0f bf e8          	movswl %ax,%r13d
    c6ef:	8b 85 08 f0 ff ff    	mov    -0xff8(%rbp),%eax
    c6f5:	0f b6 d0             	movzbl %al,%edx
    c6f8:	83 bd 00 ee ff ff 00 	cmpl   $0x0,-0x1200(%rbp)
    c6ff:	0f 95 c0             	setne  %al
    c702:	0f b6 c0             	movzbl %al,%eax
    c705:	89 d6                	mov    %edx,%esi
    c707:	89 c7                	mov    %eax,%edi
    c709:	e8 4c b4 ff ff       	callq  7b5a <safe_add_func_uint8_t_u_u>
    c70e:	44 0f b6 f0          	movzbl %al,%r14d
    c712:	48 8b 85 10 ef ff ff 	mov    -0x10f0(%rbp),%rax
    c719:	48 8b 00             	mov    (%rax),%rax
    c71c:	48 39 85 70 ef ff ff 	cmp    %rax,-0x1090(%rbp)
    c723:	0f 95 c0             	setne  %al
    c726:	0f b6 c0             	movzbl %al,%eax
    c729:	0f be 95 b8 ed ff ff 	movsbl -0x1248(%rbp),%edx
    c730:	89 95 18 ee ff ff    	mov    %edx,-0x11e8(%rbp)
    c736:	0b 85 18 ee ff ff    	or     -0x11e8(%rbp),%eax
    c73c:	48 98                	cltq   
    c73e:	be 01 00 00 00       	mov    $0x1,%esi
    c743:	48 89 c7             	mov    %rax,%rdi
    c746:	e8 35 b9 ff ff       	callq  8080 <safe_mod_func_uint64_t_u_u>
    c74b:	4c 09 f0             	or     %r14,%rax
    c74e:	48 85 c0             	test   %rax,%rax
    c751:	0f 94 c0             	sete   %al
    c754:	0f b6 c0             	movzbl %al,%eax
    c757:	44 89 ee             	mov    %r13d,%esi
    c75a:	89 c7                	mov    %eax,%edi
    c75c:	e8 94 ac ff ff       	callq  73f5 <safe_mul_func_int16_t_s_s>
    c761:	0f b7 c0             	movzwl %ax,%eax
    c764:	44 89 e6             	mov    %r12d,%esi
    c767:	89 c7                	mov    %eax,%edi
    c769:	e8 ee b5 ff ff       	callq  7d5c <safe_mod_func_uint16_t_u_u>
    c76e:	0f b6 c0             	movzbl %al,%eax
    c771:	89 de                	mov    %ebx,%esi
    c773:	89 c7                	mov    %eax,%edi
    c775:	e8 61 b4 ff ff       	callq  7bdb <safe_div_func_uint8_t_u_u>
    c77a:	89 c3                	mov    %eax,%ebx
    c77c:	0f be 85 b8 ed ff ff 	movsbl -0x1248(%rbp),%eax
    c783:	be 03 00 00 00       	mov    $0x3,%esi
    c788:	89 c7                	mov    %eax,%edi
    c78a:	e8 a6 ab ff ff       	callq  7335 <safe_rshift_func_int8_t_s_s>
    c78f:	44 0f be e0          	movsbl %al,%r12d
    c793:	48 0f be 85 b8 ed ff 	movsbq -0x1248(%rbp),%rax
    c79a:	ff 
    c79b:	48 89 c6             	mov    %rax,%rsi
    c79e:	48 c7 c7 ff ff ff ff 	mov    $0xffffffffffffffff,%rdi
    c7a5:	e8 fe b0 ff ff       	callq  78a8 <safe_sub_func_int64_t_s_s>
    c7aa:	48 89 c2             	mov    %rax,%rdx
    c7ad:	48 8b 85 e0 ee ff ff 	mov    -0x1120(%rbp),%rax
    c7b4:	48 8b 00             	mov    (%rax),%rax
    c7b7:	89 10                	mov    %edx,(%rax)
    c7b9:	8b 00                	mov    (%rax),%eax
    c7bb:	0f b6 d3             	movzbl %bl,%edx
    c7be:	21 95 20 ee ff ff    	and    %edx,-0x11e0(%rbp)
    c7c4:	0b 85 20 ee ff ff    	or     -0x11e0(%rbp),%eax
    c7ca:	44 09 e0             	or     %r12d,%eax
    c7cd:	48 98                	cltq   
    c7cf:	48 39 85 78 ef ff ff 	cmp    %rax,-0x1088(%rbp)
    c7d6:	0f 92 c0             	setb   %al
    c7d9:	0f b6 c0             	movzbl %al,%eax
    c7dc:	89 85 28 f5 ff ff    	mov    %eax,-0xad8(%rbp)
    c7e2:	8b 85 28 f5 ff ff    	mov    -0xad8(%rbp),%eax
    c7e8:	89 c7                	mov    %eax,%edi
    c7ea:	e8 a7 ad ff ff       	callq  7596 <safe_unary_minus_func_int32_t_s>
    c7ef:	c7 85 1c ee ff ff 01 	movl   $0x1,-0x11e4(%rbp)
    c7f6:	00 00 00 
    c7f9:	48 8b 05 90 72 01 00 	mov    0x17290(%rip),%rax        # 23a90 <g_1407>
    c800:	48 8b 00             	mov    (%rax),%rax
    c803:	48 8b 00             	mov    (%rax),%rax
    c806:	0f b7 00             	movzwl (%rax),%eax
    c809:	0f b7 d8             	movzwl %ax,%ebx
    c80c:	83 bd bc ed ff ff 00 	cmpl   $0x0,-0x1244(%rbp)
    c813:	0f 85 92 00 00 00    	jne    c8ab <func_6+0x216d>
    c819:	44 0f be a5 b8 ed ff 	movsbl -0x1248(%rbp),%r12d
    c820:	ff 
    c821:	8b 85 bc ed ff ff    	mov    -0x1244(%rbp),%eax
    c827:	0f b6 c0             	movzbl %al,%eax
    c82a:	be 05 00 00 00       	mov    $0x5,%esi
    c82f:	89 c7                	mov    %eax,%edi
    c831:	e8 16 b4 ff ff       	callq  7c4c <safe_lshift_func_uint8_t_u_u>
    c836:	0f b6 c0             	movzbl %al,%eax
    c839:	41 39 c4             	cmp    %eax,%r12d
    c83c:	0f 9c c0             	setl   %al
    c83f:	0f b6 c0             	movzbl %al,%eax
    c842:	be ff 00 00 00       	mov    $0xff,%esi
    c847:	89 c7                	mov    %eax,%edi
    c849:	e8 45 b3 ff ff       	callq  7b93 <safe_mul_func_uint8_t_u_u>
    c84e:	0f b6 c0             	movzbl %al,%eax
    c851:	89 c7                	mov    %eax,%edi
    c853:	e8 45 ab ff ff       	callq  739d <safe_unary_minus_func_int16_t_s>
    c858:	48 0f bf c0          	movswq %ax,%rax
    c85c:	48 39 85 48 ef ff ff 	cmp    %rax,-0x10b8(%rbp)
    c863:	0f 95 c0             	setne  %al
    c866:	0f b6 c0             	movzbl %al,%eax
    c869:	89 85 20 f0 ff ff    	mov    %eax,-0xfe0(%rbp)
    c86f:	8b 95 20 f0 ff ff    	mov    -0xfe0(%rbp),%edx
    c875:	0f be 85 b8 ed ff ff 	movsbl -0x1248(%rbp),%eax
    c87c:	39 c2                	cmp    %eax,%edx
    c87e:	0f 9d c0             	setge  %al
    c881:	0f b6 d0             	movzbl %al,%edx
    c884:	8b 85 18 ee ff ff    	mov    -0x11e8(%rbp),%eax
    c88a:	66 0b 85 d4 ed ff ff 	or     -0x122c(%rbp),%ax
    c891:	98                   	cwtl   
    c892:	89 d6                	mov    %edx,%esi
    c894:	89 c7                	mov    %eax,%edi
    c896:	e8 c8 ac ff ff       	callq  7563 <safe_rshift_func_int16_t_s_u>
    c89b:	bf da ff ff ff       	mov    $0xffffffda,%edi
    c8a0:	e8 1a a9 ff ff       	callq  71bf <safe_unary_minus_func_int8_t_s>
    c8a5:	38 85 b8 ed ff ff    	cmp    %al,-0x1248(%rbp)
    c8ab:	48 8b 05 0e 7e 01 00 	mov    0x17e0e(%rip),%rax        # 246c0 <g_1986>
    c8b2:	48 89 05 07 7e 01 00 	mov    %rax,0x17e07(%rip)        # 246c0 <g_1986>
    c8b9:	48 8b 05 00 7e 01 00 	mov    0x17e00(%rip),%rax        # 246c0 <g_1986>
    c8c0:	48 89 05 99 78 01 00 	mov    %rax,0x17899(%rip)        # 24160 <g_2781>
    c8c7:	48 8b 05 92 78 01 00 	mov    0x17892(%rip),%rax        # 24160 <g_2781>
    c8ce:	48 8d 15 0b 77 01 00 	lea    0x1770b(%rip),%rdx        # 23fe0 <g_2782+0x120>
    c8d5:	48 39 d0             	cmp    %rdx,%rax
    c8d8:	0f 95 c0             	setne  %al
    c8db:	0f b6 c0             	movzbl %al,%eax
    c8de:	be 00 00 00 00       	mov    $0x0,%esi
    c8e3:	89 c7                	mov    %eax,%edi
    c8e5:	e8 1c b5 ff ff       	callq  7e06 <safe_lshift_func_uint16_t_u_u>
    c8ea:	0f b7 d0             	movzwl %ax,%edx
    c8ed:	48 8b 05 3c 70 01 00 	mov    0x1703c(%rip),%rax        # 23930 <g_794>
    c8f4:	48 8b 00             	mov    (%rax),%rax
    c8f7:	48 8b 00             	mov    (%rax),%rax
    c8fa:	48 8b 00             	mov    (%rax),%rax
    c8fd:	48 39 c2             	cmp    %rax,%rdx
    c900:	48 83 ad 38 ef ff ff 	subq   $0x1,-0x10c8(%rbp)
    c907:	01 
    c908:	48 8b 05 91 71 01 00 	mov    0x17191(%rip),%rax        # 23aa0 <g_1547>
    c90f:	0f b7 00             	movzwl (%rax),%eax
    c912:	0f b7 c0             	movzwl %ax,%eax
    c915:	89 de                	mov    %ebx,%esi
    c917:	89 c7                	mov    %eax,%edi
    c919:	e8 1f b4 ff ff       	callq  7d3d <safe_mul_func_uint16_t_u_u>
    c91e:	0f b7 d0             	movzwl %ax,%edx
    c921:	48 8b 05 78 75 01 00 	mov    0x17578(%rip),%rax        # 23ea0 <g_2357>
    c928:	48 8b 00             	mov    (%rax),%rax
    c92b:	48 8b 00             	mov    (%rax),%rax
    c92e:	48 8b 00             	mov    (%rax),%rax
    c931:	48 8b 00             	mov    (%rax),%rax
    c934:	8b 00                	mov    (%rax),%eax
    c936:	31 c2                	xor    %eax,%edx
    c938:	48 8b 05 d9 73 01 00 	mov    0x173d9(%rip),%rax        # 23d18 <g_2307>
    c93f:	48 8b 00             	mov    (%rax),%rax
    c942:	48 8b 00             	mov    (%rax),%rax
    c945:	89 10                	mov    %edx,(%rax)
    c947:	eb 0e                	jmp    c957 <func_6+0x2219>
    c949:	c6 85 cd ed ff ff 59 	movb   $0x59,-0x1233(%rbp)
    c950:	80 85 cc ed ff ff 01 	addb   $0x1,-0x1234(%rbp)
    c957:	48 8b 85 48 ef ff ff 	mov    -0x10b8(%rbp),%rax
    c95e:	e9 3a 03 00 00       	jmpq   cc9d <func_6+0x255f>
    c963:	48 8b 85 e0 ee ff ff 	mov    -0x1120(%rbp),%rax
    c96a:	48 8b 00             	mov    (%rax),%rax
    c96d:	8b 00                	mov    (%rax),%eax
    c96f:	e9 29 03 00 00       	jmpq   cc9d <func_6+0x255f>
    c974:	c7 85 10 ee ff ff 2d 	movl   $0x6306212d,-0x11f0(%rbp)
    c97b:	21 06 63 
    c97e:	66 c7 85 d2 ed ff ff 	movw   $0x31c8,-0x122e(%rbp)
    c985:	c8 31 
    c987:	48 8d 85 10 f5 ff ff 	lea    -0xaf0(%rbp),%rax
    c98e:	48 8d 15 6b f0 00 00 	lea    0xf06b(%rip),%rdx        # 1ba00 <g_2878+0x9a0>
    c995:	b9 79 00 00 00       	mov    $0x79,%ecx
    c99a:	48 89 c7             	mov    %rax,%rdi
    c99d:	48 89 d6             	mov    %rdx,%rsi
    c9a0:	f3 48 a5             	rep movsq %ds:(%rsi),%es:(%rdi)
    c9a3:	48 89 f2             	mov    %rsi,%rdx
    c9a6:	48 89 f8             	mov    %rdi,%rax
    c9a9:	8b 0a                	mov    (%rdx),%ecx
    c9ab:	89 08                	mov    %ecx,(%rax)
    c9ad:	48 0f be 9d b8 ed ff 	movsbq -0x1248(%rbp),%rbx
    c9b4:	ff 
    c9b5:	48 8b 85 d8 ee ff ff 	mov    -0x1128(%rbp),%rax
    c9bc:	0f b6 00             	movzbl (%rax),%eax
    c9bf:	0a 85 b8 ed ff ff    	or     -0x1248(%rbp),%al
    c9c5:	89 c2                	mov    %eax,%edx
    c9c7:	48 8b 85 d8 ee ff ff 	mov    -0x1128(%rbp),%rax
    c9ce:	88 10                	mov    %dl,(%rax)
    c9d0:	83 bd 10 ee ff ff 00 	cmpl   $0x0,-0x11f0(%rbp)
    c9d7:	0f 85 c3 00 00 00    	jne    caa0 <func_6+0x2362>
    c9dd:	8b 05 79 4a 01 00    	mov    0x14a79(%rip),%eax        # 2145c <g_2846>
    c9e3:	44 0f bf a5 d2 ed ff 	movswl -0x122e(%rbp),%r12d
    c9ea:	ff 
    c9eb:	44 0f be ad b8 ed ff 	movsbl -0x1248(%rbp),%r13d
    c9f2:	ff 
    c9f3:	0f be 95 b8 ed ff ff 	movsbl -0x1248(%rbp),%edx
    c9fa:	8b 85 bc ed ff ff    	mov    -0x1244(%rbp),%eax
    ca00:	83 c8 01             	or     $0x1,%eax
    ca03:	0f b7 c0             	movzwl %ax,%eax
    ca06:	89 d6                	mov    %edx,%esi
    ca08:	89 c7                	mov    %eax,%edi
    ca0a:	e8 af b3 ff ff       	callq  7dbe <safe_lshift_func_uint16_t_u_s>
    ca0f:	98                   	cwtl   
    ca10:	44 89 ee             	mov    %r13d,%esi
    ca13:	89 c7                	mov    %eax,%edi
    ca15:	e8 3b aa ff ff       	callq  7455 <safe_div_func_int16_t_s_s>
    ca1a:	0f b6 c0             	movzbl %al,%eax
    ca1d:	44 89 e6             	mov    %r12d,%esi
    ca20:	89 c7                	mov    %eax,%edi
    ca22:	e8 de b1 ff ff       	callq  7c05 <safe_lshift_func_uint8_t_u_s>
    ca27:	0f b6 d0             	movzbl %al,%edx
    ca2a:	0f b6 85 b8 ed ff ff 	movzbl -0x1248(%rbp),%eax
    ca31:	0f b6 c0             	movzbl %al,%eax
    ca34:	89 d6                	mov    %edx,%esi
    ca36:	89 c7                	mov    %eax,%edi
    ca38:	e8 71 b1 ff ff       	callq  7bae <safe_mod_func_uint8_t_u_u>
    ca3d:	89 c2                	mov    %eax,%edx
    ca3f:	48 8b 85 e0 ee ff ff 	mov    -0x1120(%rbp),%rax
    ca46:	48 8b 00             	mov    (%rax),%rax
    ca49:	0f b6 d2             	movzbl %dl,%edx
    ca4c:	89 10                	mov    %edx,(%rax)
    ca4e:	8b 10                	mov    (%rax),%edx
    ca50:	0f be 85 b8 ed ff ff 	movsbl -0x1248(%rbp),%eax
    ca57:	39 c2                	cmp    %eax,%edx
    ca59:	0f 9c c0             	setl   %al
    ca5c:	0f b6 c0             	movzbl %al,%eax
    ca5f:	39 85 0c ee ff ff    	cmp    %eax,-0x11f4(%rbp)
    ca65:	7e 07                	jle    ca6e <func_6+0x2330>
    ca67:	83 bd 10 ee ff ff 00 	cmpl   $0x0,-0x11f0(%rbp)
    ca6e:	be 06 00 00 00       	mov    $0x6,%esi
    ca73:	bf ba 00 00 00       	mov    $0xba,%edi
    ca78:	e8 cf b1 ff ff       	callq  7c4c <safe_lshift_func_uint8_t_u_u>
    ca7d:	48 8b 95 d8 ee ff ff 	mov    -0x1128(%rbp),%rdx
    ca84:	0f b6 12             	movzbl (%rdx),%edx
    ca87:	21 c2                	and    %eax,%edx
    ca89:	48 8b 85 d8 ee ff ff 	mov    -0x1128(%rbp),%rax
    ca90:	88 10                	mov    %dl,(%rax)
    ca92:	48 8b 85 d8 ee ff ff 	mov    -0x1128(%rbp),%rax
    ca99:	0f b6 00             	movzbl (%rax),%eax
    ca9c:	3c b6                	cmp    $0xb6,%al
    ca9e:	76 07                	jbe    caa7 <func_6+0x2369>
    caa0:	b8 01 00 00 00       	mov    $0x1,%eax
    caa5:	eb 05                	jmp    caac <func_6+0x236e>
    caa7:	b8 00 00 00 00       	mov    $0x0,%eax
    caac:	48 98                	cltq   
    caae:	48 89 de             	mov    %rbx,%rsi
    cab1:	48 89 c7             	mov    %rax,%rdi
    cab4:	e8 c7 b5 ff ff       	callq  8080 <safe_mod_func_uint64_t_u_u>
    cab9:	8b 85 bc ed ff ff    	mov    -0x1244(%rbp),%eax
    cabf:	48 98                	cltq   
    cac1:	83 e0 f9             	and    $0xfffffff9,%eax
    cac4:	48 85 c0             	test   %rax,%rax
    cac7:	75 09                	jne    cad2 <func_6+0x2394>
    cac9:	80 bd b8 ed ff ff 00 	cmpb   $0x0,-0x1248(%rbp)
    cad0:	74 07                	je     cad9 <func_6+0x239b>
    cad2:	ba 01 00 00 00       	mov    $0x1,%edx
    cad7:	eb 05                	jmp    cade <func_6+0x23a0>
    cad9:	ba 00 00 00 00       	mov    $0x0,%edx
    cade:	8b 85 98 f6 ff ff    	mov    -0x968(%rbp),%eax
    cae4:	31 d0                	xor    %edx,%eax
    cae6:	89 85 98 f6 ff ff    	mov    %eax,-0x968(%rbp)
    caec:	48 8b 05 5d 6d 01 00 	mov    0x16d5d(%rip),%rax        # 23850 <g_408>
    caf3:	8b 00                	mov    (%rax),%eax
    caf5:	85 c0                	test   %eax,%eax
    caf7:	0f 85 6a 01 00 00    	jne    cc67 <func_6+0x2529>
    cafd:	8b 85 bc ed ff ff    	mov    -0x1244(%rbp),%eax
    cb03:	0f b6 d8             	movzbl %al,%ebx
    cb06:	48 8b 05 73 6f 01 00 	mov    0x16f73(%rip),%rax        # 23a80 <g_1409>
    cb0d:	0f b7 00             	movzwl (%rax),%eax
    cb10:	44 0f bf e0          	movswl %ax,%r12d
    cb14:	8b 85 bc ed ff ff    	mov    -0x1244(%rbp),%eax
    cb1a:	44 0f b6 e8          	movzbl %al,%r13d
    cb1e:	48 8b 05 7b 71 01 00 	mov    0x1717b(%rip),%rax        # 23ca0 <g_1987>
    cb25:	48 8b 00             	mov    (%rax),%rax
    cb28:	48 8b 10             	mov    (%rax),%rdx
    cb2b:	48 83 bd 30 ef ff ff 	cmpq   $0x0,-0x10d0(%rbp)
    cb32:	00 
    cb33:	0f 95 c0             	setne  %al
    cb36:	0f b6 c8             	movzbl %al,%ecx
    cb39:	48 8b 05 60 6e 01 00 	mov    0x16e60(%rip),%rax        # 239a0 <g_1122>
    cb40:	0f b7 00             	movzwl (%rax),%eax
    cb43:	0f b7 c0             	movzwl %ax,%eax
    cb46:	39 c1                	cmp    %eax,%ecx
    cb48:	0f 9d c0             	setge  %al
    cb4b:	0f b6 c0             	movzbl %al,%eax
    cb4e:	48 39 c2             	cmp    %rax,%rdx
    cb51:	0f 9c c0             	setl   %al
    cb54:	0f b6 d0             	movzbl %al,%edx
    cb57:	48 8b 85 d8 ee ff ff 	mov    -0x1128(%rbp),%rax
    cb5e:	0f b6 00             	movzbl (%rax),%eax
    cb61:	89 c1                	mov    %eax,%ecx
    cb63:	89 d0                	mov    %edx,%eax
    cb65:	21 c8                	and    %ecx,%eax
    cb67:	89 c2                	mov    %eax,%edx
    cb69:	48 8b 85 d8 ee ff ff 	mov    -0x1128(%rbp),%rax
    cb70:	88 10                	mov    %dl,(%rax)
    cb72:	48 8b 05 17 6f 01 00 	mov    0x16f17(%rip),%rax        # 23a90 <g_1407>
    cb79:	48 8b 95 28 ef ff ff 	mov    -0x10d8(%rbp),%rdx
    cb80:	48 89 10             	mov    %rdx,(%rax)
    cb83:	8b 85 04 ee ff ff    	mov    -0x11fc(%rbp),%eax
    cb89:	89 c6                	mov    %eax,%esi
    cb8b:	bf 00 00 00 00       	mov    $0x0,%edi
    cb90:	e8 90 b3 ff ff       	callq  7f25 <safe_div_func_uint32_t_u_u>
    cb95:	85 c0                	test   %eax,%eax
    cb97:	48 8d 85 d0 f0 ff ff 	lea    -0xf30(%rbp),%rax
    cb9e:	48 83 c0 10          	add    $0x10,%rax
    cba2:	48 39 85 f8 ee ff ff 	cmp    %rax,-0x1108(%rbp)
    cba9:	0f 95 c0             	setne  %al
    cbac:	0f b6 d0             	movzbl %al,%edx
    cbaf:	8b 85 bc ed ff ff    	mov    -0x1244(%rbp),%eax
    cbb5:	0f b6 c0             	movzbl %al,%eax
    cbb8:	89 d6                	mov    %edx,%esi
    cbba:	89 c7                	mov    %eax,%edi
    cbbc:	e8 cc b0 ff ff       	callq  7c8d <safe_rshift_func_uint8_t_u_s>
    cbc1:	0f b6 c0             	movzbl %al,%eax
    cbc4:	44 89 ee             	mov    %r13d,%esi
    cbc7:	89 c7                	mov    %eax,%edi
    cbc9:	e8 c5 af ff ff       	callq  7b93 <safe_mul_func_uint8_t_u_u>
    cbce:	0f b6 c0             	movzbl %al,%eax
    cbd1:	44 89 e6             	mov    %r12d,%esi
    cbd4:	89 c7                	mov    %eax,%edi
    cbd6:	e8 3b a8 ff ff       	callq  7416 <safe_mod_func_int16_t_s_s>
    cbdb:	66 85 c0             	test   %ax,%ax
    cbde:	74 17                	je     cbf7 <func_6+0x24b9>
    cbe0:	48 8b 85 e0 ee ff ff 	mov    -0x1120(%rbp),%rax
    cbe7:	48 8b 00             	mov    (%rax),%rax
    cbea:	8b 00                	mov    (%rax),%eax
    cbec:	85 c0                	test   %eax,%eax
    cbee:	74 07                	je     cbf7 <func_6+0x24b9>
    cbf0:	b8 01 00 00 00       	mov    $0x1,%eax
    cbf5:	eb 05                	jmp    cbfc <func_6+0x24be>
    cbf7:	b8 00 00 00 00       	mov    $0x0,%eax
    cbfc:	85 c0                	test   %eax,%eax
    cbfe:	0f 95 c0             	setne  %al
    cc01:	0f b6 d0             	movzbl %al,%edx
    cc04:	48 8b 85 e0 ee ff ff 	mov    -0x1120(%rbp),%rax
    cc0b:	48 8b 00             	mov    (%rax),%rax
    cc0e:	8b 00                	mov    (%rax),%eax
    cc10:	0f b6 c0             	movzbl %al,%eax
    cc13:	89 d6                	mov    %edx,%esi
    cc15:	89 c7                	mov    %eax,%edi
    cc17:	e8 5c af ff ff       	callq  7b78 <safe_sub_func_uint8_t_u_u>
    cc1c:	0f b6 c0             	movzbl %al,%eax
    cc1f:	89 de                	mov    %ebx,%esi
    cc21:	89 c7                	mov    %eax,%edi
    cc23:	e8 32 af ff ff       	callq  7b5a <safe_add_func_uint8_t_u_u>
    cc28:	be 12 6d 7e 48       	mov    $0x487e6d12,%esi
    cc2d:	bf 01 00 00 00       	mov    $0x1,%edi
    cc32:	e8 7f a9 ff ff       	callq  75b6 <safe_add_func_int32_t_s_s>
    cc37:	85 c0                	test   %eax,%eax
    cc39:	75 10                	jne    cc4b <func_6+0x250d>
    cc3b:	48 8b 85 e0 ee ff ff 	mov    -0x1120(%rbp),%rax
    cc42:	48 8b 00             	mov    (%rax),%rax
    cc45:	8b 00                	mov    (%rax),%eax
    cc47:	85 c0                	test   %eax,%eax
    cc49:	74 07                	je     cc52 <func_6+0x2514>
    cc4b:	ba 01 00 00 00       	mov    $0x1,%edx
    cc50:	eb 05                	jmp    cc57 <func_6+0x2519>
    cc52:	ba 00 00 00 00       	mov    $0x0,%edx
    cc57:	8b 85 18 f1 ff ff    	mov    -0xee8(%rbp),%eax
    cc5d:	21 d0                	and    %edx,%eax
    cc5f:	89 85 18 f1 ff ff    	mov    %eax,-0xee8(%rbp)
    cc65:	eb 01                	jmp    cc68 <func_6+0x252a>
    cc67:	90                   	nop
    cc68:	0f b7 05 45 45 01 00 	movzwl 0x14545(%rip),%eax        # 211b4 <g_465>
    cc6f:	0f b7 c0             	movzwl %ax,%eax
    cc72:	be 09 00 00 00       	mov    $0x9,%esi
    cc77:	89 c7                	mov    %eax,%edi
    cc79:	e8 81 b0 ff ff       	callq  7cff <safe_add_func_uint16_t_u_u>
    cc7e:	66 89 05 2f 45 01 00 	mov    %ax,0x1452f(%rip)        # 211b4 <g_465>
    cc85:	0f b7 05 28 45 01 00 	movzwl 0x14528(%rip),%eax        # 211b4 <g_465>
    cc8c:	66 83 f8 28          	cmp    $0x28,%ax
    cc90:	0f 86 8f e9 ff ff    	jbe    b625 <func_6+0xee7>
    cc96:	0f be 85 b8 ed ff ff 	movsbl -0x1248(%rbp),%eax
    cc9d:	48 8b 5d c8          	mov    -0x38(%rbp),%rbx
    cca1:	64 48 33 1c 25 28 00 	xor    %fs:0x28,%rbx
    cca8:	00 00 
    ccaa:	74 05                	je     ccb1 <func_6+0x2573>
    ccac:	e8 bf a3 ff ff       	callq  7070 <__stack_chk_fail@plt>
    ccb1:	48 81 c4 38 12 00 00 	add    $0x1238,%rsp
    ccb8:	5b                   	pop    %rbx
    ccb9:	41 5c                	pop    %r12
    ccbb:	41 5d                	pop    %r13
    ccbd:	41 5e                	pop    %r14
    ccbf:	41 5f                	pop    %r15
    ccc1:	5d                   	pop    %rbp
    ccc2:	c3                   	retq   

000000000000ccc3 <func_15>:
    ccc3:	f3 0f 1e fa          	endbr64 
    ccc7:	55                   	push   %rbp
    ccc8:	48 89 e5             	mov    %rsp,%rbp
    cccb:	89 c8                	mov    %ecx,%eax
    cccd:	89 f9                	mov    %edi,%ecx
    cccf:	88 4d fc             	mov    %cl,-0x4(%rbp)
    ccd2:	89 f1                	mov    %esi,%ecx
    ccd4:	88 4d f8             	mov    %cl,-0x8(%rbp)
    ccd7:	88 55 f4             	mov    %dl,-0xc(%rbp)
    ccda:	88 45 f0             	mov    %al,-0x10(%rbp)
    ccdd:	0f be 45 f8          	movsbl -0x8(%rbp),%eax
    cce1:	5d                   	pop    %rbp
    cce2:	c3                   	retq   

000000000000cce3 <func_22>:
    cce3:	f3 0f 1e fa          	endbr64 
    cce7:	55                   	push   %rbp
    cce8:	48 89 e5             	mov    %rsp,%rbp
    cceb:	48 83 ec 70          	sub    $0x70,%rsp
    ccef:	48 89 7d 98          	mov    %rdi,-0x68(%rbp)
    ccf3:	64 48 8b 04 25 28 00 	mov    %fs:0x28,%rax
    ccfa:	00 00 
    ccfc:	48 89 45 f8          	mov    %rax,-0x8(%rbp)
    cd00:	31 c0                	xor    %eax,%eax
    cd02:	48 8d 05 33 43 01 00 	lea    0x14333(%rip),%rax        # 2103c <g_29>
    cd09:	48 89 45 a8          	mov    %rax,-0x58(%rbp)
    cd0d:	c7 45 b0 cd 9c e1 d6 	movl   $0xd6e19ccd,-0x50(%rbp)
    cd14:	c7 45 b4 cd 9c e1 d6 	movl   $0xd6e19ccd,-0x4c(%rbp)
    cd1b:	c7 45 b8 cd 56 2e b6 	movl   $0xb62e56cd,-0x48(%rbp)
    cd22:	c7 45 bc cd 9c e1 d6 	movl   $0xd6e19ccd,-0x44(%rbp)
    cd29:	c7 45 c0 cd 9c e1 d6 	movl   $0xd6e19ccd,-0x40(%rbp)
    cd30:	c7 45 c4 cd 56 2e b6 	movl   $0xb62e56cd,-0x3c(%rbp)
    cd37:	c7 45 c8 cd 9c e1 d6 	movl   $0xd6e19ccd,-0x38(%rbp)
    cd3e:	c7 45 cc cd 9c e1 d6 	movl   $0xd6e19ccd,-0x34(%rbp)
    cd45:	c7 45 d0 b0 df 47 af 	movl   $0xaf47dfb0,-0x30(%rbp)
    cd4c:	c7 45 d4 cd 9c e1 d6 	movl   $0xd6e19ccd,-0x2c(%rbp)
    cd53:	c7 45 d8 b0 df 47 af 	movl   $0xaf47dfb0,-0x28(%rbp)
    cd5a:	c7 45 dc b0 df 47 af 	movl   $0xaf47dfb0,-0x24(%rbp)
    cd61:	c7 45 e0 cd 9c e1 d6 	movl   $0xd6e19ccd,-0x20(%rbp)
    cd68:	c7 45 e4 b0 df 47 af 	movl   $0xaf47dfb0,-0x1c(%rbp)
    cd6f:	c7 45 e8 b0 df 47 af 	movl   $0xaf47dfb0,-0x18(%rbp)
    cd76:	c7 45 ec cd 9c e1 d6 	movl   $0xd6e19ccd,-0x14(%rbp)
    cd7d:	48 8b 05 9c 78 01 00 	mov    0x1789c(%rip),%rax        # 24620 <g_26+0x60>
    cd84:	48 89 45 a8          	mov    %rax,-0x58(%rbp)
    cd88:	8b 45 e4             	mov    -0x1c(%rbp),%eax
    cd8b:	48 8b 55 f8          	mov    -0x8(%rbp),%rdx
    cd8f:	64 48 33 14 25 28 00 	xor    %fs:0x28,%rdx
    cd96:	00 00 
    cd98:	74 05                	je     cd9f <func_22+0xbc>
    cd9a:	e8 d1 a2 ff ff       	callq  7070 <__stack_chk_fail@plt>
    cd9f:	c9                   	leaveq 
    cda0:	c3                   	retq   

000000000000cda1 <func_31>:
    cda1:	f3 0f 1e fa          	endbr64 
    cda5:	55                   	push   %rbp
    cda6:	48 89 e5             	mov    %rsp,%rbp
    cda9:	41 57                	push   %r15
    cdab:	41 56                	push   %r14
    cdad:	41 55                	push   %r13
    cdaf:	41 54                	push   %r12
    cdb1:	53                   	push   %rbx
    cdb2:	48 81 ec 00 10 00 00 	sub    $0x1000,%rsp
    cdb9:	48 83 0c 24 00       	orq    $0x0,(%rsp)
    cdbe:	48 81 ec 98 06 00 00 	sub    $0x698,%rsp
    cdc5:	89 f8                	mov    %edi,%eax
    cdc7:	89 b5 68 e9 ff ff    	mov    %esi,-0x1698(%rbp)
    cdcd:	48 89 95 60 e9 ff ff 	mov    %rdx,-0x16a0(%rbp)
    cdd4:	48 89 8d 58 e9 ff ff 	mov    %rcx,-0x16a8(%rbp)
    cddb:	44 89 85 54 e9 ff ff 	mov    %r8d,-0x16ac(%rbp)
    cde2:	66 89 85 6c e9 ff ff 	mov    %ax,-0x1694(%rbp)
    cde9:	64 48 8b 04 25 28 00 	mov    %fs:0x28,%rax
    cdf0:	00 00 
    cdf2:	48 89 45 c8          	mov    %rax,-0x38(%rbp)
    cdf6:	31 c0                	xor    %eax,%eax
    cdf8:	c6 85 72 e9 ff ff 06 	movb   $0x6,-0x168e(%rbp)
    cdff:	c7 85 84 e9 ff ff 68 	movl   $0xa83da368,-0x167c(%rbp)
    ce06:	a3 3d a8 
    ce09:	48 8d 05 59 78 01 00 	lea    0x17859(%rip),%rax        # 24669 <g_360>
    ce10:	48 89 85 78 ea ff ff 	mov    %rax,-0x1588(%rbp)
    ce17:	48 8d 85 78 ea ff ff 	lea    -0x1588(%rbp),%rax
    ce1e:	48 89 85 50 ef ff ff 	mov    %rax,-0x10b0(%rbp)
    ce25:	48 8d 85 78 ea ff ff 	lea    -0x1588(%rbp),%rax
    ce2c:	48 89 85 58 ef ff ff 	mov    %rax,-0x10a8(%rbp)
    ce33:	48 8d 85 78 ea ff ff 	lea    -0x1588(%rbp),%rax
    ce3a:	48 89 85 60 ef ff ff 	mov    %rax,-0x10a0(%rbp)
    ce41:	48 8d 85 78 ea ff ff 	lea    -0x1588(%rbp),%rax
    ce48:	48 89 85 68 ef ff ff 	mov    %rax,-0x1098(%rbp)
    ce4f:	48 c7 85 70 ef ff ff 	movq   $0x0,-0x1090(%rbp)
    ce56:	00 00 00 00 
    ce5a:	48 8d 85 78 ea ff ff 	lea    -0x1588(%rbp),%rax
    ce61:	48 89 85 78 ef ff ff 	mov    %rax,-0x1088(%rbp)
    ce68:	48 8d 85 78 ea ff ff 	lea    -0x1588(%rbp),%rax
    ce6f:	48 89 85 80 ef ff ff 	mov    %rax,-0x1080(%rbp)
    ce76:	48 8d 85 78 ea ff ff 	lea    -0x1588(%rbp),%rax
    ce7d:	48 89 85 88 ef ff ff 	mov    %rax,-0x1078(%rbp)
    ce84:	48 8d 85 78 ea ff ff 	lea    -0x1588(%rbp),%rax
    ce8b:	48 89 85 90 ef ff ff 	mov    %rax,-0x1070(%rbp)
    ce92:	48 8d 85 78 ea ff ff 	lea    -0x1588(%rbp),%rax
    ce99:	48 89 85 98 ef ff ff 	mov    %rax,-0x1068(%rbp)
    cea0:	48 8d 85 78 ea ff ff 	lea    -0x1588(%rbp),%rax
    cea7:	48 89 85 a0 ef ff ff 	mov    %rax,-0x1060(%rbp)
    ceae:	48 8d 85 78 ea ff ff 	lea    -0x1588(%rbp),%rax
    ceb5:	48 89 85 a8 ef ff ff 	mov    %rax,-0x1058(%rbp)
    cebc:	48 8d 85 78 ea ff ff 	lea    -0x1588(%rbp),%rax
    cec3:	48 89 85 b0 ef ff ff 	mov    %rax,-0x1050(%rbp)
    ceca:	48 8d 85 78 ea ff ff 	lea    -0x1588(%rbp),%rax
    ced1:	48 89 85 b8 ef ff ff 	mov    %rax,-0x1048(%rbp)
    ced8:	48 8d 85 78 ea ff ff 	lea    -0x1588(%rbp),%rax
    cedf:	48 89 85 c0 ef ff ff 	mov    %rax,-0x1040(%rbp)
    cee6:	48 8d 85 78 ea ff ff 	lea    -0x1588(%rbp),%rax
    ceed:	48 89 85 c8 ef ff ff 	mov    %rax,-0x1038(%rbp)
    cef4:	48 c7 85 d0 ef ff ff 	movq   $0x0,-0x1030(%rbp)
    cefb:	00 00 00 00 
    ceff:	48 8d 85 78 ea ff ff 	lea    -0x1588(%rbp),%rax
    cf06:	48 89 85 d8 ef ff ff 	mov    %rax,-0x1028(%rbp)
    cf0d:	48 8d 85 78 ea ff ff 	lea    -0x1588(%rbp),%rax
    cf14:	48 89 85 e0 ef ff ff 	mov    %rax,-0x1020(%rbp)
    cf1b:	48 8d 85 78 ea ff ff 	lea    -0x1588(%rbp),%rax
    cf22:	48 89 85 e8 ef ff ff 	mov    %rax,-0x1018(%rbp)
    cf29:	48 8d 85 78 ea ff ff 	lea    -0x1588(%rbp),%rax
    cf30:	48 89 85 f0 ef ff ff 	mov    %rax,-0x1010(%rbp)
    cf37:	48 8d 85 78 ea ff ff 	lea    -0x1588(%rbp),%rax
    cf3e:	48 89 85 f8 ef ff ff 	mov    %rax,-0x1008(%rbp)
    cf45:	48 8d 85 78 ea ff ff 	lea    -0x1588(%rbp),%rax
    cf4c:	48 89 85 00 f0 ff ff 	mov    %rax,-0x1000(%rbp)
    cf53:	48 8d 85 78 ea ff ff 	lea    -0x1588(%rbp),%rax
    cf5a:	48 89 85 08 f0 ff ff 	mov    %rax,-0xff8(%rbp)
    cf61:	48 8d 85 78 ea ff ff 	lea    -0x1588(%rbp),%rax
    cf68:	48 89 85 10 f0 ff ff 	mov    %rax,-0xff0(%rbp)
    cf6f:	48 8d 85 78 ea ff ff 	lea    -0x1588(%rbp),%rax
    cf76:	48 89 85 18 f0 ff ff 	mov    %rax,-0xfe8(%rbp)
    cf7d:	48 8d 85 78 ea ff ff 	lea    -0x1588(%rbp),%rax
    cf84:	48 89 85 20 f0 ff ff 	mov    %rax,-0xfe0(%rbp)
    cf8b:	48 8d 85 78 ea ff ff 	lea    -0x1588(%rbp),%rax
    cf92:	48 89 85 28 f0 ff ff 	mov    %rax,-0xfd8(%rbp)
    cf99:	48 8d 85 78 ea ff ff 	lea    -0x1588(%rbp),%rax
    cfa0:	48 89 85 30 f0 ff ff 	mov    %rax,-0xfd0(%rbp)
    cfa7:	48 8d 85 78 ea ff ff 	lea    -0x1588(%rbp),%rax
    cfae:	48 89 85 38 f0 ff ff 	mov    %rax,-0xfc8(%rbp)
    cfb5:	48 8d 05 c4 6a 01 00 	lea    0x16ac4(%rip),%rax        # 23a80 <g_1409>
    cfbc:	48 89 85 38 eb ff ff 	mov    %rax,-0x14c8(%rbp)
    cfc3:	48 8d 05 86 40 01 00 	lea    0x14086(%rip),%rax        # 21050 <g_79>
    cfca:	48 89 85 80 ea ff ff 	mov    %rax,-0x1580(%rbp)
    cfd1:	c7 85 88 e9 ff ff 00 	movl   $0x0,-0x1678(%rbp)
    cfd8:	00 00 00 
    cfdb:	48 8d 05 56 69 01 00 	lea    0x16956(%rip),%rax        # 23938 <g_844>
    cfe2:	48 89 85 88 ea ff ff 	mov    %rax,-0x1578(%rbp)
    cfe9:	48 8d 85 88 ea ff ff 	lea    -0x1578(%rbp),%rax
    cff0:	48 89 85 90 ea ff ff 	mov    %rax,-0x1570(%rbp)
    cff7:	c7 85 8c e9 ff ff f6 	movl   $0xfffffff6,-0x1674(%rbp)
    cffe:	ff ff ff 
    d001:	c7 85 90 e9 ff ff 01 	movl   $0x1,-0x1670(%rbp)
    d008:	00 00 00 
    d00b:	c6 85 71 e9 ff ff ff 	movb   $0xff,-0x168f(%rbp)
    d012:	48 c7 85 98 ea ff ff 	movq   $0x0,-0x1568(%rbp)
    d019:	00 00 00 00 
    d01d:	48 8d 85 98 ea ff ff 	lea    -0x1568(%rbp),%rax
    d024:	48 89 85 a0 ea ff ff 	mov    %rax,-0x1560(%rbp)
    d02b:	48 8d 85 a0 ea ff ff 	lea    -0x1560(%rbp),%rax
    d032:	48 89 85 c0 ed ff ff 	mov    %rax,-0x1240(%rbp)
    d039:	48 8d 85 a0 ea ff ff 	lea    -0x1560(%rbp),%rax
    d040:	48 89 85 c8 ed ff ff 	mov    %rax,-0x1238(%rbp)
    d047:	48 8d 85 a0 ea ff ff 	lea    -0x1560(%rbp),%rax
    d04e:	48 89 85 d0 ed ff ff 	mov    %rax,-0x1230(%rbp)
    d055:	48 8d 85 a0 ea ff ff 	lea    -0x1560(%rbp),%rax
    d05c:	48 89 85 d8 ed ff ff 	mov    %rax,-0x1228(%rbp)
    d063:	48 8d 85 a0 ea ff ff 	lea    -0x1560(%rbp),%rax
    d06a:	48 89 85 e0 ed ff ff 	mov    %rax,-0x1220(%rbp)
    d071:	48 8d 85 a0 ea ff ff 	lea    -0x1560(%rbp),%rax
    d078:	48 89 85 e8 ed ff ff 	mov    %rax,-0x1218(%rbp)
    d07f:	48 8d 85 c0 ed ff ff 	lea    -0x1240(%rbp),%rax
    d086:	48 83 c0 28          	add    $0x28,%rax
    d08a:	48 89 85 30 eb ff ff 	mov    %rax,-0x14d0(%rbp)
    d091:	48 8d 05 f8 75 01 00 	lea    0x175f8(%rip),%rax        # 24690 <g_1139+0x10>
    d098:	48 89 85 a8 ea ff ff 	mov    %rax,-0x1558(%rbp)
    d09f:	48 8d 85 a8 ea ff ff 	lea    -0x1558(%rbp),%rax
    d0a6:	48 89 85 90 ed ff ff 	mov    %rax,-0x1270(%rbp)
    d0ad:	48 8d 85 a8 ea ff ff 	lea    -0x1558(%rbp),%rax
    d0b4:	48 89 85 98 ed ff ff 	mov    %rax,-0x1268(%rbp)
    d0bb:	48 8d 85 a8 ea ff ff 	lea    -0x1558(%rbp),%rax
    d0c2:	48 89 85 a0 ed ff ff 	mov    %rax,-0x1260(%rbp)
    d0c9:	48 8d 85 a8 ea ff ff 	lea    -0x1558(%rbp),%rax
    d0d0:	48 89 85 a8 ed ff ff 	mov    %rax,-0x1258(%rbp)
    d0d7:	48 8d 85 a8 ea ff ff 	lea    -0x1558(%rbp),%rax
    d0de:	48 89 85 b0 ed ff ff 	mov    %rax,-0x1250(%rbp)
    d0e5:	48 c7 85 b0 ea ff ff 	movq   $0x0,-0x1550(%rbp)
    d0ec:	00 00 00 00 
    d0f0:	48 8d 85 b0 ea ff ff 	lea    -0x1550(%rbp),%rax
    d0f7:	48 89 85 20 ee ff ff 	mov    %rax,-0x11e0(%rbp)
    d0fe:	48 8d 85 b0 ea ff ff 	lea    -0x1550(%rbp),%rax
    d105:	48 89 85 28 ee ff ff 	mov    %rax,-0x11d8(%rbp)
    d10c:	48 8d 85 b0 ea ff ff 	lea    -0x1550(%rbp),%rax
    d113:	48 89 85 30 ee ff ff 	mov    %rax,-0x11d0(%rbp)
    d11a:	48 8d 85 b0 ea ff ff 	lea    -0x1550(%rbp),%rax
    d121:	48 89 85 38 ee ff ff 	mov    %rax,-0x11c8(%rbp)
    d128:	48 8d 85 b0 ea ff ff 	lea    -0x1550(%rbp),%rax
    d12f:	48 89 85 40 ee ff ff 	mov    %rax,-0x11c0(%rbp)
    d136:	48 8d 85 b0 ea ff ff 	lea    -0x1550(%rbp),%rax
    d13d:	48 89 85 48 ee ff ff 	mov    %rax,-0x11b8(%rbp)
    d144:	48 8d 85 b0 ea ff ff 	lea    -0x1550(%rbp),%rax
    d14b:	48 89 85 50 ee ff ff 	mov    %rax,-0x11b0(%rbp)
    d152:	c7 85 c8 e9 ff ff f8 	movl   $0xfffffff8,-0x1638(%rbp)
    d159:	ff ff ff 
    d15c:	48 c7 85 b8 ea ff ff 	movq   $0x0,-0x1548(%rbp)
    d163:	00 00 00 00 
    d167:	48 8d 85 b8 ea ff ff 	lea    -0x1548(%rbp),%rax
    d16e:	48 89 85 c0 ea ff ff 	mov    %rax,-0x1540(%rbp)
    d175:	48 8d 85 c0 ea ff ff 	lea    -0x1540(%rbp),%rax
    d17c:	48 89 85 50 eb ff ff 	mov    %rax,-0x14b0(%rbp)
    d183:	c7 85 cc e9 ff ff 80 	movl   $0x6ced180,-0x1634(%rbp)
    d18a:	d1 ce 06 
    d18d:	48 c7 85 c8 ea ff ff 	movq   $0x0,-0x1538(%rbp)
    d194:	00 00 00 00 
    d198:	66 c7 85 76 e9 ff ff 	movw   $0x8,-0x168a(%rbp)
    d19f:	08 00 
    d1a1:	c7 85 50 ed ff ff 00 	movl   $0x0,-0x12b0(%rbp)
    d1a8:	00 00 00 
    d1ab:	c7 85 54 ed ff ff 00 	movl   $0x0,-0x12ac(%rbp)
    d1b2:	00 00 00 
    d1b5:	c7 85 58 ed ff ff 00 	movl   $0x0,-0x12a8(%rbp)
    d1bc:	00 00 00 
    d1bf:	c7 85 5c ed ff ff 00 	movl   $0x0,-0x12a4(%rbp)
    d1c6:	00 00 00 
    d1c9:	c7 85 60 ed ff ff 00 	movl   $0x0,-0x12a0(%rbp)
    d1d0:	00 00 00 
    d1d3:	c7 85 64 ed ff ff 00 	movl   $0x0,-0x129c(%rbp)
    d1da:	00 00 00 
    d1dd:	c7 85 d0 e9 ff ff ff 	movl   $0xffffffff,-0x1630(%rbp)
    d1e4:	ff ff ff 
    d1e7:	48 8d 05 da 74 01 00 	lea    0x174da(%rip),%rax        # 246c8 <g_2218>
    d1ee:	48 89 85 58 eb ff ff 	mov    %rax,-0x14a8(%rbp)
    d1f5:	48 8d 85 84 e9 ff ff 	lea    -0x167c(%rbp),%rax
    d1fc:	48 89 85 60 eb ff ff 	mov    %rax,-0x14a0(%rbp)
    d203:	48 8d 85 88 e9 ff ff 	lea    -0x1678(%rbp),%rax
    d20a:	48 89 85 68 eb ff ff 	mov    %rax,-0x1498(%rbp)
    d211:	c7 85 c4 e9 ff ff 00 	movl   $0x0,-0x163c(%rbp)
    d218:	00 00 00 
    d21b:	eb 4f                	jmp    d26c <func_31+0x4cb>
    d21d:	c7 85 94 e9 ff ff 00 	movl   $0x0,-0x166c(%rbp)
    d224:	00 00 00 
    d227:	eb 33                	jmp    d25c <func_31+0x4bb>
    d229:	8b 85 94 e9 ff ff    	mov    -0x166c(%rbp),%eax
    d22f:	48 63 c8             	movslq %eax,%rcx
    d232:	8b 85 c4 e9 ff ff    	mov    -0x163c(%rbp),%eax
    d238:	48 63 d0             	movslq %eax,%rdx
    d23b:	48 89 d0             	mov    %rdx,%rax
    d23e:	48 01 c0             	add    %rax,%rax
    d241:	48 01 d0             	add    %rdx,%rax
    d244:	48 01 c0             	add    %rax,%rax
    d247:	48 01 c8             	add    %rcx,%rax
    d24a:	c7 84 85 30 ed ff ff 	movl   $0xb519475a,-0x12d0(%rbp,%rax,4)
    d251:	5a 47 19 b5 
    d255:	83 85 94 e9 ff ff 01 	addl   $0x1,-0x166c(%rbp)
    d25c:	83 bd 94 e9 ff ff 05 	cmpl   $0x5,-0x166c(%rbp)
    d263:	7e c4                	jle    d229 <func_31+0x488>
    d265:	83 85 c4 e9 ff ff 01 	addl   $0x1,-0x163c(%rbp)
    d26c:	83 bd c4 e9 ff ff 00 	cmpl   $0x0,-0x163c(%rbp)
    d273:	7e a8                	jle    d21d <func_31+0x47c>
    d275:	c7 85 c4 e9 ff ff 00 	movl   $0x0,-0x163c(%rbp)
    d27c:	00 00 00 
    d27f:	eb 45                	jmp    d2c6 <func_31+0x525>
    d281:	c7 85 94 e9 ff ff 00 	movl   $0x0,-0x166c(%rbp)
    d288:	00 00 00 
    d28b:	eb 29                	jmp    d2b6 <func_31+0x515>
    d28d:	8b 85 94 e9 ff ff    	mov    -0x166c(%rbp),%eax
    d293:	48 98                	cltq   
    d295:	8b 95 c4 e9 ff ff    	mov    -0x163c(%rbp),%edx
    d29b:	48 63 d2             	movslq %edx,%rdx
    d29e:	48 01 d2             	add    %rdx,%rdx
    d2a1:	48 01 d0             	add    %rdx,%rax
    d2a4:	c7 84 85 60 ee ff ff 	movl   $0x6745f652,-0x11a0(%rbp,%rax,4)
    d2ab:	52 f6 45 67 
    d2af:	83 85 94 e9 ff ff 01 	addl   $0x1,-0x166c(%rbp)
    d2b6:	83 bd 94 e9 ff ff 01 	cmpl   $0x1,-0x166c(%rbp)
    d2bd:	7e ce                	jle    d28d <func_31+0x4ec>
    d2bf:	83 85 c4 e9 ff ff 01 	addl   $0x1,-0x163c(%rbp)
    d2c6:	83 bd c4 e9 ff ff 09 	cmpl   $0x9,-0x163c(%rbp)
    d2cd:	7e b2                	jle    d281 <func_31+0x4e0>
    d2cf:	80 bd 72 e9 ff ff 00 	cmpb   $0x0,-0x168e(%rbp)
    d2d6:	0f 84 dd 2a 00 00    	je     fdb9 <func_31+0x3018>
    d2dc:	c7 85 98 e9 ff ff 0b 	movl   $0x14144d0b,-0x1668(%rbp)
    d2e3:	4d 14 14 
    d2e6:	c7 85 f4 e9 ff ff 4c 	movl   $0xe7ce904c,-0x160c(%rbp)
    d2ed:	90 ce e7 
    d2f0:	c7 85 f8 e9 ff ff 47 	movl   $0xc5b39947,-0x1608(%rbp)
    d2f7:	99 b3 c5 
    d2fa:	48 8d 85 84 e9 ff ff 	lea    -0x167c(%rbp),%rax
    d301:	48 89 85 18 ec ff ff 	mov    %rax,-0x13e8(%rbp)
    d308:	c7 85 fc e9 ff ff d0 	movl   $0x7e9f98d0,-0x1604(%rbp)
    d30f:	98 9f 7e 
    d312:	c7 85 00 ea ff ff 00 	movl   $0x0,-0x1600(%rbp)
    d319:	00 00 00 
    d31c:	c7 85 04 ea ff ff fe 	movl   $0xfffffffe,-0x15fc(%rbp)
    d323:	ff ff ff 
    d326:	c7 85 08 ea ff ff 6e 	movl   $0x19a8256e,-0x15f8(%rbp)
    d32d:	25 a8 19 
    d330:	c7 85 9c e9 ff ff 06 	movl   $0x6,-0x1664(%rbp)
    d337:	00 00 00 
    d33a:	c7 85 0c ea ff ff 59 	movl   $0xc880ff59,-0x15f4(%rbp)
    d341:	ff 80 c8 
    d344:	c7 85 10 ea ff ff 04 	movl   $0x4,-0x15f0(%rbp)
    d34b:	00 00 00 
    d34e:	66 c7 85 00 eb ff ff 	movw   $0x6990,-0x1500(%rbp)
    d355:	90 69 
    d357:	c7 85 14 ea ff ff f9 	movl   $0xfffffff9,-0x15ec(%rbp)
    d35e:	ff ff ff 
    d361:	c7 85 10 ed ff ff 91 	movl   $0xd31eeb91,-0x12f0(%rbp)
    d368:	eb 1e d3 
    d36b:	c7 85 14 ed ff ff 91 	movl   $0xd31eeb91,-0x12ec(%rbp)
    d372:	eb 1e d3 
    d375:	c7 85 18 ed ff ff 91 	movl   $0xd31eeb91,-0x12e8(%rbp)
    d37c:	eb 1e d3 
    d37f:	c7 85 1c ed ff ff 91 	movl   $0xd31eeb91,-0x12e4(%rbp)
    d386:	eb 1e d3 
    d389:	48 c7 85 08 eb ff ff 	movq   $0x0,-0x14f8(%rbp)
    d390:	00 00 00 00 
    d394:	48 8d 85 08 eb ff ff 	lea    -0x14f8(%rbp),%rax
    d39b:	48 89 85 20 ec ff ff 	mov    %rax,-0x13e0(%rbp)
    d3a2:	48 b8 67 3e 0e a3 ec 	movabs $0x83bb0deca30e3e67,%rax
    d3a9:	0d bb 83 
    d3ac:	48 89 85 40 eb ff ff 	mov    %rax,-0x14c0(%rbp)
    d3b3:	48 8d 05 66 72 01 00 	lea    0x17266(%rip),%rax        # 24620 <g_26+0x60>
    d3ba:	48 89 85 28 ec ff ff 	mov    %rax,-0x13d8(%rbp)
    d3c1:	48 c7 05 ac 3d 01 00 	movq   $0x17,0x13dac(%rip)        # 21178 <g_112>
    d3c8:	17 00 00 00 
    d3cc:	e9 34 0c 00 00       	jmpq   e005 <func_31+0x1264>
    d3d1:	c7 85 4c ea ff ff 0c 	movl   $0x324fc70c,-0x15b4(%rbp)
    d3d8:	c7 4f 32 
    d3db:	c7 85 10 eb ff ff ff 	movl   $0xffffffff,-0x14f0(%rbp)
    d3e2:	ff ff ff 
    d3e5:	48 8d 05 4c 65 01 00 	lea    0x1654c(%rip),%rax        # 23938 <g_844>
    d3ec:	48 89 85 18 eb ff ff 	mov    %rax,-0x14e8(%rbp)
    d3f3:	48 8d 85 18 eb ff ff 	lea    -0x14e8(%rbp),%rax
    d3fa:	48 89 85 20 eb ff ff 	mov    %rax,-0x14e0(%rbp)
    d401:	48 8d 85 20 eb ff ff 	lea    -0x14e0(%rbp),%rax
    d408:	48 89 85 a0 ec ff ff 	mov    %rax,-0x1360(%rbp)
    d40f:	48 c7 85 a8 ec ff ff 	movq   $0x0,-0x1358(%rbp)
    d416:	00 00 00 00 
    d41a:	66 c7 85 82 e9 ff ff 	movw   $0xfff8,-0x167e(%rbp)
    d421:	f8 ff 
    d423:	48 c7 85 28 eb ff ff 	movq   $0x0,-0x14d8(%rbp)
    d42a:	00 00 00 00 
    d42e:	48 8d 85 28 eb ff ff 	lea    -0x14d8(%rbp),%rax
    d435:	48 89 85 b0 ec ff ff 	mov    %rax,-0x1350(%rbp)
    d43c:	48 8d 05 3d 66 01 00 	lea    0x1663d(%rip),%rax        # 23a80 <g_1409>
    d443:	48 89 85 f0 f3 ff ff 	mov    %rax,-0xc10(%rbp)
    d44a:	48 8d 05 2f 66 01 00 	lea    0x1662f(%rip),%rax        # 23a80 <g_1409>
    d451:	48 89 85 f8 f3 ff ff 	mov    %rax,-0xc08(%rbp)
    d458:	48 8d 05 21 66 01 00 	lea    0x16621(%rip),%rax        # 23a80 <g_1409>
    d45f:	48 89 85 00 f4 ff ff 	mov    %rax,-0xc00(%rbp)
    d466:	48 8d 05 13 66 01 00 	lea    0x16613(%rip),%rax        # 23a80 <g_1409>
    d46d:	48 89 85 08 f4 ff ff 	mov    %rax,-0xbf8(%rbp)
    d474:	48 8d 05 05 66 01 00 	lea    0x16605(%rip),%rax        # 23a80 <g_1409>
    d47b:	48 89 85 10 f4 ff ff 	mov    %rax,-0xbf0(%rbp)
    d482:	48 8d 05 f7 65 01 00 	lea    0x165f7(%rip),%rax        # 23a80 <g_1409>
    d489:	48 89 85 18 f4 ff ff 	mov    %rax,-0xbe8(%rbp)
    d490:	48 8d 05 e9 65 01 00 	lea    0x165e9(%rip),%rax        # 23a80 <g_1409>
    d497:	48 89 85 20 f4 ff ff 	mov    %rax,-0xbe0(%rbp)
    d49e:	48 8d 05 db 65 01 00 	lea    0x165db(%rip),%rax        # 23a80 <g_1409>
    d4a5:	48 89 85 28 f4 ff ff 	mov    %rax,-0xbd8(%rbp)
    d4ac:	48 8d 05 cd 65 01 00 	lea    0x165cd(%rip),%rax        # 23a80 <g_1409>
    d4b3:	48 89 85 30 f4 ff ff 	mov    %rax,-0xbd0(%rbp)
    d4ba:	48 8d 05 bf 65 01 00 	lea    0x165bf(%rip),%rax        # 23a80 <g_1409>
    d4c1:	48 89 85 38 f4 ff ff 	mov    %rax,-0xbc8(%rbp)
    d4c8:	48 8d 05 b1 65 01 00 	lea    0x165b1(%rip),%rax        # 23a80 <g_1409>
    d4cf:	48 89 85 40 f4 ff ff 	mov    %rax,-0xbc0(%rbp)
    d4d6:	48 8d 05 a3 65 01 00 	lea    0x165a3(%rip),%rax        # 23a80 <g_1409>
    d4dd:	48 89 85 48 f4 ff ff 	mov    %rax,-0xbb8(%rbp)
    d4e4:	48 8d 05 95 65 01 00 	lea    0x16595(%rip),%rax        # 23a80 <g_1409>
    d4eb:	48 89 85 50 f4 ff ff 	mov    %rax,-0xbb0(%rbp)
    d4f2:	48 8d 05 87 65 01 00 	lea    0x16587(%rip),%rax        # 23a80 <g_1409>
    d4f9:	48 89 85 58 f4 ff ff 	mov    %rax,-0xba8(%rbp)
    d500:	48 8d 05 79 65 01 00 	lea    0x16579(%rip),%rax        # 23a80 <g_1409>
    d507:	48 89 85 60 f4 ff ff 	mov    %rax,-0xba0(%rbp)
    d50e:	48 8d 05 6b 65 01 00 	lea    0x1656b(%rip),%rax        # 23a80 <g_1409>
    d515:	48 89 85 68 f4 ff ff 	mov    %rax,-0xb98(%rbp)
    d51c:	48 8d 05 5d 65 01 00 	lea    0x1655d(%rip),%rax        # 23a80 <g_1409>
    d523:	48 89 85 70 f4 ff ff 	mov    %rax,-0xb90(%rbp)
    d52a:	48 8d 05 4f 65 01 00 	lea    0x1654f(%rip),%rax        # 23a80 <g_1409>
    d531:	48 89 85 78 f4 ff ff 	mov    %rax,-0xb88(%rbp)
    d538:	48 8d 05 41 65 01 00 	lea    0x16541(%rip),%rax        # 23a80 <g_1409>
    d53f:	48 89 85 80 f4 ff ff 	mov    %rax,-0xb80(%rbp)
    d546:	48 8d 05 33 65 01 00 	lea    0x16533(%rip),%rax        # 23a80 <g_1409>
    d54d:	48 89 85 88 f4 ff ff 	mov    %rax,-0xb78(%rbp)
    d554:	48 8d 05 25 65 01 00 	lea    0x16525(%rip),%rax        # 23a80 <g_1409>
    d55b:	48 89 85 90 f4 ff ff 	mov    %rax,-0xb70(%rbp)
    d562:	48 8d 05 17 65 01 00 	lea    0x16517(%rip),%rax        # 23a80 <g_1409>
    d569:	48 89 85 98 f4 ff ff 	mov    %rax,-0xb68(%rbp)
    d570:	48 8d 05 09 65 01 00 	lea    0x16509(%rip),%rax        # 23a80 <g_1409>
    d577:	48 89 85 a0 f4 ff ff 	mov    %rax,-0xb60(%rbp)
    d57e:	48 8d 05 fb 64 01 00 	lea    0x164fb(%rip),%rax        # 23a80 <g_1409>
    d585:	48 89 85 a8 f4 ff ff 	mov    %rax,-0xb58(%rbp)
    d58c:	48 8d 05 ed 64 01 00 	lea    0x164ed(%rip),%rax        # 23a80 <g_1409>
    d593:	48 89 85 b0 f4 ff ff 	mov    %rax,-0xb50(%rbp)
    d59a:	c7 85 50 ea ff ff 90 	movl   $0xb429f390,-0x15b0(%rbp)
    d5a1:	f3 29 b4 
    d5a4:	c7 85 54 ea ff ff 7f 	movl   $0x51ed887f,-0x15ac(%rbp)
    d5ab:	88 ed 51 
    d5ae:	c7 85 58 ea ff ff 07 	movl   $0x8910c407,-0x15a8(%rbp)
    d5b5:	c4 10 89 
    d5b8:	c7 85 5c ea ff ff 76 	movl   $0x9d343376,-0x15a4(%rbp)
    d5bf:	33 34 9d 
    d5c2:	c7 05 b4 3b 01 00 00 	movl   $0x0,0x13bb4(%rip)        # 21180 <g_117>
    d5c9:	00 00 00 
    d5cc:	e9 10 08 00 00       	jmpq   dde1 <func_31+0x1040>
    d5d1:	c7 85 68 ea ff ff 00 	movl   $0x0,-0x1598(%rbp)
    d5d8:	00 00 00 
    d5db:	48 8d 85 20 eb ff ff 	lea    -0x14e0(%rbp),%rax
    d5e2:	48 89 85 e0 ec ff ff 	mov    %rax,-0x1320(%rbp)
    d5e9:	48 8d 85 50 ef ff ff 	lea    -0x10b0(%rbp),%rax
    d5f0:	48 83 c0 70          	add    $0x70,%rax
    d5f4:	48 89 85 e8 ec ff ff 	mov    %rax,-0x1318(%rbp)
    d5fb:	48 8d 85 28 eb ff ff 	lea    -0x14d8(%rbp),%rax
    d602:	48 89 85 f0 ec ff ff 	mov    %rax,-0x1310(%rbp)
    d609:	48 c7 85 30 f9 ff ff 	movq   $0x0,-0x6d0(%rbp)
    d610:	00 00 00 00 
    d614:	48 8d 05 09 3a 01 00 	lea    0x13a09(%rip),%rax        # 21024 <g_11>
    d61b:	48 89 85 38 f9 ff ff 	mov    %rax,-0x6c8(%rbp)
    d622:	48 c7 85 40 f9 ff ff 	movq   $0x0,-0x6c0(%rbp)
    d629:	00 00 00 00 
    d62d:	48 8d 85 10 eb ff ff 	lea    -0x14f0(%rbp),%rax
    d634:	48 89 85 48 f9 ff ff 	mov    %rax,-0x6b8(%rbp)
    d63b:	48 8d 05 e2 39 01 00 	lea    0x139e2(%rip),%rax        # 21024 <g_11>
    d642:	48 89 85 50 f9 ff ff 	mov    %rax,-0x6b0(%rbp)
    d649:	48 8d 85 10 eb ff ff 	lea    -0x14f0(%rbp),%rax
    d650:	48 89 85 58 f9 ff ff 	mov    %rax,-0x6a8(%rbp)
    d657:	48 8d 05 c6 39 01 00 	lea    0x139c6(%rip),%rax        # 21024 <g_11>
    d65e:	48 89 85 60 f9 ff ff 	mov    %rax,-0x6a0(%rbp)
    d665:	48 8d 85 84 e9 ff ff 	lea    -0x167c(%rbp),%rax
    d66c:	48 89 85 68 f9 ff ff 	mov    %rax,-0x698(%rbp)
    d673:	48 8d 05 b6 39 01 00 	lea    0x139b6(%rip),%rax        # 21030 <g_14>
    d67a:	48 89 85 70 f9 ff ff 	mov    %rax,-0x690(%rbp)
    d681:	48 8d 05 9c 39 01 00 	lea    0x1399c(%rip),%rax        # 21024 <g_11>
    d688:	48 89 85 78 f9 ff ff 	mov    %rax,-0x688(%rbp)
    d68f:	48 8d 85 84 e9 ff ff 	lea    -0x167c(%rbp),%rax
    d696:	48 89 85 80 f9 ff ff 	mov    %rax,-0x680(%rbp)
    d69d:	48 c7 85 88 f9 ff ff 	movq   $0x0,-0x678(%rbp)
    d6a4:	00 00 00 00 
    d6a8:	48 8d 05 75 39 01 00 	lea    0x13975(%rip),%rax        # 21024 <g_11>
    d6af:	48 89 85 90 f9 ff ff 	mov    %rax,-0x670(%rbp)
    d6b6:	48 8d 85 10 eb ff ff 	lea    -0x14f0(%rbp),%rax
    d6bd:	48 89 85 98 f9 ff ff 	mov    %rax,-0x668(%rbp)
    d6c4:	48 8d 85 84 e9 ff ff 	lea    -0x167c(%rbp),%rax
    d6cb:	48 89 85 a0 f9 ff ff 	mov    %rax,-0x660(%rbp)
    d6d2:	48 8d 05 4b 39 01 00 	lea    0x1394b(%rip),%rax        # 21024 <g_11>
    d6d9:	48 89 85 a8 f9 ff ff 	mov    %rax,-0x658(%rbp)
    d6e0:	48 8d 05 49 39 01 00 	lea    0x13949(%rip),%rax        # 21030 <g_14>
    d6e7:	48 89 85 b0 f9 ff ff 	mov    %rax,-0x650(%rbp)
    d6ee:	48 8d 85 84 e9 ff ff 	lea    -0x167c(%rbp),%rax
    d6f5:	48 89 85 b8 f9 ff ff 	mov    %rax,-0x648(%rbp)
    d6fc:	48 c7 85 c0 f9 ff ff 	movq   $0x0,-0x640(%rbp)
    d703:	00 00 00 00 
    d707:	48 8d 05 16 39 01 00 	lea    0x13916(%rip),%rax        # 21024 <g_11>
    d70e:	48 89 85 c8 f9 ff ff 	mov    %rax,-0x638(%rbp)
    d715:	48 c7 85 d0 f9 ff ff 	movq   $0x0,-0x630(%rbp)
    d71c:	00 00 00 00 
    d720:	48 8d 05 fd 38 01 00 	lea    0x138fd(%rip),%rax        # 21024 <g_11>
    d727:	48 89 85 d8 f9 ff ff 	mov    %rax,-0x628(%rbp)
    d72e:	48 c7 85 e0 f9 ff ff 	movq   $0x0,-0x620(%rbp)
    d735:	00 00 00 00 
    d739:	48 8d 05 e4 38 01 00 	lea    0x138e4(%rip),%rax        # 21024 <g_11>
    d740:	48 89 85 e8 f9 ff ff 	mov    %rax,-0x618(%rbp)
    d747:	48 8d 05 e2 38 01 00 	lea    0x138e2(%rip),%rax        # 21030 <g_14>
    d74e:	48 89 85 f0 f9 ff ff 	mov    %rax,-0x610(%rbp)
    d755:	48 8d 85 84 e9 ff ff 	lea    -0x167c(%rbp),%rax
    d75c:	48 89 85 f8 f9 ff ff 	mov    %rax,-0x608(%rbp)
    d763:	48 8d 85 84 e9 ff ff 	lea    -0x167c(%rbp),%rax
    d76a:	48 89 85 00 fa ff ff 	mov    %rax,-0x600(%rbp)
    d771:	48 8d 05 b8 38 01 00 	lea    0x138b8(%rip),%rax        # 21030 <g_14>
    d778:	48 89 85 08 fa ff ff 	mov    %rax,-0x5f8(%rbp)
    d77f:	48 8d 05 9e 38 01 00 	lea    0x1389e(%rip),%rax        # 21024 <g_11>
    d786:	48 89 85 10 fa ff ff 	mov    %rax,-0x5f0(%rbp)
    d78d:	48 c7 85 18 fa ff ff 	movq   $0x0,-0x5e8(%rbp)
    d794:	00 00 00 00 
    d798:	48 8d 85 10 eb ff ff 	lea    -0x14f0(%rbp),%rax
    d79f:	48 89 85 20 fa ff ff 	mov    %rax,-0x5e0(%rbp)
    d7a6:	48 8d 85 10 eb ff ff 	lea    -0x14f0(%rbp),%rax
    d7ad:	48 89 85 28 fa ff ff 	mov    %rax,-0x5d8(%rbp)
    d7b4:	48 8d 05 69 38 01 00 	lea    0x13869(%rip),%rax        # 21024 <g_11>
    d7bb:	48 89 85 30 fa ff ff 	mov    %rax,-0x5d0(%rbp)
    d7c2:	48 8d 85 10 eb ff ff 	lea    -0x14f0(%rbp),%rax
    d7c9:	48 89 85 38 fa ff ff 	mov    %rax,-0x5c8(%rbp)
    d7d0:	48 8d 85 10 eb ff ff 	lea    -0x14f0(%rbp),%rax
    d7d7:	48 89 85 40 fa ff ff 	mov    %rax,-0x5c0(%rbp)
    d7de:	48 8d 05 3f 38 01 00 	lea    0x1383f(%rip),%rax        # 21024 <g_11>
    d7e5:	48 89 85 48 fa ff ff 	mov    %rax,-0x5b8(%rbp)
    d7ec:	48 8d 05 3d 38 01 00 	lea    0x1383d(%rip),%rax        # 21030 <g_14>
    d7f3:	48 89 85 50 fa ff ff 	mov    %rax,-0x5b0(%rbp)
    d7fa:	48 8d 05 23 38 01 00 	lea    0x13823(%rip),%rax        # 21024 <g_11>
    d801:	48 89 85 58 fa ff ff 	mov    %rax,-0x5a8(%rbp)
    d808:	48 8d 85 10 eb ff ff 	lea    -0x14f0(%rbp),%rax
    d80f:	48 89 85 60 fa ff ff 	mov    %rax,-0x5a0(%rbp)
    d816:	48 8d 85 84 e9 ff ff 	lea    -0x167c(%rbp),%rax
    d81d:	48 89 85 68 fa ff ff 	mov    %rax,-0x598(%rbp)
    d824:	48 8d 85 10 eb ff ff 	lea    -0x14f0(%rbp),%rax
    d82b:	48 89 85 70 fa ff ff 	mov    %rax,-0x590(%rbp)
    d832:	48 c7 85 78 fa ff ff 	movq   $0x0,-0x588(%rbp)
    d839:	00 00 00 00 
    d83d:	48 8d 05 e0 37 01 00 	lea    0x137e0(%rip),%rax        # 21024 <g_11>
    d844:	48 89 85 80 fa ff ff 	mov    %rax,-0x580(%rbp)
    d84b:	48 8d 05 d2 37 01 00 	lea    0x137d2(%rip),%rax        # 21024 <g_11>
    d852:	48 89 85 88 fa ff ff 	mov    %rax,-0x578(%rbp)
    d859:	48 8d 05 c4 37 01 00 	lea    0x137c4(%rip),%rax        # 21024 <g_11>
    d860:	48 89 85 90 fa ff ff 	mov    %rax,-0x570(%rbp)
    d867:	48 8d 05 c2 37 01 00 	lea    0x137c2(%rip),%rax        # 21030 <g_14>
    d86e:	48 89 85 98 fa ff ff 	mov    %rax,-0x568(%rbp)
    d875:	48 8d 05 b4 37 01 00 	lea    0x137b4(%rip),%rax        # 21030 <g_14>
    d87c:	48 89 85 a0 fa ff ff 	mov    %rax,-0x560(%rbp)
    d883:	48 c7 85 a8 fa ff ff 	movq   $0x0,-0x558(%rbp)
    d88a:	00 00 00 00 
    d88e:	48 8d 85 10 eb ff ff 	lea    -0x14f0(%rbp),%rax
    d895:	48 89 85 b0 fa ff ff 	mov    %rax,-0x550(%rbp)
    d89c:	48 c7 85 b8 fa ff ff 	movq   $0x0,-0x548(%rbp)
    d8a3:	00 00 00 00 
    d8a7:	48 8d 05 a2 37 01 00 	lea    0x137a2(%rip),%rax        # 21050 <g_79>
    d8ae:	48 89 85 c0 fa ff ff 	mov    %rax,-0x540(%rbp)
    d8b5:	48 8d 85 10 eb ff ff 	lea    -0x14f0(%rbp),%rax
    d8bc:	48 89 85 c8 fa ff ff 	mov    %rax,-0x538(%rbp)
    d8c3:	48 8d 85 84 e9 ff ff 	lea    -0x167c(%rbp),%rax
    d8ca:	48 89 85 d0 fa ff ff 	mov    %rax,-0x530(%rbp)
    d8d1:	48 8d 05 78 37 01 00 	lea    0x13778(%rip),%rax        # 21050 <g_79>
    d8d8:	48 89 85 d8 fa ff ff 	mov    %rax,-0x528(%rbp)
    d8df:	48 8d 85 10 eb ff ff 	lea    -0x14f0(%rbp),%rax
    d8e6:	48 89 85 e0 fa ff ff 	mov    %rax,-0x520(%rbp)
    d8ed:	48 8d 05 30 37 01 00 	lea    0x13730(%rip),%rax        # 21024 <g_11>
    d8f4:	48 89 85 e8 fa ff ff 	mov    %rax,-0x518(%rbp)
    d8fb:	48 8d 85 10 eb ff ff 	lea    -0x14f0(%rbp),%rax
    d902:	48 89 85 f0 fa ff ff 	mov    %rax,-0x510(%rbp)
    d909:	48 8d 05 40 37 01 00 	lea    0x13740(%rip),%rax        # 21050 <g_79>
    d910:	48 89 85 f8 fa ff ff 	mov    %rax,-0x508(%rbp)
    d917:	48 8d 85 84 e9 ff ff 	lea    -0x167c(%rbp),%rax
    d91e:	48 89 85 00 fb ff ff 	mov    %rax,-0x500(%rbp)
    d925:	48 8d 05 f8 36 01 00 	lea    0x136f8(%rip),%rax        # 21024 <g_11>
    d92c:	48 89 85 08 fb ff ff 	mov    %rax,-0x4f8(%rbp)
    d933:	48 8d 85 30 f9 ff ff 	lea    -0x6d0(%rbp),%rax
    d93a:	48 83 c0 28          	add    $0x28,%rax
    d93e:	48 89 85 f0 f1 ff ff 	mov    %rax,-0xe10(%rbp)
    d945:	48 8d 85 30 f9 ff ff 	lea    -0x6d0(%rbp),%rax
    d94c:	48 83 c0 28          	add    $0x28,%rax
    d950:	48 89 85 f8 f1 ff ff 	mov    %rax,-0xe08(%rbp)
    d957:	48 8d 85 30 f9 ff ff 	lea    -0x6d0(%rbp),%rax
    d95e:	48 83 c0 28          	add    $0x28,%rax
    d962:	48 89 85 00 f2 ff ff 	mov    %rax,-0xe00(%rbp)
    d969:	48 8d 85 30 f9 ff ff 	lea    -0x6d0(%rbp),%rax
    d970:	48 83 c0 28          	add    $0x28,%rax
    d974:	48 89 85 08 f2 ff ff 	mov    %rax,-0xdf8(%rbp)
    d97b:	48 8d 85 30 f9 ff ff 	lea    -0x6d0(%rbp),%rax
    d982:	48 83 c0 28          	add    $0x28,%rax
    d986:	48 89 85 10 f2 ff ff 	mov    %rax,-0xdf0(%rbp)
    d98d:	48 8d 85 30 f9 ff ff 	lea    -0x6d0(%rbp),%rax
    d994:	48 83 c0 28          	add    $0x28,%rax
    d998:	48 89 85 18 f2 ff ff 	mov    %rax,-0xde8(%rbp)
    d99f:	48 8d 85 30 f9 ff ff 	lea    -0x6d0(%rbp),%rax
    d9a6:	48 83 c0 28          	add    $0x28,%rax
    d9aa:	48 89 85 20 f2 ff ff 	mov    %rax,-0xde0(%rbp)
    d9b1:	8b 85 68 e9 ff ff    	mov    -0x1698(%rbp),%eax
    d9b7:	0f b7 c0             	movzwl %ax,%eax
    d9ba:	be 40 22 00 00       	mov    $0x2240,%esi
    d9bf:	89 c7                	mov    %eax,%edi
    d9c1:	e8 59 a3 ff ff       	callq  7d1f <safe_sub_func_uint16_t_u_u>
    d9c6:	66 85 c0             	test   %ax,%ax
    d9c9:	74 1b                	je     d9e6 <func_31+0xc45>
    d9cb:	c7 85 70 ea ff ff 57 	movl   $0x4d93ac57,-0x1590(%rbp)
    d9d2:	ac 93 4d 
    d9d5:	8b 85 70 ea ff ff    	mov    -0x1590(%rbp),%eax
    d9db:	89 85 54 e9 ff ff    	mov    %eax,-0x16ac(%rbp)
    d9e1:	e9 8e 01 00 00       	jmpq   db74 <func_31+0xdd3>
    d9e6:	48 8d 05 b2 37 01 00 	lea    0x137b2(%rip),%rax        # 2119f <g_359>
    d9ed:	48 89 85 40 f0 ff ff 	mov    %rax,-0xfc0(%rbp)
    d9f4:	48 8d 05 a4 37 01 00 	lea    0x137a4(%rip),%rax        # 2119f <g_359>
    d9fb:	48 89 85 48 f0 ff ff 	mov    %rax,-0xfb8(%rbp)
    da02:	48 8d 05 96 37 01 00 	lea    0x13796(%rip),%rax        # 2119f <g_359>
    da09:	48 89 85 50 f0 ff ff 	mov    %rax,-0xfb0(%rbp)
    da10:	48 8d 05 88 37 01 00 	lea    0x13788(%rip),%rax        # 2119f <g_359>
    da17:	48 89 85 58 f0 ff ff 	mov    %rax,-0xfa8(%rbp)
    da1e:	48 8d 05 7a 37 01 00 	lea    0x1377a(%rip),%rax        # 2119f <g_359>
    da25:	48 89 85 60 f0 ff ff 	mov    %rax,-0xfa0(%rbp)
    da2c:	c7 85 6c ea ff ff a8 	movl   $0x87035ca8,-0x1594(%rbp)
    da33:	5c 03 87 
    da36:	83 bd 68 ea ff ff 00 	cmpl   $0x0,-0x1598(%rbp)
    da3d:	0f 94 c3             	sete   %bl
    da40:	8b 85 68 ea ff ff    	mov    -0x1598(%rbp),%eax
    da46:	0f b6 d0             	movzbl %al,%edx
    da49:	83 bd 4c ea ff ff 01 	cmpl   $0x1,-0x15b4(%rbp)
    da50:	0f 97 c0             	seta   %al
    da53:	0f b6 c0             	movzbl %al,%eax
    da56:	39 85 68 e9 ff ff    	cmp    %eax,-0x1698(%rbp)
    da5c:	0f 9f c0             	setg   %al
    da5f:	89 c1                	mov    %eax,%ecx
    da61:	8b 85 54 e9 ff ff    	mov    -0x16ac(%rbp),%eax
    da67:	31 c8                	xor    %ecx,%eax
    da69:	0f b6 c0             	movzbl %al,%eax
    da6c:	89 d6                	mov    %edx,%esi
    da6e:	89 c7                	mov    %eax,%edi
    da70:	e8 1e a1 ff ff       	callq  7b93 <safe_mul_func_uint8_t_u_u>
    da75:	0f b6 c0             	movzbl %al,%eax
    da78:	be 00 00 00 00       	mov    $0x0,%esi
    da7d:	89 c7                	mov    %eax,%edi
    da7f:	e8 34 a4 ff ff       	callq  7eb8 <safe_add_func_uint32_t_u_u>
    da84:	83 bd 68 e9 ff ff 01 	cmpl   $0x1,-0x1698(%rbp)
    da8b:	0f 95 c0             	setne  %al
    da8e:	0f b6 d0             	movzbl %al,%edx
    da91:	8b 85 68 e9 ff ff    	mov    -0x1698(%rbp),%eax
    da97:	0d d1 b6 00 00       	or     $0xb6d1,%eax
    da9c:	48 98                	cltq   
    da9e:	48 31 c2             	xor    %rax,%rdx
    daa1:	8b 85 68 e9 ff ff    	mov    -0x1698(%rbp),%eax
    daa7:	48 98                	cltq   
    daa9:	48 09 c2             	or     %rax,%rdx
    daac:	8b 85 68 e9 ff ff    	mov    -0x1698(%rbp),%eax
    dab2:	48 98                	cltq   
    dab4:	48 39 c2             	cmp    %rax,%rdx
    dab7:	0f 9c c0             	setl   %al
    daba:	0f b6 c0             	movzbl %al,%eax
    dabd:	be 03 00 00 00       	mov    $0x3,%esi
    dac2:	89 c7                	mov    %eax,%edi
    dac4:	e8 6c 98 ff ff       	callq  7335 <safe_rshift_func_int8_t_s_s>
    dac9:	0f be c0             	movsbl %al,%eax
    dacc:	39 85 98 e9 ff ff    	cmp    %eax,-0x1668(%rbp)
    dad2:	0f 9d c0             	setge  %al
    dad5:	21 d8                	and    %ebx,%eax
    dad7:	88 05 77 35 01 00    	mov    %al,0x13577(%rip)        # 21054 <g_100>
    dadd:	0f b6 05 70 35 01 00 	movzbl 0x13570(%rip),%eax        # 21054 <g_100>
    dae4:	0f be c0             	movsbl %al,%eax
    dae7:	8b 95 6c ea ff ff    	mov    -0x1594(%rbp),%edx
    daed:	89 d6                	mov    %edx,%esi
    daef:	89 c7                	mov    %eax,%edi
    daf1:	e8 ab 97 ff ff       	callq  72a1 <safe_lshift_func_int8_t_s_s>
    daf6:	0f be c0             	movsbl %al,%eax
    daf9:	39 85 68 e9 ff ff    	cmp    %eax,-0x1698(%rbp)
    daff:	0f 95 c0             	setne  %al
    db02:	0f b6 c0             	movzbl %al,%eax
    db05:	be 0f 00 00 00       	mov    $0xf,%esi
    db0a:	89 c7                	mov    %eax,%edi
    db0c:	e8 d0 99 ff ff       	callq  74e1 <safe_lshift_func_int16_t_s_u>
    db11:	98                   	cwtl   
    db12:	23 85 98 e9 ff ff    	and    -0x1668(%rbp),%eax
    db18:	89 85 84 e9 ff ff    	mov    %eax,-0x167c(%rbp)
    db1e:	8b 85 84 e9 ff ff    	mov    -0x167c(%rbp),%eax
    db24:	89 85 10 eb ff ff    	mov    %eax,-0x14f0(%rbp)
    db2a:	c6 05 77 36 01 00 09 	movb   $0x9,0x13677(%rip)        # 211a8 <g_396>
    db31:	eb 36                	jmp    db69 <func_31+0xdc8>
    db33:	48 8d 05 16 5d 01 00 	lea    0x15d16(%rip),%rax        # 23850 <g_408>
    db3a:	48 89 85 f8 ec ff ff 	mov    %rax,-0x1308(%rbp)
    db41:	48 8b 85 f8 ec ff ff 	mov    -0x1308(%rbp),%rax
    db48:	48 8d 95 54 e9 ff ff 	lea    -0x16ac(%rbp),%rdx
    db4f:	48 89 10             	mov    %rdx,(%rax)
    db52:	83 bd 98 e9 ff ff 00 	cmpl   $0x0,-0x1668(%rbp)
    db59:	0f b6 05 48 36 01 00 	movzbl 0x13648(%rip),%eax        # 211a8 <g_396>
    db60:	83 e8 01             	sub    $0x1,%eax
    db63:	88 05 3f 36 01 00    	mov    %al,0x1363f(%rip)        # 211a8 <g_396>
    db69:	0f b6 05 38 36 01 00 	movzbl 0x13638(%rip),%eax        # 211a8 <g_396>
    db70:	3c f8                	cmp    $0xf8,%al
    db72:	7d bf                	jge    db33 <func_31+0xd92>
    db74:	48 8b 05 e5 6a 01 00 	mov    0x16ae5(%rip),%rax        # 24660 <g_309>
    db7b:	48 89 05 de 6a 01 00 	mov    %rax,0x16ade(%rip)        # 24660 <g_309>
    db82:	48 8b 1d d7 6a 01 00 	mov    0x16ad7(%rip),%rbx        # 24660 <g_309>
    db89:	48 8b 85 a0 ec ff ff 	mov    -0x1360(%rbp),%rax
    db90:	48 89 85 e0 ec ff ff 	mov    %rax,-0x1320(%rbp)
    db97:	48 8d 85 20 eb ff ff 	lea    -0x14e0(%rbp),%rax
    db9e:	48 39 85 e0 ec ff ff 	cmp    %rax,-0x1320(%rbp)
    dba5:	0f 95 c0             	setne  %al
    dba8:	0f b6 c0             	movzbl %al,%eax
    dbab:	89 c7                	mov    %eax,%edi
    dbad:	e8 37 a1 ff ff       	callq  7ce9 <safe_unary_minus_func_uint16_t_u>
    dbb2:	48 8b 85 c0 ef ff ff 	mov    -0x1040(%rbp),%rax
    dbb9:	48 85 c0             	test   %rax,%rax
    dbbc:	0f 95 c0             	setne  %al
    dbbf:	89 c2                	mov    %eax,%edx
    dbc1:	48 83 bd a8 ec ff ff 	cmpq   $0x0,-0x1358(%rbp)
    dbc8:	00 
    dbc9:	0f 95 c0             	setne  %al
    dbcc:	31 d0                	xor    %edx,%eax
    dbce:	0f b6 c0             	movzbl %al,%eax
    dbd1:	be 06 00 00 00       	mov    $0x6,%esi
    dbd6:	89 c7                	mov    %eax,%edi
    dbd8:	e8 6f a0 ff ff       	callq  7c4c <safe_lshift_func_uint8_t_u_u>
    dbdd:	48 8b 85 e8 ec ff ff 	mov    -0x1318(%rbp),%rax
    dbe4:	48 8d 95 78 ea ff ff 	lea    -0x1588(%rbp),%rdx
    dbeb:	48 89 10             	mov    %rdx,(%rax)
    dbee:	48 8b 85 e8 ec ff ff 	mov    -0x1318(%rbp),%rax
    dbf5:	48 8b 00             	mov    (%rax),%rax
    dbf8:	48 39 c3             	cmp    %rax,%rbx
    dbfb:	0f 95 c0             	setne  %al
    dbfe:	0f b6 d0             	movzbl %al,%edx
    dc01:	0f b7 85 82 e9 ff ff 	movzwl -0x167e(%rbp),%eax
    dc08:	39 c2                	cmp    %eax,%edx
    dc0a:	74 0c                	je     dc18 <func_31+0xe77>
    dc0c:	48 8d 05 c1 35 01 00 	lea    0x135c1(%rip),%rax        # 211d4 <g_481+0x14>
    dc13:	e9 d3 41 00 00       	jmpq   11deb <func_31+0x504a>
    dc18:	48 8d 05 c1 5e 01 00 	lea    0x15ec1(%rip),%rax        # 23ae0 <g_1715+0x20>
    dc1f:	48 89 85 00 ed ff ff 	mov    %rax,-0x1300(%rbp)
    dc26:	c7 85 74 ea ff ff 00 	movl   $0x0,-0x158c(%rbp)
    dc2d:	00 00 00 
    dc30:	8b 85 54 e9 ff ff    	mov    -0x16ac(%rbp),%eax
    dc36:	48 63 d8             	movslq %eax,%rbx
    dc39:	48 8b 85 58 e9 ff ff 	mov    -0x16a8(%rbp),%rax
    dc40:	0f b6 00             	movzbl (%rax),%eax
    dc43:	44 0f be e0          	movsbl %al,%r12d
    dc47:	8b 85 54 e9 ff ff    	mov    -0x16ac(%rbp),%eax
    dc4d:	44 0f bf e8          	movswl %ax,%r13d
    dc51:	48 8b 85 b0 ec ff ff 	mov    -0x1350(%rbp),%rax
    dc58:	48 89 85 f0 ec ff ff 	mov    %rax,-0x1310(%rbp)
    dc5f:	48 83 bd f0 ec ff ff 	cmpq   $0x0,-0x1310(%rbp)
    dc66:	00 
    dc67:	0f 95 c0             	setne  %al
    dc6a:	0f b6 c0             	movzbl %al,%eax
    dc6d:	89 c6                	mov    %eax,%esi
    dc6f:	bf 3f 93 22 14       	mov    $0x1422933f,%edi
    dc74:	e8 3d 99 ff ff       	callq  75b6 <safe_add_func_int32_t_s_s>
    dc79:	48 63 d0             	movslq %eax,%rdx
    dc7c:	48 8b 05 1d 60 01 00 	mov    0x1601d(%rip),%rax        # 23ca0 <g_1987>
    dc83:	48 8b 00             	mov    (%rax),%rax
    dc86:	48 8b 00             	mov    (%rax),%rax
    dc89:	48 89 d6             	mov    %rdx,%rsi
    dc8c:	48 89 c7             	mov    %rax,%rdi
    dc8f:	e8 63 9d ff ff       	callq  79f7 <safe_div_func_int64_t_s_s>
    dc94:	49 89 c6             	mov    %rax,%r14
    dc97:	83 bd 98 e9 ff ff 00 	cmpl   $0x0,-0x1668(%rbp)
    dc9e:	75 09                	jne    dca9 <func_31+0xf08>
    dca0:	83 bd 68 ea ff ff 00 	cmpl   $0x0,-0x1598(%rbp)
    dca7:	74 07                	je     dcb0 <func_31+0xf0f>
    dca9:	b8 01 00 00 00       	mov    $0x1,%eax
    dcae:	eb 05                	jmp    dcb5 <func_31+0xf14>
    dcb0:	b8 00 00 00 00       	mov    $0x0,%eax
    dcb5:	be 98 98 34 d6       	mov    $0xd6349898,%esi
    dcba:	89 c7                	mov    %eax,%edi
    dcbc:	e8 0b 9a ff ff       	callq  76cc <safe_mod_func_int32_t_s_s>
    dcc1:	48 98                	cltq   
    dcc3:	0f b6 c0             	movzbl %al,%eax
    dcc6:	49 39 c6             	cmp    %rax,%r14
    dcc9:	0f 95 c0             	setne  %al
    dccc:	0f b6 d0             	movzbl %al,%edx
    dccf:	8b 85 98 e9 ff ff    	mov    -0x1668(%rbp),%eax
    dcd5:	0f b6 c0             	movzbl %al,%eax
    dcd8:	89 d6                	mov    %edx,%esi
    dcda:	89 c7                	mov    %eax,%edi
    dcdc:	e8 b2 9e ff ff       	callq  7b93 <safe_mul_func_uint8_t_u_u>
    dce1:	0f b6 c0             	movzbl %al,%eax
    dce4:	be 00 00 00 00       	mov    $0x0,%esi
    dce9:	89 c7                	mov    %eax,%edi
    dceb:	e8 ce 9f ff ff       	callq  7cbe <safe_rshift_func_uint8_t_u_u>
    dcf0:	84 c0                	test   %al,%al
    dcf2:	74 07                	je     dcfb <func_31+0xf5a>
    dcf4:	b8 01 00 00 00       	mov    $0x1,%eax
    dcf9:	eb 05                	jmp    dd00 <func_31+0xf5f>
    dcfb:	b8 00 00 00 00       	mov    $0x0,%eax
    dd00:	98                   	cwtl   
    dd01:	44 89 ee             	mov    %r13d,%esi
    dd04:	89 c7                	mov    %eax,%edi
    dd06:	e8 0b 97 ff ff       	callq  7416 <safe_mod_func_int16_t_s_s>
    dd0b:	48 8b 85 48 f4 ff ff 	mov    -0xbb8(%rbp),%rax
    dd12:	48 39 85 38 eb ff ff 	cmp    %rax,-0x14c8(%rbp)
    dd19:	0f 95 c0             	setne  %al
    dd1c:	0f b6 c0             	movzbl %al,%eax
    dd1f:	44 89 e6             	mov    %r12d,%esi
    dd22:	89 c7                	mov    %eax,%edi
    dd24:	e8 41 95 ff ff       	callq  726a <safe_div_func_int8_t_s_s>
    dd29:	8b 85 74 ea ff ff    	mov    -0x158c(%rbp),%eax
    dd2f:	0f b7 d0             	movzwl %ax,%edx
    dd32:	8b 85 68 ea ff ff    	mov    -0x1598(%rbp),%eax
    dd38:	0f b7 c0             	movzwl %ax,%eax
    dd3b:	89 d6                	mov    %edx,%esi
    dd3d:	89 c7                	mov    %eax,%edi
    dd3f:	e8 bb 9f ff ff       	callq  7cff <safe_add_func_uint16_t_u_u>
    dd44:	66 85 c0             	test   %ax,%ax
    dd47:	75 07                	jne    dd50 <func_31+0xfaf>
    dd49:	80 bd 72 e9 ff ff 00 	cmpb   $0x0,-0x168e(%rbp)
    dd50:	48 8b 85 00 ed ff ff 	mov    -0x1300(%rbp),%rax
    dd57:	48 8d 15 ee 32 01 00 	lea    0x132ee(%rip),%rdx        # 2104c <g_64>
    dd5e:	48 89 10             	mov    %rdx,(%rax)
    dd61:	48 8b 85 00 ed ff ff 	mov    -0x1300(%rbp),%rax
    dd68:	48 8b 00             	mov    (%rax),%rax
    dd6b:	48 8d 15 e2 34 01 00 	lea    0x134e2(%rip),%rdx        # 21254 <g_1916+0x34>
    dd72:	48 39 d0             	cmp    %rdx,%rax
    dd75:	0f 95 c0             	setne  %al
    dd78:	0f b6 d0             	movzbl %al,%edx
    dd7b:	83 bd 68 e9 ff ff 00 	cmpl   $0x0,-0x1698(%rbp)
    dd82:	0f 9e c0             	setle  %al
    dd85:	0f b6 c0             	movzbl %al,%eax
    dd88:	39 c2                	cmp    %eax,%edx
    dd8a:	0f 9f c0             	setg   %al
    dd8d:	0f b6 c0             	movzbl %al,%eax
    dd90:	48 89 de             	mov    %rbx,%rsi
    dd93:	48 89 c7             	mov    %rax,%rdi
    dd96:	e8 5c 9c ff ff       	callq  79f7 <safe_div_func_int64_t_s_s>
    dd9b:	0f b6 15 c7 68 01 00 	movzbl 0x168c7(%rip),%edx        # 24669 <g_360>
    dda2:	48 0f be d2          	movsbq %dl,%rdx
    dda6:	48 09 d0             	or     %rdx,%rax
    dda9:	89 c2                	mov    %eax,%edx
    ddab:	8b 85 10 eb ff ff    	mov    -0x14f0(%rbp),%eax
    ddb1:	21 d0                	and    %edx,%eax
    ddb3:	89 85 10 eb ff ff    	mov    %eax,-0x14f0(%rbp)
    ddb9:	48 8b 85 58 f9 ff ff 	mov    -0x6a8(%rbp),%rax
    ddc0:	48 89 85 80 ea ff ff 	mov    %rax,-0x1580(%rbp)
    ddc7:	8b 05 b3 33 01 00    	mov    0x133b3(%rip),%eax        # 21180 <g_117>
    ddcd:	98                   	cwtl   
    ddce:	be 07 00 00 00       	mov    $0x7,%esi
    ddd3:	89 c7                	mov    %eax,%edi
    ddd5:	e8 d9 95 ff ff       	callq  73b3 <safe_add_func_int16_t_s_s>
    ddda:	98                   	cwtl   
    dddb:	89 05 9f 33 01 00    	mov    %eax,0x1339f(%rip)        # 21180 <g_117>
    dde1:	8b 05 99 33 01 00    	mov    0x13399(%rip),%eax        # 21180 <g_117>
    dde7:	83 f8 26             	cmp    $0x26,%eax
    ddea:	0f 86 e1 f7 ff ff    	jbe    d5d1 <func_31+0x830>
    ddf0:	c6 05 71 68 01 00 00 	movb   $0x0,0x16871(%rip)        # 24668 <g_356>
    ddf7:	e9 e8 01 00 00       	jmpq   dfe4 <func_31+0x1243>
    ddfc:	48 c7 85 b8 ec ff ff 	movq   $0x0,-0x1348(%rbp)
    de03:	00 00 00 00 
    de07:	c7 85 a0 e9 ff ff 4d 	movl   $0xe9f7da4d,-0x1660(%rbp)
    de0e:	da f7 e9 
    de11:	c7 85 60 ea ff ff 7e 	movl   $0x39efda7e,-0x15a0(%rbp)
    de18:	da ef 39 
    de1b:	48 8d 85 30 f9 ff ff 	lea    -0x6d0(%rbp),%rax
    de22:	48 8d 15 b7 df 00 00 	lea    0xdfb7(%rip),%rdx        # 1bde0 <g_2878+0xd80>
    de29:	b9 64 00 00 00       	mov    $0x64,%ecx
    de2e:	48 89 c7             	mov    %rax,%rdi
    de31:	48 89 d6             	mov    %rdx,%rsi
    de34:	f3 48 a5             	rep movsq %ds:(%rsi),%es:(%rdi)
    de37:	c7 85 a4 e9 ff ff 00 	movl   $0x0,-0x165c(%rbp)
    de3e:	00 00 00 
    de41:	eb 1a                	jmp    de5d <func_31+0x10bc>
    de43:	8b 85 a4 e9 ff ff    	mov    -0x165c(%rbp),%eax
    de49:	48 98                	cltq   
    de4b:	c7 84 85 40 f0 ff ff 	movl   $0xffffffff,-0xfc0(%rbp,%rax,4)
    de52:	ff ff ff ff 
    de56:	83 85 a4 e9 ff ff 01 	addl   $0x1,-0x165c(%rbp)
    de5d:	83 bd a4 e9 ff ff 08 	cmpl   $0x8,-0x165c(%rbp)
    de64:	7e dd                	jle    de43 <func_31+0x10a2>
    de66:	c6 05 1d 33 01 00 00 	movb   $0x0,0x1331d(%rip)        # 2118a <g_190>
    de6d:	e9 53 01 00 00       	jmpq   dfc5 <func_31+0x1224>
    de72:	48 8d 85 84 e9 ff ff 	lea    -0x167c(%rbp),%rax
    de79:	48 89 85 c0 ec ff ff 	mov    %rax,-0x1340(%rbp)
    de80:	c7 85 64 ea ff ff 00 	movl   $0x0,-0x159c(%rbp)
    de87:	00 00 00 
    de8a:	48 b8 c5 c9 44 99 ac 	movabs $0xc69af6ac9944c9c5,%rax
    de91:	f6 9a c6 
    de94:	48 89 85 c8 ec ff ff 	mov    %rax,-0x1338(%rbp)
    de9b:	48 8d 05 ee 5b 01 00 	lea    0x15bee(%rip),%rax        # 23a90 <g_1407>
    dea2:	48 89 85 d0 ec ff ff 	mov    %rax,-0x1330(%rbp)
    dea9:	48 8d 05 a4 33 01 00 	lea    0x133a4(%rip),%rax        # 21254 <g_1916+0x34>
    deb0:	48 89 85 d8 ec ff ff 	mov    %rax,-0x1328(%rbp)
    deb7:	c7 85 a8 e9 ff ff 00 	movl   $0x0,-0x1658(%rbp)
    debe:	00 00 00 
    dec1:	eb 1b                	jmp    dede <func_31+0x113d>
    dec3:	8b 85 a8 e9 ff ff    	mov    -0x1658(%rbp),%eax
    dec9:	48 98                	cltq   
    decb:	48 c7 84 c5 f0 f1 ff 	movq   $0x0,-0xe10(%rbp,%rax,8)
    ded2:	ff 00 00 00 00 
    ded7:	83 85 a8 e9 ff ff 01 	addl   $0x1,-0x1658(%rbp)
    dede:	83 bd a8 e9 ff ff 04 	cmpl   $0x4,-0x1658(%rbp)
    dee5:	7e dc                	jle    dec3 <func_31+0x1122>
    dee7:	48 8b 85 c0 ec ff ff 	mov    -0x1340(%rbp),%rax
    deee:	8b 00                	mov    (%rax),%eax
    def0:	35 29 18 ee da       	xor    $0xdaee1829,%eax
    def5:	89 c2                	mov    %eax,%edx
    def7:	48 8b 85 c0 ec ff ff 	mov    -0x1340(%rbp),%rax
    defe:	89 10                	mov    %edx,(%rax)
    df00:	be 9a ff ff ff       	mov    $0xffffff9a,%esi
    df05:	bf 26 00 00 00       	mov    $0x26,%edi
    df0a:	e8 c5 92 ff ff       	callq  71d4 <safe_add_func_int8_t_s_s>
    df0f:	48 8b 85 58 e9 ff ff 	mov    -0x16a8(%rbp),%rax
    df16:	0f b6 00             	movzbl (%rax),%eax
    df19:	0f be d8             	movsbl %al,%ebx
    df1c:	44 8b a5 68 e9 ff ff 	mov    -0x1698(%rbp),%r12d
    df23:	c7 85 44 f0 ff ff ff 	movl   $0xffffffff,-0xfbc(%rbp)
    df2a:	ff ff ff 
    df2d:	83 85 a0 e9 ff ff 01 	addl   $0x1,-0x1660(%rbp)
    df34:	83 bd a0 e9 ff ff 00 	cmpl   $0x0,-0x1660(%rbp)
    df3b:	75 10                	jne    df4d <func_31+0x11ac>
    df3d:	48 83 ad c8 ec ff ff 	subq   $0x1,-0x1338(%rbp)
    df44:	01 
    df45:	48 83 bd c8 ec ff ff 	cmpq   $0x0,-0x1338(%rbp)
    df4c:	00 
    df4d:	ba 01 00 00 00       	mov    $0x1,%edx
    df52:	48 8b 85 d8 ec ff ff 	mov    -0x1328(%rbp),%rax
    df59:	0f b7 00             	movzwl (%rax),%eax
    df5c:	31 c2                	xor    %eax,%edx
    df5e:	48 8b 85 d8 ec ff ff 	mov    -0x1328(%rbp),%rax
    df65:	66 89 10             	mov    %dx,(%rax)
    df68:	48 8b 85 d8 ec ff ff 	mov    -0x1328(%rbp),%rax
    df6f:	0f b7 00             	movzwl (%rax),%eax
    df72:	98                   	cwtl   
    df73:	89 c7                	mov    %eax,%edi
    df75:	e8 23 94 ff ff       	callq  739d <safe_unary_minus_func_int16_t_s>
    df7a:	0f b7 c0             	movzwl %ax,%eax
    df7d:	44 89 e6             	mov    %r12d,%esi
    df80:	89 c7                	mov    %eax,%edi
    df82:	e8 f3 9e ff ff       	callq  7e7a <safe_rshift_func_uint16_t_u_u>
    df87:	0f be c0             	movsbl %al,%eax
    df8a:	89 de                	mov    %ebx,%esi
    df8c:	89 c7                	mov    %eax,%edi
    df8e:	e8 d7 92 ff ff       	callq  726a <safe_div_func_int8_t_s_s>
    df93:	0f be c0             	movsbl %al,%eax
    df96:	be 06 00 00 00       	mov    $0x6,%esi
    df9b:	89 c7                	mov    %eax,%edi
    df9d:	e8 3f 95 ff ff       	callq  74e1 <safe_lshift_func_int16_t_s_u>
    dfa2:	83 bd 4c ea ff ff 00 	cmpl   $0x0,-0x15b4(%rbp)
    dfa9:	0f 95 c0             	setne  %al
    dfac:	0f b6 c0             	movzbl %al,%eax
    dfaf:	89 85 54 e9 ff ff    	mov    %eax,-0x16ac(%rbp)
    dfb5:	0f b6 05 ce 31 01 00 	movzbl 0x131ce(%rip),%eax        # 2118a <g_190>
    dfbc:	83 c0 01             	add    $0x1,%eax
    dfbf:	88 05 c5 31 01 00    	mov    %al,0x131c5(%rip)        # 2118a <g_190>
    dfc5:	0f b6 05 be 31 01 00 	movzbl 0x131be(%rip),%eax        # 2118a <g_190>
    dfcc:	3c 03                	cmp    $0x3,%al
    dfce:	0f 86 9e fe ff ff    	jbe    de72 <func_31+0x10d1>
    dfd4:	0f b6 05 8d 66 01 00 	movzbl 0x1668d(%rip),%eax        # 24668 <g_356>
    dfdb:	83 c0 01             	add    $0x1,%eax
    dfde:	88 05 84 66 01 00    	mov    %al,0x16684(%rip)        # 24668 <g_356>
    dfe4:	0f b6 05 7d 66 01 00 	movzbl 0x1667d(%rip),%eax        # 24668 <g_356>
    dfeb:	3c 03                	cmp    $0x3,%al
    dfed:	0f 86 09 fe ff ff    	jbe    ddfc <func_31+0x105b>
    dff3:	48 8b 05 7e 31 01 00 	mov    0x1317e(%rip),%rax        # 21178 <g_112>
    dffa:	48 83 e8 01          	sub    $0x1,%rax
    dffe:	48 89 05 73 31 01 00 	mov    %rax,0x13173(%rip)        # 21178 <g_112>
    e005:	48 8b 05 6c 31 01 00 	mov    0x1316c(%rip),%rax        # 21178 <g_112>
    e00c:	48 83 f8 15          	cmp    $0x15,%rax
    e010:	0f 85 bb f3 ff ff    	jne    d3d1 <func_31+0x630>
    e016:	c7 05 64 31 01 00 00 	movl   $0x0,0x13164(%rip)        # 21184 <g_122>
    e01d:	00 00 00 
    e020:	e9 80 1d 00 00       	jmpq   fda5 <func_31+0x3004>
    e025:	48 c7 85 30 ec ff ff 	movq   $0x0,-0x13d0(%rbp)
    e02c:	00 00 00 00 
    e030:	48 8d 05 89 5c 01 00 	lea    0x15c89(%rip),%rax        # 23cc0 <g_2154>
    e037:	48 89 85 38 ec ff ff 	mov    %rax,-0x13c8(%rbp)
    e03e:	48 8d 85 88 ea ff ff 	lea    -0x1578(%rbp),%rax
    e045:	48 89 85 40 ec ff ff 	mov    %rax,-0x13c0(%rbp)
    e04c:	48 8d 05 1d 66 01 00 	lea    0x1661d(%rip),%rax        # 24670 <g_845>
    e053:	48 89 85 10 eb ff ff 	mov    %rax,-0x14f0(%rbp)
    e05a:	48 8d 85 10 eb ff ff 	lea    -0x14f0(%rbp),%rax
    e061:	48 89 85 f0 f1 ff ff 	mov    %rax,-0xe10(%rbp)
    e068:	48 8d 85 10 eb ff ff 	lea    -0x14f0(%rbp),%rax
    e06f:	48 89 85 f8 f1 ff ff 	mov    %rax,-0xe08(%rbp)
    e076:	48 8d 85 10 eb ff ff 	lea    -0x14f0(%rbp),%rax
    e07d:	48 89 85 00 f2 ff ff 	mov    %rax,-0xe00(%rbp)
    e084:	48 c7 85 08 f2 ff ff 	movq   $0x0,-0xdf8(%rbp)
    e08b:	00 00 00 00 
    e08f:	48 c7 85 10 f2 ff ff 	movq   $0x0,-0xdf0(%rbp)
    e096:	00 00 00 00 
    e09a:	48 8d 85 10 eb ff ff 	lea    -0x14f0(%rbp),%rax
    e0a1:	48 89 85 18 f2 ff ff 	mov    %rax,-0xde8(%rbp)
    e0a8:	48 8d 85 10 eb ff ff 	lea    -0x14f0(%rbp),%rax
    e0af:	48 89 85 20 f2 ff ff 	mov    %rax,-0xde0(%rbp)
    e0b6:	48 8d 85 10 eb ff ff 	lea    -0x14f0(%rbp),%rax
    e0bd:	48 89 85 28 f2 ff ff 	mov    %rax,-0xdd8(%rbp)
    e0c4:	48 8d 85 10 eb ff ff 	lea    -0x14f0(%rbp),%rax
    e0cb:	48 89 85 30 f2 ff ff 	mov    %rax,-0xdd0(%rbp)
    e0d2:	48 8d 85 10 eb ff ff 	lea    -0x14f0(%rbp),%rax
    e0d9:	48 89 85 38 f2 ff ff 	mov    %rax,-0xdc8(%rbp)
    e0e0:	48 8d 85 10 eb ff ff 	lea    -0x14f0(%rbp),%rax
    e0e7:	48 89 85 40 f2 ff ff 	mov    %rax,-0xdc0(%rbp)
    e0ee:	48 8d 85 10 eb ff ff 	lea    -0x14f0(%rbp),%rax
    e0f5:	48 89 85 48 f2 ff ff 	mov    %rax,-0xdb8(%rbp)
    e0fc:	48 8d 85 10 eb ff ff 	lea    -0x14f0(%rbp),%rax
    e103:	48 89 85 50 f2 ff ff 	mov    %rax,-0xdb0(%rbp)
    e10a:	48 8d 85 10 eb ff ff 	lea    -0x14f0(%rbp),%rax
    e111:	48 89 85 58 f2 ff ff 	mov    %rax,-0xda8(%rbp)
    e118:	48 8d 85 10 eb ff ff 	lea    -0x14f0(%rbp),%rax
    e11f:	48 89 85 60 f2 ff ff 	mov    %rax,-0xda0(%rbp)
    e126:	48 8d 85 10 eb ff ff 	lea    -0x14f0(%rbp),%rax
    e12d:	48 89 85 68 f2 ff ff 	mov    %rax,-0xd98(%rbp)
    e134:	48 8d 85 10 eb ff ff 	lea    -0x14f0(%rbp),%rax
    e13b:	48 89 85 70 f2 ff ff 	mov    %rax,-0xd90(%rbp)
    e142:	48 8d 85 10 eb ff ff 	lea    -0x14f0(%rbp),%rax
    e149:	48 89 85 78 f2 ff ff 	mov    %rax,-0xd88(%rbp)
    e150:	48 8d 85 10 eb ff ff 	lea    -0x14f0(%rbp),%rax
    e157:	48 89 85 80 f2 ff ff 	mov    %rax,-0xd80(%rbp)
    e15e:	48 c7 85 88 f2 ff ff 	movq   $0x0,-0xd78(%rbp)
    e165:	00 00 00 00 
    e169:	48 8d 85 10 eb ff ff 	lea    -0x14f0(%rbp),%rax
    e170:	48 89 85 90 f2 ff ff 	mov    %rax,-0xd70(%rbp)
    e177:	48 8d 85 10 eb ff ff 	lea    -0x14f0(%rbp),%rax
    e17e:	48 89 85 98 f2 ff ff 	mov    %rax,-0xd68(%rbp)
    e185:	48 8d 85 10 eb ff ff 	lea    -0x14f0(%rbp),%rax
    e18c:	48 89 85 a0 f2 ff ff 	mov    %rax,-0xd60(%rbp)
    e193:	48 8d 85 10 eb ff ff 	lea    -0x14f0(%rbp),%rax
    e19a:	48 89 85 a8 f2 ff ff 	mov    %rax,-0xd58(%rbp)
    e1a1:	48 8d 85 10 eb ff ff 	lea    -0x14f0(%rbp),%rax
    e1a8:	48 89 85 b0 f2 ff ff 	mov    %rax,-0xd50(%rbp)
    e1af:	48 8d 85 10 eb ff ff 	lea    -0x14f0(%rbp),%rax
    e1b6:	48 89 85 b8 f2 ff ff 	mov    %rax,-0xd48(%rbp)
    e1bd:	48 8d 85 10 eb ff ff 	lea    -0x14f0(%rbp),%rax
    e1c4:	48 89 85 c0 f2 ff ff 	mov    %rax,-0xd40(%rbp)
    e1cb:	48 8d 85 10 eb ff ff 	lea    -0x14f0(%rbp),%rax
    e1d2:	48 89 85 c8 f2 ff ff 	mov    %rax,-0xd38(%rbp)
    e1d9:	48 8d 85 10 eb ff ff 	lea    -0x14f0(%rbp),%rax
    e1e0:	48 89 85 d0 f2 ff ff 	mov    %rax,-0xd30(%rbp)
    e1e7:	48 8d 85 10 eb ff ff 	lea    -0x14f0(%rbp),%rax
    e1ee:	48 89 85 d8 f2 ff ff 	mov    %rax,-0xd28(%rbp)
    e1f5:	48 c7 85 e0 f2 ff ff 	movq   $0x0,-0xd20(%rbp)
    e1fc:	00 00 00 00 
    e200:	48 8d 85 10 eb ff ff 	lea    -0x14f0(%rbp),%rax
    e207:	48 89 85 e8 f2 ff ff 	mov    %rax,-0xd18(%rbp)
    e20e:	48 8d 85 10 eb ff ff 	lea    -0x14f0(%rbp),%rax
    e215:	48 89 85 f0 f2 ff ff 	mov    %rax,-0xd10(%rbp)
    e21c:	48 8d 85 10 eb ff ff 	lea    -0x14f0(%rbp),%rax
    e223:	48 89 85 f8 f2 ff ff 	mov    %rax,-0xd08(%rbp)
    e22a:	48 8d 85 10 eb ff ff 	lea    -0x14f0(%rbp),%rax
    e231:	48 89 85 00 f3 ff ff 	mov    %rax,-0xd00(%rbp)
    e238:	48 8d 85 10 eb ff ff 	lea    -0x14f0(%rbp),%rax
    e23f:	48 89 85 08 f3 ff ff 	mov    %rax,-0xcf8(%rbp)
    e246:	48 8d 85 10 eb ff ff 	lea    -0x14f0(%rbp),%rax
    e24d:	48 89 85 10 f3 ff ff 	mov    %rax,-0xcf0(%rbp)
    e254:	48 8d 85 10 eb ff ff 	lea    -0x14f0(%rbp),%rax
    e25b:	48 89 85 18 f3 ff ff 	mov    %rax,-0xce8(%rbp)
    e262:	48 8d 85 10 eb ff ff 	lea    -0x14f0(%rbp),%rax
    e269:	48 89 85 20 f3 ff ff 	mov    %rax,-0xce0(%rbp)
    e270:	48 8d 85 10 eb ff ff 	lea    -0x14f0(%rbp),%rax
    e277:	48 89 85 28 f3 ff ff 	mov    %rax,-0xcd8(%rbp)
    e27e:	48 8d 85 10 eb ff ff 	lea    -0x14f0(%rbp),%rax
    e285:	48 89 85 30 f3 ff ff 	mov    %rax,-0xcd0(%rbp)
    e28c:	48 8d 85 10 eb ff ff 	lea    -0x14f0(%rbp),%rax
    e293:	48 89 85 38 f3 ff ff 	mov    %rax,-0xcc8(%rbp)
    e29a:	48 c7 85 40 f3 ff ff 	movq   $0x0,-0xcc0(%rbp)
    e2a1:	00 00 00 00 
    e2a5:	48 c7 85 48 f3 ff ff 	movq   $0x0,-0xcb8(%rbp)
    e2ac:	00 00 00 00 
    e2b0:	48 c7 85 50 f3 ff ff 	movq   $0x0,-0xcb0(%rbp)
    e2b7:	00 00 00 00 
    e2bb:	48 8d 85 f0 f1 ff ff 	lea    -0xe10(%rbp),%rax
    e2c2:	48 05 e0 00 00 00    	add    $0xe0,%rax
    e2c8:	48 89 85 48 ec ff ff 	mov    %rax,-0x13b8(%rbp)
    e2cf:	c7 85 18 ea ff ff 1f 	movl   $0xed0bea1f,-0x15e8(%rbp)
    e2d6:	ea 0b ed 
    e2d9:	c7 85 1c ea ff ff 01 	movl   $0x1,-0x15e4(%rbp)
    e2e0:	00 00 00 
    e2e3:	48 8d 05 ba 2f 01 00 	lea    0x12fba(%rip),%rax        # 212a4 <g_2159>
    e2ea:	48 89 85 18 eb ff ff 	mov    %rax,-0x14e8(%rbp)
    e2f1:	c6 85 74 e9 ff ff d1 	movb   $0xd1,-0x168c(%rbp)
    e2f8:	c7 85 ac e9 ff ff 00 	movl   $0x0,-0x1654(%rbp)
    e2ff:	00 00 00 
    e302:	eb 1e                	jmp    e322 <func_31+0x1581>
    e304:	8b 85 ac e9 ff ff    	mov    -0x1654(%rbp),%eax
    e30a:	48 98                	cltq   
    e30c:	48 8d 95 80 ea ff ff 	lea    -0x1580(%rbp),%rdx
    e313:	48 89 94 c5 70 ed ff 	mov    %rdx,-0x1290(%rbp,%rax,8)
    e31a:	ff 
    e31b:	83 85 ac e9 ff ff 01 	addl   $0x1,-0x1654(%rbp)
    e322:	83 bd ac e9 ff ff 02 	cmpl   $0x2,-0x1654(%rbp)
    e329:	7e d9                	jle    e304 <func_31+0x1563>
    e32b:	c7 85 ac e9 ff ff 00 	movl   $0x0,-0x1654(%rbp)
    e332:	00 00 00 
    e335:	eb 1e                	jmp    e355 <func_31+0x15b4>
    e337:	8b 85 ac e9 ff ff    	mov    -0x1654(%rbp),%eax
    e33d:	48 98                	cltq   
    e33f:	48 8d 95 18 eb ff ff 	lea    -0x14e8(%rbp),%rdx
    e346:	48 89 94 c5 20 ed ff 	mov    %rdx,-0x12e0(%rbp,%rax,8)
    e34d:	ff 
    e34e:	83 85 ac e9 ff ff 01 	addl   $0x1,-0x1654(%rbp)
    e355:	83 bd ac e9 ff ff 01 	cmpl   $0x1,-0x1654(%rbp)
    e35c:	7e d9                	jle    e337 <func_31+0x1596>
    e35e:	48 c7 85 18 ec ff ff 	movq   $0x0,-0x13e8(%rbp)
    e365:	00 00 00 00 
    e369:	83 bd 68 e9 ff ff 00 	cmpl   $0x0,-0x1698(%rbp)
    e370:	0f 85 f2 39 00 00    	jne    11d68 <func_31+0x4fc7>
    e376:	c6 05 67 2e 01 00 0a 	movb   $0xa,0x12e67(%rip)        # 211e4 <g_625>
    e37d:	90                   	nop
    e37e:	0f b6 05 5f 2e 01 00 	movzbl 0x12e5f(%rip),%eax        # 211e4 <g_625>
    e385:	3c 33                	cmp    $0x33,%al
    e387:	77 0c                	ja     e395 <func_31+0x15f4>
    e389:	48 8b 85 58 e9 ff ff 	mov    -0x16a8(%rbp),%rax
    e390:	e9 56 3a 00 00       	jmpq   11deb <func_31+0x504a>
    e395:	48 8b 05 ec 56 01 00 	mov    0x156ec(%rip),%rax        # 23a88 <g_1408>
    e39c:	48 8b 00             	mov    (%rax),%rax
    e39f:	0f b7 00             	movzwl (%rax),%eax
    e3a2:	0f bf d8             	movswl %ax,%ebx
    e3a5:	48 8b 85 90 ea ff ff 	mov    -0x1570(%rbp),%rax
    e3ac:	48 89 85 40 ec ff ff 	mov    %rax,-0x13c0(%rbp)
    e3b3:	48 8b 85 40 ec ff ff 	mov    -0x13c0(%rbp),%rax
    e3ba:	48 3b 85 48 ec ff ff 	cmp    -0x13b8(%rbp),%rax
    e3c1:	0f 95 c0             	setne  %al
    e3c4:	44 0f b6 e8          	movzbl %al,%r13d
    e3c8:	0f b7 85 6c e9 ff ff 	movzwl -0x1694(%rbp),%eax
    e3cf:	44 0f b7 e0          	movzwl %ax,%r12d
    e3d3:	0f b7 85 6c e9 ff ff 	movzwl -0x1694(%rbp),%eax
    e3da:	0f b7 c0             	movzwl %ax,%eax
    e3dd:	be 00 00 00 00       	mov    $0x0,%esi
    e3e2:	89 c7                	mov    %eax,%edi
    e3e4:	e8 1d 9a ff ff       	callq  7e06 <safe_lshift_func_uint16_t_u_u>
    e3e9:	0f b7 c0             	movzwl %ax,%eax
    e3ec:	44 89 e6             	mov    %r12d,%esi
    e3ef:	89 c7                	mov    %eax,%edi
    e3f1:	e8 09 99 ff ff       	callq  7cff <safe_add_func_uint16_t_u_u>
    e3f6:	44 31 e8             	xor    %r13d,%eax
    e3f9:	98                   	cwtl   
    e3fa:	89 de                	mov    %ebx,%esi
    e3fc:	89 c7                	mov    %eax,%edi
    e3fe:	e8 13 90 ff ff       	callq  7416 <safe_mod_func_int16_t_s_s>
    e403:	48 8b 15 b6 58 01 00 	mov    0x158b6(%rip),%rdx        # 23cc0 <g_2154>
    e40a:	48 8b 85 38 ec ff ff 	mov    -0x13c8(%rbp),%rax
    e411:	48 89 10             	mov    %rdx,(%rax)
    e414:	48 8b 85 38 ec ff ff 	mov    -0x13c8(%rbp),%rax
    e41b:	48 8b 00             	mov    (%rax),%rax
    e41e:	48 89 05 a3 58 01 00 	mov    %rax,0x158a3(%rip)        # 23cc8 <g_2157>
    e425:	48 8b 05 9c 58 01 00 	mov    0x1589c(%rip),%rax        # 23cc8 <g_2157>
    e42c:	48 85 c0             	test   %rax,%rax
    e42f:	0f 85 70 06 00 00    	jne    eaa5 <func_31+0x1d04>
    e435:	c7 85 2c ea ff ff cb 	movl   $0xa8353acb,-0x15d4(%rbp)
    e43c:	3a 35 a8 
    e43f:	c7 85 30 ea ff ff 18 	movl   $0x29d27c18,-0x15d0(%rbp)
    e446:	7c d2 29 
    e449:	c7 85 34 ea ff ff 00 	movl   $0x0,-0x15cc(%rbp)
    e450:	00 00 00 
    e453:	c7 85 38 ea ff ff 16 	movl   $0x1cd62816,-0x15c8(%rbp)
    e45a:	28 d6 1c 
    e45d:	c7 85 3c ea ff ff 3b 	movl   $0x13466c3b,-0x15c4(%rbp)
    e464:	6c 46 13 
    e467:	c7 85 40 ea ff ff 40 	movl   $0x1009d840,-0x15c0(%rbp)
    e46e:	d8 09 10 
    e471:	c7 85 44 ea ff ff fa 	movl   $0xfffffffa,-0x15bc(%rbp)
    e478:	ff ff ff 
    e47b:	c7 85 48 ea ff ff 29 	movl   $0x66881029,-0x15b8(%rbp)
    e482:	10 88 66 
    e485:	48 8d 85 40 f0 ff ff 	lea    -0xfc0(%rbp),%rax
    e48c:	48 8d 15 6d dc 00 00 	lea    0xdc6d(%rip),%rdx        # 1c100 <g_2878+0x10a0>
    e493:	b9 1f 00 00 00       	mov    $0x1f,%ecx
    e498:	48 89 c7             	mov    %rax,%rdi
    e49b:	48 89 d6             	mov    %rdx,%rsi
    e49e:	f3 48 a5             	rep movsq %ds:(%rsi),%es:(%rdi)
    e4a1:	48 89 f2             	mov    %rsi,%rdx
    e4a4:	48 89 f8             	mov    %rdi,%rax
    e4a7:	8b 0a                	mov    (%rdx),%ecx
    e4a9:	89 08                	mov    %ecx,(%rax)
    e4ab:	48 8d 85 20 ed ff ff 	lea    -0x12e0(%rbp),%rax
    e4b2:	48 83 c0 08          	add    $0x8,%rax
    e4b6:	48 89 85 f0 f3 ff ff 	mov    %rax,-0xc10(%rbp)
    e4bd:	48 c7 85 f8 f3 ff ff 	movq   $0x0,-0xc08(%rbp)
    e4c4:	00 00 00 00 
    e4c8:	48 8d 85 20 ed ff ff 	lea    -0x12e0(%rbp),%rax
    e4cf:	48 83 c0 08          	add    $0x8,%rax
    e4d3:	48 89 85 00 f4 ff ff 	mov    %rax,-0xc00(%rbp)
    e4da:	48 8d 85 20 ed ff ff 	lea    -0x12e0(%rbp),%rax
    e4e1:	48 83 c0 08          	add    $0x8,%rax
    e4e5:	48 89 85 08 f4 ff ff 	mov    %rax,-0xbf8(%rbp)
    e4ec:	48 c7 85 10 f4 ff ff 	movq   $0x0,-0xbf0(%rbp)
    e4f3:	00 00 00 00 
    e4f7:	48 8d 05 ca 61 01 00 	lea    0x161ca(%rip),%rax        # 246c8 <g_2218>
    e4fe:	48 89 85 18 f4 ff ff 	mov    %rax,-0xbe8(%rbp)
    e505:	48 8d 85 20 ed ff ff 	lea    -0x12e0(%rbp),%rax
    e50c:	48 83 c0 08          	add    $0x8,%rax
    e510:	48 89 85 20 f4 ff ff 	mov    %rax,-0xbe0(%rbp)
    e517:	48 8d 05 aa 61 01 00 	lea    0x161aa(%rip),%rax        # 246c8 <g_2218>
    e51e:	48 89 85 28 f4 ff ff 	mov    %rax,-0xbd8(%rbp)
    e525:	48 8d 05 9c 61 01 00 	lea    0x1619c(%rip),%rax        # 246c8 <g_2218>
    e52c:	48 89 85 30 f4 ff ff 	mov    %rax,-0xbd0(%rbp)
    e533:	48 8d 05 8e 61 01 00 	lea    0x1618e(%rip),%rax        # 246c8 <g_2218>
    e53a:	48 89 85 38 f4 ff ff 	mov    %rax,-0xbc8(%rbp)
    e541:	48 8d 85 20 ed ff ff 	lea    -0x12e0(%rbp),%rax
    e548:	48 89 85 40 f4 ff ff 	mov    %rax,-0xbc0(%rbp)
    e54f:	48 8d 85 20 ed ff ff 	lea    -0x12e0(%rbp),%rax
    e556:	48 83 c0 08          	add    $0x8,%rax
    e55a:	48 89 85 48 f4 ff ff 	mov    %rax,-0xbb8(%rbp)
    e561:	48 8d 85 20 ed ff ff 	lea    -0x12e0(%rbp),%rax
    e568:	48 83 c0 08          	add    $0x8,%rax
    e56c:	48 89 85 50 f4 ff ff 	mov    %rax,-0xbb0(%rbp)
    e573:	48 c7 85 58 f4 ff ff 	movq   $0x0,-0xba8(%rbp)
    e57a:	00 00 00 00 
    e57e:	48 8d 85 20 ed ff ff 	lea    -0x12e0(%rbp),%rax
    e585:	48 83 c0 08          	add    $0x8,%rax
    e589:	48 89 85 60 f4 ff ff 	mov    %rax,-0xba0(%rbp)
    e590:	48 8d 85 20 ed ff ff 	lea    -0x12e0(%rbp),%rax
    e597:	48 83 c0 08          	add    $0x8,%rax
    e59b:	48 89 85 68 f4 ff ff 	mov    %rax,-0xb98(%rbp)
    e5a2:	48 8d 85 20 ed ff ff 	lea    -0x12e0(%rbp),%rax
    e5a9:	48 83 c0 08          	add    $0x8,%rax
    e5ad:	48 89 85 70 f4 ff ff 	mov    %rax,-0xb90(%rbp)
    e5b4:	48 8d 85 20 ed ff ff 	lea    -0x12e0(%rbp),%rax
    e5bb:	48 83 c0 08          	add    $0x8,%rax
    e5bf:	48 89 85 78 f4 ff ff 	mov    %rax,-0xb88(%rbp)
    e5c6:	48 8d 85 20 ed ff ff 	lea    -0x12e0(%rbp),%rax
    e5cd:	48 83 c0 08          	add    $0x8,%rax
    e5d1:	48 89 85 80 f4 ff ff 	mov    %rax,-0xb80(%rbp)
    e5d8:	48 8d 05 e9 60 01 00 	lea    0x160e9(%rip),%rax        # 246c8 <g_2218>
    e5df:	48 89 85 88 f4 ff ff 	mov    %rax,-0xb78(%rbp)
    e5e6:	48 8d 05 db 60 01 00 	lea    0x160db(%rip),%rax        # 246c8 <g_2218>
    e5ed:	48 89 85 90 f4 ff ff 	mov    %rax,-0xb70(%rbp)
    e5f4:	48 8d 85 20 ed ff ff 	lea    -0x12e0(%rbp),%rax
    e5fb:	48 83 c0 08          	add    $0x8,%rax
    e5ff:	48 89 85 98 f4 ff ff 	mov    %rax,-0xb68(%rbp)
    e606:	48 c7 85 a0 f4 ff ff 	movq   $0x0,-0xb60(%rbp)
    e60d:	00 00 00 00 
    e611:	48 c7 85 a8 f4 ff ff 	movq   $0x0,-0xb58(%rbp)
    e618:	00 00 00 00 
    e61c:	48 8d 85 20 ed ff ff 	lea    -0x12e0(%rbp),%rax
    e623:	48 83 c0 08          	add    $0x8,%rax
    e627:	48 89 85 b0 f4 ff ff 	mov    %rax,-0xb50(%rbp)
    e62e:	48 c7 85 b8 f4 ff ff 	movq   $0x0,-0xb48(%rbp)
    e635:	00 00 00 00 
    e639:	48 8d 85 20 ed ff ff 	lea    -0x12e0(%rbp),%rax
    e640:	48 83 c0 08          	add    $0x8,%rax
    e644:	48 89 85 c0 f4 ff ff 	mov    %rax,-0xb40(%rbp)
    e64b:	48 8d 85 20 ed ff ff 	lea    -0x12e0(%rbp),%rax
    e652:	48 83 c0 08          	add    $0x8,%rax
    e656:	48 89 85 c8 f4 ff ff 	mov    %rax,-0xb38(%rbp)
    e65d:	48 8d 85 20 ed ff ff 	lea    -0x12e0(%rbp),%rax
    e664:	48 83 c0 08          	add    $0x8,%rax
    e668:	48 89 85 d0 f4 ff ff 	mov    %rax,-0xb30(%rbp)
    e66f:	48 8d 85 20 ed ff ff 	lea    -0x12e0(%rbp),%rax
    e676:	48 83 c0 08          	add    $0x8,%rax
    e67a:	48 89 85 d8 f4 ff ff 	mov    %rax,-0xb28(%rbp)
    e681:	48 8d 85 20 ed ff ff 	lea    -0x12e0(%rbp),%rax
    e688:	48 83 c0 08          	add    $0x8,%rax
    e68c:	48 89 85 e0 f4 ff ff 	mov    %rax,-0xb20(%rbp)
    e693:	48 c7 85 e8 f4 ff ff 	movq   $0x0,-0xb18(%rbp)
    e69a:	00 00 00 00 
    e69e:	48 8d 85 20 ed ff ff 	lea    -0x12e0(%rbp),%rax
    e6a5:	48 83 c0 08          	add    $0x8,%rax
    e6a9:	48 89 85 f0 f4 ff ff 	mov    %rax,-0xb10(%rbp)
    e6b0:	48 8d 85 20 ed ff ff 	lea    -0x12e0(%rbp),%rax
    e6b7:	48 83 c0 08          	add    $0x8,%rax
    e6bb:	48 89 85 f8 f4 ff ff 	mov    %rax,-0xb08(%rbp)
    e6c2:	48 8d 85 20 ed ff ff 	lea    -0x12e0(%rbp),%rax
    e6c9:	48 83 c0 08          	add    $0x8,%rax
    e6cd:	48 89 85 00 f5 ff ff 	mov    %rax,-0xb00(%rbp)
    e6d4:	48 8d 85 20 ed ff ff 	lea    -0x12e0(%rbp),%rax
    e6db:	48 83 c0 08          	add    $0x8,%rax
    e6df:	48 89 85 08 f5 ff ff 	mov    %rax,-0xaf8(%rbp)
    e6e6:	48 c7 85 10 f5 ff ff 	movq   $0x0,-0xaf0(%rbp)
    e6ed:	00 00 00 00 
    e6f1:	48 8d 85 20 ed ff ff 	lea    -0x12e0(%rbp),%rax
    e6f8:	48 89 85 18 f5 ff ff 	mov    %rax,-0xae8(%rbp)
    e6ff:	48 8d 85 20 ed ff ff 	lea    -0x12e0(%rbp),%rax
    e706:	48 83 c0 08          	add    $0x8,%rax
    e70a:	48 89 85 20 f5 ff ff 	mov    %rax,-0xae0(%rbp)
    e711:	48 8d 05 b0 5f 01 00 	lea    0x15fb0(%rip),%rax        # 246c8 <g_2218>
    e718:	48 89 85 28 f5 ff ff 	mov    %rax,-0xad8(%rbp)
    e71f:	48 8d 85 20 ed ff ff 	lea    -0x12e0(%rbp),%rax
    e726:	48 83 c0 08          	add    $0x8,%rax
    e72a:	48 89 85 30 f5 ff ff 	mov    %rax,-0xad0(%rbp)
    e731:	48 8d 05 90 5f 01 00 	lea    0x15f90(%rip),%rax        # 246c8 <g_2218>
    e738:	48 89 85 38 f5 ff ff 	mov    %rax,-0xac8(%rbp)
    e73f:	48 8d 85 20 ed ff ff 	lea    -0x12e0(%rbp),%rax
    e746:	48 83 c0 08          	add    $0x8,%rax
    e74a:	48 89 85 40 f5 ff ff 	mov    %rax,-0xac0(%rbp)
    e751:	48 c7 85 48 f5 ff ff 	movq   $0x0,-0xab8(%rbp)
    e758:	00 00 00 00 
    e75c:	48 8d 85 20 ed ff ff 	lea    -0x12e0(%rbp),%rax
    e763:	48 83 c0 08          	add    $0x8,%rax
    e767:	48 89 85 50 f5 ff ff 	mov    %rax,-0xab0(%rbp)
    e76e:	48 8d 85 20 ed ff ff 	lea    -0x12e0(%rbp),%rax
    e775:	48 83 c0 08          	add    $0x8,%rax
    e779:	48 89 85 58 f5 ff ff 	mov    %rax,-0xaa8(%rbp)
    e780:	48 8d 85 20 ed ff ff 	lea    -0x12e0(%rbp),%rax
    e787:	48 83 c0 08          	add    $0x8,%rax
    e78b:	48 89 85 60 f5 ff ff 	mov    %rax,-0xaa0(%rbp)
    e792:	48 c7 85 68 f5 ff ff 	movq   $0x0,-0xa98(%rbp)
    e799:	00 00 00 00 
    e79d:	48 8d 85 20 ed ff ff 	lea    -0x12e0(%rbp),%rax
    e7a4:	48 83 c0 08          	add    $0x8,%rax
    e7a8:	48 89 85 70 f5 ff ff 	mov    %rax,-0xa90(%rbp)
    e7af:	48 8d 85 20 ed ff ff 	lea    -0x12e0(%rbp),%rax
    e7b6:	48 83 c0 08          	add    $0x8,%rax
    e7ba:	48 89 85 78 f5 ff ff 	mov    %rax,-0xa88(%rbp)
    e7c1:	48 8d 85 20 ed ff ff 	lea    -0x12e0(%rbp),%rax
    e7c8:	48 83 c0 08          	add    $0x8,%rax
    e7cc:	48 89 85 80 f5 ff ff 	mov    %rax,-0xa80(%rbp)
    e7d3:	48 8d 85 20 ed ff ff 	lea    -0x12e0(%rbp),%rax
    e7da:	48 83 c0 08          	add    $0x8,%rax
    e7de:	48 89 85 88 f5 ff ff 	mov    %rax,-0xa78(%rbp)
    e7e5:	48 8d 85 20 ed ff ff 	lea    -0x12e0(%rbp),%rax
    e7ec:	48 83 c0 08          	add    $0x8,%rax
    e7f0:	48 89 85 90 f5 ff ff 	mov    %rax,-0xa70(%rbp)
    e7f7:	48 8d 85 20 ed ff ff 	lea    -0x12e0(%rbp),%rax
    e7fe:	48 83 c0 08          	add    $0x8,%rax
    e802:	48 89 85 98 f5 ff ff 	mov    %rax,-0xa68(%rbp)
    e809:	48 8d 05 b8 5e 01 00 	lea    0x15eb8(%rip),%rax        # 246c8 <g_2218>
    e810:	48 89 85 a0 f5 ff ff 	mov    %rax,-0xa60(%rbp)
    e817:	48 8d 85 20 ed ff ff 	lea    -0x12e0(%rbp),%rax
    e81e:	48 83 c0 08          	add    $0x8,%rax
    e822:	48 89 85 a8 f5 ff ff 	mov    %rax,-0xa58(%rbp)
    e829:	48 8d 85 20 ed ff ff 	lea    -0x12e0(%rbp),%rax
    e830:	48 89 85 b0 f5 ff ff 	mov    %rax,-0xa50(%rbp)
    e837:	48 8d 05 8a 5e 01 00 	lea    0x15e8a(%rip),%rax        # 246c8 <g_2218>
    e83e:	48 89 85 b8 f5 ff ff 	mov    %rax,-0xa48(%rbp)
    e845:	48 8d 85 20 ed ff ff 	lea    -0x12e0(%rbp),%rax
    e84c:	48 83 c0 08          	add    $0x8,%rax
    e850:	48 89 85 c0 f5 ff ff 	mov    %rax,-0xa40(%rbp)
    e857:	48 8d 85 20 ed ff ff 	lea    -0x12e0(%rbp),%rax
    e85e:	48 83 c0 08          	add    $0x8,%rax
    e862:	48 89 85 c8 f5 ff ff 	mov    %rax,-0xa38(%rbp)
    e869:	48 8d 85 20 ed ff ff 	lea    -0x12e0(%rbp),%rax
    e870:	48 89 85 d0 f5 ff ff 	mov    %rax,-0xa30(%rbp)
    e877:	48 8d 85 20 ed ff ff 	lea    -0x12e0(%rbp),%rax
    e87e:	48 83 c0 08          	add    $0x8,%rax
    e882:	48 89 85 d8 f5 ff ff 	mov    %rax,-0xa28(%rbp)
    e889:	48 8d 85 20 ed ff ff 	lea    -0x12e0(%rbp),%rax
    e890:	48 89 85 e0 f5 ff ff 	mov    %rax,-0xa20(%rbp)
    e897:	48 8d 85 20 ed ff ff 	lea    -0x12e0(%rbp),%rax
    e89e:	48 83 c0 08          	add    $0x8,%rax
    e8a2:	48 89 85 e8 f5 ff ff 	mov    %rax,-0xa18(%rbp)
    e8a9:	48 c7 85 f0 f5 ff ff 	movq   $0x0,-0xa10(%rbp)
    e8b0:	00 00 00 00 
    e8b4:	48 8d 05 0d 5e 01 00 	lea    0x15e0d(%rip),%rax        # 246c8 <g_2218>
    e8bb:	48 89 85 f8 f5 ff ff 	mov    %rax,-0xa08(%rbp)
    e8c2:	48 8d 05 ff 5d 01 00 	lea    0x15dff(%rip),%rax        # 246c8 <g_2218>
    e8c9:	48 89 85 00 f6 ff ff 	mov    %rax,-0xa00(%rbp)
    e8d0:	48 c7 85 08 f6 ff ff 	movq   $0x0,-0x9f8(%rbp)
    e8d7:	00 00 00 00 
    e8db:	48 8d 85 20 ed ff ff 	lea    -0x12e0(%rbp),%rax
    e8e2:	48 83 c0 08          	add    $0x8,%rax
    e8e6:	48 89 85 10 f6 ff ff 	mov    %rax,-0x9f0(%rbp)
    e8ed:	48 8d 85 20 ed ff ff 	lea    -0x12e0(%rbp),%rax
    e8f4:	48 83 c0 08          	add    $0x8,%rax
    e8f8:	48 89 85 18 f6 ff ff 	mov    %rax,-0x9e8(%rbp)
    e8ff:	48 8d 85 20 ed ff ff 	lea    -0x12e0(%rbp),%rax
    e906:	48 83 c0 08          	add    $0x8,%rax
    e90a:	48 89 85 20 f6 ff ff 	mov    %rax,-0x9e0(%rbp)
    e911:	48 8d 05 b0 5d 01 00 	lea    0x15db0(%rip),%rax        # 246c8 <g_2218>
    e918:	48 89 85 28 f6 ff ff 	mov    %rax,-0x9d8(%rbp)
    e91f:	8b 85 ac ee ff ff    	mov    -0x1154(%rbp),%eax
    e925:	83 e8 01             	sub    $0x1,%eax
    e928:	89 85 ac ee ff ff    	mov    %eax,-0x1154(%rbp)
    e92e:	c7 05 d8 28 01 00 00 	movl   $0x0,0x128d8(%rip)        # 21210 <g_1562>
    e935:	00 00 00 
    e938:	e9 54 01 00 00       	jmpq   ea91 <func_31+0x1cf0>
    e93d:	48 8d 85 30 f9 ff ff 	lea    -0x6d0(%rbp),%rax
    e944:	48 8d 15 75 39 01 00 	lea    0x13975(%rip),%rdx        # 222c0 <g_3045+0xe5c>
    e94b:	b9 50 00 00 00       	mov    $0x50,%ecx
    e950:	48 89 c7             	mov    %rax,%rdi
    e953:	48 89 d6             	mov    %rdx,%rsi
    e956:	f3 48 a5             	rep movsq %ds:(%rsi),%es:(%rdi)
    e959:	0f b6 85 71 e9 ff ff 	movzbl -0x168f(%rbp),%eax
    e960:	89 85 50 e9 ff ff    	mov    %eax,-0x16b0(%rbp)
    e966:	8b 9d 68 f0 ff ff    	mov    -0xf98(%rbp),%ebx
    e96c:	8b 85 48 ea ff ff    	mov    -0x15b8(%rbp),%eax
    e972:	4c 63 e0             	movslq %eax,%r12
    e975:	8b 85 54 e9 ff ff    	mov    -0x16ac(%rbp),%eax
    e97b:	4c 63 e8             	movslq %eax,%r13
    e97e:	8b 85 68 e9 ff ff    	mov    -0x1698(%rbp),%eax
    e984:	44 0f bf f0          	movswl %ax,%r14d
    e988:	48 8b 85 28 fa ff ff 	mov    -0x5d8(%rbp),%rax
    e98f:	48 89 85 08 fb ff ff 	mov    %rax,-0x4f8(%rbp)
    e996:	8b 85 54 e9 ff ff    	mov    -0x16ac(%rbp),%eax
    e99c:	44 0f bf f8          	movswl %ax,%r15d
    e9a0:	48 8b 85 58 e9 ff ff 	mov    -0x16a8(%rbp),%rax
    e9a7:	0f b6 00             	movzbl (%rax),%eax
    e9aa:	0f be c0             	movsbl %al,%eax
    e9ad:	83 bd 1c ea ff ff 00 	cmpl   $0x0,-0x15e4(%rbp)
    e9b4:	75 1c                	jne    e9d2 <func_31+0x1c31>
    e9b6:	48 8b 95 28 ed ff ff 	mov    -0x12d8(%rbp),%rdx
    e9bd:	48 89 15 04 5d 01 00 	mov    %rdx,0x15d04(%rip)        # 246c8 <g_2218>
    e9c4:	48 8b 95 50 f5 ff ff 	mov    -0xab0(%rbp),%rdx
    e9cb:	48 39 95 38 ec ff ff 	cmp    %rdx,-0x13c8(%rbp)
    e9d2:	66 83 bd 6c e9 ff ff 	cmpw   $0x0,-0x1694(%rbp)
    e9d9:	00 
    e9da:	89 c6                	mov    %eax,%esi
    e9dc:	bf 00 00 00 00       	mov    $0x0,%edi
    e9e1:	e8 0c 88 ff ff       	callq  71f2 <safe_sub_func_int8_t_s_s>
    e9e6:	66 98                	cbtw   
    e9e8:	8b 95 54 e9 ff ff    	mov    -0x16ac(%rbp),%edx
    e9ee:	31 d0                	xor    %edx,%eax
    e9f0:	98                   	cwtl   
    e9f1:	44 89 fe             	mov    %r15d,%esi
    e9f4:	89 c7                	mov    %eax,%edi
    e9f6:	e8 5a 8a ff ff       	callq  7455 <safe_div_func_int16_t_s_s>
    e9fb:	48 8b 05 7e 50 01 00 	mov    0x1507e(%rip),%rax        # 23a80 <g_1409>
    ea02:	0f b7 10             	movzwl (%rax),%edx
    ea05:	48 8b 05 84 50 01 00 	mov    0x15084(%rip),%rax        # 23a90 <g_1407>
    ea0c:	48 8b 00             	mov    (%rax),%rax
    ea0f:	48 8b 00             	mov    (%rax),%rax
    ea12:	0f b7 00             	movzwl (%rax),%eax
    ea15:	21 d0                	and    %edx,%eax
    ea17:	98                   	cwtl   
    ea18:	44 89 f6             	mov    %r14d,%esi
    ea1b:	89 c7                	mov    %eax,%edi
    ea1d:	e8 33 8a ff ff       	callq  7455 <safe_div_func_int16_t_s_s>
    ea22:	0f bf d0             	movswl %ax,%edx
    ea25:	8b 85 54 e9 ff ff    	mov    -0x16ac(%rbp),%eax
    ea2b:	21 d0                	and    %edx,%eax
    ea2d:	85 c0                	test   %eax,%eax
    ea2f:	74 11                	je     ea42 <func_31+0x1ca1>
    ea31:	66 83 bd 6c e9 ff ff 	cmpw   $0x0,-0x1694(%rbp)
    ea38:	00 
    ea39:	74 07                	je     ea42 <func_31+0x1ca1>
    ea3b:	b8 01 00 00 00       	mov    $0x1,%eax
    ea40:	eb 05                	jmp    ea47 <func_31+0x1ca6>
    ea42:	b8 00 00 00 00       	mov    $0x0,%eax
    ea47:	48 98                	cltq   
    ea49:	4c 89 ee             	mov    %r13,%rsi
    ea4c:	48 89 c7             	mov    %rax,%rdi
    ea4f:	e8 a3 8f ff ff       	callq  79f7 <safe_div_func_int64_t_s_s>
    ea54:	4c 89 e6             	mov    %r12,%rsi
    ea57:	48 89 c7             	mov    %rax,%rdi
    ea5a:	e8 21 96 ff ff       	callq  8080 <safe_mod_func_uint64_t_u_u>
    ea5f:	89 de                	mov    %ebx,%esi
    ea61:	89 c7                	mov    %eax,%edi
    ea63:	e8 4e 8b ff ff       	callq  75b6 <safe_add_func_int32_t_s_s>
    ea68:	39 85 50 e9 ff ff    	cmp    %eax,-0x16b0(%rbp)
    ea6e:	0f 95 c0             	setne  %al
    ea71:	0f b6 d0             	movzbl %al,%edx
    ea74:	8b 85 30 ed ff ff    	mov    -0x12d0(%rbp),%eax
    ea7a:	31 d0                	xor    %edx,%eax
    ea7c:	89 85 30 ed ff ff    	mov    %eax,-0x12d0(%rbp)
    ea82:	8b 05 88 27 01 00    	mov    0x12788(%rip),%eax        # 21210 <g_1562>
    ea88:	83 c0 01             	add    $0x1,%eax
    ea8b:	89 05 7f 27 01 00    	mov    %eax,0x1277f(%rip)        # 21210 <g_1562>
    ea91:	8b 05 79 27 01 00    	mov    0x12779(%rip),%eax        # 21210 <g_1562>
    ea97:	83 f8 08             	cmp    $0x8,%eax
    ea9a:	0f 86 9d fe ff ff    	jbe    e93d <func_31+0x1b9c>
    eaa0:	e9 f1 12 00 00       	jmpq   fd96 <func_31+0x2ff5>
    eaa5:	c7 85 20 ea ff ff 01 	movl   $0x1,-0x15e0(%rbp)
    eaac:	00 00 00 
    eaaf:	48 8d 05 ea 51 01 00 	lea    0x151ea(%rip),%rax        # 23ca0 <g_1987>
    eab6:	48 89 85 20 eb ff ff 	mov    %rax,-0x14e0(%rbp)
    eabd:	48 8d 85 20 eb ff ff 	lea    -0x14e0(%rbp),%rax
    eac4:	48 89 85 30 f9 ff ff 	mov    %rax,-0x6d0(%rbp)
    eacb:	48 8d 85 20 eb ff ff 	lea    -0x14e0(%rbp),%rax
    ead2:	48 89 85 38 f9 ff ff 	mov    %rax,-0x6c8(%rbp)
    ead9:	48 c7 85 40 f9 ff ff 	movq   $0x0,-0x6c0(%rbp)
    eae0:	00 00 00 00 
    eae4:	48 8d 85 20 eb ff ff 	lea    -0x14e0(%rbp),%rax
    eaeb:	48 89 85 48 f9 ff ff 	mov    %rax,-0x6b8(%rbp)
    eaf2:	48 8d 85 20 eb ff ff 	lea    -0x14e0(%rbp),%rax
    eaf9:	48 89 85 50 f9 ff ff 	mov    %rax,-0x6b0(%rbp)
    eb00:	48 8d 85 20 eb ff ff 	lea    -0x14e0(%rbp),%rax
    eb07:	48 89 85 58 f9 ff ff 	mov    %rax,-0x6a8(%rbp)
    eb0e:	48 8d 85 20 eb ff ff 	lea    -0x14e0(%rbp),%rax
    eb15:	48 89 85 60 f9 ff ff 	mov    %rax,-0x6a0(%rbp)
    eb1c:	48 8d 85 20 eb ff ff 	lea    -0x14e0(%rbp),%rax
    eb23:	48 89 85 68 f9 ff ff 	mov    %rax,-0x698(%rbp)
    eb2a:	48 8d 85 20 eb ff ff 	lea    -0x14e0(%rbp),%rax
    eb31:	48 89 85 70 f9 ff ff 	mov    %rax,-0x690(%rbp)
    eb38:	48 c7 85 78 f9 ff ff 	movq   $0x0,-0x688(%rbp)
    eb3f:	00 00 00 00 
    eb43:	48 8d 85 20 eb ff ff 	lea    -0x14e0(%rbp),%rax
    eb4a:	48 89 85 80 f9 ff ff 	mov    %rax,-0x680(%rbp)
    eb51:	48 8d 85 20 eb ff ff 	lea    -0x14e0(%rbp),%rax
    eb58:	48 89 85 88 f9 ff ff 	mov    %rax,-0x678(%rbp)
    eb5f:	48 8d 85 20 eb ff ff 	lea    -0x14e0(%rbp),%rax
    eb66:	48 89 85 90 f9 ff ff 	mov    %rax,-0x670(%rbp)
    eb6d:	48 8d 85 20 eb ff ff 	lea    -0x14e0(%rbp),%rax
    eb74:	48 89 85 98 f9 ff ff 	mov    %rax,-0x668(%rbp)
    eb7b:	48 8d 85 20 eb ff ff 	lea    -0x14e0(%rbp),%rax
    eb82:	48 89 85 a0 f9 ff ff 	mov    %rax,-0x660(%rbp)
    eb89:	48 8d 85 20 eb ff ff 	lea    -0x14e0(%rbp),%rax
    eb90:	48 89 85 a8 f9 ff ff 	mov    %rax,-0x658(%rbp)
    eb97:	48 8d 85 20 eb ff ff 	lea    -0x14e0(%rbp),%rax
    eb9e:	48 89 85 b0 f9 ff ff 	mov    %rax,-0x650(%rbp)
    eba5:	48 c7 85 b8 f9 ff ff 	movq   $0x0,-0x648(%rbp)
    ebac:	00 00 00 00 
    ebb0:	48 8d 85 20 eb ff ff 	lea    -0x14e0(%rbp),%rax
    ebb7:	48 89 85 c0 f9 ff ff 	mov    %rax,-0x640(%rbp)
    ebbe:	48 8d 85 20 eb ff ff 	lea    -0x14e0(%rbp),%rax
    ebc5:	48 89 85 c8 f9 ff ff 	mov    %rax,-0x638(%rbp)
    ebcc:	48 8d 85 20 eb ff ff 	lea    -0x14e0(%rbp),%rax
    ebd3:	48 89 85 d0 f9 ff ff 	mov    %rax,-0x630(%rbp)
    ebda:	48 8d 85 20 eb ff ff 	lea    -0x14e0(%rbp),%rax
    ebe1:	48 89 85 d8 f9 ff ff 	mov    %rax,-0x628(%rbp)
    ebe8:	48 8d 85 20 eb ff ff 	lea    -0x14e0(%rbp),%rax
    ebef:	48 89 85 e0 f9 ff ff 	mov    %rax,-0x620(%rbp)
    ebf6:	48 8d 85 20 eb ff ff 	lea    -0x14e0(%rbp),%rax
    ebfd:	48 89 85 e8 f9 ff ff 	mov    %rax,-0x618(%rbp)
    ec04:	48 8d 85 20 eb ff ff 	lea    -0x14e0(%rbp),%rax
    ec0b:	48 89 85 f0 f9 ff ff 	mov    %rax,-0x610(%rbp)
    ec12:	48 8d 85 20 eb ff ff 	lea    -0x14e0(%rbp),%rax
    ec19:	48 89 85 f8 f9 ff ff 	mov    %rax,-0x608(%rbp)
    ec20:	48 8d 85 20 eb ff ff 	lea    -0x14e0(%rbp),%rax
    ec27:	48 89 85 00 fa ff ff 	mov    %rax,-0x600(%rbp)
    ec2e:	48 8d 85 20 eb ff ff 	lea    -0x14e0(%rbp),%rax
    ec35:	48 89 85 08 fa ff ff 	mov    %rax,-0x5f8(%rbp)
    ec3c:	48 8d 85 20 eb ff ff 	lea    -0x14e0(%rbp),%rax
    ec43:	48 89 85 10 fa ff ff 	mov    %rax,-0x5f0(%rbp)
    ec4a:	48 8d 85 20 eb ff ff 	lea    -0x14e0(%rbp),%rax
    ec51:	48 89 85 18 fa ff ff 	mov    %rax,-0x5e8(%rbp)
    ec58:	48 8d 85 20 eb ff ff 	lea    -0x14e0(%rbp),%rax
    ec5f:	48 89 85 20 fa ff ff 	mov    %rax,-0x5e0(%rbp)
    ec66:	48 8d 85 20 eb ff ff 	lea    -0x14e0(%rbp),%rax
    ec6d:	48 89 85 28 fa ff ff 	mov    %rax,-0x5d8(%rbp)
    ec74:	48 8d 85 20 eb ff ff 	lea    -0x14e0(%rbp),%rax
    ec7b:	48 89 85 30 fa ff ff 	mov    %rax,-0x5d0(%rbp)
    ec82:	48 8d 85 20 eb ff ff 	lea    -0x14e0(%rbp),%rax
    ec89:	48 89 85 38 fa ff ff 	mov    %rax,-0x5c8(%rbp)
    ec90:	48 8d 85 20 eb ff ff 	lea    -0x14e0(%rbp),%rax
    ec97:	48 89 85 40 fa ff ff 	mov    %rax,-0x5c0(%rbp)
    ec9e:	48 8d 85 20 eb ff ff 	lea    -0x14e0(%rbp),%rax
    eca5:	48 89 85 48 fa ff ff 	mov    %rax,-0x5b8(%rbp)
    ecac:	48 c7 85 50 fa ff ff 	movq   $0x0,-0x5b0(%rbp)
    ecb3:	00 00 00 00 
    ecb7:	48 8d 85 20 eb ff ff 	lea    -0x14e0(%rbp),%rax
    ecbe:	48 89 85 58 fa ff ff 	mov    %rax,-0x5a8(%rbp)
    ecc5:	48 8d 85 20 eb ff ff 	lea    -0x14e0(%rbp),%rax
    eccc:	48 89 85 60 fa ff ff 	mov    %rax,-0x5a0(%rbp)
    ecd3:	48 8d 85 20 eb ff ff 	lea    -0x14e0(%rbp),%rax
    ecda:	48 89 85 68 fa ff ff 	mov    %rax,-0x598(%rbp)
    ece1:	48 8d 85 20 eb ff ff 	lea    -0x14e0(%rbp),%rax
    ece8:	48 89 85 70 fa ff ff 	mov    %rax,-0x590(%rbp)
    ecef:	48 8d 85 20 eb ff ff 	lea    -0x14e0(%rbp),%rax
    ecf6:	48 89 85 78 fa ff ff 	mov    %rax,-0x588(%rbp)
    ecfd:	48 c7 85 80 fa ff ff 	movq   $0x0,-0x580(%rbp)
    ed04:	00 00 00 00 
    ed08:	48 8d 85 20 eb ff ff 	lea    -0x14e0(%rbp),%rax
    ed0f:	48 89 85 88 fa ff ff 	mov    %rax,-0x578(%rbp)
    ed16:	48 8d 85 20 eb ff ff 	lea    -0x14e0(%rbp),%rax
    ed1d:	48 89 85 90 fa ff ff 	mov    %rax,-0x570(%rbp)
    ed24:	48 8d 85 20 eb ff ff 	lea    -0x14e0(%rbp),%rax
    ed2b:	48 89 85 98 fa ff ff 	mov    %rax,-0x568(%rbp)
    ed32:	48 c7 85 a0 fa ff ff 	movq   $0x0,-0x560(%rbp)
    ed39:	00 00 00 00 
    ed3d:	48 8d 85 20 eb ff ff 	lea    -0x14e0(%rbp),%rax
    ed44:	48 89 85 a8 fa ff ff 	mov    %rax,-0x558(%rbp)
    ed4b:	48 c7 85 b0 fa ff ff 	movq   $0x0,-0x550(%rbp)
    ed52:	00 00 00 00 
    ed56:	48 8d 85 20 eb ff ff 	lea    -0x14e0(%rbp),%rax
    ed5d:	48 89 85 b8 fa ff ff 	mov    %rax,-0x548(%rbp)
    ed64:	48 8d 85 20 eb ff ff 	lea    -0x14e0(%rbp),%rax
    ed6b:	48 89 85 c0 fa ff ff 	mov    %rax,-0x540(%rbp)
    ed72:	48 c7 85 c8 fa ff ff 	movq   $0x0,-0x538(%rbp)
    ed79:	00 00 00 00 
    ed7d:	48 8d 85 20 eb ff ff 	lea    -0x14e0(%rbp),%rax
    ed84:	48 89 85 d0 fa ff ff 	mov    %rax,-0x530(%rbp)
    ed8b:	48 c7 85 d8 fa ff ff 	movq   $0x0,-0x528(%rbp)
    ed92:	00 00 00 00 
    ed96:	48 8d 85 20 eb ff ff 	lea    -0x14e0(%rbp),%rax
    ed9d:	48 89 85 e0 fa ff ff 	mov    %rax,-0x520(%rbp)
    eda4:	48 c7 85 e8 fa ff ff 	movq   $0x0,-0x518(%rbp)
    edab:	00 00 00 00 
    edaf:	48 8d 85 20 eb ff ff 	lea    -0x14e0(%rbp),%rax
    edb6:	48 89 85 f0 fa ff ff 	mov    %rax,-0x510(%rbp)
    edbd:	48 8d 85 20 eb ff ff 	lea    -0x14e0(%rbp),%rax
    edc4:	48 89 85 f8 fa ff ff 	mov    %rax,-0x508(%rbp)
    edcb:	48 8d 85 20 eb ff ff 	lea    -0x14e0(%rbp),%rax
    edd2:	48 89 85 00 fb ff ff 	mov    %rax,-0x500(%rbp)
    edd9:	48 8d 85 20 eb ff ff 	lea    -0x14e0(%rbp),%rax
    ede0:	48 89 85 08 fb ff ff 	mov    %rax,-0x4f8(%rbp)
    ede7:	48 8d 85 20 eb ff ff 	lea    -0x14e0(%rbp),%rax
    edee:	48 89 85 10 fb ff ff 	mov    %rax,-0x4f0(%rbp)
    edf5:	48 c7 85 18 fb ff ff 	movq   $0x0,-0x4e8(%rbp)
    edfc:	00 00 00 00 
    ee00:	48 8d 85 20 eb ff ff 	lea    -0x14e0(%rbp),%rax
    ee07:	48 89 85 20 fb ff ff 	mov    %rax,-0x4e0(%rbp)
    ee0e:	48 8d 85 20 eb ff ff 	lea    -0x14e0(%rbp),%rax
    ee15:	48 89 85 28 fb ff ff 	mov    %rax,-0x4d8(%rbp)
    ee1c:	48 c7 85 30 fb ff ff 	movq   $0x0,-0x4d0(%rbp)
    ee23:	00 00 00 00 
    ee27:	48 8d 85 20 eb ff ff 	lea    -0x14e0(%rbp),%rax
    ee2e:	48 89 85 38 fb ff ff 	mov    %rax,-0x4c8(%rbp)
    ee35:	48 8d 85 20 eb ff ff 	lea    -0x14e0(%rbp),%rax
    ee3c:	48 89 85 40 fb ff ff 	mov    %rax,-0x4c0(%rbp)
    ee43:	48 8d 85 20 eb ff ff 	lea    -0x14e0(%rbp),%rax
    ee4a:	48 89 85 48 fb ff ff 	mov    %rax,-0x4b8(%rbp)
    ee51:	48 c7 85 50 fb ff ff 	movq   $0x0,-0x4b0(%rbp)
    ee58:	00 00 00 00 
    ee5c:	48 8d 85 20 eb ff ff 	lea    -0x14e0(%rbp),%rax
    ee63:	48 89 85 58 fb ff ff 	mov    %rax,-0x4a8(%rbp)
    ee6a:	48 8d 85 20 eb ff ff 	lea    -0x14e0(%rbp),%rax
    ee71:	48 89 85 60 fb ff ff 	mov    %rax,-0x4a0(%rbp)
    ee78:	48 8d 85 20 eb ff ff 	lea    -0x14e0(%rbp),%rax
    ee7f:	48 89 85 68 fb ff ff 	mov    %rax,-0x498(%rbp)
    ee86:	48 8d 85 20 eb ff ff 	lea    -0x14e0(%rbp),%rax
    ee8d:	48 89 85 70 fb ff ff 	mov    %rax,-0x490(%rbp)
    ee94:	48 8d 85 20 eb ff ff 	lea    -0x14e0(%rbp),%rax
    ee9b:	48 89 85 78 fb ff ff 	mov    %rax,-0x488(%rbp)
    eea2:	48 8d 85 20 eb ff ff 	lea    -0x14e0(%rbp),%rax
    eea9:	48 89 85 80 fb ff ff 	mov    %rax,-0x480(%rbp)
    eeb0:	48 8d 85 20 eb ff ff 	lea    -0x14e0(%rbp),%rax
    eeb7:	48 89 85 88 fb ff ff 	mov    %rax,-0x478(%rbp)
    eebe:	48 8d 85 20 eb ff ff 	lea    -0x14e0(%rbp),%rax
    eec5:	48 89 85 90 fb ff ff 	mov    %rax,-0x470(%rbp)
    eecc:	48 c7 85 98 fb ff ff 	movq   $0x0,-0x468(%rbp)
    eed3:	00 00 00 00 
    eed7:	48 8d 85 20 eb ff ff 	lea    -0x14e0(%rbp),%rax
    eede:	48 89 85 a0 fb ff ff 	mov    %rax,-0x460(%rbp)
    eee5:	48 8d 85 20 eb ff ff 	lea    -0x14e0(%rbp),%rax
    eeec:	48 89 85 a8 fb ff ff 	mov    %rax,-0x458(%rbp)
    eef3:	48 8d 85 20 eb ff ff 	lea    -0x14e0(%rbp),%rax
    eefa:	48 89 85 b0 fb ff ff 	mov    %rax,-0x450(%rbp)
    ef01:	48 8d 85 20 eb ff ff 	lea    -0x14e0(%rbp),%rax
    ef08:	48 89 85 b8 fb ff ff 	mov    %rax,-0x448(%rbp)
    ef0f:	48 8d 85 20 eb ff ff 	lea    -0x14e0(%rbp),%rax
    ef16:	48 89 85 c0 fb ff ff 	mov    %rax,-0x440(%rbp)
    ef1d:	48 8d 85 20 eb ff ff 	lea    -0x14e0(%rbp),%rax
    ef24:	48 89 85 c8 fb ff ff 	mov    %rax,-0x438(%rbp)
    ef2b:	48 8d 85 20 eb ff ff 	lea    -0x14e0(%rbp),%rax
    ef32:	48 89 85 d0 fb ff ff 	mov    %rax,-0x430(%rbp)
    ef39:	48 8d 85 20 eb ff ff 	lea    -0x14e0(%rbp),%rax
    ef40:	48 89 85 d8 fb ff ff 	mov    %rax,-0x428(%rbp)
    ef47:	48 8d 85 20 eb ff ff 	lea    -0x14e0(%rbp),%rax
    ef4e:	48 89 85 e0 fb ff ff 	mov    %rax,-0x420(%rbp)
    ef55:	48 c7 85 e8 fb ff ff 	movq   $0x0,-0x418(%rbp)
    ef5c:	00 00 00 00 
    ef60:	48 8d 85 20 eb ff ff 	lea    -0x14e0(%rbp),%rax
    ef67:	48 89 85 f0 fb ff ff 	mov    %rax,-0x410(%rbp)
    ef6e:	48 8d 85 20 eb ff ff 	lea    -0x14e0(%rbp),%rax
    ef75:	48 89 85 f8 fb ff ff 	mov    %rax,-0x408(%rbp)
    ef7c:	48 c7 85 00 fc ff ff 	movq   $0x0,-0x400(%rbp)
    ef83:	00 00 00 00 
    ef87:	48 c7 85 08 fc ff ff 	movq   $0x0,-0x3f8(%rbp)
    ef8e:	00 00 00 00 
    ef92:	48 8d 85 20 eb ff ff 	lea    -0x14e0(%rbp),%rax
    ef99:	48 89 85 10 fc ff ff 	mov    %rax,-0x3f0(%rbp)
    efa0:	48 8d 85 20 eb ff ff 	lea    -0x14e0(%rbp),%rax
    efa7:	48 89 85 18 fc ff ff 	mov    %rax,-0x3e8(%rbp)
    efae:	48 8d 85 20 eb ff ff 	lea    -0x14e0(%rbp),%rax
    efb5:	48 89 85 20 fc ff ff 	mov    %rax,-0x3e0(%rbp)
    efbc:	48 8d 85 20 eb ff ff 	lea    -0x14e0(%rbp),%rax
    efc3:	48 89 85 28 fc ff ff 	mov    %rax,-0x3d8(%rbp)
    efca:	48 8d 85 20 eb ff ff 	lea    -0x14e0(%rbp),%rax
    efd1:	48 89 85 30 fc ff ff 	mov    %rax,-0x3d0(%rbp)
    efd8:	48 8d 85 20 eb ff ff 	lea    -0x14e0(%rbp),%rax
    efdf:	48 89 85 38 fc ff ff 	mov    %rax,-0x3c8(%rbp)
    efe6:	48 c7 85 40 fc ff ff 	movq   $0x0,-0x3c0(%rbp)
    efed:	00 00 00 00 
    eff1:	48 8d 85 20 eb ff ff 	lea    -0x14e0(%rbp),%rax
    eff8:	48 89 85 48 fc ff ff 	mov    %rax,-0x3b8(%rbp)
    efff:	48 8d 85 20 eb ff ff 	lea    -0x14e0(%rbp),%rax
    f006:	48 89 85 50 fc ff ff 	mov    %rax,-0x3b0(%rbp)
    f00d:	48 8d 85 20 eb ff ff 	lea    -0x14e0(%rbp),%rax
    f014:	48 89 85 58 fc ff ff 	mov    %rax,-0x3a8(%rbp)
    f01b:	48 8d 85 20 eb ff ff 	lea    -0x14e0(%rbp),%rax
    f022:	48 89 85 60 fc ff ff 	mov    %rax,-0x3a0(%rbp)
    f029:	48 c7 85 68 fc ff ff 	movq   $0x0,-0x398(%rbp)
    f030:	00 00 00 00 
    f034:	48 8d 85 20 eb ff ff 	lea    -0x14e0(%rbp),%rax
    f03b:	48 89 85 70 fc ff ff 	mov    %rax,-0x390(%rbp)
    f042:	48 c7 85 78 fc ff ff 	movq   $0x0,-0x388(%rbp)
    f049:	00 00 00 00 
    f04d:	48 8d 85 20 eb ff ff 	lea    -0x14e0(%rbp),%rax
    f054:	48 89 85 80 fc ff ff 	mov    %rax,-0x380(%rbp)
    f05b:	48 8d 85 20 eb ff ff 	lea    -0x14e0(%rbp),%rax
    f062:	48 89 85 88 fc ff ff 	mov    %rax,-0x378(%rbp)
    f069:	48 8d 85 20 eb ff ff 	lea    -0x14e0(%rbp),%rax
    f070:	48 89 85 90 fc ff ff 	mov    %rax,-0x370(%rbp)
    f077:	48 8d 85 20 eb ff ff 	lea    -0x14e0(%rbp),%rax
    f07e:	48 89 85 98 fc ff ff 	mov    %rax,-0x368(%rbp)
    f085:	48 8d 85 20 eb ff ff 	lea    -0x14e0(%rbp),%rax
    f08c:	48 89 85 a0 fc ff ff 	mov    %rax,-0x360(%rbp)
    f093:	48 8d 85 20 eb ff ff 	lea    -0x14e0(%rbp),%rax
    f09a:	48 89 85 a8 fc ff ff 	mov    %rax,-0x358(%rbp)
    f0a1:	48 c7 85 b0 fc ff ff 	movq   $0x0,-0x350(%rbp)
    f0a8:	00 00 00 00 
    f0ac:	48 8d 85 20 eb ff ff 	lea    -0x14e0(%rbp),%rax
    f0b3:	48 89 85 b8 fc ff ff 	mov    %rax,-0x348(%rbp)
    f0ba:	48 8d 85 20 eb ff ff 	lea    -0x14e0(%rbp),%rax
    f0c1:	48 89 85 c0 fc ff ff 	mov    %rax,-0x340(%rbp)
    f0c8:	48 8d 85 20 eb ff ff 	lea    -0x14e0(%rbp),%rax
    f0cf:	48 89 85 c8 fc ff ff 	mov    %rax,-0x338(%rbp)
    f0d6:	48 8d 85 20 eb ff ff 	lea    -0x14e0(%rbp),%rax
    f0dd:	48 89 85 d0 fc ff ff 	mov    %rax,-0x330(%rbp)
    f0e4:	48 8d 85 20 eb ff ff 	lea    -0x14e0(%rbp),%rax
    f0eb:	48 89 85 d8 fc ff ff 	mov    %rax,-0x328(%rbp)
    f0f2:	48 8d 85 20 eb ff ff 	lea    -0x14e0(%rbp),%rax
    f0f9:	48 89 85 e0 fc ff ff 	mov    %rax,-0x320(%rbp)
    f100:	48 8d 85 20 eb ff ff 	lea    -0x14e0(%rbp),%rax
    f107:	48 89 85 e8 fc ff ff 	mov    %rax,-0x318(%rbp)
    f10e:	48 c7 85 f0 fc ff ff 	movq   $0x0,-0x310(%rbp)
    f115:	00 00 00 00 
    f119:	48 8d 85 20 eb ff ff 	lea    -0x14e0(%rbp),%rax
    f120:	48 89 85 f8 fc ff ff 	mov    %rax,-0x308(%rbp)
    f127:	48 8d 85 20 eb ff ff 	lea    -0x14e0(%rbp),%rax
    f12e:	48 89 85 00 fd ff ff 	mov    %rax,-0x300(%rbp)
    f135:	48 8d 85 20 eb ff ff 	lea    -0x14e0(%rbp),%rax
    f13c:	48 89 85 08 fd ff ff 	mov    %rax,-0x2f8(%rbp)
    f143:	48 8d 85 20 eb ff ff 	lea    -0x14e0(%rbp),%rax
    f14a:	48 89 85 10 fd ff ff 	mov    %rax,-0x2f0(%rbp)
    f151:	48 8d 85 20 eb ff ff 	lea    -0x14e0(%rbp),%rax
    f158:	48 89 85 18 fd ff ff 	mov    %rax,-0x2e8(%rbp)
    f15f:	48 8d 85 20 eb ff ff 	lea    -0x14e0(%rbp),%rax
    f166:	48 89 85 20 fd ff ff 	mov    %rax,-0x2e0(%rbp)
    f16d:	48 c7 85 28 fd ff ff 	movq   $0x0,-0x2d8(%rbp)
    f174:	00 00 00 00 
    f178:	48 8d 85 20 eb ff ff 	lea    -0x14e0(%rbp),%rax
    f17f:	48 89 85 30 fd ff ff 	mov    %rax,-0x2d0(%rbp)
    f186:	48 8d 85 20 eb ff ff 	lea    -0x14e0(%rbp),%rax
    f18d:	48 89 85 38 fd ff ff 	mov    %rax,-0x2c8(%rbp)
    f194:	48 8d 85 20 eb ff ff 	lea    -0x14e0(%rbp),%rax
    f19b:	48 89 85 40 fd ff ff 	mov    %rax,-0x2c0(%rbp)
    f1a2:	48 8d 85 20 eb ff ff 	lea    -0x14e0(%rbp),%rax
    f1a9:	48 89 85 48 fd ff ff 	mov    %rax,-0x2b8(%rbp)
    f1b0:	48 8d 85 20 eb ff ff 	lea    -0x14e0(%rbp),%rax
    f1b7:	48 89 85 50 fd ff ff 	mov    %rax,-0x2b0(%rbp)
    f1be:	48 8d 85 20 eb ff ff 	lea    -0x14e0(%rbp),%rax
    f1c5:	48 89 85 58 fd ff ff 	mov    %rax,-0x2a8(%rbp)
    f1cc:	48 c7 85 60 fd ff ff 	movq   $0x0,-0x2a0(%rbp)
    f1d3:	00 00 00 00 
    f1d7:	48 c7 85 68 fd ff ff 	movq   $0x0,-0x298(%rbp)
    f1de:	00 00 00 00 
    f1e2:	48 8d 85 20 eb ff ff 	lea    -0x14e0(%rbp),%rax
    f1e9:	48 89 85 70 fd ff ff 	mov    %rax,-0x290(%rbp)
    f1f0:	48 8d 85 20 eb ff ff 	lea    -0x14e0(%rbp),%rax
    f1f7:	48 89 85 78 fd ff ff 	mov    %rax,-0x288(%rbp)
    f1fe:	48 8d 85 20 eb ff ff 	lea    -0x14e0(%rbp),%rax
    f205:	48 89 85 80 fd ff ff 	mov    %rax,-0x280(%rbp)
    f20c:	48 8d 85 20 eb ff ff 	lea    -0x14e0(%rbp),%rax
    f213:	48 89 85 88 fd ff ff 	mov    %rax,-0x278(%rbp)
    f21a:	48 8d 85 20 eb ff ff 	lea    -0x14e0(%rbp),%rax
    f221:	48 89 85 90 fd ff ff 	mov    %rax,-0x270(%rbp)
    f228:	48 8d 85 20 eb ff ff 	lea    -0x14e0(%rbp),%rax
    f22f:	48 89 85 98 fd ff ff 	mov    %rax,-0x268(%rbp)
    f236:	48 8d 85 20 eb ff ff 	lea    -0x14e0(%rbp),%rax
    f23d:	48 89 85 a0 fd ff ff 	mov    %rax,-0x260(%rbp)
    f244:	48 8d 85 20 eb ff ff 	lea    -0x14e0(%rbp),%rax
    f24b:	48 89 85 a8 fd ff ff 	mov    %rax,-0x258(%rbp)
    f252:	48 8d 85 20 eb ff ff 	lea    -0x14e0(%rbp),%rax
    f259:	48 89 85 b0 fd ff ff 	mov    %rax,-0x250(%rbp)
    f260:	48 c7 85 b8 fd ff ff 	movq   $0x0,-0x248(%rbp)
    f267:	00 00 00 00 
    f26b:	48 8d 85 20 eb ff ff 	lea    -0x14e0(%rbp),%rax
    f272:	48 89 85 c0 fd ff ff 	mov    %rax,-0x240(%rbp)
    f279:	48 8d 85 20 eb ff ff 	lea    -0x14e0(%rbp),%rax
    f280:	48 89 85 c8 fd ff ff 	mov    %rax,-0x238(%rbp)
    f287:	48 8d 85 20 eb ff ff 	lea    -0x14e0(%rbp),%rax
    f28e:	48 89 85 d0 fd ff ff 	mov    %rax,-0x230(%rbp)
    f295:	48 8d 85 20 eb ff ff 	lea    -0x14e0(%rbp),%rax
    f29c:	48 89 85 d8 fd ff ff 	mov    %rax,-0x228(%rbp)
    f2a3:	48 c7 85 e0 fd ff ff 	movq   $0x0,-0x220(%rbp)
    f2aa:	00 00 00 00 
    f2ae:	48 8d 85 20 eb ff ff 	lea    -0x14e0(%rbp),%rax
    f2b5:	48 89 85 e8 fd ff ff 	mov    %rax,-0x218(%rbp)
    f2bc:	48 8d 85 20 eb ff ff 	lea    -0x14e0(%rbp),%rax
    f2c3:	48 89 85 f0 fd ff ff 	mov    %rax,-0x210(%rbp)
    f2ca:	48 8d 85 20 eb ff ff 	lea    -0x14e0(%rbp),%rax
    f2d1:	48 89 85 f8 fd ff ff 	mov    %rax,-0x208(%rbp)
    f2d8:	48 8d 85 20 eb ff ff 	lea    -0x14e0(%rbp),%rax
    f2df:	48 89 85 00 fe ff ff 	mov    %rax,-0x200(%rbp)
    f2e6:	48 8d 85 20 eb ff ff 	lea    -0x14e0(%rbp),%rax
    f2ed:	48 89 85 08 fe ff ff 	mov    %rax,-0x1f8(%rbp)
    f2f4:	48 8d 85 20 eb ff ff 	lea    -0x14e0(%rbp),%rax
    f2fb:	48 89 85 10 fe ff ff 	mov    %rax,-0x1f0(%rbp)
    f302:	48 8d 85 20 eb ff ff 	lea    -0x14e0(%rbp),%rax
    f309:	48 89 85 18 fe ff ff 	mov    %rax,-0x1e8(%rbp)
    f310:	48 8d 85 20 eb ff ff 	lea    -0x14e0(%rbp),%rax
    f317:	48 89 85 20 fe ff ff 	mov    %rax,-0x1e0(%rbp)
    f31e:	48 8d 85 20 eb ff ff 	lea    -0x14e0(%rbp),%rax
    f325:	48 89 85 28 fe ff ff 	mov    %rax,-0x1d8(%rbp)
    f32c:	48 8d 85 20 eb ff ff 	lea    -0x14e0(%rbp),%rax
    f333:	48 89 85 30 fe ff ff 	mov    %rax,-0x1d0(%rbp)
    f33a:	48 8d 85 20 eb ff ff 	lea    -0x14e0(%rbp),%rax
    f341:	48 89 85 38 fe ff ff 	mov    %rax,-0x1c8(%rbp)
    f348:	48 c7 85 40 fe ff ff 	movq   $0x0,-0x1c0(%rbp)
    f34f:	00 00 00 00 
    f353:	48 c7 85 48 fe ff ff 	movq   $0x0,-0x1b8(%rbp)
    f35a:	00 00 00 00 
    f35e:	48 8d 85 20 eb ff ff 	lea    -0x14e0(%rbp),%rax
    f365:	48 89 85 50 fe ff ff 	mov    %rax,-0x1b0(%rbp)
    f36c:	48 c7 85 58 fe ff ff 	movq   $0x0,-0x1a8(%rbp)
    f373:	00 00 00 00 
    f377:	48 c7 85 60 fe ff ff 	movq   $0x0,-0x1a0(%rbp)
    f37e:	00 00 00 00 
    f382:	48 8d 85 20 eb ff ff 	lea    -0x14e0(%rbp),%rax
    f389:	48 89 85 68 fe ff ff 	mov    %rax,-0x198(%rbp)
    f390:	48 8d 85 20 eb ff ff 	lea    -0x14e0(%rbp),%rax
    f397:	48 89 85 70 fe ff ff 	mov    %rax,-0x190(%rbp)
    f39e:	48 8d 85 20 eb ff ff 	lea    -0x14e0(%rbp),%rax
    f3a5:	48 89 85 78 fe ff ff 	mov    %rax,-0x188(%rbp)
    f3ac:	48 8d 85 20 eb ff ff 	lea    -0x14e0(%rbp),%rax
    f3b3:	48 89 85 80 fe ff ff 	mov    %rax,-0x180(%rbp)
    f3ba:	48 c7 85 88 fe ff ff 	movq   $0x0,-0x178(%rbp)
    f3c1:	00 00 00 00 
    f3c5:	48 8d 85 20 eb ff ff 	lea    -0x14e0(%rbp),%rax
    f3cc:	48 89 85 90 fe ff ff 	mov    %rax,-0x170(%rbp)
    f3d3:	48 8d 85 20 eb ff ff 	lea    -0x14e0(%rbp),%rax
    f3da:	48 89 85 98 fe ff ff 	mov    %rax,-0x168(%rbp)
    f3e1:	48 8d 85 20 eb ff ff 	lea    -0x14e0(%rbp),%rax
    f3e8:	48 89 85 a0 fe ff ff 	mov    %rax,-0x160(%rbp)
    f3ef:	48 8d 85 20 eb ff ff 	lea    -0x14e0(%rbp),%rax
    f3f6:	48 89 85 a8 fe ff ff 	mov    %rax,-0x158(%rbp)
    f3fd:	48 8d 85 20 eb ff ff 	lea    -0x14e0(%rbp),%rax
    f404:	48 89 85 b0 fe ff ff 	mov    %rax,-0x150(%rbp)
    f40b:	48 8d 85 20 eb ff ff 	lea    -0x14e0(%rbp),%rax
    f412:	48 89 85 b8 fe ff ff 	mov    %rax,-0x148(%rbp)
    f419:	48 c7 85 c0 fe ff ff 	movq   $0x0,-0x140(%rbp)
    f420:	00 00 00 00 
    f424:	48 8d 85 20 eb ff ff 	lea    -0x14e0(%rbp),%rax
    f42b:	48 89 85 c8 fe ff ff 	mov    %rax,-0x138(%rbp)
    f432:	66 c7 85 b0 ee ff ff 	movw   $0x5c96,-0x1150(%rbp)
    f439:	96 5c 
    f43b:	66 c7 85 b2 ee ff ff 	movw   $0xe8cf,-0x114e(%rbp)
    f442:	cf e8 
    f444:	66 c7 85 b4 ee ff ff 	movw   $0xe8cf,-0x114c(%rbp)
    f44b:	cf e8 
    f44d:	66 c7 85 b6 ee ff ff 	movw   $0x5c96,-0x114a(%rbp)
    f454:	96 5c 
    f456:	66 c7 85 b8 ee ff ff 	movw   $0xe8cf,-0x1148(%rbp)
    f45d:	cf e8 
    f45f:	66 c7 85 ba ee ff ff 	movw   $0x5c96,-0x1146(%rbp)
    f466:	96 5c 
    f468:	66 c7 85 bc ee ff ff 	movw   $0x5c96,-0x1144(%rbp)
    f46f:	96 5c 
    f471:	66 c7 85 be ee ff ff 	movw   $0x1,-0x1142(%rbp)
    f478:	01 00 
    f47a:	66 c7 85 c0 ee ff ff 	movw   $0x5c96,-0x1140(%rbp)
    f481:	96 5c 
    f483:	66 c7 85 c2 ee ff ff 	movw   $0x5c96,-0x113e(%rbp)
    f48a:	96 5c 
    f48c:	66 c7 85 c4 ee ff ff 	movw   $0xe8cf,-0x113c(%rbp)
    f493:	cf e8 
    f495:	66 c7 85 c6 ee ff ff 	movw   $0x5c96,-0x113a(%rbp)
    f49c:	96 5c 
    f49e:	66 c7 85 c8 ee ff ff 	movw   $0xe8cf,-0x1138(%rbp)
    f4a5:	cf e8 
    f4a7:	66 c7 85 ca ee ff ff 	movw   $0xe8cf,-0x1136(%rbp)
    f4ae:	cf e8 
    f4b0:	66 c7 85 cc ee ff ff 	movw   $0x5c96,-0x1134(%rbp)
    f4b7:	96 5c 
    f4b9:	66 c7 85 ce ee ff ff 	movw   $0x5c96,-0x1132(%rbp)
    f4c0:	96 5c 
    f4c2:	66 c7 85 d0 ee ff ff 	movw   $0xe8cf,-0x1130(%rbp)
    f4c9:	cf e8 
    f4cb:	66 c7 85 d2 ee ff ff 	movw   $0xe8cf,-0x112e(%rbp)
    f4d2:	cf e8 
    f4d4:	66 c7 85 d4 ee ff ff 	movw   $0x5c96,-0x112c(%rbp)
    f4db:	96 5c 
    f4dd:	66 c7 85 d6 ee ff ff 	movw   $0xe8cf,-0x112a(%rbp)
    f4e4:	cf e8 
    f4e6:	66 c7 85 d8 ee ff ff 	movw   $0x5c96,-0x1128(%rbp)
    f4ed:	96 5c 
    f4ef:	66 c7 85 da ee ff ff 	movw   $0x5c96,-0x1126(%rbp)
    f4f6:	96 5c 
    f4f8:	66 c7 85 dc ee ff ff 	movw   $0x1,-0x1124(%rbp)
    f4ff:	01 00 
    f501:	66 c7 85 de ee ff ff 	movw   $0x5c96,-0x1122(%rbp)
    f508:	96 5c 
    f50a:	66 c7 85 e0 ee ff ff 	movw   $0x5c96,-0x1120(%rbp)
    f511:	96 5c 
    f513:	48 8d 85 30 ed ff ff 	lea    -0x12d0(%rbp),%rax
    f51a:	48 89 85 50 ec ff ff 	mov    %rax,-0x13b0(%rbp)
    f521:	48 8d 85 90 ea ff ff 	lea    -0x1570(%rbp),%rax
    f528:	48 89 85 58 ec ff ff 	mov    %rax,-0x13a8(%rbp)
    f52f:	48 8d 05 4e 1c 01 00 	lea    0x11c4e(%rip),%rax        # 21184 <g_122>
    f536:	48 89 85 40 f0 ff ff 	mov    %rax,-0xfc0(%rbp)
    f53d:	48 8d 05 40 1c 01 00 	lea    0x11c40(%rip),%rax        # 21184 <g_122>
    f544:	48 89 85 48 f0 ff ff 	mov    %rax,-0xfb8(%rbp)
    f54b:	48 8d 05 32 1c 01 00 	lea    0x11c32(%rip),%rax        # 21184 <g_122>
    f552:	48 89 85 50 f0 ff ff 	mov    %rax,-0xfb0(%rbp)
    f559:	48 8d 05 24 1c 01 00 	lea    0x11c24(%rip),%rax        # 21184 <g_122>
    f560:	48 89 85 58 f0 ff ff 	mov    %rax,-0xfa8(%rbp)
    f567:	48 8d 05 16 1c 01 00 	lea    0x11c16(%rip),%rax        # 21184 <g_122>
    f56e:	48 89 85 60 f0 ff ff 	mov    %rax,-0xfa0(%rbp)
    f575:	48 8d 05 08 1c 01 00 	lea    0x11c08(%rip),%rax        # 21184 <g_122>
    f57c:	48 89 85 68 f0 ff ff 	mov    %rax,-0xf98(%rbp)
    f583:	48 8d 05 fa 1b 01 00 	lea    0x11bfa(%rip),%rax        # 21184 <g_122>
    f58a:	48 89 85 70 f0 ff ff 	mov    %rax,-0xf90(%rbp)
    f591:	48 8d 05 ec 1b 01 00 	lea    0x11bec(%rip),%rax        # 21184 <g_122>
    f598:	48 89 85 78 f0 ff ff 	mov    %rax,-0xf88(%rbp)
    f59f:	48 8d 05 de 1b 01 00 	lea    0x11bde(%rip),%rax        # 21184 <g_122>
    f5a6:	48 89 85 80 f0 ff ff 	mov    %rax,-0xf80(%rbp)
    f5ad:	48 8d 85 40 f0 ff ff 	lea    -0xfc0(%rbp),%rax
    f5b4:	48 83 c0 08          	add    $0x8,%rax
    f5b8:	48 89 85 28 eb ff ff 	mov    %rax,-0x14d8(%rbp)
    f5bf:	48 8d 85 28 eb ff ff 	lea    -0x14d8(%rbp),%rax
    f5c6:	48 89 85 60 ec ff ff 	mov    %rax,-0x13a0(%rbp)
    f5cd:	48 8d 05 28 1c 01 00 	lea    0x11c28(%rip),%rax        # 211fc <g_1109>
    f5d4:	48 89 85 68 ec ff ff 	mov    %rax,-0x1398(%rbp)
    f5db:	c7 85 b0 e9 ff ff 00 	movl   $0x0,-0x1650(%rbp)
    f5e2:	00 00 00 
    f5e5:	eb 25                	jmp    f60c <func_31+0x286b>
    f5e7:	8b 85 b0 e9 ff ff    	mov    -0x1650(%rbp),%eax
    f5ed:	48 98                	cltq   
    f5ef:	48 8d 95 30 f9 ff ff 	lea    -0x6d0(%rbp),%rdx
    f5f6:	48 81 c2 f0 00 00 00 	add    $0xf0,%rdx
    f5fd:	48 89 94 c5 08 ed ff 	mov    %rdx,-0x12f8(%rbp,%rax,8)
    f604:	ff 
    f605:	83 85 b0 e9 ff ff 01 	addl   $0x1,-0x1650(%rbp)
    f60c:	83 bd b0 e9 ff ff 00 	cmpl   $0x0,-0x1650(%rbp)
    f613:	7e d2                	jle    f5e7 <func_31+0x2846>
    f615:	c7 85 b0 e9 ff ff 00 	movl   $0x0,-0x1650(%rbp)
    f61c:	00 00 00 
    f61f:	e9 91 00 00 00       	jmpq   f6b5 <func_31+0x2914>
    f624:	c7 85 b4 e9 ff ff 00 	movl   $0x0,-0x164c(%rbp)
    f62b:	00 00 00 
    f62e:	eb 75                	jmp    f6a5 <func_31+0x2904>
    f630:	c7 85 b8 e9 ff ff 00 	movl   $0x0,-0x1648(%rbp)
    f637:	00 00 00 
    f63a:	eb 59                	jmp    f695 <func_31+0x28f4>
    f63c:	8b 85 b8 e9 ff ff    	mov    -0x1648(%rbp),%eax
    f642:	48 63 f0             	movslq %eax,%rsi
    f645:	8b 85 b0 e9 ff ff    	mov    -0x1650(%rbp),%eax
    f64b:	48 98                	cltq   
    f64d:	8b 95 b4 e9 ff ff    	mov    -0x164c(%rbp),%edx
    f653:	48 63 ca             	movslq %edx,%rcx
    f656:	48 89 c2             	mov    %rax,%rdx
    f659:	48 c1 e2 02          	shl    $0x2,%rdx
    f65d:	48 01 c2             	add    %rax,%rdx
    f660:	48 8d 04 95 00 00 00 	lea    0x0(,%rdx,4),%rax
    f667:	00 
    f668:	48 89 c2             	mov    %rax,%rdx
    f66b:	48 89 c8             	mov    %rcx,%rax
    f66e:	48 c1 e0 02          	shl    $0x2,%rax
    f672:	48 01 c8             	add    %rcx,%rax
    f675:	48 01 c0             	add    %rax,%rax
    f678:	48 01 d0             	add    %rdx,%rax
    f67b:	48 8d 5d d0          	lea    -0x30(%rbp),%rbx
    f67f:	48 01 d8             	add    %rbx,%rax
    f682:	48 01 f0             	add    %rsi,%rax
    f685:	48 2d d0 10 00 00    	sub    $0x10d0,%rax
    f68b:	c6 00 ff             	movb   $0xff,(%rax)
    f68e:	83 85 b8 e9 ff ff 01 	addl   $0x1,-0x1648(%rbp)
    f695:	83 bd b8 e9 ff ff 09 	cmpl   $0x9,-0x1648(%rbp)
    f69c:	7e 9e                	jle    f63c <func_31+0x289b>
    f69e:	83 85 b4 e9 ff ff 01 	addl   $0x1,-0x164c(%rbp)
    f6a5:	83 bd b4 e9 ff ff 01 	cmpl   $0x1,-0x164c(%rbp)
    f6ac:	7e 82                	jle    f630 <func_31+0x288f>
    f6ae:	83 85 b0 e9 ff ff 01 	addl   $0x1,-0x1650(%rbp)
    f6b5:	83 bd b0 e9 ff ff 02 	cmpl   $0x2,-0x1650(%rbp)
    f6bc:	0f 8e 62 ff ff ff    	jle    f624 <func_31+0x2883>
    f6c2:	83 bd 68 e9 ff ff 00 	cmpl   $0x0,-0x1698(%rbp)
    f6c9:	0f 84 c9 02 00 00    	je     f998 <func_31+0x2bf7>
    f6cf:	48 8d 85 f0 f3 ff ff 	lea    -0xc10(%rbp),%rax
    f6d6:	48 8d 15 23 cb 00 00 	lea    0xcb23(%rip),%rdx        # 1c200 <g_2878+0x11a0>
    f6dd:	b9 a8 00 00 00       	mov    $0xa8,%ecx
    f6e2:	48 89 c7             	mov    %rax,%rdi
    f6e5:	48 89 d6             	mov    %rdx,%rsi
    f6e8:	f3 48 a5             	rep movsq %ds:(%rsi),%es:(%rdi)
    f6eb:	48 c7 85 78 ec ff ff 	movq   $0x0,-0x1388(%rbp)
    f6f2:	00 00 00 00 
    f6f6:	83 bd 20 ea ff ff 00 	cmpl   $0x0,-0x15e0(%rbp)
    f6fd:	0f 84 72 01 00 00    	je     f875 <func_31+0x2ad4>
    f703:	48 8d 85 60 ee ff ff 	lea    -0x11a0(%rbp),%rax
    f70a:	48 83 c0 24          	add    $0x24,%rax
    f70e:	48 89 85 80 ec ff ff 	mov    %rax,-0x1380(%rbp)
    f715:	48 8d 05 3c 19 01 00 	lea    0x1193c(%rip),%rax        # 21058 <g_102>
    f71c:	48 89 85 f0 ed ff ff 	mov    %rax,-0x1210(%rbp)
    f723:	48 8d 05 2e 19 01 00 	lea    0x1192e(%rip),%rax        # 21058 <g_102>
    f72a:	48 89 85 f8 ed ff ff 	mov    %rax,-0x1208(%rbp)
    f731:	48 8d 05 20 19 01 00 	lea    0x11920(%rip),%rax        # 21058 <g_102>
    f738:	48 89 85 00 ee ff ff 	mov    %rax,-0x1200(%rbp)
    f73f:	48 8d 05 12 19 01 00 	lea    0x11912(%rip),%rax        # 21058 <g_102>
    f746:	48 89 85 08 ee ff ff 	mov    %rax,-0x11f8(%rbp)
    f74d:	48 8d 05 04 19 01 00 	lea    0x11904(%rip),%rax        # 21058 <g_102>
    f754:	48 89 85 10 ee ff ff 	mov    %rax,-0x11f0(%rbp)
    f75b:	48 8d 05 f6 18 01 00 	lea    0x118f6(%rip),%rax        # 21058 <g_102>
    f762:	48 89 85 18 ee ff ff 	mov    %rax,-0x11e8(%rbp)
    f769:	c7 85 28 ea ff ff ef 	movl   $0x8256a9ef,-0x15d8(%rbp)
    f770:	a9 56 82 
    f773:	66 c7 85 7e e9 ff ff 	movw   $0xee76,-0x1682(%rbp)
    f77a:	76 ee 
    f77c:	8b 85 28 ea ff ff    	mov    -0x15d8(%rbp),%eax
    f782:	48 63 d8             	movslq %eax,%rbx
    f785:	44 0f bf a5 6c e9 ff 	movswl -0x1694(%rbp),%r12d
    f78c:	ff 
    f78d:	8b 85 54 e9 ff ff    	mov    -0x16ac(%rbp),%eax
    f793:	4c 63 e8             	movslq %eax,%r13
    f796:	be 0c 00 00 00       	mov    $0xc,%esi
    f79b:	bf 00 00 00 00       	mov    $0x0,%edi
    f7a0:	e8 be 7d ff ff       	callq  7563 <safe_rshift_func_int16_t_s_u>
    f7a5:	48 0f bf c0          	movswq %ax,%rax
    f7a9:	4c 89 ee             	mov    %r13,%rsi
    f7ac:	48 89 c7             	mov    %rax,%rdi
    f7af:	e8 97 88 ff ff       	callq  804b <safe_sub_func_uint64_t_u_u>
    f7b4:	0f bf d0             	movswl %ax,%edx
    f7b7:	48 8b 0d e2 44 01 00 	mov    0x144e2(%rip),%rcx        # 23ca0 <g_1987>
    f7be:	48 8b 05 db 44 01 00 	mov    0x144db(%rip),%rax        # 23ca0 <g_1987>
    f7c5:	48 8b 09             	mov    (%rcx),%rcx
    f7c8:	48 89 08             	mov    %rcx,(%rax)
    f7cb:	48 8b 08             	mov    (%rax),%rcx
    f7ce:	48 8b 85 08 ee ff ff 	mov    -0x11f8(%rbp),%rax
    f7d5:	48 39 c1             	cmp    %rax,%rcx
    f7d8:	0f 95 c0             	setne  %al
    f7db:	0f b6 c0             	movzbl %al,%eax
    f7de:	89 d6                	mov    %edx,%esi
    f7e0:	89 c7                	mov    %eax,%edi
    f7e2:	e8 cc 7b ff ff       	callq  73b3 <safe_add_func_int16_t_s_s>
    f7e7:	48 8b 85 08 ed ff ff 	mov    -0x12f8(%rbp),%rax
    f7ee:	48 89 85 30 eb ff ff 	mov    %rax,-0x14d0(%rbp)
    f7f5:	0f bf 95 6c e9 ff ff 	movswl -0x1694(%rbp),%edx
    f7fc:	8b 85 54 e9 ff ff    	mov    -0x16ac(%rbp),%eax
    f802:	39 c2                	cmp    %eax,%edx
    f804:	0f 95 c0             	setne  %al
    f807:	0f b6 c0             	movzbl %al,%eax
    f80a:	44 89 e6             	mov    %r12d,%esi
    f80d:	89 c7                	mov    %eax,%edi
    f80f:	e8 11 87 ff ff       	callq  7f25 <safe_div_func_uint32_t_u_u>
    f814:	0f b7 85 d4 ee ff ff 	movzwl -0x112c(%rbp),%eax
    f81b:	0f b7 c0             	movzwl %ax,%eax
    f81e:	48 8b 95 80 ec ff ff 	mov    -0x1380(%rbp),%rdx
    f825:	8b 12                	mov    (%rdx),%edx
    f827:	8d 4a ff             	lea    -0x1(%rdx),%ecx
    f82a:	48 8b 95 80 ec ff ff 	mov    -0x1380(%rbp),%rdx
    f831:	89 0a                	mov    %ecx,(%rdx)
    f833:	48 8b 95 80 ec ff ff 	mov    -0x1380(%rbp),%rdx
    f83a:	8b 0a                	mov    (%rdx),%ecx
    f83c:	8b 95 68 e9 ff ff    	mov    -0x1698(%rbp),%edx
    f842:	21 ca                	and    %ecx,%edx
    f844:	89 d2                	mov    %edx,%edx
    f846:	48 89 c6             	mov    %rax,%rsi
    f849:	48 89 d7             	mov    %rdx,%rdi
    f84c:	e8 fa 87 ff ff       	callq  804b <safe_sub_func_uint64_t_u_u>
    f851:	48 89 de             	mov    %rbx,%rsi
    f854:	48 89 c7             	mov    %rax,%rdi
    f857:	e8 53 88 ff ff       	callq  80af <safe_div_func_uint64_t_u_u>
    f85c:	c7 85 54 e9 ff ff 01 	movl   $0x1,-0x16ac(%rbp)
    f863:	00 00 00 
    f866:	8b 85 54 e9 ff ff    	mov    -0x16ac(%rbp),%eax
    f86c:	66 21 85 7e e9 ff ff 	and    %ax,-0x1682(%rbp)
    f873:	eb 5c                	jmp    f8d1 <func_31+0x2b30>
    f875:	c7 85 24 ea ff ff bd 	movl   $0xdb80ebbd,-0x15dc(%rbp)
    f87c:	eb 80 db 
    f87f:	8b 85 68 e9 ff ff    	mov    -0x1698(%rbp),%eax
    f885:	89 85 54 e9 ff ff    	mov    %eax,-0x16ac(%rbp)
    f88b:	83 bd 24 ea ff ff 00 	cmpl   $0x0,-0x15dc(%rbp)
    f892:	0f 85 d3 24 00 00    	jne    11d6b <func_31+0x4fca>
    f898:	be 03 00 00 00       	mov    $0x3,%esi
    f89d:	bf 01 00 00 00       	mov    $0x1,%edi
    f8a2:	e8 5e 83 ff ff       	callq  7c05 <safe_lshift_func_uint8_t_u_s>
    f8a7:	0f b6 c0             	movzbl %al,%eax
    f8aa:	89 85 54 e9 ff ff    	mov    %eax,-0x16ac(%rbp)
    f8b0:	8b 85 54 e9 ff ff    	mov    -0x16ac(%rbp),%eax
    f8b6:	48 98                	cltq   
    f8b8:	48 89 85 18 f9 ff ff 	mov    %rax,-0x6e8(%rbp)
    f8bf:	8b 85 54 e9 ff ff    	mov    -0x16ac(%rbp),%eax
    f8c5:	0b 85 24 ea ff ff    	or     -0x15dc(%rbp),%eax
    f8cb:	89 85 54 e9 ff ff    	mov    %eax,-0x16ac(%rbp)
    f8d1:	48 8d 85 10 ed ff ff 	lea    -0x12f0(%rbp),%rax
    f8d8:	48 83 c0 0c          	add    $0xc,%rax
    f8dc:	48 89 85 78 ec ff ff 	mov    %rax,-0x1388(%rbp)
    f8e3:	8b 85 54 e9 ff ff    	mov    -0x16ac(%rbp),%eax
    f8e9:	85 c0                	test   %eax,%eax
    f8eb:	74 3b                	je     f928 <func_31+0x2b87>
    f8ed:	48 8d 05 30 17 01 00 	lea    0x11730(%rip),%rax        # 21024 <g_11>
    f8f4:	48 89 85 88 ec ff ff 	mov    %rax,-0x1378(%rbp)
    f8fb:	8b 85 54 e9 ff ff    	mov    -0x16ac(%rbp),%eax
    f901:	85 c0                	test   %eax,%eax
    f903:	0f 85 65 24 00 00    	jne    11d6e <func_31+0x4fcd>
    f909:	48 8b 85 88 ec ff ff 	mov    -0x1378(%rbp),%rax
    f910:	48 89 85 18 ec ff ff 	mov    %rax,-0x13e8(%rbp)
    f917:	0f b7 85 d4 ee ff ff 	movzwl -0x112c(%rbp),%eax
    f91e:	66 85 c0             	test   %ax,%ax
    f921:	74 13                	je     f936 <func_31+0x2b95>
    f923:	e9 6e 04 00 00       	jmpq   fd96 <func_31+0x2ff5>
    f928:	48 8b 85 50 ec ff ff 	mov    -0x13b0(%rbp),%rax
    f92f:	48 89 85 78 ec ff ff 	mov    %rax,-0x1388(%rbp)
    f936:	c7 85 98 e9 ff ff 00 	movl   $0x0,-0x1668(%rbp)
    f93d:	00 00 00 
    f940:	eb 48                	jmp    f98a <func_31+0x2be9>
    f942:	48 8d 05 97 3e 01 00 	lea    0x13e97(%rip),%rax        # 237e0 <g_61>
    f949:	48 89 85 90 ec ff ff 	mov    %rax,-0x1370(%rbp)
    f950:	83 bd 1c ea ff ff 00 	cmpl   $0x0,-0x15e4(%rbp)
    f957:	74 05                	je     f95e <func_31+0x2bbd>
    f959:	e9 63 da ff ff       	jmpq   d3c1 <func_31+0x620>
    f95e:	48 8b 15 7b 3e 01 00 	mov    0x13e7b(%rip),%rdx        # 237e0 <g_61>
    f965:	48 8b 85 90 ec ff ff 	mov    -0x1370(%rbp),%rax
    f96c:	48 89 10             	mov    %rdx,(%rax)
    f96f:	8b 85 98 e9 ff ff    	mov    -0x1668(%rbp),%eax
    f975:	48 98                	cltq   
    f977:	be 07 00 00 00       	mov    $0x7,%esi
    f97c:	48 89 c7             	mov    %rax,%rdi
    f97f:	e8 bd 7e ff ff       	callq  7841 <safe_add_func_int64_t_s_s>
    f984:	89 85 98 e9 ff ff    	mov    %eax,-0x1668(%rbp)
    f98a:	83 bd 98 e9 ff ff 0d 	cmpl   $0xd,-0x1668(%rbp)
    f991:	7e af                	jle    f942 <func_31+0x2ba1>
    f993:	e9 12 01 00 00       	jmpq   faaa <func_31+0x2d09>
    f998:	c6 85 75 e9 ff ff 6d 	movb   $0x6d,-0x168b(%rbp)
    f99f:	48 8d 05 fa 18 01 00 	lea    0x118fa(%rip),%rax        # 212a0 <g_2134>
    f9a6:	48 89 85 70 ec ff ff 	mov    %rax,-0x1390(%rbp)
    f9ad:	48 8b 85 50 ec ff ff 	mov    -0x13b0(%rbp),%rax
    f9b4:	8b 00                	mov    (%rax),%eax
    f9b6:	89 c6                	mov    %eax,%esi
    f9b8:	bf 1c 5e 00 00       	mov    $0x5e1c,%edi
    f9bd:	e8 a1 7b ff ff       	callq  7563 <safe_rshift_func_int16_t_s_u>
    f9c2:	0f b6 c0             	movzbl %al,%eax
    f9c5:	48 8b 15 b4 40 01 00 	mov    0x140b4(%rip),%rdx        # 23a80 <g_1409>
    f9cc:	66 c7 02 01 00       	movw   $0x1,(%rdx)
    f9d1:	89 c6                	mov    %eax,%esi
    f9d3:	bf 01 00 00 00       	mov    $0x1,%edi
    f9d8:	e8 b6 81 ff ff       	callq  7b93 <safe_mul_func_uint8_t_u_u>
    f9dd:	44 0f bf a5 6c e9 ff 	movswl -0x1694(%rbp),%r12d
    f9e4:	ff 
    f9e5:	0f b6 9d 75 e9 ff ff 	movzbl -0x168b(%rbp),%ebx
    f9ec:	be 41 47 ba 8c       	mov    $0x8cba4741,%esi
    f9f1:	bf 14 09 6d 7e       	mov    $0x7e6d0914,%edi
    f9f6:	e8 d1 7c ff ff       	callq  76cc <safe_mod_func_int32_t_s_s>
    f9fb:	3d ff 00 00 00       	cmp    $0xff,%eax
    fa00:	0f 96 c0             	setbe  %al
    fa03:	0f b6 c0             	movzbl %al,%eax
    fa06:	89 de                	mov    %ebx,%esi
    fa08:	89 c7                	mov    %eax,%edi
    fa0a:	e8 c1 84 ff ff       	callq  7ed0 <safe_sub_func_uint32_t_u_u>
    fa0f:	48 8b 85 58 e9 ff ff 	mov    -0x16a8(%rbp),%rax
    fa16:	0f b6 00             	movzbl (%rax),%eax
    fa19:	3c 01                	cmp    $0x1,%al
    fa1b:	74 10                	je     fa2d <func_31+0x2c8c>
    fa1d:	83 bd 68 e9 ff ff 00 	cmpl   $0x0,-0x1698(%rbp)
    fa24:	74 07                	je     fa2d <func_31+0x2c8c>
    fa26:	b8 01 00 00 00       	mov    $0x1,%eax
    fa2b:	eb 05                	jmp    fa32 <func_31+0x2c91>
    fa2d:	b8 00 00 00 00       	mov    $0x0,%eax
    fa32:	48 98                	cltq   
    fa34:	48 c7 c6 fc ff ff ff 	mov    $0xfffffffffffffffc,%rsi
    fa3b:	48 89 c7             	mov    %rax,%rdi
    fa3e:	e8 fe 7d ff ff       	callq  7841 <safe_add_func_int64_t_s_s>
    fa43:	48 85 c0             	test   %rax,%rax
    fa46:	75 0a                	jne    fa52 <func_31+0x2cb1>
    fa48:	8b 85 54 e9 ff ff    	mov    -0x16ac(%rbp),%eax
    fa4e:	85 c0                	test   %eax,%eax
    fa50:	74 07                	je     fa59 <func_31+0x2cb8>
    fa52:	b8 01 00 00 00       	mov    $0x1,%eax
    fa57:	eb 05                	jmp    fa5e <func_31+0x2cbd>
    fa59:	b8 00 00 00 00       	mov    $0x0,%eax
    fa5e:	48 98                	cltq   
    fa60:	48 89 c7             	mov    %rax,%rdi
    fa63:	e8 ae 7d ff ff       	callq  7816 <safe_unary_minus_func_int64_t_s>
    fa68:	48 8b 85 70 ec ff ff 	mov    -0x1390(%rbp),%rax
    fa6f:	66 c7 00 01 00       	movw   $0x1,(%rax)
    fa74:	48 8b 85 70 ec ff ff 	mov    -0x1390(%rbp),%rax
    fa7b:	0f b7 00             	movzwl (%rax),%eax
    fa7e:	66 85 c0             	test   %ax,%ax
    fa81:	0f 9f c0             	setg   %al
    fa84:	0f b6 d0             	movzbl %al,%edx
    fa87:	48 8b 85 50 ec ff ff 	mov    -0x13b0(%rbp),%rax
    fa8e:	8b 00                	mov    (%rax),%eax
    fa90:	39 c2                	cmp    %eax,%edx
    fa92:	0f 95 c0             	setne  %al
    fa95:	0f b6 c0             	movzbl %al,%eax
    fa98:	41 39 c4             	cmp    %eax,%r12d
    fa9b:	0f 9e c0             	setle  %al
    fa9e:	0f b6 d0             	movzbl %al,%edx
    faa1:	48 8b 85 50 ec ff ff 	mov    -0x13b0(%rbp),%rax
    faa8:	89 10                	mov    %edx,(%rax)
    faaa:	c6 05 f7 16 01 00 01 	movb   $0x1,0x116f7(%rip)        # 211a8 <g_396>
    fab1:	e9 7a 01 00 00       	jmpq   fc30 <func_31+0x2e8f>
    fab6:	66 c7 85 80 e9 ff ff 	movw   $0x3,-0x1680(%rbp)
    fabd:	03 00 
    fabf:	0f bf 9d 6c e9 ff ff 	movswl -0x1694(%rbp),%ebx
    fac6:	48 8b 85 50 ec ff ff 	mov    -0x13b0(%rbp),%rax
    facd:	8b 00                	mov    (%rax),%eax
    facf:	44 0f bf e0          	movswl %ax,%r12d
    fad3:	48 8b 85 20 eb ff ff 	mov    -0x14e0(%rbp),%rax
    fada:	48 8b 00             	mov    (%rax),%rax
    fadd:	48 8b 00             	mov    (%rax),%rax
    fae0:	48 c7 00 00 00 00 00 	movq   $0x0,(%rax)
    fae7:	48 8b 85 50 ec ff ff 	mov    -0x13b0(%rbp),%rax
    faee:	8b 00                	mov    (%rax),%eax
    faf0:	83 c8 03             	or     $0x3,%eax
    faf3:	0f b7 c0             	movzwl %ax,%eax
    faf6:	be 06 00 00 00       	mov    $0x6,%esi
    fafb:	89 c7                	mov    %eax,%edi
    fafd:	e8 46 83 ff ff       	callq  7e48 <safe_rshift_func_uint16_t_u_s>
    fb02:	48 8b 95 58 e9 ff ff 	mov    -0x16a8(%rbp),%rdx
    fb09:	0f b6 12             	movzbl (%rdx),%edx
    fb0c:	0f b6 d2             	movzbl %dl,%edx
    fb0f:	31 d0                	xor    %edx,%eax
    fb11:	98                   	cwtl   
    fb12:	be 0d 00 00 00       	mov    $0xd,%esi
    fb17:	89 c7                	mov    %eax,%edi
    fb19:	e8 74 79 ff ff       	callq  7492 <safe_lshift_func_int16_t_s_s>
    fb1e:	66 85 c0             	test   %ax,%ax
    fb21:	74 09                	je     fb2c <func_31+0x2d8b>
    fb23:	0f b6 85 16 ef ff ff 	movzbl -0x10ea(%rbp),%eax
    fb2a:	84 c0                	test   %al,%al
    fb2c:	48 8b 85 78 ea ff ff 	mov    -0x1588(%rbp),%rax
    fb33:	0f b6 10             	movzbl (%rax),%edx
    fb36:	8b 85 54 e9 ff ff    	mov    -0x16ac(%rbp),%eax
    fb3c:	89 c1                	mov    %eax,%ecx
    fb3e:	48 8b 85 78 ea ff ff 	mov    -0x1588(%rbp),%rax
    fb45:	21 ca                	and    %ecx,%edx
    fb47:	88 10                	mov    %dl,(%rax)
    fb49:	0f b6 00             	movzbl (%rax),%eax
    fb4c:	0f be d0             	movsbl %al,%edx
    fb4f:	48 8d 05 5a 4b 01 00 	lea    0x14b5a(%rip),%rax        # 246b0 <g_1522>
    fb56:	48 39 85 58 ec ff ff 	cmp    %rax,-0x13a8(%rbp)
    fb5d:	0f 95 c0             	setne  %al
    fb60:	0f b6 c0             	movzbl %al,%eax
    fb63:	48 21 85 40 eb ff ff 	and    %rax,-0x14c0(%rbp)
    fb6a:	48 83 bd 40 eb ff ff 	cmpq   $0x0,-0x14c0(%rbp)
    fb71:	00 
    fb72:	0f 95 c0             	setne  %al
    fb75:	0f b6 c8             	movzbl %al,%ecx
    fb78:	48 8b 05 09 3f 01 00 	mov    0x13f09(%rip),%rax        # 23a88 <g_1408>
    fb7f:	48 8b 00             	mov    (%rax),%rax
    fb82:	0f b7 00             	movzwl (%rax),%eax
    fb85:	0f b7 f0             	movzwl %ax,%esi
    fb88:	48 83 bd 60 ec ff ff 	cmpq   $0x0,-0x13a0(%rbp)
    fb8f:	00 
    fb90:	0f 94 c0             	sete   %al
    fb93:	0f b6 c0             	movzbl %al,%eax
    fb96:	48 21 f0             	and    %rsi,%rax
    fb99:	48 39 c1             	cmp    %rax,%rcx
    fb9c:	0f 97 c0             	seta   %al
    fb9f:	0f b6 c0             	movzbl %al,%eax
    fba2:	39 c2                	cmp    %eax,%edx
    fba4:	0f 9c c0             	setl   %al
    fba7:	0f b6 c0             	movzbl %al,%eax
    fbaa:	be cb ff ff ff       	mov    $0xffffffcb,%esi
    fbaf:	89 c7                	mov    %eax,%edi
    fbb1:	e8 b4 76 ff ff       	callq  726a <safe_div_func_int8_t_s_s>
    fbb6:	83 bd 68 e9 ff ff 00 	cmpl   $0x0,-0x1698(%rbp)
    fbbd:	0f 9e c0             	setle  %al
    fbc0:	0f b6 c0             	movzbl %al,%eax
    fbc3:	44 89 e6             	mov    %r12d,%esi
    fbc6:	89 c7                	mov    %eax,%edi
    fbc8:	e8 06 78 ff ff       	callq  73d3 <safe_sub_func_int16_t_s_s>
    fbcd:	66 89 85 80 e9 ff ff 	mov    %ax,-0x1680(%rbp)
    fbd4:	0f bf 95 80 e9 ff ff 	movswl -0x1680(%rbp),%edx
    fbdb:	8b 85 54 e9 ff ff    	mov    -0x16ac(%rbp),%eax
    fbe1:	39 c2                	cmp    %eax,%edx
    fbe3:	0f 9c c0             	setl   %al
    fbe6:	0f b6 c0             	movzbl %al,%eax
    fbe9:	89 de                	mov    %ebx,%esi
    fbeb:	89 c7                	mov    %eax,%edi
    fbed:	e8 da 7a ff ff       	callq  76cc <safe_mod_func_int32_t_s_s>
    fbf2:	0f b7 85 80 e9 ff ff 	movzwl -0x1680(%rbp),%eax
    fbf9:	0f bf d0             	movswl %ax,%edx
    fbfc:	8b 85 90 e9 ff ff    	mov    -0x1670(%rbp),%eax
    fc02:	21 d0                	and    %edx,%eax
    fc04:	89 85 90 e9 ff ff    	mov    %eax,-0x1670(%rbp)
    fc0a:	83 bd 68 e9 ff ff 00 	cmpl   $0x0,-0x1698(%rbp)
    fc11:	75 2e                	jne    fc41 <func_31+0x2ea0>
    fc13:	48 8b 85 50 ec ff ff 	mov    -0x13b0(%rbp),%rax
    fc1a:	c7 00 a8 2a 4b fa    	movl   $0xfa4b2aa8,(%rax)
    fc20:	0f b6 05 81 15 01 00 	movzbl 0x11581(%rip),%eax        # 211a8 <g_396>
    fc27:	83 c0 01             	add    $0x1,%eax
    fc2a:	88 05 78 15 01 00    	mov    %al,0x11578(%rip)        # 211a8 <g_396>
    fc30:	0f b6 05 71 15 01 00 	movzbl 0x11571(%rip),%eax        # 211a8 <g_396>
    fc37:	3c 0c                	cmp    $0xc,%al
    fc39:	0f 8e 77 fe ff ff    	jle    fab6 <func_31+0x2d15>
    fc3f:	eb 01                	jmp    fc42 <func_31+0x2ea1>
    fc41:	90                   	nop
    fc42:	c7 85 54 e9 ff ff 00 	movl   $0x0,-0x16ac(%rbp)
    fc49:	00 00 00 
    fc4c:	e9 1c 01 00 00       	jmpq   fd6d <func_31+0x2fcc>
    fc51:	48 8d 85 f0 f3 ff ff 	lea    -0xc10(%rbp),%rax
    fc58:	48 8d 15 e1 ca 00 00 	lea    0xcae1(%rip),%rdx        # 1c740 <g_2878+0x16e0>
    fc5f:	b9 23 00 00 00       	mov    $0x23,%ecx
    fc64:	48 89 c7             	mov    %rax,%rdi
    fc67:	48 89 d6             	mov    %rdx,%rsi
    fc6a:	f3 48 a5             	rep movsq %ds:(%rsi),%es:(%rdi)
    fc6d:	8b 85 54 e9 ff ff    	mov    -0x16ac(%rbp),%eax
    fc73:	88 85 74 e9 ff ff    	mov    %al,-0x168c(%rbp)
    fc79:	48 8b 85 50 ec ff ff 	mov    -0x13b0(%rbp),%rax
    fc80:	8b 00                	mov    (%rax),%eax
    fc82:	23 85 68 e9 ff ff    	and    -0x1698(%rbp),%eax
    fc88:	89 c2                	mov    %eax,%edx
    fc8a:	48 8b 85 50 ec ff ff 	mov    -0x13b0(%rbp),%rax
    fc91:	89 10                	mov    %edx,(%rax)
    fc93:	8b 85 68 e9 ff ff    	mov    -0x1698(%rbp),%eax
    fc99:	83 c8 01             	or     $0x1,%eax
    fc9c:	83 f8 05             	cmp    $0x5,%eax
    fc9f:	0f 95 c0             	setne  %al
    fca2:	89 c2                	mov    %eax,%edx
    fca4:	8b 85 54 e9 ff ff    	mov    -0x16ac(%rbp),%eax
    fcaa:	21 d0                	and    %edx,%eax
    fcac:	0f b6 c0             	movzbl %al,%eax
    fcaf:	be fc 00 00 00       	mov    $0xfc,%esi
    fcb4:	89 c7                	mov    %eax,%edi
    fcb6:	e8 d8 7e ff ff       	callq  7b93 <safe_mul_func_uint8_t_u_u>
    fcbb:	48 8d 05 5e 49 01 00 	lea    0x1495e(%rip),%rax        # 24620 <g_26+0x60>
    fcc2:	48 39 85 28 ec ff ff 	cmp    %rax,-0x13d8(%rbp)
    fcc9:	74 11                	je     fcdc <func_31+0x2f3b>
    fccb:	8b 85 54 e9 ff ff    	mov    -0x16ac(%rbp),%eax
    fcd1:	85 c0                	test   %eax,%eax
    fcd3:	74 07                	je     fcdc <func_31+0x2f3b>
    fcd5:	ba 01 00 00 00       	mov    $0x1,%edx
    fcda:	eb 05                	jmp    fce1 <func_31+0x2f40>
    fcdc:	ba 00 00 00 00       	mov    $0x0,%edx
    fce1:	0f b7 85 9a f4 ff ff 	movzwl -0xb66(%rbp),%eax
    fce8:	98                   	cwtl   
    fce9:	39 c2                	cmp    %eax,%edx
    fceb:	0f 95 c0             	setne  %al
    fcee:	0f b6 d0             	movzbl %al,%edx
    fcf1:	0f bf 85 6c e9 ff ff 	movswl -0x1694(%rbp),%eax
    fcf8:	31 d0                	xor    %edx,%eax
    fcfa:	39 85 68 e9 ff ff    	cmp    %eax,-0x1698(%rbp)
    fd00:	0f 9f c0             	setg   %al
    fd03:	0f b6 c0             	movzbl %al,%eax
    fd06:	89 05 44 16 01 00    	mov    %eax,0x11644(%rip)        # 21350 <g_2313+0x10>
    fd0c:	8b 15 3e 16 01 00    	mov    0x1163e(%rip),%edx        # 21350 <g_2313+0x10>
    fd12:	8b 85 9c e9 ff ff    	mov    -0x1664(%rbp),%eax
    fd18:	21 d0                	and    %edx,%eax
    fd1a:	89 85 9c e9 ff ff    	mov    %eax,-0x1664(%rbp)
    fd20:	c7 85 90 e9 ff ff 00 	movl   $0x0,-0x1670(%rbp)
    fd27:	00 00 00 
    fd2a:	90                   	nop
    fd2b:	8b 85 90 e9 ff ff    	mov    -0x1670(%rbp),%eax
    fd31:	83 f8 03             	cmp    $0x3,%eax
    fd34:	7f 28                	jg     fd5e <func_31+0x2fbd>
    fd36:	48 8d 85 8c e9 ff ff 	lea    -0x1674(%rbp),%rax
    fd3d:	48 89 85 98 ec ff ff 	mov    %rax,-0x1368(%rbp)
    fd44:	48 8b 85 98 ec ff ff 	mov    -0x1368(%rbp),%rax
    fd4b:	48 89 85 50 ec ff ff 	mov    %rax,-0x13b0(%rbp)
    fd52:	48 8b 85 68 ec ff ff 	mov    -0x1398(%rbp),%rax
    fd59:	e9 8d 20 00 00       	jmpq   11deb <func_31+0x504a>
    fd5e:	8b 85 54 e9 ff ff    	mov    -0x16ac(%rbp),%eax
    fd64:	83 c0 01             	add    $0x1,%eax
    fd67:	89 85 54 e9 ff ff    	mov    %eax,-0x16ac(%rbp)
    fd6d:	8b 85 54 e9 ff ff    	mov    -0x16ac(%rbp),%eax
    fd73:	83 f8 02             	cmp    $0x2,%eax
    fd76:	0f 8e d5 fe ff ff    	jle    fc51 <func_31+0x2eb0>
    fd7c:	48 8b 85 50 ec ff ff 	mov    -0x13b0(%rbp),%rax
    fd83:	8b 10                	mov    (%rax),%edx
    fd85:	8b 85 54 e9 ff ff    	mov    -0x16ac(%rbp),%eax
    fd8b:	31 c2                	xor    %eax,%edx
    fd8d:	48 8b 85 50 ec ff ff 	mov    -0x13b0(%rbp),%rax
    fd94:	89 10                	mov    %edx,(%rax)
    fd96:	8b 05 e8 13 01 00    	mov    0x113e8(%rip),%eax        # 21184 <g_122>
    fd9c:	83 c0 01             	add    $0x1,%eax
    fd9f:	89 05 df 13 01 00    	mov    %eax,0x113df(%rip)        # 21184 <g_122>
    fda5:	8b 05 d9 13 01 00    	mov    0x113d9(%rip),%eax        # 21184 <g_122>
    fdab:	83 f8 2e             	cmp    $0x2e,%eax
    fdae:	0f 87 71 e2 ff ff    	ja     e025 <func_31+0x1284>
    fdb4:	e9 b6 1f 00 00       	jmpq   11d6f <func_31+0x4fce>
    fdb9:	48 8d 05 c8 3e 01 00 	lea    0x13ec8(%rip),%rax        # 23c88 <g_1988+0x8>
    fdc0:	48 89 85 d0 ea ff ff 	mov    %rax,-0x1530(%rbp)
    fdc7:	48 8d 05 86 14 01 00 	lea    0x11486(%rip),%rax        # 21254 <g_1916+0x34>
    fdce:	48 89 85 d8 ea ff ff 	mov    %rax,-0x1528(%rbp)
    fdd5:	c7 85 bc e9 ff ff a9 	movl   $0x4b5287a9,-0x1644(%rbp)
    fddc:	87 52 4b 
    fddf:	48 c7 85 e0 ea ff ff 	movq   $0x0,-0x1520(%rbp)
    fde6:	00 00 00 00 
    fdea:	48 8d 85 e0 ea ff ff 	lea    -0x1520(%rbp),%rax
    fdf1:	48 89 85 e8 ea ff ff 	mov    %rax,-0x1518(%rbp)
    fdf8:	48 8d 85 e8 ea ff ff 	lea    -0x1518(%rbp),%rax
    fdff:	48 89 85 f0 ed ff ff 	mov    %rax,-0x1210(%rbp)
    fe06:	48 8d 85 e8 ea ff ff 	lea    -0x1518(%rbp),%rax
    fe0d:	48 89 85 f8 ed ff ff 	mov    %rax,-0x1208(%rbp)
    fe14:	48 8d 85 e8 ea ff ff 	lea    -0x1518(%rbp),%rax
    fe1b:	48 89 85 00 ee ff ff 	mov    %rax,-0x1200(%rbp)
    fe22:	48 8d 85 e8 ea ff ff 	lea    -0x1518(%rbp),%rax
    fe29:	48 89 85 08 ee ff ff 	mov    %rax,-0x11f8(%rbp)
    fe30:	48 8d 85 e8 ea ff ff 	lea    -0x1518(%rbp),%rax
    fe37:	48 89 85 10 ee ff ff 	mov    %rax,-0x11f0(%rbp)
    fe3e:	48 8d 85 f0 ed ff ff 	lea    -0x1210(%rbp),%rax
    fe45:	48 83 c0 20          	add    $0x20,%rax
    fe49:	48 89 85 f0 ea ff ff 	mov    %rax,-0x1510(%rbp)
    fe50:	48 8d 05 f9 11 01 00 	lea    0x111f9(%rip),%rax        # 21050 <g_79>
    fe57:	48 89 85 70 eb ff ff 	mov    %rax,-0x1490(%rbp)
    fe5e:	48 8d 05 3f 14 01 00 	lea    0x1143f(%rip),%rax        # 212a4 <g_2159>
    fe65:	48 89 85 f8 ea ff ff 	mov    %rax,-0x1508(%rbp)
    fe6c:	48 8d 85 f8 ea ff ff 	lea    -0x1508(%rbp),%rax
    fe73:	48 89 85 00 eb ff ff 	mov    %rax,-0x1500(%rbp)
    fe7a:	48 8d 05 17 48 01 00 	lea    0x14817(%rip),%rax        # 24698 <g_1139+0x18>
    fe81:	48 89 85 78 eb ff ff 	mov    %rax,-0x1488(%rbp)
    fe88:	48 8d 05 11 3e 01 00 	lea    0x13e11(%rip),%rax        # 23ca0 <g_1987>
    fe8f:	48 89 85 30 f9 ff ff 	mov    %rax,-0x6d0(%rbp)
    fe96:	48 8d 05 03 3e 01 00 	lea    0x13e03(%rip),%rax        # 23ca0 <g_1987>
    fe9d:	48 89 85 38 f9 ff ff 	mov    %rax,-0x6c8(%rbp)
    fea4:	48 8d 85 d0 ea ff ff 	lea    -0x1530(%rbp),%rax
    feab:	48 89 85 40 f9 ff ff 	mov    %rax,-0x6c0(%rbp)
    feb2:	48 8d 05 e7 3d 01 00 	lea    0x13de7(%rip),%rax        # 23ca0 <g_1987>
    feb9:	48 89 85 48 f9 ff ff 	mov    %rax,-0x6b8(%rbp)
    fec0:	48 8d 05 d9 3d 01 00 	lea    0x13dd9(%rip),%rax        # 23ca0 <g_1987>
    fec7:	48 89 85 50 f9 ff ff 	mov    %rax,-0x6b0(%rbp)
    fece:	48 8d 85 d0 ea ff ff 	lea    -0x1530(%rbp),%rax
    fed5:	48 89 85 58 f9 ff ff 	mov    %rax,-0x6a8(%rbp)
    fedc:	48 8d 05 bd 3d 01 00 	lea    0x13dbd(%rip),%rax        # 23ca0 <g_1987>
    fee3:	48 89 85 60 f9 ff ff 	mov    %rax,-0x6a0(%rbp)
    feea:	48 8d 05 af 3d 01 00 	lea    0x13daf(%rip),%rax        # 23ca0 <g_1987>
    fef1:	48 89 85 68 f9 ff ff 	mov    %rax,-0x698(%rbp)
    fef8:	48 8d 85 d0 ea ff ff 	lea    -0x1530(%rbp),%rax
    feff:	48 89 85 70 f9 ff ff 	mov    %rax,-0x690(%rbp)
    ff06:	48 c7 85 78 f9 ff ff 	movq   $0x0,-0x688(%rbp)
    ff0d:	00 00 00 00 
    ff11:	48 8d 85 d0 ea ff ff 	lea    -0x1530(%rbp),%rax
    ff18:	48 89 85 80 f9 ff ff 	mov    %rax,-0x680(%rbp)
    ff1f:	48 8d 05 7a 3d 01 00 	lea    0x13d7a(%rip),%rax        # 23ca0 <g_1987>
    ff26:	48 89 85 88 f9 ff ff 	mov    %rax,-0x678(%rbp)
    ff2d:	48 8d 05 6c 3d 01 00 	lea    0x13d6c(%rip),%rax        # 23ca0 <g_1987>
    ff34:	48 89 85 90 f9 ff ff 	mov    %rax,-0x670(%rbp)
    ff3b:	48 c7 85 98 f9 ff ff 	movq   $0x0,-0x668(%rbp)
    ff42:	00 00 00 00 
    ff46:	48 8d 05 53 3d 01 00 	lea    0x13d53(%rip),%rax        # 23ca0 <g_1987>
    ff4d:	48 89 85 a0 f9 ff ff 	mov    %rax,-0x660(%rbp)
    ff54:	48 8d 85 d0 ea ff ff 	lea    -0x1530(%rbp),%rax
    ff5b:	48 89 85 a8 f9 ff ff 	mov    %rax,-0x658(%rbp)
    ff62:	48 8d 85 d0 ea ff ff 	lea    -0x1530(%rbp),%rax
    ff69:	48 89 85 b0 f9 ff ff 	mov    %rax,-0x650(%rbp)
    ff70:	48 8d 85 d0 ea ff ff 	lea    -0x1530(%rbp),%rax
    ff77:	48 89 85 b8 f9 ff ff 	mov    %rax,-0x648(%rbp)
    ff7e:	48 8d 05 1b 3d 01 00 	lea    0x13d1b(%rip),%rax        # 23ca0 <g_1987>
    ff85:	48 89 85 c0 f9 ff ff 	mov    %rax,-0x640(%rbp)
    ff8c:	48 8d 85 d0 ea ff ff 	lea    -0x1530(%rbp),%rax
    ff93:	48 89 85 c8 f9 ff ff 	mov    %rax,-0x638(%rbp)
    ff9a:	48 8d 05 ff 3c 01 00 	lea    0x13cff(%rip),%rax        # 23ca0 <g_1987>
    ffa1:	48 89 85 d0 f9 ff ff 	mov    %rax,-0x630(%rbp)
    ffa8:	48 8d 05 f1 3c 01 00 	lea    0x13cf1(%rip),%rax        # 23ca0 <g_1987>
    ffaf:	48 89 85 d8 f9 ff ff 	mov    %rax,-0x628(%rbp)
    ffb6:	48 8d 05 e3 3c 01 00 	lea    0x13ce3(%rip),%rax        # 23ca0 <g_1987>
    ffbd:	48 89 85 e0 f9 ff ff 	mov    %rax,-0x620(%rbp)
    ffc4:	48 8d 85 d0 ea ff ff 	lea    -0x1530(%rbp),%rax
    ffcb:	48 89 85 e8 f9 ff ff 	mov    %rax,-0x618(%rbp)
    ffd2:	48 8d 05 c7 3c 01 00 	lea    0x13cc7(%rip),%rax        # 23ca0 <g_1987>
    ffd9:	48 89 85 f0 f9 ff ff 	mov    %rax,-0x610(%rbp)
    ffe0:	48 8d 05 b9 3c 01 00 	lea    0x13cb9(%rip),%rax        # 23ca0 <g_1987>
    ffe7:	48 89 85 f8 f9 ff ff 	mov    %rax,-0x608(%rbp)
    ffee:	48 8d 05 ab 3c 01 00 	lea    0x13cab(%rip),%rax        # 23ca0 <g_1987>
    fff5:	48 89 85 00 fa ff ff 	mov    %rax,-0x600(%rbp)
    fffc:	48 c7 85 08 fa ff ff 	movq   $0x0,-0x5f8(%rbp)
   10003:	00 00 00 00 
   10007:	48 8d 85 d0 ea ff ff 	lea    -0x1530(%rbp),%rax
   1000e:	48 89 85 10 fa ff ff 	mov    %rax,-0x5f0(%rbp)
   10015:	48 8d 85 d0 ea ff ff 	lea    -0x1530(%rbp),%rax
   1001c:	48 89 85 18 fa ff ff 	mov    %rax,-0x5e8(%rbp)
   10023:	48 8d 85 d0 ea ff ff 	lea    -0x1530(%rbp),%rax
   1002a:	48 89 85 20 fa ff ff 	mov    %rax,-0x5e0(%rbp)
   10031:	48 8d 85 d0 ea ff ff 	lea    -0x1530(%rbp),%rax
   10038:	48 89 85 28 fa ff ff 	mov    %rax,-0x5d8(%rbp)
   1003f:	48 8d 05 5a 3c 01 00 	lea    0x13c5a(%rip),%rax        # 23ca0 <g_1987>
   10046:	48 89 85 30 fa ff ff 	mov    %rax,-0x5d0(%rbp)
   1004d:	48 c7 85 38 fa ff ff 	movq   $0x0,-0x5c8(%rbp)
   10054:	00 00 00 00 
   10058:	48 c7 85 40 fa ff ff 	movq   $0x0,-0x5c0(%rbp)
   1005f:	00 00 00 00 
   10063:	48 8d 05 36 3c 01 00 	lea    0x13c36(%rip),%rax        # 23ca0 <g_1987>
   1006a:	48 89 85 48 fa ff ff 	mov    %rax,-0x5b8(%rbp)
   10071:	48 8d 05 28 3c 01 00 	lea    0x13c28(%rip),%rax        # 23ca0 <g_1987>
   10078:	48 89 85 50 fa ff ff 	mov    %rax,-0x5b0(%rbp)
   1007f:	48 8d 05 1a 3c 01 00 	lea    0x13c1a(%rip),%rax        # 23ca0 <g_1987>
   10086:	48 89 85 58 fa ff ff 	mov    %rax,-0x5a8(%rbp)
   1008d:	48 c7 85 60 fa ff ff 	movq   $0x0,-0x5a0(%rbp)
   10094:	00 00 00 00 
   10098:	48 8d 05 01 3c 01 00 	lea    0x13c01(%rip),%rax        # 23ca0 <g_1987>
   1009f:	48 89 85 68 fa ff ff 	mov    %rax,-0x598(%rbp)
   100a6:	48 8d 05 f3 3b 01 00 	lea    0x13bf3(%rip),%rax        # 23ca0 <g_1987>
   100ad:	48 89 85 70 fa ff ff 	mov    %rax,-0x590(%rbp)
   100b4:	48 8d 85 d0 ea ff ff 	lea    -0x1530(%rbp),%rax
   100bb:	48 89 85 78 fa ff ff 	mov    %rax,-0x588(%rbp)
   100c2:	48 8d 05 d7 3b 01 00 	lea    0x13bd7(%rip),%rax        # 23ca0 <g_1987>
   100c9:	48 89 85 80 fa ff ff 	mov    %rax,-0x580(%rbp)
   100d0:	48 8d 05 c9 3b 01 00 	lea    0x13bc9(%rip),%rax        # 23ca0 <g_1987>
   100d7:	48 89 85 88 fa ff ff 	mov    %rax,-0x578(%rbp)
   100de:	48 8d 85 d0 ea ff ff 	lea    -0x1530(%rbp),%rax
   100e5:	48 89 85 90 fa ff ff 	mov    %rax,-0x570(%rbp)
   100ec:	48 8d 85 d0 ea ff ff 	lea    -0x1530(%rbp),%rax
   100f3:	48 89 85 98 fa ff ff 	mov    %rax,-0x568(%rbp)
   100fa:	48 8d 05 9f 3b 01 00 	lea    0x13b9f(%rip),%rax        # 23ca0 <g_1987>
   10101:	48 89 85 a0 fa ff ff 	mov    %rax,-0x560(%rbp)
   10108:	48 8d 85 d0 ea ff ff 	lea    -0x1530(%rbp),%rax
   1010f:	48 89 85 a8 fa ff ff 	mov    %rax,-0x558(%rbp)
   10116:	48 8d 05 83 3b 01 00 	lea    0x13b83(%rip),%rax        # 23ca0 <g_1987>
   1011d:	48 89 85 b0 fa ff ff 	mov    %rax,-0x550(%rbp)
   10124:	48 8d 85 d0 ea ff ff 	lea    -0x1530(%rbp),%rax
   1012b:	48 89 85 b8 fa ff ff 	mov    %rax,-0x548(%rbp)
   10132:	48 c7 85 c0 fa ff ff 	movq   $0x0,-0x540(%rbp)
   10139:	00 00 00 00 
   1013d:	48 c7 85 c8 fa ff ff 	movq   $0x0,-0x538(%rbp)
   10144:	00 00 00 00 
   10148:	48 8d 05 51 3b 01 00 	lea    0x13b51(%rip),%rax        # 23ca0 <g_1987>
   1014f:	48 89 85 d0 fa ff ff 	mov    %rax,-0x530(%rbp)
   10156:	48 8d 85 d0 ea ff ff 	lea    -0x1530(%rbp),%rax
   1015d:	48 89 85 d8 fa ff ff 	mov    %rax,-0x528(%rbp)
   10164:	48 8d 05 35 3b 01 00 	lea    0x13b35(%rip),%rax        # 23ca0 <g_1987>
   1016b:	48 89 85 e0 fa ff ff 	mov    %rax,-0x520(%rbp)
   10172:	48 8d 05 27 3b 01 00 	lea    0x13b27(%rip),%rax        # 23ca0 <g_1987>
   10179:	48 89 85 e8 fa ff ff 	mov    %rax,-0x518(%rbp)
   10180:	48 8d 05 19 3b 01 00 	lea    0x13b19(%rip),%rax        # 23ca0 <g_1987>
   10187:	48 89 85 f0 fa ff ff 	mov    %rax,-0x510(%rbp)
   1018e:	48 8d 05 0b 3b 01 00 	lea    0x13b0b(%rip),%rax        # 23ca0 <g_1987>
   10195:	48 89 85 f8 fa ff ff 	mov    %rax,-0x508(%rbp)
   1019c:	48 8d 85 d0 ea ff ff 	lea    -0x1530(%rbp),%rax
   101a3:	48 89 85 00 fb ff ff 	mov    %rax,-0x500(%rbp)
   101aa:	48 c7 85 08 fb ff ff 	movq   $0x0,-0x4f8(%rbp)
   101b1:	00 00 00 00 
   101b5:	48 8d 05 e4 3a 01 00 	lea    0x13ae4(%rip),%rax        # 23ca0 <g_1987>
   101bc:	48 89 85 10 fb ff ff 	mov    %rax,-0x4f0(%rbp)
   101c3:	48 c7 85 18 fb ff ff 	movq   $0x0,-0x4e8(%rbp)
   101ca:	00 00 00 00 
   101ce:	48 8d 85 d0 ea ff ff 	lea    -0x1530(%rbp),%rax
   101d5:	48 89 85 20 fb ff ff 	mov    %rax,-0x4e0(%rbp)
   101dc:	48 8d 85 d0 ea ff ff 	lea    -0x1530(%rbp),%rax
   101e3:	48 89 85 28 fb ff ff 	mov    %rax,-0x4d8(%rbp)
   101ea:	48 8d 85 d0 ea ff ff 	lea    -0x1530(%rbp),%rax
   101f1:	48 89 85 30 fb ff ff 	mov    %rax,-0x4d0(%rbp)
   101f8:	48 8d 85 d0 ea ff ff 	lea    -0x1530(%rbp),%rax
   101ff:	48 89 85 38 fb ff ff 	mov    %rax,-0x4c8(%rbp)
   10206:	48 c7 85 40 fb ff ff 	movq   $0x0,-0x4c0(%rbp)
   1020d:	00 00 00 00 
   10211:	48 8d 85 d0 ea ff ff 	lea    -0x1530(%rbp),%rax
   10218:	48 89 85 48 fb ff ff 	mov    %rax,-0x4b8(%rbp)
   1021f:	48 c7 85 50 fb ff ff 	movq   $0x0,-0x4b0(%rbp)
   10226:	00 00 00 00 
   1022a:	48 8d 85 d0 ea ff ff 	lea    -0x1530(%rbp),%rax
   10231:	48 89 85 58 fb ff ff 	mov    %rax,-0x4a8(%rbp)
   10238:	48 c7 85 60 fb ff ff 	movq   $0x0,-0x4a0(%rbp)
   1023f:	00 00 00 00 
   10243:	48 8d 05 56 3a 01 00 	lea    0x13a56(%rip),%rax        # 23ca0 <g_1987>
   1024a:	48 89 85 68 fb ff ff 	mov    %rax,-0x498(%rbp)
   10251:	48 8d 05 48 3a 01 00 	lea    0x13a48(%rip),%rax        # 23ca0 <g_1987>
   10258:	48 89 85 70 fb ff ff 	mov    %rax,-0x490(%rbp)
   1025f:	48 8d 85 d0 ea ff ff 	lea    -0x1530(%rbp),%rax
   10266:	48 89 85 78 fb ff ff 	mov    %rax,-0x488(%rbp)
   1026d:	48 8d 85 d0 ea ff ff 	lea    -0x1530(%rbp),%rax
   10274:	48 89 85 80 fb ff ff 	mov    %rax,-0x480(%rbp)
   1027b:	48 c7 85 88 fb ff ff 	movq   $0x0,-0x478(%rbp)
   10282:	00 00 00 00 
   10286:	48 8d 05 13 3a 01 00 	lea    0x13a13(%rip),%rax        # 23ca0 <g_1987>
   1028d:	48 89 85 90 fb ff ff 	mov    %rax,-0x470(%rbp)
   10294:	48 8d 05 05 3a 01 00 	lea    0x13a05(%rip),%rax        # 23ca0 <g_1987>
   1029b:	48 89 85 98 fb ff ff 	mov    %rax,-0x468(%rbp)
   102a2:	48 8d 05 f7 39 01 00 	lea    0x139f7(%rip),%rax        # 23ca0 <g_1987>
   102a9:	48 89 85 a0 fb ff ff 	mov    %rax,-0x460(%rbp)
   102b0:	48 8d 05 e9 39 01 00 	lea    0x139e9(%rip),%rax        # 23ca0 <g_1987>
   102b7:	48 89 85 a8 fb ff ff 	mov    %rax,-0x458(%rbp)
   102be:	48 c7 85 b0 fb ff ff 	movq   $0x0,-0x450(%rbp)
   102c5:	00 00 00 00 
   102c9:	48 8d 85 d0 ea ff ff 	lea    -0x1530(%rbp),%rax
   102d0:	48 89 85 b8 fb ff ff 	mov    %rax,-0x448(%rbp)
   102d7:	48 8d 85 d0 ea ff ff 	lea    -0x1530(%rbp),%rax
   102de:	48 89 85 c0 fb ff ff 	mov    %rax,-0x440(%rbp)
   102e5:	48 8d 85 d0 ea ff ff 	lea    -0x1530(%rbp),%rax
   102ec:	48 89 85 c8 fb ff ff 	mov    %rax,-0x438(%rbp)
   102f3:	48 8d 85 d0 ea ff ff 	lea    -0x1530(%rbp),%rax
   102fa:	48 89 85 d0 fb ff ff 	mov    %rax,-0x430(%rbp)
   10301:	48 8d 05 98 39 01 00 	lea    0x13998(%rip),%rax        # 23ca0 <g_1987>
   10308:	48 89 85 d8 fb ff ff 	mov    %rax,-0x428(%rbp)
   1030f:	48 8d 05 8a 39 01 00 	lea    0x1398a(%rip),%rax        # 23ca0 <g_1987>
   10316:	48 89 85 e0 fb ff ff 	mov    %rax,-0x420(%rbp)
   1031d:	48 8d 05 7c 39 01 00 	lea    0x1397c(%rip),%rax        # 23ca0 <g_1987>
   10324:	48 89 85 e8 fb ff ff 	mov    %rax,-0x418(%rbp)
   1032b:	48 8d 05 6e 39 01 00 	lea    0x1396e(%rip),%rax        # 23ca0 <g_1987>
   10332:	48 89 85 f0 fb ff ff 	mov    %rax,-0x410(%rbp)
   10339:	48 8d 05 60 39 01 00 	lea    0x13960(%rip),%rax        # 23ca0 <g_1987>
   10340:	48 89 85 f8 fb ff ff 	mov    %rax,-0x408(%rbp)
   10347:	48 8d 05 52 39 01 00 	lea    0x13952(%rip),%rax        # 23ca0 <g_1987>
   1034e:	48 89 85 00 fc ff ff 	mov    %rax,-0x400(%rbp)
   10355:	48 8d 05 44 39 01 00 	lea    0x13944(%rip),%rax        # 23ca0 <g_1987>
   1035c:	48 89 85 08 fc ff ff 	mov    %rax,-0x3f8(%rbp)
   10363:	48 8d 05 36 39 01 00 	lea    0x13936(%rip),%rax        # 23ca0 <g_1987>
   1036a:	48 89 85 10 fc ff ff 	mov    %rax,-0x3f0(%rbp)
   10371:	48 8d 05 28 39 01 00 	lea    0x13928(%rip),%rax        # 23ca0 <g_1987>
   10378:	48 89 85 18 fc ff ff 	mov    %rax,-0x3e8(%rbp)
   1037f:	48 8d 05 1a 39 01 00 	lea    0x1391a(%rip),%rax        # 23ca0 <g_1987>
   10386:	48 89 85 20 fc ff ff 	mov    %rax,-0x3e0(%rbp)
   1038d:	48 c7 85 28 fc ff ff 	movq   $0x0,-0x3d8(%rbp)
   10394:	00 00 00 00 
   10398:	48 8d 85 d0 ea ff ff 	lea    -0x1530(%rbp),%rax
   1039f:	48 89 85 30 fc ff ff 	mov    %rax,-0x3d0(%rbp)
   103a6:	48 c7 85 38 fc ff ff 	movq   $0x0,-0x3c8(%rbp)
   103ad:	00 00 00 00 
   103b1:	48 8d 05 e8 38 01 00 	lea    0x138e8(%rip),%rax        # 23ca0 <g_1987>
   103b8:	48 89 85 40 fc ff ff 	mov    %rax,-0x3c0(%rbp)
   103bf:	48 8d 85 d0 ea ff ff 	lea    -0x1530(%rbp),%rax
   103c6:	48 89 85 48 fc ff ff 	mov    %rax,-0x3b8(%rbp)
   103cd:	48 8d 85 d0 ea ff ff 	lea    -0x1530(%rbp),%rax
   103d4:	48 89 85 50 fc ff ff 	mov    %rax,-0x3b0(%rbp)
   103db:	48 c7 85 58 fc ff ff 	movq   $0x0,-0x3a8(%rbp)
   103e2:	00 00 00 00 
   103e6:	48 c7 85 60 fc ff ff 	movq   $0x0,-0x3a0(%rbp)
   103ed:	00 00 00 00 
   103f1:	48 8d 85 d0 ea ff ff 	lea    -0x1530(%rbp),%rax
   103f8:	48 89 85 68 fc ff ff 	mov    %rax,-0x398(%rbp)
   103ff:	48 8d 05 9a 38 01 00 	lea    0x1389a(%rip),%rax        # 23ca0 <g_1987>
   10406:	48 89 85 70 fc ff ff 	mov    %rax,-0x390(%rbp)
   1040d:	48 8d 05 8c 38 01 00 	lea    0x1388c(%rip),%rax        # 23ca0 <g_1987>
   10414:	48 89 85 78 fc ff ff 	mov    %rax,-0x388(%rbp)
   1041b:	48 8d 05 7e 38 01 00 	lea    0x1387e(%rip),%rax        # 23ca0 <g_1987>
   10422:	48 89 85 80 fc ff ff 	mov    %rax,-0x380(%rbp)
   10429:	48 c7 85 88 fc ff ff 	movq   $0x0,-0x378(%rbp)
   10430:	00 00 00 00 
   10434:	48 8d 85 d0 ea ff ff 	lea    -0x1530(%rbp),%rax
   1043b:	48 89 85 90 fc ff ff 	mov    %rax,-0x370(%rbp)
   10442:	48 8d 05 57 38 01 00 	lea    0x13857(%rip),%rax        # 23ca0 <g_1987>
   10449:	48 89 85 98 fc ff ff 	mov    %rax,-0x368(%rbp)
   10450:	48 8d 05 49 38 01 00 	lea    0x13849(%rip),%rax        # 23ca0 <g_1987>
   10457:	48 89 85 a0 fc ff ff 	mov    %rax,-0x360(%rbp)
   1045e:	48 8d 05 3b 38 01 00 	lea    0x1383b(%rip),%rax        # 23ca0 <g_1987>
   10465:	48 89 85 a8 fc ff ff 	mov    %rax,-0x358(%rbp)
   1046c:	48 8d 85 d0 ea ff ff 	lea    -0x1530(%rbp),%rax
   10473:	48 89 85 b0 fc ff ff 	mov    %rax,-0x350(%rbp)
   1047a:	48 8d 05 1f 38 01 00 	lea    0x1381f(%rip),%rax        # 23ca0 <g_1987>
   10481:	48 89 85 b8 fc ff ff 	mov    %rax,-0x348(%rbp)
   10488:	48 8d 85 d0 ea ff ff 	lea    -0x1530(%rbp),%rax
   1048f:	48 89 85 c0 fc ff ff 	mov    %rax,-0x340(%rbp)
   10496:	48 8d 85 d0 ea ff ff 	lea    -0x1530(%rbp),%rax
   1049d:	48 89 85 c8 fc ff ff 	mov    %rax,-0x338(%rbp)
   104a4:	48 8d 05 f5 37 01 00 	lea    0x137f5(%rip),%rax        # 23ca0 <g_1987>
   104ab:	48 89 85 d0 fc ff ff 	mov    %rax,-0x330(%rbp)
   104b2:	48 8d 05 e7 37 01 00 	lea    0x137e7(%rip),%rax        # 23ca0 <g_1987>
   104b9:	48 89 85 d8 fc ff ff 	mov    %rax,-0x328(%rbp)
   104c0:	48 c7 85 e0 fc ff ff 	movq   $0x0,-0x320(%rbp)
   104c7:	00 00 00 00 
   104cb:	48 8d 85 d0 ea ff ff 	lea    -0x1530(%rbp),%rax
   104d2:	48 89 85 e8 fc ff ff 	mov    %rax,-0x318(%rbp)
   104d9:	48 8d 85 d0 ea ff ff 	lea    -0x1530(%rbp),%rax
   104e0:	48 89 85 f0 fc ff ff 	mov    %rax,-0x310(%rbp)
   104e7:	48 8d 85 d0 ea ff ff 	lea    -0x1530(%rbp),%rax
   104ee:	48 89 85 f8 fc ff ff 	mov    %rax,-0x308(%rbp)
   104f5:	48 c7 85 00 fd ff ff 	movq   $0x0,-0x300(%rbp)
   104fc:	00 00 00 00 
   10500:	48 8d 05 99 37 01 00 	lea    0x13799(%rip),%rax        # 23ca0 <g_1987>
   10507:	48 89 85 08 fd ff ff 	mov    %rax,-0x2f8(%rbp)
   1050e:	48 8d 05 8b 37 01 00 	lea    0x1378b(%rip),%rax        # 23ca0 <g_1987>
   10515:	48 89 85 10 fd ff ff 	mov    %rax,-0x2f0(%rbp)
   1051c:	48 8d 05 7d 37 01 00 	lea    0x1377d(%rip),%rax        # 23ca0 <g_1987>
   10523:	48 89 85 18 fd ff ff 	mov    %rax,-0x2e8(%rbp)
   1052a:	48 8d 85 d0 ea ff ff 	lea    -0x1530(%rbp),%rax
   10531:	48 89 85 20 fd ff ff 	mov    %rax,-0x2e0(%rbp)
   10538:	48 8d 05 61 37 01 00 	lea    0x13761(%rip),%rax        # 23ca0 <g_1987>
   1053f:	48 89 85 28 fd ff ff 	mov    %rax,-0x2d8(%rbp)
   10546:	48 8d 85 d0 ea ff ff 	lea    -0x1530(%rbp),%rax
   1054d:	48 89 85 30 fd ff ff 	mov    %rax,-0x2d0(%rbp)
   10554:	48 8d 85 d0 ea ff ff 	lea    -0x1530(%rbp),%rax
   1055b:	48 89 85 38 fd ff ff 	mov    %rax,-0x2c8(%rbp)
   10562:	48 8d 05 37 37 01 00 	lea    0x13737(%rip),%rax        # 23ca0 <g_1987>
   10569:	48 89 85 40 fd ff ff 	mov    %rax,-0x2c0(%rbp)
   10570:	48 8d 85 d0 ea ff ff 	lea    -0x1530(%rbp),%rax
   10577:	48 89 85 48 fd ff ff 	mov    %rax,-0x2b8(%rbp)
   1057e:	48 8d 05 1b 37 01 00 	lea    0x1371b(%rip),%rax        # 23ca0 <g_1987>
   10585:	48 89 85 50 fd ff ff 	mov    %rax,-0x2b0(%rbp)
   1058c:	48 8d 85 d0 ea ff ff 	lea    -0x1530(%rbp),%rax
   10593:	48 89 85 58 fd ff ff 	mov    %rax,-0x2a8(%rbp)
   1059a:	48 c7 85 60 fd ff ff 	movq   $0x0,-0x2a0(%rbp)
   105a1:	00 00 00 00 
   105a5:	48 8d 05 f4 36 01 00 	lea    0x136f4(%rip),%rax        # 23ca0 <g_1987>
   105ac:	48 89 85 68 fd ff ff 	mov    %rax,-0x298(%rbp)
   105b3:	48 8d 85 d0 ea ff ff 	lea    -0x1530(%rbp),%rax
   105ba:	48 89 85 70 fd ff ff 	mov    %rax,-0x290(%rbp)
   105c1:	48 8d 05 d8 36 01 00 	lea    0x136d8(%rip),%rax        # 23ca0 <g_1987>
   105c8:	48 89 85 78 fd ff ff 	mov    %rax,-0x288(%rbp)
   105cf:	48 8d 05 ca 36 01 00 	lea    0x136ca(%rip),%rax        # 23ca0 <g_1987>
   105d6:	48 89 85 80 fd ff ff 	mov    %rax,-0x280(%rbp)
   105dd:	48 8d 05 bc 36 01 00 	lea    0x136bc(%rip),%rax        # 23ca0 <g_1987>
   105e4:	48 89 85 88 fd ff ff 	mov    %rax,-0x278(%rbp)
   105eb:	48 8d 85 d0 ea ff ff 	lea    -0x1530(%rbp),%rax
   105f2:	48 89 85 90 fd ff ff 	mov    %rax,-0x270(%rbp)
   105f9:	48 8d 05 a0 36 01 00 	lea    0x136a0(%rip),%rax        # 23ca0 <g_1987>
   10600:	48 89 85 98 fd ff ff 	mov    %rax,-0x268(%rbp)
   10607:	48 8d 05 92 36 01 00 	lea    0x13692(%rip),%rax        # 23ca0 <g_1987>
   1060e:	48 89 85 a0 fd ff ff 	mov    %rax,-0x260(%rbp)
   10615:	48 8d 85 d0 ea ff ff 	lea    -0x1530(%rbp),%rax
   1061c:	48 89 85 a8 fd ff ff 	mov    %rax,-0x258(%rbp)
   10623:	48 8d 85 d0 ea ff ff 	lea    -0x1530(%rbp),%rax
   1062a:	48 89 85 b0 fd ff ff 	mov    %rax,-0x250(%rbp)
   10631:	48 8d 85 d0 ea ff ff 	lea    -0x1530(%rbp),%rax
   10638:	48 89 85 b8 fd ff ff 	mov    %rax,-0x248(%rbp)
   1063f:	48 c7 85 c0 fd ff ff 	movq   $0x0,-0x240(%rbp)
   10646:	00 00 00 00 
   1064a:	48 8d 05 4f 36 01 00 	lea    0x1364f(%rip),%rax        # 23ca0 <g_1987>
   10651:	48 89 85 c8 fd ff ff 	mov    %rax,-0x238(%rbp)
   10658:	48 c7 85 d0 fd ff ff 	movq   $0x0,-0x230(%rbp)
   1065f:	00 00 00 00 
   10663:	48 8d 05 36 36 01 00 	lea    0x13636(%rip),%rax        # 23ca0 <g_1987>
   1066a:	48 89 85 d8 fd ff ff 	mov    %rax,-0x228(%rbp)
   10671:	48 8d 85 d0 ea ff ff 	lea    -0x1530(%rbp),%rax
   10678:	48 89 85 e0 fd ff ff 	mov    %rax,-0x220(%rbp)
   1067f:	48 8d 85 d0 ea ff ff 	lea    -0x1530(%rbp),%rax
   10686:	48 89 85 e8 fd ff ff 	mov    %rax,-0x218(%rbp)
   1068d:	48 c7 85 f0 fd ff ff 	movq   $0x0,-0x210(%rbp)
   10694:	00 00 00 00 
   10698:	48 c7 85 f8 fd ff ff 	movq   $0x0,-0x208(%rbp)
   1069f:	00 00 00 00 
   106a3:	48 8d 05 f6 35 01 00 	lea    0x135f6(%rip),%rax        # 23ca0 <g_1987>
   106aa:	48 89 85 00 fe ff ff 	mov    %rax,-0x200(%rbp)
   106b1:	48 8d 05 e8 35 01 00 	lea    0x135e8(%rip),%rax        # 23ca0 <g_1987>
   106b8:	48 89 85 08 fe ff ff 	mov    %rax,-0x1f8(%rbp)
   106bf:	48 8d 05 da 35 01 00 	lea    0x135da(%rip),%rax        # 23ca0 <g_1987>
   106c6:	48 89 85 10 fe ff ff 	mov    %rax,-0x1f0(%rbp)
   106cd:	48 8d 85 d0 ea ff ff 	lea    -0x1530(%rbp),%rax
   106d4:	48 89 85 18 fe ff ff 	mov    %rax,-0x1e8(%rbp)
   106db:	48 c7 85 20 fe ff ff 	movq   $0x0,-0x1e0(%rbp)
   106e2:	00 00 00 00 
   106e6:	48 c7 85 28 fe ff ff 	movq   $0x0,-0x1d8(%rbp)
   106ed:	00 00 00 00 
   106f1:	48 8d 05 a8 35 01 00 	lea    0x135a8(%rip),%rax        # 23ca0 <g_1987>
   106f8:	48 89 85 30 fe ff ff 	mov    %rax,-0x1d0(%rbp)
   106ff:	48 8d 05 9a 35 01 00 	lea    0x1359a(%rip),%rax        # 23ca0 <g_1987>
   10706:	48 89 85 38 fe ff ff 	mov    %rax,-0x1c8(%rbp)
   1070d:	48 c7 85 40 fe ff ff 	movq   $0x0,-0x1c0(%rbp)
   10714:	00 00 00 00 
   10718:	48 8d 85 d0 ea ff ff 	lea    -0x1530(%rbp),%rax
   1071f:	48 89 85 48 fe ff ff 	mov    %rax,-0x1b8(%rbp)
   10726:	48 8d 85 d0 ea ff ff 	lea    -0x1530(%rbp),%rax
   1072d:	48 89 85 50 fe ff ff 	mov    %rax,-0x1b0(%rbp)
   10734:	48 8d 05 65 35 01 00 	lea    0x13565(%rip),%rax        # 23ca0 <g_1987>
   1073b:	48 89 85 58 fe ff ff 	mov    %rax,-0x1a8(%rbp)
   10742:	48 8d 05 57 35 01 00 	lea    0x13557(%rip),%rax        # 23ca0 <g_1987>
   10749:	48 89 85 60 fe ff ff 	mov    %rax,-0x1a0(%rbp)
   10750:	48 8d 05 49 35 01 00 	lea    0x13549(%rip),%rax        # 23ca0 <g_1987>
   10757:	48 89 85 68 fe ff ff 	mov    %rax,-0x198(%rbp)
   1075e:	48 8d 05 3b 35 01 00 	lea    0x1353b(%rip),%rax        # 23ca0 <g_1987>
   10765:	48 89 85 70 fe ff ff 	mov    %rax,-0x190(%rbp)
   1076c:	48 8d 05 2d 35 01 00 	lea    0x1352d(%rip),%rax        # 23ca0 <g_1987>
   10773:	48 89 85 78 fe ff ff 	mov    %rax,-0x188(%rbp)
   1077a:	48 8d 85 d0 ea ff ff 	lea    -0x1530(%rbp),%rax
   10781:	48 89 85 80 fe ff ff 	mov    %rax,-0x180(%rbp)
   10788:	48 8d 85 d0 ea ff ff 	lea    -0x1530(%rbp),%rax
   1078f:	48 89 85 88 fe ff ff 	mov    %rax,-0x178(%rbp)
   10796:	48 8d 85 d0 ea ff ff 	lea    -0x1530(%rbp),%rax
   1079d:	48 89 85 90 fe ff ff 	mov    %rax,-0x170(%rbp)
   107a4:	48 8d 05 f5 34 01 00 	lea    0x134f5(%rip),%rax        # 23ca0 <g_1987>
   107ab:	48 89 85 98 fe ff ff 	mov    %rax,-0x168(%rbp)
   107b2:	48 8d 85 d0 ea ff ff 	lea    -0x1530(%rbp),%rax
   107b9:	48 89 85 a0 fe ff ff 	mov    %rax,-0x160(%rbp)
   107c0:	48 8d 05 d9 34 01 00 	lea    0x134d9(%rip),%rax        # 23ca0 <g_1987>
   107c7:	48 89 85 a8 fe ff ff 	mov    %rax,-0x158(%rbp)
   107ce:	48 8d 85 d0 ea ff ff 	lea    -0x1530(%rbp),%rax
   107d5:	48 89 85 b0 fe ff ff 	mov    %rax,-0x150(%rbp)
   107dc:	48 8d 05 bd 34 01 00 	lea    0x134bd(%rip),%rax        # 23ca0 <g_1987>
   107e3:	48 89 85 b8 fe ff ff 	mov    %rax,-0x148(%rbp)
   107ea:	48 8d 05 af 34 01 00 	lea    0x134af(%rip),%rax        # 23ca0 <g_1987>
   107f1:	48 89 85 c0 fe ff ff 	mov    %rax,-0x140(%rbp)
   107f8:	48 8d 85 d0 ea ff ff 	lea    -0x1530(%rbp),%rax
   107ff:	48 89 85 c8 fe ff ff 	mov    %rax,-0x138(%rbp)
   10806:	48 8d 85 d0 ea ff ff 	lea    -0x1530(%rbp),%rax
   1080d:	48 89 85 d0 fe ff ff 	mov    %rax,-0x130(%rbp)
   10814:	48 8d 85 d0 ea ff ff 	lea    -0x1530(%rbp),%rax
   1081b:	48 89 85 d8 fe ff ff 	mov    %rax,-0x128(%rbp)
   10822:	48 8d 05 77 34 01 00 	lea    0x13477(%rip),%rax        # 23ca0 <g_1987>
   10829:	48 89 85 e0 fe ff ff 	mov    %rax,-0x120(%rbp)
   10830:	48 8d 85 d0 ea ff ff 	lea    -0x1530(%rbp),%rax
   10837:	48 89 85 e8 fe ff ff 	mov    %rax,-0x118(%rbp)
   1083e:	48 8d 05 5b 34 01 00 	lea    0x1345b(%rip),%rax        # 23ca0 <g_1987>
   10845:	48 89 85 f0 fe ff ff 	mov    %rax,-0x110(%rbp)
   1084c:	48 8d 85 d0 ea ff ff 	lea    -0x1530(%rbp),%rax
   10853:	48 89 85 f8 fe ff ff 	mov    %rax,-0x108(%rbp)
   1085a:	48 8d 85 d0 ea ff ff 	lea    -0x1530(%rbp),%rax
   10861:	48 89 85 00 ff ff ff 	mov    %rax,-0x100(%rbp)
   10868:	48 8d 85 d0 ea ff ff 	lea    -0x1530(%rbp),%rax
   1086f:	48 89 85 08 ff ff ff 	mov    %rax,-0xf8(%rbp)
   10876:	48 8d 05 23 34 01 00 	lea    0x13423(%rip),%rax        # 23ca0 <g_1987>
   1087d:	48 89 85 10 ff ff ff 	mov    %rax,-0xf0(%rbp)
   10884:	48 8d 05 15 34 01 00 	lea    0x13415(%rip),%rax        # 23ca0 <g_1987>
   1088b:	48 89 85 18 ff ff ff 	mov    %rax,-0xe8(%rbp)
   10892:	48 8d 05 07 34 01 00 	lea    0x13407(%rip),%rax        # 23ca0 <g_1987>
   10899:	48 89 85 20 ff ff ff 	mov    %rax,-0xe0(%rbp)
   108a0:	48 8d 85 d0 ea ff ff 	lea    -0x1530(%rbp),%rax
   108a7:	48 89 85 28 ff ff ff 	mov    %rax,-0xd8(%rbp)
   108ae:	48 8d 05 eb 33 01 00 	lea    0x133eb(%rip),%rax        # 23ca0 <g_1987>
   108b5:	48 89 85 30 ff ff ff 	mov    %rax,-0xd0(%rbp)
   108bc:	48 8d 85 d0 ea ff ff 	lea    -0x1530(%rbp),%rax
   108c3:	48 89 85 38 ff ff ff 	mov    %rax,-0xc8(%rbp)
   108ca:	48 8d 85 d0 ea ff ff 	lea    -0x1530(%rbp),%rax
   108d1:	48 89 85 40 ff ff ff 	mov    %rax,-0xc0(%rbp)
   108d8:	48 8d 85 d0 ea ff ff 	lea    -0x1530(%rbp),%rax
   108df:	48 89 85 48 ff ff ff 	mov    %rax,-0xb8(%rbp)
   108e6:	48 c7 85 50 ff ff ff 	movq   $0x0,-0xb0(%rbp)
   108ed:	00 00 00 00 
   108f1:	48 8d 05 a8 33 01 00 	lea    0x133a8(%rip),%rax        # 23ca0 <g_1987>
   108f8:	48 89 85 58 ff ff ff 	mov    %rax,-0xa8(%rbp)
   108ff:	48 8d 85 d0 ea ff ff 	lea    -0x1530(%rbp),%rax
   10906:	48 89 85 60 ff ff ff 	mov    %rax,-0xa0(%rbp)
   1090d:	48 8d 85 d0 ea ff ff 	lea    -0x1530(%rbp),%rax
   10914:	48 89 85 68 ff ff ff 	mov    %rax,-0x98(%rbp)
   1091b:	48 8d 85 d0 ea ff ff 	lea    -0x1530(%rbp),%rax
   10922:	48 89 85 70 ff ff ff 	mov    %rax,-0x90(%rbp)
   10929:	48 8d 85 d0 ea ff ff 	lea    -0x1530(%rbp),%rax
   10930:	48 89 85 78 ff ff ff 	mov    %rax,-0x88(%rbp)
   10937:	48 8d 05 62 33 01 00 	lea    0x13362(%rip),%rax        # 23ca0 <g_1987>
   1093e:	48 89 45 80          	mov    %rax,-0x80(%rbp)
   10942:	48 8d 05 57 33 01 00 	lea    0x13357(%rip),%rax        # 23ca0 <g_1987>
   10949:	48 89 45 88          	mov    %rax,-0x78(%rbp)
   1094d:	48 8d 05 4c 33 01 00 	lea    0x1334c(%rip),%rax        # 23ca0 <g_1987>
   10954:	48 89 45 90          	mov    %rax,-0x70(%rbp)
   10958:	48 8d 05 41 33 01 00 	lea    0x13341(%rip),%rax        # 23ca0 <g_1987>
   1095f:	48 89 45 98          	mov    %rax,-0x68(%rbp)
   10963:	48 8d 85 d0 ea ff ff 	lea    -0x1530(%rbp),%rax
   1096a:	48 89 45 a0          	mov    %rax,-0x60(%rbp)
   1096e:	48 c7 45 a8 00 00 00 	movq   $0x0,-0x58(%rbp)
   10975:	00 
   10976:	48 8d 85 d0 ea ff ff 	lea    -0x1530(%rbp),%rax
   1097d:	48 89 45 b0          	mov    %rax,-0x50(%rbp)
   10981:	48 8d 85 d0 ea ff ff 	lea    -0x1530(%rbp),%rax
   10988:	48 89 45 b8          	mov    %rax,-0x48(%rbp)
   1098c:	48 8d 85 30 f9 ff ff 	lea    -0x6d0(%rbp),%rax
   10993:	48 05 30 04 00 00    	add    $0x430,%rax
   10999:	48 89 85 08 eb ff ff 	mov    %rax,-0x14f8(%rbp)
   109a0:	48 8d 85 08 eb ff ff 	lea    -0x14f8(%rbp),%rax
   109a7:	48 89 85 80 eb ff ff 	mov    %rax,-0x1480(%rbp)
   109ae:	48 8d 85 78 ea ff ff 	lea    -0x1588(%rbp),%rax
   109b5:	48 89 85 40 f0 ff ff 	mov    %rax,-0xfc0(%rbp)
   109bc:	48 8d 85 78 ea ff ff 	lea    -0x1588(%rbp),%rax
   109c3:	48 89 85 48 f0 ff ff 	mov    %rax,-0xfb8(%rbp)
   109ca:	48 8d 85 78 ea ff ff 	lea    -0x1588(%rbp),%rax
   109d1:	48 89 85 50 f0 ff ff 	mov    %rax,-0xfb0(%rbp)
   109d8:	48 8d 85 78 ea ff ff 	lea    -0x1588(%rbp),%rax
   109df:	48 89 85 58 f0 ff ff 	mov    %rax,-0xfa8(%rbp)
   109e6:	48 8d 85 78 ea ff ff 	lea    -0x1588(%rbp),%rax
   109ed:	48 89 85 60 f0 ff ff 	mov    %rax,-0xfa0(%rbp)
   109f4:	48 8d 85 78 ea ff ff 	lea    -0x1588(%rbp),%rax
   109fb:	48 89 85 68 f0 ff ff 	mov    %rax,-0xf98(%rbp)
   10a02:	48 8d 85 78 ea ff ff 	lea    -0x1588(%rbp),%rax
   10a09:	48 89 85 70 f0 ff ff 	mov    %rax,-0xf90(%rbp)
   10a10:	48 8d 85 78 ea ff ff 	lea    -0x1588(%rbp),%rax
   10a17:	48 89 85 78 f0 ff ff 	mov    %rax,-0xf88(%rbp)
   10a1e:	48 8d 85 78 ea ff ff 	lea    -0x1588(%rbp),%rax
   10a25:	48 89 85 80 f0 ff ff 	mov    %rax,-0xf80(%rbp)
   10a2c:	48 8d 85 78 ea ff ff 	lea    -0x1588(%rbp),%rax
   10a33:	48 89 85 88 f0 ff ff 	mov    %rax,-0xf78(%rbp)
   10a3a:	48 8d 85 78 ea ff ff 	lea    -0x1588(%rbp),%rax
   10a41:	48 89 85 90 f0 ff ff 	mov    %rax,-0xf70(%rbp)
   10a48:	48 8d 85 78 ea ff ff 	lea    -0x1588(%rbp),%rax
   10a4f:	48 89 85 98 f0 ff ff 	mov    %rax,-0xf68(%rbp)
   10a56:	48 8d 85 78 ea ff ff 	lea    -0x1588(%rbp),%rax
   10a5d:	48 89 85 a0 f0 ff ff 	mov    %rax,-0xf60(%rbp)
   10a64:	48 8d 85 78 ea ff ff 	lea    -0x1588(%rbp),%rax
   10a6b:	48 89 85 a8 f0 ff ff 	mov    %rax,-0xf58(%rbp)
   10a72:	48 8d 85 78 ea ff ff 	lea    -0x1588(%rbp),%rax
   10a79:	48 89 85 b0 f0 ff ff 	mov    %rax,-0xf50(%rbp)
   10a80:	48 8d 85 78 ea ff ff 	lea    -0x1588(%rbp),%rax
   10a87:	48 89 85 b8 f0 ff ff 	mov    %rax,-0xf48(%rbp)
   10a8e:	48 8d 85 78 ea ff ff 	lea    -0x1588(%rbp),%rax
   10a95:	48 89 85 c0 f0 ff ff 	mov    %rax,-0xf40(%rbp)
   10a9c:	48 8d 85 78 ea ff ff 	lea    -0x1588(%rbp),%rax
   10aa3:	48 89 85 c8 f0 ff ff 	mov    %rax,-0xf38(%rbp)
   10aaa:	48 8d 85 78 ea ff ff 	lea    -0x1588(%rbp),%rax
   10ab1:	48 89 85 d0 f0 ff ff 	mov    %rax,-0xf30(%rbp)
   10ab8:	48 8d 85 78 ea ff ff 	lea    -0x1588(%rbp),%rax
   10abf:	48 89 85 d8 f0 ff ff 	mov    %rax,-0xf28(%rbp)
   10ac6:	48 8d 85 78 ea ff ff 	lea    -0x1588(%rbp),%rax
   10acd:	48 89 85 e0 f0 ff ff 	mov    %rax,-0xf20(%rbp)
   10ad4:	48 8d 85 78 ea ff ff 	lea    -0x1588(%rbp),%rax
   10adb:	48 89 85 e8 f0 ff ff 	mov    %rax,-0xf18(%rbp)
   10ae2:	48 8d 85 78 ea ff ff 	lea    -0x1588(%rbp),%rax
   10ae9:	48 89 85 f0 f0 ff ff 	mov    %rax,-0xf10(%rbp)
   10af0:	48 8d 85 78 ea ff ff 	lea    -0x1588(%rbp),%rax
   10af7:	48 89 85 f8 f0 ff ff 	mov    %rax,-0xf08(%rbp)
   10afe:	48 8d 85 78 ea ff ff 	lea    -0x1588(%rbp),%rax
   10b05:	48 89 85 00 f1 ff ff 	mov    %rax,-0xf00(%rbp)
   10b0c:	48 8d 85 78 ea ff ff 	lea    -0x1588(%rbp),%rax
   10b13:	48 89 85 08 f1 ff ff 	mov    %rax,-0xef8(%rbp)
   10b1a:	48 8d 85 78 ea ff ff 	lea    -0x1588(%rbp),%rax
   10b21:	48 89 85 10 f1 ff ff 	mov    %rax,-0xef0(%rbp)
   10b28:	48 8d 85 78 ea ff ff 	lea    -0x1588(%rbp),%rax
   10b2f:	48 89 85 18 f1 ff ff 	mov    %rax,-0xee8(%rbp)
   10b36:	48 8d 85 78 ea ff ff 	lea    -0x1588(%rbp),%rax
   10b3d:	48 89 85 20 f1 ff ff 	mov    %rax,-0xee0(%rbp)
   10b44:	48 8d 85 78 ea ff ff 	lea    -0x1588(%rbp),%rax
   10b4b:	48 89 85 28 f1 ff ff 	mov    %rax,-0xed8(%rbp)
   10b52:	48 8d 85 78 ea ff ff 	lea    -0x1588(%rbp),%rax
   10b59:	48 89 85 30 f1 ff ff 	mov    %rax,-0xed0(%rbp)
   10b60:	48 8d 85 78 ea ff ff 	lea    -0x1588(%rbp),%rax
   10b67:	48 89 85 38 f1 ff ff 	mov    %rax,-0xec8(%rbp)
   10b6e:	48 8d 85 78 ea ff ff 	lea    -0x1588(%rbp),%rax
   10b75:	48 89 85 40 f1 ff ff 	mov    %rax,-0xec0(%rbp)
   10b7c:	48 8d 85 78 ea ff ff 	lea    -0x1588(%rbp),%rax
   10b83:	48 89 85 48 f1 ff ff 	mov    %rax,-0xeb8(%rbp)
   10b8a:	48 8d 85 78 ea ff ff 	lea    -0x1588(%rbp),%rax
   10b91:	48 89 85 50 f1 ff ff 	mov    %rax,-0xeb0(%rbp)
   10b98:	48 8d 85 78 ea ff ff 	lea    -0x1588(%rbp),%rax
   10b9f:	48 89 85 58 f1 ff ff 	mov    %rax,-0xea8(%rbp)
   10ba6:	48 8d 85 78 ea ff ff 	lea    -0x1588(%rbp),%rax
   10bad:	48 89 85 60 f1 ff ff 	mov    %rax,-0xea0(%rbp)
   10bb4:	48 8d 85 78 ea ff ff 	lea    -0x1588(%rbp),%rax
   10bbb:	48 89 85 68 f1 ff ff 	mov    %rax,-0xe98(%rbp)
   10bc2:	48 8d 85 78 ea ff ff 	lea    -0x1588(%rbp),%rax
   10bc9:	48 89 85 70 f1 ff ff 	mov    %rax,-0xe90(%rbp)
   10bd0:	48 8d 85 78 ea ff ff 	lea    -0x1588(%rbp),%rax
   10bd7:	48 89 85 78 f1 ff ff 	mov    %rax,-0xe88(%rbp)
   10bde:	48 8d 85 78 ea ff ff 	lea    -0x1588(%rbp),%rax
   10be5:	48 89 85 80 f1 ff ff 	mov    %rax,-0xe80(%rbp)
   10bec:	48 8d 85 78 ea ff ff 	lea    -0x1588(%rbp),%rax
   10bf3:	48 89 85 88 f1 ff ff 	mov    %rax,-0xe78(%rbp)
   10bfa:	48 8d 85 78 ea ff ff 	lea    -0x1588(%rbp),%rax
   10c01:	48 89 85 90 f1 ff ff 	mov    %rax,-0xe70(%rbp)
   10c08:	48 8d 85 78 ea ff ff 	lea    -0x1588(%rbp),%rax
   10c0f:	48 89 85 98 f1 ff ff 	mov    %rax,-0xe68(%rbp)
   10c16:	48 8d 85 78 ea ff ff 	lea    -0x1588(%rbp),%rax
   10c1d:	48 89 85 a0 f1 ff ff 	mov    %rax,-0xe60(%rbp)
   10c24:	48 8d 85 78 ea ff ff 	lea    -0x1588(%rbp),%rax
   10c2b:	48 89 85 a8 f1 ff ff 	mov    %rax,-0xe58(%rbp)
   10c32:	48 8d 85 78 ea ff ff 	lea    -0x1588(%rbp),%rax
   10c39:	48 89 85 b0 f1 ff ff 	mov    %rax,-0xe50(%rbp)
   10c40:	48 8d 85 78 ea ff ff 	lea    -0x1588(%rbp),%rax
   10c47:	48 89 85 b8 f1 ff ff 	mov    %rax,-0xe48(%rbp)
   10c4e:	48 8d 85 78 ea ff ff 	lea    -0x1588(%rbp),%rax
   10c55:	48 89 85 c0 f1 ff ff 	mov    %rax,-0xe40(%rbp)
   10c5c:	48 8d 85 78 ea ff ff 	lea    -0x1588(%rbp),%rax
   10c63:	48 89 85 c8 f1 ff ff 	mov    %rax,-0xe38(%rbp)
   10c6a:	48 8d 85 78 ea ff ff 	lea    -0x1588(%rbp),%rax
   10c71:	48 89 85 d0 f1 ff ff 	mov    %rax,-0xe30(%rbp)
   10c78:	48 8d 85 78 ea ff ff 	lea    -0x1588(%rbp),%rax
   10c7f:	48 89 85 d8 f1 ff ff 	mov    %rax,-0xe28(%rbp)
   10c86:	48 8d 85 78 ea ff ff 	lea    -0x1588(%rbp),%rax
   10c8d:	48 89 85 e0 f1 ff ff 	mov    %rax,-0xe20(%rbp)
   10c94:	48 8d 85 78 ea ff ff 	lea    -0x1588(%rbp),%rax
   10c9b:	48 89 85 e8 f1 ff ff 	mov    %rax,-0xe18(%rbp)
   10ca2:	48 8d 05 cf 04 01 00 	lea    0x104cf(%rip),%rax        # 21178 <g_112>
   10ca9:	48 89 85 88 eb ff ff 	mov    %rax,-0x1478(%rbp)
   10cb0:	48 8d 05 89 03 01 00 	lea    0x10389(%rip),%rax        # 21040 <g_59>
   10cb7:	48 89 85 90 eb ff ff 	mov    %rax,-0x1470(%rbp)
   10cbe:	c7 85 d4 e9 ff ff f7 	movl   $0xfffffff7,-0x162c(%rbp)
   10cc5:	ff ff ff 
   10cc8:	48 b8 cd 90 07 35 34 	movabs $0xfb86a834350790cd,%rax
   10ccf:	a8 86 fb 
   10cd2:	48 89 85 98 eb ff ff 	mov    %rax,-0x1468(%rbp)
   10cd9:	c6 85 73 e9 ff ff 9c 	movb   $0x9c,-0x168d(%rbp)
   10ce0:	48 8d 05 79 39 01 00 	lea    0x13979(%rip),%rax        # 24660 <g_309>
   10ce7:	48 89 85 a0 eb ff ff 	mov    %rax,-0x1460(%rbp)
   10cee:	48 8d 85 88 ea ff ff 	lea    -0x1578(%rbp),%rax
   10cf5:	48 89 85 a8 eb ff ff 	mov    %rax,-0x1458(%rbp)
   10cfc:	48 c7 85 b0 eb ff ff 	movq   $0x0,-0x1450(%rbp)
   10d03:	00 00 00 00 
   10d07:	48 8d 85 8c e9 ff ff 	lea    -0x1674(%rbp),%rax
   10d0e:	48 89 85 b0 ee ff ff 	mov    %rax,-0x1150(%rbp)
   10d15:	48 8d 85 8c e9 ff ff 	lea    -0x1674(%rbp),%rax
   10d1c:	48 89 85 b8 ee ff ff 	mov    %rax,-0x1148(%rbp)
   10d23:	48 8d 85 84 e9 ff ff 	lea    -0x167c(%rbp),%rax
   10d2a:	48 89 85 c0 ee ff ff 	mov    %rax,-0x1140(%rbp)
   10d31:	48 8d 85 8c e9 ff ff 	lea    -0x1674(%rbp),%rax
   10d38:	48 89 85 c8 ee ff ff 	mov    %rax,-0x1138(%rbp)
   10d3f:	48 8d 85 8c e9 ff ff 	lea    -0x1674(%rbp),%rax
   10d46:	48 89 85 d0 ee ff ff 	mov    %rax,-0x1130(%rbp)
   10d4d:	48 8d 85 84 e9 ff ff 	lea    -0x167c(%rbp),%rax
   10d54:	48 89 85 d8 ee ff ff 	mov    %rax,-0x1128(%rbp)
   10d5b:	48 8d 85 8c e9 ff ff 	lea    -0x1674(%rbp),%rax
   10d62:	48 89 85 e0 ee ff ff 	mov    %rax,-0x1120(%rbp)
   10d69:	48 8d 85 8c e9 ff ff 	lea    -0x1674(%rbp),%rax
   10d70:	48 89 85 e8 ee ff ff 	mov    %rax,-0x1118(%rbp)
   10d77:	48 8d 85 84 e9 ff ff 	lea    -0x167c(%rbp),%rax
   10d7e:	48 89 85 f0 ee ff ff 	mov    %rax,-0x1110(%rbp)
   10d85:	48 8d 85 8c e9 ff ff 	lea    -0x1674(%rbp),%rax
   10d8c:	48 89 85 f8 ee ff ff 	mov    %rax,-0x1108(%rbp)
   10d93:	66 c7 05 0c 39 01 00 	movw   $0x0,0x1390c(%rip)        # 246a8 <g_1351>
   10d9a:	00 00 
   10d9c:	90                   	nop
   10d9d:	0f b7 05 04 39 01 00 	movzwl 0x13904(%rip),%eax        # 246a8 <g_1351>
   10da4:	66 83 f8 06          	cmp    $0x6,%ax
   10da8:	0f 8f 7d 09 00 00    	jg     1172b <func_31+0x498a>
   10dae:	66 c7 85 7a e9 ff ff 	movw   $0x5,-0x1686(%rbp)
   10db5:	05 00 
   10db7:	48 8d 85 f0 f1 ff ff 	lea    -0xe10(%rbp),%rax
   10dbe:	48 8d 15 9b ba 00 00 	lea    0xba9b(%rip),%rdx        # 1c860 <g_2878+0x1800>
   10dc5:	b9 3f 00 00 00       	mov    $0x3f,%ecx
   10dca:	48 89 c7             	mov    %rax,%rdi
   10dcd:	48 89 d6             	mov    %rdx,%rsi
   10dd0:	f3 48 a5             	rep movsq %ds:(%rsi),%es:(%rdi)
   10dd3:	48 8d 85 8c e9 ff ff 	lea    -0x1674(%rbp),%rax
   10dda:	48 89 85 c8 eb ff ff 	mov    %rax,-0x1438(%rbp)
   10de1:	48 8d 05 b0 38 01 00 	lea    0x138b0(%rip),%rax        # 24698 <g_1139+0x18>
   10de8:	48 89 85 d0 eb ff ff 	mov    %rax,-0x1430(%rbp)
   10def:	66 c7 85 7c e9 ff ff 	movw   $0x1,-0x1684(%rbp)
   10df6:	01 00 
   10df8:	c7 85 ec e9 ff ff 07 	movl   $0x7,-0x1614(%rbp)
   10dff:	00 00 00 
   10e02:	48 8b 85 d0 ea ff ff 	mov    -0x1530(%rbp),%rax
   10e09:	48 8d 15 80 2e 01 00 	lea    0x12e80(%rip),%rdx        # 23c90 <g_1988+0x10>
   10e10:	48 39 d0             	cmp    %rdx,%rax
   10e13:	74 0c                	je     10e21 <func_31+0x4080>
   10e15:	48 8d 05 82 03 01 00 	lea    0x10382(%rip),%rax        # 2119e <g_342+0x6>
   10e1c:	e9 ca 0f 00 00       	jmpq   11deb <func_31+0x504a>
   10e21:	48 8d 85 30 ed ff ff 	lea    -0x12d0(%rbp),%rax
   10e28:	48 83 c0 04          	add    $0x4,%rax
   10e2c:	48 89 85 d8 eb ff ff 	mov    %rax,-0x1428(%rbp)
   10e33:	48 8d 05 5e 30 01 00 	lea    0x1305e(%rip),%rax        # 23e98 <g_2358>
   10e3a:	48 89 85 e0 eb ff ff 	mov    %rax,-0x1420(%rbp)
   10e41:	48 8d 85 f0 ea ff ff 	lea    -0x1510(%rbp),%rax
   10e48:	48 89 85 f0 f3 ff ff 	mov    %rax,-0xc10(%rbp)
   10e4f:	48 8d 85 f0 ea ff ff 	lea    -0x1510(%rbp),%rax
   10e56:	48 89 85 f8 f3 ff ff 	mov    %rax,-0xc08(%rbp)
   10e5d:	48 8d 85 f0 ea ff ff 	lea    -0x1510(%rbp),%rax
   10e64:	48 89 85 00 f4 ff ff 	mov    %rax,-0xc00(%rbp)
   10e6b:	48 8d 85 f0 ea ff ff 	lea    -0x1510(%rbp),%rax
   10e72:	48 89 85 08 f4 ff ff 	mov    %rax,-0xbf8(%rbp)
   10e79:	48 8d 85 f0 ea ff ff 	lea    -0x1510(%rbp),%rax
   10e80:	48 89 85 10 f4 ff ff 	mov    %rax,-0xbf0(%rbp)
   10e87:	48 8d 85 f0 ea ff ff 	lea    -0x1510(%rbp),%rax
   10e8e:	48 89 85 18 f4 ff ff 	mov    %rax,-0xbe8(%rbp)
   10e95:	48 8d 85 f0 ea ff ff 	lea    -0x1510(%rbp),%rax
   10e9c:	48 89 85 20 f4 ff ff 	mov    %rax,-0xbe0(%rbp)
   10ea3:	48 8d 85 f0 ea ff ff 	lea    -0x1510(%rbp),%rax
   10eaa:	48 89 85 28 f4 ff ff 	mov    %rax,-0xbd8(%rbp)
   10eb1:	48 8d 85 f0 ea ff ff 	lea    -0x1510(%rbp),%rax
   10eb8:	48 89 85 30 f4 ff ff 	mov    %rax,-0xbd0(%rbp)
   10ebf:	48 8d 85 f0 ea ff ff 	lea    -0x1510(%rbp),%rax
   10ec6:	48 89 85 38 f4 ff ff 	mov    %rax,-0xbc8(%rbp)
   10ecd:	48 8d 85 f0 ea ff ff 	lea    -0x1510(%rbp),%rax
   10ed4:	48 89 85 40 f4 ff ff 	mov    %rax,-0xbc0(%rbp)
   10edb:	48 8d 85 f0 ea ff ff 	lea    -0x1510(%rbp),%rax
   10ee2:	48 89 85 48 f4 ff ff 	mov    %rax,-0xbb8(%rbp)
   10ee9:	48 8d 85 f0 ea ff ff 	lea    -0x1510(%rbp),%rax
   10ef0:	48 89 85 50 f4 ff ff 	mov    %rax,-0xbb0(%rbp)
   10ef7:	48 8d 85 f0 ea ff ff 	lea    -0x1510(%rbp),%rax
   10efe:	48 89 85 58 f4 ff ff 	mov    %rax,-0xba8(%rbp)
   10f05:	48 8d 85 f0 ea ff ff 	lea    -0x1510(%rbp),%rax
   10f0c:	48 89 85 60 f4 ff ff 	mov    %rax,-0xba0(%rbp)
   10f13:	48 8d 85 f0 ea ff ff 	lea    -0x1510(%rbp),%rax
   10f1a:	48 89 85 68 f4 ff ff 	mov    %rax,-0xb98(%rbp)
   10f21:	48 8d 85 f0 ea ff ff 	lea    -0x1510(%rbp),%rax
   10f28:	48 89 85 70 f4 ff ff 	mov    %rax,-0xb90(%rbp)
   10f2f:	48 8d 85 f0 ea ff ff 	lea    -0x1510(%rbp),%rax
   10f36:	48 89 85 78 f4 ff ff 	mov    %rax,-0xb88(%rbp)
   10f3d:	48 8d 85 f0 ea ff ff 	lea    -0x1510(%rbp),%rax
   10f44:	48 89 85 80 f4 ff ff 	mov    %rax,-0xb80(%rbp)
   10f4b:	48 8d 85 f0 ea ff ff 	lea    -0x1510(%rbp),%rax
   10f52:	48 89 85 88 f4 ff ff 	mov    %rax,-0xb78(%rbp)
   10f59:	48 8d 85 f0 ea ff ff 	lea    -0x1510(%rbp),%rax
   10f60:	48 89 85 90 f4 ff ff 	mov    %rax,-0xb70(%rbp)
   10f67:	48 8d 85 f0 ea ff ff 	lea    -0x1510(%rbp),%rax
   10f6e:	48 89 85 98 f4 ff ff 	mov    %rax,-0xb68(%rbp)
   10f75:	48 8d 85 f0 ea ff ff 	lea    -0x1510(%rbp),%rax
   10f7c:	48 89 85 a0 f4 ff ff 	mov    %rax,-0xb60(%rbp)
   10f83:	48 8d 85 f0 ea ff ff 	lea    -0x1510(%rbp),%rax
   10f8a:	48 89 85 a8 f4 ff ff 	mov    %rax,-0xb58(%rbp)
   10f91:	48 8d 85 f0 ea ff ff 	lea    -0x1510(%rbp),%rax
   10f98:	48 89 85 b0 f4 ff ff 	mov    %rax,-0xb50(%rbp)
   10f9f:	48 8d 85 f0 ea ff ff 	lea    -0x1510(%rbp),%rax
   10fa6:	48 89 85 b8 f4 ff ff 	mov    %rax,-0xb48(%rbp)
   10fad:	48 8d 85 f0 ea ff ff 	lea    -0x1510(%rbp),%rax
   10fb4:	48 89 85 c0 f4 ff ff 	mov    %rax,-0xb40(%rbp)
   10fbb:	48 8d 85 f0 ea ff ff 	lea    -0x1510(%rbp),%rax
   10fc2:	48 89 85 c8 f4 ff ff 	mov    %rax,-0xb38(%rbp)
   10fc9:	48 8d 85 f0 ea ff ff 	lea    -0x1510(%rbp),%rax
   10fd0:	48 89 85 d0 f4 ff ff 	mov    %rax,-0xb30(%rbp)
   10fd7:	48 8d 85 f0 ea ff ff 	lea    -0x1510(%rbp),%rax
   10fde:	48 89 85 d8 f4 ff ff 	mov    %rax,-0xb28(%rbp)
   10fe5:	48 8d 85 f0 ea ff ff 	lea    -0x1510(%rbp),%rax
   10fec:	48 89 85 e0 f4 ff ff 	mov    %rax,-0xb20(%rbp)
   10ff3:	48 8d 85 f0 ea ff ff 	lea    -0x1510(%rbp),%rax
   10ffa:	48 89 85 e8 f4 ff ff 	mov    %rax,-0xb18(%rbp)
   11001:	48 8d 85 f0 ea ff ff 	lea    -0x1510(%rbp),%rax
   11008:	48 89 85 f0 f4 ff ff 	mov    %rax,-0xb10(%rbp)
   1100f:	48 8d 85 f0 ea ff ff 	lea    -0x1510(%rbp),%rax
   11016:	48 89 85 f8 f4 ff ff 	mov    %rax,-0xb08(%rbp)
   1101d:	48 8d 85 f0 ea ff ff 	lea    -0x1510(%rbp),%rax
   11024:	48 89 85 00 f5 ff ff 	mov    %rax,-0xb00(%rbp)
   1102b:	48 8d 85 f0 ea ff ff 	lea    -0x1510(%rbp),%rax
   11032:	48 89 85 08 f5 ff ff 	mov    %rax,-0xaf8(%rbp)
   11039:	48 8d 85 f0 ea ff ff 	lea    -0x1510(%rbp),%rax
   11040:	48 89 85 10 f5 ff ff 	mov    %rax,-0xaf0(%rbp)
   11047:	48 8d 85 f0 ea ff ff 	lea    -0x1510(%rbp),%rax
   1104e:	48 89 85 18 f5 ff ff 	mov    %rax,-0xae8(%rbp)
   11055:	48 8d 85 f0 ea ff ff 	lea    -0x1510(%rbp),%rax
   1105c:	48 89 85 20 f5 ff ff 	mov    %rax,-0xae0(%rbp)
   11063:	48 8d 85 f0 ea ff ff 	lea    -0x1510(%rbp),%rax
   1106a:	48 89 85 28 f5 ff ff 	mov    %rax,-0xad8(%rbp)
   11071:	48 8d 85 f0 ea ff ff 	lea    -0x1510(%rbp),%rax
   11078:	48 89 85 30 f5 ff ff 	mov    %rax,-0xad0(%rbp)
   1107f:	48 8d 85 f0 ea ff ff 	lea    -0x1510(%rbp),%rax
   11086:	48 89 85 38 f5 ff ff 	mov    %rax,-0xac8(%rbp)
   1108d:	48 8d 85 f0 ea ff ff 	lea    -0x1510(%rbp),%rax
   11094:	48 89 85 40 f5 ff ff 	mov    %rax,-0xac0(%rbp)
   1109b:	48 8d 85 f0 ea ff ff 	lea    -0x1510(%rbp),%rax
   110a2:	48 89 85 48 f5 ff ff 	mov    %rax,-0xab8(%rbp)
   110a9:	48 8d 85 f0 ea ff ff 	lea    -0x1510(%rbp),%rax
   110b0:	48 89 85 50 f5 ff ff 	mov    %rax,-0xab0(%rbp)
   110b7:	48 8d 85 f0 ea ff ff 	lea    -0x1510(%rbp),%rax
   110be:	48 89 85 58 f5 ff ff 	mov    %rax,-0xaa8(%rbp)
   110c5:	48 8d 85 f0 ea ff ff 	lea    -0x1510(%rbp),%rax
   110cc:	48 89 85 60 f5 ff ff 	mov    %rax,-0xaa0(%rbp)
   110d3:	48 8d 85 f0 ea ff ff 	lea    -0x1510(%rbp),%rax
   110da:	48 89 85 68 f5 ff ff 	mov    %rax,-0xa98(%rbp)
   110e1:	48 8d 85 f0 ea ff ff 	lea    -0x1510(%rbp),%rax
   110e8:	48 89 85 70 f5 ff ff 	mov    %rax,-0xa90(%rbp)
   110ef:	48 8d 85 f0 ea ff ff 	lea    -0x1510(%rbp),%rax
   110f6:	48 89 85 78 f5 ff ff 	mov    %rax,-0xa88(%rbp)
   110fd:	48 8d 85 f0 ea ff ff 	lea    -0x1510(%rbp),%rax
   11104:	48 89 85 80 f5 ff ff 	mov    %rax,-0xa80(%rbp)
   1110b:	48 8d 85 f0 ea ff ff 	lea    -0x1510(%rbp),%rax
   11112:	48 89 85 88 f5 ff ff 	mov    %rax,-0xa78(%rbp)
   11119:	48 8d 85 f0 ea ff ff 	lea    -0x1510(%rbp),%rax
   11120:	48 89 85 90 f5 ff ff 	mov    %rax,-0xa70(%rbp)
   11127:	48 8d 85 f0 ea ff ff 	lea    -0x1510(%rbp),%rax
   1112e:	48 89 85 98 f5 ff ff 	mov    %rax,-0xa68(%rbp)
   11135:	48 8d 85 f0 ea ff ff 	lea    -0x1510(%rbp),%rax
   1113c:	48 89 85 a0 f5 ff ff 	mov    %rax,-0xa60(%rbp)
   11143:	48 8d 85 f0 ea ff ff 	lea    -0x1510(%rbp),%rax
   1114a:	48 89 85 a8 f5 ff ff 	mov    %rax,-0xa58(%rbp)
   11151:	48 8d 85 f0 ea ff ff 	lea    -0x1510(%rbp),%rax
   11158:	48 89 85 b0 f5 ff ff 	mov    %rax,-0xa50(%rbp)
   1115f:	48 8d 85 f0 ea ff ff 	lea    -0x1510(%rbp),%rax
   11166:	48 89 85 b8 f5 ff ff 	mov    %rax,-0xa48(%rbp)
   1116d:	48 8d 85 f0 ea ff ff 	lea    -0x1510(%rbp),%rax
   11174:	48 89 85 c0 f5 ff ff 	mov    %rax,-0xa40(%rbp)
   1117b:	48 8d 85 f0 ea ff ff 	lea    -0x1510(%rbp),%rax
   11182:	48 89 85 c8 f5 ff ff 	mov    %rax,-0xa38(%rbp)
   11189:	48 8d 85 f0 ea ff ff 	lea    -0x1510(%rbp),%rax
   11190:	48 89 85 d0 f5 ff ff 	mov    %rax,-0xa30(%rbp)
   11197:	48 8d 85 f0 ea ff ff 	lea    -0x1510(%rbp),%rax
   1119e:	48 89 85 d8 f5 ff ff 	mov    %rax,-0xa28(%rbp)
   111a5:	48 8d 85 f0 ea ff ff 	lea    -0x1510(%rbp),%rax
   111ac:	48 89 85 e0 f5 ff ff 	mov    %rax,-0xa20(%rbp)
   111b3:	48 8d 85 f0 ea ff ff 	lea    -0x1510(%rbp),%rax
   111ba:	48 89 85 e8 f5 ff ff 	mov    %rax,-0xa18(%rbp)
   111c1:	48 8d 85 f0 ea ff ff 	lea    -0x1510(%rbp),%rax
   111c8:	48 89 85 f0 f5 ff ff 	mov    %rax,-0xa10(%rbp)
   111cf:	48 8d 85 f0 ea ff ff 	lea    -0x1510(%rbp),%rax
   111d6:	48 89 85 f8 f5 ff ff 	mov    %rax,-0xa08(%rbp)
   111dd:	48 8d 85 f0 ea ff ff 	lea    -0x1510(%rbp),%rax
   111e4:	48 89 85 00 f6 ff ff 	mov    %rax,-0xa00(%rbp)
   111eb:	48 8d 85 f0 ea ff ff 	lea    -0x1510(%rbp),%rax
   111f2:	48 89 85 08 f6 ff ff 	mov    %rax,-0x9f8(%rbp)
   111f9:	48 8d 85 f0 ea ff ff 	lea    -0x1510(%rbp),%rax
   11200:	48 89 85 10 f6 ff ff 	mov    %rax,-0x9f0(%rbp)
   11207:	48 8d 85 f0 ea ff ff 	lea    -0x1510(%rbp),%rax
   1120e:	48 89 85 18 f6 ff ff 	mov    %rax,-0x9e8(%rbp)
   11215:	48 8d 85 f0 ea ff ff 	lea    -0x1510(%rbp),%rax
   1121c:	48 89 85 20 f6 ff ff 	mov    %rax,-0x9e0(%rbp)
   11223:	48 8d 85 f0 ea ff ff 	lea    -0x1510(%rbp),%rax
   1122a:	48 89 85 28 f6 ff ff 	mov    %rax,-0x9d8(%rbp)
   11231:	48 8d 85 f0 ea ff ff 	lea    -0x1510(%rbp),%rax
   11238:	48 89 85 30 f6 ff ff 	mov    %rax,-0x9d0(%rbp)
   1123f:	48 8d 85 f0 ea ff ff 	lea    -0x1510(%rbp),%rax
   11246:	48 89 85 38 f6 ff ff 	mov    %rax,-0x9c8(%rbp)
   1124d:	48 8d 85 f0 ea ff ff 	lea    -0x1510(%rbp),%rax
   11254:	48 89 85 40 f6 ff ff 	mov    %rax,-0x9c0(%rbp)
   1125b:	48 8d 85 f0 ea ff ff 	lea    -0x1510(%rbp),%rax
   11262:	48 89 85 48 f6 ff ff 	mov    %rax,-0x9b8(%rbp)
   11269:	48 8d 85 f0 ea ff ff 	lea    -0x1510(%rbp),%rax
   11270:	48 89 85 50 f6 ff ff 	mov    %rax,-0x9b0(%rbp)
   11277:	48 8d 85 f0 ea ff ff 	lea    -0x1510(%rbp),%rax
   1127e:	48 89 85 58 f6 ff ff 	mov    %rax,-0x9a8(%rbp)
   11285:	48 8d 85 f0 ea ff ff 	lea    -0x1510(%rbp),%rax
   1128c:	48 89 85 60 f6 ff ff 	mov    %rax,-0x9a0(%rbp)
   11293:	48 8d 85 f0 ea ff ff 	lea    -0x1510(%rbp),%rax
   1129a:	48 89 85 68 f6 ff ff 	mov    %rax,-0x998(%rbp)
   112a1:	48 8d 05 34 01 01 00 	lea    0x10134(%rip),%rax        # 213dc <g_2454+0x7c>
   112a8:	48 89 85 10 eb ff ff 	mov    %rax,-0x14f0(%rbp)
   112af:	48 8d 85 10 eb ff ff 	lea    -0x14f0(%rbp),%rax
   112b6:	48 89 85 e8 eb ff ff 	mov    %rax,-0x1418(%rbp)
   112bd:	48 8b 85 80 ea ff ff 	mov    -0x1580(%rbp),%rax
   112c4:	8b 00                	mov    (%rax),%eax
   112c6:	0f bf d8             	movswl %ax,%ebx
   112c9:	48 8b 85 58 e9 ff ff 	mov    -0x16a8(%rbp),%rax
   112d0:	0f b6 00             	movzbl (%rax),%eax
   112d3:	44 0f be e0          	movsbl %al,%r12d
   112d7:	0f b7 05 ca 33 01 00 	movzwl 0x133ca(%rip),%eax        # 246a8 <g_1351>
   112de:	98                   	cwtl   
   112df:	48 98                	cltq   
   112e1:	48 8d 15 b0 fe 00 00 	lea    0xfeb0(%rip),%rdx        # 21198 <g_342>
   112e8:	0f b6 04 10          	movzbl (%rax,%rdx,1),%eax
   112ec:	0f b6 c0             	movzbl %al,%eax
   112ef:	89 c6                	mov    %eax,%esi
   112f1:	bf 33 00 00 00       	mov    $0x33,%edi
   112f6:	e8 b3 68 ff ff       	callq  7bae <safe_mod_func_uint8_t_u_u>
   112fb:	84 c0                	test   %al,%al
   112fd:	48 8b 95 50 ee ff ff 	mov    -0x11b0(%rbp),%rdx
   11304:	48 8b 85 f0 ea ff ff 	mov    -0x1510(%rbp),%rax
   1130b:	48 39 c2             	cmp    %rax,%rdx
   1130e:	0f 95 c0             	setne  %al
   11311:	0f b6 c0             	movzbl %al,%eax
   11314:	66 89 85 7a e9 ff ff 	mov    %ax,-0x1686(%rbp)
   1131b:	0f b7 85 7a e9 ff ff 	movzwl -0x1686(%rbp),%eax
   11322:	be 04 00 00 00       	mov    $0x4,%esi
   11327:	89 c7                	mov    %eax,%edi
   11329:	e8 4c 6b ff ff       	callq  7e7a <safe_rshift_func_uint16_t_u_u>
   1132e:	81 bd bc e9 ff ff 83 	cmpl   $0x83,-0x1644(%rbp)
   11335:	00 00 00 
   11338:	0f 9f c0             	setg   %al
   1133b:	f7 d0                	not    %eax
   1133d:	0f be d0             	movsbl %al,%edx
   11340:	0f b7 85 6c e9 ff ff 	movzwl -0x1694(%rbp),%eax
   11347:	0f be c0             	movsbl %al,%eax
   1134a:	89 d6                	mov    %edx,%esi
   1134c:	89 c7                	mov    %eax,%edi
   1134e:	e8 bf 5e ff ff       	callq  7212 <safe_mul_func_int8_t_s_s>
   11353:	66 98                	cbtw   
   11355:	0f b7 d0             	movzwl %ax,%edx
   11358:	0f b7 05 49 33 01 00 	movzwl 0x13349(%rip),%eax        # 246a8 <g_1351>
   1135f:	98                   	cwtl   
   11360:	48 98                	cltq   
   11362:	48 8d 0d 2f fe 00 00 	lea    0xfe2f(%rip),%rcx        # 21198 <g_342>
   11369:	0f b6 04 08          	movzbl (%rax,%rcx,1),%eax
   1136d:	0f b6 c8             	movzbl %al,%ecx
   11370:	48 8b 85 d8 ea ff ff 	mov    -0x1528(%rbp),%rax
   11377:	48 85 c0             	test   %rax,%rax
   1137a:	0f 95 c0             	setne  %al
   1137d:	0f b6 c0             	movzbl %al,%eax
   11380:	39 c1                	cmp    %eax,%ecx
   11382:	0f 9e c1             	setle  %cl
   11385:	48 8b 85 38 eb ff ff 	mov    -0x14c8(%rbp),%rax
   1138c:	48 8b 00             	mov    (%rax),%rax
   1138f:	0f b6 c9             	movzbl %cl,%ecx
   11392:	66 89 08             	mov    %cx,(%rax)
   11395:	0f b7 00             	movzwl (%rax),%eax
   11398:	66 85 c0             	test   %ax,%ax
   1139b:	0f 95 c0             	setne  %al
   1139e:	0f b6 c0             	movzbl %al,%eax
   113a1:	89 d6                	mov    %edx,%esi
   113a3:	89 c7                	mov    %eax,%edi
   113a5:	e8 75 69 ff ff       	callq  7d1f <safe_sub_func_uint16_t_u_u>
   113aa:	0f be c0             	movsbl %al,%eax
   113ad:	44 89 e6             	mov    %r12d,%esi
   113b0:	89 c7                	mov    %eax,%edi
   113b2:	e8 b3 5e ff ff       	callq  726a <safe_div_func_int8_t_s_s>
   113b7:	48 8b 85 80 ea ff ff 	mov    -0x1580(%rbp),%rax
   113be:	8b 00                	mov    (%rax),%eax
   113c0:	98                   	cwtl   
   113c1:	89 de                	mov    %ebx,%esi
   113c3:	89 c7                	mov    %eax,%edi
   113c5:	e8 2b 60 ff ff       	callq  73f5 <safe_mul_func_int16_t_s_s>
   113ca:	48 c7 85 f0 eb ff ff 	movq   $0x0,-0x1410(%rbp)
   113d1:	00 00 00 00 
   113d5:	48 c7 85 18 eb ff ff 	movq   $0x0,-0x14e8(%rbp)
   113dc:	00 00 00 00 
   113e0:	48 8d 85 18 eb ff ff 	lea    -0x14e8(%rbp),%rax
   113e7:	48 89 85 f8 eb ff ff 	mov    %rax,-0x1408(%rbp)
   113ee:	48 8d 85 54 e9 ff ff 	lea    -0x16ac(%rbp),%rax
   113f5:	48 89 85 70 eb ff ff 	mov    %rax,-0x1490(%rbp)
   113fc:	48 8b 85 70 eb ff ff 	mov    -0x1490(%rbp),%rax
   11403:	48 89 85 d8 eb ff ff 	mov    %rax,-0x1428(%rbp)
   1140a:	48 8b 85 d8 eb ff ff 	mov    -0x1428(%rbp),%rax
   11411:	48 89 85 f0 eb ff ff 	mov    %rax,-0x1410(%rbp)
   11418:	48 8b 85 58 e9 ff ff 	mov    -0x16a8(%rbp),%rax
   1141f:	0f b6 00             	movzbl (%rax),%eax
   11422:	0f b6 d8             	movzbl %al,%ebx
   11425:	48 8b 85 f0 eb ff ff 	mov    -0x1410(%rbp),%rax
   1142c:	8b 00                	mov    (%rax),%eax
   1142e:	0f b6 c0             	movzbl %al,%eax
   11431:	be 00 00 00 00       	mov    $0x0,%esi
   11436:	89 c7                	mov    %eax,%edi
   11438:	e8 0f 68 ff ff       	callq  7c4c <safe_lshift_func_uint8_t_u_u>
   1143d:	0f b6 d0             	movzbl %al,%edx
   11440:	8b 85 54 e9 ff ff    	mov    -0x16ac(%rbp),%eax
   11446:	21 c2                	and    %eax,%edx
   11448:	48 8b 85 70 eb ff ff 	mov    -0x1490(%rbp),%rax
   1144f:	8b 00                	mov    (%rax),%eax
   11451:	39 c2                	cmp    %eax,%edx
   11453:	0f 9d c0             	setge  %al
   11456:	0f b6 c0             	movzbl %al,%eax
   11459:	89 de                	mov    %ebx,%esi
   1145b:	89 c7                	mov    %eax,%edi
   1145d:	e8 8c 5e ff ff       	callq  72ee <safe_lshift_func_int8_t_s_u>
   11462:	89 c2                	mov    %eax,%edx
   11464:	48 8b 85 d0 ea ff ff 	mov    -0x1530(%rbp),%rax
   1146b:	48 8b 00             	mov    (%rax),%rax
   1146e:	48 0f be d2          	movsbq %dl,%rdx
   11472:	48 89 10             	mov    %rdx,(%rax)
   11475:	48 8b 18             	mov    (%rax),%rbx
   11478:	8b 95 9c f2 ff ff    	mov    -0xd64(%rbp),%edx
   1147e:	0f bf 85 6c e9 ff ff 	movswl -0x1694(%rbp),%eax
   11485:	89 d6                	mov    %edx,%esi
   11487:	89 c7                	mov    %eax,%edi
   11489:	e8 42 6a ff ff       	callq  7ed0 <safe_sub_func_uint32_t_u_u>
   1148e:	89 c0                	mov    %eax,%eax
   11490:	48 39 c3             	cmp    %rax,%rbx
   11493:	0f 8d 58 02 00 00    	jge    116f1 <func_31+0x4950>
   11499:	48 c7 85 00 ef ff ff 	movq   $0x0,-0x1100(%rbp)
   114a0:	00 00 00 00 
   114a4:	48 c7 85 08 ef ff ff 	movq   $0x0,-0x10f8(%rbp)
   114ab:	00 00 00 00 
   114af:	48 8d 05 ca 27 01 00 	lea    0x127ca(%rip),%rax        # 23c80 <g_1988>
   114b6:	48 89 85 10 ef ff ff 	mov    %rax,-0x10f0(%rbp)
   114bd:	48 c7 85 18 ef ff ff 	movq   $0x0,-0x10e8(%rbp)
   114c4:	00 00 00 00 
   114c8:	48 c7 85 20 ef ff ff 	movq   $0x0,-0x10e0(%rbp)
   114cf:	00 00 00 00 
   114d3:	48 8d 05 a6 27 01 00 	lea    0x127a6(%rip),%rax        # 23c80 <g_1988>
   114da:	48 89 85 28 ef ff ff 	mov    %rax,-0x10d8(%rbp)
   114e1:	48 c7 85 30 ef ff ff 	movq   $0x0,-0x10d0(%rbp)
   114e8:	00 00 00 00 
   114ec:	48 c7 85 38 ef ff ff 	movq   $0x0,-0x10c8(%rbp)
   114f3:	00 00 00 00 
   114f7:	48 8d 05 82 27 01 00 	lea    0x12782(%rip),%rax        # 23c80 <g_1988>
   114fe:	48 89 85 40 ef ff ff 	mov    %rax,-0x10c0(%rbp)
   11505:	48 c7 85 48 ef ff ff 	movq   $0x0,-0x10b8(%rbp)
   1150c:	00 00 00 00 
   11510:	48 8d 85 00 ef ff ff 	lea    -0x1100(%rbp),%rax
   11517:	48 83 c0 10          	add    $0x10,%rax
   1151b:	48 89 85 20 eb ff ff 	mov    %rax,-0x14e0(%rbp)
   11522:	48 8d 85 20 eb ff ff 	lea    -0x14e0(%rbp),%rax
   11529:	48 89 85 28 eb ff ff 	mov    %rax,-0x14d8(%rbp)
   11530:	48 8d 85 28 eb ff ff 	lea    -0x14d8(%rbp),%rax
   11537:	48 89 85 08 ec ff ff 	mov    %rax,-0x13f8(%rbp)
   1153e:	c7 85 f0 e9 ff ff 66 	movl   $0x293b4966,-0x1610(%rbp)
   11545:	49 3b 29 
   11548:	48 8d 85 00 eb ff ff 	lea    -0x1500(%rbp),%rax
   1154f:	48 89 85 10 ec ff ff 	mov    %rax,-0x13f0(%rbp)
   11556:	48 8b 05 63 31 01 00 	mov    0x13163(%rip),%rax        # 246c0 <g_1986>
   1155d:	48 8b 15 3c 29 01 00 	mov    0x1293c(%rip),%rdx        # 23ea0 <g_2357>
   11564:	48 89 95 e0 eb ff ff 	mov    %rdx,-0x1420(%rbp)
   1156b:	48 39 85 e0 eb ff ff 	cmp    %rax,-0x1420(%rbp)
   11572:	0f 84 fb 00 00 00    	je     11673 <func_31+0x48d2>
   11578:	8b 85 f0 e9 ff ff    	mov    -0x1610(%rbp),%eax
   1157e:	0f b6 d0             	movzbl %al,%edx
   11581:	48 8b 85 58 e9 ff ff 	mov    -0x16a8(%rbp),%rax
   11588:	0f b6 00             	movzbl (%rax),%eax
   1158b:	0f b6 c0             	movzbl %al,%eax
   1158e:	89 d6                	mov    %edx,%esi
   11590:	89 c7                	mov    %eax,%edi
   11592:	e8 44 66 ff ff       	callq  7bdb <safe_div_func_uint8_t_u_u>
   11597:	0f b6 d0             	movzbl %al,%edx
   1159a:	48 8b 85 08 ec ff ff 	mov    -0x13f8(%rbp),%rax
   115a1:	48 3b 85 f8 eb ff ff 	cmp    -0x1408(%rbp),%rax
   115a8:	0f 95 c0             	setne  %al
   115ab:	0f b6 c0             	movzbl %al,%eax
   115ae:	89 d6                	mov    %edx,%esi
   115b0:	89 c7                	mov    %eax,%edi
   115b2:	e8 86 67 ff ff       	callq  7d3d <safe_mul_func_uint16_t_u_u>
   115b7:	41 89 c5             	mov    %eax,%r13d
   115ba:	48 8b 85 58 e9 ff ff 	mov    -0x16a8(%rbp),%rax
   115c1:	0f b6 00             	movzbl (%rax),%eax
   115c4:	44 0f b6 e0          	movzbl %al,%r12d
   115c8:	48 8b 85 58 e9 ff ff 	mov    -0x16a8(%rbp),%rax
   115cf:	0f b6 00             	movzbl (%rax),%eax
   115d2:	0f b6 d0             	movzbl %al,%edx
   115d5:	48 8b 8d 00 eb ff ff 	mov    -0x1500(%rbp),%rcx
   115dc:	48 8b 85 10 ec ff ff 	mov    -0x13f0(%rbp),%rax
   115e3:	48 89 08             	mov    %rcx,(%rax)
   115e6:	48 8b 85 10 ec ff ff 	mov    -0x13f0(%rbp),%rax
   115ed:	48 8b 00             	mov    (%rax),%rax
   115f0:	48 8d 0d 81 f7 00 00 	lea    0xf781(%rip),%rcx        # 20d78 <g_2158>
   115f7:	48 39 c8             	cmp    %rcx,%rax
   115fa:	0f 95 c0             	setne  %al
   115fd:	0f b6 c8             	movzbl %al,%ecx
   11600:	8b 85 54 e9 ff ff    	mov    -0x16ac(%rbp),%eax
   11606:	09 c1                	or     %eax,%ecx
   11608:	0f bf 85 6c e9 ff ff 	movswl -0x1694(%rbp),%eax
   1160f:	39 c1                	cmp    %eax,%ecx
   11611:	0f 9c c0             	setl   %al
   11614:	0f b6 c0             	movzbl %al,%eax
   11617:	0f b7 0d 8a 30 01 00 	movzwl 0x1308a(%rip),%ecx        # 246a8 <g_1351>
   1161e:	0f bf d9             	movswl %cx,%ebx
   11621:	89 d6                	mov    %edx,%esi
   11623:	89 c7                	mov    %eax,%edi
   11625:	e8 94 66 ff ff       	callq  7cbe <safe_rshift_func_uint8_t_u_u>
   1162a:	48 63 d3             	movslq %ebx,%rdx
   1162d:	48 8d 0d 64 fb 00 00 	lea    0xfb64(%rip),%rcx        # 21198 <g_342>
   11634:	88 04 0a             	mov    %al,(%rdx,%rcx,1)
   11637:	48 63 c3             	movslq %ebx,%rax
   1163a:	48 8d 15 57 fb 00 00 	lea    0xfb57(%rip),%rdx        # 21198 <g_342>
   11641:	0f b6 04 10          	movzbl (%rax,%rdx,1),%eax
   11645:	0f b6 d0             	movzbl %al,%edx
   11648:	48 8b 85 70 eb ff ff 	mov    -0x1490(%rbp),%rax
   1164f:	8b 00                	mov    (%rax),%eax
   11651:	39 c2                	cmp    %eax,%edx
   11653:	0f 9c c0             	setl   %al
   11656:	0f b6 c0             	movzbl %al,%eax
   11659:	44 89 e6             	mov    %r12d,%esi
   1165c:	89 c7                	mov    %eax,%edi
   1165e:	e8 15 65 ff ff       	callq  7b78 <safe_sub_func_uint8_t_u_u>
   11663:	0f b6 c0             	movzbl %al,%eax
   11666:	66 41 39 c5          	cmp    %ax,%r13w
   1166a:	77 07                	ja     11673 <func_31+0x48d2>
   1166c:	ba 01 00 00 00       	mov    $0x1,%edx
   11671:	eb 05                	jmp    11678 <func_31+0x48d7>
   11673:	ba 00 00 00 00       	mov    $0x0,%edx
   11678:	48 8b 85 80 ea ff ff 	mov    -0x1580(%rbp),%rax
   1167f:	89 10                	mov    %edx,(%rax)
   11681:	8b 85 9c f2 ff ff    	mov    -0xd64(%rbp),%eax
   11687:	0f bf d8             	movswl %ax,%ebx
   1168a:	48 8b 85 d8 eb ff ff 	mov    -0x1428(%rbp),%rax
   11691:	8b 00                	mov    (%rax),%eax
   11693:	be 44 69 d2 a7       	mov    $0xa7d26944,%esi
   11698:	89 c7                	mov    %eax,%edi
   1169a:	e8 60 60 ff ff       	callq  76ff <safe_div_func_int32_t_s_s>
   1169f:	98                   	cwtl   
   116a0:	89 de                	mov    %ebx,%esi
   116a2:	89 c7                	mov    %eax,%edi
   116a4:	e8 6d 5d ff ff       	callq  7416 <safe_mod_func_int16_t_s_s>
   116a9:	0f bf d0             	movswl %ax,%edx
   116ac:	48 8b 85 f0 eb ff ff 	mov    -0x1410(%rbp),%rax
   116b3:	8b 00                	mov    (%rax),%eax
   116b5:	39 c2                	cmp    %eax,%edx
   116b7:	0f 95 c0             	setne  %al
   116ba:	0f b6 d0             	movzbl %al,%edx
   116bd:	0f b7 85 7a e9 ff ff 	movzwl -0x1686(%rbp),%eax
   116c4:	39 c2                	cmp    %eax,%edx
   116c6:	7d 0a                	jge    116d2 <func_31+0x4931>
   116c8:	8b 85 54 e9 ff ff    	mov    -0x16ac(%rbp),%eax
   116ce:	85 c0                	test   %eax,%eax
   116d0:	74 07                	je     116d9 <func_31+0x4938>
   116d2:	b8 01 00 00 00       	mov    $0x1,%eax
   116d7:	eb 05                	jmp    116de <func_31+0x493d>
   116d9:	b8 00 00 00 00       	mov    $0x0,%eax
   116de:	23 85 68 e9 ff ff    	and    -0x1698(%rbp),%eax
   116e4:	89 c2                	mov    %eax,%edx
   116e6:	48 8b 85 70 eb ff ff 	mov    -0x1490(%rbp),%rax
   116ed:	89 10                	mov    %edx,(%rax)
   116ef:	eb 20                	jmp    11711 <func_31+0x4970>
   116f1:	48 8d 85 30 ed ff ff 	lea    -0x12d0(%rbp),%rax
   116f8:	48 83 c0 04          	add    $0x4,%rax
   116fc:	48 89 85 00 ec ff ff 	mov    %rax,-0x1400(%rbp)
   11703:	48 8b 85 00 ec ff ff 	mov    -0x1400(%rbp),%rax
   1170a:	48 89 85 c8 eb ff ff 	mov    %rax,-0x1438(%rbp)
   11711:	48 8b 85 e8 eb ff ff 	mov    -0x1418(%rbp),%rax
   11718:	48 c7 00 00 00 00 00 	movq   $0x0,(%rax)
   1171f:	48 8b 85 58 e9 ff ff 	mov    -0x16a8(%rbp),%rax
   11726:	e9 c0 06 00 00       	jmpq   11deb <func_31+0x504a>
   1172b:	8b 85 68 e9 ff ff    	mov    -0x1698(%rbp),%eax
   11731:	48 63 d8             	movslq %eax,%rbx
   11734:	4c 8b 25 05 f9 00 00 	mov    0xf905(%rip),%r12        # 21040 <g_59>
   1173b:	48 8b 85 98 f1 ff ff 	mov    -0xe68(%rbp),%rax
   11742:	48 85 c0             	test   %rax,%rax
   11745:	0f 95 c0             	setne  %al
   11748:	0f b6 c0             	movzbl %al,%eax
   1174b:	33 85 cc e9 ff ff    	xor    -0x1634(%rbp),%eax
   11751:	41 89 c7             	mov    %eax,%r15d
   11754:	48 8b 85 88 ea ff ff 	mov    -0x1578(%rbp),%rax
   1175b:	48 8b 00             	mov    (%rax),%rax
   1175e:	48 8b 95 88 eb ff ff 	mov    -0x1478(%rbp),%rdx
   11765:	48 89 10             	mov    %rdx,(%rax)
   11768:	48 8b 00             	mov    (%rax),%rax
   1176b:	48 8b 95 88 eb ff ff 	mov    -0x1478(%rbp),%rdx
   11772:	48 89 95 90 eb ff ff 	mov    %rdx,-0x1470(%rbp)
   11779:	48 39 85 90 eb ff ff 	cmp    %rax,-0x1470(%rbp)
   11780:	0f 95 c0             	setne  %al
   11783:	89 c2                	mov    %eax,%edx
   11785:	48 8b 85 58 e9 ff ff 	mov    -0x16a8(%rbp),%rax
   1178c:	88 10                	mov    %dl,(%rax)
   1178e:	48 8b 85 58 e9 ff ff 	mov    -0x16a8(%rbp),%rax
   11795:	0f b6 00             	movzbl (%rax),%eax
   11798:	0f b6 c0             	movzbl %al,%eax
   1179b:	be 06 00 00 00       	mov    $0x6,%esi
   117a0:	89 c7                	mov    %eax,%edi
   117a2:	e8 e6 64 ff ff       	callq  7c8d <safe_rshift_func_uint8_t_u_s>
   117a7:	0f b6 c0             	movzbl %al,%eax
   117aa:	89 85 50 e9 ff ff    	mov    %eax,-0x16b0(%rbp)
   117b0:	8b 85 d4 e9 ff ff    	mov    -0x162c(%rbp),%eax
   117b6:	44 0f be e8          	movsbl %al,%r13d
   117ba:	44 8b b5 68 e9 ff ff 	mov    -0x1698(%rbp),%r14d
   117c1:	0f bf 85 6c e9 ff ff 	movswl -0x1694(%rbp),%eax
   117c8:	89 85 4c e9 ff ff    	mov    %eax,-0x16b4(%rbp)
   117ce:	8b 85 68 e9 ff ff    	mov    -0x1698(%rbp),%eax
   117d4:	0f b6 c0             	movzbl %al,%eax
   117d7:	8b 95 68 e9 ff ff    	mov    -0x1698(%rbp),%edx
   117dd:	89 d6                	mov    %edx,%esi
   117df:	89 c7                	mov    %eax,%edi
   117e1:	e8 1f 64 ff ff       	callq  7c05 <safe_lshift_func_uint8_t_u_s>
   117e6:	0f b6 d0             	movzbl %al,%edx
   117e9:	0f bf 85 6c e9 ff ff 	movswl -0x1694(%rbp),%eax
   117f0:	39 c2                	cmp    %eax,%edx
   117f2:	0f 9c c0             	setl   %al
   117f5:	0f b6 c0             	movzbl %al,%eax
   117f8:	0b 85 4c e9 ff ff    	or     -0x16b4(%rbp),%eax
   117fe:	85 c0                	test   %eax,%eax
   11800:	75 0d                	jne    1180f <func_31+0x4a6e>
   11802:	48 8b 85 70 eb ff ff 	mov    -0x1490(%rbp),%rax
   11809:	8b 00                	mov    (%rax),%eax
   1180b:	85 c0                	test   %eax,%eax
   1180d:	74 07                	je     11816 <func_31+0x4a75>
   1180f:	b8 01 00 00 00       	mov    $0x1,%eax
   11814:	eb 05                	jmp    1181b <func_31+0x4a7a>
   11816:	b8 00 00 00 00       	mov    $0x0,%eax
   1181b:	83 f0 01             	xor    $0x1,%eax
   1181e:	48 63 d0             	movslq %eax,%rdx
   11821:	48 0f bf 85 6c e9 ff 	movswq -0x1694(%rbp),%rax
   11828:	ff 
   11829:	48 21 c2             	and    %rax,%rdx
   1182c:	8b 85 68 e9 ff ff    	mov    -0x1698(%rbp),%eax
   11832:	48 98                	cltq   
   11834:	48 39 c2             	cmp    %rax,%rdx
   11837:	0f 93 c0             	setae  %al
   1183a:	0f b6 d0             	movzbl %al,%edx
   1183d:	0f bf 85 6c e9 ff ff 	movswl -0x1694(%rbp),%eax
   11844:	39 c2                	cmp    %eax,%edx
   11846:	0f 95 c0             	setne  %al
   11849:	0f b6 c0             	movzbl %al,%eax
   1184c:	44 89 f6             	mov    %r14d,%esi
   1184f:	89 c7                	mov    %eax,%edi
   11851:	e8 cf 66 ff ff       	callq  7f25 <safe_div_func_uint32_t_u_u>
   11856:	0f b6 c0             	movzbl %al,%eax
   11859:	be ff 00 00 00       	mov    $0xff,%esi
   1185e:	89 c7                	mov    %eax,%edi
   11860:	e8 76 63 ff ff       	callq  7bdb <safe_div_func_uint8_t_u_u>
   11865:	0f b6 c0             	movzbl %al,%eax
   11868:	be 01 00 00 00       	mov    $0x1,%esi
   1186d:	89 c7                	mov    %eax,%edi
   1186f:	e8 ef 5c ff ff       	callq  7563 <safe_rshift_func_int16_t_s_u>
   11874:	be 06 00 00 00       	mov    $0x6,%esi
   11879:	bf 00 00 00 00       	mov    $0x0,%edi
   1187e:	e8 25 60 ff ff       	callq  78a8 <safe_sub_func_int64_t_s_s>
   11883:	0f be c0             	movsbl %al,%eax
   11886:	44 89 ee             	mov    %r13d,%esi
   11889:	89 c7                	mov    %eax,%edi
   1188b:	e8 62 59 ff ff       	callq  71f2 <safe_sub_func_int8_t_s_s>
   11890:	0f be c0             	movsbl %al,%eax
   11893:	8b 95 50 e9 ff ff    	mov    -0x16b0(%rbp),%edx
   11899:	09 c2                	or     %eax,%edx
   1189b:	48 8b 85 70 eb ff ff 	mov    -0x1490(%rbp),%rax
   118a2:	8b 00                	mov    (%rax),%eax
   118a4:	39 c2                	cmp    %eax,%edx
   118a6:	0f 9f c0             	setg   %al
   118a9:	0f b6 c0             	movzbl %al,%eax
   118ac:	41 39 c7             	cmp    %eax,%r15d
   118af:	0f 95 c0             	setne  %al
   118b2:	0f b6 d0             	movzbl %al,%edx
   118b5:	48 8b 85 80 ea ff ff 	mov    -0x1580(%rbp),%rax
   118bc:	8b 00                	mov    (%rax),%eax
   118be:	39 c2                	cmp    %eax,%edx
   118c0:	74 07                	je     118c9 <func_31+0x4b28>
   118c2:	b8 01 00 00 00       	mov    $0x1,%eax
   118c7:	eb 05                	jmp    118ce <func_31+0x4b2d>
   118c9:	b8 00 00 00 00       	mov    $0x0,%eax
   118ce:	48 98                	cltq   
   118d0:	48 0b 85 98 eb ff ff 	or     -0x1468(%rbp),%rax
   118d7:	48 89 c2             	mov    %rax,%rdx
   118da:	0f b6 05 6f fb 00 00 	movzbl 0xfb6f(%rip),%eax        # 21450 <g_2479>
   118e1:	48 0f be c0          	movsbq %al,%rax
   118e5:	48 39 c2             	cmp    %rax,%rdx
   118e8:	7f 07                	jg     118f1 <func_31+0x4b50>
   118ea:	b8 fe 00 00 00       	mov    $0xfe,%eax
   118ef:	eb 05                	jmp    118f6 <func_31+0x4b55>
   118f1:	b8 ff 00 00 00       	mov    $0xff,%eax
   118f6:	4c 89 e6             	mov    %r12,%rsi
   118f9:	48 89 c7             	mov    %rax,%rdi
   118fc:	e8 2d 67 ff ff       	callq  802e <safe_add_func_uint64_t_u_u>
   11901:	48 85 c0             	test   %rax,%rax
   11904:	75 0a                	jne    11910 <func_31+0x4b6f>
   11906:	8b 85 54 e9 ff ff    	mov    -0x16ac(%rbp),%eax
   1190c:	85 c0                	test   %eax,%eax
   1190e:	74 07                	je     11917 <func_31+0x4b76>
   11910:	b8 01 00 00 00       	mov    $0x1,%eax
   11915:	eb 05                	jmp    1191c <func_31+0x4b7b>
   11917:	b8 00 00 00 00       	mov    $0x0,%eax
   1191c:	48 98                	cltq   
   1191e:	48 89 de             	mov    %rbx,%rsi
   11921:	48 89 c7             	mov    %rax,%rdi
   11924:	e8 57 67 ff ff       	callq  8080 <safe_mod_func_uint64_t_u_u>
   11929:	8b 85 54 e9 ff ff    	mov    -0x16ac(%rbp),%eax
   1192f:	83 f0 01             	xor    $0x1,%eax
   11932:	89 c2                	mov    %eax,%edx
   11934:	48 8b 85 70 eb ff ff 	mov    -0x1490(%rbp),%rax
   1193b:	89 10                	mov    %edx,(%rax)
   1193d:	48 c7 05 c0 f8 00 00 	movq   $0x0,0xf8c0(%rip)        # 21208 <g_1489>
   11944:	00 00 00 00 
   11948:	e9 de 03 00 00       	jmpq   11d2b <func_31+0x4f8a>
   1194d:	48 8d 85 c8 ea ff ff 	lea    -0x1538(%rbp),%rax
   11954:	48 89 85 b8 eb ff ff 	mov    %rax,-0x1448(%rbp)
   1195b:	c7 85 d8 e9 ff ff f9 	movl   $0xfffffff9,-0x1628(%rbp)
   11962:	ff ff ff 
   11965:	c7 85 dc e9 ff ff ff 	movl   $0xffffffff,-0x1624(%rbp)
   1196c:	ff ff ff 
   1196f:	48 c7 85 48 eb ff ff 	movq   $0x1,-0x14b8(%rbp)
   11976:	01 00 00 00 
   1197a:	0f b7 9d 76 e9 ff ff 	movzwl -0x168a(%rbp),%ebx
   11981:	48 8b 85 70 eb ff ff 	mov    -0x1490(%rbp),%rax
   11988:	8b 00                	mov    (%rax),%eax
   1198a:	44 0f b7 e0          	movzwl %ax,%r12d
   1198e:	8b 85 d8 e9 ff ff    	mov    -0x1628(%rbp),%eax
   11994:	44 0f b6 e8          	movzbl %al,%r13d
   11998:	0f be 85 73 e9 ff ff 	movsbl -0x168d(%rbp),%eax
   1199f:	be 02 00 00 00       	mov    $0x2,%esi
   119a4:	89 c7                	mov    %eax,%edi
   119a6:	e8 c1 59 ff ff       	callq  736c <safe_rshift_func_int8_t_s_u>
   119ab:	4c 0f bf b5 6c e9 ff 	movswq -0x1694(%rbp),%r14
   119b2:	ff 
   119b3:	48 8b 95 c8 ea ff ff 	mov    -0x1538(%rbp),%rdx
   119ba:	48 8b 85 b8 eb ff ff 	mov    -0x1448(%rbp),%rax
   119c1:	48 89 10             	mov    %rdx,(%rax)
   119c4:	48 8b 85 b8 eb ff ff 	mov    -0x1448(%rbp),%rax
   119cb:	48 8b 00             	mov    (%rax),%rax
   119ce:	48 39 85 a0 eb ff ff 	cmp    %rax,-0x1460(%rbp)
   119d5:	74 36                	je     11a0d <func_31+0x4c6c>
   119d7:	8b 85 d8 e9 ff ff    	mov    -0x1628(%rbp),%eax
   119dd:	0f b7 c0             	movzwl %ax,%eax
   119e0:	be 02 00 00 00       	mov    $0x2,%esi
   119e5:	89 c7                	mov    %eax,%edi
   119e7:	e8 5c 64 ff ff       	callq  7e48 <safe_rshift_func_uint16_t_u_s>
   119ec:	0f b7 c0             	movzwl %ax,%eax
   119ef:	48 be 21 dd 7e b3 4c 	movabs $0x82be534cb37edd21,%rsi
   119f6:	53 be 82 
   119f9:	48 89 c7             	mov    %rax,%rdi
   119fc:	e8 40 5e ff ff       	callq  7841 <safe_add_func_int64_t_s_s>
   11a01:	48 85 c0             	test   %rax,%rax
   11a04:	74 07                	je     11a0d <func_31+0x4c6c>
   11a06:	b8 01 00 00 00       	mov    $0x1,%eax
   11a0b:	eb 05                	jmp    11a12 <func_31+0x4c71>
   11a0d:	b8 00 00 00 00       	mov    $0x0,%eax
   11a12:	48 98                	cltq   
   11a14:	4c 89 f6             	mov    %r14,%rsi
   11a17:	48 89 c7             	mov    %rax,%rdi
   11a1a:	e8 22 5e ff ff       	callq  7841 <safe_add_func_int64_t_s_s>
   11a1f:	8b 85 d8 e9 ff ff    	mov    -0x1628(%rbp),%eax
   11a25:	89 c6                	mov    %eax,%esi
   11a27:	bf 01 00 00 00       	mov    $0x1,%edi
   11a2c:	e8 d4 61 ff ff       	callq  7c05 <safe_lshift_func_uint8_t_u_s>
   11a31:	0f b6 c0             	movzbl %al,%eax
   11a34:	44 89 ee             	mov    %r13d,%esi
   11a37:	89 c7                	mov    %eax,%edi
   11a39:	e8 70 61 ff ff       	callq  7bae <safe_mod_func_uint8_t_u_u>
   11a3e:	0f b6 c0             	movzbl %al,%eax
   11a41:	44 89 e6             	mov    %r12d,%esi
   11a44:	89 c7                	mov    %eax,%edi
   11a46:	e8 f2 62 ff ff       	callq  7d3d <safe_mul_func_uint16_t_u_u>
   11a4b:	be 00 00 00 00       	mov    $0x0,%esi
   11a50:	bf 08 00 00 00       	mov    $0x8,%edi
   11a55:	e8 b8 57 ff ff       	callq  7212 <safe_mul_func_int8_t_s_s>
   11a5a:	0f be d0             	movsbl %al,%edx
   11a5d:	8b 85 54 e9 ff ff    	mov    -0x16ac(%rbp),%eax
   11a63:	39 c2                	cmp    %eax,%edx
   11a65:	0f 94 c0             	sete   %al
   11a68:	0f b6 c0             	movzbl %al,%eax
   11a6b:	89 de                	mov    %ebx,%esi
   11a6d:	89 c7                	mov    %eax,%edi
   11a6f:	e8 58 5c ff ff       	callq  76cc <safe_mod_func_int32_t_s_s>
   11a74:	31 85 dc e9 ff ff    	xor    %eax,-0x1624(%rbp)
   11a7a:	66 c7 85 6c e9 ff ff 	movw   $0x1a,-0x1694(%rbp)
   11a81:	1a 00 
   11a83:	e9 7a 02 00 00       	jmpq   11d02 <func_31+0x4f61>
   11a88:	c7 85 c0 e9 ff ff 63 	movl   $0x4f2d4d63,-0x1640(%rbp)
   11a8f:	4d 2d 4f 
   11a92:	c7 85 e0 e9 ff ff 27 	movl   $0x36d6b827,-0x1620(%rbp)
   11a99:	b8 d6 36 
   11a9c:	c6 05 d9 f7 00 00 00 	movb   $0x0,0xf7d9(%rip)        # 2127c <g_2042>
   11aa3:	e9 e8 01 00 00       	jmpq   11c90 <func_31+0x4eef>
   11aa8:	48 b8 4e 81 58 91 40 	movabs $0x71c3bc409158814e,%rax
   11aaf:	bc c3 71 
   11ab2:	48 89 85 c0 eb ff ff 	mov    %rax,-0x1440(%rbp)
   11ab9:	c7 85 e8 e9 ff ff fc 	movl   $0xfffffffc,-0x1618(%rbp)
   11ac0:	ff ff ff 
   11ac3:	66 c7 85 78 e9 ff ff 	movw   $0x0,-0x1688(%rbp)
   11aca:	00 00 
   11acc:	83 ad c0 e9 ff ff 01 	subl   $0x1,-0x1640(%rbp)
   11ad3:	8b 85 54 e9 ff ff    	mov    -0x16ac(%rbp),%eax
   11ad9:	0f bf d8             	movswl %ax,%ebx
   11adc:	44 0f b7 a5 78 e9 ff 	movzwl -0x1688(%rbp),%r12d
   11ae3:	ff 
   11ae4:	8b 85 68 e9 ff ff    	mov    -0x1698(%rbp),%eax
   11aea:	44 0f b7 e8          	movzwl %ax,%r13d
   11aee:	48 8b 85 c0 eb ff ff 	mov    -0x1440(%rbp),%rax
   11af5:	44 0f b6 f0          	movzbl %al,%r14d
   11af9:	8b 85 e8 e9 ff ff    	mov    -0x1618(%rbp),%eax
   11aff:	44 0f b7 f8          	movzwl %ax,%r15d
   11b03:	48 8b 85 58 e9 ff ff 	mov    -0x16a8(%rbp),%rax
   11b0a:	0f b6 00             	movzbl (%rax),%eax
   11b0d:	0f be c0             	movsbl %al,%eax
   11b10:	89 85 50 e9 ff ff    	mov    %eax,-0x16b0(%rbp)
   11b16:	83 bd c0 e9 ff ff 66 	cmpl   $0x66,-0x1640(%rbp)
   11b1d:	0f 95 c0             	setne  %al
   11b20:	0f b6 c0             	movzbl %al,%eax
   11b23:	89 c7                	mov    %eax,%edi
   11b25:	e8 bf 61 ff ff       	callq  7ce9 <safe_unary_minus_func_uint16_t_u>
   11b2a:	8b 85 d8 e9 ff ff    	mov    -0x1628(%rbp),%eax
   11b30:	89 c6                	mov    %eax,%esi
   11b32:	bf 00 00 00 00       	mov    $0x0,%edi
   11b37:	e8 c9 5a ff ff       	callq  7605 <safe_sub_func_int32_t_s_s>
   11b3c:	0f be c0             	movsbl %al,%eax
   11b3f:	8b b5 50 e9 ff ff    	mov    -0x16b0(%rbp),%esi
   11b45:	89 c7                	mov    %eax,%edi
   11b47:	e8 1e 57 ff ff       	callq  726a <safe_div_func_int8_t_s_s>
   11b4c:	66 98                	cbtw   
   11b4e:	8b 95 68 e9 ff ff    	mov    -0x1698(%rbp),%edx
   11b54:	21 d0                	and    %edx,%eax
   11b56:	0f b7 c0             	movzwl %ax,%eax
   11b59:	be bc 8d 00 00       	mov    $0x8dbc,%esi
   11b5e:	89 c7                	mov    %eax,%edi
   11b60:	e8 9a 61 ff ff       	callq  7cff <safe_add_func_uint16_t_u_u>
   11b65:	0f b7 c0             	movzwl %ax,%eax
   11b68:	be 14 e5 04 42       	mov    $0x4204e514,%esi
   11b6d:	89 c7                	mov    %eax,%edi
   11b6f:	e8 91 5a ff ff       	callq  7605 <safe_sub_func_int32_t_s_s>
   11b74:	66 0b 85 6c e9 ff ff 	or     -0x1694(%rbp),%ax
   11b7b:	0f b7 c0             	movzwl %ax,%eax
   11b7e:	44 89 fe             	mov    %r15d,%esi
   11b81:	89 c7                	mov    %eax,%edi
   11b83:	e8 b5 61 ff ff       	callq  7d3d <safe_mul_func_uint16_t_u_u>
   11b88:	0f b7 c0             	movzwl %ax,%eax
   11b8b:	39 85 d8 e9 ff ff    	cmp    %eax,-0x1628(%rbp)
   11b91:	0f 95 c0             	setne  %al
   11b94:	0f b6 d0             	movzbl %al,%edx
   11b97:	48 0f bf 85 6c e9 ff 	movswq -0x1694(%rbp),%rax
   11b9e:	ff 
   11b9f:	48 89 d6             	mov    %rdx,%rsi
   11ba2:	48 89 c7             	mov    %rax,%rdi
   11ba5:	e8 a1 64 ff ff       	callq  804b <safe_sub_func_uint64_t_u_u>
   11baa:	0f b6 c0             	movzbl %al,%eax
   11bad:	44 89 f6             	mov    %r14d,%esi
   11bb0:	89 c7                	mov    %eax,%edi
   11bb2:	e8 f7 5f ff ff       	callq  7bae <safe_mod_func_uint8_t_u_u>
   11bb7:	0f b6 c0             	movzbl %al,%eax
   11bba:	44 89 ee             	mov    %r13d,%esi
   11bbd:	89 c7                	mov    %eax,%edi
   11bbf:	e8 98 61 ff ff       	callq  7d5c <safe_mod_func_uint16_t_u_u>
   11bc4:	98                   	cwtl   
   11bc5:	be 64 cf ff ff       	mov    $0xffffcf64,%esi
   11bca:	89 c7                	mov    %eax,%edi
   11bcc:	e8 24 58 ff ff       	callq  73f5 <safe_mul_func_int16_t_s_s>
   11bd1:	48 0f bf c0          	movswq %ax,%rax
   11bd5:	4c 89 e6             	mov    %r12,%rsi
   11bd8:	48 89 c7             	mov    %rax,%rdi
   11bdb:	e8 a0 64 ff ff       	callq  8080 <safe_mod_func_uint64_t_u_u>
   11be0:	8b 95 c0 e9 ff ff    	mov    -0x1640(%rbp),%edx
   11be6:	48 39 d0             	cmp    %rdx,%rax
   11be9:	0f 95 c2             	setne  %dl
   11bec:	48 8b 05 9d 22 01 00 	mov    0x1229d(%rip),%rax        # 23e90 <g_2359>
   11bf3:	48 8b 00             	mov    (%rax),%rax
   11bf6:	48 8b 00             	mov    (%rax),%rax
   11bf9:	0f b6 d2             	movzbl %dl,%edx
   11bfc:	89 10                	mov    %edx,(%rax)
   11bfe:	bf 00 00 00 00       	mov    $0x0,%edi
   11c03:	e8 95 57 ff ff       	callq  739d <safe_unary_minus_func_int16_t_s>
   11c08:	98                   	cwtl   
   11c09:	89 de                	mov    %ebx,%esi
   11c0b:	89 c7                	mov    %eax,%edi
   11c0d:	e8 e3 57 ff ff       	callq  73f5 <safe_mul_func_int16_t_s_s>
   11c12:	98                   	cwtl   
   11c13:	25 b3 a1 00 00       	and    $0xa1b3,%eax
   11c18:	89 c3                	mov    %eax,%ebx
   11c1a:	48 8b 85 70 eb ff ff 	mov    -0x1490(%rbp),%rax
   11c21:	8b 00                	mov    (%rax),%eax
   11c23:	89 c2                	mov    %eax,%edx
   11c25:	0f bf 85 6c e9 ff ff 	movswl -0x1694(%rbp),%eax
   11c2c:	89 d6                	mov    %edx,%esi
   11c2e:	89 c7                	mov    %eax,%edi
   11c30:	e8 2e 59 ff ff       	callq  7563 <safe_rshift_func_int16_t_s_u>
   11c35:	48 0f bf c0          	movswq %ax,%rax
   11c39:	48 89 c6             	mov    %rax,%rsi
   11c3c:	bf 01 00 00 00       	mov    $0x1,%edi
   11c41:	e8 e8 63 ff ff       	callq  802e <safe_add_func_uint64_t_u_u>
   11c46:	98                   	cwtl   
   11c47:	89 de                	mov    %ebx,%esi
   11c49:	89 c7                	mov    %eax,%edi
   11c4b:	e8 42 58 ff ff       	callq  7492 <safe_lshift_func_int16_t_s_s>
   11c50:	89 c2                	mov    %eax,%edx
   11c52:	48 8b 85 d0 ea ff ff 	mov    -0x1530(%rbp),%rax
   11c59:	48 8b 00             	mov    (%rax),%rax
   11c5c:	48 0f bf d2          	movswq %dx,%rdx
   11c60:	48 89 10             	mov    %rdx,(%rax)
   11c63:	48 8b 00             	mov    (%rax),%rax
   11c66:	48 85 c0             	test   %rax,%rax
   11c69:	74 07                	je     11c72 <func_31+0x4ed1>
   11c6b:	83 bd d8 e9 ff ff 00 	cmpl   $0x0,-0x1628(%rbp)
   11c72:	0f b7 85 6c e9 ff ff 	movzwl -0x1694(%rbp),%eax
   11c79:	98                   	cwtl   
   11c7a:	31 85 bc e9 ff ff    	xor    %eax,-0x1644(%rbp)
   11c80:	0f b6 05 f5 f5 00 00 	movzbl 0xf5f5(%rip),%eax        # 2127c <g_2042>
   11c87:	83 c0 01             	add    $0x1,%eax
   11c8a:	88 05 ec f5 00 00    	mov    %al,0xf5ec(%rip)        # 2127c <g_2042>
   11c90:	0f b6 05 e5 f5 00 00 	movzbl 0xf5e5(%rip),%eax        # 2127c <g_2042>
   11c97:	3c 36                	cmp    $0x36,%al
   11c99:	0f 86 09 fe ff ff    	jbe    11aa8 <func_31+0x4d07>
   11c9f:	c7 05 67 f5 00 00 f5 	movl   $0xfffffff5,0xf567(%rip)        # 21210 <g_1562>
   11ca6:	ff ff ff 
   11ca9:	eb 2d                	jmp    11cd8 <func_31+0x4f37>
   11cab:	c7 85 e4 e9 ff ff fd 	movl   $0xfffffffd,-0x161c(%rbp)
   11cb2:	ff ff ff 
   11cb5:	48 83 85 48 eb ff ff 	addq   $0x1,-0x14b8(%rbp)
   11cbc:	01 
   11cbd:	8b 05 4d f5 00 00    	mov    0xf54d(%rip),%eax        # 21210 <g_1562>
   11cc3:	89 c0                	mov    %eax,%eax
   11cc5:	be 06 00 00 00       	mov    $0x6,%esi
   11cca:	48 89 c7             	mov    %rax,%rdi
   11ccd:	e8 6f 5b ff ff       	callq  7841 <safe_add_func_int64_t_s_s>
   11cd2:	89 05 38 f5 00 00    	mov    %eax,0xf538(%rip)        # 21210 <g_1562>
   11cd8:	8b 05 32 f5 00 00    	mov    0xf532(%rip),%eax        # 21210 <g_1562>
   11cde:	83 f8 1a             	cmp    $0x1a,%eax
   11ce1:	76 c8                	jbe    11cab <func_31+0x4f0a>
   11ce3:	0f b7 85 6c e9 ff ff 	movzwl -0x1694(%rbp),%eax
   11cea:	0f be c0             	movsbl %al,%eax
   11ced:	be 09 00 00 00       	mov    $0x9,%esi
   11cf2:	89 c7                	mov    %eax,%edi
   11cf4:	e8 f9 54 ff ff       	callq  71f2 <safe_sub_func_int8_t_s_s>
   11cf9:	66 98                	cbtw   
   11cfb:	66 89 85 6c e9 ff ff 	mov    %ax,-0x1694(%rbp)
   11d02:	66 83 bd 6c e9 ff ff 	cmpw   $0x17,-0x1694(%rbp)
   11d09:	17 
   11d0a:	0f 85 78 fd ff ff    	jne    11a88 <func_31+0x4ce7>
   11d10:	48 8b 05 f1 f4 00 00 	mov    0xf4f1(%rip),%rax        # 21208 <g_1489>
   11d17:	be 05 00 00 00       	mov    $0x5,%esi
   11d1c:	48 89 c7             	mov    %rax,%rdi
   11d1f:	e8 27 63 ff ff       	callq  804b <safe_sub_func_uint64_t_u_u>
   11d24:	48 89 05 dd f4 00 00 	mov    %rax,0xf4dd(%rip)        # 21208 <g_1489>
   11d2b:	48 8b 05 d6 f4 00 00 	mov    0xf4d6(%rip),%rax        # 21208 <g_1489>
   11d32:	48 83 f8 e3          	cmp    $0xffffffffffffffe3,%rax
   11d36:	0f 85 11 fc ff ff    	jne    1194d <func_31+0x4bac>
   11d3c:	48 8d 85 54 e9 ff ff 	lea    -0x16ac(%rbp),%rax
   11d43:	48 89 85 b0 eb ff ff 	mov    %rax,-0x1450(%rbp)
   11d4a:	48 8b 85 b0 eb ff ff 	mov    -0x1450(%rbp),%rax
   11d51:	48 89 85 70 eb ff ff 	mov    %rax,-0x1490(%rbp)
   11d58:	48 8b 85 70 eb ff ff 	mov    -0x1490(%rbp),%rax
   11d5f:	48 89 85 d8 ee ff ff 	mov    %rax,-0x1128(%rbp)
   11d66:	eb 07                	jmp    11d6f <func_31+0x4fce>
   11d68:	90                   	nop
   11d69:	eb 04                	jmp    11d6f <func_31+0x4fce>
   11d6b:	90                   	nop
   11d6c:	eb 01                	jmp    11d6f <func_31+0x4fce>
   11d6e:	90                   	nop
   11d6f:	83 85 d0 e9 ff ff 01 	addl   $0x1,-0x1630(%rbp)
   11d76:	48 8b 05 23 21 01 00 	mov    0x12123(%rip),%rax        # 23ea0 <g_2357>
   11d7d:	48 8b 00             	mov    (%rax),%rax
   11d80:	48 8b 00             	mov    (%rax),%rax
   11d83:	48 8b 00             	mov    (%rax),%rax
   11d86:	48 8b 10             	mov    (%rax),%rdx
   11d89:	48 8b 05 f8 20 01 00 	mov    0x120f8(%rip),%rax        # 23e88 <g_2360>
   11d90:	48 8b 00             	mov    (%rax),%rax
   11d93:	48 39 c2             	cmp    %rax,%rdx
   11d96:	0f 95 c2             	setne  %dl
   11d99:	48 8b 05 e8 1c 01 00 	mov    0x11ce8(%rip),%rax        # 23a88 <g_1408>
   11da0:	48 8b 00             	mov    (%rax),%rax
   11da3:	0f b6 d2             	movzbl %dl,%edx
   11da6:	66 89 10             	mov    %dx,(%rax)
   11da9:	48 83 bd 58 eb ff ff 	cmpq   $0x0,-0x14a8(%rbp)
   11db0:	00 
   11db1:	74 10                	je     11dc3 <func_31+0x5022>
   11db3:	83 bd 68 e9 ff ff 00 	cmpl   $0x0,-0x1698(%rbp)
   11dba:	74 07                	je     11dc3 <func_31+0x5022>
   11dbc:	ba 01 00 00 00       	mov    $0x1,%edx
   11dc1:	eb 05                	jmp    11dc8 <func_31+0x5027>
   11dc3:	ba 00 00 00 00       	mov    $0x0,%edx
   11dc8:	8b 85 54 e9 ff ff    	mov    -0x16ac(%rbp),%eax
   11dce:	09 d0                	or     %edx,%eax
   11dd0:	89 85 54 e9 ff ff    	mov    %eax,-0x16ac(%rbp)
   11dd6:	48 8b 85 60 eb ff ff 	mov    -0x14a0(%rbp),%rax
   11ddd:	48 89 85 68 eb ff ff 	mov    %rax,-0x1498(%rbp)
   11de4:	48 8b 85 58 e9 ff ff 	mov    -0x16a8(%rbp),%rax
   11deb:	48 8b 5d c8          	mov    -0x38(%rbp),%rbx
   11def:	64 48 33 1c 25 28 00 	xor    %fs:0x28,%rbx
   11df6:	00 00 
   11df8:	74 05                	je     11dff <func_31+0x505e>
   11dfa:	e8 71 52 ff ff       	callq  7070 <__stack_chk_fail@plt>
   11dff:	48 81 c4 98 16 00 00 	add    $0x1698,%rsp
   11e06:	5b                   	pop    %rbx
   11e07:	41 5c                	pop    %r12
   11e09:	41 5d                	pop    %r13
   11e0b:	41 5e                	pop    %r14
   11e0d:	41 5f                	pop    %r15
   11e0f:	5d                   	pop    %rbp
   11e10:	c3                   	retq   

0000000000011e11 <func_37>:
   11e11:	f3 0f 1e fa          	endbr64 
   11e15:	55                   	push   %rbp
   11e16:	48 89 e5             	mov    %rsp,%rbp
   11e19:	41 57                	push   %r15
   11e1b:	41 56                	push   %r14
   11e1d:	41 55                	push   %r13
   11e1f:	41 54                	push   %r12
   11e21:	53                   	push   %rbx
   11e22:	48 81 ec b8 0a 00 00 	sub    $0xab8,%rsp
   11e29:	89 f8                	mov    %edi,%eax
   11e2b:	89 b5 38 f5 ff ff    	mov    %esi,-0xac8(%rbp)
   11e31:	89 95 34 f5 ff ff    	mov    %edx,-0xacc(%rbp)
   11e37:	66 89 85 3c f5 ff ff 	mov    %ax,-0xac4(%rbp)
   11e3e:	64 48 8b 04 25 28 00 	mov    %fs:0x28,%rax
   11e45:	00 00 
   11e47:	48 89 45 c8          	mov    %rax,-0x38(%rbp)
   11e4b:	31 c0                	xor    %eax,%eax
   11e4d:	48 b8 3d 48 80 a2 97 	movabs $0x26ade097a280483d,%rax
   11e54:	e0 ad 26 
   11e57:	48 89 85 50 f5 ff ff 	mov    %rax,-0xab0(%rbp)
   11e5e:	48 8d 05 bf f1 00 00 	lea    0xf1bf(%rip),%rax        # 21024 <g_11>
   11e65:	48 89 85 58 f5 ff ff 	mov    %rax,-0xaa8(%rbp)
   11e6c:	48 8d 85 58 f5 ff ff 	lea    -0xaa8(%rbp),%rax
   11e73:	48 89 85 60 f5 ff ff 	mov    %rax,-0xaa0(%rbp)
   11e7a:	48 8d 05 1e f3 00 00 	lea    0xf31e(%rip),%rax        # 2119f <g_359>
   11e81:	48 89 85 68 f5 ff ff 	mov    %rax,-0xa98(%rbp)
   11e88:	48 8d 05 b1 f1 00 00 	lea    0xf1b1(%rip),%rax        # 21040 <g_59>
   11e8f:	48 89 85 30 f8 ff ff 	mov    %rax,-0x7d0(%rbp)
   11e96:	48 8d 05 a3 f1 00 00 	lea    0xf1a3(%rip),%rax        # 21040 <g_59>
   11e9d:	48 89 85 38 f8 ff ff 	mov    %rax,-0x7c8(%rbp)
   11ea4:	48 8d 85 50 f5 ff ff 	lea    -0xab0(%rbp),%rax
   11eab:	48 89 85 40 f8 ff ff 	mov    %rax,-0x7c0(%rbp)
   11eb2:	48 8d 05 bf f2 00 00 	lea    0xf2bf(%rip),%rax        # 21178 <g_112>
   11eb9:	48 89 85 48 f8 ff ff 	mov    %rax,-0x7b8(%rbp)
   11ec0:	48 c7 85 50 f8 ff ff 	movq   $0x0,-0x7b0(%rbp)
   11ec7:	00 00 00 00 
   11ecb:	48 8d 05 6e f1 00 00 	lea    0xf16e(%rip),%rax        # 21040 <g_59>
   11ed2:	48 89 85 58 f8 ff ff 	mov    %rax,-0x7a8(%rbp)
   11ed9:	48 c7 85 60 f8 ff ff 	movq   $0x0,-0x7a0(%rbp)
   11ee0:	00 00 00 00 
   11ee4:	48 c7 85 68 f8 ff ff 	movq   $0x0,-0x798(%rbp)
   11eeb:	00 00 00 00 
   11eef:	48 8d 85 50 f5 ff ff 	lea    -0xab0(%rbp),%rax
   11ef6:	48 89 85 70 f8 ff ff 	mov    %rax,-0x790(%rbp)
   11efd:	48 8d 05 74 f2 00 00 	lea    0xf274(%rip),%rax        # 21178 <g_112>
   11f04:	48 89 85 78 f8 ff ff 	mov    %rax,-0x788(%rbp)
   11f0b:	48 8d 05 2e f1 00 00 	lea    0xf12e(%rip),%rax        # 21040 <g_59>
   11f12:	48 89 85 80 f8 ff ff 	mov    %rax,-0x780(%rbp)
   11f19:	48 c7 85 88 f8 ff ff 	movq   $0x0,-0x778(%rbp)
   11f20:	00 00 00 00 
   11f24:	48 8d 05 4d f2 00 00 	lea    0xf24d(%rip),%rax        # 21178 <g_112>
   11f2b:	48 89 85 90 f8 ff ff 	mov    %rax,-0x770(%rbp)
   11f32:	48 8d 05 3f f2 00 00 	lea    0xf23f(%rip),%rax        # 21178 <g_112>
   11f39:	48 89 85 98 f8 ff ff 	mov    %rax,-0x768(%rbp)
   11f40:	48 c7 85 a0 f8 ff ff 	movq   $0x0,-0x760(%rbp)
   11f47:	00 00 00 00 
   11f4b:	48 8d 85 50 f5 ff ff 	lea    -0xab0(%rbp),%rax
   11f52:	48 89 85 a8 f8 ff ff 	mov    %rax,-0x758(%rbp)
   11f59:	48 8d 85 50 f5 ff ff 	lea    -0xab0(%rbp),%rax
   11f60:	48 89 85 b0 f8 ff ff 	mov    %rax,-0x750(%rbp)
   11f67:	48 8d 05 0a f2 00 00 	lea    0xf20a(%rip),%rax        # 21178 <g_112>
   11f6e:	48 89 85 b8 f8 ff ff 	mov    %rax,-0x748(%rbp)
   11f75:	48 8d 05 fc f1 00 00 	lea    0xf1fc(%rip),%rax        # 21178 <g_112>
   11f7c:	48 89 85 c0 f8 ff ff 	mov    %rax,-0x740(%rbp)
   11f83:	48 8d 05 b6 f0 00 00 	lea    0xf0b6(%rip),%rax        # 21040 <g_59>
   11f8a:	48 89 85 c8 f8 ff ff 	mov    %rax,-0x738(%rbp)
   11f91:	48 8d 05 e0 f1 00 00 	lea    0xf1e0(%rip),%rax        # 21178 <g_112>
   11f98:	48 89 85 d0 f8 ff ff 	mov    %rax,-0x730(%rbp)
   11f9f:	48 8d 05 d2 f1 00 00 	lea    0xf1d2(%rip),%rax        # 21178 <g_112>
   11fa6:	48 89 85 d8 f8 ff ff 	mov    %rax,-0x728(%rbp)
   11fad:	48 8d 85 50 f5 ff ff 	lea    -0xab0(%rbp),%rax
   11fb4:	48 89 85 e0 f8 ff ff 	mov    %rax,-0x720(%rbp)
   11fbb:	48 c7 85 e8 f8 ff ff 	movq   $0x0,-0x718(%rbp)
   11fc2:	00 00 00 00 
   11fc6:	48 8d 05 ab f1 00 00 	lea    0xf1ab(%rip),%rax        # 21178 <g_112>
   11fcd:	48 89 85 f0 f8 ff ff 	mov    %rax,-0x710(%rbp)
   11fd4:	48 8d 85 50 f5 ff ff 	lea    -0xab0(%rbp),%rax
   11fdb:	48 89 85 f8 f8 ff ff 	mov    %rax,-0x708(%rbp)
   11fe2:	48 c7 85 00 f9 ff ff 	movq   $0x0,-0x700(%rbp)
   11fe9:	00 00 00 00 
   11fed:	48 8d 05 84 f1 00 00 	lea    0xf184(%rip),%rax        # 21178 <g_112>
   11ff4:	48 89 85 08 f9 ff ff 	mov    %rax,-0x6f8(%rbp)
   11ffb:	48 8d 05 3e f0 00 00 	lea    0xf03e(%rip),%rax        # 21040 <g_59>
   12002:	48 89 85 10 f9 ff ff 	mov    %rax,-0x6f0(%rbp)
   12009:	48 8d 05 30 f0 00 00 	lea    0xf030(%rip),%rax        # 21040 <g_59>
   12010:	48 89 85 18 f9 ff ff 	mov    %rax,-0x6e8(%rbp)
   12017:	48 8d 05 22 f0 00 00 	lea    0xf022(%rip),%rax        # 21040 <g_59>
   1201e:	48 89 85 20 f9 ff ff 	mov    %rax,-0x6e0(%rbp)
   12025:	48 8d 85 50 f5 ff ff 	lea    -0xab0(%rbp),%rax
   1202c:	48 89 85 28 f9 ff ff 	mov    %rax,-0x6d8(%rbp)
   12033:	48 8d 05 3e f1 00 00 	lea    0xf13e(%rip),%rax        # 21178 <g_112>
   1203a:	48 89 85 30 f9 ff ff 	mov    %rax,-0x6d0(%rbp)
   12041:	48 8d 05 f8 ef 00 00 	lea    0xeff8(%rip),%rax        # 21040 <g_59>
   12048:	48 89 85 38 f9 ff ff 	mov    %rax,-0x6c8(%rbp)
   1204f:	48 8d 05 22 f1 00 00 	lea    0xf122(%rip),%rax        # 21178 <g_112>
   12056:	48 89 85 40 f9 ff ff 	mov    %rax,-0x6c0(%rbp)
   1205d:	48 8d 05 14 f1 00 00 	lea    0xf114(%rip),%rax        # 21178 <g_112>
   12064:	48 89 85 48 f9 ff ff 	mov    %rax,-0x6b8(%rbp)
   1206b:	48 8d 05 06 f1 00 00 	lea    0xf106(%rip),%rax        # 21178 <g_112>
   12072:	48 89 85 50 f9 ff ff 	mov    %rax,-0x6b0(%rbp)
   12079:	48 8d 85 50 f5 ff ff 	lea    -0xab0(%rbp),%rax
   12080:	48 89 85 58 f9 ff ff 	mov    %rax,-0x6a8(%rbp)
   12087:	48 8d 05 ea f0 00 00 	lea    0xf0ea(%rip),%rax        # 21178 <g_112>
   1208e:	48 89 85 60 f9 ff ff 	mov    %rax,-0x6a0(%rbp)
   12095:	48 8d 05 a4 ef 00 00 	lea    0xefa4(%rip),%rax        # 21040 <g_59>
   1209c:	48 89 85 68 f9 ff ff 	mov    %rax,-0x698(%rbp)
   120a3:	48 8d 05 96 ef 00 00 	lea    0xef96(%rip),%rax        # 21040 <g_59>
   120aa:	48 89 85 70 f9 ff ff 	mov    %rax,-0x690(%rbp)
   120b1:	48 c7 85 78 f9 ff ff 	movq   $0x0,-0x688(%rbp)
   120b8:	00 00 00 00 
   120bc:	48 8d 05 7d ef 00 00 	lea    0xef7d(%rip),%rax        # 21040 <g_59>
   120c3:	48 89 85 80 f9 ff ff 	mov    %rax,-0x680(%rbp)
   120ca:	48 8d 05 6f ef 00 00 	lea    0xef6f(%rip),%rax        # 21040 <g_59>
   120d1:	48 89 85 88 f9 ff ff 	mov    %rax,-0x678(%rbp)
   120d8:	48 c7 85 90 f9 ff ff 	movq   $0x0,-0x670(%rbp)
   120df:	00 00 00 00 
   120e3:	48 8d 05 8e f0 00 00 	lea    0xf08e(%rip),%rax        # 21178 <g_112>
   120ea:	48 89 85 98 f9 ff ff 	mov    %rax,-0x668(%rbp)
   120f1:	48 8d 85 50 f5 ff ff 	lea    -0xab0(%rbp),%rax
   120f8:	48 89 85 a0 f9 ff ff 	mov    %rax,-0x660(%rbp)
   120ff:	48 8d 85 50 f5 ff ff 	lea    -0xab0(%rbp),%rax
   12106:	48 89 85 a8 f9 ff ff 	mov    %rax,-0x658(%rbp)
   1210d:	48 8d 05 64 f0 00 00 	lea    0xf064(%rip),%rax        # 21178 <g_112>
   12114:	48 89 85 b0 f9 ff ff 	mov    %rax,-0x650(%rbp)
   1211b:	48 c7 85 b8 f9 ff ff 	movq   $0x0,-0x648(%rbp)
   12122:	00 00 00 00 
   12126:	48 8d 85 50 f5 ff ff 	lea    -0xab0(%rbp),%rax
   1212d:	48 89 85 c0 f9 ff ff 	mov    %rax,-0x640(%rbp)
   12134:	48 8d 05 3d f0 00 00 	lea    0xf03d(%rip),%rax        # 21178 <g_112>
   1213b:	48 89 85 c8 f9 ff ff 	mov    %rax,-0x638(%rbp)
   12142:	48 8d 85 50 f5 ff ff 	lea    -0xab0(%rbp),%rax
   12149:	48 89 85 d0 f9 ff ff 	mov    %rax,-0x630(%rbp)
   12150:	48 c7 85 d8 f9 ff ff 	movq   $0x0,-0x628(%rbp)
   12157:	00 00 00 00 
   1215b:	48 8d 05 16 f0 00 00 	lea    0xf016(%rip),%rax        # 21178 <g_112>
   12162:	48 89 85 e0 f9 ff ff 	mov    %rax,-0x620(%rbp)
   12169:	48 8d 05 d0 ee 00 00 	lea    0xeed0(%rip),%rax        # 21040 <g_59>
   12170:	48 89 85 e8 f9 ff ff 	mov    %rax,-0x618(%rbp)
   12177:	48 c7 85 f0 f9 ff ff 	movq   $0x0,-0x610(%rbp)
   1217e:	00 00 00 00 
   12182:	48 8d 85 50 f5 ff ff 	lea    -0xab0(%rbp),%rax
   12189:	48 89 85 f8 f9 ff ff 	mov    %rax,-0x608(%rbp)
   12190:	48 8d 05 e1 ef 00 00 	lea    0xefe1(%rip),%rax        # 21178 <g_112>
   12197:	48 89 85 00 fa ff ff 	mov    %rax,-0x600(%rbp)
   1219e:	48 8d 05 d3 ef 00 00 	lea    0xefd3(%rip),%rax        # 21178 <g_112>
   121a5:	48 89 85 08 fa ff ff 	mov    %rax,-0x5f8(%rbp)
   121ac:	48 8d 05 c5 ef 00 00 	lea    0xefc5(%rip),%rax        # 21178 <g_112>
   121b3:	48 89 85 10 fa ff ff 	mov    %rax,-0x5f0(%rbp)
   121ba:	48 8d 85 50 f5 ff ff 	lea    -0xab0(%rbp),%rax
   121c1:	48 89 85 18 fa ff ff 	mov    %rax,-0x5e8(%rbp)
   121c8:	48 8d 05 a9 ef 00 00 	lea    0xefa9(%rip),%rax        # 21178 <g_112>
   121cf:	48 89 85 20 fa ff ff 	mov    %rax,-0x5e0(%rbp)
   121d6:	48 8d 05 63 ee 00 00 	lea    0xee63(%rip),%rax        # 21040 <g_59>
   121dd:	48 89 85 28 fa ff ff 	mov    %rax,-0x5d8(%rbp)
   121e4:	48 8d 05 8d ef 00 00 	lea    0xef8d(%rip),%rax        # 21178 <g_112>
   121eb:	48 89 85 30 fa ff ff 	mov    %rax,-0x5d0(%rbp)
   121f2:	48 8d 05 7f ef 00 00 	lea    0xef7f(%rip),%rax        # 21178 <g_112>
   121f9:	48 89 85 38 fa ff ff 	mov    %rax,-0x5c8(%rbp)
   12200:	48 8d 05 71 ef 00 00 	lea    0xef71(%rip),%rax        # 21178 <g_112>
   12207:	48 89 85 40 fa ff ff 	mov    %rax,-0x5c0(%rbp)
   1220e:	48 8d 05 2b ee 00 00 	lea    0xee2b(%rip),%rax        # 21040 <g_59>
   12215:	48 89 85 48 fa ff ff 	mov    %rax,-0x5b8(%rbp)
   1221c:	48 8d 05 1d ee 00 00 	lea    0xee1d(%rip),%rax        # 21040 <g_59>
   12223:	48 89 85 50 fa ff ff 	mov    %rax,-0x5b0(%rbp)
   1222a:	48 8d 85 50 f5 ff ff 	lea    -0xab0(%rbp),%rax
   12231:	48 89 85 58 fa ff ff 	mov    %rax,-0x5a8(%rbp)
   12238:	48 8d 85 50 f5 ff ff 	lea    -0xab0(%rbp),%rax
   1223f:	48 89 85 60 fa ff ff 	mov    %rax,-0x5a0(%rbp)
   12246:	48 c7 85 68 fa ff ff 	movq   $0x0,-0x598(%rbp)
   1224d:	00 00 00 00 
   12251:	48 8d 85 50 f5 ff ff 	lea    -0xab0(%rbp),%rax
   12258:	48 89 85 70 fa ff ff 	mov    %rax,-0x590(%rbp)
   1225f:	48 c7 85 78 fa ff ff 	movq   $0x0,-0x588(%rbp)
   12266:	00 00 00 00 
   1226a:	48 c7 85 80 fa ff ff 	movq   $0x0,-0x580(%rbp)
   12271:	00 00 00 00 
   12275:	48 8d 85 50 f5 ff ff 	lea    -0xab0(%rbp),%rax
   1227c:	48 89 85 88 fa ff ff 	mov    %rax,-0x578(%rbp)
   12283:	48 8d 85 50 f5 ff ff 	lea    -0xab0(%rbp),%rax
   1228a:	48 89 85 90 fa ff ff 	mov    %rax,-0x570(%rbp)
   12291:	48 8d 05 e0 ee 00 00 	lea    0xeee0(%rip),%rax        # 21178 <g_112>
   12298:	48 89 85 98 fa ff ff 	mov    %rax,-0x568(%rbp)
   1229f:	48 8d 85 50 f5 ff ff 	lea    -0xab0(%rbp),%rax
   122a6:	48 89 85 a0 fa ff ff 	mov    %rax,-0x560(%rbp)
   122ad:	48 8d 05 8c ed 00 00 	lea    0xed8c(%rip),%rax        # 21040 <g_59>
   122b4:	48 89 85 a8 fa ff ff 	mov    %rax,-0x558(%rbp)
   122bb:	48 8d 05 b6 ee 00 00 	lea    0xeeb6(%rip),%rax        # 21178 <g_112>
   122c2:	48 89 85 b0 fa ff ff 	mov    %rax,-0x550(%rbp)
   122c9:	48 8d 05 a8 ee 00 00 	lea    0xeea8(%rip),%rax        # 21178 <g_112>
   122d0:	48 89 85 b8 fa ff ff 	mov    %rax,-0x548(%rbp)
   122d7:	48 8d 05 62 ed 00 00 	lea    0xed62(%rip),%rax        # 21040 <g_59>
   122de:	48 89 85 c0 fa ff ff 	mov    %rax,-0x540(%rbp)
   122e5:	48 c7 85 c8 fa ff ff 	movq   $0x0,-0x538(%rbp)
   122ec:	00 00 00 00 
   122f0:	48 8d 05 49 ed 00 00 	lea    0xed49(%rip),%rax        # 21040 <g_59>
   122f7:	48 89 85 d0 fa ff ff 	mov    %rax,-0x530(%rbp)
   122fe:	48 8d 85 50 f5 ff ff 	lea    -0xab0(%rbp),%rax
   12305:	48 89 85 d8 fa ff ff 	mov    %rax,-0x528(%rbp)
   1230c:	48 c7 85 e0 fa ff ff 	movq   $0x0,-0x520(%rbp)
   12313:	00 00 00 00 
   12317:	48 8d 05 5a ee 00 00 	lea    0xee5a(%rip),%rax        # 21178 <g_112>
   1231e:	48 89 85 e8 fa ff ff 	mov    %rax,-0x518(%rbp)
   12325:	48 8d 05 4c ee 00 00 	lea    0xee4c(%rip),%rax        # 21178 <g_112>
   1232c:	48 89 85 f0 fa ff ff 	mov    %rax,-0x510(%rbp)
   12333:	48 c7 85 f8 fa ff ff 	movq   $0x0,-0x508(%rbp)
   1233a:	00 00 00 00 
   1233e:	48 8d 85 50 f5 ff ff 	lea    -0xab0(%rbp),%rax
   12345:	48 89 85 00 fb ff ff 	mov    %rax,-0x500(%rbp)
   1234c:	48 8d 85 50 f5 ff ff 	lea    -0xab0(%rbp),%rax
   12353:	48 89 85 08 fb ff ff 	mov    %rax,-0x4f8(%rbp)
   1235a:	48 8d 05 17 ee 00 00 	lea    0xee17(%rip),%rax        # 21178 <g_112>
   12361:	48 89 85 10 fb ff ff 	mov    %rax,-0x4f0(%rbp)
   12368:	48 8d 05 09 ee 00 00 	lea    0xee09(%rip),%rax        # 21178 <g_112>
   1236f:	48 89 85 18 fb ff ff 	mov    %rax,-0x4e8(%rbp)
   12376:	48 8d 05 c3 ec 00 00 	lea    0xecc3(%rip),%rax        # 21040 <g_59>
   1237d:	48 89 85 20 fb ff ff 	mov    %rax,-0x4e0(%rbp)
   12384:	48 8d 05 ed ed 00 00 	lea    0xeded(%rip),%rax        # 21178 <g_112>
   1238b:	48 89 85 28 fb ff ff 	mov    %rax,-0x4d8(%rbp)
   12392:	48 8d 05 df ed 00 00 	lea    0xeddf(%rip),%rax        # 21178 <g_112>
   12399:	48 89 85 30 fb ff ff 	mov    %rax,-0x4d0(%rbp)
   123a0:	48 8d 85 50 f5 ff ff 	lea    -0xab0(%rbp),%rax
   123a7:	48 89 85 38 fb ff ff 	mov    %rax,-0x4c8(%rbp)
   123ae:	48 c7 85 40 fb ff ff 	movq   $0x0,-0x4c0(%rbp)
   123b5:	00 00 00 00 
   123b9:	48 8d 05 b8 ed 00 00 	lea    0xedb8(%rip),%rax        # 21178 <g_112>
   123c0:	48 89 85 48 fb ff ff 	mov    %rax,-0x4b8(%rbp)
   123c7:	48 8d 85 50 f5 ff ff 	lea    -0xab0(%rbp),%rax
   123ce:	48 89 85 50 fb ff ff 	mov    %rax,-0x4b0(%rbp)
   123d5:	48 c7 85 58 fb ff ff 	movq   $0x0,-0x4a8(%rbp)
   123dc:	00 00 00 00 
   123e0:	48 8d 05 91 ed 00 00 	lea    0xed91(%rip),%rax        # 21178 <g_112>
   123e7:	48 89 85 60 fb ff ff 	mov    %rax,-0x4a0(%rbp)
   123ee:	48 8d 05 4b ec 00 00 	lea    0xec4b(%rip),%rax        # 21040 <g_59>
   123f5:	48 89 85 68 fb ff ff 	mov    %rax,-0x498(%rbp)
   123fc:	48 8d 05 3d ec 00 00 	lea    0xec3d(%rip),%rax        # 21040 <g_59>
   12403:	48 89 85 70 fb ff ff 	mov    %rax,-0x490(%rbp)
   1240a:	48 8d 05 2f ec 00 00 	lea    0xec2f(%rip),%rax        # 21040 <g_59>
   12411:	48 89 85 78 fb ff ff 	mov    %rax,-0x488(%rbp)
   12418:	48 8d 85 50 f5 ff ff 	lea    -0xab0(%rbp),%rax
   1241f:	48 89 85 80 fb ff ff 	mov    %rax,-0x480(%rbp)
   12426:	48 8d 05 4b ed 00 00 	lea    0xed4b(%rip),%rax        # 21178 <g_112>
   1242d:	48 89 85 88 fb ff ff 	mov    %rax,-0x478(%rbp)
   12434:	48 8d 05 05 ec 00 00 	lea    0xec05(%rip),%rax        # 21040 <g_59>
   1243b:	48 89 85 90 fb ff ff 	mov    %rax,-0x470(%rbp)
   12442:	48 8d 05 2f ed 00 00 	lea    0xed2f(%rip),%rax        # 21178 <g_112>
   12449:	48 89 85 98 fb ff ff 	mov    %rax,-0x468(%rbp)
   12450:	48 8d 05 21 ed 00 00 	lea    0xed21(%rip),%rax        # 21178 <g_112>
   12457:	48 89 85 a0 fb ff ff 	mov    %rax,-0x460(%rbp)
   1245e:	48 8d 05 13 ed 00 00 	lea    0xed13(%rip),%rax        # 21178 <g_112>
   12465:	48 89 85 a8 fb ff ff 	mov    %rax,-0x458(%rbp)
   1246c:	48 8d 85 50 f5 ff ff 	lea    -0xab0(%rbp),%rax
   12473:	48 89 85 b0 fb ff ff 	mov    %rax,-0x450(%rbp)
   1247a:	48 8d 05 f7 ec 00 00 	lea    0xecf7(%rip),%rax        # 21178 <g_112>
   12481:	48 89 85 b8 fb ff ff 	mov    %rax,-0x448(%rbp)
   12488:	48 8d 05 b1 eb 00 00 	lea    0xebb1(%rip),%rax        # 21040 <g_59>
   1248f:	48 89 85 c0 fb ff ff 	mov    %rax,-0x440(%rbp)
   12496:	48 8d 05 a3 eb 00 00 	lea    0xeba3(%rip),%rax        # 21040 <g_59>
   1249d:	48 89 85 c8 fb ff ff 	mov    %rax,-0x438(%rbp)
   124a4:	48 c7 85 d0 fb ff ff 	movq   $0x0,-0x430(%rbp)
   124ab:	00 00 00 00 
   124af:	48 8d 05 8a eb 00 00 	lea    0xeb8a(%rip),%rax        # 21040 <g_59>
   124b6:	48 89 85 d8 fb ff ff 	mov    %rax,-0x428(%rbp)
   124bd:	48 8d 05 7c eb 00 00 	lea    0xeb7c(%rip),%rax        # 21040 <g_59>
   124c4:	48 89 85 e0 fb ff ff 	mov    %rax,-0x420(%rbp)
   124cb:	48 c7 85 e8 fb ff ff 	movq   $0x0,-0x418(%rbp)
   124d2:	00 00 00 00 
   124d6:	48 8d 05 9b ec 00 00 	lea    0xec9b(%rip),%rax        # 21178 <g_112>
   124dd:	48 89 85 f0 fb ff ff 	mov    %rax,-0x410(%rbp)
   124e4:	48 8d 85 50 f5 ff ff 	lea    -0xab0(%rbp),%rax
   124eb:	48 89 85 f8 fb ff ff 	mov    %rax,-0x408(%rbp)
   124f2:	48 8d 85 50 f5 ff ff 	lea    -0xab0(%rbp),%rax
   124f9:	48 89 85 00 fc ff ff 	mov    %rax,-0x400(%rbp)
   12500:	48 8d 05 71 ec 00 00 	lea    0xec71(%rip),%rax        # 21178 <g_112>
   12507:	48 89 85 08 fc ff ff 	mov    %rax,-0x3f8(%rbp)
   1250e:	48 c7 85 10 fc ff ff 	movq   $0x0,-0x3f0(%rbp)
   12515:	00 00 00 00 
   12519:	48 8d 85 50 f5 ff ff 	lea    -0xab0(%rbp),%rax
   12520:	48 89 85 18 fc ff ff 	mov    %rax,-0x3e8(%rbp)
   12527:	48 8d 05 4a ec 00 00 	lea    0xec4a(%rip),%rax        # 21178 <g_112>
   1252e:	48 89 85 20 fc ff ff 	mov    %rax,-0x3e0(%rbp)
   12535:	48 8d 85 50 f5 ff ff 	lea    -0xab0(%rbp),%rax
   1253c:	48 89 85 28 fc ff ff 	mov    %rax,-0x3d8(%rbp)
   12543:	48 c7 85 30 fc ff ff 	movq   $0x0,-0x3d0(%rbp)
   1254a:	00 00 00 00 
   1254e:	48 8d 05 23 ec 00 00 	lea    0xec23(%rip),%rax        # 21178 <g_112>
   12555:	48 89 85 38 fc ff ff 	mov    %rax,-0x3c8(%rbp)
   1255c:	48 8d 05 dd ea 00 00 	lea    0xeadd(%rip),%rax        # 21040 <g_59>
   12563:	48 89 85 40 fc ff ff 	mov    %rax,-0x3c0(%rbp)
   1256a:	48 c7 85 48 fc ff ff 	movq   $0x0,-0x3b8(%rbp)
   12571:	00 00 00 00 
   12575:	48 8d 85 50 f5 ff ff 	lea    -0xab0(%rbp),%rax
   1257c:	48 89 85 50 fc ff ff 	mov    %rax,-0x3b0(%rbp)
   12583:	48 8d 05 ee eb 00 00 	lea    0xebee(%rip),%rax        # 21178 <g_112>
   1258a:	48 89 85 58 fc ff ff 	mov    %rax,-0x3a8(%rbp)
   12591:	48 8d 05 e0 eb 00 00 	lea    0xebe0(%rip),%rax        # 21178 <g_112>
   12598:	48 89 85 60 fc ff ff 	mov    %rax,-0x3a0(%rbp)
   1259f:	48 8d 05 d2 eb 00 00 	lea    0xebd2(%rip),%rax        # 21178 <g_112>
   125a6:	48 89 85 68 fc ff ff 	mov    %rax,-0x398(%rbp)
   125ad:	48 8d 85 50 f5 ff ff 	lea    -0xab0(%rbp),%rax
   125b4:	48 89 85 70 fc ff ff 	mov    %rax,-0x390(%rbp)
   125bb:	48 8d 05 b6 eb 00 00 	lea    0xebb6(%rip),%rax        # 21178 <g_112>
   125c2:	48 89 85 78 fc ff ff 	mov    %rax,-0x388(%rbp)
   125c9:	48 8d 05 70 ea 00 00 	lea    0xea70(%rip),%rax        # 21040 <g_59>
   125d0:	48 89 85 80 fc ff ff 	mov    %rax,-0x380(%rbp)
   125d7:	48 8d 05 9a eb 00 00 	lea    0xeb9a(%rip),%rax        # 21178 <g_112>
   125de:	48 89 85 88 fc ff ff 	mov    %rax,-0x378(%rbp)
   125e5:	48 8d 05 8c eb 00 00 	lea    0xeb8c(%rip),%rax        # 21178 <g_112>
   125ec:	48 89 85 90 fc ff ff 	mov    %rax,-0x370(%rbp)
   125f3:	48 8d 05 7e eb 00 00 	lea    0xeb7e(%rip),%rax        # 21178 <g_112>
   125fa:	48 89 85 98 fc ff ff 	mov    %rax,-0x368(%rbp)
   12601:	48 8d 05 38 ea 00 00 	lea    0xea38(%rip),%rax        # 21040 <g_59>
   12608:	48 89 85 a0 fc ff ff 	mov    %rax,-0x360(%rbp)
   1260f:	48 8d 05 2a ea 00 00 	lea    0xea2a(%rip),%rax        # 21040 <g_59>
   12616:	48 89 85 a8 fc ff ff 	mov    %rax,-0x358(%rbp)
   1261d:	48 8d 85 50 f5 ff ff 	lea    -0xab0(%rbp),%rax
   12624:	48 89 85 b0 fc ff ff 	mov    %rax,-0x350(%rbp)
   1262b:	48 8d 85 50 f5 ff ff 	lea    -0xab0(%rbp),%rax
   12632:	48 89 85 b8 fc ff ff 	mov    %rax,-0x348(%rbp)
   12639:	48 c7 85 c0 fc ff ff 	movq   $0x0,-0x340(%rbp)
   12640:	00 00 00 00 
   12644:	48 8d 85 50 f5 ff ff 	lea    -0xab0(%rbp),%rax
   1264b:	48 89 85 c8 fc ff ff 	mov    %rax,-0x338(%rbp)
   12652:	48 c7 85 d0 fc ff ff 	movq   $0x0,-0x330(%rbp)
   12659:	00 00 00 00 
   1265d:	48 c7 85 d8 fc ff ff 	movq   $0x0,-0x328(%rbp)
   12664:	00 00 00 00 
   12668:	48 8d 85 50 f5 ff ff 	lea    -0xab0(%rbp),%rax
   1266f:	48 89 85 e0 fc ff ff 	mov    %rax,-0x320(%rbp)
   12676:	48 8d 85 50 f5 ff ff 	lea    -0xab0(%rbp),%rax
   1267d:	48 89 85 e8 fc ff ff 	mov    %rax,-0x318(%rbp)
   12684:	48 8d 05 ed ea 00 00 	lea    0xeaed(%rip),%rax        # 21178 <g_112>
   1268b:	48 89 85 f0 fc ff ff 	mov    %rax,-0x310(%rbp)
   12692:	48 8d 85 50 f5 ff ff 	lea    -0xab0(%rbp),%rax
   12699:	48 89 85 f8 fc ff ff 	mov    %rax,-0x308(%rbp)
   126a0:	48 8d 05 99 e9 00 00 	lea    0xe999(%rip),%rax        # 21040 <g_59>
   126a7:	48 89 85 00 fd ff ff 	mov    %rax,-0x300(%rbp)
   126ae:	48 8d 05 c3 ea 00 00 	lea    0xeac3(%rip),%rax        # 21178 <g_112>
   126b5:	48 89 85 08 fd ff ff 	mov    %rax,-0x2f8(%rbp)
   126bc:	48 8d 05 b5 ea 00 00 	lea    0xeab5(%rip),%rax        # 21178 <g_112>
   126c3:	48 89 85 10 fd ff ff 	mov    %rax,-0x2f0(%rbp)
   126ca:	48 8d 05 6f e9 00 00 	lea    0xe96f(%rip),%rax        # 21040 <g_59>
   126d1:	48 89 85 18 fd ff ff 	mov    %rax,-0x2e8(%rbp)
   126d8:	48 c7 85 20 fd ff ff 	movq   $0x0,-0x2e0(%rbp)
   126df:	00 00 00 00 
   126e3:	48 8d 05 56 e9 00 00 	lea    0xe956(%rip),%rax        # 21040 <g_59>
   126ea:	48 89 85 28 fd ff ff 	mov    %rax,-0x2d8(%rbp)
   126f1:	48 8d 85 50 f5 ff ff 	lea    -0xab0(%rbp),%rax
   126f8:	48 89 85 30 fd ff ff 	mov    %rax,-0x2d0(%rbp)
   126ff:	48 c7 85 38 fd ff ff 	movq   $0x0,-0x2c8(%rbp)
   12706:	00 00 00 00 
   1270a:	48 8d 05 67 ea 00 00 	lea    0xea67(%rip),%rax        # 21178 <g_112>
   12711:	48 89 85 40 fd ff ff 	mov    %rax,-0x2c0(%rbp)
   12718:	48 8d 05 59 ea 00 00 	lea    0xea59(%rip),%rax        # 21178 <g_112>
   1271f:	48 89 85 48 fd ff ff 	mov    %rax,-0x2b8(%rbp)
   12726:	48 c7 85 50 fd ff ff 	movq   $0x0,-0x2b0(%rbp)
   1272d:	00 00 00 00 
   12731:	48 8d 85 50 f5 ff ff 	lea    -0xab0(%rbp),%rax
   12738:	48 89 85 58 fd ff ff 	mov    %rax,-0x2a8(%rbp)
   1273f:	48 8d 85 50 f5 ff ff 	lea    -0xab0(%rbp),%rax
   12746:	48 89 85 60 fd ff ff 	mov    %rax,-0x2a0(%rbp)
   1274d:	48 8d 05 24 ea 00 00 	lea    0xea24(%rip),%rax        # 21178 <g_112>
   12754:	48 89 85 68 fd ff ff 	mov    %rax,-0x298(%rbp)
   1275b:	48 8d 05 16 ea 00 00 	lea    0xea16(%rip),%rax        # 21178 <g_112>
   12762:	48 89 85 70 fd ff ff 	mov    %rax,-0x290(%rbp)
   12769:	48 8d 05 d0 e8 00 00 	lea    0xe8d0(%rip),%rax        # 21040 <g_59>
   12770:	48 89 85 78 fd ff ff 	mov    %rax,-0x288(%rbp)
   12777:	48 8d 05 fa e9 00 00 	lea    0xe9fa(%rip),%rax        # 21178 <g_112>
   1277e:	48 89 85 80 fd ff ff 	mov    %rax,-0x280(%rbp)
   12785:	48 8d 05 ec e9 00 00 	lea    0xe9ec(%rip),%rax        # 21178 <g_112>
   1278c:	48 89 85 88 fd ff ff 	mov    %rax,-0x278(%rbp)
   12793:	48 8d 85 50 f5 ff ff 	lea    -0xab0(%rbp),%rax
   1279a:	48 89 85 90 fd ff ff 	mov    %rax,-0x270(%rbp)
   127a1:	48 c7 85 98 fd ff ff 	movq   $0x0,-0x268(%rbp)
   127a8:	00 00 00 00 
   127ac:	48 8d 05 c5 e9 00 00 	lea    0xe9c5(%rip),%rax        # 21178 <g_112>
   127b3:	48 89 85 a0 fd ff ff 	mov    %rax,-0x260(%rbp)
   127ba:	48 8d 85 50 f5 ff ff 	lea    -0xab0(%rbp),%rax
   127c1:	48 89 85 a8 fd ff ff 	mov    %rax,-0x258(%rbp)
   127c8:	48 c7 85 b0 fd ff ff 	movq   $0x0,-0x250(%rbp)
   127cf:	00 00 00 00 
   127d3:	48 8d 05 9e e9 00 00 	lea    0xe99e(%rip),%rax        # 21178 <g_112>
   127da:	48 89 85 b8 fd ff ff 	mov    %rax,-0x248(%rbp)
   127e1:	48 8d 05 58 e8 00 00 	lea    0xe858(%rip),%rax        # 21040 <g_59>
   127e8:	48 89 85 c0 fd ff ff 	mov    %rax,-0x240(%rbp)
   127ef:	48 8d 05 4a e8 00 00 	lea    0xe84a(%rip),%rax        # 21040 <g_59>
   127f6:	48 89 85 c8 fd ff ff 	mov    %rax,-0x238(%rbp)
   127fd:	48 8d 05 3c e8 00 00 	lea    0xe83c(%rip),%rax        # 21040 <g_59>
   12804:	48 89 85 d0 fd ff ff 	mov    %rax,-0x230(%rbp)
   1280b:	48 8d 85 50 f5 ff ff 	lea    -0xab0(%rbp),%rax
   12812:	48 89 85 d8 fd ff ff 	mov    %rax,-0x228(%rbp)
   12819:	48 8d 05 58 e9 00 00 	lea    0xe958(%rip),%rax        # 21178 <g_112>
   12820:	48 89 85 e0 fd ff ff 	mov    %rax,-0x220(%rbp)
   12827:	48 8d 05 12 e8 00 00 	lea    0xe812(%rip),%rax        # 21040 <g_59>
   1282e:	48 89 85 e8 fd ff ff 	mov    %rax,-0x218(%rbp)
   12835:	48 8d 05 3c e9 00 00 	lea    0xe93c(%rip),%rax        # 21178 <g_112>
   1283c:	48 89 85 f0 fd ff ff 	mov    %rax,-0x210(%rbp)
   12843:	48 8d 05 2e e9 00 00 	lea    0xe92e(%rip),%rax        # 21178 <g_112>
   1284a:	48 89 85 f8 fd ff ff 	mov    %rax,-0x208(%rbp)
   12851:	48 8d 05 20 e9 00 00 	lea    0xe920(%rip),%rax        # 21178 <g_112>
   12858:	48 89 85 00 fe ff ff 	mov    %rax,-0x200(%rbp)
   1285f:	48 8d 85 50 f5 ff ff 	lea    -0xab0(%rbp),%rax
   12866:	48 89 85 08 fe ff ff 	mov    %rax,-0x1f8(%rbp)
   1286d:	48 8d 05 04 e9 00 00 	lea    0xe904(%rip),%rax        # 21178 <g_112>
   12874:	48 89 85 10 fe ff ff 	mov    %rax,-0x1f0(%rbp)
   1287b:	48 8d 05 be e7 00 00 	lea    0xe7be(%rip),%rax        # 21040 <g_59>
   12882:	48 89 85 18 fe ff ff 	mov    %rax,-0x1e8(%rbp)
   12889:	48 8d 05 b0 e7 00 00 	lea    0xe7b0(%rip),%rax        # 21040 <g_59>
   12890:	48 89 85 20 fe ff ff 	mov    %rax,-0x1e0(%rbp)
   12897:	48 c7 85 28 fe ff ff 	movq   $0x0,-0x1d8(%rbp)
   1289e:	00 00 00 00 
   128a2:	48 8d 05 97 e7 00 00 	lea    0xe797(%rip),%rax        # 21040 <g_59>
   128a9:	48 89 85 30 fe ff ff 	mov    %rax,-0x1d0(%rbp)
   128b0:	48 8d 05 89 e7 00 00 	lea    0xe789(%rip),%rax        # 21040 <g_59>
   128b7:	48 89 85 38 fe ff ff 	mov    %rax,-0x1c8(%rbp)
   128be:	48 c7 85 40 fe ff ff 	movq   $0x0,-0x1c0(%rbp)
   128c5:	00 00 00 00 
   128c9:	48 8d 05 a8 e8 00 00 	lea    0xe8a8(%rip),%rax        # 21178 <g_112>
   128d0:	48 89 85 48 fe ff ff 	mov    %rax,-0x1b8(%rbp)
   128d7:	48 8d 85 50 f5 ff ff 	lea    -0xab0(%rbp),%rax
   128de:	48 89 85 50 fe ff ff 	mov    %rax,-0x1b0(%rbp)
   128e5:	48 8d 85 50 f5 ff ff 	lea    -0xab0(%rbp),%rax
   128ec:	48 89 85 58 fe ff ff 	mov    %rax,-0x1a8(%rbp)
   128f3:	48 8d 05 7e e8 00 00 	lea    0xe87e(%rip),%rax        # 21178 <g_112>
   128fa:	48 89 85 60 fe ff ff 	mov    %rax,-0x1a0(%rbp)
   12901:	48 c7 85 68 fe ff ff 	movq   $0x0,-0x198(%rbp)
   12908:	00 00 00 00 
   1290c:	48 8d 85 50 f5 ff ff 	lea    -0xab0(%rbp),%rax
   12913:	48 89 85 70 fe ff ff 	mov    %rax,-0x190(%rbp)
   1291a:	48 8d 05 57 e8 00 00 	lea    0xe857(%rip),%rax        # 21178 <g_112>
   12921:	48 89 85 78 fe ff ff 	mov    %rax,-0x188(%rbp)
   12928:	48 8d 05 11 e7 00 00 	lea    0xe711(%rip),%rax        # 21040 <g_59>
   1292f:	48 89 85 80 fe ff ff 	mov    %rax,-0x180(%rbp)
   12936:	48 8d 05 03 e7 00 00 	lea    0xe703(%rip),%rax        # 21040 <g_59>
   1293d:	48 89 85 88 fe ff ff 	mov    %rax,-0x178(%rbp)
   12944:	48 8d 85 50 f5 ff ff 	lea    -0xab0(%rbp),%rax
   1294b:	48 89 85 90 fe ff ff 	mov    %rax,-0x170(%rbp)
   12952:	48 8d 05 e7 e6 00 00 	lea    0xe6e7(%rip),%rax        # 21040 <g_59>
   12959:	48 89 85 98 fe ff ff 	mov    %rax,-0x168(%rbp)
   12960:	48 8d 05 11 e8 00 00 	lea    0xe811(%rip),%rax        # 21178 <g_112>
   12967:	48 89 85 a0 fe ff ff 	mov    %rax,-0x160(%rbp)
   1296e:	48 8d 05 03 e8 00 00 	lea    0xe803(%rip),%rax        # 21178 <g_112>
   12975:	48 89 85 a8 fe ff ff 	mov    %rax,-0x158(%rbp)
   1297c:	48 c7 85 b0 fe ff ff 	movq   $0x0,-0x150(%rbp)
   12983:	00 00 00 00 
   12987:	48 8d 85 50 f5 ff ff 	lea    -0xab0(%rbp),%rax
   1298e:	48 89 85 b8 fe ff ff 	mov    %rax,-0x148(%rbp)
   12995:	48 8d 85 50 f5 ff ff 	lea    -0xab0(%rbp),%rax
   1299c:	48 89 85 c0 fe ff ff 	mov    %rax,-0x140(%rbp)
   129a3:	48 8d 85 50 f5 ff ff 	lea    -0xab0(%rbp),%rax
   129aa:	48 89 85 c8 fe ff ff 	mov    %rax,-0x138(%rbp)
   129b1:	48 8d 05 c0 e7 00 00 	lea    0xe7c0(%rip),%rax        # 21178 <g_112>
   129b8:	48 89 85 d0 fe ff ff 	mov    %rax,-0x130(%rbp)
   129bf:	48 8d 85 50 f5 ff ff 	lea    -0xab0(%rbp),%rax
   129c6:	48 89 85 d8 fe ff ff 	mov    %rax,-0x128(%rbp)
   129cd:	48 c7 85 e0 fe ff ff 	movq   $0x0,-0x120(%rbp)
   129d4:	00 00 00 00 
   129d8:	48 8d 85 50 f5 ff ff 	lea    -0xab0(%rbp),%rax
   129df:	48 89 85 e8 fe ff ff 	mov    %rax,-0x118(%rbp)
   129e6:	48 8d 05 8b e7 00 00 	lea    0xe78b(%rip),%rax        # 21178 <g_112>
   129ed:	48 89 85 f0 fe ff ff 	mov    %rax,-0x110(%rbp)
   129f4:	48 8d 05 45 e6 00 00 	lea    0xe645(%rip),%rax        # 21040 <g_59>
   129fb:	48 89 85 f8 fe ff ff 	mov    %rax,-0x108(%rbp)
   12a02:	48 8d 85 50 f5 ff ff 	lea    -0xab0(%rbp),%rax
   12a09:	48 89 85 00 ff ff ff 	mov    %rax,-0x100(%rbp)
   12a10:	48 8d 05 29 e6 00 00 	lea    0xe629(%rip),%rax        # 21040 <g_59>
   12a17:	48 89 85 08 ff ff ff 	mov    %rax,-0xf8(%rbp)
   12a1e:	48 8d 05 1b e6 00 00 	lea    0xe61b(%rip),%rax        # 21040 <g_59>
   12a25:	48 89 85 10 ff ff ff 	mov    %rax,-0xf0(%rbp)
   12a2c:	48 8d 05 45 e7 00 00 	lea    0xe745(%rip),%rax        # 21178 <g_112>
   12a33:	48 89 85 18 ff ff ff 	mov    %rax,-0xe8(%rbp)
   12a3a:	48 8d 85 50 f5 ff ff 	lea    -0xab0(%rbp),%rax
   12a41:	48 89 85 20 ff ff ff 	mov    %rax,-0xe0(%rbp)
   12a48:	48 8d 05 29 e7 00 00 	lea    0xe729(%rip),%rax        # 21178 <g_112>
   12a4f:	48 89 85 28 ff ff ff 	mov    %rax,-0xd8(%rbp)
   12a56:	48 8d 85 50 f5 ff ff 	lea    -0xab0(%rbp),%rax
   12a5d:	48 89 85 30 ff ff ff 	mov    %rax,-0xd0(%rbp)
   12a64:	48 8d 85 50 f5 ff ff 	lea    -0xab0(%rbp),%rax
   12a6b:	48 89 85 38 ff ff ff 	mov    %rax,-0xc8(%rbp)
   12a72:	48 8d 85 50 f5 ff ff 	lea    -0xab0(%rbp),%rax
   12a79:	48 89 85 40 ff ff ff 	mov    %rax,-0xc0(%rbp)
   12a80:	48 8d 05 b9 e5 00 00 	lea    0xe5b9(%rip),%rax        # 21040 <g_59>
   12a87:	48 89 85 48 ff ff ff 	mov    %rax,-0xb8(%rbp)
   12a8e:	48 8d 05 ab e5 00 00 	lea    0xe5ab(%rip),%rax        # 21040 <g_59>
   12a95:	48 89 85 50 ff ff ff 	mov    %rax,-0xb0(%rbp)
   12a9c:	48 8d 85 50 f5 ff ff 	lea    -0xab0(%rbp),%rax
   12aa3:	48 89 85 58 ff ff ff 	mov    %rax,-0xa8(%rbp)
   12aaa:	48 8d 05 8f e5 00 00 	lea    0xe58f(%rip),%rax        # 21040 <g_59>
   12ab1:	48 89 85 60 ff ff ff 	mov    %rax,-0xa0(%rbp)
   12ab8:	48 8d 05 b9 e6 00 00 	lea    0xe6b9(%rip),%rax        # 21178 <g_112>
   12abf:	48 89 85 68 ff ff ff 	mov    %rax,-0x98(%rbp)
   12ac6:	48 8d 05 ab e6 00 00 	lea    0xe6ab(%rip),%rax        # 21178 <g_112>
   12acd:	48 89 85 70 ff ff ff 	mov    %rax,-0x90(%rbp)
   12ad4:	48 8d 05 65 e5 00 00 	lea    0xe565(%rip),%rax        # 21040 <g_59>
   12adb:	48 89 85 78 ff ff ff 	mov    %rax,-0x88(%rbp)
   12ae2:	48 8d 85 50 f5 ff ff 	lea    -0xab0(%rbp),%rax
   12ae9:	48 89 45 80          	mov    %rax,-0x80(%rbp)
   12aed:	48 8d 05 4c e5 00 00 	lea    0xe54c(%rip),%rax        # 21040 <g_59>
   12af4:	48 89 45 88          	mov    %rax,-0x78(%rbp)
   12af8:	48 8d 05 79 e6 00 00 	lea    0xe679(%rip),%rax        # 21178 <g_112>
   12aff:	48 89 45 90          	mov    %rax,-0x70(%rbp)
   12b03:	48 8d 85 50 f5 ff ff 	lea    -0xab0(%rbp),%rax
   12b0a:	48 89 45 98          	mov    %rax,-0x68(%rbp)
   12b0e:	48 8d 05 63 e6 00 00 	lea    0xe663(%rip),%rax        # 21178 <g_112>
   12b15:	48 89 45 a0          	mov    %rax,-0x60(%rbp)
   12b19:	48 8d 05 20 e5 00 00 	lea    0xe520(%rip),%rax        # 21040 <g_59>
   12b20:	48 89 45 a8          	mov    %rax,-0x58(%rbp)
   12b24:	48 8d 05 4d e6 00 00 	lea    0xe64d(%rip),%rax        # 21178 <g_112>
   12b2b:	48 89 45 b0          	mov    %rax,-0x50(%rbp)
   12b2f:	48 8d 85 50 f5 ff ff 	lea    -0xab0(%rbp),%rax
   12b36:	48 89 45 b8          	mov    %rax,-0x48(%rbp)
   12b3a:	48 8d 05 ff e4 00 00 	lea    0xe4ff(%rip),%rax        # 21040 <g_59>
   12b41:	48 89 45 c0          	mov    %rax,-0x40(%rbp)
   12b45:	c7 85 48 f5 ff ff ff 	movl   $0xffffffff,-0xab8(%rbp)
   12b4c:	ff ff ff 
   12b4f:	48 c7 85 70 f5 ff ff 	movq   $0x0,-0xa90(%rbp)
   12b56:	00 00 00 00 
   12b5a:	c7 85 4c f5 ff ff ff 	movl   $0xffffffff,-0xab4(%rbp)
   12b61:	ff ff ff 
   12b64:	48 8d 05 49 e6 00 00 	lea    0xe649(%rip),%rax        # 211b4 <g_465>
   12b6b:	48 89 85 78 f5 ff ff 	mov    %rax,-0xa88(%rbp)
   12b72:	48 8d 85 90 f5 ff ff 	lea    -0xa70(%rbp),%rax
   12b79:	48 8d 15 c0 f9 00 00 	lea    0xf9c0(%rip),%rdx        # 22540 <g_3045+0x10dc>
   12b80:	b9 54 00 00 00       	mov    $0x54,%ecx
   12b85:	48 89 c7             	mov    %rax,%rdi
   12b88:	48 89 d6             	mov    %rdx,%rsi
   12b8b:	f3 48 a5             	rep movsq %ds:(%rsi),%es:(%rdi)
   12b8e:	48 8d 85 90 f5 ff ff 	lea    -0xa70(%rbp),%rax
   12b95:	48 83 c0 40          	add    $0x40,%rax
   12b99:	48 89 85 80 f5 ff ff 	mov    %rax,-0xa80(%rbp)
   12ba0:	48 8d 05 a9 e4 00 00 	lea    0xe4a9(%rip),%rax        # 21050 <g_79>
   12ba7:	48 89 85 88 f5 ff ff 	mov    %rax,-0xa78(%rbp)
   12bae:	66 c7 05 d1 e5 00 00 	movw   $0x0,0xe5d1(%rip)        # 21188 <g_189>
   12bb5:	00 00 
   12bb7:	eb 4d                	jmp    12c06 <func_37+0xdf5>
   12bb9:	c6 05 f0 e5 00 00 00 	movb   $0x0,0xe5f0(%rip)        # 211b0 <g_407>
   12bc0:	90                   	nop
   12bc1:	0f b6 05 e8 e5 00 00 	movzbl 0xe5e8(%rip),%eax        # 211b0 <g_407>
   12bc8:	3c 2b                	cmp    $0x2b,%al
   12bca:	76 0c                	jbe    12bd8 <func_37+0xdc7>
   12bcc:	48 8b 85 50 f5 ff ff 	mov    -0xab0(%rbp),%rax
   12bd3:	e9 f3 02 00 00       	jmpq   12ecb <func_37+0x10ba>
   12bd8:	48 8b 85 58 f5 ff ff 	mov    -0xaa8(%rbp),%rax
   12bdf:	48 89 85 58 f5 ff ff 	mov    %rax,-0xaa8(%rbp)
   12be6:	0f b7 05 9b e5 00 00 	movzwl 0xe59b(%rip),%eax        # 21188 <g_189>
   12bed:	0f b6 c0             	movzbl %al,%eax
   12bf0:	be 06 00 00 00       	mov    $0x6,%esi
   12bf5:	89 c7                	mov    %eax,%edi
   12bf7:	e8 5e 4f ff ff       	callq  7b5a <safe_add_func_uint8_t_u_u>
   12bfc:	0f b6 c0             	movzbl %al,%eax
   12bff:	66 89 05 82 e5 00 00 	mov    %ax,0xe582(%rip)        # 21188 <g_189>
   12c06:	0f b7 05 7b e5 00 00 	movzwl 0xe57b(%rip),%eax        # 21188 <g_189>
   12c0d:	66 83 f8 2b          	cmp    $0x2b,%ax
   12c11:	76 a6                	jbe    12bb9 <func_37+0xda8>
   12c13:	48 8b 95 58 f5 ff ff 	mov    -0xaa8(%rbp),%rdx
   12c1a:	48 8b 85 60 f5 ff ff 	mov    -0xaa0(%rbp),%rax
   12c21:	48 89 10             	mov    %rdx,(%rax)
   12c24:	48 8b 85 58 f5 ff ff 	mov    -0xaa8(%rbp),%rax
   12c2b:	8b 00                	mov    (%rax),%eax
   12c2d:	0f b7 d8             	movzwl %ax,%ebx
   12c30:	8b 85 38 f5 ff ff    	mov    -0xac8(%rbp),%eax
   12c36:	44 0f be e0          	movsbl %al,%r12d
   12c3a:	0f b7 85 3c f5 ff ff 	movzwl -0xac4(%rbp),%eax
   12c41:	44 0f b6 e8          	movzbl %al,%r13d
   12c45:	0f b6 05 e8 e3 00 00 	movzbl 0xe3e8(%rip),%eax        # 21034 <g_25>
   12c4c:	44 0f be f0          	movsbl %al,%r14d
   12c50:	44 8b bd 34 f5 ff ff 	mov    -0xacc(%rbp),%r15d
   12c57:	48 8b 85 58 f5 ff ff 	mov    -0xaa8(%rbp),%rax
   12c5e:	8b 00                	mov    (%rax),%eax
   12c60:	48 98                	cltq   
   12c62:	48 89 85 28 f5 ff ff 	mov    %rax,-0xad8(%rbp)
   12c69:	0f b6 05 2e e5 00 00 	movzbl 0xe52e(%rip),%eax        # 2119e <g_342+0x6>
   12c70:	0f be c8             	movsbl %al,%ecx
   12c73:	89 8d 30 f5 ff ff    	mov    %ecx,-0xad0(%rbp)
   12c79:	48 8b 85 60 f5 ff ff 	mov    -0xaa0(%rbp),%rax
   12c80:	48 8b 00             	mov    (%rax),%rax
   12c83:	8b 38                	mov    (%rax),%edi
   12c85:	89 bd 24 f5 ff ff    	mov    %edi,-0xadc(%rbp)
   12c8b:	c7 85 48 f5 ff ff 01 	movl   $0x1,-0xab8(%rbp)
   12c92:	00 00 00 
   12c95:	48 8b 85 58 f5 ff ff 	mov    -0xaa8(%rbp),%rax
   12c9c:	8b 00                	mov    (%rax),%eax
   12c9e:	85 c0                	test   %eax,%eax
   12ca0:	0f 9f c2             	setg   %dl
   12ca3:	48 8b 05 d6 0d 01 00 	mov    0x10dd6(%rip),%rax        # 23a80 <g_1409>
   12caa:	0f b6 d2             	movzbl %dl,%edx
   12cad:	66 89 10             	mov    %dx,(%rax)
   12cb0:	0f b7 00             	movzwl (%rax),%eax
   12cb3:	0f b7 c0             	movzwl %ax,%eax
   12cb6:	be 0a 00 00 00       	mov    $0xa,%esi
   12cbb:	89 c7                	mov    %eax,%edi
   12cbd:	e8 b8 51 ff ff       	callq  7e7a <safe_rshift_func_uint16_t_u_u>
   12cc2:	0f b7 c0             	movzwl %ax,%eax
   12cc5:	39 85 24 f5 ff ff    	cmp    %eax,-0xadc(%rbp)
   12ccb:	0f 95 c0             	setne  %al
   12cce:	0f b6 c0             	movzbl %al,%eax
   12cd1:	8b b5 30 f5 ff ff    	mov    -0xad0(%rbp),%esi
   12cd7:	89 c7                	mov    %eax,%edi
   12cd9:	e8 f6 44 ff ff       	callq  71d4 <safe_add_func_int8_t_s_s>
   12cde:	48 0f be c0          	movsbq %al,%rax
   12ce2:	48 8b b5 28 f5 ff ff 	mov    -0xad8(%rbp),%rsi
   12ce9:	48 89 c7             	mov    %rax,%rdi
   12cec:	e8 be 53 ff ff       	callq  80af <safe_div_func_uint64_t_u_u>
   12cf1:	0f b6 d0             	movzbl %al,%edx
   12cf4:	48 8b 85 60 f5 ff ff 	mov    -0xaa0(%rbp),%rax
   12cfb:	48 8b 00             	mov    (%rax),%rax
   12cfe:	8b 08                	mov    (%rax),%ecx
   12d00:	48 8b 85 58 f5 ff ff 	mov    -0xaa8(%rbp),%rax
   12d07:	8b 00                	mov    (%rax),%eax
   12d09:	39 c1                	cmp    %eax,%ecx
   12d0b:	0f 9c c0             	setl   %al
   12d0e:	0f b6 c0             	movzbl %al,%eax
   12d11:	89 d6                	mov    %edx,%esi
   12d13:	89 c7                	mov    %eax,%edi
   12d15:	e8 94 4e ff ff       	callq  7bae <safe_mod_func_uint8_t_u_u>
   12d1a:	84 c0                	test   %al,%al
   12d1c:	74 10                	je     12d2e <func_37+0xf1d>
   12d1e:	83 bd 38 f5 ff ff 00 	cmpl   $0x0,-0xac8(%rbp)
   12d25:	74 07                	je     12d2e <func_37+0xf1d>
   12d27:	b8 01 00 00 00       	mov    $0x1,%eax
   12d2c:	eb 05                	jmp    12d33 <func_37+0xf22>
   12d2e:	b8 00 00 00 00       	mov    $0x0,%eax
   12d33:	98                   	cwtl   
   12d34:	be 8d 65 00 00       	mov    $0x658d,%esi
   12d39:	89 c7                	mov    %eax,%edi
   12d3b:	e8 93 46 ff ff       	callq  73d3 <safe_sub_func_int16_t_s_s>
   12d40:	48 0f bf c0          	movswq %ax,%rax
   12d44:	48 be 0a a2 00 3f f4 	movabs $0x3c25eef43f00a20a,%rsi
   12d4b:	ee 25 3c 
   12d4e:	48 89 c7             	mov    %rax,%rdi
   12d51:	e8 f5 52 ff ff       	callq  804b <safe_sub_func_uint64_t_u_u>
   12d56:	8b 95 34 f5 ff ff    	mov    -0xacc(%rbp),%edx
   12d5c:	48 39 d0             	cmp    %rdx,%rax
   12d5f:	0f 92 c0             	setb   %al
   12d62:	0f b6 c0             	movzbl %al,%eax
   12d65:	4c 89 fe             	mov    %r15,%rsi
   12d68:	48 89 c7             	mov    %rax,%rdi
   12d6b:	e8 3f 53 ff ff       	callq  80af <safe_div_func_uint64_t_u_u>
   12d70:	89 c2                	mov    %eax,%edx
   12d72:	8b 85 4c f5 ff ff    	mov    -0xab4(%rbp),%eax
   12d78:	09 d0                	or     %edx,%eax
   12d7a:	89 85 4c f5 ff ff    	mov    %eax,-0xab4(%rbp)
   12d80:	48 8b 85 60 f5 ff ff 	mov    -0xaa0(%rbp),%rax
   12d87:	48 8b 00             	mov    (%rax),%rax
   12d8a:	8b 00                	mov    (%rax),%eax
   12d8c:	85 c0                	test   %eax,%eax
   12d8e:	48 8b 85 78 f5 ff ff 	mov    -0xa88(%rbp),%rax
   12d95:	66 c7 00 00 00       	movw   $0x0,(%rax)
   12d9a:	48 8b 85 78 f5 ff ff 	mov    -0xa88(%rbp),%rax
   12da1:	0f b7 00             	movzwl (%rax),%eax
   12da4:	66 3d 29 8a          	cmp    $0x8a29,%ax
   12da8:	0f 97 c0             	seta   %al
   12dab:	0f b6 c0             	movzbl %al,%eax
   12dae:	be 4b 2c 00 00       	mov    $0x2c4b,%esi
   12db3:	89 c7                	mov    %eax,%edi
   12db5:	e8 83 4f ff ff       	callq  7d3d <safe_mul_func_uint16_t_u_u>
   12dba:	48 83 bd 80 f5 ff ff 	cmpq   $0x0,-0xa80(%rbp)
   12dc1:	00 
   12dc2:	0f 95 c0             	setne  %al
   12dc5:	0f b6 c0             	movzbl %al,%eax
   12dc8:	be 31 00 00 00       	mov    $0x31,%esi
   12dcd:	89 c7                	mov    %eax,%edi
   12dcf:	e8 a4 4d ff ff       	callq  7b78 <safe_sub_func_uint8_t_u_u>
   12dd4:	0f b6 c0             	movzbl %al,%eax
   12dd7:	be 07 00 00 00       	mov    $0x7,%esi
   12ddc:	89 c7                	mov    %eax,%edi
   12dde:	e8 db 4e ff ff       	callq  7cbe <safe_rshift_func_uint8_t_u_u>
   12de3:	0f be c0             	movsbl %al,%eax
   12de6:	44 89 f6             	mov    %r14d,%esi
   12de9:	89 c7                	mov    %eax,%edi
   12deb:	e8 e4 43 ff ff       	callq  71d4 <safe_add_func_int8_t_s_s>
   12df0:	48 0f be c0          	movsbq %al,%rax
   12df4:	25 cc 70 2c 00       	and    $0x2c70cc,%eax
   12df9:	48 89 c2             	mov    %rax,%rdx
   12dfc:	8b 85 34 f5 ff ff    	mov    -0xacc(%rbp),%eax
   12e02:	48 39 c2             	cmp    %rax,%rdx
   12e05:	0f 95 c0             	setne  %al
   12e08:	0f b6 d0             	movzbl %al,%edx
   12e0b:	48 8b 85 58 f5 ff ff 	mov    -0xaa8(%rbp),%rax
   12e12:	8b 00                	mov    (%rax),%eax
   12e14:	39 c2                	cmp    %eax,%edx
   12e16:	0f 95 c0             	setne  %al
   12e19:	0f b6 d0             	movzbl %al,%edx
   12e1c:	0f b6 05 77 e3 00 00 	movzbl 0xe377(%rip),%eax        # 2119a <g_342+0x2>
   12e23:	0f b6 c0             	movzbl %al,%eax
   12e26:	39 c2                	cmp    %eax,%edx
   12e28:	44 89 ee             	mov    %r13d,%esi
   12e2b:	bf 01 00 00 00       	mov    $0x1,%edi
   12e30:	e8 a6 4d ff ff       	callq  7bdb <safe_div_func_uint8_t_u_u>
   12e35:	44 0f b6 e8          	movzbl %al,%r13d
   12e39:	8b 85 38 f5 ff ff    	mov    -0xac8(%rbp),%eax
   12e3f:	89 c2                	mov    %eax,%edx
   12e41:	48 8b 85 68 f5 ff ff 	mov    -0xa98(%rbp),%rax
   12e48:	88 10                	mov    %dl,(%rax)
   12e4a:	48 8b 85 68 f5 ff ff 	mov    -0xa98(%rbp),%rax
   12e51:	0f b6 00             	movzbl (%rax),%eax
   12e54:	0f b6 c0             	movzbl %al,%eax
   12e57:	89 c6                	mov    %eax,%esi
   12e59:	bf bc 00 00 00       	mov    $0xbc,%edi
   12e5e:	e8 78 4d ff ff       	callq  7bdb <safe_div_func_uint8_t_u_u>
   12e63:	0f b6 c0             	movzbl %al,%eax
   12e66:	44 89 ee             	mov    %r13d,%esi
   12e69:	89 c7                	mov    %eax,%edi
   12e6b:	e8 85 45 ff ff       	callq  73f5 <safe_mul_func_int16_t_s_s>
   12e70:	0f be c0             	movsbl %al,%eax
   12e73:	44 89 e6             	mov    %r12d,%esi
   12e76:	89 c7                	mov    %eax,%edi
   12e78:	e8 75 43 ff ff       	callq  71f2 <safe_sub_func_int8_t_s_s>
   12e7d:	66 98                	cbtw   
   12e7f:	0f b7 c0             	movzwl %ax,%eax
   12e82:	89 de                	mov    %ebx,%esi
   12e84:	89 c7                	mov    %eax,%edi
   12e86:	e8 d1 4e ff ff       	callq  7d5c <safe_mod_func_uint16_t_u_u>
   12e8b:	48 8b 85 58 f5 ff ff 	mov    -0xaa8(%rbp),%rax
   12e92:	8b 00                	mov    (%rax),%eax
   12e94:	85 c0                	test   %eax,%eax
   12e96:	74 07                	je     12e9f <func_37+0x108e>
   12e98:	ba 01 00 00 00       	mov    $0x1,%edx
   12e9d:	eb 05                	jmp    12ea4 <func_37+0x1093>
   12e9f:	ba 00 00 00 00       	mov    $0x0,%edx
   12ea4:	48 8b 85 60 f5 ff ff 	mov    -0xaa0(%rbp),%rax
   12eab:	48 8b 00             	mov    (%rax),%rax
   12eae:	8b 00                	mov    (%rax),%eax
   12eb0:	39 c2                	cmp    %eax,%edx
   12eb2:	0f 9d c0             	setge  %al
   12eb5:	0f b6 d0             	movzbl %al,%edx
   12eb8:	48 8b 85 88 f5 ff ff 	mov    -0xa78(%rbp),%rax
   12ebf:	89 10                	mov    %edx,(%rax)
   12ec1:	0f b6 05 88 17 01 00 	movzbl 0x11788(%rip),%eax        # 24650 <g_111>
   12ec8:	0f be c0             	movsbl %al,%eax
   12ecb:	48 8b 5d c8          	mov    -0x38(%rbp),%rbx
   12ecf:	64 48 33 1c 25 28 00 	xor    %fs:0x28,%rbx
   12ed6:	00 00 
   12ed8:	74 05                	je     12edf <func_37+0x10ce>
   12eda:	e8 91 41 ff ff       	callq  7070 <__stack_chk_fail@plt>
   12edf:	48 81 c4 b8 0a 00 00 	add    $0xab8,%rsp
   12ee6:	5b                   	pop    %rbx
   12ee7:	41 5c                	pop    %r12
   12ee9:	41 5d                	pop    %r13
   12eeb:	41 5e                	pop    %r14
   12eed:	41 5f                	pop    %r15
   12eef:	5d                   	pop    %rbp
   12ef0:	c3                   	retq   

0000000000012ef1 <func_41>:
   12ef1:	f3 0f 1e fa          	endbr64 
   12ef5:	55                   	push   %rbp
   12ef6:	48 89 e5             	mov    %rsp,%rbp
   12ef9:	41 57                	push   %r15
   12efb:	41 56                	push   %r14
   12efd:	41 55                	push   %r13
   12eff:	41 54                	push   %r12
   12f01:	53                   	push   %rbx
   12f02:	48 81 ec f8 09 00 00 	sub    $0x9f8,%rsp
   12f09:	89 f8                	mov    %edi,%eax
   12f0b:	89 f2                	mov    %esi,%edx
   12f0d:	66 89 85 ec f5 ff ff 	mov    %ax,-0xa14(%rbp)
   12f14:	89 d0                	mov    %edx,%eax
   12f16:	88 85 e8 f5 ff ff    	mov    %al,-0xa18(%rbp)
   12f1c:	64 48 8b 04 25 28 00 	mov    %fs:0x28,%rax
   12f23:	00 00 
   12f25:	48 89 45 c8          	mov    %rax,-0x38(%rbp)
   12f29:	31 c0                	xor    %eax,%eax
   12f2b:	c7 85 08 f6 ff ff 97 	movl   $0x40663a97,-0x9f8(%rbp)
   12f32:	3a 66 40 
   12f35:	c7 85 f0 f6 ff ff ff 	movl   $0xffffffff,-0x910(%rbp)
   12f3c:	ff ff ff 
   12f3f:	c7 85 f4 f6 ff ff ff 	movl   $0xffffffff,-0x90c(%rbp)
   12f46:	ff ff ff 
   12f49:	c7 85 f8 f6 ff ff ff 	movl   $0xffffffff,-0x908(%rbp)
   12f50:	ff ff ff 
   12f53:	c7 85 fc f6 ff ff ff 	movl   $0xffffffff,-0x904(%rbp)
   12f5a:	ff ff ff 
   12f5d:	c7 85 00 f7 ff ff ff 	movl   $0xffffffff,-0x900(%rbp)
   12f64:	ff ff ff 
   12f67:	c7 85 04 f7 ff ff ff 	movl   $0xffffffff,-0x8fc(%rbp)
   12f6e:	ff ff ff 
   12f71:	48 8d 05 86 e2 00 00 	lea    0xe286(%rip),%rax        # 211fe <g_1178>
   12f78:	48 89 85 38 f6 ff ff 	mov    %rax,-0x9c8(%rbp)
   12f7f:	c7 85 18 f6 ff ff ff 	movl   $0xffffffff,-0x9e8(%rbp)
   12f86:	ff ff ff 
   12f89:	48 c7 85 40 f6 ff ff 	movq   $0x0,-0x9c0(%rbp)
   12f90:	00 00 00 00 
   12f94:	c6 05 61 e2 00 00 00 	movb   $0x0,0xe261(%rip)        # 211fc <g_1109>
   12f9b:	e9 04 0d 00 00       	jmpq   13ca4 <func_41+0xdb3>
   12fa0:	66 c7 85 02 f6 ff ff 	movw   $0x4974,-0x9fe(%rbp)
   12fa7:	74 49 
   12fa9:	c7 85 04 f6 ff ff 00 	movl   $0x0,-0x9fc(%rbp)
   12fb0:	00 00 00 
   12fb3:	48 8d 05 7e 0a 01 00 	lea    0x10a7e(%rip),%rax        # 23a38 <g_1140+0x78>
   12fba:	48 89 85 48 f6 ff ff 	mov    %rax,-0x9b8(%rbp)
   12fc1:	c6 85 fd f5 ff ff 7f 	movb   $0x7f,-0xa03(%rbp)
   12fc8:	c7 05 3e e2 00 00 00 	movl   $0x0,0xe23e(%rip)        # 21210 <g_1562>
   12fcf:	00 00 00 
   12fd2:	e9 7d 06 00 00       	jmpq   13654 <func_41+0x763>
   12fd7:	48 b8 00 17 17 00 00 	movabs $0x17170000171700,%rax
   12fde:	17 17 00 
   12fe1:	48 89 85 10 f7 ff ff 	mov    %rax,-0x8f0(%rbp)
   12fe8:	66 c7 85 18 f7 ff ff 	movw   $0x1700,-0x8e8(%rbp)
   12fef:	00 17 
   12ff1:	48 b8 00 00 17 17 00 	movabs $0x1717000017170000,%rax
   12ff8:	00 17 17 
   12ffb:	48 89 85 1a f7 ff ff 	mov    %rax,-0x8e6(%rbp)
   13002:	66 c7 85 22 f7 ff ff 	movw   $0x0,-0x8de(%rbp)
   13009:	00 00 
   1300b:	66 c7 85 00 f6 ff ff 	movw   $0x838b,-0xa00(%rbp)
   13012:	8b 83 
   13014:	48 8d 05 7d 16 01 00 	lea    0x1167d(%rip),%rax        # 24698 <g_1139+0x18>
   1301b:	48 89 85 50 f6 ff ff 	mov    %rax,-0x9b0(%rbp)
   13022:	48 8d 85 30 f8 ff ff 	lea    -0x7d0(%rbp),%rax
   13029:	48 8d 15 b0 f7 00 00 	lea    0xf7b0(%rip),%rdx        # 227e0 <g_3045+0x137c>
   13030:	b9 3f 00 00 00       	mov    $0x3f,%ecx
   13035:	48 89 c7             	mov    %rax,%rdi
   13038:	48 89 d6             	mov    %rdx,%rsi
   1303b:	f3 48 a5             	rep movsq %ds:(%rsi),%es:(%rdi)
   1303e:	48 8d 85 30 f8 ff ff 	lea    -0x7d0(%rbp),%rax
   13045:	48 83 c0 38          	add    $0x38,%rax
   13049:	48 89 85 50 f7 ff ff 	mov    %rax,-0x8b0(%rbp)
   13050:	48 8d 85 30 f8 ff ff 	lea    -0x7d0(%rbp),%rax
   13057:	48 83 c0 38          	add    $0x38,%rax
   1305b:	48 89 85 58 f7 ff ff 	mov    %rax,-0x8a8(%rbp)
   13062:	48 8d 85 30 f8 ff ff 	lea    -0x7d0(%rbp),%rax
   13069:	48 83 c0 38          	add    $0x38,%rax
   1306d:	48 89 85 60 f7 ff ff 	mov    %rax,-0x8a0(%rbp)
   13074:	48 8d 85 30 f8 ff ff 	lea    -0x7d0(%rbp),%rax
   1307b:	48 83 c0 38          	add    $0x38,%rax
   1307f:	48 89 85 68 f7 ff ff 	mov    %rax,-0x898(%rbp)
   13086:	48 8d 85 30 f8 ff ff 	lea    -0x7d0(%rbp),%rax
   1308d:	48 83 c0 38          	add    $0x38,%rax
   13091:	48 89 85 70 f7 ff ff 	mov    %rax,-0x890(%rbp)
   13098:	48 8d 85 30 f8 ff ff 	lea    -0x7d0(%rbp),%rax
   1309f:	48 83 c0 38          	add    $0x38,%rax
   130a3:	48 89 85 78 f7 ff ff 	mov    %rax,-0x888(%rbp)
   130aa:	48 8d 85 30 f8 ff ff 	lea    -0x7d0(%rbp),%rax
   130b1:	48 83 c0 38          	add    $0x38,%rax
   130b5:	48 89 85 80 f7 ff ff 	mov    %rax,-0x880(%rbp)
   130bc:	48 8d 85 30 f8 ff ff 	lea    -0x7d0(%rbp),%rax
   130c3:	48 83 c0 38          	add    $0x38,%rax
   130c7:	48 89 85 88 f7 ff ff 	mov    %rax,-0x878(%rbp)
   130ce:	48 8d 85 30 f8 ff ff 	lea    -0x7d0(%rbp),%rax
   130d5:	48 83 c0 38          	add    $0x38,%rax
   130d9:	48 89 85 90 f7 ff ff 	mov    %rax,-0x870(%rbp)
   130e0:	48 8d 85 30 f8 ff ff 	lea    -0x7d0(%rbp),%rax
   130e7:	48 83 c0 38          	add    $0x38,%rax
   130eb:	48 89 85 98 f7 ff ff 	mov    %rax,-0x868(%rbp)
   130f2:	48 8d 85 50 f7 ff ff 	lea    -0x8b0(%rbp),%rax
   130f9:	48 83 c0 38          	add    $0x38,%rax
   130fd:	48 89 85 28 f6 ff ff 	mov    %rax,-0x9d8(%rbp)
   13104:	48 8d 85 28 f6 ff ff 	lea    -0x9d8(%rbp),%rax
   1310b:	48 89 85 30 f6 ff ff 	mov    %rax,-0x9d0(%rbp)
   13112:	c7 85 0c f6 ff ff 00 	movl   $0x0,-0x9f4(%rbp)
   13119:	00 00 00 
   1311c:	eb 1e                	jmp    1313c <func_41+0x24b>
   1311e:	8b 85 0c f6 ff ff    	mov    -0x9f4(%rbp),%eax
   13124:	48 98                	cltq   
   13126:	48 8d 15 23 df 00 00 	lea    0xdf23(%rip),%rdx        # 21050 <g_79>
   1312d:	48 89 94 c5 c0 f6 ff 	mov    %rdx,-0x940(%rbp,%rax,8)
   13134:	ff 
   13135:	83 85 0c f6 ff ff 01 	addl   $0x1,-0x9f4(%rbp)
   1313c:	83 bd 0c f6 ff ff 01 	cmpl   $0x1,-0x9f4(%rbp)
   13143:	7e d9                	jle    1311e <func_41+0x22d>
   13145:	0f b6 85 10 f7 ff ff 	movzbl -0x8f0(%rbp),%eax
   1314c:	84 c0                	test   %al,%al
   1314e:	0f 85 10 05 00 00    	jne    13664 <func_41+0x773>
   13154:	80 bd e8 f5 ff ff 00 	cmpb   $0x0,-0xa18(%rbp)
   1315b:	0f 85 e3 04 00 00    	jne    13644 <func_41+0x753>
   13161:	66 83 ad 00 f6 ff ff 	subw   $0x1,-0xa00(%rbp)
   13168:	01 
   13169:	48 c7 05 1c e0 00 00 	movq   $0x0,0xe01c(%rip)        # 21190 <g_227>
   13170:	00 00 00 00 
   13174:	e9 b9 04 00 00       	jmpq   13632 <func_41+0x741>
   13179:	48 b8 12 ad 51 5e 58 	movabs $0x7c266a585e51ad12,%rax
   13180:	6a 26 7c 
   13183:	48 89 85 58 f6 ff ff 	mov    %rax,-0x9a8(%rbp)
   1318a:	c7 85 1c f6 ff ff 01 	movl   $0x1,-0x9e4(%rbp)
   13191:	00 00 00 
   13194:	48 8d 85 30 f6 ff ff 	lea    -0x9d0(%rbp),%rax
   1319b:	48 89 85 60 f6 ff ff 	mov    %rax,-0x9a0(%rbp)
   131a2:	c7 05 d4 df 00 00 00 	movl   $0x0,0xdfd4(%rip)        # 21180 <g_117>
   131a9:	00 00 00 
   131ac:	e9 c9 02 00 00       	jmpq   1347a <func_41+0x589>
   131b1:	c6 85 fe f5 ff ff 05 	movb   $0x5,-0xa02(%rbp)
   131b8:	48 b8 ff fc 76 76 fc 	movabs $0x76fcfffc7676fcff,%rax
   131bf:	ff fc 76 
   131c2:	48 89 45 be          	mov    %rax,-0x42(%rbp)
   131c6:	66 c7 45 c6 76 fc    	movw   $0xfc76,-0x3a(%rbp)
   131cc:	c7 85 20 f6 ff ff 29 	movl   $0xb2436729,-0x9e0(%rbp)
   131d3:	67 43 b2 
   131d6:	66 c7 85 00 f6 ff ff 	movw   $0x0,-0xa00(%rbp)
   131dd:	00 00 
   131df:	e9 2c 02 00 00       	jmpq   13410 <func_41+0x51f>
   131e4:	48 8d 05 7d 14 01 00 	lea    0x1147d(%rip),%rax        # 24668 <g_356>
   131eb:	48 89 85 68 f6 ff ff 	mov    %rax,-0x998(%rbp)
   131f2:	48 8d 05 5f de 00 00 	lea    0xde5f(%rip),%rax        # 21058 <g_102>
   131f9:	48 89 85 70 f6 ff ff 	mov    %rax,-0x990(%rbp)
   13200:	c7 85 24 f6 ff ff 02 	movl   $0x2,-0x9dc(%rbp)
   13207:	00 00 00 
   1320a:	0f b6 05 eb df 00 00 	movzbl 0xdfeb(%rip),%eax        # 211fc <g_1109>
   13211:	0f b6 c0             	movzbl %al,%eax
   13214:	83 c0 02             	add    $0x2,%eax
   13217:	48 98                	cltq   
   13219:	48 8d 15 78 df 00 00 	lea    0xdf78(%rip),%rdx        # 21198 <g_342>
   13220:	0f b6 04 10          	movzbl (%rax,%rdx,1),%eax
   13224:	44 0f b6 f8          	movzbl %al,%r15d
   13228:	48 8b 85 58 f6 ff ff 	mov    -0x9a8(%rbp),%rax
   1322f:	0f be d8             	movsbl %al,%ebx
   13232:	44 0f be a5 e8 f5 ff 	movsbl -0xa18(%rbp),%r12d
   13239:	ff 
   1323a:	48 8b 85 58 f6 ff ff 	mov    -0x9a8(%rbp),%rax
   13241:	44 0f b6 e8          	movzbl %al,%r13d
   13245:	4c 0f bf b5 ec f5 ff 	movswq -0xa14(%rbp),%r14
   1324c:	ff 
   1324d:	66 0f be 85 e8 f5 ff 	movsbw -0xa18(%rbp),%ax
   13254:	ff 
   13255:	0f b7 d0             	movzwl %ax,%edx
   13258:	48 8b 85 68 f6 ff ff 	mov    -0x998(%rbp),%rax
   1325f:	c6 00 00             	movb   $0x0,(%rax)
   13262:	48 83 bd 50 f6 ff ff 	cmpq   $0x0,-0x9b0(%rbp)
   13269:	00 
   1326a:	0f 95 c0             	setne  %al
   1326d:	0f b6 c8             	movzbl %al,%ecx
   13270:	0f b6 b5 fe f5 ff ff 	movzbl -0xa02(%rbp),%esi
   13277:	0f bf bd ec f5 ff ff 	movswl -0xa14(%rbp),%edi
   1327e:	48 83 bd 58 f6 ff ff 	cmpq   $0x0,-0x9a8(%rbp)
   13285:	00 
   13286:	0f 95 c0             	setne  %al
   13289:	0f b6 c0             	movzbl %al,%eax
   1328c:	39 c7                	cmp    %eax,%edi
   1328e:	0f 9d c0             	setge  %al
   13291:	0f b6 f8             	movzbl %al,%edi
   13294:	8b 05 96 dd 00 00    	mov    0xdd96(%rip),%eax        # 21030 <g_14>
   1329a:	39 c7                	cmp    %eax,%edi
   1329c:	0f 9d c0             	setge  %al
   1329f:	0f b6 c0             	movzbl %al,%eax
   132a2:	48 39 85 58 f6 ff ff 	cmp    %rax,-0x9a8(%rbp)
   132a9:	0f 97 c0             	seta   %al
   132ac:	0f b6 c0             	movzbl %al,%eax
   132af:	31 f0                	xor    %esi,%eax
   132b1:	31 c8                	xor    %ecx,%eax
   132b3:	89 c1                	mov    %eax,%ecx
   132b5:	8b 05 49 df 00 00    	mov    0xdf49(%rip),%eax        # 21204 <g_1465>
   132bb:	39 c1                	cmp    %eax,%ecx
   132bd:	0f 93 c0             	setae  %al
   132c0:	0f b6 c0             	movzbl %al,%eax
   132c3:	89 d6                	mov    %edx,%esi
   132c5:	89 c7                	mov    %eax,%edi
   132c7:	e8 53 4a ff ff       	callq  7d1f <safe_sub_func_uint16_t_u_u>
   132cc:	4c 89 f6             	mov    %r14,%rsi
   132cf:	bf 00 00 00 00       	mov    $0x0,%edi
   132d4:	e8 72 4d ff ff       	callq  804b <safe_sub_func_uint64_t_u_u>
   132d9:	44 89 ee             	mov    %r13d,%esi
   132dc:	bf 01 00 00 00       	mov    $0x1,%edi
   132e1:	e8 ad 48 ff ff       	callq  7b93 <safe_mul_func_uint8_t_u_u>
   132e6:	0f b6 c0             	movzbl %al,%eax
   132e9:	be b4 17 43 d8       	mov    $0xd84317b4,%esi
   132ee:	89 c7                	mov    %eax,%edi
   132f0:	e8 0a 44 ff ff       	callq  76ff <safe_div_func_int32_t_s_s>
   132f5:	0f be c0             	movsbl %al,%eax
   132f8:	44 89 e6             	mov    %r12d,%esi
   132fb:	89 c7                	mov    %eax,%edi
   132fd:	e8 10 3f ff ff       	callq  7212 <safe_mul_func_int8_t_s_s>
   13302:	0f be c0             	movsbl %al,%eax
   13305:	89 de                	mov    %ebx,%esi
   13307:	89 c7                	mov    %eax,%edi
   13309:	e8 23 3f ff ff       	callq  7231 <safe_mod_func_int8_t_s_s>
   1330e:	0f be c0             	movsbl %al,%eax
   13311:	41 39 c7             	cmp    %eax,%r15d
   13314:	0f 9f c0             	setg   %al
   13317:	0f b6 c0             	movzbl %al,%eax
   1331a:	89 85 1c f6 ff ff    	mov    %eax,-0x9e4(%rbp)
   13320:	0f bf 9d ec f5 ff ff 	movswl -0xa14(%rbp),%ebx
   13327:	0f b7 05 26 df 00 00 	movzwl 0xdf26(%rip),%eax        # 21254 <g_1916+0x34>
   1332e:	44 0f bf e0          	movswl %ax,%r12d
   13332:	0f b7 05 7f 13 01 00 	movzwl 0x1137f(%rip),%eax        # 246b8 <g_1922>
   13339:	0f b7 d0             	movzwl %ax,%edx
   1333c:	48 8d 05 f5 06 01 00 	lea    0x106f5(%rip),%rax        # 23a38 <g_1140+0x78>
   13343:	48 39 85 48 f6 ff ff 	cmp    %rax,-0x9b8(%rbp)
   1334a:	0f 95 c0             	setne  %al
   1334d:	0f b6 c8             	movzbl %al,%ecx
   13350:	48 8b 05 e9 dc 00 00 	mov    0xdce9(%rip),%rax        # 21040 <g_59>
   13357:	48 39 c1             	cmp    %rax,%rcx
   1335a:	0f 92 c0             	setb   %al
   1335d:	0f b6 c0             	movzbl %al,%eax
   13360:	89 d6                	mov    %edx,%esi
   13362:	89 c7                	mov    %eax,%edi
   13364:	e8 29 41 ff ff       	callq  7492 <safe_lshift_func_int16_t_s_s>
   13369:	66 39 85 ec f5 ff ff 	cmp    %ax,-0xa14(%rbp)
   13370:	0f 95 c0             	setne  %al
   13373:	0f b6 d0             	movzbl %al,%edx
   13376:	0f b6 05 d7 dc 00 00 	movzbl 0xdcd7(%rip),%eax        # 21054 <g_100>
   1337d:	0f be c0             	movsbl %al,%eax
   13380:	21 d0                	and    %edx,%eax
   13382:	44 31 e0             	xor    %r12d,%eax
   13385:	48 63 d0             	movslq %eax,%rdx
   13388:	48 8b 85 70 f6 ff ff 	mov    -0x990(%rbp),%rax
   1338f:	48 89 10             	mov    %rdx,(%rax)
   13392:	48 8b 85 70 f6 ff ff 	mov    -0x990(%rbp),%rax
   13399:	48 8b 00             	mov    (%rax),%rax
   1339c:	48 89 c2             	mov    %rax,%rdx
   1339f:	48 b8 0c 11 81 fa 73 	movabs $0xa0000573fa81110c,%rax
   133a6:	05 00 a0 
   133a9:	48 39 c2             	cmp    %rax,%rdx
   133ac:	0f 97 c0             	seta   %al
   133af:	0f b6 c0             	movzbl %al,%eax
   133b2:	89 de                	mov    %ebx,%esi
   133b4:	89 c7                	mov    %eax,%edi
   133b6:	e8 fd 4a ff ff       	callq  7eb8 <safe_add_func_uint32_t_u_u>
   133bb:	83 bd 1c f6 ff ff ff 	cmpl   $0xffffffff,-0x9e4(%rbp)
   133c2:	0f 95 c0             	setne  %al
   133c5:	0f b6 c0             	movzbl %al,%eax
   133c8:	0b 85 08 f6 ff ff    	or     -0x9f8(%rbp),%eax
   133ce:	89 c1                	mov    %eax,%ecx
   133d0:	0f b6 95 fe f5 ff ff 	movzbl -0xa02(%rbp),%edx
   133d7:	0f bf 85 ec f5 ff ff 	movswl -0xa14(%rbp),%eax
   133de:	39 c2                	cmp    %eax,%edx
   133e0:	0f 95 c0             	setne  %al
   133e3:	0f b6 c0             	movzbl %al,%eax
   133e6:	89 ce                	mov    %ecx,%esi
   133e8:	89 c7                	mov    %eax,%edi
   133ea:	e8 17 4a ff ff       	callq  7e06 <safe_lshift_func_uint16_t_u_u>
   133ef:	0f b7 c0             	movzwl %ax,%eax
   133f2:	89 85 24 f6 ff ff    	mov    %eax,-0x9dc(%rbp)
   133f8:	66 83 bd ec f5 ff ff 	cmpw   $0x0,-0xa14(%rbp)
   133ff:	00 
   13400:	75 1e                	jne    13420 <func_41+0x52f>
   13402:	0f b6 45 bf          	movzbl -0x41(%rbp),%eax
   13406:	84 c0                	test   %al,%al
   13408:	66 83 85 00 f6 ff ff 	addw   $0x1,-0xa00(%rbp)
   1340f:	01 
   13410:	66 83 bd 00 f6 ff ff 	cmpw   $0x6,-0xa00(%rbp)
   13417:	06 
   13418:	0f 86 c6 fd ff ff    	jbe    131e4 <func_41+0x2f3>
   1341e:	eb 01                	jmp    13421 <func_41+0x530>
   13420:	90                   	nop
   13421:	c7 05 61 dd 00 00 00 	movl   $0x0,0xdd61(%rip)        # 2118c <g_192>
   13428:	00 00 00 
   1342b:	90                   	nop
   1342c:	8b 05 5a dd 00 00    	mov    0xdd5a(%rip),%eax        # 2118c <g_192>
   13432:	85 c0                	test   %eax,%eax
   13434:	75 1e                	jne    13454 <func_41+0x563>
   13436:	8b 05 d4 dd 00 00    	mov    0xddd4(%rip),%eax        # 21210 <g_1562>
   1343c:	83 c0 03             	add    $0x3,%eax
   1343f:	89 c2                	mov    %eax,%edx
   13441:	48 8d 05 50 dd 00 00 	lea    0xdd50(%rip),%rax        # 21198 <g_342>
   13448:	0f b6 04 02          	movzbl (%rdx,%rax,1),%eax
   1344c:	0f b6 c0             	movzbl %al,%eax
   1344f:	e9 65 08 00 00       	jmpq   13cb9 <func_41+0xdc8>
   13454:	66 83 bd ec f5 ff ff 	cmpw   $0x0,-0xa14(%rbp)
   1345b:	00 
   1345c:	75 2d                	jne    1348b <func_41+0x59a>
   1345e:	0f bf 85 ec f5 ff ff 	movswl -0xa14(%rbp),%eax
   13465:	09 85 20 f6 ff ff    	or     %eax,-0x9e0(%rbp)
   1346b:	8b 05 0f dd 00 00    	mov    0xdd0f(%rip),%eax        # 21180 <g_117>
   13471:	83 c0 01             	add    $0x1,%eax
   13474:	89 05 06 dd 00 00    	mov    %eax,0xdd06(%rip)        # 21180 <g_117>
   1347a:	8b 05 00 dd 00 00    	mov    0xdd00(%rip),%eax        # 21180 <g_117>
   13480:	83 f8 01             	cmp    $0x1,%eax
   13483:	0f 86 28 fd ff ff    	jbe    131b1 <func_41+0x2c0>
   13489:	eb 01                	jmp    1348c <func_41+0x59b>
   1348b:	90                   	nop
   1348c:	48 8b 95 30 f6 ff ff 	mov    -0x9d0(%rbp),%rdx
   13493:	48 8b 85 60 f6 ff ff 	mov    -0x9a0(%rbp),%rax
   1349a:	48 89 10             	mov    %rdx,(%rax)
   1349d:	48 c7 05 d0 dc 00 00 	movq   $0x0,0xdcd0(%rip)        # 21178 <g_112>
   134a4:	00 00 00 00 
   134a8:	e9 63 01 00 00       	jmpq   13610 <func_41+0x71f>
   134ad:	48 8d 05 9c 11 01 00 	lea    0x1119c(%rip),%rax        # 24650 <g_111>
   134b4:	48 89 85 78 f6 ff ff 	mov    %rax,-0x988(%rbp)
   134bb:	48 8d 05 92 db 00 00 	lea    0xdb92(%rip),%rax        # 21054 <g_100>
   134c2:	48 89 85 80 f6 ff ff 	mov    %rax,-0x980(%rbp)
   134c9:	c7 85 e0 f6 ff ff 75 	movl   $0x895f1575,-0x920(%rbp)
   134d0:	15 5f 89 
   134d3:	c7 85 e4 f6 ff ff 75 	movl   $0x895f1575,-0x91c(%rbp)
   134da:	15 5f 89 
   134dd:	c7 85 e8 f6 ff ff 75 	movl   $0x895f1575,-0x918(%rbp)
   134e4:	15 5f 89 
   134e7:	c7 85 ec f6 ff ff 75 	movl   $0x895f1575,-0x914(%rbp)
   134ee:	15 5f 89 
   134f1:	c7 85 10 f6 ff ff 00 	movl   $0x0,-0x9f0(%rbp)
   134f8:	00 00 00 
   134fb:	eb 49                	jmp    13546 <func_41+0x655>
   134fd:	c7 85 14 f6 ff ff 00 	movl   $0x0,-0x9ec(%rbp)
   13504:	00 00 00 
   13507:	eb 2d                	jmp    13536 <func_41+0x645>
   13509:	8b 85 14 f6 ff ff    	mov    -0x9ec(%rbp),%eax
   1350f:	48 98                	cltq   
   13511:	8b 95 10 f6 ff ff    	mov    -0x9f0(%rbp),%edx
   13517:	48 63 d2             	movslq %edx,%rdx
   1351a:	48 01 d2             	add    %rdx,%rdx
   1351d:	48 01 d0             	add    %rdx,%rax
   13520:	48 8d 15 59 dc 00 00 	lea    0xdc59(%rip),%rdx        # 21180 <g_117>
   13527:	48 89 94 c5 d0 f6 ff 	mov    %rdx,-0x930(%rbp,%rax,8)
   1352e:	ff 
   1352f:	83 85 14 f6 ff ff 01 	addl   $0x1,-0x9ec(%rbp)
   13536:	83 bd 14 f6 ff ff 01 	cmpl   $0x1,-0x9ec(%rbp)
   1353d:	7e ca                	jle    13509 <func_41+0x618>
   1353f:	83 85 10 f6 ff ff 01 	addl   $0x1,-0x9f0(%rbp)
   13546:	83 bd 10 f6 ff ff 00 	cmpl   $0x0,-0x9f0(%rbp)
   1354d:	7e ae                	jle    134fd <func_41+0x60c>
   1354f:	0f be 9d e8 f5 ff ff 	movsbl -0xa18(%rbp),%ebx
   13556:	0f b6 05 9f dc 00 00 	movzbl 0xdc9f(%rip),%eax        # 211fc <g_1109>
   1355d:	84 c0                	test   %al,%al
   1355f:	75 2a                	jne    1358b <func_41+0x69a>
   13561:	8b 95 00 f7 ff ff    	mov    -0x900(%rbp),%edx
   13567:	0f bf 8d ec f5 ff ff 	movswl -0xa14(%rbp),%ecx
   1356e:	48 8b 05 2b 05 01 00 	mov    0x1052b(%rip),%rax        # 23aa0 <g_1547>
   13575:	0f b7 00             	movzwl (%rax),%eax
   13578:	0f b7 c0             	movzwl %ax,%eax
   1357b:	39 c1                	cmp    %eax,%ecx
   1357d:	0f 95 c0             	setne  %al
   13580:	0f b6 c0             	movzbl %al,%eax
   13583:	09 d0                	or     %edx,%eax
   13585:	89 85 00 f7 ff ff    	mov    %eax,-0x900(%rbp)
   1358b:	48 8b 85 78 f6 ff ff 	mov    -0x988(%rbp),%rax
   13592:	c6 00 00             	movb   $0x0,(%rax)
   13595:	48 8b 85 78 f6 ff ff 	mov    -0x988(%rbp),%rax
   1359c:	0f b6 00             	movzbl (%rax),%eax
   1359f:	0f b6 c0             	movzbl %al,%eax
   135a2:	89 c6                	mov    %eax,%esi
   135a4:	bf ea 00 00 00       	mov    $0xea,%edi
   135a9:	e8 ca 45 ff ff       	callq  7b78 <safe_sub_func_uint8_t_u_u>
   135ae:	84 c0                	test   %al,%al
   135b0:	75 08                	jne    135ba <func_41+0x6c9>
   135b2:	8b 85 f0 f6 ff ff    	mov    -0x910(%rbp),%eax
   135b8:	85 c0                	test   %eax,%eax
   135ba:	48 8b 85 80 f6 ff ff 	mov    -0x980(%rbp),%rax
   135c1:	c6 00 01             	movb   $0x1,(%rax)
   135c4:	48 8b 85 80 f6 ff ff 	mov    -0x980(%rbp),%rax
   135cb:	0f b6 00             	movzbl (%rax),%eax
   135ce:	0f be c0             	movsbl %al,%eax
   135d1:	be 03 00 00 00       	mov    $0x3,%esi
   135d6:	89 c7                	mov    %eax,%edi
   135d8:	e8 11 3d ff ff       	callq  72ee <safe_lshift_func_int8_t_s_u>
   135dd:	c0 e8 07             	shr    $0x7,%al
   135e0:	0f b6 c0             	movzbl %al,%eax
   135e3:	89 05 9b db 00 00    	mov    %eax,0xdb9b(%rip)        # 21184 <g_122>
   135e9:	8b 05 95 db 00 00    	mov    0xdb95(%rip),%eax        # 21184 <g_122>
   135ef:	89 de                	mov    %ebx,%esi
   135f1:	89 c7                	mov    %eax,%edi
   135f3:	e8 2d 49 ff ff       	callq  7f25 <safe_div_func_uint32_t_u_u>
   135f8:	89 85 e0 f6 ff ff    	mov    %eax,-0x920(%rbp)
   135fe:	48 8b 05 73 db 00 00 	mov    0xdb73(%rip),%rax        # 21178 <g_112>
   13605:	48 83 c0 01          	add    $0x1,%rax
   13609:	48 89 05 68 db 00 00 	mov    %rax,0xdb68(%rip)        # 21178 <g_112>
   13610:	48 8b 05 61 db 00 00 	mov    0xdb61(%rip),%rax        # 21178 <g_112>
   13617:	48 85 c0             	test   %rax,%rax
   1361a:	0f 84 8d fe ff ff    	je     134ad <func_41+0x5bc>
   13620:	48 8b 05 69 db 00 00 	mov    0xdb69(%rip),%rax        # 21190 <g_227>
   13627:	48 83 e8 01          	sub    $0x1,%rax
   1362b:	48 89 05 5e db 00 00 	mov    %rax,0xdb5e(%rip)        # 21190 <g_227>
   13632:	48 8b 05 57 db 00 00 	mov    0xdb57(%rip),%rax        # 21190 <g_227>
   13639:	48 85 c0             	test   %rax,%rax
   1363c:	0f 89 37 fb ff ff    	jns    13179 <func_41+0x288>
   13642:	eb 01                	jmp    13645 <func_41+0x754>
   13644:	90                   	nop
   13645:	8b 05 c5 db 00 00    	mov    0xdbc5(%rip),%eax        # 21210 <g_1562>
   1364b:	83 c0 01             	add    $0x1,%eax
   1364e:	89 05 bc db 00 00    	mov    %eax,0xdbbc(%rip)        # 21210 <g_1562>
   13654:	8b 05 b6 db 00 00    	mov    0xdbb6(%rip),%eax        # 21210 <g_1562>
   1365a:	85 c0                	test   %eax,%eax
   1365c:	0f 84 75 f9 ff ff    	je     12fd7 <func_41+0xe6>
   13662:	eb 01                	jmp    13665 <func_41+0x774>
   13664:	90                   	nop
   13665:	48 8b 85 48 f6 ff ff 	mov    -0x9b8(%rbp),%rax
   1366c:	48 8b 00             	mov    (%rax),%rax
   1366f:	48 8d 95 f0 f6 ff ff 	lea    -0x910(%rbp),%rdx
   13676:	48 83 c2 10          	add    $0x10,%rdx
   1367a:	48 89 10             	mov    %rdx,(%rax)
   1367d:	48 c7 05 b8 d9 00 00 	movq   $0x0,0xd9b8(%rip)        # 21040 <g_59>
   13684:	00 00 00 00 
   13688:	e9 f7 05 00 00       	jmpq   13c84 <func_41+0xd93>
   1368d:	c6 85 ff f5 ff ff 00 	movb   $0x0,-0xa01(%rbp)
   13694:	c7 85 50 f7 ff ff 36 	movl   $0xb1ec4136,-0x8b0(%rbp)
   1369b:	41 ec b1 
   1369e:	c7 85 54 f7 ff ff 01 	movl   $0x1,-0x8ac(%rbp)
   136a5:	00 00 00 
   136a8:	c7 85 58 f7 ff ff 01 	movl   $0x1,-0x8a8(%rbp)
   136af:	00 00 00 
   136b2:	c7 85 5c f7 ff ff 01 	movl   $0x1,-0x8a4(%rbp)
   136b9:	00 00 00 
   136bc:	c7 85 60 f7 ff ff 01 	movl   $0x1,-0x8a0(%rbp)
   136c3:	00 00 00 
   136c6:	c7 85 64 f7 ff ff 36 	movl   $0xb1ec4136,-0x89c(%rbp)
   136cd:	41 ec b1 
   136d0:	c7 85 68 f7 ff ff 36 	movl   $0xb1ec4136,-0x898(%rbp)
   136d7:	41 ec b1 
   136da:	c7 85 6c f7 ff ff 00 	movl   $0x0,-0x894(%rbp)
   136e1:	00 00 00 
   136e4:	c7 85 70 f7 ff ff ff 	movl   $0xffffffff,-0x890(%rbp)
   136eb:	ff ff ff 
   136ee:	c7 85 74 f7 ff ff 01 	movl   $0x1,-0x88c(%rbp)
   136f5:	00 00 00 
   136f8:	c7 85 78 f7 ff ff 00 	movl   $0x0,-0x888(%rbp)
   136ff:	00 00 00 
   13702:	c7 85 7c f7 ff ff 01 	movl   $0x1,-0x884(%rbp)
   13709:	00 00 00 
   1370c:	c7 85 80 f7 ff ff 36 	movl   $0xb1ec4136,-0x880(%rbp)
   13713:	41 ec b1 
   13716:	c7 85 84 f7 ff ff d2 	movl   $0x19f436d2,-0x87c(%rbp)
   1371d:	36 f4 19 
   13720:	c7 85 88 f7 ff ff 36 	movl   $0xb1ec4136,-0x878(%rbp)
   13727:	41 ec b1 
   1372a:	c7 85 8c f7 ff ff 01 	movl   $0x1,-0x874(%rbp)
   13731:	00 00 00 
   13734:	c7 85 90 f7 ff ff d2 	movl   $0x19f436d2,-0x870(%rbp)
   1373b:	36 f4 19 
   1373e:	c7 85 94 f7 ff ff ff 	movl   $0xffffffff,-0x86c(%rbp)
   13745:	ff ff ff 
   13748:	c7 85 98 f7 ff ff 36 	movl   $0xb1ec4136,-0x868(%rbp)
   1374f:	41 ec b1 
   13752:	c7 85 9c f7 ff ff 01 	movl   $0x1,-0x864(%rbp)
   13759:	00 00 00 
   1375c:	c7 85 a0 f7 ff ff 01 	movl   $0x1,-0x860(%rbp)
   13763:	00 00 00 
   13766:	c7 85 a4 f7 ff ff 01 	movl   $0x1,-0x85c(%rbp)
   1376d:	00 00 00 
   13770:	c7 85 a8 f7 ff ff 01 	movl   $0x1,-0x858(%rbp)
   13777:	00 00 00 
   1377a:	c7 85 ac f7 ff ff 36 	movl   $0xb1ec4136,-0x854(%rbp)
   13781:	41 ec b1 
   13784:	c7 85 b0 f7 ff ff 36 	movl   $0xb1ec4136,-0x850(%rbp)
   1378b:	41 ec b1 
   1378e:	c7 85 b4 f7 ff ff 00 	movl   $0x0,-0x84c(%rbp)
   13795:	00 00 00 
   13798:	c7 85 b8 f7 ff ff ff 	movl   $0xffffffff,-0x848(%rbp)
   1379f:	ff ff ff 
   137a2:	c7 85 bc f7 ff ff 01 	movl   $0x1,-0x844(%rbp)
   137a9:	00 00 00 
   137ac:	c7 85 c0 f7 ff ff 00 	movl   $0x0,-0x840(%rbp)
   137b3:	00 00 00 
   137b6:	c7 85 c4 f7 ff ff 01 	movl   $0x1,-0x83c(%rbp)
   137bd:	00 00 00 
   137c0:	c7 85 c8 f7 ff ff 36 	movl   $0xb1ec4136,-0x838(%rbp)
   137c7:	41 ec b1 
   137ca:	c7 85 cc f7 ff ff d2 	movl   $0x19f436d2,-0x834(%rbp)
   137d1:	36 f4 19 
   137d4:	c7 85 d0 f7 ff ff 36 	movl   $0xb1ec4136,-0x830(%rbp)
   137db:	41 ec b1 
   137de:	c7 85 d4 f7 ff ff 01 	movl   $0x1,-0x82c(%rbp)
   137e5:	00 00 00 
   137e8:	c7 85 d8 f7 ff ff d2 	movl   $0x19f436d2,-0x828(%rbp)
   137ef:	36 f4 19 
   137f2:	c7 85 dc f7 ff ff ff 	movl   $0xffffffff,-0x824(%rbp)
   137f9:	ff ff ff 
   137fc:	c7 85 e0 f7 ff ff 36 	movl   $0xb1ec4136,-0x820(%rbp)
   13803:	41 ec b1 
   13806:	c7 85 e4 f7 ff ff 01 	movl   $0x1,-0x81c(%rbp)
   1380d:	00 00 00 
   13810:	c7 85 e8 f7 ff ff 01 	movl   $0x1,-0x818(%rbp)
   13817:	00 00 00 
   1381a:	c7 85 ec f7 ff ff 01 	movl   $0x1,-0x814(%rbp)
   13821:	00 00 00 
   13824:	c7 85 f0 f7 ff ff 01 	movl   $0x1,-0x810(%rbp)
   1382b:	00 00 00 
   1382e:	c7 85 f4 f7 ff ff 36 	movl   $0xb1ec4136,-0x80c(%rbp)
   13835:	41 ec b1 
   13838:	c7 85 f8 f7 ff ff 36 	movl   $0xb1ec4136,-0x808(%rbp)
   1383f:	41 ec b1 
   13842:	c7 85 fc f7 ff ff 00 	movl   $0x0,-0x804(%rbp)
   13849:	00 00 00 
   1384c:	c7 85 00 f8 ff ff ff 	movl   $0xffffffff,-0x800(%rbp)
   13853:	ff ff ff 
   13856:	c7 85 04 f8 ff ff 01 	movl   $0x1,-0x7fc(%rbp)
   1385d:	00 00 00 
   13860:	c7 85 08 f8 ff ff 00 	movl   $0x0,-0x7f8(%rbp)
   13867:	00 00 00 
   1386a:	c7 85 0c f8 ff ff 01 	movl   $0x1,-0x7f4(%rbp)
   13871:	00 00 00 
   13874:	c7 85 10 f8 ff ff 36 	movl   $0xb1ec4136,-0x7f0(%rbp)
   1387b:	41 ec b1 
   1387e:	c7 85 14 f8 ff ff d2 	movl   $0x19f436d2,-0x7ec(%rbp)
   13885:	36 f4 19 
   13888:	c7 85 18 f8 ff ff 36 	movl   $0xb1ec4136,-0x7e8(%rbp)
   1388f:	41 ec b1 
   13892:	c7 85 1c f8 ff ff 01 	movl   $0x1,-0x7e4(%rbp)
   13899:	00 00 00 
   1389c:	c7 85 20 f8 ff ff d2 	movl   $0x19f436d2,-0x7e0(%rbp)
   138a3:	36 f4 19 
   138a6:	c7 85 24 f8 ff ff ff 	movl   $0xffffffff,-0x7dc(%rbp)
   138ad:	ff ff ff 
   138b0:	66 c7 05 cf d8 00 00 	movw   $0x0,0xd8cf(%rip)        # 21188 <g_189>
   138b7:	00 00 
   138b9:	e9 a4 03 00 00       	jmpq   13c62 <func_41+0xd71>
   138be:	48 8d 05 c7 d8 00 00 	lea    0xd8c7(%rip),%rax        # 2118c <g_192>
   138c5:	48 89 85 10 f7 ff ff 	mov    %rax,-0x8f0(%rbp)
   138cc:	48 8d 05 b9 d8 00 00 	lea    0xd8b9(%rip),%rax        # 2118c <g_192>
   138d3:	48 89 85 18 f7 ff ff 	mov    %rax,-0x8e8(%rbp)
   138da:	48 8d 05 ab d8 00 00 	lea    0xd8ab(%rip),%rax        # 2118c <g_192>
   138e1:	48 89 85 20 f7 ff ff 	mov    %rax,-0x8e0(%rbp)
   138e8:	48 8d 05 9d d8 00 00 	lea    0xd89d(%rip),%rax        # 2118c <g_192>
   138ef:	48 89 85 28 f7 ff ff 	mov    %rax,-0x8d8(%rbp)
   138f6:	48 8d 05 8f d8 00 00 	lea    0xd88f(%rip),%rax        # 2118c <g_192>
   138fd:	48 89 85 30 f7 ff ff 	mov    %rax,-0x8d0(%rbp)
   13904:	48 8d 05 81 d8 00 00 	lea    0xd881(%rip),%rax        # 2118c <g_192>
   1390b:	48 89 85 38 f7 ff ff 	mov    %rax,-0x8c8(%rbp)
   13912:	48 8d 05 73 d8 00 00 	lea    0xd873(%rip),%rax        # 2118c <g_192>
   13919:	48 89 85 40 f7 ff ff 	mov    %rax,-0x8c0(%rbp)
   13920:	48 8d 05 65 d8 00 00 	lea    0xd865(%rip),%rax        # 2118c <g_192>
   13927:	48 89 85 48 f7 ff ff 	mov    %rax,-0x8b8(%rbp)
   1392e:	48 8d 05 d3 d8 00 00 	lea    0xd8d3(%rip),%rax        # 21208 <g_1489>
   13935:	48 89 85 88 f6 ff ff 	mov    %rax,-0x978(%rbp)
   1393c:	48 c7 85 90 f6 ff ff 	movq   $0x0,-0x970(%rbp)
   13943:	00 00 00 00 
   13947:	48 8d 85 30 f8 ff ff 	lea    -0x7d0(%rbp),%rax
   1394e:	48 8d 15 8b f0 00 00 	lea    0xf08b(%rip),%rdx        # 229e0 <g_3045+0x157c>
   13955:	b9 f0 00 00 00       	mov    $0xf0,%ecx
   1395a:	48 89 c7             	mov    %rax,%rdi
   1395d:	48 89 d6             	mov    %rdx,%rsi
   13960:	f3 48 a5             	rep movsq %ds:(%rsi),%es:(%rdi)
   13963:	48 c7 85 98 f6 ff ff 	movq   $0x0,-0x968(%rbp)
   1396a:	00 00 00 00 
   1396e:	48 8d 05 03 d8 00 00 	lea    0xd803(%rip),%rax        # 21178 <g_112>
   13975:	48 89 85 a0 f6 ff ff 	mov    %rax,-0x960(%rbp)
   1397c:	0f b7 85 ec f5 ff ff 	movzwl -0xa14(%rbp),%eax
   13983:	0f b6 d8             	movzbl %al,%ebx
   13986:	0f b7 05 97 d8 00 00 	movzwl 0xd897(%rip),%eax        # 21224 <g_1916+0x4>
   1398d:	44 0f bf e0          	movswl %ax,%r12d
   13991:	48 8b 85 88 f6 ff ff 	mov    -0x978(%rbp),%rax
   13998:	48 8b 10             	mov    (%rax),%rdx
   1399b:	48 0f be 85 e8 f5 ff 	movsbq -0xa18(%rbp),%rax
   139a2:	ff 
   139a3:	48 21 c2             	and    %rax,%rdx
   139a6:	48 8b 85 88 f6 ff ff 	mov    -0x978(%rbp),%rax
   139ad:	48 89 10             	mov    %rdx,(%rax)
   139b0:	48 8b 85 88 f6 ff ff 	mov    -0x978(%rbp),%rax
   139b7:	48 8b 00             	mov    (%rax),%rax
   139ba:	48 89 c7             	mov    %rax,%rdi
   139bd:	e8 54 3e ff ff       	callq  7816 <safe_unary_minus_func_int64_t_s>
   139c2:	48 0f bf 95 ec f5 ff 	movswq -0xa14(%rbp),%rdx
   139c9:	ff 
   139ca:	48 39 d0             	cmp    %rdx,%rax
   139cd:	0f 95 c0             	setne  %al
   139d0:	0f b6 c0             	movzbl %al,%eax
   139d3:	09 85 08 f6 ff ff    	or     %eax,-0x9f8(%rbp)
   139d9:	8b 85 08 f6 ff ff    	mov    -0x9f8(%rbp),%eax
   139df:	0f b7 c0             	movzwl %ax,%eax
   139e2:	be 66 33 00 00       	mov    $0x3366,%esi
   139e7:	89 c7                	mov    %eax,%edi
   139e9:	e8 4f 43 ff ff       	callq  7d3d <safe_mul_func_uint16_t_u_u>
   139ee:	48 8b 05 9b 00 01 00 	mov    0x1009b(%rip),%rax        # 23a90 <g_1407>
   139f5:	48 8b 00             	mov    (%rax),%rax
   139f8:	48 8b 00             	mov    (%rax),%rax
   139fb:	48 39 85 38 f6 ff ff 	cmp    %rax,-0x9c8(%rbp)
   13a02:	0f 95 c0             	setne  %al
   13a05:	0f b6 c0             	movzbl %al,%eax
   13a08:	be 04 00 00 00       	mov    $0x4,%esi
   13a0d:	89 c7                	mov    %eax,%edi
   13a0f:	e8 34 44 ff ff       	callq  7e48 <safe_rshift_func_uint16_t_u_s>
   13a14:	66 3d 56 62          	cmp    $0x6256,%ax
   13a18:	48 8b 85 48 f6 ff ff 	mov    -0x9b8(%rbp),%rax
   13a1f:	48 8b 00             	mov    (%rax),%rax
   13a22:	48 8b 00             	mov    (%rax),%rax
   13a25:	8b 10                	mov    (%rax),%edx
   13a27:	80 bd e8 f5 ff ff 01 	cmpb   $0x1,-0xa18(%rbp)
   13a2e:	0f 95 c0             	setne  %al
   13a31:	0f b6 c0             	movzbl %al,%eax
   13a34:	21 d0                	and    %edx,%eax
   13a36:	89 85 64 f7 ff ff    	mov    %eax,-0x89c(%rbp)
   13a3c:	8b 85 64 f7 ff ff    	mov    -0x89c(%rbp),%eax
   13a42:	0f b6 d0             	movzbl %al,%edx
   13a45:	48 8b 85 28 f7 ff ff 	mov    -0x8d8(%rbp),%rax
   13a4c:	48 85 c0             	test   %rax,%rax
   13a4f:	0f 95 c0             	setne  %al
   13a52:	0f b6 c0             	movzbl %al,%eax
   13a55:	89 d6                	mov    %edx,%esi
   13a57:	89 c7                	mov    %eax,%edi
   13a59:	e8 fc 40 ff ff       	callq  7b5a <safe_add_func_uint8_t_u_u>
   13a5e:	0f b6 c0             	movzbl %al,%eax
   13a61:	be 01 00 00 00       	mov    $0x1,%esi
   13a66:	89 c7                	mov    %eax,%edi
   13a68:	e8 b8 44 ff ff       	callq  7f25 <safe_div_func_uint32_t_u_u>
   13a6d:	41 39 c4             	cmp    %eax,%r12d
   13a70:	0f 97 c0             	seta   %al
   13a73:	0f b6 c0             	movzbl %al,%eax
   13a76:	be 00 00 00 00       	mov    $0x0,%esi
   13a7b:	89 c7                	mov    %eax,%edi
   13a7d:	e8 4e 44 ff ff       	callq  7ed0 <safe_sub_func_uint32_t_u_u>
   13a82:	41 89 c4             	mov    %eax,%r12d
   13a85:	48 8b 05 fc ff 00 00 	mov    0xfffc(%rip),%rax        # 23a88 <g_1408>
   13a8c:	48 8b 10             	mov    (%rax),%rdx
   13a8f:	48 8b 05 fa ff 00 00 	mov    0xfffa(%rip),%rax        # 23a90 <g_1407>
   13a96:	48 8b 00             	mov    (%rax),%rax
   13a99:	48 8b 00             	mov    (%rax),%rax
   13a9c:	0f b7 12             	movzwl (%rdx),%edx
   13a9f:	66 89 10             	mov    %dx,(%rax)
   13aa2:	0f b7 00             	movzwl (%rax),%eax
   13aa5:	0f b7 c0             	movzwl %ax,%eax
   13aa8:	be 0e 00 00 00       	mov    $0xe,%esi
   13aad:	89 c7                	mov    %eax,%edi
   13aaf:	e8 0a 43 ff ff       	callq  7dbe <safe_lshift_func_uint16_t_u_s>
   13ab4:	0f b7 d0             	movzwl %ax,%edx
   13ab7:	8b 85 00 f7 ff ff    	mov    -0x900(%rbp),%eax
   13abd:	89 d6                	mov    %edx,%esi
   13abf:	89 c7                	mov    %eax,%edi
   13ac1:	e8 3f 3b ff ff       	callq  7605 <safe_sub_func_int32_t_s_s>
   13ac6:	0f b7 c0             	movzwl %ax,%eax
   13ac9:	44 89 e6             	mov    %r12d,%esi
   13acc:	89 c7                	mov    %eax,%edi
   13ace:	e8 75 43 ff ff       	callq  7e48 <safe_rshift_func_uint16_t_u_s>
   13ad3:	0f b7 c0             	movzwl %ax,%eax
   13ad6:	83 e0 08             	and    $0x8,%eax
   13ad9:	be a9 ea 00 00       	mov    $0xeaa9,%esi
   13ade:	89 c7                	mov    %eax,%edi
   13ae0:	e8 58 42 ff ff       	callq  7d3d <safe_mul_func_uint16_t_u_u>
   13ae5:	48 8b 85 a0 f6 ff ff 	mov    -0x960(%rbp),%rax
   13aec:	48 c7 00 00 00 00 00 	movq   $0x0,(%rax)
   13af3:	48 8b 85 a0 f6 ff ff 	mov    -0x960(%rbp),%rax
   13afa:	48 8b 00             	mov    (%rax),%rax
   13afd:	0f b6 c0             	movzbl %al,%eax
   13b00:	89 de                	mov    %ebx,%esi
   13b02:	89 c7                	mov    %eax,%edi
   13b04:	e8 d2 40 ff ff       	callq  7bdb <safe_div_func_uint8_t_u_u>
   13b09:	3c fb                	cmp    $0xfb,%al
   13b0b:	48 c7 85 40 f6 ff ff 	movq   $0x0,-0x9c0(%rbp)
   13b12:	00 00 00 00 
   13b16:	66 c7 05 d1 d6 00 00 	movw   $0xfffe,0xd6d1(%rip)        # 211f0 <g_976>
   13b1d:	fe ff 
   13b1f:	e9 1c 01 00 00       	jmpq   13c40 <func_41+0xd4f>
   13b24:	48 8d 05 e5 d6 00 00 	lea    0xd6e5(%rip),%rax        # 21210 <g_1562>
   13b2b:	48 89 85 a8 f6 ff ff 	mov    %rax,-0x958(%rbp)
   13b32:	48 c7 85 b0 f6 ff ff 	movq   $0x0,-0x950(%rbp)
   13b39:	00 00 00 00 
   13b3d:	48 8d 85 04 f6 ff ff 	lea    -0x9fc(%rbp),%rax
   13b44:	48 89 85 b8 f6 ff ff 	mov    %rax,-0x948(%rbp)
   13b4b:	8b 85 08 f8 ff ff    	mov    -0x7f8(%rbp),%eax
   13b51:	83 e0 fd             	and    $0xfffffffd,%eax
   13b54:	89 c2                	mov    %eax,%edx
   13b56:	48 8b 85 a8 f6 ff ff 	mov    -0x958(%rbp),%rax
   13b5d:	89 10                	mov    %edx,(%rax)
   13b5f:	48 8b 85 a8 f6 ff ff 	mov    -0x958(%rbp),%rax
   13b66:	8b 18                	mov    (%rax),%ebx
   13b68:	48 8b 05 e1 fc 00 00 	mov    0xfce1(%rip),%rax        # 23850 <g_408>
   13b6f:	c7 00 01 00 00 00    	movl   $0x1,(%rax)
   13b75:	48 8b 05 44 0b 01 00 	mov    0x10b44(%rip),%rax        # 246c0 <g_1986>
   13b7c:	48 89 05 3d 0b 01 00 	mov    %rax,0x10b3d(%rip)        # 246c0 <g_1986>
   13b83:	48 8b 05 36 0b 01 00 	mov    0x10b36(%rip),%rax        # 246c0 <g_1986>
   13b8a:	48 85 c0             	test   %rax,%rax
   13b8d:	0f 94 c1             	sete   %cl
   13b90:	48 8b 05 09 01 01 00 	mov    0x10109(%rip),%rax        # 23ca0 <g_1987>
   13b97:	48 89 05 02 01 01 00 	mov    %rax,0x10102(%rip)        # 23ca0 <g_1987>
   13b9e:	48 8b 05 fb 00 01 00 	mov    0x100fb(%rip),%rax        # 23ca0 <g_1987>
   13ba5:	48 8d 15 74 fd 00 00 	lea    0xfd74(%rip),%rdx        # 23920 <g_796>
   13bac:	48 39 d0             	cmp    %rdx,%rax
   13baf:	0f 95 c0             	setne  %al
   13bb2:	31 c8                	xor    %ecx,%eax
   13bb4:	84 c0                	test   %al,%al
   13bb6:	75 0a                	jne    13bc2 <func_41+0xcd1>
   13bb8:	66 83 bd ec f5 ff ff 	cmpw   $0x0,-0xa14(%rbp)
   13bbf:	00 
   13bc0:	74 07                	je     13bc9 <func_41+0xcd8>
   13bc2:	b8 01 00 00 00       	mov    $0x1,%eax
   13bc7:	eb 05                	jmp    13bce <func_41+0xcdd>
   13bc9:	b8 00 00 00 00       	mov    $0x0,%eax
   13bce:	0f b6 c0             	movzbl %al,%eax
   13bd1:	be 07 00 00 00       	mov    $0x7,%esi
   13bd6:	89 c7                	mov    %eax,%edi
   13bd8:	e8 6f 40 ff ff       	callq  7c4c <safe_lshift_func_uint8_t_u_u>
   13bdd:	0f b6 c0             	movzbl %al,%eax
   13be0:	39 c3                	cmp    %eax,%ebx
   13be2:	0f 95 c0             	setne  %al
   13be5:	0f b6 c0             	movzbl %al,%eax
   13be8:	be 04 00 00 00       	mov    $0x4,%esi
   13bed:	89 c7                	mov    %eax,%edi
   13bef:	e8 78 37 ff ff       	callq  736c <safe_rshift_func_int8_t_s_u>
   13bf4:	48 8b 95 b8 f6 ff ff 	mov    -0x948(%rbp),%rdx
   13bfb:	8b 12                	mov    (%rdx),%edx
   13bfd:	0f be c0             	movsbl %al,%eax
   13c00:	09 c2                	or     %eax,%edx
   13c02:	48 8b 85 b8 f6 ff ff 	mov    -0x948(%rbp),%rax
   13c09:	89 10                	mov    %edx,(%rax)
   13c0b:	48 c7 05 7a d5 00 00 	movq   $0x9,0xd57a(%rip)        # 21190 <g_227>
   13c12:	09 00 00 00 
   13c16:	90                   	nop
   13c17:	48 8b 05 72 d5 00 00 	mov    0xd572(%rip),%rax        # 21190 <g_227>
   13c1e:	48 85 c0             	test   %rax,%rax
   13c21:	78 0c                	js     13c2f <func_41+0xd3e>
   13c23:	0f bf 85 ec f5 ff ff 	movswl -0xa14(%rbp),%eax
   13c2a:	e9 8a 00 00 00       	jmpq   13cb9 <func_41+0xdc8>
   13c2f:	0f b7 05 ba d5 00 00 	movzwl 0xd5ba(%rip),%eax        # 211f0 <g_976>
   13c36:	83 c0 01             	add    $0x1,%eax
   13c39:	66 89 05 b0 d5 00 00 	mov    %ax,0xd5b0(%rip)        # 211f0 <g_976>
   13c40:	0f b7 05 a9 d5 00 00 	movzwl 0xd5a9(%rip),%eax        # 211f0 <g_976>
   13c47:	66 83 f8 25          	cmp    $0x25,%ax
   13c4b:	0f 86 d3 fe ff ff    	jbe    13b24 <func_41+0xc33>
   13c51:	0f b7 05 30 d5 00 00 	movzwl 0xd530(%rip),%eax        # 21188 <g_189>
   13c58:	83 c0 01             	add    $0x1,%eax
   13c5b:	66 89 05 26 d5 00 00 	mov    %ax,0xd526(%rip)        # 21188 <g_189>
   13c62:	0f b7 05 1f d5 00 00 	movzwl 0xd51f(%rip),%eax        # 21188 <g_189>
   13c69:	66 85 c0             	test   %ax,%ax
   13c6c:	0f 84 4c fc ff ff    	je     138be <func_41+0x9cd>
   13c72:	48 8b 05 c7 d3 00 00 	mov    0xd3c7(%rip),%rax        # 21040 <g_59>
   13c79:	48 83 c0 01          	add    $0x1,%rax
   13c7d:	48 89 05 bc d3 00 00 	mov    %rax,0xd3bc(%rip)        # 21040 <g_59>
   13c84:	48 8b 05 b5 d3 00 00 	mov    0xd3b5(%rip),%rax        # 21040 <g_59>
   13c8b:	48 85 c0             	test   %rax,%rax
   13c8e:	0f 84 f9 f9 ff ff    	je     1368d <func_41+0x79c>
   13c94:	0f b6 05 61 d5 00 00 	movzbl 0xd561(%rip),%eax        # 211fc <g_1109>
   13c9b:	83 c0 01             	add    $0x1,%eax
   13c9e:	88 05 58 d5 00 00    	mov    %al,0xd558(%rip)        # 211fc <g_1109>
   13ca4:	0f b6 05 51 d5 00 00 	movzbl 0xd551(%rip),%eax        # 211fc <g_1109>
   13cab:	84 c0                	test   %al,%al
   13cad:	0f 84 ed f2 ff ff    	je     12fa0 <func_41+0xaf>
   13cb3:	8b 85 08 f6 ff ff    	mov    -0x9f8(%rbp),%eax
   13cb9:	48 8b 5d c8          	mov    -0x38(%rbp),%rbx
   13cbd:	64 48 33 1c 25 28 00 	xor    %fs:0x28,%rbx
   13cc4:	00 00 
   13cc6:	74 05                	je     13ccd <func_41+0xddc>
   13cc8:	e8 a3 33 ff ff       	callq  7070 <__stack_chk_fail@plt>
   13ccd:	48 81 c4 f8 09 00 00 	add    $0x9f8,%rsp
   13cd4:	5b                   	pop    %rbx
   13cd5:	41 5c                	pop    %r12
   13cd7:	41 5d                	pop    %r13
   13cd9:	41 5e                	pop    %r14
   13cdb:	41 5f                	pop    %r15
   13cdd:	5d                   	pop    %rbp
   13cde:	c3                   	retq   

0000000000013cdf <func_48>:
   13cdf:	f3 0f 1e fa          	endbr64 
   13ce3:	55                   	push   %rbp
   13ce4:	48 89 e5             	mov    %rsp,%rbp
   13ce7:	41 54                	push   %r12
   13ce9:	53                   	push   %rbx
   13cea:	48 81 ec f0 0c 00 00 	sub    $0xcf0,%rsp
   13cf1:	48 89 bd 08 f3 ff ff 	mov    %rdi,-0xcf8(%rbp)
   13cf8:	64 48 8b 04 25 28 00 	mov    %fs:0x28,%rax
   13cff:	00 00 
   13d01:	48 89 45 e8          	mov    %rax,-0x18(%rbp)
   13d05:	31 c0                	xor    %eax,%eax
   13d07:	48 8d 05 42 d3 00 00 	lea    0xd342(%rip),%rax        # 21050 <g_79>
   13d0e:	48 89 85 d0 f3 ff ff 	mov    %rax,-0xc30(%rbp)
   13d15:	48 c7 85 d8 f3 ff ff 	movq   $0x0,-0xc28(%rbp)
   13d1c:	00 00 00 00 
   13d20:	48 c7 85 e0 f3 ff ff 	movq   $0x0,-0xc20(%rbp)
   13d27:	00 00 00 00 
   13d2b:	48 8d 05 1e d3 00 00 	lea    0xd31e(%rip),%rax        # 21050 <g_79>
   13d32:	48 89 85 e8 f3 ff ff 	mov    %rax,-0xc18(%rbp)
   13d39:	48 8d 05 10 d3 00 00 	lea    0xd310(%rip),%rax        # 21050 <g_79>
   13d40:	48 89 85 70 f3 ff ff 	mov    %rax,-0xc90(%rbp)
   13d47:	48 8d 05 02 d3 00 00 	lea    0xd302(%rip),%rax        # 21050 <g_79>
   13d4e:	48 89 85 f0 f3 ff ff 	mov    %rax,-0xc10(%rbp)
   13d55:	48 b8 b7 d4 fa 3b 49 	movabs $0x4ee54c493bfad4b7,%rax
   13d5c:	4c e5 4e 
   13d5f:	48 89 85 f8 f3 ff ff 	mov    %rax,-0xc08(%rbp)
   13d66:	48 c7 85 78 f3 ff ff 	movq   $0xfffffffffffffffd,-0xc88(%rbp)
   13d6d:	fd ff ff ff 
   13d71:	48 c7 85 80 f3 ff ff 	movq   $0xffffffffffffffff,-0xc80(%rbp)
   13d78:	ff ff ff ff 
   13d7c:	c7 45 de 03 03 03 03 	movl   $0x3030303,-0x22(%rbp)
   13d83:	c6 45 e2 03          	movb   $0x3,-0x1e(%rbp)
   13d87:	c6 85 11 f3 ff ff 7e 	movb   $0x7e,-0xcef(%rbp)
   13d8e:	66 c7 85 1a f3 ff ff 	movw   $0x2,-0xce6(%rbp)
   13d95:	02 00 
   13d97:	c7 85 38 f3 ff ff 00 	movl   $0x0,-0xcc8(%rbp)
   13d9e:	00 00 00 
   13da1:	c7 85 3c f3 ff ff ff 	movl   $0xffffffff,-0xcc4(%rbp)
   13da8:	ff ff ff 
   13dab:	48 c7 85 00 f4 ff ff 	movq   $0x0,-0xc00(%rbp)
   13db2:	00 00 00 00 
   13db6:	c6 85 10 f3 ff ff eb 	movb   $0xeb,-0xcf0(%rbp)
   13dbd:	66 c7 85 18 f3 ff ff 	movw   $0x622e,-0xce8(%rbp)
   13dc4:	2e 62 
   13dc6:	48 8d 05 bb d3 00 00 	lea    0xd3bb(%rip),%rax        # 21188 <g_189>
   13dcd:	48 89 85 08 f4 ff ff 	mov    %rax,-0xbf8(%rbp)
   13dd4:	48 8d 05 a5 d3 00 00 	lea    0xd3a5(%rip),%rax        # 21180 <g_117>
   13ddb:	48 89 85 88 f3 ff ff 	mov    %rax,-0xc78(%rbp)
   13de2:	48 8d 85 88 f3 ff ff 	lea    -0xc78(%rbp),%rax
   13de9:	48 89 85 90 f3 ff ff 	mov    %rax,-0xc70(%rbp)
   13df0:	48 c7 85 d0 f8 ff ff 	movq   $0x0,-0x730(%rbp)
   13df7:	00 00 00 00 
   13dfb:	48 8d 85 90 f3 ff ff 	lea    -0xc70(%rbp),%rax
   13e02:	48 89 85 d8 f8 ff ff 	mov    %rax,-0x728(%rbp)
   13e09:	48 8d 85 90 f3 ff ff 	lea    -0xc70(%rbp),%rax
   13e10:	48 89 85 e0 f8 ff ff 	mov    %rax,-0x720(%rbp)
   13e17:	48 c7 85 e8 f8 ff ff 	movq   $0x0,-0x718(%rbp)
   13e1e:	00 00 00 00 
   13e22:	48 8d 85 90 f3 ff ff 	lea    -0xc70(%rbp),%rax
   13e29:	48 89 85 f0 f8 ff ff 	mov    %rax,-0x710(%rbp)
   13e30:	48 8d 85 90 f3 ff ff 	lea    -0xc70(%rbp),%rax
   13e37:	48 89 85 f8 f8 ff ff 	mov    %rax,-0x708(%rbp)
   13e3e:	48 c7 85 00 f9 ff ff 	movq   $0x0,-0x700(%rbp)
   13e45:	00 00 00 00 
   13e49:	48 c7 85 08 f9 ff ff 	movq   $0x0,-0x6f8(%rbp)
   13e50:	00 00 00 00 
   13e54:	48 8d 85 90 f3 ff ff 	lea    -0xc70(%rbp),%rax
   13e5b:	48 89 85 10 f9 ff ff 	mov    %rax,-0x6f0(%rbp)
   13e62:	48 8d 85 90 f3 ff ff 	lea    -0xc70(%rbp),%rax
   13e69:	48 89 85 18 f9 ff ff 	mov    %rax,-0x6e8(%rbp)
   13e70:	48 8d 85 90 f3 ff ff 	lea    -0xc70(%rbp),%rax
   13e77:	48 89 85 20 f9 ff ff 	mov    %rax,-0x6e0(%rbp)
   13e7e:	48 8d 85 90 f3 ff ff 	lea    -0xc70(%rbp),%rax
   13e85:	48 89 85 28 f9 ff ff 	mov    %rax,-0x6d8(%rbp)
   13e8c:	48 8d 85 90 f3 ff ff 	lea    -0xc70(%rbp),%rax
   13e93:	48 89 85 30 f9 ff ff 	mov    %rax,-0x6d0(%rbp)
   13e9a:	48 8d 85 90 f3 ff ff 	lea    -0xc70(%rbp),%rax
   13ea1:	48 89 85 38 f9 ff ff 	mov    %rax,-0x6c8(%rbp)
   13ea8:	48 8d 85 90 f3 ff ff 	lea    -0xc70(%rbp),%rax
   13eaf:	48 89 85 40 f9 ff ff 	mov    %rax,-0x6c0(%rbp)
   13eb6:	48 c7 85 48 f9 ff ff 	movq   $0x0,-0x6b8(%rbp)
   13ebd:	00 00 00 00 
   13ec1:	48 c7 85 50 f9 ff ff 	movq   $0x0,-0x6b0(%rbp)
   13ec8:	00 00 00 00 
   13ecc:	48 8d 85 90 f3 ff ff 	lea    -0xc70(%rbp),%rax
   13ed3:	48 89 85 58 f9 ff ff 	mov    %rax,-0x6a8(%rbp)
   13eda:	48 8d 85 90 f3 ff ff 	lea    -0xc70(%rbp),%rax
   13ee1:	48 89 85 60 f9 ff ff 	mov    %rax,-0x6a0(%rbp)
   13ee8:	48 c7 85 68 f9 ff ff 	movq   $0x0,-0x698(%rbp)
   13eef:	00 00 00 00 
   13ef3:	48 8d 85 90 f3 ff ff 	lea    -0xc70(%rbp),%rax
   13efa:	48 89 85 70 f9 ff ff 	mov    %rax,-0x690(%rbp)
   13f01:	48 8d 85 90 f3 ff ff 	lea    -0xc70(%rbp),%rax
   13f08:	48 89 85 78 f9 ff ff 	mov    %rax,-0x688(%rbp)
   13f0f:	48 c7 85 80 f9 ff ff 	movq   $0x0,-0x680(%rbp)
   13f16:	00 00 00 00 
   13f1a:	48 8d 85 90 f3 ff ff 	lea    -0xc70(%rbp),%rax
   13f21:	48 89 85 88 f9 ff ff 	mov    %rax,-0x678(%rbp)
   13f28:	48 c7 85 90 f9 ff ff 	movq   $0x0,-0x670(%rbp)
   13f2f:	00 00 00 00 
   13f33:	48 8d 85 90 f3 ff ff 	lea    -0xc70(%rbp),%rax
   13f3a:	48 89 85 98 f9 ff ff 	mov    %rax,-0x668(%rbp)
   13f41:	48 8d 85 90 f3 ff ff 	lea    -0xc70(%rbp),%rax
   13f48:	48 89 85 a0 f9 ff ff 	mov    %rax,-0x660(%rbp)
   13f4f:	48 8d 85 90 f3 ff ff 	lea    -0xc70(%rbp),%rax
   13f56:	48 89 85 a8 f9 ff ff 	mov    %rax,-0x658(%rbp)
   13f5d:	48 8d 85 90 f3 ff ff 	lea    -0xc70(%rbp),%rax
   13f64:	48 89 85 b0 f9 ff ff 	mov    %rax,-0x650(%rbp)
   13f6b:	48 8d 85 90 f3 ff ff 	lea    -0xc70(%rbp),%rax
   13f72:	48 89 85 b8 f9 ff ff 	mov    %rax,-0x648(%rbp)
   13f79:	48 8d 85 90 f3 ff ff 	lea    -0xc70(%rbp),%rax
   13f80:	48 89 85 c0 f9 ff ff 	mov    %rax,-0x640(%rbp)
   13f87:	48 8d 85 90 f3 ff ff 	lea    -0xc70(%rbp),%rax
   13f8e:	48 89 85 c8 f9 ff ff 	mov    %rax,-0x638(%rbp)
   13f95:	48 8d 85 90 f3 ff ff 	lea    -0xc70(%rbp),%rax
   13f9c:	48 89 85 d0 f9 ff ff 	mov    %rax,-0x630(%rbp)
   13fa3:	48 8d 85 90 f3 ff ff 	lea    -0xc70(%rbp),%rax
   13faa:	48 89 85 d8 f9 ff ff 	mov    %rax,-0x628(%rbp)
   13fb1:	48 8d 85 90 f3 ff ff 	lea    -0xc70(%rbp),%rax
   13fb8:	48 89 85 e0 f9 ff ff 	mov    %rax,-0x620(%rbp)
   13fbf:	48 8d 85 90 f3 ff ff 	lea    -0xc70(%rbp),%rax
   13fc6:	48 89 85 e8 f9 ff ff 	mov    %rax,-0x618(%rbp)
   13fcd:	48 8d 85 90 f3 ff ff 	lea    -0xc70(%rbp),%rax
   13fd4:	48 89 85 f0 f9 ff ff 	mov    %rax,-0x610(%rbp)
   13fdb:	48 8d 85 90 f3 ff ff 	lea    -0xc70(%rbp),%rax
   13fe2:	48 89 85 f8 f9 ff ff 	mov    %rax,-0x608(%rbp)
   13fe9:	48 8d 85 90 f3 ff ff 	lea    -0xc70(%rbp),%rax
   13ff0:	48 89 85 00 fa ff ff 	mov    %rax,-0x600(%rbp)
   13ff7:	48 8d 85 90 f3 ff ff 	lea    -0xc70(%rbp),%rax
   13ffe:	48 89 85 08 fa ff ff 	mov    %rax,-0x5f8(%rbp)
   14005:	48 8d 85 90 f3 ff ff 	lea    -0xc70(%rbp),%rax
   1400c:	48 89 85 10 fa ff ff 	mov    %rax,-0x5f0(%rbp)
   14013:	48 8d 85 90 f3 ff ff 	lea    -0xc70(%rbp),%rax
   1401a:	48 89 85 18 fa ff ff 	mov    %rax,-0x5e8(%rbp)
   14021:	48 8d 85 90 f3 ff ff 	lea    -0xc70(%rbp),%rax
   14028:	48 89 85 20 fa ff ff 	mov    %rax,-0x5e0(%rbp)
   1402f:	48 8d 85 90 f3 ff ff 	lea    -0xc70(%rbp),%rax
   14036:	48 89 85 28 fa ff ff 	mov    %rax,-0x5d8(%rbp)
   1403d:	48 8d 85 90 f3 ff ff 	lea    -0xc70(%rbp),%rax
   14044:	48 89 85 30 fa ff ff 	mov    %rax,-0x5d0(%rbp)
   1404b:	48 8d 85 90 f3 ff ff 	lea    -0xc70(%rbp),%rax
   14052:	48 89 85 38 fa ff ff 	mov    %rax,-0x5c8(%rbp)
   14059:	48 8d 85 90 f3 ff ff 	lea    -0xc70(%rbp),%rax
   14060:	48 89 85 40 fa ff ff 	mov    %rax,-0x5c0(%rbp)
   14067:	48 8d 85 90 f3 ff ff 	lea    -0xc70(%rbp),%rax
   1406e:	48 89 85 48 fa ff ff 	mov    %rax,-0x5b8(%rbp)
   14075:	48 8d 85 90 f3 ff ff 	lea    -0xc70(%rbp),%rax
   1407c:	48 89 85 50 fa ff ff 	mov    %rax,-0x5b0(%rbp)
   14083:	48 8d 85 90 f3 ff ff 	lea    -0xc70(%rbp),%rax
   1408a:	48 89 85 58 fa ff ff 	mov    %rax,-0x5a8(%rbp)
   14091:	48 c7 85 60 fa ff ff 	movq   $0x0,-0x5a0(%rbp)
   14098:	00 00 00 00 
   1409c:	48 8d 85 90 f3 ff ff 	lea    -0xc70(%rbp),%rax
   140a3:	48 89 85 68 fa ff ff 	mov    %rax,-0x598(%rbp)
   140aa:	48 8d 85 90 f3 ff ff 	lea    -0xc70(%rbp),%rax
   140b1:	48 89 85 70 fa ff ff 	mov    %rax,-0x590(%rbp)
   140b8:	48 8d 85 90 f3 ff ff 	lea    -0xc70(%rbp),%rax
   140bf:	48 89 85 78 fa ff ff 	mov    %rax,-0x588(%rbp)
   140c6:	48 8d 85 90 f3 ff ff 	lea    -0xc70(%rbp),%rax
   140cd:	48 89 85 80 fa ff ff 	mov    %rax,-0x580(%rbp)
   140d4:	48 8d 85 90 f3 ff ff 	lea    -0xc70(%rbp),%rax
   140db:	48 89 85 88 fa ff ff 	mov    %rax,-0x578(%rbp)
   140e2:	48 8d 85 90 f3 ff ff 	lea    -0xc70(%rbp),%rax
   140e9:	48 89 85 90 fa ff ff 	mov    %rax,-0x570(%rbp)
   140f0:	48 8d 85 90 f3 ff ff 	lea    -0xc70(%rbp),%rax
   140f7:	48 89 85 98 fa ff ff 	mov    %rax,-0x568(%rbp)
   140fe:	48 8d 85 90 f3 ff ff 	lea    -0xc70(%rbp),%rax
   14105:	48 89 85 a0 fa ff ff 	mov    %rax,-0x560(%rbp)
   1410c:	48 8d 85 90 f3 ff ff 	lea    -0xc70(%rbp),%rax
   14113:	48 89 85 a8 fa ff ff 	mov    %rax,-0x558(%rbp)
   1411a:	48 8d 85 90 f3 ff ff 	lea    -0xc70(%rbp),%rax
   14121:	48 89 85 b0 fa ff ff 	mov    %rax,-0x550(%rbp)
   14128:	48 8d 85 90 f3 ff ff 	lea    -0xc70(%rbp),%rax
   1412f:	48 89 85 b8 fa ff ff 	mov    %rax,-0x548(%rbp)
   14136:	48 8d 85 90 f3 ff ff 	lea    -0xc70(%rbp),%rax
   1413d:	48 89 85 c0 fa ff ff 	mov    %rax,-0x540(%rbp)
   14144:	48 8d 85 90 f3 ff ff 	lea    -0xc70(%rbp),%rax
   1414b:	48 89 85 c8 fa ff ff 	mov    %rax,-0x538(%rbp)
   14152:	48 8d 85 90 f3 ff ff 	lea    -0xc70(%rbp),%rax
   14159:	48 89 85 d0 fa ff ff 	mov    %rax,-0x530(%rbp)
   14160:	48 8d 85 90 f3 ff ff 	lea    -0xc70(%rbp),%rax
   14167:	48 89 85 d8 fa ff ff 	mov    %rax,-0x528(%rbp)
   1416e:	48 8d 85 90 f3 ff ff 	lea    -0xc70(%rbp),%rax
   14175:	48 89 85 e0 fa ff ff 	mov    %rax,-0x520(%rbp)
   1417c:	48 8d 85 90 f3 ff ff 	lea    -0xc70(%rbp),%rax
   14183:	48 89 85 e8 fa ff ff 	mov    %rax,-0x518(%rbp)
   1418a:	48 8d 85 90 f3 ff ff 	lea    -0xc70(%rbp),%rax
   14191:	48 89 85 f0 fa ff ff 	mov    %rax,-0x510(%rbp)
   14198:	48 8d 85 90 f3 ff ff 	lea    -0xc70(%rbp),%rax
   1419f:	48 89 85 f8 fa ff ff 	mov    %rax,-0x508(%rbp)
   141a6:	48 8d 85 90 f3 ff ff 	lea    -0xc70(%rbp),%rax
   141ad:	48 89 85 00 fb ff ff 	mov    %rax,-0x500(%rbp)
   141b4:	48 8d 85 90 f3 ff ff 	lea    -0xc70(%rbp),%rax
   141bb:	48 89 85 08 fb ff ff 	mov    %rax,-0x4f8(%rbp)
   141c2:	48 8d 85 90 f3 ff ff 	lea    -0xc70(%rbp),%rax
   141c9:	48 89 85 10 fb ff ff 	mov    %rax,-0x4f0(%rbp)
   141d0:	48 8d 85 90 f3 ff ff 	lea    -0xc70(%rbp),%rax
   141d7:	48 89 85 18 fb ff ff 	mov    %rax,-0x4e8(%rbp)
   141de:	48 c7 85 20 fb ff ff 	movq   $0x0,-0x4e0(%rbp)
   141e5:	00 00 00 00 
   141e9:	48 8d 85 90 f3 ff ff 	lea    -0xc70(%rbp),%rax
   141f0:	48 89 85 28 fb ff ff 	mov    %rax,-0x4d8(%rbp)
   141f7:	48 8d 85 90 f3 ff ff 	lea    -0xc70(%rbp),%rax
   141fe:	48 89 85 30 fb ff ff 	mov    %rax,-0x4d0(%rbp)
   14205:	48 8d 85 90 f3 ff ff 	lea    -0xc70(%rbp),%rax
   1420c:	48 89 85 38 fb ff ff 	mov    %rax,-0x4c8(%rbp)
   14213:	48 8d 85 90 f3 ff ff 	lea    -0xc70(%rbp),%rax
   1421a:	48 89 85 40 fb ff ff 	mov    %rax,-0x4c0(%rbp)
   14221:	48 8d 85 90 f3 ff ff 	lea    -0xc70(%rbp),%rax
   14228:	48 89 85 48 fb ff ff 	mov    %rax,-0x4b8(%rbp)
   1422f:	48 8d 85 90 f3 ff ff 	lea    -0xc70(%rbp),%rax
   14236:	48 89 85 50 fb ff ff 	mov    %rax,-0x4b0(%rbp)
   1423d:	48 8d 85 90 f3 ff ff 	lea    -0xc70(%rbp),%rax
   14244:	48 89 85 58 fb ff ff 	mov    %rax,-0x4a8(%rbp)
   1424b:	48 8d 85 90 f3 ff ff 	lea    -0xc70(%rbp),%rax
   14252:	48 89 85 60 fb ff ff 	mov    %rax,-0x4a0(%rbp)
   14259:	48 8d 85 90 f3 ff ff 	lea    -0xc70(%rbp),%rax
   14260:	48 89 85 68 fb ff ff 	mov    %rax,-0x498(%rbp)
   14267:	48 8d 85 90 f3 ff ff 	lea    -0xc70(%rbp),%rax
   1426e:	48 89 85 70 fb ff ff 	mov    %rax,-0x490(%rbp)
   14275:	48 8d 85 90 f3 ff ff 	lea    -0xc70(%rbp),%rax
   1427c:	48 89 85 78 fb ff ff 	mov    %rax,-0x488(%rbp)
   14283:	48 8d 85 90 f3 ff ff 	lea    -0xc70(%rbp),%rax
   1428a:	48 89 85 80 fb ff ff 	mov    %rax,-0x480(%rbp)
   14291:	48 8d 85 90 f3 ff ff 	lea    -0xc70(%rbp),%rax
   14298:	48 89 85 88 fb ff ff 	mov    %rax,-0x478(%rbp)
   1429f:	48 8d 85 90 f3 ff ff 	lea    -0xc70(%rbp),%rax
   142a6:	48 89 85 90 fb ff ff 	mov    %rax,-0x470(%rbp)
   142ad:	48 8d 85 90 f3 ff ff 	lea    -0xc70(%rbp),%rax
   142b4:	48 89 85 98 fb ff ff 	mov    %rax,-0x468(%rbp)
   142bb:	48 8d 85 90 f3 ff ff 	lea    -0xc70(%rbp),%rax
   142c2:	48 89 85 a0 fb ff ff 	mov    %rax,-0x460(%rbp)
   142c9:	48 8d 85 90 f3 ff ff 	lea    -0xc70(%rbp),%rax
   142d0:	48 89 85 a8 fb ff ff 	mov    %rax,-0x458(%rbp)
   142d7:	48 8d 85 90 f3 ff ff 	lea    -0xc70(%rbp),%rax
   142de:	48 89 85 b0 fb ff ff 	mov    %rax,-0x450(%rbp)
   142e5:	48 8d 85 90 f3 ff ff 	lea    -0xc70(%rbp),%rax
   142ec:	48 89 85 b8 fb ff ff 	mov    %rax,-0x448(%rbp)
   142f3:	48 8d 85 90 f3 ff ff 	lea    -0xc70(%rbp),%rax
   142fa:	48 89 85 c0 fb ff ff 	mov    %rax,-0x440(%rbp)
   14301:	48 8d 85 90 f3 ff ff 	lea    -0xc70(%rbp),%rax
   14308:	48 89 85 c8 fb ff ff 	mov    %rax,-0x438(%rbp)
   1430f:	48 8d 85 90 f3 ff ff 	lea    -0xc70(%rbp),%rax
   14316:	48 89 85 d0 fb ff ff 	mov    %rax,-0x430(%rbp)
   1431d:	48 8d 85 90 f3 ff ff 	lea    -0xc70(%rbp),%rax
   14324:	48 89 85 d8 fb ff ff 	mov    %rax,-0x428(%rbp)
   1432b:	48 c7 85 e0 fb ff ff 	movq   $0x0,-0x420(%rbp)
   14332:	00 00 00 00 
   14336:	48 8d 85 90 f3 ff ff 	lea    -0xc70(%rbp),%rax
   1433d:	48 89 85 e8 fb ff ff 	mov    %rax,-0x418(%rbp)
   14344:	48 8d 85 90 f3 ff ff 	lea    -0xc70(%rbp),%rax
   1434b:	48 89 85 f0 fb ff ff 	mov    %rax,-0x410(%rbp)
   14352:	48 8d 85 90 f3 ff ff 	lea    -0xc70(%rbp),%rax
   14359:	48 89 85 f8 fb ff ff 	mov    %rax,-0x408(%rbp)
   14360:	48 8d 85 90 f3 ff ff 	lea    -0xc70(%rbp),%rax
   14367:	48 89 85 00 fc ff ff 	mov    %rax,-0x400(%rbp)
   1436e:	48 8d 85 90 f3 ff ff 	lea    -0xc70(%rbp),%rax
   14375:	48 89 85 08 fc ff ff 	mov    %rax,-0x3f8(%rbp)
   1437c:	48 8d 85 90 f3 ff ff 	lea    -0xc70(%rbp),%rax
   14383:	48 89 85 10 fc ff ff 	mov    %rax,-0x3f0(%rbp)
   1438a:	48 8d 85 90 f3 ff ff 	lea    -0xc70(%rbp),%rax
   14391:	48 89 85 18 fc ff ff 	mov    %rax,-0x3e8(%rbp)
   14398:	48 8d 85 90 f3 ff ff 	lea    -0xc70(%rbp),%rax
   1439f:	48 89 85 20 fc ff ff 	mov    %rax,-0x3e0(%rbp)
   143a6:	48 8d 85 90 f3 ff ff 	lea    -0xc70(%rbp),%rax
   143ad:	48 89 85 28 fc ff ff 	mov    %rax,-0x3d8(%rbp)
   143b4:	48 8d 85 90 f3 ff ff 	lea    -0xc70(%rbp),%rax
   143bb:	48 89 85 30 fc ff ff 	mov    %rax,-0x3d0(%rbp)
   143c2:	48 8d 85 90 f3 ff ff 	lea    -0xc70(%rbp),%rax
   143c9:	48 89 85 38 fc ff ff 	mov    %rax,-0x3c8(%rbp)
   143d0:	48 8d 85 90 f3 ff ff 	lea    -0xc70(%rbp),%rax
   143d7:	48 89 85 40 fc ff ff 	mov    %rax,-0x3c0(%rbp)
   143de:	48 8d 85 90 f3 ff ff 	lea    -0xc70(%rbp),%rax
   143e5:	48 89 85 48 fc ff ff 	mov    %rax,-0x3b8(%rbp)
   143ec:	48 8d 85 90 f3 ff ff 	lea    -0xc70(%rbp),%rax
   143f3:	48 89 85 50 fc ff ff 	mov    %rax,-0x3b0(%rbp)
   143fa:	48 8d 85 90 f3 ff ff 	lea    -0xc70(%rbp),%rax
   14401:	48 89 85 58 fc ff ff 	mov    %rax,-0x3a8(%rbp)
   14408:	48 8d 85 90 f3 ff ff 	lea    -0xc70(%rbp),%rax
   1440f:	48 89 85 60 fc ff ff 	mov    %rax,-0x3a0(%rbp)
   14416:	48 8d 85 90 f3 ff ff 	lea    -0xc70(%rbp),%rax
   1441d:	48 89 85 68 fc ff ff 	mov    %rax,-0x398(%rbp)
   14424:	48 8d 85 90 f3 ff ff 	lea    -0xc70(%rbp),%rax
   1442b:	48 89 85 70 fc ff ff 	mov    %rax,-0x390(%rbp)
   14432:	48 8d 85 90 f3 ff ff 	lea    -0xc70(%rbp),%rax
   14439:	48 89 85 78 fc ff ff 	mov    %rax,-0x388(%rbp)
   14440:	48 8d 85 90 f3 ff ff 	lea    -0xc70(%rbp),%rax
   14447:	48 89 85 80 fc ff ff 	mov    %rax,-0x380(%rbp)
   1444e:	48 8d 85 90 f3 ff ff 	lea    -0xc70(%rbp),%rax
   14455:	48 89 85 88 fc ff ff 	mov    %rax,-0x378(%rbp)
   1445c:	48 8d 85 90 f3 ff ff 	lea    -0xc70(%rbp),%rax
   14463:	48 89 85 90 fc ff ff 	mov    %rax,-0x370(%rbp)
   1446a:	48 8d 85 90 f3 ff ff 	lea    -0xc70(%rbp),%rax
   14471:	48 89 85 98 fc ff ff 	mov    %rax,-0x368(%rbp)
   14478:	48 c7 85 a0 fc ff ff 	movq   $0x0,-0x360(%rbp)
   1447f:	00 00 00 00 
   14483:	48 8d 85 90 f3 ff ff 	lea    -0xc70(%rbp),%rax
   1448a:	48 89 85 a8 fc ff ff 	mov    %rax,-0x358(%rbp)
   14491:	48 8d 85 90 f3 ff ff 	lea    -0xc70(%rbp),%rax
   14498:	48 89 85 b0 fc ff ff 	mov    %rax,-0x350(%rbp)
   1449f:	48 8d 85 90 f3 ff ff 	lea    -0xc70(%rbp),%rax
   144a6:	48 89 85 b8 fc ff ff 	mov    %rax,-0x348(%rbp)
   144ad:	48 8d 85 90 f3 ff ff 	lea    -0xc70(%rbp),%rax
   144b4:	48 89 85 c0 fc ff ff 	mov    %rax,-0x340(%rbp)
   144bb:	48 8d 85 90 f3 ff ff 	lea    -0xc70(%rbp),%rax
   144c2:	48 89 85 c8 fc ff ff 	mov    %rax,-0x338(%rbp)
   144c9:	48 8d 85 90 f3 ff ff 	lea    -0xc70(%rbp),%rax
   144d0:	48 89 85 d0 fc ff ff 	mov    %rax,-0x330(%rbp)
   144d7:	48 8d 85 90 f3 ff ff 	lea    -0xc70(%rbp),%rax
   144de:	48 89 85 d8 fc ff ff 	mov    %rax,-0x328(%rbp)
   144e5:	48 8d 85 90 f3 ff ff 	lea    -0xc70(%rbp),%rax
   144ec:	48 89 85 e0 fc ff ff 	mov    %rax,-0x320(%rbp)
   144f3:	48 8d 85 90 f3 ff ff 	lea    -0xc70(%rbp),%rax
   144fa:	48 89 85 e8 fc ff ff 	mov    %rax,-0x318(%rbp)
   14501:	48 8d 85 90 f3 ff ff 	lea    -0xc70(%rbp),%rax
   14508:	48 89 85 f0 fc ff ff 	mov    %rax,-0x310(%rbp)
   1450f:	48 8d 85 90 f3 ff ff 	lea    -0xc70(%rbp),%rax
   14516:	48 89 85 f8 fc ff ff 	mov    %rax,-0x308(%rbp)
   1451d:	48 8d 85 90 f3 ff ff 	lea    -0xc70(%rbp),%rax
   14524:	48 89 85 00 fd ff ff 	mov    %rax,-0x300(%rbp)
   1452b:	48 8d 85 90 f3 ff ff 	lea    -0xc70(%rbp),%rax
   14532:	48 89 85 08 fd ff ff 	mov    %rax,-0x2f8(%rbp)
   14539:	48 8d 85 90 f3 ff ff 	lea    -0xc70(%rbp),%rax
   14540:	48 89 85 10 fd ff ff 	mov    %rax,-0x2f0(%rbp)
   14547:	48 8d 85 90 f3 ff ff 	lea    -0xc70(%rbp),%rax
   1454e:	48 89 85 18 fd ff ff 	mov    %rax,-0x2e8(%rbp)
   14555:	48 8d 85 90 f3 ff ff 	lea    -0xc70(%rbp),%rax
   1455c:	48 89 85 20 fd ff ff 	mov    %rax,-0x2e0(%rbp)
   14563:	48 8d 85 90 f3 ff ff 	lea    -0xc70(%rbp),%rax
   1456a:	48 89 85 28 fd ff ff 	mov    %rax,-0x2d8(%rbp)
   14571:	48 8d 85 90 f3 ff ff 	lea    -0xc70(%rbp),%rax
   14578:	48 89 85 30 fd ff ff 	mov    %rax,-0x2d0(%rbp)
   1457f:	48 8d 85 90 f3 ff ff 	lea    -0xc70(%rbp),%rax
   14586:	48 89 85 38 fd ff ff 	mov    %rax,-0x2c8(%rbp)
   1458d:	48 8d 85 90 f3 ff ff 	lea    -0xc70(%rbp),%rax
   14594:	48 89 85 40 fd ff ff 	mov    %rax,-0x2c0(%rbp)
   1459b:	48 8d 85 90 f3 ff ff 	lea    -0xc70(%rbp),%rax
   145a2:	48 89 85 48 fd ff ff 	mov    %rax,-0x2b8(%rbp)
   145a9:	48 8d 85 90 f3 ff ff 	lea    -0xc70(%rbp),%rax
   145b0:	48 89 85 50 fd ff ff 	mov    %rax,-0x2b0(%rbp)
   145b7:	48 8d 85 90 f3 ff ff 	lea    -0xc70(%rbp),%rax
   145be:	48 89 85 58 fd ff ff 	mov    %rax,-0x2a8(%rbp)
   145c5:	48 c7 85 60 fd ff ff 	movq   $0x0,-0x2a0(%rbp)
   145cc:	00 00 00 00 
   145d0:	48 8d 85 90 f3 ff ff 	lea    -0xc70(%rbp),%rax
   145d7:	48 89 85 68 fd ff ff 	mov    %rax,-0x298(%rbp)
   145de:	48 8d 85 90 f3 ff ff 	lea    -0xc70(%rbp),%rax
   145e5:	48 89 85 70 fd ff ff 	mov    %rax,-0x290(%rbp)
   145ec:	48 8d 85 90 f3 ff ff 	lea    -0xc70(%rbp),%rax
   145f3:	48 89 85 78 fd ff ff 	mov    %rax,-0x288(%rbp)
   145fa:	48 8d 85 90 f3 ff ff 	lea    -0xc70(%rbp),%rax
   14601:	48 89 85 80 fd ff ff 	mov    %rax,-0x280(%rbp)
   14608:	48 8d 85 90 f3 ff ff 	lea    -0xc70(%rbp),%rax
   1460f:	48 89 85 88 fd ff ff 	mov    %rax,-0x278(%rbp)
   14616:	48 8d 85 90 f3 ff ff 	lea    -0xc70(%rbp),%rax
   1461d:	48 89 85 90 fd ff ff 	mov    %rax,-0x270(%rbp)
   14624:	48 8d 85 90 f3 ff ff 	lea    -0xc70(%rbp),%rax
   1462b:	48 89 85 98 fd ff ff 	mov    %rax,-0x268(%rbp)
   14632:	48 8d 85 90 f3 ff ff 	lea    -0xc70(%rbp),%rax
   14639:	48 89 85 a0 fd ff ff 	mov    %rax,-0x260(%rbp)
   14640:	48 8d 85 90 f3 ff ff 	lea    -0xc70(%rbp),%rax
   14647:	48 89 85 a8 fd ff ff 	mov    %rax,-0x258(%rbp)
   1464e:	48 8d 85 90 f3 ff ff 	lea    -0xc70(%rbp),%rax
   14655:	48 89 85 b0 fd ff ff 	mov    %rax,-0x250(%rbp)
   1465c:	48 8d 85 90 f3 ff ff 	lea    -0xc70(%rbp),%rax
   14663:	48 89 85 b8 fd ff ff 	mov    %rax,-0x248(%rbp)
   1466a:	48 8d 85 90 f3 ff ff 	lea    -0xc70(%rbp),%rax
   14671:	48 89 85 c0 fd ff ff 	mov    %rax,-0x240(%rbp)
   14678:	48 8d 85 90 f3 ff ff 	lea    -0xc70(%rbp),%rax
   1467f:	48 89 85 c8 fd ff ff 	mov    %rax,-0x238(%rbp)
   14686:	48 8d 85 90 f3 ff ff 	lea    -0xc70(%rbp),%rax
   1468d:	48 89 85 d0 fd ff ff 	mov    %rax,-0x230(%rbp)
   14694:	48 8d 85 90 f3 ff ff 	lea    -0xc70(%rbp),%rax
   1469b:	48 89 85 d8 fd ff ff 	mov    %rax,-0x228(%rbp)
   146a2:	48 8d 85 90 f3 ff ff 	lea    -0xc70(%rbp),%rax
   146a9:	48 89 85 e0 fd ff ff 	mov    %rax,-0x220(%rbp)
   146b0:	48 8d 85 90 f3 ff ff 	lea    -0xc70(%rbp),%rax
   146b7:	48 89 85 e8 fd ff ff 	mov    %rax,-0x218(%rbp)
   146be:	48 8d 85 90 f3 ff ff 	lea    -0xc70(%rbp),%rax
   146c5:	48 89 85 f0 fd ff ff 	mov    %rax,-0x210(%rbp)
   146cc:	48 8d 85 90 f3 ff ff 	lea    -0xc70(%rbp),%rax
   146d3:	48 89 85 f8 fd ff ff 	mov    %rax,-0x208(%rbp)
   146da:	48 8d 85 90 f3 ff ff 	lea    -0xc70(%rbp),%rax
   146e1:	48 89 85 00 fe ff ff 	mov    %rax,-0x200(%rbp)
   146e8:	48 8d 85 90 f3 ff ff 	lea    -0xc70(%rbp),%rax
   146ef:	48 89 85 08 fe ff ff 	mov    %rax,-0x1f8(%rbp)
   146f6:	48 8d 85 90 f3 ff ff 	lea    -0xc70(%rbp),%rax
   146fd:	48 89 85 10 fe ff ff 	mov    %rax,-0x1f0(%rbp)
   14704:	48 8d 85 90 f3 ff ff 	lea    -0xc70(%rbp),%rax
   1470b:	48 89 85 18 fe ff ff 	mov    %rax,-0x1e8(%rbp)
   14712:	48 c7 85 20 fe ff ff 	movq   $0x0,-0x1e0(%rbp)
   14719:	00 00 00 00 
   1471d:	48 8d 85 90 f3 ff ff 	lea    -0xc70(%rbp),%rax
   14724:	48 89 85 28 fe ff ff 	mov    %rax,-0x1d8(%rbp)
   1472b:	48 8d 85 90 f3 ff ff 	lea    -0xc70(%rbp),%rax
   14732:	48 89 85 30 fe ff ff 	mov    %rax,-0x1d0(%rbp)
   14739:	48 8d 85 90 f3 ff ff 	lea    -0xc70(%rbp),%rax
   14740:	48 89 85 38 fe ff ff 	mov    %rax,-0x1c8(%rbp)
   14747:	48 8d 85 90 f3 ff ff 	lea    -0xc70(%rbp),%rax
   1474e:	48 89 85 40 fe ff ff 	mov    %rax,-0x1c0(%rbp)
   14755:	48 8d 85 90 f3 ff ff 	lea    -0xc70(%rbp),%rax
   1475c:	48 89 85 48 fe ff ff 	mov    %rax,-0x1b8(%rbp)
   14763:	48 8d 85 90 f3 ff ff 	lea    -0xc70(%rbp),%rax
   1476a:	48 89 85 50 fe ff ff 	mov    %rax,-0x1b0(%rbp)
   14771:	48 8d 85 90 f3 ff ff 	lea    -0xc70(%rbp),%rax
   14778:	48 89 85 58 fe ff ff 	mov    %rax,-0x1a8(%rbp)
   1477f:	48 8d 85 90 f3 ff ff 	lea    -0xc70(%rbp),%rax
   14786:	48 89 85 60 fe ff ff 	mov    %rax,-0x1a0(%rbp)
   1478d:	48 8d 85 90 f3 ff ff 	lea    -0xc70(%rbp),%rax
   14794:	48 89 85 68 fe ff ff 	mov    %rax,-0x198(%rbp)
   1479b:	48 8d 85 90 f3 ff ff 	lea    -0xc70(%rbp),%rax
   147a2:	48 89 85 70 fe ff ff 	mov    %rax,-0x190(%rbp)
   147a9:	48 8d 85 90 f3 ff ff 	lea    -0xc70(%rbp),%rax
   147b0:	48 89 85 78 fe ff ff 	mov    %rax,-0x188(%rbp)
   147b7:	48 8d 85 90 f3 ff ff 	lea    -0xc70(%rbp),%rax
   147be:	48 89 85 80 fe ff ff 	mov    %rax,-0x180(%rbp)
   147c5:	48 8d 85 90 f3 ff ff 	lea    -0xc70(%rbp),%rax
   147cc:	48 89 85 88 fe ff ff 	mov    %rax,-0x178(%rbp)
   147d3:	48 8d 85 90 f3 ff ff 	lea    -0xc70(%rbp),%rax
   147da:	48 89 85 90 fe ff ff 	mov    %rax,-0x170(%rbp)
   147e1:	48 8d 85 90 f3 ff ff 	lea    -0xc70(%rbp),%rax
   147e8:	48 89 85 98 fe ff ff 	mov    %rax,-0x168(%rbp)
   147ef:	48 8d 85 90 f3 ff ff 	lea    -0xc70(%rbp),%rax
   147f6:	48 89 85 a0 fe ff ff 	mov    %rax,-0x160(%rbp)
   147fd:	48 8d 85 90 f3 ff ff 	lea    -0xc70(%rbp),%rax
   14804:	48 89 85 a8 fe ff ff 	mov    %rax,-0x158(%rbp)
   1480b:	48 8d 85 90 f3 ff ff 	lea    -0xc70(%rbp),%rax
   14812:	48 89 85 b0 fe ff ff 	mov    %rax,-0x150(%rbp)
   14819:	48 8d 85 90 f3 ff ff 	lea    -0xc70(%rbp),%rax
   14820:	48 89 85 b8 fe ff ff 	mov    %rax,-0x148(%rbp)
   14827:	48 8d 85 90 f3 ff ff 	lea    -0xc70(%rbp),%rax
   1482e:	48 89 85 c0 fe ff ff 	mov    %rax,-0x140(%rbp)
   14835:	48 8d 85 90 f3 ff ff 	lea    -0xc70(%rbp),%rax
   1483c:	48 89 85 c8 fe ff ff 	mov    %rax,-0x138(%rbp)
   14843:	48 8d 85 90 f3 ff ff 	lea    -0xc70(%rbp),%rax
   1484a:	48 89 85 d0 fe ff ff 	mov    %rax,-0x130(%rbp)
   14851:	48 8d 85 90 f3 ff ff 	lea    -0xc70(%rbp),%rax
   14858:	48 89 85 d8 fe ff ff 	mov    %rax,-0x128(%rbp)
   1485f:	48 c7 85 e0 fe ff ff 	movq   $0x0,-0x120(%rbp)
   14866:	00 00 00 00 
   1486a:	48 8d 85 90 f3 ff ff 	lea    -0xc70(%rbp),%rax
   14871:	48 89 85 e8 fe ff ff 	mov    %rax,-0x118(%rbp)
   14878:	48 8d 85 90 f3 ff ff 	lea    -0xc70(%rbp),%rax
   1487f:	48 89 85 f0 fe ff ff 	mov    %rax,-0x110(%rbp)
   14886:	48 8d 85 90 f3 ff ff 	lea    -0xc70(%rbp),%rax
   1488d:	48 89 85 f8 fe ff ff 	mov    %rax,-0x108(%rbp)
   14894:	48 8d 85 90 f3 ff ff 	lea    -0xc70(%rbp),%rax
   1489b:	48 89 85 00 ff ff ff 	mov    %rax,-0x100(%rbp)
   148a2:	48 8d 85 90 f3 ff ff 	lea    -0xc70(%rbp),%rax
   148a9:	48 89 85 08 ff ff ff 	mov    %rax,-0xf8(%rbp)
   148b0:	48 8d 85 90 f3 ff ff 	lea    -0xc70(%rbp),%rax
   148b7:	48 89 85 10 ff ff ff 	mov    %rax,-0xf0(%rbp)
   148be:	48 8d 85 90 f3 ff ff 	lea    -0xc70(%rbp),%rax
   148c5:	48 89 85 18 ff ff ff 	mov    %rax,-0xe8(%rbp)
   148cc:	48 8d 85 90 f3 ff ff 	lea    -0xc70(%rbp),%rax
   148d3:	48 89 85 20 ff ff ff 	mov    %rax,-0xe0(%rbp)
   148da:	48 8d 85 90 f3 ff ff 	lea    -0xc70(%rbp),%rax
   148e1:	48 89 85 28 ff ff ff 	mov    %rax,-0xd8(%rbp)
   148e8:	48 8d 85 90 f3 ff ff 	lea    -0xc70(%rbp),%rax
   148ef:	48 89 85 30 ff ff ff 	mov    %rax,-0xd0(%rbp)
   148f6:	48 8d 85 90 f3 ff ff 	lea    -0xc70(%rbp),%rax
   148fd:	48 89 85 38 ff ff ff 	mov    %rax,-0xc8(%rbp)
   14904:	48 8d 85 90 f3 ff ff 	lea    -0xc70(%rbp),%rax
   1490b:	48 89 85 40 ff ff ff 	mov    %rax,-0xc0(%rbp)
   14912:	48 8d 85 90 f3 ff ff 	lea    -0xc70(%rbp),%rax
   14919:	48 89 85 48 ff ff ff 	mov    %rax,-0xb8(%rbp)
   14920:	48 8d 85 90 f3 ff ff 	lea    -0xc70(%rbp),%rax
   14927:	48 89 85 50 ff ff ff 	mov    %rax,-0xb0(%rbp)
   1492e:	48 8d 85 90 f3 ff ff 	lea    -0xc70(%rbp),%rax
   14935:	48 89 85 58 ff ff ff 	mov    %rax,-0xa8(%rbp)
   1493c:	48 8d 85 90 f3 ff ff 	lea    -0xc70(%rbp),%rax
   14943:	48 89 85 60 ff ff ff 	mov    %rax,-0xa0(%rbp)
   1494a:	48 8d 85 90 f3 ff ff 	lea    -0xc70(%rbp),%rax
   14951:	48 89 85 68 ff ff ff 	mov    %rax,-0x98(%rbp)
   14958:	48 8d 85 90 f3 ff ff 	lea    -0xc70(%rbp),%rax
   1495f:	48 89 85 70 ff ff ff 	mov    %rax,-0x90(%rbp)
   14966:	48 8d 85 90 f3 ff ff 	lea    -0xc70(%rbp),%rax
   1496d:	48 89 85 78 ff ff ff 	mov    %rax,-0x88(%rbp)
   14974:	48 8d 85 90 f3 ff ff 	lea    -0xc70(%rbp),%rax
   1497b:	48 89 45 80          	mov    %rax,-0x80(%rbp)
   1497f:	48 8d 85 90 f3 ff ff 	lea    -0xc70(%rbp),%rax
   14986:	48 89 45 88          	mov    %rax,-0x78(%rbp)
   1498a:	48 8d 85 90 f3 ff ff 	lea    -0xc70(%rbp),%rax
   14991:	48 89 45 90          	mov    %rax,-0x70(%rbp)
   14995:	48 8d 85 90 f3 ff ff 	lea    -0xc70(%rbp),%rax
   1499c:	48 89 45 98          	mov    %rax,-0x68(%rbp)
   149a0:	48 8d 85 90 f3 ff ff 	lea    -0xc70(%rbp),%rax
   149a7:	48 89 45 a0          	mov    %rax,-0x60(%rbp)
   149ab:	48 8d 85 90 f3 ff ff 	lea    -0xc70(%rbp),%rax
   149b2:	48 89 45 a8          	mov    %rax,-0x58(%rbp)
   149b6:	48 8d 85 90 f3 ff ff 	lea    -0xc70(%rbp),%rax
   149bd:	48 89 45 b0          	mov    %rax,-0x50(%rbp)
   149c1:	48 8d 85 90 f3 ff ff 	lea    -0xc70(%rbp),%rax
   149c8:	48 89 45 b8          	mov    %rax,-0x48(%rbp)
   149cc:	48 8d 85 90 f3 ff ff 	lea    -0xc70(%rbp),%rax
   149d3:	48 89 45 c0          	mov    %rax,-0x40(%rbp)
   149d7:	48 8d 85 90 f3 ff ff 	lea    -0xc70(%rbp),%rax
   149de:	48 89 45 c8          	mov    %rax,-0x38(%rbp)
   149e2:	48 8d 85 d0 f8 ff ff 	lea    -0x730(%rbp),%rax
   149e9:	48 05 a0 01 00 00    	add    $0x1a0,%rax
   149ef:	48 89 85 f0 f6 ff ff 	mov    %rax,-0x910(%rbp)
   149f6:	48 c7 85 f8 f6 ff ff 	movq   $0x0,-0x908(%rbp)
   149fd:	00 00 00 00 
   14a01:	48 8d 85 d0 f8 ff ff 	lea    -0x730(%rbp),%rax
   14a08:	48 05 a0 01 00 00    	add    $0x1a0,%rax
   14a0e:	48 89 85 00 f7 ff ff 	mov    %rax,-0x900(%rbp)
   14a15:	48 8d 85 d0 f8 ff ff 	lea    -0x730(%rbp),%rax
   14a1c:	48 05 88 00 00 00    	add    $0x88,%rax
   14a22:	48 89 85 08 f7 ff ff 	mov    %rax,-0x8f8(%rbp)
   14a29:	48 8d 85 d0 f8 ff ff 	lea    -0x730(%rbp),%rax
   14a30:	48 05 a0 01 00 00    	add    $0x1a0,%rax
   14a36:	48 89 85 10 f7 ff ff 	mov    %rax,-0x8f0(%rbp)
   14a3d:	48 8d 85 d0 f8 ff ff 	lea    -0x730(%rbp),%rax
   14a44:	48 05 88 00 00 00    	add    $0x88,%rax
   14a4a:	48 89 85 18 f7 ff ff 	mov    %rax,-0x8e8(%rbp)
   14a51:	48 8d 85 d0 f8 ff ff 	lea    -0x730(%rbp),%rax
   14a58:	48 05 a0 01 00 00    	add    $0x1a0,%rax
   14a5e:	48 89 85 20 f7 ff ff 	mov    %rax,-0x8e0(%rbp)
   14a65:	48 c7 85 28 f7 ff ff 	movq   $0x0,-0x8d8(%rbp)
   14a6c:	00 00 00 00 
   14a70:	48 8d 85 d0 f8 ff ff 	lea    -0x730(%rbp),%rax
   14a77:	48 05 50 01 00 00    	add    $0x150,%rax
   14a7d:	48 89 85 30 f7 ff ff 	mov    %rax,-0x8d0(%rbp)
   14a84:	48 8d 85 d0 f8 ff ff 	lea    -0x730(%rbp),%rax
   14a8b:	48 05 88 00 00 00    	add    $0x88,%rax
   14a91:	48 89 85 38 f7 ff ff 	mov    %rax,-0x8c8(%rbp)
   14a98:	48 8d 85 d0 f8 ff ff 	lea    -0x730(%rbp),%rax
   14a9f:	48 05 a0 01 00 00    	add    $0x1a0,%rax
   14aa5:	48 89 85 40 f7 ff ff 	mov    %rax,-0x8c0(%rbp)
   14aac:	48 8d 85 d0 f8 ff ff 	lea    -0x730(%rbp),%rax
   14ab3:	48 05 d0 06 00 00    	add    $0x6d0,%rax
   14ab9:	48 89 85 48 f7 ff ff 	mov    %rax,-0x8b8(%rbp)
   14ac0:	48 8d 85 d0 f8 ff ff 	lea    -0x730(%rbp),%rax
   14ac7:	48 05 a0 01 00 00    	add    $0x1a0,%rax
   14acd:	48 89 85 50 f7 ff ff 	mov    %rax,-0x8b0(%rbp)
   14ad4:	48 8d 85 d0 f8 ff ff 	lea    -0x730(%rbp),%rax
   14adb:	48 05 a0 01 00 00    	add    $0x1a0,%rax
   14ae1:	48 89 85 58 f7 ff ff 	mov    %rax,-0x8a8(%rbp)
   14ae8:	48 8d 85 d0 f8 ff ff 	lea    -0x730(%rbp),%rax
   14aef:	48 05 a0 01 00 00    	add    $0x1a0,%rax
   14af5:	48 89 85 60 f7 ff ff 	mov    %rax,-0x8a0(%rbp)
   14afc:	48 8d 85 d0 f8 ff ff 	lea    -0x730(%rbp),%rax
   14b03:	48 05 88 00 00 00    	add    $0x88,%rax
   14b09:	48 89 85 68 f7 ff ff 	mov    %rax,-0x898(%rbp)
   14b10:	48 8d 85 d0 f8 ff ff 	lea    -0x730(%rbp),%rax
   14b17:	48 05 68 06 00 00    	add    $0x668,%rax
   14b1d:	48 89 85 70 f7 ff ff 	mov    %rax,-0x890(%rbp)
   14b24:	48 8d 85 d0 f8 ff ff 	lea    -0x730(%rbp),%rax
   14b2b:	48 05 a0 01 00 00    	add    $0x1a0,%rax
   14b31:	48 89 85 78 f7 ff ff 	mov    %rax,-0x888(%rbp)
   14b38:	48 8d 85 d0 f8 ff ff 	lea    -0x730(%rbp),%rax
   14b3f:	48 05 a0 01 00 00    	add    $0x1a0,%rax
   14b45:	48 89 85 80 f7 ff ff 	mov    %rax,-0x880(%rbp)
   14b4c:	48 c7 85 88 f7 ff ff 	movq   $0x0,-0x878(%rbp)
   14b53:	00 00 00 00 
   14b57:	48 8d 85 d0 f8 ff ff 	lea    -0x730(%rbp),%rax
   14b5e:	48 05 a0 01 00 00    	add    $0x1a0,%rax
   14b64:	48 89 85 90 f7 ff ff 	mov    %rax,-0x870(%rbp)
   14b6b:	48 8d 85 d0 f8 ff ff 	lea    -0x730(%rbp),%rax
   14b72:	48 05 88 00 00 00    	add    $0x88,%rax
   14b78:	48 89 85 98 f7 ff ff 	mov    %rax,-0x868(%rbp)
   14b7f:	48 8d 85 d0 f8 ff ff 	lea    -0x730(%rbp),%rax
   14b86:	48 05 a0 01 00 00    	add    $0x1a0,%rax
   14b8c:	48 89 85 a0 f7 ff ff 	mov    %rax,-0x860(%rbp)
   14b93:	48 8d 85 d0 f8 ff ff 	lea    -0x730(%rbp),%rax
   14b9a:	48 05 88 00 00 00    	add    $0x88,%rax
   14ba0:	48 89 85 a8 f7 ff ff 	mov    %rax,-0x858(%rbp)
   14ba7:	48 8d 85 d0 f8 ff ff 	lea    -0x730(%rbp),%rax
   14bae:	48 05 a0 01 00 00    	add    $0x1a0,%rax
   14bb4:	48 89 85 b0 f7 ff ff 	mov    %rax,-0x850(%rbp)
   14bbb:	48 c7 85 b8 f7 ff ff 	movq   $0x0,-0x848(%rbp)
   14bc2:	00 00 00 00 
   14bc6:	48 8d 85 d0 f8 ff ff 	lea    -0x730(%rbp),%rax
   14bcd:	48 05 50 01 00 00    	add    $0x150,%rax
   14bd3:	48 89 85 c0 f7 ff ff 	mov    %rax,-0x840(%rbp)
   14bda:	48 8d 85 d0 f8 ff ff 	lea    -0x730(%rbp),%rax
   14be1:	48 05 88 00 00 00    	add    $0x88,%rax
   14be7:	48 89 85 c8 f7 ff ff 	mov    %rax,-0x838(%rbp)
   14bee:	48 8d 85 d0 f8 ff ff 	lea    -0x730(%rbp),%rax
   14bf5:	48 05 a0 01 00 00    	add    $0x1a0,%rax
   14bfb:	48 89 85 d0 f7 ff ff 	mov    %rax,-0x830(%rbp)
   14c02:	48 8d 85 d0 f8 ff ff 	lea    -0x730(%rbp),%rax
   14c09:	48 05 d0 06 00 00    	add    $0x6d0,%rax
   14c0f:	48 89 85 d8 f7 ff ff 	mov    %rax,-0x828(%rbp)
   14c16:	48 8d 85 d0 f8 ff ff 	lea    -0x730(%rbp),%rax
   14c1d:	48 05 a0 01 00 00    	add    $0x1a0,%rax
   14c23:	48 89 85 e0 f7 ff ff 	mov    %rax,-0x820(%rbp)
   14c2a:	48 8d 85 d0 f8 ff ff 	lea    -0x730(%rbp),%rax
   14c31:	48 05 a0 01 00 00    	add    $0x1a0,%rax
   14c37:	48 89 85 e8 f7 ff ff 	mov    %rax,-0x818(%rbp)
   14c3e:	48 8d 85 d0 f8 ff ff 	lea    -0x730(%rbp),%rax
   14c45:	48 05 a0 01 00 00    	add    $0x1a0,%rax
   14c4b:	48 89 85 f0 f7 ff ff 	mov    %rax,-0x810(%rbp)
   14c52:	48 8d 85 d0 f8 ff ff 	lea    -0x730(%rbp),%rax
   14c59:	48 05 88 00 00 00    	add    $0x88,%rax
   14c5f:	48 89 85 f8 f7 ff ff 	mov    %rax,-0x808(%rbp)
   14c66:	48 8d 85 d0 f8 ff ff 	lea    -0x730(%rbp),%rax
   14c6d:	48 05 68 06 00 00    	add    $0x668,%rax
   14c73:	48 89 85 00 f8 ff ff 	mov    %rax,-0x800(%rbp)
   14c7a:	48 8d 85 d0 f8 ff ff 	lea    -0x730(%rbp),%rax
   14c81:	48 05 a0 01 00 00    	add    $0x1a0,%rax
   14c87:	48 89 85 08 f8 ff ff 	mov    %rax,-0x7f8(%rbp)
   14c8e:	48 8d 85 d0 f8 ff ff 	lea    -0x730(%rbp),%rax
   14c95:	48 05 a0 01 00 00    	add    $0x1a0,%rax
   14c9b:	48 89 85 10 f8 ff ff 	mov    %rax,-0x7f0(%rbp)
   14ca2:	48 c7 85 18 f8 ff ff 	movq   $0x0,-0x7e8(%rbp)
   14ca9:	00 00 00 00 
   14cad:	48 8d 85 d0 f8 ff ff 	lea    -0x730(%rbp),%rax
   14cb4:	48 05 a0 01 00 00    	add    $0x1a0,%rax
   14cba:	48 89 85 20 f8 ff ff 	mov    %rax,-0x7e0(%rbp)
   14cc1:	48 8d 85 d0 f8 ff ff 	lea    -0x730(%rbp),%rax
   14cc8:	48 05 88 00 00 00    	add    $0x88,%rax
   14cce:	48 89 85 28 f8 ff ff 	mov    %rax,-0x7d8(%rbp)
   14cd5:	48 8d 85 d0 f8 ff ff 	lea    -0x730(%rbp),%rax
   14cdc:	48 05 a0 01 00 00    	add    $0x1a0,%rax
   14ce2:	48 89 85 30 f8 ff ff 	mov    %rax,-0x7d0(%rbp)
   14ce9:	48 8d 85 d0 f8 ff ff 	lea    -0x730(%rbp),%rax
   14cf0:	48 05 88 00 00 00    	add    $0x88,%rax
   14cf6:	48 89 85 38 f8 ff ff 	mov    %rax,-0x7c8(%rbp)
   14cfd:	48 8d 85 d0 f8 ff ff 	lea    -0x730(%rbp),%rax
   14d04:	48 05 a0 01 00 00    	add    $0x1a0,%rax
   14d0a:	48 89 85 40 f8 ff ff 	mov    %rax,-0x7c0(%rbp)
   14d11:	48 c7 85 48 f8 ff ff 	movq   $0x0,-0x7b8(%rbp)
   14d18:	00 00 00 00 
   14d1c:	48 8d 85 d0 f8 ff ff 	lea    -0x730(%rbp),%rax
   14d23:	48 05 50 01 00 00    	add    $0x150,%rax
   14d29:	48 89 85 50 f8 ff ff 	mov    %rax,-0x7b0(%rbp)
   14d30:	48 8d 85 d0 f8 ff ff 	lea    -0x730(%rbp),%rax
   14d37:	48 05 88 00 00 00    	add    $0x88,%rax
   14d3d:	48 89 85 58 f8 ff ff 	mov    %rax,-0x7a8(%rbp)
   14d44:	48 8d 85 d0 f8 ff ff 	lea    -0x730(%rbp),%rax
   14d4b:	48 05 a0 01 00 00    	add    $0x1a0,%rax
   14d51:	48 89 85 60 f8 ff ff 	mov    %rax,-0x7a0(%rbp)
   14d58:	48 8d 85 d0 f8 ff ff 	lea    -0x730(%rbp),%rax
   14d5f:	48 05 d0 06 00 00    	add    $0x6d0,%rax
   14d65:	48 89 85 68 f8 ff ff 	mov    %rax,-0x798(%rbp)
   14d6c:	48 8d 85 d0 f8 ff ff 	lea    -0x730(%rbp),%rax
   14d73:	48 05 a0 01 00 00    	add    $0x1a0,%rax
   14d79:	48 89 85 70 f8 ff ff 	mov    %rax,-0x790(%rbp)
   14d80:	48 8d 85 d0 f8 ff ff 	lea    -0x730(%rbp),%rax
   14d87:	48 05 a0 01 00 00    	add    $0x1a0,%rax
   14d8d:	48 89 85 78 f8 ff ff 	mov    %rax,-0x788(%rbp)
   14d94:	48 8d 85 d0 f8 ff ff 	lea    -0x730(%rbp),%rax
   14d9b:	48 05 a0 01 00 00    	add    $0x1a0,%rax
   14da1:	48 89 85 80 f8 ff ff 	mov    %rax,-0x780(%rbp)
   14da8:	48 8d 85 d0 f8 ff ff 	lea    -0x730(%rbp),%rax
   14daf:	48 05 88 00 00 00    	add    $0x88,%rax
   14db5:	48 89 85 88 f8 ff ff 	mov    %rax,-0x778(%rbp)
   14dbc:	48 8d 85 d0 f8 ff ff 	lea    -0x730(%rbp),%rax
   14dc3:	48 05 68 06 00 00    	add    $0x668,%rax
   14dc9:	48 89 85 90 f8 ff ff 	mov    %rax,-0x770(%rbp)
   14dd0:	48 8d 85 d0 f8 ff ff 	lea    -0x730(%rbp),%rax
   14dd7:	48 05 a0 01 00 00    	add    $0x1a0,%rax
   14ddd:	48 89 85 98 f8 ff ff 	mov    %rax,-0x768(%rbp)
   14de4:	48 8d 85 d0 f8 ff ff 	lea    -0x730(%rbp),%rax
   14deb:	48 05 a0 01 00 00    	add    $0x1a0,%rax
   14df1:	48 89 85 a0 f8 ff ff 	mov    %rax,-0x760(%rbp)
   14df8:	48 c7 85 a8 f8 ff ff 	movq   $0x0,-0x758(%rbp)
   14dff:	00 00 00 00 
   14e03:	48 8d 85 d0 f8 ff ff 	lea    -0x730(%rbp),%rax
   14e0a:	48 05 a0 01 00 00    	add    $0x1a0,%rax
   14e10:	48 89 85 b0 f8 ff ff 	mov    %rax,-0x750(%rbp)
   14e17:	48 8d 85 d0 f8 ff ff 	lea    -0x730(%rbp),%rax
   14e1e:	48 05 88 00 00 00    	add    $0x88,%rax
   14e24:	48 89 85 b8 f8 ff ff 	mov    %rax,-0x748(%rbp)
   14e2b:	48 8d 85 d0 f8 ff ff 	lea    -0x730(%rbp),%rax
   14e32:	48 05 a0 01 00 00    	add    $0x1a0,%rax
   14e38:	48 89 85 c0 f8 ff ff 	mov    %rax,-0x740(%rbp)
   14e3f:	48 8d 85 d0 f8 ff ff 	lea    -0x730(%rbp),%rax
   14e46:	48 05 88 00 00 00    	add    $0x88,%rax
   14e4c:	48 89 85 c8 f8 ff ff 	mov    %rax,-0x738(%rbp)
   14e53:	c7 85 20 f3 ff ff ff 	movl   $0xffffffff,-0xce0(%rbp)
   14e5a:	ff ff ff 
   14e5d:	48 c7 85 10 f4 ff ff 	movq   $0x1,-0xbf0(%rbp)
   14e64:	01 00 00 00 
   14e68:	66 c7 85 16 f3 ff ff 	movw   $0xfff9,-0xcea(%rbp)
   14e6f:	f9 ff 
   14e71:	48 8d 85 78 f3 ff ff 	lea    -0xc88(%rbp),%rax
   14e78:	48 89 85 18 f4 ff ff 	mov    %rax,-0xbe8(%rbp)
   14e7f:	48 8d 05 ca f7 00 00 	lea    0xf7ca(%rip),%rax        # 24650 <g_111>
   14e86:	48 89 85 98 f3 ff ff 	mov    %rax,-0xc68(%rbp)
   14e8d:	48 8d 85 98 f3 ff ff 	lea    -0xc68(%rbp),%rax
   14e94:	48 89 85 20 f4 ff ff 	mov    %rax,-0xbe0(%rbp)
   14e9b:	48 8d 05 de eb 00 00 	lea    0xebde(%rip),%rax        # 23a80 <g_1409>
   14ea2:	48 89 85 a0 f3 ff ff 	mov    %rax,-0xc60(%rbp)
   14ea9:	48 8d 85 a0 f3 ff ff 	lea    -0xc60(%rbp),%rax
   14eb0:	48 89 85 28 f4 ff ff 	mov    %rax,-0xbd8(%rbp)
   14eb7:	c7 85 40 f5 ff ff 00 	movl   $0x0,-0xac0(%rbp)
   14ebe:	00 00 00 
   14ec1:	c7 85 44 f5 ff ff 4e 	movl   $0xdd6f144e,-0xabc(%rbp)
   14ec8:	14 6f dd 
   14ecb:	c7 85 48 f5 ff ff ff 	movl   $0xffffffff,-0xab8(%rbp)
   14ed2:	ff ff ff 
   14ed5:	c7 85 4c f5 ff ff 50 	movl   $0xe4f07950,-0xab4(%rbp)
   14edc:	79 f0 e4 
   14edf:	c7 85 50 f5 ff ff 4e 	movl   $0xdd6f144e,-0xab0(%rbp)
   14ee6:	14 6f dd 
   14ee9:	c7 85 54 f5 ff ff 13 	movl   $0x6f654f13,-0xaac(%rbp)
   14ef0:	4f 65 6f 
   14ef3:	c7 85 58 f5 ff ff ff 	movl   $0xffffffff,-0xaa8(%rbp)
   14efa:	ff ff ff 
   14efd:	c7 85 5c f5 ff ff ff 	movl   $0xffffffff,-0xaa4(%rbp)
   14f04:	ff ff ff 
   14f07:	c7 85 60 f5 ff ff 13 	movl   $0x6f654f13,-0xaa0(%rbp)
   14f0e:	4f 65 6f 
   14f11:	c7 85 64 f5 ff ff 50 	movl   $0xe4f07950,-0xa9c(%rbp)
   14f18:	79 f0 e4 
   14f1b:	c7 85 68 f5 ff ff ff 	movl   $0xffffffff,-0xa98(%rbp)
   14f22:	ff ff ff 
   14f25:	c7 85 6c f5 ff ff 13 	movl   $0x6f654f13,-0xa94(%rbp)
   14f2c:	4f 65 6f 
   14f2f:	c7 85 70 f5 ff ff 1d 	movl   $0x8305d81d,-0xa90(%rbp)
   14f36:	d8 05 83 
   14f39:	c7 85 74 f5 ff ff 4e 	movl   $0xdd6f144e,-0xa8c(%rbp)
   14f40:	14 6f dd 
   14f43:	c7 85 78 f5 ff ff 4e 	movl   $0xdd6f144e,-0xa88(%rbp)
   14f4a:	14 6f dd 
   14f4d:	c7 85 7c f5 ff ff 00 	movl   $0x0,-0xa84(%rbp)
   14f54:	00 00 00 
   14f57:	c7 85 80 f5 ff ff 13 	movl   $0x6f654f13,-0xa80(%rbp)
   14f5e:	4f 65 6f 
   14f61:	c7 85 84 f5 ff ff 00 	movl   $0x0,-0xa7c(%rbp)
   14f68:	00 00 00 
   14f6b:	c7 85 88 f5 ff ff 50 	movl   $0xe4f07950,-0xa78(%rbp)
   14f72:	79 f0 e4 
   14f75:	c7 85 8c f5 ff ff 13 	movl   $0x6f654f13,-0xa74(%rbp)
   14f7c:	4f 65 6f 
   14f7f:	48 c7 85 30 f4 ff ff 	movq   $0x0,-0xbd0(%rbp)
   14f86:	00 00 00 00 
   14f8a:	c7 85 28 f3 ff ff 00 	movl   $0x0,-0xcd8(%rbp)
   14f91:	00 00 00 
   14f94:	eb 14                	jmp    14faa <func_48+0x12cb>
   14f96:	8b 85 28 f3 ff ff    	mov    -0xcd8(%rbp),%eax
   14f9c:	48 98                	cltq   
   14f9e:	c6 44 05 dc a3       	movb   $0xa3,-0x24(%rbp,%rax,1)
   14fa3:	83 85 28 f3 ff ff 01 	addl   $0x1,-0xcd8(%rbp)
   14faa:	83 bd 28 f3 ff ff 01 	cmpl   $0x1,-0xcd8(%rbp)
   14fb1:	7e e3                	jle    14f96 <func_48+0x12b7>
   14fb3:	c7 85 28 f3 ff ff 00 	movl   $0x0,-0xcd8(%rbp)
   14fba:	00 00 00 
   14fbd:	eb 4d                	jmp    1500c <func_48+0x132d>
   14fbf:	c7 85 2c f3 ff ff 00 	movl   $0x0,-0xcd4(%rbp)
   14fc6:	00 00 00 
   14fc9:	eb 31                	jmp    14ffc <func_48+0x131d>
   14fcb:	8b 85 2c f3 ff ff    	mov    -0xcd4(%rbp),%eax
   14fd1:	48 63 c8             	movslq %eax,%rcx
   14fd4:	8b 85 28 f3 ff ff    	mov    -0xcd8(%rbp),%eax
   14fda:	48 63 d0             	movslq %eax,%rdx
   14fdd:	48 89 d0             	mov    %rdx,%rax
   14fe0:	48 01 c0             	add    %rax,%rax
   14fe3:	48 01 d0             	add    %rdx,%rax
   14fe6:	48 01 c8             	add    %rcx,%rax
   14fe9:	48 c7 84 c5 10 f6 ff 	movq   $0x0,-0x9f0(%rbp,%rax,8)
   14ff0:	ff 00 00 00 00 
   14ff5:	83 85 2c f3 ff ff 01 	addl   $0x1,-0xcd4(%rbp)
   14ffc:	83 bd 2c f3 ff ff 02 	cmpl   $0x2,-0xcd4(%rbp)
   15003:	7e c6                	jle    14fcb <func_48+0x12ec>
   15005:	83 85 28 f3 ff ff 01 	addl   $0x1,-0xcd8(%rbp)
   1500c:	83 bd 28 f3 ff ff 08 	cmpl   $0x8,-0xcd8(%rbp)
   15013:	7e aa                	jle    14fbf <func_48+0x12e0>
   15015:	c7 85 28 f3 ff ff 00 	movl   $0x0,-0xcd8(%rbp)
   1501c:	00 00 00 
   1501f:	eb 14                	jmp    15035 <func_48+0x1356>
   15021:	8b 85 28 f3 ff ff    	mov    -0xcd8(%rbp),%eax
   15027:	48 98                	cltq   
   15029:	c6 44 05 e3 ff       	movb   $0xff,-0x1d(%rbp,%rax,1)
   1502e:	83 85 28 f3 ff ff 01 	addl   $0x1,-0xcd8(%rbp)
   15035:	83 bd 28 f3 ff ff 04 	cmpl   $0x4,-0xcd8(%rbp)
   1503c:	7e e3                	jle    15021 <func_48+0x1342>
   1503e:	48 8b 85 78 f3 ff ff 	mov    -0xc88(%rbp),%rax
   15045:	48 83 e8 01          	sub    $0x1,%rax
   15049:	48 89 85 78 f3 ff ff 	mov    %rax,-0xc88(%rbp)
   15050:	48 8b 85 80 f3 ff ff 	mov    -0xc80(%rbp),%rax
   15057:	48 85 c0             	test   %rax,%rax
   1505a:	0f 84 44 02 00 00    	je     152a4 <func_48+0x15c5>
   15060:	48 b8 5b c5 32 78 4c 	movabs $0xdfbd114c7832c55b,%rax
   15067:	11 bd df 
   1506a:	48 89 85 68 f4 ff ff 	mov    %rax,-0xb98(%rbp)
   15071:	c7 85 24 f3 ff ff aa 	movl   $0x82550aaa,-0xcdc(%rbp)
   15078:	0a 55 82 
   1507b:	66 c7 85 00 f5 ff ff 	movw   $0x7646,-0xb00(%rbp)
   15082:	46 76 
   15084:	66 c7 85 02 f5 ff ff 	movw   $0x9,-0xafe(%rbp)
   1508b:	09 00 
   1508d:	66 c7 85 04 f5 ff ff 	movw   $0x9,-0xafc(%rbp)
   15094:	09 00 
   15096:	66 c7 85 06 f5 ff ff 	movw   $0x7646,-0xafa(%rbp)
   1509d:	46 76 
   1509f:	66 c7 85 08 f5 ff ff 	movw   $0x9,-0xaf8(%rbp)
   150a6:	09 00 
   150a8:	66 c7 85 0a f5 ff ff 	movw   $0x9,-0xaf6(%rbp)
   150af:	09 00 
   150b1:	48 c7 85 a8 f3 ff ff 	movq   $0x0,-0xc58(%rbp)
   150b8:	00 00 00 00 
   150bc:	48 8d 85 a8 f3 ff ff 	lea    -0xc58(%rbp),%rax
   150c3:	48 89 85 b0 f3 ff ff 	mov    %rax,-0xc50(%rbp)
   150ca:	48 8d 85 b0 f3 ff ff 	lea    -0xc50(%rbp),%rax
   150d1:	48 89 85 70 f4 ff ff 	mov    %rax,-0xb90(%rbp)
   150d8:	48 8d 85 b0 f3 ff ff 	lea    -0xc50(%rbp),%rax
   150df:	48 89 85 78 f4 ff ff 	mov    %rax,-0xb88(%rbp)
   150e6:	c7 85 54 f3 ff ff ff 	movl   $0xffffffff,-0xcac(%rbp)
   150ed:	ff ff ff 
   150f0:	48 b8 3f b8 29 1a 84 	movabs $0x4ea525841a29b83f,%rax
   150f7:	25 a5 4e 
   150fa:	48 89 85 80 f4 ff ff 	mov    %rax,-0xb80(%rbp)
   15101:	48 c7 85 88 f4 ff ff 	movq   $0x0,-0xb78(%rbp)
   15108:	00 00 00 00 
   1510c:	c6 85 13 f3 ff ff b8 	movb   $0xb8,-0xced(%rbp)
   15113:	c6 85 14 f3 ff ff ae 	movb   $0xae,-0xcec(%rbp)
   1511a:	c6 85 15 f3 ff ff 01 	movb   $0x1,-0xceb(%rbp)
   15121:	48 c7 85 90 f4 ff ff 	movq   $0x0,-0xb70(%rbp)
   15128:	00 00 00 00 
   1512c:	48 8d 05 ed e6 00 00 	lea    0xe6ed(%rip),%rax        # 23820 <g_198+0x20>
   15133:	48 89 85 b8 f3 ff ff 	mov    %rax,-0xc48(%rbp)
   1513a:	48 8d 85 b8 f3 ff ff 	lea    -0xc48(%rbp),%rax
   15141:	48 89 85 98 f4 ff ff 	mov    %rax,-0xb68(%rbp)
   15148:	66 c7 85 1c f3 ff ff 	movw   $0xede2,-0xce4(%rbp)
   1514f:	e2 ed 
   15151:	c7 85 58 f3 ff ff 01 	movl   $0x1,-0xca8(%rbp)
   15158:	00 00 00 
   1515b:	48 8d 85 24 f3 ff ff 	lea    -0xcdc(%rbp),%rax
   15162:	48 89 85 a0 f4 ff ff 	mov    %rax,-0xb60(%rbp)
   15169:	48 c7 85 a8 f4 ff ff 	movq   $0x0,-0xb58(%rbp)
   15170:	00 00 00 00 
   15174:	c7 85 5c f3 ff ff 00 	movl   $0x0,-0xca4(%rbp)
   1517b:	00 00 00 
   1517e:	c7 85 60 f3 ff ff 5e 	movl   $0x45b2f55e,-0xca0(%rbp)
   15185:	f5 b2 45 
   15188:	48 8d 85 80 f3 ff ff 	lea    -0xc80(%rbp),%rax
   1518f:	48 89 85 c0 f3 ff ff 	mov    %rax,-0xc40(%rbp)
   15196:	48 8d 85 c0 f3 ff ff 	lea    -0xc40(%rbp),%rax
   1519d:	48 89 85 b0 f4 ff ff 	mov    %rax,-0xb50(%rbp)
   151a4:	48 b8 11 02 02 0d 8d 	movabs $0xcaa8508d0d020211,%rax
   151ab:	50 a8 ca 
   151ae:	48 89 85 b8 f4 ff ff 	mov    %rax,-0xb48(%rbp)
   151b5:	c7 85 64 f3 ff ff 04 	movl   $0x4,-0xc9c(%rbp)
   151bc:	00 00 00 
   151bf:	48 b8 ce 0d e8 16 aa 	movabs $0x4a5851aa16e80dce,%rax
   151c6:	51 58 4a 
   151c9:	48 89 85 c0 f4 ff ff 	mov    %rax,-0xb40(%rbp)
   151d0:	48 c7 85 c8 f4 ff ff 	movq   $0x0,-0xb38(%rbp)
   151d7:	00 00 00 00 
   151db:	c7 85 90 f5 ff ff c1 	movl   $0x869846c1,-0xa70(%rbp)
   151e2:	46 98 86 
   151e5:	c7 85 94 f5 ff ff 58 	movl   $0xa28f2458,-0xa6c(%rbp)
   151ec:	24 8f a2 
   151ef:	c7 85 98 f5 ff ff c1 	movl   $0x869846c1,-0xa68(%rbp)
   151f6:	46 98 86 
   151f9:	c7 85 9c f5 ff ff c1 	movl   $0x869846c1,-0xa64(%rbp)
   15200:	46 98 86 
   15203:	c7 85 a0 f5 ff ff 58 	movl   $0xa28f2458,-0xa60(%rbp)
   1520a:	24 8f a2 
   1520d:	c7 85 a4 f5 ff ff c1 	movl   $0x869846c1,-0xa5c(%rbp)
   15214:	46 98 86 
   15217:	c7 85 a8 f5 ff ff c1 	movl   $0x869846c1,-0xa58(%rbp)
   1521e:	46 98 86 
   15221:	48 8d 85 10 f3 ff ff 	lea    -0xcf0(%rbp),%rax
   15228:	48 89 85 c8 f3 ff ff 	mov    %rax,-0xc38(%rbp)
   1522f:	48 8d 85 c8 f3 ff ff 	lea    -0xc38(%rbp),%rax
   15236:	48 89 85 d0 f4 ff ff 	mov    %rax,-0xb30(%rbp)
   1523d:	c7 85 30 f3 ff ff 00 	movl   $0x0,-0xcd0(%rbp)
   15244:	00 00 00 
   15247:	eb 1a                	jmp    15263 <func_48+0x1584>
   15249:	8b 85 30 f3 ff ff    	mov    -0xcd0(%rbp),%eax
   1524f:	48 98                	cltq   
   15251:	c7 84 85 f8 f4 ff ff 	movl   $0x0,-0xb08(%rbp,%rax,4)
   15258:	00 00 00 00 
   1525c:	83 85 30 f3 ff ff 01 	addl   $0x1,-0xcd0(%rbp)
   15263:	83 bd 30 f3 ff ff 01 	cmpl   $0x1,-0xcd0(%rbp)
   1526a:	7e dd                	jle    15249 <func_48+0x156a>
   1526c:	c7 85 30 f3 ff ff 00 	movl   $0x0,-0xcd0(%rbp)
   15273:	00 00 00 
   15276:	eb 1e                	jmp    15296 <func_48+0x15b7>
   15278:	8b 85 30 f3 ff ff    	mov    -0xcd0(%rbp),%eax
   1527e:	48 98                	cltq   
   15280:	48 8d 15 c5 bd 00 00 	lea    0xbdc5(%rip),%rdx        # 2104c <g_64>
   15287:	48 89 94 c5 20 f5 ff 	mov    %rdx,-0xae0(%rbp,%rax,8)
   1528e:	ff 
   1528f:	83 85 30 f3 ff ff 01 	addl   $0x1,-0xcd0(%rbp)
   15296:	83 bd 30 f3 ff ff 02 	cmpl   $0x2,-0xcd0(%rbp)
   1529d:	7e d9                	jle    15278 <func_48+0x1599>
   1529f:	e9 ae 03 00 00       	jmpq   15652 <func_48+0x1973>
   152a4:	48 c7 85 38 f4 ff ff 	movq   $0x0,-0xbc8(%rbp)
   152ab:	00 00 00 00 
   152af:	48 8d 05 96 bd 00 00 	lea    0xbd96(%rip),%rax        # 2104c <g_64>
   152b6:	48 89 85 40 f4 ff ff 	mov    %rax,-0xbc0(%rbp)
   152bd:	c7 85 c0 f3 ff ff ff 	movl   $0xffffffff,-0xc40(%rbp)
   152c4:	ff ff ff 
   152c7:	c7 85 40 f3 ff ff 69 	movl   $0x5435769,-0xcc0(%rbp)
   152ce:	57 43 05 
   152d1:	c7 85 44 f3 ff ff 19 	movl   $0xbdace319,-0xcbc(%rbp)
   152d8:	e3 ac bd 
   152db:	c7 85 c8 f3 ff ff b0 	movl   $0xc7624eb0,-0xc38(%rbp)
   152e2:	4e 62 c7 
   152e5:	c7 85 48 f3 ff ff 1e 	movl   $0xb0b00f1e,-0xcb8(%rbp)
   152ec:	0f b0 b0 
   152ef:	48 8d 85 70 f3 ff ff 	lea    -0xc90(%rbp),%rax
   152f6:	48 89 85 48 f4 ff ff 	mov    %rax,-0xbb8(%rbp)
   152fd:	48 8d 85 c0 f3 ff ff 	lea    -0xc40(%rbp),%rax
   15304:	48 89 85 50 f4 ff ff 	mov    %rax,-0xbb0(%rbp)
   1530b:	c7 85 4c f3 ff ff 06 	movl   $0x6,-0xcb4(%rbp)
   15312:	00 00 00 
   15315:	48 8d 85 c8 f3 ff ff 	lea    -0xc38(%rbp),%rax
   1531c:	48 89 85 58 f4 ff ff 	mov    %rax,-0xba8(%rbp)
   15323:	c6 85 12 f3 ff ff fb 	movb   $0xfb,-0xcee(%rbp)
   1532a:	c7 85 00 f5 ff ff c0 	movl   $0x520646c0,-0xb00(%rbp)
   15331:	46 06 52 
   15334:	c7 85 04 f5 ff ff c0 	movl   $0x520646c0,-0xafc(%rbp)
   1533b:	46 06 52 
   1533e:	c7 85 08 f5 ff ff c0 	movl   $0x520646c0,-0xaf8(%rbp)
   15345:	46 06 52 
   15348:	c7 85 0c f5 ff ff c0 	movl   $0x520646c0,-0xaf4(%rbp)
   1534f:	46 06 52 
   15352:	c7 85 10 f5 ff ff c0 	movl   $0x520646c0,-0xaf0(%rbp)
   15359:	46 06 52 
   1535c:	c7 85 14 f5 ff ff c0 	movl   $0x520646c0,-0xaec(%rbp)
   15363:	46 06 52 
   15366:	c7 85 20 f5 ff ff cf 	movl   $0xe625c7cf,-0xae0(%rbp)
   1536d:	c7 25 e6 
   15370:	c7 85 24 f5 ff ff cf 	movl   $0xe625c7cf,-0xadc(%rbp)
   15377:	c7 25 e6 
   1537a:	c7 85 28 f5 ff ff 25 	movl   $0x4f6a8725,-0xad8(%rbp)
   15381:	87 6a 4f 
   15384:	c7 85 2c f5 ff ff cf 	movl   $0xe625c7cf,-0xad4(%rbp)
   1538b:	c7 25 e6 
   1538e:	c7 85 30 f5 ff ff cf 	movl   $0xe625c7cf,-0xad0(%rbp)
   15395:	c7 25 e6 
   15398:	c7 85 34 f5 ff ff 25 	movl   $0x4f6a8725,-0xacc(%rbp)
   1539f:	87 6a 4f 
   153a2:	c7 85 38 f5 ff ff cf 	movl   $0xe625c7cf,-0xac8(%rbp)
   153a9:	c7 25 e6 
   153ac:	c7 85 3c f5 ff ff cf 	movl   $0xe625c7cf,-0xac4(%rbp)
   153b3:	c7 25 e6 
   153b6:	48 8b 85 40 f4 ff ff 	mov    -0xbc0(%rbp),%rax
   153bd:	66 c7 00 fd ff       	movw   $0xfffd,(%rax)
   153c2:	0f b6 05 1b be 00 00 	movzbl 0xbe1b(%rip),%eax        # 211e4 <g_625>
   153c9:	0f b6 d0             	movzbl %al,%edx
   153cc:	8b 85 c0 f3 ff ff    	mov    -0xc40(%rbp),%eax
   153d2:	0f b7 c0             	movzwl %ax,%eax
   153d5:	89 d6                	mov    %edx,%esi
   153d7:	89 c7                	mov    %eax,%edi
   153d9:	e8 e0 29 ff ff       	callq  7dbe <safe_lshift_func_uint16_t_u_s>
   153de:	8b 05 a8 bd 00 00    	mov    0xbda8(%rip),%eax        # 2118c <g_192>
   153e4:	0f b7 d8             	movzwl %ax,%ebx
   153e7:	48 8b 85 d0 f3 ff ff 	mov    -0xc30(%rbp),%rax
   153ee:	8b 00                	mov    (%rax),%eax
   153f0:	41 89 c4             	mov    %eax,%r12d
   153f3:	8b 85 c0 f3 ff ff    	mov    -0xc40(%rbp),%eax
   153f9:	83 f8 f6             	cmp    $0xfffffff6,%eax
   153fc:	74 11                	je     1540f <func_48+0x1730>
   153fe:	8b 85 c0 f3 ff ff    	mov    -0xc40(%rbp),%eax
   15404:	85 c0                	test   %eax,%eax
   15406:	74 07                	je     1540f <func_48+0x1730>
   15408:	b8 01 00 00 00       	mov    $0x1,%eax
   1540d:	eb 05                	jmp    15414 <func_48+0x1735>
   1540f:	b8 00 00 00 00       	mov    $0x0,%eax
   15414:	89 c2                	mov    %eax,%edx
   15416:	8b 05 68 bd 00 00    	mov    0xbd68(%rip),%eax        # 21184 <g_122>
   1541c:	31 d0                	xor    %edx,%eax
   1541e:	98                   	cwtl   
   1541f:	be 5a 46 00 00       	mov    $0x465a,%esi
   15424:	89 c7                	mov    %eax,%edi
   15426:	e8 ca 1f ff ff       	callq  73f5 <safe_mul_func_int16_t_s_s>
   1542b:	98                   	cwtl   
   1542c:	44 89 e6             	mov    %r12d,%esi
   1542f:	89 c7                	mov    %eax,%edi
   15431:	e8 82 2a ff ff       	callq  7eb8 <safe_add_func_uint32_t_u_u>
   15436:	0f b7 c0             	movzwl %ax,%eax
   15439:	89 de                	mov    %ebx,%esi
   1543b:	89 c7                	mov    %eax,%edi
   1543d:	e8 bd 28 ff ff       	callq  7cff <safe_add_func_uint16_t_u_u>
   15442:	b8 00 00 00 00       	mov    $0x0,%eax
   15447:	09 85 40 f3 ff ff    	or     %eax,-0xcc0(%rbp)
   1544d:	8b 85 c0 f3 ff ff    	mov    -0xc40(%rbp),%eax
   15453:	33 85 40 f3 ff ff    	xor    -0xcc0(%rbp),%eax
   15459:	f7 d0                	not    %eax
   1545b:	48 63 d0             	movslq %eax,%rdx
   1545e:	48 8b 05 2b bd 00 00 	mov    0xbd2b(%rip),%rax        # 21190 <g_227>
   15465:	48 39 c2             	cmp    %rax,%rdx
   15468:	0f 9e c0             	setle  %al
   1546b:	0f b6 c0             	movzbl %al,%eax
   1546e:	be 01 00 00 00       	mov    $0x1,%esi
   15473:	89 c7                	mov    %eax,%edi
   15475:	e8 59 1f ff ff       	callq  73d3 <safe_sub_func_int16_t_s_s>
   1547a:	98                   	cwtl   
   1547b:	89 85 c0 f3 ff ff    	mov    %eax,-0xc40(%rbp)
   15481:	c6 05 c8 f1 00 00 f8 	movb   $0xf8,0xf1c8(%rip)        # 24650 <g_111>
   15488:	e9 b6 01 00 00       	jmpq   15643 <func_48+0x1964>
   1548d:	c7 85 34 f3 ff ff c2 	movl   $0xeffac4c2,-0xccc(%rbp)
   15494:	c4 fa ef 
   15497:	48 c7 05 9e bb 00 00 	movq   $0xfffffffffffffff6,0xbb9e(%rip)        # 21040 <g_59>
   1549e:	f6 ff ff ff 
   154a2:	e9 6d 01 00 00       	jmpq   15614 <func_48+0x1935>
   154a7:	48 b8 38 0c 04 c8 be 	movabs $0x963dbec8040c38,%rax
   154ae:	3d 96 00 
   154b1:	48 89 85 60 f4 ff ff 	mov    %rax,-0xba0(%rbp)
   154b8:	c7 85 50 f3 ff ff 00 	movl   $0x0,-0xcb0(%rbp)
   154bf:	00 00 00 
   154c2:	c7 85 90 f5 ff ff 09 	movl   $0x9,-0xa70(%rbp)
   154c9:	00 00 00 
   154cc:	c7 85 94 f5 ff ff 09 	movl   $0x9,-0xa6c(%rbp)
   154d3:	00 00 00 
   154d6:	c7 85 98 f5 ff ff 09 	movl   $0x9,-0xa68(%rbp)
   154dd:	00 00 00 
   154e0:	c7 85 9c f5 ff ff 09 	movl   $0x9,-0xa64(%rbp)
   154e7:	00 00 00 
   154ea:	c7 85 a0 f5 ff ff 09 	movl   $0x9,-0xa60(%rbp)
   154f1:	00 00 00 
   154f4:	c7 85 a4 f5 ff ff 09 	movl   $0x9,-0xa5c(%rbp)
   154fb:	00 00 00 
   154fe:	c7 85 a8 f5 ff ff 09 	movl   $0x9,-0xa58(%rbp)
   15505:	00 00 00 
   15508:	c7 85 ac f5 ff ff 09 	movl   $0x9,-0xa54(%rbp)
   1550f:	00 00 00 
   15512:	c7 85 b0 f5 ff ff 09 	movl   $0x9,-0xa50(%rbp)
   15519:	00 00 00 
   1551c:	c7 85 b4 f5 ff ff 09 	movl   $0x9,-0xa4c(%rbp)
   15523:	00 00 00 
   15526:	c7 85 b8 f5 ff ff 09 	movl   $0x9,-0xa48(%rbp)
   1552d:	00 00 00 
   15530:	c7 85 bc f5 ff ff 09 	movl   $0x9,-0xa44(%rbp)
   15537:	00 00 00 
   1553a:	c7 85 c0 f5 ff ff 09 	movl   $0x9,-0xa40(%rbp)
   15541:	00 00 00 
   15544:	c7 85 c4 f5 ff ff 09 	movl   $0x9,-0xa3c(%rbp)
   1554b:	00 00 00 
   1554e:	c7 85 c8 f5 ff ff 09 	movl   $0x9,-0xa38(%rbp)
   15555:	00 00 00 
   15558:	c7 85 cc f5 ff ff 09 	movl   $0x9,-0xa34(%rbp)
   1555f:	00 00 00 
   15562:	c7 85 d0 f5 ff ff 09 	movl   $0x9,-0xa30(%rbp)
   15569:	00 00 00 
   1556c:	c7 85 d4 f5 ff ff 09 	movl   $0x9,-0xa2c(%rbp)
   15573:	00 00 00 
   15576:	c7 85 d8 f5 ff ff 09 	movl   $0x9,-0xa28(%rbp)
   1557d:	00 00 00 
   15580:	c7 85 dc f5 ff ff 09 	movl   $0x9,-0xa24(%rbp)
   15587:	00 00 00 
   1558a:	c7 85 e0 f5 ff ff 09 	movl   $0x9,-0xa20(%rbp)
   15591:	00 00 00 
   15594:	c7 85 e4 f5 ff ff 09 	movl   $0x9,-0xa1c(%rbp)
   1559b:	00 00 00 
   1559e:	c7 85 e8 f5 ff ff 09 	movl   $0x9,-0xa18(%rbp)
   155a5:	00 00 00 
   155a8:	c7 85 ec f5 ff ff 09 	movl   $0x9,-0xa14(%rbp)
   155af:	00 00 00 
   155b2:	c7 85 f0 f5 ff ff 09 	movl   $0x9,-0xa10(%rbp)
   155b9:	00 00 00 
   155bc:	c7 85 f4 f5 ff ff 09 	movl   $0x9,-0xa0c(%rbp)
   155c3:	00 00 00 
   155c6:	c7 85 f8 f5 ff ff 09 	movl   $0x9,-0xa08(%rbp)
   155cd:	00 00 00 
   155d0:	c7 85 fc f5 ff ff 09 	movl   $0x9,-0xa04(%rbp)
   155d7:	00 00 00 
   155da:	c7 85 00 f6 ff ff 09 	movl   $0x9,-0xa00(%rbp)
   155e1:	00 00 00 
   155e4:	c7 85 04 f6 ff ff 09 	movl   $0x9,-0x9fc(%rbp)
   155eb:	00 00 00 
   155ee:	48 8b 85 d0 f3 ff ff 	mov    -0xc30(%rbp),%rax
   155f5:	c7 00 08 66 14 c6    	movl   $0xc6146608,(%rax)
   155fb:	83 ad 34 f3 ff ff 01 	subl   $0x1,-0xccc(%rbp)
   15602:	48 8b 05 37 ba 00 00 	mov    0xba37(%rip),%rax        # 21040 <g_59>
   15609:	48 83 c0 01          	add    $0x1,%rax
   1560d:	48 89 05 2c ba 00 00 	mov    %rax,0xba2c(%rip)        # 21040 <g_59>
   15614:	48 8b 05 25 ba 00 00 	mov    0xba25(%rip),%rax        # 21040 <g_59>
   1561b:	48 83 f8 2d          	cmp    $0x2d,%rax
   1561f:	0f 87 82 fe ff ff    	ja     154a7 <func_48+0x17c8>
   15625:	0f b6 05 24 f0 00 00 	movzbl 0xf024(%rip),%eax        # 24650 <g_111>
   1562c:	48 0f be c0          	movsbq %al,%rax
   15630:	be 09 00 00 00       	mov    $0x9,%esi
   15635:	48 89 c7             	mov    %rax,%rdi
   15638:	e8 04 22 ff ff       	callq  7841 <safe_add_func_int64_t_s_s>
   1563d:	88 05 0d f0 00 00    	mov    %al,0xf00d(%rip)        # 24650 <g_111>
   15643:	0f b6 05 06 f0 00 00 	movzbl 0xf006(%rip),%eax        # 24650 <g_111>
   1564a:	3c 12                	cmp    $0x12,%al
   1564c:	0f 8f 3b fe ff ff    	jg     1548d <func_48+0x17ae>
   15652:	66 c7 05 4d f0 00 00 	movw   $0x1c,0xf04d(%rip)        # 246a8 <g_1351>
   15659:	1c 00 
   1565b:	e9 a4 02 00 00       	jmpq   15904 <func_48+0x1c25>
   15660:	c7 85 68 f3 ff ff c5 	movl   $0x5ffbc0c5,-0xc98(%rbp)
   15667:	c0 fb 5f 
   1566a:	83 85 68 f3 ff ff 01 	addl   $0x1,-0xc98(%rbp)
   15671:	66 c7 85 18 f3 ff ff 	movw   $0x0,-0xce8(%rbp)
   15678:	00 00 
   1567a:	e9 50 02 00 00       	jmpq   158cf <func_48+0x1bf0>
   1567f:	48 8d 05 ca e1 00 00 	lea    0xe1ca(%rip),%rax        # 23850 <g_408>
   15686:	48 89 85 b0 f3 ff ff 	mov    %rax,-0xc50(%rbp)
   1568d:	48 8d 85 b0 f3 ff ff 	lea    -0xc50(%rbp),%rax
   15694:	48 89 85 d8 f4 ff ff 	mov    %rax,-0xb28(%rbp)
   1569b:	48 8d 05 82 b9 00 00 	lea    0xb982(%rip),%rax        # 21024 <g_11>
   156a2:	48 89 85 b8 f3 ff ff 	mov    %rax,-0xc48(%rbp)
   156a9:	48 8d 85 b8 f3 ff ff 	lea    -0xc48(%rbp),%rax
   156b0:	48 89 85 c0 f3 ff ff 	mov    %rax,-0xc40(%rbp)
   156b7:	48 8d 05 3e bb 00 00 	lea    0xbb3e(%rip),%rax        # 211fc <g_1109>
   156be:	48 89 85 e0 f4 ff ff 	mov    %rax,-0xb20(%rbp)
   156c5:	48 8d 85 16 f3 ff ff 	lea    -0xcea(%rbp),%rax
   156cc:	48 89 85 e8 f4 ff ff 	mov    %rax,-0xb18(%rbp)
   156d3:	48 8b 95 b0 f3 ff ff 	mov    -0xc50(%rbp),%rdx
   156da:	48 8b 85 d8 f4 ff ff 	mov    -0xb28(%rbp),%rax
   156e1:	48 89 10             	mov    %rdx,(%rax)
   156e4:	48 8b 85 d8 f4 ff ff 	mov    -0xb28(%rbp),%rax
   156eb:	48 8b 10             	mov    (%rax),%rdx
   156ee:	48 8b 85 c0 f3 ff ff 	mov    -0xc40(%rbp),%rax
   156f5:	48 39 c2             	cmp    %rax,%rdx
   156f8:	0f 95 c0             	setne  %al
   156fb:	0f b6 c0             	movzbl %al,%eax
   156fe:	89 c6                	mov    %eax,%esi
   15700:	bf 06 00 00 00       	mov    $0x6,%edi
   15705:	e8 b4 26 ff ff       	callq  7dbe <safe_lshift_func_uint16_t_u_s>
   1570a:	89 c2                	mov    %eax,%edx
   1570c:	48 8b 85 e0 f4 ff ff 	mov    -0xb20(%rbp),%rax
   15713:	88 10                	mov    %dl,(%rax)
   15715:	48 8b 85 e0 f4 ff ff 	mov    -0xb20(%rbp),%rax
   1571c:	0f b6 00             	movzbl (%rax),%eax
   1571f:	0f b6 d8             	movzbl %al,%ebx
   15722:	48 8b 85 e8 f4 ff ff 	mov    -0xb18(%rbp),%rax
   15729:	0f b7 00             	movzwl (%rax),%eax
   1572c:	66 25 39 8c          	and    $0x8c39,%ax
   15730:	89 c2                	mov    %eax,%edx
   15732:	48 8b 85 e8 f4 ff ff 	mov    -0xb18(%rbp),%rax
   15739:	66 89 10             	mov    %dx,(%rax)
   1573c:	48 8b 85 c0 f3 ff ff 	mov    -0xc40(%rbp),%rax
   15743:	48 8b 00             	mov    (%rax),%rax
   15746:	8b 00                	mov    (%rax),%eax
   15748:	48 63 d0             	movslq %eax,%rdx
   1574b:	48 8b 85 18 f4 ff ff 	mov    -0xbe8(%rbp),%rax
   15752:	48 8b 00             	mov    (%rax),%rax
   15755:	48 8d 48 01          	lea    0x1(%rax),%rcx
   15759:	48 8b 85 18 f4 ff ff 	mov    -0xbe8(%rbp),%rax
   15760:	48 89 08             	mov    %rcx,(%rax)
   15763:	48 8b 85 18 f4 ff ff 	mov    -0xbe8(%rbp),%rax
   1576a:	48 8b 00             	mov    (%rax),%rax
   1576d:	48 89 d6             	mov    %rdx,%rsi
   15770:	48 89 c7             	mov    %rax,%rdi
   15773:	e8 37 29 ff ff       	callq  80af <safe_div_func_uint64_t_u_u>
   15778:	48 be 3c 7b 9a a5 f2 	movabs $0x91ea59f2a59a7b3c,%rsi
   1577f:	59 ea 91 
   15782:	48 89 c7             	mov    %rax,%rdi
   15785:	e8 1e 21 ff ff       	callq  78a8 <safe_sub_func_int64_t_s_s>
   1578a:	89 c2                	mov    %eax,%edx
   1578c:	48 8b 05 0d e3 00 00 	mov    0xe30d(%rip),%rax        # 23aa0 <g_1547>
   15793:	0f b7 00             	movzwl (%rax),%eax
   15796:	0f b7 c0             	movzwl %ax,%eax
   15799:	89 d6                	mov    %edx,%esi
   1579b:	89 c7                	mov    %eax,%edi
   1579d:	e8 a6 26 ff ff       	callq  7e48 <safe_rshift_func_uint16_t_u_s>
   157a2:	0f b7 d0             	movzwl %ax,%edx
   157a5:	48 8b 85 98 f3 ff ff 	mov    -0xc68(%rbp),%rax
   157ac:	0f b6 08             	movzbl (%rax),%ecx
   157af:	48 8b 85 98 f3 ff ff 	mov    -0xc68(%rbp),%rax
   157b6:	83 e1 01             	and    $0x1,%ecx
   157b9:	88 08                	mov    %cl,(%rax)
   157bb:	0f b6 00             	movzbl (%rax),%eax
   157be:	0f be c8             	movsbl %al,%ecx
   157c1:	48 8b 85 f0 f3 ff ff 	mov    -0xc10(%rbp),%rax
   157c8:	8b 00                	mov    (%rax),%eax
   157ca:	39 c1                	cmp    %eax,%ecx
   157cc:	0f 95 c0             	setne  %al
   157cf:	0f b6 c0             	movzbl %al,%eax
   157d2:	89 d6                	mov    %edx,%esi
   157d4:	89 c7                	mov    %eax,%edi
   157d6:	e8 2a 1e ff ff       	callq  7605 <safe_sub_func_int32_t_s_s>
   157db:	39 c3                	cmp    %eax,%ebx
   157dd:	0f 9c c2             	setl   %dl
   157e0:	48 8b 85 70 f3 ff ff 	mov    -0xc90(%rbp),%rax
   157e7:	0f b6 d2             	movzbl %dl,%edx
   157ea:	89 10                	mov    %edx,(%rax)
   157ec:	c6 05 09 ba 00 00 f1 	movb   $0xf1,0xba09(%rip)        # 211fc <g_1109>
   157f3:	e9 b7 00 00 00       	jmpq   158af <func_48+0x1bd0>
   157f8:	48 8d 05 a1 b9 00 00 	lea    0xb9a1(%rip),%rax        # 211a0 <g_361>
   157ff:	48 89 85 c8 f3 ff ff 	mov    %rax,-0xc38(%rbp)
   15806:	48 8d 85 c8 f3 ff ff 	lea    -0xc38(%rbp),%rax
   1580d:	48 89 85 f0 f4 ff ff 	mov    %rax,-0xb10(%rbp)
   15814:	c7 85 6c f3 ff ff 7a 	movl   $0x5a32e87a,-0xc94(%rbp)
   1581b:	e8 32 5a 
   1581e:	48 c7 85 80 f3 ff ff 	movq   $0xffffffffffffffef,-0xc80(%rbp)
   15825:	ef ff ff ff 
   15829:	eb 4e                	jmp    15879 <func_48+0x1b9a>
   1582b:	66 c7 85 1e f3 ff ff 	movw   $0xffff,-0xce2(%rbp)
   15832:	ff ff 
   15834:	66 83 bd 1e f3 ff ff 	cmpw   $0x0,-0xce2(%rbp)
   1583b:	00 
   1583c:	75 4a                	jne    15888 <func_48+0x1ba9>
   1583e:	83 bd 6c f3 ff ff 00 	cmpl   $0x0,-0xc94(%rbp)
   15845:	75 44                	jne    1588b <func_48+0x1bac>
   15847:	83 bd 68 f3 ff ff 00 	cmpl   $0x0,-0xc98(%rbp)
   1584e:	75 3e                	jne    1588e <func_48+0x1baf>
   15850:	83 bd 68 f3 ff ff 00 	cmpl   $0x0,-0xc98(%rbp)
   15857:	75 38                	jne    15891 <func_48+0x1bb2>
   15859:	48 8b 85 c0 f3 ff ff 	mov    -0xc40(%rbp),%rax
   15860:	48 8b 00             	mov    (%rax),%rax
   15863:	8b 00                	mov    (%rax),%eax
   15865:	85 c0                	test   %eax,%eax
   15867:	48 8b 85 80 f3 ff ff 	mov    -0xc80(%rbp),%rax
   1586e:	48 83 c0 01          	add    $0x1,%rax
   15872:	48 89 85 80 f3 ff ff 	mov    %rax,-0xc80(%rbp)
   15879:	48 8b 85 80 f3 ff ff 	mov    -0xc80(%rbp),%rax
   15880:	48 83 f8 1c          	cmp    $0x1c,%rax
   15884:	7f a5                	jg     1582b <func_48+0x1b4c>
   15886:	eb 0a                	jmp    15892 <func_48+0x1bb3>
   15888:	90                   	nop
   15889:	eb 07                	jmp    15892 <func_48+0x1bb3>
   1588b:	90                   	nop
   1588c:	eb 04                	jmp    15892 <func_48+0x1bb3>
   1588e:	90                   	nop
   1588f:	eb 01                	jmp    15892 <func_48+0x1bb3>
   15891:	90                   	nop
   15892:	0f b6 05 63 b9 00 00 	movzbl 0xb963(%rip),%eax        # 211fc <g_1109>
   15899:	0f b6 c0             	movzbl %al,%eax
   1589c:	be 01 00 00 00       	mov    $0x1,%esi
   158a1:	48 89 c7             	mov    %rax,%rdi
   158a4:	e8 98 1f ff ff       	callq  7841 <safe_add_func_int64_t_s_s>
   158a9:	88 05 4d b9 00 00    	mov    %al,0xb94d(%rip)        # 211fc <g_1109>
   158af:	0f b6 05 46 b9 00 00 	movzbl 0xb946(%rip),%eax        # 211fc <g_1109>
   158b6:	3c 37                	cmp    $0x37,%al
   158b8:	0f 87 3a ff ff ff    	ja     157f8 <func_48+0x1b19>
   158be:	0f b7 85 18 f3 ff ff 	movzwl -0xce8(%rbp),%eax
   158c5:	83 c0 01             	add    $0x1,%eax
   158c8:	66 89 85 18 f3 ff ff 	mov    %ax,-0xce8(%rbp)
   158cf:	66 83 bd 18 f3 ff ff 	cmpw   $0x3,-0xce8(%rbp)
   158d6:	03 
   158d7:	0f 8e a2 fd ff ff    	jle    1567f <func_48+0x19a0>
   158dd:	48 8b 85 e8 f3 ff ff 	mov    -0xc18(%rbp),%rax
   158e4:	8b 00                	mov    (%rax),%eax
   158e6:	85 c0                	test   %eax,%eax
   158e8:	75 2c                	jne    15916 <func_48+0x1c37>
   158ea:	83 bd 68 f3 ff ff 00 	cmpl   $0x0,-0xc98(%rbp)
   158f1:	75 26                	jne    15919 <func_48+0x1c3a>
   158f3:	0f b7 05 ae ed 00 00 	movzwl 0xedae(%rip),%eax        # 246a8 <g_1351>
   158fa:	83 e8 01             	sub    $0x1,%eax
   158fd:	66 89 05 a4 ed 00 00 	mov    %ax,0xeda4(%rip)        # 246a8 <g_1351>
   15904:	0f b7 05 9d ed 00 00 	movzwl 0xed9d(%rip),%eax        # 246a8 <g_1351>
   1590b:	66 85 c0             	test   %ax,%ax
   1590e:	0f 85 4c fd ff ff    	jne    15660 <func_48+0x1981>
   15914:	eb 04                	jmp    1591a <func_48+0x1c3b>
   15916:	90                   	nop
   15917:	eb 01                	jmp    1591a <func_48+0x1c3b>
   15919:	90                   	nop
   1591a:	48 8d 05 69 b8 00 00 	lea    0xb869(%rip),%rax        # 2118a <g_190>
   15921:	48 8b 5d e8          	mov    -0x18(%rbp),%rbx
   15925:	64 48 33 1c 25 28 00 	xor    %fs:0x28,%rbx
   1592c:	00 00 
   1592e:	74 05                	je     15935 <func_48+0x1c56>
   15930:	e8 3b 17 ff ff       	callq  7070 <__stack_chk_fail@plt>
   15935:	48 81 c4 f0 0c 00 00 	add    $0xcf0,%rsp
   1593c:	5b                   	pop    %rbx
   1593d:	41 5c                	pop    %r12
   1593f:	5d                   	pop    %rbp
   15940:	c3                   	retq   

0000000000015941 <func_50>:
   15941:	f3 0f 1e fa          	endbr64 
   15945:	55                   	push   %rbp
   15946:	48 89 e5             	mov    %rsp,%rbp
   15949:	41 57                	push   %r15
   1594b:	41 56                	push   %r14
   1594d:	41 55                	push   %r13
   1594f:	41 54                	push   %r12
   15951:	53                   	push   %rbx
   15952:	48 81 ec 00 10 00 00 	sub    $0x1000,%rsp
   15959:	48 83 0c 24 00       	orq    $0x0,(%rsp)
   1595e:	48 81 ec 48 0a 00 00 	sub    $0xa48,%rsp
   15965:	89 f8                	mov    %edi,%eax
   15967:	48 89 b5 a0 e5 ff ff 	mov    %rsi,-0x1a60(%rbp)
   1596e:	88 85 ac e5 ff ff    	mov    %al,-0x1a54(%rbp)
   15974:	64 48 8b 04 25 28 00 	mov    %fs:0x28,%rax
   1597b:	00 00 
   1597d:	48 89 45 c8          	mov    %rax,-0x38(%rbp)
   15981:	31 c0                	xor    %eax,%eax
   15983:	48 8d 05 b6 b6 00 00 	lea    0xb6b6(%rip),%rax        # 21040 <g_59>
   1598a:	48 89 85 40 e6 ff ff 	mov    %rax,-0x19c0(%rbp)
   15991:	48 8d 85 90 ec ff ff 	lea    -0x1370(%rbp),%rax
   15998:	48 8d 15 c1 70 00 00 	lea    0x70c1(%rip),%rdx        # 1ca60 <g_2878+0x1a00>
   1599f:	b9 24 00 00 00       	mov    $0x24,%ecx
   159a4:	48 89 c7             	mov    %rax,%rdi
   159a7:	48 89 d6             	mov    %rdx,%rsi
   159aa:	f3 48 a5             	rep movsq %ds:(%rsi),%es:(%rdi)
   159ad:	48 8d 05 98 b6 00 00 	lea    0xb698(%rip),%rax        # 2104c <g_64>
   159b4:	48 89 85 90 e6 ff ff 	mov    %rax,-0x1970(%rbp)
   159bb:	48 8d 85 b0 ed ff ff 	lea    -0x1250(%rbp),%rax
   159c2:	48 8d 15 97 d7 00 00 	lea    0xd797(%rip),%rdx        # 23160 <g_3045+0x1cfc>
   159c9:	b9 24 00 00 00       	mov    $0x24,%ecx
   159ce:	48 89 c7             	mov    %rax,%rdi
   159d1:	48 89 d6             	mov    %rdx,%rsi
   159d4:	f3 48 a5             	rep movsq %ds:(%rsi),%es:(%rdi)
   159d7:	c7 85 e0 ea ff ff 65 	movl   $0x2d56ab65,-0x1520(%rbp)
   159de:	ab 56 2d 
   159e1:	c7 85 e4 ea ff ff 54 	movl   $0x4e6b2e54,-0x151c(%rbp)
   159e8:	2e 6b 4e 
   159eb:	c7 85 e8 ea ff ff 61 	movl   $0x324ef461,-0x1518(%rbp)
   159f2:	f4 4e 32 
   159f5:	c7 85 ec ea ff ff 30 	movl   $0xe3a94630,-0x1514(%rbp)
   159fc:	46 a9 e3 
   159ff:	c7 85 f0 ea ff ff 08 	movl   $0x8,-0x1510(%rbp)
   15a06:	00 00 00 
   15a09:	c7 85 f4 ea ff ff 12 	movl   $0xc5be0112,-0x150c(%rbp)
   15a10:	01 be c5 
   15a13:	c7 85 f8 ea ff ff 00 	movl   $0x0,-0x1508(%rbp)
   15a1a:	00 00 00 
   15a1d:	c7 85 fc ea ff ff ff 	movl   $0xffffffff,-0x1504(%rbp)
   15a24:	ff ff ff 
   15a27:	c7 85 00 eb ff ff b0 	movl   $0x3c0783b0,-0x1500(%rbp)
   15a2e:	83 07 3c 
   15a31:	c7 85 04 eb ff ff 00 	movl   $0x0,-0x14fc(%rbp)
   15a38:	00 00 00 
   15a3b:	c7 85 08 eb ff ff 30 	movl   $0xe3a94630,-0x14f8(%rbp)
   15a42:	46 a9 e3 
   15a45:	c7 85 0c eb ff ff 3f 	movl   $0x949f0e3f,-0x14f4(%rbp)
   15a4c:	0e 9f 94 
   15a4f:	c7 85 10 eb ff ff 61 	movl   $0x324ef461,-0x14f0(%rbp)
   15a56:	f4 4e 32 
   15a59:	c7 85 14 eb ff ff 08 	movl   $0x8,-0x14ec(%rbp)
   15a60:	00 00 00 
   15a63:	c7 85 18 eb ff ff 61 	movl   $0x324ef461,-0x14e8(%rbp)
   15a6a:	f4 4e 32 
   15a6d:	c7 85 1c eb ff ff fe 	movl   $0xfffffffe,-0x14e4(%rbp)
   15a74:	ff ff ff 
   15a77:	c7 85 20 eb ff ff fe 	movl   $0xfffffffe,-0x14e0(%rbp)
   15a7e:	ff ff ff 
   15a81:	c7 85 24 eb ff ff 65 	movl   $0x2d56ab65,-0x14dc(%rbp)
   15a88:	ab 56 2d 
   15a8b:	c7 85 28 eb ff ff 54 	movl   $0x4e6b2e54,-0x14d8(%rbp)
   15a92:	2e 6b 4e 
   15a95:	c7 85 2c eb ff ff 61 	movl   $0x324ef461,-0x14d4(%rbp)
   15a9c:	f4 4e 32 
   15a9f:	c7 85 30 eb ff ff fe 	movl   $0xfffffffe,-0x14d0(%rbp)
   15aa6:	ff ff ff 
   15aa9:	c7 85 34 eb ff ff af 	movl   $0x825f2aaf,-0x14cc(%rbp)
   15ab0:	2a 5f 82 
   15ab3:	c7 85 38 eb ff ff 00 	movl   $0x0,-0x14c8(%rbp)
   15aba:	00 00 00 
   15abd:	c7 85 3c eb ff ff ff 	movl   $0xffffffff,-0x14c4(%rbp)
   15ac4:	ff ff ff 
   15ac7:	c7 85 40 eb ff ff 00 	movl   $0x0,-0x14c0(%rbp)
   15ace:	00 00 00 
   15ad1:	c7 85 44 eb ff ff 7d 	movl   $0xd8e9b07d,-0x14bc(%rbp)
   15ad8:	b0 e9 d8 
   15adb:	c7 85 48 eb ff ff ff 	movl   $0xffffffff,-0x14b8(%rbp)
   15ae2:	ff ff ff 
   15ae5:	c7 85 4c eb ff ff fe 	movl   $0xfffffffe,-0x14b4(%rbp)
   15aec:	ff ff ff 
   15aef:	c7 85 50 eb ff ff fc 	movl   $0xfffffffc,-0x14b0(%rbp)
   15af6:	ff ff ff 
   15af9:	c7 85 54 eb ff ff 08 	movl   $0x8,-0x14ac(%rbp)
   15b00:	00 00 00 
   15b03:	c7 85 58 eb ff ff fc 	movl   $0xfffffffc,-0x14a8(%rbp)
   15b0a:	ff ff ff 
   15b0d:	c7 85 5c eb ff ff af 	movl   $0x825f2aaf,-0x14a4(%rbp)
   15b14:	2a 5f 82 
   15b17:	c7 85 60 eb ff ff 12 	movl   $0xc5be0112,-0x14a0(%rbp)
   15b1e:	01 be c5 
   15b21:	c7 85 64 eb ff ff 12 	movl   $0xc5be0112,-0x149c(%rbp)
   15b28:	01 be c5 
   15b2b:	c7 85 68 eb ff ff af 	movl   $0x825f2aaf,-0x1498(%rbp)
   15b32:	2a 5f 82 
   15b35:	c7 85 6c eb ff ff 00 	movl   $0x0,-0x1494(%rbp)
   15b3c:	00 00 00 
   15b3f:	c7 85 70 eb ff ff fe 	movl   $0xfffffffe,-0x1490(%rbp)
   15b46:	ff ff ff 
   15b49:	c7 85 74 eb ff ff b0 	movl   $0x3c0783b0,-0x148c(%rbp)
   15b50:	83 07 3c 
   15b53:	c7 85 78 eb ff ff 12 	movl   $0xc5be0112,-0x1488(%rbp)
   15b5a:	01 be c5 
   15b5d:	c7 85 7c eb ff ff 3f 	movl   $0x949f0e3f,-0x1484(%rbp)
   15b64:	0e 9f 94 
   15b67:	c7 85 80 eb ff ff ff 	movl   $0xffffffff,-0x1480(%rbp)
   15b6e:	ff ff ff 
   15b71:	c7 85 84 eb ff ff 3f 	movl   $0x949f0e3f,-0x147c(%rbp)
   15b78:	0e 9f 94 
   15b7b:	c7 85 88 eb ff ff ff 	movl   $0xffffffff,-0x1478(%rbp)
   15b82:	ff ff ff 
   15b85:	c7 85 8c eb ff ff fc 	movl   $0xfffffffc,-0x1474(%rbp)
   15b8c:	ff ff ff 
   15b8f:	c7 85 90 eb ff ff ff 	movl   $0xffffffff,-0x1470(%rbp)
   15b96:	ff ff ff 
   15b99:	c7 85 40 e9 ff ff 76 	movl   $0xbf7c6276,-0x16c0(%rbp)
   15ba0:	62 7c bf 
   15ba3:	c7 85 44 e9 ff ff 76 	movl   $0xbf7c6276,-0x16bc(%rbp)
   15baa:	62 7c bf 
   15bad:	c7 85 48 e9 ff ff 76 	movl   $0xbf7c6276,-0x16b8(%rbp)
   15bb4:	62 7c bf 
   15bb7:	c7 85 4c e9 ff ff 76 	movl   $0xbf7c6276,-0x16b4(%rbp)
   15bbe:	62 7c bf 
   15bc1:	c7 85 50 e9 ff ff 76 	movl   $0xbf7c6276,-0x16b0(%rbp)
   15bc8:	62 7c bf 
   15bcb:	c7 85 54 e9 ff ff 76 	movl   $0xbf7c6276,-0x16ac(%rbp)
   15bd2:	62 7c bf 
   15bd5:	c7 85 58 e9 ff ff 76 	movl   $0xbf7c6276,-0x16a8(%rbp)
   15bdc:	62 7c bf 
   15bdf:	c7 85 5c e9 ff ff 76 	movl   $0xbf7c6276,-0x16a4(%rbp)
   15be6:	62 7c bf 
   15be9:	c7 85 c4 e5 ff ff f6 	movl   $0xfffffff6,-0x1a3c(%rbp)
   15bf0:	ff ff ff 
   15bf3:	48 b8 e9 9f 66 dd 13 	movabs $0x13a4b513dd669fe9,%rax
   15bfa:	b5 a4 13 
   15bfd:	48 89 85 78 e6 ff ff 	mov    %rax,-0x1988(%rbp)
   15c04:	c7 85 c8 e5 ff ff 5a 	movl   $0x3348d5a,-0x1a38(%rbp)
   15c0b:	8d 34 03 
   15c0e:	48 8d 05 89 b5 00 00 	lea    0xb589(%rip),%rax        # 2119e <g_342+0x6>
   15c15:	48 89 85 80 e6 ff ff 	mov    %rax,-0x1980(%rbp)
   15c1c:	48 c7 85 48 e6 ff ff 	movq   $0x0,-0x19b8(%rbp)
   15c23:	00 00 00 00 
   15c27:	48 8d 85 48 e6 ff ff 	lea    -0x19b8(%rbp),%rax
   15c2e:	48 89 85 40 ea ff ff 	mov    %rax,-0x15c0(%rbp)
   15c35:	48 8d 85 48 e6 ff ff 	lea    -0x19b8(%rbp),%rax
   15c3c:	48 89 85 48 ea ff ff 	mov    %rax,-0x15b8(%rbp)
   15c43:	48 8d 85 48 e6 ff ff 	lea    -0x19b8(%rbp),%rax
   15c4a:	48 89 85 50 ea ff ff 	mov    %rax,-0x15b0(%rbp)
   15c51:	48 8d 85 48 e6 ff ff 	lea    -0x19b8(%rbp),%rax
   15c58:	48 89 85 58 ea ff ff 	mov    %rax,-0x15a8(%rbp)
   15c5f:	48 8d 85 48 e6 ff ff 	lea    -0x19b8(%rbp),%rax
   15c66:	48 89 85 60 ea ff ff 	mov    %rax,-0x15a0(%rbp)
   15c6d:	48 c7 85 68 ea ff ff 	movq   $0x0,-0x1598(%rbp)
   15c74:	00 00 00 00 
   15c78:	48 8d 85 48 e6 ff ff 	lea    -0x19b8(%rbp),%rax
   15c7f:	48 89 85 70 ea ff ff 	mov    %rax,-0x1590(%rbp)
   15c86:	48 8d 85 48 e6 ff ff 	lea    -0x19b8(%rbp),%rax
   15c8d:	48 89 85 78 ea ff ff 	mov    %rax,-0x1588(%rbp)
   15c94:	48 c7 85 80 ea ff ff 	movq   $0x0,-0x1580(%rbp)
   15c9b:	00 00 00 00 
   15c9f:	48 8d 85 48 e6 ff ff 	lea    -0x19b8(%rbp),%rax
   15ca6:	48 89 85 88 ea ff ff 	mov    %rax,-0x1578(%rbp)
   15cad:	48 c7 85 90 ea ff ff 	movq   $0x0,-0x1570(%rbp)
   15cb4:	00 00 00 00 
   15cb8:	48 8d 85 48 e6 ff ff 	lea    -0x19b8(%rbp),%rax
   15cbf:	48 89 85 98 ea ff ff 	mov    %rax,-0x1568(%rbp)
   15cc6:	48 c7 85 a0 ea ff ff 	movq   $0x0,-0x1560(%rbp)
   15ccd:	00 00 00 00 
   15cd1:	48 c7 85 a8 ea ff ff 	movq   $0x0,-0x1558(%rbp)
   15cd8:	00 00 00 00 
   15cdc:	48 8d 85 48 e6 ff ff 	lea    -0x19b8(%rbp),%rax
   15ce3:	48 89 85 b0 ea ff ff 	mov    %rax,-0x1550(%rbp)
   15cea:	48 8d 85 48 e6 ff ff 	lea    -0x19b8(%rbp),%rax
   15cf1:	48 89 85 b8 ea ff ff 	mov    %rax,-0x1548(%rbp)
   15cf8:	48 8d 85 48 e6 ff ff 	lea    -0x19b8(%rbp),%rax
   15cff:	48 89 85 c0 ea ff ff 	mov    %rax,-0x1540(%rbp)
   15d06:	48 c7 85 c8 ea ff ff 	movq   $0x0,-0x1538(%rbp)
   15d0d:	00 00 00 00 
   15d11:	48 8d 85 48 e6 ff ff 	lea    -0x19b8(%rbp),%rax
   15d18:	48 89 85 d0 ea ff ff 	mov    %rax,-0x1530(%rbp)
   15d1f:	48 8d 85 48 e6 ff ff 	lea    -0x19b8(%rbp),%rax
   15d26:	48 89 85 d8 ea ff ff 	mov    %rax,-0x1528(%rbp)
   15d2d:	48 c7 85 88 e6 ff ff 	movq   $0x0,-0x1978(%rbp)
   15d34:	00 00 00 00 
   15d38:	c7 85 00 e6 ff ff 6c 	movl   $0x7b8eb6c,-0x1a00(%rbp)
   15d3f:	eb b8 07 
   15d42:	c7 85 04 e6 ff ff 00 	movl   $0x0,-0x19fc(%rbp)
   15d49:	00 00 00 
   15d4c:	48 c7 85 98 e6 ff ff 	movq   $0xffffffffffffffff,-0x1968(%rbp)
   15d53:	ff ff ff ff 
   15d57:	48 8d 05 2c b4 00 00 	lea    0xb42c(%rip),%rax        # 2118a <g_190>
   15d5e:	48 89 85 a0 e6 ff ff 	mov    %rax,-0x1960(%rbp)
   15d65:	c7 85 fc e5 ff ff 00 	movl   $0x0,-0x1a04(%rbp)
   15d6c:	00 00 00 
   15d6f:	eb 1e                	jmp    15d8f <func_50+0x44e>
   15d71:	8b 85 fc e5 ff ff    	mov    -0x1a04(%rbp),%eax
   15d77:	48 98                	cltq   
   15d79:	48 8d 15 60 b4 00 00 	lea    0xb460(%rip),%rdx        # 211e0 <g_579>
   15d80:	48 89 94 c5 20 e9 ff 	mov    %rdx,-0x16e0(%rbp,%rax,8)
   15d87:	ff 
   15d88:	83 85 fc e5 ff ff 01 	addl   $0x1,-0x1a04(%rbp)
   15d8f:	83 bd fc e5 ff ff 01 	cmpl   $0x1,-0x1a04(%rbp)
   15d96:	7e d9                	jle    15d71 <func_50+0x430>
   15d98:	b8 7b 00 00 00       	mov    $0x7b,%eax
   15d9d:	0f b6 d8             	movzbl %al,%ebx
   15da0:	44 8b 25 89 b2 00 00 	mov    0xb289(%rip),%r12d        # 21030 <g_14>
   15da7:	b8 7b 00 00 00       	mov    $0x7b,%eax
   15dac:	44 0f be e8          	movsbl %al,%r13d
   15db0:	8b 85 a4 ed ff ff    	mov    -0x125c(%rbp),%eax
   15db6:	0f b6 c0             	movzbl %al,%eax
   15db9:	89 c6                	mov    %eax,%esi
   15dbb:	bf 01 00 00 00       	mov    $0x1,%edi
   15dc0:	e8 b3 1d ff ff       	callq  7b78 <safe_sub_func_uint8_t_u_u>
   15dc5:	48 8d 85 ac e5 ff ff 	lea    -0x1a54(%rbp),%rax
   15dcc:	48 89 85 60 ee ff ff 	mov    %rax,-0x11a0(%rbp)
   15dd3:	48 8b 95 60 ee ff ff 	mov    -0x11a0(%rbp),%rdx
   15dda:	48 8d 85 ac e5 ff ff 	lea    -0x1a54(%rbp),%rax
   15de1:	48 39 c2             	cmp    %rax,%rdx
   15de4:	0f 95 c0             	setne  %al
   15de7:	0f b6 d0             	movzbl %al,%edx
   15dea:	8b 85 4c eb ff ff    	mov    -0x14b4(%rbp),%eax
   15df0:	39 c2                	cmp    %eax,%edx
   15df2:	0f 9e c0             	setle  %al
   15df5:	0f b6 d0             	movzbl %al,%edx
   15df8:	b8 7b 00 00 00       	mov    $0x7b,%eax
   15dfd:	0f b6 c0             	movzbl %al,%eax
   15e00:	39 c2                	cmp    %eax,%edx
   15e02:	48 83 bd 90 e6 ff ff 	cmpq   $0x0,-0x1970(%rbp)
   15e09:	00 
   15e0a:	75 14                	jne    15e20 <func_50+0x4df>
   15e0c:	8b 05 1e b2 00 00    	mov    0xb21e(%rip),%eax        # 21030 <g_14>
   15e12:	85 c0                	test   %eax,%eax
   15e14:	75 0a                	jne    15e20 <func_50+0x4df>
   15e16:	8b 05 34 b2 00 00    	mov    0xb234(%rip),%eax        # 21050 <g_79>
   15e1c:	85 c0                	test   %eax,%eax
   15e1e:	74 07                	je     15e27 <func_50+0x4e6>
   15e20:	b8 01 00 00 00       	mov    $0x1,%eax
   15e25:	eb 05                	jmp    15e2c <func_50+0x4eb>
   15e27:	b8 00 00 00 00       	mov    $0x0,%eax
   15e2c:	0f b7 d0             	movzwl %ax,%edx
   15e2f:	48 83 bd 90 e6 ff ff 	cmpq   $0x0,-0x1970(%rbp)
   15e36:	00 
   15e37:	0f 95 c0             	setne  %al
   15e3a:	0f b6 c0             	movzbl %al,%eax
   15e3d:	89 d6                	mov    %edx,%esi
   15e3f:	89 c7                	mov    %eax,%edi
   15e41:	e8 d9 1e ff ff       	callq  7d1f <safe_sub_func_uint16_t_u_u>
   15e46:	0f b7 c0             	movzwl %ax,%eax
   15e49:	89 85 44 eb ff ff    	mov    %eax,-0x14bc(%rbp)
   15e4f:	8b 85 44 eb ff ff    	mov    -0x14bc(%rbp),%eax
   15e55:	0f be c0             	movsbl %al,%eax
   15e58:	44 89 ee             	mov    %r13d,%esi
   15e5b:	89 c7                	mov    %eax,%edi
   15e5d:	e8 90 13 ff ff       	callq  71f2 <safe_sub_func_int8_t_s_s>
   15e62:	0f be c0             	movsbl %al,%eax
   15e65:	be 54 d5 ff ff       	mov    $0xffffd554,%esi
   15e6a:	89 c7                	mov    %eax,%edi
   15e6c:	e8 84 15 ff ff       	callq  73f5 <safe_mul_func_int16_t_s_s>
   15e71:	0f bf d0             	movswl %ax,%edx
   15e74:	8b 85 8c ed ff ff    	mov    -0x1274(%rbp),%eax
   15e7a:	39 c2                	cmp    %eax,%edx
   15e7c:	0f 9f c0             	setg   %al
   15e7f:	0f b6 c0             	movzbl %al,%eax
   15e82:	44 89 e6             	mov    %r12d,%esi
   15e85:	89 c7                	mov    %eax,%edi
   15e87:	e8 73 18 ff ff       	callq  76ff <safe_div_func_int32_t_s_s>
   15e8c:	89 c1                	mov    %eax,%ecx
   15e8e:	48 8b 85 40 e6 ff ff 	mov    -0x19c0(%rbp),%rax
   15e95:	48 c7 00 01 00 00 00 	movq   $0x1,(%rax)
   15e9c:	48 8b 10             	mov    (%rax),%rdx
   15e9f:	48 8b 05 3a d9 00 00 	mov    0xd93a(%rip),%rax        # 237e0 <g_61>
   15ea6:	48 85 c0             	test   %rax,%rax
   15ea9:	0f 95 c0             	setne  %al
   15eac:	0f b6 c0             	movzbl %al,%eax
   15eaf:	48 39 c2             	cmp    %rax,%rdx
   15eb2:	0f 92 c0             	setb   %al
   15eb5:	0f b6 d0             	movzbl %al,%edx
   15eb8:	48 8b 85 90 e6 ff ff 	mov    -0x1970(%rbp),%rax
   15ebf:	66 89 10             	mov    %dx,(%rax)
   15ec2:	48 8b 85 90 e6 ff ff 	mov    -0x1970(%rbp),%rax
   15ec9:	0f b7 00             	movzwl (%rax),%eax
   15ecc:	0f bf d0             	movswl %ax,%edx
   15ecf:	8b 85 50 ed ff ff    	mov    -0x12b0(%rbp),%eax
   15ed5:	39 c2                	cmp    %eax,%edx
   15ed7:	0f 9c c0             	setl   %al
   15eda:	0f b6 c0             	movzbl %al,%eax
   15edd:	89 ce                	mov    %ecx,%esi
   15edf:	89 c7                	mov    %eax,%edi
   15ee1:	e8 fb 15 ff ff       	callq  74e1 <safe_lshift_func_int16_t_s_u>
   15ee6:	98                   	cwtl   
   15ee7:	89 de                	mov    %ebx,%esi
   15ee9:	89 c7                	mov    %eax,%edi
   15eeb:	e8 35 20 ff ff       	callq  7f25 <safe_div_func_uint32_t_u_u>
   15ef0:	85 c0                	test   %eax,%eax
   15ef2:	0f 84 f7 36 00 00    	je     195ef <func_50+0x3cae>
   15ef8:	48 8d 05 41 b1 00 00 	lea    0xb141(%rip),%rax        # 21040 <g_59>
   15eff:	48 89 85 b0 e6 ff ff 	mov    %rax,-0x1950(%rbp)
   15f06:	c7 85 50 e6 ff ff f1 	movl   $0xe776c1f1,-0x19b0(%rbp)
   15f0d:	c1 76 e7 
   15f10:	c7 85 30 e9 ff ff 81 	movl   $0xce9d0e81,-0x16d0(%rbp)
   15f17:	0e 9d ce 
   15f1a:	c7 85 34 e9 ff ff 81 	movl   $0xce9d0e81,-0x16cc(%rbp)
   15f21:	0e 9d ce 
   15f24:	c7 85 38 e9 ff ff 81 	movl   $0xce9d0e81,-0x16c8(%rbp)
   15f2b:	0e 9d ce 
   15f2e:	c7 85 3c e9 ff ff 81 	movl   $0xce9d0e81,-0x16c4(%rbp)
   15f35:	0e 9d ce 
   15f38:	c7 85 58 e6 ff ff 1d 	movl   $0xde450c1d,-0x19a8(%rbp)
   15f3f:	0c 45 de 
   15f42:	48 8d 05 3b b2 00 00 	lea    0xb23b(%rip),%rax        # 21184 <g_122>
   15f49:	48 89 85 b8 e6 ff ff 	mov    %rax,-0x1948(%rbp)
   15f50:	48 8d 05 f9 e6 00 00 	lea    0xe6f9(%rip),%rax        # 24650 <g_111>
   15f57:	48 89 85 60 e6 ff ff 	mov    %rax,-0x19a0(%rbp)
   15f5e:	66 c7 85 bc e5 ff ff 	movw   $0x94ef,-0x1a44(%rbp)
   15f65:	ef 94 
   15f67:	c6 85 b7 e5 ff ff 04 	movb   $0x4,-0x1a49(%rbp)
   15f6e:	48 8d 05 0f b2 00 00 	lea    0xb20f(%rip),%rax        # 21184 <g_122>
   15f75:	48 89 85 a0 eb ff ff 	mov    %rax,-0x1460(%rbp)
   15f7c:	48 8d 05 01 b2 00 00 	lea    0xb201(%rip),%rax        # 21184 <g_122>
   15f83:	48 89 85 a8 eb ff ff 	mov    %rax,-0x1458(%rbp)
   15f8a:	48 8d 05 ef b1 00 00 	lea    0xb1ef(%rip),%rax        # 21180 <g_117>
   15f91:	48 89 85 b0 eb ff ff 	mov    %rax,-0x1450(%rbp)
   15f98:	48 8d 05 e1 b1 00 00 	lea    0xb1e1(%rip),%rax        # 21180 <g_117>
   15f9f:	48 89 85 b8 eb ff ff 	mov    %rax,-0x1448(%rbp)
   15fa6:	48 8d 05 d7 b1 00 00 	lea    0xb1d7(%rip),%rax        # 21184 <g_122>
   15fad:	48 89 85 c0 eb ff ff 	mov    %rax,-0x1440(%rbp)
   15fb4:	48 8d 05 c9 b1 00 00 	lea    0xb1c9(%rip),%rax        # 21184 <g_122>
   15fbb:	48 89 85 c8 eb ff ff 	mov    %rax,-0x1438(%rbp)
   15fc2:	48 8d 05 b7 b1 00 00 	lea    0xb1b7(%rip),%rax        # 21180 <g_117>
   15fc9:	48 89 85 d0 eb ff ff 	mov    %rax,-0x1430(%rbp)
   15fd0:	48 c7 85 d8 eb ff ff 	movq   $0x0,-0x1428(%rbp)
   15fd7:	00 00 00 00 
   15fdb:	48 c7 85 e0 eb ff ff 	movq   $0x0,-0x1420(%rbp)
   15fe2:	00 00 00 00 
   15fe6:	48 8d 05 93 b1 00 00 	lea    0xb193(%rip),%rax        # 21180 <g_117>
   15fed:	48 89 85 e8 eb ff ff 	mov    %rax,-0x1418(%rbp)
   15ff4:	48 8d 05 85 b1 00 00 	lea    0xb185(%rip),%rax        # 21180 <g_117>
   15ffb:	48 89 85 f0 eb ff ff 	mov    %rax,-0x1410(%rbp)
   16002:	48 8d 05 77 b1 00 00 	lea    0xb177(%rip),%rax        # 21180 <g_117>
   16009:	48 89 85 f8 eb ff ff 	mov    %rax,-0x1408(%rbp)
   16010:	48 8d 05 6d b1 00 00 	lea    0xb16d(%rip),%rax        # 21184 <g_122>
   16017:	48 89 85 00 ec ff ff 	mov    %rax,-0x1400(%rbp)
   1601e:	48 8d 05 5b b1 00 00 	lea    0xb15b(%rip),%rax        # 21180 <g_117>
   16025:	48 89 85 08 ec ff ff 	mov    %rax,-0x13f8(%rbp)
   1602c:	48 c7 85 10 ec ff ff 	movq   $0x0,-0x13f0(%rbp)
   16033:	00 00 00 00 
   16037:	48 8d 05 46 b1 00 00 	lea    0xb146(%rip),%rax        # 21184 <g_122>
   1603e:	48 89 85 18 ec ff ff 	mov    %rax,-0x13e8(%rbp)
   16045:	48 8d 05 38 b1 00 00 	lea    0xb138(%rip),%rax        # 21184 <g_122>
   1604c:	48 89 85 20 ec ff ff 	mov    %rax,-0x13e0(%rbp)
   16053:	48 8d 05 2a b1 00 00 	lea    0xb12a(%rip),%rax        # 21184 <g_122>
   1605a:	48 89 85 28 ec ff ff 	mov    %rax,-0x13d8(%rbp)
   16061:	48 8d 05 1c b1 00 00 	lea    0xb11c(%rip),%rax        # 21184 <g_122>
   16068:	48 89 85 30 ec ff ff 	mov    %rax,-0x13d0(%rbp)
   1606f:	48 8d 05 0a b1 00 00 	lea    0xb10a(%rip),%rax        # 21180 <g_117>
   16076:	48 89 85 38 ec ff ff 	mov    %rax,-0x13c8(%rbp)
   1607d:	48 8d 05 fc b0 00 00 	lea    0xb0fc(%rip),%rax        # 21180 <g_117>
   16084:	48 89 85 40 ec ff ff 	mov    %rax,-0x13c0(%rbp)
   1608b:	48 8d 05 f2 b0 00 00 	lea    0xb0f2(%rip),%rax        # 21184 <g_122>
   16092:	48 89 85 48 ec ff ff 	mov    %rax,-0x13b8(%rbp)
   16099:	48 8d 05 e0 b0 00 00 	lea    0xb0e0(%rip),%rax        # 21180 <g_117>
   160a0:	48 89 85 50 ec ff ff 	mov    %rax,-0x13b0(%rbp)
   160a7:	48 8d 05 d2 b0 00 00 	lea    0xb0d2(%rip),%rax        # 21180 <g_117>
   160ae:	48 89 85 58 ec ff ff 	mov    %rax,-0x13a8(%rbp)
   160b5:	48 8d 05 c8 b0 00 00 	lea    0xb0c8(%rip),%rax        # 21184 <g_122>
   160bc:	48 89 85 60 ec ff ff 	mov    %rax,-0x13a0(%rbp)
   160c3:	48 c7 85 68 ec ff ff 	movq   $0x0,-0x1398(%rbp)
   160ca:	00 00 00 00 
   160ce:	48 8d 05 af b0 00 00 	lea    0xb0af(%rip),%rax        # 21184 <g_122>
   160d5:	48 89 85 70 ec ff ff 	mov    %rax,-0x1390(%rbp)
   160dc:	48 8d 05 a1 b0 00 00 	lea    0xb0a1(%rip),%rax        # 21184 <g_122>
   160e3:	48 89 85 78 ec ff ff 	mov    %rax,-0x1388(%rbp)
   160ea:	48 8d 05 93 b0 00 00 	lea    0xb093(%rip),%rax        # 21184 <g_122>
   160f1:	48 89 85 80 ec ff ff 	mov    %rax,-0x1380(%rbp)
   160f8:	48 8d 05 81 b0 00 00 	lea    0xb081(%rip),%rax        # 21180 <g_117>
   160ff:	48 89 85 88 ec ff ff 	mov    %rax,-0x1378(%rbp)
   16106:	48 8d 05 7b b0 00 00 	lea    0xb07b(%rip),%rax        # 21188 <g_189>
   1610d:	48 89 85 c0 e6 ff ff 	mov    %rax,-0x1940(%rbp)
   16114:	48 8d 05 45 e5 00 00 	lea    0xe545(%rip),%rax        # 24660 <g_309>
   1611b:	48 89 85 c8 e6 ff ff 	mov    %rax,-0x1938(%rbp)
   16122:	48 8d 85 c4 e5 ff ff 	lea    -0x1a3c(%rbp),%rax
   16129:	48 89 85 d0 e6 ff ff 	mov    %rax,-0x1930(%rbp)
   16130:	48 c7 85 d8 e6 ff ff 	movq   $0x0,-0x1928(%rbp)
   16137:	00 00 00 00 
   1613b:	48 b8 40 6a 2f 00 e1 	movabs $0x409ff7e1002f6a40,%rax
   16142:	f7 9f 40 
   16145:	48 89 85 e0 e6 ff ff 	mov    %rax,-0x1920(%rbp)
   1614c:	c7 85 cc e5 ff ff 00 	movl   $0x0,-0x1a34(%rbp)
   16153:	00 00 00 
   16156:	48 8d 05 53 b0 00 00 	lea    0xb053(%rip),%rax        # 211b0 <g_407>
   1615d:	48 89 85 e0 f7 ff ff 	mov    %rax,-0x820(%rbp)
   16164:	48 8d 05 1f b0 00 00 	lea    0xb01f(%rip),%rax        # 2118a <g_190>
   1616b:	48 89 85 e8 f7 ff ff 	mov    %rax,-0x818(%rbp)
   16172:	48 8d 05 ef e4 00 00 	lea    0xe4ef(%rip),%rax        # 24668 <g_356>
   16179:	48 89 85 f0 f7 ff ff 	mov    %rax,-0x810(%rbp)
   16180:	48 8d 05 52 b0 00 00 	lea    0xb052(%rip),%rax        # 211d9 <g_481+0x19>
   16187:	48 89 85 f8 f7 ff ff 	mov    %rax,-0x808(%rbp)
   1618e:	48 8d 05 d3 e4 00 00 	lea    0xe4d3(%rip),%rax        # 24668 <g_356>
   16195:	48 89 85 00 f8 ff ff 	mov    %rax,-0x800(%rbp)
   1619c:	48 8d 05 e7 af 00 00 	lea    0xafe7(%rip),%rax        # 2118a <g_190>
   161a3:	48 89 85 08 f8 ff ff 	mov    %rax,-0x7f8(%rbp)
   161aa:	48 8d 05 ff af 00 00 	lea    0xafff(%rip),%rax        # 211b0 <g_407>
   161b1:	48 89 85 10 f8 ff ff 	mov    %rax,-0x7f0(%rbp)
   161b8:	48 8d 05 de af 00 00 	lea    0xafde(%rip),%rax        # 2119d <g_342+0x5>
   161bf:	48 89 85 18 f8 ff ff 	mov    %rax,-0x7e8(%rbp)
   161c6:	48 8d 05 12 b0 00 00 	lea    0xb012(%rip),%rax        # 211df <g_481+0x1f>
   161cd:	48 89 85 20 f8 ff ff 	mov    %rax,-0x7e0(%rbp)
   161d4:	48 8d 05 8d e4 00 00 	lea    0xe48d(%rip),%rax        # 24668 <g_356>
   161db:	48 89 85 28 f8 ff ff 	mov    %rax,-0x7d8(%rbp)
   161e2:	48 8d 05 7f e4 00 00 	lea    0xe47f(%rip),%rax        # 24668 <g_356>
   161e9:	48 89 85 30 f8 ff ff 	mov    %rax,-0x7d0(%rbp)
   161f0:	48 8d 05 b9 af 00 00 	lea    0xafb9(%rip),%rax        # 211b0 <g_407>
   161f7:	48 89 85 38 f8 ff ff 	mov    %rax,-0x7c8(%rbp)
   161fe:	48 8d 05 99 af 00 00 	lea    0xaf99(%rip),%rax        # 2119e <g_342+0x6>
   16205:	48 89 85 40 f8 ff ff 	mov    %rax,-0x7c0(%rbp)
   1620c:	48 8d 05 21 ae 00 00 	lea    0xae21(%rip),%rax        # 21034 <g_25>
   16213:	48 89 85 48 f8 ff ff 	mov    %rax,-0x7b8(%rbp)
   1621a:	48 8d 05 8f af 00 00 	lea    0xaf8f(%rip),%rax        # 211b0 <g_407>
   16221:	48 89 85 50 f8 ff ff 	mov    %rax,-0x7b0(%rbp)
   16228:	48 8d 05 05 ae 00 00 	lea    0xae05(%rip),%rax        # 21034 <g_25>
   1622f:	48 89 85 58 f8 ff ff 	mov    %rax,-0x7a8(%rbp)
   16236:	48 8d 05 9c af 00 00 	lea    0xaf9c(%rip),%rax        # 211d9 <g_481+0x19>
   1623d:	48 89 85 60 f8 ff ff 	mov    %rax,-0x7a0(%rbp)
   16244:	48 8d 05 1d e4 00 00 	lea    0xe41d(%rip),%rax        # 24668 <g_356>
   1624b:	48 89 85 68 f8 ff ff 	mov    %rax,-0x798(%rbp)
   16252:	48 c7 85 70 f8 ff ff 	movq   $0x0,-0x790(%rbp)
   16259:	00 00 00 00 
   1625d:	48 8d 05 75 af 00 00 	lea    0xaf75(%rip),%rax        # 211d9 <g_481+0x19>
   16264:	48 89 85 78 f8 ff ff 	mov    %rax,-0x788(%rbp)
   1626b:	48 8d 05 2c af 00 00 	lea    0xaf2c(%rip),%rax        # 2119e <g_342+0x6>
   16272:	48 89 85 80 f8 ff ff 	mov    %rax,-0x780(%rbp)
   16279:	48 8d 05 e8 e3 00 00 	lea    0xe3e8(%rip),%rax        # 24668 <g_356>
   16280:	48 89 85 88 f8 ff ff 	mov    %rax,-0x778(%rbp)
   16287:	48 8d 05 10 af 00 00 	lea    0xaf10(%rip),%rax        # 2119e <g_342+0x6>
   1628e:	48 89 85 90 f8 ff ff 	mov    %rax,-0x770(%rbp)
   16295:	48 8d 05 36 af 00 00 	lea    0xaf36(%rip),%rax        # 211d2 <g_481+0x12>
   1629c:	48 89 85 98 f8 ff ff 	mov    %rax,-0x768(%rbp)
   162a3:	48 8d 05 34 af 00 00 	lea    0xaf34(%rip),%rax        # 211de <g_481+0x1e>
   162aa:	48 89 85 a0 f8 ff ff 	mov    %rax,-0x760(%rbp)
   162b1:	48 8d 05 d2 ae 00 00 	lea    0xaed2(%rip),%rax        # 2118a <g_190>
   162b8:	48 89 85 a8 f8 ff ff 	mov    %rax,-0x758(%rbp)
   162bf:	48 8d 05 0f af 00 00 	lea    0xaf0f(%rip),%rax        # 211d5 <g_481+0x15>
   162c6:	48 89 85 b0 f8 ff ff 	mov    %rax,-0x750(%rbp)
   162cd:	48 8d 05 b6 ae 00 00 	lea    0xaeb6(%rip),%rax        # 2118a <g_190>
   162d4:	48 89 85 b8 f8 ff ff 	mov    %rax,-0x748(%rbp)
   162db:	48 8d 05 86 e3 00 00 	lea    0xe386(%rip),%rax        # 24668 <g_356>
   162e2:	48 89 85 c0 f8 ff ff 	mov    %rax,-0x740(%rbp)
   162e9:	48 c7 85 c8 f8 ff ff 	movq   $0x0,-0x738(%rbp)
   162f0:	00 00 00 00 
   162f4:	48 c7 85 d0 f8 ff ff 	movq   $0x0,-0x730(%rbp)
   162fb:	00 00 00 00 
   162ff:	48 8d 05 d9 ae 00 00 	lea    0xaed9(%rip),%rax        # 211df <g_481+0x1f>
   16306:	48 89 85 d8 f8 ff ff 	mov    %rax,-0x728(%rbp)
   1630d:	48 8d 05 8a ae 00 00 	lea    0xae8a(%rip),%rax        # 2119e <g_342+0x6>
   16314:	48 89 85 e0 f8 ff ff 	mov    %rax,-0x720(%rbp)
   1631b:	48 8d 05 46 e3 00 00 	lea    0xe346(%rip),%rax        # 24668 <g_356>
   16322:	48 89 85 e8 f8 ff ff 	mov    %rax,-0x718(%rbp)
   16329:	48 8d 05 6c ae 00 00 	lea    0xae6c(%rip),%rax        # 2119c <g_342+0x4>
   16330:	48 89 85 f0 f8 ff ff 	mov    %rax,-0x710(%rbp)
   16337:	48 8d 05 2a e3 00 00 	lea    0xe32a(%rip),%rax        # 24668 <g_356>
   1633e:	48 89 85 f8 f8 ff ff 	mov    %rax,-0x708(%rbp)
   16345:	48 8d 05 e8 ac 00 00 	lea    0xace8(%rip),%rax        # 21034 <g_25>
   1634c:	48 89 85 00 f9 ff ff 	mov    %rax,-0x700(%rbp)
   16353:	48 8d 05 56 ae 00 00 	lea    0xae56(%rip),%rax        # 211b0 <g_407>
   1635a:	48 89 85 08 f9 ff ff 	mov    %rax,-0x6f8(%rbp)
   16361:	48 8d 05 22 ae 00 00 	lea    0xae22(%rip),%rax        # 2118a <g_190>
   16368:	48 89 85 10 f9 ff ff 	mov    %rax,-0x6f0(%rbp)
   1636f:	48 8d 05 f2 e2 00 00 	lea    0xe2f2(%rip),%rax        # 24668 <g_356>
   16376:	48 89 85 18 f9 ff ff 	mov    %rax,-0x6e8(%rbp)
   1637d:	48 8d 05 5b ae 00 00 	lea    0xae5b(%rip),%rax        # 211df <g_481+0x1f>
   16384:	48 89 85 20 f9 ff ff 	mov    %rax,-0x6e0(%rbp)
   1638b:	48 8d 05 a2 ac 00 00 	lea    0xaca2(%rip),%rax        # 21034 <g_25>
   16392:	48 89 85 28 f9 ff ff 	mov    %rax,-0x6d8(%rbp)
   16399:	48 8d 05 c8 e2 00 00 	lea    0xe2c8(%rip),%rax        # 24668 <g_356>
   163a0:	48 89 85 30 f9 ff ff 	mov    %rax,-0x6d0(%rbp)
   163a7:	48 8d 05 ee ad 00 00 	lea    0xadee(%rip),%rax        # 2119c <g_342+0x4>
   163ae:	48 89 85 38 f9 ff ff 	mov    %rax,-0x6c8(%rbp)
   163b5:	48 8d 05 23 ae 00 00 	lea    0xae23(%rip),%rax        # 211df <g_481+0x1f>
   163bc:	48 89 85 40 f9 ff ff 	mov    %rax,-0x6c0(%rbp)
   163c3:	48 c7 85 48 f9 ff ff 	movq   $0x0,-0x6b8(%rbp)
   163ca:	00 00 00 00 
   163ce:	48 8d 05 db ad 00 00 	lea    0xaddb(%rip),%rax        # 211b0 <g_407>
   163d5:	48 89 85 50 f9 ff ff 	mov    %rax,-0x6b0(%rbp)
   163dc:	48 8d 05 cd ad 00 00 	lea    0xadcd(%rip),%rax        # 211b0 <g_407>
   163e3:	48 89 85 58 f9 ff ff 	mov    %rax,-0x6a8(%rbp)
   163ea:	48 c7 85 60 f9 ff ff 	movq   $0x0,-0x6a0(%rbp)
   163f1:	00 00 00 00 
   163f5:	48 8d 05 6c e2 00 00 	lea    0xe26c(%rip),%rax        # 24668 <g_356>
   163fc:	48 89 85 68 f9 ff ff 	mov    %rax,-0x698(%rbp)
   16403:	48 8d 05 80 ad 00 00 	lea    0xad80(%rip),%rax        # 2118a <g_190>
   1640a:	48 89 85 70 f9 ff ff 	mov    %rax,-0x690(%rbp)
   16411:	48 8d 05 50 e2 00 00 	lea    0xe250(%rip),%rax        # 24668 <g_356>
   16418:	48 89 85 78 f9 ff ff 	mov    %rax,-0x688(%rbp)
   1641f:	48 c7 85 80 f9 ff ff 	movq   $0x0,-0x680(%rbp)
   16426:	00 00 00 00 
   1642a:	48 8d 05 37 e2 00 00 	lea    0xe237(%rip),%rax        # 24668 <g_356>
   16431:	48 89 85 88 f9 ff ff 	mov    %rax,-0x678(%rbp)
   16438:	48 8d 05 f5 ab 00 00 	lea    0xabf5(%rip),%rax        # 21034 <g_25>
   1643f:	48 89 85 90 f9 ff ff 	mov    %rax,-0x670(%rbp)
   16446:	48 8d 05 51 ad 00 00 	lea    0xad51(%rip),%rax        # 2119e <g_342+0x6>
   1644d:	48 89 85 98 f9 ff ff 	mov    %rax,-0x668(%rbp)
   16454:	48 8d 05 0d e2 00 00 	lea    0xe20d(%rip),%rax        # 24668 <g_356>
   1645b:	48 89 85 a0 f9 ff ff 	mov    %rax,-0x660(%rbp)
   16462:	48 8d 05 35 ad 00 00 	lea    0xad35(%rip),%rax        # 2119e <g_342+0x6>
   16469:	48 89 85 a8 f9 ff ff 	mov    %rax,-0x658(%rbp)
   16470:	48 8d 05 bd ab 00 00 	lea    0xabbd(%rip),%rax        # 21034 <g_25>
   16477:	48 89 85 b0 f9 ff ff 	mov    %rax,-0x650(%rbp)
   1647e:	48 8d 05 17 ad 00 00 	lea    0xad17(%rip),%rax        # 2119c <g_342+0x4>
   16485:	48 89 85 b8 f9 ff ff 	mov    %rax,-0x648(%rbp)
   1648c:	48 8d 05 f7 ac 00 00 	lea    0xacf7(%rip),%rax        # 2118a <g_190>
   16493:	48 89 85 c0 f9 ff ff 	mov    %rax,-0x640(%rbp)
   1649a:	48 8d 05 0f ad 00 00 	lea    0xad0f(%rip),%rax        # 211b0 <g_407>
   164a1:	48 89 85 c8 f9 ff ff 	mov    %rax,-0x638(%rbp)
   164a8:	48 8d 05 ee ac 00 00 	lea    0xacee(%rip),%rax        # 2119d <g_342+0x5>
   164af:	48 89 85 d0 f9 ff ff 	mov    %rax,-0x630(%rbp)
   164b6:	48 c7 85 d8 f9 ff ff 	movq   $0x0,-0x628(%rbp)
   164bd:	00 00 00 00 
   164c1:	48 8d 05 d4 ac 00 00 	lea    0xacd4(%rip),%rax        # 2119c <g_342+0x4>
   164c8:	48 89 85 e0 f9 ff ff 	mov    %rax,-0x620(%rbp)
   164cf:	48 c7 85 e8 f9 ff ff 	movq   $0x0,-0x618(%rbp)
   164d6:	00 00 00 00 
   164da:	48 c7 85 f0 f9 ff ff 	movq   $0x0,-0x610(%rbp)
   164e1:	00 00 00 00 
   164e5:	48 8d 05 9e ac 00 00 	lea    0xac9e(%rip),%rax        # 2118a <g_190>
   164ec:	48 89 85 f8 f9 ff ff 	mov    %rax,-0x608(%rbp)
   164f3:	48 8d 05 3a ab 00 00 	lea    0xab3a(%rip),%rax        # 21034 <g_25>
   164fa:	48 89 85 00 fa ff ff 	mov    %rax,-0x600(%rbp)
   16501:	48 8d 05 60 e1 00 00 	lea    0xe160(%rip),%rax        # 24668 <g_356>
   16508:	48 89 85 08 fa ff ff 	mov    %rax,-0x5f8(%rbp)
   1650f:	48 8d 05 88 ac 00 00 	lea    0xac88(%rip),%rax        # 2119e <g_342+0x6>
   16516:	48 89 85 10 fa ff ff 	mov    %rax,-0x5f0(%rbp)
   1651d:	48 c7 85 18 fa ff ff 	movq   $0x0,-0x5e8(%rbp)
   16524:	00 00 00 00 
   16528:	48 8d 05 6d ac 00 00 	lea    0xac6d(%rip),%rax        # 2119c <g_342+0x4>
   1652f:	48 89 85 20 fa ff ff 	mov    %rax,-0x5e0(%rbp)
   16536:	48 8d 05 5e ac 00 00 	lea    0xac5e(%rip),%rax        # 2119b <g_342+0x3>
   1653d:	48 89 85 28 fa ff ff 	mov    %rax,-0x5d8(%rbp)
   16544:	48 8d 05 1d e1 00 00 	lea    0xe11d(%rip),%rax        # 24668 <g_356>
   1654b:	48 89 85 30 fa ff ff 	mov    %rax,-0x5d0(%rbp)
   16552:	48 8d 05 57 ac 00 00 	lea    0xac57(%rip),%rax        # 211b0 <g_407>
   16559:	48 89 85 38 fa ff ff 	mov    %rax,-0x5c8(%rbp)
   16560:	48 8d 85 b7 e5 ff ff 	lea    -0x1a49(%rbp),%rax
   16567:	48 89 85 40 fa ff ff 	mov    %rax,-0x5c0(%rbp)
   1656e:	48 c7 85 48 fa ff ff 	movq   $0x0,-0x5b8(%rbp)
   16575:	00 00 00 00 
   16579:	48 8d 05 e8 e0 00 00 	lea    0xe0e8(%rip),%rax        # 24668 <g_356>
   16580:	48 89 85 50 fa ff ff 	mov    %rax,-0x5b0(%rbp)
   16587:	48 8d 05 a6 aa 00 00 	lea    0xaaa6(%rip),%rax        # 21034 <g_25>
   1658e:	48 89 85 58 fa ff ff 	mov    %rax,-0x5a8(%rbp)
   16595:	48 8d 05 cc e0 00 00 	lea    0xe0cc(%rip),%rax        # 24668 <g_356>
   1659c:	48 89 85 60 fa ff ff 	mov    %rax,-0x5a0(%rbp)
   165a3:	48 8d 05 be e0 00 00 	lea    0xe0be(%rip),%rax        # 24668 <g_356>
   165aa:	48 89 85 68 fa ff ff 	mov    %rax,-0x598(%rbp)
   165b1:	48 8d 05 27 ac 00 00 	lea    0xac27(%rip),%rax        # 211df <g_481+0x1f>
   165b8:	48 89 85 70 fa ff ff 	mov    %rax,-0x590(%rbp)
   165bf:	48 c7 85 78 fa ff ff 	movq   $0x0,-0x588(%rbp)
   165c6:	00 00 00 00 
   165ca:	48 8d 05 97 e0 00 00 	lea    0xe097(%rip),%rax        # 24668 <g_356>
   165d1:	48 89 85 80 fa ff ff 	mov    %rax,-0x580(%rbp)
   165d8:	48 8d 05 bf ab 00 00 	lea    0xabbf(%rip),%rax        # 2119e <g_342+0x6>
   165df:	48 89 85 88 fa ff ff 	mov    %rax,-0x578(%rbp)
   165e6:	48 8d 05 47 aa 00 00 	lea    0xaa47(%rip),%rax        # 21034 <g_25>
   165ed:	48 89 85 90 fa ff ff 	mov    %rax,-0x570(%rbp)
   165f4:	48 8d 05 6d e0 00 00 	lea    0xe06d(%rip),%rax        # 24668 <g_356>
   165fb:	48 89 85 98 fa ff ff 	mov    %rax,-0x568(%rbp)
   16602:	48 c7 85 a0 fa ff ff 	movq   $0x0,-0x560(%rbp)
   16609:	00 00 00 00 
   1660d:	48 8d 05 54 e0 00 00 	lea    0xe054(%rip),%rax        # 24668 <g_356>
   16614:	48 89 85 a8 fa ff ff 	mov    %rax,-0x558(%rbp)
   1661b:	48 8d 05 68 ab 00 00 	lea    0xab68(%rip),%rax        # 2118a <g_190>
   16622:	48 89 85 b0 fa ff ff 	mov    %rax,-0x550(%rbp)
   16629:	48 8d 05 a5 ab 00 00 	lea    0xaba5(%rip),%rax        # 211d5 <g_481+0x15>
   16630:	48 89 85 b8 fa ff ff 	mov    %rax,-0x548(%rbp)
   16637:	48 8d 05 60 ab 00 00 	lea    0xab60(%rip),%rax        # 2119e <g_342+0x6>
   1663e:	48 89 85 c0 fa ff ff 	mov    %rax,-0x540(%rbp)
   16645:	48 8d 05 4f ab 00 00 	lea    0xab4f(%rip),%rax        # 2119b <g_342+0x3>
   1664c:	48 89 85 c8 fa ff ff 	mov    %rax,-0x538(%rbp)
   16653:	48 8d 05 41 ab 00 00 	lea    0xab41(%rip),%rax        # 2119b <g_342+0x3>
   1665a:	48 89 85 d0 fa ff ff 	mov    %rax,-0x530(%rbp)
   16661:	48 8d 05 36 ab 00 00 	lea    0xab36(%rip),%rax        # 2119e <g_342+0x6>
   16668:	48 89 85 d8 fa ff ff 	mov    %rax,-0x528(%rbp)
   1666f:	48 8d 05 5f ab 00 00 	lea    0xab5f(%rip),%rax        # 211d5 <g_481+0x15>
   16676:	48 89 85 e0 fa ff ff 	mov    %rax,-0x520(%rbp)
   1667d:	48 8d 05 1a ab 00 00 	lea    0xab1a(%rip),%rax        # 2119e <g_342+0x6>
   16684:	48 89 85 e8 fa ff ff 	mov    %rax,-0x518(%rbp)
   1668b:	48 8d 05 f8 aa 00 00 	lea    0xaaf8(%rip),%rax        # 2118a <g_190>
   16692:	48 89 85 f0 fa ff ff 	mov    %rax,-0x510(%rbp)
   16699:	48 8d 05 c8 df 00 00 	lea    0xdfc8(%rip),%rax        # 24668 <g_356>
   166a0:	48 89 85 f8 fa ff ff 	mov    %rax,-0x508(%rbp)
   166a7:	48 8d 05 02 ab 00 00 	lea    0xab02(%rip),%rax        # 211b0 <g_407>
   166ae:	48 89 85 00 fb ff ff 	mov    %rax,-0x500(%rbp)
   166b5:	48 c7 85 08 fb ff ff 	movq   $0x0,-0x4f8(%rbp)
   166bc:	00 00 00 00 
   166c0:	48 8d 05 d6 aa 00 00 	lea    0xaad6(%rip),%rax        # 2119d <g_342+0x5>
   166c7:	48 89 85 10 fb ff ff 	mov    %rax,-0x4f0(%rbp)
   166ce:	48 8d 05 04 ab 00 00 	lea    0xab04(%rip),%rax        # 211d9 <g_481+0x19>
   166d5:	48 89 85 18 fb ff ff 	mov    %rax,-0x4e8(%rbp)
   166dc:	48 8d 05 85 df 00 00 	lea    0xdf85(%rip),%rax        # 24668 <g_356>
   166e3:	48 89 85 20 fb ff ff 	mov    %rax,-0x4e0(%rbp)
   166ea:	48 8d 05 77 df 00 00 	lea    0xdf77(%rip),%rax        # 24668 <g_356>
   166f1:	48 89 85 28 fb ff ff 	mov    %rax,-0x4d8(%rbp)
   166f8:	48 8d 85 b7 e5 ff ff 	lea    -0x1a49(%rbp),%rax
   166ff:	48 89 85 30 fb ff ff 	mov    %rax,-0x4d0(%rbp)
   16706:	48 8d 05 c8 aa 00 00 	lea    0xaac8(%rip),%rax        # 211d5 <g_481+0x15>
   1670d:	48 89 85 38 fb ff ff 	mov    %rax,-0x4c8(%rbp)
   16714:	48 8d 05 81 aa 00 00 	lea    0xaa81(%rip),%rax        # 2119c <g_342+0x4>
   1671b:	48 89 85 40 fb ff ff 	mov    %rax,-0x4c0(%rbp)
   16722:	48 c7 85 48 fb ff ff 	movq   $0x0,-0x4b8(%rbp)
   16729:	00 00 00 00 
   1672d:	48 8d 05 7c aa 00 00 	lea    0xaa7c(%rip),%rax        # 211b0 <g_407>
   16734:	48 89 85 50 fb ff ff 	mov    %rax,-0x4b0(%rbp)
   1673b:	48 8d 05 26 df 00 00 	lea    0xdf26(%rip),%rax        # 24668 <g_356>
   16742:	48 89 85 58 fb ff ff 	mov    %rax,-0x4a8(%rbp)
   16749:	48 8d 05 4e aa 00 00 	lea    0xaa4e(%rip),%rax        # 2119e <g_342+0x6>
   16750:	48 89 85 60 fb ff ff 	mov    %rax,-0x4a0(%rbp)
   16757:	48 8d 05 0a df 00 00 	lea    0xdf0a(%rip),%rax        # 24668 <g_356>
   1675e:	48 89 85 68 fb ff ff 	mov    %rax,-0x498(%rbp)
   16765:	48 8d 05 73 aa 00 00 	lea    0xaa73(%rip),%rax        # 211df <g_481+0x1f>
   1676c:	48 89 85 70 fb ff ff 	mov    %rax,-0x490(%rbp)
   16773:	48 c7 85 78 fb ff ff 	movq   $0x0,-0x488(%rbp)
   1677a:	00 00 00 00 
   1677e:	48 8d 05 af a8 00 00 	lea    0xa8af(%rip),%rax        # 21034 <g_25>
   16785:	48 89 85 80 fb ff ff 	mov    %rax,-0x480(%rbp)
   1678c:	48 8d 85 b7 e5 ff ff 	lea    -0x1a49(%rbp),%rax
   16793:	48 89 85 88 fb ff ff 	mov    %rax,-0x478(%rbp)
   1679a:	48 8d 05 fb a9 00 00 	lea    0xa9fb(%rip),%rax        # 2119c <g_342+0x4>
   167a1:	48 89 85 90 fb ff ff 	mov    %rax,-0x470(%rbp)
   167a8:	48 8d 05 b9 de 00 00 	lea    0xdeb9(%rip),%rax        # 24668 <g_356>
   167af:	48 89 85 98 fb ff ff 	mov    %rax,-0x468(%rbp)
   167b6:	48 8d 05 e1 a9 00 00 	lea    0xa9e1(%rip),%rax        # 2119e <g_342+0x6>
   167bd:	48 89 85 a0 fb ff ff 	mov    %rax,-0x460(%rbp)
   167c4:	48 8d 05 0e aa 00 00 	lea    0xaa0e(%rip),%rax        # 211d9 <g_481+0x19>
   167cb:	48 89 85 a8 fb ff ff 	mov    %rax,-0x458(%rbp)
   167d2:	48 c7 85 b0 fb ff ff 	movq   $0x0,-0x450(%rbp)
   167d9:	00 00 00 00 
   167dd:	48 8d 05 84 de 00 00 	lea    0xde84(%rip),%rax        # 24668 <g_356>
   167e4:	48 89 85 b8 fb ff ff 	mov    %rax,-0x448(%rbp)
   167eb:	48 8d 05 e7 a9 00 00 	lea    0xa9e7(%rip),%rax        # 211d9 <g_481+0x19>
   167f2:	48 89 85 c0 fb ff ff 	mov    %rax,-0x440(%rbp)
   167f9:	48 8d 05 9d a9 00 00 	lea    0xa99d(%rip),%rax        # 2119d <g_342+0x5>
   16800:	48 89 85 c8 fb ff ff 	mov    %rax,-0x438(%rbp)
   16807:	48 8d 05 5a de 00 00 	lea    0xde5a(%rip),%rax        # 24668 <g_356>
   1680e:	48 89 85 d0 fb ff ff 	mov    %rax,-0x430(%rbp)
   16815:	48 8d 05 82 a9 00 00 	lea    0xa982(%rip),%rax        # 2119e <g_342+0x6>
   1681c:	48 89 85 d8 fb ff ff 	mov    %rax,-0x428(%rbp)
   16823:	48 8d 05 71 a9 00 00 	lea    0xa971(%rip),%rax        # 2119b <g_342+0x3>
   1682a:	48 89 85 e0 fb ff ff 	mov    %rax,-0x420(%rbp)
   16831:	48 8d 05 52 a9 00 00 	lea    0xa952(%rip),%rax        # 2118a <g_190>
   16838:	48 89 85 e8 fb ff ff 	mov    %rax,-0x418(%rbp)
   1683f:	48 8d 05 44 a9 00 00 	lea    0xa944(%rip),%rax        # 2118a <g_190>
   16846:	48 89 85 f0 fb ff ff 	mov    %rax,-0x410(%rbp)
   1684d:	48 8d 05 48 a9 00 00 	lea    0xa948(%rip),%rax        # 2119c <g_342+0x4>
   16854:	48 89 85 f8 fb ff ff 	mov    %rax,-0x408(%rbp)
   1685b:	48 8d 05 3b a9 00 00 	lea    0xa93b(%rip),%rax        # 2119d <g_342+0x5>
   16862:	48 89 85 00 fc ff ff 	mov    %rax,-0x400(%rbp)
   16869:	48 8d 05 f8 dd 00 00 	lea    0xddf8(%rip),%rax        # 24668 <g_356>
   16870:	48 89 85 08 fc ff ff 	mov    %rax,-0x3f8(%rbp)
   16877:	48 8d 05 ea dd 00 00 	lea    0xddea(%rip),%rax        # 24668 <g_356>
   1687e:	48 89 85 10 fc ff ff 	mov    %rax,-0x3f0(%rbp)
   16885:	48 8d 05 10 a9 00 00 	lea    0xa910(%rip),%rax        # 2119c <g_342+0x4>
   1688c:	48 89 85 18 fc ff ff 	mov    %rax,-0x3e8(%rbp)
   16893:	48 8d 05 45 a9 00 00 	lea    0xa945(%rip),%rax        # 211df <g_481+0x1f>
   1689a:	48 89 85 20 fc ff ff 	mov    %rax,-0x3e0(%rbp)
   168a1:	48 8d 05 f5 a8 00 00 	lea    0xa8f5(%rip),%rax        # 2119d <g_342+0x5>
   168a8:	48 89 85 28 fc ff ff 	mov    %rax,-0x3d8(%rbp)
   168af:	48 8d 05 29 a9 00 00 	lea    0xa929(%rip),%rax        # 211df <g_481+0x1f>
   168b6:	48 89 85 30 fc ff ff 	mov    %rax,-0x3d0(%rbp)
   168bd:	48 8d 05 d8 a8 00 00 	lea    0xa8d8(%rip),%rax        # 2119c <g_342+0x4>
   168c4:	48 89 85 38 fc ff ff 	mov    %rax,-0x3c8(%rbp)
   168cb:	48 c7 85 40 fc ff ff 	movq   $0x0,-0x3c0(%rbp)
   168d2:	00 00 00 00 
   168d6:	48 c7 85 48 fc ff ff 	movq   $0x0,-0x3b8(%rbp)
   168dd:	00 00 00 00 
   168e1:	48 8d 05 c8 a8 00 00 	lea    0xa8c8(%rip),%rax        # 211b0 <g_407>
   168e8:	48 89 85 50 fc ff ff 	mov    %rax,-0x3b0(%rbp)
   168ef:	48 8d 05 e8 a8 00 00 	lea    0xa8e8(%rip),%rax        # 211de <g_481+0x1e>
   168f6:	48 89 85 58 fc ff ff 	mov    %rax,-0x3a8(%rbp)
   168fd:	48 c7 85 60 fc ff ff 	movq   $0x0,-0x3a0(%rbp)
   16904:	00 00 00 00 
   16908:	48 8d 05 d0 a8 00 00 	lea    0xa8d0(%rip),%rax        # 211df <g_481+0x1f>
   1690f:	48 89 85 68 fc ff ff 	mov    %rax,-0x398(%rbp)
   16916:	48 8d 05 4b dd 00 00 	lea    0xdd4b(%rip),%rax        # 24668 <g_356>
   1691d:	48 89 85 70 fc ff ff 	mov    %rax,-0x390(%rbp)
   16924:	48 8d 05 09 a7 00 00 	lea    0xa709(%rip),%rax        # 21034 <g_25>
   1692b:	48 89 85 78 fc ff ff 	mov    %rax,-0x388(%rbp)
   16932:	48 8d 05 63 a8 00 00 	lea    0xa863(%rip),%rax        # 2119c <g_342+0x4>
   16939:	48 89 85 80 fc ff ff 	mov    %rax,-0x380(%rbp)
   16940:	48 8d 05 8b a8 00 00 	lea    0xa88b(%rip),%rax        # 211d2 <g_481+0x12>
   16947:	48 89 85 88 fc ff ff 	mov    %rax,-0x378(%rbp)
   1694e:	48 8d 05 13 dd 00 00 	lea    0xdd13(%rip),%rax        # 24668 <g_356>
   16955:	48 89 85 90 fc ff ff 	mov    %rax,-0x370(%rbp)
   1695c:	48 8d 05 4d a8 00 00 	lea    0xa84d(%rip),%rax        # 211b0 <g_407>
   16963:	48 89 85 98 fc ff ff 	mov    %rax,-0x368(%rbp)
   1696a:	48 8d 05 2d a8 00 00 	lea    0xa82d(%rip),%rax        # 2119e <g_342+0x6>
   16971:	48 89 85 a0 fc ff ff 	mov    %rax,-0x360(%rbp)
   16978:	48 8d 05 e9 dc 00 00 	lea    0xdce9(%rip),%rax        # 24668 <g_356>
   1697f:	48 89 85 a8 fc ff ff 	mov    %rax,-0x358(%rbp)
   16986:	48 8d 05 db dc 00 00 	lea    0xdcdb(%rip),%rax        # 24668 <g_356>
   1698d:	48 89 85 b0 fc ff ff 	mov    %rax,-0x350(%rbp)
   16994:	48 8d 05 03 a8 00 00 	lea    0xa803(%rip),%rax        # 2119e <g_342+0x6>
   1699b:	48 89 85 b8 fc ff ff 	mov    %rax,-0x348(%rbp)
   169a2:	48 8d 05 36 a8 00 00 	lea    0xa836(%rip),%rax        # 211df <g_481+0x1f>
   169a9:	48 89 85 c0 fc ff ff 	mov    %rax,-0x340(%rbp)
   169b0:	48 c7 85 c8 fc ff ff 	movq   $0x0,-0x338(%rbp)
   169b7:	00 00 00 00 
   169bb:	48 c7 85 d0 fc ff ff 	movq   $0x0,-0x330(%rbp)
   169c2:	00 00 00 00 
   169c6:	48 8d 05 9b dc 00 00 	lea    0xdc9b(%rip),%rax        # 24668 <g_356>
   169cd:	48 89 85 d8 fc ff ff 	mov    %rax,-0x328(%rbp)
   169d4:	48 8d 05 c3 a7 00 00 	lea    0xa7c3(%rip),%rax        # 2119e <g_342+0x6>
   169db:	48 89 85 e0 fc ff ff 	mov    %rax,-0x320(%rbp)
   169e2:	48 c7 85 e8 fc ff ff 	movq   $0x0,-0x318(%rbp)
   169e9:	00 00 00 00 
   169ed:	48 8d 05 96 a7 00 00 	lea    0xa796(%rip),%rax        # 2118a <g_190>
   169f4:	48 89 85 f0 fc ff ff 	mov    %rax,-0x310(%rbp)
   169fb:	48 8d 05 32 a6 00 00 	lea    0xa632(%rip),%rax        # 21034 <g_25>
   16a02:	48 89 85 f8 fc ff ff 	mov    %rax,-0x308(%rbp)
   16a09:	48 8d 05 7a a7 00 00 	lea    0xa77a(%rip),%rax        # 2118a <g_190>
   16a10:	48 89 85 00 fd ff ff 	mov    %rax,-0x300(%rbp)
   16a17:	48 8d 05 7f a7 00 00 	lea    0xa77f(%rip),%rax        # 2119d <g_342+0x5>
   16a1e:	48 89 85 08 fd ff ff 	mov    %rax,-0x2f8(%rbp)
   16a25:	48 8d 05 84 a7 00 00 	lea    0xa784(%rip),%rax        # 211b0 <g_407>
   16a2c:	48 89 85 10 fd ff ff 	mov    %rax,-0x2f0(%rbp)
   16a33:	48 8d 05 50 a7 00 00 	lea    0xa750(%rip),%rax        # 2118a <g_190>
   16a3a:	48 89 85 18 fd ff ff 	mov    %rax,-0x2e8(%rbp)
   16a41:	48 8d 05 42 a7 00 00 	lea    0xa742(%rip),%rax        # 2118a <g_190>
   16a48:	48 89 85 20 fd ff ff 	mov    %rax,-0x2e0(%rbp)
   16a4f:	48 8d 05 46 a7 00 00 	lea    0xa746(%rip),%rax        # 2119c <g_342+0x4>
   16a56:	48 89 85 28 fd ff ff 	mov    %rax,-0x2d8(%rbp)
   16a5d:	48 8d 05 71 a7 00 00 	lea    0xa771(%rip),%rax        # 211d5 <g_481+0x15>
   16a64:	48 89 85 30 fd ff ff 	mov    %rax,-0x2d0(%rbp)
   16a6b:	48 8d 05 18 a7 00 00 	lea    0xa718(%rip),%rax        # 2118a <g_190>
   16a72:	48 89 85 38 fd ff ff 	mov    %rax,-0x2c8(%rbp)
   16a79:	48 8d 05 0a a7 00 00 	lea    0xa70a(%rip),%rax        # 2118a <g_190>
   16a80:	48 89 85 40 fd ff ff 	mov    %rax,-0x2c0(%rbp)
   16a87:	48 8d 05 51 a7 00 00 	lea    0xa751(%rip),%rax        # 211df <g_481+0x1f>
   16a8e:	48 89 85 48 fd ff ff 	mov    %rax,-0x2b8(%rbp)
   16a95:	48 c7 85 50 fd ff ff 	movq   $0x0,-0x2b0(%rbp)
   16a9c:	00 00 00 00 
   16aa0:	48 8d 05 f7 a6 00 00 	lea    0xa6f7(%rip),%rax        # 2119e <g_342+0x6>
   16aa7:	48 89 85 58 fd ff ff 	mov    %rax,-0x2a8(%rbp)
   16aae:	48 8d 05 7f a5 00 00 	lea    0xa57f(%rip),%rax        # 21034 <g_25>
   16ab5:	48 89 85 60 fd ff ff 	mov    %rax,-0x2a0(%rbp)
   16abc:	48 8d 05 12 a7 00 00 	lea    0xa712(%rip),%rax        # 211d5 <g_481+0x15>
   16ac3:	48 89 85 68 fd ff ff 	mov    %rax,-0x298(%rbp)
   16aca:	48 8d 05 ca a6 00 00 	lea    0xa6ca(%rip),%rax        # 2119b <g_342+0x3>
   16ad1:	48 89 85 70 fd ff ff 	mov    %rax,-0x290(%rbp)
   16ad8:	48 8d 05 89 db 00 00 	lea    0xdb89(%rip),%rax        # 24668 <g_356>
   16adf:	48 89 85 78 fd ff ff 	mov    %rax,-0x288(%rbp)
   16ae6:	48 8d 85 b7 e5 ff ff 	lea    -0x1a49(%rbp),%rax
   16aed:	48 89 85 80 fd ff ff 	mov    %rax,-0x280(%rbp)
   16af4:	48 8d 85 b7 e5 ff ff 	lea    -0x1a49(%rbp),%rax
   16afb:	48 89 85 88 fd ff ff 	mov    %rax,-0x278(%rbp)
   16b02:	48 8d 05 2b a5 00 00 	lea    0xa52b(%rip),%rax        # 21034 <g_25>
   16b09:	48 89 85 90 fd ff ff 	mov    %rax,-0x270(%rbp)
   16b10:	48 c7 85 98 fd ff ff 	movq   $0x0,-0x268(%rbp)
   16b17:	00 00 00 00 
   16b1b:	48 8d 05 12 a5 00 00 	lea    0xa512(%rip),%rax        # 21034 <g_25>
   16b22:	48 89 85 a0 fd ff ff 	mov    %rax,-0x260(%rbp)
   16b29:	48 c7 85 a8 fd ff ff 	movq   $0x0,-0x258(%rbp)
   16b30:	00 00 00 00 
   16b34:	48 8d 05 f9 a4 00 00 	lea    0xa4f9(%rip),%rax        # 21034 <g_25>
   16b3b:	48 89 85 b0 fd ff ff 	mov    %rax,-0x250(%rbp)
   16b42:	48 8d 05 96 a6 00 00 	lea    0xa696(%rip),%rax        # 211df <g_481+0x1f>
   16b49:	48 89 85 b8 fd ff ff 	mov    %rax,-0x248(%rbp)
   16b50:	48 8d 05 11 db 00 00 	lea    0xdb11(%rip),%rax        # 24668 <g_356>
   16b57:	48 89 85 c0 fd ff ff 	mov    %rax,-0x240(%rbp)
   16b5e:	48 c7 85 c8 fd ff ff 	movq   $0x0,-0x238(%rbp)
   16b65:	00 00 00 00 
   16b69:	48 8d 05 2e a6 00 00 	lea    0xa62e(%rip),%rax        # 2119e <g_342+0x6>
   16b70:	48 89 85 d0 fd ff ff 	mov    %rax,-0x230(%rbp)
   16b77:	48 8d 05 61 a6 00 00 	lea    0xa661(%rip),%rax        # 211df <g_481+0x1f>
   16b7e:	48 89 85 d8 fd ff ff 	mov    %rax,-0x228(%rbp)
   16b85:	48 8d 05 dc da 00 00 	lea    0xdadc(%rip),%rax        # 24668 <g_356>
   16b8c:	48 89 85 e0 fd ff ff 	mov    %rax,-0x220(%rbp)
   16b93:	48 c7 85 e8 fd ff ff 	movq   $0x0,-0x218(%rbp)
   16b9a:	00 00 00 00 
   16b9e:	48 8d 05 8f a4 00 00 	lea    0xa48f(%rip),%rax        # 21034 <g_25>
   16ba5:	48 89 85 f0 fd ff ff 	mov    %rax,-0x210(%rbp)
   16bac:	48 8d 05 ea a5 00 00 	lea    0xa5ea(%rip),%rax        # 2119d <g_342+0x5>
   16bb3:	48 89 85 f8 fd ff ff 	mov    %rax,-0x208(%rbp)
   16bba:	48 8d 05 14 a6 00 00 	lea    0xa614(%rip),%rax        # 211d5 <g_481+0x15>
   16bc1:	48 89 85 00 fe ff ff 	mov    %rax,-0x200(%rbp)
   16bc8:	48 8d 05 ce a5 00 00 	lea    0xa5ce(%rip),%rax        # 2119d <g_342+0x5>
   16bcf:	48 89 85 08 fe ff ff 	mov    %rax,-0x1f8(%rbp)
   16bd6:	48 8d 05 f5 a5 00 00 	lea    0xa5f5(%rip),%rax        # 211d2 <g_481+0x12>
   16bdd:	48 89 85 10 fe ff ff 	mov    %rax,-0x1f0(%rbp)
   16be4:	48 8d 05 b0 a5 00 00 	lea    0xa5b0(%rip),%rax        # 2119b <g_342+0x3>
   16beb:	48 89 85 18 fe ff ff 	mov    %rax,-0x1e8(%rbp)
   16bf2:	48 8d 05 a4 a5 00 00 	lea    0xa5a4(%rip),%rax        # 2119d <g_342+0x5>
   16bf9:	48 89 85 20 fe ff ff 	mov    %rax,-0x1e0(%rbp)
   16c00:	48 c7 85 28 fe ff ff 	movq   $0x0,-0x1d8(%rbp)
   16c07:	00 00 00 00 
   16c0b:	48 8d 05 8c a5 00 00 	lea    0xa58c(%rip),%rax        # 2119e <g_342+0x6>
   16c12:	48 89 85 30 fe ff ff 	mov    %rax,-0x1d0(%rbp)
   16c19:	48 c7 85 38 fe ff ff 	movq   $0x0,-0x1c8(%rbp)
   16c20:	00 00 00 00 
   16c24:	48 8d 05 3d da 00 00 	lea    0xda3d(%rip),%rax        # 24668 <g_356>
   16c2b:	48 89 85 40 fe ff ff 	mov    %rax,-0x1c0(%rbp)
   16c32:	48 8d 05 77 a5 00 00 	lea    0xa577(%rip),%rax        # 211b0 <g_407>
   16c39:	48 89 85 48 fe ff ff 	mov    %rax,-0x1b8(%rbp)
   16c40:	48 8d 05 21 da 00 00 	lea    0xda21(%rip),%rax        # 24668 <g_356>
   16c47:	48 89 85 50 fe ff ff 	mov    %rax,-0x1b0(%rbp)
   16c4e:	48 8d 05 5b a5 00 00 	lea    0xa55b(%rip),%rax        # 211b0 <g_407>
   16c55:	48 89 85 58 fe ff ff 	mov    %rax,-0x1a8(%rbp)
   16c5c:	48 8d 05 27 a5 00 00 	lea    0xa527(%rip),%rax        # 2118a <g_190>
   16c63:	48 89 85 60 fe ff ff 	mov    %rax,-0x1a0(%rbp)
   16c6a:	48 8d 05 6e a5 00 00 	lea    0xa56e(%rip),%rax        # 211df <g_481+0x1f>
   16c71:	48 89 85 68 fe ff ff 	mov    %rax,-0x198(%rbp)
   16c78:	48 8d 05 1d a5 00 00 	lea    0xa51d(%rip),%rax        # 2119c <g_342+0x4>
   16c7f:	48 89 85 70 fe ff ff 	mov    %rax,-0x190(%rbp)
   16c86:	48 8d 05 23 a5 00 00 	lea    0xa523(%rip),%rax        # 211b0 <g_407>
   16c8d:	48 89 85 78 fe ff ff 	mov    %rax,-0x188(%rbp)
   16c94:	48 8d 05 3e a5 00 00 	lea    0xa53e(%rip),%rax        # 211d9 <g_481+0x19>
   16c9b:	48 89 85 80 fe ff ff 	mov    %rax,-0x180(%rbp)
   16ca2:	48 8d 05 f5 a4 00 00 	lea    0xa4f5(%rip),%rax        # 2119e <g_342+0x6>
   16ca9:	48 89 85 88 fe ff ff 	mov    %rax,-0x178(%rbp)
   16cb0:	48 c7 85 90 fe ff ff 	movq   $0x0,-0x170(%rbp)
   16cb7:	00 00 00 00 
   16cbb:	48 8d 05 a6 d9 00 00 	lea    0xd9a6(%rip),%rax        # 24668 <g_356>
   16cc2:	48 89 85 98 fe ff ff 	mov    %rax,-0x168(%rbp)
   16cc9:	48 8d 05 cc a4 00 00 	lea    0xa4cc(%rip),%rax        # 2119c <g_342+0x4>
   16cd0:	48 89 85 a0 fe ff ff 	mov    %rax,-0x160(%rbp)
   16cd7:	48 8d 05 8a d9 00 00 	lea    0xd98a(%rip),%rax        # 24668 <g_356>
   16cde:	48 89 85 a8 fe ff ff 	mov    %rax,-0x158(%rbp)
   16ce5:	48 8d 05 f3 a4 00 00 	lea    0xa4f3(%rip),%rax        # 211df <g_481+0x1f>
   16cec:	48 89 85 b0 fe ff ff 	mov    %rax,-0x150(%rbp)
   16cf3:	48 c7 85 b8 fe ff ff 	movq   $0x0,-0x148(%rbp)
   16cfa:	00 00 00 00 
   16cfe:	48 c7 85 c0 fe ff ff 	movq   $0x0,-0x140(%rbp)
   16d05:	00 00 00 00 
   16d09:	48 c7 85 c8 fe ff ff 	movq   $0x0,-0x138(%rbp)
   16d10:	00 00 00 00 
   16d14:	48 8d 05 4d d9 00 00 	lea    0xd94d(%rip),%rax        # 24668 <g_356>
   16d1b:	48 89 85 d0 fe ff ff 	mov    %rax,-0x130(%rbp)
   16d22:	48 8d 05 b0 a4 00 00 	lea    0xa4b0(%rip),%rax        # 211d9 <g_481+0x19>
   16d29:	48 89 85 d8 fe ff ff 	mov    %rax,-0x128(%rbp)
   16d30:	48 8d 05 64 a4 00 00 	lea    0xa464(%rip),%rax        # 2119b <g_342+0x3>
   16d37:	48 89 85 e0 fe ff ff 	mov    %rax,-0x120(%rbp)
   16d3e:	48 8d 85 b7 e5 ff ff 	lea    -0x1a49(%rbp),%rax
   16d45:	48 89 85 e8 fe ff ff 	mov    %rax,-0x118(%rbp)
   16d4c:	48 8d 05 37 a4 00 00 	lea    0xa437(%rip),%rax        # 2118a <g_190>
   16d53:	48 89 85 f0 fe ff ff 	mov    %rax,-0x110(%rbp)
   16d5a:	48 8d 05 07 d9 00 00 	lea    0xd907(%rip),%rax        # 24668 <g_356>
   16d61:	48 89 85 f8 fe ff ff 	mov    %rax,-0x108(%rbp)
   16d68:	48 8d 05 f9 d8 00 00 	lea    0xd8f9(%rip),%rax        # 24668 <g_356>
   16d6f:	48 89 85 00 ff ff ff 	mov    %rax,-0x100(%rbp)
   16d76:	48 8d 05 0d a4 00 00 	lea    0xa40d(%rip),%rax        # 2118a <g_190>
   16d7d:	48 89 85 08 ff ff ff 	mov    %rax,-0xf8(%rbp)
   16d84:	48 8d 85 b7 e5 ff ff 	lea    -0x1a49(%rbp),%rax
   16d8b:	48 89 85 10 ff ff ff 	mov    %rax,-0xf0(%rbp)
   16d92:	48 8d 05 46 a4 00 00 	lea    0xa446(%rip),%rax        # 211df <g_481+0x1f>
   16d99:	48 89 85 18 ff ff ff 	mov    %rax,-0xe8(%rbp)
   16da0:	48 8d 05 38 a4 00 00 	lea    0xa438(%rip),%rax        # 211df <g_481+0x1f>
   16da7:	48 89 85 20 ff ff ff 	mov    %rax,-0xe0(%rbp)
   16dae:	48 8d 85 b7 e5 ff ff 	lea    -0x1a49(%rbp),%rax
   16db5:	48 89 85 28 ff ff ff 	mov    %rax,-0xd8(%rbp)
   16dbc:	48 8d 05 c7 a3 00 00 	lea    0xa3c7(%rip),%rax        # 2118a <g_190>
   16dc3:	48 89 85 30 ff ff ff 	mov    %rax,-0xd0(%rbp)
   16dca:	48 8d 05 cd a3 00 00 	lea    0xa3cd(%rip),%rax        # 2119e <g_342+0x6>
   16dd1:	48 89 85 38 ff ff ff 	mov    %rax,-0xc8(%rbp)
   16dd8:	48 c7 85 40 ff ff ff 	movq   $0x0,-0xc0(%rbp)
   16ddf:	00 00 00 00 
   16de3:	48 8d 05 c6 a3 00 00 	lea    0xa3c6(%rip),%rax        # 211b0 <g_407>
   16dea:	48 89 85 48 ff ff ff 	mov    %rax,-0xb8(%rbp)
   16df1:	48 8d 05 b8 a3 00 00 	lea    0xa3b8(%rip),%rax        # 211b0 <g_407>
   16df8:	48 89 85 50 ff ff ff 	mov    %rax,-0xb0(%rbp)
   16dff:	48 8d 05 2e a2 00 00 	lea    0xa22e(%rip),%rax        # 21034 <g_25>
   16e06:	48 89 85 58 ff ff ff 	mov    %rax,-0xa8(%rbp)
   16e0d:	48 8d 05 54 d8 00 00 	lea    0xd854(%rip),%rax        # 24668 <g_356>
   16e14:	48 89 85 60 ff ff ff 	mov    %rax,-0xa0(%rbp)
   16e1b:	48 8d 05 b2 a3 00 00 	lea    0xa3b2(%rip),%rax        # 211d4 <g_481+0x14>
   16e22:	48 89 85 68 ff ff ff 	mov    %rax,-0x98(%rbp)
   16e29:	48 8d 85 b7 e5 ff ff 	lea    -0x1a49(%rbp),%rax
   16e30:	48 89 85 70 ff ff ff 	mov    %rax,-0x90(%rbp)
   16e37:	48 8d 05 f6 a1 00 00 	lea    0xa1f6(%rip),%rax        # 21034 <g_25>
   16e3e:	48 89 85 78 ff ff ff 	mov    %rax,-0x88(%rbp)
   16e45:	48 8d 05 8d a3 00 00 	lea    0xa38d(%rip),%rax        # 211d9 <g_481+0x19>
   16e4c:	48 89 45 80          	mov    %rax,-0x80(%rbp)
   16e50:	48 8d 05 45 a3 00 00 	lea    0xa345(%rip),%rax        # 2119c <g_342+0x4>
   16e57:	48 89 45 88          	mov    %rax,-0x78(%rbp)
   16e5b:	48 c7 45 90 00 00 00 	movq   $0x0,-0x70(%rbp)
   16e62:	00 
   16e63:	48 c7 45 98 00 00 00 	movq   $0x0,-0x68(%rbp)
   16e6a:	00 
   16e6b:	48 8d 05 18 a3 00 00 	lea    0xa318(%rip),%rax        # 2118a <g_190>
   16e72:	48 89 45 a0          	mov    %rax,-0x60(%rbp)
   16e76:	48 8d 05 b7 a1 00 00 	lea    0xa1b7(%rip),%rax        # 21034 <g_25>
   16e7d:	48 89 45 a8          	mov    %rax,-0x58(%rbp)
   16e81:	48 8d 05 e0 d7 00 00 	lea    0xd7e0(%rip),%rax        # 24668 <g_356>
   16e88:	48 89 45 b0          	mov    %rax,-0x50(%rbp)
   16e8c:	48 8d 05 42 a3 00 00 	lea    0xa342(%rip),%rax        # 211d5 <g_481+0x15>
   16e93:	48 89 45 b8          	mov    %rax,-0x48(%rbp)
   16e97:	48 c7 85 e8 e6 ff ff 	movq   $0x1,-0x1918(%rbp)
   16e9e:	01 00 00 00 
   16ea2:	0f b6 85 ac e5 ff ff 	movzbl -0x1a54(%rbp),%eax
   16ea9:	84 c0                	test   %al,%al
   16eab:	0f 84 52 10 00 00    	je     17f03 <func_50+0x25c2>
   16eb1:	48 8d 85 40 e9 ff ff 	lea    -0x16c0(%rbp),%rax
   16eb8:	48 83 c0 10          	add    $0x10,%rax
   16ebc:	48 89 85 d0 ee ff ff 	mov    %rax,-0x1130(%rbp)
   16ec3:	48 c7 85 d8 ee ff ff 	movq   $0x0,-0x1128(%rbp)
   16eca:	00 00 00 00 
   16ece:	48 8d 85 90 ec ff ff 	lea    -0x1370(%rbp),%rax
   16ed5:	48 83 c0 3c          	add    $0x3c,%rax
   16ed9:	48 89 85 e0 ee ff ff 	mov    %rax,-0x1120(%rbp)
   16ee0:	48 c7 85 e8 ee ff ff 	movq   $0x0,-0x1118(%rbp)
   16ee7:	00 00 00 00 
   16eeb:	48 c7 85 f0 ee ff ff 	movq   $0x0,-0x1110(%rbp)
   16ef2:	00 00 00 00 
   16ef6:	48 8d 05 27 a1 00 00 	lea    0xa127(%rip),%rax        # 21024 <g_11>
   16efd:	48 89 85 f8 ee ff ff 	mov    %rax,-0x1108(%rbp)
   16f04:	48 8d 85 90 ec ff ff 	lea    -0x1370(%rbp),%rax
   16f0b:	48 83 c0 3c          	add    $0x3c,%rax
   16f0f:	48 89 85 00 ef ff ff 	mov    %rax,-0x1100(%rbp)
   16f16:	48 8d 85 90 ec ff ff 	lea    -0x1370(%rbp),%rax
   16f1d:	48 83 c0 3c          	add    $0x3c,%rax
   16f21:	48 89 85 08 ef ff ff 	mov    %rax,-0x10f8(%rbp)
   16f28:	48 8d 85 40 e9 ff ff 	lea    -0x16c0(%rbp),%rax
   16f2f:	48 83 c0 10          	add    $0x10,%rax
   16f33:	48 89 85 10 ef ff ff 	mov    %rax,-0x10f0(%rbp)
   16f3a:	48 8d 85 40 e9 ff ff 	lea    -0x16c0(%rbp),%rax
   16f41:	48 83 c0 10          	add    $0x10,%rax
   16f45:	48 89 85 18 ef ff ff 	mov    %rax,-0x10e8(%rbp)
   16f4c:	48 c7 85 20 ef ff ff 	movq   $0x0,-0x10e0(%rbp)
   16f53:	00 00 00 00 
   16f57:	48 8d 85 90 ec ff ff 	lea    -0x1370(%rbp),%rax
   16f5e:	48 83 c0 3c          	add    $0x3c,%rax
   16f62:	48 89 85 28 ef ff ff 	mov    %rax,-0x10d8(%rbp)
   16f69:	48 8d 85 e0 ea ff ff 	lea    -0x1520(%rbp),%rax
   16f70:	48 05 ac 00 00 00    	add    $0xac,%rax
   16f76:	48 89 85 30 ef ff ff 	mov    %rax,-0x10d0(%rbp)
   16f7d:	48 8d 05 a0 a0 00 00 	lea    0xa0a0(%rip),%rax        # 21024 <g_11>
   16f84:	48 89 85 38 ef ff ff 	mov    %rax,-0x10c8(%rbp)
   16f8b:	48 8d 85 e0 ea ff ff 	lea    -0x1520(%rbp),%rax
   16f92:	48 05 ac 00 00 00    	add    $0xac,%rax
   16f98:	48 89 85 40 ef ff ff 	mov    %rax,-0x10c0(%rbp)
   16f9f:	48 c7 85 48 ef ff ff 	movq   $0x0,-0x10b8(%rbp)
   16fa6:	00 00 00 00 
   16faa:	48 8d 85 e0 ea ff ff 	lea    -0x1520(%rbp),%rax
   16fb1:	48 05 ac 00 00 00    	add    $0xac,%rax
   16fb7:	48 89 85 50 ef ff ff 	mov    %rax,-0x10b0(%rbp)
   16fbe:	48 c7 85 58 ef ff ff 	movq   $0x0,-0x10a8(%rbp)
   16fc5:	00 00 00 00 
   16fc9:	48 c7 85 60 ef ff ff 	movq   $0x0,-0x10a0(%rbp)
   16fd0:	00 00 00 00 
   16fd4:	48 8d 85 e0 ea ff ff 	lea    -0x1520(%rbp),%rax
   16fdb:	48 05 ac 00 00 00    	add    $0xac,%rax
   16fe1:	48 89 85 68 ef ff ff 	mov    %rax,-0x1098(%rbp)
   16fe8:	48 8d 85 d0 ee ff ff 	lea    -0x1130(%rbp),%rax
   16fef:	48 83 c0 18          	add    $0x18,%rax
   16ff3:	48 89 85 f0 e6 ff ff 	mov    %rax,-0x1910(%rbp)
   16ffa:	48 c7 85 f8 e6 ff ff 	movq   $0x0,-0x1908(%rbp)
   17001:	00 00 00 00 
   17005:	48 8b 85 f0 e6 ff ff 	mov    -0x1910(%rbp),%rax
   1700c:	48 8d 15 11 a0 00 00 	lea    0xa011(%rip),%rdx        # 21024 <g_11>
   17013:	48 89 10             	mov    %rdx,(%rax)
   17016:	0f b7 05 2f a0 00 00 	movzwl 0xa02f(%rip),%eax        # 2104c <g_64>
   1701d:	98                   	cwtl   
   1701e:	89 05 2c a0 00 00    	mov    %eax,0xa02c(%rip)        # 21050 <g_79>
   17024:	b8 7b 00 00 00       	mov    $0x7b,%eax
   17029:	0f b6 d0             	movzbl %al,%edx
   1702c:	8b 05 f2 9f 00 00    	mov    0x9ff2(%rip),%eax        # 21024 <g_11>
   17032:	39 c2                	cmp    %eax,%edx
   17034:	0f 95 c0             	setne  %al
   17037:	0f b6 d8             	movzbl %al,%ebx
   1703a:	48 83 bd f8 e6 ff ff 	cmpq   $0x0,-0x1908(%rbp)
   17041:	00 
   17042:	0f 95 c0             	setne  %al
   17045:	0f b6 d0             	movzbl %al,%edx
   17048:	48 8d 05 f1 9f 00 00 	lea    0x9ff1(%rip),%rax        # 21040 <g_59>
   1704f:	48 39 85 b0 e6 ff ff 	cmp    %rax,-0x1950(%rbp)
   17056:	0f 95 c0             	setne  %al
   17059:	0f b6 c0             	movzbl %al,%eax
   1705c:	89 d6                	mov    %edx,%esi
   1705e:	89 c7                	mov    %eax,%edi
   17060:	e8 9a 0c ff ff       	callq  7cff <safe_add_func_uint16_t_u_u>
   17065:	0f b7 c0             	movzwl %ax,%eax
   17068:	31 c3                	xor    %eax,%ebx
   1706a:	89 da                	mov    %ebx,%edx
   1706c:	48 83 bd b0 e6 ff ff 	cmpq   $0x0,-0x1950(%rbp)
   17073:	00 
   17074:	0f 95 c0             	setne  %al
   17077:	0f b6 c0             	movzbl %al,%eax
   1707a:	39 c2                	cmp    %eax,%edx
   1707c:	0f 9e c0             	setle  %al
   1707f:	0f b6 c0             	movzbl %al,%eax
   17082:	89 85 50 e6 ff ff    	mov    %eax,-0x19b0(%rbp)
   17088:	8b 85 50 e6 ff ff    	mov    -0x19b0(%rbp),%eax
   1708e:	85 c0                	test   %eax,%eax
   17090:	0f 84 9b 03 00 00    	je     17431 <func_50+0x1af0>
   17096:	48 c7 85 40 e7 ff ff 	movq   $0x1,-0x18c0(%rbp)
   1709d:	01 00 00 00 
   170a1:	48 8d 05 ac 9f 00 00 	lea    0x9fac(%rip),%rax        # 21054 <g_100>
   170a8:	48 89 85 b0 e9 ff ff 	mov    %rax,-0x1650(%rbp)
   170af:	48 8d 05 9e 9f 00 00 	lea    0x9f9e(%rip),%rax        # 21054 <g_100>
   170b6:	48 89 85 b8 e9 ff ff 	mov    %rax,-0x1648(%rbp)
   170bd:	48 8d 05 90 9f 00 00 	lea    0x9f90(%rip),%rax        # 21054 <g_100>
   170c4:	48 89 85 c0 e9 ff ff 	mov    %rax,-0x1640(%rbp)
   170cb:	48 8d 05 82 9f 00 00 	lea    0x9f82(%rip),%rax        # 21054 <g_100>
   170d2:	48 89 85 c8 e9 ff ff 	mov    %rax,-0x1638(%rbp)
   170d9:	48 8d 05 74 9f 00 00 	lea    0x9f74(%rip),%rax        # 21054 <g_100>
   170e0:	48 89 85 d0 e9 ff ff 	mov    %rax,-0x1630(%rbp)
   170e7:	48 8d 05 66 9f 00 00 	lea    0x9f66(%rip),%rax        # 21054 <g_100>
   170ee:	48 89 85 d8 e9 ff ff 	mov    %rax,-0x1628(%rbp)
   170f5:	48 8d 05 58 9f 00 00 	lea    0x9f58(%rip),%rax        # 21054 <g_100>
   170fc:	48 89 85 e0 e9 ff ff 	mov    %rax,-0x1620(%rbp)
   17103:	48 8d 05 4a 9f 00 00 	lea    0x9f4a(%rip),%rax        # 21054 <g_100>
   1710a:	48 89 85 e8 e9 ff ff 	mov    %rax,-0x1618(%rbp)
   17111:	48 8d 05 3c 9f 00 00 	lea    0x9f3c(%rip),%rax        # 21054 <g_100>
   17118:	48 89 85 f0 e9 ff ff 	mov    %rax,-0x1610(%rbp)
   1711f:	48 8d 05 2e 9f 00 00 	lea    0x9f2e(%rip),%rax        # 21054 <g_100>
   17126:	48 89 85 f8 e9 ff ff 	mov    %rax,-0x1608(%rbp)
   1712d:	48 8d 05 20 9f 00 00 	lea    0x9f20(%rip),%rax        # 21054 <g_100>
   17134:	48 89 85 00 ea ff ff 	mov    %rax,-0x1600(%rbp)
   1713b:	48 8d 05 12 9f 00 00 	lea    0x9f12(%rip),%rax        # 21054 <g_100>
   17142:	48 89 85 08 ea ff ff 	mov    %rax,-0x15f8(%rbp)
   17149:	48 8d 05 04 9f 00 00 	lea    0x9f04(%rip),%rax        # 21054 <g_100>
   17150:	48 89 85 10 ea ff ff 	mov    %rax,-0x15f0(%rbp)
   17157:	48 8d 05 f6 9e 00 00 	lea    0x9ef6(%rip),%rax        # 21054 <g_100>
   1715e:	48 89 85 18 ea ff ff 	mov    %rax,-0x15e8(%rbp)
   17165:	48 8d 05 e8 9e 00 00 	lea    0x9ee8(%rip),%rax        # 21054 <g_100>
   1716c:	48 89 85 20 ea ff ff 	mov    %rax,-0x15e0(%rbp)
   17173:	48 8d 05 da 9e 00 00 	lea    0x9eda(%rip),%rax        # 21054 <g_100>
   1717a:	48 89 85 28 ea ff ff 	mov    %rax,-0x15d8(%rbp)
   17181:	48 8d 85 60 f0 ff ff 	lea    -0xfa0(%rbp),%rax
   17188:	48 8d 15 f1 59 00 00 	lea    0x59f1(%rip),%rdx        # 1cb80 <g_2878+0x1b20>
   1718f:	b9 8c 00 00 00       	mov    $0x8c,%ecx
   17194:	48 89 c7             	mov    %rax,%rdi
   17197:	48 89 d6             	mov    %rdx,%rsi
   1719a:	f3 48 a5             	rep movsq %ds:(%rsi),%es:(%rdi)
   1719d:	c7 85 d0 e5 ff ff 00 	movl   $0x0,-0x1a30(%rbp)
   171a4:	00 00 00 
   171a7:	eb 1b                	jmp    171c4 <func_50+0x1883>
   171a9:	8b 85 d0 e5 ff ff    	mov    -0x1a30(%rbp),%eax
   171af:	48 98                	cltq   
   171b1:	48 c7 84 c5 80 e9 ff 	movq   $0x0,-0x1680(%rbp,%rax,8)
   171b8:	ff 00 00 00 00 
   171bd:	83 85 d0 e5 ff ff 01 	addl   $0x1,-0x1a30(%rbp)
   171c4:	83 bd d0 e5 ff ff 04 	cmpl   $0x4,-0x1a30(%rbp)
   171cb:	7e dc                	jle    171a9 <func_50+0x1868>
   171cd:	0f b6 85 ac e5 ff ff 	movzbl -0x1a54(%rbp),%eax
   171d4:	0f b6 d8             	movzbl %al,%ebx
   171d7:	8b 95 bc ec ff ff    	mov    -0x1344(%rbp),%edx
   171dd:	8b 05 4d 9e 00 00    	mov    0x9e4d(%rip),%eax        # 21030 <g_14>
   171e3:	89 d6                	mov    %edx,%esi
   171e5:	89 c7                	mov    %eax,%edi
   171e7:	e8 ca 03 ff ff       	callq  75b6 <safe_add_func_int32_t_s_s>
   171ec:	85 c0                	test   %eax,%eax
   171ee:	0f 85 d4 00 00 00    	jne    172c8 <func_50+0x1987>
   171f4:	44 8b a5 4c eb ff ff 	mov    -0x14b4(%rbp),%r12d
   171fb:	48 8b 85 40 e7 ff ff 	mov    -0x18c0(%rbp),%rax
   17202:	89 85 b4 ec ff ff    	mov    %eax,-0x134c(%rbp)
   17208:	8b 85 b4 ec ff ff    	mov    -0x134c(%rbp),%eax
   1720e:	0f be c0             	movsbl %al,%eax
   17211:	be 01 00 00 00       	mov    $0x1,%esi
   17216:	89 c7                	mov    %eax,%edi
   17218:	e8 18 01 ff ff       	callq  7335 <safe_rshift_func_int8_t_s_s>
   1721d:	84 c0                	test   %al,%al
   1721f:	8b 95 a4 ed ff ff    	mov    -0x125c(%rbp),%edx
   17225:	0f b6 85 ac e5 ff ff 	movzbl -0x1a54(%rbp),%eax
   1722c:	0f b6 c0             	movzbl %al,%eax
   1722f:	31 d0                	xor    %edx,%eax
   17231:	48 63 d0             	movslq %eax,%rdx
   17234:	48 8b 05 05 9e 00 00 	mov    0x9e05(%rip),%rax        # 21040 <g_59>
   1723b:	48 21 d0             	and    %rdx,%rax
   1723e:	48 85 c0             	test   %rax,%rax
   17241:	74 07                	je     1724a <func_50+0x1909>
   17243:	b8 01 00 00 00       	mov    $0x1,%eax
   17248:	eb 05                	jmp    1724f <func_50+0x190e>
   1724a:	b8 00 00 00 00       	mov    $0x0,%eax
   1724f:	48 98                	cltq   
   17251:	48 89 05 00 9e 00 00 	mov    %rax,0x9e00(%rip)        # 21058 <g_102>
   17258:	48 8b 15 f9 9d 00 00 	mov    0x9df9(%rip),%rdx        # 21058 <g_102>
   1725f:	0f b6 85 ac e5 ff ff 	movzbl -0x1a54(%rbp),%eax
   17266:	0f b6 c0             	movzbl %al,%eax
   17269:	48 39 c2             	cmp    %rax,%rdx
   1726c:	0f 9c c0             	setl   %al
   1726f:	0f b6 c0             	movzbl %al,%eax
   17272:	48 39 85 40 e7 ff ff 	cmp    %rax,-0x18c0(%rbp)
   17279:	0f b6 85 ac e5 ff ff 	movzbl -0x1a54(%rbp),%eax
   17280:	0f b6 d0             	movzbl %al,%edx
   17283:	8b 05 a7 9d 00 00    	mov    0x9da7(%rip),%eax        # 21030 <g_14>
   17289:	39 c2                	cmp    %eax,%edx
   1728b:	74 11                	je     1729e <func_50+0x195d>
   1728d:	8b 05 bd 9d 00 00    	mov    0x9dbd(%rip),%eax        # 21050 <g_79>
   17293:	85 c0                	test   %eax,%eax
   17295:	74 07                	je     1729e <func_50+0x195d>
   17297:	b8 01 00 00 00       	mov    $0x1,%eax
   1729c:	eb 05                	jmp    172a3 <func_50+0x1962>
   1729e:	b8 00 00 00 00       	mov    $0x0,%eax
   172a3:	98                   	cwtl   
   172a4:	be 00 00 00 00       	mov    $0x0,%esi
   172a9:	89 c7                	mov    %eax,%edi
   172ab:	e8 7a 02 ff ff       	callq  752a <safe_rshift_func_int16_t_s_s>
   172b0:	0f bf d0             	movswl %ax,%edx
   172b3:	b8 7b 00 00 00       	mov    $0x7b,%eax
   172b8:	0f b6 c0             	movzbl %al,%eax
   172bb:	39 c2                	cmp    %eax,%edx
   172bd:	0f 9c c0             	setl   %al
   172c0:	0f b6 c0             	movzbl %al,%eax
   172c3:	41 39 c4             	cmp    %eax,%r12d
   172c6:	7e 07                	jle    172cf <func_50+0x198e>
   172c8:	ba 01 00 00 00       	mov    $0x1,%edx
   172cd:	eb 05                	jmp    172d4 <func_50+0x1993>
   172cf:	ba 00 00 00 00       	mov    $0x0,%edx
   172d4:	0f b6 05 59 9d 00 00 	movzbl 0x9d59(%rip),%eax        # 21034 <g_25>
   172db:	0f b6 c0             	movzbl %al,%eax
   172de:	89 d6                	mov    %edx,%esi
   172e0:	89 c7                	mov    %eax,%edi
   172e2:	e8 ab 01 ff ff       	callq  7492 <safe_lshift_func_int16_t_s_s>
   172e7:	be 07 00 00 00       	mov    $0x7,%esi
   172ec:	bf dc ff ff ff       	mov    $0xffffffdc,%edi
   172f1:	e8 76 00 ff ff       	callq  736c <safe_rshift_func_int8_t_s_u>
   172f6:	c0 e8 07             	shr    $0x7,%al
   172f9:	0f b6 d0             	movzbl %al,%edx
   172fc:	48 8b 85 f0 f0 ff ff 	mov    -0xf10(%rbp),%rax
   17303:	48 39 c2             	cmp    %rax,%rdx
   17306:	0f 93 c0             	setae  %al
   17309:	0f b6 c0             	movzbl %al,%eax
   1730c:	39 c3                	cmp    %eax,%ebx
   1730e:	74 72                	je     17382 <func_50+0x1a41>
   17310:	90                   	nop
   17311:	c6 05 3c 9d 00 00 ee 	movb   $0xee,0x9d3c(%rip)        # 21054 <g_100>
   17318:	eb 58                	jmp    17372 <func_50+0x1a31>
   1731a:	c6 85 b9 e5 ff ff 8b 	movb   $0x8b,-0x1a47(%rbp)
   17321:	c7 85 18 e6 ff ff 75 	movl   $0xf31d3075,-0x19e8(%rbp)
   17328:	30 1d f3 
   1732b:	c7 85 1c e6 ff ff b8 	movl   $0x8aa747b8,-0x19e4(%rbp)
   17332:	47 a7 8a 
   17335:	48 8b 05 04 9d 00 00 	mov    0x9d04(%rip),%rax        # 21040 <g_59>
   1733c:	89 05 0e 9d 00 00    	mov    %eax,0x9d0e(%rip)        # 21050 <g_79>
   17342:	48 8b 05 2f 9e 00 00 	mov    0x9e2f(%rip),%rax        # 21178 <g_112>
   17349:	48 83 c0 01          	add    $0x1,%rax
   1734d:	48 89 05 24 9e 00 00 	mov    %rax,0x9e24(%rip)        # 21178 <g_112>
   17354:	0f b6 05 f9 9c 00 00 	movzbl 0x9cf9(%rip),%eax        # 21054 <g_100>
   1735b:	66 98                	cbtw   
   1735d:	0f b7 c0             	movzwl %ax,%eax
   17360:	be 04 00 00 00       	mov    $0x4,%esi
   17365:	89 c7                	mov    %eax,%edi
   17367:	e8 93 09 ff ff       	callq  7cff <safe_add_func_uint16_t_u_u>
   1736c:	88 05 e2 9c 00 00    	mov    %al,0x9ce2(%rip)        # 21054 <g_100>
   17372:	0f b6 05 db 9c 00 00 	movzbl 0x9cdb(%rip),%eax        # 21054 <g_100>
   17379:	3c 02                	cmp    $0x2,%al
   1737b:	7f 9d                	jg     1731a <func_50+0x19d9>
   1737d:	e9 19 0c 00 00       	jmpq   17f9b <func_50+0x265a>
   17382:	48 8d 05 f7 9d 00 00 	lea    0x9df7(%rip),%rax        # 21180 <g_117>
   17389:	48 89 85 48 e7 ff ff 	mov    %rax,-0x18b8(%rbp)
   17390:	48 8b 85 48 e7 ff ff 	mov    -0x18b8(%rbp),%rax
   17397:	8b 00                	mov    (%rax),%eax
   17399:	8d 50 ff             	lea    -0x1(%rax),%edx
   1739c:	48 8b 85 48 e7 ff ff 	mov    -0x18b8(%rbp),%rax
   173a3:	89 10                	mov    %edx,(%rax)
   173a5:	48 8b 85 48 e7 ff ff 	mov    -0x18b8(%rbp),%rax
   173ac:	8b 00                	mov    (%rax),%eax
   173ae:	3d 17 27 6f 8a       	cmp    $0x8a6f2717,%eax
   173b3:	74 0f                	je     173c4 <func_50+0x1a83>
   173b5:	8b 05 75 9c 00 00    	mov    0x9c75(%rip),%eax        # 21030 <g_14>
   173bb:	85 c0                	test   %eax,%eax
   173bd:	74 16                	je     173d5 <func_50+0x1a94>
   173bf:	e9 4d ff ff ff       	jmpq   17311 <func_50+0x19d0>
   173c4:	48 8b 85 f0 e6 ff ff 	mov    -0x1910(%rbp),%rax
   173cb:	48 8b 95 48 e7 ff ff 	mov    -0x18b8(%rbp),%rdx
   173d2:	48 89 10             	mov    %rdx,(%rax)
   173d5:	48 8b 85 f0 e6 ff ff 	mov    -0x1910(%rbp),%rax
   173dc:	48 8d 15 6d 9c 00 00 	lea    0x9c6d(%rip),%rdx        # 21050 <g_79>
   173e3:	48 89 10             	mov    %rdx,(%rax)
   173e6:	48 c7 05 67 9c 00 00 	movq   $0x0,0x9c67(%rip)        # 21058 <g_102>
   173ed:	00 00 00 00 
   173f1:	eb 21                	jmp    17414 <func_50+0x1ad3>
   173f3:	8b 05 8b 9d 00 00    	mov    0x9d8b(%rip),%eax        # 21184 <g_122>
   173f9:	83 e8 01             	sub    $0x1,%eax
   173fc:	89 05 82 9d 00 00    	mov    %eax,0x9d82(%rip)        # 21184 <g_122>
   17402:	48 8b 05 4f 9c 00 00 	mov    0x9c4f(%rip),%rax        # 21058 <g_102>
   17409:	48 83 e8 01          	sub    $0x1,%rax
   1740d:	48 89 05 44 9c 00 00 	mov    %rax,0x9c44(%rip)        # 21058 <g_102>
   17414:	48 8b 05 3d 9c 00 00 	mov    0x9c3d(%rip),%rax        # 21058 <g_102>
   1741b:	48 85 c0             	test   %rax,%rax
   1741e:	79 d3                	jns    173f3 <func_50+0x1ab2>
   17420:	8b 05 2a 9c 00 00    	mov    0x9c2a(%rip),%eax        # 21050 <g_79>
   17426:	89 05 24 9c 00 00    	mov    %eax,0x9c24(%rip)        # 21050 <g_79>
   1742c:	e9 6a 0b 00 00       	jmpq   17f9b <func_50+0x265a>
   17431:	c7 85 80 e9 ff ff 8e 	movl   $0x61f38f8e,-0x1680(%rbp)
   17438:	8f f3 61 
   1743b:	c7 85 84 e9 ff ff 8e 	movl   $0x61f38f8e,-0x167c(%rbp)
   17442:	8f f3 61 
   17445:	c7 85 88 e9 ff ff 9e 	movl   $0x1349419e,-0x1678(%rbp)
   1744c:	41 49 13 
   1744f:	c7 85 8c e9 ff ff 8e 	movl   $0x61f38f8e,-0x1674(%rbp)
   17456:	8f f3 61 
   17459:	c7 85 90 e9 ff ff 8e 	movl   $0x61f38f8e,-0x1670(%rbp)
   17460:	8f f3 61 
   17463:	c7 85 94 e9 ff ff 9e 	movl   $0x1349419e,-0x166c(%rbp)
   1746a:	41 49 13 
   1746d:	c7 85 98 e9 ff ff 8e 	movl   $0x61f38f8e,-0x1668(%rbp)
   17474:	8f f3 61 
   17477:	c7 85 9c e9 ff ff 8e 	movl   $0x61f38f8e,-0x1664(%rbp)
   1747e:	8f f3 61 
   17481:	66 c7 85 be e5 ff ff 	movw   $0xad14,-0x1a42(%rbp)
   17488:	14 ad 
   1748a:	48 8d 05 c3 9b 00 00 	lea    0x9bc3(%rip),%rax        # 21054 <g_100>
   17491:	48 89 85 68 e6 ff ff 	mov    %rax,-0x1998(%rbp)
   17498:	48 8d 85 68 e6 ff ff 	lea    -0x1998(%rbp),%rax
   1749f:	48 89 85 00 e7 ff ff 	mov    %rax,-0x1900(%rbp)
   174a6:	48 c7 85 18 e9 ff ff 	movq   $0x0,-0x16e8(%rbp)
   174ad:	00 00 00 00 
   174b1:	c6 85 b8 e5 ff ff 01 	movb   $0x1,-0x1a48(%rbp)
   174b8:	c7 85 b0 e9 ff ff 99 	movl   $0x55e2d799,-0x1650(%rbp)
   174bf:	d7 e2 55 
   174c2:	c7 85 b4 e9 ff ff 99 	movl   $0x55e2d799,-0x164c(%rbp)
   174c9:	d7 e2 55 
   174cc:	c7 85 b8 e9 ff ff 99 	movl   $0x55e2d799,-0x1648(%rbp)
   174d3:	d7 e2 55 
   174d6:	c7 85 bc e9 ff ff 99 	movl   $0x55e2d799,-0x1644(%rbp)
   174dd:	d7 e2 55 
   174e0:	c7 85 c0 e9 ff ff 99 	movl   $0x55e2d799,-0x1640(%rbp)
   174e7:	d7 e2 55 
   174ea:	c7 85 c4 e9 ff ff 99 	movl   $0x55e2d799,-0x163c(%rbp)
   174f1:	d7 e2 55 
   174f4:	c7 85 c8 e9 ff ff 99 	movl   $0x55e2d799,-0x1638(%rbp)
   174fb:	d7 e2 55 
   174fe:	c7 85 cc e9 ff ff f0 	movl   $0x894a56f0,-0x1634(%rbp)
   17505:	56 4a 89 
   17508:	c7 85 d0 e9 ff ff ff 	movl   $0xffffffff,-0x1630(%rbp)
   1750f:	ff ff ff 
   17512:	c7 85 d4 e9 ff ff f0 	movl   $0x894a56f0,-0x162c(%rbp)
   17519:	56 4a 89 
   1751c:	c7 85 d8 e9 ff ff ff 	movl   $0xffffffff,-0x1628(%rbp)
   17523:	ff ff ff 
   17526:	c7 85 dc e9 ff ff f0 	movl   $0x894a56f0,-0x1624(%rbp)
   1752d:	56 4a 89 
   17530:	c7 85 e0 e9 ff ff ff 	movl   $0xffffffff,-0x1620(%rbp)
   17537:	ff ff ff 
   1753a:	c7 85 e4 e9 ff ff f0 	movl   $0x894a56f0,-0x161c(%rbp)
   17541:	56 4a 89 
   17544:	c7 85 e8 e9 ff ff 99 	movl   $0x55e2d799,-0x1618(%rbp)
   1754b:	d7 e2 55 
   1754e:	c7 85 ec e9 ff ff 99 	movl   $0x55e2d799,-0x1614(%rbp)
   17555:	d7 e2 55 
   17558:	c7 85 f0 e9 ff ff 99 	movl   $0x55e2d799,-0x1610(%rbp)
   1755f:	d7 e2 55 
   17562:	c7 85 f4 e9 ff ff 99 	movl   $0x55e2d799,-0x160c(%rbp)
   17569:	d7 e2 55 
   1756c:	c7 85 f8 e9 ff ff 99 	movl   $0x55e2d799,-0x1608(%rbp)
   17573:	d7 e2 55 
   17576:	c7 85 fc e9 ff ff 99 	movl   $0x55e2d799,-0x1604(%rbp)
   1757d:	d7 e2 55 
   17580:	c7 85 00 ea ff ff 99 	movl   $0x55e2d799,-0x1600(%rbp)
   17587:	d7 e2 55 
   1758a:	c7 85 04 ea ff ff f0 	movl   $0x894a56f0,-0x15fc(%rbp)
   17591:	56 4a 89 
   17594:	c7 85 08 ea ff ff ff 	movl   $0xffffffff,-0x15f8(%rbp)
   1759b:	ff ff ff 
   1759e:	c7 85 0c ea ff ff f0 	movl   $0x894a56f0,-0x15f4(%rbp)
   175a5:	56 4a 89 
   175a8:	c7 85 10 ea ff ff ff 	movl   $0xffffffff,-0x15f0(%rbp)
   175af:	ff ff ff 
   175b2:	c7 85 14 ea ff ff f0 	movl   $0x894a56f0,-0x15ec(%rbp)
   175b9:	56 4a 89 
   175bc:	c7 85 18 ea ff ff ff 	movl   $0xffffffff,-0x15e8(%rbp)
   175c3:	ff ff ff 
   175c6:	c7 85 1c ea ff ff f0 	movl   $0x894a56f0,-0x15e4(%rbp)
   175cd:	56 4a 89 
   175d0:	c7 85 20 ea ff ff 99 	movl   $0x55e2d799,-0x15e0(%rbp)
   175d7:	d7 e2 55 
   175da:	c7 85 24 ea ff ff 99 	movl   $0x55e2d799,-0x15dc(%rbp)
   175e1:	d7 e2 55 
   175e4:	c7 85 28 ea ff ff 99 	movl   $0x55e2d799,-0x15d8(%rbp)
   175eb:	d7 e2 55 
   175ee:	c7 85 2c ea ff ff 99 	movl   $0x55e2d799,-0x15d4(%rbp)
   175f5:	d7 e2 55 
   175f8:	c7 85 30 ea ff ff 99 	movl   $0x55e2d799,-0x15d0(%rbp)
   175ff:	d7 e2 55 
   17602:	c7 85 34 ea ff ff 99 	movl   $0x55e2d799,-0x15cc(%rbp)
   17609:	d7 e2 55 
   1760c:	c7 85 38 ea ff ff 99 	movl   $0x55e2d799,-0x15c8(%rbp)
   17613:	d7 e2 55 
   17616:	c7 85 d4 e5 ff ff 00 	movl   $0x0,-0x1a2c(%rbp)
   1761d:	00 00 00 
   17620:	eb 1e                	jmp    17640 <func_50+0x1cff>
   17622:	8b 85 d4 e5 ff ff    	mov    -0x1a2c(%rbp),%eax
   17628:	48 98                	cltq   
   1762a:	48 8d 15 03 9a 00 00 	lea    0x9a03(%rip),%rdx        # 21034 <g_25>
   17631:	48 89 94 c5 60 e9 ff 	mov    %rdx,-0x16a0(%rbp,%rax,8)
   17638:	ff 
   17639:	83 85 d4 e5 ff ff 01 	addl   $0x1,-0x1a2c(%rbp)
   17640:	83 bd d4 e5 ff ff 03 	cmpl   $0x3,-0x1a2c(%rbp)
   17647:	7e d9                	jle    17622 <func_50+0x1ce1>
   17649:	48 8b 85 90 e6 ff ff 	mov    -0x1970(%rbp),%rax
   17650:	0f b7 10             	movzwl (%rax),%edx
   17653:	0f b6 85 ac e5 ff ff 	movzbl -0x1a54(%rbp),%eax
   1765a:	0f b6 c0             	movzbl %al,%eax
   1765d:	09 c2                	or     %eax,%edx
   1765f:	48 8b 85 90 e6 ff ff 	mov    -0x1970(%rbp),%rax
   17666:	66 89 10             	mov    %dx,(%rax)
   17669:	48 8b 85 90 e6 ff ff 	mov    -0x1970(%rbp),%rax
   17670:	0f b7 00             	movzwl (%rax),%eax
   17673:	98                   	cwtl   
   17674:	be fe ff ff ff       	mov    $0xfffffffe,%esi
   17679:	89 c7                	mov    %eax,%edi
   1767b:	e8 53 fd fe ff       	callq  73d3 <safe_sub_func_int16_t_s_s>
   17680:	0f b6 85 ac e5 ff ff 	movzbl -0x1a54(%rbp),%eax
   17687:	0f b6 c0             	movzbl %al,%eax
   1768a:	48 ba c6 c3 1b 29 d6 	movabs $0x21fbbdd6291bc3c6,%rdx
   17691:	bd fb 21 
   17694:	48 21 d0             	and    %rdx,%rax
   17697:	48 85 c0             	test   %rax,%rax
   1769a:	75 08                	jne    176a4 <func_50+0x1d63>
   1769c:	8b 85 50 e6 ff ff    	mov    -0x19b0(%rbp),%eax
   176a2:	85 c0                	test   %eax,%eax
   176a4:	0f b6 85 ac e5 ff ff 	movzbl -0x1a54(%rbp),%eax
   176ab:	0f b6 c0             	movzbl %al,%eax
   176ae:	be 0b 00 00 00       	mov    $0xb,%esi
   176b3:	89 c7                	mov    %eax,%edi
   176b5:	e8 70 fe fe ff       	callq  752a <safe_rshift_func_int16_t_s_s>
   176ba:	0f bf d0             	movswl %ax,%edx
   176bd:	0f b6 05 70 99 00 00 	movzbl 0x9970(%rip),%eax        # 21034 <g_25>
   176c4:	0f b6 c0             	movzbl %al,%eax
   176c7:	39 c2                	cmp    %eax,%edx
   176c9:	8b 05 3d 9a 00 00    	mov    0x9a3d(%rip),%eax        # 2110c <g_108+0xac>
   176cf:	85 c0                	test   %eax,%eax
   176d1:	0f 84 92 03 00 00    	je     17a69 <func_50+0x2128>
   176d7:	c7 85 14 e6 ff ff 01 	movl   $0x1,-0x19ec(%rbp)
   176de:	00 00 00 
   176e1:	48 8b 95 60 e9 ff ff 	mov    -0x16a0(%rbp),%rdx
   176e8:	48 8b 85 38 ee ff ff 	mov    -0x11c8(%rbp),%rax
   176ef:	48 39 c2             	cmp    %rax,%rdx
   176f2:	0f 95 c0             	setne  %al
   176f5:	0f b6 c0             	movzbl %al,%eax
   176f8:	0f b6 95 ac e5 ff ff 	movzbl -0x1a54(%rbp),%edx
   176ff:	0f b6 d2             	movzbl %dl,%edx
   17702:	83 e2 01             	and    $0x1,%edx
   17705:	89 c6                	mov    %eax,%esi
   17707:	89 d7                	mov    %edx,%edi
   17709:	e8 11 06 ff ff       	callq  7d1f <safe_sub_func_uint16_t_u_u>
   1770e:	0f b7 c0             	movzwl %ax,%eax
   17711:	89 85 8c e9 ff ff    	mov    %eax,-0x1674(%rbp)
   17717:	c7 85 5c e9 ff ff 00 	movl   $0x0,-0x16a4(%rbp)
   1771e:	00 00 00 
   17721:	48 8d 05 28 cf 00 00 	lea    0xcf28(%rip),%rax        # 24650 <g_111>
   17728:	48 89 85 70 e6 ff ff 	mov    %rax,-0x1990(%rbp)
   1772f:	48 c7 85 38 e7 ff ff 	movq   $0x0,-0x18c8(%rbp)
   17736:	00 00 00 00 
   1773a:	48 8d 85 70 e6 ff ff 	lea    -0x1990(%rbp),%rax
   17741:	48 89 85 60 f0 ff ff 	mov    %rax,-0xfa0(%rbp)
   17748:	48 8d 85 70 e6 ff ff 	lea    -0x1990(%rbp),%rax
   1774f:	48 89 85 68 f0 ff ff 	mov    %rax,-0xf98(%rbp)
   17756:	48 8d 85 70 e6 ff ff 	lea    -0x1990(%rbp),%rax
   1775d:	48 89 85 70 f0 ff ff 	mov    %rax,-0xf90(%rbp)
   17764:	48 8d 85 70 e6 ff ff 	lea    -0x1990(%rbp),%rax
   1776b:	48 89 85 78 f0 ff ff 	mov    %rax,-0xf88(%rbp)
   17772:	48 8d 85 70 e6 ff ff 	lea    -0x1990(%rbp),%rax
   17779:	48 89 85 80 f0 ff ff 	mov    %rax,-0xf80(%rbp)
   17780:	48 8d 85 70 e6 ff ff 	lea    -0x1990(%rbp),%rax
   17787:	48 89 85 88 f0 ff ff 	mov    %rax,-0xf78(%rbp)
   1778e:	48 8d 85 70 e6 ff ff 	lea    -0x1990(%rbp),%rax
   17795:	48 89 85 90 f0 ff ff 	mov    %rax,-0xf70(%rbp)
   1779c:	48 8d 85 70 e6 ff ff 	lea    -0x1990(%rbp),%rax
   177a3:	48 89 85 98 f0 ff ff 	mov    %rax,-0xf68(%rbp)
   177aa:	48 8d 85 70 e6 ff ff 	lea    -0x1990(%rbp),%rax
   177b1:	48 89 85 a0 f0 ff ff 	mov    %rax,-0xf60(%rbp)
   177b8:	48 8d 85 70 e6 ff ff 	lea    -0x1990(%rbp),%rax
   177bf:	48 89 85 a8 f0 ff ff 	mov    %rax,-0xf58(%rbp)
   177c6:	48 8d 85 70 e6 ff ff 	lea    -0x1990(%rbp),%rax
   177cd:	48 89 85 b0 f0 ff ff 	mov    %rax,-0xf50(%rbp)
   177d4:	48 8d 85 70 e6 ff ff 	lea    -0x1990(%rbp),%rax
   177db:	48 89 85 b8 f0 ff ff 	mov    %rax,-0xf48(%rbp)
   177e2:	48 8d 85 70 e6 ff ff 	lea    -0x1990(%rbp),%rax
   177e9:	48 89 85 c0 f0 ff ff 	mov    %rax,-0xf40(%rbp)
   177f0:	48 8d 85 70 e6 ff ff 	lea    -0x1990(%rbp),%rax
   177f7:	48 89 85 c8 f0 ff ff 	mov    %rax,-0xf38(%rbp)
   177fe:	48 8d 85 70 e6 ff ff 	lea    -0x1990(%rbp),%rax
   17805:	48 89 85 d0 f0 ff ff 	mov    %rax,-0xf30(%rbp)
   1780c:	48 8d 85 70 e6 ff ff 	lea    -0x1990(%rbp),%rax
   17813:	48 89 85 d8 f0 ff ff 	mov    %rax,-0xf28(%rbp)
   1781a:	48 8d 85 70 e6 ff ff 	lea    -0x1990(%rbp),%rax
   17821:	48 89 85 e0 f0 ff ff 	mov    %rax,-0xf20(%rbp)
   17828:	48 8d 85 70 e6 ff ff 	lea    -0x1990(%rbp),%rax
   1782f:	48 89 85 e8 f0 ff ff 	mov    %rax,-0xf18(%rbp)
   17836:	48 8d 85 70 e6 ff ff 	lea    -0x1990(%rbp),%rax
   1783d:	48 89 85 f0 f0 ff ff 	mov    %rax,-0xf10(%rbp)
   17844:	48 8d 85 70 e6 ff ff 	lea    -0x1990(%rbp),%rax
   1784b:	48 89 85 f8 f0 ff ff 	mov    %rax,-0xf08(%rbp)
   17852:	8b 05 34 99 00 00    	mov    0x9934(%rip),%eax        # 2118c <g_192>
   17858:	83 c0 01             	add    $0x1,%eax
   1785b:	89 05 2b 99 00 00    	mov    %eax,0x992b(%rip)        # 2118c <g_192>
   17861:	48 8b 85 70 e6 ff ff 	mov    -0x1990(%rbp),%rax
   17868:	48 89 05 d1 bf 00 00 	mov    %rax,0xbfd1(%rip)        # 23840 <g_198+0x40>
   1786f:	48 8b 05 ca bf 00 00 	mov    0xbfca(%rip),%rax        # 23840 <g_198+0x40>
   17876:	48 8d 15 d7 97 00 00 	lea    0x97d7(%rip),%rdx        # 21054 <g_100>
   1787d:	48 39 d0             	cmp    %rdx,%rax
   17880:	0f 95 c0             	setne  %al
   17883:	0f b6 c0             	movzbl %al,%eax
   17886:	89 85 30 e9 ff ff    	mov    %eax,-0x16d0(%rbp)
   1788c:	0f b6 85 ac e5 ff ff 	movzbl -0x1a54(%rbp),%eax
   17893:	84 c0                	test   %al,%al
   17895:	0f 84 ca 00 00 00    	je     17965 <func_50+0x2024>
   1789b:	8b 85 30 e9 ff ff    	mov    -0x16d0(%rbp),%eax
   178a1:	0f be d0             	movsbl %al,%edx
   178a4:	0f b7 05 a1 97 00 00 	movzwl 0x97a1(%rip),%eax        # 2104c <g_64>
   178ab:	83 f0 81             	xor    $0xffffff81,%eax
   178ae:	0f be c0             	movsbl %al,%eax
   178b1:	89 d6                	mov    %edx,%esi
   178b3:	89 c7                	mov    %eax,%edi
   178b5:	e8 58 f9 fe ff       	callq  7212 <safe_mul_func_int8_t_s_s>
   178ba:	be 02 00 00 00       	mov    $0x2,%esi
   178bf:	bf 01 00 00 00       	mov    $0x1,%edi
   178c4:	e8 a3 fa fe ff       	callq  736c <safe_rshift_func_int8_t_s_u>
   178c9:	0f be d0             	movsbl %al,%edx
   178cc:	0f b6 85 ac e5 ff ff 	movzbl -0x1a54(%rbp),%eax
   178d3:	0f b6 c0             	movzbl %al,%eax
   178d6:	39 c2                	cmp    %eax,%edx
   178d8:	0f b6 85 ac e5 ff ff 	movzbl -0x1a54(%rbp),%eax
   178df:	84 c0                	test   %al,%al
   178e1:	75 0b                	jne    178ee <func_50+0x1fad>
   178e3:	0f b6 85 ac e5 ff ff 	movzbl -0x1a54(%rbp),%eax
   178ea:	84 c0                	test   %al,%al
   178ec:	74 07                	je     178f5 <func_50+0x1fb4>
   178ee:	ba 01 00 00 00       	mov    $0x1,%edx
   178f3:	eb 05                	jmp    178fa <func_50+0x1fb9>
   178f5:	ba 00 00 00 00       	mov    $0x0,%edx
   178fa:	8b 85 98 e9 ff ff    	mov    -0x1668(%rbp),%eax
   17900:	21 c2                	and    %eax,%edx
   17902:	8b 05 28 97 00 00    	mov    0x9728(%rip),%eax        # 21030 <g_14>
   17908:	39 c2                	cmp    %eax,%edx
   1790a:	0f 9c c0             	setl   %al
   1790d:	0f b6 c0             	movzbl %al,%eax
   17910:	be 02 00 00 00       	mov    $0x2,%esi
   17915:	89 c7                	mov    %eax,%edi
   17917:	e8 30 03 ff ff       	callq  7c4c <safe_lshift_func_uint8_t_u_u>
   1791c:	c6 05 11 97 00 00 00 	movb   $0x0,0x9711(%rip)        # 21034 <g_25>
   17923:	0f b6 85 ac e5 ff ff 	movzbl -0x1a54(%rbp),%eax
   1792a:	0f b6 d0             	movzbl %al,%edx
   1792d:	0f b6 85 ac e5 ff ff 	movzbl -0x1a54(%rbp),%eax
   17934:	0f b6 c0             	movzbl %al,%eax
   17937:	89 85 50 e9 ff ff    	mov    %eax,-0x16b0(%rbp)
   1793d:	8b 85 50 e9 ff ff    	mov    -0x16b0(%rbp),%eax
   17943:	98                   	cwtl   
   17944:	89 d6                	mov    %edx,%esi
   17946:	89 c7                	mov    %eax,%edi
   17948:	e8 c9 fa fe ff       	callq  7416 <safe_mod_func_int16_t_s_s>
   1794d:	0f b7 c0             	movzwl %ax,%eax
   17950:	89 c7                	mov    %eax,%edi
   17952:	e8 92 03 ff ff       	callq  7ce9 <safe_unary_minus_func_uint16_t_u>
   17957:	48 8b 85 60 e6 ff ff 	mov    -0x19a0(%rbp),%rax
   1795e:	48 39 85 a0 e5 ff ff 	cmp    %rax,-0x1a60(%rbp)
   17965:	0f b6 85 ac e5 ff ff 	movzbl -0x1a54(%rbp),%eax
   1796c:	84 c0                	test   %al,%al
   1796e:	74 07                	je     17977 <func_50+0x2036>
   17970:	b8 01 00 00 00       	mov    $0x1,%eax
   17975:	eb 05                	jmp    1797c <func_50+0x203b>
   17977:	b8 00 00 00 00       	mov    $0x0,%eax
   1797c:	98                   	cwtl   
   1797d:	89 c6                	mov    %eax,%esi
   1797f:	bf ff ff ff ff       	mov    $0xffffffff,%edi
   17984:	e8 6c fa fe ff       	callq  73f5 <safe_mul_func_int16_t_s_s>
   17989:	66 3d b4 00          	cmp    $0xb4,%ax
   1798d:	0f 9f c0             	setg   %al
   17990:	0f b6 c0             	movzbl %al,%eax
   17993:	f7 d0                	not    %eax
   17995:	89 c2                	mov    %eax,%edx
   17997:	0f b7 85 bc e5 ff ff 	movzwl -0x1a44(%rbp),%eax
   1799e:	09 d0                	or     %edx,%eax
   179a0:	66 89 85 bc e5 ff ff 	mov    %ax,-0x1a44(%rbp)
   179a7:	c7 05 9f 96 00 00 f7 	movl   $0xfffffff7,0x969f(%rip)        # 21050 <g_79>
   179ae:	ff ff ff 
   179b1:	e9 9f 00 00 00       	jmpq   17a55 <func_50+0x2114>
   179b6:	8b 85 14 e6 ff ff    	mov    -0x19ec(%rbp),%eax
   179bc:	0f b6 d8             	movzbl %al,%ebx
   179bf:	0f b6 05 8a cc 00 00 	movzbl 0xcc8a(%rip),%eax        # 24650 <g_111>
   179c6:	0f b6 c0             	movzbl %al,%eax
   179c9:	be 18 00 00 00       	mov    $0x18,%esi
   179ce:	89 c7                	mov    %eax,%edi
   179d0:	e8 06 02 ff ff       	callq  7bdb <safe_div_func_uint8_t_u_u>
   179d5:	0f b6 d0             	movzbl %al,%edx
   179d8:	0f b6 85 ac e5 ff ff 	movzbl -0x1a54(%rbp),%eax
   179df:	0f b6 c0             	movzbl %al,%eax
   179e2:	89 d6                	mov    %edx,%esi
   179e4:	89 c7                	mov    %eax,%edi
   179e6:	e8 71 03 ff ff       	callq  7d5c <safe_mod_func_uint16_t_u_u>
   179eb:	66 0d b8 07          	or     $0x7b8,%ax
   179ef:	66 83 f8 1e          	cmp    $0x1e,%ax
   179f3:	0f 96 c0             	setbe  %al
   179f6:	0f b6 c0             	movzbl %al,%eax
   179f9:	89 de                	mov    %ebx,%esi
   179fb:	89 c7                	mov    %eax,%edi
   179fd:	e8 ac 01 ff ff       	callq  7bae <safe_mod_func_uint8_t_u_u>
   17a02:	0f b6 d0             	movzbl %al,%edx
   17a05:	48 8b 05 84 97 00 00 	mov    0x9784(%rip),%rax        # 21190 <g_227>
   17a0c:	48 21 d0             	and    %rdx,%rax
   17a0f:	48 89 05 7a 97 00 00 	mov    %rax,0x977a(%rip)        # 21190 <g_227>
   17a16:	48 8b 15 73 97 00 00 	mov    0x9773(%rip),%rdx        # 21190 <g_227>
   17a1d:	8b 85 38 e9 ff ff    	mov    -0x16c8(%rbp),%eax
   17a23:	09 d0                	or     %edx,%eax
   17a25:	89 85 38 e9 ff ff    	mov    %eax,-0x16c8(%rbp)
   17a2b:	8b 05 5b 97 00 00    	mov    0x975b(%rip),%eax        # 2118c <g_192>
   17a31:	85 c0                	test   %eax,%eax
   17a33:	74 05                	je     17a3a <func_50+0x20f9>
   17a35:	e9 dd fc ff ff       	jmpq   17717 <func_50+0x1dd6>
   17a3a:	8b 05 10 96 00 00    	mov    0x9610(%rip),%eax        # 21050 <g_79>
   17a40:	48 98                	cltq   
   17a42:	be 03 00 00 00       	mov    $0x3,%esi
   17a47:	48 89 c7             	mov    %rax,%rdi
   17a4a:	e8 f2 fd fe ff       	callq  7841 <safe_add_func_int64_t_s_s>
   17a4f:	89 05 fb 95 00 00    	mov    %eax,0x95fb(%rip)        # 21050 <g_79>
   17a55:	8b 05 f5 95 00 00    	mov    0x95f5(%rip),%eax        # 21050 <g_79>
   17a5b:	83 f8 f8             	cmp    $0xfffffff8,%eax
   17a5e:	0f 85 52 ff ff ff    	jne    179b6 <func_50+0x2075>
   17a64:	e9 32 05 00 00       	jmpq   17f9b <func_50+0x265a>
   17a69:	48 8d 05 14 97 00 00 	lea    0x9714(%rip),%rax        # 21184 <g_122>
   17a70:	48 89 85 70 e6 ff ff 	mov    %rax,-0x1990(%rbp)
   17a77:	48 8d 85 70 e6 ff ff 	lea    -0x1990(%rbp),%rax
   17a7e:	48 89 85 08 e7 ff ff 	mov    %rax,-0x18f8(%rbp)
   17a85:	c7 85 08 e6 ff ff 9f 	movl   $0x7274bb9f,-0x19f8(%rbp)
   17a8c:	bb 74 72 
   17a8f:	48 8d 85 b7 e5 ff ff 	lea    -0x1a49(%rbp),%rax
   17a96:	48 89 85 10 e7 ff ff 	mov    %rax,-0x18f0(%rbp)
   17a9d:	48 8b 95 e8 ee ff ff 	mov    -0x1118(%rbp),%rdx
   17aa4:	48 8b 85 08 e7 ff ff 	mov    -0x18f8(%rbp),%rax
   17aab:	48 89 10             	mov    %rdx,(%rax)
   17aae:	48 8b 85 08 e7 ff ff 	mov    -0x18f8(%rbp),%rax
   17ab5:	48 8b 10             	mov    (%rax),%rdx
   17ab8:	48 8b 85 18 e9 ff ff 	mov    -0x16e8(%rbp),%rax
   17abf:	48 39 c2             	cmp    %rax,%rdx
   17ac2:	0f 84 98 02 00 00    	je     17d60 <func_50+0x241f>
   17ac8:	48 8d 85 be e5 ff ff 	lea    -0x1a42(%rbp),%rax
   17acf:	48 89 85 60 f0 ff ff 	mov    %rax,-0xfa0(%rbp)
   17ad6:	48 8d 85 be e5 ff ff 	lea    -0x1a42(%rbp),%rax
   17add:	48 89 85 68 f0 ff ff 	mov    %rax,-0xf98(%rbp)
   17ae4:	48 8d 85 be e5 ff ff 	lea    -0x1a42(%rbp),%rax
   17aeb:	48 89 85 70 f0 ff ff 	mov    %rax,-0xf90(%rbp)
   17af2:	48 8d 85 be e5 ff ff 	lea    -0x1a42(%rbp),%rax
   17af9:	48 89 85 78 f0 ff ff 	mov    %rax,-0xf88(%rbp)
   17b00:	48 8d 85 be e5 ff ff 	lea    -0x1a42(%rbp),%rax
   17b07:	48 89 85 80 f0 ff ff 	mov    %rax,-0xf80(%rbp)
   17b0e:	48 8d 85 be e5 ff ff 	lea    -0x1a42(%rbp),%rax
   17b15:	48 89 85 88 f0 ff ff 	mov    %rax,-0xf78(%rbp)
   17b1c:	48 8d 85 be e5 ff ff 	lea    -0x1a42(%rbp),%rax
   17b23:	48 89 85 90 f0 ff ff 	mov    %rax,-0xf70(%rbp)
   17b2a:	48 8d 85 be e5 ff ff 	lea    -0x1a42(%rbp),%rax
   17b31:	48 89 85 98 f0 ff ff 	mov    %rax,-0xf68(%rbp)
   17b38:	c7 85 10 e6 ff ff 01 	movl   $0x1,-0x19f0(%rbp)
   17b3f:	00 00 00 
   17b42:	48 c7 85 28 e7 ff ff 	movq   $0x0,-0x18d8(%rbp)
   17b49:	00 00 00 00 
   17b4d:	8b 05 31 96 00 00    	mov    0x9631(%rip),%eax        # 21184 <g_122>
   17b53:	85 c0                	test   %eax,%eax
   17b55:	74 05                	je     17b5c <func_50+0x221b>
   17b57:	e9 a9 f4 ff ff       	jmpq   17005 <func_50+0x16c4>
   17b5c:	8b 9d 50 e6 ff ff    	mov    -0x19b0(%rbp),%ebx
   17b62:	44 8b 25 43 95 00 00 	mov    0x9543(%rip),%r12d        # 210ac <g_108+0x4c>
   17b69:	0f b6 15 1a 96 00 00 	movzbl 0x961a(%rip),%edx        # 2118a <g_190>
   17b70:	48 8b 85 40 e6 ff ff 	mov    -0x19c0(%rbp),%rax
   17b77:	0f b6 d2             	movzbl %dl,%edx
   17b7a:	48 89 10             	mov    %rdx,(%rax)
   17b7d:	48 8b 10             	mov    (%rax),%rdx
   17b80:	0f b7 85 bc e5 ff ff 	movzwl -0x1a44(%rbp),%eax
   17b87:	48 0f bf c0          	movswq %ax,%rax
   17b8b:	48 31 c2             	xor    %rax,%rdx
   17b8e:	49 89 d7             	mov    %rdx,%r15
   17b91:	0f b6 05 f2 95 00 00 	movzbl 0x95f2(%rip),%eax        # 2118a <g_190>
   17b98:	44 0f b6 e8          	movzbl %al,%r13d
   17b9c:	44 0f b6 b5 b8 e5 ff 	movzbl -0x1a48(%rbp),%r14d
   17ba3:	ff 
   17ba4:	8b 05 b6 95 00 00    	mov    0x95b6(%rip),%eax        # 21160 <g_108+0x100>
   17baa:	0f b6 c0             	movzbl %al,%eax
   17bad:	89 c6                	mov    %eax,%esi
   17baf:	bf 16 00 00 00       	mov    $0x16,%edi
   17bb4:	e8 da ff fe ff       	callq  7b93 <safe_mul_func_uint8_t_u_u>
   17bb9:	0f b6 c0             	movzbl %al,%eax
   17bbc:	be 99 00 00 00       	mov    $0x99,%esi
   17bc1:	89 c7                	mov    %eax,%edi
   17bc3:	e8 13 00 ff ff       	callq  7bdb <safe_div_func_uint8_t_u_u>
   17bc8:	8b 85 10 e6 ff ff    	mov    -0x19f0(%rbp),%eax
   17bce:	89 c2                	mov    %eax,%edx
   17bd0:	8b 85 c4 e5 ff ff    	mov    -0x1a3c(%rbp),%eax
   17bd6:	31 d0                	xor    %edx,%eax
   17bd8:	0f b7 c0             	movzwl %ax,%eax
   17bdb:	be 02 00 00 00       	mov    $0x2,%esi
   17be0:	89 c7                	mov    %eax,%edi
   17be2:	e8 18 01 ff ff       	callq  7cff <safe_add_func_uint16_t_u_u>
   17be7:	66 3d 43 cc          	cmp    $0xcc43,%ax
   17beb:	74 07                	je     17bf4 <func_50+0x22b3>
   17bed:	ba 79 ae 00 00       	mov    $0xae79,%edx
   17bf2:	eb 05                	jmp    17bf9 <func_50+0x22b8>
   17bf4:	ba 78 ae 00 00       	mov    $0xae78,%edx
   17bf9:	0f b6 85 ac e5 ff ff 	movzbl -0x1a54(%rbp),%eax
   17c00:	0f b6 c0             	movzbl %al,%eax
   17c03:	48 39 c2             	cmp    %rax,%rdx
   17c06:	0f 9c c0             	setl   %al
   17c09:	0f b6 c0             	movzbl %al,%eax
   17c0c:	44 89 f6             	mov    %r14d,%esi
   17c0f:	89 c7                	mov    %eax,%edi
   17c11:	e8 8b f6 fe ff       	callq  72a1 <safe_lshift_func_int8_t_s_s>
   17c16:	0f be c0             	movsbl %al,%eax
   17c19:	be 03 00 00 00       	mov    $0x3,%esi
   17c1e:	89 c7                	mov    %eax,%edi
   17c20:	e8 cd f5 fe ff       	callq  71f2 <safe_sub_func_int8_t_s_s>
   17c25:	0f b6 d0             	movzbl %al,%edx
   17c28:	0f b6 0d 05 94 00 00 	movzbl 0x9405(%rip),%ecx        # 21034 <g_25>
   17c2f:	48 8b 85 a0 e5 ff ff 	mov    -0x1a60(%rbp),%rax
   17c36:	88 08                	mov    %cl,(%rax)
   17c38:	48 8b 85 a0 e5 ff ff 	mov    -0x1a60(%rbp),%rax
   17c3f:	0f b6 00             	movzbl (%rax),%eax
   17c42:	0f b6 c0             	movzbl %al,%eax
   17c45:	89 d6                	mov    %edx,%esi
   17c47:	89 c7                	mov    %eax,%edi
   17c49:	e8 45 ff fe ff       	callq  7b93 <safe_mul_func_uint8_t_u_u>
   17c4e:	0f b6 85 ac e5 ff ff 	movzbl -0x1a54(%rbp),%eax
   17c55:	0f b6 d0             	movzbl %al,%edx
   17c58:	8b 05 2e 95 00 00    	mov    0x952e(%rip),%eax        # 2118c <g_192>
   17c5e:	39 c2                	cmp    %eax,%edx
   17c60:	75 0b                	jne    17c6d <func_50+0x232c>
   17c62:	0f b6 85 ac e5 ff ff 	movzbl -0x1a54(%rbp),%eax
   17c69:	84 c0                	test   %al,%al
   17c6b:	74 07                	je     17c74 <func_50+0x2333>
   17c6d:	ba 01 00 00 00       	mov    $0x1,%edx
   17c72:	eb 05                	jmp    17c79 <func_50+0x2338>
   17c74:	ba 00 00 00 00       	mov    $0x0,%edx
   17c79:	0f b7 05 08 95 00 00 	movzwl 0x9508(%rip),%eax        # 21188 <g_189>
   17c80:	83 e0 fe             	and    $0xfffffffe,%eax
   17c83:	66 89 05 fe 94 00 00 	mov    %ax,0x94fe(%rip)        # 21188 <g_189>
   17c8a:	0f b7 05 f7 94 00 00 	movzwl 0x94f7(%rip),%eax        # 21188 <g_189>
   17c91:	0f b7 c0             	movzwl %ax,%eax
   17c94:	89 d6                	mov    %edx,%esi
   17c96:	89 c7                	mov    %eax,%edi
   17c98:	e8 ab 01 ff ff       	callq  7e48 <safe_rshift_func_uint16_t_u_s>
   17c9d:	0f b7 d0             	movzwl %ax,%edx
   17ca0:	8b 05 e6 94 00 00    	mov    0x94e6(%rip),%eax        # 2118c <g_192>
   17ca6:	0f b7 c0             	movzwl %ax,%eax
   17ca9:	89 d6                	mov    %edx,%esi
   17cab:	89 c7                	mov    %eax,%edi
   17cad:	e8 c8 01 ff ff       	callq  7e7a <safe_rshift_func_uint16_t_u_u>
   17cb2:	0f b6 95 ac e5 ff ff 	movzbl -0x1a54(%rbp),%edx
   17cb9:	0f b6 d2             	movzbl %dl,%edx
   17cbc:	66 39 d0             	cmp    %dx,%ax
   17cbf:	0f 93 c0             	setae  %al
   17cc2:	0f b6 c0             	movzbl %al,%eax
   17cc5:	48 89 c7             	mov    %rax,%rdi
   17cc8:	e8 4c 03 ff ff       	callq  8019 <safe_unary_minus_func_uint64_t_u>
   17ccd:	48 8b 05 84 c9 00 00 	mov    0xc984(%rip),%rax        # 24658 <g_266>
   17cd4:	48 8d 95 d0 ee ff ff 	lea    -0x1130(%rbp),%rdx
   17cdb:	48 83 c2 18          	add    $0x18,%rdx
   17cdf:	48 39 d0             	cmp    %rdx,%rax
   17ce2:	0f 95 c0             	setne  %al
   17ce5:	0f b6 c0             	movzbl %al,%eax
   17ce8:	44 89 ee             	mov    %r13d,%esi
   17ceb:	89 c7                	mov    %eax,%edi
   17ced:	e8 0b 02 ff ff       	callq  7efd <safe_mod_func_uint32_t_u_u>
   17cf2:	41 89 c5             	mov    %eax,%r13d
   17cf5:	48 8b 85 b8 e6 ff ff 	mov    -0x1948(%rbp),%rax
   17cfc:	c7 00 fa ff ff ff    	movl   $0xfffffffa,(%rax)
   17d02:	bf fe ff ff ff       	mov    $0xfffffffe,%edi
   17d07:	e8 91 f6 fe ff       	callq  739d <safe_unary_minus_func_int16_t_s>
   17d0c:	98                   	cwtl   
   17d0d:	44 89 ee             	mov    %r13d,%esi
   17d10:	89 c7                	mov    %eax,%edi
   17d12:	e8 13 f8 fe ff       	callq  752a <safe_rshift_func_int16_t_s_s>
   17d17:	48 0f bf c0          	movswq %ax,%rax
   17d1b:	49 39 c7             	cmp    %rax,%r15
   17d1e:	0f 97 c0             	seta   %al
   17d21:	0f b6 c0             	movzbl %al,%eax
   17d24:	44 89 e6             	mov    %r12d,%esi
   17d27:	89 c7                	mov    %eax,%edi
   17d29:	e8 1a 01 ff ff       	callq  7e48 <safe_rshift_func_uint16_t_u_s>
   17d2e:	48 8b 05 23 c9 00 00 	mov    0xc923(%rip),%rax        # 24658 <g_266>
   17d35:	48 39 85 28 e7 ff ff 	cmp    %rax,-0x18d8(%rbp)
   17d3c:	0f 95 c0             	setne  %al
   17d3f:	0f b6 c0             	movzbl %al,%eax
   17d42:	89 de                	mov    %ebx,%esi
   17d44:	89 c7                	mov    %eax,%edi
   17d46:	e8 42 ff fe ff       	callq  7c8d <safe_rshift_func_uint8_t_u_s>
   17d4b:	0f b6 c0             	movzbl %al,%eax
   17d4e:	89 c7                	mov    %eax,%edi
   17d50:	e8 41 f8 fe ff       	callq  7596 <safe_unary_minus_func_int32_t_s>
   17d55:	89 05 f5 92 00 00    	mov    %eax,0x92f5(%rip)        # 21050 <g_79>
   17d5b:	e9 2f 01 00 00       	jmpq   17e8f <func_50+0x254e>
   17d60:	48 8d 05 21 94 00 00 	lea    0x9421(%rip),%rax        # 21188 <g_189>
   17d67:	48 89 85 18 e7 ff ff 	mov    %rax,-0x18e8(%rbp)
   17d6e:	48 8d 85 be e5 ff ff 	lea    -0x1a42(%rbp),%rax
   17d75:	48 89 85 20 e7 ff ff 	mov    %rax,-0x18e0(%rbp)
   17d7c:	c7 85 0c e6 ff ff b7 	movl   $0xa3de2b7,-0x19f4(%rbp)
   17d83:	e2 3d 0a 
   17d86:	8b 85 0c e6 ff ff    	mov    -0x19f4(%rbp),%eax
   17d8c:	0f be d8             	movsbl %al,%ebx
   17d8f:	48 8b 85 f0 e6 ff ff 	mov    -0x1910(%rbp),%rax
   17d96:	48 8b 00             	mov    (%rax),%rax
   17d99:	48 85 c0             	test   %rax,%rax
   17d9c:	0f 95 c0             	setne  %al
   17d9f:	0f b6 d0             	movzbl %al,%edx
   17da2:	0f b6 85 b7 e5 ff ff 	movzbl -0x1a49(%rbp),%eax
   17da9:	0f b6 c0             	movzbl %al,%eax
   17dac:	09 d0                	or     %edx,%eax
   17dae:	85 c0                	test   %eax,%eax
   17db0:	75 21                	jne    17dd3 <func_50+0x2492>
   17db2:	8b 05 d4 93 00 00    	mov    0x93d4(%rip),%eax        # 2118c <g_192>
   17db8:	89 c2                	mov    %eax,%edx
   17dba:	48 8b 85 18 e7 ff ff 	mov    -0x18e8(%rbp),%rax
   17dc1:	66 89 10             	mov    %dx,(%rax)
   17dc4:	48 8b 85 18 e7 ff ff 	mov    -0x18e8(%rbp),%rax
   17dcb:	0f b7 00             	movzwl (%rax),%eax
   17dce:	66 85 c0             	test   %ax,%ax
   17dd1:	74 08                	je     17ddb <func_50+0x249a>
   17dd3:	41 bc 01 00 00 00    	mov    $0x1,%r12d
   17dd9:	eb 06                	jmp    17de1 <func_50+0x24a0>
   17ddb:	41 bc 00 00 00 00    	mov    $0x0,%r12d
   17de1:	48 8b 85 20 e7 ff ff 	mov    -0x18e0(%rbp),%rax
   17de8:	0f b7 00             	movzwl (%rax),%eax
   17deb:	89 c2                	mov    %eax,%edx
   17ded:	0f b6 05 5c c8 00 00 	movzbl 0xc85c(%rip),%eax        # 24650 <g_111>
   17df4:	66 98                	cbtw   
   17df6:	31 d0                	xor    %edx,%eax
   17df8:	89 c2                	mov    %eax,%edx
   17dfa:	48 8b 85 20 e7 ff ff 	mov    -0x18e0(%rbp),%rax
   17e01:	66 89 10             	mov    %dx,(%rax)
   17e04:	48 8b 85 20 e7 ff ff 	mov    -0x18e0(%rbp),%rax
   17e0b:	0f b7 00             	movzwl (%rax),%eax
   17e0e:	0f b7 d0             	movzwl %ax,%edx
   17e11:	48 8b 85 08 e7 ff ff 	mov    -0x18f8(%rbp),%rax
   17e18:	48 8b 00             	mov    (%rax),%rax
   17e1b:	48 89 85 30 ec ff ff 	mov    %rax,-0x13d0(%rbp)
   17e22:	48 8b 85 30 ec ff ff 	mov    -0x13d0(%rbp),%rax
   17e29:	48 85 c0             	test   %rax,%rax
   17e2c:	0f 95 c0             	setne  %al
   17e2f:	0f b6 c0             	movzbl %al,%eax
   17e32:	89 d6                	mov    %edx,%esi
   17e34:	89 c7                	mov    %eax,%edi
   17e36:	e8 a6 f6 fe ff       	callq  74e1 <safe_lshift_func_int16_t_s_u>
   17e3b:	98                   	cwtl   
   17e3c:	41 39 c4             	cmp    %eax,%r12d
   17e3f:	0f 9f c0             	setg   %al
   17e42:	0f b6 c0             	movzbl %al,%eax
   17e45:	be 07 00 00 00       	mov    $0x7,%esi
   17e4a:	89 c7                	mov    %eax,%edi
   17e4c:	e8 29 00 ff ff       	callq  7e7a <safe_rshift_func_uint16_t_u_u>
   17e51:	89 de                	mov    %ebx,%esi
   17e53:	bf 01 00 00 00       	mov    $0x1,%edi
   17e58:	e8 77 f3 fe ff       	callq  71d4 <safe_add_func_int8_t_s_s>
   17e5d:	ba 01 00 00 00       	mov    $0x1,%edx
   17e62:	48 8b 85 60 e6 ff ff 	mov    -0x19a0(%rbp),%rax
   17e69:	88 10                	mov    %dl,(%rax)
   17e6b:	0f b6 00             	movzbl (%rax),%eax
   17e6e:	0f b6 c0             	movzbl %al,%eax
   17e71:	89 c6                	mov    %eax,%esi
   17e73:	bf 74 00 00 00       	mov    $0x74,%edi
   17e78:	e8 16 fd fe ff       	callq  7b93 <safe_mul_func_uint8_t_u_u>
   17e7d:	0f b6 95 ac e5 ff ff 	movzbl -0x1a54(%rbp),%edx
   17e84:	09 d0                	or     %edx,%eax
   17e86:	0f b6 c0             	movzbl %al,%eax
   17e89:	89 85 30 e9 ff ff    	mov    %eax,-0x16d0(%rbp)
   17e8f:	c7 85 d4 e9 ff ff 01 	movl   $0x1,-0x162c(%rbp)
   17e96:	00 00 00 
   17e99:	c6 05 b4 91 00 00 1b 	movb   $0x1b,0x91b4(%rip)        # 21054 <g_100>
   17ea0:	90                   	nop
   17ea1:	0f b6 05 ac 91 00 00 	movzbl 0x91ac(%rip),%eax        # 21054 <g_100>
   17ea8:	3c 09                	cmp    $0x9,%al
   17eaa:	7e 0c                	jle    17eb8 <func_50+0x2577>
   17eac:	48 8d 05 81 91 00 00 	lea    0x9181(%rip),%rax        # 21034 <g_25>
   17eb3:	e9 9e 1d 00 00       	jmpq   19c56 <func_50+0x4315>
   17eb8:	c6 85 b7 e5 ff ff 05 	movb   $0x5,-0x1a49(%rbp)
   17ebf:	eb 32                	jmp    17ef3 <func_50+0x25b2>
   17ec1:	48 b8 6d d6 89 8d 85 	movabs $0xad8708858d89d66d,%rax
   17ec8:	08 87 ad 
   17ecb:	48 89 85 30 e7 ff ff 	mov    %rax,-0x18d0(%rbp)
   17ed2:	48 83 85 30 e7 ff ff 	addq   $0x1,-0x18d0(%rbp)
   17ed9:	01 
   17eda:	0f b6 85 ac e5 ff ff 	movzbl -0x1a54(%rbp),%eax
   17ee1:	84 c0                	test   %al,%al
   17ee3:	0f b6 85 b7 e5 ff ff 	movzbl -0x1a49(%rbp),%eax
   17eea:	83 c0 01             	add    $0x1,%eax
   17eed:	88 85 b7 e5 ff ff    	mov    %al,-0x1a49(%rbp)
   17ef3:	0f b6 85 b7 e5 ff ff 	movzbl -0x1a49(%rbp),%eax
   17efa:	3c 3c                	cmp    $0x3c,%al
   17efc:	76 c3                	jbe    17ec1 <func_50+0x2580>
   17efe:	e9 98 00 00 00       	jmpq   17f9b <func_50+0x265a>
   17f03:	48 8d 05 80 92 00 00 	lea    0x9280(%rip),%rax        # 2118a <g_190>
   17f0a:	48 89 85 60 f0 ff ff 	mov    %rax,-0xfa0(%rbp)
   17f11:	48 8d 05 72 92 00 00 	lea    0x9272(%rip),%rax        # 2118a <g_190>
   17f18:	48 89 85 68 f0 ff ff 	mov    %rax,-0xf98(%rbp)
   17f1f:	48 8d 05 64 92 00 00 	lea    0x9264(%rip),%rax        # 2118a <g_190>
   17f26:	48 89 85 70 f0 ff ff 	mov    %rax,-0xf90(%rbp)
   17f2d:	48 8d 05 56 92 00 00 	lea    0x9256(%rip),%rax        # 2118a <g_190>
   17f34:	48 89 85 78 f0 ff ff 	mov    %rax,-0xf88(%rbp)
   17f3b:	48 8d 05 48 92 00 00 	lea    0x9248(%rip),%rax        # 2118a <g_190>
   17f42:	48 89 85 80 f0 ff ff 	mov    %rax,-0xf80(%rbp)
   17f49:	48 8d 05 3a 92 00 00 	lea    0x923a(%rip),%rax        # 2118a <g_190>
   17f50:	48 89 85 88 f0 ff ff 	mov    %rax,-0xf78(%rbp)
   17f57:	48 8d 05 2c 92 00 00 	lea    0x922c(%rip),%rax        # 2118a <g_190>
   17f5e:	48 89 85 90 f0 ff ff 	mov    %rax,-0xf70(%rbp)
   17f65:	48 8d 05 1e 92 00 00 	lea    0x921e(%rip),%rax        # 2118a <g_190>
   17f6c:	48 89 85 98 f0 ff ff 	mov    %rax,-0xf68(%rbp)
   17f73:	48 8d 05 10 92 00 00 	lea    0x9210(%rip),%rax        # 2118a <g_190>
   17f7a:	48 89 85 a0 f0 ff ff 	mov    %rax,-0xf60(%rbp)
   17f81:	48 8d 05 02 92 00 00 	lea    0x9202(%rip),%rax        # 2118a <g_190>
   17f88:	48 89 85 a8 f0 ff ff 	mov    %rax,-0xf58(%rbp)
   17f8f:	48 8d 05 f4 91 00 00 	lea    0x91f4(%rip),%rax        # 2118a <g_190>
   17f96:	e9 bb 1c 00 00       	jmpq   19c56 <func_50+0x4315>
   17f9b:	48 8b 05 9e 90 00 00 	mov    0x909e(%rip),%rax        # 21040 <g_59>
   17fa2:	89 c2                	mov    %eax,%edx
   17fa4:	48 8b 85 c0 e6 ff ff 	mov    -0x1940(%rbp),%rax
   17fab:	66 89 10             	mov    %dx,(%rax)
   17fae:	48 8b 85 c0 e6 ff ff 	mov    -0x1940(%rbp),%rax
   17fb5:	0f b7 00             	movzwl (%rax),%eax
   17fb8:	41 89 c4             	mov    %eax,%r12d
   17fbb:	0f b6 85 ac e5 ff ff 	movzbl -0x1a54(%rbp),%eax
   17fc2:	0f b6 d8             	movzbl %al,%ebx
   17fc5:	0f b6 85 ac e5 ff ff 	movzbl -0x1a54(%rbp),%eax
   17fcc:	0f b6 d0             	movzbl %al,%edx
   17fcf:	48 8b 0d 8a c6 00 00 	mov    0xc68a(%rip),%rcx        # 24660 <g_309>
   17fd6:	48 8b 85 c8 e6 ff ff 	mov    -0x1938(%rbp),%rax
   17fdd:	48 89 08             	mov    %rcx,(%rax)
   17fe0:	48 8b 85 c8 e6 ff ff 	mov    -0x1938(%rbp),%rax
   17fe7:	48 8b 00             	mov    (%rax),%rax
   17fea:	48 85 c0             	test   %rax,%rax
   17fed:	0f 95 c0             	setne  %al
   17ff0:	0f b6 c0             	movzbl %al,%eax
   17ff3:	48 89 d6             	mov    %rdx,%rsi
   17ff6:	48 89 c7             	mov    %rax,%rdi
   17ff9:	e8 aa f8 fe ff       	callq  78a8 <safe_sub_func_int64_t_s_s>
   17ffe:	89 c2                	mov    %eax,%edx
   18000:	48 8b 05 89 91 00 00 	mov    0x9189(%rip),%rax        # 21190 <g_227>
   18007:	21 c2                	and    %eax,%edx
   18009:	8b 85 58 e6 ff ff    	mov    -0x19a8(%rbp),%eax
   1800f:	09 d0                	or     %edx,%eax
   18011:	89 c2                	mov    %eax,%edx
   18013:	48 8b 85 d0 e6 ff ff 	mov    -0x1930(%rbp),%rax
   1801a:	89 10                	mov    %edx,(%rax)
   1801c:	be 02 00 00 00       	mov    $0x2,%esi
   18021:	bf b9 ff ff ff       	mov    $0xffffffb9,%edi
   18026:	e8 41 f3 fe ff       	callq  736c <safe_rshift_func_int8_t_s_u>
   1802b:	48 0f be d0          	movsbq %al,%rdx
   1802f:	48 8b 05 42 91 00 00 	mov    0x9142(%rip),%rax        # 21178 <g_112>
   18036:	48 39 c2             	cmp    %rax,%rdx
   18039:	0f 92 c0             	setb   %al
   1803c:	0f b6 d0             	movzbl %al,%edx
   1803f:	8b 05 df 8f 00 00    	mov    0x8fdf(%rip),%eax        # 21024 <g_11>
   18045:	39 c2                	cmp    %eax,%edx
   18047:	0f 9d c0             	setge  %al
   1804a:	0f b6 d0             	movzbl %al,%edx
   1804d:	8b 85 30 e9 ff ff    	mov    -0x16d0(%rbp),%eax
   18053:	31 d0                	xor    %edx,%eax
   18055:	89 85 30 e9 ff ff    	mov    %eax,-0x16d0(%rbp)
   1805b:	8b b5 30 e9 ff ff    	mov    -0x16d0(%rbp),%esi
   18061:	8b 95 58 e9 ff ff    	mov    -0x16a8(%rbp),%edx
   18067:	48 8b 85 60 e6 ff ff 	mov    -0x19a0(%rbp),%rax
   1806e:	0f b6 08             	movzbl (%rax),%ecx
   18071:	48 8b 85 60 e6 ff ff 	mov    -0x19a0(%rbp),%rax
   18078:	09 f1                	or     %esi,%ecx
   1807a:	88 08                	mov    %cl,(%rax)
   1807c:	0f b6 00             	movzbl (%rax),%eax
   1807f:	0f be c0             	movsbl %al,%eax
   18082:	39 c2                	cmp    %eax,%edx
   18084:	0f 9e c0             	setle  %al
   18087:	0f b6 c0             	movzbl %al,%eax
   1808a:	66 89 05 bb 8f 00 00 	mov    %ax,0x8fbb(%rip)        # 2104c <g_64>
   18091:	0f b6 85 ac e5 ff ff 	movzbl -0x1a54(%rbp),%eax
   18098:	0f b6 c0             	movzbl %al,%eax
   1809b:	48 89 c6             	mov    %rax,%rsi
   1809e:	bf 00 00 00 00       	mov    $0x0,%edi
   180a3:	e8 00 f8 fe ff       	callq  78a8 <safe_sub_func_int64_t_s_s>
   180a8:	89 c2                	mov    %eax,%edx
   180aa:	8b 85 50 e6 ff ff    	mov    -0x19b0(%rbp),%eax
   180b0:	31 d0                	xor    %edx,%eax
   180b2:	be 3b 63 bf d2       	mov    $0xd2bf633b,%esi
   180b7:	89 c7                	mov    %eax,%edi
   180b9:	e8 0e f6 fe ff       	callq  76cc <safe_mod_func_int32_t_s_s>
   180be:	8b 85 50 e9 ff ff    	mov    -0x16b0(%rbp),%eax
   180c4:	85 c0                	test   %eax,%eax
   180c6:	74 07                	je     180cf <func_50+0x278e>
   180c8:	b8 01 00 00 00       	mov    $0x1,%eax
   180cd:	eb 05                	jmp    180d4 <func_50+0x2793>
   180cf:	b8 00 00 00 00       	mov    $0x0,%eax
   180d4:	89 85 a4 ed ff ff    	mov    %eax,-0x125c(%rbp)
   180da:	8b 85 a4 ed ff ff    	mov    -0x125c(%rbp),%eax
   180e0:	48 98                	cltq   
   180e2:	48 39 85 78 e6 ff ff 	cmp    %rax,-0x1988(%rbp)
   180e9:	0f 9c c0             	setl   %al
   180ec:	0f b6 c0             	movzbl %al,%eax
   180ef:	89 85 58 e6 ff ff    	mov    %eax,-0x19a8(%rbp)
   180f5:	8b 85 58 e6 ff ff    	mov    -0x19a8(%rbp),%eax
   180fb:	0f be c0             	movsbl %al,%eax
   180fe:	be 03 00 00 00       	mov    $0x3,%esi
   18103:	89 c7                	mov    %eax,%edi
   18105:	e8 2b f2 fe ff       	callq  7335 <safe_rshift_func_int8_t_s_s>
   1810a:	bf 01 00 00 00       	mov    $0x1,%edi
   1810f:	e8 d5 fb fe ff       	callq  7ce9 <safe_unary_minus_func_uint16_t_u>
   18114:	0f b7 c0             	movzwl %ax,%eax
   18117:	89 85 50 e9 ff ff    	mov    %eax,-0x16b0(%rbp)
   1811d:	8b 95 50 e9 ff ff    	mov    -0x16b0(%rbp),%edx
   18123:	0f b6 85 ac e5 ff ff 	movzbl -0x1a54(%rbp),%eax
   1812a:	0f b6 c0             	movzbl %al,%eax
   1812d:	39 c2                	cmp    %eax,%edx
   1812f:	0f 95 c0             	setne  %al
   18132:	0f b6 c0             	movzbl %al,%eax
   18135:	48 89 de             	mov    %rbx,%rsi
   18138:	48 89 c7             	mov    %rax,%rdi
   1813b:	e8 ee fe fe ff       	callq  802e <safe_add_func_uint64_t_u_u>
   18140:	44 89 e2             	mov    %r12d,%edx
   18143:	09 c2                	or     %eax,%edx
   18145:	0f b6 05 08 8f 00 00 	movzbl 0x8f08(%rip),%eax        # 21054 <g_100>
   1814c:	31 d0                	xor    %edx,%eax
   1814e:	0f be c0             	movsbl %al,%eax
   18151:	be 28 00 00 00       	mov    $0x28,%esi
   18156:	89 c7                	mov    %eax,%edi
   18158:	e8 b5 f0 fe ff       	callq  7212 <safe_mul_func_int8_t_s_s>
   1815d:	84 c0                	test   %al,%al
   1815f:	0f 84 d9 09 00 00    	je     18b3e <func_50+0x31fd>
   18165:	48 c7 85 60 e8 ff ff 	movq   $0x0,-0x17a0(%rbp)
   1816c:	00 00 00 00 
   18170:	48 8d 85 30 e9 ff ff 	lea    -0x16d0(%rbp),%rax
   18177:	48 89 85 68 e8 ff ff 	mov    %rax,-0x1798(%rbp)
   1817e:	48 8d 85 60 e6 ff ff 	lea    -0x19a0(%rbp),%rax
   18185:	48 89 85 70 e8 ff ff 	mov    %rax,-0x1790(%rbp)
   1818c:	48 c7 85 80 e9 ff ff 	movq   $0x0,-0x1680(%rbp)
   18193:	00 00 00 00 
   18197:	48 c7 85 88 e9 ff ff 	movq   $0x0,-0x1678(%rbp)
   1819e:	00 00 00 00 
   181a2:	48 c7 85 90 e9 ff ff 	movq   $0x0,-0x1670(%rbp)
   181a9:	00 00 00 00 
   181ad:	48 c7 85 98 e9 ff ff 	movq   $0x0,-0x1668(%rbp)
   181b4:	00 00 00 00 
   181b8:	48 8d 05 cb 8f 00 00 	lea    0x8fcb(%rip),%rax        # 2118a <g_190>
   181bf:	48 89 85 78 e8 ff ff 	mov    %rax,-0x1788(%rbp)
   181c6:	48 8d 85 60 f0 ff ff 	lea    -0xfa0(%rbp),%rax
   181cd:	48 8d 15 ac b0 00 00 	lea    0xb0ac(%rip),%rdx        # 23280 <g_3045+0x1e1c>
   181d4:	b9 70 00 00 00       	mov    $0x70,%ecx
   181d9:	48 89 c7             	mov    %rax,%rdi
   181dc:	48 89 d6             	mov    %rdx,%rsi
   181df:	f3 48 a5             	rep movsq %ds:(%rsi),%es:(%rdi)
   181e2:	c7 85 3c e6 ff ff 01 	movl   $0x1,-0x19c4(%rbp)
   181e9:	00 00 00 
   181ec:	48 8b 85 68 e8 ff ff 	mov    -0x1798(%rbp),%rax
   181f3:	8b 10                	mov    (%rax),%edx
   181f5:	48 83 bd d8 e6 ff ff 	cmpq   $0x0,-0x1928(%rbp)
   181fc:	00 
   181fd:	0f 95 c0             	setne  %al
   18200:	0f b6 c0             	movzbl %al,%eax
   18203:	21 c2                	and    %eax,%edx
   18205:	48 8b 85 68 e8 ff ff 	mov    -0x1798(%rbp),%rax
   1820c:	89 10                	mov    %edx,(%rax)
   1820e:	66 c7 85 bc e5 ff ff 	movw   $0x0,-0x1a44(%rbp)
   18215:	00 00 
   18217:	e9 06 09 00 00       	jmpq   18b22 <func_50+0x31e1>
   1821c:	c7 85 70 e6 ff ff 00 	movl   $0x0,-0x1990(%rbp)
   18223:	00 00 00 
   18226:	48 8d 85 a0 eb ff ff 	lea    -0x1460(%rbp),%rax
   1822d:	48 83 c0 18          	add    $0x18,%rax
   18231:	48 89 85 80 e8 ff ff 	mov    %rax,-0x1780(%rbp)
   18238:	48 8b 85 b8 e6 ff ff 	mov    -0x1948(%rbp),%rax
   1823f:	8b 00                	mov    (%rax),%eax
   18241:	8d 50 01             	lea    0x1(%rax),%edx
   18244:	48 8b 85 b8 e6 ff ff 	mov    -0x1948(%rbp),%rax
   1824b:	89 10                	mov    %edx,(%rax)
   1824d:	48 8b 85 a0 e5 ff ff 	mov    -0x1a60(%rbp),%rax
   18254:	0f b6 00             	movzbl (%rax),%eax
   18257:	0f be d8             	movsbl %al,%ebx
   1825a:	44 8b 25 33 8e 00 00 	mov    0x8e33(%rip),%r12d        # 21094 <g_108+0x34>
   18261:	0f b6 85 ac e5 ff ff 	movzbl -0x1a54(%rbp),%eax
   18268:	84 c0                	test   %al,%al
   1826a:	0f 95 c0             	setne  %al
   1826d:	0f b6 c0             	movzbl %al,%eax
   18270:	4c 63 f8             	movslq %eax,%r15
   18273:	4c 8b ad e0 e6 ff ff 	mov    -0x1920(%rbp),%r13
   1827a:	48 8b 85 a0 e5 ff ff 	mov    -0x1a60(%rbp),%rax
   18281:	0f b6 00             	movzbl (%rax),%eax
   18284:	44 0f be f0          	movsbl %al,%r14d
   18288:	48 8b 85 60 e6 ff ff 	mov    -0x19a0(%rbp),%rax
   1828f:	c6 00 dc             	movb   $0xdc,(%rax)
   18292:	8b 05 f4 8e 00 00    	mov    0x8ef4(%rip),%eax        # 2118c <g_192>
   18298:	89 85 98 e5 ff ff    	mov    %eax,-0x1a68(%rbp)
   1829e:	48 8b 85 e0 e6 ff ff 	mov    -0x1920(%rbp),%rax
   182a5:	89 c6                	mov    %eax,%esi
   182a7:	bf 90 de c5 68       	mov    $0x68c5de90,%edi
   182ac:	e8 74 fc fe ff       	callq  7f25 <safe_div_func_uint32_t_u_u>
   182b1:	0f b6 85 ac e5 ff ff 	movzbl -0x1a54(%rbp),%eax
   182b8:	0f b6 c0             	movzbl %al,%eax
   182bb:	8b 95 70 e6 ff ff    	mov    -0x1990(%rbp),%edx
   182c1:	21 d0                	and    %edx,%eax
   182c3:	0f b7 c0             	movzwl %ax,%eax
   182c6:	8b b5 98 e5 ff ff    	mov    -0x1a68(%rbp),%esi
   182cc:	89 c7                	mov    %eax,%edi
   182ce:	e8 75 fb fe ff       	callq  7e48 <safe_rshift_func_uint16_t_u_s>
   182d3:	8b 85 70 e6 ff ff    	mov    -0x1990(%rbp),%eax
   182d9:	98                   	cwtl   
   182da:	be 01 00 00 00       	mov    $0x1,%esi
   182df:	89 c7                	mov    %eax,%edi
   182e1:	e8 7d f2 fe ff       	callq  7563 <safe_rshift_func_int16_t_s_u>
   182e6:	0f be c0             	movsbl %al,%eax
   182e9:	44 89 f6             	mov    %r14d,%esi
   182ec:	89 c7                	mov    %eax,%edi
   182ee:	e8 ff ee fe ff       	callq  71f2 <safe_sub_func_int8_t_s_s>
   182f3:	48 0f be c0          	movsbq %al,%rax
   182f7:	4c 89 ee             	mov    %r13,%rsi
   182fa:	48 89 c7             	mov    %rax,%rdi
   182fd:	e8 3f f5 fe ff       	callq  7841 <safe_add_func_int64_t_s_s>
   18302:	49 39 c7             	cmp    %rax,%r15
   18305:	0f 9e c0             	setle  %al
   18308:	0f b6 c0             	movzbl %al,%eax
   1830b:	44 89 e6             	mov    %r12d,%esi
   1830e:	89 c7                	mov    %eax,%edi
   18310:	e8 ea f3 fe ff       	callq  76ff <safe_div_func_int32_t_s_s>
   18315:	0f b6 95 ac e5 ff ff 	movzbl -0x1a54(%rbp),%edx
   1831c:	0f b6 d2             	movzbl %dl,%edx
   1831f:	39 d0                	cmp    %edx,%eax
   18321:	0f 95 c0             	setne  %al
   18324:	0f b6 d0             	movzbl %al,%edx
   18327:	0f b6 05 26 8d 00 00 	movzbl 0x8d26(%rip),%eax        # 21054 <g_100>
   1832e:	0f be c0             	movsbl %al,%eax
   18331:	39 c2                	cmp    %eax,%edx
   18333:	0f 9e c0             	setle  %al
   18336:	0f b6 c0             	movzbl %al,%eax
   18339:	89 c6                	mov    %eax,%esi
   1833b:	bf 74 00 00 00       	mov    $0x74,%edi
   18340:	e8 33 f8 fe ff       	callq  7b78 <safe_sub_func_uint8_t_u_u>
   18345:	89 de                	mov    %ebx,%esi
   18347:	bf 00 00 00 00       	mov    $0x0,%edi
   1834c:	e8 e0 ee fe ff       	callq  7231 <safe_mod_func_int8_t_s_s>
   18351:	48 8b 15 08 c3 00 00 	mov    0xc308(%rip),%rdx        # 24660 <g_309>
   18358:	48 8b 85 c8 e6 ff ff 	mov    -0x1938(%rbp),%rax
   1835f:	48 89 10             	mov    %rdx,(%rax)
   18362:	48 8b 85 c8 e6 ff ff 	mov    -0x1938(%rbp),%rax
   18369:	48 8b 00             	mov    (%rax),%rax
   1836c:	48 39 85 70 e8 ff ff 	cmp    %rax,-0x1790(%rbp)
   18373:	0f 95 c0             	setne  %al
   18376:	0f b6 c0             	movzbl %al,%eax
   18379:	be 00 00 00 00       	mov    $0x0,%esi
   1837e:	89 c7                	mov    %eax,%edi
   18380:	e8 d5 f7 fe ff       	callq  7b5a <safe_add_func_uint8_t_u_u>
   18385:	48 8b 95 68 e8 ff ff 	mov    -0x1798(%rbp),%rdx
   1838c:	8b 12                	mov    (%rdx),%edx
   1838e:	0f b6 c0             	movzbl %al,%eax
   18391:	09 c2                	or     %eax,%edx
   18393:	48 8b 85 68 e8 ff ff 	mov    -0x1798(%rbp),%rax
   1839a:	89 10                	mov    %edx,(%rax)
   1839c:	48 8b 85 68 e8 ff ff 	mov    -0x1798(%rbp),%rax
   183a3:	8b 00                	mov    (%rax),%eax
   183a5:	85 c0                	test   %eax,%eax
   183a7:	0f 85 8d 00 00 00    	jne    1843a <func_50+0x2af9>
   183ad:	c6 05 9c c2 00 00 00 	movb   $0x0,0xc29c(%rip)        # 24650 <g_111>
   183b4:	eb 74                	jmp    1842a <func_50+0x2ae9>
   183b6:	48 8d 85 50 e6 ff ff 	lea    -0x19b0(%rbp),%rax
   183bd:	48 89 85 e0 e8 ff ff 	mov    %rax,-0x1720(%rbp)
   183c4:	48 8d 85 70 e6 ff ff 	lea    -0x1990(%rbp),%rax
   183cb:	48 89 85 d0 ee ff ff 	mov    %rax,-0x1130(%rbp)
   183d2:	48 8d 85 70 e6 ff ff 	lea    -0x1990(%rbp),%rax
   183d9:	48 89 85 d8 ee ff ff 	mov    %rax,-0x1128(%rbp)
   183e0:	48 8d 85 70 e6 ff ff 	lea    -0x1990(%rbp),%rax
   183e7:	48 89 85 e0 ee ff ff 	mov    %rax,-0x1120(%rbp)
   183ee:	48 8d 85 70 e6 ff ff 	lea    -0x1990(%rbp),%rax
   183f5:	48 89 85 e8 ee ff ff 	mov    %rax,-0x1118(%rbp)
   183fc:	48 8d 85 70 e6 ff ff 	lea    -0x1990(%rbp),%rax
   18403:	48 89 85 f0 ee ff ff 	mov    %rax,-0x1110(%rbp)
   1840a:	0f b6 05 8d 8d 00 00 	movzbl 0x8d8d(%rip),%eax        # 2119e <g_342+0x6>
   18411:	83 e8 01             	sub    $0x1,%eax
   18414:	88 05 84 8d 00 00    	mov    %al,0x8d84(%rip)        # 2119e <g_342+0x6>
   1841a:	0f b6 05 2f c2 00 00 	movzbl 0xc22f(%rip),%eax        # 24650 <g_111>
   18421:	83 e8 01             	sub    $0x1,%eax
   18424:	88 05 26 c2 00 00    	mov    %al,0xc226(%rip)        # 24650 <g_111>
   1842a:	0f b6 05 1f c2 00 00 	movzbl 0xc21f(%rip),%eax        # 24650 <g_111>
   18431:	84 c0                	test   %al,%al
   18433:	79 81                	jns    183b6 <func_50+0x2a75>
   18435:	e9 92 02 00 00       	jmpq   186cc <func_50+0x2d8b>
   1843a:	48 8d 85 58 e6 ff ff 	lea    -0x19a8(%rbp),%rax
   18441:	48 89 85 88 e8 ff ff 	mov    %rax,-0x1778(%rbp)
   18448:	48 8d 85 e0 ea ff ff 	lea    -0x1520(%rbp),%rax
   1844f:	48 83 c0 6c          	add    $0x6c,%rax
   18453:	48 89 85 90 e8 ff ff 	mov    %rax,-0x1770(%rbp)
   1845a:	48 8d 85 30 e9 ff ff 	lea    -0x16d0(%rbp),%rax
   18461:	48 83 c0 0c          	add    $0xc,%rax
   18465:	48 89 85 98 e8 ff ff 	mov    %rax,-0x1768(%rbp)
   1846c:	48 c7 85 a0 e8 ff ff 	movq   $0x0,-0x1760(%rbp)
   18473:	00 00 00 00 
   18477:	48 8d 85 70 e6 ff ff 	lea    -0x1990(%rbp),%rax
   1847e:	48 89 85 a8 e8 ff ff 	mov    %rax,-0x1758(%rbp)
   18485:	48 8d 05 c4 8b 00 00 	lea    0x8bc4(%rip),%rax        # 21050 <g_79>
   1848c:	48 89 85 b0 e8 ff ff 	mov    %rax,-0x1750(%rbp)
   18493:	48 8d 85 e0 ea ff ff 	lea    -0x1520(%rbp),%rax
   1849a:	48 83 c0 6c          	add    $0x6c,%rax
   1849e:	48 89 85 b8 e8 ff ff 	mov    %rax,-0x1748(%rbp)
   184a5:	48 8d 85 30 e9 ff ff 	lea    -0x16d0(%rbp),%rax
   184ac:	48 83 c0 08          	add    $0x8,%rax
   184b0:	48 89 85 c0 e8 ff ff 	mov    %rax,-0x1740(%rbp)
   184b7:	48 c7 85 c8 e8 ff ff 	movq   $0x0,-0x1738(%rbp)
   184be:	00 00 00 00 
   184c2:	48 8d 85 30 e9 ff ff 	lea    -0x16d0(%rbp),%rax
   184c9:	48 89 85 d0 e8 ff ff 	mov    %rax,-0x1730(%rbp)
   184d0:	48 8d 05 4d 8b 00 00 	lea    0x8b4d(%rip),%rax        # 21024 <g_11>
   184d7:	48 89 85 b0 e9 ff ff 	mov    %rax,-0x1650(%rbp)
   184de:	48 8d 85 58 e6 ff ff 	lea    -0x19a8(%rbp),%rax
   184e5:	48 89 85 b8 e9 ff ff 	mov    %rax,-0x1648(%rbp)
   184ec:	48 8d 05 31 8b 00 00 	lea    0x8b31(%rip),%rax        # 21024 <g_11>
   184f3:	48 89 85 c0 e9 ff ff 	mov    %rax,-0x1640(%rbp)
   184fa:	48 8d 85 58 e6 ff ff 	lea    -0x19a8(%rbp),%rax
   18501:	48 89 85 c8 e9 ff ff 	mov    %rax,-0x1638(%rbp)
   18508:	48 8d 05 15 8b 00 00 	lea    0x8b15(%rip),%rax        # 21024 <g_11>
   1850f:	48 89 85 d0 e9 ff ff 	mov    %rax,-0x1630(%rbp)
   18516:	48 8d 05 83 8c 00 00 	lea    0x8c83(%rip),%rax        # 211a0 <g_361>
   1851d:	48 89 85 d8 e8 ff ff 	mov    %rax,-0x1728(%rbp)
   18524:	0f b6 05 3d c1 00 00 	movzbl 0xc13d(%rip),%eax        # 24668 <g_356>
   1852b:	83 c0 01             	add    $0x1,%eax
   1852e:	88 05 34 c1 00 00    	mov    %al,0xc134(%rip)        # 24668 <g_356>
   18534:	83 85 cc e5 ff ff 01 	addl   $0x1,-0x1a34(%rbp)
   1853b:	0f b6 85 ac e5 ff ff 	movzbl -0x1a54(%rbp),%eax
   18542:	0f b6 d0             	movzbl %al,%edx
   18545:	8b 85 ec ea ff ff    	mov    -0x1514(%rbp),%eax
   1854b:	39 c2                	cmp    %eax,%edx
   1854d:	0f 95 c0             	setne  %al
   18550:	0f b6 d0             	movzbl %al,%edx
   18553:	48 8b 85 c0 e6 ff ff 	mov    -0x1940(%rbp),%rax
   1855a:	66 89 10             	mov    %dx,(%rax)
   1855d:	48 8b 85 68 e8 ff ff 	mov    -0x1798(%rbp),%rax
   18564:	8b 00                	mov    (%rax),%eax
   18566:	41 89 c5             	mov    %eax,%r13d
   18569:	8b 85 70 e6 ff ff    	mov    -0x1990(%rbp),%eax
   1856f:	0f be d8             	movsbl %al,%ebx
   18572:	0f b6 85 ac e5 ff ff 	movzbl -0x1a54(%rbp),%eax
   18579:	44 0f b6 e0          	movzbl %al,%r12d
   1857d:	8b 85 c8 e5 ff ff    	mov    -0x1a38(%rbp),%eax
   18583:	0f b6 d0             	movzbl %al,%edx
   18586:	48 83 bd 80 e8 ff ff 	cmpq   $0x0,-0x1780(%rbp)
   1858d:	00 
   1858e:	0f 95 c0             	setne  %al
   18591:	0f b6 c0             	movzbl %al,%eax
   18594:	89 d6                	mov    %edx,%esi
   18596:	89 c7                	mov    %eax,%edi
   18598:	e8 3e f6 fe ff       	callq  7bdb <safe_div_func_uint8_t_u_u>
   1859d:	0f b6 05 f6 8b 00 00 	movzbl 0x8bf6(%rip),%eax        # 2119a <g_342+0x2>
   185a4:	0f b6 d0             	movzbl %al,%edx
   185a7:	48 8b 05 92 8a 00 00 	mov    0x8a92(%rip),%rax        # 21040 <g_59>
   185ae:	48 09 d0             	or     %rdx,%rax
   185b1:	48 89 c2             	mov    %rax,%rdx
   185b4:	48 8b 85 d8 e8 ff ff 	mov    -0x1728(%rbp),%rax
   185bb:	48 89 10             	mov    %rdx,(%rax)
   185be:	48 8b 85 d8 e8 ff ff 	mov    -0x1728(%rbp),%rax
   185c5:	48 8b 00             	mov    (%rax),%rax
   185c8:	48 89 c2             	mov    %rax,%rdx
   185cb:	48 8b 85 90 e8 ff ff 	mov    -0x1770(%rbp),%rax
   185d2:	8b 00                	mov    (%rax),%eax
   185d4:	48 98                	cltq   
   185d6:	48 89 d6             	mov    %rdx,%rsi
   185d9:	48 89 c7             	mov    %rax,%rdi
   185dc:	e8 6a fa fe ff       	callq  804b <safe_sub_func_uint64_t_u_u>
   185e1:	48 8b 05 a8 8b 00 00 	mov    0x8ba8(%rip),%rax        # 21190 <g_227>
   185e8:	48 f7 d0             	not    %rax
   185eb:	48 c1 e8 3f          	shr    $0x3f,%rax
   185ef:	0f b6 c0             	movzbl %al,%eax
   185f2:	89 c7                	mov    %eax,%edi
   185f4:	e8 f0 f6 fe ff       	callq  7ce9 <safe_unary_minus_func_uint16_t_u>
   185f9:	98                   	cwtl   
   185fa:	44 89 e6             	mov    %r12d,%esi
   185fd:	89 c7                	mov    %eax,%edi
   185ff:	e8 8e ee fe ff       	callq  7492 <safe_lshift_func_int16_t_s_s>
   18604:	0f be c0             	movsbl %al,%eax
   18607:	89 de                	mov    %ebx,%esi
   18609:	89 c7                	mov    %eax,%edi
   1860b:	e8 02 ec fe ff       	callq  7212 <safe_mul_func_int8_t_s_s>
   18610:	48 0f be c0          	movsbq %al,%rax
   18614:	34 f9                	xor    $0xf9,%al
   18616:	48 be aa cc 23 57 27 	movabs $0x9036ab275723ccaa,%rsi
   1861d:	ab 36 90 
   18620:	48 89 c7             	mov    %rax,%rdi
   18623:	e8 8c f3 fe ff       	callq  79b4 <safe_mod_func_int64_t_s_s>
   18628:	44 89 ee             	mov    %r13d,%esi
   1862b:	89 c7                	mov    %eax,%edi
   1862d:	e8 cb f8 fe ff       	callq  7efd <safe_mod_func_uint32_t_u_u>
   18632:	0f be c0             	movsbl %al,%eax
   18635:	be 01 00 00 00       	mov    $0x1,%esi
   1863a:	89 c7                	mov    %eax,%edi
   1863c:	e8 d1 eb fe ff       	callq  7212 <safe_mul_func_int8_t_s_s>
   18641:	48 8b 85 a0 e5 ff ff 	mov    -0x1a60(%rbp),%rax
   18648:	0f b6 00             	movzbl (%rax),%eax
   1864b:	0f be c0             	movsbl %al,%eax
   1864e:	89 c6                	mov    %eax,%esi
   18650:	bf db ff ff ff       	mov    $0xffffffdb,%edi
   18655:	e8 b8 eb fe ff       	callq  7212 <safe_mul_func_int8_t_s_s>
   1865a:	0f b6 c0             	movzbl %al,%eax
   1865d:	be 01 00 00 00       	mov    $0x1,%esi
   18662:	89 c7                	mov    %eax,%edi
   18664:	e8 e3 f5 fe ff       	callq  7c4c <safe_lshift_func_uint8_t_u_u>
   18669:	c7 85 d8 e5 ff ff 00 	movl   $0x0,-0x1a28(%rbp)
   18670:	00 00 00 
   18673:	eb 25                	jmp    1869a <func_50+0x2d59>
   18675:	8b 85 d8 e5 ff ff    	mov    -0x1a28(%rbp),%eax
   1867b:	48 98                	cltq   
   1867d:	48 8d 95 90 ec ff ff 	lea    -0x1370(%rbp),%rdx
   18684:	48 81 c2 14 01 00 00 	add    $0x114,%rdx
   1868b:	48 89 94 c5 d0 ee ff 	mov    %rdx,-0x1130(%rbp,%rax,8)
   18692:	ff 
   18693:	83 85 d8 e5 ff ff 01 	addl   $0x1,-0x1a28(%rbp)
   1869a:	83 bd d8 e5 ff ff 07 	cmpl   $0x7,-0x1a28(%rbp)
   186a1:	7e d2                	jle    18675 <func_50+0x2d34>
   186a3:	8b 85 44 e9 ff ff    	mov    -0x16bc(%rbp),%eax
   186a9:	85 c0                	test   %eax,%eax
   186ab:	0f 85 81 04 00 00    	jne    18b32 <func_50+0x31f1>
   186b1:	48 8d 85 50 e6 ff ff 	lea    -0x19b0(%rbp),%rax
   186b8:	48 89 85 d8 ee ff ff 	mov    %rax,-0x1128(%rbp)
   186bf:	48 8b 85 d0 e8 ff ff 	mov    -0x1730(%rbp),%rax
   186c6:	c7 00 4f 66 d9 ae    	movl   $0xaed9664f,(%rax)
   186cc:	c7 85 50 e6 ff ff 00 	movl   $0x0,-0x19b0(%rbp)
   186d3:	00 00 00 
   186d6:	e9 e7 03 00 00       	jmpq   18ac2 <func_50+0x3181>
   186db:	48 8d 85 70 e6 ff ff 	lea    -0x1990(%rbp),%rax
   186e2:	48 89 85 f8 e8 ff ff 	mov    %rax,-0x1708(%rbp)
   186e9:	48 8d 05 60 89 00 00 	lea    0x8960(%rip),%rax        # 21050 <g_79>
   186f0:	48 89 85 00 e9 ff ff 	mov    %rax,-0x1700(%rbp)
   186f7:	48 c7 85 08 e9 ff ff 	movq   $0x0,-0x16f8(%rbp)
   186fe:	00 00 00 00 
   18702:	48 c7 85 10 e9 ff ff 	movq   $0x0,-0x16f0(%rbp)
   18709:	00 00 00 00 
   1870d:	48 8d 85 80 e9 ff ff 	lea    -0x1680(%rbp),%rax
   18714:	48 83 c0 14          	add    $0x14,%rax
   18718:	48 89 85 b0 e9 ff ff 	mov    %rax,-0x1650(%rbp)
   1871f:	48 8d 85 80 e9 ff ff 	lea    -0x1680(%rbp),%rax
   18726:	48 83 c0 14          	add    $0x14,%rax
   1872a:	48 89 85 b8 e9 ff ff 	mov    %rax,-0x1648(%rbp)
   18731:	48 8d 85 80 e9 ff ff 	lea    -0x1680(%rbp),%rax
   18738:	48 83 c0 14          	add    $0x14,%rax
   1873c:	48 89 85 c0 e9 ff ff 	mov    %rax,-0x1640(%rbp)
   18743:	48 8d 85 80 e9 ff ff 	lea    -0x1680(%rbp),%rax
   1874a:	48 83 c0 14          	add    $0x14,%rax
   1874e:	48 89 85 c8 e9 ff ff 	mov    %rax,-0x1638(%rbp)
   18755:	48 8d 85 80 e9 ff ff 	lea    -0x1680(%rbp),%rax
   1875c:	48 83 c0 14          	add    $0x14,%rax
   18760:	48 89 85 d0 e9 ff ff 	mov    %rax,-0x1630(%rbp)
   18767:	48 8d 85 80 e9 ff ff 	lea    -0x1680(%rbp),%rax
   1876e:	48 83 c0 14          	add    $0x14,%rax
   18772:	48 89 85 d8 e9 ff ff 	mov    %rax,-0x1628(%rbp)
   18779:	48 8d 85 80 e9 ff ff 	lea    -0x1680(%rbp),%rax
   18780:	48 83 c0 14          	add    $0x14,%rax
   18784:	48 89 85 e0 e9 ff ff 	mov    %rax,-0x1620(%rbp)
   1878b:	48 8d 85 80 e9 ff ff 	lea    -0x1680(%rbp),%rax
   18792:	48 83 c0 14          	add    $0x14,%rax
   18796:	48 89 85 e8 e9 ff ff 	mov    %rax,-0x1618(%rbp)
   1879d:	48 8d 85 80 e9 ff ff 	lea    -0x1680(%rbp),%rax
   187a4:	48 83 c0 14          	add    $0x14,%rax
   187a8:	48 89 85 f0 e9 ff ff 	mov    %rax,-0x1610(%rbp)
   187af:	48 8d 85 bc e5 ff ff 	lea    -0x1a44(%rbp),%rax
   187b6:	48 89 85 d0 ee ff ff 	mov    %rax,-0x1130(%rbp)
   187bd:	48 c7 85 d8 ee ff ff 	movq   $0x0,-0x1128(%rbp)
   187c4:	00 00 00 00 
   187c8:	48 8d 85 bc e5 ff ff 	lea    -0x1a44(%rbp),%rax
   187cf:	48 89 85 e0 ee ff ff 	mov    %rax,-0x1120(%rbp)
   187d6:	48 c7 85 e8 ee ff ff 	movq   $0x0,-0x1118(%rbp)
   187dd:	00 00 00 00 
   187e1:	48 c7 85 f0 ee ff ff 	movq   $0x0,-0x1110(%rbp)
   187e8:	00 00 00 00 
   187ec:	48 c7 85 f8 ee ff ff 	movq   $0x0,-0x1108(%rbp)
   187f3:	00 00 00 00 
   187f7:	48 8d 85 bc e5 ff ff 	lea    -0x1a44(%rbp),%rax
   187fe:	48 89 85 00 ef ff ff 	mov    %rax,-0x1100(%rbp)
   18805:	48 8d 85 bc e5 ff ff 	lea    -0x1a44(%rbp),%rax
   1880c:	48 89 85 08 ef ff ff 	mov    %rax,-0x10f8(%rbp)
   18813:	48 8d 85 bc e5 ff ff 	lea    -0x1a44(%rbp),%rax
   1881a:	48 89 85 10 ef ff ff 	mov    %rax,-0x10f0(%rbp)
   18821:	48 8d 85 bc e5 ff ff 	lea    -0x1a44(%rbp),%rax
   18828:	48 89 85 18 ef ff ff 	mov    %rax,-0x10e8(%rbp)
   1882f:	48 8d 85 bc e5 ff ff 	lea    -0x1a44(%rbp),%rax
   18836:	48 89 85 20 ef ff ff 	mov    %rax,-0x10e0(%rbp)
   1883d:	48 8d 85 bc e5 ff ff 	lea    -0x1a44(%rbp),%rax
   18844:	48 89 85 28 ef ff ff 	mov    %rax,-0x10d8(%rbp)
   1884b:	48 8d 85 bc e5 ff ff 	lea    -0x1a44(%rbp),%rax
   18852:	48 89 85 30 ef ff ff 	mov    %rax,-0x10d0(%rbp)
   18859:	48 8d 85 bc e5 ff ff 	lea    -0x1a44(%rbp),%rax
   18860:	48 89 85 38 ef ff ff 	mov    %rax,-0x10c8(%rbp)
   18867:	48 8d 85 bc e5 ff ff 	lea    -0x1a44(%rbp),%rax
   1886e:	48 89 85 40 ef ff ff 	mov    %rax,-0x10c0(%rbp)
   18875:	48 c7 85 48 ef ff ff 	movq   $0x0,-0x10b8(%rbp)
   1887c:	00 00 00 00 
   18880:	48 8d 85 bc e5 ff ff 	lea    -0x1a44(%rbp),%rax
   18887:	48 89 85 50 ef ff ff 	mov    %rax,-0x10b0(%rbp)
   1888e:	48 c7 85 58 ef ff ff 	movq   $0x0,-0x10a8(%rbp)
   18895:	00 00 00 00 
   18899:	48 8d 85 bc e5 ff ff 	lea    -0x1a44(%rbp),%rax
   188a0:	48 89 85 60 ef ff ff 	mov    %rax,-0x10a0(%rbp)
   188a7:	48 c7 85 68 ef ff ff 	movq   $0x0,-0x1098(%rbp)
   188ae:	00 00 00 00 
   188b2:	48 8d 85 bc e5 ff ff 	lea    -0x1a44(%rbp),%rax
   188b9:	48 89 85 70 ef ff ff 	mov    %rax,-0x1090(%rbp)
   188c0:	48 8d 85 bc e5 ff ff 	lea    -0x1a44(%rbp),%rax
   188c7:	48 89 85 78 ef ff ff 	mov    %rax,-0x1088(%rbp)
   188ce:	48 8d 85 bc e5 ff ff 	lea    -0x1a44(%rbp),%rax
   188d5:	48 89 85 80 ef ff ff 	mov    %rax,-0x1080(%rbp)
   188dc:	48 c7 85 88 ef ff ff 	movq   $0x0,-0x1078(%rbp)
   188e3:	00 00 00 00 
   188e7:	48 8d 85 bc e5 ff ff 	lea    -0x1a44(%rbp),%rax
   188ee:	48 89 85 90 ef ff ff 	mov    %rax,-0x1070(%rbp)
   188f5:	48 8d 85 bc e5 ff ff 	lea    -0x1a44(%rbp),%rax
   188fc:	48 89 85 98 ef ff ff 	mov    %rax,-0x1068(%rbp)
   18903:	48 c7 85 a0 ef ff ff 	movq   $0x0,-0x1060(%rbp)
   1890a:	00 00 00 00 
   1890e:	48 c7 85 a8 ef ff ff 	movq   $0x0,-0x1058(%rbp)
   18915:	00 00 00 00 
   18919:	48 c7 85 b0 ef ff ff 	movq   $0x0,-0x1050(%rbp)
   18920:	00 00 00 00 
   18924:	48 c7 85 b8 ef ff ff 	movq   $0x0,-0x1048(%rbp)
   1892b:	00 00 00 00 
   1892f:	48 c7 85 c0 ef ff ff 	movq   $0x0,-0x1040(%rbp)
   18936:	00 00 00 00 
   1893a:	48 c7 85 c8 ef ff ff 	movq   $0x0,-0x1038(%rbp)
   18941:	00 00 00 00 
   18945:	48 c7 85 d0 ef ff ff 	movq   $0x0,-0x1030(%rbp)
   1894c:	00 00 00 00 
   18950:	48 c7 85 d8 ef ff ff 	movq   $0x0,-0x1028(%rbp)
   18957:	00 00 00 00 
   1895b:	48 c7 85 e0 ef ff ff 	movq   $0x0,-0x1020(%rbp)
   18962:	00 00 00 00 
   18966:	48 8d 85 bc e5 ff ff 	lea    -0x1a44(%rbp),%rax
   1896d:	48 89 85 e8 ef ff ff 	mov    %rax,-0x1018(%rbp)
   18974:	48 8d 85 bc e5 ff ff 	lea    -0x1a44(%rbp),%rax
   1897b:	48 89 85 f0 ef ff ff 	mov    %rax,-0x1010(%rbp)
   18982:	48 c7 85 f8 ef ff ff 	movq   $0x0,-0x1008(%rbp)
   18989:	00 00 00 00 
   1898d:	48 8d 85 bc e5 ff ff 	lea    -0x1a44(%rbp),%rax
   18994:	48 89 85 00 f0 ff ff 	mov    %rax,-0x1000(%rbp)
   1899b:	48 8d 85 bc e5 ff ff 	lea    -0x1a44(%rbp),%rax
   189a2:	48 89 85 08 f0 ff ff 	mov    %rax,-0xff8(%rbp)
   189a9:	48 8d 85 bc e5 ff ff 	lea    -0x1a44(%rbp),%rax
   189b0:	48 89 85 10 f0 ff ff 	mov    %rax,-0xff0(%rbp)
   189b7:	48 8d 85 bc e5 ff ff 	lea    -0x1a44(%rbp),%rax
   189be:	48 89 85 18 f0 ff ff 	mov    %rax,-0xfe8(%rbp)
   189c5:	48 8d 85 bc e5 ff ff 	lea    -0x1a44(%rbp),%rax
   189cc:	48 89 85 20 f0 ff ff 	mov    %rax,-0xfe0(%rbp)
   189d3:	48 c7 85 28 f0 ff ff 	movq   $0x0,-0xfd8(%rbp)
   189da:	00 00 00 00 
   189de:	48 8d 85 bc e5 ff ff 	lea    -0x1a44(%rbp),%rax
   189e5:	48 89 85 30 f0 ff ff 	mov    %rax,-0xfd0(%rbp)
   189ec:	48 c7 85 38 f0 ff ff 	movq   $0x0,-0xfc8(%rbp)
   189f3:	00 00 00 00 
   189f7:	48 8d 85 bc e5 ff ff 	lea    -0x1a44(%rbp),%rax
   189fe:	48 89 85 40 f0 ff ff 	mov    %rax,-0xfc0(%rbp)
   18a05:	48 c7 85 48 f0 ff ff 	movq   $0x0,-0xfb8(%rbp)
   18a0c:	00 00 00 00 
   18a10:	48 8d 85 bc e5 ff ff 	lea    -0x1a44(%rbp),%rax
   18a17:	48 89 85 50 f0 ff ff 	mov    %rax,-0xfb0(%rbp)
   18a1e:	8b 05 88 87 00 00    	mov    0x8788(%rip),%eax        # 211ac <g_397>
   18a24:	83 e8 01             	sub    $0x1,%eax
   18a27:	89 05 7f 87 00 00    	mov    %eax,0x877f(%rip)        # 211ac <g_397>
   18a2d:	0f b7 85 bc e5 ff ff 	movzwl -0x1a44(%rbp),%eax
   18a34:	98                   	cwtl   
   18a35:	8d 50 01             	lea    0x1(%rax),%edx
   18a38:	8b 85 50 e6 ff ff    	mov    -0x19b0(%rbp),%eax
   18a3e:	83 c0 02             	add    $0x2,%eax
   18a41:	48 63 c8             	movslq %eax,%rcx
   18a44:	48 63 d2             	movslq %edx,%rdx
   18a47:	48 89 d0             	mov    %rdx,%rax
   18a4a:	48 c1 e0 02          	shl    $0x2,%rax
   18a4e:	48 01 d0             	add    %rdx,%rax
   18a51:	48 01 c8             	add    %rcx,%rax
   18a54:	8b 84 85 e0 ea ff ff 	mov    -0x1520(%rbp,%rax,4),%eax
   18a5b:	66 89 05 26 87 00 00 	mov    %ax,0x8726(%rip)        # 21188 <g_189>
   18a62:	48 8b 85 00 e9 ff ff 	mov    -0x1700(%rbp),%rax
   18a69:	c7 00 01 00 00 00    	movl   $0x1,(%rax)
   18a6f:	66 c7 05 10 87 00 00 	movw   $0x0,0x8710(%rip)        # 21188 <g_189>
   18a76:	00 00 
   18a78:	eb 2d                	jmp    18aa7 <func_50+0x3166>
   18a7a:	48 8d 85 30 e9 ff ff 	lea    -0x16d0(%rbp),%rax
   18a81:	48 89 85 f8 e8 ff ff 	mov    %rax,-0x1708(%rbp)
   18a88:	48 8d 05 c1 85 00 00 	lea    0x85c1(%rip),%rax        # 21050 <g_79>
   18a8f:	48 89 05 ba ad 00 00 	mov    %rax,0xadba(%rip)        # 23850 <g_408>
   18a96:	0f b7 05 eb 86 00 00 	movzwl 0x86eb(%rip),%eax        # 21188 <g_189>
   18a9d:	83 c0 01             	add    $0x1,%eax
   18aa0:	66 89 05 e1 86 00 00 	mov    %ax,0x86e1(%rip)        # 21188 <g_189>
   18aa7:	0f b7 05 da 86 00 00 	movzwl 0x86da(%rip),%eax        # 21188 <g_189>
   18aae:	66 85 c0             	test   %ax,%ax
   18ab1:	74 c7                	je     18a7a <func_50+0x3139>
   18ab3:	8b 85 50 e6 ff ff    	mov    -0x19b0(%rbp),%eax
   18ab9:	83 c0 01             	add    $0x1,%eax
   18abc:	89 85 50 e6 ff ff    	mov    %eax,-0x19b0(%rbp)
   18ac2:	8b 85 50 e6 ff ff    	mov    -0x19b0(%rbp),%eax
   18ac8:	85 c0                	test   %eax,%eax
   18aca:	0f 8e 0b fc ff ff    	jle    186db <func_50+0x2d9a>
   18ad0:	48 c7 85 78 e6 ff ff 	movq   $0x0,-0x1988(%rbp)
   18ad7:	00 00 00 00 
   18adb:	eb 2a                	jmp    18b07 <func_50+0x31c6>
   18add:	48 8d 05 4c 85 00 00 	lea    0x854c(%rip),%rax        # 21030 <g_14>
   18ae4:	48 89 85 e8 e8 ff ff 	mov    %rax,-0x1718(%rbp)
   18aeb:	48 8d 85 60 f0 ff ff 	lea    -0xfa0(%rbp),%rax
   18af2:	48 05 80 02 00 00    	add    $0x280,%rax
   18af8:	48 89 85 f0 e8 ff ff 	mov    %rax,-0x1710(%rbp)
   18aff:	48 83 ad 78 e6 ff ff 	subq   $0x1,-0x1988(%rbp)
   18b06:	01 
   18b07:	48 83 bd 78 e6 ff ff 	cmpq   $0x0,-0x1988(%rbp)
   18b0e:	00 
   18b0f:	79 cc                	jns    18add <func_50+0x319c>
   18b11:	0f b7 85 bc e5 ff ff 	movzwl -0x1a44(%rbp),%eax
   18b18:	83 e8 01             	sub    $0x1,%eax
   18b1b:	66 89 85 bc e5 ff ff 	mov    %ax,-0x1a44(%rbp)
   18b22:	0f b7 85 bc e5 ff ff 	movzwl -0x1a44(%rbp),%eax
   18b29:	66 85 c0             	test   %ax,%ax
   18b2c:	0f 89 ea f6 ff ff    	jns    1821c <func_50+0x28db>
   18b32:	48 8b 85 80 e6 ff ff 	mov    -0x1980(%rbp),%rax
   18b39:	e9 18 11 00 00       	jmpq   19c56 <func_50+0x4315>
   18b3e:	c6 85 ba e5 ff ff 01 	movb   $0x1,-0x1a46(%rbp)
   18b45:	c7 85 dc e5 ff ff 45 	movl   $0x80223b45,-0x1a24(%rbp)
   18b4c:	3b 22 80 
   18b4f:	48 8d 05 4a 86 00 00 	lea    0x864a(%rip),%rax        # 211a0 <g_361>
   18b56:	48 89 85 70 e6 ff ff 	mov    %rax,-0x1990(%rbp)
   18b5d:	c6 85 bb e5 ff ff ab 	movb   $0xab,-0x1a45(%rbp)
   18b64:	8b 85 58 e9 ff ff    	mov    -0x16a8(%rbp),%eax
   18b6a:	85 c0                	test   %eax,%eax
   18b6c:	0f 84 96 09 00 00    	je     19508 <func_50+0x3bc7>
   18b72:	66 c7 85 c0 e5 ff ff 	movw   $0x97f7,-0x1a40(%rbp)
   18b79:	f7 97 
   18b7b:	48 8d 85 50 e6 ff ff 	lea    -0x19b0(%rbp),%rax
   18b82:	48 89 85 58 e7 ff ff 	mov    %rax,-0x18a8(%rbp)
   18b89:	48 8d 05 0e 86 00 00 	lea    0x860e(%rip),%rax        # 2119e <g_342+0x6>
   18b90:	48 89 85 60 e7 ff ff 	mov    %rax,-0x18a0(%rbp)
   18b97:	48 c7 85 68 e7 ff ff 	movq   $0x0,-0x1898(%rbp)
   18b9e:	00 00 00 00 
   18ba2:	48 8d 85 70 e6 ff ff 	lea    -0x1990(%rbp),%rax
   18ba9:	48 89 85 70 e7 ff ff 	mov    %rax,-0x1890(%rbp)
   18bb0:	c7 85 20 e6 ff ff a9 	movl   $0x50ae47a9,-0x19e0(%rbp)
   18bb7:	47 ae 50 
   18bba:	c7 85 e0 e5 ff ff 00 	movl   $0x0,-0x1a20(%rbp)
   18bc1:	00 00 00 
   18bc4:	eb 1b                	jmp    18be1 <func_50+0x32a0>
   18bc6:	8b 85 e0 e5 ff ff    	mov    -0x1a20(%rbp),%eax
   18bcc:	48 98                	cltq   
   18bce:	48 c7 84 c5 b0 e9 ff 	movq   $0x0,-0x1650(%rbp,%rax,8)
   18bd5:	ff 00 00 00 00 
   18bda:	83 85 e0 e5 ff ff 01 	addl   $0x1,-0x1a20(%rbp)
   18be1:	83 bd e0 e5 ff ff 02 	cmpl   $0x2,-0x1a20(%rbp)
   18be8:	7e dc                	jle    18bc6 <func_50+0x3285>
   18bea:	0f b7 85 c0 e5 ff ff 	movzwl -0x1a40(%rbp),%eax
   18bf1:	0f be d0             	movsbl %al,%edx
   18bf4:	0f be 85 ba e5 ff ff 	movsbl -0x1a46(%rbp),%eax
   18bfb:	89 d6                	mov    %edx,%esi
   18bfd:	89 c7                	mov    %eax,%edi
   18bff:	e8 ee e5 fe ff       	callq  71f2 <safe_sub_func_int8_t_s_s>
   18c04:	0f be d0             	movsbl %al,%edx
   18c07:	0f b6 05 90 85 00 00 	movzbl 0x8590(%rip),%eax        # 2119e <g_342+0x6>
   18c0e:	84 c0                	test   %al,%al
   18c10:	0f 94 c0             	sete   %al
   18c13:	0f b6 c0             	movzbl %al,%eax
   18c16:	89 d6                	mov    %edx,%esi
   18c18:	89 c7                	mov    %eax,%edi
   18c1a:	e8 e6 e9 fe ff       	callq  7605 <safe_sub_func_int32_t_s_s>
   18c1f:	85 c0                	test   %eax,%eax
   18c21:	0f 84 23 03 00 00    	je     18f4a <func_50+0x3609>
   18c27:	c7 85 24 e6 ff ff f6 	movl   $0xfffffff6,-0x19dc(%rbp)
   18c2e:	ff ff ff 
   18c31:	c7 85 28 e6 ff ff 1a 	movl   $0xc6370d1a,-0x19d8(%rbp)
   18c38:	0d 37 c6 
   18c3b:	48 8d 85 b7 e5 ff ff 	lea    -0x1a49(%rbp),%rax
   18c42:	48 89 85 80 e7 ff ff 	mov    %rax,-0x1880(%rbp)
   18c49:	c7 85 e4 e5 ff ff 00 	movl   $0x0,-0x1a1c(%rbp)
   18c50:	00 00 00 
   18c53:	eb 1e                	jmp    18c73 <func_50+0x3332>
   18c55:	8b 85 e4 e5 ff ff    	mov    -0x1a1c(%rbp),%eax
   18c5b:	48 98                	cltq   
   18c5d:	48 8d 15 d0 83 00 00 	lea    0x83d0(%rip),%rdx        # 21034 <g_25>
   18c64:	48 89 94 c5 d0 ee ff 	mov    %rdx,-0x1130(%rbp,%rax,8)
   18c6b:	ff 
   18c6c:	83 85 e4 e5 ff ff 01 	addl   $0x1,-0x1a1c(%rbp)
   18c73:	83 bd e4 e5 ff ff 00 	cmpl   $0x0,-0x1a1c(%rbp)
   18c7a:	7e d9                	jle    18c55 <func_50+0x3314>
   18c7c:	c7 05 fa 84 00 00 09 	movl   $0x9,0x84fa(%rip)        # 21180 <g_117>
   18c83:	00 00 00 
   18c86:	e9 11 01 00 00       	jmpq   18d9c <func_50+0x345b>
   18c8b:	48 8d 85 40 ea ff ff 	lea    -0x15c0(%rbp),%rax
   18c92:	48 83 c0 20          	add    $0x20,%rax
   18c96:	48 89 85 e0 e7 ff ff 	mov    %rax,-0x1820(%rbp)
   18c9d:	48 8d 05 ac ab 00 00 	lea    0xabac(%rip),%rax        # 23850 <g_408>
   18ca4:	48 89 85 e8 e7 ff ff 	mov    %rax,-0x1818(%rbp)
   18cab:	48 8d 85 50 e6 ff ff 	lea    -0x19b0(%rbp),%rax
   18cb2:	48 89 85 f0 e7 ff ff 	mov    %rax,-0x1810(%rbp)
   18cb9:	48 8d 85 40 e9 ff ff 	lea    -0x16c0(%rbp),%rax
   18cc0:	48 83 c0 14          	add    $0x14,%rax
   18cc4:	48 89 85 f8 e7 ff ff 	mov    %rax,-0x1808(%rbp)
   18ccb:	48 8d 85 58 e6 ff ff 	lea    -0x19a8(%rbp),%rax
   18cd2:	48 89 85 00 e8 ff ff 	mov    %rax,-0x1800(%rbp)
   18cd9:	48 8d 85 90 ec ff ff 	lea    -0x1370(%rbp),%rax
   18ce0:	48 05 14 01 00 00    	add    $0x114,%rax
   18ce6:	48 89 85 08 e8 ff ff 	mov    %rax,-0x17f8(%rbp)
   18ced:	48 8d 85 30 e9 ff ff 	lea    -0x16d0(%rbp),%rax
   18cf4:	48 89 85 60 f0 ff ff 	mov    %rax,-0xfa0(%rbp)
   18cfb:	48 8d 85 30 e9 ff ff 	lea    -0x16d0(%rbp),%rax
   18d02:	48 89 85 68 f0 ff ff 	mov    %rax,-0xf98(%rbp)
   18d09:	48 8d 85 30 e9 ff ff 	lea    -0x16d0(%rbp),%rax
   18d10:	48 89 85 70 f0 ff ff 	mov    %rax,-0xf90(%rbp)
   18d17:	48 8d 85 30 e9 ff ff 	lea    -0x16d0(%rbp),%rax
   18d1e:	48 89 85 78 f0 ff ff 	mov    %rax,-0xf88(%rbp)
   18d25:	48 8d 85 30 e9 ff ff 	lea    -0x16d0(%rbp),%rax
   18d2c:	48 89 85 80 f0 ff ff 	mov    %rax,-0xf80(%rbp)
   18d33:	48 8b 95 60 ea ff ff 	mov    -0x15a0(%rbp),%rdx
   18d3a:	48 8b 85 e0 e7 ff ff 	mov    -0x1820(%rbp),%rax
   18d41:	48 89 10             	mov    %rdx,(%rax)
   18d44:	48 8b 85 e8 e7 ff ff 	mov    -0x1818(%rbp),%rax
   18d4b:	48 8d 15 d2 82 00 00 	lea    0x82d2(%rip),%rdx        # 21024 <g_11>
   18d52:	48 89 10             	mov    %rdx,(%rax)
   18d55:	48 8b 85 e8 e7 ff ff 	mov    -0x1818(%rbp),%rax
   18d5c:	48 8d 95 90 ec ff ff 	lea    -0x1370(%rbp),%rdx
   18d63:	48 81 c2 e8 00 00 00 	add    $0xe8,%rdx
   18d6a:	48 89 10             	mov    %rdx,(%rax)
   18d6d:	0f b7 05 40 84 00 00 	movzwl 0x8440(%rip),%eax        # 211b4 <g_465>
   18d74:	83 e8 01             	sub    $0x1,%eax
   18d77:	66 89 05 36 84 00 00 	mov    %ax,0x8436(%rip)        # 211b4 <g_465>
   18d7e:	8b 05 fc 83 00 00    	mov    0x83fc(%rip),%eax        # 21180 <g_117>
   18d84:	0f b7 c0             	movzwl %ax,%eax
   18d87:	be 04 00 00 00       	mov    $0x4,%esi
   18d8c:	89 c7                	mov    %eax,%edi
   18d8e:	e8 6c ef fe ff       	callq  7cff <safe_add_func_uint16_t_u_u>
   18d93:	0f b7 c0             	movzwl %ax,%eax
   18d96:	89 05 e4 83 00 00    	mov    %eax,0x83e4(%rip)        # 21180 <g_117>
   18d9c:	8b 05 de 83 00 00    	mov    0x83de(%rip),%eax        # 21180 <g_117>
   18da2:	83 f8 09             	cmp    $0x9,%eax
   18da5:	0f 85 e0 fe ff ff    	jne    18c8b <func_50+0x334a>
   18dab:	48 8b 05 9e aa 00 00 	mov    0xaa9e(%rip),%rax        # 23850 <g_408>
   18db2:	c7 00 86 58 06 37    	movl   $0x37065886,(%rax)
   18db8:	48 8d 05 91 aa 00 00 	lea    0xaa91(%rip),%rax        # 23850 <g_408>
   18dbf:	48 89 85 88 e7 ff ff 	mov    %rax,-0x1878(%rbp)
   18dc6:	48 8d 85 30 e9 ff ff 	lea    -0x16d0(%rbp),%rax
   18dcd:	48 89 85 90 e7 ff ff 	mov    %rax,-0x1870(%rbp)
   18dd4:	48 c7 85 98 e7 ff ff 	movq   $0x0,-0x1868(%rbp)
   18ddb:	00 00 00 00 
   18ddf:	48 8d 85 50 e6 ff ff 	lea    -0x19b0(%rbp),%rax
   18de6:	48 89 85 a0 e7 ff ff 	mov    %rax,-0x1860(%rbp)
   18ded:	48 8d 85 50 e6 ff ff 	lea    -0x19b0(%rbp),%rax
   18df4:	48 89 85 a8 e7 ff ff 	mov    %rax,-0x1858(%rbp)
   18dfb:	48 8d 85 e0 ea ff ff 	lea    -0x1520(%rbp),%rax
   18e02:	48 83 c0 5c          	add    $0x5c,%rax
   18e06:	48 89 85 b0 e7 ff ff 	mov    %rax,-0x1850(%rbp)
   18e0d:	48 8d 05 3c 82 00 00 	lea    0x823c(%rip),%rax        # 21050 <g_79>
   18e14:	48 89 85 b8 e7 ff ff 	mov    %rax,-0x1848(%rbp)
   18e1b:	48 8d 85 90 ec ff ff 	lea    -0x1370(%rbp),%rax
   18e22:	48 05 a4 00 00 00    	add    $0xa4,%rax
   18e28:	48 89 85 c0 e7 ff ff 	mov    %rax,-0x1840(%rbp)
   18e2f:	48 8d 85 50 e6 ff ff 	lea    -0x19b0(%rbp),%rax
   18e36:	48 89 85 c8 e7 ff ff 	mov    %rax,-0x1838(%rbp)
   18e3d:	48 c7 85 d0 e7 ff ff 	movq   $0x0,-0x1830(%rbp)
   18e44:	00 00 00 00 
   18e48:	48 8d 85 30 e9 ff ff 	lea    -0x16d0(%rbp),%rax
   18e4f:	48 89 85 d8 e7 ff ff 	mov    %rax,-0x1828(%rbp)
   18e56:	c7 85 e8 e5 ff ff 00 	movl   $0x0,-0x1a18(%rbp)
   18e5d:	00 00 00 
   18e60:	eb 25                	jmp    18e87 <func_50+0x3546>
   18e62:	8b 85 e8 e5 ff ff    	mov    -0x1a18(%rbp),%eax
   18e68:	48 98                	cltq   
   18e6a:	48 8d 95 90 ec ff ff 	lea    -0x1370(%rbp),%rdx
   18e71:	48 81 c2 14 01 00 00 	add    $0x114,%rdx
   18e78:	48 89 94 c5 60 f0 ff 	mov    %rdx,-0xfa0(%rbp,%rax,8)
   18e7f:	ff 
   18e80:	83 85 e8 e5 ff ff 01 	addl   $0x1,-0x1a18(%rbp)
   18e87:	83 bd e8 e5 ff ff 03 	cmpl   $0x3,-0x1a18(%rbp)
   18e8e:	7e d2                	jle    18e62 <func_50+0x3521>
   18e90:	48 8b 85 88 e7 ff ff 	mov    -0x1878(%rbp),%rax
   18e97:	48 8d 15 b2 81 00 00 	lea    0x81b2(%rip),%rdx        # 21050 <g_79>
   18e9e:	48 89 10             	mov    %rdx,(%rax)
   18ea1:	48 8b 85 88 e7 ff ff 	mov    -0x1878(%rbp),%rax
   18ea8:	48 8b 95 58 e7 ff ff 	mov    -0x18a8(%rbp),%rdx
   18eaf:	48 89 10             	mov    %rdx,(%rax)
   18eb2:	0f b6 05 26 83 00 00 	movzbl 0x8326(%rip),%eax        # 211df <g_481+0x1f>
   18eb9:	83 c0 01             	add    $0x1,%eax
   18ebc:	88 05 1d 83 00 00    	mov    %al,0x831d(%rip)        # 211df <g_481+0x1f>
   18ec2:	48 8d 05 8f b7 00 00 	lea    0xb78f(%rip),%rax        # 24658 <g_266>
   18ec9:	48 89 05 d8 a9 00 00 	mov    %rax,0xa9d8(%rip)        # 238a8 <g_484+0x48>
   18ed0:	48 c7 85 e0 e6 ff ff 	movq   $0x0,-0x1920(%rbp)
   18ed7:	00 00 00 00 
   18edb:	48 83 bd e0 e6 ff ff 	cmpq   $0x1b,-0x1920(%rbp)
   18ee2:	1b 
   18ee3:	76 0c                	jbe    18ef1 <func_50+0x35b0>
   18ee5:	48 8b 85 d0 ee ff ff 	mov    -0x1130(%rbp),%rax
   18eec:	e9 65 0d 00 00       	jmpq   19c56 <func_50+0x4315>
   18ef1:	c7 85 58 e6 ff ff 00 	movl   $0x0,-0x19a8(%rbp)
   18ef8:	00 00 00 
   18efb:	90                   	nop
   18efc:	8b 85 58 e6 ff ff    	mov    -0x19a8(%rbp),%eax
   18f02:	83 f8 ee             	cmp    $0xffffffee,%eax
   18f05:	0f 8c eb 03 00 00    	jl     192f6 <func_50+0x39b5>
   18f0b:	c7 85 ec e5 ff ff 00 	movl   $0x0,-0x1a14(%rbp)
   18f12:	00 00 00 
   18f15:	eb 14                	jmp    18f2b <func_50+0x35ea>
   18f17:	8b 85 ec e5 ff ff    	mov    -0x1a14(%rbp),%eax
   18f1d:	48 98                	cltq   
   18f1f:	c6 44 05 c5 08       	movb   $0x8,-0x3b(%rbp,%rax,1)
   18f24:	83 85 ec e5 ff ff 01 	addl   $0x1,-0x1a14(%rbp)
   18f2b:	83 bd ec e5 ff ff 02 	cmpl   $0x2,-0x1a14(%rbp)
   18f32:	7e e3                	jle    18f17 <func_50+0x35d6>
   18f34:	0f b6 45 c5          	movzbl -0x3b(%rbp),%eax
   18f38:	83 e8 01             	sub    $0x1,%eax
   18f3b:	88 45 c5             	mov    %al,-0x3b(%rbp)
   18f3e:	48 8b 85 60 e7 ff ff 	mov    -0x18a0(%rbp),%rax
   18f45:	e9 0c 0d 00 00       	jmpq   19c56 <func_50+0x4315>
   18f4a:	48 8d 85 60 f0 ff ff 	lea    -0xfa0(%rbp),%rax
   18f51:	48 8d 15 88 40 00 00 	lea    0x4088(%rip),%rdx        # 1cfe0 <g_2878+0x1f80>
   18f58:	b9 f0 00 00 00       	mov    $0xf0,%ecx
   18f5d:	48 89 c7             	mov    %rax,%rdi
   18f60:	48 89 d6             	mov    %rdx,%rsi
   18f63:	f3 48 a5             	rep movsq %ds:(%rsi),%es:(%rdi)
   18f66:	c6 85 ac e5 ff ff fa 	movb   $0xfa,-0x1a54(%rbp)
   18f6d:	e9 73 03 00 00       	jmpq   192e5 <func_50+0x39a4>
   18f72:	48 8d 05 d7 a8 00 00 	lea    0xa8d7(%rip),%rax        # 23850 <g_408>
   18f79:	48 89 85 78 e7 ff ff 	mov    %rax,-0x1888(%rbp)
   18f80:	48 8d 85 30 e9 ff ff 	lea    -0x16d0(%rbp),%rax
   18f87:	48 89 85 d0 ee ff ff 	mov    %rax,-0x1130(%rbp)
   18f8e:	48 c7 85 d8 ee ff ff 	movq   $0x0,-0x1128(%rbp)
   18f95:	00 00 00 00 
   18f99:	48 8d 85 30 e9 ff ff 	lea    -0x16d0(%rbp),%rax
   18fa0:	48 89 85 e0 ee ff ff 	mov    %rax,-0x1120(%rbp)
   18fa7:	48 c7 85 e8 ee ff ff 	movq   $0x0,-0x1118(%rbp)
   18fae:	00 00 00 00 
   18fb2:	48 8d 85 30 e9 ff ff 	lea    -0x16d0(%rbp),%rax
   18fb9:	48 89 85 f0 ee ff ff 	mov    %rax,-0x1110(%rbp)
   18fc0:	48 8d 85 30 e9 ff ff 	lea    -0x16d0(%rbp),%rax
   18fc7:	48 89 85 f8 ee ff ff 	mov    %rax,-0x1108(%rbp)
   18fce:	48 8d 85 90 ec ff ff 	lea    -0x1370(%rbp),%rax
   18fd5:	48 83 c0 70          	add    $0x70,%rax
   18fd9:	48 89 85 00 ef ff ff 	mov    %rax,-0x1100(%rbp)
   18fe0:	48 c7 85 08 ef ff ff 	movq   $0x0,-0x10f8(%rbp)
   18fe7:	00 00 00 00 
   18feb:	48 c7 85 10 ef ff ff 	movq   $0x0,-0x10f0(%rbp)
   18ff2:	00 00 00 00 
   18ff6:	48 8d 85 90 ec ff ff 	lea    -0x1370(%rbp),%rax
   18ffd:	48 83 c0 70          	add    $0x70,%rax
   19001:	48 89 85 18 ef ff ff 	mov    %rax,-0x10e8(%rbp)
   19008:	48 c7 85 20 ef ff ff 	movq   $0x0,-0x10e0(%rbp)
   1900f:	00 00 00 00 
   19013:	48 8d 85 90 ec ff ff 	lea    -0x1370(%rbp),%rax
   1901a:	48 83 c0 70          	add    $0x70,%rax
   1901e:	48 89 85 28 ef ff ff 	mov    %rax,-0x10d8(%rbp)
   19025:	48 8d 85 90 ec ff ff 	lea    -0x1370(%rbp),%rax
   1902c:	48 83 c0 70          	add    $0x70,%rax
   19030:	48 89 85 30 ef ff ff 	mov    %rax,-0x10d0(%rbp)
   19037:	48 c7 85 38 ef ff ff 	movq   $0x0,-0x10c8(%rbp)
   1903e:	00 00 00 00 
   19042:	48 8d 85 90 ec ff ff 	lea    -0x1370(%rbp),%rax
   19049:	48 83 c0 70          	add    $0x70,%rax
   1904d:	48 89 85 40 ef ff ff 	mov    %rax,-0x10c0(%rbp)
   19054:	48 c7 85 48 ef ff ff 	movq   $0x0,-0x10b8(%rbp)
   1905b:	00 00 00 00 
   1905f:	48 c7 85 50 ef ff ff 	movq   $0x0,-0x10b0(%rbp)
   19066:	00 00 00 00 
   1906a:	48 8d 85 30 e9 ff ff 	lea    -0x16d0(%rbp),%rax
   19071:	48 89 85 58 ef ff ff 	mov    %rax,-0x10a8(%rbp)
   19078:	48 c7 85 60 ef ff ff 	movq   $0x0,-0x10a0(%rbp)
   1907f:	00 00 00 00 
   19083:	48 c7 85 68 ef ff ff 	movq   $0x0,-0x1098(%rbp)
   1908a:	00 00 00 00 
   1908e:	48 8d 85 90 ec ff ff 	lea    -0x1370(%rbp),%rax
   19095:	48 83 c0 70          	add    $0x70,%rax
   19099:	48 89 85 70 ef ff ff 	mov    %rax,-0x1090(%rbp)
   190a0:	48 c7 85 78 ef ff ff 	movq   $0x0,-0x1088(%rbp)
   190a7:	00 00 00 00 
   190ab:	48 8d 85 90 ec ff ff 	lea    -0x1370(%rbp),%rax
   190b2:	48 83 c0 70          	add    $0x70,%rax
   190b6:	48 89 85 80 ef ff ff 	mov    %rax,-0x1080(%rbp)
   190bd:	48 c7 85 88 ef ff ff 	movq   $0x0,-0x1078(%rbp)
   190c4:	00 00 00 00 
   190c8:	48 8d 85 90 ec ff ff 	lea    -0x1370(%rbp),%rax
   190cf:	48 83 c0 70          	add    $0x70,%rax
   190d3:	48 89 85 90 ef ff ff 	mov    %rax,-0x1070(%rbp)
   190da:	48 8d 85 30 e9 ff ff 	lea    -0x16d0(%rbp),%rax
   190e1:	48 89 85 98 ef ff ff 	mov    %rax,-0x1068(%rbp)
   190e8:	48 c7 85 a0 ef ff ff 	movq   $0x0,-0x1060(%rbp)
   190ef:	00 00 00 00 
   190f3:	48 c7 85 a8 ef ff ff 	movq   $0x0,-0x1058(%rbp)
   190fa:	00 00 00 00 
   190fe:	48 8d 85 30 e9 ff ff 	lea    -0x16d0(%rbp),%rax
   19105:	48 89 85 b0 ef ff ff 	mov    %rax,-0x1050(%rbp)
   1910c:	48 8d 85 90 ec ff ff 	lea    -0x1370(%rbp),%rax
   19113:	48 83 c0 70          	add    $0x70,%rax
   19117:	48 89 85 b8 ef ff ff 	mov    %rax,-0x1048(%rbp)
   1911e:	48 8b 85 a0 e5 ff ff 	mov    -0x1a60(%rbp),%rax
   19125:	0f b6 00             	movzbl (%rax),%eax
   19128:	0f b6 d8             	movzbl %al,%ebx
   1912b:	44 8b a5 4c eb ff ff 	mov    -0x14b4(%rbp),%r12d
   19132:	8b 85 cc e5 ff ff    	mov    -0x1a34(%rbp),%eax
   19138:	44 0f be e8          	movsbl %al,%r13d
   1913c:	0f b6 85 ac e5 ff ff 	movzbl -0x1a54(%rbp),%eax
   19143:	0f b6 c0             	movzbl %al,%eax
   19146:	48 89 85 98 e5 ff ff 	mov    %rax,-0x1a68(%rbp)
   1914d:	0f b7 05 60 80 00 00 	movzwl 0x8060(%rip),%eax        # 211b4 <g_465>
   19154:	44 0f b7 f0          	movzwl %ax,%r14d
   19158:	48 8b 05 e1 7e 00 00 	mov    0x7ee1(%rip),%rax        # 21040 <g_59>
   1915f:	89 85 a8 e5 ff ff    	mov    %eax,-0x1a58(%rbp)
   19165:	8b 85 48 e9 ff ff    	mov    -0x16b8(%rbp),%eax
   1916b:	4c 63 f8             	movslq %eax,%r15
   1916e:	48 8b 85 58 e7 ff ff 	mov    -0x18a8(%rbp),%rax
   19175:	8b 00                	mov    (%rax),%eax
   19177:	0f be c0             	movsbl %al,%eax
   1917a:	be 02 00 00 00       	mov    $0x2,%esi
   1917f:	89 c7                	mov    %eax,%edi
   19181:	e8 e6 e1 fe ff       	callq  736c <safe_rshift_func_int8_t_s_u>
   19186:	48 0f be c0          	movsbq %al,%rax
   1918a:	4c 89 fe             	mov    %r15,%rsi
   1918d:	48 89 c7             	mov    %rax,%rdi
   19190:	e8 13 e7 fe ff       	callq  78a8 <safe_sub_func_int64_t_s_s>
   19195:	48 8b 85 78 e7 ff ff 	mov    -0x1888(%rbp),%rax
   1919c:	48 8d 15 ad 7e 00 00 	lea    0x7ead(%rip),%rdx        # 21050 <g_79>
   191a3:	48 89 10             	mov    %rdx,(%rax)
   191a6:	48 8b 85 78 e7 ff ff 	mov    -0x1888(%rbp),%rax
   191ad:	48 8b 00             	mov    (%rax),%rax
   191b0:	48 8d 95 90 ec ff ff 	lea    -0x1370(%rbp),%rdx
   191b7:	48 81 c2 ec 00 00 00 	add    $0xec,%rdx
   191be:	48 39 d0             	cmp    %rdx,%rax
   191c1:	80 bd ba e5 ff ff 00 	cmpb   $0x0,-0x1a46(%rbp)
   191c8:	74 18                	je     191e2 <func_50+0x38a1>
   191ca:	8b 85 a4 ec ff ff    	mov    -0x135c(%rbp),%eax
   191d0:	0f b7 c0             	movzwl %ax,%eax
   191d3:	be 0d 00 00 00       	mov    $0xd,%esi
   191d8:	89 c7                	mov    %eax,%edi
   191da:	e8 9b ec fe ff       	callq  7e7a <safe_rshift_func_uint16_t_u_u>
   191df:	66 85 c0             	test   %ax,%ax
   191e2:	0f b7 05 cb 7f 00 00 	movzwl 0x7fcb(%rip),%eax        # 211b4 <g_465>
   191e9:	66 3d dd 73          	cmp    $0x73dd,%ax
   191ed:	0f 95 c0             	setne  %al
   191f0:	0f b6 c0             	movzbl %al,%eax
   191f3:	be 06 00 00 00       	mov    $0x6,%esi
   191f8:	89 c7                	mov    %eax,%edi
   191fa:	e8 bf ea fe ff       	callq  7cbe <safe_rshift_func_uint8_t_u_u>
   191ff:	84 c0                	test   %al,%al
   19201:	74 07                	je     1920a <func_50+0x38c9>
   19203:	ba 01 00 00 00       	mov    $0x1,%edx
   19208:	eb 05                	jmp    1920f <func_50+0x38ce>
   1920a:	ba 00 00 00 00       	mov    $0x0,%edx
   1920f:	48 8b 85 a0 e5 ff ff 	mov    -0x1a60(%rbp),%rax
   19216:	0f b6 00             	movzbl (%rax),%eax
   19219:	0f b6 c0             	movzbl %al,%eax
   1921c:	39 c2                	cmp    %eax,%edx
   1921e:	0f 95 c0             	setne  %al
   19221:	0f b6 c0             	movzbl %al,%eax
   19224:	8b b5 a8 e5 ff ff    	mov    -0x1a58(%rbp),%esi
   1922a:	89 c7                	mov    %eax,%edi
   1922c:	e8 49 ec fe ff       	callq  7e7a <safe_rshift_func_uint16_t_u_u>
   19231:	0f b7 c0             	movzwl %ax,%eax
   19234:	be a4 3a 00 00       	mov    $0x3aa4,%esi
   19239:	89 c7                	mov    %eax,%edi
   1923b:	e8 4e eb fe ff       	callq  7d8e <safe_div_func_uint16_t_u_u>
   19240:	0f b7 c0             	movzwl %ax,%eax
   19243:	89 c6                	mov    %eax,%esi
   19245:	bf de d7 00 00       	mov    $0xd7de,%edi
   1924a:	e8 3f eb fe ff       	callq  7d8e <safe_div_func_uint16_t_u_u>
   1924f:	0f b7 c0             	movzwl %ax,%eax
   19252:	4c 89 f6             	mov    %r14,%rsi
   19255:	48 89 c7             	mov    %rax,%rdi
   19258:	e8 52 ee fe ff       	callq  80af <safe_div_func_uint64_t_u_u>
   1925d:	48 39 85 98 e5 ff ff 	cmp    %rax,-0x1a68(%rbp)
   19264:	0f 96 c0             	setbe  %al
   19267:	0f b6 c0             	movzbl %al,%eax
   1926a:	44 89 ee             	mov    %r13d,%esi
   1926d:	89 c7                	mov    %eax,%edi
   1926f:	e8 9e df fe ff       	callq  7212 <safe_mul_func_int8_t_s_s>
   19274:	0f be c0             	movsbl %al,%eax
   19277:	44 89 e6             	mov    %r12d,%esi
   1927a:	89 c7                	mov    %eax,%edi
   1927c:	e8 35 e3 fe ff       	callq  75b6 <safe_add_func_int32_t_s_s>
   19281:	0f be c0             	movsbl %al,%eax
   19284:	be cf ff ff ff       	mov    $0xffffffcf,%esi
   19289:	89 c7                	mov    %eax,%edi
   1928b:	e8 da df fe ff       	callq  726a <safe_div_func_int8_t_s_s>
   19290:	0f be d0             	movsbl %al,%edx
   19293:	0f b6 85 ac e5 ff ff 	movzbl -0x1a54(%rbp),%eax
   1929a:	0f b6 c0             	movzbl %al,%eax
   1929d:	39 c2                	cmp    %eax,%edx
   1929f:	0f 9e c0             	setle  %al
   192a2:	0f b6 c0             	movzbl %al,%eax
   192a5:	89 de                	mov    %ebx,%esi
   192a7:	89 c7                	mov    %eax,%edi
   192a9:	e8 e5 e8 fe ff       	callq  7b93 <safe_mul_func_uint8_t_u_u>
   192ae:	48 8b 85 e0 f2 ff ff 	mov    -0xd20(%rbp),%rax
   192b5:	48 83 c8 01          	or     $0x1,%rax
   192b9:	89 c2                	mov    %eax,%edx
   192bb:	8b 85 dc e5 ff ff    	mov    -0x1a24(%rbp),%eax
   192c1:	09 d0                	or     %edx,%eax
   192c3:	89 85 dc e5 ff ff    	mov    %eax,-0x1a24(%rbp)
   192c9:	0f b6 85 ac e5 ff ff 	movzbl -0x1a54(%rbp),%eax
   192d0:	0f b6 c0             	movzbl %al,%eax
   192d3:	be 03 00 00 00       	mov    $0x3,%esi
   192d8:	89 c7                	mov    %eax,%edi
   192da:	e8 d9 eb fe ff       	callq  7eb8 <safe_add_func_uint32_t_u_u>
   192df:	88 85 ac e5 ff ff    	mov    %al,-0x1a54(%rbp)
   192e5:	0f b6 85 ac e5 ff ff 	movzbl -0x1a54(%rbp),%eax
   192ec:	3c 36                	cmp    $0x36,%al
   192ee:	0f 87 7e fc ff ff    	ja     18f72 <func_50+0x3631>
   192f4:	eb 01                	jmp    192f7 <func_50+0x39b6>
   192f6:	90                   	nop
   192f7:	48 8b 05 42 7d 00 00 	mov    0x7d42(%rip),%rax        # 21040 <g_59>
   192fe:	41 89 c4             	mov    %eax,%r12d
   19301:	0f b6 05 d7 7e 00 00 	movzbl 0x7ed7(%rip),%eax        # 211df <g_481+0x1f>
   19308:	84 c0                	test   %al,%al
   1930a:	0f 84 b0 01 00 00    	je     194c0 <func_50+0x3b7f>
   19310:	48 8b 95 70 e6 ff ff 	mov    -0x1990(%rbp),%rdx
   19317:	48 8b 85 70 e7 ff ff 	mov    -0x1890(%rbp),%rax
   1931e:	48 89 10             	mov    %rdx,(%rax)
   19321:	8b 05 59 7e 00 00    	mov    0x7e59(%rip),%eax        # 21180 <g_117>
   19327:	41 89 c5             	mov    %eax,%r13d
   1932a:	0f b6 05 03 7d 00 00 	movzbl 0x7d03(%rip),%eax        # 21034 <g_25>
   19331:	0f b6 d8             	movzbl %al,%ebx
   19334:	80 bd bb e5 ff ff 00 	cmpb   $0x0,-0x1a45(%rbp)
   1933b:	0f 84 ce 00 00 00    	je     1940f <func_50+0x3ace>
   19341:	0f b6 05 ec 7c 00 00 	movzbl 0x7cec(%rip),%eax        # 21034 <g_25>
   19348:	0f b6 d0             	movzbl %al,%edx
   1934b:	b8 00 00 00 00       	mov    $0x0,%eax
   19350:	0f be c0             	movsbl %al,%eax
   19353:	89 d6                	mov    %edx,%esi
   19355:	89 c7                	mov    %eax,%edi
   19357:	e8 36 e1 fe ff       	callq  7492 <safe_lshift_func_int16_t_s_s>
   1935c:	98                   	cwtl   
   1935d:	25 ea 00 00 00       	and    $0xea,%eax
   19362:	be 0b 00 00 00       	mov    $0xb,%esi
   19367:	89 c7                	mov    %eax,%edi
   19369:	e8 bc e1 fe ff       	callq  752a <safe_rshift_func_int16_t_s_s>
   1936e:	66 85 c0             	test   %ax,%ax
   19371:	74 28                	je     1939b <func_50+0x3a5a>
   19373:	0f b7 85 bc e5 ff ff 	movzwl -0x1a44(%rbp),%eax
   1937a:	0f bf d0             	movswl %ax,%edx
   1937d:	0f b6 85 ac e5 ff ff 	movzbl -0x1a54(%rbp),%eax
   19384:	0f b6 c0             	movzbl %al,%eax
   19387:	89 d6                	mov    %edx,%esi
   19389:	89 c7                	mov    %eax,%edi
   1938b:	e8 6d eb fe ff       	callq  7efd <safe_mod_func_uint32_t_u_u>
   19390:	85 c0                	test   %eax,%eax
   19392:	74 07                	je     1939b <func_50+0x3a5a>
   19394:	b8 01 00 00 00       	mov    $0x1,%eax
   19399:	eb 05                	jmp    193a0 <func_50+0x3a5f>
   1939b:	b8 00 00 00 00       	mov    $0x0,%eax
   193a0:	0f b6 c0             	movzbl %al,%eax
   193a3:	be 00 00 00 00       	mov    $0x0,%esi
   193a8:	89 c7                	mov    %eax,%edi
   193aa:	e8 9d e8 fe ff       	callq  7c4c <safe_lshift_func_uint8_t_u_u>
   193af:	0f b6 85 ac e5 ff ff 	movzbl -0x1a54(%rbp),%eax
   193b6:	3c 01                	cmp    $0x1,%al
   193b8:	0f 97 c0             	seta   %al
   193bb:	0f b6 d0             	movzbl %al,%edx
   193be:	48 8b 85 90 e6 ff ff 	mov    -0x1970(%rbp),%rax
   193c5:	0f b7 00             	movzwl (%rax),%eax
   193c8:	09 c2                	or     %eax,%edx
   193ca:	48 8b 85 90 e6 ff ff 	mov    -0x1970(%rbp),%rax
   193d1:	66 89 10             	mov    %dx,(%rax)
   193d4:	48 8b 85 90 e6 ff ff 	mov    -0x1970(%rbp),%rax
   193db:	0f b7 00             	movzwl (%rax),%eax
   193de:	66 85 c0             	test   %ax,%ax
   193e1:	75 0b                	jne    193ee <func_50+0x3aad>
   193e3:	0f b6 85 ac e5 ff ff 	movzbl -0x1a54(%rbp),%eax
   193ea:	84 c0                	test   %al,%al
   193ec:	74 07                	je     193f5 <func_50+0x3ab4>
   193ee:	b8 01 00 00 00       	mov    $0x1,%eax
   193f3:	eb 05                	jmp    193fa <func_50+0x3ab9>
   193f5:	b8 00 00 00 00       	mov    $0x0,%eax
   193fa:	89 c2                	mov    %eax,%edx
   193fc:	8b 05 8a 7d 00 00    	mov    0x7d8a(%rip),%eax        # 2118c <g_192>
   19402:	21 d0                	and    %edx,%eax
   19404:	85 c0                	test   %eax,%eax
   19406:	74 07                	je     1940f <func_50+0x3ace>
   19408:	ba 01 00 00 00       	mov    $0x1,%edx
   1940d:	eb 05                	jmp    19414 <func_50+0x3ad3>
   1940f:	ba 00 00 00 00       	mov    $0x0,%edx
   19414:	0f b6 05 8d 7d 00 00 	movzbl 0x7d8d(%rip),%eax        # 211a8 <g_396>
   1941b:	0f be c0             	movsbl %al,%eax
   1941e:	39 c2                	cmp    %eax,%edx
   19420:	0f 95 c0             	setne  %al
   19423:	0f b6 d0             	movzbl %al,%edx
   19426:	0f b6 85 ac e5 ff ff 	movzbl -0x1a54(%rbp),%eax
   1942d:	0f b6 c0             	movzbl %al,%eax
   19430:	39 c2                	cmp    %eax,%edx
   19432:	0f 9d c0             	setge  %al
   19435:	0f b6 d0             	movzbl %al,%edx
   19438:	0f b6 85 ac e5 ff ff 	movzbl -0x1a54(%rbp),%eax
   1943f:	0f b6 c0             	movzbl %al,%eax
   19442:	39 c2                	cmp    %eax,%edx
   19444:	0f 9f c0             	setg   %al
   19447:	0f b6 c0             	movzbl %al,%eax
   1944a:	be 3f 00 00 00       	mov    $0x3f,%esi
   1944f:	89 c7                	mov    %eax,%edi
   19451:	e8 58 e7 fe ff       	callq  7bae <safe_mod_func_uint8_t_u_u>
   19456:	48 8b 85 e8 e6 ff ff 	mov    -0x1918(%rbp),%rax
   1945d:	89 85 dc e5 ff ff    	mov    %eax,-0x1a24(%rbp)
   19463:	8b 85 dc e5 ff ff    	mov    -0x1a24(%rbp),%eax
   19469:	98                   	cwtl   
   1946a:	89 de                	mov    %ebx,%esi
   1946c:	89 c7                	mov    %eax,%edi
   1946e:	e8 60 df fe ff       	callq  73d3 <safe_sub_func_int16_t_s_s>
   19473:	98                   	cwtl   
   19474:	48 8b 15 c5 7b 00 00 	mov    0x7bc5(%rip),%rdx        # 21040 <g_59>
   1947b:	21 d0                	and    %edx,%eax
   1947d:	44 89 ee             	mov    %r13d,%esi
   19480:	89 c7                	mov    %eax,%edi
   19482:	e8 2f e1 fe ff       	callq  75b6 <safe_add_func_int32_t_s_s>
   19487:	98                   	cwtl   
   19488:	be 04 00 00 00       	mov    $0x4,%esi
   1948d:	89 c7                	mov    %eax,%edi
   1948f:	e8 fe df fe ff       	callq  7492 <safe_lshift_func_int16_t_s_s>
   19494:	be 02 00 00 00       	mov    $0x2,%esi
   19499:	bf 00 00 00 00       	mov    $0x0,%edi
   1949e:	e8 92 de fe ff       	callq  7335 <safe_rshift_func_int8_t_s_s>
   194a3:	0f be c0             	movsbl %al,%eax
   194a6:	34 ff                	xor    $0xff,%al
   194a8:	89 c2                	mov    %eax,%edx
   194aa:	48 8b 05 9f a3 00 00 	mov    0xa39f(%rip),%rax        # 23850 <g_408>
   194b1:	89 10                	mov    %edx,(%rax)
   194b3:	8b 00                	mov    (%rax),%eax
   194b5:	85 c0                	test   %eax,%eax
   194b7:	74 07                	je     194c0 <func_50+0x3b7f>
   194b9:	b8 01 00 00 00       	mov    $0x1,%eax
   194be:	eb 05                	jmp    194c5 <func_50+0x3b84>
   194c0:	b8 00 00 00 00       	mov    $0x0,%eax
   194c5:	44 89 e6             	mov    %r12d,%esi
   194c8:	89 c7                	mov    %eax,%edi
   194ca:	e8 e9 e9 fe ff       	callq  7eb8 <safe_add_func_uint32_t_u_u>
   194cf:	89 c3                	mov    %eax,%ebx
   194d1:	0f b6 85 b7 e5 ff ff 	movzbl -0x1a49(%rbp),%eax
   194d8:	0f be c0             	movsbl %al,%eax
   194db:	be 07 00 00 00       	mov    $0x7,%esi
   194e0:	89 c7                	mov    %eax,%edi
   194e2:	e8 85 de fe ff       	callq  736c <safe_rshift_func_int8_t_s_u>
   194e7:	48 0f be c0          	movsbq %al,%rax
   194eb:	48 89 de             	mov    %rbx,%rsi
   194ee:	48 89 c7             	mov    %rax,%rdi
   194f1:	e8 b9 eb fe ff       	callq  80af <safe_div_func_uint64_t_u_u>
   194f6:	89 c2                	mov    %eax,%edx
   194f8:	8b 85 20 e6 ff ff    	mov    -0x19e0(%rbp),%eax
   194fe:	31 d0                	xor    %edx,%eax
   19500:	89 85 20 e6 ff ff    	mov    %eax,-0x19e0(%rbp)
   19506:	eb 35                	jmp    1953d <func_50+0x3bfc>
   19508:	48 c7 85 50 e7 ff ff 	movq   $0x0,-0x18b0(%rbp)
   1950f:	00 00 00 00 
   19513:	48 8d 85 60 f0 ff ff 	lea    -0xfa0(%rbp),%rax
   1951a:	48 8d 15 df a0 00 00 	lea    0xa0df(%rip),%rdx        # 23600 <g_3045+0x219c>
   19521:	b9 3c 00 00 00       	mov    $0x3c,%ecx
   19526:	48 89 c7             	mov    %rax,%rdi
   19529:	48 89 d6             	mov    %rdx,%rsi
   1952c:	f3 48 a5             	rep movsq %ds:(%rsi),%es:(%rdi)
   1952f:	48 8d 85 50 e6 ff ff 	lea    -0x19b0(%rbp),%rax
   19536:	48 89 05 13 a3 00 00 	mov    %rax,0xa313(%rip)        # 23850 <g_408>
   1953d:	0f b6 05 25 b1 00 00 	movzbl 0xb125(%rip),%eax        # 24669 <g_360>
   19544:	0f b6 c0             	movzbl %al,%eax
   19547:	be 03 00 00 00       	mov    $0x3,%esi
   1954c:	89 c7                	mov    %eax,%edi
   1954e:	e8 6b e7 fe ff       	callq  7cbe <safe_rshift_func_uint8_t_u_u>
   19553:	0f b6 d0             	movzbl %al,%edx
   19556:	8b 05 d4 7a 00 00    	mov    0x7ad4(%rip),%eax        # 21030 <g_14>
   1955c:	39 c2                	cmp    %eax,%edx
   1955e:	0f 95 c2             	setne  %dl
   19561:	48 8b 05 e8 a2 00 00 	mov    0xa2e8(%rip),%rax        # 23850 <g_408>
   19568:	0f b6 d2             	movzbl %dl,%edx
   1956b:	89 10                	mov    %edx,(%rax)
   1956d:	48 8d 05 dc a2 00 00 	lea    0xa2dc(%rip),%rax        # 23850 <g_408>
   19574:	48 89 85 10 e8 ff ff 	mov    %rax,-0x17f0(%rbp)
   1957b:	48 c7 85 18 e8 ff ff 	movq   $0x0,-0x17e8(%rbp)
   19582:	00 00 00 00 
   19586:	48 8d 85 90 ec ff ff 	lea    -0x1370(%rbp),%rax
   1958d:	48 05 14 01 00 00    	add    $0x114,%rax
   19593:	48 89 85 70 e6 ff ff 	mov    %rax,-0x1990(%rbp)
   1959a:	48 8d 85 70 e6 ff ff 	lea    -0x1990(%rbp),%rax
   195a1:	48 89 85 20 e8 ff ff 	mov    %rax,-0x17e0(%rbp)
   195a8:	48 8b 85 10 e8 ff ff 	mov    -0x17f0(%rbp),%rax
   195af:	48 8d 95 40 e9 ff ff 	lea    -0x16c0(%rbp),%rdx
   195b6:	48 83 c2 1c          	add    $0x1c,%rdx
   195ba:	48 89 10             	mov    %rdx,(%rax)
   195bd:	48 8b 85 10 e8 ff ff 	mov    -0x17f0(%rbp),%rax
   195c4:	48 8b 10             	mov    (%rax),%rdx
   195c7:	48 8b 85 20 e8 ff ff 	mov    -0x17e0(%rbp),%rax
   195ce:	48 89 10             	mov    %rdx,(%rax)
   195d1:	48 8b 85 10 e8 ff ff 	mov    -0x17f0(%rbp),%rax
   195d8:	48 8b 00             	mov    (%rax),%rax
   195db:	c7 00 04 46 37 7d    	movl   $0x7d374604,(%rax)
   195e1:	66 c7 05 62 7a 00 00 	movw   $0x2,0x7a62(%rip)        # 2104c <g_64>
   195e8:	02 00 
   195ea:	e9 4f 06 00 00       	jmpq   19c3e <func_50+0x42fd>
   195ef:	48 8d 05 5e 7a 00 00 	lea    0x7a5e(%rip),%rax        # 21054 <g_100>
   195f6:	48 89 85 a8 e6 ff ff 	mov    %rax,-0x1958(%rbp)
   195fd:	c7 85 f0 e5 ff ff 00 	movl   $0x0,-0x1a10(%rbp)
   19604:	00 00 00 
   19607:	eb 1a                	jmp    19623 <func_50+0x3ce2>
   19609:	8b 85 f0 e5 ff ff    	mov    -0x1a10(%rbp),%eax
   1960f:	48 98                	cltq   
   19611:	c7 84 85 e0 f7 ff ff 	movl   $0xffffffff,-0x820(%rbp,%rax,4)
   19618:	ff ff ff ff 
   1961c:	83 85 f0 e5 ff ff 01 	addl   $0x1,-0x1a10(%rbp)
   19623:	83 bd f0 e5 ff ff 03 	cmpl   $0x3,-0x1a10(%rbp)
   1962a:	7e dd                	jle    19609 <func_50+0x3cc8>
   1962c:	8b 85 e8 f7 ff ff    	mov    -0x818(%rbp),%eax
   19632:	48 63 d8             	movslq %eax,%rbx
   19635:	0f b7 05 76 7b 00 00 	movzwl 0x7b76(%rip),%eax        # 211b2 <g_442>
   1963c:	0f b7 d0             	movzwl %ax,%edx
   1963f:	48 8b 05 32 7b 00 00 	mov    0x7b32(%rip),%rax        # 21178 <g_112>
   19646:	0f b7 c0             	movzwl %ax,%eax
   19649:	89 d6                	mov    %edx,%esi
   1964b:	89 c7                	mov    %eax,%edi
   1964d:	e8 eb e6 fe ff       	callq  7d3d <safe_mul_func_uint16_t_u_u>
   19652:	89 c2                	mov    %eax,%edx
   19654:	48 8b 85 a8 e6 ff ff 	mov    -0x1958(%rbp),%rax
   1965b:	88 10                	mov    %dl,(%rax)
   1965d:	44 8b a5 ec f7 ff ff 	mov    -0x814(%rbp),%r12d
   19664:	8b 85 78 eb ff ff    	mov    -0x1488(%rbp),%eax
   1966a:	0f be c0             	movsbl %al,%eax
   1966d:	89 c6                	mov    %eax,%esi
   1966f:	bf 01 00 00 00       	mov    $0x1,%edi
   19674:	e8 f1 db fe ff       	callq  726a <safe_div_func_int8_t_s_s>
   19679:	0f be d0             	movsbl %al,%edx
   1967c:	8b 85 50 e9 ff ff    	mov    -0x16b0(%rbp),%eax
   19682:	39 c2                	cmp    %eax,%edx
   19684:	0f 9f c0             	setg   %al
   19687:	0f b6 d0             	movzbl %al,%edx
   1968a:	8b 05 f4 7a 00 00    	mov    0x7af4(%rip),%eax        # 21184 <g_122>
   19690:	8d 48 ff             	lea    -0x1(%rax),%ecx
   19693:	89 0d eb 7a 00 00    	mov    %ecx,0x7aeb(%rip)        # 21184 <g_122>
   19699:	89 d6                	mov    %edx,%esi
   1969b:	89 c7                	mov    %eax,%edi
   1969d:	e8 44 e8 fe ff       	callq  7ee6 <safe_mul_func_uint32_t_u_u>
   196a2:	44 89 e6             	mov    %r12d,%esi
   196a5:	89 c7                	mov    %eax,%edi
   196a7:	e8 0a df fe ff       	callq  75b6 <safe_add_func_int32_t_s_s>
   196ac:	8b 85 c8 e5 ff ff    	mov    -0x1a38(%rbp),%eax
   196b2:	48 98                	cltq   
   196b4:	48 89 de             	mov    %rbx,%rsi
   196b7:	48 89 c7             	mov    %rax,%rdi
   196ba:	e8 c1 e9 fe ff       	callq  8080 <safe_mod_func_uint64_t_u_u>
   196bf:	89 c2                	mov    %eax,%edx
   196c1:	48 8b 05 88 a1 00 00 	mov    0xa188(%rip),%rax        # 23850 <g_408>
   196c8:	f7 d2                	not    %edx
   196ca:	89 10                	mov    %edx,(%rax)
   196cc:	48 8d 05 dd 7a 00 00 	lea    0x7add(%rip),%rax        # 211b0 <g_407>
   196d3:	e9 7e 05 00 00       	jmpq   19c56 <func_50+0x4315>
   196d8:	48 8d 85 40 e9 ff ff 	lea    -0x16c0(%rbp),%rax
   196df:	48 83 c0 10          	add    $0x10,%rax
   196e3:	48 89 85 50 e6 ff ff 	mov    %rax,-0x19b0(%rbp)
   196ea:	48 8d 05 5f 79 00 00 	lea    0x795f(%rip),%rax        # 21050 <g_79>
   196f1:	48 89 85 28 e8 ff ff 	mov    %rax,-0x17d8(%rbp)
   196f8:	48 8d 85 90 ec ff ff 	lea    -0x1370(%rbp),%rax
   196ff:	48 05 14 01 00 00    	add    $0x114,%rax
   19705:	48 89 85 58 e6 ff ff 	mov    %rax,-0x19a8(%rbp)
   1970c:	48 8d 85 90 ec ff ff 	lea    -0x1370(%rbp),%rax
   19713:	48 05 14 01 00 00    	add    $0x114,%rax
   19719:	48 89 85 30 e8 ff ff 	mov    %rax,-0x17d0(%rbp)
   19720:	48 8d 05 29 af 00 00 	lea    0xaf29(%rip),%rax        # 24650 <g_111>
   19727:	48 89 85 38 e8 ff ff 	mov    %rax,-0x17c8(%rbp)
   1972e:	c7 85 f4 e5 ff ff 00 	movl   $0x0,-0x1a0c(%rbp)
   19735:	00 00 00 
   19738:	eb 22                	jmp    1975c <func_50+0x3e1b>
   1973a:	8b 85 f4 e5 ff ff    	mov    -0x1a0c(%rbp),%eax
   19740:	48 98                	cltq   
   19742:	48 8d 95 e0 ea ff ff 	lea    -0x1520(%rbp),%rdx
   19749:	48 83 c2 6c          	add    $0x6c,%rdx
   1974d:	48 89 94 c5 60 f0 ff 	mov    %rdx,-0xfa0(%rbp,%rax,8)
   19754:	ff 
   19755:	83 85 f4 e5 ff ff 01 	addl   $0x1,-0x1a0c(%rbp)
   1975c:	83 bd f4 e5 ff ff 07 	cmpl   $0x7,-0x1a0c(%rbp)
   19763:	7e d5                	jle    1973a <func_50+0x3df9>
   19765:	0f b6 05 78 7a 00 00 	movzbl 0x7a78(%rip),%eax        # 211e4 <g_625>
   1976c:	83 e8 01             	sub    $0x1,%eax
   1976f:	88 05 6f 7a 00 00    	mov    %al,0x7a6f(%rip)        # 211e4 <g_625>
   19775:	66 c7 05 36 7a 00 00 	movw   $0x3,0x7a36(%rip)        # 211b4 <g_465>
   1977c:	03 00 
   1977e:	e9 99 04 00 00       	jmpq   19c1c <func_50+0x42db>
   19783:	48 8d 05 16 7a 00 00 	lea    0x7a16(%rip),%rax        # 211a0 <g_361>
   1978a:	48 89 85 60 e6 ff ff 	mov    %rax,-0x19a0(%rbp)
   19791:	48 8d 85 60 e6 ff ff 	lea    -0x19a0(%rbp),%rax
   19798:	48 89 85 40 e8 ff ff 	mov    %rax,-0x17c0(%rbp)
   1979f:	48 8d 85 40 e6 ff ff 	lea    -0x19c0(%rbp),%rax
   197a6:	48 89 85 68 e6 ff ff 	mov    %rax,-0x1998(%rbp)
   197ad:	48 8d 85 68 e6 ff ff 	lea    -0x1998(%rbp),%rax
   197b4:	48 89 85 70 e6 ff ff 	mov    %rax,-0x1990(%rbp)
   197bb:	48 8d 85 70 e6 ff ff 	lea    -0x1990(%rbp),%rax
   197c2:	48 89 85 48 e8 ff ff 	mov    %rax,-0x17b8(%rbp)
   197c9:	66 c7 85 d0 ee ff ff 	movw   $0x1,-0x1130(%rbp)
   197d0:	01 00 
   197d2:	66 c7 85 d2 ee ff ff 	movw   $0xfffd,-0x112e(%rbp)
   197d9:	fd ff 
   197db:	66 c7 85 d4 ee ff ff 	movw   $0x1,-0x112c(%rbp)
   197e2:	01 00 
   197e4:	66 c7 85 d6 ee ff ff 	movw   $0xfffd,-0x112a(%rbp)
   197eb:	fd ff 
   197ed:	66 c7 85 c2 e5 ff ff 	movw   $0x5fe,-0x1a3e(%rbp)
   197f4:	fe 05 
   197f6:	48 8d 05 87 79 00 00 	lea    0x7987(%rip),%rax        # 21184 <g_122>
   197fd:	48 89 85 50 e8 ff ff 	mov    %rax,-0x17b0(%rbp)
   19804:	48 8d 05 93 79 00 00 	lea    0x7993(%rip),%rax        # 2119e <g_342+0x6>
   1980b:	48 89 85 58 e8 ff ff 	mov    %rax,-0x17a8(%rbp)
   19812:	48 8d 05 3b 78 00 00 	lea    0x783b(%rip),%rax        # 21054 <g_100>
   19819:	48 39 85 38 e8 ff ff 	cmp    %rax,-0x17c8(%rbp)
   19820:	0f 95 c0             	setne  %al
   19823:	44 0f b6 e8          	movzbl %al,%r13d
   19827:	0f bf 9d c2 e5 ff ff 	movswl -0x1a3e(%rbp),%ebx
   1982e:	8b 85 50 e9 ff ff    	mov    -0x16b0(%rbp),%eax
   19834:	44 0f b6 e0          	movzbl %al,%r12d
   19838:	0f b7 05 0d 78 00 00 	movzwl 0x780d(%rip),%eax        # 2104c <g_64>
   1983f:	98                   	cwtl   
   19840:	89 c7                	mov    %eax,%edi
   19842:	e8 56 db fe ff       	callq  739d <safe_unary_minus_func_int16_t_s>
   19847:	0f b6 85 ac e5 ff ff 	movzbl -0x1a54(%rbp),%eax
   1984e:	0f b6 d0             	movzbl %al,%edx
   19851:	0f b7 85 d0 ee ff ff 	movzwl -0x1130(%rbp),%eax
   19858:	0f b7 c0             	movzwl %ax,%eax
   1985b:	21 c2                	and    %eax,%edx
   1985d:	8b 05 cd 77 00 00    	mov    0x77cd(%rip),%eax        # 21030 <g_14>
   19863:	39 c2                	cmp    %eax,%edx
   19865:	8b 85 50 e9 ff ff    	mov    -0x16b0(%rbp),%eax
   1986b:	48 63 d0             	movslq %eax,%rdx
   1986e:	48 8b 05 03 79 00 00 	mov    0x7903(%rip),%rax        # 21178 <g_112>
   19875:	48 39 c2             	cmp    %rax,%rdx
   19878:	44 89 e6             	mov    %r12d,%esi
   1987b:	bf 01 00 00 00       	mov    $0x1,%edi
   19880:	e8 29 e3 fe ff       	callq  7bae <safe_mod_func_uint8_t_u_u>
   19885:	66 83 bd c2 e5 ff ff 	cmpw   $0x0,-0x1a3e(%rbp)
   1988c:	00 
   1988d:	74 07                	je     19896 <func_50+0x3f55>
   1988f:	b8 01 00 00 00       	mov    $0x1,%eax
   19894:	eb 05                	jmp    1989b <func_50+0x3f5a>
   19896:	b8 00 00 00 00       	mov    $0x0,%eax
   1989b:	0f be c0             	movsbl %al,%eax
   1989e:	89 de                	mov    %ebx,%esi
   198a0:	89 c7                	mov    %eax,%edi
   198a2:	e8 8e da fe ff       	callq  7335 <safe_rshift_func_int8_t_s_s>
   198a7:	0f be d0             	movsbl %al,%edx
   198aa:	48 8b 85 50 e8 ff ff 	mov    -0x17b0(%rbp),%rax
   198b1:	89 10                	mov    %edx,(%rax)
   198b3:	48 8b 85 50 e8 ff ff 	mov    -0x17b0(%rbp),%rax
   198ba:	8b 00                	mov    (%rax),%eax
   198bc:	be 32 f1 06 f6       	mov    $0xf606f132,%esi
   198c1:	89 c7                	mov    %eax,%edi
   198c3:	e8 f0 e5 fe ff       	callq  7eb8 <safe_add_func_uint32_t_u_u>
   198c8:	89 c0                	mov    %eax,%eax
   198ca:	48 be a8 d5 a4 4b b8 	movabs $0x754a2fb84ba4d5a8,%rsi
   198d1:	2f 4a 75 
   198d4:	48 89 c7             	mov    %rax,%rdi
   198d7:	e8 d3 e7 fe ff       	callq  80af <safe_div_func_uint64_t_u_u>
   198dc:	49 39 c5             	cmp    %rax,%r13
   198df:	73 0b                	jae    198ec <func_50+0x3fab>
   198e1:	48 8b 85 50 e6 ff ff 	mov    -0x19b0(%rbp),%rax
   198e8:	8b 00                	mov    (%rax),%eax
   198ea:	85 c0                	test   %eax,%eax
   198ec:	48 8b 85 40 e8 ff ff 	mov    -0x17c0(%rbp),%rax
   198f3:	48 8d 15 a6 78 00 00 	lea    0x78a6(%rip),%rdx        # 211a0 <g_361>
   198fa:	48 89 10             	mov    %rdx,(%rax)
   198fd:	b8 00 00 00 00       	mov    $0x0,%eax
   19902:	83 f0 fe             	xor    $0xfffffffe,%eax
   19905:	0f b7 c0             	movzwl %ax,%eax
   19908:	89 c6                	mov    %eax,%esi
   1990a:	bf fe ff 00 00       	mov    $0xfffe,%edi
   1990f:	e8 0b e4 fe ff       	callq  7d1f <safe_sub_func_uint16_t_u_u>
   19914:	0f b7 d0             	movzwl %ax,%edx
   19917:	48 8b 85 28 e8 ff ff 	mov    -0x17d8(%rbp),%rax
   1991e:	8b 00                	mov    (%rax),%eax
   19920:	39 c2                	cmp    %eax,%edx
   19922:	7c 6b                	jl     1998f <func_50+0x404e>
   19924:	c7 85 2c e6 ff ff 9a 	movl   $0xd8874d9a,-0x19d4(%rbp)
   1992b:	4d 87 d8 
   1992e:	c7 85 30 e6 ff ff 00 	movl   $0x0,-0x19d0(%rbp)
   19935:	00 00 00 
   19938:	c7 85 34 e6 ff ff e7 	movl   $0xf8a24e7,-0x19cc(%rbp)
   1993f:	24 8a 0f 
   19942:	c7 85 38 e6 ff ff 08 	movl   $0x8,-0x19c8(%rbp)
   19949:	00 00 00 
   1994c:	c7 85 f8 e5 ff ff 00 	movl   $0x0,-0x1a08(%rbp)
   19953:	00 00 00 
   19956:	eb 1a                	jmp    19972 <func_50+0x4031>
   19958:	8b 85 f8 e5 ff ff    	mov    -0x1a08(%rbp),%eax
   1995e:	48 98                	cltq   
   19960:	c7 84 85 e0 f7 ff ff 	movl   $0x1,-0x820(%rbp,%rax,4)
   19967:	01 00 00 00 
   1996b:	83 85 f8 e5 ff ff 01 	addl   $0x1,-0x1a08(%rbp)
   19972:	83 bd f8 e5 ff ff 02 	cmpl   $0x2,-0x1a08(%rbp)
   19979:	7e dd                	jle    19958 <func_50+0x4017>
   1997b:	48 83 85 98 e6 ff ff 	addq   $0x1,-0x1968(%rbp)
   19982:	01 
   19983:	48 8b 85 58 e8 ff ff 	mov    -0x17a8(%rbp),%rax
   1998a:	e9 c7 02 00 00       	jmpq   19c56 <func_50+0x4315>
   1998f:	c6 05 be 76 00 00 00 	movb   $0x0,0x76be(%rip)        # 21054 <g_100>
   19996:	eb 29                	jmp    199c1 <func_50+0x4080>
   19998:	48 8b 85 28 e8 ff ff 	mov    -0x17d8(%rbp),%rax
   1999f:	8b 00                	mov    (%rax),%eax
   199a1:	0d dd 48 f5 51       	or     $0x51f548dd,%eax
   199a6:	89 c2                	mov    %eax,%edx
   199a8:	48 8b 85 28 e8 ff ff 	mov    -0x17d8(%rbp),%rax
   199af:	89 10                	mov    %edx,(%rax)
   199b1:	0f b6 05 9c 76 00 00 	movzbl 0x769c(%rip),%eax        # 21054 <g_100>
   199b8:	83 e8 01             	sub    $0x1,%eax
   199bb:	88 05 93 76 00 00    	mov    %al,0x7693(%rip)        # 21054 <g_100>
   199c1:	0f b6 05 8c 76 00 00 	movzbl 0x768c(%rip),%eax        # 21054 <g_100>
   199c8:	84 c0                	test   %al,%al
   199ca:	79 cc                	jns    19998 <func_50+0x4057>
   199cc:	c7 85 c4 e5 ff ff 00 	movl   $0x0,-0x1a3c(%rbp)
   199d3:	00 00 00 
   199d6:	90                   	nop
   199d7:	8b 85 c4 e5 ff ff    	mov    -0x1a3c(%rbp),%eax
   199dd:	85 c0                	test   %eax,%eax
   199df:	0f 85 26 02 00 00    	jne    19c0b <func_50+0x42ca>
   199e5:	48 8d 05 64 9e 00 00 	lea    0x9e64(%rip),%rax        # 23850 <g_408>
   199ec:	48 89 85 e0 f7 ff ff 	mov    %rax,-0x820(%rbp)
   199f3:	48 8d 85 50 e6 ff ff 	lea    -0x19b0(%rbp),%rax
   199fa:	48 89 85 e8 f7 ff ff 	mov    %rax,-0x818(%rbp)
   19a01:	48 c7 85 f0 f7 ff ff 	movq   $0x0,-0x810(%rbp)
   19a08:	00 00 00 00 
   19a0c:	48 8d 85 58 e6 ff ff 	lea    -0x19a8(%rbp),%rax
   19a13:	48 89 85 f8 f7 ff ff 	mov    %rax,-0x808(%rbp)
   19a1a:	48 8d 85 58 e6 ff ff 	lea    -0x19a8(%rbp),%rax
   19a21:	48 89 85 00 f8 ff ff 	mov    %rax,-0x800(%rbp)
   19a28:	48 c7 85 08 f8 ff ff 	movq   $0x0,-0x7f8(%rbp)
   19a2f:	00 00 00 00 
   19a33:	48 8d 85 50 e6 ff ff 	lea    -0x19b0(%rbp),%rax
   19a3a:	48 89 85 10 f8 ff ff 	mov    %rax,-0x7f0(%rbp)
   19a41:	48 8d 05 08 9e 00 00 	lea    0x9e08(%rip),%rax        # 23850 <g_408>
   19a48:	48 89 85 18 f8 ff ff 	mov    %rax,-0x7e8(%rbp)
   19a4f:	48 8d 85 50 e6 ff ff 	lea    -0x19b0(%rbp),%rax
   19a56:	48 89 85 20 f8 ff ff 	mov    %rax,-0x7e0(%rbp)
   19a5d:	48 c7 85 28 f8 ff ff 	movq   $0x0,-0x7d8(%rbp)
   19a64:	00 00 00 00 
   19a68:	48 8d 85 58 e6 ff ff 	lea    -0x19a8(%rbp),%rax
   19a6f:	48 89 85 30 f8 ff ff 	mov    %rax,-0x7d0(%rbp)
   19a76:	48 8d 85 58 e6 ff ff 	lea    -0x19a8(%rbp),%rax
   19a7d:	48 89 85 38 f8 ff ff 	mov    %rax,-0x7c8(%rbp)
   19a84:	48 c7 85 40 f8 ff ff 	movq   $0x0,-0x7c0(%rbp)
   19a8b:	00 00 00 00 
   19a8f:	48 8d 85 50 e6 ff ff 	lea    -0x19b0(%rbp),%rax
   19a96:	48 89 85 48 f8 ff ff 	mov    %rax,-0x7b8(%rbp)
   19a9d:	48 8d 05 ac 9d 00 00 	lea    0x9dac(%rip),%rax        # 23850 <g_408>
   19aa4:	48 89 85 50 f8 ff ff 	mov    %rax,-0x7b0(%rbp)
   19aab:	48 8d 85 50 e6 ff ff 	lea    -0x19b0(%rbp),%rax
   19ab2:	48 89 85 58 f8 ff ff 	mov    %rax,-0x7a8(%rbp)
   19ab9:	48 c7 85 60 f8 ff ff 	movq   $0x0,-0x7a0(%rbp)
   19ac0:	00 00 00 00 
   19ac4:	48 8d 85 58 e6 ff ff 	lea    -0x19a8(%rbp),%rax
   19acb:	48 89 85 68 f8 ff ff 	mov    %rax,-0x798(%rbp)
   19ad2:	48 8d 85 58 e6 ff ff 	lea    -0x19a8(%rbp),%rax
   19ad9:	48 89 85 70 f8 ff ff 	mov    %rax,-0x790(%rbp)
   19ae0:	48 c7 85 78 f8 ff ff 	movq   $0x0,-0x788(%rbp)
   19ae7:	00 00 00 00 
   19aeb:	48 8d 85 50 e6 ff ff 	lea    -0x19b0(%rbp),%rax
   19af2:	48 89 85 80 f8 ff ff 	mov    %rax,-0x780(%rbp)
   19af9:	48 8d 05 50 9d 00 00 	lea    0x9d50(%rip),%rax        # 23850 <g_408>
   19b00:	48 89 85 88 f8 ff ff 	mov    %rax,-0x778(%rbp)
   19b07:	48 8d 85 50 e6 ff ff 	lea    -0x19b0(%rbp),%rax
   19b0e:	48 89 85 90 f8 ff ff 	mov    %rax,-0x770(%rbp)
   19b15:	48 c7 85 98 f8 ff ff 	movq   $0x0,-0x768(%rbp)
   19b1c:	00 00 00 00 
   19b20:	48 8d 85 58 e6 ff ff 	lea    -0x19a8(%rbp),%rax
   19b27:	48 89 85 a0 f8 ff ff 	mov    %rax,-0x760(%rbp)
   19b2e:	48 8d 85 58 e6 ff ff 	lea    -0x19a8(%rbp),%rax
   19b35:	48 89 85 a8 f8 ff ff 	mov    %rax,-0x758(%rbp)
   19b3c:	48 c7 85 b0 f8 ff ff 	movq   $0x0,-0x750(%rbp)
   19b43:	00 00 00 00 
   19b47:	48 8d 85 50 e6 ff ff 	lea    -0x19b0(%rbp),%rax
   19b4e:	48 89 85 b8 f8 ff ff 	mov    %rax,-0x748(%rbp)
   19b55:	48 8d 05 f4 9c 00 00 	lea    0x9cf4(%rip),%rax        # 23850 <g_408>
   19b5c:	48 89 85 c0 f8 ff ff 	mov    %rax,-0x740(%rbp)
   19b63:	48 8d 85 50 e6 ff ff 	lea    -0x19b0(%rbp),%rax
   19b6a:	48 89 85 c8 f8 ff ff 	mov    %rax,-0x738(%rbp)
   19b71:	48 c7 85 d0 f8 ff ff 	movq   $0x0,-0x730(%rbp)
   19b78:	00 00 00 00 
   19b7c:	48 8d 85 58 e6 ff ff 	lea    -0x19a8(%rbp),%rax
   19b83:	48 89 85 d8 f8 ff ff 	mov    %rax,-0x728(%rbp)
   19b8a:	48 8d 85 58 e6 ff ff 	lea    -0x19a8(%rbp),%rax
   19b91:	48 89 85 e0 f8 ff ff 	mov    %rax,-0x720(%rbp)
   19b98:	48 c7 85 e8 f8 ff ff 	movq   $0x0,-0x718(%rbp)
   19b9f:	00 00 00 00 
   19ba3:	48 8d 85 50 e6 ff ff 	lea    -0x19b0(%rbp),%rax
   19baa:	48 89 85 f0 f8 ff ff 	mov    %rax,-0x710(%rbp)
   19bb1:	8b 95 c4 e5 ff ff    	mov    -0x1a3c(%rbp),%edx
   19bb7:	8b 85 c4 e5 ff ff    	mov    -0x1a3c(%rbp),%eax
   19bbd:	8d 70 01             	lea    0x1(%rax),%esi
   19bc0:	8b 85 c4 e5 ff ff    	mov    -0x1a3c(%rbp),%eax
   19bc6:	83 c0 03             	add    $0x3,%eax
   19bc9:	48 8d 8d 90 ec ff ff 	lea    -0x1370(%rbp),%rcx
   19bd0:	89 c7                	mov    %eax,%edi
   19bd2:	89 d2                	mov    %edx,%edx
   19bd4:	48 89 d0             	mov    %rdx,%rax
   19bd7:	48 c1 e0 03          	shl    $0x3,%rax
   19bdb:	48 01 d0             	add    %rdx,%rax
   19bde:	48 c1 e0 03          	shl    $0x3,%rax
   19be2:	89 f6                	mov    %esi,%esi
   19be4:	48 89 f2             	mov    %rsi,%rdx
   19be7:	48 c1 e2 03          	shl    $0x3,%rdx
   19beb:	48 01 f2             	add    %rsi,%rdx
   19bee:	48 01 d0             	add    %rdx,%rax
   19bf1:	48 01 f8             	add    %rdi,%rax
   19bf4:	48 c1 e0 02          	shl    $0x2,%rax
   19bf8:	48 01 c8             	add    %rcx,%rax
   19bfb:	48 89 05 4e 9c 00 00 	mov    %rax,0x9c4e(%rip)        # 23850 <g_408>
   19c02:	48 8d 05 db 75 00 00 	lea    0x75db(%rip),%rax        # 211e4 <g_625>
   19c09:	eb 4b                	jmp    19c56 <func_50+0x4315>
   19c0b:	0f b7 05 a2 75 00 00 	movzwl 0x75a2(%rip),%eax        # 211b4 <g_465>
   19c12:	83 c0 01             	add    $0x1,%eax
   19c15:	66 89 05 98 75 00 00 	mov    %ax,0x7598(%rip)        # 211b4 <g_465>
   19c1c:	0f b7 05 91 75 00 00 	movzwl 0x7591(%rip),%eax        # 211b4 <g_465>
   19c23:	66 83 f8 09          	cmp    $0x9,%ax
   19c27:	0f 86 56 fb ff ff    	jbe    19783 <func_50+0x3e42>
   19c2d:	0f b7 05 18 74 00 00 	movzwl 0x7418(%rip),%eax        # 2104c <g_64>
   19c34:	83 c0 01             	add    $0x1,%eax
   19c37:	66 89 05 0e 74 00 00 	mov    %ax,0x740e(%rip)        # 2104c <g_64>
   19c3e:	0f b7 05 07 74 00 00 	movzwl 0x7407(%rip),%eax        # 2104c <g_64>
   19c45:	66 83 f8 09          	cmp    $0x9,%ax
   19c49:	0f 8e 89 fa ff ff    	jle    196d8 <func_50+0x3d97>
   19c4f:	48 8b 85 a0 e6 ff ff 	mov    -0x1960(%rbp),%rax
   19c56:	48 8b 4d c8          	mov    -0x38(%rbp),%rcx
   19c5a:	64 48 33 0c 25 28 00 	xor    %fs:0x28,%rcx
   19c61:	00 00 
   19c63:	74 05                	je     19c6a <func_50+0x4329>
   19c65:	e8 06 d4 fe ff       	callq  7070 <__stack_chk_fail@plt>
   19c6a:	48 81 c4 48 1a 00 00 	add    $0x1a48,%rsp
   19c71:	5b                   	pop    %rbx
   19c72:	41 5c                	pop    %r12
   19c74:	41 5d                	pop    %r13
   19c76:	41 5e                	pop    %r14
   19c78:	41 5f                	pop    %r15
   19c7a:	5d                   	pop    %rbp
   19c7b:	c3                   	retq   

0000000000019c7c <main>:
   19c7c:	f3 0f 1e fa          	endbr64 
   19c80:	55                   	push   %rbp
   19c81:	48 89 e5             	mov    %rsp,%rbp
   19c84:	48 83 ec 20          	sub    $0x20,%rsp
   19c88:	89 7d ec             	mov    %edi,-0x14(%rbp)
   19c8b:	48 89 75 e0          	mov    %rsi,-0x20(%rbp)
   19c8f:	c7 45 fc 00 00 00 00 	movl   $0x0,-0x4(%rbp)
   19c96:	83 7d ec 02          	cmpl   $0x2,-0x14(%rbp)
   19c9a:	74 25                	je     19cc1 <main+0x45>
   19c9c:	48 8b 45 e0          	mov    -0x20(%rbp),%rax
   19ca0:	48 83 c0 08          	add    $0x8,%rax
   19ca4:	48 8b 00             	mov    (%rax),%rax
   19ca7:	48 8d 35 b2 3a 00 00 	lea    0x3ab2(%rip),%rsi        # 1d760 <g_2878+0x2700>
   19cae:	48 89 c7             	mov    %rax,%rdi
   19cb1:	e8 da d3 fe ff       	callq  7090 <strcmp@plt>
   19cb6:	85 c0                	test   %eax,%eax
   19cb8:	74 07                	je     19cc1 <main+0x45>
   19cba:	c7 45 fc 01 00 00 00 	movl   $0x1,-0x4(%rbp)
   19cc1:	e8 c3 d4 fe ff       	callq  7189 <platform_main_begin>
   19cc6:	e8 cd e8 fe ff       	callq  8598 <crc32_gentab>
   19ccb:	e8 e5 ea fe ff       	callq  87b5 <func_1>
   19cd0:	8b 05 4e 73 00 00    	mov    0x734e(%rip),%eax        # 21024 <g_11>
   19cd6:	48 98                	cltq   
   19cd8:	8b 55 fc             	mov    -0x4(%rbp),%edx
   19cdb:	48 8d 35 80 3a 00 00 	lea    0x3a80(%rip),%rsi        # 1d762 <g_2878+0x2702>
   19ce2:	48 89 c7             	mov    %rax,%rdi
   19ce5:	e8 09 ea fe ff       	callq  86f3 <transparent_crc>
   19cea:	8b 05 38 73 00 00    	mov    0x7338(%rip),%eax        # 21028 <g_12>
   19cf0:	48 98                	cltq   
   19cf2:	8b 55 fc             	mov    -0x4(%rbp),%edx
   19cf5:	48 8d 35 6b 3a 00 00 	lea    0x3a6b(%rip),%rsi        # 1d767 <g_2878+0x2707>
   19cfc:	48 89 c7             	mov    %rax,%rdi
   19cff:	e8 ef e9 fe ff       	callq  86f3 <transparent_crc>
   19d04:	8b 05 22 73 00 00    	mov    0x7322(%rip),%eax        # 2102c <g_13>
   19d0a:	48 98                	cltq   
   19d0c:	8b 55 fc             	mov    -0x4(%rbp),%edx
   19d0f:	48 8d 35 56 3a 00 00 	lea    0x3a56(%rip),%rsi        # 1d76c <g_2878+0x270c>
   19d16:	48 89 c7             	mov    %rax,%rdi
   19d19:	e8 d5 e9 fe ff       	callq  86f3 <transparent_crc>
   19d1e:	8b 05 0c 73 00 00    	mov    0x730c(%rip),%eax        # 21030 <g_14>
   19d24:	48 98                	cltq   
   19d26:	8b 55 fc             	mov    -0x4(%rbp),%edx
   19d29:	48 8d 35 41 3a 00 00 	lea    0x3a41(%rip),%rsi        # 1d771 <g_2878+0x2711>
   19d30:	48 89 c7             	mov    %rax,%rdi
   19d33:	e8 bb e9 fe ff       	callq  86f3 <transparent_crc>
   19d38:	0f b6 05 f5 72 00 00 	movzbl 0x72f5(%rip),%eax        # 21034 <g_25>
   19d3f:	0f b6 c0             	movzbl %al,%eax
   19d42:	8b 55 fc             	mov    -0x4(%rbp),%edx
   19d45:	48 8d 35 2a 3a 00 00 	lea    0x3a2a(%rip),%rsi        # 1d776 <g_2878+0x2716>
   19d4c:	48 89 c7             	mov    %rax,%rdi
   19d4f:	e8 9f e9 fe ff       	callq  86f3 <transparent_crc>
   19d54:	8b 05 de 72 00 00    	mov    0x72de(%rip),%eax        # 21038 <g_27>
   19d5a:	89 c1                	mov    %eax,%ecx
   19d5c:	8b 45 fc             	mov    -0x4(%rbp),%eax
   19d5f:	89 c2                	mov    %eax,%edx
   19d61:	48 8d 35 13 3a 00 00 	lea    0x3a13(%rip),%rsi        # 1d77b <g_2878+0x271b>
   19d68:	48 89 cf             	mov    %rcx,%rdi
   19d6b:	e8 83 e9 fe ff       	callq  86f3 <transparent_crc>
   19d70:	8b 05 c6 72 00 00    	mov    0x72c6(%rip),%eax        # 2103c <g_29>
   19d76:	89 c1                	mov    %eax,%ecx
   19d78:	8b 45 fc             	mov    -0x4(%rbp),%eax
   19d7b:	89 c2                	mov    %eax,%edx
   19d7d:	48 8d 35 ff 39 00 00 	lea    0x39ff(%rip),%rsi        # 1d783 <g_2878+0x2723>
   19d84:	48 89 cf             	mov    %rcx,%rdi
   19d87:	e8 67 e9 fe ff       	callq  86f3 <transparent_crc>
   19d8c:	48 8b 05 ad 72 00 00 	mov    0x72ad(%rip),%rax        # 21040 <g_59>
   19d93:	8b 55 fc             	mov    -0x4(%rbp),%edx
   19d96:	48 8d 35 ee 39 00 00 	lea    0x39ee(%rip),%rsi        # 1d78b <g_2878+0x272b>
   19d9d:	48 89 c7             	mov    %rax,%rdi
   19da0:	e8 4e e9 fe ff       	callq  86f3 <transparent_crc>
   19da5:	8b 05 9d 72 00 00    	mov    0x729d(%rip),%eax        # 21048 <g_62>
   19dab:	89 c1                	mov    %eax,%ecx
   19dad:	8b 45 fc             	mov    -0x4(%rbp),%eax
   19db0:	89 c2                	mov    %eax,%edx
   19db2:	48 8d 35 d7 39 00 00 	lea    0x39d7(%rip),%rsi        # 1d790 <g_2878+0x2730>
   19db9:	48 89 cf             	mov    %rcx,%rdi
   19dbc:	e8 32 e9 fe ff       	callq  86f3 <transparent_crc>
   19dc1:	0f b7 05 84 72 00 00 	movzwl 0x7284(%rip),%eax        # 2104c <g_64>
   19dc8:	48 0f bf c0          	movswq %ax,%rax
   19dcc:	8b 55 fc             	mov    -0x4(%rbp),%edx
   19dcf:	48 8d 35 c2 39 00 00 	lea    0x39c2(%rip),%rsi        # 1d798 <g_2878+0x2738>
   19dd6:	48 89 c7             	mov    %rax,%rdi
   19dd9:	e8 15 e9 fe ff       	callq  86f3 <transparent_crc>
   19dde:	b8 7b 00 00 00       	mov    $0x7b,%eax
   19de3:	0f b6 c0             	movzbl %al,%eax
   19de6:	8b 55 fc             	mov    -0x4(%rbp),%edx
   19de9:	48 8d 35 ad 39 00 00 	lea    0x39ad(%rip),%rsi        # 1d79d <g_2878+0x273d>
   19df0:	48 89 c7             	mov    %rax,%rdi
   19df3:	e8 fb e8 fe ff       	callq  86f3 <transparent_crc>
   19df8:	8b 05 52 72 00 00    	mov    0x7252(%rip),%eax        # 21050 <g_79>
   19dfe:	48 98                	cltq   
   19e00:	8b 55 fc             	mov    -0x4(%rbp),%edx
   19e03:	48 8d 35 98 39 00 00 	lea    0x3998(%rip),%rsi        # 1d7a2 <g_2878+0x2742>
   19e0a:	48 89 c7             	mov    %rax,%rdi
   19e0d:	e8 e1 e8 fe ff       	callq  86f3 <transparent_crc>
   19e12:	0f b6 05 3b 72 00 00 	movzbl 0x723b(%rip),%eax        # 21054 <g_100>
   19e19:	48 0f be c0          	movsbq %al,%rax
   19e1d:	8b 55 fc             	mov    -0x4(%rbp),%edx
   19e20:	48 8d 35 80 39 00 00 	lea    0x3980(%rip),%rsi        # 1d7a7 <g_2878+0x2747>
   19e27:	48 89 c7             	mov    %rax,%rdi
   19e2a:	e8 c4 e8 fe ff       	callq  86f3 <transparent_crc>
   19e2f:	48 8b 05 22 72 00 00 	mov    0x7222(%rip),%rax        # 21058 <g_102>
   19e36:	48 89 c1             	mov    %rax,%rcx
   19e39:	8b 45 fc             	mov    -0x4(%rbp),%eax
   19e3c:	89 c2                	mov    %eax,%edx
   19e3e:	48 8d 35 68 39 00 00 	lea    0x3968(%rip),%rsi        # 1d7ad <g_2878+0x274d>
   19e45:	48 89 cf             	mov    %rcx,%rdi
   19e48:	e8 a6 e8 fe ff       	callq  86f3 <transparent_crc>
   19e4d:	c7 45 f0 00 00 00 00 	movl   $0x0,-0x10(%rbp)
   19e54:	e9 9b 00 00 00       	jmpq   19ef4 <main+0x278>
   19e59:	c7 45 f4 00 00 00 00 	movl   $0x0,-0xc(%rbp)
   19e60:	e9 81 00 00 00       	jmpq   19ee6 <main+0x26a>
   19e65:	c7 45 f8 00 00 00 00 	movl   $0x0,-0x8(%rbp)
   19e6c:	eb 6e                	jmp    19edc <main+0x260>
   19e6e:	8b 45 f8             	mov    -0x8(%rbp),%eax
   19e71:	48 63 f0             	movslq %eax,%rsi
   19e74:	8b 45 f4             	mov    -0xc(%rbp),%eax
   19e77:	48 63 c8             	movslq %eax,%rcx
   19e7a:	8b 45 f0             	mov    -0x10(%rbp),%eax
   19e7d:	48 63 d0             	movslq %eax,%rdx
   19e80:	48 89 d0             	mov    %rdx,%rax
   19e83:	48 c1 e0 03          	shl    $0x3,%rax
   19e87:	48 29 d0             	sub    %rdx,%rax
   19e8a:	48 01 f0             	add    %rsi,%rax
   19e8d:	48 01 c8             	add    %rcx,%rax
   19e90:	48 8d 14 85 00 00 00 	lea    0x0(,%rax,4),%rdx
   19e97:	00 
   19e98:	48 8d 05 c1 71 00 00 	lea    0x71c1(%rip),%rax        # 21060 <g_108>
   19e9f:	8b 04 02             	mov    (%rdx,%rax,1),%eax
   19ea2:	48 98                	cltq   
   19ea4:	8b 55 fc             	mov    -0x4(%rbp),%edx
   19ea7:	48 8d 35 05 39 00 00 	lea    0x3905(%rip),%rsi        # 1d7b3 <g_2878+0x2753>
   19eae:	48 89 c7             	mov    %rax,%rdi
   19eb1:	e8 3d e8 fe ff       	callq  86f3 <transparent_crc>
   19eb6:	83 7d fc 00          	cmpl   $0x0,-0x4(%rbp)
   19eba:	74 1c                	je     19ed8 <main+0x25c>
   19ebc:	8b 4d f8             	mov    -0x8(%rbp),%ecx
   19ebf:	8b 55 f4             	mov    -0xc(%rbp),%edx
   19ec2:	8b 45 f0             	mov    -0x10(%rbp),%eax
   19ec5:	89 c6                	mov    %eax,%esi
   19ec7:	48 8d 3d f4 38 00 00 	lea    0x38f4(%rip),%rdi        # 1d7c2 <g_2878+0x2762>
   19ece:	b8 00 00 00 00       	mov    $0x0,%eax
   19ed3:	e8 a8 d1 fe ff       	callq  7080 <printf@plt>
   19ed8:	83 45 f8 01          	addl   $0x1,-0x8(%rbp)
   19edc:	83 7d f8 00          	cmpl   $0x0,-0x8(%rbp)
   19ee0:	7e 8c                	jle    19e6e <main+0x1f2>
   19ee2:	83 45 f4 01          	addl   $0x1,-0xc(%rbp)
   19ee6:	83 7d f4 06          	cmpl   $0x6,-0xc(%rbp)
   19eea:	0f 8e 75 ff ff ff    	jle    19e65 <main+0x1e9>
   19ef0:	83 45 f0 01          	addl   $0x1,-0x10(%rbp)
   19ef4:	83 7d f0 09          	cmpl   $0x9,-0x10(%rbp)
   19ef8:	0f 8e 5b ff ff ff    	jle    19e59 <main+0x1dd>
   19efe:	0f b6 05 4b a7 00 00 	movzbl 0xa74b(%rip),%eax        # 24650 <g_111>
   19f05:	48 0f be c0          	movsbq %al,%rax
   19f09:	8b 55 fc             	mov    -0x4(%rbp),%edx
   19f0c:	48 8d 35 c5 38 00 00 	lea    0x38c5(%rip),%rsi        # 1d7d8 <g_2878+0x2778>
   19f13:	48 89 c7             	mov    %rax,%rdi
   19f16:	e8 d8 e7 fe ff       	callq  86f3 <transparent_crc>
   19f1b:	48 8b 05 56 72 00 00 	mov    0x7256(%rip),%rax        # 21178 <g_112>
   19f22:	8b 55 fc             	mov    -0x4(%rbp),%edx
   19f25:	48 8d 35 b2 38 00 00 	lea    0x38b2(%rip),%rsi        # 1d7de <g_2878+0x277e>
   19f2c:	48 89 c7             	mov    %rax,%rdi
   19f2f:	e8 bf e7 fe ff       	callq  86f3 <transparent_crc>
   19f34:	8b 05 46 72 00 00    	mov    0x7246(%rip),%eax        # 21180 <g_117>
   19f3a:	89 c1                	mov    %eax,%ecx
   19f3c:	8b 45 fc             	mov    -0x4(%rbp),%eax
   19f3f:	89 c2                	mov    %eax,%edx
   19f41:	48 8d 35 9c 38 00 00 	lea    0x389c(%rip),%rsi        # 1d7e4 <g_2878+0x2784>
   19f48:	48 89 cf             	mov    %rcx,%rdi
   19f4b:	e8 a3 e7 fe ff       	callq  86f3 <transparent_crc>
   19f50:	8b 05 2e 72 00 00    	mov    0x722e(%rip),%eax        # 21184 <g_122>
   19f56:	89 c1                	mov    %eax,%ecx
   19f58:	8b 45 fc             	mov    -0x4(%rbp),%eax
   19f5b:	89 c2                	mov    %eax,%edx
   19f5d:	48 8d 35 86 38 00 00 	lea    0x3886(%rip),%rsi        # 1d7ea <g_2878+0x278a>
   19f64:	48 89 cf             	mov    %rcx,%rdi
   19f67:	e8 87 e7 fe ff       	callq  86f3 <transparent_crc>
   19f6c:	0f b7 05 15 72 00 00 	movzwl 0x7215(%rip),%eax        # 21188 <g_189>
   19f73:	0f b7 c0             	movzwl %ax,%eax
   19f76:	8b 55 fc             	mov    -0x4(%rbp),%edx
   19f79:	48 8d 35 70 38 00 00 	lea    0x3870(%rip),%rsi        # 1d7f0 <g_2878+0x2790>
   19f80:	48 89 c7             	mov    %rax,%rdi
   19f83:	e8 6b e7 fe ff       	callq  86f3 <transparent_crc>
   19f88:	0f b6 05 fb 71 00 00 	movzbl 0x71fb(%rip),%eax        # 2118a <g_190>
   19f8f:	0f b6 c0             	movzbl %al,%eax
   19f92:	8b 55 fc             	mov    -0x4(%rbp),%edx
   19f95:	48 8d 35 5a 38 00 00 	lea    0x385a(%rip),%rsi        # 1d7f6 <g_2878+0x2796>
   19f9c:	48 89 c7             	mov    %rax,%rdi
   19f9f:	e8 4f e7 fe ff       	callq  86f3 <transparent_crc>
   19fa4:	8b 05 e2 71 00 00    	mov    0x71e2(%rip),%eax        # 2118c <g_192>
   19faa:	89 c1                	mov    %eax,%ecx
   19fac:	8b 45 fc             	mov    -0x4(%rbp),%eax
   19faf:	89 c2                	mov    %eax,%edx
   19fb1:	48 8d 35 44 38 00 00 	lea    0x3844(%rip),%rsi        # 1d7fc <g_2878+0x279c>
   19fb8:	48 89 cf             	mov    %rcx,%rdi
   19fbb:	e8 33 e7 fe ff       	callq  86f3 <transparent_crc>
   19fc0:	b8 00 00 00 00       	mov    $0x0,%eax
   19fc5:	48 0f be c0          	movsbq %al,%rax
   19fc9:	8b 55 fc             	mov    -0x4(%rbp),%edx
   19fcc:	48 8d 35 2f 38 00 00 	lea    0x382f(%rip),%rsi        # 1d802 <g_2878+0x27a2>
   19fd3:	48 89 c7             	mov    %rax,%rdi
   19fd6:	e8 18 e7 fe ff       	callq  86f3 <transparent_crc>
   19fdb:	48 8b 05 ae 71 00 00 	mov    0x71ae(%rip),%rax        # 21190 <g_227>
   19fe2:	48 89 c1             	mov    %rax,%rcx
   19fe5:	8b 45 fc             	mov    -0x4(%rbp),%eax
   19fe8:	89 c2                	mov    %eax,%edx
   19fea:	48 8d 35 17 38 00 00 	lea    0x3817(%rip),%rsi        # 1d808 <g_2878+0x27a8>
   19ff1:	48 89 cf             	mov    %rcx,%rdi
   19ff4:	e8 fa e6 fe ff       	callq  86f3 <transparent_crc>
   19ff9:	c7 45 f0 00 00 00 00 	movl   $0x0,-0x10(%rbp)
   1a000:	eb 45                	jmp    1a047 <main+0x3cb>
   1a002:	8b 45 f0             	mov    -0x10(%rbp),%eax
   1a005:	48 98                	cltq   
   1a007:	48 8d 15 8a 71 00 00 	lea    0x718a(%rip),%rdx        # 21198 <g_342>
   1a00e:	0f b6 04 10          	movzbl (%rax,%rdx,1),%eax
   1a012:	0f b6 c0             	movzbl %al,%eax
   1a015:	8b 55 fc             	mov    -0x4(%rbp),%edx
   1a018:	48 8d 35 ef 37 00 00 	lea    0x37ef(%rip),%rsi        # 1d80e <g_2878+0x27ae>
   1a01f:	48 89 c7             	mov    %rax,%rdi
   1a022:	e8 cc e6 fe ff       	callq  86f3 <transparent_crc>
   1a027:	83 7d fc 00          	cmpl   $0x0,-0x4(%rbp)
   1a02b:	74 16                	je     1a043 <main+0x3c7>
   1a02d:	8b 45 f0             	mov    -0x10(%rbp),%eax
   1a030:	89 c6                	mov    %eax,%esi
   1a032:	48 8d 3d de 37 00 00 	lea    0x37de(%rip),%rdi        # 1d817 <g_2878+0x27b7>
   1a039:	b8 00 00 00 00       	mov    $0x0,%eax
   1a03e:	e8 3d d0 fe ff       	callq  7080 <printf@plt>
   1a043:	83 45 f0 01          	addl   $0x1,-0x10(%rbp)
   1a047:	83 7d f0 06          	cmpl   $0x6,-0x10(%rbp)
   1a04b:	7e b5                	jle    1a002 <main+0x386>
   1a04d:	0f b6 05 14 a6 00 00 	movzbl 0xa614(%rip),%eax        # 24668 <g_356>
   1a054:	0f b6 c0             	movzbl %al,%eax
   1a057:	8b 55 fc             	mov    -0x4(%rbp),%edx
   1a05a:	48 8d 35 c4 37 00 00 	lea    0x37c4(%rip),%rsi        # 1d825 <g_2878+0x27c5>
   1a061:	48 89 c7             	mov    %rax,%rdi
   1a064:	e8 8a e6 fe ff       	callq  86f3 <transparent_crc>
   1a069:	0f b6 05 2f 71 00 00 	movzbl 0x712f(%rip),%eax        # 2119f <g_359>
   1a070:	48 0f be c0          	movsbq %al,%rax
   1a074:	8b 55 fc             	mov    -0x4(%rbp),%edx
   1a077:	48 8d 35 ad 37 00 00 	lea    0x37ad(%rip),%rsi        # 1d82b <g_2878+0x27cb>
   1a07e:	48 89 c7             	mov    %rax,%rdi
   1a081:	e8 6d e6 fe ff       	callq  86f3 <transparent_crc>
   1a086:	0f b6 05 dc a5 00 00 	movzbl 0xa5dc(%rip),%eax        # 24669 <g_360>
   1a08d:	48 0f be c0          	movsbq %al,%rax
   1a091:	8b 55 fc             	mov    -0x4(%rbp),%edx
   1a094:	48 8d 35 96 37 00 00 	lea    0x3796(%rip),%rsi        # 1d831 <g_2878+0x27d1>
   1a09b:	48 89 c7             	mov    %rax,%rdi
   1a09e:	e8 50 e6 fe ff       	callq  86f3 <transparent_crc>
   1a0a3:	48 8b 05 f6 70 00 00 	mov    0x70f6(%rip),%rax        # 211a0 <g_361>
   1a0aa:	48 89 c1             	mov    %rax,%rcx
   1a0ad:	8b 45 fc             	mov    -0x4(%rbp),%eax
   1a0b0:	89 c2                	mov    %eax,%edx
   1a0b2:	48 8d 35 7e 37 00 00 	lea    0x377e(%rip),%rsi        # 1d837 <g_2878+0x27d7>
   1a0b9:	48 89 cf             	mov    %rcx,%rdi
   1a0bc:	e8 32 e6 fe ff       	callq  86f3 <transparent_crc>
   1a0c1:	0f b6 05 e0 70 00 00 	movzbl 0x70e0(%rip),%eax        # 211a8 <g_396>
   1a0c8:	48 0f be c0          	movsbq %al,%rax
   1a0cc:	8b 55 fc             	mov    -0x4(%rbp),%edx
   1a0cf:	48 8d 35 67 37 00 00 	lea    0x3767(%rip),%rsi        # 1d83d <g_2878+0x27dd>
   1a0d6:	48 89 c7             	mov    %rax,%rdi
   1a0d9:	e8 15 e6 fe ff       	callq  86f3 <transparent_crc>
   1a0de:	8b 05 c8 70 00 00    	mov    0x70c8(%rip),%eax        # 211ac <g_397>
   1a0e4:	89 c1                	mov    %eax,%ecx
   1a0e6:	8b 45 fc             	mov    -0x4(%rbp),%eax
   1a0e9:	89 c2                	mov    %eax,%edx
   1a0eb:	48 8d 35 51 37 00 00 	lea    0x3751(%rip),%rsi        # 1d843 <g_2878+0x27e3>
   1a0f2:	48 89 cf             	mov    %rcx,%rdi
   1a0f5:	e8 f9 e5 fe ff       	callq  86f3 <transparent_crc>
   1a0fa:	0f b6 05 af 70 00 00 	movzbl 0x70af(%rip),%eax        # 211b0 <g_407>
   1a101:	0f b6 c0             	movzbl %al,%eax
   1a104:	8b 55 fc             	mov    -0x4(%rbp),%edx
   1a107:	48 8d 35 3b 37 00 00 	lea    0x373b(%rip),%rsi        # 1d849 <g_2878+0x27e9>
   1a10e:	48 89 c7             	mov    %rax,%rdi
   1a111:	e8 dd e5 fe ff       	callq  86f3 <transparent_crc>
   1a116:	0f b7 05 95 70 00 00 	movzwl 0x7095(%rip),%eax        # 211b2 <g_442>
   1a11d:	0f b7 c0             	movzwl %ax,%eax
   1a120:	8b 55 fc             	mov    -0x4(%rbp),%edx
   1a123:	48 8d 35 25 37 00 00 	lea    0x3725(%rip),%rsi        # 1d84f <g_2878+0x27ef>
   1a12a:	48 89 c7             	mov    %rax,%rdi
   1a12d:	e8 c1 e5 fe ff       	callq  86f3 <transparent_crc>
   1a132:	0f b7 05 7b 70 00 00 	movzwl 0x707b(%rip),%eax        # 211b4 <g_465>
   1a139:	0f b7 c0             	movzwl %ax,%eax
   1a13c:	8b 55 fc             	mov    -0x4(%rbp),%edx
   1a13f:	48 8d 35 0f 37 00 00 	lea    0x370f(%rip),%rsi        # 1d855 <g_2878+0x27f5>
   1a146:	48 89 c7             	mov    %rax,%rdi
   1a149:	e8 a5 e5 fe ff       	callq  86f3 <transparent_crc>
   1a14e:	c7 45 f0 00 00 00 00 	movl   $0x0,-0x10(%rbp)
   1a155:	eb 6a                	jmp    1a1c1 <main+0x545>
   1a157:	c7 45 f4 00 00 00 00 	movl   $0x0,-0xc(%rbp)
   1a15e:	eb 57                	jmp    1a1b7 <main+0x53b>
   1a160:	8b 45 f4             	mov    -0xc(%rbp),%eax
   1a163:	48 98                	cltq   
   1a165:	8b 55 f0             	mov    -0x10(%rbp),%edx
   1a168:	48 63 d2             	movslq %edx,%rdx
   1a16b:	48 c1 e2 03          	shl    $0x3,%rdx
   1a16f:	48 01 c2             	add    %rax,%rdx
   1a172:	48 8d 05 47 70 00 00 	lea    0x7047(%rip),%rax        # 211c0 <g_481>
   1a179:	48 01 d0             	add    %rdx,%rax
   1a17c:	0f b6 00             	movzbl (%rax),%eax
   1a17f:	0f b6 c0             	movzbl %al,%eax
   1a182:	8b 55 fc             	mov    -0x4(%rbp),%edx
   1a185:	48 8d 35 cf 36 00 00 	lea    0x36cf(%rip),%rsi        # 1d85b <g_2878+0x27fb>
   1a18c:	48 89 c7             	mov    %rax,%rdi
   1a18f:	e8 5f e5 fe ff       	callq  86f3 <transparent_crc>
   1a194:	83 7d fc 00          	cmpl   $0x0,-0x4(%rbp)
   1a198:	74 19                	je     1a1b3 <main+0x537>
   1a19a:	8b 55 f4             	mov    -0xc(%rbp),%edx
   1a19d:	8b 45 f0             	mov    -0x10(%rbp),%eax
   1a1a0:	89 c6                	mov    %eax,%esi
   1a1a2:	48 8d 3d be 36 00 00 	lea    0x36be(%rip),%rdi        # 1d867 <g_2878+0x2807>
   1a1a9:	b8 00 00 00 00       	mov    $0x0,%eax
   1a1ae:	e8 cd ce fe ff       	callq  7080 <printf@plt>
   1a1b3:	83 45 f4 01          	addl   $0x1,-0xc(%rbp)
   1a1b7:	83 7d f4 07          	cmpl   $0x7,-0xc(%rbp)
   1a1bb:	7e a3                	jle    1a160 <main+0x4e4>
   1a1bd:	83 45 f0 01          	addl   $0x1,-0x10(%rbp)
   1a1c1:	83 7d f0 03          	cmpl   $0x3,-0x10(%rbp)
   1a1c5:	7e 90                	jle    1a157 <main+0x4db>
   1a1c7:	8b 05 13 70 00 00    	mov    0x7013(%rip),%eax        # 211e0 <g_579>
   1a1cd:	89 c1                	mov    %eax,%ecx
   1a1cf:	8b 45 fc             	mov    -0x4(%rbp),%eax
   1a1d2:	89 c2                	mov    %eax,%edx
   1a1d4:	48 8d 35 9e 36 00 00 	lea    0x369e(%rip),%rsi        # 1d879 <g_2878+0x2819>
   1a1db:	48 89 cf             	mov    %rcx,%rdi
   1a1de:	e8 10 e5 fe ff       	callq  86f3 <transparent_crc>
   1a1e3:	0f b6 05 fa 6f 00 00 	movzbl 0x6ffa(%rip),%eax        # 211e4 <g_625>
   1a1ea:	0f b6 c0             	movzbl %al,%eax
   1a1ed:	8b 55 fc             	mov    -0x4(%rbp),%edx
   1a1f0:	48 8d 35 8b 36 00 00 	lea    0x368b(%rip),%rsi        # 1d882 <g_2878+0x2822>
   1a1f7:	48 89 c7             	mov    %rax,%rdi
   1a1fa:	e8 f4 e4 fe ff       	callq  86f3 <transparent_crc>
   1a1ff:	48 8b 05 e2 6f 00 00 	mov    0x6fe2(%rip),%rax        # 211e8 <g_797>
   1a206:	48 89 c1             	mov    %rax,%rcx
   1a209:	8b 45 fc             	mov    -0x4(%rbp),%eax
   1a20c:	89 c2                	mov    %eax,%edx
   1a20e:	48 8d 35 73 36 00 00 	lea    0x3673(%rip),%rsi        # 1d888 <g_2878+0x2828>
   1a215:	48 89 cf             	mov    %rcx,%rdi
   1a218:	e8 d6 e4 fe ff       	callq  86f3 <transparent_crc>
   1a21d:	0f b7 05 cc 6f 00 00 	movzwl 0x6fcc(%rip),%eax        # 211f0 <g_976>
   1a224:	0f b7 c0             	movzwl %ax,%eax
   1a227:	8b 55 fc             	mov    -0x4(%rbp),%edx
   1a22a:	48 8d 35 5d 36 00 00 	lea    0x365d(%rip),%rsi        # 1d88e <g_2878+0x282e>
   1a231:	48 89 c7             	mov    %rax,%rdi
   1a234:	e8 ba e4 fe ff       	callq  86f3 <transparent_crc>
   1a239:	8b 05 b5 6f 00 00    	mov    0x6fb5(%rip),%eax        # 211f4 <g_984>
   1a23f:	89 c1                	mov    %eax,%ecx
   1a241:	8b 45 fc             	mov    -0x4(%rbp),%eax
   1a244:	89 c2                	mov    %eax,%edx
   1a246:	48 8d 35 47 36 00 00 	lea    0x3647(%rip),%rsi        # 1d894 <g_2878+0x2834>
   1a24d:	48 89 cf             	mov    %rcx,%rdi
   1a250:	e8 9e e4 fe ff       	callq  86f3 <transparent_crc>
   1a255:	8b 05 9d 6f 00 00    	mov    0x6f9d(%rip),%eax        # 211f8 <g_985>
   1a25b:	89 c1                	mov    %eax,%ecx
   1a25d:	8b 45 fc             	mov    -0x4(%rbp),%eax
   1a260:	89 c2                	mov    %eax,%edx
   1a262:	48 8d 35 31 36 00 00 	lea    0x3631(%rip),%rsi        # 1d89a <g_2878+0x283a>
   1a269:	48 89 cf             	mov    %rcx,%rdi
   1a26c:	e8 82 e4 fe ff       	callq  86f3 <transparent_crc>
   1a271:	0f b6 05 84 6f 00 00 	movzbl 0x6f84(%rip),%eax        # 211fc <g_1109>
   1a278:	0f b6 c0             	movzbl %al,%eax
   1a27b:	8b 55 fc             	mov    -0x4(%rbp),%edx
   1a27e:	48 8d 35 1b 36 00 00 	lea    0x361b(%rip),%rsi        # 1d8a0 <g_2878+0x2840>
   1a285:	48 89 c7             	mov    %rax,%rdi
   1a288:	e8 66 e4 fe ff       	callq  86f3 <transparent_crc>
   1a28d:	0f b7 05 6a 6f 00 00 	movzwl 0x6f6a(%rip),%eax        # 211fe <g_1178>
   1a294:	0f b7 c0             	movzwl %ax,%eax
   1a297:	8b 55 fc             	mov    -0x4(%rbp),%edx
   1a29a:	48 8d 35 06 36 00 00 	lea    0x3606(%rip),%rsi        # 1d8a7 <g_2878+0x2847>
   1a2a1:	48 89 c7             	mov    %rax,%rdi
   1a2a4:	e8 4a e4 fe ff       	callq  86f3 <transparent_crc>
   1a2a9:	0f b6 05 50 6f 00 00 	movzbl 0x6f50(%rip),%eax        # 21200 <g_1266>
   1a2b0:	48 0f be c0          	movsbq %al,%rax
   1a2b4:	8b 55 fc             	mov    -0x4(%rbp),%edx
   1a2b7:	48 8d 35 f0 35 00 00 	lea    0x35f0(%rip),%rsi        # 1d8ae <g_2878+0x284e>
   1a2be:	48 89 c7             	mov    %rax,%rdi
   1a2c1:	e8 2d e4 fe ff       	callq  86f3 <transparent_crc>
   1a2c6:	0f b7 05 db a3 00 00 	movzwl 0xa3db(%rip),%eax        # 246a8 <g_1351>
   1a2cd:	48 0f bf c0          	movswq %ax,%rax
   1a2d1:	8b 55 fc             	mov    -0x4(%rbp),%edx
   1a2d4:	48 8d 35 da 35 00 00 	lea    0x35da(%rip),%rsi        # 1d8b5 <g_2878+0x2855>
   1a2db:	48 89 c7             	mov    %rax,%rdi
   1a2de:	e8 10 e4 fe ff       	callq  86f3 <transparent_crc>
   1a2e3:	8b 05 1b 6f 00 00    	mov    0x6f1b(%rip),%eax        # 21204 <g_1465>
   1a2e9:	89 c1                	mov    %eax,%ecx
   1a2eb:	8b 45 fc             	mov    -0x4(%rbp),%eax
   1a2ee:	89 c2                	mov    %eax,%edx
   1a2f0:	48 8d 35 c5 35 00 00 	lea    0x35c5(%rip),%rsi        # 1d8bc <g_2878+0x285c>
   1a2f7:	48 89 cf             	mov    %rcx,%rdi
   1a2fa:	e8 f4 e3 fe ff       	callq  86f3 <transparent_crc>
   1a2ff:	48 8b 05 02 6f 00 00 	mov    0x6f02(%rip),%rax        # 21208 <g_1489>
   1a306:	48 89 c1             	mov    %rax,%rcx
   1a309:	8b 45 fc             	mov    -0x4(%rbp),%eax
   1a30c:	89 c2                	mov    %eax,%edx
   1a30e:	48 8d 35 ae 35 00 00 	lea    0x35ae(%rip),%rsi        # 1d8c3 <g_2878+0x2863>
   1a315:	48 89 cf             	mov    %rcx,%rdi
   1a318:	e8 d6 e3 fe ff       	callq  86f3 <transparent_crc>
   1a31d:	8b 05 ed 6e 00 00    	mov    0x6eed(%rip),%eax        # 21210 <g_1562>
   1a323:	89 c1                	mov    %eax,%ecx
   1a325:	8b 45 fc             	mov    -0x4(%rbp),%eax
   1a328:	89 c2                	mov    %eax,%edx
   1a32a:	48 8d 35 99 35 00 00 	lea    0x3599(%rip),%rsi        # 1d8ca <g_2878+0x286a>
   1a331:	48 89 cf             	mov    %rcx,%rdi
   1a334:	e8 ba e3 fe ff       	callq  86f3 <transparent_crc>
   1a339:	8b 05 19 0d 00 00    	mov    0xd19(%rip),%eax        # 1b058 <g_1727>
   1a33f:	89 c1                	mov    %eax,%ecx
   1a341:	8b 45 fc             	mov    -0x4(%rbp),%eax
   1a344:	89 c2                	mov    %eax,%edx
   1a346:	48 8d 35 84 35 00 00 	lea    0x3584(%rip),%rsi        # 1d8d1 <g_2878+0x2871>
   1a34d:	48 89 cf             	mov    %rcx,%rdi
   1a350:	e8 9e e3 fe ff       	callq  86f3 <transparent_crc>
   1a355:	0f b7 05 b8 6e 00 00 	movzwl 0x6eb8(%rip),%eax        # 21214 <g_1794>
   1a35c:	0f b7 c0             	movzwl %ax,%eax
   1a35f:	8b 55 fc             	mov    -0x4(%rbp),%edx
   1a362:	48 8d 35 72 35 00 00 	lea    0x3572(%rip),%rsi        # 1d8db <g_2878+0x287b>
   1a369:	48 89 c7             	mov    %rax,%rdi
   1a36c:	e8 82 e3 fe ff       	callq  86f3 <transparent_crc>
   1a371:	c7 45 f0 00 00 00 00 	movl   $0x0,-0x10(%rbp)
   1a378:	eb 74                	jmp    1a3ee <main+0x772>
   1a37a:	c7 45 f4 00 00 00 00 	movl   $0x0,-0xc(%rbp)
   1a381:	eb 61                	jmp    1a3e4 <main+0x768>
   1a383:	8b 45 f4             	mov    -0xc(%rbp),%eax
   1a386:	48 63 c8             	movslq %eax,%rcx
   1a389:	8b 45 f0             	mov    -0x10(%rbp),%eax
   1a38c:	48 63 d0             	movslq %eax,%rdx
   1a38f:	48 89 d0             	mov    %rdx,%rax
   1a392:	48 c1 e0 03          	shl    $0x3,%rax
   1a396:	48 01 d0             	add    %rdx,%rax
   1a399:	48 01 c8             	add    %rcx,%rax
   1a39c:	48 8d 14 00          	lea    (%rax,%rax,1),%rdx
   1a3a0:	48 8d 05 79 6e 00 00 	lea    0x6e79(%rip),%rax        # 21220 <g_1916>
   1a3a7:	0f b7 04 02          	movzwl (%rdx,%rax,1),%eax
   1a3ab:	48 0f bf c0          	movswq %ax,%rax
   1a3af:	8b 55 fc             	mov    -0x4(%rbp),%edx
   1a3b2:	48 8d 35 29 35 00 00 	lea    0x3529(%rip),%rsi        # 1d8e2 <g_2878+0x2882>
   1a3b9:	48 89 c7             	mov    %rax,%rdi
   1a3bc:	e8 32 e3 fe ff       	callq  86f3 <transparent_crc>
   1a3c1:	83 7d fc 00          	cmpl   $0x0,-0x4(%rbp)
   1a3c5:	74 19                	je     1a3e0 <main+0x764>
   1a3c7:	8b 55 f4             	mov    -0xc(%rbp),%edx
   1a3ca:	8b 45 f0             	mov    -0x10(%rbp),%eax
   1a3cd:	89 c6                	mov    %eax,%esi
   1a3cf:	48 8d 3d 91 34 00 00 	lea    0x3491(%rip),%rdi        # 1d867 <g_2878+0x2807>
   1a3d6:	b8 00 00 00 00       	mov    $0x0,%eax
   1a3db:	e8 a0 cc fe ff       	callq  7080 <printf@plt>
   1a3e0:	83 45 f4 01          	addl   $0x1,-0xc(%rbp)
   1a3e4:	83 7d f4 08          	cmpl   $0x8,-0xc(%rbp)
   1a3e8:	7e 99                	jle    1a383 <main+0x707>
   1a3ea:	83 45 f0 01          	addl   $0x1,-0x10(%rbp)
   1a3ee:	83 7d f0 04          	cmpl   $0x4,-0x10(%rbp)
   1a3f2:	7e 86                	jle    1a37a <main+0x6fe>
   1a3f4:	0f b7 05 7f 6e 00 00 	movzwl 0x6e7f(%rip),%eax        # 2127a <g_1920>
   1a3fb:	48 0f bf c0          	movswq %ax,%rax
   1a3ff:	8b 55 fc             	mov    -0x4(%rbp),%edx
   1a402:	48 8d 35 e6 34 00 00 	lea    0x34e6(%rip),%rsi        # 1d8ef <g_2878+0x288f>
   1a409:	48 89 c7             	mov    %rax,%rdi
   1a40c:	e8 e2 e2 fe ff       	callq  86f3 <transparent_crc>
   1a411:	c7 45 f0 00 00 00 00 	movl   $0x0,-0x10(%rbp)
   1a418:	eb 49                	jmp    1a463 <main+0x7e7>
   1a41a:	8b 45 f0             	mov    -0x10(%rbp),%eax
   1a41d:	48 98                	cltq   
   1a41f:	48 8d 14 00          	lea    (%rax,%rax,1),%rdx
   1a423:	48 8d 05 8e a2 00 00 	lea    0xa28e(%rip),%rax        # 246b8 <g_1922>
   1a42a:	0f b7 04 02          	movzwl (%rdx,%rax,1),%eax
   1a42e:	0f b7 c0             	movzwl %ax,%eax
   1a431:	8b 55 fc             	mov    -0x4(%rbp),%edx
   1a434:	48 8d 35 bb 34 00 00 	lea    0x34bb(%rip),%rsi        # 1d8f6 <g_2878+0x2896>
   1a43b:	48 89 c7             	mov    %rax,%rdi
   1a43e:	e8 b0 e2 fe ff       	callq  86f3 <transparent_crc>
   1a443:	83 7d fc 00          	cmpl   $0x0,-0x4(%rbp)
   1a447:	74 16                	je     1a45f <main+0x7e3>
   1a449:	8b 45 f0             	mov    -0x10(%rbp),%eax
   1a44c:	89 c6                	mov    %eax,%esi
   1a44e:	48 8d 3d c2 33 00 00 	lea    0x33c2(%rip),%rdi        # 1d817 <g_2878+0x27b7>
   1a455:	b8 00 00 00 00       	mov    $0x0,%eax
   1a45a:	e8 21 cc fe ff       	callq  7080 <printf@plt>
   1a45f:	83 45 f0 01          	addl   $0x1,-0x10(%rbp)
   1a463:	83 7d f0 03          	cmpl   $0x3,-0x10(%rbp)
   1a467:	7e b1                	jle    1a41a <main+0x79e>
   1a469:	0f b6 05 0c 6e 00 00 	movzbl 0x6e0c(%rip),%eax        # 2127c <g_2042>
   1a470:	0f b6 c0             	movzbl %al,%eax
   1a473:	8b 55 fc             	mov    -0x4(%rbp),%edx
   1a476:	48 8d 35 83 34 00 00 	lea    0x3483(%rip),%rsi        # 1d900 <g_2878+0x28a0>
   1a47d:	48 89 c7             	mov    %rax,%rdi
   1a480:	e8 6e e2 fe ff       	callq  86f3 <transparent_crc>
   1a485:	c7 45 f0 00 00 00 00 	movl   $0x0,-0x10(%rbp)
   1a48c:	eb 4b                	jmp    1a4d9 <main+0x85d>
   1a48e:	8b 45 f0             	mov    -0x10(%rbp),%eax
   1a491:	48 98                	cltq   
   1a493:	48 8d 14 85 00 00 00 	lea    0x0(,%rax,4),%rdx
   1a49a:	00 
   1a49b:	48 8d 05 de 6d 00 00 	lea    0x6dde(%rip),%rax        # 21280 <g_2131>
   1a4a2:	8b 04 02             	mov    (%rdx,%rax,1),%eax
   1a4a5:	48 98                	cltq   
   1a4a7:	8b 55 fc             	mov    -0x4(%rbp),%edx
   1a4aa:	48 8d 35 56 34 00 00 	lea    0x3456(%rip),%rsi        # 1d907 <g_2878+0x28a7>
   1a4b1:	48 89 c7             	mov    %rax,%rdi
   1a4b4:	e8 3a e2 fe ff       	callq  86f3 <transparent_crc>
   1a4b9:	83 7d fc 00          	cmpl   $0x0,-0x4(%rbp)
   1a4bd:	74 16                	je     1a4d5 <main+0x859>
   1a4bf:	8b 45 f0             	mov    -0x10(%rbp),%eax
   1a4c2:	89 c6                	mov    %eax,%esi
   1a4c4:	48 8d 3d 4c 33 00 00 	lea    0x334c(%rip),%rdi        # 1d817 <g_2878+0x27b7>
   1a4cb:	b8 00 00 00 00       	mov    $0x0,%eax
   1a4d0:	e8 ab cb fe ff       	callq  7080 <printf@plt>
   1a4d5:	83 45 f0 01          	addl   $0x1,-0x10(%rbp)
   1a4d9:	83 7d f0 07          	cmpl   $0x7,-0x10(%rbp)
   1a4dd:	7e af                	jle    1a48e <main+0x812>
   1a4df:	0f b7 05 ba 6d 00 00 	movzwl 0x6dba(%rip),%eax        # 212a0 <g_2134>
   1a4e6:	48 0f bf c0          	movswq %ax,%rax
   1a4ea:	8b 55 fc             	mov    -0x4(%rbp),%edx
   1a4ed:	48 8d 35 1d 34 00 00 	lea    0x341d(%rip),%rsi        # 1d911 <g_2878+0x28b1>
   1a4f4:	48 89 c7             	mov    %rax,%rdi
   1a4f7:	e8 f7 e1 fe ff       	callq  86f3 <transparent_crc>
   1a4fc:	8b 05 a2 6d 00 00    	mov    0x6da2(%rip),%eax        # 212a4 <g_2159>
   1a502:	89 c1                	mov    %eax,%ecx
   1a504:	8b 45 fc             	mov    -0x4(%rbp),%eax
   1a507:	89 c2                	mov    %eax,%edx
   1a509:	48 8d 35 08 34 00 00 	lea    0x3408(%rip),%rsi        # 1d918 <g_2878+0x28b8>
   1a510:	48 89 cf             	mov    %rcx,%rdi
   1a513:	e8 db e1 fe ff       	callq  86f3 <transparent_crc>
   1a518:	c7 45 f0 00 00 00 00 	movl   $0x0,-0x10(%rbp)
   1a51f:	e9 b4 00 00 00       	jmpq   1a5d8 <main+0x95c>
   1a524:	c7 45 f4 00 00 00 00 	movl   $0x0,-0xc(%rbp)
   1a52b:	e9 9a 00 00 00       	jmpq   1a5ca <main+0x94e>
   1a530:	c7 45 f8 00 00 00 00 	movl   $0x0,-0x8(%rbp)
   1a537:	e9 80 00 00 00       	jmpq   1a5bc <main+0x940>
   1a53c:	8b 45 f8             	mov    -0x8(%rbp),%eax
   1a53f:	48 63 f0             	movslq %eax,%rsi
   1a542:	8b 45 f0             	mov    -0x10(%rbp),%eax
   1a545:	48 98                	cltq   
   1a547:	8b 55 f4             	mov    -0xc(%rbp),%edx
   1a54a:	48 63 ca             	movslq %edx,%rcx
   1a54d:	48 89 c2             	mov    %rax,%rdx
   1a550:	48 c1 e2 04          	shl    $0x4,%rdx
   1a554:	48 29 c2             	sub    %rax,%rdx
   1a557:	48 8d 04 12          	lea    (%rdx,%rdx,1),%rax
   1a55b:	48 89 c2             	mov    %rax,%rdx
   1a55e:	48 89 c8             	mov    %rcx,%rax
   1a561:	48 01 c0             	add    %rax,%rax
   1a564:	48 01 c8             	add    %rcx,%rax
   1a567:	48 01 c0             	add    %rax,%rax
   1a56a:	48 01 d0             	add    %rdx,%rax
   1a56d:	48 01 f0             	add    %rsi,%rax
   1a570:	48 8d 14 85 00 00 00 	lea    0x0(,%rax,4),%rdx
   1a577:	00 
   1a578:	48 8d 05 41 6d 00 00 	lea    0x6d41(%rip),%rax        # 212c0 <g_2195>
   1a57f:	8b 04 02             	mov    (%rdx,%rax,1),%eax
   1a582:	48 98                	cltq   
   1a584:	8b 55 fc             	mov    -0x4(%rbp),%edx
   1a587:	48 8d 35 91 33 00 00 	lea    0x3391(%rip),%rsi        # 1d91f <g_2878+0x28bf>
   1a58e:	48 89 c7             	mov    %rax,%rdi
   1a591:	e8 5d e1 fe ff       	callq  86f3 <transparent_crc>
   1a596:	83 7d fc 00          	cmpl   $0x0,-0x4(%rbp)
   1a59a:	74 1c                	je     1a5b8 <main+0x93c>
   1a59c:	8b 4d f8             	mov    -0x8(%rbp),%ecx
   1a59f:	8b 55 f4             	mov    -0xc(%rbp),%edx
   1a5a2:	8b 45 f0             	mov    -0x10(%rbp),%eax
   1a5a5:	89 c6                	mov    %eax,%esi
   1a5a7:	48 8d 3d 14 32 00 00 	lea    0x3214(%rip),%rdi        # 1d7c2 <g_2878+0x2762>
   1a5ae:	b8 00 00 00 00       	mov    $0x0,%eax
   1a5b3:	e8 c8 ca fe ff       	callq  7080 <printf@plt>
   1a5b8:	83 45 f8 01          	addl   $0x1,-0x8(%rbp)
   1a5bc:	83 7d f8 05          	cmpl   $0x5,-0x8(%rbp)
   1a5c0:	0f 8e 76 ff ff ff    	jle    1a53c <main+0x8c0>
   1a5c6:	83 45 f4 01          	addl   $0x1,-0xc(%rbp)
   1a5ca:	83 7d f4 04          	cmpl   $0x4,-0xc(%rbp)
   1a5ce:	0f 8e 5c ff ff ff    	jle    1a530 <main+0x8b4>
   1a5d4:	83 45 f0 01          	addl   $0x1,-0x10(%rbp)
   1a5d8:	83 7d f0 00          	cmpl   $0x0,-0x10(%rbp)
   1a5dc:	0f 8e 42 ff ff ff    	jle    1a524 <main+0x8a8>
   1a5e2:	8b 05 50 6d 00 00    	mov    0x6d50(%rip),%eax        # 21338 <g_2310>
   1a5e8:	48 98                	cltq   
   1a5ea:	8b 55 fc             	mov    -0x4(%rbp),%edx
   1a5ed:	48 8d 35 3b 33 00 00 	lea    0x333b(%rip),%rsi        # 1d92f <g_2878+0x28cf>
   1a5f4:	48 89 c7             	mov    %rax,%rdi
   1a5f7:	e8 f7 e0 fe ff       	callq  86f3 <transparent_crc>
   1a5fc:	c7 45 f0 00 00 00 00 	movl   $0x0,-0x10(%rbp)
   1a603:	eb 4d                	jmp    1a652 <main+0x9d6>
   1a605:	8b 45 f0             	mov    -0x10(%rbp),%eax
   1a608:	48 98                	cltq   
   1a60a:	48 8d 14 85 00 00 00 	lea    0x0(,%rax,4),%rdx
   1a611:	00 
   1a612:	48 8d 05 27 6d 00 00 	lea    0x6d27(%rip),%rax        # 21340 <g_2313>
   1a619:	8b 04 02             	mov    (%rdx,%rax,1),%eax
   1a61c:	89 c1                	mov    %eax,%ecx
   1a61e:	8b 45 fc             	mov    -0x4(%rbp),%eax
   1a621:	89 c2                	mov    %eax,%edx
   1a623:	48 8d 35 0c 33 00 00 	lea    0x330c(%rip),%rsi        # 1d936 <g_2878+0x28d6>
   1a62a:	48 89 cf             	mov    %rcx,%rdi
   1a62d:	e8 c1 e0 fe ff       	callq  86f3 <transparent_crc>
   1a632:	83 7d fc 00          	cmpl   $0x0,-0x4(%rbp)
   1a636:	74 16                	je     1a64e <main+0x9d2>
   1a638:	8b 45 f0             	mov    -0x10(%rbp),%eax
   1a63b:	89 c6                	mov    %eax,%esi
   1a63d:	48 8d 3d d3 31 00 00 	lea    0x31d3(%rip),%rdi        # 1d817 <g_2878+0x27b7>
   1a644:	b8 00 00 00 00       	mov    $0x0,%eax
   1a649:	e8 32 ca fe ff       	callq  7080 <printf@plt>
   1a64e:	83 45 f0 01          	addl   $0x1,-0x10(%rbp)
   1a652:	83 7d f0 07          	cmpl   $0x7,-0x10(%rbp)
   1a656:	7e ad                	jle    1a605 <main+0x989>
   1a658:	c7 45 f0 00 00 00 00 	movl   $0x0,-0x10(%rbp)
   1a65f:	eb 7a                	jmp    1a6db <main+0xa5f>
   1a661:	c7 45 f4 00 00 00 00 	movl   $0x0,-0xc(%rbp)
   1a668:	eb 67                	jmp    1a6d1 <main+0xa55>
   1a66a:	8b 45 f4             	mov    -0xc(%rbp),%eax
   1a66d:	48 63 c8             	movslq %eax,%rcx
   1a670:	8b 45 f0             	mov    -0x10(%rbp),%eax
   1a673:	48 63 d0             	movslq %eax,%rdx
   1a676:	48 89 d0             	mov    %rdx,%rax
   1a679:	48 c1 e0 02          	shl    $0x2,%rax
   1a67d:	48 01 d0             	add    %rdx,%rax
   1a680:	48 01 c0             	add    %rax,%rax
   1a683:	48 01 c8             	add    %rcx,%rax
   1a686:	48 8d 14 85 00 00 00 	lea    0x0(,%rax,4),%rdx
   1a68d:	00 
   1a68e:	48 8d 05 cb 6c 00 00 	lea    0x6ccb(%rip),%rax        # 21360 <g_2454>
   1a695:	8b 04 02             	mov    (%rdx,%rax,1),%eax
   1a698:	89 c1                	mov    %eax,%ecx
   1a69a:	8b 45 fc             	mov    -0x4(%rbp),%eax
   1a69d:	89 c2                	mov    %eax,%edx
   1a69f:	48 8d 35 9a 32 00 00 	lea    0x329a(%rip),%rsi        # 1d940 <g_2878+0x28e0>
   1a6a6:	48 89 cf             	mov    %rcx,%rdi
   1a6a9:	e8 45 e0 fe ff       	callq  86f3 <transparent_crc>
   1a6ae:	83 7d fc 00          	cmpl   $0x0,-0x4(%rbp)
   1a6b2:	74 19                	je     1a6cd <main+0xa51>
   1a6b4:	8b 55 f4             	mov    -0xc(%rbp),%edx
   1a6b7:	8b 45 f0             	mov    -0x10(%rbp),%eax
   1a6ba:	89 c6                	mov    %eax,%esi
   1a6bc:	48 8d 3d a4 31 00 00 	lea    0x31a4(%rip),%rdi        # 1d867 <g_2878+0x2807>
   1a6c3:	b8 00 00 00 00       	mov    $0x0,%eax
   1a6c8:	e8 b3 c9 fe ff       	callq  7080 <printf@plt>
   1a6cd:	83 45 f4 01          	addl   $0x1,-0xc(%rbp)
   1a6d1:	83 7d f4 09          	cmpl   $0x9,-0xc(%rbp)
   1a6d5:	7e 93                	jle    1a66a <main+0x9ee>
   1a6d7:	83 45 f0 01          	addl   $0x1,-0x10(%rbp)
   1a6db:	83 7d f0 05          	cmpl   $0x5,-0x10(%rbp)
   1a6df:	7e 80                	jle    1a661 <main+0x9e5>
   1a6e1:	0f b6 05 68 6d 00 00 	movzbl 0x6d68(%rip),%eax        # 21450 <g_2479>
   1a6e8:	48 0f be c0          	movsbq %al,%rax
   1a6ec:	8b 55 fc             	mov    -0x4(%rbp),%edx
   1a6ef:	48 8d 35 5a 32 00 00 	lea    0x325a(%rip),%rsi        # 1d950 <g_2878+0x28f0>
   1a6f6:	48 89 c7             	mov    %rax,%rdi
   1a6f9:	e8 f5 df fe ff       	callq  86f3 <transparent_crc>
   1a6fe:	8b 05 50 6d 00 00    	mov    0x6d50(%rip),%eax        # 21454 <g_2603>
   1a704:	89 c1                	mov    %eax,%ecx
   1a706:	8b 45 fc             	mov    -0x4(%rbp),%eax
   1a709:	89 c2                	mov    %eax,%edx
   1a70b:	48 8d 35 45 32 00 00 	lea    0x3245(%rip),%rsi        # 1d957 <g_2878+0x28f7>
   1a712:	48 89 cf             	mov    %rcx,%rdi
   1a715:	e8 d9 df fe ff       	callq  86f3 <transparent_crc>
   1a71a:	8b 05 38 6d 00 00    	mov    0x6d38(%rip),%eax        # 21458 <g_2694>
   1a720:	89 c1                	mov    %eax,%ecx
   1a722:	8b 45 fc             	mov    -0x4(%rbp),%eax
   1a725:	89 c2                	mov    %eax,%edx
   1a727:	48 8d 35 33 32 00 00 	lea    0x3233(%rip),%rsi        # 1d961 <g_2878+0x2901>
   1a72e:	48 89 cf             	mov    %rcx,%rdi
   1a731:	e8 bd df fe ff       	callq  86f3 <transparent_crc>
   1a736:	8b 05 20 6d 00 00    	mov    0x6d20(%rip),%eax        # 2145c <g_2846>
   1a73c:	89 c1                	mov    %eax,%ecx
   1a73e:	8b 45 fc             	mov    -0x4(%rbp),%eax
   1a741:	89 c2                	mov    %eax,%edx
   1a743:	48 8d 35 21 32 00 00 	lea    0x3221(%rip),%rsi        # 1d96b <g_2878+0x290b>
   1a74a:	48 89 cf             	mov    %rcx,%rdi
   1a74d:	e8 a1 df fe ff       	callq  86f3 <transparent_crc>
   1a752:	c7 45 f0 00 00 00 00 	movl   $0x0,-0x10(%rbp)
   1a759:	e9 bc 00 00 00       	jmpq   1a81a <main+0xb9e>
   1a75e:	c7 45 f4 00 00 00 00 	movl   $0x0,-0xc(%rbp)
   1a765:	e9 a2 00 00 00       	jmpq   1a80c <main+0xb90>
   1a76a:	c7 45 f8 00 00 00 00 	movl   $0x0,-0x8(%rbp)
   1a771:	e9 88 00 00 00       	jmpq   1a7fe <main+0xb82>
   1a776:	8b 45 f8             	mov    -0x8(%rbp),%eax
   1a779:	48 63 f0             	movslq %eax,%rsi
   1a77c:	8b 45 f0             	mov    -0x10(%rbp),%eax
   1a77f:	48 63 d0             	movslq %eax,%rdx
   1a782:	8b 45 f4             	mov    -0xc(%rbp),%eax
   1a785:	48 63 c8             	movslq %eax,%rcx
   1a788:	48 89 d0             	mov    %rdx,%rax
   1a78b:	48 c1 e0 02          	shl    $0x2,%rax
   1a78f:	48 01 d0             	add    %rdx,%rax
   1a792:	48 8d 14 85 00 00 00 	lea    0x0(,%rax,4),%rdx
   1a799:	00 
   1a79a:	48 01 d0             	add    %rdx,%rax
   1a79d:	48 01 c0             	add    %rax,%rax
   1a7a0:	48 89 ca             	mov    %rcx,%rdx
   1a7a3:	48 c1 e2 02          	shl    $0x2,%rdx
   1a7a7:	48 01 ca             	add    %rcx,%rdx
   1a7aa:	48 01 d0             	add    %rdx,%rax
   1a7ad:	48 01 f0             	add    %rsi,%rax
   1a7b0:	48 8d 14 85 00 00 00 	lea    0x0(,%rax,4),%rdx
   1a7b7:	00 
   1a7b8:	48 8d 05 a1 08 00 00 	lea    0x8a1(%rip),%rax        # 1b060 <g_2878>
   1a7bf:	8b 04 02             	mov    (%rdx,%rax,1),%eax
   1a7c2:	89 c1                	mov    %eax,%ecx
   1a7c4:	8b 45 fc             	mov    -0x4(%rbp),%eax
   1a7c7:	89 c2                	mov    %eax,%edx
   1a7c9:	48 8d 35 a5 31 00 00 	lea    0x31a5(%rip),%rsi        # 1d975 <g_2878+0x2915>
   1a7d0:	48 89 cf             	mov    %rcx,%rdi
   1a7d3:	e8 1b df fe ff       	callq  86f3 <transparent_crc>
   1a7d8:	83 7d fc 00          	cmpl   $0x0,-0x4(%rbp)
   1a7dc:	74 1c                	je     1a7fa <main+0xb7e>
   1a7de:	8b 4d f8             	mov    -0x8(%rbp),%ecx
   1a7e1:	8b 55 f4             	mov    -0xc(%rbp),%edx
   1a7e4:	8b 45 f0             	mov    -0x10(%rbp),%eax
   1a7e7:	89 c6                	mov    %eax,%esi
   1a7e9:	48 8d 3d d2 2f 00 00 	lea    0x2fd2(%rip),%rdi        # 1d7c2 <g_2878+0x2762>
   1a7f0:	b8 00 00 00 00       	mov    $0x0,%eax
   1a7f5:	e8 86 c8 fe ff       	callq  7080 <printf@plt>
   1a7fa:	83 45 f8 01          	addl   $0x1,-0x8(%rbp)
   1a7fe:	83 7d f8 04          	cmpl   $0x4,-0x8(%rbp)
   1a802:	0f 8e 6e ff ff ff    	jle    1a776 <main+0xafa>
   1a808:	83 45 f4 01          	addl   $0x1,-0xc(%rbp)
   1a80c:	83 7d f4 09          	cmpl   $0x9,-0xc(%rbp)
   1a810:	0f 8e 54 ff ff ff    	jle    1a76a <main+0xaee>
   1a816:	83 45 f0 01          	addl   $0x1,-0x10(%rbp)
   1a81a:	83 7d f0 01          	cmpl   $0x1,-0x10(%rbp)
   1a81e:	0f 8e 3a ff ff ff    	jle    1a75e <main+0xae2>
   1a824:	8b 05 36 6c 00 00    	mov    0x6c36(%rip),%eax        # 21460 <g_2922>
   1a82a:	48 98                	cltq   
   1a82c:	8b 55 fc             	mov    -0x4(%rbp),%edx
   1a82f:	48 8d 35 52 31 00 00 	lea    0x3152(%rip),%rsi        # 1d988 <g_2878+0x2928>
   1a836:	48 89 c7             	mov    %rax,%rdi
   1a839:	e8 b5 de fe ff       	callq  86f3 <transparent_crc>
   1a83e:	8b 05 20 6c 00 00    	mov    0x6c20(%rip),%eax        # 21464 <g_3045>
   1a844:	89 c1                	mov    %eax,%ecx
   1a846:	8b 45 fc             	mov    -0x4(%rbp),%eax
   1a849:	89 c2                	mov    %eax,%edx
   1a84b:	48 8d 35 3d 31 00 00 	lea    0x313d(%rip),%rsi        # 1d98f <g_2878+0x292f>
   1a852:	48 89 cf             	mov    %rcx,%rdi
   1a855:	e8 99 de fe ff       	callq  86f3 <transparent_crc>
   1a85a:	8b 05 c0 67 00 00    	mov    0x67c0(%rip),%eax        # 21020 <crc32_context>
   1a860:	f7 d0                	not    %eax
   1a862:	89 c2                	mov    %eax,%edx
   1a864:	8b 45 fc             	mov    -0x4(%rbp),%eax
   1a867:	89 c6                	mov    %eax,%esi
   1a869:	89 d7                	mov    %edx,%edi
   1a86b:	e8 24 c9 fe ff       	callq  7194 <platform_main_end>
   1a870:	b8 00 00 00 00       	mov    $0x0,%eax
   1a875:	c9                   	leaveq 
   1a876:	c3                   	retq   
   1a877:	66 0f 1f 84 00 00 00 	nopw   0x0(%rax,%rax,1)
   1a87e:	00 00 

000000000001a880 <__libc_csu_init>:
   1a880:	f3 0f 1e fa          	endbr64 
   1a884:	41 57                	push   %r15
   1a886:	4c 8d 3d a3 64 00 00 	lea    0x64a3(%rip),%r15        # 20d30 <__frame_dummy_init_array_entry>
   1a88d:	41 56                	push   %r14
   1a88f:	49 89 d6             	mov    %rdx,%r14
   1a892:	41 55                	push   %r13
   1a894:	49 89 f5             	mov    %rsi,%r13
   1a897:	41 54                	push   %r12
   1a899:	41 89 fc             	mov    %edi,%r12d
   1a89c:	55                   	push   %rbp
   1a89d:	48 8d 2d 94 64 00 00 	lea    0x6494(%rip),%rbp        # 20d38 <__do_global_dtors_aux_fini_array_entry>
   1a8a4:	53                   	push   %rbx
   1a8a5:	4c 29 fd             	sub    %r15,%rbp
   1a8a8:	48 83 ec 08          	sub    $0x8,%rsp
   1a8ac:	e8 4f c7 fe ff       	callq  7000 <_init>
   1a8b1:	48 c1 fd 03          	sar    $0x3,%rbp
   1a8b5:	74 1f                	je     1a8d6 <__libc_csu_init+0x56>
   1a8b7:	31 db                	xor    %ebx,%ebx
   1a8b9:	0f 1f 80 00 00 00 00 	nopl   0x0(%rax)
   1a8c0:	4c 89 f2             	mov    %r14,%rdx
   1a8c3:	4c 89 ee             	mov    %r13,%rsi
   1a8c6:	44 89 e7             	mov    %r12d,%edi
   1a8c9:	41 ff 14 df          	callq  *(%r15,%rbx,8)
   1a8cd:	48 83 c3 01          	add    $0x1,%rbx
   1a8d1:	48 39 dd             	cmp    %rbx,%rbp
   1a8d4:	75 ea                	jne    1a8c0 <__libc_csu_init+0x40>
   1a8d6:	48 83 c4 08          	add    $0x8,%rsp
   1a8da:	5b                   	pop    %rbx
   1a8db:	5d                   	pop    %rbp
   1a8dc:	41 5c                	pop    %r12
   1a8de:	41 5d                	pop    %r13
   1a8e0:	41 5e                	pop    %r14
   1a8e2:	41 5f                	pop    %r15
   1a8e4:	c3                   	retq   
   1a8e5:	66 66 2e 0f 1f 84 00 	data16 nopw %cs:0x0(%rax,%rax,1)
   1a8ec:	00 00 00 00 

000000000001a8f0 <__libc_csu_fini>:
   1a8f0:	f3 0f 1e fa          	endbr64 
   1a8f4:	c3                   	retq   
