


Disassembly of section .text:

00000000000060a0 <_start>:
    60a0:	f3 0f 1e fa          	endbr64 
    60a4:	31 ed                	xor    %ebp,%ebp
    60a6:	49 89 d1             	mov    %rdx,%r9
    60a9:	5e                   	pop    %rsi
    60aa:	48 89 e2             	mov    %rsp,%rdx
    60ad:	48 83 e4 f0          	and    $0xfffffffffffffff0,%rsp
    60b1:	50                   	push   %rax
    60b2:	54                   	push   %rsp
    60b3:	4c 8d 05 b6 c7 00 00 	lea    0xc7b6(%rip),%r8        # 12870 <__libc_csu_fini>
    60ba:	48 8d 0d 3f c7 00 00 	lea    0xc73f(%rip),%rcx        # 12800 <__libc_csu_init>
    60c1:	48 8d 3d a8 6a 00 00 	lea    0x6aa8(%rip),%rdi        # cb70 <main>
    60c8:	ff 15 0a 1f 01 00    	callq  *0x11f0a(%rip)        # 17fd8 <__libc_start_main@GLIBC_2.2.5>
    60ce:	f4                   	hlt    
    60cf:	90                   	nop

00000000000060d0 <deregister_tm_clones>:
    60d0:	48 8d 3d 21 4b 01 00 	lea    0x14b21(%rip),%rdi        # 1abf8 <__TMC_END__>
    60d7:	48 8d 05 1a 4b 01 00 	lea    0x14b1a(%rip),%rax        # 1abf8 <__TMC_END__>
    60de:	48 39 f8             	cmp    %rdi,%rax
    60e1:	74 15                	je     60f8 <deregister_tm_clones+0x28>
    60e3:	48 8b 05 e6 1e 01 00 	mov    0x11ee6(%rip),%rax        # 17fd0 <_ITM_deregisterTMCloneTable>
    60ea:	48 85 c0             	test   %rax,%rax
    60ed:	74 09                	je     60f8 <deregister_tm_clones+0x28>
    60ef:	ff e0                	jmpq   *%rax
    60f1:	0f 1f 80 00 00 00 00 	nopl   0x0(%rax)
    60f8:	c3                   	retq   
    60f9:	0f 1f 80 00 00 00 00 	nopl   0x0(%rax)

0000000000006100 <register_tm_clones>:
    6100:	48 8d 3d f1 4a 01 00 	lea    0x14af1(%rip),%rdi        # 1abf8 <__TMC_END__>
    6107:	48 8d 35 ea 4a 01 00 	lea    0x14aea(%rip),%rsi        # 1abf8 <__TMC_END__>
    610e:	48 29 fe             	sub    %rdi,%rsi
    6111:	48 89 f0             	mov    %rsi,%rax
    6114:	48 c1 ee 3f          	shr    $0x3f,%rsi
    6118:	48 c1 f8 03          	sar    $0x3,%rax
    611c:	48 01 c6             	add    %rax,%rsi
    611f:	48 d1 fe             	sar    %rsi
    6122:	74 14                	je     6138 <register_tm_clones+0x38>
    6124:	48 8b 05 bd 1e 01 00 	mov    0x11ebd(%rip),%rax        # 17fe8 <_ITM_registerTMCloneTable>
    612b:	48 85 c0             	test   %rax,%rax
    612e:	74 08                	je     6138 <register_tm_clones+0x38>
    6130:	ff e0                	jmpq   *%rax
    6132:	66 0f 1f 44 00 00    	nopw   0x0(%rax,%rax,1)
    6138:	c3                   	retq   
    6139:	0f 1f 80 00 00 00 00 	nopl   0x0(%rax)

0000000000006140 <__do_global_dtors_aux>:
    6140:	f3 0f 1e fa          	endbr64 
    6144:	80 3d b5 4a 01 00 00 	cmpb   $0x0,0x14ab5(%rip)        # 1ac00 <completed.8061>
    614b:	75 2b                	jne    6178 <__do_global_dtors_aux+0x38>
    614d:	55                   	push   %rbp
    614e:	48 83 3d 9a 1e 01 00 	cmpq   $0x0,0x11e9a(%rip)        # 17ff0 <__cxa_finalize@GLIBC_2.2.5>
    6155:	00 
    6156:	48 89 e5             	mov    %rsp,%rbp
    6159:	74 0c                	je     6167 <__do_global_dtors_aux+0x27>
    615b:	48 8b 3d a6 1e 01 00 	mov    0x11ea6(%rip),%rdi        # 18008 <__dso_handle>
    6162:	e8 f9 fe ff ff       	callq  6060 <__cxa_finalize@plt>
    6167:	e8 64 ff ff ff       	callq  60d0 <deregister_tm_clones>
    616c:	c6 05 8d 4a 01 00 01 	movb   $0x1,0x14a8d(%rip)        # 1ac00 <completed.8061>
    6173:	5d                   	pop    %rbp
    6174:	c3                   	retq   
    6175:	0f 1f 00             	nopl   (%rax)
    6178:	c3                   	retq   
    6179:	0f 1f 80 00 00 00 00 	nopl   0x0(%rax)

0000000000006180 <frame_dummy>:
    6180:	f3 0f 1e fa          	endbr64 
    6184:	e9 77 ff ff ff       	jmpq   6100 <register_tm_clones>

0000000000006189 <platform_main_begin>:
    6189:	f3 0f 1e fa          	endbr64 
    618d:	55                   	push   %rbp
    618e:	48 89 e5             	mov    %rsp,%rbp
    6191:	90                   	nop
    6192:	5d                   	pop    %rbp
    6193:	c3                   	retq   

0000000000006194 <platform_main_end>:
    6194:	f3 0f 1e fa          	endbr64 
    6198:	55                   	push   %rbp
    6199:	48 89 e5             	mov    %rsp,%rbp
    619c:	48 83 ec 10          	sub    $0x10,%rsp
    61a0:	89 7d fc             	mov    %edi,-0x4(%rbp)
    61a3:	89 75 f8             	mov    %esi,-0x8(%rbp)
    61a6:	8b 45 fc             	mov    -0x4(%rbp),%eax
    61a9:	89 c6                	mov    %eax,%esi
    61ab:	48 8d 3d 6e ce 00 00 	lea    0xce6e(%rip),%rdi        # 13020 <_IO_stdin_used+0x20>
    61b2:	b8 00 00 00 00       	mov    $0x0,%eax
    61b7:	e8 c4 fe ff ff       	callq  6080 <printf@plt>
    61bc:	90                   	nop
    61bd:	c9                   	leaveq 
    61be:	c3                   	retq   

00000000000061bf <safe_unary_minus_func_int8_t_s>:
    61bf:	f3 0f 1e fa          	endbr64 
    61c3:	55                   	push   %rbp
    61c4:	48 89 e5             	mov    %rsp,%rbp
    61c7:	89 f8                	mov    %edi,%eax
    61c9:	88 45 fc             	mov    %al,-0x4(%rbp)
    61cc:	0f b6 45 fc          	movzbl -0x4(%rbp),%eax
    61d0:	f7 d8                	neg    %eax
    61d2:	5d                   	pop    %rbp
    61d3:	c3                   	retq   

00000000000061d4 <safe_add_func_int8_t_s_s>:
    61d4:	f3 0f 1e fa          	endbr64 
    61d8:	55                   	push   %rbp
    61d9:	48 89 e5             	mov    %rsp,%rbp
    61dc:	89 fa                	mov    %edi,%edx
    61de:	89 f0                	mov    %esi,%eax
    61e0:	88 55 fc             	mov    %dl,-0x4(%rbp)
    61e3:	88 45 f8             	mov    %al,-0x8(%rbp)
    61e6:	0f b6 55 fc          	movzbl -0x4(%rbp),%edx
    61ea:	0f b6 45 f8          	movzbl -0x8(%rbp),%eax
    61ee:	01 d0                	add    %edx,%eax
    61f0:	5d                   	pop    %rbp
    61f1:	c3                   	retq   

00000000000061f2 <safe_sub_func_int8_t_s_s>:
    61f2:	f3 0f 1e fa          	endbr64 
    61f6:	55                   	push   %rbp
    61f7:	48 89 e5             	mov    %rsp,%rbp
    61fa:	89 fa                	mov    %edi,%edx
    61fc:	89 f0                	mov    %esi,%eax
    61fe:	88 55 fc             	mov    %dl,-0x4(%rbp)
    6201:	88 45 f8             	mov    %al,-0x8(%rbp)
    6204:	0f b6 55 fc          	movzbl -0x4(%rbp),%edx
    6208:	0f b6 45 f8          	movzbl -0x8(%rbp),%eax
    620c:	29 c2                	sub    %eax,%edx
    620e:	89 d0                	mov    %edx,%eax
    6210:	5d                   	pop    %rbp
    6211:	c3                   	retq   

0000000000006212 <safe_mul_func_int8_t_s_s>:
    6212:	f3 0f 1e fa          	endbr64 
    6216:	55                   	push   %rbp
    6217:	48 89 e5             	mov    %rsp,%rbp
    621a:	89 fa                	mov    %edi,%edx
    621c:	89 f0                	mov    %esi,%eax
    621e:	88 55 fc             	mov    %dl,-0x4(%rbp)
    6221:	88 45 f8             	mov    %al,-0x8(%rbp)
    6224:	0f b6 45 fc          	movzbl -0x4(%rbp),%eax
    6228:	0f b6 55 f8          	movzbl -0x8(%rbp),%edx
    622c:	0f af c2             	imul   %edx,%eax
    622f:	5d                   	pop    %rbp
    6230:	c3                   	retq   

0000000000006231 <safe_mod_func_int8_t_s_s>:
    6231:	f3 0f 1e fa          	endbr64 
    6235:	55                   	push   %rbp
    6236:	48 89 e5             	mov    %rsp,%rbp
    6239:	89 fa                	mov    %edi,%edx
    623b:	89 f0                	mov    %esi,%eax
    623d:	88 55 fc             	mov    %dl,-0x4(%rbp)
    6240:	88 45 f8             	mov    %al,-0x8(%rbp)
    6243:	80 7d f8 00          	cmpb   $0x0,-0x8(%rbp)
    6247:	74 1b                	je     6264 <safe_mod_func_int8_t_s_s+0x33>
    6249:	80 7d fc 80          	cmpb   $0x80,-0x4(%rbp)
    624d:	75 06                	jne    6255 <safe_mod_func_int8_t_s_s+0x24>
    624f:	80 7d f8 ff          	cmpb   $0xff,-0x8(%rbp)
    6253:	74 0f                	je     6264 <safe_mod_func_int8_t_s_s+0x33>
    6255:	0f be 45 fc          	movsbl -0x4(%rbp),%eax
    6259:	0f be 4d f8          	movsbl -0x8(%rbp),%ecx
    625d:	99                   	cltd   
    625e:	f7 f9                	idiv   %ecx
    6260:	89 d0                	mov    %edx,%eax
    6262:	eb 04                	jmp    6268 <safe_mod_func_int8_t_s_s+0x37>
    6264:	0f b6 45 fc          	movzbl -0x4(%rbp),%eax
    6268:	5d                   	pop    %rbp
    6269:	c3                   	retq   

000000000000626a <safe_div_func_int8_t_s_s>:
    626a:	f3 0f 1e fa          	endbr64 
    626e:	55                   	push   %rbp
    626f:	48 89 e5             	mov    %rsp,%rbp
    6272:	89 fa                	mov    %edi,%edx
    6274:	89 f0                	mov    %esi,%eax
    6276:	88 55 fc             	mov    %dl,-0x4(%rbp)
    6279:	88 45 f8             	mov    %al,-0x8(%rbp)
    627c:	80 7d f8 00          	cmpb   $0x0,-0x8(%rbp)
    6280:	74 19                	je     629b <safe_div_func_int8_t_s_s+0x31>
    6282:	80 7d fc 80          	cmpb   $0x80,-0x4(%rbp)
    6286:	75 06                	jne    628e <safe_div_func_int8_t_s_s+0x24>
    6288:	80 7d f8 ff          	cmpb   $0xff,-0x8(%rbp)
    628c:	74 0d                	je     629b <safe_div_func_int8_t_s_s+0x31>
    628e:	0f be 45 fc          	movsbl -0x4(%rbp),%eax
    6292:	0f be 4d f8          	movsbl -0x8(%rbp),%ecx
    6296:	99                   	cltd   
    6297:	f7 f9                	idiv   %ecx
    6299:	eb 04                	jmp    629f <safe_div_func_int8_t_s_s+0x35>
    629b:	0f b6 45 fc          	movzbl -0x4(%rbp),%eax
    629f:	5d                   	pop    %rbp
    62a0:	c3                   	retq   

00000000000062a1 <safe_lshift_func_int8_t_s_s>:
    62a1:	f3 0f 1e fa          	endbr64 
    62a5:	55                   	push   %rbp
    62a6:	48 89 e5             	mov    %rsp,%rbp
    62a9:	89 f8                	mov    %edi,%eax
    62ab:	89 75 f8             	mov    %esi,-0x8(%rbp)
    62ae:	88 45 fc             	mov    %al,-0x4(%rbp)
    62b1:	80 7d fc 00          	cmpb   $0x0,-0x4(%rbp)
    62b5:	78 31                	js     62e8 <safe_lshift_func_int8_t_s_s+0x47>
    62b7:	83 7d f8 00          	cmpl   $0x0,-0x8(%rbp)
    62bb:	78 2b                	js     62e8 <safe_lshift_func_int8_t_s_s+0x47>
    62bd:	83 7d f8 1f          	cmpl   $0x1f,-0x8(%rbp)
    62c1:	7f 25                	jg     62e8 <safe_lshift_func_int8_t_s_s+0x47>
    62c3:	0f be 55 fc          	movsbl -0x4(%rbp),%edx
    62c7:	8b 45 f8             	mov    -0x8(%rbp),%eax
    62ca:	be 7f 00 00 00       	mov    $0x7f,%esi
    62cf:	89 c1                	mov    %eax,%ecx
    62d1:	d3 fe                	sar    %cl,%esi
    62d3:	89 f0                	mov    %esi,%eax
    62d5:	39 c2                	cmp    %eax,%edx
    62d7:	7f 0f                	jg     62e8 <safe_lshift_func_int8_t_s_s+0x47>
    62d9:	0f be 55 fc          	movsbl -0x4(%rbp),%edx
    62dd:	8b 45 f8             	mov    -0x8(%rbp),%eax
    62e0:	89 c1                	mov    %eax,%ecx
    62e2:	d3 e2                	shl    %cl,%edx
    62e4:	89 d0                	mov    %edx,%eax
    62e6:	eb 04                	jmp    62ec <safe_lshift_func_int8_t_s_s+0x4b>
    62e8:	0f b6 45 fc          	movzbl -0x4(%rbp),%eax
    62ec:	5d                   	pop    %rbp
    62ed:	c3                   	retq   

00000000000062ee <safe_lshift_func_int8_t_s_u>:
    62ee:	f3 0f 1e fa          	endbr64 
    62f2:	55                   	push   %rbp
    62f3:	48 89 e5             	mov    %rsp,%rbp
    62f6:	89 f8                	mov    %edi,%eax
    62f8:	89 75 f8             	mov    %esi,-0x8(%rbp)
    62fb:	88 45 fc             	mov    %al,-0x4(%rbp)
    62fe:	80 7d fc 00          	cmpb   $0x0,-0x4(%rbp)
    6302:	78 2b                	js     632f <safe_lshift_func_int8_t_s_u+0x41>
    6304:	83 7d f8 1f          	cmpl   $0x1f,-0x8(%rbp)
    6308:	77 25                	ja     632f <safe_lshift_func_int8_t_s_u+0x41>
    630a:	0f be 55 fc          	movsbl -0x4(%rbp),%edx
    630e:	8b 45 f8             	mov    -0x8(%rbp),%eax
    6311:	be 7f 00 00 00       	mov    $0x7f,%esi
    6316:	89 c1                	mov    %eax,%ecx
    6318:	d3 fe                	sar    %cl,%esi
    631a:	89 f0                	mov    %esi,%eax
    631c:	39 c2                	cmp    %eax,%edx
    631e:	7f 0f                	jg     632f <safe_lshift_func_int8_t_s_u+0x41>
    6320:	0f be 55 fc          	movsbl -0x4(%rbp),%edx
    6324:	8b 45 f8             	mov    -0x8(%rbp),%eax
    6327:	89 c1                	mov    %eax,%ecx
    6329:	d3 e2                	shl    %cl,%edx
    632b:	89 d0                	mov    %edx,%eax
    632d:	eb 04                	jmp    6333 <safe_lshift_func_int8_t_s_u+0x45>
    632f:	0f b6 45 fc          	movzbl -0x4(%rbp),%eax
    6333:	5d                   	pop    %rbp
    6334:	c3                   	retq   

0000000000006335 <safe_rshift_func_int8_t_s_s>:
    6335:	f3 0f 1e fa          	endbr64 
    6339:	55                   	push   %rbp
    633a:	48 89 e5             	mov    %rsp,%rbp
    633d:	89 f8                	mov    %edi,%eax
    633f:	89 75 f8             	mov    %esi,-0x8(%rbp)
    6342:	88 45 fc             	mov    %al,-0x4(%rbp)
    6345:	80 7d fc 00          	cmpb   $0x0,-0x4(%rbp)
    6349:	78 1b                	js     6366 <safe_rshift_func_int8_t_s_s+0x31>
    634b:	83 7d f8 00          	cmpl   $0x0,-0x8(%rbp)
    634f:	78 15                	js     6366 <safe_rshift_func_int8_t_s_s+0x31>
    6351:	83 7d f8 1f          	cmpl   $0x1f,-0x8(%rbp)
    6355:	7f 0f                	jg     6366 <safe_rshift_func_int8_t_s_s+0x31>
    6357:	0f be 55 fc          	movsbl -0x4(%rbp),%edx
    635b:	8b 45 f8             	mov    -0x8(%rbp),%eax
    635e:	89 c1                	mov    %eax,%ecx
    6360:	d3 fa                	sar    %cl,%edx
    6362:	89 d0                	mov    %edx,%eax
    6364:	eb 04                	jmp    636a <safe_rshift_func_int8_t_s_s+0x35>
    6366:	0f b6 45 fc          	movzbl -0x4(%rbp),%eax
    636a:	5d                   	pop    %rbp
    636b:	c3                   	retq   

000000000000636c <safe_rshift_func_int8_t_s_u>:
    636c:	f3 0f 1e fa          	endbr64 
    6370:	55                   	push   %rbp
    6371:	48 89 e5             	mov    %rsp,%rbp
    6374:	89 f8                	mov    %edi,%eax
    6376:	89 75 f8             	mov    %esi,-0x8(%rbp)
    6379:	88 45 fc             	mov    %al,-0x4(%rbp)
    637c:	80 7d fc 00          	cmpb   $0x0,-0x4(%rbp)
    6380:	78 15                	js     6397 <safe_rshift_func_int8_t_s_u+0x2b>
    6382:	83 7d f8 1f          	cmpl   $0x1f,-0x8(%rbp)
    6386:	77 0f                	ja     6397 <safe_rshift_func_int8_t_s_u+0x2b>
    6388:	0f be 55 fc          	movsbl -0x4(%rbp),%edx
    638c:	8b 45 f8             	mov    -0x8(%rbp),%eax
    638f:	89 c1                	mov    %eax,%ecx
    6391:	d3 fa                	sar    %cl,%edx
    6393:	89 d0                	mov    %edx,%eax
    6395:	eb 04                	jmp    639b <safe_rshift_func_int8_t_s_u+0x2f>
    6397:	0f b6 45 fc          	movzbl -0x4(%rbp),%eax
    639b:	5d                   	pop    %rbp
    639c:	c3                   	retq   

000000000000639d <safe_unary_minus_func_int16_t_s>:
    639d:	f3 0f 1e fa          	endbr64 
    63a1:	55                   	push   %rbp
    63a2:	48 89 e5             	mov    %rsp,%rbp
    63a5:	89 f8                	mov    %edi,%eax
    63a7:	66 89 45 fc          	mov    %ax,-0x4(%rbp)
    63ab:	0f b7 45 fc          	movzwl -0x4(%rbp),%eax
    63af:	f7 d8                	neg    %eax
    63b1:	5d                   	pop    %rbp
    63b2:	c3                   	retq   

00000000000063b3 <safe_add_func_int16_t_s_s>:
    63b3:	f3 0f 1e fa          	endbr64 
    63b7:	55                   	push   %rbp
    63b8:	48 89 e5             	mov    %rsp,%rbp
    63bb:	89 fa                	mov    %edi,%edx
    63bd:	89 f0                	mov    %esi,%eax
    63bf:	66 89 55 fc          	mov    %dx,-0x4(%rbp)
    63c3:	66 89 45 f8          	mov    %ax,-0x8(%rbp)
    63c7:	0f b7 55 fc          	movzwl -0x4(%rbp),%edx
    63cb:	0f b7 45 f8          	movzwl -0x8(%rbp),%eax
    63cf:	01 d0                	add    %edx,%eax
    63d1:	5d                   	pop    %rbp
    63d2:	c3                   	retq   

00000000000063d3 <safe_sub_func_int16_t_s_s>:
    63d3:	f3 0f 1e fa          	endbr64 
    63d7:	55                   	push   %rbp
    63d8:	48 89 e5             	mov    %rsp,%rbp
    63db:	89 fa                	mov    %edi,%edx
    63dd:	89 f0                	mov    %esi,%eax
    63df:	66 89 55 fc          	mov    %dx,-0x4(%rbp)
    63e3:	66 89 45 f8          	mov    %ax,-0x8(%rbp)
    63e7:	0f b7 55 fc          	movzwl -0x4(%rbp),%edx
    63eb:	0f b7 45 f8          	movzwl -0x8(%rbp),%eax
    63ef:	29 c2                	sub    %eax,%edx
    63f1:	89 d0                	mov    %edx,%eax
    63f3:	5d                   	pop    %rbp
    63f4:	c3                   	retq   

00000000000063f5 <safe_mul_func_int16_t_s_s>:
    63f5:	f3 0f 1e fa          	endbr64 
    63f9:	55                   	push   %rbp
    63fa:	48 89 e5             	mov    %rsp,%rbp
    63fd:	89 fa                	mov    %edi,%edx
    63ff:	89 f0                	mov    %esi,%eax
    6401:	66 89 55 fc          	mov    %dx,-0x4(%rbp)
    6405:	66 89 45 f8          	mov    %ax,-0x8(%rbp)
    6409:	0f b7 55 fc          	movzwl -0x4(%rbp),%edx
    640d:	0f b7 45 f8          	movzwl -0x8(%rbp),%eax
    6411:	0f af c2             	imul   %edx,%eax
    6414:	5d                   	pop    %rbp
    6415:	c3                   	retq   

0000000000006416 <safe_mod_func_int16_t_s_s>:
    6416:	f3 0f 1e fa          	endbr64 
    641a:	55                   	push   %rbp
    641b:	48 89 e5             	mov    %rsp,%rbp
    641e:	89 fa                	mov    %edi,%edx
    6420:	89 f0                	mov    %esi,%eax
    6422:	66 89 55 fc          	mov    %dx,-0x4(%rbp)
    6426:	66 89 45 f8          	mov    %ax,-0x8(%rbp)
    642a:	66 83 7d f8 00       	cmpw   $0x0,-0x8(%rbp)
    642f:	74 1e                	je     644f <safe_mod_func_int16_t_s_s+0x39>
    6431:	66 81 7d fc 00 80    	cmpw   $0x8000,-0x4(%rbp)
    6437:	75 07                	jne    6440 <safe_mod_func_int16_t_s_s+0x2a>
    6439:	66 83 7d f8 ff       	cmpw   $0xffff,-0x8(%rbp)
    643e:	74 0f                	je     644f <safe_mod_func_int16_t_s_s+0x39>
    6440:	0f bf 45 fc          	movswl -0x4(%rbp),%eax
    6444:	0f bf 4d f8          	movswl -0x8(%rbp),%ecx
    6448:	99                   	cltd   
    6449:	f7 f9                	idiv   %ecx
    644b:	89 d0                	mov    %edx,%eax
    644d:	eb 04                	jmp    6453 <safe_mod_func_int16_t_s_s+0x3d>
    644f:	0f b7 45 fc          	movzwl -0x4(%rbp),%eax
    6453:	5d                   	pop    %rbp
    6454:	c3                   	retq   

0000000000006455 <safe_div_func_int16_t_s_s>:
    6455:	f3 0f 1e fa          	endbr64 
    6459:	55                   	push   %rbp
    645a:	48 89 e5             	mov    %rsp,%rbp
    645d:	89 fa                	mov    %edi,%edx
    645f:	89 f0                	mov    %esi,%eax
    6461:	66 89 55 fc          	mov    %dx,-0x4(%rbp)
    6465:	66 89 45 f8          	mov    %ax,-0x8(%rbp)
    6469:	66 83 7d f8 00       	cmpw   $0x0,-0x8(%rbp)
    646e:	74 1c                	je     648c <safe_div_func_int16_t_s_s+0x37>
    6470:	66 81 7d fc 00 80    	cmpw   $0x8000,-0x4(%rbp)
    6476:	75 07                	jne    647f <safe_div_func_int16_t_s_s+0x2a>
    6478:	66 83 7d f8 ff       	cmpw   $0xffff,-0x8(%rbp)
    647d:	74 0d                	je     648c <safe_div_func_int16_t_s_s+0x37>
    647f:	0f bf 45 fc          	movswl -0x4(%rbp),%eax
    6483:	0f bf 4d f8          	movswl -0x8(%rbp),%ecx
    6487:	99                   	cltd   
    6488:	f7 f9                	idiv   %ecx
    648a:	eb 04                	jmp    6490 <safe_div_func_int16_t_s_s+0x3b>
    648c:	0f b7 45 fc          	movzwl -0x4(%rbp),%eax
    6490:	5d                   	pop    %rbp
    6491:	c3                   	retq   

0000000000006492 <safe_lshift_func_int16_t_s_s>:
    6492:	f3 0f 1e fa          	endbr64 
    6496:	55                   	push   %rbp
    6497:	48 89 e5             	mov    %rsp,%rbp
    649a:	89 f8                	mov    %edi,%eax
    649c:	89 75 f8             	mov    %esi,-0x8(%rbp)
    649f:	66 89 45 fc          	mov    %ax,-0x4(%rbp)
    64a3:	66 83 7d fc 00       	cmpw   $0x0,-0x4(%rbp)
    64a8:	78 31                	js     64db <safe_lshift_func_int16_t_s_s+0x49>
    64aa:	83 7d f8 00          	cmpl   $0x0,-0x8(%rbp)
    64ae:	78 2b                	js     64db <safe_lshift_func_int16_t_s_s+0x49>
    64b0:	83 7d f8 1f          	cmpl   $0x1f,-0x8(%rbp)
    64b4:	7f 25                	jg     64db <safe_lshift_func_int16_t_s_s+0x49>
    64b6:	0f bf 55 fc          	movswl -0x4(%rbp),%edx
    64ba:	8b 45 f8             	mov    -0x8(%rbp),%eax
    64bd:	be ff 7f 00 00       	mov    $0x7fff,%esi
    64c2:	89 c1                	mov    %eax,%ecx
    64c4:	d3 fe                	sar    %cl,%esi
    64c6:	89 f0                	mov    %esi,%eax
    64c8:	39 c2                	cmp    %eax,%edx
    64ca:	7f 0f                	jg     64db <safe_lshift_func_int16_t_s_s+0x49>
    64cc:	0f bf 55 fc          	movswl -0x4(%rbp),%edx
    64d0:	8b 45 f8             	mov    -0x8(%rbp),%eax
    64d3:	89 c1                	mov    %eax,%ecx
    64d5:	d3 e2                	shl    %cl,%edx
    64d7:	89 d0                	mov    %edx,%eax
    64d9:	eb 04                	jmp    64df <safe_lshift_func_int16_t_s_s+0x4d>
    64db:	0f b7 45 fc          	movzwl -0x4(%rbp),%eax
    64df:	5d                   	pop    %rbp
    64e0:	c3                   	retq   

00000000000064e1 <safe_lshift_func_int16_t_s_u>:
    64e1:	f3 0f 1e fa          	endbr64 
    64e5:	55                   	push   %rbp
    64e6:	48 89 e5             	mov    %rsp,%rbp
    64e9:	89 f8                	mov    %edi,%eax
    64eb:	89 75 f8             	mov    %esi,-0x8(%rbp)
    64ee:	66 89 45 fc          	mov    %ax,-0x4(%rbp)
    64f2:	66 83 7d fc 00       	cmpw   $0x0,-0x4(%rbp)
    64f7:	78 2b                	js     6524 <safe_lshift_func_int16_t_s_u+0x43>
    64f9:	83 7d f8 1f          	cmpl   $0x1f,-0x8(%rbp)
    64fd:	77 25                	ja     6524 <safe_lshift_func_int16_t_s_u+0x43>
    64ff:	0f bf 55 fc          	movswl -0x4(%rbp),%edx
    6503:	8b 45 f8             	mov    -0x8(%rbp),%eax
    6506:	be ff 7f 00 00       	mov    $0x7fff,%esi
    650b:	89 c1                	mov    %eax,%ecx
    650d:	d3 fe                	sar    %cl,%esi
    650f:	89 f0                	mov    %esi,%eax
    6511:	39 c2                	cmp    %eax,%edx
    6513:	7f 0f                	jg     6524 <safe_lshift_func_int16_t_s_u+0x43>
    6515:	0f bf 55 fc          	movswl -0x4(%rbp),%edx
    6519:	8b 45 f8             	mov    -0x8(%rbp),%eax
    651c:	89 c1                	mov    %eax,%ecx
    651e:	d3 e2                	shl    %cl,%edx
    6520:	89 d0                	mov    %edx,%eax
    6522:	eb 04                	jmp    6528 <safe_lshift_func_int16_t_s_u+0x47>
    6524:	0f b7 45 fc          	movzwl -0x4(%rbp),%eax
    6528:	5d                   	pop    %rbp
    6529:	c3                   	retq   

000000000000652a <safe_rshift_func_int16_t_s_s>:
    652a:	f3 0f 1e fa          	endbr64 
    652e:	55                   	push   %rbp
    652f:	48 89 e5             	mov    %rsp,%rbp
    6532:	89 f8                	mov    %edi,%eax
    6534:	89 75 f8             	mov    %esi,-0x8(%rbp)
    6537:	66 89 45 fc          	mov    %ax,-0x4(%rbp)
    653b:	66 83 7d fc 00       	cmpw   $0x0,-0x4(%rbp)
    6540:	78 1b                	js     655d <safe_rshift_func_int16_t_s_s+0x33>
    6542:	83 7d f8 00          	cmpl   $0x0,-0x8(%rbp)
    6546:	78 15                	js     655d <safe_rshift_func_int16_t_s_s+0x33>
    6548:	83 7d f8 1f          	cmpl   $0x1f,-0x8(%rbp)
    654c:	7f 0f                	jg     655d <safe_rshift_func_int16_t_s_s+0x33>
    654e:	0f bf 55 fc          	movswl -0x4(%rbp),%edx
    6552:	8b 45 f8             	mov    -0x8(%rbp),%eax
    6555:	89 c1                	mov    %eax,%ecx
    6557:	d3 fa                	sar    %cl,%edx
    6559:	89 d0                	mov    %edx,%eax
    655b:	eb 04                	jmp    6561 <safe_rshift_func_int16_t_s_s+0x37>
    655d:	0f b7 45 fc          	movzwl -0x4(%rbp),%eax
    6561:	5d                   	pop    %rbp
    6562:	c3                   	retq   

0000000000006563 <safe_rshift_func_int16_t_s_u>:
    6563:	f3 0f 1e fa          	endbr64 
    6567:	55                   	push   %rbp
    6568:	48 89 e5             	mov    %rsp,%rbp
    656b:	89 f8                	mov    %edi,%eax
    656d:	89 75 f8             	mov    %esi,-0x8(%rbp)
    6570:	66 89 45 fc          	mov    %ax,-0x4(%rbp)
    6574:	66 83 7d fc 00       	cmpw   $0x0,-0x4(%rbp)
    6579:	78 15                	js     6590 <safe_rshift_func_int16_t_s_u+0x2d>
    657b:	83 7d f8 1f          	cmpl   $0x1f,-0x8(%rbp)
    657f:	77 0f                	ja     6590 <safe_rshift_func_int16_t_s_u+0x2d>
    6581:	0f bf 55 fc          	movswl -0x4(%rbp),%edx
    6585:	8b 45 f8             	mov    -0x8(%rbp),%eax
    6588:	89 c1                	mov    %eax,%ecx
    658a:	d3 fa                	sar    %cl,%edx
    658c:	89 d0                	mov    %edx,%eax
    658e:	eb 04                	jmp    6594 <safe_rshift_func_int16_t_s_u+0x31>
    6590:	0f b7 45 fc          	movzwl -0x4(%rbp),%eax
    6594:	5d                   	pop    %rbp
    6595:	c3                   	retq   

0000000000006596 <safe_unary_minus_func_int32_t_s>:
    6596:	f3 0f 1e fa          	endbr64 
    659a:	55                   	push   %rbp
    659b:	48 89 e5             	mov    %rsp,%rbp
    659e:	89 7d fc             	mov    %edi,-0x4(%rbp)
    65a1:	81 7d fc 00 00 00 80 	cmpl   $0x80000000,-0x4(%rbp)
    65a8:	74 07                	je     65b1 <safe_unary_minus_func_int32_t_s+0x1b>
    65aa:	8b 45 fc             	mov    -0x4(%rbp),%eax
    65ad:	f7 d8                	neg    %eax
    65af:	eb 03                	jmp    65b4 <safe_unary_minus_func_int32_t_s+0x1e>
    65b1:	8b 45 fc             	mov    -0x4(%rbp),%eax
    65b4:	5d                   	pop    %rbp
    65b5:	c3                   	retq   

00000000000065b6 <safe_add_func_int32_t_s_s>:
    65b6:	f3 0f 1e fa          	endbr64 
    65ba:	55                   	push   %rbp
    65bb:	48 89 e5             	mov    %rsp,%rbp
    65be:	89 7d fc             	mov    %edi,-0x4(%rbp)
    65c1:	89 75 f8             	mov    %esi,-0x8(%rbp)
    65c4:	83 7d fc 00          	cmpl   $0x0,-0x4(%rbp)
    65c8:	7e 13                	jle    65dd <safe_add_func_int32_t_s_s+0x27>
    65ca:	83 7d f8 00          	cmpl   $0x0,-0x8(%rbp)
    65ce:	7e 0d                	jle    65dd <safe_add_func_int32_t_s_s+0x27>
    65d0:	b8 ff ff ff 7f       	mov    $0x7fffffff,%eax
    65d5:	2b 45 f8             	sub    -0x8(%rbp),%eax
    65d8:	39 45 fc             	cmp    %eax,-0x4(%rbp)
    65db:	7f 23                	jg     6600 <safe_add_func_int32_t_s_s+0x4a>
    65dd:	83 7d fc 00          	cmpl   $0x0,-0x4(%rbp)
    65e1:	79 13                	jns    65f6 <safe_add_func_int32_t_s_s+0x40>
    65e3:	83 7d f8 00          	cmpl   $0x0,-0x8(%rbp)
    65e7:	79 0d                	jns    65f6 <safe_add_func_int32_t_s_s+0x40>
    65e9:	b8 00 00 00 80       	mov    $0x80000000,%eax
    65ee:	2b 45 f8             	sub    -0x8(%rbp),%eax
    65f1:	39 45 fc             	cmp    %eax,-0x4(%rbp)
    65f4:	7c 0a                	jl     6600 <safe_add_func_int32_t_s_s+0x4a>
    65f6:	8b 55 fc             	mov    -0x4(%rbp),%edx
    65f9:	8b 45 f8             	mov    -0x8(%rbp),%eax
    65fc:	01 d0                	add    %edx,%eax
    65fe:	eb 03                	jmp    6603 <safe_add_func_int32_t_s_s+0x4d>
    6600:	8b 45 fc             	mov    -0x4(%rbp),%eax
    6603:	5d                   	pop    %rbp
    6604:	c3                   	retq   

0000000000006605 <safe_sub_func_int32_t_s_s>:
    6605:	f3 0f 1e fa          	endbr64 
    6609:	55                   	push   %rbp
    660a:	48 89 e5             	mov    %rsp,%rbp
    660d:	89 7d fc             	mov    %edi,-0x4(%rbp)
    6610:	89 75 f8             	mov    %esi,-0x8(%rbp)
    6613:	8b 45 fc             	mov    -0x4(%rbp),%eax
    6616:	33 45 f8             	xor    -0x8(%rbp),%eax
    6619:	89 c2                	mov    %eax,%edx
    661b:	8b 45 fc             	mov    -0x4(%rbp),%eax
    661e:	33 45 f8             	xor    -0x8(%rbp),%eax
    6621:	25 00 00 00 80       	and    $0x80000000,%eax
    6626:	33 45 fc             	xor    -0x4(%rbp),%eax
    6629:	2b 45 f8             	sub    -0x8(%rbp),%eax
    662c:	33 45 f8             	xor    -0x8(%rbp),%eax
    662f:	21 d0                	and    %edx,%eax
    6631:	85 c0                	test   %eax,%eax
    6633:	78 08                	js     663d <safe_sub_func_int32_t_s_s+0x38>
    6635:	8b 45 fc             	mov    -0x4(%rbp),%eax
    6638:	2b 45 f8             	sub    -0x8(%rbp),%eax
    663b:	eb 03                	jmp    6640 <safe_sub_func_int32_t_s_s+0x3b>
    663d:	8b 45 fc             	mov    -0x4(%rbp),%eax
    6640:	5d                   	pop    %rbp
    6641:	c3                   	retq   

0000000000006642 <safe_mul_func_int32_t_s_s>:
    6642:	f3 0f 1e fa          	endbr64 
    6646:	55                   	push   %rbp
    6647:	48 89 e5             	mov    %rsp,%rbp
    664a:	89 7d fc             	mov    %edi,-0x4(%rbp)
    664d:	89 75 f8             	mov    %esi,-0x8(%rbp)
    6650:	83 7d fc 00          	cmpl   $0x0,-0x4(%rbp)
    6654:	7e 14                	jle    666a <safe_mul_func_int32_t_s_s+0x28>
    6656:	83 7d f8 00          	cmpl   $0x0,-0x8(%rbp)
    665a:	7e 0e                	jle    666a <safe_mul_func_int32_t_s_s+0x28>
    665c:	b8 ff ff ff 7f       	mov    $0x7fffffff,%eax
    6661:	99                   	cltd   
    6662:	f7 7d f8             	idivl  -0x8(%rbp)
    6665:	39 45 fc             	cmp    %eax,-0x4(%rbp)
    6668:	7f 5d                	jg     66c7 <safe_mul_func_int32_t_s_s+0x85>
    666a:	83 7d fc 00          	cmpl   $0x0,-0x4(%rbp)
    666e:	7e 14                	jle    6684 <safe_mul_func_int32_t_s_s+0x42>
    6670:	83 7d f8 00          	cmpl   $0x0,-0x8(%rbp)
    6674:	7f 0e                	jg     6684 <safe_mul_func_int32_t_s_s+0x42>
    6676:	b8 00 00 00 80       	mov    $0x80000000,%eax
    667b:	99                   	cltd   
    667c:	f7 7d fc             	idivl  -0x4(%rbp)
    667f:	39 45 f8             	cmp    %eax,-0x8(%rbp)
    6682:	7c 43                	jl     66c7 <safe_mul_func_int32_t_s_s+0x85>
    6684:	83 7d fc 00          	cmpl   $0x0,-0x4(%rbp)
    6688:	7f 14                	jg     669e <safe_mul_func_int32_t_s_s+0x5c>
    668a:	83 7d f8 00          	cmpl   $0x0,-0x8(%rbp)
    668e:	7e 0e                	jle    669e <safe_mul_func_int32_t_s_s+0x5c>
    6690:	b8 00 00 00 80       	mov    $0x80000000,%eax
    6695:	99                   	cltd   
    6696:	f7 7d f8             	idivl  -0x8(%rbp)
    6699:	39 45 fc             	cmp    %eax,-0x4(%rbp)
    669c:	7c 29                	jl     66c7 <safe_mul_func_int32_t_s_s+0x85>
    669e:	83 7d fc 00          	cmpl   $0x0,-0x4(%rbp)
    66a2:	7f 1a                	jg     66be <safe_mul_func_int32_t_s_s+0x7c>
    66a4:	83 7d f8 00          	cmpl   $0x0,-0x8(%rbp)
    66a8:	7f 14                	jg     66be <safe_mul_func_int32_t_s_s+0x7c>
    66aa:	83 7d fc 00          	cmpl   $0x0,-0x4(%rbp)
    66ae:	74 0e                	je     66be <safe_mul_func_int32_t_s_s+0x7c>
    66b0:	b8 ff ff ff 7f       	mov    $0x7fffffff,%eax
    66b5:	99                   	cltd   
    66b6:	f7 7d fc             	idivl  -0x4(%rbp)
    66b9:	39 45 f8             	cmp    %eax,-0x8(%rbp)
    66bc:	7c 09                	jl     66c7 <safe_mul_func_int32_t_s_s+0x85>
    66be:	8b 45 fc             	mov    -0x4(%rbp),%eax
    66c1:	0f af 45 f8          	imul   -0x8(%rbp),%eax
    66c5:	eb 03                	jmp    66ca <safe_mul_func_int32_t_s_s+0x88>
    66c7:	8b 45 fc             	mov    -0x4(%rbp),%eax
    66ca:	5d                   	pop    %rbp
    66cb:	c3                   	retq   

00000000000066cc <safe_mod_func_int32_t_s_s>:
    66cc:	f3 0f 1e fa          	endbr64 
    66d0:	55                   	push   %rbp
    66d1:	48 89 e5             	mov    %rsp,%rbp
    66d4:	89 7d fc             	mov    %edi,-0x4(%rbp)
    66d7:	89 75 f8             	mov    %esi,-0x8(%rbp)
    66da:	83 7d f8 00          	cmpl   $0x0,-0x8(%rbp)
    66de:	74 1a                	je     66fa <safe_mod_func_int32_t_s_s+0x2e>
    66e0:	81 7d fc 00 00 00 80 	cmpl   $0x80000000,-0x4(%rbp)
    66e7:	75 06                	jne    66ef <safe_mod_func_int32_t_s_s+0x23>
    66e9:	83 7d f8 ff          	cmpl   $0xffffffff,-0x8(%rbp)
    66ed:	74 0b                	je     66fa <safe_mod_func_int32_t_s_s+0x2e>
    66ef:	8b 45 fc             	mov    -0x4(%rbp),%eax
    66f2:	99                   	cltd   
    66f3:	f7 7d f8             	idivl  -0x8(%rbp)
    66f6:	89 d0                	mov    %edx,%eax
    66f8:	eb 03                	jmp    66fd <safe_mod_func_int32_t_s_s+0x31>
    66fa:	8b 45 fc             	mov    -0x4(%rbp),%eax
    66fd:	5d                   	pop    %rbp
    66fe:	c3                   	retq   

00000000000066ff <safe_div_func_int32_t_s_s>:
    66ff:	f3 0f 1e fa          	endbr64 
    6703:	55                   	push   %rbp
    6704:	48 89 e5             	mov    %rsp,%rbp
    6707:	89 7d fc             	mov    %edi,-0x4(%rbp)
    670a:	89 75 f8             	mov    %esi,-0x8(%rbp)
    670d:	83 7d f8 00          	cmpl   $0x0,-0x8(%rbp)
    6711:	74 18                	je     672b <safe_div_func_int32_t_s_s+0x2c>
    6713:	81 7d fc 00 00 00 80 	cmpl   $0x80000000,-0x4(%rbp)
    671a:	75 06                	jne    6722 <safe_div_func_int32_t_s_s+0x23>
    671c:	83 7d f8 ff          	cmpl   $0xffffffff,-0x8(%rbp)
    6720:	74 09                	je     672b <safe_div_func_int32_t_s_s+0x2c>
    6722:	8b 45 fc             	mov    -0x4(%rbp),%eax
    6725:	99                   	cltd   
    6726:	f7 7d f8             	idivl  -0x8(%rbp)
    6729:	eb 03                	jmp    672e <safe_div_func_int32_t_s_s+0x2f>
    672b:	8b 45 fc             	mov    -0x4(%rbp),%eax
    672e:	5d                   	pop    %rbp
    672f:	c3                   	retq   

0000000000006730 <safe_lshift_func_int32_t_s_s>:
    6730:	f3 0f 1e fa          	endbr64 
    6734:	55                   	push   %rbp
    6735:	48 89 e5             	mov    %rsp,%rbp
    6738:	89 7d fc             	mov    %edi,-0x4(%rbp)
    673b:	89 75 f8             	mov    %esi,-0x8(%rbp)
    673e:	83 7d fc 00          	cmpl   $0x0,-0x4(%rbp)
    6742:	78 2d                	js     6771 <safe_lshift_func_int32_t_s_s+0x41>
    6744:	83 7d f8 00          	cmpl   $0x0,-0x8(%rbp)
    6748:	78 27                	js     6771 <safe_lshift_func_int32_t_s_s+0x41>
    674a:	83 7d f8 1f          	cmpl   $0x1f,-0x8(%rbp)
    674e:	7f 21                	jg     6771 <safe_lshift_func_int32_t_s_s+0x41>
    6750:	8b 45 f8             	mov    -0x8(%rbp),%eax
    6753:	ba ff ff ff 7f       	mov    $0x7fffffff,%edx
    6758:	89 c1                	mov    %eax,%ecx
    675a:	d3 fa                	sar    %cl,%edx
    675c:	89 d0                	mov    %edx,%eax
    675e:	39 45 fc             	cmp    %eax,-0x4(%rbp)
    6761:	7f 0e                	jg     6771 <safe_lshift_func_int32_t_s_s+0x41>
    6763:	8b 45 f8             	mov    -0x8(%rbp),%eax
    6766:	8b 55 fc             	mov    -0x4(%rbp),%edx
    6769:	89 c1                	mov    %eax,%ecx
    676b:	d3 e2                	shl    %cl,%edx
    676d:	89 d0                	mov    %edx,%eax
    676f:	eb 03                	jmp    6774 <safe_lshift_func_int32_t_s_s+0x44>
    6771:	8b 45 fc             	mov    -0x4(%rbp),%eax
    6774:	5d                   	pop    %rbp
    6775:	c3                   	retq   

0000000000006776 <safe_lshift_func_int32_t_s_u>:
    6776:	f3 0f 1e fa          	endbr64 
    677a:	55                   	push   %rbp
    677b:	48 89 e5             	mov    %rsp,%rbp
    677e:	89 7d fc             	mov    %edi,-0x4(%rbp)
    6781:	89 75 f8             	mov    %esi,-0x8(%rbp)
    6784:	83 7d fc 00          	cmpl   $0x0,-0x4(%rbp)
    6788:	78 27                	js     67b1 <safe_lshift_func_int32_t_s_u+0x3b>
    678a:	83 7d f8 1f          	cmpl   $0x1f,-0x8(%rbp)
    678e:	77 21                	ja     67b1 <safe_lshift_func_int32_t_s_u+0x3b>
    6790:	8b 45 f8             	mov    -0x8(%rbp),%eax
    6793:	ba ff ff ff 7f       	mov    $0x7fffffff,%edx
    6798:	89 c1                	mov    %eax,%ecx
    679a:	d3 fa                	sar    %cl,%edx
    679c:	89 d0                	mov    %edx,%eax
    679e:	39 45 fc             	cmp    %eax,-0x4(%rbp)
    67a1:	7f 0e                	jg     67b1 <safe_lshift_func_int32_t_s_u+0x3b>
    67a3:	8b 45 f8             	mov    -0x8(%rbp),%eax
    67a6:	8b 55 fc             	mov    -0x4(%rbp),%edx
    67a9:	89 c1                	mov    %eax,%ecx
    67ab:	d3 e2                	shl    %cl,%edx
    67ad:	89 d0                	mov    %edx,%eax
    67af:	eb 03                	jmp    67b4 <safe_lshift_func_int32_t_s_u+0x3e>
    67b1:	8b 45 fc             	mov    -0x4(%rbp),%eax
    67b4:	5d                   	pop    %rbp
    67b5:	c3                   	retq   

00000000000067b6 <safe_rshift_func_int32_t_s_s>:
    67b6:	f3 0f 1e fa          	endbr64 
    67ba:	55                   	push   %rbp
    67bb:	48 89 e5             	mov    %rsp,%rbp
    67be:	89 7d fc             	mov    %edi,-0x4(%rbp)
    67c1:	89 75 f8             	mov    %esi,-0x8(%rbp)
    67c4:	83 7d fc 00          	cmpl   $0x0,-0x4(%rbp)
    67c8:	78 1a                	js     67e4 <safe_rshift_func_int32_t_s_s+0x2e>
    67ca:	83 7d f8 00          	cmpl   $0x0,-0x8(%rbp)
    67ce:	78 14                	js     67e4 <safe_rshift_func_int32_t_s_s+0x2e>
    67d0:	83 7d f8 1f          	cmpl   $0x1f,-0x8(%rbp)
    67d4:	7f 0e                	jg     67e4 <safe_rshift_func_int32_t_s_s+0x2e>
    67d6:	8b 45 f8             	mov    -0x8(%rbp),%eax
    67d9:	8b 55 fc             	mov    -0x4(%rbp),%edx
    67dc:	89 c1                	mov    %eax,%ecx
    67de:	d3 fa                	sar    %cl,%edx
    67e0:	89 d0                	mov    %edx,%eax
    67e2:	eb 03                	jmp    67e7 <safe_rshift_func_int32_t_s_s+0x31>
    67e4:	8b 45 fc             	mov    -0x4(%rbp),%eax
    67e7:	5d                   	pop    %rbp
    67e8:	c3                   	retq   

00000000000067e9 <safe_rshift_func_int32_t_s_u>:
    67e9:	f3 0f 1e fa          	endbr64 
    67ed:	55                   	push   %rbp
    67ee:	48 89 e5             	mov    %rsp,%rbp
    67f1:	89 7d fc             	mov    %edi,-0x4(%rbp)
    67f4:	89 75 f8             	mov    %esi,-0x8(%rbp)
    67f7:	83 7d fc 00          	cmpl   $0x0,-0x4(%rbp)
    67fb:	78 14                	js     6811 <safe_rshift_func_int32_t_s_u+0x28>
    67fd:	83 7d f8 1f          	cmpl   $0x1f,-0x8(%rbp)
    6801:	77 0e                	ja     6811 <safe_rshift_func_int32_t_s_u+0x28>
    6803:	8b 45 f8             	mov    -0x8(%rbp),%eax
    6806:	8b 55 fc             	mov    -0x4(%rbp),%edx
    6809:	89 c1                	mov    %eax,%ecx
    680b:	d3 fa                	sar    %cl,%edx
    680d:	89 d0                	mov    %edx,%eax
    680f:	eb 03                	jmp    6814 <safe_rshift_func_int32_t_s_u+0x2b>
    6811:	8b 45 fc             	mov    -0x4(%rbp),%eax
    6814:	5d                   	pop    %rbp
    6815:	c3                   	retq   

0000000000006816 <safe_unary_minus_func_int64_t_s>:
    6816:	f3 0f 1e fa          	endbr64 
    681a:	55                   	push   %rbp
    681b:	48 89 e5             	mov    %rsp,%rbp
    681e:	48 89 7d f8          	mov    %rdi,-0x8(%rbp)
    6822:	48 b8 00 00 00 00 00 	movabs $0x8000000000000000,%rax
    6829:	00 00 80 
    682c:	48 39 45 f8          	cmp    %rax,-0x8(%rbp)
    6830:	74 09                	je     683b <safe_unary_minus_func_int64_t_s+0x25>
    6832:	48 8b 45 f8          	mov    -0x8(%rbp),%rax
    6836:	48 f7 d8             	neg    %rax
    6839:	eb 04                	jmp    683f <safe_unary_minus_func_int64_t_s+0x29>
    683b:	48 8b 45 f8          	mov    -0x8(%rbp),%rax
    683f:	5d                   	pop    %rbp
    6840:	c3                   	retq   

0000000000006841 <safe_add_func_int64_t_s_s>:
    6841:	f3 0f 1e fa          	endbr64 
    6845:	55                   	push   %rbp
    6846:	48 89 e5             	mov    %rsp,%rbp
    6849:	48 89 7d f8          	mov    %rdi,-0x8(%rbp)
    684d:	48 89 75 f0          	mov    %rsi,-0x10(%rbp)
    6851:	48 83 7d f8 00       	cmpq   $0x0,-0x8(%rbp)
    6856:	7e 1b                	jle    6873 <safe_add_func_int64_t_s_s+0x32>
    6858:	48 83 7d f0 00       	cmpq   $0x0,-0x10(%rbp)
    685d:	7e 14                	jle    6873 <safe_add_func_int64_t_s_s+0x32>
    685f:	48 b8 ff ff ff ff ff 	movabs $0x7fffffffffffffff,%rax
    6866:	ff ff 7f 
    6869:	48 2b 45 f0          	sub    -0x10(%rbp),%rax
    686d:	48 39 45 f8          	cmp    %rax,-0x8(%rbp)
    6871:	7f 2f                	jg     68a2 <safe_add_func_int64_t_s_s+0x61>
    6873:	48 83 7d f8 00       	cmpq   $0x0,-0x8(%rbp)
    6878:	79 1b                	jns    6895 <safe_add_func_int64_t_s_s+0x54>
    687a:	48 83 7d f0 00       	cmpq   $0x0,-0x10(%rbp)
    687f:	79 14                	jns    6895 <safe_add_func_int64_t_s_s+0x54>
    6881:	48 b8 00 00 00 00 00 	movabs $0x8000000000000000,%rax
    6888:	00 00 80 
    688b:	48 2b 45 f0          	sub    -0x10(%rbp),%rax
    688f:	48 39 45 f8          	cmp    %rax,-0x8(%rbp)
    6893:	7c 0d                	jl     68a2 <safe_add_func_int64_t_s_s+0x61>
    6895:	48 8b 55 f8          	mov    -0x8(%rbp),%rdx
    6899:	48 8b 45 f0          	mov    -0x10(%rbp),%rax
    689d:	48 01 d0             	add    %rdx,%rax
    68a0:	eb 04                	jmp    68a6 <safe_add_func_int64_t_s_s+0x65>
    68a2:	48 8b 45 f8          	mov    -0x8(%rbp),%rax
    68a6:	5d                   	pop    %rbp
    68a7:	c3                   	retq   

00000000000068a8 <safe_sub_func_int64_t_s_s>:
    68a8:	f3 0f 1e fa          	endbr64 
    68ac:	55                   	push   %rbp
    68ad:	48 89 e5             	mov    %rsp,%rbp
    68b0:	48 89 7d f8          	mov    %rdi,-0x8(%rbp)
    68b4:	48 89 75 f0          	mov    %rsi,-0x10(%rbp)
    68b8:	48 8b 45 f8          	mov    -0x8(%rbp),%rax
    68bc:	48 33 45 f0          	xor    -0x10(%rbp),%rax
    68c0:	48 89 c2             	mov    %rax,%rdx
    68c3:	48 8b 45 f8          	mov    -0x8(%rbp),%rax
    68c7:	48 33 45 f0          	xor    -0x10(%rbp),%rax
    68cb:	48 b9 00 00 00 00 00 	movabs $0x8000000000000000,%rcx
    68d2:	00 00 80 
    68d5:	48 21 c8             	and    %rcx,%rax
    68d8:	48 33 45 f8          	xor    -0x8(%rbp),%rax
    68dc:	48 2b 45 f0          	sub    -0x10(%rbp),%rax
    68e0:	48 33 45 f0          	xor    -0x10(%rbp),%rax
    68e4:	48 21 d0             	and    %rdx,%rax
    68e7:	48 85 c0             	test   %rax,%rax
    68ea:	78 0a                	js     68f6 <safe_sub_func_int64_t_s_s+0x4e>
    68ec:	48 8b 45 f8          	mov    -0x8(%rbp),%rax
    68f0:	48 2b 45 f0          	sub    -0x10(%rbp),%rax
    68f4:	eb 04                	jmp    68fa <safe_sub_func_int64_t_s_s+0x52>
    68f6:	48 8b 45 f8          	mov    -0x8(%rbp),%rax
    68fa:	5d                   	pop    %rbp
    68fb:	c3                   	retq   

00000000000068fc <safe_mul_func_int64_t_s_s>:
    68fc:	f3 0f 1e fa          	endbr64 
    6900:	55                   	push   %rbp
    6901:	48 89 e5             	mov    %rsp,%rbp
    6904:	48 89 7d f8          	mov    %rdi,-0x8(%rbp)
    6908:	48 89 75 f0          	mov    %rsi,-0x10(%rbp)
    690c:	48 83 7d f8 00       	cmpq   $0x0,-0x8(%rbp)
    6911:	7e 1d                	jle    6930 <safe_mul_func_int64_t_s_s+0x34>
    6913:	48 83 7d f0 00       	cmpq   $0x0,-0x10(%rbp)
    6918:	7e 16                	jle    6930 <safe_mul_func_int64_t_s_s+0x34>
    691a:	48 b8 ff ff ff ff ff 	movabs $0x7fffffffffffffff,%rax
    6921:	ff ff 7f 
    6924:	48 99                	cqto   
    6926:	48 f7 7d f0          	idivq  -0x10(%rbp)
    692a:	48 39 45 f8          	cmp    %rax,-0x8(%rbp)
    692e:	7f 7e                	jg     69ae <safe_mul_func_int64_t_s_s+0xb2>
    6930:	48 83 7d f8 00       	cmpq   $0x0,-0x8(%rbp)
    6935:	7e 1d                	jle    6954 <safe_mul_func_int64_t_s_s+0x58>
    6937:	48 83 7d f0 00       	cmpq   $0x0,-0x10(%rbp)
    693c:	7f 16                	jg     6954 <safe_mul_func_int64_t_s_s+0x58>
    693e:	48 b8 00 00 00 00 00 	movabs $0x8000000000000000,%rax
    6945:	00 00 80 
    6948:	48 99                	cqto   
    694a:	48 f7 7d f8          	idivq  -0x8(%rbp)
    694e:	48 39 45 f0          	cmp    %rax,-0x10(%rbp)
    6952:	7c 5a                	jl     69ae <safe_mul_func_int64_t_s_s+0xb2>
    6954:	48 83 7d f8 00       	cmpq   $0x0,-0x8(%rbp)
    6959:	7f 1d                	jg     6978 <safe_mul_func_int64_t_s_s+0x7c>
    695b:	48 83 7d f0 00       	cmpq   $0x0,-0x10(%rbp)
    6960:	7e 16                	jle    6978 <safe_mul_func_int64_t_s_s+0x7c>
    6962:	48 b8 00 00 00 00 00 	movabs $0x8000000000000000,%rax
    6969:	00 00 80 
    696c:	48 99                	cqto   
    696e:	48 f7 7d f0          	idivq  -0x10(%rbp)
    6972:	48 39 45 f8          	cmp    %rax,-0x8(%rbp)
    6976:	7c 36                	jl     69ae <safe_mul_func_int64_t_s_s+0xb2>
    6978:	48 83 7d f8 00       	cmpq   $0x0,-0x8(%rbp)
    697d:	7f 24                	jg     69a3 <safe_mul_func_int64_t_s_s+0xa7>
    697f:	48 83 7d f0 00       	cmpq   $0x0,-0x10(%rbp)
    6984:	7f 1d                	jg     69a3 <safe_mul_func_int64_t_s_s+0xa7>
    6986:	48 83 7d f8 00       	cmpq   $0x0,-0x8(%rbp)
    698b:	74 16                	je     69a3 <safe_mul_func_int64_t_s_s+0xa7>
    698d:	48 b8 ff ff ff ff ff 	movabs $0x7fffffffffffffff,%rax
    6994:	ff ff 7f 
    6997:	48 99                	cqto   
    6999:	48 f7 7d f8          	idivq  -0x8(%rbp)
    699d:	48 39 45 f0          	cmp    %rax,-0x10(%rbp)
    69a1:	7c 0b                	jl     69ae <safe_mul_func_int64_t_s_s+0xb2>
    69a3:	48 8b 45 f8          	mov    -0x8(%rbp),%rax
    69a7:	48 0f af 45 f0       	imul   -0x10(%rbp),%rax
    69ac:	eb 04                	jmp    69b2 <safe_mul_func_int64_t_s_s+0xb6>
    69ae:	48 8b 45 f8          	mov    -0x8(%rbp),%rax
    69b2:	5d                   	pop    %rbp
    69b3:	c3                   	retq   

00000000000069b4 <safe_mod_func_int64_t_s_s>:
    69b4:	f3 0f 1e fa          	endbr64 
    69b8:	55                   	push   %rbp
    69b9:	48 89 e5             	mov    %rsp,%rbp
    69bc:	48 89 7d f8          	mov    %rdi,-0x8(%rbp)
    69c0:	48 89 75 f0          	mov    %rsi,-0x10(%rbp)
    69c4:	48 83 7d f0 00       	cmpq   $0x0,-0x10(%rbp)
    69c9:	74 26                	je     69f1 <safe_mod_func_int64_t_s_s+0x3d>
    69cb:	48 b8 00 00 00 00 00 	movabs $0x8000000000000000,%rax
    69d2:	00 00 80 
    69d5:	48 39 45 f8          	cmp    %rax,-0x8(%rbp)
    69d9:	75 07                	jne    69e2 <safe_mod_func_int64_t_s_s+0x2e>
    69db:	48 83 7d f0 ff       	cmpq   $0xffffffffffffffff,-0x10(%rbp)
    69e0:	74 0f                	je     69f1 <safe_mod_func_int64_t_s_s+0x3d>
    69e2:	48 8b 45 f8          	mov    -0x8(%rbp),%rax
    69e6:	48 99                	cqto   
    69e8:	48 f7 7d f0          	idivq  -0x10(%rbp)
    69ec:	48 89 d0             	mov    %rdx,%rax
    69ef:	eb 04                	jmp    69f5 <safe_mod_func_int64_t_s_s+0x41>
    69f1:	48 8b 45 f8          	mov    -0x8(%rbp),%rax
    69f5:	5d                   	pop    %rbp
    69f6:	c3                   	retq   

00000000000069f7 <safe_div_func_int64_t_s_s>:
    69f7:	f3 0f 1e fa          	endbr64 
    69fb:	55                   	push   %rbp
    69fc:	48 89 e5             	mov    %rsp,%rbp
    69ff:	48 89 7d f8          	mov    %rdi,-0x8(%rbp)
    6a03:	48 89 75 f0          	mov    %rsi,-0x10(%rbp)
    6a07:	48 83 7d f0 00       	cmpq   $0x0,-0x10(%rbp)
    6a0c:	74 23                	je     6a31 <safe_div_func_int64_t_s_s+0x3a>
    6a0e:	48 b8 00 00 00 00 00 	movabs $0x8000000000000000,%rax
    6a15:	00 00 80 
    6a18:	48 39 45 f8          	cmp    %rax,-0x8(%rbp)
    6a1c:	75 07                	jne    6a25 <safe_div_func_int64_t_s_s+0x2e>
    6a1e:	48 83 7d f0 ff       	cmpq   $0xffffffffffffffff,-0x10(%rbp)
    6a23:	74 0c                	je     6a31 <safe_div_func_int64_t_s_s+0x3a>
    6a25:	48 8b 45 f8          	mov    -0x8(%rbp),%rax
    6a29:	48 99                	cqto   
    6a2b:	48 f7 7d f0          	idivq  -0x10(%rbp)
    6a2f:	eb 04                	jmp    6a35 <safe_div_func_int64_t_s_s+0x3e>
    6a31:	48 8b 45 f8          	mov    -0x8(%rbp),%rax
    6a35:	5d                   	pop    %rbp
    6a36:	c3                   	retq   

0000000000006a37 <safe_lshift_func_int64_t_s_s>:
    6a37:	f3 0f 1e fa          	endbr64 
    6a3b:	55                   	push   %rbp
    6a3c:	48 89 e5             	mov    %rsp,%rbp
    6a3f:	48 89 7d f8          	mov    %rdi,-0x8(%rbp)
    6a43:	89 75 f4             	mov    %esi,-0xc(%rbp)
    6a46:	48 83 7d f8 00       	cmpq   $0x0,-0x8(%rbp)
    6a4b:	78 38                	js     6a85 <safe_lshift_func_int64_t_s_s+0x4e>
    6a4d:	83 7d f4 00          	cmpl   $0x0,-0xc(%rbp)
    6a51:	78 32                	js     6a85 <safe_lshift_func_int64_t_s_s+0x4e>
    6a53:	83 7d f4 1f          	cmpl   $0x1f,-0xc(%rbp)
    6a57:	7f 2c                	jg     6a85 <safe_lshift_func_int64_t_s_s+0x4e>
    6a59:	8b 45 f4             	mov    -0xc(%rbp),%eax
    6a5c:	48 ba ff ff ff ff ff 	movabs $0x7fffffffffffffff,%rdx
    6a63:	ff ff 7f 
    6a66:	89 c1                	mov    %eax,%ecx
    6a68:	48 d3 fa             	sar    %cl,%rdx
    6a6b:	48 89 d0             	mov    %rdx,%rax
    6a6e:	48 39 45 f8          	cmp    %rax,-0x8(%rbp)
    6a72:	7f 11                	jg     6a85 <safe_lshift_func_int64_t_s_s+0x4e>
    6a74:	8b 45 f4             	mov    -0xc(%rbp),%eax
    6a77:	48 8b 55 f8          	mov    -0x8(%rbp),%rdx
    6a7b:	89 c1                	mov    %eax,%ecx
    6a7d:	48 d3 e2             	shl    %cl,%rdx
    6a80:	48 89 d0             	mov    %rdx,%rax
    6a83:	eb 04                	jmp    6a89 <safe_lshift_func_int64_t_s_s+0x52>
    6a85:	48 8b 45 f8          	mov    -0x8(%rbp),%rax
    6a89:	5d                   	pop    %rbp
    6a8a:	c3                   	retq   

0000000000006a8b <safe_lshift_func_int64_t_s_u>:
    6a8b:	f3 0f 1e fa          	endbr64 
    6a8f:	55                   	push   %rbp
    6a90:	48 89 e5             	mov    %rsp,%rbp
    6a93:	48 89 7d f8          	mov    %rdi,-0x8(%rbp)
    6a97:	89 75 f4             	mov    %esi,-0xc(%rbp)
    6a9a:	48 83 7d f8 00       	cmpq   $0x0,-0x8(%rbp)
    6a9f:	78 32                	js     6ad3 <safe_lshift_func_int64_t_s_u+0x48>
    6aa1:	83 7d f4 1f          	cmpl   $0x1f,-0xc(%rbp)
    6aa5:	77 2c                	ja     6ad3 <safe_lshift_func_int64_t_s_u+0x48>
    6aa7:	8b 45 f4             	mov    -0xc(%rbp),%eax
    6aaa:	48 ba ff ff ff ff ff 	movabs $0x7fffffffffffffff,%rdx
    6ab1:	ff ff 7f 
    6ab4:	89 c1                	mov    %eax,%ecx
    6ab6:	48 d3 fa             	sar    %cl,%rdx
    6ab9:	48 89 d0             	mov    %rdx,%rax
    6abc:	48 39 45 f8          	cmp    %rax,-0x8(%rbp)
    6ac0:	7f 11                	jg     6ad3 <safe_lshift_func_int64_t_s_u+0x48>
    6ac2:	8b 45 f4             	mov    -0xc(%rbp),%eax
    6ac5:	48 8b 55 f8          	mov    -0x8(%rbp),%rdx
    6ac9:	89 c1                	mov    %eax,%ecx
    6acb:	48 d3 e2             	shl    %cl,%rdx
    6ace:	48 89 d0             	mov    %rdx,%rax
    6ad1:	eb 04                	jmp    6ad7 <safe_lshift_func_int64_t_s_u+0x4c>
    6ad3:	48 8b 45 f8          	mov    -0x8(%rbp),%rax
    6ad7:	5d                   	pop    %rbp
    6ad8:	c3                   	retq   

0000000000006ad9 <safe_rshift_func_int64_t_s_s>:
    6ad9:	f3 0f 1e fa          	endbr64 
    6add:	55                   	push   %rbp
    6ade:	48 89 e5             	mov    %rsp,%rbp
    6ae1:	48 89 7d f8          	mov    %rdi,-0x8(%rbp)
    6ae5:	89 75 f4             	mov    %esi,-0xc(%rbp)
    6ae8:	48 83 7d f8 00       	cmpq   $0x0,-0x8(%rbp)
    6aed:	78 1d                	js     6b0c <safe_rshift_func_int64_t_s_s+0x33>
    6aef:	83 7d f4 00          	cmpl   $0x0,-0xc(%rbp)
    6af3:	78 17                	js     6b0c <safe_rshift_func_int64_t_s_s+0x33>
    6af5:	83 7d f4 1f          	cmpl   $0x1f,-0xc(%rbp)
    6af9:	7f 11                	jg     6b0c <safe_rshift_func_int64_t_s_s+0x33>
    6afb:	8b 45 f4             	mov    -0xc(%rbp),%eax
    6afe:	48 8b 55 f8          	mov    -0x8(%rbp),%rdx
    6b02:	89 c1                	mov    %eax,%ecx
    6b04:	48 d3 fa             	sar    %cl,%rdx
    6b07:	48 89 d0             	mov    %rdx,%rax
    6b0a:	eb 04                	jmp    6b10 <safe_rshift_func_int64_t_s_s+0x37>
    6b0c:	48 8b 45 f8          	mov    -0x8(%rbp),%rax
    6b10:	5d                   	pop    %rbp
    6b11:	c3                   	retq   

0000000000006b12 <safe_rshift_func_int64_t_s_u>:
    6b12:	f3 0f 1e fa          	endbr64 
    6b16:	55                   	push   %rbp
    6b17:	48 89 e5             	mov    %rsp,%rbp
    6b1a:	48 89 7d f8          	mov    %rdi,-0x8(%rbp)
    6b1e:	89 75 f4             	mov    %esi,-0xc(%rbp)
    6b21:	48 83 7d f8 00       	cmpq   $0x0,-0x8(%rbp)
    6b26:	78 17                	js     6b3f <safe_rshift_func_int64_t_s_u+0x2d>
    6b28:	83 7d f4 1f          	cmpl   $0x1f,-0xc(%rbp)
    6b2c:	77 11                	ja     6b3f <safe_rshift_func_int64_t_s_u+0x2d>
    6b2e:	8b 45 f4             	mov    -0xc(%rbp),%eax
    6b31:	48 8b 55 f8          	mov    -0x8(%rbp),%rdx
    6b35:	89 c1                	mov    %eax,%ecx
    6b37:	48 d3 fa             	sar    %cl,%rdx
    6b3a:	48 89 d0             	mov    %rdx,%rax
    6b3d:	eb 04                	jmp    6b43 <safe_rshift_func_int64_t_s_u+0x31>
    6b3f:	48 8b 45 f8          	mov    -0x8(%rbp),%rax
    6b43:	5d                   	pop    %rbp
    6b44:	c3                   	retq   

0000000000006b45 <safe_unary_minus_func_uint8_t_u>:
    6b45:	f3 0f 1e fa          	endbr64 
    6b49:	55                   	push   %rbp
    6b4a:	48 89 e5             	mov    %rsp,%rbp
    6b4d:	89 f8                	mov    %edi,%eax
    6b4f:	88 45 fc             	mov    %al,-0x4(%rbp)
    6b52:	0f b6 45 fc          	movzbl -0x4(%rbp),%eax
    6b56:	f7 d8                	neg    %eax
    6b58:	5d                   	pop    %rbp
    6b59:	c3                   	retq   

0000000000006b5a <safe_add_func_uint8_t_u_u>:
    6b5a:	f3 0f 1e fa          	endbr64 
    6b5e:	55                   	push   %rbp
    6b5f:	48 89 e5             	mov    %rsp,%rbp
    6b62:	89 fa                	mov    %edi,%edx
    6b64:	89 f0                	mov    %esi,%eax
    6b66:	88 55 fc             	mov    %dl,-0x4(%rbp)
    6b69:	88 45 f8             	mov    %al,-0x8(%rbp)
    6b6c:	0f b6 55 fc          	movzbl -0x4(%rbp),%edx
    6b70:	0f b6 45 f8          	movzbl -0x8(%rbp),%eax
    6b74:	01 d0                	add    %edx,%eax
    6b76:	5d                   	pop    %rbp
    6b77:	c3                   	retq   

0000000000006b78 <safe_sub_func_uint8_t_u_u>:
    6b78:	f3 0f 1e fa          	endbr64 
    6b7c:	55                   	push   %rbp
    6b7d:	48 89 e5             	mov    %rsp,%rbp
    6b80:	89 fa                	mov    %edi,%edx
    6b82:	89 f0                	mov    %esi,%eax
    6b84:	88 55 fc             	mov    %dl,-0x4(%rbp)
    6b87:	88 45 f8             	mov    %al,-0x8(%rbp)
    6b8a:	0f b6 45 fc          	movzbl -0x4(%rbp),%eax
    6b8e:	2a 45 f8             	sub    -0x8(%rbp),%al
    6b91:	5d                   	pop    %rbp
    6b92:	c3                   	retq   

0000000000006b93 <safe_mul_func_uint8_t_u_u>:
    6b93:	f3 0f 1e fa          	endbr64 
    6b97:	55                   	push   %rbp
    6b98:	48 89 e5             	mov    %rsp,%rbp
    6b9b:	89 fa                	mov    %edi,%edx
    6b9d:	89 f0                	mov    %esi,%eax
    6b9f:	88 55 fc             	mov    %dl,-0x4(%rbp)
    6ba2:	88 45 f8             	mov    %al,-0x8(%rbp)
    6ba5:	0f b6 45 fc          	movzbl -0x4(%rbp),%eax
    6ba9:	f6 65 f8             	mulb   -0x8(%rbp)
    6bac:	5d                   	pop    %rbp
    6bad:	c3                   	retq   

0000000000006bae <safe_mod_func_uint8_t_u_u>:
    6bae:	f3 0f 1e fa          	endbr64 
    6bb2:	55                   	push   %rbp
    6bb3:	48 89 e5             	mov    %rsp,%rbp
    6bb6:	89 fa                	mov    %edi,%edx
    6bb8:	89 f0                	mov    %esi,%eax
    6bba:	88 55 fc             	mov    %dl,-0x4(%rbp)
    6bbd:	88 45 f8             	mov    %al,-0x8(%rbp)
    6bc0:	80 7d f8 00          	cmpb   $0x0,-0x8(%rbp)
    6bc4:	74 0f                	je     6bd5 <safe_mod_func_uint8_t_u_u+0x27>
    6bc6:	0f b6 45 fc          	movzbl -0x4(%rbp),%eax
    6bca:	0f b6 c0             	movzbl %al,%eax
    6bcd:	f6 75 f8             	divb   -0x8(%rbp)
    6bd0:	0f b6 c4             	movzbl %ah,%eax
    6bd3:	eb 04                	jmp    6bd9 <safe_mod_func_uint8_t_u_u+0x2b>
    6bd5:	0f b6 45 fc          	movzbl -0x4(%rbp),%eax
    6bd9:	5d                   	pop    %rbp
    6bda:	c3                   	retq   

0000000000006bdb <safe_div_func_uint8_t_u_u>:
    6bdb:	f3 0f 1e fa          	endbr64 
    6bdf:	55                   	push   %rbp
    6be0:	48 89 e5             	mov    %rsp,%rbp
    6be3:	89 fa                	mov    %edi,%edx
    6be5:	89 f0                	mov    %esi,%eax
    6be7:	88 55 fc             	mov    %dl,-0x4(%rbp)
    6bea:	88 45 f8             	mov    %al,-0x8(%rbp)
    6bed:	80 7d f8 00          	cmpb   $0x0,-0x8(%rbp)
    6bf1:	74 0c                	je     6bff <safe_div_func_uint8_t_u_u+0x24>
    6bf3:	0f b6 45 fc          	movzbl -0x4(%rbp),%eax
    6bf7:	0f b6 c0             	movzbl %al,%eax
    6bfa:	f6 75 f8             	divb   -0x8(%rbp)
    6bfd:	eb 04                	jmp    6c03 <safe_div_func_uint8_t_u_u+0x28>
    6bff:	0f b6 45 fc          	movzbl -0x4(%rbp),%eax
    6c03:	5d                   	pop    %rbp
    6c04:	c3                   	retq   

0000000000006c05 <safe_lshift_func_uint8_t_u_s>:
    6c05:	f3 0f 1e fa          	endbr64 
    6c09:	55                   	push   %rbp
    6c0a:	48 89 e5             	mov    %rsp,%rbp
    6c0d:	89 f8                	mov    %edi,%eax
    6c0f:	89 75 f8             	mov    %esi,-0x8(%rbp)
    6c12:	88 45 fc             	mov    %al,-0x4(%rbp)
    6c15:	83 7d f8 00          	cmpl   $0x0,-0x8(%rbp)
    6c19:	78 2b                	js     6c46 <safe_lshift_func_uint8_t_u_s+0x41>
    6c1b:	83 7d f8 1f          	cmpl   $0x1f,-0x8(%rbp)
    6c1f:	7f 25                	jg     6c46 <safe_lshift_func_uint8_t_u_s+0x41>
    6c21:	0f b6 55 fc          	movzbl -0x4(%rbp),%edx
    6c25:	8b 45 f8             	mov    -0x8(%rbp),%eax
    6c28:	be ff 00 00 00       	mov    $0xff,%esi
    6c2d:	89 c1                	mov    %eax,%ecx
    6c2f:	d3 fe                	sar    %cl,%esi
    6c31:	89 f0                	mov    %esi,%eax
    6c33:	39 c2                	cmp    %eax,%edx
    6c35:	7f 0f                	jg     6c46 <safe_lshift_func_uint8_t_u_s+0x41>
    6c37:	0f b6 55 fc          	movzbl -0x4(%rbp),%edx
    6c3b:	8b 45 f8             	mov    -0x8(%rbp),%eax
    6c3e:	89 c1                	mov    %eax,%ecx
    6c40:	d3 e2                	shl    %cl,%edx
    6c42:	89 d0                	mov    %edx,%eax
    6c44:	eb 04                	jmp    6c4a <safe_lshift_func_uint8_t_u_s+0x45>
    6c46:	0f b6 45 fc          	movzbl -0x4(%rbp),%eax
    6c4a:	5d                   	pop    %rbp
    6c4b:	c3                   	retq   

0000000000006c4c <safe_lshift_func_uint8_t_u_u>:
    6c4c:	f3 0f 1e fa          	endbr64 
    6c50:	55                   	push   %rbp
    6c51:	48 89 e5             	mov    %rsp,%rbp
    6c54:	89 f8                	mov    %edi,%eax
    6c56:	89 75 f8             	mov    %esi,-0x8(%rbp)
    6c59:	88 45 fc             	mov    %al,-0x4(%rbp)
    6c5c:	83 7d f8 1f          	cmpl   $0x1f,-0x8(%rbp)
    6c60:	77 25                	ja     6c87 <safe_lshift_func_uint8_t_u_u+0x3b>
    6c62:	0f b6 55 fc          	movzbl -0x4(%rbp),%edx
    6c66:	8b 45 f8             	mov    -0x8(%rbp),%eax
    6c69:	be ff 00 00 00       	mov    $0xff,%esi
    6c6e:	89 c1                	mov    %eax,%ecx
    6c70:	d3 fe                	sar    %cl,%esi
    6c72:	89 f0                	mov    %esi,%eax
    6c74:	39 c2                	cmp    %eax,%edx
    6c76:	7f 0f                	jg     6c87 <safe_lshift_func_uint8_t_u_u+0x3b>
    6c78:	0f b6 55 fc          	movzbl -0x4(%rbp),%edx
    6c7c:	8b 45 f8             	mov    -0x8(%rbp),%eax
    6c7f:	89 c1                	mov    %eax,%ecx
    6c81:	d3 e2                	shl    %cl,%edx
    6c83:	89 d0                	mov    %edx,%eax
    6c85:	eb 04                	jmp    6c8b <safe_lshift_func_uint8_t_u_u+0x3f>
    6c87:	0f b6 45 fc          	movzbl -0x4(%rbp),%eax
    6c8b:	5d                   	pop    %rbp
    6c8c:	c3                   	retq   

0000000000006c8d <safe_rshift_func_uint8_t_u_s>:
    6c8d:	f3 0f 1e fa          	endbr64 
    6c91:	55                   	push   %rbp
    6c92:	48 89 e5             	mov    %rsp,%rbp
    6c95:	89 f8                	mov    %edi,%eax
    6c97:	89 75 f8             	mov    %esi,-0x8(%rbp)
    6c9a:	88 45 fc             	mov    %al,-0x4(%rbp)
    6c9d:	83 7d f8 00          	cmpl   $0x0,-0x8(%rbp)
    6ca1:	78 15                	js     6cb8 <safe_rshift_func_uint8_t_u_s+0x2b>
    6ca3:	83 7d f8 1f          	cmpl   $0x1f,-0x8(%rbp)
    6ca7:	7f 0f                	jg     6cb8 <safe_rshift_func_uint8_t_u_s+0x2b>
    6ca9:	0f b6 55 fc          	movzbl -0x4(%rbp),%edx
    6cad:	8b 45 f8             	mov    -0x8(%rbp),%eax
    6cb0:	89 c1                	mov    %eax,%ecx
    6cb2:	d3 fa                	sar    %cl,%edx
    6cb4:	89 d0                	mov    %edx,%eax
    6cb6:	eb 04                	jmp    6cbc <safe_rshift_func_uint8_t_u_s+0x2f>
    6cb8:	0f b6 45 fc          	movzbl -0x4(%rbp),%eax
    6cbc:	5d                   	pop    %rbp
    6cbd:	c3                   	retq   

0000000000006cbe <safe_rshift_func_uint8_t_u_u>:
    6cbe:	f3 0f 1e fa          	endbr64 
    6cc2:	55                   	push   %rbp
    6cc3:	48 89 e5             	mov    %rsp,%rbp
    6cc6:	89 f8                	mov    %edi,%eax
    6cc8:	89 75 f8             	mov    %esi,-0x8(%rbp)
    6ccb:	88 45 fc             	mov    %al,-0x4(%rbp)
    6cce:	83 7d f8 1f          	cmpl   $0x1f,-0x8(%rbp)
    6cd2:	77 0f                	ja     6ce3 <safe_rshift_func_uint8_t_u_u+0x25>
    6cd4:	0f b6 55 fc          	movzbl -0x4(%rbp),%edx
    6cd8:	8b 45 f8             	mov    -0x8(%rbp),%eax
    6cdb:	89 c1                	mov    %eax,%ecx
    6cdd:	d3 fa                	sar    %cl,%edx
    6cdf:	89 d0                	mov    %edx,%eax
    6ce1:	eb 04                	jmp    6ce7 <safe_rshift_func_uint8_t_u_u+0x29>
    6ce3:	0f b6 45 fc          	movzbl -0x4(%rbp),%eax
    6ce7:	5d                   	pop    %rbp
    6ce8:	c3                   	retq   

0000000000006ce9 <safe_unary_minus_func_uint16_t_u>:
    6ce9:	f3 0f 1e fa          	endbr64 
    6ced:	55                   	push   %rbp
    6cee:	48 89 e5             	mov    %rsp,%rbp
    6cf1:	89 f8                	mov    %edi,%eax
    6cf3:	66 89 45 fc          	mov    %ax,-0x4(%rbp)
    6cf7:	0f b7 45 fc          	movzwl -0x4(%rbp),%eax
    6cfb:	f7 d8                	neg    %eax
    6cfd:	5d                   	pop    %rbp
    6cfe:	c3                   	retq   

0000000000006cff <safe_add_func_uint16_t_u_u>:
    6cff:	f3 0f 1e fa          	endbr64 
    6d03:	55                   	push   %rbp
    6d04:	48 89 e5             	mov    %rsp,%rbp
    6d07:	89 fa                	mov    %edi,%edx
    6d09:	89 f0                	mov    %esi,%eax
    6d0b:	66 89 55 fc          	mov    %dx,-0x4(%rbp)
    6d0f:	66 89 45 f8          	mov    %ax,-0x8(%rbp)
    6d13:	0f b7 55 fc          	movzwl -0x4(%rbp),%edx
    6d17:	0f b7 45 f8          	movzwl -0x8(%rbp),%eax
    6d1b:	01 d0                	add    %edx,%eax
    6d1d:	5d                   	pop    %rbp
    6d1e:	c3                   	retq   

0000000000006d1f <safe_sub_func_uint16_t_u_u>:
    6d1f:	f3 0f 1e fa          	endbr64 
    6d23:	55                   	push   %rbp
    6d24:	48 89 e5             	mov    %rsp,%rbp
    6d27:	89 fa                	mov    %edi,%edx
    6d29:	89 f0                	mov    %esi,%eax
    6d2b:	66 89 55 fc          	mov    %dx,-0x4(%rbp)
    6d2f:	66 89 45 f8          	mov    %ax,-0x8(%rbp)
    6d33:	0f b7 45 fc          	movzwl -0x4(%rbp),%eax
    6d37:	66 2b 45 f8          	sub    -0x8(%rbp),%ax
    6d3b:	5d                   	pop    %rbp
    6d3c:	c3                   	retq   

0000000000006d3d <safe_mul_func_uint16_t_u_u>:
    6d3d:	f3 0f 1e fa          	endbr64 
    6d41:	55                   	push   %rbp
    6d42:	48 89 e5             	mov    %rsp,%rbp
    6d45:	89 fa                	mov    %edi,%edx
    6d47:	89 f0                	mov    %esi,%eax
    6d49:	66 89 55 fc          	mov    %dx,-0x4(%rbp)
    6d4d:	66 89 45 f8          	mov    %ax,-0x8(%rbp)
    6d51:	0f b7 45 fc          	movzwl -0x4(%rbp),%eax
    6d55:	66 0f af 45 f8       	imul   -0x8(%rbp),%ax
    6d5a:	5d                   	pop    %rbp
    6d5b:	c3                   	retq   

0000000000006d5c <safe_mod_func_uint16_t_u_u>:
    6d5c:	f3 0f 1e fa          	endbr64 
    6d60:	55                   	push   %rbp
    6d61:	48 89 e5             	mov    %rsp,%rbp
    6d64:	89 fa                	mov    %edi,%edx
    6d66:	89 f0                	mov    %esi,%eax
    6d68:	66 89 55 fc          	mov    %dx,-0x4(%rbp)
    6d6c:	66 89 45 f8          	mov    %ax,-0x8(%rbp)
    6d70:	66 83 7d f8 00       	cmpw   $0x0,-0x8(%rbp)
    6d75:	74 11                	je     6d88 <safe_mod_func_uint16_t_u_u+0x2c>
    6d77:	0f b7 45 fc          	movzwl -0x4(%rbp),%eax
    6d7b:	ba 00 00 00 00       	mov    $0x0,%edx
    6d80:	66 f7 75 f8          	divw   -0x8(%rbp)
    6d84:	89 d0                	mov    %edx,%eax
    6d86:	eb 04                	jmp    6d8c <safe_mod_func_uint16_t_u_u+0x30>
    6d88:	0f b7 45 fc          	movzwl -0x4(%rbp),%eax
    6d8c:	5d                   	pop    %rbp
    6d8d:	c3                   	retq   

0000000000006d8e <safe_div_func_uint16_t_u_u>:
    6d8e:	f3 0f 1e fa          	endbr64 
    6d92:	55                   	push   %rbp
    6d93:	48 89 e5             	mov    %rsp,%rbp
    6d96:	89 fa                	mov    %edi,%edx
    6d98:	89 f0                	mov    %esi,%eax
    6d9a:	66 89 55 fc          	mov    %dx,-0x4(%rbp)
    6d9e:	66 89 45 f8          	mov    %ax,-0x8(%rbp)
    6da2:	66 83 7d f8 00       	cmpw   $0x0,-0x8(%rbp)
    6da7:	74 0f                	je     6db8 <safe_div_func_uint16_t_u_u+0x2a>
    6da9:	0f b7 45 fc          	movzwl -0x4(%rbp),%eax
    6dad:	ba 00 00 00 00       	mov    $0x0,%edx
    6db2:	66 f7 75 f8          	divw   -0x8(%rbp)
    6db6:	eb 04                	jmp    6dbc <safe_div_func_uint16_t_u_u+0x2e>
    6db8:	0f b7 45 fc          	movzwl -0x4(%rbp),%eax
    6dbc:	5d                   	pop    %rbp
    6dbd:	c3                   	retq   

0000000000006dbe <safe_lshift_func_uint16_t_u_s>:
    6dbe:	f3 0f 1e fa          	endbr64 
    6dc2:	55                   	push   %rbp
    6dc3:	48 89 e5             	mov    %rsp,%rbp
    6dc6:	89 f8                	mov    %edi,%eax
    6dc8:	89 75 f8             	mov    %esi,-0x8(%rbp)
    6dcb:	66 89 45 fc          	mov    %ax,-0x4(%rbp)
    6dcf:	83 7d f8 00          	cmpl   $0x0,-0x8(%rbp)
    6dd3:	78 2b                	js     6e00 <safe_lshift_func_uint16_t_u_s+0x42>
    6dd5:	83 7d f8 1f          	cmpl   $0x1f,-0x8(%rbp)
    6dd9:	7f 25                	jg     6e00 <safe_lshift_func_uint16_t_u_s+0x42>
    6ddb:	0f b7 55 fc          	movzwl -0x4(%rbp),%edx
    6ddf:	8b 45 f8             	mov    -0x8(%rbp),%eax
    6de2:	be ff ff 00 00       	mov    $0xffff,%esi
    6de7:	89 c1                	mov    %eax,%ecx
    6de9:	d3 fe                	sar    %cl,%esi
    6deb:	89 f0                	mov    %esi,%eax
    6ded:	39 c2                	cmp    %eax,%edx
    6def:	7f 0f                	jg     6e00 <safe_lshift_func_uint16_t_u_s+0x42>
    6df1:	0f b7 55 fc          	movzwl -0x4(%rbp),%edx
    6df5:	8b 45 f8             	mov    -0x8(%rbp),%eax
    6df8:	89 c1                	mov    %eax,%ecx
    6dfa:	d3 e2                	shl    %cl,%edx
    6dfc:	89 d0                	mov    %edx,%eax
    6dfe:	eb 04                	jmp    6e04 <safe_lshift_func_uint16_t_u_s+0x46>
    6e00:	0f b7 45 fc          	movzwl -0x4(%rbp),%eax
    6e04:	5d                   	pop    %rbp
    6e05:	c3                   	retq   

0000000000006e06 <safe_lshift_func_uint16_t_u_u>:
    6e06:	f3 0f 1e fa          	endbr64 
    6e0a:	55                   	push   %rbp
    6e0b:	48 89 e5             	mov    %rsp,%rbp
    6e0e:	89 f8                	mov    %edi,%eax
    6e10:	89 75 f8             	mov    %esi,-0x8(%rbp)
    6e13:	66 89 45 fc          	mov    %ax,-0x4(%rbp)
    6e17:	83 7d f8 1f          	cmpl   $0x1f,-0x8(%rbp)
    6e1b:	77 25                	ja     6e42 <safe_lshift_func_uint16_t_u_u+0x3c>
    6e1d:	0f b7 55 fc          	movzwl -0x4(%rbp),%edx
    6e21:	8b 45 f8             	mov    -0x8(%rbp),%eax
    6e24:	be ff ff 00 00       	mov    $0xffff,%esi
    6e29:	89 c1                	mov    %eax,%ecx
    6e2b:	d3 fe                	sar    %cl,%esi
    6e2d:	89 f0                	mov    %esi,%eax
    6e2f:	39 c2                	cmp    %eax,%edx
    6e31:	7f 0f                	jg     6e42 <safe_lshift_func_uint16_t_u_u+0x3c>
    6e33:	0f b7 55 fc          	movzwl -0x4(%rbp),%edx
    6e37:	8b 45 f8             	mov    -0x8(%rbp),%eax
    6e3a:	89 c1                	mov    %eax,%ecx
    6e3c:	d3 e2                	shl    %cl,%edx
    6e3e:	89 d0                	mov    %edx,%eax
    6e40:	eb 04                	jmp    6e46 <safe_lshift_func_uint16_t_u_u+0x40>
    6e42:	0f b7 45 fc          	movzwl -0x4(%rbp),%eax
    6e46:	5d                   	pop    %rbp
    6e47:	c3                   	retq   

0000000000006e48 <safe_rshift_func_uint16_t_u_s>:
    6e48:	f3 0f 1e fa          	endbr64 
    6e4c:	55                   	push   %rbp
    6e4d:	48 89 e5             	mov    %rsp,%rbp
    6e50:	89 f8                	mov    %edi,%eax
    6e52:	89 75 f8             	mov    %esi,-0x8(%rbp)
    6e55:	66 89 45 fc          	mov    %ax,-0x4(%rbp)
    6e59:	83 7d f8 00          	cmpl   $0x0,-0x8(%rbp)
    6e5d:	78 15                	js     6e74 <safe_rshift_func_uint16_t_u_s+0x2c>
    6e5f:	83 7d f8 1f          	cmpl   $0x1f,-0x8(%rbp)
    6e63:	7f 0f                	jg     6e74 <safe_rshift_func_uint16_t_u_s+0x2c>
    6e65:	0f b7 55 fc          	movzwl -0x4(%rbp),%edx
    6e69:	8b 45 f8             	mov    -0x8(%rbp),%eax
    6e6c:	89 c1                	mov    %eax,%ecx
    6e6e:	d3 fa                	sar    %cl,%edx
    6e70:	89 d0                	mov    %edx,%eax
    6e72:	eb 04                	jmp    6e78 <safe_rshift_func_uint16_t_u_s+0x30>
    6e74:	0f b7 45 fc          	movzwl -0x4(%rbp),%eax
    6e78:	5d                   	pop    %rbp
    6e79:	c3                   	retq   

0000000000006e7a <safe_rshift_func_uint16_t_u_u>:
    6e7a:	f3 0f 1e fa          	endbr64 
    6e7e:	55                   	push   %rbp
    6e7f:	48 89 e5             	mov    %rsp,%rbp
    6e82:	89 f8                	mov    %edi,%eax
    6e84:	89 75 f8             	mov    %esi,-0x8(%rbp)
    6e87:	66 89 45 fc          	mov    %ax,-0x4(%rbp)
    6e8b:	83 7d f8 1f          	cmpl   $0x1f,-0x8(%rbp)
    6e8f:	77 0f                	ja     6ea0 <safe_rshift_func_uint16_t_u_u+0x26>
    6e91:	0f b7 55 fc          	movzwl -0x4(%rbp),%edx
    6e95:	8b 45 f8             	mov    -0x8(%rbp),%eax
    6e98:	89 c1                	mov    %eax,%ecx
    6e9a:	d3 fa                	sar    %cl,%edx
    6e9c:	89 d0                	mov    %edx,%eax
    6e9e:	eb 04                	jmp    6ea4 <safe_rshift_func_uint16_t_u_u+0x2a>
    6ea0:	0f b7 45 fc          	movzwl -0x4(%rbp),%eax
    6ea4:	5d                   	pop    %rbp
    6ea5:	c3                   	retq   

0000000000006ea6 <safe_unary_minus_func_uint32_t_u>:
    6ea6:	f3 0f 1e fa          	endbr64 
    6eaa:	55                   	push   %rbp
    6eab:	48 89 e5             	mov    %rsp,%rbp
    6eae:	89 7d fc             	mov    %edi,-0x4(%rbp)
    6eb1:	8b 45 fc             	mov    -0x4(%rbp),%eax
    6eb4:	f7 d8                	neg    %eax
    6eb6:	5d                   	pop    %rbp
    6eb7:	c3                   	retq   

0000000000006eb8 <safe_add_func_uint32_t_u_u>:
    6eb8:	f3 0f 1e fa          	endbr64 
    6ebc:	55                   	push   %rbp
    6ebd:	48 89 e5             	mov    %rsp,%rbp
    6ec0:	89 7d fc             	mov    %edi,-0x4(%rbp)
    6ec3:	89 75 f8             	mov    %esi,-0x8(%rbp)
    6ec6:	8b 55 fc             	mov    -0x4(%rbp),%edx
    6ec9:	8b 45 f8             	mov    -0x8(%rbp),%eax
    6ecc:	01 d0                	add    %edx,%eax
    6ece:	5d                   	pop    %rbp
    6ecf:	c3                   	retq   

0000000000006ed0 <safe_sub_func_uint32_t_u_u>:
    6ed0:	f3 0f 1e fa          	endbr64 
    6ed4:	55                   	push   %rbp
    6ed5:	48 89 e5             	mov    %rsp,%rbp
    6ed8:	89 7d fc             	mov    %edi,-0x4(%rbp)
    6edb:	89 75 f8             	mov    %esi,-0x8(%rbp)
    6ede:	8b 45 fc             	mov    -0x4(%rbp),%eax
    6ee1:	2b 45 f8             	sub    -0x8(%rbp),%eax
    6ee4:	5d                   	pop    %rbp
    6ee5:	c3                   	retq   

0000000000006ee6 <safe_mul_func_uint32_t_u_u>:
    6ee6:	f3 0f 1e fa          	endbr64 
    6eea:	55                   	push   %rbp
    6eeb:	48 89 e5             	mov    %rsp,%rbp
    6eee:	89 7d fc             	mov    %edi,-0x4(%rbp)
    6ef1:	89 75 f8             	mov    %esi,-0x8(%rbp)
    6ef4:	8b 45 fc             	mov    -0x4(%rbp),%eax
    6ef7:	0f af 45 f8          	imul   -0x8(%rbp),%eax
    6efb:	5d                   	pop    %rbp
    6efc:	c3                   	retq   

0000000000006efd <safe_mod_func_uint32_t_u_u>:
    6efd:	f3 0f 1e fa          	endbr64 
    6f01:	55                   	push   %rbp
    6f02:	48 89 e5             	mov    %rsp,%rbp
    6f05:	89 7d fc             	mov    %edi,-0x4(%rbp)
    6f08:	89 75 f8             	mov    %esi,-0x8(%rbp)
    6f0b:	83 7d f8 00          	cmpl   $0x0,-0x8(%rbp)
    6f0f:	74 0f                	je     6f20 <safe_mod_func_uint32_t_u_u+0x23>
    6f11:	8b 45 fc             	mov    -0x4(%rbp),%eax
    6f14:	ba 00 00 00 00       	mov    $0x0,%edx
    6f19:	f7 75 f8             	divl   -0x8(%rbp)
    6f1c:	89 d0                	mov    %edx,%eax
    6f1e:	eb 03                	jmp    6f23 <safe_mod_func_uint32_t_u_u+0x26>
    6f20:	8b 45 fc             	mov    -0x4(%rbp),%eax
    6f23:	5d                   	pop    %rbp
    6f24:	c3                   	retq   

0000000000006f25 <safe_div_func_uint32_t_u_u>:
    6f25:	f3 0f 1e fa          	endbr64 
    6f29:	55                   	push   %rbp
    6f2a:	48 89 e5             	mov    %rsp,%rbp
    6f2d:	89 7d fc             	mov    %edi,-0x4(%rbp)
    6f30:	89 75 f8             	mov    %esi,-0x8(%rbp)
    6f33:	83 7d f8 00          	cmpl   $0x0,-0x8(%rbp)
    6f37:	74 0d                	je     6f46 <safe_div_func_uint32_t_u_u+0x21>
    6f39:	8b 45 fc             	mov    -0x4(%rbp),%eax
    6f3c:	ba 00 00 00 00       	mov    $0x0,%edx
    6f41:	f7 75 f8             	divl   -0x8(%rbp)
    6f44:	eb 03                	jmp    6f49 <safe_div_func_uint32_t_u_u+0x24>
    6f46:	8b 45 fc             	mov    -0x4(%rbp),%eax
    6f49:	5d                   	pop    %rbp
    6f4a:	c3                   	retq   

0000000000006f4b <safe_lshift_func_uint32_t_u_s>:
    6f4b:	f3 0f 1e fa          	endbr64 
    6f4f:	55                   	push   %rbp
    6f50:	48 89 e5             	mov    %rsp,%rbp
    6f53:	89 7d fc             	mov    %edi,-0x4(%rbp)
    6f56:	89 75 f8             	mov    %esi,-0x8(%rbp)
    6f59:	83 7d f8 00          	cmpl   $0x0,-0x8(%rbp)
    6f5d:	78 27                	js     6f86 <safe_lshift_func_uint32_t_u_s+0x3b>
    6f5f:	83 7d f8 1f          	cmpl   $0x1f,-0x8(%rbp)
    6f63:	7f 21                	jg     6f86 <safe_lshift_func_uint32_t_u_s+0x3b>
    6f65:	8b 45 f8             	mov    -0x8(%rbp),%eax
    6f68:	ba ff ff ff ff       	mov    $0xffffffff,%edx
    6f6d:	89 c1                	mov    %eax,%ecx
    6f6f:	d3 ea                	shr    %cl,%edx
    6f71:	89 d0                	mov    %edx,%eax
    6f73:	39 45 fc             	cmp    %eax,-0x4(%rbp)
    6f76:	77 0e                	ja     6f86 <safe_lshift_func_uint32_t_u_s+0x3b>
    6f78:	8b 45 f8             	mov    -0x8(%rbp),%eax
    6f7b:	8b 55 fc             	mov    -0x4(%rbp),%edx
    6f7e:	89 c1                	mov    %eax,%ecx
    6f80:	d3 e2                	shl    %cl,%edx
    6f82:	89 d0                	mov    %edx,%eax
    6f84:	eb 03                	jmp    6f89 <safe_lshift_func_uint32_t_u_s+0x3e>
    6f86:	8b 45 fc             	mov    -0x4(%rbp),%eax
    6f89:	5d                   	pop    %rbp
    6f8a:	c3                   	retq   

0000000000006f8b <safe_lshift_func_uint32_t_u_u>:
    6f8b:	f3 0f 1e fa          	endbr64 
    6f8f:	55                   	push   %rbp
    6f90:	48 89 e5             	mov    %rsp,%rbp
    6f93:	89 7d fc             	mov    %edi,-0x4(%rbp)
    6f96:	89 75 f8             	mov    %esi,-0x8(%rbp)
    6f99:	83 7d f8 1f          	cmpl   $0x1f,-0x8(%rbp)
    6f9d:	77 21                	ja     6fc0 <safe_lshift_func_uint32_t_u_u+0x35>
    6f9f:	8b 45 f8             	mov    -0x8(%rbp),%eax
    6fa2:	ba ff ff ff ff       	mov    $0xffffffff,%edx
    6fa7:	89 c1                	mov    %eax,%ecx
    6fa9:	d3 ea                	shr    %cl,%edx
    6fab:	89 d0                	mov    %edx,%eax
    6fad:	39 45 fc             	cmp    %eax,-0x4(%rbp)
    6fb0:	77 0e                	ja     6fc0 <safe_lshift_func_uint32_t_u_u+0x35>
    6fb2:	8b 45 f8             	mov    -0x8(%rbp),%eax
    6fb5:	8b 55 fc             	mov    -0x4(%rbp),%edx
    6fb8:	89 c1                	mov    %eax,%ecx
    6fba:	d3 e2                	shl    %cl,%edx
    6fbc:	89 d0                	mov    %edx,%eax
    6fbe:	eb 03                	jmp    6fc3 <safe_lshift_func_uint32_t_u_u+0x38>
    6fc0:	8b 45 fc             	mov    -0x4(%rbp),%eax
    6fc3:	5d                   	pop    %rbp
    6fc4:	c3                   	retq   

0000000000006fc5 <safe_rshift_func_uint32_t_u_s>:
    6fc5:	f3 0f 1e fa          	endbr64 
    6fc9:	55                   	push   %rbp
    6fca:	48 89 e5             	mov    %rsp,%rbp
    6fcd:	89 7d fc             	mov    %edi,-0x4(%rbp)
    6fd0:	89 75 f8             	mov    %esi,-0x8(%rbp)
    6fd3:	83 7d f8 00          	cmpl   $0x0,-0x8(%rbp)
    6fd7:	78 14                	js     6fed <safe_rshift_func_uint32_t_u_s+0x28>
    6fd9:	83 7d f8 1f          	cmpl   $0x1f,-0x8(%rbp)
    6fdd:	7f 0e                	jg     6fed <safe_rshift_func_uint32_t_u_s+0x28>
    6fdf:	8b 45 f8             	mov    -0x8(%rbp),%eax
    6fe2:	8b 55 fc             	mov    -0x4(%rbp),%edx
    6fe5:	89 c1                	mov    %eax,%ecx
    6fe7:	d3 ea                	shr    %cl,%edx
    6fe9:	89 d0                	mov    %edx,%eax
    6feb:	eb 03                	jmp    6ff0 <safe_rshift_func_uint32_t_u_s+0x2b>
    6fed:	8b 45 fc             	mov    -0x4(%rbp),%eax
    6ff0:	5d                   	pop    %rbp
    6ff1:	c3                   	retq   

0000000000006ff2 <safe_rshift_func_uint32_t_u_u>:
    6ff2:	f3 0f 1e fa          	endbr64 
    6ff6:	55                   	push   %rbp
    6ff7:	48 89 e5             	mov    %rsp,%rbp
    6ffa:	89 7d fc             	mov    %edi,-0x4(%rbp)
    6ffd:	89 75 f8             	mov    %esi,-0x8(%rbp)
    7000:	83 7d f8 1f          	cmpl   $0x1f,-0x8(%rbp)
    7004:	77 0e                	ja     7014 <safe_rshift_func_uint32_t_u_u+0x22>
    7006:	8b 45 f8             	mov    -0x8(%rbp),%eax
    7009:	8b 55 fc             	mov    -0x4(%rbp),%edx
    700c:	89 c1                	mov    %eax,%ecx
    700e:	d3 ea                	shr    %cl,%edx
    7010:	89 d0                	mov    %edx,%eax
    7012:	eb 03                	jmp    7017 <safe_rshift_func_uint32_t_u_u+0x25>
    7014:	8b 45 fc             	mov    -0x4(%rbp),%eax
    7017:	5d                   	pop    %rbp
    7018:	c3                   	retq   

0000000000007019 <safe_unary_minus_func_uint64_t_u>:
    7019:	f3 0f 1e fa          	endbr64 
    701d:	55                   	push   %rbp
    701e:	48 89 e5             	mov    %rsp,%rbp
    7021:	48 89 7d f8          	mov    %rdi,-0x8(%rbp)
    7025:	48 8b 45 f8          	mov    -0x8(%rbp),%rax
    7029:	48 f7 d8             	neg    %rax
    702c:	5d                   	pop    %rbp
    702d:	c3                   	retq   

000000000000702e <safe_add_func_uint64_t_u_u>:
    702e:	f3 0f 1e fa          	endbr64 
    7032:	55                   	push   %rbp
    7033:	48 89 e5             	mov    %rsp,%rbp
    7036:	48 89 7d f8          	mov    %rdi,-0x8(%rbp)
    703a:	48 89 75 f0          	mov    %rsi,-0x10(%rbp)
    703e:	48 8b 55 f8          	mov    -0x8(%rbp),%rdx
    7042:	48 8b 45 f0          	mov    -0x10(%rbp),%rax
    7046:	48 01 d0             	add    %rdx,%rax
    7049:	5d                   	pop    %rbp
    704a:	c3                   	retq   

000000000000704b <safe_sub_func_uint64_t_u_u>:
    704b:	f3 0f 1e fa          	endbr64 
    704f:	55                   	push   %rbp
    7050:	48 89 e5             	mov    %rsp,%rbp
    7053:	48 89 7d f8          	mov    %rdi,-0x8(%rbp)
    7057:	48 89 75 f0          	mov    %rsi,-0x10(%rbp)
    705b:	48 8b 45 f8          	mov    -0x8(%rbp),%rax
    705f:	48 2b 45 f0          	sub    -0x10(%rbp),%rax
    7063:	5d                   	pop    %rbp
    7064:	c3                   	retq   

0000000000007065 <safe_mul_func_uint64_t_u_u>:
    7065:	f3 0f 1e fa          	endbr64 
    7069:	55                   	push   %rbp
    706a:	48 89 e5             	mov    %rsp,%rbp
    706d:	48 89 7d f8          	mov    %rdi,-0x8(%rbp)
    7071:	48 89 75 f0          	mov    %rsi,-0x10(%rbp)
    7075:	48 8b 45 f8          	mov    -0x8(%rbp),%rax
    7079:	48 0f af 45 f0       	imul   -0x10(%rbp),%rax
    707e:	5d                   	pop    %rbp
    707f:	c3                   	retq   

0000000000007080 <safe_mod_func_uint64_t_u_u>:
    7080:	f3 0f 1e fa          	endbr64 
    7084:	55                   	push   %rbp
    7085:	48 89 e5             	mov    %rsp,%rbp
    7088:	48 89 7d f8          	mov    %rdi,-0x8(%rbp)
    708c:	48 89 75 f0          	mov    %rsi,-0x10(%rbp)
    7090:	48 83 7d f0 00       	cmpq   $0x0,-0x10(%rbp)
    7095:	74 12                	je     70a9 <safe_mod_func_uint64_t_u_u+0x29>
    7097:	48 8b 45 f8          	mov    -0x8(%rbp),%rax
    709b:	ba 00 00 00 00       	mov    $0x0,%edx
    70a0:	48 f7 75 f0          	divq   -0x10(%rbp)
    70a4:	48 89 d0             	mov    %rdx,%rax
    70a7:	eb 04                	jmp    70ad <safe_mod_func_uint64_t_u_u+0x2d>
    70a9:	48 8b 45 f8          	mov    -0x8(%rbp),%rax
    70ad:	5d                   	pop    %rbp
    70ae:	c3                   	retq   

00000000000070af <safe_div_func_uint64_t_u_u>:
    70af:	f3 0f 1e fa          	endbr64 
    70b3:	55                   	push   %rbp
    70b4:	48 89 e5             	mov    %rsp,%rbp
    70b7:	48 89 7d f8          	mov    %rdi,-0x8(%rbp)
    70bb:	48 89 75 f0          	mov    %rsi,-0x10(%rbp)
    70bf:	48 83 7d f0 00       	cmpq   $0x0,-0x10(%rbp)
    70c4:	74 0f                	je     70d5 <safe_div_func_uint64_t_u_u+0x26>
    70c6:	48 8b 45 f8          	mov    -0x8(%rbp),%rax
    70ca:	ba 00 00 00 00       	mov    $0x0,%edx
    70cf:	48 f7 75 f0          	divq   -0x10(%rbp)
    70d3:	eb 04                	jmp    70d9 <safe_div_func_uint64_t_u_u+0x2a>
    70d5:	48 8b 45 f8          	mov    -0x8(%rbp),%rax
    70d9:	5d                   	pop    %rbp
    70da:	c3                   	retq   

00000000000070db <safe_lshift_func_uint64_t_u_s>:
    70db:	f3 0f 1e fa          	endbr64 
    70df:	55                   	push   %rbp
    70e0:	48 89 e5             	mov    %rsp,%rbp
    70e3:	48 89 7d f8          	mov    %rdi,-0x8(%rbp)
    70e7:	89 75 f4             	mov    %esi,-0xc(%rbp)
    70ea:	83 7d f4 00          	cmpl   $0x0,-0xc(%rbp)
    70ee:	78 2f                	js     711f <safe_lshift_func_uint64_t_u_s+0x44>
    70f0:	83 7d f4 1f          	cmpl   $0x1f,-0xc(%rbp)
    70f4:	7f 29                	jg     711f <safe_lshift_func_uint64_t_u_s+0x44>
    70f6:	8b 45 f4             	mov    -0xc(%rbp),%eax
    70f9:	48 c7 c2 ff ff ff ff 	mov    $0xffffffffffffffff,%rdx
    7100:	89 c1                	mov    %eax,%ecx
    7102:	48 d3 ea             	shr    %cl,%rdx
    7105:	48 89 d0             	mov    %rdx,%rax
    7108:	48 39 45 f8          	cmp    %rax,-0x8(%rbp)
    710c:	77 11                	ja     711f <safe_lshift_func_uint64_t_u_s+0x44>
    710e:	8b 45 f4             	mov    -0xc(%rbp),%eax
    7111:	48 8b 55 f8          	mov    -0x8(%rbp),%rdx
    7115:	89 c1                	mov    %eax,%ecx
    7117:	48 d3 e2             	shl    %cl,%rdx
    711a:	48 89 d0             	mov    %rdx,%rax
    711d:	eb 04                	jmp    7123 <safe_lshift_func_uint64_t_u_s+0x48>
    711f:	48 8b 45 f8          	mov    -0x8(%rbp),%rax
    7123:	5d                   	pop    %rbp
    7124:	c3                   	retq   

0000000000007125 <safe_lshift_func_uint64_t_u_u>:
    7125:	f3 0f 1e fa          	endbr64 
    7129:	55                   	push   %rbp
    712a:	48 89 e5             	mov    %rsp,%rbp
    712d:	48 89 7d f8          	mov    %rdi,-0x8(%rbp)
    7131:	89 75 f4             	mov    %esi,-0xc(%rbp)
    7134:	83 7d f4 1f          	cmpl   $0x1f,-0xc(%rbp)
    7138:	77 29                	ja     7163 <safe_lshift_func_uint64_t_u_u+0x3e>
    713a:	8b 45 f4             	mov    -0xc(%rbp),%eax
    713d:	48 c7 c2 ff ff ff ff 	mov    $0xffffffffffffffff,%rdx
    7144:	89 c1                	mov    %eax,%ecx
    7146:	48 d3 ea             	shr    %cl,%rdx
    7149:	48 89 d0             	mov    %rdx,%rax
    714c:	48 39 45 f8          	cmp    %rax,-0x8(%rbp)
    7150:	77 11                	ja     7163 <safe_lshift_func_uint64_t_u_u+0x3e>
    7152:	8b 45 f4             	mov    -0xc(%rbp),%eax
    7155:	48 8b 55 f8          	mov    -0x8(%rbp),%rdx
    7159:	89 c1                	mov    %eax,%ecx
    715b:	48 d3 e2             	shl    %cl,%rdx
    715e:	48 89 d0             	mov    %rdx,%rax
    7161:	eb 04                	jmp    7167 <safe_lshift_func_uint64_t_u_u+0x42>
    7163:	48 8b 45 f8          	mov    -0x8(%rbp),%rax
    7167:	5d                   	pop    %rbp
    7168:	c3                   	retq   

0000000000007169 <safe_rshift_func_uint64_t_u_s>:
    7169:	f3 0f 1e fa          	endbr64 
    716d:	55                   	push   %rbp
    716e:	48 89 e5             	mov    %rsp,%rbp
    7171:	48 89 7d f8          	mov    %rdi,-0x8(%rbp)
    7175:	89 75 f4             	mov    %esi,-0xc(%rbp)
    7178:	83 7d f4 00          	cmpl   $0x0,-0xc(%rbp)
    717c:	78 17                	js     7195 <safe_rshift_func_uint64_t_u_s+0x2c>
    717e:	83 7d f4 1f          	cmpl   $0x1f,-0xc(%rbp)
    7182:	7f 11                	jg     7195 <safe_rshift_func_uint64_t_u_s+0x2c>
    7184:	8b 45 f4             	mov    -0xc(%rbp),%eax
    7187:	48 8b 55 f8          	mov    -0x8(%rbp),%rdx
    718b:	89 c1                	mov    %eax,%ecx
    718d:	48 d3 ea             	shr    %cl,%rdx
    7190:	48 89 d0             	mov    %rdx,%rax
    7193:	eb 04                	jmp    7199 <safe_rshift_func_uint64_t_u_s+0x30>
    7195:	48 8b 45 f8          	mov    -0x8(%rbp),%rax
    7199:	5d                   	pop    %rbp
    719a:	c3                   	retq   

000000000000719b <safe_rshift_func_uint64_t_u_u>:
    719b:	f3 0f 1e fa          	endbr64 
    719f:	55                   	push   %rbp
    71a0:	48 89 e5             	mov    %rsp,%rbp
    71a3:	48 89 7d f8          	mov    %rdi,-0x8(%rbp)
    71a7:	89 75 f4             	mov    %esi,-0xc(%rbp)
    71aa:	83 7d f4 1f          	cmpl   $0x1f,-0xc(%rbp)
    71ae:	77 11                	ja     71c1 <safe_rshift_func_uint64_t_u_u+0x26>
    71b0:	8b 45 f4             	mov    -0xc(%rbp),%eax
    71b3:	48 8b 55 f8          	mov    -0x8(%rbp),%rdx
    71b7:	89 c1                	mov    %eax,%ecx
    71b9:	48 d3 ea             	shr    %cl,%rdx
    71bc:	48 89 d0             	mov    %rdx,%rax
    71bf:	eb 04                	jmp    71c5 <safe_rshift_func_uint64_t_u_u+0x2a>
    71c1:	48 8b 45 f8          	mov    -0x8(%rbp),%rax
    71c5:	5d                   	pop    %rbp
    71c6:	c3                   	retq   

00000000000071c7 <safe_add_func_float_f_f>:
    71c7:	f3 0f 1e fa          	endbr64 
    71cb:	55                   	push   %rbp
    71cc:	48 89 e5             	mov    %rsp,%rbp
    71cf:	f3 0f 11 45 fc       	movss  %xmm0,-0x4(%rbp)
    71d4:	f3 0f 11 4d f8       	movss  %xmm1,-0x8(%rbp)
    71d9:	f3 0f 10 4d fc       	movss  -0x4(%rbp),%xmm1
    71de:	f3 0f 10 05 9e dd 00 	movss  0xdd9e(%rip),%xmm0        # 14f84 <g_1899+0x1f04>
    71e5:	00 
    71e6:	f3 0f 59 c8          	mulss  %xmm0,%xmm1
    71ea:	f3 0f 10 55 f8       	movss  -0x8(%rbp),%xmm2
    71ef:	f3 0f 10 05 8d dd 00 	movss  0xdd8d(%rip),%xmm0        # 14f84 <g_1899+0x1f04>
    71f6:	00 
    71f7:	f3 0f 59 c2          	mulss  %xmm2,%xmm0
    71fb:	f3 0f 58 c1          	addss  %xmm1,%xmm0
    71ff:	f3 0f 10 0d 89 dd 00 	movss  0xdd89(%rip),%xmm1        # 14f90 <g_1899+0x1f10>
    7206:	00 
    7207:	0f 54 c1             	andps  %xmm1,%xmm0
    720a:	0f 2f 05 8f dd 00 00 	comiss 0xdd8f(%rip),%xmm0        # 14fa0 <g_1899+0x1f20>
    7211:	76 07                	jbe    721a <safe_add_func_float_f_f+0x53>
    7213:	f3 0f 10 45 fc       	movss  -0x4(%rbp),%xmm0
    7218:	eb 0a                	jmp    7224 <safe_add_func_float_f_f+0x5d>
    721a:	f3 0f 10 45 fc       	movss  -0x4(%rbp),%xmm0
    721f:	f3 0f 58 45 f8       	addss  -0x8(%rbp),%xmm0
    7224:	5d                   	pop    %rbp
    7225:	c3                   	retq   

0000000000007226 <safe_sub_func_float_f_f>:
    7226:	f3 0f 1e fa          	endbr64 
    722a:	55                   	push   %rbp
    722b:	48 89 e5             	mov    %rsp,%rbp
    722e:	f3 0f 11 45 fc       	movss  %xmm0,-0x4(%rbp)
    7233:	f3 0f 11 4d f8       	movss  %xmm1,-0x8(%rbp)
    7238:	f3 0f 10 4d fc       	movss  -0x4(%rbp),%xmm1
    723d:	f3 0f 10 05 3f dd 00 	movss  0xdd3f(%rip),%xmm0        # 14f84 <g_1899+0x1f04>
    7244:	00 
    7245:	f3 0f 59 c1          	mulss  %xmm1,%xmm0
    7249:	f3 0f 10 55 f8       	movss  -0x8(%rbp),%xmm2
    724e:	f3 0f 10 0d 2e dd 00 	movss  0xdd2e(%rip),%xmm1        # 14f84 <g_1899+0x1f04>
    7255:	00 
    7256:	f3 0f 59 ca          	mulss  %xmm2,%xmm1
    725a:	f3 0f 5c c1          	subss  %xmm1,%xmm0
    725e:	f3 0f 10 0d 2a dd 00 	movss  0xdd2a(%rip),%xmm1        # 14f90 <g_1899+0x1f10>
    7265:	00 
    7266:	0f 54 c1             	andps  %xmm1,%xmm0
    7269:	0f 2f 05 30 dd 00 00 	comiss 0xdd30(%rip),%xmm0        # 14fa0 <g_1899+0x1f20>
    7270:	76 07                	jbe    7279 <safe_sub_func_float_f_f+0x53>
    7272:	f3 0f 10 45 fc       	movss  -0x4(%rbp),%xmm0
    7277:	eb 0a                	jmp    7283 <safe_sub_func_float_f_f+0x5d>
    7279:	f3 0f 10 45 fc       	movss  -0x4(%rbp),%xmm0
    727e:	f3 0f 5c 45 f8       	subss  -0x8(%rbp),%xmm0
    7283:	5d                   	pop    %rbp
    7284:	c3                   	retq   

0000000000007285 <safe_mul_func_float_f_f>:
    7285:	f3 0f 1e fa          	endbr64 
    7289:	55                   	push   %rbp
    728a:	48 89 e5             	mov    %rsp,%rbp
    728d:	f3 0f 11 45 fc       	movss  %xmm0,-0x4(%rbp)
    7292:	f3 0f 11 4d f8       	movss  %xmm1,-0x8(%rbp)
    7297:	f3 0f 10 4d fc       	movss  -0x4(%rbp),%xmm1
    729c:	f3 0f 10 05 00 dd 00 	movss  0xdd00(%rip),%xmm0        # 14fa4 <g_1899+0x1f24>
    72a3:	00 
    72a4:	f3 0f 59 c8          	mulss  %xmm0,%xmm1
    72a8:	f3 0f 10 55 f8       	movss  -0x8(%rbp),%xmm2
    72ad:	f3 0f 10 05 f3 dc 00 	movss  0xdcf3(%rip),%xmm0        # 14fa8 <g_1899+0x1f28>
    72b4:	00 
    72b5:	f3 0f 59 c2          	mulss  %xmm2,%xmm0
    72b9:	f3 0f 59 c1          	mulss  %xmm1,%xmm0
    72bd:	f3 0f 10 0d cb dc 00 	movss  0xdccb(%rip),%xmm1        # 14f90 <g_1899+0x1f10>
    72c4:	00 
    72c5:	0f 54 c1             	andps  %xmm1,%xmm0
    72c8:	0f 2f 05 dd dc 00 00 	comiss 0xdcdd(%rip),%xmm0        # 14fac <g_1899+0x1f2c>
    72cf:	76 07                	jbe    72d8 <safe_mul_func_float_f_f+0x53>
    72d1:	f3 0f 10 45 fc       	movss  -0x4(%rbp),%xmm0
    72d6:	eb 0a                	jmp    72e2 <safe_mul_func_float_f_f+0x5d>
    72d8:	f3 0f 10 45 fc       	movss  -0x4(%rbp),%xmm0
    72dd:	f3 0f 59 45 f8       	mulss  -0x8(%rbp),%xmm0
    72e2:	5d                   	pop    %rbp
    72e3:	c3                   	retq   

00000000000072e4 <safe_div_func_float_f_f>:
    72e4:	f3 0f 1e fa          	endbr64 
    72e8:	55                   	push   %rbp
    72e9:	48 89 e5             	mov    %rsp,%rbp
    72ec:	f3 0f 11 45 fc       	movss  %xmm0,-0x4(%rbp)
    72f1:	f3 0f 11 4d f8       	movss  %xmm1,-0x8(%rbp)
    72f6:	f3 0f 10 45 f8       	movss  -0x8(%rbp),%xmm0
    72fb:	f3 0f 10 0d 8d dc 00 	movss  0xdc8d(%rip),%xmm1        # 14f90 <g_1899+0x1f10>
    7302:	00 
    7303:	0f 54 c8             	andps  %xmm0,%xmm1
    7306:	f3 0f 10 05 a2 dc 00 	movss  0xdca2(%rip),%xmm0        # 14fb0 <g_1899+0x1f30>
    730d:	00 
    730e:	0f 2f c1             	comiss %xmm1,%xmm0
    7311:	0f 97 c0             	seta   %al
    7314:	83 f0 01             	xor    $0x1,%eax
    7317:	84 c0                	test   %al,%al
    7319:	75 56                	jne    7371 <safe_div_func_float_f_f+0x8d>
    731b:	66 0f ef c0          	pxor   %xmm0,%xmm0
    731f:	0f 2e 45 f8          	ucomiss -0x8(%rbp),%xmm0
    7323:	7a 0a                	jp     732f <safe_div_func_float_f_f+0x4b>
    7325:	66 0f ef c0          	pxor   %xmm0,%xmm0
    7329:	0f 2e 45 f8          	ucomiss -0x8(%rbp),%xmm0
    732d:	74 4e                	je     737d <safe_div_func_float_f_f+0x99>
    732f:	f3 0f 10 4d fc       	movss  -0x4(%rbp),%xmm1
    7334:	f3 0f 10 05 78 dc 00 	movss  0xdc78(%rip),%xmm0        # 14fb4 <g_1899+0x1f34>
    733b:	00 
    733c:	f3 0f 59 c1          	mulss  %xmm1,%xmm0
    7340:	f3 0f 10 55 f8       	movss  -0x8(%rbp),%xmm2
    7345:	f3 0f 10 0d 6b dc 00 	movss  0xdc6b(%rip),%xmm1        # 14fb8 <g_1899+0x1f38>
    734c:	00 
    734d:	f3 0f 59 ca          	mulss  %xmm2,%xmm1
    7351:	f3 0f 5e c1          	divss  %xmm1,%xmm0
    7355:	f3 0f 10 0d 33 dc 00 	movss  0xdc33(%rip),%xmm1        # 14f90 <g_1899+0x1f10>
    735c:	00 
    735d:	0f 54 c1             	andps  %xmm1,%xmm0
    7360:	0f 2f 05 55 dc 00 00 	comiss 0xdc55(%rip),%xmm0        # 14fbc <g_1899+0x1f3c>
    7367:	0f 97 c0             	seta   %al
    736a:	83 f0 01             	xor    $0x1,%eax
    736d:	84 c0                	test   %al,%al
    736f:	74 0c                	je     737d <safe_div_func_float_f_f+0x99>
    7371:	f3 0f 10 45 fc       	movss  -0x4(%rbp),%xmm0
    7376:	f3 0f 5e 45 f8       	divss  -0x8(%rbp),%xmm0
    737b:	eb 05                	jmp    7382 <safe_div_func_float_f_f+0x9e>
    737d:	f3 0f 10 45 fc       	movss  -0x4(%rbp),%xmm0
    7382:	5d                   	pop    %rbp
    7383:	c3                   	retq   

0000000000007384 <safe_add_func_double_f_f>:
    7384:	f3 0f 1e fa          	endbr64 
    7388:	55                   	push   %rbp
    7389:	48 89 e5             	mov    %rsp,%rbp
    738c:	f2 0f 11 45 f8       	movsd  %xmm0,-0x8(%rbp)
    7391:	f2 0f 11 4d f0       	movsd  %xmm1,-0x10(%rbp)
    7396:	f2 0f 10 4d f8       	movsd  -0x8(%rbp),%xmm1
    739b:	f2 0f 10 05 1d dc 00 	movsd  0xdc1d(%rip),%xmm0        # 14fc0 <g_1899+0x1f40>
    73a2:	00 
    73a3:	f2 0f 59 c8          	mulsd  %xmm0,%xmm1
    73a7:	f2 0f 10 55 f0       	movsd  -0x10(%rbp),%xmm2
    73ac:	f2 0f 10 05 0c dc 00 	movsd  0xdc0c(%rip),%xmm0        # 14fc0 <g_1899+0x1f40>
    73b3:	00 
    73b4:	f2 0f 59 c2          	mulsd  %xmm2,%xmm0
    73b8:	f2 0f 58 c1          	addsd  %xmm1,%xmm0
    73bc:	f3 0f 7e 0d 0c dc 00 	movq   0xdc0c(%rip),%xmm1        # 14fd0 <g_1899+0x1f50>
    73c3:	00 
    73c4:	66 0f 54 c1          	andpd  %xmm1,%xmm0
    73c8:	66 0f 2f 05 10 dc 00 	comisd 0xdc10(%rip),%xmm0        # 14fe0 <g_1899+0x1f60>
    73cf:	00 
    73d0:	76 07                	jbe    73d9 <safe_add_func_double_f_f+0x55>
    73d2:	f2 0f 10 45 f8       	movsd  -0x8(%rbp),%xmm0
    73d7:	eb 0a                	jmp    73e3 <safe_add_func_double_f_f+0x5f>
    73d9:	f2 0f 10 45 f8       	movsd  -0x8(%rbp),%xmm0
    73de:	f2 0f 58 45 f0       	addsd  -0x10(%rbp),%xmm0
    73e3:	5d                   	pop    %rbp
    73e4:	c3                   	retq   

00000000000073e5 <safe_sub_func_double_f_f>:
    73e5:	f3 0f 1e fa          	endbr64 
    73e9:	55                   	push   %rbp
    73ea:	48 89 e5             	mov    %rsp,%rbp
    73ed:	f2 0f 11 45 f8       	movsd  %xmm0,-0x8(%rbp)
    73f2:	f2 0f 11 4d f0       	movsd  %xmm1,-0x10(%rbp)
    73f7:	f2 0f 10 4d f8       	movsd  -0x8(%rbp),%xmm1
    73fc:	f2 0f 10 05 bc db 00 	movsd  0xdbbc(%rip),%xmm0        # 14fc0 <g_1899+0x1f40>
    7403:	00 
    7404:	f2 0f 59 c1          	mulsd  %xmm1,%xmm0
    7408:	f2 0f 10 55 f0       	movsd  -0x10(%rbp),%xmm2
    740d:	f2 0f 10 0d ab db 00 	movsd  0xdbab(%rip),%xmm1        # 14fc0 <g_1899+0x1f40>
    7414:	00 
    7415:	f2 0f 59 ca          	mulsd  %xmm2,%xmm1
    7419:	f2 0f 5c c1          	subsd  %xmm1,%xmm0
    741d:	f3 0f 7e 0d ab db 00 	movq   0xdbab(%rip),%xmm1        # 14fd0 <g_1899+0x1f50>
    7424:	00 
    7425:	66 0f 54 c1          	andpd  %xmm1,%xmm0
    7429:	66 0f 2f 05 af db 00 	comisd 0xdbaf(%rip),%xmm0        # 14fe0 <g_1899+0x1f60>
    7430:	00 
    7431:	76 07                	jbe    743a <safe_sub_func_double_f_f+0x55>
    7433:	f2 0f 10 45 f8       	movsd  -0x8(%rbp),%xmm0
    7438:	eb 0a                	jmp    7444 <safe_sub_func_double_f_f+0x5f>
    743a:	f2 0f 10 45 f8       	movsd  -0x8(%rbp),%xmm0
    743f:	f2 0f 5c 45 f0       	subsd  -0x10(%rbp),%xmm0
    7444:	5d                   	pop    %rbp
    7445:	c3                   	retq   

0000000000007446 <safe_mul_func_double_f_f>:
    7446:	f3 0f 1e fa          	endbr64 
    744a:	55                   	push   %rbp
    744b:	48 89 e5             	mov    %rsp,%rbp
    744e:	f2 0f 11 45 f8       	movsd  %xmm0,-0x8(%rbp)
    7453:	f2 0f 11 4d f0       	movsd  %xmm1,-0x10(%rbp)
    7458:	f2 0f 10 4d f8       	movsd  -0x8(%rbp),%xmm1
    745d:	f2 0f 10 05 83 db 00 	movsd  0xdb83(%rip),%xmm0        # 14fe8 <g_1899+0x1f68>
    7464:	00 
    7465:	f2 0f 59 c8          	mulsd  %xmm0,%xmm1
    7469:	f2 0f 10 55 f0       	movsd  -0x10(%rbp),%xmm2
    746e:	f2 0f 10 05 7a db 00 	movsd  0xdb7a(%rip),%xmm0        # 14ff0 <g_1899+0x1f70>
    7475:	00 
    7476:	f2 0f 59 c2          	mulsd  %xmm2,%xmm0
    747a:	f2 0f 59 c1          	mulsd  %xmm1,%xmm0
    747e:	f3 0f 7e 0d 4a db 00 	movq   0xdb4a(%rip),%xmm1        # 14fd0 <g_1899+0x1f50>
    7485:	00 
    7486:	66 0f 54 c1          	andpd  %xmm1,%xmm0
    748a:	66 0f 2f 05 66 db 00 	comisd 0xdb66(%rip),%xmm0        # 14ff8 <g_1899+0x1f78>
    7491:	00 
    7492:	76 07                	jbe    749b <safe_mul_func_double_f_f+0x55>
    7494:	f2 0f 10 45 f8       	movsd  -0x8(%rbp),%xmm0
    7499:	eb 0a                	jmp    74a5 <safe_mul_func_double_f_f+0x5f>
    749b:	f2 0f 10 45 f8       	movsd  -0x8(%rbp),%xmm0
    74a0:	f2 0f 59 45 f0       	mulsd  -0x10(%rbp),%xmm0
    74a5:	5d                   	pop    %rbp
    74a6:	c3                   	retq   

00000000000074a7 <safe_div_func_double_f_f>:
    74a7:	f3 0f 1e fa          	endbr64 
    74ab:	55                   	push   %rbp
    74ac:	48 89 e5             	mov    %rsp,%rbp
    74af:	f2 0f 11 45 f8       	movsd  %xmm0,-0x8(%rbp)
    74b4:	f2 0f 11 4d f0       	movsd  %xmm1,-0x10(%rbp)
    74b9:	f2 0f 10 45 f0       	movsd  -0x10(%rbp),%xmm0
    74be:	f3 0f 7e 0d 0a db 00 	movq   0xdb0a(%rip),%xmm1        # 14fd0 <g_1899+0x1f50>
    74c5:	00 
    74c6:	66 0f 54 c8          	andpd  %xmm0,%xmm1
    74ca:	f2 0f 10 05 2e db 00 	movsd  0xdb2e(%rip),%xmm0        # 15000 <g_1899+0x1f80>
    74d1:	00 
    74d2:	66 0f 2f c1          	comisd %xmm1,%xmm0
    74d6:	0f 97 c0             	seta   %al
    74d9:	83 f0 01             	xor    $0x1,%eax
    74dc:	84 c0                	test   %al,%al
    74de:	75 5a                	jne    753a <safe_div_func_double_f_f+0x93>
    74e0:	66 0f ef c0          	pxor   %xmm0,%xmm0
    74e4:	66 0f 2e 45 f0       	ucomisd -0x10(%rbp),%xmm0
    74e9:	7a 0b                	jp     74f6 <safe_div_func_double_f_f+0x4f>
    74eb:	66 0f ef c0          	pxor   %xmm0,%xmm0
    74ef:	66 0f 2e 45 f0       	ucomisd -0x10(%rbp),%xmm0
    74f4:	74 50                	je     7546 <safe_div_func_double_f_f+0x9f>
    74f6:	f2 0f 10 4d f8       	movsd  -0x8(%rbp),%xmm1
    74fb:	f2 0f 10 05 05 db 00 	movsd  0xdb05(%rip),%xmm0        # 15008 <g_1899+0x1f88>
    7502:	00 
    7503:	f2 0f 59 c1          	mulsd  %xmm1,%xmm0
    7507:	f2 0f 10 55 f0       	movsd  -0x10(%rbp),%xmm2
    750c:	f2 0f 10 0d fc da 00 	movsd  0xdafc(%rip),%xmm1        # 15010 <g_1899+0x1f90>
    7513:	00 
    7514:	f2 0f 59 ca          	mulsd  %xmm2,%xmm1
    7518:	f2 0f 5e c1          	divsd  %xmm1,%xmm0
    751c:	f3 0f 7e 0d ac da 00 	movq   0xdaac(%rip),%xmm1        # 14fd0 <g_1899+0x1f50>
    7523:	00 
    7524:	66 0f 54 c1          	andpd  %xmm1,%xmm0
    7528:	66 0f 2f 05 e8 da 00 	comisd 0xdae8(%rip),%xmm0        # 15018 <g_1899+0x1f98>
    752f:	00 
    7530:	0f 97 c0             	seta   %al
    7533:	83 f0 01             	xor    $0x1,%eax
    7536:	84 c0                	test   %al,%al
    7538:	74 0c                	je     7546 <safe_div_func_double_f_f+0x9f>
    753a:	f2 0f 10 45 f8       	movsd  -0x8(%rbp),%xmm0
    753f:	f2 0f 5e 45 f0       	divsd  -0x10(%rbp),%xmm0
    7544:	eb 05                	jmp    754b <safe_div_func_double_f_f+0xa4>
    7546:	f2 0f 10 45 f8       	movsd  -0x8(%rbp),%xmm0
    754b:	5d                   	pop    %rbp
    754c:	c3                   	retq   

000000000000754d <safe_convert_func_float_to_int32_t>:
    754d:	f3 0f 1e fa          	endbr64 
    7551:	55                   	push   %rbp
    7552:	48 89 e5             	mov    %rsp,%rbp
    7555:	f3 0f 11 45 fc       	movss  %xmm0,-0x4(%rbp)
    755a:	f3 0f 10 05 be da 00 	movss  0xdabe(%rip),%xmm0        # 15020 <g_1899+0x1fa0>
    7561:	00 
    7562:	0f 2f 45 fc          	comiss -0x4(%rbp),%xmm0
    7566:	0f 93 c0             	setae  %al
    7569:	83 f0 01             	xor    $0x1,%eax
    756c:	84 c0                	test   %al,%al
    756e:	74 21                	je     7591 <safe_convert_func_float_to_int32_t+0x44>
    7570:	f3 0f 10 45 fc       	movss  -0x4(%rbp),%xmm0
    7575:	0f 2f 05 a8 da 00 00 	comiss 0xdaa8(%rip),%xmm0        # 15024 <g_1899+0x1fa4>
    757c:	0f 93 c0             	setae  %al
    757f:	83 f0 01             	xor    $0x1,%eax
    7582:	84 c0                	test   %al,%al
    7584:	74 0b                	je     7591 <safe_convert_func_float_to_int32_t+0x44>
    7586:	f3 0f 10 45 fc       	movss  -0x4(%rbp),%xmm0
    758b:	f3 0f 2c c0          	cvttss2si %xmm0,%eax
    758f:	eb 05                	jmp    7596 <safe_convert_func_float_to_int32_t+0x49>
    7591:	b8 ff ff ff 7f       	mov    $0x7fffffff,%eax
    7596:	5d                   	pop    %rbp
    7597:	c3                   	retq   

0000000000007598 <crc32_gentab>:
    7598:	f3 0f 1e fa          	endbr64 
    759c:	55                   	push   %rbp
    759d:	48 89 e5             	mov    %rsp,%rbp
    75a0:	c7 45 fc 20 83 b8 ed 	movl   $0xedb88320,-0x4(%rbp)
    75a7:	c7 45 f4 00 00 00 00 	movl   $0x0,-0xc(%rbp)
    75ae:	eb 51                	jmp    7601 <crc32_gentab+0x69>
    75b0:	8b 45 f4             	mov    -0xc(%rbp),%eax
    75b3:	89 45 f0             	mov    %eax,-0x10(%rbp)
    75b6:	c7 45 f8 08 00 00 00 	movl   $0x8,-0x8(%rbp)
    75bd:	eb 1e                	jmp    75dd <crc32_gentab+0x45>
    75bf:	8b 45 f0             	mov    -0x10(%rbp),%eax
    75c2:	83 e0 01             	and    $0x1,%eax
    75c5:	85 c0                	test   %eax,%eax
    75c7:	74 0d                	je     75d6 <crc32_gentab+0x3e>
    75c9:	8b 45 f0             	mov    -0x10(%rbp),%eax
    75cc:	d1 e8                	shr    %eax
    75ce:	33 45 fc             	xor    -0x4(%rbp),%eax
    75d1:	89 45 f0             	mov    %eax,-0x10(%rbp)
    75d4:	eb 03                	jmp    75d9 <crc32_gentab+0x41>
    75d6:	d1 6d f0             	shrl   -0x10(%rbp)
    75d9:	83 6d f8 01          	subl   $0x1,-0x8(%rbp)
    75dd:	83 7d f8 00          	cmpl   $0x0,-0x8(%rbp)
    75e1:	7f dc                	jg     75bf <crc32_gentab+0x27>
    75e3:	8b 45 f4             	mov    -0xc(%rbp),%eax
    75e6:	48 98                	cltq   
    75e8:	48 8d 0c 85 00 00 00 	lea    0x0(,%rax,4),%rcx
    75ef:	00 
    75f0:	48 8d 15 29 36 01 00 	lea    0x13629(%rip),%rdx        # 1ac20 <crc32_tab>
    75f7:	8b 45 f0             	mov    -0x10(%rbp),%eax
    75fa:	89 04 11             	mov    %eax,(%rcx,%rdx,1)
    75fd:	83 45 f4 01          	addl   $0x1,-0xc(%rbp)
    7601:	81 7d f4 ff 00 00 00 	cmpl   $0xff,-0xc(%rbp)
    7608:	7e a6                	jle    75b0 <crc32_gentab+0x18>
    760a:	90                   	nop
    760b:	90                   	nop
    760c:	5d                   	pop    %rbp
    760d:	c3                   	retq   

000000000000760e <crc32_byte>:
    760e:	f3 0f 1e fa          	endbr64 
    7612:	55                   	push   %rbp
    7613:	48 89 e5             	mov    %rsp,%rbp
    7616:	89 f8                	mov    %edi,%eax
    7618:	88 45 fc             	mov    %al,-0x4(%rbp)
    761b:	8b 05 ff 09 01 00    	mov    0x109ff(%rip),%eax        # 18020 <crc32_context>
    7621:	c1 e8 08             	shr    $0x8,%eax
    7624:	89 c1                	mov    %eax,%ecx
    7626:	0f b6 55 fc          	movzbl -0x4(%rbp),%edx
    762a:	8b 05 f0 09 01 00    	mov    0x109f0(%rip),%eax        # 18020 <crc32_context>
    7630:	31 d0                	xor    %edx,%eax
    7632:	0f b6 c0             	movzbl %al,%eax
    7635:	89 c0                	mov    %eax,%eax
    7637:	48 8d 14 85 00 00 00 	lea    0x0(,%rax,4),%rdx
    763e:	00 
    763f:	48 8d 05 da 35 01 00 	lea    0x135da(%rip),%rax        # 1ac20 <crc32_tab>
    7646:	8b 04 02             	mov    (%rdx,%rax,1),%eax
    7649:	31 c8                	xor    %ecx,%eax
    764b:	89 05 cf 09 01 00    	mov    %eax,0x109cf(%rip)        # 18020 <crc32_context>
    7651:	90                   	nop
    7652:	5d                   	pop    %rbp
    7653:	c3                   	retq   

0000000000007654 <crc32_8bytes>:
    7654:	f3 0f 1e fa          	endbr64 
    7658:	55                   	push   %rbp
    7659:	48 89 e5             	mov    %rsp,%rbp
    765c:	48 83 ec 08          	sub    $0x8,%rsp
    7660:	48 89 7d f8          	mov    %rdi,-0x8(%rbp)
    7664:	48 8b 45 f8          	mov    -0x8(%rbp),%rax
    7668:	0f b6 c0             	movzbl %al,%eax
    766b:	89 c7                	mov    %eax,%edi
    766d:	e8 9c ff ff ff       	callq  760e <crc32_byte>
    7672:	48 8b 45 f8          	mov    -0x8(%rbp),%rax
    7676:	48 c1 e8 08          	shr    $0x8,%rax
    767a:	0f b6 c0             	movzbl %al,%eax
    767d:	89 c7                	mov    %eax,%edi
    767f:	e8 8a ff ff ff       	callq  760e <crc32_byte>
    7684:	48 8b 45 f8          	mov    -0x8(%rbp),%rax
    7688:	48 c1 e8 10          	shr    $0x10,%rax
    768c:	0f b6 c0             	movzbl %al,%eax
    768f:	89 c7                	mov    %eax,%edi
    7691:	e8 78 ff ff ff       	callq  760e <crc32_byte>
    7696:	48 8b 45 f8          	mov    -0x8(%rbp),%rax
    769a:	48 c1 e8 18          	shr    $0x18,%rax
    769e:	0f b6 c0             	movzbl %al,%eax
    76a1:	89 c7                	mov    %eax,%edi
    76a3:	e8 66 ff ff ff       	callq  760e <crc32_byte>
    76a8:	48 8b 45 f8          	mov    -0x8(%rbp),%rax
    76ac:	48 c1 e8 20          	shr    $0x20,%rax
    76b0:	0f b6 c0             	movzbl %al,%eax
    76b3:	89 c7                	mov    %eax,%edi
    76b5:	e8 54 ff ff ff       	callq  760e <crc32_byte>
    76ba:	48 8b 45 f8          	mov    -0x8(%rbp),%rax
    76be:	48 c1 e8 28          	shr    $0x28,%rax
    76c2:	0f b6 c0             	movzbl %al,%eax
    76c5:	89 c7                	mov    %eax,%edi
    76c7:	e8 42 ff ff ff       	callq  760e <crc32_byte>
    76cc:	48 8b 45 f8          	mov    -0x8(%rbp),%rax
    76d0:	48 c1 e8 30          	shr    $0x30,%rax
    76d4:	0f b6 c0             	movzbl %al,%eax
    76d7:	89 c7                	mov    %eax,%edi
    76d9:	e8 30 ff ff ff       	callq  760e <crc32_byte>
    76de:	48 8b 45 f8          	mov    -0x8(%rbp),%rax
    76e2:	48 c1 e8 38          	shr    $0x38,%rax
    76e6:	0f b6 c0             	movzbl %al,%eax
    76e9:	89 c7                	mov    %eax,%edi
    76eb:	e8 1e ff ff ff       	callq  760e <crc32_byte>
    76f0:	90                   	nop
    76f1:	c9                   	leaveq 
    76f2:	c3                   	retq   

00000000000076f3 <transparent_crc>:
    76f3:	f3 0f 1e fa          	endbr64 
    76f7:	55                   	push   %rbp
    76f8:	48 89 e5             	mov    %rsp,%rbp
    76fb:	48 83 ec 20          	sub    $0x20,%rsp
    76ff:	48 89 7d f8          	mov    %rdi,-0x8(%rbp)
    7703:	48 89 75 f0          	mov    %rsi,-0x10(%rbp)
    7707:	89 55 ec             	mov    %edx,-0x14(%rbp)
    770a:	48 8b 45 f8          	mov    -0x8(%rbp),%rax
    770e:	48 89 c7             	mov    %rax,%rdi
    7711:	e8 3e ff ff ff       	callq  7654 <crc32_8bytes>
    7716:	83 7d ec 00          	cmpl   $0x0,-0x14(%rbp)
    771a:	74 22                	je     773e <transparent_crc+0x4b>
    771c:	8b 05 fe 08 01 00    	mov    0x108fe(%rip),%eax        # 18020 <crc32_context>
    7722:	f7 d0                	not    %eax
    7724:	89 c2                	mov    %eax,%edx
    7726:	48 8b 45 f0          	mov    -0x10(%rbp),%rax
    772a:	48 89 c6             	mov    %rax,%rsi
    772d:	48 8d 3d fc b8 00 00 	lea    0xb8fc(%rip),%rdi        # 13030 <_IO_stdin_used+0x30>
    7734:	b8 00 00 00 00       	mov    $0x0,%eax
    7739:	e8 42 e9 ff ff       	callq  6080 <printf@plt>
    773e:	90                   	nop
    773f:	c9                   	leaveq 
    7740:	c3                   	retq   

0000000000007741 <transparent_crc_bytes>:
    7741:	f3 0f 1e fa          	endbr64 
    7745:	55                   	push   %rbp
    7746:	48 89 e5             	mov    %rsp,%rbp
    7749:	48 83 ec 30          	sub    $0x30,%rsp
    774d:	48 89 7d e8          	mov    %rdi,-0x18(%rbp)
    7751:	89 75 e4             	mov    %esi,-0x1c(%rbp)
    7754:	48 89 55 d8          	mov    %rdx,-0x28(%rbp)
    7758:	89 4d e0             	mov    %ecx,-0x20(%rbp)
    775b:	c7 45 fc 00 00 00 00 	movl   $0x0,-0x4(%rbp)
    7762:	eb 1e                	jmp    7782 <transparent_crc_bytes+0x41>
    7764:	8b 45 fc             	mov    -0x4(%rbp),%eax
    7767:	48 63 d0             	movslq %eax,%rdx
    776a:	48 8b 45 e8          	mov    -0x18(%rbp),%rax
    776e:	48 01 d0             	add    %rdx,%rax
    7771:	0f b6 00             	movzbl (%rax),%eax
    7774:	0f b6 c0             	movzbl %al,%eax
    7777:	89 c7                	mov    %eax,%edi
    7779:	e8 90 fe ff ff       	callq  760e <crc32_byte>
    777e:	83 45 fc 01          	addl   $0x1,-0x4(%rbp)
    7782:	8b 45 fc             	mov    -0x4(%rbp),%eax
    7785:	3b 45 e4             	cmp    -0x1c(%rbp),%eax
    7788:	7c da                	jl     7764 <transparent_crc_bytes+0x23>
    778a:	83 7d e0 00          	cmpl   $0x0,-0x20(%rbp)
    778e:	74 22                	je     77b2 <transparent_crc_bytes+0x71>
    7790:	8b 05 8a 08 01 00    	mov    0x1088a(%rip),%eax        # 18020 <crc32_context>
    7796:	f7 d0                	not    %eax
    7798:	89 c2                	mov    %eax,%edx
    779a:	48 8b 45 d8          	mov    -0x28(%rbp),%rax
    779e:	48 89 c6             	mov    %rax,%rsi
    77a1:	48 8d 3d 88 b8 00 00 	lea    0xb888(%rip),%rdi        # 13030 <_IO_stdin_used+0x30>
    77a8:	b8 00 00 00 00       	mov    $0x0,%eax
    77ad:	e8 ce e8 ff ff       	callq  6080 <printf@plt>
    77b2:	90                   	nop
    77b3:	c9                   	leaveq 
    77b4:	c3                   	retq   

00000000000077b5 <func_1>:
    77b5:	f3 0f 1e fa          	endbr64 
    77b9:	55                   	push   %rbp
    77ba:	48 89 e5             	mov    %rsp,%rbp
    77bd:	41 57                	push   %r15
    77bf:	41 56                	push   %r14
    77c1:	41 55                	push   %r13
    77c3:	41 54                	push   %r12
    77c5:	53                   	push   %rbx
    77c6:	48 81 ec c8 0f 00 00 	sub    $0xfc8,%rsp
    77cd:	64 48 8b 04 25 28 00 	mov    %fs:0x28,%rax
    77d4:	00 00 
    77d6:	48 89 45 c8          	mov    %rax,-0x38(%rbp)
    77da:	31 c0                	xor    %eax,%eax
    77dc:	48 b8 0b 32 10 7e 43 	movabs $0x27db40437e10320b,%rax
    77e3:	40 db 27 
    77e6:	48 89 85 c0 f0 ff ff 	mov    %rax,-0xf40(%rbp)
    77ed:	c7 85 50 f0 ff ff 76 	movl   $0x89ce376,-0xfb0(%rbp)
    77f4:	e3 9c 08 
    77f7:	c7 85 64 f0 ff ff dc 	movl   $0xc007dfdc,-0xf9c(%rbp)
    77fe:	df 07 c0 
    7801:	c7 85 68 f0 ff ff 37 	movl   $0x988b0037,-0xf98(%rbp)
    7808:	00 8b 98 
    780b:	48 c7 85 e8 f0 ff ff 	movq   $0xfffffffffffffffe,-0xf18(%rbp)
    7812:	fe ff ff ff 
    7816:	c7 85 6c f0 ff ff 08 	movl   $0x8,-0xf94(%rbp)
    781d:	00 00 00 
    7820:	c7 85 54 f0 ff ff 30 	movl   $0x871ac530,-0xfac(%rbp)
    7827:	c5 1a 87 
    782a:	c6 85 3e f0 ff ff 7c 	movb   $0x7c,-0xfc2(%rbp)
    7831:	c7 85 58 f0 ff ff 08 	movl   $0x8,-0xfa8(%rbp)
    7838:	00 00 00 
    783b:	c7 85 5c f0 ff ff a2 	movl   $0x52028ca2,-0xfa4(%rbp)
    7842:	8c 02 52 
    7845:	48 8d 05 7c 14 01 00 	lea    0x1147c(%rip),%rax        # 18cc8 <g_1369>
    784c:	48 89 85 c8 f0 ff ff 	mov    %rax,-0xf38(%rbp)
    7853:	48 8d 85 c8 f0 ff ff 	lea    -0xf38(%rbp),%rax
    785a:	48 89 85 d0 f0 ff ff 	mov    %rax,-0xf30(%rbp)
    7861:	48 8d 85 d0 f0 ff ff 	lea    -0xf30(%rbp),%rax
    7868:	48 89 85 f0 f0 ff ff 	mov    %rax,-0xf10(%rbp)
    786f:	c7 85 7c f0 ff ff 16 	movl   $0xc9658516,-0xf84(%rbp)
    7876:	85 65 c9 
    7879:	48 8d 05 b8 17 01 00 	lea    0x117b8(%rip),%rax        # 19038 <g_1575>
    7880:	48 89 85 d8 f0 ff ff 	mov    %rax,-0xf28(%rbp)
    7887:	48 8d 85 d8 f0 ff ff 	lea    -0xf28(%rbp),%rax
    788e:	48 89 85 f8 f0 ff ff 	mov    %rax,-0xf08(%rbp)
    7895:	48 8d 05 94 32 01 00 	lea    0x13294(%rip),%rax        # 1ab30 <g_1588>
    789c:	48 89 85 a0 f2 ff ff 	mov    %rax,-0xd60(%rbp)
    78a3:	48 8d 05 86 32 01 00 	lea    0x13286(%rip),%rax        # 1ab30 <g_1588>
    78aa:	48 89 85 a8 f2 ff ff 	mov    %rax,-0xd58(%rbp)
    78b1:	48 8d 05 78 32 01 00 	lea    0x13278(%rip),%rax        # 1ab30 <g_1588>
    78b8:	48 89 85 b0 f2 ff ff 	mov    %rax,-0xd50(%rbp)
    78bf:	48 8d 05 6a 32 01 00 	lea    0x1326a(%rip),%rax        # 1ab30 <g_1588>
    78c6:	48 89 85 b8 f2 ff ff 	mov    %rax,-0xd48(%rbp)
    78cd:	48 8d 05 5c 32 01 00 	lea    0x1325c(%rip),%rax        # 1ab30 <g_1588>
    78d4:	48 89 85 c0 f2 ff ff 	mov    %rax,-0xd40(%rbp)
    78db:	48 8d 05 4e 32 01 00 	lea    0x1324e(%rip),%rax        # 1ab30 <g_1588>
    78e2:	48 89 85 c8 f2 ff ff 	mov    %rax,-0xd38(%rbp)
    78e9:	48 b8 ca 51 d4 0c a2 	movabs $0x480c2aa20cd451ca,%rax
    78f0:	2a 0c 48 
    78f3:	48 89 85 00 f1 ff ff 	mov    %rax,-0xf00(%rbp)
    78fa:	48 8d 05 87 37 01 00 	lea    0x13787(%rip),%rax        # 1b088 <g_1590>
    7901:	48 89 85 60 f5 ff ff 	mov    %rax,-0xaa0(%rbp)
    7908:	48 8d 05 79 37 01 00 	lea    0x13779(%rip),%rax        # 1b088 <g_1590>
    790f:	48 89 85 68 f5 ff ff 	mov    %rax,-0xa98(%rbp)
    7916:	48 8d 05 6b 37 01 00 	lea    0x1376b(%rip),%rax        # 1b088 <g_1590>
    791d:	48 89 85 70 f5 ff ff 	mov    %rax,-0xa90(%rbp)
    7924:	48 8d 05 5d 37 01 00 	lea    0x1375d(%rip),%rax        # 1b088 <g_1590>
    792b:	48 89 85 78 f5 ff ff 	mov    %rax,-0xa88(%rbp)
    7932:	48 8d 05 4f 37 01 00 	lea    0x1374f(%rip),%rax        # 1b088 <g_1590>
    7939:	48 89 85 80 f5 ff ff 	mov    %rax,-0xa80(%rbp)
    7940:	48 8d 05 41 37 01 00 	lea    0x13741(%rip),%rax        # 1b088 <g_1590>
    7947:	48 89 85 88 f5 ff ff 	mov    %rax,-0xa78(%rbp)
    794e:	48 8d 05 33 37 01 00 	lea    0x13733(%rip),%rax        # 1b088 <g_1590>
    7955:	48 89 85 90 f5 ff ff 	mov    %rax,-0xa70(%rbp)
    795c:	48 8d 05 25 37 01 00 	lea    0x13725(%rip),%rax        # 1b088 <g_1590>
    7963:	48 89 85 98 f5 ff ff 	mov    %rax,-0xa68(%rbp)
    796a:	48 8d 05 17 37 01 00 	lea    0x13717(%rip),%rax        # 1b088 <g_1590>
    7971:	48 89 85 a0 f5 ff ff 	mov    %rax,-0xa60(%rbp)
    7978:	48 8d 05 09 37 01 00 	lea    0x13709(%rip),%rax        # 1b088 <g_1590>
    797f:	48 89 85 a8 f5 ff ff 	mov    %rax,-0xa58(%rbp)
    7986:	48 8d 05 fb 36 01 00 	lea    0x136fb(%rip),%rax        # 1b088 <g_1590>
    798d:	48 89 85 b0 f5 ff ff 	mov    %rax,-0xa50(%rbp)
    7994:	48 8d 05 ed 36 01 00 	lea    0x136ed(%rip),%rax        # 1b088 <g_1590>
    799b:	48 89 85 b8 f5 ff ff 	mov    %rax,-0xa48(%rbp)
    79a2:	48 8d 05 df 36 01 00 	lea    0x136df(%rip),%rax        # 1b088 <g_1590>
    79a9:	48 89 85 c0 f5 ff ff 	mov    %rax,-0xa40(%rbp)
    79b0:	48 8d 05 d1 36 01 00 	lea    0x136d1(%rip),%rax        # 1b088 <g_1590>
    79b7:	48 89 85 c8 f5 ff ff 	mov    %rax,-0xa38(%rbp)
    79be:	48 8d 05 c3 36 01 00 	lea    0x136c3(%rip),%rax        # 1b088 <g_1590>
    79c5:	48 89 85 d0 f5 ff ff 	mov    %rax,-0xa30(%rbp)
    79cc:	48 8d 05 b5 36 01 00 	lea    0x136b5(%rip),%rax        # 1b088 <g_1590>
    79d3:	48 89 85 d8 f5 ff ff 	mov    %rax,-0xa28(%rbp)
    79da:	48 8d 05 a7 36 01 00 	lea    0x136a7(%rip),%rax        # 1b088 <g_1590>
    79e1:	48 89 85 e0 f5 ff ff 	mov    %rax,-0xa20(%rbp)
    79e8:	48 8d 05 99 36 01 00 	lea    0x13699(%rip),%rax        # 1b088 <g_1590>
    79ef:	48 89 85 e8 f5 ff ff 	mov    %rax,-0xa18(%rbp)
    79f6:	48 8d 05 8b 36 01 00 	lea    0x1368b(%rip),%rax        # 1b088 <g_1590>
    79fd:	48 89 85 f0 f5 ff ff 	mov    %rax,-0xa10(%rbp)
    7a04:	48 8d 05 7d 36 01 00 	lea    0x1367d(%rip),%rax        # 1b088 <g_1590>
    7a0b:	48 89 85 f8 f5 ff ff 	mov    %rax,-0xa08(%rbp)
    7a12:	48 8d 05 6f 36 01 00 	lea    0x1366f(%rip),%rax        # 1b088 <g_1590>
    7a19:	48 89 85 00 f6 ff ff 	mov    %rax,-0xa00(%rbp)
    7a20:	48 8d 05 61 36 01 00 	lea    0x13661(%rip),%rax        # 1b088 <g_1590>
    7a27:	48 89 85 08 f6 ff ff 	mov    %rax,-0x9f8(%rbp)
    7a2e:	48 8d 05 53 36 01 00 	lea    0x13653(%rip),%rax        # 1b088 <g_1590>
    7a35:	48 89 85 10 f6 ff ff 	mov    %rax,-0x9f0(%rbp)
    7a3c:	48 8d 05 45 36 01 00 	lea    0x13645(%rip),%rax        # 1b088 <g_1590>
    7a43:	48 89 85 18 f6 ff ff 	mov    %rax,-0x9e8(%rbp)
    7a4a:	48 8d 05 37 36 01 00 	lea    0x13637(%rip),%rax        # 1b088 <g_1590>
    7a51:	48 89 85 20 f6 ff ff 	mov    %rax,-0x9e0(%rbp)
    7a58:	48 8d 05 29 36 01 00 	lea    0x13629(%rip),%rax        # 1b088 <g_1590>
    7a5f:	48 89 85 28 f6 ff ff 	mov    %rax,-0x9d8(%rbp)
    7a66:	48 8d 05 1b 36 01 00 	lea    0x1361b(%rip),%rax        # 1b088 <g_1590>
    7a6d:	48 89 85 30 f6 ff ff 	mov    %rax,-0x9d0(%rbp)
    7a74:	c7 85 00 f2 ff ff ff 	movl   $0xffffffff,-0xe00(%rbp)
    7a7b:	ff ff ff 
    7a7e:	c6 85 04 f2 ff ff f5 	movb   $0xf5,-0xdfc(%rbp)
    7a85:	48 8d 85 20 f7 ff ff 	lea    -0x8e0(%rbp),%rax
    7a8c:	48 8d 15 8d 16 01 00 	lea    0x1168d(%rip),%rdx        # 19120 <g_1904+0x30>
    7a93:	b9 28 00 00 00       	mov    $0x28,%ecx
    7a98:	48 89 c7             	mov    %rax,%rdi
    7a9b:	48 89 d6             	mov    %rdx,%rsi
    7a9e:	f3 48 a5             	rep movsq %ds:(%rsi),%es:(%rdi)
    7aa1:	66 c7 85 46 f0 ff ff 	movw   $0xf087,-0xfba(%rbp)
    7aa8:	87 f0 
    7aaa:	c7 85 80 f0 ff ff 1d 	movl   $0x684b781d,-0xf80(%rbp)
    7ab1:	78 4b 68 
    7ab4:	c7 85 84 f0 ff ff 02 	movl   $0x2,-0xf7c(%rbp)
    7abb:	00 00 00 
    7abe:	66 c7 85 48 f0 ff ff 	movw   $0xfffb,-0xfb8(%rbp)
    7ac5:	fb ff 
    7ac7:	48 8d 05 aa b5 00 00 	lea    0xb5aa(%rip),%rax        # 13078 <g_1815>
    7ace:	48 89 85 08 f1 ff ff 	mov    %rax,-0xef8(%rbp)
    7ad5:	c7 85 88 f0 ff ff 10 	movl   $0x6f88ee10,-0xf78(%rbp)
    7adc:	ee 88 6f 
    7adf:	48 8d 05 92 35 01 00 	lea    0x13592(%rip),%rax        # 1b078 <g_1196>
    7ae6:	48 89 85 e0 f0 ff ff 	mov    %rax,-0xf20(%rbp)
    7aed:	c7 85 8c f0 ff ff ff 	movl   $0xffffffff,-0xf74(%rbp)
    7af4:	ff ff ff 
    7af7:	c7 85 90 f0 ff ff a0 	movl   $0xc2a571a0,-0xf70(%rbp)
    7afe:	71 a5 c2 
    7b01:	66 c7 85 4a f0 ff ff 	movw   $0xe99e,-0xfb6(%rbp)
    7b08:	9e e9 
    7b0a:	c7 85 70 f0 ff ff 00 	movl   $0x0,-0xf90(%rbp)
    7b11:	00 00 00 
    7b14:	eb 1e                	jmp    7b34 <func_1+0x37f>
    7b16:	8b 85 70 f0 ff ff    	mov    -0xf90(%rbp),%eax
    7b1c:	48 98                	cltq   
    7b1e:	48 8d 15 63 0e 01 00 	lea    0x10e63(%rip),%rdx        # 18988 <g_902>
    7b25:	48 89 94 c5 80 f3 ff 	mov    %rdx,-0xc80(%rbp,%rax,8)
    7b2c:	ff 
    7b2d:	83 85 70 f0 ff ff 01 	addl   $0x1,-0xf90(%rbp)
    7b34:	83 bd 70 f0 ff ff 07 	cmpl   $0x7,-0xf90(%rbp)
    7b3b:	7e d9                	jle    7b16 <func_1+0x361>
    7b3d:	c7 85 70 f0 ff ff 00 	movl   $0x0,-0xf90(%rbp)
    7b44:	00 00 00 
    7b47:	eb 14                	jmp    7b5d <func_1+0x3a8>
    7b49:	8b 85 70 f0 ff ff    	mov    -0xf90(%rbp),%eax
    7b4f:	48 98                	cltq   
    7b51:	c6 44 05 c1 0a       	movb   $0xa,-0x3f(%rbp,%rax,1)
    7b56:	83 85 70 f0 ff ff 01 	addl   $0x1,-0xf90(%rbp)
    7b5d:	83 bd 70 f0 ff ff 06 	cmpl   $0x6,-0xf90(%rbp)
    7b64:	7e e3                	jle    7b49 <func_1+0x394>
    7b66:	c7 85 70 f0 ff ff 00 	movl   $0x0,-0xf90(%rbp)
    7b6d:	00 00 00 
    7b70:	eb 1e                	jmp    7b90 <func_1+0x3db>
    7b72:	8b 85 70 f0 ff ff    	mov    -0xf90(%rbp),%eax
    7b78:	48 98                	cltq   
    7b7a:	48 8d 95 e0 f0 ff ff 	lea    -0xf20(%rbp),%rdx
    7b81:	48 89 94 c5 70 f2 ff 	mov    %rdx,-0xd90(%rbp,%rax,8)
    7b88:	ff 
    7b89:	83 85 70 f0 ff ff 01 	addl   $0x1,-0xf90(%rbp)
    7b90:	83 bd 70 f0 ff ff 04 	cmpl   $0x4,-0xf90(%rbp)
    7b97:	7e d9                	jle    7b72 <func_1+0x3bd>
    7b99:	c7 85 70 f0 ff ff 00 	movl   $0x0,-0xf90(%rbp)
    7ba0:	00 00 00 
    7ba3:	eb 1e                	jmp    7bc3 <func_1+0x40e>
    7ba5:	8b 85 70 f0 ff ff    	mov    -0xf90(%rbp),%eax
    7bab:	48 98                	cltq   
    7bad:	48 8d 15 9c 2d 01 00 	lea    0x12d9c(%rip),%rdx        # 1a950 <g_1300>
    7bb4:	48 89 94 c5 c0 f3 ff 	mov    %rdx,-0xc40(%rbp,%rax,8)
    7bbb:	ff 
    7bbc:	83 85 70 f0 ff ff 01 	addl   $0x1,-0xf90(%rbp)
    7bc3:	83 bd 70 f0 ff ff 07 	cmpl   $0x7,-0xf90(%rbp)
    7bca:	7e d9                	jle    7ba5 <func_1+0x3f0>
    7bcc:	c7 85 70 f0 ff ff 00 	movl   $0x0,-0xf90(%rbp)
    7bd3:	00 00 00 
    7bd6:	eb 1b                	jmp    7bf3 <func_1+0x43e>
    7bd8:	8b 85 70 f0 ff ff    	mov    -0xf90(%rbp),%eax
    7bde:	48 98                	cltq   
    7be0:	48 c7 84 c5 20 f2 ff 	movq   $0x0,-0xde0(%rbp,%rax,8)
    7be7:	ff 00 00 00 00 
    7bec:	83 85 70 f0 ff ff 01 	addl   $0x1,-0xf90(%rbp)
    7bf3:	83 bd 70 f0 ff ff 01 	cmpl   $0x1,-0xf90(%rbp)
    7bfa:	7e dc                	jle    7bd8 <func_1+0x423>
    7bfc:	c7 05 1e 04 01 00 00 	movl   $0x0,0x1041e(%rip)        # 18024 <g_2>
    7c03:	00 00 00 
    7c06:	90                   	nop
    7c07:	8b 05 17 04 01 00    	mov    0x10417(%rip),%eax        # 18024 <g_2>
    7c0d:	83 f8 e5             	cmp    $0xffffffe5,%eax
    7c10:	0f 85 37 02 00 00    	jne    7e4d <func_1+0x698>
    7c16:	c7 85 b8 f0 ff ff b7 	movl   $0x4946a2b7,-0xf48(%rbp)
    7c1d:	a2 46 49 
    7c20:	c7 85 bc f0 ff ff 9c 	movl   $0x20f1029c,-0xf44(%rbp)
    7c27:	02 f1 20 
    7c2a:	c7 85 60 f8 ff ff 5c 	movl   $0xbaefdc5c,-0x7a0(%rbp)
    7c31:	dc ef ba 
    7c34:	c7 85 64 f8 ff ff 5c 	movl   $0xbaefdc5c,-0x79c(%rbp)
    7c3b:	dc ef ba 
    7c3e:	c7 85 68 f8 ff ff 01 	movl   $0x1,-0x798(%rbp)
    7c45:	00 00 00 
    7c48:	c7 85 6c f8 ff ff 5c 	movl   $0xbaefdc5c,-0x794(%rbp)
    7c4f:	dc ef ba 
    7c52:	c7 85 70 f8 ff ff 5c 	movl   $0xbaefdc5c,-0x790(%rbp)
    7c59:	dc ef ba 
    7c5c:	c7 85 74 f8 ff ff 01 	movl   $0x1,-0x78c(%rbp)
    7c63:	00 00 00 
    7c66:	c6 85 43 f0 ff ff 02 	movb   $0x2,-0xfbd(%rbp)
    7c6d:	c7 05 c1 03 01 00 03 	movl   $0x3,0x103c1(%rip)        # 18038 <g_7+0x8>
    7c74:	00 00 00 
    7c77:	e9 73 01 00 00       	jmpq   7def <func_1+0x63a>
    7c7c:	48 c7 85 e8 f1 ff ff 	movq   $0xffffffffffffffff,-0xe18(%rbp)
    7c83:	ff ff ff ff 
    7c87:	c7 85 40 fa ff ff 01 	movl   $0x1,-0x5c0(%rbp)
    7c8e:	00 00 00 
    7c91:	c7 85 44 fa ff ff 53 	movl   $0xd4b89d53,-0x5bc(%rbp)
    7c98:	9d b8 d4 
    7c9b:	c7 85 48 fa ff ff fb 	movl   $0xc45603fb,-0x5b8(%rbp)
    7ca2:	03 56 c4 
    7ca5:	c7 85 4c fa ff ff 4f 	movl   $0xa6dce64f,-0x5b4(%rbp)
    7cac:	e6 dc a6 
    7caf:	c7 85 50 fa ff ff 4f 	movl   $0xa6dce64f,-0x5b0(%rbp)
    7cb6:	e6 dc a6 
    7cb9:	c7 85 54 fa ff ff aa 	movl   $0xc7eebeaa,-0x5ac(%rbp)
    7cc0:	be ee c7 
    7cc3:	c7 85 58 fa ff ff 01 	movl   $0x1,-0x5a8(%rbp)
    7cca:	00 00 00 
    7ccd:	c7 85 5c fa ff ff 53 	movl   $0xd4b89d53,-0x5a4(%rbp)
    7cd4:	9d b8 d4 
    7cd7:	c7 85 60 fa ff ff fb 	movl   $0xc45603fb,-0x5a0(%rbp)
    7cde:	03 56 c4 
    7ce1:	c7 85 64 fa ff ff 4f 	movl   $0xa6dce64f,-0x59c(%rbp)
    7ce8:	e6 dc a6 
    7ceb:	c7 85 68 fa ff ff 4f 	movl   $0xa6dce64f,-0x598(%rbp)
    7cf2:	e6 dc a6 
    7cf5:	c7 85 6c fa ff ff aa 	movl   $0xc7eebeaa,-0x594(%rbp)
    7cfc:	be ee c7 
    7cff:	c7 85 70 fa ff ff 01 	movl   $0x1,-0x590(%rbp)
    7d06:	00 00 00 
    7d09:	c7 85 74 fa ff ff 53 	movl   $0xd4b89d53,-0x58c(%rbp)
    7d10:	9d b8 d4 
    7d13:	c7 85 78 fa ff ff fb 	movl   $0xc45603fb,-0x588(%rbp)
    7d1a:	03 56 c4 
    7d1d:	c7 85 7c fa ff ff 4f 	movl   $0xa6dce64f,-0x584(%rbp)
    7d24:	e6 dc a6 
    7d27:	c7 85 80 fa ff ff 4f 	movl   $0xa6dce64f,-0x580(%rbp)
    7d2e:	e6 dc a6 
    7d31:	c7 85 84 fa ff ff aa 	movl   $0xc7eebeaa,-0x57c(%rbp)
    7d38:	be ee c7 
    7d3b:	c7 85 88 fa ff ff 01 	movl   $0x1,-0x578(%rbp)
    7d42:	00 00 00 
    7d45:	c7 85 8c fa ff ff 53 	movl   $0xd4b89d53,-0x574(%rbp)
    7d4c:	9d b8 d4 
    7d4f:	c7 85 90 fa ff ff fb 	movl   $0xc45603fb,-0x570(%rbp)
    7d56:	03 56 c4 
    7d59:	c7 85 94 fa ff ff 4f 	movl   $0xa6dce64f,-0x56c(%rbp)
    7d60:	e6 dc a6 
    7d63:	c7 85 98 fa ff ff 4f 	movl   $0xa6dce64f,-0x568(%rbp)
    7d6a:	e6 dc a6 
    7d6d:	c7 85 9c fa ff ff aa 	movl   $0xc7eebeaa,-0x564(%rbp)
    7d74:	be ee c7 
    7d77:	c7 85 a0 fa ff ff 01 	movl   $0x1,-0x560(%rbp)
    7d7e:	00 00 00 
    7d81:	c7 85 a4 fa ff ff 53 	movl   $0xd4b89d53,-0x55c(%rbp)
    7d88:	9d b8 d4 
    7d8b:	c7 85 a8 fa ff ff fb 	movl   $0xc45603fb,-0x558(%rbp)
    7d92:	03 56 c4 
    7d95:	c7 85 ac fa ff ff 4f 	movl   $0xa6dce64f,-0x554(%rbp)
    7d9c:	e6 dc a6 
    7d9f:	c7 85 b0 fa ff ff 4f 	movl   $0xa6dce64f,-0x550(%rbp)
    7da6:	e6 dc a6 
    7da9:	c7 85 b4 fa ff ff aa 	movl   $0xc7eebeaa,-0x54c(%rbp)
    7db0:	be ee c7 
    7db3:	48 b8 98 8d 85 31 2e 	movabs $0x3f5a552e31858d98,%rax
    7dba:	55 5a 3f 
    7dbd:	48 89 85 f0 f1 ff ff 	mov    %rax,-0xe10(%rbp)
    7dc4:	48 8d 05 1d 0f 01 00 	lea    0x10f1d(%rip),%rax        # 18ce8 <g_1411>
    7dcb:	48 89 85 10 f2 ff ff 	mov    %rax,-0xdf0(%rbp)
    7dd2:	48 8d 85 10 f2 ff ff 	lea    -0xdf0(%rbp),%rax
    7dd9:	48 89 85 f8 f1 ff ff 	mov    %rax,-0xe08(%rbp)
    7de0:	8b 05 52 02 01 00    	mov    0x10252(%rip),%eax        # 18038 <g_7+0x8>
    7de6:	83 e8 01             	sub    $0x1,%eax
    7de9:	89 05 49 02 01 00    	mov    %eax,0x10249(%rip)        # 18038 <g_7+0x8>
    7def:	8b 05 43 02 01 00    	mov    0x10243(%rip),%eax        # 18038 <g_7+0x8>
    7df5:	85 c0                	test   %eax,%eax
    7df7:	0f 89 7f fe ff ff    	jns    7c7c <func_1+0x4c7>
    7dfd:	c7 85 64 f0 ff ff 19 	movl   $0x19,-0xf9c(%rbp)
    7e04:	00 00 00 
    7e07:	eb 1c                	jmp    7e25 <func_1+0x670>
    7e09:	48 8d 05 28 02 01 00 	lea    0x10228(%rip),%rax        # 18038 <g_7+0x8>
    7e10:	c7 00 f7 ff ff ff    	movl   $0xfffffff7,(%rax)
    7e16:	8b 00                	mov    (%rax),%eax
    7e18:	09 85 6c f0 ff ff    	or     %eax,-0xf94(%rbp)
    7e1e:	83 ad 64 f0 ff ff 01 	subl   $0x1,-0xf9c(%rbp)
    7e25:	83 bd 64 f0 ff ff f4 	cmpl   $0xfffffff4,-0xf9c(%rbp)
    7e2c:	7c db                	jl     7e09 <func_1+0x654>
    7e2e:	48 8b 05 a7 10 01 00 	mov    0x110a7(%rip),%rax        # 18edc <g_1462+0x9c>
    7e35:	48 89 85 10 f2 ff ff 	mov    %rax,-0xdf0(%rbp)
    7e3c:	8b 05 a2 10 01 00    	mov    0x110a2(%rip),%eax        # 18ee4 <g_1462+0xa4>
    7e42:	89 85 18 f2 ff ff    	mov    %eax,-0xde8(%rbp)
    7e48:	e9 6e 1d 00 00       	jmpq   9bbb <func_1+0x2406>
    7e4d:	c7 85 64 f0 ff ff ed 	movl   $0xffffffed,-0xf9c(%rbp)
    7e54:	ff ff ff 
    7e57:	e9 21 1d 00 00       	jmpq   9b7d <func_1+0x23c8>
    7e5c:	66 c7 85 44 f0 ff ff 	movw   $0x509a,-0xfbc(%rbp)
    7e63:	9a 50 
    7e65:	48 c7 85 50 f4 ff ff 	movq   $0x0,-0xbb0(%rbp)
    7e6c:	00 00 00 00 
    7e70:	48 c7 85 58 f4 ff ff 	movq   $0x0,-0xba8(%rbp)
    7e77:	00 00 00 00 
    7e7b:	48 8d 05 b2 0a 01 00 	lea    0x10ab2(%rip),%rax        # 18934 <g_712>
    7e82:	48 89 85 60 f4 ff ff 	mov    %rax,-0xba0(%rbp)
    7e89:	48 c7 85 68 f4 ff ff 	movq   $0x0,-0xb98(%rbp)
    7e90:	00 00 00 00 
    7e94:	48 c7 85 70 f4 ff ff 	movq   $0x0,-0xb90(%rbp)
    7e9b:	00 00 00 00 
    7e9f:	48 8d 05 8e 0a 01 00 	lea    0x10a8e(%rip),%rax        # 18934 <g_712>
    7ea6:	48 89 85 78 f4 ff ff 	mov    %rax,-0xb88(%rbp)
    7ead:	48 c7 85 80 f4 ff ff 	movq   $0x0,-0xb80(%rbp)
    7eb4:	00 00 00 00 
    7eb8:	48 c7 85 88 f4 ff ff 	movq   $0x0,-0xb78(%rbp)
    7ebf:	00 00 00 00 
    7ec3:	48 8d 05 6a 0a 01 00 	lea    0x10a6a(%rip),%rax        # 18934 <g_712>
    7eca:	48 89 85 90 f4 ff ff 	mov    %rax,-0xb70(%rbp)
    7ed1:	48 c7 85 98 f4 ff ff 	movq   $0x0,-0xb68(%rbp)
    7ed8:	00 00 00 00 
    7edc:	c7 85 60 f0 ff ff f6 	movl   $0xfffffff6,-0xfa0(%rbp)
    7ee3:	ff ff ff 
    7ee6:	48 8d 85 80 f3 ff ff 	lea    -0xc80(%rbp),%rax
    7eed:	48 83 c0 18          	add    $0x18,%rax
    7ef1:	48 89 85 40 fa ff ff 	mov    %rax,-0x5c0(%rbp)
    7ef8:	48 c7 85 48 fa ff ff 	movq   $0x0,-0x5b8(%rbp)
    7eff:	00 00 00 00 
    7f03:	48 8d 85 80 f3 ff ff 	lea    -0xc80(%rbp),%rax
    7f0a:	48 83 c0 10          	add    $0x10,%rax
    7f0e:	48 89 85 50 fa ff ff 	mov    %rax,-0x5b0(%rbp)
    7f15:	48 c7 85 58 fa ff ff 	movq   $0x0,-0x5a8(%rbp)
    7f1c:	00 00 00 00 
    7f20:	48 8d 85 80 f3 ff ff 	lea    -0xc80(%rbp),%rax
    7f27:	48 83 c0 18          	add    $0x18,%rax
    7f2b:	48 89 85 60 fa ff ff 	mov    %rax,-0x5a0(%rbp)
    7f32:	48 8d 85 80 f3 ff ff 	lea    -0xc80(%rbp),%rax
    7f39:	48 83 c0 18          	add    $0x18,%rax
    7f3d:	48 89 85 68 fa ff ff 	mov    %rax,-0x598(%rbp)
    7f44:	48 8d 85 80 f3 ff ff 	lea    -0xc80(%rbp),%rax
    7f4b:	48 83 c0 10          	add    $0x10,%rax
    7f4f:	48 89 85 70 fa ff ff 	mov    %rax,-0x590(%rbp)
    7f56:	48 8d 85 80 f3 ff ff 	lea    -0xc80(%rbp),%rax
    7f5d:	48 83 c0 10          	add    $0x10,%rax
    7f61:	48 89 85 78 fa ff ff 	mov    %rax,-0x588(%rbp)
    7f68:	48 8d 05 81 26 01 00 	lea    0x12681(%rip),%rax        # 1a5f0 <g_429+0x130>
    7f6f:	48 89 85 80 fa ff ff 	mov    %rax,-0x580(%rbp)
    7f76:	48 8d 05 b3 26 01 00 	lea    0x126b3(%rip),%rax        # 1a630 <g_429+0x170>
    7f7d:	48 89 85 88 fa ff ff 	mov    %rax,-0x578(%rbp)
    7f84:	48 8d 05 a5 26 01 00 	lea    0x126a5(%rip),%rax        # 1a630 <g_429+0x170>
    7f8b:	48 89 85 90 fa ff ff 	mov    %rax,-0x570(%rbp)
    7f92:	48 8d 05 57 26 01 00 	lea    0x12657(%rip),%rax        # 1a5f0 <g_429+0x130>
    7f99:	48 89 85 98 fa ff ff 	mov    %rax,-0x568(%rbp)
    7fa0:	48 8d 85 80 f3 ff ff 	lea    -0xc80(%rbp),%rax
    7fa7:	48 83 c0 10          	add    $0x10,%rax
    7fab:	48 89 85 a0 fa ff ff 	mov    %rax,-0x560(%rbp)
    7fb2:	48 8d 85 80 f3 ff ff 	lea    -0xc80(%rbp),%rax
    7fb9:	48 83 c0 20          	add    $0x20,%rax
    7fbd:	48 89 85 a8 fa ff ff 	mov    %rax,-0x558(%rbp)
    7fc4:	48 8d 85 80 f3 ff ff 	lea    -0xc80(%rbp),%rax
    7fcb:	48 83 c0 10          	add    $0x10,%rax
    7fcf:	48 89 85 b0 fa ff ff 	mov    %rax,-0x550(%rbp)
    7fd6:	48 8d 85 80 f3 ff ff 	lea    -0xc80(%rbp),%rax
    7fdd:	48 83 c0 10          	add    $0x10,%rax
    7fe1:	48 89 85 b8 fa ff ff 	mov    %rax,-0x548(%rbp)
    7fe8:	48 8d 05 79 25 01 00 	lea    0x12579(%rip),%rax        # 1a568 <g_429+0xa8>
    7fef:	48 89 85 c0 fa ff ff 	mov    %rax,-0x540(%rbp)
    7ff6:	48 8d 85 80 f3 ff ff 	lea    -0xc80(%rbp),%rax
    7ffd:	48 83 c0 18          	add    $0x18,%rax
    8001:	48 89 85 c8 fa ff ff 	mov    %rax,-0x538(%rbp)
    8008:	48 8d 05 59 25 01 00 	lea    0x12559(%rip),%rax        # 1a568 <g_429+0xa8>
    800f:	48 89 85 d0 fa ff ff 	mov    %rax,-0x530(%rbp)
    8016:	48 8d 85 80 f3 ff ff 	lea    -0xc80(%rbp),%rax
    801d:	48 83 c0 10          	add    $0x10,%rax
    8021:	48 89 85 d8 fa ff ff 	mov    %rax,-0x528(%rbp)
    8028:	48 8d 85 80 f3 ff ff 	lea    -0xc80(%rbp),%rax
    802f:	48 83 c0 10          	add    $0x10,%rax
    8033:	48 89 85 e0 fa ff ff 	mov    %rax,-0x520(%rbp)
    803a:	48 8d 85 80 f3 ff ff 	lea    -0xc80(%rbp),%rax
    8041:	48 83 c0 10          	add    $0x10,%rax
    8045:	48 89 85 e8 fa ff ff 	mov    %rax,-0x518(%rbp)
    804c:	48 8d 05 dd 25 01 00 	lea    0x125dd(%rip),%rax        # 1a630 <g_429+0x170>
    8053:	48 89 85 f0 fa ff ff 	mov    %rax,-0x510(%rbp)
    805a:	48 8d 85 80 f3 ff ff 	lea    -0xc80(%rbp),%rax
    8061:	48 83 c0 20          	add    $0x20,%rax
    8065:	48 89 85 f8 fa ff ff 	mov    %rax,-0x508(%rbp)
    806c:	48 8d 05 fd 24 01 00 	lea    0x124fd(%rip),%rax        # 1a570 <g_429+0xb0>
    8073:	48 89 85 00 fb ff ff 	mov    %rax,-0x500(%rbp)
    807a:	48 8d 05 ef 24 01 00 	lea    0x124ef(%rip),%rax        # 1a570 <g_429+0xb0>
    8081:	48 89 85 08 fb ff ff 	mov    %rax,-0x4f8(%rbp)
    8088:	48 8d 85 80 f3 ff ff 	lea    -0xc80(%rbp),%rax
    808f:	48 83 c0 20          	add    $0x20,%rax
    8093:	48 89 85 10 fb ff ff 	mov    %rax,-0x4f0(%rbp)
    809a:	48 8d 05 8f 25 01 00 	lea    0x1258f(%rip),%rax        # 1a630 <g_429+0x170>
    80a1:	48 89 85 18 fb ff ff 	mov    %rax,-0x4e8(%rbp)
    80a8:	48 8d 85 80 f3 ff ff 	lea    -0xc80(%rbp),%rax
    80af:	48 83 c0 18          	add    $0x18,%rax
    80b3:	48 89 85 20 fb ff ff 	mov    %rax,-0x4e0(%rbp)
    80ba:	48 8d 85 80 f3 ff ff 	lea    -0xc80(%rbp),%rax
    80c1:	48 83 c0 10          	add    $0x10,%rax
    80c5:	48 89 85 28 fb ff ff 	mov    %rax,-0x4d8(%rbp)
    80cc:	48 8d 85 80 f3 ff ff 	lea    -0xc80(%rbp),%rax
    80d3:	48 83 c0 10          	add    $0x10,%rax
    80d7:	48 89 85 30 fb ff ff 	mov    %rax,-0x4d0(%rbp)
    80de:	48 c7 85 38 fb ff ff 	movq   $0x0,-0x4c8(%rbp)
    80e5:	00 00 00 00 
    80e9:	48 8d 85 80 f3 ff ff 	lea    -0xc80(%rbp),%rax
    80f0:	48 83 c0 18          	add    $0x18,%rax
    80f4:	48 89 85 40 fb ff ff 	mov    %rax,-0x4c0(%rbp)
    80fb:	48 c7 85 48 fb ff ff 	movq   $0x0,-0x4b8(%rbp)
    8102:	00 00 00 00 
    8106:	48 8d 85 80 f3 ff ff 	lea    -0xc80(%rbp),%rax
    810d:	48 83 c0 10          	add    $0x10,%rax
    8111:	48 89 85 50 fb ff ff 	mov    %rax,-0x4b0(%rbp)
    8118:	48 8d 05 51 24 01 00 	lea    0x12451(%rip),%rax        # 1a570 <g_429+0xb0>
    811f:	48 89 85 58 fb ff ff 	mov    %rax,-0x4a8(%rbp)
    8126:	48 8d 05 c3 24 01 00 	lea    0x124c3(%rip),%rax        # 1a5f0 <g_429+0x130>
    812d:	48 89 85 60 fb ff ff 	mov    %rax,-0x4a0(%rbp)
    8134:	48 8d 85 80 f3 ff ff 	lea    -0xc80(%rbp),%rax
    813b:	48 83 c0 20          	add    $0x20,%rax
    813f:	48 89 85 68 fb ff ff 	mov    %rax,-0x498(%rbp)
    8146:	48 8d 85 80 f3 ff ff 	lea    -0xc80(%rbp),%rax
    814d:	48 89 85 70 fb ff ff 	mov    %rax,-0x490(%rbp)
    8154:	48 8d 85 80 f3 ff ff 	lea    -0xc80(%rbp),%rax
    815b:	48 83 c0 10          	add    $0x10,%rax
    815f:	48 89 85 78 fb ff ff 	mov    %rax,-0x488(%rbp)
    8166:	48 8d 85 80 f3 ff ff 	lea    -0xc80(%rbp),%rax
    816d:	48 83 c0 10          	add    $0x10,%rax
    8171:	48 89 85 80 fb ff ff 	mov    %rax,-0x480(%rbp)
    8178:	48 8d 85 80 f3 ff ff 	lea    -0xc80(%rbp),%rax
    817f:	48 89 85 88 fb ff ff 	mov    %rax,-0x478(%rbp)
    8186:	48 8d 05 db 23 01 00 	lea    0x123db(%rip),%rax        # 1a568 <g_429+0xa8>
    818d:	48 89 85 90 fb ff ff 	mov    %rax,-0x470(%rbp)
    8194:	48 c7 85 98 fb ff ff 	movq   $0x0,-0x468(%rbp)
    819b:	00 00 00 00 
    819f:	48 8d 05 c2 23 01 00 	lea    0x123c2(%rip),%rax        # 1a568 <g_429+0xa8>
    81a6:	48 89 85 a0 fb ff ff 	mov    %rax,-0x460(%rbp)
    81ad:	48 c7 85 a8 fb ff ff 	movq   $0x0,-0x458(%rbp)
    81b4:	00 00 00 00 
    81b8:	48 8d 85 80 f3 ff ff 	lea    -0xc80(%rbp),%rax
    81bf:	48 83 c0 10          	add    $0x10,%rax
    81c3:	48 89 85 b0 fb ff ff 	mov    %rax,-0x450(%rbp)
    81ca:	48 c7 85 b8 fb ff ff 	movq   $0x0,-0x448(%rbp)
    81d1:	00 00 00 00 
    81d5:	48 8d 85 80 f3 ff ff 	lea    -0xc80(%rbp),%rax
    81dc:	48 83 c0 10          	add    $0x10,%rax
    81e0:	48 89 85 c0 fb ff ff 	mov    %rax,-0x440(%rbp)
    81e7:	48 8d 05 02 24 01 00 	lea    0x12402(%rip),%rax        # 1a5f0 <g_429+0x130>
    81ee:	48 89 85 c8 fb ff ff 	mov    %rax,-0x438(%rbp)
    81f5:	48 8d 85 80 f3 ff ff 	lea    -0xc80(%rbp),%rax
    81fc:	48 89 85 d0 fb ff ff 	mov    %rax,-0x430(%rbp)
    8203:	48 8d 05 26 24 01 00 	lea    0x12426(%rip),%rax        # 1a630 <g_429+0x170>
    820a:	48 89 85 d8 fb ff ff 	mov    %rax,-0x428(%rbp)
    8211:	48 8d 05 58 23 01 00 	lea    0x12358(%rip),%rax        # 1a570 <g_429+0xb0>
    8218:	48 89 85 e0 fb ff ff 	mov    %rax,-0x420(%rbp)
    821f:	48 8d 85 80 f3 ff ff 	lea    -0xc80(%rbp),%rax
    8226:	48 83 c0 10          	add    $0x10,%rax
    822a:	48 89 85 e8 fb ff ff 	mov    %rax,-0x418(%rbp)
    8231:	48 8d 85 80 f3 ff ff 	lea    -0xc80(%rbp),%rax
    8238:	48 83 c0 20          	add    $0x20,%rax
    823c:	48 89 85 f0 fb ff ff 	mov    %rax,-0x410(%rbp)
    8243:	48 8d 85 80 f3 ff ff 	lea    -0xc80(%rbp),%rax
    824a:	48 83 c0 20          	add    $0x20,%rax
    824e:	48 89 85 f8 fb ff ff 	mov    %rax,-0x408(%rbp)
    8255:	48 8d 85 80 f3 ff ff 	lea    -0xc80(%rbp),%rax
    825c:	48 83 c0 18          	add    $0x18,%rax
    8260:	48 89 85 00 fc ff ff 	mov    %rax,-0x400(%rbp)
    8267:	48 8d 85 80 f3 ff ff 	lea    -0xc80(%rbp),%rax
    826e:	48 83 c0 18          	add    $0x18,%rax
    8272:	48 89 85 08 fc ff ff 	mov    %rax,-0x3f8(%rbp)
    8279:	48 8d 85 80 f3 ff ff 	lea    -0xc80(%rbp),%rax
    8280:	48 83 c0 10          	add    $0x10,%rax
    8284:	48 89 85 10 fc ff ff 	mov    %rax,-0x3f0(%rbp)
    828b:	48 8d 85 80 f3 ff ff 	lea    -0xc80(%rbp),%rax
    8292:	48 83 c0 18          	add    $0x18,%rax
    8296:	48 89 85 18 fc ff ff 	mov    %rax,-0x3e8(%rbp)
    829d:	48 8d 85 80 f3 ff ff 	lea    -0xc80(%rbp),%rax
    82a4:	48 83 c0 18          	add    $0x18,%rax
    82a8:	48 89 85 20 fc ff ff 	mov    %rax,-0x3e0(%rbp)
    82af:	48 c7 85 28 fc ff ff 	movq   $0x0,-0x3d8(%rbp)
    82b6:	00 00 00 00 
    82ba:	48 8d 85 80 f3 ff ff 	lea    -0xc80(%rbp),%rax
    82c1:	48 83 c0 10          	add    $0x10,%rax
    82c5:	48 89 85 30 fc ff ff 	mov    %rax,-0x3d0(%rbp)
    82cc:	48 c7 85 38 fc ff ff 	movq   $0x0,-0x3c8(%rbp)
    82d3:	00 00 00 00 
    82d7:	48 8d 05 12 23 01 00 	lea    0x12312(%rip),%rax        # 1a5f0 <g_429+0x130>
    82de:	48 89 85 40 fc ff ff 	mov    %rax,-0x3c0(%rbp)
    82e5:	48 8d 85 80 f3 ff ff 	lea    -0xc80(%rbp),%rax
    82ec:	48 89 85 48 fc ff ff 	mov    %rax,-0x3b8(%rbp)
    82f3:	48 8d 05 36 23 01 00 	lea    0x12336(%rip),%rax        # 1a630 <g_429+0x170>
    82fa:	48 89 85 50 fc ff ff 	mov    %rax,-0x3b0(%rbp)
    8301:	48 8d 05 68 22 01 00 	lea    0x12268(%rip),%rax        # 1a570 <g_429+0xb0>
    8308:	48 89 85 58 fc ff ff 	mov    %rax,-0x3a8(%rbp)
    830f:	48 8d 85 80 f3 ff ff 	lea    -0xc80(%rbp),%rax
    8316:	48 83 c0 10          	add    $0x10,%rax
    831a:	48 89 85 60 fc ff ff 	mov    %rax,-0x3a0(%rbp)
    8321:	48 8d 85 80 f3 ff ff 	lea    -0xc80(%rbp),%rax
    8328:	48 83 c0 20          	add    $0x20,%rax
    832c:	48 89 85 68 fc ff ff 	mov    %rax,-0x398(%rbp)
    8333:	48 8d 85 80 f3 ff ff 	lea    -0xc80(%rbp),%rax
    833a:	48 83 c0 10          	add    $0x10,%rax
    833e:	48 89 85 70 fc ff ff 	mov    %rax,-0x390(%rbp)
    8345:	48 c7 85 78 fc ff ff 	movq   $0x0,-0x388(%rbp)
    834c:	00 00 00 00 
    8350:	48 8d 05 11 22 01 00 	lea    0x12211(%rip),%rax        # 1a568 <g_429+0xa8>
    8357:	48 89 85 80 fc ff ff 	mov    %rax,-0x380(%rbp)
    835e:	48 c7 85 88 fc ff ff 	movq   $0x0,-0x378(%rbp)
    8365:	00 00 00 00 
    8369:	48 8d 05 f8 21 01 00 	lea    0x121f8(%rip),%rax        # 1a568 <g_429+0xa8>
    8370:	48 89 85 90 fc ff ff 	mov    %rax,-0x370(%rbp)
    8377:	48 c7 85 98 fc ff ff 	movq   $0x0,-0x368(%rbp)
    837e:	00 00 00 00 
    8382:	48 8d 85 80 f3 ff ff 	lea    -0xc80(%rbp),%rax
    8389:	48 83 c0 10          	add    $0x10,%rax
    838d:	48 89 85 a0 fc ff ff 	mov    %rax,-0x360(%rbp)
    8394:	48 c7 85 a8 fc ff ff 	movq   $0x0,-0x358(%rbp)
    839b:	00 00 00 00 
    839f:	48 8d 05 8a 22 01 00 	lea    0x1228a(%rip),%rax        # 1a630 <g_429+0x170>
    83a6:	48 89 85 b0 fc ff ff 	mov    %rax,-0x350(%rbp)
    83ad:	48 8d 85 80 f3 ff ff 	lea    -0xc80(%rbp),%rax
    83b4:	48 83 c0 20          	add    $0x20,%rax
    83b8:	48 89 85 b8 fc ff ff 	mov    %rax,-0x348(%rbp)
    83bf:	48 8d 05 aa 21 01 00 	lea    0x121aa(%rip),%rax        # 1a570 <g_429+0xb0>
    83c6:	48 89 85 c0 fc ff ff 	mov    %rax,-0x340(%rbp)
    83cd:	48 8d 05 1c 22 01 00 	lea    0x1221c(%rip),%rax        # 1a5f0 <g_429+0x130>
    83d4:	48 89 85 c8 fc ff ff 	mov    %rax,-0x338(%rbp)
    83db:	48 8d 85 80 f3 ff ff 	lea    -0xc80(%rbp),%rax
    83e2:	48 83 c0 20          	add    $0x20,%rax
    83e6:	48 89 85 d0 fc ff ff 	mov    %rax,-0x330(%rbp)
    83ed:	48 8d 85 80 f3 ff ff 	lea    -0xc80(%rbp),%rax
    83f4:	48 89 85 d8 fc ff ff 	mov    %rax,-0x328(%rbp)
    83fb:	48 8d 85 80 f3 ff ff 	lea    -0xc80(%rbp),%rax
    8402:	48 83 c0 18          	add    $0x18,%rax
    8406:	48 89 85 e0 fc ff ff 	mov    %rax,-0x320(%rbp)
    840d:	48 c7 85 e8 fc ff ff 	movq   $0x0,-0x318(%rbp)
    8414:	00 00 00 00 
    8418:	48 8d 85 80 f3 ff ff 	lea    -0xc80(%rbp),%rax
    841f:	48 83 c0 10          	add    $0x10,%rax
    8423:	48 89 85 f0 fc ff ff 	mov    %rax,-0x310(%rbp)
    842a:	48 8d 85 80 f3 ff ff 	lea    -0xc80(%rbp),%rax
    8431:	48 83 c0 10          	add    $0x10,%rax
    8435:	48 89 85 f8 fc ff ff 	mov    %rax,-0x308(%rbp)
    843c:	48 8d 85 80 f3 ff ff 	lea    -0xc80(%rbp),%rax
    8443:	48 83 c0 18          	add    $0x18,%rax
    8447:	48 89 85 00 fd ff ff 	mov    %rax,-0x300(%rbp)
    844e:	48 8d 85 80 f3 ff ff 	lea    -0xc80(%rbp),%rax
    8455:	48 83 c0 10          	add    $0x10,%rax
    8459:	48 89 85 08 fd ff ff 	mov    %rax,-0x2f8(%rbp)
    8460:	48 8d 85 80 f3 ff ff 	lea    -0xc80(%rbp),%rax
    8467:	48 83 c0 10          	add    $0x10,%rax
    846b:	48 89 85 10 fd ff ff 	mov    %rax,-0x2f0(%rbp)
    8472:	48 8d 05 77 21 01 00 	lea    0x12177(%rip),%rax        # 1a5f0 <g_429+0x130>
    8479:	48 89 85 18 fd ff ff 	mov    %rax,-0x2e8(%rbp)
    8480:	48 8d 05 69 21 01 00 	lea    0x12169(%rip),%rax        # 1a5f0 <g_429+0x130>
    8487:	48 89 85 20 fd ff ff 	mov    %rax,-0x2e0(%rbp)
    848e:	48 8d 85 80 f3 ff ff 	lea    -0xc80(%rbp),%rax
    8495:	48 83 c0 20          	add    $0x20,%rax
    8499:	48 89 85 28 fd ff ff 	mov    %rax,-0x2d8(%rbp)
    84a0:	48 8d 85 80 f3 ff ff 	lea    -0xc80(%rbp),%rax
    84a7:	48 89 85 30 fd ff ff 	mov    %rax,-0x2d0(%rbp)
    84ae:	48 c7 85 38 fd ff ff 	movq   $0x0,-0x2c8(%rbp)
    84b5:	00 00 00 00 
    84b9:	48 8d 85 80 f3 ff ff 	lea    -0xc80(%rbp),%rax
    84c0:	48 83 c0 10          	add    $0x10,%rax
    84c4:	48 89 85 40 fd ff ff 	mov    %rax,-0x2c0(%rbp)
    84cb:	48 8d 05 5e 21 01 00 	lea    0x1215e(%rip),%rax        # 1a630 <g_429+0x170>
    84d2:	48 89 85 48 fd ff ff 	mov    %rax,-0x2b8(%rbp)
    84d9:	48 8d 05 88 20 01 00 	lea    0x12088(%rip),%rax        # 1a568 <g_429+0xa8>
    84e0:	48 89 85 50 fd ff ff 	mov    %rax,-0x2b0(%rbp)
    84e7:	48 8d 85 80 f3 ff ff 	lea    -0xc80(%rbp),%rax
    84ee:	48 83 c0 18          	add    $0x18,%rax
    84f2:	48 89 85 58 fd ff ff 	mov    %rax,-0x2a8(%rbp)
    84f9:	48 8d 05 68 20 01 00 	lea    0x12068(%rip),%rax        # 1a568 <g_429+0xa8>
    8500:	48 89 85 60 fd ff ff 	mov    %rax,-0x2a0(%rbp)
    8507:	48 8d 85 80 f3 ff ff 	lea    -0xc80(%rbp),%rax
    850e:	48 83 c0 10          	add    $0x10,%rax
    8512:	48 89 85 68 fd ff ff 	mov    %rax,-0x298(%rbp)
    8519:	48 8d 85 80 f3 ff ff 	lea    -0xc80(%rbp),%rax
    8520:	48 83 c0 10          	add    $0x10,%rax
    8524:	48 89 85 70 fd ff ff 	mov    %rax,-0x290(%rbp)
    852b:	48 8d 85 80 f3 ff ff 	lea    -0xc80(%rbp),%rax
    8532:	48 83 c0 18          	add    $0x18,%rax
    8536:	48 89 85 78 fd ff ff 	mov    %rax,-0x288(%rbp)
    853d:	48 8d 85 80 f3 ff ff 	lea    -0xc80(%rbp),%rax
    8544:	48 83 c0 10          	add    $0x10,%rax
    8548:	48 89 85 80 fd ff ff 	mov    %rax,-0x280(%rbp)
    854f:	48 8d 05 1a 20 01 00 	lea    0x1201a(%rip),%rax        # 1a570 <g_429+0xb0>
    8556:	48 89 85 88 fd ff ff 	mov    %rax,-0x278(%rbp)
    855d:	48 8d 85 80 f3 ff ff 	lea    -0xc80(%rbp),%rax
    8564:	48 89 85 90 fd ff ff 	mov    %rax,-0x270(%rbp)
    856b:	48 8d 85 80 f3 ff ff 	lea    -0xc80(%rbp),%rax
    8572:	48 89 85 98 fd ff ff 	mov    %rax,-0x268(%rbp)
    8579:	48 8d 05 f0 1f 01 00 	lea    0x11ff0(%rip),%rax        # 1a570 <g_429+0xb0>
    8580:	48 89 85 a0 fd ff ff 	mov    %rax,-0x260(%rbp)
    8587:	48 c7 85 a8 fd ff ff 	movq   $0x0,-0x258(%rbp)
    858e:	00 00 00 00 
    8592:	48 8d 85 80 f3 ff ff 	lea    -0xc80(%rbp),%rax
    8599:	48 83 c0 20          	add    $0x20,%rax
    859d:	48 89 85 b0 fd ff ff 	mov    %rax,-0x250(%rbp)
    85a4:	48 8d 85 80 f3 ff ff 	lea    -0xc80(%rbp),%rax
    85ab:	48 83 c0 20          	add    $0x20,%rax
    85af:	48 89 85 b8 fd ff ff 	mov    %rax,-0x248(%rbp)
    85b6:	48 8d 85 80 f3 ff ff 	lea    -0xc80(%rbp),%rax
    85bd:	48 83 c0 18          	add    $0x18,%rax
    85c1:	48 89 85 c0 fd ff ff 	mov    %rax,-0x240(%rbp)
    85c8:	48 c7 85 c8 fd ff ff 	movq   $0x0,-0x238(%rbp)
    85cf:	00 00 00 00 
    85d3:	48 8d 85 80 f3 ff ff 	lea    -0xc80(%rbp),%rax
    85da:	48 83 c0 10          	add    $0x10,%rax
    85de:	48 89 85 d0 fd ff ff 	mov    %rax,-0x230(%rbp)
    85e5:	48 c7 85 d8 fd ff ff 	movq   $0x0,-0x228(%rbp)
    85ec:	00 00 00 00 
    85f0:	48 8d 85 80 f3 ff ff 	lea    -0xc80(%rbp),%rax
    85f7:	48 83 c0 18          	add    $0x18,%rax
    85fb:	48 89 85 e0 fd ff ff 	mov    %rax,-0x220(%rbp)
    8602:	48 8d 85 80 f3 ff ff 	lea    -0xc80(%rbp),%rax
    8609:	48 83 c0 18          	add    $0x18,%rax
    860d:	48 89 85 e8 fd ff ff 	mov    %rax,-0x218(%rbp)
    8614:	48 8d 85 80 f3 ff ff 	lea    -0xc80(%rbp),%rax
    861b:	48 83 c0 10          	add    $0x10,%rax
    861f:	48 89 85 f0 fd ff ff 	mov    %rax,-0x210(%rbp)
    8626:	48 8d 85 80 f3 ff ff 	lea    -0xc80(%rbp),%rax
    862d:	48 83 c0 10          	add    $0x10,%rax
    8631:	48 89 85 f8 fd ff ff 	mov    %rax,-0x208(%rbp)
    8638:	48 8d 05 b1 1f 01 00 	lea    0x11fb1(%rip),%rax        # 1a5f0 <g_429+0x130>
    863f:	48 89 85 00 fe ff ff 	mov    %rax,-0x200(%rbp)
    8646:	48 8d 05 e3 1f 01 00 	lea    0x11fe3(%rip),%rax        # 1a630 <g_429+0x170>
    864d:	48 89 85 08 fe ff ff 	mov    %rax,-0x1f8(%rbp)
    8654:	48 8d 05 d5 1f 01 00 	lea    0x11fd5(%rip),%rax        # 1a630 <g_429+0x170>
    865b:	48 89 85 10 fe ff ff 	mov    %rax,-0x1f0(%rbp)
    8662:	48 8d 05 87 1f 01 00 	lea    0x11f87(%rip),%rax        # 1a5f0 <g_429+0x130>
    8669:	48 89 85 18 fe ff ff 	mov    %rax,-0x1e8(%rbp)
    8670:	48 8d 85 80 f3 ff ff 	lea    -0xc80(%rbp),%rax
    8677:	48 83 c0 10          	add    $0x10,%rax
    867b:	48 89 85 20 fe ff ff 	mov    %rax,-0x1e0(%rbp)
    8682:	48 8d 85 80 f3 ff ff 	lea    -0xc80(%rbp),%rax
    8689:	48 83 c0 20          	add    $0x20,%rax
    868d:	48 89 85 28 fe ff ff 	mov    %rax,-0x1d8(%rbp)
    8694:	48 8d 85 80 f3 ff ff 	lea    -0xc80(%rbp),%rax
    869b:	48 83 c0 10          	add    $0x10,%rax
    869f:	48 89 85 30 fe ff ff 	mov    %rax,-0x1d0(%rbp)
    86a6:	48 8d 85 80 f3 ff ff 	lea    -0xc80(%rbp),%rax
    86ad:	48 83 c0 10          	add    $0x10,%rax
    86b1:	48 89 85 38 fe ff ff 	mov    %rax,-0x1c8(%rbp)
    86b8:	48 8d 05 a9 1e 01 00 	lea    0x11ea9(%rip),%rax        # 1a568 <g_429+0xa8>
    86bf:	48 89 85 40 fe ff ff 	mov    %rax,-0x1c0(%rbp)
    86c6:	48 8d 85 80 f3 ff ff 	lea    -0xc80(%rbp),%rax
    86cd:	48 83 c0 18          	add    $0x18,%rax
    86d1:	48 89 85 48 fe ff ff 	mov    %rax,-0x1b8(%rbp)
    86d8:	48 8d 05 89 1e 01 00 	lea    0x11e89(%rip),%rax        # 1a568 <g_429+0xa8>
    86df:	48 89 85 50 fe ff ff 	mov    %rax,-0x1b0(%rbp)
    86e6:	48 8d 85 80 f3 ff ff 	lea    -0xc80(%rbp),%rax
    86ed:	48 83 c0 10          	add    $0x10,%rax
    86f1:	48 89 85 58 fe ff ff 	mov    %rax,-0x1a8(%rbp)
    86f8:	48 8d 85 80 f3 ff ff 	lea    -0xc80(%rbp),%rax
    86ff:	48 83 c0 10          	add    $0x10,%rax
    8703:	48 89 85 60 fe ff ff 	mov    %rax,-0x1a0(%rbp)
    870a:	48 8d 85 80 f3 ff ff 	lea    -0xc80(%rbp),%rax
    8711:	48 83 c0 10          	add    $0x10,%rax
    8715:	48 89 85 68 fe ff ff 	mov    %rax,-0x198(%rbp)
    871c:	48 8d 05 0d 1f 01 00 	lea    0x11f0d(%rip),%rax        # 1a630 <g_429+0x170>
    8723:	48 89 85 70 fe ff ff 	mov    %rax,-0x190(%rbp)
    872a:	48 8d 85 80 f3 ff ff 	lea    -0xc80(%rbp),%rax
    8731:	48 83 c0 20          	add    $0x20,%rax
    8735:	48 89 85 78 fe ff ff 	mov    %rax,-0x188(%rbp)
    873c:	48 8d 05 2d 1e 01 00 	lea    0x11e2d(%rip),%rax        # 1a570 <g_429+0xb0>
    8743:	48 89 85 80 fe ff ff 	mov    %rax,-0x180(%rbp)
    874a:	48 8d 05 1f 1e 01 00 	lea    0x11e1f(%rip),%rax        # 1a570 <g_429+0xb0>
    8751:	48 89 85 88 fe ff ff 	mov    %rax,-0x178(%rbp)
    8758:	48 8d 85 80 f3 ff ff 	lea    -0xc80(%rbp),%rax
    875f:	48 83 c0 20          	add    $0x20,%rax
    8763:	48 89 85 90 fe ff ff 	mov    %rax,-0x170(%rbp)
    876a:	48 8d 05 bf 1e 01 00 	lea    0x11ebf(%rip),%rax        # 1a630 <g_429+0x170>
    8771:	48 89 85 98 fe ff ff 	mov    %rax,-0x168(%rbp)
    8778:	48 8d 85 80 f3 ff ff 	lea    -0xc80(%rbp),%rax
    877f:	48 83 c0 18          	add    $0x18,%rax
    8783:	48 89 85 a0 fe ff ff 	mov    %rax,-0x160(%rbp)
    878a:	48 8d 85 80 f3 ff ff 	lea    -0xc80(%rbp),%rax
    8791:	48 83 c0 10          	add    $0x10,%rax
    8795:	48 89 85 a8 fe ff ff 	mov    %rax,-0x158(%rbp)
    879c:	48 8d 85 80 f3 ff ff 	lea    -0xc80(%rbp),%rax
    87a3:	48 83 c0 10          	add    $0x10,%rax
    87a7:	48 89 85 b0 fe ff ff 	mov    %rax,-0x150(%rbp)
    87ae:	48 c7 85 b8 fe ff ff 	movq   $0x0,-0x148(%rbp)
    87b5:	00 00 00 00 
    87b9:	48 8d 85 80 f3 ff ff 	lea    -0xc80(%rbp),%rax
    87c0:	48 83 c0 18          	add    $0x18,%rax
    87c4:	48 89 85 c0 fe ff ff 	mov    %rax,-0x140(%rbp)
    87cb:	48 c7 85 c8 fe ff ff 	movq   $0x0,-0x138(%rbp)
    87d2:	00 00 00 00 
    87d6:	48 8d 85 80 f3 ff ff 	lea    -0xc80(%rbp),%rax
    87dd:	48 83 c0 10          	add    $0x10,%rax
    87e1:	48 89 85 d0 fe ff ff 	mov    %rax,-0x130(%rbp)
    87e8:	48 8d 05 81 1d 01 00 	lea    0x11d81(%rip),%rax        # 1a570 <g_429+0xb0>
    87ef:	48 89 85 d8 fe ff ff 	mov    %rax,-0x128(%rbp)
    87f6:	48 8d 05 f3 1d 01 00 	lea    0x11df3(%rip),%rax        # 1a5f0 <g_429+0x130>
    87fd:	48 89 85 e0 fe ff ff 	mov    %rax,-0x120(%rbp)
    8804:	48 8d 85 80 f3 ff ff 	lea    -0xc80(%rbp),%rax
    880b:	48 83 c0 20          	add    $0x20,%rax
    880f:	48 89 85 e8 fe ff ff 	mov    %rax,-0x118(%rbp)
    8816:	48 8d 85 80 f3 ff ff 	lea    -0xc80(%rbp),%rax
    881d:	48 89 85 f0 fe ff ff 	mov    %rax,-0x110(%rbp)
    8824:	48 8d 85 80 f3 ff ff 	lea    -0xc80(%rbp),%rax
    882b:	48 83 c0 10          	add    $0x10,%rax
    882f:	48 89 85 f8 fe ff ff 	mov    %rax,-0x108(%rbp)
    8836:	48 8d 85 80 f3 ff ff 	lea    -0xc80(%rbp),%rax
    883d:	48 83 c0 10          	add    $0x10,%rax
    8841:	48 89 85 00 ff ff ff 	mov    %rax,-0x100(%rbp)
    8848:	48 8d 85 80 f3 ff ff 	lea    -0xc80(%rbp),%rax
    884f:	48 89 85 08 ff ff ff 	mov    %rax,-0xf8(%rbp)
    8856:	48 8d 05 0b 1d 01 00 	lea    0x11d0b(%rip),%rax        # 1a568 <g_429+0xa8>
    885d:	48 89 85 10 ff ff ff 	mov    %rax,-0xf0(%rbp)
    8864:	48 c7 85 18 ff ff ff 	movq   $0x0,-0xe8(%rbp)
    886b:	00 00 00 00 
    886f:	48 8d 05 f2 1c 01 00 	lea    0x11cf2(%rip),%rax        # 1a568 <g_429+0xa8>
    8876:	48 89 85 20 ff ff ff 	mov    %rax,-0xe0(%rbp)
    887d:	48 c7 85 28 ff ff ff 	movq   $0x0,-0xd8(%rbp)
    8884:	00 00 00 00 
    8888:	48 8d 85 80 f3 ff ff 	lea    -0xc80(%rbp),%rax
    888f:	48 83 c0 10          	add    $0x10,%rax
    8893:	48 89 85 30 ff ff ff 	mov    %rax,-0xd0(%rbp)
    889a:	48 c7 85 38 ff ff ff 	movq   $0x0,-0xc8(%rbp)
    88a1:	00 00 00 00 
    88a5:	48 8d 85 80 f3 ff ff 	lea    -0xc80(%rbp),%rax
    88ac:	48 83 c0 10          	add    $0x10,%rax
    88b0:	48 89 85 40 ff ff ff 	mov    %rax,-0xc0(%rbp)
    88b7:	48 8d 05 32 1d 01 00 	lea    0x11d32(%rip),%rax        # 1a5f0 <g_429+0x130>
    88be:	48 89 85 48 ff ff ff 	mov    %rax,-0xb8(%rbp)
    88c5:	48 8d 85 80 f3 ff ff 	lea    -0xc80(%rbp),%rax
    88cc:	48 89 85 50 ff ff ff 	mov    %rax,-0xb0(%rbp)
    88d3:	48 8d 05 56 1d 01 00 	lea    0x11d56(%rip),%rax        # 1a630 <g_429+0x170>
    88da:	48 89 85 58 ff ff ff 	mov    %rax,-0xa8(%rbp)
    88e1:	48 8d 05 88 1c 01 00 	lea    0x11c88(%rip),%rax        # 1a570 <g_429+0xb0>
    88e8:	48 89 85 60 ff ff ff 	mov    %rax,-0xa0(%rbp)
    88ef:	48 8d 85 80 f3 ff ff 	lea    -0xc80(%rbp),%rax
    88f6:	48 83 c0 10          	add    $0x10,%rax
    88fa:	48 89 85 68 ff ff ff 	mov    %rax,-0x98(%rbp)
    8901:	48 8d 85 80 f3 ff ff 	lea    -0xc80(%rbp),%rax
    8908:	48 83 c0 20          	add    $0x20,%rax
    890c:	48 89 85 70 ff ff ff 	mov    %rax,-0x90(%rbp)
    8913:	48 8d 85 80 f3 ff ff 	lea    -0xc80(%rbp),%rax
    891a:	48 83 c0 20          	add    $0x20,%rax
    891e:	48 89 85 78 ff ff ff 	mov    %rax,-0x88(%rbp)
    8925:	48 8d 85 80 f3 ff ff 	lea    -0xc80(%rbp),%rax
    892c:	48 83 c0 18          	add    $0x18,%rax
    8930:	48 89 45 80          	mov    %rax,-0x80(%rbp)
    8934:	48 8d 85 80 f3 ff ff 	lea    -0xc80(%rbp),%rax
    893b:	48 83 c0 18          	add    $0x18,%rax
    893f:	48 89 45 88          	mov    %rax,-0x78(%rbp)
    8943:	48 8d 85 80 f3 ff ff 	lea    -0xc80(%rbp),%rax
    894a:	48 83 c0 10          	add    $0x10,%rax
    894e:	48 89 45 90          	mov    %rax,-0x70(%rbp)
    8952:	48 8d 85 80 f3 ff ff 	lea    -0xc80(%rbp),%rax
    8959:	48 83 c0 18          	add    $0x18,%rax
    895d:	48 89 45 98          	mov    %rax,-0x68(%rbp)
    8961:	48 8d 85 80 f3 ff ff 	lea    -0xc80(%rbp),%rax
    8968:	48 83 c0 18          	add    $0x18,%rax
    896c:	48 89 45 a0          	mov    %rax,-0x60(%rbp)
    8970:	48 c7 45 a8 00 00 00 	movq   $0x0,-0x58(%rbp)
    8977:	00 
    8978:	48 8d 85 80 f3 ff ff 	lea    -0xc80(%rbp),%rax
    897f:	48 83 c0 10          	add    $0x10,%rax
    8983:	48 89 45 b0          	mov    %rax,-0x50(%rbp)
    8987:	c7 85 08 f2 ff ff f8 	movl   $0xfffffff8,-0xdf8(%rbp)
    898e:	ff ff ff 
    8991:	c6 85 0c f2 ff ff 2d 	movb   $0x2d,-0xdf4(%rbp)
    8998:	48 b8 23 19 bb 69 ae 	movabs $0xa8a30bae69bb1923,%rax
    899f:	0b a3 a8 
    89a2:	48 89 85 a0 f4 ff ff 	mov    %rax,-0xb60(%rbp)
    89a9:	48 bb a6 b8 ed 0e 40 	movabs $0x4c8ee1400eedb8a6,%rbx
    89b0:	e1 8e 4c 
    89b3:	48 89 9d a8 f4 ff ff 	mov    %rbx,-0xb58(%rbp)
    89ba:	48 b9 0d d8 67 fb eb 	movabs $0xddb513ebfb67d80d,%rcx
    89c1:	13 b5 dd 
    89c4:	48 89 8d b0 f4 ff ff 	mov    %rcx,-0xb50(%rbp)
    89cb:	48 c7 85 b8 f4 ff ff 	movq   $0x7,-0xb48(%rbp)
    89d2:	07 00 00 00 
    89d6:	48 89 9d c0 f4 ff ff 	mov    %rbx,-0xb40(%rbp)
    89dd:	48 c7 85 c8 f4 ff ff 	movq   $0x7,-0xb38(%rbp)
    89e4:	07 00 00 00 
    89e8:	48 89 8d d0 f4 ff ff 	mov    %rcx,-0xb30(%rbp)
    89ef:	48 89 9d d8 f4 ff ff 	mov    %rbx,-0xb28(%rbp)
    89f6:	48 89 85 e0 f4 ff ff 	mov    %rax,-0xb20(%rbp)
    89fd:	48 89 85 e8 f4 ff ff 	mov    %rax,-0xb18(%rbp)
    8a04:	48 89 85 f0 f4 ff ff 	mov    %rax,-0xb10(%rbp)
    8a0b:	48 89 9d f8 f4 ff ff 	mov    %rbx,-0xb08(%rbp)
    8a12:	48 89 8d 00 f5 ff ff 	mov    %rcx,-0xb00(%rbp)
    8a19:	48 c7 85 08 f5 ff ff 	movq   $0x7,-0xaf8(%rbp)
    8a20:	07 00 00 00 
    8a24:	48 89 9d 10 f5 ff ff 	mov    %rbx,-0xaf0(%rbp)
    8a2b:	48 c7 85 18 f5 ff ff 	movq   $0x7,-0xae8(%rbp)
    8a32:	07 00 00 00 
    8a36:	48 89 8d 20 f5 ff ff 	mov    %rcx,-0xae0(%rbp)
    8a3d:	48 89 9d 28 f5 ff ff 	mov    %rbx,-0xad8(%rbp)
    8a44:	48 89 85 30 f5 ff ff 	mov    %rax,-0xad0(%rbp)
    8a4b:	48 89 85 38 f5 ff ff 	mov    %rax,-0xac8(%rbp)
    8a52:	48 89 85 40 f5 ff ff 	mov    %rax,-0xac0(%rbp)
    8a59:	48 89 9d 48 f5 ff ff 	mov    %rbx,-0xab8(%rbp)
    8a60:	48 89 8d 50 f5 ff ff 	mov    %rcx,-0xab0(%rbp)
    8a67:	48 c7 85 58 f5 ff ff 	movq   $0x7,-0xaa8(%rbp)
    8a6e:	07 00 00 00 
    8a72:	48 c7 85 10 f1 ff ff 	movq   $0x0,-0xef0(%rbp)
    8a79:	00 00 00 00 
    8a7d:	48 8d 05 04 ff 00 00 	lea    0xff04(%rip),%rax        # 18988 <g_902>
    8a84:	48 89 85 18 f1 ff ff 	mov    %rax,-0xee8(%rbp)
    8a8b:	48 8d 05 e6 25 01 00 	lea    0x125e6(%rip),%rax        # 1b078 <g_1196>
    8a92:	48 89 85 20 f1 ff ff 	mov    %rax,-0xee0(%rbp)
    8a99:	48 8d 05 a8 fa 00 00 	lea    0xfaa8(%rip),%rax        # 18548 <g_264>
    8aa0:	48 89 85 28 f1 ff ff 	mov    %rax,-0xed8(%rbp)
    8aa7:	48 c7 85 30 f1 ff ff 	movq   $0x0,-0xed0(%rbp)
    8aae:	00 00 00 00 
    8ab2:	48 8d 85 44 f0 ff ff 	lea    -0xfbc(%rbp),%rax
    8ab9:	48 89 85 38 f1 ff ff 	mov    %rax,-0xec8(%rbp)
    8ac0:	c6 85 3c f0 ff ff 07 	movb   $0x7,-0xfc4(%rbp)
    8ac7:	c7 85 94 f0 ff ff ff 	movl   $0xffffffff,-0xf6c(%rbp)
    8ace:	ff ff ff 
    8ad1:	48 8d 05 d8 f5 00 00 	lea    0xf5d8(%rip),%rax        # 180b0 <g_61>
    8ad8:	48 89 85 40 f1 ff ff 	mov    %rax,-0xec0(%rbp)
    8adf:	48 b8 4f fb f1 52 f2 	movabs $0xa8f4a3f252f1fb4f,%rax
    8ae6:	a3 f4 a8 
    8ae9:	48 89 85 48 f1 ff ff 	mov    %rax,-0xeb8(%rbp)
    8af0:	48 8d 05 49 20 01 00 	lea    0x12049(%rip),%rax        # 1ab40 <g_1589>
    8af7:	48 89 85 50 f1 ff ff 	mov    %rax,-0xeb0(%rbp)
    8afe:	66 c7 85 4c f0 ff ff 	movw   $0x826f,-0xfb4(%rbp)
    8b05:	6f 82 
    8b07:	c7 85 98 f0 ff ff 75 	movl   $0x3cf19375,-0xf68(%rbp)
    8b0e:	93 f1 3c 
    8b11:	c7 85 9c f0 ff ff 4b 	movl   $0xa7edea4b,-0xf64(%rbp)
    8b18:	ea ed a7 
    8b1b:	c7 85 a0 f0 ff ff ff 	movl   $0xffffffff,-0xf60(%rbp)
    8b22:	ff ff ff 
    8b25:	c7 85 a4 f0 ff ff 00 	movl   $0x0,-0xf5c(%rbp)
    8b2c:	00 00 00 
    8b2f:	c7 85 a8 f0 ff ff 1a 	movl   $0xef03441a,-0xf58(%rbp)
    8b36:	44 03 ef 
    8b39:	c7 85 ac f0 ff ff fe 	movl   $0xfffffffe,-0xf54(%rbp)
    8b40:	ff ff ff 
    8b43:	66 c7 85 4e f0 ff ff 	movw   $0x57,-0xfb2(%rbp)
    8b4a:	57 00 
    8b4c:	48 8d 85 e0 f0 ff ff 	lea    -0xf20(%rbp),%rax
    8b53:	48 89 85 58 f1 ff ff 	mov    %rax,-0xea8(%rbp)
    8b5a:	c7 85 74 f0 ff ff 00 	movl   $0x0,-0xf8c(%rbp)
    8b61:	00 00 00 
    8b64:	eb 1e                	jmp    8b84 <func_1+0x13cf>
    8b66:	8b 85 74 f0 ff ff    	mov    -0xf8c(%rbp),%eax
    8b6c:	48 98                	cltq   
    8b6e:	48 8d 15 0b a5 00 00 	lea    0xa50b(%rip),%rdx        # 13080 <g_1899>
    8b75:	48 89 94 c5 00 f3 ff 	mov    %rdx,-0xd00(%rbp,%rax,8)
    8b7c:	ff 
    8b7d:	83 85 74 f0 ff ff 01 	addl   $0x1,-0xf8c(%rbp)
    8b84:	83 bd 74 f0 ff ff 06 	cmpl   $0x6,-0xf8c(%rbp)
    8b8b:	7e d9                	jle    8b66 <func_1+0x13b1>
    8b8d:	c7 85 74 f0 ff ff 00 	movl   $0x0,-0xf8c(%rbp)
    8b94:	00 00 00 
    8b97:	eb 22                	jmp    8bbb <func_1+0x1406>
    8b99:	8b 85 74 f0 ff ff    	mov    -0xf8c(%rbp),%eax
    8b9f:	48 98                	cltq   
    8ba1:	48 8d 95 00 f3 ff ff 	lea    -0xd00(%rbp),%rdx
    8ba8:	48 83 c2 18          	add    $0x18,%rdx
    8bac:	48 89 94 c5 00 f4 ff 	mov    %rdx,-0xc00(%rbp,%rax,8)
    8bb3:	ff 
    8bb4:	83 85 74 f0 ff ff 01 	addl   $0x1,-0xf8c(%rbp)
    8bbb:	83 bd 74 f0 ff ff 08 	cmpl   $0x8,-0xf8c(%rbp)
    8bc2:	7e d5                	jle    8b99 <func_1+0x13e4>
    8bc4:	b8 03 00 00 00       	mov    $0x3,%eax
    8bc9:	0f b6 d8             	movzbl %al,%ebx
    8bcc:	48 83 bd f0 f0 ff ff 	cmpq   $0x0,-0xf10(%rbp)
    8bd3:	00 
    8bd4:	0f 94 c0             	sete   %al
    8bd7:	0f b6 c0             	movzbl %al,%eax
    8bda:	89 85 60 f0 ff ff    	mov    %eax,-0xfa0(%rbp)
    8be0:	8b 85 60 f0 ff ff    	mov    -0xfa0(%rbp),%eax
    8be6:	0f b7 c0             	movzwl %ax,%eax
    8be9:	be 03 00 00 00       	mov    $0x3,%esi
    8bee:	89 c7                	mov    %eax,%edi
    8bf0:	e8 48 e1 ff ff       	callq  6d3d <safe_mul_func_uint16_t_u_u>
    8bf5:	0f b7 d0             	movzwl %ax,%edx
    8bf8:	0f b7 85 44 f0 ff ff 	movzwl -0xfbc(%rbp),%eax
    8bff:	98                   	cwtl   
    8c00:	21 d0                	and    %edx,%eax
    8c02:	85 c0                	test   %eax,%eax
    8c04:	75 24                	jne    8c2a <func_1+0x1475>
    8c06:	48 8b 85 90 f3 ff ff 	mov    -0xc70(%rbp),%rax
    8c0d:	48 89 85 a0 f3 ff ff 	mov    %rax,-0xc60(%rbp)
    8c14:	48 8b 95 a0 f3 ff ff 	mov    -0xc60(%rbp),%rdx
    8c1b:	48 8b 05 26 1a 01 00 	mov    0x11a26(%rip),%rax        # 1a648 <g_428>
    8c22:	48 8b 00             	mov    (%rax),%rax
    8c25:	48 39 c2             	cmp    %rax,%rdx
    8c28:	74 08                	je     8c32 <func_1+0x147d>
    8c2a:	41 bc 01 00 00 00    	mov    $0x1,%r12d
    8c30:	eb 06                	jmp    8c38 <func_1+0x1483>
    8c32:	41 bc 00 00 00 00    	mov    $0x0,%r12d
    8c38:	8b 05 7e fe 00 00    	mov    0xfe7e(%rip),%eax        # 18abc <g_1189>
    8c3e:	98                   	cwtl   
    8c3f:	89 c6                	mov    %eax,%esi
    8c41:	bf 01 00 00 00       	mov    $0x1,%edi
    8c46:	e8 cb d7 ff ff       	callq  6416 <safe_mod_func_int16_t_s_s>
    8c4b:	98                   	cwtl   
    8c4c:	41 39 c4             	cmp    %eax,%r12d
    8c4f:	0f 9f c0             	setg   %al
    8c52:	0f b6 d0             	movzbl %al,%edx
    8c55:	48 8b 85 48 f5 ff ff 	mov    -0xab8(%rbp),%rax
    8c5c:	48 39 c2             	cmp    %rax,%rdx
    8c5f:	0f 95 c0             	setne  %al
    8c62:	0f b6 d0             	movzbl %al,%edx
    8c65:	48 8b 85 48 f5 ff ff 	mov    -0xab8(%rbp),%rax
    8c6c:	48 31 d0             	xor    %rdx,%rax
    8c6f:	8b 95 08 f2 ff ff    	mov    -0xdf8(%rbp),%edx
    8c75:	89 d2                	mov    %edx,%edx
    8c77:	48 39 d0             	cmp    %rdx,%rax
    8c7a:	0f 9e c0             	setle  %al
    8c7d:	0f b6 c0             	movzbl %al,%eax
    8c80:	89 de                	mov    %ebx,%esi
    8c82:	89 c7                	mov    %eax,%edi
    8c84:	e8 6c d7 ff ff       	callq  63f5 <safe_mul_func_int16_t_s_s>
    8c89:	0f b7 95 44 f0 ff ff 	movzwl -0xfbc(%rbp),%edx
    8c90:	66 39 d0             	cmp    %dx,%ax
    8c93:	0f 9d c2             	setge  %dl
    8c96:	48 8b 05 db 13 01 00 	mov    0x113db(%rip),%rax        # 1a078 <g_163>
    8c9d:	48 8b 00             	mov    (%rax),%rax
    8ca0:	48 8b 00             	mov    (%rax),%rax
    8ca3:	0f b6 d2             	movzbl %dl,%edx
    8ca6:	89 10                	mov    %edx,(%rax)
    8ca8:	48 8b 85 e8 f0 ff ff 	mov    -0xf18(%rbp),%rax
    8caf:	0f bf d8             	movswl %ax,%ebx
    8cb2:	48 8b 05 0f 03 01 00 	mov    0x1030f(%rip),%rax        # 18fc8 <g_1491>
    8cb9:	8b 05 1d 00 01 00    	mov    0x1001d(%rip),%eax        # 18cdc <g_1382+0x4>
    8cbf:	c1 e0 0c             	shl    $0xc,%eax
    8cc2:	c1 f8 0c             	sar    $0xc,%eax
    8cc5:	4c 63 e0             	movslq %eax,%r12
    8cc8:	48 8b 05 59 00 01 00 	mov    0x10059(%rip),%rax        # 18d28 <g_1419+0x8>
    8ccf:	48 8b 05 92 13 01 00 	mov    0x11392(%rip),%rax        # 1a068 <g_151>
    8cd6:	8b 00                	mov    (%rax),%eax
    8cd8:	83 f0 01             	xor    $0x1,%eax
    8cdb:	89 c2                	mov    %eax,%edx
    8cdd:	8b 85 50 f0 ff ff    	mov    -0xfb0(%rbp),%eax
    8ce3:	21 d0                	and    %edx,%eax
    8ce5:	89 c6                	mov    %eax,%esi
    8ce7:	bf 04 00 00 00       	mov    $0x4,%edi
    8cec:	e8 5b df ff ff       	callq  6c4c <safe_lshift_func_uint8_t_u_u>
    8cf1:	48 8b 95 20 f1 ff ff 	mov    -0xee0(%rbp),%rdx
    8cf8:	48 8b 12             	mov    (%rdx),%rdx
    8cfb:	0f b6 c0             	movzbl %al,%eax
    8cfe:	48 31 c2             	xor    %rax,%rdx
    8d01:	48 8b 85 20 f1 ff ff 	mov    -0xee0(%rbp),%rax
    8d08:	48 89 10             	mov    %rdx,(%rax)
    8d0b:	48 8b 85 20 f1 ff ff 	mov    -0xee0(%rbp),%rax
    8d12:	48 8b 00             	mov    (%rax),%rax
    8d15:	48 8b 95 a0 f4 ff ff 	mov    -0xb60(%rbp),%rdx
    8d1c:	48 39 d0             	cmp    %rdx,%rax
    8d1f:	0f 96 c0             	setbe  %al
    8d22:	0f b6 c0             	movzbl %al,%eax
    8d25:	4c 89 e6             	mov    %r12,%rsi
    8d28:	48 89 c7             	mov    %rax,%rdi
    8d2b:	e8 c7 dc ff ff       	callq  69f7 <safe_div_func_int64_t_s_s>
    8d30:	98                   	cwtl   
    8d31:	89 c6                	mov    %eax,%esi
    8d33:	bf 00 00 00 00       	mov    $0x0,%edi
    8d38:	e8 76 d6 ff ff       	callq  63b3 <safe_add_func_int16_t_s_s>
    8d3d:	48 0f bf d0          	movswq %ax,%rdx
    8d41:	48 8b 85 c0 f0 ff ff 	mov    -0xf40(%rbp),%rax
    8d48:	48 31 d0             	xor    %rdx,%rax
    8d4b:	48 83 f8 7a          	cmp    $0x7a,%rax
    8d4f:	8b 85 60 f0 ff ff    	mov    -0xfa0(%rbp),%eax
    8d55:	85 c0                	test   %eax,%eax
    8d57:	0f 9f c0             	setg   %al
    8d5a:	0f b6 d0             	movzbl %al,%edx
    8d5d:	48 8b 85 28 f1 ff ff 	mov    -0xed8(%rbp),%rax
    8d64:	66 89 10             	mov    %dx,(%rax)
    8d67:	48 8b 85 28 f1 ff ff 	mov    -0xed8(%rbp),%rax
    8d6e:	0f b7 10             	movzwl (%rax),%edx
    8d71:	48 8b 85 38 f1 ff ff 	mov    -0xec8(%rbp),%rax
    8d78:	0f b7 00             	movzwl (%rax),%eax
    8d7b:	21 c2                	and    %eax,%edx
    8d7d:	48 8b 85 38 f1 ff ff 	mov    -0xec8(%rbp),%rax
    8d84:	66 89 10             	mov    %dx,(%rax)
    8d87:	48 8b 85 38 f1 ff ff 	mov    -0xec8(%rbp),%rax
    8d8e:	0f b7 00             	movzwl (%rax),%eax
    8d91:	98                   	cwtl   
    8d92:	89 de                	mov    %ebx,%esi
    8d94:	89 c7                	mov    %eax,%edi
    8d96:	e8 38 d6 ff ff       	callq  63d3 <safe_sub_func_int16_t_s_s>
    8d9b:	66 85 c0             	test   %ax,%ax
    8d9e:	0f 84 32 0c 00 00    	je     99d6 <func_1+0x2221>
    8da4:	c7 85 b0 f0 ff ff 77 	movl   $0xc90eb877,-0xf50(%rbp)
    8dab:	b8 0e c9 
    8dae:	c6 85 3d f0 ff ff ff 	movb   $0xff,-0xfc3(%rbp)
    8db5:	c6 85 3f f0 ff ff fc 	movb   $0xfc,-0xfc1(%rbp)
    8dbc:	48 8d 85 60 f8 ff ff 	lea    -0x7a0(%rbp),%rax
    8dc3:	48 8d 15 96 04 01 00 	lea    0x10496(%rip),%rdx        # 19260 <g_1904+0x170>
    8dca:	b9 3c 00 00 00       	mov    $0x3c,%ecx
    8dcf:	48 89 c7             	mov    %rax,%rdi
    8dd2:	48 89 d6             	mov    %rdx,%rsi
    8dd5:	f3 48 a5             	rep movsq %ds:(%rsi),%es:(%rdi)
    8dd8:	48 8d 85 60 f8 ff ff 	lea    -0x7a0(%rbp),%rax
    8ddf:	48 05 c0 00 00 00    	add    $0xc0,%rax
    8de5:	48 89 85 d0 f2 ff ff 	mov    %rax,-0xd30(%rbp)
    8dec:	48 8d 85 60 f8 ff ff 	lea    -0x7a0(%rbp),%rax
    8df3:	48 05 c0 00 00 00    	add    $0xc0,%rax
    8df9:	48 89 85 d8 f2 ff ff 	mov    %rax,-0xd28(%rbp)
    8e00:	48 8d 85 60 f8 ff ff 	lea    -0x7a0(%rbp),%rax
    8e07:	48 05 c0 00 00 00    	add    $0xc0,%rax
    8e0d:	48 89 85 e0 f2 ff ff 	mov    %rax,-0xd20(%rbp)
    8e14:	48 8d 85 60 f8 ff ff 	lea    -0x7a0(%rbp),%rax
    8e1b:	48 05 c0 00 00 00    	add    $0xc0,%rax
    8e21:	48 89 85 e8 f2 ff ff 	mov    %rax,-0xd18(%rbp)
    8e28:	48 8d 85 60 f8 ff ff 	lea    -0x7a0(%rbp),%rax
    8e2f:	48 05 c0 00 00 00    	add    $0xc0,%rax
    8e35:	48 89 85 f0 f2 ff ff 	mov    %rax,-0xd10(%rbp)
    8e3c:	48 8d 85 60 f8 ff ff 	lea    -0x7a0(%rbp),%rax
    8e43:	48 05 c0 00 00 00    	add    $0xc0,%rax
    8e49:	48 89 85 f8 f2 ff ff 	mov    %rax,-0xd08(%rbp)
    8e50:	c6 85 40 f0 ff ff 2f 	movb   $0x2f,-0xfc0(%rbp)
    8e57:	8b 05 5f fb 00 00    	mov    0xfb5f(%rip),%eax        # 189bc <g_987+0x1c>
    8e5d:	85 c0                	test   %eax,%eax
    8e5f:	0f 84 11 07 00 00    	je     9576 <func_1+0x1dc1>
    8e65:	48 8b 05 64 fc 00 00 	mov    0xfc64(%rip),%rax        # 18ad0 <g_1194+0x10>
    8e6c:	25 ff ff ff 3f       	and    $0x3fffffff,%eax
    8e71:	85 c0                	test   %eax,%eax
    8e73:	0f 95 c0             	setne  %al
    8e76:	0f b6 d0             	movzbl %al,%edx
    8e79:	8b 85 58 f0 ff ff    	mov    -0xfa8(%rbp),%eax
    8e7f:	0f be c0             	movsbl %al,%eax
    8e82:	89 d6                	mov    %edx,%esi
    8e84:	89 c7                	mov    %eax,%edi
    8e86:	e8 e1 d4 ff ff       	callq  636c <safe_rshift_func_int8_t_s_u>
    8e8b:	0f be c0             	movsbl %al,%eax
    8e8e:	39 85 b0 f0 ff ff    	cmp    %eax,-0xf50(%rbp)
    8e94:	0f 82 dc 06 00 00    	jb     9576 <func_1+0x1dc1>
    8e9a:	48 8b 05 cf 21 01 00 	mov    0x121cf(%rip),%rax        # 1b070 <g_1192>
    8ea1:	48 85 c0             	test   %rax,%rax
    8ea4:	0f 95 c0             	setne  %al
    8ea7:	0f b6 c0             	movzbl %al,%eax
    8eaa:	89 c7                	mov    %eax,%edi
    8eac:	e8 38 de ff ff       	callq  6ce9 <safe_unary_minus_func_uint16_t_u>
    8eb1:	0f b7 d0             	movzwl %ax,%edx
    8eb4:	0f b7 05 dd f7 00 00 	movzwl 0xf7dd(%rip),%eax        # 18698 <g_493+0x8>
    8ebb:	c1 e0 04             	shl    $0x4,%eax
    8ebe:	66 c1 f8 04          	sar    $0x4,%ax
    8ec2:	98                   	cwtl   
    8ec3:	39 c2                	cmp    %eax,%edx
    8ec5:	0f 85 ab 06 00 00    	jne    9576 <func_1+0x1dc1>
    8ecb:	48 c7 85 50 f2 ff ff 	movq   $0x0,-0xdb0(%rbp)
    8ed2:	00 00 00 00 
    8ed6:	48 c7 85 58 f2 ff ff 	movq   $0x0,-0xda8(%rbp)
    8edd:	00 00 00 00 
    8ee1:	48 c7 85 60 f2 ff ff 	movq   $0x0,-0xda0(%rbp)
    8ee8:	00 00 00 00 
    8eec:	48 c7 85 68 f2 ff ff 	movq   $0x0,-0xd98(%rbp)
    8ef3:	00 00 00 00 
    8ef7:	c7 85 b4 f0 ff ff eb 	movl   $0xfe2cf2eb,-0xf4c(%rbp)
    8efe:	f2 2c fe 
    8f01:	48 8d 05 70 21 01 00 	lea    0x12170(%rip),%rax        # 1b078 <g_1196>
    8f08:	48 89 85 60 f1 ff ff 	mov    %rax,-0xea0(%rbp)
    8f0f:	48 8d 45 bf          	lea    -0x41(%rbp),%rax
    8f13:	48 89 85 68 f1 ff ff 	mov    %rax,-0xe98(%rbp)
    8f1a:	48 8d 05 40 f4 00 00 	lea    0xf440(%rip),%rax        # 18361 <g_139>
    8f21:	48 89 85 70 f1 ff ff 	mov    %rax,-0xe90(%rbp)
    8f28:	c7 85 78 f0 ff ff 00 	movl   $0x0,-0xf88(%rbp)
    8f2f:	00 00 00 
    8f32:	eb 1a                	jmp    8f4e <func_1+0x1799>
    8f34:	8b 85 78 f0 ff ff    	mov    -0xf88(%rbp),%eax
    8f3a:	48 98                	cltq   
    8f3c:	c7 84 85 30 f2 ff ff 	movl   $0x5bfd33b2,-0xdd0(%rbp,%rax,4)
    8f43:	b2 33 fd 5b 
    8f47:	83 85 78 f0 ff ff 01 	addl   $0x1,-0xf88(%rbp)
    8f4e:	83 bd 78 f0 ff ff 06 	cmpl   $0x6,-0xf88(%rbp)
    8f55:	7e dd                	jle    8f34 <func_1+0x177f>
    8f57:	c7 85 78 f0 ff ff 00 	movl   $0x0,-0xf88(%rbp)
    8f5e:	00 00 00 
    8f61:	eb 14                	jmp    8f77 <func_1+0x17c2>
    8f63:	8b 85 78 f0 ff ff    	mov    -0xf88(%rbp),%eax
    8f69:	48 98                	cltq   
    8f6b:	c6 44 05 bf 01       	movb   $0x1,-0x41(%rbp,%rax,1)
    8f70:	83 85 78 f0 ff ff 01 	addl   $0x1,-0xf88(%rbp)
    8f77:	83 bd 78 f0 ff ff 01 	cmpl   $0x1,-0xf88(%rbp)
    8f7e:	7e e3                	jle    8f63 <func_1+0x17ae>
    8f80:	48 8b 15 c9 16 01 00 	mov    0x116c9(%rip),%rdx        # 1a650 <g_497>
    8f87:	48 8b 05 c2 19 01 00 	mov    0x119c2(%rip),%rax        # 1a950 <g_1300>
    8f8e:	48 8b 12             	mov    (%rdx),%rdx
    8f91:	48 89 10             	mov    %rdx,(%rax)
    8f94:	8b 85 b4 f0 ff ff    	mov    -0xf4c(%rbp),%eax
    8f9a:	39 85 b0 f0 ff ff    	cmp    %eax,-0xf50(%rbp)
    8fa0:	0f 94 c0             	sete   %al
    8fa3:	0f b6 d0             	movzbl %al,%edx
    8fa6:	0f b7 05 d3 f9 00 00 	movzwl 0xf9d3(%rip),%eax        # 18980 <g_849+0x8>
    8fad:	c1 e0 04             	shl    $0x4,%eax
    8fb0:	66 c1 f8 04          	sar    $0x4,%ax
    8fb4:	0f bf c8             	movswl %ax,%ecx
    8fb7:	8b 85 60 f0 ff ff    	mov    -0xfa0(%rbp),%eax
    8fbd:	31 c8                	xor    %ecx,%eax
    8fbf:	89 85 60 f0 ff ff    	mov    %eax,-0xfa0(%rbp)
    8fc5:	8b 85 60 f0 ff ff    	mov    -0xfa0(%rbp),%eax
    8fcb:	0f b7 c0             	movzwl %ax,%eax
    8fce:	89 d6                	mov    %edx,%esi
    8fd0:	89 c7                	mov    %eax,%edi
    8fd2:	e8 28 dd ff ff       	callq  6cff <safe_add_func_uint16_t_u_u>
    8fd7:	81 bd 68 f0 ff ff eb 	cmpl   $0xeb,-0xf98(%rbp)
    8fde:	00 00 00 
    8fe1:	0f 95 c0             	setne  %al
    8fe4:	0f b6 d0             	movzbl %al,%edx
    8fe7:	0f b6 05 c2 f0 00 00 	movzbl 0xf0c2(%rip),%eax        # 180b0 <g_61>
    8fee:	83 e8 01             	sub    $0x1,%eax
    8ff1:	88 05 b9 f0 00 00    	mov    %al,0xf0b9(%rip)        # 180b0 <g_61>
    8ff7:	0f b6 05 b2 f0 00 00 	movzbl 0xf0b2(%rip),%eax        # 180b0 <g_61>
    8ffe:	84 c0                	test   %al,%al
    9000:	0f 94 c0             	sete   %al
    9003:	0f b6 c0             	movzbl %al,%eax
    9006:	39 c2                	cmp    %eax,%edx
    9008:	0f 9d c2             	setge  %dl
    900b:	8b 05 0f fe 00 00    	mov    0xfe0f(%rip),%eax        # 18e20 <g_1440+0x8>
    9011:	c1 e0 0f             	shl    $0xf,%eax
    9014:	c1 f8 1b             	sar    $0x1b,%eax
    9017:	3c f9                	cmp    $0xf9,%al
    9019:	0f 9c c0             	setl   %al
    901c:	09 d0                	or     %edx,%eax
    901e:	84 c0                	test   %al,%al
    9020:	74 57                	je     9079 <func_1+0x18c4>
    9022:	48 c7 85 c0 f0 ff ff 	movq   $0x0,-0xf40(%rbp)
    9029:	00 00 00 00 
    902d:	eb 1b                	jmp    904a <func_1+0x1895>
    902f:	83 bd b4 f0 ff ff 00 	cmpl   $0x0,-0xf4c(%rbp)
    9036:	75 21                	jne    9059 <func_1+0x18a4>
    9038:	48 8b 85 c0 f0 ff ff 	mov    -0xf40(%rbp),%rax
    903f:	48 83 c0 01          	add    $0x1,%rax
    9043:	48 89 85 c0 f0 ff ff 	mov    %rax,-0xf40(%rbp)
    904a:	48 8b 85 c0 f0 ff ff 	mov    -0xf40(%rbp),%rax
    9051:	48 83 f8 14          	cmp    $0x14,%rax
    9055:	74 d8                	je     902f <func_1+0x187a>
    9057:	eb 01                	jmp    905a <func_1+0x18a5>
    9059:	90                   	nop
    905a:	48 8b 05 97 ff 00 00 	mov    0xff97(%rip),%rax        # 18ff8 <g_1518+0x18>
    9061:	48 89 85 10 f2 ff ff 	mov    %rax,-0xdf0(%rbp)
    9068:	8b 05 92 ff 00 00    	mov    0xff92(%rip),%eax        # 19000 <g_1518+0x20>
    906e:	89 85 18 f2 ff ff    	mov    %eax,-0xde8(%rbp)
    9074:	e9 42 0b 00 00       	jmpq   9bbb <func_1+0x2406>
    9079:	48 8d 85 50 f0 ff ff 	lea    -0xfb0(%rbp),%rax
    9080:	48 89 85 78 f1 ff ff 	mov    %rax,-0xe88(%rbp)
    9087:	48 8d 05 f6 ef 00 00 	lea    0xeff6(%rip),%rax        # 18084 <g_11+0x24>
    908e:	48 89 85 80 f1 ff ff 	mov    %rax,-0xe80(%rbp)
    9095:	48 8d 05 10 f0 00 00 	lea    0xf010(%rip),%rax        # 180ac <g_48>
    909c:	48 89 85 88 f1 ff ff 	mov    %rax,-0xe78(%rbp)
    90a3:	48 8d 05 7a ef 00 00 	lea    0xef7a(%rip),%rax        # 18024 <g_2>
    90aa:	48 89 85 90 f1 ff ff 	mov    %rax,-0xe70(%rbp)
    90b1:	48 8d 85 60 f0 ff ff 	lea    -0xfa0(%rbp),%rax
    90b8:	48 89 85 98 f1 ff ff 	mov    %rax,-0xe68(%rbp)
    90bf:	48 8d 05 82 ef 00 00 	lea    0xef82(%rip),%rax        # 18048 <g_7+0x18>
    90c6:	48 89 85 a0 f1 ff ff 	mov    %rax,-0xe60(%rbp)
    90cd:	48 8d 05 b0 ef 00 00 	lea    0xefb0(%rip),%rax        # 18084 <g_11+0x24>
    90d4:	48 89 85 a8 f1 ff ff 	mov    %rax,-0xe58(%rbp)
    90db:	48 8d 05 de fb 00 00 	lea    0xfbde(%rip),%rax        # 18cc0 <g_1359>
    90e2:	48 89 85 b0 f1 ff ff 	mov    %rax,-0xe50(%rbp)
    90e9:	48 8d 85 5c f0 ff ff 	lea    -0xfa4(%rbp),%rax
    90f0:	48 89 85 b8 f1 ff ff 	mov    %rax,-0xe48(%rbp)
    90f7:	48 8d 05 42 1f 01 00 	lea    0x11f42(%rip),%rax        # 1b040 <g_89>
    90fe:	48 89 85 c0 f1 ff ff 	mov    %rax,-0xe40(%rbp)
    9105:	48 8d 85 50 f0 ff ff 	lea    -0xfb0(%rbp),%rax
    910c:	48 89 85 40 f3 ff ff 	mov    %rax,-0xcc0(%rbp)
    9113:	48 8d 85 50 f0 ff ff 	lea    -0xfb0(%rbp),%rax
    911a:	48 89 85 48 f3 ff ff 	mov    %rax,-0xcb8(%rbp)
    9121:	48 8d 85 58 f0 ff ff 	lea    -0xfa8(%rbp),%rax
    9128:	48 89 85 50 f3 ff ff 	mov    %rax,-0xcb0(%rbp)
    912f:	48 8d 85 50 f0 ff ff 	lea    -0xfb0(%rbp),%rax
    9136:	48 89 85 58 f3 ff ff 	mov    %rax,-0xca8(%rbp)
    913d:	48 8d 85 50 f0 ff ff 	lea    -0xfb0(%rbp),%rax
    9144:	48 89 85 60 f3 ff ff 	mov    %rax,-0xca0(%rbp)
    914b:	48 8d 85 58 f0 ff ff 	lea    -0xfa8(%rbp),%rax
    9152:	48 89 85 68 f3 ff ff 	mov    %rax,-0xc98(%rbp)
    9159:	48 8d 85 50 f0 ff ff 	lea    -0xfb0(%rbp),%rax
    9160:	48 89 85 70 f3 ff ff 	mov    %rax,-0xc90(%rbp)
    9167:	48 8d 05 4c f4 00 00 	lea    0xf44c(%rip),%rax        # 185ba <g_391+0x1a>
    916e:	48 89 85 40 f6 ff ff 	mov    %rax,-0x9c0(%rbp)
    9175:	48 8d 05 be f3 00 00 	lea    0xf3be(%rip),%rax        # 1853a <g_256+0x1a>
    917c:	48 89 85 48 f6 ff ff 	mov    %rax,-0x9b8(%rbp)
    9183:	48 8d 05 30 f4 00 00 	lea    0xf430(%rip),%rax        # 185ba <g_391+0x1a>
    918a:	48 89 85 50 f6 ff ff 	mov    %rax,-0x9b0(%rbp)
    9191:	48 8d 05 a2 f3 00 00 	lea    0xf3a2(%rip),%rax        # 1853a <g_256+0x1a>
    9198:	48 89 85 58 f6 ff ff 	mov    %rax,-0x9a8(%rbp)
    919f:	48 8d 05 14 f4 00 00 	lea    0xf414(%rip),%rax        # 185ba <g_391+0x1a>
    91a6:	48 89 85 60 f6 ff ff 	mov    %rax,-0x9a0(%rbp)
    91ad:	48 8d 05 86 f3 00 00 	lea    0xf386(%rip),%rax        # 1853a <g_256+0x1a>
    91b4:	48 89 85 68 f6 ff ff 	mov    %rax,-0x998(%rbp)
    91bb:	48 8d 05 f8 f3 00 00 	lea    0xf3f8(%rip),%rax        # 185ba <g_391+0x1a>
    91c2:	48 89 85 70 f6 ff ff 	mov    %rax,-0x990(%rbp)
    91c9:	48 8d 05 ea f3 00 00 	lea    0xf3ea(%rip),%rax        # 185ba <g_391+0x1a>
    91d0:	48 89 85 78 f6 ff ff 	mov    %rax,-0x988(%rbp)
    91d7:	48 8d 05 dc f3 00 00 	lea    0xf3dc(%rip),%rax        # 185ba <g_391+0x1a>
    91de:	48 89 85 80 f6 ff ff 	mov    %rax,-0x980(%rbp)
    91e5:	48 8d 05 4e f3 00 00 	lea    0xf34e(%rip),%rax        # 1853a <g_256+0x1a>
    91ec:	48 89 85 88 f6 ff ff 	mov    %rax,-0x978(%rbp)
    91f3:	48 8d 05 40 f3 00 00 	lea    0xf340(%rip),%rax        # 1853a <g_256+0x1a>
    91fa:	48 89 85 90 f6 ff ff 	mov    %rax,-0x970(%rbp)
    9201:	48 8d 05 b2 f3 00 00 	lea    0xf3b2(%rip),%rax        # 185ba <g_391+0x1a>
    9208:	48 89 85 98 f6 ff ff 	mov    %rax,-0x968(%rbp)
    920f:	48 8d 05 a4 f3 00 00 	lea    0xf3a4(%rip),%rax        # 185ba <g_391+0x1a>
    9216:	48 89 85 a0 f6 ff ff 	mov    %rax,-0x960(%rbp)
    921d:	48 8d 05 16 f3 00 00 	lea    0xf316(%rip),%rax        # 1853a <g_256+0x1a>
    9224:	48 89 85 a8 f6 ff ff 	mov    %rax,-0x958(%rbp)
    922b:	48 8d 05 2f f1 00 00 	lea    0xf12f(%rip),%rax        # 18361 <g_139>
    9232:	48 89 85 b0 f6 ff ff 	mov    %rax,-0x950(%rbp)
    9239:	48 8d 05 fa f2 00 00 	lea    0xf2fa(%rip),%rax        # 1853a <g_256+0x1a>
    9240:	48 89 85 b8 f6 ff ff 	mov    %rax,-0x948(%rbp)
    9247:	48 8d 05 13 f1 00 00 	lea    0xf113(%rip),%rax        # 18361 <g_139>
    924e:	48 89 85 c0 f6 ff ff 	mov    %rax,-0x940(%rbp)
    9255:	48 8d 05 de f2 00 00 	lea    0xf2de(%rip),%rax        # 1853a <g_256+0x1a>
    925c:	48 89 85 c8 f6 ff ff 	mov    %rax,-0x938(%rbp)
    9263:	48 8d 05 f7 f0 00 00 	lea    0xf0f7(%rip),%rax        # 18361 <g_139>
    926a:	48 89 85 d0 f6 ff ff 	mov    %rax,-0x930(%rbp)
    9271:	48 8d 05 c2 f2 00 00 	lea    0xf2c2(%rip),%rax        # 1853a <g_256+0x1a>
    9278:	48 89 85 d8 f6 ff ff 	mov    %rax,-0x928(%rbp)
    927f:	48 8d 05 db f0 00 00 	lea    0xf0db(%rip),%rax        # 18361 <g_139>
    9286:	48 89 85 e0 f6 ff ff 	mov    %rax,-0x920(%rbp)
    928d:	48 8d 05 26 f3 00 00 	lea    0xf326(%rip),%rax        # 185ba <g_391+0x1a>
    9294:	48 89 85 e8 f6 ff ff 	mov    %rax,-0x918(%rbp)
    929b:	48 8d 05 98 f2 00 00 	lea    0xf298(%rip),%rax        # 1853a <g_256+0x1a>
    92a2:	48 89 85 f0 f6 ff ff 	mov    %rax,-0x910(%rbp)
    92a9:	48 8d 05 8a f2 00 00 	lea    0xf28a(%rip),%rax        # 1853a <g_256+0x1a>
    92b0:	48 89 85 f8 f6 ff ff 	mov    %rax,-0x908(%rbp)
    92b7:	48 8d 05 fc f2 00 00 	lea    0xf2fc(%rip),%rax        # 185ba <g_391+0x1a>
    92be:	48 89 85 00 f7 ff ff 	mov    %rax,-0x900(%rbp)
    92c5:	48 8d 05 ee f2 00 00 	lea    0xf2ee(%rip),%rax        # 185ba <g_391+0x1a>
    92cc:	48 89 85 08 f7 ff ff 	mov    %rax,-0x8f8(%rbp)
    92d3:	48 8d 05 60 f2 00 00 	lea    0xf260(%rip),%rax        # 1853a <g_256+0x1a>
    92da:	48 89 85 10 f7 ff ff 	mov    %rax,-0x8f0(%rbp)
    92e1:	48 8d 05 52 f2 00 00 	lea    0xf252(%rip),%rax        # 1853a <g_256+0x1a>
    92e8:	48 89 85 18 f7 ff ff 	mov    %rax,-0x8e8(%rbp)
    92ef:	0f b6 05 0e fd 00 00 	movzbl 0xfd0e(%rip),%eax        # 19004 <g_1531>
    92f6:	83 c0 01             	add    $0x1,%eax
    92f9:	88 05 05 fd 00 00    	mov    %al,0xfd05(%rip)        # 19004 <g_1531>
    92ff:	44 8b 35 76 f0 00 00 	mov    0xf076(%rip),%r14d        # 1837c <g_149+0xc>
    9306:	0f b6 05 4d f3 00 00 	movzbl 0xf34d(%rip),%eax        # 1865a <g_474+0x1a>
    930d:	89 c2                	mov    %eax,%edx
    930f:	8b 05 27 f2 00 00    	mov    0xf227(%rip),%eax        # 1853c <g_256+0x1c>
    9315:	09 d0                	or     %edx,%eax
    9317:	88 05 3d f3 00 00    	mov    %al,0xf33d(%rip)        # 1865a <g_474+0x1a>
    931d:	0f b6 05 36 f3 00 00 	movzbl 0xf336(%rip),%eax        # 1865a <g_474+0x1a>
    9324:	44 0f be e8          	movsbl %al,%r13d
    9328:	0f b6 45 c0          	movzbl -0x40(%rbp),%eax
    932c:	0f be d8             	movsbl %al,%ebx
    932f:	44 8b a5 34 f2 ff ff 	mov    -0xdcc(%rbp),%r12d
    9336:	8b 85 b4 f0 ff ff    	mov    -0xf4c(%rbp),%eax
    933c:	0f be c0             	movsbl %al,%eax
    933f:	89 c6                	mov    %eax,%esi
    9341:	bf a9 ff ff ff       	mov    $0xffffffa9,%edi
    9346:	e8 e6 ce ff ff       	callq  6231 <safe_mod_func_int8_t_s_s>
    934b:	0f be c0             	movsbl %al,%eax
    934e:	44 89 e6             	mov    %r12d,%esi
    9351:	89 c7                	mov    %eax,%edi
    9353:	e8 ad d2 ff ff       	callq  6605 <safe_sub_func_int32_t_s_s>
    9358:	39 85 7c f0 ff ff    	cmp    %eax,-0xf84(%rbp)
    935e:	0f 9c c0             	setl   %al
    9361:	0f b6 d0             	movzbl %al,%edx
    9364:	0f b6 45 c0          	movzbl -0x40(%rbp),%eax
    9368:	66 98                	cbtw   
    936a:	21 d0                	and    %edx,%eax
    936c:	0f b7 c0             	movzwl %ax,%eax
    936f:	be 00 00 00 00       	mov    $0x0,%esi
    9374:	89 c7                	mov    %eax,%edi
    9376:	e8 c2 d9 ff ff       	callq  6d3d <safe_mul_func_uint16_t_u_u>
    937b:	0f b7 d0             	movzwl %ax,%edx
    937e:	8b 05 f8 f5 00 00    	mov    0xf5f8(%rip),%eax        # 1897c <g_849+0x4>
    9384:	c1 e0 0c             	shl    $0xc,%eax
    9387:	c1 f8 0c             	sar    $0xc,%eax
    938a:	09 d0                	or     %edx,%eax
    938c:	85 c0                	test   %eax,%eax
    938e:	74 1b                	je     93ab <func_1+0x1bf6>
    9390:	48 8b 05 e1 f2 00 00 	mov    0xf2e1(%rip),%rax        # 18678 <g_477+0x8>
    9397:	48 c1 e8 10          	shr    $0x10,%rax
    939b:	25 ff ff ff 3f       	and    $0x3fffffff,%eax
    93a0:	85 c0                	test   %eax,%eax
    93a2:	74 07                	je     93ab <func_1+0x1bf6>
    93a4:	b8 01 00 00 00       	mov    $0x1,%eax
    93a9:	eb 05                	jmp    93b0 <func_1+0x1bfb>
    93ab:	b8 00 00 00 00       	mov    $0x0,%eax
    93b0:	98                   	cwtl   
    93b1:	89 de                	mov    %ebx,%esi
    93b3:	89 c7                	mov    %eax,%edi
    93b5:	e8 9b d0 ff ff       	callq  6455 <safe_div_func_int16_t_s_s>
    93ba:	98                   	cwtl   
    93bb:	44 21 e8             	and    %r13d,%eax
    93be:	89 c1                	mov    %eax,%ecx
    93c0:	48 8b 05 a9 0c 01 00 	mov    0x10ca9(%rip),%rax        # 1a070 <g_150>
    93c7:	48 8b 10             	mov    (%rax),%rdx
    93ca:	48 8b 05 df f6 00 00 	mov    0xf6df(%rip),%rax        # 18ab0 <g_1164>
    93d1:	48 8b 1d 88 0c 01 00 	mov    0x10c88(%rip),%rbx        # 1a060 <g_115>
    93d8:	0f b6 85 3d f0 ff ff 	movzbl -0xfc3(%rbp),%eax
    93df:	45 89 f0             	mov    %r14d,%r8d
    93e2:	89 c6                	mov    %eax,%esi
    93e4:	bf 01 00 00 00       	mov    $0x1,%edi
    93e9:	e8 c7 34 00 00       	callq  c8b5 <func_68>
    93ee:	48 89 03             	mov    %rax,(%rbx)
    93f1:	0f b6 85 3d f0 ff ff 	movzbl -0xfc3(%rbp),%eax
    93f8:	44 0f b6 e8          	movzbl %al,%r13d
    93fc:	44 0f b6 a5 3f f0 ff 	movzbl -0xfc1(%rbp),%r12d
    9403:	ff 
    9404:	48 8b 05 65 0c 01 00 	mov    0x10c65(%rip),%rax        # 1a070 <g_150>
    940b:	48 8b 18             	mov    (%rax),%rbx
    940e:	0f b6 05 ef fb 00 00 	movzbl 0xfbef(%rip),%eax        # 19004 <g_1531>
    9415:	83 e8 01             	sub    $0x1,%eax
    9418:	88 05 e6 fb 00 00    	mov    %al,0xfbe6(%rip)        # 19004 <g_1531>
    941e:	48 8b 05 4b 0c 01 00 	mov    0x10c4b(%rip),%rax        # 1a070 <g_150>
    9425:	48 8b 00             	mov    (%rax),%rax
    9428:	8b 00                	mov    (%rax),%eax
    942a:	89 85 1c f0 ff ff    	mov    %eax,-0xfe4(%rbp)
    9430:	8b 85 34 f2 ff ff    	mov    -0xdcc(%rbp),%eax
    9436:	89 85 18 f0 ff ff    	mov    %eax,-0xfe8(%rbp)
    943c:	48 83 bd 60 f1 ff ff 	cmpq   $0x0,-0xea0(%rbp)
    9443:	00 
    9444:	0f 95 c0             	setne  %al
    9447:	0f b6 c0             	movzbl %al,%eax
    944a:	48 89 85 10 f0 ff ff 	mov    %rax,-0xff0(%rbp)
    9451:	8b 85 34 f2 ff ff    	mov    -0xdcc(%rbp),%eax
    9457:	4c 63 f0             	movslq %eax,%r14
    945a:	48 8d 05 d7 eb 00 00 	lea    0xebd7(%rip),%rax        # 18038 <g_7+0x8>
    9461:	44 8b 38             	mov    (%rax),%r15d
    9464:	48 8b 05 7d f5 00 00 	mov    0xf57d(%rip),%rax        # 189e8 <g_1058+0x8>
    946b:	48 c1 f8 37          	sar    $0x37,%rax
    946f:	66 85 c0             	test   %ax,%ax
    9472:	7e 5e                	jle    94d2 <func_1+0x1d1d>
    9474:	be 03 00 00 00       	mov    $0x3,%esi
    9479:	bf ff 00 00 00       	mov    $0xff,%edi
    947e:	e8 3b d8 ff ff       	callq  6cbe <safe_rshift_func_uint8_t_u_u>
    9483:	89 c2                	mov    %eax,%edx
    9485:	48 8b 85 68 f1 ff ff 	mov    -0xe98(%rbp),%rax
    948c:	88 10                	mov    %dl,(%rax)
    948e:	48 8b 85 68 f1 ff ff 	mov    -0xe98(%rbp),%rax
    9495:	0f b6 00             	movzbl (%rax),%eax
    9498:	0f be c0             	movsbl %al,%eax
    949b:	0f b6 0d d7 f1 00 00 	movzbl 0xf1d7(%rip),%ecx        # 18679 <g_477+0x9>
    94a2:	48 8b 95 70 f1 ff ff 	mov    -0xe90(%rbp),%rdx
    94a9:	0f b6 12             	movzbl (%rdx),%edx
    94ac:	31 d1                	xor    %edx,%ecx
    94ae:	48 8b 95 70 f1 ff ff 	mov    -0xe90(%rbp),%rdx
    94b5:	88 0a                	mov    %cl,(%rdx)
    94b7:	48 8b 95 70 f1 ff ff 	mov    -0xe90(%rbp),%rdx
    94be:	0f b6 12             	movzbl (%rdx),%edx
    94c1:	0f be d2             	movsbl %dl,%edx
    94c4:	89 95 b4 f0 ff ff    	mov    %edx,-0xf4c(%rbp)
    94ca:	39 85 b4 f0 ff ff    	cmp    %eax,-0xf4c(%rbp)
    94d0:	75 07                	jne    94d9 <func_1+0x1d24>
    94d2:	b8 01 00 00 00       	mov    $0x1,%eax
    94d7:	eb 05                	jmp    94de <func_1+0x1d29>
    94d9:	b8 00 00 00 00       	mov    $0x0,%eax
    94de:	44 89 fe             	mov    %r15d,%esi
    94e1:	89 c7                	mov    %eax,%edi
    94e3:	e8 ce d0 ff ff       	callq  65b6 <safe_add_func_int32_t_s_s>
    94e8:	48 98                	cltq   
    94ea:	4c 89 f6             	mov    %r14,%rsi
    94ed:	48 89 c7             	mov    %rax,%rdi
    94f0:	e8 b3 d3 ff ff       	callq  68a8 <safe_sub_func_int64_t_s_s>
    94f5:	48 39 85 10 f0 ff ff 	cmp    %rax,-0xff0(%rbp)
    94fc:	74 0b                	je     9509 <func_1+0x1d54>
    94fe:	0f b6 05 84 ef 00 00 	movzbl 0xef84(%rip),%eax        # 18489 <g_203+0x9>
    9505:	84 c0                	test   %al,%al
    9507:	74 07                	je     9510 <func_1+0x1d5b>
    9509:	ba 01 00 00 00       	mov    $0x1,%edx
    950e:	eb 05                	jmp    9515 <func_1+0x1d60>
    9510:	ba 00 00 00 00       	mov    $0x0,%edx
    9515:	0f b7 85 44 f0 ff ff 	movzwl -0xfbc(%rbp),%eax
    951c:	98                   	cwtl   
    951d:	39 c2                	cmp    %eax,%edx
    951f:	0f 9e c0             	setle  %al
    9522:	0f b6 c0             	movzbl %al,%eax
    9525:	39 85 18 f0 ff ff    	cmp    %eax,-0xfe8(%rbp)
    952b:	0f 9d c0             	setge  %al
    952e:	0f b6 c0             	movzbl %al,%eax
    9531:	39 85 1c f0 ff ff    	cmp    %eax,-0xfe4(%rbp)
    9537:	0f 9d c0             	setge  %al
    953a:	0f b6 c0             	movzbl %al,%eax
    953d:	4c 8b 35 2c 0b 01 00 	mov    0x10b2c(%rip),%r14        # 1a070 <g_150>
    9544:	4c 89 e9             	mov    %r13,%rcx
    9547:	44 89 e2             	mov    %r12d,%edx
    954a:	48 89 de             	mov    %rbx,%rsi
    954d:	89 c7                	mov    %eax,%edi
    954f:	e8 06 0a 00 00       	callq  9f5a <func_35>
    9554:	49 89 06             	mov    %rax,(%r14)
    9557:	48 8b 05 ca fa 00 00 	mov    0xfaca(%rip),%rax        # 19028 <g_1561>
    955e:	48 89 85 10 f2 ff ff 	mov    %rax,-0xdf0(%rbp)
    9565:	8b 05 c5 fa 00 00    	mov    0xfac5(%rip),%eax        # 19030 <g_1561+0x8>
    956b:	89 85 18 f2 ff ff    	mov    %eax,-0xde8(%rbp)
    9571:	e9 45 06 00 00       	jmpq   9bbb <func_1+0x2406>
    9576:	48 8b 05 0b 0b 01 00 	mov    0x10b0b(%rip),%rax        # 1a088 <g_161>
    957d:	48 8b 00             	mov    (%rax),%rax
    9580:	48 8b 00             	mov    (%rax),%rax
    9583:	48 8b 00             	mov    (%rax),%rax
    9586:	48 8b 00             	mov    (%rax),%rax
    9589:	8b 00                	mov    (%rax),%eax
    958b:	85 c0                	test   %eax,%eax
    958d:	0f 85 f7 05 00 00    	jne    9b8a <func_1+0x23d5>
    9593:	c7 85 08 f2 ff ff 00 	movl   $0x0,-0xdf8(%rbp)
    959a:	00 00 00 
    959d:	e9 27 03 00 00       	jmpq   98c9 <func_1+0x2114>
    95a2:	48 c7 85 c8 f1 ff ff 	movq   $0x0,-0xe38(%rbp)
    95a9:	00 00 00 00 
    95ad:	48 8d 85 c0 f0 ff ff 	lea    -0xf40(%rbp),%rax
    95b4:	48 89 85 d0 f1 ff ff 	mov    %rax,-0xe30(%rbp)
    95bb:	48 8d 05 66 15 01 00 	lea    0x11566(%rip),%rax        # 1ab28 <g_1581>
    95c2:	48 89 85 d8 f1 ff ff 	mov    %rax,-0xe28(%rbp)
    95c9:	48 8d 85 d8 f0 ff ff 	lea    -0xf28(%rbp),%rax
    95d0:	48 39 85 f8 f0 ff ff 	cmp    %rax,-0xf08(%rbp)
    95d7:	0f 95 c0             	setne  %al
    95da:	0f b6 c0             	movzbl %al,%eax
    95dd:	be 00 00 00 00       	mov    $0x0,%esi
    95e2:	89 c7                	mov    %eax,%edi
    95e4:	e8 8f d5 ff ff       	callq  6b78 <safe_sub_func_uint8_t_u_u>
    95e9:	0f b6 d0             	movzbl %al,%edx
    95ec:	48 8b 85 d0 f1 ff ff 	mov    -0xe30(%rbp),%rax
    95f3:	48 89 10             	mov    %rdx,(%rax)
    95f6:	bf 00 00 00 00       	mov    $0x0,%edi
    95fb:	e8 bf cb ff ff       	callq  61bf <safe_unary_minus_func_int8_t_s>
    9600:	0f be c0             	movsbl %al,%eax
    9603:	be 07 00 00 00       	mov    $0x7,%esi
    9608:	89 c7                	mov    %eax,%edi
    960a:	e8 c4 cd ff ff       	callq  63d3 <safe_sub_func_int16_t_s_s>
    960f:	48 8b 05 72 f4 00 00 	mov    0xf472(%rip),%rax        # 18a88 <g_1122+0x88>
    9616:	48 8d 05 b7 f4 00 00 	lea    0xf4b7(%rip),%rax        # 18ad4 <g_1202>
    961d:	8b 00                	mov    (%rax),%eax
    961f:	89 c6                	mov    %eax,%esi
    9621:	bf 01 00 00 00       	mov    $0x1,%edi
    9626:	e8 fa d8 ff ff       	callq  6f25 <safe_div_func_uint32_t_u_u>
    962b:	0f b6 85 3d f0 ff ff 	movzbl -0xfc3(%rbp),%eax
    9632:	0f be c0             	movsbl %al,%eax
    9635:	be 00 00 00 00       	mov    $0x0,%esi
    963a:	89 c7                	mov    %eax,%edi
    963c:	e8 93 cb ff ff       	callq  61d4 <safe_add_func_int8_t_s_s>
    9641:	89 c2                	mov    %eax,%edx
    9643:	48 8b 05 6e f6 00 00 	mov    0xf66e(%rip),%rax        # 18cb8 <g_1244+0x1d8>
    964a:	48 c1 e8 0e          	shr    $0xe,%rax
    964e:	66 25 ff 01          	and    $0x1ff,%ax
    9652:	31 d0                	xor    %edx,%eax
    9654:	0f be c0             	movsbl %al,%eax
    9657:	be 00 00 00 00       	mov    $0x0,%esi
    965c:	89 c7                	mov    %eax,%edi
    965e:	e8 8f cb ff ff       	callq  61f2 <safe_sub_func_int8_t_s_s>
    9663:	48 8d 15 ce e9 00 00 	lea    0xe9ce(%rip),%rdx        # 18038 <g_7+0x8>
    966a:	8b 0a                	mov    (%rdx),%ecx
    966c:	0f be d0             	movsbl %al,%edx
    966f:	48 8d 05 c2 e9 00 00 	lea    0xe9c2(%rip),%rax        # 18038 <g_7+0x8>
    9676:	09 ca                	or     %ecx,%edx
    9678:	89 10                	mov    %edx,(%rax)
    967a:	48 8b 15 a7 14 01 00 	mov    0x114a7(%rip),%rdx        # 1ab28 <g_1581>
    9681:	48 8b 85 d8 f1 ff ff 	mov    -0xe28(%rbp),%rax
    9688:	48 89 10             	mov    %rdx,(%rax)
    968b:	48 8b 85 d8 f1 ff ff 	mov    -0xe28(%rbp),%rax
    9692:	48 8b 10             	mov    (%rax),%rdx
    9695:	48 8b 05 84 14 01 00 	mov    0x11484(%rip),%rax        # 1ab20 <g_1579>
    969c:	48 39 c2             	cmp    %rax,%rdx
    969f:	74 39                	je     96da <func_1+0x1f25>
    96a1:	81 bd b0 f0 ff ff fa 	cmpl   $0xfa,-0xf50(%rbp)
    96a8:	00 00 00 
    96ab:	76 0a                	jbe    96b7 <func_1+0x1f02>
    96ad:	8b 85 5c f0 ff ff    	mov    -0xfa4(%rbp),%eax
    96b3:	85 c0                	test   %eax,%eax
    96b5:	74 07                	je     96be <func_1+0x1f09>
    96b7:	b8 01 00 00 00       	mov    $0x1,%eax
    96bc:	eb 05                	jmp    96c3 <func_1+0x1f0e>
    96be:	b8 00 00 00 00       	mov    $0x0,%eax
    96c3:	89 85 60 f0 ff ff    	mov    %eax,-0xfa0(%rbp)
    96c9:	8b 85 60 f0 ff ff    	mov    -0xfa0(%rbp),%eax
    96cf:	85 c0                	test   %eax,%eax
    96d1:	74 07                	je     96da <func_1+0x1f25>
    96d3:	b8 01 00 00 00       	mov    $0x1,%eax
    96d8:	eb 05                	jmp    96df <func_1+0x1f2a>
    96da:	b8 00 00 00 00       	mov    $0x0,%eax
    96df:	83 e0 01             	and    $0x1,%eax
    96e2:	48 83 bd 40 f1 ff ff 	cmpq   $0x0,-0xec0(%rbp)
    96e9:	00 
    96ea:	0f 95 c2             	setne  %dl
    96ed:	09 d0                	or     %edx,%eax
    96ef:	0f b6 c8             	movzbl %al,%ecx
    96f2:	48 8d 05 3f e9 00 00 	lea    0xe93f(%rip),%rax        # 18038 <g_7+0x8>
    96f9:	8b 10                	mov    (%rax),%edx
    96fb:	48 8d 05 36 e9 00 00 	lea    0xe936(%rip),%rax        # 18038 <g_7+0x8>
    9702:	09 ca                	or     %ecx,%edx
    9704:	89 10                	mov    %edx,(%rax)
    9706:	48 8b 05 2b 14 01 00 	mov    0x1142b(%rip),%rax        # 1ab38 <g_1587>
    970d:	48 8d 15 5c ef 00 00 	lea    0xef5c(%rip),%rdx        # 18670 <g_477>
    9714:	48 89 10             	mov    %rdx,(%rax)
    9717:	c7 85 68 f0 ff ff 00 	movl   $0x0,-0xf98(%rbp)
    971e:	00 00 00 
    9721:	e9 87 01 00 00       	jmpq   98ad <func_1+0x20f8>
    9726:	c6 85 41 f0 ff ff fe 	movb   $0xfe,-0xfbf(%rbp)
    972d:	48 8b 05 14 14 01 00 	mov    0x11414(%rip),%rax        # 1ab48 <g_1591>
    9734:	48 8b 15 05 14 01 00 	mov    0x11405(%rip),%rdx        # 1ab40 <g_1589>
    973b:	48 89 10             	mov    %rdx,(%rax)
    973e:	c7 85 60 f0 ff ff 00 	movl   $0x0,-0xfa0(%rbp)
    9745:	00 00 00 
    9748:	e9 e5 00 00 00       	jmpq   9832 <func_1+0x207d>
    974d:	c6 85 42 f0 ff ff ff 	movb   $0xff,-0xfbe(%rbp)
    9754:	0f b6 9d 42 f0 ff ff 	movzbl -0xfbe(%rbp),%ebx
    975b:	8b 05 63 e9 00 00    	mov    0xe963(%rip),%eax        # 180c4 <g_109+0x4>
    9761:	be f7 ff ff ff       	mov    $0xfffffff7,%esi
    9766:	bf 1d 57 dc ce       	mov    $0xcedc571d,%edi
    976b:	e8 46 ce ff ff       	callq  65b6 <safe_add_func_int32_t_s_s>
    9770:	89 c2                	mov    %eax,%edx
    9772:	48 8b 85 38 f1 ff ff 	mov    -0xec8(%rbp),%rax
    9779:	66 89 10             	mov    %dx,(%rax)
    977c:	48 8b 85 38 f1 ff ff 	mov    -0xec8(%rbp),%rax
    9783:	0f b7 00             	movzwl (%rax),%eax
    9786:	66 85 c0             	test   %ax,%ax
    9789:	0f 9f c0             	setg   %al
    978c:	44 0f b6 e0          	movzbl %al,%r12d
    9790:	8b 05 a6 ed 00 00    	mov    0xeda6(%rip),%eax        # 1853c <g_256+0x1c>
    9796:	0f b6 c0             	movzbl %al,%eax
    9799:	be 01 00 00 00       	mov    $0x1,%esi
    979e:	89 c7                	mov    %eax,%edi
    97a0:	e8 a7 d4 ff ff       	callq  6c4c <safe_lshift_func_uint8_t_u_u>
    97a5:	0f b6 c0             	movzbl %al,%eax
    97a8:	41 39 c4             	cmp    %eax,%r12d
    97ab:	0f 9c c1             	setl   %cl
    97ae:	48 8b 85 d0 f2 ff ff 	mov    -0xd30(%rbp),%rax
    97b5:	48 8d 95 60 f8 ff ff 	lea    -0x7a0(%rbp),%rdx
    97bc:	48 83 c2 38          	add    $0x38,%rdx
    97c0:	48 39 d0             	cmp    %rdx,%rax
    97c3:	0f 94 c0             	sete   %al
    97c6:	09 c8                	or     %ecx,%eax
    97c8:	0f b6 d0             	movzbl %al,%edx
    97cb:	0f b6 85 41 f0 ff ff 	movzbl -0xfbf(%rbp),%eax
    97d2:	39 c2                	cmp    %eax,%edx
    97d4:	0f 9c c0             	setl   %al
    97d7:	0f b6 d0             	movzbl %al,%edx
    97da:	48 8b 85 28 f1 ff ff 	mov    -0xed8(%rbp),%rax
    97e1:	66 89 10             	mov    %dx,(%rax)
    97e4:	48 8b 85 28 f1 ff ff 	mov    -0xed8(%rbp),%rax
    97eb:	0f b7 00             	movzwl (%rax),%eax
    97ee:	98                   	cwtl   
    97ef:	89 de                	mov    %ebx,%esi
    97f1:	89 c7                	mov    %eax,%edi
    97f3:	e8 db cb ff ff       	callq  63d3 <safe_sub_func_int16_t_s_s>
    97f8:	48 8d 15 39 e8 00 00 	lea    0xe839(%rip),%rdx        # 18038 <g_7+0x8>
    97ff:	8b 0a                	mov    (%rdx),%ecx
    9801:	0f bf d0             	movswl %ax,%edx
    9804:	48 8d 05 2d e8 00 00 	lea    0xe82d(%rip),%rax        # 18038 <g_7+0x8>
    980b:	09 ca                	or     %ecx,%edx
    980d:	89 10                	mov    %edx,(%rax)
    980f:	48 8b 05 62 08 01 00 	mov    0x10862(%rip),%rax        # 1a078 <g_163>
    9816:	48 8b 00             	mov    (%rax),%rax
    9819:	48 8d 95 5c f0 ff ff 	lea    -0xfa4(%rbp),%rdx
    9820:	48 89 10             	mov    %rdx,(%rax)
    9823:	8b 85 60 f0 ff ff    	mov    -0xfa0(%rbp),%eax
    9829:	83 e8 01             	sub    $0x1,%eax
    982c:	89 85 60 f0 ff ff    	mov    %eax,-0xfa0(%rbp)
    9832:	8b 85 60 f0 ff ff    	mov    -0xfa0(%rbp),%eax
    9838:	85 c0                	test   %eax,%eax
    983a:	0f 89 0d ff ff ff    	jns    974d <func_1+0x1f98>
    9840:	8b 85 50 f0 ff ff    	mov    -0xfb0(%rbp),%eax
    9846:	85 c0                	test   %eax,%eax
    9848:	75 5b                	jne    98a5 <func_1+0x20f0>
    984a:	66 c7 85 44 f0 ff ff 	movw   $0x0,-0xfbc(%rbp)
    9851:	00 00 
    9853:	eb 41                	jmp    9896 <func_1+0x20e1>
    9855:	48 8d 05 94 eb 00 00 	lea    0xeb94(%rip),%rax        # 183f0 <g_191+0x10>
    985c:	48 89 85 e0 f1 ff ff 	mov    %rax,-0xe20(%rbp)
    9863:	48 8b 05 1e 08 01 00 	mov    0x1081e(%rip),%rax        # 1a088 <g_161>
    986a:	48 8b 00             	mov    (%rax),%rax
    986d:	48 8b 00             	mov    (%rax),%rax
    9870:	48 8b 00             	mov    (%rax),%rax
    9873:	48 8b 00             	mov    (%rax),%rax
    9876:	48 89 c7             	mov    %rax,%rdi
    9879:	e8 89 09 00 00       	callq  a207 <func_40>
    987e:	48 89 85 e0 f1 ff ff 	mov    %rax,-0xe20(%rbp)
    9885:	0f b7 85 44 f0 ff ff 	movzwl -0xfbc(%rbp),%eax
    988c:	83 c0 01             	add    $0x1,%eax
    988f:	66 89 85 44 f0 ff ff 	mov    %ax,-0xfbc(%rbp)
    9896:	0f b7 85 44 f0 ff ff 	movzwl -0xfbc(%rbp),%eax
    989d:	66 83 f8 04          	cmp    $0x4,%ax
    98a1:	7e b2                	jle    9855 <func_1+0x20a0>
    98a3:	eb 01                	jmp    98a6 <func_1+0x20f1>
    98a5:	90                   	nop
    98a6:	83 85 68 f0 ff ff 01 	addl   $0x1,-0xf98(%rbp)
    98ad:	83 bd 68 f0 ff ff 04 	cmpl   $0x4,-0xf98(%rbp)
    98b4:	0f 8e 6c fe ff ff    	jle    9726 <func_1+0x1f71>
    98ba:	8b 85 08 f2 ff ff    	mov    -0xdf8(%rbp),%eax
    98c0:	83 c0 01             	add    $0x1,%eax
    98c3:	89 85 08 f2 ff ff    	mov    %eax,-0xdf8(%rbp)
    98c9:	8b 85 08 f2 ff ff    	mov    -0xdf8(%rbp),%eax
    98cf:	85 c0                	test   %eax,%eax
    98d1:	0f 84 cb fc ff ff    	je     95a2 <func_1+0x1ded>
    98d7:	48 8b 85 48 f1 ff ff 	mov    -0xeb8(%rbp),%rax
    98de:	0f be d8             	movsbl %al,%ebx
    98e1:	48 8b 05 f0 ec 00 00 	mov    0xecf0(%rip),%rax        # 185d8 <g_423+0x8>
    98e8:	48 c1 f8 37          	sar    $0x37,%rax
    98ec:	98                   	cwtl   
    98ed:	c1 e0 0f             	shl    $0xf,%eax
    98f0:	c1 f8 0f             	sar    $0xf,%eax
    98f3:	8b 15 ab eb 00 00    	mov    0xebab(%rip),%edx        # 184a4 <g_203+0x24>
    98f9:	c1 e2 0f             	shl    $0xf,%edx
    98fc:	c1 fa 0f             	sar    $0xf,%edx
    98ff:	39 d0                	cmp    %edx,%eax
    9901:	0f 94 c0             	sete   %al
    9904:	0f b6 d0             	movzbl %al,%edx
    9907:	8b 05 cb f3 00 00    	mov    0xf3cb(%rip),%eax        # 18cd8 <g_1382>
    990d:	c1 e0 0c             	shl    $0xc,%eax
    9910:	c1 f8 14             	sar    $0x14,%eax
    9913:	98                   	cwtl   
    9914:	31 d0                	xor    %edx,%eax
    9916:	39 85 6c f0 ff ff    	cmp    %eax,-0xf94(%rbp)
    991c:	0f 9c c0             	setl   %al
    991f:	44 0f b6 e0          	movzbl %al,%r12d
    9923:	48 8b 85 c8 f2 ff ff 	mov    -0xd38(%rbp),%rax
    992a:	48 85 c0             	test   %rax,%rax
    992d:	0f 94 c0             	sete   %al
    9930:	0f b6 c0             	movzbl %al,%eax
    9933:	48 f7 d0             	not    %rax
    9936:	49 89 c5             	mov    %rax,%r13
    9939:	be 03 00 00 00       	mov    $0x3,%esi
    993e:	bf 01 00 00 00       	mov    $0x1,%edi
    9943:	e8 ed c9 ff ff       	callq  6335 <safe_rshift_func_int8_t_s_s>
    9948:	0f be c0             	movsbl %al,%eax
    994b:	39 85 7c f0 ff ff    	cmp    %eax,-0xf84(%rbp)
    9951:	0f 9d c0             	setge  %al
    9954:	0f b6 c0             	movzbl %al,%eax
    9957:	49 39 c5             	cmp    %rax,%r13
    995a:	44 89 e2             	mov    %r12d,%edx
    995d:	0f b7 05 d2 ef 00 00 	movzwl 0xefd2(%rip),%eax        # 18936 <g_718>
    9964:	09 d0                	or     %edx,%eax
    9966:	66 89 05 c9 ef 00 00 	mov    %ax,0xefc9(%rip)        # 18936 <g_718>
    996d:	80 bd 40 f0 ff ff 00 	cmpb   $0x0,-0xfc0(%rbp)
    9974:	0f 95 c0             	setne  %al
    9977:	0f b6 c0             	movzbl %al,%eax
    997a:	be 05 00 00 00       	mov    $0x5,%esi
    997f:	89 c7                	mov    %eax,%edi
    9981:	e8 af c9 ff ff       	callq  6335 <safe_rshift_func_int8_t_s_s>
    9986:	66 98                	cbtw   
    9988:	0f b7 c0             	movzwl %ax,%eax
    998b:	89 c6                	mov    %eax,%esi
    998d:	bf 00 00 00 00       	mov    $0x0,%edi
    9992:	e8 a6 d3 ff ff       	callq  6d3d <safe_mul_func_uint16_t_u_u>
    9997:	0f be c0             	movsbl %al,%eax
    999a:	89 de                	mov    %ebx,%esi
    999c:	89 c7                	mov    %eax,%edi
    999e:	e8 c7 c8 ff ff       	callq  626a <safe_div_func_int8_t_s_s>
    99a3:	3c 56                	cmp    $0x56,%al
    99a5:	0f 9f c0             	setg   %al
    99a8:	0f b6 c8             	movzbl %al,%ecx
    99ab:	48 8b 05 ce 06 01 00 	mov    0x106ce(%rip),%rax        # 1a080 <g_162>
    99b2:	48 8b 00             	mov    (%rax),%rax
    99b5:	48 8b 00             	mov    (%rax),%rax
    99b8:	48 8b 00             	mov    (%rax),%rax
    99bb:	8b 10                	mov    (%rax),%edx
    99bd:	48 8b 05 bc 06 01 00 	mov    0x106bc(%rip),%rax        # 1a080 <g_162>
    99c4:	48 8b 00             	mov    (%rax),%rax
    99c7:	48 8b 00             	mov    (%rax),%rax
    99ca:	48 8b 00             	mov    (%rax),%rax
    99cd:	21 ca                	and    %ecx,%edx
    99cf:	89 10                	mov    %edx,(%rax)
    99d1:	e9 a0 01 00 00       	jmpq   9b76 <func_1+0x23c1>
    99d6:	48 b8 01 05 1d ff f0 	movabs $0xf00101f0ff1d0501,%rax
    99dd:	01 01 f0 
    99e0:	48 89 85 60 f8 ff ff 	mov    %rax,-0x7a0(%rbp)
    99e7:	c6 85 68 f8 ff ff ff 	movb   $0xff,-0x798(%rbp)
    99ee:	48 b8 09 05 09 fe 05 	movabs $0xf2fef505fe090509,%rax
    99f5:	f5 fe f2 
    99f8:	48 89 85 69 f8 ff ff 	mov    %rax,-0x797(%rbp)
    99ff:	c6 85 71 f8 ff ff f2 	movb   $0xf2,-0x78f(%rbp)
    9a06:	48 b8 59 01 a5 01 a5 	movabs $0x705901a501a50159,%rax
    9a0d:	01 59 70 
    9a10:	48 89 85 72 f8 ff ff 	mov    %rax,-0x78e(%rbp)
    9a17:	c6 85 7a f8 ff ff 1d 	movb   $0x1d,-0x786(%rbp)
    9a1e:	48 b8 fe f5 05 fe 09 	movabs $0xfe090509fe05f5fe,%rax
    9a25:	05 09 fe 
    9a28:	48 89 85 7b f8 ff ff 	mov    %rax,-0x785(%rbp)
    9a2f:	c6 85 83 f8 ff ff 05 	movb   $0x5,-0x77d(%rbp)
    9a36:	48 b8 01 01 f0 ff 1d 	movabs $0x7001051dfff00101,%rax
    9a3d:	05 01 70 
    9a40:	48 89 85 84 f8 ff ff 	mov    %rax,-0x77c(%rbp)
    9a47:	c6 85 8c f8 ff ff 01 	movb   $0x1,-0x774(%rbp)
    9a4e:	48 b8 05 a5 f5 f5 a5 	movabs $0xf25505a5f5f5a505,%rax
    9a55:	05 55 f2 
    9a58:	48 89 85 8d f8 ff ff 	mov    %rax,-0x773(%rbp)
    9a5f:	c6 85 95 f8 ff ff 06 	movb   $0x6,-0x76b(%rbp)
    9a66:	48 b8 70 00 f0 4f 59 	movabs $0xf04f59594ff00070,%rax
    9a6d:	59 4f f0 
    9a70:	48 89 85 96 f8 ff ff 	mov    %rax,-0x76a(%rbp)
    9a77:	c6 85 9e f8 ff ff 00 	movb   $0x0,-0x762(%rbp)
    9a7e:	48 b8 a5 ff 05 09 9f 	movabs $0x5555fe9f0905ffa5,%rax
    9a85:	fe 55 55 
    9a88:	48 89 85 9f f8 ff ff 	mov    %rax,-0x761(%rbp)
    9a8f:	c6 85 a7 f8 ff ff fe 	movb   $0xfe,-0x759(%rbp)
    9a96:	8b 05 70 f2 00 00    	mov    0xf270(%rip),%eax        # 18d0c <g_1418+0xc>
    9a9c:	c1 e8 0e             	shr    $0xe,%eax
    9a9f:	66 25 ff 01          	and    $0x1ff,%ax
    9aa3:	0f b7 d8             	movzwl %ax,%ebx
    9aa6:	8b 85 7c f0 ff ff    	mov    -0xf84(%rbp),%eax
    9aac:	44 0f be e0          	movsbl %al,%r12d
    9ab0:	48 8b 85 10 f5 ff ff 	mov    -0xaf0(%rbp),%rax
    9ab7:	44 0f b7 e8          	movzwl %ax,%r13d
    9abb:	8b 85 7c f0 ff ff    	mov    -0xf84(%rbp),%eax
    9ac1:	0f b7 d0             	movzwl %ax,%edx
    9ac4:	48 8b 85 f8 f4 ff ff 	mov    -0xb08(%rbp),%rax
    9acb:	48 3d 4e bf c0 03    	cmp    $0x3c0bf4e,%rax
    9ad1:	0f 9e c0             	setle  %al
    9ad4:	0f b6 c0             	movzbl %al,%eax
    9ad7:	89 d6                	mov    %edx,%esi
    9ad9:	89 c7                	mov    %eax,%edi
    9adb:	e8 5d d2 ff ff       	callq  6d3d <safe_mul_func_uint16_t_u_u>
    9ae0:	0f b6 85 a1 f8 ff ff 	movzbl -0x75f(%rbp),%eax
    9ae7:	0f b6 c0             	movzbl %al,%eax
    9aea:	44 89 ee             	mov    %r13d,%esi
    9aed:	89 c7                	mov    %eax,%edi
    9aef:	e8 49 d2 ff ff       	callq  6d3d <safe_mul_func_uint16_t_u_u>
    9af4:	48 8b 85 18 f1 ff ff 	mov    -0xee8(%rbp),%rax
    9afb:	48 8b 95 00 f1 ff ff 	mov    -0xf00(%rbp),%rdx
    9b02:	48 89 10             	mov    %rdx,(%rax)
    9b05:	0f b6 85 a1 f8 ff ff 	movzbl -0x75f(%rbp),%eax
    9b0c:	0f be c0             	movsbl %al,%eax
    9b0f:	83 e0 73             	and    $0x73,%eax
    9b12:	44 89 e6             	mov    %r12d,%esi
    9b15:	89 c7                	mov    %eax,%edi
    9b17:	e8 b8 c6 ff ff       	callq  61d4 <safe_add_func_int8_t_s_s>
    9b1c:	48 8b 05 45 0b 01 00 	mov    0x10b45(%rip),%rax        # 1a668 <g_1097>
    9b23:	b8 00 00 00 00       	mov    $0x0,%eax
    9b28:	3d c8 00 00 00       	cmp    $0xc8,%eax
    9b2d:	0f 9f c0             	setg   %al
    9b30:	0f b6 c0             	movzbl %al,%eax
    9b33:	89 de                	mov    %ebx,%esi
    9b35:	89 c7                	mov    %eax,%edi
    9b37:	e8 c3 d1 ff ff       	callq  6cff <safe_add_func_uint16_t_u_u>
    9b3c:	48 8b 05 25 0b 01 00 	mov    0x10b25(%rip),%rax        # 1a668 <g_1097>
    9b43:	8b 00                	mov    (%rax),%eax
    9b45:	85 c0                	test   %eax,%eax
    9b47:	74 1c                	je     9b65 <func_1+0x23b0>
    9b49:	48 8b 85 c8 f0 ff ff 	mov    -0xf38(%rbp),%rax
    9b50:	48 8b 10             	mov    (%rax),%rdx
    9b53:	48 89 95 10 f2 ff ff 	mov    %rdx,-0xdf0(%rbp)
    9b5a:	8b 40 08             	mov    0x8(%rax),%eax
    9b5d:	89 85 18 f2 ff ff    	mov    %eax,-0xde8(%rbp)
    9b63:	eb 56                	jmp    9bbb <func_1+0x2406>
    9b65:	48 8b 05 ec 0f 01 00 	mov    0x10fec(%rip),%rax        # 1ab58 <g_1625>
    9b6c:	48 8d 15 d5 14 01 00 	lea    0x114d5(%rip),%rdx        # 1b048 <g_171>
    9b73:	48 89 10             	mov    %rdx,(%rax)
    9b76:	83 85 64 f0 ff ff 01 	addl   $0x1,-0xf9c(%rbp)
    9b7d:	83 bd 64 f0 ff ff fb 	cmpl   $0xfffffffb,-0xf9c(%rbp)
    9b84:	0f 8d d2 e2 ff ff    	jge    7e5c <func_1+0x6a7>
    9b8a:	0f b7 85 4a f0 ff ff 	movzwl -0xfb6(%rbp),%eax
    9b91:	83 e8 01             	sub    $0x1,%eax
    9b94:	66 89 85 4a f0 ff ff 	mov    %ax,-0xfb6(%rbp)
    9b9b:	48 8b 85 f0 f0 ff ff 	mov    -0xf10(%rbp),%rax
    9ba2:	48 8b 00             	mov    (%rax),%rax
    9ba5:	48 8b 00             	mov    (%rax),%rax
    9ba8:	48 8b 10             	mov    (%rax),%rdx
    9bab:	48 89 95 10 f2 ff ff 	mov    %rdx,-0xdf0(%rbp)
    9bb2:	8b 40 08             	mov    0x8(%rax),%eax
    9bb5:	89 85 18 f2 ff ff    	mov    %eax,-0xde8(%rbp)
    9bbb:	48 8b 85 10 f2 ff ff 	mov    -0xdf0(%rbp),%rax
    9bc2:	8b 8d 18 f2 ff ff    	mov    -0xde8(%rbp),%ecx
    9bc8:	48 89 ca             	mov    %rcx,%rdx
    9bcb:	48 8b 75 c8          	mov    -0x38(%rbp),%rsi
    9bcf:	64 48 33 34 25 28 00 	xor    %fs:0x28,%rsi
    9bd6:	00 00 
    9bd8:	74 05                	je     9bdf <func_1+0x242a>
    9bda:	e8 91 c4 ff ff       	callq  6070 <__stack_chk_fail@plt>
    9bdf:	48 81 c4 c8 0f 00 00 	add    $0xfc8,%rsp
    9be6:	5b                   	pop    %rbx
    9be7:	41 5c                	pop    %r12
    9be9:	41 5d                	pop    %r13
    9beb:	41 5e                	pop    %r14
    9bed:	41 5f                	pop    %r15
    9bef:	5d                   	pop    %rbp
    9bf0:	c3                   	retq   

0000000000009bf1 <func_31>:
    9bf1:	f3 0f 1e fa          	endbr64 
    9bf5:	55                   	push   %rbp
    9bf6:	48 89 e5             	mov    %rsp,%rbp
    9bf9:	48 81 ec 20 04 00 00 	sub    $0x420,%rsp
    9c00:	48 89 bd f8 fb ff ff 	mov    %rdi,-0x408(%rbp)
    9c07:	89 f0                	mov    %esi,%eax
    9c09:	48 89 95 e8 fb ff ff 	mov    %rdx,-0x418(%rbp)
    9c10:	66 89 85 f4 fb ff ff 	mov    %ax,-0x40c(%rbp)
    9c17:	64 48 8b 04 25 28 00 	mov    %fs:0x28,%rax
    9c1e:	00 00 
    9c20:	48 89 45 f8          	mov    %rax,-0x8(%rbp)
    9c24:	31 c0                	xor    %eax,%eax
    9c26:	c6 85 0f fc ff ff ff 	movb   $0xff,-0x3f1(%rbp)
    9c2d:	c7 85 20 fc ff ff fb 	movl   $0xfffffffb,-0x3e0(%rbp)
    9c34:	ff ff ff 
    9c37:	48 8d 05 72 e5 00 00 	lea    0xe572(%rip),%rax        # 181b0 <g_111+0xd0>
    9c3e:	48 89 85 60 fc ff ff 	mov    %rax,-0x3a0(%rbp)
    9c45:	48 c7 85 68 fc ff ff 	movq   $0x0,-0x398(%rbp)
    9c4c:	00 00 00 00 
    9c50:	48 c7 85 30 fc ff ff 	movq   $0x0,-0x3d0(%rbp)
    9c57:	00 00 00 00 
    9c5b:	48 8d 85 30 fc ff ff 	lea    -0x3d0(%rbp),%rax
    9c62:	48 89 85 38 fc ff ff 	mov    %rax,-0x3c8(%rbp)
    9c69:	48 8d 05 08 14 01 00 	lea    0x11408(%rip),%rax        # 1b078 <g_1196>
    9c70:	48 89 85 70 fc ff ff 	mov    %rax,-0x390(%rbp)
    9c77:	48 8d 05 36 e4 00 00 	lea    0xe436(%rip),%rax        # 180b4 <g_102>
    9c7e:	48 89 85 40 fc ff ff 	mov    %rax,-0x3c0(%rbp)
    9c85:	48 8d 85 40 fc ff ff 	lea    -0x3c0(%rbp),%rax
    9c8c:	48 89 85 78 fc ff ff 	mov    %rax,-0x388(%rbp)
    9c93:	48 8d 05 2e 03 01 00 	lea    0x1032e(%rip),%rax        # 19fc8 <g_105>
    9c9a:	48 89 85 80 fc ff ff 	mov    %rax,-0x380(%rbp)
    9ca1:	c7 85 24 fc ff ff ff 	movl   $0xffffffff,-0x3dc(%rbp)
    9ca8:	ff ff ff 
    9cab:	48 8d 85 38 fc ff ff 	lea    -0x3c8(%rbp),%rax
    9cb2:	48 89 85 88 fc ff ff 	mov    %rax,-0x378(%rbp)
    9cb9:	c7 85 14 fc ff ff 00 	movl   $0x0,-0x3ec(%rbp)
    9cc0:	00 00 00 
    9cc3:	eb 4c                	jmp    9d11 <func_31+0x120>
    9cc5:	c7 85 18 fc ff ff 00 	movl   $0x0,-0x3e8(%rbp)
    9ccc:	00 00 00 
    9ccf:	eb 30                	jmp    9d01 <func_31+0x110>
    9cd1:	8b 85 18 fc ff ff    	mov    -0x3e8(%rbp),%eax
    9cd7:	48 63 c8             	movslq %eax,%rcx
    9cda:	8b 85 14 fc ff ff    	mov    -0x3ec(%rbp),%eax
    9ce0:	48 63 d0             	movslq %eax,%rdx
    9ce3:	48 89 d0             	mov    %rdx,%rax
    9ce6:	48 01 c0             	add    %rax,%rax
    9ce9:	48 01 d0             	add    %rdx,%rax
    9cec:	48 01 c8             	add    %rcx,%rax
    9cef:	c7 84 85 50 fd ff ff 	movl   $0x9dfa8563,-0x2b0(%rbp,%rax,4)
    9cf6:	63 85 fa 9d 
    9cfa:	83 85 18 fc ff ff 01 	addl   $0x1,-0x3e8(%rbp)
    9d01:	83 bd 18 fc ff ff 02 	cmpl   $0x2,-0x3e8(%rbp)
    9d08:	7e c7                	jle    9cd1 <func_31+0xe0>
    9d0a:	83 85 14 fc ff ff 01 	addl   $0x1,-0x3ec(%rbp)
    9d11:	83 bd 14 fc ff ff 07 	cmpl   $0x7,-0x3ec(%rbp)
    9d18:	7e ab                	jle    9cc5 <func_31+0xd4>
    9d1a:	c6 05 79 e7 00 00 00 	movb   $0x0,0xe779(%rip)        # 1849a <g_203+0x1a>
    9d21:	e9 03 02 00 00       	jmpq   9f29 <func_31+0x338>
    9d26:	c6 85 0e fc ff ff d3 	movb   $0xd3,-0x3f2(%rbp)
    9d2d:	48 8d 05 24 04 01 00 	lea    0x10424(%rip),%rax        # 1a158 <g_377+0x18>
    9d34:	48 89 85 f0 fc ff ff 	mov    %rax,-0x310(%rbp)
    9d3b:	48 8d 05 16 04 01 00 	lea    0x10416(%rip),%rax        # 1a158 <g_377+0x18>
    9d42:	48 89 85 f8 fc ff ff 	mov    %rax,-0x308(%rbp)
    9d49:	48 8d 05 08 04 01 00 	lea    0x10408(%rip),%rax        # 1a158 <g_377+0x18>
    9d50:	48 89 85 00 fd ff ff 	mov    %rax,-0x300(%rbp)
    9d57:	48 8d 05 fa 03 01 00 	lea    0x103fa(%rip),%rax        # 1a158 <g_377+0x18>
    9d5e:	48 89 85 08 fd ff ff 	mov    %rax,-0x2f8(%rbp)
    9d65:	48 8d 05 ec 03 01 00 	lea    0x103ec(%rip),%rax        # 1a158 <g_377+0x18>
    9d6c:	48 89 85 10 fd ff ff 	mov    %rax,-0x2f0(%rbp)
    9d73:	48 8d 85 f0 fc ff ff 	lea    -0x310(%rbp),%rax
    9d7a:	48 83 c0 18          	add    $0x18,%rax
    9d7e:	48 89 85 90 fc ff ff 	mov    %rax,-0x370(%rbp)
    9d85:	48 8d 85 20 fd ff ff 	lea    -0x2e0(%rbp),%rax
    9d8c:	48 89 85 98 fc ff ff 	mov    %rax,-0x368(%rbp)
    9d93:	c7 85 c0 fc ff ff fb 	movl   $0xfffffffb,-0x340(%rbp)
    9d9a:	ff ff ff 
    9d9d:	c7 85 c4 fc ff ff 08 	movl   $0x8,-0x33c(%rbp)
    9da4:	00 00 00 
    9da7:	c7 85 c8 fc ff ff 08 	movl   $0x8,-0x338(%rbp)
    9dae:	00 00 00 
    9db1:	c7 85 cc fc ff ff fb 	movl   $0xfffffffb,-0x334(%rbp)
    9db8:	ff ff ff 
    9dbb:	c7 85 d0 fc ff ff 08 	movl   $0x8,-0x330(%rbp)
    9dc2:	00 00 00 
    9dc5:	c7 85 d4 fc ff ff 08 	movl   $0x8,-0x32c(%rbp)
    9dcc:	00 00 00 
    9dcf:	c7 85 d8 fc ff ff fb 	movl   $0xfffffffb,-0x328(%rbp)
    9dd6:	ff ff ff 
    9dd9:	c7 85 dc fc ff ff 08 	movl   $0x8,-0x324(%rbp)
    9de0:	00 00 00 
    9de3:	c7 85 e0 fc ff ff 08 	movl   $0x8,-0x320(%rbp)
    9dea:	00 00 00 
    9ded:	66 c7 85 10 fc ff ff 	movw   $0x7d79,-0x3f0(%rbp)
    9df4:	79 7d 
    9df6:	c7 85 28 fc ff ff 07 	movl   $0x7,-0x3d8(%rbp)
    9dfd:	00 00 00 
    9e00:	48 b8 1a 83 10 2e 80 	movabs $0xdf5a1b802e10831a,%rax
    9e07:	1b 5a df 
    9e0a:	48 89 85 48 fc ff ff 	mov    %rax,-0x3b8(%rbp)
    9e11:	48 8d 85 48 fc ff ff 	lea    -0x3b8(%rbp),%rax
    9e18:	48 89 85 50 fc ff ff 	mov    %rax,-0x3b0(%rbp)
    9e1f:	48 8d 85 50 fc ff ff 	lea    -0x3b0(%rbp),%rax
    9e26:	48 89 85 58 fc ff ff 	mov    %rax,-0x3a8(%rbp)
    9e2d:	48 8d 85 58 fc ff ff 	lea    -0x3a8(%rbp),%rax
    9e34:	48 89 85 a0 fc ff ff 	mov    %rax,-0x360(%rbp)
    9e3b:	48 8d 85 b0 fd ff ff 	lea    -0x250(%rbp),%rax
    9e42:	48 8d 15 f7 f5 00 00 	lea    0xf5f7(%rip),%rdx        # 19440 <g_1904+0x350>
    9e49:	b9 48 00 00 00       	mov    $0x48,%ecx
    9e4e:	48 89 c7             	mov    %rax,%rdi
    9e51:	48 89 d6             	mov    %rdx,%rsi
    9e54:	f3 48 a5             	rep movsq %ds:(%rsi),%es:(%rdi)
    9e57:	48 8d 85 b0 fd ff ff 	lea    -0x250(%rbp),%rax
    9e5e:	48 05 b8 00 00 00    	add    $0xb8,%rax
    9e64:	48 89 85 a8 fc ff ff 	mov    %rax,-0x358(%rbp)
    9e6b:	48 c7 85 b0 fc ff ff 	movq   $0x0,-0x350(%rbp)
    9e72:	00 00 00 00 
    9e76:	66 c7 85 12 fc ff ff 	movw   $0x1,-0x3ee(%rbp)
    9e7d:	01 00 
    9e7f:	c7 85 2c fc ff ff 84 	movl   $0x38dd4d84,-0x3d4(%rbp)
    9e86:	4d dd 38 
    9e89:	c7 85 1c fc ff ff 00 	movl   $0x0,-0x3e4(%rbp)
    9e90:	00 00 00 
    9e93:	eb 1b                	jmp    9eb0 <func_31+0x2bf>
    9e95:	8b 85 1c fc ff ff    	mov    -0x3e4(%rbp),%eax
    9e9b:	48 98                	cltq   
    9e9d:	48 c7 84 c5 20 fd ff 	movq   $0x0,-0x2e0(%rbp,%rax,8)
    9ea4:	ff 00 00 00 00 
    9ea9:	83 85 1c fc ff ff 01 	addl   $0x1,-0x3e4(%rbp)
    9eb0:	83 bd 1c fc ff ff 05 	cmpl   $0x5,-0x3e4(%rbp)
    9eb7:	7e dc                	jle    9e95 <func_31+0x2a4>
    9eb9:	c7 85 1c fc ff ff 00 	movl   $0x0,-0x3e4(%rbp)
    9ec0:	00 00 00 
    9ec3:	eb 1b                	jmp    9ee0 <func_31+0x2ef>
    9ec5:	8b 85 1c fc ff ff    	mov    -0x3e4(%rbp),%eax
    9ecb:	48 98                	cltq   
    9ecd:	48 c7 84 c5 b8 fc ff 	movq   $0x0,-0x348(%rbp,%rax,8)
    9ed4:	ff 00 00 00 00 
    9ed9:	83 85 1c fc ff ff 01 	addl   $0x1,-0x3e4(%rbp)
    9ee0:	83 bd 1c fc ff ff 00 	cmpl   $0x0,-0x3e4(%rbp)
    9ee7:	7e dc                	jle    9ec5 <func_31+0x2d4>
    9ee9:	48 8d 85 f0 fc ff ff 	lea    -0x310(%rbp),%rax
    9ef0:	48 83 c0 20          	add    $0x20,%rax
    9ef4:	48 39 85 90 fc ff ff 	cmp    %rax,-0x370(%rbp)
    9efb:	0f 94 c0             	sete   %al
    9efe:	0f b6 c0             	movzbl %al,%eax
    9f01:	be 09 00 00 00       	mov    $0x9,%esi
    9f06:	89 c7                	mov    %eax,%edi
    9f08:	e8 6d cf ff ff       	callq  6e7a <safe_rshift_func_uint16_t_u_u>
    9f0d:	0f b7 d0             	movzwl %ax,%edx
    9f10:	48 8b 85 e8 fb ff ff 	mov    -0x418(%rbp),%rax
    9f17:	89 10                	mov    %edx,(%rax)
    9f19:	0f b6 05 7a e5 00 00 	movzbl 0xe57a(%rip),%eax        # 1849a <g_203+0x1a>
    9f20:	83 c0 01             	add    $0x1,%eax
    9f23:	88 05 71 e5 00 00    	mov    %al,0xe571(%rip)        # 1849a <g_203+0x1a>
    9f29:	0f b6 05 6a e5 00 00 	movzbl 0xe56a(%rip),%eax        # 1849a <g_203+0x1a>
    9f30:	3c 01                	cmp    $0x1,%al
    9f32:	0f 8e ee fd ff ff    	jle    9d26 <func_31+0x135>
    9f38:	8b 05 1a e6 00 00    	mov    0xe61a(%rip),%eax        # 18558 <g_287+0x8>
    9f3e:	c1 e0 0f             	shl    $0xf,%eax
    9f41:	c1 f8 1b             	sar    $0x1b,%eax
    9f44:	48 8b 4d f8          	mov    -0x8(%rbp),%rcx
    9f48:	64 48 33 0c 25 28 00 	xor    %fs:0x28,%rcx
    9f4f:	00 00 
    9f51:	74 05                	je     9f58 <func_31+0x367>
    9f53:	e8 18 c1 ff ff       	callq  6070 <__stack_chk_fail@plt>
    9f58:	c9                   	leaveq 
    9f59:	c3                   	retq   

0000000000009f5a <func_35>:
    9f5a:	f3 0f 1e fa          	endbr64 
    9f5e:	55                   	push   %rbp
    9f5f:	48 89 e5             	mov    %rsp,%rbp
    9f62:	48 81 ec 70 01 00 00 	sub    $0x170,%rsp
    9f69:	89 bd ac fe ff ff    	mov    %edi,-0x154(%rbp)
    9f6f:	48 89 b5 a0 fe ff ff 	mov    %rsi,-0x160(%rbp)
    9f76:	89 d0                	mov    %edx,%eax
    9f78:	48 89 8d 98 fe ff ff 	mov    %rcx,-0x168(%rbp)
    9f7f:	66 89 85 a8 fe ff ff 	mov    %ax,-0x158(%rbp)
    9f86:	64 48 8b 04 25 28 00 	mov    %fs:0x28,%rax
    9f8d:	00 00 
    9f8f:	48 89 45 f8          	mov    %rax,-0x8(%rbp)
    9f93:	31 c0                	xor    %eax,%eax
    9f95:	48 b8 19 99 f9 ee dd 	movabs $0x600895ddeef99919,%rax
    9f9c:	95 08 60 
    9f9f:	48 89 85 d8 fe ff ff 	mov    %rax,-0x128(%rbp)
    9fa6:	48 c7 85 e0 fe ff ff 	movq   $0x0,-0x120(%rbp)
    9fad:	00 00 00 00 
    9fb1:	48 8d 05 b8 e6 00 00 	lea    0xe6b8(%rip),%rax        # 18670 <g_477>
    9fb8:	48 89 85 d0 fe ff ff 	mov    %rax,-0x130(%rbp)
    9fbf:	48 8d 85 d0 fe ff ff 	lea    -0x130(%rbp),%rax
    9fc6:	48 89 85 e8 fe ff ff 	mov    %rax,-0x118(%rbp)
    9fcd:	48 c7 85 f0 fe ff ff 	movq   $0x0,-0x110(%rbp)
    9fd4:	00 00 00 00 
    9fd8:	c7 85 60 ff ff ff 4c 	movl   $0x1ba2a04c,-0xa0(%rbp)
    9fdf:	a0 a2 1b 
    9fe2:	c7 85 64 ff ff ff c6 	movl   $0xb4402bc6,-0x9c(%rbp)
    9fe9:	2b 40 b4 
    9fec:	c7 85 68 ff ff ff 4c 	movl   $0x1ba2a04c,-0x98(%rbp)
    9ff3:	a0 a2 1b 
    9ff6:	c7 85 6c ff ff ff 4c 	movl   $0x1ba2a04c,-0x94(%rbp)
    9ffd:	a0 a2 1b 
    a000:	c7 85 70 ff ff ff c6 	movl   $0xb4402bc6,-0x90(%rbp)
    a007:	2b 40 b4 
    a00a:	c7 85 74 ff ff ff 4c 	movl   $0x1ba2a04c,-0x8c(%rbp)
    a011:	a0 a2 1b 
    a014:	c7 85 78 ff ff ff 4c 	movl   $0x1ba2a04c,-0x88(%rbp)
    a01b:	a0 a2 1b 
    a01e:	c7 85 7c ff ff ff c6 	movl   $0xb4402bc6,-0x84(%rbp)
    a025:	2b 40 b4 
    a028:	c7 45 80 4c a0 a2 1b 	movl   $0x1ba2a04c,-0x80(%rbp)
    a02f:	c7 45 84 4c a0 a2 1b 	movl   $0x1ba2a04c,-0x7c(%rbp)
    a036:	c7 45 88 c6 2b 40 b4 	movl   $0xb4402bc6,-0x78(%rbp)
    a03d:	c7 45 8c 4c a0 a2 1b 	movl   $0x1ba2a04c,-0x74(%rbp)
    a044:	c7 45 90 4c a0 a2 1b 	movl   $0x1ba2a04c,-0x70(%rbp)
    a04b:	c7 45 94 c6 2b 40 b4 	movl   $0xb4402bc6,-0x6c(%rbp)
    a052:	c7 45 98 4c a0 a2 1b 	movl   $0x1ba2a04c,-0x68(%rbp)
    a059:	48 8d 05 52 e0 00 00 	lea    0xe052(%rip),%rax        # 180b2 <g_97>
    a060:	48 89 85 30 ff ff ff 	mov    %rax,-0xd0(%rbp)
    a067:	48 c7 85 38 ff ff ff 	movq   $0x0,-0xc8(%rbp)
    a06e:	00 00 00 00 
    a072:	48 c7 85 40 ff ff ff 	movq   $0x0,-0xc0(%rbp)
    a079:	00 00 00 00 
    a07d:	48 8d 05 2e e0 00 00 	lea    0xe02e(%rip),%rax        # 180b2 <g_97>
    a084:	48 89 85 48 ff ff ff 	mov    %rax,-0xb8(%rbp)
    a08b:	48 c7 85 50 ff ff ff 	movq   $0x0,-0xb0(%rbp)
    a092:	00 00 00 00 
    a096:	48 c7 85 58 ff ff ff 	movq   $0x0,-0xa8(%rbp)
    a09d:	00 00 00 00 
    a0a1:	48 8d 05 0c e0 00 00 	lea    0xe00c(%rip),%rax        # 180b4 <g_102>
    a0a8:	48 89 85 f8 fe ff ff 	mov    %rax,-0x108(%rbp)
    a0af:	c7 85 10 ff ff ff 78 	movl   $0x55f8d678,-0xf0(%rbp)
    a0b6:	d6 f8 55 
    a0b9:	c7 85 14 ff ff ff 01 	movl   $0x1,-0xec(%rbp)
    a0c0:	00 00 00 
    a0c3:	c7 85 18 ff ff ff 01 	movl   $0x1,-0xe8(%rbp)
    a0ca:	00 00 00 
    a0cd:	c7 85 1c ff ff ff 78 	movl   $0x55f8d678,-0xe4(%rbp)
    a0d4:	d6 f8 55 
    a0d7:	c7 85 20 ff ff ff 01 	movl   $0x1,-0xe0(%rbp)
    a0de:	00 00 00 
    a0e1:	c7 85 24 ff ff ff 01 	movl   $0x1,-0xdc(%rbp)
    a0e8:	00 00 00 
    a0eb:	c7 85 28 ff ff ff 78 	movl   $0x55f8d678,-0xd8(%rbp)
    a0f2:	d6 f8 55 
    a0f5:	c7 85 2c ff ff ff 01 	movl   $0x1,-0xd4(%rbp)
    a0fc:	00 00 00 
    a0ff:	66 c7 85 be fe ff ff 	movw   $0x1,-0x142(%rbp)
    a106:	01 00 
    a108:	48 c7 85 00 ff ff ff 	movq   $0x0,-0x100(%rbp)
    a10f:	00 00 00 00 
    a113:	c7 85 c8 fe ff ff d8 	movl   $0xffc5d4d8,-0x138(%rbp)
    a11a:	d4 c5 ff 
    a11d:	c7 85 cc fe ff ff 08 	movl   $0x8,-0x134(%rbp)
    a124:	00 00 00 
    a127:	48 8d 05 4a e8 00 00 	lea    0xe84a(%rip),%rax        # 18978 <g_849>
    a12e:	48 89 85 08 ff ff ff 	mov    %rax,-0xf8(%rbp)
    a135:	c7 85 c0 fe ff ff 00 	movl   $0x0,-0x140(%rbp)
    a13c:	00 00 00 
    a13f:	eb 43                	jmp    a184 <func_35+0x22a>
    a141:	c7 85 c4 fe ff ff 00 	movl   $0x0,-0x13c(%rbp)
    a148:	00 00 00 
    a14b:	eb 27                	jmp    a174 <func_35+0x21a>
    a14d:	8b 85 c4 fe ff ff    	mov    -0x13c(%rbp),%eax
    a153:	48 98                	cltq   
    a155:	8b 95 c0 fe ff ff    	mov    -0x140(%rbp),%edx
    a15b:	48 63 d2             	movslq %edx,%rdx
    a15e:	48 01 d2             	add    %rdx,%rdx
    a161:	48 01 d0             	add    %rdx,%rax
    a164:	48 c7 44 c5 a0 00 00 	movq   $0x0,-0x60(%rbp,%rax,8)
    a16b:	00 00 
    a16d:	83 85 c4 fe ff ff 01 	addl   $0x1,-0x13c(%rbp)
    a174:	83 bd c4 fe ff ff 01 	cmpl   $0x1,-0x13c(%rbp)
    a17b:	7e d0                	jle    a14d <func_35+0x1f3>
    a17d:	83 85 c0 fe ff ff 01 	addl   $0x1,-0x140(%rbp)
    a184:	83 bd c0 fe ff ff 04 	cmpl   $0x4,-0x140(%rbp)
    a18b:	7e b4                	jle    a141 <func_35+0x1e7>
    a18d:	0f b7 85 a8 fe ff ff 	movzwl -0x158(%rbp),%eax
    a194:	89 c6                	mov    %eax,%esi
    a196:	bf 3b 01 00 00       	mov    $0x13b,%edi
    a19b:	e8 5f cb ff ff       	callq  6cff <safe_add_func_uint16_t_u_u>
    a1a0:	0f b7 c0             	movzwl %ax,%eax
    a1a3:	48 89 85 d8 fe ff ff 	mov    %rax,-0x128(%rbp)
    a1aa:	66 83 bd a8 fe ff ff 	cmpw   $0x0,-0x158(%rbp)
    a1b1:	00 
    a1b2:	90                   	nop
    a1b3:	f3 0f 1e fa          	endbr64 
    a1b7:	48 8b 85 e8 fe ff ff 	mov    -0x118(%rbp),%rax
    a1be:	48 8d 15 ab e4 00 00 	lea    0xe4ab(%rip),%rdx        # 18670 <g_477>
    a1c5:	48 89 10             	mov    %rdx,(%rax)
    a1c8:	8b 95 7c ff ff ff    	mov    -0x84(%rbp),%edx
    a1ce:	48 83 bd f0 fe ff ff 	cmpq   $0x0,-0x110(%rbp)
    a1d5:	00 
    a1d6:	0f 95 c0             	setne  %al
    a1d9:	0f b6 c0             	movzbl %al,%eax
    a1dc:	21 d0                	and    %edx,%eax
    a1de:	89 85 7c ff ff ff    	mov    %eax,-0x84(%rbp)
    a1e4:	48 8b 05 8d fe 00 00 	mov    0xfe8d(%rip),%rax        # 1a078 <g_163>
    a1eb:	48 8b 00             	mov    (%rax),%rax
    a1ee:	48 8b 00             	mov    (%rax),%rax
    a1f1:	48 8b 4d f8          	mov    -0x8(%rbp),%rcx
    a1f5:	64 48 33 0c 25 28 00 	xor    %fs:0x28,%rcx
    a1fc:	00 00 
    a1fe:	74 05                	je     a205 <func_35+0x2ab>
    a200:	e8 6b be ff ff       	callq  6070 <__stack_chk_fail@plt>
    a205:	c9                   	leaveq 
    a206:	c3                   	retq   

000000000000a207 <func_40>:
    a207:	f3 0f 1e fa          	endbr64 
    a20b:	55                   	push   %rbp
    a20c:	48 89 e5             	mov    %rsp,%rbp
    a20f:	41 55                	push   %r13
    a211:	41 54                	push   %r12
    a213:	53                   	push   %rbx
    a214:	48 81 ec d8 01 00 00 	sub    $0x1d8,%rsp
    a21b:	48 89 bd 18 fe ff ff 	mov    %rdi,-0x1e8(%rbp)
    a222:	64 48 8b 04 25 28 00 	mov    %fs:0x28,%rax
    a229:	00 00 
    a22b:	48 89 45 d8          	mov    %rax,-0x28(%rbp)
    a22f:	31 c0                	xor    %eax,%eax
    a231:	c6 85 23 fe ff ff ff 	movb   $0xff,-0x1dd(%rbp)
    a238:	c7 85 24 fe ff ff b1 	movl   $0x8249a1b1,-0x1dc(%rbp)
    a23f:	a1 49 82 
    a242:	48 c7 85 30 fe ff ff 	movq   $0x0,-0x1d0(%rbp)
    a249:	00 00 00 00 
    a24d:	48 8d 85 30 fe ff ff 	lea    -0x1d0(%rbp),%rax
    a254:	48 89 85 40 fe ff ff 	mov    %rax,-0x1c0(%rbp)
    a25b:	48 c7 85 48 fe ff ff 	movq   $0x0,-0x1b8(%rbp)
    a262:	00 00 00 00 
    a266:	48 8d 05 b3 fe 00 00 	lea    0xfeb3(%rip),%rax        # 1a120 <g_315>
    a26d:	48 89 85 50 fe ff ff 	mov    %rax,-0x1b0(%rbp)
    a274:	c7 85 28 fe ff ff 00 	movl   $0x0,-0x1d8(%rbp)
    a27b:	00 00 00 
    a27e:	eb 1e                	jmp    a29e <func_40+0x97>
    a280:	8b 85 28 fe ff ff    	mov    -0x1d8(%rbp),%eax
    a286:	48 98                	cltq   
    a288:	48 8d 15 81 e4 00 00 	lea    0xe481(%rip),%rdx        # 18710 <g_591+0x10>
    a28f:	48 89 94 c5 90 fe ff 	mov    %rdx,-0x170(%rbp,%rax,8)
    a296:	ff 
    a297:	83 85 28 fe ff ff 01 	addl   $0x1,-0x1d8(%rbp)
    a29e:	83 bd 28 fe ff ff 01 	cmpl   $0x1,-0x1d8(%rbp)
    a2a5:	7e d9                	jle    a280 <func_40+0x79>
    a2a7:	8b 15 d7 dd 00 00    	mov    0xddd7(%rip),%edx        # 18084 <g_11+0x24>
    a2ad:	48 8b 05 cc fd 00 00 	mov    0xfdcc(%rip),%rax        # 1a080 <g_162>
    a2b4:	48 8b 18             	mov    (%rax),%rbx
    a2b7:	0f b6 85 23 fe ff ff 	movzbl -0x1dd(%rbp),%eax
    a2be:	89 d6                	mov    %edx,%esi
    a2c0:	89 c7                	mov    %eax,%edi
    a2c2:	e8 79 05 00 00       	callq  a840 <func_42>
    a2c7:	48 89 03             	mov    %rax,(%rbx)
    a2ca:	48 8b 05 a7 fd 00 00 	mov    0xfda7(%rip),%rax        # 1a078 <g_163>
    a2d1:	48 8b 00             	mov    (%rax),%rax
    a2d4:	48 8b 00             	mov    (%rax),%rax
    a2d7:	8b 00                	mov    (%rax),%eax
    a2d9:	89 85 24 fe ff ff    	mov    %eax,-0x1dc(%rbp)
    a2df:	c7 05 b3 e1 00 00 17 	movl   $0x17,0xe1b3(%rip)        # 1849c <g_203+0x1c>
    a2e6:	00 00 00 
    a2e9:	e9 36 03 00 00       	jmpq   a624 <func_40+0x41d>
    a2ee:	c7 85 10 ff ff ff 01 	movl   $0x1,-0xf0(%rbp)
    a2f5:	00 00 00 
    a2f8:	c7 85 14 ff ff ff ff 	movl   $0xffffffff,-0xec(%rbp)
    a2ff:	ff ff ff 
    a302:	c7 85 18 ff ff ff 01 	movl   $0x1,-0xe8(%rbp)
    a309:	00 00 00 
    a30c:	c7 85 1c ff ff ff 8a 	movl   $0xa77b1d8a,-0xe4(%rbp)
    a313:	1d 7b a7 
    a316:	c7 85 20 ff ff ff 00 	movl   $0x0,-0xe0(%rbp)
    a31d:	00 00 00 
    a320:	c7 85 24 ff ff ff f6 	movl   $0xfffffff6,-0xdc(%rbp)
    a327:	ff ff ff 
    a32a:	c7 85 28 ff ff ff 01 	movl   $0x1,-0xd8(%rbp)
    a331:	00 00 00 
    a334:	c7 85 2c ff ff ff 01 	movl   $0x1,-0xd4(%rbp)
    a33b:	00 00 00 
    a33e:	c7 85 30 ff ff ff f6 	movl   $0xfffffff6,-0xd0(%rbp)
    a345:	ff ff ff 
    a348:	c7 85 34 ff ff ff 00 	movl   $0x0,-0xcc(%rbp)
    a34f:	00 00 00 
    a352:	c7 85 38 ff ff ff 8a 	movl   $0xa77b1d8a,-0xc8(%rbp)
    a359:	1d 7b a7 
    a35c:	c7 85 3c ff ff ff 01 	movl   $0x1,-0xc4(%rbp)
    a363:	00 00 00 
    a366:	c7 85 40 ff ff ff ff 	movl   $0xffffffff,-0xc0(%rbp)
    a36d:	ff ff ff 
    a370:	c7 85 44 ff ff ff 01 	movl   $0x1,-0xbc(%rbp)
    a377:	00 00 00 
    a37a:	c7 85 48 ff ff ff b6 	movl   $0xa3dfafb6,-0xb8(%rbp)
    a381:	af df a3 
    a384:	c7 85 4c ff ff ff ff 	movl   $0xffffffff,-0xb4(%rbp)
    a38b:	ff ff ff 
    a38e:	c7 85 50 ff ff ff 00 	movl   $0x0,-0xb0(%rbp)
    a395:	00 00 00 
    a398:	c7 85 54 ff ff ff 06 	movl   $0x6,-0xac(%rbp)
    a39f:	00 00 00 
    a3a2:	c7 85 58 ff ff ff 00 	movl   $0x0,-0xa8(%rbp)
    a3a9:	00 00 00 
    a3ac:	c7 85 5c ff ff ff ff 	movl   $0xffffffff,-0xa4(%rbp)
    a3b3:	ff ff ff 
    a3b6:	c7 85 60 ff ff ff b6 	movl   $0xa3dfafb6,-0xa0(%rbp)
    a3bd:	af df a3 
    a3c0:	c7 85 64 ff ff ff 01 	movl   $0x1,-0x9c(%rbp)
    a3c7:	00 00 00 
    a3ca:	c7 85 68 ff ff ff ff 	movl   $0xffffffff,-0x98(%rbp)
    a3d1:	ff ff ff 
    a3d4:	c7 85 6c ff ff ff 01 	movl   $0x1,-0x94(%rbp)
    a3db:	00 00 00 
    a3de:	c7 85 70 ff ff ff 8a 	movl   $0xa77b1d8a,-0x90(%rbp)
    a3e5:	1d 7b a7 
    a3e8:	c7 85 74 ff ff ff 00 	movl   $0x0,-0x8c(%rbp)
    a3ef:	00 00 00 
    a3f2:	c7 85 78 ff ff ff f6 	movl   $0xfffffff6,-0x88(%rbp)
    a3f9:	ff ff ff 
    a3fc:	c7 85 7c ff ff ff 01 	movl   $0x1,-0x84(%rbp)
    a403:	00 00 00 
    a406:	c7 45 80 01 00 00 00 	movl   $0x1,-0x80(%rbp)
    a40d:	c7 45 84 f6 ff ff ff 	movl   $0xfffffff6,-0x7c(%rbp)
    a414:	c7 45 88 00 00 00 00 	movl   $0x0,-0x78(%rbp)
    a41b:	c7 45 8c 8a 1d 7b a7 	movl   $0xa77b1d8a,-0x74(%rbp)
    a422:	c7 45 90 01 00 00 00 	movl   $0x1,-0x70(%rbp)
    a429:	c7 45 94 ff ff ff ff 	movl   $0xffffffff,-0x6c(%rbp)
    a430:	c7 45 98 01 00 00 00 	movl   $0x1,-0x68(%rbp)
    a437:	c7 45 9c b6 af df a3 	movl   $0xa3dfafb6,-0x64(%rbp)
    a43e:	c7 45 a0 ff ff ff ff 	movl   $0xffffffff,-0x60(%rbp)
    a445:	c7 45 a4 00 00 00 00 	movl   $0x0,-0x5c(%rbp)
    a44c:	c7 45 a8 06 00 00 00 	movl   $0x6,-0x58(%rbp)
    a453:	c7 45 ac 00 00 00 00 	movl   $0x0,-0x54(%rbp)
    a45a:	c7 45 b0 ff ff ff ff 	movl   $0xffffffff,-0x50(%rbp)
    a461:	c7 45 b4 b6 af df a3 	movl   $0xa3dfafb6,-0x4c(%rbp)
    a468:	c7 45 b8 01 00 00 00 	movl   $0x1,-0x48(%rbp)
    a46f:	c7 45 bc ff ff ff ff 	movl   $0xffffffff,-0x44(%rbp)
    a476:	c7 45 c0 01 00 00 00 	movl   $0x1,-0x40(%rbp)
    a47d:	c7 45 c4 8a 1d 7b a7 	movl   $0xa77b1d8a,-0x3c(%rbp)
    a484:	c7 45 c8 00 00 00 00 	movl   $0x0,-0x38(%rbp)
    a48b:	c7 45 cc f6 ff ff ff 	movl   $0xfffffff6,-0x34(%rbp)
    a492:	c7 45 d0 01 00 00 00 	movl   $0x1,-0x30(%rbp)
    a499:	48 c7 85 58 fe ff ff 	movq   $0x0,-0x1a8(%rbp)
    a4a0:	00 00 00 00 
    a4a4:	8b 85 50 ff ff ff    	mov    -0xb0(%rbp),%eax
    a4aa:	85 c0                	test   %eax,%eax
    a4ac:	0f 84 4a 01 00 00    	je     a5fc <func_40+0x3f5>
    a4b2:	c7 85 2c fe ff ff e0 	movl   $0xd34d50e0,-0x1d4(%rbp)
    a4b9:	50 4d d3 
    a4bc:	c7 05 7a 0b 01 00 ed 	movl   $0xffffffed,0x10b7a(%rip)        # 1b040 <g_89>
    a4c3:	ff ff ff 
    a4c6:	e9 20 01 00 00       	jmpq   a5eb <func_40+0x3e4>
    a4cb:	48 8d 85 10 ff ff ff 	lea    -0xf0(%rbp),%rax
    a4d2:	48 83 c0 54          	add    $0x54,%rax
    a4d6:	48 89 85 60 fe ff ff 	mov    %rax,-0x1a0(%rbp)
    a4dd:	48 c7 85 68 fe ff ff 	movq   $0x0,-0x198(%rbp)
    a4e4:	00 00 00 00 
    a4e8:	48 8d 05 bd db 00 00 	lea    0xdbbd(%rip),%rax        # 180ac <g_48>
    a4ef:	48 89 85 70 fe ff ff 	mov    %rax,-0x190(%rbp)
    a4f6:	48 8d 85 10 ff ff ff 	lea    -0xf0(%rbp),%rax
    a4fd:	48 83 c0 40          	add    $0x40,%rax
    a501:	48 89 85 78 fe ff ff 	mov    %rax,-0x188(%rbp)
    a508:	48 c7 85 c0 fe ff ff 	movq   $0x0,-0x140(%rbp)
    a50f:	00 00 00 00 
    a513:	48 c7 85 c8 fe ff ff 	movq   $0x0,-0x138(%rbp)
    a51a:	00 00 00 00 
    a51e:	48 c7 85 d0 fe ff ff 	movq   $0x0,-0x130(%rbp)
    a525:	00 00 00 00 
    a529:	48 c7 85 d8 fe ff ff 	movq   $0x0,-0x128(%rbp)
    a530:	00 00 00 00 
    a534:	48 c7 85 e0 fe ff ff 	movq   $0x0,-0x120(%rbp)
    a53b:	00 00 00 00 
    a53f:	48 c7 85 e8 fe ff ff 	movq   $0x0,-0x118(%rbp)
    a546:	00 00 00 00 
    a54a:	48 c7 85 f0 fe ff ff 	movq   $0x0,-0x110(%rbp)
    a551:	00 00 00 00 
    a555:	48 c7 85 f8 fe ff ff 	movq   $0x0,-0x108(%rbp)
    a55c:	00 00 00 00 
    a560:	48 c7 85 00 ff ff ff 	movq   $0x0,-0x100(%rbp)
    a567:	00 00 00 00 
    a56b:	48 c7 85 08 ff ff ff 	movq   $0x0,-0xf8(%rbp)
    a572:	00 00 00 00 
    a576:	48 8d 05 73 de 00 00 	lea    0xde73(%rip),%rax        # 183f0 <g_191+0x10>
    a57d:	48 89 85 38 fe ff ff 	mov    %rax,-0x1c8(%rbp)
    a584:	48 8d 85 38 fe ff ff 	lea    -0x1c8(%rbp),%rax
    a58b:	48 89 85 a0 fe ff ff 	mov    %rax,-0x160(%rbp)
    a592:	48 8d 85 38 fe ff ff 	lea    -0x1c8(%rbp),%rax
    a599:	48 89 85 a8 fe ff ff 	mov    %rax,-0x158(%rbp)
    a5a0:	48 8d 85 38 fe ff ff 	lea    -0x1c8(%rbp),%rax
    a5a7:	48 89 85 b0 fe ff ff 	mov    %rax,-0x150(%rbp)
    a5ae:	48 8d 85 38 fe ff ff 	lea    -0x1c8(%rbp),%rax
    a5b5:	48 89 85 b8 fe ff ff 	mov    %rax,-0x148(%rbp)
    a5bc:	83 ad 2c fe ff ff 01 	subl   $0x1,-0x1d4(%rbp)
    a5c3:	48 8b 85 58 fe ff ff 	mov    -0x1a8(%rbp),%rax
    a5ca:	48 89 85 a8 fe ff ff 	mov    %rax,-0x158(%rbp)
    a5d1:	8b 05 69 0a 01 00    	mov    0x10a69(%rip),%eax        # 1b040 <g_89>
    a5d7:	98                   	cwtl   
    a5d8:	be 08 00 00 00       	mov    $0x8,%esi
    a5dd:	89 c7                	mov    %eax,%edi
    a5df:	e8 cf bd ff ff       	callq  63b3 <safe_add_func_int16_t_s_s>
    a5e4:	98                   	cwtl   
    a5e5:	89 05 55 0a 01 00    	mov    %eax,0x10a55(%rip)        # 1b040 <g_89>
    a5eb:	8b 05 4f 0a 01 00    	mov    0x10a4f(%rip),%eax        # 1b040 <g_89>
    a5f1:	83 f8 fc             	cmp    $0xfffffffc,%eax
    a5f4:	0f 8d d1 fe ff ff    	jge    a4cb <func_40+0x2c4>
    a5fa:	eb 0a                	jmp    a606 <func_40+0x3ff>
    a5fc:	8b 85 30 ff ff ff    	mov    -0xd0(%rbp),%eax
    a602:	85 c0                	test   %eax,%eax
    a604:	75 2f                	jne    a635 <func_40+0x42e>
    a606:	8b 05 90 de 00 00    	mov    0xde90(%rip),%eax        # 1849c <g_203+0x1c>
    a60c:	0f b7 c0             	movzwl %ax,%eax
    a60f:	be 08 00 00 00       	mov    $0x8,%esi
    a614:	89 c7                	mov    %eax,%edi
    a616:	e8 e4 c6 ff ff       	callq  6cff <safe_add_func_uint16_t_u_u>
    a61b:	0f b7 c0             	movzwl %ax,%eax
    a61e:	89 05 78 de 00 00    	mov    %eax,0xde78(%rip)        # 1849c <g_203+0x1c>
    a624:	8b 05 72 de 00 00    	mov    0xde72(%rip),%eax        # 1849c <g_203+0x1c>
    a62a:	83 f8 30             	cmp    $0x30,%eax
    a62d:	0f 87 bb fc ff ff    	ja     a2ee <func_40+0xe7>
    a633:	eb 01                	jmp    a636 <func_40+0x42f>
    a635:	90                   	nop
    a636:	0f b6 85 23 fe ff ff 	movzbl -0x1dd(%rbp),%eax
    a63d:	0f be d8             	movsbl %al,%ebx
    a640:	0f b7 05 01 df 00 00 	movzwl 0xdf01(%rip),%eax        # 18548 <g_264>
    a647:	4c 0f bf e0          	movswq %ax,%r12
    a64b:	0f b6 85 23 fe ff ff 	movzbl -0x1dd(%rbp),%eax
    a652:	44 0f b6 e8          	movzbl %al,%r13d
    a656:	be 03 00 00 00       	mov    $0x3,%esi
    a65b:	bf 09 00 00 00       	mov    $0x9,%edi
    a660:	e8 59 c7 ff ff       	callq  6dbe <safe_lshift_func_uint16_t_u_s>
    a665:	66 85 c0             	test   %ax,%ax
    a668:	0f 84 c7 00 00 00    	je     a735 <func_40+0x52e>
    a66e:	8b 15 3c db 00 00    	mov    0xdb3c(%rip),%edx        # 181b0 <g_111+0xd0>
    a674:	8b 05 2e e0 00 00    	mov    0xe02e(%rip),%eax        # 186a8 <g_495+0x8>
    a67a:	c1 e0 0f             	shl    $0xf,%eax
    a67d:	c1 f8 1b             	sar    $0x1b,%eax
    a680:	0f be c0             	movsbl %al,%eax
    a683:	31 d0                	xor    %edx,%eax
    a685:	89 05 25 db 00 00    	mov    %eax,0xdb25(%rip)        # 181b0 <g_111+0xd0>
    a68b:	8b 85 24 fe ff ff    	mov    -0x1dc(%rbp),%eax
    a691:	89 c7                	mov    %eax,%edi
    a693:	8b 0d 0b df 00 00    	mov    0xdf0b(%rip),%ecx        # 185a4 <g_391+0x4>
    a699:	48 8b 05 88 fa 00 00 	mov    0xfa88(%rip),%rax        # 1a128 <g_378>
    a6a0:	48 8b 30             	mov    (%rax),%rsi
    a6a3:	0f b6 85 23 fe ff ff 	movzbl -0x1dd(%rbp),%eax
    a6aa:	0f b6 c0             	movzbl %al,%eax
    a6ad:	48 8d 95 24 fe ff ff 	lea    -0x1dc(%rbp),%rdx
    a6b4:	41 89 f8             	mov    %edi,%r8d
    a6b7:	0f b6 36             	movzbl (%rsi),%esi
    a6ba:	89 c7                	mov    %eax,%edi
    a6bc:	e8 f4 21 00 00       	callq  c8b5 <func_68>
    a6c1:	48 8b 95 40 fe ff ff 	mov    -0x1c0(%rbp),%rdx
    a6c8:	48 89 02             	mov    %rax,(%rdx)
    a6cb:	48 8b 85 40 fe ff ff 	mov    -0x1c0(%rbp),%rax
    a6d2:	48 8b 00             	mov    (%rax),%rax
    a6d5:	48 8d 15 bc d9 00 00 	lea    0xd9bc(%rip),%rdx        # 18098 <g_17>
    a6dc:	48 39 d0             	cmp    %rdx,%rax
    a6df:	74 12                	je     a6f3 <func_40+0x4ec>
    a6e1:	0f b6 85 23 fe ff ff 	movzbl -0x1dd(%rbp),%eax
    a6e8:	84 c0                	test   %al,%al
    a6ea:	74 07                	je     a6f3 <func_40+0x4ec>
    a6ec:	ba 01 00 00 00       	mov    $0x1,%edx
    a6f1:	eb 05                	jmp    a6f8 <func_40+0x4f1>
    a6f3:	ba 00 00 00 00       	mov    $0x0,%edx
    a6f8:	8b 85 24 fe ff ff    	mov    -0x1dc(%rbp),%eax
    a6fe:	39 c2                	cmp    %eax,%edx
    a700:	0f 9f c0             	setg   %al
    a703:	0f b6 c0             	movzbl %al,%eax
    a706:	be 06 00 00 00       	mov    $0x6,%esi
    a70b:	89 c7                	mov    %eax,%edi
    a70d:	e8 18 be ff ff       	callq  652a <safe_rshift_func_int16_t_s_s>
    a712:	98                   	cwtl   
    a713:	25 80 00 00 00       	and    $0x80,%eax
    a718:	89 c2                	mov    %eax,%edx
    a71a:	8b 05 bc de 00 00    	mov    0xdebc(%rip),%eax        # 185dc <g_423+0xc>
    a720:	c1 e8 0e             	shr    $0xe,%eax
    a723:	66 25 ff 01          	and    $0x1ff,%ax
    a727:	0f b7 c0             	movzwl %ax,%eax
    a72a:	39 c2                	cmp    %eax,%edx
    a72c:	7e 07                	jle    a735 <func_40+0x52e>
    a72e:	ba 01 00 00 00       	mov    $0x1,%edx
    a733:	eb 05                	jmp    a73a <func_40+0x533>
    a735:	ba 00 00 00 00       	mov    $0x0,%edx
    a73a:	0f b6 85 23 fe ff ff 	movzbl -0x1dd(%rbp),%eax
    a741:	0f b6 c0             	movzbl %al,%eax
    a744:	31 d0                	xor    %edx,%eax
    a746:	44 89 ee             	mov    %r13d,%esi
    a749:	89 c7                	mov    %eax,%edi
    a74b:	e8 ad c7 ff ff       	callq  6efd <safe_mod_func_uint32_t_u_u>
    a750:	8b 95 24 fe ff ff    	mov    -0x1dc(%rbp),%edx
    a756:	39 d0                	cmp    %edx,%eax
    a758:	0f 95 c0             	setne  %al
    a75b:	0f b6 c0             	movzbl %al,%eax
    a75e:	48 89 05 ab df 00 00 	mov    %rax,0xdfab(%rip)        # 18710 <g_591+0x10>
    a765:	48 8b 05 a4 df 00 00 	mov    0xdfa4(%rip),%rax        # 18710 <g_591+0x10>
    a76c:	4c 89 e6             	mov    %r12,%rsi
    a76f:	48 89 c7             	mov    %rax,%rdi
    a772:	e8 31 c1 ff ff       	callq  68a8 <safe_sub_func_int64_t_s_s>
    a777:	0f b6 95 23 fe ff ff 	movzbl -0x1dd(%rbp),%edx
    a77e:	0f b6 d2             	movzbl %dl,%edx
    a781:	48 39 d0             	cmp    %rdx,%rax
    a784:	0f 9d c0             	setge  %al
    a787:	0f b6 c0             	movzbl %al,%eax
    a78a:	89 de                	mov    %ebx,%esi
    a78c:	89 c7                	mov    %eax,%edi
    a78e:	e8 d7 ba ff ff       	callq  626a <safe_div_func_int8_t_s_s>
    a793:	0f be d0             	movsbl %al,%edx
    a796:	8b 85 24 fe ff ff    	mov    -0x1dc(%rbp),%eax
    a79c:	39 c2                	cmp    %eax,%edx
    a79e:	75 0c                	jne    a7ac <func_40+0x5a5>
    a7a0:	48 8b 05 c9 f8 00 00 	mov    0xf8c9(%rip),%rax        # 1a070 <g_150>
    a7a7:	48 8b 00             	mov    (%rax),%rax
    a7aa:	eb 72                	jmp    a81e <func_40+0x617>
    a7ac:	48 c7 85 38 fe ff ff 	movq   $0x0,-0x1c8(%rbp)
    a7b3:	00 00 00 00 
    a7b7:	48 8d 85 38 fe ff ff 	lea    -0x1c8(%rbp),%rax
    a7be:	48 89 85 80 fe ff ff 	mov    %rax,-0x180(%rbp)
    a7c5:	48 8d 05 b8 d8 00 00 	lea    0xd8b8(%rip),%rax        # 18084 <g_11+0x24>
    a7cc:	48 89 85 88 fe ff ff 	mov    %rax,-0x178(%rbp)
    a7d3:	48 8d 05 46 f9 00 00 	lea    0xf946(%rip),%rax        # 1a120 <g_315>
    a7da:	48 89 85 50 fe ff ff 	mov    %rax,-0x1b0(%rbp)
    a7e1:	48 8b 95 38 fe ff ff 	mov    -0x1c8(%rbp),%rdx
    a7e8:	48 8b 85 80 fe ff ff 	mov    -0x180(%rbp),%rax
    a7ef:	48 89 10             	mov    %rdx,(%rax)
    a7f2:	48 8b 85 80 fe ff ff 	mov    -0x180(%rbp),%rax
    a7f9:	48 8b 00             	mov    (%rax),%rax
    a7fc:	48 85 c0             	test   %rax,%rax
    a7ff:	0f 94 c0             	sete   %al
    a802:	0f b6 d0             	movzbl %al,%edx
    a805:	48 8b 85 88 fe ff ff 	mov    -0x178(%rbp),%rax
    a80c:	89 10                	mov    %edx,(%rax)
    a80e:	48 8b 05 6b f8 00 00 	mov    0xf86b(%rip),%rax        # 1a080 <g_162>
    a815:	48 8b 00             	mov    (%rax),%rax
    a818:	48 8b 00             	mov    (%rax),%rax
    a81b:	48 8b 00             	mov    (%rax),%rax
    a81e:	48 8b 4d d8          	mov    -0x28(%rbp),%rcx
    a822:	64 48 33 0c 25 28 00 	xor    %fs:0x28,%rcx
    a829:	00 00 
    a82b:	74 05                	je     a832 <func_40+0x62b>
    a82d:	e8 3e b8 ff ff       	callq  6070 <__stack_chk_fail@plt>
    a832:	48 81 c4 d8 01 00 00 	add    $0x1d8,%rsp
    a839:	5b                   	pop    %rbx
    a83a:	41 5c                	pop    %r12
    a83c:	41 5d                	pop    %r13
    a83e:	5d                   	pop    %rbp
    a83f:	c3                   	retq   

000000000000a840 <func_42>:
    a840:	f3 0f 1e fa          	endbr64 
    a844:	55                   	push   %rbp
    a845:	48 89 e5             	mov    %rsp,%rbp
    a848:	41 57                	push   %r15
    a84a:	41 56                	push   %r14
    a84c:	41 55                	push   %r13
    a84e:	41 54                	push   %r12
    a850:	53                   	push   %rbx
    a851:	48 81 ec 00 10 00 00 	sub    $0x1000,%rsp
    a858:	48 83 0c 24 00       	orq    $0x0,(%rsp)
    a85d:	48 81 ec 78 04 00 00 	sub    $0x478,%rsp
    a864:	40 88 bd 7f eb ff ff 	mov    %dil,-0x1481(%rbp)
    a86b:	89 b5 78 eb ff ff    	mov    %esi,-0x1488(%rbp)
    a871:	64 48 8b 04 25 28 00 	mov    %fs:0x28,%rax
    a878:	00 00 
    a87a:	48 89 45 c8          	mov    %rax,-0x38(%rbp)
    a87e:	31 c0                	xor    %eax,%eax
    a880:	48 8d 05 fd d7 00 00 	lea    0xd7fd(%rip),%rax        # 18084 <g_11+0x24>
    a887:	48 89 85 d8 eb ff ff 	mov    %rax,-0x1428(%rbp)
    a88e:	c6 85 83 eb ff ff 07 	movb   $0x7,-0x147d(%rbp)
    a895:	c7 85 90 eb ff ff 5d 	movl   $0xfd33c25d,-0x1470(%rbp)
    a89c:	c2 33 fd 
    a89f:	c7 85 a8 eb ff ff 01 	movl   $0x1,-0x1458(%rbp)
    a8a6:	00 00 00 
    a8a9:	48 8d 85 90 ee ff ff 	lea    -0x1170(%rbp),%rax
    a8b0:	48 8d 15 e9 87 00 00 	lea    0x87e9(%rip),%rdx        # 130a0 <g_1899+0x20>
    a8b7:	b9 3c 00 00 00       	mov    $0x3c,%ecx
    a8bc:	48 89 c7             	mov    %rax,%rdi
    a8bf:	48 89 d6             	mov    %rdx,%rsi
    a8c2:	f3 48 a5             	rep movsq %ds:(%rsi),%es:(%rdi)
    a8c5:	48 b8 eb f6 f4 5a f0 	movabs $0xb2e4ff05af4f6eb,%rax
    a8cc:	4f 2e 0b 
    a8cf:	48 89 85 20 ec ff ff 	mov    %rax,-0x13e0(%rbp)
    a8d6:	c6 85 86 eb ff ff b5 	movb   $0xb5,-0x147a(%rbp)
    a8dd:	66 c7 85 88 eb ff ff 	movw   $0xdb72,-0x1478(%rbp)
    a8e4:	72 db 
    a8e6:	48 8d 05 b3 dd 00 00 	lea    0xddb3(%rip),%rax        # 186a0 <g_495>
    a8ed:	48 89 85 28 ec ff ff 	mov    %rax,-0x13d8(%rbp)
    a8f4:	c6 85 84 eb ff ff 44 	movb   $0x44,-0x147c(%rbp)
    a8fb:	c7 85 ac eb ff ff 00 	movl   $0x0,-0x1454(%rbp)
    a902:	00 00 00 
    a905:	eb 1a                	jmp    a921 <func_42+0xe1>
    a907:	8b 85 ac eb ff ff    	mov    -0x1454(%rbp),%eax
    a90d:	48 98                	cltq   
    a90f:	c7 84 85 a8 ec ff ff 	movl   $0xfffffffa,-0x1358(%rbp,%rax,4)
    a916:	fa ff ff ff 
    a91a:	83 85 ac eb ff ff 01 	addl   $0x1,-0x1454(%rbp)
    a921:	83 bd ac eb ff ff 01 	cmpl   $0x1,-0x1454(%rbp)
    a928:	7e dd                	jle    a907 <func_42+0xc7>
    a92a:	c7 85 ac eb ff ff 00 	movl   $0x0,-0x1454(%rbp)
    a931:	00 00 00 
    a934:	eb 1e                	jmp    a954 <func_42+0x114>
    a936:	8b 85 ac eb ff ff    	mov    -0x1454(%rbp),%eax
    a93c:	48 98                	cltq   
    a93e:	48 8d 15 db db 00 00 	lea    0xdbdb(%rip),%rdx        # 18520 <g_256>
    a945:	48 89 94 c5 d0 ec ff 	mov    %rdx,-0x1330(%rbp,%rax,8)
    a94c:	ff 
    a94d:	83 85 ac eb ff ff 01 	addl   $0x1,-0x1454(%rbp)
    a954:	83 bd ac eb ff ff 05 	cmpl   $0x5,-0x1454(%rbp)
    a95b:	7e d9                	jle    a936 <func_42+0xf6>
    a95d:	90                   	nop
    a95e:	48 8b 85 d8 eb ff ff 	mov    -0x1428(%rbp),%rax
    a965:	c7 00 d7 0a 9f 05    	movl   $0x59f0ad7,(%rax)
    a96b:	48 8b 85 d8 eb ff ff 	mov    -0x1428(%rbp),%rax
    a972:	8b 10                	mov    (%rax),%edx
    a974:	48 8b 85 d8 eb ff ff 	mov    -0x1428(%rbp),%rax
    a97b:	83 e2 fe             	and    $0xfffffffe,%edx
    a97e:	89 10                	mov    %edx,(%rax)
    a980:	8b 10                	mov    (%rax),%edx
    a982:	8b 85 a8 ec ff ff    	mov    -0x1358(%rbp),%eax
    a988:	09 d0                	or     %edx,%eax
    a98a:	89 85 a8 ec ff ff    	mov    %eax,-0x1358(%rbp)
    a990:	48 8b 05 09 d7 00 00 	mov    0xd709(%rip),%rax        # 180a0 <g_28>
    a997:	48 c1 e0 06          	shl    $0x6,%rax
    a99b:	48 c1 f8 3a          	sar    $0x3a,%rax
    a99f:	84 c0                	test   %al,%al
    a9a1:	0f 84 c2 01 00 00    	je     ab69 <func_42+0x329>
    a9a7:	48 b8 b7 08 0e 20 ac 	movabs $0x400f4cac200e08b7,%rax
    a9ae:	4c 0f 40 
    a9b1:	48 89 85 70 ec ff ff 	mov    %rax,-0x1390(%rbp)
    a9b8:	c7 85 a0 ec ff ff 01 	movl   $0x1,-0x1360(%rbp)
    a9bf:	00 00 00 
    a9c2:	c6 85 a4 ec ff ff 03 	movb   $0x3,-0x135c(%rbp)
    a9c9:	c7 85 c4 eb ff ff 00 	movl   $0x0,-0x143c(%rbp)
    a9d0:	00 00 00 
    a9d3:	48 8d 85 d8 eb ff ff 	lea    -0x1428(%rbp),%rax
    a9da:	48 89 85 78 ec ff ff 	mov    %rax,-0x1388(%rbp)
    a9e1:	48 8d 05 98 da 00 00 	lea    0xda98(%rip),%rax        # 18480 <g_203>
    a9e8:	48 89 85 80 ec ff ff 	mov    %rax,-0x1380(%rbp)
    a9ef:	c7 85 c8 eb ff ff 01 	movl   $0x1,-0x1438(%rbp)
    a9f6:	00 00 00 
    a9f9:	c7 85 cc eb ff ff 99 	movl   $0xbea54999,-0x1434(%rbp)
    aa00:	49 a5 be 
    aa03:	c7 85 d0 eb ff ff 01 	movl   $0x1,-0x1430(%rbp)
    aa0a:	00 00 00 
    aa0d:	c7 85 70 f0 ff ff d3 	movl   $0xd4f6f6d3,-0xf90(%rbp)
    aa14:	f6 f6 d4 
    aa17:	c7 85 74 f0 ff ff d3 	movl   $0xd4f6f6d3,-0xf8c(%rbp)
    aa1e:	f6 f6 d4 
    aa21:	c7 85 78 f0 ff ff 01 	movl   $0x1,-0xf88(%rbp)
    aa28:	00 00 00 
    aa2b:	c7 85 7c f0 ff ff d3 	movl   $0xd4f6f6d3,-0xf84(%rbp)
    aa32:	f6 f6 d4 
    aa35:	c7 85 80 f0 ff ff d3 	movl   $0xd4f6f6d3,-0xf80(%rbp)
    aa3c:	f6 f6 d4 
    aa3f:	c7 85 84 f0 ff ff 01 	movl   $0x1,-0xf7c(%rbp)
    aa46:	00 00 00 
    aa49:	c7 85 88 f0 ff ff d3 	movl   $0xd4f6f6d3,-0xf78(%rbp)
    aa50:	f6 f6 d4 
    aa53:	c7 85 8c f0 ff ff d3 	movl   $0xd4f6f6d3,-0xf74(%rbp)
    aa5a:	f6 f6 d4 
    aa5d:	c7 85 90 f0 ff ff 01 	movl   $0x1,-0xf70(%rbp)
    aa64:	00 00 00 
    aa67:	c7 85 d4 eb ff ff 3b 	movl   $0x7ebb463b,-0x142c(%rbp)
    aa6e:	46 bb 7e 
    aa71:	48 8d 05 c8 05 01 00 	lea    0x105c8(%rip),%rax        # 1b040 <g_89>
    aa78:	48 89 85 88 ec ff ff 	mov    %rax,-0x1378(%rbp)
    aa7f:	c7 85 78 eb ff ff 01 	movl   $0x1,-0x1488(%rbp)
    aa86:	00 00 00 
    aa89:	e9 c9 00 00 00       	jmpq   ab57 <func_42+0x317>
    aa8e:	48 8d 85 d8 eb ff ff 	lea    -0x1428(%rbp),%rax
    aa95:	48 89 85 90 ec ff ff 	mov    %rax,-0x1370(%rbp)
    aa9c:	c7 85 b0 ec ff ff 41 	movl   $0x20c9e941,-0x1350(%rbp)
    aaa3:	e9 c9 20 
    aaa6:	c7 85 b4 ec ff ff 41 	movl   $0x20c9e941,-0x134c(%rbp)
    aaad:	e9 c9 20 
    aab0:	c7 85 b8 ec ff ff 41 	movl   $0x20c9e941,-0x1348(%rbp)
    aab7:	e9 c9 20 
    aaba:	c7 85 bc ec ff ff 41 	movl   $0x20c9e941,-0x1344(%rbp)
    aac1:	e9 c9 20 
    aac4:	c7 85 c0 ec ff ff 41 	movl   $0x20c9e941,-0x1340(%rbp)
    aacb:	e9 c9 20 
    aace:	48 8d 85 f0 f7 ff ff 	lea    -0x810(%rbp),%rax
    aad5:	48 8d 15 a4 87 00 00 	lea    0x87a4(%rip),%rdx        # 13280 <g_1899+0x200>
    aadc:	b9 60 00 00 00       	mov    $0x60,%ecx
    aae1:	48 89 c7             	mov    %rax,%rdi
    aae4:	48 89 d6             	mov    %rdx,%rsi
    aae7:	f3 48 a5             	rep movsq %ds:(%rsi),%es:(%rdi)
    aaea:	66 c7 85 8c eb ff ff 	movw   $0x6f4,-0x1474(%rbp)
    aaf1:	f4 06 
    aaf3:	48 8d 05 6e f5 00 00 	lea    0xf56e(%rip),%rax        # 1a068 <g_151>
    aafa:	48 89 85 98 ec ff ff 	mov    %rax,-0x1368(%rbp)
    ab01:	48 8d 05 c0 f4 00 00 	lea    0xf4c0(%rip),%rax        # 19fc8 <g_105>
    ab08:	48 89 85 f8 eb ff ff 	mov    %rax,-0x1408(%rbp)
    ab0f:	48 8d 85 f8 eb ff ff 	lea    -0x1408(%rbp),%rax
    ab16:	48 89 85 00 ed ff ff 	mov    %rax,-0x1300(%rbp)
    ab1d:	48 8d 85 f8 eb ff ff 	lea    -0x1408(%rbp),%rax
    ab24:	48 89 85 08 ed ff ff 	mov    %rax,-0x12f8(%rbp)
    ab2b:	48 8d 85 f8 eb ff ff 	lea    -0x1408(%rbp),%rax
    ab32:	48 89 85 10 ed ff ff 	mov    %rax,-0x12f0(%rbp)
    ab39:	48 8d 85 f8 eb ff ff 	lea    -0x1408(%rbp),%rax
    ab40:	48 89 85 18 ed ff ff 	mov    %rax,-0x12e8(%rbp)
    ab47:	66 c7 85 8e eb ff ff 	movw   $0xffff,-0x1472(%rbp)
    ab4e:	ff ff 
    ab50:	83 ad 78 eb ff ff 01 	subl   $0x1,-0x1488(%rbp)
    ab57:	83 bd 78 eb ff ff 00 	cmpl   $0x0,-0x1488(%rbp)
    ab5e:	0f 89 2a ff ff ff    	jns    aa8e <func_42+0x24e>
    ab64:	e9 3b 1b 00 00       	jmpq   c6a4 <func_42+0x1e64>
    ab69:	c7 85 98 eb ff ff 01 	movl   $0x1,-0x1468(%rbp)
    ab70:	00 00 00 
    ab73:	c6 85 85 eb ff ff 00 	movb   $0x0,-0x147b(%rbp)
    ab7a:	c7 85 94 eb ff ff aa 	movl   $0xe2e31aa,-0x146c(%rbp)
    ab81:	31 2e 0e 
    ab84:	48 8d 05 05 db 00 00 	lea    0xdb05(%rip),%rax        # 18690 <g_493>
    ab8b:	48 89 85 00 ec ff ff 	mov    %rax,-0x1400(%rbp)
    ab92:	48 8d 85 f0 f7 ff ff 	lea    -0x810(%rbp),%rax
    ab99:	48 8d 15 e0 ea 00 00 	lea    0xeae0(%rip),%rdx        # 19680 <g_1904+0x590>
    aba0:	b9 fa 00 00 00       	mov    $0xfa,%ecx
    aba5:	48 89 c7             	mov    %rax,%rdi
    aba8:	48 89 d6             	mov    %rdx,%rsi
    abab:	f3 48 a5             	rep movsq %ds:(%rsi),%es:(%rdi)
    abae:	c6 85 86 eb ff ff 00 	movb   $0x0,-0x147a(%rbp)
    abb5:	e9 a9 1a 00 00       	jmpq   c663 <func_42+0x1e23>
    abba:	48 c7 85 e0 eb ff ff 	movq   $0x0,-0x1420(%rbp)
    abc1:	00 00 00 00 
    abc5:	48 8d 85 e0 eb ff ff 	lea    -0x1420(%rbp),%rax
    abcc:	48 89 85 e8 eb ff ff 	mov    %rax,-0x1418(%rbp)
    abd3:	48 8d 85 e8 eb ff ff 	lea    -0x1418(%rbp),%rax
    abda:	48 89 85 f0 eb ff ff 	mov    %rax,-0x1410(%rbp)
    abe1:	48 8d 85 f0 eb ff ff 	lea    -0x1410(%rbp),%rax
    abe8:	48 89 85 f8 eb ff ff 	mov    %rax,-0x1408(%rbp)
    abef:	48 8d 05 72 f4 00 00 	lea    0xf472(%rip),%rax        # 1a068 <g_151>
    abf6:	48 89 85 08 ec ff ff 	mov    %rax,-0x13f8(%rbp)
    abfd:	c7 85 9c eb ff ff 00 	movl   $0x0,-0x1464(%rbp)
    ac04:	00 00 00 
    ac07:	c7 85 a0 eb ff ff bb 	movl   $0xcac9d5bb,-0x1460(%rbp)
    ac0e:	d5 c9 ca 
    ac11:	c6 05 98 d4 00 00 00 	movb   $0x0,0xd498(%rip)        # 180b0 <g_61>
    ac18:	e9 c2 01 00 00       	jmpq   addf <func_42+0x59f>
    ac1d:	c7 85 c0 eb ff ff 1e 	movl   $0x6af2951e,-0x1440(%rbp)
    ac24:	95 f2 6a 
    ac27:	66 c7 85 88 eb ff ff 	movw   $0x0,-0x1478(%rbp)
    ac2e:	00 00 
    ac30:	eb 6b                	jmp    ac9d <func_42+0x45d>
    ac32:	48 8d 85 f8 eb ff ff 	lea    -0x1408(%rbp),%rax
    ac39:	48 89 85 58 ec ff ff 	mov    %rax,-0x13a8(%rbp)
    ac40:	48 c7 85 60 ec ff ff 	movq   $0x0,-0x13a0(%rbp)
    ac47:	00 00 00 00 
    ac4b:	48 8d 85 f0 eb ff ff 	lea    -0x1410(%rbp),%rax
    ac52:	48 89 85 a0 ec ff ff 	mov    %rax,-0x1360(%rbp)
    ac59:	48 8d 85 a0 ec ff ff 	lea    -0x1360(%rbp),%rax
    ac60:	48 89 85 68 ec ff ff 	mov    %rax,-0x1398(%rbp)
    ac67:	48 8b 95 f8 eb ff ff 	mov    -0x1408(%rbp),%rdx
    ac6e:	48 8b 85 58 ec ff ff 	mov    -0x13a8(%rbp),%rax
    ac75:	48 89 10             	mov    %rdx,(%rax)
    ac78:	48 8b 85 58 ec ff ff 	mov    -0x13a8(%rbp),%rax
    ac7f:	48 8b 10             	mov    (%rax),%rdx
    ac82:	48 8b 85 68 ec ff ff 	mov    -0x1398(%rbp),%rax
    ac89:	48 89 10             	mov    %rdx,(%rax)
    ac8c:	0f b7 85 88 eb ff ff 	movzwl -0x1478(%rbp),%eax
    ac93:	83 c0 01             	add    $0x1,%eax
    ac96:	66 89 85 88 eb ff ff 	mov    %ax,-0x1478(%rbp)
    ac9d:	0f b7 85 88 eb ff ff 	movzwl -0x1478(%rbp),%eax
    aca4:	66 85 c0             	test   %ax,%ax
    aca7:	74 89                	je     ac32 <func_42+0x3f2>
    aca9:	0f b7 05 10 d7 00 00 	movzwl 0xd710(%rip),%eax        # 183c0 <g_190+0x20>
    acb0:	8b 85 78 eb ff ff    	mov    -0x1488(%rbp),%eax
    acb6:	4c 63 e0             	movslq %eax,%r12
    acb9:	83 bd 78 eb ff ff 00 	cmpl   $0x0,-0x1488(%rbp)
    acc0:	0f 95 c0             	setne  %al
    acc3:	0f b6 d0             	movzbl %al,%edx
    acc6:	0f b7 05 8b d8 00 00 	movzwl 0xd88b(%rip),%eax        # 18558 <g_287+0x8>
    accd:	c1 e0 04             	shl    $0x4,%eax
    acd0:	66 c1 f8 04          	sar    $0x4,%ax
    acd4:	98                   	cwtl   
    acd5:	09 d0                	or     %edx,%eax
    acd7:	48 63 d8             	movslq %eax,%rbx
    acda:	be 43 00 00 00       	mov    $0x43,%esi
    acdf:	bf 01 00 00 00       	mov    $0x1,%edi
    ace4:	e8 eb b4 ff ff       	callq  61d4 <safe_add_func_int8_t_s_s>
    ace9:	3c 3a                	cmp    $0x3a,%al
    aceb:	0f 94 c0             	sete   %al
    acee:	0f b6 c0             	movzbl %al,%eax
    acf1:	48 89 de             	mov    %rbx,%rsi
    acf4:	48 89 c7             	mov    %rax,%rdi
    acf7:	e8 4f c3 ff ff       	callq  704b <safe_sub_func_uint64_t_u_u>
    acfc:	0f b6 85 7f eb ff ff 	movzbl -0x1481(%rbp),%eax
    ad03:	0f b6 c0             	movzbl %al,%eax
    ad06:	33 85 98 eb ff ff    	xor    -0x1468(%rbp),%eax
    ad0c:	89 c2                	mov    %eax,%edx
    ad0e:	0f b6 85 7f eb ff ff 	movzbl -0x1481(%rbp),%eax
    ad15:	0f b6 c0             	movzbl %al,%eax
    ad18:	48 89 d6             	mov    %rdx,%rsi
    ad1b:	48 89 c7             	mov    %rax,%rdi
    ad1e:	e8 5d c3 ff ff       	callq  7080 <safe_mod_func_uint64_t_u_u>
    ad23:	49 39 c4             	cmp    %rax,%r12
    ad26:	74 67                	je     ad8f <func_42+0x54f>
    ad28:	48 8d 05 21 d7 00 00 	lea    0xd721(%rip),%rax        # 18450 <g_191+0x70>
    ad2f:	48 89 85 70 f0 ff ff 	mov    %rax,-0xf90(%rbp)
    ad36:	48 8d 05 1b d7 00 00 	lea    0xd71b(%rip),%rax        # 18458 <g_191+0x78>
    ad3d:	48 89 85 78 f0 ff ff 	mov    %rax,-0xf88(%rbp)
    ad44:	48 8d 05 0d d7 00 00 	lea    0xd70d(%rip),%rax        # 18458 <g_191+0x78>
    ad4b:	48 89 85 80 f0 ff ff 	mov    %rax,-0xf80(%rbp)
    ad52:	48 8d 05 f7 d6 00 00 	lea    0xd6f7(%rip),%rax        # 18450 <g_191+0x70>
    ad59:	48 89 85 88 f0 ff ff 	mov    %rax,-0xf78(%rbp)
    ad60:	48 8d 05 f1 d6 00 00 	lea    0xd6f1(%rip),%rax        # 18458 <g_191+0x78>
    ad67:	48 89 85 90 f0 ff ff 	mov    %rax,-0xf70(%rbp)
    ad6e:	48 8d 05 e3 d6 00 00 	lea    0xd6e3(%rip),%rax        # 18458 <g_191+0x78>
    ad75:	48 89 85 98 f0 ff ff 	mov    %rax,-0xf68(%rbp)
    ad7c:	48 8b 05 c5 f8 00 00 	mov    0xf8c5(%rip),%rax        # 1a648 <g_428>
    ad83:	48 8b 95 70 f0 ff ff 	mov    -0xf90(%rbp),%rdx
    ad8a:	48 89 10             	mov    %rdx,(%rax)
    ad8d:	eb 1e                	jmp    adad <func_42+0x56d>
    ad8f:	48 8b 85 d8 eb ff ff 	mov    -0x1428(%rbp),%rax
    ad96:	8b 08                	mov    (%rax),%ecx
    ad98:	0f b6 85 7f eb ff ff 	movzbl -0x1481(%rbp),%eax
    ad9f:	0f b6 d0             	movzbl %al,%edx
    ada2:	48 8b 85 d8 eb ff ff 	mov    -0x1428(%rbp),%rax
    ada9:	31 ca                	xor    %ecx,%edx
    adab:	89 10                	mov    %edx,(%rax)
    adad:	c7 05 e5 d6 00 00 00 	movl   $0x0,0xd6e5(%rip)        # 1849c <g_203+0x1c>
    adb4:	00 00 00 
    adb7:	90                   	nop
    adb8:	8b 05 de d6 00 00    	mov    0xd6de(%rip),%eax        # 1849c <g_203+0x1c>
    adbe:	83 f8 01             	cmp    $0x1,%eax
    adc1:	77 0c                	ja     adcf <func_42+0x58f>
    adc3:	48 8b 85 08 ec ff ff 	mov    -0x13f8(%rbp),%rax
    adca:	e9 e5 18 00 00       	jmpq   c6b4 <func_42+0x1e74>
    adcf:	0f b6 05 da d2 00 00 	movzbl 0xd2da(%rip),%eax        # 180b0 <g_61>
    add6:	83 c0 01             	add    $0x1,%eax
    add9:	88 05 d1 d2 00 00    	mov    %al,0xd2d1(%rip)        # 180b0 <g_61>
    addf:	0f b6 05 ca d2 00 00 	movzbl 0xd2ca(%rip),%eax        # 180b0 <g_61>
    ade6:	84 c0                	test   %al,%al
    ade8:	0f 84 2f fe ff ff    	je     ac1d <func_42+0x3dd>
    adee:	c7 05 48 02 01 00 00 	movl   $0x0,0x10248(%rip)        # 1b040 <g_89>
    adf5:	00 00 00 
    adf8:	e9 51 18 00 00       	jmpq   c64e <func_42+0x1e0e>
    adfd:	66 c7 85 8a eb ff ff 	movw   $0x1,-0x1476(%rbp)
    ae04:	01 00 
    ae06:	c7 85 b0 ec ff ff 6d 	movl   $0x7a60ef6d,-0x1350(%rbp)
    ae0d:	ef 60 7a 
    ae10:	c7 85 b4 ec ff ff 01 	movl   $0x1,-0x134c(%rbp)
    ae17:	00 00 00 
    ae1a:	c7 85 b8 ec ff ff 01 	movl   $0x1,-0x1348(%rbp)
    ae21:	00 00 00 
    ae24:	c7 85 bc ec ff ff 6d 	movl   $0x7a60ef6d,-0x1344(%rbp)
    ae2b:	ef 60 7a 
    ae2e:	c7 85 c0 ec ff ff 01 	movl   $0x1,-0x1340(%rbp)
    ae35:	00 00 00 
    ae38:	c7 85 c4 ec ff ff 01 	movl   $0x1,-0x133c(%rbp)
    ae3f:	00 00 00 
    ae42:	c6 85 87 eb ff ff 26 	movb   $0x26,-0x1479(%rbp)
    ae49:	c7 05 49 d6 00 00 00 	movl   $0x0,0xd649(%rip)        # 1849c <g_203+0x1c>
    ae50:	00 00 00 
    ae53:	e9 d0 02 00 00       	jmpq   b128 <func_42+0x8e8>
    ae58:	48 8d 05 21 f2 00 00 	lea    0xf221(%rip),%rax        # 1a080 <g_162>
    ae5f:	48 89 85 40 ec ff ff 	mov    %rax,-0x13c0(%rbp)
    ae66:	8b 05 d4 01 01 00    	mov    0x101d4(%rip),%eax        # 1b040 <g_89>
    ae6c:	0f b6 95 86 eb ff ff 	movzbl -0x147a(%rbp),%edx
    ae73:	48 63 ca             	movslq %edx,%rcx
    ae76:	48 63 d0             	movslq %eax,%rdx
    ae79:	48 89 d0             	mov    %rdx,%rax
    ae7c:	48 c1 e0 03          	shl    $0x3,%rax
    ae80:	48 29 d0             	sub    %rdx,%rax
    ae83:	48 01 c8             	add    %rcx,%rax
    ae86:	48 8d 14 85 00 00 00 	lea    0x0(,%rax,4),%rdx
    ae8d:	00 
    ae8e:	48 8d 05 db d4 00 00 	lea    0xd4db(%rip),%rax        # 18370 <g_149>
    ae95:	8b 14 02             	mov    (%rdx,%rax,1),%edx
    ae98:	48 8b 85 d8 eb ff ff 	mov    -0x1428(%rbp),%rax
    ae9f:	8b 00                	mov    (%rax),%eax
    aea1:	21 c2                	and    %eax,%edx
    aea3:	48 8b 85 d8 eb ff ff 	mov    -0x1428(%rbp),%rax
    aeaa:	89 10                	mov    %edx,(%rax)
    aeac:	c6 05 07 d7 00 00 00 	movb   $0x0,0xd707(%rip)        # 185ba <g_391+0x1a>
    aeb3:	e9 35 02 00 00       	jmpq   b0ed <func_42+0x8ad>
    aeb8:	48 8d 05 db d5 00 00 	lea    0xd5db(%rip),%rax        # 1849a <g_203+0x1a>
    aebf:	48 89 85 48 ec ff ff 	mov    %rax,-0x13b8(%rbp)
    aec6:	48 8d 85 8a eb ff ff 	lea    -0x1476(%rbp),%rax
    aecd:	48 89 85 50 ec ff ff 	mov    %rax,-0x13b0(%rbp)
    aed4:	c7 85 bc eb ff ff 00 	movl   $0x0,-0x1444(%rbp)
    aedb:	00 00 00 
    aede:	48 83 bd 40 ec ff ff 	cmpq   $0x0,-0x13c0(%rbp)
    aee5:	00 
    aee6:	0f 94 c0             	sete   %al
    aee9:	44 0f b6 f0          	movzbl %al,%r14d
    aeed:	0f b7 05 ce d6 00 00 	movzwl 0xd6ce(%rip),%eax        # 185c2 <g_391+0x22>
    aef4:	0f bf d8             	movswl %ax,%ebx
    aef7:	8b 85 78 eb ff ff    	mov    -0x1488(%rbp),%eax
    aefd:	44 0f be e0          	movsbl %al,%r12d
    af01:	48 8b 05 80 d7 00 00 	mov    0xd780(%rip),%rax        # 18688 <g_478>
    af08:	8b 05 32 01 01 00    	mov    0x10132(%rip),%eax        # 1b040 <g_89>
    af0e:	0f b6 15 a5 d6 00 00 	movzbl 0xd6a5(%rip),%edx        # 185ba <g_391+0x1a>
    af15:	0f be d2             	movsbl %dl,%edx
    af18:	83 c2 03             	add    $0x3,%edx
    af1b:	48 63 ca             	movslq %edx,%rcx
    af1e:	48 63 d0             	movslq %eax,%rdx
    af21:	48 89 d0             	mov    %rdx,%rax
    af24:	48 c1 e0 03          	shl    $0x3,%rax
    af28:	48 29 d0             	sub    %rdx,%rax
    af2b:	48 01 c8             	add    %rcx,%rax
    af2e:	48 8d 14 85 00 00 00 	lea    0x0(,%rax,4),%rdx
    af35:	00 
    af36:	48 8d 05 33 d4 00 00 	lea    0xd433(%rip),%rax        # 18370 <g_149>
    af3d:	44 8b 3c 02          	mov    (%rdx,%rax,1),%r15d
    af41:	44 8b ad 78 eb ff ff 	mov    -0x1488(%rbp),%r13d
    af48:	0f b7 85 8a eb ff ff 	movzwl -0x1476(%rbp),%eax
    af4f:	0f be c0             	movsbl %al,%eax
    af52:	be 01 00 00 00       	mov    $0x1,%esi
    af57:	89 c7                	mov    %eax,%edi
    af59:	e8 0c b3 ff ff       	callq  626a <safe_div_func_int8_t_s_s>
    af5e:	0f be c0             	movsbl %al,%eax
    af61:	44 89 ee             	mov    %r13d,%esi
    af64:	89 c7                	mov    %eax,%edi
    af66:	e8 ba bf ff ff       	callq  6f25 <safe_div_func_uint32_t_u_u>
    af6b:	3d 17 f3 c1 01       	cmp    $0x1c1f317,%eax
    af70:	0f 97 c0             	seta   %al
    af73:	0f b6 d0             	movzbl %al,%edx
    af76:	0f b7 05 73 d4 00 00 	movzwl 0xd473(%rip),%eax        # 183f0 <g_191+0x10>
    af7d:	0f b7 c0             	movzwl %ax,%eax
    af80:	39 c2                	cmp    %eax,%edx
    af82:	0f 94 c0             	sete   %al
    af85:	0f b6 c0             	movzbl %al,%eax
    af88:	41 39 c7             	cmp    %eax,%r15d
    af8b:	0f 94 c0             	sete   %al
    af8e:	89 c2                	mov    %eax,%edx
    af90:	48 8b 85 48 ec ff ff 	mov    -0x13b8(%rbp),%rax
    af97:	88 10                	mov    %dl,(%rax)
    af99:	48 8b 85 48 ec ff ff 	mov    -0x13b8(%rbp),%rax
    afa0:	0f b6 00             	movzbl (%rax),%eax
    afa3:	0f be c0             	movsbl %al,%eax
    afa6:	44 89 e6             	mov    %r12d,%esi
    afa9:	89 c7                	mov    %eax,%edi
    afab:	e8 81 b2 ff ff       	callq  6231 <safe_mod_func_int8_t_s_s>
    afb0:	66 0f be d0          	movsbw %al,%dx
    afb4:	48 8b 85 50 ec ff ff 	mov    -0x13b0(%rbp),%rax
    afbb:	66 89 10             	mov    %dx,(%rax)
    afbe:	48 8b 85 50 ec ff ff 	mov    -0x13b0(%rbp),%rax
    afc5:	0f b7 00             	movzwl (%rax),%eax
    afc8:	98                   	cwtl   
    afc9:	be 0a 00 00 00       	mov    $0xa,%esi
    afce:	89 c7                	mov    %eax,%edi
    afd0:	e8 55 b5 ff ff       	callq  652a <safe_rshift_func_int16_t_s_s>
    afd5:	0f bf d0             	movswl %ax,%edx
    afd8:	48 8b 85 08 ec ff ff 	mov    -0x13f8(%rbp),%rax
    afdf:	48 8b 00             	mov    (%rax),%rax
    afe2:	8b 00                	mov    (%rax),%eax
    afe4:	39 c2                	cmp    %eax,%edx
    afe6:	0f 9d c0             	setge  %al
    afe9:	0f b6 c0             	movzbl %al,%eax
    afec:	89 de                	mov    %ebx,%esi
    afee:	89 c7                	mov    %eax,%edi
    aff0:	e8 98 bc ff ff       	callq  6c8d <safe_rshift_func_uint8_t_u_s>
    aff5:	f7 d0                	not    %eax
    aff7:	0f be c8             	movsbl %al,%ecx
    affa:	8b 05 40 00 01 00    	mov    0x10040(%rip),%eax        # 1b040 <g_89>
    b000:	0f b6 95 86 eb ff ff 	movzbl -0x147a(%rbp),%edx
    b007:	48 63 f2             	movslq %edx,%rsi
    b00a:	48 63 d0             	movslq %eax,%rdx
    b00d:	48 89 d0             	mov    %rdx,%rax
    b010:	48 c1 e0 03          	shl    $0x3,%rax
    b014:	48 29 d0             	sub    %rdx,%rax
    b017:	48 01 f0             	add    %rsi,%rax
    b01a:	48 8d 14 85 00 00 00 	lea    0x0(,%rax,4),%rdx
    b021:	00 
    b022:	48 8d 05 47 d3 00 00 	lea    0xd347(%rip),%rax        # 18370 <g_149>
    b029:	8b 04 02             	mov    (%rdx,%rax,1),%eax
    b02c:	0f be c0             	movsbl %al,%eax
    b02f:	89 ce                	mov    %ecx,%esi
    b031:	89 c7                	mov    %eax,%edi
    b033:	e8 32 b2 ff ff       	callq  626a <safe_div_func_int8_t_s_s>
    b038:	0f be c0             	movsbl %al,%eax
    b03b:	89 85 bc eb ff ff    	mov    %eax,-0x1444(%rbp)
    b041:	44 39 b5 bc eb ff ff 	cmp    %r14d,-0x1444(%rbp)
    b048:	0f 9c c0             	setl   %al
    b04b:	0f b6 c0             	movzbl %al,%eax
    b04e:	89 85 b4 ec ff ff    	mov    %eax,-0x134c(%rbp)
    b054:	48 8b 05 2d d4 00 00 	mov    0xd42d(%rip),%rax        # 18488 <g_203+0x8>
    b05b:	48 c1 e8 2e          	shr    $0x2e,%rax
    b05f:	66 25 ff 01          	and    $0x1ff,%ax
    b063:	0f b7 c0             	movzwl %ax,%eax
    b066:	be 32 b0 f9 24       	mov    $0x24f9b032,%esi
    b06b:	89 c7                	mov    %eax,%edi
    b06d:	e8 8b be ff ff       	callq  6efd <safe_mod_func_uint32_t_u_u>
    b072:	48 8b 95 00 ec ff ff 	mov    -0x1400(%rbp),%rdx
    b079:	48 89 95 28 ec ff ff 	mov    %rdx,-0x13d8(%rbp)
    b080:	48 8b 15 91 f0 00 00 	mov    0xf091(%rip),%rdx        # 1a118 <g_316>
    b087:	48 39 95 28 ec ff ff 	cmp    %rdx,-0x13d8(%rbp)
    b08e:	0f 94 c2             	sete   %dl
    b091:	0f b6 d2             	movzbl %dl,%edx
    b094:	39 d0                	cmp    %edx,%eax
    b096:	0f 96 c0             	setbe  %al
    b099:	0f b6 c8             	movzbl %al,%ecx
    b09c:	48 8b 85 d8 eb ff ff 	mov    -0x1428(%rbp),%rax
    b0a3:	8b 10                	mov    (%rax),%edx
    b0a5:	48 8b 85 d8 eb ff ff 	mov    -0x1428(%rbp),%rax
    b0ac:	21 ca                	and    %ecx,%edx
    b0ae:	89 10                	mov    %edx,(%rax)
    b0b0:	48 8b 05 a1 f5 00 00 	mov    0xf5a1(%rip),%rax        # 1a658 <g_496>
    b0b7:	48 85 c0             	test   %rax,%rax
    b0ba:	0f 95 c0             	setne  %al
    b0bd:	0f b6 d0             	movzbl %al,%edx
    b0c0:	8b 85 94 eb ff ff    	mov    -0x146c(%rbp),%eax
    b0c6:	31 d0                	xor    %edx,%eax
    b0c8:	89 85 94 eb ff ff    	mov    %eax,-0x146c(%rbp)
    b0ce:	48 8d 05 63 cf 00 00 	lea    0xcf63(%rip),%rax        # 18038 <g_7+0x8>
    b0d5:	8b 00                	mov    (%rax),%eax
    b0d7:	89 85 9c eb ff ff    	mov    %eax,-0x1464(%rbp)
    b0dd:	0f b6 05 d6 d4 00 00 	movzbl 0xd4d6(%rip),%eax        # 185ba <g_391+0x1a>
    b0e4:	83 c0 01             	add    $0x1,%eax
    b0e7:	88 05 cd d4 00 00    	mov    %al,0xd4cd(%rip)        # 185ba <g_391+0x1a>
    b0ed:	0f b6 05 c6 d4 00 00 	movzbl 0xd4c6(%rip),%eax        # 185ba <g_391+0x1a>
    b0f4:	84 c0                	test   %al,%al
    b0f6:	0f 8e bc fd ff ff    	jle    aeb8 <func_42+0x678>
    b0fc:	48 8b 85 d8 eb ff ff 	mov    -0x1428(%rbp),%rax
    b103:	8b 10                	mov    (%rax),%edx
    b105:	48 8b 85 08 ec ff ff 	mov    -0x13f8(%rbp),%rax
    b10c:	48 8b 00             	mov    (%rax),%rax
    b10f:	8b 00                	mov    (%rax),%eax
    b111:	31 d0                	xor    %edx,%eax
    b113:	89 85 a0 eb ff ff    	mov    %eax,-0x1460(%rbp)
    b119:	8b 05 7d d3 00 00    	mov    0xd37d(%rip),%eax        # 1849c <g_203+0x1c>
    b11f:	83 c0 01             	add    $0x1,%eax
    b122:	89 05 74 d3 00 00    	mov    %eax,0xd374(%rip)        # 1849c <g_203+0x1c>
    b128:	8b 05 6e d3 00 00    	mov    0xd36e(%rip),%eax        # 1849c <g_203+0x1c>
    b12e:	85 c0                	test   %eax,%eax
    b130:	0f 84 22 fd ff ff    	je     ae58 <func_42+0x618>
    b136:	0f b6 05 9b d4 00 00 	movzbl 0xd49b(%rip),%eax        # 185d8 <g_423+0x8>
    b13d:	83 e0 3f             	and    $0x3f,%eax
    b140:	84 c0                	test   %al,%al
    b142:	74 05                	je     b149 <func_42+0x909>
    b144:	e9 15 f8 ff ff       	jmpq   a95e <func_42+0x11e>
    b149:	c6 85 85 eb ff ff 00 	movb   $0x0,-0x147b(%rbp)
    b150:	e9 dd 14 00 00       	jmpq   c632 <func_42+0x1df2>
    b155:	48 8d 05 c8 ce 00 00 	lea    0xcec8(%rip),%rax        # 18024 <g_2>
    b15c:	48 89 85 10 ec ff ff 	mov    %rax,-0x13f0(%rbp)
    b163:	c7 85 a4 eb ff ff fe 	movl   $0xfffffffe,-0x145c(%rbp)
    b16a:	ff ff ff 
    b16d:	48 8d 05 3e cf 00 00 	lea    0xcf3e(%rip),%rax        # 180b2 <g_97>
    b174:	48 89 85 18 ec ff ff 	mov    %rax,-0x13e8(%rbp)
    b17b:	48 8d 05 da d4 00 00 	lea    0xd4da(%rip),%rax        # 1865c <g_474+0x1c>
    b182:	48 89 85 70 f0 ff ff 	mov    %rax,-0xf90(%rbp)
    b189:	48 8d 05 0c d3 00 00 	lea    0xd30c(%rip),%rax        # 1849c <g_203+0x1c>
    b190:	48 89 85 78 f0 ff ff 	mov    %rax,-0xf88(%rbp)
    b197:	48 8d 05 1e d4 00 00 	lea    0xd41e(%rip),%rax        # 185bc <g_391+0x1c>
    b19e:	48 89 85 80 f0 ff ff 	mov    %rax,-0xf80(%rbp)
    b1a5:	48 8d 85 90 ee ff ff 	lea    -0x1170(%rbp),%rax
    b1ac:	48 05 c4 01 00 00    	add    $0x1c4,%rax
    b1b2:	48 89 85 88 f0 ff ff 	mov    %rax,-0xf78(%rbp)
    b1b9:	48 8d 05 7c d3 00 00 	lea    0xd37c(%rip),%rax        # 1853c <g_256+0x1c>
    b1c0:	48 89 85 90 f0 ff ff 	mov    %rax,-0xf70(%rbp)
    b1c7:	48 c7 85 98 f0 ff ff 	movq   $0x0,-0xf68(%rbp)
    b1ce:	00 00 00 00 
    b1d2:	48 8d 05 83 d4 00 00 	lea    0xd483(%rip),%rax        # 1865c <g_474+0x1c>
    b1d9:	48 89 85 a0 f0 ff ff 	mov    %rax,-0xf60(%rbp)
    b1e0:	48 c7 85 a8 f0 ff ff 	movq   $0x0,-0xf58(%rbp)
    b1e7:	00 00 00 00 
    b1eb:	48 8d 05 6a d4 00 00 	lea    0xd46a(%rip),%rax        # 1865c <g_474+0x1c>
    b1f2:	48 89 85 b0 f0 ff ff 	mov    %rax,-0xf50(%rbp)
    b1f9:	48 8d 85 90 ee ff ff 	lea    -0x1170(%rbp),%rax
    b200:	48 05 c4 01 00 00    	add    $0x1c4,%rax
    b206:	48 89 85 b8 f0 ff ff 	mov    %rax,-0xf48(%rbp)
    b20d:	48 8d 05 a8 d3 00 00 	lea    0xd3a8(%rip),%rax        # 185bc <g_391+0x1c>
    b214:	48 89 85 c0 f0 ff ff 	mov    %rax,-0xf40(%rbp)
    b21b:	48 8d 85 90 ee ff ff 	lea    -0x1170(%rbp),%rax
    b222:	48 05 bc 01 00 00    	add    $0x1bc,%rax
    b228:	48 89 85 c8 f0 ff ff 	mov    %rax,-0xf38(%rbp)
    b22f:	48 8d 05 26 d4 00 00 	lea    0xd426(%rip),%rax        # 1865c <g_474+0x1c>
    b236:	48 89 85 d0 f0 ff ff 	mov    %rax,-0xf30(%rbp)
    b23d:	48 c7 85 d8 f0 ff ff 	movq   $0x0,-0xf28(%rbp)
    b244:	00 00 00 00 
    b248:	48 8d 05 ed d2 00 00 	lea    0xd2ed(%rip),%rax        # 1853c <g_256+0x1c>
    b24f:	48 89 85 e0 f0 ff ff 	mov    %rax,-0xf20(%rbp)
    b256:	48 c7 85 e8 f0 ff ff 	movq   $0x0,-0xf18(%rbp)
    b25d:	00 00 00 00 
    b261:	48 8d 05 f4 d3 00 00 	lea    0xd3f4(%rip),%rax        # 1865c <g_474+0x1c>
    b268:	48 89 85 f0 f0 ff ff 	mov    %rax,-0xf10(%rbp)
    b26f:	48 8d 85 90 ee ff ff 	lea    -0x1170(%rbp),%rax
    b276:	48 05 bc 01 00 00    	add    $0x1bc,%rax
    b27c:	48 89 85 f8 f0 ff ff 	mov    %rax,-0xf08(%rbp)
    b283:	48 8d 05 32 d3 00 00 	lea    0xd332(%rip),%rax        # 185bc <g_391+0x1c>
    b28a:	48 89 85 00 f1 ff ff 	mov    %rax,-0xf00(%rbp)
    b291:	48 c7 85 08 f1 ff ff 	movq   $0x0,-0xef8(%rbp)
    b298:	00 00 00 00 
    b29c:	48 8d 05 b9 d3 00 00 	lea    0xd3b9(%rip),%rax        # 1865c <g_474+0x1c>
    b2a3:	48 89 85 10 f1 ff ff 	mov    %rax,-0xef0(%rbp)
    b2aa:	48 8d 05 8b d2 00 00 	lea    0xd28b(%rip),%rax        # 1853c <g_256+0x1c>
    b2b1:	48 89 85 18 f1 ff ff 	mov    %rax,-0xee8(%rbp)
    b2b8:	48 8d 05 7d fd 00 00 	lea    0xfd7d(%rip),%rax        # 1b03c <g_5+0xc>
    b2bf:	48 89 85 20 f1 ff ff 	mov    %rax,-0xee0(%rbp)
    b2c6:	48 8d 85 90 ee ff ff 	lea    -0x1170(%rbp),%rax
    b2cd:	48 05 bc 01 00 00    	add    $0x1bc,%rax
    b2d3:	48 89 85 28 f1 ff ff 	mov    %rax,-0xed8(%rbp)
    b2da:	48 8d 05 5b d2 00 00 	lea    0xd25b(%rip),%rax        # 1853c <g_256+0x1c>
    b2e1:	48 89 85 30 f1 ff ff 	mov    %rax,-0xed0(%rbp)
    b2e8:	48 8d 05 4d d2 00 00 	lea    0xd24d(%rip),%rax        # 1853c <g_256+0x1c>
    b2ef:	48 89 85 38 f1 ff ff 	mov    %rax,-0xec8(%rbp)
    b2f6:	48 c7 85 40 f1 ff ff 	movq   $0x0,-0xec0(%rbp)
    b2fd:	00 00 00 00 
    b301:	48 8d 85 90 ee ff ff 	lea    -0x1170(%rbp),%rax
    b308:	48 05 c4 01 00 00    	add    $0x1c4,%rax
    b30e:	48 89 85 48 f1 ff ff 	mov    %rax,-0xeb8(%rbp)
    b315:	48 8d 05 20 fd 00 00 	lea    0xfd20(%rip),%rax        # 1b03c <g_5+0xc>
    b31c:	48 89 85 50 f1 ff ff 	mov    %rax,-0xeb0(%rbp)
    b323:	48 8d 85 90 ee ff ff 	lea    -0x1170(%rbp),%rax
    b32a:	48 05 c4 01 00 00    	add    $0x1c4,%rax
    b330:	48 89 85 58 f1 ff ff 	mov    %rax,-0xea8(%rbp)
    b337:	48 8d 05 fe d1 00 00 	lea    0xd1fe(%rip),%rax        # 1853c <g_256+0x1c>
    b33e:	48 89 85 60 f1 ff ff 	mov    %rax,-0xea0(%rbp)
    b345:	48 8d 05 50 d1 00 00 	lea    0xd150(%rip),%rax        # 1849c <g_203+0x1c>
    b34c:	48 89 85 68 f1 ff ff 	mov    %rax,-0xe98(%rbp)
    b353:	48 8d 05 e2 d1 00 00 	lea    0xd1e2(%rip),%rax        # 1853c <g_256+0x1c>
    b35a:	48 89 85 70 f1 ff ff 	mov    %rax,-0xe90(%rbp)
    b361:	48 8d 85 90 ee ff ff 	lea    -0x1170(%rbp),%rax
    b368:	48 05 bc 01 00 00    	add    $0x1bc,%rax
    b36e:	48 89 85 78 f1 ff ff 	mov    %rax,-0xe88(%rbp)
    b375:	48 8d 05 c0 d1 00 00 	lea    0xd1c0(%rip),%rax        # 1853c <g_256+0x1c>
    b37c:	48 89 85 80 f1 ff ff 	mov    %rax,-0xe80(%rbp)
    b383:	48 8d 05 12 d1 00 00 	lea    0xd112(%rip),%rax        # 1849c <g_203+0x1c>
    b38a:	48 89 85 88 f1 ff ff 	mov    %rax,-0xe78(%rbp)
    b391:	48 8d 05 a4 d1 00 00 	lea    0xd1a4(%rip),%rax        # 1853c <g_256+0x1c>
    b398:	48 89 85 90 f1 ff ff 	mov    %rax,-0xe70(%rbp)
    b39f:	48 c7 85 98 f1 ff ff 	movq   $0x0,-0xe68(%rbp)
    b3a6:	00 00 00 00 
    b3aa:	48 8d 05 0b d2 00 00 	lea    0xd20b(%rip),%rax        # 185bc <g_391+0x1c>
    b3b1:	48 89 85 a0 f1 ff ff 	mov    %rax,-0xe60(%rbp)
    b3b8:	48 8d 85 90 ee ff ff 	lea    -0x1170(%rbp),%rax
    b3bf:	48 05 bc 01 00 00    	add    $0x1bc,%rax
    b3c5:	48 89 85 a8 f1 ff ff 	mov    %rax,-0xe58(%rbp)
    b3cc:	48 8d 05 e9 d1 00 00 	lea    0xd1e9(%rip),%rax        # 185bc <g_391+0x1c>
    b3d3:	48 89 85 b0 f1 ff ff 	mov    %rax,-0xe50(%rbp)
    b3da:	48 8d 85 90 ee ff ff 	lea    -0x1170(%rbp),%rax
    b3e1:	48 05 c4 01 00 00    	add    $0x1c4,%rax
    b3e7:	48 89 85 b8 f1 ff ff 	mov    %rax,-0xe48(%rbp)
    b3ee:	48 8d 05 47 d1 00 00 	lea    0xd147(%rip),%rax        # 1853c <g_256+0x1c>
    b3f5:	48 89 85 c0 f1 ff ff 	mov    %rax,-0xe40(%rbp)
    b3fc:	48 c7 85 c8 f1 ff ff 	movq   $0x0,-0xe38(%rbp)
    b403:	00 00 00 00 
    b407:	48 8d 05 4e d2 00 00 	lea    0xd24e(%rip),%rax        # 1865c <g_474+0x1c>
    b40e:	48 89 85 d0 f1 ff ff 	mov    %rax,-0xe30(%rbp)
    b415:	48 c7 85 d8 f1 ff ff 	movq   $0x0,-0xe28(%rbp)
    b41c:	00 00 00 00 
    b420:	48 8d 05 35 d2 00 00 	lea    0xd235(%rip),%rax        # 1865c <g_474+0x1c>
    b427:	48 89 85 e0 f1 ff ff 	mov    %rax,-0xe20(%rbp)
    b42e:	48 8d 85 90 ee ff ff 	lea    -0x1170(%rbp),%rax
    b435:	48 05 c4 01 00 00    	add    $0x1c4,%rax
    b43b:	48 89 85 e8 f1 ff ff 	mov    %rax,-0xe18(%rbp)
    b442:	48 8d 05 13 d2 00 00 	lea    0xd213(%rip),%rax        # 1865c <g_474+0x1c>
    b449:	48 89 85 f0 f1 ff ff 	mov    %rax,-0xe10(%rbp)
    b450:	48 c7 85 f8 f1 ff ff 	movq   $0x0,-0xe08(%rbp)
    b457:	00 00 00 00 
    b45b:	48 c7 85 00 f2 ff ff 	movq   $0x0,-0xe00(%rbp)
    b462:	00 00 00 00 
    b466:	48 8d 85 90 ee ff ff 	lea    -0x1170(%rbp),%rax
    b46d:	48 05 c4 01 00 00    	add    $0x1c4,%rax
    b473:	48 89 85 08 f2 ff ff 	mov    %rax,-0xdf8(%rbp)
    b47a:	48 8d 05 bb fb 00 00 	lea    0xfbbb(%rip),%rax        # 1b03c <g_5+0xc>
    b481:	48 89 85 10 f2 ff ff 	mov    %rax,-0xdf0(%rbp)
    b488:	48 8d 85 90 ee ff ff 	lea    -0x1170(%rbp),%rax
    b48f:	48 05 c4 01 00 00    	add    $0x1c4,%rax
    b495:	48 89 85 18 f2 ff ff 	mov    %rax,-0xde8(%rbp)
    b49c:	48 c7 85 20 f2 ff ff 	movq   $0x0,-0xde0(%rbp)
    b4a3:	00 00 00 00 
    b4a7:	48 8d 05 8e d0 00 00 	lea    0xd08e(%rip),%rax        # 1853c <g_256+0x1c>
    b4ae:	48 89 85 28 f2 ff ff 	mov    %rax,-0xdd8(%rbp)
    b4b5:	48 8d 05 80 d0 00 00 	lea    0xd080(%rip),%rax        # 1853c <g_256+0x1c>
    b4bc:	48 89 85 30 f2 ff ff 	mov    %rax,-0xdd0(%rbp)
    b4c3:	48 8d 85 90 ee ff ff 	lea    -0x1170(%rbp),%rax
    b4ca:	48 05 bc 01 00 00    	add    $0x1bc,%rax
    b4d0:	48 89 85 38 f2 ff ff 	mov    %rax,-0xdc8(%rbp)
    b4d7:	48 8d 05 5e fb 00 00 	lea    0xfb5e(%rip),%rax        # 1b03c <g_5+0xc>
    b4de:	48 89 85 40 f2 ff ff 	mov    %rax,-0xdc0(%rbp)
    b4e5:	48 8d 05 50 d0 00 00 	lea    0xd050(%rip),%rax        # 1853c <g_256+0x1c>
    b4ec:	48 89 85 48 f2 ff ff 	mov    %rax,-0xdb8(%rbp)
    b4f3:	48 c7 85 50 f2 ff ff 	movq   $0x0,-0xdb0(%rbp)
    b4fa:	00 00 00 00 
    b4fe:	48 8d 05 97 cf 00 00 	lea    0xcf97(%rip),%rax        # 1849c <g_203+0x1c>
    b505:	48 89 85 58 f2 ff ff 	mov    %rax,-0xda8(%rbp)
    b50c:	48 8d 05 49 d1 00 00 	lea    0xd149(%rip),%rax        # 1865c <g_474+0x1c>
    b513:	48 89 85 60 f2 ff ff 	mov    %rax,-0xda0(%rbp)
    b51a:	48 8d 05 1b d0 00 00 	lea    0xd01b(%rip),%rax        # 1853c <g_256+0x1c>
    b521:	48 89 85 68 f2 ff ff 	mov    %rax,-0xd98(%rbp)
    b528:	48 8d 05 0d d0 00 00 	lea    0xd00d(%rip),%rax        # 1853c <g_256+0x1c>
    b52f:	48 89 85 70 f2 ff ff 	mov    %rax,-0xd90(%rbp)
    b536:	48 c7 85 78 f2 ff ff 	movq   $0x0,-0xd88(%rbp)
    b53d:	00 00 00 00 
    b541:	48 c7 85 80 f2 ff ff 	movq   $0x0,-0xd80(%rbp)
    b548:	00 00 00 00 
    b54c:	48 c7 85 88 f2 ff ff 	movq   $0x0,-0xd78(%rbp)
    b553:	00 00 00 00 
    b557:	48 8d 05 de cf 00 00 	lea    0xcfde(%rip),%rax        # 1853c <g_256+0x1c>
    b55e:	48 89 85 90 f2 ff ff 	mov    %rax,-0xd70(%rbp)
    b565:	48 8d 05 d0 cf 00 00 	lea    0xcfd0(%rip),%rax        # 1853c <g_256+0x1c>
    b56c:	48 89 85 98 f2 ff ff 	mov    %rax,-0xd68(%rbp)
    b573:	48 8d 05 42 d0 00 00 	lea    0xd042(%rip),%rax        # 185bc <g_391+0x1c>
    b57a:	48 89 85 a0 f2 ff ff 	mov    %rax,-0xd60(%rbp)
    b581:	48 8d 05 b4 cf 00 00 	lea    0xcfb4(%rip),%rax        # 1853c <g_256+0x1c>
    b588:	48 89 85 a8 f2 ff ff 	mov    %rax,-0xd58(%rbp)
    b58f:	48 8d 05 26 d0 00 00 	lea    0xd026(%rip),%rax        # 185bc <g_391+0x1c>
    b596:	48 89 85 b0 f2 ff ff 	mov    %rax,-0xd50(%rbp)
    b59d:	48 c7 85 b8 f2 ff ff 	movq   $0x0,-0xd48(%rbp)
    b5a4:	00 00 00 00 
    b5a8:	48 c7 85 c0 f2 ff ff 	movq   $0x0,-0xd40(%rbp)
    b5af:	00 00 00 00 
    b5b3:	48 8d 05 e2 ce 00 00 	lea    0xcee2(%rip),%rax        # 1849c <g_203+0x1c>
    b5ba:	48 89 85 c8 f2 ff ff 	mov    %rax,-0xd38(%rbp)
    b5c1:	48 8d 05 94 d0 00 00 	lea    0xd094(%rip),%rax        # 1865c <g_474+0x1c>
    b5c8:	48 89 85 d0 f2 ff ff 	mov    %rax,-0xd30(%rbp)
    b5cf:	48 8d 05 66 cf 00 00 	lea    0xcf66(%rip),%rax        # 1853c <g_256+0x1c>
    b5d6:	48 89 85 d8 f2 ff ff 	mov    %rax,-0xd28(%rbp)
    b5dd:	48 8d 05 58 cf 00 00 	lea    0xcf58(%rip),%rax        # 1853c <g_256+0x1c>
    b5e4:	48 89 85 e0 f2 ff ff 	mov    %rax,-0xd20(%rbp)
    b5eb:	48 c7 85 e8 f2 ff ff 	movq   $0x0,-0xd18(%rbp)
    b5f2:	00 00 00 00 
    b5f6:	48 8d 05 3f cf 00 00 	lea    0xcf3f(%rip),%rax        # 1853c <g_256+0x1c>
    b5fd:	48 89 85 f0 f2 ff ff 	mov    %rax,-0xd10(%rbp)
    b604:	48 c7 85 f8 f2 ff ff 	movq   $0x0,-0xd08(%rbp)
    b60b:	00 00 00 00 
    b60f:	48 8d 05 26 cf 00 00 	lea    0xcf26(%rip),%rax        # 1853c <g_256+0x1c>
    b616:	48 89 85 00 f3 ff ff 	mov    %rax,-0xd00(%rbp)
    b61d:	48 8d 05 78 ce 00 00 	lea    0xce78(%rip),%rax        # 1849c <g_203+0x1c>
    b624:	48 89 85 08 f3 ff ff 	mov    %rax,-0xcf8(%rbp)
    b62b:	48 8d 05 0a cf 00 00 	lea    0xcf0a(%rip),%rax        # 1853c <g_256+0x1c>
    b632:	48 89 85 10 f3 ff ff 	mov    %rax,-0xcf0(%rbp)
    b639:	48 8d 85 90 ee ff ff 	lea    -0x1170(%rbp),%rax
    b640:	48 05 bc 01 00 00    	add    $0x1bc,%rax
    b646:	48 89 85 18 f3 ff ff 	mov    %rax,-0xce8(%rbp)
    b64d:	48 8d 05 e8 ce 00 00 	lea    0xcee8(%rip),%rax        # 1853c <g_256+0x1c>
    b654:	48 89 85 20 f3 ff ff 	mov    %rax,-0xce0(%rbp)
    b65b:	48 8d 05 3a ce 00 00 	lea    0xce3a(%rip),%rax        # 1849c <g_203+0x1c>
    b662:	48 89 85 28 f3 ff ff 	mov    %rax,-0xcd8(%rbp)
    b669:	48 8d 05 cc ce 00 00 	lea    0xcecc(%rip),%rax        # 1853c <g_256+0x1c>
    b670:	48 89 85 30 f3 ff ff 	mov    %rax,-0xcd0(%rbp)
    b677:	48 c7 85 38 f3 ff ff 	movq   $0x0,-0xcc8(%rbp)
    b67e:	00 00 00 00 
    b682:	48 8d 05 b3 ce 00 00 	lea    0xceb3(%rip),%rax        # 1853c <g_256+0x1c>
    b689:	48 89 85 40 f3 ff ff 	mov    %rax,-0xcc0(%rbp)
    b690:	48 8d 05 a5 ce 00 00 	lea    0xcea5(%rip),%rax        # 1853c <g_256+0x1c>
    b697:	48 89 85 48 f3 ff ff 	mov    %rax,-0xcb8(%rbp)
    b69e:	48 8d 05 97 f9 00 00 	lea    0xf997(%rip),%rax        # 1b03c <g_5+0xc>
    b6a5:	48 89 85 50 f3 ff ff 	mov    %rax,-0xcb0(%rbp)
    b6ac:	48 c7 85 58 f3 ff ff 	movq   $0x0,-0xca8(%rbp)
    b6b3:	00 00 00 00 
    b6b7:	48 8d 05 9e cf 00 00 	lea    0xcf9e(%rip),%rax        # 1865c <g_474+0x1c>
    b6be:	48 89 85 60 f3 ff ff 	mov    %rax,-0xca0(%rbp)
    b6c5:	48 8d 05 f0 ce 00 00 	lea    0xcef0(%rip),%rax        # 185bc <g_391+0x1c>
    b6cc:	48 89 85 68 f3 ff ff 	mov    %rax,-0xc98(%rbp)
    b6d3:	48 8d 05 62 ce 00 00 	lea    0xce62(%rip),%rax        # 1853c <g_256+0x1c>
    b6da:	48 89 85 70 f3 ff ff 	mov    %rax,-0xc90(%rbp)
    b6e1:	48 c7 85 78 f3 ff ff 	movq   $0x0,-0xc88(%rbp)
    b6e8:	00 00 00 00 
    b6ec:	48 8d 05 49 f9 00 00 	lea    0xf949(%rip),%rax        # 1b03c <g_5+0xc>
    b6f3:	48 89 85 80 f3 ff ff 	mov    %rax,-0xc80(%rbp)
    b6fa:	48 c7 85 88 f3 ff ff 	movq   $0x0,-0xc78(%rbp)
    b701:	00 00 00 00 
    b705:	48 8d 05 30 f9 00 00 	lea    0xf930(%rip),%rax        # 1b03c <g_5+0xc>
    b70c:	48 89 85 90 f3 ff ff 	mov    %rax,-0xc70(%rbp)
    b713:	48 c7 85 98 f3 ff ff 	movq   $0x0,-0xc68(%rbp)
    b71a:	00 00 00 00 
    b71e:	48 8d 05 17 f9 00 00 	lea    0xf917(%rip),%rax        # 1b03c <g_5+0xc>
    b725:	48 89 85 a0 f3 ff ff 	mov    %rax,-0xc60(%rbp)
    b72c:	48 8d 05 89 ce 00 00 	lea    0xce89(%rip),%rax        # 185bc <g_391+0x1c>
    b733:	48 89 85 a8 f3 ff ff 	mov    %rax,-0xc58(%rbp)
    b73a:	48 8d 05 7b ce 00 00 	lea    0xce7b(%rip),%rax        # 185bc <g_391+0x1c>
    b741:	48 89 85 b0 f3 ff ff 	mov    %rax,-0xc50(%rbp)
    b748:	48 8d 05 6d ce 00 00 	lea    0xce6d(%rip),%rax        # 185bc <g_391+0x1c>
    b74f:	48 89 85 b8 f3 ff ff 	mov    %rax,-0xc48(%rbp)
    b756:	48 8d 05 df f8 00 00 	lea    0xf8df(%rip),%rax        # 1b03c <g_5+0xc>
    b75d:	48 89 85 c0 f3 ff ff 	mov    %rax,-0xc40(%rbp)
    b764:	48 c7 85 c8 f3 ff ff 	movq   $0x0,-0xc38(%rbp)
    b76b:	00 00 00 00 
    b76f:	48 8d 05 c6 f8 00 00 	lea    0xf8c6(%rip),%rax        # 1b03c <g_5+0xc>
    b776:	48 89 85 d0 f3 ff ff 	mov    %rax,-0xc30(%rbp)
    b77d:	48 c7 85 d8 f3 ff ff 	movq   $0x0,-0xc28(%rbp)
    b784:	00 00 00 00 
    b788:	48 8d 05 ad cd 00 00 	lea    0xcdad(%rip),%rax        # 1853c <g_256+0x1c>
    b78f:	48 89 85 e0 f3 ff ff 	mov    %rax,-0xc20(%rbp)
    b796:	48 8d 05 ff cc 00 00 	lea    0xccff(%rip),%rax        # 1849c <g_203+0x1c>
    b79d:	48 89 85 e8 f3 ff ff 	mov    %rax,-0xc18(%rbp)
    b7a4:	48 8d 05 91 cd 00 00 	lea    0xcd91(%rip),%rax        # 1853c <g_256+0x1c>
    b7ab:	48 89 85 f0 f3 ff ff 	mov    %rax,-0xc10(%rbp)
    b7b2:	48 c7 85 f8 f3 ff ff 	movq   $0x0,-0xc08(%rbp)
    b7b9:	00 00 00 00 
    b7bd:	48 8d 05 f8 cd 00 00 	lea    0xcdf8(%rip),%rax        # 185bc <g_391+0x1c>
    b7c4:	48 89 85 00 f4 ff ff 	mov    %rax,-0xc00(%rbp)
    b7cb:	48 8d 85 90 ee ff ff 	lea    -0x1170(%rbp),%rax
    b7d2:	48 05 bc 01 00 00    	add    $0x1bc,%rax
    b7d8:	48 89 85 08 f4 ff ff 	mov    %rax,-0xbf8(%rbp)
    b7df:	48 8d 05 76 ce 00 00 	lea    0xce76(%rip),%rax        # 1865c <g_474+0x1c>
    b7e6:	48 89 85 10 f4 ff ff 	mov    %rax,-0xbf0(%rbp)
    b7ed:	48 c7 85 18 f4 ff ff 	movq   $0x0,-0xbe8(%rbp)
    b7f4:	00 00 00 00 
    b7f8:	48 8d 05 3d cd 00 00 	lea    0xcd3d(%rip),%rax        # 1853c <g_256+0x1c>
    b7ff:	48 89 85 20 f4 ff ff 	mov    %rax,-0xbe0(%rbp)
    b806:	48 c7 85 28 f4 ff ff 	movq   $0x0,-0xbd8(%rbp)
    b80d:	00 00 00 00 
    b811:	48 8d 05 a4 cd 00 00 	lea    0xcda4(%rip),%rax        # 185bc <g_391+0x1c>
    b818:	48 89 85 30 f4 ff ff 	mov    %rax,-0xbd0(%rbp)
    b81f:	48 8d 05 16 cd 00 00 	lea    0xcd16(%rip),%rax        # 1853c <g_256+0x1c>
    b826:	48 89 85 38 f4 ff ff 	mov    %rax,-0xbc8(%rbp)
    b82d:	48 8d 05 28 ce 00 00 	lea    0xce28(%rip),%rax        # 1865c <g_474+0x1c>
    b834:	48 89 85 40 f4 ff ff 	mov    %rax,-0xbc0(%rbp)
    b83b:	48 c7 85 48 f4 ff ff 	movq   $0x0,-0xbb8(%rbp)
    b842:	00 00 00 00 
    b846:	48 8d 05 0f ce 00 00 	lea    0xce0f(%rip),%rax        # 1865c <g_474+0x1c>
    b84d:	48 89 85 50 f4 ff ff 	mov    %rax,-0xbb0(%rbp)
    b854:	48 8d 05 e1 cc 00 00 	lea    0xcce1(%rip),%rax        # 1853c <g_256+0x1c>
    b85b:	48 89 85 58 f4 ff ff 	mov    %rax,-0xba8(%rbp)
    b862:	48 8d 05 53 cd 00 00 	lea    0xcd53(%rip),%rax        # 185bc <g_391+0x1c>
    b869:	48 89 85 60 f4 ff ff 	mov    %rax,-0xba0(%rbp)
    b870:	48 c7 85 68 f4 ff ff 	movq   $0x0,-0xb98(%rbp)
    b877:	00 00 00 00 
    b87b:	48 8d 05 ba f7 00 00 	lea    0xf7ba(%rip),%rax        # 1b03c <g_5+0xc>
    b882:	48 89 85 70 f4 ff ff 	mov    %rax,-0xb90(%rbp)
    b889:	48 c7 85 78 f4 ff ff 	movq   $0x0,-0xb88(%rbp)
    b890:	00 00 00 00 
    b894:	48 8d 05 a1 f7 00 00 	lea    0xf7a1(%rip),%rax        # 1b03c <g_5+0xc>
    b89b:	48 89 85 80 f4 ff ff 	mov    %rax,-0xb80(%rbp)
    b8a2:	48 c7 85 88 f4 ff ff 	movq   $0x0,-0xb78(%rbp)
    b8a9:	00 00 00 00 
    b8ad:	48 8d 05 a8 cd 00 00 	lea    0xcda8(%rip),%rax        # 1865c <g_474+0x1c>
    b8b4:	48 89 85 90 f4 ff ff 	mov    %rax,-0xb70(%rbp)
    b8bb:	48 8d 05 fa cc 00 00 	lea    0xccfa(%rip),%rax        # 185bc <g_391+0x1c>
    b8c2:	48 89 85 98 f4 ff ff 	mov    %rax,-0xb68(%rbp)
    b8c9:	48 8d 05 6c cc 00 00 	lea    0xcc6c(%rip),%rax        # 1853c <g_256+0x1c>
    b8d0:	48 89 85 a0 f4 ff ff 	mov    %rax,-0xb60(%rbp)
    b8d7:	48 c7 85 a8 f4 ff ff 	movq   $0x0,-0xb58(%rbp)
    b8de:	00 00 00 00 
    b8e2:	48 8d 05 53 f7 00 00 	lea    0xf753(%rip),%rax        # 1b03c <g_5+0xc>
    b8e9:	48 89 85 b0 f4 ff ff 	mov    %rax,-0xb50(%rbp)
    b8f0:	48 c7 85 b8 f4 ff ff 	movq   $0x0,-0xb48(%rbp)
    b8f7:	00 00 00 00 
    b8fb:	48 8d 05 3a f7 00 00 	lea    0xf73a(%rip),%rax        # 1b03c <g_5+0xc>
    b902:	48 89 85 c0 f4 ff ff 	mov    %rax,-0xb40(%rbp)
    b909:	48 c7 85 c8 f4 ff ff 	movq   $0x0,-0xb38(%rbp)
    b910:	00 00 00 00 
    b914:	48 8d 05 41 cd 00 00 	lea    0xcd41(%rip),%rax        # 1865c <g_474+0x1c>
    b91b:	48 89 85 d0 f4 ff ff 	mov    %rax,-0xb30(%rbp)
    b922:	48 c7 85 d8 f4 ff ff 	movq   $0x0,-0xb28(%rbp)
    b929:	00 00 00 00 
    b92d:	48 8d 05 08 cc 00 00 	lea    0xcc08(%rip),%rax        # 1853c <g_256+0x1c>
    b934:	48 89 85 e0 f4 ff ff 	mov    %rax,-0xb20(%rbp)
    b93b:	48 c7 85 e8 f4 ff ff 	movq   $0x0,-0xb18(%rbp)
    b942:	00 00 00 00 
    b946:	48 8d 05 0f cd 00 00 	lea    0xcd0f(%rip),%rax        # 1865c <g_474+0x1c>
    b94d:	48 89 85 f0 f4 ff ff 	mov    %rax,-0xb10(%rbp)
    b954:	48 8d 85 90 ee ff ff 	lea    -0x1170(%rbp),%rax
    b95b:	48 05 bc 01 00 00    	add    $0x1bc,%rax
    b961:	48 89 85 f8 f4 ff ff 	mov    %rax,-0xb08(%rbp)
    b968:	48 8d 05 4d cc 00 00 	lea    0xcc4d(%rip),%rax        # 185bc <g_391+0x1c>
    b96f:	48 89 85 00 f5 ff ff 	mov    %rax,-0xb00(%rbp)
    b976:	48 c7 85 08 f5 ff ff 	movq   $0x0,-0xaf8(%rbp)
    b97d:	00 00 00 00 
    b981:	48 8d 05 b4 cb 00 00 	lea    0xcbb4(%rip),%rax        # 1853c <g_256+0x1c>
    b988:	48 89 85 10 f5 ff ff 	mov    %rax,-0xaf0(%rbp)
    b98f:	48 8d 05 06 cb 00 00 	lea    0xcb06(%rip),%rax        # 1849c <g_203+0x1c>
    b996:	48 89 85 18 f5 ff ff 	mov    %rax,-0xae8(%rbp)
    b99d:	48 8d 05 b8 cc 00 00 	lea    0xccb8(%rip),%rax        # 1865c <g_474+0x1c>
    b9a4:	48 89 85 20 f5 ff ff 	mov    %rax,-0xae0(%rbp)
    b9ab:	48 8d 05 8a cb 00 00 	lea    0xcb8a(%rip),%rax        # 1853c <g_256+0x1c>
    b9b2:	48 89 85 28 f5 ff ff 	mov    %rax,-0xad8(%rbp)
    b9b9:	48 8d 05 7c f6 00 00 	lea    0xf67c(%rip),%rax        # 1b03c <g_5+0xc>
    b9c0:	48 89 85 30 f5 ff ff 	mov    %rax,-0xad0(%rbp)
    b9c7:	48 8d 05 ce ca 00 00 	lea    0xcace(%rip),%rax        # 1849c <g_203+0x1c>
    b9ce:	48 89 85 38 f5 ff ff 	mov    %rax,-0xac8(%rbp)
    b9d5:	48 8d 05 80 cc 00 00 	lea    0xcc80(%rip),%rax        # 1865c <g_474+0x1c>
    b9dc:	48 89 85 40 f5 ff ff 	mov    %rax,-0xac0(%rbp)
    b9e3:	48 c7 85 48 f5 ff ff 	movq   $0x0,-0xab8(%rbp)
    b9ea:	00 00 00 00 
    b9ee:	48 8d 05 67 cc 00 00 	lea    0xcc67(%rip),%rax        # 1865c <g_474+0x1c>
    b9f5:	48 89 85 50 f5 ff ff 	mov    %rax,-0xab0(%rbp)
    b9fc:	48 c7 85 58 f5 ff ff 	movq   $0x0,-0xaa8(%rbp)
    ba03:	00 00 00 00 
    ba07:	48 8d 05 4e cc 00 00 	lea    0xcc4e(%rip),%rax        # 1865c <g_474+0x1c>
    ba0e:	48 89 85 60 f5 ff ff 	mov    %rax,-0xaa0(%rbp)
    ba15:	48 8d 05 80 ca 00 00 	lea    0xca80(%rip),%rax        # 1849c <g_203+0x1c>
    ba1c:	48 89 85 68 f5 ff ff 	mov    %rax,-0xa98(%rbp)
    ba23:	48 8d 05 12 f6 00 00 	lea    0xf612(%rip),%rax        # 1b03c <g_5+0xc>
    ba2a:	48 89 85 70 f5 ff ff 	mov    %rax,-0xa90(%rbp)
    ba31:	48 8d 05 64 ca 00 00 	lea    0xca64(%rip),%rax        # 1849c <g_203+0x1c>
    ba38:	48 89 85 78 f5 ff ff 	mov    %rax,-0xa88(%rbp)
    ba3f:	48 8d 05 f6 f5 00 00 	lea    0xf5f6(%rip),%rax        # 1b03c <g_5+0xc>
    ba46:	48 89 85 80 f5 ff ff 	mov    %rax,-0xa80(%rbp)
    ba4d:	48 8d 05 68 cb 00 00 	lea    0xcb68(%rip),%rax        # 185bc <g_391+0x1c>
    ba54:	48 89 85 88 f5 ff ff 	mov    %rax,-0xa78(%rbp)
    ba5b:	48 8d 05 fa cb 00 00 	lea    0xcbfa(%rip),%rax        # 1865c <g_474+0x1c>
    ba62:	48 89 85 90 f5 ff ff 	mov    %rax,-0xa70(%rbp)
    ba69:	48 8d 05 cc ca 00 00 	lea    0xcacc(%rip),%rax        # 1853c <g_256+0x1c>
    ba70:	48 89 85 98 f5 ff ff 	mov    %rax,-0xa68(%rbp)
    ba77:	48 8d 05 be f5 00 00 	lea    0xf5be(%rip),%rax        # 1b03c <g_5+0xc>
    ba7e:	48 89 85 a0 f5 ff ff 	mov    %rax,-0xa60(%rbp)
    ba85:	48 8d 05 10 ca 00 00 	lea    0xca10(%rip),%rax        # 1849c <g_203+0x1c>
    ba8c:	48 89 85 a8 f5 ff ff 	mov    %rax,-0xa58(%rbp)
    ba93:	48 8d 05 c2 cb 00 00 	lea    0xcbc2(%rip),%rax        # 1865c <g_474+0x1c>
    ba9a:	48 89 85 b0 f5 ff ff 	mov    %rax,-0xa50(%rbp)
    baa1:	48 c7 85 b8 f5 ff ff 	movq   $0x0,-0xa48(%rbp)
    baa8:	00 00 00 00 
    baac:	48 8d 05 09 cb 00 00 	lea    0xcb09(%rip),%rax        # 185bc <g_391+0x1c>
    bab3:	48 89 85 c0 f5 ff ff 	mov    %rax,-0xa40(%rbp)
    baba:	48 c7 85 c8 f5 ff ff 	movq   $0x0,-0xa38(%rbp)
    bac1:	00 00 00 00 
    bac5:	48 8d 05 70 ca 00 00 	lea    0xca70(%rip),%rax        # 1853c <g_256+0x1c>
    bacc:	48 89 85 d0 f5 ff ff 	mov    %rax,-0xa30(%rbp)
    bad3:	48 8d 05 c2 c9 00 00 	lea    0xc9c2(%rip),%rax        # 1849c <g_203+0x1c>
    bada:	48 89 85 d8 f5 ff ff 	mov    %rax,-0xa28(%rbp)
    bae1:	48 8d 05 54 ca 00 00 	lea    0xca54(%rip),%rax        # 1853c <g_256+0x1c>
    bae8:	48 89 85 e0 f5 ff ff 	mov    %rax,-0xa20(%rbp)
    baef:	48 8d 85 90 ee ff ff 	lea    -0x1170(%rbp),%rax
    baf6:	48 05 bc 01 00 00    	add    $0x1bc,%rax
    bafc:	48 89 85 e8 f5 ff ff 	mov    %rax,-0xa18(%rbp)
    bb03:	48 8d 05 32 ca 00 00 	lea    0xca32(%rip),%rax        # 1853c <g_256+0x1c>
    bb0a:	48 89 85 f0 f5 ff ff 	mov    %rax,-0xa10(%rbp)
    bb11:	48 8d 05 84 c9 00 00 	lea    0xc984(%rip),%rax        # 1849c <g_203+0x1c>
    bb18:	48 89 85 f8 f5 ff ff 	mov    %rax,-0xa08(%rbp)
    bb1f:	48 8d 05 16 ca 00 00 	lea    0xca16(%rip),%rax        # 1853c <g_256+0x1c>
    bb26:	48 89 85 00 f6 ff ff 	mov    %rax,-0xa00(%rbp)
    bb2d:	48 c7 85 08 f6 ff ff 	movq   $0x0,-0x9f8(%rbp)
    bb34:	00 00 00 00 
    bb38:	48 8d 05 fd c9 00 00 	lea    0xc9fd(%rip),%rax        # 1853c <g_256+0x1c>
    bb3f:	48 89 85 10 f6 ff ff 	mov    %rax,-0x9f0(%rbp)
    bb46:	48 8d 05 ef c9 00 00 	lea    0xc9ef(%rip),%rax        # 1853c <g_256+0x1c>
    bb4d:	48 89 85 18 f6 ff ff 	mov    %rax,-0x9e8(%rbp)
    bb54:	48 8d 05 e1 f4 00 00 	lea    0xf4e1(%rip),%rax        # 1b03c <g_5+0xc>
    bb5b:	48 89 85 20 f6 ff ff 	mov    %rax,-0x9e0(%rbp)
    bb62:	48 c7 85 28 f6 ff ff 	movq   $0x0,-0x9d8(%rbp)
    bb69:	00 00 00 00 
    bb6d:	48 8d 05 e8 ca 00 00 	lea    0xcae8(%rip),%rax        # 1865c <g_474+0x1c>
    bb74:	48 89 85 30 f6 ff ff 	mov    %rax,-0x9d0(%rbp)
    bb7b:	48 8d 05 3a ca 00 00 	lea    0xca3a(%rip),%rax        # 185bc <g_391+0x1c>
    bb82:	48 89 85 38 f6 ff ff 	mov    %rax,-0x9c8(%rbp)
    bb89:	48 8d 05 ac c9 00 00 	lea    0xc9ac(%rip),%rax        # 1853c <g_256+0x1c>
    bb90:	48 89 85 40 f6 ff ff 	mov    %rax,-0x9c0(%rbp)
    bb97:	48 c7 85 48 f6 ff ff 	movq   $0x0,-0x9b8(%rbp)
    bb9e:	00 00 00 00 
    bba2:	48 8d 05 93 f4 00 00 	lea    0xf493(%rip),%rax        # 1b03c <g_5+0xc>
    bba9:	48 89 85 50 f6 ff ff 	mov    %rax,-0x9b0(%rbp)
    bbb0:	48 c7 85 58 f6 ff ff 	movq   $0x0,-0x9a8(%rbp)
    bbb7:	00 00 00 00 
    bbbb:	48 8d 05 7a f4 00 00 	lea    0xf47a(%rip),%rax        # 1b03c <g_5+0xc>
    bbc2:	48 89 85 60 f6 ff ff 	mov    %rax,-0x9a0(%rbp)
    bbc9:	48 c7 85 68 f6 ff ff 	movq   $0x0,-0x998(%rbp)
    bbd0:	00 00 00 00 
    bbd4:	48 8d 05 61 f4 00 00 	lea    0xf461(%rip),%rax        # 1b03c <g_5+0xc>
    bbdb:	48 89 85 70 f6 ff ff 	mov    %rax,-0x990(%rbp)
    bbe2:	48 8d 05 d3 c9 00 00 	lea    0xc9d3(%rip),%rax        # 185bc <g_391+0x1c>
    bbe9:	48 89 85 78 f6 ff ff 	mov    %rax,-0x988(%rbp)
    bbf0:	48 8d 05 c5 c9 00 00 	lea    0xc9c5(%rip),%rax        # 185bc <g_391+0x1c>
    bbf7:	48 89 85 80 f6 ff ff 	mov    %rax,-0x980(%rbp)
    bbfe:	48 8d 05 b7 c9 00 00 	lea    0xc9b7(%rip),%rax        # 185bc <g_391+0x1c>
    bc05:	48 89 85 88 f6 ff ff 	mov    %rax,-0x978(%rbp)
    bc0c:	48 8d 05 29 f4 00 00 	lea    0xf429(%rip),%rax        # 1b03c <g_5+0xc>
    bc13:	48 89 85 90 f6 ff ff 	mov    %rax,-0x970(%rbp)
    bc1a:	48 c7 85 98 f6 ff ff 	movq   $0x0,-0x968(%rbp)
    bc21:	00 00 00 00 
    bc25:	48 8d 05 10 f4 00 00 	lea    0xf410(%rip),%rax        # 1b03c <g_5+0xc>
    bc2c:	48 89 85 a0 f6 ff ff 	mov    %rax,-0x960(%rbp)
    bc33:	48 c7 85 a8 f6 ff ff 	movq   $0x0,-0x958(%rbp)
    bc3a:	00 00 00 00 
    bc3e:	48 8d 05 f7 c8 00 00 	lea    0xc8f7(%rip),%rax        # 1853c <g_256+0x1c>
    bc45:	48 89 85 b0 f6 ff ff 	mov    %rax,-0x950(%rbp)
    bc4c:	48 8d 05 49 c8 00 00 	lea    0xc849(%rip),%rax        # 1849c <g_203+0x1c>
    bc53:	48 89 85 b8 f6 ff ff 	mov    %rax,-0x948(%rbp)
    bc5a:	48 8d 05 db c8 00 00 	lea    0xc8db(%rip),%rax        # 1853c <g_256+0x1c>
    bc61:	48 89 85 c0 f6 ff ff 	mov    %rax,-0x940(%rbp)
    bc68:	48 c7 85 c8 f6 ff ff 	movq   $0x0,-0x938(%rbp)
    bc6f:	00 00 00 00 
    bc73:	48 8d 05 42 c9 00 00 	lea    0xc942(%rip),%rax        # 185bc <g_391+0x1c>
    bc7a:	48 89 85 d0 f6 ff ff 	mov    %rax,-0x930(%rbp)
    bc81:	48 8d 85 90 ee ff ff 	lea    -0x1170(%rbp),%rax
    bc88:	48 05 bc 01 00 00    	add    $0x1bc,%rax
    bc8e:	48 89 85 d8 f6 ff ff 	mov    %rax,-0x928(%rbp)
    bc95:	48 8d 05 c0 c9 00 00 	lea    0xc9c0(%rip),%rax        # 1865c <g_474+0x1c>
    bc9c:	48 89 85 e0 f6 ff ff 	mov    %rax,-0x920(%rbp)
    bca3:	48 c7 85 e8 f6 ff ff 	movq   $0x0,-0x918(%rbp)
    bcaa:	00 00 00 00 
    bcae:	48 8d 05 87 c8 00 00 	lea    0xc887(%rip),%rax        # 1853c <g_256+0x1c>
    bcb5:	48 89 85 f0 f6 ff ff 	mov    %rax,-0x910(%rbp)
    bcbc:	48 c7 85 f8 f6 ff ff 	movq   $0x0,-0x908(%rbp)
    bcc3:	00 00 00 00 
    bcc7:	48 8d 05 ee c8 00 00 	lea    0xc8ee(%rip),%rax        # 185bc <g_391+0x1c>
    bcce:	48 89 85 00 f7 ff ff 	mov    %rax,-0x900(%rbp)
    bcd5:	48 8d 05 60 c8 00 00 	lea    0xc860(%rip),%rax        # 1853c <g_256+0x1c>
    bcdc:	48 89 85 08 f7 ff ff 	mov    %rax,-0x8f8(%rbp)
    bce3:	48 8d 05 72 c9 00 00 	lea    0xc972(%rip),%rax        # 1865c <g_474+0x1c>
    bcea:	48 89 85 10 f7 ff ff 	mov    %rax,-0x8f0(%rbp)
    bcf1:	48 c7 85 18 f7 ff ff 	movq   $0x0,-0x8e8(%rbp)
    bcf8:	00 00 00 00 
    bcfc:	48 8d 05 59 c9 00 00 	lea    0xc959(%rip),%rax        # 1865c <g_474+0x1c>
    bd03:	48 89 85 20 f7 ff ff 	mov    %rax,-0x8e0(%rbp)
    bd0a:	48 8d 05 2b c8 00 00 	lea    0xc82b(%rip),%rax        # 1853c <g_256+0x1c>
    bd11:	48 89 85 28 f7 ff ff 	mov    %rax,-0x8d8(%rbp)
    bd18:	48 8d 05 9d c8 00 00 	lea    0xc89d(%rip),%rax        # 185bc <g_391+0x1c>
    bd1f:	48 89 85 30 f7 ff ff 	mov    %rax,-0x8d0(%rbp)
    bd26:	48 c7 85 38 f7 ff ff 	movq   $0x0,-0x8c8(%rbp)
    bd2d:	00 00 00 00 
    bd31:	48 8d 05 04 f3 00 00 	lea    0xf304(%rip),%rax        # 1b03c <g_5+0xc>
    bd38:	48 89 85 40 f7 ff ff 	mov    %rax,-0x8c0(%rbp)
    bd3f:	48 c7 85 48 f7 ff ff 	movq   $0x0,-0x8b8(%rbp)
    bd46:	00 00 00 00 
    bd4a:	48 8d 05 eb f2 00 00 	lea    0xf2eb(%rip),%rax        # 1b03c <g_5+0xc>
    bd51:	48 89 85 50 f7 ff ff 	mov    %rax,-0x8b0(%rbp)
    bd58:	48 c7 85 58 f7 ff ff 	movq   $0x0,-0x8a8(%rbp)
    bd5f:	00 00 00 00 
    bd63:	48 8d 05 f2 c8 00 00 	lea    0xc8f2(%rip),%rax        # 1865c <g_474+0x1c>
    bd6a:	48 89 85 60 f7 ff ff 	mov    %rax,-0x8a0(%rbp)
    bd71:	48 8d 05 44 c8 00 00 	lea    0xc844(%rip),%rax        # 185bc <g_391+0x1c>
    bd78:	48 89 85 68 f7 ff ff 	mov    %rax,-0x898(%rbp)
    bd7f:	48 8d 05 b6 c7 00 00 	lea    0xc7b6(%rip),%rax        # 1853c <g_256+0x1c>
    bd86:	48 89 85 70 f7 ff ff 	mov    %rax,-0x890(%rbp)
    bd8d:	48 c7 85 78 f7 ff ff 	movq   $0x0,-0x888(%rbp)
    bd94:	00 00 00 00 
    bd98:	48 8d 05 9d f2 00 00 	lea    0xf29d(%rip),%rax        # 1b03c <g_5+0xc>
    bd9f:	48 89 85 80 f7 ff ff 	mov    %rax,-0x880(%rbp)
    bda6:	48 c7 85 88 f7 ff ff 	movq   $0x0,-0x878(%rbp)
    bdad:	00 00 00 00 
    bdb1:	48 8d 05 84 f2 00 00 	lea    0xf284(%rip),%rax        # 1b03c <g_5+0xc>
    bdb8:	48 89 85 90 f7 ff ff 	mov    %rax,-0x870(%rbp)
    bdbf:	48 c7 85 98 f7 ff ff 	movq   $0x0,-0x868(%rbp)
    bdc6:	00 00 00 00 
    bdca:	48 8d 05 8b c8 00 00 	lea    0xc88b(%rip),%rax        # 1865c <g_474+0x1c>
    bdd1:	48 89 85 a0 f7 ff ff 	mov    %rax,-0x860(%rbp)
    bdd8:	48 c7 85 a8 f7 ff ff 	movq   $0x0,-0x858(%rbp)
    bddf:	00 00 00 00 
    bde3:	48 8d 05 52 c7 00 00 	lea    0xc752(%rip),%rax        # 1853c <g_256+0x1c>
    bdea:	48 89 85 b0 f7 ff ff 	mov    %rax,-0x850(%rbp)
    bdf1:	48 c7 85 b8 f7 ff ff 	movq   $0x0,-0x848(%rbp)
    bdf8:	00 00 00 00 
    bdfc:	48 8d 05 59 c8 00 00 	lea    0xc859(%rip),%rax        # 1865c <g_474+0x1c>
    be03:	48 89 85 c0 f7 ff ff 	mov    %rax,-0x840(%rbp)
    be0a:	48 8d 85 90 ee ff ff 	lea    -0x1170(%rbp),%rax
    be11:	48 05 bc 01 00 00    	add    $0x1bc,%rax
    be17:	48 89 85 c8 f7 ff ff 	mov    %rax,-0x838(%rbp)
    be1e:	48 8d 05 97 c7 00 00 	lea    0xc797(%rip),%rax        # 185bc <g_391+0x1c>
    be25:	48 89 85 d0 f7 ff ff 	mov    %rax,-0x830(%rbp)
    be2c:	48 c7 85 d8 f7 ff ff 	movq   $0x0,-0x828(%rbp)
    be33:	00 00 00 00 
    be37:	48 8d 05 fe c6 00 00 	lea    0xc6fe(%rip),%rax        # 1853c <g_256+0x1c>
    be3e:	48 89 85 e0 f7 ff ff 	mov    %rax,-0x820(%rbp)
    be45:	48 8d 05 50 c6 00 00 	lea    0xc650(%rip),%rax        # 1849c <g_203+0x1c>
    be4c:	48 89 85 e8 f7 ff ff 	mov    %rax,-0x818(%rbp)
    be53:	48 8d 85 94 eb ff ff 	lea    -0x146c(%rbp),%rax
    be5a:	48 89 85 30 ec ff ff 	mov    %rax,-0x13d0(%rbp)
    be61:	48 8b 85 18 ec ff ff 	mov    -0x13e8(%rbp),%rax
    be68:	0f b7 10             	movzwl (%rax),%edx
    be6b:	8b 05 53 c7 00 00    	mov    0xc753(%rip),%eax        # 185c4 <g_391+0x24>
    be71:	25 ff ff 01 00       	and    $0x1ffff,%eax
    be76:	3d 09 9f 00 00       	cmp    $0x9f09,%eax
    be7b:	0f 94 c0             	sete   %al
    be7e:	0f b6 c8             	movzbl %al,%ecx
    be81:	48 8b 05 f8 e1 00 00 	mov    0xe1f8(%rip),%rax        # 1a080 <g_162>
    be88:	48 8b 00             	mov    (%rax),%rax
    be8b:	48 8b 00             	mov    (%rax),%rax
    be8e:	48 8b 00             	mov    (%rax),%rax
    be91:	8b 00                	mov    (%rax),%eax
    be93:	09 c8                	or     %ecx,%eax
    be95:	09 c2                	or     %eax,%edx
    be97:	48 8b 85 18 ec ff ff 	mov    -0x13e8(%rbp),%rax
    be9e:	66 89 10             	mov    %dx,(%rax)
    bea1:	48 8b 85 18 ec ff ff 	mov    -0x13e8(%rbp),%rax
    bea8:	0f b7 00             	movzwl (%rax),%eax
    beab:	0f b7 d0             	movzwl %ax,%edx
    beae:	0f b7 05 8d c6 00 00 	movzwl 0xc68d(%rip),%eax        # 18542 <g_256+0x22>
    beb5:	0f b7 c0             	movzwl %ax,%eax
    beb8:	89 d6                	mov    %edx,%esi
    beba:	89 c7                	mov    %eax,%edi
    bebc:	e8 9b ae ff ff       	callq  6d5c <safe_mod_func_uint16_t_u_u>
    bec1:	0f bf d0             	movswl %ax,%edx
    bec4:	83 8d a4 eb ff ff 01 	orl    $0x1,-0x145c(%rbp)
    becb:	8b 85 a4 eb ff ff    	mov    -0x145c(%rbp),%eax
    bed1:	89 85 bc ec ff ff    	mov    %eax,-0x1344(%rbp)
    bed7:	8b 85 bc ec ff ff    	mov    -0x1344(%rbp),%eax
    bedd:	83 f8 08             	cmp    $0x8,%eax
    bee0:	0f 95 c0             	setne  %al
    bee3:	0f b6 c0             	movzbl %al,%eax
    bee6:	89 d6                	mov    %edx,%esi
    bee8:	89 c7                	mov    %eax,%edi
    beea:	e8 06 a5 ff ff       	callq  63f5 <safe_mul_func_int16_t_s_s>
    beef:	0f b6 85 7f eb ff ff 	movzbl -0x1481(%rbp),%eax
    bef6:	3c 01                	cmp    $0x1,%al
    bef8:	0f 95 c0             	setne  %al
    befb:	0f b6 c8             	movzbl %al,%ecx
    befe:	8b 05 3c f1 00 00    	mov    0xf13c(%rip),%eax        # 1b040 <g_89>
    bf04:	8b 15 36 f1 00 00    	mov    0xf136(%rip),%edx        # 1b040 <g_89>
    bf0a:	83 c2 05             	add    $0x5,%edx
    bf0d:	48 63 f2             	movslq %edx,%rsi
    bf10:	48 63 d0             	movslq %eax,%rdx
    bf13:	48 89 d0             	mov    %rdx,%rax
    bf16:	48 c1 e0 03          	shl    $0x3,%rax
    bf1a:	48 29 d0             	sub    %rdx,%rax
    bf1d:	48 01 f0             	add    %rsi,%rax
    bf20:	48 8d 14 85 00 00 00 	lea    0x0(,%rax,4),%rdx
    bf27:	00 
    bf28:	48 8d 05 41 c4 00 00 	lea    0xc441(%rip),%rax        # 18370 <g_149>
    bf2f:	8b 04 02             	mov    (%rdx,%rax,1),%eax
    bf32:	89 cf                	mov    %ecx,%edi
    bf34:	8b 15 06 f1 00 00    	mov    0xf106(%rip),%edx        # 1b040 <g_89>
    bf3a:	8b 0d 00 f1 00 00    	mov    0xf100(%rip),%ecx        # 1b040 <g_89>
    bf40:	8d 71 05             	lea    0x5(%rcx),%esi
    bf43:	21 c7                	and    %eax,%edi
    bf45:	4c 63 c6             	movslq %esi,%r8
    bf48:	48 63 ca             	movslq %edx,%rcx
    bf4b:	48 89 c8             	mov    %rcx,%rax
    bf4e:	48 c1 e0 03          	shl    $0x3,%rax
    bf52:	48 29 c8             	sub    %rcx,%rax
    bf55:	4c 01 c0             	add    %r8,%rax
    bf58:	48 8d 0c 85 00 00 00 	lea    0x0(,%rax,4),%rcx
    bf5f:	00 
    bf60:	48 8d 05 09 c4 00 00 	lea    0xc409(%rip),%rax        # 18370 <g_149>
    bf67:	89 3c 01             	mov    %edi,(%rcx,%rax,1)
    bf6a:	48 63 ce             	movslq %esi,%rcx
    bf6d:	48 63 d2             	movslq %edx,%rdx
    bf70:	48 89 d0             	mov    %rdx,%rax
    bf73:	48 c1 e0 03          	shl    $0x3,%rax
    bf77:	48 29 d0             	sub    %rdx,%rax
    bf7a:	48 01 c8             	add    %rcx,%rax
    bf7d:	48 8d 14 85 00 00 00 	lea    0x0(,%rax,4),%rdx
    bf84:	00 
    bf85:	48 8d 05 e4 c3 00 00 	lea    0xc3e4(%rip),%rax        # 18370 <g_149>
    bf8c:	8b 04 02             	mov    (%rdx,%rax,1),%eax
    bf8f:	be 85 51 cc c3       	mov    $0xc3cc5185,%esi
    bf94:	89 c7                	mov    %eax,%edi
    bf96:	e8 1d af ff ff       	callq  6eb8 <safe_add_func_uint32_t_u_u>
    bf9b:	8b 15 db c6 00 00    	mov    0xc6db(%rip),%edx        # 1867c <g_477+0xc>
    bfa1:	c1 ea 0e             	shr    $0xe,%edx
    bfa4:	66 81 e2 ff 01       	and    $0x1ff,%dx
    bfa9:	21 d0                	and    %edx,%eax
    bfab:	66 25 ff 01          	and    $0x1ff,%ax
    bfaf:	0f b7 d0             	movzwl %ax,%edx
    bfb2:	83 e2 03             	and    $0x3,%edx
    bfb5:	89 d1                	mov    %edx,%ecx
    bfb7:	c1 e1 06             	shl    $0x6,%ecx
    bfba:	0f b6 15 bc c6 00 00 	movzbl 0xc6bc(%rip),%edx        # 1867d <g_477+0xd>
    bfc1:	83 e2 3f             	and    $0x3f,%edx
    bfc4:	09 ca                	or     %ecx,%edx
    bfc6:	88 15 b1 c6 00 00    	mov    %dl,0xc6b1(%rip)        # 1867d <g_477+0xd>
    bfcc:	66 c1 e8 02          	shr    $0x2,%ax
    bfd0:	0f b7 c0             	movzwl %ax,%eax
    bfd3:	83 e0 7f             	and    $0x7f,%eax
    bfd6:	89 c2                	mov    %eax,%edx
    bfd8:	83 e2 7f             	and    $0x7f,%edx
    bfdb:	0f b6 05 9c c6 00 00 	movzbl 0xc69c(%rip),%eax        # 1867e <g_477+0xe>
    bfe2:	83 e0 80             	and    $0xffffff80,%eax
    bfe5:	09 d0                	or     %edx,%eax
    bfe7:	88 05 91 c6 00 00    	mov    %al,0xc691(%rip)        # 1867e <g_477+0xe>
    bfed:	8b 05 89 c6 00 00    	mov    0xc689(%rip),%eax        # 1867c <g_477+0xc>
    bff3:	c1 e8 0e             	shr    $0xe,%eax
    bff6:	66 25 ff 01          	and    $0x1ff,%ax
    bffa:	0f b7 c0             	movzwl %ax,%eax
    bffd:	be 00 00 00 00       	mov    $0x0,%esi
    c002:	89 c7                	mov    %eax,%edi
    c004:	e8 af ae ff ff       	callq  6eb8 <safe_add_func_uint32_t_u_u>
    c009:	85 c0                	test   %eax,%eax
    c00b:	74 0c                	je     c019 <func_42+0x17d9>
    c00d:	48 8b 85 08 ec ff ff 	mov    -0x13f8(%rbp),%rax
    c014:	e9 9b 06 00 00       	jmpq   c6b4 <func_42+0x1e74>
    c019:	48 8d 05 90 c1 00 00 	lea    0xc190(%rip),%rax        # 181b0 <g_111+0xd0>
    c020:	48 89 85 a0 ec ff ff 	mov    %rax,-0x1360(%rbp)
    c027:	48 8d 85 a0 ec ff ff 	lea    -0x1360(%rbp),%rax
    c02e:	48 89 85 38 ec ff ff 	mov    %rax,-0x13c8(%rbp)
    c035:	48 8d 05 b4 c3 00 00 	lea    0xc3b4(%rip),%rax        # 183f0 <g_191+0x10>
    c03c:	48 89 85 00 ed ff ff 	mov    %rax,-0x1300(%rbp)
    c043:	48 8d 05 66 c1 00 00 	lea    0xc166(%rip),%rax        # 181b0 <g_111+0xd0>
    c04a:	48 89 85 08 ed ff ff 	mov    %rax,-0x12f8(%rbp)
    c051:	48 8d 05 58 c1 00 00 	lea    0xc158(%rip),%rax        # 181b0 <g_111+0xd0>
    c058:	48 89 85 10 ed ff ff 	mov    %rax,-0x12f0(%rbp)
    c05f:	48 8d 05 8a c3 00 00 	lea    0xc38a(%rip),%rax        # 183f0 <g_191+0x10>
    c066:	48 89 85 18 ed ff ff 	mov    %rax,-0x12e8(%rbp)
    c06d:	48 8d 05 3c c1 00 00 	lea    0xc13c(%rip),%rax        # 181b0 <g_111+0xd0>
    c074:	48 89 85 20 ed ff ff 	mov    %rax,-0x12e0(%rbp)
    c07b:	48 8d 05 2e c1 00 00 	lea    0xc12e(%rip),%rax        # 181b0 <g_111+0xd0>
    c082:	48 89 85 28 ed ff ff 	mov    %rax,-0x12d8(%rbp)
    c089:	48 8d 05 60 c3 00 00 	lea    0xc360(%rip),%rax        # 183f0 <g_191+0x10>
    c090:	48 89 85 30 ed ff ff 	mov    %rax,-0x12d0(%rbp)
    c097:	48 8d 85 90 eb ff ff 	lea    -0x1470(%rbp),%rax
    c09e:	48 89 85 38 ed ff ff 	mov    %rax,-0x12c8(%rbp)
    c0a5:	48 c7 85 40 ed ff ff 	movq   $0x0,-0x12c0(%rbp)
    c0ac:	00 00 00 00 
    c0b0:	48 8d 85 90 eb ff ff 	lea    -0x1470(%rbp),%rax
    c0b7:	48 89 85 48 ed ff ff 	mov    %rax,-0x12b8(%rbp)
    c0be:	48 8d 85 90 eb ff ff 	lea    -0x1470(%rbp),%rax
    c0c5:	48 89 85 50 ed ff ff 	mov    %rax,-0x12b0(%rbp)
    c0cc:	48 c7 85 58 ed ff ff 	movq   $0x0,-0x12a8(%rbp)
    c0d3:	00 00 00 00 
    c0d7:	48 8d 85 90 eb ff ff 	lea    -0x1470(%rbp),%rax
    c0de:	48 89 85 60 ed ff ff 	mov    %rax,-0x12a0(%rbp)
    c0e5:	48 8d 85 90 eb ff ff 	lea    -0x1470(%rbp),%rax
    c0ec:	48 89 85 68 ed ff ff 	mov    %rax,-0x1298(%rbp)
    c0f3:	48 8d 05 f6 c2 00 00 	lea    0xc2f6(%rip),%rax        # 183f0 <g_191+0x10>
    c0fa:	48 89 85 70 ed ff ff 	mov    %rax,-0x1290(%rbp)
    c101:	48 8d 05 e8 c2 00 00 	lea    0xc2e8(%rip),%rax        # 183f0 <g_191+0x10>
    c108:	48 89 85 78 ed ff ff 	mov    %rax,-0x1288(%rbp)
    c10f:	48 8d 85 90 eb ff ff 	lea    -0x1470(%rbp),%rax
    c116:	48 89 85 80 ed ff ff 	mov    %rax,-0x1280(%rbp)
    c11d:	48 8d 05 cc c2 00 00 	lea    0xc2cc(%rip),%rax        # 183f0 <g_191+0x10>
    c124:	48 89 85 88 ed ff ff 	mov    %rax,-0x1278(%rbp)
    c12b:	48 8d 05 be c2 00 00 	lea    0xc2be(%rip),%rax        # 183f0 <g_191+0x10>
    c132:	48 89 85 90 ed ff ff 	mov    %rax,-0x1270(%rbp)
    c139:	48 8d 85 90 eb ff ff 	lea    -0x1470(%rbp),%rax
    c140:	48 89 85 98 ed ff ff 	mov    %rax,-0x1268(%rbp)
    c147:	48 8d 05 a2 c2 00 00 	lea    0xc2a2(%rip),%rax        # 183f0 <g_191+0x10>
    c14e:	48 89 85 a0 ed ff ff 	mov    %rax,-0x1260(%rbp)
    c155:	48 c7 85 a8 ed ff ff 	movq   $0x0,-0x1258(%rbp)
    c15c:	00 00 00 00 
    c160:	48 8d 85 90 eb ff ff 	lea    -0x1470(%rbp),%rax
    c167:	48 89 85 b0 ed ff ff 	mov    %rax,-0x1250(%rbp)
    c16e:	48 8d 85 90 eb ff ff 	lea    -0x1470(%rbp),%rax
    c175:	48 89 85 b8 ed ff ff 	mov    %rax,-0x1248(%rbp)
    c17c:	48 c7 85 c0 ed ff ff 	movq   $0x0,-0x1240(%rbp)
    c183:	00 00 00 00 
    c187:	48 8d 85 90 eb ff ff 	lea    -0x1470(%rbp),%rax
    c18e:	48 89 85 c8 ed ff ff 	mov    %rax,-0x1238(%rbp)
    c195:	48 8d 85 90 eb ff ff 	lea    -0x1470(%rbp),%rax
    c19c:	48 89 85 d0 ed ff ff 	mov    %rax,-0x1230(%rbp)
    c1a3:	48 c7 85 d8 ed ff ff 	movq   $0x0,-0x1228(%rbp)
    c1aa:	00 00 00 00 
    c1ae:	48 8d 05 fb bf 00 00 	lea    0xbffb(%rip),%rax        # 181b0 <g_111+0xd0>
    c1b5:	48 89 85 e0 ed ff ff 	mov    %rax,-0x1220(%rbp)
    c1bc:	48 8d 05 2d c2 00 00 	lea    0xc22d(%rip),%rax        # 183f0 <g_191+0x10>
    c1c3:	48 89 85 e8 ed ff ff 	mov    %rax,-0x1218(%rbp)
    c1ca:	48 8d 05 df bf 00 00 	lea    0xbfdf(%rip),%rax        # 181b0 <g_111+0xd0>
    c1d1:	48 89 85 f0 ed ff ff 	mov    %rax,-0x1210(%rbp)
    c1d8:	48 8d 85 90 eb ff ff 	lea    -0x1470(%rbp),%rax
    c1df:	48 89 85 f8 ed ff ff 	mov    %rax,-0x1208(%rbp)
    c1e6:	48 8d 05 c3 bf 00 00 	lea    0xbfc3(%rip),%rax        # 181b0 <g_111+0xd0>
    c1ed:	48 89 85 00 ee ff ff 	mov    %rax,-0x1200(%rbp)
    c1f4:	48 8d 85 90 eb ff ff 	lea    -0x1470(%rbp),%rax
    c1fb:	48 89 85 08 ee ff ff 	mov    %rax,-0x11f8(%rbp)
    c202:	48 8d 85 90 eb ff ff 	lea    -0x1470(%rbp),%rax
    c209:	48 89 85 10 ee ff ff 	mov    %rax,-0x11f0(%rbp)
    c210:	48 8d 85 90 eb ff ff 	lea    -0x1470(%rbp),%rax
    c217:	48 89 85 18 ee ff ff 	mov    %rax,-0x11e8(%rbp)
    c21e:	48 8d 85 90 eb ff ff 	lea    -0x1470(%rbp),%rax
    c225:	48 89 85 20 ee ff ff 	mov    %rax,-0x11e0(%rbp)
    c22c:	48 c7 85 28 ee ff ff 	movq   $0x0,-0x11d8(%rbp)
    c233:	00 00 00 00 
    c237:	48 8d 85 90 eb ff ff 	lea    -0x1470(%rbp),%rax
    c23e:	48 89 85 30 ee ff ff 	mov    %rax,-0x11d0(%rbp)
    c245:	48 8d 85 90 eb ff ff 	lea    -0x1470(%rbp),%rax
    c24c:	48 89 85 38 ee ff ff 	mov    %rax,-0x11c8(%rbp)
    c253:	48 c7 85 40 ee ff ff 	movq   $0x0,-0x11c0(%rbp)
    c25a:	00 00 00 00 
    c25e:	48 8d 85 90 eb ff ff 	lea    -0x1470(%rbp),%rax
    c265:	48 89 85 48 ee ff ff 	mov    %rax,-0x11b8(%rbp)
    c26c:	48 8d 05 3d bf 00 00 	lea    0xbf3d(%rip),%rax        # 181b0 <g_111+0xd0>
    c273:	48 89 85 50 ee ff ff 	mov    %rax,-0x11b0(%rbp)
    c27a:	48 8d 85 90 eb ff ff 	lea    -0x1470(%rbp),%rax
    c281:	48 89 85 58 ee ff ff 	mov    %rax,-0x11a8(%rbp)
    c288:	48 8d 85 90 eb ff ff 	lea    -0x1470(%rbp),%rax
    c28f:	48 89 85 60 ee ff ff 	mov    %rax,-0x11a0(%rbp)
    c296:	48 8d 05 13 bf 00 00 	lea    0xbf13(%rip),%rax        # 181b0 <g_111+0xd0>
    c29d:	48 89 85 68 ee ff ff 	mov    %rax,-0x1198(%rbp)
    c2a4:	48 8d 85 90 eb ff ff 	lea    -0x1470(%rbp),%rax
    c2ab:	48 89 85 70 ee ff ff 	mov    %rax,-0x1190(%rbp)
    c2b2:	48 8d 85 90 eb ff ff 	lea    -0x1470(%rbp),%rax
    c2b9:	48 89 85 78 ee ff ff 	mov    %rax,-0x1188(%rbp)
    c2c0:	48 8d 05 e9 be 00 00 	lea    0xbee9(%rip),%rax        # 181b0 <g_111+0xd0>
    c2c7:	48 89 85 80 ee ff ff 	mov    %rax,-0x1180(%rbp)
    c2ce:	c7 85 b0 eb ff ff 94 	movl   $0x9846d194,-0x1450(%rbp)
    c2d5:	d1 46 98 
    c2d8:	c7 85 b4 eb ff ff 03 	movl   $0x3,-0x144c(%rbp)
    c2df:	00 00 00 
    c2e2:	c7 85 b8 eb ff ff ff 	movl   $0xffffffff,-0x1448(%rbp)
    c2e9:	ff ff ff 
    c2ec:	0f b6 85 7f eb ff ff 	movzbl -0x1481(%rbp),%eax
    c2f3:	0f b6 d8             	movzbl %al,%ebx
    c2f6:	48 8b 85 38 ec ff ff 	mov    -0x13c8(%rbp),%rax
    c2fd:	48 c7 00 00 00 00 00 	movq   $0x0,(%rax)
    c304:	48 8b 85 38 ec ff ff 	mov    -0x13c8(%rbp),%rax
    c30b:	48 8b 10             	mov    (%rax),%rdx
    c30e:	48 8b 85 80 f9 ff ff 	mov    -0x680(%rbp),%rax
    c315:	48 39 c2             	cmp    %rax,%rdx
    c318:	0f 94 c0             	sete   %al
    c31b:	0f b6 c0             	movzbl %al,%eax
    c31e:	be 00 00 00 00       	mov    $0x0,%esi
    c323:	89 c7                	mov    %eax,%edi
    c325:	e8 94 aa ff ff       	callq  6dbe <safe_lshift_func_uint16_t_u_s>
    c32a:	0f b7 c0             	movzwl %ax,%eax
    c32d:	83 bd 78 eb ff ff fa 	cmpl   $0xfffffffa,-0x1488(%rbp)
    c334:	75 15                	jne    c34b <func_42+0x1b0b>
    c336:	0f b6 15 53 c3 00 00 	movzbl 0xc353(%rip),%edx        # 18690 <g_493>
    c33d:	83 e2 f8             	and    $0xfffffff8,%edx
    c340:	84 d2                	test   %dl,%dl
    c342:	74 07                	je     c34b <func_42+0x1b0b>
    c344:	ba 01 00 00 00       	mov    $0x1,%edx
    c349:	eb 05                	jmp    c350 <func_42+0x1b10>
    c34b:	ba 00 00 00 00       	mov    $0x0,%edx
    c350:	39 c2                	cmp    %eax,%edx
    c352:	0f 9f c0             	setg   %al
    c355:	0f b6 c0             	movzbl %al,%eax
    c358:	89 05 92 c0 00 00    	mov    %eax,0xc092(%rip)        # 183f0 <g_191+0x10>
    c35e:	0f b6 85 7f eb ff ff 	movzbl -0x1481(%rbp),%eax
    c365:	0f b6 d0             	movzbl %al,%edx
    c368:	0f be 85 85 eb ff ff 	movsbl -0x147b(%rbp),%eax
    c36f:	39 c2                	cmp    %eax,%edx
    c371:	0f 9d c0             	setge  %al
    c374:	0f b6 c0             	movzbl %al,%eax
    c377:	48 8b 15 7a c1 00 00 	mov    0xc17a(%rip),%rdx        # 184f8 <g_247>
    c37e:	48 c1 e2 0c          	shl    $0xc,%rdx
    c382:	48 c1 fa 2c          	sar    $0x2c,%rdx
    c386:	39 d0                	cmp    %edx,%eax
    c388:	0f 94 c0             	sete   %al
    c38b:	0f b6 c0             	movzbl %al,%eax
    c38e:	89 de                	mov    %ebx,%esi
    c390:	89 c7                	mov    %eax,%edi
    c392:	e8 17 a8 ff ff       	callq  6bae <safe_mod_func_uint8_t_u_u>
    c397:	0f b6 c0             	movzbl %al,%eax
    c39a:	be 0b 00 00 00       	mov    $0xb,%esi
    c39f:	89 c7                	mov    %eax,%edi
    c3a1:	e8 a2 aa ff ff       	callq  6e48 <safe_rshift_func_uint16_t_u_s>
    c3a6:	48 c7 c1 ff ff ff ff 	mov    $0xffffffffffffffff,%rcx
    c3ad:	8b 05 fd bd 00 00    	mov    0xbdfd(%rip),%eax        # 181b0 <g_111+0xd0>
    c3b3:	89 c2                	mov    %eax,%edx
    c3b5:	89 c8                	mov    %ecx,%eax
    c3b7:	09 d0                	or     %edx,%eax
    c3b9:	89 05 f1 bd 00 00    	mov    %eax,0xbdf1(%rip)        # 181b0 <g_111+0xd0>
    c3bf:	8b 3d eb bd 00 00    	mov    0xbdeb(%rip),%edi        # 181b0 <g_111+0xd0>
    c3c5:	0f b6 85 7f eb ff ff 	movzbl -0x1481(%rbp),%eax
    c3cc:	0f b6 c8             	movzbl %al,%ecx
    c3cf:	0f b6 05 7e c2 00 00 	movzbl 0xc27e(%rip),%eax        # 18654 <g_474+0x14>
    c3d6:	0f b6 c0             	movzbl %al,%eax
    c3d9:	48 8b 15 a0 dc 00 00 	mov    0xdca0(%rip),%rdx        # 1a080 <g_162>
    c3e0:	48 8b 12             	mov    (%rdx),%rdx
    c3e3:	48 8b 1a             	mov    (%rdx),%rbx
    c3e6:	48 8b 95 30 ec ff ff 	mov    -0x13d0(%rbp),%rdx
    c3ed:	0f b6 b5 84 eb ff ff 	movzbl -0x147c(%rbp),%esi
    c3f4:	41 89 f8             	mov    %edi,%r8d
    c3f7:	89 c7                	mov    %eax,%edi
    c3f9:	e8 b7 04 00 00       	callq  c8b5 <func_68>
    c3fe:	48 89 03             	mov    %rax,(%rbx)
    c401:	0f b6 85 7f eb ff ff 	movzbl -0x1481(%rbp),%eax
    c408:	0f b6 d8             	movzbl %al,%ebx
    c40b:	0f b6 85 7f eb ff ff 	movzbl -0x1481(%rbp),%eax
    c412:	0f b6 c0             	movzbl %al,%eax
    c415:	89 85 74 eb ff ff    	mov    %eax,-0x148c(%rbp)
    c41b:	8b 85 98 eb ff ff    	mov    -0x1468(%rbp),%eax
    c421:	44 0f be e0          	movsbl %al,%r12d
    c425:	8b 05 15 ec 00 00    	mov    0xec15(%rip),%eax        # 1b040 <g_89>
    c42b:	44 0f bf e8          	movswl %ax,%r13d
    c42f:	0f b7 05 0c c1 00 00 	movzwl 0xc10c(%rip),%eax        # 18542 <g_256+0x22>
    c436:	44 0f b7 f0          	movzwl %ax,%r14d
    c43a:	0f b6 85 7f eb ff ff 	movzbl -0x1481(%rbp),%eax
    c441:	44 0f b6 f8          	movzbl %al,%r15d
    c445:	0f b6 85 87 eb ff ff 	movzbl -0x1479(%rbp),%eax
    c44c:	0f be c0             	movsbl %al,%eax
    c44f:	89 85 70 eb ff ff    	mov    %eax,-0x1490(%rbp)
    c455:	8b 85 78 eb ff ff    	mov    -0x1488(%rbp),%eax
    c45b:	48 63 d0             	movslq %eax,%rdx
    c45e:	0f b7 85 8a eb ff ff 	movzwl -0x1476(%rbp),%eax
    c465:	48 0f bf c0          	movswq %ax,%rax
    c469:	48 89 d6             	mov    %rdx,%rsi
    c46c:	48 89 c7             	mov    %rax,%rdi
    c46f:	e8 34 a4 ff ff       	callq  68a8 <safe_sub_func_int64_t_s_s>
    c474:	48 85 c0             	test   %rax,%rax
    c477:	0f 84 fa 00 00 00    	je     c577 <func_42+0x1d37>
    c47d:	0f b6 85 7f eb ff ff 	movzbl -0x1481(%rbp),%eax
    c484:	0f b6 c0             	movzbl %al,%eax
    c487:	89 85 6c eb ff ff    	mov    %eax,-0x1494(%rbp)
    c48d:	8b 85 b0 eb ff ff    	mov    -0x1450(%rbp),%eax
    c493:	89 c6                	mov    %eax,%esi
    c495:	bf 01 00 00 00       	mov    $0x1,%edi
    c49a:	e8 42 a0 ff ff       	callq  64e1 <safe_lshift_func_int16_t_s_u>
    c49f:	48 0f bf c0          	movswq %ax,%rax
    c4a3:	89 c2                	mov    %eax,%edx
    c4a5:	8b 85 b4 eb ff ff    	mov    -0x144c(%rbp),%eax
    c4ab:	09 d0                	or     %edx,%eax
    c4ad:	89 85 b4 eb ff ff    	mov    %eax,-0x144c(%rbp)
    c4b3:	48 8b 05 be db 00 00 	mov    0xdbbe(%rip),%rax        # 1a078 <g_163>
    c4ba:	48 8b 00             	mov    (%rax),%rax
    c4bd:	48 8b 00             	mov    (%rax),%rax
    c4c0:	8b 00                	mov    (%rax),%eax
    c4c2:	39 85 b4 eb ff ff    	cmp    %eax,-0x144c(%rbp)
    c4c8:	0f 94 c0             	sete   %al
    c4cb:	0f b6 c0             	movzbl %al,%eax
    c4ce:	48 be c4 0e 0b d8 f1 	movabs $0x268651f1d80b0ec4,%rsi
    c4d5:	51 86 26 
    c4d8:	48 89 c7             	mov    %rax,%rdi
    c4db:	e8 d4 a4 ff ff       	callq  69b4 <safe_mod_func_int64_t_s_s>
    c4e0:	48 85 c0             	test   %rax,%rax
    c4e3:	74 07                	je     c4ec <func_42+0x1cac>
    c4e5:	b8 01 00 00 00       	mov    $0x1,%eax
    c4ea:	eb 05                	jmp    c4f1 <func_42+0x1cb1>
    c4ec:	b8 00 00 00 00       	mov    $0x0,%eax
    c4f1:	98                   	cwtl   
    c4f2:	8b b5 6c eb ff ff    	mov    -0x1494(%rbp),%esi
    c4f8:	89 c7                	mov    %eax,%edi
    c4fa:	e8 64 a0 ff ff       	callq  6563 <safe_rshift_func_int16_t_s_u>
    c4ff:	98                   	cwtl   
    c500:	be ff ff ff ff       	mov    $0xffffffff,%esi
    c505:	89 c7                	mov    %eax,%edi
    c507:	e8 e9 9e ff ff       	callq  63f5 <safe_mul_func_int16_t_s_s>
    c50c:	98                   	cwtl   
    c50d:	be 00 00 00 00       	mov    $0x0,%esi
    c512:	89 c7                	mov    %eax,%edi
    c514:	e8 11 a0 ff ff       	callq  652a <safe_rshift_func_int16_t_s_s>
    c519:	98                   	cwtl   
    c51a:	48 8b 15 b7 c0 00 00 	mov    0xc0b7(%rip),%rdx        # 185d8 <g_423+0x8>
    c521:	48 c1 ea 10          	shr    $0x10,%rdx
    c525:	81 e2 ff ff ff 3f    	and    $0x3fffffff,%edx
    c52b:	39 d0                	cmp    %edx,%eax
    c52d:	0f 9e c0             	setle  %al
    c530:	0f b6 c0             	movzbl %al,%eax
    c533:	39 85 98 eb ff ff    	cmp    %eax,-0x1468(%rbp)
    c539:	0f 97 c0             	seta   %al
    c53c:	0f b6 d0             	movzbl %al,%edx
    c53f:	0f b6 05 f5 bf 00 00 	movzbl 0xbff5(%rip),%eax        # 1853b <g_256+0x1b>
    c546:	0f be c0             	movsbl %al,%eax
    c549:	09 d0                	or     %edx,%eax
    c54b:	89 c2                	mov    %eax,%edx
    c54d:	8b 05 1d be 00 00    	mov    0xbe1d(%rip),%eax        # 18370 <g_149>
    c553:	39 c2                	cmp    %eax,%edx
    c555:	0f 94 c0             	sete   %al
    c558:	0f b6 c0             	movzbl %al,%eax
    c55b:	be 01 00 00 00       	mov    $0x1,%esi
    c560:	89 c7                	mov    %eax,%edi
    c562:	e8 57 a7 ff ff       	callq  6cbe <safe_rshift_func_uint8_t_u_u>
    c567:	0f b6 d0             	movzbl %al,%edx
    c56a:	48 8b 85 d8 eb ff ff 	mov    -0x1428(%rbp),%rax
    c571:	8b 00                	mov    (%rax),%eax
    c573:	21 d0                	and    %edx,%eax
    c575:	85 c0                	test   %eax,%eax
    c577:	8b b5 70 eb ff ff    	mov    -0x1490(%rbp),%esi
    c57d:	bf 01 00 00 00       	mov    $0x1,%edi
    c582:	e8 e3 9c ff ff       	callq  626a <safe_div_func_int8_t_s_s>
    c587:	0f be c0             	movsbl %al,%eax
    c58a:	44 89 fe             	mov    %r15d,%esi
    c58d:	89 c7                	mov    %eax,%edi
    c58f:	e8 a1 9d ff ff       	callq  6335 <safe_rshift_func_int8_t_s_s>
    c594:	66 98                	cbtw   
    c596:	0f b7 c0             	movzwl %ax,%eax
    c599:	44 89 f6             	mov    %r14d,%esi
    c59c:	89 c7                	mov    %eax,%edi
    c59e:	e8 9a a7 ff ff       	callq  6d3d <safe_mul_func_uint16_t_u_u>
    c5a3:	89 c2                	mov    %eax,%edx
    c5a5:	8b 85 78 eb ff ff    	mov    -0x1488(%rbp),%eax
    c5ab:	09 d0                	or     %edx,%eax
    c5ad:	0f b7 d0             	movzwl %ax,%edx
    c5b0:	8b 85 b4 ec ff ff    	mov    -0x134c(%rbp),%eax
    c5b6:	0f b7 c0             	movzwl %ax,%eax
    c5b9:	89 d6                	mov    %edx,%esi
    c5bb:	89 c7                	mov    %eax,%edi
    c5bd:	e8 5d a7 ff ff       	callq  6d1f <safe_sub_func_uint16_t_u_u>
    c5c2:	0f b6 85 7f eb ff ff 	movzbl -0x1481(%rbp),%eax
    c5c9:	0f b6 c0             	movzbl %al,%eax
    c5cc:	44 89 ee             	mov    %r13d,%esi
    c5cf:	89 c7                	mov    %eax,%edi
    c5d1:	e8 40 9e ff ff       	callq  6416 <safe_mod_func_int16_t_s_s>
    c5d6:	0f be c0             	movsbl %al,%eax
    c5d9:	44 89 e6             	mov    %r12d,%esi
    c5dc:	89 c7                	mov    %eax,%edi
    c5de:	e8 2f 9c ff ff       	callq  6212 <safe_mul_func_int8_t_s_s>
    c5e3:	0f be c0             	movsbl %al,%eax
    c5e6:	39 85 74 eb ff ff    	cmp    %eax,-0x148c(%rbp)
    c5ec:	7d 07                	jge    c5f5 <func_42+0x1db5>
    c5ee:	b8 01 00 00 00       	mov    $0x1,%eax
    c5f3:	eb 05                	jmp    c5fa <func_42+0x1dba>
    c5f5:	b8 00 00 00 00       	mov    $0x0,%eax
    c5fa:	83 c8 08             	or     $0x8,%eax
    c5fd:	33 85 b0 eb ff ff    	xor    -0x1450(%rbp),%eax
    c603:	c1 e8 1f             	shr    $0x1f,%eax
    c606:	0f b6 c0             	movzbl %al,%eax
    c609:	89 de                	mov    %ebx,%esi
    c60b:	89 c7                	mov    %eax,%edi
    c60d:	e8 81 a5 ff ff       	callq  6b93 <safe_mul_func_uint8_t_u_u>
    c612:	0f b6 c0             	movzbl %al,%eax
    c615:	09 85 b8 eb ff ff    	or     %eax,-0x1448(%rbp)
    c61b:	83 bd 78 eb ff ff 00 	cmpl   $0x0,-0x1488(%rbp)
    c622:	0f b6 85 85 eb ff ff 	movzbl -0x147b(%rbp),%eax
    c629:	83 e8 01             	sub    $0x1,%eax
    c62c:	88 85 85 eb ff ff    	mov    %al,-0x147b(%rbp)
    c632:	80 bd 85 eb ff ff 00 	cmpb   $0x0,-0x147b(%rbp)
    c639:	0f 89 16 eb ff ff    	jns    b155 <func_42+0x915>
    c63f:	8b 05 fb e9 00 00    	mov    0xe9fb(%rip),%eax        # 1b040 <g_89>
    c645:	83 c0 01             	add    $0x1,%eax
    c648:	89 05 f2 e9 00 00    	mov    %eax,0xe9f2(%rip)        # 1b040 <g_89>
    c64e:	8b 05 ec e9 00 00    	mov    0xe9ec(%rip),%eax        # 1b040 <g_89>
    c654:	85 c0                	test   %eax,%eax
    c656:	0f 8e a1 e7 ff ff    	jle    adfd <func_42+0x5bd>
    c65c:	80 85 86 eb ff ff 01 	addb   $0x1,-0x147a(%rbp)
    c663:	80 bd 86 eb ff ff 00 	cmpb   $0x0,-0x147a(%rbp)
    c66a:	0f 84 4a e5 ff ff    	je     abba <func_42+0x37a>
    c670:	c7 85 98 eb ff ff 0d 	movl   $0xd,-0x1468(%rbp)
    c677:	00 00 00 
    c67a:	eb 1f                	jmp    c69b <func_42+0x1e5b>
    c67c:	48 8b 85 d8 eb ff ff 	mov    -0x1428(%rbp),%rax
    c683:	8b 10                	mov    (%rax),%edx
    c685:	48 8b 85 d8 eb ff ff 	mov    -0x1428(%rbp),%rax
    c68c:	81 e2 d4 e3 4e de    	and    $0xde4ee3d4,%edx
    c692:	89 10                	mov    %edx,(%rax)
    c694:	83 85 98 eb ff ff 01 	addl   $0x1,-0x1468(%rbp)
    c69b:	83 bd 98 eb ff ff 26 	cmpl   $0x26,-0x1468(%rbp)
    c6a2:	75 d8                	jne    c67c <func_42+0x1e3c>
    c6a4:	48 8b 05 dd d9 00 00 	mov    0xd9dd(%rip),%rax        # 1a088 <g_161>
    c6ab:	48 8b 00             	mov    (%rax),%rax
    c6ae:	48 8b 00             	mov    (%rax),%rax
    c6b1:	48 8b 00             	mov    (%rax),%rax
    c6b4:	48 8b 5d c8          	mov    -0x38(%rbp),%rbx
    c6b8:	64 48 33 1c 25 28 00 	xor    %fs:0x28,%rbx
    c6bf:	00 00 
    c6c1:	74 05                	je     c6c8 <func_42+0x1e88>
    c6c3:	e8 a8 99 ff ff       	callq  6070 <__stack_chk_fail@plt>
    c6c8:	48 81 c4 78 14 00 00 	add    $0x1478,%rsp
    c6cf:	5b                   	pop    %rbx
    c6d0:	41 5c                	pop    %r12
    c6d2:	41 5d                	pop    %r13
    c6d4:	41 5e                	pop    %r14
    c6d6:	41 5f                	pop    %r15
    c6d8:	5d                   	pop    %rbp
    c6d9:	c3                   	retq   

000000000000c6da <func_49>:
    c6da:	f3 0f 1e fa          	endbr64 
    c6de:	55                   	push   %rbp
    c6df:	48 89 e5             	mov    %rsp,%rbp
    c6e2:	48 89 7d f8          	mov    %rdi,-0x8(%rbp)
    c6e6:	48 89 75 f0          	mov    %rsi,-0x10(%rbp)
    c6ea:	48 89 55 e8          	mov    %rdx,-0x18(%rbp)
    c6ee:	48 89 4d e0          	mov    %rcx,-0x20(%rbp)
    c6f2:	44 89 c0             	mov    %r8d,%eax
    c6f5:	66 89 45 dc          	mov    %ax,-0x24(%rbp)
    c6f9:	0f b7 05 b2 b9 00 00 	movzwl 0xb9b2(%rip),%eax        # 180b2 <g_97>
    c700:	98                   	cwtl   
    c701:	5d                   	pop    %rbp
    c702:	c3                   	retq   

000000000000c703 <func_63>:
    c703:	f3 0f 1e fa          	endbr64 
    c707:	55                   	push   %rbp
    c708:	48 89 e5             	mov    %rsp,%rbp
    c70b:	53                   	push   %rbx
    c70c:	48 81 ec d8 00 00 00 	sub    $0xd8,%rsp
    c713:	89 bd 3c ff ff ff    	mov    %edi,-0xc4(%rbp)
    c719:	48 89 b5 30 ff ff ff 	mov    %rsi,-0xd0(%rbp)
    c720:	48 89 95 28 ff ff ff 	mov    %rdx,-0xd8(%rbp)
    c727:	64 48 8b 04 25 28 00 	mov    %fs:0x28,%rax
    c72e:	00 00 
    c730:	48 89 45 e8          	mov    %rax,-0x18(%rbp)
    c734:	31 c0                	xor    %eax,%eax
    c736:	66 c7 85 42 ff ff ff 	movw   $0x1cf4,-0xbe(%rbp)
    c73d:	f4 1c 
    c73f:	48 8d 05 6a b9 00 00 	lea    0xb96a(%rip),%rax        # 180b0 <g_61>
    c746:	48 89 85 50 ff ff ff 	mov    %rax,-0xb0(%rbp)
    c74d:	48 c7 85 58 ff ff ff 	movq   $0x0,-0xa8(%rbp)
    c754:	00 00 00 00 
    c758:	48 8d 05 51 b9 00 00 	lea    0xb951(%rip),%rax        # 180b0 <g_61>
    c75f:	48 89 85 60 ff ff ff 	mov    %rax,-0xa0(%rbp)
    c766:	48 8d 05 43 b9 00 00 	lea    0xb943(%rip),%rax        # 180b0 <g_61>
    c76d:	48 89 85 68 ff ff ff 	mov    %rax,-0x98(%rbp)
    c774:	48 c7 85 70 ff ff ff 	movq   $0x0,-0x90(%rbp)
    c77b:	00 00 00 00 
    c77f:	48 8d 05 2a b9 00 00 	lea    0xb92a(%rip),%rax        # 180b0 <g_61>
    c786:	48 89 85 78 ff ff ff 	mov    %rax,-0x88(%rbp)
    c78d:	48 8d 05 1c b9 00 00 	lea    0xb91c(%rip),%rax        # 180b0 <g_61>
    c794:	48 89 45 80          	mov    %rax,-0x80(%rbp)
    c798:	48 c7 45 88 00 00 00 	movq   $0x0,-0x78(%rbp)
    c79f:	00 
    c7a0:	48 8d 05 09 b9 00 00 	lea    0xb909(%rip),%rax        # 180b0 <g_61>
    c7a7:	48 89 45 90          	mov    %rax,-0x70(%rbp)
    c7ab:	48 8d 05 fe b8 00 00 	lea    0xb8fe(%rip),%rax        # 180b0 <g_61>
    c7b2:	48 89 45 98          	mov    %rax,-0x68(%rbp)
    c7b6:	48 c7 45 a0 00 00 00 	movq   $0x0,-0x60(%rbp)
    c7bd:	00 
    c7be:	48 8d 05 eb b8 00 00 	lea    0xb8eb(%rip),%rax        # 180b0 <g_61>
    c7c5:	48 89 45 a8          	mov    %rax,-0x58(%rbp)
    c7c9:	48 8d 05 e0 b8 00 00 	lea    0xb8e0(%rip),%rax        # 180b0 <g_61>
    c7d0:	48 89 45 b0          	mov    %rax,-0x50(%rbp)
    c7d4:	48 c7 45 b8 00 00 00 	movq   $0x0,-0x48(%rbp)
    c7db:	00 
    c7dc:	48 8d 05 cd b8 00 00 	lea    0xb8cd(%rip),%rax        # 180b0 <g_61>
    c7e3:	48 89 45 c0          	mov    %rax,-0x40(%rbp)
    c7e7:	48 8d 05 c2 b8 00 00 	lea    0xb8c2(%rip),%rax        # 180b0 <g_61>
    c7ee:	48 89 45 c8          	mov    %rax,-0x38(%rbp)
    c7f2:	48 c7 45 d0 00 00 00 	movq   $0x0,-0x30(%rbp)
    c7f9:	00 
    c7fa:	48 8d 05 af b8 00 00 	lea    0xb8af(%rip),%rax        # 180b0 <g_61>
    c801:	48 89 45 d8          	mov    %rax,-0x28(%rbp)
    c805:	48 c7 85 48 ff ff ff 	movq   $0x0,-0xb8(%rbp)
    c80c:	00 00 00 00 
    c810:	c7 85 44 ff ff ff d1 	movl   $0xbd686dd1,-0xbc(%rbp)
    c817:	6d 68 bd 
    c81a:	0f b6 85 2c ff ff ff 	movzbl -0xd4(%rbp),%eax
    c821:	0f be d8             	movsbl %al,%ebx
    c824:	48 8b 45 88          	mov    -0x78(%rbp),%rax
    c828:	48 8d 35 81 b8 00 00 	lea    0xb881(%rip),%rsi        # 180b0 <g_61>
    c82f:	48 89 c7             	mov    %rax,%rdi
    c832:	e8 01 01 00 00       	callq  c938 <func_84>
    c837:	48 89 c6             	mov    %rax,%rsi
    c83a:	0f bf 85 42 ff ff ff 	movswl -0xbe(%rbp),%eax
    c841:	48 8b 15 68 b9 00 00 	mov    0xb968(%rip),%rdx        # 181b0 <g_111+0xd0>
    c848:	48 89 d1             	mov    %rdx,%rcx
    c84b:	89 da                	mov    %ebx,%edx
    c84d:	89 c7                	mov    %eax,%edi
    c84f:	e8 8e 00 00 00       	callq  c8e2 <func_78>
    c854:	0f b7 d0             	movzwl %ax,%edx
    c857:	8b 85 28 ff ff ff    	mov    -0xd8(%rbp),%eax
    c85d:	89 c6                	mov    %eax,%esi
    c85f:	0f b7 05 42 b8 00 00 	movzwl 0xb842(%rip),%eax        # 180a8 <g_28+0x8>
    c866:	c1 e0 04             	shl    $0x4,%eax
    c869:	66 c1 f8 04          	sar    $0x4,%ax
    c86d:	48 0f bf c0          	movswq %ax,%rax
    c871:	48 b9 f4 97 6a 2b 7b 	movabs $0x9350c07b2b6a97f4,%rcx
    c878:	c0 50 93 
    c87b:	48 21 c8             	and    %rcx,%rax
    c87e:	48 31 f0             	xor    %rsi,%rax
    c881:	48 39 c2             	cmp    %rax,%rdx
    c884:	0f 96 c0             	setbe  %al
    c887:	0f b6 c0             	movzbl %al,%eax
    c88a:	89 85 44 ff ff ff    	mov    %eax,-0xbc(%rbp)
    c890:	48 8b 05 c9 d7 00 00 	mov    0xd7c9(%rip),%rax        # 1a060 <g_115>
    c897:	48 8b 5d e8          	mov    -0x18(%rbp),%rbx
    c89b:	64 48 33 1c 25 28 00 	xor    %fs:0x28,%rbx
    c8a2:	00 00 
    c8a4:	74 05                	je     c8ab <func_63+0x1a8>
    c8a6:	e8 c5 97 ff ff       	callq  6070 <__stack_chk_fail@plt>
    c8ab:	48 81 c4 d8 00 00 00 	add    $0xd8,%rsp
    c8b2:	5b                   	pop    %rbx
    c8b3:	5d                   	pop    %rbp
    c8b4:	c3                   	retq   

000000000000c8b5 <func_68>:
    c8b5:	f3 0f 1e fa          	endbr64 
    c8b9:	55                   	push   %rbp
    c8ba:	48 89 e5             	mov    %rsp,%rbp
    c8bd:	89 f8                	mov    %edi,%eax
    c8bf:	40 88 75 ef          	mov    %sil,-0x11(%rbp)
    c8c3:	48 89 55 e0          	mov    %rdx,-0x20(%rbp)
    c8c7:	89 4d e8             	mov    %ecx,-0x18(%rbp)
    c8ca:	44 89 45 dc          	mov    %r8d,-0x24(%rbp)
    c8ce:	88 45 ec             	mov    %al,-0x14(%rbp)
    c8d1:	48 8d 05 70 b7 00 00 	lea    0xb770(%rip),%rax        # 18048 <g_7+0x18>
    c8d8:	48 89 45 f8          	mov    %rax,-0x8(%rbp)
    c8dc:	48 8b 45 f8          	mov    -0x8(%rbp),%rax
    c8e0:	5d                   	pop    %rbp
    c8e1:	c3                   	retq   

000000000000c8e2 <func_78>:
    c8e2:	f3 0f 1e fa          	endbr64 
    c8e6:	55                   	push   %rbp
    c8e7:	48 89 e5             	mov    %rsp,%rbp
    c8ea:	48 83 ec 30          	sub    $0x30,%rsp
    c8ee:	89 7d ec             	mov    %edi,-0x14(%rbp)
    c8f1:	48 89 75 e0          	mov    %rsi,-0x20(%rbp)
    c8f5:	89 d0                	mov    %edx,%eax
    c8f7:	48 89 4d d8          	mov    %rcx,-0x28(%rbp)
    c8fb:	88 45 e8             	mov    %al,-0x18(%rbp)
    c8fe:	64 48 8b 04 25 28 00 	mov    %fs:0x28,%rax
    c905:	00 00 
    c907:	48 89 45 f8          	mov    %rax,-0x8(%rbp)
    c90b:	31 c0                	xor    %eax,%eax
    c90d:	48 b8 01 07 01 01 07 	movabs $0x701010701010701,%rax
    c914:	01 01 07 
    c917:	48 89 45 f0          	mov    %rax,-0x10(%rbp)
    c91b:	0f b6 45 f1          	movzbl -0xf(%rbp),%eax
    c91f:	0f b6 c0             	movzbl %al,%eax
    c922:	48 8b 55 f8          	mov    -0x8(%rbp),%rdx
    c926:	64 48 33 14 25 28 00 	xor    %fs:0x28,%rdx
    c92d:	00 00 
    c92f:	74 05                	je     c936 <func_78+0x54>
    c931:	e8 3a 97 ff ff       	callq  6070 <__stack_chk_fail@plt>
    c936:	c9                   	leaveq 
    c937:	c3                   	retq   

000000000000c938 <func_84>:
    c938:	f3 0f 1e fa          	endbr64 
    c93c:	55                   	push   %rbp
    c93d:	48 89 e5             	mov    %rsp,%rbp
    c940:	48 81 ec 80 02 00 00 	sub    $0x280,%rsp
    c947:	48 89 bd 88 fd ff ff 	mov    %rdi,-0x278(%rbp)
    c94e:	48 89 b5 80 fd ff ff 	mov    %rsi,-0x280(%rbp)
    c955:	64 48 8b 04 25 28 00 	mov    %fs:0x28,%rax
    c95c:	00 00 
    c95e:	48 89 45 f8          	mov    %rax,-0x8(%rbp)
    c962:	31 c0                	xor    %eax,%eax
    c964:	48 8d 05 d5 e6 00 00 	lea    0xe6d5(%rip),%rax        # 1b040 <g_89>
    c96b:	48 89 85 90 fd ff ff 	mov    %rax,-0x270(%rbp)
    c972:	48 8d 05 c7 e6 00 00 	lea    0xe6c7(%rip),%rax        # 1b040 <g_89>
    c979:	48 89 85 98 fd ff ff 	mov    %rax,-0x268(%rbp)
    c980:	48 c7 85 a0 fd ff ff 	movq   $0x0,-0x260(%rbp)
    c987:	00 00 00 00 
    c98b:	48 8d 05 ae e6 00 00 	lea    0xe6ae(%rip),%rax        # 1b040 <g_89>
    c992:	48 89 85 a8 fd ff ff 	mov    %rax,-0x258(%rbp)
    c999:	48 c7 85 b0 fd ff ff 	movq   $0x0,-0x250(%rbp)
    c9a0:	00 00 00 00 
    c9a4:	48 8d 05 95 e6 00 00 	lea    0xe695(%rip),%rax        # 1b040 <g_89>
    c9ab:	48 89 85 b8 fd ff ff 	mov    %rax,-0x248(%rbp)
    c9b2:	48 c7 85 c0 fd ff ff 	movq   $0x0,-0x240(%rbp)
    c9b9:	00 00 00 00 
    c9bd:	48 8d 05 e8 b6 00 00 	lea    0xb6e8(%rip),%rax        # 180ac <g_48>
    c9c4:	48 89 85 e0 fd ff ff 	mov    %rax,-0x220(%rbp)
    c9cb:	48 8d 05 6e e6 00 00 	lea    0xe66e(%rip),%rax        # 1b040 <g_89>
    c9d2:	48 89 85 e8 fd ff ff 	mov    %rax,-0x218(%rbp)
    c9d9:	48 8d 05 60 e6 00 00 	lea    0xe660(%rip),%rax        # 1b040 <g_89>
    c9e0:	48 89 85 f0 fd ff ff 	mov    %rax,-0x210(%rbp)
    c9e7:	48 8d 05 be b6 00 00 	lea    0xb6be(%rip),%rax        # 180ac <g_48>
    c9ee:	48 89 85 f8 fd ff ff 	mov    %rax,-0x208(%rbp)
    c9f5:	48 8d 05 44 e6 00 00 	lea    0xe644(%rip),%rax        # 1b040 <g_89>
    c9fc:	48 89 85 00 fe ff ff 	mov    %rax,-0x200(%rbp)
    ca03:	48 8d 05 36 e6 00 00 	lea    0xe636(%rip),%rax        # 1b040 <g_89>
    ca0a:	48 89 85 08 fe ff ff 	mov    %rax,-0x1f8(%rbp)
    ca11:	48 8d 05 94 b6 00 00 	lea    0xb694(%rip),%rax        # 180ac <g_48>
    ca18:	48 89 85 10 fe ff ff 	mov    %rax,-0x1f0(%rbp)
    ca1f:	48 8d 05 1a e6 00 00 	lea    0xe61a(%rip),%rax        # 1b040 <g_89>
    ca26:	48 89 85 18 fe ff ff 	mov    %rax,-0x1e8(%rbp)
    ca2d:	48 b8 54 72 e6 20 35 	movabs $0x46f0373520e67254,%rax
    ca34:	37 f0 46 
    ca37:	48 89 85 20 fe ff ff 	mov    %rax,-0x1e0(%rbp)
    ca3e:	48 89 85 28 fe ff ff 	mov    %rax,-0x1d8(%rbp)
    ca45:	48 89 85 30 fe ff ff 	mov    %rax,-0x1d0(%rbp)
    ca4c:	48 89 85 38 fe ff ff 	mov    %rax,-0x1c8(%rbp)
    ca53:	48 89 85 40 fe ff ff 	mov    %rax,-0x1c0(%rbp)
    ca5a:	48 89 85 48 fe ff ff 	mov    %rax,-0x1b8(%rbp)
    ca61:	48 89 85 50 fe ff ff 	mov    %rax,-0x1b0(%rbp)
    ca68:	48 89 85 58 fe ff ff 	mov    %rax,-0x1a8(%rbp)
    ca6f:	48 89 85 60 fe ff ff 	mov    %rax,-0x1a0(%rbp)
    ca76:	48 89 85 68 fe ff ff 	mov    %rax,-0x198(%rbp)
    ca7d:	48 89 85 70 fe ff ff 	mov    %rax,-0x190(%rbp)
    ca84:	48 89 85 78 fe ff ff 	mov    %rax,-0x188(%rbp)
    ca8b:	48 89 85 80 fe ff ff 	mov    %rax,-0x180(%rbp)
    ca92:	48 89 85 88 fe ff ff 	mov    %rax,-0x178(%rbp)
    ca99:	48 89 85 90 fe ff ff 	mov    %rax,-0x170(%rbp)
    caa0:	48 89 85 98 fe ff ff 	mov    %rax,-0x168(%rbp)
    caa7:	48 8d 85 a0 fe ff ff 	lea    -0x160(%rbp),%rax
    caae:	48 8d 15 ab d3 00 00 	lea    0xd3ab(%rip),%rdx        # 19e60 <g_1904+0xd70>
    cab5:	b9 2a 00 00 00       	mov    $0x2a,%ecx
    caba:	48 89 c7             	mov    %rax,%rdi
    cabd:	48 89 d6             	mov    %rdx,%rsi
    cac0:	f3 48 a5             	rep movsq %ds:(%rsi),%es:(%rdi)
    cac3:	48 c7 85 c8 fd ff ff 	movq   $0x0,-0x238(%rbp)
    caca:	00 00 00 00 
    cace:	48 8d 05 dd b5 00 00 	lea    0xb5dd(%rip),%rax        # 180b2 <g_97>
    cad5:	48 89 85 d0 fd ff ff 	mov    %rax,-0x230(%rbp)
    cadc:	48 c7 85 d8 fd ff ff 	movq   $0x0,-0x228(%rbp)
    cae3:	00 00 00 00 
    cae7:	48 8b 85 50 fe ff ff 	mov    -0x1b0(%rbp),%rax
    caee:	48 83 c0 01          	add    $0x1,%rax
    caf2:	48 89 85 50 fe ff ff 	mov    %rax,-0x1b0(%rbp)
    caf9:	48 8b 05 d0 d4 00 00 	mov    0xd4d0(%rip),%rax        # 19fd0 <g_104>
    cb00:	48 8b 55 b8          	mov    -0x48(%rbp),%rdx
    cb04:	48 89 10             	mov    %rdx,(%rax)
    cb07:	48 8b 45 a0          	mov    -0x60(%rbp),%rax
    cb0b:	48 85 c0             	test   %rax,%rax
    cb0e:	0f 95 c0             	setne  %al
    cb11:	0f b6 d0             	movzbl %al,%edx
    cb14:	0f b6 05 95 b5 00 00 	movzbl 0xb595(%rip),%eax        # 180b0 <g_61>
    cb1b:	84 c0                	test   %al,%al
    cb1d:	75 19                	jne    cb38 <func_84+0x200>
    cb1f:	48 8b 85 d0 fd ff ff 	mov    -0x230(%rbp),%rax
    cb26:	0f b7 00             	movzwl (%rax),%eax
    cb29:	83 c8 f7             	or     $0xfffffff7,%eax
    cb2c:	89 c1                	mov    %eax,%ecx
    cb2e:	48 8b 85 d0 fd ff ff 	mov    -0x230(%rbp),%rax
    cb35:	66 89 08             	mov    %cx,(%rax)
    cb38:	b8 01 00 00 00       	mov    $0x1,%eax
    cb3d:	98                   	cwtl   
    cb3e:	89 d6                	mov    %edx,%esi
    cb40:	89 c7                	mov    %eax,%edi
    cb42:	e8 8c 98 ff ff       	callq  63d3 <safe_sub_func_int16_t_s_s>
    cb47:	0f bf d0             	movswl %ax,%edx
    cb4a:	48 8b 85 b8 fd ff ff 	mov    -0x248(%rbp),%rax
    cb51:	89 10                	mov    %edx,(%rax)
    cb53:	48 8b 85 d8 fd ff ff 	mov    -0x228(%rbp),%rax
    cb5a:	48 8b 4d f8          	mov    -0x8(%rbp),%rcx
    cb5e:	64 48 33 0c 25 28 00 	xor    %fs:0x28,%rcx
    cb65:	00 00 
    cb67:	74 05                	je     cb6e <func_84+0x236>
    cb69:	e8 02 95 ff ff       	callq  6070 <__stack_chk_fail@plt>
    cb6e:	c9                   	leaveq 
    cb6f:	c3                   	retq   

000000000000cb70 <main>:
    cb70:	f3 0f 1e fa          	endbr64 
    cb74:	55                   	push   %rbp
    cb75:	48 89 e5             	mov    %rsp,%rbp
    cb78:	48 83 ec 20          	sub    $0x20,%rsp
    cb7c:	89 7d ec             	mov    %edi,-0x14(%rbp)
    cb7f:	48 89 75 e0          	mov    %rsi,-0x20(%rbp)
    cb83:	c7 45 fc 00 00 00 00 	movl   $0x0,-0x4(%rbp)
    cb8a:	83 7d ec 02          	cmpl   $0x2,-0x14(%rbp)
    cb8e:	75 25                	jne    cbb5 <main+0x45>
    cb90:	48 8b 45 e0          	mov    -0x20(%rbp),%rax
    cb94:	48 83 c0 08          	add    $0x8,%rax
    cb98:	48 8b 00             	mov    (%rax),%rax
    cb9b:	48 8d 35 de 69 00 00 	lea    0x69de(%rip),%rsi        # 13580 <g_1899+0x500>
    cba2:	48 89 c7             	mov    %rax,%rdi
    cba5:	e8 e6 94 ff ff       	callq  6090 <strcmp@plt>
    cbaa:	85 c0                	test   %eax,%eax
    cbac:	75 07                	jne    cbb5 <main+0x45>
    cbae:	c7 45 fc 01 00 00 00 	movl   $0x1,-0x4(%rbp)
    cbb5:	e8 cf 95 ff ff       	callq  6189 <platform_main_begin>
    cbba:	e8 d9 a9 ff ff       	callq  7598 <crc32_gentab>
    cbbf:	e8 f1 ab ff ff       	callq  77b5 <func_1>
    cbc4:	8b 05 5a b4 00 00    	mov    0xb45a(%rip),%eax        # 18024 <g_2>
    cbca:	48 98                	cltq   
    cbcc:	8b 55 fc             	mov    -0x4(%rbp),%edx
    cbcf:	48 8d 35 ac 69 00 00 	lea    0x69ac(%rip),%rsi        # 13582 <g_1899+0x502>
    cbd6:	48 89 c7             	mov    %rax,%rdi
    cbd9:	e8 15 ab ff ff       	callq  76f3 <transparent_crc>
    cbde:	c7 45 f0 00 00 00 00 	movl   $0x0,-0x10(%rbp)
    cbe5:	eb 4d                	jmp    cc34 <main+0xc4>
    cbe7:	8b 45 f0             	mov    -0x10(%rbp),%eax
    cbea:	48 98                	cltq   
    cbec:	48 8d 14 85 00 00 00 	lea    0x0(,%rax,4),%rdx
    cbf3:	00 
    cbf4:	48 8d 05 35 e4 00 00 	lea    0xe435(%rip),%rax        # 1b030 <g_5>
    cbfb:	8b 04 02             	mov    (%rdx,%rax,1),%eax
    cbfe:	89 c1                	mov    %eax,%ecx
    cc00:	8b 45 fc             	mov    -0x4(%rbp),%eax
    cc03:	89 c2                	mov    %eax,%edx
    cc05:	48 8d 35 7a 69 00 00 	lea    0x697a(%rip),%rsi        # 13586 <g_1899+0x506>
    cc0c:	48 89 cf             	mov    %rcx,%rdi
    cc0f:	e8 df aa ff ff       	callq  76f3 <transparent_crc>
    cc14:	83 7d fc 00          	cmpl   $0x0,-0x4(%rbp)
    cc18:	74 16                	je     cc30 <main+0xc0>
    cc1a:	8b 45 f0             	mov    -0x10(%rbp),%eax
    cc1d:	89 c6                	mov    %eax,%esi
    cc1f:	48 8d 3d 67 69 00 00 	lea    0x6967(%rip),%rdi        # 1358d <g_1899+0x50d>
    cc26:	b8 00 00 00 00       	mov    $0x0,%eax
    cc2b:	e8 50 94 ff ff       	callq  6080 <printf@plt>
    cc30:	83 45 f0 01          	addl   $0x1,-0x10(%rbp)
    cc34:	83 7d f0 03          	cmpl   $0x3,-0x10(%rbp)
    cc38:	7e ad                	jle    cbe7 <main+0x77>
    cc3a:	8b 05 e8 b3 00 00    	mov    0xb3e8(%rip),%eax        # 18028 <g_6>
    cc40:	48 98                	cltq   
    cc42:	8b 55 fc             	mov    -0x4(%rbp),%edx
    cc45:	48 8d 35 4f 69 00 00 	lea    0x694f(%rip),%rsi        # 1359b <g_1899+0x51b>
    cc4c:	48 89 c7             	mov    %rax,%rdi
    cc4f:	e8 9f aa ff ff       	callq  76f3 <transparent_crc>
    cc54:	c7 45 f0 00 00 00 00 	movl   $0x0,-0x10(%rbp)
    cc5b:	eb 4b                	jmp    cca8 <main+0x138>
    cc5d:	8b 45 f0             	mov    -0x10(%rbp),%eax
    cc60:	48 98                	cltq   
    cc62:	48 8d 14 85 00 00 00 	lea    0x0(,%rax,4),%rdx
    cc69:	00 
    cc6a:	48 8d 05 bf b3 00 00 	lea    0xb3bf(%rip),%rax        # 18030 <g_7>
    cc71:	8b 04 02             	mov    (%rdx,%rax,1),%eax
    cc74:	48 98                	cltq   
    cc76:	8b 55 fc             	mov    -0x4(%rbp),%edx
    cc79:	48 8d 35 1f 69 00 00 	lea    0x691f(%rip),%rsi        # 1359f <g_1899+0x51f>
    cc80:	48 89 c7             	mov    %rax,%rdi
    cc83:	e8 6b aa ff ff       	callq  76f3 <transparent_crc>
    cc88:	83 7d fc 00          	cmpl   $0x0,-0x4(%rbp)
    cc8c:	74 16                	je     cca4 <main+0x134>
    cc8e:	8b 45 f0             	mov    -0x10(%rbp),%eax
    cc91:	89 c6                	mov    %eax,%esi
    cc93:	48 8d 3d f3 68 00 00 	lea    0x68f3(%rip),%rdi        # 1358d <g_1899+0x50d>
    cc9a:	b8 00 00 00 00       	mov    $0x0,%eax
    cc9f:	e8 dc 93 ff ff       	callq  6080 <printf@plt>
    cca4:	83 45 f0 01          	addl   $0x1,-0x10(%rbp)
    cca8:	83 7d f0 06          	cmpl   $0x6,-0x10(%rbp)
    ccac:	7e af                	jle    cc5d <main+0xed>
    ccae:	8b 05 98 b3 00 00    	mov    0xb398(%rip),%eax        # 1804c <g_8>
    ccb4:	48 98                	cltq   
    ccb6:	8b 55 fc             	mov    -0x4(%rbp),%edx
    ccb9:	48 8d 35 e6 68 00 00 	lea    0x68e6(%rip),%rsi        # 135a6 <g_1899+0x526>
    ccc0:	48 89 c7             	mov    %rax,%rdi
    ccc3:	e8 2b aa ff ff       	callq  76f3 <transparent_crc>
    ccc8:	c7 45 f0 00 00 00 00 	movl   $0x0,-0x10(%rbp)
    cccf:	eb 6d                	jmp    cd3e <main+0x1ce>
    ccd1:	c7 45 f4 00 00 00 00 	movl   $0x0,-0xc(%rbp)
    ccd8:	eb 5a                	jmp    cd34 <main+0x1c4>
    ccda:	8b 45 f4             	mov    -0xc(%rbp),%eax
    ccdd:	48 98                	cltq   
    ccdf:	8b 55 f0             	mov    -0x10(%rbp),%edx
    cce2:	48 63 d2             	movslq %edx,%rdx
    cce5:	48 01 d2             	add    %rdx,%rdx
    cce8:	48 01 d0             	add    %rdx,%rax
    cceb:	48 8d 14 85 00 00 00 	lea    0x0(,%rax,4),%rdx
    ccf2:	00 
    ccf3:	48 8d 05 66 b3 00 00 	lea    0xb366(%rip),%rax        # 18060 <g_11>
    ccfa:	8b 04 02             	mov    (%rdx,%rax,1),%eax
    ccfd:	48 98                	cltq   
    ccff:	8b 55 fc             	mov    -0x4(%rbp),%edx
    cd02:	48 8d 35 a1 68 00 00 	lea    0x68a1(%rip),%rsi        # 135aa <g_1899+0x52a>
    cd09:	48 89 c7             	mov    %rax,%rdi
    cd0c:	e8 e2 a9 ff ff       	callq  76f3 <transparent_crc>
    cd11:	83 7d fc 00          	cmpl   $0x0,-0x4(%rbp)
    cd15:	74 19                	je     cd30 <main+0x1c0>
    cd17:	8b 55 f4             	mov    -0xc(%rbp),%edx
    cd1a:	8b 45 f0             	mov    -0x10(%rbp),%eax
    cd1d:	89 c6                	mov    %eax,%esi
    cd1f:	48 8d 3d 8f 68 00 00 	lea    0x688f(%rip),%rdi        # 135b5 <g_1899+0x535>
    cd26:	b8 00 00 00 00       	mov    $0x0,%eax
    cd2b:	e8 50 93 ff ff       	callq  6080 <printf@plt>
    cd30:	83 45 f4 01          	addl   $0x1,-0xc(%rbp)
    cd34:	83 7d f4 01          	cmpl   $0x1,-0xc(%rbp)
    cd38:	7e a0                	jle    ccda <main+0x16a>
    cd3a:	83 45 f0 01          	addl   $0x1,-0x10(%rbp)
    cd3e:	83 7d f0 06          	cmpl   $0x6,-0x10(%rbp)
    cd42:	7e 8d                	jle    ccd1 <main+0x161>
    cd44:	8b 05 4e b3 00 00    	mov    0xb34e(%rip),%eax        # 18098 <g_17>
    cd4a:	89 c1                	mov    %eax,%ecx
    cd4c:	8b 45 fc             	mov    -0x4(%rbp),%eax
    cd4f:	89 c2                	mov    %eax,%edx
    cd51:	48 8d 35 6f 68 00 00 	lea    0x686f(%rip),%rsi        # 135c7 <g_1899+0x547>
    cd58:	48 89 cf             	mov    %rcx,%rdi
    cd5b:	e8 93 a9 ff ff       	callq  76f3 <transparent_crc>
    cd60:	0f b6 05 39 b3 00 00 	movzbl 0xb339(%rip),%eax        # 180a0 <g_28>
    cd67:	c1 e0 05             	shl    $0x5,%eax
    cd6a:	c0 f8 05             	sar    $0x5,%al
    cd6d:	48 0f be c0          	movsbq %al,%rax
    cd71:	8b 55 fc             	mov    -0x4(%rbp),%edx
    cd74:	48 8d 35 51 68 00 00 	lea    0x6851(%rip),%rsi        # 135cc <g_1899+0x54c>
    cd7b:	48 89 c7             	mov    %rax,%rdi
    cd7e:	e8 70 a9 ff ff       	callq  76f3 <transparent_crc>
    cd83:	0f b6 05 16 b3 00 00 	movzbl 0xb316(%rip),%eax        # 180a0 <g_28>
    cd8a:	c0 e8 03             	shr    $0x3,%al
    cd8d:	0f b6 c0             	movzbl %al,%eax
    cd90:	8b 55 fc             	mov    -0x4(%rbp),%edx
    cd93:	48 8d 35 3a 68 00 00 	lea    0x683a(%rip),%rsi        # 135d4 <g_1899+0x554>
    cd9a:	48 89 c7             	mov    %rax,%rdi
    cd9d:	e8 51 a9 ff ff       	callq  76f3 <transparent_crc>
    cda2:	8b 05 f8 b2 00 00    	mov    0xb2f8(%rip),%eax        # 180a0 <g_28>
    cda8:	c1 e0 0c             	shl    $0xc,%eax
    cdab:	c1 f8 14             	sar    $0x14,%eax
    cdae:	48 0f bf c0          	movswq %ax,%rax
    cdb2:	8b 55 fc             	mov    -0x4(%rbp),%edx
    cdb5:	48 8d 35 20 68 00 00 	lea    0x6820(%rip),%rsi        # 135dc <g_1899+0x55c>
    cdbc:	48 89 c7             	mov    %rax,%rdi
    cdbf:	e8 2f a9 ff ff       	callq  76f3 <transparent_crc>
    cdc4:	0f b7 05 d7 b2 00 00 	movzwl 0xb2d7(%rip),%eax        # 180a2 <g_28+0x2>
    cdcb:	66 c1 e8 04          	shr    $0x4,%ax
    cdcf:	66 25 ff 01          	and    $0x1ff,%ax
    cdd3:	0f b7 c0             	movzwl %ax,%eax
    cdd6:	8b 55 fc             	mov    -0x4(%rbp),%edx
    cdd9:	48 8d 35 04 68 00 00 	lea    0x6804(%rip),%rsi        # 135e4 <g_1899+0x564>
    cde0:	48 89 c7             	mov    %rax,%rdi
    cde3:	e8 0b a9 ff ff       	callq  76f3 <transparent_crc>
    cde8:	8b 05 b6 b2 00 00    	mov    0xb2b6(%rip),%eax        # 180a4 <g_28+0x4>
    cdee:	c1 e0 0c             	shl    $0xc,%eax
    cdf1:	c1 f8 0c             	sar    $0xc,%eax
    cdf4:	48 98                	cltq   
    cdf6:	8b 55 fc             	mov    -0x4(%rbp),%edx
    cdf9:	48 8d 35 ec 67 00 00 	lea    0x67ec(%rip),%rsi        # 135ec <g_1899+0x56c>
    ce00:	48 89 c7             	mov    %rax,%rdi
    ce03:	e8 eb a8 ff ff       	callq  76f3 <transparent_crc>
    ce08:	48 8b 05 91 b2 00 00 	mov    0xb291(%rip),%rax        # 180a0 <g_28>
    ce0f:	48 c1 e0 06          	shl    $0x6,%rax
    ce13:	48 c1 f8 3a          	sar    $0x3a,%rax
    ce17:	48 0f be c0          	movsbq %al,%rax
    ce1b:	8b 55 fc             	mov    -0x4(%rbp),%edx
    ce1e:	48 8d 35 cf 67 00 00 	lea    0x67cf(%rip),%rsi        # 135f4 <g_1899+0x574>
    ce25:	48 89 c7             	mov    %rax,%rdi
    ce28:	e8 c6 a8 ff ff       	callq  76f3 <transparent_crc>
    ce2d:	0f b7 05 74 b2 00 00 	movzwl 0xb274(%rip),%eax        # 180a8 <g_28+0x8>
    ce34:	c1 e0 04             	shl    $0x4,%eax
    ce37:	66 c1 f8 04          	sar    $0x4,%ax
    ce3b:	48 0f bf c0          	movswq %ax,%rax
    ce3f:	8b 55 fc             	mov    -0x4(%rbp),%edx
    ce42:	48 8d 35 b3 67 00 00 	lea    0x67b3(%rip),%rsi        # 135fc <g_1899+0x57c>
    ce49:	48 89 c7             	mov    %rax,%rdi
    ce4c:	e8 a2 a8 ff ff       	callq  76f3 <transparent_crc>
    ce51:	8b 05 51 b2 00 00    	mov    0xb251(%rip),%eax        # 180a8 <g_28+0x8>
    ce57:	c1 e0 0f             	shl    $0xf,%eax
    ce5a:	c1 f8 1b             	sar    $0x1b,%eax
    ce5d:	48 0f be c0          	movsbq %al,%rax
    ce61:	8b 55 fc             	mov    -0x4(%rbp),%edx
    ce64:	48 8d 35 99 67 00 00 	lea    0x6799(%rip),%rsi        # 13604 <g_1899+0x584>
    ce6b:	48 89 c7             	mov    %rax,%rdi
    ce6e:	e8 80 a8 ff ff       	callq  76f3 <transparent_crc>
    ce73:	8b 05 33 b2 00 00    	mov    0xb233(%rip),%eax        # 180ac <g_48>
    ce79:	48 98                	cltq   
    ce7b:	8b 55 fc             	mov    -0x4(%rbp),%edx
    ce7e:	48 8d 35 87 67 00 00 	lea    0x6787(%rip),%rsi        # 1360c <g_1899+0x58c>
    ce85:	48 89 c7             	mov    %rax,%rdi
    ce88:	e8 66 a8 ff ff       	callq  76f3 <transparent_crc>
    ce8d:	0f b6 05 1c b2 00 00 	movzbl 0xb21c(%rip),%eax        # 180b0 <g_61>
    ce94:	0f b6 c0             	movzbl %al,%eax
    ce97:	8b 55 fc             	mov    -0x4(%rbp),%edx
    ce9a:	48 8d 35 70 67 00 00 	lea    0x6770(%rip),%rsi        # 13611 <g_1899+0x591>
    cea1:	48 89 c7             	mov    %rax,%rdi
    cea4:	e8 4a a8 ff ff       	callq  76f3 <transparent_crc>
    cea9:	8b 05 91 e1 00 00    	mov    0xe191(%rip),%eax        # 1b040 <g_89>
    ceaf:	48 98                	cltq   
    ceb1:	8b 55 fc             	mov    -0x4(%rbp),%edx
    ceb4:	48 8d 35 5b 67 00 00 	lea    0x675b(%rip),%rsi        # 13616 <g_1899+0x596>
    cebb:	48 89 c7             	mov    %rax,%rdi
    cebe:	e8 30 a8 ff ff       	callq  76f3 <transparent_crc>
    cec3:	0f b7 05 e8 b1 00 00 	movzwl 0xb1e8(%rip),%eax        # 180b2 <g_97>
    ceca:	48 0f bf c0          	movswq %ax,%rax
    cece:	8b 55 fc             	mov    -0x4(%rbp),%edx
    ced1:	48 8d 35 43 67 00 00 	lea    0x6743(%rip),%rsi        # 1361b <g_1899+0x59b>
    ced8:	48 89 c7             	mov    %rax,%rdi
    cedb:	e8 13 a8 ff ff       	callq  76f3 <transparent_crc>
    cee0:	c7 45 f0 00 00 00 00 	movl   $0x0,-0x10(%rbp)
    cee7:	eb 45                	jmp    cf2e <main+0x3be>
    cee9:	8b 45 f0             	mov    -0x10(%rbp),%eax
    ceec:	48 98                	cltq   
    ceee:	48 8d 15 bf b1 00 00 	lea    0xb1bf(%rip),%rdx        # 180b4 <g_102>
    cef5:	0f b6 04 10          	movzbl (%rax,%rdx,1),%eax
    cef9:	0f b6 c0             	movzbl %al,%eax
    cefc:	8b 55 fc             	mov    -0x4(%rbp),%edx
    ceff:	48 8d 35 1a 67 00 00 	lea    0x671a(%rip),%rsi        # 13620 <g_1899+0x5a0>
    cf06:	48 89 c7             	mov    %rax,%rdi
    cf09:	e8 e5 a7 ff ff       	callq  76f3 <transparent_crc>
    cf0e:	83 7d fc 00          	cmpl   $0x0,-0x4(%rbp)
    cf12:	74 16                	je     cf2a <main+0x3ba>
    cf14:	8b 45 f0             	mov    -0x10(%rbp),%eax
    cf17:	89 c6                	mov    %eax,%esi
    cf19:	48 8d 3d 6d 66 00 00 	lea    0x666d(%rip),%rdi        # 1358d <g_1899+0x50d>
    cf20:	b8 00 00 00 00       	mov    $0x0,%eax
    cf25:	e8 56 91 ff ff       	callq  6080 <printf@plt>
    cf2a:	83 45 f0 01          	addl   $0x1,-0x10(%rbp)
    cf2e:	83 7d f0 03          	cmpl   $0x3,-0x10(%rbp)
    cf32:	7e b5                	jle    cee9 <main+0x379>
    cf34:	48 8b 05 85 b1 00 00 	mov    0xb185(%rip),%rax        # 180c0 <g_109>
    cf3b:	c1 e0 05             	shl    $0x5,%eax
    cf3e:	c1 f8 05             	sar    $0x5,%eax
    cf41:	48 98                	cltq   
    cf43:	8b 55 fc             	mov    -0x4(%rbp),%edx
    cf46:	48 8d 35 df 66 00 00 	lea    0x66df(%rip),%rsi        # 1362c <g_1899+0x5ac>
    cf4d:	48 89 c7             	mov    %rax,%rdi
    cf50:	e8 9e a7 ff ff       	callq  76f3 <transparent_crc>
    cf55:	8b 05 69 b1 00 00    	mov    0xb169(%rip),%eax        # 180c4 <g_109+0x4>
    cf5b:	89 c1                	mov    %eax,%ecx
    cf5d:	8b 45 fc             	mov    -0x4(%rbp),%eax
    cf60:	89 c2                	mov    %eax,%edx
    cf62:	48 8d 35 cf 66 00 00 	lea    0x66cf(%rip),%rsi        # 13638 <g_1899+0x5b8>
    cf69:	48 89 cf             	mov    %rcx,%rdi
    cf6c:	e8 82 a7 ff ff       	callq  76f3 <transparent_crc>
    cf71:	48 8b 05 50 b1 00 00 	mov    0xb150(%rip),%rax        # 180c8 <g_109+0x8>
    cf78:	c1 e0 02             	shl    $0x2,%eax
    cf7b:	c0 f8 02             	sar    $0x2,%al
    cf7e:	48 0f be c0          	movsbq %al,%rax
    cf82:	8b 55 fc             	mov    -0x4(%rbp),%edx
    cf85:	48 8d 35 b8 66 00 00 	lea    0x66b8(%rip),%rsi        # 13644 <g_1899+0x5c4>
    cf8c:	48 89 c7             	mov    %rax,%rdi
    cf8f:	e8 5f a7 ff ff       	callq  76f3 <transparent_crc>
    cf94:	0f b6 05 2e b1 00 00 	movzbl 0xb12e(%rip),%eax        # 180c9 <g_109+0x9>
    cf9b:	0f b6 c0             	movzbl %al,%eax
    cf9e:	8b 55 fc             	mov    -0x4(%rbp),%edx
    cfa1:	48 8d 35 a8 66 00 00 	lea    0x66a8(%rip),%rsi        # 13650 <g_1899+0x5d0>
    cfa8:	48 89 c7             	mov    %rax,%rdi
    cfab:	e8 43 a7 ff ff       	callq  76f3 <transparent_crc>
    cfb0:	48 8b 05 11 b1 00 00 	mov    0xb111(%rip),%rax        # 180c8 <g_109+0x8>
    cfb7:	48 c1 e8 10          	shr    $0x10,%rax
    cfbb:	25 ff ff ff 3f       	and    $0x3fffffff,%eax
    cfc0:	89 c1                	mov    %eax,%ecx
    cfc2:	8b 45 fc             	mov    -0x4(%rbp),%eax
    cfc5:	89 c2                	mov    %eax,%edx
    cfc7:	48 8d 35 8e 66 00 00 	lea    0x668e(%rip),%rsi        # 1365c <g_1899+0x5dc>
    cfce:	48 89 cf             	mov    %rcx,%rdi
    cfd1:	e8 1d a7 ff ff       	callq  76f3 <transparent_crc>
    cfd6:	48 8b 05 eb b0 00 00 	mov    0xb0eb(%rip),%rax        # 180c8 <g_109+0x8>
    cfdd:	48 c1 e8 2e          	shr    $0x2e,%rax
    cfe1:	66 25 ff 01          	and    $0x1ff,%ax
    cfe5:	0f b7 c0             	movzwl %ax,%eax
    cfe8:	8b 55 fc             	mov    -0x4(%rbp),%edx
    cfeb:	48 8d 35 76 66 00 00 	lea    0x6676(%rip),%rsi        # 13668 <g_1899+0x5e8>
    cff2:	48 89 c7             	mov    %rax,%rdi
    cff5:	e8 f9 a6 ff ff       	callq  76f3 <transparent_crc>
    cffa:	48 8b 05 c7 b0 00 00 	mov    0xb0c7(%rip),%rax        # 180c8 <g_109+0x8>
    d001:	48 c1 f8 37          	sar    $0x37,%rax
    d005:	48 0f bf c0          	movswq %ax,%rax
    d009:	8b 55 fc             	mov    -0x4(%rbp),%edx
    d00c:	48 8d 35 61 66 00 00 	lea    0x6661(%rip),%rsi        # 13674 <g_1899+0x5f4>
    d013:	48 89 c7             	mov    %rax,%rdi
    d016:	e8 d8 a6 ff ff       	callq  76f3 <transparent_crc>
    d01b:	48 8b 05 ae b0 00 00 	mov    0xb0ae(%rip),%rax        # 180d0 <g_109+0x10>
    d022:	25 ff ff ff 3f       	and    $0x3fffffff,%eax
    d027:	89 c1                	mov    %eax,%ecx
    d029:	8b 45 fc             	mov    -0x4(%rbp),%eax
    d02c:	89 c2                	mov    %eax,%edx
    d02e:	48 8d 35 4b 66 00 00 	lea    0x664b(%rip),%rsi        # 13680 <g_1899+0x600>
    d035:	48 89 cf             	mov    %rcx,%rdi
    d038:	e8 b6 a6 ff ff       	callq  76f3 <transparent_crc>
    d03d:	c7 45 f0 00 00 00 00 	movl   $0x0,-0x10(%rbp)
    d044:	e9 b1 00 00 00       	jmpq   d0fa <main+0x58a>
    d049:	c7 45 f4 00 00 00 00 	movl   $0x0,-0xc(%rbp)
    d050:	e9 97 00 00 00       	jmpq   d0ec <main+0x57c>
    d055:	8b 45 f4             	mov    -0xc(%rbp),%eax
    d058:	48 98                	cltq   
    d05a:	8b 55 f0             	mov    -0x10(%rbp),%edx
    d05d:	48 63 d2             	movslq %edx,%rdx
    d060:	48 c1 e2 03          	shl    $0x3,%rdx
    d064:	48 01 d0             	add    %rdx,%rax
    d067:	48 8d 14 c5 00 00 00 	lea    0x0(,%rax,8),%rdx
    d06e:	00 
    d06f:	48 8d 05 6a b0 00 00 	lea    0xb06a(%rip),%rax        # 180e0 <g_111>
    d076:	8b 04 02             	mov    (%rdx,%rax,1),%eax
    d079:	89 c1                	mov    %eax,%ecx
    d07b:	8b 45 fc             	mov    -0x4(%rbp),%eax
    d07e:	89 c2                	mov    %eax,%edx
    d080:	48 8d 35 05 66 00 00 	lea    0x6605(%rip),%rsi        # 1368c <g_1899+0x60c>
    d087:	48 89 cf             	mov    %rcx,%rdi
    d08a:	e8 64 a6 ff ff       	callq  76f3 <transparent_crc>
    d08f:	8b 45 f4             	mov    -0xc(%rbp),%eax
    d092:	48 98                	cltq   
    d094:	8b 55 f0             	mov    -0x10(%rbp),%edx
    d097:	48 63 d2             	movslq %edx,%rdx
    d09a:	48 c1 e2 03          	shl    $0x3,%rdx
    d09e:	48 01 d0             	add    %rdx,%rax
    d0a1:	48 8d 14 c5 00 00 00 	lea    0x0(,%rax,8),%rdx
    d0a8:	00 
    d0a9:	48 8d 05 34 b0 00 00 	lea    0xb034(%rip),%rax        # 180e4 <g_111+0x4>
    d0b0:	0f b6 04 02          	movzbl (%rdx,%rax,1),%eax
    d0b4:	0f b6 c0             	movzbl %al,%eax
    d0b7:	8b 55 fc             	mov    -0x4(%rbp),%edx
    d0ba:	48 8d 35 da 65 00 00 	lea    0x65da(%rip),%rsi        # 1369b <g_1899+0x61b>
    d0c1:	48 89 c7             	mov    %rax,%rdi
    d0c4:	e8 2a a6 ff ff       	callq  76f3 <transparent_crc>
    d0c9:	83 7d fc 00          	cmpl   $0x0,-0x4(%rbp)
    d0cd:	74 19                	je     d0e8 <main+0x578>
    d0cf:	8b 55 f4             	mov    -0xc(%rbp),%edx
    d0d2:	8b 45 f0             	mov    -0x10(%rbp),%eax
    d0d5:	89 c6                	mov    %eax,%esi
    d0d7:	48 8d 3d d7 64 00 00 	lea    0x64d7(%rip),%rdi        # 135b5 <g_1899+0x535>
    d0de:	b8 00 00 00 00       	mov    $0x0,%eax
    d0e3:	e8 98 8f ff ff       	callq  6080 <printf@plt>
    d0e8:	83 45 f4 01          	addl   $0x1,-0xc(%rbp)
    d0ec:	83 7d f4 07          	cmpl   $0x7,-0xc(%rbp)
    d0f0:	0f 8e 5f ff ff ff    	jle    d055 <main+0x4e5>
    d0f6:	83 45 f0 01          	addl   $0x1,-0x10(%rbp)
    d0fa:	83 7d f0 09          	cmpl   $0x9,-0x10(%rbp)
    d0fe:	0f 8e 45 ff ff ff    	jle    d049 <main+0x4d9>
    d104:	0f b6 05 55 b2 00 00 	movzbl 0xb255(%rip),%eax        # 18360 <g_133>
    d10b:	0f b6 c0             	movzbl %al,%eax
    d10e:	8b 55 fc             	mov    -0x4(%rbp),%edx
    d111:	48 8d 35 92 65 00 00 	lea    0x6592(%rip),%rsi        # 136aa <g_1899+0x62a>
    d118:	48 89 c7             	mov    %rax,%rdi
    d11b:	e8 d3 a5 ff ff       	callq  76f3 <transparent_crc>
    d120:	0f b6 05 3a b2 00 00 	movzbl 0xb23a(%rip),%eax        # 18361 <g_139>
    d127:	48 0f be c0          	movsbq %al,%rax
    d12b:	8b 55 fc             	mov    -0x4(%rbp),%edx
    d12e:	48 8d 35 7b 65 00 00 	lea    0x657b(%rip),%rsi        # 136b0 <g_1899+0x630>
    d135:	48 89 c7             	mov    %rax,%rdi
    d138:	e8 b6 a5 ff ff       	callq  76f3 <transparent_crc>
    d13d:	c7 45 f0 00 00 00 00 	movl   $0x0,-0x10(%rbp)
    d144:	eb 77                	jmp    d1bd <main+0x64d>
    d146:	c7 45 f4 00 00 00 00 	movl   $0x0,-0xc(%rbp)
    d14d:	eb 64                	jmp    d1b3 <main+0x643>
    d14f:	8b 45 f4             	mov    -0xc(%rbp),%eax
    d152:	48 63 c8             	movslq %eax,%rcx
    d155:	8b 45 f0             	mov    -0x10(%rbp),%eax
    d158:	48 63 d0             	movslq %eax,%rdx
    d15b:	48 89 d0             	mov    %rdx,%rax
    d15e:	48 c1 e0 03          	shl    $0x3,%rax
    d162:	48 29 d0             	sub    %rdx,%rax
    d165:	48 01 c8             	add    %rcx,%rax
    d168:	48 8d 14 85 00 00 00 	lea    0x0(,%rax,4),%rdx
    d16f:	00 
    d170:	48 8d 05 f9 b1 00 00 	lea    0xb1f9(%rip),%rax        # 18370 <g_149>
    d177:	8b 04 02             	mov    (%rdx,%rax,1),%eax
    d17a:	89 c1                	mov    %eax,%ecx
    d17c:	8b 45 fc             	mov    -0x4(%rbp),%eax
    d17f:	89 c2                	mov    %eax,%edx
    d181:	48 8d 35 2e 65 00 00 	lea    0x652e(%rip),%rsi        # 136b6 <g_1899+0x636>
    d188:	48 89 cf             	mov    %rcx,%rdi
    d18b:	e8 63 a5 ff ff       	callq  76f3 <transparent_crc>
    d190:	83 7d fc 00          	cmpl   $0x0,-0x4(%rbp)
    d194:	74 19                	je     d1af <main+0x63f>
    d196:	8b 55 f4             	mov    -0xc(%rbp),%edx
    d199:	8b 45 f0             	mov    -0x10(%rbp),%eax
    d19c:	89 c6                	mov    %eax,%esi
    d19e:	48 8d 3d 10 64 00 00 	lea    0x6410(%rip),%rdi        # 135b5 <g_1899+0x535>
    d1a5:	b8 00 00 00 00       	mov    $0x0,%eax
    d1aa:	e8 d1 8e ff ff       	callq  6080 <printf@plt>
    d1af:	83 45 f4 01          	addl   $0x1,-0xc(%rbp)
    d1b3:	83 7d f4 06          	cmpl   $0x6,-0xc(%rbp)
    d1b7:	7e 96                	jle    d14f <main+0x5df>
    d1b9:	83 45 f0 01          	addl   $0x1,-0x10(%rbp)
    d1bd:	83 7d f0 00          	cmpl   $0x0,-0x10(%rbp)
    d1c1:	7e 83                	jle    d146 <main+0x5d6>
    d1c3:	48 8b 05 d6 b1 00 00 	mov    0xb1d6(%rip),%rax        # 183a0 <g_190>
    d1ca:	c1 e0 05             	shl    $0x5,%eax
    d1cd:	c1 f8 05             	sar    $0x5,%eax
    d1d0:	48 98                	cltq   
    d1d2:	8b 55 fc             	mov    -0x4(%rbp),%edx
    d1d5:	48 8d 35 e6 64 00 00 	lea    0x64e6(%rip),%rsi        # 136c2 <g_1899+0x642>
    d1dc:	48 89 c7             	mov    %rax,%rdi
    d1df:	e8 0f a5 ff ff       	callq  76f3 <transparent_crc>
    d1e4:	8b 05 ba b1 00 00    	mov    0xb1ba(%rip),%eax        # 183a4 <g_190+0x4>
    d1ea:	89 c1                	mov    %eax,%ecx
    d1ec:	8b 45 fc             	mov    -0x4(%rbp),%eax
    d1ef:	89 c2                	mov    %eax,%edx
    d1f1:	48 8d 35 d9 64 00 00 	lea    0x64d9(%rip),%rsi        # 136d1 <g_1899+0x651>
    d1f8:	48 89 cf             	mov    %rcx,%rdi
    d1fb:	e8 f3 a4 ff ff       	callq  76f3 <transparent_crc>
    d200:	48 8b 05 a1 b1 00 00 	mov    0xb1a1(%rip),%rax        # 183a8 <g_190+0x8>
    d207:	c1 e0 02             	shl    $0x2,%eax
    d20a:	c0 f8 02             	sar    $0x2,%al
    d20d:	48 0f be c0          	movsbq %al,%rax
    d211:	8b 55 fc             	mov    -0x4(%rbp),%edx
    d214:	48 8d 35 c5 64 00 00 	lea    0x64c5(%rip),%rsi        # 136e0 <g_1899+0x660>
    d21b:	48 89 c7             	mov    %rax,%rdi
    d21e:	e8 d0 a4 ff ff       	callq  76f3 <transparent_crc>
    d223:	0f b6 05 7f b1 00 00 	movzbl 0xb17f(%rip),%eax        # 183a9 <g_190+0x9>
    d22a:	0f b6 c0             	movzbl %al,%eax
    d22d:	8b 55 fc             	mov    -0x4(%rbp),%edx
    d230:	48 8d 35 b8 64 00 00 	lea    0x64b8(%rip),%rsi        # 136ef <g_1899+0x66f>
    d237:	48 89 c7             	mov    %rax,%rdi
    d23a:	e8 b4 a4 ff ff       	callq  76f3 <transparent_crc>
    d23f:	48 8b 05 62 b1 00 00 	mov    0xb162(%rip),%rax        # 183a8 <g_190+0x8>
    d246:	48 c1 e8 10          	shr    $0x10,%rax
    d24a:	25 ff ff ff 3f       	and    $0x3fffffff,%eax
    d24f:	89 c1                	mov    %eax,%ecx
    d251:	8b 45 fc             	mov    -0x4(%rbp),%eax
    d254:	89 c2                	mov    %eax,%edx
    d256:	48 8d 35 a1 64 00 00 	lea    0x64a1(%rip),%rsi        # 136fe <g_1899+0x67e>
    d25d:	48 89 cf             	mov    %rcx,%rdi
    d260:	e8 8e a4 ff ff       	callq  76f3 <transparent_crc>
    d265:	48 8b 05 3c b1 00 00 	mov    0xb13c(%rip),%rax        # 183a8 <g_190+0x8>
    d26c:	48 c1 e8 2e          	shr    $0x2e,%rax
    d270:	66 25 ff 01          	and    $0x1ff,%ax
    d274:	0f b7 c0             	movzwl %ax,%eax
    d277:	8b 55 fc             	mov    -0x4(%rbp),%edx
    d27a:	48 8d 35 8c 64 00 00 	lea    0x648c(%rip),%rsi        # 1370d <g_1899+0x68d>
    d281:	48 89 c7             	mov    %rax,%rdi
    d284:	e8 6a a4 ff ff       	callq  76f3 <transparent_crc>
    d289:	48 8b 05 18 b1 00 00 	mov    0xb118(%rip),%rax        # 183a8 <g_190+0x8>
    d290:	48 c1 f8 37          	sar    $0x37,%rax
    d294:	48 0f bf c0          	movswq %ax,%rax
    d298:	8b 55 fc             	mov    -0x4(%rbp),%edx
    d29b:	48 8d 35 7a 64 00 00 	lea    0x647a(%rip),%rsi        # 1371c <g_1899+0x69c>
    d2a2:	48 89 c7             	mov    %rax,%rdi
    d2a5:	e8 49 a4 ff ff       	callq  76f3 <transparent_crc>
    d2aa:	48 8b 05 ff b0 00 00 	mov    0xb0ff(%rip),%rax        # 183b0 <g_190+0x10>
    d2b1:	25 ff ff ff 3f       	and    $0x3fffffff,%eax
    d2b6:	89 c1                	mov    %eax,%ecx
    d2b8:	8b 45 fc             	mov    -0x4(%rbp),%eax
    d2bb:	89 c2                	mov    %eax,%edx
    d2bd:	48 8d 35 67 64 00 00 	lea    0x6467(%rip),%rsi        # 1372b <g_1899+0x6ab>
    d2c4:	48 89 cf             	mov    %rcx,%rdi
    d2c7:	e8 27 a4 ff ff       	callq  76f3 <transparent_crc>
    d2cc:	0f b6 05 e1 b0 00 00 	movzbl 0xb0e1(%rip),%eax        # 183b4 <g_190+0x14>
    d2d3:	48 0f be c0          	movsbq %al,%rax
    d2d7:	8b 55 fc             	mov    -0x4(%rbp),%edx
    d2da:	48 8d 35 59 64 00 00 	lea    0x6459(%rip),%rsi        # 1373a <g_1899+0x6ba>
    d2e1:	48 89 c7             	mov    %rax,%rdi
    d2e4:	e8 0a a4 ff ff       	callq  76f3 <transparent_crc>
    d2e9:	48 8b 05 c0 b0 00 00 	mov    0xb0c0(%rip),%rax        # 183b0 <g_190+0x10>
    d2f0:	48 c1 e0 0f          	shl    $0xf,%rax
    d2f4:	48 c1 f8 37          	sar    $0x37,%rax
    d2f8:	48 0f bf c0          	movswq %ax,%rax
    d2fc:	8b 55 fc             	mov    -0x4(%rbp),%edx
    d2ff:	48 8d 35 3d 64 00 00 	lea    0x643d(%rip),%rsi        # 13743 <g_1899+0x6c3>
    d306:	48 89 c7             	mov    %rax,%rdi
    d309:	e8 e5 a3 ff ff       	callq  76f3 <transparent_crc>
    d30e:	0f b7 05 a3 b0 00 00 	movzwl 0xb0a3(%rip),%eax        # 183b8 <g_190+0x18>
    d315:	48 0f bf c0          	movswq %ax,%rax
    d319:	8b 55 fc             	mov    -0x4(%rbp),%edx
    d31c:	48 8d 35 29 64 00 00 	lea    0x6429(%rip),%rsi        # 1374c <g_1899+0x6cc>
    d323:	48 89 c7             	mov    %rax,%rdi
    d326:	e8 c8 a3 ff ff       	callq  76f3 <transparent_crc>
    d32b:	0f b6 05 88 b0 00 00 	movzbl 0xb088(%rip),%eax        # 183ba <g_190+0x1a>
    d332:	48 0f be c0          	movsbq %al,%rax
    d336:	8b 55 fc             	mov    -0x4(%rbp),%edx
    d339:	48 8d 35 15 64 00 00 	lea    0x6415(%rip),%rsi        # 13755 <g_1899+0x6d5>
    d340:	48 89 c7             	mov    %rax,%rdi
    d343:	e8 ab a3 ff ff       	callq  76f3 <transparent_crc>
    d348:	0f b6 05 6c b0 00 00 	movzbl 0xb06c(%rip),%eax        # 183bb <g_190+0x1b>
    d34f:	48 0f be c0          	movsbq %al,%rax
    d353:	8b 55 fc             	mov    -0x4(%rbp),%edx
    d356:	48 8d 35 01 64 00 00 	lea    0x6401(%rip),%rsi        # 1375e <g_1899+0x6de>
    d35d:	48 89 c7             	mov    %rax,%rdi
    d360:	e8 8e a3 ff ff       	callq  76f3 <transparent_crc>
    d365:	8b 05 51 b0 00 00    	mov    0xb051(%rip),%eax        # 183bc <g_190+0x1c>
    d36b:	89 c1                	mov    %eax,%ecx
    d36d:	8b 45 fc             	mov    -0x4(%rbp),%eax
    d370:	89 c2                	mov    %eax,%edx
    d372:	48 8d 35 ee 63 00 00 	lea    0x63ee(%rip),%rsi        # 13767 <g_1899+0x6e7>
    d379:	48 89 cf             	mov    %rcx,%rdi
    d37c:	e8 72 a3 ff ff       	callq  76f3 <transparent_crc>
    d381:	0f b7 05 38 b0 00 00 	movzwl 0xb038(%rip),%eax        # 183c0 <g_190+0x20>
    d388:	0f b7 c0             	movzwl %ax,%eax
    d38b:	8b 55 fc             	mov    -0x4(%rbp),%edx
    d38e:	48 8d 35 db 63 00 00 	lea    0x63db(%rip),%rsi        # 13770 <g_1899+0x6f0>
    d395:	48 89 c7             	mov    %rax,%rdi
    d398:	e8 56 a3 ff ff       	callq  76f3 <transparent_crc>
    d39d:	0f b7 05 1e b0 00 00 	movzwl 0xb01e(%rip),%eax        # 183c2 <g_190+0x22>
    d3a4:	48 0f bf c0          	movswq %ax,%rax
    d3a8:	8b 55 fc             	mov    -0x4(%rbp),%edx
    d3ab:	48 8d 35 c7 63 00 00 	lea    0x63c7(%rip),%rsi        # 13779 <g_1899+0x6f9>
    d3b2:	48 89 c7             	mov    %rax,%rdi
    d3b5:	e8 39 a3 ff ff       	callq  76f3 <transparent_crc>
    d3ba:	48 8b 05 ff af 00 00 	mov    0xafff(%rip),%rax        # 183c0 <g_190+0x20>
    d3c1:	48 c1 e0 0f          	shl    $0xf,%rax
    d3c5:	48 c1 f8 2f          	sar    $0x2f,%rax
    d3c9:	48 98                	cltq   
    d3cb:	8b 55 fc             	mov    -0x4(%rbp),%edx
    d3ce:	48 8d 35 ad 63 00 00 	lea    0x63ad(%rip),%rsi        # 13782 <g_1899+0x702>
    d3d5:	48 89 c7             	mov    %rax,%rdi
    d3d8:	e8 16 a3 ff ff       	callq  76f3 <transparent_crc>
    d3dd:	c7 45 f0 00 00 00 00 	movl   $0x0,-0x10(%rbp)
    d3e4:	e9 fb 00 00 00       	jmpq   d4e4 <main+0x974>
    d3e9:	c7 45 f4 00 00 00 00 	movl   $0x0,-0xc(%rbp)
    d3f0:	e9 e1 00 00 00       	jmpq   d4d6 <main+0x966>
    d3f5:	8b 45 f4             	mov    -0xc(%rbp),%eax
    d3f8:	48 63 c8             	movslq %eax,%rcx
    d3fb:	8b 45 f0             	mov    -0x10(%rbp),%eax
    d3fe:	48 63 d0             	movslq %eax,%rdx
    d401:	48 89 d0             	mov    %rdx,%rax
    d404:	48 01 c0             	add    %rax,%rax
    d407:	48 01 d0             	add    %rdx,%rax
    d40a:	48 01 c8             	add    %rcx,%rax
    d40d:	48 8d 14 c5 00 00 00 	lea    0x0(,%rax,8),%rdx
    d414:	00 
    d415:	48 8d 05 c4 af 00 00 	lea    0xafc4(%rip),%rax        # 183e0 <g_191>
    d41c:	8b 04 02             	mov    (%rdx,%rax,1),%eax
    d41f:	89 c1                	mov    %eax,%ecx
    d421:	8b 45 fc             	mov    -0x4(%rbp),%eax
    d424:	89 c2                	mov    %eax,%edx
    d426:	48 8d 35 5e 63 00 00 	lea    0x635e(%rip),%rsi        # 1378b <g_1899+0x70b>
    d42d:	48 89 cf             	mov    %rcx,%rdi
    d430:	e8 be a2 ff ff       	callq  76f3 <transparent_crc>
    d435:	8b 45 f4             	mov    -0xc(%rbp),%eax
    d438:	48 63 c8             	movslq %eax,%rcx
    d43b:	8b 45 f0             	mov    -0x10(%rbp),%eax
    d43e:	48 63 d0             	movslq %eax,%rdx
    d441:	48 89 d0             	mov    %rdx,%rax
    d444:	48 01 c0             	add    %rax,%rax
    d447:	48 01 d0             	add    %rdx,%rax
    d44a:	48 01 c8             	add    %rcx,%rax
    d44d:	48 8d 14 c5 00 00 00 	lea    0x0(,%rax,8),%rdx
    d454:	00 
    d455:	48 8d 05 84 af 00 00 	lea    0xaf84(%rip),%rax        # 183e0 <g_191>
    d45c:	0f b7 04 02          	movzwl (%rdx,%rax,1),%eax
    d460:	0f b7 c0             	movzwl %ax,%eax
    d463:	8b 55 fc             	mov    -0x4(%rbp),%edx
    d466:	48 8d 35 2d 63 00 00 	lea    0x632d(%rip),%rsi        # 1379a <g_1899+0x71a>
    d46d:	48 89 c7             	mov    %rax,%rdi
    d470:	e8 7e a2 ff ff       	callq  76f3 <transparent_crc>
    d475:	8b 45 f4             	mov    -0xc(%rbp),%eax
    d478:	48 63 c8             	movslq %eax,%rcx
    d47b:	8b 45 f0             	mov    -0x10(%rbp),%eax
    d47e:	48 63 d0             	movslq %eax,%rdx
    d481:	48 89 d0             	mov    %rdx,%rax
    d484:	48 01 c0             	add    %rax,%rax
    d487:	48 01 d0             	add    %rdx,%rax
    d48a:	48 01 c8             	add    %rcx,%rax
    d48d:	48 8d 14 c5 00 00 00 	lea    0x0(,%rax,8),%rdx
    d494:	00 
    d495:	48 8d 05 44 af 00 00 	lea    0xaf44(%rip),%rax        # 183e0 <g_191>
    d49c:	8b 04 02             	mov    (%rdx,%rax,1),%eax
    d49f:	48 98                	cltq   
    d4a1:	8b 55 fc             	mov    -0x4(%rbp),%edx
    d4a4:	48 8d 35 fe 62 00 00 	lea    0x62fe(%rip),%rsi        # 137a9 <g_1899+0x729>
    d4ab:	48 89 c7             	mov    %rax,%rdi
    d4ae:	e8 40 a2 ff ff       	callq  76f3 <transparent_crc>
    d4b3:	83 7d fc 00          	cmpl   $0x0,-0x4(%rbp)
    d4b7:	74 19                	je     d4d2 <main+0x962>
    d4b9:	8b 55 f4             	mov    -0xc(%rbp),%edx
    d4bc:	8b 45 f0             	mov    -0x10(%rbp),%eax
    d4bf:	89 c6                	mov    %eax,%esi
    d4c1:	48 8d 3d ed 60 00 00 	lea    0x60ed(%rip),%rdi        # 135b5 <g_1899+0x535>
    d4c8:	b8 00 00 00 00       	mov    $0x0,%eax
    d4cd:	e8 ae 8b ff ff       	callq  6080 <printf@plt>
    d4d2:	83 45 f4 01          	addl   $0x1,-0xc(%rbp)
    d4d6:	83 7d f4 02          	cmpl   $0x2,-0xc(%rbp)
    d4da:	0f 8e 15 ff ff ff    	jle    d3f5 <main+0x885>
    d4e0:	83 45 f0 01          	addl   $0x1,-0x10(%rbp)
    d4e4:	83 7d f0 05          	cmpl   $0x5,-0x10(%rbp)
    d4e8:	0f 8e fb fe ff ff    	jle    d3e9 <main+0x879>
    d4ee:	48 8b 05 8b af 00 00 	mov    0xaf8b(%rip),%rax        # 18480 <g_203>
    d4f5:	c1 e0 05             	shl    $0x5,%eax
    d4f8:	c1 f8 05             	sar    $0x5,%eax
    d4fb:	48 98                	cltq   
    d4fd:	8b 55 fc             	mov    -0x4(%rbp),%edx
    d500:	48 8d 35 b1 62 00 00 	lea    0x62b1(%rip),%rsi        # 137b8 <g_1899+0x738>
    d507:	48 89 c7             	mov    %rax,%rdi
    d50a:	e8 e4 a1 ff ff       	callq  76f3 <transparent_crc>
    d50f:	8b 05 6f af 00 00    	mov    0xaf6f(%rip),%eax        # 18484 <g_203+0x4>
    d515:	89 c1                	mov    %eax,%ecx
    d517:	8b 45 fc             	mov    -0x4(%rbp),%eax
    d51a:	89 c2                	mov    %eax,%edx
    d51c:	48 8d 35 a4 62 00 00 	lea    0x62a4(%rip),%rsi        # 137c7 <g_1899+0x747>
    d523:	48 89 cf             	mov    %rcx,%rdi
    d526:	e8 c8 a1 ff ff       	callq  76f3 <transparent_crc>
    d52b:	48 8b 05 56 af 00 00 	mov    0xaf56(%rip),%rax        # 18488 <g_203+0x8>
    d532:	c1 e0 02             	shl    $0x2,%eax
    d535:	c0 f8 02             	sar    $0x2,%al
    d538:	48 0f be c0          	movsbq %al,%rax
    d53c:	8b 55 fc             	mov    -0x4(%rbp),%edx
    d53f:	48 8d 35 90 62 00 00 	lea    0x6290(%rip),%rsi        # 137d6 <g_1899+0x756>
    d546:	48 89 c7             	mov    %rax,%rdi
    d549:	e8 a5 a1 ff ff       	callq  76f3 <transparent_crc>
    d54e:	0f b6 05 34 af 00 00 	movzbl 0xaf34(%rip),%eax        # 18489 <g_203+0x9>
    d555:	0f b6 c0             	movzbl %al,%eax
    d558:	8b 55 fc             	mov    -0x4(%rbp),%edx
    d55b:	48 8d 35 83 62 00 00 	lea    0x6283(%rip),%rsi        # 137e5 <g_1899+0x765>
    d562:	48 89 c7             	mov    %rax,%rdi
    d565:	e8 89 a1 ff ff       	callq  76f3 <transparent_crc>
    d56a:	48 8b 05 17 af 00 00 	mov    0xaf17(%rip),%rax        # 18488 <g_203+0x8>
    d571:	48 c1 e8 10          	shr    $0x10,%rax
    d575:	25 ff ff ff 3f       	and    $0x3fffffff,%eax
    d57a:	89 c1                	mov    %eax,%ecx
    d57c:	8b 45 fc             	mov    -0x4(%rbp),%eax
    d57f:	89 c2                	mov    %eax,%edx
    d581:	48 8d 35 6c 62 00 00 	lea    0x626c(%rip),%rsi        # 137f4 <g_1899+0x774>
    d588:	48 89 cf             	mov    %rcx,%rdi
    d58b:	e8 63 a1 ff ff       	callq  76f3 <transparent_crc>
    d590:	48 8b 05 f1 ae 00 00 	mov    0xaef1(%rip),%rax        # 18488 <g_203+0x8>
    d597:	48 c1 e8 2e          	shr    $0x2e,%rax
    d59b:	66 25 ff 01          	and    $0x1ff,%ax
    d59f:	0f b7 c0             	movzwl %ax,%eax
    d5a2:	8b 55 fc             	mov    -0x4(%rbp),%edx
    d5a5:	48 8d 35 57 62 00 00 	lea    0x6257(%rip),%rsi        # 13803 <g_1899+0x783>
    d5ac:	48 89 c7             	mov    %rax,%rdi
    d5af:	e8 3f a1 ff ff       	callq  76f3 <transparent_crc>
    d5b4:	48 8b 05 cd ae 00 00 	mov    0xaecd(%rip),%rax        # 18488 <g_203+0x8>
    d5bb:	48 c1 f8 37          	sar    $0x37,%rax
    d5bf:	48 0f bf c0          	movswq %ax,%rax
    d5c3:	8b 55 fc             	mov    -0x4(%rbp),%edx
    d5c6:	48 8d 35 45 62 00 00 	lea    0x6245(%rip),%rsi        # 13812 <g_1899+0x792>
    d5cd:	48 89 c7             	mov    %rax,%rdi
    d5d0:	e8 1e a1 ff ff       	callq  76f3 <transparent_crc>
    d5d5:	48 8b 05 b4 ae 00 00 	mov    0xaeb4(%rip),%rax        # 18490 <g_203+0x10>
    d5dc:	25 ff ff ff 3f       	and    $0x3fffffff,%eax
    d5e1:	89 c1                	mov    %eax,%ecx
    d5e3:	8b 45 fc             	mov    -0x4(%rbp),%eax
    d5e6:	89 c2                	mov    %eax,%edx
    d5e8:	48 8d 35 32 62 00 00 	lea    0x6232(%rip),%rsi        # 13821 <g_1899+0x7a1>
    d5ef:	48 89 cf             	mov    %rcx,%rdi
    d5f2:	e8 fc a0 ff ff       	callq  76f3 <transparent_crc>
    d5f7:	0f b6 05 96 ae 00 00 	movzbl 0xae96(%rip),%eax        # 18494 <g_203+0x14>
    d5fe:	48 0f be c0          	movsbq %al,%rax
    d602:	8b 55 fc             	mov    -0x4(%rbp),%edx
    d605:	48 8d 35 24 62 00 00 	lea    0x6224(%rip),%rsi        # 13830 <g_1899+0x7b0>
    d60c:	48 89 c7             	mov    %rax,%rdi
    d60f:	e8 df a0 ff ff       	callq  76f3 <transparent_crc>
    d614:	48 8b 05 75 ae 00 00 	mov    0xae75(%rip),%rax        # 18490 <g_203+0x10>
    d61b:	48 c1 e0 0f          	shl    $0xf,%rax
    d61f:	48 c1 f8 37          	sar    $0x37,%rax
    d623:	48 0f bf c0          	movswq %ax,%rax
    d627:	8b 55 fc             	mov    -0x4(%rbp),%edx
    d62a:	48 8d 35 08 62 00 00 	lea    0x6208(%rip),%rsi        # 13839 <g_1899+0x7b9>
    d631:	48 89 c7             	mov    %rax,%rdi
    d634:	e8 ba a0 ff ff       	callq  76f3 <transparent_crc>
    d639:	0f b7 05 58 ae 00 00 	movzwl 0xae58(%rip),%eax        # 18498 <g_203+0x18>
    d640:	48 0f bf c0          	movswq %ax,%rax
    d644:	8b 55 fc             	mov    -0x4(%rbp),%edx
    d647:	48 8d 35 f4 61 00 00 	lea    0x61f4(%rip),%rsi        # 13842 <g_1899+0x7c2>
    d64e:	48 89 c7             	mov    %rax,%rdi
    d651:	e8 9d a0 ff ff       	callq  76f3 <transparent_crc>
    d656:	0f b6 05 3d ae 00 00 	movzbl 0xae3d(%rip),%eax        # 1849a <g_203+0x1a>
    d65d:	48 0f be c0          	movsbq %al,%rax
    d661:	8b 55 fc             	mov    -0x4(%rbp),%edx
    d664:	48 8d 35 e0 61 00 00 	lea    0x61e0(%rip),%rsi        # 1384b <g_1899+0x7cb>
    d66b:	48 89 c7             	mov    %rax,%rdi
    d66e:	e8 80 a0 ff ff       	callq  76f3 <transparent_crc>
    d673:	0f b6 05 21 ae 00 00 	movzbl 0xae21(%rip),%eax        # 1849b <g_203+0x1b>
    d67a:	48 0f be c0          	movsbq %al,%rax
    d67e:	8b 55 fc             	mov    -0x4(%rbp),%edx
    d681:	48 8d 35 cc 61 00 00 	lea    0x61cc(%rip),%rsi        # 13854 <g_1899+0x7d4>
    d688:	48 89 c7             	mov    %rax,%rdi
    d68b:	e8 63 a0 ff ff       	callq  76f3 <transparent_crc>
    d690:	8b 05 06 ae 00 00    	mov    0xae06(%rip),%eax        # 1849c <g_203+0x1c>
    d696:	89 c1                	mov    %eax,%ecx
    d698:	8b 45 fc             	mov    -0x4(%rbp),%eax
    d69b:	89 c2                	mov    %eax,%edx
    d69d:	48 8d 35 b9 61 00 00 	lea    0x61b9(%rip),%rsi        # 1385d <g_1899+0x7dd>
    d6a4:	48 89 cf             	mov    %rcx,%rdi
    d6a7:	e8 47 a0 ff ff       	callq  76f3 <transparent_crc>
    d6ac:	0f b7 05 ed ad 00 00 	movzwl 0xaded(%rip),%eax        # 184a0 <g_203+0x20>
    d6b3:	0f b7 c0             	movzwl %ax,%eax
    d6b6:	8b 55 fc             	mov    -0x4(%rbp),%edx
    d6b9:	48 8d 35 a6 61 00 00 	lea    0x61a6(%rip),%rsi        # 13866 <g_1899+0x7e6>
    d6c0:	48 89 c7             	mov    %rax,%rdi
    d6c3:	e8 2b a0 ff ff       	callq  76f3 <transparent_crc>
    d6c8:	0f b7 05 d3 ad 00 00 	movzwl 0xadd3(%rip),%eax        # 184a2 <g_203+0x22>
    d6cf:	48 0f bf c0          	movswq %ax,%rax
    d6d3:	8b 55 fc             	mov    -0x4(%rbp),%edx
    d6d6:	48 8d 35 92 61 00 00 	lea    0x6192(%rip),%rsi        # 1386f <g_1899+0x7ef>
    d6dd:	48 89 c7             	mov    %rax,%rdi
    d6e0:	e8 0e a0 ff ff       	callq  76f3 <transparent_crc>
    d6e5:	8b 05 b9 ad 00 00    	mov    0xadb9(%rip),%eax        # 184a4 <g_203+0x24>
    d6eb:	c1 e0 0f             	shl    $0xf,%eax
    d6ee:	c1 f8 0f             	sar    $0xf,%eax
    d6f1:	48 98                	cltq   
    d6f3:	8b 55 fc             	mov    -0x4(%rbp),%edx
    d6f6:	48 8d 35 7b 61 00 00 	lea    0x617b(%rip),%rsi        # 13878 <g_1899+0x7f8>
    d6fd:	48 89 c7             	mov    %rax,%rdi
    d700:	e8 ee 9f ff ff       	callq  76f3 <transparent_crc>
    d705:	c7 45 f0 00 00 00 00 	movl   $0x0,-0x10(%rbp)
    d70c:	eb 4f                	jmp    d75d <main+0xbed>
    d70e:	8b 45 f0             	mov    -0x10(%rbp),%eax
    d711:	48 98                	cltq   
    d713:	48 8d 14 c5 00 00 00 	lea    0x0(,%rax,8),%rdx
    d71a:	00 
    d71b:	48 8d 05 9e ad 00 00 	lea    0xad9e(%rip),%rax        # 184c0 <g_232>
    d722:	48 8b 04 02          	mov    (%rdx,%rax,1),%rax
    d726:	48 89 c1             	mov    %rax,%rcx
    d729:	8b 45 fc             	mov    -0x4(%rbp),%eax
    d72c:	89 c2                	mov    %eax,%edx
    d72e:	48 8d 35 4c 61 00 00 	lea    0x614c(%rip),%rsi        # 13881 <g_1899+0x801>
    d735:	48 89 cf             	mov    %rcx,%rdi
    d738:	e8 b6 9f ff ff       	callq  76f3 <transparent_crc>
    d73d:	83 7d fc 00          	cmpl   $0x0,-0x4(%rbp)
    d741:	74 16                	je     d759 <main+0xbe9>
    d743:	8b 45 f0             	mov    -0x10(%rbp),%eax
    d746:	89 c6                	mov    %eax,%esi
    d748:	48 8d 3d 3e 5e 00 00 	lea    0x5e3e(%rip),%rdi        # 1358d <g_1899+0x50d>
    d74f:	b8 00 00 00 00       	mov    $0x0,%eax
    d754:	e8 27 89 ff ff       	callq  6080 <printf@plt>
    d759:	83 45 f0 01          	addl   $0x1,-0x10(%rbp)
    d75d:	83 7d f0 04          	cmpl   $0x4,-0x10(%rbp)
    d761:	7e ab                	jle    d70e <main+0xb9e>
    d763:	48 8b 05 7e ad 00 00 	mov    0xad7e(%rip),%rax        # 184e8 <g_245>
    d76a:	c1 e0 05             	shl    $0x5,%eax
    d76d:	c0 f8 05             	sar    $0x5,%al
    d770:	48 0f be c0          	movsbq %al,%rax
    d774:	8b 55 fc             	mov    -0x4(%rbp),%edx
    d777:	48 8d 35 0c 61 00 00 	lea    0x610c(%rip),%rsi        # 1388a <g_1899+0x80a>
    d77e:	48 89 c7             	mov    %rax,%rdi
    d781:	e8 6d 9f ff ff       	callq  76f3 <transparent_crc>
    d786:	48 8b 05 5b ad 00 00 	mov    0xad5b(%rip),%rax        # 184e8 <g_245>
    d78d:	48 c1 e8 03          	shr    $0x3,%rax
    d791:	83 e0 1f             	and    $0x1f,%eax
    d794:	0f b6 c0             	movzbl %al,%eax
    d797:	8b 55 fc             	mov    -0x4(%rbp),%edx
    d79a:	48 8d 35 f2 60 00 00 	lea    0x60f2(%rip),%rsi        # 13893 <g_1899+0x813>
    d7a1:	48 89 c7             	mov    %rax,%rdi
    d7a4:	e8 4a 9f ff ff       	callq  76f3 <transparent_crc>
    d7a9:	48 8b 05 38 ad 00 00 	mov    0xad38(%rip),%rax        # 184e8 <g_245>
    d7b0:	c1 e0 0c             	shl    $0xc,%eax
    d7b3:	c1 f8 14             	sar    $0x14,%eax
    d7b6:	48 0f bf c0          	movswq %ax,%rax
    d7ba:	8b 55 fc             	mov    -0x4(%rbp),%edx
    d7bd:	48 8d 35 d8 60 00 00 	lea    0x60d8(%rip),%rsi        # 1389c <g_1899+0x81c>
    d7c4:	48 89 c7             	mov    %rax,%rdi
    d7c7:	e8 27 9f ff ff       	callq  76f3 <transparent_crc>
    d7cc:	48 8b 05 15 ad 00 00 	mov    0xad15(%rip),%rax        # 184e8 <g_245>
    d7d3:	48 c1 e8 14          	shr    $0x14,%rax
    d7d7:	66 25 ff 01          	and    $0x1ff,%ax
    d7db:	0f b7 c0             	movzwl %ax,%eax
    d7de:	8b 55 fc             	mov    -0x4(%rbp),%edx
    d7e1:	48 8d 35 bd 60 00 00 	lea    0x60bd(%rip),%rsi        # 138a5 <g_1899+0x825>
    d7e8:	48 89 c7             	mov    %rax,%rdi
    d7eb:	e8 03 9f ff ff       	callq  76f3 <transparent_crc>
    d7f0:	48 8b 05 f1 ac 00 00 	mov    0xacf1(%rip),%rax        # 184e8 <g_245>
    d7f7:	48 c1 e0 0c          	shl    $0xc,%rax
    d7fb:	48 c1 f8 2c          	sar    $0x2c,%rax
    d7ff:	48 98                	cltq   
    d801:	8b 55 fc             	mov    -0x4(%rbp),%edx
    d804:	48 8d 35 a3 60 00 00 	lea    0x60a3(%rip),%rsi        # 138ae <g_1899+0x82e>
    d80b:	48 89 c7             	mov    %rax,%rdi
    d80e:	e8 e0 9e ff ff       	callq  76f3 <transparent_crc>
    d813:	48 8b 05 ce ac 00 00 	mov    0xacce(%rip),%rax        # 184e8 <g_245>
    d81a:	48 c1 e0 06          	shl    $0x6,%rax
    d81e:	48 c1 f8 3a          	sar    $0x3a,%rax
    d822:	48 0f be c0          	movsbq %al,%rax
    d826:	8b 55 fc             	mov    -0x4(%rbp),%edx
    d829:	48 8d 35 87 60 00 00 	lea    0x6087(%rip),%rsi        # 138b7 <g_1899+0x837>
    d830:	48 89 c7             	mov    %rax,%rdi
    d833:	e8 bb 9e ff ff       	callq  76f3 <transparent_crc>
    d838:	48 8b 05 b1 ac 00 00 	mov    0xacb1(%rip),%rax        # 184f0 <g_245+0x8>
    d83f:	c1 e0 04             	shl    $0x4,%eax
    d842:	66 c1 f8 04          	sar    $0x4,%ax
    d846:	48 0f bf c0          	movswq %ax,%rax
    d84a:	8b 55 fc             	mov    -0x4(%rbp),%edx
    d84d:	48 8d 35 6c 60 00 00 	lea    0x606c(%rip),%rsi        # 138c0 <g_1899+0x840>
    d854:	48 89 c7             	mov    %rax,%rdi
    d857:	e8 97 9e ff ff       	callq  76f3 <transparent_crc>
    d85c:	48 8b 05 8d ac 00 00 	mov    0xac8d(%rip),%rax        # 184f0 <g_245+0x8>
    d863:	c1 e0 0f             	shl    $0xf,%eax
    d866:	c1 f8 1b             	sar    $0x1b,%eax
    d869:	48 0f be c0          	movsbq %al,%rax
    d86d:	8b 55 fc             	mov    -0x4(%rbp),%edx
    d870:	48 8d 35 52 60 00 00 	lea    0x6052(%rip),%rsi        # 138c9 <g_1899+0x849>
    d877:	48 89 c7             	mov    %rax,%rdi
    d87a:	e8 74 9e ff ff       	callq  76f3 <transparent_crc>
    d87f:	48 8b 05 72 ac 00 00 	mov    0xac72(%rip),%rax        # 184f8 <g_247>
    d886:	c1 e0 05             	shl    $0x5,%eax
    d889:	c0 f8 05             	sar    $0x5,%al
    d88c:	48 0f be c0          	movsbq %al,%rax
    d890:	8b 55 fc             	mov    -0x4(%rbp),%edx
    d893:	48 8d 35 38 60 00 00 	lea    0x6038(%rip),%rsi        # 138d2 <g_1899+0x852>
    d89a:	48 89 c7             	mov    %rax,%rdi
    d89d:	e8 51 9e ff ff       	callq  76f3 <transparent_crc>
    d8a2:	48 8b 05 4f ac 00 00 	mov    0xac4f(%rip),%rax        # 184f8 <g_247>
    d8a9:	48 c1 e8 03          	shr    $0x3,%rax
    d8ad:	83 e0 1f             	and    $0x1f,%eax
    d8b0:	0f b6 c0             	movzbl %al,%eax
    d8b3:	8b 55 fc             	mov    -0x4(%rbp),%edx
    d8b6:	48 8d 35 1e 60 00 00 	lea    0x601e(%rip),%rsi        # 138db <g_1899+0x85b>
    d8bd:	48 89 c7             	mov    %rax,%rdi
    d8c0:	e8 2e 9e ff ff       	callq  76f3 <transparent_crc>
    d8c5:	48 8b 05 2c ac 00 00 	mov    0xac2c(%rip),%rax        # 184f8 <g_247>
    d8cc:	c1 e0 0c             	shl    $0xc,%eax
    d8cf:	c1 f8 14             	sar    $0x14,%eax
    d8d2:	48 0f bf c0          	movswq %ax,%rax
    d8d6:	8b 55 fc             	mov    -0x4(%rbp),%edx
    d8d9:	48 8d 35 04 60 00 00 	lea    0x6004(%rip),%rsi        # 138e4 <g_1899+0x864>
    d8e0:	48 89 c7             	mov    %rax,%rdi
    d8e3:	e8 0b 9e ff ff       	callq  76f3 <transparent_crc>
    d8e8:	48 8b 05 09 ac 00 00 	mov    0xac09(%rip),%rax        # 184f8 <g_247>
    d8ef:	48 c1 e8 14          	shr    $0x14,%rax
    d8f3:	66 25 ff 01          	and    $0x1ff,%ax
    d8f7:	0f b7 c0             	movzwl %ax,%eax
    d8fa:	8b 55 fc             	mov    -0x4(%rbp),%edx
    d8fd:	48 8d 35 e9 5f 00 00 	lea    0x5fe9(%rip),%rsi        # 138ed <g_1899+0x86d>
    d904:	48 89 c7             	mov    %rax,%rdi
    d907:	e8 e7 9d ff ff       	callq  76f3 <transparent_crc>
    d90c:	48 8b 05 e5 ab 00 00 	mov    0xabe5(%rip),%rax        # 184f8 <g_247>
    d913:	48 c1 e0 0c          	shl    $0xc,%rax
    d917:	48 c1 f8 2c          	sar    $0x2c,%rax
    d91b:	48 98                	cltq   
    d91d:	8b 55 fc             	mov    -0x4(%rbp),%edx
    d920:	48 8d 35 cf 5f 00 00 	lea    0x5fcf(%rip),%rsi        # 138f6 <g_1899+0x876>
    d927:	48 89 c7             	mov    %rax,%rdi
    d92a:	e8 c4 9d ff ff       	callq  76f3 <transparent_crc>
    d92f:	48 8b 05 c2 ab 00 00 	mov    0xabc2(%rip),%rax        # 184f8 <g_247>
    d936:	48 c1 e0 06          	shl    $0x6,%rax
    d93a:	48 c1 f8 3a          	sar    $0x3a,%rax
    d93e:	48 0f be c0          	movsbq %al,%rax
    d942:	8b 55 fc             	mov    -0x4(%rbp),%edx
    d945:	48 8d 35 b3 5f 00 00 	lea    0x5fb3(%rip),%rsi        # 138ff <g_1899+0x87f>
    d94c:	48 89 c7             	mov    %rax,%rdi
    d94f:	e8 9f 9d ff ff       	callq  76f3 <transparent_crc>
    d954:	48 8b 05 a5 ab 00 00 	mov    0xaba5(%rip),%rax        # 18500 <g_247+0x8>
    d95b:	c1 e0 04             	shl    $0x4,%eax
    d95e:	66 c1 f8 04          	sar    $0x4,%ax
    d962:	48 0f bf c0          	movswq %ax,%rax
    d966:	8b 55 fc             	mov    -0x4(%rbp),%edx
    d969:	48 8d 35 98 5f 00 00 	lea    0x5f98(%rip),%rsi        # 13908 <g_1899+0x888>
    d970:	48 89 c7             	mov    %rax,%rdi
    d973:	e8 7b 9d ff ff       	callq  76f3 <transparent_crc>
    d978:	48 8b 05 81 ab 00 00 	mov    0xab81(%rip),%rax        # 18500 <g_247+0x8>
    d97f:	c1 e0 0f             	shl    $0xf,%eax
    d982:	c1 f8 1b             	sar    $0x1b,%eax
    d985:	48 0f be c0          	movsbq %al,%rax
    d989:	8b 55 fc             	mov    -0x4(%rbp),%edx
    d98c:	48 8d 35 7e 5f 00 00 	lea    0x5f7e(%rip),%rsi        # 13911 <g_1899+0x891>
    d993:	48 89 c7             	mov    %rax,%rdi
    d996:	e8 58 9d ff ff       	callq  76f3 <transparent_crc>
    d99b:	48 8b 05 7e ab 00 00 	mov    0xab7e(%rip),%rax        # 18520 <g_256>
    d9a2:	c1 e0 05             	shl    $0x5,%eax
    d9a5:	c1 f8 05             	sar    $0x5,%eax
    d9a8:	48 98                	cltq   
    d9aa:	8b 55 fc             	mov    -0x4(%rbp),%edx
    d9ad:	48 8d 35 66 5f 00 00 	lea    0x5f66(%rip),%rsi        # 1391a <g_1899+0x89a>
    d9b4:	48 89 c7             	mov    %rax,%rdi
    d9b7:	e8 37 9d ff ff       	callq  76f3 <transparent_crc>
    d9bc:	8b 05 62 ab 00 00    	mov    0xab62(%rip),%eax        # 18524 <g_256+0x4>
    d9c2:	89 c1                	mov    %eax,%ecx
    d9c4:	8b 45 fc             	mov    -0x4(%rbp),%eax
    d9c7:	89 c2                	mov    %eax,%edx
    d9c9:	48 8d 35 59 5f 00 00 	lea    0x5f59(%rip),%rsi        # 13929 <g_1899+0x8a9>
    d9d0:	48 89 cf             	mov    %rcx,%rdi
    d9d3:	e8 1b 9d ff ff       	callq  76f3 <transparent_crc>
    d9d8:	48 8b 05 49 ab 00 00 	mov    0xab49(%rip),%rax        # 18528 <g_256+0x8>
    d9df:	c1 e0 02             	shl    $0x2,%eax
    d9e2:	c0 f8 02             	sar    $0x2,%al
    d9e5:	48 0f be c0          	movsbq %al,%rax
    d9e9:	8b 55 fc             	mov    -0x4(%rbp),%edx
    d9ec:	48 8d 35 45 5f 00 00 	lea    0x5f45(%rip),%rsi        # 13938 <g_1899+0x8b8>
    d9f3:	48 89 c7             	mov    %rax,%rdi
    d9f6:	e8 f8 9c ff ff       	callq  76f3 <transparent_crc>
    d9fb:	0f b6 05 27 ab 00 00 	movzbl 0xab27(%rip),%eax        # 18529 <g_256+0x9>
    da02:	0f b6 c0             	movzbl %al,%eax
    da05:	8b 55 fc             	mov    -0x4(%rbp),%edx
    da08:	48 8d 35 38 5f 00 00 	lea    0x5f38(%rip),%rsi        # 13947 <g_1899+0x8c7>
    da0f:	48 89 c7             	mov    %rax,%rdi
    da12:	e8 dc 9c ff ff       	callq  76f3 <transparent_crc>
    da17:	48 8b 05 0a ab 00 00 	mov    0xab0a(%rip),%rax        # 18528 <g_256+0x8>
    da1e:	48 c1 e8 10          	shr    $0x10,%rax
    da22:	25 ff ff ff 3f       	and    $0x3fffffff,%eax
    da27:	89 c1                	mov    %eax,%ecx
    da29:	8b 45 fc             	mov    -0x4(%rbp),%eax
    da2c:	89 c2                	mov    %eax,%edx
    da2e:	48 8d 35 21 5f 00 00 	lea    0x5f21(%rip),%rsi        # 13956 <g_1899+0x8d6>
    da35:	48 89 cf             	mov    %rcx,%rdi
    da38:	e8 b6 9c ff ff       	callq  76f3 <transparent_crc>
    da3d:	48 8b 05 e4 aa 00 00 	mov    0xaae4(%rip),%rax        # 18528 <g_256+0x8>
    da44:	48 c1 e8 2e          	shr    $0x2e,%rax
    da48:	66 25 ff 01          	and    $0x1ff,%ax
    da4c:	0f b7 c0             	movzwl %ax,%eax
    da4f:	8b 55 fc             	mov    -0x4(%rbp),%edx
    da52:	48 8d 35 0c 5f 00 00 	lea    0x5f0c(%rip),%rsi        # 13965 <g_1899+0x8e5>
    da59:	48 89 c7             	mov    %rax,%rdi
    da5c:	e8 92 9c ff ff       	callq  76f3 <transparent_crc>
    da61:	48 8b 05 c0 aa 00 00 	mov    0xaac0(%rip),%rax        # 18528 <g_256+0x8>
    da68:	48 c1 f8 37          	sar    $0x37,%rax
    da6c:	48 0f bf c0          	movswq %ax,%rax
    da70:	8b 55 fc             	mov    -0x4(%rbp),%edx
    da73:	48 8d 35 fa 5e 00 00 	lea    0x5efa(%rip),%rsi        # 13974 <g_1899+0x8f4>
    da7a:	48 89 c7             	mov    %rax,%rdi
    da7d:	e8 71 9c ff ff       	callq  76f3 <transparent_crc>
    da82:	48 8b 05 a7 aa 00 00 	mov    0xaaa7(%rip),%rax        # 18530 <g_256+0x10>
    da89:	25 ff ff ff 3f       	and    $0x3fffffff,%eax
    da8e:	89 c1                	mov    %eax,%ecx
    da90:	8b 45 fc             	mov    -0x4(%rbp),%eax
    da93:	89 c2                	mov    %eax,%edx
    da95:	48 8d 35 e7 5e 00 00 	lea    0x5ee7(%rip),%rsi        # 13983 <g_1899+0x903>
    da9c:	48 89 cf             	mov    %rcx,%rdi
    da9f:	e8 4f 9c ff ff       	callq  76f3 <transparent_crc>
    daa4:	0f b6 05 89 aa 00 00 	movzbl 0xaa89(%rip),%eax        # 18534 <g_256+0x14>
    daab:	48 0f be c0          	movsbq %al,%rax
    daaf:	8b 55 fc             	mov    -0x4(%rbp),%edx
    dab2:	48 8d 35 d9 5e 00 00 	lea    0x5ed9(%rip),%rsi        # 13992 <g_1899+0x912>
    dab9:	48 89 c7             	mov    %rax,%rdi
    dabc:	e8 32 9c ff ff       	callq  76f3 <transparent_crc>
    dac1:	48 8b 05 68 aa 00 00 	mov    0xaa68(%rip),%rax        # 18530 <g_256+0x10>
    dac8:	48 c1 e0 0f          	shl    $0xf,%rax
    dacc:	48 c1 f8 37          	sar    $0x37,%rax
    dad0:	48 0f bf c0          	movswq %ax,%rax
    dad4:	8b 55 fc             	mov    -0x4(%rbp),%edx
    dad7:	48 8d 35 bd 5e 00 00 	lea    0x5ebd(%rip),%rsi        # 1399b <g_1899+0x91b>
    dade:	48 89 c7             	mov    %rax,%rdi
    dae1:	e8 0d 9c ff ff       	callq  76f3 <transparent_crc>
    dae6:	0f b7 05 4b aa 00 00 	movzwl 0xaa4b(%rip),%eax        # 18538 <g_256+0x18>
    daed:	48 0f bf c0          	movswq %ax,%rax
    daf1:	8b 55 fc             	mov    -0x4(%rbp),%edx
    daf4:	48 8d 35 a9 5e 00 00 	lea    0x5ea9(%rip),%rsi        # 139a4 <g_1899+0x924>
    dafb:	48 89 c7             	mov    %rax,%rdi
    dafe:	e8 f0 9b ff ff       	callq  76f3 <transparent_crc>
    db03:	0f b6 05 30 aa 00 00 	movzbl 0xaa30(%rip),%eax        # 1853a <g_256+0x1a>
    db0a:	48 0f be c0          	movsbq %al,%rax
    db0e:	8b 55 fc             	mov    -0x4(%rbp),%edx
    db11:	48 8d 35 95 5e 00 00 	lea    0x5e95(%rip),%rsi        # 139ad <g_1899+0x92d>
    db18:	48 89 c7             	mov    %rax,%rdi
    db1b:	e8 d3 9b ff ff       	callq  76f3 <transparent_crc>
    db20:	0f b6 05 14 aa 00 00 	movzbl 0xaa14(%rip),%eax        # 1853b <g_256+0x1b>
    db27:	48 0f be c0          	movsbq %al,%rax
    db2b:	8b 55 fc             	mov    -0x4(%rbp),%edx
    db2e:	48 8d 35 81 5e 00 00 	lea    0x5e81(%rip),%rsi        # 139b6 <g_1899+0x936>
    db35:	48 89 c7             	mov    %rax,%rdi
    db38:	e8 b6 9b ff ff       	callq  76f3 <transparent_crc>
    db3d:	8b 05 f9 a9 00 00    	mov    0xa9f9(%rip),%eax        # 1853c <g_256+0x1c>
    db43:	89 c1                	mov    %eax,%ecx
    db45:	8b 45 fc             	mov    -0x4(%rbp),%eax
    db48:	89 c2                	mov    %eax,%edx
    db4a:	48 8d 35 6e 5e 00 00 	lea    0x5e6e(%rip),%rsi        # 139bf <g_1899+0x93f>
    db51:	48 89 cf             	mov    %rcx,%rdi
    db54:	e8 9a 9b ff ff       	callq  76f3 <transparent_crc>
    db59:	0f b7 05 e0 a9 00 00 	movzwl 0xa9e0(%rip),%eax        # 18540 <g_256+0x20>
    db60:	0f b7 c0             	movzwl %ax,%eax
    db63:	8b 55 fc             	mov    -0x4(%rbp),%edx
    db66:	48 8d 35 5b 5e 00 00 	lea    0x5e5b(%rip),%rsi        # 139c8 <g_1899+0x948>
    db6d:	48 89 c7             	mov    %rax,%rdi
    db70:	e8 7e 9b ff ff       	callq  76f3 <transparent_crc>
    db75:	0f b7 05 c6 a9 00 00 	movzwl 0xa9c6(%rip),%eax        # 18542 <g_256+0x22>
    db7c:	48 0f bf c0          	movswq %ax,%rax
    db80:	8b 55 fc             	mov    -0x4(%rbp),%edx
    db83:	48 8d 35 47 5e 00 00 	lea    0x5e47(%rip),%rsi        # 139d1 <g_1899+0x951>
    db8a:	48 89 c7             	mov    %rax,%rdi
    db8d:	e8 61 9b ff ff       	callq  76f3 <transparent_crc>
    db92:	8b 05 ac a9 00 00    	mov    0xa9ac(%rip),%eax        # 18544 <g_256+0x24>
    db98:	c1 e0 0f             	shl    $0xf,%eax
    db9b:	c1 f8 0f             	sar    $0xf,%eax
    db9e:	48 98                	cltq   
    dba0:	8b 55 fc             	mov    -0x4(%rbp),%edx
    dba3:	48 8d 35 30 5e 00 00 	lea    0x5e30(%rip),%rsi        # 139da <g_1899+0x95a>
    dbaa:	48 89 c7             	mov    %rax,%rdi
    dbad:	e8 41 9b ff ff       	callq  76f3 <transparent_crc>
    dbb2:	c7 45 f0 00 00 00 00 	movl   $0x0,-0x10(%rbp)
    dbb9:	eb 4a                	jmp    dc05 <main+0x1095>
    dbbb:	8b 45 f0             	mov    -0x10(%rbp),%eax
    dbbe:	48 98                	cltq   
    dbc0:	48 8d 14 00          	lea    (%rax,%rax,1),%rdx
    dbc4:	48 8d 05 7d a9 00 00 	lea    0xa97d(%rip),%rax        # 18548 <g_264>
    dbcb:	0f b7 04 02          	movzwl (%rdx,%rax,1),%eax
    dbcf:	48 0f bf c0          	movswq %ax,%rax
    dbd3:	8b 55 fc             	mov    -0x4(%rbp),%edx
    dbd6:	48 8d 35 06 5e 00 00 	lea    0x5e06(%rip),%rsi        # 139e3 <g_1899+0x963>
    dbdd:	48 89 c7             	mov    %rax,%rdi
    dbe0:	e8 0e 9b ff ff       	callq  76f3 <transparent_crc>
    dbe5:	83 7d fc 00          	cmpl   $0x0,-0x4(%rbp)
    dbe9:	74 16                	je     dc01 <main+0x1091>
    dbeb:	8b 45 f0             	mov    -0x10(%rbp),%eax
    dbee:	89 c6                	mov    %eax,%esi
    dbf0:	48 8d 3d 96 59 00 00 	lea    0x5996(%rip),%rdi        # 1358d <g_1899+0x50d>
    dbf7:	b8 00 00 00 00       	mov    $0x0,%eax
    dbfc:	e8 7f 84 ff ff       	callq  6080 <printf@plt>
    dc01:	83 45 f0 01          	addl   $0x1,-0x10(%rbp)
    dc05:	83 7d f0 00          	cmpl   $0x0,-0x10(%rbp)
    dc09:	7e b0                	jle    dbbb <main+0x104b>
    dc0b:	0f b6 05 3e a9 00 00 	movzbl 0xa93e(%rip),%eax        # 18550 <g_287>
    dc12:	c1 e0 05             	shl    $0x5,%eax
    dc15:	c0 f8 05             	sar    $0x5,%al
    dc18:	48 0f be c0          	movsbq %al,%rax
    dc1c:	8b 55 fc             	mov    -0x4(%rbp),%edx
    dc1f:	48 8d 35 c6 5d 00 00 	lea    0x5dc6(%rip),%rsi        # 139ec <g_1899+0x96c>
    dc26:	48 89 c7             	mov    %rax,%rdi
    dc29:	e8 c5 9a ff ff       	callq  76f3 <transparent_crc>
    dc2e:	0f b6 05 1b a9 00 00 	movzbl 0xa91b(%rip),%eax        # 18550 <g_287>
    dc35:	c0 e8 03             	shr    $0x3,%al
    dc38:	0f b6 c0             	movzbl %al,%eax
    dc3b:	8b 55 fc             	mov    -0x4(%rbp),%edx
    dc3e:	48 8d 35 b0 5d 00 00 	lea    0x5db0(%rip),%rsi        # 139f5 <g_1899+0x975>
    dc45:	48 89 c7             	mov    %rax,%rdi
    dc48:	e8 a6 9a ff ff       	callq  76f3 <transparent_crc>
    dc4d:	8b 05 fd a8 00 00    	mov    0xa8fd(%rip),%eax        # 18550 <g_287>
    dc53:	c1 e0 0c             	shl    $0xc,%eax
    dc56:	c1 f8 14             	sar    $0x14,%eax
    dc59:	48 0f bf c0          	movswq %ax,%rax
    dc5d:	8b 55 fc             	mov    -0x4(%rbp),%edx
    dc60:	48 8d 35 97 5d 00 00 	lea    0x5d97(%rip),%rsi        # 139fe <g_1899+0x97e>
    dc67:	48 89 c7             	mov    %rax,%rdi
    dc6a:	e8 84 9a ff ff       	callq  76f3 <transparent_crc>
    dc6f:	0f b7 05 dc a8 00 00 	movzwl 0xa8dc(%rip),%eax        # 18552 <g_287+0x2>
    dc76:	66 c1 e8 04          	shr    $0x4,%ax
    dc7a:	66 25 ff 01          	and    $0x1ff,%ax
    dc7e:	0f b7 c0             	movzwl %ax,%eax
    dc81:	8b 55 fc             	mov    -0x4(%rbp),%edx
    dc84:	48 8d 35 7c 5d 00 00 	lea    0x5d7c(%rip),%rsi        # 13a07 <g_1899+0x987>
    dc8b:	48 89 c7             	mov    %rax,%rdi
    dc8e:	e8 60 9a ff ff       	callq  76f3 <transparent_crc>
    dc93:	8b 05 bb a8 00 00    	mov    0xa8bb(%rip),%eax        # 18554 <g_287+0x4>
    dc99:	c1 e0 0c             	shl    $0xc,%eax
    dc9c:	c1 f8 0c             	sar    $0xc,%eax
    dc9f:	48 98                	cltq   
    dca1:	8b 55 fc             	mov    -0x4(%rbp),%edx
    dca4:	48 8d 35 65 5d 00 00 	lea    0x5d65(%rip),%rsi        # 13a10 <g_1899+0x990>
    dcab:	48 89 c7             	mov    %rax,%rdi
    dcae:	e8 40 9a ff ff       	callq  76f3 <transparent_crc>
    dcb3:	48 8b 05 96 a8 00 00 	mov    0xa896(%rip),%rax        # 18550 <g_287>
    dcba:	48 c1 e0 06          	shl    $0x6,%rax
    dcbe:	48 c1 f8 3a          	sar    $0x3a,%rax
    dcc2:	48 0f be c0          	movsbq %al,%rax
    dcc6:	8b 55 fc             	mov    -0x4(%rbp),%edx
    dcc9:	48 8d 35 49 5d 00 00 	lea    0x5d49(%rip),%rsi        # 13a19 <g_1899+0x999>
    dcd0:	48 89 c7             	mov    %rax,%rdi
    dcd3:	e8 1b 9a ff ff       	callq  76f3 <transparent_crc>
    dcd8:	0f b7 05 79 a8 00 00 	movzwl 0xa879(%rip),%eax        # 18558 <g_287+0x8>
    dcdf:	c1 e0 04             	shl    $0x4,%eax
    dce2:	66 c1 f8 04          	sar    $0x4,%ax
    dce6:	48 0f bf c0          	movswq %ax,%rax
    dcea:	8b 55 fc             	mov    -0x4(%rbp),%edx
    dced:	48 8d 35 2e 5d 00 00 	lea    0x5d2e(%rip),%rsi        # 13a22 <g_1899+0x9a2>
    dcf4:	48 89 c7             	mov    %rax,%rdi
    dcf7:	e8 f7 99 ff ff       	callq  76f3 <transparent_crc>
    dcfc:	8b 05 56 a8 00 00    	mov    0xa856(%rip),%eax        # 18558 <g_287+0x8>
    dd02:	c1 e0 0f             	shl    $0xf,%eax
    dd05:	c1 f8 1b             	sar    $0x1b,%eax
    dd08:	48 0f be c0          	movsbq %al,%rax
    dd0c:	8b 55 fc             	mov    -0x4(%rbp),%edx
    dd0f:	48 8d 35 15 5d 00 00 	lea    0x5d15(%rip),%rsi        # 13a2b <g_1899+0x9ab>
    dd16:	48 89 c7             	mov    %rax,%rdi
    dd19:	e8 d5 99 ff ff       	callq  76f3 <transparent_crc>
    dd1e:	8b 05 3c a8 00 00    	mov    0xa83c(%rip),%eax        # 18560 <g_367>
    dd24:	89 c1                	mov    %eax,%ecx
    dd26:	8b 45 fc             	mov    -0x4(%rbp),%eax
    dd29:	89 c2                	mov    %eax,%edx
    dd2b:	48 8d 35 02 5d 00 00 	lea    0x5d02(%rip),%rsi        # 13a34 <g_1899+0x9b4>
    dd32:	48 89 cf             	mov    %rcx,%rdi
    dd35:	e8 b9 99 ff ff       	callq  76f3 <transparent_crc>
    dd3a:	0f b7 05 1f a8 00 00 	movzwl 0xa81f(%rip),%eax        # 18560 <g_367>
    dd41:	0f b7 c0             	movzwl %ax,%eax
    dd44:	8b 55 fc             	mov    -0x4(%rbp),%edx
    dd47:	48 8d 35 ef 5c 00 00 	lea    0x5cef(%rip),%rsi        # 13a3d <g_1899+0x9bd>
    dd4e:	48 89 c7             	mov    %rax,%rdi
    dd51:	e8 9d 99 ff ff       	callq  76f3 <transparent_crc>
    dd56:	8b 05 04 a8 00 00    	mov    0xa804(%rip),%eax        # 18560 <g_367>
    dd5c:	48 98                	cltq   
    dd5e:	8b 55 fc             	mov    -0x4(%rbp),%edx
    dd61:	48 8d 35 de 5c 00 00 	lea    0x5cde(%rip),%rsi        # 13a46 <g_1899+0x9c6>
    dd68:	48 89 c7             	mov    %rax,%rdi
    dd6b:	e8 83 99 ff ff       	callq  76f3 <transparent_crc>
    dd70:	48 8b 05 f9 a7 00 00 	mov    0xa7f9(%rip),%rax        # 18570 <g_382>
    dd77:	c1 e0 05             	shl    $0x5,%eax
    dd7a:	c1 f8 05             	sar    $0x5,%eax
    dd7d:	48 98                	cltq   
    dd7f:	8b 55 fc             	mov    -0x4(%rbp),%edx
    dd82:	48 8d 35 c6 5c 00 00 	lea    0x5cc6(%rip),%rsi        # 13a4f <g_1899+0x9cf>
    dd89:	48 89 c7             	mov    %rax,%rdi
    dd8c:	e8 62 99 ff ff       	callq  76f3 <transparent_crc>
    dd91:	8b 05 dd a7 00 00    	mov    0xa7dd(%rip),%eax        # 18574 <g_382+0x4>
    dd97:	89 c1                	mov    %eax,%ecx
    dd99:	8b 45 fc             	mov    -0x4(%rbp),%eax
    dd9c:	89 c2                	mov    %eax,%edx
    dd9e:	48 8d 35 b6 5c 00 00 	lea    0x5cb6(%rip),%rsi        # 13a5b <g_1899+0x9db>
    dda5:	48 89 cf             	mov    %rcx,%rdi
    dda8:	e8 46 99 ff ff       	callq  76f3 <transparent_crc>
    ddad:	48 8b 05 c4 a7 00 00 	mov    0xa7c4(%rip),%rax        # 18578 <g_382+0x8>
    ddb4:	c1 e0 02             	shl    $0x2,%eax
    ddb7:	c0 f8 02             	sar    $0x2,%al
    ddba:	48 0f be c0          	movsbq %al,%rax
    ddbe:	8b 55 fc             	mov    -0x4(%rbp),%edx
    ddc1:	48 8d 35 9f 5c 00 00 	lea    0x5c9f(%rip),%rsi        # 13a67 <g_1899+0x9e7>
    ddc8:	48 89 c7             	mov    %rax,%rdi
    ddcb:	e8 23 99 ff ff       	callq  76f3 <transparent_crc>
    ddd0:	0f b6 05 a2 a7 00 00 	movzbl 0xa7a2(%rip),%eax        # 18579 <g_382+0x9>
    ddd7:	0f b6 c0             	movzbl %al,%eax
    ddda:	8b 55 fc             	mov    -0x4(%rbp),%edx
    dddd:	48 8d 35 8f 5c 00 00 	lea    0x5c8f(%rip),%rsi        # 13a73 <g_1899+0x9f3>
    dde4:	48 89 c7             	mov    %rax,%rdi
    dde7:	e8 07 99 ff ff       	callq  76f3 <transparent_crc>
    ddec:	48 8b 05 85 a7 00 00 	mov    0xa785(%rip),%rax        # 18578 <g_382+0x8>
    ddf3:	48 c1 e8 10          	shr    $0x10,%rax
    ddf7:	25 ff ff ff 3f       	and    $0x3fffffff,%eax
    ddfc:	89 c1                	mov    %eax,%ecx
    ddfe:	8b 45 fc             	mov    -0x4(%rbp),%eax
    de01:	89 c2                	mov    %eax,%edx
    de03:	48 8d 35 75 5c 00 00 	lea    0x5c75(%rip),%rsi        # 13a7f <g_1899+0x9ff>
    de0a:	48 89 cf             	mov    %rcx,%rdi
    de0d:	e8 e1 98 ff ff       	callq  76f3 <transparent_crc>
    de12:	48 8b 05 5f a7 00 00 	mov    0xa75f(%rip),%rax        # 18578 <g_382+0x8>
    de19:	48 c1 e8 2e          	shr    $0x2e,%rax
    de1d:	66 25 ff 01          	and    $0x1ff,%ax
    de21:	0f b7 c0             	movzwl %ax,%eax
    de24:	8b 55 fc             	mov    -0x4(%rbp),%edx
    de27:	48 8d 35 5d 5c 00 00 	lea    0x5c5d(%rip),%rsi        # 13a8b <g_1899+0xa0b>
    de2e:	48 89 c7             	mov    %rax,%rdi
    de31:	e8 bd 98 ff ff       	callq  76f3 <transparent_crc>
    de36:	48 8b 05 3b a7 00 00 	mov    0xa73b(%rip),%rax        # 18578 <g_382+0x8>
    de3d:	48 c1 f8 37          	sar    $0x37,%rax
    de41:	48 0f bf c0          	movswq %ax,%rax
    de45:	8b 55 fc             	mov    -0x4(%rbp),%edx
    de48:	48 8d 35 48 5c 00 00 	lea    0x5c48(%rip),%rsi        # 13a97 <g_1899+0xa17>
    de4f:	48 89 c7             	mov    %rax,%rdi
    de52:	e8 9c 98 ff ff       	callq  76f3 <transparent_crc>
    de57:	48 8b 05 22 a7 00 00 	mov    0xa722(%rip),%rax        # 18580 <g_382+0x10>
    de5e:	25 ff ff ff 3f       	and    $0x3fffffff,%eax
    de63:	89 c1                	mov    %eax,%ecx
    de65:	8b 45 fc             	mov    -0x4(%rbp),%eax
    de68:	89 c2                	mov    %eax,%edx
    de6a:	48 8d 35 32 5c 00 00 	lea    0x5c32(%rip),%rsi        # 13aa3 <g_1899+0xa23>
    de71:	48 89 cf             	mov    %rcx,%rdi
    de74:	e8 7a 98 ff ff       	callq  76f3 <transparent_crc>
    de79:	48 8b 05 20 a7 00 00 	mov    0xa720(%rip),%rax        # 185a0 <g_391>
    de80:	c1 e0 05             	shl    $0x5,%eax
    de83:	c1 f8 05             	sar    $0x5,%eax
    de86:	48 98                	cltq   
    de88:	8b 55 fc             	mov    -0x4(%rbp),%edx
    de8b:	48 8d 35 1d 5c 00 00 	lea    0x5c1d(%rip),%rsi        # 13aaf <g_1899+0xa2f>
    de92:	48 89 c7             	mov    %rax,%rdi
    de95:	e8 59 98 ff ff       	callq  76f3 <transparent_crc>
    de9a:	8b 05 04 a7 00 00    	mov    0xa704(%rip),%eax        # 185a4 <g_391+0x4>
    dea0:	89 c1                	mov    %eax,%ecx
    dea2:	8b 45 fc             	mov    -0x4(%rbp),%eax
    dea5:	89 c2                	mov    %eax,%edx
    dea7:	48 8d 35 10 5c 00 00 	lea    0x5c10(%rip),%rsi        # 13abe <g_1899+0xa3e>
    deae:	48 89 cf             	mov    %rcx,%rdi
    deb1:	e8 3d 98 ff ff       	callq  76f3 <transparent_crc>
    deb6:	48 8b 05 eb a6 00 00 	mov    0xa6eb(%rip),%rax        # 185a8 <g_391+0x8>
    debd:	c1 e0 02             	shl    $0x2,%eax
    dec0:	c0 f8 02             	sar    $0x2,%al
    dec3:	48 0f be c0          	movsbq %al,%rax
    dec7:	8b 55 fc             	mov    -0x4(%rbp),%edx
    deca:	48 8d 35 fc 5b 00 00 	lea    0x5bfc(%rip),%rsi        # 13acd <g_1899+0xa4d>
    ded1:	48 89 c7             	mov    %rax,%rdi
    ded4:	e8 1a 98 ff ff       	callq  76f3 <transparent_crc>
    ded9:	0f b6 05 c9 a6 00 00 	movzbl 0xa6c9(%rip),%eax        # 185a9 <g_391+0x9>
    dee0:	0f b6 c0             	movzbl %al,%eax
    dee3:	8b 55 fc             	mov    -0x4(%rbp),%edx
    dee6:	48 8d 35 ef 5b 00 00 	lea    0x5bef(%rip),%rsi        # 13adc <g_1899+0xa5c>
    deed:	48 89 c7             	mov    %rax,%rdi
    def0:	e8 fe 97 ff ff       	callq  76f3 <transparent_crc>
    def5:	48 8b 05 ac a6 00 00 	mov    0xa6ac(%rip),%rax        # 185a8 <g_391+0x8>
    defc:	48 c1 e8 10          	shr    $0x10,%rax
    df00:	25 ff ff ff 3f       	and    $0x3fffffff,%eax
    df05:	89 c1                	mov    %eax,%ecx
    df07:	8b 45 fc             	mov    -0x4(%rbp),%eax
    df0a:	89 c2                	mov    %eax,%edx
    df0c:	48 8d 35 d8 5b 00 00 	lea    0x5bd8(%rip),%rsi        # 13aeb <g_1899+0xa6b>
    df13:	48 89 cf             	mov    %rcx,%rdi
    df16:	e8 d8 97 ff ff       	callq  76f3 <transparent_crc>
    df1b:	48 8b 05 86 a6 00 00 	mov    0xa686(%rip),%rax        # 185a8 <g_391+0x8>
    df22:	48 c1 e8 2e          	shr    $0x2e,%rax
    df26:	66 25 ff 01          	and    $0x1ff,%ax
    df2a:	0f b7 c0             	movzwl %ax,%eax
    df2d:	8b 55 fc             	mov    -0x4(%rbp),%edx
    df30:	48 8d 35 c3 5b 00 00 	lea    0x5bc3(%rip),%rsi        # 13afa <g_1899+0xa7a>
    df37:	48 89 c7             	mov    %rax,%rdi
    df3a:	e8 b4 97 ff ff       	callq  76f3 <transparent_crc>
    df3f:	48 8b 05 62 a6 00 00 	mov    0xa662(%rip),%rax        # 185a8 <g_391+0x8>
    df46:	48 c1 f8 37          	sar    $0x37,%rax
    df4a:	48 0f bf c0          	movswq %ax,%rax
    df4e:	8b 55 fc             	mov    -0x4(%rbp),%edx
    df51:	48 8d 35 b1 5b 00 00 	lea    0x5bb1(%rip),%rsi        # 13b09 <g_1899+0xa89>
    df58:	48 89 c7             	mov    %rax,%rdi
    df5b:	e8 93 97 ff ff       	callq  76f3 <transparent_crc>
    df60:	48 8b 05 49 a6 00 00 	mov    0xa649(%rip),%rax        # 185b0 <g_391+0x10>
    df67:	25 ff ff ff 3f       	and    $0x3fffffff,%eax
    df6c:	89 c1                	mov    %eax,%ecx
    df6e:	8b 45 fc             	mov    -0x4(%rbp),%eax
    df71:	89 c2                	mov    %eax,%edx
    df73:	48 8d 35 9e 5b 00 00 	lea    0x5b9e(%rip),%rsi        # 13b18 <g_1899+0xa98>
    df7a:	48 89 cf             	mov    %rcx,%rdi
    df7d:	e8 71 97 ff ff       	callq  76f3 <transparent_crc>
    df82:	0f b6 05 2b a6 00 00 	movzbl 0xa62b(%rip),%eax        # 185b4 <g_391+0x14>
    df89:	48 0f be c0          	movsbq %al,%rax
    df8d:	8b 55 fc             	mov    -0x4(%rbp),%edx
    df90:	48 8d 35 90 5b 00 00 	lea    0x5b90(%rip),%rsi        # 13b27 <g_1899+0xaa7>
    df97:	48 89 c7             	mov    %rax,%rdi
    df9a:	e8 54 97 ff ff       	callq  76f3 <transparent_crc>
    df9f:	48 8b 05 0a a6 00 00 	mov    0xa60a(%rip),%rax        # 185b0 <g_391+0x10>
    dfa6:	48 c1 e0 0f          	shl    $0xf,%rax
    dfaa:	48 c1 f8 37          	sar    $0x37,%rax
    dfae:	48 0f bf c0          	movswq %ax,%rax
    dfb2:	8b 55 fc             	mov    -0x4(%rbp),%edx
    dfb5:	48 8d 35 74 5b 00 00 	lea    0x5b74(%rip),%rsi        # 13b30 <g_1899+0xab0>
    dfbc:	48 89 c7             	mov    %rax,%rdi
    dfbf:	e8 2f 97 ff ff       	callq  76f3 <transparent_crc>
    dfc4:	0f b7 05 ed a5 00 00 	movzwl 0xa5ed(%rip),%eax        # 185b8 <g_391+0x18>
    dfcb:	48 0f bf c0          	movswq %ax,%rax
    dfcf:	8b 55 fc             	mov    -0x4(%rbp),%edx
    dfd2:	48 8d 35 60 5b 00 00 	lea    0x5b60(%rip),%rsi        # 13b39 <g_1899+0xab9>
    dfd9:	48 89 c7             	mov    %rax,%rdi
    dfdc:	e8 12 97 ff ff       	callq  76f3 <transparent_crc>
    dfe1:	0f b6 05 d2 a5 00 00 	movzbl 0xa5d2(%rip),%eax        # 185ba <g_391+0x1a>
    dfe8:	48 0f be c0          	movsbq %al,%rax
    dfec:	8b 55 fc             	mov    -0x4(%rbp),%edx
    dfef:	48 8d 35 4c 5b 00 00 	lea    0x5b4c(%rip),%rsi        # 13b42 <g_1899+0xac2>
    dff6:	48 89 c7             	mov    %rax,%rdi
    dff9:	e8 f5 96 ff ff       	callq  76f3 <transparent_crc>
    dffe:	0f b6 05 b6 a5 00 00 	movzbl 0xa5b6(%rip),%eax        # 185bb <g_391+0x1b>
    e005:	48 0f be c0          	movsbq %al,%rax
    e009:	8b 55 fc             	mov    -0x4(%rbp),%edx
    e00c:	48 8d 35 38 5b 00 00 	lea    0x5b38(%rip),%rsi        # 13b4b <g_1899+0xacb>
    e013:	48 89 c7             	mov    %rax,%rdi
    e016:	e8 d8 96 ff ff       	callq  76f3 <transparent_crc>
    e01b:	8b 05 9b a5 00 00    	mov    0xa59b(%rip),%eax        # 185bc <g_391+0x1c>
    e021:	89 c1                	mov    %eax,%ecx
    e023:	8b 45 fc             	mov    -0x4(%rbp),%eax
    e026:	89 c2                	mov    %eax,%edx
    e028:	48 8d 35 25 5b 00 00 	lea    0x5b25(%rip),%rsi        # 13b54 <g_1899+0xad4>
    e02f:	48 89 cf             	mov    %rcx,%rdi
    e032:	e8 bc 96 ff ff       	callq  76f3 <transparent_crc>
    e037:	0f b7 05 82 a5 00 00 	movzwl 0xa582(%rip),%eax        # 185c0 <g_391+0x20>
    e03e:	0f b7 c0             	movzwl %ax,%eax
    e041:	8b 55 fc             	mov    -0x4(%rbp),%edx
    e044:	48 8d 35 12 5b 00 00 	lea    0x5b12(%rip),%rsi        # 13b5d <g_1899+0xadd>
    e04b:	48 89 c7             	mov    %rax,%rdi
    e04e:	e8 a0 96 ff ff       	callq  76f3 <transparent_crc>
    e053:	0f b7 05 68 a5 00 00 	movzwl 0xa568(%rip),%eax        # 185c2 <g_391+0x22>
    e05a:	48 0f bf c0          	movswq %ax,%rax
    e05e:	8b 55 fc             	mov    -0x4(%rbp),%edx
    e061:	48 8d 35 fe 5a 00 00 	lea    0x5afe(%rip),%rsi        # 13b66 <g_1899+0xae6>
    e068:	48 89 c7             	mov    %rax,%rdi
    e06b:	e8 83 96 ff ff       	callq  76f3 <transparent_crc>
    e070:	8b 05 4e a5 00 00    	mov    0xa54e(%rip),%eax        # 185c4 <g_391+0x24>
    e076:	c1 e0 0f             	shl    $0xf,%eax
    e079:	c1 f8 0f             	sar    $0xf,%eax
    e07c:	48 98                	cltq   
    e07e:	8b 55 fc             	mov    -0x4(%rbp),%edx
    e081:	48 8d 35 e7 5a 00 00 	lea    0x5ae7(%rip),%rsi        # 13b6f <g_1899+0xaef>
    e088:	48 89 c7             	mov    %rax,%rdi
    e08b:	e8 63 96 ff ff       	callq  76f3 <transparent_crc>
    e090:	8b 05 3a a5 00 00    	mov    0xa53a(%rip),%eax        # 185d0 <g_423>
    e096:	c1 e0 05             	shl    $0x5,%eax
    e099:	c1 f8 05             	sar    $0x5,%eax
    e09c:	48 98                	cltq   
    e09e:	8b 55 fc             	mov    -0x4(%rbp),%edx
    e0a1:	48 8d 35 d0 5a 00 00 	lea    0x5ad0(%rip),%rsi        # 13b78 <g_1899+0xaf8>
    e0a8:	48 89 c7             	mov    %rax,%rdi
    e0ab:	e8 43 96 ff ff       	callq  76f3 <transparent_crc>
    e0b0:	8b 05 1e a5 00 00    	mov    0xa51e(%rip),%eax        # 185d4 <g_423+0x4>
    e0b6:	89 c1                	mov    %eax,%ecx
    e0b8:	8b 45 fc             	mov    -0x4(%rbp),%eax
    e0bb:	89 c2                	mov    %eax,%edx
    e0bd:	48 8d 35 bd 5a 00 00 	lea    0x5abd(%rip),%rsi        # 13b81 <g_1899+0xb01>
    e0c4:	48 89 cf             	mov    %rcx,%rdi
    e0c7:	e8 27 96 ff ff       	callq  76f3 <transparent_crc>
    e0cc:	0f b6 05 05 a5 00 00 	movzbl 0xa505(%rip),%eax        # 185d8 <g_423+0x8>
    e0d3:	c1 e0 02             	shl    $0x2,%eax
    e0d6:	c0 f8 02             	sar    $0x2,%al
    e0d9:	48 0f be c0          	movsbq %al,%rax
    e0dd:	8b 55 fc             	mov    -0x4(%rbp),%edx
    e0e0:	48 8d 35 a3 5a 00 00 	lea    0x5aa3(%rip),%rsi        # 13b8a <g_1899+0xb0a>
    e0e7:	48 89 c7             	mov    %rax,%rdi
    e0ea:	e8 04 96 ff ff       	callq  76f3 <transparent_crc>
    e0ef:	0f b6 05 e3 a4 00 00 	movzbl 0xa4e3(%rip),%eax        # 185d9 <g_423+0x9>
    e0f6:	0f b6 c0             	movzbl %al,%eax
    e0f9:	8b 55 fc             	mov    -0x4(%rbp),%edx
    e0fc:	48 8d 35 90 5a 00 00 	lea    0x5a90(%rip),%rsi        # 13b93 <g_1899+0xb13>
    e103:	48 89 c7             	mov    %rax,%rdi
    e106:	e8 e8 95 ff ff       	callq  76f3 <transparent_crc>
    e10b:	48 8b 05 c6 a4 00 00 	mov    0xa4c6(%rip),%rax        # 185d8 <g_423+0x8>
    e112:	48 c1 e8 10          	shr    $0x10,%rax
    e116:	25 ff ff ff 3f       	and    $0x3fffffff,%eax
    e11b:	89 c1                	mov    %eax,%ecx
    e11d:	8b 45 fc             	mov    -0x4(%rbp),%eax
    e120:	89 c2                	mov    %eax,%edx
    e122:	48 8d 35 73 5a 00 00 	lea    0x5a73(%rip),%rsi        # 13b9c <g_1899+0xb1c>
    e129:	48 89 cf             	mov    %rcx,%rdi
    e12c:	e8 c2 95 ff ff       	callq  76f3 <transparent_crc>
    e131:	8b 05 a5 a4 00 00    	mov    0xa4a5(%rip),%eax        # 185dc <g_423+0xc>
    e137:	c1 e8 0e             	shr    $0xe,%eax
    e13a:	66 25 ff 01          	and    $0x1ff,%ax
    e13e:	0f b7 c0             	movzwl %ax,%eax
    e141:	8b 55 fc             	mov    -0x4(%rbp),%edx
    e144:	48 8d 35 5a 5a 00 00 	lea    0x5a5a(%rip),%rsi        # 13ba5 <g_1899+0xb25>
    e14b:	48 89 c7             	mov    %rax,%rdi
    e14e:	e8 a0 95 ff ff       	callq  76f3 <transparent_crc>
    e153:	48 8b 05 7e a4 00 00 	mov    0xa47e(%rip),%rax        # 185d8 <g_423+0x8>
    e15a:	48 c1 f8 37          	sar    $0x37,%rax
    e15e:	48 0f bf c0          	movswq %ax,%rax
    e162:	8b 55 fc             	mov    -0x4(%rbp),%edx
    e165:	48 8d 35 42 5a 00 00 	lea    0x5a42(%rip),%rsi        # 13bae <g_1899+0xb2e>
    e16c:	48 89 c7             	mov    %rax,%rdi
    e16f:	e8 7f 95 ff ff       	callq  76f3 <transparent_crc>
    e174:	48 8b 05 65 a4 00 00 	mov    0xa465(%rip),%rax        # 185e0 <g_423+0x10>
    e17b:	25 ff ff ff 3f       	and    $0x3fffffff,%eax
    e180:	89 c1                	mov    %eax,%ecx
    e182:	8b 45 fc             	mov    -0x4(%rbp),%eax
    e185:	89 c2                	mov    %eax,%edx
    e187:	48 8d 35 29 5a 00 00 	lea    0x5a29(%rip),%rsi        # 13bb7 <g_1899+0xb37>
    e18e:	48 89 cf             	mov    %rcx,%rdi
    e191:	e8 5d 95 ff ff       	callq  76f3 <transparent_crc>
    e196:	48 8b 05 63 a4 00 00 	mov    0xa463(%rip),%rax        # 18600 <g_465>
    e19d:	c1 e0 05             	shl    $0x5,%eax
    e1a0:	c1 f8 05             	sar    $0x5,%eax
    e1a3:	48 98                	cltq   
    e1a5:	8b 55 fc             	mov    -0x4(%rbp),%edx
    e1a8:	48 8d 35 11 5a 00 00 	lea    0x5a11(%rip),%rsi        # 13bc0 <g_1899+0xb40>
    e1af:	48 89 c7             	mov    %rax,%rdi
    e1b2:	e8 3c 95 ff ff       	callq  76f3 <transparent_crc>
    e1b7:	8b 05 47 a4 00 00    	mov    0xa447(%rip),%eax        # 18604 <g_465+0x4>
    e1bd:	89 c1                	mov    %eax,%ecx
    e1bf:	8b 45 fc             	mov    -0x4(%rbp),%eax
    e1c2:	89 c2                	mov    %eax,%edx
    e1c4:	48 8d 35 04 5a 00 00 	lea    0x5a04(%rip),%rsi        # 13bcf <g_1899+0xb4f>
    e1cb:	48 89 cf             	mov    %rcx,%rdi
    e1ce:	e8 20 95 ff ff       	callq  76f3 <transparent_crc>
    e1d3:	48 8b 05 2e a4 00 00 	mov    0xa42e(%rip),%rax        # 18608 <g_465+0x8>
    e1da:	c1 e0 02             	shl    $0x2,%eax
    e1dd:	c0 f8 02             	sar    $0x2,%al
    e1e0:	48 0f be c0          	movsbq %al,%rax
    e1e4:	8b 55 fc             	mov    -0x4(%rbp),%edx
    e1e7:	48 8d 35 f0 59 00 00 	lea    0x59f0(%rip),%rsi        # 13bde <g_1899+0xb5e>
    e1ee:	48 89 c7             	mov    %rax,%rdi
    e1f1:	e8 fd 94 ff ff       	callq  76f3 <transparent_crc>
    e1f6:	0f b6 05 0c a4 00 00 	movzbl 0xa40c(%rip),%eax        # 18609 <g_465+0x9>
    e1fd:	0f b6 c0             	movzbl %al,%eax
    e200:	8b 55 fc             	mov    -0x4(%rbp),%edx
    e203:	48 8d 35 e3 59 00 00 	lea    0x59e3(%rip),%rsi        # 13bed <g_1899+0xb6d>
    e20a:	48 89 c7             	mov    %rax,%rdi
    e20d:	e8 e1 94 ff ff       	callq  76f3 <transparent_crc>
    e212:	48 8b 05 ef a3 00 00 	mov    0xa3ef(%rip),%rax        # 18608 <g_465+0x8>
    e219:	48 c1 e8 10          	shr    $0x10,%rax
    e21d:	25 ff ff ff 3f       	and    $0x3fffffff,%eax
    e222:	89 c1                	mov    %eax,%ecx
    e224:	8b 45 fc             	mov    -0x4(%rbp),%eax
    e227:	89 c2                	mov    %eax,%edx
    e229:	48 8d 35 cc 59 00 00 	lea    0x59cc(%rip),%rsi        # 13bfc <g_1899+0xb7c>
    e230:	48 89 cf             	mov    %rcx,%rdi
    e233:	e8 bb 94 ff ff       	callq  76f3 <transparent_crc>
    e238:	48 8b 05 c9 a3 00 00 	mov    0xa3c9(%rip),%rax        # 18608 <g_465+0x8>
    e23f:	48 c1 e8 2e          	shr    $0x2e,%rax
    e243:	66 25 ff 01          	and    $0x1ff,%ax
    e247:	0f b7 c0             	movzwl %ax,%eax
    e24a:	8b 55 fc             	mov    -0x4(%rbp),%edx
    e24d:	48 8d 35 b7 59 00 00 	lea    0x59b7(%rip),%rsi        # 13c0b <g_1899+0xb8b>
    e254:	48 89 c7             	mov    %rax,%rdi
    e257:	e8 97 94 ff ff       	callq  76f3 <transparent_crc>
    e25c:	48 8b 05 a5 a3 00 00 	mov    0xa3a5(%rip),%rax        # 18608 <g_465+0x8>
    e263:	48 c1 f8 37          	sar    $0x37,%rax
    e267:	48 0f bf c0          	movswq %ax,%rax
    e26b:	8b 55 fc             	mov    -0x4(%rbp),%edx
    e26e:	48 8d 35 a5 59 00 00 	lea    0x59a5(%rip),%rsi        # 13c1a <g_1899+0xb9a>
    e275:	48 89 c7             	mov    %rax,%rdi
    e278:	e8 76 94 ff ff       	callq  76f3 <transparent_crc>
    e27d:	48 8b 05 8c a3 00 00 	mov    0xa38c(%rip),%rax        # 18610 <g_465+0x10>
    e284:	25 ff ff ff 3f       	and    $0x3fffffff,%eax
    e289:	89 c1                	mov    %eax,%ecx
    e28b:	8b 45 fc             	mov    -0x4(%rbp),%eax
    e28e:	89 c2                	mov    %eax,%edx
    e290:	48 8d 35 92 59 00 00 	lea    0x5992(%rip),%rsi        # 13c29 <g_1899+0xba9>
    e297:	48 89 cf             	mov    %rcx,%rdi
    e29a:	e8 54 94 ff ff       	callq  76f3 <transparent_crc>
    e29f:	0f b6 05 6e a3 00 00 	movzbl 0xa36e(%rip),%eax        # 18614 <g_465+0x14>
    e2a6:	48 0f be c0          	movsbq %al,%rax
    e2aa:	8b 55 fc             	mov    -0x4(%rbp),%edx
    e2ad:	48 8d 35 84 59 00 00 	lea    0x5984(%rip),%rsi        # 13c38 <g_1899+0xbb8>
    e2b4:	48 89 c7             	mov    %rax,%rdi
    e2b7:	e8 37 94 ff ff       	callq  76f3 <transparent_crc>
    e2bc:	48 8b 05 4d a3 00 00 	mov    0xa34d(%rip),%rax        # 18610 <g_465+0x10>
    e2c3:	48 c1 e0 0f          	shl    $0xf,%rax
    e2c7:	48 c1 f8 37          	sar    $0x37,%rax
    e2cb:	48 0f bf c0          	movswq %ax,%rax
    e2cf:	8b 55 fc             	mov    -0x4(%rbp),%edx
    e2d2:	48 8d 35 68 59 00 00 	lea    0x5968(%rip),%rsi        # 13c41 <g_1899+0xbc1>
    e2d9:	48 89 c7             	mov    %rax,%rdi
    e2dc:	e8 12 94 ff ff       	callq  76f3 <transparent_crc>
    e2e1:	0f b7 05 30 a3 00 00 	movzwl 0xa330(%rip),%eax        # 18618 <g_465+0x18>
    e2e8:	48 0f bf c0          	movswq %ax,%rax
    e2ec:	8b 55 fc             	mov    -0x4(%rbp),%edx
    e2ef:	48 8d 35 54 59 00 00 	lea    0x5954(%rip),%rsi        # 13c4a <g_1899+0xbca>
    e2f6:	48 89 c7             	mov    %rax,%rdi
    e2f9:	e8 f5 93 ff ff       	callq  76f3 <transparent_crc>
    e2fe:	0f b6 05 15 a3 00 00 	movzbl 0xa315(%rip),%eax        # 1861a <g_465+0x1a>
    e305:	48 0f be c0          	movsbq %al,%rax
    e309:	8b 55 fc             	mov    -0x4(%rbp),%edx
    e30c:	48 8d 35 40 59 00 00 	lea    0x5940(%rip),%rsi        # 13c53 <g_1899+0xbd3>
    e313:	48 89 c7             	mov    %rax,%rdi
    e316:	e8 d8 93 ff ff       	callq  76f3 <transparent_crc>
    e31b:	0f b6 05 f9 a2 00 00 	movzbl 0xa2f9(%rip),%eax        # 1861b <g_465+0x1b>
    e322:	48 0f be c0          	movsbq %al,%rax
    e326:	8b 55 fc             	mov    -0x4(%rbp),%edx
    e329:	48 8d 35 2c 59 00 00 	lea    0x592c(%rip),%rsi        # 13c5c <g_1899+0xbdc>
    e330:	48 89 c7             	mov    %rax,%rdi
    e333:	e8 bb 93 ff ff       	callq  76f3 <transparent_crc>
    e338:	8b 05 de a2 00 00    	mov    0xa2de(%rip),%eax        # 1861c <g_465+0x1c>
    e33e:	89 c1                	mov    %eax,%ecx
    e340:	8b 45 fc             	mov    -0x4(%rbp),%eax
    e343:	89 c2                	mov    %eax,%edx
    e345:	48 8d 35 19 59 00 00 	lea    0x5919(%rip),%rsi        # 13c65 <g_1899+0xbe5>
    e34c:	48 89 cf             	mov    %rcx,%rdi
    e34f:	e8 9f 93 ff ff       	callq  76f3 <transparent_crc>
    e354:	0f b7 05 c5 a2 00 00 	movzwl 0xa2c5(%rip),%eax        # 18620 <g_465+0x20>
    e35b:	0f b7 c0             	movzwl %ax,%eax
    e35e:	8b 55 fc             	mov    -0x4(%rbp),%edx
    e361:	48 8d 35 06 59 00 00 	lea    0x5906(%rip),%rsi        # 13c6e <g_1899+0xbee>
    e368:	48 89 c7             	mov    %rax,%rdi
    e36b:	e8 83 93 ff ff       	callq  76f3 <transparent_crc>
    e370:	0f b7 05 ab a2 00 00 	movzwl 0xa2ab(%rip),%eax        # 18622 <g_465+0x22>
    e377:	48 0f bf c0          	movswq %ax,%rax
    e37b:	8b 55 fc             	mov    -0x4(%rbp),%edx
    e37e:	48 8d 35 f2 58 00 00 	lea    0x58f2(%rip),%rsi        # 13c77 <g_1899+0xbf7>
    e385:	48 89 c7             	mov    %rax,%rdi
    e388:	e8 66 93 ff ff       	callq  76f3 <transparent_crc>
    e38d:	48 8b 05 8c a2 00 00 	mov    0xa28c(%rip),%rax        # 18620 <g_465+0x20>
    e394:	48 c1 e0 0f          	shl    $0xf,%rax
    e398:	48 c1 f8 2f          	sar    $0x2f,%rax
    e39c:	48 98                	cltq   
    e39e:	8b 55 fc             	mov    -0x4(%rbp),%edx
    e3a1:	48 8d 35 d8 58 00 00 	lea    0x58d8(%rip),%rsi        # 13c80 <g_1899+0xc00>
    e3a8:	48 89 c7             	mov    %rax,%rdi
    e3ab:	e8 43 93 ff ff       	callq  76f3 <transparent_crc>
    e3b0:	48 8b 05 89 a2 00 00 	mov    0xa289(%rip),%rax        # 18640 <g_474>
    e3b7:	c1 e0 05             	shl    $0x5,%eax
    e3ba:	c1 f8 05             	sar    $0x5,%eax
    e3bd:	48 98                	cltq   
    e3bf:	8b 55 fc             	mov    -0x4(%rbp),%edx
    e3c2:	48 8d 35 c0 58 00 00 	lea    0x58c0(%rip),%rsi        # 13c89 <g_1899+0xc09>
    e3c9:	48 89 c7             	mov    %rax,%rdi
    e3cc:	e8 22 93 ff ff       	callq  76f3 <transparent_crc>
    e3d1:	8b 05 6d a2 00 00    	mov    0xa26d(%rip),%eax        # 18644 <g_474+0x4>
    e3d7:	89 c1                	mov    %eax,%ecx
    e3d9:	8b 45 fc             	mov    -0x4(%rbp),%eax
    e3dc:	89 c2                	mov    %eax,%edx
    e3de:	48 8d 35 b3 58 00 00 	lea    0x58b3(%rip),%rsi        # 13c98 <g_1899+0xc18>
    e3e5:	48 89 cf             	mov    %rcx,%rdi
    e3e8:	e8 06 93 ff ff       	callq  76f3 <transparent_crc>
    e3ed:	48 8b 05 54 a2 00 00 	mov    0xa254(%rip),%rax        # 18648 <g_474+0x8>
    e3f4:	c1 e0 02             	shl    $0x2,%eax
    e3f7:	c0 f8 02             	sar    $0x2,%al
    e3fa:	48 0f be c0          	movsbq %al,%rax
    e3fe:	8b 55 fc             	mov    -0x4(%rbp),%edx
    e401:	48 8d 35 9f 58 00 00 	lea    0x589f(%rip),%rsi        # 13ca7 <g_1899+0xc27>
    e408:	48 89 c7             	mov    %rax,%rdi
    e40b:	e8 e3 92 ff ff       	callq  76f3 <transparent_crc>
    e410:	0f b6 05 32 a2 00 00 	movzbl 0xa232(%rip),%eax        # 18649 <g_474+0x9>
    e417:	0f b6 c0             	movzbl %al,%eax
    e41a:	8b 55 fc             	mov    -0x4(%rbp),%edx
    e41d:	48 8d 35 92 58 00 00 	lea    0x5892(%rip),%rsi        # 13cb6 <g_1899+0xc36>
    e424:	48 89 c7             	mov    %rax,%rdi
    e427:	e8 c7 92 ff ff       	callq  76f3 <transparent_crc>
    e42c:	48 8b 05 15 a2 00 00 	mov    0xa215(%rip),%rax        # 18648 <g_474+0x8>
    e433:	48 c1 e8 10          	shr    $0x10,%rax
    e437:	25 ff ff ff 3f       	and    $0x3fffffff,%eax
    e43c:	89 c1                	mov    %eax,%ecx
    e43e:	8b 45 fc             	mov    -0x4(%rbp),%eax
    e441:	89 c2                	mov    %eax,%edx
    e443:	48 8d 35 7b 58 00 00 	lea    0x587b(%rip),%rsi        # 13cc5 <g_1899+0xc45>
    e44a:	48 89 cf             	mov    %rcx,%rdi
    e44d:	e8 a1 92 ff ff       	callq  76f3 <transparent_crc>
    e452:	48 8b 05 ef a1 00 00 	mov    0xa1ef(%rip),%rax        # 18648 <g_474+0x8>
    e459:	48 c1 e8 2e          	shr    $0x2e,%rax
    e45d:	66 25 ff 01          	and    $0x1ff,%ax
    e461:	0f b7 c0             	movzwl %ax,%eax
    e464:	8b 55 fc             	mov    -0x4(%rbp),%edx
    e467:	48 8d 35 66 58 00 00 	lea    0x5866(%rip),%rsi        # 13cd4 <g_1899+0xc54>
    e46e:	48 89 c7             	mov    %rax,%rdi
    e471:	e8 7d 92 ff ff       	callq  76f3 <transparent_crc>
    e476:	48 8b 05 cb a1 00 00 	mov    0xa1cb(%rip),%rax        # 18648 <g_474+0x8>
    e47d:	48 c1 f8 37          	sar    $0x37,%rax
    e481:	48 0f bf c0          	movswq %ax,%rax
    e485:	8b 55 fc             	mov    -0x4(%rbp),%edx
    e488:	48 8d 35 54 58 00 00 	lea    0x5854(%rip),%rsi        # 13ce3 <g_1899+0xc63>
    e48f:	48 89 c7             	mov    %rax,%rdi
    e492:	e8 5c 92 ff ff       	callq  76f3 <transparent_crc>
    e497:	48 8b 05 b2 a1 00 00 	mov    0xa1b2(%rip),%rax        # 18650 <g_474+0x10>
    e49e:	25 ff ff ff 3f       	and    $0x3fffffff,%eax
    e4a3:	89 c1                	mov    %eax,%ecx
    e4a5:	8b 45 fc             	mov    -0x4(%rbp),%eax
    e4a8:	89 c2                	mov    %eax,%edx
    e4aa:	48 8d 35 41 58 00 00 	lea    0x5841(%rip),%rsi        # 13cf2 <g_1899+0xc72>
    e4b1:	48 89 cf             	mov    %rcx,%rdi
    e4b4:	e8 3a 92 ff ff       	callq  76f3 <transparent_crc>
    e4b9:	0f b6 05 94 a1 00 00 	movzbl 0xa194(%rip),%eax        # 18654 <g_474+0x14>
    e4c0:	48 0f be c0          	movsbq %al,%rax
    e4c4:	8b 55 fc             	mov    -0x4(%rbp),%edx
    e4c7:	48 8d 35 33 58 00 00 	lea    0x5833(%rip),%rsi        # 13d01 <g_1899+0xc81>
    e4ce:	48 89 c7             	mov    %rax,%rdi
    e4d1:	e8 1d 92 ff ff       	callq  76f3 <transparent_crc>
    e4d6:	48 8b 05 73 a1 00 00 	mov    0xa173(%rip),%rax        # 18650 <g_474+0x10>
    e4dd:	48 c1 e0 0f          	shl    $0xf,%rax
    e4e1:	48 c1 f8 37          	sar    $0x37,%rax
    e4e5:	48 0f bf c0          	movswq %ax,%rax
    e4e9:	8b 55 fc             	mov    -0x4(%rbp),%edx
    e4ec:	48 8d 35 17 58 00 00 	lea    0x5817(%rip),%rsi        # 13d0a <g_1899+0xc8a>
    e4f3:	48 89 c7             	mov    %rax,%rdi
    e4f6:	e8 f8 91 ff ff       	callq  76f3 <transparent_crc>
    e4fb:	0f b7 05 56 a1 00 00 	movzwl 0xa156(%rip),%eax        # 18658 <g_474+0x18>
    e502:	48 0f bf c0          	movswq %ax,%rax
    e506:	8b 55 fc             	mov    -0x4(%rbp),%edx
    e509:	48 8d 35 03 58 00 00 	lea    0x5803(%rip),%rsi        # 13d13 <g_1899+0xc93>
    e510:	48 89 c7             	mov    %rax,%rdi
    e513:	e8 db 91 ff ff       	callq  76f3 <transparent_crc>
    e518:	0f b6 05 3b a1 00 00 	movzbl 0xa13b(%rip),%eax        # 1865a <g_474+0x1a>
    e51f:	48 0f be c0          	movsbq %al,%rax
    e523:	8b 55 fc             	mov    -0x4(%rbp),%edx
    e526:	48 8d 35 ef 57 00 00 	lea    0x57ef(%rip),%rsi        # 13d1c <g_1899+0xc9c>
    e52d:	48 89 c7             	mov    %rax,%rdi
    e530:	e8 be 91 ff ff       	callq  76f3 <transparent_crc>
    e535:	0f b6 05 1f a1 00 00 	movzbl 0xa11f(%rip),%eax        # 1865b <g_474+0x1b>
    e53c:	48 0f be c0          	movsbq %al,%rax
    e540:	8b 55 fc             	mov    -0x4(%rbp),%edx
    e543:	48 8d 35 db 57 00 00 	lea    0x57db(%rip),%rsi        # 13d25 <g_1899+0xca5>
    e54a:	48 89 c7             	mov    %rax,%rdi
    e54d:	e8 a1 91 ff ff       	callq  76f3 <transparent_crc>
    e552:	8b 05 04 a1 00 00    	mov    0xa104(%rip),%eax        # 1865c <g_474+0x1c>
    e558:	89 c1                	mov    %eax,%ecx
    e55a:	8b 45 fc             	mov    -0x4(%rbp),%eax
    e55d:	89 c2                	mov    %eax,%edx
    e55f:	48 8d 35 c8 57 00 00 	lea    0x57c8(%rip),%rsi        # 13d2e <g_1899+0xcae>
    e566:	48 89 cf             	mov    %rcx,%rdi
    e569:	e8 85 91 ff ff       	callq  76f3 <transparent_crc>
    e56e:	0f b7 05 eb a0 00 00 	movzwl 0xa0eb(%rip),%eax        # 18660 <g_474+0x20>
    e575:	0f b7 c0             	movzwl %ax,%eax
    e578:	8b 55 fc             	mov    -0x4(%rbp),%edx
    e57b:	48 8d 35 b5 57 00 00 	lea    0x57b5(%rip),%rsi        # 13d37 <g_1899+0xcb7>
    e582:	48 89 c7             	mov    %rax,%rdi
    e585:	e8 69 91 ff ff       	callq  76f3 <transparent_crc>
    e58a:	0f b7 05 d1 a0 00 00 	movzwl 0xa0d1(%rip),%eax        # 18662 <g_474+0x22>
    e591:	48 0f bf c0          	movswq %ax,%rax
    e595:	8b 55 fc             	mov    -0x4(%rbp),%edx
    e598:	48 8d 35 a1 57 00 00 	lea    0x57a1(%rip),%rsi        # 13d40 <g_1899+0xcc0>
    e59f:	48 89 c7             	mov    %rax,%rdi
    e5a2:	e8 4c 91 ff ff       	callq  76f3 <transparent_crc>
    e5a7:	8b 05 b7 a0 00 00    	mov    0xa0b7(%rip),%eax        # 18664 <g_474+0x24>
    e5ad:	c1 e0 0f             	shl    $0xf,%eax
    e5b0:	c1 f8 0f             	sar    $0xf,%eax
    e5b3:	48 98                	cltq   
    e5b5:	8b 55 fc             	mov    -0x4(%rbp),%edx
    e5b8:	48 8d 35 8a 57 00 00 	lea    0x578a(%rip),%rsi        # 13d49 <g_1899+0xcc9>
    e5bf:	48 89 c7             	mov    %rax,%rdi
    e5c2:	e8 2c 91 ff ff       	callq  76f3 <transparent_crc>
    e5c7:	8b 05 a3 a0 00 00    	mov    0xa0a3(%rip),%eax        # 18670 <g_477>
    e5cd:	c1 e0 05             	shl    $0x5,%eax
    e5d0:	c1 f8 05             	sar    $0x5,%eax
    e5d3:	48 98                	cltq   
    e5d5:	8b 55 fc             	mov    -0x4(%rbp),%edx
    e5d8:	48 8d 35 73 57 00 00 	lea    0x5773(%rip),%rsi        # 13d52 <g_1899+0xcd2>
    e5df:	48 89 c7             	mov    %rax,%rdi
    e5e2:	e8 0c 91 ff ff       	callq  76f3 <transparent_crc>
    e5e7:	8b 05 87 a0 00 00    	mov    0xa087(%rip),%eax        # 18674 <g_477+0x4>
    e5ed:	89 c1                	mov    %eax,%ecx
    e5ef:	8b 45 fc             	mov    -0x4(%rbp),%eax
    e5f2:	89 c2                	mov    %eax,%edx
    e5f4:	48 8d 35 60 57 00 00 	lea    0x5760(%rip),%rsi        # 13d5b <g_1899+0xcdb>
    e5fb:	48 89 cf             	mov    %rcx,%rdi
    e5fe:	e8 f0 90 ff ff       	callq  76f3 <transparent_crc>
    e603:	0f b6 05 6e a0 00 00 	movzbl 0xa06e(%rip),%eax        # 18678 <g_477+0x8>
    e60a:	c1 e0 02             	shl    $0x2,%eax
    e60d:	c0 f8 02             	sar    $0x2,%al
    e610:	48 0f be c0          	movsbq %al,%rax
    e614:	8b 55 fc             	mov    -0x4(%rbp),%edx
    e617:	48 8d 35 46 57 00 00 	lea    0x5746(%rip),%rsi        # 13d64 <g_1899+0xce4>
    e61e:	48 89 c7             	mov    %rax,%rdi
    e621:	e8 cd 90 ff ff       	callq  76f3 <transparent_crc>
    e626:	0f b6 05 4c a0 00 00 	movzbl 0xa04c(%rip),%eax        # 18679 <g_477+0x9>
    e62d:	0f b6 c0             	movzbl %al,%eax
    e630:	8b 55 fc             	mov    -0x4(%rbp),%edx
    e633:	48 8d 35 33 57 00 00 	lea    0x5733(%rip),%rsi        # 13d6d <g_1899+0xced>
    e63a:	48 89 c7             	mov    %rax,%rdi
    e63d:	e8 b1 90 ff ff       	callq  76f3 <transparent_crc>
    e642:	48 8b 05 2f a0 00 00 	mov    0xa02f(%rip),%rax        # 18678 <g_477+0x8>
    e649:	48 c1 e8 10          	shr    $0x10,%rax
    e64d:	25 ff ff ff 3f       	and    $0x3fffffff,%eax
    e652:	89 c1                	mov    %eax,%ecx
    e654:	8b 45 fc             	mov    -0x4(%rbp),%eax
    e657:	89 c2                	mov    %eax,%edx
    e659:	48 8d 35 16 57 00 00 	lea    0x5716(%rip),%rsi        # 13d76 <g_1899+0xcf6>
    e660:	48 89 cf             	mov    %rcx,%rdi
    e663:	e8 8b 90 ff ff       	callq  76f3 <transparent_crc>
    e668:	8b 05 0e a0 00 00    	mov    0xa00e(%rip),%eax        # 1867c <g_477+0xc>
    e66e:	c1 e8 0e             	shr    $0xe,%eax
    e671:	66 25 ff 01          	and    $0x1ff,%ax
    e675:	0f b7 c0             	movzwl %ax,%eax
    e678:	8b 55 fc             	mov    -0x4(%rbp),%edx
    e67b:	48 8d 35 fd 56 00 00 	lea    0x56fd(%rip),%rsi        # 13d7f <g_1899+0xcff>
    e682:	48 89 c7             	mov    %rax,%rdi
    e685:	e8 69 90 ff ff       	callq  76f3 <transparent_crc>
    e68a:	48 8b 05 e7 9f 00 00 	mov    0x9fe7(%rip),%rax        # 18678 <g_477+0x8>
    e691:	48 c1 f8 37          	sar    $0x37,%rax
    e695:	48 0f bf c0          	movswq %ax,%rax
    e699:	8b 55 fc             	mov    -0x4(%rbp),%edx
    e69c:	48 8d 35 e5 56 00 00 	lea    0x56e5(%rip),%rsi        # 13d88 <g_1899+0xd08>
    e6a3:	48 89 c7             	mov    %rax,%rdi
    e6a6:	e8 48 90 ff ff       	callq  76f3 <transparent_crc>
    e6ab:	48 8b 05 ce 9f 00 00 	mov    0x9fce(%rip),%rax        # 18680 <g_477+0x10>
    e6b2:	25 ff ff ff 3f       	and    $0x3fffffff,%eax
    e6b7:	89 c1                	mov    %eax,%ecx
    e6b9:	8b 45 fc             	mov    -0x4(%rbp),%eax
    e6bc:	89 c2                	mov    %eax,%edx
    e6be:	48 8d 35 cc 56 00 00 	lea    0x56cc(%rip),%rsi        # 13d91 <g_1899+0xd11>
    e6c5:	48 89 cf             	mov    %rcx,%rdi
    e6c8:	e8 26 90 ff ff       	callq  76f3 <transparent_crc>
    e6cd:	8b 05 b5 9f 00 00    	mov    0x9fb5(%rip),%eax        # 18688 <g_478>
    e6d3:	89 c1                	mov    %eax,%ecx
    e6d5:	8b 45 fc             	mov    -0x4(%rbp),%eax
    e6d8:	89 c2                	mov    %eax,%edx
    e6da:	48 8d 35 b9 56 00 00 	lea    0x56b9(%rip),%rsi        # 13d9a <g_1899+0xd1a>
    e6e1:	48 89 cf             	mov    %rcx,%rdi
    e6e4:	e8 0a 90 ff ff       	callq  76f3 <transparent_crc>
    e6e9:	0f b7 05 98 9f 00 00 	movzwl 0x9f98(%rip),%eax        # 18688 <g_478>
    e6f0:	0f b7 c0             	movzwl %ax,%eax
    e6f3:	8b 55 fc             	mov    -0x4(%rbp),%edx
    e6f6:	48 8d 35 a6 56 00 00 	lea    0x56a6(%rip),%rsi        # 13da3 <g_1899+0xd23>
    e6fd:	48 89 c7             	mov    %rax,%rdi
    e700:	e8 ee 8f ff ff       	callq  76f3 <transparent_crc>
    e705:	8b 05 7d 9f 00 00    	mov    0x9f7d(%rip),%eax        # 18688 <g_478>
    e70b:	48 98                	cltq   
    e70d:	8b 55 fc             	mov    -0x4(%rbp),%edx
    e710:	48 8d 35 95 56 00 00 	lea    0x5695(%rip),%rsi        # 13dac <g_1899+0xd2c>
    e717:	48 89 c7             	mov    %rax,%rdi
    e71a:	e8 d4 8f ff ff       	callq  76f3 <transparent_crc>
    e71f:	0f b6 05 6a 9f 00 00 	movzbl 0x9f6a(%rip),%eax        # 18690 <g_493>
    e726:	c1 e0 05             	shl    $0x5,%eax
    e729:	c0 f8 05             	sar    $0x5,%al
    e72c:	48 0f be c0          	movsbq %al,%rax
    e730:	8b 55 fc             	mov    -0x4(%rbp),%edx
    e733:	48 8d 35 7b 56 00 00 	lea    0x567b(%rip),%rsi        # 13db5 <g_1899+0xd35>
    e73a:	48 89 c7             	mov    %rax,%rdi
    e73d:	e8 b1 8f ff ff       	callq  76f3 <transparent_crc>
    e742:	0f b6 05 47 9f 00 00 	movzbl 0x9f47(%rip),%eax        # 18690 <g_493>
    e749:	c0 e8 03             	shr    $0x3,%al
    e74c:	0f b6 c0             	movzbl %al,%eax
    e74f:	8b 55 fc             	mov    -0x4(%rbp),%edx
    e752:	48 8d 35 65 56 00 00 	lea    0x5665(%rip),%rsi        # 13dbe <g_1899+0xd3e>
    e759:	48 89 c7             	mov    %rax,%rdi
    e75c:	e8 92 8f ff ff       	callq  76f3 <transparent_crc>
    e761:	8b 05 29 9f 00 00    	mov    0x9f29(%rip),%eax        # 18690 <g_493>
    e767:	c1 e0 0c             	shl    $0xc,%eax
    e76a:	c1 f8 14             	sar    $0x14,%eax
    e76d:	48 0f bf c0          	movswq %ax,%rax
    e771:	8b 55 fc             	mov    -0x4(%rbp),%edx
    e774:	48 8d 35 4c 56 00 00 	lea    0x564c(%rip),%rsi        # 13dc7 <g_1899+0xd47>
    e77b:	48 89 c7             	mov    %rax,%rdi
    e77e:	e8 70 8f ff ff       	callq  76f3 <transparent_crc>
    e783:	0f b7 05 08 9f 00 00 	movzwl 0x9f08(%rip),%eax        # 18692 <g_493+0x2>
    e78a:	66 c1 e8 04          	shr    $0x4,%ax
    e78e:	66 25 ff 01          	and    $0x1ff,%ax
    e792:	0f b7 c0             	movzwl %ax,%eax
    e795:	8b 55 fc             	mov    -0x4(%rbp),%edx
    e798:	48 8d 35 31 56 00 00 	lea    0x5631(%rip),%rsi        # 13dd0 <g_1899+0xd50>
    e79f:	48 89 c7             	mov    %rax,%rdi
    e7a2:	e8 4c 8f ff ff       	callq  76f3 <transparent_crc>
    e7a7:	8b 05 e7 9e 00 00    	mov    0x9ee7(%rip),%eax        # 18694 <g_493+0x4>
    e7ad:	c1 e0 0c             	shl    $0xc,%eax
    e7b0:	c1 f8 0c             	sar    $0xc,%eax
    e7b3:	48 98                	cltq   
    e7b5:	8b 55 fc             	mov    -0x4(%rbp),%edx
    e7b8:	48 8d 35 1a 56 00 00 	lea    0x561a(%rip),%rsi        # 13dd9 <g_1899+0xd59>
    e7bf:	48 89 c7             	mov    %rax,%rdi
    e7c2:	e8 2c 8f ff ff       	callq  76f3 <transparent_crc>
    e7c7:	48 8b 05 c2 9e 00 00 	mov    0x9ec2(%rip),%rax        # 18690 <g_493>
    e7ce:	48 c1 e0 06          	shl    $0x6,%rax
    e7d2:	48 c1 f8 3a          	sar    $0x3a,%rax
    e7d6:	48 0f be c0          	movsbq %al,%rax
    e7da:	8b 55 fc             	mov    -0x4(%rbp),%edx
    e7dd:	48 8d 35 fe 55 00 00 	lea    0x55fe(%rip),%rsi        # 13de2 <g_1899+0xd62>
    e7e4:	48 89 c7             	mov    %rax,%rdi
    e7e7:	e8 07 8f ff ff       	callq  76f3 <transparent_crc>
    e7ec:	0f b7 05 a5 9e 00 00 	movzwl 0x9ea5(%rip),%eax        # 18698 <g_493+0x8>
    e7f3:	c1 e0 04             	shl    $0x4,%eax
    e7f6:	66 c1 f8 04          	sar    $0x4,%ax
    e7fa:	48 0f bf c0          	movswq %ax,%rax
    e7fe:	8b 55 fc             	mov    -0x4(%rbp),%edx
    e801:	48 8d 35 e3 55 00 00 	lea    0x55e3(%rip),%rsi        # 13deb <g_1899+0xd6b>
    e808:	48 89 c7             	mov    %rax,%rdi
    e80b:	e8 e3 8e ff ff       	callq  76f3 <transparent_crc>
    e810:	8b 05 82 9e 00 00    	mov    0x9e82(%rip),%eax        # 18698 <g_493+0x8>
    e816:	c1 e0 0f             	shl    $0xf,%eax
    e819:	c1 f8 1b             	sar    $0x1b,%eax
    e81c:	48 0f be c0          	movsbq %al,%rax
    e820:	8b 55 fc             	mov    -0x4(%rbp),%edx
    e823:	48 8d 35 ca 55 00 00 	lea    0x55ca(%rip),%rsi        # 13df4 <g_1899+0xd74>
    e82a:	48 89 c7             	mov    %rax,%rdi
    e82d:	e8 c1 8e ff ff       	callq  76f3 <transparent_crc>
    e832:	0f b6 05 67 9e 00 00 	movzbl 0x9e67(%rip),%eax        # 186a0 <g_495>
    e839:	c1 e0 05             	shl    $0x5,%eax
    e83c:	c0 f8 05             	sar    $0x5,%al
    e83f:	48 0f be c0          	movsbq %al,%rax
    e843:	8b 55 fc             	mov    -0x4(%rbp),%edx
    e846:	48 8d 35 b0 55 00 00 	lea    0x55b0(%rip),%rsi        # 13dfd <g_1899+0xd7d>
    e84d:	48 89 c7             	mov    %rax,%rdi
    e850:	e8 9e 8e ff ff       	callq  76f3 <transparent_crc>
    e855:	0f b6 05 44 9e 00 00 	movzbl 0x9e44(%rip),%eax        # 186a0 <g_495>
    e85c:	c0 e8 03             	shr    $0x3,%al
    e85f:	0f b6 c0             	movzbl %al,%eax
    e862:	8b 55 fc             	mov    -0x4(%rbp),%edx
    e865:	48 8d 35 9a 55 00 00 	lea    0x559a(%rip),%rsi        # 13e06 <g_1899+0xd86>
    e86c:	48 89 c7             	mov    %rax,%rdi
    e86f:	e8 7f 8e ff ff       	callq  76f3 <transparent_crc>
    e874:	8b 05 26 9e 00 00    	mov    0x9e26(%rip),%eax        # 186a0 <g_495>
    e87a:	c1 e0 0c             	shl    $0xc,%eax
    e87d:	c1 f8 14             	sar    $0x14,%eax
    e880:	48 0f bf c0          	movswq %ax,%rax
    e884:	8b 55 fc             	mov    -0x4(%rbp),%edx
    e887:	48 8d 35 81 55 00 00 	lea    0x5581(%rip),%rsi        # 13e0f <g_1899+0xd8f>
    e88e:	48 89 c7             	mov    %rax,%rdi
    e891:	e8 5d 8e ff ff       	callq  76f3 <transparent_crc>
    e896:	0f b7 05 05 9e 00 00 	movzwl 0x9e05(%rip),%eax        # 186a2 <g_495+0x2>
    e89d:	66 c1 e8 04          	shr    $0x4,%ax
    e8a1:	66 25 ff 01          	and    $0x1ff,%ax
    e8a5:	0f b7 c0             	movzwl %ax,%eax
    e8a8:	8b 55 fc             	mov    -0x4(%rbp),%edx
    e8ab:	48 8d 35 66 55 00 00 	lea    0x5566(%rip),%rsi        # 13e18 <g_1899+0xd98>
    e8b2:	48 89 c7             	mov    %rax,%rdi
    e8b5:	e8 39 8e ff ff       	callq  76f3 <transparent_crc>
    e8ba:	8b 05 e4 9d 00 00    	mov    0x9de4(%rip),%eax        # 186a4 <g_495+0x4>
    e8c0:	c1 e0 0c             	shl    $0xc,%eax
    e8c3:	c1 f8 0c             	sar    $0xc,%eax
    e8c6:	48 98                	cltq   
    e8c8:	8b 55 fc             	mov    -0x4(%rbp),%edx
    e8cb:	48 8d 35 4f 55 00 00 	lea    0x554f(%rip),%rsi        # 13e21 <g_1899+0xda1>
    e8d2:	48 89 c7             	mov    %rax,%rdi
    e8d5:	e8 19 8e ff ff       	callq  76f3 <transparent_crc>
    e8da:	48 8b 05 bf 9d 00 00 	mov    0x9dbf(%rip),%rax        # 186a0 <g_495>
    e8e1:	48 c1 e0 06          	shl    $0x6,%rax
    e8e5:	48 c1 f8 3a          	sar    $0x3a,%rax
    e8e9:	48 0f be c0          	movsbq %al,%rax
    e8ed:	8b 55 fc             	mov    -0x4(%rbp),%edx
    e8f0:	48 8d 35 33 55 00 00 	lea    0x5533(%rip),%rsi        # 13e2a <g_1899+0xdaa>
    e8f7:	48 89 c7             	mov    %rax,%rdi
    e8fa:	e8 f4 8d ff ff       	callq  76f3 <transparent_crc>
    e8ff:	0f b7 05 a2 9d 00 00 	movzwl 0x9da2(%rip),%eax        # 186a8 <g_495+0x8>
    e906:	c1 e0 04             	shl    $0x4,%eax
    e909:	66 c1 f8 04          	sar    $0x4,%ax
    e90d:	48 0f bf c0          	movswq %ax,%rax
    e911:	8b 55 fc             	mov    -0x4(%rbp),%edx
    e914:	48 8d 35 18 55 00 00 	lea    0x5518(%rip),%rsi        # 13e33 <g_1899+0xdb3>
    e91b:	48 89 c7             	mov    %rax,%rdi
    e91e:	e8 d0 8d ff ff       	callq  76f3 <transparent_crc>
    e923:	8b 05 7f 9d 00 00    	mov    0x9d7f(%rip),%eax        # 186a8 <g_495+0x8>
    e929:	c1 e0 0f             	shl    $0xf,%eax
    e92c:	c1 f8 1b             	sar    $0x1b,%eax
    e92f:	48 0f be c0          	movsbq %al,%rax
    e933:	8b 55 fc             	mov    -0x4(%rbp),%edx
    e936:	48 8d 35 ff 54 00 00 	lea    0x54ff(%rip),%rsi        # 13e3c <g_1899+0xdbc>
    e93d:	48 89 c7             	mov    %rax,%rdi
    e940:	e8 ae 8d ff ff       	callq  76f3 <transparent_crc>
    e945:	c7 45 f0 00 00 00 00 	movl   $0x0,-0x10(%rbp)
    e94c:	eb 7a                	jmp    e9c8 <main+0x1e58>
    e94e:	8b 45 f0             	mov    -0x10(%rbp),%eax
    e951:	48 98                	cltq   
    e953:	48 8d 14 c5 00 00 00 	lea    0x0(,%rax,8),%rdx
    e95a:	00 
    e95b:	48 8d 05 5e 9d 00 00 	lea    0x9d5e(%rip),%rax        # 186c0 <g_498>
    e962:	8b 04 02             	mov    (%rdx,%rax,1),%eax
    e965:	89 c1                	mov    %eax,%ecx
    e967:	8b 45 fc             	mov    -0x4(%rbp),%eax
    e96a:	89 c2                	mov    %eax,%edx
    e96c:	48 8d 35 d2 54 00 00 	lea    0x54d2(%rip),%rsi        # 13e45 <g_1899+0xdc5>
    e973:	48 89 cf             	mov    %rcx,%rdi
    e976:	e8 78 8d ff ff       	callq  76f3 <transparent_crc>
    e97b:	8b 45 f0             	mov    -0x10(%rbp),%eax
    e97e:	48 98                	cltq   
    e980:	48 8d 14 c5 00 00 00 	lea    0x0(,%rax,8),%rdx
    e987:	00 
    e988:	48 8d 05 35 9d 00 00 	lea    0x9d35(%rip),%rax        # 186c4 <g_498+0x4>
    e98f:	0f b6 04 02          	movzbl (%rdx,%rax,1),%eax
    e993:	0f b6 c0             	movzbl %al,%eax
    e996:	8b 55 fc             	mov    -0x4(%rbp),%edx
    e999:	48 8d 35 b1 54 00 00 	lea    0x54b1(%rip),%rsi        # 13e51 <g_1899+0xdd1>
    e9a0:	48 89 c7             	mov    %rax,%rdi
    e9a3:	e8 4b 8d ff ff       	callq  76f3 <transparent_crc>
    e9a8:	83 7d fc 00          	cmpl   $0x0,-0x4(%rbp)
    e9ac:	74 16                	je     e9c4 <main+0x1e54>
    e9ae:	8b 45 f0             	mov    -0x10(%rbp),%eax
    e9b1:	89 c6                	mov    %eax,%esi
    e9b3:	48 8d 3d d3 4b 00 00 	lea    0x4bd3(%rip),%rdi        # 1358d <g_1899+0x50d>
    e9ba:	b8 00 00 00 00       	mov    $0x0,%eax
    e9bf:	e8 bc 76 ff ff       	callq  6080 <printf@plt>
    e9c4:	83 45 f0 01          	addl   $0x1,-0x10(%rbp)
    e9c8:	83 7d f0 05          	cmpl   $0x5,-0x10(%rbp)
    e9cc:	7e 80                	jle    e94e <main+0x1dde>
    e9ce:	c7 45 f0 00 00 00 00 	movl   $0x0,-0x10(%rbp)
    e9d5:	eb 4f                	jmp    ea26 <main+0x1eb6>
    e9d7:	8b 45 f0             	mov    -0x10(%rbp),%eax
    e9da:	48 98                	cltq   
    e9dc:	48 8d 14 c5 00 00 00 	lea    0x0(,%rax,8),%rdx
    e9e3:	00 
    e9e4:	48 8d 05 15 9d 00 00 	lea    0x9d15(%rip),%rax        # 18700 <g_591>
    e9eb:	48 8b 04 02          	mov    (%rdx,%rax,1),%rax
    e9ef:	48 89 c1             	mov    %rax,%rcx
    e9f2:	8b 45 fc             	mov    -0x4(%rbp),%eax
    e9f5:	89 c2                	mov    %eax,%edx
    e9f7:	48 8d 35 5f 54 00 00 	lea    0x545f(%rip),%rsi        # 13e5d <g_1899+0xddd>
    e9fe:	48 89 cf             	mov    %rcx,%rdi
    ea01:	e8 ed 8c ff ff       	callq  76f3 <transparent_crc>
    ea06:	83 7d fc 00          	cmpl   $0x0,-0x4(%rbp)
    ea0a:	74 16                	je     ea22 <main+0x1eb2>
    ea0c:	8b 45 f0             	mov    -0x10(%rbp),%eax
    ea0f:	89 c6                	mov    %eax,%esi
    ea11:	48 8d 3d 75 4b 00 00 	lea    0x4b75(%rip),%rdi        # 1358d <g_1899+0x50d>
    ea18:	b8 00 00 00 00       	mov    $0x0,%eax
    ea1d:	e8 5e 76 ff ff       	callq  6080 <printf@plt>
    ea22:	83 45 f0 01          	addl   $0x1,-0x10(%rbp)
    ea26:	83 7d f0 05          	cmpl   $0x5,-0x10(%rbp)
    ea2a:	7e ab                	jle    e9d7 <main+0x1e67>
    ea2c:	c7 45 f0 00 00 00 00 	movl   $0x0,-0x10(%rbp)
    ea33:	e9 9c 05 00 00       	jmpq   efd4 <main+0x2464>
    ea38:	c7 45 f4 00 00 00 00 	movl   $0x0,-0xc(%rbp)
    ea3f:	e9 82 05 00 00       	jmpq   efc6 <main+0x2456>
    ea44:	8b 45 f4             	mov    -0xc(%rbp),%eax
    ea47:	48 63 d0             	movslq %eax,%rdx
    ea4a:	8b 45 f0             	mov    -0x10(%rbp),%eax
    ea4d:	48 63 c8             	movslq %eax,%rcx
    ea50:	48 89 d0             	mov    %rdx,%rax
    ea53:	48 c1 e0 02          	shl    $0x2,%rax
    ea57:	48 01 d0             	add    %rdx,%rax
    ea5a:	48 c1 e0 03          	shl    $0x3,%rax
    ea5e:	48 89 ca             	mov    %rcx,%rdx
    ea61:	48 c1 e2 04          	shl    $0x4,%rdx
    ea65:	48 29 ca             	sub    %rcx,%rdx
    ea68:	48 c1 e2 03          	shl    $0x3,%rdx
    ea6c:	48 01 c2             	add    %rax,%rdx
    ea6f:	48 8d 05 ca 9c 00 00 	lea    0x9cca(%rip),%rax        # 18740 <g_624>
    ea76:	48 01 d0             	add    %rdx,%rax
    ea79:	48 8b 00             	mov    (%rax),%rax
    ea7c:	c1 e0 05             	shl    $0x5,%eax
    ea7f:	c1 f8 05             	sar    $0x5,%eax
    ea82:	48 98                	cltq   
    ea84:	8b 55 fc             	mov    -0x4(%rbp),%edx
    ea87:	48 8d 35 d8 53 00 00 	lea    0x53d8(%rip),%rsi        # 13e66 <g_1899+0xde6>
    ea8e:	48 89 c7             	mov    %rax,%rdi
    ea91:	e8 5d 8c ff ff       	callq  76f3 <transparent_crc>
    ea96:	8b 45 f4             	mov    -0xc(%rbp),%eax
    ea99:	48 63 d0             	movslq %eax,%rdx
    ea9c:	8b 45 f0             	mov    -0x10(%rbp),%eax
    ea9f:	48 63 c8             	movslq %eax,%rcx
    eaa2:	48 89 d0             	mov    %rdx,%rax
    eaa5:	48 c1 e0 02          	shl    $0x2,%rax
    eaa9:	48 01 d0             	add    %rdx,%rax
    eaac:	48 c1 e0 03          	shl    $0x3,%rax
    eab0:	48 89 ca             	mov    %rcx,%rdx
    eab3:	48 c1 e2 04          	shl    $0x4,%rdx
    eab7:	48 29 ca             	sub    %rcx,%rdx
    eaba:	48 c1 e2 03          	shl    $0x3,%rdx
    eabe:	48 01 c2             	add    %rax,%rdx
    eac1:	48 8d 05 7c 9c 00 00 	lea    0x9c7c(%rip),%rax        # 18744 <g_624+0x4>
    eac8:	48 01 d0             	add    %rdx,%rax
    eacb:	8b 00                	mov    (%rax),%eax
    eacd:	89 c1                	mov    %eax,%ecx
    eacf:	8b 45 fc             	mov    -0x4(%rbp),%eax
    ead2:	89 c2                	mov    %eax,%edx
    ead4:	48 8d 35 a0 53 00 00 	lea    0x53a0(%rip),%rsi        # 13e7b <g_1899+0xdfb>
    eadb:	48 89 cf             	mov    %rcx,%rdi
    eade:	e8 10 8c ff ff       	callq  76f3 <transparent_crc>
    eae3:	8b 45 f4             	mov    -0xc(%rbp),%eax
    eae6:	48 63 d0             	movslq %eax,%rdx
    eae9:	8b 45 f0             	mov    -0x10(%rbp),%eax
    eaec:	48 63 c8             	movslq %eax,%rcx
    eaef:	48 89 d0             	mov    %rdx,%rax
    eaf2:	48 c1 e0 02          	shl    $0x2,%rax
    eaf6:	48 01 d0             	add    %rdx,%rax
    eaf9:	48 c1 e0 03          	shl    $0x3,%rax
    eafd:	48 89 ca             	mov    %rcx,%rdx
    eb00:	48 c1 e2 04          	shl    $0x4,%rdx
    eb04:	48 29 ca             	sub    %rcx,%rdx
    eb07:	48 c1 e2 03          	shl    $0x3,%rdx
    eb0b:	48 01 c2             	add    %rax,%rdx
    eb0e:	48 8d 05 2b 9c 00 00 	lea    0x9c2b(%rip),%rax        # 18740 <g_624>
    eb15:	48 01 d0             	add    %rdx,%rax
    eb18:	48 8b 40 08          	mov    0x8(%rax),%rax
    eb1c:	c1 e0 02             	shl    $0x2,%eax
    eb1f:	c0 f8 02             	sar    $0x2,%al
    eb22:	48 0f be c0          	movsbq %al,%rax
    eb26:	8b 55 fc             	mov    -0x4(%rbp),%edx
    eb29:	48 8d 35 60 53 00 00 	lea    0x5360(%rip),%rsi        # 13e90 <g_1899+0xe10>
    eb30:	48 89 c7             	mov    %rax,%rdi
    eb33:	e8 bb 8b ff ff       	callq  76f3 <transparent_crc>
    eb38:	8b 45 f4             	mov    -0xc(%rbp),%eax
    eb3b:	48 63 d0             	movslq %eax,%rdx
    eb3e:	8b 45 f0             	mov    -0x10(%rbp),%eax
    eb41:	48 63 c8             	movslq %eax,%rcx
    eb44:	48 89 d0             	mov    %rdx,%rax
    eb47:	48 c1 e0 02          	shl    $0x2,%rax
    eb4b:	48 01 d0             	add    %rdx,%rax
    eb4e:	48 c1 e0 03          	shl    $0x3,%rax
    eb52:	48 89 ca             	mov    %rcx,%rdx
    eb55:	48 c1 e2 04          	shl    $0x4,%rdx
    eb59:	48 29 ca             	sub    %rcx,%rdx
    eb5c:	48 c1 e2 03          	shl    $0x3,%rdx
    eb60:	48 01 c2             	add    %rax,%rdx
    eb63:	48 8d 05 df 9b 00 00 	lea    0x9bdf(%rip),%rax        # 18749 <g_624+0x9>
    eb6a:	48 01 d0             	add    %rdx,%rax
    eb6d:	0f b6 00             	movzbl (%rax),%eax
    eb70:	0f b6 c0             	movzbl %al,%eax
    eb73:	8b 55 fc             	mov    -0x4(%rbp),%edx
    eb76:	48 8d 35 28 53 00 00 	lea    0x5328(%rip),%rsi        # 13ea5 <g_1899+0xe25>
    eb7d:	48 89 c7             	mov    %rax,%rdi
    eb80:	e8 6e 8b ff ff       	callq  76f3 <transparent_crc>
    eb85:	8b 45 f4             	mov    -0xc(%rbp),%eax
    eb88:	48 63 d0             	movslq %eax,%rdx
    eb8b:	8b 45 f0             	mov    -0x10(%rbp),%eax
    eb8e:	48 63 c8             	movslq %eax,%rcx
    eb91:	48 89 d0             	mov    %rdx,%rax
    eb94:	48 c1 e0 02          	shl    $0x2,%rax
    eb98:	48 01 d0             	add    %rdx,%rax
    eb9b:	48 c1 e0 03          	shl    $0x3,%rax
    eb9f:	48 89 ca             	mov    %rcx,%rdx
    eba2:	48 c1 e2 04          	shl    $0x4,%rdx
    eba6:	48 29 ca             	sub    %rcx,%rdx
    eba9:	48 c1 e2 03          	shl    $0x3,%rdx
    ebad:	48 01 c2             	add    %rax,%rdx
    ebb0:	48 8d 05 89 9b 00 00 	lea    0x9b89(%rip),%rax        # 18740 <g_624>
    ebb7:	48 01 d0             	add    %rdx,%rax
    ebba:	48 8b 40 08          	mov    0x8(%rax),%rax
    ebbe:	48 c1 e8 10          	shr    $0x10,%rax
    ebc2:	25 ff ff ff 3f       	and    $0x3fffffff,%eax
    ebc7:	89 c1                	mov    %eax,%ecx
    ebc9:	8b 45 fc             	mov    -0x4(%rbp),%eax
    ebcc:	89 c2                	mov    %eax,%edx
    ebce:	48 8d 35 e5 52 00 00 	lea    0x52e5(%rip),%rsi        # 13eba <g_1899+0xe3a>
    ebd5:	48 89 cf             	mov    %rcx,%rdi
    ebd8:	e8 16 8b ff ff       	callq  76f3 <transparent_crc>
    ebdd:	8b 45 f4             	mov    -0xc(%rbp),%eax
    ebe0:	48 63 d0             	movslq %eax,%rdx
    ebe3:	8b 45 f0             	mov    -0x10(%rbp),%eax
    ebe6:	48 63 c8             	movslq %eax,%rcx
    ebe9:	48 89 d0             	mov    %rdx,%rax
    ebec:	48 c1 e0 02          	shl    $0x2,%rax
    ebf0:	48 01 d0             	add    %rdx,%rax
    ebf3:	48 c1 e0 03          	shl    $0x3,%rax
    ebf7:	48 89 ca             	mov    %rcx,%rdx
    ebfa:	48 c1 e2 04          	shl    $0x4,%rdx
    ebfe:	48 29 ca             	sub    %rcx,%rdx
    ec01:	48 c1 e2 03          	shl    $0x3,%rdx
    ec05:	48 01 c2             	add    %rax,%rdx
    ec08:	48 8d 05 31 9b 00 00 	lea    0x9b31(%rip),%rax        # 18740 <g_624>
    ec0f:	48 01 d0             	add    %rdx,%rax
    ec12:	48 8b 40 08          	mov    0x8(%rax),%rax
    ec16:	48 c1 e8 2e          	shr    $0x2e,%rax
    ec1a:	66 25 ff 01          	and    $0x1ff,%ax
    ec1e:	0f b7 c0             	movzwl %ax,%eax
    ec21:	8b 55 fc             	mov    -0x4(%rbp),%edx
    ec24:	48 8d 35 a4 52 00 00 	lea    0x52a4(%rip),%rsi        # 13ecf <g_1899+0xe4f>
    ec2b:	48 89 c7             	mov    %rax,%rdi
    ec2e:	e8 c0 8a ff ff       	callq  76f3 <transparent_crc>
    ec33:	8b 45 f4             	mov    -0xc(%rbp),%eax
    ec36:	48 63 d0             	movslq %eax,%rdx
    ec39:	8b 45 f0             	mov    -0x10(%rbp),%eax
    ec3c:	48 63 c8             	movslq %eax,%rcx
    ec3f:	48 89 d0             	mov    %rdx,%rax
    ec42:	48 c1 e0 02          	shl    $0x2,%rax
    ec46:	48 01 d0             	add    %rdx,%rax
    ec49:	48 c1 e0 03          	shl    $0x3,%rax
    ec4d:	48 89 ca             	mov    %rcx,%rdx
    ec50:	48 c1 e2 04          	shl    $0x4,%rdx
    ec54:	48 29 ca             	sub    %rcx,%rdx
    ec57:	48 c1 e2 03          	shl    $0x3,%rdx
    ec5b:	48 01 c2             	add    %rax,%rdx
    ec5e:	48 8d 05 db 9a 00 00 	lea    0x9adb(%rip),%rax        # 18740 <g_624>
    ec65:	48 01 d0             	add    %rdx,%rax
    ec68:	48 8b 40 08          	mov    0x8(%rax),%rax
    ec6c:	48 c1 f8 37          	sar    $0x37,%rax
    ec70:	48 0f bf c0          	movswq %ax,%rax
    ec74:	8b 55 fc             	mov    -0x4(%rbp),%edx
    ec77:	48 8d 35 66 52 00 00 	lea    0x5266(%rip),%rsi        # 13ee4 <g_1899+0xe64>
    ec7e:	48 89 c7             	mov    %rax,%rdi
    ec81:	e8 6d 8a ff ff       	callq  76f3 <transparent_crc>
    ec86:	8b 45 f4             	mov    -0xc(%rbp),%eax
    ec89:	48 63 d0             	movslq %eax,%rdx
    ec8c:	8b 45 f0             	mov    -0x10(%rbp),%eax
    ec8f:	48 63 c8             	movslq %eax,%rcx
    ec92:	48 89 d0             	mov    %rdx,%rax
    ec95:	48 c1 e0 02          	shl    $0x2,%rax
    ec99:	48 01 d0             	add    %rdx,%rax
    ec9c:	48 c1 e0 03          	shl    $0x3,%rax
    eca0:	48 89 ca             	mov    %rcx,%rdx
    eca3:	48 c1 e2 04          	shl    $0x4,%rdx
    eca7:	48 29 ca             	sub    %rcx,%rdx
    ecaa:	48 c1 e2 03          	shl    $0x3,%rdx
    ecae:	48 01 c2             	add    %rax,%rdx
    ecb1:	48 8d 05 98 9a 00 00 	lea    0x9a98(%rip),%rax        # 18750 <g_624+0x10>
    ecb8:	48 01 d0             	add    %rdx,%rax
    ecbb:	48 8b 00             	mov    (%rax),%rax
    ecbe:	25 ff ff ff 3f       	and    $0x3fffffff,%eax
    ecc3:	89 c1                	mov    %eax,%ecx
    ecc5:	8b 45 fc             	mov    -0x4(%rbp),%eax
    ecc8:	89 c2                	mov    %eax,%edx
    ecca:	48 8d 35 28 52 00 00 	lea    0x5228(%rip),%rsi        # 13ef9 <g_1899+0xe79>
    ecd1:	48 89 cf             	mov    %rcx,%rdi
    ecd4:	e8 1a 8a ff ff       	callq  76f3 <transparent_crc>
    ecd9:	8b 45 f4             	mov    -0xc(%rbp),%eax
    ecdc:	48 63 d0             	movslq %eax,%rdx
    ecdf:	8b 45 f0             	mov    -0x10(%rbp),%eax
    ece2:	48 63 c8             	movslq %eax,%rcx
    ece5:	48 89 d0             	mov    %rdx,%rax
    ece8:	48 c1 e0 02          	shl    $0x2,%rax
    ecec:	48 01 d0             	add    %rdx,%rax
    ecef:	48 c1 e0 03          	shl    $0x3,%rax
    ecf3:	48 89 ca             	mov    %rcx,%rdx
    ecf6:	48 c1 e2 04          	shl    $0x4,%rdx
    ecfa:	48 29 ca             	sub    %rcx,%rdx
    ecfd:	48 c1 e2 03          	shl    $0x3,%rdx
    ed01:	48 01 c2             	add    %rax,%rdx
    ed04:	48 8d 05 49 9a 00 00 	lea    0x9a49(%rip),%rax        # 18754 <g_624+0x14>
    ed0b:	48 01 d0             	add    %rdx,%rax
    ed0e:	0f b6 00             	movzbl (%rax),%eax
    ed11:	48 0f be c0          	movsbq %al,%rax
    ed15:	8b 55 fc             	mov    -0x4(%rbp),%edx
    ed18:	48 8d 35 ef 51 00 00 	lea    0x51ef(%rip),%rsi        # 13f0e <g_1899+0xe8e>
    ed1f:	48 89 c7             	mov    %rax,%rdi
    ed22:	e8 cc 89 ff ff       	callq  76f3 <transparent_crc>
    ed27:	8b 45 f4             	mov    -0xc(%rbp),%eax
    ed2a:	48 63 d0             	movslq %eax,%rdx
    ed2d:	8b 45 f0             	mov    -0x10(%rbp),%eax
    ed30:	48 63 c8             	movslq %eax,%rcx
    ed33:	48 89 d0             	mov    %rdx,%rax
    ed36:	48 c1 e0 02          	shl    $0x2,%rax
    ed3a:	48 01 d0             	add    %rdx,%rax
    ed3d:	48 c1 e0 03          	shl    $0x3,%rax
    ed41:	48 89 ca             	mov    %rcx,%rdx
    ed44:	48 c1 e2 04          	shl    $0x4,%rdx
    ed48:	48 29 ca             	sub    %rcx,%rdx
    ed4b:	48 c1 e2 03          	shl    $0x3,%rdx
    ed4f:	48 01 c2             	add    %rax,%rdx
    ed52:	48 8d 05 f7 99 00 00 	lea    0x99f7(%rip),%rax        # 18750 <g_624+0x10>
    ed59:	48 01 d0             	add    %rdx,%rax
    ed5c:	48 8b 00             	mov    (%rax),%rax
    ed5f:	48 c1 e0 0f          	shl    $0xf,%rax
    ed63:	48 c1 f8 37          	sar    $0x37,%rax
    ed67:	48 0f bf c0          	movswq %ax,%rax
    ed6b:	8b 55 fc             	mov    -0x4(%rbp),%edx
    ed6e:	48 8d 35 a8 51 00 00 	lea    0x51a8(%rip),%rsi        # 13f1d <g_1899+0xe9d>
    ed75:	48 89 c7             	mov    %rax,%rdi
    ed78:	e8 76 89 ff ff       	callq  76f3 <transparent_crc>
    ed7d:	8b 45 f4             	mov    -0xc(%rbp),%eax
    ed80:	48 63 d0             	movslq %eax,%rdx
    ed83:	8b 45 f0             	mov    -0x10(%rbp),%eax
    ed86:	48 63 c8             	movslq %eax,%rcx
    ed89:	48 89 d0             	mov    %rdx,%rax
    ed8c:	48 c1 e0 02          	shl    $0x2,%rax
    ed90:	48 01 d0             	add    %rdx,%rax
    ed93:	48 c1 e0 03          	shl    $0x3,%rax
    ed97:	48 89 ca             	mov    %rcx,%rdx
    ed9a:	48 c1 e2 04          	shl    $0x4,%rdx
    ed9e:	48 29 ca             	sub    %rcx,%rdx
    eda1:	48 c1 e2 03          	shl    $0x3,%rdx
    eda5:	48 01 c2             	add    %rax,%rdx
    eda8:	48 8d 05 a9 99 00 00 	lea    0x99a9(%rip),%rax        # 18758 <g_624+0x18>
    edaf:	48 01 d0             	add    %rdx,%rax
    edb2:	0f b7 00             	movzwl (%rax),%eax
    edb5:	48 0f bf c0          	movswq %ax,%rax
    edb9:	8b 55 fc             	mov    -0x4(%rbp),%edx
    edbc:	48 8d 35 69 51 00 00 	lea    0x5169(%rip),%rsi        # 13f2c <g_1899+0xeac>
    edc3:	48 89 c7             	mov    %rax,%rdi
    edc6:	e8 28 89 ff ff       	callq  76f3 <transparent_crc>
    edcb:	8b 45 f4             	mov    -0xc(%rbp),%eax
    edce:	48 63 d0             	movslq %eax,%rdx
    edd1:	8b 45 f0             	mov    -0x10(%rbp),%eax
    edd4:	48 63 c8             	movslq %eax,%rcx
    edd7:	48 89 d0             	mov    %rdx,%rax
    edda:	48 c1 e0 02          	shl    $0x2,%rax
    edde:	48 01 d0             	add    %rdx,%rax
    ede1:	48 c1 e0 03          	shl    $0x3,%rax
    ede5:	48 89 ca             	mov    %rcx,%rdx
    ede8:	48 c1 e2 04          	shl    $0x4,%rdx
    edec:	48 29 ca             	sub    %rcx,%rdx
    edef:	48 c1 e2 03          	shl    $0x3,%rdx
    edf3:	48 01 c2             	add    %rax,%rdx
    edf6:	48 8d 05 5d 99 00 00 	lea    0x995d(%rip),%rax        # 1875a <g_624+0x1a>
    edfd:	48 01 d0             	add    %rdx,%rax
    ee00:	0f b6 00             	movzbl (%rax),%eax
    ee03:	48 0f be c0          	movsbq %al,%rax
    ee07:	8b 55 fc             	mov    -0x4(%rbp),%edx
    ee0a:	48 8d 35 2a 51 00 00 	lea    0x512a(%rip),%rsi        # 13f3b <g_1899+0xebb>
    ee11:	48 89 c7             	mov    %rax,%rdi
    ee14:	e8 da 88 ff ff       	callq  76f3 <transparent_crc>
    ee19:	8b 45 f4             	mov    -0xc(%rbp),%eax
    ee1c:	48 63 d0             	movslq %eax,%rdx
    ee1f:	8b 45 f0             	mov    -0x10(%rbp),%eax
    ee22:	48 63 c8             	movslq %eax,%rcx
    ee25:	48 89 d0             	mov    %rdx,%rax
    ee28:	48 c1 e0 02          	shl    $0x2,%rax
    ee2c:	48 01 d0             	add    %rdx,%rax
    ee2f:	48 c1 e0 03          	shl    $0x3,%rax
    ee33:	48 89 ca             	mov    %rcx,%rdx
    ee36:	48 c1 e2 04          	shl    $0x4,%rdx
    ee3a:	48 29 ca             	sub    %rcx,%rdx
    ee3d:	48 c1 e2 03          	shl    $0x3,%rdx
    ee41:	48 01 c2             	add    %rax,%rdx
    ee44:	48 8d 05 10 99 00 00 	lea    0x9910(%rip),%rax        # 1875b <g_624+0x1b>
    ee4b:	48 01 d0             	add    %rdx,%rax
    ee4e:	0f b6 00             	movzbl (%rax),%eax
    ee51:	48 0f be c0          	movsbq %al,%rax
    ee55:	8b 55 fc             	mov    -0x4(%rbp),%edx
    ee58:	48 8d 35 eb 50 00 00 	lea    0x50eb(%rip),%rsi        # 13f4a <g_1899+0xeca>
    ee5f:	48 89 c7             	mov    %rax,%rdi
    ee62:	e8 8c 88 ff ff       	callq  76f3 <transparent_crc>
    ee67:	8b 45 f4             	mov    -0xc(%rbp),%eax
    ee6a:	48 63 d0             	movslq %eax,%rdx
    ee6d:	8b 45 f0             	mov    -0x10(%rbp),%eax
    ee70:	48 63 c8             	movslq %eax,%rcx
    ee73:	48 89 d0             	mov    %rdx,%rax
    ee76:	48 c1 e0 02          	shl    $0x2,%rax
    ee7a:	48 01 d0             	add    %rdx,%rax
    ee7d:	48 c1 e0 03          	shl    $0x3,%rax
    ee81:	48 89 ca             	mov    %rcx,%rdx
    ee84:	48 c1 e2 04          	shl    $0x4,%rdx
    ee88:	48 29 ca             	sub    %rcx,%rdx
    ee8b:	48 c1 e2 03          	shl    $0x3,%rdx
    ee8f:	48 01 c2             	add    %rax,%rdx
    ee92:	48 8d 05 c3 98 00 00 	lea    0x98c3(%rip),%rax        # 1875c <g_624+0x1c>
    ee99:	48 01 d0             	add    %rdx,%rax
    ee9c:	8b 00                	mov    (%rax),%eax
    ee9e:	89 c1                	mov    %eax,%ecx
    eea0:	8b 45 fc             	mov    -0x4(%rbp),%eax
    eea3:	89 c2                	mov    %eax,%edx
    eea5:	48 8d 35 ad 50 00 00 	lea    0x50ad(%rip),%rsi        # 13f59 <g_1899+0xed9>
    eeac:	48 89 cf             	mov    %rcx,%rdi
    eeaf:	e8 3f 88 ff ff       	callq  76f3 <transparent_crc>
    eeb4:	8b 45 f4             	mov    -0xc(%rbp),%eax
    eeb7:	48 63 d0             	movslq %eax,%rdx
    eeba:	8b 45 f0             	mov    -0x10(%rbp),%eax
    eebd:	48 63 c8             	movslq %eax,%rcx
    eec0:	48 89 d0             	mov    %rdx,%rax
    eec3:	48 c1 e0 02          	shl    $0x2,%rax
    eec7:	48 01 d0             	add    %rdx,%rax
    eeca:	48 c1 e0 03          	shl    $0x3,%rax
    eece:	48 89 ca             	mov    %rcx,%rdx
    eed1:	48 c1 e2 04          	shl    $0x4,%rdx
    eed5:	48 29 ca             	sub    %rcx,%rdx
    eed8:	48 c1 e2 03          	shl    $0x3,%rdx
    eedc:	48 01 c2             	add    %rax,%rdx
    eedf:	48 8d 05 7a 98 00 00 	lea    0x987a(%rip),%rax        # 18760 <g_624+0x20>
    eee6:	48 01 d0             	add    %rdx,%rax
    eee9:	0f b7 00             	movzwl (%rax),%eax
    eeec:	0f b7 c0             	movzwl %ax,%eax
    eeef:	8b 55 fc             	mov    -0x4(%rbp),%edx
    eef2:	48 8d 35 6f 50 00 00 	lea    0x506f(%rip),%rsi        # 13f68 <g_1899+0xee8>
    eef9:	48 89 c7             	mov    %rax,%rdi
    eefc:	e8 f2 87 ff ff       	callq  76f3 <transparent_crc>
    ef01:	8b 45 f4             	mov    -0xc(%rbp),%eax
    ef04:	48 63 d0             	movslq %eax,%rdx
    ef07:	8b 45 f0             	mov    -0x10(%rbp),%eax
    ef0a:	48 63 c8             	movslq %eax,%rcx
    ef0d:	48 89 d0             	mov    %rdx,%rax
    ef10:	48 c1 e0 02          	shl    $0x2,%rax
    ef14:	48 01 d0             	add    %rdx,%rax
    ef17:	48 c1 e0 03          	shl    $0x3,%rax
    ef1b:	48 89 ca             	mov    %rcx,%rdx
    ef1e:	48 c1 e2 04          	shl    $0x4,%rdx
    ef22:	48 29 ca             	sub    %rcx,%rdx
    ef25:	48 c1 e2 03          	shl    $0x3,%rdx
    ef29:	48 01 c2             	add    %rax,%rdx
    ef2c:	48 8d 05 2f 98 00 00 	lea    0x982f(%rip),%rax        # 18762 <g_624+0x22>
    ef33:	48 01 d0             	add    %rdx,%rax
    ef36:	0f b7 00             	movzwl (%rax),%eax
    ef39:	48 0f bf c0          	movswq %ax,%rax
    ef3d:	8b 55 fc             	mov    -0x4(%rbp),%edx
    ef40:	48 8d 35 30 50 00 00 	lea    0x5030(%rip),%rsi        # 13f77 <g_1899+0xef7>
    ef47:	48 89 c7             	mov    %rax,%rdi
    ef4a:	e8 a4 87 ff ff       	callq  76f3 <transparent_crc>
    ef4f:	8b 45 f4             	mov    -0xc(%rbp),%eax
    ef52:	48 63 d0             	movslq %eax,%rdx
    ef55:	8b 45 f0             	mov    -0x10(%rbp),%eax
    ef58:	48 63 c8             	movslq %eax,%rcx
    ef5b:	48 89 d0             	mov    %rdx,%rax
    ef5e:	48 c1 e0 02          	shl    $0x2,%rax
    ef62:	48 01 d0             	add    %rdx,%rax
    ef65:	48 c1 e0 03          	shl    $0x3,%rax
    ef69:	48 89 ca             	mov    %rcx,%rdx
    ef6c:	48 c1 e2 04          	shl    $0x4,%rdx
    ef70:	48 29 ca             	sub    %rcx,%rdx
    ef73:	48 c1 e2 03          	shl    $0x3,%rdx
    ef77:	48 01 c2             	add    %rax,%rdx
    ef7a:	48 8d 05 df 97 00 00 	lea    0x97df(%rip),%rax        # 18760 <g_624+0x20>
    ef81:	48 01 d0             	add    %rdx,%rax
    ef84:	48 8b 00             	mov    (%rax),%rax
    ef87:	48 c1 e0 0f          	shl    $0xf,%rax
    ef8b:	48 c1 f8 2f          	sar    $0x2f,%rax
    ef8f:	48 98                	cltq   
    ef91:	8b 55 fc             	mov    -0x4(%rbp),%edx
    ef94:	48 8d 35 eb 4f 00 00 	lea    0x4feb(%rip),%rsi        # 13f86 <g_1899+0xf06>
    ef9b:	48 89 c7             	mov    %rax,%rdi
    ef9e:	e8 50 87 ff ff       	callq  76f3 <transparent_crc>
    efa3:	83 7d fc 00          	cmpl   $0x0,-0x4(%rbp)
    efa7:	74 19                	je     efc2 <main+0x2452>
    efa9:	8b 55 f4             	mov    -0xc(%rbp),%edx
    efac:	8b 45 f0             	mov    -0x10(%rbp),%eax
    efaf:	89 c6                	mov    %eax,%esi
    efb1:	48 8d 3d fd 45 00 00 	lea    0x45fd(%rip),%rdi        # 135b5 <g_1899+0x535>
    efb8:	b8 00 00 00 00       	mov    $0x0,%eax
    efbd:	e8 be 70 ff ff       	callq  6080 <printf@plt>
    efc2:	83 45 f4 01          	addl   $0x1,-0xc(%rbp)
    efc6:	83 7d f4 02          	cmpl   $0x2,-0xc(%rbp)
    efca:	0f 8e 74 fa ff ff    	jle    ea44 <main+0x1ed4>
    efd0:	83 45 f0 01          	addl   $0x1,-0x10(%rbp)
    efd4:	83 7d f0 03          	cmpl   $0x3,-0x10(%rbp)
    efd8:	0f 8e 5a fa ff ff    	jle    ea38 <main+0x1ec8>
    efde:	48 8b 05 3b 99 00 00 	mov    0x993b(%rip),%rax        # 18920 <g_695>
    efe5:	c1 e0 05             	shl    $0x5,%eax
    efe8:	c1 f8 05             	sar    $0x5,%eax
    efeb:	48 98                	cltq   
    efed:	8b 55 fc             	mov    -0x4(%rbp),%edx
    eff0:	48 8d 35 9e 4f 00 00 	lea    0x4f9e(%rip),%rsi        # 13f95 <g_1899+0xf15>
    eff7:	48 89 c7             	mov    %rax,%rdi
    effa:	e8 f4 86 ff ff       	callq  76f3 <transparent_crc>
    efff:	8b 05 1f 99 00 00    	mov    0x991f(%rip),%eax        # 18924 <g_695+0x4>
    f005:	89 c1                	mov    %eax,%ecx
    f007:	8b 45 fc             	mov    -0x4(%rbp),%eax
    f00a:	89 c2                	mov    %eax,%edx
    f00c:	48 8d 35 8b 4f 00 00 	lea    0x4f8b(%rip),%rsi        # 13f9e <g_1899+0xf1e>
    f013:	48 89 cf             	mov    %rcx,%rdi
    f016:	e8 d8 86 ff ff       	callq  76f3 <transparent_crc>
    f01b:	48 8b 05 06 99 00 00 	mov    0x9906(%rip),%rax        # 18928 <g_695+0x8>
    f022:	c1 e0 02             	shl    $0x2,%eax
    f025:	c0 f8 02             	sar    $0x2,%al
    f028:	48 0f be c0          	movsbq %al,%rax
    f02c:	8b 55 fc             	mov    -0x4(%rbp),%edx
    f02f:	48 8d 35 71 4f 00 00 	lea    0x4f71(%rip),%rsi        # 13fa7 <g_1899+0xf27>
    f036:	48 89 c7             	mov    %rax,%rdi
    f039:	e8 b5 86 ff ff       	callq  76f3 <transparent_crc>
    f03e:	0f b6 05 e4 98 00 00 	movzbl 0x98e4(%rip),%eax        # 18929 <g_695+0x9>
    f045:	0f b6 c0             	movzbl %al,%eax
    f048:	8b 55 fc             	mov    -0x4(%rbp),%edx
    f04b:	48 8d 35 5e 4f 00 00 	lea    0x4f5e(%rip),%rsi        # 13fb0 <g_1899+0xf30>
    f052:	48 89 c7             	mov    %rax,%rdi
    f055:	e8 99 86 ff ff       	callq  76f3 <transparent_crc>
    f05a:	48 8b 05 c7 98 00 00 	mov    0x98c7(%rip),%rax        # 18928 <g_695+0x8>
    f061:	48 c1 e8 10          	shr    $0x10,%rax
    f065:	25 ff ff ff 3f       	and    $0x3fffffff,%eax
    f06a:	89 c1                	mov    %eax,%ecx
    f06c:	8b 45 fc             	mov    -0x4(%rbp),%eax
    f06f:	89 c2                	mov    %eax,%edx
    f071:	48 8d 35 41 4f 00 00 	lea    0x4f41(%rip),%rsi        # 13fb9 <g_1899+0xf39>
    f078:	48 89 cf             	mov    %rcx,%rdi
    f07b:	e8 73 86 ff ff       	callq  76f3 <transparent_crc>
    f080:	48 8b 05 a1 98 00 00 	mov    0x98a1(%rip),%rax        # 18928 <g_695+0x8>
    f087:	48 c1 e8 2e          	shr    $0x2e,%rax
    f08b:	66 25 ff 01          	and    $0x1ff,%ax
    f08f:	0f b7 c0             	movzwl %ax,%eax
    f092:	8b 55 fc             	mov    -0x4(%rbp),%edx
    f095:	48 8d 35 26 4f 00 00 	lea    0x4f26(%rip),%rsi        # 13fc2 <g_1899+0xf42>
    f09c:	48 89 c7             	mov    %rax,%rdi
    f09f:	e8 4f 86 ff ff       	callq  76f3 <transparent_crc>
    f0a4:	48 8b 05 7d 98 00 00 	mov    0x987d(%rip),%rax        # 18928 <g_695+0x8>
    f0ab:	48 c1 f8 37          	sar    $0x37,%rax
    f0af:	48 0f bf c0          	movswq %ax,%rax
    f0b3:	8b 55 fc             	mov    -0x4(%rbp),%edx
    f0b6:	48 8d 35 0e 4f 00 00 	lea    0x4f0e(%rip),%rsi        # 13fcb <g_1899+0xf4b>
    f0bd:	48 89 c7             	mov    %rax,%rdi
    f0c0:	e8 2e 86 ff ff       	callq  76f3 <transparent_crc>
    f0c5:	48 8b 05 64 98 00 00 	mov    0x9864(%rip),%rax        # 18930 <g_695+0x10>
    f0cc:	25 ff ff ff 3f       	and    $0x3fffffff,%eax
    f0d1:	89 c1                	mov    %eax,%ecx
    f0d3:	8b 45 fc             	mov    -0x4(%rbp),%eax
    f0d6:	89 c2                	mov    %eax,%edx
    f0d8:	48 8d 35 f5 4e 00 00 	lea    0x4ef5(%rip),%rsi        # 13fd4 <g_1899+0xf54>
    f0df:	48 89 cf             	mov    %rcx,%rdi
    f0e2:	e8 0c 86 ff ff       	callq  76f3 <transparent_crc>
    f0e7:	0f b7 05 46 98 00 00 	movzwl 0x9846(%rip),%eax        # 18934 <g_712>
    f0ee:	0f b7 c0             	movzwl %ax,%eax
    f0f1:	8b 55 fc             	mov    -0x4(%rbp),%edx
    f0f4:	48 8d 35 e2 4e 00 00 	lea    0x4ee2(%rip),%rsi        # 13fdd <g_1899+0xf5d>
    f0fb:	48 89 c7             	mov    %rax,%rdi
    f0fe:	e8 f0 85 ff ff       	callq  76f3 <transparent_crc>
    f103:	0f b7 05 2c 98 00 00 	movzwl 0x982c(%rip),%eax        # 18936 <g_718>
    f10a:	0f b7 c0             	movzwl %ax,%eax
    f10d:	8b 55 fc             	mov    -0x4(%rbp),%edx
    f110:	48 8d 35 cc 4e 00 00 	lea    0x4ecc(%rip),%rsi        # 13fe3 <g_1899+0xf63>
    f117:	48 89 c7             	mov    %rax,%rdi
    f11a:	e8 d4 85 ff ff       	callq  76f3 <transparent_crc>
    f11f:	8b 05 13 98 00 00    	mov    0x9813(%rip),%eax        # 18938 <g_747>
    f125:	89 c1                	mov    %eax,%ecx
    f127:	8b 45 fc             	mov    -0x4(%rbp),%eax
    f12a:	89 c2                	mov    %eax,%edx
    f12c:	48 8d 35 b6 4e 00 00 	lea    0x4eb6(%rip),%rsi        # 13fe9 <g_1899+0xf69>
    f133:	48 89 cf             	mov    %rcx,%rdi
    f136:	e8 b8 85 ff ff       	callq  76f3 <transparent_crc>
    f13b:	b8 f7 ff ff ff       	mov    $0xfffffff7,%eax
    f140:	89 c1                	mov    %eax,%ecx
    f142:	8b 45 fc             	mov    -0x4(%rbp),%eax
    f145:	89 c2                	mov    %eax,%edx
    f147:	48 8d 35 a1 4e 00 00 	lea    0x4ea1(%rip),%rsi        # 13fef <g_1899+0xf6f>
    f14e:	48 89 cf             	mov    %rcx,%rdi
    f151:	e8 9d 85 ff ff       	callq  76f3 <transparent_crc>
    f156:	b8 f3 ff ff ff       	mov    $0xfffffff3,%eax
    f15b:	0f b6 c0             	movzbl %al,%eax
    f15e:	8b 55 fc             	mov    -0x4(%rbp),%edx
    f161:	48 8d 35 90 4e 00 00 	lea    0x4e90(%rip),%rsi        # 13ff8 <g_1899+0xf78>
    f168:	48 89 c7             	mov    %rax,%rdi
    f16b:	e8 83 85 ff ff       	callq  76f3 <transparent_crc>
    f170:	b8 dc cb 61 b2       	mov    $0xb261cbdc,%eax
    f175:	89 c1                	mov    %eax,%ecx
    f177:	8b 45 fc             	mov    -0x4(%rbp),%eax
    f17a:	89 c2                	mov    %eax,%edx
    f17c:	48 8d 35 7e 4e 00 00 	lea    0x4e7e(%rip),%rsi        # 14001 <g_1899+0xf81>
    f183:	48 89 cf             	mov    %rcx,%rdi
    f186:	e8 68 85 ff ff       	callq  76f3 <transparent_crc>
    f18b:	b8 f7 ff ff ff       	mov    $0xfffffff7,%eax
    f190:	0f b6 c0             	movzbl %al,%eax
    f193:	8b 55 fc             	mov    -0x4(%rbp),%edx
    f196:	48 8d 35 6d 4e 00 00 	lea    0x4e6d(%rip),%rsi        # 1400a <g_1899+0xf8a>
    f19d:	48 89 c7             	mov    %rax,%rdi
    f1a0:	e8 4e 85 ff ff       	callq  76f3 <transparent_crc>
    f1a5:	48 8b 05 94 97 00 00 	mov    0x9794(%rip),%rax        # 18940 <g_781>
    f1ac:	c1 e0 05             	shl    $0x5,%eax
    f1af:	c0 f8 05             	sar    $0x5,%al
    f1b2:	48 0f be c0          	movsbq %al,%rax
    f1b6:	8b 55 fc             	mov    -0x4(%rbp),%edx
    f1b9:	48 8d 35 53 4e 00 00 	lea    0x4e53(%rip),%rsi        # 14013 <g_1899+0xf93>
    f1c0:	48 89 c7             	mov    %rax,%rdi
    f1c3:	e8 2b 85 ff ff       	callq  76f3 <transparent_crc>
    f1c8:	48 8b 05 71 97 00 00 	mov    0x9771(%rip),%rax        # 18940 <g_781>
    f1cf:	48 c1 e8 03          	shr    $0x3,%rax
    f1d3:	83 e0 1f             	and    $0x1f,%eax
    f1d6:	0f b6 c0             	movzbl %al,%eax
    f1d9:	8b 55 fc             	mov    -0x4(%rbp),%edx
    f1dc:	48 8d 35 39 4e 00 00 	lea    0x4e39(%rip),%rsi        # 1401c <g_1899+0xf9c>
    f1e3:	48 89 c7             	mov    %rax,%rdi
    f1e6:	e8 08 85 ff ff       	callq  76f3 <transparent_crc>
    f1eb:	48 8b 05 4e 97 00 00 	mov    0x974e(%rip),%rax        # 18940 <g_781>
    f1f2:	c1 e0 0c             	shl    $0xc,%eax
    f1f5:	c1 f8 14             	sar    $0x14,%eax
    f1f8:	48 0f bf c0          	movswq %ax,%rax
    f1fc:	8b 55 fc             	mov    -0x4(%rbp),%edx
    f1ff:	48 8d 35 1f 4e 00 00 	lea    0x4e1f(%rip),%rsi        # 14025 <g_1899+0xfa5>
    f206:	48 89 c7             	mov    %rax,%rdi
    f209:	e8 e5 84 ff ff       	callq  76f3 <transparent_crc>
    f20e:	48 8b 05 2b 97 00 00 	mov    0x972b(%rip),%rax        # 18940 <g_781>
    f215:	48 c1 e8 14          	shr    $0x14,%rax
    f219:	66 25 ff 01          	and    $0x1ff,%ax
    f21d:	0f b7 c0             	movzwl %ax,%eax
    f220:	8b 55 fc             	mov    -0x4(%rbp),%edx
    f223:	48 8d 35 04 4e 00 00 	lea    0x4e04(%rip),%rsi        # 1402e <g_1899+0xfae>
    f22a:	48 89 c7             	mov    %rax,%rdi
    f22d:	e8 c1 84 ff ff       	callq  76f3 <transparent_crc>
    f232:	48 8b 05 07 97 00 00 	mov    0x9707(%rip),%rax        # 18940 <g_781>
    f239:	48 c1 e0 0c          	shl    $0xc,%rax
    f23d:	48 c1 f8 2c          	sar    $0x2c,%rax
    f241:	48 98                	cltq   
    f243:	8b 55 fc             	mov    -0x4(%rbp),%edx
    f246:	48 8d 35 ea 4d 00 00 	lea    0x4dea(%rip),%rsi        # 14037 <g_1899+0xfb7>
    f24d:	48 89 c7             	mov    %rax,%rdi
    f250:	e8 9e 84 ff ff       	callq  76f3 <transparent_crc>
    f255:	48 8b 05 e4 96 00 00 	mov    0x96e4(%rip),%rax        # 18940 <g_781>
    f25c:	48 c1 e0 06          	shl    $0x6,%rax
    f260:	48 c1 f8 3a          	sar    $0x3a,%rax
    f264:	48 0f be c0          	movsbq %al,%rax
    f268:	8b 55 fc             	mov    -0x4(%rbp),%edx
    f26b:	48 8d 35 ce 4d 00 00 	lea    0x4dce(%rip),%rsi        # 14040 <g_1899+0xfc0>
    f272:	48 89 c7             	mov    %rax,%rdi
    f275:	e8 79 84 ff ff       	callq  76f3 <transparent_crc>
    f27a:	48 8b 05 c7 96 00 00 	mov    0x96c7(%rip),%rax        # 18948 <g_781+0x8>
    f281:	c1 e0 04             	shl    $0x4,%eax
    f284:	66 c1 f8 04          	sar    $0x4,%ax
    f288:	48 0f bf c0          	movswq %ax,%rax
    f28c:	8b 55 fc             	mov    -0x4(%rbp),%edx
    f28f:	48 8d 35 b3 4d 00 00 	lea    0x4db3(%rip),%rsi        # 14049 <g_1899+0xfc9>
    f296:	48 89 c7             	mov    %rax,%rdi
    f299:	e8 55 84 ff ff       	callq  76f3 <transparent_crc>
    f29e:	48 8b 05 a3 96 00 00 	mov    0x96a3(%rip),%rax        # 18948 <g_781+0x8>
    f2a5:	c1 e0 0f             	shl    $0xf,%eax
    f2a8:	c1 f8 1b             	sar    $0x1b,%eax
    f2ab:	48 0f be c0          	movsbq %al,%rax
    f2af:	8b 55 fc             	mov    -0x4(%rbp),%edx
    f2b2:	48 8d 35 99 4d 00 00 	lea    0x4d99(%rip),%rsi        # 14052 <g_1899+0xfd2>
    f2b9:	48 89 c7             	mov    %rax,%rdi
    f2bc:	e8 32 84 ff ff       	callq  76f3 <transparent_crc>
    f2c1:	48 8b 05 88 96 00 00 	mov    0x9688(%rip),%rax        # 18950 <g_796>
    f2c8:	c1 e0 05             	shl    $0x5,%eax
    f2cb:	c1 f8 05             	sar    $0x5,%eax
    f2ce:	48 98                	cltq   
    f2d0:	8b 55 fc             	mov    -0x4(%rbp),%edx
    f2d3:	48 8d 35 81 4d 00 00 	lea    0x4d81(%rip),%rsi        # 1405b <g_1899+0xfdb>
    f2da:	48 89 c7             	mov    %rax,%rdi
    f2dd:	e8 11 84 ff ff       	callq  76f3 <transparent_crc>
    f2e2:	8b 05 6c 96 00 00    	mov    0x966c(%rip),%eax        # 18954 <g_796+0x4>
    f2e8:	89 c1                	mov    %eax,%ecx
    f2ea:	8b 45 fc             	mov    -0x4(%rbp),%eax
    f2ed:	89 c2                	mov    %eax,%edx
    f2ef:	48 8d 35 6e 4d 00 00 	lea    0x4d6e(%rip),%rsi        # 14064 <g_1899+0xfe4>
    f2f6:	48 89 cf             	mov    %rcx,%rdi
    f2f9:	e8 f5 83 ff ff       	callq  76f3 <transparent_crc>
    f2fe:	48 8b 05 53 96 00 00 	mov    0x9653(%rip),%rax        # 18958 <g_796+0x8>
    f305:	c1 e0 02             	shl    $0x2,%eax
    f308:	c0 f8 02             	sar    $0x2,%al
    f30b:	48 0f be c0          	movsbq %al,%rax
    f30f:	8b 55 fc             	mov    -0x4(%rbp),%edx
    f312:	48 8d 35 54 4d 00 00 	lea    0x4d54(%rip),%rsi        # 1406d <g_1899+0xfed>
    f319:	48 89 c7             	mov    %rax,%rdi
    f31c:	e8 d2 83 ff ff       	callq  76f3 <transparent_crc>
    f321:	0f b6 05 31 96 00 00 	movzbl 0x9631(%rip),%eax        # 18959 <g_796+0x9>
    f328:	0f b6 c0             	movzbl %al,%eax
    f32b:	8b 55 fc             	mov    -0x4(%rbp),%edx
    f32e:	48 8d 35 41 4d 00 00 	lea    0x4d41(%rip),%rsi        # 14076 <g_1899+0xff6>
    f335:	48 89 c7             	mov    %rax,%rdi
    f338:	e8 b6 83 ff ff       	callq  76f3 <transparent_crc>
    f33d:	48 8b 05 14 96 00 00 	mov    0x9614(%rip),%rax        # 18958 <g_796+0x8>
    f344:	48 c1 e8 10          	shr    $0x10,%rax
    f348:	25 ff ff ff 3f       	and    $0x3fffffff,%eax
    f34d:	89 c1                	mov    %eax,%ecx
    f34f:	8b 45 fc             	mov    -0x4(%rbp),%eax
    f352:	89 c2                	mov    %eax,%edx
    f354:	48 8d 35 24 4d 00 00 	lea    0x4d24(%rip),%rsi        # 1407f <g_1899+0xfff>
    f35b:	48 89 cf             	mov    %rcx,%rdi
    f35e:	e8 90 83 ff ff       	callq  76f3 <transparent_crc>
    f363:	48 8b 05 ee 95 00 00 	mov    0x95ee(%rip),%rax        # 18958 <g_796+0x8>
    f36a:	48 c1 e8 2e          	shr    $0x2e,%rax
    f36e:	66 25 ff 01          	and    $0x1ff,%ax
    f372:	0f b7 c0             	movzwl %ax,%eax
    f375:	8b 55 fc             	mov    -0x4(%rbp),%edx
    f378:	48 8d 35 09 4d 00 00 	lea    0x4d09(%rip),%rsi        # 14088 <g_1899+0x1008>
    f37f:	48 89 c7             	mov    %rax,%rdi
    f382:	e8 6c 83 ff ff       	callq  76f3 <transparent_crc>
    f387:	48 8b 05 ca 95 00 00 	mov    0x95ca(%rip),%rax        # 18958 <g_796+0x8>
    f38e:	48 c1 f8 37          	sar    $0x37,%rax
    f392:	48 0f bf c0          	movswq %ax,%rax
    f396:	8b 55 fc             	mov    -0x4(%rbp),%edx
    f399:	48 8d 35 f1 4c 00 00 	lea    0x4cf1(%rip),%rsi        # 14091 <g_1899+0x1011>
    f3a0:	48 89 c7             	mov    %rax,%rdi
    f3a3:	e8 4b 83 ff ff       	callq  76f3 <transparent_crc>
    f3a8:	48 8b 05 b1 95 00 00 	mov    0x95b1(%rip),%rax        # 18960 <g_796+0x10>
    f3af:	25 ff ff ff 3f       	and    $0x3fffffff,%eax
    f3b4:	89 c1                	mov    %eax,%ecx
    f3b6:	8b 45 fc             	mov    -0x4(%rbp),%eax
    f3b9:	89 c2                	mov    %eax,%edx
    f3bb:	48 8d 35 d8 4c 00 00 	lea    0x4cd8(%rip),%rsi        # 1409a <g_1899+0x101a>
    f3c2:	48 89 cf             	mov    %rcx,%rdi
    f3c5:	e8 29 83 ff ff       	callq  76f3 <transparent_crc>
    f3ca:	0f b6 05 97 95 00 00 	movzbl 0x9597(%rip),%eax        # 18968 <g_802>
    f3d1:	c1 e0 05             	shl    $0x5,%eax
    f3d4:	c0 f8 05             	sar    $0x5,%al
    f3d7:	48 0f be c0          	movsbq %al,%rax
    f3db:	8b 55 fc             	mov    -0x4(%rbp),%edx
    f3de:	48 8d 35 be 4c 00 00 	lea    0x4cbe(%rip),%rsi        # 140a3 <g_1899+0x1023>
    f3e5:	48 89 c7             	mov    %rax,%rdi
    f3e8:	e8 06 83 ff ff       	callq  76f3 <transparent_crc>
    f3ed:	0f b6 05 74 95 00 00 	movzbl 0x9574(%rip),%eax        # 18968 <g_802>
    f3f4:	c0 e8 03             	shr    $0x3,%al
    f3f7:	0f b6 c0             	movzbl %al,%eax
    f3fa:	8b 55 fc             	mov    -0x4(%rbp),%edx
    f3fd:	48 8d 35 a8 4c 00 00 	lea    0x4ca8(%rip),%rsi        # 140ac <g_1899+0x102c>
    f404:	48 89 c7             	mov    %rax,%rdi
    f407:	e8 e7 82 ff ff       	callq  76f3 <transparent_crc>
    f40c:	8b 05 56 95 00 00    	mov    0x9556(%rip),%eax        # 18968 <g_802>
    f412:	c1 e0 0c             	shl    $0xc,%eax
    f415:	c1 f8 14             	sar    $0x14,%eax
    f418:	48 0f bf c0          	movswq %ax,%rax
    f41c:	8b 55 fc             	mov    -0x4(%rbp),%edx
    f41f:	48 8d 35 8f 4c 00 00 	lea    0x4c8f(%rip),%rsi        # 140b5 <g_1899+0x1035>
    f426:	48 89 c7             	mov    %rax,%rdi
    f429:	e8 c5 82 ff ff       	callq  76f3 <transparent_crc>
    f42e:	0f b7 05 35 95 00 00 	movzwl 0x9535(%rip),%eax        # 1896a <g_802+0x2>
    f435:	66 c1 e8 04          	shr    $0x4,%ax
    f439:	66 25 ff 01          	and    $0x1ff,%ax
    f43d:	0f b7 c0             	movzwl %ax,%eax
    f440:	8b 55 fc             	mov    -0x4(%rbp),%edx
    f443:	48 8d 35 74 4c 00 00 	lea    0x4c74(%rip),%rsi        # 140be <g_1899+0x103e>
    f44a:	48 89 c7             	mov    %rax,%rdi
    f44d:	e8 a1 82 ff ff       	callq  76f3 <transparent_crc>
    f452:	8b 05 14 95 00 00    	mov    0x9514(%rip),%eax        # 1896c <g_802+0x4>
    f458:	c1 e0 0c             	shl    $0xc,%eax
    f45b:	c1 f8 0c             	sar    $0xc,%eax
    f45e:	48 98                	cltq   
    f460:	8b 55 fc             	mov    -0x4(%rbp),%edx
    f463:	48 8d 35 5d 4c 00 00 	lea    0x4c5d(%rip),%rsi        # 140c7 <g_1899+0x1047>
    f46a:	48 89 c7             	mov    %rax,%rdi
    f46d:	e8 81 82 ff ff       	callq  76f3 <transparent_crc>
    f472:	48 8b 05 ef 94 00 00 	mov    0x94ef(%rip),%rax        # 18968 <g_802>
    f479:	48 c1 e0 06          	shl    $0x6,%rax
    f47d:	48 c1 f8 3a          	sar    $0x3a,%rax
    f481:	48 0f be c0          	movsbq %al,%rax
    f485:	8b 55 fc             	mov    -0x4(%rbp),%edx
    f488:	48 8d 35 41 4c 00 00 	lea    0x4c41(%rip),%rsi        # 140d0 <g_1899+0x1050>
    f48f:	48 89 c7             	mov    %rax,%rdi
    f492:	e8 5c 82 ff ff       	callq  76f3 <transparent_crc>
    f497:	0f b7 05 d2 94 00 00 	movzwl 0x94d2(%rip),%eax        # 18970 <g_802+0x8>
    f49e:	c1 e0 04             	shl    $0x4,%eax
    f4a1:	66 c1 f8 04          	sar    $0x4,%ax
    f4a5:	48 0f bf c0          	movswq %ax,%rax
    f4a9:	8b 55 fc             	mov    -0x4(%rbp),%edx
    f4ac:	48 8d 35 26 4c 00 00 	lea    0x4c26(%rip),%rsi        # 140d9 <g_1899+0x1059>
    f4b3:	48 89 c7             	mov    %rax,%rdi
    f4b6:	e8 38 82 ff ff       	callq  76f3 <transparent_crc>
    f4bb:	8b 05 af 94 00 00    	mov    0x94af(%rip),%eax        # 18970 <g_802+0x8>
    f4c1:	c1 e0 0f             	shl    $0xf,%eax
    f4c4:	c1 f8 1b             	sar    $0x1b,%eax
    f4c7:	48 0f be c0          	movsbq %al,%rax
    f4cb:	8b 55 fc             	mov    -0x4(%rbp),%edx
    f4ce:	48 8d 35 0d 4c 00 00 	lea    0x4c0d(%rip),%rsi        # 140e2 <g_1899+0x1062>
    f4d5:	48 89 c7             	mov    %rax,%rdi
    f4d8:	e8 16 82 ff ff       	callq  76f3 <transparent_crc>
    f4dd:	0f b6 05 90 94 00 00 	movzbl 0x9490(%rip),%eax        # 18974 <g_822>
    f4e4:	0f b6 c0             	movzbl %al,%eax
    f4e7:	8b 55 fc             	mov    -0x4(%rbp),%edx
    f4ea:	48 8d 35 fa 4b 00 00 	lea    0x4bfa(%rip),%rsi        # 140eb <g_1899+0x106b>
    f4f1:	48 89 c7             	mov    %rax,%rdi
    f4f4:	e8 fa 81 ff ff       	callq  76f3 <transparent_crc>
    f4f9:	0f b6 05 78 94 00 00 	movzbl 0x9478(%rip),%eax        # 18978 <g_849>
    f500:	c1 e0 05             	shl    $0x5,%eax
    f503:	c0 f8 05             	sar    $0x5,%al
    f506:	48 0f be c0          	movsbq %al,%rax
    f50a:	8b 55 fc             	mov    -0x4(%rbp),%edx
    f50d:	48 8d 35 e0 4b 00 00 	lea    0x4be0(%rip),%rsi        # 140f4 <g_1899+0x1074>
    f514:	48 89 c7             	mov    %rax,%rdi
    f517:	e8 d7 81 ff ff       	callq  76f3 <transparent_crc>
    f51c:	0f b6 05 55 94 00 00 	movzbl 0x9455(%rip),%eax        # 18978 <g_849>
    f523:	c0 e8 03             	shr    $0x3,%al
    f526:	0f b6 c0             	movzbl %al,%eax
    f529:	8b 55 fc             	mov    -0x4(%rbp),%edx
    f52c:	48 8d 35 ca 4b 00 00 	lea    0x4bca(%rip),%rsi        # 140fd <g_1899+0x107d>
    f533:	48 89 c7             	mov    %rax,%rdi
    f536:	e8 b8 81 ff ff       	callq  76f3 <transparent_crc>
    f53b:	8b 05 37 94 00 00    	mov    0x9437(%rip),%eax        # 18978 <g_849>
    f541:	c1 e0 0c             	shl    $0xc,%eax
    f544:	c1 f8 14             	sar    $0x14,%eax
    f547:	48 0f bf c0          	movswq %ax,%rax
    f54b:	8b 55 fc             	mov    -0x4(%rbp),%edx
    f54e:	48 8d 35 b1 4b 00 00 	lea    0x4bb1(%rip),%rsi        # 14106 <g_1899+0x1086>
    f555:	48 89 c7             	mov    %rax,%rdi
    f558:	e8 96 81 ff ff       	callq  76f3 <transparent_crc>
    f55d:	0f b7 05 16 94 00 00 	movzwl 0x9416(%rip),%eax        # 1897a <g_849+0x2>
    f564:	66 c1 e8 04          	shr    $0x4,%ax
    f568:	66 25 ff 01          	and    $0x1ff,%ax
    f56c:	0f b7 c0             	movzwl %ax,%eax
    f56f:	8b 55 fc             	mov    -0x4(%rbp),%edx
    f572:	48 8d 35 96 4b 00 00 	lea    0x4b96(%rip),%rsi        # 1410f <g_1899+0x108f>
    f579:	48 89 c7             	mov    %rax,%rdi
    f57c:	e8 72 81 ff ff       	callq  76f3 <transparent_crc>
    f581:	8b 05 f5 93 00 00    	mov    0x93f5(%rip),%eax        # 1897c <g_849+0x4>
    f587:	c1 e0 0c             	shl    $0xc,%eax
    f58a:	c1 f8 0c             	sar    $0xc,%eax
    f58d:	48 98                	cltq   
    f58f:	8b 55 fc             	mov    -0x4(%rbp),%edx
    f592:	48 8d 35 7f 4b 00 00 	lea    0x4b7f(%rip),%rsi        # 14118 <g_1899+0x1098>
    f599:	48 89 c7             	mov    %rax,%rdi
    f59c:	e8 52 81 ff ff       	callq  76f3 <transparent_crc>
    f5a1:	48 8b 05 d0 93 00 00 	mov    0x93d0(%rip),%rax        # 18978 <g_849>
    f5a8:	48 c1 e0 06          	shl    $0x6,%rax
    f5ac:	48 c1 f8 3a          	sar    $0x3a,%rax
    f5b0:	48 0f be c0          	movsbq %al,%rax
    f5b4:	8b 55 fc             	mov    -0x4(%rbp),%edx
    f5b7:	48 8d 35 63 4b 00 00 	lea    0x4b63(%rip),%rsi        # 14121 <g_1899+0x10a1>
    f5be:	48 89 c7             	mov    %rax,%rdi
    f5c1:	e8 2d 81 ff ff       	callq  76f3 <transparent_crc>
    f5c6:	0f b7 05 b3 93 00 00 	movzwl 0x93b3(%rip),%eax        # 18980 <g_849+0x8>
    f5cd:	c1 e0 04             	shl    $0x4,%eax
    f5d0:	66 c1 f8 04          	sar    $0x4,%ax
    f5d4:	48 0f bf c0          	movswq %ax,%rax
    f5d8:	8b 55 fc             	mov    -0x4(%rbp),%edx
    f5db:	48 8d 35 48 4b 00 00 	lea    0x4b48(%rip),%rsi        # 1412a <g_1899+0x10aa>
    f5e2:	48 89 c7             	mov    %rax,%rdi
    f5e5:	e8 09 81 ff ff       	callq  76f3 <transparent_crc>
    f5ea:	8b 05 90 93 00 00    	mov    0x9390(%rip),%eax        # 18980 <g_849+0x8>
    f5f0:	c1 e0 0f             	shl    $0xf,%eax
    f5f3:	c1 f8 1b             	sar    $0x1b,%eax
    f5f6:	48 0f be c0          	movsbq %al,%rax
    f5fa:	8b 55 fc             	mov    -0x4(%rbp),%edx
    f5fd:	48 8d 35 2f 4b 00 00 	lea    0x4b2f(%rip),%rsi        # 14133 <g_1899+0x10b3>
    f604:	48 89 c7             	mov    %rax,%rdi
    f607:	e8 e7 80 ff ff       	callq  76f3 <transparent_crc>
    f60c:	8b 05 76 93 00 00    	mov    0x9376(%rip),%eax        # 18988 <g_902>
    f612:	89 c1                	mov    %eax,%ecx
    f614:	8b 45 fc             	mov    -0x4(%rbp),%eax
    f617:	89 c2                	mov    %eax,%edx
    f619:	48 8d 35 1c 4b 00 00 	lea    0x4b1c(%rip),%rsi        # 1413c <g_1899+0x10bc>
    f620:	48 89 cf             	mov    %rcx,%rdi
    f623:	e8 cb 80 ff ff       	callq  76f3 <transparent_crc>
    f628:	0f b7 05 59 93 00 00 	movzwl 0x9359(%rip),%eax        # 18988 <g_902>
    f62f:	0f b7 c0             	movzwl %ax,%eax
    f632:	8b 55 fc             	mov    -0x4(%rbp),%edx
    f635:	48 8d 35 09 4b 00 00 	lea    0x4b09(%rip),%rsi        # 14145 <g_1899+0x10c5>
    f63c:	48 89 c7             	mov    %rax,%rdi
    f63f:	e8 af 80 ff ff       	callq  76f3 <transparent_crc>
    f644:	8b 05 3e 93 00 00    	mov    0x933e(%rip),%eax        # 18988 <g_902>
    f64a:	48 98                	cltq   
    f64c:	8b 55 fc             	mov    -0x4(%rbp),%edx
    f64f:	48 8d 35 f8 4a 00 00 	lea    0x4af8(%rip),%rsi        # 1414e <g_1899+0x10ce>
    f656:	48 89 c7             	mov    %rax,%rdi
    f659:	e8 95 80 ff ff       	callq  76f3 <transparent_crc>
    f65e:	48 8b 05 3b 93 00 00 	mov    0x933b(%rip),%rax        # 189a0 <g_987>
    f665:	c1 e0 05             	shl    $0x5,%eax
    f668:	c1 f8 05             	sar    $0x5,%eax
    f66b:	48 98                	cltq   
    f66d:	8b 55 fc             	mov    -0x4(%rbp),%edx
    f670:	48 8d 35 e0 4a 00 00 	lea    0x4ae0(%rip),%rsi        # 14157 <g_1899+0x10d7>
    f677:	48 89 c7             	mov    %rax,%rdi
    f67a:	e8 74 80 ff ff       	callq  76f3 <transparent_crc>
    f67f:	8b 05 1f 93 00 00    	mov    0x931f(%rip),%eax        # 189a4 <g_987+0x4>
    f685:	89 c1                	mov    %eax,%ecx
    f687:	8b 45 fc             	mov    -0x4(%rbp),%eax
    f68a:	89 c2                	mov    %eax,%edx
    f68c:	48 8d 35 d3 4a 00 00 	lea    0x4ad3(%rip),%rsi        # 14166 <g_1899+0x10e6>
    f693:	48 89 cf             	mov    %rcx,%rdi
    f696:	e8 58 80 ff ff       	callq  76f3 <transparent_crc>
    f69b:	48 8b 05 06 93 00 00 	mov    0x9306(%rip),%rax        # 189a8 <g_987+0x8>
    f6a2:	c1 e0 02             	shl    $0x2,%eax
    f6a5:	c0 f8 02             	sar    $0x2,%al
    f6a8:	48 0f be c0          	movsbq %al,%rax
    f6ac:	8b 55 fc             	mov    -0x4(%rbp),%edx
    f6af:	48 8d 35 bf 4a 00 00 	lea    0x4abf(%rip),%rsi        # 14175 <g_1899+0x10f5>
    f6b6:	48 89 c7             	mov    %rax,%rdi
    f6b9:	e8 35 80 ff ff       	callq  76f3 <transparent_crc>
    f6be:	0f b6 05 e4 92 00 00 	movzbl 0x92e4(%rip),%eax        # 189a9 <g_987+0x9>
    f6c5:	0f b6 c0             	movzbl %al,%eax
    f6c8:	8b 55 fc             	mov    -0x4(%rbp),%edx
    f6cb:	48 8d 35 b2 4a 00 00 	lea    0x4ab2(%rip),%rsi        # 14184 <g_1899+0x1104>
    f6d2:	48 89 c7             	mov    %rax,%rdi
    f6d5:	e8 19 80 ff ff       	callq  76f3 <transparent_crc>
    f6da:	48 8b 05 c7 92 00 00 	mov    0x92c7(%rip),%rax        # 189a8 <g_987+0x8>
    f6e1:	48 c1 e8 10          	shr    $0x10,%rax
    f6e5:	25 ff ff ff 3f       	and    $0x3fffffff,%eax
    f6ea:	89 c1                	mov    %eax,%ecx
    f6ec:	8b 45 fc             	mov    -0x4(%rbp),%eax
    f6ef:	89 c2                	mov    %eax,%edx
    f6f1:	48 8d 35 9b 4a 00 00 	lea    0x4a9b(%rip),%rsi        # 14193 <g_1899+0x1113>
    f6f8:	48 89 cf             	mov    %rcx,%rdi
    f6fb:	e8 f3 7f ff ff       	callq  76f3 <transparent_crc>
    f700:	48 8b 05 a1 92 00 00 	mov    0x92a1(%rip),%rax        # 189a8 <g_987+0x8>
    f707:	48 c1 e8 2e          	shr    $0x2e,%rax
    f70b:	66 25 ff 01          	and    $0x1ff,%ax
    f70f:	0f b7 c0             	movzwl %ax,%eax
    f712:	8b 55 fc             	mov    -0x4(%rbp),%edx
    f715:	48 8d 35 86 4a 00 00 	lea    0x4a86(%rip),%rsi        # 141a2 <g_1899+0x1122>
    f71c:	48 89 c7             	mov    %rax,%rdi
    f71f:	e8 cf 7f ff ff       	callq  76f3 <transparent_crc>
    f724:	48 8b 05 7d 92 00 00 	mov    0x927d(%rip),%rax        # 189a8 <g_987+0x8>
    f72b:	48 c1 f8 37          	sar    $0x37,%rax
    f72f:	48 0f bf c0          	movswq %ax,%rax
    f733:	8b 55 fc             	mov    -0x4(%rbp),%edx
    f736:	48 8d 35 74 4a 00 00 	lea    0x4a74(%rip),%rsi        # 141b1 <g_1899+0x1131>
    f73d:	48 89 c7             	mov    %rax,%rdi
    f740:	e8 ae 7f ff ff       	callq  76f3 <transparent_crc>
    f745:	48 8b 05 64 92 00 00 	mov    0x9264(%rip),%rax        # 189b0 <g_987+0x10>
    f74c:	25 ff ff ff 3f       	and    $0x3fffffff,%eax
    f751:	89 c1                	mov    %eax,%ecx
    f753:	8b 45 fc             	mov    -0x4(%rbp),%eax
    f756:	89 c2                	mov    %eax,%edx
    f758:	48 8d 35 61 4a 00 00 	lea    0x4a61(%rip),%rsi        # 141c0 <g_1899+0x1140>
    f75f:	48 89 cf             	mov    %rcx,%rdi
    f762:	e8 8c 7f ff ff       	callq  76f3 <transparent_crc>
    f767:	0f b6 05 46 92 00 00 	movzbl 0x9246(%rip),%eax        # 189b4 <g_987+0x14>
    f76e:	48 0f be c0          	movsbq %al,%rax
    f772:	8b 55 fc             	mov    -0x4(%rbp),%edx
    f775:	48 8d 35 53 4a 00 00 	lea    0x4a53(%rip),%rsi        # 141cf <g_1899+0x114f>
    f77c:	48 89 c7             	mov    %rax,%rdi
    f77f:	e8 6f 7f ff ff       	callq  76f3 <transparent_crc>
    f784:	48 8b 05 25 92 00 00 	mov    0x9225(%rip),%rax        # 189b0 <g_987+0x10>
    f78b:	48 c1 e0 0f          	shl    $0xf,%rax
    f78f:	48 c1 f8 37          	sar    $0x37,%rax
    f793:	48 0f bf c0          	movswq %ax,%rax
    f797:	8b 55 fc             	mov    -0x4(%rbp),%edx
    f79a:	48 8d 35 37 4a 00 00 	lea    0x4a37(%rip),%rsi        # 141d8 <g_1899+0x1158>
    f7a1:	48 89 c7             	mov    %rax,%rdi
    f7a4:	e8 4a 7f ff ff       	callq  76f3 <transparent_crc>
    f7a9:	0f b7 05 08 92 00 00 	movzwl 0x9208(%rip),%eax        # 189b8 <g_987+0x18>
    f7b0:	48 0f bf c0          	movswq %ax,%rax
    f7b4:	8b 55 fc             	mov    -0x4(%rbp),%edx
    f7b7:	48 8d 35 23 4a 00 00 	lea    0x4a23(%rip),%rsi        # 141e1 <g_1899+0x1161>
    f7be:	48 89 c7             	mov    %rax,%rdi
    f7c1:	e8 2d 7f ff ff       	callq  76f3 <transparent_crc>
    f7c6:	0f b6 05 ed 91 00 00 	movzbl 0x91ed(%rip),%eax        # 189ba <g_987+0x1a>
    f7cd:	48 0f be c0          	movsbq %al,%rax
    f7d1:	8b 55 fc             	mov    -0x4(%rbp),%edx
    f7d4:	48 8d 35 0f 4a 00 00 	lea    0x4a0f(%rip),%rsi        # 141ea <g_1899+0x116a>
    f7db:	48 89 c7             	mov    %rax,%rdi
    f7de:	e8 10 7f ff ff       	callq  76f3 <transparent_crc>
    f7e3:	0f b6 05 d1 91 00 00 	movzbl 0x91d1(%rip),%eax        # 189bb <g_987+0x1b>
    f7ea:	48 0f be c0          	movsbq %al,%rax
    f7ee:	8b 55 fc             	mov    -0x4(%rbp),%edx
    f7f1:	48 8d 35 fb 49 00 00 	lea    0x49fb(%rip),%rsi        # 141f3 <g_1899+0x1173>
    f7f8:	48 89 c7             	mov    %rax,%rdi
    f7fb:	e8 f3 7e ff ff       	callq  76f3 <transparent_crc>
    f800:	8b 05 b6 91 00 00    	mov    0x91b6(%rip),%eax        # 189bc <g_987+0x1c>
    f806:	89 c1                	mov    %eax,%ecx
    f808:	8b 45 fc             	mov    -0x4(%rbp),%eax
    f80b:	89 c2                	mov    %eax,%edx
    f80d:	48 8d 35 e8 49 00 00 	lea    0x49e8(%rip),%rsi        # 141fc <g_1899+0x117c>
    f814:	48 89 cf             	mov    %rcx,%rdi
    f817:	e8 d7 7e ff ff       	callq  76f3 <transparent_crc>
    f81c:	0f b7 05 9d 91 00 00 	movzwl 0x919d(%rip),%eax        # 189c0 <g_987+0x20>
    f823:	0f b7 c0             	movzwl %ax,%eax
    f826:	8b 55 fc             	mov    -0x4(%rbp),%edx
    f829:	48 8d 35 d5 49 00 00 	lea    0x49d5(%rip),%rsi        # 14205 <g_1899+0x1185>
    f830:	48 89 c7             	mov    %rax,%rdi
    f833:	e8 bb 7e ff ff       	callq  76f3 <transparent_crc>
    f838:	0f b7 05 83 91 00 00 	movzwl 0x9183(%rip),%eax        # 189c2 <g_987+0x22>
    f83f:	48 0f bf c0          	movswq %ax,%rax
    f843:	8b 55 fc             	mov    -0x4(%rbp),%edx
    f846:	48 8d 35 c1 49 00 00 	lea    0x49c1(%rip),%rsi        # 1420e <g_1899+0x118e>
    f84d:	48 89 c7             	mov    %rax,%rdi
    f850:	e8 9e 7e ff ff       	callq  76f3 <transparent_crc>
    f855:	8b 05 69 91 00 00    	mov    0x9169(%rip),%eax        # 189c4 <g_987+0x24>
    f85b:	c1 e0 0f             	shl    $0xf,%eax
    f85e:	c1 f8 0f             	sar    $0xf,%eax
    f861:	48 98                	cltq   
    f863:	8b 55 fc             	mov    -0x4(%rbp),%edx
    f866:	48 8d 35 aa 49 00 00 	lea    0x49aa(%rip),%rsi        # 14217 <g_1899+0x1197>
    f86d:	48 89 c7             	mov    %rax,%rdi
    f870:	e8 7e 7e ff ff       	callq  76f3 <transparent_crc>
    f875:	8b 05 4d 91 00 00    	mov    0x914d(%rip),%eax        # 189c8 <g_1022>
    f87b:	89 c1                	mov    %eax,%ecx
    f87d:	8b 45 fc             	mov    -0x4(%rbp),%eax
    f880:	89 c2                	mov    %eax,%edx
    f882:	48 8d 35 97 49 00 00 	lea    0x4997(%rip),%rsi        # 14220 <g_1899+0x11a0>
    f889:	48 89 cf             	mov    %rcx,%rdi
    f88c:	e8 62 7e ff ff       	callq  76f3 <transparent_crc>
    f891:	0f b7 05 30 91 00 00 	movzwl 0x9130(%rip),%eax        # 189c8 <g_1022>
    f898:	0f b7 c0             	movzwl %ax,%eax
    f89b:	8b 55 fc             	mov    -0x4(%rbp),%edx
    f89e:	48 8d 35 85 49 00 00 	lea    0x4985(%rip),%rsi        # 1422a <g_1899+0x11aa>
    f8a5:	48 89 c7             	mov    %rax,%rdi
    f8a8:	e8 46 7e ff ff       	callq  76f3 <transparent_crc>
    f8ad:	8b 05 15 91 00 00    	mov    0x9115(%rip),%eax        # 189c8 <g_1022>
    f8b3:	48 98                	cltq   
    f8b5:	8b 55 fc             	mov    -0x4(%rbp),%edx
    f8b8:	48 8d 35 75 49 00 00 	lea    0x4975(%rip),%rsi        # 14234 <g_1899+0x11b4>
    f8bf:	48 89 c7             	mov    %rax,%rdi
    f8c2:	e8 2c 7e ff ff       	callq  76f3 <transparent_crc>
    f8c7:	48 8b 05 02 91 00 00 	mov    0x9102(%rip),%rax        # 189d0 <g_1053>
    f8ce:	c1 e0 05             	shl    $0x5,%eax
    f8d1:	c0 f8 05             	sar    $0x5,%al
    f8d4:	48 0f be c0          	movsbq %al,%rax
    f8d8:	8b 55 fc             	mov    -0x4(%rbp),%edx
    f8db:	48 8d 35 5c 49 00 00 	lea    0x495c(%rip),%rsi        # 1423e <g_1899+0x11be>
    f8e2:	48 89 c7             	mov    %rax,%rdi
    f8e5:	e8 09 7e ff ff       	callq  76f3 <transparent_crc>
    f8ea:	48 8b 05 df 90 00 00 	mov    0x90df(%rip),%rax        # 189d0 <g_1053>
    f8f1:	48 c1 e8 03          	shr    $0x3,%rax
    f8f5:	83 e0 1f             	and    $0x1f,%eax
    f8f8:	0f b6 c0             	movzbl %al,%eax
    f8fb:	8b 55 fc             	mov    -0x4(%rbp),%edx
    f8fe:	48 8d 35 43 49 00 00 	lea    0x4943(%rip),%rsi        # 14248 <g_1899+0x11c8>
    f905:	48 89 c7             	mov    %rax,%rdi
    f908:	e8 e6 7d ff ff       	callq  76f3 <transparent_crc>
    f90d:	48 8b 05 bc 90 00 00 	mov    0x90bc(%rip),%rax        # 189d0 <g_1053>
    f914:	c1 e0 0c             	shl    $0xc,%eax
    f917:	c1 f8 14             	sar    $0x14,%eax
    f91a:	48 0f bf c0          	movswq %ax,%rax
    f91e:	8b 55 fc             	mov    -0x4(%rbp),%edx
    f921:	48 8d 35 2a 49 00 00 	lea    0x492a(%rip),%rsi        # 14252 <g_1899+0x11d2>
    f928:	48 89 c7             	mov    %rax,%rdi
    f92b:	e8 c3 7d ff ff       	callq  76f3 <transparent_crc>
    f930:	48 8b 05 99 90 00 00 	mov    0x9099(%rip),%rax        # 189d0 <g_1053>
    f937:	48 c1 e8 14          	shr    $0x14,%rax
    f93b:	66 25 ff 01          	and    $0x1ff,%ax
    f93f:	0f b7 c0             	movzwl %ax,%eax
    f942:	8b 55 fc             	mov    -0x4(%rbp),%edx
    f945:	48 8d 35 10 49 00 00 	lea    0x4910(%rip),%rsi        # 1425c <g_1899+0x11dc>
    f94c:	48 89 c7             	mov    %rax,%rdi
    f94f:	e8 9f 7d ff ff       	callq  76f3 <transparent_crc>
    f954:	48 8b 05 75 90 00 00 	mov    0x9075(%rip),%rax        # 189d0 <g_1053>
    f95b:	48 c1 e0 0c          	shl    $0xc,%rax
    f95f:	48 c1 f8 2c          	sar    $0x2c,%rax
    f963:	48 98                	cltq   
    f965:	8b 55 fc             	mov    -0x4(%rbp),%edx
    f968:	48 8d 35 f7 48 00 00 	lea    0x48f7(%rip),%rsi        # 14266 <g_1899+0x11e6>
    f96f:	48 89 c7             	mov    %rax,%rdi
    f972:	e8 7c 7d ff ff       	callq  76f3 <transparent_crc>
    f977:	48 8b 05 52 90 00 00 	mov    0x9052(%rip),%rax        # 189d0 <g_1053>
    f97e:	48 c1 e0 06          	shl    $0x6,%rax
    f982:	48 c1 f8 3a          	sar    $0x3a,%rax
    f986:	48 0f be c0          	movsbq %al,%rax
    f98a:	8b 55 fc             	mov    -0x4(%rbp),%edx
    f98d:	48 8d 35 dc 48 00 00 	lea    0x48dc(%rip),%rsi        # 14270 <g_1899+0x11f0>
    f994:	48 89 c7             	mov    %rax,%rdi
    f997:	e8 57 7d ff ff       	callq  76f3 <transparent_crc>
    f99c:	48 8b 05 35 90 00 00 	mov    0x9035(%rip),%rax        # 189d8 <g_1053+0x8>
    f9a3:	c1 e0 04             	shl    $0x4,%eax
    f9a6:	66 c1 f8 04          	sar    $0x4,%ax
    f9aa:	48 0f bf c0          	movswq %ax,%rax
    f9ae:	8b 55 fc             	mov    -0x4(%rbp),%edx
    f9b1:	48 8d 35 c2 48 00 00 	lea    0x48c2(%rip),%rsi        # 1427a <g_1899+0x11fa>
    f9b8:	48 89 c7             	mov    %rax,%rdi
    f9bb:	e8 33 7d ff ff       	callq  76f3 <transparent_crc>
    f9c0:	48 8b 05 11 90 00 00 	mov    0x9011(%rip),%rax        # 189d8 <g_1053+0x8>
    f9c7:	c1 e0 0f             	shl    $0xf,%eax
    f9ca:	c1 f8 1b             	sar    $0x1b,%eax
    f9cd:	48 0f be c0          	movsbq %al,%rax
    f9d1:	8b 55 fc             	mov    -0x4(%rbp),%edx
    f9d4:	48 8d 35 a9 48 00 00 	lea    0x48a9(%rip),%rsi        # 14284 <g_1899+0x1204>
    f9db:	48 89 c7             	mov    %rax,%rdi
    f9de:	e8 10 7d ff ff       	callq  76f3 <transparent_crc>
    f9e3:	48 8b 05 f6 8f 00 00 	mov    0x8ff6(%rip),%rax        # 189e0 <g_1058>
    f9ea:	c1 e0 05             	shl    $0x5,%eax
    f9ed:	c1 f8 05             	sar    $0x5,%eax
    f9f0:	48 98                	cltq   
    f9f2:	8b 55 fc             	mov    -0x4(%rbp),%edx
    f9f5:	48 8d 35 92 48 00 00 	lea    0x4892(%rip),%rsi        # 1428e <g_1899+0x120e>
    f9fc:	48 89 c7             	mov    %rax,%rdi
    f9ff:	e8 ef 7c ff ff       	callq  76f3 <transparent_crc>
    fa04:	8b 05 da 8f 00 00    	mov    0x8fda(%rip),%eax        # 189e4 <g_1058+0x4>
    fa0a:	89 c1                	mov    %eax,%ecx
    fa0c:	8b 45 fc             	mov    -0x4(%rbp),%eax
    fa0f:	89 c2                	mov    %eax,%edx
    fa11:	48 8d 35 83 48 00 00 	lea    0x4883(%rip),%rsi        # 1429b <g_1899+0x121b>
    fa18:	48 89 cf             	mov    %rcx,%rdi
    fa1b:	e8 d3 7c ff ff       	callq  76f3 <transparent_crc>
    fa20:	48 8b 05 c1 8f 00 00 	mov    0x8fc1(%rip),%rax        # 189e8 <g_1058+0x8>
    fa27:	c1 e0 02             	shl    $0x2,%eax
    fa2a:	c0 f8 02             	sar    $0x2,%al
    fa2d:	48 0f be c0          	movsbq %al,%rax
    fa31:	8b 55 fc             	mov    -0x4(%rbp),%edx
    fa34:	48 8d 35 6d 48 00 00 	lea    0x486d(%rip),%rsi        # 142a8 <g_1899+0x1228>
    fa3b:	48 89 c7             	mov    %rax,%rdi
    fa3e:	e8 b0 7c ff ff       	callq  76f3 <transparent_crc>
    fa43:	0f b6 05 9f 8f 00 00 	movzbl 0x8f9f(%rip),%eax        # 189e9 <g_1058+0x9>
    fa4a:	0f b6 c0             	movzbl %al,%eax
    fa4d:	8b 55 fc             	mov    -0x4(%rbp),%edx
    fa50:	48 8d 35 5e 48 00 00 	lea    0x485e(%rip),%rsi        # 142b5 <g_1899+0x1235>
    fa57:	48 89 c7             	mov    %rax,%rdi
    fa5a:	e8 94 7c ff ff       	callq  76f3 <transparent_crc>
    fa5f:	48 8b 05 82 8f 00 00 	mov    0x8f82(%rip),%rax        # 189e8 <g_1058+0x8>
    fa66:	48 c1 e8 10          	shr    $0x10,%rax
    fa6a:	25 ff ff ff 3f       	and    $0x3fffffff,%eax
    fa6f:	89 c1                	mov    %eax,%ecx
    fa71:	8b 45 fc             	mov    -0x4(%rbp),%eax
    fa74:	89 c2                	mov    %eax,%edx
    fa76:	48 8d 35 45 48 00 00 	lea    0x4845(%rip),%rsi        # 142c2 <g_1899+0x1242>
    fa7d:	48 89 cf             	mov    %rcx,%rdi
    fa80:	e8 6e 7c ff ff       	callq  76f3 <transparent_crc>
    fa85:	48 8b 05 5c 8f 00 00 	mov    0x8f5c(%rip),%rax        # 189e8 <g_1058+0x8>
    fa8c:	48 c1 e8 2e          	shr    $0x2e,%rax
    fa90:	66 25 ff 01          	and    $0x1ff,%ax
    fa94:	0f b7 c0             	movzwl %ax,%eax
    fa97:	8b 55 fc             	mov    -0x4(%rbp),%edx
    fa9a:	48 8d 35 2e 48 00 00 	lea    0x482e(%rip),%rsi        # 142cf <g_1899+0x124f>
    faa1:	48 89 c7             	mov    %rax,%rdi
    faa4:	e8 4a 7c ff ff       	callq  76f3 <transparent_crc>
    faa9:	48 8b 05 38 8f 00 00 	mov    0x8f38(%rip),%rax        # 189e8 <g_1058+0x8>
    fab0:	48 c1 f8 37          	sar    $0x37,%rax
    fab4:	48 0f bf c0          	movswq %ax,%rax
    fab8:	8b 55 fc             	mov    -0x4(%rbp),%edx
    fabb:	48 8d 35 1a 48 00 00 	lea    0x481a(%rip),%rsi        # 142dc <g_1899+0x125c>
    fac2:	48 89 c7             	mov    %rax,%rdi
    fac5:	e8 29 7c ff ff       	callq  76f3 <transparent_crc>
    faca:	48 8b 05 1f 8f 00 00 	mov    0x8f1f(%rip),%rax        # 189f0 <g_1058+0x10>
    fad1:	25 ff ff ff 3f       	and    $0x3fffffff,%eax
    fad6:	89 c1                	mov    %eax,%ecx
    fad8:	8b 45 fc             	mov    -0x4(%rbp),%eax
    fadb:	89 c2                	mov    %eax,%edx
    fadd:	48 8d 35 05 48 00 00 	lea    0x4805(%rip),%rsi        # 142e9 <g_1899+0x1269>
    fae4:	48 89 cf             	mov    %rcx,%rdi
    fae7:	e8 07 7c ff ff       	callq  76f3 <transparent_crc>
    faec:	8b 05 02 8f 00 00    	mov    0x8f02(%rip),%eax        # 189f4 <g_1076>
    faf2:	48 98                	cltq   
    faf4:	8b 55 fc             	mov    -0x4(%rbp),%edx
    faf7:	48 8d 35 f8 47 00 00 	lea    0x47f8(%rip),%rsi        # 142f6 <g_1899+0x1276>
    fafe:	48 89 c7             	mov    %rax,%rdi
    fb01:	e8 ed 7b ff ff       	callq  76f3 <transparent_crc>
    fb06:	8b 05 ec 8e 00 00    	mov    0x8eec(%rip),%eax        # 189f8 <g_1114>
    fb0c:	89 c1                	mov    %eax,%ecx
    fb0e:	8b 45 fc             	mov    -0x4(%rbp),%eax
    fb11:	89 c2                	mov    %eax,%edx
    fb13:	48 8d 35 e3 47 00 00 	lea    0x47e3(%rip),%rsi        # 142fd <g_1899+0x127d>
    fb1a:	48 89 cf             	mov    %rcx,%rdi
    fb1d:	e8 d1 7b ff ff       	callq  76f3 <transparent_crc>
    fb22:	0f b7 05 cf 8e 00 00 	movzwl 0x8ecf(%rip),%eax        # 189f8 <g_1114>
    fb29:	0f b7 c0             	movzwl %ax,%eax
    fb2c:	8b 55 fc             	mov    -0x4(%rbp),%edx
    fb2f:	48 8d 35 d1 47 00 00 	lea    0x47d1(%rip),%rsi        # 14307 <g_1899+0x1287>
    fb36:	48 89 c7             	mov    %rax,%rdi
    fb39:	e8 b5 7b ff ff       	callq  76f3 <transparent_crc>
    fb3e:	8b 05 b4 8e 00 00    	mov    0x8eb4(%rip),%eax        # 189f8 <g_1114>
    fb44:	48 98                	cltq   
    fb46:	8b 55 fc             	mov    -0x4(%rbp),%edx
    fb49:	48 8d 35 c1 47 00 00 	lea    0x47c1(%rip),%rsi        # 14311 <g_1899+0x1291>
    fb50:	48 89 c7             	mov    %rax,%rdi
    fb53:	e8 9b 7b ff ff       	callq  76f3 <transparent_crc>
    fb58:	c7 45 f0 00 00 00 00 	movl   $0x0,-0x10(%rbp)
    fb5f:	e9 09 04 00 00       	jmpq   ff6d <main+0x33fd>
    fb64:	8b 45 f0             	mov    -0x10(%rbp),%eax
    fb67:	48 63 d0             	movslq %eax,%rdx
    fb6a:	48 89 d0             	mov    %rdx,%rax
    fb6d:	48 c1 e0 02          	shl    $0x2,%rax
    fb71:	48 01 d0             	add    %rdx,%rax
    fb74:	48 c1 e0 03          	shl    $0x3,%rax
    fb78:	48 89 c2             	mov    %rax,%rdx
    fb7b:	48 8d 05 7e 8e 00 00 	lea    0x8e7e(%rip),%rax        # 18a00 <g_1122>
    fb82:	48 8b 04 02          	mov    (%rdx,%rax,1),%rax
    fb86:	c1 e0 05             	shl    $0x5,%eax
    fb89:	c1 f8 05             	sar    $0x5,%eax
    fb8c:	48 98                	cltq   
    fb8e:	8b 55 fc             	mov    -0x4(%rbp),%edx
    fb91:	48 8d 35 83 47 00 00 	lea    0x4783(%rip),%rsi        # 1431b <g_1899+0x129b>
    fb98:	48 89 c7             	mov    %rax,%rdi
    fb9b:	e8 53 7b ff ff       	callq  76f3 <transparent_crc>
    fba0:	8b 45 f0             	mov    -0x10(%rbp),%eax
    fba3:	48 63 d0             	movslq %eax,%rdx
    fba6:	48 89 d0             	mov    %rdx,%rax
    fba9:	48 c1 e0 02          	shl    $0x2,%rax
    fbad:	48 01 d0             	add    %rdx,%rax
    fbb0:	48 c1 e0 03          	shl    $0x3,%rax
    fbb4:	48 89 c2             	mov    %rax,%rdx
    fbb7:	48 8d 05 46 8e 00 00 	lea    0x8e46(%rip),%rax        # 18a04 <g_1122+0x4>
    fbbe:	8b 04 02             	mov    (%rdx,%rax,1),%eax
    fbc1:	89 c1                	mov    %eax,%ecx
    fbc3:	8b 45 fc             	mov    -0x4(%rbp),%eax
    fbc6:	89 c2                	mov    %eax,%edx
    fbc8:	48 8d 35 5f 47 00 00 	lea    0x475f(%rip),%rsi        # 1432e <g_1899+0x12ae>
    fbcf:	48 89 cf             	mov    %rcx,%rdi
    fbd2:	e8 1c 7b ff ff       	callq  76f3 <transparent_crc>
    fbd7:	8b 45 f0             	mov    -0x10(%rbp),%eax
    fbda:	48 63 d0             	movslq %eax,%rdx
    fbdd:	48 89 d0             	mov    %rdx,%rax
    fbe0:	48 c1 e0 02          	shl    $0x2,%rax
    fbe4:	48 01 d0             	add    %rdx,%rax
    fbe7:	48 c1 e0 03          	shl    $0x3,%rax
    fbeb:	48 89 c2             	mov    %rax,%rdx
    fbee:	48 8d 05 0b 8e 00 00 	lea    0x8e0b(%rip),%rax        # 18a00 <g_1122>
    fbf5:	48 8b 44 02 08       	mov    0x8(%rdx,%rax,1),%rax
    fbfa:	c1 e0 02             	shl    $0x2,%eax
    fbfd:	c0 f8 02             	sar    $0x2,%al
    fc00:	48 0f be c0          	movsbq %al,%rax
    fc04:	8b 55 fc             	mov    -0x4(%rbp),%edx
    fc07:	48 8d 35 33 47 00 00 	lea    0x4733(%rip),%rsi        # 14341 <g_1899+0x12c1>
    fc0e:	48 89 c7             	mov    %rax,%rdi
    fc11:	e8 dd 7a ff ff       	callq  76f3 <transparent_crc>
    fc16:	8b 45 f0             	mov    -0x10(%rbp),%eax
    fc19:	48 63 d0             	movslq %eax,%rdx
    fc1c:	48 89 d0             	mov    %rdx,%rax
    fc1f:	48 c1 e0 02          	shl    $0x2,%rax
    fc23:	48 01 d0             	add    %rdx,%rax
    fc26:	48 c1 e0 03          	shl    $0x3,%rax
    fc2a:	48 89 c2             	mov    %rax,%rdx
    fc2d:	48 8d 05 d5 8d 00 00 	lea    0x8dd5(%rip),%rax        # 18a09 <g_1122+0x9>
    fc34:	0f b6 04 02          	movzbl (%rdx,%rax,1),%eax
    fc38:	0f b6 c0             	movzbl %al,%eax
    fc3b:	8b 55 fc             	mov    -0x4(%rbp),%edx
    fc3e:	48 8d 35 0f 47 00 00 	lea    0x470f(%rip),%rsi        # 14354 <g_1899+0x12d4>
    fc45:	48 89 c7             	mov    %rax,%rdi
    fc48:	e8 a6 7a ff ff       	callq  76f3 <transparent_crc>
    fc4d:	8b 45 f0             	mov    -0x10(%rbp),%eax
    fc50:	48 63 d0             	movslq %eax,%rdx
    fc53:	48 89 d0             	mov    %rdx,%rax
    fc56:	48 c1 e0 02          	shl    $0x2,%rax
    fc5a:	48 01 d0             	add    %rdx,%rax
    fc5d:	48 c1 e0 03          	shl    $0x3,%rax
    fc61:	48 89 c2             	mov    %rax,%rdx
    fc64:	48 8d 05 95 8d 00 00 	lea    0x8d95(%rip),%rax        # 18a00 <g_1122>
    fc6b:	48 8b 44 02 08       	mov    0x8(%rdx,%rax,1),%rax
    fc70:	48 c1 e8 10          	shr    $0x10,%rax
    fc74:	25 ff ff ff 3f       	and    $0x3fffffff,%eax
    fc79:	89 c1                	mov    %eax,%ecx
    fc7b:	8b 45 fc             	mov    -0x4(%rbp),%eax
    fc7e:	89 c2                	mov    %eax,%edx
    fc80:	48 8d 35 e0 46 00 00 	lea    0x46e0(%rip),%rsi        # 14367 <g_1899+0x12e7>
    fc87:	48 89 cf             	mov    %rcx,%rdi
    fc8a:	e8 64 7a ff ff       	callq  76f3 <transparent_crc>
    fc8f:	8b 45 f0             	mov    -0x10(%rbp),%eax
    fc92:	48 63 d0             	movslq %eax,%rdx
    fc95:	48 89 d0             	mov    %rdx,%rax
    fc98:	48 c1 e0 02          	shl    $0x2,%rax
    fc9c:	48 01 d0             	add    %rdx,%rax
    fc9f:	48 c1 e0 03          	shl    $0x3,%rax
    fca3:	48 89 c2             	mov    %rax,%rdx
    fca6:	48 8d 05 53 8d 00 00 	lea    0x8d53(%rip),%rax        # 18a00 <g_1122>
    fcad:	48 8b 44 02 08       	mov    0x8(%rdx,%rax,1),%rax
    fcb2:	48 c1 e8 2e          	shr    $0x2e,%rax
    fcb6:	66 25 ff 01          	and    $0x1ff,%ax
    fcba:	0f b7 c0             	movzwl %ax,%eax
    fcbd:	8b 55 fc             	mov    -0x4(%rbp),%edx
    fcc0:	48 8d 35 b3 46 00 00 	lea    0x46b3(%rip),%rsi        # 1437a <g_1899+0x12fa>
    fcc7:	48 89 c7             	mov    %rax,%rdi
    fcca:	e8 24 7a ff ff       	callq  76f3 <transparent_crc>
    fccf:	8b 45 f0             	mov    -0x10(%rbp),%eax
    fcd2:	48 63 d0             	movslq %eax,%rdx
    fcd5:	48 89 d0             	mov    %rdx,%rax
    fcd8:	48 c1 e0 02          	shl    $0x2,%rax
    fcdc:	48 01 d0             	add    %rdx,%rax
    fcdf:	48 c1 e0 03          	shl    $0x3,%rax
    fce3:	48 89 c2             	mov    %rax,%rdx
    fce6:	48 8d 05 13 8d 00 00 	lea    0x8d13(%rip),%rax        # 18a00 <g_1122>
    fced:	48 8b 44 02 08       	mov    0x8(%rdx,%rax,1),%rax
    fcf2:	48 c1 f8 37          	sar    $0x37,%rax
    fcf6:	48 0f bf c0          	movswq %ax,%rax
    fcfa:	8b 55 fc             	mov    -0x4(%rbp),%edx
    fcfd:	48 8d 35 89 46 00 00 	lea    0x4689(%rip),%rsi        # 1438d <g_1899+0x130d>
    fd04:	48 89 c7             	mov    %rax,%rdi
    fd07:	e8 e7 79 ff ff       	callq  76f3 <transparent_crc>
    fd0c:	8b 45 f0             	mov    -0x10(%rbp),%eax
    fd0f:	48 63 d0             	movslq %eax,%rdx
    fd12:	48 89 d0             	mov    %rdx,%rax
    fd15:	48 c1 e0 02          	shl    $0x2,%rax
    fd19:	48 01 d0             	add    %rdx,%rax
    fd1c:	48 c1 e0 03          	shl    $0x3,%rax
    fd20:	48 89 c2             	mov    %rax,%rdx
    fd23:	48 8d 05 e6 8c 00 00 	lea    0x8ce6(%rip),%rax        # 18a10 <g_1122+0x10>
    fd2a:	48 8b 04 02          	mov    (%rdx,%rax,1),%rax
    fd2e:	25 ff ff ff 3f       	and    $0x3fffffff,%eax
    fd33:	89 c1                	mov    %eax,%ecx
    fd35:	8b 45 fc             	mov    -0x4(%rbp),%eax
    fd38:	89 c2                	mov    %eax,%edx
    fd3a:	48 8d 35 5f 46 00 00 	lea    0x465f(%rip),%rsi        # 143a0 <g_1899+0x1320>
    fd41:	48 89 cf             	mov    %rcx,%rdi
    fd44:	e8 aa 79 ff ff       	callq  76f3 <transparent_crc>
    fd49:	8b 45 f0             	mov    -0x10(%rbp),%eax
    fd4c:	48 63 d0             	movslq %eax,%rdx
    fd4f:	48 89 d0             	mov    %rdx,%rax
    fd52:	48 c1 e0 02          	shl    $0x2,%rax
    fd56:	48 01 d0             	add    %rdx,%rax
    fd59:	48 c1 e0 03          	shl    $0x3,%rax
    fd5d:	48 89 c2             	mov    %rax,%rdx
    fd60:	48 8d 05 ad 8c 00 00 	lea    0x8cad(%rip),%rax        # 18a14 <g_1122+0x14>
    fd67:	0f b6 04 02          	movzbl (%rdx,%rax,1),%eax
    fd6b:	48 0f be c0          	movsbq %al,%rax
    fd6f:	8b 55 fc             	mov    -0x4(%rbp),%edx
    fd72:	48 8d 35 3a 46 00 00 	lea    0x463a(%rip),%rsi        # 143b3 <g_1899+0x1333>
    fd79:	48 89 c7             	mov    %rax,%rdi
    fd7c:	e8 72 79 ff ff       	callq  76f3 <transparent_crc>
    fd81:	8b 45 f0             	mov    -0x10(%rbp),%eax
    fd84:	48 63 d0             	movslq %eax,%rdx
    fd87:	48 89 d0             	mov    %rdx,%rax
    fd8a:	48 c1 e0 02          	shl    $0x2,%rax
    fd8e:	48 01 d0             	add    %rdx,%rax
    fd91:	48 c1 e0 03          	shl    $0x3,%rax
    fd95:	48 89 c2             	mov    %rax,%rdx
    fd98:	48 8d 05 71 8c 00 00 	lea    0x8c71(%rip),%rax        # 18a10 <g_1122+0x10>
    fd9f:	48 8b 04 02          	mov    (%rdx,%rax,1),%rax
    fda3:	48 c1 e0 0f          	shl    $0xf,%rax
    fda7:	48 c1 f8 37          	sar    $0x37,%rax
    fdab:	48 0f bf c0          	movswq %ax,%rax
    fdaf:	8b 55 fc             	mov    -0x4(%rbp),%edx
    fdb2:	48 8d 35 07 46 00 00 	lea    0x4607(%rip),%rsi        # 143c0 <g_1899+0x1340>
    fdb9:	48 89 c7             	mov    %rax,%rdi
    fdbc:	e8 32 79 ff ff       	callq  76f3 <transparent_crc>
    fdc1:	8b 45 f0             	mov    -0x10(%rbp),%eax
    fdc4:	48 63 d0             	movslq %eax,%rdx
    fdc7:	48 89 d0             	mov    %rdx,%rax
    fdca:	48 c1 e0 02          	shl    $0x2,%rax
    fdce:	48 01 d0             	add    %rdx,%rax
    fdd1:	48 c1 e0 03          	shl    $0x3,%rax
    fdd5:	48 89 c2             	mov    %rax,%rdx
    fdd8:	48 8d 05 39 8c 00 00 	lea    0x8c39(%rip),%rax        # 18a18 <g_1122+0x18>
    fddf:	0f b7 04 02          	movzwl (%rdx,%rax,1),%eax
    fde3:	48 0f bf c0          	movswq %ax,%rax
    fde7:	8b 55 fc             	mov    -0x4(%rbp),%edx
    fdea:	48 8d 35 dc 45 00 00 	lea    0x45dc(%rip),%rsi        # 143cd <g_1899+0x134d>
    fdf1:	48 89 c7             	mov    %rax,%rdi
    fdf4:	e8 fa 78 ff ff       	callq  76f3 <transparent_crc>
    fdf9:	8b 45 f0             	mov    -0x10(%rbp),%eax
    fdfc:	48 63 d0             	movslq %eax,%rdx
    fdff:	48 89 d0             	mov    %rdx,%rax
    fe02:	48 c1 e0 02          	shl    $0x2,%rax
    fe06:	48 01 d0             	add    %rdx,%rax
    fe09:	48 c1 e0 03          	shl    $0x3,%rax
    fe0d:	48 89 c2             	mov    %rax,%rdx
    fe10:	48 8d 05 03 8c 00 00 	lea    0x8c03(%rip),%rax        # 18a1a <g_1122+0x1a>
    fe17:	0f b6 04 02          	movzbl (%rdx,%rax,1),%eax
    fe1b:	48 0f be c0          	movsbq %al,%rax
    fe1f:	8b 55 fc             	mov    -0x4(%rbp),%edx
    fe22:	48 8d 35 b1 45 00 00 	lea    0x45b1(%rip),%rsi        # 143da <g_1899+0x135a>
    fe29:	48 89 c7             	mov    %rax,%rdi
    fe2c:	e8 c2 78 ff ff       	callq  76f3 <transparent_crc>
    fe31:	8b 45 f0             	mov    -0x10(%rbp),%eax
    fe34:	48 63 d0             	movslq %eax,%rdx
    fe37:	48 89 d0             	mov    %rdx,%rax
    fe3a:	48 c1 e0 02          	shl    $0x2,%rax
    fe3e:	48 01 d0             	add    %rdx,%rax
    fe41:	48 c1 e0 03          	shl    $0x3,%rax
    fe45:	48 89 c2             	mov    %rax,%rdx
    fe48:	48 8d 05 cc 8b 00 00 	lea    0x8bcc(%rip),%rax        # 18a1b <g_1122+0x1b>
    fe4f:	0f b6 04 02          	movzbl (%rdx,%rax,1),%eax
    fe53:	48 0f be c0          	movsbq %al,%rax
    fe57:	8b 55 fc             	mov    -0x4(%rbp),%edx
    fe5a:	48 8d 35 86 45 00 00 	lea    0x4586(%rip),%rsi        # 143e7 <g_1899+0x1367>
    fe61:	48 89 c7             	mov    %rax,%rdi
    fe64:	e8 8a 78 ff ff       	callq  76f3 <transparent_crc>
    fe69:	8b 45 f0             	mov    -0x10(%rbp),%eax
    fe6c:	48 63 d0             	movslq %eax,%rdx
    fe6f:	48 89 d0             	mov    %rdx,%rax
    fe72:	48 c1 e0 02          	shl    $0x2,%rax
    fe76:	48 01 d0             	add    %rdx,%rax
    fe79:	48 c1 e0 03          	shl    $0x3,%rax
    fe7d:	48 89 c2             	mov    %rax,%rdx
    fe80:	48 8d 05 95 8b 00 00 	lea    0x8b95(%rip),%rax        # 18a1c <g_1122+0x1c>
    fe87:	8b 04 02             	mov    (%rdx,%rax,1),%eax
    fe8a:	89 c1                	mov    %eax,%ecx
    fe8c:	8b 45 fc             	mov    -0x4(%rbp),%eax
    fe8f:	89 c2                	mov    %eax,%edx
    fe91:	48 8d 35 5c 45 00 00 	lea    0x455c(%rip),%rsi        # 143f4 <g_1899+0x1374>
    fe98:	48 89 cf             	mov    %rcx,%rdi
    fe9b:	e8 53 78 ff ff       	callq  76f3 <transparent_crc>
    fea0:	8b 45 f0             	mov    -0x10(%rbp),%eax
    fea3:	48 63 d0             	movslq %eax,%rdx
    fea6:	48 89 d0             	mov    %rdx,%rax
    fea9:	48 c1 e0 02          	shl    $0x2,%rax
    fead:	48 01 d0             	add    %rdx,%rax
    feb0:	48 c1 e0 03          	shl    $0x3,%rax
    feb4:	48 89 c2             	mov    %rax,%rdx
    feb7:	48 8d 05 62 8b 00 00 	lea    0x8b62(%rip),%rax        # 18a20 <g_1122+0x20>
    febe:	0f b7 04 02          	movzwl (%rdx,%rax,1),%eax
    fec2:	0f b7 c0             	movzwl %ax,%eax
    fec5:	8b 55 fc             	mov    -0x4(%rbp),%edx
    fec8:	48 8d 35 32 45 00 00 	lea    0x4532(%rip),%rsi        # 14401 <g_1899+0x1381>
    fecf:	48 89 c7             	mov    %rax,%rdi
    fed2:	e8 1c 78 ff ff       	callq  76f3 <transparent_crc>
    fed7:	8b 45 f0             	mov    -0x10(%rbp),%eax
    feda:	48 63 d0             	movslq %eax,%rdx
    fedd:	48 89 d0             	mov    %rdx,%rax
    fee0:	48 c1 e0 02          	shl    $0x2,%rax
    fee4:	48 01 d0             	add    %rdx,%rax
    fee7:	48 c1 e0 03          	shl    $0x3,%rax
    feeb:	48 89 c2             	mov    %rax,%rdx
    feee:	48 8d 05 2d 8b 00 00 	lea    0x8b2d(%rip),%rax        # 18a22 <g_1122+0x22>
    fef5:	0f b7 04 02          	movzwl (%rdx,%rax,1),%eax
    fef9:	48 0f bf c0          	movswq %ax,%rax
    fefd:	8b 55 fc             	mov    -0x4(%rbp),%edx
    ff00:	48 8d 35 07 45 00 00 	lea    0x4507(%rip),%rsi        # 1440e <g_1899+0x138e>
    ff07:	48 89 c7             	mov    %rax,%rdi
    ff0a:	e8 e4 77 ff ff       	callq  76f3 <transparent_crc>
    ff0f:	8b 45 f0             	mov    -0x10(%rbp),%eax
    ff12:	48 63 d0             	movslq %eax,%rdx
    ff15:	48 89 d0             	mov    %rdx,%rax
    ff18:	48 c1 e0 02          	shl    $0x2,%rax
    ff1c:	48 01 d0             	add    %rdx,%rax
    ff1f:	48 c1 e0 03          	shl    $0x3,%rax
    ff23:	48 89 c2             	mov    %rax,%rdx
    ff26:	48 8d 05 f3 8a 00 00 	lea    0x8af3(%rip),%rax        # 18a20 <g_1122+0x20>
    ff2d:	48 8b 04 02          	mov    (%rdx,%rax,1),%rax
    ff31:	48 c1 e0 0f          	shl    $0xf,%rax
    ff35:	48 c1 f8 2f          	sar    $0x2f,%rax
    ff39:	48 98                	cltq   
    ff3b:	8b 55 fc             	mov    -0x4(%rbp),%edx
    ff3e:	48 8d 35 d6 44 00 00 	lea    0x44d6(%rip),%rsi        # 1441b <g_1899+0x139b>
    ff45:	48 89 c7             	mov    %rax,%rdi
    ff48:	e8 a6 77 ff ff       	callq  76f3 <transparent_crc>
    ff4d:	83 7d fc 00          	cmpl   $0x0,-0x4(%rbp)
    ff51:	74 16                	je     ff69 <main+0x33f9>
    ff53:	8b 45 f0             	mov    -0x10(%rbp),%eax
    ff56:	89 c6                	mov    %eax,%esi
    ff58:	48 8d 3d 2e 36 00 00 	lea    0x362e(%rip),%rdi        # 1358d <g_1899+0x50d>
    ff5f:	b8 00 00 00 00       	mov    $0x0,%eax
    ff64:	e8 17 61 ff ff       	callq  6080 <printf@plt>
    ff69:	83 45 f0 01          	addl   $0x1,-0x10(%rbp)
    ff6d:	83 7d f0 03          	cmpl   $0x3,-0x10(%rbp)
    ff71:	0f 8e ed fb ff ff    	jle    fb64 <main+0x2ff4>
    ff77:	0f b6 05 22 8b 00 00 	movzbl 0x8b22(%rip),%eax        # 18aa0 <g_1152>
    ff7e:	c1 e0 05             	shl    $0x5,%eax
    ff81:	c0 f8 05             	sar    $0x5,%al
    ff84:	48 0f be c0          	movsbq %al,%rax
    ff88:	8b 55 fc             	mov    -0x4(%rbp),%edx
    ff8b:	48 8d 35 96 44 00 00 	lea    0x4496(%rip),%rsi        # 14428 <g_1899+0x13a8>
    ff92:	48 89 c7             	mov    %rax,%rdi
    ff95:	e8 59 77 ff ff       	callq  76f3 <transparent_crc>
    ff9a:	0f b6 05 ff 8a 00 00 	movzbl 0x8aff(%rip),%eax        # 18aa0 <g_1152>
    ffa1:	c0 e8 03             	shr    $0x3,%al
    ffa4:	0f b6 c0             	movzbl %al,%eax
    ffa7:	8b 55 fc             	mov    -0x4(%rbp),%edx
    ffaa:	48 8d 35 81 44 00 00 	lea    0x4481(%rip),%rsi        # 14432 <g_1899+0x13b2>
    ffb1:	48 89 c7             	mov    %rax,%rdi
    ffb4:	e8 3a 77 ff ff       	callq  76f3 <transparent_crc>
    ffb9:	8b 05 e1 8a 00 00    	mov    0x8ae1(%rip),%eax        # 18aa0 <g_1152>
    ffbf:	c1 e0 0c             	shl    $0xc,%eax
    ffc2:	c1 f8 14             	sar    $0x14,%eax
    ffc5:	48 0f bf c0          	movswq %ax,%rax
    ffc9:	8b 55 fc             	mov    -0x4(%rbp),%edx
    ffcc:	48 8d 35 69 44 00 00 	lea    0x4469(%rip),%rsi        # 1443c <g_1899+0x13bc>
    ffd3:	48 89 c7             	mov    %rax,%rdi
    ffd6:	e8 18 77 ff ff       	callq  76f3 <transparent_crc>
    ffdb:	0f b7 05 c0 8a 00 00 	movzwl 0x8ac0(%rip),%eax        # 18aa2 <g_1152+0x2>
    ffe2:	66 c1 e8 04          	shr    $0x4,%ax
    ffe6:	66 25 ff 01          	and    $0x1ff,%ax
    ffea:	0f b7 c0             	movzwl %ax,%eax
    ffed:	8b 55 fc             	mov    -0x4(%rbp),%edx
    fff0:	48 8d 35 4f 44 00 00 	lea    0x444f(%rip),%rsi        # 14446 <g_1899+0x13c6>
    fff7:	48 89 c7             	mov    %rax,%rdi
    fffa:	e8 f4 76 ff ff       	callq  76f3 <transparent_crc>
    ffff:	8b 05 9f 8a 00 00    	mov    0x8a9f(%rip),%eax        # 18aa4 <g_1152+0x4>
   10005:	c1 e0 0c             	shl    $0xc,%eax
   10008:	c1 f8 0c             	sar    $0xc,%eax
   1000b:	48 98                	cltq   
   1000d:	8b 55 fc             	mov    -0x4(%rbp),%edx
   10010:	48 8d 35 39 44 00 00 	lea    0x4439(%rip),%rsi        # 14450 <g_1899+0x13d0>
   10017:	48 89 c7             	mov    %rax,%rdi
   1001a:	e8 d4 76 ff ff       	callq  76f3 <transparent_crc>
   1001f:	48 8b 05 7a 8a 00 00 	mov    0x8a7a(%rip),%rax        # 18aa0 <g_1152>
   10026:	48 c1 e0 06          	shl    $0x6,%rax
   1002a:	48 c1 f8 3a          	sar    $0x3a,%rax
   1002e:	48 0f be c0          	movsbq %al,%rax
   10032:	8b 55 fc             	mov    -0x4(%rbp),%edx
   10035:	48 8d 35 1e 44 00 00 	lea    0x441e(%rip),%rsi        # 1445a <g_1899+0x13da>
   1003c:	48 89 c7             	mov    %rax,%rdi
   1003f:	e8 af 76 ff ff       	callq  76f3 <transparent_crc>
   10044:	0f b7 05 5d 8a 00 00 	movzwl 0x8a5d(%rip),%eax        # 18aa8 <g_1152+0x8>
   1004b:	c1 e0 04             	shl    $0x4,%eax
   1004e:	66 c1 f8 04          	sar    $0x4,%ax
   10052:	48 0f bf c0          	movswq %ax,%rax
   10056:	8b 55 fc             	mov    -0x4(%rbp),%edx
   10059:	48 8d 35 04 44 00 00 	lea    0x4404(%rip),%rsi        # 14464 <g_1899+0x13e4>
   10060:	48 89 c7             	mov    %rax,%rdi
   10063:	e8 8b 76 ff ff       	callq  76f3 <transparent_crc>
   10068:	8b 05 3a 8a 00 00    	mov    0x8a3a(%rip),%eax        # 18aa8 <g_1152+0x8>
   1006e:	c1 e0 0f             	shl    $0xf,%eax
   10071:	c1 f8 1b             	sar    $0x1b,%eax
   10074:	48 0f be c0          	movsbq %al,%rax
   10078:	8b 55 fc             	mov    -0x4(%rbp),%edx
   1007b:	48 8d 35 ec 43 00 00 	lea    0x43ec(%rip),%rsi        # 1446e <g_1899+0x13ee>
   10082:	48 89 c7             	mov    %rax,%rdi
   10085:	e8 69 76 ff ff       	callq  76f3 <transparent_crc>
   1008a:	48 8b 05 1f 8a 00 00 	mov    0x8a1f(%rip),%rax        # 18ab0 <g_1164>
   10091:	c1 e0 05             	shl    $0x5,%eax
   10094:	c0 f8 05             	sar    $0x5,%al
   10097:	48 0f be c0          	movsbq %al,%rax
   1009b:	8b 55 fc             	mov    -0x4(%rbp),%edx
   1009e:	48 8d 35 d3 43 00 00 	lea    0x43d3(%rip),%rsi        # 14478 <g_1899+0x13f8>
   100a5:	48 89 c7             	mov    %rax,%rdi
   100a8:	e8 46 76 ff ff       	callq  76f3 <transparent_crc>
   100ad:	48 8b 05 fc 89 00 00 	mov    0x89fc(%rip),%rax        # 18ab0 <g_1164>
   100b4:	48 c1 e8 03          	shr    $0x3,%rax
   100b8:	83 e0 1f             	and    $0x1f,%eax
   100bb:	0f b6 c0             	movzbl %al,%eax
   100be:	8b 55 fc             	mov    -0x4(%rbp),%edx
   100c1:	48 8d 35 ba 43 00 00 	lea    0x43ba(%rip),%rsi        # 14482 <g_1899+0x1402>
   100c8:	48 89 c7             	mov    %rax,%rdi
   100cb:	e8 23 76 ff ff       	callq  76f3 <transparent_crc>
   100d0:	48 8b 05 d9 89 00 00 	mov    0x89d9(%rip),%rax        # 18ab0 <g_1164>
   100d7:	c1 e0 0c             	shl    $0xc,%eax
   100da:	c1 f8 14             	sar    $0x14,%eax
   100dd:	48 0f bf c0          	movswq %ax,%rax
   100e1:	8b 55 fc             	mov    -0x4(%rbp),%edx
   100e4:	48 8d 35 a1 43 00 00 	lea    0x43a1(%rip),%rsi        # 1448c <g_1899+0x140c>
   100eb:	48 89 c7             	mov    %rax,%rdi
   100ee:	e8 00 76 ff ff       	callq  76f3 <transparent_crc>
   100f3:	48 8b 05 b6 89 00 00 	mov    0x89b6(%rip),%rax        # 18ab0 <g_1164>
   100fa:	48 c1 e8 14          	shr    $0x14,%rax
   100fe:	66 25 ff 01          	and    $0x1ff,%ax
   10102:	0f b7 c0             	movzwl %ax,%eax
   10105:	8b 55 fc             	mov    -0x4(%rbp),%edx
   10108:	48 8d 35 87 43 00 00 	lea    0x4387(%rip),%rsi        # 14496 <g_1899+0x1416>
   1010f:	48 89 c7             	mov    %rax,%rdi
   10112:	e8 dc 75 ff ff       	callq  76f3 <transparent_crc>
   10117:	48 8b 05 92 89 00 00 	mov    0x8992(%rip),%rax        # 18ab0 <g_1164>
   1011e:	48 c1 e0 0c          	shl    $0xc,%rax
   10122:	48 c1 f8 2c          	sar    $0x2c,%rax
   10126:	48 98                	cltq   
   10128:	8b 55 fc             	mov    -0x4(%rbp),%edx
   1012b:	48 8d 35 6e 43 00 00 	lea    0x436e(%rip),%rsi        # 144a0 <g_1899+0x1420>
   10132:	48 89 c7             	mov    %rax,%rdi
   10135:	e8 b9 75 ff ff       	callq  76f3 <transparent_crc>
   1013a:	48 8b 05 6f 89 00 00 	mov    0x896f(%rip),%rax        # 18ab0 <g_1164>
   10141:	48 c1 e0 06          	shl    $0x6,%rax
   10145:	48 c1 f8 3a          	sar    $0x3a,%rax
   10149:	48 0f be c0          	movsbq %al,%rax
   1014d:	8b 55 fc             	mov    -0x4(%rbp),%edx
   10150:	48 8d 35 53 43 00 00 	lea    0x4353(%rip),%rsi        # 144aa <g_1899+0x142a>
   10157:	48 89 c7             	mov    %rax,%rdi
   1015a:	e8 94 75 ff ff       	callq  76f3 <transparent_crc>
   1015f:	48 8b 05 52 89 00 00 	mov    0x8952(%rip),%rax        # 18ab8 <g_1164+0x8>
   10166:	c1 e0 04             	shl    $0x4,%eax
   10169:	66 c1 f8 04          	sar    $0x4,%ax
   1016d:	48 0f bf c0          	movswq %ax,%rax
   10171:	8b 55 fc             	mov    -0x4(%rbp),%edx
   10174:	48 8d 35 39 43 00 00 	lea    0x4339(%rip),%rsi        # 144b4 <g_1899+0x1434>
   1017b:	48 89 c7             	mov    %rax,%rdi
   1017e:	e8 70 75 ff ff       	callq  76f3 <transparent_crc>
   10183:	48 8b 05 2e 89 00 00 	mov    0x892e(%rip),%rax        # 18ab8 <g_1164+0x8>
   1018a:	c1 e0 0f             	shl    $0xf,%eax
   1018d:	c1 f8 1b             	sar    $0x1b,%eax
   10190:	48 0f be c0          	movsbq %al,%rax
   10194:	8b 55 fc             	mov    -0x4(%rbp),%edx
   10197:	48 8d 35 20 43 00 00 	lea    0x4320(%rip),%rsi        # 144be <g_1899+0x143e>
   1019e:	48 89 c7             	mov    %rax,%rdi
   101a1:	e8 4d 75 ff ff       	callq  76f3 <transparent_crc>
   101a6:	8b 05 10 89 00 00    	mov    0x8910(%rip),%eax        # 18abc <g_1189>
   101ac:	48 98                	cltq   
   101ae:	8b 55 fc             	mov    -0x4(%rbp),%edx
   101b1:	48 8d 35 10 43 00 00 	lea    0x4310(%rip),%rsi        # 144c8 <g_1899+0x1448>
   101b8:	48 89 c7             	mov    %rax,%rdi
   101bb:	e8 33 75 ff ff       	callq  76f3 <transparent_crc>
   101c0:	48 8b 05 f9 88 00 00 	mov    0x88f9(%rip),%rax        # 18ac0 <g_1194>
   101c7:	c1 e0 05             	shl    $0x5,%eax
   101ca:	c1 f8 05             	sar    $0x5,%eax
   101cd:	48 98                	cltq   
   101cf:	8b 55 fc             	mov    -0x4(%rbp),%edx
   101d2:	48 8d 35 f6 42 00 00 	lea    0x42f6(%rip),%rsi        # 144cf <g_1899+0x144f>
   101d9:	48 89 c7             	mov    %rax,%rdi
   101dc:	e8 12 75 ff ff       	callq  76f3 <transparent_crc>
   101e1:	8b 05 dd 88 00 00    	mov    0x88dd(%rip),%eax        # 18ac4 <g_1194+0x4>
   101e7:	89 c1                	mov    %eax,%ecx
   101e9:	8b 45 fc             	mov    -0x4(%rbp),%eax
   101ec:	89 c2                	mov    %eax,%edx
   101ee:	48 8d 35 e7 42 00 00 	lea    0x42e7(%rip),%rsi        # 144dc <g_1899+0x145c>
   101f5:	48 89 cf             	mov    %rcx,%rdi
   101f8:	e8 f6 74 ff ff       	callq  76f3 <transparent_crc>
   101fd:	48 8b 05 c4 88 00 00 	mov    0x88c4(%rip),%rax        # 18ac8 <g_1194+0x8>
   10204:	c1 e0 02             	shl    $0x2,%eax
   10207:	c0 f8 02             	sar    $0x2,%al
   1020a:	48 0f be c0          	movsbq %al,%rax
   1020e:	8b 55 fc             	mov    -0x4(%rbp),%edx
   10211:	48 8d 35 d1 42 00 00 	lea    0x42d1(%rip),%rsi        # 144e9 <g_1899+0x1469>
   10218:	48 89 c7             	mov    %rax,%rdi
   1021b:	e8 d3 74 ff ff       	callq  76f3 <transparent_crc>
   10220:	0f b6 05 a2 88 00 00 	movzbl 0x88a2(%rip),%eax        # 18ac9 <g_1194+0x9>
   10227:	0f b6 c0             	movzbl %al,%eax
   1022a:	8b 55 fc             	mov    -0x4(%rbp),%edx
   1022d:	48 8d 35 c2 42 00 00 	lea    0x42c2(%rip),%rsi        # 144f6 <g_1899+0x1476>
   10234:	48 89 c7             	mov    %rax,%rdi
   10237:	e8 b7 74 ff ff       	callq  76f3 <transparent_crc>
   1023c:	48 8b 05 85 88 00 00 	mov    0x8885(%rip),%rax        # 18ac8 <g_1194+0x8>
   10243:	48 c1 e8 10          	shr    $0x10,%rax
   10247:	25 ff ff ff 3f       	and    $0x3fffffff,%eax
   1024c:	89 c1                	mov    %eax,%ecx
   1024e:	8b 45 fc             	mov    -0x4(%rbp),%eax
   10251:	89 c2                	mov    %eax,%edx
   10253:	48 8d 35 a9 42 00 00 	lea    0x42a9(%rip),%rsi        # 14503 <g_1899+0x1483>
   1025a:	48 89 cf             	mov    %rcx,%rdi
   1025d:	e8 91 74 ff ff       	callq  76f3 <transparent_crc>
   10262:	48 8b 05 5f 88 00 00 	mov    0x885f(%rip),%rax        # 18ac8 <g_1194+0x8>
   10269:	48 c1 e8 2e          	shr    $0x2e,%rax
   1026d:	66 25 ff 01          	and    $0x1ff,%ax
   10271:	0f b7 c0             	movzwl %ax,%eax
   10274:	8b 55 fc             	mov    -0x4(%rbp),%edx
   10277:	48 8d 35 92 42 00 00 	lea    0x4292(%rip),%rsi        # 14510 <g_1899+0x1490>
   1027e:	48 89 c7             	mov    %rax,%rdi
   10281:	e8 6d 74 ff ff       	callq  76f3 <transparent_crc>
   10286:	48 8b 05 3b 88 00 00 	mov    0x883b(%rip),%rax        # 18ac8 <g_1194+0x8>
   1028d:	48 c1 f8 37          	sar    $0x37,%rax
   10291:	48 0f bf c0          	movswq %ax,%rax
   10295:	8b 55 fc             	mov    -0x4(%rbp),%edx
   10298:	48 8d 35 7e 42 00 00 	lea    0x427e(%rip),%rsi        # 1451d <g_1899+0x149d>
   1029f:	48 89 c7             	mov    %rax,%rdi
   102a2:	e8 4c 74 ff ff       	callq  76f3 <transparent_crc>
   102a7:	48 8b 05 22 88 00 00 	mov    0x8822(%rip),%rax        # 18ad0 <g_1194+0x10>
   102ae:	25 ff ff ff 3f       	and    $0x3fffffff,%eax
   102b3:	89 c1                	mov    %eax,%ecx
   102b5:	8b 45 fc             	mov    -0x4(%rbp),%eax
   102b8:	89 c2                	mov    %eax,%edx
   102ba:	48 8d 35 69 42 00 00 	lea    0x4269(%rip),%rsi        # 1452a <g_1899+0x14aa>
   102c1:	48 89 cf             	mov    %rcx,%rdi
   102c4:	e8 2a 74 ff ff       	callq  76f3 <transparent_crc>
   102c9:	c7 45 f0 00 00 00 00 	movl   $0x0,-0x10(%rbp)
   102d0:	eb 4a                	jmp    1031c <main+0x37ac>
   102d2:	8b 45 f0             	mov    -0x10(%rbp),%eax
   102d5:	48 98                	cltq   
   102d7:	48 8d 14 c5 00 00 00 	lea    0x0(,%rax,8),%rdx
   102de:	00 
   102df:	48 8d 05 92 ad 00 00 	lea    0xad92(%rip),%rax        # 1b078 <g_1196>
   102e6:	48 8b 04 02          	mov    (%rdx,%rax,1),%rax
   102ea:	8b 55 fc             	mov    -0x4(%rbp),%edx
   102ed:	48 8d 35 43 42 00 00 	lea    0x4243(%rip),%rsi        # 14537 <g_1899+0x14b7>
   102f4:	48 89 c7             	mov    %rax,%rdi
   102f7:	e8 f7 73 ff ff       	callq  76f3 <transparent_crc>
   102fc:	83 7d fc 00          	cmpl   $0x0,-0x4(%rbp)
   10300:	74 16                	je     10318 <main+0x37a8>
   10302:	8b 45 f0             	mov    -0x10(%rbp),%eax
   10305:	89 c6                	mov    %eax,%esi
   10307:	48 8d 3d 7f 32 00 00 	lea    0x327f(%rip),%rdi        # 1358d <g_1899+0x50d>
   1030e:	b8 00 00 00 00       	mov    $0x0,%eax
   10313:	e8 68 5d ff ff       	callq  6080 <printf@plt>
   10318:	83 45 f0 01          	addl   $0x1,-0x10(%rbp)
   1031c:	83 7d f0 00          	cmpl   $0x0,-0x10(%rbp)
   10320:	7e b0                	jle    102d2 <main+0x3762>
   10322:	8b 05 ac 87 00 00    	mov    0x87ac(%rip),%eax        # 18ad4 <g_1202>
   10328:	89 c1                	mov    %eax,%ecx
   1032a:	8b 45 fc             	mov    -0x4(%rbp),%eax
   1032d:	89 c2                	mov    %eax,%edx
   1032f:	48 8d 35 0b 42 00 00 	lea    0x420b(%rip),%rsi        # 14541 <g_1899+0x14c1>
   10336:	48 89 cf             	mov    %rcx,%rdi
   10339:	e8 b5 73 ff ff       	callq  76f3 <transparent_crc>
   1033e:	8b 05 3c ad 00 00    	mov    0xad3c(%rip),%eax        # 1b080 <g_1236>
   10344:	89 c1                	mov    %eax,%ecx
   10346:	8b 45 fc             	mov    -0x4(%rbp),%eax
   10349:	89 c2                	mov    %eax,%edx
   1034b:	48 8d 35 f6 41 00 00 	lea    0x41f6(%rip),%rsi        # 14548 <g_1899+0x14c8>
   10352:	48 89 cf             	mov    %rcx,%rdi
   10355:	e8 99 73 ff ff       	callq  76f3 <transparent_crc>
   1035a:	c7 45 f0 00 00 00 00 	movl   $0x0,-0x10(%rbp)
   10361:	e9 ac 03 00 00       	jmpq   10712 <main+0x3ba2>
   10366:	c7 45 f4 00 00 00 00 	movl   $0x0,-0xc(%rbp)
   1036d:	e9 92 03 00 00       	jmpq   10704 <main+0x3b94>
   10372:	c7 45 f8 00 00 00 00 	movl   $0x0,-0x8(%rbp)
   10379:	e9 78 03 00 00       	jmpq   106f6 <main+0x3b86>
   1037e:	8b 45 f8             	mov    -0x8(%rbp),%eax
   10381:	48 63 d0             	movslq %eax,%rdx
   10384:	8b 45 f4             	mov    -0xc(%rbp),%eax
   10387:	48 63 f0             	movslq %eax,%rsi
   1038a:	8b 45 f0             	mov    -0x10(%rbp),%eax
   1038d:	48 63 c8             	movslq %eax,%rcx
   10390:	48 89 d0             	mov    %rdx,%rax
   10393:	48 c1 e0 02          	shl    $0x2,%rax
   10397:	48 01 d0             	add    %rdx,%rax
   1039a:	48 c1 e0 02          	shl    $0x2,%rax
   1039e:	48 89 f2             	mov    %rsi,%rdx
   103a1:	48 c1 e2 04          	shl    $0x4,%rdx
   103a5:	48 29 f2             	sub    %rsi,%rdx
   103a8:	48 c1 e2 03          	shl    $0x3,%rdx
   103ac:	48 01 c2             	add    %rax,%rdx
   103af:	48 89 c8             	mov    %rcx,%rax
   103b2:	48 c1 e0 04          	shl    $0x4,%rax
   103b6:	48 29 c8             	sub    %rcx,%rax
   103b9:	48 c1 e0 04          	shl    $0x4,%rax
   103bd:	48 01 c2             	add    %rax,%rdx
   103c0:	48 8d 05 19 87 00 00 	lea    0x8719(%rip),%rax        # 18ae0 <g_1244>
   103c7:	48 01 d0             	add    %rdx,%rax
   103ca:	8b 00                	mov    (%rax),%eax
   103cc:	c1 e0 05             	shl    $0x5,%eax
   103cf:	c1 f8 05             	sar    $0x5,%eax
   103d2:	48 98                	cltq   
   103d4:	8b 55 fc             	mov    -0x4(%rbp),%edx
   103d7:	48 8d 35 71 41 00 00 	lea    0x4171(%rip),%rsi        # 1454f <g_1899+0x14cf>
   103de:	48 89 c7             	mov    %rax,%rdi
   103e1:	e8 0d 73 ff ff       	callq  76f3 <transparent_crc>
   103e6:	8b 45 f8             	mov    -0x8(%rbp),%eax
   103e9:	48 63 d0             	movslq %eax,%rdx
   103ec:	8b 45 f4             	mov    -0xc(%rbp),%eax
   103ef:	48 63 f0             	movslq %eax,%rsi
   103f2:	8b 45 f0             	mov    -0x10(%rbp),%eax
   103f5:	48 63 c8             	movslq %eax,%rcx
   103f8:	48 89 d0             	mov    %rdx,%rax
   103fb:	48 c1 e0 02          	shl    $0x2,%rax
   103ff:	48 01 d0             	add    %rdx,%rax
   10402:	48 c1 e0 02          	shl    $0x2,%rax
   10406:	48 89 f2             	mov    %rsi,%rdx
   10409:	48 c1 e2 04          	shl    $0x4,%rdx
   1040d:	48 29 f2             	sub    %rsi,%rdx
   10410:	48 c1 e2 03          	shl    $0x3,%rdx
   10414:	48 01 c2             	add    %rax,%rdx
   10417:	48 89 c8             	mov    %rcx,%rax
   1041a:	48 c1 e0 04          	shl    $0x4,%rax
   1041e:	48 29 c8             	sub    %rcx,%rax
   10421:	48 c1 e0 04          	shl    $0x4,%rax
   10425:	48 01 c2             	add    %rax,%rdx
   10428:	48 8d 05 b5 86 00 00 	lea    0x86b5(%rip),%rax        # 18ae4 <g_1244+0x4>
   1042f:	48 01 d0             	add    %rdx,%rax
   10432:	8b 00                	mov    (%rax),%eax
   10434:	89 c1                	mov    %eax,%ecx
   10436:	8b 45 fc             	mov    -0x4(%rbp),%eax
   10439:	89 c2                	mov    %eax,%edx
   1043b:	48 8d 35 23 41 00 00 	lea    0x4123(%rip),%rsi        # 14565 <g_1899+0x14e5>
   10442:	48 89 cf             	mov    %rcx,%rdi
   10445:	e8 a9 72 ff ff       	callq  76f3 <transparent_crc>
   1044a:	8b 45 f8             	mov    -0x8(%rbp),%eax
   1044d:	48 63 d0             	movslq %eax,%rdx
   10450:	8b 45 f4             	mov    -0xc(%rbp),%eax
   10453:	48 63 f0             	movslq %eax,%rsi
   10456:	8b 45 f0             	mov    -0x10(%rbp),%eax
   10459:	48 63 c8             	movslq %eax,%rcx
   1045c:	48 89 d0             	mov    %rdx,%rax
   1045f:	48 c1 e0 02          	shl    $0x2,%rax
   10463:	48 01 d0             	add    %rdx,%rax
   10466:	48 c1 e0 02          	shl    $0x2,%rax
   1046a:	48 89 f2             	mov    %rsi,%rdx
   1046d:	48 c1 e2 04          	shl    $0x4,%rdx
   10471:	48 29 f2             	sub    %rsi,%rdx
   10474:	48 c1 e2 03          	shl    $0x3,%rdx
   10478:	48 01 c2             	add    %rax,%rdx
   1047b:	48 89 c8             	mov    %rcx,%rax
   1047e:	48 c1 e0 04          	shl    $0x4,%rax
   10482:	48 29 c8             	sub    %rcx,%rax
   10485:	48 c1 e0 04          	shl    $0x4,%rax
   10489:	48 01 c2             	add    %rax,%rdx
   1048c:	48 8d 05 4d 86 00 00 	lea    0x864d(%rip),%rax        # 18ae0 <g_1244>
   10493:	48 01 d0             	add    %rdx,%rax
   10496:	8b 40 08             	mov    0x8(%rax),%eax
   10499:	c1 e0 02             	shl    $0x2,%eax
   1049c:	c0 f8 02             	sar    $0x2,%al
   1049f:	48 0f be c0          	movsbq %al,%rax
   104a3:	8b 55 fc             	mov    -0x4(%rbp),%edx
   104a6:	48 8d 35 ce 40 00 00 	lea    0x40ce(%rip),%rsi        # 1457b <g_1899+0x14fb>
   104ad:	48 89 c7             	mov    %rax,%rdi
   104b0:	e8 3e 72 ff ff       	callq  76f3 <transparent_crc>
   104b5:	8b 45 f8             	mov    -0x8(%rbp),%eax
   104b8:	48 63 d0             	movslq %eax,%rdx
   104bb:	8b 45 f4             	mov    -0xc(%rbp),%eax
   104be:	48 63 f0             	movslq %eax,%rsi
   104c1:	8b 45 f0             	mov    -0x10(%rbp),%eax
   104c4:	48 63 c8             	movslq %eax,%rcx
   104c7:	48 89 d0             	mov    %rdx,%rax
   104ca:	48 c1 e0 02          	shl    $0x2,%rax
   104ce:	48 01 d0             	add    %rdx,%rax
   104d1:	48 c1 e0 02          	shl    $0x2,%rax
   104d5:	48 89 f2             	mov    %rsi,%rdx
   104d8:	48 c1 e2 04          	shl    $0x4,%rdx
   104dc:	48 29 f2             	sub    %rsi,%rdx
   104df:	48 c1 e2 03          	shl    $0x3,%rdx
   104e3:	48 01 c2             	add    %rax,%rdx
   104e6:	48 89 c8             	mov    %rcx,%rax
   104e9:	48 c1 e0 04          	shl    $0x4,%rax
   104ed:	48 29 c8             	sub    %rcx,%rax
   104f0:	48 c1 e0 04          	shl    $0x4,%rax
   104f4:	48 01 c2             	add    %rax,%rdx
   104f7:	48 8d 05 eb 85 00 00 	lea    0x85eb(%rip),%rax        # 18ae9 <g_1244+0x9>
   104fe:	48 01 d0             	add    %rdx,%rax
   10501:	0f b6 00             	movzbl (%rax),%eax
   10504:	0f b6 c0             	movzbl %al,%eax
   10507:	8b 55 fc             	mov    -0x4(%rbp),%edx
   1050a:	48 8d 35 80 40 00 00 	lea    0x4080(%rip),%rsi        # 14591 <g_1899+0x1511>
   10511:	48 89 c7             	mov    %rax,%rdi
   10514:	e8 da 71 ff ff       	callq  76f3 <transparent_crc>
   10519:	8b 45 f8             	mov    -0x8(%rbp),%eax
   1051c:	48 63 d0             	movslq %eax,%rdx
   1051f:	8b 45 f4             	mov    -0xc(%rbp),%eax
   10522:	48 63 f0             	movslq %eax,%rsi
   10525:	8b 45 f0             	mov    -0x10(%rbp),%eax
   10528:	48 63 c8             	movslq %eax,%rcx
   1052b:	48 89 d0             	mov    %rdx,%rax
   1052e:	48 c1 e0 02          	shl    $0x2,%rax
   10532:	48 01 d0             	add    %rdx,%rax
   10535:	48 c1 e0 02          	shl    $0x2,%rax
   10539:	48 89 f2             	mov    %rsi,%rdx
   1053c:	48 c1 e2 04          	shl    $0x4,%rdx
   10540:	48 29 f2             	sub    %rsi,%rdx
   10543:	48 c1 e2 03          	shl    $0x3,%rdx
   10547:	48 01 c2             	add    %rax,%rdx
   1054a:	48 89 c8             	mov    %rcx,%rax
   1054d:	48 c1 e0 04          	shl    $0x4,%rax
   10551:	48 29 c8             	sub    %rcx,%rax
   10554:	48 c1 e0 04          	shl    $0x4,%rax
   10558:	48 01 c2             	add    %rax,%rdx
   1055b:	48 8d 05 7e 85 00 00 	lea    0x857e(%rip),%rax        # 18ae0 <g_1244>
   10562:	48 01 d0             	add    %rdx,%rax
   10565:	8b 50 08             	mov    0x8(%rax),%edx
   10568:	c1 ea 10             	shr    $0x10,%edx
   1056b:	89 d2                	mov    %edx,%edx
   1056d:	8b 40 0c             	mov    0xc(%rax),%eax
   10570:	89 c0                	mov    %eax,%eax
   10572:	25 ff 3f 00 00       	and    $0x3fff,%eax
   10577:	48 c1 e0 10          	shl    $0x10,%rax
   1057b:	48 09 d0             	or     %rdx,%rax
   1057e:	89 c1                	mov    %eax,%ecx
   10580:	8b 45 fc             	mov    -0x4(%rbp),%eax
   10583:	89 c2                	mov    %eax,%edx
   10585:	48 8d 35 1b 40 00 00 	lea    0x401b(%rip),%rsi        # 145a7 <g_1899+0x1527>
   1058c:	48 89 cf             	mov    %rcx,%rdi
   1058f:	e8 5f 71 ff ff       	callq  76f3 <transparent_crc>
   10594:	8b 45 f8             	mov    -0x8(%rbp),%eax
   10597:	48 63 d0             	movslq %eax,%rdx
   1059a:	8b 45 f4             	mov    -0xc(%rbp),%eax
   1059d:	48 63 f0             	movslq %eax,%rsi
   105a0:	8b 45 f0             	mov    -0x10(%rbp),%eax
   105a3:	48 63 c8             	movslq %eax,%rcx
   105a6:	48 89 d0             	mov    %rdx,%rax
   105a9:	48 c1 e0 02          	shl    $0x2,%rax
   105ad:	48 01 d0             	add    %rdx,%rax
   105b0:	48 c1 e0 02          	shl    $0x2,%rax
   105b4:	48 89 f2             	mov    %rsi,%rdx
   105b7:	48 c1 e2 04          	shl    $0x4,%rdx
   105bb:	48 29 f2             	sub    %rsi,%rdx
   105be:	48 c1 e2 03          	shl    $0x3,%rdx
   105c2:	48 01 c2             	add    %rax,%rdx
   105c5:	48 89 c8             	mov    %rcx,%rax
   105c8:	48 c1 e0 04          	shl    $0x4,%rax
   105cc:	48 29 c8             	sub    %rcx,%rax
   105cf:	48 c1 e0 04          	shl    $0x4,%rax
   105d3:	48 01 c2             	add    %rax,%rdx
   105d6:	48 8d 05 03 85 00 00 	lea    0x8503(%rip),%rax        # 18ae0 <g_1244>
   105dd:	48 01 d0             	add    %rdx,%rax
   105e0:	8b 40 0c             	mov    0xc(%rax),%eax
   105e3:	c1 e8 0e             	shr    $0xe,%eax
   105e6:	66 25 ff 01          	and    $0x1ff,%ax
   105ea:	0f b7 c0             	movzwl %ax,%eax
   105ed:	8b 55 fc             	mov    -0x4(%rbp),%edx
   105f0:	48 8d 35 c6 3f 00 00 	lea    0x3fc6(%rip),%rsi        # 145bd <g_1899+0x153d>
   105f7:	48 89 c7             	mov    %rax,%rdi
   105fa:	e8 f4 70 ff ff       	callq  76f3 <transparent_crc>
   105ff:	8b 45 f8             	mov    -0x8(%rbp),%eax
   10602:	48 63 d0             	movslq %eax,%rdx
   10605:	8b 45 f4             	mov    -0xc(%rbp),%eax
   10608:	48 63 f0             	movslq %eax,%rsi
   1060b:	8b 45 f0             	mov    -0x10(%rbp),%eax
   1060e:	48 63 c8             	movslq %eax,%rcx
   10611:	48 89 d0             	mov    %rdx,%rax
   10614:	48 c1 e0 02          	shl    $0x2,%rax
   10618:	48 01 d0             	add    %rdx,%rax
   1061b:	48 c1 e0 02          	shl    $0x2,%rax
   1061f:	48 89 f2             	mov    %rsi,%rdx
   10622:	48 c1 e2 04          	shl    $0x4,%rdx
   10626:	48 29 f2             	sub    %rsi,%rdx
   10629:	48 c1 e2 03          	shl    $0x3,%rdx
   1062d:	48 01 c2             	add    %rax,%rdx
   10630:	48 89 c8             	mov    %rcx,%rax
   10633:	48 c1 e0 04          	shl    $0x4,%rax
   10637:	48 29 c8             	sub    %rcx,%rax
   1063a:	48 c1 e0 04          	shl    $0x4,%rax
   1063e:	48 01 c2             	add    %rax,%rdx
   10641:	48 8d 05 98 84 00 00 	lea    0x8498(%rip),%rax        # 18ae0 <g_1244>
   10648:	48 01 d0             	add    %rdx,%rax
   1064b:	8b 40 0c             	mov    0xc(%rax),%eax
   1064e:	c1 f8 17             	sar    $0x17,%eax
   10651:	48 0f bf c0          	movswq %ax,%rax
   10655:	8b 55 fc             	mov    -0x4(%rbp),%edx
   10658:	48 8d 35 74 3f 00 00 	lea    0x3f74(%rip),%rsi        # 145d3 <g_1899+0x1553>
   1065f:	48 89 c7             	mov    %rax,%rdi
   10662:	e8 8c 70 ff ff       	callq  76f3 <transparent_crc>
   10667:	8b 45 f8             	mov    -0x8(%rbp),%eax
   1066a:	48 63 d0             	movslq %eax,%rdx
   1066d:	8b 45 f4             	mov    -0xc(%rbp),%eax
   10670:	48 63 c8             	movslq %eax,%rcx
   10673:	8b 45 f0             	mov    -0x10(%rbp),%eax
   10676:	48 63 f0             	movslq %eax,%rsi
   10679:	48 89 d0             	mov    %rdx,%rax
   1067c:	48 c1 e0 02          	shl    $0x2,%rax
   10680:	48 01 d0             	add    %rdx,%rax
   10683:	48 c1 e0 02          	shl    $0x2,%rax
   10687:	48 89 f2             	mov    %rsi,%rdx
   1068a:	48 c1 e2 04          	shl    $0x4,%rdx
   1068e:	48 29 f2             	sub    %rsi,%rdx
   10691:	48 c1 e2 04          	shl    $0x4,%rdx
   10695:	48 01 c2             	add    %rax,%rdx
   10698:	48 89 c8             	mov    %rcx,%rax
   1069b:	48 c1 e0 04          	shl    $0x4,%rax
   1069f:	48 29 c8             	sub    %rcx,%rax
   106a2:	48 c1 e0 03          	shl    $0x3,%rax
   106a6:	48 01 c2             	add    %rax,%rdx
   106a9:	48 8d 05 40 84 00 00 	lea    0x8440(%rip),%rax        # 18af0 <g_1244+0x10>
   106b0:	48 01 d0             	add    %rdx,%rax
   106b3:	8b 00                	mov    (%rax),%eax
   106b5:	25 ff ff ff 3f       	and    $0x3fffffff,%eax
   106ba:	89 c1                	mov    %eax,%ecx
   106bc:	8b 45 fc             	mov    -0x4(%rbp),%eax
   106bf:	89 c2                	mov    %eax,%edx
   106c1:	48 8d 35 21 3f 00 00 	lea    0x3f21(%rip),%rsi        # 145e9 <g_1899+0x1569>
   106c8:	48 89 cf             	mov    %rcx,%rdi
   106cb:	e8 23 70 ff ff       	callq  76f3 <transparent_crc>
   106d0:	83 7d fc 00          	cmpl   $0x0,-0x4(%rbp)
   106d4:	74 1c                	je     106f2 <main+0x3b82>
   106d6:	8b 4d f8             	mov    -0x8(%rbp),%ecx
   106d9:	8b 55 f4             	mov    -0xc(%rbp),%edx
   106dc:	8b 45 f0             	mov    -0x10(%rbp),%eax
   106df:	89 c6                	mov    %eax,%esi
   106e1:	48 8d 3d 17 3f 00 00 	lea    0x3f17(%rip),%rdi        # 145ff <g_1899+0x157f>
   106e8:	b8 00 00 00 00       	mov    $0x0,%eax
   106ed:	e8 8e 59 ff ff       	callq  6080 <printf@plt>
   106f2:	83 45 f8 01          	addl   $0x1,-0x8(%rbp)
   106f6:	83 7d f8 05          	cmpl   $0x5,-0x8(%rbp)
   106fa:	0f 8e 7e fc ff ff    	jle    1037e <main+0x380e>
   10700:	83 45 f4 01          	addl   $0x1,-0xc(%rbp)
   10704:	83 7d f4 01          	cmpl   $0x1,-0xc(%rbp)
   10708:	0f 8e 64 fc ff ff    	jle    10372 <main+0x3802>
   1070e:	83 45 f0 01          	addl   $0x1,-0x10(%rbp)
   10712:	83 7d f0 01          	cmpl   $0x1,-0x10(%rbp)
   10716:	0f 8e 4a fc ff ff    	jle    10366 <main+0x37f6>
   1071c:	8b 05 9e 85 00 00    	mov    0x859e(%rip),%eax        # 18cc0 <g_1359>
   10722:	48 98                	cltq   
   10724:	8b 55 fc             	mov    -0x4(%rbp),%edx
   10727:	48 8d 35 e7 3e 00 00 	lea    0x3ee7(%rip),%rsi        # 14615 <g_1899+0x1595>
   1072e:	48 89 c7             	mov    %rax,%rdi
   10731:	e8 bd 6f ff ff       	callq  76f3 <transparent_crc>
   10736:	0f b6 05 8b 85 00 00 	movzbl 0x858b(%rip),%eax        # 18cc8 <g_1369>
   1073d:	c1 e0 05             	shl    $0x5,%eax
   10740:	c0 f8 05             	sar    $0x5,%al
   10743:	48 0f be c0          	movsbq %al,%rax
   10747:	8b 55 fc             	mov    -0x4(%rbp),%edx
   1074a:	48 8d 35 cb 3e 00 00 	lea    0x3ecb(%rip),%rsi        # 1461c <g_1899+0x159c>
   10751:	48 89 c7             	mov    %rax,%rdi
   10754:	e8 9a 6f ff ff       	callq  76f3 <transparent_crc>
   10759:	0f b6 05 68 85 00 00 	movzbl 0x8568(%rip),%eax        # 18cc8 <g_1369>
   10760:	c0 e8 03             	shr    $0x3,%al
   10763:	0f b6 c0             	movzbl %al,%eax
   10766:	8b 55 fc             	mov    -0x4(%rbp),%edx
   10769:	48 8d 35 b6 3e 00 00 	lea    0x3eb6(%rip),%rsi        # 14626 <g_1899+0x15a6>
   10770:	48 89 c7             	mov    %rax,%rdi
   10773:	e8 7b 6f ff ff       	callq  76f3 <transparent_crc>
   10778:	8b 05 4a 85 00 00    	mov    0x854a(%rip),%eax        # 18cc8 <g_1369>
   1077e:	c1 e0 0c             	shl    $0xc,%eax
   10781:	c1 f8 14             	sar    $0x14,%eax
   10784:	48 0f bf c0          	movswq %ax,%rax
   10788:	8b 55 fc             	mov    -0x4(%rbp),%edx
   1078b:	48 8d 35 9e 3e 00 00 	lea    0x3e9e(%rip),%rsi        # 14630 <g_1899+0x15b0>
   10792:	48 89 c7             	mov    %rax,%rdi
   10795:	e8 59 6f ff ff       	callq  76f3 <transparent_crc>
   1079a:	0f b7 05 29 85 00 00 	movzwl 0x8529(%rip),%eax        # 18cca <g_1369+0x2>
   107a1:	66 c1 e8 04          	shr    $0x4,%ax
   107a5:	66 25 ff 01          	and    $0x1ff,%ax
   107a9:	0f b7 c0             	movzwl %ax,%eax
   107ac:	8b 55 fc             	mov    -0x4(%rbp),%edx
   107af:	48 8d 35 84 3e 00 00 	lea    0x3e84(%rip),%rsi        # 1463a <g_1899+0x15ba>
   107b6:	48 89 c7             	mov    %rax,%rdi
   107b9:	e8 35 6f ff ff       	callq  76f3 <transparent_crc>
   107be:	8b 05 08 85 00 00    	mov    0x8508(%rip),%eax        # 18ccc <g_1369+0x4>
   107c4:	c1 e0 0c             	shl    $0xc,%eax
   107c7:	c1 f8 0c             	sar    $0xc,%eax
   107ca:	48 98                	cltq   
   107cc:	8b 55 fc             	mov    -0x4(%rbp),%edx
   107cf:	48 8d 35 6e 3e 00 00 	lea    0x3e6e(%rip),%rsi        # 14644 <g_1899+0x15c4>
   107d6:	48 89 c7             	mov    %rax,%rdi
   107d9:	e8 15 6f ff ff       	callq  76f3 <transparent_crc>
   107de:	48 8b 05 e3 84 00 00 	mov    0x84e3(%rip),%rax        # 18cc8 <g_1369>
   107e5:	48 c1 e0 06          	shl    $0x6,%rax
   107e9:	48 c1 f8 3a          	sar    $0x3a,%rax
   107ed:	48 0f be c0          	movsbq %al,%rax
   107f1:	8b 55 fc             	mov    -0x4(%rbp),%edx
   107f4:	48 8d 35 53 3e 00 00 	lea    0x3e53(%rip),%rsi        # 1464e <g_1899+0x15ce>
   107fb:	48 89 c7             	mov    %rax,%rdi
   107fe:	e8 f0 6e ff ff       	callq  76f3 <transparent_crc>
   10803:	0f b7 05 c6 84 00 00 	movzwl 0x84c6(%rip),%eax        # 18cd0 <g_1369+0x8>
   1080a:	c1 e0 04             	shl    $0x4,%eax
   1080d:	66 c1 f8 04          	sar    $0x4,%ax
   10811:	48 0f bf c0          	movswq %ax,%rax
   10815:	8b 55 fc             	mov    -0x4(%rbp),%edx
   10818:	48 8d 35 39 3e 00 00 	lea    0x3e39(%rip),%rsi        # 14658 <g_1899+0x15d8>
   1081f:	48 89 c7             	mov    %rax,%rdi
   10822:	e8 cc 6e ff ff       	callq  76f3 <transparent_crc>
   10827:	8b 05 a3 84 00 00    	mov    0x84a3(%rip),%eax        # 18cd0 <g_1369+0x8>
   1082d:	c1 e0 0f             	shl    $0xf,%eax
   10830:	c1 f8 1b             	sar    $0x1b,%eax
   10833:	48 0f be c0          	movsbq %al,%rax
   10837:	8b 55 fc             	mov    -0x4(%rbp),%edx
   1083a:	48 8d 35 21 3e 00 00 	lea    0x3e21(%rip),%rsi        # 14662 <g_1899+0x15e2>
   10841:	48 89 c7             	mov    %rax,%rdi
   10844:	e8 aa 6e ff ff       	callq  76f3 <transparent_crc>
   10849:	b8 ff ff ff ff       	mov    $0xffffffff,%eax
   1084e:	48 0f be c0          	movsbq %al,%rax
   10852:	8b 55 fc             	mov    -0x4(%rbp),%edx
   10855:	48 8d 35 10 3e 00 00 	lea    0x3e10(%rip),%rsi        # 1466c <g_1899+0x15ec>
   1085c:	48 89 c7             	mov    %rax,%rdi
   1085f:	e8 8f 6e ff ff       	callq  76f3 <transparent_crc>
   10864:	b8 03 00 00 00       	mov    $0x3,%eax
   10869:	0f b6 c0             	movzbl %al,%eax
   1086c:	8b 55 fc             	mov    -0x4(%rbp),%edx
   1086f:	48 8d 35 00 3e 00 00 	lea    0x3e00(%rip),%rsi        # 14676 <g_1899+0x15f6>
   10876:	48 89 c7             	mov    %rax,%rdi
   10879:	e8 75 6e ff ff       	callq  76f3 <transparent_crc>
   1087e:	b8 d7 ff ff ff       	mov    $0xffffffd7,%eax
   10883:	48 0f bf c0          	movswq %ax,%rax
   10887:	8b 55 fc             	mov    -0x4(%rbp),%edx
   1088a:	48 8d 35 ef 3d 00 00 	lea    0x3def(%rip),%rsi        # 14680 <g_1899+0x1600>
   10891:	48 89 c7             	mov    %rax,%rdi
   10894:	e8 5a 6e ff ff       	callq  76f3 <transparent_crc>
   10899:	b8 12 00 00 00       	mov    $0x12,%eax
   1089e:	0f b7 c0             	movzwl %ax,%eax
   108a1:	8b 55 fc             	mov    -0x4(%rbp),%edx
   108a4:	48 8d 35 df 3d 00 00 	lea    0x3ddf(%rip),%rsi        # 1468a <g_1899+0x160a>
   108ab:	48 89 c7             	mov    %rax,%rdi
   108ae:	e8 40 6e ff ff       	callq  76f3 <transparent_crc>
   108b3:	b8 9d fe ff ff       	mov    $0xfffffe9d,%eax
   108b8:	48 98                	cltq   
   108ba:	8b 55 fc             	mov    -0x4(%rbp),%edx
   108bd:	48 8d 35 d0 3d 00 00 	lea    0x3dd0(%rip),%rsi        # 14694 <g_1899+0x1614>
   108c4:	48 89 c7             	mov    %rax,%rdi
   108c7:	e8 27 6e ff ff       	callq  76f3 <transparent_crc>
   108cc:	48 8b 05 95 27 00 00 	mov    0x2795(%rip),%rax        # 13068 <g_1370>
   108d3:	48 c1 e0 06          	shl    $0x6,%rax
   108d7:	48 c1 f8 3a          	sar    $0x3a,%rax
   108db:	48 0f be c0          	movsbq %al,%rax
   108df:	8b 55 fc             	mov    -0x4(%rbp),%edx
   108e2:	48 8d 35 b5 3d 00 00 	lea    0x3db5(%rip),%rsi        # 1469e <g_1899+0x161e>
   108e9:	48 89 c7             	mov    %rax,%rdi
   108ec:	e8 02 6e ff ff       	callq  76f3 <transparent_crc>
   108f1:	b8 ff ff ff ff       	mov    $0xffffffff,%eax
   108f6:	48 0f bf c0          	movswq %ax,%rax
   108fa:	8b 55 fc             	mov    -0x4(%rbp),%edx
   108fd:	48 8d 35 a4 3d 00 00 	lea    0x3da4(%rip),%rsi        # 146a8 <g_1899+0x1628>
   10904:	48 89 c7             	mov    %rax,%rdi
   10907:	e8 e7 6d ff ff       	callq  76f3 <transparent_crc>
   1090c:	b8 01 00 00 00       	mov    $0x1,%eax
   10911:	48 0f be c0          	movsbq %al,%rax
   10915:	8b 55 fc             	mov    -0x4(%rbp),%edx
   10918:	48 8d 35 93 3d 00 00 	lea    0x3d93(%rip),%rsi        # 146b2 <g_1899+0x1632>
   1091f:	48 89 c7             	mov    %rax,%rdi
   10922:	e8 cc 6d ff ff       	callq  76f3 <transparent_crc>
   10927:	0f b6 05 aa 83 00 00 	movzbl 0x83aa(%rip),%eax        # 18cd8 <g_1382>
   1092e:	c1 e0 05             	shl    $0x5,%eax
   10931:	c0 f8 05             	sar    $0x5,%al
   10934:	48 0f be c0          	movsbq %al,%rax
   10938:	8b 55 fc             	mov    -0x4(%rbp),%edx
   1093b:	48 8d 35 7a 3d 00 00 	lea    0x3d7a(%rip),%rsi        # 146bc <g_1899+0x163c>
   10942:	48 89 c7             	mov    %rax,%rdi
   10945:	e8 a9 6d ff ff       	callq  76f3 <transparent_crc>
   1094a:	0f b6 05 87 83 00 00 	movzbl 0x8387(%rip),%eax        # 18cd8 <g_1382>
   10951:	c0 e8 03             	shr    $0x3,%al
   10954:	0f b6 c0             	movzbl %al,%eax
   10957:	8b 55 fc             	mov    -0x4(%rbp),%edx
   1095a:	48 8d 35 65 3d 00 00 	lea    0x3d65(%rip),%rsi        # 146c6 <g_1899+0x1646>
   10961:	48 89 c7             	mov    %rax,%rdi
   10964:	e8 8a 6d ff ff       	callq  76f3 <transparent_crc>
   10969:	8b 05 69 83 00 00    	mov    0x8369(%rip),%eax        # 18cd8 <g_1382>
   1096f:	c1 e0 0c             	shl    $0xc,%eax
   10972:	c1 f8 14             	sar    $0x14,%eax
   10975:	48 0f bf c0          	movswq %ax,%rax
   10979:	8b 55 fc             	mov    -0x4(%rbp),%edx
   1097c:	48 8d 35 4d 3d 00 00 	lea    0x3d4d(%rip),%rsi        # 146d0 <g_1899+0x1650>
   10983:	48 89 c7             	mov    %rax,%rdi
   10986:	e8 68 6d ff ff       	callq  76f3 <transparent_crc>
   1098b:	0f b7 05 48 83 00 00 	movzwl 0x8348(%rip),%eax        # 18cda <g_1382+0x2>
   10992:	66 c1 e8 04          	shr    $0x4,%ax
   10996:	66 25 ff 01          	and    $0x1ff,%ax
   1099a:	0f b7 c0             	movzwl %ax,%eax
   1099d:	8b 55 fc             	mov    -0x4(%rbp),%edx
   109a0:	48 8d 35 33 3d 00 00 	lea    0x3d33(%rip),%rsi        # 146da <g_1899+0x165a>
   109a7:	48 89 c7             	mov    %rax,%rdi
   109aa:	e8 44 6d ff ff       	callq  76f3 <transparent_crc>
   109af:	8b 05 27 83 00 00    	mov    0x8327(%rip),%eax        # 18cdc <g_1382+0x4>
   109b5:	c1 e0 0c             	shl    $0xc,%eax
   109b8:	c1 f8 0c             	sar    $0xc,%eax
   109bb:	48 98                	cltq   
   109bd:	8b 55 fc             	mov    -0x4(%rbp),%edx
   109c0:	48 8d 35 1d 3d 00 00 	lea    0x3d1d(%rip),%rsi        # 146e4 <g_1899+0x1664>
   109c7:	48 89 c7             	mov    %rax,%rdi
   109ca:	e8 24 6d ff ff       	callq  76f3 <transparent_crc>
   109cf:	48 8b 05 02 83 00 00 	mov    0x8302(%rip),%rax        # 18cd8 <g_1382>
   109d6:	48 c1 e0 06          	shl    $0x6,%rax
   109da:	48 c1 f8 3a          	sar    $0x3a,%rax
   109de:	48 0f be c0          	movsbq %al,%rax
   109e2:	8b 55 fc             	mov    -0x4(%rbp),%edx
   109e5:	48 8d 35 02 3d 00 00 	lea    0x3d02(%rip),%rsi        # 146ee <g_1899+0x166e>
   109ec:	48 89 c7             	mov    %rax,%rdi
   109ef:	e8 ff 6c ff ff       	callq  76f3 <transparent_crc>
   109f4:	0f b7 05 e5 82 00 00 	movzwl 0x82e5(%rip),%eax        # 18ce0 <g_1382+0x8>
   109fb:	c1 e0 04             	shl    $0x4,%eax
   109fe:	66 c1 f8 04          	sar    $0x4,%ax
   10a02:	48 0f bf c0          	movswq %ax,%rax
   10a06:	8b 55 fc             	mov    -0x4(%rbp),%edx
   10a09:	48 8d 35 e8 3c 00 00 	lea    0x3ce8(%rip),%rsi        # 146f8 <g_1899+0x1678>
   10a10:	48 89 c7             	mov    %rax,%rdi
   10a13:	e8 db 6c ff ff       	callq  76f3 <transparent_crc>
   10a18:	8b 05 c2 82 00 00    	mov    0x82c2(%rip),%eax        # 18ce0 <g_1382+0x8>
   10a1e:	c1 e0 0f             	shl    $0xf,%eax
   10a21:	c1 f8 1b             	sar    $0x1b,%eax
   10a24:	48 0f be c0          	movsbq %al,%rax
   10a28:	8b 55 fc             	mov    -0x4(%rbp),%edx
   10a2b:	48 8d 35 d0 3c 00 00 	lea    0x3cd0(%rip),%rsi        # 14702 <g_1899+0x1682>
   10a32:	48 89 c7             	mov    %rax,%rdi
   10a35:	e8 b9 6c ff ff       	callq  76f3 <transparent_crc>
   10a3a:	0f b6 05 a7 82 00 00 	movzbl 0x82a7(%rip),%eax        # 18ce8 <g_1411>
   10a41:	c1 e0 05             	shl    $0x5,%eax
   10a44:	c0 f8 05             	sar    $0x5,%al
   10a47:	48 0f be c0          	movsbq %al,%rax
   10a4b:	8b 55 fc             	mov    -0x4(%rbp),%edx
   10a4e:	48 8d 35 b7 3c 00 00 	lea    0x3cb7(%rip),%rsi        # 1470c <g_1899+0x168c>
   10a55:	48 89 c7             	mov    %rax,%rdi
   10a58:	e8 96 6c ff ff       	callq  76f3 <transparent_crc>
   10a5d:	0f b6 05 84 82 00 00 	movzbl 0x8284(%rip),%eax        # 18ce8 <g_1411>
   10a64:	c0 e8 03             	shr    $0x3,%al
   10a67:	0f b6 c0             	movzbl %al,%eax
   10a6a:	8b 55 fc             	mov    -0x4(%rbp),%edx
   10a6d:	48 8d 35 a2 3c 00 00 	lea    0x3ca2(%rip),%rsi        # 14716 <g_1899+0x1696>
   10a74:	48 89 c7             	mov    %rax,%rdi
   10a77:	e8 77 6c ff ff       	callq  76f3 <transparent_crc>
   10a7c:	8b 05 66 82 00 00    	mov    0x8266(%rip),%eax        # 18ce8 <g_1411>
   10a82:	c1 e0 0c             	shl    $0xc,%eax
   10a85:	c1 f8 14             	sar    $0x14,%eax
   10a88:	48 0f bf c0          	movswq %ax,%rax
   10a8c:	8b 55 fc             	mov    -0x4(%rbp),%edx
   10a8f:	48 8d 35 8a 3c 00 00 	lea    0x3c8a(%rip),%rsi        # 14720 <g_1899+0x16a0>
   10a96:	48 89 c7             	mov    %rax,%rdi
   10a99:	e8 55 6c ff ff       	callq  76f3 <transparent_crc>
   10a9e:	0f b7 05 45 82 00 00 	movzwl 0x8245(%rip),%eax        # 18cea <g_1411+0x2>
   10aa5:	66 c1 e8 04          	shr    $0x4,%ax
   10aa9:	66 25 ff 01          	and    $0x1ff,%ax
   10aad:	0f b7 c0             	movzwl %ax,%eax
   10ab0:	8b 55 fc             	mov    -0x4(%rbp),%edx
   10ab3:	48 8d 35 70 3c 00 00 	lea    0x3c70(%rip),%rsi        # 1472a <g_1899+0x16aa>
   10aba:	48 89 c7             	mov    %rax,%rdi
   10abd:	e8 31 6c ff ff       	callq  76f3 <transparent_crc>
   10ac2:	8b 05 24 82 00 00    	mov    0x8224(%rip),%eax        # 18cec <g_1411+0x4>
   10ac8:	c1 e0 0c             	shl    $0xc,%eax
   10acb:	c1 f8 0c             	sar    $0xc,%eax
   10ace:	48 98                	cltq   
   10ad0:	8b 55 fc             	mov    -0x4(%rbp),%edx
   10ad3:	48 8d 35 5a 3c 00 00 	lea    0x3c5a(%rip),%rsi        # 14734 <g_1899+0x16b4>
   10ada:	48 89 c7             	mov    %rax,%rdi
   10add:	e8 11 6c ff ff       	callq  76f3 <transparent_crc>
   10ae2:	48 8b 05 ff 81 00 00 	mov    0x81ff(%rip),%rax        # 18ce8 <g_1411>
   10ae9:	48 c1 e0 06          	shl    $0x6,%rax
   10aed:	48 c1 f8 3a          	sar    $0x3a,%rax
   10af1:	48 0f be c0          	movsbq %al,%rax
   10af5:	8b 55 fc             	mov    -0x4(%rbp),%edx
   10af8:	48 8d 35 3f 3c 00 00 	lea    0x3c3f(%rip),%rsi        # 1473e <g_1899+0x16be>
   10aff:	48 89 c7             	mov    %rax,%rdi
   10b02:	e8 ec 6b ff ff       	callq  76f3 <transparent_crc>
   10b07:	0f b7 05 e2 81 00 00 	movzwl 0x81e2(%rip),%eax        # 18cf0 <g_1411+0x8>
   10b0e:	c1 e0 04             	shl    $0x4,%eax
   10b11:	66 c1 f8 04          	sar    $0x4,%ax
   10b15:	48 0f bf c0          	movswq %ax,%rax
   10b19:	8b 55 fc             	mov    -0x4(%rbp),%edx
   10b1c:	48 8d 35 25 3c 00 00 	lea    0x3c25(%rip),%rsi        # 14748 <g_1899+0x16c8>
   10b23:	48 89 c7             	mov    %rax,%rdi
   10b26:	e8 c8 6b ff ff       	callq  76f3 <transparent_crc>
   10b2b:	8b 05 bf 81 00 00    	mov    0x81bf(%rip),%eax        # 18cf0 <g_1411+0x8>
   10b31:	c1 e0 0f             	shl    $0xf,%eax
   10b34:	c1 f8 1b             	sar    $0x1b,%eax
   10b37:	48 0f be c0          	movsbq %al,%rax
   10b3b:	8b 55 fc             	mov    -0x4(%rbp),%edx
   10b3e:	48 8d 35 0d 3c 00 00 	lea    0x3c0d(%rip),%rsi        # 14752 <g_1899+0x16d2>
   10b45:	48 89 c7             	mov    %rax,%rdi
   10b48:	e8 a6 6b ff ff       	callq  76f3 <transparent_crc>
   10b4d:	8b 05 ad 81 00 00    	mov    0x81ad(%rip),%eax        # 18d00 <g_1418>
   10b53:	c1 e0 05             	shl    $0x5,%eax
   10b56:	c1 f8 05             	sar    $0x5,%eax
   10b59:	48 98                	cltq   
   10b5b:	8b 55 fc             	mov    -0x4(%rbp),%edx
   10b5e:	48 8d 35 f7 3b 00 00 	lea    0x3bf7(%rip),%rsi        # 1475c <g_1899+0x16dc>
   10b65:	48 89 c7             	mov    %rax,%rdi
   10b68:	e8 86 6b ff ff       	callq  76f3 <transparent_crc>
   10b6d:	8b 05 91 81 00 00    	mov    0x8191(%rip),%eax        # 18d04 <g_1418+0x4>
   10b73:	89 c1                	mov    %eax,%ecx
   10b75:	8b 45 fc             	mov    -0x4(%rbp),%eax
   10b78:	89 c2                	mov    %eax,%edx
   10b7a:	48 8d 35 e5 3b 00 00 	lea    0x3be5(%rip),%rsi        # 14766 <g_1899+0x16e6>
   10b81:	48 89 cf             	mov    %rcx,%rdi
   10b84:	e8 6a 6b ff ff       	callq  76f3 <transparent_crc>
   10b89:	0f b6 05 78 81 00 00 	movzbl 0x8178(%rip),%eax        # 18d08 <g_1418+0x8>
   10b90:	c1 e0 02             	shl    $0x2,%eax
   10b93:	c0 f8 02             	sar    $0x2,%al
   10b96:	48 0f be c0          	movsbq %al,%rax
   10b9a:	8b 55 fc             	mov    -0x4(%rbp),%edx
   10b9d:	48 8d 35 cc 3b 00 00 	lea    0x3bcc(%rip),%rsi        # 14770 <g_1899+0x16f0>
   10ba4:	48 89 c7             	mov    %rax,%rdi
   10ba7:	e8 47 6b ff ff       	callq  76f3 <transparent_crc>
   10bac:	0f b6 05 56 81 00 00 	movzbl 0x8156(%rip),%eax        # 18d09 <g_1418+0x9>
   10bb3:	0f b6 c0             	movzbl %al,%eax
   10bb6:	8b 55 fc             	mov    -0x4(%rbp),%edx
   10bb9:	48 8d 35 ba 3b 00 00 	lea    0x3bba(%rip),%rsi        # 1477a <g_1899+0x16fa>
   10bc0:	48 89 c7             	mov    %rax,%rdi
   10bc3:	e8 2b 6b ff ff       	callq  76f3 <transparent_crc>
   10bc8:	48 8b 05 39 81 00 00 	mov    0x8139(%rip),%rax        # 18d08 <g_1418+0x8>
   10bcf:	48 c1 e8 10          	shr    $0x10,%rax
   10bd3:	25 ff ff ff 3f       	and    $0x3fffffff,%eax
   10bd8:	89 c1                	mov    %eax,%ecx
   10bda:	8b 45 fc             	mov    -0x4(%rbp),%eax
   10bdd:	89 c2                	mov    %eax,%edx
   10bdf:	48 8d 35 9e 3b 00 00 	lea    0x3b9e(%rip),%rsi        # 14784 <g_1899+0x1704>
   10be6:	48 89 cf             	mov    %rcx,%rdi
   10be9:	e8 05 6b ff ff       	callq  76f3 <transparent_crc>
   10bee:	8b 05 18 81 00 00    	mov    0x8118(%rip),%eax        # 18d0c <g_1418+0xc>
   10bf4:	c1 e8 0e             	shr    $0xe,%eax
   10bf7:	66 25 ff 01          	and    $0x1ff,%ax
   10bfb:	0f b7 c0             	movzwl %ax,%eax
   10bfe:	8b 55 fc             	mov    -0x4(%rbp),%edx
   10c01:	48 8d 35 86 3b 00 00 	lea    0x3b86(%rip),%rsi        # 1478e <g_1899+0x170e>
   10c08:	48 89 c7             	mov    %rax,%rdi
   10c0b:	e8 e3 6a ff ff       	callq  76f3 <transparent_crc>
   10c10:	48 8b 05 f1 80 00 00 	mov    0x80f1(%rip),%rax        # 18d08 <g_1418+0x8>
   10c17:	48 c1 f8 37          	sar    $0x37,%rax
   10c1b:	48 0f bf c0          	movswq %ax,%rax
   10c1f:	8b 55 fc             	mov    -0x4(%rbp),%edx
   10c22:	48 8d 35 6f 3b 00 00 	lea    0x3b6f(%rip),%rsi        # 14798 <g_1899+0x1718>
   10c29:	48 89 c7             	mov    %rax,%rdi
   10c2c:	e8 c2 6a ff ff       	callq  76f3 <transparent_crc>
   10c31:	48 8b 05 d8 80 00 00 	mov    0x80d8(%rip),%rax        # 18d10 <g_1418+0x10>
   10c38:	25 ff ff ff 3f       	and    $0x3fffffff,%eax
   10c3d:	89 c1                	mov    %eax,%ecx
   10c3f:	8b 45 fc             	mov    -0x4(%rbp),%eax
   10c42:	89 c2                	mov    %eax,%edx
   10c44:	48 8d 35 57 3b 00 00 	lea    0x3b57(%rip),%rsi        # 147a2 <g_1899+0x1722>
   10c4b:	48 89 cf             	mov    %rcx,%rdi
   10c4e:	e8 a0 6a ff ff       	callq  76f3 <transparent_crc>
   10c53:	48 8b 05 c6 80 00 00 	mov    0x80c6(%rip),%rax        # 18d20 <g_1419>
   10c5a:	c1 e0 05             	shl    $0x5,%eax
   10c5d:	c1 f8 05             	sar    $0x5,%eax
   10c60:	48 98                	cltq   
   10c62:	8b 55 fc             	mov    -0x4(%rbp),%edx
   10c65:	48 8d 35 40 3b 00 00 	lea    0x3b40(%rip),%rsi        # 147ac <g_1899+0x172c>
   10c6c:	48 89 c7             	mov    %rax,%rdi
   10c6f:	e8 7f 6a ff ff       	callq  76f3 <transparent_crc>
   10c74:	8b 05 aa 80 00 00    	mov    0x80aa(%rip),%eax        # 18d24 <g_1419+0x4>
   10c7a:	89 c1                	mov    %eax,%ecx
   10c7c:	8b 45 fc             	mov    -0x4(%rbp),%eax
   10c7f:	89 c2                	mov    %eax,%edx
   10c81:	48 8d 35 34 3b 00 00 	lea    0x3b34(%rip),%rsi        # 147bc <g_1899+0x173c>
   10c88:	48 89 cf             	mov    %rcx,%rdi
   10c8b:	e8 63 6a ff ff       	callq  76f3 <transparent_crc>
   10c90:	48 8b 05 91 80 00 00 	mov    0x8091(%rip),%rax        # 18d28 <g_1419+0x8>
   10c97:	c1 e0 02             	shl    $0x2,%eax
   10c9a:	c0 f8 02             	sar    $0x2,%al
   10c9d:	48 0f be c0          	movsbq %al,%rax
   10ca1:	8b 55 fc             	mov    -0x4(%rbp),%edx
   10ca4:	48 8d 35 21 3b 00 00 	lea    0x3b21(%rip),%rsi        # 147cc <g_1899+0x174c>
   10cab:	48 89 c7             	mov    %rax,%rdi
   10cae:	e8 40 6a ff ff       	callq  76f3 <transparent_crc>
   10cb3:	0f b6 05 6f 80 00 00 	movzbl 0x806f(%rip),%eax        # 18d29 <g_1419+0x9>
   10cba:	0f b6 c0             	movzbl %al,%eax
   10cbd:	8b 55 fc             	mov    -0x4(%rbp),%edx
   10cc0:	48 8d 35 15 3b 00 00 	lea    0x3b15(%rip),%rsi        # 147dc <g_1899+0x175c>
   10cc7:	48 89 c7             	mov    %rax,%rdi
   10cca:	e8 24 6a ff ff       	callq  76f3 <transparent_crc>
   10ccf:	48 8b 05 52 80 00 00 	mov    0x8052(%rip),%rax        # 18d28 <g_1419+0x8>
   10cd6:	48 c1 e8 10          	shr    $0x10,%rax
   10cda:	25 ff ff ff 3f       	and    $0x3fffffff,%eax
   10cdf:	89 c1                	mov    %eax,%ecx
   10ce1:	8b 45 fc             	mov    -0x4(%rbp),%eax
   10ce4:	89 c2                	mov    %eax,%edx
   10ce6:	48 8d 35 ff 3a 00 00 	lea    0x3aff(%rip),%rsi        # 147ec <g_1899+0x176c>
   10ced:	48 89 cf             	mov    %rcx,%rdi
   10cf0:	e8 fe 69 ff ff       	callq  76f3 <transparent_crc>
   10cf5:	48 8b 05 2c 80 00 00 	mov    0x802c(%rip),%rax        # 18d28 <g_1419+0x8>
   10cfc:	48 c1 e8 2e          	shr    $0x2e,%rax
   10d00:	66 25 ff 01          	and    $0x1ff,%ax
   10d04:	0f b7 c0             	movzwl %ax,%eax
   10d07:	8b 55 fc             	mov    -0x4(%rbp),%edx
   10d0a:	48 8d 35 eb 3a 00 00 	lea    0x3aeb(%rip),%rsi        # 147fc <g_1899+0x177c>
   10d11:	48 89 c7             	mov    %rax,%rdi
   10d14:	e8 da 69 ff ff       	callq  76f3 <transparent_crc>
   10d19:	48 8b 05 08 80 00 00 	mov    0x8008(%rip),%rax        # 18d28 <g_1419+0x8>
   10d20:	48 c1 f8 37          	sar    $0x37,%rax
   10d24:	48 0f bf c0          	movswq %ax,%rax
   10d28:	8b 55 fc             	mov    -0x4(%rbp),%edx
   10d2b:	48 8d 35 da 3a 00 00 	lea    0x3ada(%rip),%rsi        # 1480c <g_1899+0x178c>
   10d32:	48 89 c7             	mov    %rax,%rdi
   10d35:	e8 b9 69 ff ff       	callq  76f3 <transparent_crc>
   10d3a:	48 8b 05 ef 7f 00 00 	mov    0x7fef(%rip),%rax        # 18d30 <g_1419+0x10>
   10d41:	25 ff ff ff 3f       	and    $0x3fffffff,%eax
   10d46:	89 c1                	mov    %eax,%ecx
   10d48:	8b 45 fc             	mov    -0x4(%rbp),%eax
   10d4b:	89 c2                	mov    %eax,%edx
   10d4d:	48 8d 35 c8 3a 00 00 	lea    0x3ac8(%rip),%rsi        # 1481c <g_1899+0x179c>
   10d54:	48 89 cf             	mov    %rcx,%rdi
   10d57:	e8 97 69 ff ff       	callq  76f3 <transparent_crc>
   10d5c:	0f b6 05 d1 7f 00 00 	movzbl 0x7fd1(%rip),%eax        # 18d34 <g_1419+0x14>
   10d63:	48 0f be c0          	movsbq %al,%rax
   10d67:	8b 55 fc             	mov    -0x4(%rbp),%edx
   10d6a:	48 8d 35 bb 3a 00 00 	lea    0x3abb(%rip),%rsi        # 1482c <g_1899+0x17ac>
   10d71:	48 89 c7             	mov    %rax,%rdi
   10d74:	e8 7a 69 ff ff       	callq  76f3 <transparent_crc>
   10d79:	48 8b 05 b0 7f 00 00 	mov    0x7fb0(%rip),%rax        # 18d30 <g_1419+0x10>
   10d80:	48 c1 e0 0f          	shl    $0xf,%rax
   10d84:	48 c1 f8 37          	sar    $0x37,%rax
   10d88:	48 0f bf c0          	movswq %ax,%rax
   10d8c:	8b 55 fc             	mov    -0x4(%rbp),%edx
   10d8f:	48 8d 35 a0 3a 00 00 	lea    0x3aa0(%rip),%rsi        # 14836 <g_1899+0x17b6>
   10d96:	48 89 c7             	mov    %rax,%rdi
   10d99:	e8 55 69 ff ff       	callq  76f3 <transparent_crc>
   10d9e:	0f b7 05 93 7f 00 00 	movzwl 0x7f93(%rip),%eax        # 18d38 <g_1419+0x18>
   10da5:	48 0f bf c0          	movswq %ax,%rax
   10da9:	8b 55 fc             	mov    -0x4(%rbp),%edx
   10dac:	48 8d 35 8d 3a 00 00 	lea    0x3a8d(%rip),%rsi        # 14840 <g_1899+0x17c0>
   10db3:	48 89 c7             	mov    %rax,%rdi
   10db6:	e8 38 69 ff ff       	callq  76f3 <transparent_crc>
   10dbb:	0f b6 05 78 7f 00 00 	movzbl 0x7f78(%rip),%eax        # 18d3a <g_1419+0x1a>
   10dc2:	48 0f be c0          	movsbq %al,%rax
   10dc6:	8b 55 fc             	mov    -0x4(%rbp),%edx
   10dc9:	48 8d 35 7a 3a 00 00 	lea    0x3a7a(%rip),%rsi        # 1484a <g_1899+0x17ca>
   10dd0:	48 89 c7             	mov    %rax,%rdi
   10dd3:	e8 1b 69 ff ff       	callq  76f3 <transparent_crc>
   10dd8:	0f b6 05 5c 7f 00 00 	movzbl 0x7f5c(%rip),%eax        # 18d3b <g_1419+0x1b>
   10ddf:	48 0f be c0          	movsbq %al,%rax
   10de3:	8b 55 fc             	mov    -0x4(%rbp),%edx
   10de6:	48 8d 35 67 3a 00 00 	lea    0x3a67(%rip),%rsi        # 14854 <g_1899+0x17d4>
   10ded:	48 89 c7             	mov    %rax,%rdi
   10df0:	e8 fe 68 ff ff       	callq  76f3 <transparent_crc>
   10df5:	8b 05 41 7f 00 00    	mov    0x7f41(%rip),%eax        # 18d3c <g_1419+0x1c>
   10dfb:	89 c1                	mov    %eax,%ecx
   10dfd:	8b 45 fc             	mov    -0x4(%rbp),%eax
   10e00:	89 c2                	mov    %eax,%edx
   10e02:	48 8d 35 55 3a 00 00 	lea    0x3a55(%rip),%rsi        # 1485e <g_1899+0x17de>
   10e09:	48 89 cf             	mov    %rcx,%rdi
   10e0c:	e8 e2 68 ff ff       	callq  76f3 <transparent_crc>
   10e11:	0f b7 05 28 7f 00 00 	movzwl 0x7f28(%rip),%eax        # 18d40 <g_1419+0x20>
   10e18:	0f b7 c0             	movzwl %ax,%eax
   10e1b:	8b 55 fc             	mov    -0x4(%rbp),%edx
   10e1e:	48 8d 35 43 3a 00 00 	lea    0x3a43(%rip),%rsi        # 14868 <g_1899+0x17e8>
   10e25:	48 89 c7             	mov    %rax,%rdi
   10e28:	e8 c6 68 ff ff       	callq  76f3 <transparent_crc>
   10e2d:	0f b7 05 0e 7f 00 00 	movzwl 0x7f0e(%rip),%eax        # 18d42 <g_1419+0x22>
   10e34:	48 0f bf c0          	movswq %ax,%rax
   10e38:	8b 55 fc             	mov    -0x4(%rbp),%edx
   10e3b:	48 8d 35 30 3a 00 00 	lea    0x3a30(%rip),%rsi        # 14872 <g_1899+0x17f2>
   10e42:	48 89 c7             	mov    %rax,%rdi
   10e45:	e8 a9 68 ff ff       	callq  76f3 <transparent_crc>
   10e4a:	48 8b 05 ef 7e 00 00 	mov    0x7eef(%rip),%rax        # 18d40 <g_1419+0x20>
   10e51:	48 c1 e0 0f          	shl    $0xf,%rax
   10e55:	48 c1 f8 2f          	sar    $0x2f,%rax
   10e59:	48 98                	cltq   
   10e5b:	8b 55 fc             	mov    -0x4(%rbp),%edx
   10e5e:	48 8d 35 17 3a 00 00 	lea    0x3a17(%rip),%rsi        # 1487c <g_1899+0x17fc>
   10e65:	48 89 c7             	mov    %rax,%rdi
   10e68:	e8 86 68 ff ff       	callq  76f3 <transparent_crc>
   10e6d:	c7 45 f0 00 00 00 00 	movl   $0x0,-0x10(%rbp)
   10e74:	e9 0b 02 00 00       	jmpq   11084 <main+0x4514>
   10e79:	8b 45 f0             	mov    -0x10(%rbp),%eax
   10e7c:	48 63 d0             	movslq %eax,%rdx
   10e7f:	48 89 d0             	mov    %rdx,%rax
   10e82:	48 c1 e0 02          	shl    $0x2,%rax
   10e86:	48 01 d0             	add    %rdx,%rax
   10e89:	48 c1 e0 02          	shl    $0x2,%rax
   10e8d:	48 89 c2             	mov    %rax,%rdx
   10e90:	48 8d 05 c9 7e 00 00 	lea    0x7ec9(%rip),%rax        # 18d60 <g_1420>
   10e97:	8b 04 02             	mov    (%rdx,%rax,1),%eax
   10e9a:	c1 e0 05             	shl    $0x5,%eax
   10e9d:	c1 f8 05             	sar    $0x5,%eax
   10ea0:	48 98                	cltq   
   10ea2:	8b 55 fc             	mov    -0x4(%rbp),%edx
   10ea5:	48 8d 35 da 39 00 00 	lea    0x39da(%rip),%rsi        # 14886 <g_1899+0x1806>
   10eac:	48 89 c7             	mov    %rax,%rdi
   10eaf:	e8 3f 68 ff ff       	callq  76f3 <transparent_crc>
   10eb4:	8b 45 f0             	mov    -0x10(%rbp),%eax
   10eb7:	48 63 d0             	movslq %eax,%rdx
   10eba:	48 89 d0             	mov    %rdx,%rax
   10ebd:	48 c1 e0 02          	shl    $0x2,%rax
   10ec1:	48 01 d0             	add    %rdx,%rax
   10ec4:	48 c1 e0 02          	shl    $0x2,%rax
   10ec8:	48 89 c2             	mov    %rax,%rdx
   10ecb:	48 8d 05 92 7e 00 00 	lea    0x7e92(%rip),%rax        # 18d64 <g_1420+0x4>
   10ed2:	8b 04 02             	mov    (%rdx,%rax,1),%eax
   10ed5:	89 c1                	mov    %eax,%ecx
   10ed7:	8b 45 fc             	mov    -0x4(%rbp),%eax
   10eda:	89 c2                	mov    %eax,%edx
   10edc:	48 8d 35 b3 39 00 00 	lea    0x39b3(%rip),%rsi        # 14896 <g_1899+0x1816>
   10ee3:	48 89 cf             	mov    %rcx,%rdi
   10ee6:	e8 08 68 ff ff       	callq  76f3 <transparent_crc>
   10eeb:	8b 45 f0             	mov    -0x10(%rbp),%eax
   10eee:	48 63 d0             	movslq %eax,%rdx
   10ef1:	48 89 d0             	mov    %rdx,%rax
   10ef4:	48 c1 e0 02          	shl    $0x2,%rax
   10ef8:	48 01 d0             	add    %rdx,%rax
   10efb:	48 c1 e0 02          	shl    $0x2,%rax
   10eff:	48 89 c2             	mov    %rax,%rdx
   10f02:	48 8d 05 57 7e 00 00 	lea    0x7e57(%rip),%rax        # 18d60 <g_1420>
   10f09:	8b 44 02 08          	mov    0x8(%rdx,%rax,1),%eax
   10f0d:	c1 e0 02             	shl    $0x2,%eax
   10f10:	c0 f8 02             	sar    $0x2,%al
   10f13:	48 0f be c0          	movsbq %al,%rax
   10f17:	8b 55 fc             	mov    -0x4(%rbp),%edx
   10f1a:	48 8d 35 85 39 00 00 	lea    0x3985(%rip),%rsi        # 148a6 <g_1899+0x1826>
   10f21:	48 89 c7             	mov    %rax,%rdi
   10f24:	e8 ca 67 ff ff       	callq  76f3 <transparent_crc>
   10f29:	8b 45 f0             	mov    -0x10(%rbp),%eax
   10f2c:	48 63 d0             	movslq %eax,%rdx
   10f2f:	48 89 d0             	mov    %rdx,%rax
   10f32:	48 c1 e0 02          	shl    $0x2,%rax
   10f36:	48 01 d0             	add    %rdx,%rax
   10f39:	48 c1 e0 02          	shl    $0x2,%rax
   10f3d:	48 89 c2             	mov    %rax,%rdx
   10f40:	48 8d 05 22 7e 00 00 	lea    0x7e22(%rip),%rax        # 18d69 <g_1420+0x9>
   10f47:	0f b6 04 02          	movzbl (%rdx,%rax,1),%eax
   10f4b:	0f b6 c0             	movzbl %al,%eax
   10f4e:	8b 55 fc             	mov    -0x4(%rbp),%edx
   10f51:	48 8d 35 5e 39 00 00 	lea    0x395e(%rip),%rsi        # 148b6 <g_1899+0x1836>
   10f58:	48 89 c7             	mov    %rax,%rdi
   10f5b:	e8 93 67 ff ff       	callq  76f3 <transparent_crc>
   10f60:	8b 45 f0             	mov    -0x10(%rbp),%eax
   10f63:	48 63 d0             	movslq %eax,%rdx
   10f66:	48 89 d0             	mov    %rdx,%rax
   10f69:	48 c1 e0 02          	shl    $0x2,%rax
   10f6d:	48 01 d0             	add    %rdx,%rax
   10f70:	48 c1 e0 02          	shl    $0x2,%rax
   10f74:	48 89 c2             	mov    %rax,%rdx
   10f77:	48 8d 05 e2 7d 00 00 	lea    0x7de2(%rip),%rax        # 18d60 <g_1420>
   10f7e:	8b 4c 02 08          	mov    0x8(%rdx,%rax,1),%ecx
   10f82:	c1 e9 10             	shr    $0x10,%ecx
   10f85:	89 c9                	mov    %ecx,%ecx
   10f87:	8b 44 02 0c          	mov    0xc(%rdx,%rax,1),%eax
   10f8b:	89 c0                	mov    %eax,%eax
   10f8d:	25 ff 3f 00 00       	and    $0x3fff,%eax
   10f92:	48 c1 e0 10          	shl    $0x10,%rax
   10f96:	48 09 c8             	or     %rcx,%rax
   10f99:	89 c1                	mov    %eax,%ecx
   10f9b:	8b 45 fc             	mov    -0x4(%rbp),%eax
   10f9e:	89 c2                	mov    %eax,%edx
   10fa0:	48 8d 35 1f 39 00 00 	lea    0x391f(%rip),%rsi        # 148c6 <g_1899+0x1846>
   10fa7:	48 89 cf             	mov    %rcx,%rdi
   10faa:	e8 44 67 ff ff       	callq  76f3 <transparent_crc>
   10faf:	8b 45 f0             	mov    -0x10(%rbp),%eax
   10fb2:	48 63 d0             	movslq %eax,%rdx
   10fb5:	48 89 d0             	mov    %rdx,%rax
   10fb8:	48 c1 e0 02          	shl    $0x2,%rax
   10fbc:	48 01 d0             	add    %rdx,%rax
   10fbf:	48 c1 e0 02          	shl    $0x2,%rax
   10fc3:	48 89 c2             	mov    %rax,%rdx
   10fc6:	48 8d 05 93 7d 00 00 	lea    0x7d93(%rip),%rax        # 18d60 <g_1420>
   10fcd:	8b 44 02 0c          	mov    0xc(%rdx,%rax,1),%eax
   10fd1:	c1 e8 0e             	shr    $0xe,%eax
   10fd4:	66 25 ff 01          	and    $0x1ff,%ax
   10fd8:	0f b7 c0             	movzwl %ax,%eax
   10fdb:	8b 55 fc             	mov    -0x4(%rbp),%edx
   10fde:	48 8d 35 f1 38 00 00 	lea    0x38f1(%rip),%rsi        # 148d6 <g_1899+0x1856>
   10fe5:	48 89 c7             	mov    %rax,%rdi
   10fe8:	e8 06 67 ff ff       	callq  76f3 <transparent_crc>
   10fed:	8b 45 f0             	mov    -0x10(%rbp),%eax
   10ff0:	48 63 d0             	movslq %eax,%rdx
   10ff3:	48 89 d0             	mov    %rdx,%rax
   10ff6:	48 c1 e0 02          	shl    $0x2,%rax
   10ffa:	48 01 d0             	add    %rdx,%rax
   10ffd:	48 c1 e0 02          	shl    $0x2,%rax
   11001:	48 89 c2             	mov    %rax,%rdx
   11004:	48 8d 05 55 7d 00 00 	lea    0x7d55(%rip),%rax        # 18d60 <g_1420>
   1100b:	8b 44 02 0c          	mov    0xc(%rdx,%rax,1),%eax
   1100f:	c1 f8 17             	sar    $0x17,%eax
   11012:	48 0f bf c0          	movswq %ax,%rax
   11016:	8b 55 fc             	mov    -0x4(%rbp),%edx
   11019:	48 8d 35 c6 38 00 00 	lea    0x38c6(%rip),%rsi        # 148e6 <g_1899+0x1866>
   11020:	48 89 c7             	mov    %rax,%rdi
   11023:	e8 cb 66 ff ff       	callq  76f3 <transparent_crc>
   11028:	8b 45 f0             	mov    -0x10(%rbp),%eax
   1102b:	48 63 d0             	movslq %eax,%rdx
   1102e:	48 89 d0             	mov    %rdx,%rax
   11031:	48 c1 e0 02          	shl    $0x2,%rax
   11035:	48 01 d0             	add    %rdx,%rax
   11038:	48 c1 e0 02          	shl    $0x2,%rax
   1103c:	48 89 c2             	mov    %rax,%rdx
   1103f:	48 8d 05 2a 7d 00 00 	lea    0x7d2a(%rip),%rax        # 18d70 <g_1420+0x10>
   11046:	8b 04 02             	mov    (%rdx,%rax,1),%eax
   11049:	25 ff ff ff 3f       	and    $0x3fffffff,%eax
   1104e:	89 c1                	mov    %eax,%ecx
   11050:	8b 45 fc             	mov    -0x4(%rbp),%eax
   11053:	89 c2                	mov    %eax,%edx
   11055:	48 8d 35 9a 38 00 00 	lea    0x389a(%rip),%rsi        # 148f6 <g_1899+0x1876>
   1105c:	48 89 cf             	mov    %rcx,%rdi
   1105f:	e8 8f 66 ff ff       	callq  76f3 <transparent_crc>
   11064:	83 7d fc 00          	cmpl   $0x0,-0x4(%rbp)
   11068:	74 16                	je     11080 <main+0x4510>
   1106a:	8b 45 f0             	mov    -0x10(%rbp),%eax
   1106d:	89 c6                	mov    %eax,%esi
   1106f:	48 8d 3d 17 25 00 00 	lea    0x2517(%rip),%rdi        # 1358d <g_1899+0x50d>
   11076:	b8 00 00 00 00       	mov    $0x0,%eax
   1107b:	e8 00 50 ff ff       	callq  6080 <printf@plt>
   11080:	83 45 f0 01          	addl   $0x1,-0x10(%rbp)
   11084:	83 7d f0 07          	cmpl   $0x7,-0x10(%rbp)
   11088:	0f 8e eb fd ff ff    	jle    10e79 <main+0x4309>
   1108e:	48 8b 05 6b 7d 00 00 	mov    0x7d6b(%rip),%rax        # 18e00 <g_1426>
   11095:	8b 55 fc             	mov    -0x4(%rbp),%edx
   11098:	48 8d 35 67 38 00 00 	lea    0x3867(%rip),%rsi        # 14906 <g_1899+0x1886>
   1109f:	48 89 c7             	mov    %rax,%rdi
   110a2:	e8 4c 66 ff ff       	callq  76f3 <transparent_crc>
   110a7:	0f b6 05 5a 7d 00 00 	movzbl 0x7d5a(%rip),%eax        # 18e08 <g_1433>
   110ae:	c1 e0 05             	shl    $0x5,%eax
   110b1:	c0 f8 05             	sar    $0x5,%al
   110b4:	48 0f be c0          	movsbq %al,%rax
   110b8:	8b 55 fc             	mov    -0x4(%rbp),%edx
   110bb:	48 8d 35 4b 38 00 00 	lea    0x384b(%rip),%rsi        # 1490d <g_1899+0x188d>
   110c2:	48 89 c7             	mov    %rax,%rdi
   110c5:	e8 29 66 ff ff       	callq  76f3 <transparent_crc>
   110ca:	0f b6 05 37 7d 00 00 	movzbl 0x7d37(%rip),%eax        # 18e08 <g_1433>
   110d1:	c0 e8 03             	shr    $0x3,%al
   110d4:	0f b6 c0             	movzbl %al,%eax
   110d7:	8b 55 fc             	mov    -0x4(%rbp),%edx
   110da:	48 8d 35 36 38 00 00 	lea    0x3836(%rip),%rsi        # 14917 <g_1899+0x1897>
   110e1:	48 89 c7             	mov    %rax,%rdi
   110e4:	e8 0a 66 ff ff       	callq  76f3 <transparent_crc>
   110e9:	8b 05 19 7d 00 00    	mov    0x7d19(%rip),%eax        # 18e08 <g_1433>
   110ef:	c1 e0 0c             	shl    $0xc,%eax
   110f2:	c1 f8 14             	sar    $0x14,%eax
   110f5:	48 0f bf c0          	movswq %ax,%rax
   110f9:	8b 55 fc             	mov    -0x4(%rbp),%edx
   110fc:	48 8d 35 1e 38 00 00 	lea    0x381e(%rip),%rsi        # 14921 <g_1899+0x18a1>
   11103:	48 89 c7             	mov    %rax,%rdi
   11106:	e8 e8 65 ff ff       	callq  76f3 <transparent_crc>
   1110b:	0f b7 05 f8 7c 00 00 	movzwl 0x7cf8(%rip),%eax        # 18e0a <g_1433+0x2>
   11112:	66 c1 e8 04          	shr    $0x4,%ax
   11116:	66 25 ff 01          	and    $0x1ff,%ax
   1111a:	0f b7 c0             	movzwl %ax,%eax
   1111d:	8b 55 fc             	mov    -0x4(%rbp),%edx
   11120:	48 8d 35 04 38 00 00 	lea    0x3804(%rip),%rsi        # 1492b <g_1899+0x18ab>
   11127:	48 89 c7             	mov    %rax,%rdi
   1112a:	e8 c4 65 ff ff       	callq  76f3 <transparent_crc>
   1112f:	8b 05 d7 7c 00 00    	mov    0x7cd7(%rip),%eax        # 18e0c <g_1433+0x4>
   11135:	c1 e0 0c             	shl    $0xc,%eax
   11138:	c1 f8 0c             	sar    $0xc,%eax
   1113b:	48 98                	cltq   
   1113d:	8b 55 fc             	mov    -0x4(%rbp),%edx
   11140:	48 8d 35 ee 37 00 00 	lea    0x37ee(%rip),%rsi        # 14935 <g_1899+0x18b5>
   11147:	48 89 c7             	mov    %rax,%rdi
   1114a:	e8 a4 65 ff ff       	callq  76f3 <transparent_crc>
   1114f:	48 8b 05 b2 7c 00 00 	mov    0x7cb2(%rip),%rax        # 18e08 <g_1433>
   11156:	48 c1 e0 06          	shl    $0x6,%rax
   1115a:	48 c1 f8 3a          	sar    $0x3a,%rax
   1115e:	48 0f be c0          	movsbq %al,%rax
   11162:	8b 55 fc             	mov    -0x4(%rbp),%edx
   11165:	48 8d 35 d3 37 00 00 	lea    0x37d3(%rip),%rsi        # 1493f <g_1899+0x18bf>
   1116c:	48 89 c7             	mov    %rax,%rdi
   1116f:	e8 7f 65 ff ff       	callq  76f3 <transparent_crc>
   11174:	0f b7 05 95 7c 00 00 	movzwl 0x7c95(%rip),%eax        # 18e10 <g_1433+0x8>
   1117b:	c1 e0 04             	shl    $0x4,%eax
   1117e:	66 c1 f8 04          	sar    $0x4,%ax
   11182:	48 0f bf c0          	movswq %ax,%rax
   11186:	8b 55 fc             	mov    -0x4(%rbp),%edx
   11189:	48 8d 35 b9 37 00 00 	lea    0x37b9(%rip),%rsi        # 14949 <g_1899+0x18c9>
   11190:	48 89 c7             	mov    %rax,%rdi
   11193:	e8 5b 65 ff ff       	callq  76f3 <transparent_crc>
   11198:	8b 05 72 7c 00 00    	mov    0x7c72(%rip),%eax        # 18e10 <g_1433+0x8>
   1119e:	c1 e0 0f             	shl    $0xf,%eax
   111a1:	c1 f8 1b             	sar    $0x1b,%eax
   111a4:	48 0f be c0          	movsbq %al,%rax
   111a8:	8b 55 fc             	mov    -0x4(%rbp),%edx
   111ab:	48 8d 35 a1 37 00 00 	lea    0x37a1(%rip),%rsi        # 14953 <g_1899+0x18d3>
   111b2:	48 89 c7             	mov    %rax,%rdi
   111b5:	e8 39 65 ff ff       	callq  76f3 <transparent_crc>
   111ba:	0f b6 05 57 7c 00 00 	movzbl 0x7c57(%rip),%eax        # 18e18 <g_1440>
   111c1:	c1 e0 05             	shl    $0x5,%eax
   111c4:	c0 f8 05             	sar    $0x5,%al
   111c7:	48 0f be c0          	movsbq %al,%rax
   111cb:	8b 55 fc             	mov    -0x4(%rbp),%edx
   111ce:	48 8d 35 88 37 00 00 	lea    0x3788(%rip),%rsi        # 1495d <g_1899+0x18dd>
   111d5:	48 89 c7             	mov    %rax,%rdi
   111d8:	e8 16 65 ff ff       	callq  76f3 <transparent_crc>
   111dd:	0f b6 05 34 7c 00 00 	movzbl 0x7c34(%rip),%eax        # 18e18 <g_1440>
   111e4:	c0 e8 03             	shr    $0x3,%al
   111e7:	0f b6 c0             	movzbl %al,%eax
   111ea:	8b 55 fc             	mov    -0x4(%rbp),%edx
   111ed:	48 8d 35 73 37 00 00 	lea    0x3773(%rip),%rsi        # 14967 <g_1899+0x18e7>
   111f4:	48 89 c7             	mov    %rax,%rdi
   111f7:	e8 f7 64 ff ff       	callq  76f3 <transparent_crc>
   111fc:	8b 05 16 7c 00 00    	mov    0x7c16(%rip),%eax        # 18e18 <g_1440>
   11202:	c1 e0 0c             	shl    $0xc,%eax
   11205:	c1 f8 14             	sar    $0x14,%eax
   11208:	48 0f bf c0          	movswq %ax,%rax
   1120c:	8b 55 fc             	mov    -0x4(%rbp),%edx
   1120f:	48 8d 35 5b 37 00 00 	lea    0x375b(%rip),%rsi        # 14971 <g_1899+0x18f1>
   11216:	48 89 c7             	mov    %rax,%rdi
   11219:	e8 d5 64 ff ff       	callq  76f3 <transparent_crc>
   1121e:	0f b7 05 f5 7b 00 00 	movzwl 0x7bf5(%rip),%eax        # 18e1a <g_1440+0x2>
   11225:	66 c1 e8 04          	shr    $0x4,%ax
   11229:	66 25 ff 01          	and    $0x1ff,%ax
   1122d:	0f b7 c0             	movzwl %ax,%eax
   11230:	8b 55 fc             	mov    -0x4(%rbp),%edx
   11233:	48 8d 35 41 37 00 00 	lea    0x3741(%rip),%rsi        # 1497b <g_1899+0x18fb>
   1123a:	48 89 c7             	mov    %rax,%rdi
   1123d:	e8 b1 64 ff ff       	callq  76f3 <transparent_crc>
   11242:	8b 05 d4 7b 00 00    	mov    0x7bd4(%rip),%eax        # 18e1c <g_1440+0x4>
   11248:	c1 e0 0c             	shl    $0xc,%eax
   1124b:	c1 f8 0c             	sar    $0xc,%eax
   1124e:	48 98                	cltq   
   11250:	8b 55 fc             	mov    -0x4(%rbp),%edx
   11253:	48 8d 35 2b 37 00 00 	lea    0x372b(%rip),%rsi        # 14985 <g_1899+0x1905>
   1125a:	48 89 c7             	mov    %rax,%rdi
   1125d:	e8 91 64 ff ff       	callq  76f3 <transparent_crc>
   11262:	48 8b 05 af 7b 00 00 	mov    0x7baf(%rip),%rax        # 18e18 <g_1440>
   11269:	48 c1 e0 06          	shl    $0x6,%rax
   1126d:	48 c1 f8 3a          	sar    $0x3a,%rax
   11271:	48 0f be c0          	movsbq %al,%rax
   11275:	8b 55 fc             	mov    -0x4(%rbp),%edx
   11278:	48 8d 35 10 37 00 00 	lea    0x3710(%rip),%rsi        # 1498f <g_1899+0x190f>
   1127f:	48 89 c7             	mov    %rax,%rdi
   11282:	e8 6c 64 ff ff       	callq  76f3 <transparent_crc>
   11287:	0f b7 05 92 7b 00 00 	movzwl 0x7b92(%rip),%eax        # 18e20 <g_1440+0x8>
   1128e:	c1 e0 04             	shl    $0x4,%eax
   11291:	66 c1 f8 04          	sar    $0x4,%ax
   11295:	48 0f bf c0          	movswq %ax,%rax
   11299:	8b 55 fc             	mov    -0x4(%rbp),%edx
   1129c:	48 8d 35 f6 36 00 00 	lea    0x36f6(%rip),%rsi        # 14999 <g_1899+0x1919>
   112a3:	48 89 c7             	mov    %rax,%rdi
   112a6:	e8 48 64 ff ff       	callq  76f3 <transparent_crc>
   112ab:	8b 05 6f 7b 00 00    	mov    0x7b6f(%rip),%eax        # 18e20 <g_1440+0x8>
   112b1:	c1 e0 0f             	shl    $0xf,%eax
   112b4:	c1 f8 1b             	sar    $0x1b,%eax
   112b7:	48 0f be c0          	movsbq %al,%rax
   112bb:	8b 55 fc             	mov    -0x4(%rbp),%edx
   112be:	48 8d 35 de 36 00 00 	lea    0x36de(%rip),%rsi        # 149a3 <g_1899+0x1923>
   112c5:	48 89 c7             	mov    %rax,%rdi
   112c8:	e8 26 64 ff ff       	callq  76f3 <transparent_crc>
   112cd:	c7 45 f0 00 00 00 00 	movl   $0x0,-0x10(%rbp)
   112d4:	e9 d7 03 00 00       	jmpq   116b0 <main+0x4b40>
   112d9:	c7 45 f4 00 00 00 00 	movl   $0x0,-0xc(%rbp)
   112e0:	e9 bd 03 00 00       	jmpq   116a2 <main+0x4b32>
   112e5:	c7 45 f8 00 00 00 00 	movl   $0x0,-0x8(%rbp)
   112ec:	e9 a3 03 00 00       	jmpq   11694 <main+0x4b24>
   112f1:	8b 45 f8             	mov    -0x8(%rbp),%eax
   112f4:	48 98                	cltq   
   112f6:	8b 55 f4             	mov    -0xc(%rbp),%edx
   112f9:	48 63 f2             	movslq %edx,%rsi
   112fc:	8b 55 f0             	mov    -0x10(%rbp),%edx
   112ff:	48 63 ca             	movslq %edx,%rcx
   11302:	48 89 c2             	mov    %rax,%rdx
   11305:	48 01 d2             	add    %rdx,%rdx
   11308:	48 01 c2             	add    %rax,%rdx
   1130b:	48 8d 04 95 00 00 00 	lea    0x0(,%rdx,4),%rax
   11312:	00 
   11313:	48 89 c2             	mov    %rax,%rdx
   11316:	48 89 f0             	mov    %rsi,%rax
   11319:	48 c1 e0 03          	shl    $0x3,%rax
   1131d:	48 01 f0             	add    %rsi,%rax
   11320:	48 c1 e0 03          	shl    $0x3,%rax
   11324:	48 01 c2             	add    %rax,%rdx
   11327:	48 89 c8             	mov    %rcx,%rax
   1132a:	48 c1 e0 03          	shl    $0x3,%rax
   1132e:	48 01 c8             	add    %rcx,%rax
   11331:	48 c1 e0 03          	shl    $0x3,%rax
   11335:	48 01 c2             	add    %rax,%rdx
   11338:	48 8d 05 01 7b 00 00 	lea    0x7b01(%rip),%rax        # 18e40 <g_1462>
   1133f:	48 01 d0             	add    %rdx,%rax
   11342:	0f b6 00             	movzbl (%rax),%eax
   11345:	c1 e0 05             	shl    $0x5,%eax
   11348:	c0 f8 05             	sar    $0x5,%al
   1134b:	48 0f be c0          	movsbq %al,%rax
   1134f:	8b 55 fc             	mov    -0x4(%rbp),%edx
   11352:	48 8d 35 54 36 00 00 	lea    0x3654(%rip),%rsi        # 149ad <g_1899+0x192d>
   11359:	48 89 c7             	mov    %rax,%rdi
   1135c:	e8 92 63 ff ff       	callq  76f3 <transparent_crc>
   11361:	8b 45 f8             	mov    -0x8(%rbp),%eax
   11364:	48 98                	cltq   
   11366:	8b 55 f4             	mov    -0xc(%rbp),%edx
   11369:	48 63 f2             	movslq %edx,%rsi
   1136c:	8b 55 f0             	mov    -0x10(%rbp),%edx
   1136f:	48 63 ca             	movslq %edx,%rcx
   11372:	48 89 c2             	mov    %rax,%rdx
   11375:	48 01 d2             	add    %rdx,%rdx
   11378:	48 01 c2             	add    %rax,%rdx
   1137b:	48 8d 04 95 00 00 00 	lea    0x0(,%rdx,4),%rax
   11382:	00 
   11383:	48 89 c2             	mov    %rax,%rdx
   11386:	48 89 f0             	mov    %rsi,%rax
   11389:	48 c1 e0 03          	shl    $0x3,%rax
   1138d:	48 01 f0             	add    %rsi,%rax
   11390:	48 c1 e0 03          	shl    $0x3,%rax
   11394:	48 01 c2             	add    %rax,%rdx
   11397:	48 89 c8             	mov    %rcx,%rax
   1139a:	48 c1 e0 03          	shl    $0x3,%rax
   1139e:	48 01 c8             	add    %rcx,%rax
   113a1:	48 c1 e0 03          	shl    $0x3,%rax
   113a5:	48 01 c2             	add    %rax,%rdx
   113a8:	48 8d 05 91 7a 00 00 	lea    0x7a91(%rip),%rax        # 18e40 <g_1462>
   113af:	48 01 d0             	add    %rdx,%rax
   113b2:	0f b6 00             	movzbl (%rax),%eax
   113b5:	c0 e8 03             	shr    $0x3,%al
   113b8:	0f b6 c0             	movzbl %al,%eax
   113bb:	8b 55 fc             	mov    -0x4(%rbp),%edx
   113be:	48 8d 35 fb 35 00 00 	lea    0x35fb(%rip),%rsi        # 149c0 <g_1899+0x1940>
   113c5:	48 89 c7             	mov    %rax,%rdi
   113c8:	e8 26 63 ff ff       	callq  76f3 <transparent_crc>
   113cd:	8b 45 f8             	mov    -0x8(%rbp),%eax
   113d0:	48 98                	cltq   
   113d2:	8b 55 f4             	mov    -0xc(%rbp),%edx
   113d5:	48 63 f2             	movslq %edx,%rsi
   113d8:	8b 55 f0             	mov    -0x10(%rbp),%edx
   113db:	48 63 ca             	movslq %edx,%rcx
   113de:	48 89 c2             	mov    %rax,%rdx
   113e1:	48 01 d2             	add    %rdx,%rdx
   113e4:	48 01 c2             	add    %rax,%rdx
   113e7:	48 8d 04 95 00 00 00 	lea    0x0(,%rdx,4),%rax
   113ee:	00 
   113ef:	48 89 c2             	mov    %rax,%rdx
   113f2:	48 89 f0             	mov    %rsi,%rax
   113f5:	48 c1 e0 03          	shl    $0x3,%rax
   113f9:	48 01 f0             	add    %rsi,%rax
   113fc:	48 c1 e0 03          	shl    $0x3,%rax
   11400:	48 01 c2             	add    %rax,%rdx
   11403:	48 89 c8             	mov    %rcx,%rax
   11406:	48 c1 e0 03          	shl    $0x3,%rax
   1140a:	48 01 c8             	add    %rcx,%rax
   1140d:	48 c1 e0 03          	shl    $0x3,%rax
   11411:	48 01 c2             	add    %rax,%rdx
   11414:	48 8d 05 25 7a 00 00 	lea    0x7a25(%rip),%rax        # 18e40 <g_1462>
   1141b:	48 01 d0             	add    %rdx,%rax
   1141e:	8b 00                	mov    (%rax),%eax
   11420:	c1 e0 0c             	shl    $0xc,%eax
   11423:	c1 f8 14             	sar    $0x14,%eax
   11426:	48 0f bf c0          	movswq %ax,%rax
   1142a:	8b 55 fc             	mov    -0x4(%rbp),%edx
   1142d:	48 8d 35 9f 35 00 00 	lea    0x359f(%rip),%rsi        # 149d3 <g_1899+0x1953>
   11434:	48 89 c7             	mov    %rax,%rdi
   11437:	e8 b7 62 ff ff       	callq  76f3 <transparent_crc>
   1143c:	8b 45 f8             	mov    -0x8(%rbp),%eax
   1143f:	48 98                	cltq   
   11441:	8b 55 f4             	mov    -0xc(%rbp),%edx
   11444:	48 63 f2             	movslq %edx,%rsi
   11447:	8b 55 f0             	mov    -0x10(%rbp),%edx
   1144a:	48 63 ca             	movslq %edx,%rcx
   1144d:	48 89 c2             	mov    %rax,%rdx
   11450:	48 01 d2             	add    %rdx,%rdx
   11453:	48 01 c2             	add    %rax,%rdx
   11456:	48 8d 04 95 00 00 00 	lea    0x0(,%rdx,4),%rax
   1145d:	00 
   1145e:	48 89 c2             	mov    %rax,%rdx
   11461:	48 89 f0             	mov    %rsi,%rax
   11464:	48 c1 e0 03          	shl    $0x3,%rax
   11468:	48 01 f0             	add    %rsi,%rax
   1146b:	48 c1 e0 03          	shl    $0x3,%rax
   1146f:	48 01 c2             	add    %rax,%rdx
   11472:	48 89 c8             	mov    %rcx,%rax
   11475:	48 c1 e0 03          	shl    $0x3,%rax
   11479:	48 01 c8             	add    %rcx,%rax
   1147c:	48 c1 e0 03          	shl    $0x3,%rax
   11480:	48 01 c2             	add    %rax,%rdx
   11483:	48 8d 05 b6 79 00 00 	lea    0x79b6(%rip),%rax        # 18e40 <g_1462>
   1148a:	48 01 d0             	add    %rdx,%rax
   1148d:	0f b7 40 02          	movzwl 0x2(%rax),%eax
   11491:	66 c1 e8 04          	shr    $0x4,%ax
   11495:	66 25 ff 01          	and    $0x1ff,%ax
   11499:	0f b7 c0             	movzwl %ax,%eax
   1149c:	8b 55 fc             	mov    -0x4(%rbp),%edx
   1149f:	48 8d 35 40 35 00 00 	lea    0x3540(%rip),%rsi        # 149e6 <g_1899+0x1966>
   114a6:	48 89 c7             	mov    %rax,%rdi
   114a9:	e8 45 62 ff ff       	callq  76f3 <transparent_crc>
   114ae:	8b 45 f8             	mov    -0x8(%rbp),%eax
   114b1:	48 98                	cltq   
   114b3:	8b 55 f4             	mov    -0xc(%rbp),%edx
   114b6:	48 63 f2             	movslq %edx,%rsi
   114b9:	8b 55 f0             	mov    -0x10(%rbp),%edx
   114bc:	48 63 ca             	movslq %edx,%rcx
   114bf:	48 89 c2             	mov    %rax,%rdx
   114c2:	48 01 d2             	add    %rdx,%rdx
   114c5:	48 01 c2             	add    %rax,%rdx
   114c8:	48 8d 04 95 00 00 00 	lea    0x0(,%rdx,4),%rax
   114cf:	00 
   114d0:	48 89 c2             	mov    %rax,%rdx
   114d3:	48 89 f0             	mov    %rsi,%rax
   114d6:	48 c1 e0 03          	shl    $0x3,%rax
   114da:	48 01 f0             	add    %rsi,%rax
   114dd:	48 c1 e0 03          	shl    $0x3,%rax
   114e1:	48 01 c2             	add    %rax,%rdx
   114e4:	48 89 c8             	mov    %rcx,%rax
   114e7:	48 c1 e0 03          	shl    $0x3,%rax
   114eb:	48 01 c8             	add    %rcx,%rax
   114ee:	48 c1 e0 03          	shl    $0x3,%rax
   114f2:	48 01 c2             	add    %rax,%rdx
   114f5:	48 8d 05 44 79 00 00 	lea    0x7944(%rip),%rax        # 18e40 <g_1462>
   114fc:	48 01 d0             	add    %rdx,%rax
   114ff:	8b 40 04             	mov    0x4(%rax),%eax
   11502:	c1 e0 0c             	shl    $0xc,%eax
   11505:	c1 f8 0c             	sar    $0xc,%eax
   11508:	48 98                	cltq   
   1150a:	8b 55 fc             	mov    -0x4(%rbp),%edx
   1150d:	48 8d 35 e5 34 00 00 	lea    0x34e5(%rip),%rsi        # 149f9 <g_1899+0x1979>
   11514:	48 89 c7             	mov    %rax,%rdi
   11517:	e8 d7 61 ff ff       	callq  76f3 <transparent_crc>
   1151c:	8b 45 f8             	mov    -0x8(%rbp),%eax
   1151f:	48 98                	cltq   
   11521:	8b 55 f4             	mov    -0xc(%rbp),%edx
   11524:	48 63 f2             	movslq %edx,%rsi
   11527:	8b 55 f0             	mov    -0x10(%rbp),%edx
   1152a:	48 63 ca             	movslq %edx,%rcx
   1152d:	48 89 c2             	mov    %rax,%rdx
   11530:	48 01 d2             	add    %rdx,%rdx
   11533:	48 01 c2             	add    %rax,%rdx
   11536:	48 8d 04 95 00 00 00 	lea    0x0(,%rdx,4),%rax
   1153d:	00 
   1153e:	48 89 c2             	mov    %rax,%rdx
   11541:	48 89 f0             	mov    %rsi,%rax
   11544:	48 c1 e0 03          	shl    $0x3,%rax
   11548:	48 01 f0             	add    %rsi,%rax
   1154b:	48 c1 e0 03          	shl    $0x3,%rax
   1154f:	48 01 c2             	add    %rax,%rdx
   11552:	48 89 c8             	mov    %rcx,%rax
   11555:	48 c1 e0 03          	shl    $0x3,%rax
   11559:	48 01 c8             	add    %rcx,%rax
   1155c:	48 c1 e0 03          	shl    $0x3,%rax
   11560:	48 01 c2             	add    %rax,%rdx
   11563:	48 8d 05 d6 78 00 00 	lea    0x78d6(%rip),%rax        # 18e40 <g_1462>
   1156a:	48 01 d0             	add    %rdx,%rax
   1156d:	8b 40 04             	mov    0x4(%rax),%eax
   11570:	c1 e0 06             	shl    $0x6,%eax
   11573:	c1 f8 1a             	sar    $0x1a,%eax
   11576:	48 0f be c0          	movsbq %al,%rax
   1157a:	8b 55 fc             	mov    -0x4(%rbp),%edx
   1157d:	48 8d 35 88 34 00 00 	lea    0x3488(%rip),%rsi        # 14a0c <g_1899+0x198c>
   11584:	48 89 c7             	mov    %rax,%rdi
   11587:	e8 67 61 ff ff       	callq  76f3 <transparent_crc>
   1158c:	8b 45 f8             	mov    -0x8(%rbp),%eax
   1158f:	48 98                	cltq   
   11591:	8b 55 f4             	mov    -0xc(%rbp),%edx
   11594:	48 63 f2             	movslq %edx,%rsi
   11597:	8b 55 f0             	mov    -0x10(%rbp),%edx
   1159a:	48 63 ca             	movslq %edx,%rcx
   1159d:	48 89 c2             	mov    %rax,%rdx
   115a0:	48 01 d2             	add    %rdx,%rdx
   115a3:	48 01 c2             	add    %rax,%rdx
   115a6:	48 8d 04 95 00 00 00 	lea    0x0(,%rdx,4),%rax
   115ad:	00 
   115ae:	48 89 c2             	mov    %rax,%rdx
   115b1:	48 89 f0             	mov    %rsi,%rax
   115b4:	48 c1 e0 03          	shl    $0x3,%rax
   115b8:	48 01 f0             	add    %rsi,%rax
   115bb:	48 c1 e0 03          	shl    $0x3,%rax
   115bf:	48 01 c2             	add    %rax,%rdx
   115c2:	48 89 c8             	mov    %rcx,%rax
   115c5:	48 c1 e0 03          	shl    $0x3,%rax
   115c9:	48 01 c8             	add    %rcx,%rax
   115cc:	48 c1 e0 03          	shl    $0x3,%rax
   115d0:	48 01 c2             	add    %rax,%rdx
   115d3:	48 8d 05 66 78 00 00 	lea    0x7866(%rip),%rax        # 18e40 <g_1462>
   115da:	48 01 d0             	add    %rdx,%rax
   115dd:	0f b7 40 08          	movzwl 0x8(%rax),%eax
   115e1:	c1 e0 04             	shl    $0x4,%eax
   115e4:	66 c1 f8 04          	sar    $0x4,%ax
   115e8:	48 0f bf c0          	movswq %ax,%rax
   115ec:	8b 55 fc             	mov    -0x4(%rbp),%edx
   115ef:	48 8d 35 29 34 00 00 	lea    0x3429(%rip),%rsi        # 14a1f <g_1899+0x199f>
   115f6:	48 89 c7             	mov    %rax,%rdi
   115f9:	e8 f5 60 ff ff       	callq  76f3 <transparent_crc>
   115fe:	8b 45 f8             	mov    -0x8(%rbp),%eax
   11601:	48 98                	cltq   
   11603:	8b 55 f4             	mov    -0xc(%rbp),%edx
   11606:	48 63 f2             	movslq %edx,%rsi
   11609:	8b 55 f0             	mov    -0x10(%rbp),%edx
   1160c:	48 63 ca             	movslq %edx,%rcx
   1160f:	48 89 c2             	mov    %rax,%rdx
   11612:	48 01 d2             	add    %rdx,%rdx
   11615:	48 01 c2             	add    %rax,%rdx
   11618:	48 8d 04 95 00 00 00 	lea    0x0(,%rdx,4),%rax
   1161f:	00 
   11620:	48 89 c2             	mov    %rax,%rdx
   11623:	48 89 f0             	mov    %rsi,%rax
   11626:	48 c1 e0 03          	shl    $0x3,%rax
   1162a:	48 01 f0             	add    %rsi,%rax
   1162d:	48 c1 e0 03          	shl    $0x3,%rax
   11631:	48 01 c2             	add    %rax,%rdx
   11634:	48 89 c8             	mov    %rcx,%rax
   11637:	48 c1 e0 03          	shl    $0x3,%rax
   1163b:	48 01 c8             	add    %rcx,%rax
   1163e:	48 c1 e0 03          	shl    $0x3,%rax
   11642:	48 01 c2             	add    %rax,%rdx
   11645:	48 8d 05 f4 77 00 00 	lea    0x77f4(%rip),%rax        # 18e40 <g_1462>
   1164c:	48 01 d0             	add    %rdx,%rax
   1164f:	8b 40 08             	mov    0x8(%rax),%eax
   11652:	c1 e0 0f             	shl    $0xf,%eax
   11655:	c1 f8 1b             	sar    $0x1b,%eax
   11658:	48 0f be c0          	movsbq %al,%rax
   1165c:	8b 55 fc             	mov    -0x4(%rbp),%edx
   1165f:	48 8d 35 cc 33 00 00 	lea    0x33cc(%rip),%rsi        # 14a32 <g_1899+0x19b2>
   11666:	48 89 c7             	mov    %rax,%rdi
   11669:	e8 85 60 ff ff       	callq  76f3 <transparent_crc>
   1166e:	83 7d fc 00          	cmpl   $0x0,-0x4(%rbp)
   11672:	74 1c                	je     11690 <main+0x4b20>
   11674:	8b 4d f8             	mov    -0x8(%rbp),%ecx
   11677:	8b 55 f4             	mov    -0xc(%rbp),%edx
   1167a:	8b 45 f0             	mov    -0x10(%rbp),%eax
   1167d:	89 c6                	mov    %eax,%esi
   1167f:	48 8d 3d 79 2f 00 00 	lea    0x2f79(%rip),%rdi        # 145ff <g_1899+0x157f>
   11686:	b8 00 00 00 00       	mov    $0x0,%eax
   1168b:	e8 f0 49 ff ff       	callq  6080 <printf@plt>
   11690:	83 45 f8 01          	addl   $0x1,-0x8(%rbp)
   11694:	83 7d f8 05          	cmpl   $0x5,-0x8(%rbp)
   11698:	0f 8e 53 fc ff ff    	jle    112f1 <main+0x4781>
   1169e:	83 45 f4 01          	addl   $0x1,-0xc(%rbp)
   116a2:	83 7d f4 00          	cmpl   $0x0,-0xc(%rbp)
   116a6:	0f 8e 39 fc ff ff    	jle    112e5 <main+0x4775>
   116ac:	83 45 f0 01          	addl   $0x1,-0x10(%rbp)
   116b0:	83 7d f0 02          	cmpl   $0x2,-0x10(%rbp)
   116b4:	0f 8e 1f fc ff ff    	jle    112d9 <main+0x4769>
   116ba:	8b 05 58 78 00 00    	mov    0x7858(%rip),%eax        # 18f18 <g_1484>
   116c0:	89 c1                	mov    %eax,%ecx
   116c2:	8b 45 fc             	mov    -0x4(%rbp),%eax
   116c5:	89 c2                	mov    %eax,%edx
   116c7:	48 8d 35 77 33 00 00 	lea    0x3377(%rip),%rsi        # 14a45 <g_1899+0x19c5>
   116ce:	48 89 cf             	mov    %rcx,%rdi
   116d1:	e8 1d 60 ff ff       	callq  76f3 <transparent_crc>
   116d6:	c7 45 f0 00 00 00 00 	movl   $0x0,-0x10(%rbp)
   116dd:	eb 70                	jmp    1174f <main+0x4bdf>
   116df:	c7 45 f4 00 00 00 00 	movl   $0x0,-0xc(%rbp)
   116e6:	eb 5d                	jmp    11745 <main+0x4bd5>
   116e8:	8b 45 f4             	mov    -0xc(%rbp),%eax
   116eb:	48 98                	cltq   
   116ed:	8b 55 f0             	mov    -0x10(%rbp),%edx
   116f0:	48 63 d2             	movslq %edx,%rdx
   116f3:	48 c1 e2 03          	shl    $0x3,%rdx
   116f7:	48 01 d0             	add    %rdx,%rax
   116fa:	48 8d 14 85 00 00 00 	lea    0x0(,%rax,4),%rdx
   11701:	00 
   11702:	48 8d 05 17 78 00 00 	lea    0x7817(%rip),%rax        # 18f20 <g_1485>
   11709:	8b 04 02             	mov    (%rdx,%rax,1),%eax
   1170c:	89 c1                	mov    %eax,%ecx
   1170e:	8b 45 fc             	mov    -0x4(%rbp),%eax
   11711:	89 c2                	mov    %eax,%edx
   11713:	48 8d 35 32 33 00 00 	lea    0x3332(%rip),%rsi        # 14a4c <g_1899+0x19cc>
   1171a:	48 89 cf             	mov    %rcx,%rdi
   1171d:	e8 d1 5f ff ff       	callq  76f3 <transparent_crc>
   11722:	83 7d fc 00          	cmpl   $0x0,-0x4(%rbp)
   11726:	74 19                	je     11741 <main+0x4bd1>
   11728:	8b 55 f4             	mov    -0xc(%rbp),%edx
   1172b:	8b 45 f0             	mov    -0x10(%rbp),%eax
   1172e:	89 c6                	mov    %eax,%esi
   11730:	48 8d 3d 7e 1e 00 00 	lea    0x1e7e(%rip),%rdi        # 135b5 <g_1899+0x535>
   11737:	b8 00 00 00 00       	mov    $0x0,%eax
   1173c:	e8 3f 49 ff ff       	callq  6080 <printf@plt>
   11741:	83 45 f4 01          	addl   $0x1,-0xc(%rbp)
   11745:	83 7d f4 07          	cmpl   $0x7,-0xc(%rbp)
   11749:	7e 9d                	jle    116e8 <main+0x4b78>
   1174b:	83 45 f0 01          	addl   $0x1,-0x10(%rbp)
   1174f:	83 7d f0 04          	cmpl   $0x4,-0x10(%rbp)
   11753:	7e 8a                	jle    116df <main+0x4b6f>
   11755:	8b 05 65 78 00 00    	mov    0x7865(%rip),%eax        # 18fc0 <g_1486>
   1175b:	89 c1                	mov    %eax,%ecx
   1175d:	8b 45 fc             	mov    -0x4(%rbp),%eax
   11760:	89 c2                	mov    %eax,%edx
   11762:	48 8d 35 f0 32 00 00 	lea    0x32f0(%rip),%rsi        # 14a59 <g_1899+0x19d9>
   11769:	48 89 cf             	mov    %rcx,%rdi
   1176c:	e8 82 5f ff ff       	callq  76f3 <transparent_crc>
   11771:	8b 05 4d 78 00 00    	mov    0x784d(%rip),%eax        # 18fc4 <g_1487>
   11777:	89 c1                	mov    %eax,%ecx
   11779:	8b 45 fc             	mov    -0x4(%rbp),%eax
   1177c:	89 c2                	mov    %eax,%edx
   1177e:	48 8d 35 db 32 00 00 	lea    0x32db(%rip),%rsi        # 14a60 <g_1899+0x19e0>
   11785:	48 89 cf             	mov    %rcx,%rdi
   11788:	e8 66 5f ff ff       	callq  76f3 <transparent_crc>
   1178d:	8b 05 35 78 00 00    	mov    0x7835(%rip),%eax        # 18fc8 <g_1491>
   11793:	89 c1                	mov    %eax,%ecx
   11795:	8b 45 fc             	mov    -0x4(%rbp),%eax
   11798:	89 c2                	mov    %eax,%edx
   1179a:	48 8d 35 c6 32 00 00 	lea    0x32c6(%rip),%rsi        # 14a67 <g_1899+0x19e7>
   117a1:	48 89 cf             	mov    %rcx,%rdi
   117a4:	e8 4a 5f ff ff       	callq  76f3 <transparent_crc>
   117a9:	0f b7 05 18 78 00 00 	movzwl 0x7818(%rip),%eax        # 18fc8 <g_1491>
   117b0:	0f b7 c0             	movzwl %ax,%eax
   117b3:	8b 55 fc             	mov    -0x4(%rbp),%edx
   117b6:	48 8d 35 b4 32 00 00 	lea    0x32b4(%rip),%rsi        # 14a71 <g_1899+0x19f1>
   117bd:	48 89 c7             	mov    %rax,%rdi
   117c0:	e8 2e 5f ff ff       	callq  76f3 <transparent_crc>
   117c5:	8b 05 fd 77 00 00    	mov    0x77fd(%rip),%eax        # 18fc8 <g_1491>
   117cb:	48 98                	cltq   
   117cd:	8b 55 fc             	mov    -0x4(%rbp),%edx
   117d0:	48 8d 35 a4 32 00 00 	lea    0x32a4(%rip),%rsi        # 14a7b <g_1899+0x19fb>
   117d7:	48 89 c7             	mov    %rax,%rdi
   117da:	e8 14 5f ff ff       	callq  76f3 <transparent_crc>
   117df:	c7 45 f0 00 00 00 00 	movl   $0x0,-0x10(%rbp)
   117e6:	e9 05 02 00 00       	jmpq   119f0 <main+0x4e80>
   117eb:	8b 45 f0             	mov    -0x10(%rbp),%eax
   117ee:	48 63 d0             	movslq %eax,%rdx
   117f1:	48 89 d0             	mov    %rdx,%rax
   117f4:	48 01 c0             	add    %rax,%rax
   117f7:	48 01 d0             	add    %rdx,%rax
   117fa:	48 c1 e0 02          	shl    $0x2,%rax
   117fe:	48 89 c2             	mov    %rax,%rdx
   11801:	48 8d 05 d8 77 00 00 	lea    0x77d8(%rip),%rax        # 18fe0 <g_1518>
   11808:	0f b6 04 02          	movzbl (%rdx,%rax,1),%eax
   1180c:	c1 e0 05             	shl    $0x5,%eax
   1180f:	c0 f8 05             	sar    $0x5,%al
   11812:	48 0f be c0          	movsbq %al,%rax
   11816:	8b 55 fc             	mov    -0x4(%rbp),%edx
   11819:	48 8d 35 65 32 00 00 	lea    0x3265(%rip),%rsi        # 14a85 <g_1899+0x1a05>
   11820:	48 89 c7             	mov    %rax,%rdi
   11823:	e8 cb 5e ff ff       	callq  76f3 <transparent_crc>
   11828:	8b 45 f0             	mov    -0x10(%rbp),%eax
   1182b:	48 63 d0             	movslq %eax,%rdx
   1182e:	48 89 d0             	mov    %rdx,%rax
   11831:	48 01 c0             	add    %rax,%rax
   11834:	48 01 d0             	add    %rdx,%rax
   11837:	48 c1 e0 02          	shl    $0x2,%rax
   1183b:	48 89 c2             	mov    %rax,%rdx
   1183e:	48 8d 05 9b 77 00 00 	lea    0x779b(%rip),%rax        # 18fe0 <g_1518>
   11845:	0f b6 04 02          	movzbl (%rdx,%rax,1),%eax
   11849:	c0 e8 03             	shr    $0x3,%al
   1184c:	0f b6 c0             	movzbl %al,%eax
   1184f:	8b 55 fc             	mov    -0x4(%rbp),%edx
   11852:	48 8d 35 39 32 00 00 	lea    0x3239(%rip),%rsi        # 14a92 <g_1899+0x1a12>
   11859:	48 89 c7             	mov    %rax,%rdi
   1185c:	e8 92 5e ff ff       	callq  76f3 <transparent_crc>
   11861:	8b 45 f0             	mov    -0x10(%rbp),%eax
   11864:	48 63 d0             	movslq %eax,%rdx
   11867:	48 89 d0             	mov    %rdx,%rax
   1186a:	48 01 c0             	add    %rax,%rax
   1186d:	48 01 d0             	add    %rdx,%rax
   11870:	48 c1 e0 02          	shl    $0x2,%rax
   11874:	48 89 c2             	mov    %rax,%rdx
   11877:	48 8d 05 62 77 00 00 	lea    0x7762(%rip),%rax        # 18fe0 <g_1518>
   1187e:	8b 04 02             	mov    (%rdx,%rax,1),%eax
   11881:	c1 e0 0c             	shl    $0xc,%eax
   11884:	c1 f8 14             	sar    $0x14,%eax
   11887:	48 0f bf c0          	movswq %ax,%rax
   1188b:	8b 55 fc             	mov    -0x4(%rbp),%edx
   1188e:	48 8d 35 0a 32 00 00 	lea    0x320a(%rip),%rsi        # 14a9f <g_1899+0x1a1f>
   11895:	48 89 c7             	mov    %rax,%rdi
   11898:	e8 56 5e ff ff       	callq  76f3 <transparent_crc>
   1189d:	8b 45 f0             	mov    -0x10(%rbp),%eax
   118a0:	48 63 d0             	movslq %eax,%rdx
   118a3:	48 89 d0             	mov    %rdx,%rax
   118a6:	48 01 c0             	add    %rax,%rax
   118a9:	48 01 d0             	add    %rdx,%rax
   118ac:	48 c1 e0 02          	shl    $0x2,%rax
   118b0:	48 89 c2             	mov    %rax,%rdx
   118b3:	48 8d 05 26 77 00 00 	lea    0x7726(%rip),%rax        # 18fe0 <g_1518>
   118ba:	0f b7 44 02 02       	movzwl 0x2(%rdx,%rax,1),%eax
   118bf:	66 c1 e8 04          	shr    $0x4,%ax
   118c3:	66 25 ff 01          	and    $0x1ff,%ax
   118c7:	0f b7 c0             	movzwl %ax,%eax
   118ca:	8b 55 fc             	mov    -0x4(%rbp),%edx
   118cd:	48 8d 35 d8 31 00 00 	lea    0x31d8(%rip),%rsi        # 14aac <g_1899+0x1a2c>
   118d4:	48 89 c7             	mov    %rax,%rdi
   118d7:	e8 17 5e ff ff       	callq  76f3 <transparent_crc>
   118dc:	8b 45 f0             	mov    -0x10(%rbp),%eax
   118df:	48 63 d0             	movslq %eax,%rdx
   118e2:	48 89 d0             	mov    %rdx,%rax
   118e5:	48 01 c0             	add    %rax,%rax
   118e8:	48 01 d0             	add    %rdx,%rax
   118eb:	48 c1 e0 02          	shl    $0x2,%rax
   118ef:	48 89 c2             	mov    %rax,%rdx
   118f2:	48 8d 05 e7 76 00 00 	lea    0x76e7(%rip),%rax        # 18fe0 <g_1518>
   118f9:	8b 44 02 04          	mov    0x4(%rdx,%rax,1),%eax
   118fd:	c1 e0 0c             	shl    $0xc,%eax
   11900:	c1 f8 0c             	sar    $0xc,%eax
   11903:	48 98                	cltq   
   11905:	8b 55 fc             	mov    -0x4(%rbp),%edx
   11908:	48 8d 35 aa 31 00 00 	lea    0x31aa(%rip),%rsi        # 14ab9 <g_1899+0x1a39>
   1190f:	48 89 c7             	mov    %rax,%rdi
   11912:	e8 dc 5d ff ff       	callq  76f3 <transparent_crc>
   11917:	8b 45 f0             	mov    -0x10(%rbp),%eax
   1191a:	48 63 d0             	movslq %eax,%rdx
   1191d:	48 89 d0             	mov    %rdx,%rax
   11920:	48 01 c0             	add    %rax,%rax
   11923:	48 01 d0             	add    %rdx,%rax
   11926:	48 c1 e0 02          	shl    $0x2,%rax
   1192a:	48 89 c2             	mov    %rax,%rdx
   1192d:	48 8d 05 ac 76 00 00 	lea    0x76ac(%rip),%rax        # 18fe0 <g_1518>
   11934:	8b 44 02 04          	mov    0x4(%rdx,%rax,1),%eax
   11938:	c1 e0 06             	shl    $0x6,%eax
   1193b:	c1 f8 1a             	sar    $0x1a,%eax
   1193e:	48 0f be c0          	movsbq %al,%rax
   11942:	8b 55 fc             	mov    -0x4(%rbp),%edx
   11945:	48 8d 35 7a 31 00 00 	lea    0x317a(%rip),%rsi        # 14ac6 <g_1899+0x1a46>
   1194c:	48 89 c7             	mov    %rax,%rdi
   1194f:	e8 9f 5d ff ff       	callq  76f3 <transparent_crc>
   11954:	8b 45 f0             	mov    -0x10(%rbp),%eax
   11957:	48 63 d0             	movslq %eax,%rdx
   1195a:	48 89 d0             	mov    %rdx,%rax
   1195d:	48 01 c0             	add    %rax,%rax
   11960:	48 01 d0             	add    %rdx,%rax
   11963:	48 c1 e0 02          	shl    $0x2,%rax
   11967:	48 89 c2             	mov    %rax,%rdx
   1196a:	48 8d 05 6f 76 00 00 	lea    0x766f(%rip),%rax        # 18fe0 <g_1518>
   11971:	0f b7 44 02 08       	movzwl 0x8(%rdx,%rax,1),%eax
   11976:	c1 e0 04             	shl    $0x4,%eax
   11979:	66 c1 f8 04          	sar    $0x4,%ax
   1197d:	48 0f bf c0          	movswq %ax,%rax
   11981:	8b 55 fc             	mov    -0x4(%rbp),%edx
   11984:	48 8d 35 48 31 00 00 	lea    0x3148(%rip),%rsi        # 14ad3 <g_1899+0x1a53>
   1198b:	48 89 c7             	mov    %rax,%rdi
   1198e:	e8 60 5d ff ff       	callq  76f3 <transparent_crc>
   11993:	8b 45 f0             	mov    -0x10(%rbp),%eax
   11996:	48 63 d0             	movslq %eax,%rdx
   11999:	48 89 d0             	mov    %rdx,%rax
   1199c:	48 01 c0             	add    %rax,%rax
   1199f:	48 01 d0             	add    %rdx,%rax
   119a2:	48 c1 e0 02          	shl    $0x2,%rax
   119a6:	48 89 c2             	mov    %rax,%rdx
   119a9:	48 8d 05 30 76 00 00 	lea    0x7630(%rip),%rax        # 18fe0 <g_1518>
   119b0:	8b 44 02 08          	mov    0x8(%rdx,%rax,1),%eax
   119b4:	c1 e0 0f             	shl    $0xf,%eax
   119b7:	c1 f8 1b             	sar    $0x1b,%eax
   119ba:	48 0f be c0          	movsbq %al,%rax
   119be:	8b 55 fc             	mov    -0x4(%rbp),%edx
   119c1:	48 8d 35 18 31 00 00 	lea    0x3118(%rip),%rsi        # 14ae0 <g_1899+0x1a60>
   119c8:	48 89 c7             	mov    %rax,%rdi
   119cb:	e8 23 5d ff ff       	callq  76f3 <transparent_crc>
   119d0:	83 7d fc 00          	cmpl   $0x0,-0x4(%rbp)
   119d4:	74 16                	je     119ec <main+0x4e7c>
   119d6:	8b 45 f0             	mov    -0x10(%rbp),%eax
   119d9:	89 c6                	mov    %eax,%esi
   119db:	48 8d 3d ab 1b 00 00 	lea    0x1bab(%rip),%rdi        # 1358d <g_1899+0x50d>
   119e2:	b8 00 00 00 00       	mov    $0x0,%eax
   119e7:	e8 94 46 ff ff       	callq  6080 <printf@plt>
   119ec:	83 45 f0 01          	addl   $0x1,-0x10(%rbp)
   119f0:	83 7d f0 02          	cmpl   $0x2,-0x10(%rbp)
   119f4:	0f 8e f1 fd ff ff    	jle    117eb <main+0x4c7b>
   119fa:	0f b6 05 03 76 00 00 	movzbl 0x7603(%rip),%eax        # 19004 <g_1531>
   11a01:	0f b6 c0             	movzbl %al,%eax
   11a04:	8b 55 fc             	mov    -0x4(%rbp),%edx
   11a07:	48 8d 35 df 30 00 00 	lea    0x30df(%rip),%rsi        # 14aed <g_1899+0x1a6d>
   11a0e:	48 89 c7             	mov    %rax,%rdi
   11a11:	e8 dd 5c ff ff       	callq  76f3 <transparent_crc>
   11a16:	8b 05 ec 75 00 00    	mov    0x75ec(%rip),%eax        # 19008 <g_1547>
   11a1c:	89 c1                	mov    %eax,%ecx
   11a1e:	8b 45 fc             	mov    -0x4(%rbp),%eax
   11a21:	89 c2                	mov    %eax,%edx
   11a23:	48 8d 35 ca 30 00 00 	lea    0x30ca(%rip),%rsi        # 14af4 <g_1899+0x1a74>
   11a2a:	48 89 cf             	mov    %rcx,%rdi
   11a2d:	e8 c1 5c ff ff       	callq  76f3 <transparent_crc>
   11a32:	0f b7 05 cf 75 00 00 	movzwl 0x75cf(%rip),%eax        # 19008 <g_1547>
   11a39:	0f b7 c0             	movzwl %ax,%eax
   11a3c:	8b 55 fc             	mov    -0x4(%rbp),%edx
   11a3f:	48 8d 35 b8 30 00 00 	lea    0x30b8(%rip),%rsi        # 14afe <g_1899+0x1a7e>
   11a46:	48 89 c7             	mov    %rax,%rdi
   11a49:	e8 a5 5c ff ff       	callq  76f3 <transparent_crc>
   11a4e:	8b 05 b4 75 00 00    	mov    0x75b4(%rip),%eax        # 19008 <g_1547>
   11a54:	48 98                	cltq   
   11a56:	8b 55 fc             	mov    -0x4(%rbp),%edx
   11a59:	48 8d 35 a8 30 00 00 	lea    0x30a8(%rip),%rsi        # 14b08 <g_1899+0x1a88>
   11a60:	48 89 c7             	mov    %rax,%rdi
   11a63:	e8 8b 5c ff ff       	callq  76f3 <transparent_crc>
   11a68:	48 8b 05 a1 75 00 00 	mov    0x75a1(%rip),%rax        # 19010 <g_1558>
   11a6f:	c1 e0 05             	shl    $0x5,%eax
   11a72:	c1 f8 05             	sar    $0x5,%eax
   11a75:	48 98                	cltq   
   11a77:	8b 55 fc             	mov    -0x4(%rbp),%edx
   11a7a:	48 8d 35 91 30 00 00 	lea    0x3091(%rip),%rsi        # 14b12 <g_1899+0x1a92>
   11a81:	48 89 c7             	mov    %rax,%rdi
   11a84:	e8 6a 5c ff ff       	callq  76f3 <transparent_crc>
   11a89:	8b 05 85 75 00 00    	mov    0x7585(%rip),%eax        # 19014 <g_1558+0x4>
   11a8f:	89 c1                	mov    %eax,%ecx
   11a91:	8b 45 fc             	mov    -0x4(%rbp),%eax
   11a94:	89 c2                	mov    %eax,%edx
   11a96:	48 8d 35 7f 30 00 00 	lea    0x307f(%rip),%rsi        # 14b1c <g_1899+0x1a9c>
   11a9d:	48 89 cf             	mov    %rcx,%rdi
   11aa0:	e8 4e 5c ff ff       	callq  76f3 <transparent_crc>
   11aa5:	48 8b 05 6c 75 00 00 	mov    0x756c(%rip),%rax        # 19018 <g_1558+0x8>
   11aac:	c1 e0 02             	shl    $0x2,%eax
   11aaf:	c0 f8 02             	sar    $0x2,%al
   11ab2:	48 0f be c0          	movsbq %al,%rax
   11ab6:	8b 55 fc             	mov    -0x4(%rbp),%edx
   11ab9:	48 8d 35 66 30 00 00 	lea    0x3066(%rip),%rsi        # 14b26 <g_1899+0x1aa6>
   11ac0:	48 89 c7             	mov    %rax,%rdi
   11ac3:	e8 2b 5c ff ff       	callq  76f3 <transparent_crc>
   11ac8:	0f b6 05 4a 75 00 00 	movzbl 0x754a(%rip),%eax        # 19019 <g_1558+0x9>
   11acf:	0f b6 c0             	movzbl %al,%eax
   11ad2:	8b 55 fc             	mov    -0x4(%rbp),%edx
   11ad5:	48 8d 35 54 30 00 00 	lea    0x3054(%rip),%rsi        # 14b30 <g_1899+0x1ab0>
   11adc:	48 89 c7             	mov    %rax,%rdi
   11adf:	e8 0f 5c ff ff       	callq  76f3 <transparent_crc>
   11ae4:	48 8b 05 2d 75 00 00 	mov    0x752d(%rip),%rax        # 19018 <g_1558+0x8>
   11aeb:	48 c1 e8 10          	shr    $0x10,%rax
   11aef:	25 ff ff ff 3f       	and    $0x3fffffff,%eax
   11af4:	89 c1                	mov    %eax,%ecx
   11af6:	8b 45 fc             	mov    -0x4(%rbp),%eax
   11af9:	89 c2                	mov    %eax,%edx
   11afb:	48 8d 35 38 30 00 00 	lea    0x3038(%rip),%rsi        # 14b3a <g_1899+0x1aba>
   11b02:	48 89 cf             	mov    %rcx,%rdi
   11b05:	e8 e9 5b ff ff       	callq  76f3 <transparent_crc>
   11b0a:	48 8b 05 07 75 00 00 	mov    0x7507(%rip),%rax        # 19018 <g_1558+0x8>
   11b11:	48 c1 e8 2e          	shr    $0x2e,%rax
   11b15:	66 25 ff 01          	and    $0x1ff,%ax
   11b19:	0f b7 c0             	movzwl %ax,%eax
   11b1c:	8b 55 fc             	mov    -0x4(%rbp),%edx
   11b1f:	48 8d 35 1e 30 00 00 	lea    0x301e(%rip),%rsi        # 14b44 <g_1899+0x1ac4>
   11b26:	48 89 c7             	mov    %rax,%rdi
   11b29:	e8 c5 5b ff ff       	callq  76f3 <transparent_crc>
   11b2e:	48 8b 05 e3 74 00 00 	mov    0x74e3(%rip),%rax        # 19018 <g_1558+0x8>
   11b35:	48 c1 f8 37          	sar    $0x37,%rax
   11b39:	48 0f bf c0          	movswq %ax,%rax
   11b3d:	8b 55 fc             	mov    -0x4(%rbp),%edx
   11b40:	48 8d 35 07 30 00 00 	lea    0x3007(%rip),%rsi        # 14b4e <g_1899+0x1ace>
   11b47:	48 89 c7             	mov    %rax,%rdi
   11b4a:	e8 a4 5b ff ff       	callq  76f3 <transparent_crc>
   11b4f:	48 8b 05 ca 74 00 00 	mov    0x74ca(%rip),%rax        # 19020 <g_1558+0x10>
   11b56:	25 ff ff ff 3f       	and    $0x3fffffff,%eax
   11b5b:	89 c1                	mov    %eax,%ecx
   11b5d:	8b 45 fc             	mov    -0x4(%rbp),%eax
   11b60:	89 c2                	mov    %eax,%edx
   11b62:	48 8d 35 ef 2f 00 00 	lea    0x2fef(%rip),%rsi        # 14b58 <g_1899+0x1ad8>
   11b69:	48 89 cf             	mov    %rcx,%rdi
   11b6c:	e8 82 5b ff ff       	callq  76f3 <transparent_crc>
   11b71:	0f b6 05 b0 74 00 00 	movzbl 0x74b0(%rip),%eax        # 19028 <g_1561>
   11b78:	c1 e0 05             	shl    $0x5,%eax
   11b7b:	c0 f8 05             	sar    $0x5,%al
   11b7e:	48 0f be c0          	movsbq %al,%rax
   11b82:	8b 55 fc             	mov    -0x4(%rbp),%edx
   11b85:	48 8d 35 d6 2f 00 00 	lea    0x2fd6(%rip),%rsi        # 14b62 <g_1899+0x1ae2>
   11b8c:	48 89 c7             	mov    %rax,%rdi
   11b8f:	e8 5f 5b ff ff       	callq  76f3 <transparent_crc>
   11b94:	0f b6 05 8d 74 00 00 	movzbl 0x748d(%rip),%eax        # 19028 <g_1561>
   11b9b:	c0 e8 03             	shr    $0x3,%al
   11b9e:	0f b6 c0             	movzbl %al,%eax
   11ba1:	8b 55 fc             	mov    -0x4(%rbp),%edx
   11ba4:	48 8d 35 c1 2f 00 00 	lea    0x2fc1(%rip),%rsi        # 14b6c <g_1899+0x1aec>
   11bab:	48 89 c7             	mov    %rax,%rdi
   11bae:	e8 40 5b ff ff       	callq  76f3 <transparent_crc>
   11bb3:	8b 05 6f 74 00 00    	mov    0x746f(%rip),%eax        # 19028 <g_1561>
   11bb9:	c1 e0 0c             	shl    $0xc,%eax
   11bbc:	c1 f8 14             	sar    $0x14,%eax
   11bbf:	48 0f bf c0          	movswq %ax,%rax
   11bc3:	8b 55 fc             	mov    -0x4(%rbp),%edx
   11bc6:	48 8d 35 a9 2f 00 00 	lea    0x2fa9(%rip),%rsi        # 14b76 <g_1899+0x1af6>
   11bcd:	48 89 c7             	mov    %rax,%rdi
   11bd0:	e8 1e 5b ff ff       	callq  76f3 <transparent_crc>
   11bd5:	0f b7 05 4e 74 00 00 	movzwl 0x744e(%rip),%eax        # 1902a <g_1561+0x2>
   11bdc:	66 c1 e8 04          	shr    $0x4,%ax
   11be0:	66 25 ff 01          	and    $0x1ff,%ax
   11be4:	0f b7 c0             	movzwl %ax,%eax
   11be7:	8b 55 fc             	mov    -0x4(%rbp),%edx
   11bea:	48 8d 35 8f 2f 00 00 	lea    0x2f8f(%rip),%rsi        # 14b80 <g_1899+0x1b00>
   11bf1:	48 89 c7             	mov    %rax,%rdi
   11bf4:	e8 fa 5a ff ff       	callq  76f3 <transparent_crc>
   11bf9:	8b 05 2d 74 00 00    	mov    0x742d(%rip),%eax        # 1902c <g_1561+0x4>
   11bff:	c1 e0 0c             	shl    $0xc,%eax
   11c02:	c1 f8 0c             	sar    $0xc,%eax
   11c05:	48 98                	cltq   
   11c07:	8b 55 fc             	mov    -0x4(%rbp),%edx
   11c0a:	48 8d 35 79 2f 00 00 	lea    0x2f79(%rip),%rsi        # 14b8a <g_1899+0x1b0a>
   11c11:	48 89 c7             	mov    %rax,%rdi
   11c14:	e8 da 5a ff ff       	callq  76f3 <transparent_crc>
   11c19:	48 8b 05 08 74 00 00 	mov    0x7408(%rip),%rax        # 19028 <g_1561>
   11c20:	48 c1 e0 06          	shl    $0x6,%rax
   11c24:	48 c1 f8 3a          	sar    $0x3a,%rax
   11c28:	48 0f be c0          	movsbq %al,%rax
   11c2c:	8b 55 fc             	mov    -0x4(%rbp),%edx
   11c2f:	48 8d 35 5e 2f 00 00 	lea    0x2f5e(%rip),%rsi        # 14b94 <g_1899+0x1b14>
   11c36:	48 89 c7             	mov    %rax,%rdi
   11c39:	e8 b5 5a ff ff       	callq  76f3 <transparent_crc>
   11c3e:	0f b7 05 eb 73 00 00 	movzwl 0x73eb(%rip),%eax        # 19030 <g_1561+0x8>
   11c45:	c1 e0 04             	shl    $0x4,%eax
   11c48:	66 c1 f8 04          	sar    $0x4,%ax
   11c4c:	48 0f bf c0          	movswq %ax,%rax
   11c50:	8b 55 fc             	mov    -0x4(%rbp),%edx
   11c53:	48 8d 35 44 2f 00 00 	lea    0x2f44(%rip),%rsi        # 14b9e <g_1899+0x1b1e>
   11c5a:	48 89 c7             	mov    %rax,%rdi
   11c5d:	e8 91 5a ff ff       	callq  76f3 <transparent_crc>
   11c62:	8b 05 c8 73 00 00    	mov    0x73c8(%rip),%eax        # 19030 <g_1561+0x8>
   11c68:	c1 e0 0f             	shl    $0xf,%eax
   11c6b:	c1 f8 1b             	sar    $0x1b,%eax
   11c6e:	48 0f be c0          	movsbq %al,%rax
   11c72:	8b 55 fc             	mov    -0x4(%rbp),%edx
   11c75:	48 8d 35 2c 2f 00 00 	lea    0x2f2c(%rip),%rsi        # 14ba8 <g_1899+0x1b28>
   11c7c:	48 89 c7             	mov    %rax,%rdi
   11c7f:	e8 6f 5a ff ff       	callq  76f3 <transparent_crc>
   11c84:	8b 05 ae 73 00 00    	mov    0x73ae(%rip),%eax        # 19038 <g_1575>
   11c8a:	89 c1                	mov    %eax,%ecx
   11c8c:	8b 45 fc             	mov    -0x4(%rbp),%eax
   11c8f:	89 c2                	mov    %eax,%edx
   11c91:	48 8d 35 1a 2f 00 00 	lea    0x2f1a(%rip),%rsi        # 14bb2 <g_1899+0x1b32>
   11c98:	48 89 cf             	mov    %rcx,%rdi
   11c9b:	e8 53 5a ff ff       	callq  76f3 <transparent_crc>
   11ca0:	0f b7 05 91 73 00 00 	movzwl 0x7391(%rip),%eax        # 19038 <g_1575>
   11ca7:	0f b7 c0             	movzwl %ax,%eax
   11caa:	8b 55 fc             	mov    -0x4(%rbp),%edx
   11cad:	48 8d 35 08 2f 00 00 	lea    0x2f08(%rip),%rsi        # 14bbc <g_1899+0x1b3c>
   11cb4:	48 89 c7             	mov    %rax,%rdi
   11cb7:	e8 37 5a ff ff       	callq  76f3 <transparent_crc>
   11cbc:	8b 05 76 73 00 00    	mov    0x7376(%rip),%eax        # 19038 <g_1575>
   11cc2:	48 98                	cltq   
   11cc4:	8b 55 fc             	mov    -0x4(%rbp),%edx
   11cc7:	48 8d 35 f8 2e 00 00 	lea    0x2ef8(%rip),%rsi        # 14bc6 <g_1899+0x1b46>
   11cce:	48 89 c7             	mov    %rax,%rdi
   11cd1:	e8 1d 5a ff ff       	callq  76f3 <transparent_crc>
   11cd6:	c7 45 f0 00 00 00 00 	movl   $0x0,-0x10(%rbp)
   11cdd:	e9 a5 00 00 00       	jmpq   11d87 <main+0x5217>
   11ce2:	8b 45 f0             	mov    -0x10(%rbp),%eax
   11ce5:	48 98                	cltq   
   11ce7:	48 8d 14 c5 00 00 00 	lea    0x0(,%rax,8),%rdx
   11cee:	00 
   11cef:	48 8d 05 4a 73 00 00 	lea    0x734a(%rip),%rax        # 19040 <g_1578>
   11cf6:	8b 04 02             	mov    (%rdx,%rax,1),%eax
   11cf9:	89 c1                	mov    %eax,%ecx
   11cfb:	8b 45 fc             	mov    -0x4(%rbp),%eax
   11cfe:	89 c2                	mov    %eax,%edx
   11d00:	48 8d 35 c9 2e 00 00 	lea    0x2ec9(%rip),%rsi        # 14bd0 <g_1899+0x1b50>
   11d07:	48 89 cf             	mov    %rcx,%rdi
   11d0a:	e8 e4 59 ff ff       	callq  76f3 <transparent_crc>
   11d0f:	8b 45 f0             	mov    -0x10(%rbp),%eax
   11d12:	48 98                	cltq   
   11d14:	48 8d 14 c5 00 00 00 	lea    0x0(,%rax,8),%rdx
   11d1b:	00 
   11d1c:	48 8d 05 1d 73 00 00 	lea    0x731d(%rip),%rax        # 19040 <g_1578>
   11d23:	0f b7 04 02          	movzwl (%rdx,%rax,1),%eax
   11d27:	0f b7 c0             	movzwl %ax,%eax
   11d2a:	8b 55 fc             	mov    -0x4(%rbp),%edx
   11d2d:	48 8d 35 a9 2e 00 00 	lea    0x2ea9(%rip),%rsi        # 14bdd <g_1899+0x1b5d>
   11d34:	48 89 c7             	mov    %rax,%rdi
   11d37:	e8 b7 59 ff ff       	callq  76f3 <transparent_crc>
   11d3c:	8b 45 f0             	mov    -0x10(%rbp),%eax
   11d3f:	48 98                	cltq   
   11d41:	48 8d 14 c5 00 00 00 	lea    0x0(,%rax,8),%rdx
   11d48:	00 
   11d49:	48 8d 05 f0 72 00 00 	lea    0x72f0(%rip),%rax        # 19040 <g_1578>
   11d50:	8b 04 02             	mov    (%rdx,%rax,1),%eax
   11d53:	48 98                	cltq   
   11d55:	8b 55 fc             	mov    -0x4(%rbp),%edx
   11d58:	48 8d 35 8b 2e 00 00 	lea    0x2e8b(%rip),%rsi        # 14bea <g_1899+0x1b6a>
   11d5f:	48 89 c7             	mov    %rax,%rdi
   11d62:	e8 8c 59 ff ff       	callq  76f3 <transparent_crc>
   11d67:	83 7d fc 00          	cmpl   $0x0,-0x4(%rbp)
   11d6b:	74 16                	je     11d83 <main+0x5213>
   11d6d:	8b 45 f0             	mov    -0x10(%rbp),%eax
   11d70:	89 c6                	mov    %eax,%esi
   11d72:	48 8d 3d 14 18 00 00 	lea    0x1814(%rip),%rdi        # 1358d <g_1899+0x50d>
   11d79:	b8 00 00 00 00       	mov    $0x0,%eax
   11d7e:	e8 fd 42 ff ff       	callq  6080 <printf@plt>
   11d83:	83 45 f0 01          	addl   $0x1,-0x10(%rbp)
   11d87:	83 7d f0 02          	cmpl   $0x2,-0x10(%rbp)
   11d8b:	0f 8e 51 ff ff ff    	jle    11ce2 <main+0x5172>
   11d91:	48 8b 05 c8 72 00 00 	mov    0x72c8(%rip),%rax        # 19060 <g_1618>
   11d98:	c1 e0 05             	shl    $0x5,%eax
   11d9b:	c1 f8 05             	sar    $0x5,%eax
   11d9e:	48 98                	cltq   
   11da0:	8b 55 fc             	mov    -0x4(%rbp),%edx
   11da3:	48 8d 35 4d 2e 00 00 	lea    0x2e4d(%rip),%rsi        # 14bf7 <g_1899+0x1b77>
   11daa:	48 89 c7             	mov    %rax,%rdi
   11dad:	e8 41 59 ff ff       	callq  76f3 <transparent_crc>
   11db2:	8b 05 ac 72 00 00    	mov    0x72ac(%rip),%eax        # 19064 <g_1618+0x4>
   11db8:	89 c1                	mov    %eax,%ecx
   11dba:	8b 45 fc             	mov    -0x4(%rbp),%eax
   11dbd:	89 c2                	mov    %eax,%edx
   11dbf:	48 8d 35 41 2e 00 00 	lea    0x2e41(%rip),%rsi        # 14c07 <g_1899+0x1b87>
   11dc6:	48 89 cf             	mov    %rcx,%rdi
   11dc9:	e8 25 59 ff ff       	callq  76f3 <transparent_crc>
   11dce:	48 8b 05 93 72 00 00 	mov    0x7293(%rip),%rax        # 19068 <g_1618+0x8>
   11dd5:	c1 e0 02             	shl    $0x2,%eax
   11dd8:	c0 f8 02             	sar    $0x2,%al
   11ddb:	48 0f be c0          	movsbq %al,%rax
   11ddf:	8b 55 fc             	mov    -0x4(%rbp),%edx
   11de2:	48 8d 35 2e 2e 00 00 	lea    0x2e2e(%rip),%rsi        # 14c17 <g_1899+0x1b97>
   11de9:	48 89 c7             	mov    %rax,%rdi
   11dec:	e8 02 59 ff ff       	callq  76f3 <transparent_crc>
   11df1:	0f b6 05 71 72 00 00 	movzbl 0x7271(%rip),%eax        # 19069 <g_1618+0x9>
   11df8:	0f b6 c0             	movzbl %al,%eax
   11dfb:	8b 55 fc             	mov    -0x4(%rbp),%edx
   11dfe:	48 8d 35 22 2e 00 00 	lea    0x2e22(%rip),%rsi        # 14c27 <g_1899+0x1ba7>
   11e05:	48 89 c7             	mov    %rax,%rdi
   11e08:	e8 e6 58 ff ff       	callq  76f3 <transparent_crc>
   11e0d:	48 8b 05 54 72 00 00 	mov    0x7254(%rip),%rax        # 19068 <g_1618+0x8>
   11e14:	48 c1 e8 10          	shr    $0x10,%rax
   11e18:	25 ff ff ff 3f       	and    $0x3fffffff,%eax
   11e1d:	89 c1                	mov    %eax,%ecx
   11e1f:	8b 45 fc             	mov    -0x4(%rbp),%eax
   11e22:	89 c2                	mov    %eax,%edx
   11e24:	48 8d 35 0c 2e 00 00 	lea    0x2e0c(%rip),%rsi        # 14c37 <g_1899+0x1bb7>
   11e2b:	48 89 cf             	mov    %rcx,%rdi
   11e2e:	e8 c0 58 ff ff       	callq  76f3 <transparent_crc>
   11e33:	48 8b 05 2e 72 00 00 	mov    0x722e(%rip),%rax        # 19068 <g_1618+0x8>
   11e3a:	48 c1 e8 2e          	shr    $0x2e,%rax
   11e3e:	66 25 ff 01          	and    $0x1ff,%ax
   11e42:	0f b7 c0             	movzwl %ax,%eax
   11e45:	8b 55 fc             	mov    -0x4(%rbp),%edx
   11e48:	48 8d 35 f8 2d 00 00 	lea    0x2df8(%rip),%rsi        # 14c47 <g_1899+0x1bc7>
   11e4f:	48 89 c7             	mov    %rax,%rdi
   11e52:	e8 9c 58 ff ff       	callq  76f3 <transparent_crc>
   11e57:	48 8b 05 0a 72 00 00 	mov    0x720a(%rip),%rax        # 19068 <g_1618+0x8>
   11e5e:	48 c1 f8 37          	sar    $0x37,%rax
   11e62:	48 0f bf c0          	movswq %ax,%rax
   11e66:	8b 55 fc             	mov    -0x4(%rbp),%edx
   11e69:	48 8d 35 e7 2d 00 00 	lea    0x2de7(%rip),%rsi        # 14c57 <g_1899+0x1bd7>
   11e70:	48 89 c7             	mov    %rax,%rdi
   11e73:	e8 7b 58 ff ff       	callq  76f3 <transparent_crc>
   11e78:	48 8b 05 f1 71 00 00 	mov    0x71f1(%rip),%rax        # 19070 <g_1618+0x10>
   11e7f:	25 ff ff ff 3f       	and    $0x3fffffff,%eax
   11e84:	89 c1                	mov    %eax,%ecx
   11e86:	8b 45 fc             	mov    -0x4(%rbp),%eax
   11e89:	89 c2                	mov    %eax,%edx
   11e8b:	48 8d 35 d5 2d 00 00 	lea    0x2dd5(%rip),%rsi        # 14c67 <g_1899+0x1be7>
   11e92:	48 89 cf             	mov    %rcx,%rdi
   11e95:	e8 59 58 ff ff       	callq  76f3 <transparent_crc>
   11e9a:	0f b6 05 d3 71 00 00 	movzbl 0x71d3(%rip),%eax        # 19074 <g_1618+0x14>
   11ea1:	48 0f be c0          	movsbq %al,%rax
   11ea5:	8b 55 fc             	mov    -0x4(%rbp),%edx
   11ea8:	48 8d 35 c8 2d 00 00 	lea    0x2dc8(%rip),%rsi        # 14c77 <g_1899+0x1bf7>
   11eaf:	48 89 c7             	mov    %rax,%rdi
   11eb2:	e8 3c 58 ff ff       	callq  76f3 <transparent_crc>
   11eb7:	48 8b 05 b2 71 00 00 	mov    0x71b2(%rip),%rax        # 19070 <g_1618+0x10>
   11ebe:	48 c1 e0 0f          	shl    $0xf,%rax
   11ec2:	48 c1 f8 37          	sar    $0x37,%rax
   11ec6:	48 0f bf c0          	movswq %ax,%rax
   11eca:	8b 55 fc             	mov    -0x4(%rbp),%edx
   11ecd:	48 8d 35 ad 2d 00 00 	lea    0x2dad(%rip),%rsi        # 14c81 <g_1899+0x1c01>
   11ed4:	48 89 c7             	mov    %rax,%rdi
   11ed7:	e8 17 58 ff ff       	callq  76f3 <transparent_crc>
   11edc:	0f b7 05 95 71 00 00 	movzwl 0x7195(%rip),%eax        # 19078 <g_1618+0x18>
   11ee3:	48 0f bf c0          	movswq %ax,%rax
   11ee7:	8b 55 fc             	mov    -0x4(%rbp),%edx
   11eea:	48 8d 35 9a 2d 00 00 	lea    0x2d9a(%rip),%rsi        # 14c8b <g_1899+0x1c0b>
   11ef1:	48 89 c7             	mov    %rax,%rdi
   11ef4:	e8 fa 57 ff ff       	callq  76f3 <transparent_crc>
   11ef9:	0f b6 05 7a 71 00 00 	movzbl 0x717a(%rip),%eax        # 1907a <g_1618+0x1a>
   11f00:	48 0f be c0          	movsbq %al,%rax
   11f04:	8b 55 fc             	mov    -0x4(%rbp),%edx
   11f07:	48 8d 35 87 2d 00 00 	lea    0x2d87(%rip),%rsi        # 14c95 <g_1899+0x1c15>
   11f0e:	48 89 c7             	mov    %rax,%rdi
   11f11:	e8 dd 57 ff ff       	callq  76f3 <transparent_crc>
   11f16:	0f b6 05 5e 71 00 00 	movzbl 0x715e(%rip),%eax        # 1907b <g_1618+0x1b>
   11f1d:	48 0f be c0          	movsbq %al,%rax
   11f21:	8b 55 fc             	mov    -0x4(%rbp),%edx
   11f24:	48 8d 35 74 2d 00 00 	lea    0x2d74(%rip),%rsi        # 14c9f <g_1899+0x1c1f>
   11f2b:	48 89 c7             	mov    %rax,%rdi
   11f2e:	e8 c0 57 ff ff       	callq  76f3 <transparent_crc>
   11f33:	8b 05 43 71 00 00    	mov    0x7143(%rip),%eax        # 1907c <g_1618+0x1c>
   11f39:	89 c1                	mov    %eax,%ecx
   11f3b:	8b 45 fc             	mov    -0x4(%rbp),%eax
   11f3e:	89 c2                	mov    %eax,%edx
   11f40:	48 8d 35 62 2d 00 00 	lea    0x2d62(%rip),%rsi        # 14ca9 <g_1899+0x1c29>
   11f47:	48 89 cf             	mov    %rcx,%rdi
   11f4a:	e8 a4 57 ff ff       	callq  76f3 <transparent_crc>
   11f4f:	0f b7 05 2a 71 00 00 	movzwl 0x712a(%rip),%eax        # 19080 <g_1618+0x20>
   11f56:	0f b7 c0             	movzwl %ax,%eax
   11f59:	8b 55 fc             	mov    -0x4(%rbp),%edx
   11f5c:	48 8d 35 50 2d 00 00 	lea    0x2d50(%rip),%rsi        # 14cb3 <g_1899+0x1c33>
   11f63:	48 89 c7             	mov    %rax,%rdi
   11f66:	e8 88 57 ff ff       	callq  76f3 <transparent_crc>
   11f6b:	0f b7 05 10 71 00 00 	movzwl 0x7110(%rip),%eax        # 19082 <g_1618+0x22>
   11f72:	48 0f bf c0          	movswq %ax,%rax
   11f76:	8b 55 fc             	mov    -0x4(%rbp),%edx
   11f79:	48 8d 35 3d 2d 00 00 	lea    0x2d3d(%rip),%rsi        # 14cbd <g_1899+0x1c3d>
   11f80:	48 89 c7             	mov    %rax,%rdi
   11f83:	e8 6b 57 ff ff       	callq  76f3 <transparent_crc>
   11f88:	48 8b 05 f1 70 00 00 	mov    0x70f1(%rip),%rax        # 19080 <g_1618+0x20>
   11f8f:	48 c1 e0 0f          	shl    $0xf,%rax
   11f93:	48 c1 f8 2f          	sar    $0x2f,%rax
   11f97:	48 98                	cltq   
   11f99:	8b 55 fc             	mov    -0x4(%rbp),%edx
   11f9c:	48 8d 35 24 2d 00 00 	lea    0x2d24(%rip),%rsi        # 14cc7 <g_1899+0x1c47>
   11fa3:	48 89 c7             	mov    %rax,%rdi
   11fa6:	e8 48 57 ff ff       	callq  76f3 <transparent_crc>
   11fab:	0f b6 05 d6 70 00 00 	movzbl 0x70d6(%rip),%eax        # 19088 <g_1658>
   11fb2:	c1 e0 05             	shl    $0x5,%eax
   11fb5:	c0 f8 05             	sar    $0x5,%al
   11fb8:	48 0f be c0          	movsbq %al,%rax
   11fbc:	8b 55 fc             	mov    -0x4(%rbp),%edx
   11fbf:	48 8d 35 0b 2d 00 00 	lea    0x2d0b(%rip),%rsi        # 14cd1 <g_1899+0x1c51>
   11fc6:	48 89 c7             	mov    %rax,%rdi
   11fc9:	e8 25 57 ff ff       	callq  76f3 <transparent_crc>
   11fce:	0f b6 05 b3 70 00 00 	movzbl 0x70b3(%rip),%eax        # 19088 <g_1658>
   11fd5:	c0 e8 03             	shr    $0x3,%al
   11fd8:	0f b6 c0             	movzbl %al,%eax
   11fdb:	8b 55 fc             	mov    -0x4(%rbp),%edx
   11fde:	48 8d 35 f6 2c 00 00 	lea    0x2cf6(%rip),%rsi        # 14cdb <g_1899+0x1c5b>
   11fe5:	48 89 c7             	mov    %rax,%rdi
   11fe8:	e8 06 57 ff ff       	callq  76f3 <transparent_crc>
   11fed:	8b 05 95 70 00 00    	mov    0x7095(%rip),%eax        # 19088 <g_1658>
   11ff3:	c1 e0 0c             	shl    $0xc,%eax
   11ff6:	c1 f8 14             	sar    $0x14,%eax
   11ff9:	48 0f bf c0          	movswq %ax,%rax
   11ffd:	8b 55 fc             	mov    -0x4(%rbp),%edx
   12000:	48 8d 35 de 2c 00 00 	lea    0x2cde(%rip),%rsi        # 14ce5 <g_1899+0x1c65>
   12007:	48 89 c7             	mov    %rax,%rdi
   1200a:	e8 e4 56 ff ff       	callq  76f3 <transparent_crc>
   1200f:	0f b7 05 74 70 00 00 	movzwl 0x7074(%rip),%eax        # 1908a <g_1658+0x2>
   12016:	66 c1 e8 04          	shr    $0x4,%ax
   1201a:	66 25 ff 01          	and    $0x1ff,%ax
   1201e:	0f b7 c0             	movzwl %ax,%eax
   12021:	8b 55 fc             	mov    -0x4(%rbp),%edx
   12024:	48 8d 35 c4 2c 00 00 	lea    0x2cc4(%rip),%rsi        # 14cef <g_1899+0x1c6f>
   1202b:	48 89 c7             	mov    %rax,%rdi
   1202e:	e8 c0 56 ff ff       	callq  76f3 <transparent_crc>
   12033:	8b 05 53 70 00 00    	mov    0x7053(%rip),%eax        # 1908c <g_1658+0x4>
   12039:	c1 e0 0c             	shl    $0xc,%eax
   1203c:	c1 f8 0c             	sar    $0xc,%eax
   1203f:	48 98                	cltq   
   12041:	8b 55 fc             	mov    -0x4(%rbp),%edx
   12044:	48 8d 35 ae 2c 00 00 	lea    0x2cae(%rip),%rsi        # 14cf9 <g_1899+0x1c79>
   1204b:	48 89 c7             	mov    %rax,%rdi
   1204e:	e8 a0 56 ff ff       	callq  76f3 <transparent_crc>
   12053:	48 8b 05 2e 70 00 00 	mov    0x702e(%rip),%rax        # 19088 <g_1658>
   1205a:	48 c1 e0 06          	shl    $0x6,%rax
   1205e:	48 c1 f8 3a          	sar    $0x3a,%rax
   12062:	48 0f be c0          	movsbq %al,%rax
   12066:	8b 55 fc             	mov    -0x4(%rbp),%edx
   12069:	48 8d 35 93 2c 00 00 	lea    0x2c93(%rip),%rsi        # 14d03 <g_1899+0x1c83>
   12070:	48 89 c7             	mov    %rax,%rdi
   12073:	e8 7b 56 ff ff       	callq  76f3 <transparent_crc>
   12078:	0f b7 05 11 70 00 00 	movzwl 0x7011(%rip),%eax        # 19090 <g_1658+0x8>
   1207f:	c1 e0 04             	shl    $0x4,%eax
   12082:	66 c1 f8 04          	sar    $0x4,%ax
   12086:	48 0f bf c0          	movswq %ax,%rax
   1208a:	8b 55 fc             	mov    -0x4(%rbp),%edx
   1208d:	48 8d 35 79 2c 00 00 	lea    0x2c79(%rip),%rsi        # 14d0d <g_1899+0x1c8d>
   12094:	48 89 c7             	mov    %rax,%rdi
   12097:	e8 57 56 ff ff       	callq  76f3 <transparent_crc>
   1209c:	8b 05 ee 6f 00 00    	mov    0x6fee(%rip),%eax        # 19090 <g_1658+0x8>
   120a2:	c1 e0 0f             	shl    $0xf,%eax
   120a5:	c1 f8 1b             	sar    $0x1b,%eax
   120a8:	48 0f be c0          	movsbq %al,%rax
   120ac:	8b 55 fc             	mov    -0x4(%rbp),%edx
   120af:	48 8d 35 61 2c 00 00 	lea    0x2c61(%rip),%rsi        # 14d17 <g_1899+0x1c97>
   120b6:	48 89 c7             	mov    %rax,%rdi
   120b9:	e8 35 56 ff ff       	callq  76f3 <transparent_crc>
   120be:	0f b6 05 d3 6f 00 00 	movzbl 0x6fd3(%rip),%eax        # 19098 <g_1659>
   120c5:	c1 e0 05             	shl    $0x5,%eax
   120c8:	c0 f8 05             	sar    $0x5,%al
   120cb:	48 0f be c0          	movsbq %al,%rax
   120cf:	8b 55 fc             	mov    -0x4(%rbp),%edx
   120d2:	48 8d 35 48 2c 00 00 	lea    0x2c48(%rip),%rsi        # 14d21 <g_1899+0x1ca1>
   120d9:	48 89 c7             	mov    %rax,%rdi
   120dc:	e8 12 56 ff ff       	callq  76f3 <transparent_crc>
   120e1:	0f b6 05 b0 6f 00 00 	movzbl 0x6fb0(%rip),%eax        # 19098 <g_1659>
   120e8:	c0 e8 03             	shr    $0x3,%al
   120eb:	0f b6 c0             	movzbl %al,%eax
   120ee:	8b 55 fc             	mov    -0x4(%rbp),%edx
   120f1:	48 8d 35 33 2c 00 00 	lea    0x2c33(%rip),%rsi        # 14d2b <g_1899+0x1cab>
   120f8:	48 89 c7             	mov    %rax,%rdi
   120fb:	e8 f3 55 ff ff       	callq  76f3 <transparent_crc>
   12100:	8b 05 92 6f 00 00    	mov    0x6f92(%rip),%eax        # 19098 <g_1659>
   12106:	c1 e0 0c             	shl    $0xc,%eax
   12109:	c1 f8 14             	sar    $0x14,%eax
   1210c:	48 0f bf c0          	movswq %ax,%rax
   12110:	8b 55 fc             	mov    -0x4(%rbp),%edx
   12113:	48 8d 35 1b 2c 00 00 	lea    0x2c1b(%rip),%rsi        # 14d35 <g_1899+0x1cb5>
   1211a:	48 89 c7             	mov    %rax,%rdi
   1211d:	e8 d1 55 ff ff       	callq  76f3 <transparent_crc>
   12122:	0f b7 05 71 6f 00 00 	movzwl 0x6f71(%rip),%eax        # 1909a <g_1659+0x2>
   12129:	66 c1 e8 04          	shr    $0x4,%ax
   1212d:	66 25 ff 01          	and    $0x1ff,%ax
   12131:	0f b7 c0             	movzwl %ax,%eax
   12134:	8b 55 fc             	mov    -0x4(%rbp),%edx
   12137:	48 8d 35 01 2c 00 00 	lea    0x2c01(%rip),%rsi        # 14d3f <g_1899+0x1cbf>
   1213e:	48 89 c7             	mov    %rax,%rdi
   12141:	e8 ad 55 ff ff       	callq  76f3 <transparent_crc>
   12146:	8b 05 50 6f 00 00    	mov    0x6f50(%rip),%eax        # 1909c <g_1659+0x4>
   1214c:	c1 e0 0c             	shl    $0xc,%eax
   1214f:	c1 f8 0c             	sar    $0xc,%eax
   12152:	48 98                	cltq   
   12154:	8b 55 fc             	mov    -0x4(%rbp),%edx
   12157:	48 8d 35 eb 2b 00 00 	lea    0x2beb(%rip),%rsi        # 14d49 <g_1899+0x1cc9>
   1215e:	48 89 c7             	mov    %rax,%rdi
   12161:	e8 8d 55 ff ff       	callq  76f3 <transparent_crc>
   12166:	48 8b 05 2b 6f 00 00 	mov    0x6f2b(%rip),%rax        # 19098 <g_1659>
   1216d:	48 c1 e0 06          	shl    $0x6,%rax
   12171:	48 c1 f8 3a          	sar    $0x3a,%rax
   12175:	48 0f be c0          	movsbq %al,%rax
   12179:	8b 55 fc             	mov    -0x4(%rbp),%edx
   1217c:	48 8d 35 d0 2b 00 00 	lea    0x2bd0(%rip),%rsi        # 14d53 <g_1899+0x1cd3>
   12183:	48 89 c7             	mov    %rax,%rdi
   12186:	e8 68 55 ff ff       	callq  76f3 <transparent_crc>
   1218b:	0f b7 05 0e 6f 00 00 	movzwl 0x6f0e(%rip),%eax        # 190a0 <g_1659+0x8>
   12192:	c1 e0 04             	shl    $0x4,%eax
   12195:	66 c1 f8 04          	sar    $0x4,%ax
   12199:	48 0f bf c0          	movswq %ax,%rax
   1219d:	8b 55 fc             	mov    -0x4(%rbp),%edx
   121a0:	48 8d 35 b6 2b 00 00 	lea    0x2bb6(%rip),%rsi        # 14d5d <g_1899+0x1cdd>
   121a7:	48 89 c7             	mov    %rax,%rdi
   121aa:	e8 44 55 ff ff       	callq  76f3 <transparent_crc>
   121af:	8b 05 eb 6e 00 00    	mov    0x6eeb(%rip),%eax        # 190a0 <g_1659+0x8>
   121b5:	c1 e0 0f             	shl    $0xf,%eax
   121b8:	c1 f8 1b             	sar    $0x1b,%eax
   121bb:	48 0f be c0          	movsbq %al,%rax
   121bf:	8b 55 fc             	mov    -0x4(%rbp),%edx
   121c2:	48 8d 35 9e 2b 00 00 	lea    0x2b9e(%rip),%rsi        # 14d67 <g_1899+0x1ce7>
   121c9:	48 89 c7             	mov    %rax,%rdi
   121cc:	e8 22 55 ff ff       	callq  76f3 <transparent_crc>
   121d1:	48 8b 05 d8 6e 00 00 	mov    0x6ed8(%rip),%rax        # 190b0 <g_1669>
   121d8:	c1 e0 05             	shl    $0x5,%eax
   121db:	c1 f8 05             	sar    $0x5,%eax
   121de:	48 98                	cltq   
   121e0:	8b 55 fc             	mov    -0x4(%rbp),%edx
   121e3:	48 8d 35 87 2b 00 00 	lea    0x2b87(%rip),%rsi        # 14d71 <g_1899+0x1cf1>
   121ea:	48 89 c7             	mov    %rax,%rdi
   121ed:	e8 01 55 ff ff       	callq  76f3 <transparent_crc>
   121f2:	8b 05 bc 6e 00 00    	mov    0x6ebc(%rip),%eax        # 190b4 <g_1669+0x4>
   121f8:	89 c1                	mov    %eax,%ecx
   121fa:	8b 45 fc             	mov    -0x4(%rbp),%eax
   121fd:	89 c2                	mov    %eax,%edx
   121ff:	48 8d 35 78 2b 00 00 	lea    0x2b78(%rip),%rsi        # 14d7e <g_1899+0x1cfe>
   12206:	48 89 cf             	mov    %rcx,%rdi
   12209:	e8 e5 54 ff ff       	callq  76f3 <transparent_crc>
   1220e:	48 8b 05 a3 6e 00 00 	mov    0x6ea3(%rip),%rax        # 190b8 <g_1669+0x8>
   12215:	c1 e0 02             	shl    $0x2,%eax
   12218:	c0 f8 02             	sar    $0x2,%al
   1221b:	48 0f be c0          	movsbq %al,%rax
   1221f:	8b 55 fc             	mov    -0x4(%rbp),%edx
   12222:	48 8d 35 62 2b 00 00 	lea    0x2b62(%rip),%rsi        # 14d8b <g_1899+0x1d0b>
   12229:	48 89 c7             	mov    %rax,%rdi
   1222c:	e8 c2 54 ff ff       	callq  76f3 <transparent_crc>
   12231:	0f b6 05 81 6e 00 00 	movzbl 0x6e81(%rip),%eax        # 190b9 <g_1669+0x9>
   12238:	0f b6 c0             	movzbl %al,%eax
   1223b:	8b 55 fc             	mov    -0x4(%rbp),%edx
   1223e:	48 8d 35 53 2b 00 00 	lea    0x2b53(%rip),%rsi        # 14d98 <g_1899+0x1d18>
   12245:	48 89 c7             	mov    %rax,%rdi
   12248:	e8 a6 54 ff ff       	callq  76f3 <transparent_crc>
   1224d:	48 8b 05 64 6e 00 00 	mov    0x6e64(%rip),%rax        # 190b8 <g_1669+0x8>
   12254:	48 c1 e8 10          	shr    $0x10,%rax
   12258:	25 ff ff ff 3f       	and    $0x3fffffff,%eax
   1225d:	89 c1                	mov    %eax,%ecx
   1225f:	8b 45 fc             	mov    -0x4(%rbp),%eax
   12262:	89 c2                	mov    %eax,%edx
   12264:	48 8d 35 3a 2b 00 00 	lea    0x2b3a(%rip),%rsi        # 14da5 <g_1899+0x1d25>
   1226b:	48 89 cf             	mov    %rcx,%rdi
   1226e:	e8 80 54 ff ff       	callq  76f3 <transparent_crc>
   12273:	48 8b 05 3e 6e 00 00 	mov    0x6e3e(%rip),%rax        # 190b8 <g_1669+0x8>
   1227a:	48 c1 e8 2e          	shr    $0x2e,%rax
   1227e:	66 25 ff 01          	and    $0x1ff,%ax
   12282:	0f b7 c0             	movzwl %ax,%eax
   12285:	8b 55 fc             	mov    -0x4(%rbp),%edx
   12288:	48 8d 35 23 2b 00 00 	lea    0x2b23(%rip),%rsi        # 14db2 <g_1899+0x1d32>
   1228f:	48 89 c7             	mov    %rax,%rdi
   12292:	e8 5c 54 ff ff       	callq  76f3 <transparent_crc>
   12297:	48 8b 05 1a 6e 00 00 	mov    0x6e1a(%rip),%rax        # 190b8 <g_1669+0x8>
   1229e:	48 c1 f8 37          	sar    $0x37,%rax
   122a2:	48 0f bf c0          	movswq %ax,%rax
   122a6:	8b 55 fc             	mov    -0x4(%rbp),%edx
   122a9:	48 8d 35 0f 2b 00 00 	lea    0x2b0f(%rip),%rsi        # 14dbf <g_1899+0x1d3f>
   122b0:	48 89 c7             	mov    %rax,%rdi
   122b3:	e8 3b 54 ff ff       	callq  76f3 <transparent_crc>
   122b8:	48 8b 05 01 6e 00 00 	mov    0x6e01(%rip),%rax        # 190c0 <g_1669+0x10>
   122bf:	25 ff ff ff 3f       	and    $0x3fffffff,%eax
   122c4:	89 c1                	mov    %eax,%ecx
   122c6:	8b 45 fc             	mov    -0x4(%rbp),%eax
   122c9:	89 c2                	mov    %eax,%edx
   122cb:	48 8d 35 fa 2a 00 00 	lea    0x2afa(%rip),%rsi        # 14dcc <g_1899+0x1d4c>
   122d2:	48 89 cf             	mov    %rcx,%rdi
   122d5:	e8 19 54 ff ff       	callq  76f3 <transparent_crc>
   122da:	48 8b 05 e7 6d 00 00 	mov    0x6de7(%rip),%rax        # 190c8 <g_1701>
   122e1:	c1 e0 05             	shl    $0x5,%eax
   122e4:	c0 f8 05             	sar    $0x5,%al
   122e7:	48 0f be c0          	movsbq %al,%rax
   122eb:	8b 55 fc             	mov    -0x4(%rbp),%edx
   122ee:	48 8d 35 e4 2a 00 00 	lea    0x2ae4(%rip),%rsi        # 14dd9 <g_1899+0x1d59>
   122f5:	48 89 c7             	mov    %rax,%rdi
   122f8:	e8 f6 53 ff ff       	callq  76f3 <transparent_crc>
   122fd:	48 8b 05 c4 6d 00 00 	mov    0x6dc4(%rip),%rax        # 190c8 <g_1701>
   12304:	48 c1 e8 03          	shr    $0x3,%rax
   12308:	83 e0 1f             	and    $0x1f,%eax
   1230b:	0f b6 c0             	movzbl %al,%eax
   1230e:	8b 55 fc             	mov    -0x4(%rbp),%edx
   12311:	48 8d 35 cb 2a 00 00 	lea    0x2acb(%rip),%rsi        # 14de3 <g_1899+0x1d63>
   12318:	48 89 c7             	mov    %rax,%rdi
   1231b:	e8 d3 53 ff ff       	callq  76f3 <transparent_crc>
   12320:	48 8b 05 a1 6d 00 00 	mov    0x6da1(%rip),%rax        # 190c8 <g_1701>
   12327:	c1 e0 0c             	shl    $0xc,%eax
   1232a:	c1 f8 14             	sar    $0x14,%eax
   1232d:	48 0f bf c0          	movswq %ax,%rax
   12331:	8b 55 fc             	mov    -0x4(%rbp),%edx
   12334:	48 8d 35 b2 2a 00 00 	lea    0x2ab2(%rip),%rsi        # 14ded <g_1899+0x1d6d>
   1233b:	48 89 c7             	mov    %rax,%rdi
   1233e:	e8 b0 53 ff ff       	callq  76f3 <transparent_crc>
   12343:	48 8b 05 7e 6d 00 00 	mov    0x6d7e(%rip),%rax        # 190c8 <g_1701>
   1234a:	48 c1 e8 14          	shr    $0x14,%rax
   1234e:	66 25 ff 01          	and    $0x1ff,%ax
   12352:	0f b7 c0             	movzwl %ax,%eax
   12355:	8b 55 fc             	mov    -0x4(%rbp),%edx
   12358:	48 8d 35 98 2a 00 00 	lea    0x2a98(%rip),%rsi        # 14df7 <g_1899+0x1d77>
   1235f:	48 89 c7             	mov    %rax,%rdi
   12362:	e8 8c 53 ff ff       	callq  76f3 <transparent_crc>
   12367:	48 8b 05 5a 6d 00 00 	mov    0x6d5a(%rip),%rax        # 190c8 <g_1701>
   1236e:	48 c1 e0 0c          	shl    $0xc,%rax
   12372:	48 c1 f8 2c          	sar    $0x2c,%rax
   12376:	48 98                	cltq   
   12378:	8b 55 fc             	mov    -0x4(%rbp),%edx
   1237b:	48 8d 35 7f 2a 00 00 	lea    0x2a7f(%rip),%rsi        # 14e01 <g_1899+0x1d81>
   12382:	48 89 c7             	mov    %rax,%rdi
   12385:	e8 69 53 ff ff       	callq  76f3 <transparent_crc>
   1238a:	48 8b 05 37 6d 00 00 	mov    0x6d37(%rip),%rax        # 190c8 <g_1701>
   12391:	48 c1 e0 06          	shl    $0x6,%rax
   12395:	48 c1 f8 3a          	sar    $0x3a,%rax
   12399:	48 0f be c0          	movsbq %al,%rax
   1239d:	8b 55 fc             	mov    -0x4(%rbp),%edx
   123a0:	48 8d 35 64 2a 00 00 	lea    0x2a64(%rip),%rsi        # 14e0b <g_1899+0x1d8b>
   123a7:	48 89 c7             	mov    %rax,%rdi
   123aa:	e8 44 53 ff ff       	callq  76f3 <transparent_crc>
   123af:	48 8b 05 1a 6d 00 00 	mov    0x6d1a(%rip),%rax        # 190d0 <g_1701+0x8>
   123b6:	c1 e0 04             	shl    $0x4,%eax
   123b9:	66 c1 f8 04          	sar    $0x4,%ax
   123bd:	48 0f bf c0          	movswq %ax,%rax
   123c1:	8b 55 fc             	mov    -0x4(%rbp),%edx
   123c4:	48 8d 35 4a 2a 00 00 	lea    0x2a4a(%rip),%rsi        # 14e15 <g_1899+0x1d95>
   123cb:	48 89 c7             	mov    %rax,%rdi
   123ce:	e8 20 53 ff ff       	callq  76f3 <transparent_crc>
   123d3:	48 8b 05 f6 6c 00 00 	mov    0x6cf6(%rip),%rax        # 190d0 <g_1701+0x8>
   123da:	c1 e0 0f             	shl    $0xf,%eax
   123dd:	c1 f8 1b             	sar    $0x1b,%eax
   123e0:	48 0f be c0          	movsbq %al,%rax
   123e4:	8b 55 fc             	mov    -0x4(%rbp),%edx
   123e7:	48 8d 35 31 2a 00 00 	lea    0x2a31(%rip),%rsi        # 14e1f <g_1899+0x1d9f>
   123ee:	48 89 c7             	mov    %rax,%rdi
   123f1:	e8 fd 52 ff ff       	callq  76f3 <transparent_crc>
   123f6:	8b 05 d8 6c 00 00    	mov    0x6cd8(%rip),%eax        # 190d4 <g_1773>
   123fc:	48 98                	cltq   
   123fe:	8b 55 fc             	mov    -0x4(%rbp),%edx
   12401:	48 8d 35 21 2a 00 00 	lea    0x2a21(%rip),%rsi        # 14e29 <g_1899+0x1da9>
   12408:	48 89 c7             	mov    %rax,%rdi
   1240b:	e8 e3 52 ff ff       	callq  76f3 <transparent_crc>
   12410:	8b 05 8a 8c 00 00    	mov    0x8c8a(%rip),%eax        # 1b0a0 <g_1781>
   12416:	89 c1                	mov    %eax,%ecx
   12418:	8b 45 fc             	mov    -0x4(%rbp),%eax
   1241b:	89 c2                	mov    %eax,%edx
   1241d:	48 8d 35 0c 2a 00 00 	lea    0x2a0c(%rip),%rsi        # 14e30 <g_1899+0x1db0>
   12424:	48 89 cf             	mov    %rcx,%rdi
   12427:	e8 c7 52 ff ff       	callq  76f3 <transparent_crc>
   1242c:	0f b7 05 6d 8c 00 00 	movzwl 0x8c6d(%rip),%eax        # 1b0a0 <g_1781>
   12433:	0f b7 c0             	movzwl %ax,%eax
   12436:	8b 55 fc             	mov    -0x4(%rbp),%edx
   12439:	48 8d 35 fa 29 00 00 	lea    0x29fa(%rip),%rsi        # 14e3a <g_1899+0x1dba>
   12440:	48 89 c7             	mov    %rax,%rdi
   12443:	e8 ab 52 ff ff       	callq  76f3 <transparent_crc>
   12448:	8b 05 52 8c 00 00    	mov    0x8c52(%rip),%eax        # 1b0a0 <g_1781>
   1244e:	48 98                	cltq   
   12450:	8b 55 fc             	mov    -0x4(%rbp),%edx
   12453:	48 8d 35 ea 29 00 00 	lea    0x29ea(%rip),%rsi        # 14e44 <g_1899+0x1dc4>
   1245a:	48 89 c7             	mov    %rax,%rdi
   1245d:	e8 91 52 ff ff       	callq  76f3 <transparent_crc>
   12462:	48 b9 df 48 4d 45 76 	movabs $0xab587e76454d48df,%rcx
   12469:	7e 58 ab 
   1246c:	8b 45 fc             	mov    -0x4(%rbp),%eax
   1246f:	89 c2                	mov    %eax,%edx
   12471:	48 8d 35 d6 29 00 00 	lea    0x29d6(%rip),%rsi        # 14e4e <g_1899+0x1dce>
   12478:	48 89 cf             	mov    %rcx,%rdi
   1247b:	e8 73 52 ff ff       	callq  76f3 <transparent_crc>
   12480:	8b 05 52 6c 00 00    	mov    0x6c52(%rip),%eax        # 190d8 <g_1829>
   12486:	48 98                	cltq   
   12488:	8b 55 fc             	mov    -0x4(%rbp),%edx
   1248b:	48 8d 35 c3 29 00 00 	lea    0x29c3(%rip),%rsi        # 14e55 <g_1899+0x1dd5>
   12492:	48 89 c7             	mov    %rax,%rdi
   12495:	e8 59 52 ff ff       	callq  76f3 <transparent_crc>
   1249a:	8b 05 08 8c 00 00    	mov    0x8c08(%rip),%eax        # 1b0a8 <g_1840>
   124a0:	48 98                	cltq   
   124a2:	8b 55 fc             	mov    -0x4(%rbp),%edx
   124a5:	48 8d 35 b0 29 00 00 	lea    0x29b0(%rip),%rsi        # 14e5c <g_1899+0x1ddc>
   124ac:	48 89 c7             	mov    %rax,%rdi
   124af:	e8 3f 52 ff ff       	callq  76f3 <transparent_crc>
   124b4:	0f b6 05 25 6c 00 00 	movzbl 0x6c25(%rip),%eax        # 190e0 <g_1841>
   124bb:	c1 e0 05             	shl    $0x5,%eax
   124be:	c0 f8 05             	sar    $0x5,%al
   124c1:	48 0f be c0          	movsbq %al,%rax
   124c5:	8b 55 fc             	mov    -0x4(%rbp),%edx
   124c8:	48 8d 35 94 29 00 00 	lea    0x2994(%rip),%rsi        # 14e63 <g_1899+0x1de3>
   124cf:	48 89 c7             	mov    %rax,%rdi
   124d2:	e8 1c 52 ff ff       	callq  76f3 <transparent_crc>
   124d7:	0f b6 05 02 6c 00 00 	movzbl 0x6c02(%rip),%eax        # 190e0 <g_1841>
   124de:	c0 e8 03             	shr    $0x3,%al
   124e1:	0f b6 c0             	movzbl %al,%eax
   124e4:	8b 55 fc             	mov    -0x4(%rbp),%edx
   124e7:	48 8d 35 7f 29 00 00 	lea    0x297f(%rip),%rsi        # 14e6d <g_1899+0x1ded>
   124ee:	48 89 c7             	mov    %rax,%rdi
   124f1:	e8 fd 51 ff ff       	callq  76f3 <transparent_crc>
   124f6:	8b 05 e4 6b 00 00    	mov    0x6be4(%rip),%eax        # 190e0 <g_1841>
   124fc:	c1 e0 0c             	shl    $0xc,%eax
   124ff:	c1 f8 14             	sar    $0x14,%eax
   12502:	48 0f bf c0          	movswq %ax,%rax
   12506:	8b 55 fc             	mov    -0x4(%rbp),%edx
   12509:	48 8d 35 67 29 00 00 	lea    0x2967(%rip),%rsi        # 14e77 <g_1899+0x1df7>
   12510:	48 89 c7             	mov    %rax,%rdi
   12513:	e8 db 51 ff ff       	callq  76f3 <transparent_crc>
   12518:	0f b7 05 c3 6b 00 00 	movzwl 0x6bc3(%rip),%eax        # 190e2 <g_1841+0x2>
   1251f:	66 c1 e8 04          	shr    $0x4,%ax
   12523:	66 25 ff 01          	and    $0x1ff,%ax
   12527:	0f b7 c0             	movzwl %ax,%eax
   1252a:	8b 55 fc             	mov    -0x4(%rbp),%edx
   1252d:	48 8d 35 4d 29 00 00 	lea    0x294d(%rip),%rsi        # 14e81 <g_1899+0x1e01>
   12534:	48 89 c7             	mov    %rax,%rdi
   12537:	e8 b7 51 ff ff       	callq  76f3 <transparent_crc>
   1253c:	8b 05 a2 6b 00 00    	mov    0x6ba2(%rip),%eax        # 190e4 <g_1841+0x4>
   12542:	c1 e0 0c             	shl    $0xc,%eax
   12545:	c1 f8 0c             	sar    $0xc,%eax
   12548:	48 98                	cltq   
   1254a:	8b 55 fc             	mov    -0x4(%rbp),%edx
   1254d:	48 8d 35 37 29 00 00 	lea    0x2937(%rip),%rsi        # 14e8b <g_1899+0x1e0b>
   12554:	48 89 c7             	mov    %rax,%rdi
   12557:	e8 97 51 ff ff       	callq  76f3 <transparent_crc>
   1255c:	48 8b 05 7d 6b 00 00 	mov    0x6b7d(%rip),%rax        # 190e0 <g_1841>
   12563:	48 c1 e0 06          	shl    $0x6,%rax
   12567:	48 c1 f8 3a          	sar    $0x3a,%rax
   1256b:	48 0f be c0          	movsbq %al,%rax
   1256f:	8b 55 fc             	mov    -0x4(%rbp),%edx
   12572:	48 8d 35 1c 29 00 00 	lea    0x291c(%rip),%rsi        # 14e95 <g_1899+0x1e15>
   12579:	48 89 c7             	mov    %rax,%rdi
   1257c:	e8 72 51 ff ff       	callq  76f3 <transparent_crc>
   12581:	0f b7 05 60 6b 00 00 	movzwl 0x6b60(%rip),%eax        # 190e8 <g_1841+0x8>
   12588:	c1 e0 04             	shl    $0x4,%eax
   1258b:	66 c1 f8 04          	sar    $0x4,%ax
   1258f:	48 0f bf c0          	movswq %ax,%rax
   12593:	8b 55 fc             	mov    -0x4(%rbp),%edx
   12596:	48 8d 35 02 29 00 00 	lea    0x2902(%rip),%rsi        # 14e9f <g_1899+0x1e1f>
   1259d:	48 89 c7             	mov    %rax,%rdi
   125a0:	e8 4e 51 ff ff       	callq  76f3 <transparent_crc>
   125a5:	8b 05 3d 6b 00 00    	mov    0x6b3d(%rip),%eax        # 190e8 <g_1841+0x8>
   125ab:	c1 e0 0f             	shl    $0xf,%eax
   125ae:	c1 f8 1b             	sar    $0x1b,%eax
   125b1:	48 0f be c0          	movsbq %al,%rax
   125b5:	8b 55 fc             	mov    -0x4(%rbp),%edx
   125b8:	48 8d 35 ea 28 00 00 	lea    0x28ea(%rip),%rsi        # 14ea9 <g_1899+0x1e29>
   125bf:	48 89 c7             	mov    %rax,%rdi
   125c2:	e8 2c 51 ff ff       	callq  76f3 <transparent_crc>
   125c7:	48 8b 05 b2 0a 00 00 	mov    0xab2(%rip),%rax        # 13080 <g_1899>
   125ce:	c1 e0 05             	shl    $0x5,%eax
   125d1:	c1 f8 05             	sar    $0x5,%eax
   125d4:	48 98                	cltq   
   125d6:	8b 55 fc             	mov    -0x4(%rbp),%edx
   125d9:	48 8d 35 d3 28 00 00 	lea    0x28d3(%rip),%rsi        # 14eb3 <g_1899+0x1e33>
   125e0:	48 89 c7             	mov    %rax,%rdi
   125e3:	e8 0b 51 ff ff       	callq  76f3 <transparent_crc>
   125e8:	8b 05 96 0a 00 00    	mov    0xa96(%rip),%eax        # 13084 <g_1899+0x4>
   125ee:	89 c1                	mov    %eax,%ecx
   125f0:	8b 45 fc             	mov    -0x4(%rbp),%eax
   125f3:	89 c2                	mov    %eax,%edx
   125f5:	48 8d 35 c4 28 00 00 	lea    0x28c4(%rip),%rsi        # 14ec0 <g_1899+0x1e40>
   125fc:	48 89 cf             	mov    %rcx,%rdi
   125ff:	e8 ef 50 ff ff       	callq  76f3 <transparent_crc>
   12604:	48 8b 05 7d 0a 00 00 	mov    0xa7d(%rip),%rax        # 13088 <g_1899+0x8>
   1260b:	c1 e0 02             	shl    $0x2,%eax
   1260e:	c0 f8 02             	sar    $0x2,%al
   12611:	48 0f be c0          	movsbq %al,%rax
   12615:	8b 55 fc             	mov    -0x4(%rbp),%edx
   12618:	48 8d 35 ae 28 00 00 	lea    0x28ae(%rip),%rsi        # 14ecd <g_1899+0x1e4d>
   1261f:	48 89 c7             	mov    %rax,%rdi
   12622:	e8 cc 50 ff ff       	callq  76f3 <transparent_crc>
   12627:	0f b6 05 5b 0a 00 00 	movzbl 0xa5b(%rip),%eax        # 13089 <g_1899+0x9>
   1262e:	0f b6 c0             	movzbl %al,%eax
   12631:	8b 55 fc             	mov    -0x4(%rbp),%edx
   12634:	48 8d 35 9f 28 00 00 	lea    0x289f(%rip),%rsi        # 14eda <g_1899+0x1e5a>
   1263b:	48 89 c7             	mov    %rax,%rdi
   1263e:	e8 b0 50 ff ff       	callq  76f3 <transparent_crc>
   12643:	48 8b 05 3e 0a 00 00 	mov    0xa3e(%rip),%rax        # 13088 <g_1899+0x8>
   1264a:	48 c1 e8 10          	shr    $0x10,%rax
   1264e:	25 ff ff ff 3f       	and    $0x3fffffff,%eax
   12653:	89 c1                	mov    %eax,%ecx
   12655:	8b 45 fc             	mov    -0x4(%rbp),%eax
   12658:	89 c2                	mov    %eax,%edx
   1265a:	48 8d 35 86 28 00 00 	lea    0x2886(%rip),%rsi        # 14ee7 <g_1899+0x1e67>
   12661:	48 89 cf             	mov    %rcx,%rdi
   12664:	e8 8a 50 ff ff       	callq  76f3 <transparent_crc>
   12669:	48 8b 05 18 0a 00 00 	mov    0xa18(%rip),%rax        # 13088 <g_1899+0x8>
   12670:	48 c1 e8 2e          	shr    $0x2e,%rax
   12674:	66 25 ff 01          	and    $0x1ff,%ax
   12678:	0f b7 c0             	movzwl %ax,%eax
   1267b:	8b 55 fc             	mov    -0x4(%rbp),%edx
   1267e:	48 8d 35 6f 28 00 00 	lea    0x286f(%rip),%rsi        # 14ef4 <g_1899+0x1e74>
   12685:	48 89 c7             	mov    %rax,%rdi
   12688:	e8 66 50 ff ff       	callq  76f3 <transparent_crc>
   1268d:	48 8b 05 f4 09 00 00 	mov    0x9f4(%rip),%rax        # 13088 <g_1899+0x8>
   12694:	48 c1 f8 37          	sar    $0x37,%rax
   12698:	48 0f bf c0          	movswq %ax,%rax
   1269c:	8b 55 fc             	mov    -0x4(%rbp),%edx
   1269f:	48 8d 35 5b 28 00 00 	lea    0x285b(%rip),%rsi        # 14f01 <g_1899+0x1e81>
   126a6:	48 89 c7             	mov    %rax,%rdi
   126a9:	e8 45 50 ff ff       	callq  76f3 <transparent_crc>
   126ae:	48 8b 05 db 09 00 00 	mov    0x9db(%rip),%rax        # 13090 <g_1899+0x10>
   126b5:	25 ff ff ff 3f       	and    $0x3fffffff,%eax
   126ba:	89 c1                	mov    %eax,%ecx
   126bc:	8b 45 fc             	mov    -0x4(%rbp),%eax
   126bf:	89 c2                	mov    %eax,%edx
   126c1:	48 8d 35 46 28 00 00 	lea    0x2846(%rip),%rsi        # 14f0e <g_1899+0x1e8e>
   126c8:	48 89 cf             	mov    %rcx,%rdi
   126cb:	e8 23 50 ff ff       	callq  76f3 <transparent_crc>
   126d0:	48 8b 05 19 6a 00 00 	mov    0x6a19(%rip),%rax        # 190f0 <g_1904>
   126d7:	c1 e0 05             	shl    $0x5,%eax
   126da:	c1 f8 05             	sar    $0x5,%eax
   126dd:	48 98                	cltq   
   126df:	8b 55 fc             	mov    -0x4(%rbp),%edx
   126e2:	48 8d 35 32 28 00 00 	lea    0x2832(%rip),%rsi        # 14f1b <g_1899+0x1e9b>
   126e9:	48 89 c7             	mov    %rax,%rdi
   126ec:	e8 02 50 ff ff       	callq  76f3 <transparent_crc>
   126f1:	8b 05 fd 69 00 00    	mov    0x69fd(%rip),%eax        # 190f4 <g_1904+0x4>
   126f7:	89 c1                	mov    %eax,%ecx
   126f9:	8b 45 fc             	mov    -0x4(%rbp),%eax
   126fc:	89 c2                	mov    %eax,%edx
   126fe:	48 8d 35 23 28 00 00 	lea    0x2823(%rip),%rsi        # 14f28 <g_1899+0x1ea8>
   12705:	48 89 cf             	mov    %rcx,%rdi
   12708:	e8 e6 4f ff ff       	callq  76f3 <transparent_crc>
   1270d:	48 8b 05 e4 69 00 00 	mov    0x69e4(%rip),%rax        # 190f8 <g_1904+0x8>
   12714:	c1 e0 02             	shl    $0x2,%eax
   12717:	c0 f8 02             	sar    $0x2,%al
   1271a:	48 0f be c0          	movsbq %al,%rax
   1271e:	8b 55 fc             	mov    -0x4(%rbp),%edx
   12721:	48 8d 35 0d 28 00 00 	lea    0x280d(%rip),%rsi        # 14f35 <g_1899+0x1eb5>
   12728:	48 89 c7             	mov    %rax,%rdi
   1272b:	e8 c3 4f ff ff       	callq  76f3 <transparent_crc>
   12730:	0f b6 05 c2 69 00 00 	movzbl 0x69c2(%rip),%eax        # 190f9 <g_1904+0x9>
   12737:	0f b6 c0             	movzbl %al,%eax
   1273a:	8b 55 fc             	mov    -0x4(%rbp),%edx
   1273d:	48 8d 35 fe 27 00 00 	lea    0x27fe(%rip),%rsi        # 14f42 <g_1899+0x1ec2>
   12744:	48 89 c7             	mov    %rax,%rdi
   12747:	e8 a7 4f ff ff       	callq  76f3 <transparent_crc>
   1274c:	48 8b 05 a5 69 00 00 	mov    0x69a5(%rip),%rax        # 190f8 <g_1904+0x8>
   12753:	48 c1 e8 10          	shr    $0x10,%rax
   12757:	25 ff ff ff 3f       	and    $0x3fffffff,%eax
   1275c:	89 c1                	mov    %eax,%ecx
   1275e:	8b 45 fc             	mov    -0x4(%rbp),%eax
   12761:	89 c2                	mov    %eax,%edx
   12763:	48 8d 35 e5 27 00 00 	lea    0x27e5(%rip),%rsi        # 14f4f <g_1899+0x1ecf>
   1276a:	48 89 cf             	mov    %rcx,%rdi
   1276d:	e8 81 4f ff ff       	callq  76f3 <transparent_crc>
   12772:	48 8b 05 7f 69 00 00 	mov    0x697f(%rip),%rax        # 190f8 <g_1904+0x8>
   12779:	48 c1 e8 2e          	shr    $0x2e,%rax
   1277d:	66 25 ff 01          	and    $0x1ff,%ax
   12781:	0f b7 c0             	movzwl %ax,%eax
   12784:	8b 55 fc             	mov    -0x4(%rbp),%edx
   12787:	48 8d 35 ce 27 00 00 	lea    0x27ce(%rip),%rsi        # 14f5c <g_1899+0x1edc>
   1278e:	48 89 c7             	mov    %rax,%rdi
   12791:	e8 5d 4f ff ff       	callq  76f3 <transparent_crc>
   12796:	48 8b 05 5b 69 00 00 	mov    0x695b(%rip),%rax        # 190f8 <g_1904+0x8>
   1279d:	48 c1 f8 37          	sar    $0x37,%rax
   127a1:	48 0f bf c0          	movswq %ax,%rax
   127a5:	8b 55 fc             	mov    -0x4(%rbp),%edx
   127a8:	48 8d 35 ba 27 00 00 	lea    0x27ba(%rip),%rsi        # 14f69 <g_1899+0x1ee9>
   127af:	48 89 c7             	mov    %rax,%rdi
   127b2:	e8 3c 4f ff ff       	callq  76f3 <transparent_crc>
   127b7:	48 8b 05 42 69 00 00 	mov    0x6942(%rip),%rax        # 19100 <g_1904+0x10>
   127be:	25 ff ff ff 3f       	and    $0x3fffffff,%eax
   127c3:	89 c1                	mov    %eax,%ecx
   127c5:	8b 45 fc             	mov    -0x4(%rbp),%eax
   127c8:	89 c2                	mov    %eax,%edx
   127ca:	48 8d 35 a5 27 00 00 	lea    0x27a5(%rip),%rsi        # 14f76 <g_1899+0x1ef6>
   127d1:	48 89 cf             	mov    %rcx,%rdi
   127d4:	e8 1a 4f ff ff       	callq  76f3 <transparent_crc>
   127d9:	8b 05 41 58 00 00    	mov    0x5841(%rip),%eax        # 18020 <crc32_context>
   127df:	f7 d0                	not    %eax
   127e1:	89 c2                	mov    %eax,%edx
   127e3:	8b 45 fc             	mov    -0x4(%rbp),%eax
   127e6:	89 c6                	mov    %eax,%esi
   127e8:	89 d7                	mov    %edx,%edi
   127ea:	e8 a5 39 ff ff       	callq  6194 <platform_main_end>
   127ef:	b8 00 00 00 00       	mov    $0x0,%eax
   127f4:	c9                   	leaveq 
   127f5:	c3                   	retq   
   127f6:	66 2e 0f 1f 84 00 00 	nopw   %cs:0x0(%rax,%rax,1)
   127fd:	00 00 00 

0000000000012800 <__libc_csu_init>:
   12800:	f3 0f 1e fa          	endbr64 
   12804:	41 57                	push   %r15
   12806:	4c 8d 3d 63 52 00 00 	lea    0x5263(%rip),%r15        # 17a70 <__frame_dummy_init_array_entry>
   1280d:	41 56                	push   %r14
   1280f:	49 89 d6             	mov    %rdx,%r14
   12812:	41 55                	push   %r13
   12814:	49 89 f5             	mov    %rsi,%r13
   12817:	41 54                	push   %r12
   12819:	41 89 fc             	mov    %edi,%r12d
   1281c:	55                   	push   %rbp
   1281d:	48 8d 2d 54 52 00 00 	lea    0x5254(%rip),%rbp        # 17a78 <__do_global_dtors_aux_fini_array_entry>
   12824:	53                   	push   %rbx
   12825:	4c 29 fd             	sub    %r15,%rbp
   12828:	48 83 ec 08          	sub    $0x8,%rsp
   1282c:	e8 cf 37 ff ff       	callq  6000 <_init>
   12831:	48 c1 fd 03          	sar    $0x3,%rbp
   12835:	74 1f                	je     12856 <__libc_csu_init+0x56>
   12837:	31 db                	xor    %ebx,%ebx
   12839:	0f 1f 80 00 00 00 00 	nopl   0x0(%rax)
   12840:	4c 89 f2             	mov    %r14,%rdx
   12843:	4c 89 ee             	mov    %r13,%rsi
   12846:	44 89 e7             	mov    %r12d,%edi
   12849:	41 ff 14 df          	callq  *(%r15,%rbx,8)
   1284d:	48 83 c3 01          	add    $0x1,%rbx
   12851:	48 39 dd             	cmp    %rbx,%rbp
   12854:	75 ea                	jne    12840 <__libc_csu_init+0x40>
   12856:	48 83 c4 08          	add    $0x8,%rsp
   1285a:	5b                   	pop    %rbx
   1285b:	5d                   	pop    %rbp
   1285c:	41 5c                	pop    %r12
   1285e:	41 5d                	pop    %r13
   12860:	41 5e                	pop    %r14
   12862:	41 5f                	pop    %r15
   12864:	c3                   	retq   
   12865:	66 66 2e 0f 1f 84 00 	data16 nopw %cs:0x0(%rax,%rax,1)
   1286c:	00 00 00 00 

0000000000012870 <__libc_csu_fini>:
   12870:	f3 0f 1e fa          	endbr64 
   12874:	c3                   	retq   
