


Disassembly of section .text:

000000000000d0a0 <_start>:
    d0a0:	f3 0f 1e fa          	endbr64 
    d0a4:	31 ed                	xor    %ebp,%ebp
    d0a6:	49 89 d1             	mov    %rdx,%r9
    d0a9:	5e                   	pop    %rsi
    d0aa:	48 89 e2             	mov    %rsp,%rdx
    d0ad:	48 83 e4 f0          	and    $0xfffffffffffffff0,%rsp
    d0b1:	50                   	push   %rax
    d0b2:	54                   	push   %rsp
    d0b3:	4c 8d 05 06 19 01 00 	lea    0x11906(%rip),%r8        # 1e9c0 <__libc_csu_fini>
    d0ba:	48 8d 0d 8f 18 01 00 	lea    0x1188f(%rip),%rcx        # 1e950 <__libc_csu_init>
    d0c1:	48 8d 3d e8 c5 00 00 	lea    0xc5e8(%rip),%rdi        # 196b0 <main>
    d0c8:	ff 15 0a 6f 01 00    	callq  *0x16f0a(%rip)        # 23fd8 <__libc_start_main@GLIBC_2.2.5>
    d0ce:	f4                   	hlt    
    d0cf:	90                   	nop

000000000000d0d0 <deregister_tm_clones>:
    d0d0:	48 8d 3d c9 db 01 00 	lea    0x1dbc9(%rip),%rdi        # 2aca0 <__TMC_END__>
    d0d7:	48 8d 05 c2 db 01 00 	lea    0x1dbc2(%rip),%rax        # 2aca0 <__TMC_END__>
    d0de:	48 39 f8             	cmp    %rdi,%rax
    d0e1:	74 15                	je     d0f8 <deregister_tm_clones+0x28>
    d0e3:	48 8b 05 e6 6e 01 00 	mov    0x16ee6(%rip),%rax        # 23fd0 <_ITM_deregisterTMCloneTable>
    d0ea:	48 85 c0             	test   %rax,%rax
    d0ed:	74 09                	je     d0f8 <deregister_tm_clones+0x28>
    d0ef:	ff e0                	jmpq   *%rax
    d0f1:	0f 1f 80 00 00 00 00 	nopl   0x0(%rax)
    d0f8:	c3                   	retq   
    d0f9:	0f 1f 80 00 00 00 00 	nopl   0x0(%rax)

000000000000d100 <register_tm_clones>:
    d100:	48 8d 3d 99 db 01 00 	lea    0x1db99(%rip),%rdi        # 2aca0 <__TMC_END__>
    d107:	48 8d 35 92 db 01 00 	lea    0x1db92(%rip),%rsi        # 2aca0 <__TMC_END__>
    d10e:	48 29 fe             	sub    %rdi,%rsi
    d111:	48 89 f0             	mov    %rsi,%rax
    d114:	48 c1 ee 3f          	shr    $0x3f,%rsi
    d118:	48 c1 f8 03          	sar    $0x3,%rax
    d11c:	48 01 c6             	add    %rax,%rsi
    d11f:	48 d1 fe             	sar    %rsi
    d122:	74 14                	je     d138 <register_tm_clones+0x38>
    d124:	48 8b 05 bd 6e 01 00 	mov    0x16ebd(%rip),%rax        # 23fe8 <_ITM_registerTMCloneTable>
    d12b:	48 85 c0             	test   %rax,%rax
    d12e:	74 08                	je     d138 <register_tm_clones+0x38>
    d130:	ff e0                	jmpq   *%rax
    d132:	66 0f 1f 44 00 00    	nopw   0x0(%rax,%rax,1)
    d138:	c3                   	retq   
    d139:	0f 1f 80 00 00 00 00 	nopl   0x0(%rax)

000000000000d140 <__do_global_dtors_aux>:
    d140:	f3 0f 1e fa          	endbr64 
    d144:	80 3d 55 db 01 00 00 	cmpb   $0x0,0x1db55(%rip)        # 2aca0 <__TMC_END__>
    d14b:	75 2b                	jne    d178 <__do_global_dtors_aux+0x38>
    d14d:	55                   	push   %rbp
    d14e:	48 83 3d 9a 6e 01 00 	cmpq   $0x0,0x16e9a(%rip)        # 23ff0 <__cxa_finalize@GLIBC_2.2.5>
    d155:	00 
    d156:	48 89 e5             	mov    %rsp,%rbp
    d159:	74 0c                	je     d167 <__do_global_dtors_aux+0x27>
    d15b:	48 8b 3d a6 6e 01 00 	mov    0x16ea6(%rip),%rdi        # 24008 <__dso_handle>
    d162:	e8 f9 fe ff ff       	callq  d060 <__cxa_finalize@plt>
    d167:	e8 64 ff ff ff       	callq  d0d0 <deregister_tm_clones>
    d16c:	c6 05 2d db 01 00 01 	movb   $0x1,0x1db2d(%rip)        # 2aca0 <__TMC_END__>
    d173:	5d                   	pop    %rbp
    d174:	c3                   	retq   
    d175:	0f 1f 00             	nopl   (%rax)
    d178:	c3                   	retq   
    d179:	0f 1f 80 00 00 00 00 	nopl   0x0(%rax)

000000000000d180 <frame_dummy>:
    d180:	f3 0f 1e fa          	endbr64 
    d184:	e9 77 ff ff ff       	jmpq   d100 <register_tm_clones>

000000000000d189 <platform_main_begin>:
    d189:	f3 0f 1e fa          	endbr64 
    d18d:	55                   	push   %rbp
    d18e:	48 89 e5             	mov    %rsp,%rbp
    d191:	90                   	nop
    d192:	5d                   	pop    %rbp
    d193:	c3                   	retq   

000000000000d194 <platform_main_end>:
    d194:	f3 0f 1e fa          	endbr64 
    d198:	55                   	push   %rbp
    d199:	48 89 e5             	mov    %rsp,%rbp
    d19c:	48 83 ec 10          	sub    $0x10,%rsp
    d1a0:	89 7d fc             	mov    %edi,-0x4(%rbp)
    d1a3:	89 75 f8             	mov    %esi,-0x8(%rbp)
    d1a6:	8b 45 fc             	mov    -0x4(%rbp),%eax
    d1a9:	89 c6                	mov    %eax,%esi
    d1ab:	48 8d 3d 6e 1e 01 00 	lea    0x11e6e(%rip),%rdi        # 1f020 <_IO_stdin_used+0x20>
    d1b2:	b8 00 00 00 00       	mov    $0x0,%eax
    d1b7:	e8 c4 fe ff ff       	callq  d080 <printf@plt>
    d1bc:	90                   	nop
    d1bd:	c9                   	leaveq 
    d1be:	c3                   	retq   

000000000000d1bf <safe_unary_minus_func_int8_t_s>:
    d1bf:	f3 0f 1e fa          	endbr64 
    d1c3:	55                   	push   %rbp
    d1c4:	48 89 e5             	mov    %rsp,%rbp
    d1c7:	89 f8                	mov    %edi,%eax
    d1c9:	88 45 fc             	mov    %al,-0x4(%rbp)
    d1cc:	0f b6 45 fc          	movzbl -0x4(%rbp),%eax
    d1d0:	f7 d8                	neg    %eax
    d1d2:	5d                   	pop    %rbp
    d1d3:	c3                   	retq   

000000000000d1d4 <safe_add_func_int8_t_s_s>:
    d1d4:	f3 0f 1e fa          	endbr64 
    d1d8:	55                   	push   %rbp
    d1d9:	48 89 e5             	mov    %rsp,%rbp
    d1dc:	89 fa                	mov    %edi,%edx
    d1de:	89 f0                	mov    %esi,%eax
    d1e0:	88 55 fc             	mov    %dl,-0x4(%rbp)
    d1e3:	88 45 f8             	mov    %al,-0x8(%rbp)
    d1e6:	0f b6 55 fc          	movzbl -0x4(%rbp),%edx
    d1ea:	0f b6 45 f8          	movzbl -0x8(%rbp),%eax
    d1ee:	01 d0                	add    %edx,%eax
    d1f0:	5d                   	pop    %rbp
    d1f1:	c3                   	retq   

000000000000d1f2 <safe_sub_func_int8_t_s_s>:
    d1f2:	f3 0f 1e fa          	endbr64 
    d1f6:	55                   	push   %rbp
    d1f7:	48 89 e5             	mov    %rsp,%rbp
    d1fa:	89 fa                	mov    %edi,%edx
    d1fc:	89 f0                	mov    %esi,%eax
    d1fe:	88 55 fc             	mov    %dl,-0x4(%rbp)
    d201:	88 45 f8             	mov    %al,-0x8(%rbp)
    d204:	0f b6 55 fc          	movzbl -0x4(%rbp),%edx
    d208:	0f b6 45 f8          	movzbl -0x8(%rbp),%eax
    d20c:	29 c2                	sub    %eax,%edx
    d20e:	89 d0                	mov    %edx,%eax
    d210:	5d                   	pop    %rbp
    d211:	c3                   	retq   

000000000000d212 <safe_mul_func_int8_t_s_s>:
    d212:	f3 0f 1e fa          	endbr64 
    d216:	55                   	push   %rbp
    d217:	48 89 e5             	mov    %rsp,%rbp
    d21a:	89 fa                	mov    %edi,%edx
    d21c:	89 f0                	mov    %esi,%eax
    d21e:	88 55 fc             	mov    %dl,-0x4(%rbp)
    d221:	88 45 f8             	mov    %al,-0x8(%rbp)
    d224:	0f b6 45 fc          	movzbl -0x4(%rbp),%eax
    d228:	0f b6 55 f8          	movzbl -0x8(%rbp),%edx
    d22c:	0f af c2             	imul   %edx,%eax
    d22f:	5d                   	pop    %rbp
    d230:	c3                   	retq   

000000000000d231 <safe_mod_func_int8_t_s_s>:
    d231:	f3 0f 1e fa          	endbr64 
    d235:	55                   	push   %rbp
    d236:	48 89 e5             	mov    %rsp,%rbp
    d239:	89 fa                	mov    %edi,%edx
    d23b:	89 f0                	mov    %esi,%eax
    d23d:	88 55 fc             	mov    %dl,-0x4(%rbp)
    d240:	88 45 f8             	mov    %al,-0x8(%rbp)
    d243:	80 7d f8 00          	cmpb   $0x0,-0x8(%rbp)
    d247:	74 1b                	je     d264 <safe_mod_func_int8_t_s_s+0x33>
    d249:	80 7d fc 80          	cmpb   $0x80,-0x4(%rbp)
    d24d:	75 06                	jne    d255 <safe_mod_func_int8_t_s_s+0x24>
    d24f:	80 7d f8 ff          	cmpb   $0xff,-0x8(%rbp)
    d253:	74 0f                	je     d264 <safe_mod_func_int8_t_s_s+0x33>
    d255:	0f be 45 fc          	movsbl -0x4(%rbp),%eax
    d259:	0f be 4d f8          	movsbl -0x8(%rbp),%ecx
    d25d:	99                   	cltd   
    d25e:	f7 f9                	idiv   %ecx
    d260:	89 d0                	mov    %edx,%eax
    d262:	eb 04                	jmp    d268 <safe_mod_func_int8_t_s_s+0x37>
    d264:	0f b6 45 fc          	movzbl -0x4(%rbp),%eax
    d268:	5d                   	pop    %rbp
    d269:	c3                   	retq   

000000000000d26a <safe_div_func_int8_t_s_s>:
    d26a:	f3 0f 1e fa          	endbr64 
    d26e:	55                   	push   %rbp
    d26f:	48 89 e5             	mov    %rsp,%rbp
    d272:	89 fa                	mov    %edi,%edx
    d274:	89 f0                	mov    %esi,%eax
    d276:	88 55 fc             	mov    %dl,-0x4(%rbp)
    d279:	88 45 f8             	mov    %al,-0x8(%rbp)
    d27c:	80 7d f8 00          	cmpb   $0x0,-0x8(%rbp)
    d280:	74 19                	je     d29b <safe_div_func_int8_t_s_s+0x31>
    d282:	80 7d fc 80          	cmpb   $0x80,-0x4(%rbp)
    d286:	75 06                	jne    d28e <safe_div_func_int8_t_s_s+0x24>
    d288:	80 7d f8 ff          	cmpb   $0xff,-0x8(%rbp)
    d28c:	74 0d                	je     d29b <safe_div_func_int8_t_s_s+0x31>
    d28e:	0f be 45 fc          	movsbl -0x4(%rbp),%eax
    d292:	0f be 4d f8          	movsbl -0x8(%rbp),%ecx
    d296:	99                   	cltd   
    d297:	f7 f9                	idiv   %ecx
    d299:	eb 04                	jmp    d29f <safe_div_func_int8_t_s_s+0x35>
    d29b:	0f b6 45 fc          	movzbl -0x4(%rbp),%eax
    d29f:	5d                   	pop    %rbp
    d2a0:	c3                   	retq   

000000000000d2a1 <safe_lshift_func_int8_t_s_s>:
    d2a1:	f3 0f 1e fa          	endbr64 
    d2a5:	55                   	push   %rbp
    d2a6:	48 89 e5             	mov    %rsp,%rbp
    d2a9:	89 f8                	mov    %edi,%eax
    d2ab:	89 75 f8             	mov    %esi,-0x8(%rbp)
    d2ae:	88 45 fc             	mov    %al,-0x4(%rbp)
    d2b1:	80 7d fc 00          	cmpb   $0x0,-0x4(%rbp)
    d2b5:	78 31                	js     d2e8 <safe_lshift_func_int8_t_s_s+0x47>
    d2b7:	83 7d f8 00          	cmpl   $0x0,-0x8(%rbp)
    d2bb:	78 2b                	js     d2e8 <safe_lshift_func_int8_t_s_s+0x47>
    d2bd:	83 7d f8 1f          	cmpl   $0x1f,-0x8(%rbp)
    d2c1:	7f 25                	jg     d2e8 <safe_lshift_func_int8_t_s_s+0x47>
    d2c3:	0f be 55 fc          	movsbl -0x4(%rbp),%edx
    d2c7:	8b 45 f8             	mov    -0x8(%rbp),%eax
    d2ca:	be 7f 00 00 00       	mov    $0x7f,%esi
    d2cf:	89 c1                	mov    %eax,%ecx
    d2d1:	d3 fe                	sar    %cl,%esi
    d2d3:	89 f0                	mov    %esi,%eax
    d2d5:	39 c2                	cmp    %eax,%edx
    d2d7:	7f 0f                	jg     d2e8 <safe_lshift_func_int8_t_s_s+0x47>
    d2d9:	0f be 55 fc          	movsbl -0x4(%rbp),%edx
    d2dd:	8b 45 f8             	mov    -0x8(%rbp),%eax
    d2e0:	89 c1                	mov    %eax,%ecx
    d2e2:	d3 e2                	shl    %cl,%edx
    d2e4:	89 d0                	mov    %edx,%eax
    d2e6:	eb 04                	jmp    d2ec <safe_lshift_func_int8_t_s_s+0x4b>
    d2e8:	0f b6 45 fc          	movzbl -0x4(%rbp),%eax
    d2ec:	5d                   	pop    %rbp
    d2ed:	c3                   	retq   

000000000000d2ee <safe_lshift_func_int8_t_s_u>:
    d2ee:	f3 0f 1e fa          	endbr64 
    d2f2:	55                   	push   %rbp
    d2f3:	48 89 e5             	mov    %rsp,%rbp
    d2f6:	89 f8                	mov    %edi,%eax
    d2f8:	89 75 f8             	mov    %esi,-0x8(%rbp)
    d2fb:	88 45 fc             	mov    %al,-0x4(%rbp)
    d2fe:	80 7d fc 00          	cmpb   $0x0,-0x4(%rbp)
    d302:	78 2b                	js     d32f <safe_lshift_func_int8_t_s_u+0x41>
    d304:	83 7d f8 1f          	cmpl   $0x1f,-0x8(%rbp)
    d308:	77 25                	ja     d32f <safe_lshift_func_int8_t_s_u+0x41>
    d30a:	0f be 55 fc          	movsbl -0x4(%rbp),%edx
    d30e:	8b 45 f8             	mov    -0x8(%rbp),%eax
    d311:	be 7f 00 00 00       	mov    $0x7f,%esi
    d316:	89 c1                	mov    %eax,%ecx
    d318:	d3 fe                	sar    %cl,%esi
    d31a:	89 f0                	mov    %esi,%eax
    d31c:	39 c2                	cmp    %eax,%edx
    d31e:	7f 0f                	jg     d32f <safe_lshift_func_int8_t_s_u+0x41>
    d320:	0f be 55 fc          	movsbl -0x4(%rbp),%edx
    d324:	8b 45 f8             	mov    -0x8(%rbp),%eax
    d327:	89 c1                	mov    %eax,%ecx
    d329:	d3 e2                	shl    %cl,%edx
    d32b:	89 d0                	mov    %edx,%eax
    d32d:	eb 04                	jmp    d333 <safe_lshift_func_int8_t_s_u+0x45>
    d32f:	0f b6 45 fc          	movzbl -0x4(%rbp),%eax
    d333:	5d                   	pop    %rbp
    d334:	c3                   	retq   

000000000000d335 <safe_rshift_func_int8_t_s_s>:
    d335:	f3 0f 1e fa          	endbr64 
    d339:	55                   	push   %rbp
    d33a:	48 89 e5             	mov    %rsp,%rbp
    d33d:	89 f8                	mov    %edi,%eax
    d33f:	89 75 f8             	mov    %esi,-0x8(%rbp)
    d342:	88 45 fc             	mov    %al,-0x4(%rbp)
    d345:	80 7d fc 00          	cmpb   $0x0,-0x4(%rbp)
    d349:	78 1b                	js     d366 <safe_rshift_func_int8_t_s_s+0x31>
    d34b:	83 7d f8 00          	cmpl   $0x0,-0x8(%rbp)
    d34f:	78 15                	js     d366 <safe_rshift_func_int8_t_s_s+0x31>
    d351:	83 7d f8 1f          	cmpl   $0x1f,-0x8(%rbp)
    d355:	7f 0f                	jg     d366 <safe_rshift_func_int8_t_s_s+0x31>
    d357:	0f be 55 fc          	movsbl -0x4(%rbp),%edx
    d35b:	8b 45 f8             	mov    -0x8(%rbp),%eax
    d35e:	89 c1                	mov    %eax,%ecx
    d360:	d3 fa                	sar    %cl,%edx
    d362:	89 d0                	mov    %edx,%eax
    d364:	eb 04                	jmp    d36a <safe_rshift_func_int8_t_s_s+0x35>
    d366:	0f b6 45 fc          	movzbl -0x4(%rbp),%eax
    d36a:	5d                   	pop    %rbp
    d36b:	c3                   	retq   

000000000000d36c <safe_rshift_func_int8_t_s_u>:
    d36c:	f3 0f 1e fa          	endbr64 
    d370:	55                   	push   %rbp
    d371:	48 89 e5             	mov    %rsp,%rbp
    d374:	89 f8                	mov    %edi,%eax
    d376:	89 75 f8             	mov    %esi,-0x8(%rbp)
    d379:	88 45 fc             	mov    %al,-0x4(%rbp)
    d37c:	80 7d fc 00          	cmpb   $0x0,-0x4(%rbp)
    d380:	78 15                	js     d397 <safe_rshift_func_int8_t_s_u+0x2b>
    d382:	83 7d f8 1f          	cmpl   $0x1f,-0x8(%rbp)
    d386:	77 0f                	ja     d397 <safe_rshift_func_int8_t_s_u+0x2b>
    d388:	0f be 55 fc          	movsbl -0x4(%rbp),%edx
    d38c:	8b 45 f8             	mov    -0x8(%rbp),%eax
    d38f:	89 c1                	mov    %eax,%ecx
    d391:	d3 fa                	sar    %cl,%edx
    d393:	89 d0                	mov    %edx,%eax
    d395:	eb 04                	jmp    d39b <safe_rshift_func_int8_t_s_u+0x2f>
    d397:	0f b6 45 fc          	movzbl -0x4(%rbp),%eax
    d39b:	5d                   	pop    %rbp
    d39c:	c3                   	retq   

000000000000d39d <safe_unary_minus_func_int16_t_s>:
    d39d:	f3 0f 1e fa          	endbr64 
    d3a1:	55                   	push   %rbp
    d3a2:	48 89 e5             	mov    %rsp,%rbp
    d3a5:	89 f8                	mov    %edi,%eax
    d3a7:	66 89 45 fc          	mov    %ax,-0x4(%rbp)
    d3ab:	0f b7 45 fc          	movzwl -0x4(%rbp),%eax
    d3af:	f7 d8                	neg    %eax
    d3b1:	5d                   	pop    %rbp
    d3b2:	c3                   	retq   

000000000000d3b3 <safe_add_func_int16_t_s_s>:
    d3b3:	f3 0f 1e fa          	endbr64 
    d3b7:	55                   	push   %rbp
    d3b8:	48 89 e5             	mov    %rsp,%rbp
    d3bb:	89 fa                	mov    %edi,%edx
    d3bd:	89 f0                	mov    %esi,%eax
    d3bf:	66 89 55 fc          	mov    %dx,-0x4(%rbp)
    d3c3:	66 89 45 f8          	mov    %ax,-0x8(%rbp)
    d3c7:	0f b7 55 fc          	movzwl -0x4(%rbp),%edx
    d3cb:	0f b7 45 f8          	movzwl -0x8(%rbp),%eax
    d3cf:	01 d0                	add    %edx,%eax
    d3d1:	5d                   	pop    %rbp
    d3d2:	c3                   	retq   

000000000000d3d3 <safe_sub_func_int16_t_s_s>:
    d3d3:	f3 0f 1e fa          	endbr64 
    d3d7:	55                   	push   %rbp
    d3d8:	48 89 e5             	mov    %rsp,%rbp
    d3db:	89 fa                	mov    %edi,%edx
    d3dd:	89 f0                	mov    %esi,%eax
    d3df:	66 89 55 fc          	mov    %dx,-0x4(%rbp)
    d3e3:	66 89 45 f8          	mov    %ax,-0x8(%rbp)
    d3e7:	0f b7 55 fc          	movzwl -0x4(%rbp),%edx
    d3eb:	0f b7 45 f8          	movzwl -0x8(%rbp),%eax
    d3ef:	29 c2                	sub    %eax,%edx
    d3f1:	89 d0                	mov    %edx,%eax
    d3f3:	5d                   	pop    %rbp
    d3f4:	c3                   	retq   

000000000000d3f5 <safe_mul_func_int16_t_s_s>:
    d3f5:	f3 0f 1e fa          	endbr64 
    d3f9:	55                   	push   %rbp
    d3fa:	48 89 e5             	mov    %rsp,%rbp
    d3fd:	89 fa                	mov    %edi,%edx
    d3ff:	89 f0                	mov    %esi,%eax
    d401:	66 89 55 fc          	mov    %dx,-0x4(%rbp)
    d405:	66 89 45 f8          	mov    %ax,-0x8(%rbp)
    d409:	0f b7 55 fc          	movzwl -0x4(%rbp),%edx
    d40d:	0f b7 45 f8          	movzwl -0x8(%rbp),%eax
    d411:	0f af c2             	imul   %edx,%eax
    d414:	5d                   	pop    %rbp
    d415:	c3                   	retq   

000000000000d416 <safe_mod_func_int16_t_s_s>:
    d416:	f3 0f 1e fa          	endbr64 
    d41a:	55                   	push   %rbp
    d41b:	48 89 e5             	mov    %rsp,%rbp
    d41e:	89 fa                	mov    %edi,%edx
    d420:	89 f0                	mov    %esi,%eax
    d422:	66 89 55 fc          	mov    %dx,-0x4(%rbp)
    d426:	66 89 45 f8          	mov    %ax,-0x8(%rbp)
    d42a:	66 83 7d f8 00       	cmpw   $0x0,-0x8(%rbp)
    d42f:	74 1e                	je     d44f <safe_mod_func_int16_t_s_s+0x39>
    d431:	66 81 7d fc 00 80    	cmpw   $0x8000,-0x4(%rbp)
    d437:	75 07                	jne    d440 <safe_mod_func_int16_t_s_s+0x2a>
    d439:	66 83 7d f8 ff       	cmpw   $0xffff,-0x8(%rbp)
    d43e:	74 0f                	je     d44f <safe_mod_func_int16_t_s_s+0x39>
    d440:	0f bf 45 fc          	movswl -0x4(%rbp),%eax
    d444:	0f bf 4d f8          	movswl -0x8(%rbp),%ecx
    d448:	99                   	cltd   
    d449:	f7 f9                	idiv   %ecx
    d44b:	89 d0                	mov    %edx,%eax
    d44d:	eb 04                	jmp    d453 <safe_mod_func_int16_t_s_s+0x3d>
    d44f:	0f b7 45 fc          	movzwl -0x4(%rbp),%eax
    d453:	5d                   	pop    %rbp
    d454:	c3                   	retq   

000000000000d455 <safe_div_func_int16_t_s_s>:
    d455:	f3 0f 1e fa          	endbr64 
    d459:	55                   	push   %rbp
    d45a:	48 89 e5             	mov    %rsp,%rbp
    d45d:	89 fa                	mov    %edi,%edx
    d45f:	89 f0                	mov    %esi,%eax
    d461:	66 89 55 fc          	mov    %dx,-0x4(%rbp)
    d465:	66 89 45 f8          	mov    %ax,-0x8(%rbp)
    d469:	66 83 7d f8 00       	cmpw   $0x0,-0x8(%rbp)
    d46e:	74 1c                	je     d48c <safe_div_func_int16_t_s_s+0x37>
    d470:	66 81 7d fc 00 80    	cmpw   $0x8000,-0x4(%rbp)
    d476:	75 07                	jne    d47f <safe_div_func_int16_t_s_s+0x2a>
    d478:	66 83 7d f8 ff       	cmpw   $0xffff,-0x8(%rbp)
    d47d:	74 0d                	je     d48c <safe_div_func_int16_t_s_s+0x37>
    d47f:	0f bf 45 fc          	movswl -0x4(%rbp),%eax
    d483:	0f bf 4d f8          	movswl -0x8(%rbp),%ecx
    d487:	99                   	cltd   
    d488:	f7 f9                	idiv   %ecx
    d48a:	eb 04                	jmp    d490 <safe_div_func_int16_t_s_s+0x3b>
    d48c:	0f b7 45 fc          	movzwl -0x4(%rbp),%eax
    d490:	5d                   	pop    %rbp
    d491:	c3                   	retq   

000000000000d492 <safe_lshift_func_int16_t_s_s>:
    d492:	f3 0f 1e fa          	endbr64 
    d496:	55                   	push   %rbp
    d497:	48 89 e5             	mov    %rsp,%rbp
    d49a:	89 f8                	mov    %edi,%eax
    d49c:	89 75 f8             	mov    %esi,-0x8(%rbp)
    d49f:	66 89 45 fc          	mov    %ax,-0x4(%rbp)
    d4a3:	66 83 7d fc 00       	cmpw   $0x0,-0x4(%rbp)
    d4a8:	78 31                	js     d4db <safe_lshift_func_int16_t_s_s+0x49>
    d4aa:	83 7d f8 00          	cmpl   $0x0,-0x8(%rbp)
    d4ae:	78 2b                	js     d4db <safe_lshift_func_int16_t_s_s+0x49>
    d4b0:	83 7d f8 1f          	cmpl   $0x1f,-0x8(%rbp)
    d4b4:	7f 25                	jg     d4db <safe_lshift_func_int16_t_s_s+0x49>
    d4b6:	0f bf 55 fc          	movswl -0x4(%rbp),%edx
    d4ba:	8b 45 f8             	mov    -0x8(%rbp),%eax
    d4bd:	be ff 7f 00 00       	mov    $0x7fff,%esi
    d4c2:	89 c1                	mov    %eax,%ecx
    d4c4:	d3 fe                	sar    %cl,%esi
    d4c6:	89 f0                	mov    %esi,%eax
    d4c8:	39 c2                	cmp    %eax,%edx
    d4ca:	7f 0f                	jg     d4db <safe_lshift_func_int16_t_s_s+0x49>
    d4cc:	0f bf 55 fc          	movswl -0x4(%rbp),%edx
    d4d0:	8b 45 f8             	mov    -0x8(%rbp),%eax
    d4d3:	89 c1                	mov    %eax,%ecx
    d4d5:	d3 e2                	shl    %cl,%edx
    d4d7:	89 d0                	mov    %edx,%eax
    d4d9:	eb 04                	jmp    d4df <safe_lshift_func_int16_t_s_s+0x4d>
    d4db:	0f b7 45 fc          	movzwl -0x4(%rbp),%eax
    d4df:	5d                   	pop    %rbp
    d4e0:	c3                   	retq   

000000000000d4e1 <safe_lshift_func_int16_t_s_u>:
    d4e1:	f3 0f 1e fa          	endbr64 
    d4e5:	55                   	push   %rbp
    d4e6:	48 89 e5             	mov    %rsp,%rbp
    d4e9:	89 f8                	mov    %edi,%eax
    d4eb:	89 75 f8             	mov    %esi,-0x8(%rbp)
    d4ee:	66 89 45 fc          	mov    %ax,-0x4(%rbp)
    d4f2:	66 83 7d fc 00       	cmpw   $0x0,-0x4(%rbp)
    d4f7:	78 2b                	js     d524 <safe_lshift_func_int16_t_s_u+0x43>
    d4f9:	83 7d f8 1f          	cmpl   $0x1f,-0x8(%rbp)
    d4fd:	77 25                	ja     d524 <safe_lshift_func_int16_t_s_u+0x43>
    d4ff:	0f bf 55 fc          	movswl -0x4(%rbp),%edx
    d503:	8b 45 f8             	mov    -0x8(%rbp),%eax
    d506:	be ff 7f 00 00       	mov    $0x7fff,%esi
    d50b:	89 c1                	mov    %eax,%ecx
    d50d:	d3 fe                	sar    %cl,%esi
    d50f:	89 f0                	mov    %esi,%eax
    d511:	39 c2                	cmp    %eax,%edx
    d513:	7f 0f                	jg     d524 <safe_lshift_func_int16_t_s_u+0x43>
    d515:	0f bf 55 fc          	movswl -0x4(%rbp),%edx
    d519:	8b 45 f8             	mov    -0x8(%rbp),%eax
    d51c:	89 c1                	mov    %eax,%ecx
    d51e:	d3 e2                	shl    %cl,%edx
    d520:	89 d0                	mov    %edx,%eax
    d522:	eb 04                	jmp    d528 <safe_lshift_func_int16_t_s_u+0x47>
    d524:	0f b7 45 fc          	movzwl -0x4(%rbp),%eax
    d528:	5d                   	pop    %rbp
    d529:	c3                   	retq   

000000000000d52a <safe_rshift_func_int16_t_s_s>:
    d52a:	f3 0f 1e fa          	endbr64 
    d52e:	55                   	push   %rbp
    d52f:	48 89 e5             	mov    %rsp,%rbp
    d532:	89 f8                	mov    %edi,%eax
    d534:	89 75 f8             	mov    %esi,-0x8(%rbp)
    d537:	66 89 45 fc          	mov    %ax,-0x4(%rbp)
    d53b:	66 83 7d fc 00       	cmpw   $0x0,-0x4(%rbp)
    d540:	78 1b                	js     d55d <safe_rshift_func_int16_t_s_s+0x33>
    d542:	83 7d f8 00          	cmpl   $0x0,-0x8(%rbp)
    d546:	78 15                	js     d55d <safe_rshift_func_int16_t_s_s+0x33>
    d548:	83 7d f8 1f          	cmpl   $0x1f,-0x8(%rbp)
    d54c:	7f 0f                	jg     d55d <safe_rshift_func_int16_t_s_s+0x33>
    d54e:	0f bf 55 fc          	movswl -0x4(%rbp),%edx
    d552:	8b 45 f8             	mov    -0x8(%rbp),%eax
    d555:	89 c1                	mov    %eax,%ecx
    d557:	d3 fa                	sar    %cl,%edx
    d559:	89 d0                	mov    %edx,%eax
    d55b:	eb 04                	jmp    d561 <safe_rshift_func_int16_t_s_s+0x37>
    d55d:	0f b7 45 fc          	movzwl -0x4(%rbp),%eax
    d561:	5d                   	pop    %rbp
    d562:	c3                   	retq   

000000000000d563 <safe_rshift_func_int16_t_s_u>:
    d563:	f3 0f 1e fa          	endbr64 
    d567:	55                   	push   %rbp
    d568:	48 89 e5             	mov    %rsp,%rbp
    d56b:	89 f8                	mov    %edi,%eax
    d56d:	89 75 f8             	mov    %esi,-0x8(%rbp)
    d570:	66 89 45 fc          	mov    %ax,-0x4(%rbp)
    d574:	66 83 7d fc 00       	cmpw   $0x0,-0x4(%rbp)
    d579:	78 15                	js     d590 <safe_rshift_func_int16_t_s_u+0x2d>
    d57b:	83 7d f8 1f          	cmpl   $0x1f,-0x8(%rbp)
    d57f:	77 0f                	ja     d590 <safe_rshift_func_int16_t_s_u+0x2d>
    d581:	0f bf 55 fc          	movswl -0x4(%rbp),%edx
    d585:	8b 45 f8             	mov    -0x8(%rbp),%eax
    d588:	89 c1                	mov    %eax,%ecx
    d58a:	d3 fa                	sar    %cl,%edx
    d58c:	89 d0                	mov    %edx,%eax
    d58e:	eb 04                	jmp    d594 <safe_rshift_func_int16_t_s_u+0x31>
    d590:	0f b7 45 fc          	movzwl -0x4(%rbp),%eax
    d594:	5d                   	pop    %rbp
    d595:	c3                   	retq   

000000000000d596 <safe_unary_minus_func_int32_t_s>:
    d596:	f3 0f 1e fa          	endbr64 
    d59a:	55                   	push   %rbp
    d59b:	48 89 e5             	mov    %rsp,%rbp
    d59e:	89 7d fc             	mov    %edi,-0x4(%rbp)
    d5a1:	81 7d fc 00 00 00 80 	cmpl   $0x80000000,-0x4(%rbp)
    d5a8:	74 07                	je     d5b1 <safe_unary_minus_func_int32_t_s+0x1b>
    d5aa:	8b 45 fc             	mov    -0x4(%rbp),%eax
    d5ad:	f7 d8                	neg    %eax
    d5af:	eb 03                	jmp    d5b4 <safe_unary_minus_func_int32_t_s+0x1e>
    d5b1:	8b 45 fc             	mov    -0x4(%rbp),%eax
    d5b4:	5d                   	pop    %rbp
    d5b5:	c3                   	retq   

000000000000d5b6 <safe_add_func_int32_t_s_s>:
    d5b6:	f3 0f 1e fa          	endbr64 
    d5ba:	55                   	push   %rbp
    d5bb:	48 89 e5             	mov    %rsp,%rbp
    d5be:	89 7d fc             	mov    %edi,-0x4(%rbp)
    d5c1:	89 75 f8             	mov    %esi,-0x8(%rbp)
    d5c4:	83 7d fc 00          	cmpl   $0x0,-0x4(%rbp)
    d5c8:	7e 13                	jle    d5dd <safe_add_func_int32_t_s_s+0x27>
    d5ca:	83 7d f8 00          	cmpl   $0x0,-0x8(%rbp)
    d5ce:	7e 0d                	jle    d5dd <safe_add_func_int32_t_s_s+0x27>
    d5d0:	b8 ff ff ff 7f       	mov    $0x7fffffff,%eax
    d5d5:	2b 45 f8             	sub    -0x8(%rbp),%eax
    d5d8:	39 45 fc             	cmp    %eax,-0x4(%rbp)
    d5db:	7f 23                	jg     d600 <safe_add_func_int32_t_s_s+0x4a>
    d5dd:	83 7d fc 00          	cmpl   $0x0,-0x4(%rbp)
    d5e1:	79 13                	jns    d5f6 <safe_add_func_int32_t_s_s+0x40>
    d5e3:	83 7d f8 00          	cmpl   $0x0,-0x8(%rbp)
    d5e7:	79 0d                	jns    d5f6 <safe_add_func_int32_t_s_s+0x40>
    d5e9:	b8 00 00 00 80       	mov    $0x80000000,%eax
    d5ee:	2b 45 f8             	sub    -0x8(%rbp),%eax
    d5f1:	39 45 fc             	cmp    %eax,-0x4(%rbp)
    d5f4:	7c 0a                	jl     d600 <safe_add_func_int32_t_s_s+0x4a>
    d5f6:	8b 55 fc             	mov    -0x4(%rbp),%edx
    d5f9:	8b 45 f8             	mov    -0x8(%rbp),%eax
    d5fc:	01 d0                	add    %edx,%eax
    d5fe:	eb 03                	jmp    d603 <safe_add_func_int32_t_s_s+0x4d>
    d600:	8b 45 fc             	mov    -0x4(%rbp),%eax
    d603:	5d                   	pop    %rbp
    d604:	c3                   	retq   

000000000000d605 <safe_sub_func_int32_t_s_s>:
    d605:	f3 0f 1e fa          	endbr64 
    d609:	55                   	push   %rbp
    d60a:	48 89 e5             	mov    %rsp,%rbp
    d60d:	89 7d fc             	mov    %edi,-0x4(%rbp)
    d610:	89 75 f8             	mov    %esi,-0x8(%rbp)
    d613:	8b 45 fc             	mov    -0x4(%rbp),%eax
    d616:	33 45 f8             	xor    -0x8(%rbp),%eax
    d619:	89 c2                	mov    %eax,%edx
    d61b:	8b 45 fc             	mov    -0x4(%rbp),%eax
    d61e:	33 45 f8             	xor    -0x8(%rbp),%eax
    d621:	25 00 00 00 80       	and    $0x80000000,%eax
    d626:	33 45 fc             	xor    -0x4(%rbp),%eax
    d629:	2b 45 f8             	sub    -0x8(%rbp),%eax
    d62c:	33 45 f8             	xor    -0x8(%rbp),%eax
    d62f:	21 d0                	and    %edx,%eax
    d631:	85 c0                	test   %eax,%eax
    d633:	78 08                	js     d63d <safe_sub_func_int32_t_s_s+0x38>
    d635:	8b 45 fc             	mov    -0x4(%rbp),%eax
    d638:	2b 45 f8             	sub    -0x8(%rbp),%eax
    d63b:	eb 03                	jmp    d640 <safe_sub_func_int32_t_s_s+0x3b>
    d63d:	8b 45 fc             	mov    -0x4(%rbp),%eax
    d640:	5d                   	pop    %rbp
    d641:	c3                   	retq   

000000000000d642 <safe_mul_func_int32_t_s_s>:
    d642:	f3 0f 1e fa          	endbr64 
    d646:	55                   	push   %rbp
    d647:	48 89 e5             	mov    %rsp,%rbp
    d64a:	89 7d fc             	mov    %edi,-0x4(%rbp)
    d64d:	89 75 f8             	mov    %esi,-0x8(%rbp)
    d650:	83 7d fc 00          	cmpl   $0x0,-0x4(%rbp)
    d654:	7e 14                	jle    d66a <safe_mul_func_int32_t_s_s+0x28>
    d656:	83 7d f8 00          	cmpl   $0x0,-0x8(%rbp)
    d65a:	7e 0e                	jle    d66a <safe_mul_func_int32_t_s_s+0x28>
    d65c:	b8 ff ff ff 7f       	mov    $0x7fffffff,%eax
    d661:	99                   	cltd   
    d662:	f7 7d f8             	idivl  -0x8(%rbp)
    d665:	39 45 fc             	cmp    %eax,-0x4(%rbp)
    d668:	7f 5d                	jg     d6c7 <safe_mul_func_int32_t_s_s+0x85>
    d66a:	83 7d fc 00          	cmpl   $0x0,-0x4(%rbp)
    d66e:	7e 14                	jle    d684 <safe_mul_func_int32_t_s_s+0x42>
    d670:	83 7d f8 00          	cmpl   $0x0,-0x8(%rbp)
    d674:	7f 0e                	jg     d684 <safe_mul_func_int32_t_s_s+0x42>
    d676:	b8 00 00 00 80       	mov    $0x80000000,%eax
    d67b:	99                   	cltd   
    d67c:	f7 7d fc             	idivl  -0x4(%rbp)
    d67f:	39 45 f8             	cmp    %eax,-0x8(%rbp)
    d682:	7c 43                	jl     d6c7 <safe_mul_func_int32_t_s_s+0x85>
    d684:	83 7d fc 00          	cmpl   $0x0,-0x4(%rbp)
    d688:	7f 14                	jg     d69e <safe_mul_func_int32_t_s_s+0x5c>
    d68a:	83 7d f8 00          	cmpl   $0x0,-0x8(%rbp)
    d68e:	7e 0e                	jle    d69e <safe_mul_func_int32_t_s_s+0x5c>
    d690:	b8 00 00 00 80       	mov    $0x80000000,%eax
    d695:	99                   	cltd   
    d696:	f7 7d f8             	idivl  -0x8(%rbp)
    d699:	39 45 fc             	cmp    %eax,-0x4(%rbp)
    d69c:	7c 29                	jl     d6c7 <safe_mul_func_int32_t_s_s+0x85>
    d69e:	83 7d fc 00          	cmpl   $0x0,-0x4(%rbp)
    d6a2:	7f 1a                	jg     d6be <safe_mul_func_int32_t_s_s+0x7c>
    d6a4:	83 7d f8 00          	cmpl   $0x0,-0x8(%rbp)
    d6a8:	7f 14                	jg     d6be <safe_mul_func_int32_t_s_s+0x7c>
    d6aa:	83 7d fc 00          	cmpl   $0x0,-0x4(%rbp)
    d6ae:	74 0e                	je     d6be <safe_mul_func_int32_t_s_s+0x7c>
    d6b0:	b8 ff ff ff 7f       	mov    $0x7fffffff,%eax
    d6b5:	99                   	cltd   
    d6b6:	f7 7d fc             	idivl  -0x4(%rbp)
    d6b9:	39 45 f8             	cmp    %eax,-0x8(%rbp)
    d6bc:	7c 09                	jl     d6c7 <safe_mul_func_int32_t_s_s+0x85>
    d6be:	8b 45 fc             	mov    -0x4(%rbp),%eax
    d6c1:	0f af 45 f8          	imul   -0x8(%rbp),%eax
    d6c5:	eb 03                	jmp    d6ca <safe_mul_func_int32_t_s_s+0x88>
    d6c7:	8b 45 fc             	mov    -0x4(%rbp),%eax
    d6ca:	5d                   	pop    %rbp
    d6cb:	c3                   	retq   

000000000000d6cc <safe_mod_func_int32_t_s_s>:
    d6cc:	f3 0f 1e fa          	endbr64 
    d6d0:	55                   	push   %rbp
    d6d1:	48 89 e5             	mov    %rsp,%rbp
    d6d4:	89 7d fc             	mov    %edi,-0x4(%rbp)
    d6d7:	89 75 f8             	mov    %esi,-0x8(%rbp)
    d6da:	83 7d f8 00          	cmpl   $0x0,-0x8(%rbp)
    d6de:	74 1a                	je     d6fa <safe_mod_func_int32_t_s_s+0x2e>
    d6e0:	81 7d fc 00 00 00 80 	cmpl   $0x80000000,-0x4(%rbp)
    d6e7:	75 06                	jne    d6ef <safe_mod_func_int32_t_s_s+0x23>
    d6e9:	83 7d f8 ff          	cmpl   $0xffffffff,-0x8(%rbp)
    d6ed:	74 0b                	je     d6fa <safe_mod_func_int32_t_s_s+0x2e>
    d6ef:	8b 45 fc             	mov    -0x4(%rbp),%eax
    d6f2:	99                   	cltd   
    d6f3:	f7 7d f8             	idivl  -0x8(%rbp)
    d6f6:	89 d0                	mov    %edx,%eax
    d6f8:	eb 03                	jmp    d6fd <safe_mod_func_int32_t_s_s+0x31>
    d6fa:	8b 45 fc             	mov    -0x4(%rbp),%eax
    d6fd:	5d                   	pop    %rbp
    d6fe:	c3                   	retq   

000000000000d6ff <safe_div_func_int32_t_s_s>:
    d6ff:	f3 0f 1e fa          	endbr64 
    d703:	55                   	push   %rbp
    d704:	48 89 e5             	mov    %rsp,%rbp
    d707:	89 7d fc             	mov    %edi,-0x4(%rbp)
    d70a:	89 75 f8             	mov    %esi,-0x8(%rbp)
    d70d:	83 7d f8 00          	cmpl   $0x0,-0x8(%rbp)
    d711:	74 18                	je     d72b <safe_div_func_int32_t_s_s+0x2c>
    d713:	81 7d fc 00 00 00 80 	cmpl   $0x80000000,-0x4(%rbp)
    d71a:	75 06                	jne    d722 <safe_div_func_int32_t_s_s+0x23>
    d71c:	83 7d f8 ff          	cmpl   $0xffffffff,-0x8(%rbp)
    d720:	74 09                	je     d72b <safe_div_func_int32_t_s_s+0x2c>
    d722:	8b 45 fc             	mov    -0x4(%rbp),%eax
    d725:	99                   	cltd   
    d726:	f7 7d f8             	idivl  -0x8(%rbp)
    d729:	eb 03                	jmp    d72e <safe_div_func_int32_t_s_s+0x2f>
    d72b:	8b 45 fc             	mov    -0x4(%rbp),%eax
    d72e:	5d                   	pop    %rbp
    d72f:	c3                   	retq   

000000000000d730 <safe_lshift_func_int32_t_s_s>:
    d730:	f3 0f 1e fa          	endbr64 
    d734:	55                   	push   %rbp
    d735:	48 89 e5             	mov    %rsp,%rbp
    d738:	89 7d fc             	mov    %edi,-0x4(%rbp)
    d73b:	89 75 f8             	mov    %esi,-0x8(%rbp)
    d73e:	83 7d fc 00          	cmpl   $0x0,-0x4(%rbp)
    d742:	78 2d                	js     d771 <safe_lshift_func_int32_t_s_s+0x41>
    d744:	83 7d f8 00          	cmpl   $0x0,-0x8(%rbp)
    d748:	78 27                	js     d771 <safe_lshift_func_int32_t_s_s+0x41>
    d74a:	83 7d f8 1f          	cmpl   $0x1f,-0x8(%rbp)
    d74e:	7f 21                	jg     d771 <safe_lshift_func_int32_t_s_s+0x41>
    d750:	8b 45 f8             	mov    -0x8(%rbp),%eax
    d753:	ba ff ff ff 7f       	mov    $0x7fffffff,%edx
    d758:	89 c1                	mov    %eax,%ecx
    d75a:	d3 fa                	sar    %cl,%edx
    d75c:	89 d0                	mov    %edx,%eax
    d75e:	39 45 fc             	cmp    %eax,-0x4(%rbp)
    d761:	7f 0e                	jg     d771 <safe_lshift_func_int32_t_s_s+0x41>
    d763:	8b 45 f8             	mov    -0x8(%rbp),%eax
    d766:	8b 55 fc             	mov    -0x4(%rbp),%edx
    d769:	89 c1                	mov    %eax,%ecx
    d76b:	d3 e2                	shl    %cl,%edx
    d76d:	89 d0                	mov    %edx,%eax
    d76f:	eb 03                	jmp    d774 <safe_lshift_func_int32_t_s_s+0x44>
    d771:	8b 45 fc             	mov    -0x4(%rbp),%eax
    d774:	5d                   	pop    %rbp
    d775:	c3                   	retq   

000000000000d776 <safe_lshift_func_int32_t_s_u>:
    d776:	f3 0f 1e fa          	endbr64 
    d77a:	55                   	push   %rbp
    d77b:	48 89 e5             	mov    %rsp,%rbp
    d77e:	89 7d fc             	mov    %edi,-0x4(%rbp)
    d781:	89 75 f8             	mov    %esi,-0x8(%rbp)
    d784:	83 7d fc 00          	cmpl   $0x0,-0x4(%rbp)
    d788:	78 27                	js     d7b1 <safe_lshift_func_int32_t_s_u+0x3b>
    d78a:	83 7d f8 1f          	cmpl   $0x1f,-0x8(%rbp)
    d78e:	77 21                	ja     d7b1 <safe_lshift_func_int32_t_s_u+0x3b>
    d790:	8b 45 f8             	mov    -0x8(%rbp),%eax
    d793:	ba ff ff ff 7f       	mov    $0x7fffffff,%edx
    d798:	89 c1                	mov    %eax,%ecx
    d79a:	d3 fa                	sar    %cl,%edx
    d79c:	89 d0                	mov    %edx,%eax
    d79e:	39 45 fc             	cmp    %eax,-0x4(%rbp)
    d7a1:	7f 0e                	jg     d7b1 <safe_lshift_func_int32_t_s_u+0x3b>
    d7a3:	8b 45 f8             	mov    -0x8(%rbp),%eax
    d7a6:	8b 55 fc             	mov    -0x4(%rbp),%edx
    d7a9:	89 c1                	mov    %eax,%ecx
    d7ab:	d3 e2                	shl    %cl,%edx
    d7ad:	89 d0                	mov    %edx,%eax
    d7af:	eb 03                	jmp    d7b4 <safe_lshift_func_int32_t_s_u+0x3e>
    d7b1:	8b 45 fc             	mov    -0x4(%rbp),%eax
    d7b4:	5d                   	pop    %rbp
    d7b5:	c3                   	retq   

000000000000d7b6 <safe_rshift_func_int32_t_s_s>:
    d7b6:	f3 0f 1e fa          	endbr64 
    d7ba:	55                   	push   %rbp
    d7bb:	48 89 e5             	mov    %rsp,%rbp
    d7be:	89 7d fc             	mov    %edi,-0x4(%rbp)
    d7c1:	89 75 f8             	mov    %esi,-0x8(%rbp)
    d7c4:	83 7d fc 00          	cmpl   $0x0,-0x4(%rbp)
    d7c8:	78 1a                	js     d7e4 <safe_rshift_func_int32_t_s_s+0x2e>
    d7ca:	83 7d f8 00          	cmpl   $0x0,-0x8(%rbp)
    d7ce:	78 14                	js     d7e4 <safe_rshift_func_int32_t_s_s+0x2e>
    d7d0:	83 7d f8 1f          	cmpl   $0x1f,-0x8(%rbp)
    d7d4:	7f 0e                	jg     d7e4 <safe_rshift_func_int32_t_s_s+0x2e>
    d7d6:	8b 45 f8             	mov    -0x8(%rbp),%eax
    d7d9:	8b 55 fc             	mov    -0x4(%rbp),%edx
    d7dc:	89 c1                	mov    %eax,%ecx
    d7de:	d3 fa                	sar    %cl,%edx
    d7e0:	89 d0                	mov    %edx,%eax
    d7e2:	eb 03                	jmp    d7e7 <safe_rshift_func_int32_t_s_s+0x31>
    d7e4:	8b 45 fc             	mov    -0x4(%rbp),%eax
    d7e7:	5d                   	pop    %rbp
    d7e8:	c3                   	retq   

000000000000d7e9 <safe_rshift_func_int32_t_s_u>:
    d7e9:	f3 0f 1e fa          	endbr64 
    d7ed:	55                   	push   %rbp
    d7ee:	48 89 e5             	mov    %rsp,%rbp
    d7f1:	89 7d fc             	mov    %edi,-0x4(%rbp)
    d7f4:	89 75 f8             	mov    %esi,-0x8(%rbp)
    d7f7:	83 7d fc 00          	cmpl   $0x0,-0x4(%rbp)
    d7fb:	78 14                	js     d811 <safe_rshift_func_int32_t_s_u+0x28>
    d7fd:	83 7d f8 1f          	cmpl   $0x1f,-0x8(%rbp)
    d801:	77 0e                	ja     d811 <safe_rshift_func_int32_t_s_u+0x28>
    d803:	8b 45 f8             	mov    -0x8(%rbp),%eax
    d806:	8b 55 fc             	mov    -0x4(%rbp),%edx
    d809:	89 c1                	mov    %eax,%ecx
    d80b:	d3 fa                	sar    %cl,%edx
    d80d:	89 d0                	mov    %edx,%eax
    d80f:	eb 03                	jmp    d814 <safe_rshift_func_int32_t_s_u+0x2b>
    d811:	8b 45 fc             	mov    -0x4(%rbp),%eax
    d814:	5d                   	pop    %rbp
    d815:	c3                   	retq   

000000000000d816 <safe_unary_minus_func_int64_t_s>:
    d816:	f3 0f 1e fa          	endbr64 
    d81a:	55                   	push   %rbp
    d81b:	48 89 e5             	mov    %rsp,%rbp
    d81e:	48 89 7d f8          	mov    %rdi,-0x8(%rbp)
    d822:	48 b8 00 00 00 00 00 	movabs $0x8000000000000000,%rax
    d829:	00 00 80 
    d82c:	48 39 45 f8          	cmp    %rax,-0x8(%rbp)
    d830:	74 09                	je     d83b <safe_unary_minus_func_int64_t_s+0x25>
    d832:	48 8b 45 f8          	mov    -0x8(%rbp),%rax
    d836:	48 f7 d8             	neg    %rax
    d839:	eb 04                	jmp    d83f <safe_unary_minus_func_int64_t_s+0x29>
    d83b:	48 8b 45 f8          	mov    -0x8(%rbp),%rax
    d83f:	5d                   	pop    %rbp
    d840:	c3                   	retq   

000000000000d841 <safe_add_func_int64_t_s_s>:
    d841:	f3 0f 1e fa          	endbr64 
    d845:	55                   	push   %rbp
    d846:	48 89 e5             	mov    %rsp,%rbp
    d849:	48 89 7d f8          	mov    %rdi,-0x8(%rbp)
    d84d:	48 89 75 f0          	mov    %rsi,-0x10(%rbp)
    d851:	48 83 7d f8 00       	cmpq   $0x0,-0x8(%rbp)
    d856:	7e 1b                	jle    d873 <safe_add_func_int64_t_s_s+0x32>
    d858:	48 83 7d f0 00       	cmpq   $0x0,-0x10(%rbp)
    d85d:	7e 14                	jle    d873 <safe_add_func_int64_t_s_s+0x32>
    d85f:	48 b8 ff ff ff ff ff 	movabs $0x7fffffffffffffff,%rax
    d866:	ff ff 7f 
    d869:	48 2b 45 f0          	sub    -0x10(%rbp),%rax
    d86d:	48 39 45 f8          	cmp    %rax,-0x8(%rbp)
    d871:	7f 2f                	jg     d8a2 <safe_add_func_int64_t_s_s+0x61>
    d873:	48 83 7d f8 00       	cmpq   $0x0,-0x8(%rbp)
    d878:	79 1b                	jns    d895 <safe_add_func_int64_t_s_s+0x54>
    d87a:	48 83 7d f0 00       	cmpq   $0x0,-0x10(%rbp)
    d87f:	79 14                	jns    d895 <safe_add_func_int64_t_s_s+0x54>
    d881:	48 b8 00 00 00 00 00 	movabs $0x8000000000000000,%rax
    d888:	00 00 80 
    d88b:	48 2b 45 f0          	sub    -0x10(%rbp),%rax
    d88f:	48 39 45 f8          	cmp    %rax,-0x8(%rbp)
    d893:	7c 0d                	jl     d8a2 <safe_add_func_int64_t_s_s+0x61>
    d895:	48 8b 55 f8          	mov    -0x8(%rbp),%rdx
    d899:	48 8b 45 f0          	mov    -0x10(%rbp),%rax
    d89d:	48 01 d0             	add    %rdx,%rax
    d8a0:	eb 04                	jmp    d8a6 <safe_add_func_int64_t_s_s+0x65>
    d8a2:	48 8b 45 f8          	mov    -0x8(%rbp),%rax
    d8a6:	5d                   	pop    %rbp
    d8a7:	c3                   	retq   

000000000000d8a8 <safe_sub_func_int64_t_s_s>:
    d8a8:	f3 0f 1e fa          	endbr64 
    d8ac:	55                   	push   %rbp
    d8ad:	48 89 e5             	mov    %rsp,%rbp
    d8b0:	48 89 7d f8          	mov    %rdi,-0x8(%rbp)
    d8b4:	48 89 75 f0          	mov    %rsi,-0x10(%rbp)
    d8b8:	48 8b 45 f8          	mov    -0x8(%rbp),%rax
    d8bc:	48 33 45 f0          	xor    -0x10(%rbp),%rax
    d8c0:	48 89 c2             	mov    %rax,%rdx
    d8c3:	48 8b 45 f8          	mov    -0x8(%rbp),%rax
    d8c7:	48 33 45 f0          	xor    -0x10(%rbp),%rax
    d8cb:	48 b9 00 00 00 00 00 	movabs $0x8000000000000000,%rcx
    d8d2:	00 00 80 
    d8d5:	48 21 c8             	and    %rcx,%rax
    d8d8:	48 33 45 f8          	xor    -0x8(%rbp),%rax
    d8dc:	48 2b 45 f0          	sub    -0x10(%rbp),%rax
    d8e0:	48 33 45 f0          	xor    -0x10(%rbp),%rax
    d8e4:	48 21 d0             	and    %rdx,%rax
    d8e7:	48 85 c0             	test   %rax,%rax
    d8ea:	78 0a                	js     d8f6 <safe_sub_func_int64_t_s_s+0x4e>
    d8ec:	48 8b 45 f8          	mov    -0x8(%rbp),%rax
    d8f0:	48 2b 45 f0          	sub    -0x10(%rbp),%rax
    d8f4:	eb 04                	jmp    d8fa <safe_sub_func_int64_t_s_s+0x52>
    d8f6:	48 8b 45 f8          	mov    -0x8(%rbp),%rax
    d8fa:	5d                   	pop    %rbp
    d8fb:	c3                   	retq   

000000000000d8fc <safe_mul_func_int64_t_s_s>:
    d8fc:	f3 0f 1e fa          	endbr64 
    d900:	55                   	push   %rbp
    d901:	48 89 e5             	mov    %rsp,%rbp
    d904:	48 89 7d f8          	mov    %rdi,-0x8(%rbp)
    d908:	48 89 75 f0          	mov    %rsi,-0x10(%rbp)
    d90c:	48 83 7d f8 00       	cmpq   $0x0,-0x8(%rbp)
    d911:	7e 1d                	jle    d930 <safe_mul_func_int64_t_s_s+0x34>
    d913:	48 83 7d f0 00       	cmpq   $0x0,-0x10(%rbp)
    d918:	7e 16                	jle    d930 <safe_mul_func_int64_t_s_s+0x34>
    d91a:	48 b8 ff ff ff ff ff 	movabs $0x7fffffffffffffff,%rax
    d921:	ff ff 7f 
    d924:	48 99                	cqto   
    d926:	48 f7 7d f0          	idivq  -0x10(%rbp)
    d92a:	48 39 45 f8          	cmp    %rax,-0x8(%rbp)
    d92e:	7f 7e                	jg     d9ae <safe_mul_func_int64_t_s_s+0xb2>
    d930:	48 83 7d f8 00       	cmpq   $0x0,-0x8(%rbp)
    d935:	7e 1d                	jle    d954 <safe_mul_func_int64_t_s_s+0x58>
    d937:	48 83 7d f0 00       	cmpq   $0x0,-0x10(%rbp)
    d93c:	7f 16                	jg     d954 <safe_mul_func_int64_t_s_s+0x58>
    d93e:	48 b8 00 00 00 00 00 	movabs $0x8000000000000000,%rax
    d945:	00 00 80 
    d948:	48 99                	cqto   
    d94a:	48 f7 7d f8          	idivq  -0x8(%rbp)
    d94e:	48 39 45 f0          	cmp    %rax,-0x10(%rbp)
    d952:	7c 5a                	jl     d9ae <safe_mul_func_int64_t_s_s+0xb2>
    d954:	48 83 7d f8 00       	cmpq   $0x0,-0x8(%rbp)
    d959:	7f 1d                	jg     d978 <safe_mul_func_int64_t_s_s+0x7c>
    d95b:	48 83 7d f0 00       	cmpq   $0x0,-0x10(%rbp)
    d960:	7e 16                	jle    d978 <safe_mul_func_int64_t_s_s+0x7c>
    d962:	48 b8 00 00 00 00 00 	movabs $0x8000000000000000,%rax
    d969:	00 00 80 
    d96c:	48 99                	cqto   
    d96e:	48 f7 7d f0          	idivq  -0x10(%rbp)
    d972:	48 39 45 f8          	cmp    %rax,-0x8(%rbp)
    d976:	7c 36                	jl     d9ae <safe_mul_func_int64_t_s_s+0xb2>
    d978:	48 83 7d f8 00       	cmpq   $0x0,-0x8(%rbp)
    d97d:	7f 24                	jg     d9a3 <safe_mul_func_int64_t_s_s+0xa7>
    d97f:	48 83 7d f0 00       	cmpq   $0x0,-0x10(%rbp)
    d984:	7f 1d                	jg     d9a3 <safe_mul_func_int64_t_s_s+0xa7>
    d986:	48 83 7d f8 00       	cmpq   $0x0,-0x8(%rbp)
    d98b:	74 16                	je     d9a3 <safe_mul_func_int64_t_s_s+0xa7>
    d98d:	48 b8 ff ff ff ff ff 	movabs $0x7fffffffffffffff,%rax
    d994:	ff ff 7f 
    d997:	48 99                	cqto   
    d999:	48 f7 7d f8          	idivq  -0x8(%rbp)
    d99d:	48 39 45 f0          	cmp    %rax,-0x10(%rbp)
    d9a1:	7c 0b                	jl     d9ae <safe_mul_func_int64_t_s_s+0xb2>
    d9a3:	48 8b 45 f8          	mov    -0x8(%rbp),%rax
    d9a7:	48 0f af 45 f0       	imul   -0x10(%rbp),%rax
    d9ac:	eb 04                	jmp    d9b2 <safe_mul_func_int64_t_s_s+0xb6>
    d9ae:	48 8b 45 f8          	mov    -0x8(%rbp),%rax
    d9b2:	5d                   	pop    %rbp
    d9b3:	c3                   	retq   

000000000000d9b4 <safe_mod_func_int64_t_s_s>:
    d9b4:	f3 0f 1e fa          	endbr64 
    d9b8:	55                   	push   %rbp
    d9b9:	48 89 e5             	mov    %rsp,%rbp
    d9bc:	48 89 7d f8          	mov    %rdi,-0x8(%rbp)
    d9c0:	48 89 75 f0          	mov    %rsi,-0x10(%rbp)
    d9c4:	48 83 7d f0 00       	cmpq   $0x0,-0x10(%rbp)
    d9c9:	74 26                	je     d9f1 <safe_mod_func_int64_t_s_s+0x3d>
    d9cb:	48 b8 00 00 00 00 00 	movabs $0x8000000000000000,%rax
    d9d2:	00 00 80 
    d9d5:	48 39 45 f8          	cmp    %rax,-0x8(%rbp)
    d9d9:	75 07                	jne    d9e2 <safe_mod_func_int64_t_s_s+0x2e>
    d9db:	48 83 7d f0 ff       	cmpq   $0xffffffffffffffff,-0x10(%rbp)
    d9e0:	74 0f                	je     d9f1 <safe_mod_func_int64_t_s_s+0x3d>
    d9e2:	48 8b 45 f8          	mov    -0x8(%rbp),%rax
    d9e6:	48 99                	cqto   
    d9e8:	48 f7 7d f0          	idivq  -0x10(%rbp)
    d9ec:	48 89 d0             	mov    %rdx,%rax
    d9ef:	eb 04                	jmp    d9f5 <safe_mod_func_int64_t_s_s+0x41>
    d9f1:	48 8b 45 f8          	mov    -0x8(%rbp),%rax
    d9f5:	5d                   	pop    %rbp
    d9f6:	c3                   	retq   

000000000000d9f7 <safe_div_func_int64_t_s_s>:
    d9f7:	f3 0f 1e fa          	endbr64 
    d9fb:	55                   	push   %rbp
    d9fc:	48 89 e5             	mov    %rsp,%rbp
    d9ff:	48 89 7d f8          	mov    %rdi,-0x8(%rbp)
    da03:	48 89 75 f0          	mov    %rsi,-0x10(%rbp)
    da07:	48 83 7d f0 00       	cmpq   $0x0,-0x10(%rbp)
    da0c:	74 23                	je     da31 <safe_div_func_int64_t_s_s+0x3a>
    da0e:	48 b8 00 00 00 00 00 	movabs $0x8000000000000000,%rax
    da15:	00 00 80 
    da18:	48 39 45 f8          	cmp    %rax,-0x8(%rbp)
    da1c:	75 07                	jne    da25 <safe_div_func_int64_t_s_s+0x2e>
    da1e:	48 83 7d f0 ff       	cmpq   $0xffffffffffffffff,-0x10(%rbp)
    da23:	74 0c                	je     da31 <safe_div_func_int64_t_s_s+0x3a>
    da25:	48 8b 45 f8          	mov    -0x8(%rbp),%rax
    da29:	48 99                	cqto   
    da2b:	48 f7 7d f0          	idivq  -0x10(%rbp)
    da2f:	eb 04                	jmp    da35 <safe_div_func_int64_t_s_s+0x3e>
    da31:	48 8b 45 f8          	mov    -0x8(%rbp),%rax
    da35:	5d                   	pop    %rbp
    da36:	c3                   	retq   

000000000000da37 <safe_lshift_func_int64_t_s_s>:
    da37:	f3 0f 1e fa          	endbr64 
    da3b:	55                   	push   %rbp
    da3c:	48 89 e5             	mov    %rsp,%rbp
    da3f:	48 89 7d f8          	mov    %rdi,-0x8(%rbp)
    da43:	89 75 f4             	mov    %esi,-0xc(%rbp)
    da46:	48 83 7d f8 00       	cmpq   $0x0,-0x8(%rbp)
    da4b:	78 38                	js     da85 <safe_lshift_func_int64_t_s_s+0x4e>
    da4d:	83 7d f4 00          	cmpl   $0x0,-0xc(%rbp)
    da51:	78 32                	js     da85 <safe_lshift_func_int64_t_s_s+0x4e>
    da53:	83 7d f4 1f          	cmpl   $0x1f,-0xc(%rbp)
    da57:	7f 2c                	jg     da85 <safe_lshift_func_int64_t_s_s+0x4e>
    da59:	8b 45 f4             	mov    -0xc(%rbp),%eax
    da5c:	48 ba ff ff ff ff ff 	movabs $0x7fffffffffffffff,%rdx
    da63:	ff ff 7f 
    da66:	89 c1                	mov    %eax,%ecx
    da68:	48 d3 fa             	sar    %cl,%rdx
    da6b:	48 89 d0             	mov    %rdx,%rax
    da6e:	48 39 45 f8          	cmp    %rax,-0x8(%rbp)
    da72:	7f 11                	jg     da85 <safe_lshift_func_int64_t_s_s+0x4e>
    da74:	8b 45 f4             	mov    -0xc(%rbp),%eax
    da77:	48 8b 55 f8          	mov    -0x8(%rbp),%rdx
    da7b:	89 c1                	mov    %eax,%ecx
    da7d:	48 d3 e2             	shl    %cl,%rdx
    da80:	48 89 d0             	mov    %rdx,%rax
    da83:	eb 04                	jmp    da89 <safe_lshift_func_int64_t_s_s+0x52>
    da85:	48 8b 45 f8          	mov    -0x8(%rbp),%rax
    da89:	5d                   	pop    %rbp
    da8a:	c3                   	retq   

000000000000da8b <safe_lshift_func_int64_t_s_u>:
    da8b:	f3 0f 1e fa          	endbr64 
    da8f:	55                   	push   %rbp
    da90:	48 89 e5             	mov    %rsp,%rbp
    da93:	48 89 7d f8          	mov    %rdi,-0x8(%rbp)
    da97:	89 75 f4             	mov    %esi,-0xc(%rbp)
    da9a:	48 83 7d f8 00       	cmpq   $0x0,-0x8(%rbp)
    da9f:	78 32                	js     dad3 <safe_lshift_func_int64_t_s_u+0x48>
    daa1:	83 7d f4 1f          	cmpl   $0x1f,-0xc(%rbp)
    daa5:	77 2c                	ja     dad3 <safe_lshift_func_int64_t_s_u+0x48>
    daa7:	8b 45 f4             	mov    -0xc(%rbp),%eax
    daaa:	48 ba ff ff ff ff ff 	movabs $0x7fffffffffffffff,%rdx
    dab1:	ff ff 7f 
    dab4:	89 c1                	mov    %eax,%ecx
    dab6:	48 d3 fa             	sar    %cl,%rdx
    dab9:	48 89 d0             	mov    %rdx,%rax
    dabc:	48 39 45 f8          	cmp    %rax,-0x8(%rbp)
    dac0:	7f 11                	jg     dad3 <safe_lshift_func_int64_t_s_u+0x48>
    dac2:	8b 45 f4             	mov    -0xc(%rbp),%eax
    dac5:	48 8b 55 f8          	mov    -0x8(%rbp),%rdx
    dac9:	89 c1                	mov    %eax,%ecx
    dacb:	48 d3 e2             	shl    %cl,%rdx
    dace:	48 89 d0             	mov    %rdx,%rax
    dad1:	eb 04                	jmp    dad7 <safe_lshift_func_int64_t_s_u+0x4c>
    dad3:	48 8b 45 f8          	mov    -0x8(%rbp),%rax
    dad7:	5d                   	pop    %rbp
    dad8:	c3                   	retq   

000000000000dad9 <safe_rshift_func_int64_t_s_s>:
    dad9:	f3 0f 1e fa          	endbr64 
    dadd:	55                   	push   %rbp
    dade:	48 89 e5             	mov    %rsp,%rbp
    dae1:	48 89 7d f8          	mov    %rdi,-0x8(%rbp)
    dae5:	89 75 f4             	mov    %esi,-0xc(%rbp)
    dae8:	48 83 7d f8 00       	cmpq   $0x0,-0x8(%rbp)
    daed:	78 1d                	js     db0c <safe_rshift_func_int64_t_s_s+0x33>
    daef:	83 7d f4 00          	cmpl   $0x0,-0xc(%rbp)
    daf3:	78 17                	js     db0c <safe_rshift_func_int64_t_s_s+0x33>
    daf5:	83 7d f4 1f          	cmpl   $0x1f,-0xc(%rbp)
    daf9:	7f 11                	jg     db0c <safe_rshift_func_int64_t_s_s+0x33>
    dafb:	8b 45 f4             	mov    -0xc(%rbp),%eax
    dafe:	48 8b 55 f8          	mov    -0x8(%rbp),%rdx
    db02:	89 c1                	mov    %eax,%ecx
    db04:	48 d3 fa             	sar    %cl,%rdx
    db07:	48 89 d0             	mov    %rdx,%rax
    db0a:	eb 04                	jmp    db10 <safe_rshift_func_int64_t_s_s+0x37>
    db0c:	48 8b 45 f8          	mov    -0x8(%rbp),%rax
    db10:	5d                   	pop    %rbp
    db11:	c3                   	retq   

000000000000db12 <safe_rshift_func_int64_t_s_u>:
    db12:	f3 0f 1e fa          	endbr64 
    db16:	55                   	push   %rbp
    db17:	48 89 e5             	mov    %rsp,%rbp
    db1a:	48 89 7d f8          	mov    %rdi,-0x8(%rbp)
    db1e:	89 75 f4             	mov    %esi,-0xc(%rbp)
    db21:	48 83 7d f8 00       	cmpq   $0x0,-0x8(%rbp)
    db26:	78 17                	js     db3f <safe_rshift_func_int64_t_s_u+0x2d>
    db28:	83 7d f4 1f          	cmpl   $0x1f,-0xc(%rbp)
    db2c:	77 11                	ja     db3f <safe_rshift_func_int64_t_s_u+0x2d>
    db2e:	8b 45 f4             	mov    -0xc(%rbp),%eax
    db31:	48 8b 55 f8          	mov    -0x8(%rbp),%rdx
    db35:	89 c1                	mov    %eax,%ecx
    db37:	48 d3 fa             	sar    %cl,%rdx
    db3a:	48 89 d0             	mov    %rdx,%rax
    db3d:	eb 04                	jmp    db43 <safe_rshift_func_int64_t_s_u+0x31>
    db3f:	48 8b 45 f8          	mov    -0x8(%rbp),%rax
    db43:	5d                   	pop    %rbp
    db44:	c3                   	retq   

000000000000db45 <safe_unary_minus_func_uint8_t_u>:
    db45:	f3 0f 1e fa          	endbr64 
    db49:	55                   	push   %rbp
    db4a:	48 89 e5             	mov    %rsp,%rbp
    db4d:	89 f8                	mov    %edi,%eax
    db4f:	88 45 fc             	mov    %al,-0x4(%rbp)
    db52:	0f b6 45 fc          	movzbl -0x4(%rbp),%eax
    db56:	f7 d8                	neg    %eax
    db58:	5d                   	pop    %rbp
    db59:	c3                   	retq   

000000000000db5a <safe_add_func_uint8_t_u_u>:
    db5a:	f3 0f 1e fa          	endbr64 
    db5e:	55                   	push   %rbp
    db5f:	48 89 e5             	mov    %rsp,%rbp
    db62:	89 fa                	mov    %edi,%edx
    db64:	89 f0                	mov    %esi,%eax
    db66:	88 55 fc             	mov    %dl,-0x4(%rbp)
    db69:	88 45 f8             	mov    %al,-0x8(%rbp)
    db6c:	0f b6 55 fc          	movzbl -0x4(%rbp),%edx
    db70:	0f b6 45 f8          	movzbl -0x8(%rbp),%eax
    db74:	01 d0                	add    %edx,%eax
    db76:	5d                   	pop    %rbp
    db77:	c3                   	retq   

000000000000db78 <safe_sub_func_uint8_t_u_u>:
    db78:	f3 0f 1e fa          	endbr64 
    db7c:	55                   	push   %rbp
    db7d:	48 89 e5             	mov    %rsp,%rbp
    db80:	89 fa                	mov    %edi,%edx
    db82:	89 f0                	mov    %esi,%eax
    db84:	88 55 fc             	mov    %dl,-0x4(%rbp)
    db87:	88 45 f8             	mov    %al,-0x8(%rbp)
    db8a:	0f b6 45 fc          	movzbl -0x4(%rbp),%eax
    db8e:	2a 45 f8             	sub    -0x8(%rbp),%al
    db91:	5d                   	pop    %rbp
    db92:	c3                   	retq   

000000000000db93 <safe_mul_func_uint8_t_u_u>:
    db93:	f3 0f 1e fa          	endbr64 
    db97:	55                   	push   %rbp
    db98:	48 89 e5             	mov    %rsp,%rbp
    db9b:	89 fa                	mov    %edi,%edx
    db9d:	89 f0                	mov    %esi,%eax
    db9f:	88 55 fc             	mov    %dl,-0x4(%rbp)
    dba2:	88 45 f8             	mov    %al,-0x8(%rbp)
    dba5:	0f b6 45 fc          	movzbl -0x4(%rbp),%eax
    dba9:	f6 65 f8             	mulb   -0x8(%rbp)
    dbac:	5d                   	pop    %rbp
    dbad:	c3                   	retq   

000000000000dbae <safe_mod_func_uint8_t_u_u>:
    dbae:	f3 0f 1e fa          	endbr64 
    dbb2:	55                   	push   %rbp
    dbb3:	48 89 e5             	mov    %rsp,%rbp
    dbb6:	89 fa                	mov    %edi,%edx
    dbb8:	89 f0                	mov    %esi,%eax
    dbba:	88 55 fc             	mov    %dl,-0x4(%rbp)
    dbbd:	88 45 f8             	mov    %al,-0x8(%rbp)
    dbc0:	80 7d f8 00          	cmpb   $0x0,-0x8(%rbp)
    dbc4:	74 0f                	je     dbd5 <safe_mod_func_uint8_t_u_u+0x27>
    dbc6:	0f b6 45 fc          	movzbl -0x4(%rbp),%eax
    dbca:	0f b6 c0             	movzbl %al,%eax
    dbcd:	f6 75 f8             	divb   -0x8(%rbp)
    dbd0:	0f b6 c4             	movzbl %ah,%eax
    dbd3:	eb 04                	jmp    dbd9 <safe_mod_func_uint8_t_u_u+0x2b>
    dbd5:	0f b6 45 fc          	movzbl -0x4(%rbp),%eax
    dbd9:	5d                   	pop    %rbp
    dbda:	c3                   	retq   

000000000000dbdb <safe_div_func_uint8_t_u_u>:
    dbdb:	f3 0f 1e fa          	endbr64 
    dbdf:	55                   	push   %rbp
    dbe0:	48 89 e5             	mov    %rsp,%rbp
    dbe3:	89 fa                	mov    %edi,%edx
    dbe5:	89 f0                	mov    %esi,%eax
    dbe7:	88 55 fc             	mov    %dl,-0x4(%rbp)
    dbea:	88 45 f8             	mov    %al,-0x8(%rbp)
    dbed:	80 7d f8 00          	cmpb   $0x0,-0x8(%rbp)
    dbf1:	74 0c                	je     dbff <safe_div_func_uint8_t_u_u+0x24>
    dbf3:	0f b6 45 fc          	movzbl -0x4(%rbp),%eax
    dbf7:	0f b6 c0             	movzbl %al,%eax
    dbfa:	f6 75 f8             	divb   -0x8(%rbp)
    dbfd:	eb 04                	jmp    dc03 <safe_div_func_uint8_t_u_u+0x28>
    dbff:	0f b6 45 fc          	movzbl -0x4(%rbp),%eax
    dc03:	5d                   	pop    %rbp
    dc04:	c3                   	retq   

000000000000dc05 <safe_lshift_func_uint8_t_u_s>:
    dc05:	f3 0f 1e fa          	endbr64 
    dc09:	55                   	push   %rbp
    dc0a:	48 89 e5             	mov    %rsp,%rbp
    dc0d:	89 f8                	mov    %edi,%eax
    dc0f:	89 75 f8             	mov    %esi,-0x8(%rbp)
    dc12:	88 45 fc             	mov    %al,-0x4(%rbp)
    dc15:	83 7d f8 00          	cmpl   $0x0,-0x8(%rbp)
    dc19:	78 2b                	js     dc46 <safe_lshift_func_uint8_t_u_s+0x41>
    dc1b:	83 7d f8 1f          	cmpl   $0x1f,-0x8(%rbp)
    dc1f:	7f 25                	jg     dc46 <safe_lshift_func_uint8_t_u_s+0x41>
    dc21:	0f b6 55 fc          	movzbl -0x4(%rbp),%edx
    dc25:	8b 45 f8             	mov    -0x8(%rbp),%eax
    dc28:	be ff 00 00 00       	mov    $0xff,%esi
    dc2d:	89 c1                	mov    %eax,%ecx
    dc2f:	d3 fe                	sar    %cl,%esi
    dc31:	89 f0                	mov    %esi,%eax
    dc33:	39 c2                	cmp    %eax,%edx
    dc35:	7f 0f                	jg     dc46 <safe_lshift_func_uint8_t_u_s+0x41>
    dc37:	0f b6 55 fc          	movzbl -0x4(%rbp),%edx
    dc3b:	8b 45 f8             	mov    -0x8(%rbp),%eax
    dc3e:	89 c1                	mov    %eax,%ecx
    dc40:	d3 e2                	shl    %cl,%edx
    dc42:	89 d0                	mov    %edx,%eax
    dc44:	eb 04                	jmp    dc4a <safe_lshift_func_uint8_t_u_s+0x45>
    dc46:	0f b6 45 fc          	movzbl -0x4(%rbp),%eax
    dc4a:	5d                   	pop    %rbp
    dc4b:	c3                   	retq   

000000000000dc4c <safe_lshift_func_uint8_t_u_u>:
    dc4c:	f3 0f 1e fa          	endbr64 
    dc50:	55                   	push   %rbp
    dc51:	48 89 e5             	mov    %rsp,%rbp
    dc54:	89 f8                	mov    %edi,%eax
    dc56:	89 75 f8             	mov    %esi,-0x8(%rbp)
    dc59:	88 45 fc             	mov    %al,-0x4(%rbp)
    dc5c:	83 7d f8 1f          	cmpl   $0x1f,-0x8(%rbp)
    dc60:	77 25                	ja     dc87 <safe_lshift_func_uint8_t_u_u+0x3b>
    dc62:	0f b6 55 fc          	movzbl -0x4(%rbp),%edx
    dc66:	8b 45 f8             	mov    -0x8(%rbp),%eax
    dc69:	be ff 00 00 00       	mov    $0xff,%esi
    dc6e:	89 c1                	mov    %eax,%ecx
    dc70:	d3 fe                	sar    %cl,%esi
    dc72:	89 f0                	mov    %esi,%eax
    dc74:	39 c2                	cmp    %eax,%edx
    dc76:	7f 0f                	jg     dc87 <safe_lshift_func_uint8_t_u_u+0x3b>
    dc78:	0f b6 55 fc          	movzbl -0x4(%rbp),%edx
    dc7c:	8b 45 f8             	mov    -0x8(%rbp),%eax
    dc7f:	89 c1                	mov    %eax,%ecx
    dc81:	d3 e2                	shl    %cl,%edx
    dc83:	89 d0                	mov    %edx,%eax
    dc85:	eb 04                	jmp    dc8b <safe_lshift_func_uint8_t_u_u+0x3f>
    dc87:	0f b6 45 fc          	movzbl -0x4(%rbp),%eax
    dc8b:	5d                   	pop    %rbp
    dc8c:	c3                   	retq   

000000000000dc8d <safe_rshift_func_uint8_t_u_s>:
    dc8d:	f3 0f 1e fa          	endbr64 
    dc91:	55                   	push   %rbp
    dc92:	48 89 e5             	mov    %rsp,%rbp
    dc95:	89 f8                	mov    %edi,%eax
    dc97:	89 75 f8             	mov    %esi,-0x8(%rbp)
    dc9a:	88 45 fc             	mov    %al,-0x4(%rbp)
    dc9d:	83 7d f8 00          	cmpl   $0x0,-0x8(%rbp)
    dca1:	78 15                	js     dcb8 <safe_rshift_func_uint8_t_u_s+0x2b>
    dca3:	83 7d f8 1f          	cmpl   $0x1f,-0x8(%rbp)
    dca7:	7f 0f                	jg     dcb8 <safe_rshift_func_uint8_t_u_s+0x2b>
    dca9:	0f b6 55 fc          	movzbl -0x4(%rbp),%edx
    dcad:	8b 45 f8             	mov    -0x8(%rbp),%eax
    dcb0:	89 c1                	mov    %eax,%ecx
    dcb2:	d3 fa                	sar    %cl,%edx
    dcb4:	89 d0                	mov    %edx,%eax
    dcb6:	eb 04                	jmp    dcbc <safe_rshift_func_uint8_t_u_s+0x2f>
    dcb8:	0f b6 45 fc          	movzbl -0x4(%rbp),%eax
    dcbc:	5d                   	pop    %rbp
    dcbd:	c3                   	retq   

000000000000dcbe <safe_rshift_func_uint8_t_u_u>:
    dcbe:	f3 0f 1e fa          	endbr64 
    dcc2:	55                   	push   %rbp
    dcc3:	48 89 e5             	mov    %rsp,%rbp
    dcc6:	89 f8                	mov    %edi,%eax
    dcc8:	89 75 f8             	mov    %esi,-0x8(%rbp)
    dccb:	88 45 fc             	mov    %al,-0x4(%rbp)
    dcce:	83 7d f8 1f          	cmpl   $0x1f,-0x8(%rbp)
    dcd2:	77 0f                	ja     dce3 <safe_rshift_func_uint8_t_u_u+0x25>
    dcd4:	0f b6 55 fc          	movzbl -0x4(%rbp),%edx
    dcd8:	8b 45 f8             	mov    -0x8(%rbp),%eax
    dcdb:	89 c1                	mov    %eax,%ecx
    dcdd:	d3 fa                	sar    %cl,%edx
    dcdf:	89 d0                	mov    %edx,%eax
    dce1:	eb 04                	jmp    dce7 <safe_rshift_func_uint8_t_u_u+0x29>
    dce3:	0f b6 45 fc          	movzbl -0x4(%rbp),%eax
    dce7:	5d                   	pop    %rbp
    dce8:	c3                   	retq   

000000000000dce9 <safe_unary_minus_func_uint16_t_u>:
    dce9:	f3 0f 1e fa          	endbr64 
    dced:	55                   	push   %rbp
    dcee:	48 89 e5             	mov    %rsp,%rbp
    dcf1:	89 f8                	mov    %edi,%eax
    dcf3:	66 89 45 fc          	mov    %ax,-0x4(%rbp)
    dcf7:	0f b7 45 fc          	movzwl -0x4(%rbp),%eax
    dcfb:	f7 d8                	neg    %eax
    dcfd:	5d                   	pop    %rbp
    dcfe:	c3                   	retq   

000000000000dcff <safe_add_func_uint16_t_u_u>:
    dcff:	f3 0f 1e fa          	endbr64 
    dd03:	55                   	push   %rbp
    dd04:	48 89 e5             	mov    %rsp,%rbp
    dd07:	89 fa                	mov    %edi,%edx
    dd09:	89 f0                	mov    %esi,%eax
    dd0b:	66 89 55 fc          	mov    %dx,-0x4(%rbp)
    dd0f:	66 89 45 f8          	mov    %ax,-0x8(%rbp)
    dd13:	0f b7 55 fc          	movzwl -0x4(%rbp),%edx
    dd17:	0f b7 45 f8          	movzwl -0x8(%rbp),%eax
    dd1b:	01 d0                	add    %edx,%eax
    dd1d:	5d                   	pop    %rbp
    dd1e:	c3                   	retq   

000000000000dd1f <safe_sub_func_uint16_t_u_u>:
    dd1f:	f3 0f 1e fa          	endbr64 
    dd23:	55                   	push   %rbp
    dd24:	48 89 e5             	mov    %rsp,%rbp
    dd27:	89 fa                	mov    %edi,%edx
    dd29:	89 f0                	mov    %esi,%eax
    dd2b:	66 89 55 fc          	mov    %dx,-0x4(%rbp)
    dd2f:	66 89 45 f8          	mov    %ax,-0x8(%rbp)
    dd33:	0f b7 45 fc          	movzwl -0x4(%rbp),%eax
    dd37:	66 2b 45 f8          	sub    -0x8(%rbp),%ax
    dd3b:	5d                   	pop    %rbp
    dd3c:	c3                   	retq   

000000000000dd3d <safe_mul_func_uint16_t_u_u>:
    dd3d:	f3 0f 1e fa          	endbr64 
    dd41:	55                   	push   %rbp
    dd42:	48 89 e5             	mov    %rsp,%rbp
    dd45:	89 fa                	mov    %edi,%edx
    dd47:	89 f0                	mov    %esi,%eax
    dd49:	66 89 55 fc          	mov    %dx,-0x4(%rbp)
    dd4d:	66 89 45 f8          	mov    %ax,-0x8(%rbp)
    dd51:	0f b7 45 fc          	movzwl -0x4(%rbp),%eax
    dd55:	66 0f af 45 f8       	imul   -0x8(%rbp),%ax
    dd5a:	5d                   	pop    %rbp
    dd5b:	c3                   	retq   

000000000000dd5c <safe_mod_func_uint16_t_u_u>:
    dd5c:	f3 0f 1e fa          	endbr64 
    dd60:	55                   	push   %rbp
    dd61:	48 89 e5             	mov    %rsp,%rbp
    dd64:	89 fa                	mov    %edi,%edx
    dd66:	89 f0                	mov    %esi,%eax
    dd68:	66 89 55 fc          	mov    %dx,-0x4(%rbp)
    dd6c:	66 89 45 f8          	mov    %ax,-0x8(%rbp)
    dd70:	66 83 7d f8 00       	cmpw   $0x0,-0x8(%rbp)
    dd75:	74 11                	je     dd88 <safe_mod_func_uint16_t_u_u+0x2c>
    dd77:	0f b7 45 fc          	movzwl -0x4(%rbp),%eax
    dd7b:	ba 00 00 00 00       	mov    $0x0,%edx
    dd80:	66 f7 75 f8          	divw   -0x8(%rbp)
    dd84:	89 d0                	mov    %edx,%eax
    dd86:	eb 04                	jmp    dd8c <safe_mod_func_uint16_t_u_u+0x30>
    dd88:	0f b7 45 fc          	movzwl -0x4(%rbp),%eax
    dd8c:	5d                   	pop    %rbp
    dd8d:	c3                   	retq   

000000000000dd8e <safe_div_func_uint16_t_u_u>:
    dd8e:	f3 0f 1e fa          	endbr64 
    dd92:	55                   	push   %rbp
    dd93:	48 89 e5             	mov    %rsp,%rbp
    dd96:	89 fa                	mov    %edi,%edx
    dd98:	89 f0                	mov    %esi,%eax
    dd9a:	66 89 55 fc          	mov    %dx,-0x4(%rbp)
    dd9e:	66 89 45 f8          	mov    %ax,-0x8(%rbp)
    dda2:	66 83 7d f8 00       	cmpw   $0x0,-0x8(%rbp)
    dda7:	74 0f                	je     ddb8 <safe_div_func_uint16_t_u_u+0x2a>
    dda9:	0f b7 45 fc          	movzwl -0x4(%rbp),%eax
    ddad:	ba 00 00 00 00       	mov    $0x0,%edx
    ddb2:	66 f7 75 f8          	divw   -0x8(%rbp)
    ddb6:	eb 04                	jmp    ddbc <safe_div_func_uint16_t_u_u+0x2e>
    ddb8:	0f b7 45 fc          	movzwl -0x4(%rbp),%eax
    ddbc:	5d                   	pop    %rbp
    ddbd:	c3                   	retq   

000000000000ddbe <safe_lshift_func_uint16_t_u_s>:
    ddbe:	f3 0f 1e fa          	endbr64 
    ddc2:	55                   	push   %rbp
    ddc3:	48 89 e5             	mov    %rsp,%rbp
    ddc6:	89 f8                	mov    %edi,%eax
    ddc8:	89 75 f8             	mov    %esi,-0x8(%rbp)
    ddcb:	66 89 45 fc          	mov    %ax,-0x4(%rbp)
    ddcf:	83 7d f8 00          	cmpl   $0x0,-0x8(%rbp)
    ddd3:	78 2b                	js     de00 <safe_lshift_func_uint16_t_u_s+0x42>
    ddd5:	83 7d f8 1f          	cmpl   $0x1f,-0x8(%rbp)
    ddd9:	7f 25                	jg     de00 <safe_lshift_func_uint16_t_u_s+0x42>
    dddb:	0f b7 55 fc          	movzwl -0x4(%rbp),%edx
    dddf:	8b 45 f8             	mov    -0x8(%rbp),%eax
    dde2:	be ff ff 00 00       	mov    $0xffff,%esi
    dde7:	89 c1                	mov    %eax,%ecx
    dde9:	d3 fe                	sar    %cl,%esi
    ddeb:	89 f0                	mov    %esi,%eax
    dded:	39 c2                	cmp    %eax,%edx
    ddef:	7f 0f                	jg     de00 <safe_lshift_func_uint16_t_u_s+0x42>
    ddf1:	0f b7 55 fc          	movzwl -0x4(%rbp),%edx
    ddf5:	8b 45 f8             	mov    -0x8(%rbp),%eax
    ddf8:	89 c1                	mov    %eax,%ecx
    ddfa:	d3 e2                	shl    %cl,%edx
    ddfc:	89 d0                	mov    %edx,%eax
    ddfe:	eb 04                	jmp    de04 <safe_lshift_func_uint16_t_u_s+0x46>
    de00:	0f b7 45 fc          	movzwl -0x4(%rbp),%eax
    de04:	5d                   	pop    %rbp
    de05:	c3                   	retq   

000000000000de06 <safe_lshift_func_uint16_t_u_u>:
    de06:	f3 0f 1e fa          	endbr64 
    de0a:	55                   	push   %rbp
    de0b:	48 89 e5             	mov    %rsp,%rbp
    de0e:	89 f8                	mov    %edi,%eax
    de10:	89 75 f8             	mov    %esi,-0x8(%rbp)
    de13:	66 89 45 fc          	mov    %ax,-0x4(%rbp)
    de17:	83 7d f8 1f          	cmpl   $0x1f,-0x8(%rbp)
    de1b:	77 25                	ja     de42 <safe_lshift_func_uint16_t_u_u+0x3c>
    de1d:	0f b7 55 fc          	movzwl -0x4(%rbp),%edx
    de21:	8b 45 f8             	mov    -0x8(%rbp),%eax
    de24:	be ff ff 00 00       	mov    $0xffff,%esi
    de29:	89 c1                	mov    %eax,%ecx
    de2b:	d3 fe                	sar    %cl,%esi
    de2d:	89 f0                	mov    %esi,%eax
    de2f:	39 c2                	cmp    %eax,%edx
    de31:	7f 0f                	jg     de42 <safe_lshift_func_uint16_t_u_u+0x3c>
    de33:	0f b7 55 fc          	movzwl -0x4(%rbp),%edx
    de37:	8b 45 f8             	mov    -0x8(%rbp),%eax
    de3a:	89 c1                	mov    %eax,%ecx
    de3c:	d3 e2                	shl    %cl,%edx
    de3e:	89 d0                	mov    %edx,%eax
    de40:	eb 04                	jmp    de46 <safe_lshift_func_uint16_t_u_u+0x40>
    de42:	0f b7 45 fc          	movzwl -0x4(%rbp),%eax
    de46:	5d                   	pop    %rbp
    de47:	c3                   	retq   

000000000000de48 <safe_rshift_func_uint16_t_u_s>:
    de48:	f3 0f 1e fa          	endbr64 
    de4c:	55                   	push   %rbp
    de4d:	48 89 e5             	mov    %rsp,%rbp
    de50:	89 f8                	mov    %edi,%eax
    de52:	89 75 f8             	mov    %esi,-0x8(%rbp)
    de55:	66 89 45 fc          	mov    %ax,-0x4(%rbp)
    de59:	83 7d f8 00          	cmpl   $0x0,-0x8(%rbp)
    de5d:	78 15                	js     de74 <safe_rshift_func_uint16_t_u_s+0x2c>
    de5f:	83 7d f8 1f          	cmpl   $0x1f,-0x8(%rbp)
    de63:	7f 0f                	jg     de74 <safe_rshift_func_uint16_t_u_s+0x2c>
    de65:	0f b7 55 fc          	movzwl -0x4(%rbp),%edx
    de69:	8b 45 f8             	mov    -0x8(%rbp),%eax
    de6c:	89 c1                	mov    %eax,%ecx
    de6e:	d3 fa                	sar    %cl,%edx
    de70:	89 d0                	mov    %edx,%eax
    de72:	eb 04                	jmp    de78 <safe_rshift_func_uint16_t_u_s+0x30>
    de74:	0f b7 45 fc          	movzwl -0x4(%rbp),%eax
    de78:	5d                   	pop    %rbp
    de79:	c3                   	retq   

000000000000de7a <safe_rshift_func_uint16_t_u_u>:
    de7a:	f3 0f 1e fa          	endbr64 
    de7e:	55                   	push   %rbp
    de7f:	48 89 e5             	mov    %rsp,%rbp
    de82:	89 f8                	mov    %edi,%eax
    de84:	89 75 f8             	mov    %esi,-0x8(%rbp)
    de87:	66 89 45 fc          	mov    %ax,-0x4(%rbp)
    de8b:	83 7d f8 1f          	cmpl   $0x1f,-0x8(%rbp)
    de8f:	77 0f                	ja     dea0 <safe_rshift_func_uint16_t_u_u+0x26>
    de91:	0f b7 55 fc          	movzwl -0x4(%rbp),%edx
    de95:	8b 45 f8             	mov    -0x8(%rbp),%eax
    de98:	89 c1                	mov    %eax,%ecx
    de9a:	d3 fa                	sar    %cl,%edx
    de9c:	89 d0                	mov    %edx,%eax
    de9e:	eb 04                	jmp    dea4 <safe_rshift_func_uint16_t_u_u+0x2a>
    dea0:	0f b7 45 fc          	movzwl -0x4(%rbp),%eax
    dea4:	5d                   	pop    %rbp
    dea5:	c3                   	retq   

000000000000dea6 <safe_unary_minus_func_uint32_t_u>:
    dea6:	f3 0f 1e fa          	endbr64 
    deaa:	55                   	push   %rbp
    deab:	48 89 e5             	mov    %rsp,%rbp
    deae:	89 7d fc             	mov    %edi,-0x4(%rbp)
    deb1:	8b 45 fc             	mov    -0x4(%rbp),%eax
    deb4:	f7 d8                	neg    %eax
    deb6:	5d                   	pop    %rbp
    deb7:	c3                   	retq   

000000000000deb8 <safe_add_func_uint32_t_u_u>:
    deb8:	f3 0f 1e fa          	endbr64 
    debc:	55                   	push   %rbp
    debd:	48 89 e5             	mov    %rsp,%rbp
    dec0:	89 7d fc             	mov    %edi,-0x4(%rbp)
    dec3:	89 75 f8             	mov    %esi,-0x8(%rbp)
    dec6:	8b 55 fc             	mov    -0x4(%rbp),%edx
    dec9:	8b 45 f8             	mov    -0x8(%rbp),%eax
    decc:	01 d0                	add    %edx,%eax
    dece:	5d                   	pop    %rbp
    decf:	c3                   	retq   

000000000000ded0 <safe_sub_func_uint32_t_u_u>:
    ded0:	f3 0f 1e fa          	endbr64 
    ded4:	55                   	push   %rbp
    ded5:	48 89 e5             	mov    %rsp,%rbp
    ded8:	89 7d fc             	mov    %edi,-0x4(%rbp)
    dedb:	89 75 f8             	mov    %esi,-0x8(%rbp)
    dede:	8b 45 fc             	mov    -0x4(%rbp),%eax
    dee1:	2b 45 f8             	sub    -0x8(%rbp),%eax
    dee4:	5d                   	pop    %rbp
    dee5:	c3                   	retq   

000000000000dee6 <safe_mul_func_uint32_t_u_u>:
    dee6:	f3 0f 1e fa          	endbr64 
    deea:	55                   	push   %rbp
    deeb:	48 89 e5             	mov    %rsp,%rbp
    deee:	89 7d fc             	mov    %edi,-0x4(%rbp)
    def1:	89 75 f8             	mov    %esi,-0x8(%rbp)
    def4:	8b 45 fc             	mov    -0x4(%rbp),%eax
    def7:	0f af 45 f8          	imul   -0x8(%rbp),%eax
    defb:	5d                   	pop    %rbp
    defc:	c3                   	retq   

000000000000defd <safe_mod_func_uint32_t_u_u>:
    defd:	f3 0f 1e fa          	endbr64 
    df01:	55                   	push   %rbp
    df02:	48 89 e5             	mov    %rsp,%rbp
    df05:	89 7d fc             	mov    %edi,-0x4(%rbp)
    df08:	89 75 f8             	mov    %esi,-0x8(%rbp)
    df0b:	83 7d f8 00          	cmpl   $0x0,-0x8(%rbp)
    df0f:	74 0f                	je     df20 <safe_mod_func_uint32_t_u_u+0x23>
    df11:	8b 45 fc             	mov    -0x4(%rbp),%eax
    df14:	ba 00 00 00 00       	mov    $0x0,%edx
    df19:	f7 75 f8             	divl   -0x8(%rbp)
    df1c:	89 d0                	mov    %edx,%eax
    df1e:	eb 03                	jmp    df23 <safe_mod_func_uint32_t_u_u+0x26>
    df20:	8b 45 fc             	mov    -0x4(%rbp),%eax
    df23:	5d                   	pop    %rbp
    df24:	c3                   	retq   

000000000000df25 <safe_div_func_uint32_t_u_u>:
    df25:	f3 0f 1e fa          	endbr64 
    df29:	55                   	push   %rbp
    df2a:	48 89 e5             	mov    %rsp,%rbp
    df2d:	89 7d fc             	mov    %edi,-0x4(%rbp)
    df30:	89 75 f8             	mov    %esi,-0x8(%rbp)
    df33:	83 7d f8 00          	cmpl   $0x0,-0x8(%rbp)
    df37:	74 0d                	je     df46 <safe_div_func_uint32_t_u_u+0x21>
    df39:	8b 45 fc             	mov    -0x4(%rbp),%eax
    df3c:	ba 00 00 00 00       	mov    $0x0,%edx
    df41:	f7 75 f8             	divl   -0x8(%rbp)
    df44:	eb 03                	jmp    df49 <safe_div_func_uint32_t_u_u+0x24>
    df46:	8b 45 fc             	mov    -0x4(%rbp),%eax
    df49:	5d                   	pop    %rbp
    df4a:	c3                   	retq   

000000000000df4b <safe_lshift_func_uint32_t_u_s>:
    df4b:	f3 0f 1e fa          	endbr64 
    df4f:	55                   	push   %rbp
    df50:	48 89 e5             	mov    %rsp,%rbp
    df53:	89 7d fc             	mov    %edi,-0x4(%rbp)
    df56:	89 75 f8             	mov    %esi,-0x8(%rbp)
    df59:	83 7d f8 00          	cmpl   $0x0,-0x8(%rbp)
    df5d:	78 27                	js     df86 <safe_lshift_func_uint32_t_u_s+0x3b>
    df5f:	83 7d f8 1f          	cmpl   $0x1f,-0x8(%rbp)
    df63:	7f 21                	jg     df86 <safe_lshift_func_uint32_t_u_s+0x3b>
    df65:	8b 45 f8             	mov    -0x8(%rbp),%eax
    df68:	ba ff ff ff ff       	mov    $0xffffffff,%edx
    df6d:	89 c1                	mov    %eax,%ecx
    df6f:	d3 ea                	shr    %cl,%edx
    df71:	89 d0                	mov    %edx,%eax
    df73:	39 45 fc             	cmp    %eax,-0x4(%rbp)
    df76:	77 0e                	ja     df86 <safe_lshift_func_uint32_t_u_s+0x3b>
    df78:	8b 45 f8             	mov    -0x8(%rbp),%eax
    df7b:	8b 55 fc             	mov    -0x4(%rbp),%edx
    df7e:	89 c1                	mov    %eax,%ecx
    df80:	d3 e2                	shl    %cl,%edx
    df82:	89 d0                	mov    %edx,%eax
    df84:	eb 03                	jmp    df89 <safe_lshift_func_uint32_t_u_s+0x3e>
    df86:	8b 45 fc             	mov    -0x4(%rbp),%eax
    df89:	5d                   	pop    %rbp
    df8a:	c3                   	retq   

000000000000df8b <safe_lshift_func_uint32_t_u_u>:
    df8b:	f3 0f 1e fa          	endbr64 
    df8f:	55                   	push   %rbp
    df90:	48 89 e5             	mov    %rsp,%rbp
    df93:	89 7d fc             	mov    %edi,-0x4(%rbp)
    df96:	89 75 f8             	mov    %esi,-0x8(%rbp)
    df99:	83 7d f8 1f          	cmpl   $0x1f,-0x8(%rbp)
    df9d:	77 21                	ja     dfc0 <safe_lshift_func_uint32_t_u_u+0x35>
    df9f:	8b 45 f8             	mov    -0x8(%rbp),%eax
    dfa2:	ba ff ff ff ff       	mov    $0xffffffff,%edx
    dfa7:	89 c1                	mov    %eax,%ecx
    dfa9:	d3 ea                	shr    %cl,%edx
    dfab:	89 d0                	mov    %edx,%eax
    dfad:	39 45 fc             	cmp    %eax,-0x4(%rbp)
    dfb0:	77 0e                	ja     dfc0 <safe_lshift_func_uint32_t_u_u+0x35>
    dfb2:	8b 45 f8             	mov    -0x8(%rbp),%eax
    dfb5:	8b 55 fc             	mov    -0x4(%rbp),%edx
    dfb8:	89 c1                	mov    %eax,%ecx
    dfba:	d3 e2                	shl    %cl,%edx
    dfbc:	89 d0                	mov    %edx,%eax
    dfbe:	eb 03                	jmp    dfc3 <safe_lshift_func_uint32_t_u_u+0x38>
    dfc0:	8b 45 fc             	mov    -0x4(%rbp),%eax
    dfc3:	5d                   	pop    %rbp
    dfc4:	c3                   	retq   

000000000000dfc5 <safe_rshift_func_uint32_t_u_s>:
    dfc5:	f3 0f 1e fa          	endbr64 
    dfc9:	55                   	push   %rbp
    dfca:	48 89 e5             	mov    %rsp,%rbp
    dfcd:	89 7d fc             	mov    %edi,-0x4(%rbp)
    dfd0:	89 75 f8             	mov    %esi,-0x8(%rbp)
    dfd3:	83 7d f8 00          	cmpl   $0x0,-0x8(%rbp)
    dfd7:	78 14                	js     dfed <safe_rshift_func_uint32_t_u_s+0x28>
    dfd9:	83 7d f8 1f          	cmpl   $0x1f,-0x8(%rbp)
    dfdd:	7f 0e                	jg     dfed <safe_rshift_func_uint32_t_u_s+0x28>
    dfdf:	8b 45 f8             	mov    -0x8(%rbp),%eax
    dfe2:	8b 55 fc             	mov    -0x4(%rbp),%edx
    dfe5:	89 c1                	mov    %eax,%ecx
    dfe7:	d3 ea                	shr    %cl,%edx
    dfe9:	89 d0                	mov    %edx,%eax
    dfeb:	eb 03                	jmp    dff0 <safe_rshift_func_uint32_t_u_s+0x2b>
    dfed:	8b 45 fc             	mov    -0x4(%rbp),%eax
    dff0:	5d                   	pop    %rbp
    dff1:	c3                   	retq   

000000000000dff2 <safe_rshift_func_uint32_t_u_u>:
    dff2:	f3 0f 1e fa          	endbr64 
    dff6:	55                   	push   %rbp
    dff7:	48 89 e5             	mov    %rsp,%rbp
    dffa:	89 7d fc             	mov    %edi,-0x4(%rbp)
    dffd:	89 75 f8             	mov    %esi,-0x8(%rbp)
    e000:	83 7d f8 1f          	cmpl   $0x1f,-0x8(%rbp)
    e004:	77 0e                	ja     e014 <safe_rshift_func_uint32_t_u_u+0x22>
    e006:	8b 45 f8             	mov    -0x8(%rbp),%eax
    e009:	8b 55 fc             	mov    -0x4(%rbp),%edx
    e00c:	89 c1                	mov    %eax,%ecx
    e00e:	d3 ea                	shr    %cl,%edx
    e010:	89 d0                	mov    %edx,%eax
    e012:	eb 03                	jmp    e017 <safe_rshift_func_uint32_t_u_u+0x25>
    e014:	8b 45 fc             	mov    -0x4(%rbp),%eax
    e017:	5d                   	pop    %rbp
    e018:	c3                   	retq   

000000000000e019 <safe_unary_minus_func_uint64_t_u>:
    e019:	f3 0f 1e fa          	endbr64 
    e01d:	55                   	push   %rbp
    e01e:	48 89 e5             	mov    %rsp,%rbp
    e021:	48 89 7d f8          	mov    %rdi,-0x8(%rbp)
    e025:	48 8b 45 f8          	mov    -0x8(%rbp),%rax
    e029:	48 f7 d8             	neg    %rax
    e02c:	5d                   	pop    %rbp
    e02d:	c3                   	retq   

000000000000e02e <safe_add_func_uint64_t_u_u>:
    e02e:	f3 0f 1e fa          	endbr64 
    e032:	55                   	push   %rbp
    e033:	48 89 e5             	mov    %rsp,%rbp
    e036:	48 89 7d f8          	mov    %rdi,-0x8(%rbp)
    e03a:	48 89 75 f0          	mov    %rsi,-0x10(%rbp)
    e03e:	48 8b 55 f8          	mov    -0x8(%rbp),%rdx
    e042:	48 8b 45 f0          	mov    -0x10(%rbp),%rax
    e046:	48 01 d0             	add    %rdx,%rax
    e049:	5d                   	pop    %rbp
    e04a:	c3                   	retq   

000000000000e04b <safe_sub_func_uint64_t_u_u>:
    e04b:	f3 0f 1e fa          	endbr64 
    e04f:	55                   	push   %rbp
    e050:	48 89 e5             	mov    %rsp,%rbp
    e053:	48 89 7d f8          	mov    %rdi,-0x8(%rbp)
    e057:	48 89 75 f0          	mov    %rsi,-0x10(%rbp)
    e05b:	48 8b 45 f8          	mov    -0x8(%rbp),%rax
    e05f:	48 2b 45 f0          	sub    -0x10(%rbp),%rax
    e063:	5d                   	pop    %rbp
    e064:	c3                   	retq   

000000000000e065 <safe_mul_func_uint64_t_u_u>:
    e065:	f3 0f 1e fa          	endbr64 
    e069:	55                   	push   %rbp
    e06a:	48 89 e5             	mov    %rsp,%rbp
    e06d:	48 89 7d f8          	mov    %rdi,-0x8(%rbp)
    e071:	48 89 75 f0          	mov    %rsi,-0x10(%rbp)
    e075:	48 8b 45 f8          	mov    -0x8(%rbp),%rax
    e079:	48 0f af 45 f0       	imul   -0x10(%rbp),%rax
    e07e:	5d                   	pop    %rbp
    e07f:	c3                   	retq   

000000000000e080 <safe_mod_func_uint64_t_u_u>:
    e080:	f3 0f 1e fa          	endbr64 
    e084:	55                   	push   %rbp
    e085:	48 89 e5             	mov    %rsp,%rbp
    e088:	48 89 7d f8          	mov    %rdi,-0x8(%rbp)
    e08c:	48 89 75 f0          	mov    %rsi,-0x10(%rbp)
    e090:	48 83 7d f0 00       	cmpq   $0x0,-0x10(%rbp)
    e095:	74 12                	je     e0a9 <safe_mod_func_uint64_t_u_u+0x29>
    e097:	48 8b 45 f8          	mov    -0x8(%rbp),%rax
    e09b:	ba 00 00 00 00       	mov    $0x0,%edx
    e0a0:	48 f7 75 f0          	divq   -0x10(%rbp)
    e0a4:	48 89 d0             	mov    %rdx,%rax
    e0a7:	eb 04                	jmp    e0ad <safe_mod_func_uint64_t_u_u+0x2d>
    e0a9:	48 8b 45 f8          	mov    -0x8(%rbp),%rax
    e0ad:	5d                   	pop    %rbp
    e0ae:	c3                   	retq   

000000000000e0af <safe_div_func_uint64_t_u_u>:
    e0af:	f3 0f 1e fa          	endbr64 
    e0b3:	55                   	push   %rbp
    e0b4:	48 89 e5             	mov    %rsp,%rbp
    e0b7:	48 89 7d f8          	mov    %rdi,-0x8(%rbp)
    e0bb:	48 89 75 f0          	mov    %rsi,-0x10(%rbp)
    e0bf:	48 83 7d f0 00       	cmpq   $0x0,-0x10(%rbp)
    e0c4:	74 0f                	je     e0d5 <safe_div_func_uint64_t_u_u+0x26>
    e0c6:	48 8b 45 f8          	mov    -0x8(%rbp),%rax
    e0ca:	ba 00 00 00 00       	mov    $0x0,%edx
    e0cf:	48 f7 75 f0          	divq   -0x10(%rbp)
    e0d3:	eb 04                	jmp    e0d9 <safe_div_func_uint64_t_u_u+0x2a>
    e0d5:	48 8b 45 f8          	mov    -0x8(%rbp),%rax
    e0d9:	5d                   	pop    %rbp
    e0da:	c3                   	retq   

000000000000e0db <safe_lshift_func_uint64_t_u_s>:
    e0db:	f3 0f 1e fa          	endbr64 
    e0df:	55                   	push   %rbp
    e0e0:	48 89 e5             	mov    %rsp,%rbp
    e0e3:	48 89 7d f8          	mov    %rdi,-0x8(%rbp)
    e0e7:	89 75 f4             	mov    %esi,-0xc(%rbp)
    e0ea:	83 7d f4 00          	cmpl   $0x0,-0xc(%rbp)
    e0ee:	78 2f                	js     e11f <safe_lshift_func_uint64_t_u_s+0x44>
    e0f0:	83 7d f4 1f          	cmpl   $0x1f,-0xc(%rbp)
    e0f4:	7f 29                	jg     e11f <safe_lshift_func_uint64_t_u_s+0x44>
    e0f6:	8b 45 f4             	mov    -0xc(%rbp),%eax
    e0f9:	48 c7 c2 ff ff ff ff 	mov    $0xffffffffffffffff,%rdx
    e100:	89 c1                	mov    %eax,%ecx
    e102:	48 d3 ea             	shr    %cl,%rdx
    e105:	48 89 d0             	mov    %rdx,%rax
    e108:	48 39 45 f8          	cmp    %rax,-0x8(%rbp)
    e10c:	77 11                	ja     e11f <safe_lshift_func_uint64_t_u_s+0x44>
    e10e:	8b 45 f4             	mov    -0xc(%rbp),%eax
    e111:	48 8b 55 f8          	mov    -0x8(%rbp),%rdx
    e115:	89 c1                	mov    %eax,%ecx
    e117:	48 d3 e2             	shl    %cl,%rdx
    e11a:	48 89 d0             	mov    %rdx,%rax
    e11d:	eb 04                	jmp    e123 <safe_lshift_func_uint64_t_u_s+0x48>
    e11f:	48 8b 45 f8          	mov    -0x8(%rbp),%rax
    e123:	5d                   	pop    %rbp
    e124:	c3                   	retq   

000000000000e125 <safe_lshift_func_uint64_t_u_u>:
    e125:	f3 0f 1e fa          	endbr64 
    e129:	55                   	push   %rbp
    e12a:	48 89 e5             	mov    %rsp,%rbp
    e12d:	48 89 7d f8          	mov    %rdi,-0x8(%rbp)
    e131:	89 75 f4             	mov    %esi,-0xc(%rbp)
    e134:	83 7d f4 1f          	cmpl   $0x1f,-0xc(%rbp)
    e138:	77 29                	ja     e163 <safe_lshift_func_uint64_t_u_u+0x3e>
    e13a:	8b 45 f4             	mov    -0xc(%rbp),%eax
    e13d:	48 c7 c2 ff ff ff ff 	mov    $0xffffffffffffffff,%rdx
    e144:	89 c1                	mov    %eax,%ecx
    e146:	48 d3 ea             	shr    %cl,%rdx
    e149:	48 89 d0             	mov    %rdx,%rax
    e14c:	48 39 45 f8          	cmp    %rax,-0x8(%rbp)
    e150:	77 11                	ja     e163 <safe_lshift_func_uint64_t_u_u+0x3e>
    e152:	8b 45 f4             	mov    -0xc(%rbp),%eax
    e155:	48 8b 55 f8          	mov    -0x8(%rbp),%rdx
    e159:	89 c1                	mov    %eax,%ecx
    e15b:	48 d3 e2             	shl    %cl,%rdx
    e15e:	48 89 d0             	mov    %rdx,%rax
    e161:	eb 04                	jmp    e167 <safe_lshift_func_uint64_t_u_u+0x42>
    e163:	48 8b 45 f8          	mov    -0x8(%rbp),%rax
    e167:	5d                   	pop    %rbp
    e168:	c3                   	retq   

000000000000e169 <safe_rshift_func_uint64_t_u_s>:
    e169:	f3 0f 1e fa          	endbr64 
    e16d:	55                   	push   %rbp
    e16e:	48 89 e5             	mov    %rsp,%rbp
    e171:	48 89 7d f8          	mov    %rdi,-0x8(%rbp)
    e175:	89 75 f4             	mov    %esi,-0xc(%rbp)
    e178:	83 7d f4 00          	cmpl   $0x0,-0xc(%rbp)
    e17c:	78 17                	js     e195 <safe_rshift_func_uint64_t_u_s+0x2c>
    e17e:	83 7d f4 1f          	cmpl   $0x1f,-0xc(%rbp)
    e182:	7f 11                	jg     e195 <safe_rshift_func_uint64_t_u_s+0x2c>
    e184:	8b 45 f4             	mov    -0xc(%rbp),%eax
    e187:	48 8b 55 f8          	mov    -0x8(%rbp),%rdx
    e18b:	89 c1                	mov    %eax,%ecx
    e18d:	48 d3 ea             	shr    %cl,%rdx
    e190:	48 89 d0             	mov    %rdx,%rax
    e193:	eb 04                	jmp    e199 <safe_rshift_func_uint64_t_u_s+0x30>
    e195:	48 8b 45 f8          	mov    -0x8(%rbp),%rax
    e199:	5d                   	pop    %rbp
    e19a:	c3                   	retq   

000000000000e19b <safe_rshift_func_uint64_t_u_u>:
    e19b:	f3 0f 1e fa          	endbr64 
    e19f:	55                   	push   %rbp
    e1a0:	48 89 e5             	mov    %rsp,%rbp
    e1a3:	48 89 7d f8          	mov    %rdi,-0x8(%rbp)
    e1a7:	89 75 f4             	mov    %esi,-0xc(%rbp)
    e1aa:	83 7d f4 1f          	cmpl   $0x1f,-0xc(%rbp)
    e1ae:	77 11                	ja     e1c1 <safe_rshift_func_uint64_t_u_u+0x26>
    e1b0:	8b 45 f4             	mov    -0xc(%rbp),%eax
    e1b3:	48 8b 55 f8          	mov    -0x8(%rbp),%rdx
    e1b7:	89 c1                	mov    %eax,%ecx
    e1b9:	48 d3 ea             	shr    %cl,%rdx
    e1bc:	48 89 d0             	mov    %rdx,%rax
    e1bf:	eb 04                	jmp    e1c5 <safe_rshift_func_uint64_t_u_u+0x2a>
    e1c1:	48 8b 45 f8          	mov    -0x8(%rbp),%rax
    e1c5:	5d                   	pop    %rbp
    e1c6:	c3                   	retq   

000000000000e1c7 <safe_add_func_float_f_f>:
    e1c7:	f3 0f 1e fa          	endbr64 
    e1cb:	55                   	push   %rbp
    e1cc:	48 89 e5             	mov    %rsp,%rbp
    e1cf:	f3 0f 11 45 fc       	movss  %xmm0,-0x4(%rbp)
    e1d4:	f3 0f 11 4d f8       	movss  %xmm1,-0x8(%rbp)
    e1d9:	f3 0f 10 4d fc       	movss  -0x4(%rbp),%xmm1
    e1de:	f3 0f 10 05 c2 34 01 	movss  0x134c2(%rip),%xmm0        # 216a8 <g_5046+0x1f88>
    e1e5:	00 
    e1e6:	f3 0f 59 c8          	mulss  %xmm0,%xmm1
    e1ea:	f3 0f 10 55 f8       	movss  -0x8(%rbp),%xmm2
    e1ef:	f3 0f 10 05 b1 34 01 	movss  0x134b1(%rip),%xmm0        # 216a8 <g_5046+0x1f88>
    e1f6:	00 
    e1f7:	f3 0f 59 c2          	mulss  %xmm2,%xmm0
    e1fb:	f3 0f 58 c1          	addss  %xmm1,%xmm0
    e1ff:	f3 0f 10 0d a9 34 01 	movss  0x134a9(%rip),%xmm1        # 216b0 <g_5046+0x1f90>
    e206:	00 
    e207:	0f 54 c1             	andps  %xmm1,%xmm0
    e20a:	0f 2f 05 af 34 01 00 	comiss 0x134af(%rip),%xmm0        # 216c0 <g_5046+0x1fa0>
    e211:	76 07                	jbe    e21a <safe_add_func_float_f_f+0x53>
    e213:	f3 0f 10 45 fc       	movss  -0x4(%rbp),%xmm0
    e218:	eb 0a                	jmp    e224 <safe_add_func_float_f_f+0x5d>
    e21a:	f3 0f 10 45 fc       	movss  -0x4(%rbp),%xmm0
    e21f:	f3 0f 58 45 f8       	addss  -0x8(%rbp),%xmm0
    e224:	5d                   	pop    %rbp
    e225:	c3                   	retq   

000000000000e226 <safe_sub_func_float_f_f>:
    e226:	f3 0f 1e fa          	endbr64 
    e22a:	55                   	push   %rbp
    e22b:	48 89 e5             	mov    %rsp,%rbp
    e22e:	f3 0f 11 45 fc       	movss  %xmm0,-0x4(%rbp)
    e233:	f3 0f 11 4d f8       	movss  %xmm1,-0x8(%rbp)
    e238:	f3 0f 10 4d fc       	movss  -0x4(%rbp),%xmm1
    e23d:	f3 0f 10 05 63 34 01 	movss  0x13463(%rip),%xmm0        # 216a8 <g_5046+0x1f88>
    e244:	00 
    e245:	f3 0f 59 c1          	mulss  %xmm1,%xmm0
    e249:	f3 0f 10 55 f8       	movss  -0x8(%rbp),%xmm2
    e24e:	f3 0f 10 0d 52 34 01 	movss  0x13452(%rip),%xmm1        # 216a8 <g_5046+0x1f88>
    e255:	00 
    e256:	f3 0f 59 ca          	mulss  %xmm2,%xmm1
    e25a:	f3 0f 5c c1          	subss  %xmm1,%xmm0
    e25e:	f3 0f 10 0d 4a 34 01 	movss  0x1344a(%rip),%xmm1        # 216b0 <g_5046+0x1f90>
    e265:	00 
    e266:	0f 54 c1             	andps  %xmm1,%xmm0
    e269:	0f 2f 05 50 34 01 00 	comiss 0x13450(%rip),%xmm0        # 216c0 <g_5046+0x1fa0>
    e270:	76 07                	jbe    e279 <safe_sub_func_float_f_f+0x53>
    e272:	f3 0f 10 45 fc       	movss  -0x4(%rbp),%xmm0
    e277:	eb 0a                	jmp    e283 <safe_sub_func_float_f_f+0x5d>
    e279:	f3 0f 10 45 fc       	movss  -0x4(%rbp),%xmm0
    e27e:	f3 0f 5c 45 f8       	subss  -0x8(%rbp),%xmm0
    e283:	5d                   	pop    %rbp
    e284:	c3                   	retq   

000000000000e285 <safe_mul_func_float_f_f>:
    e285:	f3 0f 1e fa          	endbr64 
    e289:	55                   	push   %rbp
    e28a:	48 89 e5             	mov    %rsp,%rbp
    e28d:	f3 0f 11 45 fc       	movss  %xmm0,-0x4(%rbp)
    e292:	f3 0f 11 4d f8       	movss  %xmm1,-0x8(%rbp)
    e297:	f3 0f 10 4d fc       	movss  -0x4(%rbp),%xmm1
    e29c:	f3 0f 10 05 20 34 01 	movss  0x13420(%rip),%xmm0        # 216c4 <g_5046+0x1fa4>
    e2a3:	00 
    e2a4:	f3 0f 59 c8          	mulss  %xmm0,%xmm1
    e2a8:	f3 0f 10 55 f8       	movss  -0x8(%rbp),%xmm2
    e2ad:	f3 0f 10 05 13 34 01 	movss  0x13413(%rip),%xmm0        # 216c8 <g_5046+0x1fa8>
    e2b4:	00 
    e2b5:	f3 0f 59 c2          	mulss  %xmm2,%xmm0
    e2b9:	f3 0f 59 c1          	mulss  %xmm1,%xmm0
    e2bd:	f3 0f 10 0d eb 33 01 	movss  0x133eb(%rip),%xmm1        # 216b0 <g_5046+0x1f90>
    e2c4:	00 
    e2c5:	0f 54 c1             	andps  %xmm1,%xmm0
    e2c8:	0f 2f 05 fd 33 01 00 	comiss 0x133fd(%rip),%xmm0        # 216cc <g_5046+0x1fac>
    e2cf:	76 07                	jbe    e2d8 <safe_mul_func_float_f_f+0x53>
    e2d1:	f3 0f 10 45 fc       	movss  -0x4(%rbp),%xmm0
    e2d6:	eb 0a                	jmp    e2e2 <safe_mul_func_float_f_f+0x5d>
    e2d8:	f3 0f 10 45 fc       	movss  -0x4(%rbp),%xmm0
    e2dd:	f3 0f 59 45 f8       	mulss  -0x8(%rbp),%xmm0
    e2e2:	5d                   	pop    %rbp
    e2e3:	c3                   	retq   

000000000000e2e4 <safe_div_func_float_f_f>:
    e2e4:	f3 0f 1e fa          	endbr64 
    e2e8:	55                   	push   %rbp
    e2e9:	48 89 e5             	mov    %rsp,%rbp
    e2ec:	f3 0f 11 45 fc       	movss  %xmm0,-0x4(%rbp)
    e2f1:	f3 0f 11 4d f8       	movss  %xmm1,-0x8(%rbp)
    e2f6:	f3 0f 10 45 f8       	movss  -0x8(%rbp),%xmm0
    e2fb:	f3 0f 10 0d ad 33 01 	movss  0x133ad(%rip),%xmm1        # 216b0 <g_5046+0x1f90>
    e302:	00 
    e303:	0f 54 c8             	andps  %xmm0,%xmm1
    e306:	f3 0f 10 05 c2 33 01 	movss  0x133c2(%rip),%xmm0        # 216d0 <g_5046+0x1fb0>
    e30d:	00 
    e30e:	0f 2f c1             	comiss %xmm1,%xmm0
    e311:	0f 97 c0             	seta   %al
    e314:	83 f0 01             	xor    $0x1,%eax
    e317:	84 c0                	test   %al,%al
    e319:	75 56                	jne    e371 <safe_div_func_float_f_f+0x8d>
    e31b:	66 0f ef c0          	pxor   %xmm0,%xmm0
    e31f:	0f 2e 45 f8          	ucomiss -0x8(%rbp),%xmm0
    e323:	7a 0a                	jp     e32f <safe_div_func_float_f_f+0x4b>
    e325:	66 0f ef c0          	pxor   %xmm0,%xmm0
    e329:	0f 2e 45 f8          	ucomiss -0x8(%rbp),%xmm0
    e32d:	74 4e                	je     e37d <safe_div_func_float_f_f+0x99>
    e32f:	f3 0f 10 4d fc       	movss  -0x4(%rbp),%xmm1
    e334:	f3 0f 10 05 98 33 01 	movss  0x13398(%rip),%xmm0        # 216d4 <g_5046+0x1fb4>
    e33b:	00 
    e33c:	f3 0f 59 c1          	mulss  %xmm1,%xmm0
    e340:	f3 0f 10 55 f8       	movss  -0x8(%rbp),%xmm2
    e345:	f3 0f 10 0d 8b 33 01 	movss  0x1338b(%rip),%xmm1        # 216d8 <g_5046+0x1fb8>
    e34c:	00 
    e34d:	f3 0f 59 ca          	mulss  %xmm2,%xmm1
    e351:	f3 0f 5e c1          	divss  %xmm1,%xmm0
    e355:	f3 0f 10 0d 53 33 01 	movss  0x13353(%rip),%xmm1        # 216b0 <g_5046+0x1f90>
    e35c:	00 
    e35d:	0f 54 c1             	andps  %xmm1,%xmm0
    e360:	0f 2f 05 75 33 01 00 	comiss 0x13375(%rip),%xmm0        # 216dc <g_5046+0x1fbc>
    e367:	0f 97 c0             	seta   %al
    e36a:	83 f0 01             	xor    $0x1,%eax
    e36d:	84 c0                	test   %al,%al
    e36f:	74 0c                	je     e37d <safe_div_func_float_f_f+0x99>
    e371:	f3 0f 10 45 fc       	movss  -0x4(%rbp),%xmm0
    e376:	f3 0f 5e 45 f8       	divss  -0x8(%rbp),%xmm0
    e37b:	eb 05                	jmp    e382 <safe_div_func_float_f_f+0x9e>
    e37d:	f3 0f 10 45 fc       	movss  -0x4(%rbp),%xmm0
    e382:	5d                   	pop    %rbp
    e383:	c3                   	retq   

000000000000e384 <safe_add_func_double_f_f>:
    e384:	f3 0f 1e fa          	endbr64 
    e388:	55                   	push   %rbp
    e389:	48 89 e5             	mov    %rsp,%rbp
    e38c:	f2 0f 11 45 f8       	movsd  %xmm0,-0x8(%rbp)
    e391:	f2 0f 11 4d f0       	movsd  %xmm1,-0x10(%rbp)
    e396:	f2 0f 10 4d f8       	movsd  -0x8(%rbp),%xmm1
    e39b:	f2 0f 10 05 3d 33 01 	movsd  0x1333d(%rip),%xmm0        # 216e0 <g_5046+0x1fc0>
    e3a2:	00 
    e3a3:	f2 0f 59 c8          	mulsd  %xmm0,%xmm1
    e3a7:	f2 0f 10 55 f0       	movsd  -0x10(%rbp),%xmm2
    e3ac:	f2 0f 10 05 2c 33 01 	movsd  0x1332c(%rip),%xmm0        # 216e0 <g_5046+0x1fc0>
    e3b3:	00 
    e3b4:	f2 0f 59 c2          	mulsd  %xmm2,%xmm0
    e3b8:	f2 0f 58 c1          	addsd  %xmm1,%xmm0
    e3bc:	f3 0f 7e 0d 2c 33 01 	movq   0x1332c(%rip),%xmm1        # 216f0 <g_5046+0x1fd0>
    e3c3:	00 
    e3c4:	66 0f 54 c1          	andpd  %xmm1,%xmm0
    e3c8:	66 0f 2f 05 30 33 01 	comisd 0x13330(%rip),%xmm0        # 21700 <g_5046+0x1fe0>
    e3cf:	00 
    e3d0:	76 07                	jbe    e3d9 <safe_add_func_double_f_f+0x55>
    e3d2:	f2 0f 10 45 f8       	movsd  -0x8(%rbp),%xmm0
    e3d7:	eb 0a                	jmp    e3e3 <safe_add_func_double_f_f+0x5f>
    e3d9:	f2 0f 10 45 f8       	movsd  -0x8(%rbp),%xmm0
    e3de:	f2 0f 58 45 f0       	addsd  -0x10(%rbp),%xmm0
    e3e3:	5d                   	pop    %rbp
    e3e4:	c3                   	retq   

000000000000e3e5 <safe_sub_func_double_f_f>:
    e3e5:	f3 0f 1e fa          	endbr64 
    e3e9:	55                   	push   %rbp
    e3ea:	48 89 e5             	mov    %rsp,%rbp
    e3ed:	f2 0f 11 45 f8       	movsd  %xmm0,-0x8(%rbp)
    e3f2:	f2 0f 11 4d f0       	movsd  %xmm1,-0x10(%rbp)
    e3f7:	f2 0f 10 4d f8       	movsd  -0x8(%rbp),%xmm1
    e3fc:	f2 0f 10 05 dc 32 01 	movsd  0x132dc(%rip),%xmm0        # 216e0 <g_5046+0x1fc0>
    e403:	00 
    e404:	f2 0f 59 c1          	mulsd  %xmm1,%xmm0
    e408:	f2 0f 10 55 f0       	movsd  -0x10(%rbp),%xmm2
    e40d:	f2 0f 10 0d cb 32 01 	movsd  0x132cb(%rip),%xmm1        # 216e0 <g_5046+0x1fc0>
    e414:	00 
    e415:	f2 0f 59 ca          	mulsd  %xmm2,%xmm1
    e419:	f2 0f 5c c1          	subsd  %xmm1,%xmm0
    e41d:	f3 0f 7e 0d cb 32 01 	movq   0x132cb(%rip),%xmm1        # 216f0 <g_5046+0x1fd0>
    e424:	00 
    e425:	66 0f 54 c1          	andpd  %xmm1,%xmm0
    e429:	66 0f 2f 05 cf 32 01 	comisd 0x132cf(%rip),%xmm0        # 21700 <g_5046+0x1fe0>
    e430:	00 
    e431:	76 07                	jbe    e43a <safe_sub_func_double_f_f+0x55>
    e433:	f2 0f 10 45 f8       	movsd  -0x8(%rbp),%xmm0
    e438:	eb 0a                	jmp    e444 <safe_sub_func_double_f_f+0x5f>
    e43a:	f2 0f 10 45 f8       	movsd  -0x8(%rbp),%xmm0
    e43f:	f2 0f 5c 45 f0       	subsd  -0x10(%rbp),%xmm0
    e444:	5d                   	pop    %rbp
    e445:	c3                   	retq   

000000000000e446 <safe_mul_func_double_f_f>:
    e446:	f3 0f 1e fa          	endbr64 
    e44a:	55                   	push   %rbp
    e44b:	48 89 e5             	mov    %rsp,%rbp
    e44e:	f2 0f 11 45 f8       	movsd  %xmm0,-0x8(%rbp)
    e453:	f2 0f 11 4d f0       	movsd  %xmm1,-0x10(%rbp)
    e458:	f2 0f 10 4d f8       	movsd  -0x8(%rbp),%xmm1
    e45d:	f2 0f 10 05 a3 32 01 	movsd  0x132a3(%rip),%xmm0        # 21708 <g_5046+0x1fe8>
    e464:	00 
    e465:	f2 0f 59 c8          	mulsd  %xmm0,%xmm1
    e469:	f2 0f 10 55 f0       	movsd  -0x10(%rbp),%xmm2
    e46e:	f2 0f 10 05 9a 32 01 	movsd  0x1329a(%rip),%xmm0        # 21710 <g_5046+0x1ff0>
    e475:	00 
    e476:	f2 0f 59 c2          	mulsd  %xmm2,%xmm0
    e47a:	f2 0f 59 c1          	mulsd  %xmm1,%xmm0
    e47e:	f3 0f 7e 0d 6a 32 01 	movq   0x1326a(%rip),%xmm1        # 216f0 <g_5046+0x1fd0>
    e485:	00 
    e486:	66 0f 54 c1          	andpd  %xmm1,%xmm0
    e48a:	66 0f 2f 05 86 32 01 	comisd 0x13286(%rip),%xmm0        # 21718 <g_5046+0x1ff8>
    e491:	00 
    e492:	76 07                	jbe    e49b <safe_mul_func_double_f_f+0x55>
    e494:	f2 0f 10 45 f8       	movsd  -0x8(%rbp),%xmm0
    e499:	eb 0a                	jmp    e4a5 <safe_mul_func_double_f_f+0x5f>
    e49b:	f2 0f 10 45 f8       	movsd  -0x8(%rbp),%xmm0
    e4a0:	f2 0f 59 45 f0       	mulsd  -0x10(%rbp),%xmm0
    e4a5:	5d                   	pop    %rbp
    e4a6:	c3                   	retq   

000000000000e4a7 <safe_div_func_double_f_f>:
    e4a7:	f3 0f 1e fa          	endbr64 
    e4ab:	55                   	push   %rbp
    e4ac:	48 89 e5             	mov    %rsp,%rbp
    e4af:	f2 0f 11 45 f8       	movsd  %xmm0,-0x8(%rbp)
    e4b4:	f2 0f 11 4d f0       	movsd  %xmm1,-0x10(%rbp)
    e4b9:	f2 0f 10 45 f0       	movsd  -0x10(%rbp),%xmm0
    e4be:	f3 0f 7e 0d 2a 32 01 	movq   0x1322a(%rip),%xmm1        # 216f0 <g_5046+0x1fd0>
    e4c5:	00 
    e4c6:	66 0f 54 c8          	andpd  %xmm0,%xmm1
    e4ca:	f2 0f 10 05 4e 32 01 	movsd  0x1324e(%rip),%xmm0        # 21720 <g_5046+0x2000>
    e4d1:	00 
    e4d2:	66 0f 2f c1          	comisd %xmm1,%xmm0
    e4d6:	0f 97 c0             	seta   %al
    e4d9:	83 f0 01             	xor    $0x1,%eax
    e4dc:	84 c0                	test   %al,%al
    e4de:	75 5a                	jne    e53a <safe_div_func_double_f_f+0x93>
    e4e0:	66 0f ef c0          	pxor   %xmm0,%xmm0
    e4e4:	66 0f 2e 45 f0       	ucomisd -0x10(%rbp),%xmm0
    e4e9:	7a 0b                	jp     e4f6 <safe_div_func_double_f_f+0x4f>
    e4eb:	66 0f ef c0          	pxor   %xmm0,%xmm0
    e4ef:	66 0f 2e 45 f0       	ucomisd -0x10(%rbp),%xmm0
    e4f4:	74 50                	je     e546 <safe_div_func_double_f_f+0x9f>
    e4f6:	f2 0f 10 4d f8       	movsd  -0x8(%rbp),%xmm1
    e4fb:	f2 0f 10 05 25 32 01 	movsd  0x13225(%rip),%xmm0        # 21728 <g_5046+0x2008>
    e502:	00 
    e503:	f2 0f 59 c1          	mulsd  %xmm1,%xmm0
    e507:	f2 0f 10 55 f0       	movsd  -0x10(%rbp),%xmm2
    e50c:	f2 0f 10 0d 1c 32 01 	movsd  0x1321c(%rip),%xmm1        # 21730 <g_5046+0x2010>
    e513:	00 
    e514:	f2 0f 59 ca          	mulsd  %xmm2,%xmm1
    e518:	f2 0f 5e c1          	divsd  %xmm1,%xmm0
    e51c:	f3 0f 7e 0d cc 31 01 	movq   0x131cc(%rip),%xmm1        # 216f0 <g_5046+0x1fd0>
    e523:	00 
    e524:	66 0f 54 c1          	andpd  %xmm1,%xmm0
    e528:	66 0f 2f 05 08 32 01 	comisd 0x13208(%rip),%xmm0        # 21738 <g_5046+0x2018>
    e52f:	00 
    e530:	0f 97 c0             	seta   %al
    e533:	83 f0 01             	xor    $0x1,%eax
    e536:	84 c0                	test   %al,%al
    e538:	74 0c                	je     e546 <safe_div_func_double_f_f+0x9f>
    e53a:	f2 0f 10 45 f8       	movsd  -0x8(%rbp),%xmm0
    e53f:	f2 0f 5e 45 f0       	divsd  -0x10(%rbp),%xmm0
    e544:	eb 05                	jmp    e54b <safe_div_func_double_f_f+0xa4>
    e546:	f2 0f 10 45 f8       	movsd  -0x8(%rbp),%xmm0
    e54b:	5d                   	pop    %rbp
    e54c:	c3                   	retq   

000000000000e54d <safe_convert_func_float_to_int32_t>:
    e54d:	f3 0f 1e fa          	endbr64 
    e551:	55                   	push   %rbp
    e552:	48 89 e5             	mov    %rsp,%rbp
    e555:	f3 0f 11 45 fc       	movss  %xmm0,-0x4(%rbp)
    e55a:	f3 0f 10 05 de 31 01 	movss  0x131de(%rip),%xmm0        # 21740 <g_5046+0x2020>
    e561:	00 
    e562:	0f 2f 45 fc          	comiss -0x4(%rbp),%xmm0
    e566:	0f 93 c0             	setae  %al
    e569:	83 f0 01             	xor    $0x1,%eax
    e56c:	84 c0                	test   %al,%al
    e56e:	74 21                	je     e591 <safe_convert_func_float_to_int32_t+0x44>
    e570:	f3 0f 10 45 fc       	movss  -0x4(%rbp),%xmm0
    e575:	0f 2f 05 c8 31 01 00 	comiss 0x131c8(%rip),%xmm0        # 21744 <g_5046+0x2024>
    e57c:	0f 93 c0             	setae  %al
    e57f:	83 f0 01             	xor    $0x1,%eax
    e582:	84 c0                	test   %al,%al
    e584:	74 0b                	je     e591 <safe_convert_func_float_to_int32_t+0x44>
    e586:	f3 0f 10 45 fc       	movss  -0x4(%rbp),%xmm0
    e58b:	f3 0f 2c c0          	cvttss2si %xmm0,%eax
    e58f:	eb 05                	jmp    e596 <safe_convert_func_float_to_int32_t+0x49>
    e591:	b8 ff ff ff 7f       	mov    $0x7fffffff,%eax
    e596:	5d                   	pop    %rbp
    e597:	c3                   	retq   

000000000000e598 <crc32_gentab>:
    e598:	f3 0f 1e fa          	endbr64 
    e59c:	55                   	push   %rbp
    e59d:	48 89 e5             	mov    %rsp,%rbp
    e5a0:	c7 45 fc 20 83 b8 ed 	movl   $0xedb88320,-0x4(%rbp)
    e5a7:	c7 45 f4 00 00 00 00 	movl   $0x0,-0xc(%rbp)
    e5ae:	eb 51                	jmp    e601 <crc32_gentab+0x69>
    e5b0:	8b 45 f4             	mov    -0xc(%rbp),%eax
    e5b3:	89 45 f0             	mov    %eax,-0x10(%rbp)
    e5b6:	c7 45 f8 08 00 00 00 	movl   $0x8,-0x8(%rbp)
    e5bd:	eb 1e                	jmp    e5dd <crc32_gentab+0x45>
    e5bf:	8b 45 f0             	mov    -0x10(%rbp),%eax
    e5c2:	83 e0 01             	and    $0x1,%eax
    e5c5:	85 c0                	test   %eax,%eax
    e5c7:	74 0d                	je     e5d6 <crc32_gentab+0x3e>
    e5c9:	8b 45 f0             	mov    -0x10(%rbp),%eax
    e5cc:	d1 e8                	shr    %eax
    e5ce:	33 45 fc             	xor    -0x4(%rbp),%eax
    e5d1:	89 45 f0             	mov    %eax,-0x10(%rbp)
    e5d4:	eb 03                	jmp    e5d9 <crc32_gentab+0x41>
    e5d6:	d1 6d f0             	shrl   -0x10(%rbp)
    e5d9:	83 6d f8 01          	subl   $0x1,-0x8(%rbp)
    e5dd:	83 7d f8 00          	cmpl   $0x0,-0x8(%rbp)
    e5e1:	7f dc                	jg     e5bf <crc32_gentab+0x27>
    e5e3:	8b 45 f4             	mov    -0xc(%rbp),%eax
    e5e6:	48 98                	cltq   
    e5e8:	48 8d 0c 85 00 00 00 	lea    0x0(,%rax,4),%rcx
    e5ef:	00 
    e5f0:	48 8d 15 c9 c6 01 00 	lea    0x1c6c9(%rip),%rdx        # 2acc0 <crc32_tab>
    e5f7:	8b 45 f0             	mov    -0x10(%rbp),%eax
    e5fa:	89 04 11             	mov    %eax,(%rcx,%rdx,1)
    e5fd:	83 45 f4 01          	addl   $0x1,-0xc(%rbp)
    e601:	81 7d f4 ff 00 00 00 	cmpl   $0xff,-0xc(%rbp)
    e608:	7e a6                	jle    e5b0 <crc32_gentab+0x18>
    e60a:	90                   	nop
    e60b:	90                   	nop
    e60c:	5d                   	pop    %rbp
    e60d:	c3                   	retq   

000000000000e60e <crc32_byte>:
    e60e:	f3 0f 1e fa          	endbr64 
    e612:	55                   	push   %rbp
    e613:	48 89 e5             	mov    %rsp,%rbp
    e616:	89 f8                	mov    %edi,%eax
    e618:	88 45 fc             	mov    %al,-0x4(%rbp)
    e61b:	8b 05 ff 59 01 00    	mov    0x159ff(%rip),%eax        # 24020 <crc32_context>
    e621:	c1 e8 08             	shr    $0x8,%eax
    e624:	89 c1                	mov    %eax,%ecx
    e626:	0f b6 55 fc          	movzbl -0x4(%rbp),%edx
    e62a:	8b 05 f0 59 01 00    	mov    0x159f0(%rip),%eax        # 24020 <crc32_context>
    e630:	31 d0                	xor    %edx,%eax
    e632:	0f b6 c0             	movzbl %al,%eax
    e635:	89 c0                	mov    %eax,%eax
    e637:	48 8d 14 85 00 00 00 	lea    0x0(,%rax,4),%rdx
    e63e:	00 
    e63f:	48 8d 05 7a c6 01 00 	lea    0x1c67a(%rip),%rax        # 2acc0 <crc32_tab>
    e646:	8b 04 02             	mov    (%rdx,%rax,1),%eax
    e649:	31 c8                	xor    %ecx,%eax
    e64b:	89 05 cf 59 01 00    	mov    %eax,0x159cf(%rip)        # 24020 <crc32_context>
    e651:	90                   	nop
    e652:	5d                   	pop    %rbp
    e653:	c3                   	retq   

000000000000e654 <crc32_8bytes>:
    e654:	f3 0f 1e fa          	endbr64 
    e658:	55                   	push   %rbp
    e659:	48 89 e5             	mov    %rsp,%rbp
    e65c:	48 83 ec 08          	sub    $0x8,%rsp
    e660:	48 89 7d f8          	mov    %rdi,-0x8(%rbp)
    e664:	48 8b 45 f8          	mov    -0x8(%rbp),%rax
    e668:	0f b6 c0             	movzbl %al,%eax
    e66b:	89 c7                	mov    %eax,%edi
    e66d:	e8 9c ff ff ff       	callq  e60e <crc32_byte>
    e672:	48 8b 45 f8          	mov    -0x8(%rbp),%rax
    e676:	48 c1 e8 08          	shr    $0x8,%rax
    e67a:	0f b6 c0             	movzbl %al,%eax
    e67d:	89 c7                	mov    %eax,%edi
    e67f:	e8 8a ff ff ff       	callq  e60e <crc32_byte>
    e684:	48 8b 45 f8          	mov    -0x8(%rbp),%rax
    e688:	48 c1 e8 10          	shr    $0x10,%rax
    e68c:	0f b6 c0             	movzbl %al,%eax
    e68f:	89 c7                	mov    %eax,%edi
    e691:	e8 78 ff ff ff       	callq  e60e <crc32_byte>
    e696:	48 8b 45 f8          	mov    -0x8(%rbp),%rax
    e69a:	48 c1 e8 18          	shr    $0x18,%rax
    e69e:	0f b6 c0             	movzbl %al,%eax
    e6a1:	89 c7                	mov    %eax,%edi
    e6a3:	e8 66 ff ff ff       	callq  e60e <crc32_byte>
    e6a8:	48 8b 45 f8          	mov    -0x8(%rbp),%rax
    e6ac:	48 c1 e8 20          	shr    $0x20,%rax
    e6b0:	0f b6 c0             	movzbl %al,%eax
    e6b3:	89 c7                	mov    %eax,%edi
    e6b5:	e8 54 ff ff ff       	callq  e60e <crc32_byte>
    e6ba:	48 8b 45 f8          	mov    -0x8(%rbp),%rax
    e6be:	48 c1 e8 28          	shr    $0x28,%rax
    e6c2:	0f b6 c0             	movzbl %al,%eax
    e6c5:	89 c7                	mov    %eax,%edi
    e6c7:	e8 42 ff ff ff       	callq  e60e <crc32_byte>
    e6cc:	48 8b 45 f8          	mov    -0x8(%rbp),%rax
    e6d0:	48 c1 e8 30          	shr    $0x30,%rax
    e6d4:	0f b6 c0             	movzbl %al,%eax
    e6d7:	89 c7                	mov    %eax,%edi
    e6d9:	e8 30 ff ff ff       	callq  e60e <crc32_byte>
    e6de:	48 8b 45 f8          	mov    -0x8(%rbp),%rax
    e6e2:	48 c1 e8 38          	shr    $0x38,%rax
    e6e6:	0f b6 c0             	movzbl %al,%eax
    e6e9:	89 c7                	mov    %eax,%edi
    e6eb:	e8 1e ff ff ff       	callq  e60e <crc32_byte>
    e6f0:	90                   	nop
    e6f1:	c9                   	leaveq 
    e6f2:	c3                   	retq   

000000000000e6f3 <transparent_crc>:
    e6f3:	f3 0f 1e fa          	endbr64 
    e6f7:	55                   	push   %rbp
    e6f8:	48 89 e5             	mov    %rsp,%rbp
    e6fb:	48 83 ec 20          	sub    $0x20,%rsp
    e6ff:	48 89 7d f8          	mov    %rdi,-0x8(%rbp)
    e703:	48 89 75 f0          	mov    %rsi,-0x10(%rbp)
    e707:	89 55 ec             	mov    %edx,-0x14(%rbp)
    e70a:	48 8b 45 f8          	mov    -0x8(%rbp),%rax
    e70e:	48 89 c7             	mov    %rax,%rdi
    e711:	e8 3e ff ff ff       	callq  e654 <crc32_8bytes>
    e716:	83 7d ec 00          	cmpl   $0x0,-0x14(%rbp)
    e71a:	74 22                	je     e73e <transparent_crc+0x4b>
    e71c:	8b 05 fe 58 01 00    	mov    0x158fe(%rip),%eax        # 24020 <crc32_context>
    e722:	f7 d0                	not    %eax
    e724:	89 c2                	mov    %eax,%edx
    e726:	48 8b 45 f0          	mov    -0x10(%rbp),%rax
    e72a:	48 89 c6             	mov    %rax,%rsi
    e72d:	48 8d 3d fc 08 01 00 	lea    0x108fc(%rip),%rdi        # 1f030 <_IO_stdin_used+0x30>
    e734:	b8 00 00 00 00       	mov    $0x0,%eax
    e739:	e8 42 e9 ff ff       	callq  d080 <printf@plt>
    e73e:	90                   	nop
    e73f:	c9                   	leaveq 
    e740:	c3                   	retq   

000000000000e741 <transparent_crc_bytes>:
    e741:	f3 0f 1e fa          	endbr64 
    e745:	55                   	push   %rbp
    e746:	48 89 e5             	mov    %rsp,%rbp
    e749:	48 83 ec 30          	sub    $0x30,%rsp
    e74d:	48 89 7d e8          	mov    %rdi,-0x18(%rbp)
    e751:	89 75 e4             	mov    %esi,-0x1c(%rbp)
    e754:	48 89 55 d8          	mov    %rdx,-0x28(%rbp)
    e758:	89 4d e0             	mov    %ecx,-0x20(%rbp)
    e75b:	c7 45 fc 00 00 00 00 	movl   $0x0,-0x4(%rbp)
    e762:	eb 1e                	jmp    e782 <transparent_crc_bytes+0x41>
    e764:	8b 45 fc             	mov    -0x4(%rbp),%eax
    e767:	48 63 d0             	movslq %eax,%rdx
    e76a:	48 8b 45 e8          	mov    -0x18(%rbp),%rax
    e76e:	48 01 d0             	add    %rdx,%rax
    e771:	0f b6 00             	movzbl (%rax),%eax
    e774:	0f b6 c0             	movzbl %al,%eax
    e777:	89 c7                	mov    %eax,%edi
    e779:	e8 90 fe ff ff       	callq  e60e <crc32_byte>
    e77e:	83 45 fc 01          	addl   $0x1,-0x4(%rbp)
    e782:	8b 45 fc             	mov    -0x4(%rbp),%eax
    e785:	3b 45 e4             	cmp    -0x1c(%rbp),%eax
    e788:	7c da                	jl     e764 <transparent_crc_bytes+0x23>
    e78a:	83 7d e0 00          	cmpl   $0x0,-0x20(%rbp)
    e78e:	74 22                	je     e7b2 <transparent_crc_bytes+0x71>
    e790:	8b 05 8a 58 01 00    	mov    0x1588a(%rip),%eax        # 24020 <crc32_context>
    e796:	f7 d0                	not    %eax
    e798:	89 c2                	mov    %eax,%edx
    e79a:	48 8b 45 d8          	mov    -0x28(%rbp),%rax
    e79e:	48 89 c6             	mov    %rax,%rsi
    e7a1:	48 8d 3d 88 08 01 00 	lea    0x10888(%rip),%rdi        # 1f030 <_IO_stdin_used+0x30>
    e7a8:	b8 00 00 00 00       	mov    $0x0,%eax
    e7ad:	e8 ce e8 ff ff       	callq  d080 <printf@plt>
    e7b2:	90                   	nop
    e7b3:	c9                   	leaveq 
    e7b4:	c3                   	retq   

000000000000e7b5 <func_1>:
    e7b5:	f3 0f 1e fa          	endbr64 
    e7b9:	55                   	push   %rbp
    e7ba:	48 89 e5             	mov    %rsp,%rbp
    e7bd:	41 57                	push   %r15
    e7bf:	41 56                	push   %r14
    e7c1:	41 55                	push   %r13
    e7c3:	41 54                	push   %r12
    e7c5:	53                   	push   %rbx
    e7c6:	48 81 ec 28 09 00 00 	sub    $0x928,%rsp
    e7cd:	48 89 bd e8 f6 ff ff 	mov    %rdi,-0x918(%rbp)
    e7d4:	64 48 8b 04 25 28 00 	mov    %fs:0x28,%rax
    e7db:	00 00 
    e7dd:	48 89 45 c8          	mov    %rax,-0x38(%rbp)
    e7e1:	31 c0                	xor    %eax,%eax
    e7e3:	c7 85 28 f7 ff ff 08 	movl   $0x8,-0x8d8(%rbp)
    e7ea:	00 00 00 
    e7ed:	48 8d 05 30 58 01 00 	lea    0x15830(%rip),%rax        # 24024 <g_17>
    e7f4:	48 89 85 a0 f7 ff ff 	mov    %rax,-0x860(%rbp)
    e7fb:	c6 85 f8 f6 ff ff 35 	movb   $0x35,-0x908(%rbp)
    e802:	66 c7 85 04 f7 ff ff 	movw   $0xffff,-0x8fc(%rbp)
    e809:	ff ff 
    e80b:	48 c7 85 a8 f7 ff ff 	movq   $0x8,-0x858(%rbp)
    e812:	08 00 00 00 
    e816:	c7 85 10 f7 ff ff 18 	movl   $0x37d4b318,-0x8f0(%rbp)
    e81d:	b3 d4 37 
    e820:	48 8d 05 d1 69 01 00 	lea    0x169d1(%rip),%rax        # 251f8 <g_2757>
    e827:	48 89 85 b0 f7 ff ff 	mov    %rax,-0x850(%rbp)
    e82e:	48 8d 05 1b 5b 01 00 	lea    0x15b1b(%rip),%rax        # 24350 <g_164>
    e835:	48 89 85 b8 f7 ff ff 	mov    %rax,-0x848(%rbp)
    e83c:	c7 85 40 f7 ff ff 01 	movl   $0x1,-0x8c0(%rbp)
    e843:	00 00 00 
    e846:	48 c7 85 78 f7 ff ff 	movq   $0x0,-0x888(%rbp)
    e84d:	00 00 00 00 
    e851:	c7 85 44 f7 ff ff 65 	movl   $0x6205a165,-0x8bc(%rbp)
    e858:	a1 05 62 
    e85b:	66 c7 85 06 f7 ff ff 	movw   $0xffff,-0x8fa(%rbp)
    e862:	ff ff 
    e864:	48 c7 85 c0 f7 ff ff 	movq   $0x1,-0x840(%rbp)
    e86b:	01 00 00 00 
    e86f:	c7 85 48 f7 ff ff 46 	movl   $0xf363ee46,-0x8b8(%rbp)
    e876:	ee 63 f3 
    e879:	c7 85 70 f9 ff ff fb 	movl   $0xfffffffb,-0x690(%rbp)
    e880:	ff ff ff 
    e883:	c7 85 74 f9 ff ff fb 	movl   $0xfffffffb,-0x68c(%rbp)
    e88a:	ff ff ff 
    e88d:	c7 85 78 f9 ff ff fb 	movl   $0xfffffffb,-0x688(%rbp)
    e894:	ff ff ff 
    e897:	c7 85 7c f9 ff ff fb 	movl   $0xfffffffb,-0x684(%rbp)
    e89e:	ff ff ff 
    e8a1:	48 c7 85 c8 f7 ff ff 	movq   $0xfffffffffffffffb,-0x838(%rbp)
    e8a8:	fb ff ff ff 
    e8ac:	48 8d 05 25 bd 01 00 	lea    0x1bd25(%rip),%rax        # 2a5d8 <g_2708>
    e8b3:	48 89 85 d0 f7 ff ff 	mov    %rax,-0x830(%rbp)
    e8ba:	66 c7 85 08 f7 ff ff 	movw   $0xffff,-0x8f8(%rbp)
    e8c1:	ff ff 
    e8c3:	48 8d 85 50 fb ff ff 	lea    -0x4b0(%rbp),%rax
    e8ca:	48 8d 15 8f 71 01 00 	lea    0x1718f(%rip),%rdx        # 25a60 <g_5192+0x20>
    e8d1:	b9 23 00 00 00       	mov    $0x23,%ecx
    e8d6:	48 89 c7             	mov    %rax,%rdi
    e8d9:	48 89 d6             	mov    %rdx,%rsi
    e8dc:	f3 48 a5             	rep movsq %ds:(%rsi),%es:(%rdi)
    e8df:	c7 85 14 f7 ff ff e5 	movl   $0x75c585e5,-0x8ec(%rbp)
    e8e6:	85 c5 75 
    e8e9:	48 8d 05 30 b9 01 00 	lea    0x1b930(%rip),%rax        # 2a220 <g_2430>
    e8f0:	48 89 85 d8 f7 ff ff 	mov    %rax,-0x828(%rbp)
    e8f7:	48 8d 05 22 b9 01 00 	lea    0x1b922(%rip),%rax        # 2a220 <g_2430>
    e8fe:	48 89 85 e0 f7 ff ff 	mov    %rax,-0x820(%rbp)
    e905:	66 c7 85 0a f7 ff ff 	movw   $0x9c8,-0x8f6(%rbp)
    e90c:	c8 09 
    e90e:	c7 85 4c f7 ff ff 61 	movl   $0x68293861,-0x8b4(%rbp)
    e915:	38 29 68 
    e918:	c7 85 50 f7 ff ff 07 	movl   $0x7,-0x8b0(%rbp)
    e91f:	00 00 00 
    e922:	48 c7 85 e8 f7 ff ff 	movq   $0x1,-0x818(%rbp)
    e929:	01 00 00 00 
    e92d:	48 c7 85 50 fa ff ff 	movq   $0xfffffffffffffffd,-0x5b0(%rbp)
    e934:	fd ff ff ff 
    e938:	48 b8 a2 52 c0 d0 22 	movabs $0x42291522d0c052a2,%rax
    e93f:	15 29 42 
    e942:	48 89 85 58 fa ff ff 	mov    %rax,-0x5a8(%rbp)
    e949:	48 c7 85 60 fa ff ff 	movq   $0xfffffffffffffffd,-0x5a0(%rbp)
    e950:	fd ff ff ff 
    e954:	48 b9 c3 f9 61 59 bd 	movabs $0x622e38bd5961f9c3,%rcx
    e95b:	38 2e 62 
    e95e:	48 89 8d 68 fa ff ff 	mov    %rcx,-0x598(%rbp)
    e965:	48 bb 09 6b 10 70 11 	movabs $0x5ffb6d1170106b09,%rbx
    e96c:	6d fb 5f 
    e96f:	48 89 9d 70 fa ff ff 	mov    %rbx,-0x590(%rbp)
    e976:	48 c7 85 78 fa ff ff 	movq   $0x0,-0x588(%rbp)
    e97d:	00 00 00 00 
    e981:	48 89 8d 80 fa ff ff 	mov    %rcx,-0x580(%rbp)
    e988:	48 89 8d 88 fa ff ff 	mov    %rcx,-0x578(%rbp)
    e98f:	48 89 85 90 fa ff ff 	mov    %rax,-0x570(%rbp)
    e996:	48 89 85 98 fa ff ff 	mov    %rax,-0x568(%rbp)
    e99d:	48 c7 85 a0 fa ff ff 	movq   $0x0,-0x560(%rbp)
    e9a4:	00 00 00 00 
    e9a8:	48 c7 85 a8 fa ff ff 	movq   $0x0,-0x558(%rbp)
    e9af:	00 00 00 00 
    e9b3:	48 c7 85 b0 fa ff ff 	movq   $0x0,-0x550(%rbp)
    e9ba:	00 00 00 00 
    e9be:	48 89 9d b8 fa ff ff 	mov    %rbx,-0x548(%rbp)
    e9c5:	48 c7 85 c0 fa ff ff 	movq   $0x0,-0x540(%rbp)
    e9cc:	00 00 00 00 
    e9d0:	48 89 9d c8 fa ff ff 	mov    %rbx,-0x538(%rbp)
    e9d7:	48 89 85 d0 fa ff ff 	mov    %rax,-0x530(%rbp)
    e9de:	48 c7 85 d8 fa ff ff 	movq   $0xfffffffffffffffd,-0x528(%rbp)
    e9e5:	fd ff ff ff 
    e9e9:	48 89 8d e0 fa ff ff 	mov    %rcx,-0x520(%rbp)
    e9f0:	48 c7 85 e8 fa ff ff 	movq   $0x0,-0x518(%rbp)
    e9f7:	00 00 00 00 
    e9fb:	48 89 9d f0 fa ff ff 	mov    %rbx,-0x510(%rbp)
    ea02:	48 c7 85 f8 fa ff ff 	movq   $0xfffffffffffffffd,-0x508(%rbp)
    ea09:	fd ff ff ff 
    ea0d:	48 c7 85 00 fb ff ff 	movq   $0xfffffffffffffffd,-0x500(%rbp)
    ea14:	fd ff ff ff 
    ea18:	48 89 9d 08 fb ff ff 	mov    %rbx,-0x4f8(%rbp)
    ea1f:	48 c7 85 10 fb ff ff 	movq   $0xfffffffffffffffd,-0x4f0(%rbp)
    ea26:	fd ff ff ff 
    ea2a:	48 89 9d 18 fb ff ff 	mov    %rbx,-0x4e8(%rbp)
    ea31:	48 89 85 20 fb ff ff 	mov    %rax,-0x4e0(%rbp)
    ea38:	48 c7 85 28 fb ff ff 	movq   $0x0,-0x4d8(%rbp)
    ea3f:	00 00 00 00 
    ea43:	48 c7 85 30 fb ff ff 	movq   $0xfffffffffffffffd,-0x4d0(%rbp)
    ea4a:	fd ff ff ff 
    ea4e:	48 89 85 38 fb ff ff 	mov    %rax,-0x4c8(%rbp)
    ea55:	48 c7 85 40 fb ff ff 	movq   $0xfffffffffffffffd,-0x4c0(%rbp)
    ea5c:	fd ff ff ff 
    ea60:	48 89 8d 48 fb ff ff 	mov    %rcx,-0x4b8(%rbp)
    ea67:	48 8d 05 9a a4 01 00 	lea    0x1a49a(%rip),%rax        # 28f08 <g_354>
    ea6e:	48 89 85 f0 f7 ff ff 	mov    %rax,-0x810(%rbp)
    ea75:	48 8d 05 64 a5 01 00 	lea    0x1a564(%rip),%rax        # 28fe0 <g_932>
    ea7c:	48 89 85 f8 f7 ff ff 	mov    %rax,-0x808(%rbp)
    ea83:	c6 85 f9 f6 ff ff 4a 	movb   $0x4a,-0x907(%rbp)
    ea8a:	c7 85 54 f7 ff ff 09 	movl   $0x9,-0x8ac(%rbp)
    ea91:	00 00 00 
    ea94:	48 b8 b6 a0 cf 3e 75 	movabs $0x9fc696753ecfa0b6,%rax
    ea9b:	96 c6 9f 
    ea9e:	48 89 85 00 f8 ff ff 	mov    %rax,-0x800(%rbp)
    eaa5:	66 c7 85 0c f7 ff ff 	movw   $0x3,-0x8f4(%rbp)
    eaac:	03 00 
    eaae:	48 c7 85 80 f7 ff ff 	movq   $0x0,-0x880(%rbp)
    eab5:	00 00 00 00 
    eab9:	48 8d 85 80 f7 ff ff 	lea    -0x880(%rbp),%rax
    eac0:	48 89 85 08 f8 ff ff 	mov    %rax,-0x7f8(%rbp)
    eac7:	c7 85 18 f7 ff ff e2 	movl   $0xb53126e2,-0x8e8(%rbp)
    eace:	26 31 b5 
    ead1:	48 8d 85 18 f7 ff ff 	lea    -0x8e8(%rbp),%rax
    ead8:	48 89 85 10 f8 ff ff 	mov    %rax,-0x7f0(%rbp)
    eadf:	48 8d 05 62 5f 01 00 	lea    0x15f62(%rip),%rax        # 24a48 <g_2197>
    eae6:	48 89 85 88 f7 ff ff 	mov    %rax,-0x878(%rbp)
    eaed:	48 8d 85 88 f7 ff ff 	lea    -0x878(%rbp),%rax
    eaf4:	48 89 85 90 f7 ff ff 	mov    %rax,-0x870(%rbp)
    eafb:	48 8d 85 90 f7 ff ff 	lea    -0x870(%rbp),%rax
    eb02:	48 89 85 e0 f9 ff ff 	mov    %rax,-0x620(%rbp)
    eb09:	48 8d 85 90 f7 ff ff 	lea    -0x870(%rbp),%rax
    eb10:	48 89 85 e8 f9 ff ff 	mov    %rax,-0x618(%rbp)
    eb17:	48 8d 85 90 f7 ff ff 	lea    -0x870(%rbp),%rax
    eb1e:	48 89 85 f0 f9 ff ff 	mov    %rax,-0x610(%rbp)
    eb25:	48 8d 85 90 f7 ff ff 	lea    -0x870(%rbp),%rax
    eb2c:	48 89 85 f8 f9 ff ff 	mov    %rax,-0x608(%rbp)
    eb33:	48 8d 85 90 f7 ff ff 	lea    -0x870(%rbp),%rax
    eb3a:	48 89 85 00 fa ff ff 	mov    %rax,-0x600(%rbp)
    eb41:	48 8d 85 90 f7 ff ff 	lea    -0x870(%rbp),%rax
    eb48:	48 89 85 08 fa ff ff 	mov    %rax,-0x5f8(%rbp)
    eb4f:	c7 85 58 f7 ff ff 7e 	movl   $0xee364b7e,-0x8a8(%rbp)
    eb56:	4b 36 ee 
    eb59:	c7 85 2c f7 ff ff 00 	movl   $0x0,-0x8d4(%rbp)
    eb60:	00 00 00 
    eb63:	eb 1e                	jmp    eb83 <func_1+0x3ce>
    eb65:	8b 85 2c f7 ff ff    	mov    -0x8d4(%rbp),%eax
    eb6b:	48 98                	cltq   
    eb6d:	48 8d 15 8c c5 01 00 	lea    0x1c58c(%rip),%rdx        # 2b100 <g_502>
    eb74:	48 89 94 c5 60 f9 ff 	mov    %rdx,-0x6a0(%rbp,%rax,8)
    eb7b:	ff 
    eb7c:	83 85 2c f7 ff ff 01 	addl   $0x1,-0x8d4(%rbp)
    eb83:	83 bd 2c f7 ff ff 00 	cmpl   $0x0,-0x8d4(%rbp)
    eb8a:	7e d9                	jle    eb65 <func_1+0x3b0>
    eb8c:	8b 85 28 f7 ff ff    	mov    -0x8d8(%rbp),%eax
    eb92:	0f be d8             	movsbl %al,%ebx
    eb95:	48 8b 85 a8 f7 ff ff 	mov    -0x858(%rbp),%rax
    eb9c:	44 0f be f0          	movsbl %al,%r14d
    eba0:	4c 0f bf ad 04 f7 ff 	movswq -0x8fc(%rbp),%r13
    eba7:	ff 
    eba8:	44 0f bf a5 04 f7 ff 	movswl -0x8fc(%rbp),%r12d
    ebaf:	ff 
    ebb0:	8b 85 28 f7 ff ff    	mov    -0x8d8(%rbp),%eax
    ebb6:	0f b6 c0             	movzbl %al,%eax
    ebb9:	89 85 bc f6 ff ff    	mov    %eax,-0x944(%rbp)
    ebbf:	b8 7a 02 00 00       	mov    $0x27a,%eax
    ebc4:	44 0f bf f8          	movswl %ax,%r15d
    ebc8:	83 bd 28 f7 ff ff 00 	cmpl   $0x0,-0x8d8(%rbp)
    ebcf:	0f 85 bd 00 00 00    	jne    ec92 <func_1+0x4dd>
    ebd5:	0f b7 05 9a 54 01 00 	movzwl 0x1549a(%rip),%eax        # 24076 <g_25+0x36>
    ebdc:	48 8b 05 5d 9a 01 00 	mov    0x19a5d(%rip),%rax        # 28640 <g_24>
    ebe3:	0f b7 00             	movzwl (%rax),%eax
    ebe6:	0f bf d0             	movswl %ax,%edx
    ebe9:	48 8b 05 50 9a 01 00 	mov    0x19a50(%rip),%rax        # 28640 <g_24>
    ebf0:	48 39 85 a0 f7 ff ff 	cmp    %rax,-0x860(%rbp)
    ebf7:	0f 94 c0             	sete   %al
    ebfa:	0f b6 c0             	movzbl %al,%eax
    ebfd:	89 d6                	mov    %edx,%esi
    ebff:	89 c7                	mov    %eax,%edi
    ec01:	e8 cd e7 ff ff       	callq  d3d3 <safe_sub_func_int16_t_s_s>
    ec06:	0f b7 05 4f 54 01 00 	movzwl 0x1544f(%rip),%eax        # 2405c <g_25+0x1c>
    ec0d:	0f b7 c8             	movzwl %ax,%ecx
    ec10:	48 8d 85 c0 f6 ff ff 	lea    -0x940(%rbp),%rax
    ec17:	8b 95 28 f7 ff ff    	mov    -0x8d8(%rbp),%edx
    ec1d:	89 ce                	mov    %ecx,%esi
    ec1f:	48 89 c7             	mov    %rax,%rdi
    ec22:	e8 98 6d 00 00       	callq  159bf <func_28>
    ec27:	48 bf f0 2b 3e 6c 2b 	movabs $0x6a7ebb2b6c3e2bf0,%rdi
    ec2e:	bb 7e 6a 
    ec31:	e8 e7 27 00 00       	callq  1141d <func_26>
    ec36:	88 85 f8 f6 ff ff    	mov    %al,-0x908(%rbp)
    ec3c:	0f b6 85 f8 f6 ff ff 	movzbl -0x908(%rbp),%eax
    ec43:	39 85 28 f7 ff ff    	cmp    %eax,-0x8d8(%rbp)
    ec49:	0f 9d c0             	setge  %al
    ec4c:	0f b6 c0             	movzbl %al,%eax
    ec4f:	39 85 28 f7 ff ff    	cmp    %eax,-0x8d8(%rbp)
    ec55:	0f 9d c0             	setge  %al
    ec58:	0f b6 c0             	movzbl %al,%eax
    ec5b:	be fc ff ff ff       	mov    $0xfffffffc,%esi
    ec60:	89 c7                	mov    %eax,%edi
    ec62:	e8 ab e5 ff ff       	callq  d212 <safe_mul_func_int8_t_s_s>
    ec67:	66 98                	cbtw   
    ec69:	0f b7 d0             	movzwl %ax,%edx
    ec6c:	48 8b 85 a0 f7 ff ff 	mov    -0x860(%rbp),%rax
    ec73:	0f b7 00             	movzwl (%rax),%eax
    ec76:	8d 70 01             	lea    0x1(%rax),%esi
    ec79:	48 8b 8d a0 f7 ff ff 	mov    -0x860(%rbp),%rcx
    ec80:	66 89 31             	mov    %si,(%rcx)
    ec83:	0f b7 c0             	movzwl %ax,%eax
    ec86:	89 d6                	mov    %edx,%esi
    ec88:	89 c7                	mov    %eax,%edi
    ec8a:	e8 ae f0 ff ff       	callq  dd3d <safe_mul_func_uint16_t_u_u>
    ec8f:	66 85 c0             	test   %ax,%ax
    ec92:	8b 95 bc f6 ff ff    	mov    -0x944(%rbp),%edx
    ec98:	44 89 fe             	mov    %r15d,%esi
    ec9b:	bf 01 00 00 00       	mov    $0x1,%edi
    eca0:	e8 d1 26 00 00       	callq  11376 <func_9>
    eca5:	48 8b 05 3c a9 01 00 	mov    0x1a93c(%rip),%rax        # 295e8 <g_1629>
    ecac:	48 8b 05 8d 99 01 00 	mov    0x1998d(%rip),%rax        # 28640 <g_24>
    ecb3:	0f b7 00             	movzwl (%rax),%eax
    ecb6:	0f b7 c0             	movzwl %ax,%eax
    ecb9:	44 89 f1             	mov    %r14d,%ecx
    ecbc:	4c 89 ea             	mov    %r13,%rdx
    ecbf:	44 89 e6             	mov    %r12d,%esi
    ecc2:	89 c7                	mov    %eax,%edi
    ecc4:	e8 7f 16 00 00       	callq  10348 <func_4>
    ecc9:	c7 85 10 f7 ff ff ff 	movl   $0xffffffff,-0x8f0(%rbp)
    ecd0:	ff ff ff 
    ecd3:	8b 85 10 f7 ff ff    	mov    -0x8f0(%rbp),%eax
    ecd9:	83 f8 01             	cmp    $0x1,%eax
    ecdc:	0f 95 c0             	setne  %al
    ecdf:	0f b6 c0             	movzbl %al,%eax
    ece2:	89 de                	mov    %ebx,%esi
    ece4:	89 c7                	mov    %eax,%edi
    ece6:	e8 46 e5 ff ff       	callq  d231 <safe_mod_func_int8_t_s_s>
    eceb:	89 c2                	mov    %eax,%edx
    eced:	48 8d 05 d4 57 01 00 	lea    0x157d4(%rip),%rax        # 244c8 <g_703>
    ecf4:	0f be d2             	movsbl %dl,%edx
    ecf7:	89 10                	mov    %edx,(%rax)
    ecf9:	48 8b 15 f0 a8 01 00 	mov    0x1a8f0(%rip),%rdx        # 295f0 <g_1656>
    ed00:	8b 00                	mov    (%rax),%eax
    ed02:	89 02                	mov    %eax,(%rdx)
    ed04:	66 c7 05 1b c4 01 00 	movw   $0x1,0x1c41b(%rip)        # 2b128 <g_1358>
    ed0b:	01 00 
    ed0d:	e9 ef 00 00 00       	jmpq   ee01 <func_1+0x64c>
    ed12:	48 c7 85 40 f9 ff ff 	movq   $0x0,-0x6c0(%rbp)
    ed19:	00 00 00 00 
    ed1d:	c6 85 02 f7 ff ff 1b 	movb   $0x1b,-0x8fe(%rbp)
    ed24:	c7 85 74 f7 ff ff 00 	movl   $0x0,-0x88c(%rbp)
    ed2b:	00 00 00 
    ed2e:	48 8d 85 70 fc ff ff 	lea    -0x390(%rbp),%rax
    ed35:	48 8d 15 04 0a 01 00 	lea    0x10a04(%rip),%rdx        # 1f740 <g_5046+0x20>
    ed3c:	b9 46 00 00 00       	mov    $0x46,%ecx
    ed41:	48 89 c7             	mov    %rax,%rdi
    ed44:	48 89 d6             	mov    %rdx,%rsi
    ed47:	f3 48 a5             	rep movsq %ds:(%rsi),%es:(%rdi)
    ed4a:	48 8d 05 cf be 01 00 	lea    0x1becf(%rip),%rax        # 2ac20 <g_4539>
    ed51:	48 89 85 48 f9 ff ff 	mov    %rax,-0x6b8(%rbp)
    ed58:	48 c7 85 50 f9 ff ff 	movq   $0x0,-0x6b0(%rbp)
    ed5f:	00 00 00 00 
    ed63:	c7 85 10 fa ff ff 29 	movl   $0xdb75e829,-0x5f0(%rbp)
    ed6a:	e8 75 db 
    ed6d:	c7 85 14 fa ff ff 01 	movl   $0x1,-0x5ec(%rbp)
    ed74:	00 00 00 
    ed77:	c7 85 18 fa ff ff 01 	movl   $0x1,-0x5e8(%rbp)
    ed7e:	00 00 00 
    ed81:	c7 85 1c fa ff ff 29 	movl   $0xdb75e829,-0x5e4(%rbp)
    ed88:	e8 75 db 
    ed8b:	c7 85 20 fa ff ff 01 	movl   $0x1,-0x5e0(%rbp)
    ed92:	00 00 00 
    ed95:	c7 85 24 fa ff ff 01 	movl   $0x1,-0x5dc(%rbp)
    ed9c:	00 00 00 
    ed9f:	c6 85 03 f7 ff ff ff 	movb   $0xff,-0x8fd(%rbp)
    eda6:	c7 85 30 f7 ff ff 00 	movl   $0x0,-0x8d0(%rbp)
    edad:	00 00 00 
    edb0:	eb 1a                	jmp    edcc <func_1+0x617>
    edb2:	8b 85 30 f7 ff ff    	mov    -0x8d0(%rbp),%eax
    edb8:	48 98                	cltq   
    edba:	c7 84 85 c0 f9 ff ff 	movl   $0xec539afd,-0x640(%rbp,%rax,4)
    edc1:	fd 9a 53 ec 
    edc5:	83 85 30 f7 ff ff 01 	addl   $0x1,-0x8d0(%rbp)
    edcc:	83 bd 30 f7 ff ff 02 	cmpl   $0x2,-0x8d0(%rbp)
    edd3:	7e dd                	jle    edb2 <func_1+0x5fd>
    edd5:	48 8b 05 84 a2 01 00 	mov    0x1a284(%rip),%rax        # 29060 <g_1011>
    eddc:	48 8b 00             	mov    (%rax),%rax
    eddf:	48 c7 00 00 00 00 00 	movq   $0x0,(%rax)
    ede6:	0f b7 05 3b c3 01 00 	movzwl 0x1c33b(%rip),%eax        # 2b128 <g_1358>
    eded:	98                   	cwtl   
    edee:	be 08 00 00 00       	mov    $0x8,%esi
    edf3:	89 c7                	mov    %eax,%edi
    edf5:	e8 b9 e5 ff ff       	callq  d3b3 <safe_add_func_int16_t_s_s>
    edfa:	66 89 05 27 c3 01 00 	mov    %ax,0x1c327(%rip)        # 2b128 <g_1358>
    ee01:	0f b7 05 20 c3 01 00 	movzwl 0x1c320(%rip),%eax        # 2b128 <g_1358>
    ee08:	66 83 f8 26          	cmp    $0x26,%ax
    ee0c:	0f 84 00 ff ff ff    	je     ed12 <func_1+0x55d>
    ee12:	48 8b 05 77 98 01 00 	mov    0x19877(%rip),%rax        # 28690 <g_205>
    ee19:	48 8b 00             	mov    (%rax),%rax
    ee1c:	0f b7 00             	movzwl (%rax),%eax
    ee1f:	0f b7 d0             	movzwl %ax,%edx
    ee22:	0f b6 8d f8 f6 ff ff 	movzbl -0x908(%rbp),%ecx
    ee29:	8b 85 10 f7 ff ff    	mov    -0x8f0(%rbp),%eax
    ee2f:	21 c8                	and    %ecx,%eax
    ee31:	48 98                	cltq   
    ee33:	48 39 85 c8 f7 ff ff 	cmp    %rax,-0x838(%rbp)
    ee3a:	0f 96 c0             	setbe  %al
    ee3d:	0f b6 c0             	movzbl %al,%eax
    ee40:	89 d6                	mov    %edx,%esi
    ee42:	89 c7                	mov    %eax,%edi
    ee44:	e8 b6 ee ff ff       	callq  dcff <safe_add_func_uint16_t_u_u>
    ee49:	66 85 c0             	test   %ax,%ax
    ee4c:	0f 84 70 01 00 00    	je     efc2 <func_1+0x80d>
    ee52:	c6 85 01 f7 ff ff 4e 	movb   $0x4e,-0x8ff(%rbp)
    ee59:	48 8d 05 c0 b3 01 00 	lea    0x1b3c0(%rip),%rax        # 2a220 <g_2430>
    ee60:	48 89 85 30 f9 ff ff 	mov    %rax,-0x6d0(%rbp)
    ee67:	66 c7 85 0e f7 ff ff 	movw   $0x6089,-0x8f2(%rbp)
    ee6e:	89 60 
    ee70:	48 8d 05 89 63 01 00 	lea    0x16389(%rip),%rax        # 25200 <g_2797>
    ee77:	48 89 85 38 f9 ff ff 	mov    %rax,-0x6c8(%rbp)
    ee7e:	44 0f b6 a5 01 f7 ff 	movzbl -0x8ff(%rbp),%r12d
    ee85:	ff 
    ee86:	48 0f bf 9d 0e f7 ff 	movswq -0x8f2(%rbp),%rbx
    ee8d:	ff 
    ee8e:	48 8b 05 8b ae 01 00 	mov    0x1ae8b(%rip),%rax        # 29d20 <g_1944>
    ee95:	48 8b 00             	mov    (%rax),%rax
    ee98:	0f b7 00             	movzwl (%rax),%eax
    ee9b:	44 0f b7 e8          	movzwl %ax,%r13d
    ee9f:	44 0f bf b5 0a f7 ff 	movswl -0x8f6(%rbp),%r14d
    eea6:	ff 
    eea7:	48 8b 05 32 98 01 00 	mov    0x19832(%rip),%rax        # 286e0 <g_258>
    eeae:	48 8b 10             	mov    (%rax),%rdx
    eeb1:	48 8b 05 28 98 01 00 	mov    0x19828(%rip),%rax        # 286e0 <g_258>
    eeb8:	48 b9 aa 8d 71 2e 7e 	movabs $0x5b77f47e2e718daa,%rcx
    eebf:	f4 77 5b 
    eec2:	48 31 ca             	xor    %rcx,%rdx
    eec5:	48 89 10             	mov    %rdx,(%rax)
    eec8:	48 8b 00             	mov    (%rax),%rax
    eecb:	41 89 c7             	mov    %eax,%r15d
    eece:	8b 85 14 f7 ff ff    	mov    -0x8ec(%rbp),%eax
    eed4:	85 c0                	test   %eax,%eax
    eed6:	74 66                	je     ef3e <func_1+0x789>
    eed8:	48 8d 05 41 b3 01 00 	lea    0x1b341(%rip),%rax        # 2a220 <g_2430>
    eedf:	48 89 85 d8 f7 ff ff 	mov    %rax,-0x828(%rbp)
    eee6:	48 8b 85 d8 f7 ff ff 	mov    -0x828(%rbp),%rax
    eeed:	48 89 85 e0 f7 ff ff 	mov    %rax,-0x820(%rbp)
    eef4:	48 8d 05 cd 55 01 00 	lea    0x155cd(%rip),%rax        # 244c8 <g_703>
    eefb:	8b 00                	mov    (%rax),%eax
    eefd:	89 c2                	mov    %eax,%edx
    eeff:	b8 08 00 00 00       	mov    $0x8,%eax
    ef04:	21 c2                	and    %eax,%edx
    ef06:	48 8b 05 6b bc 01 00 	mov    0x1bc6b(%rip),%rax        # 2ab78 <g_3175>
    ef0d:	89 d2                	mov    %edx,%edx
    ef0f:	48 89 10             	mov    %rdx,(%rax)
    ef12:	48 8b 00             	mov    (%rax),%rax
    ef15:	f7 d0                	not    %eax
    ef17:	89 c6                	mov    %eax,%esi
    ef19:	bf 01 00 00 00       	mov    $0x1,%edi
    ef1e:	e8 cb e3 ff ff       	callq  d2ee <safe_lshift_func_int8_t_s_u>
    ef23:	0f be c0             	movsbl %al,%eax
    ef26:	8b 15 a8 c2 01 00    	mov    0x1c2a8(%rip),%edx        # 2b1d4 <g_4766>
    ef2c:	89 c6                	mov    %eax,%esi
    ef2e:	89 d7                	mov    %edx,%edi
    ef30:	e8 c8 ef ff ff       	callq  defd <safe_mod_func_uint32_t_u_u>
    ef35:	0f bf 95 0e f7 ff ff 	movswl -0x8f2(%rbp),%edx
    ef3c:	39 d0                	cmp    %edx,%eax
    ef3e:	48 8b 85 40 fc ff ff 	mov    -0x3c0(%rbp),%rax
    ef45:	48 85 c0             	test   %rax,%rax
    ef48:	0f 94 c0             	sete   %al
    ef4b:	0f b6 d0             	movzbl %al,%edx
    ef4e:	48 8b 85 38 f9 ff ff 	mov    -0x6c8(%rbp),%rax
    ef55:	48 89 10             	mov    %rdx,(%rax)
    ef58:	48 8b 85 38 f9 ff ff 	mov    -0x6c8(%rbp),%rax
    ef5f:	48 8b 00             	mov    (%rax),%rax
    ef62:	44 21 f8             	and    %r15d,%eax
    ef65:	44 89 f6             	mov    %r14d,%esi
    ef68:	89 c7                	mov    %eax,%edi
    ef6a:	e8 5d e7 ff ff       	callq  d6cc <safe_mod_func_int32_t_s_s>
    ef6f:	89 c2                	mov    %eax,%edx
    ef71:	0f b6 85 01 f7 ff ff 	movzbl -0x8ff(%rbp),%eax
    ef78:	89 d6                	mov    %edx,%esi
    ef7a:	89 c7                	mov    %eax,%edi
    ef7c:	e8 4f ef ff ff       	callq  ded0 <safe_sub_func_uint32_t_u_u>
    ef81:	44 89 ee             	mov    %r13d,%esi
    ef84:	bf 20 00 00 00       	mov    $0x20,%edi
    ef89:	e8 78 ee ff ff       	callq  de06 <safe_lshift_func_uint16_t_u_u>
    ef8e:	0f be c0             	movsbl %al,%eax
    ef91:	be 00 00 00 00       	mov    $0x0,%esi
    ef96:	89 c7                	mov    %eax,%edi
    ef98:	e8 cf e3 ff ff       	callq  d36c <safe_rshift_func_int8_t_s_u>
    ef9d:	48 0f be c0          	movsbq %al,%rax
    efa1:	48 8b 15 b8 a0 01 00 	mov    0x1a0b8(%rip),%rdx        # 29060 <g_1011>
    efa8:	4c 8b 2a             	mov    (%rdx),%r13
    efab:	4c 89 e2             	mov    %r12,%rdx
    efae:	48 89 de             	mov    %rbx,%rsi
    efb1:	48 89 c7             	mov    %rax,%rdi
    efb4:	e8 7d 88 00 00       	callq  17836 <func_55>
    efb9:	49 89 45 00          	mov    %rax,0x0(%r13)
    efbd:	e9 32 13 00 00       	jmpq   102f4 <func_1+0x1b3f>
    efc2:	48 b8 57 57 57 57 57 	movabs $0x5757575757575757,%rax
    efc9:	57 57 57 
    efcc:	48 89 45 c0          	mov    %rax,-0x40(%rbp)
    efd0:	c6 85 fa f6 ff ff f8 	movb   $0xf8,-0x906(%rbp)
    efd7:	48 8d 05 6a b4 01 00 	lea    0x1b46a(%rip),%rax        # 2a448 <g_2679+0x1e8>
    efde:	48 89 85 18 f8 ff ff 	mov    %rax,-0x7e8(%rbp)
    efe5:	48 8d 05 54 b2 01 00 	lea    0x1b254(%rip),%rax        # 2a240 <g_2680>
    efec:	48 89 85 20 f8 ff ff 	mov    %rax,-0x7e0(%rbp)
    eff3:	c7 85 5c f7 ff ff 09 	movl   $0x9,-0x8a4(%rbp)
    effa:	00 00 00 
    effd:	c7 85 68 f9 ff ff 55 	movl   $0x55555555,-0x698(%rbp)
    f004:	55 55 55 
    f007:	c7 85 6c f9 ff ff 55 	movl   $0x55555555,-0x694(%rbp)
    f00e:	55 55 55 
    f011:	c7 85 1c f7 ff ff 04 	movl   $0x4,-0x8e4(%rbp)
    f018:	00 00 00 
    f01b:	48 8d 05 06 b6 01 00 	lea    0x1b606(%rip),%rax        # 2a628 <g_2705>
    f022:	48 89 85 28 f8 ff ff 	mov    %rax,-0x7d8(%rbp)
    f029:	48 8d 05 b0 9f 01 00 	lea    0x19fb0(%rip),%rax        # 28fe0 <g_932>
    f030:	48 89 85 30 f8 ff ff 	mov    %rax,-0x7d0(%rbp)
    f037:	48 8d 05 42 54 01 00 	lea    0x15442(%rip),%rax        # 24480 <g_527>
    f03e:	48 89 85 38 f8 ff ff 	mov    %rax,-0x7c8(%rbp)
    f045:	c6 85 fb f6 ff ff ff 	movb   $0xff,-0x905(%rbp)
    f04c:	c6 85 fc f6 ff ff 00 	movb   $0x0,-0x904(%rbp)
    f053:	48 8d 85 50 fb ff ff 	lea    -0x4b0(%rbp),%rax
    f05a:	48 05 e0 00 00 00    	add    $0xe0,%rax
    f060:	48 89 85 40 f8 ff ff 	mov    %rax,-0x7c0(%rbp)
    f067:	c7 85 60 f7 ff ff 57 	movl   $0x6fc14657,-0x8a0(%rbp)
    f06e:	46 c1 6f 
    f071:	c7 85 34 f7 ff ff 00 	movl   $0x0,-0x8cc(%rbp)
    f078:	00 00 00 
    f07b:	eb 19                	jmp    f096 <func_1+0x8e1>
    f07d:	8b 85 34 f7 ff ff    	mov    -0x8cc(%rbp),%eax
    f083:	48 98                	cltq   
    f085:	66 c7 84 45 5a f9 ff 	movw   $0x0,-0x6a6(%rbp,%rax,2)
    f08c:	ff 00 00 
    f08f:	83 85 34 f7 ff ff 01 	addl   $0x1,-0x8cc(%rbp)
    f096:	83 bd 34 f7 ff ff 02 	cmpl   $0x2,-0x8cc(%rbp)
    f09d:	7e de                	jle    f07d <func_1+0x8c8>
    f09f:	c7 85 34 f7 ff ff 00 	movl   $0x0,-0x8cc(%rbp)
    f0a6:	00 00 00 
    f0a9:	eb 1a                	jmp    f0c5 <func_1+0x910>
    f0ab:	8b 85 34 f7 ff ff    	mov    -0x8cc(%rbp),%eax
    f0b1:	48 98                	cltq   
    f0b3:	c7 84 85 80 f9 ff ff 	movl   $0x70190407,-0x680(%rbp,%rax,4)
    f0ba:	07 04 19 70 
    f0be:	83 85 34 f7 ff ff 01 	addl   $0x1,-0x8cc(%rbp)
    f0c5:	83 bd 34 f7 ff ff 05 	cmpl   $0x5,-0x8cc(%rbp)
    f0cc:	7e dd                	jle    f0ab <func_1+0x8f6>
    f0ce:	48 8b 05 7b 95 01 00 	mov    0x1957b(%rip),%rax        # 28650 <g_168>
    f0d5:	8b 08                	mov    (%rax),%ecx
    f0d7:	0f b6 45 c1          	movzbl -0x3f(%rbp),%eax
    f0db:	0f b6 d0             	movzbl %al,%edx
    f0de:	48 8b 05 6b 95 01 00 	mov    0x1956b(%rip),%rax        # 28650 <g_168>
    f0e5:	31 ca                	xor    %ecx,%edx
    f0e7:	89 10                	mov    %edx,(%rax)
    f0e9:	c7 85 28 f7 ff ff 00 	movl   $0x0,-0x8d8(%rbp)
    f0f0:	00 00 00 
    f0f3:	e9 ef 11 00 00       	jmpq   102e7 <func_1+0x1b32>
    f0f8:	c6 85 fd f6 ff ff 2b 	movb   $0x2b,-0x903(%rbp)
    f0ff:	48 c7 85 48 f8 ff ff 	movq   $0x0,-0x7b8(%rbp)
    f106:	00 00 00 00 
    f10a:	48 c7 85 50 f8 ff ff 	movq   $0x0,-0x7b0(%rbp)
    f111:	00 00 00 00 
    f115:	48 b8 a4 e9 d3 77 98 	movabs $0xe4628a9877d3e9a4,%rax
    f11c:	8a 62 e4 
    f11f:	48 89 85 58 f8 ff ff 	mov    %rax,-0x7a8(%rbp)
    f126:	48 8d 05 eb bf 01 00 	lea    0x1bfeb(%rip),%rax        # 2b118 <g_877>
    f12d:	48 89 85 98 f7 ff ff 	mov    %rax,-0x868(%rbp)
    f134:	c7 85 64 f7 ff ff 01 	movl   $0x1,-0x89c(%rbp)
    f13b:	00 00 00 
    f13e:	c7 85 68 f7 ff ff ff 	movl   $0xffffffff,-0x898(%rbp)
    f145:	ff ff ff 
    f148:	48 8d 05 21 ba 01 00 	lea    0x1ba21(%rip),%rax        # 2ab70 <g_3083>
    f14f:	48 89 85 60 f8 ff ff 	mov    %rax,-0x7a0(%rbp)
    f156:	48 c7 85 68 f8 ff ff 	movq   $0x0,-0x798(%rbp)
    f15d:	00 00 00 00 
    f161:	48 8d 05 70 9e 01 00 	lea    0x19e70(%rip),%rax        # 28fd8 <g_933>
    f168:	48 89 85 70 f8 ff ff 	mov    %rax,-0x790(%rbp)
    f16f:	c7 85 6c f7 ff ff 00 	movl   $0x0,-0x894(%rbp)
    f176:	00 00 00 
    f179:	48 b8 4b 90 f3 a6 92 	movabs $0xbf222f92a6f3904b,%rax
    f180:	2f 22 bf 
    f183:	48 89 85 78 f8 ff ff 	mov    %rax,-0x788(%rbp)
    f18a:	48 8d 05 47 b4 01 00 	lea    0x1b447(%rip),%rax        # 2a5d8 <g_2708>
    f191:	48 89 85 80 f8 ff ff 	mov    %rax,-0x780(%rbp)
    f198:	48 c7 85 10 fa ff ff 	movq   $0x0,-0x5f0(%rbp)
    f19f:	00 00 00 00 
    f1a3:	48 c7 85 18 fa ff ff 	movq   $0x0,-0x5e8(%rbp)
    f1aa:	00 00 00 00 
    f1ae:	48 c7 85 20 fa ff ff 	movq   $0x0,-0x5e0(%rbp)
    f1b5:	00 00 00 00 
    f1b9:	48 c7 85 28 fa ff ff 	movq   $0x0,-0x5d8(%rbp)
    f1c0:	00 00 00 00 
    f1c4:	48 c7 85 30 fa ff ff 	movq   $0x0,-0x5d0(%rbp)
    f1cb:	00 00 00 00 
    f1cf:	48 c7 85 38 fa ff ff 	movq   $0x0,-0x5c8(%rbp)
    f1d6:	00 00 00 00 
    f1da:	48 c7 85 40 fa ff ff 	movq   $0x0,-0x5c0(%rbp)
    f1e1:	00 00 00 00 
    f1e5:	48 8d 85 10 fa ff ff 	lea    -0x5f0(%rbp),%rax
    f1ec:	48 83 c0 18          	add    $0x18,%rax
    f1f0:	48 89 85 88 f8 ff ff 	mov    %rax,-0x778(%rbp)
    f1f7:	48 b8 9e fc 11 b7 70 	movabs $0xe6f75270b711fc9e,%rax
    f1fe:	52 f7 e6 
    f201:	48 89 85 90 f8 ff ff 	mov    %rax,-0x770(%rbp)
    f208:	c6 85 fe f6 ff ff 5f 	movb   $0x5f,-0x902(%rbp)
    f20f:	48 8d 85 60 f9 ff ff 	lea    -0x6a0(%rbp),%rax
    f216:	48 89 85 98 f8 ff ff 	mov    %rax,-0x768(%rbp)
    f21d:	48 b8 85 7e 69 2f b7 	movabs $0x343964b72f697e85,%rax
    f224:	64 39 34 
    f227:	48 89 85 a0 f8 ff ff 	mov    %rax,-0x760(%rbp)
    f22e:	c7 85 38 f7 ff ff 00 	movl   $0x0,-0x8c8(%rbp)
    f235:	00 00 00 
    f238:	eb 14                	jmp    f24e <func_1+0xa99>
    f23a:	8b 85 38 f7 ff ff    	mov    -0x8c8(%rbp),%eax
    f240:	48 98                	cltq   
    f242:	c6 44 05 be fd       	movb   $0xfd,-0x42(%rbp,%rax,1)
    f247:	83 85 38 f7 ff ff 01 	addl   $0x1,-0x8c8(%rbp)
    f24e:	83 bd 38 f7 ff ff 01 	cmpl   $0x1,-0x8c8(%rbp)
    f255:	7e e3                	jle    f23a <func_1+0xa85>
    f257:	c7 05 d7 64 01 00 01 	movl   $0x1,0x164d7(%rip)        # 25738 <g_4545>
    f25e:	00 00 00 
    f261:	e9 6c 10 00 00       	jmpq   102d2 <func_1+0x1b1d>
    f266:	c7 85 20 f7 ff ff 07 	movl   $0x7,-0x8e0(%rbp)
    f26d:	00 00 00 
    f270:	c7 85 a0 f9 ff ff f6 	movl   $0xfffffff6,-0x660(%rbp)
    f277:	ff ff ff 
    f27a:	c7 85 a4 f9 ff ff f6 	movl   $0xfffffff6,-0x65c(%rbp)
    f281:	ff ff ff 
    f284:	c7 85 a8 f9 ff ff f6 	movl   $0xfffffff6,-0x658(%rbp)
    f28b:	ff ff ff 
    f28e:	c7 85 ac f9 ff ff f6 	movl   $0xfffffff6,-0x654(%rbp)
    f295:	ff ff ff 
    f298:	c7 85 b0 f9 ff ff f6 	movl   $0xfffffff6,-0x650(%rbp)
    f29f:	ff ff ff 
    f2a2:	c7 85 b4 f9 ff ff f6 	movl   $0xfffffff6,-0x64c(%rbp)
    f2a9:	ff ff ff 
    f2ac:	c7 85 b8 f9 ff ff f6 	movl   $0xfffffff6,-0x648(%rbp)
    f2b3:	ff ff ff 
    f2b6:	c7 85 24 f7 ff ff ad 	movl   $0xf9f37ead,-0x8dc(%rbp)
    f2bd:	7e f3 f9 
    f2c0:	c6 85 ff f6 ff ff 01 	movb   $0x1,-0x901(%rbp)
    f2c7:	c6 85 00 f7 ff ff a7 	movb   $0xa7,-0x900(%rbp)
    f2ce:	48 8d 85 78 f7 ff ff 	lea    -0x888(%rbp),%rax
    f2d5:	48 89 85 a8 f8 ff ff 	mov    %rax,-0x758(%rbp)
    f2dc:	48 c7 85 b0 f8 ff ff 	movq   $0x0,-0x750(%rbp)
    f2e3:	00 00 00 00 
    f2e7:	48 8d 85 98 f7 ff ff 	lea    -0x868(%rbp),%rax
    f2ee:	48 89 85 b8 f8 ff ff 	mov    %rax,-0x748(%rbp)
    f2f5:	48 8d 05 e4 bd 01 00 	lea    0x1bde4(%rip),%rax        # 2b0e0 <g_180>
    f2fc:	48 89 85 c0 f8 ff ff 	mov    %rax,-0x740(%rbp)
    f303:	8b 05 2f 64 01 00    	mov    0x1642f(%rip),%eax        # 25738 <g_4545>
    f309:	83 c0 06             	add    $0x6,%eax
    f30c:	48 98                	cltq   
    f30e:	0f b6 44 05 c0       	movzbl -0x40(%rbp,%rax,1),%eax
    f313:	0f b6 c0             	movzbl %al,%eax
    f316:	89 85 20 f7 ff ff    	mov    %eax,-0x8e0(%rbp)
    f31c:	8b 85 20 f7 ff ff    	mov    -0x8e0(%rbp),%eax
    f322:	89 85 b8 f9 ff ff    	mov    %eax,-0x648(%rbp)
    f328:	44 8b bd b8 f9 ff ff 	mov    -0x648(%rbp),%r15d
    f32f:	8b 05 03 64 01 00    	mov    0x16403(%rip),%eax        # 25738 <g_4545>
    f335:	83 c0 06             	add    $0x6,%eax
    f338:	48 98                	cltq   
    f33a:	0f b6 44 05 c0       	movzbl -0x40(%rbp,%rax,1),%eax
    f33f:	0f b6 d8             	movzbl %al,%ebx
    f342:	8b 05 f0 63 01 00    	mov    0x163f0(%rip),%eax        # 25738 <g_4545>
    f348:	48 98                	cltq   
    f34a:	0f b6 44 05 c0       	movzbl -0x40(%rbp,%rax,1),%eax
    f34f:	84 c0                	test   %al,%al
    f351:	0f 85 81 01 00 00    	jne    f4d8 <func_1+0xd23>
    f357:	8b 05 db 63 01 00    	mov    0x163db(%rip),%eax        # 25738 <g_4545>
    f35d:	83 c0 06             	add    $0x6,%eax
    f360:	48 98                	cltq   
    f362:	0f b6 44 05 c0       	movzbl -0x40(%rbp,%rax,1),%eax
    f367:	44 0f be e0          	movsbl %al,%r12d
    f36b:	44 8b ad 4c f7 ff ff 	mov    -0x8b4(%rbp),%r13d
    f372:	44 0f b6 b5 fd f6 ff 	movzbl -0x903(%rbp),%r14d
    f379:	ff 
    f37a:	0f b6 95 fd f6 ff ff 	movzbl -0x903(%rbp),%edx
    f381:	48 8b 05 e8 b7 01 00 	mov    0x1b7e8(%rip),%rax        # 2ab70 <g_3083>
    f388:	48 c7 00 00 00 00 00 	movq   $0x0,(%rax)
    f38f:	48 8d 05 f2 a9 01 00 	lea    0x1a9f2(%rip),%rax        # 29d88 <g_1962>
    f396:	48 8b 00             	mov    (%rax),%rax
    f399:	48 85 c0             	test   %rax,%rax
    f39c:	0f 95 c0             	setne  %al
    f39f:	0f b6 c0             	movzbl %al,%eax
    f3a2:	89 d6                	mov    %edx,%esi
    f3a4:	89 c7                	mov    %eax,%edi
    f3a6:	e8 03 e8 ff ff       	callq  dbae <safe_mod_func_uint8_t_u_u>
    f3ab:	3c 92                	cmp    $0x92,%al
    f3ad:	75 0d                	jne    f3bc <func_1+0xc07>
    f3af:	48 8b 05 c2 b7 01 00 	mov    0x1b7c2(%rip),%rax        # 2ab78 <g_3175>
    f3b6:	48 8b 00             	mov    (%rax),%rax
    f3b9:	48 85 c0             	test   %rax,%rax
    f3bc:	48 8b 05 4d 9b 01 00 	mov    0x19b4d(%rip),%rax        # 28f10 <g_353>
    f3c3:	48 8b 00             	mov    (%rax),%rax
    f3c6:	0f b6 00             	movzbl (%rax),%eax
    f3c9:	0f b6 c0             	movzbl %al,%eax
    f3cc:	be 09 00 00 00       	mov    $0x9,%esi
    f3d1:	89 c7                	mov    %eax,%edi
    f3d3:	e8 d6 e7 ff ff       	callq  dbae <safe_mod_func_uint8_t_u_u>
    f3d8:	0f be d0             	movsbl %al,%edx
    f3db:	48 8b 05 7e b7 01 00 	mov    0x1b77e(%rip),%rax        # 2ab60 <g_3085>
    f3e2:	0f b6 00             	movzbl (%rax),%eax
    f3e5:	0f be c0             	movsbl %al,%eax
    f3e8:	89 d6                	mov    %edx,%esi
    f3ea:	89 c7                	mov    %eax,%edi
    f3ec:	e8 e3 dd ff ff       	callq  d1d4 <safe_add_func_int8_t_s_s>
    f3f1:	48 8b 05 f8 a8 01 00 	mov    0x1a8f8(%rip),%rax        # 29cf0 <g_1865>
    f3f8:	48 8b 00             	mov    (%rax),%rax
    f3fb:	48 39 85 18 f8 ff ff 	cmp    %rax,-0x7e8(%rbp)
    f402:	0f 94 c0             	sete   %al
    f405:	0f b6 c0             	movzbl %al,%eax
    f408:	be 0c 00 00 00       	mov    $0xc,%esi
    f40d:	89 c7                	mov    %eax,%edi
    f40f:	e8 aa e9 ff ff       	callq  ddbe <safe_lshift_func_uint16_t_u_s>
    f414:	0f b7 c0             	movzwl %ax,%eax
    f417:	4c 89 f6             	mov    %r14,%rsi
    f41a:	48 89 c7             	mov    %rax,%rdi
    f41d:	e8 8d ec ff ff       	callq  e0af <safe_div_func_uint64_t_u_u>
    f422:	8b 15 10 63 01 00    	mov    0x16310(%rip),%edx        # 25738 <g_4545>
    f428:	48 63 d2             	movslq %edx,%rdx
    f42b:	0f b6 54 15 c0       	movzbl -0x40(%rbp,%rdx,1),%edx
    f430:	0f b6 d2             	movzbl %dl,%edx
    f433:	48 09 d0             	or     %rdx,%rax
    f436:	48 83 f8 05          	cmp    $0x5,%rax
    f43a:	0f 94 c0             	sete   %al
    f43d:	0f b6 c0             	movzbl %al,%eax
    f440:	44 89 ee             	mov    %r13d,%esi
    f443:	89 c7                	mov    %eax,%edi
    f445:	e8 48 e0 ff ff       	callq  d492 <safe_lshift_func_int16_t_s_s>
    f44a:	0f be c0             	movsbl %al,%eax
    f44d:	44 89 e6             	mov    %r12d,%esi
    f450:	89 c7                	mov    %eax,%edi
    f452:	e8 13 de ff ff       	callq  d26a <safe_div_func_int8_t_s_s>
    f457:	0f b6 c0             	movzbl %al,%eax
    f45a:	be 04 00 00 00       	mov    $0x4,%esi
    f45f:	89 c7                	mov    %eax,%edi
    f461:	e8 e6 e7 ff ff       	callq  dc4c <safe_lshift_func_uint8_t_u_u>
    f466:	0f b6 d0             	movzbl %al,%edx
    f469:	8b 85 24 f7 ff ff    	mov    -0x8dc(%rbp),%eax
    f46f:	09 d0                	or     %edx,%eax
    f471:	89 85 24 f7 ff ff    	mov    %eax,-0x8dc(%rbp)
    f477:	8b 85 24 f7 ff ff    	mov    -0x8dc(%rbp),%eax
    f47d:	83 f8 01             	cmp    $0x1,%eax
    f480:	0f 97 c0             	seta   %al
    f483:	0f b6 c0             	movzbl %al,%eax
    f486:	89 c6                	mov    %eax,%esi
    f488:	bf 68 0c 00 00       	mov    $0xc68,%edi
    f48d:	e8 63 df ff ff       	callq  d3f5 <safe_mul_func_int16_t_s_s>
    f492:	44 0f bf e0          	movswl %ax,%r12d
    f496:	48 8b 15 43 92 01 00 	mov    0x19243(%rip),%rdx        # 286e0 <g_258>
    f49d:	48 8b 02             	mov    (%rdx),%rax
    f4a0:	48 8d 48 ff          	lea    -0x1(%rax),%rcx
    f4a4:	48 89 0a             	mov    %rcx,(%rdx)
    f4a7:	be 01 00 00 00       	mov    $0x1,%esi
    f4ac:	48 89 c7             	mov    %rax,%rdi
    f4af:	e8 7a eb ff ff       	callq  e02e <safe_add_func_uint64_t_u_u>
    f4b4:	0f be c0             	movsbl %al,%eax
    f4b7:	44 89 e6             	mov    %r12d,%esi
    f4ba:	89 c7                	mov    %eax,%edi
    f4bc:	e8 e0 dd ff ff       	callq  d2a1 <safe_lshift_func_int8_t_s_s>
    f4c1:	0f be d0             	movsbl %al,%edx
    f4c4:	8b 05 6e 62 01 00    	mov    0x1626e(%rip),%eax        # 25738 <g_4545>
    f4ca:	48 98                	cltq   
    f4cc:	0f b6 44 05 c0       	movzbl -0x40(%rbp,%rax,1),%eax
    f4d1:	0f b6 c0             	movzbl %al,%eax
    f4d4:	39 c2                	cmp    %eax,%edx
    f4d6:	7f 07                	jg     f4df <func_1+0xd2a>
    f4d8:	b8 01 00 00 00       	mov    $0x1,%eax
    f4dd:	eb 05                	jmp    f4e4 <func_1+0xd2f>
    f4df:	b8 00 00 00 00       	mov    $0x0,%eax
    f4e4:	98                   	cwtl   
    f4e5:	89 de                	mov    %ebx,%esi
    f4e7:	89 c7                	mov    %eax,%edi
    f4e9:	e8 e5 de ff ff       	callq  d3d3 <safe_sub_func_int16_t_s_s>
    f4ee:	0f bf d0             	movswl %ax,%edx
    f4f1:	8b 05 41 62 01 00    	mov    0x16241(%rip),%eax        # 25738 <g_4545>
    f4f7:	48 98                	cltq   
    f4f9:	0f b6 44 05 c0       	movzbl -0x40(%rbp,%rax,1),%eax
    f4fe:	0f b6 c0             	movzbl %al,%eax
    f501:	09 d0                	or     %edx,%eax
    f503:	41 39 c7             	cmp    %eax,%r15d
    f506:	0f 8c f4 04 00 00    	jl     fa00 <func_1+0x124b>
    f50c:	66 c7 85 70 fc ff ff 	movw   $0x9bd,-0x390(%rbp)
    f513:	bd 09 
    f515:	66 c7 85 72 fc ff ff 	movw   $0xc5d8,-0x38e(%rbp)
    f51c:	d8 c5 
    f51e:	66 c7 85 74 fc ff ff 	movw   $0x35f0,-0x38c(%rbp)
    f525:	f0 35 
    f527:	66 c7 85 76 fc ff ff 	movw   $0xecfa,-0x38a(%rbp)
    f52e:	fa ec 
    f530:	66 c7 85 78 fc ff ff 	movw   $0x0,-0x388(%rbp)
    f537:	00 00 
    f539:	66 c7 85 7a fc ff ff 	movw   $0x5,-0x386(%rbp)
    f540:	05 00 
    f542:	66 c7 85 7c fc ff ff 	movw   $0xe51f,-0x384(%rbp)
    f549:	1f e5 
    f54b:	66 c7 85 7e fc ff ff 	movw   $0xebce,-0x382(%rbp)
    f552:	ce eb 
    f554:	66 c7 85 80 fc ff ff 	movw   $0xe51f,-0x380(%rbp)
    f55b:	1f e5 
    f55d:	66 c7 85 82 fc ff ff 	movw   $0x5,-0x37e(%rbp)
    f564:	05 00 
    f566:	66 c7 85 84 fc ff ff 	movw   $0x341d,-0x37c(%rbp)
    f56d:	1d 34 
    f56f:	66 c7 85 86 fc ff ff 	movw   $0xffff,-0x37a(%rbp)
    f576:	ff ff 
    f578:	66 c7 85 88 fc ff ff 	movw   $0x400e,-0x378(%rbp)
    f57f:	0e 40 
    f581:	66 c7 85 8a fc ff ff 	movw   $0xe51f,-0x376(%rbp)
    f588:	1f e5 
    f58a:	66 c7 85 8c fc ff ff 	movw   $0xecfa,-0x374(%rbp)
    f591:	fa ec 
    f593:	66 c7 85 8e fc ff ff 	movw   $0xfffb,-0x372(%rbp)
    f59a:	fb ff 
    f59c:	66 c7 85 90 fc ff ff 	movw   $0x341d,-0x370(%rbp)
    f5a3:	1d 34 
    f5a5:	66 c7 85 92 fc ff ff 	movw   $0x69bf,-0x36e(%rbp)
    f5ac:	bf 69 
    f5ae:	66 c7 85 94 fc ff ff 	movw   $0xecfa,-0x36c(%rbp)
    f5b5:	fa ec 
    f5b7:	66 c7 85 96 fc ff ff 	movw   $0xf96d,-0x36a(%rbp)
    f5be:	6d f9 
    f5c0:	66 c7 85 98 fc ff ff 	movw   $0xebce,-0x368(%rbp)
    f5c7:	ce eb 
    f5c9:	66 c7 85 9a fc ff ff 	movw   $0x400e,-0x366(%rbp)
    f5d0:	0e 40 
    f5d2:	66 c7 85 9c fc ff ff 	movw   $0xecfa,-0x364(%rbp)
    f5d9:	fa ec 
    f5db:	66 c7 85 9e fc ff ff 	movw   $0xffff,-0x362(%rbp)
    f5e2:	ff ff 
    f5e4:	66 c7 85 a0 fc ff ff 	movw   $0xecfa,-0x360(%rbp)
    f5eb:	fa ec 
    f5ed:	66 c7 85 a2 fc ff ff 	movw   $0xecfa,-0x35e(%rbp)
    f5f4:	fa ec 
    f5f6:	66 c7 85 a4 fc ff ff 	movw   $0xecfa,-0x35c(%rbp)
    f5fd:	fa ec 
    f5ff:	66 c7 85 a6 fc ff ff 	movw   $0x0,-0x35a(%rbp)
    f606:	00 00 
    f608:	66 c7 85 a8 fc ff ff 	movw   $0x69bf,-0x358(%rbp)
    f60f:	bf 69 
    f611:	66 c7 85 aa fc ff ff 	movw   $0x5,-0x356(%rbp)
    f618:	05 00 
    f61a:	66 c7 85 ac fc ff ff 	movw   $0xecfa,-0x354(%rbp)
    f621:	fa ec 
    f623:	66 c7 85 ae fc ff ff 	movw   $0xf499,-0x352(%rbp)
    f62a:	99 f4 
    f62c:	66 c7 85 b0 fc ff ff 	movw   $0x5,-0x350(%rbp)
    f633:	05 00 
    f635:	66 c7 85 b2 fc ff ff 	movw   $0x35f0,-0x34e(%rbp)
    f63c:	f0 35 
    f63e:	66 c7 85 b4 fc ff ff 	movw   $0x0,-0x34c(%rbp)
    f645:	00 00 
    f647:	66 c7 85 b6 fc ff ff 	movw   $0xebce,-0x34a(%rbp)
    f64e:	ce eb 
    f650:	66 c7 85 b8 fc ff ff 	movw   $0x9bd,-0x348(%rbp)
    f657:	bd 09 
    f659:	66 c7 85 ba fc ff ff 	movw   $0x35f0,-0x346(%rbp)
    f660:	f0 35 
    f662:	66 c7 85 bc fc ff ff 	movw   $0x9bd,-0x344(%rbp)
    f669:	bd 09 
    f66b:	66 c7 85 be fc ff ff 	movw   $0xecfa,-0x342(%rbp)
    f672:	fa ec 
    f674:	66 c7 85 c0 fc ff ff 	movw   $0x0,-0x340(%rbp)
    f67b:	00 00 
    f67d:	66 c7 85 c2 fc ff ff 	movw   $0xf96d,-0x33e(%rbp)
    f684:	6d f9 
    f686:	66 c7 85 c4 fc ff ff 	movw   $0xf96d,-0x33c(%rbp)
    f68d:	6d f9 
    f68f:	66 c7 85 c6 fc ff ff 	movw   $0x0,-0x33a(%rbp)
    f696:	00 00 
    f698:	66 c7 85 c8 fc ff ff 	movw   $0x0,-0x338(%rbp)
    f69f:	00 00 
    f6a1:	66 c7 85 ca fc ff ff 	movw   $0xf499,-0x336(%rbp)
    f6a8:	99 f4 
    f6aa:	66 c7 85 cc fc ff ff 	movw   $0xebce,-0x334(%rbp)
    f6b1:	ce eb 
    f6b3:	66 c7 85 ce fc ff ff 	movw   $0xf96d,-0x332(%rbp)
    f6ba:	6d f9 
    f6bc:	66 c7 85 d0 fc ff ff 	movw   $0x400e,-0x330(%rbp)
    f6c3:	0e 40 
    f6c5:	66 c7 85 d2 fc ff ff 	movw   $0x5,-0x32e(%rbp)
    f6cc:	05 00 
    f6ce:	66 c7 85 d4 fc ff ff 	movw   $0x400e,-0x32c(%rbp)
    f6d5:	0e 40 
    f6d7:	66 c7 85 d6 fc ff ff 	movw   $0xfffe,-0x32a(%rbp)
    f6de:	fe ff 
    f6e0:	66 c7 85 d8 fc ff ff 	movw   $0x35f0,-0x328(%rbp)
    f6e7:	f0 35 
    f6e9:	66 c7 85 da fc ff ff 	movw   $0xffff,-0x326(%rbp)
    f6f0:	ff ff 
    f6f2:	66 c7 85 dc fc ff ff 	movw   $0xf96d,-0x324(%rbp)
    f6f9:	6d f9 
    f6fb:	66 c7 85 de fc ff ff 	movw   $0xe51f,-0x322(%rbp)
    f702:	1f e5 
    f704:	66 c7 85 e0 fc ff ff 	movw   $0xf499,-0x320(%rbp)
    f70b:	99 f4 
    f70d:	66 c7 85 e2 fc ff ff 	movw   $0x400e,-0x31e(%rbp)
    f714:	0e 40 
    f716:	66 c7 85 e4 fc ff ff 	movw   $0x400e,-0x31c(%rbp)
    f71d:	0e 40 
    f71f:	66 c7 85 e6 fc ff ff 	movw   $0xf499,-0x31a(%rbp)
    f726:	99 f4 
    f728:	c7 85 3c f7 ff ff 00 	movl   $0x0,-0x8c4(%rbp)
    f72f:	00 00 00 
    f732:	eb 1a                	jmp    f74e <func_1+0xf99>
    f734:	8b 85 3c f7 ff ff    	mov    -0x8c4(%rbp),%eax
    f73a:	48 98                	cltq   
    f73c:	c7 84 85 c0 f9 ff ff 	movl   $0x5f8aac8c,-0x640(%rbp,%rax,4)
    f743:	8c ac 8a 5f 
    f747:	83 85 3c f7 ff ff 01 	addl   $0x1,-0x8c4(%rbp)
    f74e:	83 bd 3c f7 ff ff 06 	cmpl   $0x6,-0x8c4(%rbp)
    f755:	7e dd                	jle    f734 <func_1+0xf7f>
    f757:	c7 05 1f 4d 01 00 07 	movl   $0x7,0x14d1f(%rip)        # 24480 <g_527>
    f75e:	00 00 00 
    f761:	e9 8a 02 00 00       	jmpq   f9f0 <func_1+0x123b>
    f766:	48 8d 05 d3 aa 01 00 	lea    0x1aad3(%rip),%rax        # 2a240 <g_2680>
    f76d:	48 89 85 c8 f8 ff ff 	mov    %rax,-0x738(%rbp)
    f774:	48 8d 05 9d b9 01 00 	lea    0x1b99d(%rip),%rax        # 2b118 <g_877>
    f77b:	48 89 85 d0 f8 ff ff 	mov    %rax,-0x730(%rbp)
    f782:	48 8b 85 e8 f7 ff ff 	mov    -0x818(%rbp),%rax
    f789:	0f bf d8             	movswl %ax,%ebx
    f78c:	8b 05 e2 4b 01 00    	mov    0x14be2(%rip),%eax        # 24374 <g_182+0x14>
    f792:	c1 e0 04             	shl    $0x4,%eax
    f795:	c1 f8 04             	sar    $0x4,%eax
    f798:	89 85 bc f6 ff ff    	mov    %eax,-0x944(%rbp)
    f79e:	48 8b 05 4b 9e 01 00 	mov    0x19e4b(%rip),%rax        # 295f0 <g_1656>
    f7a5:	8b 00                	mov    (%rax),%eax
    f7a7:	89 85 b8 f6 ff ff    	mov    %eax,-0x948(%rbp)
    f7ad:	44 0f b6 a5 fd f6 ff 	movzbl -0x903(%rbp),%r12d
    f7b4:	ff 
    f7b5:	0f b6 85 fa f6 ff ff 	movzbl -0x906(%rbp),%eax
    f7bc:	0f b6 c0             	movzbl %al,%eax
    f7bf:	be 01 00 00 00       	mov    $0x1,%esi
    f7c4:	89 c7                	mov    %eax,%edi
    f7c6:	e8 f3 e4 ff ff       	callq  dcbe <safe_rshift_func_uint8_t_u_u>
    f7cb:	44 0f be ad fa f6 ff 	movsbl -0x906(%rbp),%r13d
    f7d2:	ff 
    f7d3:	48 8b 05 a6 a5 01 00 	mov    0x1a5a6(%rip),%rax        # 29d80 <g_1946>
    f7da:	48 8b 00             	mov    (%rax),%rax
    f7dd:	48 8b 00             	mov    (%rax),%rax
    f7e0:	0f b7 00             	movzwl (%rax),%eax
    f7e3:	44 0f b7 f0          	movzwl %ax,%r14d
    f7e7:	48 8b 05 f2 8e 01 00 	mov    0x18ef2(%rip),%rax        # 286e0 <g_258>
    f7ee:	48 8b 10             	mov    (%rax),%rdx
    f7f1:	48 83 ea 01          	sub    $0x1,%rdx
    f7f5:	48 89 10             	mov    %rdx,(%rax)
    f7f8:	4c 8b 38             	mov    (%rax),%r15
    f7fb:	48 8b 85 18 f8 ff ff 	mov    -0x7e8(%rbp),%rax
    f802:	48 8b 00             	mov    (%rax),%rax
    f805:	48 8b 00             	mov    (%rax),%rax
    f808:	c6 00 b7             	movb   $0xb7,(%rax)
    f80b:	0f b6 45 c7          	movzbl -0x39(%rbp),%eax
    f80f:	0f b6 c0             	movzbl %al,%eax
    f812:	be 00 00 00 00       	mov    $0x0,%esi
    f817:	89 c7                	mov    %eax,%edi
    f819:	e8 75 e3 ff ff       	callq  db93 <safe_mul_func_uint8_t_u_u>
    f81e:	0f b6 c0             	movzbl %al,%eax
    f821:	be b7 00 00 00       	mov    $0xb7,%esi
    f826:	89 c7                	mov    %eax,%edi
    f828:	e8 66 e3 ff ff       	callq  db93 <safe_mul_func_uint8_t_u_u>
    f82d:	48 83 bd 48 f8 ff ff 	cmpq   $0x0,-0x7b8(%rbp)
    f834:	00 
    f835:	0f 95 c0             	setne  %al
    f838:	0f b6 d0             	movzbl %al,%edx
    f83b:	8b 85 b8 f9 ff ff    	mov    -0x648(%rbp),%eax
    f841:	39 c2                	cmp    %eax,%edx
    f843:	7d 09                	jge    f84e <func_1+0x1099>
    f845:	80 bd fd f6 ff ff 00 	cmpb   $0x0,-0x903(%rbp)
    f84c:	74 07                	je     f855 <func_1+0x10a0>
    f84e:	b8 01 00 00 00       	mov    $0x1,%eax
    f853:	eb 05                	jmp    f85a <func_1+0x10a5>
    f855:	b8 00 00 00 00       	mov    $0x0,%eax
    f85a:	48 98                	cltq   
    f85c:	49 39 c7             	cmp    %rax,%r15
    f85f:	0f 97 c0             	seta   %al
    f862:	0f b6 c0             	movzbl %al,%eax
    f865:	41 39 c6             	cmp    %eax,%r14d
    f868:	7e 10                	jle    f87a <func_1+0x10c5>
    f86a:	48 8b 05 77 9d 01 00 	mov    0x19d77(%rip),%rax        # 295e8 <g_1629>
    f871:	48 8b 00             	mov    (%rax),%rax
    f874:	8b 00                	mov    (%rax),%eax
    f876:	85 c0                	test   %eax,%eax
    f878:	74 07                	je     f881 <func_1+0x10cc>
    f87a:	b8 01 00 00 00       	mov    $0x1,%eax
    f87f:	eb 05                	jmp    f886 <func_1+0x10d1>
    f881:	b8 00 00 00 00       	mov    $0x0,%eax
    f886:	44 39 e8             	cmp    %r13d,%eax
    f889:	44 89 e6             	mov    %r12d,%esi
    f88c:	bf 01 00 00 00       	mov    $0x1,%edi
    f891:	e8 8f e6 ff ff       	callq  df25 <safe_div_func_uint32_t_u_u>
    f896:	0f b7 85 8a fc ff ff 	movzwl -0x376(%rbp),%eax
    f89d:	0f b7 c0             	movzwl %ax,%eax
    f8a0:	8b b5 b8 f6 ff ff    	mov    -0x948(%rbp),%esi
    f8a6:	89 c7                	mov    %eax,%edi
    f8a8:	e8 50 e6 ff ff       	callq  defd <safe_mod_func_uint32_t_u_u>
    f8ad:	48 8b 05 14 97 01 00 	mov    0x19714(%rip),%rax        # 28fc8 <g_910>
    f8b4:	48 8b 00             	mov    (%rax),%rax
    f8b7:	0f b7 00             	movzwl (%rax),%eax
    f8ba:	98                   	cwtl   
    f8bb:	be 00 00 00 00       	mov    $0x0,%esi
    f8c0:	89 c7                	mov    %eax,%edi
    f8c2:	e8 63 dc ff ff       	callq  d52a <safe_rshift_func_int16_t_s_s>
    f8c7:	83 bd 5c f7 ff ff 00 	cmpl   $0x0,-0x8a4(%rbp)
    f8ce:	0f 95 c0             	setne  %al
    f8d1:	0f b6 c0             	movzbl %al,%eax
    f8d4:	be 01 00 00 00       	mov    $0x1,%esi
    f8d9:	89 c7                	mov    %eax,%edi
    f8db:	e8 98 e2 ff ff       	callq  db78 <safe_sub_func_uint8_t_u_u>
    f8e0:	8b b5 bc f6 ff ff    	mov    -0x944(%rbp),%esi
    f8e6:	bf 01 00 00 00       	mov    $0x1,%edi
    f8eb:	e8 ce e4 ff ff       	callq  ddbe <safe_lshift_func_uint16_t_u_s>
    f8f0:	98                   	cwtl   
    f8f1:	89 de                	mov    %ebx,%esi
    f8f3:	89 c7                	mov    %eax,%edi
    f8f5:	e8 5b db ff ff       	callq  d455 <safe_div_func_int16_t_s_s>
    f8fa:	89 c2                	mov    %eax,%edx
    f8fc:	48 8d 05 c5 4b 01 00 	lea    0x14bc5(%rip),%rax        # 244c8 <g_703>
    f903:	0f bf d2             	movswl %dx,%edx
    f906:	89 10                	mov    %edx,(%rax)
    f908:	8b 10                	mov    (%rax),%edx
    f90a:	8b 85 d4 f9 ff ff    	mov    -0x62c(%rbp),%eax
    f910:	09 d0                	or     %edx,%eax
    f912:	89 85 d4 f9 ff ff    	mov    %eax,-0x62c(%rbp)
    f918:	48 8b 05 e1 a3 01 00 	mov    0x1a3e1(%rip),%rax        # 29d00 <g_1881>
    f91f:	0f b7 85 e4 fc ff ff 	movzwl -0x31c(%rbp),%eax
    f926:	44 0f b7 e0          	movzwl %ax,%r12d
    f92a:	48 8d 05 ef b2 01 00 	lea    0x1b2ef(%rip),%rax        # 2ac20 <g_4539>
    f931:	48 89 05 f0 b2 01 00 	mov    %rax,0x1b2f0(%rip)        # 2ac28 <g_4538>
    f938:	48 8b 05 99 ac 01 00 	mov    0x1ac99(%rip),%rax        # 2a5d8 <g_2708>
    f93f:	8b 10                	mov    (%rax),%edx
    f941:	83 c2 01             	add    $0x1,%edx
    f944:	89 10                	mov    %edx,(%rax)
    f946:	0f b7 85 e4 fc ff ff 	movzwl -0x31c(%rbp),%eax
    f94d:	0f b7 d8             	movzwl %ax,%ebx
    f950:	0f bf 95 08 f7 ff ff 	movswl -0x8f8(%rbp),%edx
    f957:	0f b6 85 fd f6 ff ff 	movzbl -0x903(%rbp),%eax
    f95e:	89 d6                	mov    %edx,%esi
    f960:	89 c7                	mov    %eax,%edi
    f962:	e8 57 e4 ff ff       	callq  ddbe <safe_lshift_func_uint16_t_u_s>
    f967:	0f b7 c0             	movzwl %ax,%eax
    f96a:	48 89 de             	mov    %rbx,%rsi
    f96d:	48 89 c7             	mov    %rax,%rdi
    f970:	e8 b9 e6 ff ff       	callq  e02e <safe_add_func_uint64_t_u_u>
    f975:	0f be d0             	movsbl %al,%edx
    f978:	48 83 bd d0 f8 ff ff 	cmpq   $0x0,-0x730(%rbp)
    f97f:	00 
    f980:	0f 94 c0             	sete   %al
    f983:	0f b6 c0             	movzbl %al,%eax
    f986:	89 d6                	mov    %edx,%esi
    f988:	89 c7                	mov    %eax,%edi
    f98a:	e8 45 d8 ff ff       	callq  d1d4 <safe_add_func_int8_t_s_s>
    f98f:	0f be c0             	movsbl %al,%eax
    f992:	be 01 00 00 00       	mov    $0x1,%esi
    f997:	89 c7                	mov    %eax,%edi
    f999:	e8 74 d8 ff ff       	callq  d212 <safe_mul_func_int8_t_s_s>
    f99e:	0f be c0             	movsbl %al,%eax
    f9a1:	44 31 e0             	xor    %r12d,%eax
    f9a4:	83 c8 77             	or     $0x77,%eax
    f9a7:	48 63 c8             	movslq %eax,%rcx
    f9aa:	48 8b 05 d7 95 01 00 	mov    0x195d7(%rip),%rax        # 28f88 <g_700>
    f9b1:	48 8b 00             	mov    (%rax),%rax
    f9b4:	48 8b 00             	mov    (%rax),%rax
    f9b7:	8b 10                	mov    (%rax),%edx
    f9b9:	48 8b 05 c8 95 01 00 	mov    0x195c8(%rip),%rax        # 28f88 <g_700>
    f9c0:	48 8b 00             	mov    (%rax),%rax
    f9c3:	48 8b 00             	mov    (%rax),%rax
    f9c6:	31 ca                	xor    %ecx,%edx
    f9c8:	89 10                	mov    %edx,(%rax)
    f9ca:	48 8b 15 d7 95 01 00 	mov    0x195d7(%rip),%rdx        # 28fa8 <g_784>
    f9d1:	48 8b 05 88 96 01 00 	mov    0x19688(%rip),%rax        # 29060 <g_1011>
    f9d8:	48 8b 00             	mov    (%rax),%rax
    f9db:	48 8b 12             	mov    (%rdx),%rdx
    f9de:	48 89 10             	mov    %rdx,(%rax)
    f9e1:	8b 05 99 4a 01 00    	mov    0x14a99(%rip),%eax        # 24480 <g_527>
    f9e7:	83 e8 01             	sub    $0x1,%eax
    f9ea:	89 05 90 4a 01 00    	mov    %eax,0x14a90(%rip)        # 24480 <g_527>
    f9f0:	8b 05 8a 4a 01 00    	mov    0x14a8a(%rip),%eax        # 24480 <g_527>
    f9f6:	85 c0                	test   %eax,%eax
    f9f8:	0f 89 68 fd ff ff    	jns    f766 <func_1+0xfb1>
    f9fe:	eb 17                	jmp    fa17 <func_1+0x1262>
    fa00:	48 8b 05 61 96 01 00 	mov    0x19661(%rip),%rax        # 29068 <g_1010>
    fa07:	48 8b 00             	mov    (%rax),%rax
    fa0a:	48 8b 00             	mov    (%rax),%rax
    fa0d:	48 8b 95 50 f8 ff ff 	mov    -0x7b0(%rbp),%rdx
    fa14:	48 89 10             	mov    %rdx,(%rax)
    fa17:	48 c7 05 de 57 01 00 	movq   $0x0,0x157de(%rip)        # 25200 <g_2797>
    fa1e:	00 00 00 00 
    fa22:	e9 83 00 00 00       	jmpq   faaa <func_1+0x12f5>
    fa27:	48 8d 05 f6 45 01 00 	lea    0x145f6(%rip),%rax        # 24024 <g_17>
    fa2e:	48 89 85 20 f9 ff ff 	mov    %rax,-0x6e0(%rbp)
    fa35:	c7 85 70 f7 ff ff f9 	movl   $0xfffffff9,-0x890(%rbp)
    fa3c:	ff ff ff 
    fa3f:	48 8d 05 02 50 01 00 	lea    0x15002(%rip),%rax        # 24a48 <g_2197>
    fa46:	48 89 85 28 f9 ff ff 	mov    %rax,-0x6d8(%rbp)
    fa4d:	48 8b 85 28 f9 ff ff 	mov    -0x6d8(%rbp),%rax
    fa54:	8b 18                	mov    (%rax),%ebx
    fa56:	8d 53 01             	lea    0x1(%rbx),%edx
    fa59:	48 8b 85 28 f9 ff ff 	mov    -0x6d8(%rbp),%rax
    fa60:	89 10                	mov    %edx,(%rax)
    fa62:	be 00 00 00 00       	mov    $0x0,%esi
    fa67:	bf 01 00 00 00       	mov    $0x1,%edi
    fa6c:	e8 70 da ff ff       	callq  d4e1 <safe_lshift_func_int16_t_s_u>
    fa71:	0f b7 c0             	movzwl %ax,%eax
    fa74:	48 8b 15 ed 95 01 00 	mov    0x195ed(%rip),%rdx        # 29068 <g_1010>
    fa7b:	48 8b 12             	mov    (%rdx),%rdx
    fa7e:	4c 8b 22             	mov    (%rdx),%r12
    fa81:	48 8b 8d 20 f9 ff ff 	mov    -0x6e0(%rbp),%rcx
    fa88:	89 da                	mov    %ebx,%edx
    fa8a:	48 89 ce             	mov    %rcx,%rsi
    fa8d:	89 c7                	mov    %eax,%edi
    fa8f:	e8 54 75 00 00       	callq  16fe8 <func_42>
    fa94:	49 89 04 24          	mov    %rax,(%r12)
    fa98:	48 8b 05 61 57 01 00 	mov    0x15761(%rip),%rax        # 25200 <g_2797>
    fa9f:	48 83 c0 01          	add    $0x1,%rax
    faa3:	48 89 05 56 57 01 00 	mov    %rax,0x15756(%rip)        # 25200 <g_2797>
    faaa:	48 8b 05 4f 57 01 00 	mov    0x1574f(%rip),%rax        # 25200 <g_2797>
    fab1:	48 83 f8 01          	cmp    $0x1,%rax
    fab5:	0f 8e 6c ff ff ff    	jle    fa27 <func_1+0x1272>
    fabb:	48 8d 05 16 46 01 00 	lea    0x14616(%rip),%rax        # 240d8 <g_67>
    fac2:	0f b7 10             	movzwl (%rax),%edx
    fac5:	48 8d 05 0c 46 01 00 	lea    0x1460c(%rip),%rax        # 240d8 <g_67>
    facc:	83 f2 f7             	xor    $0xfffffff7,%edx
    facf:	66 89 10             	mov    %dx,(%rax)
    fad2:	0f b7 00             	movzwl (%rax),%eax
    fad5:	0f b7 c0             	movzwl %ax,%eax
    fad8:	be bf 6b 00 00       	mov    $0x6bbf,%esi
    fadd:	89 c7                	mov    %eax,%edi
    fadf:	e8 aa e2 ff ff       	callq  dd8e <safe_div_func_uint16_t_u_u>
    fae4:	66 3d 45 c7          	cmp    $0xc745,%ax
    fae8:	48 8b 05 f1 9a 01 00 	mov    0x19af1(%rip),%rax        # 295e0 <g_1532>
    faef:	0f b7 10             	movzwl (%rax),%edx
    faf2:	0f b6 85 ff f6 ff ff 	movzbl -0x901(%rbp),%eax
    faf9:	66 39 c2             	cmp    %ax,%dx
    fafc:	77 09                	ja     fb07 <func_1+0x1352>
    fafe:	80 bd fa f6 ff ff 00 	cmpb   $0x0,-0x906(%rbp)
    fb05:	74 07                	je     fb0e <func_1+0x1359>
    fb07:	b8 01 00 00 00       	mov    $0x1,%eax
    fb0c:	eb 05                	jmp    fb13 <func_1+0x135e>
    fb0e:	b8 00 00 00 00       	mov    $0x0,%eax
    fb13:	89 c2                	mov    %eax,%edx
    fb15:	48 8b 85 a0 f7 ff ff 	mov    -0x860(%rbp),%rax
    fb1c:	66 89 10             	mov    %dx,(%rax)
    fb1f:	48 8b 85 a0 f7 ff ff 	mov    -0x860(%rbp),%rax
    fb26:	0f b7 00             	movzwl (%rax),%eax
    fb29:	0f b7 c0             	movzwl %ax,%eax
    fb2c:	89 c6                	mov    %eax,%esi
    fb2e:	bf 01 00 00 00       	mov    $0x1,%edi
    fb33:	e8 ce e2 ff ff       	callq  de06 <safe_lshift_func_uint16_t_u_u>
    fb38:	8b 05 fa 5b 01 00    	mov    0x15bfa(%rip),%eax        # 25738 <g_4545>
    fb3e:	83 c0 06             	add    $0x6,%eax
    fb41:	48 98                	cltq   
    fb43:	0f b6 44 05 c0       	movzbl -0x40(%rbp,%rax,1),%eax
    fb48:	84 c0                	test   %al,%al
    fb4a:	74 07                	je     fb53 <func_1+0x139e>
    fb4c:	b8 01 00 00 00       	mov    $0x1,%eax
    fb51:	eb 05                	jmp    fb58 <func_1+0x13a3>
    fb53:	b8 00 00 00 00       	mov    $0x0,%eax
    fb58:	0f be c0             	movsbl %al,%eax
    fb5b:	be 02 00 00 00       	mov    $0x2,%esi
    fb60:	89 c7                	mov    %eax,%edi
    fb62:	e8 05 d8 ff ff       	callq  d36c <safe_rshift_func_int8_t_s_u>
    fb67:	0f be c0             	movsbl %al,%eax
    fb6a:	be 28 66 70 b1       	mov    $0xb1706628,%esi
    fb6f:	89 c7                	mov    %eax,%edi
    fb71:	e8 af e3 ff ff       	callq  df25 <safe_div_func_uint32_t_u_u>
    fb76:	8b 95 24 f7 ff ff    	mov    -0x8dc(%rbp),%edx
    fb7c:	09 d0                	or     %edx,%eax
    fb7e:	85 c0                	test   %eax,%eax
    fb80:	74 07                	je     fb89 <func_1+0x13d4>
    fb82:	b8 01 00 00 00       	mov    $0x1,%eax
    fb87:	eb 05                	jmp    fb8e <func_1+0x13d9>
    fb89:	b8 00 00 00 00       	mov    $0x0,%eax
    fb8e:	0f b6 c0             	movzbl %al,%eax
    fb91:	be 04 00 00 00       	mov    $0x4,%esi
    fb96:	89 c7                	mov    %eax,%edi
    fb98:	e8 f0 e0 ff ff       	callq  dc8d <safe_rshift_func_uint8_t_u_s>
    fb9d:	0f b6 c0             	movzbl %al,%eax
    fba0:	be 06 00 00 00       	mov    $0x6,%esi
    fba5:	89 c7                	mov    %eax,%edi
    fba7:	e8 59 e0 ff ff       	callq  dc05 <safe_lshift_func_uint8_t_u_s>
    fbac:	0f be d8             	movsbl %al,%ebx
    fbaf:	48 8b 85 58 f8 ff ff 	mov    -0x7a8(%rbp),%rax
    fbb6:	0f b6 d0             	movzbl %al,%edx
    fbb9:	0f b6 85 fa f6 ff ff 	movzbl -0x906(%rbp),%eax
    fbc0:	0f b6 c0             	movzbl %al,%eax
    fbc3:	89 d6                	mov    %edx,%esi
    fbc5:	89 c7                	mov    %eax,%edi
    fbc7:	e8 0f e0 ff ff       	callq  dbdb <safe_div_func_uint8_t_u_u>
    fbcc:	0f be c0             	movsbl %al,%eax
    fbcf:	89 de                	mov    %ebx,%esi
    fbd1:	89 c7                	mov    %eax,%edi
    fbd3:	e8 3a d6 ff ff       	callq  d212 <safe_mul_func_int8_t_s_s>
    fbd8:	48 8b 85 58 f8 ff ff 	mov    -0x7a8(%rbp),%rax
    fbdf:	0f be c0             	movsbl %al,%eax
    fbe2:	89 c7                	mov    %eax,%edi
    fbe4:	e8 d6 d5 ff ff       	callq  d1bf <safe_unary_minus_func_int8_t_s>
    fbe9:	88 85 00 f7 ff ff    	mov    %al,-0x900(%rbp)
    fbef:	0f be 9d fa f6 ff ff 	movsbl -0x906(%rbp),%ebx
    fbf6:	0f b6 85 fd f6 ff ff 	movzbl -0x903(%rbp),%eax
    fbfd:	0f be c0             	movsbl %al,%eax
    fc00:	be 07 00 00 00       	mov    $0x7,%esi
    fc05:	89 c7                	mov    %eax,%edi
    fc07:	e8 29 d7 ff ff       	callq  d335 <safe_rshift_func_int8_t_s_s>
    fc0c:	3c 6d                	cmp    $0x6d,%al
    fc0e:	0f 9f c0             	setg   %al
    fc11:	0f b6 c0             	movzbl %al,%eax
    fc14:	89 de                	mov    %ebx,%esi
    fc16:	89 c7                	mov    %eax,%edi
    fc18:	e8 e2 da ff ff       	callq  d6ff <safe_div_func_int32_t_s_s>
    fc1d:	48 8b 85 c0 f8 ff ff 	mov    -0x740(%rbp),%rax
    fc24:	48 c7 00 01 00 00 00 	movq   $0x1,(%rax)
    fc2b:	48 8b 85 c0 f8 ff ff 	mov    -0x740(%rbp),%rax
    fc32:	48 8b 00             	mov    (%rax),%rax
    fc35:	48 c7 c6 ff ff ff ff 	mov    $0xffffffffffffffff,%rsi
    fc3c:	48 89 c7             	mov    %rax,%rdi
    fc3f:	e8 64 dc ff ff       	callq  d8a8 <safe_sub_func_int64_t_s_s>
    fc44:	48 89 c2             	mov    %rax,%rdx
    fc47:	48 8b 05 ba 93 01 00 	mov    0x193ba(%rip),%rax        # 29008 <g_942>
    fc4e:	48 8b 00             	mov    (%rax),%rax
    fc51:	8b 08                	mov    (%rax),%ecx
    fc53:	21 ca                	and    %ecx,%edx
    fc55:	89 10                	mov    %edx,(%rax)
    fc57:	c7 05 67 48 01 00 01 	movl   $0x1,0x14867(%rip)        # 244c8 <g_703>
    fc5e:	00 00 00 
    fc61:	e9 4f 06 00 00       	jmpq   102b5 <func_1+0x1b00>
    fc66:	48 8d 05 67 44 01 00 	lea    0x14467(%rip),%rax        # 240d4 <g_40>
    fc6d:	48 89 85 d8 f8 ff ff 	mov    %rax,-0x728(%rbp)
    fc74:	48 8d 05 ad 44 01 00 	lea    0x144ad(%rip),%rax        # 24128 <g_69+0x48>
    fc7b:	48 89 85 e0 f8 ff ff 	mov    %rax,-0x720(%rbp)
    fc82:	48 8d 05 0f 56 01 00 	lea    0x1560f(%rip),%rax        # 25298 <g_3712>
    fc89:	48 89 85 e8 f8 ff ff 	mov    %rax,-0x718(%rbp)
    fc90:	48 8d 05 e9 47 01 00 	lea    0x147e9(%rip),%rax        # 24480 <g_527>
    fc97:	48 89 85 f0 f8 ff ff 	mov    %rax,-0x710(%rbp)
    fc9e:	48 c7 85 f8 f8 ff ff 	movq   $0x0,-0x708(%rbp)
    fca5:	00 00 00 00 
    fca9:	48 8d 85 20 f7 ff ff 	lea    -0x8e0(%rbp),%rax
    fcb0:	48 89 85 00 f9 ff ff 	mov    %rax,-0x700(%rbp)
    fcb7:	48 8d 05 da 55 01 00 	lea    0x155da(%rip),%rax        # 25298 <g_3712>
    fcbe:	48 89 85 08 f9 ff ff 	mov    %rax,-0x6f8(%rbp)
    fcc5:	48 8d 05 cc 55 01 00 	lea    0x155cc(%rip),%rax        # 25298 <g_3712>
    fccc:	48 89 85 10 f9 ff ff 	mov    %rax,-0x6f0(%rbp)
    fcd3:	48 8d 05 06 4c 01 00 	lea    0x14c06(%rip),%rax        # 248e0 <g_1741>
    fcda:	48 89 85 18 f9 ff ff 	mov    %rax,-0x6e8(%rbp)
    fce1:	48 8d 85 70 f9 ff ff 	lea    -0x690(%rbp),%rax
    fce8:	48 89 85 70 fc ff ff 	mov    %rax,-0x390(%rbp)
    fcef:	48 8d 85 24 f7 ff ff 	lea    -0x8dc(%rbp),%rax
    fcf6:	48 89 85 78 fc ff ff 	mov    %rax,-0x388(%rbp)
    fcfd:	48 c7 85 80 fc ff ff 	movq   $0x0,-0x380(%rbp)
    fd04:	00 00 00 00 
    fd08:	48 8d 05 b9 43 01 00 	lea    0x143b9(%rip),%rax        # 240c8 <g_37>
    fd0f:	48 89 85 88 fc ff ff 	mov    %rax,-0x378(%rbp)
    fd16:	48 8d 85 a0 f9 ff ff 	lea    -0x660(%rbp),%rax
    fd1d:	48 83 c0 10          	add    $0x10,%rax
    fd21:	48 89 85 90 fc ff ff 	mov    %rax,-0x370(%rbp)
    fd28:	48 8d 05 99 47 01 00 	lea    0x14799(%rip),%rax        # 244c8 <g_703>
    fd2f:	48 89 85 98 fc ff ff 	mov    %rax,-0x368(%rbp)
    fd36:	48 8d 05 87 43 01 00 	lea    0x14387(%rip),%rax        # 240c4 <g_35>
    fd3d:	48 89 85 a0 fc ff ff 	mov    %rax,-0x360(%rbp)
    fd44:	48 8d 05 4d 55 01 00 	lea    0x1554d(%rip),%rax        # 25298 <g_3712>
    fd4b:	48 89 85 a8 fc ff ff 	mov    %rax,-0x358(%rbp)
    fd52:	48 8d 85 24 f7 ff ff 	lea    -0x8dc(%rbp),%rax
    fd59:	48 89 85 b0 fc ff ff 	mov    %rax,-0x350(%rbp)
    fd60:	48 8d 05 19 47 01 00 	lea    0x14719(%rip),%rax        # 24480 <g_527>
    fd67:	48 89 85 b8 fc ff ff 	mov    %rax,-0x348(%rbp)
    fd6e:	48 c7 85 c0 fc ff ff 	movq   $0x0,-0x340(%rbp)
    fd75:	00 00 00 00 
    fd79:	48 8d 05 00 47 01 00 	lea    0x14700(%rip),%rax        # 24480 <g_527>
    fd80:	48 89 85 c8 fc ff ff 	mov    %rax,-0x338(%rbp)
    fd87:	48 c7 85 d0 fc ff ff 	movq   $0x0,-0x330(%rbp)
    fd8e:	00 00 00 00 
    fd92:	48 8d 05 ff 54 01 00 	lea    0x154ff(%rip),%rax        # 25298 <g_3712>
    fd99:	48 89 85 d8 fc ff ff 	mov    %rax,-0x328(%rbp)
    fda0:	48 c7 85 e0 fc ff ff 	movq   $0x0,-0x320(%rbp)
    fda7:	00 00 00 00 
    fdab:	48 8d 85 10 f7 ff ff 	lea    -0x8f0(%rbp),%rax
    fdb2:	48 89 85 e8 fc ff ff 	mov    %rax,-0x318(%rbp)
    fdb9:	48 8d 85 14 f7 ff ff 	lea    -0x8ec(%rbp),%rax
    fdc0:	48 89 85 f0 fc ff ff 	mov    %rax,-0x310(%rbp)
    fdc7:	48 8d 85 14 f7 ff ff 	lea    -0x8ec(%rbp),%rax
    fdce:	48 89 85 f8 fc ff ff 	mov    %rax,-0x308(%rbp)
    fdd5:	48 c7 85 00 fd ff ff 	movq   $0x0,-0x300(%rbp)
    fddc:	00 00 00 00 
    fde0:	48 c7 85 08 fd ff ff 	movq   $0x0,-0x2f8(%rbp)
    fde7:	00 00 00 00 
    fdeb:	48 8d 05 a6 54 01 00 	lea    0x154a6(%rip),%rax        # 25298 <g_3712>
    fdf2:	48 89 85 10 fd ff ff 	mov    %rax,-0x2f0(%rbp)
    fdf9:	48 8d 05 c4 42 01 00 	lea    0x142c4(%rip),%rax        # 240c4 <g_35>
    fe00:	48 89 85 18 fd ff ff 	mov    %rax,-0x2e8(%rbp)
    fe07:	48 8d 05 72 46 01 00 	lea    0x14672(%rip),%rax        # 24480 <g_527>
    fe0e:	48 89 85 20 fd ff ff 	mov    %rax,-0x2e0(%rbp)
    fe15:	48 8d 05 7c 54 01 00 	lea    0x1547c(%rip),%rax        # 25298 <g_3712>
    fe1c:	48 89 85 28 fd ff ff 	mov    %rax,-0x2d8(%rbp)
    fe23:	48 8d 85 24 f7 ff ff 	lea    -0x8dc(%rbp),%rax
    fe2a:	48 89 85 30 fd ff ff 	mov    %rax,-0x2d0(%rbp)
    fe31:	48 8d 85 70 f9 ff ff 	lea    -0x690(%rbp),%rax
    fe38:	48 83 c0 0c          	add    $0xc,%rax
    fe3c:	48 89 85 38 fd ff ff 	mov    %rax,-0x2c8(%rbp)
    fe43:	48 8d 05 c2 42 01 00 	lea    0x142c2(%rip),%rax        # 2410c <g_69+0x2c>
    fe4a:	48 89 85 40 fd ff ff 	mov    %rax,-0x2c0(%rbp)
    fe51:	48 8d 05 6c 42 01 00 	lea    0x1426c(%rip),%rax        # 240c4 <g_35>
    fe58:	48 89 85 48 fd ff ff 	mov    %rax,-0x2b8(%rbp)
    fe5f:	48 8d 05 56 43 01 00 	lea    0x14356(%rip),%rax        # 241bc <g_69+0xdc>
    fe66:	48 89 85 50 fd ff ff 	mov    %rax,-0x2b0(%rbp)
    fe6d:	48 c7 85 58 fd ff ff 	movq   $0x0,-0x2a8(%rbp)
    fe74:	00 00 00 00 
    fe78:	48 c7 85 60 fd ff ff 	movq   $0x0,-0x2a0(%rbp)
    fe7f:	00 00 00 00 
    fe83:	48 8d 85 20 f7 ff ff 	lea    -0x8e0(%rbp),%rax
    fe8a:	48 89 85 68 fd ff ff 	mov    %rax,-0x298(%rbp)
    fe91:	48 8d 85 10 f7 ff ff 	lea    -0x8f0(%rbp),%rax
    fe98:	48 89 85 70 fd ff ff 	mov    %rax,-0x290(%rbp)
    fe9f:	48 8d 85 10 f7 ff ff 	lea    -0x8f0(%rbp),%rax
    fea6:	48 89 85 78 fd ff ff 	mov    %rax,-0x288(%rbp)
    fead:	48 8d 85 a0 f9 ff ff 	lea    -0x660(%rbp),%rax
    feb4:	48 83 c0 10          	add    $0x10,%rax
    feb8:	48 89 85 80 fd ff ff 	mov    %rax,-0x280(%rbp)
    febf:	48 8d 05 0e 42 01 00 	lea    0x1420e(%rip),%rax        # 240d4 <g_40>
    fec6:	48 89 85 88 fd ff ff 	mov    %rax,-0x278(%rbp)
    fecd:	48 c7 85 90 fd ff ff 	movq   $0x0,-0x270(%rbp)
    fed4:	00 00 00 00 
    fed8:	48 8d 05 99 42 01 00 	lea    0x14299(%rip),%rax        # 24178 <g_69+0x98>
    fedf:	48 89 85 98 fd ff ff 	mov    %rax,-0x268(%rbp)
    fee6:	48 8d 05 8b 42 01 00 	lea    0x1428b(%rip),%rax        # 24178 <g_69+0x98>
    feed:	48 89 85 a0 fd ff ff 	mov    %rax,-0x260(%rbp)
    fef4:	48 8d 05 85 45 01 00 	lea    0x14585(%rip),%rax        # 24480 <g_527>
    fefb:	48 89 85 a8 fd ff ff 	mov    %rax,-0x258(%rbp)
    ff02:	48 c7 85 b0 fd ff ff 	movq   $0x0,-0x250(%rbp)
    ff09:	00 00 00 00 
    ff0d:	48 c7 85 b8 fd ff ff 	movq   $0x0,-0x248(%rbp)
    ff14:	00 00 00 00 
    ff18:	48 8d 05 a5 41 01 00 	lea    0x141a5(%rip),%rax        # 240c4 <g_35>
    ff1f:	48 89 85 c0 fd ff ff 	mov    %rax,-0x240(%rbp)
    ff26:	48 8d 05 97 41 01 00 	lea    0x14197(%rip),%rax        # 240c4 <g_35>
    ff2d:	48 89 85 c8 fd ff ff 	mov    %rax,-0x238(%rbp)
    ff34:	48 c7 85 d0 fd ff ff 	movq   $0x0,-0x230(%rbp)
    ff3b:	00 00 00 00 
    ff3f:	48 8d 05 82 41 01 00 	lea    0x14182(%rip),%rax        # 240c8 <g_37>
    ff46:	48 89 85 d8 fd ff ff 	mov    %rax,-0x228(%rbp)
    ff4d:	48 8d 05 74 45 01 00 	lea    0x14574(%rip),%rax        # 244c8 <g_703>
    ff54:	48 89 85 e0 fd ff ff 	mov    %rax,-0x220(%rbp)
    ff5b:	48 8d 05 5a 42 01 00 	lea    0x1425a(%rip),%rax        # 241bc <g_69+0xdc>
    ff62:	48 89 85 e8 fd ff ff 	mov    %rax,-0x218(%rbp)
    ff69:	48 8d 85 70 f9 ff ff 	lea    -0x690(%rbp),%rax
    ff70:	48 89 85 f0 fd ff ff 	mov    %rax,-0x210(%rbp)
    ff77:	48 c7 85 f8 fd ff ff 	movq   $0x0,-0x208(%rbp)
    ff7e:	00 00 00 00 
    ff82:	48 8d 85 20 f7 ff ff 	lea    -0x8e0(%rbp),%rax
    ff89:	48 89 85 00 fe ff ff 	mov    %rax,-0x200(%rbp)
    ff90:	48 8d 05 25 42 01 00 	lea    0x14225(%rip),%rax        # 241bc <g_69+0xdc>
    ff97:	48 89 85 08 fe ff ff 	mov    %rax,-0x1f8(%rbp)
    ff9e:	48 8d 05 23 45 01 00 	lea    0x14523(%rip),%rax        # 244c8 <g_703>
    ffa5:	48 89 85 10 fe ff ff 	mov    %rax,-0x1f0(%rbp)
    ffac:	48 8d 85 14 f7 ff ff 	lea    -0x8ec(%rbp),%rax
    ffb3:	48 89 85 18 fe ff ff 	mov    %rax,-0x1e8(%rbp)
    ffba:	48 8d 85 24 f7 ff ff 	lea    -0x8dc(%rbp),%rax
    ffc1:	48 89 85 20 fe ff ff 	mov    %rax,-0x1e0(%rbp)
    ffc8:	48 8d 05 f5 40 01 00 	lea    0x140f5(%rip),%rax        # 240c4 <g_35>
    ffcf:	48 89 85 28 fe ff ff 	mov    %rax,-0x1d8(%rbp)
    ffd6:	48 8d 05 f7 40 01 00 	lea    0x140f7(%rip),%rax        # 240d4 <g_40>
    ffdd:	48 89 85 30 fe ff ff 	mov    %rax,-0x1d0(%rbp)
    ffe4:	48 c7 85 38 fe ff ff 	movq   $0x0,-0x1c8(%rbp)
    ffeb:	00 00 00 00 
    ffef:	48 c7 85 40 fe ff ff 	movq   $0x0,-0x1c0(%rbp)
    fff6:	00 00 00 00 
    fffa:	48 c7 85 48 fe ff ff 	movq   $0x0,-0x1b8(%rbp)
   10001:	00 00 00 00 
   10005:	48 c7 85 50 fe ff ff 	movq   $0x0,-0x1b0(%rbp)
   1000c:	00 00 00 00 
   10010:	48 8d 05 61 41 01 00 	lea    0x14161(%rip),%rax        # 24178 <g_69+0x98>
   10017:	48 89 85 58 fe ff ff 	mov    %rax,-0x1a8(%rbp)
   1001e:	48 c7 85 60 fe ff ff 	movq   $0x0,-0x1a0(%rbp)
   10025:	00 00 00 00 
   10029:	48 8d 85 a0 f9 ff ff 	lea    -0x660(%rbp),%rax
   10030:	48 83 c0 10          	add    $0x10,%rax
   10034:	48 89 85 68 fe ff ff 	mov    %rax,-0x198(%rbp)
   1003b:	48 8d 85 a0 f9 ff ff 	lea    -0x660(%rbp),%rax
   10042:	48 83 c0 10          	add    $0x10,%rax
   10046:	48 89 85 70 fe ff ff 	mov    %rax,-0x190(%rbp)
   1004d:	48 8d 05 2c 44 01 00 	lea    0x1442c(%rip),%rax        # 24480 <g_527>
   10054:	48 89 85 78 fe ff ff 	mov    %rax,-0x188(%rbp)
   1005b:	48 8d 05 62 40 01 00 	lea    0x14062(%rip),%rax        # 240c4 <g_35>
   10062:	48 89 85 80 fe ff ff 	mov    %rax,-0x180(%rbp)
   10069:	48 8d 85 20 f7 ff ff 	lea    -0x8e0(%rbp),%rax
   10070:	48 89 85 88 fe ff ff 	mov    %rax,-0x178(%rbp)
   10077:	48 8d 85 20 f7 ff ff 	lea    -0x8e0(%rbp),%rax
   1007e:	48 89 85 90 fe ff ff 	mov    %rax,-0x170(%rbp)
   10085:	48 8d 05 f4 43 01 00 	lea    0x143f4(%rip),%rax        # 24480 <g_527>
   1008c:	48 89 85 98 fe ff ff 	mov    %rax,-0x168(%rbp)
   10093:	48 8d 05 22 41 01 00 	lea    0x14122(%rip),%rax        # 241bc <g_69+0xdc>
   1009a:	48 89 85 a0 fe ff ff 	mov    %rax,-0x160(%rbp)
   100a1:	48 8d 05 d8 43 01 00 	lea    0x143d8(%rip),%rax        # 24480 <g_527>
   100a8:	48 89 85 a8 fe ff ff 	mov    %rax,-0x158(%rbp)
   100af:	48 c7 85 b0 fe ff ff 	movq   $0x0,-0x150(%rbp)
   100b6:	00 00 00 00 
   100ba:	48 8d 85 70 f9 ff ff 	lea    -0x690(%rbp),%rax
   100c1:	48 83 c0 0c          	add    $0xc,%rax
   100c5:	48 89 85 b8 fe ff ff 	mov    %rax,-0x148(%rbp)
   100cc:	48 c7 85 c0 fe ff ff 	movq   $0x0,-0x140(%rbp)
   100d3:	00 00 00 00 
   100d7:	48 8d 85 20 f7 ff ff 	lea    -0x8e0(%rbp),%rax
   100de:	48 89 85 c8 fe ff ff 	mov    %rax,-0x138(%rbp)
   100e5:	48 8d 05 94 43 01 00 	lea    0x14394(%rip),%rax        # 24480 <g_527>
   100ec:	48 89 85 d0 fe ff ff 	mov    %rax,-0x130(%rbp)
   100f3:	48 8d 05 86 43 01 00 	lea    0x14386(%rip),%rax        # 24480 <g_527>
   100fa:	48 89 85 d8 fe ff ff 	mov    %rax,-0x128(%rbp)
   10101:	48 c7 85 e0 fe ff ff 	movq   $0x0,-0x120(%rbp)
   10108:	00 00 00 00 
   1010c:	48 c7 85 e8 fe ff ff 	movq   $0x0,-0x118(%rbp)
   10113:	00 00 00 00 
   10117:	48 8d 85 20 f7 ff ff 	lea    -0x8e0(%rbp),%rax
   1011e:	48 89 85 f0 fe ff ff 	mov    %rax,-0x110(%rbp)
   10125:	48 8d 85 1c f7 ff ff 	lea    -0x8e4(%rbp),%rax
   1012c:	48 89 85 f8 fe ff ff 	mov    %rax,-0x108(%rbp)
   10133:	48 8d 85 14 f7 ff ff 	lea    -0x8ec(%rbp),%rax
   1013a:	48 89 85 00 ff ff ff 	mov    %rax,-0x100(%rbp)
   10141:	48 8d 05 38 43 01 00 	lea    0x14338(%rip),%rax        # 24480 <g_527>
   10148:	48 89 85 08 ff ff ff 	mov    %rax,-0xf8(%rbp)
   1014f:	48 8d 85 24 f7 ff ff 	lea    -0x8dc(%rbp),%rax
   10156:	48 89 85 10 ff ff ff 	mov    %rax,-0xf0(%rbp)
   1015d:	48 8d 05 34 51 01 00 	lea    0x15134(%rip),%rax        # 25298 <g_3712>
   10164:	48 89 85 18 ff ff ff 	mov    %rax,-0xe8(%rbp)
   1016b:	48 c7 85 20 ff ff ff 	movq   $0x0,-0xe0(%rbp)
   10172:	00 00 00 00 
   10176:	48 c7 85 28 ff ff ff 	movq   $0x0,-0xd8(%rbp)
   1017d:	00 00 00 00 
   10181:	48 c7 85 30 ff ff ff 	movq   $0x0,-0xd0(%rbp)
   10188:	00 00 00 00 
   1018c:	48 c7 85 38 ff ff ff 	movq   $0x0,-0xc8(%rbp)
   10193:	00 00 00 00 
   10197:	48 8d 85 70 f9 ff ff 	lea    -0x690(%rbp),%rax
   1019e:	48 83 c0 0c          	add    $0xc,%rax
   101a2:	48 89 85 40 ff ff ff 	mov    %rax,-0xc0(%rbp)
   101a9:	48 8d 05 e8 50 01 00 	lea    0x150e8(%rip),%rax        # 25298 <g_3712>
   101b0:	48 89 85 48 ff ff ff 	mov    %rax,-0xb8(%rbp)
   101b7:	48 8d 05 16 3f 01 00 	lea    0x13f16(%rip),%rax        # 240d4 <g_40>
   101be:	48 89 85 50 ff ff ff 	mov    %rax,-0xb0(%rbp)
   101c5:	48 8d 05 08 3f 01 00 	lea    0x13f08(%rip),%rax        # 240d4 <g_40>
   101cc:	48 89 85 58 ff ff ff 	mov    %rax,-0xa8(%rbp)
   101d3:	48 8d 85 a0 f9 ff ff 	lea    -0x660(%rbp),%rax
   101da:	48 83 c0 10          	add    $0x10,%rax
   101de:	48 89 85 60 ff ff ff 	mov    %rax,-0xa0(%rbp)
   101e5:	48 8d 85 14 f7 ff ff 	lea    -0x8ec(%rbp),%rax
   101ec:	48 89 85 68 ff ff ff 	mov    %rax,-0x98(%rbp)
   101f3:	48 8d 05 c2 3f 01 00 	lea    0x13fc2(%rip),%rax        # 241bc <g_69+0xdc>
   101fa:	48 89 85 70 ff ff ff 	mov    %rax,-0x90(%rbp)
   10201:	48 8d 85 24 f7 ff ff 	lea    -0x8dc(%rbp),%rax
   10208:	48 89 85 78 ff ff ff 	mov    %rax,-0x88(%rbp)
   1020f:	48 8d 85 20 f7 ff ff 	lea    -0x8e0(%rbp),%rax
   10216:	48 89 45 80          	mov    %rax,-0x80(%rbp)
   1021a:	48 8d 05 5f 42 01 00 	lea    0x1425f(%rip),%rax        # 24480 <g_527>
   10221:	48 89 45 88          	mov    %rax,-0x78(%rbp)
   10225:	48 8d 85 10 f7 ff ff 	lea    -0x8f0(%rbp),%rax
   1022c:	48 89 45 90          	mov    %rax,-0x70(%rbp)
   10230:	48 8d 05 85 3f 01 00 	lea    0x13f85(%rip),%rax        # 241bc <g_69+0xdc>
   10237:	48 89 45 98          	mov    %rax,-0x68(%rbp)
   1023b:	48 8d 05 7a 3f 01 00 	lea    0x13f7a(%rip),%rax        # 241bc <g_69+0xdc>
   10242:	48 89 45 a0          	mov    %rax,-0x60(%rbp)
   10246:	48 c7 45 a8 00 00 00 	movq   $0x0,-0x58(%rbp)
   1024d:	00 
   1024e:	48 c7 45 b0 00 00 00 	movq   $0x0,-0x50(%rbp)
   10255:	00 
   10256:	0f b7 85 5e f9 ff ff 	movzwl -0x6a2(%rbp),%eax
   1025d:	83 e8 01             	sub    $0x1,%eax
   10260:	66 89 85 5e f9 ff ff 	mov    %ax,-0x6a2(%rbp)
   10267:	c7 05 6b 46 01 00 00 	movl   $0x0,0x1466b(%rip)        # 248dc <g_1513>
   1026e:	00 00 00 
   10271:	90                   	nop
   10272:	8b 05 64 46 01 00    	mov    0x14664(%rip),%eax        # 248dc <g_1513>
   10278:	83 f8 01             	cmp    $0x1,%eax
   1027b:	7f 29                	jg     102a6 <func_1+0x1af1>
   1027d:	48 8b 8d e8 f6 ff ff 	mov    -0x918(%rbp),%rcx
   10284:	48 8b 05 75 56 01 00 	mov    0x15675(%rip),%rax        # 25900 <g_4908>
   1028b:	48 8b 15 76 56 01 00 	mov    0x15676(%rip),%rdx        # 25908 <g_4908+0x8>
   10292:	48 89 01             	mov    %rax,(%rcx)
   10295:	48 89 51 08          	mov    %rdx,0x8(%rcx)
   10299:	48 8b 05 70 56 01 00 	mov    0x15670(%rip),%rax        # 25910 <g_4908+0x10>
   102a0:	48 89 41 10          	mov    %rax,0x10(%rcx)
   102a4:	eb 75                	jmp    1031b <func_1+0x1b66>
   102a6:	8b 05 1c 42 01 00    	mov    0x1421c(%rip),%eax        # 244c8 <g_703>
   102ac:	83 e8 01             	sub    $0x1,%eax
   102af:	89 05 13 42 01 00    	mov    %eax,0x14213(%rip)        # 244c8 <g_703>
   102b5:	8b 05 0d 42 01 00    	mov    0x1420d(%rip),%eax        # 244c8 <g_703>
   102bb:	85 c0                	test   %eax,%eax
   102bd:	0f 89 a3 f9 ff ff    	jns    fc66 <func_1+0x14b1>
   102c3:	8b 05 6f 54 01 00    	mov    0x1546f(%rip),%eax        # 25738 <g_4545>
   102c9:	83 e8 01             	sub    $0x1,%eax
   102cc:	89 05 66 54 01 00    	mov    %eax,0x15466(%rip)        # 25738 <g_4545>
   102d2:	8b 05 60 54 01 00    	mov    0x15460(%rip),%eax        # 25738 <g_4545>
   102d8:	85 c0                	test   %eax,%eax
   102da:	0f 89 86 ef ff ff    	jns    f266 <func_1+0xab1>
   102e0:	83 85 28 f7 ff ff 01 	addl   $0x1,-0x8d8(%rbp)
   102e7:	83 bd 28 f7 ff ff 01 	cmpl   $0x1,-0x8d8(%rbp)
   102ee:	0f 8e 04 ee ff ff    	jle    f0f8 <func_1+0x943>
   102f4:	48 8b 05 fd 8c 01 00 	mov    0x18cfd(%rip),%rax        # 28ff8 <g_935>
   102fb:	48 8b 30             	mov    (%rax),%rsi
   102fe:	48 8b 8d e8 f6 ff ff 	mov    -0x918(%rbp),%rcx
   10305:	48 8b 06             	mov    (%rsi),%rax
   10308:	48 8b 56 08          	mov    0x8(%rsi),%rdx
   1030c:	48 89 01             	mov    %rax,(%rcx)
   1030f:	48 89 51 08          	mov    %rdx,0x8(%rcx)
   10313:	48 8b 46 10          	mov    0x10(%rsi),%rax
   10317:	48 89 41 10          	mov    %rax,0x10(%rcx)
   1031b:	48 8b 45 c8          	mov    -0x38(%rbp),%rax
   1031f:	64 48 33 04 25 28 00 	xor    %fs:0x28,%rax
   10326:	00 00 
   10328:	74 05                	je     1032f <func_1+0x1b7a>
   1032a:	e8 41 cd ff ff       	callq  d070 <__stack_chk_fail@plt>
   1032f:	48 8b 85 e8 f6 ff ff 	mov    -0x918(%rbp),%rax
   10336:	48 81 c4 28 09 00 00 	add    $0x928,%rsp
   1033d:	5b                   	pop    %rbx
   1033e:	41 5c                	pop    %r12
   10340:	41 5d                	pop    %r13
   10342:	41 5e                	pop    %r14
   10344:	41 5f                	pop    %r15
   10346:	5d                   	pop    %rbp
   10347:	c3                   	retq   

0000000000010348 <func_4>:
   10348:	f3 0f 1e fa          	endbr64 
   1034c:	55                   	push   %rbp
   1034d:	48 89 e5             	mov    %rsp,%rbp
   10350:	41 57                	push   %r15
   10352:	41 56                	push   %r14
   10354:	41 55                	push   %r13
   10356:	41 54                	push   %r12
   10358:	53                   	push   %rbx
   10359:	48 81 ec 00 10 00 00 	sub    $0x1000,%rsp
   10360:	48 83 0c 24 00       	orq    $0x0,(%rsp)
   10365:	48 81 ec c8 01 00 00 	sub    $0x1c8,%rsp
   1036c:	89 f0                	mov    %esi,%eax
   1036e:	48 89 95 20 ee ff ff 	mov    %rdx,-0x11e0(%rbp)
   10375:	89 ca                	mov    %ecx,%edx
   10377:	89 f9                	mov    %edi,%ecx
   10379:	66 89 8d 2c ee ff ff 	mov    %cx,-0x11d4(%rbp)
   10380:	66 89 85 28 ee ff ff 	mov    %ax,-0x11d8(%rbp)
   10387:	89 d0                	mov    %edx,%eax
   10389:	88 85 1c ee ff ff    	mov    %al,-0x11e4(%rbp)
   1038f:	64 48 8b 04 25 28 00 	mov    %fs:0x28,%rax
   10396:	00 00 
   10398:	48 89 45 c8          	mov    %rax,-0x38(%rbp)
   1039c:	31 c0                	xor    %eax,%eax
   1039e:	48 b8 0c cd f7 16 74 	movabs $0x121047416f7cd0c,%rax
   103a5:	04 21 01 
   103a8:	48 89 85 c0 ee ff ff 	mov    %rax,-0x1140(%rbp)
   103af:	48 8d 85 00 f4 ff ff 	lea    -0xc00(%rbp),%rax
   103b6:	48 8d 15 c3 57 01 00 	lea    0x157c3(%rip),%rdx        # 25b80 <g_5192+0x140>
   103bd:	b9 5a 00 00 00       	mov    $0x5a,%ecx
   103c2:	48 89 c7             	mov    %rax,%rdi
   103c5:	48 89 d6             	mov    %rdx,%rsi
   103c8:	f3 48 a5             	rep movsq %ds:(%rsi),%es:(%rdi)
   103cb:	c7 85 74 ee ff ff bd 	movl   $0xc4158dbd,-0x118c(%rbp)
   103d2:	8d 15 c4 
   103d5:	c7 85 48 ee ff ff ff 	movl   $0xffffffff,-0x11b8(%rbp)
   103dc:	ff ff ff 
   103df:	66 c7 85 3a ee ff ff 	movw   $0x1,-0x11c6(%rbp)
   103e6:	01 00 
   103e8:	48 8d 85 20 fa ff ff 	lea    -0x5e0(%rbp),%rax
   103ef:	48 8d 15 6a 5a 01 00 	lea    0x15a6a(%rip),%rdx        # 25e60 <g_5192+0x420>
   103f6:	b9 b4 00 00 00       	mov    $0xb4,%ecx
   103fb:	48 89 c7             	mov    %rax,%rdi
   103fe:	48 89 d6             	mov    %rdx,%rsi
   10401:	f3 48 a5             	rep movsq %ds:(%rsi),%es:(%rdi)
   10404:	c7 85 4c ee ff ff 01 	movl   $0x1,-0x11b4(%rbp)
   1040b:	00 00 00 
   1040e:	c7 85 78 ee ff ff 01 	movl   $0x1,-0x1188(%rbp)
   10415:	00 00 00 
   10418:	c7 85 7c ee ff ff 52 	movl   $0x2d446952,-0x1184(%rbp)
   1041f:	69 44 2d 
   10422:	c7 85 80 ee ff ff 07 	movl   $0x7,-0x1180(%rbp)
   10429:	00 00 00 
   1042c:	c7 85 84 ee ff ff f6 	movl   $0xfffffff6,-0x117c(%rbp)
   10433:	ff ff ff 
   10436:	48 8d 05 a3 91 01 00 	lea    0x191a3(%rip),%rax        # 295e0 <g_1532>
   1043d:	48 89 85 c8 ee ff ff 	mov    %rax,-0x1138(%rbp)
   10444:	c7 85 50 ee ff ff ff 	movl   $0xffffffff,-0x11b0(%rbp)
   1044b:	ff ff ff 
   1044e:	48 8d 85 d0 f1 ff ff 	lea    -0xe30(%rbp),%rax
   10455:	48 8d 15 a4 5f 01 00 	lea    0x15fa4(%rip),%rdx        # 26400 <g_5192+0x9c0>
   1045c:	b9 46 00 00 00       	mov    $0x46,%ecx
   10461:	48 89 c7             	mov    %rax,%rdi
   10464:	48 89 d6             	mov    %rdx,%rsi
   10467:	f3 48 a5             	rep movsq %ds:(%rsi),%es:(%rdi)
   1046a:	c7 85 50 f0 ff ff 8d 	movl   $0xff8dff8d,-0xfb0(%rbp)
   10471:	ff 8d ff 
   10474:	c6 85 54 f0 ff ff 8d 	movb   $0x8d,-0xfac(%rbp)
   1047b:	c7 85 55 f0 ff ff 00 	movl   $0xf7f70000,-0xfab(%rbp)
   10482:	00 f7 f7 
   10485:	c6 85 59 f0 ff ff 00 	movb   $0x0,-0xfa7(%rbp)
   1048c:	c7 85 5a f0 ff ff fc 	movl   $0xfffcfffc,-0xfa6(%rbp)
   10493:	ff fc ff 
   10496:	c6 85 5e f0 ff ff fc 	movb   $0xfc,-0xfa2(%rbp)
   1049d:	c7 85 5f f0 ff ff 00 	movl   $0xf7f700,-0xfa1(%rbp)
   104a4:	f7 f7 00 
   104a7:	c6 85 63 f0 ff ff 00 	movb   $0x0,-0xf9d(%rbp)
   104ae:	c7 85 64 f0 ff ff 8d 	movl   $0xff8dff8d,-0xf9c(%rbp)
   104b5:	ff 8d ff 
   104b8:	c6 85 68 f0 ff ff 8d 	movb   $0x8d,-0xf98(%rbp)
   104bf:	c7 85 69 f0 ff ff 00 	movl   $0xf7f70000,-0xf97(%rbp)
   104c6:	00 f7 f7 
   104c9:	c6 85 6d f0 ff ff 00 	movb   $0x0,-0xf93(%rbp)
   104d0:	c7 85 6e f0 ff ff fc 	movl   $0xfffcfffc,-0xf92(%rbp)
   104d7:	ff fc ff 
   104da:	c6 85 72 f0 ff ff fc 	movb   $0xfc,-0xf8e(%rbp)
   104e1:	c7 85 73 f0 ff ff 00 	movl   $0xf7f700,-0xf8d(%rbp)
   104e8:	f7 f7 00 
   104eb:	c6 85 77 f0 ff ff 00 	movb   $0x0,-0xf89(%rbp)
   104f2:	c6 85 35 ee ff ff a6 	movb   $0xa6,-0x11cb(%rbp)
   104f9:	c7 85 88 ee ff ff b6 	movl   $0x9dd656b6,-0x1178(%rbp)
   10500:	56 d6 9d 
   10503:	c6 85 36 ee ff ff 47 	movb   $0x47,-0x11ca(%rbp)
   1050a:	c7 85 00 f0 ff ff 4b 	movl   $0x95a3814b,-0x1000(%rbp)
   10511:	81 a3 95 
   10514:	c7 85 04 f0 ff ff ee 	movl   $0xec3180ee,-0xffc(%rbp)
   1051b:	80 31 ec 
   1051e:	c7 85 08 f0 ff ff 4b 	movl   $0x95a3814b,-0xff8(%rbp)
   10525:	81 a3 95 
   10528:	c7 85 0c f0 ff ff ee 	movl   $0xec3180ee,-0xff4(%rbp)
   1052f:	80 31 ec 
   10532:	c7 85 10 f0 ff ff 4b 	movl   $0x95a3814b,-0xff0(%rbp)
   10539:	81 a3 95 
   1053c:	c7 85 14 f0 ff ff ee 	movl   $0xec3180ee,-0xfec(%rbp)
   10543:	80 31 ec 
   10546:	c7 85 18 f0 ff ff 4b 	movl   $0x95a3814b,-0xfe8(%rbp)
   1054d:	81 a3 95 
   10550:	c7 85 1c f0 ff ff ee 	movl   $0xec3180ee,-0xfe4(%rbp)
   10557:	80 31 ec 
   1055a:	48 c7 85 d0 ee ff ff 	movq   $0x0,-0x1130(%rbp)
   10561:	00 00 00 00 
   10565:	48 8d 05 5c a0 01 00 	lea    0x1a05c(%rip),%rax        # 2a5c8 <g_2684+0x28>
   1056c:	48 89 85 b0 ee ff ff 	mov    %rax,-0x1150(%rbp)
   10573:	48 8d 85 b0 ee ff ff 	lea    -0x1150(%rbp),%rax
   1057a:	48 89 85 d8 ee ff ff 	mov    %rax,-0x1128(%rbp)
   10581:	48 c7 85 e0 ee ff ff 	movq   $0x0,-0x1120(%rbp)
   10588:	00 00 00 00 
   1058c:	66 c7 85 3c ee ff ff 	movw   $0x1,-0x11c4(%rbp)
   10593:	01 00 
   10595:	c7 85 8c ee ff ff ff 	movl   $0xffffffff,-0x1174(%rbp)
   1059c:	ff ff ff 
   1059f:	c7 85 a0 ef ff ff 01 	movl   $0x1017001,-0x1060(%rbp)
   105a6:	70 01 01 
   105a9:	c7 85 a4 ef ff ff 70 	movl   $0x70077070,-0x105c(%rbp)
   105b0:	70 07 70 
   105b3:	c7 85 a8 ef ff ff 70 	movl   $0x70010170,-0x1058(%rbp)
   105ba:	01 01 70 
   105bd:	c7 85 ac ef ff ff 01 	movl   $0x1017001,-0x1054(%rbp)
   105c4:	70 01 01 
   105c7:	c7 85 b0 ef ff ff 70 	movl   $0x70077070,-0x1050(%rbp)
   105ce:	70 07 70 
   105d1:	48 c7 85 e8 ee ff ff 	movq   $0x0,-0x1118(%rbp)
   105d8:	00 00 00 00 
   105dc:	66 c7 85 3e ee ff ff 	movw   $0x1,-0x11c2(%rbp)
   105e3:	01 00 
   105e5:	c7 85 20 f0 ff ff ff 	movl   $0xb401c8ff,-0xfe0(%rbp)
   105ec:	c8 01 b4 
   105ef:	66 c7 85 24 f0 ff ff 	movw   $0xc801,-0xfdc(%rbp)
   105f6:	01 c8 
   105f8:	c6 85 26 f0 ff ff ff 	movb   $0xff,-0xfda(%rbp)
   105ff:	c7 85 27 f0 ff ff c8 	movl   $0x1e84bc8,-0xfd9(%rbp)
   10606:	4b e8 01 
   10609:	66 c7 85 2b f0 ff ff 	movw   $0xc8ff,-0xfd5(%rbp)
   10610:	ff c8 
   10612:	c6 85 2d f0 ff ff 01 	movb   $0x1,-0xfd3(%rbp)
   10619:	c7 85 2e f0 ff ff 00 	movl   $0x4bfc9600,-0xfd2(%rbp)
   10620:	96 fc 4b 
   10623:	66 c7 85 32 f0 ff ff 	movw   $0xfc4b,-0xfce(%rbp)
   1062a:	4b fc 
   1062c:	c6 85 34 f0 ff ff 96 	movb   $0x96,-0xfcc(%rbp)
   10633:	c7 85 35 f0 ff ff 4b 	movl   $0xb4e8f84b,-0xfcb(%rbp)
   1063a:	f8 e8 b4 
   1063d:	66 c7 85 39 f0 ff ff 	movw   $0x1f8,-0xfc7(%rbp)
   10644:	f8 01 
   10646:	c6 85 3b f0 ff ff 96 	movb   $0x96,-0xfc5(%rbp)
   1064d:	c7 85 3c f0 ff ff 01 	movl   $0x1014b01,-0xfc4(%rbp)
   10654:	4b 01 01 
   10657:	66 c7 85 40 f0 ff ff 	movw   $0x196,-0xfc0(%rbp)
   1065e:	96 01 
   10660:	c6 85 42 f0 ff ff 01 	movb   $0x1,-0xfbe(%rbp)
   10667:	48 c7 85 b8 ee ff ff 	movq   $0x0,-0x1148(%rbp)
   1066e:	00 00 00 00 
   10672:	48 8d 85 b8 ee ff ff 	lea    -0x1148(%rbp),%rax
   10679:	48 89 85 80 f0 ff ff 	mov    %rax,-0xf80(%rbp)
   10680:	48 8d 85 b8 ee ff ff 	lea    -0x1148(%rbp),%rax
   10687:	48 89 85 88 f0 ff ff 	mov    %rax,-0xf78(%rbp)
   1068e:	48 8d 85 b8 ee ff ff 	lea    -0x1148(%rbp),%rax
   10695:	48 89 85 90 f0 ff ff 	mov    %rax,-0xf70(%rbp)
   1069c:	48 8d 85 b8 ee ff ff 	lea    -0x1148(%rbp),%rax
   106a3:	48 89 85 98 f0 ff ff 	mov    %rax,-0xf68(%rbp)
   106aa:	48 8d 85 b8 ee ff ff 	lea    -0x1148(%rbp),%rax
   106b1:	48 89 85 a0 f0 ff ff 	mov    %rax,-0xf60(%rbp)
   106b8:	48 8d 85 b8 ee ff ff 	lea    -0x1148(%rbp),%rax
   106bf:	48 89 85 a8 f0 ff ff 	mov    %rax,-0xf58(%rbp)
   106c6:	48 c7 85 f0 ee ff ff 	movq   $0x0,-0x1110(%rbp)
   106cd:	00 00 00 00 
   106d1:	48 8d 05 18 8f 01 00 	lea    0x18f18(%rip),%rax        # 295f0 <g_1656>
   106d8:	48 89 85 f8 ee ff ff 	mov    %rax,-0x1108(%rbp)
   106df:	66 c7 85 40 ee ff ff 	movw   $0x2919,-0x11c0(%rbp)
   106e6:	19 29 
   106e8:	c7 85 90 ee ff ff 21 	movl   $0xea8fd821,-0x1170(%rbp)
   106ef:	d8 8f ea 
   106f2:	c7 85 94 ee ff ff 01 	movl   $0x1,-0x116c(%rbp)
   106f9:	00 00 00 
   106fc:	48 8d 05 25 9f 01 00 	lea    0x19f25(%rip),%rax        # 2a628 <g_2705>
   10703:	48 89 85 00 ef ff ff 	mov    %rax,-0x1100(%rbp)
   1070a:	c7 85 54 ee ff ff 00 	movl   $0x0,-0x11ac(%rbp)
   10711:	00 00 00 
   10714:	eb 25                	jmp    1073b <func_4+0x3f3>
   10716:	8b 85 54 ee ff ff    	mov    -0x11ac(%rbp),%eax
   1071c:	48 98                	cltq   
   1071e:	48 8d 95 00 f4 ff ff 	lea    -0xc00(%rbp),%rdx
   10725:	48 81 c2 e0 00 00 00 	add    $0xe0,%rdx
   1072c:	48 89 94 c5 e0 ef ff 	mov    %rdx,-0x1020(%rbp,%rax,8)
   10733:	ff 
   10734:	83 85 54 ee ff ff 01 	addl   $0x1,-0x11ac(%rbp)
   1073b:	83 bd 54 ee ff ff 03 	cmpl   $0x3,-0x11ac(%rbp)
   10742:	7e d2                	jle    10716 <func_4+0x3ce>
   10744:	c7 85 54 ee ff ff 00 	movl   $0x0,-0x11ac(%rbp)
   1074b:	00 00 00 
   1074e:	eb 1a                	jmp    1076a <func_4+0x422>
   10750:	8b 85 54 ee ff ff    	mov    -0x11ac(%rbp),%eax
   10756:	48 98                	cltq   
   10758:	c7 84 85 80 ef ff ff 	movl   $0x0,-0x1080(%rbp,%rax,4)
   1075f:	00 00 00 00 
   10763:	83 85 54 ee ff ff 01 	addl   $0x1,-0x11ac(%rbp)
   1076a:	83 bd 54 ee ff ff 04 	cmpl   $0x4,-0x11ac(%rbp)
   10771:	7e dd                	jle    10750 <func_4+0x408>
   10773:	c7 85 54 ee ff ff 00 	movl   $0x0,-0x11ac(%rbp)
   1077a:	00 00 00 
   1077d:	eb 54                	jmp    107d3 <func_4+0x48b>
   1077f:	c7 85 58 ee ff ff 00 	movl   $0x0,-0x11a8(%rbp)
   10786:	00 00 00 
   10789:	eb 38                	jmp    107c3 <func_4+0x47b>
   1078b:	8b 85 58 ee ff ff    	mov    -0x11a8(%rbp),%eax
   10791:	48 63 c8             	movslq %eax,%rcx
   10794:	8b 85 54 ee ff ff    	mov    -0x11ac(%rbp),%eax
   1079a:	48 63 d0             	movslq %eax,%rdx
   1079d:	48 89 d0             	mov    %rdx,%rax
   107a0:	48 01 c0             	add    %rax,%rax
   107a3:	48 01 d0             	add    %rdx,%rax
   107a6:	48 01 c0             	add    %rax,%rax
   107a9:	48 8d 5d d0          	lea    -0x30(%rbp),%rbx
   107ad:	48 01 d8             	add    %rbx,%rax
   107b0:	48 01 c8             	add    %rcx,%rax
   107b3:	48 2d 70 10 00 00    	sub    $0x1070,%rax
   107b9:	c6 00 07             	movb   $0x7,(%rax)
   107bc:	83 85 58 ee ff ff 01 	addl   $0x1,-0x11a8(%rbp)
   107c3:	83 bd 58 ee ff ff 05 	cmpl   $0x5,-0x11a8(%rbp)
   107ca:	7e bf                	jle    1078b <func_4+0x443>
   107cc:	83 85 54 ee ff ff 01 	addl   $0x1,-0x11ac(%rbp)
   107d3:	83 bd 54 ee ff ff 02 	cmpl   $0x2,-0x11ac(%rbp)
   107da:	7e a3                	jle    1077f <func_4+0x437>
   107dc:	8b 85 74 ee ff ff    	mov    -0x118c(%rbp),%eax
   107e2:	48 63 d8             	movslq %eax,%rbx
   107e5:	48 8b 05 bc 87 01 00 	mov    0x187bc(%rip),%rax        # 28fa8 <g_784>
   107ec:	48 8b 00             	mov    (%rax),%rax
   107ef:	8b 00                	mov    (%rax),%eax
   107f1:	41 89 c7             	mov    %eax,%r15d
   107f4:	48 8b 85 20 ee ff ff 	mov    -0x11e0(%rbp),%rax
   107fb:	41 89 c6             	mov    %eax,%r14d
   107fe:	44 0f b7 a5 2c ee ff 	movzwl -0x11d4(%rbp),%r12d
   10805:	ff 
   10806:	0f b6 85 1c ee ff ff 	movzbl -0x11e4(%rbp),%eax
   1080d:	48 0f be c0          	movsbq %al,%rax
   10811:	48 89 85 c0 ee ff ff 	mov    %rax,-0x1140(%rbp)
   10818:	48 8b 85 c0 ee ff ff 	mov    -0x1140(%rbp),%rax
   1081f:	98                   	cwtl   
   10820:	be 02 00 00 00       	mov    $0x2,%esi
   10825:	89 c7                	mov    %eax,%edi
   10827:	e8 66 cc ff ff       	callq  d492 <safe_lshift_func_int16_t_s_s>
   1082c:	48 8b 85 f0 ef ff ff 	mov    -0x1010(%rbp),%rax
   10833:	48 8d 15 ee 99 01 00 	lea    0x199ee(%rip),%rdx        # 2a228 <g_2537>
   1083a:	48 39 d0             	cmp    %rdx,%rax
   1083d:	4c 8b ad c0 ee ff ff 	mov    -0x1140(%rbp),%r13
   10844:	0f bf 85 28 ee ff ff 	movswl -0x11d8(%rbp),%eax
   1084b:	be 01 00 00 00       	mov    $0x1,%esi
   10850:	89 c7                	mov    %eax,%edi
   10852:	e8 ae cd ff ff       	callq  d605 <safe_sub_func_int32_t_s_s>
   10857:	48 8b 15 02 a3 01 00 	mov    0x1a302(%rip),%rdx        # 2ab60 <g_3085>
   1085e:	0f b6 12             	movzbl (%rdx),%edx
   10861:	0f be d2             	movsbl %dl,%edx
   10864:	39 d0                	cmp    %edx,%eax
   10866:	0f 94 c0             	sete   %al
   10869:	0f b6 c0             	movzbl %al,%eax
   1086c:	4c 89 ee             	mov    %r13,%rsi
   1086f:	48 89 c7             	mov    %rax,%rdi
   10872:	e8 31 d0 ff ff       	callq  d8a8 <safe_sub_func_int64_t_s_s>
   10877:	48 8b 05 0a 87 01 00 	mov    0x1870a(%rip),%rax        # 28f88 <g_700>
   1087e:	48 8b 00             	mov    (%rax),%rax
   10881:	48 8b 00             	mov    (%rax),%rax
   10884:	c7 00 00 00 00 00    	movl   $0x0,(%rax)
   1088a:	0f b7 95 2c ee ff ff 	movzwl -0x11d4(%rbp),%edx
   10891:	48 8b 05 e0 a2 01 00 	mov    0x1a2e0(%rip),%rax        # 2ab78 <g_3175>
   10898:	48 8b 00             	mov    (%rax),%rax
   1089b:	48 21 d0             	and    %rdx,%rax
   1089e:	48 0b 85 20 ee ff ff 	or     -0x11e0(%rbp),%rax
   108a5:	ba f6 ff ff ff       	mov    $0xfffffff6,%edx
   108aa:	48 39 d0             	cmp    %rdx,%rax
   108ad:	75 07                	jne    108b6 <func_4+0x56e>
   108af:	b8 01 00 00 00       	mov    $0x1,%eax
   108b4:	eb 05                	jmp    108bb <func_4+0x573>
   108b6:	b8 00 00 00 00       	mov    $0x0,%eax
   108bb:	44 89 e6             	mov    %r12d,%esi
   108be:	89 c7                	mov    %eax,%edi
   108c0:	e8 f9 d4 ff ff       	callq  ddbe <safe_lshift_func_uint16_t_u_s>
   108c5:	66 85 c0             	test   %ax,%ax
   108c8:	0f 95 c0             	setne  %al
   108cb:	0f b6 c0             	movzbl %al,%eax
   108ce:	44 89 f6             	mov    %r14d,%esi
   108d1:	89 c7                	mov    %eax,%edi
   108d3:	e8 25 d6 ff ff       	callq  defd <safe_mod_func_uint32_t_u_u>
   108d8:	41 39 c7             	cmp    %eax,%r15d
   108db:	0f 92 c0             	setb   %al
   108de:	0f b6 c0             	movzbl %al,%eax
   108e1:	48 89 de             	mov    %rbx,%rsi
   108e4:	48 89 c7             	mov    %rax,%rdi
   108e7:	e8 c8 d0 ff ff       	callq  d9b4 <safe_mod_func_int64_t_s_s>
   108ec:	48 89 c2             	mov    %rax,%rdx
   108ef:	48 8b 05 5a 7d 01 00 	mov    0x17d5a(%rip),%rax        # 28650 <g_168>
   108f6:	89 10                	mov    %edx,(%rax)
   108f8:	8b 00                	mov    (%rax),%eax
   108fa:	85 c0                	test   %eax,%eax
   108fc:	74 0d                	je     1090b <func_4+0x5c3>
   108fe:	8b 85 48 ee ff ff    	mov    -0x11b8(%rbp),%eax
   10904:	48 98                	cltq   
   10906:	e9 45 0a 00 00       	jmpq   11350 <func_4+0x1008>
   1090b:	c7 85 c0 ef ff ff 00 	movl   $0x0,-0x1040(%rbp)
   10912:	00 00 00 
   10915:	c7 85 c4 ef ff ff 00 	movl   $0x0,-0x103c(%rbp)
   1091c:	00 00 00 
   1091f:	c7 85 c8 ef ff ff 00 	movl   $0x0,-0x1038(%rbp)
   10926:	00 00 00 
   10929:	c7 85 cc ef ff ff 00 	movl   $0x0,-0x1034(%rbp)
   10930:	00 00 00 
   10933:	c7 85 d0 ef ff ff 00 	movl   $0x0,-0x1030(%rbp)
   1093a:	00 00 00 
   1093d:	c7 85 d4 ef ff ff 00 	movl   $0x0,-0x102c(%rbp)
   10944:	00 00 00 
   10947:	c6 85 37 ee ff ff e1 	movb   $0xe1,-0x11c9(%rbp)
   1094e:	48 8d 05 d3 9c 01 00 	lea    0x19cd3(%rip),%rax        # 2a628 <g_2705>
   10955:	48 89 85 08 ef ff ff 	mov    %rax,-0x10f8(%rbp)
   1095c:	66 c7 85 42 ee ff ff 	movw   $0xfffa,-0x11be(%rbp)
   10963:	fa ff 
   10965:	48 8d 85 b0 f0 ff ff 	lea    -0xf50(%rbp),%rax
   1096c:	48 8d 15 cd 5c 01 00 	lea    0x15ccd(%rip),%rdx        # 26640 <g_5192+0xc00>
   10973:	b9 24 00 00 00       	mov    $0x24,%ecx
   10978:	48 89 c7             	mov    %rax,%rdi
   1097b:	48 89 d6             	mov    %rdx,%rsi
   1097e:	f3 48 a5             	rep movsq %ds:(%rsi),%es:(%rdi)
   10981:	48 8d 05 9a 38 01 00 	lea    0x1389a(%rip),%rax        # 24222 <g_117+0x42>
   10988:	48 89 85 10 ef ff ff 	mov    %rax,-0x10f0(%rbp)
   1098f:	48 c7 85 18 ef ff ff 	movq   $0x0,-0x10e8(%rbp)
   10996:	00 00 00 00 
   1099a:	48 c7 85 20 ef ff ff 	movq   $0x0,-0x10e0(%rbp)
   109a1:	00 00 00 00 
   109a5:	c7 85 98 ee ff ff fb 	movl   $0xfffffffb,-0x1168(%rbp)
   109ac:	ff ff ff 
   109af:	c7 05 bf 3a 01 00 00 	movl   $0x0,0x13abf(%rip)        # 24478 <g_471>
   109b6:	00 00 00 
   109b9:	e9 54 02 00 00       	jmpq   10c12 <func_4+0x8ca>
   109be:	c6 85 39 ee ff ff c7 	movb   $0xc7,-0x11c7(%rbp)
   109c5:	48 8d 05 d4 3b 01 00 	lea    0x13bd4(%rip),%rax        # 245a0 <g_858>
   109cc:	48 89 85 38 ef ff ff 	mov    %rax,-0x10c8(%rbp)
   109d3:	48 c7 85 40 ef ff ff 	movq   $0x0,-0x10c0(%rbp)
   109da:	00 00 00 00 
   109de:	48 8d 85 d0 f6 ff ff 	lea    -0x930(%rbp),%rax
   109e5:	48 8d 15 74 5d 01 00 	lea    0x15d74(%rip),%rdx        # 26760 <g_5192+0xd20>
   109ec:	b9 69 00 00 00       	mov    $0x69,%ecx
   109f1:	48 89 c7             	mov    %rax,%rdi
   109f4:	48 89 d6             	mov    %rdx,%rsi
   109f7:	f3 48 a5             	rep movsq %ds:(%rsi),%es:(%rdi)
   109fa:	48 8d 85 d0 f6 ff ff 	lea    -0x930(%rbp),%rax
   10a01:	48 05 38 01 00 00    	add    $0x138,%rax
   10a07:	48 89 85 48 ef ff ff 	mov    %rax,-0x10b8(%rbp)
   10a0e:	48 8d 05 8b 9b 01 00 	lea    0x19b8b(%rip),%rax        # 2a5a0 <g_2684>
   10a15:	48 89 85 50 ef ff ff 	mov    %rax,-0x10b0(%rbp)
   10a1c:	48 8d 05 05 9c 01 00 	lea    0x19c05(%rip),%rax        # 2a628 <g_2705>
   10a23:	48 89 85 58 ef ff ff 	mov    %rax,-0x10a8(%rbp)
   10a2a:	0f b6 85 1c ee ff ff 	movzbl -0x11e4(%rbp),%eax
   10a31:	48 0f be d0          	movsbq %al,%rdx
   10a35:	8b 85 48 ee ff ff    	mov    -0x11b8(%rbp),%eax
   10a3b:	48 63 c8             	movslq %eax,%rcx
   10a3e:	0f b6 85 39 ee ff ff 	movzbl -0x11c7(%rbp),%eax
   10a45:	48 8b 35 1c 86 01 00 	mov    0x1861c(%rip),%rsi        # 29068 <g_1010>
   10a4c:	48 8b 36             	mov    (%rsi),%rsi
   10a4f:	48 8b 1e             	mov    (%rsi),%rbx
   10a52:	48 89 ce             	mov    %rcx,%rsi
   10a55:	48 89 c7             	mov    %rax,%rdi
   10a58:	e8 d9 6d 00 00       	callq  17836 <func_55>
   10a5d:	48 89 03             	mov    %rax,(%rbx)
   10a60:	8b 85 d0 ef ff ff    	mov    -0x1030(%rbp),%eax
   10a66:	85 c0                	test   %eax,%eax
   10a68:	0f 85 85 01 00 00    	jne    10bf3 <func_4+0x8ab>
   10a6e:	0f b7 85 28 ee ff ff 	movzwl -0x11d8(%rbp),%eax
   10a75:	0f b7 d8             	movzwl %ax,%ebx
   10a78:	44 0f b7 a5 2c ee ff 	movzwl -0x11d4(%rbp),%r12d
   10a7f:	ff 
   10a80:	48 8b 05 99 84 01 00 	mov    0x18499(%rip),%rax        # 28f20 <g_509>
   10a87:	0f b7 00             	movzwl (%rax),%eax
   10a8a:	44 0f b7 e8          	movzwl %ax,%r13d
   10a8e:	44 0f b6 b5 39 ee ff 	movzbl -0x11c7(%rbp),%r14d
   10a95:	ff 
   10a96:	8b 85 d0 ef ff ff    	mov    -0x1030(%rbp),%eax
   10a9c:	89 c2                	mov    %eax,%edx
   10a9e:	48 8b 85 38 ef ff ff 	mov    -0x10c8(%rbp),%rax
   10aa5:	66 89 10             	mov    %dx,(%rax)
   10aa8:	48 8b 85 38 ef ff ff 	mov    -0x10c8(%rbp),%rax
   10aaf:	0f b7 00             	movzwl (%rax),%eax
   10ab2:	66 85 c0             	test   %ax,%ax
   10ab5:	75 74                	jne    10b2b <func_4+0x7e3>
   10ab7:	0f b7 85 28 ee ff ff 	movzwl -0x11d8(%rbp),%eax
   10abe:	44 0f b6 f8          	movzbl %al,%r15d
   10ac2:	0f b6 85 1c ee ff ff 	movzbl -0x11e4(%rbp),%eax
   10ac9:	0f be c0             	movsbl %al,%eax
   10acc:	be a3 66 16 28       	mov    $0x281666a3,%esi
   10ad1:	89 c7                	mov    %eax,%edi
   10ad3:	e8 de ca ff ff       	callq  d5b6 <safe_add_func_int32_t_s_s>
   10ad8:	44 89 fe             	mov    %r15d,%esi
   10adb:	bf d1 00 00 00       	mov    $0xd1,%edi
   10ae0:	e8 93 d0 ff ff       	callq  db78 <safe_sub_func_uint8_t_u_u>
   10ae5:	48 8b 85 48 ef ff ff 	mov    -0x10b8(%rbp),%rax
   10aec:	48 8d 15 cd 9a 01 00 	lea    0x19acd(%rip),%rdx        # 2a5c0 <g_2684+0x20>
   10af3:	48 89 10             	mov    %rdx,(%rax)
   10af6:	48 8b 85 48 ef ff ff 	mov    -0x10b8(%rbp),%rax
   10afd:	48 8b 00             	mov    (%rax),%rax
   10b00:	48 39 85 50 ef ff ff 	cmp    %rax,-0x10b0(%rbp)
   10b07:	0f 94 c1             	sete   %cl
   10b0a:	48 8b 05 77 84 01 00 	mov    0x18477(%rip),%rax        # 28f88 <g_700>
   10b11:	48 8b 00             	mov    (%rax),%rax
   10b14:	48 8b 00             	mov    (%rax),%rax
   10b17:	8b 10                	mov    (%rax),%edx
   10b19:	0f b7 85 2c ee ff ff 	movzwl -0x11d4(%rbp),%eax
   10b20:	39 c2                	cmp    %eax,%edx
   10b22:	0f 9f c0             	setg   %al
   10b25:	31 c8                	xor    %ecx,%eax
   10b27:	84 c0                	test   %al,%al
   10b29:	74 07                	je     10b32 <func_4+0x7ea>
   10b2b:	b8 01 00 00 00       	mov    $0x1,%eax
   10b30:	eb 05                	jmp    10b37 <func_4+0x7ef>
   10b32:	b8 00 00 00 00       	mov    $0x0,%eax
   10b37:	48 98                	cltq   
   10b39:	48 be 8d 59 8f b7 f1 	movabs $0x446a4bf1b78f598d,%rsi
   10b40:	4b 6a 44 
   10b43:	48 89 c7             	mov    %rax,%rdi
   10b46:	e8 e3 d4 ff ff       	callq  e02e <safe_add_func_uint64_t_u_u>
   10b4b:	48 0f bf 95 28 ee ff 	movswq -0x11d8(%rbp),%rdx
   10b52:	ff 
   10b53:	48 39 d0             	cmp    %rdx,%rax
   10b56:	0f 94 c0             	sete   %al
   10b59:	0f b6 c0             	movzbl %al,%eax
   10b5c:	4c 89 f6             	mov    %r14,%rsi
   10b5f:	48 89 c7             	mov    %rax,%rdi
   10b62:	e8 c7 d4 ff ff       	callq  e02e <safe_add_func_uint64_t_u_u>
   10b67:	66 89 85 3a ee ff ff 	mov    %ax,-0x11c6(%rbp)
   10b6e:	0f b6 85 1c ee ff ff 	movzbl -0x11e4(%rbp),%eax
   10b75:	48 0f be c0          	movsbq %al,%rax
   10b79:	48 be b7 6f 92 5c a8 	movabs $0x4de0faa85c926fb7,%rsi
   10b80:	fa e0 4d 
   10b83:	48 89 c7             	mov    %rax,%rdi
   10b86:	e8 29 ce ff ff       	callq  d9b4 <safe_mod_func_int64_t_s_s>
   10b8b:	0f b7 c0             	movzwl %ax,%eax
   10b8e:	44 89 ee             	mov    %r13d,%esi
   10b91:	89 c7                	mov    %eax,%edi
   10b93:	e8 6e d2 ff ff       	callq  de06 <safe_lshift_func_uint16_t_u_u>
   10b98:	0f b7 c0             	movzwl %ax,%eax
   10b9b:	39 85 74 ee ff ff    	cmp    %eax,-0x118c(%rbp)
   10ba1:	0f 9e c0             	setle  %al
   10ba4:	0f b6 c0             	movzbl %al,%eax
   10ba7:	89 c7                	mov    %eax,%edi
   10ba9:	e8 e8 c9 ff ff       	callq  d596 <safe_unary_minus_func_int32_t_s>
   10bae:	44 89 e6             	mov    %r12d,%esi
   10bb1:	89 c7                	mov    %eax,%edi
   10bb3:	e8 45 d3 ff ff       	callq  defd <safe_mod_func_uint32_t_u_u>
   10bb8:	89 c2                	mov    %eax,%edx
   10bba:	48 8b 05 a7 84 01 00 	mov    0x184a7(%rip),%rax        # 29068 <g_1010>
   10bc1:	48 8b 00             	mov    (%rax),%rax
   10bc4:	48 8b 00             	mov    (%rax),%rax
   10bc7:	48 8b 00             	mov    (%rax),%rax
   10bca:	8b 00                	mov    (%rax),%eax
   10bcc:	21 d0                	and    %edx,%eax
   10bce:	0f b7 c0             	movzwl %ax,%eax
   10bd1:	89 de                	mov    %ebx,%esi
   10bd3:	89 c7                	mov    %eax,%edi
   10bd5:	e8 b4 d1 ff ff       	callq  dd8e <safe_div_func_uint16_t_u_u>
   10bda:	48 8b 15 0f 8a 01 00 	mov    0x18a0f(%rip),%rdx        # 295f0 <g_1656>
   10be1:	8b 0a                	mov    (%rdx),%ecx
   10be3:	0f b7 d0             	movzwl %ax,%edx
   10be6:	48 8b 05 03 8a 01 00 	mov    0x18a03(%rip),%rax        # 295f0 <g_1656>
   10bed:	09 ca                	or     %ecx,%edx
   10bef:	89 10                	mov    %edx,(%rax)
   10bf1:	eb 01                	jmp    10bf4 <func_4+0x8ac>
   10bf3:	90                   	nop
   10bf4:	8b 05 7e 38 01 00    	mov    0x1387e(%rip),%eax        # 24478 <g_471>
   10bfa:	0f b6 c0             	movzbl %al,%eax
   10bfd:	be 06 00 00 00       	mov    $0x6,%esi
   10c02:	89 c7                	mov    %eax,%edi
   10c04:	e8 51 cf ff ff       	callq  db5a <safe_add_func_uint8_t_u_u>
   10c09:	0f b6 c0             	movzbl %al,%eax
   10c0c:	89 05 66 38 01 00    	mov    %eax,0x13866(%rip)        # 24478 <g_471>
   10c12:	8b 05 60 38 01 00    	mov    0x13860(%rip),%eax        # 24478 <g_471>
   10c18:	83 f8 15             	cmp    $0x15,%eax
   10c1b:	0f 86 9d fd ff ff    	jbe    109be <func_4+0x676>
   10c21:	48 8b 05 60 83 01 00 	mov    0x18360(%rip),%rax        # 28f88 <g_700>
   10c28:	48 8b 00             	mov    (%rax),%rax
   10c2b:	48 8b 00             	mov    (%rax),%rax
   10c2e:	8b 08                	mov    (%rax),%ecx
   10c30:	0f bf 95 28 ee ff ff 	movswl -0x11d8(%rbp),%edx
   10c37:	48 8b 05 4a 83 01 00 	mov    0x1834a(%rip),%rax        # 28f88 <g_700>
   10c3e:	48 8b 00             	mov    (%rax),%rax
   10c41:	48 8b 00             	mov    (%rax),%rax
   10c44:	21 ca                	and    %ecx,%edx
   10c46:	89 10                	mov    %edx,(%rax)
   10c48:	48 8b 85 20 ee ff ff 	mov    -0x11e0(%rbp),%rax
   10c4f:	41 89 c7             	mov    %eax,%r15d
   10c52:	0f b7 95 42 ee ff ff 	movzwl -0x11be(%rbp),%edx
   10c59:	0f b6 85 1c ee ff ff 	movzbl -0x11e4(%rbp),%eax
   10c60:	0f be c0             	movsbl %al,%eax
   10c63:	39 c2                	cmp    %eax,%edx
   10c65:	0f 85 9a 01 00 00    	jne    10e05 <func_4+0xabd>
   10c6b:	48 8b 05 6e 89 01 00 	mov    0x1896e(%rip),%rax        # 295e0 <g_1532>
   10c72:	0f b7 00             	movzwl (%rax),%eax
   10c75:	44 0f b7 e8          	movzwl %ax,%r13d
   10c79:	44 0f b7 b5 42 ee ff 	movzwl -0x11be(%rbp),%r14d
   10c80:	ff 
   10c81:	48 8b 05 d8 9e 01 00 	mov    0x19ed8(%rip),%rax        # 2ab60 <g_3085>
   10c88:	0f b6 00             	movzbl (%rax),%eax
   10c8b:	0f be d8             	movsbl %al,%ebx
   10c8e:	8b 85 d0 ef ff ff    	mov    -0x1030(%rbp),%eax
   10c94:	44 0f b7 e0          	movzwl %ax,%r12d
   10c98:	48 8b 05 e1 90 01 00 	mov    0x190e1(%rip),%rax        # 29d80 <g_1946>
   10c9f:	48 8b 00             	mov    (%rax),%rax
   10ca2:	48 8b 00             	mov    (%rax),%rax
   10ca5:	0f b7 00             	movzwl (%rax),%eax
   10ca8:	66 85 c0             	test   %ax,%ax
   10cab:	74 50                	je     10cfd <func_4+0x9b5>
   10cad:	48 8b 05 6c 95 01 00 	mov    0x1956c(%rip),%rax        # 2a220 <g_2430>
   10cb4:	48 8b 95 70 f1 ff ff 	mov    -0xe90(%rbp),%rdx
   10cbb:	48 89 10             	mov    %rdx,(%rax)
   10cbe:	48 8b 10             	mov    (%rax),%rdx
   10cc1:	48 8b 85 b8 fd ff ff 	mov    -0x248(%rbp),%rax
   10cc8:	48 39 c2             	cmp    %rax,%rdx
   10ccb:	0f 94 c0             	sete   %al
   10cce:	0f b6 d0             	movzbl %al,%edx
   10cd1:	48 8b 85 10 ef ff ff 	mov    -0x10f0(%rbp),%rax
   10cd8:	66 89 10             	mov    %dx,(%rax)
   10cdb:	48 8b 85 10 ef ff ff 	mov    -0x10f0(%rbp),%rax
   10ce2:	0f b7 00             	movzwl (%rax),%eax
   10ce5:	98                   	cwtl   
   10ce6:	89 05 ac 45 01 00    	mov    %eax,0x145ac(%rip)        # 25298 <g_3712>
   10cec:	8b 05 a6 45 01 00    	mov    0x145a6(%rip),%eax        # 25298 <g_3712>
   10cf2:	85 c0                	test   %eax,%eax
   10cf4:	74 07                	je     10cfd <func_4+0x9b5>
   10cf6:	b8 01 00 00 00       	mov    $0x1,%eax
   10cfb:	eb 05                	jmp    10d02 <func_4+0x9ba>
   10cfd:	b8 00 00 00 00       	mov    $0x0,%eax
   10d02:	3b 85 98 ee ff ff    	cmp    -0x1168(%rbp),%eax
   10d08:	0f 95 c0             	setne  %al
   10d0b:	0f b6 c0             	movzbl %al,%eax
   10d0e:	89 c7                	mov    %eax,%edi
   10d10:	e8 91 d1 ff ff       	callq  dea6 <safe_unary_minus_func_uint32_t_u>
   10d15:	0f b7 85 2c ee ff ff 	movzwl -0x11d4(%rbp),%eax
   10d1c:	66 23 85 42 ee ff ff 	and    -0x11be(%rbp),%ax
   10d23:	83 c8 19             	or     $0x19,%eax
   10d26:	0f b7 c0             	movzwl %ax,%eax
   10d29:	44 89 e6             	mov    %r12d,%esi
   10d2c:	89 c7                	mov    %eax,%edi
   10d2e:	e8 cc cf ff ff       	callq  dcff <safe_add_func_uint16_t_u_u>
   10d33:	0f b6 c0             	movzbl %al,%eax
   10d36:	be ff 00 00 00       	mov    $0xff,%esi
   10d3b:	89 c7                	mov    %eax,%edi
   10d3d:	e8 51 ce ff ff       	callq  db93 <safe_mul_func_uint8_t_u_u>
   10d42:	66 83 bd 28 ee ff ff 	cmpw   $0x0,-0x11d8(%rbp)
   10d49:	00 
   10d4a:	74 07                	je     10d53 <func_4+0xa0b>
   10d4c:	b8 01 00 00 00       	mov    $0x1,%eax
   10d51:	eb 05                	jmp    10d58 <func_4+0xa10>
   10d53:	b8 00 00 00 00       	mov    $0x0,%eax
   10d58:	be c7 6c 4f 81       	mov    $0x814f6cc7,%esi
   10d5d:	89 c7                	mov    %eax,%edi
   10d5f:	e8 9b c9 ff ff       	callq  d6ff <safe_div_func_int32_t_s_s>
   10d64:	89 c2                	mov    %eax,%edx
   10d66:	48 8b 05 ab 81 01 00 	mov    0x181ab(%rip),%rax        # 28f18 <g_352>
   10d6d:	48 8b 00             	mov    (%rax),%rax
   10d70:	48 8b 00             	mov    (%rax),%rax
   10d73:	0f b6 00             	movzbl (%rax),%eax
   10d76:	0f b6 c0             	movzbl %al,%eax
   10d79:	21 d0                	and    %edx,%eax
   10d7b:	0f bf d0             	movswl %ax,%edx
   10d7e:	0f bf 85 3a ee ff ff 	movswl -0x11c6(%rbp),%eax
   10d85:	89 d6                	mov    %edx,%esi
   10d87:	89 c7                	mov    %eax,%edi
   10d89:	e8 c7 c6 ff ff       	callq  d455 <safe_div_func_int16_t_s_s>
   10d8e:	48 0f bf c0          	movswq %ax,%rax
   10d92:	48 39 85 20 ee ff ff 	cmp    %rax,-0x11e0(%rbp)
   10d99:	0f 97 c0             	seta   %al
   10d9c:	0f b6 d0             	movzbl %al,%edx
   10d9f:	48 8b 05 ca 9d 01 00 	mov    0x19dca(%rip),%rax        # 2ab70 <g_3083>
   10da6:	48 8b 00             	mov    (%rax),%rax
   10da9:	48 8b 00             	mov    (%rax),%rax
   10dac:	0f b6 00             	movzbl (%rax),%eax
   10daf:	0f be c0             	movsbl %al,%eax
   10db2:	31 d0                	xor    %edx,%eax
   10db4:	89 85 48 ee ff ff    	mov    %eax,-0x11b8(%rbp)
   10dba:	8b 85 48 ee ff ff    	mov    -0x11b8(%rbp),%eax
   10dc0:	0f be c0             	movsbl %al,%eax
   10dc3:	89 de                	mov    %ebx,%esi
   10dc5:	89 c7                	mov    %eax,%edi
   10dc7:	e8 69 c5 ff ff       	callq  d335 <safe_rshift_func_int8_t_s_s>
   10dcc:	0f be c0             	movsbl %al,%eax
   10dcf:	41 39 c6             	cmp    %eax,%r14d
   10dd2:	0f 9e c0             	setle  %al
   10dd5:	0f b6 c0             	movzbl %al,%eax
   10dd8:	41 39 c5             	cmp    %eax,%r13d
   10ddb:	0f bf 85 28 ee ff ff 	movswl -0x11d8(%rbp),%eax
   10de2:	39 85 48 ee ff ff    	cmp    %eax,-0x11b8(%rbp)
   10de8:	7c 07                	jl     10df1 <func_4+0xaa9>
   10dea:	b8 34 90 00 00       	mov    $0x9034,%eax
   10def:	eb 05                	jmp    10df6 <func_4+0xaae>
   10df1:	b8 35 90 00 00       	mov    $0x9035,%eax
   10df6:	be 01 00 00 00       	mov    $0x1,%esi
   10dfb:	89 c7                	mov    %eax,%edi
   10dfd:	e8 78 d0 ff ff       	callq  de7a <safe_rshift_func_uint16_t_u_u>
   10e02:	66 85 c0             	test   %ax,%ax
   10e05:	48 8b 05 5c 9d 01 00 	mov    0x19d5c(%rip),%rax        # 2ab68 <g_3084>
   10e0c:	48 8b 10             	mov    (%rax),%rdx
   10e0f:	48 8d 85 1c ee ff ff 	lea    -0x11e4(%rbp),%rax
   10e16:	48 39 c2             	cmp    %rax,%rdx
   10e19:	0f 94 c0             	sete   %al
   10e1c:	0f b6 c0             	movzbl %al,%eax
   10e1f:	be 8e 00 00 00       	mov    $0x8e,%esi
   10e24:	89 c7                	mov    %eax,%edi
   10e26:	e8 83 cd ff ff       	callq  dbae <safe_mod_func_uint8_t_u_u>
   10e2b:	0f b6 c0             	movzbl %al,%eax
   10e2e:	44 89 fe             	mov    %r15d,%esi
   10e31:	89 c7                	mov    %eax,%edi
   10e33:	e8 42 d0 ff ff       	callq  de7a <safe_rshift_func_uint16_t_u_u>
   10e38:	0f b7 c0             	movzwl %ax,%eax
   10e3b:	8b 95 4c ee ff ff    	mov    -0x11b4(%rbp),%edx
   10e41:	89 d6                	mov    %edx,%esi
   10e43:	89 c7                	mov    %eax,%edi
   10e45:	e8 db d0 ff ff       	callq  df25 <safe_div_func_uint32_t_u_u>
   10e4a:	83 bd 4c ee ff ff 00 	cmpl   $0x0,-0x11b4(%rbp)
   10e51:	74 14                	je     10e67 <func_4+0xb1f>
   10e53:	c6 85 38 ee ff ff 00 	movb   $0x0,-0x11c8(%rbp)
   10e5a:	48 0f be 85 38 ee ff 	movsbq -0x11c8(%rbp),%rax
   10e61:	ff 
   10e62:	e9 e9 04 00 00       	jmpq   11350 <func_4+0x1008>
   10e67:	48 8b 05 7a 78 01 00 	mov    0x1787a(%rip),%rax        # 286e8 <g_257>
   10e6e:	48 8b 00             	mov    (%rax),%rax
   10e71:	48 8b 08             	mov    (%rax),%rcx
   10e74:	0f b6 85 1c ee ff ff 	movzbl -0x11e4(%rbp),%eax
   10e7b:	48 0f be d0          	movsbq %al,%rdx
   10e7f:	48 8b 05 62 78 01 00 	mov    0x17862(%rip),%rax        # 286e8 <g_257>
   10e86:	48 8b 00             	mov    (%rax),%rax
   10e89:	48 31 ca             	xor    %rcx,%rdx
   10e8c:	48 89 10             	mov    %rdx,(%rax)
   10e8f:	48 8b 00             	mov    (%rax),%rax
   10e92:	89 c2                	mov    %eax,%edx
   10e94:	48 8d 05 2d 36 01 00 	lea    0x1362d(%rip),%rax        # 244c8 <g_703>
   10e9b:	f7 d2                	not    %edx
   10e9d:	89 10                	mov    %edx,(%rax)
   10e9f:	c7 05 2b 33 01 00 00 	movl   $0x0,0x1332b(%rip)        # 241d4 <g_102>
   10ea6:	00 00 00 
   10ea9:	e9 8b 03 00 00       	jmpq   11239 <func_4+0xef1>
   10eae:	c7 85 9c ee ff ff 01 	movl   $0x1,-0x1164(%rbp)
   10eb5:	00 00 00 
   10eb8:	c7 85 a0 ee ff ff ff 	movl   $0xffffffff,-0x1160(%rbp)
   10ebf:	ff ff ff 
   10ec2:	c7 85 a4 ee ff ff 30 	movl   $0x2c582b30,-0x115c(%rbp)
   10ec9:	2b 58 2c 
   10ecc:	c7 85 5c ee ff ff b1 	movl   $0x50e152b1,-0x11a4(%rbp)
   10ed3:	52 e1 50 
   10ed6:	c7 85 a8 ee ff ff 65 	movl   $0x8c30c565,-0x1158(%rbp)
   10edd:	c5 30 8c 
   10ee0:	c7 85 c0 ef ff ff 88 	movl   $0xadcc3a88,-0x1040(%rbp)
   10ee7:	3a cc ad 
   10eea:	c7 85 c4 ef ff ff 88 	movl   $0xadcc3a88,-0x103c(%rbp)
   10ef1:	3a cc ad 
   10ef4:	c7 85 c8 ef ff ff 00 	movl   $0x0,-0x1038(%rbp)
   10efb:	00 00 00 
   10efe:	c7 85 cc ef ff ff 88 	movl   $0xadcc3a88,-0x1034(%rbp)
   10f05:	3a cc ad 
   10f08:	c7 85 d0 ef ff ff 88 	movl   $0xadcc3a88,-0x1030(%rbp)
   10f0f:	3a cc ad 
   10f12:	c7 85 d4 ef ff ff 00 	movl   $0x0,-0x102c(%rbp)
   10f19:	00 00 00 
   10f1c:	c7 85 d8 ef ff ff 88 	movl   $0xadcc3a88,-0x1028(%rbp)
   10f23:	3a cc ad 
   10f26:	c7 85 ac ee ff ff ff 	movl   $0xffffffff,-0x1154(%rbp)
   10f2d:	ff ff ff 
   10f30:	c7 85 44 ee ff ff 00 	movl   $0x0,-0x11bc(%rbp)
   10f37:	00 00 00 
   10f3a:	48 8d 05 bf 42 01 00 	lea    0x142bf(%rip),%rax        # 25200 <g_2797>
   10f41:	48 89 85 28 ef ff ff 	mov    %rax,-0x10d8(%rbp)
   10f48:	c7 85 60 ee ff ff 00 	movl   $0x0,-0x11a0(%rbp)
   10f4f:	00 00 00 
   10f52:	eb 79                	jmp    10fcd <func_4+0xc85>
   10f54:	c7 85 64 ee ff ff 00 	movl   $0x0,-0x119c(%rbp)
   10f5b:	00 00 00 
   10f5e:	eb 5d                	jmp    10fbd <func_4+0xc75>
   10f60:	c7 85 68 ee ff ff 00 	movl   $0x0,-0x1198(%rbp)
   10f67:	00 00 00 
   10f6a:	eb 41                	jmp    10fad <func_4+0xc65>
   10f6c:	8b 85 68 ee ff ff    	mov    -0x1198(%rbp),%eax
   10f72:	48 63 f0             	movslq %eax,%rsi
   10f75:	8b 85 64 ee ff ff    	mov    -0x119c(%rbp),%eax
   10f7b:	48 63 c8             	movslq %eax,%rcx
   10f7e:	8b 85 60 ee ff ff    	mov    -0x11a0(%rbp),%eax
   10f84:	48 63 d0             	movslq %eax,%rdx
   10f87:	48 89 d0             	mov    %rdx,%rax
   10f8a:	48 c1 e0 02          	shl    $0x2,%rax
   10f8e:	48 01 d0             	add    %rdx,%rax
   10f91:	48 01 f0             	add    %rsi,%rax
   10f94:	48 01 c8             	add    %rcx,%rax
   10f97:	48 8d 15 aa 3a 01 00 	lea    0x13aaa(%rip),%rdx        # 24a48 <g_2197>
   10f9e:	48 89 94 c5 b0 f0 ff 	mov    %rdx,-0xf50(%rbp,%rax,8)
   10fa5:	ff 
   10fa6:	83 85 68 ee ff ff 01 	addl   $0x1,-0x1198(%rbp)
   10fad:	83 bd 68 ee ff ff 00 	cmpl   $0x0,-0x1198(%rbp)
   10fb4:	7e b6                	jle    10f6c <func_4+0xc24>
   10fb6:	83 85 64 ee ff ff 01 	addl   $0x1,-0x119c(%rbp)
   10fbd:	83 bd 64 ee ff ff 04 	cmpl   $0x4,-0x119c(%rbp)
   10fc4:	7e 9a                	jle    10f60 <func_4+0xc18>
   10fc6:	83 85 60 ee ff ff 01 	addl   $0x1,-0x11a0(%rbp)
   10fcd:	83 bd 60 ee ff ff 00 	cmpl   $0x0,-0x11a0(%rbp)
   10fd4:	0f 8e 7a ff ff ff    	jle    10f54 <func_4+0xc0c>
   10fda:	8b 85 9c ee ff ff    	mov    -0x1164(%rbp),%eax
   10fe0:	21 85 a0 ee ff ff    	and    %eax,-0x1160(%rbp)
   10fe6:	8b 05 88 34 01 00    	mov    0x13488(%rip),%eax        # 24474 <g_467+0x14>
   10fec:	c1 e0 04             	shl    $0x4,%eax
   10fef:	c1 f8 04             	sar    $0x4,%eax
   10ff2:	0f b7 d8             	movzwl %ax,%ebx
   10ff5:	48 8d 05 dc 30 01 00 	lea    0x130dc(%rip),%rax        # 240d8 <g_67>
   10ffc:	0f b7 00             	movzwl (%rax),%eax
   10fff:	89 c2                	mov    %eax,%edx
   11001:	8b 85 48 ee ff ff    	mov    -0x11b8(%rbp),%eax
   11007:	21 c2                	and    %eax,%edx
   11009:	48 8d 05 c8 30 01 00 	lea    0x130c8(%rip),%rax        # 240d8 <g_67>
   11010:	66 89 10             	mov    %dx,(%rax)
   11013:	0f b7 00             	movzwl (%rax),%eax
   11016:	66 3d 04 5d          	cmp    $0x5d04,%ax
   1101a:	0f 97 c0             	seta   %al
   1101d:	0f b6 d0             	movzbl %al,%edx
   11020:	8b 05 22 3a 01 00    	mov    0x13a22(%rip),%eax        # 24a48 <g_2197>
   11026:	83 e8 01             	sub    $0x1,%eax
   11029:	89 05 19 3a 01 00    	mov    %eax,0x13a19(%rip)        # 24a48 <g_2197>
   1102f:	8b 05 13 3a 01 00    	mov    0x13a13(%rip),%eax        # 24a48 <g_2197>
   11035:	09 d0                	or     %edx,%eax
   11037:	85 c0                	test   %eax,%eax
   11039:	75 15                	jne    11050 <func_4+0xd08>
   1103b:	48 8b 05 8e 7f 01 00 	mov    0x17f8e(%rip),%rax        # 28fd0 <g_909>
   11042:	48 8b 00             	mov    (%rax),%rax
   11045:	48 8b 00             	mov    (%rax),%rax
   11048:	0f b7 00             	movzwl (%rax),%eax
   1104b:	66 85 c0             	test   %ax,%ax
   1104e:	74 07                	je     11057 <func_4+0xd0f>
   11050:	b8 01 00 00 00       	mov    $0x1,%eax
   11055:	eb 05                	jmp    1105c <func_4+0xd14>
   11057:	b8 00 00 00 00       	mov    $0x0,%eax
   1105c:	41 89 c5             	mov    %eax,%r13d
   1105f:	8b 85 44 ee ff ff    	mov    -0x11bc(%rbp),%eax
   11065:	44 0f bf e0          	movswl %ax,%r12d
   11069:	48 83 bd c8 ee ff ff 	cmpq   $0x0,-0x1138(%rbp)
   11070:	00 
   11071:	0f 95 c0             	setne  %al
   11074:	0f b6 d0             	movzbl %al,%edx
   11077:	8b 85 ac ee ff ff    	mov    -0x1154(%rbp),%eax
   1107d:	98                   	cwtl   
   1107e:	89 d6                	mov    %edx,%esi
   11080:	89 c7                	mov    %eax,%edi
   11082:	e8 4c c3 ff ff       	callq  d3d3 <safe_sub_func_int16_t_s_s>
   11087:	98                   	cwtl   
   11088:	89 85 8c ef ff ff    	mov    %eax,-0x1074(%rbp)
   1108e:	48 8b 05 eb 94 01 00 	mov    0x194eb(%rip),%rax        # 2a580 <g_2678>
   11095:	48 8b 00             	mov    (%rax),%rax
   11098:	48 8b 00             	mov    (%rax),%rax
   1109b:	0f b6 10             	movzbl (%rax),%edx
   1109e:	83 c2 01             	add    $0x1,%edx
   110a1:	88 10                	mov    %dl,(%rax)
   110a3:	8b 85 80 ef ff ff    	mov    -0x1080(%rbp),%eax
   110a9:	98                   	cwtl   
   110aa:	44 89 e6             	mov    %r12d,%esi
   110ad:	89 c7                	mov    %eax,%edi
   110af:	e8 41 c3 ff ff       	callq  d3f5 <safe_mul_func_int16_t_s_s>
   110b4:	48 8b 95 28 ef ff ff 	mov    -0x10d8(%rbp),%rdx
   110bb:	48 8b 12             	mov    (%rdx),%rdx
   110be:	48 0f bf c0          	movswq %ax,%rax
   110c2:	48 09 c2             	or     %rax,%rdx
   110c5:	48 8b 85 28 ef ff ff 	mov    -0x10d8(%rbp),%rax
   110cc:	48 89 10             	mov    %rdx,(%rax)
   110cf:	48 8b 85 28 ef ff ff 	mov    -0x10d8(%rbp),%rax
   110d6:	48 8b 10             	mov    (%rax),%rdx
   110d9:	8b 85 48 ee ff ff    	mov    -0x11b8(%rbp),%eax
   110df:	48 98                	cltq   
   110e1:	48 89 d6             	mov    %rdx,%rsi
   110e4:	48 89 c7             	mov    %rax,%rdi
   110e7:	e8 0b c9 ff ff       	callq  d9f7 <safe_div_func_int64_t_s_s>
   110ec:	44 31 e8             	xor    %r13d,%eax
   110ef:	0f b7 c0             	movzwl %ax,%eax
   110f2:	89 de                	mov    %ebx,%esi
   110f4:	89 c7                	mov    %eax,%edi
   110f6:	e8 04 cc ff ff       	callq  dcff <safe_add_func_uint16_t_u_u>
   110fb:	66 85 c0             	test   %ax,%ax
   110fe:	48 8b 05 83 7e 01 00 	mov    0x17e83(%rip),%rax        # 28f88 <g_700>
   11105:	48 8b 00             	mov    (%rax),%rax
   11108:	48 8b 00             	mov    (%rax),%rax
   1110b:	c7 00 00 00 00 00    	movl   $0x0,(%rax)
   11111:	c7 85 48 ee ff ff 00 	movl   $0x0,-0x11b8(%rbp)
   11118:	00 00 00 
   1111b:	e9 fd 00 00 00       	jmpq   1121d <func_4+0xed5>
   11120:	48 8d 85 44 ee ff ff 	lea    -0x11bc(%rbp),%rax
   11127:	48 89 85 30 ef ff ff 	mov    %rax,-0x10d0(%rbp)
   1112e:	c7 85 6c ee ff ff 00 	movl   $0x0,-0x1194(%rbp)
   11135:	00 00 00 
   11138:	eb 51                	jmp    1118b <func_4+0xe43>
   1113a:	c7 85 70 ee ff ff 00 	movl   $0x0,-0x1190(%rbp)
   11141:	00 00 00 
   11144:	eb 35                	jmp    1117b <func_4+0xe33>
   11146:	8b 85 70 ee ff ff    	mov    -0x1190(%rbp),%eax
   1114c:	48 63 c8             	movslq %eax,%rcx
   1114f:	8b 85 6c ee ff ff    	mov    -0x1194(%rbp),%eax
   11155:	48 63 d0             	movslq %eax,%rdx
   11158:	48 89 d0             	mov    %rdx,%rax
   1115b:	48 c1 e0 02          	shl    $0x2,%rax
   1115f:	48 01 d0             	add    %rdx,%rax
   11162:	48 01 c8             	add    %rcx,%rax
   11165:	48 8d 15 14 33 01 00 	lea    0x13314(%rip),%rdx        # 24480 <g_527>
   1116c:	48 89 94 c5 d0 f6 ff 	mov    %rdx,-0x930(%rbp,%rax,8)
   11173:	ff 
   11174:	83 85 70 ee ff ff 01 	addl   $0x1,-0x1190(%rbp)
   1117b:	83 bd 70 ee ff ff 04 	cmpl   $0x4,-0x1190(%rbp)
   11182:	7e c2                	jle    11146 <func_4+0xdfe>
   11184:	83 85 6c ee ff ff 01 	addl   $0x1,-0x1194(%rbp)
   1118b:	83 bd 6c ee ff ff 07 	cmpl   $0x7,-0x1194(%rbp)
   11192:	7e a6                	jle    1113a <func_4+0xdf2>
   11194:	83 ad 50 ee ff ff 01 	subl   $0x1,-0x11b0(%rbp)
   1119b:	c7 85 4c ee ff ff 00 	movl   $0x0,-0x11b4(%rbp)
   111a2:	00 00 00 
   111a5:	eb 24                	jmp    111cb <func_4+0xe83>
   111a7:	48 8b 05 5a 7e 01 00 	mov    0x17e5a(%rip),%rax        # 29008 <g_942>
   111ae:	48 8b 00             	mov    (%rax),%rax
   111b1:	8b 00                	mov    (%rax),%eax
   111b3:	85 c0                	test   %eax,%eax
   111b5:	75 1f                	jne    111d6 <func_4+0xe8e>
   111b7:	0f bf 85 28 ee ff ff 	movswl -0x11d8(%rbp),%eax
   111be:	09 85 5c ee ff ff    	or     %eax,-0x11a4(%rbp)
   111c4:	83 85 4c ee ff ff 01 	addl   $0x1,-0x11b4(%rbp)
   111cb:	83 bd 4c ee ff ff 03 	cmpl   $0x3,-0x11b4(%rbp)
   111d2:	76 d3                	jbe    111a7 <func_4+0xe5f>
   111d4:	eb 01                	jmp    111d7 <func_4+0xe8f>
   111d6:	90                   	nop
   111d7:	48 8b 05 0a 7e 01 00 	mov    0x17e0a(%rip),%rax        # 28fe8 <g_931>
   111de:	48 8b 00             	mov    (%rax),%rax
   111e1:	48 8b 00             	mov    (%rax),%rax
   111e4:	48 85 c0             	test   %rax,%rax
   111e7:	0f 94 c0             	sete   %al
   111ea:	0f b6 c0             	movzbl %al,%eax
   111ed:	89 85 8c ef ff ff    	mov    %eax,-0x1074(%rbp)
   111f3:	66 c7 05 7e 36 01 00 	movw   $0x3,0x1367e(%rip)        # 2487a <g_1224>
   111fa:	03 00 
   111fc:	90                   	nop
   111fd:	0f b7 05 76 36 01 00 	movzwl 0x13676(%rip),%eax        # 2487a <g_1224>
   11204:	66 85 c0             	test   %ax,%ax
   11207:	78 0d                	js     11216 <func_4+0xece>
   11209:	8b 85 80 ee ff ff    	mov    -0x1180(%rbp),%eax
   1120f:	48 98                	cltq   
   11211:	e9 3a 01 00 00       	jmpq   11350 <func_4+0x1008>
   11216:	83 85 48 ee ff ff 01 	addl   $0x1,-0x11b8(%rbp)
   1121d:	83 bd 48 ee ff ff 03 	cmpl   $0x3,-0x11b8(%rbp)
   11224:	0f 8e f6 fe ff ff    	jle    11120 <func_4+0xdd8>
   1122a:	8b 05 a4 2f 01 00    	mov    0x12fa4(%rip),%eax        # 241d4 <g_102>
   11230:	83 c0 01             	add    $0x1,%eax
   11233:	89 05 9b 2f 01 00    	mov    %eax,0x12f9b(%rip)        # 241d4 <g_102>
   11239:	8b 05 95 2f 01 00    	mov    0x12f95(%rip),%eax        # 241d4 <g_102>
   1123f:	83 f8 07             	cmp    $0x7,%eax
   11242:	0f 86 66 fc ff ff    	jbe    10eae <func_4+0xb66>
   11248:	48 8b 05 d1 8a 01 00 	mov    0x18ad1(%rip),%rax        # 29d20 <g_1944>
   1124f:	48 8b 00             	mov    (%rax),%rax
   11252:	0f b7 00             	movzwl (%rax),%eax
   11255:	0f b7 d8             	movzwl %ax,%ebx
   11258:	0f b7 85 2c ee ff ff 	movzwl -0x11d4(%rbp),%eax
   1125f:	98                   	cwtl   
   11260:	be 01 00 00 00       	mov    $0x1,%esi
   11265:	89 c7                	mov    %eax,%edi
   11267:	e8 67 c1 ff ff       	callq  d3d3 <safe_sub_func_int16_t_s_s>
   1126c:	48 8d 05 65 2e 01 00 	lea    0x12e65(%rip),%rax        # 240d8 <g_67>
   11273:	0f b7 10             	movzwl (%rax),%edx
   11276:	48 8d 05 5b 2e 01 00 	lea    0x12e5b(%rip),%rax        # 240d8 <g_67>
   1127d:	66 81 f2 aa 2f       	xor    $0x2faa,%dx
   11282:	66 89 10             	mov    %dx,(%rax)
   11285:	0f b6 85 1c ee ff ff 	movzbl -0x11e4(%rbp),%eax
   1128c:	0f be c0             	movsbl %al,%eax
   1128f:	09 85 7c ee ff ff    	or     %eax,-0x1184(%rbp)
   11295:	8b 85 74 ee ff ff    	mov    -0x118c(%rbp),%eax
   1129b:	89 c6                	mov    %eax,%esi
   1129d:	bf 01 00 00 00       	mov    $0x1,%edi
   112a2:	e8 0f c3 ff ff       	callq  d5b6 <safe_add_func_int32_t_s_s>
   112a7:	0f b6 95 1c ee ff ff 	movzbl -0x11e4(%rbp),%edx
   112ae:	0f be d2             	movsbl %dl,%edx
   112b1:	39 d0                	cmp    %edx,%eax
   112b3:	0f b7 85 2c ee ff ff 	movzwl -0x11d4(%rbp),%eax
   112ba:	0f be c0             	movsbl %al,%eax
   112bd:	be 05 00 00 00       	mov    $0x5,%esi
   112c2:	89 c7                	mov    %eax,%edi
   112c4:	e8 a3 c0 ff ff       	callq  d36c <safe_rshift_func_int8_t_s_u>
   112c9:	48 0f be c0          	movsbq %al,%rax
   112cd:	48 39 85 20 ee ff ff 	cmp    %rax,-0x11e0(%rbp)
   112d4:	76 12                	jbe    112e8 <func_4+0xfa0>
   112d6:	48 8b 05 0b 74 01 00 	mov    0x1740b(%rip),%rax        # 286e8 <g_257>
   112dd:	48 8b 00             	mov    (%rax),%rax
   112e0:	48 8b 00             	mov    (%rax),%rax
   112e3:	48 85 c0             	test   %rax,%rax
   112e6:	74 07                	je     112ef <func_4+0xfa7>
   112e8:	b8 01 00 00 00       	mov    $0x1,%eax
   112ed:	eb 05                	jmp    112f4 <func_4+0xfac>
   112ef:	b8 00 00 00 00       	mov    $0x0,%eax
   112f4:	0f be c0             	movsbl %al,%eax
   112f7:	89 c7                	mov    %eax,%edi
   112f9:	e8 c1 be ff ff       	callq  d1bf <safe_unary_minus_func_int8_t_s>
   112fe:	48 8b 05 63 98 01 00 	mov    0x19863(%rip),%rax        # 2ab68 <g_3084>
   11305:	48 8b 00             	mov    (%rax),%rax
   11308:	48 85 c0             	test   %rax,%rax
   1130b:	0f 95 c0             	setne  %al
   1130e:	0f b6 c0             	movzbl %al,%eax
   11311:	66 33 85 28 ee ff ff 	xor    -0x11d8(%rbp),%ax
   11318:	98                   	cwtl   
   11319:	89 de                	mov    %ebx,%esi
   1131b:	89 c7                	mov    %eax,%edi
   1131d:	e8 41 c2 ff ff       	callq  d563 <safe_rshift_func_int16_t_s_u>
   11322:	0f b6 d0             	movzbl %al,%edx
   11325:	48 8b 05 6c 73 01 00 	mov    0x1736c(%rip),%rax        # 28698 <g_239>
   1132c:	0f b6 00             	movzbl (%rax),%eax
   1132f:	0f b6 c0             	movzbl %al,%eax
   11332:	89 d6                	mov    %edx,%esi
   11334:	89 c7                	mov    %eax,%edi
   11336:	e8 3d c8 ff ff       	callq  db78 <safe_sub_func_uint8_t_u_u>
   1133b:	89 c2                	mov    %eax,%edx
   1133d:	48 8b 05 0c 73 01 00 	mov    0x1730c(%rip),%rax        # 28650 <g_168>
   11344:	0f b6 d2             	movzbl %dl,%edx
   11347:	89 10                	mov    %edx,(%rax)
   11349:	0f b7 85 2c ee ff ff 	movzwl -0x11d4(%rbp),%eax
   11350:	48 8b 5d c8          	mov    -0x38(%rbp),%rbx
   11354:	64 48 33 1c 25 28 00 	xor    %fs:0x28,%rbx
   1135b:	00 00 
   1135d:	74 05                	je     11364 <func_4+0x101c>
   1135f:	e8 0c bd ff ff       	callq  d070 <__stack_chk_fail@plt>
   11364:	48 81 c4 c8 11 00 00 	add    $0x11c8,%rsp
   1136b:	5b                   	pop    %rbx
   1136c:	41 5c                	pop    %r12
   1136e:	41 5d                	pop    %r13
   11370:	41 5e                	pop    %r14
   11372:	41 5f                	pop    %r15
   11374:	5d                   	pop    %rbp
   11375:	c3                   	retq   

0000000000011376 <func_9>:
   11376:	f3 0f 1e fa          	endbr64 
   1137a:	55                   	push   %rbp
   1137b:	48 89 e5             	mov    %rsp,%rbp
   1137e:	48 83 c4 80          	add    $0xffffffffffffff80,%rsp
   11382:	89 7d 8c             	mov    %edi,-0x74(%rbp)
   11385:	89 f0                	mov    %esi,%eax
   11387:	66 89 45 88          	mov    %ax,-0x78(%rbp)
   1138b:	89 d0                	mov    %edx,%eax
   1138d:	88 45 84             	mov    %al,-0x7c(%rbp)
   11390:	64 48 8b 04 25 28 00 	mov    %fs:0x28,%rax
   11397:	00 00 
   11399:	48 89 45 f8          	mov    %rax,-0x8(%rbp)
   1139d:	31 c0                	xor    %eax,%eax
   1139f:	c6 05 b2 30 01 00 00 	movb   $0x0,0x130b2(%rip)        # 24458 <g_441>
   113a6:	90                   	nop
   113a7:	0f b6 05 aa 30 01 00 	movzbl 0x130aa(%rip),%eax        # 24458 <g_441>
   113ae:	3c 07                	cmp    $0x7,%al
   113b0:	75 51                	jne    11403 <func_9+0x8d>
   113b2:	48 b8 c8 a8 fb 38 60 	movabs $0x838b916038fba8c8,%rax
   113b9:	91 8b 83 
   113bc:	48 89 45 90          	mov    %rax,-0x70(%rbp)
   113c0:	48 89 45 98          	mov    %rax,-0x68(%rbp)
   113c4:	48 89 45 a0          	mov    %rax,-0x60(%rbp)
   113c8:	48 89 45 a8          	mov    %rax,-0x58(%rbp)
   113cc:	48 89 45 b0          	mov    %rax,-0x50(%rbp)
   113d0:	48 89 45 b8          	mov    %rax,-0x48(%rbp)
   113d4:	48 89 45 c0          	mov    %rax,-0x40(%rbp)
   113d8:	48 89 45 c8          	mov    %rax,-0x38(%rbp)
   113dc:	48 89 45 d0          	mov    %rax,-0x30(%rbp)
   113e0:	48 89 45 d8          	mov    %rax,-0x28(%rbp)
   113e4:	48 89 45 e0          	mov    %rax,-0x20(%rbp)
   113e8:	48 89 45 e8          	mov    %rax,-0x18(%rbp)
   113ec:	48 8b 05 6d 7c 01 00 	mov    0x17c6d(%rip),%rax        # 29060 <g_1011>
   113f3:	48 8b 00             	mov    (%rax),%rax
   113f6:	48 c7 00 00 00 00 00 	movq   $0x0,(%rax)
   113fd:	48 8b 45 90          	mov    -0x70(%rbp),%rax
   11401:	eb 04                	jmp    11407 <func_9+0x91>
   11403:	0f b6 45 84          	movzbl -0x7c(%rbp),%eax
   11407:	48 8b 4d f8          	mov    -0x8(%rbp),%rcx
   1140b:	64 48 33 0c 25 28 00 	xor    %fs:0x28,%rcx
   11412:	00 00 
   11414:	74 05                	je     1141b <func_9+0xa5>
   11416:	e8 55 bc ff ff       	callq  d070 <__stack_chk_fail@plt>
   1141b:	c9                   	leaveq 
   1141c:	c3                   	retq   

000000000001141d <func_26>:
   1141d:	f3 0f 1e fa          	endbr64 
   11421:	55                   	push   %rbp
   11422:	48 89 e5             	mov    %rsp,%rbp
   11425:	41 57                	push   %r15
   11427:	41 56                	push   %r14
   11429:	41 55                	push   %r13
   1142b:	41 54                	push   %r12
   1142d:	53                   	push   %rbx
   1142e:	48 81 ec 00 10 00 00 	sub    $0x1000,%rsp
   11435:	48 83 0c 24 00       	orq    $0x0,(%rsp)
   1143a:	48 81 ec 58 06 00 00 	sub    $0x658,%rsp
   11441:	48 89 bd 88 e9 ff ff 	mov    %rdi,-0x1678(%rbp)
   11448:	64 48 8b 04 25 28 00 	mov    %fs:0x28,%rax
   1144f:	00 00 
   11451:	48 89 45 c8          	mov    %rax,-0x38(%rbp)
   11455:	31 c0                	xor    %eax,%eax
   11457:	66 c7 85 94 e9 ff ff 	movw   $0x0,-0x166c(%rbp)
   1145e:	00 00 
   11460:	c7 85 9c e9 ff ff ea 	movl   $0x7f40a0ea,-0x1664(%rbp)
   11467:	a0 40 7f 
   1146a:	c7 85 a0 e9 ff ff ff 	movl   $0xffffffff,-0x1660(%rbp)
   11471:	ff ff ff 
   11474:	48 8d 05 a5 2c 01 00 	lea    0x12ca5(%rip),%rax        # 24120 <g_69+0x40>
   1147b:	48 89 85 28 ea ff ff 	mov    %rax,-0x15d8(%rbp)
   11482:	48 8d 05 bf 35 01 00 	lea    0x135bf(%rip),%rax        # 24a48 <g_2197>
   11489:	48 89 85 30 ea ff ff 	mov    %rax,-0x15d0(%rbp)
   11490:	48 8d 85 30 ea ff ff 	lea    -0x15d0(%rbp),%rax
   11497:	48 89 85 c0 ea ff ff 	mov    %rax,-0x1540(%rbp)
   1149e:	48 8d 05 27 9c 01 00 	lea    0x19c27(%rip),%rax        # 2b0cc <g_73>
   114a5:	48 89 85 c8 ea ff ff 	mov    %rax,-0x1538(%rbp)
   114ac:	66 c7 85 98 e9 ff ff 	movw   $0xdaa5,-0x1668(%rbp)
   114b3:	a5 da 
   114b5:	48 8d 05 ec 90 01 00 	lea    0x190ec(%rip),%rax        # 2a5a8 <g_2684+0x8>
   114bc:	48 89 85 38 ea ff ff 	mov    %rax,-0x15c8(%rbp)
   114c3:	48 8d 85 38 ea ff ff 	lea    -0x15c8(%rbp),%rax
   114ca:	48 89 85 d0 ea ff ff 	mov    %rax,-0x1530(%rbp)
   114d1:	48 8d 05 08 3d 01 00 	lea    0x13d08(%rip),%rax        # 251e0 <g_2730>
   114d8:	48 89 85 d8 ea ff ff 	mov    %rax,-0x1528(%rbp)
   114df:	c7 85 a4 e9 ff ff ff 	movl   $0xffffffff,-0x165c(%rbp)
   114e6:	ff ff ff 
   114e9:	c7 85 bc e9 ff ff 01 	movl   $0x1,-0x1644(%rbp)
   114f0:	00 00 00 
   114f3:	48 b8 21 59 25 4a 18 	movabs $0x29bfa0184a255921,%rax
   114fa:	a0 bf 29 
   114fd:	48 89 85 40 ea ff ff 	mov    %rax,-0x15c0(%rbp)
   11504:	c7 85 c0 e9 ff ff 12 	movl   $0xd8bad412,-0x1640(%rbp)
   1150b:	d4 ba d8 
   1150e:	48 8d 05 13 91 01 00 	lea    0x19113(%rip),%rax        # 2a628 <g_2705>
   11515:	48 89 85 e0 ea ff ff 	mov    %rax,-0x1520(%rbp)
   1151c:	48 c7 85 48 ea ff ff 	movq   $0x0,-0x15b8(%rbp)
   11523:	00 00 00 00 
   11527:	48 8d 85 48 ea ff ff 	lea    -0x15b8(%rbp),%rax
   1152e:	48 89 85 e8 ea ff ff 	mov    %rax,-0x1518(%rbp)
   11535:	48 c7 85 f0 ea ff ff 	movq   $0x0,-0x1510(%rbp)
   1153c:	00 00 00 00 
   11540:	48 c7 85 f8 ea ff ff 	movq   $0x0,-0x1508(%rbp)
   11547:	00 00 00 00 
   1154b:	48 c7 85 00 eb ff ff 	movq   $0x0,-0x1500(%rbp)
   11552:	00 00 00 00 
   11556:	48 8d 05 bb 79 01 00 	lea    0x179bb(%rip),%rax        # 28f18 <g_352>
   1155d:	48 89 85 50 ea ff ff 	mov    %rax,-0x15b0(%rbp)
   11564:	48 8d 85 50 ea ff ff 	lea    -0x15b0(%rbp),%rax
   1156b:	48 89 85 08 eb ff ff 	mov    %rax,-0x14f8(%rbp)
   11572:	48 c7 85 58 ea ff ff 	movq   $0x0,-0x15a8(%rbp)
   11579:	00 00 00 00 
   1157d:	48 8d 85 58 ea ff ff 	lea    -0x15a8(%rbp),%rax
   11584:	48 89 85 c0 ee ff ff 	mov    %rax,-0x1140(%rbp)
   1158b:	48 8d 85 58 ea ff ff 	lea    -0x15a8(%rbp),%rax
   11592:	48 89 85 c8 ee ff ff 	mov    %rax,-0x1138(%rbp)
   11599:	48 8d 85 58 ea ff ff 	lea    -0x15a8(%rbp),%rax
   115a0:	48 89 85 d0 ee ff ff 	mov    %rax,-0x1130(%rbp)
   115a7:	48 8d 85 58 ea ff ff 	lea    -0x15a8(%rbp),%rax
   115ae:	48 89 85 d8 ee ff ff 	mov    %rax,-0x1128(%rbp)
   115b5:	48 8d 85 58 ea ff ff 	lea    -0x15a8(%rbp),%rax
   115bc:	48 89 85 e0 ee ff ff 	mov    %rax,-0x1120(%rbp)
   115c3:	48 8d 85 58 ea ff ff 	lea    -0x15a8(%rbp),%rax
   115ca:	48 89 85 e8 ee ff ff 	mov    %rax,-0x1118(%rbp)
   115d1:	48 8d 85 58 ea ff ff 	lea    -0x15a8(%rbp),%rax
   115d8:	48 89 85 f0 ee ff ff 	mov    %rax,-0x1110(%rbp)
   115df:	48 8d 85 58 ea ff ff 	lea    -0x15a8(%rbp),%rax
   115e6:	48 89 85 f8 ee ff ff 	mov    %rax,-0x1108(%rbp)
   115ed:	48 8d 85 58 ea ff ff 	lea    -0x15a8(%rbp),%rax
   115f4:	48 89 85 00 ef ff ff 	mov    %rax,-0x1100(%rbp)
   115fb:	48 8d 85 58 ea ff ff 	lea    -0x15a8(%rbp),%rax
   11602:	48 89 85 08 ef ff ff 	mov    %rax,-0x10f8(%rbp)
   11609:	48 8d 85 58 ea ff ff 	lea    -0x15a8(%rbp),%rax
   11610:	48 89 85 10 ef ff ff 	mov    %rax,-0x10f0(%rbp)
   11617:	48 8d 85 58 ea ff ff 	lea    -0x15a8(%rbp),%rax
   1161e:	48 89 85 18 ef ff ff 	mov    %rax,-0x10e8(%rbp)
   11625:	48 8d 85 58 ea ff ff 	lea    -0x15a8(%rbp),%rax
   1162c:	48 89 85 20 ef ff ff 	mov    %rax,-0x10e0(%rbp)
   11633:	48 8d 85 58 ea ff ff 	lea    -0x15a8(%rbp),%rax
   1163a:	48 89 85 28 ef ff ff 	mov    %rax,-0x10d8(%rbp)
   11641:	48 8d 85 58 ea ff ff 	lea    -0x15a8(%rbp),%rax
   11648:	48 89 85 30 ef ff ff 	mov    %rax,-0x10d0(%rbp)
   1164f:	48 8d 85 58 ea ff ff 	lea    -0x15a8(%rbp),%rax
   11656:	48 89 85 38 ef ff ff 	mov    %rax,-0x10c8(%rbp)
   1165d:	48 8d 85 58 ea ff ff 	lea    -0x15a8(%rbp),%rax
   11664:	48 89 85 40 ef ff ff 	mov    %rax,-0x10c0(%rbp)
   1166b:	48 8d 85 58 ea ff ff 	lea    -0x15a8(%rbp),%rax
   11672:	48 89 85 48 ef ff ff 	mov    %rax,-0x10b8(%rbp)
   11679:	48 8d 85 58 ea ff ff 	lea    -0x15a8(%rbp),%rax
   11680:	48 89 85 50 ef ff ff 	mov    %rax,-0x10b0(%rbp)
   11687:	48 8d 85 58 ea ff ff 	lea    -0x15a8(%rbp),%rax
   1168e:	48 89 85 58 ef ff ff 	mov    %rax,-0x10a8(%rbp)
   11695:	48 8d 85 58 ea ff ff 	lea    -0x15a8(%rbp),%rax
   1169c:	48 89 85 60 ef ff ff 	mov    %rax,-0x10a0(%rbp)
   116a3:	48 8d 85 58 ea ff ff 	lea    -0x15a8(%rbp),%rax
   116aa:	48 89 85 68 ef ff ff 	mov    %rax,-0x1098(%rbp)
   116b1:	48 8d 85 58 ea ff ff 	lea    -0x15a8(%rbp),%rax
   116b8:	48 89 85 70 ef ff ff 	mov    %rax,-0x1090(%rbp)
   116bf:	48 8d 85 58 ea ff ff 	lea    -0x15a8(%rbp),%rax
   116c6:	48 89 85 78 ef ff ff 	mov    %rax,-0x1088(%rbp)
   116cd:	48 8d 85 58 ea ff ff 	lea    -0x15a8(%rbp),%rax
   116d4:	48 89 85 80 ef ff ff 	mov    %rax,-0x1080(%rbp)
   116db:	48 8d 85 58 ea ff ff 	lea    -0x15a8(%rbp),%rax
   116e2:	48 89 85 88 ef ff ff 	mov    %rax,-0x1078(%rbp)
   116e9:	48 8d 85 58 ea ff ff 	lea    -0x15a8(%rbp),%rax
   116f0:	48 89 85 90 ef ff ff 	mov    %rax,-0x1070(%rbp)
   116f7:	48 8d 85 58 ea ff ff 	lea    -0x15a8(%rbp),%rax
   116fe:	48 89 85 98 ef ff ff 	mov    %rax,-0x1068(%rbp)
   11705:	48 8d 85 58 ea ff ff 	lea    -0x15a8(%rbp),%rax
   1170c:	48 89 85 a0 ef ff ff 	mov    %rax,-0x1060(%rbp)
   11713:	48 8d 85 58 ea ff ff 	lea    -0x15a8(%rbp),%rax
   1171a:	48 89 85 a8 ef ff ff 	mov    %rax,-0x1058(%rbp)
   11721:	48 8d 85 58 ea ff ff 	lea    -0x15a8(%rbp),%rax
   11728:	48 89 85 b0 ef ff ff 	mov    %rax,-0x1050(%rbp)
   1172f:	48 8d 85 58 ea ff ff 	lea    -0x15a8(%rbp),%rax
   11736:	48 89 85 b8 ef ff ff 	mov    %rax,-0x1048(%rbp)
   1173d:	48 8d 85 58 ea ff ff 	lea    -0x15a8(%rbp),%rax
   11744:	48 89 85 c0 ef ff ff 	mov    %rax,-0x1040(%rbp)
   1174b:	48 8d 85 58 ea ff ff 	lea    -0x15a8(%rbp),%rax
   11752:	48 89 85 c8 ef ff ff 	mov    %rax,-0x1038(%rbp)
   11759:	48 8d 85 58 ea ff ff 	lea    -0x15a8(%rbp),%rax
   11760:	48 89 85 d0 ef ff ff 	mov    %rax,-0x1030(%rbp)
   11767:	48 8d 85 58 ea ff ff 	lea    -0x15a8(%rbp),%rax
   1176e:	48 89 85 d8 ef ff ff 	mov    %rax,-0x1028(%rbp)
   11775:	48 8d 85 58 ea ff ff 	lea    -0x15a8(%rbp),%rax
   1177c:	48 89 85 e0 ef ff ff 	mov    %rax,-0x1020(%rbp)
   11783:	48 8d 85 58 ea ff ff 	lea    -0x15a8(%rbp),%rax
   1178a:	48 89 85 e8 ef ff ff 	mov    %rax,-0x1018(%rbp)
   11791:	48 8d 85 58 ea ff ff 	lea    -0x15a8(%rbp),%rax
   11798:	48 89 85 f0 ef ff ff 	mov    %rax,-0x1010(%rbp)
   1179f:	48 8d 85 58 ea ff ff 	lea    -0x15a8(%rbp),%rax
   117a6:	48 89 85 f8 ef ff ff 	mov    %rax,-0x1008(%rbp)
   117ad:	48 8d 85 58 ea ff ff 	lea    -0x15a8(%rbp),%rax
   117b4:	48 89 85 00 f0 ff ff 	mov    %rax,-0x1000(%rbp)
   117bb:	48 8d 85 58 ea ff ff 	lea    -0x15a8(%rbp),%rax
   117c2:	48 89 85 08 f0 ff ff 	mov    %rax,-0xff8(%rbp)
   117c9:	66 c7 85 96 e9 ff ff 	movw   $0x0,-0x166a(%rbp)
   117d0:	00 00 
   117d2:	66 c7 85 6c ec ff ff 	movw   $0xfff8,-0x1394(%rbp)
   117d9:	f8 ff 
   117db:	66 c7 85 6e ec ff ff 	movw   $0xfff8,-0x1392(%rbp)
   117e2:	f8 ff 
   117e4:	66 c7 85 70 ec ff ff 	movw   $0xfff8,-0x1390(%rbp)
   117eb:	f8 ff 
   117ed:	66 c7 85 72 ec ff ff 	movw   $0xfff8,-0x138e(%rbp)
   117f4:	f8 ff 
   117f6:	66 c7 85 74 ec ff ff 	movw   $0xfff8,-0x138c(%rbp)
   117fd:	f8 ff 
   117ff:	48 b8 d5 eb fe 4a bf 	movabs $0xab19dcbf4afeebd5,%rax
   11806:	dc 19 ab 
   11809:	48 89 85 b8 ea ff ff 	mov    %rax,-0x1548(%rbp)
   11810:	48 c7 85 b0 ea ff ff 	movq   $0x0,-0x1550(%rbp)
   11817:	00 00 00 00 
   1181b:	c7 85 b8 e9 ff ff 00 	movl   $0x0,-0x1648(%rbp)
   11822:	00 00 00 
   11825:	eb 51                	jmp    11878 <func_26+0x45b>
   11827:	c7 85 ec e9 ff ff 00 	movl   $0x0,-0x1614(%rbp)
   1182e:	00 00 00 
   11831:	eb 35                	jmp    11868 <func_26+0x44b>
   11833:	8b 85 ec e9 ff ff    	mov    -0x1614(%rbp),%eax
   11839:	48 63 c8             	movslq %eax,%rcx
   1183c:	8b 85 b8 e9 ff ff    	mov    -0x1648(%rbp),%eax
   11842:	48 63 d0             	movslq %eax,%rdx
   11845:	48 89 d0             	mov    %rdx,%rax
   11848:	48 c1 e0 03          	shl    $0x3,%rax
   1184c:	48 01 d0             	add    %rdx,%rax
   1184f:	48 01 c8             	add    %rcx,%rax
   11852:	48 8d 15 c7 84 01 00 	lea    0x184c7(%rip),%rdx        # 29d20 <g_1944>
   11859:	48 89 94 c5 a0 ed ff 	mov    %rdx,-0x1260(%rbp,%rax,8)
   11860:	ff 
   11861:	83 85 ec e9 ff ff 01 	addl   $0x1,-0x1614(%rbp)
   11868:	83 bd ec e9 ff ff 08 	cmpl   $0x8,-0x1614(%rbp)
   1186f:	7e c2                	jle    11833 <func_26+0x416>
   11871:	83 85 b8 e9 ff ff 01 	addl   $0x1,-0x1648(%rbp)
   11878:	83 bd b8 e9 ff ff 03 	cmpl   $0x3,-0x1648(%rbp)
   1187f:	7e a6                	jle    11827 <func_26+0x40a>
   11881:	c7 05 55 30 01 00 00 	movl   $0x0,0x13055(%rip)        # 248e0 <g_1741>
   11888:	00 00 00 
   1188b:	90                   	nop
   1188c:	8b 05 4e 30 01 00    	mov    0x1304e(%rip),%eax        # 248e0 <g_1741>
   11892:	85 c0                	test   %eax,%eax
   11894:	0f 88 ac 3a 00 00    	js     15346 <func_26+0x3f29>
   1189a:	c7 85 a8 e9 ff ff 03 	movl   $0x3,-0x1658(%rbp)
   118a1:	00 00 00 
   118a4:	48 8d 05 9d 2b 01 00 	lea    0x12b9d(%rip),%rax        # 24448 <g_330>
   118ab:	48 89 85 78 eb ff ff 	mov    %rax,-0x1488(%rbp)
   118b2:	c7 85 c0 ec ff ff 00 	movl   $0x0,-0x1340(%rbp)
   118b9:	00 00 00 
   118bc:	c7 85 c4 ec ff ff 00 	movl   $0x0,-0x133c(%rbp)
   118c3:	00 00 00 
   118c6:	c7 85 c8 ec ff ff fc 	movl   $0xfffffffc,-0x1338(%rbp)
   118cd:	ff ff ff 
   118d0:	c7 85 cc ec ff ff 00 	movl   $0x0,-0x1334(%rbp)
   118d7:	00 00 00 
   118da:	c7 85 d0 ec ff ff 00 	movl   $0x0,-0x1330(%rbp)
   118e1:	00 00 00 
   118e4:	c7 85 d4 ec ff ff fc 	movl   $0xfffffffc,-0x132c(%rbp)
   118eb:	ff ff ff 
   118ee:	c7 85 d8 ec ff ff 00 	movl   $0x0,-0x1328(%rbp)
   118f5:	00 00 00 
   118f8:	c7 85 dc ec ff ff 00 	movl   $0x0,-0x1324(%rbp)
   118ff:	00 00 00 
   11902:	c7 85 e0 ec ff ff fc 	movl   $0xfffffffc,-0x1320(%rbp)
   11909:	ff ff ff 
   1190c:	c7 85 e4 ec ff ff 00 	movl   $0x0,-0x131c(%rbp)
   11913:	00 00 00 
   11916:	c7 85 e8 ec ff ff 00 	movl   $0x0,-0x1318(%rbp)
   1191d:	00 00 00 
   11920:	c7 85 ec ec ff ff fc 	movl   $0xfffffffc,-0x1314(%rbp)
   11927:	ff ff ff 
   1192a:	c7 85 f0 ec ff ff 00 	movl   $0x0,-0x1310(%rbp)
   11931:	00 00 00 
   11934:	c7 85 f4 ec ff ff 00 	movl   $0x0,-0x130c(%rbp)
   1193b:	00 00 00 
   1193e:	48 8d 05 33 2b 01 00 	lea    0x12b33(%rip),%rax        # 24478 <g_471>
   11945:	48 89 85 60 ea ff ff 	mov    %rax,-0x15a0(%rbp)
   1194c:	48 8d 85 60 ea ff ff 	lea    -0x15a0(%rbp),%rax
   11953:	48 89 85 68 ea ff ff 	mov    %rax,-0x1598(%rbp)
   1195a:	48 8d 85 68 ea ff ff 	lea    -0x1598(%rbp),%rax
   11961:	48 89 85 70 ea ff ff 	mov    %rax,-0x1590(%rbp)
   11968:	48 8d 85 70 ea ff ff 	lea    -0x1590(%rbp),%rax
   1196f:	48 89 85 78 ea ff ff 	mov    %rax,-0x1588(%rbp)
   11976:	48 c7 85 10 f0 ff ff 	movq   $0x0,-0xff0(%rbp)
   1197d:	00 00 00 00 
   11981:	48 8d 85 c0 ec ff ff 	lea    -0x1340(%rbp),%rax
   11988:	48 83 c0 18          	add    $0x18,%rax
   1198c:	48 89 85 18 f0 ff ff 	mov    %rax,-0xfe8(%rbp)
   11993:	48 8d 85 c0 ec ff ff 	lea    -0x1340(%rbp),%rax
   1199a:	48 83 c0 28          	add    $0x28,%rax
   1199e:	48 89 85 20 f0 ff ff 	mov    %rax,-0xfe0(%rbp)
   119a5:	48 c7 85 28 f0 ff ff 	movq   $0x0,-0xfd8(%rbp)
   119ac:	00 00 00 00 
   119b0:	48 8d 05 1d 28 01 00 	lea    0x1281d(%rip),%rax        # 241d4 <g_102>
   119b7:	48 89 85 30 f0 ff ff 	mov    %rax,-0xfd0(%rbp)
   119be:	48 c7 85 38 f0 ff ff 	movq   $0x0,-0xfc8(%rbp)
   119c5:	00 00 00 00 
   119c9:	48 8d 85 c0 ec ff ff 	lea    -0x1340(%rbp),%rax
   119d0:	48 83 c0 28          	add    $0x28,%rax
   119d4:	48 89 85 40 f0 ff ff 	mov    %rax,-0xfc0(%rbp)
   119db:	48 8d 85 c0 ec ff ff 	lea    -0x1340(%rbp),%rax
   119e2:	48 83 c0 18          	add    $0x18,%rax
   119e6:	48 89 85 48 f0 ff ff 	mov    %rax,-0xfb8(%rbp)
   119ed:	48 c7 85 50 f0 ff ff 	movq   $0x0,-0xfb0(%rbp)
   119f4:	00 00 00 00 
   119f8:	48 8d 05 49 30 01 00 	lea    0x13049(%rip),%rax        # 24a48 <g_2197>
   119ff:	48 89 85 58 f0 ff ff 	mov    %rax,-0xfa8(%rbp)
   11a06:	48 8d 85 c0 ec ff ff 	lea    -0x1340(%rbp),%rax
   11a0d:	48 83 c0 18          	add    $0x18,%rax
   11a11:	48 89 85 60 f0 ff ff 	mov    %rax,-0xfa0(%rbp)
   11a18:	48 8d 05 29 30 01 00 	lea    0x13029(%rip),%rax        # 24a48 <g_2197>
   11a1f:	48 89 85 68 f0 ff ff 	mov    %rax,-0xf98(%rbp)
   11a26:	48 8d 85 c0 ec ff ff 	lea    -0x1340(%rbp),%rax
   11a2d:	48 83 c0 28          	add    $0x28,%rax
   11a31:	48 89 85 70 f0 ff ff 	mov    %rax,-0xf90(%rbp)
   11a38:	48 8d 85 c0 ec ff ff 	lea    -0x1340(%rbp),%rax
   11a3f:	48 83 c0 24          	add    $0x24,%rax
   11a43:	48 89 85 78 f0 ff ff 	mov    %rax,-0xf88(%rbp)
   11a4a:	48 8d 05 f7 2f 01 00 	lea    0x12ff7(%rip),%rax        # 24a48 <g_2197>
   11a51:	48 89 85 80 f0 ff ff 	mov    %rax,-0xf80(%rbp)
   11a58:	48 8d 85 c0 ec ff ff 	lea    -0x1340(%rbp),%rax
   11a5f:	48 83 c0 28          	add    $0x28,%rax
   11a63:	48 89 85 88 f0 ff ff 	mov    %rax,-0xf78(%rbp)
   11a6a:	48 8d 05 63 27 01 00 	lea    0x12763(%rip),%rax        # 241d4 <g_102>
   11a71:	48 89 85 90 f0 ff ff 	mov    %rax,-0xf70(%rbp)
   11a78:	48 8d 85 c0 ec ff ff 	lea    -0x1340(%rbp),%rax
   11a7f:	48 83 c0 28          	add    $0x28,%rax
   11a83:	48 89 85 98 f0 ff ff 	mov    %rax,-0xf68(%rbp)
   11a8a:	48 8d 85 c0 ec ff ff 	lea    -0x1340(%rbp),%rax
   11a91:	48 83 c0 28          	add    $0x28,%rax
   11a95:	48 89 85 a0 f0 ff ff 	mov    %rax,-0xf60(%rbp)
   11a9c:	48 8d 05 31 27 01 00 	lea    0x12731(%rip),%rax        # 241d4 <g_102>
   11aa3:	48 89 85 a8 f0 ff ff 	mov    %rax,-0xf58(%rbp)
   11aaa:	48 8d 05 97 2f 01 00 	lea    0x12f97(%rip),%rax        # 24a48 <g_2197>
   11ab1:	48 89 85 b0 f0 ff ff 	mov    %rax,-0xf50(%rbp)
   11ab8:	48 8d 05 89 2f 01 00 	lea    0x12f89(%rip),%rax        # 24a48 <g_2197>
   11abf:	48 89 85 b8 f0 ff ff 	mov    %rax,-0xf48(%rbp)
   11ac6:	48 8d 05 07 27 01 00 	lea    0x12707(%rip),%rax        # 241d4 <g_102>
   11acd:	48 89 85 c0 f0 ff ff 	mov    %rax,-0xf40(%rbp)
   11ad4:	48 8d 85 c0 ec ff ff 	lea    -0x1340(%rbp),%rax
   11adb:	48 83 c0 28          	add    $0x28,%rax
   11adf:	48 89 85 c8 f0 ff ff 	mov    %rax,-0xf38(%rbp)
   11ae6:	48 8d 05 e7 26 01 00 	lea    0x126e7(%rip),%rax        # 241d4 <g_102>
   11aed:	48 89 85 d0 f0 ff ff 	mov    %rax,-0xf30(%rbp)
   11af4:	48 8d 05 d9 26 01 00 	lea    0x126d9(%rip),%rax        # 241d4 <g_102>
   11afb:	48 89 85 d8 f0 ff ff 	mov    %rax,-0xf28(%rbp)
   11b02:	48 8d 05 3f 2f 01 00 	lea    0x12f3f(%rip),%rax        # 24a48 <g_2197>
   11b09:	48 89 85 e0 f0 ff ff 	mov    %rax,-0xf20(%rbp)
   11b10:	48 8d 05 31 2f 01 00 	lea    0x12f31(%rip),%rax        # 24a48 <g_2197>
   11b17:	48 89 85 e8 f0 ff ff 	mov    %rax,-0xf18(%rbp)
   11b1e:	48 8d 85 c0 ec ff ff 	lea    -0x1340(%rbp),%rax
   11b25:	48 83 c0 24          	add    $0x24,%rax
   11b29:	48 89 85 f0 f0 ff ff 	mov    %rax,-0xf10(%rbp)
   11b30:	48 8d 85 c0 ec ff ff 	lea    -0x1340(%rbp),%rax
   11b37:	48 83 c0 28          	add    $0x28,%rax
   11b3b:	48 89 85 f8 f0 ff ff 	mov    %rax,-0xf08(%rbp)
   11b42:	48 8d 05 ff 2e 01 00 	lea    0x12eff(%rip),%rax        # 24a48 <g_2197>
   11b49:	48 89 85 00 f1 ff ff 	mov    %rax,-0xf00(%rbp)
   11b50:	48 8d 85 c0 ec ff ff 	lea    -0x1340(%rbp),%rax
   11b57:	48 83 c0 18          	add    $0x18,%rax
   11b5b:	48 89 85 08 f1 ff ff 	mov    %rax,-0xef8(%rbp)
   11b62:	48 8d 05 df 2e 01 00 	lea    0x12edf(%rip),%rax        # 24a48 <g_2197>
   11b69:	48 89 85 10 f1 ff ff 	mov    %rax,-0xef0(%rbp)
   11b70:	48 8d 05 d1 2e 01 00 	lea    0x12ed1(%rip),%rax        # 24a48 <g_2197>
   11b77:	48 89 85 18 f1 ff ff 	mov    %rax,-0xee8(%rbp)
   11b7e:	48 8d 85 c0 ec ff ff 	lea    -0x1340(%rbp),%rax
   11b85:	48 83 c0 18          	add    $0x18,%rax
   11b89:	48 89 85 20 f1 ff ff 	mov    %rax,-0xee0(%rbp)
   11b90:	48 8d 05 b1 2e 01 00 	lea    0x12eb1(%rip),%rax        # 24a48 <g_2197>
   11b97:	48 89 85 28 f1 ff ff 	mov    %rax,-0xed8(%rbp)
   11b9e:	48 c7 85 30 f1 ff ff 	movq   $0x0,-0xed0(%rbp)
   11ba5:	00 00 00 00 
   11ba9:	48 8d 05 24 26 01 00 	lea    0x12624(%rip),%rax        # 241d4 <g_102>
   11bb0:	48 89 85 38 f1 ff ff 	mov    %rax,-0xec8(%rbp)
   11bb7:	48 c7 85 40 f1 ff ff 	movq   $0x0,-0xec0(%rbp)
   11bbe:	00 00 00 00 
   11bc2:	48 8d 85 c0 ec ff ff 	lea    -0x1340(%rbp),%rax
   11bc9:	48 83 c0 28          	add    $0x28,%rax
   11bcd:	48 89 85 48 f1 ff ff 	mov    %rax,-0xeb8(%rbp)
   11bd4:	48 8d 85 c0 ec ff ff 	lea    -0x1340(%rbp),%rax
   11bdb:	48 83 c0 18          	add    $0x18,%rax
   11bdf:	48 89 85 50 f1 ff ff 	mov    %rax,-0xeb0(%rbp)
   11be6:	48 c7 85 58 f1 ff ff 	movq   $0x0,-0xea8(%rbp)
   11bed:	00 00 00 00 
   11bf1:	48 8d 05 dc 25 01 00 	lea    0x125dc(%rip),%rax        # 241d4 <g_102>
   11bf8:	48 89 85 60 f1 ff ff 	mov    %rax,-0xea0(%rbp)
   11bff:	48 8d 85 c0 ec ff ff 	lea    -0x1340(%rbp),%rax
   11c06:	48 83 c0 10          	add    $0x10,%rax
   11c0a:	48 89 85 68 f1 ff ff 	mov    %rax,-0xe98(%rbp)
   11c11:	48 8d 85 c0 ec ff ff 	lea    -0x1340(%rbp),%rax
   11c18:	48 83 c0 28          	add    $0x28,%rax
   11c1c:	48 89 85 70 f1 ff ff 	mov    %rax,-0xe90(%rbp)
   11c23:	48 c7 85 78 f1 ff ff 	movq   $0x0,-0xe88(%rbp)
   11c2a:	00 00 00 00 
   11c2e:	48 8d 85 c0 ec ff ff 	lea    -0x1340(%rbp),%rax
   11c35:	48 83 c0 18          	add    $0x18,%rax
   11c39:	48 89 85 80 f1 ff ff 	mov    %rax,-0xe80(%rbp)
   11c40:	48 8d 85 c0 ec ff ff 	lea    -0x1340(%rbp),%rax
   11c47:	48 83 c0 28          	add    $0x28,%rax
   11c4b:	48 89 85 88 f1 ff ff 	mov    %rax,-0xe78(%rbp)
   11c52:	48 c7 85 90 f1 ff ff 	movq   $0x0,-0xe70(%rbp)
   11c59:	00 00 00 00 
   11c5d:	48 8d 05 70 25 01 00 	lea    0x12570(%rip),%rax        # 241d4 <g_102>
   11c64:	48 89 85 98 f1 ff ff 	mov    %rax,-0xe68(%rbp)
   11c6b:	48 c7 85 a0 f1 ff ff 	movq   $0x0,-0xe60(%rbp)
   11c72:	00 00 00 00 
   11c76:	48 8d 85 c0 ec ff ff 	lea    -0x1340(%rbp),%rax
   11c7d:	48 83 c0 28          	add    $0x28,%rax
   11c81:	48 89 85 a8 f1 ff ff 	mov    %rax,-0xe58(%rbp)
   11c88:	48 8d 85 c0 ec ff ff 	lea    -0x1340(%rbp),%rax
   11c8f:	48 83 c0 18          	add    $0x18,%rax
   11c93:	48 89 85 b0 f1 ff ff 	mov    %rax,-0xe50(%rbp)
   11c9a:	48 c7 85 b8 f1 ff ff 	movq   $0x0,-0xe48(%rbp)
   11ca1:	00 00 00 00 
   11ca5:	48 8d 05 9c 2d 01 00 	lea    0x12d9c(%rip),%rax        # 24a48 <g_2197>
   11cac:	48 89 85 c0 f1 ff ff 	mov    %rax,-0xe40(%rbp)
   11cb3:	48 8d 85 c0 ec ff ff 	lea    -0x1340(%rbp),%rax
   11cba:	48 83 c0 18          	add    $0x18,%rax
   11cbe:	48 89 85 c8 f1 ff ff 	mov    %rax,-0xe38(%rbp)
   11cc5:	48 8d 05 7c 2d 01 00 	lea    0x12d7c(%rip),%rax        # 24a48 <g_2197>
   11ccc:	48 89 85 d0 f1 ff ff 	mov    %rax,-0xe30(%rbp)
   11cd3:	48 8d 85 c0 ec ff ff 	lea    -0x1340(%rbp),%rax
   11cda:	48 83 c0 28          	add    $0x28,%rax
   11cde:	48 89 85 d8 f1 ff ff 	mov    %rax,-0xe28(%rbp)
   11ce5:	48 8d 85 c0 ec ff ff 	lea    -0x1340(%rbp),%rax
   11cec:	48 83 c0 24          	add    $0x24,%rax
   11cf0:	48 89 85 e0 f1 ff ff 	mov    %rax,-0xe20(%rbp)
   11cf7:	48 8d 05 4a 2d 01 00 	lea    0x12d4a(%rip),%rax        # 24a48 <g_2197>
   11cfe:	48 89 85 e8 f1 ff ff 	mov    %rax,-0xe18(%rbp)
   11d05:	48 8d 85 c0 ec ff ff 	lea    -0x1340(%rbp),%rax
   11d0c:	48 83 c0 28          	add    $0x28,%rax
   11d10:	48 89 85 f0 f1 ff ff 	mov    %rax,-0xe10(%rbp)
   11d17:	48 8d 05 b6 24 01 00 	lea    0x124b6(%rip),%rax        # 241d4 <g_102>
   11d1e:	48 89 85 f8 f1 ff ff 	mov    %rax,-0xe08(%rbp)
   11d25:	48 8d 85 c0 ec ff ff 	lea    -0x1340(%rbp),%rax
   11d2c:	48 83 c0 28          	add    $0x28,%rax
   11d30:	48 89 85 00 f2 ff ff 	mov    %rax,-0xe00(%rbp)
   11d37:	48 8d 85 c0 ec ff ff 	lea    -0x1340(%rbp),%rax
   11d3e:	48 83 c0 28          	add    $0x28,%rax
   11d42:	48 89 85 08 f2 ff ff 	mov    %rax,-0xdf8(%rbp)
   11d49:	48 8d 05 84 24 01 00 	lea    0x12484(%rip),%rax        # 241d4 <g_102>
   11d50:	48 89 85 10 f2 ff ff 	mov    %rax,-0xdf0(%rbp)
   11d57:	48 8d 05 ea 2c 01 00 	lea    0x12cea(%rip),%rax        # 24a48 <g_2197>
   11d5e:	48 89 85 18 f2 ff ff 	mov    %rax,-0xde8(%rbp)
   11d65:	48 8d 05 dc 2c 01 00 	lea    0x12cdc(%rip),%rax        # 24a48 <g_2197>
   11d6c:	48 89 85 20 f2 ff ff 	mov    %rax,-0xde0(%rbp)
   11d73:	48 8d 05 5a 24 01 00 	lea    0x1245a(%rip),%rax        # 241d4 <g_102>
   11d7a:	48 89 85 28 f2 ff ff 	mov    %rax,-0xdd8(%rbp)
   11d81:	48 8d 85 c0 ec ff ff 	lea    -0x1340(%rbp),%rax
   11d88:	48 83 c0 28          	add    $0x28,%rax
   11d8c:	48 89 85 30 f2 ff ff 	mov    %rax,-0xdd0(%rbp)
   11d93:	48 8d 05 3a 24 01 00 	lea    0x1243a(%rip),%rax        # 241d4 <g_102>
   11d9a:	48 89 85 38 f2 ff ff 	mov    %rax,-0xdc8(%rbp)
   11da1:	48 8d 05 2c 24 01 00 	lea    0x1242c(%rip),%rax        # 241d4 <g_102>
   11da8:	48 89 85 40 f2 ff ff 	mov    %rax,-0xdc0(%rbp)
   11daf:	48 8d 05 92 2c 01 00 	lea    0x12c92(%rip),%rax        # 24a48 <g_2197>
   11db6:	48 89 85 48 f2 ff ff 	mov    %rax,-0xdb8(%rbp)
   11dbd:	48 8d 05 84 2c 01 00 	lea    0x12c84(%rip),%rax        # 24a48 <g_2197>
   11dc4:	48 89 85 50 f2 ff ff 	mov    %rax,-0xdb0(%rbp)
   11dcb:	48 8d 85 c0 ec ff ff 	lea    -0x1340(%rbp),%rax
   11dd2:	48 83 c0 24          	add    $0x24,%rax
   11dd6:	48 89 85 58 f2 ff ff 	mov    %rax,-0xda8(%rbp)
   11ddd:	48 8d 85 c0 ec ff ff 	lea    -0x1340(%rbp),%rax
   11de4:	48 83 c0 28          	add    $0x28,%rax
   11de8:	48 89 85 60 f2 ff ff 	mov    %rax,-0xda0(%rbp)
   11def:	48 8d 05 52 2c 01 00 	lea    0x12c52(%rip),%rax        # 24a48 <g_2197>
   11df6:	48 89 85 68 f2 ff ff 	mov    %rax,-0xd98(%rbp)
   11dfd:	48 8d 85 c0 ec ff ff 	lea    -0x1340(%rbp),%rax
   11e04:	48 83 c0 18          	add    $0x18,%rax
   11e08:	48 89 85 70 f2 ff ff 	mov    %rax,-0xd90(%rbp)
   11e0f:	48 8d 05 32 2c 01 00 	lea    0x12c32(%rip),%rax        # 24a48 <g_2197>
   11e16:	48 89 85 78 f2 ff ff 	mov    %rax,-0xd88(%rbp)
   11e1d:	48 8d 05 24 2c 01 00 	lea    0x12c24(%rip),%rax        # 24a48 <g_2197>
   11e24:	48 89 85 80 f2 ff ff 	mov    %rax,-0xd80(%rbp)
   11e2b:	48 8d 85 c0 ec ff ff 	lea    -0x1340(%rbp),%rax
   11e32:	48 83 c0 18          	add    $0x18,%rax
   11e36:	48 89 85 88 f2 ff ff 	mov    %rax,-0xd78(%rbp)
   11e3d:	48 8d 05 04 2c 01 00 	lea    0x12c04(%rip),%rax        # 24a48 <g_2197>
   11e44:	48 89 85 90 f2 ff ff 	mov    %rax,-0xd70(%rbp)
   11e4b:	48 c7 85 98 f2 ff ff 	movq   $0x0,-0xd68(%rbp)
   11e52:	00 00 00 00 
   11e56:	48 8d 05 77 23 01 00 	lea    0x12377(%rip),%rax        # 241d4 <g_102>
   11e5d:	48 89 85 a0 f2 ff ff 	mov    %rax,-0xd60(%rbp)
   11e64:	48 c7 85 a8 f2 ff ff 	movq   $0x0,-0xd58(%rbp)
   11e6b:	00 00 00 00 
   11e6f:	48 8d 85 c0 ec ff ff 	lea    -0x1340(%rbp),%rax
   11e76:	48 83 c0 28          	add    $0x28,%rax
   11e7a:	48 89 85 b0 f2 ff ff 	mov    %rax,-0xd50(%rbp)
   11e81:	48 8d 85 c0 ec ff ff 	lea    -0x1340(%rbp),%rax
   11e88:	48 83 c0 18          	add    $0x18,%rax
   11e8c:	48 89 85 b8 f2 ff ff 	mov    %rax,-0xd48(%rbp)
   11e93:	48 c7 85 c0 f2 ff ff 	movq   $0x0,-0xd40(%rbp)
   11e9a:	00 00 00 00 
   11e9e:	48 8d 05 2f 23 01 00 	lea    0x1232f(%rip),%rax        # 241d4 <g_102>
   11ea5:	48 89 85 c8 f2 ff ff 	mov    %rax,-0xd38(%rbp)
   11eac:	48 8d 85 c0 ec ff ff 	lea    -0x1340(%rbp),%rax
   11eb3:	48 83 c0 10          	add    $0x10,%rax
   11eb7:	48 89 85 d0 f2 ff ff 	mov    %rax,-0xd30(%rbp)
   11ebe:	48 8d 85 c0 ec ff ff 	lea    -0x1340(%rbp),%rax
   11ec5:	48 83 c0 28          	add    $0x28,%rax
   11ec9:	48 89 85 d8 f2 ff ff 	mov    %rax,-0xd28(%rbp)
   11ed0:	48 c7 85 e0 f2 ff ff 	movq   $0x0,-0xd20(%rbp)
   11ed7:	00 00 00 00 
   11edb:	48 8d 85 c0 ec ff ff 	lea    -0x1340(%rbp),%rax
   11ee2:	48 83 c0 18          	add    $0x18,%rax
   11ee6:	48 89 85 e8 f2 ff ff 	mov    %rax,-0xd18(%rbp)
   11eed:	48 8d 85 c0 ec ff ff 	lea    -0x1340(%rbp),%rax
   11ef4:	48 83 c0 28          	add    $0x28,%rax
   11ef8:	48 89 85 f0 f2 ff ff 	mov    %rax,-0xd10(%rbp)
   11eff:	48 c7 85 f8 f2 ff ff 	movq   $0x0,-0xd08(%rbp)
   11f06:	00 00 00 00 
   11f0a:	48 8d 05 c3 22 01 00 	lea    0x122c3(%rip),%rax        # 241d4 <g_102>
   11f11:	48 89 85 00 f3 ff ff 	mov    %rax,-0xd00(%rbp)
   11f18:	48 c7 85 08 f3 ff ff 	movq   $0x0,-0xcf8(%rbp)
   11f1f:	00 00 00 00 
   11f23:	48 8d 85 c0 ec ff ff 	lea    -0x1340(%rbp),%rax
   11f2a:	48 83 c0 28          	add    $0x28,%rax
   11f2e:	48 89 85 10 f3 ff ff 	mov    %rax,-0xcf0(%rbp)
   11f35:	48 8d 85 c0 ec ff ff 	lea    -0x1340(%rbp),%rax
   11f3c:	48 83 c0 18          	add    $0x18,%rax
   11f40:	48 89 85 18 f3 ff ff 	mov    %rax,-0xce8(%rbp)
   11f47:	48 c7 85 20 f3 ff ff 	movq   $0x0,-0xce0(%rbp)
   11f4e:	00 00 00 00 
   11f52:	48 8d 05 ef 2a 01 00 	lea    0x12aef(%rip),%rax        # 24a48 <g_2197>
   11f59:	48 89 85 28 f3 ff ff 	mov    %rax,-0xcd8(%rbp)
   11f60:	48 8d 85 c0 ec ff ff 	lea    -0x1340(%rbp),%rax
   11f67:	48 83 c0 18          	add    $0x18,%rax
   11f6b:	48 89 85 30 f3 ff ff 	mov    %rax,-0xcd0(%rbp)
   11f72:	48 8d 05 cf 2a 01 00 	lea    0x12acf(%rip),%rax        # 24a48 <g_2197>
   11f79:	48 89 85 38 f3 ff ff 	mov    %rax,-0xcc8(%rbp)
   11f80:	48 8d 85 c0 ec ff ff 	lea    -0x1340(%rbp),%rax
   11f87:	48 83 c0 28          	add    $0x28,%rax
   11f8b:	48 89 85 40 f3 ff ff 	mov    %rax,-0xcc0(%rbp)
   11f92:	48 8d 85 c0 ec ff ff 	lea    -0x1340(%rbp),%rax
   11f99:	48 83 c0 24          	add    $0x24,%rax
   11f9d:	48 89 85 48 f3 ff ff 	mov    %rax,-0xcb8(%rbp)
   11fa4:	48 8d 05 9d 2a 01 00 	lea    0x12a9d(%rip),%rax        # 24a48 <g_2197>
   11fab:	48 89 85 50 f3 ff ff 	mov    %rax,-0xcb0(%rbp)
   11fb2:	48 8d 85 c0 ec ff ff 	lea    -0x1340(%rbp),%rax
   11fb9:	48 83 c0 28          	add    $0x28,%rax
   11fbd:	48 89 85 58 f3 ff ff 	mov    %rax,-0xca8(%rbp)
   11fc4:	48 8d 05 09 22 01 00 	lea    0x12209(%rip),%rax        # 241d4 <g_102>
   11fcb:	48 89 85 60 f3 ff ff 	mov    %rax,-0xca0(%rbp)
   11fd2:	48 8d 85 c0 ec ff ff 	lea    -0x1340(%rbp),%rax
   11fd9:	48 83 c0 28          	add    $0x28,%rax
   11fdd:	48 89 85 68 f3 ff ff 	mov    %rax,-0xc98(%rbp)
   11fe4:	48 8d 85 c0 ec ff ff 	lea    -0x1340(%rbp),%rax
   11feb:	48 83 c0 28          	add    $0x28,%rax
   11fef:	48 89 85 70 f3 ff ff 	mov    %rax,-0xc90(%rbp)
   11ff6:	48 8d 05 d7 21 01 00 	lea    0x121d7(%rip),%rax        # 241d4 <g_102>
   11ffd:	48 89 85 78 f3 ff ff 	mov    %rax,-0xc88(%rbp)
   12004:	48 8d 05 3d 2a 01 00 	lea    0x12a3d(%rip),%rax        # 24a48 <g_2197>
   1200b:	48 89 85 80 f3 ff ff 	mov    %rax,-0xc80(%rbp)
   12012:	48 8d 05 2f 2a 01 00 	lea    0x12a2f(%rip),%rax        # 24a48 <g_2197>
   12019:	48 89 85 88 f3 ff ff 	mov    %rax,-0xc78(%rbp)
   12020:	48 8d 05 ad 21 01 00 	lea    0x121ad(%rip),%rax        # 241d4 <g_102>
   12027:	48 89 85 90 f3 ff ff 	mov    %rax,-0xc70(%rbp)
   1202e:	48 8d 85 c0 ec ff ff 	lea    -0x1340(%rbp),%rax
   12035:	48 83 c0 28          	add    $0x28,%rax
   12039:	48 89 85 98 f3 ff ff 	mov    %rax,-0xc68(%rbp)
   12040:	48 8d 05 8d 21 01 00 	lea    0x1218d(%rip),%rax        # 241d4 <g_102>
   12047:	48 89 85 a0 f3 ff ff 	mov    %rax,-0xc60(%rbp)
   1204e:	48 8d 05 7f 21 01 00 	lea    0x1217f(%rip),%rax        # 241d4 <g_102>
   12055:	48 89 85 a8 f3 ff ff 	mov    %rax,-0xc58(%rbp)
   1205c:	48 8d 05 e5 29 01 00 	lea    0x129e5(%rip),%rax        # 24a48 <g_2197>
   12063:	48 89 85 b0 f3 ff ff 	mov    %rax,-0xc50(%rbp)
   1206a:	48 8d 05 d7 29 01 00 	lea    0x129d7(%rip),%rax        # 24a48 <g_2197>
   12071:	48 89 85 b8 f3 ff ff 	mov    %rax,-0xc48(%rbp)
   12078:	48 8d 85 c0 ec ff ff 	lea    -0x1340(%rbp),%rax
   1207f:	48 83 c0 24          	add    $0x24,%rax
   12083:	48 89 85 c0 f3 ff ff 	mov    %rax,-0xc40(%rbp)
   1208a:	48 8d 85 c0 ec ff ff 	lea    -0x1340(%rbp),%rax
   12091:	48 83 c0 28          	add    $0x28,%rax
   12095:	48 89 85 c8 f3 ff ff 	mov    %rax,-0xc38(%rbp)
   1209c:	48 8d 05 a5 29 01 00 	lea    0x129a5(%rip),%rax        # 24a48 <g_2197>
   120a3:	48 89 85 d0 f3 ff ff 	mov    %rax,-0xc30(%rbp)
   120aa:	48 8d 85 c0 ec ff ff 	lea    -0x1340(%rbp),%rax
   120b1:	48 83 c0 18          	add    $0x18,%rax
   120b5:	48 89 85 d8 f3 ff ff 	mov    %rax,-0xc28(%rbp)
   120bc:	48 8d 05 85 29 01 00 	lea    0x12985(%rip),%rax        # 24a48 <g_2197>
   120c3:	48 89 85 e0 f3 ff ff 	mov    %rax,-0xc20(%rbp)
   120ca:	48 8d 05 77 29 01 00 	lea    0x12977(%rip),%rax        # 24a48 <g_2197>
   120d1:	48 89 85 e8 f3 ff ff 	mov    %rax,-0xc18(%rbp)
   120d8:	48 8d 85 c0 ec ff ff 	lea    -0x1340(%rbp),%rax
   120df:	48 83 c0 18          	add    $0x18,%rax
   120e3:	48 89 85 f0 f3 ff ff 	mov    %rax,-0xc10(%rbp)
   120ea:	48 8d 05 57 29 01 00 	lea    0x12957(%rip),%rax        # 24a48 <g_2197>
   120f1:	48 89 85 f8 f3 ff ff 	mov    %rax,-0xc08(%rbp)
   120f8:	48 c7 85 00 f4 ff ff 	movq   $0x0,-0xc00(%rbp)
   120ff:	00 00 00 00 
   12103:	48 8d 05 ca 20 01 00 	lea    0x120ca(%rip),%rax        # 241d4 <g_102>
   1210a:	48 89 85 08 f4 ff ff 	mov    %rax,-0xbf8(%rbp)
   12111:	48 c7 85 10 f4 ff ff 	movq   $0x0,-0xbf0(%rbp)
   12118:	00 00 00 00 
   1211c:	48 8d 85 c0 ec ff ff 	lea    -0x1340(%rbp),%rax
   12123:	48 83 c0 28          	add    $0x28,%rax
   12127:	48 89 85 18 f4 ff ff 	mov    %rax,-0xbe8(%rbp)
   1212e:	48 8d 85 c0 ec ff ff 	lea    -0x1340(%rbp),%rax
   12135:	48 83 c0 18          	add    $0x18,%rax
   12139:	48 89 85 20 f4 ff ff 	mov    %rax,-0xbe0(%rbp)
   12140:	48 c7 85 28 f4 ff ff 	movq   $0x0,-0xbd8(%rbp)
   12147:	00 00 00 00 
   1214b:	48 8d 05 82 20 01 00 	lea    0x12082(%rip),%rax        # 241d4 <g_102>
   12152:	48 89 85 30 f4 ff ff 	mov    %rax,-0xbd0(%rbp)
   12159:	48 8d 85 c0 ec ff ff 	lea    -0x1340(%rbp),%rax
   12160:	48 83 c0 10          	add    $0x10,%rax
   12164:	48 89 85 38 f4 ff ff 	mov    %rax,-0xbc8(%rbp)
   1216b:	48 8d 85 c0 ec ff ff 	lea    -0x1340(%rbp),%rax
   12172:	48 83 c0 28          	add    $0x28,%rax
   12176:	48 89 85 40 f4 ff ff 	mov    %rax,-0xbc0(%rbp)
   1217d:	48 c7 85 48 f4 ff ff 	movq   $0x0,-0xbb8(%rbp)
   12184:	00 00 00 00 
   12188:	48 8d 85 c0 ec ff ff 	lea    -0x1340(%rbp),%rax
   1218f:	48 83 c0 18          	add    $0x18,%rax
   12193:	48 89 85 50 f4 ff ff 	mov    %rax,-0xbb0(%rbp)
   1219a:	48 8d 85 c0 ec ff ff 	lea    -0x1340(%rbp),%rax
   121a1:	48 83 c0 28          	add    $0x28,%rax
   121a5:	48 89 85 58 f4 ff ff 	mov    %rax,-0xba8(%rbp)
   121ac:	48 c7 85 60 f4 ff ff 	movq   $0x0,-0xba0(%rbp)
   121b3:	00 00 00 00 
   121b7:	48 8d 05 16 20 01 00 	lea    0x12016(%rip),%rax        # 241d4 <g_102>
   121be:	48 89 85 68 f4 ff ff 	mov    %rax,-0xb98(%rbp)
   121c5:	48 c7 85 70 f4 ff ff 	movq   $0x0,-0xb90(%rbp)
   121cc:	00 00 00 00 
   121d0:	48 8d 85 c0 ec ff ff 	lea    -0x1340(%rbp),%rax
   121d7:	48 83 c0 28          	add    $0x28,%rax
   121db:	48 89 85 78 f4 ff ff 	mov    %rax,-0xb88(%rbp)
   121e2:	48 8d 85 c0 ec ff ff 	lea    -0x1340(%rbp),%rax
   121e9:	48 83 c0 18          	add    $0x18,%rax
   121ed:	48 89 85 80 f4 ff ff 	mov    %rax,-0xb80(%rbp)
   121f4:	48 c7 85 88 f4 ff ff 	movq   $0x0,-0xb78(%rbp)
   121fb:	00 00 00 00 
   121ff:	48 8d 05 42 28 01 00 	lea    0x12842(%rip),%rax        # 24a48 <g_2197>
   12206:	48 89 85 90 f4 ff ff 	mov    %rax,-0xb70(%rbp)
   1220d:	48 8d 85 c0 ec ff ff 	lea    -0x1340(%rbp),%rax
   12214:	48 83 c0 18          	add    $0x18,%rax
   12218:	48 89 85 98 f4 ff ff 	mov    %rax,-0xb68(%rbp)
   1221f:	48 8d 05 22 28 01 00 	lea    0x12822(%rip),%rax        # 24a48 <g_2197>
   12226:	48 89 85 a0 f4 ff ff 	mov    %rax,-0xb60(%rbp)
   1222d:	48 8d 85 c0 ec ff ff 	lea    -0x1340(%rbp),%rax
   12234:	48 83 c0 28          	add    $0x28,%rax
   12238:	48 89 85 a8 f4 ff ff 	mov    %rax,-0xb58(%rbp)
   1223f:	48 8d 85 c0 ec ff ff 	lea    -0x1340(%rbp),%rax
   12246:	48 83 c0 24          	add    $0x24,%rax
   1224a:	48 89 85 b0 f4 ff ff 	mov    %rax,-0xb50(%rbp)
   12251:	48 8d 05 f0 27 01 00 	lea    0x127f0(%rip),%rax        # 24a48 <g_2197>
   12258:	48 89 85 b8 f4 ff ff 	mov    %rax,-0xb48(%rbp)
   1225f:	48 8d 05 6e 1f 01 00 	lea    0x11f6e(%rip),%rax        # 241d4 <g_102>
   12266:	48 89 85 c0 f4 ff ff 	mov    %rax,-0xb40(%rbp)
   1226d:	48 8d 05 60 1f 01 00 	lea    0x11f60(%rip),%rax        # 241d4 <g_102>
   12274:	48 89 85 c8 f4 ff ff 	mov    %rax,-0xb38(%rbp)
   1227b:	48 8d 05 52 1f 01 00 	lea    0x11f52(%rip),%rax        # 241d4 <g_102>
   12282:	48 89 85 d0 f4 ff ff 	mov    %rax,-0xb30(%rbp)
   12289:	48 8d 05 44 1f 01 00 	lea    0x11f44(%rip),%rax        # 241d4 <g_102>
   12290:	48 89 85 d8 f4 ff ff 	mov    %rax,-0xb28(%rbp)
   12297:	48 8d 05 aa 27 01 00 	lea    0x127aa(%rip),%rax        # 24a48 <g_2197>
   1229e:	48 89 85 e0 f4 ff ff 	mov    %rax,-0xb20(%rbp)
   122a5:	48 8d 05 28 1f 01 00 	lea    0x11f28(%rip),%rax        # 241d4 <g_102>
   122ac:	48 89 85 e8 f4 ff ff 	mov    %rax,-0xb18(%rbp)
   122b3:	48 8d 05 1a 1f 01 00 	lea    0x11f1a(%rip),%rax        # 241d4 <g_102>
   122ba:	48 89 85 f0 f4 ff ff 	mov    %rax,-0xb10(%rbp)
   122c1:	48 8d 05 80 27 01 00 	lea    0x12780(%rip),%rax        # 24a48 <g_2197>
   122c8:	48 89 85 f8 f4 ff ff 	mov    %rax,-0xb08(%rbp)
   122cf:	48 8d 05 fe 1e 01 00 	lea    0x11efe(%rip),%rax        # 241d4 <g_102>
   122d6:	48 89 85 00 f5 ff ff 	mov    %rax,-0xb00(%rbp)
   122dd:	48 8d 85 c0 ec ff ff 	lea    -0x1340(%rbp),%rax
   122e4:	48 83 c0 28          	add    $0x28,%rax
   122e8:	48 89 85 08 f5 ff ff 	mov    %rax,-0xaf8(%rbp)
   122ef:	48 8d 05 de 1e 01 00 	lea    0x11ede(%rip),%rax        # 241d4 <g_102>
   122f6:	48 89 85 10 f5 ff ff 	mov    %rax,-0xaf0(%rbp)
   122fd:	48 8d 05 d0 1e 01 00 	lea    0x11ed0(%rip),%rax        # 241d4 <g_102>
   12304:	48 89 85 18 f5 ff ff 	mov    %rax,-0xae8(%rbp)
   1230b:	48 8d 85 c0 ec ff ff 	lea    -0x1340(%rbp),%rax
   12312:	48 83 c0 34          	add    $0x34,%rax
   12316:	48 89 85 20 f5 ff ff 	mov    %rax,-0xae0(%rbp)
   1231d:	48 8d 85 c0 ec ff ff 	lea    -0x1340(%rbp),%rax
   12324:	48 83 c0 28          	add    $0x28,%rax
   12328:	48 89 85 28 f5 ff ff 	mov    %rax,-0xad8(%rbp)
   1232f:	48 8d 05 9e 1e 01 00 	lea    0x11e9e(%rip),%rax        # 241d4 <g_102>
   12336:	48 89 85 30 f5 ff ff 	mov    %rax,-0xad0(%rbp)
   1233d:	48 8d 05 90 1e 01 00 	lea    0x11e90(%rip),%rax        # 241d4 <g_102>
   12344:	48 89 85 38 f5 ff ff 	mov    %rax,-0xac8(%rbp)
   1234b:	48 c7 85 40 f5 ff ff 	movq   $0x0,-0xac0(%rbp)
   12352:	00 00 00 00 
   12356:	48 8d 85 c0 ec ff ff 	lea    -0x1340(%rbp),%rax
   1235d:	48 83 c0 34          	add    $0x34,%rax
   12361:	48 89 85 48 f5 ff ff 	mov    %rax,-0xab8(%rbp)
   12368:	48 8d 85 c0 ec ff ff 	lea    -0x1340(%rbp),%rax
   1236f:	48 83 c0 34          	add    $0x34,%rax
   12373:	48 89 85 50 f5 ff ff 	mov    %rax,-0xab0(%rbp)
   1237a:	48 c7 85 58 f5 ff ff 	movq   $0x0,-0xaa8(%rbp)
   12381:	00 00 00 00 
   12385:	48 8d 05 48 1e 01 00 	lea    0x11e48(%rip),%rax        # 241d4 <g_102>
   1238c:	48 89 85 60 f5 ff ff 	mov    %rax,-0xaa0(%rbp)
   12393:	48 8d 85 c0 ec ff ff 	lea    -0x1340(%rbp),%rax
   1239a:	48 83 c0 18          	add    $0x18,%rax
   1239e:	48 89 85 68 f5 ff ff 	mov    %rax,-0xa98(%rbp)
   123a5:	48 8d 05 9c 26 01 00 	lea    0x1269c(%rip),%rax        # 24a48 <g_2197>
   123ac:	48 89 85 70 f5 ff ff 	mov    %rax,-0xa90(%rbp)
   123b3:	48 8d 85 c0 ec ff ff 	lea    -0x1340(%rbp),%rax
   123ba:	48 83 c0 18          	add    $0x18,%rax
   123be:	48 89 85 78 f5 ff ff 	mov    %rax,-0xa88(%rbp)
   123c5:	48 8d 05 08 1e 01 00 	lea    0x11e08(%rip),%rax        # 241d4 <g_102>
   123cc:	48 89 85 80 f5 ff ff 	mov    %rax,-0xa80(%rbp)
   123d3:	48 c7 85 88 f5 ff ff 	movq   $0x0,-0xa78(%rbp)
   123da:	00 00 00 00 
   123de:	48 8d 85 c0 ec ff ff 	lea    -0x1340(%rbp),%rax
   123e5:	48 83 c0 18          	add    $0x18,%rax
   123e9:	48 89 85 90 f5 ff ff 	mov    %rax,-0xa70(%rbp)
   123f0:	48 8d 85 c0 ec ff ff 	lea    -0x1340(%rbp),%rax
   123f7:	48 83 c0 28          	add    $0x28,%rax
   123fb:	48 89 85 98 f5 ff ff 	mov    %rax,-0xa68(%rbp)
   12402:	48 8d 05 3f 26 01 00 	lea    0x1263f(%rip),%rax        # 24a48 <g_2197>
   12409:	48 89 85 a0 f5 ff ff 	mov    %rax,-0xa60(%rbp)
   12410:	48 8d 05 bd 1d 01 00 	lea    0x11dbd(%rip),%rax        # 241d4 <g_102>
   12417:	48 89 85 a8 f5 ff ff 	mov    %rax,-0xa58(%rbp)
   1241e:	48 8d 85 c0 ec ff ff 	lea    -0x1340(%rbp),%rax
   12425:	48 83 c0 18          	add    $0x18,%rax
   12429:	48 89 85 b0 f5 ff ff 	mov    %rax,-0xa50(%rbp)
   12430:	48 c7 85 b8 f5 ff ff 	movq   $0x0,-0xa48(%rbp)
   12437:	00 00 00 00 
   1243b:	48 8d 05 92 1d 01 00 	lea    0x11d92(%rip),%rax        # 241d4 <g_102>
   12442:	48 89 85 c0 f5 ff ff 	mov    %rax,-0xa40(%rbp)
   12449:	48 8d 85 c0 ec ff ff 	lea    -0x1340(%rbp),%rax
   12450:	48 83 c0 18          	add    $0x18,%rax
   12454:	48 89 85 c8 f5 ff ff 	mov    %rax,-0xa38(%rbp)
   1245b:	48 8d 05 e6 25 01 00 	lea    0x125e6(%rip),%rax        # 24a48 <g_2197>
   12462:	48 89 85 d0 f5 ff ff 	mov    %rax,-0xa30(%rbp)
   12469:	48 8d 85 c0 ec ff ff 	lea    -0x1340(%rbp),%rax
   12470:	48 83 c0 18          	add    $0x18,%rax
   12474:	48 89 85 d8 f5 ff ff 	mov    %rax,-0xa28(%rbp)
   1247b:	48 8d 05 52 1d 01 00 	lea    0x11d52(%rip),%rax        # 241d4 <g_102>
   12482:	48 89 85 e0 f5 ff ff 	mov    %rax,-0xa20(%rbp)
   12489:	48 c7 85 e8 f5 ff ff 	movq   $0x0,-0xa18(%rbp)
   12490:	00 00 00 00 
   12494:	48 8d 85 c0 ec ff ff 	lea    -0x1340(%rbp),%rax
   1249b:	48 83 c0 18          	add    $0x18,%rax
   1249f:	48 89 85 f0 f5 ff ff 	mov    %rax,-0xa10(%rbp)
   124a6:	48 8d 85 c0 ec ff ff 	lea    -0x1340(%rbp),%rax
   124ad:	48 83 c0 34          	add    $0x34,%rax
   124b1:	48 89 85 f8 f5 ff ff 	mov    %rax,-0xa08(%rbp)
   124b8:	48 c7 85 00 f6 ff ff 	movq   $0x0,-0xa00(%rbp)
   124bf:	00 00 00 00 
   124c3:	48 8d 05 0a 1d 01 00 	lea    0x11d0a(%rip),%rax        # 241d4 <g_102>
   124ca:	48 89 85 08 f6 ff ff 	mov    %rax,-0x9f8(%rbp)
   124d1:	48 8d 05 fc 1c 01 00 	lea    0x11cfc(%rip),%rax        # 241d4 <g_102>
   124d8:	48 89 85 10 f6 ff ff 	mov    %rax,-0x9f0(%rbp)
   124df:	48 8d 85 c0 ec ff ff 	lea    -0x1340(%rbp),%rax
   124e6:	48 83 c0 28          	add    $0x28,%rax
   124ea:	48 89 85 18 f6 ff ff 	mov    %rax,-0x9e8(%rbp)
   124f1:	48 8d 85 c0 ec ff ff 	lea    -0x1340(%rbp),%rax
   124f8:	48 83 c0 34          	add    $0x34,%rax
   124fc:	48 89 85 20 f6 ff ff 	mov    %rax,-0x9e0(%rbp)
   12503:	48 8d 05 ca 1c 01 00 	lea    0x11cca(%rip),%rax        # 241d4 <g_102>
   1250a:	48 89 85 28 f6 ff ff 	mov    %rax,-0x9d8(%rbp)
   12511:	48 8d 05 bc 1c 01 00 	lea    0x11cbc(%rip),%rax        # 241d4 <g_102>
   12518:	48 89 85 30 f6 ff ff 	mov    %rax,-0x9d0(%rbp)
   1251f:	48 8d 05 ae 1c 01 00 	lea    0x11cae(%rip),%rax        # 241d4 <g_102>
   12526:	48 89 85 38 f6 ff ff 	mov    %rax,-0x9c8(%rbp)
   1252d:	48 8d 05 a0 1c 01 00 	lea    0x11ca0(%rip),%rax        # 241d4 <g_102>
   12534:	48 89 85 40 f6 ff ff 	mov    %rax,-0x9c0(%rbp)
   1253b:	48 8d 05 06 25 01 00 	lea    0x12506(%rip),%rax        # 24a48 <g_2197>
   12542:	48 89 85 48 f6 ff ff 	mov    %rax,-0x9b8(%rbp)
   12549:	48 8d 05 84 1c 01 00 	lea    0x11c84(%rip),%rax        # 241d4 <g_102>
   12550:	48 89 85 50 f6 ff ff 	mov    %rax,-0x9b0(%rbp)
   12557:	48 8d 05 76 1c 01 00 	lea    0x11c76(%rip),%rax        # 241d4 <g_102>
   1255e:	48 89 85 58 f6 ff ff 	mov    %rax,-0x9a8(%rbp)
   12565:	48 8d 05 dc 24 01 00 	lea    0x124dc(%rip),%rax        # 24a48 <g_2197>
   1256c:	48 89 85 60 f6 ff ff 	mov    %rax,-0x9a0(%rbp)
   12573:	48 8d 05 5a 1c 01 00 	lea    0x11c5a(%rip),%rax        # 241d4 <g_102>
   1257a:	48 89 85 68 f6 ff ff 	mov    %rax,-0x998(%rbp)
   12581:	48 8d 85 c0 ec ff ff 	lea    -0x1340(%rbp),%rax
   12588:	48 83 c0 28          	add    $0x28,%rax
   1258c:	48 89 85 70 f6 ff ff 	mov    %rax,-0x990(%rbp)
   12593:	48 8d 05 3a 1c 01 00 	lea    0x11c3a(%rip),%rax        # 241d4 <g_102>
   1259a:	48 89 85 78 f6 ff ff 	mov    %rax,-0x988(%rbp)
   125a1:	48 8d 05 2c 1c 01 00 	lea    0x11c2c(%rip),%rax        # 241d4 <g_102>
   125a8:	48 89 85 80 f6 ff ff 	mov    %rax,-0x980(%rbp)
   125af:	48 8d 85 c0 ec ff ff 	lea    -0x1340(%rbp),%rax
   125b6:	48 83 c0 34          	add    $0x34,%rax
   125ba:	48 89 85 88 f6 ff ff 	mov    %rax,-0x978(%rbp)
   125c1:	48 8d 85 c0 ec ff ff 	lea    -0x1340(%rbp),%rax
   125c8:	48 83 c0 28          	add    $0x28,%rax
   125cc:	48 89 85 90 f6 ff ff 	mov    %rax,-0x970(%rbp)
   125d3:	48 8d 05 fa 1b 01 00 	lea    0x11bfa(%rip),%rax        # 241d4 <g_102>
   125da:	48 89 85 98 f6 ff ff 	mov    %rax,-0x968(%rbp)
   125e1:	48 8d 05 ec 1b 01 00 	lea    0x11bec(%rip),%rax        # 241d4 <g_102>
   125e8:	48 89 85 a0 f6 ff ff 	mov    %rax,-0x960(%rbp)
   125ef:	48 c7 85 a8 f6 ff ff 	movq   $0x0,-0x958(%rbp)
   125f6:	00 00 00 00 
   125fa:	48 8d 85 c0 ec ff ff 	lea    -0x1340(%rbp),%rax
   12601:	48 83 c0 34          	add    $0x34,%rax
   12605:	48 89 85 b0 f6 ff ff 	mov    %rax,-0x950(%rbp)
   1260c:	48 8d 85 c0 ec ff ff 	lea    -0x1340(%rbp),%rax
   12613:	48 83 c0 34          	add    $0x34,%rax
   12617:	48 89 85 b8 f6 ff ff 	mov    %rax,-0x948(%rbp)
   1261e:	48 c7 85 c0 f6 ff ff 	movq   $0x0,-0x940(%rbp)
   12625:	00 00 00 00 
   12629:	48 8d 05 a4 1b 01 00 	lea    0x11ba4(%rip),%rax        # 241d4 <g_102>
   12630:	48 89 85 c8 f6 ff ff 	mov    %rax,-0x938(%rbp)
   12637:	48 8d 85 c0 ec ff ff 	lea    -0x1340(%rbp),%rax
   1263e:	48 83 c0 18          	add    $0x18,%rax
   12642:	48 89 85 d0 f6 ff ff 	mov    %rax,-0x930(%rbp)
   12649:	48 8d 05 f8 23 01 00 	lea    0x123f8(%rip),%rax        # 24a48 <g_2197>
   12650:	48 89 85 d8 f6 ff ff 	mov    %rax,-0x928(%rbp)
   12657:	48 8d 85 c0 ec ff ff 	lea    -0x1340(%rbp),%rax
   1265e:	48 83 c0 18          	add    $0x18,%rax
   12662:	48 89 85 e0 f6 ff ff 	mov    %rax,-0x920(%rbp)
   12669:	48 8d 05 64 1b 01 00 	lea    0x11b64(%rip),%rax        # 241d4 <g_102>
   12670:	48 89 85 e8 f6 ff ff 	mov    %rax,-0x918(%rbp)
   12677:	48 c7 85 f0 f6 ff ff 	movq   $0x0,-0x910(%rbp)
   1267e:	00 00 00 00 
   12682:	48 8d 85 c0 ec ff ff 	lea    -0x1340(%rbp),%rax
   12689:	48 83 c0 18          	add    $0x18,%rax
   1268d:	48 89 85 f8 f6 ff ff 	mov    %rax,-0x908(%rbp)
   12694:	48 8d 85 c0 ec ff ff 	lea    -0x1340(%rbp),%rax
   1269b:	48 83 c0 28          	add    $0x28,%rax
   1269f:	48 89 85 00 f7 ff ff 	mov    %rax,-0x900(%rbp)
   126a6:	48 8d 05 9b 23 01 00 	lea    0x1239b(%rip),%rax        # 24a48 <g_2197>
   126ad:	48 89 85 08 f7 ff ff 	mov    %rax,-0x8f8(%rbp)
   126b4:	48 8d 05 19 1b 01 00 	lea    0x11b19(%rip),%rax        # 241d4 <g_102>
   126bb:	48 89 85 10 f7 ff ff 	mov    %rax,-0x8f0(%rbp)
   126c2:	48 8d 85 c0 ec ff ff 	lea    -0x1340(%rbp),%rax
   126c9:	48 83 c0 18          	add    $0x18,%rax
   126cd:	48 89 85 18 f7 ff ff 	mov    %rax,-0x8e8(%rbp)
   126d4:	48 c7 85 20 f7 ff ff 	movq   $0x0,-0x8e0(%rbp)
   126db:	00 00 00 00 
   126df:	48 8d 05 ee 1a 01 00 	lea    0x11aee(%rip),%rax        # 241d4 <g_102>
   126e6:	48 89 85 28 f7 ff ff 	mov    %rax,-0x8d8(%rbp)
   126ed:	48 8d 85 c0 ec ff ff 	lea    -0x1340(%rbp),%rax
   126f4:	48 83 c0 18          	add    $0x18,%rax
   126f8:	48 89 85 30 f7 ff ff 	mov    %rax,-0x8d0(%rbp)
   126ff:	48 8d 05 42 23 01 00 	lea    0x12342(%rip),%rax        # 24a48 <g_2197>
   12706:	48 89 85 38 f7 ff ff 	mov    %rax,-0x8c8(%rbp)
   1270d:	48 8d 85 c0 ec ff ff 	lea    -0x1340(%rbp),%rax
   12714:	48 83 c0 18          	add    $0x18,%rax
   12718:	48 89 85 40 f7 ff ff 	mov    %rax,-0x8c0(%rbp)
   1271f:	48 8d 05 ae 1a 01 00 	lea    0x11aae(%rip),%rax        # 241d4 <g_102>
   12726:	48 89 85 48 f7 ff ff 	mov    %rax,-0x8b8(%rbp)
   1272d:	48 c7 85 50 f7 ff ff 	movq   $0x0,-0x8b0(%rbp)
   12734:	00 00 00 00 
   12738:	48 8d 85 c0 ec ff ff 	lea    -0x1340(%rbp),%rax
   1273f:	48 83 c0 18          	add    $0x18,%rax
   12743:	48 89 85 58 f7 ff ff 	mov    %rax,-0x8a8(%rbp)
   1274a:	48 8d 85 c0 ec ff ff 	lea    -0x1340(%rbp),%rax
   12751:	48 83 c0 34          	add    $0x34,%rax
   12755:	48 89 85 60 f7 ff ff 	mov    %rax,-0x8a0(%rbp)
   1275c:	48 c7 85 68 f7 ff ff 	movq   $0x0,-0x898(%rbp)
   12763:	00 00 00 00 
   12767:	48 8d 05 66 1a 01 00 	lea    0x11a66(%rip),%rax        # 241d4 <g_102>
   1276e:	48 89 85 70 f7 ff ff 	mov    %rax,-0x890(%rbp)
   12775:	48 8d 05 58 1a 01 00 	lea    0x11a58(%rip),%rax        # 241d4 <g_102>
   1277c:	48 89 85 78 f7 ff ff 	mov    %rax,-0x888(%rbp)
   12783:	48 8d 85 c0 ec ff ff 	lea    -0x1340(%rbp),%rax
   1278a:	48 83 c0 28          	add    $0x28,%rax
   1278e:	48 89 85 80 f7 ff ff 	mov    %rax,-0x880(%rbp)
   12795:	48 8d 85 c0 ec ff ff 	lea    -0x1340(%rbp),%rax
   1279c:	48 83 c0 34          	add    $0x34,%rax
   127a0:	48 89 85 88 f7 ff ff 	mov    %rax,-0x878(%rbp)
   127a7:	48 8d 05 26 1a 01 00 	lea    0x11a26(%rip),%rax        # 241d4 <g_102>
   127ae:	48 89 85 90 f7 ff ff 	mov    %rax,-0x870(%rbp)
   127b5:	48 8d 05 18 1a 01 00 	lea    0x11a18(%rip),%rax        # 241d4 <g_102>
   127bc:	48 89 85 98 f7 ff ff 	mov    %rax,-0x868(%rbp)
   127c3:	48 8d 05 0a 1a 01 00 	lea    0x11a0a(%rip),%rax        # 241d4 <g_102>
   127ca:	48 89 85 a0 f7 ff ff 	mov    %rax,-0x860(%rbp)
   127d1:	c7 85 ac e9 ff ff ff 	movl   $0xffffffff,-0x1654(%rbp)
   127d8:	ff ff ff 
   127db:	48 8d 05 66 1b 01 00 	lea    0x11b66(%rip),%rax        # 24348 <g_138>
   127e2:	48 89 85 80 eb ff ff 	mov    %rax,-0x1480(%rbp)
   127e9:	48 8d 85 ac e9 ff ff 	lea    -0x1654(%rbp),%rax
   127f0:	48 89 85 18 eb ff ff 	mov    %rax,-0x14e8(%rbp)
   127f7:	c7 85 d4 e9 ff ff fe 	movl   $0xfffffffe,-0x162c(%rbp)
   127fe:	ff ff ff 
   12801:	c7 85 b0 e9 ff ff ff 	movl   $0xffffffff,-0x1650(%rbp)
   12808:	ff ff ff 
   1280b:	c7 85 b4 e9 ff ff ff 	movl   $0x65a7b9ff,-0x164c(%rbp)
   12812:	b9 a7 65 
   12815:	48 8d 05 ee 21 01 00 	lea    0x121ee(%rip),%rax        # 24a0a <g_2079>
   1281c:	48 89 85 88 eb ff ff 	mov    %rax,-0x1478(%rbp)
   12823:	48 b8 c2 62 8b b4 4b 	movabs $0x603cf04bb48b62c2,%rax
   1282a:	f0 3c 60 
   1282d:	48 89 85 90 eb ff ff 	mov    %rax,-0x1470(%rbp)
   12834:	48 c7 85 00 ed ff ff 	movq   $0x0,-0x1300(%rbp)
   1283b:	00 00 00 00 
   1283f:	48 c7 85 08 ed ff ff 	movq   $0x0,-0x12f8(%rbp)
   12846:	00 00 00 00 
   1284a:	48 c7 85 10 ed ff ff 	movq   $0x0,-0x12f0(%rbp)
   12851:	00 00 00 00 
   12855:	48 c7 85 18 ed ff ff 	movq   $0x0,-0x12e8(%rbp)
   1285c:	00 00 00 00 
   12860:	48 c7 85 20 ed ff ff 	movq   $0x0,-0x12e0(%rbp)
   12867:	00 00 00 00 
   1286b:	48 c7 85 28 ed ff ff 	movq   $0x0,-0x12d8(%rbp)
   12872:	00 00 00 00 
   12876:	48 c7 85 30 ed ff ff 	movq   $0x0,-0x12d0(%rbp)
   1287d:	00 00 00 00 
   12881:	48 c7 85 38 ed ff ff 	movq   $0x0,-0x12c8(%rbp)
   12888:	00 00 00 00 
   1288c:	48 c7 85 40 ed ff ff 	movq   $0x0,-0x12c0(%rbp)
   12893:	00 00 00 00 
   12897:	48 8d 05 5e 19 01 00 	lea    0x1195e(%rip),%rax        # 241fc <g_117+0x1c>
   1289e:	48 89 85 80 ea ff ff 	mov    %rax,-0x1580(%rbp)
   128a5:	c6 85 91 e9 ff ff dd 	movb   $0xdd,-0x166f(%rbp)
   128ac:	48 8d 05 35 7d 01 00 	lea    0x17d35(%rip),%rax        # 2a5e8 <g_2707+0x8>
   128b3:	48 89 85 a0 ec ff ff 	mov    %rax,-0x1360(%rbp)
   128ba:	48 8d 05 27 7d 01 00 	lea    0x17d27(%rip),%rax        # 2a5e8 <g_2707+0x8>
   128c1:	48 89 85 a8 ec ff ff 	mov    %rax,-0x1358(%rbp)
   128c8:	48 8d 05 19 7d 01 00 	lea    0x17d19(%rip),%rax        # 2a5e8 <g_2707+0x8>
   128cf:	48 89 85 b0 ec ff ff 	mov    %rax,-0x1350(%rbp)
   128d6:	48 8d 05 0b 7d 01 00 	lea    0x17d0b(%rip),%rax        # 2a5e8 <g_2707+0x8>
   128dd:	48 89 85 b8 ec ff ff 	mov    %rax,-0x1348(%rbp)
   128e4:	48 c7 85 98 eb ff ff 	movq   $0x0,-0x1468(%rbp)
   128eb:	00 00 00 00 
   128ef:	48 8d 05 f2 5d 01 00 	lea    0x15df2(%rip),%rax        # 286e8 <g_257>
   128f6:	48 89 85 88 ea ff ff 	mov    %rax,-0x1578(%rbp)
   128fd:	48 8d 85 88 ea ff ff 	lea    -0x1578(%rbp),%rax
   12904:	48 89 85 90 ea ff ff 	mov    %rax,-0x1570(%rbp)
   1290b:	48 8d 85 90 ea ff ff 	lea    -0x1570(%rbp),%rax
   12912:	48 89 85 a0 eb ff ff 	mov    %rax,-0x1460(%rbp)
   12919:	66 c7 85 9a e9 ff ff 	movw   $0x1,-0x1666(%rbp)
   12920:	01 00 
   12922:	48 c7 85 a8 eb ff ff 	movq   $0xfffffffffffffffd,-0x1458(%rbp)
   12929:	fd ff ff ff 
   1292d:	0f b7 85 94 e9 ff ff 	movzwl -0x166c(%rbp),%eax
   12934:	0f b7 d8             	movzwl %ax,%ebx
   12937:	4c 8b a5 88 e9 ff ff 	mov    -0x1678(%rbp),%r12
   1293e:	0f b7 85 94 e9 ff ff 	movzwl -0x166c(%rbp),%eax
   12945:	44 0f be e8          	movsbl %al,%r13d
   12949:	48 8b 05 08 5d 01 00 	mov    0x15d08(%rip),%rax        # 28658 <g_167>
   12950:	48 8b 00             	mov    (%rax),%rax
   12953:	8b 00                	mov    (%rax),%eax
   12955:	48 8b 95 88 e9 ff ff 	mov    -0x1678(%rbp),%rdx
   1295c:	89 c6                	mov    %eax,%esi
   1295e:	89 d7                	mov    %edx,%edi
   12960:	e8 a0 ac ff ff       	callq  d605 <safe_sub_func_int32_t_s_s>
   12965:	41 89 c7             	mov    %eax,%r15d
   12968:	8b 85 d8 ec ff ff    	mov    -0x1328(%rbp),%eax
   1296e:	44 0f b6 f0          	movzbl %al,%r14d
   12972:	48 8b 85 78 ea ff ff 	mov    -0x1588(%rbp),%rax
   12979:	48 8b 95 70 ea ff ff 	mov    -0x1590(%rbp),%rdx
   12980:	48 89 10             	mov    %rdx,(%rax)
   12983:	48 8b 00             	mov    (%rax),%rax
   12986:	48 85 c0             	test   %rax,%rax
   12989:	0f 94 c0             	sete   %al
   1298c:	0f b6 d0             	movzbl %al,%edx
   1298f:	0f b7 05 e4 1e 01 00 	movzwl 0x11ee4(%rip),%eax        # 2487a <g_1224>
   12996:	98                   	cwtl   
   12997:	39 c2                	cmp    %eax,%edx
   12999:	0f 9e c0             	setle  %al
   1299c:	0f b6 c0             	movzbl %al,%eax
   1299f:	be 10 83 00 00       	mov    $0x8310,%esi
   129a4:	89 c7                	mov    %eax,%edi
   129a6:	e8 b1 b3 ff ff       	callq  dd5c <safe_mod_func_uint16_t_u_u>
   129ab:	8b 05 c3 19 01 00    	mov    0x119c3(%rip),%eax        # 24374 <g_182+0x14>
   129b1:	25 ff ff ff 0f       	and    $0xfffffff,%eax
   129b6:	85 c0                	test   %eax,%eax
   129b8:	74 11                	je     129cb <func_26+0x15ae>
   129ba:	48 83 bd 88 e9 ff ff 	cmpq   $0x0,-0x1678(%rbp)
   129c1:	00 
   129c2:	74 07                	je     129cb <func_26+0x15ae>
   129c4:	b8 01 00 00 00       	mov    $0x1,%eax
   129c9:	eb 05                	jmp    129d0 <func_26+0x15b3>
   129cb:	b8 00 00 00 00       	mov    $0x0,%eax
   129d0:	48 98                	cltq   
   129d2:	48 39 85 88 e9 ff ff 	cmp    %rax,-0x1678(%rbp)
   129d9:	75 0a                	jne    129e5 <func_26+0x15c8>
   129db:	8b 85 d8 ec ff ff    	mov    -0x1328(%rbp),%eax
   129e1:	85 c0                	test   %eax,%eax
   129e3:	74 07                	je     129ec <func_26+0x15cf>
   129e5:	b8 01 00 00 00       	mov    $0x1,%eax
   129ea:	eb 05                	jmp    129f1 <func_26+0x15d4>
   129ec:	b8 00 00 00 00       	mov    $0x0,%eax
   129f1:	89 c2                	mov    %eax,%edx
   129f3:	8b 85 d8 ec ff ff    	mov    -0x1328(%rbp),%eax
   129f9:	39 c2                	cmp    %eax,%edx
   129fb:	0f 96 c0             	setbe  %al
   129fe:	89 c2                	mov    %eax,%edx
   12a00:	48 8b 85 88 e9 ff ff 	mov    -0x1678(%rbp),%rax
   12a07:	09 d0                	or     %edx,%eax
   12a09:	0f b6 c0             	movzbl %al,%eax
   12a0c:	44 89 f6             	mov    %r14d,%esi
   12a0f:	89 c7                	mov    %eax,%edi
   12a11:	e8 44 b1 ff ff       	callq  db5a <safe_add_func_uint8_t_u_u>
   12a16:	0f b6 c0             	movzbl %al,%eax
   12a19:	41 39 c7             	cmp    %eax,%r15d
   12a1c:	48 81 bd 88 e9 ff ff 	cmpq   $0xf8,-0x1678(%rbp)
   12a23:	f8 00 00 00 
   12a27:	0f 95 c0             	setne  %al
   12a2a:	0f b6 d0             	movzbl %al,%edx
   12a2d:	8b 05 09 20 01 00    	mov    0x12009(%rip),%eax        # 24a3c <g_2185+0xc>
   12a33:	25 ff ff 3f 00       	and    $0x3fffff,%eax
   12a38:	89 c1                	mov    %eax,%ecx
   12a3a:	8b 85 9c e9 ff ff    	mov    -0x1664(%rbp),%eax
   12a40:	21 d0                	and    %edx,%eax
   12a42:	89 85 9c e9 ff ff    	mov    %eax,-0x1664(%rbp)
   12a48:	8b 85 9c e9 ff ff    	mov    -0x1664(%rbp),%eax
   12a4e:	39 c1                	cmp    %eax,%ecx
   12a50:	0f 95 c0             	setne  %al
   12a53:	0f b6 c0             	movzbl %al,%eax
   12a56:	44 89 ee             	mov    %r13d,%esi
   12a59:	89 c7                	mov    %eax,%edi
   12a5b:	e8 b2 a7 ff ff       	callq  d212 <safe_mul_func_int8_t_s_s>
   12a60:	66 0f be d0          	movsbw %al,%dx
   12a64:	0f b7 85 94 e9 ff ff 	movzwl -0x166c(%rbp),%eax
   12a6b:	66 39 c2             	cmp    %ax,%dx
   12a6e:	0f 9e c0             	setle  %al
   12a71:	0f b6 c0             	movzbl %al,%eax
   12a74:	4c 89 e6             	mov    %r12,%rsi
   12a77:	48 89 c7             	mov    %rax,%rdi
   12a7a:	e8 cc b5 ff ff       	callq  e04b <safe_sub_func_uint64_t_u_u>
   12a7f:	48 8b 95 88 e9 ff ff 	mov    -0x1678(%rbp),%rdx
   12a86:	48 39 d0             	cmp    %rdx,%rax
   12a89:	76 07                	jbe    12a92 <func_26+0x1675>
   12a8b:	b8 01 00 00 00       	mov    $0x1,%eax
   12a90:	eb 05                	jmp    12a97 <func_26+0x167a>
   12a92:	b8 00 00 00 00       	mov    $0x0,%eax
   12a97:	0f b7 c0             	movzwl %ax,%eax
   12a9a:	89 de                	mov    %ebx,%esi
   12a9c:	89 c7                	mov    %eax,%edi
   12a9e:	e8 5c b2 ff ff       	callq  dcff <safe_add_func_uint16_t_u_u>
   12aa3:	0f b7 c0             	movzwl %ax,%eax
   12aa6:	89 85 ac e9 ff ff    	mov    %eax,-0x1654(%rbp)
   12aac:	8b 85 ac e9 ff ff    	mov    -0x1654(%rbp),%eax
   12ab2:	89 c2                	mov    %eax,%edx
   12ab4:	0f b7 85 94 e9 ff ff 	movzwl -0x166c(%rbp),%eax
   12abb:	98                   	cwtl   
   12abc:	89 d6                	mov    %edx,%esi
   12abe:	89 c7                	mov    %eax,%edi
   12ac0:	e8 f3 b3 ff ff       	callq  deb8 <safe_add_func_uint32_t_u_u>
   12ac5:	be 0a 00 00 00       	mov    $0xa,%esi
   12aca:	bf 01 00 00 00       	mov    $0x1,%edi
   12acf:	e8 56 aa ff ff       	callq  d52a <safe_rshift_func_int16_t_s_s>
   12ad4:	8b 15 42 1e 01 00    	mov    0x11e42(%rip),%edx        # 2491c <g_1887+0xc>
   12ada:	81 e2 ff ff 3f 00    	and    $0x3fffff,%edx
   12ae0:	98                   	cwtl   
   12ae1:	21 d0                	and    %edx,%eax
   12ae3:	25 ff ff 3f 00       	and    $0x3fffff,%eax
   12ae8:	25 ff ff 3f 00       	and    $0x3fffff,%eax
   12aed:	89 c2                	mov    %eax,%edx
   12aef:	8b 05 27 1e 01 00    	mov    0x11e27(%rip),%eax        # 2491c <g_1887+0xc>
   12af5:	25 00 00 c0 ff       	and    $0xffc00000,%eax
   12afa:	09 d0                	or     %edx,%eax
   12afc:	89 05 1a 1e 01 00    	mov    %eax,0x11e1a(%rip)        # 2491c <g_1887+0xc>
   12b02:	be 02 00 00 00       	mov    $0x2,%esi
   12b07:	bf f9 ff 00 00       	mov    $0xfff9,%edi
   12b0c:	e8 37 b3 ff ff       	callq  de48 <safe_rshift_func_uint16_t_u_s>
   12b11:	0f b7 c0             	movzwl %ax,%eax
   12b14:	48 8b 95 88 e9 ff ff 	mov    -0x1678(%rbp),%rdx
   12b1b:	21 d0                	and    %edx,%eax
   12b1d:	89 c3                	mov    %eax,%ebx
   12b1f:	48 8b 05 c2 5b 01 00 	mov    0x15bc2(%rip),%rax        # 286e8 <g_257>
   12b26:	48 8b 00             	mov    (%rax),%rax
   12b29:	48 8b 08             	mov    (%rax),%rcx
   12b2c:	8b 85 a8 e9 ff ff    	mov    -0x1658(%rbp),%eax
   12b32:	48 63 d0             	movslq %eax,%rdx
   12b35:	48 8b 05 ac 5b 01 00 	mov    0x15bac(%rip),%rax        # 286e8 <g_257>
   12b3c:	48 8b 00             	mov    (%rax),%rax
   12b3f:	48 09 ca             	or     %rcx,%rdx
   12b42:	48 89 10             	mov    %rdx,(%rax)
   12b45:	48 8b 10             	mov    (%rax),%rdx
   12b48:	48 8b 85 78 eb ff ff 	mov    -0x1488(%rbp),%rax
   12b4f:	48 89 10             	mov    %rdx,(%rax)
   12b52:	48 8b 85 78 eb ff ff 	mov    -0x1488(%rbp),%rax
   12b59:	48 8b 00             	mov    (%rax),%rax
   12b5c:	48 89 c7             	mov    %rax,%rdi
   12b5f:	e8 b5 b4 ff ff       	callq  e019 <safe_unary_minus_func_uint64_t_u>
   12b64:	0f b6 c0             	movzbl %al,%eax
   12b67:	89 de                	mov    %ebx,%esi
   12b69:	89 c7                	mov    %eax,%edi
   12b6b:	e8 95 b0 ff ff       	callq  dc05 <safe_lshift_func_uint8_t_u_s>
   12b70:	3c 01                	cmp    $0x1,%al
   12b72:	0f 95 c2             	setne  %dl
   12b75:	48 8b 05 04 64 01 00 	mov    0x16404(%rip),%rax        # 28f80 <g_701>
   12b7c:	48 8b 00             	mov    (%rax),%rax
   12b7f:	0f b6 d2             	movzbl %dl,%edx
   12b82:	89 10                	mov    %edx,(%rax)
   12b84:	48 8b 05 75 26 01 00 	mov    0x12675(%rip),%rax        # 25200 <g_2797>
   12b8b:	89 85 a8 e9 ff ff    	mov    %eax,-0x1658(%rbp)
   12b91:	8b 85 a8 e9 ff ff    	mov    -0x1658(%rbp),%eax
   12b97:	85 c0                	test   %eax,%eax
   12b99:	0f 85 d2 00 00 00    	jne    12c71 <func_26+0x1854>
   12b9f:	48 83 bd 88 e9 ff ff 	cmpq   $0x0,-0x1678(%rbp)
   12ba6:	00 
   12ba7:	0f 84 97 00 00 00    	je     12c44 <func_26+0x1827>
   12bad:	8b 85 d8 ec ff ff    	mov    -0x1328(%rbp),%eax
   12bb3:	3d cb 68 00 00       	cmp    $0x68cb,%eax
   12bb8:	0f 97 c0             	seta   %al
   12bbb:	0f b6 d0             	movzbl %al,%edx
   12bbe:	48 8b 05 03 64 01 00 	mov    0x16403(%rip),%rax        # 28fc8 <g_910>
   12bc5:	48 8b 00             	mov    (%rax),%rax
   12bc8:	0f b7 00             	movzwl (%rax),%eax
   12bcb:	98                   	cwtl   
   12bcc:	39 c2                	cmp    %eax,%edx
   12bce:	0f 95 c0             	setne  %al
   12bd1:	0f b6 d0             	movzbl %al,%edx
   12bd4:	48 8b 85 80 eb ff ff 	mov    -0x1480(%rbp),%rax
   12bdb:	48 89 10             	mov    %rdx,(%rax)
   12bde:	8b 95 a8 e9 ff ff    	mov    -0x1658(%rbp),%edx
   12be4:	8b 85 d8 ec ff ff    	mov    -0x1328(%rbp),%eax
   12bea:	85 c0                	test   %eax,%eax
   12bec:	0f 95 c0             	setne  %al
   12bef:	0f b6 c0             	movzbl %al,%eax
   12bf2:	89 d6                	mov    %edx,%esi
   12bf4:	89 c7                	mov    %eax,%edi
   12bf6:	e8 2f a9 ff ff       	callq  d52a <safe_rshift_func_int16_t_s_s>
   12bfb:	8b 85 a8 e9 ff ff    	mov    -0x1658(%rbp),%eax
   12c01:	85 c0                	test   %eax,%eax
   12c03:	74 11                	je     12c16 <func_26+0x17f9>
   12c05:	8b 85 d8 ec ff ff    	mov    -0x1328(%rbp),%eax
   12c0b:	85 c0                	test   %eax,%eax
   12c0d:	74 07                	je     12c16 <func_26+0x17f9>
   12c0f:	b8 01 00 00 00       	mov    $0x1,%eax
   12c14:	eb 05                	jmp    12c1b <func_26+0x17fe>
   12c16:	b8 00 00 00 00       	mov    $0x0,%eax
   12c1b:	0f b6 c0             	movzbl %al,%eax
   12c1e:	89 c6                	mov    %eax,%esi
   12c20:	bf 01 00 00 00       	mov    $0x1,%edi
   12c25:	e8 4e af ff ff       	callq  db78 <safe_sub_func_uint8_t_u_u>
   12c2a:	0f b6 c0             	movzbl %al,%eax
   12c2d:	be 51 da 07 37       	mov    $0x3707da51,%esi
   12c32:	89 c7                	mov    %eax,%edi
   12c34:	e8 7f b2 ff ff       	callq  deb8 <safe_add_func_uint32_t_u_u>
   12c39:	85 c0                	test   %eax,%eax
   12c3b:	74 07                	je     12c44 <func_26+0x1827>
   12c3d:	b8 01 00 00 00       	mov    $0x1,%eax
   12c42:	eb 05                	jmp    12c49 <func_26+0x182c>
   12c44:	b8 00 00 00 00       	mov    $0x0,%eax
   12c49:	89 85 a8 e9 ff ff    	mov    %eax,-0x1658(%rbp)
   12c4f:	8b 85 a8 e9 ff ff    	mov    -0x1658(%rbp),%eax
   12c55:	89 85 ac e9 ff ff    	mov    %eax,-0x1654(%rbp)
   12c5b:	8b 85 ac e9 ff ff    	mov    -0x1654(%rbp),%eax
   12c61:	48 98                	cltq   
   12c63:	ba fe ff ff ff       	mov    $0xfffffffe,%edx
   12c68:	48 39 d0             	cmp    %rdx,%rax
   12c6b:	0f 84 cb 1f 00 00    	je     14c3c <func_26+0x381f>
   12c71:	48 b8 39 f7 3a 5a 1f 	movabs $0x36c6da1f5a3af739,%rax
   12c78:	da c6 36 
   12c7b:	48 89 85 f8 eb ff ff 	mov    %rax,-0x1408(%rbp)
   12c82:	c7 85 0c ea ff ff fe 	movl   $0xfffffffe,-0x15f4(%rbp)
   12c89:	ff ff ff 
   12c8c:	48 c7 85 00 ec ff ff 	movq   $0x0,-0x1400(%rbp)
   12c93:	00 00 00 00 
   12c97:	c7 85 d8 e9 ff ff f6 	movl   $0xfffffff6,-0x1628(%rbp)
   12c9e:	ff ff ff 
   12ca1:	c7 85 10 ea ff ff e0 	movl   $0xfcd60de0,-0x15f0(%rbp)
   12ca8:	0d d6 fc 
   12cab:	c7 85 dc e9 ff ff 00 	movl   $0x0,-0x1624(%rbp)
   12cb2:	00 00 00 
   12cb5:	eb 1a                	jmp    12cd1 <func_26+0x18b4>
   12cb7:	8b 85 dc e9 ff ff    	mov    -0x1624(%rbp),%eax
   12cbd:	48 98                	cltq   
   12cbf:	c7 84 85 80 ec ff ff 	movl   $0x0,-0x1380(%rbp,%rax,4)
   12cc6:	00 00 00 00 
   12cca:	83 85 dc e9 ff ff 01 	addl   $0x1,-0x1624(%rbp)
   12cd1:	83 bd dc e9 ff ff 06 	cmpl   $0x6,-0x1624(%rbp)
   12cd8:	7e dd                	jle    12cb7 <func_26+0x189a>
   12cda:	c6 05 ef 14 01 00 00 	movb   $0x0,0x114ef(%rip)        # 241d0 <g_82>
   12ce1:	e9 fd 06 00 00       	jmpq   133e3 <func_26+0x1fc6>
   12ce6:	c7 85 14 ea ff ff 09 	movl   $0x9,-0x15ec(%rbp)
   12ced:	00 00 00 
   12cf0:	c7 85 18 ea ff ff ff 	movl   $0xffffffff,-0x15e8(%rbp)
   12cf7:	ff ff ff 
   12cfa:	48 8d 85 28 ea ff ff 	lea    -0x15d8(%rbp),%rax
   12d01:	48 89 85 08 ec ff ff 	mov    %rax,-0x13f8(%rbp)
   12d08:	c7 85 1c ea ff ff 00 	movl   $0x0,-0x15e4(%rbp)
   12d0f:	00 00 00 
   12d12:	c7 85 20 ea ff ff 3e 	movl   $0x2b13e93e,-0x15e0(%rbp)
   12d19:	e9 13 2b 
   12d1c:	48 83 bd 88 e9 ff ff 	cmpq   $0x0,-0x1678(%rbp)
   12d23:	00 
   12d24:	0f 85 ca 06 00 00    	jne    133f4 <func_26+0x1fd7>
   12d2a:	8b 85 ac e9 ff ff    	mov    -0x1654(%rbp),%eax
   12d30:	48 63 d8             	movslq %eax,%rbx
   12d33:	81 b5 14 ea ff ff 8f 	xorl   $0x8f,-0x15ec(%rbp)
   12d3a:	00 00 00 
   12d3d:	48 8b 85 88 e9 ff ff 	mov    -0x1678(%rbp),%rax
   12d44:	0b 85 14 ea ff ff    	or     -0x15ec(%rbp),%eax
   12d4a:	89 c2                	mov    %eax,%edx
   12d4c:	8b 85 18 ea ff ff    	mov    -0x15e8(%rbp),%eax
   12d52:	09 d0                	or     %edx,%eax
   12d54:	83 c8 fe             	or     $0xfffffffe,%eax
   12d57:	83 f0 03             	xor    $0x3,%eax
   12d5a:	89 c6                	mov    %eax,%esi
   12d5c:	bf 65 1a 00 00       	mov    $0x1a65,%edi
   12d61:	e8 e2 b0 ff ff       	callq  de48 <safe_rshift_func_uint16_t_u_s>
   12d66:	0f b7 c0             	movzwl %ax,%eax
   12d69:	be 05 00 00 00       	mov    $0x5,%esi
   12d6e:	89 c7                	mov    %eax,%edi
   12d70:	e8 05 b1 ff ff       	callq  de7a <safe_rshift_func_uint16_t_u_u>
   12d75:	0f b7 c0             	movzwl %ax,%eax
   12d78:	48 23 85 88 e9 ff ff 	and    -0x1678(%rbp),%rax
   12d7f:	48 8b 95 f8 eb ff ff 	mov    -0x1408(%rbp),%rdx
   12d86:	48 89 de             	mov    %rbx,%rsi
   12d89:	48 89 c7             	mov    %rax,%rdi
   12d8c:	e8 a5 4a 00 00       	callq  17836 <func_55>
   12d91:	48 89 85 28 ea ff ff 	mov    %rax,-0x15d8(%rbp)
   12d98:	48 8b 85 08 ec ff ff 	mov    -0x13f8(%rbp),%rax
   12d9f:	48 8d 95 9c e9 ff ff 	lea    -0x1664(%rbp),%rdx
   12da6:	48 89 10             	mov    %rdx,(%rax)
   12da9:	48 8b 85 08 ec ff ff 	mov    -0x13f8(%rbp),%rax
   12db0:	48 8b 00             	mov    (%rax),%rax
   12db3:	48 89 85 18 eb ff ff 	mov    %rax,-0x14e8(%rbp)
   12dba:	48 8b 05 1f 68 01 00 	mov    0x1681f(%rip),%rax        # 295e0 <g_1532>
   12dc1:	0f b7 10             	movzwl (%rax),%edx
   12dc4:	83 ea 01             	sub    $0x1,%edx
   12dc7:	66 89 10             	mov    %dx,(%rax)
   12dca:	0f b7 00             	movzwl (%rax),%eax
   12dcd:	0f b7 d0             	movzwl %ax,%edx
   12dd0:	48 83 bd 88 e9 ff ff 	cmpq   $0x0,-0x1678(%rbp)
   12dd7:	00 
   12dd8:	74 30                	je     12e0a <func_26+0x19ed>
   12dda:	48 8d 05 e7 16 01 00 	lea    0x116e7(%rip),%rax        # 244c8 <g_703>
   12de1:	c7 00 7d e4 ba 86    	movl   $0x86bae47d,(%rax)
   12de7:	8b 05 e7 13 01 00    	mov    0x113e7(%rip),%eax        # 241d4 <g_102>
   12ded:	83 c0 01             	add    $0x1,%eax
   12df0:	89 05 de 13 01 00    	mov    %eax,0x113de(%rip)        # 241d4 <g_102>
   12df6:	8b 05 d8 13 01 00    	mov    0x113d8(%rip),%eax        # 241d4 <g_102>
   12dfc:	3d 7d e4 ba 86       	cmp    $0x86bae47d,%eax
   12e01:	74 07                	je     12e0a <func_26+0x19ed>
   12e03:	b8 01 00 00 00       	mov    $0x1,%eax
   12e08:	eb 05                	jmp    12e0f <func_26+0x19f2>
   12e0a:	b8 00 00 00 00       	mov    $0x0,%eax
   12e0f:	48 98                	cltq   
   12e11:	48 33 85 88 e9 ff ff 	xor    -0x1678(%rbp),%rax
   12e18:	48 89 c1             	mov    %rax,%rcx
   12e1b:	48 83 bd 88 eb ff ff 	cmpq   $0x0,-0x1478(%rbp)
   12e22:	00 
   12e23:	0f 95 c0             	setne  %al
   12e26:	0f b6 c0             	movzbl %al,%eax
   12e29:	89 85 8c ec ff ff    	mov    %eax,-0x1374(%rbp)
   12e2f:	8b 85 8c ec ff ff    	mov    -0x1374(%rbp),%eax
   12e35:	85 c0                	test   %eax,%eax
   12e37:	0f 9f c0             	setg   %al
   12e3a:	0f b6 c0             	movzbl %al,%eax
   12e3d:	48 39 c1             	cmp    %rax,%rcx
   12e40:	0f 9e c0             	setle  %al
   12e43:	0f b6 c0             	movzbl %al,%eax
   12e46:	31 d0                	xor    %edx,%eax
   12e48:	83 f8 05             	cmp    $0x5,%eax
   12e4b:	0f 95 c0             	setne  %al
   12e4e:	0f b6 c0             	movzbl %al,%eax
   12e51:	39 85 d4 e9 ff ff    	cmp    %eax,-0x162c(%rbp)
   12e57:	0f 9e c0             	setle  %al
   12e5a:	0f b6 c0             	movzbl %al,%eax
   12e5d:	48 33 85 88 e9 ff ff 	xor    -0x1678(%rbp),%rax
   12e64:	48 3d c8 00 00 00    	cmp    $0xc8,%rax
   12e6a:	0f 84 60 01 00 00    	je     12fd0 <func_26+0x1bb3>
   12e70:	48 8d 05 55 82 01 00 	lea    0x18255(%rip),%rax        # 2b0cc <g_73>
   12e77:	48 89 85 10 ec ff ff 	mov    %rax,-0x13f0(%rbp)
   12e7e:	48 8d 05 f3 19 01 00 	lea    0x119f3(%rip),%rax        # 24878 <g_1151>
   12e85:	48 89 85 18 ec ff ff 	mov    %rax,-0x13e8(%rbp)
   12e8c:	48 8b 85 18 eb ff ff 	mov    -0x14e8(%rbp),%rax
   12e93:	8b 00                	mov    (%rax),%eax
   12e95:	48 63 d8             	movslq %eax,%rbx
   12e98:	48 8b 85 08 ec ff ff 	mov    -0x13f8(%rbp),%rax
   12e9f:	48 8b 00             	mov    (%rax),%rax
   12ea2:	44 8b 20             	mov    (%rax),%r12d
   12ea5:	48 8b 85 88 e9 ff ff 	mov    -0x1678(%rbp),%rax
   12eac:	41 89 c5             	mov    %eax,%r13d
   12eaf:	48 8b 85 88 e9 ff ff 	mov    -0x1678(%rbp),%rax
   12eb6:	41 89 c6             	mov    %eax,%r14d
   12eb9:	48 8b 05 50 60 01 00 	mov    0x16050(%rip),%rax        # 28f10 <g_353>
   12ec0:	48 8b 00             	mov    (%rax),%rax
   12ec3:	0f b6 00             	movzbl (%rax),%eax
   12ec6:	0f b6 d0             	movzbl %al,%edx
   12ec9:	48 8b 85 88 e9 ff ff 	mov    -0x1678(%rbp),%rax
   12ed0:	89 c1                	mov    %eax,%ecx
   12ed2:	48 8b 85 18 ec ff ff 	mov    -0x13e8(%rbp),%rax
   12ed9:	88 08                	mov    %cl,(%rax)
   12edb:	b8 01 00 00 00       	mov    $0x1,%eax
   12ee0:	0f b6 c0             	movzbl %al,%eax
   12ee3:	89 d6                	mov    %edx,%esi
   12ee5:	89 c7                	mov    %eax,%edi
   12ee7:	e8 60 ad ff ff       	callq  dc4c <safe_lshift_func_uint8_t_u_u>
   12eec:	48 8b 85 c8 ea ff ff 	mov    -0x1538(%rbp),%rax
   12ef3:	48 3b 85 10 ec ff ff 	cmp    -0x13f0(%rbp),%rax
   12efa:	0f 94 c0             	sete   %al
   12efd:	0f b6 c0             	movzbl %al,%eax
   12f00:	44 89 f6             	mov    %r14d,%esi
   12f03:	89 c7                	mov    %eax,%edi
   12f05:	e8 42 ad ff ff       	callq  dc4c <safe_lshift_func_uint8_t_u_u>
   12f0a:	0f be c0             	movsbl %al,%eax
   12f0d:	44 89 ee             	mov    %r13d,%esi
   12f10:	89 c7                	mov    %eax,%edi
   12f12:	e8 8a a3 ff ff       	callq  d2a1 <safe_lshift_func_int8_t_s_s>
   12f17:	0f be c0             	movsbl %al,%eax
   12f1a:	41 39 c4             	cmp    %eax,%r12d
   12f1d:	0f 94 c0             	sete   %al
   12f20:	0f b6 d0             	movzbl %al,%edx
   12f23:	48 8b 85 28 ea ff ff 	mov    -0x15d8(%rbp),%rax
   12f2a:	8b 00                	mov    (%rax),%eax
   12f2c:	39 c2                	cmp    %eax,%edx
   12f2e:	0f 95 c0             	setne  %al
   12f31:	0f b6 c0             	movzbl %al,%eax
   12f34:	48 8b 15 25 61 01 00 	mov    0x16125(%rip),%rdx        # 29060 <g_1011>
   12f3b:	4c 8b 22             	mov    (%rdx),%r12
   12f3e:	48 8b 8d 88 e9 ff ff 	mov    -0x1678(%rbp),%rcx
   12f45:	48 89 da             	mov    %rbx,%rdx
   12f48:	48 89 ce             	mov    %rcx,%rsi
   12f4b:	48 89 c7             	mov    %rax,%rdi
   12f4e:	e8 e3 48 00 00       	callq  17836 <func_55>
   12f53:	49 89 04 24          	mov    %rax,(%r12)
   12f57:	c7 05 63 11 01 00 00 	movl   $0x0,0x11163(%rip)        # 240c4 <g_35>
   12f5e:	00 00 00 
   12f61:	eb 5e                	jmp    12fc1 <func_26+0x1ba4>
   12f63:	8b 05 77 19 01 00    	mov    0x11977(%rip),%eax        # 248e0 <g_1741>
   12f69:	8d 48 02             	lea    0x2(%rax),%ecx
   12f6c:	0f b6 05 5d 12 01 00 	movzbl 0x1125d(%rip),%eax        # 241d0 <g_82>
   12f73:	0f b6 c0             	movzbl %al,%eax
   12f76:	48 63 d0             	movslq %eax,%rdx
   12f79:	48 63 c1             	movslq %ecx,%rax
   12f7c:	48 01 d0             	add    %rdx,%rax
   12f7f:	48 8d 14 c5 00 00 00 	lea    0x0(,%rax,8),%rdx
   12f86:	00 
   12f87:	48 8d 05 b2 12 01 00 	lea    0x112b2(%rip),%rax        # 24240 <g_121>
   12f8e:	48 8b 04 02          	mov    (%rdx,%rax,1),%rax
   12f92:	48 85 c0             	test   %rax,%rax
   12f95:	0f 85 37 04 00 00    	jne    133d2 <func_26+0x1fb5>
   12f9b:	48 8b 15 06 60 01 00 	mov    0x16006(%rip),%rdx        # 28fa8 <g_784>
   12fa2:	48 8b 05 b7 60 01 00 	mov    0x160b7(%rip),%rax        # 29060 <g_1011>
   12fa9:	48 8b 00             	mov    (%rax),%rax
   12fac:	48 8b 12             	mov    (%rdx),%rdx
   12faf:	48 89 10             	mov    %rdx,(%rax)
   12fb2:	8b 05 0c 11 01 00    	mov    0x1110c(%rip),%eax        # 240c4 <g_35>
   12fb8:	83 e8 01             	sub    $0x1,%eax
   12fbb:	89 05 03 11 01 00    	mov    %eax,0x11103(%rip)        # 240c4 <g_35>
   12fc1:	8b 05 fd 10 01 00    	mov    0x110fd(%rip),%eax        # 240c4 <g_35>
   12fc7:	85 c0                	test   %eax,%eax
   12fc9:	79 98                	jns    12f63 <func_26+0x1b46>
   12fcb:	e9 03 04 00 00       	jmpq   133d3 <func_26+0x1fb6>
   12fd0:	66 c7 85 50 ed ff ff 	movw   $0x9ec4,-0x12b0(%rbp)
   12fd7:	c4 9e 
   12fd9:	66 c7 85 52 ed ff ff 	movw   $0x6,-0x12ae(%rbp)
   12fe0:	06 00 
   12fe2:	66 c7 85 54 ed ff ff 	movw   $0x9ec4,-0x12ac(%rbp)
   12fe9:	c4 9e 
   12feb:	66 c7 85 56 ed ff ff 	movw   $0x2751,-0x12aa(%rbp)
   12ff2:	51 27 
   12ff4:	66 c7 85 58 ed ff ff 	movw   $0x888,-0x12a8(%rbp)
   12ffb:	88 08 
   12ffd:	66 c7 85 5a ed ff ff 	movw   $0x5,-0x12a6(%rbp)
   13004:	05 00 
   13006:	66 c7 85 5c ed ff ff 	movw   $0x5181,-0x12a4(%rbp)
   1300d:	81 51 
   1300f:	66 c7 85 5e ed ff ff 	movw   $0x5,-0x12a2(%rbp)
   13016:	05 00 
   13018:	66 c7 85 60 ed ff ff 	movw   $0x0,-0x12a0(%rbp)
   1301f:	00 00 
   13021:	66 c7 85 62 ed ff ff 	movw   $0x2751,-0x129e(%rbp)
   13028:	51 27 
   1302a:	66 c7 85 64 ed ff ff 	movw   $0x9cc8,-0x129c(%rbp)
   13031:	c8 9c 
   13033:	66 c7 85 66 ed ff ff 	movw   $0x2751,-0x129a(%rbp)
   1303a:	51 27 
   1303c:	66 c7 85 68 ed ff ff 	movw   $0x0,-0x1298(%rbp)
   13043:	00 00 
   13045:	66 c7 85 6a ed ff ff 	movw   $0xb8b5,-0x1296(%rbp)
   1304c:	b5 b8 
   1304e:	66 c7 85 6c ed ff ff 	movw   $0x888,-0x1294(%rbp)
   13055:	88 08 
   13057:	66 c7 85 6e ed ff ff 	movw   $0xb815,-0x1292(%rbp)
   1305e:	15 b8 
   13060:	66 c7 85 70 ed ff ff 	movw   $0x0,-0x1290(%rbp)
   13067:	00 00 
   13069:	66 c7 85 72 ed ff ff 	movw   $0xb8b5,-0x128e(%rbp)
   13070:	b5 b8 
   13072:	66 c7 85 74 ed ff ff 	movw   $0x888,-0x128c(%rbp)
   13079:	88 08 
   1307b:	66 c7 85 76 ed ff ff 	movw   $0xb815,-0x128a(%rbp)
   13082:	15 b8 
   13084:	66 c7 85 78 ed ff ff 	movw   $0x888,-0x1288(%rbp)
   1308b:	88 08 
   1308d:	66 c7 85 7a ed ff ff 	movw   $0xb8b5,-0x1286(%rbp)
   13094:	b5 b8 
   13096:	66 c7 85 7c ed ff ff 	movw   $0x0,-0x1284(%rbp)
   1309d:	00 00 
   1309f:	66 c7 85 7e ed ff ff 	movw   $0x2751,-0x1282(%rbp)
   130a6:	51 27 
   130a8:	66 c7 85 80 ed ff ff 	movw   $0x9ec4,-0x1280(%rbp)
   130af:	c4 9e 
   130b1:	66 c7 85 82 ed ff ff 	movw   $0x2751,-0x127e(%rbp)
   130b8:	51 27 
   130ba:	66 c7 85 84 ed ff ff 	movw   $0x888,-0x127c(%rbp)
   130c1:	88 08 
   130c3:	66 c7 85 86 ed ff ff 	movw   $0x5,-0x127a(%rbp)
   130ca:	05 00 
   130cc:	66 c7 85 88 ed ff ff 	movw   $0x5181,-0x1278(%rbp)
   130d3:	81 51 
   130d5:	66 c7 85 8a ed ff ff 	movw   $0x5,-0x1276(%rbp)
   130dc:	05 00 
   130de:	66 c7 85 8c ed ff ff 	movw   $0x888,-0x1274(%rbp)
   130e5:	88 08 
   130e7:	66 c7 85 8e ed ff ff 	movw   $0x2751,-0x1272(%rbp)
   130ee:	51 27 
   130f0:	66 c7 85 90 ed ff ff 	movw   $0x888,-0x1270(%rbp)
   130f7:	88 08 
   130f9:	66 c7 85 92 ed ff ff 	movw   $0x6,-0x126e(%rbp)
   13100:	06 00 
   13102:	66 c7 85 94 ed ff ff 	movw   $0x9cc8,-0x126c(%rbp)
   13109:	c8 9c 
   1310b:	66 c7 85 96 ed ff ff 	movw   $0xb815,-0x126a(%rbp)
   13112:	15 b8 
   13114:	66 c7 85 98 ed ff ff 	movw   $0x5181,-0x1268(%rbp)
   1311b:	81 51 
   1311d:	66 c7 85 9a ed ff ff 	movw   $0x2751,-0x1266(%rbp)
   13124:	51 27 
   13126:	66 c7 85 9c ed ff ff 	movw   $0x5181,-0x1264(%rbp)
   1312d:	81 51 
   1312f:	66 c7 85 9e ed ff ff 	movw   $0xb815,-0x1262(%rbp)
   13136:	15 b8 
   13138:	48 8d 85 80 ec ff ff 	lea    -0x1380(%rbp),%rax
   1313f:	48 83 c0 0c          	add    $0xc,%rax
   13143:	48 89 85 b0 f7 ff ff 	mov    %rax,-0x850(%rbp)
   1314a:	48 8d 85 80 ec ff ff 	lea    -0x1380(%rbp),%rax
   13151:	48 83 c0 0c          	add    $0xc,%rax
   13155:	48 89 85 b8 f7 ff ff 	mov    %rax,-0x848(%rbp)
   1315c:	48 8d 85 80 ec ff ff 	lea    -0x1380(%rbp),%rax
   13163:	48 83 c0 0c          	add    $0xc,%rax
   13167:	48 89 85 c0 f7 ff ff 	mov    %rax,-0x840(%rbp)
   1316e:	48 8d 85 80 ec ff ff 	lea    -0x1380(%rbp),%rax
   13175:	48 83 c0 0c          	add    $0xc,%rax
   13179:	48 89 85 c8 f7 ff ff 	mov    %rax,-0x838(%rbp)
   13180:	48 8d 85 80 ec ff ff 	lea    -0x1380(%rbp),%rax
   13187:	48 83 c0 0c          	add    $0xc,%rax
   1318b:	48 89 85 d0 f7 ff ff 	mov    %rax,-0x830(%rbp)
   13192:	48 8d 85 80 ec ff ff 	lea    -0x1380(%rbp),%rax
   13199:	48 83 c0 0c          	add    $0xc,%rax
   1319d:	48 89 85 d8 f7 ff ff 	mov    %rax,-0x828(%rbp)
   131a4:	48 8d 85 80 ec ff ff 	lea    -0x1380(%rbp),%rax
   131ab:	48 83 c0 0c          	add    $0xc,%rax
   131af:	48 89 85 e0 f7 ff ff 	mov    %rax,-0x820(%rbp)
   131b6:	48 8d 85 80 ec ff ff 	lea    -0x1380(%rbp),%rax
   131bd:	48 83 c0 0c          	add    $0xc,%rax
   131c1:	48 89 85 e8 f7 ff ff 	mov    %rax,-0x818(%rbp)
   131c8:	48 8d 85 80 ec ff ff 	lea    -0x1380(%rbp),%rax
   131cf:	48 83 c0 0c          	add    $0xc,%rax
   131d3:	48 89 85 f0 f7 ff ff 	mov    %rax,-0x810(%rbp)
   131da:	48 8d 85 80 ec ff ff 	lea    -0x1380(%rbp),%rax
   131e1:	48 83 c0 0c          	add    $0xc,%rax
   131e5:	48 89 85 f8 f7 ff ff 	mov    %rax,-0x808(%rbp)
   131ec:	48 8d 85 80 ec ff ff 	lea    -0x1380(%rbp),%rax
   131f3:	48 83 c0 0c          	add    $0xc,%rax
   131f7:	48 89 85 00 f8 ff ff 	mov    %rax,-0x800(%rbp)
   131fe:	48 8d 85 80 ec ff ff 	lea    -0x1380(%rbp),%rax
   13205:	48 83 c0 0c          	add    $0xc,%rax
   13209:	48 89 85 08 f8 ff ff 	mov    %rax,-0x7f8(%rbp)
   13210:	48 8d 85 80 ec ff ff 	lea    -0x1380(%rbp),%rax
   13217:	48 83 c0 0c          	add    $0xc,%rax
   1321b:	48 89 85 10 f8 ff ff 	mov    %rax,-0x7f0(%rbp)
   13222:	48 8d 85 80 ec ff ff 	lea    -0x1380(%rbp),%rax
   13229:	48 83 c0 0c          	add    $0xc,%rax
   1322d:	48 89 85 18 f8 ff ff 	mov    %rax,-0x7e8(%rbp)
   13234:	48 8d 85 80 ec ff ff 	lea    -0x1380(%rbp),%rax
   1323b:	48 83 c0 0c          	add    $0xc,%rax
   1323f:	48 89 85 20 f8 ff ff 	mov    %rax,-0x7e0(%rbp)
   13246:	48 8d 85 80 ec ff ff 	lea    -0x1380(%rbp),%rax
   1324d:	48 83 c0 0c          	add    $0xc,%rax
   13251:	48 89 85 28 f8 ff ff 	mov    %rax,-0x7d8(%rbp)
   13258:	48 8d 85 80 ec ff ff 	lea    -0x1380(%rbp),%rax
   1325f:	48 83 c0 0c          	add    $0xc,%rax
   13263:	48 89 85 30 f8 ff ff 	mov    %rax,-0x7d0(%rbp)
   1326a:	48 8d 85 80 ec ff ff 	lea    -0x1380(%rbp),%rax
   13271:	48 83 c0 0c          	add    $0xc,%rax
   13275:	48 89 85 38 f8 ff ff 	mov    %rax,-0x7c8(%rbp)
   1327c:	48 8d 85 80 ec ff ff 	lea    -0x1380(%rbp),%rax
   13283:	48 83 c0 0c          	add    $0xc,%rax
   13287:	48 89 85 40 f8 ff ff 	mov    %rax,-0x7c0(%rbp)
   1328e:	48 8d 85 80 ec ff ff 	lea    -0x1380(%rbp),%rax
   13295:	48 83 c0 0c          	add    $0xc,%rax
   13299:	48 89 85 48 f8 ff ff 	mov    %rax,-0x7b8(%rbp)
   132a0:	48 8d 85 80 ec ff ff 	lea    -0x1380(%rbp),%rax
   132a7:	48 83 c0 0c          	add    $0xc,%rax
   132ab:	48 89 85 50 f8 ff ff 	mov    %rax,-0x7b0(%rbp)
   132b2:	48 8d 85 80 ec ff ff 	lea    -0x1380(%rbp),%rax
   132b9:	48 83 c0 0c          	add    $0xc,%rax
   132bd:	48 89 85 58 f8 ff ff 	mov    %rax,-0x7a8(%rbp)
   132c4:	48 8d 85 80 ec ff ff 	lea    -0x1380(%rbp),%rax
   132cb:	48 83 c0 0c          	add    $0xc,%rax
   132cf:	48 89 85 60 f8 ff ff 	mov    %rax,-0x7a0(%rbp)
   132d6:	48 8d 85 80 ec ff ff 	lea    -0x1380(%rbp),%rax
   132dd:	48 83 c0 0c          	add    $0xc,%rax
   132e1:	48 89 85 68 f8 ff ff 	mov    %rax,-0x798(%rbp)
   132e8:	48 8d 85 80 ec ff ff 	lea    -0x1380(%rbp),%rax
   132ef:	48 83 c0 0c          	add    $0xc,%rax
   132f3:	48 89 85 70 f8 ff ff 	mov    %rax,-0x790(%rbp)
   132fa:	48 8d 85 80 ec ff ff 	lea    -0x1380(%rbp),%rax
   13301:	48 83 c0 0c          	add    $0xc,%rax
   13305:	48 89 85 78 f8 ff ff 	mov    %rax,-0x788(%rbp)
   1330c:	48 8d 85 80 ec ff ff 	lea    -0x1380(%rbp),%rax
   13313:	48 83 c0 0c          	add    $0xc,%rax
   13317:	48 89 85 80 f8 ff ff 	mov    %rax,-0x780(%rbp)
   1331e:	48 8d 85 80 ec ff ff 	lea    -0x1380(%rbp),%rax
   13325:	48 83 c0 0c          	add    $0xc,%rax
   13329:	48 89 85 88 f8 ff ff 	mov    %rax,-0x778(%rbp)
   13330:	48 8d 85 80 ec ff ff 	lea    -0x1380(%rbp),%rax
   13337:	48 83 c0 0c          	add    $0xc,%rax
   1333b:	48 89 85 90 f8 ff ff 	mov    %rax,-0x770(%rbp)
   13342:	48 8d 85 80 ec ff ff 	lea    -0x1380(%rbp),%rax
   13349:	48 83 c0 0c          	add    $0xc,%rax
   1334d:	48 89 85 98 f8 ff ff 	mov    %rax,-0x768(%rbp)
   13354:	48 8d 85 80 ec ff ff 	lea    -0x1380(%rbp),%rax
   1335b:	48 83 c0 0c          	add    $0xc,%rax
   1335f:	48 89 85 a0 f8 ff ff 	mov    %rax,-0x760(%rbp)
   13366:	48 8d 85 80 ec ff ff 	lea    -0x1380(%rbp),%rax
   1336d:	48 83 c0 0c          	add    $0xc,%rax
   13371:	48 89 85 a8 f8 ff ff 	mov    %rax,-0x758(%rbp)
   13378:	48 8d 85 80 ec ff ff 	lea    -0x1380(%rbp),%rax
   1337f:	48 83 c0 0c          	add    $0xc,%rax
   13383:	48 89 85 b0 f8 ff ff 	mov    %rax,-0x750(%rbp)
   1338a:	48 8d 85 80 ec ff ff 	lea    -0x1380(%rbp),%rax
   13391:	48 83 c0 0c          	add    $0xc,%rax
   13395:	48 89 85 b8 f8 ff ff 	mov    %rax,-0x748(%rbp)
   1339c:	48 8d 85 80 ec ff ff 	lea    -0x1380(%rbp),%rax
   133a3:	48 83 c0 0c          	add    $0xc,%rax
   133a7:	48 89 85 c0 f8 ff ff 	mov    %rax,-0x740(%rbp)
   133ae:	48 8d 85 80 ec ff ff 	lea    -0x1380(%rbp),%rax
   133b5:	48 83 c0 0c          	add    $0xc,%rax
   133b9:	48 89 85 c8 f8 ff ff 	mov    %rax,-0x738(%rbp)
   133c0:	66 c7 85 98 ed ff ff 	movw   $0xf888,-0x1268(%rbp)
   133c7:	88 f8 
   133c9:	83 ad 20 ea ff ff 01 	subl   $0x1,-0x15e0(%rbp)
   133d0:	eb 01                	jmp    133d3 <func_26+0x1fb6>
   133d2:	90                   	nop
   133d3:	0f b6 05 f6 0d 01 00 	movzbl 0x10df6(%rip),%eax        # 241d0 <g_82>
   133da:	83 c0 01             	add    $0x1,%eax
   133dd:	88 05 ed 0d 01 00    	mov    %al,0x10ded(%rip)        # 241d0 <g_82>
   133e3:	0f b6 05 e6 0d 01 00 	movzbl 0x10de6(%rip),%eax        # 241d0 <g_82>
   133ea:	84 c0                	test   %al,%al
   133ec:	0f 84 f4 f8 ff ff    	je     12ce6 <func_26+0x18c9>
   133f2:	eb 01                	jmp    133f5 <func_26+0x1fd8>
   133f4:	90                   	nop
   133f5:	c7 05 49 16 01 00 02 	movl   $0x2,0x11649(%rip)        # 24a48 <g_2197>
   133fc:	00 00 00 
   133ff:	e9 e0 17 00 00       	jmpq   14be4 <func_26+0x37c7>
   13404:	c7 85 24 ea ff ff 05 	movl   $0x5,-0x15dc(%rbp)
   1340b:	00 00 00 
   1340e:	c6 85 93 e9 ff ff ff 	movb   $0xff,-0x166d(%rbp)
   13415:	c7 85 50 ed ff ff 62 	movl   $0xc9aa9962,-0x12b0(%rbp)
   1341c:	99 aa c9 
   1341f:	c7 85 54 ed ff ff 55 	movl   $0x535b4855,-0x12ac(%rbp)
   13426:	48 5b 53 
   13429:	c7 85 58 ed ff ff 55 	movl   $0x535b4855,-0x12a8(%rbp)
   13430:	48 5b 53 
   13433:	c7 85 5c ed ff ff 62 	movl   $0xc9aa9962,-0x12a4(%rbp)
   1343a:	99 aa c9 
   1343d:	c7 85 60 ed ff ff 55 	movl   $0x535b4855,-0x12a0(%rbp)
   13444:	48 5b 53 
   13447:	c7 85 64 ed ff ff 55 	movl   $0x535b4855,-0x129c(%rbp)
   1344e:	48 5b 53 
   13451:	48 8d 85 c0 ec ff ff 	lea    -0x1340(%rbp),%rax
   13458:	48 83 c0 30          	add    $0x30,%rax
   1345c:	48 89 85 10 eb ff ff 	mov    %rax,-0x14f0(%rbp)
   13463:	48 8d 05 de 7c 01 00 	lea    0x17cde(%rip),%rax        # 2b148 <g_2431>
   1346a:	48 89 85 20 ec ff ff 	mov    %rax,-0x13e0(%rbp)
   13471:	48 c7 85 28 ec ff ff 	movq   $0x0,-0x13d8(%rbp)
   13478:	00 00 00 00 
   1347c:	48 8d 85 80 ea ff ff 	lea    -0x1580(%rbp),%rax
   13483:	48 89 85 30 ec ff ff 	mov    %rax,-0x13d0(%rbp)
   1348a:	48 b8 01 94 9c 94 9c 	movabs $0x9c949c9c949c9401,%rax
   13491:	9c 94 9c 
   13494:	48 89 45 bf          	mov    %rax,-0x41(%rbp)
   13498:	c6 45 c7 9c          	movb   $0x9c,-0x39(%rbp)
   1349c:	c7 85 d4 e9 ff ff 00 	movl   $0x0,-0x162c(%rbp)
   134a3:	00 00 00 
   134a6:	e9 7c 14 00 00       	jmpq   14927 <func_26+0x350a>
   134ab:	48 b8 ed 7a 9a b2 a8 	movabs $0xdbb3daa8b29a7aed,%rax
   134b2:	da b3 db 
   134b5:	48 89 85 38 ec ff ff 	mov    %rax,-0x13c8(%rbp)
   134bc:	48 8d 05 dd 70 01 00 	lea    0x170dd(%rip),%rax        # 2a5a0 <g_2684>
   134c3:	48 89 85 a8 ea ff ff 	mov    %rax,-0x1558(%rbp)
   134ca:	48 8d 85 a8 ea ff ff 	lea    -0x1558(%rbp),%rax
   134d1:	48 89 85 40 ec ff ff 	mov    %rax,-0x13c0(%rbp)
   134d8:	48 c7 85 48 ec ff ff 	movq   $0x0,-0x13b8(%rbp)
   134df:	00 00 00 00 
   134e3:	48 8d 85 c0 ec ff ff 	lea    -0x1340(%rbp),%rax
   134ea:	48 83 c0 18          	add    $0x18,%rax
   134ee:	48 89 85 50 ec ff ff 	mov    %rax,-0x13b0(%rbp)
   134f5:	48 c7 85 58 ec ff ff 	movq   $0x0,-0x13a8(%rbp)
   134fc:	00 00 00 00 
   13500:	48 8d 85 94 e9 ff ff 	lea    -0x166c(%rbp),%rax
   13507:	48 89 85 60 ec ff ff 	mov    %rax,-0x13a0(%rbp)
   1350e:	0f b6 85 93 e9 ff ff 	movzbl -0x166d(%rbp),%eax
   13515:	0f be d8             	movsbl %al,%ebx
   13518:	44 8b a5 24 ea ff ff 	mov    -0x15dc(%rbp),%r12d
   1351f:	8b 05 23 15 01 00    	mov    0x11523(%rip),%eax        # 24a48 <g_2197>
   13525:	89 c0                	mov    %eax,%eax
   13527:	44 8b ac 85 80 ec ff 	mov    -0x1380(%rbp,%rax,4),%r13d
   1352e:	ff 
   1352f:	48 8d 05 a2 0b 01 00 	lea    0x10ba2(%rip),%rax        # 240d8 <g_67>
   13536:	0f b7 00             	movzwl (%rax),%eax
   13539:	44 0f b7 f0          	movzwl %ax,%r14d
   1353d:	8b 85 8c ec ff ff    	mov    -0x1374(%rbp),%eax
   13543:	f7 d0                	not    %eax
   13545:	41 89 c7             	mov    %eax,%r15d
   13548:	8b 05 ca 13 01 00    	mov    0x113ca(%rip),%eax        # 24918 <g_1887+0x8>
   1354e:	c1 e0 07             	shl    $0x7,%eax
   13551:	c1 f8 10             	sar    $0x10,%eax
   13554:	0f bf d0             	movswl %ax,%edx
   13557:	48 8b 85 18 eb ff ff 	mov    -0x14e8(%rbp),%rax
   1355e:	8b 00                	mov    (%rax),%eax
   13560:	39 c2                	cmp    %eax,%edx
   13562:	8b 85 d4 e9 ff ff    	mov    -0x162c(%rbp),%eax
   13568:	8d 50 04             	lea    0x4(%rax),%edx
   1356b:	8b 05 6f 13 01 00    	mov    0x1136f(%rip),%eax        # 248e0 <g_1741>
   13571:	48 63 f0             	movslq %eax,%rsi
   13574:	48 63 ca             	movslq %edx,%rcx
   13577:	48 01 f1             	add    %rsi,%rcx
   1357a:	48 8d 34 cd 00 00 00 	lea    0x0(,%rcx,8),%rsi
   13581:	00 
   13582:	48 8d 0d b7 0c 01 00 	lea    0x10cb7(%rip),%rcx        # 24240 <g_121>
   13589:	48 c7 04 0e 01 00 00 	movq   $0x1,(%rsi,%rcx,1)
   13590:	00 
   13591:	48 63 c8             	movslq %eax,%rcx
   13594:	48 63 c2             	movslq %edx,%rax
   13597:	48 01 c8             	add    %rcx,%rax
   1359a:	48 8d 14 c5 00 00 00 	lea    0x0(,%rax,8),%rdx
   135a1:	00 
   135a2:	48 8d 05 97 0c 01 00 	lea    0x10c97(%rip),%rax        # 24240 <g_121>
   135a9:	48 8b 04 02          	mov    (%rdx,%rax,1),%rax
   135ad:	be 04 00 00 00       	mov    $0x4,%esi
   135b2:	48 89 c7             	mov    %rax,%rdi
   135b5:	e8 f5 aa ff ff       	callq  e0af <safe_div_func_uint64_t_u_u>
   135ba:	48 8b 95 28 ea ff ff 	mov    -0x15d8(%rbp),%rdx
   135c1:	8b 12                	mov    (%rdx),%edx
   135c3:	48 63 d2             	movslq %edx,%rdx
   135c6:	48 31 d0             	xor    %rdx,%rax
   135c9:	48 83 f8 ff          	cmp    $0xffffffffffffffff,%rax
   135cd:	0f 94 c0             	sete   %al
   135d0:	0f b6 c0             	movzbl %al,%eax
   135d3:	41 39 c7             	cmp    %eax,%r15d
   135d6:	0f 94 c0             	sete   %al
   135d9:	0f b6 c0             	movzbl %al,%eax
   135dc:	be 0c 00 00 00       	mov    $0xc,%esi
   135e1:	89 c7                	mov    %eax,%edi
   135e3:	e8 7b 9f ff ff       	callq  d563 <safe_rshift_func_int16_t_s_u>
   135e8:	0f be d0             	movsbl %al,%edx
   135eb:	48 8b 85 18 eb ff ff 	mov    -0x14e8(%rbp),%rax
   135f2:	8b 00                	mov    (%rax),%eax
   135f4:	0f be c0             	movsbl %al,%eax
   135f7:	89 d6                	mov    %edx,%esi
   135f9:	89 c7                	mov    %eax,%edi
   135fb:	e8 d4 9b ff ff       	callq  d1d4 <safe_add_func_int8_t_s_s>
   13600:	0f b7 05 01 1c 01 00 	movzwl 0x11c01(%rip),%eax        # 25208 <g_2860>
   13607:	0f b7 c0             	movzwl %ax,%eax
   1360a:	be 01 00 00 00       	mov    $0x1,%esi
   1360f:	89 c7                	mov    %eax,%edi
   13611:	e8 64 a8 ff ff       	callq  de7a <safe_rshift_func_uint16_t_u_u>
   13616:	0f b7 c0             	movzwl %ax,%eax
   13619:	44 89 f6             	mov    %r14d,%esi
   1361c:	89 c7                	mov    %eax,%edi
   1361e:	e8 1a a7 ff ff       	callq  dd3d <safe_mul_func_uint16_t_u_u>
   13623:	48 8b 05 f6 6b 01 00 	mov    0x16bf6(%rip),%rax        # 2a220 <g_2430>
   1362a:	48 8b 00             	mov    (%rax),%rax
   1362d:	48 85 c0             	test   %rax,%rax
   13630:	0f 95 c0             	setne  %al
   13633:	0f b6 c0             	movzbl %al,%eax
   13636:	33 85 24 ea ff ff    	xor    -0x15dc(%rbp),%eax
   1363c:	89 c0                	mov    %eax,%eax
   1363e:	48 39 85 38 ec ff ff 	cmp    %rax,-0x13c8(%rbp)
   13645:	0f 93 c0             	setae  %al
   13648:	0f b6 c0             	movzbl %al,%eax
   1364b:	44 89 ee             	mov    %r13d,%esi
   1364e:	89 c7                	mov    %eax,%edi
   13650:	e8 d5 9e ff ff       	callq  d52a <safe_rshift_func_int16_t_s_s>
   13655:	48 0f bf c0          	movswq %ax,%rax
   13659:	4c 89 e6             	mov    %r12,%rsi
   1365c:	48 89 c7             	mov    %rax,%rdi
   1365f:	e8 44 a2 ff ff       	callq  d8a8 <safe_sub_func_int64_t_s_s>
   13664:	8b 05 76 12 01 00    	mov    0x11276(%rip),%eax        # 248e0 <g_1741>
   1366a:	48 98                	cltq   
   1366c:	48 8d 14 c5 00 00 00 	lea    0x0(,%rax,8),%rdx
   13673:	00 
   13674:	48 8d 05 cd 0d 01 00 	lea    0x10dcd(%rip),%rax        # 24448 <g_330>
   1367b:	48 8b 04 02          	mov    (%rdx,%rax,1),%rax
   1367f:	0f be d0             	movsbl %al,%edx
   13682:	8b 05 c0 13 01 00    	mov    0x113c0(%rip),%eax        # 24a48 <g_2197>
   13688:	89 c0                	mov    %eax,%eax
   1368a:	8b 84 85 80 ec ff ff 	mov    -0x1380(%rbp,%rax,4),%eax
   13691:	0f be c0             	movsbl %al,%eax
   13694:	89 d6                	mov    %edx,%esi
   13696:	89 c7                	mov    %eax,%edi
   13698:	e8 55 9b ff ff       	callq  d1f2 <safe_sub_func_int8_t_s_s>
   1369d:	48 8b 95 88 eb ff ff 	mov    -0x1478(%rbp),%rdx
   136a4:	88 02                	mov    %al,(%rdx)
   136a6:	48 8b 85 88 eb ff ff 	mov    -0x1478(%rbp),%rax
   136ad:	0f b6 00             	movzbl (%rax),%eax
   136b0:	0f be c0             	movsbl %al,%eax
   136b3:	89 de                	mov    %ebx,%esi
   136b5:	89 c7                	mov    %eax,%edi
   136b7:	e8 ae 9b ff ff       	callq  d26a <safe_div_func_int8_t_s_s>
   136bc:	84 c0                	test   %al,%al
   136be:	0f 84 d1 0f 00 00    	je     14695 <func_26+0x3278>
   136c4:	8b 15 7e 13 01 00    	mov    0x1137e(%rip),%edx        # 24a48 <g_2197>
   136ca:	48 8d 85 80 ec ff ff 	lea    -0x1380(%rbp),%rax
   136d1:	89 d2                	mov    %edx,%edx
   136d3:	48 c1 e2 02          	shl    $0x2,%rdx
   136d7:	48 01 d0             	add    %rdx,%rax
   136da:	48 89 85 b0 f7 ff ff 	mov    %rax,-0x850(%rbp)
   136e1:	8b 15 61 13 01 00    	mov    0x11361(%rip),%edx        # 24a48 <g_2197>
   136e7:	48 8d 85 80 ec ff ff 	lea    -0x1380(%rbp),%rax
   136ee:	89 d2                	mov    %edx,%edx
   136f0:	48 c1 e2 02          	shl    $0x2,%rdx
   136f4:	48 01 d0             	add    %rdx,%rax
   136f7:	48 89 85 b8 f7 ff ff 	mov    %rax,-0x848(%rbp)
   136fe:	48 8d 85 9c e9 ff ff 	lea    -0x1664(%rbp),%rax
   13705:	48 89 85 c0 f7 ff ff 	mov    %rax,-0x840(%rbp)
   1370c:	48 8d 05 b5 0d 01 00 	lea    0x10db5(%rip),%rax        # 244c8 <g_703>
   13713:	48 89 85 c8 f7 ff ff 	mov    %rax,-0x838(%rbp)
   1371a:	48 8d 05 a7 0d 01 00 	lea    0x10da7(%rip),%rax        # 244c8 <g_703>
   13721:	48 89 85 d0 f7 ff ff 	mov    %rax,-0x830(%rbp)
   13728:	48 8d 85 9c e9 ff ff 	lea    -0x1664(%rbp),%rax
   1372f:	48 89 85 d8 f7 ff ff 	mov    %rax,-0x828(%rbp)
   13736:	8b 15 0c 13 01 00    	mov    0x1130c(%rip),%edx        # 24a48 <g_2197>
   1373c:	48 8d 85 80 ec ff ff 	lea    -0x1380(%rbp),%rax
   13743:	89 d2                	mov    %edx,%edx
   13745:	48 c1 e2 02          	shl    $0x2,%rdx
   13749:	48 01 d0             	add    %rdx,%rax
   1374c:	48 89 85 e0 f7 ff ff 	mov    %rax,-0x820(%rbp)
   13753:	8b 15 ef 12 01 00    	mov    0x112ef(%rip),%edx        # 24a48 <g_2197>
   13759:	48 8d 85 80 ec ff ff 	lea    -0x1380(%rbp),%rax
   13760:	89 d2                	mov    %edx,%edx
   13762:	48 c1 e2 02          	shl    $0x2,%rdx
   13766:	48 01 d0             	add    %rdx,%rax
   13769:	48 89 85 e8 f7 ff ff 	mov    %rax,-0x818(%rbp)
   13770:	48 8d 05 45 0a 01 00 	lea    0x10a45(%rip),%rax        # 241bc <g_69+0xdc>
   13777:	48 89 85 f0 f7 ff ff 	mov    %rax,-0x810(%rbp)
   1377e:	48 8d 85 b0 e9 ff ff 	lea    -0x1650(%rbp),%rax
   13785:	48 89 85 f8 f7 ff ff 	mov    %rax,-0x808(%rbp)
   1378c:	48 8d 85 ac e9 ff ff 	lea    -0x1654(%rbp),%rax
   13793:	48 89 85 00 f8 ff ff 	mov    %rax,-0x800(%rbp)
   1379a:	48 8d 05 23 09 01 00 	lea    0x10923(%rip),%rax        # 240c4 <g_35>
   137a1:	48 89 85 08 f8 ff ff 	mov    %rax,-0x7f8(%rbp)
   137a8:	48 c7 85 10 f8 ff ff 	movq   $0x0,-0x7f0(%rbp)
   137af:	00 00 00 00 
   137b3:	48 8d 05 02 0a 01 00 	lea    0x10a02(%rip),%rax        # 241bc <g_69+0xdc>
   137ba:	48 89 85 18 f8 ff ff 	mov    %rax,-0x7e8(%rbp)
   137c1:	8b 15 81 12 01 00    	mov    0x11281(%rip),%edx        # 24a48 <g_2197>
   137c7:	48 8d 85 80 ec ff ff 	lea    -0x1380(%rbp),%rax
   137ce:	89 d2                	mov    %edx,%edx
   137d0:	48 c1 e2 02          	shl    $0x2,%rdx
   137d4:	48 01 d0             	add    %rdx,%rax
   137d7:	48 89 85 20 f8 ff ff 	mov    %rax,-0x7e0(%rbp)
   137de:	48 8d 05 d7 09 01 00 	lea    0x109d7(%rip),%rax        # 241bc <g_69+0xdc>
   137e5:	48 89 85 28 f8 ff ff 	mov    %rax,-0x7d8(%rbp)
   137ec:	48 8d 05 a9 09 01 00 	lea    0x109a9(%rip),%rax        # 2419c <g_69+0xbc>
   137f3:	48 89 85 30 f8 ff ff 	mov    %rax,-0x7d0(%rbp)
   137fa:	48 8d 05 93 09 01 00 	lea    0x10993(%rip),%rax        # 24194 <g_69+0xb4>
   13801:	48 89 85 38 f8 ff ff 	mov    %rax,-0x7c8(%rbp)
   13808:	48 8d 85 9c e9 ff ff 	lea    -0x1664(%rbp),%rax
   1380f:	48 89 85 40 f8 ff ff 	mov    %rax,-0x7c0(%rbp)
   13816:	48 8d 85 b0 e9 ff ff 	lea    -0x1650(%rbp),%rax
   1381d:	48 89 85 48 f8 ff ff 	mov    %rax,-0x7b8(%rbp)
   13824:	48 8d 05 99 08 01 00 	lea    0x10899(%rip),%rax        # 240c4 <g_35>
   1382b:	48 89 85 50 f8 ff ff 	mov    %rax,-0x7b0(%rbp)
   13832:	48 8d 05 83 09 01 00 	lea    0x10983(%rip),%rax        # 241bc <g_69+0xdc>
   13839:	48 89 85 58 f8 ff ff 	mov    %rax,-0x7a8(%rbp)
   13840:	48 c7 85 60 f8 ff ff 	movq   $0x0,-0x7a0(%rbp)
   13847:	00 00 00 00 
   1384b:	48 8d 05 4a 09 01 00 	lea    0x1094a(%rip),%rax        # 2419c <g_69+0xbc>
   13852:	48 89 85 68 f8 ff ff 	mov    %rax,-0x798(%rbp)
   13859:	48 c7 85 70 f8 ff ff 	movq   $0x0,-0x790(%rbp)
   13860:	00 00 00 00 
   13864:	48 8d 85 b0 e9 ff ff 	lea    -0x1650(%rbp),%rax
   1386b:	48 89 85 78 f8 ff ff 	mov    %rax,-0x788(%rbp)
   13872:	48 8d 05 67 10 01 00 	lea    0x11067(%rip),%rax        # 248e0 <g_1741>
   13879:	48 89 85 80 f8 ff ff 	mov    %rax,-0x780(%rbp)
   13880:	48 8d 85 80 ec ff ff 	lea    -0x1380(%rbp),%rax
   13887:	48 83 c0 10          	add    $0x10,%rax
   1388b:	48 89 85 88 f8 ff ff 	mov    %rax,-0x778(%rbp)
   13892:	48 8d 05 2b 08 01 00 	lea    0x1082b(%rip),%rax        # 240c4 <g_35>
   13899:	48 89 85 90 f8 ff ff 	mov    %rax,-0x770(%rbp)
   138a0:	48 8d 85 9c e9 ff ff 	lea    -0x1664(%rbp),%rax
   138a7:	48 89 85 98 f8 ff ff 	mov    %rax,-0x768(%rbp)
   138ae:	48 8d 05 73 08 01 00 	lea    0x10873(%rip),%rax        # 24128 <g_69+0x48>
   138b5:	48 89 85 a0 f8 ff ff 	mov    %rax,-0x760(%rbp)
   138bc:	48 c7 85 a8 f8 ff ff 	movq   $0x0,-0x758(%rbp)
   138c3:	00 00 00 00 
   138c7:	48 8d 05 ce 08 01 00 	lea    0x108ce(%rip),%rax        # 2419c <g_69+0xbc>
   138ce:	48 89 85 b0 f8 ff ff 	mov    %rax,-0x750(%rbp)
   138d5:	8b 15 6d 11 01 00    	mov    0x1116d(%rip),%edx        # 24a48 <g_2197>
   138db:	48 8d 85 80 ec ff ff 	lea    -0x1380(%rbp),%rax
   138e2:	89 d2                	mov    %edx,%edx
   138e4:	48 c1 e2 02          	shl    $0x2,%rdx
   138e8:	48 01 d0             	add    %rdx,%rax
   138eb:	48 89 85 b8 f8 ff ff 	mov    %rax,-0x748(%rbp)
   138f2:	48 8d 05 c3 08 01 00 	lea    0x108c3(%rip),%rax        # 241bc <g_69+0xdc>
   138f9:	48 89 85 c0 f8 ff ff 	mov    %rax,-0x740(%rbp)
   13900:	48 8d 85 80 ec ff ff 	lea    -0x1380(%rbp),%rax
   13907:	48 83 c0 10          	add    $0x10,%rax
   1390b:	48 89 85 c8 f8 ff ff 	mov    %rax,-0x738(%rbp)
   13912:	48 c7 85 d0 f8 ff ff 	movq   $0x0,-0x730(%rbp)
   13919:	00 00 00 00 
   1391d:	48 8d 05 b0 07 01 00 	lea    0x107b0(%rip),%rax        # 240d4 <g_40>
   13924:	48 89 85 d8 f8 ff ff 	mov    %rax,-0x728(%rbp)
   1392b:	48 8d 05 de 07 01 00 	lea    0x107de(%rip),%rax        # 24110 <g_69+0x30>
   13932:	48 89 85 e0 f8 ff ff 	mov    %rax,-0x720(%rbp)
   13939:	48 8d 05 5c 08 01 00 	lea    0x1085c(%rip),%rax        # 2419c <g_69+0xbc>
   13940:	48 89 85 e8 f8 ff ff 	mov    %rax,-0x718(%rbp)
   13947:	48 8d 05 6e 08 01 00 	lea    0x1086e(%rip),%rax        # 241bc <g_69+0xdc>
   1394e:	48 89 85 f0 f8 ff ff 	mov    %rax,-0x710(%rbp)
   13955:	48 8d 05 b4 07 01 00 	lea    0x107b4(%rip),%rax        # 24110 <g_69+0x30>
   1395c:	48 89 85 f8 f8 ff ff 	mov    %rax,-0x708(%rbp)
   13963:	48 8d 05 52 08 01 00 	lea    0x10852(%rip),%rax        # 241bc <g_69+0xdc>
   1396a:	48 89 85 00 f9 ff ff 	mov    %rax,-0x700(%rbp)
   13971:	48 8d 85 b0 e9 ff ff 	lea    -0x1650(%rbp),%rax
   13978:	48 89 85 08 f9 ff ff 	mov    %rax,-0x6f8(%rbp)
   1397f:	48 8d 05 42 0b 01 00 	lea    0x10b42(%rip),%rax        # 244c8 <g_703>
   13986:	48 89 85 10 f9 ff ff 	mov    %rax,-0x6f0(%rbp)
   1398d:	48 8d 05 4c 0f 01 00 	lea    0x10f4c(%rip),%rax        # 248e0 <g_1741>
   13994:	48 89 85 18 f9 ff ff 	mov    %rax,-0x6e8(%rbp)
   1399b:	48 8d 05 86 07 01 00 	lea    0x10786(%rip),%rax        # 24128 <g_69+0x48>
   139a2:	48 89 85 20 f9 ff ff 	mov    %rax,-0x6e0(%rbp)
   139a9:	48 8d 05 0c 08 01 00 	lea    0x1080c(%rip),%rax        # 241bc <g_69+0xdc>
   139b0:	48 89 85 28 f9 ff ff 	mov    %rax,-0x6d8(%rbp)
   139b7:	8b 15 8b 10 01 00    	mov    0x1108b(%rip),%edx        # 24a48 <g_2197>
   139bd:	48 8d 85 80 ec ff ff 	lea    -0x1380(%rbp),%rax
   139c4:	89 d2                	mov    %edx,%edx
   139c6:	48 c1 e2 02          	shl    $0x2,%rdx
   139ca:	48 01 d0             	add    %rdx,%rax
   139cd:	48 89 85 30 f9 ff ff 	mov    %rax,-0x6d0(%rbp)
   139d4:	48 8d 05 35 07 01 00 	lea    0x10735(%rip),%rax        # 24110 <g_69+0x30>
   139db:	48 89 85 38 f9 ff ff 	mov    %rax,-0x6c8(%rbp)
   139e2:	48 8d 05 f7 0e 01 00 	lea    0x10ef7(%rip),%rax        # 248e0 <g_1741>
   139e9:	48 89 85 40 f9 ff ff 	mov    %rax,-0x6c0(%rbp)
   139f0:	48 8d 05 cd 06 01 00 	lea    0x106cd(%rip),%rax        # 240c4 <g_35>
   139f7:	48 89 85 48 f9 ff ff 	mov    %rax,-0x6b8(%rbp)
   139fe:	48 8d 85 a8 e9 ff ff 	lea    -0x1658(%rbp),%rax
   13a05:	48 89 85 50 f9 ff ff 	mov    %rax,-0x6b0(%rbp)
   13a0c:	48 8d 05 c1 06 01 00 	lea    0x106c1(%rip),%rax        # 240d4 <g_40>
   13a13:	48 89 85 58 f9 ff ff 	mov    %rax,-0x6a8(%rbp)
   13a1a:	48 c7 85 60 f9 ff ff 	movq   $0x0,-0x6a0(%rbp)
   13a21:	00 00 00 00 
   13a25:	8b 15 1d 10 01 00    	mov    0x1101d(%rip),%edx        # 24a48 <g_2197>
   13a2b:	48 8d 85 80 ec ff ff 	lea    -0x1380(%rbp),%rax
   13a32:	89 d2                	mov    %edx,%edx
   13a34:	48 c1 e2 02          	shl    $0x2,%rdx
   13a38:	48 01 d0             	add    %rdx,%rax
   13a3b:	48 89 85 68 f9 ff ff 	mov    %rax,-0x698(%rbp)
   13a42:	8b 15 00 10 01 00    	mov    0x11000(%rip),%edx        # 24a48 <g_2197>
   13a48:	48 8d 85 80 ec ff ff 	lea    -0x1380(%rbp),%rax
   13a4f:	89 d2                	mov    %edx,%edx
   13a51:	48 c1 e2 02          	shl    $0x2,%rdx
   13a55:	48 01 d0             	add    %rdx,%rax
   13a58:	48 89 85 70 f9 ff ff 	mov    %rax,-0x690(%rbp)
   13a5f:	8b 15 e3 0f 01 00    	mov    0x10fe3(%rip),%edx        # 24a48 <g_2197>
   13a65:	48 8d 85 80 ec ff ff 	lea    -0x1380(%rbp),%rax
   13a6c:	89 d2                	mov    %edx,%edx
   13a6e:	48 c1 e2 02          	shl    $0x2,%rdx
   13a72:	48 01 d0             	add    %rdx,%rax
   13a75:	48 89 85 78 f9 ff ff 	mov    %rax,-0x688(%rbp)
   13a7c:	48 8d 85 9c e9 ff ff 	lea    -0x1664(%rbp),%rax
   13a83:	48 89 85 80 f9 ff ff 	mov    %rax,-0x680(%rbp)
   13a8a:	48 8d 05 37 0a 01 00 	lea    0x10a37(%rip),%rax        # 244c8 <g_703>
   13a91:	48 89 85 88 f9 ff ff 	mov    %rax,-0x678(%rbp)
   13a98:	48 8d 05 29 0a 01 00 	lea    0x10a29(%rip),%rax        # 244c8 <g_703>
   13a9f:	48 89 85 90 f9 ff ff 	mov    %rax,-0x670(%rbp)
   13aa6:	48 8d 85 9c e9 ff ff 	lea    -0x1664(%rbp),%rax
   13aad:	48 89 85 98 f9 ff ff 	mov    %rax,-0x668(%rbp)
   13ab4:	8b 15 8e 0f 01 00    	mov    0x10f8e(%rip),%edx        # 24a48 <g_2197>
   13aba:	48 8d 85 80 ec ff ff 	lea    -0x1380(%rbp),%rax
   13ac1:	89 d2                	mov    %edx,%edx
   13ac3:	48 c1 e2 02          	shl    $0x2,%rdx
   13ac7:	48 01 d0             	add    %rdx,%rax
   13aca:	48 89 85 a0 f9 ff ff 	mov    %rax,-0x660(%rbp)
   13ad1:	8b 15 71 0f 01 00    	mov    0x10f71(%rip),%edx        # 24a48 <g_2197>
   13ad7:	48 8d 85 80 ec ff ff 	lea    -0x1380(%rbp),%rax
   13ade:	89 d2                	mov    %edx,%edx
   13ae0:	48 c1 e2 02          	shl    $0x2,%rdx
   13ae4:	48 01 d0             	add    %rdx,%rax
   13ae7:	48 89 85 a8 f9 ff ff 	mov    %rax,-0x658(%rbp)
   13aee:	48 8d 05 c7 06 01 00 	lea    0x106c7(%rip),%rax        # 241bc <g_69+0xdc>
   13af5:	48 89 85 b0 f9 ff ff 	mov    %rax,-0x650(%rbp)
   13afc:	48 8d 85 b0 e9 ff ff 	lea    -0x1650(%rbp),%rax
   13b03:	48 89 85 b8 f9 ff ff 	mov    %rax,-0x648(%rbp)
   13b0a:	48 8d 85 ac e9 ff ff 	lea    -0x1654(%rbp),%rax
   13b11:	48 89 85 c0 f9 ff ff 	mov    %rax,-0x640(%rbp)
   13b18:	48 8d 05 a5 05 01 00 	lea    0x105a5(%rip),%rax        # 240c4 <g_35>
   13b1f:	48 89 85 c8 f9 ff ff 	mov    %rax,-0x638(%rbp)
   13b26:	48 c7 85 d0 f9 ff ff 	movq   $0x0,-0x630(%rbp)
   13b2d:	00 00 00 00 
   13b31:	48 8d 05 84 06 01 00 	lea    0x10684(%rip),%rax        # 241bc <g_69+0xdc>
   13b38:	48 89 85 d8 f9 ff ff 	mov    %rax,-0x628(%rbp)
   13b3f:	8b 15 03 0f 01 00    	mov    0x10f03(%rip),%edx        # 24a48 <g_2197>
   13b45:	48 8d 85 80 ec ff ff 	lea    -0x1380(%rbp),%rax
   13b4c:	89 d2                	mov    %edx,%edx
   13b4e:	48 c1 e2 02          	shl    $0x2,%rdx
   13b52:	48 01 d0             	add    %rdx,%rax
   13b55:	48 89 85 e0 f9 ff ff 	mov    %rax,-0x620(%rbp)
   13b5c:	48 8d 05 59 06 01 00 	lea    0x10659(%rip),%rax        # 241bc <g_69+0xdc>
   13b63:	48 89 85 e8 f9 ff ff 	mov    %rax,-0x618(%rbp)
   13b6a:	48 8d 05 2b 06 01 00 	lea    0x1062b(%rip),%rax        # 2419c <g_69+0xbc>
   13b71:	48 89 85 f0 f9 ff ff 	mov    %rax,-0x610(%rbp)
   13b78:	48 8d 05 15 06 01 00 	lea    0x10615(%rip),%rax        # 24194 <g_69+0xb4>
   13b7f:	48 89 85 f8 f9 ff ff 	mov    %rax,-0x608(%rbp)
   13b86:	48 8d 85 9c e9 ff ff 	lea    -0x1664(%rbp),%rax
   13b8d:	48 89 85 00 fa ff ff 	mov    %rax,-0x600(%rbp)
   13b94:	48 8d 85 b0 e9 ff ff 	lea    -0x1650(%rbp),%rax
   13b9b:	48 89 85 08 fa ff ff 	mov    %rax,-0x5f8(%rbp)
   13ba2:	48 8d 05 1b 05 01 00 	lea    0x1051b(%rip),%rax        # 240c4 <g_35>
   13ba9:	48 89 85 10 fa ff ff 	mov    %rax,-0x5f0(%rbp)
   13bb0:	48 8d 05 05 06 01 00 	lea    0x10605(%rip),%rax        # 241bc <g_69+0xdc>
   13bb7:	48 89 85 18 fa ff ff 	mov    %rax,-0x5e8(%rbp)
   13bbe:	48 c7 85 20 fa ff ff 	movq   $0x0,-0x5e0(%rbp)
   13bc5:	00 00 00 00 
   13bc9:	48 8d 05 cc 05 01 00 	lea    0x105cc(%rip),%rax        # 2419c <g_69+0xbc>
   13bd0:	48 89 85 28 fa ff ff 	mov    %rax,-0x5d8(%rbp)
   13bd7:	48 c7 85 30 fa ff ff 	movq   $0x0,-0x5d0(%rbp)
   13bde:	00 00 00 00 
   13be2:	48 8d 85 b0 e9 ff ff 	lea    -0x1650(%rbp),%rax
   13be9:	48 89 85 38 fa ff ff 	mov    %rax,-0x5c8(%rbp)
   13bf0:	48 8d 05 e9 0c 01 00 	lea    0x10ce9(%rip),%rax        # 248e0 <g_1741>
   13bf7:	48 89 85 40 fa ff ff 	mov    %rax,-0x5c0(%rbp)
   13bfe:	48 8d 85 80 ec ff ff 	lea    -0x1380(%rbp),%rax
   13c05:	48 83 c0 10          	add    $0x10,%rax
   13c09:	48 89 85 48 fa ff ff 	mov    %rax,-0x5b8(%rbp)
   13c10:	48 8d 05 ad 04 01 00 	lea    0x104ad(%rip),%rax        # 240c4 <g_35>
   13c17:	48 89 85 50 fa ff ff 	mov    %rax,-0x5b0(%rbp)
   13c1e:	48 8d 85 9c e9 ff ff 	lea    -0x1664(%rbp),%rax
   13c25:	48 89 85 58 fa ff ff 	mov    %rax,-0x5a8(%rbp)
   13c2c:	48 8d 05 f5 04 01 00 	lea    0x104f5(%rip),%rax        # 24128 <g_69+0x48>
   13c33:	48 89 85 60 fa ff ff 	mov    %rax,-0x5a0(%rbp)
   13c3a:	48 c7 85 68 fa ff ff 	movq   $0x0,-0x598(%rbp)
   13c41:	00 00 00 00 
   13c45:	48 8d 05 50 05 01 00 	lea    0x10550(%rip),%rax        # 2419c <g_69+0xbc>
   13c4c:	48 89 85 70 fa ff ff 	mov    %rax,-0x590(%rbp)
   13c53:	8b 15 ef 0d 01 00    	mov    0x10def(%rip),%edx        # 24a48 <g_2197>
   13c59:	48 8d 85 80 ec ff ff 	lea    -0x1380(%rbp),%rax
   13c60:	89 d2                	mov    %edx,%edx
   13c62:	48 c1 e2 02          	shl    $0x2,%rdx
   13c66:	48 01 d0             	add    %rdx,%rax
   13c69:	48 89 85 78 fa ff ff 	mov    %rax,-0x588(%rbp)
   13c70:	48 8d 05 45 05 01 00 	lea    0x10545(%rip),%rax        # 241bc <g_69+0xdc>
   13c77:	48 89 85 80 fa ff ff 	mov    %rax,-0x580(%rbp)
   13c7e:	48 8d 85 80 ec ff ff 	lea    -0x1380(%rbp),%rax
   13c85:	48 83 c0 10          	add    $0x10,%rax
   13c89:	48 89 85 88 fa ff ff 	mov    %rax,-0x578(%rbp)
   13c90:	48 c7 85 90 fa ff ff 	movq   $0x0,-0x570(%rbp)
   13c97:	00 00 00 00 
   13c9b:	48 8d 05 32 04 01 00 	lea    0x10432(%rip),%rax        # 240d4 <g_40>
   13ca2:	48 89 85 98 fa ff ff 	mov    %rax,-0x568(%rbp)
   13ca9:	48 8d 05 60 04 01 00 	lea    0x10460(%rip),%rax        # 24110 <g_69+0x30>
   13cb0:	48 89 85 a0 fa ff ff 	mov    %rax,-0x560(%rbp)
   13cb7:	48 8d 05 de 04 01 00 	lea    0x104de(%rip),%rax        # 2419c <g_69+0xbc>
   13cbe:	48 89 85 a8 fa ff ff 	mov    %rax,-0x558(%rbp)
   13cc5:	48 8d 05 f0 04 01 00 	lea    0x104f0(%rip),%rax        # 241bc <g_69+0xdc>
   13ccc:	48 89 85 b0 fa ff ff 	mov    %rax,-0x550(%rbp)
   13cd3:	48 8d 05 36 04 01 00 	lea    0x10436(%rip),%rax        # 24110 <g_69+0x30>
   13cda:	48 89 85 b8 fa ff ff 	mov    %rax,-0x548(%rbp)
   13ce1:	48 8d 05 d4 04 01 00 	lea    0x104d4(%rip),%rax        # 241bc <g_69+0xdc>
   13ce8:	48 89 85 c0 fa ff ff 	mov    %rax,-0x540(%rbp)
   13cef:	48 8d 85 b0 e9 ff ff 	lea    -0x1650(%rbp),%rax
   13cf6:	48 89 85 c8 fa ff ff 	mov    %rax,-0x538(%rbp)
   13cfd:	48 8d 05 c4 07 01 00 	lea    0x107c4(%rip),%rax        # 244c8 <g_703>
   13d04:	48 89 85 d0 fa ff ff 	mov    %rax,-0x530(%rbp)
   13d0b:	48 8d 05 ce 0b 01 00 	lea    0x10bce(%rip),%rax        # 248e0 <g_1741>
   13d12:	48 89 85 d8 fa ff ff 	mov    %rax,-0x528(%rbp)
   13d19:	48 8d 05 08 04 01 00 	lea    0x10408(%rip),%rax        # 24128 <g_69+0x48>
   13d20:	48 89 85 e0 fa ff ff 	mov    %rax,-0x520(%rbp)
   13d27:	48 8d 05 8e 04 01 00 	lea    0x1048e(%rip),%rax        # 241bc <g_69+0xdc>
   13d2e:	48 89 85 e8 fa ff ff 	mov    %rax,-0x518(%rbp)
   13d35:	8b 15 0d 0d 01 00    	mov    0x10d0d(%rip),%edx        # 24a48 <g_2197>
   13d3b:	48 8d 85 80 ec ff ff 	lea    -0x1380(%rbp),%rax
   13d42:	89 d2                	mov    %edx,%edx
   13d44:	48 c1 e2 02          	shl    $0x2,%rdx
   13d48:	48 01 d0             	add    %rdx,%rax
   13d4b:	48 89 85 f0 fa ff ff 	mov    %rax,-0x510(%rbp)
   13d52:	48 8d 05 b7 03 01 00 	lea    0x103b7(%rip),%rax        # 24110 <g_69+0x30>
   13d59:	48 89 85 f8 fa ff ff 	mov    %rax,-0x508(%rbp)
   13d60:	48 8d 05 79 0b 01 00 	lea    0x10b79(%rip),%rax        # 248e0 <g_1741>
   13d67:	48 89 85 00 fb ff ff 	mov    %rax,-0x500(%rbp)
   13d6e:	48 8d 05 4f 03 01 00 	lea    0x1034f(%rip),%rax        # 240c4 <g_35>
   13d75:	48 89 85 08 fb ff ff 	mov    %rax,-0x4f8(%rbp)
   13d7c:	48 8d 85 a8 e9 ff ff 	lea    -0x1658(%rbp),%rax
   13d83:	48 89 85 10 fb ff ff 	mov    %rax,-0x4f0(%rbp)
   13d8a:	48 8d 05 43 03 01 00 	lea    0x10343(%rip),%rax        # 240d4 <g_40>
   13d91:	48 89 85 18 fb ff ff 	mov    %rax,-0x4e8(%rbp)
   13d98:	48 c7 85 20 fb ff ff 	movq   $0x0,-0x4e0(%rbp)
   13d9f:	00 00 00 00 
   13da3:	8b 15 9f 0c 01 00    	mov    0x10c9f(%rip),%edx        # 24a48 <g_2197>
   13da9:	48 8d 85 80 ec ff ff 	lea    -0x1380(%rbp),%rax
   13db0:	89 d2                	mov    %edx,%edx
   13db2:	48 c1 e2 02          	shl    $0x2,%rdx
   13db6:	48 01 d0             	add    %rdx,%rax
   13db9:	48 89 85 28 fb ff ff 	mov    %rax,-0x4d8(%rbp)
   13dc0:	8b 15 82 0c 01 00    	mov    0x10c82(%rip),%edx        # 24a48 <g_2197>
   13dc6:	48 8d 85 80 ec ff ff 	lea    -0x1380(%rbp),%rax
   13dcd:	89 d2                	mov    %edx,%edx
   13dcf:	48 c1 e2 02          	shl    $0x2,%rdx
   13dd3:	48 01 d0             	add    %rdx,%rax
   13dd6:	48 89 85 30 fb ff ff 	mov    %rax,-0x4d0(%rbp)
   13ddd:	8b 15 65 0c 01 00    	mov    0x10c65(%rip),%edx        # 24a48 <g_2197>
   13de3:	48 8d 85 80 ec ff ff 	lea    -0x1380(%rbp),%rax
   13dea:	89 d2                	mov    %edx,%edx
   13dec:	48 c1 e2 02          	shl    $0x2,%rdx
   13df0:	48 01 d0             	add    %rdx,%rax
   13df3:	48 89 85 38 fb ff ff 	mov    %rax,-0x4c8(%rbp)
   13dfa:	48 8d 85 9c e9 ff ff 	lea    -0x1664(%rbp),%rax
   13e01:	48 89 85 40 fb ff ff 	mov    %rax,-0x4c0(%rbp)
   13e08:	48 8d 05 b9 06 01 00 	lea    0x106b9(%rip),%rax        # 244c8 <g_703>
   13e0f:	48 89 85 48 fb ff ff 	mov    %rax,-0x4b8(%rbp)
   13e16:	48 8d 05 ab 06 01 00 	lea    0x106ab(%rip),%rax        # 244c8 <g_703>
   13e1d:	48 89 85 50 fb ff ff 	mov    %rax,-0x4b0(%rbp)
   13e24:	48 8d 85 9c e9 ff ff 	lea    -0x1664(%rbp),%rax
   13e2b:	48 89 85 58 fb ff ff 	mov    %rax,-0x4a8(%rbp)
   13e32:	8b 15 10 0c 01 00    	mov    0x10c10(%rip),%edx        # 24a48 <g_2197>
   13e38:	48 8d 85 80 ec ff ff 	lea    -0x1380(%rbp),%rax
   13e3f:	89 d2                	mov    %edx,%edx
   13e41:	48 c1 e2 02          	shl    $0x2,%rdx
   13e45:	48 01 d0             	add    %rdx,%rax
   13e48:	48 89 85 60 fb ff ff 	mov    %rax,-0x4a0(%rbp)
   13e4f:	8b 15 f3 0b 01 00    	mov    0x10bf3(%rip),%edx        # 24a48 <g_2197>
   13e55:	48 8d 85 80 ec ff ff 	lea    -0x1380(%rbp),%rax
   13e5c:	89 d2                	mov    %edx,%edx
   13e5e:	48 c1 e2 02          	shl    $0x2,%rdx
   13e62:	48 01 d0             	add    %rdx,%rax
   13e65:	48 89 85 68 fb ff ff 	mov    %rax,-0x498(%rbp)
   13e6c:	48 8d 05 49 03 01 00 	lea    0x10349(%rip),%rax        # 241bc <g_69+0xdc>
   13e73:	48 89 85 70 fb ff ff 	mov    %rax,-0x490(%rbp)
   13e7a:	48 8d 85 b0 e9 ff ff 	lea    -0x1650(%rbp),%rax
   13e81:	48 89 85 78 fb ff ff 	mov    %rax,-0x488(%rbp)
   13e88:	48 8d 85 ac e9 ff ff 	lea    -0x1654(%rbp),%rax
   13e8f:	48 89 85 80 fb ff ff 	mov    %rax,-0x480(%rbp)
   13e96:	48 8d 05 27 02 01 00 	lea    0x10227(%rip),%rax        # 240c4 <g_35>
   13e9d:	48 89 85 88 fb ff ff 	mov    %rax,-0x478(%rbp)
   13ea4:	48 c7 85 90 fb ff ff 	movq   $0x0,-0x470(%rbp)
   13eab:	00 00 00 00 
   13eaf:	48 8d 05 06 03 01 00 	lea    0x10306(%rip),%rax        # 241bc <g_69+0xdc>
   13eb6:	48 89 85 98 fb ff ff 	mov    %rax,-0x468(%rbp)
   13ebd:	8b 15 85 0b 01 00    	mov    0x10b85(%rip),%edx        # 24a48 <g_2197>
   13ec3:	48 8d 85 80 ec ff ff 	lea    -0x1380(%rbp),%rax
   13eca:	89 d2                	mov    %edx,%edx
   13ecc:	48 c1 e2 02          	shl    $0x2,%rdx
   13ed0:	48 01 d0             	add    %rdx,%rax
   13ed3:	48 89 85 a0 fb ff ff 	mov    %rax,-0x460(%rbp)
   13eda:	48 8d 05 db 02 01 00 	lea    0x102db(%rip),%rax        # 241bc <g_69+0xdc>
   13ee1:	48 89 85 a8 fb ff ff 	mov    %rax,-0x458(%rbp)
   13ee8:	48 8d 05 ad 02 01 00 	lea    0x102ad(%rip),%rax        # 2419c <g_69+0xbc>
   13eef:	48 89 85 b0 fb ff ff 	mov    %rax,-0x450(%rbp)
   13ef6:	48 8d 05 97 02 01 00 	lea    0x10297(%rip),%rax        # 24194 <g_69+0xb4>
   13efd:	48 89 85 b8 fb ff ff 	mov    %rax,-0x448(%rbp)
   13f04:	48 8d 85 9c e9 ff ff 	lea    -0x1664(%rbp),%rax
   13f0b:	48 89 85 c0 fb ff ff 	mov    %rax,-0x440(%rbp)
   13f12:	48 8d 85 b0 e9 ff ff 	lea    -0x1650(%rbp),%rax
   13f19:	48 89 85 c8 fb ff ff 	mov    %rax,-0x438(%rbp)
   13f20:	48 8d 05 9d 01 01 00 	lea    0x1019d(%rip),%rax        # 240c4 <g_35>
   13f27:	48 89 85 d0 fb ff ff 	mov    %rax,-0x430(%rbp)
   13f2e:	48 8d 05 87 02 01 00 	lea    0x10287(%rip),%rax        # 241bc <g_69+0xdc>
   13f35:	48 89 85 d8 fb ff ff 	mov    %rax,-0x428(%rbp)
   13f3c:	48 c7 85 e0 fb ff ff 	movq   $0x0,-0x420(%rbp)
   13f43:	00 00 00 00 
   13f47:	48 8d 05 4e 02 01 00 	lea    0x1024e(%rip),%rax        # 2419c <g_69+0xbc>
   13f4e:	48 89 85 e8 fb ff ff 	mov    %rax,-0x418(%rbp)
   13f55:	48 c7 85 f0 fb ff ff 	movq   $0x0,-0x410(%rbp)
   13f5c:	00 00 00 00 
   13f60:	48 8d 85 b0 e9 ff ff 	lea    -0x1650(%rbp),%rax
   13f67:	48 89 85 f8 fb ff ff 	mov    %rax,-0x408(%rbp)
   13f6e:	48 8d 05 6b 09 01 00 	lea    0x1096b(%rip),%rax        # 248e0 <g_1741>
   13f75:	48 89 85 00 fc ff ff 	mov    %rax,-0x400(%rbp)
   13f7c:	48 8d 85 80 ec ff ff 	lea    -0x1380(%rbp),%rax
   13f83:	48 83 c0 10          	add    $0x10,%rax
   13f87:	48 89 85 08 fc ff ff 	mov    %rax,-0x3f8(%rbp)
   13f8e:	48 8d 05 2f 01 01 00 	lea    0x1012f(%rip),%rax        # 240c4 <g_35>
   13f95:	48 89 85 10 fc ff ff 	mov    %rax,-0x3f0(%rbp)
   13f9c:	48 8d 85 9c e9 ff ff 	lea    -0x1664(%rbp),%rax
   13fa3:	48 89 85 18 fc ff ff 	mov    %rax,-0x3e8(%rbp)
   13faa:	48 8d 05 77 01 01 00 	lea    0x10177(%rip),%rax        # 24128 <g_69+0x48>
   13fb1:	48 89 85 20 fc ff ff 	mov    %rax,-0x3e0(%rbp)
   13fb8:	48 c7 85 28 fc ff ff 	movq   $0x0,-0x3d8(%rbp)
   13fbf:	00 00 00 00 
   13fc3:	48 8d 05 d2 01 01 00 	lea    0x101d2(%rip),%rax        # 2419c <g_69+0xbc>
   13fca:	48 89 85 30 fc ff ff 	mov    %rax,-0x3d0(%rbp)
   13fd1:	8b 15 71 0a 01 00    	mov    0x10a71(%rip),%edx        # 24a48 <g_2197>
   13fd7:	48 8d 85 80 ec ff ff 	lea    -0x1380(%rbp),%rax
   13fde:	89 d2                	mov    %edx,%edx
   13fe0:	48 c1 e2 02          	shl    $0x2,%rdx
   13fe4:	48 01 d0             	add    %rdx,%rax
   13fe7:	48 89 85 38 fc ff ff 	mov    %rax,-0x3c8(%rbp)
   13fee:	48 8d 05 c7 01 01 00 	lea    0x101c7(%rip),%rax        # 241bc <g_69+0xdc>
   13ff5:	48 89 85 40 fc ff ff 	mov    %rax,-0x3c0(%rbp)
   13ffc:	48 8d 85 80 ec ff ff 	lea    -0x1380(%rbp),%rax
   14003:	48 83 c0 10          	add    $0x10,%rax
   14007:	48 89 85 48 fc ff ff 	mov    %rax,-0x3b8(%rbp)
   1400e:	48 c7 85 50 fc ff ff 	movq   $0x0,-0x3b0(%rbp)
   14015:	00 00 00 00 
   14019:	48 8d 05 b4 00 01 00 	lea    0x100b4(%rip),%rax        # 240d4 <g_40>
   14020:	48 89 85 58 fc ff ff 	mov    %rax,-0x3a8(%rbp)
   14027:	48 8d 05 e2 00 01 00 	lea    0x100e2(%rip),%rax        # 24110 <g_69+0x30>
   1402e:	48 89 85 60 fc ff ff 	mov    %rax,-0x3a0(%rbp)
   14035:	48 8d 05 60 01 01 00 	lea    0x10160(%rip),%rax        # 2419c <g_69+0xbc>
   1403c:	48 89 85 68 fc ff ff 	mov    %rax,-0x398(%rbp)
   14043:	48 8d 05 72 01 01 00 	lea    0x10172(%rip),%rax        # 241bc <g_69+0xdc>
   1404a:	48 89 85 70 fc ff ff 	mov    %rax,-0x390(%rbp)
   14051:	48 8d 05 b8 00 01 00 	lea    0x100b8(%rip),%rax        # 24110 <g_69+0x30>
   14058:	48 89 85 78 fc ff ff 	mov    %rax,-0x388(%rbp)
   1405f:	48 8d 05 56 01 01 00 	lea    0x10156(%rip),%rax        # 241bc <g_69+0xdc>
   14066:	48 89 85 80 fc ff ff 	mov    %rax,-0x380(%rbp)
   1406d:	48 8d 85 b0 e9 ff ff 	lea    -0x1650(%rbp),%rax
   14074:	48 89 85 88 fc ff ff 	mov    %rax,-0x378(%rbp)
   1407b:	48 8d 05 46 04 01 00 	lea    0x10446(%rip),%rax        # 244c8 <g_703>
   14082:	48 89 85 90 fc ff ff 	mov    %rax,-0x370(%rbp)
   14089:	48 8d 05 50 08 01 00 	lea    0x10850(%rip),%rax        # 248e0 <g_1741>
   14090:	48 89 85 98 fc ff ff 	mov    %rax,-0x368(%rbp)
   14097:	48 8d 05 8a 00 01 00 	lea    0x1008a(%rip),%rax        # 24128 <g_69+0x48>
   1409e:	48 89 85 a0 fc ff ff 	mov    %rax,-0x360(%rbp)
   140a5:	48 8d 05 10 01 01 00 	lea    0x10110(%rip),%rax        # 241bc <g_69+0xdc>
   140ac:	48 89 85 a8 fc ff ff 	mov    %rax,-0x358(%rbp)
   140b3:	8b 15 8f 09 01 00    	mov    0x1098f(%rip),%edx        # 24a48 <g_2197>
   140b9:	48 8d 85 80 ec ff ff 	lea    -0x1380(%rbp),%rax
   140c0:	89 d2                	mov    %edx,%edx
   140c2:	48 c1 e2 02          	shl    $0x2,%rdx
   140c6:	48 01 d0             	add    %rdx,%rax
   140c9:	48 89 85 b0 fc ff ff 	mov    %rax,-0x350(%rbp)
   140d0:	48 8d 05 39 00 01 00 	lea    0x10039(%rip),%rax        # 24110 <g_69+0x30>
   140d7:	48 89 85 b8 fc ff ff 	mov    %rax,-0x348(%rbp)
   140de:	48 8d 05 fb 07 01 00 	lea    0x107fb(%rip),%rax        # 248e0 <g_1741>
   140e5:	48 89 85 c0 fc ff ff 	mov    %rax,-0x340(%rbp)
   140ec:	48 8d 05 d1 ff 00 00 	lea    0xffd1(%rip),%rax        # 240c4 <g_35>
   140f3:	48 89 85 c8 fc ff ff 	mov    %rax,-0x338(%rbp)
   140fa:	48 8d 85 a8 e9 ff ff 	lea    -0x1658(%rbp),%rax
   14101:	48 89 85 d0 fc ff ff 	mov    %rax,-0x330(%rbp)
   14108:	48 8d 05 c5 ff 00 00 	lea    0xffc5(%rip),%rax        # 240d4 <g_40>
   1410f:	48 89 85 d8 fc ff ff 	mov    %rax,-0x328(%rbp)
   14116:	48 c7 85 e0 fc ff ff 	movq   $0x0,-0x320(%rbp)
   1411d:	00 00 00 00 
   14121:	8b 15 21 09 01 00    	mov    0x10921(%rip),%edx        # 24a48 <g_2197>
   14127:	48 8d 85 80 ec ff ff 	lea    -0x1380(%rbp),%rax
   1412e:	89 d2                	mov    %edx,%edx
   14130:	48 c1 e2 02          	shl    $0x2,%rdx
   14134:	48 01 d0             	add    %rdx,%rax
   14137:	48 89 85 e8 fc ff ff 	mov    %rax,-0x318(%rbp)
   1413e:	8b 15 04 09 01 00    	mov    0x10904(%rip),%edx        # 24a48 <g_2197>
   14144:	48 8d 85 80 ec ff ff 	lea    -0x1380(%rbp),%rax
   1414b:	89 d2                	mov    %edx,%edx
   1414d:	48 c1 e2 02          	shl    $0x2,%rdx
   14151:	48 01 d0             	add    %rdx,%rax
   14154:	48 89 85 f0 fc ff ff 	mov    %rax,-0x310(%rbp)
   1415b:	8b 15 e7 08 01 00    	mov    0x108e7(%rip),%edx        # 24a48 <g_2197>
   14161:	48 8d 85 80 ec ff ff 	lea    -0x1380(%rbp),%rax
   14168:	89 d2                	mov    %edx,%edx
   1416a:	48 c1 e2 02          	shl    $0x2,%rdx
   1416e:	48 01 d0             	add    %rdx,%rax
   14171:	48 89 85 f8 fc ff ff 	mov    %rax,-0x308(%rbp)
   14178:	48 8d 85 9c e9 ff ff 	lea    -0x1664(%rbp),%rax
   1417f:	48 89 85 00 fd ff ff 	mov    %rax,-0x300(%rbp)
   14186:	48 8d 05 3b 03 01 00 	lea    0x1033b(%rip),%rax        # 244c8 <g_703>
   1418d:	48 89 85 08 fd ff ff 	mov    %rax,-0x2f8(%rbp)
   14194:	48 8d 05 2d 03 01 00 	lea    0x1032d(%rip),%rax        # 244c8 <g_703>
   1419b:	48 89 85 10 fd ff ff 	mov    %rax,-0x2f0(%rbp)
   141a2:	48 8d 85 9c e9 ff ff 	lea    -0x1664(%rbp),%rax
   141a9:	48 89 85 18 fd ff ff 	mov    %rax,-0x2e8(%rbp)
   141b0:	8b 15 92 08 01 00    	mov    0x10892(%rip),%edx        # 24a48 <g_2197>
   141b6:	48 8d 85 80 ec ff ff 	lea    -0x1380(%rbp),%rax
   141bd:	89 d2                	mov    %edx,%edx
   141bf:	48 c1 e2 02          	shl    $0x2,%rdx
   141c3:	48 01 d0             	add    %rdx,%rax
   141c6:	48 89 85 20 fd ff ff 	mov    %rax,-0x2e0(%rbp)
   141cd:	8b 15 75 08 01 00    	mov    0x10875(%rip),%edx        # 24a48 <g_2197>
   141d3:	48 8d 85 80 ec ff ff 	lea    -0x1380(%rbp),%rax
   141da:	89 d2                	mov    %edx,%edx
   141dc:	48 c1 e2 02          	shl    $0x2,%rdx
   141e0:	48 01 d0             	add    %rdx,%rax
   141e3:	48 89 85 28 fd ff ff 	mov    %rax,-0x2d8(%rbp)
   141ea:	48 8d 05 cb ff 00 00 	lea    0xffcb(%rip),%rax        # 241bc <g_69+0xdc>
   141f1:	48 89 85 30 fd ff ff 	mov    %rax,-0x2d0(%rbp)
   141f8:	48 8d 85 b0 e9 ff ff 	lea    -0x1650(%rbp),%rax
   141ff:	48 89 85 38 fd ff ff 	mov    %rax,-0x2c8(%rbp)
   14206:	48 8d 85 ac e9 ff ff 	lea    -0x1654(%rbp),%rax
   1420d:	48 89 85 40 fd ff ff 	mov    %rax,-0x2c0(%rbp)
   14214:	48 8d 05 a9 fe 00 00 	lea    0xfea9(%rip),%rax        # 240c4 <g_35>
   1421b:	48 89 85 48 fd ff ff 	mov    %rax,-0x2b8(%rbp)
   14222:	48 c7 85 50 fd ff ff 	movq   $0x0,-0x2b0(%rbp)
   14229:	00 00 00 00 
   1422d:	48 8d 05 88 ff 00 00 	lea    0xff88(%rip),%rax        # 241bc <g_69+0xdc>
   14234:	48 89 85 58 fd ff ff 	mov    %rax,-0x2a8(%rbp)
   1423b:	8b 15 07 08 01 00    	mov    0x10807(%rip),%edx        # 24a48 <g_2197>
   14241:	48 8d 85 80 ec ff ff 	lea    -0x1380(%rbp),%rax
   14248:	89 d2                	mov    %edx,%edx
   1424a:	48 c1 e2 02          	shl    $0x2,%rdx
   1424e:	48 01 d0             	add    %rdx,%rax
   14251:	48 89 85 60 fd ff ff 	mov    %rax,-0x2a0(%rbp)
   14258:	48 8d 05 5d ff 00 00 	lea    0xff5d(%rip),%rax        # 241bc <g_69+0xdc>
   1425f:	48 89 85 68 fd ff ff 	mov    %rax,-0x298(%rbp)
   14266:	48 8d 05 4f ff 00 00 	lea    0xff4f(%rip),%rax        # 241bc <g_69+0xdc>
   1426d:	48 89 85 70 fd ff ff 	mov    %rax,-0x290(%rbp)
   14274:	48 8d 05 ad fe 00 00 	lea    0xfead(%rip),%rax        # 24128 <g_69+0x48>
   1427b:	48 89 85 78 fd ff ff 	mov    %rax,-0x288(%rbp)
   14282:	48 8d 05 57 06 01 00 	lea    0x10657(%rip),%rax        # 248e0 <g_1741>
   14289:	48 89 85 80 fd ff ff 	mov    %rax,-0x280(%rbp)
   14290:	48 8d 05 31 02 01 00 	lea    0x10231(%rip),%rax        # 244c8 <g_703>
   14297:	48 89 85 88 fd ff ff 	mov    %rax,-0x278(%rbp)
   1429e:	48 8d 85 b0 e9 ff ff 	lea    -0x1650(%rbp),%rax
   142a5:	48 89 85 90 fd ff ff 	mov    %rax,-0x270(%rbp)
   142ac:	48 8d 05 09 ff 00 00 	lea    0xff09(%rip),%rax        # 241bc <g_69+0xdc>
   142b3:	48 89 85 98 fd ff ff 	mov    %rax,-0x268(%rbp)
   142ba:	48 8d 05 4f fe 00 00 	lea    0xfe4f(%rip),%rax        # 24110 <g_69+0x30>
   142c1:	48 89 85 a0 fd ff ff 	mov    %rax,-0x260(%rbp)
   142c8:	48 8d 05 ed fe 00 00 	lea    0xfeed(%rip),%rax        # 241bc <g_69+0xdc>
   142cf:	48 89 85 a8 fd ff ff 	mov    %rax,-0x258(%rbp)
   142d6:	48 8d 85 80 ec ff ff 	lea    -0x1380(%rbp),%rax
   142dd:	48 83 c0 0c          	add    $0xc,%rax
   142e1:	48 89 85 b0 fd ff ff 	mov    %rax,-0x250(%rbp)
   142e8:	8b 15 5a 07 01 00    	mov    0x1075a(%rip),%edx        # 24a48 <g_2197>
   142ee:	48 8d 85 80 ec ff ff 	lea    -0x1380(%rbp),%rax
   142f5:	89 d2                	mov    %edx,%edx
   142f7:	48 c1 e2 02          	shl    $0x2,%rdx
   142fb:	48 01 d0             	add    %rdx,%rax
   142fe:	48 89 85 b8 fd ff ff 	mov    %rax,-0x248(%rbp)
   14305:	48 8d 85 ac e9 ff ff 	lea    -0x1654(%rbp),%rax
   1430c:	48 89 85 c0 fd ff ff 	mov    %rax,-0x240(%rbp)
   14313:	48 8d 85 a0 e9 ff ff 	lea    -0x1660(%rbp),%rax
   1431a:	48 89 85 c8 fd ff ff 	mov    %rax,-0x238(%rbp)
   14321:	48 8d 85 b0 e9 ff ff 	lea    -0x1650(%rbp),%rax
   14328:	48 89 85 d0 fd ff ff 	mov    %rax,-0x230(%rbp)
   1432f:	48 8d 05 aa 05 01 00 	lea    0x105aa(%rip),%rax        # 248e0 <g_1741>
   14336:	48 89 85 d8 fd ff ff 	mov    %rax,-0x228(%rbp)
   1433d:	48 c7 85 e0 fd ff ff 	movq   $0x0,-0x220(%rbp)
   14344:	00 00 00 00 
   14348:	48 8d 85 80 ec ff ff 	lea    -0x1380(%rbp),%rax
   1434f:	48 83 c0 0c          	add    $0xc,%rax
   14353:	48 89 85 e8 fd ff ff 	mov    %rax,-0x218(%rbp)
   1435a:	48 8d 05 5b fe 00 00 	lea    0xfe5b(%rip),%rax        # 241bc <g_69+0xdc>
   14361:	48 89 85 f0 fd ff ff 	mov    %rax,-0x210(%rbp)
   14368:	48 8d 05 25 fe 00 00 	lea    0xfe25(%rip),%rax        # 24194 <g_69+0xb4>
   1436f:	48 89 85 f8 fd ff ff 	mov    %rax,-0x208(%rbp)
   14376:	48 8d 05 57 fd 00 00 	lea    0xfd57(%rip),%rax        # 240d4 <g_40>
   1437d:	48 89 85 00 fe ff ff 	mov    %rax,-0x200(%rbp)
   14384:	48 8d 85 a0 e9 ff ff 	lea    -0x1660(%rbp),%rax
   1438b:	48 89 85 08 fe ff ff 	mov    %rax,-0x1f8(%rbp)
   14392:	48 8d 85 a8 e9 ff ff 	lea    -0x1658(%rbp),%rax
   14399:	48 89 85 10 fe ff ff 	mov    %rax,-0x1f0(%rbp)
   143a0:	48 8d 85 9c e9 ff ff 	lea    -0x1664(%rbp),%rax
   143a7:	48 89 85 18 fe ff ff 	mov    %rax,-0x1e8(%rbp)
   143ae:	48 c7 85 20 fe ff ff 	movq   $0x0,-0x1e0(%rbp)
   143b5:	00 00 00 00 
   143b9:	48 8d 05 fc fd 00 00 	lea    0xfdfc(%rip),%rax        # 241bc <g_69+0xdc>
   143c0:	48 89 85 28 fe ff ff 	mov    %rax,-0x1d8(%rbp)
   143c7:	48 c7 85 30 fe ff ff 	movq   $0x0,-0x1d0(%rbp)
   143ce:	00 00 00 00 
   143d2:	48 c7 85 38 fe ff ff 	movq   $0x0,-0x1c8(%rbp)
   143d9:	00 00 00 00 
   143dd:	48 8d 05 f0 fc 00 00 	lea    0xfcf0(%rip),%rax        # 240d4 <g_40>
   143e4:	48 89 85 40 fe ff ff 	mov    %rax,-0x1c0(%rbp)
   143eb:	48 8d 05 d6 00 01 00 	lea    0x100d6(%rip),%rax        # 244c8 <g_703>
   143f2:	48 89 85 48 fe ff ff 	mov    %rax,-0x1b8(%rbp)
   143f9:	48 c7 85 50 fe ff ff 	movq   $0x0,-0x1b0(%rbp)
   14400:	00 00 00 00 
   14404:	48 8d 85 ac e9 ff ff 	lea    -0x1654(%rbp),%rax
   1440b:	48 89 85 58 fe ff ff 	mov    %rax,-0x1a8(%rbp)
   14412:	48 c7 85 60 fe ff ff 	movq   $0x0,-0x1a0(%rbp)
   14419:	00 00 00 00 
   1441d:	48 c7 85 68 fe ff ff 	movq   $0x0,-0x198(%rbp)
   14424:	00 00 00 00 
   14428:	48 c7 85 70 fe ff ff 	movq   $0x0,-0x190(%rbp)
   1442f:	00 00 00 00 
   14433:	48 c7 85 78 fe ff ff 	movq   $0x0,-0x188(%rbp)
   1443a:	00 00 00 00 
   1443e:	48 8d 85 ac e9 ff ff 	lea    -0x1654(%rbp),%rax
   14445:	48 89 85 80 fe ff ff 	mov    %rax,-0x180(%rbp)
   1444c:	48 8d 85 b0 e9 ff ff 	lea    -0x1650(%rbp),%rax
   14453:	48 89 85 88 fe ff ff 	mov    %rax,-0x178(%rbp)
   1445a:	48 8d 85 80 ec ff ff 	lea    -0x1380(%rbp),%rax
   14461:	48 83 c0 10          	add    $0x10,%rax
   14465:	48 89 85 90 fe ff ff 	mov    %rax,-0x170(%rbp)
   1446c:	48 8d 85 9c e9 ff ff 	lea    -0x1664(%rbp),%rax
   14473:	48 89 85 98 fe ff ff 	mov    %rax,-0x168(%rbp)
   1447a:	48 8d 05 8f fc 00 00 	lea    0xfc8f(%rip),%rax        # 24110 <g_69+0x30>
   14481:	48 89 85 a0 fe ff ff 	mov    %rax,-0x160(%rbp)
   14488:	48 c7 85 a8 fe ff ff 	movq   $0x0,-0x158(%rbp)
   1448f:	00 00 00 00 
   14493:	48 c7 85 b0 fe ff ff 	movq   $0x0,-0x150(%rbp)
   1449a:	00 00 00 00 
   1449e:	48 8d 05 ef fc 00 00 	lea    0xfcef(%rip),%rax        # 24194 <g_69+0xb4>
   144a5:	48 89 85 b8 fe ff ff 	mov    %rax,-0x148(%rbp)
   144ac:	48 8d 05 2d 04 01 00 	lea    0x1042d(%rip),%rax        # 248e0 <g_1741>
   144b3:	48 89 85 c0 fe ff ff 	mov    %rax,-0x140(%rbp)
   144ba:	48 c7 85 c8 fe ff ff 	movq   $0x0,-0x138(%rbp)
   144c1:	00 00 00 00 
   144c5:	48 c7 85 d0 fe ff ff 	movq   $0x0,-0x130(%rbp)
   144cc:	00 00 00 00 
   144d0:	48 8d 05 09 04 01 00 	lea    0x10409(%rip),%rax        # 248e0 <g_1741>
   144d7:	48 89 85 d8 fe ff ff 	mov    %rax,-0x128(%rbp)
   144de:	48 8d 05 af fc 00 00 	lea    0xfcaf(%rip),%rax        # 24194 <g_69+0xb4>
   144e5:	48 89 85 e0 fe ff ff 	mov    %rax,-0x120(%rbp)
   144ec:	48 c7 85 e8 fe ff ff 	movq   $0x0,-0x118(%rbp)
   144f3:	00 00 00 00 
   144f7:	48 c7 85 f0 fe ff ff 	movq   $0x0,-0x110(%rbp)
   144fe:	00 00 00 00 
   14502:	8b 15 40 05 01 00    	mov    0x10540(%rip),%edx        # 24a48 <g_2197>
   14508:	48 8d 85 80 ec ff ff 	lea    -0x1380(%rbp),%rax
   1450f:	89 d2                	mov    %edx,%edx
   14511:	48 c1 e2 02          	shl    $0x2,%rdx
   14515:	48 01 d0             	add    %rdx,%rax
   14518:	48 89 85 f8 fe ff ff 	mov    %rax,-0x108(%rbp)
   1451f:	48 8d 85 b4 e9 ff ff 	lea    -0x164c(%rbp),%rax
   14526:	48 89 85 00 ff ff ff 	mov    %rax,-0x100(%rbp)
   1452d:	48 8d 85 b0 e9 ff ff 	lea    -0x1650(%rbp),%rax
   14534:	48 89 85 08 ff ff ff 	mov    %rax,-0xf8(%rbp)
   1453b:	48 8d 85 a8 e9 ff ff 	lea    -0x1658(%rbp),%rax
   14542:	48 89 85 10 ff ff ff 	mov    %rax,-0xf0(%rbp)
   14549:	48 8d 05 6c fc 00 00 	lea    0xfc6c(%rip),%rax        # 241bc <g_69+0xdc>
   14550:	48 89 85 18 ff ff ff 	mov    %rax,-0xe8(%rbp)
   14557:	48 8d 05 36 fc 00 00 	lea    0xfc36(%rip),%rax        # 24194 <g_69+0xb4>
   1455e:	48 89 85 20 ff ff ff 	mov    %rax,-0xe0(%rbp)
   14565:	48 c7 85 28 ff ff ff 	movq   $0x0,-0xd8(%rbp)
   1456c:	00 00 00 00 
   14570:	48 8d 05 45 fc 00 00 	lea    0xfc45(%rip),%rax        # 241bc <g_69+0xdc>
   14577:	48 89 85 30 ff ff ff 	mov    %rax,-0xd0(%rbp)
   1457e:	48 8d 05 a3 fb 00 00 	lea    0xfba3(%rip),%rax        # 24128 <g_69+0x48>
   14585:	48 89 85 38 ff ff ff 	mov    %rax,-0xc8(%rbp)
   1458c:	48 8d 05 4d 03 01 00 	lea    0x1034d(%rip),%rax        # 248e0 <g_1741>
   14593:	48 89 85 40 ff ff ff 	mov    %rax,-0xc0(%rbp)
   1459a:	48 8d 05 27 ff 00 00 	lea    0xff27(%rip),%rax        # 244c8 <g_703>
   145a1:	48 89 85 48 ff ff ff 	mov    %rax,-0xb8(%rbp)
   145a8:	48 8d 85 b0 e9 ff ff 	lea    -0x1650(%rbp),%rax
   145af:	48 89 85 50 ff ff ff 	mov    %rax,-0xb0(%rbp)
   145b6:	48 8d 05 ff fb 00 00 	lea    0xfbff(%rip),%rax        # 241bc <g_69+0xdc>
   145bd:	48 89 85 58 ff ff ff 	mov    %rax,-0xa8(%rbp)
   145c4:	48 8d 05 45 fb 00 00 	lea    0xfb45(%rip),%rax        # 24110 <g_69+0x30>
   145cb:	48 89 85 60 ff ff ff 	mov    %rax,-0xa0(%rbp)
   145d2:	48 8d 05 e3 fb 00 00 	lea    0xfbe3(%rip),%rax        # 241bc <g_69+0xdc>
   145d9:	48 89 85 68 ff ff ff 	mov    %rax,-0x98(%rbp)
   145e0:	48 8d 85 80 ec ff ff 	lea    -0x1380(%rbp),%rax
   145e7:	48 83 c0 0c          	add    $0xc,%rax
   145eb:	48 89 85 70 ff ff ff 	mov    %rax,-0x90(%rbp)
   145f2:	8b 15 50 04 01 00    	mov    0x10450(%rip),%edx        # 24a48 <g_2197>
   145f8:	48 8d 85 80 ec ff ff 	lea    -0x1380(%rbp),%rax
   145ff:	89 d2                	mov    %edx,%edx
   14601:	48 c1 e2 02          	shl    $0x2,%rdx
   14605:	48 01 d0             	add    %rdx,%rax
   14608:	48 89 85 78 ff ff ff 	mov    %rax,-0x88(%rbp)
   1460f:	48 8d 85 ac e9 ff ff 	lea    -0x1654(%rbp),%rax
   14616:	48 89 45 80          	mov    %rax,-0x80(%rbp)
   1461a:	48 8d 85 a0 e9 ff ff 	lea    -0x1660(%rbp),%rax
   14621:	48 89 45 88          	mov    %rax,-0x78(%rbp)
   14625:	48 8d 85 b0 e9 ff ff 	lea    -0x1650(%rbp),%rax
   1462c:	48 89 45 90          	mov    %rax,-0x70(%rbp)
   14630:	48 8d 05 a9 02 01 00 	lea    0x102a9(%rip),%rax        # 248e0 <g_1741>
   14637:	48 89 45 98          	mov    %rax,-0x68(%rbp)
   1463b:	48 c7 45 a0 00 00 00 	movq   $0x0,-0x60(%rbp)
   14642:	00 
   14643:	48 8d 85 80 ec ff ff 	lea    -0x1380(%rbp),%rax
   1464a:	48 83 c0 0c          	add    $0xc,%rax
   1464e:	48 89 45 a8          	mov    %rax,-0x58(%rbp)
   14652:	0f b7 85 98 e9 ff ff 	movzwl -0x1668(%rbp),%eax
   14659:	83 c0 01             	add    $0x1,%eax
   1465c:	66 89 85 98 e9 ff ff 	mov    %ax,-0x1668(%rbp)
   14663:	48 8b 85 40 ec ff ff 	mov    -0x13c0(%rbp),%rax
   1466a:	48 89 85 d0 ea ff ff 	mov    %rax,-0x1530(%rbp)
   14671:	48 8b 05 88 4f 01 00 	mov    0x14f88(%rip),%rax        # 29600 <g_1860>
   14678:	48 8b 00             	mov    (%rax),%rax
   1467b:	48 8d 15 46 fe 00 00 	lea    0xfe46(%rip),%rdx        # 244c8 <g_703>
   14682:	8b 00                	mov    (%rax),%eax
   14684:	89 02                	mov    %eax,(%rdx)
   14686:	48 83 bd 90 eb ff ff 	cmpq   $0x0,-0x1470(%rbp)
   1468d:	00 
   1468e:	74 10                	je     146a0 <func_26+0x3283>
   14690:	e9 8b 02 00 00       	jmpq   14920 <func_26+0x3503>
   14695:	8b 85 64 ed ff ff    	mov    -0x129c(%rbp),%eax
   1469b:	e9 f9 12 00 00       	jmpq   15999 <func_26+0x457c>
   146a0:	48 8b 05 39 4f 01 00 	mov    0x14f39(%rip),%rax        # 295e0 <g_1532>
   146a7:	0f b7 00             	movzwl (%rax),%eax
   146aa:	44 0f b7 e0          	movzwl %ax,%r12d
   146ae:	48 8b 85 88 e9 ff ff 	mov    -0x1678(%rbp),%rax
   146b5:	44 0f be e8          	movsbl %al,%r13d
   146b9:	48 8b 85 88 e9 ff ff 	mov    -0x1678(%rbp),%rax
   146c0:	44 0f b7 f0          	movzwl %ax,%r14d
   146c4:	48 8b 85 88 e9 ff ff 	mov    -0x1678(%rbp),%rax
   146cb:	41 89 c7             	mov    %eax,%r15d
   146ce:	48 8b 85 28 ea ff ff 	mov    -0x15d8(%rbp),%rax
   146d5:	8b 00                	mov    (%rax),%eax
   146d7:	89 85 84 e9 ff ff    	mov    %eax,-0x167c(%rbp)
   146dd:	48 8b 85 88 e9 ff ff 	mov    -0x1678(%rbp),%rax
   146e4:	89 85 80 e9 ff ff    	mov    %eax,-0x1680(%rbp)
   146ea:	8b 9d 58 ed ff ff    	mov    -0x12a8(%rbp),%ebx
   146f0:	48 8b 85 18 eb ff ff 	mov    -0x14e8(%rbp),%rax
   146f7:	8b 10                	mov    (%rax),%edx
   146f9:	48 8b 85 20 ec ff ff 	mov    -0x13e0(%rbp),%rax
   14700:	48 89 85 38 ed ff ff 	mov    %rax,-0x12c8(%rbp)
   14707:	48 8b 85 38 ed ff ff 	mov    -0x12c8(%rbp),%rax
   1470e:	48 8d 0d 33 6a 01 00 	lea    0x16a33(%rip),%rcx        # 2b148 <g_2431>
   14715:	48 39 c8             	cmp    %rcx,%rax
   14718:	0f 95 c0             	setne  %al
   1471b:	0f b6 c0             	movzbl %al,%eax
   1471e:	89 d6                	mov    %edx,%esi
   14720:	89 c7                	mov    %eax,%edi
   14722:	e8 de 8e ff ff       	callq  d605 <safe_sub_func_int32_t_s_s>
   14727:	85 c0                	test   %eax,%eax
   14729:	0f 94 c0             	sete   %al
   1472c:	0f b6 c0             	movzbl %al,%eax
   1472f:	39 c3                	cmp    %eax,%ebx
   14731:	0f 95 c0             	setne  %al
   14734:	0f b6 c0             	movzbl %al,%eax
   14737:	48 8b 15 42 5e 01 00 	mov    0x15e42(%rip),%rdx        # 2a580 <g_2678>
   1473e:	48 8b 12             	mov    (%rdx),%rdx
   14741:	48 8b 1a             	mov    (%rdx),%rbx
   14744:	be 01 00 00 00       	mov    $0x1,%esi
   14749:	89 c7                	mov    %eax,%edi
   1474b:	e8 6e 95 ff ff       	callq  dcbe <safe_rshift_func_uint8_t_u_u>
   14750:	88 03                	mov    %al,(%rbx)
   14752:	0f b6 03             	movzbl (%rbx),%eax
   14755:	0f b6 c0             	movzbl %al,%eax
   14758:	be 05 00 00 00       	mov    $0x5,%esi
   1475d:	89 c7                	mov    %eax,%edi
   1475f:	e8 e8 94 ff ff       	callq  dc4c <safe_lshift_func_uint8_t_u_u>
   14764:	0f b6 c0             	movzbl %al,%eax
   14767:	8b b5 80 e9 ff ff    	mov    -0x1680(%rbp),%esi
   1476d:	89 c7                	mov    %eax,%edi
   1476f:	e8 42 8e ff ff       	callq  d5b6 <safe_add_func_int32_t_s_s>
   14774:	48 8b 05 15 3f 01 00 	mov    0x13f15(%rip),%rax        # 28690 <g_205>
   1477b:	48 8b 00             	mov    (%rax),%rax
   1477e:	66 c7 00 00 00       	movw   $0x0,(%rax)
   14783:	0f b7 00             	movzwl (%rax),%eax
   14786:	0f b7 d0             	movzwl %ax,%edx
   14789:	48 8b 05 38 48 01 00 	mov    0x14838(%rip),%rax        # 28fc8 <g_910>
   14790:	48 8b 00             	mov    (%rax),%rax
   14793:	0f b7 00             	movzwl (%rax),%eax
   14796:	98                   	cwtl   
   14797:	39 c2                	cmp    %eax,%edx
   14799:	0f 9e c0             	setle  %al
   1479c:	0f b6 c0             	movzbl %al,%eax
   1479f:	89 85 54 ed ff ff    	mov    %eax,-0x12ac(%rbp)
   147a5:	8b 85 54 ed ff ff    	mov    -0x12ac(%rbp),%eax
   147ab:	0f b6 c0             	movzbl %al,%eax
   147ae:	be c4 00 00 00       	mov    $0xc4,%esi
   147b3:	89 c7                	mov    %eax,%edi
   147b5:	e8 f4 93 ff ff       	callq  dbae <safe_mod_func_uint8_t_u_u>
   147ba:	48 8b 85 10 eb ff ff 	mov    -0x14f0(%rbp),%rax
   147c1:	48 3b 85 50 ec ff ff 	cmp    -0x13b0(%rbp),%rax
   147c8:	0f 95 c0             	setne  %al
   147cb:	0f b6 c0             	movzbl %al,%eax
   147ce:	48 39 85 88 e9 ff ff 	cmp    %rax,-0x1678(%rbp)
   147d5:	75 07                	jne    147de <func_26+0x33c1>
   147d7:	b8 06 00 00 00       	mov    $0x6,%eax
   147dc:	eb 05                	jmp    147e3 <func_26+0x33c6>
   147de:	b8 07 00 00 00       	mov    $0x7,%eax
   147e3:	48 be d0 de 58 09 d3 	movabs $0x675eced30958ded0,%rsi
   147ea:	ce 5e 67 
   147ed:	48 89 c7             	mov    %rax,%rdi
   147f0:	e8 ba 98 ff ff       	callq  e0af <safe_div_func_uint64_t_u_u>
   147f5:	f7 d0                	not    %eax
   147f7:	89 c2                	mov    %eax,%edx
   147f9:	8b 85 94 ec ff ff    	mov    -0x136c(%rbp),%eax
   147ff:	0f be c0             	movsbl %al,%eax
   14802:	89 d6                	mov    %edx,%esi
   14804:	89 c7                	mov    %eax,%edi
   14806:	e8 61 8b ff ff       	callq  d36c <safe_rshift_func_int8_t_s_u>
   1480b:	84 c0                	test   %al,%al
   1480d:	75 0a                	jne    14819 <func_26+0x33fc>
   1480f:	48 83 bd 88 e9 ff ff 	cmpq   $0x0,-0x1678(%rbp)
   14816:	00 
   14817:	74 07                	je     14820 <func_26+0x3403>
   14819:	b8 01 00 00 00       	mov    $0x1,%eax
   1481e:	eb 05                	jmp    14825 <func_26+0x3408>
   14820:	b8 00 00 00 00       	mov    $0x0,%eax
   14825:	98                   	cwtl   
   14826:	8b b5 84 e9 ff ff    	mov    -0x167c(%rbp),%esi
   1482c:	89 c7                	mov    %eax,%edi
   1482e:	e8 ae 8c ff ff       	callq  d4e1 <safe_lshift_func_int16_t_s_u>
   14833:	98                   	cwtl   
   14834:	39 85 0c ea ff ff    	cmp    %eax,-0x15f4(%rbp)
   1483a:	7c 08                	jl     14844 <func_26+0x3427>
   1483c:	48 83 bd 88 e9 ff ff 	cmpq   $0x0,-0x1678(%rbp)
   14843:	00 
   14844:	48 8b 85 88 e9 ff ff 	mov    -0x1678(%rbp),%rax
   1484b:	98                   	cwtl   
   1484c:	44 89 fe             	mov    %r15d,%esi
   1484f:	89 c7                	mov    %eax,%edi
   14851:	e8 3c 8c ff ff       	callq  d492 <safe_lshift_func_int16_t_s_s>
   14856:	0f bf d0             	movswl %ax,%edx
   14859:	48 8b 85 28 ea ff ff 	mov    -0x15d8(%rbp),%rax
   14860:	8b 00                	mov    (%rax),%eax
   14862:	39 c2                	cmp    %eax,%edx
   14864:	0f 9c c0             	setl   %al
   14867:	0f b6 c0             	movzbl %al,%eax
   1486a:	44 89 f6             	mov    %r14d,%esi
   1486d:	89 c7                	mov    %eax,%edi
   1486f:	e8 e8 94 ff ff       	callq  dd5c <safe_mod_func_uint16_t_u_u>
   14874:	89 c2                	mov    %eax,%edx
   14876:	48 8b 85 88 eb ff ff 	mov    -0x1478(%rbp),%rax
   1487d:	0f b6 00             	movzbl (%rax),%eax
   14880:	31 c2                	xor    %eax,%edx
   14882:	48 8b 85 88 eb ff ff 	mov    -0x1478(%rbp),%rax
   14889:	88 10                	mov    %dl,(%rax)
   1488b:	48 8b 85 88 eb ff ff 	mov    -0x1478(%rbp),%rax
   14892:	0f b6 00             	movzbl (%rax),%eax
   14895:	0f be c0             	movsbl %al,%eax
   14898:	44 89 ee             	mov    %r13d,%esi
   1489b:	89 c7                	mov    %eax,%edi
   1489d:	e8 8f 89 ff ff       	callq  d231 <safe_mod_func_int8_t_s_s>
   148a2:	66 98                	cbtw   
   148a4:	0f b7 c0             	movzwl %ax,%eax
   148a7:	44 89 e6             	mov    %r12d,%esi
   148aa:	89 c7                	mov    %eax,%edi
   148ac:	e8 8c 94 ff ff       	callq  dd3d <safe_mul_func_uint16_t_u_u>
   148b1:	0f b7 c0             	movzwl %ax,%eax
   148b4:	48 be 6c 4c 2d 02 58 	movabs $0x8b849058022d4c6c,%rsi
   148bb:	90 84 8b 
   148be:	48 89 c7             	mov    %rax,%rdi
   148c1:	e8 ba 97 ff ff       	callq  e080 <safe_mod_func_uint64_t_u_u>
   148c6:	48 8b 95 60 ec ff ff 	mov    -0x13a0(%rbp),%rdx
   148cd:	0f b7 12             	movzwl (%rdx),%edx
   148d0:	09 d0                	or     %edx,%eax
   148d2:	89 c2                	mov    %eax,%edx
   148d4:	48 8b 85 60 ec ff ff 	mov    -0x13a0(%rbp),%rax
   148db:	66 89 10             	mov    %dx,(%rax)
   148de:	48 8b 85 60 ec ff ff 	mov    -0x13a0(%rbp),%rax
   148e5:	0f b7 00             	movzwl (%rax),%eax
   148e8:	0f bf d0             	movswl %ax,%edx
   148eb:	8b 85 84 ec ff ff    	mov    -0x137c(%rbp),%eax
   148f1:	89 d1                	mov    %edx,%ecx
   148f3:	09 c1                	or     %eax,%ecx
   148f5:	48 8b 05 8c 46 01 00 	mov    0x1468c(%rip),%rax        # 28f88 <g_700>
   148fc:	48 8b 00             	mov    (%rax),%rax
   148ff:	48 8b 00             	mov    (%rax),%rax
   14902:	8b 10                	mov    (%rax),%edx
   14904:	48 8b 05 7d 46 01 00 	mov    0x1467d(%rip),%rax        # 28f88 <g_700>
   1490b:	48 8b 00             	mov    (%rax),%rax
   1490e:	48 8b 00             	mov    (%rax),%rax
   14911:	21 ca                	and    %ecx,%edx
   14913:	89 10                	mov    %edx,(%rax)
   14915:	48 8b 05 d4 4c 01 00 	mov    0x14cd4(%rip),%rax        # 295f0 <g_1656>
   1491c:	8b 00                	mov    (%rax),%eax
   1491e:	85 c0                	test   %eax,%eax
   14920:	83 85 d4 e9 ff ff 01 	addl   $0x1,-0x162c(%rbp)
   14927:	83 bd d4 e9 ff ff 00 	cmpl   $0x0,-0x162c(%rbp)
   1492e:	0f 8e 77 eb ff ff    	jle    134ab <func_26+0x208e>
   14934:	8b 05 0e 01 01 00    	mov    0x1010e(%rip),%eax        # 24a48 <g_2197>
   1493a:	89 c0                	mov    %eax,%eax
   1493c:	8b 84 85 80 ec ff ff 	mov    -0x1380(%rbp,%rax,4),%eax
   14943:	0f b7 d8             	movzwl %ax,%ebx
   14946:	48 8b 85 88 e9 ff ff 	mov    -0x1678(%rbp),%rax
   1494d:	41 89 c4             	mov    %eax,%r12d
   14950:	48 8b 85 28 ea ff ff 	mov    -0x15d8(%rbp),%rax
   14957:	8b 00                	mov    (%rax),%eax
   14959:	85 c0                	test   %eax,%eax
   1495b:	75 39                	jne    14996 <func_26+0x3579>
   1495d:	48 8b 85 28 ea ff ff 	mov    -0x15d8(%rbp),%rax
   14964:	8b 00                	mov    (%rax),%eax
   14966:	0f b6 d0             	movzbl %al,%edx
   14969:	48 83 bd d8 ea ff ff 	cmpq   $0x0,-0x1528(%rbp)
   14970:	00 
   14971:	0f 95 c0             	setne  %al
   14974:	0f b6 c0             	movzbl %al,%eax
   14977:	89 d6                	mov    %edx,%esi
   14979:	89 c7                	mov    %eax,%edi
   1497b:	e8 13 92 ff ff       	callq  db93 <safe_mul_func_uint8_t_u_u>
   14980:	0f b6 c0             	movzbl %al,%eax
   14983:	8b 95 8c ec ff ff    	mov    -0x1374(%rbp),%edx
   14989:	89 c6                	mov    %eax,%esi
   1498b:	89 d7                	mov    %edx,%edi
   1498d:	e8 3e 95 ff ff       	callq  ded0 <safe_sub_func_uint32_t_u_u>
   14992:	85 c0                	test   %eax,%eax
   14994:	74 07                	je     1499d <func_26+0x3580>
   14996:	b8 01 00 00 00       	mov    $0x1,%eax
   1499b:	eb 05                	jmp    149a2 <func_26+0x3585>
   1499d:	b8 00 00 00 00       	mov    $0x0,%eax
   149a2:	48 98                	cltq   
   149a4:	be 01 00 00 00       	mov    $0x1,%esi
   149a9:	48 89 c7             	mov    %rax,%rdi
   149ac:	e8 9a 96 ff ff       	callq  e04b <safe_sub_func_uint64_t_u_u>
   149b1:	0f b6 c0             	movzbl %al,%eax
   149b4:	be 05 00 00 00       	mov    $0x5,%esi
   149b9:	89 c7                	mov    %eax,%edi
   149bb:	e8 8c 92 ff ff       	callq  dc4c <safe_lshift_func_uint8_t_u_u>
   149c0:	0f b6 c0             	movzbl %al,%eax
   149c3:	21 85 d8 e9 ff ff    	and    %eax,-0x1628(%rbp)
   149c9:	8b 85 d8 e9 ff ff    	mov    -0x1628(%rbp),%eax
   149cf:	3b 85 0c ea ff ff    	cmp    -0x15f4(%rbp),%eax
   149d5:	0f 95 c0             	setne  %al
   149d8:	89 c2                	mov    %eax,%edx
   149da:	8b 85 0c ea ff ff    	mov    -0x15f4(%rbp),%eax
   149e0:	09 d0                	or     %edx,%eax
   149e2:	0f b6 c0             	movzbl %al,%eax
   149e5:	44 89 e6             	mov    %r12d,%esi
   149e8:	89 c7                	mov    %eax,%edi
   149ea:	e8 cf 92 ff ff       	callq  dcbe <safe_rshift_func_uint8_t_u_u>
   149ef:	be f8 ff ff ff       	mov    $0xfffffff8,%esi
   149f4:	bf 00 00 00 00       	mov    $0x0,%edi
   149f9:	e8 f4 87 ff ff       	callq  d1f2 <safe_sub_func_int8_t_s_s>
   149fe:	48 0f be c0          	movsbq %al,%rax
   14a02:	be 02 00 00 00       	mov    $0x2,%esi
   14a07:	48 89 c7             	mov    %rax,%rdi
   14a0a:	e8 71 96 ff ff       	callq  e080 <safe_mod_func_uint64_t_u_u>
   14a0f:	48 83 bd 00 ec ff ff 	cmpq   $0x0,-0x1400(%rbp)
   14a16:	00 
   14a17:	48 8b 05 72 3c 01 00 	mov    0x13c72(%rip),%rax        # 28690 <g_205>
   14a1e:	48 8b 00             	mov    (%rax),%rax
   14a21:	0f b7 10             	movzwl (%rax),%edx
   14a24:	48 8b 05 1d 3c 01 00 	mov    0x13c1d(%rip),%rax        # 28648 <g_119>
   14a2b:	0f b7 00             	movzwl (%rax),%eax
   14a2e:	31 d0                	xor    %edx,%eax
   14a30:	0f b7 c0             	movzwl %ax,%eax
   14a33:	8b 15 e3 fe 00 00    	mov    0xfee3(%rip),%edx        # 2491c <g_1887+0xc>
   14a39:	81 e2 ff ff 3f 00    	and    $0x3fffff,%edx
   14a3f:	09 d0                	or     %edx,%eax
   14a41:	25 ff ff 3f 00       	and    $0x3fffff,%eax
   14a46:	25 ff ff 3f 00       	and    $0x3fffff,%eax
   14a4b:	89 c2                	mov    %eax,%edx
   14a4d:	8b 05 c9 fe 00 00    	mov    0xfec9(%rip),%eax        # 2491c <g_1887+0xc>
   14a53:	25 00 00 c0 ff       	and    $0xffc00000,%eax
   14a58:	09 d0                	or     %edx,%eax
   14a5a:	89 05 bc fe 00 00    	mov    %eax,0xfebc(%rip)        # 2491c <g_1887+0xc>
   14a60:	48 8b 85 18 eb ff ff 	mov    -0x14e8(%rbp),%rax
   14a67:	8b 00                	mov    (%rax),%eax
   14a69:	0f b7 c0             	movzwl %ax,%eax
   14a6c:	89 de                	mov    %ebx,%esi
   14a6e:	89 c7                	mov    %eax,%edi
   14a70:	e8 c8 92 ff ff       	callq  dd3d <safe_mul_func_uint16_t_u_u>
   14a75:	66 85 c0             	test   %ax,%ax
   14a78:	75 0a                	jne    14a84 <func_26+0x3667>
   14a7a:	48 83 bd 88 e9 ff ff 	cmpq   $0x0,-0x1678(%rbp)
   14a81:	00 
   14a82:	74 07                	je     14a8b <func_26+0x366e>
   14a84:	b8 01 00 00 00       	mov    $0x1,%eax
   14a89:	eb 05                	jmp    14a90 <func_26+0x3673>
   14a8b:	b8 00 00 00 00       	mov    $0x0,%eax
   14a90:	0f b7 c0             	movzwl %ax,%eax
   14a93:	be f8 ff 00 00       	mov    $0xfff8,%esi
   14a98:	89 c7                	mov    %eax,%edi
   14a9a:	e8 bd 92 ff ff       	callq  dd5c <safe_mod_func_uint16_t_u_u>
   14a9f:	48 8d 15 22 fa 00 00 	lea    0xfa22(%rip),%rdx        # 244c8 <g_703>
   14aa6:	8b 0a                	mov    (%rdx),%ecx
   14aa8:	0f b7 d0             	movzwl %ax,%edx
   14aab:	48 8d 05 16 fa 00 00 	lea    0xfa16(%rip),%rax        # 244c8 <g_703>
   14ab2:	21 ca                	and    %ecx,%edx
   14ab4:	89 10                	mov    %edx,(%rax)
   14ab6:	0f b6 45 c3          	movzbl -0x3d(%rbp),%eax
   14aba:	0f b6 d8             	movzbl %al,%ebx
   14abd:	0f be 85 91 e9 ff ff 	movsbl -0x166f(%rbp),%eax
   14ac4:	48 8b 95 88 e9 ff ff 	mov    -0x1678(%rbp),%rdx
   14acb:	83 e2 01             	and    $0x1,%edx
   14ace:	89 c6                	mov    %eax,%esi
   14ad0:	89 d7                	mov    %edx,%edi
   14ad2:	e8 28 8c ff ff       	callq  d6ff <safe_div_func_int32_t_s_s>
   14ad7:	0f b6 c0             	movzbl %al,%eax
   14ada:	89 c6                	mov    %eax,%esi
   14adc:	bf 71 00 00 00       	mov    $0x71,%edi
   14ae1:	e8 c8 90 ff ff       	callq  dbae <safe_mod_func_uint8_t_u_u>
   14ae6:	3c 94                	cmp    $0x94,%al
   14ae8:	0f 97 c0             	seta   %al
   14aeb:	44 0f b6 e0          	movzbl %al,%r12d
   14aef:	48 8b 85 88 e9 ff ff 	mov    -0x1678(%rbp),%rax
   14af6:	0f b7 c0             	movzwl %ax,%eax
   14af9:	be 0d 00 00 00       	mov    $0xd,%esi
   14afe:	89 c7                	mov    %eax,%edi
   14b00:	e8 43 93 ff ff       	callq  de48 <safe_rshift_func_uint16_t_u_s>
   14b05:	0f b7 c0             	movzwl %ax,%eax
   14b08:	44 89 e6             	mov    %r12d,%esi
   14b0b:	89 c7                	mov    %eax,%edi
   14b0d:	e8 ed 91 ff ff       	callq  dcff <safe_add_func_uint16_t_u_u>
   14b12:	0f b7 c0             	movzwl %ax,%eax
   14b15:	48 39 85 88 e9 ff ff 	cmp    %rax,-0x1678(%rbp)
   14b1c:	0f 95 c0             	setne  %al
   14b1f:	0f b6 d0             	movzbl %al,%edx
   14b22:	8b 85 90 ec ff ff    	mov    -0x1370(%rbp),%eax
   14b28:	21 d0                	and    %edx,%eax
   14b2a:	89 85 90 ec ff ff    	mov    %eax,-0x1370(%rbp)
   14b30:	8b 85 90 ec ff ff    	mov    -0x1370(%rbp),%eax
   14b36:	0f b6 c0             	movzbl %al,%eax
   14b39:	89 de                	mov    %ebx,%esi
   14b3b:	89 c7                	mov    %eax,%edi
   14b3d:	e8 6c 90 ff ff       	callq  dbae <safe_mod_func_uint8_t_u_u>
   14b42:	48 8b 85 88 e9 ff ff 	mov    -0x1678(%rbp),%rax
   14b49:	be 00 00 00 00       	mov    $0x0,%esi
   14b4e:	89 c7                	mov    %eax,%edi
   14b50:	e8 b0 8a ff ff       	callq  d605 <safe_sub_func_int32_t_s_s>
   14b55:	48 8b 15 a4 4a 01 00 	mov    0x14aa4(%rip),%rdx        # 29600 <g_1860>
   14b5c:	48 8b 12             	mov    (%rdx),%rdx
   14b5f:	8b 12                	mov    (%rdx),%edx
   14b61:	39 d0                	cmp    %edx,%eax
   14b63:	48 8b 85 18 eb ff ff 	mov    -0x14e8(%rbp),%rax
   14b6a:	8b 10                	mov    (%rax),%edx
   14b6c:	8b 85 10 ea ff ff    	mov    -0x15f0(%rbp),%eax
   14b72:	48 98                	cltq   
   14b74:	b9 1b c0 b9 fc       	mov    $0xfcb9c01b,%ecx
   14b79:	48 09 c8             	or     %rcx,%rax
   14b7c:	48 3d a7 00 00 00    	cmp    $0xa7,%rax
   14b82:	0f 9f c0             	setg   %al
   14b85:	0f b6 c0             	movzbl %al,%eax
   14b88:	09 c2                	or     %eax,%edx
   14b8a:	48 8b 85 88 eb ff ff 	mov    -0x1478(%rbp),%rax
   14b91:	0f b6 00             	movzbl (%rax),%eax
   14b94:	09 c2                	or     %eax,%edx
   14b96:	48 8b 85 88 eb ff ff 	mov    -0x1478(%rbp),%rax
   14b9d:	88 10                	mov    %dl,(%rax)
   14b9f:	48 8b 85 88 eb ff ff 	mov    -0x1478(%rbp),%rax
   14ba6:	0f b6 00             	movzbl (%rax),%eax
   14ba9:	0f be c0             	movsbl %al,%eax
   14bac:	be 00 00 00 00       	mov    $0x0,%esi
   14bb1:	89 c7                	mov    %eax,%edi
   14bb3:	e8 1c 86 ff ff       	callq  d1d4 <safe_add_func_int8_t_s_s>
   14bb8:	48 8b 15 c1 43 01 00 	mov    0x143c1(%rip),%rdx        # 28f80 <g_701>
   14bbf:	48 8b 12             	mov    (%rdx),%rdx
   14bc2:	8b 0a                	mov    (%rdx),%ecx
   14bc4:	0f be d0             	movsbl %al,%edx
   14bc7:	48 8b 05 b2 43 01 00 	mov    0x143b2(%rip),%rax        # 28f80 <g_701>
   14bce:	48 8b 00             	mov    (%rax),%rax
   14bd1:	09 ca                	or     %ecx,%edx
   14bd3:	89 10                	mov    %edx,(%rax)
   14bd5:	8b 05 6d fe 00 00    	mov    0xfe6d(%rip),%eax        # 24a48 <g_2197>
   14bdb:	83 c0 01             	add    $0x1,%eax
   14bde:	89 05 64 fe 00 00    	mov    %eax,0xfe64(%rip)        # 24a48 <g_2197>
   14be4:	8b 05 5e fe 00 00    	mov    0xfe5e(%rip),%eax        # 24a48 <g_2197>
   14bea:	83 f8 06             	cmp    $0x6,%eax
   14bed:	0f 86 11 e8 ff ff    	jbe    13404 <func_26+0x1fe7>
   14bf3:	c7 85 a8 e9 ff ff 00 	movl   $0x0,-0x1658(%rbp)
   14bfa:	00 00 00 
   14bfd:	eb 27                	jmp    14c26 <func_26+0x3809>
   14bff:	48 8b 05 82 43 01 00 	mov    0x14382(%rip),%rax        # 28f88 <g_700>
   14c06:	48 8b 00             	mov    (%rax),%rax
   14c09:	48 8b 00             	mov    (%rax),%rax
   14c0c:	48 8b 95 18 eb ff ff 	mov    -0x14e8(%rbp),%rdx
   14c13:	8b 12                	mov    (%rdx),%edx
   14c15:	89 10                	mov    %edx,(%rax)
   14c17:	8b 85 a8 e9 ff ff    	mov    -0x1658(%rbp),%eax
   14c1d:	83 c0 01             	add    $0x1,%eax
   14c20:	89 85 a8 e9 ff ff    	mov    %eax,-0x1658(%rbp)
   14c26:	8b 85 a8 e9 ff ff    	mov    -0x1658(%rbp),%eax
   14c2c:	85 c0                	test   %eax,%eax
   14c2e:	7e cf                	jle    14bff <func_26+0x37e2>
   14c30:	48 8b 85 88 e9 ff ff 	mov    -0x1678(%rbp),%rax
   14c37:	e9 5d 0d 00 00       	jmpq   15999 <func_26+0x457c>
   14c3c:	48 8d 05 35 f8 00 00 	lea    0xf835(%rip),%rax        # 24478 <g_471>
   14c43:	48 89 85 b0 eb ff ff 	mov    %rax,-0x1450(%rbp)
   14c4a:	c7 85 e0 e9 ff ff 9a 	movl   $0xec3f829a,-0x1620(%rbp)
   14c51:	82 3f ec 
   14c54:	48 8d 05 8d 3a 01 00 	lea    0x13a8d(%rip),%rax        # 286e8 <g_257>
   14c5b:	48 89 85 98 ea ff ff 	mov    %rax,-0x1568(%rbp)
   14c62:	48 8d 85 98 ea ff ff 	lea    -0x1568(%rbp),%rax
   14c69:	48 89 85 b8 eb ff ff 	mov    %rax,-0x1448(%rbp)
   14c70:	48 8d 05 93 fd 00 00 	lea    0xfd93(%rip),%rax        # 24a0a <g_2079>
   14c77:	48 89 85 c0 eb ff ff 	mov    %rax,-0x1440(%rbp)
   14c7e:	48 8d 05 4d f5 00 00 	lea    0xf54d(%rip),%rax        # 241d2 <g_96>
   14c85:	48 89 85 c8 eb ff ff 	mov    %rax,-0x1438(%rbp)
   14c8c:	c7 85 e4 e9 ff ff 00 	movl   $0x0,-0x161c(%rbp)
   14c93:	00 00 00 
   14c96:	eb 1a                	jmp    14cb2 <func_26+0x3895>
   14c98:	8b 85 e4 e9 ff ff    	mov    -0x161c(%rbp),%eax
   14c9e:	48 98                	cltq   
   14ca0:	c7 84 85 68 ec ff ff 	movl   $0x1,-0x1398(%rbp,%rax,4)
   14ca7:	01 00 00 00 
   14cab:	83 85 e4 e9 ff ff 01 	addl   $0x1,-0x161c(%rbp)
   14cb2:	83 bd e4 e9 ff ff 00 	cmpl   $0x0,-0x161c(%rbp)
   14cb9:	7e dd                	jle    14c98 <func_26+0x387b>
   14cbb:	c7 05 03 f8 00 00 00 	movl   $0x0,0xf803(%rip)        # 244c8 <g_703>
   14cc2:	00 00 00 
   14cc5:	e9 af 05 00 00       	jmpq   15279 <func_26+0x3e5c>
   14cca:	c6 85 a8 ea ff ff ff 	movb   $0xff,-0x1558(%rbp)
   14cd1:	c7 85 00 ea ff ff b9 	movl   $0xfae6fcb9,-0x1600(%rbp)
   14cd8:	fc e6 fa 
   14cdb:	c7 85 e8 e9 ff ff 00 	movl   $0x0,-0x1618(%rbp)
   14ce2:	00 00 00 
   14ce5:	eb 1a                	jmp    14d01 <func_26+0x38e4>
   14ce7:	8b 85 e8 e9 ff ff    	mov    -0x1618(%rbp),%eax
   14ced:	48 98                	cltq   
   14cef:	c7 84 85 80 ec ff ff 	movl   $0x84d646fe,-0x1380(%rbp,%rax,4)
   14cf6:	fe 46 d6 84 
   14cfa:	83 85 e8 e9 ff ff 01 	addl   $0x1,-0x1618(%rbp)
   14d01:	83 bd e8 e9 ff ff 05 	cmpl   $0x5,-0x1618(%rbp)
   14d08:	7e dd                	jle    14ce7 <func_26+0x38ca>
   14d0a:	48 8b 85 18 eb ff ff 	mov    -0x14e8(%rbp),%rax
   14d11:	8b 00                	mov    (%rax),%eax
   14d13:	0f bf d8             	movswl %ax,%ebx
   14d16:	48 8b 85 88 e9 ff ff 	mov    -0x1678(%rbp),%rax
   14d1d:	44 0f be e0          	movsbl %al,%r12d
   14d21:	0f b7 05 c2 f4 00 00 	movzwl 0xf4c2(%rip),%eax        # 241ea <g_117+0xa>
   14d28:	44 0f bf e8          	movswl %ax,%r13d
   14d2c:	be 00 00 00 00       	mov    $0x0,%esi
   14d31:	bf ff ff ff ff       	mov    $0xffffffff,%edi
   14d36:	e8 ef 87 ff ff       	callq  d52a <safe_rshift_func_int16_t_s_s>
   14d3b:	44 0f bf f0          	movswl %ax,%r14d
   14d3f:	48 8b 05 da 4f 01 00 	mov    0x14fda(%rip),%rax        # 29d20 <g_1944>
   14d46:	48 8b 00             	mov    (%rax),%rax
   14d49:	0f b7 00             	movzwl (%rax),%eax
   14d4c:	0f b7 d0             	movzwl %ax,%edx
   14d4f:	48 83 bd b0 eb ff ff 	cmpq   $0x0,-0x1450(%rbp)
   14d56:	00 
   14d57:	0f 95 c0             	setne  %al
   14d5a:	0f b6 c8             	movzbl %al,%ecx
   14d5d:	0f b6 05 07 f7 00 00 	movzbl 0xf707(%rip),%eax        # 2446b <g_467+0xb>
   14d64:	c1 e0 06             	shl    $0x6,%eax
   14d67:	c0 f8 07             	sar    $0x7,%al
   14d6a:	0f be c0             	movsbl %al,%eax
   14d6d:	39 c1                	cmp    %eax,%ecx
   14d6f:	0f 9f c0             	setg   %al
   14d72:	0f b6 c0             	movzbl %al,%eax
   14d75:	89 d6                	mov    %edx,%esi
   14d77:	89 c7                	mov    %eax,%edi
   14d79:	e8 bf 8f ff ff       	callq  dd3d <safe_mul_func_uint16_t_u_u>
   14d7e:	48 8b 85 18 eb ff ff 	mov    -0x14e8(%rbp),%rax
   14d85:	8b 00                	mov    (%rax),%eax
   14d87:	85 c0                	test   %eax,%eax
   14d89:	7f 1b                	jg     14da6 <func_26+0x3989>
   14d8b:	48 83 bd 88 e9 ff ff 	cmpq   $0x0,-0x1678(%rbp)
   14d92:	00 
   14d93:	74 11                	je     14da6 <func_26+0x3989>
   14d95:	48 83 bd 88 e9 ff ff 	cmpq   $0x0,-0x1678(%rbp)
   14d9c:	00 
   14d9d:	74 07                	je     14da6 <func_26+0x3989>
   14d9f:	b8 01 00 00 00       	mov    $0x1,%eax
   14da4:	eb 05                	jmp    14dab <func_26+0x398e>
   14da6:	b8 00 00 00 00       	mov    $0x0,%eax
   14dab:	44 39 f0             	cmp    %r14d,%eax
   14dae:	0f 95 c0             	setne  %al
   14db1:	0f b6 c0             	movzbl %al,%eax
   14db4:	41 39 c5             	cmp    %eax,%r13d
   14db7:	0f 9e c0             	setle  %al
   14dba:	89 c2                	mov    %eax,%edx
   14dbc:	48 8b 85 88 e9 ff ff 	mov    -0x1678(%rbp),%rax
   14dc3:	09 d0                	or     %edx,%eax
   14dc5:	0f be c0             	movsbl %al,%eax
   14dc8:	44 89 e6             	mov    %r12d,%esi
   14dcb:	89 c7                	mov    %eax,%edi
   14dcd:	e8 5f 84 ff ff       	callq  d231 <safe_mod_func_int8_t_s_s>
   14dd2:	48 0f be c0          	movsbq %al,%rax
   14dd6:	48 33 85 88 e9 ff ff 	xor    -0x1678(%rbp),%rax
   14ddd:	48 89 c2             	mov    %rax,%rdx
   14de0:	48 8b 05 a9 38 01 00 	mov    0x138a9(%rip),%rax        # 28690 <g_205>
   14de7:	48 8b 00             	mov    (%rax),%rax
   14dea:	0f b7 00             	movzwl (%rax),%eax
   14ded:	0f b7 c0             	movzwl %ax,%eax
   14df0:	48 39 c2             	cmp    %rax,%rdx
   14df3:	0f 9e c0             	setle  %al
   14df6:	0f b6 d0             	movzbl %al,%edx
   14df9:	48 8b 85 88 e9 ff ff 	mov    -0x1678(%rbp),%rax
   14e00:	98                   	cwtl   
   14e01:	89 d6                	mov    %edx,%esi
   14e03:	89 c7                	mov    %eax,%edi
   14e05:	e8 eb 85 ff ff       	callq  d3f5 <safe_mul_func_int16_t_s_s>
   14e0a:	0f b6 d0             	movzbl %al,%edx
   14e0d:	48 8b 05 d4 47 01 00 	mov    0x147d4(%rip),%rax        # 295e8 <g_1629>
   14e14:	48 8b 00             	mov    (%rax),%rax
   14e17:	8b 00                	mov    (%rax),%eax
   14e19:	89 c1                	mov    %eax,%ecx
   14e1b:	48 8b 85 88 e9 ff ff 	mov    -0x1678(%rbp),%rax
   14e22:	09 c8                	or     %ecx,%eax
   14e24:	0f b6 c0             	movzbl %al,%eax
   14e27:	89 d6                	mov    %edx,%esi
   14e29:	89 c7                	mov    %eax,%edi
   14e2b:	e8 2a 8d ff ff       	callq  db5a <safe_add_func_uint8_t_u_u>
   14e30:	89 de                	mov    %ebx,%esi
   14e32:	bf 5c 16 00 00       	mov    $0x165c,%edi
   14e37:	e8 b9 85 ff ff       	callq  d3f5 <safe_mul_func_int16_t_s_s>
   14e3c:	48 8d 05 95 41 01 00 	lea    0x14195(%rip),%rax        # 28fd8 <g_933>
   14e43:	48 89 85 50 ed ff ff 	mov    %rax,-0x12b0(%rbp)
   14e4a:	48 8d 05 87 41 01 00 	lea    0x14187(%rip),%rax        # 28fd8 <g_933>
   14e51:	48 89 85 58 ed ff ff 	mov    %rax,-0x12a8(%rbp)
   14e58:	48 8d 05 79 41 01 00 	lea    0x14179(%rip),%rax        # 28fd8 <g_933>
   14e5f:	48 89 85 60 ed ff ff 	mov    %rax,-0x12a0(%rbp)
   14e66:	48 8d 05 6b 41 01 00 	lea    0x1416b(%rip),%rax        # 28fd8 <g_933>
   14e6d:	48 89 85 68 ed ff ff 	mov    %rax,-0x1298(%rbp)
   14e74:	c7 85 04 ea ff ff 28 	movl   $0x58d8b428,-0x15fc(%rbp)
   14e7b:	b4 d8 58 
   14e7e:	c6 85 92 e9 ff ff c5 	movb   $0xc5,-0x166e(%rbp)
   14e85:	c7 85 c4 e9 ff ff 00 	movl   $0x0,-0x163c(%rbp)
   14e8c:	00 00 00 
   14e8f:	eb 52                	jmp    14ee3 <func_26+0x3ac6>
   14e91:	c7 85 c8 e9 ff ff 00 	movl   $0x0,-0x1638(%rbp)
   14e98:	00 00 00 
   14e9b:	eb 36                	jmp    14ed3 <func_26+0x3ab6>
   14e9d:	8b 85 c8 e9 ff ff    	mov    -0x1638(%rbp),%eax
   14ea3:	48 63 c8             	movslq %eax,%rcx
   14ea6:	8b 85 c4 e9 ff ff    	mov    -0x163c(%rbp),%eax
   14eac:	48 63 d0             	movslq %eax,%rdx
   14eaf:	48 89 d0             	mov    %rdx,%rax
   14eb2:	48 c1 e0 02          	shl    $0x2,%rax
   14eb6:	48 01 d0             	add    %rdx,%rax
   14eb9:	48 8d 5d d0          	lea    -0x30(%rbp),%rbx
   14ebd:	48 01 d8             	add    %rbx,%rax
   14ec0:	48 01 c8             	add    %rcx,%rax
   14ec3:	48 2d 5a 13 00 00    	sub    $0x135a,%rax
   14ec9:	c6 00 01             	movb   $0x1,(%rax)
   14ecc:	83 85 c8 e9 ff ff 01 	addl   $0x1,-0x1638(%rbp)
   14ed3:	83 bd c8 e9 ff ff 04 	cmpl   $0x4,-0x1638(%rbp)
   14eda:	7e c1                	jle    14e9d <func_26+0x3a80>
   14edc:	83 85 c4 e9 ff ff 01 	addl   $0x1,-0x163c(%rbp)
   14ee3:	83 bd c4 e9 ff ff 01 	cmpl   $0x1,-0x163c(%rbp)
   14eea:	7e a5                	jle    14e91 <func_26+0x3a74>
   14eec:	48 8d 85 78 ea ff ff 	lea    -0x1588(%rbp),%rax
   14ef3:	48 89 05 86 57 01 00 	mov    %rax,0x15786(%rip)        # 2a680 <g_2973>
   14efa:	8b 85 a4 e9 ff ff    	mov    -0x165c(%rbp),%eax
   14f00:	83 c8 55             	or     $0x55,%eax
   14f03:	89 c2                	mov    %eax,%edx
   14f05:	0f b6 85 a8 ea ff ff 	movzbl -0x1558(%rbp),%eax
   14f0c:	09 d0                	or     %edx,%eax
   14f0e:	88 85 a8 ea ff ff    	mov    %al,-0x1558(%rbp)
   14f14:	48 8b 05 65 56 01 00 	mov    0x15665(%rip),%rax        # 2a580 <g_2678>
   14f1b:	48 8b 00             	mov    (%rax),%rax
   14f1e:	48 8b 10             	mov    (%rax),%rdx
   14f21:	48 8b 05 58 56 01 00 	mov    0x15658(%rip),%rax        # 2a580 <g_2678>
   14f28:	48 8b 00             	mov    (%rax),%rax
   14f2b:	48 8b 00             	mov    (%rax),%rax
   14f2e:	0f b6 12             	movzbl (%rdx),%edx
   14f31:	88 10                	mov    %dl,(%rax)
   14f33:	0f b6 00             	movzbl (%rax),%eax
   14f36:	84 c0                	test   %al,%al
   14f38:	75 1a                	jne    14f54 <func_26+0x3b37>
   14f3a:	8b 95 94 ec ff ff    	mov    -0x136c(%rbp),%edx
   14f40:	48 8b 05 39 56 01 00 	mov    0x15639(%rip),%rax        # 2a580 <g_2678>
   14f47:	48 8b 00             	mov    (%rax),%rax
   14f4a:	48 8b 00             	mov    (%rax),%rax
   14f4d:	88 10                	mov    %dl,(%rax)
   14f4f:	0f b6 00             	movzbl (%rax),%eax
   14f52:	84 c0                	test   %al,%al
   14f54:	48 8d 85 b4 e9 ff ff 	lea    -0x164c(%rbp),%rax
   14f5b:	48 89 85 e8 eb ff ff 	mov    %rax,-0x1418(%rbp)
   14f62:	c7 85 cc e9 ff ff 00 	movl   $0x0,-0x1634(%rbp)
   14f69:	00 00 00 
   14f6c:	eb 1b                	jmp    14f89 <func_26+0x3b6c>
   14f6e:	8b 85 cc e9 ff ff    	mov    -0x1634(%rbp),%eax
   14f74:	48 98                	cltq   
   14f76:	48 c7 84 c5 b0 f7 ff 	movq   $0x0,-0x850(%rbp,%rax,8)
   14f7d:	ff 00 00 00 00 
   14f82:	83 85 cc e9 ff ff 01 	addl   $0x1,-0x1634(%rbp)
   14f89:	83 bd cc e9 ff ff 04 	cmpl   $0x4,-0x1634(%rbp)
   14f90:	7e dc                	jle    14f6e <func_26+0x3b51>
   14f92:	0f b6 85 7c ec ff ff 	movzbl -0x1384(%rbp),%eax
   14f99:	83 c0 01             	add    $0x1,%eax
   14f9c:	88 85 7c ec ff ff    	mov    %al,-0x1384(%rbp)
   14fa2:	48 83 bd 88 e9 ff ff 	cmpq   $0x0,-0x1678(%rbp)
   14fa9:	00 
   14faa:	75 71                	jne    1501d <func_26+0x3c00>
   14fac:	0f b6 9d 92 e9 ff ff 	movzbl -0x166e(%rbp),%ebx
   14fb3:	be 07 00 00 00       	mov    $0x7,%esi
   14fb8:	bf 1e 00 00 00       	mov    $0x1e,%edi
   14fbd:	e8 fc 8c ff ff       	callq  dcbe <safe_rshift_func_uint8_t_u_u>
   14fc2:	0f b6 d0             	movzbl %al,%edx
   14fc5:	48 8b 85 88 e9 ff ff 	mov    -0x1678(%rbp),%rax
   14fcc:	0f b7 c0             	movzwl %ax,%eax
   14fcf:	89 d6                	mov    %edx,%esi
   14fd1:	89 c7                	mov    %eax,%edi
   14fd3:	e8 e6 8d ff ff       	callq  ddbe <safe_lshift_func_uint16_t_u_s>
   14fd8:	0f b7 c0             	movzwl %ax,%eax
   14fdb:	89 85 04 ea ff ff    	mov    %eax,-0x15fc(%rbp)
   14fe1:	8b 85 04 ea ff ff    	mov    -0x15fc(%rbp),%eax
   14fe7:	0f be c0             	movsbl %al,%eax
   14fea:	89 de                	mov    %ebx,%esi
   14fec:	89 c7                	mov    %eax,%edi
   14fee:	e8 ae 82 ff ff       	callq  d2a1 <safe_lshift_func_int8_t_s_s>
   14ff3:	48 0f be c0          	movsbq %al,%rax
   14ff7:	48 39 85 88 e9 ff ff 	cmp    %rax,-0x1678(%rbp)
   14ffe:	0f 9e c0             	setle  %al
   15001:	0f b6 d0             	movzbl %al,%edx
   15004:	48 8b 85 80 eb ff ff 	mov    -0x1480(%rbp),%rax
   1500b:	48 89 10             	mov    %rdx,(%rax)
   1500e:	48 8b 85 80 eb ff ff 	mov    -0x1480(%rbp),%rax
   15015:	48 8b 00             	mov    (%rax),%rax
   15018:	48 85 c0             	test   %rax,%rax
   1501b:	74 07                	je     15024 <func_26+0x3c07>
   1501d:	b8 01 00 00 00       	mov    $0x1,%eax
   15022:	eb 05                	jmp    15029 <func_26+0x3c0c>
   15024:	b8 00 00 00 00       	mov    $0x0,%eax
   15029:	0f b6 c0             	movzbl %al,%eax
   1502c:	be 05 00 00 00       	mov    $0x5,%esi
   15031:	89 c7                	mov    %eax,%edi
   15033:	e8 55 8c ff ff       	callq  dc8d <safe_rshift_func_uint8_t_u_s>
   15038:	48 8b 05 41 55 01 00 	mov    0x15541(%rip),%rax        # 2a580 <g_2678>
   1503f:	48 8b 00             	mov    (%rax),%rax
   15042:	48 8b 00             	mov    (%rax),%rax
   15045:	0f b6 10             	movzbl (%rax),%edx
   15048:	8d 4a 01             	lea    0x1(%rdx),%ecx
   1504b:	88 08                	mov    %cl,(%rax)
   1504d:	0f b6 c2             	movzbl %dl,%eax
   15050:	48 8b 95 88 e9 ff ff 	mov    -0x1678(%rbp),%rdx
   15057:	21 d0                	and    %edx,%eax
   15059:	0f b7 c0             	movzwl %ax,%eax
   1505c:	be 01 00 00 00       	mov    $0x1,%esi
   15061:	89 c7                	mov    %eax,%edi
   15063:	e8 12 8e ff ff       	callq  de7a <safe_rshift_func_uint16_t_u_u>
   15068:	8b 85 e0 e9 ff ff    	mov    -0x1620(%rbp),%eax
   1506e:	48 98                	cltq   
   15070:	48 0b 85 88 e9 ff ff 	or     -0x1678(%rbp),%rax
   15077:	48 3d 02 53 00 00    	cmp    $0x5302,%rax
   1507d:	74 13                	je     15092 <func_26+0x3c75>
   1507f:	c7 85 08 ea ff ff 08 	movl   $0x8,-0x15f8(%rbp)
   15086:	00 00 00 
   15089:	83 ad 08 ea ff ff 01 	subl   $0x1,-0x15f8(%rbp)
   15090:	eb 25                	jmp    150b7 <func_26+0x3c9a>
   15092:	48 8d 05 e7 54 01 00 	lea    0x154e7(%rip),%rax        # 2a580 <g_2678>
   15099:	48 89 85 f0 eb ff ff 	mov    %rax,-0x1410(%rbp)
   150a0:	48 83 bd f0 eb ff ff 	cmpq   $0x0,-0x1410(%rbp)
   150a7:	00 
   150a8:	0f 94 c2             	sete   %dl
   150ab:	48 8b 05 3e 45 01 00 	mov    0x1453e(%rip),%rax        # 295f0 <g_1656>
   150b2:	0f b6 d2             	movzbl %dl,%edx
   150b5:	89 10                	mov    %edx,(%rax)
   150b7:	48 c7 05 3e 01 01 00 	movq   $0x0,0x1013e(%rip)        # 25200 <g_2797>
   150be:	00 00 00 00 
   150c2:	e9 30 01 00 00       	jmpq   151f7 <func_26+0x3dda>
   150c7:	48 8b 85 18 eb ff ff 	mov    -0x14e8(%rbp),%rax
   150ce:	8b 00                	mov    (%rax),%eax
   150d0:	0f be d8             	movsbl %al,%ebx
   150d3:	8b 05 ef f3 00 00    	mov    0xf3ef(%rip),%eax        # 244c8 <g_703>
   150d9:	8d 50 06             	lea    0x6(%rax),%edx
   150dc:	48 8b 05 1d 01 01 00 	mov    0x1011d(%rip),%rax        # 25200 <g_2797>
   150e3:	48 63 d2             	movslq %edx,%rdx
   150e6:	48 c1 e2 03          	shl    $0x3,%rdx
   150ea:	48 01 d0             	add    %rdx,%rax
   150ed:	48 8d 14 00          	lea    (%rax,%rax,1),%rdx
   150f1:	48 8d 05 48 ef 00 00 	lea    0xef48(%rip),%rax        # 24040 <g_25>
   150f8:	0f b7 04 02          	movzwl (%rdx,%rax,1),%eax
   150fc:	48 8b 85 18 eb ff ff 	mov    -0x14e8(%rbp),%rax
   15103:	8b 00                	mov    (%rax),%eax
   15105:	4c 63 f8             	movslq %eax,%r15
   15108:	48 8b 85 88 e9 ff ff 	mov    -0x1678(%rbp),%rax
   1510f:	44 0f b6 e0          	movzbl %al,%r12d
   15113:	48 8b 85 28 ea ff ff 	mov    -0x15d8(%rbp),%rax
   1511a:	c7 00 00 00 00 00    	movl   $0x0,(%rax)
   15120:	48 8b 85 88 e9 ff ff 	mov    -0x1678(%rbp),%rax
   15127:	44 0f b6 e8          	movzbl %al,%r13d
   1512b:	48 8b 05 e6 3d 01 00 	mov    0x13de6(%rip),%rax        # 28f18 <g_352>
   15132:	48 8b 00             	mov    (%rax),%rax
   15135:	48 8b 00             	mov    (%rax),%rax
   15138:	0f b6 00             	movzbl (%rax),%eax
   1513b:	44 0f be f0          	movsbl %al,%r14d
   1513f:	0f b6 85 a8 ea ff ff 	movzbl -0x1558(%rbp),%eax
   15146:	0f be c0             	movsbl %al,%eax
   15149:	be 07 00 00 00       	mov    $0x7,%esi
   1514e:	89 c7                	mov    %eax,%edi
   15150:	e8 e0 81 ff ff       	callq  d335 <safe_rshift_func_int8_t_s_s>
   15155:	0f be c0             	movsbl %al,%eax
   15158:	be 75 84 75 c6       	mov    $0xc6758475,%esi
   1515d:	89 c7                	mov    %eax,%edi
   1515f:	e8 c1 8d ff ff       	callq  df25 <safe_div_func_uint32_t_u_u>
   15164:	85 c0                	test   %eax,%eax
   15166:	74 07                	je     1516f <func_26+0x3d52>
   15168:	b8 01 00 00 00       	mov    $0x1,%eax
   1516d:	eb 05                	jmp    15174 <func_26+0x3d57>
   1516f:	b8 00 00 00 00       	mov    $0x0,%eax
   15174:	0f be c0             	movsbl %al,%eax
   15177:	44 89 f6             	mov    %r14d,%esi
   1517a:	89 c7                	mov    %eax,%edi
   1517c:	e8 b0 80 ff ff       	callq  d231 <safe_mod_func_int8_t_s_s>
   15181:	0f b6 c0             	movzbl %al,%eax
   15184:	44 89 ee             	mov    %r13d,%esi
   15187:	89 c7                	mov    %eax,%edi
   15189:	e8 ea 89 ff ff       	callq  db78 <safe_sub_func_uint8_t_u_u>
   1518e:	84 c0                	test   %al,%al
   15190:	74 07                	je     15199 <func_26+0x3d7c>
   15192:	b8 01 00 00 00       	mov    $0x1,%eax
   15197:	eb 05                	jmp    1519e <func_26+0x3d81>
   15199:	b8 00 00 00 00       	mov    $0x0,%eax
   1519e:	0f b6 c0             	movzbl %al,%eax
   151a1:	44 89 e6             	mov    %r12d,%esi
   151a4:	89 c7                	mov    %eax,%edi
   151a6:	e8 af 89 ff ff       	callq  db5a <safe_add_func_uint8_t_u_u>
   151ab:	0f b6 c0             	movzbl %al,%eax
   151ae:	48 0b 85 88 e9 ff ff 	or     -0x1678(%rbp),%rax
   151b5:	49 39 c7             	cmp    %rax,%r15
   151b8:	0f 9d c0             	setge  %al
   151bb:	0f b6 c0             	movzbl %al,%eax
   151be:	48 39 85 88 e9 ff ff 	cmp    %rax,-0x1678(%rbp)
   151c5:	0f 95 c0             	setne  %al
   151c8:	0f b6 c0             	movzbl %al,%eax
   151cb:	89 de                	mov    %ebx,%esi
   151cd:	89 c7                	mov    %eax,%edi
   151cf:	e8 3e 80 ff ff       	callq  d212 <safe_mul_func_int8_t_s_s>
   151d4:	83 f0 f8             	xor    $0xfffffff8,%eax
   151d7:	89 c2                	mov    %eax,%edx
   151d9:	48 8b 05 10 44 01 00 	mov    0x14410(%rip),%rax        # 295f0 <g_1656>
   151e0:	0f be d2             	movsbl %dl,%edx
   151e3:	89 10                	mov    %edx,(%rax)
   151e5:	48 8b 05 14 00 01 00 	mov    0x10014(%rip),%rax        # 25200 <g_2797>
   151ec:	48 83 c0 01          	add    $0x1,%rax
   151f0:	48 89 05 09 00 01 00 	mov    %rax,0x10009(%rip)        # 25200 <g_2797>
   151f7:	48 8b 05 02 00 01 00 	mov    0x10002(%rip),%rax        # 25200 <g_2797>
   151fe:	48 85 c0             	test   %rax,%rax
   15201:	0f 8e c0 fe ff ff    	jle    150c7 <func_26+0x3caa>
   15207:	c7 85 e0 e9 ff ff 00 	movl   $0x0,-0x1620(%rbp)
   1520e:	00 00 00 
   15211:	eb 4e                	jmp    15261 <func_26+0x3e44>
   15213:	48 c7 05 aa f8 00 00 	movq   $0x0,0xf8aa(%rip)        # 24ac8 <g_2477>
   1521a:	00 00 00 00 
   1521e:	eb 20                	jmp    15240 <func_26+0x3e23>
   15220:	48 8d 85 a0 e9 ff ff 	lea    -0x1660(%rbp),%rax
   15227:	48 89 85 28 ea ff ff 	mov    %rax,-0x15d8(%rbp)
   1522e:	48 8b 05 93 f8 00 00 	mov    0xf893(%rip),%rax        # 24ac8 <g_2477>
   15235:	48 83 c0 01          	add    $0x1,%rax
   15239:	48 89 05 88 f8 00 00 	mov    %rax,0xf888(%rip)        # 24ac8 <g_2477>
   15240:	48 8b 05 81 f8 00 00 	mov    0xf881(%rip),%rax        # 24ac8 <g_2477>
   15247:	48 85 c0             	test   %rax,%rax
   1524a:	7e d4                	jle    15220 <func_26+0x3e03>
   1524c:	48 8b 05 1d 3e 01 00 	mov    0x13e1d(%rip),%rax        # 29070 <g_1148>
   15253:	48 8b 00             	mov    (%rax),%rax
   15256:	8b 00                	mov    (%rax),%eax
   15258:	85 c0                	test   %eax,%eax
   1525a:	83 85 e0 e9 ff ff 01 	addl   $0x1,-0x1620(%rbp)
   15261:	83 bd e0 e9 ff ff 00 	cmpl   $0x0,-0x1620(%rbp)
   15268:	7e a9                	jle    15213 <func_26+0x3df6>
   1526a:	8b 05 58 f2 00 00    	mov    0xf258(%rip),%eax        # 244c8 <g_703>
   15270:	83 e8 01             	sub    $0x1,%eax
   15273:	89 05 4f f2 00 00    	mov    %eax,0xf24f(%rip)        # 244c8 <g_703>
   15279:	8b 05 49 f2 00 00    	mov    0xf249(%rip),%eax        # 244c8 <g_703>
   1527f:	85 c0                	test   %eax,%eax
   15281:	0f 89 43 fa ff ff    	jns    14cca <func_26+0x38ad>
   15287:	48 c7 85 40 ea ff ff 	movq   $0x2,-0x15c0(%rbp)
   1528e:	02 00 00 00 
   15292:	e9 92 00 00 00       	jmpq   15329 <func_26+0x3f0c>
   15297:	c7 85 fc e9 ff ff 01 	movl   $0x1,-0x1604(%rbp)
   1529e:	00 00 00 
   152a1:	48 8d 05 70 5e 01 00 	lea    0x15e70(%rip),%rax        # 2b118 <g_877>
   152a8:	48 89 85 d0 eb ff ff 	mov    %rax,-0x1430(%rbp)
   152af:	48 8d 85 30 ea ff ff 	lea    -0x15d0(%rbp),%rax
   152b6:	48 89 85 d8 eb ff ff 	mov    %rax,-0x1428(%rbp)
   152bd:	48 8d 85 30 ea ff ff 	lea    -0x15d0(%rbp),%rax
   152c4:	48 89 85 e0 eb ff ff 	mov    %rax,-0x1420(%rbp)
   152cb:	48 c7 85 a0 ea ff ff 	movq   $0x0,-0x1560(%rbp)
   152d2:	00 00 00 00 
   152d6:	48 8d 85 a0 ea ff ff 	lea    -0x1560(%rbp),%rax
   152dd:	48 89 85 a8 ea ff ff 	mov    %rax,-0x1558(%rbp)
   152e4:	c7 85 d0 e9 ff ff 00 	movl   $0x0,-0x1630(%rbp)
   152eb:	00 00 00 
   152ee:	eb 1e                	jmp    1530e <func_26+0x3ef1>
   152f0:	8b 85 d0 e9 ff ff    	mov    -0x1630(%rbp),%eax
   152f6:	48 98                	cltq   
   152f8:	48 8d 95 a8 ea ff ff 	lea    -0x1558(%rbp),%rdx
   152ff:	48 89 94 c5 b0 f7 ff 	mov    %rdx,-0x850(%rbp,%rax,8)
   15306:	ff 
   15307:	83 85 d0 e9 ff ff 01 	addl   $0x1,-0x1630(%rbp)
   1530e:	83 bd d0 e9 ff ff 02 	cmpl   $0x2,-0x1630(%rbp)
   15315:	7e d9                	jle    152f0 <func_26+0x3ed3>
   15317:	48 8b 85 40 ea ff ff 	mov    -0x15c0(%rbp),%rax
   1531e:	48 83 c0 01          	add    $0x1,%rax
   15322:	48 89 85 40 ea ff ff 	mov    %rax,-0x15c0(%rbp)
   15329:	48 8b 85 40 ea ff ff 	mov    -0x15c0(%rbp),%rax
   15330:	48 83 f8 07          	cmp    $0x7,%rax
   15334:	0f 86 5d ff ff ff    	jbe    15297 <func_26+0x3e7a>
   1533a:	48 8b 85 88 e9 ff ff 	mov    -0x1678(%rbp),%rax
   15341:	e9 53 06 00 00       	jmpq   15999 <func_26+0x457c>
   15346:	48 8d 85 a4 e9 ff ff 	lea    -0x165c(%rbp),%rax
   1534d:	48 89 85 28 ea ff ff 	mov    %rax,-0x15d8(%rbp)
   15354:	c6 05 75 ee 00 00 00 	movb   $0x0,0xee75(%rip)        # 241d0 <g_82>
   1535b:	e9 23 06 00 00       	jmpq   15983 <func_26+0x4566>
   15360:	48 b8 f0 50 1b 6c c0 	movabs $0x974cccc06c1b50f0,%rax
   15367:	cc 4c 97 
   1536a:	48 89 85 20 eb ff ff 	mov    %rax,-0x14e0(%rbp)
   15371:	48 c7 85 28 eb ff ff 	movq   $0x0,-0x14d8(%rbp)
   15378:	00 00 00 00 
   1537c:	c7 85 f0 e9 ff ff be 	movl   $0x804782be,-0x1610(%rbp)
   15383:	82 47 80 
   15386:	48 8d 05 bb f0 00 00 	lea    0xf0bb(%rip),%rax        # 24448 <g_330>
   1538d:	48 89 85 30 eb ff ff 	mov    %rax,-0x14d0(%rbp)
   15394:	48 8d 85 30 ea ff ff 	lea    -0x15d0(%rbp),%rax
   1539b:	48 89 85 38 eb ff ff 	mov    %rax,-0x14c8(%rbp)
   153a2:	c7 85 f4 e9 ff ff 01 	movl   $0x1,-0x160c(%rbp)
   153a9:	00 00 00 
   153ac:	48 c7 85 40 eb ff ff 	movq   $0x0,-0x14c0(%rbp)
   153b3:	00 00 00 00 
   153b7:	48 8d 05 32 42 01 00 	lea    0x14232(%rip),%rax        # 295f0 <g_1656>
   153be:	48 89 85 48 eb ff ff 	mov    %rax,-0x14b8(%rbp)
   153c5:	48 8d 05 94 5d 01 00 	lea    0x15d94(%rip),%rax        # 2b160 <g_2735>
   153cc:	48 89 85 50 eb ff ff 	mov    %rax,-0x14b0(%rbp)
   153d3:	48 8d 05 3e 5d 01 00 	lea    0x15d3e(%rip),%rax        # 2b118 <g_877>
   153da:	48 89 85 b0 f7 ff ff 	mov    %rax,-0x850(%rbp)
   153e1:	48 8d 05 30 5d 01 00 	lea    0x15d30(%rip),%rax        # 2b118 <g_877>
   153e8:	48 89 85 b8 f7 ff ff 	mov    %rax,-0x848(%rbp)
   153ef:	48 c7 85 c0 f7 ff ff 	movq   $0x0,-0x840(%rbp)
   153f6:	00 00 00 00 
   153fa:	48 8d 05 17 5d 01 00 	lea    0x15d17(%rip),%rax        # 2b118 <g_877>
   15401:	48 89 85 c8 f7 ff ff 	mov    %rax,-0x838(%rbp)
   15408:	48 8d 05 09 5d 01 00 	lea    0x15d09(%rip),%rax        # 2b118 <g_877>
   1540f:	48 89 85 d0 f7 ff ff 	mov    %rax,-0x830(%rbp)
   15416:	48 8d 05 fb 5c 01 00 	lea    0x15cfb(%rip),%rax        # 2b118 <g_877>
   1541d:	48 89 85 d8 f7 ff ff 	mov    %rax,-0x828(%rbp)
   15424:	48 c7 85 e0 f7 ff ff 	movq   $0x0,-0x820(%rbp)
   1542b:	00 00 00 00 
   1542f:	48 8d 05 e2 5c 01 00 	lea    0x15ce2(%rip),%rax        # 2b118 <g_877>
   15436:	48 89 85 e8 f7 ff ff 	mov    %rax,-0x818(%rbp)
   1543d:	48 8d 05 d4 5c 01 00 	lea    0x15cd4(%rip),%rax        # 2b118 <g_877>
   15444:	48 89 85 f0 f7 ff ff 	mov    %rax,-0x810(%rbp)
   1544b:	48 8d 05 c6 5c 01 00 	lea    0x15cc6(%rip),%rax        # 2b118 <g_877>
   15452:	48 89 85 f8 f7 ff ff 	mov    %rax,-0x808(%rbp)
   15459:	48 8d 05 b8 5c 01 00 	lea    0x15cb8(%rip),%rax        # 2b118 <g_877>
   15460:	48 89 85 00 f8 ff ff 	mov    %rax,-0x800(%rbp)
   15467:	48 8d 05 aa 5c 01 00 	lea    0x15caa(%rip),%rax        # 2b118 <g_877>
   1546e:	48 89 85 08 f8 ff ff 	mov    %rax,-0x7f8(%rbp)
   15475:	48 8d 05 9c 5c 01 00 	lea    0x15c9c(%rip),%rax        # 2b118 <g_877>
   1547c:	48 89 85 10 f8 ff ff 	mov    %rax,-0x7f0(%rbp)
   15483:	48 8d 05 8e 5c 01 00 	lea    0x15c8e(%rip),%rax        # 2b118 <g_877>
   1548a:	48 89 85 18 f8 ff ff 	mov    %rax,-0x7e8(%rbp)
   15491:	48 8d 05 80 5c 01 00 	lea    0x15c80(%rip),%rax        # 2b118 <g_877>
   15498:	48 89 85 20 f8 ff ff 	mov    %rax,-0x7e0(%rbp)
   1549f:	48 8d 05 72 5c 01 00 	lea    0x15c72(%rip),%rax        # 2b118 <g_877>
   154a6:	48 89 85 28 f8 ff ff 	mov    %rax,-0x7d8(%rbp)
   154ad:	48 c7 85 30 f8 ff ff 	movq   $0x0,-0x7d0(%rbp)
   154b4:	00 00 00 00 
   154b8:	48 8d 05 59 5c 01 00 	lea    0x15c59(%rip),%rax        # 2b118 <g_877>
   154bf:	48 89 85 38 f8 ff ff 	mov    %rax,-0x7c8(%rbp)
   154c6:	48 8d 05 4b 5c 01 00 	lea    0x15c4b(%rip),%rax        # 2b118 <g_877>
   154cd:	48 89 85 40 f8 ff ff 	mov    %rax,-0x7c0(%rbp)
   154d4:	48 c7 85 48 f8 ff ff 	movq   $0x0,-0x7b8(%rbp)
   154db:	00 00 00 00 
   154df:	48 c7 85 50 f8 ff ff 	movq   $0x0,-0x7b0(%rbp)
   154e6:	00 00 00 00 
   154ea:	48 8d 05 27 5c 01 00 	lea    0x15c27(%rip),%rax        # 2b118 <g_877>
   154f1:	48 89 85 58 f8 ff ff 	mov    %rax,-0x7a8(%rbp)
   154f8:	48 8d 05 19 5c 01 00 	lea    0x15c19(%rip),%rax        # 2b118 <g_877>
   154ff:	48 89 85 60 f8 ff ff 	mov    %rax,-0x7a0(%rbp)
   15506:	48 8d 05 0b 5c 01 00 	lea    0x15c0b(%rip),%rax        # 2b118 <g_877>
   1550d:	48 89 85 68 f8 ff ff 	mov    %rax,-0x798(%rbp)
   15514:	48 8d 05 fd 5b 01 00 	lea    0x15bfd(%rip),%rax        # 2b118 <g_877>
   1551b:	48 89 85 70 f8 ff ff 	mov    %rax,-0x790(%rbp)
   15522:	48 c7 85 78 f8 ff ff 	movq   $0x0,-0x788(%rbp)
   15529:	00 00 00 00 
   1552d:	48 8d 05 e4 5b 01 00 	lea    0x15be4(%rip),%rax        # 2b118 <g_877>
   15534:	48 89 85 80 f8 ff ff 	mov    %rax,-0x780(%rbp)
   1553b:	48 8d 05 d6 5b 01 00 	lea    0x15bd6(%rip),%rax        # 2b118 <g_877>
   15542:	48 89 85 88 f8 ff ff 	mov    %rax,-0x778(%rbp)
   15549:	48 8d 05 c8 5b 01 00 	lea    0x15bc8(%rip),%rax        # 2b118 <g_877>
   15550:	48 89 85 90 f8 ff ff 	mov    %rax,-0x770(%rbp)
   15557:	48 8d 05 ba 5b 01 00 	lea    0x15bba(%rip),%rax        # 2b118 <g_877>
   1555e:	48 89 85 98 f8 ff ff 	mov    %rax,-0x768(%rbp)
   15565:	c7 85 f8 e9 ff ff e3 	movl   $0xd46e29e3,-0x1608(%rbp)
   1556c:	29 6e d4 
   1556f:	48 c7 85 58 eb ff ff 	movq   $0x8,-0x14a8(%rbp)
   15576:	08 00 00 00 
   1557a:	66 c7 85 10 f0 ff ff 	movw   $0x4e21,-0xff0(%rbp)
   15581:	21 4e 
   15583:	66 c7 85 12 f0 ff ff 	movw   $0xb8b4,-0xfee(%rbp)
   1558a:	b4 b8 
   1558c:	66 c7 85 14 f0 ff ff 	movw   $0xb8b4,-0xfec(%rbp)
   15593:	b4 b8 
   15595:	66 c7 85 16 f0 ff ff 	movw   $0x4e21,-0xfea(%rbp)
   1559c:	21 4e 
   1559e:	66 c7 85 18 f0 ff ff 	movw   $0x0,-0xfe8(%rbp)
   155a5:	00 00 
   155a7:	66 c7 85 1a f0 ff ff 	movw   $0x4e21,-0xfe6(%rbp)
   155ae:	21 4e 
   155b0:	66 c7 85 1c f0 ff ff 	movw   $0xb8b4,-0xfe4(%rbp)
   155b7:	b4 b8 
   155b9:	66 c7 85 1e f0 ff ff 	movw   $0xb8b4,-0xfe2(%rbp)
   155c0:	b4 b8 
   155c2:	66 c7 85 20 f0 ff ff 	movw   $0xb8b4,-0xfe0(%rbp)
   155c9:	b4 b8 
   155cb:	66 c7 85 22 f0 ff ff 	movw   $0x0,-0xfde(%rbp)
   155d2:	00 00 
   155d4:	66 c7 85 24 f0 ff ff 	movw   $0xf334,-0xfdc(%rbp)
   155db:	34 f3 
   155dd:	66 c7 85 26 f0 ff ff 	movw   $0xf334,-0xfda(%rbp)
   155e4:	34 f3 
   155e6:	66 c7 85 28 f0 ff ff 	movw   $0x0,-0xfd8(%rbp)
   155ed:	00 00 
   155ef:	66 c7 85 2a f0 ff ff 	movw   $0xb8b4,-0xfd6(%rbp)
   155f6:	b4 b8 
   155f8:	66 c7 85 2c f0 ff ff 	movw   $0x0,-0xfd4(%rbp)
   155ff:	00 00 
   15601:	66 c7 85 2e f0 ff ff 	movw   $0xf334,-0xfd2(%rbp)
   15608:	34 f3 
   1560a:	66 c7 85 30 f0 ff ff 	movw   $0x4e21,-0xfd0(%rbp)
   15611:	21 4e 
   15613:	66 c7 85 32 f0 ff ff 	movw   $0x0,-0xfce(%rbp)
   1561a:	00 00 
   1561c:	66 c7 85 34 f0 ff ff 	movw   $0x4e21,-0xfcc(%rbp)
   15623:	21 4e 
   15625:	66 c7 85 36 f0 ff ff 	movw   $0xb8b4,-0xfca(%rbp)
   1562c:	b4 b8 
   1562e:	66 c7 85 38 f0 ff ff 	movw   $0xb8b4,-0xfc8(%rbp)
   15635:	b4 b8 
   15637:	66 c7 85 3a f0 ff ff 	movw   $0x4e21,-0xfc6(%rbp)
   1563e:	21 4e 
   15640:	66 c7 85 3c f0 ff ff 	movw   $0x0,-0xfc4(%rbp)
   15647:	00 00 
   15649:	66 c7 85 3e f0 ff ff 	movw   $0x4e21,-0xfc2(%rbp)
   15650:	21 4e 
   15652:	66 c7 85 40 f0 ff ff 	movw   $0x0,-0xfc0(%rbp)
   15659:	00 00 
   1565b:	66 c7 85 42 f0 ff ff 	movw   $0xb8b4,-0xfbe(%rbp)
   15662:	b4 b8 
   15664:	66 c7 85 44 f0 ff ff 	movw   $0xf334,-0xfbc(%rbp)
   1566b:	34 f3 
   1566d:	66 c7 85 46 f0 ff ff 	movw   $0xb8b4,-0xfba(%rbp)
   15674:	b4 b8 
   15676:	66 c7 85 48 f0 ff ff 	movw   $0x0,-0xfb8(%rbp)
   1567d:	00 00 
   1567f:	66 c7 85 4a f0 ff ff 	movw   $0x0,-0xfb6(%rbp)
   15686:	00 00 
   15688:	66 c7 85 4c f0 ff ff 	movw   $0xb8b4,-0xfb4(%rbp)
   1568f:	b4 b8 
   15691:	66 c7 85 4e f0 ff ff 	movw   $0xf334,-0xfb2(%rbp)
   15698:	34 f3 
   1569a:	66 c7 85 50 f0 ff ff 	movw   $0x0,-0xfb0(%rbp)
   156a1:	00 00 
   156a3:	66 c7 85 52 f0 ff ff 	movw   $0x0,-0xfae(%rbp)
   156aa:	00 00 
   156ac:	66 c7 85 54 f0 ff ff 	movw   $0xb8b4,-0xfac(%rbp)
   156b3:	b4 b8 
   156b5:	66 c7 85 56 f0 ff ff 	movw   $0xf334,-0xfaa(%rbp)
   156bc:	34 f3 
   156be:	66 c7 85 58 f0 ff ff 	movw   $0xb8b4,-0xfa8(%rbp)
   156c5:	b4 b8 
   156c7:	66 c7 85 5a f0 ff ff 	movw   $0x0,-0xfa6(%rbp)
   156ce:	00 00 
   156d0:	66 c7 85 5c f0 ff ff 	movw   $0x0,-0xfa4(%rbp)
   156d7:	00 00 
   156d9:	66 c7 85 5e f0 ff ff 	movw   $0xb8b4,-0xfa2(%rbp)
   156e0:	b4 b8 
   156e2:	66 c7 85 60 f0 ff ff 	movw   $0x4e21,-0xfa0(%rbp)
   156e9:	21 4e 
   156eb:	66 c7 85 62 f0 ff ff 	movw   $0xb8b4,-0xf9e(%rbp)
   156f2:	b4 b8 
   156f4:	66 c7 85 64 f0 ff ff 	movw   $0xb8b4,-0xf9c(%rbp)
   156fb:	b4 b8 
   156fd:	66 c7 85 66 f0 ff ff 	movw   $0x4e21,-0xf9a(%rbp)
   15704:	21 4e 
   15706:	66 c7 85 68 f0 ff ff 	movw   $0x0,-0xf98(%rbp)
   1570d:	00 00 
   1570f:	66 c7 85 6a f0 ff ff 	movw   $0x4e21,-0xf96(%rbp)
   15716:	21 4e 
   15718:	66 c7 85 6c f0 ff ff 	movw   $0xb8b4,-0xf94(%rbp)
   1571f:	b4 b8 
   15721:	66 c7 85 6e f0 ff ff 	movw   $0xb8b4,-0xf92(%rbp)
   15728:	b4 b8 
   1572a:	66 c7 85 70 f0 ff ff 	movw   $0xb8b4,-0xf90(%rbp)
   15731:	b4 b8 
   15733:	66 c7 85 72 f0 ff ff 	movw   $0x0,-0xf8e(%rbp)
   1573a:	00 00 
   1573c:	66 c7 85 74 f0 ff ff 	movw   $0xf334,-0xf8c(%rbp)
   15743:	34 f3 
   15745:	66 c7 85 76 f0 ff ff 	movw   $0xf334,-0xf8a(%rbp)
   1574c:	34 f3 
   1574e:	66 c7 85 78 f0 ff ff 	movw   $0x0,-0xf88(%rbp)
   15755:	00 00 
   15757:	66 c7 85 7a f0 ff ff 	movw   $0xb8b4,-0xf86(%rbp)
   1575e:	b4 b8 
   15760:	66 c7 85 7c f0 ff ff 	movw   $0x0,-0xf84(%rbp)
   15767:	00 00 
   15769:	66 c7 85 7e f0 ff ff 	movw   $0xf334,-0xf82(%rbp)
   15770:	34 f3 
   15772:	66 c7 85 80 f0 ff ff 	movw   $0x4e21,-0xf80(%rbp)
   15779:	21 4e 
   1577b:	66 c7 85 82 f0 ff ff 	movw   $0x0,-0xf7e(%rbp)
   15782:	00 00 
   15784:	66 c7 85 84 f0 ff ff 	movw   $0xf334,-0xf7c(%rbp)
   1578b:	34 f3 
   1578d:	66 c7 85 86 f0 ff ff 	movw   $0x4e21,-0xf7a(%rbp)
   15794:	21 4e 
   15796:	66 c7 85 88 f0 ff ff 	movw   $0x4e21,-0xf78(%rbp)
   1579d:	21 4e 
   1579f:	66 c7 85 8a f0 ff ff 	movw   $0xf334,-0xf76(%rbp)
   157a6:	34 f3 
   157a8:	66 c7 85 8c f0 ff ff 	movw   $0x0,-0xf74(%rbp)
   157af:	00 00 
   157b1:	66 c7 85 8e f0 ff ff 	movw   $0xf334,-0xf72(%rbp)
   157b8:	34 f3 
   157ba:	66 c7 85 90 f0 ff ff 	movw   $0xb8b4,-0xf70(%rbp)
   157c1:	b4 b8 
   157c3:	66 c7 85 92 f0 ff ff 	movw   $0x4e21,-0xf6e(%rbp)
   157ca:	21 4e 
   157cc:	66 c7 85 94 f0 ff ff 	movw   $0x0,-0xf6c(%rbp)
   157d3:	00 00 
   157d5:	66 c7 85 96 f0 ff ff 	movw   $0x4e21,-0xf6a(%rbp)
   157dc:	21 4e 
   157de:	66 c7 85 98 f0 ff ff 	movw   $0xb8b4,-0xf68(%rbp)
   157e5:	b4 b8 
   157e7:	66 c7 85 9a f0 ff ff 	movw   $0xb8b4,-0xf66(%rbp)
   157ee:	b4 b8 
   157f0:	66 c7 85 9c f0 ff ff 	movw   $0x4e21,-0xf64(%rbp)
   157f7:	21 4e 
   157f9:	66 c7 85 9e f0 ff ff 	movw   $0x0,-0xf62(%rbp)
   15800:	00 00 
   15802:	66 c7 85 a0 f0 ff ff 	movw   $0xb8b4,-0xf60(%rbp)
   15809:	b4 b8 
   1580b:	66 c7 85 a2 f0 ff ff 	movw   $0xb8b4,-0xf5e(%rbp)
   15812:	b4 b8 
   15814:	66 c7 85 a4 f0 ff ff 	movw   $0x4e21,-0xf5c(%rbp)
   1581b:	21 4e 
   1581d:	66 c7 85 a6 f0 ff ff 	movw   $0x0,-0xf5a(%rbp)
   15824:	00 00 
   15826:	66 c7 85 a8 f0 ff ff 	movw   $0x4e21,-0xf58(%rbp)
   1582d:	21 4e 
   1582f:	66 c7 85 aa f0 ff ff 	movw   $0xb8b4,-0xf56(%rbp)
   15836:	b4 b8 
   15838:	66 c7 85 ac f0 ff ff 	movw   $0xb8b4,-0xf54(%rbp)
   1583f:	b4 b8 
   15841:	66 c7 85 ae f0 ff ff 	movw   $0x4e21,-0xf52(%rbp)
   15848:	21 4e 
   1584a:	48 c7 85 60 eb ff ff 	movq   $0x0,-0x14a0(%rbp)
   15851:	00 00 00 00 
   15855:	48 8d 05 84 37 01 00 	lea    0x13784(%rip),%rax        # 28fe0 <g_932>
   1585c:	48 89 85 a8 ea ff ff 	mov    %rax,-0x1558(%rbp)
   15863:	48 8d 85 a8 ea ff ff 	lea    -0x1558(%rbp),%rax
   1586a:	48 89 85 68 eb ff ff 	mov    %rax,-0x1498(%rbp)
   15871:	c6 85 90 e9 ff ff a3 	movb   $0xa3,-0x1670(%rbp)
   15878:	48 b8 05 d2 c4 6f c2 	movabs $0x5c8a6ac26fc4d205,%rax
   1587f:	6a 8a 5c 
   15882:	48 89 85 70 eb ff ff 	mov    %rax,-0x1490(%rbp)
   15889:	48 8b 85 88 e9 ff ff 	mov    -0x1678(%rbp),%rax
   15890:	41 89 c4             	mov    %eax,%r12d
   15893:	be 08 00 00 00       	mov    $0x8,%esi
   15898:	bf 83 36 00 00       	mov    $0x3683,%edi
   1589d:	e8 a6 85 ff ff       	callq  de48 <safe_rshift_func_uint16_t_u_s>
   158a2:	0f b6 d0             	movzbl %al,%edx
   158a5:	48 8b 05 cc 52 01 00 	mov    0x152cc(%rip),%rax        # 2ab78 <g_3175>
   158ac:	48 89 85 f0 ea ff ff 	mov    %rax,-0x1510(%rbp)
   158b3:	48 8b 85 f0 ea ff ff 	mov    -0x1510(%rbp),%rax
   158ba:	48 3b 85 30 eb ff ff 	cmp    -0x14d0(%rbp),%rax
   158c1:	0f 95 c0             	setne  %al
   158c4:	0f b6 c0             	movzbl %al,%eax
   158c7:	89 d6                	mov    %edx,%esi
   158c9:	89 c7                	mov    %eax,%edi
   158cb:	e8 c3 82 ff ff       	callq  db93 <safe_mul_func_uint8_t_u_u>
   158d0:	0f b6 d8             	movzbl %al,%ebx
   158d3:	48 8b 85 20 eb ff ff 	mov    -0x14e0(%rbp),%rax
   158da:	98                   	cwtl   
   158db:	89 c6                	mov    %eax,%esi
   158dd:	bf 00 00 00 00       	mov    $0x0,%edi
   158e2:	e8 2f 7b ff ff       	callq  d416 <safe_mod_func_int16_t_s_s>
   158e7:	48 8b 15 fa 2d 01 00 	mov    0x12dfa(%rip),%rdx        # 286e8 <g_257>
   158ee:	48 8b 12             	mov    (%rdx),%rdx
   158f1:	48 8b 32             	mov    (%rdx),%rsi
   158f4:	48 8b 95 28 ea ff ff 	mov    -0x15d8(%rbp),%rdx
   158fb:	8b 12                	mov    (%rdx),%edx
   158fd:	48 63 ca             	movslq %edx,%rcx
   15900:	48 8b 15 e1 2d 01 00 	mov    0x12de1(%rip),%rdx        # 286e8 <g_257>
   15907:	48 8b 12             	mov    (%rdx),%rdx
   1590a:	48 31 f1             	xor    %rsi,%rcx
   1590d:	48 89 0a             	mov    %rcx,(%rdx)
   15910:	c7 85 f0 e9 ff ff 01 	movl   $0x1,-0x1610(%rbp)
   15917:	00 00 00 
   1591a:	8b 95 f0 e9 ff ff    	mov    -0x1610(%rbp),%edx
   15920:	09 d0                	or     %edx,%eax
   15922:	98                   	cwtl   
   15923:	89 de                	mov    %ebx,%esi
   15925:	89 c7                	mov    %eax,%edi
   15927:	e8 37 7c ff ff       	callq  d563 <safe_rshift_func_int16_t_s_u>
   1592c:	48 0f bf c0          	movswq %ax,%rax
   15930:	48 39 85 88 e9 ff ff 	cmp    %rax,-0x1678(%rbp)
   15937:	0f 95 c0             	setne  %al
   1593a:	0f b6 c0             	movzbl %al,%eax
   1593d:	44 89 e6             	mov    %r12d,%esi
   15940:	89 c7                	mov    %eax,%edi
   15942:	e8 ee 79 ff ff       	callq  d335 <safe_rshift_func_int8_t_s_s>
   15947:	84 c0                	test   %al,%al
   15949:	74 1a                	je     15965 <func_26+0x4548>
   1594b:	48 8b 05 36 36 01 00 	mov    0x13636(%rip),%rax        # 28f88 <g_700>
   15952:	48 8b 00             	mov    (%rax),%rax
   15955:	48 8b 00             	mov    (%rax),%rax
   15958:	8b 00                	mov    (%rax),%eax
   1595a:	85 c0                	test   %eax,%eax
   1595c:	74 07                	je     15965 <func_26+0x4548>
   1595e:	ba 01 00 00 00       	mov    $0x1,%edx
   15963:	eb 05                	jmp    1596a <func_26+0x454d>
   15965:	ba 00 00 00 00       	mov    $0x0,%edx
   1596a:	48 8b 05 7f 3c 01 00 	mov    0x13c7f(%rip),%rax        # 295f0 <g_1656>
   15971:	89 10                	mov    %edx,(%rax)
   15973:	0f b6 05 56 e8 00 00 	movzbl 0xe856(%rip),%eax        # 241d0 <g_82>
   1597a:	83 c0 01             	add    $0x1,%eax
   1597d:	88 05 4d e8 00 00    	mov    %al,0xe84d(%rip)        # 241d0 <g_82>
   15983:	0f b6 05 46 e8 00 00 	movzbl 0xe846(%rip),%eax        # 241d0 <g_82>
   1598a:	3c 03                	cmp    $0x3,%al
   1598c:	0f 86 ce f9 ff ff    	jbe    15360 <func_26+0x3f43>
   15992:	48 8b 85 88 e9 ff ff 	mov    -0x1678(%rbp),%rax
   15999:	48 8b 5d c8          	mov    -0x38(%rbp),%rbx
   1599d:	64 48 33 1c 25 28 00 	xor    %fs:0x28,%rbx
   159a4:	00 00 
   159a6:	74 05                	je     159ad <func_26+0x4590>
   159a8:	e8 c3 76 ff ff       	callq  d070 <__stack_chk_fail@plt>
   159ad:	48 81 c4 58 16 00 00 	add    $0x1658,%rsp
   159b4:	5b                   	pop    %rbx
   159b5:	41 5c                	pop    %r12
   159b7:	41 5d                	pop    %r13
   159b9:	41 5e                	pop    %r14
   159bb:	41 5f                	pop    %r15
   159bd:	5d                   	pop    %rbp
   159be:	c3                   	retq   

00000000000159bf <func_28>:
   159bf:	f3 0f 1e fa          	endbr64 
   159c3:	55                   	push   %rbp
   159c4:	48 89 e5             	mov    %rsp,%rbp
   159c7:	41 56                	push   %r14
   159c9:	41 55                	push   %r13
   159cb:	41 54                	push   %r12
   159cd:	53                   	push   %rbx
   159ce:	48 81 ec 60 0c 00 00 	sub    $0xc60,%rsp
   159d5:	48 89 bd 88 f3 ff ff 	mov    %rdi,-0xc78(%rbp)
   159dc:	89 b5 84 f3 ff ff    	mov    %esi,-0xc7c(%rbp)
   159e2:	89 95 80 f3 ff ff    	mov    %edx,-0xc80(%rbp)
   159e8:	64 48 8b 04 25 28 00 	mov    %fs:0x28,%rax
   159ef:	00 00 
   159f1:	48 89 45 d8          	mov    %rax,-0x28(%rbp)
   159f5:	31 c0                	xor    %eax,%eax
   159f7:	48 c7 85 b0 f3 ff ff 	movq   $0x0,-0xc50(%rbp)
   159fe:	00 00 00 00 
   15a02:	48 8d 85 30 f5 ff ff 	lea    -0xad0(%rbp),%rax
   15a09:	48 8d 15 b0 10 01 00 	lea    0x110b0(%rip),%rdx        # 26ac0 <g_5192+0x1080>
   15a10:	b9 60 00 00 00       	mov    $0x60,%ecx
   15a15:	48 89 c7             	mov    %rax,%rdi
   15a18:	48 89 d6             	mov    %rdx,%rsi
   15a1b:	f3 48 a5             	rep movsq %ds:(%rsi),%es:(%rdi)
   15a1e:	48 c7 85 a8 f3 ff ff 	movq   $0xfffffffffffffff8,-0xc58(%rbp)
   15a25:	f8 ff ff ff 
   15a29:	c7 85 84 f3 ff ff 00 	movl   $0x0,-0xc7c(%rbp)
   15a30:	00 00 00 
   15a33:	e9 51 15 00 00       	jmpq   16f89 <func_28+0x15ca>
   15a38:	48 8d 05 81 e6 00 00 	lea    0xe681(%rip),%rax        # 240c0 <g_34>
   15a3f:	48 89 85 b8 f3 ff ff 	mov    %rax,-0xc48(%rbp)
   15a46:	48 8d 05 8b e6 00 00 	lea    0xe68b(%rip),%rax        # 240d8 <g_67>
   15a4d:	48 89 85 c0 f3 ff ff 	mov    %rax,-0xc40(%rbp)
   15a54:	48 c7 85 c8 f3 ff ff 	movq   $0x0,-0xc38(%rbp)
   15a5b:	00 00 00 00 
   15a5f:	c7 85 f0 f3 ff ff f6 	movl   $0xfffffff6,-0xc10(%rbp)
   15a66:	ff ff ff 
   15a69:	c7 85 f4 f3 ff ff f6 	movl   $0xfffffff6,-0xc0c(%rbp)
   15a70:	ff ff ff 
   15a73:	c7 85 f8 f3 ff ff fe 	movl   $0xee7c38fe,-0xc08(%rbp)
   15a7a:	38 7c ee 
   15a7d:	c7 85 fc f3 ff ff f6 	movl   $0xfffffff6,-0xc04(%rbp)
   15a84:	ff ff ff 
   15a87:	c7 85 00 f4 ff ff f6 	movl   $0xfffffff6,-0xc00(%rbp)
   15a8e:	ff ff ff 
   15a91:	c7 85 04 f4 ff ff fe 	movl   $0xee7c38fe,-0xbfc(%rbp)
   15a98:	38 7c ee 
   15a9b:	c7 85 08 f4 ff ff f6 	movl   $0xfffffff6,-0xbf8(%rbp)
   15aa2:	ff ff ff 
   15aa5:	c7 85 0c f4 ff ff f6 	movl   $0xfffffff6,-0xbf4(%rbp)
   15aac:	ff ff ff 
   15aaf:	c7 85 10 f4 ff ff fe 	movl   $0xee7c38fe,-0xbf0(%rbp)
   15ab6:	38 7c ee 
   15ab9:	0f b7 05 b0 e5 00 00 	movzwl 0xe5b0(%rip),%eax        # 24070 <g_25+0x30>
   15ac0:	0f b7 d0             	movzwl %ax,%edx
   15ac3:	48 8b 85 b8 f3 ff ff 	mov    -0xc48(%rbp),%rax
   15aca:	89 10                	mov    %edx,(%rax)
   15acc:	c7 85 80 f3 ff ff 02 	movl   $0x2,-0xc80(%rbp)
   15ad3:	00 00 00 
   15ad6:	e9 83 14 00 00       	jmpq   16f5e <func_28+0x159f>
   15adb:	c7 85 9c f3 ff ff fc 	movl   $0xfffffffc,-0xc64(%rbp)
   15ae2:	ff ff ff 
   15ae5:	66 c7 85 9a f3 ff ff 	movw   $0x1,-0xc66(%rbp)
   15aec:	01 00 
   15aee:	c6 85 99 f3 ff ff ff 	movb   $0xff,-0xc67(%rbp)
   15af5:	c7 85 a4 f3 ff ff ff 	movl   $0xceabd7ff,-0xc5c(%rbp)
   15afc:	d7 ab ce 
   15aff:	48 8d 05 42 ef 00 00 	lea    0xef42(%rip),%rax        # 24a48 <g_2197>
   15b06:	48 89 85 d0 f3 ff ff 	mov    %rax,-0xc30(%rbp)
   15b0d:	48 c7 85 d8 f3 ff ff 	movq   $0x0,-0xc28(%rbp)
   15b14:	00 00 00 00 
   15b18:	48 c7 85 30 f8 ff ff 	movq   $0x0,-0x7d0(%rbp)
   15b1f:	00 00 00 00 
   15b23:	48 c7 85 38 f8 ff ff 	movq   $0x0,-0x7c8(%rbp)
   15b2a:	00 00 00 00 
   15b2e:	48 8d 85 9c f3 ff ff 	lea    -0xc64(%rbp),%rax
   15b35:	48 89 85 40 f8 ff ff 	mov    %rax,-0x7c0(%rbp)
   15b3c:	48 8d 85 9c f3 ff ff 	lea    -0xc64(%rbp),%rax
   15b43:	48 89 85 48 f8 ff ff 	mov    %rax,-0x7b8(%rbp)
   15b4a:	48 8d 05 83 e6 00 00 	lea    0xe683(%rip),%rax        # 241d4 <g_102>
   15b51:	48 89 85 50 f8 ff ff 	mov    %rax,-0x7b0(%rbp)
   15b58:	48 8d 05 75 e6 00 00 	lea    0xe675(%rip),%rax        # 241d4 <g_102>
   15b5f:	48 89 85 58 f8 ff ff 	mov    %rax,-0x7a8(%rbp)
   15b66:	48 8d 05 67 e6 00 00 	lea    0xe667(%rip),%rax        # 241d4 <g_102>
   15b6d:	48 89 85 60 f8 ff ff 	mov    %rax,-0x7a0(%rbp)
   15b74:	48 8d 85 9c f3 ff ff 	lea    -0xc64(%rbp),%rax
   15b7b:	48 89 85 68 f8 ff ff 	mov    %rax,-0x798(%rbp)
   15b82:	48 8d 85 9c f3 ff ff 	lea    -0xc64(%rbp),%rax
   15b89:	48 89 85 70 f8 ff ff 	mov    %rax,-0x790(%rbp)
   15b90:	48 8d 85 9c f3 ff ff 	lea    -0xc64(%rbp),%rax
   15b97:	48 89 85 78 f8 ff ff 	mov    %rax,-0x788(%rbp)
   15b9e:	48 c7 85 80 f8 ff ff 	movq   $0x0,-0x780(%rbp)
   15ba5:	00 00 00 00 
   15ba9:	48 8d 85 9c f3 ff ff 	lea    -0xc64(%rbp),%rax
   15bb0:	48 89 85 88 f8 ff ff 	mov    %rax,-0x778(%rbp)
   15bb7:	48 8d 85 9c f3 ff ff 	lea    -0xc64(%rbp),%rax
   15bbe:	48 89 85 90 f8 ff ff 	mov    %rax,-0x770(%rbp)
   15bc5:	48 8d 85 9c f3 ff ff 	lea    -0xc64(%rbp),%rax
   15bcc:	48 89 85 98 f8 ff ff 	mov    %rax,-0x768(%rbp)
   15bd3:	48 8d 05 fa e5 00 00 	lea    0xe5fa(%rip),%rax        # 241d4 <g_102>
   15bda:	48 89 85 a0 f8 ff ff 	mov    %rax,-0x760(%rbp)
   15be1:	48 c7 85 a8 f8 ff ff 	movq   $0x0,-0x758(%rbp)
   15be8:	00 00 00 00 
   15bec:	48 8d 85 9c f3 ff ff 	lea    -0xc64(%rbp),%rax
   15bf3:	48 89 85 b0 f8 ff ff 	mov    %rax,-0x750(%rbp)
   15bfa:	48 c7 85 b8 f8 ff ff 	movq   $0x0,-0x748(%rbp)
   15c01:	00 00 00 00 
   15c05:	48 c7 85 c0 f8 ff ff 	movq   $0x0,-0x740(%rbp)
   15c0c:	00 00 00 00 
   15c10:	48 c7 85 c8 f8 ff ff 	movq   $0x0,-0x738(%rbp)
   15c17:	00 00 00 00 
   15c1b:	48 8d 85 9c f3 ff ff 	lea    -0xc64(%rbp),%rax
   15c22:	48 89 85 d0 f8 ff ff 	mov    %rax,-0x730(%rbp)
   15c29:	48 8d 85 9c f3 ff ff 	lea    -0xc64(%rbp),%rax
   15c30:	48 89 85 d8 f8 ff ff 	mov    %rax,-0x728(%rbp)
   15c37:	48 8d 85 9c f3 ff ff 	lea    -0xc64(%rbp),%rax
   15c3e:	48 89 85 e0 f8 ff ff 	mov    %rax,-0x720(%rbp)
   15c45:	48 8d 05 88 e5 00 00 	lea    0xe588(%rip),%rax        # 241d4 <g_102>
   15c4c:	48 89 85 e8 f8 ff ff 	mov    %rax,-0x718(%rbp)
   15c53:	48 8d 05 7a e5 00 00 	lea    0xe57a(%rip),%rax        # 241d4 <g_102>
   15c5a:	48 89 85 f0 f8 ff ff 	mov    %rax,-0x710(%rbp)
   15c61:	48 c7 85 f8 f8 ff ff 	movq   $0x0,-0x708(%rbp)
   15c68:	00 00 00 00 
   15c6c:	48 8d 85 9c f3 ff ff 	lea    -0xc64(%rbp),%rax
   15c73:	48 89 85 00 f9 ff ff 	mov    %rax,-0x700(%rbp)
   15c7a:	48 8d 05 53 e5 00 00 	lea    0xe553(%rip),%rax        # 241d4 <g_102>
   15c81:	48 89 85 08 f9 ff ff 	mov    %rax,-0x6f8(%rbp)
   15c88:	48 8d 85 9c f3 ff ff 	lea    -0xc64(%rbp),%rax
   15c8f:	48 89 85 10 f9 ff ff 	mov    %rax,-0x6f0(%rbp)
   15c96:	48 8d 85 9c f3 ff ff 	lea    -0xc64(%rbp),%rax
   15c9d:	48 89 85 18 f9 ff ff 	mov    %rax,-0x6e8(%rbp)
   15ca4:	48 8d 85 9c f3 ff ff 	lea    -0xc64(%rbp),%rax
   15cab:	48 89 85 20 f9 ff ff 	mov    %rax,-0x6e0(%rbp)
   15cb2:	48 8d 05 1b e5 00 00 	lea    0xe51b(%rip),%rax        # 241d4 <g_102>
   15cb9:	48 89 85 28 f9 ff ff 	mov    %rax,-0x6d8(%rbp)
   15cc0:	48 8d 85 9c f3 ff ff 	lea    -0xc64(%rbp),%rax
   15cc7:	48 89 85 30 f9 ff ff 	mov    %rax,-0x6d0(%rbp)
   15cce:	48 8d 85 9c f3 ff ff 	lea    -0xc64(%rbp),%rax
   15cd5:	48 89 85 38 f9 ff ff 	mov    %rax,-0x6c8(%rbp)
   15cdc:	48 8d 85 9c f3 ff ff 	lea    -0xc64(%rbp),%rax
   15ce3:	48 89 85 40 f9 ff ff 	mov    %rax,-0x6c0(%rbp)
   15cea:	48 8d 05 e3 e4 00 00 	lea    0xe4e3(%rip),%rax        # 241d4 <g_102>
   15cf1:	48 89 85 48 f9 ff ff 	mov    %rax,-0x6b8(%rbp)
   15cf8:	48 8d 85 9c f3 ff ff 	lea    -0xc64(%rbp),%rax
   15cff:	48 89 85 50 f9 ff ff 	mov    %rax,-0x6b0(%rbp)
   15d06:	48 8d 05 c7 e4 00 00 	lea    0xe4c7(%rip),%rax        # 241d4 <g_102>
   15d0d:	48 89 85 58 f9 ff ff 	mov    %rax,-0x6a8(%rbp)
   15d14:	48 8d 85 9c f3 ff ff 	lea    -0xc64(%rbp),%rax
   15d1b:	48 89 85 60 f9 ff ff 	mov    %rax,-0x6a0(%rbp)
   15d22:	48 8d 05 ab e4 00 00 	lea    0xe4ab(%rip),%rax        # 241d4 <g_102>
   15d29:	48 89 85 68 f9 ff ff 	mov    %rax,-0x698(%rbp)
   15d30:	48 8d 05 9d e4 00 00 	lea    0xe49d(%rip),%rax        # 241d4 <g_102>
   15d37:	48 89 85 70 f9 ff ff 	mov    %rax,-0x690(%rbp)
   15d3e:	48 8d 85 9c f3 ff ff 	lea    -0xc64(%rbp),%rax
   15d45:	48 89 85 78 f9 ff ff 	mov    %rax,-0x688(%rbp)
   15d4c:	48 8d 85 9c f3 ff ff 	lea    -0xc64(%rbp),%rax
   15d53:	48 89 85 80 f9 ff ff 	mov    %rax,-0x680(%rbp)
   15d5a:	48 8d 05 73 e4 00 00 	lea    0xe473(%rip),%rax        # 241d4 <g_102>
   15d61:	48 89 85 88 f9 ff ff 	mov    %rax,-0x678(%rbp)
   15d68:	48 8d 85 9c f3 ff ff 	lea    -0xc64(%rbp),%rax
   15d6f:	48 89 85 90 f9 ff ff 	mov    %rax,-0x670(%rbp)
   15d76:	48 8d 85 9c f3 ff ff 	lea    -0xc64(%rbp),%rax
   15d7d:	48 89 85 98 f9 ff ff 	mov    %rax,-0x668(%rbp)
   15d84:	48 8d 05 49 e4 00 00 	lea    0xe449(%rip),%rax        # 241d4 <g_102>
   15d8b:	48 89 85 a0 f9 ff ff 	mov    %rax,-0x660(%rbp)
   15d92:	48 8d 85 9c f3 ff ff 	lea    -0xc64(%rbp),%rax
   15d99:	48 89 85 a8 f9 ff ff 	mov    %rax,-0x658(%rbp)
   15da0:	48 8d 05 2d e4 00 00 	lea    0xe42d(%rip),%rax        # 241d4 <g_102>
   15da7:	48 89 85 b0 f9 ff ff 	mov    %rax,-0x650(%rbp)
   15dae:	48 8d 05 1f e4 00 00 	lea    0xe41f(%rip),%rax        # 241d4 <g_102>
   15db5:	48 89 85 b8 f9 ff ff 	mov    %rax,-0x648(%rbp)
   15dbc:	48 c7 85 c0 f9 ff ff 	movq   $0x0,-0x640(%rbp)
   15dc3:	00 00 00 00 
   15dc7:	48 8d 05 06 e4 00 00 	lea    0xe406(%rip),%rax        # 241d4 <g_102>
   15dce:	48 89 85 c8 f9 ff ff 	mov    %rax,-0x638(%rbp)
   15dd5:	48 8d 05 f8 e3 00 00 	lea    0xe3f8(%rip),%rax        # 241d4 <g_102>
   15ddc:	48 89 85 d0 f9 ff ff 	mov    %rax,-0x630(%rbp)
   15de3:	48 c7 85 d8 f9 ff ff 	movq   $0x0,-0x628(%rbp)
   15dea:	00 00 00 00 
   15dee:	48 8d 05 df e3 00 00 	lea    0xe3df(%rip),%rax        # 241d4 <g_102>
   15df5:	48 89 85 e0 f9 ff ff 	mov    %rax,-0x620(%rbp)
   15dfc:	48 c7 85 e8 f9 ff ff 	movq   $0x0,-0x618(%rbp)
   15e03:	00 00 00 00 
   15e07:	48 8d 05 c6 e3 00 00 	lea    0xe3c6(%rip),%rax        # 241d4 <g_102>
   15e0e:	48 89 85 f0 f9 ff ff 	mov    %rax,-0x610(%rbp)
   15e15:	48 c7 85 f8 f9 ff ff 	movq   $0x0,-0x608(%rbp)
   15e1c:	00 00 00 00 
   15e20:	48 8d 05 ad e3 00 00 	lea    0xe3ad(%rip),%rax        # 241d4 <g_102>
   15e27:	48 89 85 00 fa ff ff 	mov    %rax,-0x600(%rbp)
   15e2e:	48 8d 85 9c f3 ff ff 	lea    -0xc64(%rbp),%rax
   15e35:	48 89 85 08 fa ff ff 	mov    %rax,-0x5f8(%rbp)
   15e3c:	48 8d 85 9c f3 ff ff 	lea    -0xc64(%rbp),%rax
   15e43:	48 89 85 10 fa ff ff 	mov    %rax,-0x5f0(%rbp)
   15e4a:	48 8d 05 83 e3 00 00 	lea    0xe383(%rip),%rax        # 241d4 <g_102>
   15e51:	48 89 85 18 fa ff ff 	mov    %rax,-0x5e8(%rbp)
   15e58:	48 8d 85 9c f3 ff ff 	lea    -0xc64(%rbp),%rax
   15e5f:	48 89 85 20 fa ff ff 	mov    %rax,-0x5e0(%rbp)
   15e66:	48 8d 05 67 e3 00 00 	lea    0xe367(%rip),%rax        # 241d4 <g_102>
   15e6d:	48 89 85 28 fa ff ff 	mov    %rax,-0x5d8(%rbp)
   15e74:	48 8d 05 59 e3 00 00 	lea    0xe359(%rip),%rax        # 241d4 <g_102>
   15e7b:	48 89 85 30 fa ff ff 	mov    %rax,-0x5d0(%rbp)
   15e82:	48 8d 05 4b e3 00 00 	lea    0xe34b(%rip),%rax        # 241d4 <g_102>
   15e89:	48 89 85 38 fa ff ff 	mov    %rax,-0x5c8(%rbp)
   15e90:	48 8d 05 3d e3 00 00 	lea    0xe33d(%rip),%rax        # 241d4 <g_102>
   15e97:	48 89 85 40 fa ff ff 	mov    %rax,-0x5c0(%rbp)
   15e9e:	48 c7 85 48 fa ff ff 	movq   $0x0,-0x5b8(%rbp)
   15ea5:	00 00 00 00 
   15ea9:	48 8d 85 9c f3 ff ff 	lea    -0xc64(%rbp),%rax
   15eb0:	48 89 85 50 fa ff ff 	mov    %rax,-0x5b0(%rbp)
   15eb7:	48 8d 85 9c f3 ff ff 	lea    -0xc64(%rbp),%rax
   15ebe:	48 89 85 58 fa ff ff 	mov    %rax,-0x5a8(%rbp)
   15ec5:	48 c7 85 60 fa ff ff 	movq   $0x0,-0x5a0(%rbp)
   15ecc:	00 00 00 00 
   15ed0:	48 8d 05 fd e2 00 00 	lea    0xe2fd(%rip),%rax        # 241d4 <g_102>
   15ed7:	48 89 85 68 fa ff ff 	mov    %rax,-0x598(%rbp)
   15ede:	48 8d 05 ef e2 00 00 	lea    0xe2ef(%rip),%rax        # 241d4 <g_102>
   15ee5:	48 89 85 70 fa ff ff 	mov    %rax,-0x590(%rbp)
   15eec:	48 8d 05 e1 e2 00 00 	lea    0xe2e1(%rip),%rax        # 241d4 <g_102>
   15ef3:	48 89 85 78 fa ff ff 	mov    %rax,-0x588(%rbp)
   15efa:	48 8d 85 9c f3 ff ff 	lea    -0xc64(%rbp),%rax
   15f01:	48 89 85 80 fa ff ff 	mov    %rax,-0x580(%rbp)
   15f08:	48 8d 05 c5 e2 00 00 	lea    0xe2c5(%rip),%rax        # 241d4 <g_102>
   15f0f:	48 89 85 88 fa ff ff 	mov    %rax,-0x578(%rbp)
   15f16:	48 8d 85 9c f3 ff ff 	lea    -0xc64(%rbp),%rax
   15f1d:	48 89 85 90 fa ff ff 	mov    %rax,-0x570(%rbp)
   15f24:	48 8d 85 9c f3 ff ff 	lea    -0xc64(%rbp),%rax
   15f2b:	48 89 85 98 fa ff ff 	mov    %rax,-0x568(%rbp)
   15f32:	48 8d 05 9b e2 00 00 	lea    0xe29b(%rip),%rax        # 241d4 <g_102>
   15f39:	48 89 85 a0 fa ff ff 	mov    %rax,-0x560(%rbp)
   15f40:	48 8d 05 8d e2 00 00 	lea    0xe28d(%rip),%rax        # 241d4 <g_102>
   15f47:	48 89 85 a8 fa ff ff 	mov    %rax,-0x558(%rbp)
   15f4e:	48 8d 85 9c f3 ff ff 	lea    -0xc64(%rbp),%rax
   15f55:	48 89 85 b0 fa ff ff 	mov    %rax,-0x550(%rbp)
   15f5c:	48 8d 05 71 e2 00 00 	lea    0xe271(%rip),%rax        # 241d4 <g_102>
   15f63:	48 89 85 b8 fa ff ff 	mov    %rax,-0x548(%rbp)
   15f6a:	48 c7 85 c0 fa ff ff 	movq   $0x0,-0x540(%rbp)
   15f71:	00 00 00 00 
   15f75:	48 8d 85 9c f3 ff ff 	lea    -0xc64(%rbp),%rax
   15f7c:	48 89 85 c8 fa ff ff 	mov    %rax,-0x538(%rbp)
   15f83:	48 8d 05 4a e2 00 00 	lea    0xe24a(%rip),%rax        # 241d4 <g_102>
   15f8a:	48 89 85 d0 fa ff ff 	mov    %rax,-0x530(%rbp)
   15f91:	48 8d 85 9c f3 ff ff 	lea    -0xc64(%rbp),%rax
   15f98:	48 89 85 d8 fa ff ff 	mov    %rax,-0x528(%rbp)
   15f9f:	48 8d 05 2e e2 00 00 	lea    0xe22e(%rip),%rax        # 241d4 <g_102>
   15fa6:	48 89 85 e0 fa ff ff 	mov    %rax,-0x520(%rbp)
   15fad:	48 8d 85 9c f3 ff ff 	lea    -0xc64(%rbp),%rax
   15fb4:	48 89 85 e8 fa ff ff 	mov    %rax,-0x518(%rbp)
   15fbb:	48 c7 85 f0 fa ff ff 	movq   $0x0,-0x510(%rbp)
   15fc2:	00 00 00 00 
   15fc6:	48 c7 85 f8 fa ff ff 	movq   $0x0,-0x508(%rbp)
   15fcd:	00 00 00 00 
   15fd1:	48 8d 85 9c f3 ff ff 	lea    -0xc64(%rbp),%rax
   15fd8:	48 89 85 00 fb ff ff 	mov    %rax,-0x500(%rbp)
   15fdf:	48 8d 05 ee e1 00 00 	lea    0xe1ee(%rip),%rax        # 241d4 <g_102>
   15fe6:	48 89 85 08 fb ff ff 	mov    %rax,-0x4f8(%rbp)
   15fed:	48 8d 85 9c f3 ff ff 	lea    -0xc64(%rbp),%rax
   15ff4:	48 89 85 10 fb ff ff 	mov    %rax,-0x4f0(%rbp)
   15ffb:	48 8d 85 9c f3 ff ff 	lea    -0xc64(%rbp),%rax
   16002:	48 89 85 18 fb ff ff 	mov    %rax,-0x4e8(%rbp)
   16009:	48 8d 85 9c f3 ff ff 	lea    -0xc64(%rbp),%rax
   16010:	48 89 85 20 fb ff ff 	mov    %rax,-0x4e0(%rbp)
   16017:	48 8d 85 9c f3 ff ff 	lea    -0xc64(%rbp),%rax
   1601e:	48 89 85 28 fb ff ff 	mov    %rax,-0x4d8(%rbp)
   16025:	48 c7 85 30 fb ff ff 	movq   $0x0,-0x4d0(%rbp)
   1602c:	00 00 00 00 
   16030:	48 8d 85 9c f3 ff ff 	lea    -0xc64(%rbp),%rax
   16037:	48 89 85 38 fb ff ff 	mov    %rax,-0x4c8(%rbp)
   1603e:	48 8d 85 9c f3 ff ff 	lea    -0xc64(%rbp),%rax
   16045:	48 89 85 40 fb ff ff 	mov    %rax,-0x4c0(%rbp)
   1604c:	48 8d 85 9c f3 ff ff 	lea    -0xc64(%rbp),%rax
   16053:	48 89 85 48 fb ff ff 	mov    %rax,-0x4b8(%rbp)
   1605a:	48 8d 05 73 e1 00 00 	lea    0xe173(%rip),%rax        # 241d4 <g_102>
   16061:	48 89 85 50 fb ff ff 	mov    %rax,-0x4b0(%rbp)
   16068:	48 8d 85 9c f3 ff ff 	lea    -0xc64(%rbp),%rax
   1606f:	48 89 85 58 fb ff ff 	mov    %rax,-0x4a8(%rbp)
   16076:	48 8d 05 57 e1 00 00 	lea    0xe157(%rip),%rax        # 241d4 <g_102>
   1607d:	48 89 85 60 fb ff ff 	mov    %rax,-0x4a0(%rbp)
   16084:	48 8d 85 9c f3 ff ff 	lea    -0xc64(%rbp),%rax
   1608b:	48 89 85 68 fb ff ff 	mov    %rax,-0x498(%rbp)
   16092:	48 c7 85 70 fb ff ff 	movq   $0x0,-0x490(%rbp)
   16099:	00 00 00 00 
   1609d:	48 8d 85 9c f3 ff ff 	lea    -0xc64(%rbp),%rax
   160a4:	48 89 85 78 fb ff ff 	mov    %rax,-0x488(%rbp)
   160ab:	48 8d 05 22 e1 00 00 	lea    0xe122(%rip),%rax        # 241d4 <g_102>
   160b2:	48 89 85 80 fb ff ff 	mov    %rax,-0x480(%rbp)
   160b9:	48 c7 85 88 fb ff ff 	movq   $0x0,-0x478(%rbp)
   160c0:	00 00 00 00 
   160c4:	48 c7 85 90 fb ff ff 	movq   $0x0,-0x470(%rbp)
   160cb:	00 00 00 00 
   160cf:	48 8d 85 9c f3 ff ff 	lea    -0xc64(%rbp),%rax
   160d6:	48 89 85 98 fb ff ff 	mov    %rax,-0x468(%rbp)
   160dd:	48 8d 85 9c f3 ff ff 	lea    -0xc64(%rbp),%rax
   160e4:	48 89 85 a0 fb ff ff 	mov    %rax,-0x460(%rbp)
   160eb:	48 8d 05 e2 e0 00 00 	lea    0xe0e2(%rip),%rax        # 241d4 <g_102>
   160f2:	48 89 85 a8 fb ff ff 	mov    %rax,-0x458(%rbp)
   160f9:	48 8d 85 9c f3 ff ff 	lea    -0xc64(%rbp),%rax
   16100:	48 89 85 b0 fb ff ff 	mov    %rax,-0x450(%rbp)
   16107:	48 c7 85 b8 fb ff ff 	movq   $0x0,-0x448(%rbp)
   1610e:	00 00 00 00 
   16112:	48 8d 05 bb e0 00 00 	lea    0xe0bb(%rip),%rax        # 241d4 <g_102>
   16119:	48 89 85 c0 fb ff ff 	mov    %rax,-0x440(%rbp)
   16120:	48 8d 85 9c f3 ff ff 	lea    -0xc64(%rbp),%rax
   16127:	48 89 85 c8 fb ff ff 	mov    %rax,-0x438(%rbp)
   1612e:	48 8d 85 9c f3 ff ff 	lea    -0xc64(%rbp),%rax
   16135:	48 89 85 d0 fb ff ff 	mov    %rax,-0x430(%rbp)
   1613c:	48 8d 05 91 e0 00 00 	lea    0xe091(%rip),%rax        # 241d4 <g_102>
   16143:	48 89 85 d8 fb ff ff 	mov    %rax,-0x428(%rbp)
   1614a:	48 c7 85 e0 fb ff ff 	movq   $0x0,-0x420(%rbp)
   16151:	00 00 00 00 
   16155:	48 8d 05 78 e0 00 00 	lea    0xe078(%rip),%rax        # 241d4 <g_102>
   1615c:	48 89 85 e8 fb ff ff 	mov    %rax,-0x418(%rbp)
   16163:	48 8d 05 6a e0 00 00 	lea    0xe06a(%rip),%rax        # 241d4 <g_102>
   1616a:	48 89 85 f0 fb ff ff 	mov    %rax,-0x410(%rbp)
   16171:	48 8d 85 9c f3 ff ff 	lea    -0xc64(%rbp),%rax
   16178:	48 89 85 f8 fb ff ff 	mov    %rax,-0x408(%rbp)
   1617f:	48 8d 85 9c f3 ff ff 	lea    -0xc64(%rbp),%rax
   16186:	48 89 85 00 fc ff ff 	mov    %rax,-0x400(%rbp)
   1618d:	48 c7 85 08 fc ff ff 	movq   $0x0,-0x3f8(%rbp)
   16194:	00 00 00 00 
   16198:	48 8d 85 9c f3 ff ff 	lea    -0xc64(%rbp),%rax
   1619f:	48 89 85 10 fc ff ff 	mov    %rax,-0x3f0(%rbp)
   161a6:	48 c7 85 18 fc ff ff 	movq   $0x0,-0x3e8(%rbp)
   161ad:	00 00 00 00 
   161b1:	48 8d 85 9c f3 ff ff 	lea    -0xc64(%rbp),%rax
   161b8:	48 89 85 20 fc ff ff 	mov    %rax,-0x3e0(%rbp)
   161bf:	48 8d 85 9c f3 ff ff 	lea    -0xc64(%rbp),%rax
   161c6:	48 89 85 28 fc ff ff 	mov    %rax,-0x3d8(%rbp)
   161cd:	48 8d 85 9c f3 ff ff 	lea    -0xc64(%rbp),%rax
   161d4:	48 89 85 30 fc ff ff 	mov    %rax,-0x3d0(%rbp)
   161db:	48 c7 85 38 fc ff ff 	movq   $0x0,-0x3c8(%rbp)
   161e2:	00 00 00 00 
   161e6:	48 8d 05 e7 df 00 00 	lea    0xdfe7(%rip),%rax        # 241d4 <g_102>
   161ed:	48 89 85 40 fc ff ff 	mov    %rax,-0x3c0(%rbp)
   161f4:	48 8d 85 9c f3 ff ff 	lea    -0xc64(%rbp),%rax
   161fb:	48 89 85 48 fc ff ff 	mov    %rax,-0x3b8(%rbp)
   16202:	48 8d 85 9c f3 ff ff 	lea    -0xc64(%rbp),%rax
   16209:	48 89 85 50 fc ff ff 	mov    %rax,-0x3b0(%rbp)
   16210:	48 8d 05 bd df 00 00 	lea    0xdfbd(%rip),%rax        # 241d4 <g_102>
   16217:	48 89 85 58 fc ff ff 	mov    %rax,-0x3a8(%rbp)
   1621e:	48 c7 85 60 fc ff ff 	movq   $0x0,-0x3a0(%rbp)
   16225:	00 00 00 00 
   16229:	48 8d 85 9c f3 ff ff 	lea    -0xc64(%rbp),%rax
   16230:	48 89 85 68 fc ff ff 	mov    %rax,-0x398(%rbp)
   16237:	48 8d 85 9c f3 ff ff 	lea    -0xc64(%rbp),%rax
   1623e:	48 89 85 70 fc ff ff 	mov    %rax,-0x390(%rbp)
   16245:	48 8d 85 9c f3 ff ff 	lea    -0xc64(%rbp),%rax
   1624c:	48 89 85 78 fc ff ff 	mov    %rax,-0x388(%rbp)
   16253:	48 8d 05 7a df 00 00 	lea    0xdf7a(%rip),%rax        # 241d4 <g_102>
   1625a:	48 89 85 80 fc ff ff 	mov    %rax,-0x380(%rbp)
   16261:	48 c7 85 88 fc ff ff 	movq   $0x0,-0x378(%rbp)
   16268:	00 00 00 00 
   1626c:	48 8d 85 9c f3 ff ff 	lea    -0xc64(%rbp),%rax
   16273:	48 89 85 90 fc ff ff 	mov    %rax,-0x370(%rbp)
   1627a:	48 8d 05 53 df 00 00 	lea    0xdf53(%rip),%rax        # 241d4 <g_102>
   16281:	48 89 85 98 fc ff ff 	mov    %rax,-0x368(%rbp)
   16288:	48 8d 85 9c f3 ff ff 	lea    -0xc64(%rbp),%rax
   1628f:	48 89 85 a0 fc ff ff 	mov    %rax,-0x360(%rbp)
   16296:	48 c7 85 a8 fc ff ff 	movq   $0x0,-0x358(%rbp)
   1629d:	00 00 00 00 
   162a1:	48 8d 05 2c df 00 00 	lea    0xdf2c(%rip),%rax        # 241d4 <g_102>
   162a8:	48 89 85 b0 fc ff ff 	mov    %rax,-0x350(%rbp)
   162af:	48 8d 05 1e df 00 00 	lea    0xdf1e(%rip),%rax        # 241d4 <g_102>
   162b6:	48 89 85 b8 fc ff ff 	mov    %rax,-0x348(%rbp)
   162bd:	48 8d 85 9c f3 ff ff 	lea    -0xc64(%rbp),%rax
   162c4:	48 89 85 c0 fc ff ff 	mov    %rax,-0x340(%rbp)
   162cb:	48 8d 05 02 df 00 00 	lea    0xdf02(%rip),%rax        # 241d4 <g_102>
   162d2:	48 89 85 c8 fc ff ff 	mov    %rax,-0x338(%rbp)
   162d9:	48 8d 85 9c f3 ff ff 	lea    -0xc64(%rbp),%rax
   162e0:	48 89 85 d0 fc ff ff 	mov    %rax,-0x330(%rbp)
   162e7:	48 8d 85 9c f3 ff ff 	lea    -0xc64(%rbp),%rax
   162ee:	48 89 85 d8 fc ff ff 	mov    %rax,-0x328(%rbp)
   162f5:	48 c7 85 e0 fc ff ff 	movq   $0x0,-0x320(%rbp)
   162fc:	00 00 00 00 
   16300:	48 c7 85 e8 fc ff ff 	movq   $0x0,-0x318(%rbp)
   16307:	00 00 00 00 
   1630b:	48 8d 05 c2 de 00 00 	lea    0xdec2(%rip),%rax        # 241d4 <g_102>
   16312:	48 89 85 f0 fc ff ff 	mov    %rax,-0x310(%rbp)
   16319:	48 8d 05 b4 de 00 00 	lea    0xdeb4(%rip),%rax        # 241d4 <g_102>
   16320:	48 89 85 f8 fc ff ff 	mov    %rax,-0x308(%rbp)
   16327:	48 8d 05 a6 de 00 00 	lea    0xdea6(%rip),%rax        # 241d4 <g_102>
   1632e:	48 89 85 00 fd ff ff 	mov    %rax,-0x300(%rbp)
   16335:	48 8d 85 9c f3 ff ff 	lea    -0xc64(%rbp),%rax
   1633c:	48 89 85 08 fd ff ff 	mov    %rax,-0x2f8(%rbp)
   16343:	48 8d 05 8a de 00 00 	lea    0xde8a(%rip),%rax        # 241d4 <g_102>
   1634a:	48 89 85 10 fd ff ff 	mov    %rax,-0x2f0(%rbp)
   16351:	48 8d 05 7c de 00 00 	lea    0xde7c(%rip),%rax        # 241d4 <g_102>
   16358:	48 89 85 18 fd ff ff 	mov    %rax,-0x2e8(%rbp)
   1635f:	48 8d 05 6e de 00 00 	lea    0xde6e(%rip),%rax        # 241d4 <g_102>
   16366:	48 89 85 20 fd ff ff 	mov    %rax,-0x2e0(%rbp)
   1636d:	48 8d 85 9c f3 ff ff 	lea    -0xc64(%rbp),%rax
   16374:	48 89 85 28 fd ff ff 	mov    %rax,-0x2d8(%rbp)
   1637b:	48 8d 05 52 de 00 00 	lea    0xde52(%rip),%rax        # 241d4 <g_102>
   16382:	48 89 85 30 fd ff ff 	mov    %rax,-0x2d0(%rbp)
   16389:	48 8d 05 44 de 00 00 	lea    0xde44(%rip),%rax        # 241d4 <g_102>
   16390:	48 89 85 38 fd ff ff 	mov    %rax,-0x2c8(%rbp)
   16397:	48 c7 85 40 fd ff ff 	movq   $0x0,-0x2c0(%rbp)
   1639e:	00 00 00 00 
   163a2:	48 8d 85 9c f3 ff ff 	lea    -0xc64(%rbp),%rax
   163a9:	48 89 85 48 fd ff ff 	mov    %rax,-0x2b8(%rbp)
   163b0:	48 8d 85 9c f3 ff ff 	lea    -0xc64(%rbp),%rax
   163b7:	48 89 85 50 fd ff ff 	mov    %rax,-0x2b0(%rbp)
   163be:	48 8d 85 9c f3 ff ff 	lea    -0xc64(%rbp),%rax
   163c5:	48 89 85 58 fd ff ff 	mov    %rax,-0x2a8(%rbp)
   163cc:	48 8d 05 01 de 00 00 	lea    0xde01(%rip),%rax        # 241d4 <g_102>
   163d3:	48 89 85 60 fd ff ff 	mov    %rax,-0x2a0(%rbp)
   163da:	48 c7 85 68 fd ff ff 	movq   $0x0,-0x298(%rbp)
   163e1:	00 00 00 00 
   163e5:	48 8d 05 e8 dd 00 00 	lea    0xdde8(%rip),%rax        # 241d4 <g_102>
   163ec:	48 89 85 70 fd ff ff 	mov    %rax,-0x290(%rbp)
   163f3:	48 c7 85 78 fd ff ff 	movq   $0x0,-0x288(%rbp)
   163fa:	00 00 00 00 
   163fe:	48 8d 85 9c f3 ff ff 	lea    -0xc64(%rbp),%rax
   16405:	48 89 85 80 fd ff ff 	mov    %rax,-0x280(%rbp)
   1640c:	48 8d 85 9c f3 ff ff 	lea    -0xc64(%rbp),%rax
   16413:	48 89 85 88 fd ff ff 	mov    %rax,-0x278(%rbp)
   1641a:	48 8d 85 9c f3 ff ff 	lea    -0xc64(%rbp),%rax
   16421:	48 89 85 90 fd ff ff 	mov    %rax,-0x270(%rbp)
   16428:	48 c7 85 98 fd ff ff 	movq   $0x0,-0x268(%rbp)
   1642f:	00 00 00 00 
   16433:	48 8d 85 9c f3 ff ff 	lea    -0xc64(%rbp),%rax
   1643a:	48 89 85 a0 fd ff ff 	mov    %rax,-0x260(%rbp)
   16441:	48 8d 85 9c f3 ff ff 	lea    -0xc64(%rbp),%rax
   16448:	48 89 85 a8 fd ff ff 	mov    %rax,-0x258(%rbp)
   1644f:	48 c7 85 b0 fd ff ff 	movq   $0x0,-0x250(%rbp)
   16456:	00 00 00 00 
   1645a:	48 8d 85 9c f3 ff ff 	lea    -0xc64(%rbp),%rax
   16461:	48 89 85 b8 fd ff ff 	mov    %rax,-0x248(%rbp)
   16468:	48 8d 05 65 dd 00 00 	lea    0xdd65(%rip),%rax        # 241d4 <g_102>
   1646f:	48 89 85 c0 fd ff ff 	mov    %rax,-0x240(%rbp)
   16476:	48 c7 85 c8 fd ff ff 	movq   $0x0,-0x238(%rbp)
   1647d:	00 00 00 00 
   16481:	48 c7 85 d0 fd ff ff 	movq   $0x0,-0x230(%rbp)
   16488:	00 00 00 00 
   1648c:	48 8d 05 41 dd 00 00 	lea    0xdd41(%rip),%rax        # 241d4 <g_102>
   16493:	48 89 85 d8 fd ff ff 	mov    %rax,-0x228(%rbp)
   1649a:	48 8d 05 33 dd 00 00 	lea    0xdd33(%rip),%rax        # 241d4 <g_102>
   164a1:	48 89 85 e0 fd ff ff 	mov    %rax,-0x220(%rbp)
   164a8:	48 8d 85 9c f3 ff ff 	lea    -0xc64(%rbp),%rax
   164af:	48 89 85 e8 fd ff ff 	mov    %rax,-0x218(%rbp)
   164b6:	48 8d 85 9c f3 ff ff 	lea    -0xc64(%rbp),%rax
   164bd:	48 89 85 f0 fd ff ff 	mov    %rax,-0x210(%rbp)
   164c4:	48 8d 05 09 dd 00 00 	lea    0xdd09(%rip),%rax        # 241d4 <g_102>
   164cb:	48 89 85 f8 fd ff ff 	mov    %rax,-0x208(%rbp)
   164d2:	48 8d 85 9c f3 ff ff 	lea    -0xc64(%rbp),%rax
   164d9:	48 89 85 00 fe ff ff 	mov    %rax,-0x200(%rbp)
   164e0:	48 8d 85 9c f3 ff ff 	lea    -0xc64(%rbp),%rax
   164e7:	48 89 85 08 fe ff ff 	mov    %rax,-0x1f8(%rbp)
   164ee:	48 8d 85 9c f3 ff ff 	lea    -0xc64(%rbp),%rax
   164f5:	48 89 85 10 fe ff ff 	mov    %rax,-0x1f0(%rbp)
   164fc:	48 8d 05 d1 dc 00 00 	lea    0xdcd1(%rip),%rax        # 241d4 <g_102>
   16503:	48 89 85 18 fe ff ff 	mov    %rax,-0x1e8(%rbp)
   1650a:	48 8d 05 c3 dc 00 00 	lea    0xdcc3(%rip),%rax        # 241d4 <g_102>
   16511:	48 89 85 20 fe ff ff 	mov    %rax,-0x1e0(%rbp)
   16518:	48 8d 05 b5 dc 00 00 	lea    0xdcb5(%rip),%rax        # 241d4 <g_102>
   1651f:	48 89 85 28 fe ff ff 	mov    %rax,-0x1d8(%rbp)
   16526:	48 8d 85 9c f3 ff ff 	lea    -0xc64(%rbp),%rax
   1652d:	48 89 85 30 fe ff ff 	mov    %rax,-0x1d0(%rbp)
   16534:	48 8d 05 99 dc 00 00 	lea    0xdc99(%rip),%rax        # 241d4 <g_102>
   1653b:	48 89 85 38 fe ff ff 	mov    %rax,-0x1c8(%rbp)
   16542:	48 8d 85 9c f3 ff ff 	lea    -0xc64(%rbp),%rax
   16549:	48 89 85 40 fe ff ff 	mov    %rax,-0x1c0(%rbp)
   16550:	48 c7 85 48 fe ff ff 	movq   $0x0,-0x1b8(%rbp)
   16557:	00 00 00 00 
   1655b:	48 8d 85 9c f3 ff ff 	lea    -0xc64(%rbp),%rax
   16562:	48 89 85 50 fe ff ff 	mov    %rax,-0x1b0(%rbp)
   16569:	48 8d 85 9c f3 ff ff 	lea    -0xc64(%rbp),%rax
   16570:	48 89 85 58 fe ff ff 	mov    %rax,-0x1a8(%rbp)
   16577:	48 8d 05 56 dc 00 00 	lea    0xdc56(%rip),%rax        # 241d4 <g_102>
   1657e:	48 89 85 60 fe ff ff 	mov    %rax,-0x1a0(%rbp)
   16585:	48 c7 85 68 fe ff ff 	movq   $0x0,-0x198(%rbp)
   1658c:	00 00 00 00 
   16590:	48 8d 05 3d dc 00 00 	lea    0xdc3d(%rip),%rax        # 241d4 <g_102>
   16597:	48 89 85 70 fe ff ff 	mov    %rax,-0x190(%rbp)
   1659e:	48 8d 85 9c f3 ff ff 	lea    -0xc64(%rbp),%rax
   165a5:	48 89 85 78 fe ff ff 	mov    %rax,-0x188(%rbp)
   165ac:	48 8d 05 21 dc 00 00 	lea    0xdc21(%rip),%rax        # 241d4 <g_102>
   165b3:	48 89 85 80 fe ff ff 	mov    %rax,-0x180(%rbp)
   165ba:	48 8d 05 13 dc 00 00 	lea    0xdc13(%rip),%rax        # 241d4 <g_102>
   165c1:	48 89 85 88 fe ff ff 	mov    %rax,-0x178(%rbp)
   165c8:	48 8d 85 9c f3 ff ff 	lea    -0xc64(%rbp),%rax
   165cf:	48 89 85 90 fe ff ff 	mov    %rax,-0x170(%rbp)
   165d6:	48 8d 05 f7 db 00 00 	lea    0xdbf7(%rip),%rax        # 241d4 <g_102>
   165dd:	48 89 85 98 fe ff ff 	mov    %rax,-0x168(%rbp)
   165e4:	48 8d 85 9c f3 ff ff 	lea    -0xc64(%rbp),%rax
   165eb:	48 89 85 a0 fe ff ff 	mov    %rax,-0x160(%rbp)
   165f2:	48 8d 85 9c f3 ff ff 	lea    -0xc64(%rbp),%rax
   165f9:	48 89 85 a8 fe ff ff 	mov    %rax,-0x158(%rbp)
   16600:	48 8d 85 9c f3 ff ff 	lea    -0xc64(%rbp),%rax
   16607:	48 89 85 b0 fe ff ff 	mov    %rax,-0x150(%rbp)
   1660e:	48 8d 05 bf db 00 00 	lea    0xdbbf(%rip),%rax        # 241d4 <g_102>
   16615:	48 89 85 b8 fe ff ff 	mov    %rax,-0x148(%rbp)
   1661c:	48 8d 05 b1 db 00 00 	lea    0xdbb1(%rip),%rax        # 241d4 <g_102>
   16623:	48 89 85 c0 fe ff ff 	mov    %rax,-0x140(%rbp)
   1662a:	48 c7 85 c8 fe ff ff 	movq   $0x0,-0x138(%rbp)
   16631:	00 00 00 00 
   16635:	48 c7 85 d0 fe ff ff 	movq   $0x0,-0x130(%rbp)
   1663c:	00 00 00 00 
   16640:	48 8d 05 8d db 00 00 	lea    0xdb8d(%rip),%rax        # 241d4 <g_102>
   16647:	48 89 85 d8 fe ff ff 	mov    %rax,-0x128(%rbp)
   1664e:	48 c7 85 e0 fe ff ff 	movq   $0x0,-0x120(%rbp)
   16655:	00 00 00 00 
   16659:	48 c7 85 e8 fe ff ff 	movq   $0x0,-0x118(%rbp)
   16660:	00 00 00 00 
   16664:	48 8d 85 9c f3 ff ff 	lea    -0xc64(%rbp),%rax
   1666b:	48 89 85 f0 fe ff ff 	mov    %rax,-0x110(%rbp)
   16672:	48 8d 85 9c f3 ff ff 	lea    -0xc64(%rbp),%rax
   16679:	48 89 85 f8 fe ff ff 	mov    %rax,-0x108(%rbp)
   16680:	48 c7 85 00 ff ff ff 	movq   $0x0,-0x100(%rbp)
   16687:	00 00 00 00 
   1668b:	48 c7 85 08 ff ff ff 	movq   $0x0,-0xf8(%rbp)
   16692:	00 00 00 00 
   16696:	48 8d 05 37 db 00 00 	lea    0xdb37(%rip),%rax        # 241d4 <g_102>
   1669d:	48 89 85 10 ff ff ff 	mov    %rax,-0xf0(%rbp)
   166a4:	48 8d 05 29 db 00 00 	lea    0xdb29(%rip),%rax        # 241d4 <g_102>
   166ab:	48 89 85 18 ff ff ff 	mov    %rax,-0xe8(%rbp)
   166b2:	48 8d 05 1b db 00 00 	lea    0xdb1b(%rip),%rax        # 241d4 <g_102>
   166b9:	48 89 85 20 ff ff ff 	mov    %rax,-0xe0(%rbp)
   166c0:	48 8d 85 9c f3 ff ff 	lea    -0xc64(%rbp),%rax
   166c7:	48 89 85 28 ff ff ff 	mov    %rax,-0xd8(%rbp)
   166ce:	48 8d 05 ff da 00 00 	lea    0xdaff(%rip),%rax        # 241d4 <g_102>
   166d5:	48 89 85 30 ff ff ff 	mov    %rax,-0xd0(%rbp)
   166dc:	48 8d 05 f1 da 00 00 	lea    0xdaf1(%rip),%rax        # 241d4 <g_102>
   166e3:	48 89 85 38 ff ff ff 	mov    %rax,-0xc8(%rbp)
   166ea:	48 8d 85 9c f3 ff ff 	lea    -0xc64(%rbp),%rax
   166f1:	48 89 85 40 ff ff ff 	mov    %rax,-0xc0(%rbp)
   166f8:	48 c7 85 48 ff ff ff 	movq   $0x0,-0xb8(%rbp)
   166ff:	00 00 00 00 
   16703:	48 8d 85 9c f3 ff ff 	lea    -0xc64(%rbp),%rax
   1670a:	48 89 85 50 ff ff ff 	mov    %rax,-0xb0(%rbp)
   16711:	48 8d 05 bc da 00 00 	lea    0xdabc(%rip),%rax        # 241d4 <g_102>
   16718:	48 89 85 58 ff ff ff 	mov    %rax,-0xa8(%rbp)
   1671f:	48 8d 05 ae da 00 00 	lea    0xdaae(%rip),%rax        # 241d4 <g_102>
   16726:	48 89 85 60 ff ff ff 	mov    %rax,-0xa0(%rbp)
   1672d:	48 c7 85 68 ff ff ff 	movq   $0x0,-0x98(%rbp)
   16734:	00 00 00 00 
   16738:	48 c7 85 70 ff ff ff 	movq   $0x0,-0x90(%rbp)
   1673f:	00 00 00 00 
   16743:	48 8d 85 9c f3 ff ff 	lea    -0xc64(%rbp),%rax
   1674a:	48 89 85 78 ff ff ff 	mov    %rax,-0x88(%rbp)
   16751:	48 c7 45 80 00 00 00 	movq   $0x0,-0x80(%rbp)
   16758:	00 
   16759:	48 c7 45 88 00 00 00 	movq   $0x0,-0x78(%rbp)
   16760:	00 
   16761:	48 8d 05 6c da 00 00 	lea    0xda6c(%rip),%rax        # 241d4 <g_102>
   16768:	48 89 45 90          	mov    %rax,-0x70(%rbp)
   1676c:	48 c7 45 98 00 00 00 	movq   $0x0,-0x68(%rbp)
   16773:	00 
   16774:	48 8d 05 59 da 00 00 	lea    0xda59(%rip),%rax        # 241d4 <g_102>
   1677b:	48 89 45 a0          	mov    %rax,-0x60(%rbp)
   1677f:	48 c7 45 a8 00 00 00 	movq   $0x0,-0x58(%rbp)
   16786:	00 
   16787:	48 8d 85 9c f3 ff ff 	lea    -0xc64(%rbp),%rax
   1678e:	48 89 45 b0          	mov    %rax,-0x50(%rbp)
   16792:	48 8d 85 9c f3 ff ff 	lea    -0xc64(%rbp),%rax
   16799:	48 89 45 b8          	mov    %rax,-0x48(%rbp)
   1679d:	48 8d 05 30 da 00 00 	lea    0xda30(%rip),%rax        # 241d4 <g_102>
   167a4:	48 89 45 c0          	mov    %rax,-0x40(%rbp)
   167a8:	c7 85 a0 f3 ff ff 00 	movl   $0x0,-0xc60(%rbp)
   167af:	00 00 00 
   167b2:	eb 14                	jmp    167c8 <func_28+0xe09>
   167b4:	8b 85 a0 f3 ff ff    	mov    -0xc60(%rbp),%eax
   167ba:	48 98                	cltq   
   167bc:	c6 44 05 cf fe       	movb   $0xfe,-0x31(%rbp,%rax,1)
   167c1:	83 85 a0 f3 ff ff 01 	addl   $0x1,-0xc60(%rbp)
   167c8:	83 bd a0 f3 ff ff 08 	cmpl   $0x8,-0xc60(%rbp)
   167cf:	7e e3                	jle    167b4 <func_28+0xdf5>
   167d1:	c7 05 e9 d8 00 00 00 	movl   $0x0,0xd8e9(%rip)        # 240c4 <g_35>
   167d8:	00 00 00 
   167db:	e9 21 06 00 00       	jmpq   16e01 <func_28+0x1442>
   167e0:	48 c7 85 e0 f3 ff ff 	movq   $0x4,-0xc20(%rbp)
   167e7:	04 00 00 00 
   167eb:	c7 05 d3 d8 00 00 07 	movl   $0x7,0xd8d3(%rip)        # 240c8 <g_37>
   167f2:	00 00 00 
   167f5:	90                   	nop
   167f6:	8b 05 cc d8 00 00    	mov    0xd8cc(%rip),%eax        # 240c8 <g_37>
   167fc:	85 c0                	test   %eax,%eax
   167fe:	0f 88 ef 04 00 00    	js     16cf3 <func_28+0x1334>
   16804:	c7 85 60 f4 ff ff 1f 	movl   $0xce1a791f,-0xba0(%rbp)
   1680b:	79 1a ce 
   1680e:	c7 85 64 f4 ff ff 1f 	movl   $0xce1a791f,-0xb9c(%rbp)
   16815:	79 1a ce 
   16818:	c7 85 68 f4 ff ff 1f 	movl   $0xce1a791f,-0xb98(%rbp)
   1681f:	79 1a ce 
   16822:	c7 85 6c f4 ff ff 1f 	movl   $0xce1a791f,-0xb94(%rbp)
   16829:	79 1a ce 
   1682c:	c7 85 70 f4 ff ff 1f 	movl   $0xce1a791f,-0xb90(%rbp)
   16833:	79 1a ce 
   16836:	c7 85 74 f4 ff ff 1f 	movl   $0xce1a791f,-0xb8c(%rbp)
   1683d:	79 1a ce 
   16840:	c7 85 78 f4 ff ff 1f 	movl   $0xce1a791f,-0xb88(%rbp)
   16847:	79 1a ce 
   1684a:	c7 85 7c f4 ff ff 05 	movl   $0xea81e905,-0xb84(%rbp)
   16851:	e9 81 ea 
   16854:	c7 85 80 f4 ff ff 04 	movl   $0x4,-0xb80(%rbp)
   1685b:	00 00 00 
   1685e:	c7 85 84 f4 ff ff 05 	movl   $0xea81e905,-0xb7c(%rbp)
   16865:	e9 81 ea 
   16868:	c7 85 88 f4 ff ff 04 	movl   $0x4,-0xb78(%rbp)
   1686f:	00 00 00 
   16872:	c7 85 8c f4 ff ff 05 	movl   $0xea81e905,-0xb74(%rbp)
   16879:	e9 81 ea 
   1687c:	c7 85 90 f4 ff ff 04 	movl   $0x4,-0xb70(%rbp)
   16883:	00 00 00 
   16886:	c7 85 94 f4 ff ff 05 	movl   $0xea81e905,-0xb6c(%rbp)
   1688d:	e9 81 ea 
   16890:	c7 85 98 f4 ff ff 1f 	movl   $0xce1a791f,-0xb68(%rbp)
   16897:	79 1a ce 
   1689a:	c7 85 9c f4 ff ff 1f 	movl   $0xce1a791f,-0xb64(%rbp)
   168a1:	79 1a ce 
   168a4:	c7 85 a0 f4 ff ff 1f 	movl   $0xce1a791f,-0xb60(%rbp)
   168ab:	79 1a ce 
   168ae:	c7 85 a4 f4 ff ff 1f 	movl   $0xce1a791f,-0xb5c(%rbp)
   168b5:	79 1a ce 
   168b8:	c7 85 a8 f4 ff ff 1f 	movl   $0xce1a791f,-0xb58(%rbp)
   168bf:	79 1a ce 
   168c2:	c7 85 ac f4 ff ff 1f 	movl   $0xce1a791f,-0xb54(%rbp)
   168c9:	79 1a ce 
   168cc:	c7 85 b0 f4 ff ff 1f 	movl   $0xce1a791f,-0xb50(%rbp)
   168d3:	79 1a ce 
   168d6:	c7 85 b4 f4 ff ff 05 	movl   $0xea81e905,-0xb4c(%rbp)
   168dd:	e9 81 ea 
   168e0:	c7 85 b8 f4 ff ff 04 	movl   $0x4,-0xb48(%rbp)
   168e7:	00 00 00 
   168ea:	c7 85 bc f4 ff ff 05 	movl   $0xea81e905,-0xb44(%rbp)
   168f1:	e9 81 ea 
   168f4:	c7 85 c0 f4 ff ff 04 	movl   $0x4,-0xb40(%rbp)
   168fb:	00 00 00 
   168fe:	c7 85 c4 f4 ff ff 05 	movl   $0xea81e905,-0xb3c(%rbp)
   16905:	e9 81 ea 
   16908:	c7 85 c8 f4 ff ff 04 	movl   $0x4,-0xb38(%rbp)
   1690f:	00 00 00 
   16912:	c7 85 cc f4 ff ff 05 	movl   $0xea81e905,-0xb34(%rbp)
   16919:	e9 81 ea 
   1691c:	c7 85 d0 f4 ff ff 1f 	movl   $0xce1a791f,-0xb30(%rbp)
   16923:	79 1a ce 
   16926:	c7 85 d4 f4 ff ff 1f 	movl   $0xce1a791f,-0xb2c(%rbp)
   1692d:	79 1a ce 
   16930:	c7 85 d8 f4 ff ff 1f 	movl   $0xce1a791f,-0xb28(%rbp)
   16937:	79 1a ce 
   1693a:	c7 85 dc f4 ff ff 1f 	movl   $0xce1a791f,-0xb24(%rbp)
   16941:	79 1a ce 
   16944:	c7 85 e0 f4 ff ff 1f 	movl   $0xce1a791f,-0xb20(%rbp)
   1694b:	79 1a ce 
   1694e:	c7 85 e4 f4 ff ff 1f 	movl   $0xce1a791f,-0xb1c(%rbp)
   16955:	79 1a ce 
   16958:	c7 85 e8 f4 ff ff 1f 	movl   $0xce1a791f,-0xb18(%rbp)
   1695f:	79 1a ce 
   16962:	c7 85 ec f4 ff ff 05 	movl   $0xea81e905,-0xb14(%rbp)
   16969:	e9 81 ea 
   1696c:	c7 85 f0 f4 ff ff 04 	movl   $0x4,-0xb10(%rbp)
   16973:	00 00 00 
   16976:	c7 85 f4 f4 ff ff 05 	movl   $0xea81e905,-0xb0c(%rbp)
   1697d:	e9 81 ea 
   16980:	c7 85 f8 f4 ff ff 04 	movl   $0x4,-0xb08(%rbp)
   16987:	00 00 00 
   1698a:	c7 85 fc f4 ff ff 05 	movl   $0xea81e905,-0xb04(%rbp)
   16991:	e9 81 ea 
   16994:	c7 85 00 f5 ff ff 04 	movl   $0x4,-0xb00(%rbp)
   1699b:	00 00 00 
   1699e:	c7 85 04 f5 ff ff 05 	movl   $0xea81e905,-0xafc(%rbp)
   169a5:	e9 81 ea 
   169a8:	c7 85 08 f5 ff ff 1f 	movl   $0xce1a791f,-0xaf8(%rbp)
   169af:	79 1a ce 
   169b2:	c7 85 0c f5 ff ff 1f 	movl   $0xce1a791f,-0xaf4(%rbp)
   169b9:	79 1a ce 
   169bc:	c7 85 10 f5 ff ff 1f 	movl   $0xce1a791f,-0xaf0(%rbp)
   169c3:	79 1a ce 
   169c6:	c7 85 14 f5 ff ff 1f 	movl   $0xce1a791f,-0xaec(%rbp)
   169cd:	79 1a ce 
   169d0:	c7 85 18 f5 ff ff 1f 	movl   $0xce1a791f,-0xae8(%rbp)
   169d7:	79 1a ce 
   169da:	c7 85 1c f5 ff ff 1f 	movl   $0xce1a791f,-0xae4(%rbp)
   169e1:	79 1a ce 
   169e4:	c7 85 20 f5 ff ff 1f 	movl   $0xce1a791f,-0xae0(%rbp)
   169eb:	79 1a ce 
   169ee:	48 8d 05 df d7 00 00 	lea    0xd7df(%rip),%rax        # 241d4 <g_102>
   169f5:	48 89 85 e8 f3 ff ff 	mov    %rax,-0xc18(%rbp)
   169fc:	c7 05 ce d6 00 00 07 	movl   $0x7,0xd6ce(%rip)        # 240d4 <g_40>
   16a03:	00 00 00 
   16a06:	e9 73 01 00 00       	jmpq   16b7e <func_28+0x11bf>
   16a0b:	48 8d 05 b2 d6 00 00 	lea    0xd6b2(%rip),%rax        # 240c4 <g_35>
   16a12:	48 89 85 20 f4 ff ff 	mov    %rax,-0xbe0(%rbp)
   16a19:	48 8d 05 a4 d6 00 00 	lea    0xd6a4(%rip),%rax        # 240c4 <g_35>
   16a20:	48 89 85 28 f4 ff ff 	mov    %rax,-0xbd8(%rbp)
   16a27:	48 8d 05 96 d6 00 00 	lea    0xd696(%rip),%rax        # 240c4 <g_35>
   16a2e:	48 89 85 30 f4 ff ff 	mov    %rax,-0xbd0(%rbp)
   16a35:	48 8d 05 88 d6 00 00 	lea    0xd688(%rip),%rax        # 240c4 <g_35>
   16a3c:	48 89 85 38 f4 ff ff 	mov    %rax,-0xbc8(%rbp)
   16a43:	48 8d 05 7a d6 00 00 	lea    0xd67a(%rip),%rax        # 240c4 <g_35>
   16a4a:	48 89 85 40 f4 ff ff 	mov    %rax,-0xbc0(%rbp)
   16a51:	48 8d 05 6c d6 00 00 	lea    0xd66c(%rip),%rax        # 240c4 <g_35>
   16a58:	48 89 85 48 f4 ff ff 	mov    %rax,-0xbb8(%rbp)
   16a5f:	48 8d 05 5e d6 00 00 	lea    0xd65e(%rip),%rax        # 240c4 <g_35>
   16a66:	48 89 85 50 f4 ff ff 	mov    %rax,-0xbb0(%rbp)
   16a6d:	8b 05 55 d6 00 00    	mov    0xd655(%rip),%eax        # 240c8 <g_37>
   16a73:	48 98                	cltq   
   16a75:	8b 95 80 f3 ff ff    	mov    -0xc80(%rbp),%edx
   16a7b:	48 63 d2             	movslq %edx,%rdx
   16a7e:	48 c1 e2 03          	shl    $0x3,%rdx
   16a82:	48 01 d0             	add    %rdx,%rax
   16a85:	48 8d 14 00          	lea    (%rax,%rax,1),%rdx
   16a89:	48 8d 05 b0 d5 00 00 	lea    0xd5b0(%rip),%rax        # 24040 <g_25>
   16a90:	0f b7 04 02          	movzwl (%rdx,%rax,1),%eax
   16a94:	0f b7 d0             	movzwl %ax,%edx
   16a97:	48 8b 85 b8 f3 ff ff 	mov    -0xc48(%rbp),%rax
   16a9e:	89 10                	mov    %edx,(%rax)
   16aa0:	8b 05 3a de 00 00    	mov    0xde3a(%rip),%eax        # 248e0 <g_1741>
   16aa6:	41 89 c6             	mov    %eax,%r14d
   16aa9:	48 8b 05 70 32 01 00 	mov    0x13270(%rip),%rax        # 29d20 <g_1944>
   16ab0:	4c 8b 20             	mov    (%rax),%r12
   16ab3:	8b 85 84 f3 ff ff    	mov    -0xc7c(%rbp),%eax
   16ab9:	0f b6 d8             	movzbl %al,%ebx
   16abc:	8b 85 80 f3 ff ff    	mov    -0xc80(%rbp),%eax
   16ac2:	4c 63 e8             	movslq %eax,%r13
   16ac5:	8b 85 80 f3 ff ff    	mov    -0xc80(%rbp),%eax
   16acb:	0f be c8             	movsbl %al,%ecx
   16ace:	8b 95 9c f3 ff ff    	mov    -0xc64(%rbp),%edx
   16ad4:	48 8b 85 40 f4 ff ff 	mov    -0xbc0(%rbp),%rax
   16adb:	48 8b b5 c0 f3 ff ff 	mov    -0xc40(%rbp),%rsi
   16ae2:	48 89 c7             	mov    %rax,%rdi
   16ae5:	e8 d3 14 00 00       	callq  17fbd <func_60>
   16aea:	48 89 c1             	mov    %rax,%rcx
   16aed:	48 8b 85 e0 f3 ff ff 	mov    -0xc20(%rbp),%rax
   16af4:	4c 89 ea             	mov    %r13,%rdx
   16af7:	48 89 ce             	mov    %rcx,%rsi
   16afa:	48 89 c7             	mov    %rax,%rdi
   16afd:	e8 34 0d 00 00       	callq  17836 <func_55>
   16b02:	48 89 c6             	mov    %rax,%rsi
   16b05:	48 8d 3d bc d5 00 00 	lea    0xd5bc(%rip),%rdi        # 240c8 <g_37>
   16b0c:	e8 f0 0c 00 00       	callq  17801 <func_52>
   16b11:	0f be c0             	movsbl %al,%eax
   16b14:	8b 95 9c f3 ff ff    	mov    -0xc64(%rbp),%edx
   16b1a:	89 d6                	mov    %edx,%esi
   16b1c:	89 d9                	mov    %ebx,%ecx
   16b1e:	89 c2                	mov    %eax,%edx
   16b20:	48 8d 3d 9d d5 00 00 	lea    0xd59d(%rip),%rdi        # 240c4 <g_35>
   16b27:	e8 e2 04 00 00       	callq  1700e <func_46>
   16b2c:	0f b7 c0             	movzwl %ax,%eax
   16b2f:	48 8b 1d ca 2a 01 00 	mov    0x12aca(%rip),%rbx        # 29600 <g_1860>
   16b36:	44 89 f2             	mov    %r14d,%edx
   16b39:	4c 89 e6             	mov    %r12,%rsi
   16b3c:	89 c7                	mov    %eax,%edi
   16b3e:	e8 a5 04 00 00       	callq  16fe8 <func_42>
   16b43:	48 89 03             	mov    %rax,(%rbx)
   16b46:	48 8b 03             	mov    (%rbx),%rax
   16b49:	48 39 85 b0 f3 ff ff 	cmp    %rax,-0xc50(%rbp)
   16b50:	0f 94 c0             	sete   %al
   16b53:	0f b6 d0             	movzbl %al,%edx
   16b56:	48 8b 85 b8 f3 ff ff 	mov    -0xc48(%rbp),%rax
   16b5d:	89 10                	mov    %edx,(%rax)
   16b5f:	48 8b 05 1a 24 01 00 	mov    0x1241a(%rip),%rax        # 28f80 <g_701>
   16b66:	48 8b 00             	mov    (%rax),%rax
   16b69:	c7 00 00 00 00 00    	movl   $0x0,(%rax)
   16b6f:	8b 05 5f d5 00 00    	mov    0xd55f(%rip),%eax        # 240d4 <g_40>
   16b75:	83 e8 01             	sub    $0x1,%eax
   16b78:	89 05 56 d5 00 00    	mov    %eax,0xd556(%rip)        # 240d4 <g_40>
   16b7e:	8b 05 50 d5 00 00    	mov    0xd550(%rip),%eax        # 240d4 <g_40>
   16b84:	85 c0                	test   %eax,%eax
   16b86:	0f 89 7f fe ff ff    	jns    16a0b <func_28+0x104c>
   16b8c:	0f b7 85 9a f3 ff ff 	movzwl -0xc66(%rbp),%eax
   16b93:	0f bf d8             	movswl %ax,%ebx
   16b96:	8b 15 ac de 00 00    	mov    0xdeac(%rip),%edx        # 24a48 <g_2197>
   16b9c:	8b 85 84 f3 ff ff    	mov    -0xc7c(%rbp),%eax
   16ba2:	09 d0                	or     %edx,%eax
   16ba4:	89 05 9e de 00 00    	mov    %eax,0xde9e(%rip)        # 24a48 <g_2197>
   16baa:	8b 05 98 de 00 00    	mov    0xde98(%rip),%eax        # 24a48 <g_2197>
   16bb0:	41 89 c6             	mov    %eax,%r14d
   16bb3:	44 8b a5 84 f3 ff ff 	mov    -0xc7c(%rbp),%r12d
   16bba:	4c 8b ad e0 f3 ff ff 	mov    -0xc20(%rbp),%r13
   16bc1:	8b 85 80 f3 ff ff    	mov    -0xc80(%rbp),%eax
   16bc7:	83 f8 06             	cmp    $0x6,%eax
   16bca:	0f 96 c0             	setbe  %al
   16bcd:	0f b6 c0             	movzbl %al,%eax
   16bd0:	be 09 00 00 00       	mov    $0x9,%esi
   16bd5:	89 c7                	mov    %eax,%edi
   16bd7:	e8 e2 71 ff ff       	callq  ddbe <safe_lshift_func_uint16_t_u_s>
   16bdc:	0f b7 c0             	movzwl %ax,%eax
   16bdf:	39 85 80 f3 ff ff    	cmp    %eax,-0xc80(%rbp)
   16be5:	0f 9f c0             	setg   %al
   16be8:	0f b6 c0             	movzbl %al,%eax
   16beb:	4c 89 ee             	mov    %r13,%rsi
   16bee:	48 89 c7             	mov    %rax,%rdi
   16bf1:	e8 38 74 ff ff       	callq  e02e <safe_add_func_uint64_t_u_u>
   16bf6:	83 e0 ed             	and    $0xffffffed,%eax
   16bf9:	0f be c0             	movsbl %al,%eax
   16bfc:	be f8 ff ff ff       	mov    $0xfffffff8,%esi
   16c01:	89 c7                	mov    %eax,%edi
   16c03:	e8 0a 66 ff ff       	callq  d212 <safe_mul_func_int8_t_s_s>
   16c08:	0f be d0             	movsbl %al,%edx
   16c0b:	8b 85 9c f3 ff ff    	mov    -0xc64(%rbp),%eax
   16c11:	39 c2                	cmp    %eax,%edx
   16c13:	0f 92 c0             	setb   %al
   16c16:	0f b6 c0             	movzbl %al,%eax
   16c19:	44 89 e6             	mov    %r12d,%esi
   16c1c:	89 c7                	mov    %eax,%edi
   16c1e:	e8 02 73 ff ff       	callq  df25 <safe_div_func_uint32_t_u_u>
   16c23:	85 c0                	test   %eax,%eax
   16c25:	75 09                	jne    16c30 <func_28+0x1271>
   16c27:	83 bd 84 f3 ff ff 00 	cmpl   $0x0,-0xc7c(%rbp)
   16c2e:	74 07                	je     16c37 <func_28+0x1278>
   16c30:	b8 01 00 00 00       	mov    $0x1,%eax
   16c35:	eb 05                	jmp    16c3c <func_28+0x127d>
   16c37:	b8 00 00 00 00       	mov    $0x0,%eax
   16c3c:	44 31 f0             	xor    %r14d,%eax
   16c3f:	98                   	cwtl   
   16c40:	89 de                	mov    %ebx,%esi
   16c42:	89 c7                	mov    %eax,%edi
   16c44:	e8 cd 67 ff ff       	callq  d416 <safe_mod_func_int16_t_s_s>
   16c49:	0f be d0             	movsbl %al,%edx
   16c4c:	48 83 bd b8 f3 ff ff 	cmpq   $0x0,-0xc48(%rbp)
   16c53:	00 
   16c54:	0f 94 c0             	sete   %al
   16c57:	0f b6 c8             	movzbl %al,%ecx
   16c5a:	48 8b 85 e8 f3 ff ff 	mov    -0xc18(%rbp),%rax
   16c61:	8b 30                	mov    (%rax),%esi
   16c63:	48 8b 85 08 f7 ff ff 	mov    -0x8f8(%rbp),%rax
   16c6a:	48 85 c0             	test   %rax,%rax
   16c6d:	0f 95 c0             	setne  %al
   16c70:	0f b6 c0             	movzbl %al,%eax
   16c73:	21 c6                	and    %eax,%esi
   16c75:	48 8b 85 e8 f3 ff ff 	mov    -0xc18(%rbp),%rax
   16c7c:	89 30                	mov    %esi,(%rax)
   16c7e:	48 8b 85 e8 f3 ff ff 	mov    -0xc18(%rbp),%rax
   16c85:	8b 00                	mov    (%rax),%eax
   16c87:	39 c1                	cmp    %eax,%ecx
   16c89:	0f 97 c0             	seta   %al
   16c8c:	0f b6 c0             	movzbl %al,%eax
   16c8f:	39 85 84 f3 ff ff    	cmp    %eax,-0xc7c(%rbp)
   16c95:	0f 9e c0             	setle  %al
   16c98:	0f b6 c0             	movzbl %al,%eax
   16c9b:	89 d6                	mov    %edx,%esi
   16c9d:	89 c7                	mov    %eax,%edi
   16c9f:	e8 30 65 ff ff       	callq  d1d4 <safe_add_func_int8_t_s_s>
   16ca4:	48 8b 15 dd 22 01 00 	mov    0x122dd(%rip),%rdx        # 28f88 <g_700>
   16cab:	48 8b 12             	mov    (%rdx),%rdx
   16cae:	48 8b 12             	mov    (%rdx),%rdx
   16cb1:	8b 0a                	mov    (%rdx),%ecx
   16cb3:	0f be d0             	movsbl %al,%edx
   16cb6:	48 8b 05 cb 22 01 00 	mov    0x122cb(%rip),%rax        # 28f88 <g_700>
   16cbd:	48 8b 00             	mov    (%rax),%rax
   16cc0:	48 8b 00             	mov    (%rax),%rax
   16cc3:	21 ca                	and    %ecx,%edx
   16cc5:	89 10                	mov    %edx,(%rax)
   16cc7:	48 8b 8d 88 f3 ff ff 	mov    -0xc78(%rbp),%rcx
   16cce:	48 8b 05 0b e5 00 00 	mov    0xe50b(%rip),%rax        # 251e0 <g_2730>
   16cd5:	48 8b 15 0c e5 00 00 	mov    0xe50c(%rip),%rdx        # 251e8 <g_2730+0x8>
   16cdc:	48 89 01             	mov    %rax,(%rcx)
   16cdf:	48 89 51 08          	mov    %rdx,0x8(%rcx)
   16ce3:	48 8b 05 06 e5 00 00 	mov    0xe506(%rip),%rax        # 251f0 <g_2730+0x10>
   16cea:	48 89 41 10          	mov    %rax,0x10(%rcx)
   16cee:	e9 ca 02 00 00       	jmpq   16fbd <func_28+0x15fe>
   16cf3:	48 8d 05 e6 43 01 00 	lea    0x143e6(%rip),%rax        # 2b0e0 <g_180>
   16cfa:	48 89 05 5f 44 01 00 	mov    %rax,0x1445f(%rip)        # 2b160 <g_2735>
   16d01:	48 8b 85 08 f7 ff ff 	mov    -0x8f8(%rbp),%rax
   16d08:	48 8d 15 d1 43 01 00 	lea    0x143d1(%rip),%rdx        # 2b0e0 <g_180>
   16d0f:	48 39 d0             	cmp    %rdx,%rax
   16d12:	0f 95 c0             	setne  %al
   16d15:	0f b6 c0             	movzbl %al,%eax
   16d18:	89 c6                	mov    %eax,%esi
   16d1a:	bf ff ff ff ff       	mov    $0xffffffff,%edi
   16d1f:	e8 92 68 ff ff       	callq  d5b6 <safe_add_func_int32_t_s_s>
   16d24:	be 06 00 00 00       	mov    $0x6,%esi
   16d29:	89 c7                	mov    %eax,%edi
   16d2b:	e8 9c 69 ff ff       	callq  d6cc <safe_mod_func_int32_t_s_s>
   16d30:	48 8b 05 19 19 01 00 	mov    0x11919(%rip),%rax        # 28650 <g_168>
   16d37:	8b 10                	mov    (%rax),%edx
   16d39:	48 8b 05 10 19 01 00 	mov    0x11910(%rip),%rax        # 28650 <g_168>
   16d40:	23 95 80 f3 ff ff    	and    -0xc80(%rbp),%edx
   16d46:	89 10                	mov    %edx,(%rax)
   16d48:	8b 85 84 f3 ff ff    	mov    -0xc7c(%rbp),%eax
   16d4e:	0f b7 c0             	movzwl %ax,%eax
   16d51:	be 01 00 00 00       	mov    $0x1,%esi
   16d56:	89 c7                	mov    %eax,%edi
   16d58:	e8 c2 6f ff ff       	callq  dd1f <safe_sub_func_uint16_t_u_u>
   16d5d:	0f b7 c0             	movzwl %ax,%eax
   16d60:	be 94 71 52 15       	mov    $0x15527194,%esi
   16d65:	89 c7                	mov    %eax,%edi
   16d67:	e8 60 69 ff ff       	callq  d6cc <safe_mod_func_int32_t_s_s>
   16d6c:	3d f7 ff 00 00       	cmp    $0xfff7,%eax
   16d71:	48 8b 05 78 19 01 00 	mov    0x11978(%rip),%rax        # 286f0 <g_256>
   16d78:	48 8b 00             	mov    (%rax),%rax
   16d7b:	48 8b 00             	mov    (%rax),%rax
   16d7e:	48 8b 10             	mov    (%rax),%rdx
   16d81:	8b 85 84 f3 ff ff    	mov    -0xc7c(%rbp),%eax
   16d87:	48 63 c8             	movslq %eax,%rcx
   16d8a:	8b 85 84 f3 ff ff    	mov    -0xc7c(%rbp),%eax
   16d90:	83 f0 08             	xor    $0x8,%eax
   16d93:	48 98                	cltq   
   16d95:	48 39 c1             	cmp    %rax,%rcx
   16d98:	0f 96 c0             	setbe  %al
   16d9b:	0f b6 c0             	movzbl %al,%eax
   16d9e:	33 85 84 f3 ff ff    	xor    -0xc7c(%rbp),%eax
   16da4:	48 98                	cltq   
   16da6:	48 39 c2             	cmp    %rax,%rdx
   16da9:	72 07                	jb     16db2 <func_28+0x13f3>
   16dab:	83 bd 80 f3 ff ff 00 	cmpl   $0x0,-0xc80(%rbp)
   16db2:	48 8b 05 af 22 01 00 	mov    0x122af(%rip),%rax        # 29068 <g_1010>
   16db9:	48 8b 00             	mov    (%rax),%rax
   16dbc:	48 8b 00             	mov    (%rax),%rax
   16dbf:	48 8b 00             	mov    (%rax),%rax
   16dc2:	8b 00                	mov    (%rax),%eax
   16dc4:	85 c0                	test   %eax,%eax
   16dc6:	0f 95 c0             	setne  %al
   16dc9:	0f b6 d0             	movzbl %al,%edx
   16dcc:	0f b6 85 99 f3 ff ff 	movzbl -0xc67(%rbp),%eax
   16dd3:	21 c2                	and    %eax,%edx
   16dd5:	48 8b 05 a4 21 01 00 	mov    0x121a4(%rip),%rax        # 28f80 <g_701>
   16ddc:	48 8b 00             	mov    (%rax),%rax
   16ddf:	8b 00                	mov    (%rax),%eax
   16de1:	39 c2                	cmp    %eax,%edx
   16de3:	0f 9d c0             	setge  %al
   16de6:	0f b6 c0             	movzbl %al,%eax
   16de9:	48 98                	cltq   
   16deb:	48 21 85 a8 f3 ff ff 	and    %rax,-0xc58(%rbp)
   16df2:	8b 05 cc d2 00 00    	mov    0xd2cc(%rip),%eax        # 240c4 <g_35>
   16df8:	83 c0 01             	add    $0x1,%eax
   16dfb:	89 05 c3 d2 00 00    	mov    %eax,0xd2c3(%rip)        # 240c4 <g_35>
   16e01:	8b 05 bd d2 00 00    	mov    0xd2bd(%rip),%eax        # 240c4 <g_35>
   16e07:	83 f8 07             	cmp    $0x7,%eax
   16e0a:	0f 8e d0 f9 ff ff    	jle    167e0 <func_28+0xe21>
   16e10:	8b 85 80 f3 ff ff    	mov    -0xc80(%rbp),%eax
   16e16:	48 63 d0             	movslq %eax,%rdx
   16e19:	48 89 d0             	mov    %rdx,%rax
   16e1c:	48 c1 e0 03          	shl    $0x3,%rax
   16e20:	48 01 d0             	add    %rdx,%rax
   16e23:	48 01 c0             	add    %rax,%rax
   16e26:	48 89 c2             	mov    %rax,%rdx
   16e29:	48 8d 05 10 d2 00 00 	lea    0xd210(%rip),%rax        # 24040 <g_25>
   16e30:	0f b7 04 02          	movzwl (%rdx,%rax,1),%eax
   16e34:	48 8b 05 45 37 01 00 	mov    0x13745(%rip),%rax        # 2a580 <g_2678>
   16e3b:	48 8b 00             	mov    (%rax),%rax
   16e3e:	48 8b 00             	mov    (%rax),%rax
   16e41:	0f b6 00             	movzbl (%rax),%eax
   16e44:	0f b6 d8             	movzbl %al,%ebx
   16e47:	8b 05 ab e3 00 00    	mov    0xe3ab(%rip),%eax        # 251f8 <g_2757>
   16e4d:	39 85 84 f3 ff ff    	cmp    %eax,-0xc7c(%rbp)
   16e53:	0f 9f c0             	setg   %al
   16e56:	88 45 d6             	mov    %al,-0x2a(%rbp)
   16e59:	0f b6 45 d6          	movzbl -0x2a(%rbp),%eax
   16e5d:	0f be c0             	movsbl %al,%eax
   16e60:	be 5a 85 c2 49       	mov    $0x49c2855a,%esi
   16e65:	89 c7                	mov    %eax,%edi
   16e67:	e8 64 70 ff ff       	callq  ded0 <safe_sub_func_uint32_t_u_u>
   16e6c:	0f be c0             	movsbl %al,%eax
   16e6f:	be 82 ff ff ff       	mov    $0xffffff82,%esi
   16e74:	89 c7                	mov    %eax,%edi
   16e76:	e8 97 63 ff ff       	callq  d212 <safe_mul_func_int8_t_s_s>
   16e7b:	0f be d0             	movsbl %al,%edx
   16e7e:	48 8b 85 78 f5 ff ff 	mov    -0xa88(%rbp),%rax
   16e85:	48 39 85 c8 f3 ff ff 	cmp    %rax,-0xc38(%rbp)
   16e8c:	0f 94 c0             	sete   %al
   16e8f:	0f b6 c0             	movzbl %al,%eax
   16e92:	89 d6                	mov    %edx,%esi
   16e94:	89 c7                	mov    %eax,%edi
   16e96:	e8 1d 70 ff ff       	callq  deb8 <safe_add_func_uint32_t_u_u>
   16e9b:	83 f8 01             	cmp    $0x1,%eax
   16e9e:	0f 95 c0             	setne  %al
   16ea1:	0f b6 c0             	movzbl %al,%eax
   16ea4:	be 01 00 00 00       	mov    $0x1,%esi
   16ea9:	89 c7                	mov    %eax,%edi
   16eab:	e8 3e 64 ff ff       	callq  d2ee <safe_lshift_func_int8_t_s_u>
   16eb0:	0f be c0             	movsbl %al,%eax
   16eb3:	83 e0 01             	and    $0x1,%eax
   16eb6:	89 85 a4 f3 ff ff    	mov    %eax,-0xc5c(%rbp)
   16ebc:	83 bd a4 f3 ff ff 4c 	cmpl   $0x4c,-0xc5c(%rbp)
   16ec3:	0f 9f c0             	setg   %al
   16ec6:	0f b6 c0             	movzbl %al,%eax
   16ec9:	89 de                	mov    %ebx,%esi
   16ecb:	89 c7                	mov    %eax,%edi
   16ecd:	e8 88 6c ff ff       	callq  db5a <safe_add_func_uint8_t_u_u>
   16ed2:	0f b7 05 6f d8 00 00 	movzwl 0xd86f(%rip),%eax        # 24748 <g_915+0x188>
   16ed9:	c1 e0 07             	shl    $0x7,%eax
   16edc:	66 c1 f8 07          	sar    $0x7,%ax
   16ee0:	0f bf d0             	movswl %ax,%edx
   16ee3:	48 8b 85 d0 f3 ff ff 	mov    -0xc30(%rbp),%rax
   16eea:	89 10                	mov    %edx,(%rax)
   16eec:	48 8b 85 d0 f3 ff ff 	mov    -0xc30(%rbp),%rax
   16ef3:	8b 00                	mov    (%rax),%eax
   16ef5:	25 ff ff 3f 00       	and    $0x3fffff,%eax
   16efa:	25 ff ff 3f 00       	and    $0x3fffff,%eax
   16eff:	89 c2                	mov    %eax,%edx
   16f01:	8b 05 a5 e2 00 00    	mov    0xe2a5(%rip),%eax        # 251ac <g_2618+0xc>
   16f07:	25 00 00 c0 ff       	and    $0xffc00000,%eax
   16f0c:	09 d0                	or     %edx,%eax
   16f0e:	89 05 98 e2 00 00    	mov    %eax,0xe298(%rip)        # 251ac <g_2618+0xc>
   16f14:	be 24 e3 00 00       	mov    $0xe324,%esi
   16f19:	bf 01 00 00 00       	mov    $0x1,%edi
   16f1e:	e8 dc 6d ff ff       	callq  dcff <safe_add_func_uint16_t_u_u>
   16f23:	0f b7 c0             	movzwl %ax,%eax
   16f26:	89 c6                	mov    %eax,%esi
   16f28:	bf fa ff ff ff       	mov    $0xfffffffa,%edi
   16f2d:	e8 3a 64 ff ff       	callq  d36c <safe_rshift_func_int8_t_s_u>
   16f32:	48 8b 85 b8 f3 ff ff 	mov    -0xc48(%rbp),%rax
   16f39:	8b 00                	mov    (%rax),%eax
   16f3b:	48 8b 85 b8 f3 ff ff 	mov    -0xc48(%rbp),%rax
   16f42:	8b 00                	mov    (%rax),%eax
   16f44:	ba 00 00 00 00       	mov    $0x0,%edx
   16f49:	8b 85 0c f4 ff ff    	mov    -0xbf4(%rbp),%eax
   16f4f:	21 d0                	and    %edx,%eax
   16f51:	89 85 0c f4 ff ff    	mov    %eax,-0xbf4(%rbp)
   16f57:	83 85 80 f3 ff ff 01 	addl   $0x1,-0xc80(%rbp)
   16f5e:	83 bd 80 f3 ff ff 07 	cmpl   $0x7,-0xc80(%rbp)
   16f65:	0f 8e 70 eb ff ff    	jle    15adb <func_28+0x11c>
   16f6b:	8b 85 84 f3 ff ff    	mov    -0xc7c(%rbp),%eax
   16f71:	0f be c0             	movsbl %al,%eax
   16f74:	be 02 00 00 00       	mov    $0x2,%esi
   16f79:	89 c7                	mov    %eax,%edi
   16f7b:	e8 72 62 ff ff       	callq  d1f2 <safe_sub_func_int8_t_s_s>
   16f80:	0f be c0             	movsbl %al,%eax
   16f83:	89 85 84 f3 ff ff    	mov    %eax,-0xc7c(%rbp)
   16f89:	83 bd 84 f3 ff ff f5 	cmpl   $0xfffffff5,-0xc7c(%rbp)
   16f90:	0f 84 a2 ea ff ff    	je     15a38 <func_28+0x79>
   16f96:	48 8b 05 5b 20 01 00 	mov    0x1205b(%rip),%rax        # 28ff8 <g_935>
   16f9d:	48 8b 30             	mov    (%rax),%rsi
   16fa0:	48 8b 8d 88 f3 ff ff 	mov    -0xc78(%rbp),%rcx
   16fa7:	48 8b 06             	mov    (%rsi),%rax
   16faa:	48 8b 56 08          	mov    0x8(%rsi),%rdx
   16fae:	48 89 01             	mov    %rax,(%rcx)
   16fb1:	48 89 51 08          	mov    %rdx,0x8(%rcx)
   16fb5:	48 8b 46 10          	mov    0x10(%rsi),%rax
   16fb9:	48 89 41 10          	mov    %rax,0x10(%rcx)
   16fbd:	48 8b 45 d8          	mov    -0x28(%rbp),%rax
   16fc1:	64 48 33 04 25 28 00 	xor    %fs:0x28,%rax
   16fc8:	00 00 
   16fca:	74 05                	je     16fd1 <func_28+0x1612>
   16fcc:	e8 9f 60 ff ff       	callq  d070 <__stack_chk_fail@plt>
   16fd1:	48 8b 85 88 f3 ff ff 	mov    -0xc78(%rbp),%rax
   16fd8:	48 81 c4 60 0c 00 00 	add    $0xc60,%rsp
   16fdf:	5b                   	pop    %rbx
   16fe0:	41 5c                	pop    %r12
   16fe2:	41 5d                	pop    %r13
   16fe4:	41 5e                	pop    %r14
   16fe6:	5d                   	pop    %rbp
   16fe7:	c3                   	retq   

0000000000016fe8 <func_42>:
   16fe8:	f3 0f 1e fa          	endbr64 
   16fec:	55                   	push   %rbp
   16fed:	48 89 e5             	mov    %rsp,%rbp
   16ff0:	89 f8                	mov    %edi,%eax
   16ff2:	48 89 75 e0          	mov    %rsi,-0x20(%rbp)
   16ff6:	89 55 e8             	mov    %edx,-0x18(%rbp)
   16ff9:	66 89 45 ec          	mov    %ax,-0x14(%rbp)
   16ffd:	48 8d 05 dc d8 00 00 	lea    0xd8dc(%rip),%rax        # 248e0 <g_1741>
   17004:	48 89 45 f8          	mov    %rax,-0x8(%rbp)
   17008:	48 8b 45 f8          	mov    -0x8(%rbp),%rax
   1700c:	5d                   	pop    %rbp
   1700d:	c3                   	retq   

000000000001700e <func_46>:
   1700e:	f3 0f 1e fa          	endbr64 
   17012:	55                   	push   %rbp
   17013:	48 89 e5             	mov    %rsp,%rbp
   17016:	48 81 ec 70 0a 00 00 	sub    $0xa70,%rsp
   1701d:	48 89 bd a8 f5 ff ff 	mov    %rdi,-0xa58(%rbp)
   17024:	48 89 b5 a0 f5 ff ff 	mov    %rsi,-0xa60(%rbp)
   1702b:	89 c8                	mov    %ecx,%eax
   1702d:	88 95 9c f5 ff ff    	mov    %dl,-0xa64(%rbp)
   17033:	88 85 98 f5 ff ff    	mov    %al,-0xa68(%rbp)
   17039:	64 48 8b 04 25 28 00 	mov    %fs:0x28,%rax
   17040:	00 00 
   17042:	48 89 45 f8          	mov    %rax,-0x8(%rbp)
   17046:	31 c0                	xor    %eax,%eax
   17048:	48 8d 05 c9 85 00 00 	lea    0x85c9(%rip),%rax        # 1f618 <g_2140>
   1704f:	48 89 85 f0 f5 ff ff 	mov    %rax,-0xa10(%rbp)
   17056:	48 8d 85 f0 f5 ff ff 	lea    -0xa10(%rbp),%rax
   1705d:	48 89 85 f8 f5 ff ff 	mov    %rax,-0xa08(%rbp)
   17064:	48 8d 85 f8 f5 ff ff 	lea    -0xa08(%rbp),%rax
   1706b:	48 89 85 00 f6 ff ff 	mov    %rax,-0xa00(%rbp)
   17072:	48 8d 85 00 f6 ff ff 	lea    -0xa00(%rbp),%rax
   17079:	48 89 85 30 f6 ff ff 	mov    %rax,-0x9d0(%rbp)
   17080:	c7 85 cc f5 ff ff f7 	movl   $0xfffffff7,-0xa34(%rbp)
   17087:	ff ff ff 
   1708a:	c7 85 d0 f5 ff ff 95 	movl   $0xb8c5ed95,-0xa30(%rbp)
   17091:	ed c5 b8 
   17094:	c7 85 d4 f5 ff ff 53 	movl   $0x8bf9cc53,-0xa2c(%rbp)
   1709b:	cc f9 8b 
   1709e:	c7 85 60 f8 ff ff fc 	movl   $0xfffffffc,-0x7a0(%rbp)
   170a5:	ff ff ff 
   170a8:	c7 85 64 f8 ff ff 20 	movl   $0xbfcc0c20,-0x79c(%rbp)
   170af:	0c cc bf 
   170b2:	c7 85 68 f8 ff ff d7 	movl   $0x5a1b6bd7,-0x798(%rbp)
   170b9:	6b 1b 5a 
   170bc:	c7 85 6c f8 ff ff 35 	movl   $0x19bd9535,-0x794(%rbp)
   170c3:	95 bd 19 
   170c6:	c7 85 70 f8 ff ff 20 	movl   $0xbfcc0c20,-0x790(%rbp)
   170cd:	0c cc bf 
   170d0:	c7 85 74 f8 ff ff fb 	movl   $0xfffffffb,-0x78c(%rbp)
   170d7:	ff ff ff 
   170da:	c7 85 78 f8 ff ff fc 	movl   $0xfffffffc,-0x788(%rbp)
   170e1:	ff ff ff 
   170e4:	c7 85 7c f8 ff ff 79 	movl   $0x98e57b79,-0x784(%rbp)
   170eb:	7b e5 98 
   170ee:	c7 85 80 f8 ff ff 4c 	movl   $0x2cdf274c,-0x780(%rbp)
   170f5:	27 df 2c 
   170f8:	c7 85 84 f8 ff ff fc 	movl   $0xfffffffc,-0x77c(%rbp)
   170ff:	ff ff ff 
   17102:	c7 85 88 f8 ff ff 35 	movl   $0x19bd9535,-0x778(%rbp)
   17109:	95 bd 19 
   1710c:	c7 85 8c f8 ff ff 79 	movl   $0x98e57b79,-0x774(%rbp)
   17113:	7b e5 98 
   17116:	c7 85 90 f8 ff ff ff 	movl   $0xffffffff,-0x770(%rbp)
   1711d:	ff ff ff 
   17120:	c7 85 94 f8 ff ff fb 	movl   $0xfffffffb,-0x76c(%rbp)
   17127:	ff ff ff 
   1712a:	c7 85 98 f8 ff ff ff 	movl   $0xffffffff,-0x768(%rbp)
   17131:	ff ff ff 
   17134:	c7 85 9c f8 ff ff 35 	movl   $0x19bd9535,-0x764(%rbp)
   1713b:	95 bd 19 
   1713e:	c7 85 a0 f8 ff ff 02 	movl   $0x2,-0x760(%rbp)
   17145:	00 00 00 
   17148:	c7 85 a4 f8 ff ff 20 	movl   $0xbfcc0c20,-0x75c(%rbp)
   1714f:	0c cc bf 
   17152:	c7 85 a8 f8 ff ff 89 	movl   $0x695ea989,-0x758(%rbp)
   17159:	a9 5e 69 
   1715c:	c7 85 ac f8 ff ff 02 	movl   $0x2,-0x754(%rbp)
   17163:	00 00 00 
   17166:	c7 85 b0 f8 ff ff 4c 	movl   $0x2cdf274c,-0x750(%rbp)
   1716d:	27 df 2c 
   17170:	c7 85 b4 f8 ff ff 35 	movl   $0x19bd9535,-0x74c(%rbp)
   17177:	95 bd 19 
   1717a:	c7 85 b8 f8 ff ff d7 	movl   $0x5a1b6bd7,-0x748(%rbp)
   17181:	6b 1b 5a 
   17184:	c7 85 bc f8 ff ff 20 	movl   $0xbfcc0c20,-0x744(%rbp)
   1718b:	0c cc bf 
   1718e:	c7 85 c0 f8 ff ff 35 	movl   $0x19bd9535,-0x740(%rbp)
   17195:	95 bd 19 
   17198:	c7 85 c4 f8 ff ff fb 	movl   $0xfffffffb,-0x73c(%rbp)
   1719f:	ff ff ff 
   171a2:	c7 85 c8 f8 ff ff d7 	movl   $0x5a1b6bd7,-0x738(%rbp)
   171a9:	6b 1b 5a 
   171ac:	c7 85 cc f8 ff ff d7 	movl   $0x5a1b6bd7,-0x734(%rbp)
   171b3:	6b 1b 5a 
   171b6:	c7 85 d0 f8 ff ff 4c 	movl   $0x2cdf274c,-0x730(%rbp)
   171bd:	27 df 2c 
   171c0:	c7 85 d4 f8 ff ff 4c 	movl   $0x2cdf274c,-0x72c(%rbp)
   171c7:	27 df 2c 
   171ca:	c7 85 d8 f8 ff ff 89 	movl   $0x695ea989,-0x728(%rbp)
   171d1:	a9 5e 69 
   171d4:	c7 85 dc f8 ff ff 79 	movl   $0x98e57b79,-0x724(%rbp)
   171db:	7b e5 98 
   171de:	c7 85 e0 f8 ff ff 02 	movl   $0x2,-0x720(%rbp)
   171e5:	00 00 00 
   171e8:	c7 85 e4 f8 ff ff 20 	movl   $0xd7bff020,-0x71c(%rbp)
   171ef:	f0 bf d7 
   171f2:	c7 85 e8 f8 ff ff ff 	movl   $0xffffffff,-0x718(%rbp)
   171f9:	ff ff ff 
   171fc:	c7 85 ec f8 ff ff 20 	movl   $0xbfcc0c20,-0x714(%rbp)
   17203:	0c cc bf 
   17206:	c7 85 f0 f8 ff ff ff 	movl   $0xffffffff,-0x710(%rbp)
   1720d:	ff ff ff 
   17210:	c7 85 f4 f8 ff ff 20 	movl   $0xbfcc0c20,-0x70c(%rbp)
   17217:	0c cc bf 
   1721a:	c7 85 f8 f8 ff ff 35 	movl   $0x19bd9535,-0x708(%rbp)
   17221:	95 bd 19 
   17224:	c7 85 fc f8 ff ff ff 	movl   $0xffffffff,-0x704(%rbp)
   1722b:	ff ff ff 
   1722e:	c7 85 00 f9 ff ff 4c 	movl   $0x2cdf274c,-0x700(%rbp)
   17235:	27 df 2c 
   17238:	c7 85 04 f9 ff ff 20 	movl   $0xbfcc0c20,-0x6fc(%rbp)
   1723f:	0c cc bf 
   17242:	c7 85 08 f9 ff ff fc 	movl   $0xfffffffc,-0x6f8(%rbp)
   17249:	ff ff ff 
   1724c:	c7 85 0c f9 ff ff 20 	movl   $0xbfcc0c20,-0x6f4(%rbp)
   17253:	0c cc bf 
   17256:	c7 85 10 f9 ff ff 20 	movl   $0xbfcc0c20,-0x6f0(%rbp)
   1725d:	0c cc bf 
   17260:	c7 85 14 f9 ff ff 20 	movl   $0xd7bff020,-0x6ec(%rbp)
   17267:	f0 bf d7 
   1726a:	c7 85 18 f9 ff ff d7 	movl   $0x5a1b6bd7,-0x6e8(%rbp)
   17271:	6b 1b 5a 
   17274:	c7 85 1c f9 ff ff 79 	movl   $0x98e57b79,-0x6e4(%rbp)
   1727b:	7b e5 98 
   1727e:	c7 85 20 f9 ff ff fc 	movl   $0xfffffffc,-0x6e0(%rbp)
   17285:	ff ff ff 
   17288:	c7 85 24 f9 ff ff 4c 	movl   $0x2cdf274c,-0x6dc(%rbp)
   1728f:	27 df 2c 
   17292:	c7 85 28 f9 ff ff 35 	movl   $0x19bd9535,-0x6d8(%rbp)
   17299:	95 bd 19 
   1729c:	c7 85 2c f9 ff ff d7 	movl   $0x5a1b6bd7,-0x6d4(%rbp)
   172a3:	6b 1b 5a 
   172a6:	c7 85 30 f9 ff ff 02 	movl   $0x2,-0x6d0(%rbp)
   172ad:	00 00 00 
   172b0:	c7 85 34 f9 ff ff fb 	movl   $0xfffffffb,-0x6cc(%rbp)
   172b7:	ff ff ff 
   172ba:	c7 85 38 f9 ff ff 12 	movl   $0xb8fc4012,-0x6c8(%rbp)
   172c1:	40 fc b8 
   172c4:	c7 85 3c f9 ff ff 20 	movl   $0xbfcc0c20,-0x6c4(%rbp)
   172cb:	0c cc bf 
   172ce:	c7 85 40 f9 ff ff 02 	movl   $0x2,-0x6c0(%rbp)
   172d5:	00 00 00 
   172d8:	c7 85 44 f9 ff ff 35 	movl   $0x19bd9535,-0x6bc(%rbp)
   172df:	95 bd 19 
   172e2:	c7 85 48 f9 ff ff 35 	movl   $0x19bd9535,-0x6b8(%rbp)
   172e9:	95 bd 19 
   172ec:	c7 85 4c f9 ff ff 02 	movl   $0x2,-0x6b4(%rbp)
   172f3:	00 00 00 
   172f6:	c7 85 50 f9 ff ff fc 	movl   $0xfffffffc,-0x6b0(%rbp)
   172fd:	ff ff ff 
   17300:	c7 85 54 f9 ff ff 20 	movl   $0xbfcc0c20,-0x6ac(%rbp)
   17307:	0c cc bf 
   1730a:	c7 85 58 f9 ff ff d7 	movl   $0x5a1b6bd7,-0x6a8(%rbp)
   17311:	6b 1b 5a 
   17314:	c7 85 5c f9 ff ff 35 	movl   $0x19bd9535,-0x6a4(%rbp)
   1731b:	95 bd 19 
   1731e:	c7 85 bc f5 ff ff 09 	movl   $0x9,-0xa44(%rbp)
   17325:	00 00 00 
   17328:	66 c7 85 b2 f5 ff ff 	movw   $0x4d8,-0xa4e(%rbp)
   1732f:	d8 04 
   17331:	c7 85 d8 f5 ff ff 08 	movl   $0x8,-0xa28(%rbp)
   17338:	00 00 00 
   1733b:	48 c7 85 38 f6 ff ff 	movq   $0x0,-0x9c8(%rbp)
   17342:	00 00 00 00 
   17346:	48 c7 85 40 f6 ff ff 	movq   $0x2,-0x9c0(%rbp)
   1734d:	02 00 00 00 
   17351:	66 c7 85 b4 f5 ff ff 	movw   $0xc489,-0xa4c(%rbp)
   17358:	89 c4 
   1735a:	48 c7 85 08 f6 ff ff 	movq   $0x0,-0x9f8(%rbp)
   17361:	00 00 00 00 
   17365:	48 8d 85 08 f6 ff ff 	lea    -0x9f8(%rbp),%rax
   1736c:	48 89 85 10 f6 ff ff 	mov    %rax,-0x9f0(%rbp)
   17373:	48 8d 85 10 f6 ff ff 	lea    -0x9f0(%rbp),%rax
   1737a:	48 89 85 48 f6 ff ff 	mov    %rax,-0x9b8(%rbp)
   17381:	48 b8 86 eb 47 ee 52 	movabs $0x19c95952ee47eb86,%rax
   17388:	59 c9 19 
   1738b:	48 89 85 50 f6 ff ff 	mov    %rax,-0x9b0(%rbp)
   17392:	c7 85 dc f5 ff ff f8 	movl   $0xfffffff8,-0xa24(%rbp)
   17399:	ff ff ff 
   1739c:	c7 85 c0 f5 ff ff 00 	movl   $0x0,-0xa40(%rbp)
   173a3:	00 00 00 
   173a6:	eb 1e                	jmp    173c6 <func_46+0x3b8>
   173a8:	8b 85 c0 f5 ff ff    	mov    -0xa40(%rbp),%eax
   173ae:	48 98                	cltq   
   173b0:	48 8d 95 bc f5 ff ff 	lea    -0xa44(%rbp),%rdx
   173b7:	48 89 94 c5 20 f7 ff 	mov    %rdx,-0x8e0(%rbp,%rax,8)
   173be:	ff 
   173bf:	83 85 c0 f5 ff ff 01 	addl   $0x1,-0xa40(%rbp)
   173c6:	83 bd c0 f5 ff ff 05 	cmpl   $0x5,-0xa40(%rbp)
   173cd:	7e d9                	jle    173a8 <func_46+0x39a>
   173cf:	c7 85 c0 f5 ff ff 00 	movl   $0x0,-0xa40(%rbp)
   173d6:	00 00 00 
   173d9:	eb 1e                	jmp    173f9 <func_46+0x3eb>
   173db:	8b 85 c0 f5 ff ff    	mov    -0xa40(%rbp),%eax
   173e1:	48 98                	cltq   
   173e3:	48 8d 15 ee 20 01 00 	lea    0x120ee(%rip),%rdx        # 294d8 <g_1319+0x58>
   173ea:	48 89 94 c5 c0 f6 ff 	mov    %rdx,-0x940(%rbp,%rax,8)
   173f1:	ff 
   173f2:	83 85 c0 f5 ff ff 01 	addl   $0x1,-0xa40(%rbp)
   173f9:	83 bd c0 f5 ff ff 01 	cmpl   $0x1,-0xa40(%rbp)
   17400:	7e d9                	jle    173db <func_46+0x3cd>
   17402:	c7 85 c0 f5 ff ff 00 	movl   $0x0,-0xa40(%rbp)
   17409:	00 00 00 
   1740c:	eb 1a                	jmp    17428 <func_46+0x41a>
   1740e:	8b 85 c0 f5 ff ff    	mov    -0xa40(%rbp),%eax
   17414:	48 98                	cltq   
   17416:	c7 84 85 b4 f6 ff ff 	movl   $0x1,-0x94c(%rbp,%rax,4)
   1741d:	01 00 00 00 
   17421:	83 85 c0 f5 ff ff 01 	addl   $0x1,-0xa40(%rbp)
   17428:	83 bd c0 f5 ff ff 02 	cmpl   $0x2,-0xa40(%rbp)
   1742f:	7e dd                	jle    1740e <func_46+0x400>
   17431:	c7 05 3d d0 00 00 00 	movl   $0x0,0xd03d(%rip)        # 24478 <g_471>
   17438:	00 00 00 
   1743b:	e9 95 03 00 00       	jmpq   177d5 <func_46+0x7c7>
   17440:	c6 85 b0 f5 ff ff 12 	movb   $0x12,-0xa50(%rbp)
   17447:	48 c7 85 18 f6 ff ff 	movq   $0x0,-0x9e8(%rbp)
   1744e:	00 00 00 00 
   17452:	48 8d 85 18 f6 ff ff 	lea    -0x9e8(%rbp),%rax
   17459:	48 89 85 e0 f7 ff ff 	mov    %rax,-0x820(%rbp)
   17460:	48 8d 85 18 f6 ff ff 	lea    -0x9e8(%rbp),%rax
   17467:	48 89 85 e8 f7 ff ff 	mov    %rax,-0x818(%rbp)
   1746e:	48 8d 85 18 f6 ff ff 	lea    -0x9e8(%rbp),%rax
   17475:	48 89 85 f0 f7 ff ff 	mov    %rax,-0x810(%rbp)
   1747c:	48 8d 85 18 f6 ff ff 	lea    -0x9e8(%rbp),%rax
   17483:	48 89 85 f8 f7 ff ff 	mov    %rax,-0x808(%rbp)
   1748a:	48 8d 85 18 f6 ff ff 	lea    -0x9e8(%rbp),%rax
   17491:	48 89 85 00 f8 ff ff 	mov    %rax,-0x800(%rbp)
   17498:	48 8d 85 18 f6 ff ff 	lea    -0x9e8(%rbp),%rax
   1749f:	48 89 85 08 f8 ff ff 	mov    %rax,-0x7f8(%rbp)
   174a6:	48 8d 85 18 f6 ff ff 	lea    -0x9e8(%rbp),%rax
   174ad:	48 89 85 10 f8 ff ff 	mov    %rax,-0x7f0(%rbp)
   174b4:	48 8d 85 18 f6 ff ff 	lea    -0x9e8(%rbp),%rax
   174bb:	48 89 85 18 f8 ff ff 	mov    %rax,-0x7e8(%rbp)
   174c2:	48 8d 85 18 f6 ff ff 	lea    -0x9e8(%rbp),%rax
   174c9:	48 89 85 20 f8 ff ff 	mov    %rax,-0x7e0(%rbp)
   174d0:	48 8d 85 18 f6 ff ff 	lea    -0x9e8(%rbp),%rax
   174d7:	48 89 85 28 f8 ff ff 	mov    %rax,-0x7d8(%rbp)
   174de:	48 8d 85 18 f6 ff ff 	lea    -0x9e8(%rbp),%rax
   174e5:	48 89 85 30 f8 ff ff 	mov    %rax,-0x7d0(%rbp)
   174ec:	48 8d 85 18 f6 ff ff 	lea    -0x9e8(%rbp),%rax
   174f3:	48 89 85 38 f8 ff ff 	mov    %rax,-0x7c8(%rbp)
   174fa:	48 8d 85 18 f6 ff ff 	lea    -0x9e8(%rbp),%rax
   17501:	48 89 85 40 f8 ff ff 	mov    %rax,-0x7c0(%rbp)
   17508:	48 8d 85 18 f6 ff ff 	lea    -0x9e8(%rbp),%rax
   1750f:	48 89 85 48 f8 ff ff 	mov    %rax,-0x7b8(%rbp)
   17516:	48 8d 85 18 f6 ff ff 	lea    -0x9e8(%rbp),%rax
   1751d:	48 89 85 50 f8 ff ff 	mov    %rax,-0x7b0(%rbp)
   17524:	48 8d 85 18 f6 ff ff 	lea    -0x9e8(%rbp),%rax
   1752b:	48 89 85 58 f8 ff ff 	mov    %rax,-0x7a8(%rbp)
   17532:	48 c7 85 58 f6 ff ff 	movq   $0x0,-0x9a8(%rbp)
   17539:	00 00 00 00 
   1753d:	48 c7 85 60 f6 ff ff 	movq   $0x6,-0x9a0(%rbp)
   17544:	06 00 00 00 
   17548:	48 8d 85 60 f9 ff ff 	lea    -0x6a0(%rbp),%rax
   1754f:	48 8d 15 6a f8 00 00 	lea    0xf86a(%rip),%rdx        # 26dc0 <g_5192+0x1380>
   17556:	b9 d2 00 00 00       	mov    $0xd2,%ecx
   1755b:	48 89 c7             	mov    %rax,%rdi
   1755e:	48 89 d6             	mov    %rdx,%rsi
   17561:	f3 48 a5             	rep movsq %ds:(%rsi),%es:(%rdi)
   17564:	48 c7 85 68 f6 ff ff 	movq   $0x0,-0x998(%rbp)
   1756b:	00 00 00 00 
   1756f:	48 b8 e3 05 af 9c 6a 	movabs $0xf8bf216a9caf05e3,%rax
   17576:	21 bf f8 
   17579:	48 89 85 70 f6 ff ff 	mov    %rax,-0x990(%rbp)
   17580:	48 8d 85 60 f9 ff ff 	lea    -0x6a0(%rbp),%rax
   17587:	48 05 88 02 00 00    	add    $0x288,%rax
   1758d:	48 89 85 20 f6 ff ff 	mov    %rax,-0x9e0(%rbp)
   17594:	48 8d 85 20 f6 ff ff 	lea    -0x9e0(%rbp),%rax
   1759b:	48 89 85 28 f6 ff ff 	mov    %rax,-0x9d8(%rbp)
   175a2:	48 8d 85 28 f6 ff ff 	lea    -0x9d8(%rbp),%rax
   175a9:	48 89 85 78 f6 ff ff 	mov    %rax,-0x988(%rbp)
   175b0:	48 b8 04 ea da 1c 74 	movabs $0xac4239741cdaea04,%rax
   175b7:	39 42 ac 
   175ba:	48 89 85 80 f6 ff ff 	mov    %rax,-0x980(%rbp)
   175c1:	c7 85 e0 f5 ff ff 1c 	movl   $0xfccd61c,-0xa20(%rbp)
   175c8:	d6 cc 0f 
   175cb:	c7 85 e4 f5 ff ff fb 	movl   $0xfffffffb,-0xa1c(%rbp)
   175d2:	ff ff ff 
   175d5:	48 8d 05 44 27 01 00 	lea    0x12744(%rip),%rax        # 29d20 <g_1944>
   175dc:	48 89 85 88 f6 ff ff 	mov    %rax,-0x978(%rbp)
   175e3:	48 c7 85 90 f6 ff ff 	movq   $0x0,-0x970(%rbp)
   175ea:	00 00 00 00 
   175ee:	48 c7 85 98 f6 ff ff 	movq   $0xffffffffffffffff,-0x968(%rbp)
   175f5:	ff ff ff ff 
   175f9:	48 c7 85 a0 f6 ff ff 	movq   $0xffffffffffffffff,-0x960(%rbp)
   17600:	ff ff ff ff 
   17604:	66 c7 85 b6 f5 ff ff 	movw   $0xf834,-0xa4a(%rbp)
   1760b:	34 f8 
   1760d:	c7 85 e8 f5 ff ff ff 	movl   $0xffffffff,-0xa18(%rbp)
   17614:	ff ff ff 
   17617:	c6 85 b1 f5 ff ff 95 	movb   $0x95,-0xa4f(%rbp)
   1761e:	c7 85 ec f5 ff ff 00 	movl   $0x0,-0xa14(%rbp)
   17625:	00 00 00 
   17628:	66 c7 85 b8 f5 ff ff 	movw   $0x14b8,-0xa48(%rbp)
   1762f:	b8 14 
   17631:	48 b8 1f cc e5 b4 af 	movabs $0xe1095aafb4e5cc1f,%rax
   17638:	5a 09 e1 
   1763b:	48 89 85 a8 f6 ff ff 	mov    %rax,-0x958(%rbp)
   17642:	66 c7 85 ba f5 ff ff 	movw   $0x1,-0xa46(%rbp)
   17649:	01 00 
   1764b:	c7 85 c4 f5 ff ff 00 	movl   $0x0,-0xa3c(%rbp)
   17652:	00 00 00 
   17655:	eb 1b                	jmp    17672 <func_46+0x664>
   17657:	8b 85 c4 f5 ff ff    	mov    -0xa3c(%rbp),%eax
   1765d:	48 98                	cltq   
   1765f:	48 c7 84 c5 50 f7 ff 	movq   $0x0,-0x8b0(%rbp,%rax,8)
   17666:	ff 00 00 00 00 
   1766b:	83 85 c4 f5 ff ff 01 	addl   $0x1,-0xa3c(%rbp)
   17672:	83 bd c4 f5 ff ff 06 	cmpl   $0x6,-0xa3c(%rbp)
   17679:	7e dc                	jle    17657 <func_46+0x649>
   1767b:	c7 85 c4 f5 ff ff 00 	movl   $0x0,-0xa3c(%rbp)
   17682:	00 00 00 
   17685:	eb 50                	jmp    176d7 <func_46+0x6c9>
   17687:	c7 85 c8 f5 ff ff 00 	movl   $0x0,-0xa38(%rbp)
   1768e:	00 00 00 
   17691:	eb 34                	jmp    176c7 <func_46+0x6b9>
   17693:	8b 85 c8 f5 ff ff    	mov    -0xa38(%rbp),%eax
   17699:	48 63 c8             	movslq %eax,%rcx
   1769c:	8b 85 c4 f5 ff ff    	mov    -0xa3c(%rbp),%eax
   176a2:	48 63 d0             	movslq %eax,%rdx
   176a5:	48 89 d0             	mov    %rdx,%rax
   176a8:	48 c1 e0 02          	shl    $0x2,%rax
   176ac:	48 01 d0             	add    %rdx,%rax
   176af:	48 01 c0             	add    %rax,%rax
   176b2:	48 01 c8             	add    %rcx,%rax
   176b5:	c7 84 85 f0 f6 ff ff 	movl   $0x1,-0x910(%rbp,%rax,4)
   176bc:	01 00 00 00 
   176c0:	83 85 c8 f5 ff ff 01 	addl   $0x1,-0xa38(%rbp)
   176c7:	83 bd c8 f5 ff ff 09 	cmpl   $0x9,-0xa38(%rbp)
   176ce:	7e c3                	jle    17693 <func_46+0x685>
   176d0:	83 85 c4 f5 ff ff 01 	addl   $0x1,-0xa3c(%rbp)
   176d7:	83 bd c4 f5 ff ff 00 	cmpl   $0x0,-0xa3c(%rbp)
   176de:	7e a7                	jle    17687 <func_46+0x679>
   176e0:	c7 85 c4 f5 ff ff 00 	movl   $0x0,-0xa3c(%rbp)
   176e7:	00 00 00 
   176ea:	eb 46                	jmp    17732 <func_46+0x724>
   176ec:	c7 85 c8 f5 ff ff 00 	movl   $0x0,-0xa38(%rbp)
   176f3:	00 00 00 
   176f6:	eb 2a                	jmp    17722 <func_46+0x714>
   176f8:	8b 85 c8 f5 ff ff    	mov    -0xa38(%rbp),%eax
   176fe:	48 98                	cltq   
   17700:	8b 95 c4 f5 ff ff    	mov    -0xa3c(%rbp),%edx
   17706:	48 63 d2             	movslq %edx,%rdx
   17709:	48 01 d2             	add    %rdx,%rdx
   1770c:	48 01 d0             	add    %rdx,%rax
   1770f:	48 c7 84 c5 90 f7 ff 	movq   $0x1,-0x870(%rbp,%rax,8)
   17716:	ff 01 00 00 00 
   1771b:	83 85 c8 f5 ff ff 01 	addl   $0x1,-0xa38(%rbp)
   17722:	83 bd c8 f5 ff ff 01 	cmpl   $0x1,-0xa38(%rbp)
   17729:	7e cd                	jle    176f8 <func_46+0x6ea>
   1772b:	83 85 c4 f5 ff ff 01 	addl   $0x1,-0xa3c(%rbp)
   17732:	83 bd c4 f5 ff ff 04 	cmpl   $0x4,-0xa3c(%rbp)
   17739:	7e b1                	jle    176ec <func_46+0x6de>
   1773b:	c7 85 c4 f5 ff ff 00 	movl   $0x0,-0xa3c(%rbp)
   17742:	00 00 00 
   17745:	eb 1e                	jmp    17765 <func_46+0x757>
   17747:	8b 85 c4 f5 ff ff    	mov    -0xa3c(%rbp),%eax
   1774d:	48 98                	cltq   
   1774f:	48 8d 15 9a 18 01 00 	lea    0x1189a(%rip),%rdx        # 28ff0 <g_936>
   17756:	48 89 94 c5 d0 f6 ff 	mov    %rdx,-0x930(%rbp,%rax,8)
   1775d:	ff 
   1775e:	83 85 c4 f5 ff ff 01 	addl   $0x1,-0xa3c(%rbp)
   17765:	83 bd c4 f5 ff ff 02 	cmpl   $0x2,-0xa3c(%rbp)
   1776c:	7e d9                	jle    17747 <func_46+0x739>
   1776e:	c7 85 c4 f5 ff ff 00 	movl   $0x0,-0xa3c(%rbp)
   17775:	00 00 00 
   17778:	eb 43                	jmp    177bd <func_46+0x7af>
   1777a:	c7 85 c8 f5 ff ff 00 	movl   $0x0,-0xa38(%rbp)
   17781:	00 00 00 
   17784:	eb 27                	jmp    177ad <func_46+0x79f>
   17786:	8b 85 c8 f5 ff ff    	mov    -0xa38(%rbp),%eax
   1778c:	48 63 d0             	movslq %eax,%rdx
   1778f:	8b 85 c4 f5 ff ff    	mov    -0xa3c(%rbp),%eax
   17795:	48 98                	cltq   
   17797:	48 01 ea             	add    %rbp,%rdx
   1779a:	48 01 d0             	add    %rdx,%rax
   1779d:	48 2d 4f 09 00 00    	sub    $0x94f,%rax
   177a3:	c6 00 c1             	movb   $0xc1,(%rax)
   177a6:	83 85 c8 f5 ff ff 01 	addl   $0x1,-0xa38(%rbp)
   177ad:	83 bd c8 f5 ff ff 00 	cmpl   $0x0,-0xa38(%rbp)
   177b4:	7e d0                	jle    17786 <func_46+0x778>
   177b6:	83 85 c4 f5 ff ff 01 	addl   $0x1,-0xa3c(%rbp)
   177bd:	83 bd c4 f5 ff ff 02 	cmpl   $0x2,-0xa3c(%rbp)
   177c4:	7e b4                	jle    1777a <func_46+0x76c>
   177c6:	8b 05 ac cc 00 00    	mov    0xccac(%rip),%eax        # 24478 <g_471>
   177cc:	83 c0 01             	add    $0x1,%eax
   177cf:	89 05 a3 cc 00 00    	mov    %eax,0xcca3(%rip)        # 24478 <g_471>
   177d5:	8b 05 9d cc 00 00    	mov    0xcc9d(%rip),%eax        # 24478 <g_471>
   177db:	83 f8 32             	cmp    $0x32,%eax
   177de:	0f 86 5c fc ff ff    	jbe    17440 <func_46+0x432>
   177e4:	48 8b 85 a0 f5 ff ff 	mov    -0xa60(%rbp),%rax
   177eb:	48 8b 75 f8          	mov    -0x8(%rbp),%rsi
   177ef:	64 48 33 34 25 28 00 	xor    %fs:0x28,%rsi
   177f6:	00 00 
   177f8:	74 05                	je     177ff <func_46+0x7f1>
   177fa:	e8 71 58 ff ff       	callq  d070 <__stack_chk_fail@plt>
   177ff:	c9                   	leaveq 
   17800:	c3                   	retq   

0000000000017801 <func_52>:
   17801:	f3 0f 1e fa          	endbr64 
   17805:	55                   	push   %rbp
   17806:	48 89 e5             	mov    %rsp,%rbp
   17809:	48 89 7d e8          	mov    %rdi,-0x18(%rbp)
   1780d:	48 89 75 e0          	mov    %rsi,-0x20(%rbp)
   17811:	48 b8 4f 96 d0 50 fd 	movabs $0x15a3b1fd50d0964f,%rax
   17818:	b1 a3 15 
   1781b:	48 89 45 f8          	mov    %rax,-0x8(%rbp)
   1781f:	c7 45 f0 e1 78 0c 60 	movl   $0x600c78e1,-0x10(%rbp)
   17826:	c7 45 f4 a9 35 82 38 	movl   $0x388235a9,-0xc(%rbp)
   1782d:	83 6d f4 01          	subl   $0x1,-0xc(%rbp)
   17831:	8b 45 f0             	mov    -0x10(%rbp),%eax
   17834:	5d                   	pop    %rbp
   17835:	c3                   	retq   

0000000000017836 <func_55>:
   17836:	f3 0f 1e fa          	endbr64 
   1783a:	55                   	push   %rbp
   1783b:	48 89 e5             	mov    %rsp,%rbp
   1783e:	41 54                	push   %r12
   17840:	53                   	push   %rbx
   17841:	48 81 ec 00 10 00 00 	sub    $0x1000,%rsp
   17848:	48 83 0c 24 00       	orq    $0x0,(%rsp)
   1784d:	48 81 ec f0 03 00 00 	sub    $0x3f0,%rsp
   17854:	48 89 bd 18 ec ff ff 	mov    %rdi,-0x13e8(%rbp)
   1785b:	48 89 b5 10 ec ff ff 	mov    %rsi,-0x13f0(%rbp)
   17862:	48 89 95 08 ec ff ff 	mov    %rdx,-0x13f8(%rbp)
   17869:	64 48 8b 04 25 28 00 	mov    %fs:0x28,%rax
   17870:	00 00 
   17872:	48 89 45 e8          	mov    %rax,-0x18(%rbp)
   17876:	31 c0                	xor    %eax,%eax
   17878:	48 c7 85 70 ed ff ff 	movq   $0x2,-0x1290(%rbp)
   1787f:	02 00 00 00 
   17883:	48 c7 85 78 ed ff ff 	movq   $0x2,-0x1288(%rbp)
   1788a:	02 00 00 00 
   1788e:	48 c7 85 80 ed ff ff 	movq   $0x2,-0x1280(%rbp)
   17895:	02 00 00 00 
   17899:	48 c7 85 88 ed ff ff 	movq   $0x2,-0x1278(%rbp)
   178a0:	02 00 00 00 
   178a4:	48 c7 85 90 ed ff ff 	movq   $0x2,-0x1270(%rbp)
   178ab:	02 00 00 00 
   178af:	48 c7 85 98 ed ff ff 	movq   $0x2,-0x1268(%rbp)
   178b6:	02 00 00 00 
   178ba:	48 c7 85 80 ec ff ff 	movq   $0x0,-0x1380(%rbp)
   178c1:	00 00 00 00 
   178c5:	48 8d 85 80 ec ff ff 	lea    -0x1380(%rbp),%rax
   178cc:	48 89 85 98 ec ff ff 	mov    %rax,-0x1368(%rbp)
   178d3:	c7 85 54 ec ff ff 08 	movl   $0xedb13c08,-0x13ac(%rbp)
   178da:	3c b1 ed 
   178dd:	c7 85 58 ec ff ff 01 	movl   $0x1,-0x13a8(%rbp)
   178e4:	00 00 00 
   178e7:	c7 85 5c ec ff ff e2 	movl   $0xcf49a8e2,-0x13a4(%rbp)
   178ee:	a8 49 cf 
   178f1:	c7 85 30 ec ff ff 4a 	movl   $0xeddb7f4a,-0x13d0(%rbp)
   178f8:	7f db ed 
   178fb:	c7 85 60 ec ff ff 00 	movl   $0x0,-0x13a0(%rbp)
   17902:	00 00 00 
   17905:	c7 85 34 ec ff ff f9 	movl   $0xfffffff9,-0x13cc(%rbp)
   1790c:	ff ff ff 
   1790f:	c7 85 64 ec ff ff f5 	movl   $0x110a40f5,-0x139c(%rbp)
   17916:	40 0a 11 
   17919:	c7 85 38 ec ff ff 05 	movl   $0x5,-0x13c8(%rbp)
   17920:	00 00 00 
   17923:	48 8d 85 f0 ef ff ff 	lea    -0x1010(%rbp),%rax
   1792a:	48 8d 15 4f 80 00 00 	lea    0x804f(%rip),%rdx        # 1f980 <g_5046+0x260>
   17931:	b9 78 00 00 00       	mov    $0x78,%ecx
   17936:	48 89 c7             	mov    %rax,%rdi
   17939:	48 89 d6             	mov    %rdx,%rsi
   1793c:	f3 48 a5             	rep movsq %ds:(%rsi),%es:(%rdi)
   1793f:	c6 85 29 ec ff ff 4c 	movb   $0x4c,-0x13d7(%rbp)
   17946:	48 8d 85 34 ec ff ff 	lea    -0x13cc(%rbp),%rax
   1794d:	48 89 85 a0 ec ff ff 	mov    %rax,-0x1360(%rbp)
   17954:	48 8d 05 1d cf 00 00 	lea    0xcf1d(%rip),%rax        # 24878 <g_1151>
   1795b:	48 89 85 a8 ec ff ff 	mov    %rax,-0x1358(%rbp)
   17962:	48 8d 05 0f cf 00 00 	lea    0xcf0f(%rip),%rax        # 24878 <g_1151>
   17969:	48 89 85 b0 ec ff ff 	mov    %rax,-0x1350(%rbp)
   17970:	48 8d 85 b0 f3 ff ff 	lea    -0xc50(%rbp),%rax
   17977:	48 8d 15 c2 83 00 00 	lea    0x83c2(%rip),%rdx        # 1fd40 <g_5046+0x620>
   1797e:	b9 b4 00 00 00       	mov    $0xb4,%ecx
   17983:	48 89 c7             	mov    %rax,%rdi
   17986:	48 89 d6             	mov    %rdx,%rsi
   17989:	f3 48 a5             	rep movsq %ds:(%rsi),%es:(%rdi)
   1798c:	48 c7 85 88 ec ff ff 	movq   $0x0,-0x1378(%rbp)
   17993:	00 00 00 00 
   17997:	48 8d 85 88 ec ff ff 	lea    -0x1378(%rbp),%rax
   1799e:	48 89 85 b8 ec ff ff 	mov    %rax,-0x1348(%rbp)
   179a5:	48 8d 05 24 c8 00 00 	lea    0xc824(%rip),%rax        # 241d0 <g_82>
   179ac:	48 89 85 c0 ec ff ff 	mov    %rax,-0x1340(%rbp)
   179b3:	66 c7 85 2c ec ff ff 	movw   $0xfffa,-0x13d4(%rbp)
   179ba:	fa ff 
   179bc:	48 8d 05 85 c9 00 00 	lea    0xc985(%rip),%rax        # 24348 <g_138>
   179c3:	48 89 85 90 ec ff ff 	mov    %rax,-0x1370(%rbp)
   179ca:	48 8d 85 90 ec ff ff 	lea    -0x1370(%rbp),%rax
   179d1:	48 89 85 c8 ec ff ff 	mov    %rax,-0x1338(%rbp)
   179d8:	48 c7 85 d0 ec ff ff 	movq   $0x0,-0x1330(%rbp)
   179df:	00 00 00 00 
   179e3:	c7 85 68 ec ff ff 76 	movl   $0x11121276,-0x1398(%rbp)
   179ea:	12 12 11 
   179ed:	48 b8 b5 90 53 65 8e 	movabs $0x5926a58e655390b5,%rax
   179f4:	a5 26 59 
   179f7:	48 89 85 d8 ec ff ff 	mov    %rax,-0x1328(%rbp)
   179fe:	48 8d 85 50 f9 ff ff 	lea    -0x6b0(%rbp),%rax
   17a05:	48 8d 15 54 fa 00 00 	lea    0xfa54(%rip),%rdx        # 27460 <g_5192+0x1a20>
   17a0c:	b9 d2 00 00 00       	mov    $0xd2,%ecx
   17a11:	48 89 c7             	mov    %rax,%rdi
   17a14:	48 89 d6             	mov    %rdx,%rsi
   17a17:	f3 48 a5             	rep movsq %ds:(%rsi),%es:(%rdi)
   17a1a:	c6 85 2a ec ff ff 9b 	movb   $0x9b,-0x13d6(%rbp)
   17a21:	c6 85 2b ec ff ff cd 	movb   $0xcd,-0x13d5(%rbp)
   17a28:	48 8d 85 b0 f3 ff ff 	lea    -0xc50(%rbp),%rax
   17a2f:	48 05 68 05 00 00    	add    $0x568,%rax
   17a35:	48 89 85 e0 ec ff ff 	mov    %rax,-0x1320(%rbp)
   17a3c:	c7 85 44 ec ff ff 00 	movl   $0x0,-0x13bc(%rbp)
   17a43:	00 00 00 
   17a46:	eb 4a                	jmp    17a92 <func_55+0x25c>
   17a48:	c7 85 48 ec ff ff 00 	movl   $0x0,-0x13b8(%rbp)
   17a4f:	00 00 00 
   17a52:	eb 2e                	jmp    17a82 <func_55+0x24c>
   17a54:	8b 85 48 ec ff ff    	mov    -0x13b8(%rbp),%eax
   17a5a:	48 98                	cltq   
   17a5c:	8b 95 44 ec ff ff    	mov    -0x13bc(%rbp),%edx
   17a62:	48 63 d2             	movslq %edx,%rdx
   17a65:	48 c1 e2 02          	shl    $0x2,%rdx
   17a69:	48 01 d0             	add    %rdx,%rax
   17a6c:	48 8d 15 7d cf 00 00 	lea    0xcf7d(%rip),%rdx        # 249f0 <g_2062>
   17a73:	48 89 94 c5 50 ed ff 	mov    %rdx,-0x12b0(%rbp,%rax,8)
   17a7a:	ff 
   17a7b:	83 85 48 ec ff ff 01 	addl   $0x1,-0x13b8(%rbp)
   17a82:	83 bd 48 ec ff ff 03 	cmpl   $0x3,-0x13b8(%rbp)
   17a89:	7e c9                	jle    17a54 <func_55+0x21e>
   17a8b:	83 85 44 ec ff ff 01 	addl   $0x1,-0x13bc(%rbp)
   17a92:	83 bd 44 ec ff ff 00 	cmpl   $0x0,-0x13bc(%rbp)
   17a99:	7e ad                	jle    17a48 <func_55+0x212>
   17a9b:	c7 85 44 ec ff ff 00 	movl   $0x0,-0x13bc(%rbp)
   17aa2:	00 00 00 
   17aa5:	eb 72                	jmp    17b19 <func_55+0x2e3>
   17aa7:	c7 85 48 ec ff ff 00 	movl   $0x0,-0x13b8(%rbp)
   17aae:	00 00 00 
   17ab1:	eb 56                	jmp    17b09 <func_55+0x2d3>
   17ab3:	c7 85 4c ec ff ff 00 	movl   $0x0,-0x13b4(%rbp)
   17aba:	00 00 00 
   17abd:	eb 3a                	jmp    17af9 <func_55+0x2c3>
   17abf:	8b 85 4c ec ff ff    	mov    -0x13b4(%rbp),%eax
   17ac5:	48 98                	cltq   
   17ac7:	8b 95 44 ec ff ff    	mov    -0x13bc(%rbp),%edx
   17acd:	48 63 ca             	movslq %edx,%rcx
   17ad0:	8b 95 48 ec ff ff    	mov    -0x13b8(%rbp),%edx
   17ad6:	48 63 d2             	movslq %edx,%rdx
   17ad9:	48 01 ca             	add    %rcx,%rdx
   17adc:	48 c1 e2 02          	shl    $0x2,%rdx
   17ae0:	48 01 d0             	add    %rdx,%rax
   17ae3:	48 8d 15 b6 ca 00 00 	lea    0xcab6(%rip),%rdx        # 245a0 <g_858>
   17aea:	48 89 94 c5 a0 ed ff 	mov    %rdx,-0x1260(%rbp,%rax,8)
   17af1:	ff 
   17af2:	83 85 4c ec ff ff 01 	addl   $0x1,-0x13b4(%rbp)
   17af9:	83 bd 4c ec ff ff 03 	cmpl   $0x3,-0x13b4(%rbp)
   17b00:	7e bd                	jle    17abf <func_55+0x289>
   17b02:	83 85 48 ec ff ff 01 	addl   $0x1,-0x13b8(%rbp)
   17b09:	83 bd 48 ec ff ff 00 	cmpl   $0x0,-0x13b8(%rbp)
   17b10:	7e a1                	jle    17ab3 <func_55+0x27d>
   17b12:	83 85 44 ec ff ff 01 	addl   $0x1,-0x13bc(%rbp)
   17b19:	83 bd 44 ec ff ff 01 	cmpl   $0x1,-0x13bc(%rbp)
   17b20:	7e 85                	jle    17aa7 <func_55+0x271>
   17b22:	66 c7 05 4f cd 00 00 	movw   $0x0,0xcd4f(%rip)        # 2487a <g_1224>
   17b29:	00 00 
   17b2b:	e9 39 03 00 00       	jmpq   17e69 <func_55+0x633>
   17b30:	48 c7 85 e8 ec ff ff 	movq   $0x0,-0x1318(%rbp)
   17b37:	00 00 00 00 
   17b3b:	48 8d 05 4e 19 01 00 	lea    0x1194e(%rip),%rax        # 29490 <g_1319+0x10>
   17b42:	48 89 85 f0 ec ff ff 	mov    %rax,-0x1310(%rbp)
   17b49:	c7 85 6c ec ff ff 01 	movl   $0x1,-0x1394(%rbp)
   17b50:	00 00 00 
   17b53:	c7 85 3c ec ff ff 58 	movl   $0xfcbb0258,-0x13c4(%rbp)
   17b5a:	02 bb fc 
   17b5d:	c7 85 70 ec ff ff a9 	movl   $0xd2435aa9,-0x1390(%rbp)
   17b64:	5a 43 d2 
   17b67:	66 c7 85 2e ec ff ff 	movw   $0x8767,-0x13d2(%rbp)
   17b6e:	67 87 
   17b70:	48 8d 05 59 c6 00 00 	lea    0xc659(%rip),%rax        # 241d0 <g_82>
   17b77:	48 89 85 f8 ec ff ff 	mov    %rax,-0x1308(%rbp)
   17b7e:	48 c7 85 00 ed ff ff 	movq   $0x0,-0x1300(%rbp)
   17b85:	00 00 00 00 
   17b89:	c7 85 40 ec ff ff 88 	movl   $0x70066988,-0x13c0(%rbp)
   17b90:	69 06 70 
   17b93:	c7 85 74 ec ff ff ce 	movl   $0xc414e1ce,-0x138c(%rbp)
   17b9a:	e1 14 c4 
   17b9d:	c7 85 30 ed ff ff fd 	movl   $0xfffffffd,-0x12d0(%rbp)
   17ba4:	ff ff ff 
   17ba7:	c7 85 34 ed ff ff f7 	movl   $0xfffffff7,-0x12cc(%rbp)
   17bae:	ff ff ff 
   17bb1:	c7 85 38 ed ff ff f7 	movl   $0xfffffff7,-0x12c8(%rbp)
   17bb8:	ff ff ff 
   17bbb:	c7 85 3c ed ff ff fd 	movl   $0xfffffffd,-0x12c4(%rbp)
   17bc2:	ff ff ff 
   17bc5:	c7 85 40 ed ff ff f7 	movl   $0xfffffff7,-0x12c0(%rbp)
   17bcc:	ff ff ff 
   17bcf:	c7 85 44 ed ff ff f7 	movl   $0xfffffff7,-0x12bc(%rbp)
   17bd6:	ff ff ff 
   17bd9:	48 8d 85 d0 ee ff ff 	lea    -0x1130(%rbp),%rax
   17be0:	48 8d 15 f9 86 00 00 	lea    0x86f9(%rip),%rdx        # 202e0 <g_5046+0xbc0>
   17be7:	b9 24 00 00 00       	mov    $0x24,%ecx
   17bec:	48 89 c7             	mov    %rax,%rdi
   17bef:	48 89 d6             	mov    %rdx,%rsi
   17bf2:	f3 48 a5             	rep movsq %ds:(%rsi),%es:(%rdi)
   17bf5:	c7 85 78 ec ff ff f8 	movl   $0x924981f8,-0x1388(%rbp)
   17bfc:	81 49 92 
   17bff:	48 8d 05 ce c4 00 00 	lea    0xc4ce(%rip),%rax        # 240d4 <g_40>
   17c06:	48 89 85 08 ed ff ff 	mov    %rax,-0x12f8(%rbp)
   17c0d:	c7 85 7c ec ff ff 00 	movl   $0x0,-0x1384(%rbp)
   17c14:	00 00 00 
   17c17:	48 8d 85 3c ec ff ff 	lea    -0x13c4(%rbp),%rax
   17c1e:	48 89 85 10 ed ff ff 	mov    %rax,-0x12f0(%rbp)
   17c25:	48 8d 05 54 c8 00 00 	lea    0xc854(%rip),%rax        # 24480 <g_527>
   17c2c:	48 89 85 18 ed ff ff 	mov    %rax,-0x12e8(%rbp)
   17c33:	48 8d 85 f0 ef ff ff 	lea    -0x1010(%rbp),%rax
   17c3a:	48 05 70 03 00 00    	add    $0x370,%rax
   17c40:	48 89 85 e0 ed ff ff 	mov    %rax,-0x1220(%rbp)
   17c47:	48 8d 05 92 cc 00 00 	lea    0xcc92(%rip),%rax        # 248e0 <g_1741>
   17c4e:	48 89 85 e8 ed ff ff 	mov    %rax,-0x1218(%rbp)
   17c55:	48 8d 05 24 c8 00 00 	lea    0xc824(%rip),%rax        # 24480 <g_527>
   17c5c:	48 89 85 f0 ed ff ff 	mov    %rax,-0x1210(%rbp)
   17c63:	48 8d 85 40 ec ff ff 	lea    -0x13c0(%rbp),%rax
   17c6a:	48 89 85 f8 ed ff ff 	mov    %rax,-0x1208(%rbp)
   17c71:	48 8d 85 40 ec ff ff 	lea    -0x13c0(%rbp),%rax
   17c78:	48 89 85 00 ee ff ff 	mov    %rax,-0x1200(%rbp)
   17c7f:	48 8d 85 34 ec ff ff 	lea    -0x13cc(%rbp),%rax
   17c86:	48 89 85 08 ee ff ff 	mov    %rax,-0x11f8(%rbp)
   17c8d:	48 8d 85 3c ec ff ff 	lea    -0x13c4(%rbp),%rax
   17c94:	48 89 85 10 ee ff ff 	mov    %rax,-0x11f0(%rbp)
   17c9b:	48 8d 85 34 ec ff ff 	lea    -0x13cc(%rbp),%rax
   17ca2:	48 89 85 18 ee ff ff 	mov    %rax,-0x11e8(%rbp)
   17ca9:	48 8d 05 18 c8 00 00 	lea    0xc818(%rip),%rax        # 244c8 <g_703>
   17cb0:	48 89 85 20 ee ff ff 	mov    %rax,-0x11e0(%rbp)
   17cb7:	48 8d 05 fe c4 00 00 	lea    0xc4fe(%rip),%rax        # 241bc <g_69+0xdc>
   17cbe:	48 89 85 28 ee ff ff 	mov    %rax,-0x11d8(%rbp)
   17cc5:	48 8d 85 38 ec ff ff 	lea    -0x13c8(%rbp),%rax
   17ccc:	48 89 85 30 ee ff ff 	mov    %rax,-0x11d0(%rbp)
   17cd3:	48 8d 85 30 ec ff ff 	lea    -0x13d0(%rbp),%rax
   17cda:	48 89 85 38 ee ff ff 	mov    %rax,-0x11c8(%rbp)
   17ce1:	48 8d 85 40 ec ff ff 	lea    -0x13c0(%rbp),%rax
   17ce8:	48 89 85 40 ee ff ff 	mov    %rax,-0x11c0(%rbp)
   17cef:	48 8d 85 30 ec ff ff 	lea    -0x13d0(%rbp),%rax
   17cf6:	48 89 85 48 ee ff ff 	mov    %rax,-0x11b8(%rbp)
   17cfd:	48 8d 85 38 ec ff ff 	lea    -0x13c8(%rbp),%rax
   17d04:	48 89 85 50 ee ff ff 	mov    %rax,-0x11b0(%rbp)
   17d0b:	48 8d 85 34 ec ff ff 	lea    -0x13cc(%rbp),%rax
   17d12:	48 89 85 58 ee ff ff 	mov    %rax,-0x11a8(%rbp)
   17d19:	48 c7 85 60 ee ff ff 	movq   $0x0,-0x11a0(%rbp)
   17d20:	00 00 00 00 
   17d24:	48 8d 85 3c ec ff ff 	lea    -0x13c4(%rbp),%rax
   17d2b:	48 89 85 68 ee ff ff 	mov    %rax,-0x1198(%rbp)
   17d32:	48 8d 85 34 ec ff ff 	lea    -0x13cc(%rbp),%rax
   17d39:	48 89 85 70 ee ff ff 	mov    %rax,-0x1190(%rbp)
   17d40:	48 8d 85 3c ec ff ff 	lea    -0x13c4(%rbp),%rax
   17d47:	48 89 85 78 ee ff ff 	mov    %rax,-0x1188(%rbp)
   17d4e:	48 8d 85 f0 ef ff ff 	lea    -0x1010(%rbp),%rax
   17d55:	48 05 70 03 00 00    	add    $0x370,%rax
   17d5b:	48 89 85 80 ee ff ff 	mov    %rax,-0x1180(%rbp)
   17d62:	48 8d 85 f0 ef ff ff 	lea    -0x1010(%rbp),%rax
   17d69:	48 05 70 03 00 00    	add    $0x370,%rax
   17d6f:	48 89 85 88 ee ff ff 	mov    %rax,-0x1178(%rbp)
   17d76:	48 8d 85 40 ec ff ff 	lea    -0x13c0(%rbp),%rax
   17d7d:	48 89 85 90 ee ff ff 	mov    %rax,-0x1170(%rbp)
   17d84:	48 8d 85 38 ec ff ff 	lea    -0x13c8(%rbp),%rax
   17d8b:	48 89 85 98 ee ff ff 	mov    %rax,-0x1168(%rbp)
   17d92:	48 8d 05 2f c3 00 00 	lea    0xc32f(%rip),%rax        # 240c8 <g_37>
   17d99:	48 89 85 a0 ee ff ff 	mov    %rax,-0x1160(%rbp)
   17da0:	48 c7 85 a8 ee ff ff 	movq   $0x0,-0x1158(%rbp)
   17da7:	00 00 00 00 
   17dab:	48 8d 85 34 ec ff ff 	lea    -0x13cc(%rbp),%rax
   17db2:	48 89 85 b0 ee ff ff 	mov    %rax,-0x1150(%rbp)
   17db9:	48 8d 85 34 ec ff ff 	lea    -0x13cc(%rbp),%rax
   17dc0:	48 89 85 b8 ee ff ff 	mov    %rax,-0x1148(%rbp)
   17dc7:	48 c7 85 c0 ee ff ff 	movq   $0x0,-0x1140(%rbp)
   17dce:	00 00 00 00 
   17dd2:	48 8d 85 3c ec ff ff 	lea    -0x13c4(%rbp),%rax
   17dd9:	48 89 85 c8 ee ff ff 	mov    %rax,-0x1138(%rbp)
   17de0:	c7 85 50 ec ff ff 00 	movl   $0x0,-0x13b0(%rbp)
   17de7:	00 00 00 
   17dea:	eb 1a                	jmp    17e06 <func_55+0x5d0>
   17dec:	8b 85 50 ec ff ff    	mov    -0x13b0(%rbp),%eax
   17df2:	48 98                	cltq   
   17df4:	c7 84 85 20 ed ff ff 	movl   $0x1,-0x12e0(%rbp,%rax,4)
   17dfb:	01 00 00 00 
   17dff:	83 85 50 ec ff ff 01 	addl   $0x1,-0x13b0(%rbp)
   17e06:	83 bd 50 ec ff ff 01 	cmpl   $0x1,-0x13b0(%rbp)
   17e0d:	7e dd                	jle    17dec <func_55+0x5b6>
   17e0f:	c7 85 50 ec ff ff 00 	movl   $0x0,-0x13b0(%rbp)
   17e16:	00 00 00 
   17e19:	eb 1a                	jmp    17e35 <func_55+0x5ff>
   17e1b:	8b 85 50 ec ff ff    	mov    -0x13b0(%rbp),%eax
   17e21:	48 98                	cltq   
   17e23:	c7 84 85 28 ed ff ff 	movl   $0x92d2c790,-0x12d8(%rbp,%rax,4)
   17e2a:	90 c7 d2 92 
   17e2e:	83 85 50 ec ff ff 01 	addl   $0x1,-0x13b0(%rbp)
   17e35:	83 bd 50 ec ff ff 01 	cmpl   $0x1,-0x13b0(%rbp)
   17e3c:	7e dd                	jle    17e1b <func_55+0x5e5>
   17e3e:	48 8b 85 80 ed ff ff 	mov    -0x1280(%rbp),%rax
   17e45:	48 85 c0             	test   %rax,%rax
   17e48:	75 32                	jne    17e7c <func_55+0x646>
   17e4a:	0f b7 05 29 ca 00 00 	movzwl 0xca29(%rip),%eax        # 2487a <g_1224>
   17e51:	48 0f bf c0          	movswq %ax,%rax
   17e55:	be 06 00 00 00       	mov    $0x6,%esi
   17e5a:	48 89 c7             	mov    %rax,%rdi
   17e5d:	e8 df 59 ff ff       	callq  d841 <safe_add_func_int64_t_s_s>
   17e62:	66 89 05 11 ca 00 00 	mov    %ax,0xca11(%rip)        # 2487a <g_1224>
   17e69:	0f b7 05 0a ca 00 00 	movzwl 0xca0a(%rip),%eax        # 2487a <g_1224>
   17e70:	66 83 f8 0c          	cmp    $0xc,%ax
   17e74:	0f 85 b6 fc ff ff    	jne    17b30 <func_55+0x2fa>
   17e7a:	eb 01                	jmp    17e7d <func_55+0x647>
   17e7c:	90                   	nop
   17e7d:	48 8b 05 dc 11 01 00 	mov    0x111dc(%rip),%rax        # 29060 <g_1011>
   17e84:	48 8b 00             	mov    (%rax),%rax
   17e87:	48 8d 95 34 ec ff ff 	lea    -0x13cc(%rbp),%rdx
   17e8e:	48 89 10             	mov    %rdx,(%rax)
   17e91:	48 8b 05 80 10 01 00 	mov    0x11080(%rip),%rax        # 28f18 <g_352>
   17e98:	48 8b 00             	mov    (%rax),%rax
   17e9b:	48 8b 00             	mov    (%rax),%rax
   17e9e:	0f b6 00             	movzbl (%rax),%eax
   17ea1:	0f be d8             	movsbl %al,%ebx
   17ea4:	48 8b 05 45 08 01 00 	mov    0x10845(%rip),%rax        # 286f0 <g_256>
   17eab:	48 8b 00             	mov    (%rax),%rax
   17eae:	48 8b 00             	mov    (%rax),%rax
   17eb1:	4c 8b 20             	mov    (%rax),%r12
   17eb4:	48 0f be 95 2b ec ff 	movsbq -0x13d5(%rbp),%rdx
   17ebb:	ff 
   17ebc:	48 8b 85 e0 ec ff ff 	mov    -0x1320(%rbp),%rax
   17ec3:	48 89 10             	mov    %rdx,(%rax)
   17ec6:	48 8b 85 a0 ec ff ff 	mov    -0x1360(%rbp),%rax
   17ecd:	8b 00                	mov    (%rax),%eax
   17ecf:	0f b7 c0             	movzwl %ax,%eax
   17ed2:	25 d0 0c 00 00       	and    $0xcd0,%eax
   17ed7:	be 0a 00 00 00       	mov    $0xa,%esi
   17edc:	89 c7                	mov    %eax,%edi
   17ede:	e8 97 5f ff ff       	callq  de7a <safe_rshift_func_uint16_t_u_u>
   17ee3:	0f b7 d0             	movzwl %ax,%edx
   17ee6:	48 8b 85 40 fe ff ff 	mov    -0x1c0(%rbp),%rax
   17eed:	48 85 c0             	test   %rax,%rax
   17ef0:	0f 94 c0             	sete   %al
   17ef3:	0f b6 c0             	movzbl %al,%eax
   17ef6:	89 d6                	mov    %edx,%esi
   17ef8:	89 c7                	mov    %eax,%edi
   17efa:	e8 00 5e ff ff       	callq  dcff <safe_add_func_uint16_t_u_u>
   17eff:	0f b7 15 e4 c2 00 00 	movzwl 0xc2e4(%rip),%edx        # 241ea <g_117+0xa>
   17f06:	21 d0                	and    %edx,%eax
   17f08:	66 89 05 db c2 00 00 	mov    %ax,0xc2db(%rip)        # 241ea <g_117+0xa>
   17f0f:	0f b7 05 d4 c2 00 00 	movzwl 0xc2d4(%rip),%eax        # 241ea <g_117+0xa>
   17f16:	0f b7 d0             	movzwl %ax,%edx
   17f19:	48 8b 85 08 ec ff ff 	mov    -0x13f8(%rbp),%rax
   17f20:	0f b7 c0             	movzwl %ax,%eax
   17f23:	89 d6                	mov    %edx,%esi
   17f25:	89 c7                	mov    %eax,%edi
   17f27:	e8 62 5e ff ff       	callq  dd8e <safe_div_func_uint16_t_u_u>
   17f2c:	0f b6 c0             	movzbl %al,%eax
   17f2f:	89 c6                	mov    %eax,%esi
   17f31:	bf fe 00 00 00       	mov    $0xfe,%edi
   17f36:	e8 58 5c ff ff       	callq  db93 <safe_mul_func_uint8_t_u_u>
   17f3b:	0f b6 c0             	movzbl %al,%eax
   17f3e:	49 39 c4             	cmp    %rax,%r12
   17f41:	0f 92 c0             	setb   %al
   17f44:	0f b6 c0             	movzbl %al,%eax
   17f47:	48 39 85 10 ec ff ff 	cmp    %rax,-0x13f0(%rbp)
   17f4e:	0f 9d c0             	setge  %al
   17f51:	0f b6 c0             	movzbl %al,%eax
   17f54:	89 de                	mov    %ebx,%esi
   17f56:	89 c7                	mov    %eax,%edi
   17f58:	e8 77 52 ff ff       	callq  d1d4 <safe_add_func_int8_t_s_s>
   17f5d:	48 8b 05 84 07 01 00 	mov    0x10784(%rip),%rax        # 286e8 <g_257>
   17f64:	48 8b 00             	mov    (%rax),%rax
   17f67:	48 8b 00             	mov    (%rax),%rax
   17f6a:	48 c7 c6 ff ff ff ff 	mov    $0xffffffffffffffff,%rsi
   17f71:	48 89 c7             	mov    %rax,%rdi
   17f74:	e8 b5 60 ff ff       	callq  e02e <safe_add_func_uint64_t_u_u>
   17f79:	48 8b 15 00 10 01 00 	mov    0x11000(%rip),%rdx        # 28f80 <g_701>
   17f80:	48 8b 12             	mov    (%rdx),%rdx
   17f83:	8b 12                	mov    (%rdx),%edx
   17f85:	21 c2                	and    %eax,%edx
   17f87:	48 8b 05 f2 0f 01 00 	mov    0x10ff2(%rip),%rax        # 28f80 <g_701>
   17f8e:	48 8b 00             	mov    (%rax),%rax
   17f91:	89 10                	mov    %edx,(%rax)
   17f93:	48 8b 05 0e 10 01 00 	mov    0x1100e(%rip),%rax        # 28fa8 <g_784>
   17f9a:	48 8b 00             	mov    (%rax),%rax
   17f9d:	48 8b 5d e8          	mov    -0x18(%rbp),%rbx
   17fa1:	64 48 33 1c 25 28 00 	xor    %fs:0x28,%rbx
   17fa8:	00 00 
   17faa:	74 05                	je     17fb1 <func_55+0x77b>
   17fac:	e8 bf 50 ff ff       	callq  d070 <__stack_chk_fail@plt>
   17fb1:	48 81 c4 f0 13 00 00 	add    $0x13f0,%rsp
   17fb8:	5b                   	pop    %rbx
   17fb9:	41 5c                	pop    %r12
   17fbb:	5d                   	pop    %rbp
   17fbc:	c3                   	retq   

0000000000017fbd <func_60>:
   17fbd:	f3 0f 1e fa          	endbr64 
   17fc1:	55                   	push   %rbp
   17fc2:	48 89 e5             	mov    %rsp,%rbp
   17fc5:	41 57                	push   %r15
   17fc7:	41 56                	push   %r14
   17fc9:	41 55                	push   %r13
   17fcb:	41 54                	push   %r12
   17fcd:	53                   	push   %rbx
   17fce:	48 81 ec 00 10 00 00 	sub    $0x1000,%rsp
   17fd5:	48 83 0c 24 00       	orq    $0x0,(%rsp)
   17fda:	48 81 ec 38 02 00 00 	sub    $0x238,%rsp
   17fe1:	48 89 bd b8 ed ff ff 	mov    %rdi,-0x1248(%rbp)
   17fe8:	48 89 b5 b0 ed ff ff 	mov    %rsi,-0x1250(%rbp)
   17fef:	89 95 ac ed ff ff    	mov    %edx,-0x1254(%rbp)
   17ff5:	89 c8                	mov    %ecx,%eax
   17ff7:	88 85 a8 ed ff ff    	mov    %al,-0x1258(%rbp)
   17ffd:	64 48 8b 04 25 28 00 	mov    %fs:0x28,%rax
   18004:	00 00 
   18006:	48 89 45 c8          	mov    %rax,-0x38(%rbp)
   1800a:	31 c0                	xor    %eax,%eax
   1800c:	48 8d 05 a9 c1 00 00 	lea    0xc1a9(%rip),%rax        # 241bc <g_69+0xdc>
   18013:	48 89 85 68 ee ff ff 	mov    %rax,-0x1198(%rbp)
   1801a:	48 8d 05 9b c1 00 00 	lea    0xc19b(%rip),%rax        # 241bc <g_69+0xdc>
   18021:	48 89 85 18 ee ff ff 	mov    %rax,-0x11e8(%rbp)
   18028:	48 8d 05 f9 c0 00 00 	lea    0xc0f9(%rip),%rax        # 24128 <g_69+0x48>
   1802f:	48 89 85 20 ee ff ff 	mov    %rax,-0x11e0(%rbp)
   18036:	48 b8 e9 9c 70 6a e3 	movabs $0x861eeee36a709ce9,%rax
   1803d:	ee 1e 86 
   18040:	48 89 85 70 ee ff ff 	mov    %rax,-0x1190(%rbp)
   18047:	66 c7 85 d0 ed ff ff 	movw   $0x7f52,-0x1230(%rbp)
   1804e:	52 7f 
   18050:	c6 85 c8 ed ff ff f6 	movb   $0xf6,-0x1238(%rbp)
   18057:	c7 85 f8 ed ff ff 22 	movl   $0x5d98822,-0x1208(%rbp)
   1805e:	88 d9 05 
   18061:	48 b8 b4 e8 18 07 2b 	movabs $0x2985aa2b0718e8b4,%rax
   18068:	aa 85 29 
   1806b:	48 89 85 78 ee ff ff 	mov    %rax,-0x1188(%rbp)
   18072:	66 c7 85 d2 ed ff ff 	movw   $0x4161,-0x122e(%rbp)
   18079:	61 41 
   1807b:	c7 85 fc ed ff ff fd 	movl   $0xfffffffd,-0x1204(%rbp)
   18082:	ff ff ff 
   18085:	48 8d 85 c8 ed ff ff 	lea    -0x1238(%rbp),%rax
   1808c:	48 89 85 28 ee ff ff 	mov    %rax,-0x11d8(%rbp)
   18093:	48 8d 85 28 ee ff ff 	lea    -0x11d8(%rbp),%rax
   1809a:	48 89 85 30 ee ff ff 	mov    %rax,-0x11d0(%rbp)
   180a1:	48 8d 05 68 0e 01 00 	lea    0x10e68(%rip),%rax        # 28f10 <g_353>
   180a8:	48 89 85 80 ee ff ff 	mov    %rax,-0x1180(%rbp)
   180af:	48 8d 05 8a c2 00 00 	lea    0xc28a(%rip),%rax        # 24340 <g_132>
   180b6:	48 89 85 88 ee ff ff 	mov    %rax,-0x1178(%rbp)
   180bd:	66 c7 85 20 f1 ff ff 	movw   $0x1efb,-0xee0(%rbp)
   180c4:	fb 1e 
   180c6:	66 c7 85 22 f1 ff ff 	movw   $0x595e,-0xede(%rbp)
   180cd:	5e 59 
   180cf:	66 c7 85 24 f1 ff ff 	movw   $0x7fd0,-0xedc(%rbp)
   180d6:	d0 7f 
   180d8:	66 c7 85 26 f1 ff ff 	movw   $0x2cb0,-0xeda(%rbp)
   180df:	b0 2c 
   180e1:	66 c7 85 28 f1 ff ff 	movw   $0x7a3c,-0xed8(%rbp)
   180e8:	3c 7a 
   180ea:	66 c7 85 2a f1 ff ff 	movw   $0x1efb,-0xed6(%rbp)
   180f1:	fb 1e 
   180f3:	66 c7 85 2c f1 ff ff 	movw   $0xa53d,-0xed4(%rbp)
   180fa:	3d a5 
   180fc:	66 c7 85 2e f1 ff ff 	movw   $0xddfb,-0xed2(%rbp)
   18103:	fb dd 
   18105:	66 c7 85 30 f1 ff ff 	movw   $0xffff,-0xed0(%rbp)
   1810c:	ff ff 
   1810e:	66 c7 85 32 f1 ff ff 	movw   $0x0,-0xece(%rbp)
   18115:	00 00 
   18117:	66 c7 85 34 f1 ff ff 	movw   $0x48b5,-0xecc(%rbp)
   1811e:	b5 48 
   18120:	66 c7 85 36 f1 ff ff 	movw   $0xb35d,-0xeca(%rbp)
   18127:	5d b3 
   18129:	66 c7 85 38 f1 ff ff 	movw   $0xe847,-0xec8(%rbp)
   18130:	47 e8 
   18132:	66 c7 85 3a f1 ff ff 	movw   $0xddfb,-0xec6(%rbp)
   18139:	fb dd 
   1813b:	66 c7 85 3c f1 ff ff 	movw   $0x1,-0xec4(%rbp)
   18142:	01 00 
   18144:	66 c7 85 3e f1 ff ff 	movw   $0x938a,-0xec2(%rbp)
   1814b:	8a 93 
   1814d:	66 c7 85 40 f1 ff ff 	movw   $0x7a3c,-0xec0(%rbp)
   18154:	3c 7a 
   18156:	66 c7 85 42 f1 ff ff 	movw   $0x1,-0xebe(%rbp)
   1815d:	01 00 
   1815f:	66 c7 85 44 f1 ff ff 	movw   $0xf56,-0xebc(%rbp)
   18166:	56 0f 
   18168:	66 c7 85 46 f1 ff ff 	movw   $0x595e,-0xeba(%rbp)
   1816f:	5e 59 
   18171:	66 c7 85 48 f1 ff ff 	movw   $0x938a,-0xeb8(%rbp)
   18178:	8a 93 
   1817a:	66 c7 85 4a f1 ff ff 	movw   $0xfffe,-0xeb6(%rbp)
   18181:	fe ff 
   18183:	66 c7 85 4c f1 ff ff 	movw   $0xfffe,-0xeb4(%rbp)
   1818a:	fe ff 
   1818c:	66 c7 85 4e f1 ff ff 	movw   $0x938a,-0xeb2(%rbp)
   18193:	8a 93 
   18195:	66 c7 85 50 f1 ff ff 	movw   $0x48b5,-0xeb0(%rbp)
   1819c:	b5 48 
   1819e:	66 c7 85 52 f1 ff ff 	movw   $0x48b5,-0xeae(%rbp)
   181a5:	b5 48 
   181a7:	66 c7 85 54 f1 ff ff 	movw   $0x1efb,-0xeac(%rbp)
   181ae:	fb 1e 
   181b0:	66 c7 85 56 f1 ff ff 	movw   $0x7fd0,-0xeaa(%rbp)
   181b7:	d0 7f 
   181b9:	66 c7 85 58 f1 ff ff 	movw   $0x0,-0xea8(%rbp)
   181c0:	00 00 
   181c2:	66 c7 85 5a f1 ff ff 	movw   $0x9,-0xea6(%rbp)
   181c9:	09 00 
   181cb:	66 c7 85 5c f1 ff ff 	movw   $0x1efb,-0xea4(%rbp)
   181d2:	fb 1e 
   181d4:	66 c7 85 5e f1 ff ff 	movw   $0x8345,-0xea2(%rbp)
   181db:	45 83 
   181dd:	66 c7 85 60 f1 ff ff 	movw   $0xfcd0,-0xea0(%rbp)
   181e4:	d0 fc 
   181e6:	66 c7 85 62 f1 ff ff 	movw   $0xffff,-0xe9e(%rbp)
   181ed:	ff ff 
   181ef:	66 c7 85 64 f1 ff ff 	movw   $0x0,-0xe9c(%rbp)
   181f6:	00 00 
   181f8:	66 c7 85 66 f1 ff ff 	movw   $0x1efb,-0xe9a(%rbp)
   181ff:	fb 1e 
   18201:	66 c7 85 68 f1 ff ff 	movw   $0xb35d,-0xe98(%rbp)
   18208:	5d b3 
   1820a:	66 c7 85 6a f1 ff ff 	movw   $0x1efb,-0xe96(%rbp)
   18211:	fb 1e 
   18213:	66 c7 85 6c f1 ff ff 	movw   $0xfcd0,-0xe94(%rbp)
   1821a:	d0 fc 
   1821c:	66 c7 85 6e f1 ff ff 	movw   $0x1,-0xe92(%rbp)
   18223:	01 00 
   18225:	66 c7 85 70 f1 ff ff 	movw   $0x48b5,-0xe90(%rbp)
   1822c:	b5 48 
   1822e:	66 c7 85 72 f1 ff ff 	movw   $0x9,-0xe8e(%rbp)
   18235:	09 00 
   18237:	66 c7 85 74 f1 ff ff 	movw   $0x1,-0xe8c(%rbp)
   1823e:	01 00 
   18240:	66 c7 85 76 f1 ff ff 	movw   $0x1,-0xe8a(%rbp)
   18247:	01 00 
   18249:	66 c7 85 78 f1 ff ff 	movw   $0x1efb,-0xe88(%rbp)
   18250:	fb 1e 
   18252:	66 c7 85 7a f1 ff ff 	movw   $0x938a,-0xe86(%rbp)
   18259:	8a 93 
   1825b:	66 c7 85 7c f1 ff ff 	movw   $0x2a89,-0xe84(%rbp)
   18262:	89 2a 
   18264:	66 c7 85 7e f1 ff ff 	movw   $0x938a,-0xe82(%rbp)
   1826b:	8a 93 
   1826d:	66 c7 85 80 f1 ff ff 	movw   $0x938a,-0xe80(%rbp)
   18274:	8a 93 
   18276:	66 c7 85 82 f1 ff ff 	movw   $0x2a89,-0xe7e(%rbp)
   1827d:	89 2a 
   1827f:	66 c7 85 84 f1 ff ff 	movw   $0x938a,-0xe7c(%rbp)
   18286:	8a 93 
   18288:	66 c7 85 86 f1 ff ff 	movw   $0x1efb,-0xe7a(%rbp)
   1828f:	fb 1e 
   18291:	66 c7 85 88 f1 ff ff 	movw   $0x1,-0xe78(%rbp)
   18298:	01 00 
   1829a:	66 c7 85 8a f1 ff ff 	movw   $0x1,-0xe76(%rbp)
   182a1:	01 00 
   182a3:	66 c7 85 8c f1 ff ff 	movw   $0x9,-0xe74(%rbp)
   182aa:	09 00 
   182ac:	66 c7 85 8e f1 ff ff 	movw   $0x48b5,-0xe72(%rbp)
   182b3:	b5 48 
   182b5:	66 c7 85 90 f1 ff ff 	movw   $0x1,-0xe70(%rbp)
   182bc:	01 00 
   182be:	66 c7 85 92 f1 ff ff 	movw   $0xfcd0,-0xe6e(%rbp)
   182c5:	d0 fc 
   182c7:	66 c7 85 94 f1 ff ff 	movw   $0x1efb,-0xe6c(%rbp)
   182ce:	fb 1e 
   182d0:	66 c7 85 96 f1 ff ff 	movw   $0xb35d,-0xe6a(%rbp)
   182d7:	5d b3 
   182d9:	66 c7 85 98 f1 ff ff 	movw   $0x1efb,-0xe68(%rbp)
   182e0:	fb 1e 
   182e2:	66 c7 85 9a f1 ff ff 	movw   $0x0,-0xe66(%rbp)
   182e9:	00 00 
   182eb:	66 c7 85 9c f1 ff ff 	movw   $0xffff,-0xe64(%rbp)
   182f2:	ff ff 
   182f4:	66 c7 85 9e f1 ff ff 	movw   $0xfcd0,-0xe62(%rbp)
   182fb:	d0 fc 
   182fd:	66 c7 85 a0 f1 ff ff 	movw   $0xa53d,-0xe60(%rbp)
   18304:	3d a5 
   18306:	66 c7 85 a2 f1 ff ff 	movw   $0xe847,-0xe5e(%rbp)
   1830d:	47 e8 
   1830f:	66 c7 85 a4 f1 ff ff 	movw   $0xfffe,-0xe5c(%rbp)
   18316:	fe ff 
   18318:	66 c7 85 a6 f1 ff ff 	movw   $0x1,-0xe5a(%rbp)
   1831f:	01 00 
   18321:	66 c7 85 a8 f1 ff ff 	movw   $0x8345,-0xe58(%rbp)
   18328:	45 83 
   1832a:	66 c7 85 aa f1 ff ff 	movw   $0xe847,-0xe56(%rbp)
   18331:	47 e8 
   18333:	66 c7 85 ac f1 ff ff 	movw   $0x1efb,-0xe54(%rbp)
   1833a:	fb 1e 
   1833c:	66 c7 85 ae f1 ff ff 	movw   $0x1efb,-0xe52(%rbp)
   18343:	fb 1e 
   18345:	66 c7 85 b0 f1 ff ff 	movw   $0xffff,-0xe50(%rbp)
   1834c:	ff ff 
   1834e:	66 c7 85 b2 f1 ff ff 	movw   $0x938a,-0xe4e(%rbp)
   18355:	8a 93 
   18357:	66 c7 85 b4 f1 ff ff 	movw   $0x938a,-0xe4c(%rbp)
   1835e:	8a 93 
   18360:	66 c7 85 b6 f1 ff ff 	movw   $0xffff,-0xe4a(%rbp)
   18367:	ff ff 
   18369:	66 c7 85 b8 f1 ff ff 	movw   $0xef8,-0xe48(%rbp)
   18370:	f8 0e 
   18372:	66 c7 85 ba f1 ff ff 	movw   $0x2cb0,-0xe46(%rbp)
   18379:	b0 2c 
   1837b:	66 c7 85 bc f1 ff ff 	movw   $0xfcd0,-0xe44(%rbp)
   18382:	d0 fc 
   18384:	66 c7 85 be f1 ff ff 	movw   $0x9,-0xe42(%rbp)
   1838b:	09 00 
   1838d:	66 c7 85 c0 f1 ff ff 	movw   $0xffff,-0xe40(%rbp)
   18394:	ff ff 
   18396:	66 c7 85 c2 f1 ff ff 	movw   $0xf56,-0xe3e(%rbp)
   1839d:	56 0f 
   1839f:	66 c7 85 c4 f1 ff ff 	movw   $0xf711,-0xe3c(%rbp)
   183a6:	11 f7 
   183a8:	66 c7 85 c6 f1 ff ff 	movw   $0x7fd0,-0xe3a(%rbp)
   183af:	d0 7f 
   183b1:	66 c7 85 c8 f1 ff ff 	movw   $0xddfb,-0xe38(%rbp)
   183b8:	fb dd 
   183ba:	66 c7 85 ca f1 ff ff 	movw   $0x1efb,-0xe36(%rbp)
   183c1:	fb 1e 
   183c3:	66 c7 85 cc f1 ff ff 	movw   $0x1,-0xe34(%rbp)
   183ca:	01 00 
   183cc:	66 c7 85 ce f1 ff ff 	movw   $0x595e,-0xe32(%rbp)
   183d3:	5e 59 
   183d5:	66 c7 85 d0 f1 ff ff 	movw   $0xf711,-0xe30(%rbp)
   183dc:	11 f7 
   183de:	66 c7 85 d2 f1 ff ff 	movw   $0x0,-0xe2e(%rbp)
   183e5:	00 00 
   183e7:	66 c7 85 d4 f1 ff ff 	movw   $0xe847,-0xe2c(%rbp)
   183ee:	47 e8 
   183f0:	66 c7 85 d6 f1 ff ff 	movw   $0x9,-0xe2a(%rbp)
   183f7:	09 00 
   183f9:	66 c7 85 d8 f1 ff ff 	movw   $0x0,-0xe28(%rbp)
   18400:	00 00 
   18402:	66 c7 85 da f1 ff ff 	movw   $0x8345,-0xe26(%rbp)
   18409:	45 83 
   1840b:	66 c7 85 dc f1 ff ff 	movw   $0xef8,-0xe24(%rbp)
   18412:	f8 0e 
   18414:	66 c7 85 de f1 ff ff 	movw   $0xe847,-0xe22(%rbp)
   1841b:	47 e8 
   1841d:	66 c7 85 e0 f1 ff ff 	movw   $0x1efb,-0xe20(%rbp)
   18424:	fb 1e 
   18426:	66 c7 85 e2 f1 ff ff 	movw   $0x938a,-0xe1e(%rbp)
   1842d:	8a 93 
   1842f:	66 c7 85 e4 f1 ff ff 	movw   $0x2a89,-0xe1c(%rbp)
   18436:	89 2a 
   18438:	66 c7 85 e6 f1 ff ff 	movw   $0x938a,-0xe1a(%rbp)
   1843f:	8a 93 
   18441:	66 c7 85 e8 f1 ff ff 	movw   $0x1efb,-0xe18(%rbp)
   18448:	fb 1e 
   1844a:	66 c7 85 ea f1 ff ff 	movw   $0x1,-0xe16(%rbp)
   18451:	01 00 
   18453:	66 c7 85 ec f1 ff ff 	movw   $0x2cb0,-0xe14(%rbp)
   1845a:	b0 2c 
   1845c:	66 c7 85 ee f1 ff ff 	movw   $0x1,-0xe12(%rbp)
   18463:	01 00 
   18465:	66 c7 85 f0 f1 ff ff 	movw   $0xf711,-0xe10(%rbp)
   1846c:	11 f7 
   1846e:	66 c7 85 f2 f1 ff ff 	movw   $0xffff,-0xe0e(%rbp)
   18475:	ff ff 
   18477:	66 c7 85 f4 f1 ff ff 	movw   $0xa53d,-0xe0c(%rbp)
   1847e:	3d a5 
   18480:	66 c7 85 f6 f1 ff ff 	movw   $0x8838,-0xe0a(%rbp)
   18487:	38 88 
   18489:	48 b8 a9 00 44 4c 36 	movabs $0xea2b00364c4400a9,%rax
   18490:	00 2b ea 
   18493:	48 89 85 90 ee ff ff 	mov    %rax,-0x1170(%rbp)
   1849a:	c6 85 c9 ed ff ff ff 	movb   $0xff,-0x1237(%rbp)
   184a1:	48 b8 d8 44 36 9a 81 	movabs $0x9a8019819a3644d8,%rax
   184a8:	19 80 9a 
   184ab:	48 89 85 38 ee ff ff 	mov    %rax,-0x11c8(%rbp)
   184b2:	48 8d 05 9f bf 00 00 	lea    0xbf9f(%rip),%rax        # 24458 <g_441>
   184b9:	48 89 85 98 ee ff ff 	mov    %rax,-0x1168(%rbp)
   184c0:	c6 85 ca ed ff ff 3e 	movb   $0x3e,-0x1236(%rbp)
   184c7:	48 8d 85 20 ee ff ff 	lea    -0x11e0(%rbp),%rax
   184ce:	48 89 85 e0 f2 ff ff 	mov    %rax,-0xd20(%rbp)
   184d5:	48 8d 85 20 ee ff ff 	lea    -0x11e0(%rbp),%rax
   184dc:	48 89 85 e8 f2 ff ff 	mov    %rax,-0xd18(%rbp)
   184e3:	48 8d 85 20 ee ff ff 	lea    -0x11e0(%rbp),%rax
   184ea:	48 89 85 f0 f2 ff ff 	mov    %rax,-0xd10(%rbp)
   184f1:	48 8d 85 20 ee ff ff 	lea    -0x11e0(%rbp),%rax
   184f8:	48 89 85 f8 f2 ff ff 	mov    %rax,-0xd08(%rbp)
   184ff:	48 8d 85 50 ef ff ff 	lea    -0x10b0(%rbp),%rax
   18506:	48 89 85 00 f3 ff ff 	mov    %rax,-0xd00(%rbp)
   1850d:	48 8d 85 20 ee ff ff 	lea    -0x11e0(%rbp),%rax
   18514:	48 89 85 08 f3 ff ff 	mov    %rax,-0xcf8(%rbp)
   1851b:	48 8d 85 50 ef ff ff 	lea    -0x10b0(%rbp),%rax
   18522:	48 89 85 10 f3 ff ff 	mov    %rax,-0xcf0(%rbp)
   18529:	48 8d 85 50 ef ff ff 	lea    -0x10b0(%rbp),%rax
   18530:	48 89 85 18 f3 ff ff 	mov    %rax,-0xce8(%rbp)
   18537:	48 8d 85 50 ef ff ff 	lea    -0x10b0(%rbp),%rax
   1853e:	48 89 85 20 f3 ff ff 	mov    %rax,-0xce0(%rbp)
   18545:	48 8d 85 50 ef ff ff 	lea    -0x10b0(%rbp),%rax
   1854c:	48 89 85 28 f3 ff ff 	mov    %rax,-0xcd8(%rbp)
   18553:	48 8d 85 20 ee ff ff 	lea    -0x11e0(%rbp),%rax
   1855a:	48 89 85 30 f3 ff ff 	mov    %rax,-0xcd0(%rbp)
   18561:	48 8d 85 20 ee ff ff 	lea    -0x11e0(%rbp),%rax
   18568:	48 89 85 38 f3 ff ff 	mov    %rax,-0xcc8(%rbp)
   1856f:	48 8d 85 20 ee ff ff 	lea    -0x11e0(%rbp),%rax
   18576:	48 89 85 40 f3 ff ff 	mov    %rax,-0xcc0(%rbp)
   1857d:	48 8d 85 20 ee ff ff 	lea    -0x11e0(%rbp),%rax
   18584:	48 89 85 48 f3 ff ff 	mov    %rax,-0xcb8(%rbp)
   1858b:	48 8d 85 20 ee ff ff 	lea    -0x11e0(%rbp),%rax
   18592:	48 89 85 50 f3 ff ff 	mov    %rax,-0xcb0(%rbp)
   18599:	48 8d 85 50 ef ff ff 	lea    -0x10b0(%rbp),%rax
   185a0:	48 89 85 58 f3 ff ff 	mov    %rax,-0xca8(%rbp)
   185a7:	48 8d 85 20 ee ff ff 	lea    -0x11e0(%rbp),%rax
   185ae:	48 89 85 60 f3 ff ff 	mov    %rax,-0xca0(%rbp)
   185b5:	48 8d 85 20 ee ff ff 	lea    -0x11e0(%rbp),%rax
   185bc:	48 89 85 68 f3 ff ff 	mov    %rax,-0xc98(%rbp)
   185c3:	48 8d 85 20 ee ff ff 	lea    -0x11e0(%rbp),%rax
   185ca:	48 89 85 70 f3 ff ff 	mov    %rax,-0xc90(%rbp)
   185d1:	48 8d 85 50 ef ff ff 	lea    -0x10b0(%rbp),%rax
   185d8:	48 89 85 78 f3 ff ff 	mov    %rax,-0xc88(%rbp)
   185df:	48 8d 85 20 ee ff ff 	lea    -0x11e0(%rbp),%rax
   185e6:	48 89 85 80 f3 ff ff 	mov    %rax,-0xc80(%rbp)
   185ed:	48 8d 85 50 ef ff ff 	lea    -0x10b0(%rbp),%rax
   185f4:	48 89 85 88 f3 ff ff 	mov    %rax,-0xc78(%rbp)
   185fb:	48 8d 85 50 ef ff ff 	lea    -0x10b0(%rbp),%rax
   18602:	48 89 85 90 f3 ff ff 	mov    %rax,-0xc70(%rbp)
   18609:	48 8d 85 50 ef ff ff 	lea    -0x10b0(%rbp),%rax
   18610:	48 89 85 98 f3 ff ff 	mov    %rax,-0xc68(%rbp)
   18617:	48 8d 85 50 ef ff ff 	lea    -0x10b0(%rbp),%rax
   1861e:	48 89 85 a0 f3 ff ff 	mov    %rax,-0xc60(%rbp)
   18625:	48 8d 85 20 ee ff ff 	lea    -0x11e0(%rbp),%rax
   1862c:	48 89 85 a8 f3 ff ff 	mov    %rax,-0xc58(%rbp)
   18633:	48 8d 85 50 ef ff ff 	lea    -0x10b0(%rbp),%rax
   1863a:	48 89 85 b0 f3 ff ff 	mov    %rax,-0xc50(%rbp)
   18641:	48 c7 85 b8 f3 ff ff 	movq   $0x0,-0xc48(%rbp)
   18648:	00 00 00 00 
   1864c:	48 8d 85 20 ee ff ff 	lea    -0x11e0(%rbp),%rax
   18653:	48 89 85 c0 f3 ff ff 	mov    %rax,-0xc40(%rbp)
   1865a:	48 8d 85 18 ee ff ff 	lea    -0x11e8(%rbp),%rax
   18661:	48 89 85 c8 f3 ff ff 	mov    %rax,-0xc38(%rbp)
   18668:	48 8d 85 20 ee ff ff 	lea    -0x11e0(%rbp),%rax
   1866f:	48 89 85 d0 f3 ff ff 	mov    %rax,-0xc30(%rbp)
   18676:	48 8d 85 18 ee ff ff 	lea    -0x11e8(%rbp),%rax
   1867d:	48 89 85 d8 f3 ff ff 	mov    %rax,-0xc28(%rbp)
   18684:	48 8d 85 20 ee ff ff 	lea    -0x11e0(%rbp),%rax
   1868b:	48 89 85 e0 f3 ff ff 	mov    %rax,-0xc20(%rbp)
   18692:	48 c7 85 e8 f3 ff ff 	movq   $0x0,-0xc18(%rbp)
   18699:	00 00 00 00 
   1869d:	48 8d 85 20 ee ff ff 	lea    -0x11e0(%rbp),%rax
   186a4:	48 89 85 f0 f3 ff ff 	mov    %rax,-0xc10(%rbp)
   186ab:	48 8d 85 18 ee ff ff 	lea    -0x11e8(%rbp),%rax
   186b2:	48 89 85 f8 f3 ff ff 	mov    %rax,-0xc08(%rbp)
   186b9:	48 8d 85 20 ee ff ff 	lea    -0x11e0(%rbp),%rax
   186c0:	48 89 85 00 f4 ff ff 	mov    %rax,-0xc00(%rbp)
   186c7:	48 8d 85 20 ee ff ff 	lea    -0x11e0(%rbp),%rax
   186ce:	48 89 85 08 f4 ff ff 	mov    %rax,-0xbf8(%rbp)
   186d5:	48 8d 85 20 ee ff ff 	lea    -0x11e0(%rbp),%rax
   186dc:	48 89 85 10 f4 ff ff 	mov    %rax,-0xbf0(%rbp)
   186e3:	48 8d 85 20 ee ff ff 	lea    -0x11e0(%rbp),%rax
   186ea:	48 89 85 18 f4 ff ff 	mov    %rax,-0xbe8(%rbp)
   186f1:	48 8d 85 50 ef ff ff 	lea    -0x10b0(%rbp),%rax
   186f8:	48 89 85 20 f4 ff ff 	mov    %rax,-0xbe0(%rbp)
   186ff:	48 8d 85 20 ee ff ff 	lea    -0x11e0(%rbp),%rax
   18706:	48 89 85 28 f4 ff ff 	mov    %rax,-0xbd8(%rbp)
   1870d:	48 8d 85 50 ef ff ff 	lea    -0x10b0(%rbp),%rax
   18714:	48 89 85 30 f4 ff ff 	mov    %rax,-0xbd0(%rbp)
   1871b:	48 8d 85 50 ef ff ff 	lea    -0x10b0(%rbp),%rax
   18722:	48 89 85 38 f4 ff ff 	mov    %rax,-0xbc8(%rbp)
   18729:	48 8d 85 50 ef ff ff 	lea    -0x10b0(%rbp),%rax
   18730:	48 89 85 40 f4 ff ff 	mov    %rax,-0xbc0(%rbp)
   18737:	48 8d 85 50 ef ff ff 	lea    -0x10b0(%rbp),%rax
   1873e:	48 89 85 48 f4 ff ff 	mov    %rax,-0xbb8(%rbp)
   18745:	48 8d 85 20 ee ff ff 	lea    -0x11e0(%rbp),%rax
   1874c:	48 89 85 50 f4 ff ff 	mov    %rax,-0xbb0(%rbp)
   18753:	48 8d 85 20 ee ff ff 	lea    -0x11e0(%rbp),%rax
   1875a:	48 89 85 58 f4 ff ff 	mov    %rax,-0xba8(%rbp)
   18761:	48 8d 85 20 ee ff ff 	lea    -0x11e0(%rbp),%rax
   18768:	48 89 85 60 f4 ff ff 	mov    %rax,-0xba0(%rbp)
   1876f:	48 8d 85 20 ee ff ff 	lea    -0x11e0(%rbp),%rax
   18776:	48 89 85 68 f4 ff ff 	mov    %rax,-0xb98(%rbp)
   1877d:	48 8d 85 20 ee ff ff 	lea    -0x11e0(%rbp),%rax
   18784:	48 89 85 70 f4 ff ff 	mov    %rax,-0xb90(%rbp)
   1878b:	48 8d 85 50 ef ff ff 	lea    -0x10b0(%rbp),%rax
   18792:	48 89 85 78 f4 ff ff 	mov    %rax,-0xb88(%rbp)
   18799:	48 8d 85 20 ee ff ff 	lea    -0x11e0(%rbp),%rax
   187a0:	48 89 85 80 f4 ff ff 	mov    %rax,-0xb80(%rbp)
   187a7:	48 8d 85 20 ee ff ff 	lea    -0x11e0(%rbp),%rax
   187ae:	48 89 85 88 f4 ff ff 	mov    %rax,-0xb78(%rbp)
   187b5:	48 8d 85 e0 f2 ff ff 	lea    -0xd20(%rbp),%rax
   187bc:	48 83 c0 68          	add    $0x68,%rax
   187c0:	48 89 85 a0 ee ff ff 	mov    %rax,-0x1160(%rbp)
   187c7:	48 8d 85 30 ee ff ff 	lea    -0x11d0(%rbp),%rax
   187ce:	48 89 85 a8 ee ff ff 	mov    %rax,-0x1158(%rbp)
   187d5:	48 b8 89 27 19 13 9a 	movabs $0x37fc9e9a13192789,%rax
   187dc:	9e fc 37 
   187df:	48 89 85 b0 ee ff ff 	mov    %rax,-0x1150(%rbp)
   187e6:	48 8d 85 38 ee ff ff 	lea    -0x11c8(%rbp),%rax
   187ed:	48 89 85 b8 ee ff ff 	mov    %rax,-0x1148(%rbp)
   187f4:	48 b8 04 b9 88 88 32 	movabs $0x53acf6328888b904,%rax
   187fb:	f6 ac 53 
   187fe:	48 89 85 c0 ee ff ff 	mov    %rax,-0x1140(%rbp)
   18805:	c6 85 cb ed ff ff 08 	movb   $0x8,-0x1235(%rbp)
   1880c:	c7 85 d4 ed ff ff fc 	movl   $0xfffffffc,-0x122c(%rbp)
   18813:	ff ff ff 
   18816:	c7 85 00 ee ff ff 2f 	movl   $0xd81f2a2f,-0x1200(%rbp)
   1881d:	2a 1f d8 
   18820:	48 8d 05 29 bb 00 00 	lea    0xbb29(%rip),%rax        # 24350 <g_164>
   18827:	48 89 85 40 ee ff ff 	mov    %rax,-0x11c0(%rbp)
   1882e:	48 8d 85 40 ee ff ff 	lea    -0x11c0(%rbp),%rax
   18835:	48 89 85 c8 ee ff ff 	mov    %rax,-0x1138(%rbp)
   1883c:	48 8d 05 fd be 00 00 	lea    0xbefd(%rip),%rax        # 24740 <g_915+0x180>
   18843:	48 89 85 d0 ee ff ff 	mov    %rax,-0x1130(%rbp)
   1884a:	48 8d 05 83 b9 00 00 	lea    0xb983(%rip),%rax        # 241d4 <g_102>
   18851:	48 89 85 48 ee ff ff 	mov    %rax,-0x11b8(%rbp)
   18858:	48 8d 85 48 ee ff ff 	lea    -0x11b8(%rbp),%rax
   1885f:	48 89 85 90 ef ff ff 	mov    %rax,-0x1070(%rbp)
   18866:	48 8d 85 48 ee ff ff 	lea    -0x11b8(%rbp),%rax
   1886d:	48 89 85 98 ef ff ff 	mov    %rax,-0x1068(%rbp)
   18874:	48 8d 85 48 ee ff ff 	lea    -0x11b8(%rbp),%rax
   1887b:	48 89 85 a0 ef ff ff 	mov    %rax,-0x1060(%rbp)
   18882:	48 8d 85 48 ee ff ff 	lea    -0x11b8(%rbp),%rax
   18889:	48 89 85 a8 ef ff ff 	mov    %rax,-0x1058(%rbp)
   18890:	c6 85 cc ed ff ff 02 	movb   $0x2,-0x1234(%rbp)
   18897:	48 8d 05 b6 67 00 00 	lea    0x67b6(%rip),%rax        # 1f054 <g_298>
   1889e:	48 89 85 c0 f0 ff ff 	mov    %rax,-0xf40(%rbp)
   188a5:	48 8d 05 a8 67 00 00 	lea    0x67a8(%rip),%rax        # 1f054 <g_298>
   188ac:	48 89 85 c8 f0 ff ff 	mov    %rax,-0xf38(%rbp)
   188b3:	48 8d 05 9a 67 00 00 	lea    0x679a(%rip),%rax        # 1f054 <g_298>
   188ba:	48 89 85 d0 f0 ff ff 	mov    %rax,-0xf30(%rbp)
   188c1:	48 8d 05 8c 67 00 00 	lea    0x678c(%rip),%rax        # 1f054 <g_298>
   188c8:	48 89 85 d8 f0 ff ff 	mov    %rax,-0xf28(%rbp)
   188cf:	48 8d 05 7e 67 00 00 	lea    0x677e(%rip),%rax        # 1f054 <g_298>
   188d6:	48 89 85 e0 f0 ff ff 	mov    %rax,-0xf20(%rbp)
   188dd:	48 8d 05 70 67 00 00 	lea    0x6770(%rip),%rax        # 1f054 <g_298>
   188e4:	48 89 85 e8 f0 ff ff 	mov    %rax,-0xf18(%rbp)
   188eb:	48 8d 05 62 67 00 00 	lea    0x6762(%rip),%rax        # 1f054 <g_298>
   188f2:	48 89 85 f0 f0 ff ff 	mov    %rax,-0xf10(%rbp)
   188f9:	48 8d 05 54 67 00 00 	lea    0x6754(%rip),%rax        # 1f054 <g_298>
   18900:	48 89 85 f8 f0 ff ff 	mov    %rax,-0xf08(%rbp)
   18907:	48 8d 05 46 67 00 00 	lea    0x6746(%rip),%rax        # 1f054 <g_298>
   1890e:	48 89 85 00 f1 ff ff 	mov    %rax,-0xf00(%rbp)
   18915:	48 8d 05 38 67 00 00 	lea    0x6738(%rip),%rax        # 1f054 <g_298>
   1891c:	48 89 85 08 f1 ff ff 	mov    %rax,-0xef8(%rbp)
   18923:	48 8d 05 2a 67 00 00 	lea    0x672a(%rip),%rax        # 1f054 <g_298>
   1892a:	48 89 85 10 f1 ff ff 	mov    %rax,-0xef0(%rbp)
   18931:	48 8d 05 1c 67 00 00 	lea    0x671c(%rip),%rax        # 1f054 <g_298>
   18938:	48 89 85 18 f1 ff ff 	mov    %rax,-0xee8(%rbp)
   1893f:	48 8d 85 c0 f0 ff ff 	lea    -0xf40(%rbp),%rax
   18946:	48 83 c0 10          	add    $0x10,%rax
   1894a:	48 89 85 d8 ee ff ff 	mov    %rax,-0x1128(%rbp)
   18951:	c6 85 cd ed ff ff 2b 	movb   $0x2b,-0x1233(%rbp)
   18958:	48 8d 85 d4 ed ff ff 	lea    -0x122c(%rbp),%rax
   1895f:	48 89 85 e0 ee ff ff 	mov    %rax,-0x1120(%rbp)
   18966:	48 b8 ef ce de 65 fe 	movabs $0xaa3bf0fe65deceef,%rax
   1896d:	f0 3b aa 
   18970:	48 89 85 e8 ee ff ff 	mov    %rax,-0x1118(%rbp)
   18977:	c6 85 ce ed ff ff f8 	movb   $0xf8,-0x1232(%rbp)
   1897e:	48 b8 a0 65 3d 7e f3 	movabs $0xd0cb9cf37e3d65a0,%rax
   18985:	9c cb d0 
   18988:	48 89 85 f0 ee ff ff 	mov    %rax,-0x1110(%rbp)
   1898f:	c7 85 70 ef ff ff 09 	movl   $0x9e88e409,-0x1090(%rbp)
   18996:	e4 88 9e 
   18999:	c7 85 74 ef ff ff 09 	movl   $0x9e88e409,-0x108c(%rbp)
   189a0:	e4 88 9e 
   189a3:	c7 85 78 ef ff ff 09 	movl   $0x9e88e409,-0x1088(%rbp)
   189aa:	e4 88 9e 
   189ad:	c7 85 7c ef ff ff 09 	movl   $0x9e88e409,-0x1084(%rbp)
   189b4:	e4 88 9e 
   189b7:	c7 85 80 ef ff ff 09 	movl   $0x9e88e409,-0x1080(%rbp)
   189be:	e4 88 9e 
   189c1:	c7 85 84 ef ff ff 09 	movl   $0x9e88e409,-0x107c(%rbp)
   189c8:	e4 88 9e 
   189cb:	c7 85 88 ef ff ff 09 	movl   $0x9e88e409,-0x1078(%rbp)
   189d2:	e4 88 9e 
   189d5:	48 c7 85 f8 ee ff ff 	movq   $0x3,-0x1108(%rbp)
   189dc:	03 00 00 00 
   189e0:	48 8d 05 29 27 01 00 	lea    0x12729(%rip),%rax        # 2b110 <g_729>
   189e7:	48 89 85 50 ee ff ff 	mov    %rax,-0x11b0(%rbp)
   189ee:	48 8d 85 50 ee ff ff 	lea    -0x11b0(%rbp),%rax
   189f5:	48 89 85 00 ef ff ff 	mov    %rax,-0x1100(%rbp)
   189fc:	c7 85 04 ee ff ff 80 	movl   $0x77ef2b80,-0x11fc(%rbp)
   18a03:	2b ef 77 
   18a06:	c7 85 dc ed ff ff 00 	movl   $0x0,-0x1224(%rbp)
   18a0d:	00 00 00 
   18a10:	eb 1e                	jmp    18a30 <func_60+0xa73>
   18a12:	8b 85 dc ed ff ff    	mov    -0x1224(%rbp),%eax
   18a18:	48 98                	cltq   
   18a1a:	48 8d 15 f7 b6 00 00 	lea    0xb6f7(%rip),%rdx        # 24118 <g_69+0x38>
   18a21:	48 89 94 c5 50 ef ff 	mov    %rdx,-0x10b0(%rbp,%rax,8)
   18a28:	ff 
   18a29:	83 85 dc ed ff ff 01 	addl   $0x1,-0x1224(%rbp)
   18a30:	83 bd dc ed ff ff 00 	cmpl   $0x0,-0x1224(%rbp)
   18a37:	7e d9                	jle    18a12 <func_60+0xa55>
   18a39:	c7 85 dc ed ff ff 00 	movl   $0x0,-0x1224(%rbp)
   18a40:	00 00 00 
   18a43:	eb 1e                	jmp    18a63 <func_60+0xaa6>
   18a45:	8b 85 dc ed ff ff    	mov    -0x1224(%rbp),%eax
   18a4b:	48 98                	cltq   
   18a4d:	48 8d 15 7e b7 00 00 	lea    0xb77e(%rip),%rdx        # 241d2 <g_96>
   18a54:	48 89 94 c5 70 f0 ff 	mov    %rdx,-0xf90(%rbp,%rax,8)
   18a5b:	ff 
   18a5c:	83 85 dc ed ff ff 01 	addl   $0x1,-0x1224(%rbp)
   18a63:	83 bd dc ed ff ff 09 	cmpl   $0x9,-0x1224(%rbp)
   18a6a:	7e d9                	jle    18a45 <func_60+0xa88>
   18a6c:	0f b7 05 59 26 01 00 	movzwl 0x12659(%rip),%eax        # 2b0cc <g_73>
   18a73:	83 e8 01             	sub    $0x1,%eax
   18a76:	66 89 05 4f 26 01 00 	mov    %ax,0x1264f(%rip)        # 2b0cc <g_73>
   18a7d:	66 c7 05 52 b6 00 00 	movw   $0x0,0xb652(%rip)        # 240d8 <g_67>
   18a84:	00 00 
   18a86:	e9 e7 0b 00 00       	jmpq   19672 <func_60+0x16b5>
   18a8b:	c7 85 08 ee ff ff 01 	movl   $0x1,-0x11f8(%rbp)
   18a92:	00 00 00 
   18a95:	c7 85 d8 ed ff ff ff 	movl   $0xffffffff,-0x1228(%rbp)
   18a9c:	ff ff ff 
   18a9f:	48 8d 05 22 b6 00 00 	lea    0xb622(%rip),%rax        # 240c8 <g_37>
   18aa6:	48 89 85 e0 ef ff ff 	mov    %rax,-0x1020(%rbp)
   18aad:	48 8d 05 b4 b6 00 00 	lea    0xb6b4(%rip),%rax        # 24168 <g_69+0x88>
   18ab4:	48 89 85 e8 ef ff ff 	mov    %rax,-0x1018(%rbp)
   18abb:	48 8d 05 06 b6 00 00 	lea    0xb606(%rip),%rax        # 240c8 <g_37>
   18ac2:	48 89 85 f0 ef ff ff 	mov    %rax,-0x1010(%rbp)
   18ac9:	48 8d 05 f8 b5 00 00 	lea    0xb5f8(%rip),%rax        # 240c8 <g_37>
   18ad0:	48 89 85 f8 ef ff ff 	mov    %rax,-0x1008(%rbp)
   18ad7:	48 8d 05 8a b6 00 00 	lea    0xb68a(%rip),%rax        # 24168 <g_69+0x88>
   18ade:	48 89 85 00 f0 ff ff 	mov    %rax,-0x1000(%rbp)
   18ae5:	48 8d 05 7c b6 00 00 	lea    0xb67c(%rip),%rax        # 24168 <g_69+0x88>
   18aec:	48 89 85 08 f0 ff ff 	mov    %rax,-0xff8(%rbp)
   18af3:	48 8d 85 d8 ed ff ff 	lea    -0x1228(%rbp),%rax
   18afa:	48 89 85 10 f0 ff ff 	mov    %rax,-0xff0(%rbp)
   18b01:	48 8d 05 60 b6 00 00 	lea    0xb660(%rip),%rax        # 24168 <g_69+0x88>
   18b08:	48 89 85 18 f0 ff ff 	mov    %rax,-0xfe8(%rbp)
   18b0f:	c7 85 e0 ed ff ff 00 	movl   $0x0,-0x1220(%rbp)
   18b16:	00 00 00 
   18b19:	eb 19                	jmp    18b34 <func_60+0xb77>
   18b1b:	8b 85 e0 ed ff ff    	mov    -0x1220(%rbp),%eax
   18b21:	48 98                	cltq   
   18b23:	66 c7 84 45 5a ef ff 	movw   $0x0,-0x10a6(%rbp,%rax,2)
   18b2a:	ff 00 00 
   18b2d:	83 85 e0 ed ff ff 01 	addl   $0x1,-0x1220(%rbp)
   18b34:	83 bd e0 ed ff ff 04 	cmpl   $0x4,-0x1220(%rbp)
   18b3b:	7e de                	jle    18b1b <func_60+0xb5e>
   18b3d:	66 c7 05 86 25 01 00 	movw   $0x0,0x12586(%rip)        # 2b0cc <g_73>
   18b44:	00 00 
   18b46:	e9 f8 0a 00 00       	jmpq   19643 <func_60+0x1686>
   18b4b:	48 c7 85 08 ef ff ff 	movq   $0x0,-0x10f8(%rbp)
   18b52:	00 00 00 00 
   18b56:	48 8d 85 90 f4 ff ff 	lea    -0xb70(%rbp),%rax
   18b5d:	48 8d 15 9c ef 00 00 	lea    0xef9c(%rip),%rdx        # 27b00 <g_5192+0x20c0>
   18b64:	b9 46 00 00 00       	mov    $0x46,%ecx
   18b69:	48 89 c7             	mov    %rax,%rdi
   18b6c:	48 89 d6             	mov    %rdx,%rsi
   18b6f:	f3 48 a5             	rep movsq %ds:(%rsi),%es:(%rdi)
   18b72:	c7 85 0c ee ff ff 02 	movl   $0x2,-0x11f4(%rbp)
   18b79:	00 00 00 
   18b7c:	48 8d 05 4f b6 00 00 	lea    0xb64f(%rip),%rax        # 241d2 <g_96>
   18b83:	48 89 85 10 ef ff ff 	mov    %rax,-0x10f0(%rbp)
   18b8a:	48 8d 05 43 b6 00 00 	lea    0xb643(%rip),%rax        # 241d4 <g_102>
   18b91:	48 89 85 58 ee ff ff 	mov    %rax,-0x11a8(%rbp)
   18b98:	48 c7 85 60 ee ff ff 	movq   $0x0,-0x11a0(%rbp)
   18b9f:	00 00 00 00 
   18ba3:	48 8d 85 60 ee ff ff 	lea    -0x11a0(%rbp),%rax
   18baa:	48 89 85 18 ef ff ff 	mov    %rax,-0x10e8(%rbp)
   18bb1:	48 8d 85 20 f0 ff ff 	lea    -0xfe0(%rbp),%rax
   18bb8:	48 83 c0 38          	add    $0x38,%rax
   18bbc:	48 89 85 20 ef ff ff 	mov    %rax,-0x10e0(%rbp)
   18bc3:	48 8d 85 c0 f6 ff ff 	lea    -0x940(%rbp),%rax
   18bca:	48 8d 15 6f f1 00 00 	lea    0xf16f(%rip),%rdx        # 27d40 <g_5192+0x2300>
   18bd1:	b9 6c 00 00 00       	mov    $0x6c,%ecx
   18bd6:	48 89 c7             	mov    %rax,%rdi
   18bd9:	48 89 d6             	mov    %rdx,%rsi
   18bdc:	f3 48 a5             	rep movsq %ds:(%rsi),%es:(%rdi)
   18bdf:	c7 85 10 ee ff ff 00 	movl   $0x0,-0x11f0(%rbp)
   18be6:	00 00 00 
   18be9:	48 8d 05 50 b7 00 00 	lea    0xb750(%rip),%rax        # 24340 <g_132>
   18bf0:	48 89 85 28 ef ff ff 	mov    %rax,-0x10d8(%rbp)
   18bf7:	48 8d 85 20 fa ff ff 	lea    -0x5e0(%rbp),%rax
   18bfe:	48 8d 15 9b f4 00 00 	lea    0xf49b(%rip),%rdx        # 280a0 <g_5192+0x2660>
   18c05:	b9 b4 00 00 00       	mov    $0xb4,%ecx
   18c0a:	48 89 c7             	mov    %rax,%rdi
   18c0d:	48 89 d6             	mov    %rdx,%rsi
   18c10:	f3 48 a5             	rep movsq %ds:(%rsi),%es:(%rdi)
   18c13:	c7 85 e4 ed ff ff a1 	movl   $0x16c188a1,-0x121c(%rbp)
   18c1a:	88 c1 16 
   18c1d:	c7 85 00 f2 ff ff fd 	movl   $0xfffffffd,-0xe00(%rbp)
   18c24:	ff ff ff 
   18c27:	c7 85 04 f2 ff ff 00 	movl   $0x0,-0xdfc(%rbp)
   18c2e:	00 00 00 
   18c31:	c7 85 08 f2 ff ff fd 	movl   $0xfffffffd,-0xdf8(%rbp)
   18c38:	ff ff ff 
   18c3b:	c7 85 0c f2 ff ff 5b 	movl   $0x9bd7285b,-0xdf4(%rbp)
   18c42:	28 d7 9b 
   18c45:	c7 85 10 f2 ff ff 00 	movl   $0x0,-0xdf0(%rbp)
   18c4c:	00 00 00 
   18c4f:	c7 85 14 f2 ff ff f7 	movl   $0xfffffff7,-0xdec(%rbp)
   18c56:	ff ff ff 
   18c59:	c7 85 18 f2 ff ff 25 	movl   $0x96efe925,-0xde8(%rbp)
   18c60:	e9 ef 96 
   18c63:	c7 85 1c f2 ff ff f7 	movl   $0xfffffff7,-0xde4(%rbp)
   18c6a:	ff ff ff 
   18c6d:	c7 85 20 f2 ff ff cb 	movl   $0x3e21f7cb,-0xde0(%rbp)
   18c74:	f7 21 3e 
   18c77:	c7 85 24 f2 ff ff 5b 	movl   $0x9bd7285b,-0xddc(%rbp)
   18c7e:	28 d7 9b 
   18c81:	c7 85 28 f2 ff ff 4f 	movl   $0x2f7c884f,-0xdd8(%rbp)
   18c88:	88 7c 2f 
   18c8b:	c7 85 2c f2 ff ff 5b 	movl   $0x9bd7285b,-0xdd4(%rbp)
   18c92:	28 d7 9b 
   18c95:	c7 85 30 f2 ff ff cb 	movl   $0x3e21f7cb,-0xdd0(%rbp)
   18c9c:	f7 21 3e 
   18c9f:	c7 85 34 f2 ff ff d6 	movl   $0xf14fe5d6,-0xdcc(%rbp)
   18ca6:	e5 4f f1 
   18ca9:	c7 85 38 f2 ff ff 00 	movl   $0x0,-0xdc8(%rbp)
   18cb0:	00 00 00 
   18cb3:	c7 85 3c f2 ff ff fa 	movl   $0xfffffffa,-0xdc4(%rbp)
   18cba:	ff ff ff 
   18cbd:	c7 85 40 f2 ff ff cb 	movl   $0x3e21f7cb,-0xdc0(%rbp)
   18cc4:	f7 21 3e 
   18cc7:	c7 85 44 f2 ff ff d6 	movl   $0xf14fe5d6,-0xdbc(%rbp)
   18cce:	e5 4f f1 
   18cd1:	c7 85 48 f2 ff ff 00 	movl   $0x0,-0xdb8(%rbp)
   18cd8:	00 00 00 
   18cdb:	c7 85 4c f2 ff ff fa 	movl   $0xfffffffa,-0xdb4(%rbp)
   18ce2:	ff ff ff 
   18ce5:	c7 85 50 f2 ff ff 00 	movl   $0x0,-0xdb0(%rbp)
   18cec:	00 00 00 
   18cef:	c7 85 54 f2 ff ff d6 	movl   $0xf14fe5d6,-0xdac(%rbp)
   18cf6:	e5 4f f1 
   18cf9:	c7 85 58 f2 ff ff cb 	movl   $0x3e21f7cb,-0xda8(%rbp)
   18d00:	f7 21 3e 
   18d03:	c7 85 5c f2 ff ff 5b 	movl   $0x9bd7285b,-0xda4(%rbp)
   18d0a:	28 d7 9b 
   18d0d:	c7 85 60 f2 ff ff fd 	movl   $0xfffffffd,-0xda0(%rbp)
   18d14:	ff ff ff 
   18d17:	c7 85 64 f2 ff ff 5b 	movl   $0x9bd7285b,-0xd9c(%rbp)
   18d1e:	28 d7 9b 
   18d21:	c7 85 68 f2 ff ff 00 	movl   $0x0,-0xd98(%rbp)
   18d28:	00 00 00 
   18d2b:	c7 85 6c f2 ff ff f7 	movl   $0xfffffff7,-0xd94(%rbp)
   18d32:	ff ff ff 
   18d35:	c7 85 70 f2 ff ff 25 	movl   $0x96efe925,-0xd90(%rbp)
   18d3c:	e9 ef 96 
   18d3f:	c7 85 74 f2 ff ff f7 	movl   $0xfffffff7,-0xd8c(%rbp)
   18d46:	ff ff ff 
   18d49:	c7 85 78 f2 ff ff 00 	movl   $0x0,-0xd88(%rbp)
   18d50:	00 00 00 
   18d53:	c7 85 7c f2 ff ff 5b 	movl   $0x9bd7285b,-0xd84(%rbp)
   18d5a:	28 d7 9b 
   18d5d:	c7 85 80 f2 ff ff 00 	movl   $0x0,-0xd80(%rbp)
   18d64:	00 00 00 
   18d67:	c7 85 84 f2 ff ff 00 	movl   $0x0,-0xd7c(%rbp)
   18d6e:	00 00 00 
   18d71:	c7 85 88 f2 ff ff 4f 	movl   $0x2f7c884f,-0xd78(%rbp)
   18d78:	88 7c 2f 
   18d7b:	c7 85 8c f2 ff ff fa 	movl   $0xfffffffa,-0xd74(%rbp)
   18d82:	ff ff ff 
   18d85:	c7 85 90 f2 ff ff 25 	movl   $0x96efe925,-0xd70(%rbp)
   18d8c:	e9 ef 96 
   18d8f:	c7 85 94 f2 ff ff 5b 	movl   $0x9bd7285b,-0xd6c(%rbp)
   18d96:	28 d7 9b 
   18d99:	c7 85 98 f2 ff ff 25 	movl   $0x96efe925,-0xd68(%rbp)
   18da0:	e9 ef 96 
   18da3:	c7 85 9c f2 ff ff fa 	movl   $0xfffffffa,-0xd64(%rbp)
   18daa:	ff ff ff 
   18dad:	c7 85 a0 f2 ff ff fd 	movl   $0xfffffffd,-0xd60(%rbp)
   18db4:	ff ff ff 
   18db7:	c7 85 a4 f2 ff ff 00 	movl   $0x0,-0xd5c(%rbp)
   18dbe:	00 00 00 
   18dc1:	c7 85 a8 f2 ff ff fd 	movl   $0xfffffffd,-0xd58(%rbp)
   18dc8:	ff ff ff 
   18dcb:	c7 85 ac f2 ff ff 5b 	movl   $0x9bd7285b,-0xd54(%rbp)
   18dd2:	28 d7 9b 
   18dd5:	c7 85 b0 f2 ff ff 00 	movl   $0x0,-0xd50(%rbp)
   18ddc:	00 00 00 
   18ddf:	c7 85 b4 f2 ff ff f7 	movl   $0xfffffff7,-0xd4c(%rbp)
   18de6:	ff ff ff 
   18de9:	c7 85 b8 f2 ff ff 25 	movl   $0x96efe925,-0xd48(%rbp)
   18df0:	e9 ef 96 
   18df3:	c7 85 bc f2 ff ff f7 	movl   $0xfffffff7,-0xd44(%rbp)
   18dfa:	ff ff ff 
   18dfd:	c7 85 c0 f2 ff ff cb 	movl   $0x3e21f7cb,-0xd40(%rbp)
   18e04:	f7 21 3e 
   18e07:	c7 85 c4 f2 ff ff 5b 	movl   $0x9bd7285b,-0xd3c(%rbp)
   18e0e:	28 d7 9b 
   18e11:	c7 85 c8 f2 ff ff 4f 	movl   $0x2f7c884f,-0xd38(%rbp)
   18e18:	88 7c 2f 
   18e1b:	c7 85 cc f2 ff ff 5b 	movl   $0x9bd7285b,-0xd34(%rbp)
   18e22:	28 d7 9b 
   18e25:	c7 85 d0 f2 ff ff cb 	movl   $0x3e21f7cb,-0xd30(%rbp)
   18e2c:	f7 21 3e 
   18e2f:	c7 85 d4 f2 ff ff d6 	movl   $0xf14fe5d6,-0xd2c(%rbp)
   18e36:	e5 4f f1 
   18e39:	c7 85 d8 f2 ff ff 00 	movl   $0x0,-0xd28(%rbp)
   18e40:	00 00 00 
   18e43:	c7 85 dc f2 ff ff fa 	movl   $0xfffffffa,-0xd24(%rbp)
   18e4a:	ff ff ff 
   18e4d:	c7 85 e8 ed ff ff 62 	movl   $0x2a324362,-0x1218(%rbp)
   18e54:	43 32 2a 
   18e57:	c7 85 ec ed ff ff 00 	movl   $0x0,-0x1214(%rbp)
   18e5e:	00 00 00 
   18e61:	eb 1a                	jmp    18e7d <func_60+0xec0>
   18e63:	8b 85 ec ed ff ff    	mov    -0x1214(%rbp),%eax
   18e69:	48 98                	cltq   
   18e6b:	c7 84 85 64 ef ff ff 	movl   $0x7453a37f,-0x109c(%rbp,%rax,4)
   18e72:	7f a3 53 74 
   18e76:	83 85 ec ed ff ff 01 	addl   $0x1,-0x1214(%rbp)
   18e7d:	83 bd ec ed ff ff 02 	cmpl   $0x2,-0x1214(%rbp)
   18e84:	7e dd                	jle    18e63 <func_60+0xea6>
   18e86:	c7 85 ec ed ff ff 00 	movl   $0x0,-0x1214(%rbp)
   18e8d:	00 00 00 
   18e90:	eb 1e                	jmp    18eb0 <func_60+0xef3>
   18e92:	8b 85 ec ed ff ff    	mov    -0x1214(%rbp),%eax
   18e98:	48 98                	cltq   
   18e9a:	48 8d 15 37 b2 00 00 	lea    0xb237(%rip),%rdx        # 240d8 <g_67>
   18ea1:	48 89 94 c5 20 f0 ff 	mov    %rdx,-0xfe0(%rbp,%rax,8)
   18ea8:	ff 
   18ea9:	83 85 ec ed ff ff 01 	addl   $0x1,-0x1214(%rbp)
   18eb0:	83 bd ec ed ff ff 08 	cmpl   $0x8,-0x1214(%rbp)
   18eb7:	7e d9                	jle    18e92 <func_60+0xed5>
   18eb9:	0f b7 05 18 b2 00 00 	movzwl 0xb218(%rip),%eax        # 240d8 <g_67>
   18ec0:	0f b7 c0             	movzwl %ax,%eax
   18ec3:	48 98                	cltq   
   18ec5:	48 8d 14 85 00 00 00 	lea    0x0(,%rax,4),%rdx
   18ecc:	00 
   18ecd:	48 8d 05 f4 21 01 00 	lea    0x121f4(%rip),%rax        # 2b0c8 <g_36>
   18ed4:	8b 14 02             	mov    (%rdx,%rax,1),%edx
   18ed7:	0f b7 05 fa b1 00 00 	movzwl 0xb1fa(%rip),%eax        # 240d8 <g_67>
   18ede:	0f b7 c0             	movzwl %ax,%eax
   18ee1:	89 d1                	mov    %edx,%ecx
   18ee3:	83 e1 01             	and    $0x1,%ecx
   18ee6:	48 98                	cltq   
   18ee8:	48 8d 14 85 00 00 00 	lea    0x0(,%rax,4),%rdx
   18eef:	00 
   18ef0:	48 8d 05 d1 21 01 00 	lea    0x121d1(%rip),%rax        # 2b0c8 <g_36>
   18ef7:	89 0c 02             	mov    %ecx,(%rdx,%rax,1)
   18efa:	0f b7 05 d7 b1 00 00 	movzwl 0xb1d7(%rip),%eax        # 240d8 <g_67>
   18f01:	0f b7 c0             	movzwl %ax,%eax
   18f04:	48 98                	cltq   
   18f06:	48 8d 14 85 00 00 00 	lea    0x0(,%rax,4),%rdx
   18f0d:	00 
   18f0e:	48 8d 05 b3 21 01 00 	lea    0x121b3(%rip),%rax        # 2b0c8 <g_36>
   18f15:	8b 04 02             	mov    (%rdx,%rax,1),%eax
   18f18:	0f b6 d8             	movzbl %al,%ebx
   18f1b:	be 01 00 00 00       	mov    $0x1,%esi
   18f20:	bf 00 00 00 00       	mov    $0x0,%edi
   18f25:	e8 94 4d ff ff       	callq  dcbe <safe_rshift_func_uint8_t_u_u>
   18f2a:	0f b6 c0             	movzbl %al,%eax
   18f2d:	89 85 64 ef ff ff    	mov    %eax,-0x109c(%rbp)
   18f33:	8b 85 64 ef ff ff    	mov    -0x109c(%rbp),%eax
   18f39:	09 85 0c ee ff ff    	or     %eax,-0x11f4(%rbp)
   18f3f:	8b 85 0c ee ff ff    	mov    -0x11f4(%rbp),%eax
   18f45:	0f b6 c0             	movzbl %al,%eax
   18f48:	89 de                	mov    %ebx,%esi
   18f4a:	89 c7                	mov    %eax,%edi
   18f4c:	e8 27 4c ff ff       	callq  db78 <safe_sub_func_uint8_t_u_u>
   18f51:	44 0f b6 f8          	movzbl %al,%r15d
   18f55:	0f b7 05 7c b1 00 00 	movzwl 0xb17c(%rip),%eax        # 240d8 <g_67>
   18f5c:	0f b7 c0             	movzwl %ax,%eax
   18f5f:	8d 50 01             	lea    0x1(%rax),%edx
   18f62:	0f b7 05 63 21 01 00 	movzwl 0x12163(%rip),%eax        # 2b0cc <g_73>
   18f69:	0f b7 c0             	movzwl %ax,%eax
   18f6c:	48 63 c8             	movslq %eax,%rcx
   18f6f:	48 63 d2             	movslq %edx,%rdx
   18f72:	48 89 d0             	mov    %rdx,%rax
   18f75:	48 c1 e0 02          	shl    $0x2,%rax
   18f79:	48 01 d0             	add    %rdx,%rax
   18f7c:	48 01 c0             	add    %rax,%rax
   18f7f:	48 01 c8             	add    %rcx,%rax
   18f82:	48 8d 14 85 00 00 00 	lea    0x0(,%rax,4),%rdx
   18f89:	00 
   18f8a:	48 8d 05 4f b1 00 00 	lea    0xb14f(%rip),%rax        # 240e0 <g_69>
   18f91:	8b 04 02             	mov    (%rdx,%rax,1),%eax
   18f94:	85 c0                	test   %eax,%eax
   18f96:	0f 85 de 01 00 00    	jne    1917a <func_60+0x11bd>
   18f9c:	0f b6 05 2d b2 00 00 	movzbl 0xb22d(%rip),%eax        # 241d0 <g_82>
   18fa3:	0f b6 d8             	movzbl %al,%ebx
   18fa6:	0f b7 05 2b b1 00 00 	movzwl 0xb12b(%rip),%eax        # 240d8 <g_67>
   18fad:	44 0f b7 e0          	movzwl %ax,%r12d
   18fb1:	48 8b 85 10 ef ff ff 	mov    -0x10f0(%rbp),%rax
   18fb8:	0f b7 00             	movzwl (%rax),%eax
   18fbb:	8d 48 01             	lea    0x1(%rax),%ecx
   18fbe:	48 8b 95 10 ef ff ff 	mov    -0x10f0(%rbp),%rdx
   18fc5:	66 89 0a             	mov    %cx,(%rdx)
   18fc8:	0f b7 c0             	movzwl %ax,%eax
   18fcb:	89 85 a4 ed ff ff    	mov    %eax,-0x125c(%rbp)
   18fd1:	0f b7 05 10 b2 00 00 	movzwl 0xb210(%rip),%eax        # 241e8 <g_117+0x8>
   18fd8:	44 0f bf e8          	movswl %ax,%r13d
   18fdc:	0f b7 05 e9 20 01 00 	movzwl 0x120e9(%rip),%eax        # 2b0cc <g_73>
   18fe3:	0f b7 c0             	movzwl %ax,%eax
   18fe6:	0f b7 15 eb b0 00 00 	movzwl 0xb0eb(%rip),%edx        # 240d8 <g_67>
   18fed:	0f b7 d2             	movzwl %dx,%edx
   18ff0:	83 c2 05             	add    $0x5,%edx
   18ff3:	48 63 ca             	movslq %edx,%rcx
   18ff6:	48 63 d0             	movslq %eax,%rdx
   18ff9:	48 89 d0             	mov    %rdx,%rax
   18ffc:	48 c1 e0 02          	shl    $0x2,%rax
   19000:	48 01 d0             	add    %rdx,%rax
   19003:	48 01 c0             	add    %rax,%rax
   19006:	48 01 c8             	add    %rcx,%rax
   19009:	48 8d 14 85 00 00 00 	lea    0x0(,%rax,4),%rdx
   19010:	00 
   19011:	48 8d 05 c8 b0 00 00 	lea    0xb0c8(%rip),%rax        # 240e0 <g_69>
   19018:	8b 14 02             	mov    (%rdx,%rax,1),%edx
   1901b:	48 8b 85 58 ee ff ff 	mov    -0x11a8(%rbp),%rax
   19022:	89 10                	mov    %edx,(%rax)
   19024:	8b 85 ac ed ff ff    	mov    -0x1254(%rbp),%eax
   1902a:	44 0f b7 f0          	movzwl %ax,%r14d
   1902e:	8b 85 ac ed ff ff    	mov    -0x1254(%rbp),%eax
   19034:	0f b6 d0             	movzbl %al,%edx
   19037:	48 8b 85 18 ee ff ff 	mov    -0x11e8(%rbp),%rax
   1903e:	c7 00 9c 07 00 00    	movl   $0x79c,(%rax)
   19044:	b8 01 00 00 00       	mov    $0x1,%eax
   19049:	0f b6 c0             	movzbl %al,%eax
   1904c:	89 d6                	mov    %edx,%esi
   1904e:	89 c7                	mov    %eax,%edi
   19050:	e8 59 4b ff ff       	callq  dbae <safe_mod_func_uint8_t_u_u>
   19055:	0f b6 c0             	movzbl %al,%eax
   19058:	48 89 c7             	mov    %rax,%rdi
   1905b:	e8 b6 47 ff ff       	callq  d816 <safe_unary_minus_func_int64_t_s>
   19060:	98                   	cwtl   
   19061:	be 0f 00 00 00       	mov    $0xf,%esi
   19066:	89 c7                	mov    %eax,%edi
   19068:	e8 25 44 ff ff       	callq  d492 <safe_lshift_func_int16_t_s_s>
   1906d:	0f b6 d0             	movzbl %al,%edx
   19070:	8b 85 ac ed ff ff    	mov    -0x1254(%rbp),%eax
   19076:	0f b6 c0             	movzbl %al,%eax
   19079:	89 d6                	mov    %edx,%esi
   1907b:	89 c7                	mov    %eax,%edi
   1907d:	e8 11 4b ff ff       	callq  db93 <safe_mul_func_uint8_t_u_u>
   19082:	0f b6 c0             	movzbl %al,%eax
   19085:	44 89 f6             	mov    %r14d,%esi
   19088:	89 c7                	mov    %eax,%edi
   1908a:	e8 ae 4c ff ff       	callq  dd3d <safe_mul_func_uint16_t_u_u>
   1908f:	0f b7 d0             	movzwl %ax,%edx
   19092:	8b 05 30 b0 00 00    	mov    0xb030(%rip),%eax        # 240c8 <g_37>
   19098:	39 c2                	cmp    %eax,%edx
   1909a:	0f 9d c0             	setge  %al
   1909d:	0f b6 c0             	movzbl %al,%eax
   190a0:	09 85 10 ee ff ff    	or     %eax,-0x11f0(%rbp)
   190a6:	48 8b 85 18 ef ff ff 	mov    -0x10e8(%rbp),%rax
   190ad:	48 8b 95 10 ef ff ff 	mov    -0x10f0(%rbp),%rdx
   190b4:	48 89 10             	mov    %rdx,(%rax)
   190b7:	48 8b 85 18 ef ff ff 	mov    -0x10e8(%rbp),%rax
   190be:	48 8b 10             	mov    (%rax),%rdx
   190c1:	48 8b 85 20 ef ff ff 	mov    -0x10e0(%rbp),%rax
   190c8:	48 89 10             	mov    %rdx,(%rax)
   190cb:	48 8b 05 76 f5 00 00 	mov    0xf576(%rip),%rax        # 28648 <g_119>
   190d2:	48 8d 15 ff af 00 00 	lea    0xafff(%rip),%rdx        # 240d8 <g_67>
   190d9:	48 39 d0             	cmp    %rdx,%rax
   190dc:	0f 94 c0             	sete   %al
   190df:	0f b6 d0             	movzbl %al,%edx
   190e2:	0f be 85 a8 ed ff ff 	movsbl -0x1258(%rbp),%eax
   190e9:	31 d0                	xor    %edx,%eax
   190eb:	44 89 ee             	mov    %r13d,%esi
   190ee:	89 c7                	mov    %eax,%edi
   190f0:	e8 c1 44 ff ff       	callq  d5b6 <safe_add_func_int32_t_s_s>
   190f5:	39 85 a4 ed ff ff    	cmp    %eax,-0x125c(%rbp)
   190fb:	0f 9f c0             	setg   %al
   190fe:	0f b6 c0             	movzbl %al,%eax
   19101:	be 05 00 00 00       	mov    $0x5,%esi
   19106:	89 c7                	mov    %eax,%edi
   19108:	e8 6d 4d ff ff       	callq  de7a <safe_rshift_func_uint16_t_u_u>
   1910d:	0f b7 d0             	movzwl %ax,%edx
   19110:	8b 85 ac ed ff ff    	mov    -0x1254(%rbp),%eax
   19116:	31 d0                	xor    %edx,%eax
   19118:	89 c0                	mov    %eax,%eax
   1911a:	25 bb 57 00 00       	and    $0x57bb,%eax
   1911f:	48 89 05 42 b1 00 00 	mov    %rax,0xb142(%rip)        # 24268 <g_121+0x28>
   19126:	4c 89 e6             	mov    %r12,%rsi
   19129:	bf 00 00 00 00       	mov    $0x0,%edi
   1912e:	e8 81 48 ff ff       	callq  d9b4 <safe_mod_func_int64_t_s_s>
   19133:	48 83 f8 07          	cmp    $0x7,%rax
   19137:	0f 9e c0             	setle  %al
   1913a:	0f b6 c0             	movzbl %al,%eax
   1913d:	48 c7 c6 ff ff ff ff 	mov    $0xffffffffffffffff,%rsi
   19144:	48 89 c7             	mov    %rax,%rdi
   19147:	e8 68 48 ff ff       	callq  d9b4 <safe_mod_func_int64_t_s_s>
   1914c:	8b 85 08 ee ff ff    	mov    -0x11f8(%rbp),%eax
   19152:	0f be c0             	movsbl %al,%eax
   19155:	89 de                	mov    %ebx,%esi
   19157:	89 c7                	mov    %eax,%edi
   19159:	e8 0e 42 ff ff       	callq  d36c <safe_rshift_func_int8_t_s_u>
   1915e:	0f be c0             	movsbl %al,%eax
   19161:	be 07 00 00 00       	mov    $0x7,%esi
   19166:	89 c7                	mov    %eax,%edi
   19168:	e8 81 41 ff ff       	callq  d2ee <safe_lshift_func_int8_t_s_u>
   1916d:	0f be d0             	movsbl %al,%edx
   19170:	8b 85 d8 ed ff ff    	mov    -0x1228(%rbp),%eax
   19176:	39 c2                	cmp    %eax,%edx
   19178:	74 07                	je     19181 <func_60+0x11c4>
   1917a:	ba 01 00 00 00       	mov    $0x1,%edx
   1917f:	eb 05                	jmp    19186 <func_60+0x11c9>
   19181:	ba 00 00 00 00       	mov    $0x0,%edx
   19186:	0f b7 05 4b af 00 00 	movzwl 0xaf4b(%rip),%eax        # 240d8 <g_67>
   1918d:	0f b7 c0             	movzwl %ax,%eax
   19190:	89 d1                	mov    %edx,%ecx
   19192:	44 09 f9             	or     %r15d,%ecx
   19195:	48 98                	cltq   
   19197:	48 8d 14 85 00 00 00 	lea    0x0(,%rax,4),%rdx
   1919e:	00 
   1919f:	48 8d 05 22 1f 01 00 	lea    0x11f22(%rip),%rax        # 2b0c8 <g_36>
   191a6:	89 0c 02             	mov    %ecx,(%rdx,%rax,1)
   191a9:	48 8b 85 68 ee ff ff 	mov    -0x1198(%rbp),%rax
   191b0:	8b 18                	mov    (%rax),%ebx
   191b2:	8b 85 08 ee ff ff    	mov    -0x11f8(%rbp),%eax
   191b8:	0f b6 d0             	movzbl %al,%edx
   191bb:	0f b6 85 a8 ed ff ff 	movzbl -0x1258(%rbp),%eax
   191c2:	0f b6 c0             	movzbl %al,%eax
   191c5:	89 d6                	mov    %edx,%esi
   191c7:	89 c7                	mov    %eax,%edi
   191c9:	e8 c5 49 ff ff       	callq  db93 <safe_mul_func_uint8_t_u_u>
   191ce:	0f b6 c0             	movzbl %al,%eax
   191d1:	09 c3                	or     %eax,%ebx
   191d3:	41 89 dd             	mov    %ebx,%r13d
   191d6:	8b 85 ac ed ff ff    	mov    -0x1254(%rbp),%eax
   191dc:	0f b7 d8             	movzwl %ax,%ebx
   191df:	48 8b 85 28 ef ff ff 	mov    -0x10d8(%rbp),%rax
   191e6:	48 8b 10             	mov    (%rax),%rdx
   191e9:	48 8b 05 b8 ab 00 00 	mov    0xabb8(%rip),%rax        # 23da8 <l_130.5161+0x8>
   191f0:	48 85 c0             	test   %rax,%rax
   191f3:	0f 95 c0             	setne  %al
   191f6:	0f b6 c0             	movzbl %al,%eax
   191f9:	48 21 c2             	and    %rax,%rdx
   191fc:	48 8b 85 28 ef ff ff 	mov    -0x10d8(%rbp),%rax
   19203:	48 89 10             	mov    %rdx,(%rax)
   19206:	48 8b 85 28 ef ff ff 	mov    -0x10d8(%rbp),%rax
   1920d:	48 8b 00             	mov    (%rax),%rax
   19210:	48 85 c0             	test   %rax,%rax
   19213:	0f 94 c0             	sete   %al
   19216:	0f b6 c0             	movzbl %al,%eax
   19219:	48 39 85 70 ee ff ff 	cmp    %rax,-0x1190(%rbp)
   19220:	0f 96 c0             	setbe  %al
   19223:	44 0f b6 e0          	movzbl %al,%r12d
   19227:	8b 85 d8 ed ff ff    	mov    -0x1228(%rbp),%eax
   1922d:	0f be d0             	movsbl %al,%edx
   19230:	48 8b 05 99 1e 01 00 	mov    0x11e99(%rip),%rax        # 2b0d0 <g_136>
   19237:	48 85 c0             	test   %rax,%rax
   1923a:	0f 94 c0             	sete   %al
   1923d:	0f b6 c0             	movzbl %al,%eax
   19240:	89 d6                	mov    %edx,%esi
   19242:	89 c7                	mov    %eax,%edi
   19244:	e8 8b 3f ff ff       	callq  d1d4 <safe_add_func_int8_t_s_s>
   19249:	0f be c0             	movsbl %al,%eax
   1924c:	41 39 c4             	cmp    %eax,%r12d
   1924f:	0f 9f c0             	setg   %al
   19252:	0f b6 c0             	movzbl %al,%eax
   19255:	48 8b 15 1c b0 00 00 	mov    0xb01c(%rip),%rdx        # 24278 <g_121+0x38>
   1925c:	48 98                	cltq   
   1925e:	48 31 d0             	xor    %rdx,%rax
   19261:	48 89 05 10 b0 00 00 	mov    %rax,0xb010(%rip)        # 24278 <g_121+0x38>
   19268:	48 8b 15 09 b0 00 00 	mov    0xb009(%rip),%rdx        # 24278 <g_121+0x38>
   1926f:	0f b7 05 74 af 00 00 	movzwl 0xaf74(%rip),%eax        # 241ea <g_117+0xa>
   19276:	48 0f bf c0          	movswq %ax,%rax
   1927a:	48 21 d0             	and    %rdx,%rax
   1927d:	48 85 c0             	test   %rax,%rax
   19280:	75 09                	jne    1928b <func_60+0x12ce>
   19282:	80 bd a8 ed ff ff 00 	cmpb   $0x0,-0x1258(%rbp)
   19289:	74 07                	je     19292 <func_60+0x12d5>
   1928b:	b8 01 00 00 00       	mov    $0x1,%eax
   19290:	eb 05                	jmp    19297 <func_60+0x12da>
   19292:	b8 00 00 00 00       	mov    $0x0,%eax
   19297:	66 0d a6 2d          	or     $0x2da6,%ax
   1929b:	0f b7 c0             	movzwl %ax,%eax
   1929e:	89 de                	mov    %ebx,%esi
   192a0:	89 c7                	mov    %eax,%edi
   192a2:	e8 96 4a ff ff       	callq  dd3d <safe_mul_func_uint16_t_u_u>
   192a7:	0f b7 c0             	movzwl %ax,%eax
   192aa:	41 39 c5             	cmp    %eax,%r13d
   192ad:	0f 9c c0             	setl   %al
   192b0:	0f b6 c0             	movzbl %al,%eax
   192b3:	48 63 d0             	movslq %eax,%rdx
   192b6:	48 8b 05 8b b0 00 00 	mov    0xb08b(%rip),%rax        # 24348 <g_138>
   192bd:	48 21 d0             	and    %rdx,%rax
   192c0:	48 89 05 81 b0 00 00 	mov    %rax,0xb081(%rip)        # 24348 <g_138>
   192c7:	8b 05 ef ae 00 00    	mov    0xaeef(%rip),%eax        # 241bc <g_69+0xdc>
   192cd:	85 c0                	test   %eax,%eax
   192cf:	0f 84 4f 03 00 00    	je     19624 <func_60+0x1667>
   192d5:	c7 85 14 ee ff ff 00 	movl   $0x0,-0x11ec(%rbp)
   192dc:	00 00 00 
   192df:	c6 05 ea ae 00 00 e2 	movb   $0xe2,0xaeea(%rip)        # 241d0 <g_82>
   192e6:	eb 17                	jmp    192ff <func_60+0x1342>
   192e8:	83 85 e4 ed ff ff 01 	addl   $0x1,-0x121c(%rbp)
   192ef:	0f b6 05 da ae 00 00 	movzbl 0xaeda(%rip),%eax        # 241d0 <g_82>
   192f6:	83 c0 01             	add    $0x1,%eax
   192f9:	88 05 d1 ae 00 00    	mov    %al,0xaed1(%rip)        # 241d0 <g_82>
   192ff:	0f b6 05 ca ae 00 00 	movzbl 0xaeca(%rip),%eax        # 241d0 <g_82>
   19306:	3c 2a                	cmp    $0x2a,%al
   19308:	74 de                	je     192e8 <func_60+0x132b>
   1930a:	83 ad 14 ee ff ff 01 	subl   $0x1,-0x11ec(%rbp)
   19311:	48 c7 05 2c b0 00 00 	movq   $0x0,0xb02c(%rip)        # 24348 <g_138>
   19318:	00 00 00 00 
   1931c:	e9 e3 02 00 00       	jmpq   19604 <func_60+0x1647>
   19321:	c7 85 49 ef ff ff 04 	movl   $0x4040404,-0x10b7(%rbp)
   19328:	04 04 04 
   1932b:	66 c7 85 4d ef ff ff 	movw   $0x404,-0x10b3(%rbp)
   19332:	04 04 
   19334:	c6 85 4f ef ff ff 04 	movb   $0x4,-0x10b1(%rbp)
   1933b:	48 8d 05 0e b0 00 00 	lea    0xb00e(%rip),%rax        # 24350 <g_164>
   19342:	48 89 85 30 ef ff ff 	mov    %rax,-0x10d0(%rbp)
   19349:	48 8d 05 88 1d 01 00 	lea    0x11d88(%rip),%rax        # 2b0d8 <g_166>
   19350:	48 89 85 38 ef ff ff 	mov    %rax,-0x10c8(%rbp)
   19357:	c7 85 f0 ed ff ff 00 	movl   $0x0,-0x1210(%rbp)
   1935e:	00 00 00 
   19361:	eb 46                	jmp    193a9 <func_60+0x13ec>
   19363:	c7 85 f4 ed ff ff 00 	movl   $0x0,-0x120c(%rbp)
   1936a:	00 00 00 
   1936d:	eb 2a                	jmp    19399 <func_60+0x13dc>
   1936f:	8b 85 f4 ed ff ff    	mov    -0x120c(%rbp),%eax
   19375:	48 98                	cltq   
   19377:	8b 95 f0 ed ff ff    	mov    -0x1210(%rbp),%edx
   1937d:	48 63 d2             	movslq %edx,%rdx
   19380:	48 01 d2             	add    %rdx,%rdx
   19383:	48 01 d0             	add    %rdx,%rax
   19386:	48 c7 84 c5 b0 ef ff 	movq   $0x0,-0x1050(%rbp,%rax,8)
   1938d:	ff 00 00 00 00 
   19392:	83 85 f4 ed ff ff 01 	addl   $0x1,-0x120c(%rbp)
   19399:	83 bd f4 ed ff ff 01 	cmpl   $0x1,-0x120c(%rbp)
   193a0:	7e cd                	jle    1936f <func_60+0x13b2>
   193a2:	83 85 f0 ed ff ff 01 	addl   $0x1,-0x1210(%rbp)
   193a9:	83 bd f0 ed ff ff 02 	cmpl   $0x2,-0x1210(%rbp)
   193b0:	7e b1                	jle    19363 <func_60+0x13a6>
   193b2:	8b 85 6c ef ff ff    	mov    -0x1094(%rbp),%eax
   193b8:	48 98                	cltq   
   193ba:	0f b6 95 4c ef ff ff 	movzbl -0x10b4(%rbp),%edx
   193c1:	0f b6 ca             	movzbl %dl,%ecx
   193c4:	8b 15 0a ae 00 00    	mov    0xae0a(%rip),%edx        # 241d4 <g_102>
   193ca:	31 ca                	xor    %ecx,%edx
   193cc:	89 d2                	mov    %edx,%edx
   193ce:	48 89 c6             	mov    %rax,%rsi
   193d1:	48 89 d7             	mov    %rdx,%rdi
   193d4:	e8 d6 4c ff ff       	callq  e0af <safe_div_func_uint64_t_u_u>
   193d9:	48 85 c0             	test   %rax,%rax
   193dc:	75 5f                	jne    1943d <func_60+0x1480>
   193de:	48 8b 05 9b ae 00 00 	mov    0xae9b(%rip),%rax        # 24280 <g_128>
   193e5:	8b 85 d8 ed ff ff    	mov    -0x1228(%rbp),%eax
   193eb:	89 c2                	mov    %eax,%edx
   193ed:	8b 85 08 ee ff ff    	mov    -0x11f8(%rbp),%eax
   193f3:	98                   	cwtl   
   193f4:	89 d6                	mov    %edx,%esi
   193f6:	89 c7                	mov    %eax,%edi
   193f8:	e8 e4 40 ff ff       	callq  d4e1 <safe_lshift_func_int16_t_s_u>
   193fd:	0f bf d0             	movswl %ax,%edx
   19400:	0f be b5 a8 ed ff ff 	movsbl -0x1258(%rbp),%esi
   19407:	48 8b 85 20 ee ff ff 	mov    -0x11e0(%rbp),%rax
   1940e:	48 8b 8d b8 ed ff ff 	mov    -0x1248(%rbp),%rcx
   19415:	8b 09                	mov    (%rcx),%ecx
   19417:	89 08                	mov    %ecx,(%rax)
   19419:	8b 00                	mov    (%rax),%eax
   1941b:	39 c6                	cmp    %eax,%esi
   1941d:	0f 95 c0             	setne  %al
   19420:	0f b6 c0             	movzbl %al,%eax
   19423:	89 d6                	mov    %edx,%esi
   19425:	89 c7                	mov    %eax,%edi
   19427:	e8 d1 4a ff ff       	callq  defd <safe_mod_func_uint32_t_u_u>
   1942c:	0f be 95 a8 ed ff ff 	movsbl -0x1258(%rbp),%edx
   19433:	8b 85 c4 f2 ff ff    	mov    -0xd3c(%rbp),%eax
   19439:	39 c2                	cmp    %eax,%edx
   1943b:	77 07                	ja     19444 <func_60+0x1487>
   1943d:	b8 01 00 00 00       	mov    $0x1,%eax
   19442:	eb 05                	jmp    19449 <func_60+0x148c>
   19444:	b8 00 00 00 00       	mov    $0x0,%eax
   19449:	3d e0 00 00 00       	cmp    $0xe0,%eax
   1944e:	0f 9e c0             	setle  %al
   19451:	0f b6 c0             	movzbl %al,%eax
   19454:	be 29 35 00 00       	mov    $0x3529,%esi
   19459:	89 c7                	mov    %eax,%edi
   1945b:	e8 2e 49 ff ff       	callq  dd8e <safe_div_func_uint16_t_u_u>
   19460:	0f b7 d0             	movzwl %ax,%edx
   19463:	8b 85 ac ed ff ff    	mov    -0x1254(%rbp),%eax
   19469:	39 c2                	cmp    %eax,%edx
   1946b:	0f 92 c0             	setb   %al
   1946e:	0f b6 c0             	movzbl %al,%eax
   19471:	be 05 00 00 00       	mov    $0x5,%esi
   19476:	89 c7                	mov    %eax,%edi
   19478:	e8 88 47 ff ff       	callq  dc05 <safe_lshift_func_uint8_t_u_s>
   1947d:	0f b6 d0             	movzbl %al,%edx
   19480:	0f be 85 a8 ed ff ff 	movsbl -0x1258(%rbp),%eax
   19487:	39 c2                	cmp    %eax,%edx
   19489:	0f 95 c0             	setne  %al
   1948c:	0f b6 d0             	movzbl %al,%edx
   1948f:	0f be 85 a8 ed ff ff 	movsbl -0x1258(%rbp),%eax
   19496:	09 c2                	or     %eax,%edx
   19498:	8b 85 64 ef ff ff    	mov    -0x109c(%rbp),%eax
   1949e:	39 c2                	cmp    %eax,%edx
   194a0:	0f 95 c0             	setne  %al
   194a3:	0f b6 c0             	movzbl %al,%eax
   194a6:	89 c6                	mov    %eax,%esi
   194a8:	bf fb ff ff ff       	mov    $0xfffffffb,%edi
   194ad:	e8 21 3f ff ff       	callq  d3d3 <safe_sub_func_int16_t_s_s>
   194b2:	48 8b 95 30 ef ff ff 	mov    -0x10d0(%rbp),%rdx
   194b9:	8b 12                	mov    (%rdx),%edx
   194bb:	98                   	cwtl   
   194bc:	09 c2                	or     %eax,%edx
   194be:	48 8b 85 30 ef ff ff 	mov    -0x10d0(%rbp),%rax
   194c5:	89 10                	mov    %edx,(%rax)
   194c7:	48 8b 85 30 ef ff ff 	mov    -0x10d0(%rbp),%rax
   194ce:	8b 10                	mov    (%rax),%edx
   194d0:	48 8b 85 38 ef ff ff 	mov    -0x10c8(%rbp),%rax
   194d7:	89 10                	mov    %edx,(%rax)
   194d9:	48 8b 05 78 f1 00 00 	mov    0xf178(%rip),%rax        # 28658 <g_167>
   194e0:	48 8d 15 e1 ab 00 00 	lea    0xabe1(%rip),%rdx        # 240c8 <g_37>
   194e7:	48 89 10             	mov    %rdx,(%rax)
   194ea:	48 8b 85 b8 ed ff ff 	mov    -0x1248(%rbp),%rax
   194f1:	48 89 85 e0 ef ff ff 	mov    %rax,-0x1020(%rbp)
   194f8:	c6 05 d1 ac 00 00 00 	movb   $0x0,0xacd1(%rip)        # 241d0 <g_82>
   194ff:	e9 df 00 00 00       	jmpq   195e3 <func_60+0x1626>
   19504:	48 8d 85 58 ee ff ff 	lea    -0x11a8(%rbp),%rax
   1950b:	48 89 85 40 ef ff ff 	mov    %rax,-0x10c0(%rbp)
   19512:	0f b7 05 d1 ac 00 00 	movzwl 0xacd1(%rip),%eax        # 241ea <g_117+0xa>
   19519:	0f bf d8             	movswl %ax,%ebx
   1951c:	48 8b 85 40 ef ff ff 	mov    -0x10c0(%rbp),%rax
   19523:	48 8d 95 ac ed ff ff 	lea    -0x1254(%rbp),%rdx
   1952a:	48 89 10             	mov    %rdx,(%rax)
   1952d:	48 c7 05 a8 1b 01 00 	movq   $0x0,0x11ba8(%rip)        # 2b0e0 <g_180>
   19534:	00 00 00 00 
   19538:	48 8b 05 a1 1b 01 00 	mov    0x11ba1(%rip),%rax        # 2b0e0 <g_180>
   1953f:	89 c2                	mov    %eax,%edx
   19541:	8b 85 e8 ed ff ff    	mov    -0x1218(%rbp),%eax
   19547:	21 d0                	and    %edx,%eax
   19549:	89 85 e8 ed ff ff    	mov    %eax,-0x1218(%rbp)
   1954f:	48 8b 85 18 f0 ff ff 	mov    -0xfe8(%rbp),%rax
   19556:	48 39 85 b8 ed ff ff 	cmp    %rax,-0x1248(%rbp)
   1955d:	0f 94 c0             	sete   %al
   19560:	0f b6 d0             	movzbl %al,%edx
   19563:	66 c7 85 60 ef ff ff 	movw   $0x0,-0x10a0(%rbp)
   1956a:	00 00 
   1956c:	0f b7 05 59 1b 01 00 	movzwl 0x11b59(%rip),%eax        # 2b0cc <g_73>
   19573:	0f b7 c8             	movzwl %ax,%ecx
   19576:	0f b7 05 5b ab 00 00 	movzwl 0xab5b(%rip),%eax        # 240d8 <g_67>
   1957d:	0f b7 c0             	movzwl %ax,%eax
   19580:	83 c0 04             	add    $0x4,%eax
   19583:	48 98                	cltq   
   19585:	48 63 c9             	movslq %ecx,%rcx
   19588:	48 c1 e1 03          	shl    $0x3,%rcx
   1958c:	48 01 c8             	add    %rcx,%rax
   1958f:	48 8d 0c 00          	lea    (%rax,%rax,1),%rcx
   19593:	48 8d 05 a6 aa 00 00 	lea    0xaaa6(%rip),%rax        # 24040 <g_25>
   1959a:	0f b7 04 01          	movzwl (%rcx,%rax,1),%eax
   1959e:	0f be c0             	movsbl %al,%eax
   195a1:	89 d6                	mov    %edx,%esi
   195a3:	89 c7                	mov    %eax,%edi
   195a5:	e8 2a 3c ff ff       	callq  d1d4 <safe_add_func_int8_t_s_s>
   195aa:	0f be c0             	movsbl %al,%eax
   195ad:	89 c6                	mov    %eax,%esi
   195af:	bf 01 00 00 00       	mov    $0x1,%edi
   195b4:	e8 6c 49 ff ff       	callq  df25 <safe_div_func_uint32_t_u_u>
   195b9:	89 de                	mov    %ebx,%esi
   195bb:	bf 67 00 00 00       	mov    $0x67,%edi
   195c0:	e8 a7 3d ff ff       	callq  d36c <safe_rshift_func_int8_t_s_u>
   195c5:	89 c2                	mov    %eax,%edx
   195c7:	48 8b 85 18 ee ff ff 	mov    -0x11e8(%rbp),%rax
   195ce:	0f be d2             	movsbl %dl,%edx
   195d1:	89 10                	mov    %edx,(%rax)
   195d3:	0f b6 05 f6 ab 00 00 	movzbl 0xabf6(%rip),%eax        # 241d0 <g_82>
   195da:	83 c0 01             	add    $0x1,%eax
   195dd:	88 05 ed ab 00 00    	mov    %al,0xabed(%rip)        # 241d0 <g_82>
   195e3:	0f b6 05 e6 ab 00 00 	movzbl 0xabe6(%rip),%eax        # 241d0 <g_82>
   195ea:	3c 01                	cmp    $0x1,%al
   195ec:	0f 86 12 ff ff ff    	jbe    19504 <func_60+0x1547>
   195f2:	48 8b 05 4f ad 00 00 	mov    0xad4f(%rip),%rax        # 24348 <g_138>
   195f9:	48 83 c0 01          	add    $0x1,%rax
   195fd:	48 89 05 44 ad 00 00 	mov    %rax,0xad44(%rip)        # 24348 <g_138>
   19604:	48 8b 05 3d ad 00 00 	mov    0xad3d(%rip),%rax        # 24348 <g_138>
   1960b:	48 83 f8 13          	cmp    $0x13,%rax
   1960f:	0f 8e 0c fd ff ff    	jle    19321 <func_60+0x1364>
   19615:	48 8b 85 68 ee ff ff 	mov    -0x1198(%rbp),%rax
   1961c:	c7 00 00 00 00 00    	movl   $0x0,(%rax)
   19622:	eb 0e                	jmp    19632 <func_60+0x1675>
   19624:	c6 85 cf ed ff ff 68 	movb   $0x68,-0x1231(%rbp)
   1962b:	80 ad cf ed ff ff 01 	subb   $0x1,-0x1231(%rbp)
   19632:	0f b7 05 93 1a 01 00 	movzwl 0x11a93(%rip),%eax        # 2b0cc <g_73>
   19639:	83 c0 01             	add    $0x1,%eax
   1963c:	66 89 05 89 1a 01 00 	mov    %ax,0x11a89(%rip)        # 2b0cc <g_73>
   19643:	0f b7 05 82 1a 01 00 	movzwl 0x11a82(%rip),%eax        # 2b0cc <g_73>
   1964a:	66 83 f8 05          	cmp    $0x5,%ax
   1964e:	0f 86 f7 f4 ff ff    	jbe    18b4b <func_60+0xb8e>
   19654:	48 8b 85 68 ee ff ff 	mov    -0x1198(%rbp),%rax
   1965b:	c7 00 01 00 00 00    	movl   $0x1,(%rax)
   19661:	0f b7 05 70 aa 00 00 	movzwl 0xaa70(%rip),%eax        # 240d8 <g_67>
   19668:	83 c0 01             	add    $0x1,%eax
   1966b:	66 89 05 66 aa 00 00 	mov    %ax,0xaa66(%rip)        # 240d8 <g_67>
   19672:	0f b7 05 5f aa 00 00 	movzwl 0xaa5f(%rip),%eax        # 240d8 <g_67>
   19679:	66 85 c0             	test   %ax,%ax
   1967c:	0f 84 09 f4 ff ff    	je     18a8b <func_60+0xace>
   19682:	8b 05 54 b2 00 00    	mov    0xb254(%rip),%eax        # 248dc <g_1513>
   19688:	48 98                	cltq   
   1968a:	48 8b 5d c8          	mov    -0x38(%rbp),%rbx
   1968e:	64 48 33 1c 25 28 00 	xor    %fs:0x28,%rbx
   19695:	00 00 
   19697:	74 05                	je     1969e <func_60+0x16e1>
   19699:	e8 d2 39 ff ff       	callq  d070 <__stack_chk_fail@plt>
   1969e:	48 81 c4 38 12 00 00 	add    $0x1238,%rsp
   196a5:	5b                   	pop    %rbx
   196a6:	41 5c                	pop    %r12
   196a8:	41 5d                	pop    %r13
   196aa:	41 5e                	pop    %r14
   196ac:	41 5f                	pop    %r15
   196ae:	5d                   	pop    %rbp
   196af:	c3                   	retq   

00000000000196b0 <main>:
   196b0:	f3 0f 1e fa          	endbr64 
   196b4:	55                   	push   %rbp
   196b5:	48 89 e5             	mov    %rsp,%rbp
   196b8:	48 83 ec 50          	sub    $0x50,%rsp
   196bc:	89 7d dc             	mov    %edi,-0x24(%rbp)
   196bf:	48 89 75 d0          	mov    %rsi,-0x30(%rbp)
   196c3:	64 48 8b 04 25 28 00 	mov    %fs:0x28,%rax
   196ca:	00 00 
   196cc:	48 89 45 f8          	mov    %rax,-0x8(%rbp)
   196d0:	31 c0                	xor    %eax,%eax
   196d2:	c7 45 f4 00 00 00 00 	movl   $0x0,-0xc(%rbp)
   196d9:	83 7d dc 02          	cmpl   $0x2,-0x24(%rbp)
   196dd:	75 25                	jne    19704 <main+0x54>
   196df:	48 8b 45 d0          	mov    -0x30(%rbp),%rax
   196e3:	48 83 c0 08          	add    $0x8,%rax
   196e7:	48 8b 00             	mov    (%rax),%rax
   196ea:	48 8d 35 0f 6d 00 00 	lea    0x6d0f(%rip),%rsi        # 20400 <g_5046+0xce0>
   196f1:	48 89 c7             	mov    %rax,%rdi
   196f4:	e8 97 39 ff ff       	callq  d090 <strcmp@plt>
   196f9:	85 c0                	test   %eax,%eax
   196fb:	75 07                	jne    19704 <main+0x54>
   196fd:	c7 45 f4 01 00 00 00 	movl   $0x1,-0xc(%rbp)
   19704:	e8 80 3a ff ff       	callq  d189 <platform_main_begin>
   19709:	e8 8a 4e ff ff       	callq  e598 <crc32_gentab>
   1970e:	48 8d 45 b0          	lea    -0x50(%rbp),%rax
   19712:	48 89 c7             	mov    %rax,%rdi
   19715:	e8 9b 50 ff ff       	callq  e7b5 <func_1>
   1971a:	0f b7 05 03 a9 00 00 	movzwl 0xa903(%rip),%eax        # 24024 <g_17>
   19721:	0f b7 c0             	movzwl %ax,%eax
   19724:	8b 55 f4             	mov    -0xc(%rbp),%edx
   19727:	48 8d 35 d4 6c 00 00 	lea    0x6cd4(%rip),%rsi        # 20402 <g_5046+0xce2>
   1972e:	48 89 c7             	mov    %rax,%rdi
   19731:	e8 bd 4f ff ff       	callq  e6f3 <transparent_crc>
   19736:	c7 45 e8 00 00 00 00 	movl   $0x0,-0x18(%rbp)
   1973d:	eb 6c                	jmp    197ab <main+0xfb>
   1973f:	c7 45 ec 00 00 00 00 	movl   $0x0,-0x14(%rbp)
   19746:	eb 59                	jmp    197a1 <main+0xf1>
   19748:	8b 45 ec             	mov    -0x14(%rbp),%eax
   1974b:	48 98                	cltq   
   1974d:	8b 55 e8             	mov    -0x18(%rbp),%edx
   19750:	48 63 d2             	movslq %edx,%rdx
   19753:	48 c1 e2 03          	shl    $0x3,%rdx
   19757:	48 01 d0             	add    %rdx,%rax
   1975a:	48 8d 14 00          	lea    (%rax,%rax,1),%rdx
   1975e:	48 8d 05 db a8 00 00 	lea    0xa8db(%rip),%rax        # 24040 <g_25>
   19765:	0f b7 04 02          	movzwl (%rdx,%rax,1),%eax
   19769:	0f b7 c0             	movzwl %ax,%eax
   1976c:	8b 55 f4             	mov    -0xc(%rbp),%edx
   1976f:	48 8d 35 91 6c 00 00 	lea    0x6c91(%rip),%rsi        # 20407 <g_5046+0xce7>
   19776:	48 89 c7             	mov    %rax,%rdi
   19779:	e8 75 4f ff ff       	callq  e6f3 <transparent_crc>
   1977e:	83 7d f4 00          	cmpl   $0x0,-0xc(%rbp)
   19782:	74 19                	je     1979d <main+0xed>
   19784:	8b 55 ec             	mov    -0x14(%rbp),%edx
   19787:	8b 45 e8             	mov    -0x18(%rbp),%eax
   1978a:	89 c6                	mov    %eax,%esi
   1978c:	48 8d 3d 7f 6c 00 00 	lea    0x6c7f(%rip),%rdi        # 20412 <g_5046+0xcf2>
   19793:	b8 00 00 00 00       	mov    $0x0,%eax
   19798:	e8 e3 38 ff ff       	callq  d080 <printf@plt>
   1979d:	83 45 ec 01          	addl   $0x1,-0x14(%rbp)
   197a1:	83 7d ec 07          	cmpl   $0x7,-0x14(%rbp)
   197a5:	7e a1                	jle    19748 <main+0x98>
   197a7:	83 45 e8 01          	addl   $0x1,-0x18(%rbp)
   197ab:	83 7d e8 07          	cmpl   $0x7,-0x18(%rbp)
   197af:	7e 8e                	jle    1973f <main+0x8f>
   197b1:	8b 05 09 a9 00 00    	mov    0xa909(%rip),%eax        # 240c0 <g_34>
   197b7:	48 98                	cltq   
   197b9:	8b 55 f4             	mov    -0xc(%rbp),%edx
   197bc:	48 8d 35 61 6c 00 00 	lea    0x6c61(%rip),%rsi        # 20424 <g_5046+0xd04>
   197c3:	48 89 c7             	mov    %rax,%rdi
   197c6:	e8 28 4f ff ff       	callq  e6f3 <transparent_crc>
   197cb:	8b 05 f3 a8 00 00    	mov    0xa8f3(%rip),%eax        # 240c4 <g_35>
   197d1:	48 98                	cltq   
   197d3:	8b 55 f4             	mov    -0xc(%rbp),%edx
   197d6:	48 8d 35 4c 6c 00 00 	lea    0x6c4c(%rip),%rsi        # 20429 <g_5046+0xd09>
   197dd:	48 89 c7             	mov    %rax,%rdi
   197e0:	e8 0e 4f ff ff       	callq  e6f3 <transparent_crc>
   197e5:	c7 45 e8 00 00 00 00 	movl   $0x0,-0x18(%rbp)
   197ec:	eb 4b                	jmp    19839 <main+0x189>
   197ee:	8b 45 e8             	mov    -0x18(%rbp),%eax
   197f1:	48 98                	cltq   
   197f3:	48 8d 14 85 00 00 00 	lea    0x0(,%rax,4),%rdx
   197fa:	00 
   197fb:	48 8d 05 c6 18 01 00 	lea    0x118c6(%rip),%rax        # 2b0c8 <g_36>
   19802:	8b 04 02             	mov    (%rdx,%rax,1),%eax
   19805:	48 98                	cltq   
   19807:	8b 55 f4             	mov    -0xc(%rbp),%edx
   1980a:	48 8d 35 1d 6c 00 00 	lea    0x6c1d(%rip),%rsi        # 2042e <g_5046+0xd0e>
   19811:	48 89 c7             	mov    %rax,%rdi
   19814:	e8 da 4e ff ff       	callq  e6f3 <transparent_crc>
   19819:	83 7d f4 00          	cmpl   $0x0,-0xc(%rbp)
   1981d:	74 16                	je     19835 <main+0x185>
   1981f:	8b 45 e8             	mov    -0x18(%rbp),%eax
   19822:	89 c6                	mov    %eax,%esi
   19824:	48 8d 3d 0b 6c 00 00 	lea    0x6c0b(%rip),%rdi        # 20436 <g_5046+0xd16>
   1982b:	b8 00 00 00 00       	mov    $0x0,%eax
   19830:	e8 4b 38 ff ff       	callq  d080 <printf@plt>
   19835:	83 45 e8 01          	addl   $0x1,-0x18(%rbp)
   19839:	83 7d e8 00          	cmpl   $0x0,-0x18(%rbp)
   1983d:	7e af                	jle    197ee <main+0x13e>
   1983f:	8b 05 83 a8 00 00    	mov    0xa883(%rip),%eax        # 240c8 <g_37>
   19845:	48 98                	cltq   
   19847:	8b 55 f4             	mov    -0xc(%rbp),%edx
   1984a:	48 8d 35 f3 6b 00 00 	lea    0x6bf3(%rip),%rsi        # 20444 <g_5046+0xd24>
   19851:	48 89 c7             	mov    %rax,%rdi
   19854:	e8 9a 4e ff ff       	callq  e6f3 <transparent_crc>
   19859:	8b 05 6d a8 00 00    	mov    0xa86d(%rip),%eax        # 240cc <g_38>
   1985f:	48 98                	cltq   
   19861:	8b 55 f4             	mov    -0xc(%rbp),%edx
   19864:	48 8d 35 de 6b 00 00 	lea    0x6bde(%rip),%rsi        # 20449 <g_5046+0xd29>
   1986b:	48 89 c7             	mov    %rax,%rdi
   1986e:	e8 80 4e ff ff       	callq  e6f3 <transparent_crc>
   19873:	8b 05 57 a8 00 00    	mov    0xa857(%rip),%eax        # 240d0 <g_39>
   19879:	48 98                	cltq   
   1987b:	8b 55 f4             	mov    -0xc(%rbp),%edx
   1987e:	48 8d 35 c9 6b 00 00 	lea    0x6bc9(%rip),%rsi        # 2044e <g_5046+0xd2e>
   19885:	48 89 c7             	mov    %rax,%rdi
   19888:	e8 66 4e ff ff       	callq  e6f3 <transparent_crc>
   1988d:	8b 05 41 a8 00 00    	mov    0xa841(%rip),%eax        # 240d4 <g_40>
   19893:	48 98                	cltq   
   19895:	8b 55 f4             	mov    -0xc(%rbp),%edx
   19898:	48 8d 35 b4 6b 00 00 	lea    0x6bb4(%rip),%rsi        # 20453 <g_5046+0xd33>
   1989f:	48 89 c7             	mov    %rax,%rdi
   198a2:	e8 4c 4e ff ff       	callq  e6f3 <transparent_crc>
   198a7:	0f b7 05 2a a8 00 00 	movzwl 0xa82a(%rip),%eax        # 240d8 <g_67>
   198ae:	0f b7 c0             	movzwl %ax,%eax
   198b1:	8b 55 f4             	mov    -0xc(%rbp),%edx
   198b4:	48 8d 35 9d 6b 00 00 	lea    0x6b9d(%rip),%rsi        # 20458 <g_5046+0xd38>
   198bb:	48 89 c7             	mov    %rax,%rdi
   198be:	e8 30 4e ff ff       	callq  e6f3 <transparent_crc>
   198c3:	c7 45 e8 00 00 00 00 	movl   $0x0,-0x18(%rbp)
   198ca:	eb 78                	jmp    19944 <main+0x294>
   198cc:	c7 45 ec 00 00 00 00 	movl   $0x0,-0x14(%rbp)
   198d3:	eb 65                	jmp    1993a <main+0x28a>
   198d5:	8b 45 ec             	mov    -0x14(%rbp),%eax
   198d8:	48 63 c8             	movslq %eax,%rcx
   198db:	8b 45 e8             	mov    -0x18(%rbp),%eax
   198de:	48 63 d0             	movslq %eax,%rdx
   198e1:	48 89 d0             	mov    %rdx,%rax
   198e4:	48 c1 e0 02          	shl    $0x2,%rax
   198e8:	48 01 d0             	add    %rdx,%rax
   198eb:	48 01 c0             	add    %rax,%rax
   198ee:	48 01 c8             	add    %rcx,%rax
   198f1:	48 8d 14 85 00 00 00 	lea    0x0(,%rax,4),%rdx
   198f8:	00 
   198f9:	48 8d 05 e0 a7 00 00 	lea    0xa7e0(%rip),%rax        # 240e0 <g_69>
   19900:	8b 04 02             	mov    (%rdx,%rax,1),%eax
   19903:	48 98                	cltq   
   19905:	8b 55 f4             	mov    -0xc(%rbp),%edx
   19908:	48 8d 35 4e 6b 00 00 	lea    0x6b4e(%rip),%rsi        # 2045d <g_5046+0xd3d>
   1990f:	48 89 c7             	mov    %rax,%rdi
   19912:	e8 dc 4d ff ff       	callq  e6f3 <transparent_crc>
   19917:	83 7d f4 00          	cmpl   $0x0,-0xc(%rbp)
   1991b:	74 19                	je     19936 <main+0x286>
   1991d:	8b 55 ec             	mov    -0x14(%rbp),%edx
   19920:	8b 45 e8             	mov    -0x18(%rbp),%eax
   19923:	89 c6                	mov    %eax,%esi
   19925:	48 8d 3d e6 6a 00 00 	lea    0x6ae6(%rip),%rdi        # 20412 <g_5046+0xcf2>
   1992c:	b8 00 00 00 00       	mov    $0x0,%eax
   19931:	e8 4a 37 ff ff       	callq  d080 <printf@plt>
   19936:	83 45 ec 01          	addl   $0x1,-0x14(%rbp)
   1993a:	83 7d ec 09          	cmpl   $0x9,-0x14(%rbp)
   1993e:	7e 95                	jle    198d5 <main+0x225>
   19940:	83 45 e8 01          	addl   $0x1,-0x18(%rbp)
   19944:	83 7d e8 05          	cmpl   $0x5,-0x18(%rbp)
   19948:	7e 82                	jle    198cc <main+0x21c>
   1994a:	0f b7 05 7b 17 01 00 	movzwl 0x1177b(%rip),%eax        # 2b0cc <g_73>
   19951:	0f b7 c0             	movzwl %ax,%eax
   19954:	8b 55 f4             	mov    -0xc(%rbp),%edx
   19957:	48 8d 35 0a 6b 00 00 	lea    0x6b0a(%rip),%rsi        # 20468 <g_5046+0xd48>
   1995e:	48 89 c7             	mov    %rax,%rdi
   19961:	e8 8d 4d ff ff       	callq  e6f3 <transparent_crc>
   19966:	0f b6 05 63 a8 00 00 	movzbl 0xa863(%rip),%eax        # 241d0 <g_82>
   1996d:	0f b6 c0             	movzbl %al,%eax
   19970:	8b 55 f4             	mov    -0xc(%rbp),%edx
   19973:	48 8d 35 f3 6a 00 00 	lea    0x6af3(%rip),%rsi        # 2046d <g_5046+0xd4d>
   1997a:	48 89 c7             	mov    %rax,%rdi
   1997d:	e8 71 4d ff ff       	callq  e6f3 <transparent_crc>
   19982:	0f b7 05 49 a8 00 00 	movzwl 0xa849(%rip),%eax        # 241d2 <g_96>
   19989:	0f b7 c0             	movzwl %ax,%eax
   1998c:	8b 55 f4             	mov    -0xc(%rbp),%edx
   1998f:	48 8d 35 dc 6a 00 00 	lea    0x6adc(%rip),%rsi        # 20472 <g_5046+0xd52>
   19996:	48 89 c7             	mov    %rax,%rdi
   19999:	e8 55 4d ff ff       	callq  e6f3 <transparent_crc>
   1999e:	8b 05 30 a8 00 00    	mov    0xa830(%rip),%eax        # 241d4 <g_102>
   199a4:	89 c1                	mov    %eax,%ecx
   199a6:	8b 45 f4             	mov    -0xc(%rbp),%eax
   199a9:	89 c2                	mov    %eax,%edx
   199ab:	48 8d 35 c5 6a 00 00 	lea    0x6ac5(%rip),%rsi        # 20477 <g_5046+0xd57>
   199b2:	48 89 cf             	mov    %rcx,%rdi
   199b5:	e8 39 4d ff ff       	callq  e6f3 <transparent_crc>
   199ba:	c7 45 e8 00 00 00 00 	movl   $0x0,-0x18(%rbp)
   199c1:	eb 74                	jmp    19a37 <main+0x387>
   199c3:	c7 45 ec 00 00 00 00 	movl   $0x0,-0x14(%rbp)
   199ca:	eb 61                	jmp    19a2d <main+0x37d>
   199cc:	8b 45 ec             	mov    -0x14(%rbp),%eax
   199cf:	48 63 c8             	movslq %eax,%rcx
   199d2:	8b 45 e8             	mov    -0x18(%rbp),%eax
   199d5:	48 63 d0             	movslq %eax,%rdx
   199d8:	48 89 d0             	mov    %rdx,%rax
   199db:	48 c1 e0 03          	shl    $0x3,%rax
   199df:	48 01 d0             	add    %rdx,%rax
   199e2:	48 01 c8             	add    %rcx,%rax
   199e5:	48 8d 14 00          	lea    (%rax,%rax,1),%rdx
   199e9:	48 8d 05 f0 a7 00 00 	lea    0xa7f0(%rip),%rax        # 241e0 <g_117>
   199f0:	0f b7 04 02          	movzwl (%rdx,%rax,1),%eax
   199f4:	48 0f bf c0          	movswq %ax,%rax
   199f8:	8b 55 f4             	mov    -0xc(%rbp),%edx
   199fb:	48 8d 35 7b 6a 00 00 	lea    0x6a7b(%rip),%rsi        # 2047d <g_5046+0xd5d>
   19a02:	48 89 c7             	mov    %rax,%rdi
   19a05:	e8 e9 4c ff ff       	callq  e6f3 <transparent_crc>
   19a0a:	83 7d f4 00          	cmpl   $0x0,-0xc(%rbp)
   19a0e:	74 19                	je     19a29 <main+0x379>
   19a10:	8b 55 ec             	mov    -0x14(%rbp),%edx
   19a13:	8b 45 e8             	mov    -0x18(%rbp),%eax
   19a16:	89 c6                	mov    %eax,%esi
   19a18:	48 8d 3d f3 69 00 00 	lea    0x69f3(%rip),%rdi        # 20412 <g_5046+0xcf2>
   19a1f:	b8 00 00 00 00       	mov    $0x0,%eax
   19a24:	e8 57 36 ff ff       	callq  d080 <printf@plt>
   19a29:	83 45 ec 01          	addl   $0x1,-0x14(%rbp)
   19a2d:	83 7d ec 08          	cmpl   $0x8,-0x14(%rbp)
   19a31:	7e 99                	jle    199cc <main+0x31c>
   19a33:	83 45 e8 01          	addl   $0x1,-0x18(%rbp)
   19a37:	83 7d e8 04          	cmpl   $0x4,-0x18(%rbp)
   19a3b:	7e 86                	jle    199c3 <main+0x313>
   19a3d:	0f b7 05 f6 a7 00 00 	movzwl 0xa7f6(%rip),%eax        # 2423a <g_120>
   19a44:	0f b7 c0             	movzwl %ax,%eax
   19a47:	8b 55 f4             	mov    -0xc(%rbp),%edx
   19a4a:	48 8d 35 38 6a 00 00 	lea    0x6a38(%rip),%rsi        # 20489 <g_5046+0xd69>
   19a51:	48 89 c7             	mov    %rax,%rdi
   19a54:	e8 9a 4c ff ff       	callq  e6f3 <transparent_crc>
   19a59:	c7 45 e8 00 00 00 00 	movl   $0x0,-0x18(%rbp)
   19a60:	eb 69                	jmp    19acb <main+0x41b>
   19a62:	c7 45 ec 00 00 00 00 	movl   $0x0,-0x14(%rbp)
   19a69:	eb 56                	jmp    19ac1 <main+0x411>
   19a6b:	8b 45 ec             	mov    -0x14(%rbp),%eax
   19a6e:	48 63 d0             	movslq %eax,%rdx
   19a71:	8b 45 e8             	mov    -0x18(%rbp),%eax
   19a74:	48 98                	cltq   
   19a76:	48 01 d0             	add    %rdx,%rax
   19a79:	48 8d 14 c5 00 00 00 	lea    0x0(,%rax,8),%rdx
   19a80:	00 
   19a81:	48 8d 05 b8 a7 00 00 	lea    0xa7b8(%rip),%rax        # 24240 <g_121>
   19a88:	48 8b 04 02          	mov    (%rdx,%rax,1),%rax
   19a8c:	8b 55 f4             	mov    -0xc(%rbp),%edx
   19a8f:	48 8d 35 f9 69 00 00 	lea    0x69f9(%rip),%rsi        # 2048f <g_5046+0xd6f>
   19a96:	48 89 c7             	mov    %rax,%rdi
   19a99:	e8 55 4c ff ff       	callq  e6f3 <transparent_crc>
   19a9e:	83 7d f4 00          	cmpl   $0x0,-0xc(%rbp)
   19aa2:	74 19                	je     19abd <main+0x40d>
   19aa4:	8b 55 ec             	mov    -0x14(%rbp),%edx
   19aa7:	8b 45 e8             	mov    -0x18(%rbp),%eax
   19aaa:	89 c6                	mov    %eax,%esi
   19aac:	48 8d 3d 5f 69 00 00 	lea    0x695f(%rip),%rdi        # 20412 <g_5046+0xcf2>
   19ab3:	b8 00 00 00 00       	mov    $0x0,%eax
   19ab8:	e8 c3 35 ff ff       	callq  d080 <printf@plt>
   19abd:	83 45 ec 01          	addl   $0x1,-0x14(%rbp)
   19ac1:	83 7d ec 00          	cmpl   $0x0,-0x14(%rbp)
   19ac5:	7e a4                	jle    19a6b <main+0x3bb>
   19ac7:	83 45 e8 01          	addl   $0x1,-0x18(%rbp)
   19acb:	83 7d e8 07          	cmpl   $0x7,-0x18(%rbp)
   19acf:	7e 91                	jle    19a62 <main+0x3b2>
   19ad1:	c7 45 e8 00 00 00 00 	movl   $0x0,-0x18(%rbp)
   19ad8:	e9 0c 02 00 00       	jmpq   19ce9 <main+0x639>
   19add:	8b 45 e8             	mov    -0x18(%rbp),%eax
   19ae0:	48 63 d0             	movslq %eax,%rdx
   19ae3:	48 89 d0             	mov    %rdx,%rax
   19ae6:	48 01 c0             	add    %rax,%rax
   19ae9:	48 01 d0             	add    %rdx,%rax
   19aec:	48 c1 e0 03          	shl    $0x3,%rax
   19af0:	48 89 c2             	mov    %rax,%rdx
   19af3:	48 8d 05 86 a7 00 00 	lea    0xa786(%rip),%rax        # 24280 <g_128>
   19afa:	48 8b 04 02          	mov    (%rdx,%rax,1),%rax
   19afe:	c1 e0 0d             	shl    $0xd,%eax
   19b01:	c1 f8 0d             	sar    $0xd,%eax
   19b04:	48 98                	cltq   
   19b06:	8b 55 f4             	mov    -0xc(%rbp),%edx
   19b09:	48 8d 35 8b 69 00 00 	lea    0x698b(%rip),%rsi        # 2049b <g_5046+0xd7b>
   19b10:	48 89 c7             	mov    %rax,%rdi
   19b13:	e8 db 4b ff ff       	callq  e6f3 <transparent_crc>
   19b18:	8b 45 e8             	mov    -0x18(%rbp),%eax
   19b1b:	48 63 d0             	movslq %eax,%rdx
   19b1e:	48 89 d0             	mov    %rdx,%rax
   19b21:	48 01 c0             	add    %rax,%rax
   19b24:	48 01 d0             	add    %rdx,%rax
   19b27:	48 c1 e0 03          	shl    $0x3,%rax
   19b2b:	48 89 c2             	mov    %rax,%rdx
   19b2e:	48 8d 05 4b a7 00 00 	lea    0xa74b(%rip),%rax        # 24280 <g_128>
   19b35:	48 8b 04 02          	mov    (%rdx,%rax,1),%rax
   19b39:	48 c1 e0 02          	shl    $0x2,%rax
   19b3d:	48 c1 f8 22          	sar    $0x22,%rax
   19b41:	48 98                	cltq   
   19b43:	8b 55 f4             	mov    -0xc(%rbp),%edx
   19b46:	48 8d 35 5a 69 00 00 	lea    0x695a(%rip),%rsi        # 204a7 <g_5046+0xd87>
   19b4d:	48 89 c7             	mov    %rax,%rdi
   19b50:	e8 9e 4b ff ff       	callq  e6f3 <transparent_crc>
   19b55:	8b 45 e8             	mov    -0x18(%rbp),%eax
   19b58:	48 63 d0             	movslq %eax,%rdx
   19b5b:	48 89 d0             	mov    %rdx,%rax
   19b5e:	48 01 c0             	add    %rax,%rax
   19b61:	48 01 d0             	add    %rdx,%rax
   19b64:	48 c1 e0 03          	shl    $0x3,%rax
   19b68:	48 89 c2             	mov    %rax,%rdx
   19b6b:	48 8d 05 0e a7 00 00 	lea    0xa70e(%rip),%rax        # 24280 <g_128>
   19b72:	48 8b 44 02 08       	mov    0x8(%rdx,%rax,1),%rax
   19b77:	c1 e0 07             	shl    $0x7,%eax
   19b7a:	66 c1 f8 07          	sar    $0x7,%ax
   19b7e:	48 0f bf c0          	movswq %ax,%rax
   19b82:	8b 55 f4             	mov    -0xc(%rbp),%edx
   19b85:	48 8d 35 27 69 00 00 	lea    0x6927(%rip),%rsi        # 204b3 <g_5046+0xd93>
   19b8c:	48 89 c7             	mov    %rax,%rdi
   19b8f:	e8 5f 4b ff ff       	callq  e6f3 <transparent_crc>
   19b94:	8b 45 e8             	mov    -0x18(%rbp),%eax
   19b97:	48 63 d0             	movslq %eax,%rdx
   19b9a:	48 89 d0             	mov    %rdx,%rax
   19b9d:	48 01 c0             	add    %rax,%rax
   19ba0:	48 01 d0             	add    %rdx,%rax
   19ba3:	48 c1 e0 03          	shl    $0x3,%rax
   19ba7:	48 89 c2             	mov    %rax,%rdx
   19baa:	48 8d 05 cf a6 00 00 	lea    0xa6cf(%rip),%rax        # 24280 <g_128>
   19bb1:	48 8b 44 02 08       	mov    0x8(%rdx,%rax,1),%rax
   19bb6:	c1 e0 07             	shl    $0x7,%eax
   19bb9:	c1 f8 10             	sar    $0x10,%eax
   19bbc:	48 0f bf c0          	movswq %ax,%rax
   19bc0:	8b 55 f4             	mov    -0xc(%rbp),%edx
   19bc3:	48 8d 35 f5 68 00 00 	lea    0x68f5(%rip),%rsi        # 204bf <g_5046+0xd9f>
   19bca:	48 89 c7             	mov    %rax,%rdi
   19bcd:	e8 21 4b ff ff       	callq  e6f3 <transparent_crc>
   19bd2:	8b 45 e8             	mov    -0x18(%rbp),%eax
   19bd5:	48 63 d0             	movslq %eax,%rdx
   19bd8:	48 89 d0             	mov    %rdx,%rax
   19bdb:	48 01 c0             	add    %rax,%rax
   19bde:	48 01 d0             	add    %rdx,%rax
   19be1:	48 c1 e0 03          	shl    $0x3,%rax
   19be5:	48 89 c2             	mov    %rax,%rdx
   19be8:	48 8d 05 91 a6 00 00 	lea    0xa691(%rip),%rax        # 24280 <g_128>
   19bef:	48 8b 44 02 08       	mov    0x8(%rdx,%rax,1),%rax
   19bf4:	c1 e0 06             	shl    $0x6,%eax
   19bf7:	c1 f8 1f             	sar    $0x1f,%eax
   19bfa:	48 0f be c0          	movsbq %al,%rax
   19bfe:	8b 55 f4             	mov    -0xc(%rbp),%edx
   19c01:	48 8d 35 c3 68 00 00 	lea    0x68c3(%rip),%rsi        # 204cb <g_5046+0xdab>
   19c08:	48 89 c7             	mov    %rax,%rdi
   19c0b:	e8 e3 4a ff ff       	callq  e6f3 <transparent_crc>
   19c10:	8b 45 e8             	mov    -0x18(%rbp),%eax
   19c13:	48 63 d0             	movslq %eax,%rdx
   19c16:	48 89 d0             	mov    %rdx,%rax
   19c19:	48 01 c0             	add    %rax,%rax
   19c1c:	48 01 d0             	add    %rdx,%rax
   19c1f:	48 c1 e0 03          	shl    $0x3,%rax
   19c23:	48 89 c2             	mov    %rax,%rdx
   19c26:	48 8d 05 53 a6 00 00 	lea    0xa653(%rip),%rax        # 24280 <g_128>
   19c2d:	48 8b 44 02 08       	mov    0x8(%rdx,%rax,1),%rax
   19c32:	48 c1 e8 20          	shr    $0x20,%rax
   19c36:	25 ff ff 3f 00       	and    $0x3fffff,%eax
   19c3b:	89 c1                	mov    %eax,%ecx
   19c3d:	8b 45 f4             	mov    -0xc(%rbp),%eax
   19c40:	89 c2                	mov    %eax,%edx
   19c42:	48 8d 35 8e 68 00 00 	lea    0x688e(%rip),%rsi        # 204d7 <g_5046+0xdb7>
   19c49:	48 89 cf             	mov    %rcx,%rdi
   19c4c:	e8 a2 4a ff ff       	callq  e6f3 <transparent_crc>
   19c51:	8b 45 e8             	mov    -0x18(%rbp),%eax
   19c54:	48 63 d0             	movslq %eax,%rdx
   19c57:	48 89 d0             	mov    %rdx,%rax
   19c5a:	48 01 c0             	add    %rax,%rax
   19c5d:	48 01 d0             	add    %rdx,%rax
   19c60:	48 c1 e0 03          	shl    $0x3,%rax
   19c64:	48 89 c2             	mov    %rax,%rdx
   19c67:	48 8d 05 22 a6 00 00 	lea    0xa622(%rip),%rax        # 24290 <g_128+0x10>
   19c6e:	48 8b 04 02          	mov    (%rdx,%rax,1),%rax
   19c72:	c1 e0 03             	shl    $0x3,%eax
   19c75:	c1 f8 03             	sar    $0x3,%eax
   19c78:	48 98                	cltq   
   19c7a:	8b 55 f4             	mov    -0xc(%rbp),%edx
   19c7d:	48 8d 35 5f 68 00 00 	lea    0x685f(%rip),%rsi        # 204e3 <g_5046+0xdc3>
   19c84:	48 89 c7             	mov    %rax,%rdi
   19c87:	e8 67 4a ff ff       	callq  e6f3 <transparent_crc>
   19c8c:	8b 45 e8             	mov    -0x18(%rbp),%eax
   19c8f:	48 63 d0             	movslq %eax,%rdx
   19c92:	48 89 d0             	mov    %rdx,%rax
   19c95:	48 01 c0             	add    %rax,%rax
   19c98:	48 01 d0             	add    %rdx,%rax
   19c9b:	48 c1 e0 03          	shl    $0x3,%rax
   19c9f:	48 89 c2             	mov    %rax,%rdx
   19ca2:	48 8d 05 e7 a5 00 00 	lea    0xa5e7(%rip),%rax        # 24290 <g_128+0x10>
   19ca9:	48 8b 04 02          	mov    (%rdx,%rax,1),%rax
   19cad:	48 c1 e0 04          	shl    $0x4,%rax
   19cb1:	48 c1 f8 24          	sar    $0x24,%rax
   19cb5:	48 98                	cltq   
   19cb7:	8b 55 f4             	mov    -0xc(%rbp),%edx
   19cba:	48 8d 35 2e 68 00 00 	lea    0x682e(%rip),%rsi        # 204ef <g_5046+0xdcf>
   19cc1:	48 89 c7             	mov    %rax,%rdi
   19cc4:	e8 2a 4a ff ff       	callq  e6f3 <transparent_crc>
   19cc9:	83 7d f4 00          	cmpl   $0x0,-0xc(%rbp)
   19ccd:	74 16                	je     19ce5 <main+0x635>
   19ccf:	8b 45 e8             	mov    -0x18(%rbp),%eax
   19cd2:	89 c6                	mov    %eax,%esi
   19cd4:	48 8d 3d 5b 67 00 00 	lea    0x675b(%rip),%rdi        # 20436 <g_5046+0xd16>
   19cdb:	b8 00 00 00 00       	mov    $0x0,%eax
   19ce0:	e8 9b 33 ff ff       	callq  d080 <printf@plt>
   19ce5:	83 45 e8 01          	addl   $0x1,-0x18(%rbp)
   19ce9:	83 7d e8 07          	cmpl   $0x7,-0x18(%rbp)
   19ced:	0f 8e ea fd ff ff    	jle    19add <main+0x42d>
   19cf3:	48 8b 05 46 a6 00 00 	mov    0xa646(%rip),%rax        # 24340 <g_132>
   19cfa:	48 89 c1             	mov    %rax,%rcx
   19cfd:	8b 45 f4             	mov    -0xc(%rbp),%eax
   19d00:	89 c2                	mov    %eax,%edx
   19d02:	48 8d 35 f2 67 00 00 	lea    0x67f2(%rip),%rsi        # 204fb <g_5046+0xddb>
   19d09:	48 89 cf             	mov    %rcx,%rdi
   19d0c:	e8 e2 49 ff ff       	callq  e6f3 <transparent_crc>
   19d11:	48 8b 05 30 a6 00 00 	mov    0xa630(%rip),%rax        # 24348 <g_138>
   19d18:	48 89 c1             	mov    %rax,%rcx
   19d1b:	8b 45 f4             	mov    -0xc(%rbp),%eax
   19d1e:	89 c2                	mov    %eax,%edx
   19d20:	48 8d 35 da 67 00 00 	lea    0x67da(%rip),%rsi        # 20501 <g_5046+0xde1>
   19d27:	48 89 cf             	mov    %rcx,%rdi
   19d2a:	e8 c4 49 ff ff       	callq  e6f3 <transparent_crc>
   19d2f:	8b 05 1b a6 00 00    	mov    0xa61b(%rip),%eax        # 24350 <g_164>
   19d35:	48 98                	cltq   
   19d37:	8b 55 f4             	mov    -0xc(%rbp),%edx
   19d3a:	48 8d 35 c6 67 00 00 	lea    0x67c6(%rip),%rsi        # 20507 <g_5046+0xde7>
   19d41:	48 89 c7             	mov    %rax,%rdi
   19d44:	e8 aa 49 ff ff       	callq  e6f3 <transparent_crc>
   19d49:	8b 05 89 13 01 00    	mov    0x11389(%rip),%eax        # 2b0d8 <g_166>
   19d4f:	48 98                	cltq   
   19d51:	8b 55 f4             	mov    -0xc(%rbp),%edx
   19d54:	48 8d 35 b2 67 00 00 	lea    0x67b2(%rip),%rsi        # 2050d <g_5046+0xded>
   19d5b:	48 89 c7             	mov    %rax,%rdi
   19d5e:	e8 90 49 ff ff       	callq  e6f3 <transparent_crc>
   19d63:	48 8b 05 76 13 01 00 	mov    0x11376(%rip),%rax        # 2b0e0 <g_180>
   19d6a:	48 89 c1             	mov    %rax,%rcx
   19d6d:	8b 45 f4             	mov    -0xc(%rbp),%eax
   19d70:	89 c2                	mov    %eax,%edx
   19d72:	48 8d 35 9a 67 00 00 	lea    0x679a(%rip),%rsi        # 20513 <g_5046+0xdf3>
   19d79:	48 89 cf             	mov    %rcx,%rdi
   19d7c:	e8 72 49 ff ff       	callq  e6f3 <transparent_crc>
   19d81:	48 8b 05 d8 a5 00 00 	mov    0xa5d8(%rip),%rax        # 24360 <g_182>
   19d88:	c1 e0 0d             	shl    $0xd,%eax
   19d8b:	c1 f8 0d             	sar    $0xd,%eax
   19d8e:	48 98                	cltq   
   19d90:	8b 55 f4             	mov    -0xc(%rbp),%edx
   19d93:	48 8d 35 7f 67 00 00 	lea    0x677f(%rip),%rsi        # 20519 <g_5046+0xdf9>
   19d9a:	48 89 c7             	mov    %rax,%rdi
   19d9d:	e8 51 49 ff ff       	callq  e6f3 <transparent_crc>
   19da2:	8b 05 bc a5 00 00    	mov    0xa5bc(%rip),%eax        # 24364 <g_182+0x4>
   19da8:	c1 e0 02             	shl    $0x2,%eax
   19dab:	c1 f8 02             	sar    $0x2,%eax
   19dae:	48 98                	cltq   
   19db0:	8b 55 f4             	mov    -0xc(%rbp),%edx
   19db3:	48 8d 35 68 67 00 00 	lea    0x6768(%rip),%rsi        # 20522 <g_5046+0xe02>
   19dba:	48 89 c7             	mov    %rax,%rdi
   19dbd:	e8 31 49 ff ff       	callq  e6f3 <transparent_crc>
   19dc2:	0f b7 05 9f a5 00 00 	movzwl 0xa59f(%rip),%eax        # 24368 <g_182+0x8>
   19dc9:	c1 e0 07             	shl    $0x7,%eax
   19dcc:	66 c1 f8 07          	sar    $0x7,%ax
   19dd0:	48 0f bf c0          	movswq %ax,%rax
   19dd4:	8b 55 f4             	mov    -0xc(%rbp),%edx
   19dd7:	48 8d 35 4d 67 00 00 	lea    0x674d(%rip),%rsi        # 2052b <g_5046+0xe0b>
   19dde:	48 89 c7             	mov    %rax,%rdi
   19de1:	e8 0d 49 ff ff       	callq  e6f3 <transparent_crc>
   19de6:	8b 05 7c a5 00 00    	mov    0xa57c(%rip),%eax        # 24368 <g_182+0x8>
   19dec:	c1 e0 07             	shl    $0x7,%eax
   19def:	c1 f8 10             	sar    $0x10,%eax
   19df2:	48 0f bf c0          	movswq %ax,%rax
   19df6:	8b 55 f4             	mov    -0xc(%rbp),%edx
   19df9:	48 8d 35 34 67 00 00 	lea    0x6734(%rip),%rsi        # 20534 <g_5046+0xe14>
   19e00:	48 89 c7             	mov    %rax,%rdi
   19e03:	e8 eb 48 ff ff       	callq  e6f3 <transparent_crc>
   19e08:	0f b6 05 5c a5 00 00 	movzbl 0xa55c(%rip),%eax        # 2436b <g_182+0xb>
   19e0f:	c1 e0 06             	shl    $0x6,%eax
   19e12:	c0 f8 07             	sar    $0x7,%al
   19e15:	48 0f be c0          	movsbq %al,%rax
   19e19:	8b 55 f4             	mov    -0xc(%rbp),%edx
   19e1c:	48 8d 35 1a 67 00 00 	lea    0x671a(%rip),%rsi        # 2053d <g_5046+0xe1d>
   19e23:	48 89 c7             	mov    %rax,%rdi
   19e26:	e8 c8 48 ff ff       	callq  e6f3 <transparent_crc>
   19e2b:	8b 05 3b a5 00 00    	mov    0xa53b(%rip),%eax        # 2436c <g_182+0xc>
   19e31:	25 ff ff 3f 00       	and    $0x3fffff,%eax
   19e36:	89 c1                	mov    %eax,%ecx
   19e38:	8b 45 f4             	mov    -0xc(%rbp),%eax
   19e3b:	89 c2                	mov    %eax,%edx
   19e3d:	48 8d 35 02 67 00 00 	lea    0x6702(%rip),%rsi        # 20546 <g_5046+0xe26>
   19e44:	48 89 cf             	mov    %rcx,%rdi
   19e47:	e8 a7 48 ff ff       	callq  e6f3 <transparent_crc>
   19e4c:	48 8b 05 1d a5 00 00 	mov    0xa51d(%rip),%rax        # 24370 <g_182+0x10>
   19e53:	c1 e0 03             	shl    $0x3,%eax
   19e56:	c1 f8 03             	sar    $0x3,%eax
   19e59:	48 98                	cltq   
   19e5b:	8b 55 f4             	mov    -0xc(%rbp),%edx
   19e5e:	48 8d 35 ea 66 00 00 	lea    0x66ea(%rip),%rsi        # 2054f <g_5046+0xe2f>
   19e65:	48 89 c7             	mov    %rax,%rdi
   19e68:	e8 86 48 ff ff       	callq  e6f3 <transparent_crc>
   19e6d:	8b 05 01 a5 00 00    	mov    0xa501(%rip),%eax        # 24374 <g_182+0x14>
   19e73:	c1 e0 04             	shl    $0x4,%eax
   19e76:	c1 f8 04             	sar    $0x4,%eax
   19e79:	48 98                	cltq   
   19e7b:	8b 55 f4             	mov    -0xc(%rbp),%edx
   19e7e:	48 8d 35 d3 66 00 00 	lea    0x66d3(%rip),%rsi        # 20558 <g_5046+0xe38>
   19e85:	48 89 c7             	mov    %rax,%rdi
   19e88:	e8 66 48 ff ff       	callq  e6f3 <transparent_crc>
   19e8d:	8b 05 e5 a4 00 00    	mov    0xa4e5(%rip),%eax        # 24378 <g_262>
   19e93:	89 c1                	mov    %eax,%ecx
   19e95:	8b 45 f4             	mov    -0xc(%rbp),%eax
   19e98:	89 c2                	mov    %eax,%edx
   19e9a:	48 8d 35 c0 66 00 00 	lea    0x66c0(%rip),%rsi        # 20561 <g_5046+0xe41>
   19ea1:	48 89 cf             	mov    %rcx,%rdi
   19ea4:	e8 4a 48 ff ff       	callq  e6f3 <transparent_crc>
   19ea9:	c7 45 e8 00 00 00 00 	movl   $0x0,-0x18(%rbp)
   19eb0:	e9 ce 02 00 00       	jmpq   1a183 <main+0xad3>
   19eb5:	c7 45 ec 00 00 00 00 	movl   $0x0,-0x14(%rbp)
   19ebc:	e9 b4 02 00 00       	jmpq   1a175 <main+0xac5>
   19ec1:	c7 45 f0 00 00 00 00 	movl   $0x0,-0x10(%rbp)
   19ec8:	e9 9a 02 00 00       	jmpq   1a167 <main+0xab7>
   19ecd:	8b 45 f0             	mov    -0x10(%rbp),%eax
   19ed0:	48 63 c8             	movslq %eax,%rcx
   19ed3:	8b 45 ec             	mov    -0x14(%rbp),%eax
   19ed6:	48 63 d0             	movslq %eax,%rdx
   19ed9:	8b 45 e8             	mov    -0x18(%rbp),%eax
   19edc:	48 98                	cltq   
   19ede:	48 01 ca             	add    %rcx,%rdx
   19ee1:	48 01 c2             	add    %rax,%rdx
   19ee4:	48 89 d0             	mov    %rdx,%rax
   19ee7:	48 01 c0             	add    %rax,%rax
   19eea:	48 01 d0             	add    %rdx,%rax
   19eed:	48 c1 e0 03          	shl    $0x3,%rax
   19ef1:	48 89 c2             	mov    %rax,%rdx
   19ef4:	48 8d 05 85 a4 00 00 	lea    0xa485(%rip),%rax        # 24380 <g_277>
   19efb:	48 8b 04 02          	mov    (%rdx,%rax,1),%rax
   19eff:	c1 e0 0d             	shl    $0xd,%eax
   19f02:	c1 f8 0d             	sar    $0xd,%eax
   19f05:	48 98                	cltq   
   19f07:	8b 55 f4             	mov    -0xc(%rbp),%edx
   19f0a:	48 8d 35 56 66 00 00 	lea    0x6656(%rip),%rsi        # 20567 <g_5046+0xe47>
   19f11:	48 89 c7             	mov    %rax,%rdi
   19f14:	e8 da 47 ff ff       	callq  e6f3 <transparent_crc>
   19f19:	8b 45 f0             	mov    -0x10(%rbp),%eax
   19f1c:	48 63 c8             	movslq %eax,%rcx
   19f1f:	8b 45 ec             	mov    -0x14(%rbp),%eax
   19f22:	48 63 d0             	movslq %eax,%rdx
   19f25:	8b 45 e8             	mov    -0x18(%rbp),%eax
   19f28:	48 98                	cltq   
   19f2a:	48 01 ca             	add    %rcx,%rdx
   19f2d:	48 01 c2             	add    %rax,%rdx
   19f30:	48 89 d0             	mov    %rdx,%rax
   19f33:	48 01 c0             	add    %rax,%rax
   19f36:	48 01 d0             	add    %rdx,%rax
   19f39:	48 c1 e0 03          	shl    $0x3,%rax
   19f3d:	48 89 c2             	mov    %rax,%rdx
   19f40:	48 8d 05 39 a4 00 00 	lea    0xa439(%rip),%rax        # 24380 <g_277>
   19f47:	48 8b 04 02          	mov    (%rdx,%rax,1),%rax
   19f4b:	48 c1 e0 02          	shl    $0x2,%rax
   19f4f:	48 c1 f8 22          	sar    $0x22,%rax
   19f53:	48 98                	cltq   
   19f55:	8b 55 f4             	mov    -0xc(%rbp),%edx
   19f58:	48 8d 35 1a 66 00 00 	lea    0x661a(%rip),%rsi        # 20579 <g_5046+0xe59>
   19f5f:	48 89 c7             	mov    %rax,%rdi
   19f62:	e8 8c 47 ff ff       	callq  e6f3 <transparent_crc>
   19f67:	8b 45 f0             	mov    -0x10(%rbp),%eax
   19f6a:	48 63 c8             	movslq %eax,%rcx
   19f6d:	8b 45 ec             	mov    -0x14(%rbp),%eax
   19f70:	48 63 d0             	movslq %eax,%rdx
   19f73:	8b 45 e8             	mov    -0x18(%rbp),%eax
   19f76:	48 98                	cltq   
   19f78:	48 01 ca             	add    %rcx,%rdx
   19f7b:	48 01 c2             	add    %rax,%rdx
   19f7e:	48 89 d0             	mov    %rdx,%rax
   19f81:	48 01 c0             	add    %rax,%rax
   19f84:	48 01 d0             	add    %rdx,%rax
   19f87:	48 c1 e0 03          	shl    $0x3,%rax
   19f8b:	48 89 c2             	mov    %rax,%rdx
   19f8e:	48 8d 05 eb a3 00 00 	lea    0xa3eb(%rip),%rax        # 24380 <g_277>
   19f95:	48 8b 44 02 08       	mov    0x8(%rdx,%rax,1),%rax
   19f9a:	c1 e0 07             	shl    $0x7,%eax
   19f9d:	66 c1 f8 07          	sar    $0x7,%ax
   19fa1:	48 0f bf c0          	movswq %ax,%rax
   19fa5:	8b 55 f4             	mov    -0xc(%rbp),%edx
   19fa8:	48 8d 35 dc 65 00 00 	lea    0x65dc(%rip),%rsi        # 2058b <g_5046+0xe6b>
   19faf:	48 89 c7             	mov    %rax,%rdi
   19fb2:	e8 3c 47 ff ff       	callq  e6f3 <transparent_crc>
   19fb7:	8b 45 f0             	mov    -0x10(%rbp),%eax
   19fba:	48 63 c8             	movslq %eax,%rcx
   19fbd:	8b 45 ec             	mov    -0x14(%rbp),%eax
   19fc0:	48 63 d0             	movslq %eax,%rdx
   19fc3:	8b 45 e8             	mov    -0x18(%rbp),%eax
   19fc6:	48 98                	cltq   
   19fc8:	48 01 ca             	add    %rcx,%rdx
   19fcb:	48 01 c2             	add    %rax,%rdx
   19fce:	48 89 d0             	mov    %rdx,%rax
   19fd1:	48 01 c0             	add    %rax,%rax
   19fd4:	48 01 d0             	add    %rdx,%rax
   19fd7:	48 c1 e0 03          	shl    $0x3,%rax
   19fdb:	48 89 c2             	mov    %rax,%rdx
   19fde:	48 8d 05 9b a3 00 00 	lea    0xa39b(%rip),%rax        # 24380 <g_277>
   19fe5:	48 8b 44 02 08       	mov    0x8(%rdx,%rax,1),%rax
   19fea:	c1 e0 07             	shl    $0x7,%eax
   19fed:	c1 f8 10             	sar    $0x10,%eax
   19ff0:	48 0f bf c0          	movswq %ax,%rax
   19ff4:	8b 55 f4             	mov    -0xc(%rbp),%edx
   19ff7:	48 8d 35 9f 65 00 00 	lea    0x659f(%rip),%rsi        # 2059d <g_5046+0xe7d>
   19ffe:	48 89 c7             	mov    %rax,%rdi
   1a001:	e8 ed 46 ff ff       	callq  e6f3 <transparent_crc>
   1a006:	8b 45 f0             	mov    -0x10(%rbp),%eax
   1a009:	48 63 c8             	movslq %eax,%rcx
   1a00c:	8b 45 ec             	mov    -0x14(%rbp),%eax
   1a00f:	48 63 d0             	movslq %eax,%rdx
   1a012:	8b 45 e8             	mov    -0x18(%rbp),%eax
   1a015:	48 98                	cltq   
   1a017:	48 01 ca             	add    %rcx,%rdx
   1a01a:	48 01 c2             	add    %rax,%rdx
   1a01d:	48 89 d0             	mov    %rdx,%rax
   1a020:	48 01 c0             	add    %rax,%rax
   1a023:	48 01 d0             	add    %rdx,%rax
   1a026:	48 c1 e0 03          	shl    $0x3,%rax
   1a02a:	48 89 c2             	mov    %rax,%rdx
   1a02d:	48 8d 05 4c a3 00 00 	lea    0xa34c(%rip),%rax        # 24380 <g_277>
   1a034:	48 8b 44 02 08       	mov    0x8(%rdx,%rax,1),%rax
   1a039:	c1 e0 06             	shl    $0x6,%eax
   1a03c:	c1 f8 1f             	sar    $0x1f,%eax
   1a03f:	48 0f be c0          	movsbq %al,%rax
   1a043:	8b 55 f4             	mov    -0xc(%rbp),%edx
   1a046:	48 8d 35 62 65 00 00 	lea    0x6562(%rip),%rsi        # 205af <g_5046+0xe8f>
   1a04d:	48 89 c7             	mov    %rax,%rdi
   1a050:	e8 9e 46 ff ff       	callq  e6f3 <transparent_crc>
   1a055:	8b 45 f0             	mov    -0x10(%rbp),%eax
   1a058:	48 63 c8             	movslq %eax,%rcx
   1a05b:	8b 45 ec             	mov    -0x14(%rbp),%eax
   1a05e:	48 63 d0             	movslq %eax,%rdx
   1a061:	8b 45 e8             	mov    -0x18(%rbp),%eax
   1a064:	48 98                	cltq   
   1a066:	48 01 ca             	add    %rcx,%rdx
   1a069:	48 01 c2             	add    %rax,%rdx
   1a06c:	48 89 d0             	mov    %rdx,%rax
   1a06f:	48 01 c0             	add    %rax,%rax
   1a072:	48 01 d0             	add    %rdx,%rax
   1a075:	48 c1 e0 03          	shl    $0x3,%rax
   1a079:	48 89 c2             	mov    %rax,%rdx
   1a07c:	48 8d 05 fd a2 00 00 	lea    0xa2fd(%rip),%rax        # 24380 <g_277>
   1a083:	48 8b 44 02 08       	mov    0x8(%rdx,%rax,1),%rax
   1a088:	48 c1 e8 20          	shr    $0x20,%rax
   1a08c:	25 ff ff 3f 00       	and    $0x3fffff,%eax
   1a091:	89 c1                	mov    %eax,%ecx
   1a093:	8b 45 f4             	mov    -0xc(%rbp),%eax
   1a096:	89 c2                	mov    %eax,%edx
   1a098:	48 8d 35 22 65 00 00 	lea    0x6522(%rip),%rsi        # 205c1 <g_5046+0xea1>
   1a09f:	48 89 cf             	mov    %rcx,%rdi
   1a0a2:	e8 4c 46 ff ff       	callq  e6f3 <transparent_crc>
   1a0a7:	8b 45 f0             	mov    -0x10(%rbp),%eax
   1a0aa:	48 63 c8             	movslq %eax,%rcx
   1a0ad:	8b 45 ec             	mov    -0x14(%rbp),%eax
   1a0b0:	48 63 d0             	movslq %eax,%rdx
   1a0b3:	8b 45 e8             	mov    -0x18(%rbp),%eax
   1a0b6:	48 98                	cltq   
   1a0b8:	48 01 ca             	add    %rcx,%rdx
   1a0bb:	48 01 c2             	add    %rax,%rdx
   1a0be:	48 89 d0             	mov    %rdx,%rax
   1a0c1:	48 01 c0             	add    %rax,%rax
   1a0c4:	48 01 d0             	add    %rdx,%rax
   1a0c7:	48 c1 e0 03          	shl    $0x3,%rax
   1a0cb:	48 89 c2             	mov    %rax,%rdx
   1a0ce:	48 8d 05 bb a2 00 00 	lea    0xa2bb(%rip),%rax        # 24390 <g_277+0x10>
   1a0d5:	48 8b 04 02          	mov    (%rdx,%rax,1),%rax
   1a0d9:	c1 e0 03             	shl    $0x3,%eax
   1a0dc:	c1 f8 03             	sar    $0x3,%eax
   1a0df:	48 98                	cltq   
   1a0e1:	8b 55 f4             	mov    -0xc(%rbp),%edx
   1a0e4:	48 8d 35 e8 64 00 00 	lea    0x64e8(%rip),%rsi        # 205d3 <g_5046+0xeb3>
   1a0eb:	48 89 c7             	mov    %rax,%rdi
   1a0ee:	e8 00 46 ff ff       	callq  e6f3 <transparent_crc>
   1a0f3:	8b 45 f0             	mov    -0x10(%rbp),%eax
   1a0f6:	48 63 c8             	movslq %eax,%rcx
   1a0f9:	8b 45 ec             	mov    -0x14(%rbp),%eax
   1a0fc:	48 63 d0             	movslq %eax,%rdx
   1a0ff:	8b 45 e8             	mov    -0x18(%rbp),%eax
   1a102:	48 98                	cltq   
   1a104:	48 01 ca             	add    %rcx,%rdx
   1a107:	48 01 c2             	add    %rax,%rdx
   1a10a:	48 89 d0             	mov    %rdx,%rax
   1a10d:	48 01 c0             	add    %rax,%rax
   1a110:	48 01 d0             	add    %rdx,%rax
   1a113:	48 c1 e0 03          	shl    $0x3,%rax
   1a117:	48 89 c2             	mov    %rax,%rdx
   1a11a:	48 8d 05 6f a2 00 00 	lea    0xa26f(%rip),%rax        # 24390 <g_277+0x10>
   1a121:	48 8b 04 02          	mov    (%rdx,%rax,1),%rax
   1a125:	48 c1 e0 04          	shl    $0x4,%rax
   1a129:	48 c1 f8 24          	sar    $0x24,%rax
   1a12d:	48 98                	cltq   
   1a12f:	8b 55 f4             	mov    -0xc(%rbp),%edx
   1a132:	48 8d 35 ac 64 00 00 	lea    0x64ac(%rip),%rsi        # 205e5 <g_5046+0xec5>
   1a139:	48 89 c7             	mov    %rax,%rdi
   1a13c:	e8 b2 45 ff ff       	callq  e6f3 <transparent_crc>
   1a141:	83 7d f4 00          	cmpl   $0x0,-0xc(%rbp)
   1a145:	74 1c                	je     1a163 <main+0xab3>
   1a147:	8b 4d f0             	mov    -0x10(%rbp),%ecx
   1a14a:	8b 55 ec             	mov    -0x14(%rbp),%edx
   1a14d:	8b 45 e8             	mov    -0x18(%rbp),%eax
   1a150:	89 c6                	mov    %eax,%esi
   1a152:	48 8d 3d 9e 64 00 00 	lea    0x649e(%rip),%rdi        # 205f7 <g_5046+0xed7>
   1a159:	b8 00 00 00 00       	mov    $0x0,%eax
   1a15e:	e8 1d 2f ff ff       	callq  d080 <printf@plt>
   1a163:	83 45 f0 01          	addl   $0x1,-0x10(%rbp)
   1a167:	83 7d f0 00          	cmpl   $0x0,-0x10(%rbp)
   1a16b:	0f 8e 5c fd ff ff    	jle    19ecd <main+0x81d>
   1a171:	83 45 ec 01          	addl   $0x1,-0x14(%rbp)
   1a175:	83 7d ec 00          	cmpl   $0x0,-0x14(%rbp)
   1a179:	0f 8e 42 fd ff ff    	jle    19ec1 <main+0x811>
   1a17f:	83 45 e8 01          	addl   $0x1,-0x18(%rbp)
   1a183:	83 7d e8 07          	cmpl   $0x7,-0x18(%rbp)
   1a187:	0f 8e 28 fd ff ff    	jle    19eb5 <main+0x805>
   1a18d:	b8 5e a0 83 3d       	mov    $0x3d83a05e,%eax
   1a192:	48 98                	cltq   
   1a194:	8b 55 f4             	mov    -0xc(%rbp),%edx
   1a197:	48 8d 35 6f 64 00 00 	lea    0x646f(%rip),%rsi        # 2060d <g_5046+0xeed>
   1a19e:	48 89 c7             	mov    %rax,%rdi
   1a1a1:	e8 4d 45 ff ff       	callq  e6f3 <transparent_crc>
   1a1a6:	8b 05 94 a2 00 00    	mov    0xa294(%rip),%eax        # 24440 <g_309>
   1a1ac:	89 c1                	mov    %eax,%ecx
   1a1ae:	8b 45 f4             	mov    -0xc(%rbp),%eax
   1a1b1:	89 c2                	mov    %eax,%edx
   1a1b3:	48 8d 35 59 64 00 00 	lea    0x6459(%rip),%rsi        # 20613 <g_5046+0xef3>
   1a1ba:	48 89 cf             	mov    %rcx,%rdi
   1a1bd:	e8 31 45 ff ff       	callq  e6f3 <transparent_crc>
   1a1c2:	c7 45 e8 00 00 00 00 	movl   $0x0,-0x18(%rbp)
   1a1c9:	eb 4a                	jmp    1a215 <main+0xb65>
   1a1cb:	8b 45 e8             	mov    -0x18(%rbp),%eax
   1a1ce:	48 98                	cltq   
   1a1d0:	48 8d 14 c5 00 00 00 	lea    0x0(,%rax,8),%rdx
   1a1d7:	00 
   1a1d8:	48 8d 05 69 a2 00 00 	lea    0xa269(%rip),%rax        # 24448 <g_330>
   1a1df:	48 8b 04 02          	mov    (%rdx,%rax,1),%rax
   1a1e3:	8b 55 f4             	mov    -0xc(%rbp),%edx
   1a1e6:	48 8d 35 2c 64 00 00 	lea    0x642c(%rip),%rsi        # 20619 <g_5046+0xef9>
   1a1ed:	48 89 c7             	mov    %rax,%rdi
   1a1f0:	e8 fe 44 ff ff       	callq  e6f3 <transparent_crc>
   1a1f5:	83 7d f4 00          	cmpl   $0x0,-0xc(%rbp)
   1a1f9:	74 16                	je     1a211 <main+0xb61>
   1a1fb:	8b 45 e8             	mov    -0x18(%rbp),%eax
   1a1fe:	89 c6                	mov    %eax,%esi
   1a200:	48 8d 3d 2f 62 00 00 	lea    0x622f(%rip),%rdi        # 20436 <g_5046+0xd16>
   1a207:	b8 00 00 00 00       	mov    $0x0,%eax
   1a20c:	e8 6f 2e ff ff       	callq  d080 <printf@plt>
   1a211:	83 45 e8 01          	addl   $0x1,-0x18(%rbp)
   1a215:	83 7d e8 00          	cmpl   $0x0,-0x18(%rbp)
   1a219:	7e b0                	jle    1a1cb <main+0xb1b>
   1a21b:	48 8b 05 2e a2 00 00 	mov    0xa22e(%rip),%rax        # 24450 <g_333>
   1a222:	8b 55 f4             	mov    -0xc(%rbp),%edx
   1a225:	48 8d 35 f6 63 00 00 	lea    0x63f6(%rip),%rsi        # 20622 <g_5046+0xf02>
   1a22c:	48 89 c7             	mov    %rax,%rdi
   1a22f:	e8 bf 44 ff ff       	callq  e6f3 <transparent_crc>
   1a234:	0f b6 05 1d a2 00 00 	movzbl 0xa21d(%rip),%eax        # 24458 <g_441>
   1a23b:	48 0f be c0          	movsbq %al,%rax
   1a23f:	8b 55 f4             	mov    -0xc(%rbp),%edx
   1a242:	48 8d 35 df 63 00 00 	lea    0x63df(%rip),%rsi        # 20628 <g_5046+0xf08>
   1a249:	48 89 c7             	mov    %rax,%rdi
   1a24c:	e8 a2 44 ff ff       	callq  e6f3 <transparent_crc>
   1a251:	48 8b 05 08 a2 00 00 	mov    0xa208(%rip),%rax        # 24460 <g_467>
   1a258:	c1 e0 0d             	shl    $0xd,%eax
   1a25b:	c1 f8 0d             	sar    $0xd,%eax
   1a25e:	48 98                	cltq   
   1a260:	8b 55 f4             	mov    -0xc(%rbp),%edx
   1a263:	48 8d 35 c4 63 00 00 	lea    0x63c4(%rip),%rsi        # 2062e <g_5046+0xf0e>
   1a26a:	48 89 c7             	mov    %rax,%rdi
   1a26d:	e8 81 44 ff ff       	callq  e6f3 <transparent_crc>
   1a272:	8b 05 ec a1 00 00    	mov    0xa1ec(%rip),%eax        # 24464 <g_467+0x4>
   1a278:	c1 e0 02             	shl    $0x2,%eax
   1a27b:	c1 f8 02             	sar    $0x2,%eax
   1a27e:	48 98                	cltq   
   1a280:	8b 55 f4             	mov    -0xc(%rbp),%edx
   1a283:	48 8d 35 ad 63 00 00 	lea    0x63ad(%rip),%rsi        # 20637 <g_5046+0xf17>
   1a28a:	48 89 c7             	mov    %rax,%rdi
   1a28d:	e8 61 44 ff ff       	callq  e6f3 <transparent_crc>
   1a292:	0f b7 05 cf a1 00 00 	movzwl 0xa1cf(%rip),%eax        # 24468 <g_467+0x8>
   1a299:	c1 e0 07             	shl    $0x7,%eax
   1a29c:	66 c1 f8 07          	sar    $0x7,%ax
   1a2a0:	48 0f bf c0          	movswq %ax,%rax
   1a2a4:	8b 55 f4             	mov    -0xc(%rbp),%edx
   1a2a7:	48 8d 35 92 63 00 00 	lea    0x6392(%rip),%rsi        # 20640 <g_5046+0xf20>
   1a2ae:	48 89 c7             	mov    %rax,%rdi
   1a2b1:	e8 3d 44 ff ff       	callq  e6f3 <transparent_crc>
   1a2b6:	8b 05 ac a1 00 00    	mov    0xa1ac(%rip),%eax        # 24468 <g_467+0x8>
   1a2bc:	c1 e0 07             	shl    $0x7,%eax
   1a2bf:	c1 f8 10             	sar    $0x10,%eax
   1a2c2:	48 0f bf c0          	movswq %ax,%rax
   1a2c6:	8b 55 f4             	mov    -0xc(%rbp),%edx
   1a2c9:	48 8d 35 79 63 00 00 	lea    0x6379(%rip),%rsi        # 20649 <g_5046+0xf29>
   1a2d0:	48 89 c7             	mov    %rax,%rdi
   1a2d3:	e8 1b 44 ff ff       	callq  e6f3 <transparent_crc>
   1a2d8:	0f b6 05 8c a1 00 00 	movzbl 0xa18c(%rip),%eax        # 2446b <g_467+0xb>
   1a2df:	c1 e0 06             	shl    $0x6,%eax
   1a2e2:	c0 f8 07             	sar    $0x7,%al
   1a2e5:	48 0f be c0          	movsbq %al,%rax
   1a2e9:	8b 55 f4             	mov    -0xc(%rbp),%edx
   1a2ec:	48 8d 35 5f 63 00 00 	lea    0x635f(%rip),%rsi        # 20652 <g_5046+0xf32>
   1a2f3:	48 89 c7             	mov    %rax,%rdi
   1a2f6:	e8 f8 43 ff ff       	callq  e6f3 <transparent_crc>
   1a2fb:	8b 05 6b a1 00 00    	mov    0xa16b(%rip),%eax        # 2446c <g_467+0xc>
   1a301:	25 ff ff 3f 00       	and    $0x3fffff,%eax
   1a306:	89 c1                	mov    %eax,%ecx
   1a308:	8b 45 f4             	mov    -0xc(%rbp),%eax
   1a30b:	89 c2                	mov    %eax,%edx
   1a30d:	48 8d 35 47 63 00 00 	lea    0x6347(%rip),%rsi        # 2065b <g_5046+0xf3b>
   1a314:	48 89 cf             	mov    %rcx,%rdi
   1a317:	e8 d7 43 ff ff       	callq  e6f3 <transparent_crc>
   1a31c:	48 8b 05 4d a1 00 00 	mov    0xa14d(%rip),%rax        # 24470 <g_467+0x10>
   1a323:	c1 e0 03             	shl    $0x3,%eax
   1a326:	c1 f8 03             	sar    $0x3,%eax
   1a329:	48 98                	cltq   
   1a32b:	8b 55 f4             	mov    -0xc(%rbp),%edx
   1a32e:	48 8d 35 2f 63 00 00 	lea    0x632f(%rip),%rsi        # 20664 <g_5046+0xf44>
   1a335:	48 89 c7             	mov    %rax,%rdi
   1a338:	e8 b6 43 ff ff       	callq  e6f3 <transparent_crc>
   1a33d:	8b 05 31 a1 00 00    	mov    0xa131(%rip),%eax        # 24474 <g_467+0x14>
   1a343:	c1 e0 04             	shl    $0x4,%eax
   1a346:	c1 f8 04             	sar    $0x4,%eax
   1a349:	48 98                	cltq   
   1a34b:	8b 55 f4             	mov    -0xc(%rbp),%edx
   1a34e:	48 8d 35 18 63 00 00 	lea    0x6318(%rip),%rsi        # 2066d <g_5046+0xf4d>
   1a355:	48 89 c7             	mov    %rax,%rdi
   1a358:	e8 96 43 ff ff       	callq  e6f3 <transparent_crc>
   1a35d:	8b 05 15 a1 00 00    	mov    0xa115(%rip),%eax        # 24478 <g_471>
   1a363:	89 c1                	mov    %eax,%ecx
   1a365:	8b 45 f4             	mov    -0xc(%rbp),%eax
   1a368:	89 c2                	mov    %eax,%edx
   1a36a:	48 8d 35 05 63 00 00 	lea    0x6305(%rip),%rsi        # 20676 <g_5046+0xf56>
   1a371:	48 89 cf             	mov    %rcx,%rdi
   1a374:	e8 7a 43 ff ff       	callq  e6f3 <transparent_crc>
   1a379:	0f b7 05 fc a0 00 00 	movzwl 0xa0fc(%rip),%eax        # 2447c <g_510>
   1a380:	0f b7 c0             	movzwl %ax,%eax
   1a383:	8b 55 f4             	mov    -0xc(%rbp),%edx
   1a386:	48 8d 35 ef 62 00 00 	lea    0x62ef(%rip),%rsi        # 2067c <g_5046+0xf5c>
   1a38d:	48 89 c7             	mov    %rax,%rdi
   1a390:	e8 5e 43 ff ff       	callq  e6f3 <transparent_crc>
   1a395:	8b 05 e5 a0 00 00    	mov    0xa0e5(%rip),%eax        # 24480 <g_527>
   1a39b:	48 98                	cltq   
   1a39d:	8b 55 f4             	mov    -0xc(%rbp),%edx
   1a3a0:	48 8d 35 db 62 00 00 	lea    0x62db(%rip),%rsi        # 20682 <g_5046+0xf62>
   1a3a7:	48 89 c7             	mov    %rax,%rdi
   1a3aa:	e8 44 43 ff ff       	callq  e6f3 <transparent_crc>
   1a3af:	48 8b 05 da a0 00 00 	mov    0xa0da(%rip),%rax        # 24490 <g_576>
   1a3b6:	c1 e0 0d             	shl    $0xd,%eax
   1a3b9:	c1 f8 0d             	sar    $0xd,%eax
   1a3bc:	48 98                	cltq   
   1a3be:	8b 55 f4             	mov    -0xc(%rbp),%edx
   1a3c1:	48 8d 35 c0 62 00 00 	lea    0x62c0(%rip),%rsi        # 20688 <g_5046+0xf68>
   1a3c8:	48 89 c7             	mov    %rax,%rdi
   1a3cb:	e8 23 43 ff ff       	callq  e6f3 <transparent_crc>
   1a3d0:	48 8b 05 b9 a0 00 00 	mov    0xa0b9(%rip),%rax        # 24490 <g_576>
   1a3d7:	48 c1 e0 02          	shl    $0x2,%rax
   1a3db:	48 c1 f8 22          	sar    $0x22,%rax
   1a3df:	48 98                	cltq   
   1a3e1:	8b 55 f4             	mov    -0xc(%rbp),%edx
   1a3e4:	48 8d 35 a6 62 00 00 	lea    0x62a6(%rip),%rsi        # 20691 <g_5046+0xf71>
   1a3eb:	48 89 c7             	mov    %rax,%rdi
   1a3ee:	e8 00 43 ff ff       	callq  e6f3 <transparent_crc>
   1a3f3:	48 8b 05 9e a0 00 00 	mov    0xa09e(%rip),%rax        # 24498 <g_576+0x8>
   1a3fa:	c1 e0 07             	shl    $0x7,%eax
   1a3fd:	66 c1 f8 07          	sar    $0x7,%ax
   1a401:	48 0f bf c0          	movswq %ax,%rax
   1a405:	8b 55 f4             	mov    -0xc(%rbp),%edx
   1a408:	48 8d 35 8b 62 00 00 	lea    0x628b(%rip),%rsi        # 2069a <g_5046+0xf7a>
   1a40f:	48 89 c7             	mov    %rax,%rdi
   1a412:	e8 dc 42 ff ff       	callq  e6f3 <transparent_crc>
   1a417:	48 8b 05 7a a0 00 00 	mov    0xa07a(%rip),%rax        # 24498 <g_576+0x8>
   1a41e:	c1 e0 07             	shl    $0x7,%eax
   1a421:	c1 f8 10             	sar    $0x10,%eax
   1a424:	48 0f bf c0          	movswq %ax,%rax
   1a428:	8b 55 f4             	mov    -0xc(%rbp),%edx
   1a42b:	48 8d 35 71 62 00 00 	lea    0x6271(%rip),%rsi        # 206a3 <g_5046+0xf83>
   1a432:	48 89 c7             	mov    %rax,%rdi
   1a435:	e8 b9 42 ff ff       	callq  e6f3 <transparent_crc>
   1a43a:	48 8b 05 57 a0 00 00 	mov    0xa057(%rip),%rax        # 24498 <g_576+0x8>
   1a441:	c1 e0 06             	shl    $0x6,%eax
   1a444:	c1 f8 1f             	sar    $0x1f,%eax
   1a447:	48 0f be c0          	movsbq %al,%rax
   1a44b:	8b 55 f4             	mov    -0xc(%rbp),%edx
   1a44e:	48 8d 35 57 62 00 00 	lea    0x6257(%rip),%rsi        # 206ac <g_5046+0xf8c>
   1a455:	48 89 c7             	mov    %rax,%rdi
   1a458:	e8 96 42 ff ff       	callq  e6f3 <transparent_crc>
   1a45d:	48 8b 05 34 a0 00 00 	mov    0xa034(%rip),%rax        # 24498 <g_576+0x8>
   1a464:	48 c1 e8 20          	shr    $0x20,%rax
   1a468:	25 ff ff 3f 00       	and    $0x3fffff,%eax
   1a46d:	89 c1                	mov    %eax,%ecx
   1a46f:	8b 45 f4             	mov    -0xc(%rbp),%eax
   1a472:	89 c2                	mov    %eax,%edx
   1a474:	48 8d 35 3a 62 00 00 	lea    0x623a(%rip),%rsi        # 206b5 <g_5046+0xf95>
   1a47b:	48 89 cf             	mov    %rcx,%rdi
   1a47e:	e8 70 42 ff ff       	callq  e6f3 <transparent_crc>
   1a483:	48 8b 05 16 a0 00 00 	mov    0xa016(%rip),%rax        # 244a0 <g_576+0x10>
   1a48a:	c1 e0 03             	shl    $0x3,%eax
   1a48d:	c1 f8 03             	sar    $0x3,%eax
   1a490:	48 98                	cltq   
   1a492:	8b 55 f4             	mov    -0xc(%rbp),%edx
   1a495:	48 8d 35 22 62 00 00 	lea    0x6222(%rip),%rsi        # 206be <g_5046+0xf9e>
   1a49c:	48 89 c7             	mov    %rax,%rdi
   1a49f:	e8 4f 42 ff ff       	callq  e6f3 <transparent_crc>
   1a4a4:	48 8b 05 f5 9f 00 00 	mov    0x9ff5(%rip),%rax        # 244a0 <g_576+0x10>
   1a4ab:	48 c1 e0 04          	shl    $0x4,%rax
   1a4af:	48 c1 f8 24          	sar    $0x24,%rax
   1a4b3:	48 98                	cltq   
   1a4b5:	8b 55 f4             	mov    -0xc(%rbp),%edx
   1a4b8:	48 8d 35 08 62 00 00 	lea    0x6208(%rip),%rsi        # 206c7 <g_5046+0xfa7>
   1a4bf:	48 89 c7             	mov    %rax,%rdi
   1a4c2:	e8 2c 42 ff ff       	callq  e6f3 <transparent_crc>
   1a4c7:	8b 05 db 9f 00 00    	mov    0x9fdb(%rip),%eax        # 244a8 <g_613>
   1a4cd:	48 98                	cltq   
   1a4cf:	8b 55 f4             	mov    -0xc(%rbp),%edx
   1a4d2:	48 8d 35 f7 61 00 00 	lea    0x61f7(%rip),%rsi        # 206d0 <g_5046+0xfb0>
   1a4d9:	48 89 c7             	mov    %rax,%rdi
   1a4dc:	e8 12 42 ff ff       	callq  e6f3 <transparent_crc>
   1a4e1:	48 8b 05 c8 9f 00 00 	mov    0x9fc8(%rip),%rax        # 244b0 <g_634>
   1a4e8:	c1 e0 0d             	shl    $0xd,%eax
   1a4eb:	c1 f8 0d             	sar    $0xd,%eax
   1a4ee:	48 98                	cltq   
   1a4f0:	8b 55 f4             	mov    -0xc(%rbp),%edx
   1a4f3:	48 8d 35 dc 61 00 00 	lea    0x61dc(%rip),%rsi        # 206d6 <g_5046+0xfb6>
   1a4fa:	48 89 c7             	mov    %rax,%rdi
   1a4fd:	e8 f1 41 ff ff       	callq  e6f3 <transparent_crc>
   1a502:	48 8b 05 a7 9f 00 00 	mov    0x9fa7(%rip),%rax        # 244b0 <g_634>
   1a509:	48 c1 e0 02          	shl    $0x2,%rax
   1a50d:	48 c1 f8 22          	sar    $0x22,%rax
   1a511:	48 98                	cltq   
   1a513:	8b 55 f4             	mov    -0xc(%rbp),%edx
   1a516:	48 8d 35 c2 61 00 00 	lea    0x61c2(%rip),%rsi        # 206df <g_5046+0xfbf>
   1a51d:	48 89 c7             	mov    %rax,%rdi
   1a520:	e8 ce 41 ff ff       	callq  e6f3 <transparent_crc>
   1a525:	48 8b 05 8c 9f 00 00 	mov    0x9f8c(%rip),%rax        # 244b8 <g_634+0x8>
   1a52c:	c1 e0 07             	shl    $0x7,%eax
   1a52f:	66 c1 f8 07          	sar    $0x7,%ax
   1a533:	48 0f bf c0          	movswq %ax,%rax
   1a537:	8b 55 f4             	mov    -0xc(%rbp),%edx
   1a53a:	48 8d 35 a7 61 00 00 	lea    0x61a7(%rip),%rsi        # 206e8 <g_5046+0xfc8>
   1a541:	48 89 c7             	mov    %rax,%rdi
   1a544:	e8 aa 41 ff ff       	callq  e6f3 <transparent_crc>
   1a549:	48 8b 05 68 9f 00 00 	mov    0x9f68(%rip),%rax        # 244b8 <g_634+0x8>
   1a550:	c1 e0 07             	shl    $0x7,%eax
   1a553:	c1 f8 10             	sar    $0x10,%eax
   1a556:	48 0f bf c0          	movswq %ax,%rax
   1a55a:	8b 55 f4             	mov    -0xc(%rbp),%edx
   1a55d:	48 8d 35 8d 61 00 00 	lea    0x618d(%rip),%rsi        # 206f1 <g_5046+0xfd1>
   1a564:	48 89 c7             	mov    %rax,%rdi
   1a567:	e8 87 41 ff ff       	callq  e6f3 <transparent_crc>
   1a56c:	48 8b 05 45 9f 00 00 	mov    0x9f45(%rip),%rax        # 244b8 <g_634+0x8>
   1a573:	c1 e0 06             	shl    $0x6,%eax
   1a576:	c1 f8 1f             	sar    $0x1f,%eax
   1a579:	48 0f be c0          	movsbq %al,%rax
   1a57d:	8b 55 f4             	mov    -0xc(%rbp),%edx
   1a580:	48 8d 35 73 61 00 00 	lea    0x6173(%rip),%rsi        # 206fa <g_5046+0xfda>
   1a587:	48 89 c7             	mov    %rax,%rdi
   1a58a:	e8 64 41 ff ff       	callq  e6f3 <transparent_crc>
   1a58f:	48 8b 05 22 9f 00 00 	mov    0x9f22(%rip),%rax        # 244b8 <g_634+0x8>
   1a596:	48 c1 e8 20          	shr    $0x20,%rax
   1a59a:	25 ff ff 3f 00       	and    $0x3fffff,%eax
   1a59f:	89 c1                	mov    %eax,%ecx
   1a5a1:	8b 45 f4             	mov    -0xc(%rbp),%eax
   1a5a4:	89 c2                	mov    %eax,%edx
   1a5a6:	48 8d 35 56 61 00 00 	lea    0x6156(%rip),%rsi        # 20703 <g_5046+0xfe3>
   1a5ad:	48 89 cf             	mov    %rcx,%rdi
   1a5b0:	e8 3e 41 ff ff       	callq  e6f3 <transparent_crc>
   1a5b5:	48 8b 05 04 9f 00 00 	mov    0x9f04(%rip),%rax        # 244c0 <g_634+0x10>
   1a5bc:	c1 e0 03             	shl    $0x3,%eax
   1a5bf:	c1 f8 03             	sar    $0x3,%eax
   1a5c2:	48 98                	cltq   
   1a5c4:	8b 55 f4             	mov    -0xc(%rbp),%edx
   1a5c7:	48 8d 35 3e 61 00 00 	lea    0x613e(%rip),%rsi        # 2070c <g_5046+0xfec>
   1a5ce:	48 89 c7             	mov    %rax,%rdi
   1a5d1:	e8 1d 41 ff ff       	callq  e6f3 <transparent_crc>
   1a5d6:	48 8b 05 e3 9e 00 00 	mov    0x9ee3(%rip),%rax        # 244c0 <g_634+0x10>
   1a5dd:	48 c1 e0 04          	shl    $0x4,%rax
   1a5e1:	48 c1 f8 24          	sar    $0x24,%rax
   1a5e5:	48 98                	cltq   
   1a5e7:	8b 55 f4             	mov    -0xc(%rbp),%edx
   1a5ea:	48 8d 35 24 61 00 00 	lea    0x6124(%rip),%rsi        # 20715 <g_5046+0xff5>
   1a5f1:	48 89 c7             	mov    %rax,%rdi
   1a5f4:	e8 fa 40 ff ff       	callq  e6f3 <transparent_crc>
   1a5f9:	c7 45 e8 00 00 00 00 	movl   $0x0,-0x18(%rbp)
   1a600:	e9 cf 02 00 00       	jmpq   1a8d4 <main+0x1224>
   1a605:	c7 45 ec 00 00 00 00 	movl   $0x0,-0x14(%rbp)
   1a60c:	e9 b5 02 00 00       	jmpq   1a8c6 <main+0x1216>
   1a611:	8b 45 ec             	mov    -0x14(%rbp),%eax
   1a614:	48 63 d0             	movslq %eax,%rdx
   1a617:	8b 45 e8             	mov    -0x18(%rbp),%eax
   1a61a:	48 63 c8             	movslq %eax,%rcx
   1a61d:	48 89 d0             	mov    %rdx,%rax
   1a620:	48 01 c0             	add    %rax,%rax
   1a623:	48 01 d0             	add    %rdx,%rax
   1a626:	48 c1 e0 03          	shl    $0x3,%rax
   1a62a:	48 89 ca             	mov    %rcx,%rdx
   1a62d:	48 c1 e2 04          	shl    $0x4,%rdx
   1a631:	48 29 ca             	sub    %rcx,%rdx
   1a634:	48 c1 e2 04          	shl    $0x4,%rdx
   1a638:	48 01 c2             	add    %rax,%rdx
   1a63b:	48 8d 05 1e 4a 00 00 	lea    0x4a1e(%rip),%rax        # 1f060 <g_693>
   1a642:	48 01 d0             	add    %rdx,%rax
   1a645:	48 8b 00             	mov    (%rax),%rax
   1a648:	c1 e0 0d             	shl    $0xd,%eax
   1a64b:	c1 f8 0d             	sar    $0xd,%eax
   1a64e:	48 98                	cltq   
   1a650:	8b 55 f4             	mov    -0xc(%rbp),%edx
   1a653:	48 8d 35 c4 60 00 00 	lea    0x60c4(%rip),%rsi        # 2071e <g_5046+0xffe>
   1a65a:	48 89 c7             	mov    %rax,%rdi
   1a65d:	e8 91 40 ff ff       	callq  e6f3 <transparent_crc>
   1a662:	8b 45 ec             	mov    -0x14(%rbp),%eax
   1a665:	48 63 d0             	movslq %eax,%rdx
   1a668:	8b 45 e8             	mov    -0x18(%rbp),%eax
   1a66b:	48 63 c8             	movslq %eax,%rcx
   1a66e:	48 89 d0             	mov    %rdx,%rax
   1a671:	48 01 c0             	add    %rax,%rax
   1a674:	48 01 d0             	add    %rdx,%rax
   1a677:	48 c1 e0 03          	shl    $0x3,%rax
   1a67b:	48 89 ca             	mov    %rcx,%rdx
   1a67e:	48 c1 e2 04          	shl    $0x4,%rdx
   1a682:	48 29 ca             	sub    %rcx,%rdx
   1a685:	48 c1 e2 04          	shl    $0x4,%rdx
   1a689:	48 01 c2             	add    %rax,%rdx
   1a68c:	48 8d 05 cd 49 00 00 	lea    0x49cd(%rip),%rax        # 1f060 <g_693>
   1a693:	48 01 d0             	add    %rdx,%rax
   1a696:	8b 40 04             	mov    0x4(%rax),%eax
   1a699:	c1 e0 02             	shl    $0x2,%eax
   1a69c:	c1 f8 02             	sar    $0x2,%eax
   1a69f:	48 98                	cltq   
   1a6a1:	8b 55 f4             	mov    -0xc(%rbp),%edx
   1a6a4:	48 8d 35 82 60 00 00 	lea    0x6082(%rip),%rsi        # 2072d <g_5046+0x100d>
   1a6ab:	48 89 c7             	mov    %rax,%rdi
   1a6ae:	e8 40 40 ff ff       	callq  e6f3 <transparent_crc>
   1a6b3:	8b 45 ec             	mov    -0x14(%rbp),%eax
   1a6b6:	48 63 d0             	movslq %eax,%rdx
   1a6b9:	8b 45 e8             	mov    -0x18(%rbp),%eax
   1a6bc:	48 63 c8             	movslq %eax,%rcx
   1a6bf:	48 89 d0             	mov    %rdx,%rax
   1a6c2:	48 01 c0             	add    %rax,%rax
   1a6c5:	48 01 d0             	add    %rdx,%rax
   1a6c8:	48 c1 e0 03          	shl    $0x3,%rax
   1a6cc:	48 89 ca             	mov    %rcx,%rdx
   1a6cf:	48 c1 e2 04          	shl    $0x4,%rdx
   1a6d3:	48 29 ca             	sub    %rcx,%rdx
   1a6d6:	48 c1 e2 04          	shl    $0x4,%rdx
   1a6da:	48 01 c2             	add    %rax,%rdx
   1a6dd:	48 8d 05 7c 49 00 00 	lea    0x497c(%rip),%rax        # 1f060 <g_693>
   1a6e4:	48 01 d0             	add    %rdx,%rax
   1a6e7:	0f b7 40 08          	movzwl 0x8(%rax),%eax
   1a6eb:	c1 e0 07             	shl    $0x7,%eax
   1a6ee:	66 c1 f8 07          	sar    $0x7,%ax
   1a6f2:	48 0f bf c0          	movswq %ax,%rax
   1a6f6:	8b 55 f4             	mov    -0xc(%rbp),%edx
   1a6f9:	48 8d 35 3c 60 00 00 	lea    0x603c(%rip),%rsi        # 2073c <g_5046+0x101c>
   1a700:	48 89 c7             	mov    %rax,%rdi
   1a703:	e8 eb 3f ff ff       	callq  e6f3 <transparent_crc>
   1a708:	8b 45 ec             	mov    -0x14(%rbp),%eax
   1a70b:	48 63 d0             	movslq %eax,%rdx
   1a70e:	8b 45 e8             	mov    -0x18(%rbp),%eax
   1a711:	48 63 c8             	movslq %eax,%rcx
   1a714:	48 89 d0             	mov    %rdx,%rax
   1a717:	48 01 c0             	add    %rax,%rax
   1a71a:	48 01 d0             	add    %rdx,%rax
   1a71d:	48 c1 e0 03          	shl    $0x3,%rax
   1a721:	48 89 ca             	mov    %rcx,%rdx
   1a724:	48 c1 e2 04          	shl    $0x4,%rdx
   1a728:	48 29 ca             	sub    %rcx,%rdx
   1a72b:	48 c1 e2 04          	shl    $0x4,%rdx
   1a72f:	48 01 c2             	add    %rax,%rdx
   1a732:	48 8d 05 27 49 00 00 	lea    0x4927(%rip),%rax        # 1f060 <g_693>
   1a739:	48 01 d0             	add    %rdx,%rax
   1a73c:	8b 40 08             	mov    0x8(%rax),%eax
   1a73f:	c1 e0 07             	shl    $0x7,%eax
   1a742:	c1 f8 10             	sar    $0x10,%eax
   1a745:	48 0f bf c0          	movswq %ax,%rax
   1a749:	8b 55 f4             	mov    -0xc(%rbp),%edx
   1a74c:	48 8d 35 f8 5f 00 00 	lea    0x5ff8(%rip),%rsi        # 2074b <g_5046+0x102b>
   1a753:	48 89 c7             	mov    %rax,%rdi
   1a756:	e8 98 3f ff ff       	callq  e6f3 <transparent_crc>
   1a75b:	8b 45 ec             	mov    -0x14(%rbp),%eax
   1a75e:	48 63 d0             	movslq %eax,%rdx
   1a761:	8b 45 e8             	mov    -0x18(%rbp),%eax
   1a764:	48 63 c8             	movslq %eax,%rcx
   1a767:	48 89 d0             	mov    %rdx,%rax
   1a76a:	48 01 c0             	add    %rax,%rax
   1a76d:	48 01 d0             	add    %rdx,%rax
   1a770:	48 c1 e0 03          	shl    $0x3,%rax
   1a774:	48 89 ca             	mov    %rcx,%rdx
   1a777:	48 c1 e2 04          	shl    $0x4,%rdx
   1a77b:	48 29 ca             	sub    %rcx,%rdx
   1a77e:	48 c1 e2 04          	shl    $0x4,%rdx
   1a782:	48 01 c2             	add    %rax,%rdx
   1a785:	48 8d 05 d4 48 00 00 	lea    0x48d4(%rip),%rax        # 1f060 <g_693>
   1a78c:	48 01 d0             	add    %rdx,%rax
   1a78f:	0f b6 40 0b          	movzbl 0xb(%rax),%eax
   1a793:	c1 e0 06             	shl    $0x6,%eax
   1a796:	c0 f8 07             	sar    $0x7,%al
   1a799:	48 0f be c0          	movsbq %al,%rax
   1a79d:	8b 55 f4             	mov    -0xc(%rbp),%edx
   1a7a0:	48 8d 35 b3 5f 00 00 	lea    0x5fb3(%rip),%rsi        # 2075a <g_5046+0x103a>
   1a7a7:	48 89 c7             	mov    %rax,%rdi
   1a7aa:	e8 44 3f ff ff       	callq  e6f3 <transparent_crc>
   1a7af:	8b 45 ec             	mov    -0x14(%rbp),%eax
   1a7b2:	48 63 d0             	movslq %eax,%rdx
   1a7b5:	8b 45 e8             	mov    -0x18(%rbp),%eax
   1a7b8:	48 63 c8             	movslq %eax,%rcx
   1a7bb:	48 89 d0             	mov    %rdx,%rax
   1a7be:	48 01 c0             	add    %rax,%rax
   1a7c1:	48 01 d0             	add    %rdx,%rax
   1a7c4:	48 c1 e0 03          	shl    $0x3,%rax
   1a7c8:	48 89 ca             	mov    %rcx,%rdx
   1a7cb:	48 c1 e2 04          	shl    $0x4,%rdx
   1a7cf:	48 29 ca             	sub    %rcx,%rdx
   1a7d2:	48 c1 e2 04          	shl    $0x4,%rdx
   1a7d6:	48 01 c2             	add    %rax,%rdx
   1a7d9:	48 8d 05 80 48 00 00 	lea    0x4880(%rip),%rax        # 1f060 <g_693>
   1a7e0:	48 01 d0             	add    %rdx,%rax
   1a7e3:	8b 40 0c             	mov    0xc(%rax),%eax
   1a7e6:	25 ff ff 3f 00       	and    $0x3fffff,%eax
   1a7eb:	89 c1                	mov    %eax,%ecx
   1a7ed:	8b 45 f4             	mov    -0xc(%rbp),%eax
   1a7f0:	89 c2                	mov    %eax,%edx
   1a7f2:	48 8d 35 70 5f 00 00 	lea    0x5f70(%rip),%rsi        # 20769 <g_5046+0x1049>
   1a7f9:	48 89 cf             	mov    %rcx,%rdi
   1a7fc:	e8 f2 3e ff ff       	callq  e6f3 <transparent_crc>
   1a801:	8b 45 ec             	mov    -0x14(%rbp),%eax
   1a804:	48 63 d0             	movslq %eax,%rdx
   1a807:	8b 45 e8             	mov    -0x18(%rbp),%eax
   1a80a:	48 63 c8             	movslq %eax,%rcx
   1a80d:	48 89 d0             	mov    %rdx,%rax
   1a810:	48 01 c0             	add    %rax,%rax
   1a813:	48 01 d0             	add    %rdx,%rax
   1a816:	48 c1 e0 03          	shl    $0x3,%rax
   1a81a:	48 89 ca             	mov    %rcx,%rdx
   1a81d:	48 c1 e2 04          	shl    $0x4,%rdx
   1a821:	48 29 ca             	sub    %rcx,%rdx
   1a824:	48 c1 e2 04          	shl    $0x4,%rdx
   1a828:	48 01 c2             	add    %rax,%rdx
   1a82b:	48 8d 05 3e 48 00 00 	lea    0x483e(%rip),%rax        # 1f070 <g_693+0x10>
   1a832:	48 01 d0             	add    %rdx,%rax
   1a835:	48 8b 00             	mov    (%rax),%rax
   1a838:	c1 e0 03             	shl    $0x3,%eax
   1a83b:	c1 f8 03             	sar    $0x3,%eax
   1a83e:	48 98                	cltq   
   1a840:	8b 55 f4             	mov    -0xc(%rbp),%edx
   1a843:	48 8d 35 2e 5f 00 00 	lea    0x5f2e(%rip),%rsi        # 20778 <g_5046+0x1058>
   1a84a:	48 89 c7             	mov    %rax,%rdi
   1a84d:	e8 a1 3e ff ff       	callq  e6f3 <transparent_crc>
   1a852:	8b 45 ec             	mov    -0x14(%rbp),%eax
   1a855:	48 63 d0             	movslq %eax,%rdx
   1a858:	8b 45 e8             	mov    -0x18(%rbp),%eax
   1a85b:	48 63 c8             	movslq %eax,%rcx
   1a85e:	48 89 d0             	mov    %rdx,%rax
   1a861:	48 01 c0             	add    %rax,%rax
   1a864:	48 01 d0             	add    %rdx,%rax
   1a867:	48 c1 e0 03          	shl    $0x3,%rax
   1a86b:	48 89 ca             	mov    %rcx,%rdx
   1a86e:	48 c1 e2 04          	shl    $0x4,%rdx
   1a872:	48 29 ca             	sub    %rcx,%rdx
   1a875:	48 c1 e2 04          	shl    $0x4,%rdx
   1a879:	48 01 c2             	add    %rax,%rdx
   1a87c:	48 8d 05 ed 47 00 00 	lea    0x47ed(%rip),%rax        # 1f070 <g_693+0x10>
   1a883:	48 01 d0             	add    %rdx,%rax
   1a886:	8b 40 04             	mov    0x4(%rax),%eax
   1a889:	c1 e0 04             	shl    $0x4,%eax
   1a88c:	c1 f8 04             	sar    $0x4,%eax
   1a88f:	48 98                	cltq   
   1a891:	8b 55 f4             	mov    -0xc(%rbp),%edx
   1a894:	48 8d 35 ec 5e 00 00 	lea    0x5eec(%rip),%rsi        # 20787 <g_5046+0x1067>
   1a89b:	48 89 c7             	mov    %rax,%rdi
   1a89e:	e8 50 3e ff ff       	callq  e6f3 <transparent_crc>
   1a8a3:	83 7d f4 00          	cmpl   $0x0,-0xc(%rbp)
   1a8a7:	74 19                	je     1a8c2 <main+0x1212>
   1a8a9:	8b 55 ec             	mov    -0x14(%rbp),%edx
   1a8ac:	8b 45 e8             	mov    -0x18(%rbp),%eax
   1a8af:	89 c6                	mov    %eax,%esi
   1a8b1:	48 8d 3d 5a 5b 00 00 	lea    0x5b5a(%rip),%rdi        # 20412 <g_5046+0xcf2>
   1a8b8:	b8 00 00 00 00       	mov    $0x0,%eax
   1a8bd:	e8 be 27 ff ff       	callq  d080 <printf@plt>
   1a8c2:	83 45 ec 01          	addl   $0x1,-0x14(%rbp)
   1a8c6:	83 7d ec 09          	cmpl   $0x9,-0x14(%rbp)
   1a8ca:	0f 8e 41 fd ff ff    	jle    1a611 <main+0xf61>
   1a8d0:	83 45 e8 01          	addl   $0x1,-0x18(%rbp)
   1a8d4:	83 7d e8 05          	cmpl   $0x5,-0x18(%rbp)
   1a8d8:	0f 8e 27 fd ff ff    	jle    1a605 <main+0xf55>
   1a8de:	8b 05 e4 9b 00 00    	mov    0x9be4(%rip),%eax        # 244c8 <g_703>
   1a8e4:	48 98                	cltq   
   1a8e6:	8b 55 f4             	mov    -0xc(%rbp),%edx
   1a8e9:	48 8d 35 a6 5e 00 00 	lea    0x5ea6(%rip),%rsi        # 20796 <g_5046+0x1076>
   1a8f0:	48 89 c7             	mov    %rax,%rdi
   1a8f3:	e8 fb 3d ff ff       	callq  e6f3 <transparent_crc>
   1a8f8:	c7 45 e8 00 00 00 00 	movl   $0x0,-0x18(%rbp)
   1a8ff:	e9 0c 02 00 00       	jmpq   1ab10 <main+0x1460>
   1a904:	8b 45 e8             	mov    -0x18(%rbp),%eax
   1a907:	48 63 d0             	movslq %eax,%rdx
   1a90a:	48 89 d0             	mov    %rdx,%rax
   1a90d:	48 01 c0             	add    %rax,%rax
   1a910:	48 01 d0             	add    %rdx,%rax
   1a913:	48 c1 e0 03          	shl    $0x3,%rax
   1a917:	48 89 c2             	mov    %rax,%rdx
   1a91a:	48 8d 05 bf 9b 00 00 	lea    0x9bbf(%rip),%rax        # 244e0 <g_727>
   1a921:	48 8b 04 02          	mov    (%rdx,%rax,1),%rax
   1a925:	c1 e0 0d             	shl    $0xd,%eax
   1a928:	c1 f8 0d             	sar    $0xd,%eax
   1a92b:	48 98                	cltq   
   1a92d:	8b 55 f4             	mov    -0xc(%rbp),%edx
   1a930:	48 8d 35 65 5e 00 00 	lea    0x5e65(%rip),%rsi        # 2079c <g_5046+0x107c>
   1a937:	48 89 c7             	mov    %rax,%rdi
   1a93a:	e8 b4 3d ff ff       	callq  e6f3 <transparent_crc>
   1a93f:	8b 45 e8             	mov    -0x18(%rbp),%eax
   1a942:	48 63 d0             	movslq %eax,%rdx
   1a945:	48 89 d0             	mov    %rdx,%rax
   1a948:	48 01 c0             	add    %rax,%rax
   1a94b:	48 01 d0             	add    %rdx,%rax
   1a94e:	48 c1 e0 03          	shl    $0x3,%rax
   1a952:	48 89 c2             	mov    %rax,%rdx
   1a955:	48 8d 05 84 9b 00 00 	lea    0x9b84(%rip),%rax        # 244e0 <g_727>
   1a95c:	48 8b 04 02          	mov    (%rdx,%rax,1),%rax
   1a960:	48 c1 e0 02          	shl    $0x2,%rax
   1a964:	48 c1 f8 22          	sar    $0x22,%rax
   1a968:	48 98                	cltq   
   1a96a:	8b 55 f4             	mov    -0xc(%rbp),%edx
   1a96d:	48 8d 35 34 5e 00 00 	lea    0x5e34(%rip),%rsi        # 207a8 <g_5046+0x1088>
   1a974:	48 89 c7             	mov    %rax,%rdi
   1a977:	e8 77 3d ff ff       	callq  e6f3 <transparent_crc>
   1a97c:	8b 45 e8             	mov    -0x18(%rbp),%eax
   1a97f:	48 63 d0             	movslq %eax,%rdx
   1a982:	48 89 d0             	mov    %rdx,%rax
   1a985:	48 01 c0             	add    %rax,%rax
   1a988:	48 01 d0             	add    %rdx,%rax
   1a98b:	48 c1 e0 03          	shl    $0x3,%rax
   1a98f:	48 89 c2             	mov    %rax,%rdx
   1a992:	48 8d 05 47 9b 00 00 	lea    0x9b47(%rip),%rax        # 244e0 <g_727>
   1a999:	48 8b 44 02 08       	mov    0x8(%rdx,%rax,1),%rax
   1a99e:	c1 e0 07             	shl    $0x7,%eax
   1a9a1:	66 c1 f8 07          	sar    $0x7,%ax
   1a9a5:	48 0f bf c0          	movswq %ax,%rax
   1a9a9:	8b 55 f4             	mov    -0xc(%rbp),%edx
   1a9ac:	48 8d 35 01 5e 00 00 	lea    0x5e01(%rip),%rsi        # 207b4 <g_5046+0x1094>
   1a9b3:	48 89 c7             	mov    %rax,%rdi
   1a9b6:	e8 38 3d ff ff       	callq  e6f3 <transparent_crc>
   1a9bb:	8b 45 e8             	mov    -0x18(%rbp),%eax
   1a9be:	48 63 d0             	movslq %eax,%rdx
   1a9c1:	48 89 d0             	mov    %rdx,%rax
   1a9c4:	48 01 c0             	add    %rax,%rax
   1a9c7:	48 01 d0             	add    %rdx,%rax
   1a9ca:	48 c1 e0 03          	shl    $0x3,%rax
   1a9ce:	48 89 c2             	mov    %rax,%rdx
   1a9d1:	48 8d 05 08 9b 00 00 	lea    0x9b08(%rip),%rax        # 244e0 <g_727>
   1a9d8:	48 8b 44 02 08       	mov    0x8(%rdx,%rax,1),%rax
   1a9dd:	c1 e0 07             	shl    $0x7,%eax
   1a9e0:	c1 f8 10             	sar    $0x10,%eax
   1a9e3:	48 0f bf c0          	movswq %ax,%rax
   1a9e7:	8b 55 f4             	mov    -0xc(%rbp),%edx
   1a9ea:	48 8d 35 cf 5d 00 00 	lea    0x5dcf(%rip),%rsi        # 207c0 <g_5046+0x10a0>
   1a9f1:	48 89 c7             	mov    %rax,%rdi
   1a9f4:	e8 fa 3c ff ff       	callq  e6f3 <transparent_crc>
   1a9f9:	8b 45 e8             	mov    -0x18(%rbp),%eax
   1a9fc:	48 63 d0             	movslq %eax,%rdx
   1a9ff:	48 89 d0             	mov    %rdx,%rax
   1aa02:	48 01 c0             	add    %rax,%rax
   1aa05:	48 01 d0             	add    %rdx,%rax
   1aa08:	48 c1 e0 03          	shl    $0x3,%rax
   1aa0c:	48 89 c2             	mov    %rax,%rdx
   1aa0f:	48 8d 05 ca 9a 00 00 	lea    0x9aca(%rip),%rax        # 244e0 <g_727>
   1aa16:	48 8b 44 02 08       	mov    0x8(%rdx,%rax,1),%rax
   1aa1b:	c1 e0 06             	shl    $0x6,%eax
   1aa1e:	c1 f8 1f             	sar    $0x1f,%eax
   1aa21:	48 0f be c0          	movsbq %al,%rax
   1aa25:	8b 55 f4             	mov    -0xc(%rbp),%edx
   1aa28:	48 8d 35 9d 5d 00 00 	lea    0x5d9d(%rip),%rsi        # 207cc <g_5046+0x10ac>
   1aa2f:	48 89 c7             	mov    %rax,%rdi
   1aa32:	e8 bc 3c ff ff       	callq  e6f3 <transparent_crc>
   1aa37:	8b 45 e8             	mov    -0x18(%rbp),%eax
   1aa3a:	48 63 d0             	movslq %eax,%rdx
   1aa3d:	48 89 d0             	mov    %rdx,%rax
   1aa40:	48 01 c0             	add    %rax,%rax
   1aa43:	48 01 d0             	add    %rdx,%rax
   1aa46:	48 c1 e0 03          	shl    $0x3,%rax
   1aa4a:	48 89 c2             	mov    %rax,%rdx
   1aa4d:	48 8d 05 8c 9a 00 00 	lea    0x9a8c(%rip),%rax        # 244e0 <g_727>
   1aa54:	48 8b 44 02 08       	mov    0x8(%rdx,%rax,1),%rax
   1aa59:	48 c1 e8 20          	shr    $0x20,%rax
   1aa5d:	25 ff ff 3f 00       	and    $0x3fffff,%eax
   1aa62:	89 c1                	mov    %eax,%ecx
   1aa64:	8b 45 f4             	mov    -0xc(%rbp),%eax
   1aa67:	89 c2                	mov    %eax,%edx
   1aa69:	48 8d 35 68 5d 00 00 	lea    0x5d68(%rip),%rsi        # 207d8 <g_5046+0x10b8>
   1aa70:	48 89 cf             	mov    %rcx,%rdi
   1aa73:	e8 7b 3c ff ff       	callq  e6f3 <transparent_crc>
   1aa78:	8b 45 e8             	mov    -0x18(%rbp),%eax
   1aa7b:	48 63 d0             	movslq %eax,%rdx
   1aa7e:	48 89 d0             	mov    %rdx,%rax
   1aa81:	48 01 c0             	add    %rax,%rax
   1aa84:	48 01 d0             	add    %rdx,%rax
   1aa87:	48 c1 e0 03          	shl    $0x3,%rax
   1aa8b:	48 89 c2             	mov    %rax,%rdx
   1aa8e:	48 8d 05 5b 9a 00 00 	lea    0x9a5b(%rip),%rax        # 244f0 <g_727+0x10>
   1aa95:	48 8b 04 02          	mov    (%rdx,%rax,1),%rax
   1aa99:	c1 e0 03             	shl    $0x3,%eax
   1aa9c:	c1 f8 03             	sar    $0x3,%eax
   1aa9f:	48 98                	cltq   
   1aaa1:	8b 55 f4             	mov    -0xc(%rbp),%edx
   1aaa4:	48 8d 35 39 5d 00 00 	lea    0x5d39(%rip),%rsi        # 207e4 <g_5046+0x10c4>
   1aaab:	48 89 c7             	mov    %rax,%rdi
   1aaae:	e8 40 3c ff ff       	callq  e6f3 <transparent_crc>
   1aab3:	8b 45 e8             	mov    -0x18(%rbp),%eax
   1aab6:	48 63 d0             	movslq %eax,%rdx
   1aab9:	48 89 d0             	mov    %rdx,%rax
   1aabc:	48 01 c0             	add    %rax,%rax
   1aabf:	48 01 d0             	add    %rdx,%rax
   1aac2:	48 c1 e0 03          	shl    $0x3,%rax
   1aac6:	48 89 c2             	mov    %rax,%rdx
   1aac9:	48 8d 05 20 9a 00 00 	lea    0x9a20(%rip),%rax        # 244f0 <g_727+0x10>
   1aad0:	48 8b 04 02          	mov    (%rdx,%rax,1),%rax
   1aad4:	48 c1 e0 04          	shl    $0x4,%rax
   1aad8:	48 c1 f8 24          	sar    $0x24,%rax
   1aadc:	48 98                	cltq   
   1aade:	8b 55 f4             	mov    -0xc(%rbp),%edx
   1aae1:	48 8d 35 08 5d 00 00 	lea    0x5d08(%rip),%rsi        # 207f0 <g_5046+0x10d0>
   1aae8:	48 89 c7             	mov    %rax,%rdi
   1aaeb:	e8 03 3c ff ff       	callq  e6f3 <transparent_crc>
   1aaf0:	83 7d f4 00          	cmpl   $0x0,-0xc(%rbp)
   1aaf4:	74 16                	je     1ab0c <main+0x145c>
   1aaf6:	8b 45 e8             	mov    -0x18(%rbp),%eax
   1aaf9:	89 c6                	mov    %eax,%esi
   1aafb:	48 8d 3d 34 59 00 00 	lea    0x5934(%rip),%rdi        # 20436 <g_5046+0xd16>
   1ab02:	b8 00 00 00 00       	mov    $0x0,%eax
   1ab07:	e8 74 25 ff ff       	callq  d080 <printf@plt>
   1ab0c:	83 45 e8 01          	addl   $0x1,-0x18(%rbp)
   1ab10:	83 7d e8 07          	cmpl   $0x7,-0x18(%rbp)
   1ab14:	0f 8e ea fd ff ff    	jle    1a904 <main+0x1254>
   1ab1a:	0f b7 05 7f 9a 00 00 	movzwl 0x9a7f(%rip),%eax        # 245a0 <g_858>
   1ab21:	48 0f bf c0          	movswq %ax,%rax
   1ab25:	8b 55 f4             	mov    -0xc(%rbp),%edx
   1ab28:	48 8d 35 cd 5c 00 00 	lea    0x5ccd(%rip),%rsi        # 207fc <g_5046+0x10dc>
   1ab2f:	48 89 c7             	mov    %rax,%rdi
   1ab32:	e8 bc 3b ff ff       	callq  e6f3 <transparent_crc>
   1ab37:	0f b7 05 64 9a 00 00 	movzwl 0x9a64(%rip),%eax        # 245a2 <g_912>
   1ab3e:	48 0f bf c0          	movswq %ax,%rax
   1ab42:	8b 55 f4             	mov    -0xc(%rbp),%edx
   1ab45:	48 8d 35 b6 5c 00 00 	lea    0x5cb6(%rip),%rsi        # 20802 <g_5046+0x10e2>
   1ab4c:	48 89 c7             	mov    %rax,%rdi
   1ab4f:	e8 9f 3b ff ff       	callq  e6f3 <transparent_crc>
   1ab54:	c7 45 e8 00 00 00 00 	movl   $0x0,-0x18(%rbp)
   1ab5b:	e9 37 03 00 00       	jmpq   1ae97 <main+0x17e7>
   1ab60:	c7 45 ec 00 00 00 00 	movl   $0x0,-0x14(%rbp)
   1ab67:	e9 1d 03 00 00       	jmpq   1ae89 <main+0x17d9>
   1ab6c:	8b 45 ec             	mov    -0x14(%rbp),%eax
   1ab6f:	48 98                	cltq   
   1ab71:	8b 55 e8             	mov    -0x18(%rbp),%edx
   1ab74:	48 63 ca             	movslq %edx,%rcx
   1ab77:	48 89 c2             	mov    %rax,%rdx
   1ab7a:	48 01 d2             	add    %rdx,%rdx
   1ab7d:	48 01 c2             	add    %rax,%rdx
   1ab80:	48 8d 04 d5 00 00 00 	lea    0x0(,%rdx,8),%rax
   1ab87:	00 
   1ab88:	48 89 c2             	mov    %rax,%rdx
   1ab8b:	48 89 c8             	mov    %rcx,%rax
   1ab8e:	48 c1 e0 02          	shl    $0x2,%rax
   1ab92:	48 01 c8             	add    %rcx,%rax
   1ab95:	48 c1 e0 02          	shl    $0x2,%rax
   1ab99:	48 01 c8             	add    %rcx,%rax
   1ab9c:	48 c1 e0 03          	shl    $0x3,%rax
   1aba0:	48 01 c2             	add    %rax,%rdx
   1aba3:	48 8d 05 16 9a 00 00 	lea    0x9a16(%rip),%rax        # 245c0 <g_915>
   1abaa:	48 01 d0             	add    %rdx,%rax
   1abad:	48 8b 00             	mov    (%rax),%rax
   1abb0:	c1 e0 0d             	shl    $0xd,%eax
   1abb3:	c1 f8 0d             	sar    $0xd,%eax
   1abb6:	48 98                	cltq   
   1abb8:	8b 55 f4             	mov    -0xc(%rbp),%edx
   1abbb:	48 8d 35 46 5c 00 00 	lea    0x5c46(%rip),%rsi        # 20808 <g_5046+0x10e8>
   1abc2:	48 89 c7             	mov    %rax,%rdi
   1abc5:	e8 29 3b ff ff       	callq  e6f3 <transparent_crc>
   1abca:	8b 45 ec             	mov    -0x14(%rbp),%eax
   1abcd:	48 98                	cltq   
   1abcf:	8b 55 e8             	mov    -0x18(%rbp),%edx
   1abd2:	48 63 ca             	movslq %edx,%rcx
   1abd5:	48 89 c2             	mov    %rax,%rdx
   1abd8:	48 01 d2             	add    %rdx,%rdx
   1abdb:	48 01 c2             	add    %rax,%rdx
   1abde:	48 8d 04 d5 00 00 00 	lea    0x0(,%rdx,8),%rax
   1abe5:	00 
   1abe6:	48 89 c2             	mov    %rax,%rdx
   1abe9:	48 89 c8             	mov    %rcx,%rax
   1abec:	48 c1 e0 02          	shl    $0x2,%rax
   1abf0:	48 01 c8             	add    %rcx,%rax
   1abf3:	48 c1 e0 02          	shl    $0x2,%rax
   1abf7:	48 01 c8             	add    %rcx,%rax
   1abfa:	48 c1 e0 03          	shl    $0x3,%rax
   1abfe:	48 01 c2             	add    %rax,%rdx
   1ac01:	48 8d 05 b8 99 00 00 	lea    0x99b8(%rip),%rax        # 245c0 <g_915>
   1ac08:	48 01 d0             	add    %rdx,%rax
   1ac0b:	8b 40 04             	mov    0x4(%rax),%eax
   1ac0e:	c1 e0 02             	shl    $0x2,%eax
   1ac11:	c1 f8 02             	sar    $0x2,%eax
   1ac14:	48 98                	cltq   
   1ac16:	8b 55 f4             	mov    -0xc(%rbp),%edx
   1ac19:	48 8d 35 f7 5b 00 00 	lea    0x5bf7(%rip),%rsi        # 20817 <g_5046+0x10f7>
   1ac20:	48 89 c7             	mov    %rax,%rdi
   1ac23:	e8 cb 3a ff ff       	callq  e6f3 <transparent_crc>
   1ac28:	8b 45 ec             	mov    -0x14(%rbp),%eax
   1ac2b:	48 98                	cltq   
   1ac2d:	8b 55 e8             	mov    -0x18(%rbp),%edx
   1ac30:	48 63 ca             	movslq %edx,%rcx
   1ac33:	48 89 c2             	mov    %rax,%rdx
   1ac36:	48 01 d2             	add    %rdx,%rdx
   1ac39:	48 01 c2             	add    %rax,%rdx
   1ac3c:	48 8d 04 d5 00 00 00 	lea    0x0(,%rdx,8),%rax
   1ac43:	00 
   1ac44:	48 89 c2             	mov    %rax,%rdx
   1ac47:	48 89 c8             	mov    %rcx,%rax
   1ac4a:	48 c1 e0 02          	shl    $0x2,%rax
   1ac4e:	48 01 c8             	add    %rcx,%rax
   1ac51:	48 c1 e0 02          	shl    $0x2,%rax
   1ac55:	48 01 c8             	add    %rcx,%rax
   1ac58:	48 c1 e0 03          	shl    $0x3,%rax
   1ac5c:	48 01 c2             	add    %rax,%rdx
   1ac5f:	48 8d 05 5a 99 00 00 	lea    0x995a(%rip),%rax        # 245c0 <g_915>
   1ac66:	48 01 d0             	add    %rdx,%rax
   1ac69:	0f b7 40 08          	movzwl 0x8(%rax),%eax
   1ac6d:	c1 e0 07             	shl    $0x7,%eax
   1ac70:	66 c1 f8 07          	sar    $0x7,%ax
   1ac74:	48 0f bf c0          	movswq %ax,%rax
   1ac78:	8b 55 f4             	mov    -0xc(%rbp),%edx
   1ac7b:	48 8d 35 a4 5b 00 00 	lea    0x5ba4(%rip),%rsi        # 20826 <g_5046+0x1106>
   1ac82:	48 89 c7             	mov    %rax,%rdi
   1ac85:	e8 69 3a ff ff       	callq  e6f3 <transparent_crc>
   1ac8a:	8b 45 ec             	mov    -0x14(%rbp),%eax
   1ac8d:	48 98                	cltq   
   1ac8f:	8b 55 e8             	mov    -0x18(%rbp),%edx
   1ac92:	48 63 ca             	movslq %edx,%rcx
   1ac95:	48 89 c2             	mov    %rax,%rdx
   1ac98:	48 01 d2             	add    %rdx,%rdx
   1ac9b:	48 01 c2             	add    %rax,%rdx
   1ac9e:	48 8d 04 d5 00 00 00 	lea    0x0(,%rdx,8),%rax
   1aca5:	00 
   1aca6:	48 89 c2             	mov    %rax,%rdx
   1aca9:	48 89 c8             	mov    %rcx,%rax
   1acac:	48 c1 e0 02          	shl    $0x2,%rax
   1acb0:	48 01 c8             	add    %rcx,%rax
   1acb3:	48 c1 e0 02          	shl    $0x2,%rax
   1acb7:	48 01 c8             	add    %rcx,%rax
   1acba:	48 c1 e0 03          	shl    $0x3,%rax
   1acbe:	48 01 c2             	add    %rax,%rdx
   1acc1:	48 8d 05 f8 98 00 00 	lea    0x98f8(%rip),%rax        # 245c0 <g_915>
   1acc8:	48 01 d0             	add    %rdx,%rax
   1accb:	8b 40 08             	mov    0x8(%rax),%eax
   1acce:	c1 e0 07             	shl    $0x7,%eax
   1acd1:	c1 f8 10             	sar    $0x10,%eax
   1acd4:	48 0f bf c0          	movswq %ax,%rax
   1acd8:	8b 55 f4             	mov    -0xc(%rbp),%edx
   1acdb:	48 8d 35 53 5b 00 00 	lea    0x5b53(%rip),%rsi        # 20835 <g_5046+0x1115>
   1ace2:	48 89 c7             	mov    %rax,%rdi
   1ace5:	e8 09 3a ff ff       	callq  e6f3 <transparent_crc>
   1acea:	8b 45 ec             	mov    -0x14(%rbp),%eax
   1aced:	48 98                	cltq   
   1acef:	8b 55 e8             	mov    -0x18(%rbp),%edx
   1acf2:	48 63 ca             	movslq %edx,%rcx
   1acf5:	48 89 c2             	mov    %rax,%rdx
   1acf8:	48 01 d2             	add    %rdx,%rdx
   1acfb:	48 01 c2             	add    %rax,%rdx
   1acfe:	48 8d 04 d5 00 00 00 	lea    0x0(,%rdx,8),%rax
   1ad05:	00 
   1ad06:	48 89 c2             	mov    %rax,%rdx
   1ad09:	48 89 c8             	mov    %rcx,%rax
   1ad0c:	48 c1 e0 02          	shl    $0x2,%rax
   1ad10:	48 01 c8             	add    %rcx,%rax
   1ad13:	48 c1 e0 02          	shl    $0x2,%rax
   1ad17:	48 01 c8             	add    %rcx,%rax
   1ad1a:	48 c1 e0 03          	shl    $0x3,%rax
   1ad1e:	48 01 c2             	add    %rax,%rdx
   1ad21:	48 8d 05 98 98 00 00 	lea    0x9898(%rip),%rax        # 245c0 <g_915>
   1ad28:	48 01 d0             	add    %rdx,%rax
   1ad2b:	0f b6 40 0b          	movzbl 0xb(%rax),%eax
   1ad2f:	c1 e0 06             	shl    $0x6,%eax
   1ad32:	c0 f8 07             	sar    $0x7,%al
   1ad35:	48 0f be c0          	movsbq %al,%rax
   1ad39:	8b 55 f4             	mov    -0xc(%rbp),%edx
   1ad3c:	48 8d 35 01 5b 00 00 	lea    0x5b01(%rip),%rsi        # 20844 <g_5046+0x1124>
   1ad43:	48 89 c7             	mov    %rax,%rdi
   1ad46:	e8 a8 39 ff ff       	callq  e6f3 <transparent_crc>
   1ad4b:	8b 45 ec             	mov    -0x14(%rbp),%eax
   1ad4e:	48 98                	cltq   
   1ad50:	8b 55 e8             	mov    -0x18(%rbp),%edx
   1ad53:	48 63 ca             	movslq %edx,%rcx
   1ad56:	48 89 c2             	mov    %rax,%rdx
   1ad59:	48 01 d2             	add    %rdx,%rdx
   1ad5c:	48 01 c2             	add    %rax,%rdx
   1ad5f:	48 8d 04 d5 00 00 00 	lea    0x0(,%rdx,8),%rax
   1ad66:	00 
   1ad67:	48 89 c2             	mov    %rax,%rdx
   1ad6a:	48 89 c8             	mov    %rcx,%rax
   1ad6d:	48 c1 e0 02          	shl    $0x2,%rax
   1ad71:	48 01 c8             	add    %rcx,%rax
   1ad74:	48 c1 e0 02          	shl    $0x2,%rax
   1ad78:	48 01 c8             	add    %rcx,%rax
   1ad7b:	48 c1 e0 03          	shl    $0x3,%rax
   1ad7f:	48 01 c2             	add    %rax,%rdx
   1ad82:	48 8d 05 37 98 00 00 	lea    0x9837(%rip),%rax        # 245c0 <g_915>
   1ad89:	48 01 d0             	add    %rdx,%rax
   1ad8c:	8b 40 0c             	mov    0xc(%rax),%eax
   1ad8f:	25 ff ff 3f 00       	and    $0x3fffff,%eax
   1ad94:	89 c1                	mov    %eax,%ecx
   1ad96:	8b 45 f4             	mov    -0xc(%rbp),%eax
   1ad99:	89 c2                	mov    %eax,%edx
   1ad9b:	48 8d 35 b1 5a 00 00 	lea    0x5ab1(%rip),%rsi        # 20853 <g_5046+0x1133>
   1ada2:	48 89 cf             	mov    %rcx,%rdi
   1ada5:	e8 49 39 ff ff       	callq  e6f3 <transparent_crc>
   1adaa:	8b 45 ec             	mov    -0x14(%rbp),%eax
   1adad:	48 98                	cltq   
   1adaf:	8b 55 e8             	mov    -0x18(%rbp),%edx
   1adb2:	48 63 ca             	movslq %edx,%rcx
   1adb5:	48 89 c2             	mov    %rax,%rdx
   1adb8:	48 01 d2             	add    %rdx,%rdx
   1adbb:	48 01 c2             	add    %rax,%rdx
   1adbe:	48 8d 04 d5 00 00 00 	lea    0x0(,%rdx,8),%rax
   1adc5:	00 
   1adc6:	48 89 c2             	mov    %rax,%rdx
   1adc9:	48 89 c8             	mov    %rcx,%rax
   1adcc:	48 c1 e0 02          	shl    $0x2,%rax
   1add0:	48 01 c8             	add    %rcx,%rax
   1add3:	48 c1 e0 02          	shl    $0x2,%rax
   1add7:	48 01 c8             	add    %rcx,%rax
   1adda:	48 c1 e0 03          	shl    $0x3,%rax
   1adde:	48 01 c2             	add    %rax,%rdx
   1ade1:	48 8d 05 e8 97 00 00 	lea    0x97e8(%rip),%rax        # 245d0 <g_915+0x10>
   1ade8:	48 01 d0             	add    %rdx,%rax
   1adeb:	48 8b 00             	mov    (%rax),%rax
   1adee:	c1 e0 03             	shl    $0x3,%eax
   1adf1:	c1 f8 03             	sar    $0x3,%eax
   1adf4:	48 98                	cltq   
   1adf6:	8b 55 f4             	mov    -0xc(%rbp),%edx
   1adf9:	48 8d 35 62 5a 00 00 	lea    0x5a62(%rip),%rsi        # 20862 <g_5046+0x1142>
   1ae00:	48 89 c7             	mov    %rax,%rdi
   1ae03:	e8 eb 38 ff ff       	callq  e6f3 <transparent_crc>
   1ae08:	8b 45 ec             	mov    -0x14(%rbp),%eax
   1ae0b:	48 98                	cltq   
   1ae0d:	8b 55 e8             	mov    -0x18(%rbp),%edx
   1ae10:	48 63 ca             	movslq %edx,%rcx
   1ae13:	48 89 c2             	mov    %rax,%rdx
   1ae16:	48 01 d2             	add    %rdx,%rdx
   1ae19:	48 01 c2             	add    %rax,%rdx
   1ae1c:	48 8d 04 d5 00 00 00 	lea    0x0(,%rdx,8),%rax
   1ae23:	00 
   1ae24:	48 89 c2             	mov    %rax,%rdx
   1ae27:	48 89 c8             	mov    %rcx,%rax
   1ae2a:	48 c1 e0 02          	shl    $0x2,%rax
   1ae2e:	48 01 c8             	add    %rcx,%rax
   1ae31:	48 c1 e0 02          	shl    $0x2,%rax
   1ae35:	48 01 c8             	add    %rcx,%rax
   1ae38:	48 c1 e0 03          	shl    $0x3,%rax
   1ae3c:	48 01 c2             	add    %rax,%rdx
   1ae3f:	48 8d 05 8a 97 00 00 	lea    0x978a(%rip),%rax        # 245d0 <g_915+0x10>
   1ae46:	48 01 d0             	add    %rdx,%rax
   1ae49:	8b 40 04             	mov    0x4(%rax),%eax
   1ae4c:	c1 e0 04             	shl    $0x4,%eax
   1ae4f:	c1 f8 04             	sar    $0x4,%eax
   1ae52:	48 98                	cltq   
   1ae54:	8b 55 f4             	mov    -0xc(%rbp),%edx
   1ae57:	48 8d 35 13 5a 00 00 	lea    0x5a13(%rip),%rsi        # 20871 <g_5046+0x1151>
   1ae5e:	48 89 c7             	mov    %rax,%rdi
   1ae61:	e8 8d 38 ff ff       	callq  e6f3 <transparent_crc>
   1ae66:	83 7d f4 00          	cmpl   $0x0,-0xc(%rbp)
   1ae6a:	74 19                	je     1ae85 <main+0x17d5>
   1ae6c:	8b 55 ec             	mov    -0x14(%rbp),%edx
   1ae6f:	8b 45 e8             	mov    -0x18(%rbp),%eax
   1ae72:	89 c6                	mov    %eax,%esi
   1ae74:	48 8d 3d 97 55 00 00 	lea    0x5597(%rip),%rdi        # 20412 <g_5046+0xcf2>
   1ae7b:	b8 00 00 00 00       	mov    $0x0,%eax
   1ae80:	e8 fb 21 ff ff       	callq  d080 <printf@plt>
   1ae85:	83 45 ec 01          	addl   $0x1,-0x14(%rbp)
   1ae89:	83 7d ec 06          	cmpl   $0x6,-0x14(%rbp)
   1ae8d:	0f 8e d9 fc ff ff    	jle    1ab6c <main+0x14bc>
   1ae93:	83 45 e8 01          	addl   $0x1,-0x18(%rbp)
   1ae97:	83 7d e8 03          	cmpl   $0x3,-0x18(%rbp)
   1ae9b:	0f 8e bf fc ff ff    	jle    1ab60 <main+0x14b0>
   1aea1:	c7 45 e8 00 00 00 00 	movl   $0x0,-0x18(%rbp)
   1aea8:	e9 02 02 00 00       	jmpq   1b0af <main+0x19ff>
   1aead:	8b 45 e8             	mov    -0x18(%rbp),%eax
   1aeb0:	48 63 d0             	movslq %eax,%rdx
   1aeb3:	48 89 d0             	mov    %rdx,%rax
   1aeb6:	48 01 c0             	add    %rax,%rax
   1aeb9:	48 01 d0             	add    %rdx,%rax
   1aebc:	48 c1 e0 03          	shl    $0x3,%rax
   1aec0:	48 89 c2             	mov    %rax,%rdx
   1aec3:	48 8d 05 96 99 00 00 	lea    0x9996(%rip),%rax        # 24860 <g_1093>
   1aeca:	48 8b 04 02          	mov    (%rdx,%rax,1),%rax
   1aece:	c1 e0 0d             	shl    $0xd,%eax
   1aed1:	c1 f8 0d             	sar    $0xd,%eax
   1aed4:	48 98                	cltq   
   1aed6:	8b 55 f4             	mov    -0xc(%rbp),%edx
   1aed9:	48 8d 35 a0 59 00 00 	lea    0x59a0(%rip),%rsi        # 20880 <g_5046+0x1160>
   1aee0:	48 89 c7             	mov    %rax,%rdi
   1aee3:	e8 0b 38 ff ff       	callq  e6f3 <transparent_crc>
   1aee8:	8b 45 e8             	mov    -0x18(%rbp),%eax
   1aeeb:	48 63 d0             	movslq %eax,%rdx
   1aeee:	48 89 d0             	mov    %rdx,%rax
   1aef1:	48 01 c0             	add    %rax,%rax
   1aef4:	48 01 d0             	add    %rdx,%rax
   1aef7:	48 c1 e0 03          	shl    $0x3,%rax
   1aefb:	48 89 c2             	mov    %rax,%rdx
   1aefe:	48 8d 05 5b 99 00 00 	lea    0x995b(%rip),%rax        # 24860 <g_1093>
   1af05:	8b 44 02 04          	mov    0x4(%rdx,%rax,1),%eax
   1af09:	c1 e0 02             	shl    $0x2,%eax
   1af0c:	c1 f8 02             	sar    $0x2,%eax
   1af0f:	48 98                	cltq   
   1af11:	8b 55 f4             	mov    -0xc(%rbp),%edx
   1af14:	48 8d 35 72 59 00 00 	lea    0x5972(%rip),%rsi        # 2088d <g_5046+0x116d>
   1af1b:	48 89 c7             	mov    %rax,%rdi
   1af1e:	e8 d0 37 ff ff       	callq  e6f3 <transparent_crc>
   1af23:	8b 45 e8             	mov    -0x18(%rbp),%eax
   1af26:	48 63 d0             	movslq %eax,%rdx
   1af29:	48 89 d0             	mov    %rdx,%rax
   1af2c:	48 01 c0             	add    %rax,%rax
   1af2f:	48 01 d0             	add    %rdx,%rax
   1af32:	48 c1 e0 03          	shl    $0x3,%rax
   1af36:	48 89 c2             	mov    %rax,%rdx
   1af39:	48 8d 05 20 99 00 00 	lea    0x9920(%rip),%rax        # 24860 <g_1093>
   1af40:	0f b7 44 02 08       	movzwl 0x8(%rdx,%rax,1),%eax
   1af45:	c1 e0 07             	shl    $0x7,%eax
   1af48:	66 c1 f8 07          	sar    $0x7,%ax
   1af4c:	48 0f bf c0          	movswq %ax,%rax
   1af50:	8b 55 f4             	mov    -0xc(%rbp),%edx
   1af53:	48 8d 35 40 59 00 00 	lea    0x5940(%rip),%rsi        # 2089a <g_5046+0x117a>
   1af5a:	48 89 c7             	mov    %rax,%rdi
   1af5d:	e8 91 37 ff ff       	callq  e6f3 <transparent_crc>
   1af62:	8b 45 e8             	mov    -0x18(%rbp),%eax
   1af65:	48 63 d0             	movslq %eax,%rdx
   1af68:	48 89 d0             	mov    %rdx,%rax
   1af6b:	48 01 c0             	add    %rax,%rax
   1af6e:	48 01 d0             	add    %rdx,%rax
   1af71:	48 c1 e0 03          	shl    $0x3,%rax
   1af75:	48 89 c2             	mov    %rax,%rdx
   1af78:	48 8d 05 e1 98 00 00 	lea    0x98e1(%rip),%rax        # 24860 <g_1093>
   1af7f:	8b 44 02 08          	mov    0x8(%rdx,%rax,1),%eax
   1af83:	c1 e0 07             	shl    $0x7,%eax
   1af86:	c1 f8 10             	sar    $0x10,%eax
   1af89:	48 0f bf c0          	movswq %ax,%rax
   1af8d:	8b 55 f4             	mov    -0xc(%rbp),%edx
   1af90:	48 8d 35 10 59 00 00 	lea    0x5910(%rip),%rsi        # 208a7 <g_5046+0x1187>
   1af97:	48 89 c7             	mov    %rax,%rdi
   1af9a:	e8 54 37 ff ff       	callq  e6f3 <transparent_crc>
   1af9f:	8b 45 e8             	mov    -0x18(%rbp),%eax
   1afa2:	48 63 d0             	movslq %eax,%rdx
   1afa5:	48 89 d0             	mov    %rdx,%rax
   1afa8:	48 01 c0             	add    %rax,%rax
   1afab:	48 01 d0             	add    %rdx,%rax
   1afae:	48 c1 e0 03          	shl    $0x3,%rax
   1afb2:	48 89 c2             	mov    %rax,%rdx
   1afb5:	48 8d 05 a4 98 00 00 	lea    0x98a4(%rip),%rax        # 24860 <g_1093>
   1afbc:	0f b6 44 02 0b       	movzbl 0xb(%rdx,%rax,1),%eax
   1afc1:	c1 e0 06             	shl    $0x6,%eax
   1afc4:	c0 f8 07             	sar    $0x7,%al
   1afc7:	48 0f be c0          	movsbq %al,%rax
   1afcb:	8b 55 f4             	mov    -0xc(%rbp),%edx
   1afce:	48 8d 35 df 58 00 00 	lea    0x58df(%rip),%rsi        # 208b4 <g_5046+0x1194>
   1afd5:	48 89 c7             	mov    %rax,%rdi
   1afd8:	e8 16 37 ff ff       	callq  e6f3 <transparent_crc>
   1afdd:	8b 45 e8             	mov    -0x18(%rbp),%eax
   1afe0:	48 63 d0             	movslq %eax,%rdx
   1afe3:	48 89 d0             	mov    %rdx,%rax
   1afe6:	48 01 c0             	add    %rax,%rax
   1afe9:	48 01 d0             	add    %rdx,%rax
   1afec:	48 c1 e0 03          	shl    $0x3,%rax
   1aff0:	48 89 c2             	mov    %rax,%rdx
   1aff3:	48 8d 05 66 98 00 00 	lea    0x9866(%rip),%rax        # 24860 <g_1093>
   1affa:	8b 44 02 0c          	mov    0xc(%rdx,%rax,1),%eax
   1affe:	25 ff ff 3f 00       	and    $0x3fffff,%eax
   1b003:	89 c1                	mov    %eax,%ecx
   1b005:	8b 45 f4             	mov    -0xc(%rbp),%eax
   1b008:	89 c2                	mov    %eax,%edx
   1b00a:	48 8d 35 b0 58 00 00 	lea    0x58b0(%rip),%rsi        # 208c1 <g_5046+0x11a1>
   1b011:	48 89 cf             	mov    %rcx,%rdi
   1b014:	e8 da 36 ff ff       	callq  e6f3 <transparent_crc>
   1b019:	8b 45 e8             	mov    -0x18(%rbp),%eax
   1b01c:	48 63 d0             	movslq %eax,%rdx
   1b01f:	48 89 d0             	mov    %rdx,%rax
   1b022:	48 01 c0             	add    %rax,%rax
   1b025:	48 01 d0             	add    %rdx,%rax
   1b028:	48 c1 e0 03          	shl    $0x3,%rax
   1b02c:	48 89 c2             	mov    %rax,%rdx
   1b02f:	48 8d 05 3a 98 00 00 	lea    0x983a(%rip),%rax        # 24870 <g_1093+0x10>
   1b036:	48 8b 04 02          	mov    (%rdx,%rax,1),%rax
   1b03a:	c1 e0 03             	shl    $0x3,%eax
   1b03d:	c1 f8 03             	sar    $0x3,%eax
   1b040:	48 98                	cltq   
   1b042:	8b 55 f4             	mov    -0xc(%rbp),%edx
   1b045:	48 8d 35 82 58 00 00 	lea    0x5882(%rip),%rsi        # 208ce <g_5046+0x11ae>
   1b04c:	48 89 c7             	mov    %rax,%rdi
   1b04f:	e8 9f 36 ff ff       	callq  e6f3 <transparent_crc>
   1b054:	8b 45 e8             	mov    -0x18(%rbp),%eax
   1b057:	48 63 d0             	movslq %eax,%rdx
   1b05a:	48 89 d0             	mov    %rdx,%rax
   1b05d:	48 01 c0             	add    %rax,%rax
   1b060:	48 01 d0             	add    %rdx,%rax
   1b063:	48 c1 e0 03          	shl    $0x3,%rax
   1b067:	48 89 c2             	mov    %rax,%rdx
   1b06a:	48 8d 05 ff 97 00 00 	lea    0x97ff(%rip),%rax        # 24870 <g_1093+0x10>
   1b071:	8b 44 02 04          	mov    0x4(%rdx,%rax,1),%eax
   1b075:	c1 e0 04             	shl    $0x4,%eax
   1b078:	c1 f8 04             	sar    $0x4,%eax
   1b07b:	48 98                	cltq   
   1b07d:	8b 55 f4             	mov    -0xc(%rbp),%edx
   1b080:	48 8d 35 54 58 00 00 	lea    0x5854(%rip),%rsi        # 208db <g_5046+0x11bb>
   1b087:	48 89 c7             	mov    %rax,%rdi
   1b08a:	e8 64 36 ff ff       	callq  e6f3 <transparent_crc>
   1b08f:	83 7d f4 00          	cmpl   $0x0,-0xc(%rbp)
   1b093:	74 16                	je     1b0ab <main+0x19fb>
   1b095:	8b 45 e8             	mov    -0x18(%rbp),%eax
   1b098:	89 c6                	mov    %eax,%esi
   1b09a:	48 8d 3d 95 53 00 00 	lea    0x5395(%rip),%rdi        # 20436 <g_5046+0xd16>
   1b0a1:	b8 00 00 00 00       	mov    $0x0,%eax
   1b0a6:	e8 d5 1f ff ff       	callq  d080 <printf@plt>
   1b0ab:	83 45 e8 01          	addl   $0x1,-0x18(%rbp)
   1b0af:	83 7d e8 00          	cmpl   $0x0,-0x18(%rbp)
   1b0b3:	0f 8e f4 fd ff ff    	jle    1aead <main+0x17fd>
   1b0b9:	0f b6 05 b8 97 00 00 	movzbl 0x97b8(%rip),%eax        # 24878 <g_1151>
   1b0c0:	0f b6 c0             	movzbl %al,%eax
   1b0c3:	8b 55 f4             	mov    -0xc(%rbp),%edx
   1b0c6:	48 8d 35 1b 58 00 00 	lea    0x581b(%rip),%rsi        # 208e8 <g_5046+0x11c8>
   1b0cd:	48 89 c7             	mov    %rax,%rdi
   1b0d0:	e8 1e 36 ff ff       	callq  e6f3 <transparent_crc>
   1b0d5:	48 8b 05 24 45 00 00 	mov    0x4524(%rip),%rax        # 1f600 <g_1198>
   1b0dc:	c1 e0 0d             	shl    $0xd,%eax
   1b0df:	c1 f8 0d             	sar    $0xd,%eax
   1b0e2:	48 98                	cltq   
   1b0e4:	8b 55 f4             	mov    -0xc(%rbp),%edx
   1b0e7:	48 8d 35 01 58 00 00 	lea    0x5801(%rip),%rsi        # 208ef <g_5046+0x11cf>
   1b0ee:	48 89 c7             	mov    %rax,%rdi
   1b0f1:	e8 fd 35 ff ff       	callq  e6f3 <transparent_crc>
   1b0f6:	b8 13 71 00 00       	mov    $0x7113,%eax
   1b0fb:	48 98                	cltq   
   1b0fd:	8b 55 f4             	mov    -0xc(%rbp),%edx
   1b100:	48 8d 35 f2 57 00 00 	lea    0x57f2(%rip),%rsi        # 208f9 <g_5046+0x11d9>
   1b107:	48 89 c7             	mov    %rax,%rdi
   1b10a:	e8 e4 35 ff ff       	callq  e6f3 <transparent_crc>
   1b10f:	b8 f0 ff ff ff       	mov    $0xfffffff0,%eax
   1b114:	48 0f bf c0          	movswq %ax,%rax
   1b118:	8b 55 f4             	mov    -0xc(%rbp),%edx
   1b11b:	48 8d 35 e1 57 00 00 	lea    0x57e1(%rip),%rsi        # 20903 <g_5046+0x11e3>
   1b122:	48 89 c7             	mov    %rax,%rdi
   1b125:	e8 c9 35 ff ff       	callq  e6f3 <transparent_crc>
   1b12a:	b8 60 ff ff ff       	mov    $0xffffff60,%eax
   1b12f:	48 0f bf c0          	movswq %ax,%rax
   1b133:	8b 55 f4             	mov    -0xc(%rbp),%edx
   1b136:	48 8d 35 d0 57 00 00 	lea    0x57d0(%rip),%rsi        # 2090d <g_5046+0x11ed>
   1b13d:	48 89 c7             	mov    %rax,%rdi
   1b140:	e8 ae 35 ff ff       	callq  e6f3 <transparent_crc>
   1b145:	b8 00 00 00 00       	mov    $0x0,%eax
   1b14a:	48 0f be c0          	movsbq %al,%rax
   1b14e:	8b 55 f4             	mov    -0xc(%rbp),%edx
   1b151:	48 8d 35 bf 57 00 00 	lea    0x57bf(%rip),%rsi        # 20917 <g_5046+0x11f7>
   1b158:	48 89 c7             	mov    %rax,%rdi
   1b15b:	e8 93 35 ff ff       	callq  e6f3 <transparent_crc>
   1b160:	b8 7a 02 00 00       	mov    $0x27a,%eax
   1b165:	89 c1                	mov    %eax,%ecx
   1b167:	8b 45 f4             	mov    -0xc(%rbp),%eax
   1b16a:	89 c2                	mov    %eax,%edx
   1b16c:	48 8d 35 ae 57 00 00 	lea    0x57ae(%rip),%rsi        # 20921 <g_5046+0x1201>
   1b173:	48 89 cf             	mov    %rcx,%rdi
   1b176:	e8 78 35 ff ff       	callq  e6f3 <transparent_crc>
   1b17b:	48 8b 05 8e 44 00 00 	mov    0x448e(%rip),%rax        # 1f610 <g_1198+0x10>
   1b182:	c1 e0 03             	shl    $0x3,%eax
   1b185:	c1 f8 03             	sar    $0x3,%eax
   1b188:	48 98                	cltq   
   1b18a:	8b 55 f4             	mov    -0xc(%rbp),%edx
   1b18d:	48 8d 35 97 57 00 00 	lea    0x5797(%rip),%rsi        # 2092b <g_5046+0x120b>
   1b194:	48 89 c7             	mov    %rax,%rdi
   1b197:	e8 57 35 ff ff       	callq  e6f3 <transparent_crc>
   1b19c:	b8 f3 de ff ff       	mov    $0xffffdef3,%eax
   1b1a1:	48 98                	cltq   
   1b1a3:	8b 55 f4             	mov    -0xc(%rbp),%edx
   1b1a6:	48 8d 35 88 57 00 00 	lea    0x5788(%rip),%rsi        # 20935 <g_5046+0x1215>
   1b1ad:	48 89 c7             	mov    %rax,%rdi
   1b1b0:	e8 3e 35 ff ff       	callq  e6f3 <transparent_crc>
   1b1b5:	0f b7 05 be 96 00 00 	movzwl 0x96be(%rip),%eax        # 2487a <g_1224>
   1b1bc:	48 0f bf c0          	movswq %ax,%rax
   1b1c0:	8b 55 f4             	mov    -0xc(%rbp),%edx
   1b1c3:	48 8d 35 75 57 00 00 	lea    0x5775(%rip),%rsi        # 2093f <g_5046+0x121f>
   1b1ca:	48 89 c7             	mov    %rax,%rdi
   1b1cd:	e8 21 35 ff ff       	callq  e6f3 <transparent_crc>
   1b1d2:	c7 45 e8 00 00 00 00 	movl   $0x0,-0x18(%rbp)
   1b1d9:	eb 75                	jmp    1b250 <main+0x1ba0>
   1b1db:	c7 45 ec 00 00 00 00 	movl   $0x0,-0x14(%rbp)
   1b1e2:	eb 62                	jmp    1b246 <main+0x1b96>
   1b1e4:	8b 45 ec             	mov    -0x14(%rbp),%eax
   1b1e7:	48 63 c8             	movslq %eax,%rcx
   1b1ea:	8b 45 e8             	mov    -0x18(%rbp),%eax
   1b1ed:	48 63 d0             	movslq %eax,%rdx
   1b1f0:	48 89 d0             	mov    %rdx,%rax
   1b1f3:	48 c1 e0 03          	shl    $0x3,%rax
   1b1f7:	48 29 d0             	sub    %rdx,%rax
   1b1fa:	48 01 c8             	add    %rcx,%rax
   1b1fd:	48 8d 14 85 00 00 00 	lea    0x0(,%rax,4),%rdx
   1b204:	00 
   1b205:	48 8d 05 74 96 00 00 	lea    0x9674(%rip),%rax        # 24880 <g_1226>
   1b20c:	8b 04 02             	mov    (%rdx,%rax,1),%eax
   1b20f:	48 98                	cltq   
   1b211:	8b 55 f4             	mov    -0xc(%rbp),%edx
   1b214:	48 8d 35 2b 57 00 00 	lea    0x572b(%rip),%rsi        # 20946 <g_5046+0x1226>
   1b21b:	48 89 c7             	mov    %rax,%rdi
   1b21e:	e8 d0 34 ff ff       	callq  e6f3 <transparent_crc>
   1b223:	83 7d f4 00          	cmpl   $0x0,-0xc(%rbp)
   1b227:	74 19                	je     1b242 <main+0x1b92>
   1b229:	8b 55 ec             	mov    -0x14(%rbp),%edx
   1b22c:	8b 45 e8             	mov    -0x18(%rbp),%eax
   1b22f:	89 c6                	mov    %eax,%esi
   1b231:	48 8d 3d da 51 00 00 	lea    0x51da(%rip),%rdi        # 20412 <g_5046+0xcf2>
   1b238:	b8 00 00 00 00       	mov    $0x0,%eax
   1b23d:	e8 3e 1e ff ff       	callq  d080 <printf@plt>
   1b242:	83 45 ec 01          	addl   $0x1,-0x14(%rbp)
   1b246:	83 7d ec 06          	cmpl   $0x6,-0x14(%rbp)
   1b24a:	7e 98                	jle    1b1e4 <main+0x1b34>
   1b24c:	83 45 e8 01          	addl   $0x1,-0x18(%rbp)
   1b250:	83 7d e8 01          	cmpl   $0x1,-0x18(%rbp)
   1b254:	7e 85                	jle    1b1db <main+0x1b2b>
   1b256:	48 8b 05 63 96 00 00 	mov    0x9663(%rip),%rax        # 248c0 <g_1329>
   1b25d:	c1 e0 0d             	shl    $0xd,%eax
   1b260:	c1 f8 0d             	sar    $0xd,%eax
   1b263:	48 98                	cltq   
   1b265:	8b 55 f4             	mov    -0xc(%rbp),%edx
   1b268:	48 8d 35 e4 56 00 00 	lea    0x56e4(%rip),%rsi        # 20953 <g_5046+0x1233>
   1b26f:	48 89 c7             	mov    %rax,%rdi
   1b272:	e8 7c 34 ff ff       	callq  e6f3 <transparent_crc>
   1b277:	48 8b 05 42 96 00 00 	mov    0x9642(%rip),%rax        # 248c0 <g_1329>
   1b27e:	48 c1 e0 02          	shl    $0x2,%rax
   1b282:	48 c1 f8 22          	sar    $0x22,%rax
   1b286:	48 98                	cltq   
   1b288:	8b 55 f4             	mov    -0xc(%rbp),%edx
   1b28b:	48 8d 35 cb 56 00 00 	lea    0x56cb(%rip),%rsi        # 2095d <g_5046+0x123d>
   1b292:	48 89 c7             	mov    %rax,%rdi
   1b295:	e8 59 34 ff ff       	callq  e6f3 <transparent_crc>
   1b29a:	48 8b 05 27 96 00 00 	mov    0x9627(%rip),%rax        # 248c8 <g_1329+0x8>
   1b2a1:	c1 e0 07             	shl    $0x7,%eax
   1b2a4:	66 c1 f8 07          	sar    $0x7,%ax
   1b2a8:	48 0f bf c0          	movswq %ax,%rax
   1b2ac:	8b 55 f4             	mov    -0xc(%rbp),%edx
   1b2af:	48 8d 35 b1 56 00 00 	lea    0x56b1(%rip),%rsi        # 20967 <g_5046+0x1247>
   1b2b6:	48 89 c7             	mov    %rax,%rdi
   1b2b9:	e8 35 34 ff ff       	callq  e6f3 <transparent_crc>
   1b2be:	48 8b 05 03 96 00 00 	mov    0x9603(%rip),%rax        # 248c8 <g_1329+0x8>
   1b2c5:	c1 e0 07             	shl    $0x7,%eax
   1b2c8:	c1 f8 10             	sar    $0x10,%eax
   1b2cb:	48 0f bf c0          	movswq %ax,%rax
   1b2cf:	8b 55 f4             	mov    -0xc(%rbp),%edx
   1b2d2:	48 8d 35 98 56 00 00 	lea    0x5698(%rip),%rsi        # 20971 <g_5046+0x1251>
   1b2d9:	48 89 c7             	mov    %rax,%rdi
   1b2dc:	e8 12 34 ff ff       	callq  e6f3 <transparent_crc>
   1b2e1:	48 8b 05 e0 95 00 00 	mov    0x95e0(%rip),%rax        # 248c8 <g_1329+0x8>
   1b2e8:	c1 e0 06             	shl    $0x6,%eax
   1b2eb:	c1 f8 1f             	sar    $0x1f,%eax
   1b2ee:	48 0f be c0          	movsbq %al,%rax
   1b2f2:	8b 55 f4             	mov    -0xc(%rbp),%edx
   1b2f5:	48 8d 35 7f 56 00 00 	lea    0x567f(%rip),%rsi        # 2097b <g_5046+0x125b>
   1b2fc:	48 89 c7             	mov    %rax,%rdi
   1b2ff:	e8 ef 33 ff ff       	callq  e6f3 <transparent_crc>
   1b304:	48 8b 05 bd 95 00 00 	mov    0x95bd(%rip),%rax        # 248c8 <g_1329+0x8>
   1b30b:	48 c1 e8 20          	shr    $0x20,%rax
   1b30f:	25 ff ff 3f 00       	and    $0x3fffff,%eax
   1b314:	89 c1                	mov    %eax,%ecx
   1b316:	8b 45 f4             	mov    -0xc(%rbp),%eax
   1b319:	89 c2                	mov    %eax,%edx
   1b31b:	48 8d 35 63 56 00 00 	lea    0x5663(%rip),%rsi        # 20985 <g_5046+0x1265>
   1b322:	48 89 cf             	mov    %rcx,%rdi
   1b325:	e8 c9 33 ff ff       	callq  e6f3 <transparent_crc>
   1b32a:	48 8b 05 9f 95 00 00 	mov    0x959f(%rip),%rax        # 248d0 <g_1329+0x10>
   1b331:	c1 e0 03             	shl    $0x3,%eax
   1b334:	c1 f8 03             	sar    $0x3,%eax
   1b337:	48 98                	cltq   
   1b339:	8b 55 f4             	mov    -0xc(%rbp),%edx
   1b33c:	48 8d 35 4c 56 00 00 	lea    0x564c(%rip),%rsi        # 2098f <g_5046+0x126f>
   1b343:	48 89 c7             	mov    %rax,%rdi
   1b346:	e8 a8 33 ff ff       	callq  e6f3 <transparent_crc>
   1b34b:	48 8b 05 7e 95 00 00 	mov    0x957e(%rip),%rax        # 248d0 <g_1329+0x10>
   1b352:	48 c1 e0 04          	shl    $0x4,%rax
   1b356:	48 c1 f8 24          	sar    $0x24,%rax
   1b35a:	48 98                	cltq   
   1b35c:	8b 55 f4             	mov    -0xc(%rbp),%edx
   1b35f:	48 8d 35 33 56 00 00 	lea    0x5633(%rip),%rsi        # 20999 <g_5046+0x1279>
   1b366:	48 89 c7             	mov    %rax,%rdi
   1b369:	e8 85 33 ff ff       	callq  e6f3 <transparent_crc>
   1b36e:	0f b7 05 b3 fd 00 00 	movzwl 0xfdb3(%rip),%eax        # 2b128 <g_1358>
   1b375:	0f b7 c0             	movzwl %ax,%eax
   1b378:	8b 55 f4             	mov    -0xc(%rbp),%edx
   1b37b:	48 8d 35 21 56 00 00 	lea    0x5621(%rip),%rsi        # 209a3 <g_5046+0x1283>
   1b382:	48 89 c7             	mov    %rax,%rdi
   1b385:	e8 69 33 ff ff       	callq  e6f3 <transparent_crc>
   1b38a:	0f b7 05 47 95 00 00 	movzwl 0x9547(%rip),%eax        # 248d8 <g_1423>
   1b391:	0f b7 c0             	movzwl %ax,%eax
   1b394:	8b 55 f4             	mov    -0xc(%rbp),%edx
   1b397:	48 8d 35 0c 56 00 00 	lea    0x560c(%rip),%rsi        # 209aa <g_5046+0x128a>
   1b39e:	48 89 c7             	mov    %rax,%rdi
   1b3a1:	e8 4d 33 ff ff       	callq  e6f3 <transparent_crc>
   1b3a6:	8b 05 30 95 00 00    	mov    0x9530(%rip),%eax        # 248dc <g_1513>
   1b3ac:	48 98                	cltq   
   1b3ae:	8b 55 f4             	mov    -0xc(%rbp),%edx
   1b3b1:	48 8d 35 f9 55 00 00 	lea    0x55f9(%rip),%rsi        # 209b1 <g_5046+0x1291>
   1b3b8:	48 89 c7             	mov    %rax,%rdi
   1b3bb:	e8 33 33 ff ff       	callq  e6f3 <transparent_crc>
   1b3c0:	8b 05 1a 95 00 00    	mov    0x951a(%rip),%eax        # 248e0 <g_1741>
   1b3c6:	48 98                	cltq   
   1b3c8:	8b 55 f4             	mov    -0xc(%rbp),%edx
   1b3cb:	48 8d 35 e6 55 00 00 	lea    0x55e6(%rip),%rsi        # 209b8 <g_5046+0x1298>
   1b3d2:	48 89 c7             	mov    %rax,%rdi
   1b3d5:	e8 19 33 ff ff       	callq  e6f3 <transparent_crc>
   1b3da:	0f b7 05 03 95 00 00 	movzwl 0x9503(%rip),%eax        # 248e4 <g_1852>
   1b3e1:	48 0f bf c0          	movswq %ax,%rax
   1b3e5:	8b 55 f4             	mov    -0xc(%rbp),%edx
   1b3e8:	48 8d 35 d0 55 00 00 	lea    0x55d0(%rip),%rsi        # 209bf <g_5046+0x129f>
   1b3ef:	48 89 c7             	mov    %rax,%rdi
   1b3f2:	e8 fc 32 ff ff       	callq  e6f3 <transparent_crc>
   1b3f7:	c7 45 e8 00 00 00 00 	movl   $0x0,-0x18(%rbp)
   1b3fe:	eb 72                	jmp    1b472 <main+0x1dc2>
   1b400:	c7 45 ec 00 00 00 00 	movl   $0x0,-0x14(%rbp)
   1b407:	eb 5f                	jmp    1b468 <main+0x1db8>
   1b409:	8b 45 ec             	mov    -0x14(%rbp),%eax
   1b40c:	48 63 c8             	movslq %eax,%rcx
   1b40f:	8b 45 e8             	mov    -0x18(%rbp),%eax
   1b412:	48 63 d0             	movslq %eax,%rdx
   1b415:	48 89 d0             	mov    %rdx,%rax
   1b418:	48 c1 e0 03          	shl    $0x3,%rax
   1b41c:	48 01 d0             	add    %rdx,%rax
   1b41f:	48 8d 14 08          	lea    (%rax,%rcx,1),%rdx
   1b423:	48 8d 05 c6 94 00 00 	lea    0x94c6(%rip),%rax        # 248f0 <g_1869>
   1b42a:	48 01 d0             	add    %rdx,%rax
   1b42d:	0f b6 00             	movzbl (%rax),%eax
   1b430:	0f b6 c0             	movzbl %al,%eax
   1b433:	8b 55 f4             	mov    -0xc(%rbp),%edx
   1b436:	48 8d 35 89 55 00 00 	lea    0x5589(%rip),%rsi        # 209c6 <g_5046+0x12a6>
   1b43d:	48 89 c7             	mov    %rax,%rdi
   1b440:	e8 ae 32 ff ff       	callq  e6f3 <transparent_crc>
   1b445:	83 7d f4 00          	cmpl   $0x0,-0xc(%rbp)
   1b449:	74 19                	je     1b464 <main+0x1db4>
   1b44b:	8b 55 ec             	mov    -0x14(%rbp),%edx
   1b44e:	8b 45 e8             	mov    -0x18(%rbp),%eax
   1b451:	89 c6                	mov    %eax,%esi
   1b453:	48 8d 3d b8 4f 00 00 	lea    0x4fb8(%rip),%rdi        # 20412 <g_5046+0xcf2>
   1b45a:	b8 00 00 00 00       	mov    $0x0,%eax
   1b45f:	e8 1c 1c ff ff       	callq  d080 <printf@plt>
   1b464:	83 45 ec 01          	addl   $0x1,-0x14(%rbp)
   1b468:	83 7d ec 08          	cmpl   $0x8,-0x14(%rbp)
   1b46c:	7e 9b                	jle    1b409 <main+0x1d59>
   1b46e:	83 45 e8 01          	addl   $0x1,-0x18(%rbp)
   1b472:	83 7d e8 01          	cmpl   $0x1,-0x18(%rbp)
   1b476:	7e 88                	jle    1b400 <main+0x1d50>
   1b478:	48 8b 05 91 94 00 00 	mov    0x9491(%rip),%rax        # 24910 <g_1887>
   1b47f:	c1 e0 0d             	shl    $0xd,%eax
   1b482:	c1 f8 0d             	sar    $0xd,%eax
   1b485:	48 98                	cltq   
   1b487:	8b 55 f4             	mov    -0xc(%rbp),%edx
   1b48a:	48 8d 35 42 55 00 00 	lea    0x5542(%rip),%rsi        # 209d3 <g_5046+0x12b3>
   1b491:	48 89 c7             	mov    %rax,%rdi
   1b494:	e8 5a 32 ff ff       	callq  e6f3 <transparent_crc>
   1b499:	8b 05 75 94 00 00    	mov    0x9475(%rip),%eax        # 24914 <g_1887+0x4>
   1b49f:	c1 e0 02             	shl    $0x2,%eax
   1b4a2:	c1 f8 02             	sar    $0x2,%eax
   1b4a5:	48 98                	cltq   
   1b4a7:	8b 55 f4             	mov    -0xc(%rbp),%edx
   1b4aa:	48 8d 35 2c 55 00 00 	lea    0x552c(%rip),%rsi        # 209dd <g_5046+0x12bd>
   1b4b1:	48 89 c7             	mov    %rax,%rdi
   1b4b4:	e8 3a 32 ff ff       	callq  e6f3 <transparent_crc>
   1b4b9:	0f b7 05 58 94 00 00 	movzwl 0x9458(%rip),%eax        # 24918 <g_1887+0x8>
   1b4c0:	c1 e0 07             	shl    $0x7,%eax
   1b4c3:	66 c1 f8 07          	sar    $0x7,%ax
   1b4c7:	48 0f bf c0          	movswq %ax,%rax
   1b4cb:	8b 55 f4             	mov    -0xc(%rbp),%edx
   1b4ce:	48 8d 35 12 55 00 00 	lea    0x5512(%rip),%rsi        # 209e7 <g_5046+0x12c7>
   1b4d5:	48 89 c7             	mov    %rax,%rdi
   1b4d8:	e8 16 32 ff ff       	callq  e6f3 <transparent_crc>
   1b4dd:	8b 05 35 94 00 00    	mov    0x9435(%rip),%eax        # 24918 <g_1887+0x8>
   1b4e3:	c1 e0 07             	shl    $0x7,%eax
   1b4e6:	c1 f8 10             	sar    $0x10,%eax
   1b4e9:	48 0f bf c0          	movswq %ax,%rax
   1b4ed:	8b 55 f4             	mov    -0xc(%rbp),%edx
   1b4f0:	48 8d 35 fa 54 00 00 	lea    0x54fa(%rip),%rsi        # 209f1 <g_5046+0x12d1>
   1b4f7:	48 89 c7             	mov    %rax,%rdi
   1b4fa:	e8 f4 31 ff ff       	callq  e6f3 <transparent_crc>
   1b4ff:	0f b6 05 15 94 00 00 	movzbl 0x9415(%rip),%eax        # 2491b <g_1887+0xb>
   1b506:	c1 e0 06             	shl    $0x6,%eax
   1b509:	c0 f8 07             	sar    $0x7,%al
   1b50c:	48 0f be c0          	movsbq %al,%rax
   1b510:	8b 55 f4             	mov    -0xc(%rbp),%edx
   1b513:	48 8d 35 e1 54 00 00 	lea    0x54e1(%rip),%rsi        # 209fb <g_5046+0x12db>
   1b51a:	48 89 c7             	mov    %rax,%rdi
   1b51d:	e8 d1 31 ff ff       	callq  e6f3 <transparent_crc>
   1b522:	8b 05 f4 93 00 00    	mov    0x93f4(%rip),%eax        # 2491c <g_1887+0xc>
   1b528:	25 ff ff 3f 00       	and    $0x3fffff,%eax
   1b52d:	89 c1                	mov    %eax,%ecx
   1b52f:	8b 45 f4             	mov    -0xc(%rbp),%eax
   1b532:	89 c2                	mov    %eax,%edx
   1b534:	48 8d 35 ca 54 00 00 	lea    0x54ca(%rip),%rsi        # 20a05 <g_5046+0x12e5>
   1b53b:	48 89 cf             	mov    %rcx,%rdi
   1b53e:	e8 b0 31 ff ff       	callq  e6f3 <transparent_crc>
   1b543:	48 8b 05 d6 93 00 00 	mov    0x93d6(%rip),%rax        # 24920 <g_1887+0x10>
   1b54a:	c1 e0 03             	shl    $0x3,%eax
   1b54d:	c1 f8 03             	sar    $0x3,%eax
   1b550:	48 98                	cltq   
   1b552:	8b 55 f4             	mov    -0xc(%rbp),%edx
   1b555:	48 8d 35 b3 54 00 00 	lea    0x54b3(%rip),%rsi        # 20a0f <g_5046+0x12ef>
   1b55c:	48 89 c7             	mov    %rax,%rdi
   1b55f:	e8 8f 31 ff ff       	callq  e6f3 <transparent_crc>
   1b564:	8b 05 ba 93 00 00    	mov    0x93ba(%rip),%eax        # 24924 <g_1887+0x14>
   1b56a:	c1 e0 04             	shl    $0x4,%eax
   1b56d:	c1 f8 04             	sar    $0x4,%eax
   1b570:	48 98                	cltq   
   1b572:	8b 55 f4             	mov    -0xc(%rbp),%edx
   1b575:	48 8d 35 9d 54 00 00 	lea    0x549d(%rip),%rsi        # 20a19 <g_5046+0x12f9>
   1b57c:	48 89 c7             	mov    %rax,%rdi
   1b57f:	e8 6f 31 ff ff       	callq  e6f3 <transparent_crc>
   1b584:	48 8b 05 a5 93 00 00 	mov    0x93a5(%rip),%rax        # 24930 <g_2017>
   1b58b:	c1 e0 0d             	shl    $0xd,%eax
   1b58e:	c1 f8 0d             	sar    $0xd,%eax
   1b591:	48 98                	cltq   
   1b593:	8b 55 f4             	mov    -0xc(%rbp),%edx
   1b596:	48 8d 35 86 54 00 00 	lea    0x5486(%rip),%rsi        # 20a23 <g_5046+0x1303>
   1b59d:	48 89 c7             	mov    %rax,%rdi
   1b5a0:	e8 4e 31 ff ff       	callq  e6f3 <transparent_crc>
   1b5a5:	48 8b 05 84 93 00 00 	mov    0x9384(%rip),%rax        # 24930 <g_2017>
   1b5ac:	48 c1 e0 02          	shl    $0x2,%rax
   1b5b0:	48 c1 f8 22          	sar    $0x22,%rax
   1b5b4:	48 98                	cltq   
   1b5b6:	8b 55 f4             	mov    -0xc(%rbp),%edx
   1b5b9:	48 8d 35 6d 54 00 00 	lea    0x546d(%rip),%rsi        # 20a2d <g_5046+0x130d>
   1b5c0:	48 89 c7             	mov    %rax,%rdi
   1b5c3:	e8 2b 31 ff ff       	callq  e6f3 <transparent_crc>
   1b5c8:	48 8b 05 69 93 00 00 	mov    0x9369(%rip),%rax        # 24938 <g_2017+0x8>
   1b5cf:	c1 e0 07             	shl    $0x7,%eax
   1b5d2:	66 c1 f8 07          	sar    $0x7,%ax
   1b5d6:	48 0f bf c0          	movswq %ax,%rax
   1b5da:	8b 55 f4             	mov    -0xc(%rbp),%edx
   1b5dd:	48 8d 35 53 54 00 00 	lea    0x5453(%rip),%rsi        # 20a37 <g_5046+0x1317>
   1b5e4:	48 89 c7             	mov    %rax,%rdi
   1b5e7:	e8 07 31 ff ff       	callq  e6f3 <transparent_crc>
   1b5ec:	48 8b 05 45 93 00 00 	mov    0x9345(%rip),%rax        # 24938 <g_2017+0x8>
   1b5f3:	c1 e0 07             	shl    $0x7,%eax
   1b5f6:	c1 f8 10             	sar    $0x10,%eax
   1b5f9:	48 0f bf c0          	movswq %ax,%rax
   1b5fd:	8b 55 f4             	mov    -0xc(%rbp),%edx
   1b600:	48 8d 35 3a 54 00 00 	lea    0x543a(%rip),%rsi        # 20a41 <g_5046+0x1321>
   1b607:	48 89 c7             	mov    %rax,%rdi
   1b60a:	e8 e4 30 ff ff       	callq  e6f3 <transparent_crc>
   1b60f:	48 8b 05 22 93 00 00 	mov    0x9322(%rip),%rax        # 24938 <g_2017+0x8>
   1b616:	c1 e0 06             	shl    $0x6,%eax
   1b619:	c1 f8 1f             	sar    $0x1f,%eax
   1b61c:	48 0f be c0          	movsbq %al,%rax
   1b620:	8b 55 f4             	mov    -0xc(%rbp),%edx
   1b623:	48 8d 35 21 54 00 00 	lea    0x5421(%rip),%rsi        # 20a4b <g_5046+0x132b>
   1b62a:	48 89 c7             	mov    %rax,%rdi
   1b62d:	e8 c1 30 ff ff       	callq  e6f3 <transparent_crc>
   1b632:	48 8b 05 ff 92 00 00 	mov    0x92ff(%rip),%rax        # 24938 <g_2017+0x8>
   1b639:	48 c1 e8 20          	shr    $0x20,%rax
   1b63d:	25 ff ff 3f 00       	and    $0x3fffff,%eax
   1b642:	89 c1                	mov    %eax,%ecx
   1b644:	8b 45 f4             	mov    -0xc(%rbp),%eax
   1b647:	89 c2                	mov    %eax,%edx
   1b649:	48 8d 35 05 54 00 00 	lea    0x5405(%rip),%rsi        # 20a55 <g_5046+0x1335>
   1b650:	48 89 cf             	mov    %rcx,%rdi
   1b653:	e8 9b 30 ff ff       	callq  e6f3 <transparent_crc>
   1b658:	48 8b 05 e1 92 00 00 	mov    0x92e1(%rip),%rax        # 24940 <g_2017+0x10>
   1b65f:	c1 e0 03             	shl    $0x3,%eax
   1b662:	c1 f8 03             	sar    $0x3,%eax
   1b665:	48 98                	cltq   
   1b667:	8b 55 f4             	mov    -0xc(%rbp),%edx
   1b66a:	48 8d 35 ee 53 00 00 	lea    0x53ee(%rip),%rsi        # 20a5f <g_5046+0x133f>
   1b671:	48 89 c7             	mov    %rax,%rdi
   1b674:	e8 7a 30 ff ff       	callq  e6f3 <transparent_crc>
   1b679:	48 8b 05 c0 92 00 00 	mov    0x92c0(%rip),%rax        # 24940 <g_2017+0x10>
   1b680:	48 c1 e0 04          	shl    $0x4,%rax
   1b684:	48 c1 f8 24          	sar    $0x24,%rax
   1b688:	48 98                	cltq   
   1b68a:	8b 55 f4             	mov    -0xc(%rbp),%edx
   1b68d:	48 8d 35 d5 53 00 00 	lea    0x53d5(%rip),%rsi        # 20a69 <g_5046+0x1349>
   1b694:	48 89 c7             	mov    %rax,%rdi
   1b697:	e8 57 30 ff ff       	callq  e6f3 <transparent_crc>
   1b69c:	c7 45 e8 00 00 00 00 	movl   $0x0,-0x18(%rbp)
   1b6a3:	e9 0c 02 00 00       	jmpq   1b8b4 <main+0x2204>
   1b6a8:	8b 45 e8             	mov    -0x18(%rbp),%eax
   1b6ab:	48 63 d0             	movslq %eax,%rdx
   1b6ae:	48 89 d0             	mov    %rdx,%rax
   1b6b1:	48 01 c0             	add    %rax,%rax
   1b6b4:	48 01 d0             	add    %rdx,%rax
   1b6b7:	48 c1 e0 03          	shl    $0x3,%rax
   1b6bb:	48 89 c2             	mov    %rax,%rdx
   1b6be:	48 8d 05 9b 92 00 00 	lea    0x929b(%rip),%rax        # 24960 <g_2026>
   1b6c5:	48 8b 04 02          	mov    (%rdx,%rax,1),%rax
   1b6c9:	c1 e0 0d             	shl    $0xd,%eax
   1b6cc:	c1 f8 0d             	sar    $0xd,%eax
   1b6cf:	48 98                	cltq   
   1b6d1:	8b 55 f4             	mov    -0xc(%rbp),%edx
   1b6d4:	48 8d 35 98 53 00 00 	lea    0x5398(%rip),%rsi        # 20a73 <g_5046+0x1353>
   1b6db:	48 89 c7             	mov    %rax,%rdi
   1b6de:	e8 10 30 ff ff       	callq  e6f3 <transparent_crc>
   1b6e3:	8b 45 e8             	mov    -0x18(%rbp),%eax
   1b6e6:	48 63 d0             	movslq %eax,%rdx
   1b6e9:	48 89 d0             	mov    %rdx,%rax
   1b6ec:	48 01 c0             	add    %rax,%rax
   1b6ef:	48 01 d0             	add    %rdx,%rax
   1b6f2:	48 c1 e0 03          	shl    $0x3,%rax
   1b6f6:	48 89 c2             	mov    %rax,%rdx
   1b6f9:	48 8d 05 60 92 00 00 	lea    0x9260(%rip),%rax        # 24960 <g_2026>
   1b700:	48 8b 04 02          	mov    (%rdx,%rax,1),%rax
   1b704:	48 c1 e0 02          	shl    $0x2,%rax
   1b708:	48 c1 f8 22          	sar    $0x22,%rax
   1b70c:	48 98                	cltq   
   1b70e:	8b 55 f4             	mov    -0xc(%rbp),%edx
   1b711:	48 8d 35 68 53 00 00 	lea    0x5368(%rip),%rsi        # 20a80 <g_5046+0x1360>
   1b718:	48 89 c7             	mov    %rax,%rdi
   1b71b:	e8 d3 2f ff ff       	callq  e6f3 <transparent_crc>
   1b720:	8b 45 e8             	mov    -0x18(%rbp),%eax
   1b723:	48 63 d0             	movslq %eax,%rdx
   1b726:	48 89 d0             	mov    %rdx,%rax
   1b729:	48 01 c0             	add    %rax,%rax
   1b72c:	48 01 d0             	add    %rdx,%rax
   1b72f:	48 c1 e0 03          	shl    $0x3,%rax
   1b733:	48 89 c2             	mov    %rax,%rdx
   1b736:	48 8d 05 23 92 00 00 	lea    0x9223(%rip),%rax        # 24960 <g_2026>
   1b73d:	48 8b 44 02 08       	mov    0x8(%rdx,%rax,1),%rax
   1b742:	c1 e0 07             	shl    $0x7,%eax
   1b745:	66 c1 f8 07          	sar    $0x7,%ax
   1b749:	48 0f bf c0          	movswq %ax,%rax
   1b74d:	8b 55 f4             	mov    -0xc(%rbp),%edx
   1b750:	48 8d 35 36 53 00 00 	lea    0x5336(%rip),%rsi        # 20a8d <g_5046+0x136d>
   1b757:	48 89 c7             	mov    %rax,%rdi
   1b75a:	e8 94 2f ff ff       	callq  e6f3 <transparent_crc>
   1b75f:	8b 45 e8             	mov    -0x18(%rbp),%eax
   1b762:	48 63 d0             	movslq %eax,%rdx
   1b765:	48 89 d0             	mov    %rdx,%rax
   1b768:	48 01 c0             	add    %rax,%rax
   1b76b:	48 01 d0             	add    %rdx,%rax
   1b76e:	48 c1 e0 03          	shl    $0x3,%rax
   1b772:	48 89 c2             	mov    %rax,%rdx
   1b775:	48 8d 05 e4 91 00 00 	lea    0x91e4(%rip),%rax        # 24960 <g_2026>
   1b77c:	48 8b 44 02 08       	mov    0x8(%rdx,%rax,1),%rax
   1b781:	c1 e0 07             	shl    $0x7,%eax
   1b784:	c1 f8 10             	sar    $0x10,%eax
   1b787:	48 0f bf c0          	movswq %ax,%rax
   1b78b:	8b 55 f4             	mov    -0xc(%rbp),%edx
   1b78e:	48 8d 35 05 53 00 00 	lea    0x5305(%rip),%rsi        # 20a9a <g_5046+0x137a>
   1b795:	48 89 c7             	mov    %rax,%rdi
   1b798:	e8 56 2f ff ff       	callq  e6f3 <transparent_crc>
   1b79d:	8b 45 e8             	mov    -0x18(%rbp),%eax
   1b7a0:	48 63 d0             	movslq %eax,%rdx
   1b7a3:	48 89 d0             	mov    %rdx,%rax
   1b7a6:	48 01 c0             	add    %rax,%rax
   1b7a9:	48 01 d0             	add    %rdx,%rax
   1b7ac:	48 c1 e0 03          	shl    $0x3,%rax
   1b7b0:	48 89 c2             	mov    %rax,%rdx
   1b7b3:	48 8d 05 a6 91 00 00 	lea    0x91a6(%rip),%rax        # 24960 <g_2026>
   1b7ba:	48 8b 44 02 08       	mov    0x8(%rdx,%rax,1),%rax
   1b7bf:	c1 e0 06             	shl    $0x6,%eax
   1b7c2:	c1 f8 1f             	sar    $0x1f,%eax
   1b7c5:	48 0f be c0          	movsbq %al,%rax
   1b7c9:	8b 55 f4             	mov    -0xc(%rbp),%edx
   1b7cc:	48 8d 35 d4 52 00 00 	lea    0x52d4(%rip),%rsi        # 20aa7 <g_5046+0x1387>
   1b7d3:	48 89 c7             	mov    %rax,%rdi
   1b7d6:	e8 18 2f ff ff       	callq  e6f3 <transparent_crc>
   1b7db:	8b 45 e8             	mov    -0x18(%rbp),%eax
   1b7de:	48 63 d0             	movslq %eax,%rdx
   1b7e1:	48 89 d0             	mov    %rdx,%rax
   1b7e4:	48 01 c0             	add    %rax,%rax
   1b7e7:	48 01 d0             	add    %rdx,%rax
   1b7ea:	48 c1 e0 03          	shl    $0x3,%rax
   1b7ee:	48 89 c2             	mov    %rax,%rdx
   1b7f1:	48 8d 05 68 91 00 00 	lea    0x9168(%rip),%rax        # 24960 <g_2026>
   1b7f8:	48 8b 44 02 08       	mov    0x8(%rdx,%rax,1),%rax
   1b7fd:	48 c1 e8 20          	shr    $0x20,%rax
   1b801:	25 ff ff 3f 00       	and    $0x3fffff,%eax
   1b806:	89 c1                	mov    %eax,%ecx
   1b808:	8b 45 f4             	mov    -0xc(%rbp),%eax
   1b80b:	89 c2                	mov    %eax,%edx
   1b80d:	48 8d 35 a0 52 00 00 	lea    0x52a0(%rip),%rsi        # 20ab4 <g_5046+0x1394>
   1b814:	48 89 cf             	mov    %rcx,%rdi
   1b817:	e8 d7 2e ff ff       	callq  e6f3 <transparent_crc>
   1b81c:	8b 45 e8             	mov    -0x18(%rbp),%eax
   1b81f:	48 63 d0             	movslq %eax,%rdx
   1b822:	48 89 d0             	mov    %rdx,%rax
   1b825:	48 01 c0             	add    %rax,%rax
   1b828:	48 01 d0             	add    %rdx,%rax
   1b82b:	48 c1 e0 03          	shl    $0x3,%rax
   1b82f:	48 89 c2             	mov    %rax,%rdx
   1b832:	48 8d 05 37 91 00 00 	lea    0x9137(%rip),%rax        # 24970 <g_2026+0x10>
   1b839:	48 8b 04 02          	mov    (%rdx,%rax,1),%rax
   1b83d:	c1 e0 03             	shl    $0x3,%eax
   1b840:	c1 f8 03             	sar    $0x3,%eax
   1b843:	48 98                	cltq   
   1b845:	8b 55 f4             	mov    -0xc(%rbp),%edx
   1b848:	48 8d 35 72 52 00 00 	lea    0x5272(%rip),%rsi        # 20ac1 <g_5046+0x13a1>
   1b84f:	48 89 c7             	mov    %rax,%rdi
   1b852:	e8 9c 2e ff ff       	callq  e6f3 <transparent_crc>
   1b857:	8b 45 e8             	mov    -0x18(%rbp),%eax
   1b85a:	48 63 d0             	movslq %eax,%rdx
   1b85d:	48 89 d0             	mov    %rdx,%rax
   1b860:	48 01 c0             	add    %rax,%rax
   1b863:	48 01 d0             	add    %rdx,%rax
   1b866:	48 c1 e0 03          	shl    $0x3,%rax
   1b86a:	48 89 c2             	mov    %rax,%rdx
   1b86d:	48 8d 05 fc 90 00 00 	lea    0x90fc(%rip),%rax        # 24970 <g_2026+0x10>
   1b874:	48 8b 04 02          	mov    (%rdx,%rax,1),%rax
   1b878:	48 c1 e0 04          	shl    $0x4,%rax
   1b87c:	48 c1 f8 24          	sar    $0x24,%rax
   1b880:	48 98                	cltq   
   1b882:	8b 55 f4             	mov    -0xc(%rbp),%edx
   1b885:	48 8d 35 42 52 00 00 	lea    0x5242(%rip),%rsi        # 20ace <g_5046+0x13ae>
   1b88c:	48 89 c7             	mov    %rax,%rdi
   1b88f:	e8 5f 2e ff ff       	callq  e6f3 <transparent_crc>
   1b894:	83 7d f4 00          	cmpl   $0x0,-0xc(%rbp)
   1b898:	74 16                	je     1b8b0 <main+0x2200>
   1b89a:	8b 45 e8             	mov    -0x18(%rbp),%eax
   1b89d:	89 c6                	mov    %eax,%esi
   1b89f:	48 8d 3d 90 4b 00 00 	lea    0x4b90(%rip),%rdi        # 20436 <g_5046+0xd16>
   1b8a6:	b8 00 00 00 00       	mov    $0x0,%eax
   1b8ab:	e8 d0 17 ff ff       	callq  d080 <printf@plt>
   1b8b0:	83 45 e8 01          	addl   $0x1,-0x18(%rbp)
   1b8b4:	83 7d e8 05          	cmpl   $0x5,-0x18(%rbp)
   1b8b8:	0f 8e ea fd ff ff    	jle    1b6a8 <main+0x1ff8>
   1b8be:	48 8b 05 2b 91 00 00 	mov    0x912b(%rip),%rax        # 249f0 <g_2062>
   1b8c5:	c1 e0 0d             	shl    $0xd,%eax
   1b8c8:	c1 f8 0d             	sar    $0xd,%eax
   1b8cb:	48 98                	cltq   
   1b8cd:	8b 55 f4             	mov    -0xc(%rbp),%edx
   1b8d0:	48 8d 35 04 52 00 00 	lea    0x5204(%rip),%rsi        # 20adb <g_5046+0x13bb>
   1b8d7:	48 89 c7             	mov    %rax,%rdi
   1b8da:	e8 14 2e ff ff       	callq  e6f3 <transparent_crc>
   1b8df:	8b 05 0f 91 00 00    	mov    0x910f(%rip),%eax        # 249f4 <g_2062+0x4>
   1b8e5:	c1 e0 02             	shl    $0x2,%eax
   1b8e8:	c1 f8 02             	sar    $0x2,%eax
   1b8eb:	48 98                	cltq   
   1b8ed:	8b 55 f4             	mov    -0xc(%rbp),%edx
   1b8f0:	48 8d 35 ee 51 00 00 	lea    0x51ee(%rip),%rsi        # 20ae5 <g_5046+0x13c5>
   1b8f7:	48 89 c7             	mov    %rax,%rdi
   1b8fa:	e8 f4 2d ff ff       	callq  e6f3 <transparent_crc>
   1b8ff:	0f b7 05 f2 90 00 00 	movzwl 0x90f2(%rip),%eax        # 249f8 <g_2062+0x8>
   1b906:	c1 e0 07             	shl    $0x7,%eax
   1b909:	66 c1 f8 07          	sar    $0x7,%ax
   1b90d:	48 0f bf c0          	movswq %ax,%rax
   1b911:	8b 55 f4             	mov    -0xc(%rbp),%edx
   1b914:	48 8d 35 d4 51 00 00 	lea    0x51d4(%rip),%rsi        # 20aef <g_5046+0x13cf>
   1b91b:	48 89 c7             	mov    %rax,%rdi
   1b91e:	e8 d0 2d ff ff       	callq  e6f3 <transparent_crc>
   1b923:	8b 05 cf 90 00 00    	mov    0x90cf(%rip),%eax        # 249f8 <g_2062+0x8>
   1b929:	c1 e0 07             	shl    $0x7,%eax
   1b92c:	c1 f8 10             	sar    $0x10,%eax
   1b92f:	48 0f bf c0          	movswq %ax,%rax
   1b933:	8b 55 f4             	mov    -0xc(%rbp),%edx
   1b936:	48 8d 35 bc 51 00 00 	lea    0x51bc(%rip),%rsi        # 20af9 <g_5046+0x13d9>
   1b93d:	48 89 c7             	mov    %rax,%rdi
   1b940:	e8 ae 2d ff ff       	callq  e6f3 <transparent_crc>
   1b945:	0f b6 05 af 90 00 00 	movzbl 0x90af(%rip),%eax        # 249fb <g_2062+0xb>
   1b94c:	c1 e0 06             	shl    $0x6,%eax
   1b94f:	c0 f8 07             	sar    $0x7,%al
   1b952:	48 0f be c0          	movsbq %al,%rax
   1b956:	8b 55 f4             	mov    -0xc(%rbp),%edx
   1b959:	48 8d 35 a3 51 00 00 	lea    0x51a3(%rip),%rsi        # 20b03 <g_5046+0x13e3>
   1b960:	48 89 c7             	mov    %rax,%rdi
   1b963:	e8 8b 2d ff ff       	callq  e6f3 <transparent_crc>
   1b968:	8b 05 8e 90 00 00    	mov    0x908e(%rip),%eax        # 249fc <g_2062+0xc>
   1b96e:	25 ff ff 3f 00       	and    $0x3fffff,%eax
   1b973:	89 c1                	mov    %eax,%ecx
   1b975:	8b 45 f4             	mov    -0xc(%rbp),%eax
   1b978:	89 c2                	mov    %eax,%edx
   1b97a:	48 8d 35 8c 51 00 00 	lea    0x518c(%rip),%rsi        # 20b0d <g_5046+0x13ed>
   1b981:	48 89 cf             	mov    %rcx,%rdi
   1b984:	e8 6a 2d ff ff       	callq  e6f3 <transparent_crc>
   1b989:	48 8b 05 70 90 00 00 	mov    0x9070(%rip),%rax        # 24a00 <g_2062+0x10>
   1b990:	c1 e0 03             	shl    $0x3,%eax
   1b993:	c1 f8 03             	sar    $0x3,%eax
   1b996:	48 98                	cltq   
   1b998:	8b 55 f4             	mov    -0xc(%rbp),%edx
   1b99b:	48 8d 35 75 51 00 00 	lea    0x5175(%rip),%rsi        # 20b17 <g_5046+0x13f7>
   1b9a2:	48 89 c7             	mov    %rax,%rdi
   1b9a5:	e8 49 2d ff ff       	callq  e6f3 <transparent_crc>
   1b9aa:	8b 05 54 90 00 00    	mov    0x9054(%rip),%eax        # 24a04 <g_2062+0x14>
   1b9b0:	c1 e0 04             	shl    $0x4,%eax
   1b9b3:	c1 f8 04             	sar    $0x4,%eax
   1b9b6:	48 98                	cltq   
   1b9b8:	8b 55 f4             	mov    -0xc(%rbp),%edx
   1b9bb:	48 8d 35 5f 51 00 00 	lea    0x515f(%rip),%rsi        # 20b21 <g_5046+0x1401>
   1b9c2:	48 89 c7             	mov    %rax,%rdi
   1b9c5:	e8 29 2d ff ff       	callq  e6f3 <transparent_crc>
   1b9ca:	0f b7 05 37 90 00 00 	movzwl 0x9037(%rip),%eax        # 24a08 <g_2075>
   1b9d1:	48 0f bf c0          	movswq %ax,%rax
   1b9d5:	8b 55 f4             	mov    -0xc(%rbp),%edx
   1b9d8:	48 8d 35 4c 51 00 00 	lea    0x514c(%rip),%rsi        # 20b2b <g_5046+0x140b>
   1b9df:	48 89 c7             	mov    %rax,%rdi
   1b9e2:	e8 0c 2d ff ff       	callq  e6f3 <transparent_crc>
   1b9e7:	0f b6 05 1c 90 00 00 	movzbl 0x901c(%rip),%eax        # 24a0a <g_2079>
   1b9ee:	48 0f be c0          	movsbq %al,%rax
   1b9f2:	8b 55 f4             	mov    -0xc(%rbp),%edx
   1b9f5:	48 8d 35 36 51 00 00 	lea    0x5136(%rip),%rsi        # 20b32 <g_5046+0x1412>
   1b9fc:	48 89 c7             	mov    %rax,%rdi
   1b9ff:	e8 ef 2c ff ff       	callq  e6f3 <transparent_crc>
   1ba04:	48 8b 05 35 f7 00 00 	mov    0xf735(%rip),%rax        # 2b140 <g_2103>
   1ba0b:	8b 55 f4             	mov    -0xc(%rbp),%edx
   1ba0e:	48 8d 35 24 51 00 00 	lea    0x5124(%rip),%rsi        # 20b39 <g_5046+0x1419>
   1ba15:	48 89 c7             	mov    %rax,%rdi
   1ba18:	e8 d6 2c ff ff       	callq  e6f3 <transparent_crc>
   1ba1d:	b8 08 00 00 00       	mov    $0x8,%eax
   1ba22:	89 c1                	mov    %eax,%ecx
   1ba24:	8b 45 f4             	mov    -0xc(%rbp),%eax
   1ba27:	89 c2                	mov    %eax,%edx
   1ba29:	48 8d 35 10 51 00 00 	lea    0x5110(%rip),%rsi        # 20b40 <g_5046+0x1420>
   1ba30:	48 89 cf             	mov    %rcx,%rdi
   1ba33:	e8 bb 2c ff ff       	callq  e6f3 <transparent_crc>
   1ba38:	48 8b 05 d1 8f 00 00 	mov    0x8fd1(%rip),%rax        # 24a10 <g_2151>
   1ba3f:	c1 e0 0d             	shl    $0xd,%eax
   1ba42:	c1 f8 0d             	sar    $0xd,%eax
   1ba45:	48 98                	cltq   
   1ba47:	8b 55 f4             	mov    -0xc(%rbp),%edx
   1ba4a:	48 8d 35 f6 50 00 00 	lea    0x50f6(%rip),%rsi        # 20b47 <g_5046+0x1427>
   1ba51:	48 89 c7             	mov    %rax,%rdi
   1ba54:	e8 9a 2c ff ff       	callq  e6f3 <transparent_crc>
   1ba59:	48 8b 05 b0 8f 00 00 	mov    0x8fb0(%rip),%rax        # 24a10 <g_2151>
   1ba60:	48 c1 e0 02          	shl    $0x2,%rax
   1ba64:	48 c1 f8 22          	sar    $0x22,%rax
   1ba68:	48 98                	cltq   
   1ba6a:	8b 55 f4             	mov    -0xc(%rbp),%edx
   1ba6d:	48 8d 35 dd 50 00 00 	lea    0x50dd(%rip),%rsi        # 20b51 <g_5046+0x1431>
   1ba74:	48 89 c7             	mov    %rax,%rdi
   1ba77:	e8 77 2c ff ff       	callq  e6f3 <transparent_crc>
   1ba7c:	48 8b 05 95 8f 00 00 	mov    0x8f95(%rip),%rax        # 24a18 <g_2151+0x8>
   1ba83:	c1 e0 07             	shl    $0x7,%eax
   1ba86:	66 c1 f8 07          	sar    $0x7,%ax
   1ba8a:	48 0f bf c0          	movswq %ax,%rax
   1ba8e:	8b 55 f4             	mov    -0xc(%rbp),%edx
   1ba91:	48 8d 35 c3 50 00 00 	lea    0x50c3(%rip),%rsi        # 20b5b <g_5046+0x143b>
   1ba98:	48 89 c7             	mov    %rax,%rdi
   1ba9b:	e8 53 2c ff ff       	callq  e6f3 <transparent_crc>
   1baa0:	48 8b 05 71 8f 00 00 	mov    0x8f71(%rip),%rax        # 24a18 <g_2151+0x8>
   1baa7:	c1 e0 07             	shl    $0x7,%eax
   1baaa:	c1 f8 10             	sar    $0x10,%eax
   1baad:	48 0f bf c0          	movswq %ax,%rax
   1bab1:	8b 55 f4             	mov    -0xc(%rbp),%edx
   1bab4:	48 8d 35 aa 50 00 00 	lea    0x50aa(%rip),%rsi        # 20b65 <g_5046+0x1445>
   1babb:	48 89 c7             	mov    %rax,%rdi
   1babe:	e8 30 2c ff ff       	callq  e6f3 <transparent_crc>
   1bac3:	48 8b 05 4e 8f 00 00 	mov    0x8f4e(%rip),%rax        # 24a18 <g_2151+0x8>
   1baca:	c1 e0 06             	shl    $0x6,%eax
   1bacd:	c1 f8 1f             	sar    $0x1f,%eax
   1bad0:	48 0f be c0          	movsbq %al,%rax
   1bad4:	8b 55 f4             	mov    -0xc(%rbp),%edx
   1bad7:	48 8d 35 91 50 00 00 	lea    0x5091(%rip),%rsi        # 20b6f <g_5046+0x144f>
   1bade:	48 89 c7             	mov    %rax,%rdi
   1bae1:	e8 0d 2c ff ff       	callq  e6f3 <transparent_crc>
   1bae6:	48 8b 05 2b 8f 00 00 	mov    0x8f2b(%rip),%rax        # 24a18 <g_2151+0x8>
   1baed:	48 c1 e8 20          	shr    $0x20,%rax
   1baf1:	25 ff ff 3f 00       	and    $0x3fffff,%eax
   1baf6:	89 c1                	mov    %eax,%ecx
   1baf8:	8b 45 f4             	mov    -0xc(%rbp),%eax
   1bafb:	89 c2                	mov    %eax,%edx
   1bafd:	48 8d 35 75 50 00 00 	lea    0x5075(%rip),%rsi        # 20b79 <g_5046+0x1459>
   1bb04:	48 89 cf             	mov    %rcx,%rdi
   1bb07:	e8 e7 2b ff ff       	callq  e6f3 <transparent_crc>
   1bb0c:	48 8b 05 0d 8f 00 00 	mov    0x8f0d(%rip),%rax        # 24a20 <g_2151+0x10>
   1bb13:	c1 e0 03             	shl    $0x3,%eax
   1bb16:	c1 f8 03             	sar    $0x3,%eax
   1bb19:	48 98                	cltq   
   1bb1b:	8b 55 f4             	mov    -0xc(%rbp),%edx
   1bb1e:	48 8d 35 5e 50 00 00 	lea    0x505e(%rip),%rsi        # 20b83 <g_5046+0x1463>
   1bb25:	48 89 c7             	mov    %rax,%rdi
   1bb28:	e8 c6 2b ff ff       	callq  e6f3 <transparent_crc>
   1bb2d:	48 8b 05 ec 8e 00 00 	mov    0x8eec(%rip),%rax        # 24a20 <g_2151+0x10>
   1bb34:	48 c1 e0 04          	shl    $0x4,%rax
   1bb38:	48 c1 f8 24          	sar    $0x24,%rax
   1bb3c:	48 98                	cltq   
   1bb3e:	8b 55 f4             	mov    -0xc(%rbp),%edx
   1bb41:	48 8d 35 45 50 00 00 	lea    0x5045(%rip),%rsi        # 20b8d <g_5046+0x146d>
   1bb48:	48 89 c7             	mov    %rax,%rdi
   1bb4b:	e8 a3 2b ff ff       	callq  e6f3 <transparent_crc>
   1bb50:	48 8b 05 d9 8e 00 00 	mov    0x8ed9(%rip),%rax        # 24a30 <g_2185>
   1bb57:	c1 e0 0d             	shl    $0xd,%eax
   1bb5a:	c1 f8 0d             	sar    $0xd,%eax
   1bb5d:	48 98                	cltq   
   1bb5f:	8b 55 f4             	mov    -0xc(%rbp),%edx
   1bb62:	48 8d 35 2e 50 00 00 	lea    0x502e(%rip),%rsi        # 20b97 <g_5046+0x1477>
   1bb69:	48 89 c7             	mov    %rax,%rdi
   1bb6c:	e8 82 2b ff ff       	callq  e6f3 <transparent_crc>
   1bb71:	8b 05 bd 8e 00 00    	mov    0x8ebd(%rip),%eax        # 24a34 <g_2185+0x4>
   1bb77:	c1 e0 02             	shl    $0x2,%eax
   1bb7a:	c1 f8 02             	sar    $0x2,%eax
   1bb7d:	48 98                	cltq   
   1bb7f:	8b 55 f4             	mov    -0xc(%rbp),%edx
   1bb82:	48 8d 35 18 50 00 00 	lea    0x5018(%rip),%rsi        # 20ba1 <g_5046+0x1481>
   1bb89:	48 89 c7             	mov    %rax,%rdi
   1bb8c:	e8 62 2b ff ff       	callq  e6f3 <transparent_crc>
   1bb91:	0f b7 05 a0 8e 00 00 	movzwl 0x8ea0(%rip),%eax        # 24a38 <g_2185+0x8>
   1bb98:	c1 e0 07             	shl    $0x7,%eax
   1bb9b:	66 c1 f8 07          	sar    $0x7,%ax
   1bb9f:	48 0f bf c0          	movswq %ax,%rax
   1bba3:	8b 55 f4             	mov    -0xc(%rbp),%edx
   1bba6:	48 8d 35 fe 4f 00 00 	lea    0x4ffe(%rip),%rsi        # 20bab <g_5046+0x148b>
   1bbad:	48 89 c7             	mov    %rax,%rdi
   1bbb0:	e8 3e 2b ff ff       	callq  e6f3 <transparent_crc>
   1bbb5:	8b 05 7d 8e 00 00    	mov    0x8e7d(%rip),%eax        # 24a38 <g_2185+0x8>
   1bbbb:	c1 e0 07             	shl    $0x7,%eax
   1bbbe:	c1 f8 10             	sar    $0x10,%eax
   1bbc1:	48 0f bf c0          	movswq %ax,%rax
   1bbc5:	8b 55 f4             	mov    -0xc(%rbp),%edx
   1bbc8:	48 8d 35 e6 4f 00 00 	lea    0x4fe6(%rip),%rsi        # 20bb5 <g_5046+0x1495>
   1bbcf:	48 89 c7             	mov    %rax,%rdi
   1bbd2:	e8 1c 2b ff ff       	callq  e6f3 <transparent_crc>
   1bbd7:	0f b6 05 5d 8e 00 00 	movzbl 0x8e5d(%rip),%eax        # 24a3b <g_2185+0xb>
   1bbde:	c1 e0 06             	shl    $0x6,%eax
   1bbe1:	c0 f8 07             	sar    $0x7,%al
   1bbe4:	48 0f be c0          	movsbq %al,%rax
   1bbe8:	8b 55 f4             	mov    -0xc(%rbp),%edx
   1bbeb:	48 8d 35 cd 4f 00 00 	lea    0x4fcd(%rip),%rsi        # 20bbf <g_5046+0x149f>
   1bbf2:	48 89 c7             	mov    %rax,%rdi
   1bbf5:	e8 f9 2a ff ff       	callq  e6f3 <transparent_crc>
   1bbfa:	8b 05 3c 8e 00 00    	mov    0x8e3c(%rip),%eax        # 24a3c <g_2185+0xc>
   1bc00:	25 ff ff 3f 00       	and    $0x3fffff,%eax
   1bc05:	89 c1                	mov    %eax,%ecx
   1bc07:	8b 45 f4             	mov    -0xc(%rbp),%eax
   1bc0a:	89 c2                	mov    %eax,%edx
   1bc0c:	48 8d 35 b6 4f 00 00 	lea    0x4fb6(%rip),%rsi        # 20bc9 <g_5046+0x14a9>
   1bc13:	48 89 cf             	mov    %rcx,%rdi
   1bc16:	e8 d8 2a ff ff       	callq  e6f3 <transparent_crc>
   1bc1b:	48 8b 05 1e 8e 00 00 	mov    0x8e1e(%rip),%rax        # 24a40 <g_2185+0x10>
   1bc22:	c1 e0 03             	shl    $0x3,%eax
   1bc25:	c1 f8 03             	sar    $0x3,%eax
   1bc28:	48 98                	cltq   
   1bc2a:	8b 55 f4             	mov    -0xc(%rbp),%edx
   1bc2d:	48 8d 35 9f 4f 00 00 	lea    0x4f9f(%rip),%rsi        # 20bd3 <g_5046+0x14b3>
   1bc34:	48 89 c7             	mov    %rax,%rdi
   1bc37:	e8 b7 2a ff ff       	callq  e6f3 <transparent_crc>
   1bc3c:	8b 05 02 8e 00 00    	mov    0x8e02(%rip),%eax        # 24a44 <g_2185+0x14>
   1bc42:	c1 e0 04             	shl    $0x4,%eax
   1bc45:	c1 f8 04             	sar    $0x4,%eax
   1bc48:	48 98                	cltq   
   1bc4a:	8b 55 f4             	mov    -0xc(%rbp),%edx
   1bc4d:	48 8d 35 89 4f 00 00 	lea    0x4f89(%rip),%rsi        # 20bdd <g_5046+0x14bd>
   1bc54:	48 89 c7             	mov    %rax,%rdi
   1bc57:	e8 97 2a ff ff       	callq  e6f3 <transparent_crc>
   1bc5c:	8b 05 e6 8d 00 00    	mov    0x8de6(%rip),%eax        # 24a48 <g_2197>
   1bc62:	89 c1                	mov    %eax,%ecx
   1bc64:	8b 45 f4             	mov    -0xc(%rbp),%eax
   1bc67:	89 c2                	mov    %eax,%edx
   1bc69:	48 8d 35 77 4f 00 00 	lea    0x4f77(%rip),%rsi        # 20be7 <g_5046+0x14c7>
   1bc70:	48 89 cf             	mov    %rcx,%rdi
   1bc73:	e8 7b 2a ff ff       	callq  e6f3 <transparent_crc>
   1bc78:	48 8b 05 d1 8d 00 00 	mov    0x8dd1(%rip),%rax        # 24a50 <g_2209>
   1bc7f:	c1 e0 0d             	shl    $0xd,%eax
   1bc82:	c1 f8 0d             	sar    $0xd,%eax
   1bc85:	48 98                	cltq   
   1bc87:	8b 55 f4             	mov    -0xc(%rbp),%edx
   1bc8a:	48 8d 35 5d 4f 00 00 	lea    0x4f5d(%rip),%rsi        # 20bee <g_5046+0x14ce>
   1bc91:	48 89 c7             	mov    %rax,%rdi
   1bc94:	e8 5a 2a ff ff       	callq  e6f3 <transparent_crc>
   1bc99:	48 8b 05 b0 8d 00 00 	mov    0x8db0(%rip),%rax        # 24a50 <g_2209>
   1bca0:	48 c1 e0 02          	shl    $0x2,%rax
   1bca4:	48 c1 f8 22          	sar    $0x22,%rax
   1bca8:	48 98                	cltq   
   1bcaa:	8b 55 f4             	mov    -0xc(%rbp),%edx
   1bcad:	48 8d 35 44 4f 00 00 	lea    0x4f44(%rip),%rsi        # 20bf8 <g_5046+0x14d8>
   1bcb4:	48 89 c7             	mov    %rax,%rdi
   1bcb7:	e8 37 2a ff ff       	callq  e6f3 <transparent_crc>
   1bcbc:	48 8b 05 95 8d 00 00 	mov    0x8d95(%rip),%rax        # 24a58 <g_2209+0x8>
   1bcc3:	c1 e0 07             	shl    $0x7,%eax
   1bcc6:	66 c1 f8 07          	sar    $0x7,%ax
   1bcca:	48 0f bf c0          	movswq %ax,%rax
   1bcce:	8b 55 f4             	mov    -0xc(%rbp),%edx
   1bcd1:	48 8d 35 2a 4f 00 00 	lea    0x4f2a(%rip),%rsi        # 20c02 <g_5046+0x14e2>
   1bcd8:	48 89 c7             	mov    %rax,%rdi
   1bcdb:	e8 13 2a ff ff       	callq  e6f3 <transparent_crc>
   1bce0:	48 8b 05 71 8d 00 00 	mov    0x8d71(%rip),%rax        # 24a58 <g_2209+0x8>
   1bce7:	c1 e0 07             	shl    $0x7,%eax
   1bcea:	c1 f8 10             	sar    $0x10,%eax
   1bced:	48 0f bf c0          	movswq %ax,%rax
   1bcf1:	8b 55 f4             	mov    -0xc(%rbp),%edx
   1bcf4:	48 8d 35 11 4f 00 00 	lea    0x4f11(%rip),%rsi        # 20c0c <g_5046+0x14ec>
   1bcfb:	48 89 c7             	mov    %rax,%rdi
   1bcfe:	e8 f0 29 ff ff       	callq  e6f3 <transparent_crc>
   1bd03:	48 8b 05 4e 8d 00 00 	mov    0x8d4e(%rip),%rax        # 24a58 <g_2209+0x8>
   1bd0a:	c1 e0 06             	shl    $0x6,%eax
   1bd0d:	c1 f8 1f             	sar    $0x1f,%eax
   1bd10:	48 0f be c0          	movsbq %al,%rax
   1bd14:	8b 55 f4             	mov    -0xc(%rbp),%edx
   1bd17:	48 8d 35 f8 4e 00 00 	lea    0x4ef8(%rip),%rsi        # 20c16 <g_5046+0x14f6>
   1bd1e:	48 89 c7             	mov    %rax,%rdi
   1bd21:	e8 cd 29 ff ff       	callq  e6f3 <transparent_crc>
   1bd26:	48 8b 05 2b 8d 00 00 	mov    0x8d2b(%rip),%rax        # 24a58 <g_2209+0x8>
   1bd2d:	48 c1 e8 20          	shr    $0x20,%rax
   1bd31:	25 ff ff 3f 00       	and    $0x3fffff,%eax
   1bd36:	89 c1                	mov    %eax,%ecx
   1bd38:	8b 45 f4             	mov    -0xc(%rbp),%eax
   1bd3b:	89 c2                	mov    %eax,%edx
   1bd3d:	48 8d 35 dc 4e 00 00 	lea    0x4edc(%rip),%rsi        # 20c20 <g_5046+0x1500>
   1bd44:	48 89 cf             	mov    %rcx,%rdi
   1bd47:	e8 a7 29 ff ff       	callq  e6f3 <transparent_crc>
   1bd4c:	48 8b 05 0d 8d 00 00 	mov    0x8d0d(%rip),%rax        # 24a60 <g_2209+0x10>
   1bd53:	c1 e0 03             	shl    $0x3,%eax
   1bd56:	c1 f8 03             	sar    $0x3,%eax
   1bd59:	48 98                	cltq   
   1bd5b:	8b 55 f4             	mov    -0xc(%rbp),%edx
   1bd5e:	48 8d 35 c5 4e 00 00 	lea    0x4ec5(%rip),%rsi        # 20c2a <g_5046+0x150a>
   1bd65:	48 89 c7             	mov    %rax,%rdi
   1bd68:	e8 86 29 ff ff       	callq  e6f3 <transparent_crc>
   1bd6d:	48 8b 05 ec 8c 00 00 	mov    0x8cec(%rip),%rax        # 24a60 <g_2209+0x10>
   1bd74:	48 c1 e0 04          	shl    $0x4,%rax
   1bd78:	48 c1 f8 24          	sar    $0x24,%rax
   1bd7c:	48 98                	cltq   
   1bd7e:	8b 55 f4             	mov    -0xc(%rbp),%edx
   1bd81:	48 8d 35 ac 4e 00 00 	lea    0x4eac(%rip),%rsi        # 20c34 <g_5046+0x1514>
   1bd88:	48 89 c7             	mov    %rax,%rdi
   1bd8b:	e8 63 29 ff ff       	callq  e6f3 <transparent_crc>
   1bd90:	48 8b 05 d9 8c 00 00 	mov    0x8cd9(%rip),%rax        # 24a70 <g_2317>
   1bd97:	c1 e0 0d             	shl    $0xd,%eax
   1bd9a:	c1 f8 0d             	sar    $0xd,%eax
   1bd9d:	48 98                	cltq   
   1bd9f:	8b 55 f4             	mov    -0xc(%rbp),%edx
   1bda2:	48 8d 35 95 4e 00 00 	lea    0x4e95(%rip),%rsi        # 20c3e <g_5046+0x151e>
   1bda9:	48 89 c7             	mov    %rax,%rdi
   1bdac:	e8 42 29 ff ff       	callq  e6f3 <transparent_crc>
   1bdb1:	48 8b 05 b8 8c 00 00 	mov    0x8cb8(%rip),%rax        # 24a70 <g_2317>
   1bdb8:	48 c1 e0 02          	shl    $0x2,%rax
   1bdbc:	48 c1 f8 22          	sar    $0x22,%rax
   1bdc0:	48 98                	cltq   
   1bdc2:	8b 55 f4             	mov    -0xc(%rbp),%edx
   1bdc5:	48 8d 35 7c 4e 00 00 	lea    0x4e7c(%rip),%rsi        # 20c48 <g_5046+0x1528>
   1bdcc:	48 89 c7             	mov    %rax,%rdi
   1bdcf:	e8 1f 29 ff ff       	callq  e6f3 <transparent_crc>
   1bdd4:	48 8b 05 9d 8c 00 00 	mov    0x8c9d(%rip),%rax        # 24a78 <g_2317+0x8>
   1bddb:	c1 e0 07             	shl    $0x7,%eax
   1bdde:	66 c1 f8 07          	sar    $0x7,%ax
   1bde2:	48 0f bf c0          	movswq %ax,%rax
   1bde6:	8b 55 f4             	mov    -0xc(%rbp),%edx
   1bde9:	48 8d 35 62 4e 00 00 	lea    0x4e62(%rip),%rsi        # 20c52 <g_5046+0x1532>
   1bdf0:	48 89 c7             	mov    %rax,%rdi
   1bdf3:	e8 fb 28 ff ff       	callq  e6f3 <transparent_crc>
   1bdf8:	48 8b 05 79 8c 00 00 	mov    0x8c79(%rip),%rax        # 24a78 <g_2317+0x8>
   1bdff:	c1 e0 07             	shl    $0x7,%eax
   1be02:	c1 f8 10             	sar    $0x10,%eax
   1be05:	48 0f bf c0          	movswq %ax,%rax
   1be09:	8b 55 f4             	mov    -0xc(%rbp),%edx
   1be0c:	48 8d 35 49 4e 00 00 	lea    0x4e49(%rip),%rsi        # 20c5c <g_5046+0x153c>
   1be13:	48 89 c7             	mov    %rax,%rdi
   1be16:	e8 d8 28 ff ff       	callq  e6f3 <transparent_crc>
   1be1b:	48 8b 05 56 8c 00 00 	mov    0x8c56(%rip),%rax        # 24a78 <g_2317+0x8>
   1be22:	c1 e0 06             	shl    $0x6,%eax
   1be25:	c1 f8 1f             	sar    $0x1f,%eax
   1be28:	48 0f be c0          	movsbq %al,%rax
   1be2c:	8b 55 f4             	mov    -0xc(%rbp),%edx
   1be2f:	48 8d 35 30 4e 00 00 	lea    0x4e30(%rip),%rsi        # 20c66 <g_5046+0x1546>
   1be36:	48 89 c7             	mov    %rax,%rdi
   1be39:	e8 b5 28 ff ff       	callq  e6f3 <transparent_crc>
   1be3e:	48 8b 05 33 8c 00 00 	mov    0x8c33(%rip),%rax        # 24a78 <g_2317+0x8>
   1be45:	48 c1 e8 20          	shr    $0x20,%rax
   1be49:	25 ff ff 3f 00       	and    $0x3fffff,%eax
   1be4e:	89 c1                	mov    %eax,%ecx
   1be50:	8b 45 f4             	mov    -0xc(%rbp),%eax
   1be53:	89 c2                	mov    %eax,%edx
   1be55:	48 8d 35 14 4e 00 00 	lea    0x4e14(%rip),%rsi        # 20c70 <g_5046+0x1550>
   1be5c:	48 89 cf             	mov    %rcx,%rdi
   1be5f:	e8 8f 28 ff ff       	callq  e6f3 <transparent_crc>
   1be64:	48 8b 05 15 8c 00 00 	mov    0x8c15(%rip),%rax        # 24a80 <g_2317+0x10>
   1be6b:	c1 e0 03             	shl    $0x3,%eax
   1be6e:	c1 f8 03             	sar    $0x3,%eax
   1be71:	48 98                	cltq   
   1be73:	8b 55 f4             	mov    -0xc(%rbp),%edx
   1be76:	48 8d 35 fd 4d 00 00 	lea    0x4dfd(%rip),%rsi        # 20c7a <g_5046+0x155a>
   1be7d:	48 89 c7             	mov    %rax,%rdi
   1be80:	e8 6e 28 ff ff       	callq  e6f3 <transparent_crc>
   1be85:	48 8b 05 f4 8b 00 00 	mov    0x8bf4(%rip),%rax        # 24a80 <g_2317+0x10>
   1be8c:	48 c1 e0 04          	shl    $0x4,%rax
   1be90:	48 c1 f8 24          	sar    $0x24,%rax
   1be94:	48 98                	cltq   
   1be96:	8b 55 f4             	mov    -0xc(%rbp),%edx
   1be99:	48 8d 35 e4 4d 00 00 	lea    0x4de4(%rip),%rsi        # 20c84 <g_5046+0x1564>
   1bea0:	48 89 c7             	mov    %rax,%rdi
   1bea3:	e8 4b 28 ff ff       	callq  e6f3 <transparent_crc>
   1bea8:	48 8b 05 d9 8b 00 00 	mov    0x8bd9(%rip),%rax        # 24a88 <g_2321>
   1beaf:	48 89 c1             	mov    %rax,%rcx
   1beb2:	8b 45 f4             	mov    -0xc(%rbp),%eax
   1beb5:	89 c2                	mov    %eax,%edx
   1beb7:	48 8d 35 d0 4d 00 00 	lea    0x4dd0(%rip),%rsi        # 20c8e <g_5046+0x156e>
   1bebe:	48 89 cf             	mov    %rcx,%rdi
   1bec1:	e8 2d 28 ff ff       	callq  e6f3 <transparent_crc>
   1bec6:	48 8b 05 c3 8b 00 00 	mov    0x8bc3(%rip),%rax        # 24a90 <g_2380>
   1becd:	c1 e0 0d             	shl    $0xd,%eax
   1bed0:	c1 f8 0d             	sar    $0xd,%eax
   1bed3:	48 98                	cltq   
   1bed5:	8b 55 f4             	mov    -0xc(%rbp),%edx
   1bed8:	48 8d 35 b6 4d 00 00 	lea    0x4db6(%rip),%rsi        # 20c95 <g_5046+0x1575>
   1bedf:	48 89 c7             	mov    %rax,%rdi
   1bee2:	e8 0c 28 ff ff       	callq  e6f3 <transparent_crc>
   1bee7:	48 8b 05 a2 8b 00 00 	mov    0x8ba2(%rip),%rax        # 24a90 <g_2380>
   1beee:	48 c1 e0 02          	shl    $0x2,%rax
   1bef2:	48 c1 f8 22          	sar    $0x22,%rax
   1bef6:	48 98                	cltq   
   1bef8:	8b 55 f4             	mov    -0xc(%rbp),%edx
   1befb:	48 8d 35 9d 4d 00 00 	lea    0x4d9d(%rip),%rsi        # 20c9f <g_5046+0x157f>
   1bf02:	48 89 c7             	mov    %rax,%rdi
   1bf05:	e8 e9 27 ff ff       	callq  e6f3 <transparent_crc>
   1bf0a:	48 8b 05 87 8b 00 00 	mov    0x8b87(%rip),%rax        # 24a98 <g_2380+0x8>
   1bf11:	c1 e0 07             	shl    $0x7,%eax
   1bf14:	66 c1 f8 07          	sar    $0x7,%ax
   1bf18:	48 0f bf c0          	movswq %ax,%rax
   1bf1c:	8b 55 f4             	mov    -0xc(%rbp),%edx
   1bf1f:	48 8d 35 83 4d 00 00 	lea    0x4d83(%rip),%rsi        # 20ca9 <g_5046+0x1589>
   1bf26:	48 89 c7             	mov    %rax,%rdi
   1bf29:	e8 c5 27 ff ff       	callq  e6f3 <transparent_crc>
   1bf2e:	48 8b 05 63 8b 00 00 	mov    0x8b63(%rip),%rax        # 24a98 <g_2380+0x8>
   1bf35:	c1 e0 07             	shl    $0x7,%eax
   1bf38:	c1 f8 10             	sar    $0x10,%eax
   1bf3b:	48 0f bf c0          	movswq %ax,%rax
   1bf3f:	8b 55 f4             	mov    -0xc(%rbp),%edx
   1bf42:	48 8d 35 6a 4d 00 00 	lea    0x4d6a(%rip),%rsi        # 20cb3 <g_5046+0x1593>
   1bf49:	48 89 c7             	mov    %rax,%rdi
   1bf4c:	e8 a2 27 ff ff       	callq  e6f3 <transparent_crc>
   1bf51:	48 8b 05 40 8b 00 00 	mov    0x8b40(%rip),%rax        # 24a98 <g_2380+0x8>
   1bf58:	c1 e0 06             	shl    $0x6,%eax
   1bf5b:	c1 f8 1f             	sar    $0x1f,%eax
   1bf5e:	48 0f be c0          	movsbq %al,%rax
   1bf62:	8b 55 f4             	mov    -0xc(%rbp),%edx
   1bf65:	48 8d 35 51 4d 00 00 	lea    0x4d51(%rip),%rsi        # 20cbd <g_5046+0x159d>
   1bf6c:	48 89 c7             	mov    %rax,%rdi
   1bf6f:	e8 7f 27 ff ff       	callq  e6f3 <transparent_crc>
   1bf74:	48 8b 05 1d 8b 00 00 	mov    0x8b1d(%rip),%rax        # 24a98 <g_2380+0x8>
   1bf7b:	48 c1 e8 20          	shr    $0x20,%rax
   1bf7f:	25 ff ff 3f 00       	and    $0x3fffff,%eax
   1bf84:	89 c1                	mov    %eax,%ecx
   1bf86:	8b 45 f4             	mov    -0xc(%rbp),%eax
   1bf89:	89 c2                	mov    %eax,%edx
   1bf8b:	48 8d 35 35 4d 00 00 	lea    0x4d35(%rip),%rsi        # 20cc7 <g_5046+0x15a7>
   1bf92:	48 89 cf             	mov    %rcx,%rdi
   1bf95:	e8 59 27 ff ff       	callq  e6f3 <transparent_crc>
   1bf9a:	48 8b 05 ff 8a 00 00 	mov    0x8aff(%rip),%rax        # 24aa0 <g_2380+0x10>
   1bfa1:	c1 e0 03             	shl    $0x3,%eax
   1bfa4:	c1 f8 03             	sar    $0x3,%eax
   1bfa7:	48 98                	cltq   
   1bfa9:	8b 55 f4             	mov    -0xc(%rbp),%edx
   1bfac:	48 8d 35 1e 4d 00 00 	lea    0x4d1e(%rip),%rsi        # 20cd1 <g_5046+0x15b1>
   1bfb3:	48 89 c7             	mov    %rax,%rdi
   1bfb6:	e8 38 27 ff ff       	callq  e6f3 <transparent_crc>
   1bfbb:	48 8b 05 de 8a 00 00 	mov    0x8ade(%rip),%rax        # 24aa0 <g_2380+0x10>
   1bfc2:	48 c1 e0 04          	shl    $0x4,%rax
   1bfc6:	48 c1 f8 24          	sar    $0x24,%rax
   1bfca:	48 98                	cltq   
   1bfcc:	8b 55 f4             	mov    -0xc(%rbp),%edx
   1bfcf:	48 8d 35 05 4d 00 00 	lea    0x4d05(%rip),%rsi        # 20cdb <g_5046+0x15bb>
   1bfd6:	48 89 c7             	mov    %rax,%rdi
   1bfd9:	e8 15 27 ff ff       	callq  e6f3 <transparent_crc>
   1bfde:	48 8b 05 cb 8a 00 00 	mov    0x8acb(%rip),%rax        # 24ab0 <g_2437>
   1bfe5:	c1 e0 0d             	shl    $0xd,%eax
   1bfe8:	c1 f8 0d             	sar    $0xd,%eax
   1bfeb:	48 98                	cltq   
   1bfed:	8b 55 f4             	mov    -0xc(%rbp),%edx
   1bff0:	48 8d 35 ee 4c 00 00 	lea    0x4cee(%rip),%rsi        # 20ce5 <g_5046+0x15c5>
   1bff7:	48 89 c7             	mov    %rax,%rdi
   1bffa:	e8 f4 26 ff ff       	callq  e6f3 <transparent_crc>
   1bfff:	8b 05 af 8a 00 00    	mov    0x8aaf(%rip),%eax        # 24ab4 <g_2437+0x4>
   1c005:	c1 e0 02             	shl    $0x2,%eax
   1c008:	c1 f8 02             	sar    $0x2,%eax
   1c00b:	48 98                	cltq   
   1c00d:	8b 55 f4             	mov    -0xc(%rbp),%edx
   1c010:	48 8d 35 d8 4c 00 00 	lea    0x4cd8(%rip),%rsi        # 20cef <g_5046+0x15cf>
   1c017:	48 89 c7             	mov    %rax,%rdi
   1c01a:	e8 d4 26 ff ff       	callq  e6f3 <transparent_crc>
   1c01f:	0f b7 05 92 8a 00 00 	movzwl 0x8a92(%rip),%eax        # 24ab8 <g_2437+0x8>
   1c026:	c1 e0 07             	shl    $0x7,%eax
   1c029:	66 c1 f8 07          	sar    $0x7,%ax
   1c02d:	48 0f bf c0          	movswq %ax,%rax
   1c031:	8b 55 f4             	mov    -0xc(%rbp),%edx
   1c034:	48 8d 35 be 4c 00 00 	lea    0x4cbe(%rip),%rsi        # 20cf9 <g_5046+0x15d9>
   1c03b:	48 89 c7             	mov    %rax,%rdi
   1c03e:	e8 b0 26 ff ff       	callq  e6f3 <transparent_crc>
   1c043:	8b 05 6f 8a 00 00    	mov    0x8a6f(%rip),%eax        # 24ab8 <g_2437+0x8>
   1c049:	c1 e0 07             	shl    $0x7,%eax
   1c04c:	c1 f8 10             	sar    $0x10,%eax
   1c04f:	48 0f bf c0          	movswq %ax,%rax
   1c053:	8b 55 f4             	mov    -0xc(%rbp),%edx
   1c056:	48 8d 35 a6 4c 00 00 	lea    0x4ca6(%rip),%rsi        # 20d03 <g_5046+0x15e3>
   1c05d:	48 89 c7             	mov    %rax,%rdi
   1c060:	e8 8e 26 ff ff       	callq  e6f3 <transparent_crc>
   1c065:	0f b6 05 4f 8a 00 00 	movzbl 0x8a4f(%rip),%eax        # 24abb <g_2437+0xb>
   1c06c:	c1 e0 06             	shl    $0x6,%eax
   1c06f:	c0 f8 07             	sar    $0x7,%al
   1c072:	48 0f be c0          	movsbq %al,%rax
   1c076:	8b 55 f4             	mov    -0xc(%rbp),%edx
   1c079:	48 8d 35 8d 4c 00 00 	lea    0x4c8d(%rip),%rsi        # 20d0d <g_5046+0x15ed>
   1c080:	48 89 c7             	mov    %rax,%rdi
   1c083:	e8 6b 26 ff ff       	callq  e6f3 <transparent_crc>
   1c088:	8b 05 2e 8a 00 00    	mov    0x8a2e(%rip),%eax        # 24abc <g_2437+0xc>
   1c08e:	25 ff ff 3f 00       	and    $0x3fffff,%eax
   1c093:	89 c1                	mov    %eax,%ecx
   1c095:	8b 45 f4             	mov    -0xc(%rbp),%eax
   1c098:	89 c2                	mov    %eax,%edx
   1c09a:	48 8d 35 76 4c 00 00 	lea    0x4c76(%rip),%rsi        # 20d17 <g_5046+0x15f7>
   1c0a1:	48 89 cf             	mov    %rcx,%rdi
   1c0a4:	e8 4a 26 ff ff       	callq  e6f3 <transparent_crc>
   1c0a9:	48 8b 05 10 8a 00 00 	mov    0x8a10(%rip),%rax        # 24ac0 <g_2437+0x10>
   1c0b0:	c1 e0 03             	shl    $0x3,%eax
   1c0b3:	c1 f8 03             	sar    $0x3,%eax
   1c0b6:	48 98                	cltq   
   1c0b8:	8b 55 f4             	mov    -0xc(%rbp),%edx
   1c0bb:	48 8d 35 5f 4c 00 00 	lea    0x4c5f(%rip),%rsi        # 20d21 <g_5046+0x1601>
   1c0c2:	48 89 c7             	mov    %rax,%rdi
   1c0c5:	e8 29 26 ff ff       	callq  e6f3 <transparent_crc>
   1c0ca:	8b 05 f4 89 00 00    	mov    0x89f4(%rip),%eax        # 24ac4 <g_2437+0x14>
   1c0d0:	c1 e0 04             	shl    $0x4,%eax
   1c0d3:	c1 f8 04             	sar    $0x4,%eax
   1c0d6:	48 98                	cltq   
   1c0d8:	8b 55 f4             	mov    -0xc(%rbp),%edx
   1c0db:	48 8d 35 49 4c 00 00 	lea    0x4c49(%rip),%rsi        # 20d2b <g_5046+0x160b>
   1c0e2:	48 89 c7             	mov    %rax,%rdi
   1c0e5:	e8 09 26 ff ff       	callq  e6f3 <transparent_crc>
   1c0ea:	48 8b 05 d7 89 00 00 	mov    0x89d7(%rip),%rax        # 24ac8 <g_2477>
   1c0f1:	48 89 c1             	mov    %rax,%rcx
   1c0f4:	8b 45 f4             	mov    -0xc(%rbp),%eax
   1c0f7:	89 c2                	mov    %eax,%edx
   1c0f9:	48 8d 35 35 4c 00 00 	lea    0x4c35(%rip),%rsi        # 20d35 <g_5046+0x1615>
   1c100:	48 89 cf             	mov    %rcx,%rdi
   1c103:	e8 eb 25 ff ff       	callq  e6f3 <transparent_crc>
   1c108:	c7 45 e8 00 00 00 00 	movl   $0x0,-0x18(%rbp)
   1c10f:	e9 84 04 00 00       	jmpq   1c598 <main+0x2ee8>
   1c114:	c7 45 ec 00 00 00 00 	movl   $0x0,-0x14(%rbp)
   1c11b:	e9 6a 04 00 00       	jmpq   1c58a <main+0x2eda>
   1c120:	c7 45 f0 00 00 00 00 	movl   $0x0,-0x10(%rbp)
   1c127:	e9 50 04 00 00       	jmpq   1c57c <main+0x2ecc>
   1c12c:	8b 45 f0             	mov    -0x10(%rbp),%eax
   1c12f:	48 98                	cltq   
   1c131:	8b 55 ec             	mov    -0x14(%rbp),%edx
   1c134:	48 63 f2             	movslq %edx,%rsi
   1c137:	8b 55 e8             	mov    -0x18(%rbp),%edx
   1c13a:	48 63 ca             	movslq %edx,%rcx
   1c13d:	48 89 c2             	mov    %rax,%rdx
   1c140:	48 01 d2             	add    %rdx,%rdx
   1c143:	48 01 c2             	add    %rax,%rdx
   1c146:	48 8d 04 d5 00 00 00 	lea    0x0(,%rdx,8),%rax
   1c14d:	00 
   1c14e:	48 89 c2             	mov    %rax,%rdx
   1c151:	48 89 f0             	mov    %rsi,%rax
   1c154:	48 01 c0             	add    %rax,%rax
   1c157:	48 01 f0             	add    %rsi,%rax
   1c15a:	48 8d 34 c5 00 00 00 	lea    0x0(,%rax,8),%rsi
   1c161:	00 
   1c162:	48 01 f0             	add    %rsi,%rax
   1c165:	48 c1 e0 03          	shl    $0x3,%rax
   1c169:	48 8d 34 02          	lea    (%rdx,%rax,1),%rsi
   1c16d:	48 89 c8             	mov    %rcx,%rax
   1c170:	48 01 c0             	add    %rax,%rax
   1c173:	48 01 c8             	add    %rcx,%rax
   1c176:	48 8d 14 c5 00 00 00 	lea    0x0(,%rax,8),%rdx
   1c17d:	00 
   1c17e:	48 01 d0             	add    %rdx,%rax
   1c181:	48 c1 e0 05          	shl    $0x5,%rax
   1c185:	48 8d 14 06          	lea    (%rsi,%rax,1),%rdx
   1c189:	48 8d 05 50 89 00 00 	lea    0x8950(%rip),%rax        # 24ae0 <g_2607>
   1c190:	48 01 d0             	add    %rdx,%rax
   1c193:	48 8b 00             	mov    (%rax),%rax
   1c196:	c1 e0 0d             	shl    $0xd,%eax
   1c199:	c1 f8 0d             	sar    $0xd,%eax
   1c19c:	48 98                	cltq   
   1c19e:	8b 55 f4             	mov    -0xc(%rbp),%edx
   1c1a1:	48 8d 35 94 4b 00 00 	lea    0x4b94(%rip),%rsi        # 20d3c <g_5046+0x161c>
   1c1a8:	48 89 c7             	mov    %rax,%rdi
   1c1ab:	e8 43 25 ff ff       	callq  e6f3 <transparent_crc>
   1c1b0:	8b 45 f0             	mov    -0x10(%rbp),%eax
   1c1b3:	48 98                	cltq   
   1c1b5:	8b 55 ec             	mov    -0x14(%rbp),%edx
   1c1b8:	48 63 f2             	movslq %edx,%rsi
   1c1bb:	8b 55 e8             	mov    -0x18(%rbp),%edx
   1c1be:	48 63 ca             	movslq %edx,%rcx
   1c1c1:	48 89 c2             	mov    %rax,%rdx
   1c1c4:	48 01 d2             	add    %rdx,%rdx
   1c1c7:	48 01 c2             	add    %rax,%rdx
   1c1ca:	48 8d 04 d5 00 00 00 	lea    0x0(,%rdx,8),%rax
   1c1d1:	00 
   1c1d2:	48 89 c2             	mov    %rax,%rdx
   1c1d5:	48 89 f0             	mov    %rsi,%rax
   1c1d8:	48 01 c0             	add    %rax,%rax
   1c1db:	48 01 f0             	add    %rsi,%rax
   1c1de:	48 8d 34 c5 00 00 00 	lea    0x0(,%rax,8),%rsi
   1c1e5:	00 
   1c1e6:	48 01 f0             	add    %rsi,%rax
   1c1e9:	48 c1 e0 03          	shl    $0x3,%rax
   1c1ed:	48 8d 34 02          	lea    (%rdx,%rax,1),%rsi
   1c1f1:	48 89 c8             	mov    %rcx,%rax
   1c1f4:	48 01 c0             	add    %rax,%rax
   1c1f7:	48 01 c8             	add    %rcx,%rax
   1c1fa:	48 8d 14 c5 00 00 00 	lea    0x0(,%rax,8),%rdx
   1c201:	00 
   1c202:	48 01 d0             	add    %rdx,%rax
   1c205:	48 c1 e0 05          	shl    $0x5,%rax
   1c209:	48 8d 14 06          	lea    (%rsi,%rax,1),%rdx
   1c20d:	48 8d 05 cc 88 00 00 	lea    0x88cc(%rip),%rax        # 24ae0 <g_2607>
   1c214:	48 01 d0             	add    %rdx,%rax
   1c217:	8b 40 04             	mov    0x4(%rax),%eax
   1c21a:	c1 e0 02             	shl    $0x2,%eax
   1c21d:	c1 f8 02             	sar    $0x2,%eax
   1c220:	48 98                	cltq   
   1c222:	8b 55 f4             	mov    -0xc(%rbp),%edx
   1c225:	48 8d 35 23 4b 00 00 	lea    0x4b23(%rip),%rsi        # 20d4f <g_5046+0x162f>
   1c22c:	48 89 c7             	mov    %rax,%rdi
   1c22f:	e8 bf 24 ff ff       	callq  e6f3 <transparent_crc>
   1c234:	8b 45 f0             	mov    -0x10(%rbp),%eax
   1c237:	48 98                	cltq   
   1c239:	8b 55 ec             	mov    -0x14(%rbp),%edx
   1c23c:	48 63 f2             	movslq %edx,%rsi
   1c23f:	8b 55 e8             	mov    -0x18(%rbp),%edx
   1c242:	48 63 ca             	movslq %edx,%rcx
   1c245:	48 89 c2             	mov    %rax,%rdx
   1c248:	48 01 d2             	add    %rdx,%rdx
   1c24b:	48 01 c2             	add    %rax,%rdx
   1c24e:	48 8d 04 d5 00 00 00 	lea    0x0(,%rdx,8),%rax
   1c255:	00 
   1c256:	48 89 c2             	mov    %rax,%rdx
   1c259:	48 89 f0             	mov    %rsi,%rax
   1c25c:	48 01 c0             	add    %rax,%rax
   1c25f:	48 01 f0             	add    %rsi,%rax
   1c262:	48 8d 34 c5 00 00 00 	lea    0x0(,%rax,8),%rsi
   1c269:	00 
   1c26a:	48 01 f0             	add    %rsi,%rax
   1c26d:	48 c1 e0 03          	shl    $0x3,%rax
   1c271:	48 8d 34 02          	lea    (%rdx,%rax,1),%rsi
   1c275:	48 89 c8             	mov    %rcx,%rax
   1c278:	48 01 c0             	add    %rax,%rax
   1c27b:	48 01 c8             	add    %rcx,%rax
   1c27e:	48 8d 14 c5 00 00 00 	lea    0x0(,%rax,8),%rdx
   1c285:	00 
   1c286:	48 01 d0             	add    %rdx,%rax
   1c289:	48 c1 e0 05          	shl    $0x5,%rax
   1c28d:	48 8d 14 06          	lea    (%rsi,%rax,1),%rdx
   1c291:	48 8d 05 48 88 00 00 	lea    0x8848(%rip),%rax        # 24ae0 <g_2607>
   1c298:	48 01 d0             	add    %rdx,%rax
   1c29b:	0f b7 40 08          	movzwl 0x8(%rax),%eax
   1c29f:	c1 e0 07             	shl    $0x7,%eax
   1c2a2:	66 c1 f8 07          	sar    $0x7,%ax
   1c2a6:	48 0f bf c0          	movswq %ax,%rax
   1c2aa:	8b 55 f4             	mov    -0xc(%rbp),%edx
   1c2ad:	48 8d 35 ae 4a 00 00 	lea    0x4aae(%rip),%rsi        # 20d62 <g_5046+0x1642>
   1c2b4:	48 89 c7             	mov    %rax,%rdi
   1c2b7:	e8 37 24 ff ff       	callq  e6f3 <transparent_crc>
   1c2bc:	8b 45 f0             	mov    -0x10(%rbp),%eax
   1c2bf:	48 98                	cltq   
   1c2c1:	8b 55 ec             	mov    -0x14(%rbp),%edx
   1c2c4:	48 63 f2             	movslq %edx,%rsi
   1c2c7:	8b 55 e8             	mov    -0x18(%rbp),%edx
   1c2ca:	48 63 ca             	movslq %edx,%rcx
   1c2cd:	48 89 c2             	mov    %rax,%rdx
   1c2d0:	48 01 d2             	add    %rdx,%rdx
   1c2d3:	48 01 c2             	add    %rax,%rdx
   1c2d6:	48 8d 04 d5 00 00 00 	lea    0x0(,%rdx,8),%rax
   1c2dd:	00 
   1c2de:	48 89 c2             	mov    %rax,%rdx
   1c2e1:	48 89 f0             	mov    %rsi,%rax
   1c2e4:	48 01 c0             	add    %rax,%rax
   1c2e7:	48 01 f0             	add    %rsi,%rax
   1c2ea:	48 8d 34 c5 00 00 00 	lea    0x0(,%rax,8),%rsi
   1c2f1:	00 
   1c2f2:	48 01 f0             	add    %rsi,%rax
   1c2f5:	48 c1 e0 03          	shl    $0x3,%rax
   1c2f9:	48 8d 34 02          	lea    (%rdx,%rax,1),%rsi
   1c2fd:	48 89 c8             	mov    %rcx,%rax
   1c300:	48 01 c0             	add    %rax,%rax
   1c303:	48 01 c8             	add    %rcx,%rax
   1c306:	48 8d 14 c5 00 00 00 	lea    0x0(,%rax,8),%rdx
   1c30d:	00 
   1c30e:	48 01 d0             	add    %rdx,%rax
   1c311:	48 c1 e0 05          	shl    $0x5,%rax
   1c315:	48 8d 14 06          	lea    (%rsi,%rax,1),%rdx
   1c319:	48 8d 05 c0 87 00 00 	lea    0x87c0(%rip),%rax        # 24ae0 <g_2607>
   1c320:	48 01 d0             	add    %rdx,%rax
   1c323:	8b 40 08             	mov    0x8(%rax),%eax
   1c326:	c1 e0 07             	shl    $0x7,%eax
   1c329:	c1 f8 10             	sar    $0x10,%eax
   1c32c:	48 0f bf c0          	movswq %ax,%rax
   1c330:	8b 55 f4             	mov    -0xc(%rbp),%edx
   1c333:	48 8d 35 3b 4a 00 00 	lea    0x4a3b(%rip),%rsi        # 20d75 <g_5046+0x1655>
   1c33a:	48 89 c7             	mov    %rax,%rdi
   1c33d:	e8 b1 23 ff ff       	callq  e6f3 <transparent_crc>
   1c342:	8b 45 f0             	mov    -0x10(%rbp),%eax
   1c345:	48 98                	cltq   
   1c347:	8b 55 ec             	mov    -0x14(%rbp),%edx
   1c34a:	48 63 f2             	movslq %edx,%rsi
   1c34d:	8b 55 e8             	mov    -0x18(%rbp),%edx
   1c350:	48 63 ca             	movslq %edx,%rcx
   1c353:	48 89 c2             	mov    %rax,%rdx
   1c356:	48 01 d2             	add    %rdx,%rdx
   1c359:	48 01 c2             	add    %rax,%rdx
   1c35c:	48 8d 04 d5 00 00 00 	lea    0x0(,%rdx,8),%rax
   1c363:	00 
   1c364:	48 89 c2             	mov    %rax,%rdx
   1c367:	48 89 f0             	mov    %rsi,%rax
   1c36a:	48 01 c0             	add    %rax,%rax
   1c36d:	48 01 f0             	add    %rsi,%rax
   1c370:	48 8d 34 c5 00 00 00 	lea    0x0(,%rax,8),%rsi
   1c377:	00 
   1c378:	48 01 f0             	add    %rsi,%rax
   1c37b:	48 c1 e0 03          	shl    $0x3,%rax
   1c37f:	48 8d 34 02          	lea    (%rdx,%rax,1),%rsi
   1c383:	48 89 c8             	mov    %rcx,%rax
   1c386:	48 01 c0             	add    %rax,%rax
   1c389:	48 01 c8             	add    %rcx,%rax
   1c38c:	48 8d 14 c5 00 00 00 	lea    0x0(,%rax,8),%rdx
   1c393:	00 
   1c394:	48 01 d0             	add    %rdx,%rax
   1c397:	48 c1 e0 05          	shl    $0x5,%rax
   1c39b:	48 8d 14 06          	lea    (%rsi,%rax,1),%rdx
   1c39f:	48 8d 05 3a 87 00 00 	lea    0x873a(%rip),%rax        # 24ae0 <g_2607>
   1c3a6:	48 01 d0             	add    %rdx,%rax
   1c3a9:	0f b6 40 0b          	movzbl 0xb(%rax),%eax
   1c3ad:	c1 e0 06             	shl    $0x6,%eax
   1c3b0:	c0 f8 07             	sar    $0x7,%al
   1c3b3:	48 0f be c0          	movsbq %al,%rax
   1c3b7:	8b 55 f4             	mov    -0xc(%rbp),%edx
   1c3ba:	48 8d 35 c7 49 00 00 	lea    0x49c7(%rip),%rsi        # 20d88 <g_5046+0x1668>
   1c3c1:	48 89 c7             	mov    %rax,%rdi
   1c3c4:	e8 2a 23 ff ff       	callq  e6f3 <transparent_crc>
   1c3c9:	8b 45 f0             	mov    -0x10(%rbp),%eax
   1c3cc:	48 98                	cltq   
   1c3ce:	8b 55 ec             	mov    -0x14(%rbp),%edx
   1c3d1:	48 63 f2             	movslq %edx,%rsi
   1c3d4:	8b 55 e8             	mov    -0x18(%rbp),%edx
   1c3d7:	48 63 ca             	movslq %edx,%rcx
   1c3da:	48 89 c2             	mov    %rax,%rdx
   1c3dd:	48 01 d2             	add    %rdx,%rdx
   1c3e0:	48 01 c2             	add    %rax,%rdx
   1c3e3:	48 8d 04 d5 00 00 00 	lea    0x0(,%rdx,8),%rax
   1c3ea:	00 
   1c3eb:	48 89 c2             	mov    %rax,%rdx
   1c3ee:	48 89 f0             	mov    %rsi,%rax
   1c3f1:	48 01 c0             	add    %rax,%rax
   1c3f4:	48 01 f0             	add    %rsi,%rax
   1c3f7:	48 8d 34 c5 00 00 00 	lea    0x0(,%rax,8),%rsi
   1c3fe:	00 
   1c3ff:	48 01 f0             	add    %rsi,%rax
   1c402:	48 c1 e0 03          	shl    $0x3,%rax
   1c406:	48 8d 34 02          	lea    (%rdx,%rax,1),%rsi
   1c40a:	48 89 c8             	mov    %rcx,%rax
   1c40d:	48 01 c0             	add    %rax,%rax
   1c410:	48 01 c8             	add    %rcx,%rax
   1c413:	48 8d 14 c5 00 00 00 	lea    0x0(,%rax,8),%rdx
   1c41a:	00 
   1c41b:	48 01 d0             	add    %rdx,%rax
   1c41e:	48 c1 e0 05          	shl    $0x5,%rax
   1c422:	48 8d 14 06          	lea    (%rsi,%rax,1),%rdx
   1c426:	48 8d 05 b3 86 00 00 	lea    0x86b3(%rip),%rax        # 24ae0 <g_2607>
   1c42d:	48 01 d0             	add    %rdx,%rax
   1c430:	8b 40 0c             	mov    0xc(%rax),%eax
   1c433:	25 ff ff 3f 00       	and    $0x3fffff,%eax
   1c438:	89 c1                	mov    %eax,%ecx
   1c43a:	8b 45 f4             	mov    -0xc(%rbp),%eax
   1c43d:	89 c2                	mov    %eax,%edx
   1c43f:	48 8d 35 55 49 00 00 	lea    0x4955(%rip),%rsi        # 20d9b <g_5046+0x167b>
   1c446:	48 89 cf             	mov    %rcx,%rdi
   1c449:	e8 a5 22 ff ff       	callq  e6f3 <transparent_crc>
   1c44e:	8b 45 f0             	mov    -0x10(%rbp),%eax
   1c451:	48 98                	cltq   
   1c453:	8b 55 ec             	mov    -0x14(%rbp),%edx
   1c456:	48 63 ca             	movslq %edx,%rcx
   1c459:	8b 55 e8             	mov    -0x18(%rbp),%edx
   1c45c:	48 63 f2             	movslq %edx,%rsi
   1c45f:	48 89 c2             	mov    %rax,%rdx
   1c462:	48 01 d2             	add    %rdx,%rdx
   1c465:	48 01 c2             	add    %rax,%rdx
   1c468:	48 8d 04 d5 00 00 00 	lea    0x0(,%rdx,8),%rax
   1c46f:	00 
   1c470:	48 89 c2             	mov    %rax,%rdx
   1c473:	48 89 f0             	mov    %rsi,%rax
   1c476:	48 01 c0             	add    %rax,%rax
   1c479:	48 01 f0             	add    %rsi,%rax
   1c47c:	48 8d 34 c5 00 00 00 	lea    0x0(,%rax,8),%rsi
   1c483:	00 
   1c484:	48 01 f0             	add    %rsi,%rax
   1c487:	48 c1 e0 05          	shl    $0x5,%rax
   1c48b:	48 8d 34 02          	lea    (%rdx,%rax,1),%rsi
   1c48f:	48 89 c8             	mov    %rcx,%rax
   1c492:	48 01 c0             	add    %rax,%rax
   1c495:	48 01 c8             	add    %rcx,%rax
   1c498:	48 8d 14 c5 00 00 00 	lea    0x0(,%rax,8),%rdx
   1c49f:	00 
   1c4a0:	48 01 d0             	add    %rdx,%rax
   1c4a3:	48 c1 e0 03          	shl    $0x3,%rax
   1c4a7:	48 8d 14 06          	lea    (%rsi,%rax,1),%rdx
   1c4ab:	48 8d 05 3e 86 00 00 	lea    0x863e(%rip),%rax        # 24af0 <g_2607+0x10>
   1c4b2:	48 01 d0             	add    %rdx,%rax
   1c4b5:	48 8b 00             	mov    (%rax),%rax
   1c4b8:	c1 e0 03             	shl    $0x3,%eax
   1c4bb:	c1 f8 03             	sar    $0x3,%eax
   1c4be:	48 98                	cltq   
   1c4c0:	8b 55 f4             	mov    -0xc(%rbp),%edx
   1c4c3:	48 8d 35 e4 48 00 00 	lea    0x48e4(%rip),%rsi        # 20dae <g_5046+0x168e>
   1c4ca:	48 89 c7             	mov    %rax,%rdi
   1c4cd:	e8 21 22 ff ff       	callq  e6f3 <transparent_crc>
   1c4d2:	8b 45 f0             	mov    -0x10(%rbp),%eax
   1c4d5:	48 98                	cltq   
   1c4d7:	8b 55 ec             	mov    -0x14(%rbp),%edx
   1c4da:	48 63 ca             	movslq %edx,%rcx
   1c4dd:	8b 55 e8             	mov    -0x18(%rbp),%edx
   1c4e0:	48 63 f2             	movslq %edx,%rsi
   1c4e3:	48 89 c2             	mov    %rax,%rdx
   1c4e6:	48 01 d2             	add    %rdx,%rdx
   1c4e9:	48 01 c2             	add    %rax,%rdx
   1c4ec:	48 8d 04 d5 00 00 00 	lea    0x0(,%rdx,8),%rax
   1c4f3:	00 
   1c4f4:	48 89 c2             	mov    %rax,%rdx
   1c4f7:	48 89 f0             	mov    %rsi,%rax
   1c4fa:	48 01 c0             	add    %rax,%rax
   1c4fd:	48 01 f0             	add    %rsi,%rax
   1c500:	48 8d 34 c5 00 00 00 	lea    0x0(,%rax,8),%rsi
   1c507:	00 
   1c508:	48 01 f0             	add    %rsi,%rax
   1c50b:	48 c1 e0 05          	shl    $0x5,%rax
   1c50f:	48 8d 34 02          	lea    (%rdx,%rax,1),%rsi
   1c513:	48 89 c8             	mov    %rcx,%rax
   1c516:	48 01 c0             	add    %rax,%rax
   1c519:	48 01 c8             	add    %rcx,%rax
   1c51c:	48 8d 14 c5 00 00 00 	lea    0x0(,%rax,8),%rdx
   1c523:	00 
   1c524:	48 01 d0             	add    %rdx,%rax
   1c527:	48 c1 e0 03          	shl    $0x3,%rax
   1c52b:	48 8d 14 06          	lea    (%rsi,%rax,1),%rdx
   1c52f:	48 8d 05 ba 85 00 00 	lea    0x85ba(%rip),%rax        # 24af0 <g_2607+0x10>
   1c536:	48 01 d0             	add    %rdx,%rax
   1c539:	8b 40 04             	mov    0x4(%rax),%eax
   1c53c:	c1 e0 04             	shl    $0x4,%eax
   1c53f:	c1 f8 04             	sar    $0x4,%eax
   1c542:	48 98                	cltq   
   1c544:	8b 55 f4             	mov    -0xc(%rbp),%edx
   1c547:	48 8d 35 73 48 00 00 	lea    0x4873(%rip),%rsi        # 20dc1 <g_5046+0x16a1>
   1c54e:	48 89 c7             	mov    %rax,%rdi
   1c551:	e8 9d 21 ff ff       	callq  e6f3 <transparent_crc>
   1c556:	83 7d f4 00          	cmpl   $0x0,-0xc(%rbp)
   1c55a:	74 1c                	je     1c578 <main+0x2ec8>
   1c55c:	8b 4d f0             	mov    -0x10(%rbp),%ecx
   1c55f:	8b 55 ec             	mov    -0x14(%rbp),%edx
   1c562:	8b 45 e8             	mov    -0x18(%rbp),%eax
   1c565:	89 c6                	mov    %eax,%esi
   1c567:	48 8d 3d 89 40 00 00 	lea    0x4089(%rip),%rdi        # 205f7 <g_5046+0xed7>
   1c56e:	b8 00 00 00 00       	mov    $0x0,%eax
   1c573:	e8 08 0b ff ff       	callq  d080 <printf@plt>
   1c578:	83 45 f0 01          	addl   $0x1,-0x10(%rbp)
   1c57c:	83 7d f0 08          	cmpl   $0x8,-0x10(%rbp)
   1c580:	0f 8e a6 fb ff ff    	jle    1c12c <main+0x2a7c>
   1c586:	83 45 ec 01          	addl   $0x1,-0x14(%rbp)
   1c58a:	83 7d ec 03          	cmpl   $0x3,-0x14(%rbp)
   1c58e:	0f 8e 8c fb ff ff    	jle    1c120 <main+0x2a70>
   1c594:	83 45 e8 01          	addl   $0x1,-0x18(%rbp)
   1c598:	83 7d e8 01          	cmpl   $0x1,-0x18(%rbp)
   1c59c:	0f 8e 72 fb ff ff    	jle    1c114 <main+0x2a64>
   1c5a2:	48 8b 05 f7 8b 00 00 	mov    0x8bf7(%rip),%rax        # 251a0 <g_2618>
   1c5a9:	c1 e0 0d             	shl    $0xd,%eax
   1c5ac:	c1 f8 0d             	sar    $0xd,%eax
   1c5af:	48 98                	cltq   
   1c5b1:	8b 55 f4             	mov    -0xc(%rbp),%edx
   1c5b4:	48 8d 35 19 48 00 00 	lea    0x4819(%rip),%rsi        # 20dd4 <g_5046+0x16b4>
   1c5bb:	48 89 c7             	mov    %rax,%rdi
   1c5be:	e8 30 21 ff ff       	callq  e6f3 <transparent_crc>
   1c5c3:	8b 05 db 8b 00 00    	mov    0x8bdb(%rip),%eax        # 251a4 <g_2618+0x4>
   1c5c9:	c1 e0 02             	shl    $0x2,%eax
   1c5cc:	c1 f8 02             	sar    $0x2,%eax
   1c5cf:	48 98                	cltq   
   1c5d1:	8b 55 f4             	mov    -0xc(%rbp),%edx
   1c5d4:	48 8d 35 03 48 00 00 	lea    0x4803(%rip),%rsi        # 20dde <g_5046+0x16be>
   1c5db:	48 89 c7             	mov    %rax,%rdi
   1c5de:	e8 10 21 ff ff       	callq  e6f3 <transparent_crc>
   1c5e3:	0f b7 05 be 8b 00 00 	movzwl 0x8bbe(%rip),%eax        # 251a8 <g_2618+0x8>
   1c5ea:	c1 e0 07             	shl    $0x7,%eax
   1c5ed:	66 c1 f8 07          	sar    $0x7,%ax
   1c5f1:	48 0f bf c0          	movswq %ax,%rax
   1c5f5:	8b 55 f4             	mov    -0xc(%rbp),%edx
   1c5f8:	48 8d 35 e9 47 00 00 	lea    0x47e9(%rip),%rsi        # 20de8 <g_5046+0x16c8>
   1c5ff:	48 89 c7             	mov    %rax,%rdi
   1c602:	e8 ec 20 ff ff       	callq  e6f3 <transparent_crc>
   1c607:	8b 05 9b 8b 00 00    	mov    0x8b9b(%rip),%eax        # 251a8 <g_2618+0x8>
   1c60d:	c1 e0 07             	shl    $0x7,%eax
   1c610:	c1 f8 10             	sar    $0x10,%eax
   1c613:	48 0f bf c0          	movswq %ax,%rax
   1c617:	8b 55 f4             	mov    -0xc(%rbp),%edx
   1c61a:	48 8d 35 d1 47 00 00 	lea    0x47d1(%rip),%rsi        # 20df2 <g_5046+0x16d2>
   1c621:	48 89 c7             	mov    %rax,%rdi
   1c624:	e8 ca 20 ff ff       	callq  e6f3 <transparent_crc>
   1c629:	0f b6 05 7b 8b 00 00 	movzbl 0x8b7b(%rip),%eax        # 251ab <g_2618+0xb>
   1c630:	c1 e0 06             	shl    $0x6,%eax
   1c633:	c0 f8 07             	sar    $0x7,%al
   1c636:	48 0f be c0          	movsbq %al,%rax
   1c63a:	8b 55 f4             	mov    -0xc(%rbp),%edx
   1c63d:	48 8d 35 b8 47 00 00 	lea    0x47b8(%rip),%rsi        # 20dfc <g_5046+0x16dc>
   1c644:	48 89 c7             	mov    %rax,%rdi
   1c647:	e8 a7 20 ff ff       	callq  e6f3 <transparent_crc>
   1c64c:	8b 05 5a 8b 00 00    	mov    0x8b5a(%rip),%eax        # 251ac <g_2618+0xc>
   1c652:	25 ff ff 3f 00       	and    $0x3fffff,%eax
   1c657:	89 c1                	mov    %eax,%ecx
   1c659:	8b 45 f4             	mov    -0xc(%rbp),%eax
   1c65c:	89 c2                	mov    %eax,%edx
   1c65e:	48 8d 35 a1 47 00 00 	lea    0x47a1(%rip),%rsi        # 20e06 <g_5046+0x16e6>
   1c665:	48 89 cf             	mov    %rcx,%rdi
   1c668:	e8 86 20 ff ff       	callq  e6f3 <transparent_crc>
   1c66d:	48 8b 05 3c 8b 00 00 	mov    0x8b3c(%rip),%rax        # 251b0 <g_2618+0x10>
   1c674:	c1 e0 03             	shl    $0x3,%eax
   1c677:	c1 f8 03             	sar    $0x3,%eax
   1c67a:	48 98                	cltq   
   1c67c:	8b 55 f4             	mov    -0xc(%rbp),%edx
   1c67f:	48 8d 35 8a 47 00 00 	lea    0x478a(%rip),%rsi        # 20e10 <g_5046+0x16f0>
   1c686:	48 89 c7             	mov    %rax,%rdi
   1c689:	e8 65 20 ff ff       	callq  e6f3 <transparent_crc>
   1c68e:	8b 05 20 8b 00 00    	mov    0x8b20(%rip),%eax        # 251b4 <g_2618+0x14>
   1c694:	c1 e0 04             	shl    $0x4,%eax
   1c697:	c1 f8 04             	sar    $0x4,%eax
   1c69a:	48 98                	cltq   
   1c69c:	8b 55 f4             	mov    -0xc(%rbp),%edx
   1c69f:	48 8d 35 74 47 00 00 	lea    0x4774(%rip),%rsi        # 20e1a <g_5046+0x16fa>
   1c6a6:	48 89 c7             	mov    %rax,%rdi
   1c6a9:	e8 45 20 ff ff       	callq  e6f3 <transparent_crc>
   1c6ae:	48 8b 05 0b 8b 00 00 	mov    0x8b0b(%rip),%rax        # 251c0 <g_2722>
   1c6b5:	c1 e0 0d             	shl    $0xd,%eax
   1c6b8:	c1 f8 0d             	sar    $0xd,%eax
   1c6bb:	48 98                	cltq   
   1c6bd:	8b 55 f4             	mov    -0xc(%rbp),%edx
   1c6c0:	48 8d 35 5d 47 00 00 	lea    0x475d(%rip),%rsi        # 20e24 <g_5046+0x1704>
   1c6c7:	48 89 c7             	mov    %rax,%rdi
   1c6ca:	e8 24 20 ff ff       	callq  e6f3 <transparent_crc>
   1c6cf:	48 8b 05 ea 8a 00 00 	mov    0x8aea(%rip),%rax        # 251c0 <g_2722>
   1c6d6:	48 c1 e0 02          	shl    $0x2,%rax
   1c6da:	48 c1 f8 22          	sar    $0x22,%rax
   1c6de:	48 98                	cltq   
   1c6e0:	8b 55 f4             	mov    -0xc(%rbp),%edx
   1c6e3:	48 8d 35 44 47 00 00 	lea    0x4744(%rip),%rsi        # 20e2e <g_5046+0x170e>
   1c6ea:	48 89 c7             	mov    %rax,%rdi
   1c6ed:	e8 01 20 ff ff       	callq  e6f3 <transparent_crc>
   1c6f2:	48 8b 05 cf 8a 00 00 	mov    0x8acf(%rip),%rax        # 251c8 <g_2722+0x8>
   1c6f9:	c1 e0 07             	shl    $0x7,%eax
   1c6fc:	66 c1 f8 07          	sar    $0x7,%ax
   1c700:	48 0f bf c0          	movswq %ax,%rax
   1c704:	8b 55 f4             	mov    -0xc(%rbp),%edx
   1c707:	48 8d 35 2a 47 00 00 	lea    0x472a(%rip),%rsi        # 20e38 <g_5046+0x1718>
   1c70e:	48 89 c7             	mov    %rax,%rdi
   1c711:	e8 dd 1f ff ff       	callq  e6f3 <transparent_crc>
   1c716:	48 8b 05 ab 8a 00 00 	mov    0x8aab(%rip),%rax        # 251c8 <g_2722+0x8>
   1c71d:	c1 e0 07             	shl    $0x7,%eax
   1c720:	c1 f8 10             	sar    $0x10,%eax
   1c723:	48 0f bf c0          	movswq %ax,%rax
   1c727:	8b 55 f4             	mov    -0xc(%rbp),%edx
   1c72a:	48 8d 35 11 47 00 00 	lea    0x4711(%rip),%rsi        # 20e42 <g_5046+0x1722>
   1c731:	48 89 c7             	mov    %rax,%rdi
   1c734:	e8 ba 1f ff ff       	callq  e6f3 <transparent_crc>
   1c739:	48 8b 05 88 8a 00 00 	mov    0x8a88(%rip),%rax        # 251c8 <g_2722+0x8>
   1c740:	c1 e0 06             	shl    $0x6,%eax
   1c743:	c1 f8 1f             	sar    $0x1f,%eax
   1c746:	48 0f be c0          	movsbq %al,%rax
   1c74a:	8b 55 f4             	mov    -0xc(%rbp),%edx
   1c74d:	48 8d 35 f8 46 00 00 	lea    0x46f8(%rip),%rsi        # 20e4c <g_5046+0x172c>
   1c754:	48 89 c7             	mov    %rax,%rdi
   1c757:	e8 97 1f ff ff       	callq  e6f3 <transparent_crc>
   1c75c:	48 8b 05 65 8a 00 00 	mov    0x8a65(%rip),%rax        # 251c8 <g_2722+0x8>
   1c763:	48 c1 e8 20          	shr    $0x20,%rax
   1c767:	25 ff ff 3f 00       	and    $0x3fffff,%eax
   1c76c:	89 c1                	mov    %eax,%ecx
   1c76e:	8b 45 f4             	mov    -0xc(%rbp),%eax
   1c771:	89 c2                	mov    %eax,%edx
   1c773:	48 8d 35 dc 46 00 00 	lea    0x46dc(%rip),%rsi        # 20e56 <g_5046+0x1736>
   1c77a:	48 89 cf             	mov    %rcx,%rdi
   1c77d:	e8 71 1f ff ff       	callq  e6f3 <transparent_crc>
   1c782:	48 8b 05 47 8a 00 00 	mov    0x8a47(%rip),%rax        # 251d0 <g_2722+0x10>
   1c789:	c1 e0 03             	shl    $0x3,%eax
   1c78c:	c1 f8 03             	sar    $0x3,%eax
   1c78f:	48 98                	cltq   
   1c791:	8b 55 f4             	mov    -0xc(%rbp),%edx
   1c794:	48 8d 35 c5 46 00 00 	lea    0x46c5(%rip),%rsi        # 20e60 <g_5046+0x1740>
   1c79b:	48 89 c7             	mov    %rax,%rdi
   1c79e:	e8 50 1f ff ff       	callq  e6f3 <transparent_crc>
   1c7a3:	48 8b 05 26 8a 00 00 	mov    0x8a26(%rip),%rax        # 251d0 <g_2722+0x10>
   1c7aa:	48 c1 e0 04          	shl    $0x4,%rax
   1c7ae:	48 c1 f8 24          	sar    $0x24,%rax
   1c7b2:	48 98                	cltq   
   1c7b4:	8b 55 f4             	mov    -0xc(%rbp),%edx
   1c7b7:	48 8d 35 ac 46 00 00 	lea    0x46ac(%rip),%rsi        # 20e6a <g_5046+0x174a>
   1c7be:	48 89 c7             	mov    %rax,%rdi
   1c7c1:	e8 2d 1f ff ff       	callq  e6f3 <transparent_crc>
   1c7c6:	48 8b 05 13 8a 00 00 	mov    0x8a13(%rip),%rax        # 251e0 <g_2730>
   1c7cd:	c1 e0 0d             	shl    $0xd,%eax
   1c7d0:	c1 f8 0d             	sar    $0xd,%eax
   1c7d3:	48 98                	cltq   
   1c7d5:	8b 55 f4             	mov    -0xc(%rbp),%edx
   1c7d8:	48 8d 35 95 46 00 00 	lea    0x4695(%rip),%rsi        # 20e74 <g_5046+0x1754>
   1c7df:	48 89 c7             	mov    %rax,%rdi
   1c7e2:	e8 0c 1f ff ff       	callq  e6f3 <transparent_crc>
   1c7e7:	8b 05 f7 89 00 00    	mov    0x89f7(%rip),%eax        # 251e4 <g_2730+0x4>
   1c7ed:	c1 e0 02             	shl    $0x2,%eax
   1c7f0:	c1 f8 02             	sar    $0x2,%eax
   1c7f3:	48 98                	cltq   
   1c7f5:	8b 55 f4             	mov    -0xc(%rbp),%edx
   1c7f8:	48 8d 35 7f 46 00 00 	lea    0x467f(%rip),%rsi        # 20e7e <g_5046+0x175e>
   1c7ff:	48 89 c7             	mov    %rax,%rdi
   1c802:	e8 ec 1e ff ff       	callq  e6f3 <transparent_crc>
   1c807:	0f b7 05 da 89 00 00 	movzwl 0x89da(%rip),%eax        # 251e8 <g_2730+0x8>
   1c80e:	c1 e0 07             	shl    $0x7,%eax
   1c811:	66 c1 f8 07          	sar    $0x7,%ax
   1c815:	48 0f bf c0          	movswq %ax,%rax
   1c819:	8b 55 f4             	mov    -0xc(%rbp),%edx
   1c81c:	48 8d 35 65 46 00 00 	lea    0x4665(%rip),%rsi        # 20e88 <g_5046+0x1768>
   1c823:	48 89 c7             	mov    %rax,%rdi
   1c826:	e8 c8 1e ff ff       	callq  e6f3 <transparent_crc>
   1c82b:	8b 05 b7 89 00 00    	mov    0x89b7(%rip),%eax        # 251e8 <g_2730+0x8>
   1c831:	c1 e0 07             	shl    $0x7,%eax
   1c834:	c1 f8 10             	sar    $0x10,%eax
   1c837:	48 0f bf c0          	movswq %ax,%rax
   1c83b:	8b 55 f4             	mov    -0xc(%rbp),%edx
   1c83e:	48 8d 35 4d 46 00 00 	lea    0x464d(%rip),%rsi        # 20e92 <g_5046+0x1772>
   1c845:	48 89 c7             	mov    %rax,%rdi
   1c848:	e8 a6 1e ff ff       	callq  e6f3 <transparent_crc>
   1c84d:	0f b6 05 97 89 00 00 	movzbl 0x8997(%rip),%eax        # 251eb <g_2730+0xb>
   1c854:	c1 e0 06             	shl    $0x6,%eax
   1c857:	c0 f8 07             	sar    $0x7,%al
   1c85a:	48 0f be c0          	movsbq %al,%rax
   1c85e:	8b 55 f4             	mov    -0xc(%rbp),%edx
   1c861:	48 8d 35 34 46 00 00 	lea    0x4634(%rip),%rsi        # 20e9c <g_5046+0x177c>
   1c868:	48 89 c7             	mov    %rax,%rdi
   1c86b:	e8 83 1e ff ff       	callq  e6f3 <transparent_crc>
   1c870:	8b 05 76 89 00 00    	mov    0x8976(%rip),%eax        # 251ec <g_2730+0xc>
   1c876:	25 ff ff 3f 00       	and    $0x3fffff,%eax
   1c87b:	89 c1                	mov    %eax,%ecx
   1c87d:	8b 45 f4             	mov    -0xc(%rbp),%eax
   1c880:	89 c2                	mov    %eax,%edx
   1c882:	48 8d 35 1d 46 00 00 	lea    0x461d(%rip),%rsi        # 20ea6 <g_5046+0x1786>
   1c889:	48 89 cf             	mov    %rcx,%rdi
   1c88c:	e8 62 1e ff ff       	callq  e6f3 <transparent_crc>
   1c891:	48 8b 05 58 89 00 00 	mov    0x8958(%rip),%rax        # 251f0 <g_2730+0x10>
   1c898:	c1 e0 03             	shl    $0x3,%eax
   1c89b:	c1 f8 03             	sar    $0x3,%eax
   1c89e:	48 98                	cltq   
   1c8a0:	8b 55 f4             	mov    -0xc(%rbp),%edx
   1c8a3:	48 8d 35 06 46 00 00 	lea    0x4606(%rip),%rsi        # 20eb0 <g_5046+0x1790>
   1c8aa:	48 89 c7             	mov    %rax,%rdi
   1c8ad:	e8 41 1e ff ff       	callq  e6f3 <transparent_crc>
   1c8b2:	8b 05 3c 89 00 00    	mov    0x893c(%rip),%eax        # 251f4 <g_2730+0x14>
   1c8b8:	c1 e0 04             	shl    $0x4,%eax
   1c8bb:	c1 f8 04             	sar    $0x4,%eax
   1c8be:	48 98                	cltq   
   1c8c0:	8b 55 f4             	mov    -0xc(%rbp),%edx
   1c8c3:	48 8d 35 f0 45 00 00 	lea    0x45f0(%rip),%rsi        # 20eba <g_5046+0x179a>
   1c8ca:	48 89 c7             	mov    %rax,%rdi
   1c8cd:	e8 21 1e ff ff       	callq  e6f3 <transparent_crc>
   1c8d2:	8b 05 20 89 00 00    	mov    0x8920(%rip),%eax        # 251f8 <g_2757>
   1c8d8:	48 98                	cltq   
   1c8da:	8b 55 f4             	mov    -0xc(%rbp),%edx
   1c8dd:	48 8d 35 e0 45 00 00 	lea    0x45e0(%rip),%rsi        # 20ec4 <g_5046+0x17a4>
   1c8e4:	48 89 c7             	mov    %rax,%rdi
   1c8e7:	e8 07 1e ff ff       	callq  e6f3 <transparent_crc>
   1c8ec:	48 8b 05 0d 89 00 00 	mov    0x890d(%rip),%rax        # 25200 <g_2797>
   1c8f3:	48 89 c1             	mov    %rax,%rcx
   1c8f6:	8b 45 f4             	mov    -0xc(%rbp),%eax
   1c8f9:	89 c2                	mov    %eax,%edx
   1c8fb:	48 8d 35 c9 45 00 00 	lea    0x45c9(%rip),%rsi        # 20ecb <g_5046+0x17ab>
   1c902:	48 89 cf             	mov    %rcx,%rdi
   1c905:	e8 e9 1d ff ff       	callq  e6f3 <transparent_crc>
   1c90a:	0f b7 05 f7 88 00 00 	movzwl 0x88f7(%rip),%eax        # 25208 <g_2860>
   1c911:	48 0f bf c0          	movswq %ax,%rax
   1c915:	8b 55 f4             	mov    -0xc(%rbp),%edx
   1c918:	48 8d 35 b3 45 00 00 	lea    0x45b3(%rip),%rsi        # 20ed2 <g_5046+0x17b2>
   1c91f:	48 89 c7             	mov    %rax,%rdi
   1c922:	e8 cc 1d ff ff       	callq  e6f3 <transparent_crc>
   1c927:	8b 05 df 88 00 00    	mov    0x88df(%rip),%eax        # 2520c <g_3016>
   1c92d:	89 c1                	mov    %eax,%ecx
   1c92f:	8b 45 f4             	mov    -0xc(%rbp),%eax
   1c932:	89 c2                	mov    %eax,%edx
   1c934:	48 8d 35 9e 45 00 00 	lea    0x459e(%rip),%rsi        # 20ed9 <g_5046+0x17b9>
   1c93b:	48 89 cf             	mov    %rcx,%rdi
   1c93e:	e8 b0 1d ff ff       	callq  e6f3 <transparent_crc>
   1c943:	48 8b 05 c6 88 00 00 	mov    0x88c6(%rip),%rax        # 25210 <g_3103>
   1c94a:	8b 55 f4             	mov    -0xc(%rbp),%edx
   1c94d:	48 8d 35 8c 45 00 00 	lea    0x458c(%rip),%rsi        # 20ee0 <g_5046+0x17c0>
   1c954:	48 89 c7             	mov    %rax,%rdi
   1c957:	e8 97 1d ff ff       	callq  e6f3 <transparent_crc>
   1c95c:	8b 05 b6 88 00 00    	mov    0x88b6(%rip),%eax        # 25218 <g_3124>
   1c962:	89 c1                	mov    %eax,%ecx
   1c964:	8b 45 f4             	mov    -0xc(%rbp),%eax
   1c967:	89 c2                	mov    %eax,%edx
   1c969:	48 8d 35 77 45 00 00 	lea    0x4577(%rip),%rsi        # 20ee7 <g_5046+0x17c7>
   1c970:	48 89 cf             	mov    %rcx,%rdi
   1c973:	e8 7b 1d ff ff       	callq  e6f3 <transparent_crc>
   1c978:	48 8b 05 a1 88 00 00 	mov    0x88a1(%rip),%rax        # 25220 <g_3179>
   1c97f:	c1 e0 0d             	shl    $0xd,%eax
   1c982:	c1 f8 0d             	sar    $0xd,%eax
   1c985:	48 98                	cltq   
   1c987:	8b 55 f4             	mov    -0xc(%rbp),%edx
   1c98a:	48 8d 35 5d 45 00 00 	lea    0x455d(%rip),%rsi        # 20eee <g_5046+0x17ce>
   1c991:	48 89 c7             	mov    %rax,%rdi
   1c994:	e8 5a 1d ff ff       	callq  e6f3 <transparent_crc>
   1c999:	48 8b 05 80 88 00 00 	mov    0x8880(%rip),%rax        # 25220 <g_3179>
   1c9a0:	48 c1 e0 02          	shl    $0x2,%rax
   1c9a4:	48 c1 f8 22          	sar    $0x22,%rax
   1c9a8:	48 98                	cltq   
   1c9aa:	8b 55 f4             	mov    -0xc(%rbp),%edx
   1c9ad:	48 8d 35 44 45 00 00 	lea    0x4544(%rip),%rsi        # 20ef8 <g_5046+0x17d8>
   1c9b4:	48 89 c7             	mov    %rax,%rdi
   1c9b7:	e8 37 1d ff ff       	callq  e6f3 <transparent_crc>
   1c9bc:	48 8b 05 65 88 00 00 	mov    0x8865(%rip),%rax        # 25228 <g_3179+0x8>
   1c9c3:	c1 e0 07             	shl    $0x7,%eax
   1c9c6:	66 c1 f8 07          	sar    $0x7,%ax
   1c9ca:	48 0f bf c0          	movswq %ax,%rax
   1c9ce:	8b 55 f4             	mov    -0xc(%rbp),%edx
   1c9d1:	48 8d 35 2a 45 00 00 	lea    0x452a(%rip),%rsi        # 20f02 <g_5046+0x17e2>
   1c9d8:	48 89 c7             	mov    %rax,%rdi
   1c9db:	e8 13 1d ff ff       	callq  e6f3 <transparent_crc>
   1c9e0:	48 8b 05 41 88 00 00 	mov    0x8841(%rip),%rax        # 25228 <g_3179+0x8>
   1c9e7:	c1 e0 07             	shl    $0x7,%eax
   1c9ea:	c1 f8 10             	sar    $0x10,%eax
   1c9ed:	48 0f bf c0          	movswq %ax,%rax
   1c9f1:	8b 55 f4             	mov    -0xc(%rbp),%edx
   1c9f4:	48 8d 35 11 45 00 00 	lea    0x4511(%rip),%rsi        # 20f0c <g_5046+0x17ec>
   1c9fb:	48 89 c7             	mov    %rax,%rdi
   1c9fe:	e8 f0 1c ff ff       	callq  e6f3 <transparent_crc>
   1ca03:	48 8b 05 1e 88 00 00 	mov    0x881e(%rip),%rax        # 25228 <g_3179+0x8>
   1ca0a:	c1 e0 06             	shl    $0x6,%eax
   1ca0d:	c1 f8 1f             	sar    $0x1f,%eax
   1ca10:	48 0f be c0          	movsbq %al,%rax
   1ca14:	8b 55 f4             	mov    -0xc(%rbp),%edx
   1ca17:	48 8d 35 f8 44 00 00 	lea    0x44f8(%rip),%rsi        # 20f16 <g_5046+0x17f6>
   1ca1e:	48 89 c7             	mov    %rax,%rdi
   1ca21:	e8 cd 1c ff ff       	callq  e6f3 <transparent_crc>
   1ca26:	48 8b 05 fb 87 00 00 	mov    0x87fb(%rip),%rax        # 25228 <g_3179+0x8>
   1ca2d:	48 c1 e8 20          	shr    $0x20,%rax
   1ca31:	25 ff ff 3f 00       	and    $0x3fffff,%eax
   1ca36:	89 c1                	mov    %eax,%ecx
   1ca38:	8b 45 f4             	mov    -0xc(%rbp),%eax
   1ca3b:	89 c2                	mov    %eax,%edx
   1ca3d:	48 8d 35 dc 44 00 00 	lea    0x44dc(%rip),%rsi        # 20f20 <g_5046+0x1800>
   1ca44:	48 89 cf             	mov    %rcx,%rdi
   1ca47:	e8 a7 1c ff ff       	callq  e6f3 <transparent_crc>
   1ca4c:	48 8b 05 dd 87 00 00 	mov    0x87dd(%rip),%rax        # 25230 <g_3179+0x10>
   1ca53:	c1 e0 03             	shl    $0x3,%eax
   1ca56:	c1 f8 03             	sar    $0x3,%eax
   1ca59:	48 98                	cltq   
   1ca5b:	8b 55 f4             	mov    -0xc(%rbp),%edx
   1ca5e:	48 8d 35 c5 44 00 00 	lea    0x44c5(%rip),%rsi        # 20f2a <g_5046+0x180a>
   1ca65:	48 89 c7             	mov    %rax,%rdi
   1ca68:	e8 86 1c ff ff       	callq  e6f3 <transparent_crc>
   1ca6d:	48 8b 05 bc 87 00 00 	mov    0x87bc(%rip),%rax        # 25230 <g_3179+0x10>
   1ca74:	48 c1 e0 04          	shl    $0x4,%rax
   1ca78:	48 c1 f8 24          	sar    $0x24,%rax
   1ca7c:	48 98                	cltq   
   1ca7e:	8b 55 f4             	mov    -0xc(%rbp),%edx
   1ca81:	48 8d 35 ac 44 00 00 	lea    0x44ac(%rip),%rsi        # 20f34 <g_5046+0x1814>
   1ca88:	48 89 c7             	mov    %rax,%rdi
   1ca8b:	e8 63 1c ff ff       	callq  e6f3 <transparent_crc>
   1ca90:	48 8b 05 a9 87 00 00 	mov    0x87a9(%rip),%rax        # 25240 <g_3555>
   1ca97:	c1 e0 0d             	shl    $0xd,%eax
   1ca9a:	c1 f8 0d             	sar    $0xd,%eax
   1ca9d:	48 98                	cltq   
   1ca9f:	8b 55 f4             	mov    -0xc(%rbp),%edx
   1caa2:	48 8d 35 95 44 00 00 	lea    0x4495(%rip),%rsi        # 20f3e <g_5046+0x181e>
   1caa9:	48 89 c7             	mov    %rax,%rdi
   1caac:	e8 42 1c ff ff       	callq  e6f3 <transparent_crc>
   1cab1:	48 8b 05 88 87 00 00 	mov    0x8788(%rip),%rax        # 25240 <g_3555>
   1cab8:	48 c1 e0 02          	shl    $0x2,%rax
   1cabc:	48 c1 f8 22          	sar    $0x22,%rax
   1cac0:	48 98                	cltq   
   1cac2:	8b 55 f4             	mov    -0xc(%rbp),%edx
   1cac5:	48 8d 35 7c 44 00 00 	lea    0x447c(%rip),%rsi        # 20f48 <g_5046+0x1828>
   1cacc:	48 89 c7             	mov    %rax,%rdi
   1cacf:	e8 1f 1c ff ff       	callq  e6f3 <transparent_crc>
   1cad4:	48 8b 05 6d 87 00 00 	mov    0x876d(%rip),%rax        # 25248 <g_3555+0x8>
   1cadb:	c1 e0 07             	shl    $0x7,%eax
   1cade:	66 c1 f8 07          	sar    $0x7,%ax
   1cae2:	48 0f bf c0          	movswq %ax,%rax
   1cae6:	8b 55 f4             	mov    -0xc(%rbp),%edx
   1cae9:	48 8d 35 62 44 00 00 	lea    0x4462(%rip),%rsi        # 20f52 <g_5046+0x1832>
   1caf0:	48 89 c7             	mov    %rax,%rdi
   1caf3:	e8 fb 1b ff ff       	callq  e6f3 <transparent_crc>
   1caf8:	48 8b 05 49 87 00 00 	mov    0x8749(%rip),%rax        # 25248 <g_3555+0x8>
   1caff:	c1 e0 07             	shl    $0x7,%eax
   1cb02:	c1 f8 10             	sar    $0x10,%eax
   1cb05:	48 0f bf c0          	movswq %ax,%rax
   1cb09:	8b 55 f4             	mov    -0xc(%rbp),%edx
   1cb0c:	48 8d 35 49 44 00 00 	lea    0x4449(%rip),%rsi        # 20f5c <g_5046+0x183c>
   1cb13:	48 89 c7             	mov    %rax,%rdi
   1cb16:	e8 d8 1b ff ff       	callq  e6f3 <transparent_crc>
   1cb1b:	48 8b 05 26 87 00 00 	mov    0x8726(%rip),%rax        # 25248 <g_3555+0x8>
   1cb22:	c1 e0 06             	shl    $0x6,%eax
   1cb25:	c1 f8 1f             	sar    $0x1f,%eax
   1cb28:	48 0f be c0          	movsbq %al,%rax
   1cb2c:	8b 55 f4             	mov    -0xc(%rbp),%edx
   1cb2f:	48 8d 35 30 44 00 00 	lea    0x4430(%rip),%rsi        # 20f66 <g_5046+0x1846>
   1cb36:	48 89 c7             	mov    %rax,%rdi
   1cb39:	e8 b5 1b ff ff       	callq  e6f3 <transparent_crc>
   1cb3e:	48 8b 05 03 87 00 00 	mov    0x8703(%rip),%rax        # 25248 <g_3555+0x8>
   1cb45:	48 c1 e8 20          	shr    $0x20,%rax
   1cb49:	25 ff ff 3f 00       	and    $0x3fffff,%eax
   1cb4e:	89 c1                	mov    %eax,%ecx
   1cb50:	8b 45 f4             	mov    -0xc(%rbp),%eax
   1cb53:	89 c2                	mov    %eax,%edx
   1cb55:	48 8d 35 14 44 00 00 	lea    0x4414(%rip),%rsi        # 20f70 <g_5046+0x1850>
   1cb5c:	48 89 cf             	mov    %rcx,%rdi
   1cb5f:	e8 8f 1b ff ff       	callq  e6f3 <transparent_crc>
   1cb64:	48 8b 05 e5 86 00 00 	mov    0x86e5(%rip),%rax        # 25250 <g_3555+0x10>
   1cb6b:	c1 e0 03             	shl    $0x3,%eax
   1cb6e:	c1 f8 03             	sar    $0x3,%eax
   1cb71:	48 98                	cltq   
   1cb73:	8b 55 f4             	mov    -0xc(%rbp),%edx
   1cb76:	48 8d 35 fd 43 00 00 	lea    0x43fd(%rip),%rsi        # 20f7a <g_5046+0x185a>
   1cb7d:	48 89 c7             	mov    %rax,%rdi
   1cb80:	e8 6e 1b ff ff       	callq  e6f3 <transparent_crc>
   1cb85:	48 8b 05 c4 86 00 00 	mov    0x86c4(%rip),%rax        # 25250 <g_3555+0x10>
   1cb8c:	48 c1 e0 04          	shl    $0x4,%rax
   1cb90:	48 c1 f8 24          	sar    $0x24,%rax
   1cb94:	48 98                	cltq   
   1cb96:	8b 55 f4             	mov    -0xc(%rbp),%edx
   1cb99:	48 8d 35 e4 43 00 00 	lea    0x43e4(%rip),%rsi        # 20f84 <g_5046+0x1864>
   1cba0:	48 89 c7             	mov    %rax,%rdi
   1cba3:	e8 4b 1b ff ff       	callq  e6f3 <transparent_crc>
   1cba8:	48 8b 05 a9 86 00 00 	mov    0x86a9(%rip),%rax        # 25258 <g_3560>
   1cbaf:	8b 55 f4             	mov    -0xc(%rbp),%edx
   1cbb2:	48 8d 35 d5 43 00 00 	lea    0x43d5(%rip),%rsi        # 20f8e <g_5046+0x186e>
   1cbb9:	48 89 c7             	mov    %rax,%rdi
   1cbbc:	e8 32 1b ff ff       	callq  e6f3 <transparent_crc>
   1cbc1:	48 8b 05 98 86 00 00 	mov    0x8698(%rip),%rax        # 25260 <g_3574>
   1cbc8:	c1 e0 0d             	shl    $0xd,%eax
   1cbcb:	c1 f8 0d             	sar    $0xd,%eax
   1cbce:	48 98                	cltq   
   1cbd0:	8b 55 f4             	mov    -0xc(%rbp),%edx
   1cbd3:	48 8d 35 bb 43 00 00 	lea    0x43bb(%rip),%rsi        # 20f95 <g_5046+0x1875>
   1cbda:	48 89 c7             	mov    %rax,%rdi
   1cbdd:	e8 11 1b ff ff       	callq  e6f3 <transparent_crc>
   1cbe2:	48 8b 05 77 86 00 00 	mov    0x8677(%rip),%rax        # 25260 <g_3574>
   1cbe9:	48 c1 e0 02          	shl    $0x2,%rax
   1cbed:	48 c1 f8 22          	sar    $0x22,%rax
   1cbf1:	48 98                	cltq   
   1cbf3:	8b 55 f4             	mov    -0xc(%rbp),%edx
   1cbf6:	48 8d 35 a2 43 00 00 	lea    0x43a2(%rip),%rsi        # 20f9f <g_5046+0x187f>
   1cbfd:	48 89 c7             	mov    %rax,%rdi
   1cc00:	e8 ee 1a ff ff       	callq  e6f3 <transparent_crc>
   1cc05:	48 8b 05 5c 86 00 00 	mov    0x865c(%rip),%rax        # 25268 <g_3574+0x8>
   1cc0c:	c1 e0 07             	shl    $0x7,%eax
   1cc0f:	66 c1 f8 07          	sar    $0x7,%ax
   1cc13:	48 0f bf c0          	movswq %ax,%rax
   1cc17:	8b 55 f4             	mov    -0xc(%rbp),%edx
   1cc1a:	48 8d 35 88 43 00 00 	lea    0x4388(%rip),%rsi        # 20fa9 <g_5046+0x1889>
   1cc21:	48 89 c7             	mov    %rax,%rdi
   1cc24:	e8 ca 1a ff ff       	callq  e6f3 <transparent_crc>
   1cc29:	48 8b 05 38 86 00 00 	mov    0x8638(%rip),%rax        # 25268 <g_3574+0x8>
   1cc30:	c1 e0 07             	shl    $0x7,%eax
   1cc33:	c1 f8 10             	sar    $0x10,%eax
   1cc36:	48 0f bf c0          	movswq %ax,%rax
   1cc3a:	8b 55 f4             	mov    -0xc(%rbp),%edx
   1cc3d:	48 8d 35 6f 43 00 00 	lea    0x436f(%rip),%rsi        # 20fb3 <g_5046+0x1893>
   1cc44:	48 89 c7             	mov    %rax,%rdi
   1cc47:	e8 a7 1a ff ff       	callq  e6f3 <transparent_crc>
   1cc4c:	48 8b 05 15 86 00 00 	mov    0x8615(%rip),%rax        # 25268 <g_3574+0x8>
   1cc53:	c1 e0 06             	shl    $0x6,%eax
   1cc56:	c1 f8 1f             	sar    $0x1f,%eax
   1cc59:	48 0f be c0          	movsbq %al,%rax
   1cc5d:	8b 55 f4             	mov    -0xc(%rbp),%edx
   1cc60:	48 8d 35 56 43 00 00 	lea    0x4356(%rip),%rsi        # 20fbd <g_5046+0x189d>
   1cc67:	48 89 c7             	mov    %rax,%rdi
   1cc6a:	e8 84 1a ff ff       	callq  e6f3 <transparent_crc>
   1cc6f:	48 8b 05 f2 85 00 00 	mov    0x85f2(%rip),%rax        # 25268 <g_3574+0x8>
   1cc76:	48 c1 e8 20          	shr    $0x20,%rax
   1cc7a:	25 ff ff 3f 00       	and    $0x3fffff,%eax
   1cc7f:	89 c1                	mov    %eax,%ecx
   1cc81:	8b 45 f4             	mov    -0xc(%rbp),%eax
   1cc84:	89 c2                	mov    %eax,%edx
   1cc86:	48 8d 35 3a 43 00 00 	lea    0x433a(%rip),%rsi        # 20fc7 <g_5046+0x18a7>
   1cc8d:	48 89 cf             	mov    %rcx,%rdi
   1cc90:	e8 5e 1a ff ff       	callq  e6f3 <transparent_crc>
   1cc95:	48 8b 05 d4 85 00 00 	mov    0x85d4(%rip),%rax        # 25270 <g_3574+0x10>
   1cc9c:	c1 e0 03             	shl    $0x3,%eax
   1cc9f:	c1 f8 03             	sar    $0x3,%eax
   1cca2:	48 98                	cltq   
   1cca4:	8b 55 f4             	mov    -0xc(%rbp),%edx
   1cca7:	48 8d 35 23 43 00 00 	lea    0x4323(%rip),%rsi        # 20fd1 <g_5046+0x18b1>
   1ccae:	48 89 c7             	mov    %rax,%rdi
   1ccb1:	e8 3d 1a ff ff       	callq  e6f3 <transparent_crc>
   1ccb6:	48 8b 05 b3 85 00 00 	mov    0x85b3(%rip),%rax        # 25270 <g_3574+0x10>
   1ccbd:	48 c1 e0 04          	shl    $0x4,%rax
   1ccc1:	48 c1 f8 24          	sar    $0x24,%rax
   1ccc5:	48 98                	cltq   
   1ccc7:	8b 55 f4             	mov    -0xc(%rbp),%edx
   1ccca:	48 8d 35 0a 43 00 00 	lea    0x430a(%rip),%rsi        # 20fdb <g_5046+0x18bb>
   1ccd1:	48 89 c7             	mov    %rax,%rdi
   1ccd4:	e8 1a 1a ff ff       	callq  e6f3 <transparent_crc>
   1ccd9:	48 8b 05 a0 85 00 00 	mov    0x85a0(%rip),%rax        # 25280 <g_3587>
   1cce0:	c1 e0 0d             	shl    $0xd,%eax
   1cce3:	c1 f8 0d             	sar    $0xd,%eax
   1cce6:	48 98                	cltq   
   1cce8:	8b 55 f4             	mov    -0xc(%rbp),%edx
   1cceb:	48 8d 35 f3 42 00 00 	lea    0x42f3(%rip),%rsi        # 20fe5 <g_5046+0x18c5>
   1ccf2:	48 89 c7             	mov    %rax,%rdi
   1ccf5:	e8 f9 19 ff ff       	callq  e6f3 <transparent_crc>
   1ccfa:	48 8b 05 7f 85 00 00 	mov    0x857f(%rip),%rax        # 25280 <g_3587>
   1cd01:	48 c1 e0 02          	shl    $0x2,%rax
   1cd05:	48 c1 f8 22          	sar    $0x22,%rax
   1cd09:	48 98                	cltq   
   1cd0b:	8b 55 f4             	mov    -0xc(%rbp),%edx
   1cd0e:	48 8d 35 da 42 00 00 	lea    0x42da(%rip),%rsi        # 20fef <g_5046+0x18cf>
   1cd15:	48 89 c7             	mov    %rax,%rdi
   1cd18:	e8 d6 19 ff ff       	callq  e6f3 <transparent_crc>
   1cd1d:	48 8b 05 64 85 00 00 	mov    0x8564(%rip),%rax        # 25288 <g_3587+0x8>
   1cd24:	c1 e0 07             	shl    $0x7,%eax
   1cd27:	66 c1 f8 07          	sar    $0x7,%ax
   1cd2b:	48 0f bf c0          	movswq %ax,%rax
   1cd2f:	8b 55 f4             	mov    -0xc(%rbp),%edx
   1cd32:	48 8d 35 c0 42 00 00 	lea    0x42c0(%rip),%rsi        # 20ff9 <g_5046+0x18d9>
   1cd39:	48 89 c7             	mov    %rax,%rdi
   1cd3c:	e8 b2 19 ff ff       	callq  e6f3 <transparent_crc>
   1cd41:	48 8b 05 40 85 00 00 	mov    0x8540(%rip),%rax        # 25288 <g_3587+0x8>
   1cd48:	c1 e0 07             	shl    $0x7,%eax
   1cd4b:	c1 f8 10             	sar    $0x10,%eax
   1cd4e:	48 0f bf c0          	movswq %ax,%rax
   1cd52:	8b 55 f4             	mov    -0xc(%rbp),%edx
   1cd55:	48 8d 35 a7 42 00 00 	lea    0x42a7(%rip),%rsi        # 21003 <g_5046+0x18e3>
   1cd5c:	48 89 c7             	mov    %rax,%rdi
   1cd5f:	e8 8f 19 ff ff       	callq  e6f3 <transparent_crc>
   1cd64:	48 8b 05 1d 85 00 00 	mov    0x851d(%rip),%rax        # 25288 <g_3587+0x8>
   1cd6b:	c1 e0 06             	shl    $0x6,%eax
   1cd6e:	c1 f8 1f             	sar    $0x1f,%eax
   1cd71:	48 0f be c0          	movsbq %al,%rax
   1cd75:	8b 55 f4             	mov    -0xc(%rbp),%edx
   1cd78:	48 8d 35 8e 42 00 00 	lea    0x428e(%rip),%rsi        # 2100d <g_5046+0x18ed>
   1cd7f:	48 89 c7             	mov    %rax,%rdi
   1cd82:	e8 6c 19 ff ff       	callq  e6f3 <transparent_crc>
   1cd87:	48 8b 05 fa 84 00 00 	mov    0x84fa(%rip),%rax        # 25288 <g_3587+0x8>
   1cd8e:	48 c1 e8 20          	shr    $0x20,%rax
   1cd92:	25 ff ff 3f 00       	and    $0x3fffff,%eax
   1cd97:	89 c1                	mov    %eax,%ecx
   1cd99:	8b 45 f4             	mov    -0xc(%rbp),%eax
   1cd9c:	89 c2                	mov    %eax,%edx
   1cd9e:	48 8d 35 72 42 00 00 	lea    0x4272(%rip),%rsi        # 21017 <g_5046+0x18f7>
   1cda5:	48 89 cf             	mov    %rcx,%rdi
   1cda8:	e8 46 19 ff ff       	callq  e6f3 <transparent_crc>
   1cdad:	48 8b 05 dc 84 00 00 	mov    0x84dc(%rip),%rax        # 25290 <g_3587+0x10>
   1cdb4:	c1 e0 03             	shl    $0x3,%eax
   1cdb7:	c1 f8 03             	sar    $0x3,%eax
   1cdba:	48 98                	cltq   
   1cdbc:	8b 55 f4             	mov    -0xc(%rbp),%edx
   1cdbf:	48 8d 35 5b 42 00 00 	lea    0x425b(%rip),%rsi        # 21021 <g_5046+0x1901>
   1cdc6:	48 89 c7             	mov    %rax,%rdi
   1cdc9:	e8 25 19 ff ff       	callq  e6f3 <transparent_crc>
   1cdce:	48 8b 05 bb 84 00 00 	mov    0x84bb(%rip),%rax        # 25290 <g_3587+0x10>
   1cdd5:	48 c1 e0 04          	shl    $0x4,%rax
   1cdd9:	48 c1 f8 24          	sar    $0x24,%rax
   1cddd:	48 98                	cltq   
   1cddf:	8b 55 f4             	mov    -0xc(%rbp),%edx
   1cde2:	48 8d 35 42 42 00 00 	lea    0x4242(%rip),%rsi        # 2102b <g_5046+0x190b>
   1cde9:	48 89 c7             	mov    %rax,%rdi
   1cdec:	e8 02 19 ff ff       	callq  e6f3 <transparent_crc>
   1cdf1:	8b 05 a1 84 00 00    	mov    0x84a1(%rip),%eax        # 25298 <g_3712>
   1cdf7:	48 98                	cltq   
   1cdf9:	8b 55 f4             	mov    -0xc(%rbp),%edx
   1cdfc:	48 8d 35 32 42 00 00 	lea    0x4232(%rip),%rsi        # 21035 <g_5046+0x1915>
   1ce03:	48 89 c7             	mov    %rax,%rdi
   1ce06:	e8 e8 18 ff ff       	callq  e6f3 <transparent_crc>
   1ce0b:	48 8b 05 8e 84 00 00 	mov    0x848e(%rip),%rax        # 252a0 <g_3765>
   1ce12:	8b 55 f4             	mov    -0xc(%rbp),%edx
   1ce15:	48 8d 35 20 42 00 00 	lea    0x4220(%rip),%rsi        # 2103c <g_5046+0x191c>
   1ce1c:	48 89 c7             	mov    %rax,%rdi
   1ce1f:	e8 cf 18 ff ff       	callq  e6f3 <transparent_crc>
   1ce24:	c7 45 e8 00 00 00 00 	movl   $0x0,-0x18(%rbp)
   1ce2b:	eb 46                	jmp    1ce73 <main+0x37c3>
   1ce2d:	8b 45 e8             	mov    -0x18(%rbp),%eax
   1ce30:	48 98                	cltq   
   1ce32:	48 8d 15 6f 84 00 00 	lea    0x846f(%rip),%rdx        # 252a8 <g_3798>
   1ce39:	0f b6 04 10          	movzbl (%rax,%rdx,1),%eax
   1ce3d:	48 0f be c0          	movsbq %al,%rax
   1ce41:	8b 55 f4             	mov    -0xc(%rbp),%edx
   1ce44:	48 8d 35 f8 41 00 00 	lea    0x41f8(%rip),%rsi        # 21043 <g_5046+0x1923>
   1ce4b:	48 89 c7             	mov    %rax,%rdi
   1ce4e:	e8 a0 18 ff ff       	callq  e6f3 <transparent_crc>
   1ce53:	83 7d f4 00          	cmpl   $0x0,-0xc(%rbp)
   1ce57:	74 16                	je     1ce6f <main+0x37bf>
   1ce59:	8b 45 e8             	mov    -0x18(%rbp),%eax
   1ce5c:	89 c6                	mov    %eax,%esi
   1ce5e:	48 8d 3d d1 35 00 00 	lea    0x35d1(%rip),%rdi        # 20436 <g_5046+0xd16>
   1ce65:	b8 00 00 00 00       	mov    $0x0,%eax
   1ce6a:	e8 11 02 ff ff       	callq  d080 <printf@plt>
   1ce6f:	83 45 e8 01          	addl   $0x1,-0x18(%rbp)
   1ce73:	83 7d e8 03          	cmpl   $0x3,-0x18(%rbp)
   1ce77:	7e b4                	jle    1ce2d <main+0x377d>
   1ce79:	c7 45 e8 00 00 00 00 	movl   $0x0,-0x18(%rbp)
   1ce80:	e9 cc 03 00 00       	jmpq   1d251 <main+0x3ba1>
   1ce85:	c7 45 ec 00 00 00 00 	movl   $0x0,-0x14(%rbp)
   1ce8c:	e9 b2 03 00 00       	jmpq   1d243 <main+0x3b93>
   1ce91:	c7 45 f0 00 00 00 00 	movl   $0x0,-0x10(%rbp)
   1ce98:	e9 98 03 00 00       	jmpq   1d235 <main+0x3b85>
   1ce9d:	8b 45 f0             	mov    -0x10(%rbp),%eax
   1cea0:	48 98                	cltq   
   1cea2:	8b 55 ec             	mov    -0x14(%rbp),%edx
   1cea5:	48 63 f2             	movslq %edx,%rsi
   1cea8:	8b 55 e8             	mov    -0x18(%rbp),%edx
   1ceab:	48 63 ca             	movslq %edx,%rcx
   1ceae:	48 89 c2             	mov    %rax,%rdx
   1ceb1:	48 01 d2             	add    %rdx,%rdx
   1ceb4:	48 01 c2             	add    %rax,%rdx
   1ceb7:	48 8d 04 d5 00 00 00 	lea    0x0(,%rdx,8),%rax
   1cebe:	00 
   1cebf:	48 89 c2             	mov    %rax,%rdx
   1cec2:	48 89 f0             	mov    %rsi,%rax
   1cec5:	48 01 c0             	add    %rax,%rax
   1cec8:	48 01 f0             	add    %rsi,%rax
   1cecb:	48 c1 e0 04          	shl    $0x4,%rax
   1cecf:	48 01 c2             	add    %rax,%rdx
   1ced2:	48 89 c8             	mov    %rcx,%rax
   1ced5:	48 c1 e0 03          	shl    $0x3,%rax
   1ced9:	48 01 c8             	add    %rcx,%rax
   1cedc:	48 c1 e0 04          	shl    $0x4,%rax
   1cee0:	48 01 c2             	add    %rax,%rdx
   1cee3:	48 8d 05 d6 83 00 00 	lea    0x83d6(%rip),%rax        # 252c0 <g_3880>
   1ceea:	48 01 d0             	add    %rdx,%rax
   1ceed:	48 8b 00             	mov    (%rax),%rax
   1cef0:	c1 e0 0d             	shl    $0xd,%eax
   1cef3:	c1 f8 0d             	sar    $0xd,%eax
   1cef6:	48 98                	cltq   
   1cef8:	8b 55 f4             	mov    -0xc(%rbp),%edx
   1cefb:	48 8d 35 4b 41 00 00 	lea    0x414b(%rip),%rsi        # 2104d <g_5046+0x192d>
   1cf02:	48 89 c7             	mov    %rax,%rdi
   1cf05:	e8 e9 17 ff ff       	callq  e6f3 <transparent_crc>
   1cf0a:	8b 45 f0             	mov    -0x10(%rbp),%eax
   1cf0d:	48 98                	cltq   
   1cf0f:	8b 55 ec             	mov    -0x14(%rbp),%edx
   1cf12:	48 63 f2             	movslq %edx,%rsi
   1cf15:	8b 55 e8             	mov    -0x18(%rbp),%edx
   1cf18:	48 63 ca             	movslq %edx,%rcx
   1cf1b:	48 89 c2             	mov    %rax,%rdx
   1cf1e:	48 01 d2             	add    %rdx,%rdx
   1cf21:	48 01 c2             	add    %rax,%rdx
   1cf24:	48 8d 04 d5 00 00 00 	lea    0x0(,%rdx,8),%rax
   1cf2b:	00 
   1cf2c:	48 89 c2             	mov    %rax,%rdx
   1cf2f:	48 89 f0             	mov    %rsi,%rax
   1cf32:	48 01 c0             	add    %rax,%rax
   1cf35:	48 01 f0             	add    %rsi,%rax
   1cf38:	48 c1 e0 04          	shl    $0x4,%rax
   1cf3c:	48 01 c2             	add    %rax,%rdx
   1cf3f:	48 89 c8             	mov    %rcx,%rax
   1cf42:	48 c1 e0 03          	shl    $0x3,%rax
   1cf46:	48 01 c8             	add    %rcx,%rax
   1cf49:	48 c1 e0 04          	shl    $0x4,%rax
   1cf4d:	48 01 c2             	add    %rax,%rdx
   1cf50:	48 8d 05 69 83 00 00 	lea    0x8369(%rip),%rax        # 252c0 <g_3880>
   1cf57:	48 01 d0             	add    %rdx,%rax
   1cf5a:	8b 40 04             	mov    0x4(%rax),%eax
   1cf5d:	c1 e0 02             	shl    $0x2,%eax
   1cf60:	c1 f8 02             	sar    $0x2,%eax
   1cf63:	48 98                	cltq   
   1cf65:	8b 55 f4             	mov    -0xc(%rbp),%edx
   1cf68:	48 8d 35 f1 40 00 00 	lea    0x40f1(%rip),%rsi        # 21060 <g_5046+0x1940>
   1cf6f:	48 89 c7             	mov    %rax,%rdi
   1cf72:	e8 7c 17 ff ff       	callq  e6f3 <transparent_crc>
   1cf77:	8b 45 f0             	mov    -0x10(%rbp),%eax
   1cf7a:	48 98                	cltq   
   1cf7c:	8b 55 ec             	mov    -0x14(%rbp),%edx
   1cf7f:	48 63 f2             	movslq %edx,%rsi
   1cf82:	8b 55 e8             	mov    -0x18(%rbp),%edx
   1cf85:	48 63 ca             	movslq %edx,%rcx
   1cf88:	48 89 c2             	mov    %rax,%rdx
   1cf8b:	48 01 d2             	add    %rdx,%rdx
   1cf8e:	48 01 c2             	add    %rax,%rdx
   1cf91:	48 8d 04 d5 00 00 00 	lea    0x0(,%rdx,8),%rax
   1cf98:	00 
   1cf99:	48 89 c2             	mov    %rax,%rdx
   1cf9c:	48 89 f0             	mov    %rsi,%rax
   1cf9f:	48 01 c0             	add    %rax,%rax
   1cfa2:	48 01 f0             	add    %rsi,%rax
   1cfa5:	48 c1 e0 04          	shl    $0x4,%rax
   1cfa9:	48 01 c2             	add    %rax,%rdx
   1cfac:	48 89 c8             	mov    %rcx,%rax
   1cfaf:	48 c1 e0 03          	shl    $0x3,%rax
   1cfb3:	48 01 c8             	add    %rcx,%rax
   1cfb6:	48 c1 e0 04          	shl    $0x4,%rax
   1cfba:	48 01 c2             	add    %rax,%rdx
   1cfbd:	48 8d 05 fc 82 00 00 	lea    0x82fc(%rip),%rax        # 252c0 <g_3880>
   1cfc4:	48 01 d0             	add    %rdx,%rax
   1cfc7:	0f b7 40 08          	movzwl 0x8(%rax),%eax
   1cfcb:	c1 e0 07             	shl    $0x7,%eax
   1cfce:	66 c1 f8 07          	sar    $0x7,%ax
   1cfd2:	48 0f bf c0          	movswq %ax,%rax
   1cfd6:	8b 55 f4             	mov    -0xc(%rbp),%edx
   1cfd9:	48 8d 35 93 40 00 00 	lea    0x4093(%rip),%rsi        # 21073 <g_5046+0x1953>
   1cfe0:	48 89 c7             	mov    %rax,%rdi
   1cfe3:	e8 0b 17 ff ff       	callq  e6f3 <transparent_crc>
   1cfe8:	8b 45 f0             	mov    -0x10(%rbp),%eax
   1cfeb:	48 98                	cltq   
   1cfed:	8b 55 ec             	mov    -0x14(%rbp),%edx
   1cff0:	48 63 f2             	movslq %edx,%rsi
   1cff3:	8b 55 e8             	mov    -0x18(%rbp),%edx
   1cff6:	48 63 ca             	movslq %edx,%rcx
   1cff9:	48 89 c2             	mov    %rax,%rdx
   1cffc:	48 01 d2             	add    %rdx,%rdx
   1cfff:	48 01 c2             	add    %rax,%rdx
   1d002:	48 8d 04 d5 00 00 00 	lea    0x0(,%rdx,8),%rax
   1d009:	00 
   1d00a:	48 89 c2             	mov    %rax,%rdx
   1d00d:	48 89 f0             	mov    %rsi,%rax
   1d010:	48 01 c0             	add    %rax,%rax
   1d013:	48 01 f0             	add    %rsi,%rax
   1d016:	48 c1 e0 04          	shl    $0x4,%rax
   1d01a:	48 01 c2             	add    %rax,%rdx
   1d01d:	48 89 c8             	mov    %rcx,%rax
   1d020:	48 c1 e0 03          	shl    $0x3,%rax
   1d024:	48 01 c8             	add    %rcx,%rax
   1d027:	48 c1 e0 04          	shl    $0x4,%rax
   1d02b:	48 01 c2             	add    %rax,%rdx
   1d02e:	48 8d 05 8b 82 00 00 	lea    0x828b(%rip),%rax        # 252c0 <g_3880>
   1d035:	48 01 d0             	add    %rdx,%rax
   1d038:	8b 40 08             	mov    0x8(%rax),%eax
   1d03b:	c1 e0 07             	shl    $0x7,%eax
   1d03e:	c1 f8 10             	sar    $0x10,%eax
   1d041:	48 0f bf c0          	movswq %ax,%rax
   1d045:	8b 55 f4             	mov    -0xc(%rbp),%edx
   1d048:	48 8d 35 37 40 00 00 	lea    0x4037(%rip),%rsi        # 21086 <g_5046+0x1966>
   1d04f:	48 89 c7             	mov    %rax,%rdi
   1d052:	e8 9c 16 ff ff       	callq  e6f3 <transparent_crc>
   1d057:	8b 45 f0             	mov    -0x10(%rbp),%eax
   1d05a:	48 98                	cltq   
   1d05c:	8b 55 ec             	mov    -0x14(%rbp),%edx
   1d05f:	48 63 f2             	movslq %edx,%rsi
   1d062:	8b 55 e8             	mov    -0x18(%rbp),%edx
   1d065:	48 63 ca             	movslq %edx,%rcx
   1d068:	48 89 c2             	mov    %rax,%rdx
   1d06b:	48 01 d2             	add    %rdx,%rdx
   1d06e:	48 01 c2             	add    %rax,%rdx
   1d071:	48 8d 04 d5 00 00 00 	lea    0x0(,%rdx,8),%rax
   1d078:	00 
   1d079:	48 89 c2             	mov    %rax,%rdx
   1d07c:	48 89 f0             	mov    %rsi,%rax
   1d07f:	48 01 c0             	add    %rax,%rax
   1d082:	48 01 f0             	add    %rsi,%rax
   1d085:	48 c1 e0 04          	shl    $0x4,%rax
   1d089:	48 01 c2             	add    %rax,%rdx
   1d08c:	48 89 c8             	mov    %rcx,%rax
   1d08f:	48 c1 e0 03          	shl    $0x3,%rax
   1d093:	48 01 c8             	add    %rcx,%rax
   1d096:	48 c1 e0 04          	shl    $0x4,%rax
   1d09a:	48 01 c2             	add    %rax,%rdx
   1d09d:	48 8d 05 1c 82 00 00 	lea    0x821c(%rip),%rax        # 252c0 <g_3880>
   1d0a4:	48 01 d0             	add    %rdx,%rax
   1d0a7:	0f b6 40 0b          	movzbl 0xb(%rax),%eax
   1d0ab:	c1 e0 06             	shl    $0x6,%eax
   1d0ae:	c0 f8 07             	sar    $0x7,%al
   1d0b1:	48 0f be c0          	movsbq %al,%rax
   1d0b5:	8b 55 f4             	mov    -0xc(%rbp),%edx
   1d0b8:	48 8d 35 da 3f 00 00 	lea    0x3fda(%rip),%rsi        # 21099 <g_5046+0x1979>
   1d0bf:	48 89 c7             	mov    %rax,%rdi
   1d0c2:	e8 2c 16 ff ff       	callq  e6f3 <transparent_crc>
   1d0c7:	8b 45 f0             	mov    -0x10(%rbp),%eax
   1d0ca:	48 98                	cltq   
   1d0cc:	8b 55 ec             	mov    -0x14(%rbp),%edx
   1d0cf:	48 63 f2             	movslq %edx,%rsi
   1d0d2:	8b 55 e8             	mov    -0x18(%rbp),%edx
   1d0d5:	48 63 ca             	movslq %edx,%rcx
   1d0d8:	48 89 c2             	mov    %rax,%rdx
   1d0db:	48 01 d2             	add    %rdx,%rdx
   1d0de:	48 01 c2             	add    %rax,%rdx
   1d0e1:	48 8d 04 d5 00 00 00 	lea    0x0(,%rdx,8),%rax
   1d0e8:	00 
   1d0e9:	48 89 c2             	mov    %rax,%rdx
   1d0ec:	48 89 f0             	mov    %rsi,%rax
   1d0ef:	48 01 c0             	add    %rax,%rax
   1d0f2:	48 01 f0             	add    %rsi,%rax
   1d0f5:	48 c1 e0 04          	shl    $0x4,%rax
   1d0f9:	48 01 c2             	add    %rax,%rdx
   1d0fc:	48 89 c8             	mov    %rcx,%rax
   1d0ff:	48 c1 e0 03          	shl    $0x3,%rax
   1d103:	48 01 c8             	add    %rcx,%rax
   1d106:	48 c1 e0 04          	shl    $0x4,%rax
   1d10a:	48 01 c2             	add    %rax,%rdx
   1d10d:	48 8d 05 ac 81 00 00 	lea    0x81ac(%rip),%rax        # 252c0 <g_3880>
   1d114:	48 01 d0             	add    %rdx,%rax
   1d117:	8b 40 0c             	mov    0xc(%rax),%eax
   1d11a:	25 ff ff 3f 00       	and    $0x3fffff,%eax
   1d11f:	89 c1                	mov    %eax,%ecx
   1d121:	8b 45 f4             	mov    -0xc(%rbp),%eax
   1d124:	89 c2                	mov    %eax,%edx
   1d126:	48 8d 35 7f 3f 00 00 	lea    0x3f7f(%rip),%rsi        # 210ac <g_5046+0x198c>
   1d12d:	48 89 cf             	mov    %rcx,%rdi
   1d130:	e8 be 15 ff ff       	callq  e6f3 <transparent_crc>
   1d135:	8b 45 f0             	mov    -0x10(%rbp),%eax
   1d138:	48 98                	cltq   
   1d13a:	8b 55 ec             	mov    -0x14(%rbp),%edx
   1d13d:	48 63 ca             	movslq %edx,%rcx
   1d140:	8b 55 e8             	mov    -0x18(%rbp),%edx
   1d143:	48 63 f2             	movslq %edx,%rsi
   1d146:	48 89 c2             	mov    %rax,%rdx
   1d149:	48 01 d2             	add    %rdx,%rdx
   1d14c:	48 01 c2             	add    %rax,%rdx
   1d14f:	48 8d 04 d5 00 00 00 	lea    0x0(,%rdx,8),%rax
   1d156:	00 
   1d157:	48 89 c2             	mov    %rax,%rdx
   1d15a:	48 89 f0             	mov    %rsi,%rax
   1d15d:	48 c1 e0 03          	shl    $0x3,%rax
   1d161:	48 01 f0             	add    %rsi,%rax
   1d164:	48 c1 e0 04          	shl    $0x4,%rax
   1d168:	48 01 c2             	add    %rax,%rdx
   1d16b:	48 89 c8             	mov    %rcx,%rax
   1d16e:	48 01 c0             	add    %rax,%rax
   1d171:	48 01 c8             	add    %rcx,%rax
   1d174:	48 c1 e0 04          	shl    $0x4,%rax
   1d178:	48 01 c2             	add    %rax,%rdx
   1d17b:	48 8d 05 4e 81 00 00 	lea    0x814e(%rip),%rax        # 252d0 <g_3880+0x10>
   1d182:	48 01 d0             	add    %rdx,%rax
   1d185:	48 8b 00             	mov    (%rax),%rax
   1d188:	c1 e0 03             	shl    $0x3,%eax
   1d18b:	c1 f8 03             	sar    $0x3,%eax
   1d18e:	48 98                	cltq   
   1d190:	8b 55 f4             	mov    -0xc(%rbp),%edx
   1d193:	48 8d 35 25 3f 00 00 	lea    0x3f25(%rip),%rsi        # 210bf <g_5046+0x199f>
   1d19a:	48 89 c7             	mov    %rax,%rdi
   1d19d:	e8 51 15 ff ff       	callq  e6f3 <transparent_crc>
   1d1a2:	8b 45 f0             	mov    -0x10(%rbp),%eax
   1d1a5:	48 98                	cltq   
   1d1a7:	8b 55 ec             	mov    -0x14(%rbp),%edx
   1d1aa:	48 63 ca             	movslq %edx,%rcx
   1d1ad:	8b 55 e8             	mov    -0x18(%rbp),%edx
   1d1b0:	48 63 f2             	movslq %edx,%rsi
   1d1b3:	48 89 c2             	mov    %rax,%rdx
   1d1b6:	48 01 d2             	add    %rdx,%rdx
   1d1b9:	48 01 c2             	add    %rax,%rdx
   1d1bc:	48 8d 04 d5 00 00 00 	lea    0x0(,%rdx,8),%rax
   1d1c3:	00 
   1d1c4:	48 89 c2             	mov    %rax,%rdx
   1d1c7:	48 89 f0             	mov    %rsi,%rax
   1d1ca:	48 c1 e0 03          	shl    $0x3,%rax
   1d1ce:	48 01 f0             	add    %rsi,%rax
   1d1d1:	48 c1 e0 04          	shl    $0x4,%rax
   1d1d5:	48 01 c2             	add    %rax,%rdx
   1d1d8:	48 89 c8             	mov    %rcx,%rax
   1d1db:	48 01 c0             	add    %rax,%rax
   1d1de:	48 01 c8             	add    %rcx,%rax
   1d1e1:	48 c1 e0 04          	shl    $0x4,%rax
   1d1e5:	48 01 c2             	add    %rax,%rdx
   1d1e8:	48 8d 05 e1 80 00 00 	lea    0x80e1(%rip),%rax        # 252d0 <g_3880+0x10>
   1d1ef:	48 01 d0             	add    %rdx,%rax
   1d1f2:	8b 40 04             	mov    0x4(%rax),%eax
   1d1f5:	c1 e0 04             	shl    $0x4,%eax
   1d1f8:	c1 f8 04             	sar    $0x4,%eax
   1d1fb:	48 98                	cltq   
   1d1fd:	8b 55 f4             	mov    -0xc(%rbp),%edx
   1d200:	48 8d 35 cb 3e 00 00 	lea    0x3ecb(%rip),%rsi        # 210d2 <g_5046+0x19b2>
   1d207:	48 89 c7             	mov    %rax,%rdi
   1d20a:	e8 e4 14 ff ff       	callq  e6f3 <transparent_crc>
   1d20f:	83 7d f4 00          	cmpl   $0x0,-0xc(%rbp)
   1d213:	74 1c                	je     1d231 <main+0x3b81>
   1d215:	8b 4d f0             	mov    -0x10(%rbp),%ecx
   1d218:	8b 55 ec             	mov    -0x14(%rbp),%edx
   1d21b:	8b 45 e8             	mov    -0x18(%rbp),%eax
   1d21e:	89 c6                	mov    %eax,%esi
   1d220:	48 8d 3d d0 33 00 00 	lea    0x33d0(%rip),%rdi        # 205f7 <g_5046+0xed7>
   1d227:	b8 00 00 00 00       	mov    $0x0,%eax
   1d22c:	e8 4f fe fe ff       	callq  d080 <printf@plt>
   1d231:	83 45 f0 01          	addl   $0x1,-0x10(%rbp)
   1d235:	83 7d f0 01          	cmpl   $0x1,-0x10(%rbp)
   1d239:	0f 8e 5e fc ff ff    	jle    1ce9d <main+0x37ed>
   1d23f:	83 45 ec 01          	addl   $0x1,-0x14(%rbp)
   1d243:	83 7d ec 02          	cmpl   $0x2,-0x14(%rbp)
   1d247:	0f 8e 44 fc ff ff    	jle    1ce91 <main+0x37e1>
   1d24d:	83 45 e8 01          	addl   $0x1,-0x18(%rbp)
   1d251:	83 7d e8 06          	cmpl   $0x6,-0x18(%rbp)
   1d255:	0f 8e 2a fc ff ff    	jle    1ce85 <main+0x37d5>
   1d25b:	c7 45 e8 00 00 00 00 	movl   $0x0,-0x18(%rbp)
   1d262:	eb 45                	jmp    1d2a9 <main+0x3bf9>
   1d264:	8b 45 e8             	mov    -0x18(%rbp),%eax
   1d267:	48 98                	cltq   
   1d269:	48 8d 15 40 84 00 00 	lea    0x8440(%rip),%rdx        # 256b0 <g_3934>
   1d270:	0f b6 04 10          	movzbl (%rax,%rdx,1),%eax
   1d274:	0f b6 c0             	movzbl %al,%eax
   1d277:	8b 55 f4             	mov    -0xc(%rbp),%edx
   1d27a:	48 8d 35 64 3e 00 00 	lea    0x3e64(%rip),%rsi        # 210e5 <g_5046+0x19c5>
   1d281:	48 89 c7             	mov    %rax,%rdi
   1d284:	e8 6a 14 ff ff       	callq  e6f3 <transparent_crc>
   1d289:	83 7d f4 00          	cmpl   $0x0,-0xc(%rbp)
   1d28d:	74 16                	je     1d2a5 <main+0x3bf5>
   1d28f:	8b 45 e8             	mov    -0x18(%rbp),%eax
   1d292:	89 c6                	mov    %eax,%esi
   1d294:	48 8d 3d 9b 31 00 00 	lea    0x319b(%rip),%rdi        # 20436 <g_5046+0xd16>
   1d29b:	b8 00 00 00 00       	mov    $0x0,%eax
   1d2a0:	e8 db fd fe ff       	callq  d080 <printf@plt>
   1d2a5:	83 45 e8 01          	addl   $0x1,-0x18(%rbp)
   1d2a9:	83 7d e8 06          	cmpl   $0x6,-0x18(%rbp)
   1d2ad:	7e b5                	jle    1d264 <main+0x3bb4>
   1d2af:	48 8b 05 0a 84 00 00 	mov    0x840a(%rip),%rax        # 256c0 <g_3938>
   1d2b6:	c1 e0 0d             	shl    $0xd,%eax
   1d2b9:	c1 f8 0d             	sar    $0xd,%eax
   1d2bc:	48 98                	cltq   
   1d2be:	8b 55 f4             	mov    -0xc(%rbp),%edx
   1d2c1:	48 8d 35 27 3e 00 00 	lea    0x3e27(%rip),%rsi        # 210ef <g_5046+0x19cf>
   1d2c8:	48 89 c7             	mov    %rax,%rdi
   1d2cb:	e8 23 14 ff ff       	callq  e6f3 <transparent_crc>
   1d2d0:	48 8b 05 e9 83 00 00 	mov    0x83e9(%rip),%rax        # 256c0 <g_3938>
   1d2d7:	48 c1 e0 02          	shl    $0x2,%rax
   1d2db:	48 c1 f8 22          	sar    $0x22,%rax
   1d2df:	48 98                	cltq   
   1d2e1:	8b 55 f4             	mov    -0xc(%rbp),%edx
   1d2e4:	48 8d 35 0e 3e 00 00 	lea    0x3e0e(%rip),%rsi        # 210f9 <g_5046+0x19d9>
   1d2eb:	48 89 c7             	mov    %rax,%rdi
   1d2ee:	e8 00 14 ff ff       	callq  e6f3 <transparent_crc>
   1d2f3:	48 8b 05 ce 83 00 00 	mov    0x83ce(%rip),%rax        # 256c8 <g_3938+0x8>
   1d2fa:	c1 e0 07             	shl    $0x7,%eax
   1d2fd:	66 c1 f8 07          	sar    $0x7,%ax
   1d301:	48 0f bf c0          	movswq %ax,%rax
   1d305:	8b 55 f4             	mov    -0xc(%rbp),%edx
   1d308:	48 8d 35 f4 3d 00 00 	lea    0x3df4(%rip),%rsi        # 21103 <g_5046+0x19e3>
   1d30f:	48 89 c7             	mov    %rax,%rdi
   1d312:	e8 dc 13 ff ff       	callq  e6f3 <transparent_crc>
   1d317:	48 8b 05 aa 83 00 00 	mov    0x83aa(%rip),%rax        # 256c8 <g_3938+0x8>
   1d31e:	c1 e0 07             	shl    $0x7,%eax
   1d321:	c1 f8 10             	sar    $0x10,%eax
   1d324:	48 0f bf c0          	movswq %ax,%rax
   1d328:	8b 55 f4             	mov    -0xc(%rbp),%edx
   1d32b:	48 8d 35 db 3d 00 00 	lea    0x3ddb(%rip),%rsi        # 2110d <g_5046+0x19ed>
   1d332:	48 89 c7             	mov    %rax,%rdi
   1d335:	e8 b9 13 ff ff       	callq  e6f3 <transparent_crc>
   1d33a:	48 8b 05 87 83 00 00 	mov    0x8387(%rip),%rax        # 256c8 <g_3938+0x8>
   1d341:	c1 e0 06             	shl    $0x6,%eax
   1d344:	c1 f8 1f             	sar    $0x1f,%eax
   1d347:	48 0f be c0          	movsbq %al,%rax
   1d34b:	8b 55 f4             	mov    -0xc(%rbp),%edx
   1d34e:	48 8d 35 c2 3d 00 00 	lea    0x3dc2(%rip),%rsi        # 21117 <g_5046+0x19f7>
   1d355:	48 89 c7             	mov    %rax,%rdi
   1d358:	e8 96 13 ff ff       	callq  e6f3 <transparent_crc>
   1d35d:	48 8b 05 64 83 00 00 	mov    0x8364(%rip),%rax        # 256c8 <g_3938+0x8>
   1d364:	48 c1 e8 20          	shr    $0x20,%rax
   1d368:	25 ff ff 3f 00       	and    $0x3fffff,%eax
   1d36d:	89 c1                	mov    %eax,%ecx
   1d36f:	8b 45 f4             	mov    -0xc(%rbp),%eax
   1d372:	89 c2                	mov    %eax,%edx
   1d374:	48 8d 35 a6 3d 00 00 	lea    0x3da6(%rip),%rsi        # 21121 <g_5046+0x1a01>
   1d37b:	48 89 cf             	mov    %rcx,%rdi
   1d37e:	e8 70 13 ff ff       	callq  e6f3 <transparent_crc>
   1d383:	48 8b 05 46 83 00 00 	mov    0x8346(%rip),%rax        # 256d0 <g_3938+0x10>
   1d38a:	c1 e0 03             	shl    $0x3,%eax
   1d38d:	c1 f8 03             	sar    $0x3,%eax
   1d390:	48 98                	cltq   
   1d392:	8b 55 f4             	mov    -0xc(%rbp),%edx
   1d395:	48 8d 35 8f 3d 00 00 	lea    0x3d8f(%rip),%rsi        # 2112b <g_5046+0x1a0b>
   1d39c:	48 89 c7             	mov    %rax,%rdi
   1d39f:	e8 4f 13 ff ff       	callq  e6f3 <transparent_crc>
   1d3a4:	48 8b 05 25 83 00 00 	mov    0x8325(%rip),%rax        # 256d0 <g_3938+0x10>
   1d3ab:	48 c1 e0 04          	shl    $0x4,%rax
   1d3af:	48 c1 f8 24          	sar    $0x24,%rax
   1d3b3:	48 98                	cltq   
   1d3b5:	8b 55 f4             	mov    -0xc(%rbp),%edx
   1d3b8:	48 8d 35 76 3d 00 00 	lea    0x3d76(%rip),%rsi        # 21135 <g_5046+0x1a15>
   1d3bf:	48 89 c7             	mov    %rax,%rdi
   1d3c2:	e8 2c 13 ff ff       	callq  e6f3 <transparent_crc>
   1d3c7:	48 8b 05 12 83 00 00 	mov    0x8312(%rip),%rax        # 256e0 <g_3960>
   1d3ce:	c1 e0 0d             	shl    $0xd,%eax
   1d3d1:	c1 f8 0d             	sar    $0xd,%eax
   1d3d4:	48 98                	cltq   
   1d3d6:	8b 55 f4             	mov    -0xc(%rbp),%edx
   1d3d9:	48 8d 35 5f 3d 00 00 	lea    0x3d5f(%rip),%rsi        # 2113f <g_5046+0x1a1f>
   1d3e0:	48 89 c7             	mov    %rax,%rdi
   1d3e3:	e8 0b 13 ff ff       	callq  e6f3 <transparent_crc>
   1d3e8:	48 8b 05 f1 82 00 00 	mov    0x82f1(%rip),%rax        # 256e0 <g_3960>
   1d3ef:	48 c1 e0 02          	shl    $0x2,%rax
   1d3f3:	48 c1 f8 22          	sar    $0x22,%rax
   1d3f7:	48 98                	cltq   
   1d3f9:	8b 55 f4             	mov    -0xc(%rbp),%edx
   1d3fc:	48 8d 35 46 3d 00 00 	lea    0x3d46(%rip),%rsi        # 21149 <g_5046+0x1a29>
   1d403:	48 89 c7             	mov    %rax,%rdi
   1d406:	e8 e8 12 ff ff       	callq  e6f3 <transparent_crc>
   1d40b:	48 8b 05 d6 82 00 00 	mov    0x82d6(%rip),%rax        # 256e8 <g_3960+0x8>
   1d412:	c1 e0 07             	shl    $0x7,%eax
   1d415:	66 c1 f8 07          	sar    $0x7,%ax
   1d419:	48 0f bf c0          	movswq %ax,%rax
   1d41d:	8b 55 f4             	mov    -0xc(%rbp),%edx
   1d420:	48 8d 35 2c 3d 00 00 	lea    0x3d2c(%rip),%rsi        # 21153 <g_5046+0x1a33>
   1d427:	48 89 c7             	mov    %rax,%rdi
   1d42a:	e8 c4 12 ff ff       	callq  e6f3 <transparent_crc>
   1d42f:	48 8b 05 b2 82 00 00 	mov    0x82b2(%rip),%rax        # 256e8 <g_3960+0x8>
   1d436:	c1 e0 07             	shl    $0x7,%eax
   1d439:	c1 f8 10             	sar    $0x10,%eax
   1d43c:	48 0f bf c0          	movswq %ax,%rax
   1d440:	8b 55 f4             	mov    -0xc(%rbp),%edx
   1d443:	48 8d 35 13 3d 00 00 	lea    0x3d13(%rip),%rsi        # 2115d <g_5046+0x1a3d>
   1d44a:	48 89 c7             	mov    %rax,%rdi
   1d44d:	e8 a1 12 ff ff       	callq  e6f3 <transparent_crc>
   1d452:	48 8b 05 8f 82 00 00 	mov    0x828f(%rip),%rax        # 256e8 <g_3960+0x8>
   1d459:	c1 e0 06             	shl    $0x6,%eax
   1d45c:	c1 f8 1f             	sar    $0x1f,%eax
   1d45f:	48 0f be c0          	movsbq %al,%rax
   1d463:	8b 55 f4             	mov    -0xc(%rbp),%edx
   1d466:	48 8d 35 fa 3c 00 00 	lea    0x3cfa(%rip),%rsi        # 21167 <g_5046+0x1a47>
   1d46d:	48 89 c7             	mov    %rax,%rdi
   1d470:	e8 7e 12 ff ff       	callq  e6f3 <transparent_crc>
   1d475:	48 8b 05 6c 82 00 00 	mov    0x826c(%rip),%rax        # 256e8 <g_3960+0x8>
   1d47c:	48 c1 e8 20          	shr    $0x20,%rax
   1d480:	25 ff ff 3f 00       	and    $0x3fffff,%eax
   1d485:	89 c1                	mov    %eax,%ecx
   1d487:	8b 45 f4             	mov    -0xc(%rbp),%eax
   1d48a:	89 c2                	mov    %eax,%edx
   1d48c:	48 8d 35 de 3c 00 00 	lea    0x3cde(%rip),%rsi        # 21171 <g_5046+0x1a51>
   1d493:	48 89 cf             	mov    %rcx,%rdi
   1d496:	e8 58 12 ff ff       	callq  e6f3 <transparent_crc>
   1d49b:	48 8b 05 4e 82 00 00 	mov    0x824e(%rip),%rax        # 256f0 <g_3960+0x10>
   1d4a2:	c1 e0 03             	shl    $0x3,%eax
   1d4a5:	c1 f8 03             	sar    $0x3,%eax
   1d4a8:	48 98                	cltq   
   1d4aa:	8b 55 f4             	mov    -0xc(%rbp),%edx
   1d4ad:	48 8d 35 c7 3c 00 00 	lea    0x3cc7(%rip),%rsi        # 2117b <g_5046+0x1a5b>
   1d4b4:	48 89 c7             	mov    %rax,%rdi
   1d4b7:	e8 37 12 ff ff       	callq  e6f3 <transparent_crc>
   1d4bc:	48 8b 05 2d 82 00 00 	mov    0x822d(%rip),%rax        # 256f0 <g_3960+0x10>
   1d4c3:	48 c1 e0 04          	shl    $0x4,%rax
   1d4c7:	48 c1 f8 24          	sar    $0x24,%rax
   1d4cb:	48 98                	cltq   
   1d4cd:	8b 55 f4             	mov    -0xc(%rbp),%edx
   1d4d0:	48 8d 35 ae 3c 00 00 	lea    0x3cae(%rip),%rsi        # 21185 <g_5046+0x1a65>
   1d4d7:	48 89 c7             	mov    %rax,%rdi
   1d4da:	e8 14 12 ff ff       	callq  e6f3 <transparent_crc>
   1d4df:	48 8b 05 1a 82 00 00 	mov    0x821a(%rip),%rax        # 25700 <g_4024>
   1d4e6:	c1 e0 0d             	shl    $0xd,%eax
   1d4e9:	c1 f8 0d             	sar    $0xd,%eax
   1d4ec:	48 98                	cltq   
   1d4ee:	8b 55 f4             	mov    -0xc(%rbp),%edx
   1d4f1:	48 8d 35 97 3c 00 00 	lea    0x3c97(%rip),%rsi        # 2118f <g_5046+0x1a6f>
   1d4f8:	48 89 c7             	mov    %rax,%rdi
   1d4fb:	e8 f3 11 ff ff       	callq  e6f3 <transparent_crc>
   1d500:	8b 05 fe 81 00 00    	mov    0x81fe(%rip),%eax        # 25704 <g_4024+0x4>
   1d506:	c1 e0 02             	shl    $0x2,%eax
   1d509:	c1 f8 02             	sar    $0x2,%eax
   1d50c:	48 98                	cltq   
   1d50e:	8b 55 f4             	mov    -0xc(%rbp),%edx
   1d511:	48 8d 35 81 3c 00 00 	lea    0x3c81(%rip),%rsi        # 21199 <g_5046+0x1a79>
   1d518:	48 89 c7             	mov    %rax,%rdi
   1d51b:	e8 d3 11 ff ff       	callq  e6f3 <transparent_crc>
   1d520:	0f b7 05 e1 81 00 00 	movzwl 0x81e1(%rip),%eax        # 25708 <g_4024+0x8>
   1d527:	c1 e0 07             	shl    $0x7,%eax
   1d52a:	66 c1 f8 07          	sar    $0x7,%ax
   1d52e:	48 0f bf c0          	movswq %ax,%rax
   1d532:	8b 55 f4             	mov    -0xc(%rbp),%edx
   1d535:	48 8d 35 67 3c 00 00 	lea    0x3c67(%rip),%rsi        # 211a3 <g_5046+0x1a83>
   1d53c:	48 89 c7             	mov    %rax,%rdi
   1d53f:	e8 af 11 ff ff       	callq  e6f3 <transparent_crc>
   1d544:	8b 05 be 81 00 00    	mov    0x81be(%rip),%eax        # 25708 <g_4024+0x8>
   1d54a:	c1 e0 07             	shl    $0x7,%eax
   1d54d:	c1 f8 10             	sar    $0x10,%eax
   1d550:	48 0f bf c0          	movswq %ax,%rax
   1d554:	8b 55 f4             	mov    -0xc(%rbp),%edx
   1d557:	48 8d 35 4f 3c 00 00 	lea    0x3c4f(%rip),%rsi        # 211ad <g_5046+0x1a8d>
   1d55e:	48 89 c7             	mov    %rax,%rdi
   1d561:	e8 8d 11 ff ff       	callq  e6f3 <transparent_crc>
   1d566:	0f b6 05 9e 81 00 00 	movzbl 0x819e(%rip),%eax        # 2570b <g_4024+0xb>
   1d56d:	c1 e0 06             	shl    $0x6,%eax
   1d570:	c0 f8 07             	sar    $0x7,%al
   1d573:	48 0f be c0          	movsbq %al,%rax
   1d577:	8b 55 f4             	mov    -0xc(%rbp),%edx
   1d57a:	48 8d 35 36 3c 00 00 	lea    0x3c36(%rip),%rsi        # 211b7 <g_5046+0x1a97>
   1d581:	48 89 c7             	mov    %rax,%rdi
   1d584:	e8 6a 11 ff ff       	callq  e6f3 <transparent_crc>
   1d589:	8b 05 7d 81 00 00    	mov    0x817d(%rip),%eax        # 2570c <g_4024+0xc>
   1d58f:	25 ff ff 3f 00       	and    $0x3fffff,%eax
   1d594:	89 c1                	mov    %eax,%ecx
   1d596:	8b 45 f4             	mov    -0xc(%rbp),%eax
   1d599:	89 c2                	mov    %eax,%edx
   1d59b:	48 8d 35 1f 3c 00 00 	lea    0x3c1f(%rip),%rsi        # 211c1 <g_5046+0x1aa1>
   1d5a2:	48 89 cf             	mov    %rcx,%rdi
   1d5a5:	e8 49 11 ff ff       	callq  e6f3 <transparent_crc>
   1d5aa:	48 8b 05 5f 81 00 00 	mov    0x815f(%rip),%rax        # 25710 <g_4024+0x10>
   1d5b1:	c1 e0 03             	shl    $0x3,%eax
   1d5b4:	c1 f8 03             	sar    $0x3,%eax
   1d5b7:	48 98                	cltq   
   1d5b9:	8b 55 f4             	mov    -0xc(%rbp),%edx
   1d5bc:	48 8d 35 08 3c 00 00 	lea    0x3c08(%rip),%rsi        # 211cb <g_5046+0x1aab>
   1d5c3:	48 89 c7             	mov    %rax,%rdi
   1d5c6:	e8 28 11 ff ff       	callq  e6f3 <transparent_crc>
   1d5cb:	8b 05 43 81 00 00    	mov    0x8143(%rip),%eax        # 25714 <g_4024+0x14>
   1d5d1:	c1 e0 04             	shl    $0x4,%eax
   1d5d4:	c1 f8 04             	sar    $0x4,%eax
   1d5d7:	48 98                	cltq   
   1d5d9:	8b 55 f4             	mov    -0xc(%rbp),%edx
   1d5dc:	48 8d 35 f2 3b 00 00 	lea    0x3bf2(%rip),%rsi        # 211d5 <g_5046+0x1ab5>
   1d5e3:	48 89 c7             	mov    %rax,%rdi
   1d5e6:	e8 08 11 ff ff       	callq  e6f3 <transparent_crc>
   1d5eb:	8b 05 df db 00 00    	mov    0xdbdf(%rip),%eax        # 2b1d0 <g_4079>
   1d5f1:	89 c1                	mov    %eax,%ecx
   1d5f3:	8b 45 f4             	mov    -0xc(%rbp),%eax
   1d5f6:	89 c2                	mov    %eax,%edx
   1d5f8:	48 8d 35 e0 3b 00 00 	lea    0x3be0(%rip),%rsi        # 211df <g_5046+0x1abf>
   1d5ff:	48 89 cf             	mov    %rcx,%rdi
   1d602:	e8 ec 10 ff ff       	callq  e6f3 <transparent_crc>
   1d607:	48 8b 05 12 81 00 00 	mov    0x8112(%rip),%rax        # 25720 <g_4466>
   1d60e:	c1 e0 0d             	shl    $0xd,%eax
   1d611:	c1 f8 0d             	sar    $0xd,%eax
   1d614:	48 98                	cltq   
   1d616:	8b 55 f4             	mov    -0xc(%rbp),%edx
   1d619:	48 8d 35 c6 3b 00 00 	lea    0x3bc6(%rip),%rsi        # 211e6 <g_5046+0x1ac6>
   1d620:	48 89 c7             	mov    %rax,%rdi
   1d623:	e8 cb 10 ff ff       	callq  e6f3 <transparent_crc>
   1d628:	8b 05 f6 80 00 00    	mov    0x80f6(%rip),%eax        # 25724 <g_4466+0x4>
   1d62e:	c1 e0 02             	shl    $0x2,%eax
   1d631:	c1 f8 02             	sar    $0x2,%eax
   1d634:	48 98                	cltq   
   1d636:	8b 55 f4             	mov    -0xc(%rbp),%edx
   1d639:	48 8d 35 b0 3b 00 00 	lea    0x3bb0(%rip),%rsi        # 211f0 <g_5046+0x1ad0>
   1d640:	48 89 c7             	mov    %rax,%rdi
   1d643:	e8 ab 10 ff ff       	callq  e6f3 <transparent_crc>
   1d648:	0f b7 05 d9 80 00 00 	movzwl 0x80d9(%rip),%eax        # 25728 <g_4466+0x8>
   1d64f:	c1 e0 07             	shl    $0x7,%eax
   1d652:	66 c1 f8 07          	sar    $0x7,%ax
   1d656:	48 0f bf c0          	movswq %ax,%rax
   1d65a:	8b 55 f4             	mov    -0xc(%rbp),%edx
   1d65d:	48 8d 35 96 3b 00 00 	lea    0x3b96(%rip),%rsi        # 211fa <g_5046+0x1ada>
   1d664:	48 89 c7             	mov    %rax,%rdi
   1d667:	e8 87 10 ff ff       	callq  e6f3 <transparent_crc>
   1d66c:	8b 05 b6 80 00 00    	mov    0x80b6(%rip),%eax        # 25728 <g_4466+0x8>
   1d672:	c1 e0 07             	shl    $0x7,%eax
   1d675:	c1 f8 10             	sar    $0x10,%eax
   1d678:	48 0f bf c0          	movswq %ax,%rax
   1d67c:	8b 55 f4             	mov    -0xc(%rbp),%edx
   1d67f:	48 8d 35 7e 3b 00 00 	lea    0x3b7e(%rip),%rsi        # 21204 <g_5046+0x1ae4>
   1d686:	48 89 c7             	mov    %rax,%rdi
   1d689:	e8 65 10 ff ff       	callq  e6f3 <transparent_crc>
   1d68e:	0f b6 05 96 80 00 00 	movzbl 0x8096(%rip),%eax        # 2572b <g_4466+0xb>
   1d695:	c1 e0 06             	shl    $0x6,%eax
   1d698:	c0 f8 07             	sar    $0x7,%al
   1d69b:	48 0f be c0          	movsbq %al,%rax
   1d69f:	8b 55 f4             	mov    -0xc(%rbp),%edx
   1d6a2:	48 8d 35 65 3b 00 00 	lea    0x3b65(%rip),%rsi        # 2120e <g_5046+0x1aee>
   1d6a9:	48 89 c7             	mov    %rax,%rdi
   1d6ac:	e8 42 10 ff ff       	callq  e6f3 <transparent_crc>
   1d6b1:	8b 05 75 80 00 00    	mov    0x8075(%rip),%eax        # 2572c <g_4466+0xc>
   1d6b7:	25 ff ff 3f 00       	and    $0x3fffff,%eax
   1d6bc:	89 c1                	mov    %eax,%ecx
   1d6be:	8b 45 f4             	mov    -0xc(%rbp),%eax
   1d6c1:	89 c2                	mov    %eax,%edx
   1d6c3:	48 8d 35 4e 3b 00 00 	lea    0x3b4e(%rip),%rsi        # 21218 <g_5046+0x1af8>
   1d6ca:	48 89 cf             	mov    %rcx,%rdi
   1d6cd:	e8 21 10 ff ff       	callq  e6f3 <transparent_crc>
   1d6d2:	48 8b 05 57 80 00 00 	mov    0x8057(%rip),%rax        # 25730 <g_4466+0x10>
   1d6d9:	c1 e0 03             	shl    $0x3,%eax
   1d6dc:	c1 f8 03             	sar    $0x3,%eax
   1d6df:	48 98                	cltq   
   1d6e1:	8b 55 f4             	mov    -0xc(%rbp),%edx
   1d6e4:	48 8d 35 37 3b 00 00 	lea    0x3b37(%rip),%rsi        # 21222 <g_5046+0x1b02>
   1d6eb:	48 89 c7             	mov    %rax,%rdi
   1d6ee:	e8 00 10 ff ff       	callq  e6f3 <transparent_crc>
   1d6f3:	8b 05 3b 80 00 00    	mov    0x803b(%rip),%eax        # 25734 <g_4466+0x14>
   1d6f9:	c1 e0 04             	shl    $0x4,%eax
   1d6fc:	c1 f8 04             	sar    $0x4,%eax
   1d6ff:	48 98                	cltq   
   1d701:	8b 55 f4             	mov    -0xc(%rbp),%edx
   1d704:	48 8d 35 21 3b 00 00 	lea    0x3b21(%rip),%rsi        # 2122c <g_5046+0x1b0c>
   1d70b:	48 89 c7             	mov    %rax,%rdi
   1d70e:	e8 e0 0f ff ff       	callq  e6f3 <transparent_crc>
   1d713:	8b 05 1f 80 00 00    	mov    0x801f(%rip),%eax        # 25738 <g_4545>
   1d719:	48 98                	cltq   
   1d71b:	8b 55 f4             	mov    -0xc(%rbp),%edx
   1d71e:	48 8d 35 11 3b 00 00 	lea    0x3b11(%rip),%rsi        # 21236 <g_5046+0x1b16>
   1d725:	48 89 c7             	mov    %rax,%rdi
   1d728:	e8 c6 0f ff ff       	callq  e6f3 <transparent_crc>
   1d72d:	0f b6 05 08 80 00 00 	movzbl 0x8008(%rip),%eax        # 2573c <g_4564>
   1d734:	0f b6 c0             	movzbl %al,%eax
   1d737:	8b 55 f4             	mov    -0xc(%rbp),%edx
   1d73a:	48 8d 35 fc 3a 00 00 	lea    0x3afc(%rip),%rsi        # 2123d <g_5046+0x1b1d>
   1d741:	48 89 c7             	mov    %rax,%rdi
   1d744:	e8 aa 0f ff ff       	callq  e6f3 <transparent_crc>
   1d749:	8b 05 f1 7f 00 00    	mov    0x7ff1(%rip),%eax        # 25740 <g_4572>
   1d74f:	48 98                	cltq   
   1d751:	8b 55 f4             	mov    -0xc(%rbp),%edx
   1d754:	48 8d 35 e9 3a 00 00 	lea    0x3ae9(%rip),%rsi        # 21244 <g_5046+0x1b24>
   1d75b:	48 89 c7             	mov    %rax,%rdi
   1d75e:	e8 90 0f ff ff       	callq  e6f3 <transparent_crc>
   1d763:	48 8b 05 e6 7f 00 00 	mov    0x7fe6(%rip),%rax        # 25750 <g_4623>
   1d76a:	c1 e0 0d             	shl    $0xd,%eax
   1d76d:	c1 f8 0d             	sar    $0xd,%eax
   1d770:	48 98                	cltq   
   1d772:	8b 55 f4             	mov    -0xc(%rbp),%edx
   1d775:	48 8d 35 cf 3a 00 00 	lea    0x3acf(%rip),%rsi        # 2124b <g_5046+0x1b2b>
   1d77c:	48 89 c7             	mov    %rax,%rdi
   1d77f:	e8 6f 0f ff ff       	callq  e6f3 <transparent_crc>
   1d784:	8b 05 ca 7f 00 00    	mov    0x7fca(%rip),%eax        # 25754 <g_4623+0x4>
   1d78a:	c1 e0 02             	shl    $0x2,%eax
   1d78d:	c1 f8 02             	sar    $0x2,%eax
   1d790:	48 98                	cltq   
   1d792:	8b 55 f4             	mov    -0xc(%rbp),%edx
   1d795:	48 8d 35 b9 3a 00 00 	lea    0x3ab9(%rip),%rsi        # 21255 <g_5046+0x1b35>
   1d79c:	48 89 c7             	mov    %rax,%rdi
   1d79f:	e8 4f 0f ff ff       	callq  e6f3 <transparent_crc>
   1d7a4:	0f b7 05 ad 7f 00 00 	movzwl 0x7fad(%rip),%eax        # 25758 <g_4623+0x8>
   1d7ab:	c1 e0 07             	shl    $0x7,%eax
   1d7ae:	66 c1 f8 07          	sar    $0x7,%ax
   1d7b2:	48 0f bf c0          	movswq %ax,%rax
   1d7b6:	8b 55 f4             	mov    -0xc(%rbp),%edx
   1d7b9:	48 8d 35 9f 3a 00 00 	lea    0x3a9f(%rip),%rsi        # 2125f <g_5046+0x1b3f>
   1d7c0:	48 89 c7             	mov    %rax,%rdi
   1d7c3:	e8 2b 0f ff ff       	callq  e6f3 <transparent_crc>
   1d7c8:	8b 05 8a 7f 00 00    	mov    0x7f8a(%rip),%eax        # 25758 <g_4623+0x8>
   1d7ce:	c1 e0 07             	shl    $0x7,%eax
   1d7d1:	c1 f8 10             	sar    $0x10,%eax
   1d7d4:	48 0f bf c0          	movswq %ax,%rax
   1d7d8:	8b 55 f4             	mov    -0xc(%rbp),%edx
   1d7db:	48 8d 35 87 3a 00 00 	lea    0x3a87(%rip),%rsi        # 21269 <g_5046+0x1b49>
   1d7e2:	48 89 c7             	mov    %rax,%rdi
   1d7e5:	e8 09 0f ff ff       	callq  e6f3 <transparent_crc>
   1d7ea:	0f b6 05 6a 7f 00 00 	movzbl 0x7f6a(%rip),%eax        # 2575b <g_4623+0xb>
   1d7f1:	c1 e0 06             	shl    $0x6,%eax
   1d7f4:	c0 f8 07             	sar    $0x7,%al
   1d7f7:	48 0f be c0          	movsbq %al,%rax
   1d7fb:	8b 55 f4             	mov    -0xc(%rbp),%edx
   1d7fe:	48 8d 35 6e 3a 00 00 	lea    0x3a6e(%rip),%rsi        # 21273 <g_5046+0x1b53>
   1d805:	48 89 c7             	mov    %rax,%rdi
   1d808:	e8 e6 0e ff ff       	callq  e6f3 <transparent_crc>
   1d80d:	8b 05 49 7f 00 00    	mov    0x7f49(%rip),%eax        # 2575c <g_4623+0xc>
   1d813:	25 ff ff 3f 00       	and    $0x3fffff,%eax
   1d818:	89 c1                	mov    %eax,%ecx
   1d81a:	8b 45 f4             	mov    -0xc(%rbp),%eax
   1d81d:	89 c2                	mov    %eax,%edx
   1d81f:	48 8d 35 57 3a 00 00 	lea    0x3a57(%rip),%rsi        # 2127d <g_5046+0x1b5d>
   1d826:	48 89 cf             	mov    %rcx,%rdi
   1d829:	e8 c5 0e ff ff       	callq  e6f3 <transparent_crc>
   1d82e:	48 8b 05 2b 7f 00 00 	mov    0x7f2b(%rip),%rax        # 25760 <g_4623+0x10>
   1d835:	c1 e0 03             	shl    $0x3,%eax
   1d838:	c1 f8 03             	sar    $0x3,%eax
   1d83b:	48 98                	cltq   
   1d83d:	8b 55 f4             	mov    -0xc(%rbp),%edx
   1d840:	48 8d 35 40 3a 00 00 	lea    0x3a40(%rip),%rsi        # 21287 <g_5046+0x1b67>
   1d847:	48 89 c7             	mov    %rax,%rdi
   1d84a:	e8 a4 0e ff ff       	callq  e6f3 <transparent_crc>
   1d84f:	8b 05 0f 7f 00 00    	mov    0x7f0f(%rip),%eax        # 25764 <g_4623+0x14>
   1d855:	c1 e0 04             	shl    $0x4,%eax
   1d858:	c1 f8 04             	sar    $0x4,%eax
   1d85b:	48 98                	cltq   
   1d85d:	8b 55 f4             	mov    -0xc(%rbp),%edx
   1d860:	48 8d 35 2a 3a 00 00 	lea    0x3a2a(%rip),%rsi        # 21291 <g_5046+0x1b71>
   1d867:	48 89 c7             	mov    %rax,%rdi
   1d86a:	e8 84 0e ff ff       	callq  e6f3 <transparent_crc>
   1d86f:	48 8b 05 fa 7e 00 00 	mov    0x7efa(%rip),%rax        # 25770 <g_4662>
   1d876:	c1 e0 0d             	shl    $0xd,%eax
   1d879:	c1 f8 0d             	sar    $0xd,%eax
   1d87c:	48 98                	cltq   
   1d87e:	8b 55 f4             	mov    -0xc(%rbp),%edx
   1d881:	48 8d 35 13 3a 00 00 	lea    0x3a13(%rip),%rsi        # 2129b <g_5046+0x1b7b>
   1d888:	48 89 c7             	mov    %rax,%rdi
   1d88b:	e8 63 0e ff ff       	callq  e6f3 <transparent_crc>
   1d890:	8b 05 de 7e 00 00    	mov    0x7ede(%rip),%eax        # 25774 <g_4662+0x4>
   1d896:	c1 e0 02             	shl    $0x2,%eax
   1d899:	c1 f8 02             	sar    $0x2,%eax
   1d89c:	48 98                	cltq   
   1d89e:	8b 55 f4             	mov    -0xc(%rbp),%edx
   1d8a1:	48 8d 35 fd 39 00 00 	lea    0x39fd(%rip),%rsi        # 212a5 <g_5046+0x1b85>
   1d8a8:	48 89 c7             	mov    %rax,%rdi
   1d8ab:	e8 43 0e ff ff       	callq  e6f3 <transparent_crc>
   1d8b0:	0f b7 05 c1 7e 00 00 	movzwl 0x7ec1(%rip),%eax        # 25778 <g_4662+0x8>
   1d8b7:	c1 e0 07             	shl    $0x7,%eax
   1d8ba:	66 c1 f8 07          	sar    $0x7,%ax
   1d8be:	48 0f bf c0          	movswq %ax,%rax
   1d8c2:	8b 55 f4             	mov    -0xc(%rbp),%edx
   1d8c5:	48 8d 35 e3 39 00 00 	lea    0x39e3(%rip),%rsi        # 212af <g_5046+0x1b8f>
   1d8cc:	48 89 c7             	mov    %rax,%rdi
   1d8cf:	e8 1f 0e ff ff       	callq  e6f3 <transparent_crc>
   1d8d4:	8b 05 9e 7e 00 00    	mov    0x7e9e(%rip),%eax        # 25778 <g_4662+0x8>
   1d8da:	c1 e0 07             	shl    $0x7,%eax
   1d8dd:	c1 f8 10             	sar    $0x10,%eax
   1d8e0:	48 0f bf c0          	movswq %ax,%rax
   1d8e4:	8b 55 f4             	mov    -0xc(%rbp),%edx
   1d8e7:	48 8d 35 cb 39 00 00 	lea    0x39cb(%rip),%rsi        # 212b9 <g_5046+0x1b99>
   1d8ee:	48 89 c7             	mov    %rax,%rdi
   1d8f1:	e8 fd 0d ff ff       	callq  e6f3 <transparent_crc>
   1d8f6:	0f b6 05 7e 7e 00 00 	movzbl 0x7e7e(%rip),%eax        # 2577b <g_4662+0xb>
   1d8fd:	c1 e0 06             	shl    $0x6,%eax
   1d900:	c0 f8 07             	sar    $0x7,%al
   1d903:	48 0f be c0          	movsbq %al,%rax
   1d907:	8b 55 f4             	mov    -0xc(%rbp),%edx
   1d90a:	48 8d 35 b2 39 00 00 	lea    0x39b2(%rip),%rsi        # 212c3 <g_5046+0x1ba3>
   1d911:	48 89 c7             	mov    %rax,%rdi
   1d914:	e8 da 0d ff ff       	callq  e6f3 <transparent_crc>
   1d919:	8b 05 5d 7e 00 00    	mov    0x7e5d(%rip),%eax        # 2577c <g_4662+0xc>
   1d91f:	25 ff ff 3f 00       	and    $0x3fffff,%eax
   1d924:	89 c1                	mov    %eax,%ecx
   1d926:	8b 45 f4             	mov    -0xc(%rbp),%eax
   1d929:	89 c2                	mov    %eax,%edx
   1d92b:	48 8d 35 9b 39 00 00 	lea    0x399b(%rip),%rsi        # 212cd <g_5046+0x1bad>
   1d932:	48 89 cf             	mov    %rcx,%rdi
   1d935:	e8 b9 0d ff ff       	callq  e6f3 <transparent_crc>
   1d93a:	48 8b 05 3f 7e 00 00 	mov    0x7e3f(%rip),%rax        # 25780 <g_4662+0x10>
   1d941:	c1 e0 03             	shl    $0x3,%eax
   1d944:	c1 f8 03             	sar    $0x3,%eax
   1d947:	48 98                	cltq   
   1d949:	8b 55 f4             	mov    -0xc(%rbp),%edx
   1d94c:	48 8d 35 84 39 00 00 	lea    0x3984(%rip),%rsi        # 212d7 <g_5046+0x1bb7>
   1d953:	48 89 c7             	mov    %rax,%rdi
   1d956:	e8 98 0d ff ff       	callq  e6f3 <transparent_crc>
   1d95b:	8b 05 23 7e 00 00    	mov    0x7e23(%rip),%eax        # 25784 <g_4662+0x14>
   1d961:	c1 e0 04             	shl    $0x4,%eax
   1d964:	c1 f8 04             	sar    $0x4,%eax
   1d967:	48 98                	cltq   
   1d969:	8b 55 f4             	mov    -0xc(%rbp),%edx
   1d96c:	48 8d 35 6e 39 00 00 	lea    0x396e(%rip),%rsi        # 212e1 <g_5046+0x1bc1>
   1d973:	48 89 c7             	mov    %rax,%rdi
   1d976:	e8 78 0d ff ff       	callq  e6f3 <transparent_crc>
   1d97b:	0f b6 05 06 7e 00 00 	movzbl 0x7e06(%rip),%eax        # 25788 <g_4697>
   1d982:	0f b6 c0             	movzbl %al,%eax
   1d985:	8b 55 f4             	mov    -0xc(%rbp),%edx
   1d988:	48 8d 35 5c 39 00 00 	lea    0x395c(%rip),%rsi        # 212eb <g_5046+0x1bcb>
   1d98f:	48 89 c7             	mov    %rax,%rdi
   1d992:	e8 5c 0d ff ff       	callq  e6f3 <transparent_crc>
   1d997:	c7 45 e8 00 00 00 00 	movl   $0x0,-0x18(%rbp)
   1d99e:	e9 0c 02 00 00       	jmpq   1dbaf <main+0x44ff>
   1d9a3:	8b 45 e8             	mov    -0x18(%rbp),%eax
   1d9a6:	48 63 d0             	movslq %eax,%rdx
   1d9a9:	48 89 d0             	mov    %rdx,%rax
   1d9ac:	48 01 c0             	add    %rax,%rax
   1d9af:	48 01 d0             	add    %rdx,%rax
   1d9b2:	48 c1 e0 03          	shl    $0x3,%rax
   1d9b6:	48 89 c2             	mov    %rax,%rdx
   1d9b9:	48 8d 05 e0 7d 00 00 	lea    0x7de0(%rip),%rax        # 257a0 <g_4700>
   1d9c0:	48 8b 04 02          	mov    (%rdx,%rax,1),%rax
   1d9c4:	c1 e0 0d             	shl    $0xd,%eax
   1d9c7:	c1 f8 0d             	sar    $0xd,%eax
   1d9ca:	48 98                	cltq   
   1d9cc:	8b 55 f4             	mov    -0xc(%rbp),%edx
   1d9cf:	48 8d 35 1c 39 00 00 	lea    0x391c(%rip),%rsi        # 212f2 <g_5046+0x1bd2>
   1d9d6:	48 89 c7             	mov    %rax,%rdi
   1d9d9:	e8 15 0d ff ff       	callq  e6f3 <transparent_crc>
   1d9de:	8b 45 e8             	mov    -0x18(%rbp),%eax
   1d9e1:	48 63 d0             	movslq %eax,%rdx
   1d9e4:	48 89 d0             	mov    %rdx,%rax
   1d9e7:	48 01 c0             	add    %rax,%rax
   1d9ea:	48 01 d0             	add    %rdx,%rax
   1d9ed:	48 c1 e0 03          	shl    $0x3,%rax
   1d9f1:	48 89 c2             	mov    %rax,%rdx
   1d9f4:	48 8d 05 a5 7d 00 00 	lea    0x7da5(%rip),%rax        # 257a0 <g_4700>
   1d9fb:	48 8b 04 02          	mov    (%rdx,%rax,1),%rax
   1d9ff:	48 c1 e0 02          	shl    $0x2,%rax
   1da03:	48 c1 f8 22          	sar    $0x22,%rax
   1da07:	48 98                	cltq   
   1da09:	8b 55 f4             	mov    -0xc(%rbp),%edx
   1da0c:	48 8d 35 ec 38 00 00 	lea    0x38ec(%rip),%rsi        # 212ff <g_5046+0x1bdf>
   1da13:	48 89 c7             	mov    %rax,%rdi
   1da16:	e8 d8 0c ff ff       	callq  e6f3 <transparent_crc>
   1da1b:	8b 45 e8             	mov    -0x18(%rbp),%eax
   1da1e:	48 63 d0             	movslq %eax,%rdx
   1da21:	48 89 d0             	mov    %rdx,%rax
   1da24:	48 01 c0             	add    %rax,%rax
   1da27:	48 01 d0             	add    %rdx,%rax
   1da2a:	48 c1 e0 03          	shl    $0x3,%rax
   1da2e:	48 89 c2             	mov    %rax,%rdx
   1da31:	48 8d 05 68 7d 00 00 	lea    0x7d68(%rip),%rax        # 257a0 <g_4700>
   1da38:	48 8b 44 02 08       	mov    0x8(%rdx,%rax,1),%rax
   1da3d:	c1 e0 07             	shl    $0x7,%eax
   1da40:	66 c1 f8 07          	sar    $0x7,%ax
   1da44:	48 0f bf c0          	movswq %ax,%rax
   1da48:	8b 55 f4             	mov    -0xc(%rbp),%edx
   1da4b:	48 8d 35 ba 38 00 00 	lea    0x38ba(%rip),%rsi        # 2130c <g_5046+0x1bec>
   1da52:	48 89 c7             	mov    %rax,%rdi
   1da55:	e8 99 0c ff ff       	callq  e6f3 <transparent_crc>
   1da5a:	8b 45 e8             	mov    -0x18(%rbp),%eax
   1da5d:	48 63 d0             	movslq %eax,%rdx
   1da60:	48 89 d0             	mov    %rdx,%rax
   1da63:	48 01 c0             	add    %rax,%rax
   1da66:	48 01 d0             	add    %rdx,%rax
   1da69:	48 c1 e0 03          	shl    $0x3,%rax
   1da6d:	48 89 c2             	mov    %rax,%rdx
   1da70:	48 8d 05 29 7d 00 00 	lea    0x7d29(%rip),%rax        # 257a0 <g_4700>
   1da77:	48 8b 44 02 08       	mov    0x8(%rdx,%rax,1),%rax
   1da7c:	c1 e0 07             	shl    $0x7,%eax
   1da7f:	c1 f8 10             	sar    $0x10,%eax
   1da82:	48 0f bf c0          	movswq %ax,%rax
   1da86:	8b 55 f4             	mov    -0xc(%rbp),%edx
   1da89:	48 8d 35 89 38 00 00 	lea    0x3889(%rip),%rsi        # 21319 <g_5046+0x1bf9>
   1da90:	48 89 c7             	mov    %rax,%rdi
   1da93:	e8 5b 0c ff ff       	callq  e6f3 <transparent_crc>
   1da98:	8b 45 e8             	mov    -0x18(%rbp),%eax
   1da9b:	48 63 d0             	movslq %eax,%rdx
   1da9e:	48 89 d0             	mov    %rdx,%rax
   1daa1:	48 01 c0             	add    %rax,%rax
   1daa4:	48 01 d0             	add    %rdx,%rax
   1daa7:	48 c1 e0 03          	shl    $0x3,%rax
   1daab:	48 89 c2             	mov    %rax,%rdx
   1daae:	48 8d 05 eb 7c 00 00 	lea    0x7ceb(%rip),%rax        # 257a0 <g_4700>
   1dab5:	48 8b 44 02 08       	mov    0x8(%rdx,%rax,1),%rax
   1daba:	c1 e0 06             	shl    $0x6,%eax
   1dabd:	c1 f8 1f             	sar    $0x1f,%eax
   1dac0:	48 0f be c0          	movsbq %al,%rax
   1dac4:	8b 55 f4             	mov    -0xc(%rbp),%edx
   1dac7:	48 8d 35 58 38 00 00 	lea    0x3858(%rip),%rsi        # 21326 <g_5046+0x1c06>
   1dace:	48 89 c7             	mov    %rax,%rdi
   1dad1:	e8 1d 0c ff ff       	callq  e6f3 <transparent_crc>
   1dad6:	8b 45 e8             	mov    -0x18(%rbp),%eax
   1dad9:	48 63 d0             	movslq %eax,%rdx
   1dadc:	48 89 d0             	mov    %rdx,%rax
   1dadf:	48 01 c0             	add    %rax,%rax
   1dae2:	48 01 d0             	add    %rdx,%rax
   1dae5:	48 c1 e0 03          	shl    $0x3,%rax
   1dae9:	48 89 c2             	mov    %rax,%rdx
   1daec:	48 8d 05 ad 7c 00 00 	lea    0x7cad(%rip),%rax        # 257a0 <g_4700>
   1daf3:	48 8b 44 02 08       	mov    0x8(%rdx,%rax,1),%rax
   1daf8:	48 c1 e8 20          	shr    $0x20,%rax
   1dafc:	25 ff ff 3f 00       	and    $0x3fffff,%eax
   1db01:	89 c1                	mov    %eax,%ecx
   1db03:	8b 45 f4             	mov    -0xc(%rbp),%eax
   1db06:	89 c2                	mov    %eax,%edx
   1db08:	48 8d 35 24 38 00 00 	lea    0x3824(%rip),%rsi        # 21333 <g_5046+0x1c13>
   1db0f:	48 89 cf             	mov    %rcx,%rdi
   1db12:	e8 dc 0b ff ff       	callq  e6f3 <transparent_crc>
   1db17:	8b 45 e8             	mov    -0x18(%rbp),%eax
   1db1a:	48 63 d0             	movslq %eax,%rdx
   1db1d:	48 89 d0             	mov    %rdx,%rax
   1db20:	48 01 c0             	add    %rax,%rax
   1db23:	48 01 d0             	add    %rdx,%rax
   1db26:	48 c1 e0 03          	shl    $0x3,%rax
   1db2a:	48 89 c2             	mov    %rax,%rdx
   1db2d:	48 8d 05 7c 7c 00 00 	lea    0x7c7c(%rip),%rax        # 257b0 <g_4700+0x10>
   1db34:	48 8b 04 02          	mov    (%rdx,%rax,1),%rax
   1db38:	c1 e0 03             	shl    $0x3,%eax
   1db3b:	c1 f8 03             	sar    $0x3,%eax
   1db3e:	48 98                	cltq   
   1db40:	8b 55 f4             	mov    -0xc(%rbp),%edx
   1db43:	48 8d 35 f6 37 00 00 	lea    0x37f6(%rip),%rsi        # 21340 <g_5046+0x1c20>
   1db4a:	48 89 c7             	mov    %rax,%rdi
   1db4d:	e8 a1 0b ff ff       	callq  e6f3 <transparent_crc>
   1db52:	8b 45 e8             	mov    -0x18(%rbp),%eax
   1db55:	48 63 d0             	movslq %eax,%rdx
   1db58:	48 89 d0             	mov    %rdx,%rax
   1db5b:	48 01 c0             	add    %rax,%rax
   1db5e:	48 01 d0             	add    %rdx,%rax
   1db61:	48 c1 e0 03          	shl    $0x3,%rax
   1db65:	48 89 c2             	mov    %rax,%rdx
   1db68:	48 8d 05 41 7c 00 00 	lea    0x7c41(%rip),%rax        # 257b0 <g_4700+0x10>
   1db6f:	48 8b 04 02          	mov    (%rdx,%rax,1),%rax
   1db73:	48 c1 e0 04          	shl    $0x4,%rax
   1db77:	48 c1 f8 24          	sar    $0x24,%rax
   1db7b:	48 98                	cltq   
   1db7d:	8b 55 f4             	mov    -0xc(%rbp),%edx
   1db80:	48 8d 35 c6 37 00 00 	lea    0x37c6(%rip),%rsi        # 2134d <g_5046+0x1c2d>
   1db87:	48 89 c7             	mov    %rax,%rdi
   1db8a:	e8 64 0b ff ff       	callq  e6f3 <transparent_crc>
   1db8f:	83 7d f4 00          	cmpl   $0x0,-0xc(%rbp)
   1db93:	74 16                	je     1dbab <main+0x44fb>
   1db95:	8b 45 e8             	mov    -0x18(%rbp),%eax
   1db98:	89 c6                	mov    %eax,%esi
   1db9a:	48 8d 3d 95 28 00 00 	lea    0x2895(%rip),%rdi        # 20436 <g_5046+0xd16>
   1dba1:	b8 00 00 00 00       	mov    $0x0,%eax
   1dba6:	e8 d5 f4 fe ff       	callq  d080 <printf@plt>
   1dbab:	83 45 e8 01          	addl   $0x1,-0x18(%rbp)
   1dbaf:	83 7d e8 06          	cmpl   $0x6,-0x18(%rbp)
   1dbb3:	0f 8e ea fd ff ff    	jle    1d9a3 <main+0x42f3>
   1dbb9:	0f b6 05 88 7c 00 00 	movzbl 0x7c88(%rip),%eax        # 25848 <g_4713>
   1dbc0:	0f b6 c0             	movzbl %al,%eax
   1dbc3:	8b 55 f4             	mov    -0xc(%rbp),%edx
   1dbc6:	48 8d 35 8d 37 00 00 	lea    0x378d(%rip),%rsi        # 2135a <g_5046+0x1c3a>
   1dbcd:	48 89 c7             	mov    %rax,%rdi
   1dbd0:	e8 1e 0b ff ff       	callq  e6f3 <transparent_crc>
   1dbd5:	c7 45 e8 00 00 00 00 	movl   $0x0,-0x18(%rbp)
   1dbdc:	eb 45                	jmp    1dc23 <main+0x4573>
   1dbde:	8b 45 e8             	mov    -0x18(%rbp),%eax
   1dbe1:	48 98                	cltq   
   1dbe3:	48 8d 15 5f 7c 00 00 	lea    0x7c5f(%rip),%rdx        # 25849 <g_4715>
   1dbea:	0f b6 04 10          	movzbl (%rax,%rdx,1),%eax
   1dbee:	0f b6 c0             	movzbl %al,%eax
   1dbf1:	8b 55 f4             	mov    -0xc(%rbp),%edx
   1dbf4:	48 8d 35 66 37 00 00 	lea    0x3766(%rip),%rsi        # 21361 <g_5046+0x1c41>
   1dbfb:	48 89 c7             	mov    %rax,%rdi
   1dbfe:	e8 f0 0a ff ff       	callq  e6f3 <transparent_crc>
   1dc03:	83 7d f4 00          	cmpl   $0x0,-0xc(%rbp)
   1dc07:	74 16                	je     1dc1f <main+0x456f>
   1dc09:	8b 45 e8             	mov    -0x18(%rbp),%eax
   1dc0c:	89 c6                	mov    %eax,%esi
   1dc0e:	48 8d 3d 21 28 00 00 	lea    0x2821(%rip),%rdi        # 20436 <g_5046+0xd16>
   1dc15:	b8 00 00 00 00       	mov    $0x0,%eax
   1dc1a:	e8 61 f4 fe ff       	callq  d080 <printf@plt>
   1dc1f:	83 45 e8 01          	addl   $0x1,-0x18(%rbp)
   1dc23:	83 7d e8 03          	cmpl   $0x3,-0x18(%rbp)
   1dc27:	7e b5                	jle    1dbde <main+0x452e>
   1dc29:	48 8b 05 20 7c 00 00 	mov    0x7c20(%rip),%rax        # 25850 <g_4749>
   1dc30:	c1 e0 0d             	shl    $0xd,%eax
   1dc33:	c1 f8 0d             	sar    $0xd,%eax
   1dc36:	48 98                	cltq   
   1dc38:	8b 55 f4             	mov    -0xc(%rbp),%edx
   1dc3b:	48 8d 35 29 37 00 00 	lea    0x3729(%rip),%rsi        # 2136b <g_5046+0x1c4b>
   1dc42:	48 89 c7             	mov    %rax,%rdi
   1dc45:	e8 a9 0a ff ff       	callq  e6f3 <transparent_crc>
   1dc4a:	48 8b 05 ff 7b 00 00 	mov    0x7bff(%rip),%rax        # 25850 <g_4749>
   1dc51:	48 c1 e0 02          	shl    $0x2,%rax
   1dc55:	48 c1 f8 22          	sar    $0x22,%rax
   1dc59:	48 98                	cltq   
   1dc5b:	8b 55 f4             	mov    -0xc(%rbp),%edx
   1dc5e:	48 8d 35 10 37 00 00 	lea    0x3710(%rip),%rsi        # 21375 <g_5046+0x1c55>
   1dc65:	48 89 c7             	mov    %rax,%rdi
   1dc68:	e8 86 0a ff ff       	callq  e6f3 <transparent_crc>
   1dc6d:	48 8b 05 e4 7b 00 00 	mov    0x7be4(%rip),%rax        # 25858 <g_4749+0x8>
   1dc74:	c1 e0 07             	shl    $0x7,%eax
   1dc77:	66 c1 f8 07          	sar    $0x7,%ax
   1dc7b:	48 0f bf c0          	movswq %ax,%rax
   1dc7f:	8b 55 f4             	mov    -0xc(%rbp),%edx
   1dc82:	48 8d 35 f6 36 00 00 	lea    0x36f6(%rip),%rsi        # 2137f <g_5046+0x1c5f>
   1dc89:	48 89 c7             	mov    %rax,%rdi
   1dc8c:	e8 62 0a ff ff       	callq  e6f3 <transparent_crc>
   1dc91:	48 8b 05 c0 7b 00 00 	mov    0x7bc0(%rip),%rax        # 25858 <g_4749+0x8>
   1dc98:	c1 e0 07             	shl    $0x7,%eax
   1dc9b:	c1 f8 10             	sar    $0x10,%eax
   1dc9e:	48 0f bf c0          	movswq %ax,%rax
   1dca2:	8b 55 f4             	mov    -0xc(%rbp),%edx
   1dca5:	48 8d 35 dd 36 00 00 	lea    0x36dd(%rip),%rsi        # 21389 <g_5046+0x1c69>
   1dcac:	48 89 c7             	mov    %rax,%rdi
   1dcaf:	e8 3f 0a ff ff       	callq  e6f3 <transparent_crc>
   1dcb4:	48 8b 05 9d 7b 00 00 	mov    0x7b9d(%rip),%rax        # 25858 <g_4749+0x8>
   1dcbb:	c1 e0 06             	shl    $0x6,%eax
   1dcbe:	c1 f8 1f             	sar    $0x1f,%eax
   1dcc1:	48 0f be c0          	movsbq %al,%rax
   1dcc5:	8b 55 f4             	mov    -0xc(%rbp),%edx
   1dcc8:	48 8d 35 c4 36 00 00 	lea    0x36c4(%rip),%rsi        # 21393 <g_5046+0x1c73>
   1dccf:	48 89 c7             	mov    %rax,%rdi
   1dcd2:	e8 1c 0a ff ff       	callq  e6f3 <transparent_crc>
   1dcd7:	48 8b 05 7a 7b 00 00 	mov    0x7b7a(%rip),%rax        # 25858 <g_4749+0x8>
   1dcde:	48 c1 e8 20          	shr    $0x20,%rax
   1dce2:	25 ff ff 3f 00       	and    $0x3fffff,%eax
   1dce7:	89 c1                	mov    %eax,%ecx
   1dce9:	8b 45 f4             	mov    -0xc(%rbp),%eax
   1dcec:	89 c2                	mov    %eax,%edx
   1dcee:	48 8d 35 a8 36 00 00 	lea    0x36a8(%rip),%rsi        # 2139d <g_5046+0x1c7d>
   1dcf5:	48 89 cf             	mov    %rcx,%rdi
   1dcf8:	e8 f6 09 ff ff       	callq  e6f3 <transparent_crc>
   1dcfd:	48 8b 05 5c 7b 00 00 	mov    0x7b5c(%rip),%rax        # 25860 <g_4749+0x10>
   1dd04:	c1 e0 03             	shl    $0x3,%eax
   1dd07:	c1 f8 03             	sar    $0x3,%eax
   1dd0a:	48 98                	cltq   
   1dd0c:	8b 55 f4             	mov    -0xc(%rbp),%edx
   1dd0f:	48 8d 35 91 36 00 00 	lea    0x3691(%rip),%rsi        # 213a7 <g_5046+0x1c87>
   1dd16:	48 89 c7             	mov    %rax,%rdi
   1dd19:	e8 d5 09 ff ff       	callq  e6f3 <transparent_crc>
   1dd1e:	48 8b 05 3b 7b 00 00 	mov    0x7b3b(%rip),%rax        # 25860 <g_4749+0x10>
   1dd25:	48 c1 e0 04          	shl    $0x4,%rax
   1dd29:	48 c1 f8 24          	sar    $0x24,%rax
   1dd2d:	48 98                	cltq   
   1dd2f:	8b 55 f4             	mov    -0xc(%rbp),%edx
   1dd32:	48 8d 35 78 36 00 00 	lea    0x3678(%rip),%rsi        # 213b1 <g_5046+0x1c91>
   1dd39:	48 89 c7             	mov    %rax,%rdi
   1dd3c:	e8 b2 09 ff ff       	callq  e6f3 <transparent_crc>
   1dd41:	8b 05 8d d4 00 00    	mov    0xd48d(%rip),%eax        # 2b1d4 <g_4766>
   1dd47:	48 98                	cltq   
   1dd49:	8b 55 f4             	mov    -0xc(%rbp),%edx
   1dd4c:	48 8d 35 68 36 00 00 	lea    0x3668(%rip),%rsi        # 213bb <g_5046+0x1c9b>
   1dd53:	48 89 c7             	mov    %rax,%rdi
   1dd56:	e8 98 09 ff ff       	callq  e6f3 <transparent_crc>
   1dd5b:	c7 45 e8 00 00 00 00 	movl   $0x0,-0x18(%rbp)
   1dd62:	e9 0c 02 00 00       	jmpq   1df73 <main+0x48c3>
   1dd67:	8b 45 e8             	mov    -0x18(%rbp),%eax
   1dd6a:	48 63 d0             	movslq %eax,%rdx
   1dd6d:	48 89 d0             	mov    %rdx,%rax
   1dd70:	48 01 c0             	add    %rax,%rax
   1dd73:	48 01 d0             	add    %rdx,%rax
   1dd76:	48 c1 e0 03          	shl    $0x3,%rax
   1dd7a:	48 89 c2             	mov    %rax,%rdx
   1dd7d:	48 8d 05 fc 7a 00 00 	lea    0x7afc(%rip),%rax        # 25880 <g_4861>
   1dd84:	48 8b 04 02          	mov    (%rdx,%rax,1),%rax
   1dd88:	c1 e0 0d             	shl    $0xd,%eax
   1dd8b:	c1 f8 0d             	sar    $0xd,%eax
   1dd8e:	48 98                	cltq   
   1dd90:	8b 55 f4             	mov    -0xc(%rbp),%edx
   1dd93:	48 8d 35 28 36 00 00 	lea    0x3628(%rip),%rsi        # 213c2 <g_5046+0x1ca2>
   1dd9a:	48 89 c7             	mov    %rax,%rdi
   1dd9d:	e8 51 09 ff ff       	callq  e6f3 <transparent_crc>
   1dda2:	8b 45 e8             	mov    -0x18(%rbp),%eax
   1dda5:	48 63 d0             	movslq %eax,%rdx
   1dda8:	48 89 d0             	mov    %rdx,%rax
   1ddab:	48 01 c0             	add    %rax,%rax
   1ddae:	48 01 d0             	add    %rdx,%rax
   1ddb1:	48 c1 e0 03          	shl    $0x3,%rax
   1ddb5:	48 89 c2             	mov    %rax,%rdx
   1ddb8:	48 8d 05 c1 7a 00 00 	lea    0x7ac1(%rip),%rax        # 25880 <g_4861>
   1ddbf:	48 8b 04 02          	mov    (%rdx,%rax,1),%rax
   1ddc3:	48 c1 e0 02          	shl    $0x2,%rax
   1ddc7:	48 c1 f8 22          	sar    $0x22,%rax
   1ddcb:	48 98                	cltq   
   1ddcd:	8b 55 f4             	mov    -0xc(%rbp),%edx
   1ddd0:	48 8d 35 f8 35 00 00 	lea    0x35f8(%rip),%rsi        # 213cf <g_5046+0x1caf>
   1ddd7:	48 89 c7             	mov    %rax,%rdi
   1ddda:	e8 14 09 ff ff       	callq  e6f3 <transparent_crc>
   1dddf:	8b 45 e8             	mov    -0x18(%rbp),%eax
   1dde2:	48 63 d0             	movslq %eax,%rdx
   1dde5:	48 89 d0             	mov    %rdx,%rax
   1dde8:	48 01 c0             	add    %rax,%rax
   1ddeb:	48 01 d0             	add    %rdx,%rax
   1ddee:	48 c1 e0 03          	shl    $0x3,%rax
   1ddf2:	48 89 c2             	mov    %rax,%rdx
   1ddf5:	48 8d 05 84 7a 00 00 	lea    0x7a84(%rip),%rax        # 25880 <g_4861>
   1ddfc:	48 8b 44 02 08       	mov    0x8(%rdx,%rax,1),%rax
   1de01:	c1 e0 07             	shl    $0x7,%eax
   1de04:	66 c1 f8 07          	sar    $0x7,%ax
   1de08:	48 0f bf c0          	movswq %ax,%rax
   1de0c:	8b 55 f4             	mov    -0xc(%rbp),%edx
   1de0f:	48 8d 35 c6 35 00 00 	lea    0x35c6(%rip),%rsi        # 213dc <g_5046+0x1cbc>
   1de16:	48 89 c7             	mov    %rax,%rdi
   1de19:	e8 d5 08 ff ff       	callq  e6f3 <transparent_crc>
   1de1e:	8b 45 e8             	mov    -0x18(%rbp),%eax
   1de21:	48 63 d0             	movslq %eax,%rdx
   1de24:	48 89 d0             	mov    %rdx,%rax
   1de27:	48 01 c0             	add    %rax,%rax
   1de2a:	48 01 d0             	add    %rdx,%rax
   1de2d:	48 c1 e0 03          	shl    $0x3,%rax
   1de31:	48 89 c2             	mov    %rax,%rdx
   1de34:	48 8d 05 45 7a 00 00 	lea    0x7a45(%rip),%rax        # 25880 <g_4861>
   1de3b:	48 8b 44 02 08       	mov    0x8(%rdx,%rax,1),%rax
   1de40:	c1 e0 07             	shl    $0x7,%eax
   1de43:	c1 f8 10             	sar    $0x10,%eax
   1de46:	48 0f bf c0          	movswq %ax,%rax
   1de4a:	8b 55 f4             	mov    -0xc(%rbp),%edx
   1de4d:	48 8d 35 95 35 00 00 	lea    0x3595(%rip),%rsi        # 213e9 <g_5046+0x1cc9>
   1de54:	48 89 c7             	mov    %rax,%rdi
   1de57:	e8 97 08 ff ff       	callq  e6f3 <transparent_crc>
   1de5c:	8b 45 e8             	mov    -0x18(%rbp),%eax
   1de5f:	48 63 d0             	movslq %eax,%rdx
   1de62:	48 89 d0             	mov    %rdx,%rax
   1de65:	48 01 c0             	add    %rax,%rax
   1de68:	48 01 d0             	add    %rdx,%rax
   1de6b:	48 c1 e0 03          	shl    $0x3,%rax
   1de6f:	48 89 c2             	mov    %rax,%rdx
   1de72:	48 8d 05 07 7a 00 00 	lea    0x7a07(%rip),%rax        # 25880 <g_4861>
   1de79:	48 8b 44 02 08       	mov    0x8(%rdx,%rax,1),%rax
   1de7e:	c1 e0 06             	shl    $0x6,%eax
   1de81:	c1 f8 1f             	sar    $0x1f,%eax
   1de84:	48 0f be c0          	movsbq %al,%rax
   1de88:	8b 55 f4             	mov    -0xc(%rbp),%edx
   1de8b:	48 8d 35 64 35 00 00 	lea    0x3564(%rip),%rsi        # 213f6 <g_5046+0x1cd6>
   1de92:	48 89 c7             	mov    %rax,%rdi
   1de95:	e8 59 08 ff ff       	callq  e6f3 <transparent_crc>
   1de9a:	8b 45 e8             	mov    -0x18(%rbp),%eax
   1de9d:	48 63 d0             	movslq %eax,%rdx
   1dea0:	48 89 d0             	mov    %rdx,%rax
   1dea3:	48 01 c0             	add    %rax,%rax
   1dea6:	48 01 d0             	add    %rdx,%rax
   1dea9:	48 c1 e0 03          	shl    $0x3,%rax
   1dead:	48 89 c2             	mov    %rax,%rdx
   1deb0:	48 8d 05 c9 79 00 00 	lea    0x79c9(%rip),%rax        # 25880 <g_4861>
   1deb7:	48 8b 44 02 08       	mov    0x8(%rdx,%rax,1),%rax
   1debc:	48 c1 e8 20          	shr    $0x20,%rax
   1dec0:	25 ff ff 3f 00       	and    $0x3fffff,%eax
   1dec5:	89 c1                	mov    %eax,%ecx
   1dec7:	8b 45 f4             	mov    -0xc(%rbp),%eax
   1deca:	89 c2                	mov    %eax,%edx
   1decc:	48 8d 35 30 35 00 00 	lea    0x3530(%rip),%rsi        # 21403 <g_5046+0x1ce3>
   1ded3:	48 89 cf             	mov    %rcx,%rdi
   1ded6:	e8 18 08 ff ff       	callq  e6f3 <transparent_crc>
   1dedb:	8b 45 e8             	mov    -0x18(%rbp),%eax
   1dede:	48 63 d0             	movslq %eax,%rdx
   1dee1:	48 89 d0             	mov    %rdx,%rax
   1dee4:	48 01 c0             	add    %rax,%rax
   1dee7:	48 01 d0             	add    %rdx,%rax
   1deea:	48 c1 e0 03          	shl    $0x3,%rax
   1deee:	48 89 c2             	mov    %rax,%rdx
   1def1:	48 8d 05 98 79 00 00 	lea    0x7998(%rip),%rax        # 25890 <g_4861+0x10>
   1def8:	48 8b 04 02          	mov    (%rdx,%rax,1),%rax
   1defc:	c1 e0 03             	shl    $0x3,%eax
   1deff:	c1 f8 03             	sar    $0x3,%eax
   1df02:	48 98                	cltq   
   1df04:	8b 55 f4             	mov    -0xc(%rbp),%edx
   1df07:	48 8d 35 02 35 00 00 	lea    0x3502(%rip),%rsi        # 21410 <g_5046+0x1cf0>
   1df0e:	48 89 c7             	mov    %rax,%rdi
   1df11:	e8 dd 07 ff ff       	callq  e6f3 <transparent_crc>
   1df16:	8b 45 e8             	mov    -0x18(%rbp),%eax
   1df19:	48 63 d0             	movslq %eax,%rdx
   1df1c:	48 89 d0             	mov    %rdx,%rax
   1df1f:	48 01 c0             	add    %rax,%rax
   1df22:	48 01 d0             	add    %rdx,%rax
   1df25:	48 c1 e0 03          	shl    $0x3,%rax
   1df29:	48 89 c2             	mov    %rax,%rdx
   1df2c:	48 8d 05 5d 79 00 00 	lea    0x795d(%rip),%rax        # 25890 <g_4861+0x10>
   1df33:	48 8b 04 02          	mov    (%rdx,%rax,1),%rax
   1df37:	48 c1 e0 04          	shl    $0x4,%rax
   1df3b:	48 c1 f8 24          	sar    $0x24,%rax
   1df3f:	48 98                	cltq   
   1df41:	8b 55 f4             	mov    -0xc(%rbp),%edx
   1df44:	48 8d 35 d2 34 00 00 	lea    0x34d2(%rip),%rsi        # 2141d <g_5046+0x1cfd>
   1df4b:	48 89 c7             	mov    %rax,%rdi
   1df4e:	e8 a0 07 ff ff       	callq  e6f3 <transparent_crc>
   1df53:	83 7d f4 00          	cmpl   $0x0,-0xc(%rbp)
   1df57:	74 16                	je     1df6f <main+0x48bf>
   1df59:	8b 45 e8             	mov    -0x18(%rbp),%eax
   1df5c:	89 c6                	mov    %eax,%esi
   1df5e:	48 8d 3d d1 24 00 00 	lea    0x24d1(%rip),%rdi        # 20436 <g_5046+0xd16>
   1df65:	b8 00 00 00 00       	mov    $0x0,%eax
   1df6a:	e8 11 f1 fe ff       	callq  d080 <printf@plt>
   1df6f:	83 45 e8 01          	addl   $0x1,-0x18(%rbp)
   1df73:	83 7d e8 04          	cmpl   $0x4,-0x18(%rbp)
   1df77:	0f 8e ea fd ff ff    	jle    1dd67 <main+0x46b7>
   1df7d:	48 8b 05 7c 79 00 00 	mov    0x797c(%rip),%rax        # 25900 <g_4908>
   1df84:	c1 e0 0d             	shl    $0xd,%eax
   1df87:	c1 f8 0d             	sar    $0xd,%eax
   1df8a:	48 98                	cltq   
   1df8c:	8b 55 f4             	mov    -0xc(%rbp),%edx
   1df8f:	48 8d 35 94 34 00 00 	lea    0x3494(%rip),%rsi        # 2142a <g_5046+0x1d0a>
   1df96:	48 89 c7             	mov    %rax,%rdi
   1df99:	e8 55 07 ff ff       	callq  e6f3 <transparent_crc>
   1df9e:	8b 05 60 79 00 00    	mov    0x7960(%rip),%eax        # 25904 <g_4908+0x4>
   1dfa4:	c1 e0 02             	shl    $0x2,%eax
   1dfa7:	c1 f8 02             	sar    $0x2,%eax
   1dfaa:	48 98                	cltq   
   1dfac:	8b 55 f4             	mov    -0xc(%rbp),%edx
   1dfaf:	48 8d 35 7e 34 00 00 	lea    0x347e(%rip),%rsi        # 21434 <g_5046+0x1d14>
   1dfb6:	48 89 c7             	mov    %rax,%rdi
   1dfb9:	e8 35 07 ff ff       	callq  e6f3 <transparent_crc>
   1dfbe:	0f b7 05 43 79 00 00 	movzwl 0x7943(%rip),%eax        # 25908 <g_4908+0x8>
   1dfc5:	c1 e0 07             	shl    $0x7,%eax
   1dfc8:	66 c1 f8 07          	sar    $0x7,%ax
   1dfcc:	48 0f bf c0          	movswq %ax,%rax
   1dfd0:	8b 55 f4             	mov    -0xc(%rbp),%edx
   1dfd3:	48 8d 35 64 34 00 00 	lea    0x3464(%rip),%rsi        # 2143e <g_5046+0x1d1e>
   1dfda:	48 89 c7             	mov    %rax,%rdi
   1dfdd:	e8 11 07 ff ff       	callq  e6f3 <transparent_crc>
   1dfe2:	8b 05 20 79 00 00    	mov    0x7920(%rip),%eax        # 25908 <g_4908+0x8>
   1dfe8:	c1 e0 07             	shl    $0x7,%eax
   1dfeb:	c1 f8 10             	sar    $0x10,%eax
   1dfee:	48 0f bf c0          	movswq %ax,%rax
   1dff2:	8b 55 f4             	mov    -0xc(%rbp),%edx
   1dff5:	48 8d 35 4c 34 00 00 	lea    0x344c(%rip),%rsi        # 21448 <g_5046+0x1d28>
   1dffc:	48 89 c7             	mov    %rax,%rdi
   1dfff:	e8 ef 06 ff ff       	callq  e6f3 <transparent_crc>
   1e004:	0f b6 05 00 79 00 00 	movzbl 0x7900(%rip),%eax        # 2590b <g_4908+0xb>
   1e00b:	c1 e0 06             	shl    $0x6,%eax
   1e00e:	c0 f8 07             	sar    $0x7,%al
   1e011:	48 0f be c0          	movsbq %al,%rax
   1e015:	8b 55 f4             	mov    -0xc(%rbp),%edx
   1e018:	48 8d 35 33 34 00 00 	lea    0x3433(%rip),%rsi        # 21452 <g_5046+0x1d32>
   1e01f:	48 89 c7             	mov    %rax,%rdi
   1e022:	e8 cc 06 ff ff       	callq  e6f3 <transparent_crc>
   1e027:	8b 05 df 78 00 00    	mov    0x78df(%rip),%eax        # 2590c <g_4908+0xc>
   1e02d:	25 ff ff 3f 00       	and    $0x3fffff,%eax
   1e032:	89 c1                	mov    %eax,%ecx
   1e034:	8b 45 f4             	mov    -0xc(%rbp),%eax
   1e037:	89 c2                	mov    %eax,%edx
   1e039:	48 8d 35 1c 34 00 00 	lea    0x341c(%rip),%rsi        # 2145c <g_5046+0x1d3c>
   1e040:	48 89 cf             	mov    %rcx,%rdi
   1e043:	e8 ab 06 ff ff       	callq  e6f3 <transparent_crc>
   1e048:	48 8b 05 c1 78 00 00 	mov    0x78c1(%rip),%rax        # 25910 <g_4908+0x10>
   1e04f:	c1 e0 03             	shl    $0x3,%eax
   1e052:	c1 f8 03             	sar    $0x3,%eax
   1e055:	48 98                	cltq   
   1e057:	8b 55 f4             	mov    -0xc(%rbp),%edx
   1e05a:	48 8d 35 05 34 00 00 	lea    0x3405(%rip),%rsi        # 21466 <g_5046+0x1d46>
   1e061:	48 89 c7             	mov    %rax,%rdi
   1e064:	e8 8a 06 ff ff       	callq  e6f3 <transparent_crc>
   1e069:	8b 05 a5 78 00 00    	mov    0x78a5(%rip),%eax        # 25914 <g_4908+0x14>
   1e06f:	c1 e0 04             	shl    $0x4,%eax
   1e072:	c1 f8 04             	sar    $0x4,%eax
   1e075:	48 98                	cltq   
   1e077:	8b 55 f4             	mov    -0xc(%rbp),%edx
   1e07a:	48 8d 35 ef 33 00 00 	lea    0x33ef(%rip),%rsi        # 21470 <g_5046+0x1d50>
   1e081:	48 89 c7             	mov    %rax,%rdi
   1e084:	e8 6a 06 ff ff       	callq  e6f3 <transparent_crc>
   1e089:	0f b6 05 88 78 00 00 	movzbl 0x7888(%rip),%eax        # 25918 <g_4991>
   1e090:	48 0f be c0          	movsbq %al,%rax
   1e094:	8b 55 f4             	mov    -0xc(%rbp),%edx
   1e097:	48 8d 35 dc 33 00 00 	lea    0x33dc(%rip),%rsi        # 2147a <g_5046+0x1d5a>
   1e09e:	48 89 c7             	mov    %rax,%rdi
   1e0a1:	e8 4d 06 ff ff       	callq  e6f3 <transparent_crc>
   1e0a6:	c7 45 e8 00 00 00 00 	movl   $0x0,-0x18(%rbp)
   1e0ad:	e9 9a 00 00 00       	jmpq   1e14c <main+0x4a9c>
   1e0b2:	c7 45 ec 00 00 00 00 	movl   $0x0,-0x14(%rbp)
   1e0b9:	e9 80 00 00 00       	jmpq   1e13e <main+0x4a8e>
   1e0be:	c7 45 f0 00 00 00 00 	movl   $0x0,-0x10(%rbp)
   1e0c5:	eb 6d                	jmp    1e134 <main+0x4a84>
   1e0c7:	8b 45 f0             	mov    -0x10(%rbp),%eax
   1e0ca:	48 98                	cltq   
   1e0cc:	8b 55 e8             	mov    -0x18(%rbp),%edx
   1e0cf:	48 63 ca             	movslq %edx,%rcx
   1e0d2:	8b 55 ec             	mov    -0x14(%rbp),%edx
   1e0d5:	48 63 d2             	movslq %edx,%rdx
   1e0d8:	48 c1 e1 02          	shl    $0x2,%rcx
   1e0dc:	48 01 ca             	add    %rcx,%rdx
   1e0df:	48 c1 e2 03          	shl    $0x3,%rdx
   1e0e3:	48 01 d0             	add    %rdx,%rax
   1e0e6:	48 8d 14 85 00 00 00 	lea    0x0(,%rax,4),%rdx
   1e0ed:	00 
   1e0ee:	48 8d 05 2b 15 00 00 	lea    0x152b(%rip),%rax        # 1f620 <g_5012>
   1e0f5:	8b 04 02             	mov    (%rdx,%rax,1),%eax
   1e0f8:	89 c1                	mov    %eax,%ecx
   1e0fa:	8b 45 f4             	mov    -0xc(%rbp),%eax
   1e0fd:	89 c2                	mov    %eax,%edx
   1e0ff:	48 8d 35 7b 33 00 00 	lea    0x337b(%rip),%rsi        # 21481 <g_5046+0x1d61>
   1e106:	48 89 cf             	mov    %rcx,%rdi
   1e109:	e8 e5 05 ff ff       	callq  e6f3 <transparent_crc>
   1e10e:	83 7d f4 00          	cmpl   $0x0,-0xc(%rbp)
   1e112:	74 1c                	je     1e130 <main+0x4a80>
   1e114:	8b 4d f0             	mov    -0x10(%rbp),%ecx
   1e117:	8b 55 ec             	mov    -0x14(%rbp),%edx
   1e11a:	8b 45 e8             	mov    -0x18(%rbp),%eax
   1e11d:	89 c6                	mov    %eax,%esi
   1e11f:	48 8d 3d d1 24 00 00 	lea    0x24d1(%rip),%rdi        # 205f7 <g_5046+0xed7>
   1e126:	b8 00 00 00 00       	mov    $0x0,%eax
   1e12b:	e8 50 ef fe ff       	callq  d080 <printf@plt>
   1e130:	83 45 f0 01          	addl   $0x1,-0x10(%rbp)
   1e134:	83 7d f0 07          	cmpl   $0x7,-0x10(%rbp)
   1e138:	7e 8d                	jle    1e0c7 <main+0x4a17>
   1e13a:	83 45 ec 01          	addl   $0x1,-0x14(%rbp)
   1e13e:	83 7d ec 03          	cmpl   $0x3,-0x14(%rbp)
   1e142:	0f 8e 76 ff ff ff    	jle    1e0be <main+0x4a0e>
   1e148:	83 45 e8 01          	addl   $0x1,-0x18(%rbp)
   1e14c:	83 7d e8 01          	cmpl   $0x1,-0x18(%rbp)
   1e150:	0f 8e 5c ff ff ff    	jle    1e0b2 <main+0x4a02>
   1e156:	48 8b 05 c3 77 00 00 	mov    0x77c3(%rip),%rax        # 25920 <g_5013>
   1e15d:	c1 e0 0d             	shl    $0xd,%eax
   1e160:	c1 f8 0d             	sar    $0xd,%eax
   1e163:	48 98                	cltq   
   1e165:	8b 55 f4             	mov    -0xc(%rbp),%edx
   1e168:	48 8d 35 22 33 00 00 	lea    0x3322(%rip),%rsi        # 21491 <g_5046+0x1d71>
   1e16f:	48 89 c7             	mov    %rax,%rdi
   1e172:	e8 7c 05 ff ff       	callq  e6f3 <transparent_crc>
   1e177:	8b 05 a7 77 00 00    	mov    0x77a7(%rip),%eax        # 25924 <g_5013+0x4>
   1e17d:	c1 e0 02             	shl    $0x2,%eax
   1e180:	c1 f8 02             	sar    $0x2,%eax
   1e183:	48 98                	cltq   
   1e185:	8b 55 f4             	mov    -0xc(%rbp),%edx
   1e188:	48 8d 35 0c 33 00 00 	lea    0x330c(%rip),%rsi        # 2149b <g_5046+0x1d7b>
   1e18f:	48 89 c7             	mov    %rax,%rdi
   1e192:	e8 5c 05 ff ff       	callq  e6f3 <transparent_crc>
   1e197:	0f b7 05 8a 77 00 00 	movzwl 0x778a(%rip),%eax        # 25928 <g_5013+0x8>
   1e19e:	c1 e0 07             	shl    $0x7,%eax
   1e1a1:	66 c1 f8 07          	sar    $0x7,%ax
   1e1a5:	48 0f bf c0          	movswq %ax,%rax
   1e1a9:	8b 55 f4             	mov    -0xc(%rbp),%edx
   1e1ac:	48 8d 35 f2 32 00 00 	lea    0x32f2(%rip),%rsi        # 214a5 <g_5046+0x1d85>
   1e1b3:	48 89 c7             	mov    %rax,%rdi
   1e1b6:	e8 38 05 ff ff       	callq  e6f3 <transparent_crc>
   1e1bb:	8b 05 67 77 00 00    	mov    0x7767(%rip),%eax        # 25928 <g_5013+0x8>
   1e1c1:	c1 e0 07             	shl    $0x7,%eax
   1e1c4:	c1 f8 10             	sar    $0x10,%eax
   1e1c7:	48 0f bf c0          	movswq %ax,%rax
   1e1cb:	8b 55 f4             	mov    -0xc(%rbp),%edx
   1e1ce:	48 8d 35 da 32 00 00 	lea    0x32da(%rip),%rsi        # 214af <g_5046+0x1d8f>
   1e1d5:	48 89 c7             	mov    %rax,%rdi
   1e1d8:	e8 16 05 ff ff       	callq  e6f3 <transparent_crc>
   1e1dd:	0f b6 05 47 77 00 00 	movzbl 0x7747(%rip),%eax        # 2592b <g_5013+0xb>
   1e1e4:	c1 e0 06             	shl    $0x6,%eax
   1e1e7:	c0 f8 07             	sar    $0x7,%al
   1e1ea:	48 0f be c0          	movsbq %al,%rax
   1e1ee:	8b 55 f4             	mov    -0xc(%rbp),%edx
   1e1f1:	48 8d 35 c1 32 00 00 	lea    0x32c1(%rip),%rsi        # 214b9 <g_5046+0x1d99>
   1e1f8:	48 89 c7             	mov    %rax,%rdi
   1e1fb:	e8 f3 04 ff ff       	callq  e6f3 <transparent_crc>
   1e200:	8b 05 26 77 00 00    	mov    0x7726(%rip),%eax        # 2592c <g_5013+0xc>
   1e206:	25 ff ff 3f 00       	and    $0x3fffff,%eax
   1e20b:	89 c1                	mov    %eax,%ecx
   1e20d:	8b 45 f4             	mov    -0xc(%rbp),%eax
   1e210:	89 c2                	mov    %eax,%edx
   1e212:	48 8d 35 aa 32 00 00 	lea    0x32aa(%rip),%rsi        # 214c3 <g_5046+0x1da3>
   1e219:	48 89 cf             	mov    %rcx,%rdi
   1e21c:	e8 d2 04 ff ff       	callq  e6f3 <transparent_crc>
   1e221:	48 8b 05 08 77 00 00 	mov    0x7708(%rip),%rax        # 25930 <g_5013+0x10>
   1e228:	c1 e0 03             	shl    $0x3,%eax
   1e22b:	c1 f8 03             	sar    $0x3,%eax
   1e22e:	48 98                	cltq   
   1e230:	8b 55 f4             	mov    -0xc(%rbp),%edx
   1e233:	48 8d 35 93 32 00 00 	lea    0x3293(%rip),%rsi        # 214cd <g_5046+0x1dad>
   1e23a:	48 89 c7             	mov    %rax,%rdi
   1e23d:	e8 b1 04 ff ff       	callq  e6f3 <transparent_crc>
   1e242:	8b 05 ec 76 00 00    	mov    0x76ec(%rip),%eax        # 25934 <g_5013+0x14>
   1e248:	c1 e0 04             	shl    $0x4,%eax
   1e24b:	c1 f8 04             	sar    $0x4,%eax
   1e24e:	48 98                	cltq   
   1e250:	8b 55 f4             	mov    -0xc(%rbp),%edx
   1e253:	48 8d 35 7d 32 00 00 	lea    0x327d(%rip),%rsi        # 214d7 <g_5046+0x1db7>
   1e25a:	48 89 c7             	mov    %rax,%rdi
   1e25d:	e8 91 04 ff ff       	callq  e6f3 <transparent_crc>
   1e262:	48 8b 05 d7 76 00 00 	mov    0x76d7(%rip),%rax        # 25940 <g_5014>
   1e269:	c1 e0 0d             	shl    $0xd,%eax
   1e26c:	c1 f8 0d             	sar    $0xd,%eax
   1e26f:	48 98                	cltq   
   1e271:	8b 55 f4             	mov    -0xc(%rbp),%edx
   1e274:	48 8d 35 66 32 00 00 	lea    0x3266(%rip),%rsi        # 214e1 <g_5046+0x1dc1>
   1e27b:	48 89 c7             	mov    %rax,%rdi
   1e27e:	e8 70 04 ff ff       	callq  e6f3 <transparent_crc>
   1e283:	8b 05 bb 76 00 00    	mov    0x76bb(%rip),%eax        # 25944 <g_5014+0x4>
   1e289:	c1 e0 02             	shl    $0x2,%eax
   1e28c:	c1 f8 02             	sar    $0x2,%eax
   1e28f:	48 98                	cltq   
   1e291:	8b 55 f4             	mov    -0xc(%rbp),%edx
   1e294:	48 8d 35 50 32 00 00 	lea    0x3250(%rip),%rsi        # 214eb <g_5046+0x1dcb>
   1e29b:	48 89 c7             	mov    %rax,%rdi
   1e29e:	e8 50 04 ff ff       	callq  e6f3 <transparent_crc>
   1e2a3:	0f b7 05 9e 76 00 00 	movzwl 0x769e(%rip),%eax        # 25948 <g_5014+0x8>
   1e2aa:	c1 e0 07             	shl    $0x7,%eax
   1e2ad:	66 c1 f8 07          	sar    $0x7,%ax
   1e2b1:	48 0f bf c0          	movswq %ax,%rax
   1e2b5:	8b 55 f4             	mov    -0xc(%rbp),%edx
   1e2b8:	48 8d 35 36 32 00 00 	lea    0x3236(%rip),%rsi        # 214f5 <g_5046+0x1dd5>
   1e2bf:	48 89 c7             	mov    %rax,%rdi
   1e2c2:	e8 2c 04 ff ff       	callq  e6f3 <transparent_crc>
   1e2c7:	8b 05 7b 76 00 00    	mov    0x767b(%rip),%eax        # 25948 <g_5014+0x8>
   1e2cd:	c1 e0 07             	shl    $0x7,%eax
   1e2d0:	c1 f8 10             	sar    $0x10,%eax
   1e2d3:	48 0f bf c0          	movswq %ax,%rax
   1e2d7:	8b 55 f4             	mov    -0xc(%rbp),%edx
   1e2da:	48 8d 35 1e 32 00 00 	lea    0x321e(%rip),%rsi        # 214ff <g_5046+0x1ddf>
   1e2e1:	48 89 c7             	mov    %rax,%rdi
   1e2e4:	e8 0a 04 ff ff       	callq  e6f3 <transparent_crc>
   1e2e9:	0f b6 05 5b 76 00 00 	movzbl 0x765b(%rip),%eax        # 2594b <g_5014+0xb>
   1e2f0:	c1 e0 06             	shl    $0x6,%eax
   1e2f3:	c0 f8 07             	sar    $0x7,%al
   1e2f6:	48 0f be c0          	movsbq %al,%rax
   1e2fa:	8b 55 f4             	mov    -0xc(%rbp),%edx
   1e2fd:	48 8d 35 05 32 00 00 	lea    0x3205(%rip),%rsi        # 21509 <g_5046+0x1de9>
   1e304:	48 89 c7             	mov    %rax,%rdi
   1e307:	e8 e7 03 ff ff       	callq  e6f3 <transparent_crc>
   1e30c:	8b 05 3a 76 00 00    	mov    0x763a(%rip),%eax        # 2594c <g_5014+0xc>
   1e312:	25 ff ff 3f 00       	and    $0x3fffff,%eax
   1e317:	89 c1                	mov    %eax,%ecx
   1e319:	8b 45 f4             	mov    -0xc(%rbp),%eax
   1e31c:	89 c2                	mov    %eax,%edx
   1e31e:	48 8d 35 ee 31 00 00 	lea    0x31ee(%rip),%rsi        # 21513 <g_5046+0x1df3>
   1e325:	48 89 cf             	mov    %rcx,%rdi
   1e328:	e8 c6 03 ff ff       	callq  e6f3 <transparent_crc>
   1e32d:	48 8b 05 1c 76 00 00 	mov    0x761c(%rip),%rax        # 25950 <g_5014+0x10>
   1e334:	c1 e0 03             	shl    $0x3,%eax
   1e337:	c1 f8 03             	sar    $0x3,%eax
   1e33a:	48 98                	cltq   
   1e33c:	8b 55 f4             	mov    -0xc(%rbp),%edx
   1e33f:	48 8d 35 d7 31 00 00 	lea    0x31d7(%rip),%rsi        # 2151d <g_5046+0x1dfd>
   1e346:	48 89 c7             	mov    %rax,%rdi
   1e349:	e8 a5 03 ff ff       	callq  e6f3 <transparent_crc>
   1e34e:	8b 05 00 76 00 00    	mov    0x7600(%rip),%eax        # 25954 <g_5014+0x14>
   1e354:	c1 e0 04             	shl    $0x4,%eax
   1e357:	c1 f8 04             	sar    $0x4,%eax
   1e35a:	48 98                	cltq   
   1e35c:	8b 55 f4             	mov    -0xc(%rbp),%edx
   1e35f:	48 8d 35 c1 31 00 00 	lea    0x31c1(%rip),%rsi        # 21527 <g_5046+0x1e07>
   1e366:	48 89 c7             	mov    %rax,%rdi
   1e369:	e8 85 03 ff ff       	callq  e6f3 <transparent_crc>
   1e36e:	b8 fd c8 08 39       	mov    $0x3908c8fd,%eax
   1e373:	89 c1                	mov    %eax,%ecx
   1e375:	8b 45 f4             	mov    -0xc(%rbp),%eax
   1e378:	89 c2                	mov    %eax,%edx
   1e37a:	48 8d 35 b0 31 00 00 	lea    0x31b0(%rip),%rsi        # 21531 <g_5046+0x1e11>
   1e381:	48 89 cf             	mov    %rcx,%rdi
   1e384:	e8 6a 03 ff ff       	callq  e6f3 <transparent_crc>
   1e389:	0f b6 05 c8 75 00 00 	movzbl 0x75c8(%rip),%eax        # 25958 <g_5060>
   1e390:	48 0f be c0          	movsbq %al,%rax
   1e394:	8b 55 f4             	mov    -0xc(%rbp),%edx
   1e397:	48 8d 35 9a 31 00 00 	lea    0x319a(%rip),%rsi        # 21538 <g_5046+0x1e18>
   1e39e:	48 89 c7             	mov    %rax,%rdi
   1e3a1:	e8 4d 03 ff ff       	callq  e6f3 <transparent_crc>
   1e3a6:	c7 45 e8 00 00 00 00 	movl   $0x0,-0x18(%rbp)
   1e3ad:	e9 02 02 00 00       	jmpq   1e5b4 <main+0x4f04>
   1e3b2:	8b 45 e8             	mov    -0x18(%rbp),%eax
   1e3b5:	48 63 d0             	movslq %eax,%rdx
   1e3b8:	48 89 d0             	mov    %rdx,%rax
   1e3bb:	48 01 c0             	add    %rax,%rax
   1e3be:	48 01 d0             	add    %rdx,%rax
   1e3c1:	48 c1 e0 03          	shl    $0x3,%rax
   1e3c5:	48 89 c2             	mov    %rax,%rdx
   1e3c8:	48 8d 05 91 75 00 00 	lea    0x7591(%rip),%rax        # 25960 <g_5081>
   1e3cf:	48 8b 04 02          	mov    (%rdx,%rax,1),%rax
   1e3d3:	c1 e0 0d             	shl    $0xd,%eax
   1e3d6:	c1 f8 0d             	sar    $0xd,%eax
   1e3d9:	48 98                	cltq   
   1e3db:	8b 55 f4             	mov    -0xc(%rbp),%edx
   1e3de:	48 8d 35 5a 31 00 00 	lea    0x315a(%rip),%rsi        # 2153f <g_5046+0x1e1f>
   1e3e5:	48 89 c7             	mov    %rax,%rdi
   1e3e8:	e8 06 03 ff ff       	callq  e6f3 <transparent_crc>
   1e3ed:	8b 45 e8             	mov    -0x18(%rbp),%eax
   1e3f0:	48 63 d0             	movslq %eax,%rdx
   1e3f3:	48 89 d0             	mov    %rdx,%rax
   1e3f6:	48 01 c0             	add    %rax,%rax
   1e3f9:	48 01 d0             	add    %rdx,%rax
   1e3fc:	48 c1 e0 03          	shl    $0x3,%rax
   1e400:	48 89 c2             	mov    %rax,%rdx
   1e403:	48 8d 05 56 75 00 00 	lea    0x7556(%rip),%rax        # 25960 <g_5081>
   1e40a:	8b 44 02 04          	mov    0x4(%rdx,%rax,1),%eax
   1e40e:	c1 e0 02             	shl    $0x2,%eax
   1e411:	c1 f8 02             	sar    $0x2,%eax
   1e414:	48 98                	cltq   
   1e416:	8b 55 f4             	mov    -0xc(%rbp),%edx
   1e419:	48 8d 35 2c 31 00 00 	lea    0x312c(%rip),%rsi        # 2154c <g_5046+0x1e2c>
   1e420:	48 89 c7             	mov    %rax,%rdi
   1e423:	e8 cb 02 ff ff       	callq  e6f3 <transparent_crc>
   1e428:	8b 45 e8             	mov    -0x18(%rbp),%eax
   1e42b:	48 63 d0             	movslq %eax,%rdx
   1e42e:	48 89 d0             	mov    %rdx,%rax
   1e431:	48 01 c0             	add    %rax,%rax
   1e434:	48 01 d0             	add    %rdx,%rax
   1e437:	48 c1 e0 03          	shl    $0x3,%rax
   1e43b:	48 89 c2             	mov    %rax,%rdx
   1e43e:	48 8d 05 1b 75 00 00 	lea    0x751b(%rip),%rax        # 25960 <g_5081>
   1e445:	0f b7 44 02 08       	movzwl 0x8(%rdx,%rax,1),%eax
   1e44a:	c1 e0 07             	shl    $0x7,%eax
   1e44d:	66 c1 f8 07          	sar    $0x7,%ax
   1e451:	48 0f bf c0          	movswq %ax,%rax
   1e455:	8b 55 f4             	mov    -0xc(%rbp),%edx
   1e458:	48 8d 35 fa 30 00 00 	lea    0x30fa(%rip),%rsi        # 21559 <g_5046+0x1e39>
   1e45f:	48 89 c7             	mov    %rax,%rdi
   1e462:	e8 8c 02 ff ff       	callq  e6f3 <transparent_crc>
   1e467:	8b 45 e8             	mov    -0x18(%rbp),%eax
   1e46a:	48 63 d0             	movslq %eax,%rdx
   1e46d:	48 89 d0             	mov    %rdx,%rax
   1e470:	48 01 c0             	add    %rax,%rax
   1e473:	48 01 d0             	add    %rdx,%rax
   1e476:	48 c1 e0 03          	shl    $0x3,%rax
   1e47a:	48 89 c2             	mov    %rax,%rdx
   1e47d:	48 8d 05 dc 74 00 00 	lea    0x74dc(%rip),%rax        # 25960 <g_5081>
   1e484:	8b 44 02 08          	mov    0x8(%rdx,%rax,1),%eax
   1e488:	c1 e0 07             	shl    $0x7,%eax
   1e48b:	c1 f8 10             	sar    $0x10,%eax
   1e48e:	48 0f bf c0          	movswq %ax,%rax
   1e492:	8b 55 f4             	mov    -0xc(%rbp),%edx
   1e495:	48 8d 35 ca 30 00 00 	lea    0x30ca(%rip),%rsi        # 21566 <g_5046+0x1e46>
   1e49c:	48 89 c7             	mov    %rax,%rdi
   1e49f:	e8 4f 02 ff ff       	callq  e6f3 <transparent_crc>
   1e4a4:	8b 45 e8             	mov    -0x18(%rbp),%eax
   1e4a7:	48 63 d0             	movslq %eax,%rdx
   1e4aa:	48 89 d0             	mov    %rdx,%rax
   1e4ad:	48 01 c0             	add    %rax,%rax
   1e4b0:	48 01 d0             	add    %rdx,%rax
   1e4b3:	48 c1 e0 03          	shl    $0x3,%rax
   1e4b7:	48 89 c2             	mov    %rax,%rdx
   1e4ba:	48 8d 05 9f 74 00 00 	lea    0x749f(%rip),%rax        # 25960 <g_5081>
   1e4c1:	0f b6 44 02 0b       	movzbl 0xb(%rdx,%rax,1),%eax
   1e4c6:	c1 e0 06             	shl    $0x6,%eax
   1e4c9:	c0 f8 07             	sar    $0x7,%al
   1e4cc:	48 0f be c0          	movsbq %al,%rax
   1e4d0:	8b 55 f4             	mov    -0xc(%rbp),%edx
   1e4d3:	48 8d 35 99 30 00 00 	lea    0x3099(%rip),%rsi        # 21573 <g_5046+0x1e53>
   1e4da:	48 89 c7             	mov    %rax,%rdi
   1e4dd:	e8 11 02 ff ff       	callq  e6f3 <transparent_crc>
   1e4e2:	8b 45 e8             	mov    -0x18(%rbp),%eax
   1e4e5:	48 63 d0             	movslq %eax,%rdx
   1e4e8:	48 89 d0             	mov    %rdx,%rax
   1e4eb:	48 01 c0             	add    %rax,%rax
   1e4ee:	48 01 d0             	add    %rdx,%rax
   1e4f1:	48 c1 e0 03          	shl    $0x3,%rax
   1e4f5:	48 89 c2             	mov    %rax,%rdx
   1e4f8:	48 8d 05 61 74 00 00 	lea    0x7461(%rip),%rax        # 25960 <g_5081>
   1e4ff:	8b 44 02 0c          	mov    0xc(%rdx,%rax,1),%eax
   1e503:	25 ff ff 3f 00       	and    $0x3fffff,%eax
   1e508:	89 c1                	mov    %eax,%ecx
   1e50a:	8b 45 f4             	mov    -0xc(%rbp),%eax
   1e50d:	89 c2                	mov    %eax,%edx
   1e50f:	48 8d 35 6a 30 00 00 	lea    0x306a(%rip),%rsi        # 21580 <g_5046+0x1e60>
   1e516:	48 89 cf             	mov    %rcx,%rdi
   1e519:	e8 d5 01 ff ff       	callq  e6f3 <transparent_crc>
   1e51e:	8b 45 e8             	mov    -0x18(%rbp),%eax
   1e521:	48 63 d0             	movslq %eax,%rdx
   1e524:	48 89 d0             	mov    %rdx,%rax
   1e527:	48 01 c0             	add    %rax,%rax
   1e52a:	48 01 d0             	add    %rdx,%rax
   1e52d:	48 c1 e0 03          	shl    $0x3,%rax
   1e531:	48 89 c2             	mov    %rax,%rdx
   1e534:	48 8d 05 35 74 00 00 	lea    0x7435(%rip),%rax        # 25970 <g_5081+0x10>
   1e53b:	48 8b 04 02          	mov    (%rdx,%rax,1),%rax
   1e53f:	c1 e0 03             	shl    $0x3,%eax
   1e542:	c1 f8 03             	sar    $0x3,%eax
   1e545:	48 98                	cltq   
   1e547:	8b 55 f4             	mov    -0xc(%rbp),%edx
   1e54a:	48 8d 35 3c 30 00 00 	lea    0x303c(%rip),%rsi        # 2158d <g_5046+0x1e6d>
   1e551:	48 89 c7             	mov    %rax,%rdi
   1e554:	e8 9a 01 ff ff       	callq  e6f3 <transparent_crc>
   1e559:	8b 45 e8             	mov    -0x18(%rbp),%eax
   1e55c:	48 63 d0             	movslq %eax,%rdx
   1e55f:	48 89 d0             	mov    %rdx,%rax
   1e562:	48 01 c0             	add    %rax,%rax
   1e565:	48 01 d0             	add    %rdx,%rax
   1e568:	48 c1 e0 03          	shl    $0x3,%rax
   1e56c:	48 89 c2             	mov    %rax,%rdx
   1e56f:	48 8d 05 fa 73 00 00 	lea    0x73fa(%rip),%rax        # 25970 <g_5081+0x10>
   1e576:	8b 44 02 04          	mov    0x4(%rdx,%rax,1),%eax
   1e57a:	c1 e0 04             	shl    $0x4,%eax
   1e57d:	c1 f8 04             	sar    $0x4,%eax
   1e580:	48 98                	cltq   
   1e582:	8b 55 f4             	mov    -0xc(%rbp),%edx
   1e585:	48 8d 35 0e 30 00 00 	lea    0x300e(%rip),%rsi        # 2159a <g_5046+0x1e7a>
   1e58c:	48 89 c7             	mov    %rax,%rdi
   1e58f:	e8 5f 01 ff ff       	callq  e6f3 <transparent_crc>
   1e594:	83 7d f4 00          	cmpl   $0x0,-0xc(%rbp)
   1e598:	74 16                	je     1e5b0 <main+0x4f00>
   1e59a:	8b 45 e8             	mov    -0x18(%rbp),%eax
   1e59d:	89 c6                	mov    %eax,%esi
   1e59f:	48 8d 3d 90 1e 00 00 	lea    0x1e90(%rip),%rdi        # 20436 <g_5046+0xd16>
   1e5a6:	b8 00 00 00 00       	mov    $0x0,%eax
   1e5ab:	e8 d0 ea fe ff       	callq  d080 <printf@plt>
   1e5b0:	83 45 e8 01          	addl   $0x1,-0x18(%rbp)
   1e5b4:	83 7d e8 05          	cmpl   $0x5,-0x18(%rbp)
   1e5b8:	0f 8e f4 fd ff ff    	jle    1e3b2 <main+0x4d02>
   1e5be:	8b 05 2c 74 00 00    	mov    0x742c(%rip),%eax        # 259f0 <g_5143>
   1e5c4:	48 98                	cltq   
   1e5c6:	8b 55 f4             	mov    -0xc(%rbp),%edx
   1e5c9:	48 8d 35 d7 2f 00 00 	lea    0x2fd7(%rip),%rsi        # 215a7 <g_5046+0x1e87>
   1e5d0:	48 89 c7             	mov    %rax,%rdi
   1e5d3:	e8 1b 01 ff ff       	callq  e6f3 <transparent_crc>
   1e5d8:	48 8b 05 21 74 00 00 	mov    0x7421(%rip),%rax        # 25a00 <g_5175>
   1e5df:	c1 e0 0d             	shl    $0xd,%eax
   1e5e2:	c1 f8 0d             	sar    $0xd,%eax
   1e5e5:	48 98                	cltq   
   1e5e7:	8b 55 f4             	mov    -0xc(%rbp),%edx
   1e5ea:	48 8d 35 bd 2f 00 00 	lea    0x2fbd(%rip),%rsi        # 215ae <g_5046+0x1e8e>
   1e5f1:	48 89 c7             	mov    %rax,%rdi
   1e5f4:	e8 fa 00 ff ff       	callq  e6f3 <transparent_crc>
   1e5f9:	8b 05 05 74 00 00    	mov    0x7405(%rip),%eax        # 25a04 <g_5175+0x4>
   1e5ff:	c1 e0 02             	shl    $0x2,%eax
   1e602:	c1 f8 02             	sar    $0x2,%eax
   1e605:	48 98                	cltq   
   1e607:	8b 55 f4             	mov    -0xc(%rbp),%edx
   1e60a:	48 8d 35 a7 2f 00 00 	lea    0x2fa7(%rip),%rsi        # 215b8 <g_5046+0x1e98>
   1e611:	48 89 c7             	mov    %rax,%rdi
   1e614:	e8 da 00 ff ff       	callq  e6f3 <transparent_crc>
   1e619:	0f b7 05 e8 73 00 00 	movzwl 0x73e8(%rip),%eax        # 25a08 <g_5175+0x8>
   1e620:	c1 e0 07             	shl    $0x7,%eax
   1e623:	66 c1 f8 07          	sar    $0x7,%ax
   1e627:	48 0f bf c0          	movswq %ax,%rax
   1e62b:	8b 55 f4             	mov    -0xc(%rbp),%edx
   1e62e:	48 8d 35 8d 2f 00 00 	lea    0x2f8d(%rip),%rsi        # 215c2 <g_5046+0x1ea2>
   1e635:	48 89 c7             	mov    %rax,%rdi
   1e638:	e8 b6 00 ff ff       	callq  e6f3 <transparent_crc>
   1e63d:	8b 05 c5 73 00 00    	mov    0x73c5(%rip),%eax        # 25a08 <g_5175+0x8>
   1e643:	c1 e0 07             	shl    $0x7,%eax
   1e646:	c1 f8 10             	sar    $0x10,%eax
   1e649:	48 0f bf c0          	movswq %ax,%rax
   1e64d:	8b 55 f4             	mov    -0xc(%rbp),%edx
   1e650:	48 8d 35 75 2f 00 00 	lea    0x2f75(%rip),%rsi        # 215cc <g_5046+0x1eac>
   1e657:	48 89 c7             	mov    %rax,%rdi
   1e65a:	e8 94 00 ff ff       	callq  e6f3 <transparent_crc>
   1e65f:	0f b6 05 a5 73 00 00 	movzbl 0x73a5(%rip),%eax        # 25a0b <g_5175+0xb>
   1e666:	c1 e0 06             	shl    $0x6,%eax
   1e669:	c0 f8 07             	sar    $0x7,%al
   1e66c:	48 0f be c0          	movsbq %al,%rax
   1e670:	8b 55 f4             	mov    -0xc(%rbp),%edx
   1e673:	48 8d 35 5c 2f 00 00 	lea    0x2f5c(%rip),%rsi        # 215d6 <g_5046+0x1eb6>
   1e67a:	48 89 c7             	mov    %rax,%rdi
   1e67d:	e8 71 00 ff ff       	callq  e6f3 <transparent_crc>
   1e682:	8b 05 84 73 00 00    	mov    0x7384(%rip),%eax        # 25a0c <g_5175+0xc>
   1e688:	25 ff ff 3f 00       	and    $0x3fffff,%eax
   1e68d:	89 c1                	mov    %eax,%ecx
   1e68f:	8b 45 f4             	mov    -0xc(%rbp),%eax
   1e692:	89 c2                	mov    %eax,%edx
   1e694:	48 8d 35 45 2f 00 00 	lea    0x2f45(%rip),%rsi        # 215e0 <g_5046+0x1ec0>
   1e69b:	48 89 cf             	mov    %rcx,%rdi
   1e69e:	e8 50 00 ff ff       	callq  e6f3 <transparent_crc>
   1e6a3:	48 8b 05 66 73 00 00 	mov    0x7366(%rip),%rax        # 25a10 <g_5175+0x10>
   1e6aa:	c1 e0 03             	shl    $0x3,%eax
   1e6ad:	c1 f8 03             	sar    $0x3,%eax
   1e6b0:	48 98                	cltq   
   1e6b2:	8b 55 f4             	mov    -0xc(%rbp),%edx
   1e6b5:	48 8d 35 2e 2f 00 00 	lea    0x2f2e(%rip),%rsi        # 215ea <g_5046+0x1eca>
   1e6bc:	48 89 c7             	mov    %rax,%rdi
   1e6bf:	e8 2f 00 ff ff       	callq  e6f3 <transparent_crc>
   1e6c4:	8b 05 4a 73 00 00    	mov    0x734a(%rip),%eax        # 25a14 <g_5175+0x14>
   1e6ca:	c1 e0 04             	shl    $0x4,%eax
   1e6cd:	c1 f8 04             	sar    $0x4,%eax
   1e6d0:	48 98                	cltq   
   1e6d2:	8b 55 f4             	mov    -0xc(%rbp),%edx
   1e6d5:	48 8d 35 18 2f 00 00 	lea    0x2f18(%rip),%rsi        # 215f4 <g_5046+0x1ed4>
   1e6dc:	48 89 c7             	mov    %rax,%rdi
   1e6df:	e8 0f 00 ff ff       	callq  e6f3 <transparent_crc>
   1e6e4:	0f b7 05 2d 73 00 00 	movzwl 0x732d(%rip),%eax        # 25a18 <g_5189>
   1e6eb:	0f b7 c0             	movzwl %ax,%eax
   1e6ee:	8b 55 f4             	mov    -0xc(%rbp),%edx
   1e6f1:	48 8d 35 06 2f 00 00 	lea    0x2f06(%rip),%rsi        # 215fe <g_5046+0x1ede>
   1e6f8:	48 89 c7             	mov    %rax,%rdi
   1e6fb:	e8 f3 ff fe ff       	callq  e6f3 <transparent_crc>
   1e700:	48 8b 05 19 73 00 00 	mov    0x7319(%rip),%rax        # 25a20 <g_5191>
   1e707:	c1 e0 0d             	shl    $0xd,%eax
   1e70a:	c1 f8 0d             	sar    $0xd,%eax
   1e70d:	48 98                	cltq   
   1e70f:	8b 55 f4             	mov    -0xc(%rbp),%edx
   1e712:	48 8d 35 ec 2e 00 00 	lea    0x2eec(%rip),%rsi        # 21605 <g_5046+0x1ee5>
   1e719:	48 89 c7             	mov    %rax,%rdi
   1e71c:	e8 d2 ff fe ff       	callq  e6f3 <transparent_crc>
   1e721:	8b 05 fd 72 00 00    	mov    0x72fd(%rip),%eax        # 25a24 <g_5191+0x4>
   1e727:	c1 e0 02             	shl    $0x2,%eax
   1e72a:	c1 f8 02             	sar    $0x2,%eax
   1e72d:	48 98                	cltq   
   1e72f:	8b 55 f4             	mov    -0xc(%rbp),%edx
   1e732:	48 8d 35 d6 2e 00 00 	lea    0x2ed6(%rip),%rsi        # 2160f <g_5046+0x1eef>
   1e739:	48 89 c7             	mov    %rax,%rdi
   1e73c:	e8 b2 ff fe ff       	callq  e6f3 <transparent_crc>
   1e741:	0f b7 05 e0 72 00 00 	movzwl 0x72e0(%rip),%eax        # 25a28 <g_5191+0x8>
   1e748:	c1 e0 07             	shl    $0x7,%eax
   1e74b:	66 c1 f8 07          	sar    $0x7,%ax
   1e74f:	48 0f bf c0          	movswq %ax,%rax
   1e753:	8b 55 f4             	mov    -0xc(%rbp),%edx
   1e756:	48 8d 35 bc 2e 00 00 	lea    0x2ebc(%rip),%rsi        # 21619 <g_5046+0x1ef9>
   1e75d:	48 89 c7             	mov    %rax,%rdi
   1e760:	e8 8e ff fe ff       	callq  e6f3 <transparent_crc>
   1e765:	8b 05 bd 72 00 00    	mov    0x72bd(%rip),%eax        # 25a28 <g_5191+0x8>
   1e76b:	c1 e0 07             	shl    $0x7,%eax
   1e76e:	c1 f8 10             	sar    $0x10,%eax
   1e771:	48 0f bf c0          	movswq %ax,%rax
   1e775:	8b 55 f4             	mov    -0xc(%rbp),%edx
   1e778:	48 8d 35 a4 2e 00 00 	lea    0x2ea4(%rip),%rsi        # 21623 <g_5046+0x1f03>
   1e77f:	48 89 c7             	mov    %rax,%rdi
   1e782:	e8 6c ff fe ff       	callq  e6f3 <transparent_crc>
   1e787:	0f b6 05 9d 72 00 00 	movzbl 0x729d(%rip),%eax        # 25a2b <g_5191+0xb>
   1e78e:	c1 e0 06             	shl    $0x6,%eax
   1e791:	c0 f8 07             	sar    $0x7,%al
   1e794:	48 0f be c0          	movsbq %al,%rax
   1e798:	8b 55 f4             	mov    -0xc(%rbp),%edx
   1e79b:	48 8d 35 8b 2e 00 00 	lea    0x2e8b(%rip),%rsi        # 2162d <g_5046+0x1f0d>
   1e7a2:	48 89 c7             	mov    %rax,%rdi
   1e7a5:	e8 49 ff fe ff       	callq  e6f3 <transparent_crc>
   1e7aa:	8b 05 7c 72 00 00    	mov    0x727c(%rip),%eax        # 25a2c <g_5191+0xc>
   1e7b0:	25 ff ff 3f 00       	and    $0x3fffff,%eax
   1e7b5:	89 c1                	mov    %eax,%ecx
   1e7b7:	8b 45 f4             	mov    -0xc(%rbp),%eax
   1e7ba:	89 c2                	mov    %eax,%edx
   1e7bc:	48 8d 35 74 2e 00 00 	lea    0x2e74(%rip),%rsi        # 21637 <g_5046+0x1f17>
   1e7c3:	48 89 cf             	mov    %rcx,%rdi
   1e7c6:	e8 28 ff fe ff       	callq  e6f3 <transparent_crc>
   1e7cb:	48 8b 05 5e 72 00 00 	mov    0x725e(%rip),%rax        # 25a30 <g_5191+0x10>
   1e7d2:	c1 e0 03             	shl    $0x3,%eax
   1e7d5:	c1 f8 03             	sar    $0x3,%eax
   1e7d8:	48 98                	cltq   
   1e7da:	8b 55 f4             	mov    -0xc(%rbp),%edx
   1e7dd:	48 8d 35 5d 2e 00 00 	lea    0x2e5d(%rip),%rsi        # 21641 <g_5046+0x1f21>
   1e7e4:	48 89 c7             	mov    %rax,%rdi
   1e7e7:	e8 07 ff fe ff       	callq  e6f3 <transparent_crc>
   1e7ec:	8b 05 42 72 00 00    	mov    0x7242(%rip),%eax        # 25a34 <g_5191+0x14>
   1e7f2:	c1 e0 04             	shl    $0x4,%eax
   1e7f5:	c1 f8 04             	sar    $0x4,%eax
   1e7f8:	48 98                	cltq   
   1e7fa:	8b 55 f4             	mov    -0xc(%rbp),%edx
   1e7fd:	48 8d 35 47 2e 00 00 	lea    0x2e47(%rip),%rsi        # 2164b <g_5046+0x1f2b>
   1e804:	48 89 c7             	mov    %rax,%rdi
   1e807:	e8 e7 fe fe ff       	callq  e6f3 <transparent_crc>
   1e80c:	48 8b 05 2d 72 00 00 	mov    0x722d(%rip),%rax        # 25a40 <g_5192>
   1e813:	c1 e0 0d             	shl    $0xd,%eax
   1e816:	c1 f8 0d             	sar    $0xd,%eax
   1e819:	48 98                	cltq   
   1e81b:	8b 55 f4             	mov    -0xc(%rbp),%edx
   1e81e:	48 8d 35 30 2e 00 00 	lea    0x2e30(%rip),%rsi        # 21655 <g_5046+0x1f35>
   1e825:	48 89 c7             	mov    %rax,%rdi
   1e828:	e8 c6 fe fe ff       	callq  e6f3 <transparent_crc>
   1e82d:	8b 05 11 72 00 00    	mov    0x7211(%rip),%eax        # 25a44 <g_5192+0x4>
   1e833:	c1 e0 02             	shl    $0x2,%eax
   1e836:	c1 f8 02             	sar    $0x2,%eax
   1e839:	48 98                	cltq   
   1e83b:	8b 55 f4             	mov    -0xc(%rbp),%edx
   1e83e:	48 8d 35 1a 2e 00 00 	lea    0x2e1a(%rip),%rsi        # 2165f <g_5046+0x1f3f>
   1e845:	48 89 c7             	mov    %rax,%rdi
   1e848:	e8 a6 fe fe ff       	callq  e6f3 <transparent_crc>
   1e84d:	0f b7 05 f4 71 00 00 	movzwl 0x71f4(%rip),%eax        # 25a48 <g_5192+0x8>
   1e854:	c1 e0 07             	shl    $0x7,%eax
   1e857:	66 c1 f8 07          	sar    $0x7,%ax
   1e85b:	48 0f bf c0          	movswq %ax,%rax
   1e85f:	8b 55 f4             	mov    -0xc(%rbp),%edx
   1e862:	48 8d 35 00 2e 00 00 	lea    0x2e00(%rip),%rsi        # 21669 <g_5046+0x1f49>
   1e869:	48 89 c7             	mov    %rax,%rdi
   1e86c:	e8 82 fe fe ff       	callq  e6f3 <transparent_crc>
   1e871:	8b 05 d1 71 00 00    	mov    0x71d1(%rip),%eax        # 25a48 <g_5192+0x8>
   1e877:	c1 e0 07             	shl    $0x7,%eax
   1e87a:	c1 f8 10             	sar    $0x10,%eax
   1e87d:	48 0f bf c0          	movswq %ax,%rax
   1e881:	8b 55 f4             	mov    -0xc(%rbp),%edx
   1e884:	48 8d 35 e8 2d 00 00 	lea    0x2de8(%rip),%rsi        # 21673 <g_5046+0x1f53>
   1e88b:	48 89 c7             	mov    %rax,%rdi
   1e88e:	e8 60 fe fe ff       	callq  e6f3 <transparent_crc>
   1e893:	0f b6 05 b1 71 00 00 	movzbl 0x71b1(%rip),%eax        # 25a4b <g_5192+0xb>
   1e89a:	c1 e0 06             	shl    $0x6,%eax
   1e89d:	c0 f8 07             	sar    $0x7,%al
   1e8a0:	48 0f be c0          	movsbq %al,%rax
   1e8a4:	8b 55 f4             	mov    -0xc(%rbp),%edx
   1e8a7:	48 8d 35 cf 2d 00 00 	lea    0x2dcf(%rip),%rsi        # 2167d <g_5046+0x1f5d>
   1e8ae:	48 89 c7             	mov    %rax,%rdi
   1e8b1:	e8 3d fe fe ff       	callq  e6f3 <transparent_crc>
   1e8b6:	8b 05 90 71 00 00    	mov    0x7190(%rip),%eax        # 25a4c <g_5192+0xc>
   1e8bc:	25 ff ff 3f 00       	and    $0x3fffff,%eax
   1e8c1:	89 c1                	mov    %eax,%ecx
   1e8c3:	8b 45 f4             	mov    -0xc(%rbp),%eax
   1e8c6:	89 c2                	mov    %eax,%edx
   1e8c8:	48 8d 35 b8 2d 00 00 	lea    0x2db8(%rip),%rsi        # 21687 <g_5046+0x1f67>
   1e8cf:	48 89 cf             	mov    %rcx,%rdi
   1e8d2:	e8 1c fe fe ff       	callq  e6f3 <transparent_crc>
   1e8d7:	48 8b 05 72 71 00 00 	mov    0x7172(%rip),%rax        # 25a50 <g_5192+0x10>
   1e8de:	c1 e0 03             	shl    $0x3,%eax
   1e8e1:	c1 f8 03             	sar    $0x3,%eax
   1e8e4:	48 98                	cltq   
   1e8e6:	8b 55 f4             	mov    -0xc(%rbp),%edx
   1e8e9:	48 8d 35 a1 2d 00 00 	lea    0x2da1(%rip),%rsi        # 21691 <g_5046+0x1f71>
   1e8f0:	48 89 c7             	mov    %rax,%rdi
   1e8f3:	e8 fb fd fe ff       	callq  e6f3 <transparent_crc>
   1e8f8:	8b 05 56 71 00 00    	mov    0x7156(%rip),%eax        # 25a54 <g_5192+0x14>
   1e8fe:	c1 e0 04             	shl    $0x4,%eax
   1e901:	c1 f8 04             	sar    $0x4,%eax
   1e904:	48 98                	cltq   
   1e906:	8b 55 f4             	mov    -0xc(%rbp),%edx
   1e909:	48 8d 35 8b 2d 00 00 	lea    0x2d8b(%rip),%rsi        # 2169b <g_5046+0x1f7b>
   1e910:	48 89 c7             	mov    %rax,%rdi
   1e913:	e8 db fd fe ff       	callq  e6f3 <transparent_crc>
   1e918:	8b 05 02 57 00 00    	mov    0x5702(%rip),%eax        # 24020 <crc32_context>
   1e91e:	f7 d0                	not    %eax
   1e920:	89 c2                	mov    %eax,%edx
   1e922:	8b 45 f4             	mov    -0xc(%rbp),%eax
   1e925:	89 c6                	mov    %eax,%esi
   1e927:	89 d7                	mov    %edx,%edi
   1e929:	e8 66 e8 fe ff       	callq  d194 <platform_main_end>
   1e92e:	b8 00 00 00 00       	mov    $0x0,%eax
   1e933:	48 8b 4d f8          	mov    -0x8(%rbp),%rcx
   1e937:	64 48 33 0c 25 28 00 	xor    %fs:0x28,%rcx
   1e93e:	00 00 
   1e940:	74 05                	je     1e947 <main+0x5297>
   1e942:	e8 29 e7 fe ff       	callq  d070 <__stack_chk_fail@plt>
   1e947:	c9                   	leaveq 
   1e948:	c3                   	retq   
   1e949:	0f 1f 80 00 00 00 00 	nopl   0x0(%rax)

000000000001e950 <__libc_csu_init>:
   1e950:	f3 0f 1e fa          	endbr64 
   1e954:	41 57                	push   %r15
   1e956:	4c 8d 3d 13 54 00 00 	lea    0x5413(%rip),%r15        # 23d70 <__frame_dummy_init_array_entry>
   1e95d:	41 56                	push   %r14
   1e95f:	49 89 d6             	mov    %rdx,%r14
   1e962:	41 55                	push   %r13
   1e964:	49 89 f5             	mov    %rsi,%r13
   1e967:	41 54                	push   %r12
   1e969:	41 89 fc             	mov    %edi,%r12d
   1e96c:	55                   	push   %rbp
   1e96d:	48 8d 2d 04 54 00 00 	lea    0x5404(%rip),%rbp        # 23d78 <__do_global_dtors_aux_fini_array_entry>
   1e974:	53                   	push   %rbx
   1e975:	4c 29 fd             	sub    %r15,%rbp
   1e978:	48 83 ec 08          	sub    $0x8,%rsp
   1e97c:	e8 7f e6 fe ff       	callq  d000 <_init>
   1e981:	48 c1 fd 03          	sar    $0x3,%rbp
   1e985:	74 1f                	je     1e9a6 <__libc_csu_init+0x56>
   1e987:	31 db                	xor    %ebx,%ebx
   1e989:	0f 1f 80 00 00 00 00 	nopl   0x0(%rax)
   1e990:	4c 89 f2             	mov    %r14,%rdx
   1e993:	4c 89 ee             	mov    %r13,%rsi
   1e996:	44 89 e7             	mov    %r12d,%edi
   1e999:	41 ff 14 df          	callq  *(%r15,%rbx,8)
   1e99d:	48 83 c3 01          	add    $0x1,%rbx
   1e9a1:	48 39 dd             	cmp    %rbx,%rbp
   1e9a4:	75 ea                	jne    1e990 <__libc_csu_init+0x40>
   1e9a6:	48 83 c4 08          	add    $0x8,%rsp
   1e9aa:	5b                   	pop    %rbx
   1e9ab:	5d                   	pop    %rbp
   1e9ac:	41 5c                	pop    %r12
   1e9ae:	41 5d                	pop    %r13
   1e9b0:	41 5e                	pop    %r14
   1e9b2:	41 5f                	pop    %r15
   1e9b4:	c3                   	retq   
   1e9b5:	66 66 2e 0f 1f 84 00 	data16 nopw %cs:0x0(%rax,%rax,1)
   1e9bc:	00 00 00 00 

000000000001e9c0 <__libc_csu_fini>:
   1e9c0:	f3 0f 1e fa          	endbr64 
   1e9c4:	c3                   	retq   
