


Disassembly of section .text:

00000000000040a0 <_start>:
    40a0:	f3 0f 1e fa          	endbr64 
    40a4:	31 ed                	xor    %ebp,%ebp
    40a6:	49 89 d1             	mov    %rdx,%r9
    40a9:	5e                   	pop    %rsi
    40aa:	48 89 e2             	mov    %rsp,%rdx
    40ad:	48 83 e4 f0          	and    $0xfffffffffffffff0,%rsp
    40b1:	50                   	push   %rax
    40b2:	54                   	push   %rsp
    40b3:	4c 8d 05 a6 d2 00 00 	lea    0xd2a6(%rip),%r8        # 11360 <__libc_csu_fini>
    40ba:	48 8d 0d 2f d2 00 00 	lea    0xd22f(%rip),%rcx        # 112f0 <__libc_csu_init>
    40c1:	48 8d 3d 4f ca 00 00 	lea    0xca4f(%rip),%rdi        # 10b17 <main>
    40c8:	ff 15 12 1f 01 00    	callq  *0x11f12(%rip)        # 15fe0 <__libc_start_main@GLIBC_2.2.5>
    40ce:	f4                   	hlt    
    40cf:	90                   	nop

00000000000040d0 <deregister_tm_clones>:
    40d0:	48 8d 3d 01 39 01 00 	lea    0x13901(%rip),%rdi        # 179d8 <__TMC_END__>
    40d7:	48 8d 05 fa 38 01 00 	lea    0x138fa(%rip),%rax        # 179d8 <__TMC_END__>
    40de:	48 39 f8             	cmp    %rdi,%rax
    40e1:	74 15                	je     40f8 <deregister_tm_clones+0x28>
    40e3:	48 8b 05 ee 1e 01 00 	mov    0x11eee(%rip),%rax        # 15fd8 <_ITM_deregisterTMCloneTable>
    40ea:	48 85 c0             	test   %rax,%rax
    40ed:	74 09                	je     40f8 <deregister_tm_clones+0x28>
    40ef:	ff e0                	jmpq   *%rax
    40f1:	0f 1f 80 00 00 00 00 	nopl   0x0(%rax)
    40f8:	c3                   	retq   
    40f9:	0f 1f 80 00 00 00 00 	nopl   0x0(%rax)

0000000000004100 <register_tm_clones>:
    4100:	48 8d 3d d1 38 01 00 	lea    0x138d1(%rip),%rdi        # 179d8 <__TMC_END__>
    4107:	48 8d 35 ca 38 01 00 	lea    0x138ca(%rip),%rsi        # 179d8 <__TMC_END__>
    410e:	48 29 fe             	sub    %rdi,%rsi
    4111:	48 89 f0             	mov    %rsi,%rax
    4114:	48 c1 ee 3f          	shr    $0x3f,%rsi
    4118:	48 c1 f8 03          	sar    $0x3,%rax
    411c:	48 01 c6             	add    %rax,%rsi
    411f:	48 d1 fe             	sar    %rsi
    4122:	74 14                	je     4138 <register_tm_clones+0x38>
    4124:	48 8b 05 c5 1e 01 00 	mov    0x11ec5(%rip),%rax        # 15ff0 <_ITM_registerTMCloneTable>
    412b:	48 85 c0             	test   %rax,%rax
    412e:	74 08                	je     4138 <register_tm_clones+0x38>
    4130:	ff e0                	jmpq   *%rax
    4132:	66 0f 1f 44 00 00    	nopw   0x0(%rax,%rax,1)
    4138:	c3                   	retq   
    4139:	0f 1f 80 00 00 00 00 	nopl   0x0(%rax)

0000000000004140 <__do_global_dtors_aux>:
    4140:	f3 0f 1e fa          	endbr64 
    4144:	80 3d 95 38 01 00 00 	cmpb   $0x0,0x13895(%rip)        # 179e0 <completed.8061>
    414b:	75 2b                	jne    4178 <__do_global_dtors_aux+0x38>
    414d:	55                   	push   %rbp
    414e:	48 83 3d a2 1e 01 00 	cmpq   $0x0,0x11ea2(%rip)        # 15ff8 <__cxa_finalize@GLIBC_2.2.5>
    4155:	00 
    4156:	48 89 e5             	mov    %rsp,%rbp
    4159:	74 0c                	je     4167 <__do_global_dtors_aux+0x27>
    415b:	48 8b 3d a6 1e 01 00 	mov    0x11ea6(%rip),%rdi        # 16008 <__dso_handle>
    4162:	e8 f9 fe ff ff       	callq  4060 <__cxa_finalize@plt>
    4167:	e8 64 ff ff ff       	callq  40d0 <deregister_tm_clones>
    416c:	c6 05 6d 38 01 00 01 	movb   $0x1,0x1386d(%rip)        # 179e0 <completed.8061>
    4173:	5d                   	pop    %rbp
    4174:	c3                   	retq   
    4175:	0f 1f 00             	nopl   (%rax)
    4178:	c3                   	retq   
    4179:	0f 1f 80 00 00 00 00 	nopl   0x0(%rax)

0000000000004180 <frame_dummy>:
    4180:	f3 0f 1e fa          	endbr64 
    4184:	e9 77 ff ff ff       	jmpq   4100 <register_tm_clones>

0000000000004189 <platform_main_begin>:
    4189:	f3 0f 1e fa          	endbr64 
    418d:	55                   	push   %rbp
    418e:	48 89 e5             	mov    %rsp,%rbp
    4191:	90                   	nop
    4192:	5d                   	pop    %rbp
    4193:	c3                   	retq   

0000000000004194 <platform_main_end>:
    4194:	f3 0f 1e fa          	endbr64 
    4198:	55                   	push   %rbp
    4199:	48 89 e5             	mov    %rsp,%rbp
    419c:	48 83 ec 10          	sub    $0x10,%rsp
    41a0:	89 7d fc             	mov    %edi,-0x4(%rbp)
    41a3:	89 75 f8             	mov    %esi,-0x8(%rbp)
    41a6:	8b 45 fc             	mov    -0x4(%rbp),%eax
    41a9:	89 c6                	mov    %eax,%esi
    41ab:	48 8d 3d 6e de 00 00 	lea    0xde6e(%rip),%rdi        # 12020 <_IO_stdin_used+0x20>
    41b2:	b8 00 00 00 00       	mov    $0x0,%eax
    41b7:	e8 c4 fe ff ff       	callq  4080 <printf@plt>
    41bc:	90                   	nop
    41bd:	c9                   	leaveq 
    41be:	c3                   	retq   

00000000000041bf <safe_unary_minus_func_int8_t_s>:
    41bf:	f3 0f 1e fa          	endbr64 
    41c3:	55                   	push   %rbp
    41c4:	48 89 e5             	mov    %rsp,%rbp
    41c7:	89 f8                	mov    %edi,%eax
    41c9:	88 45 fc             	mov    %al,-0x4(%rbp)
    41cc:	0f b6 45 fc          	movzbl -0x4(%rbp),%eax
    41d0:	f7 d8                	neg    %eax
    41d2:	5d                   	pop    %rbp
    41d3:	c3                   	retq   

00000000000041d4 <safe_add_func_int8_t_s_s>:
    41d4:	f3 0f 1e fa          	endbr64 
    41d8:	55                   	push   %rbp
    41d9:	48 89 e5             	mov    %rsp,%rbp
    41dc:	89 fa                	mov    %edi,%edx
    41de:	89 f0                	mov    %esi,%eax
    41e0:	88 55 fc             	mov    %dl,-0x4(%rbp)
    41e3:	88 45 f8             	mov    %al,-0x8(%rbp)
    41e6:	0f b6 55 fc          	movzbl -0x4(%rbp),%edx
    41ea:	0f b6 45 f8          	movzbl -0x8(%rbp),%eax
    41ee:	01 d0                	add    %edx,%eax
    41f0:	5d                   	pop    %rbp
    41f1:	c3                   	retq   

00000000000041f2 <safe_sub_func_int8_t_s_s>:
    41f2:	f3 0f 1e fa          	endbr64 
    41f6:	55                   	push   %rbp
    41f7:	48 89 e5             	mov    %rsp,%rbp
    41fa:	89 fa                	mov    %edi,%edx
    41fc:	89 f0                	mov    %esi,%eax
    41fe:	88 55 fc             	mov    %dl,-0x4(%rbp)
    4201:	88 45 f8             	mov    %al,-0x8(%rbp)
    4204:	0f b6 55 fc          	movzbl -0x4(%rbp),%edx
    4208:	0f b6 45 f8          	movzbl -0x8(%rbp),%eax
    420c:	29 c2                	sub    %eax,%edx
    420e:	89 d0                	mov    %edx,%eax
    4210:	5d                   	pop    %rbp
    4211:	c3                   	retq   

0000000000004212 <safe_mul_func_int8_t_s_s>:
    4212:	f3 0f 1e fa          	endbr64 
    4216:	55                   	push   %rbp
    4217:	48 89 e5             	mov    %rsp,%rbp
    421a:	89 fa                	mov    %edi,%edx
    421c:	89 f0                	mov    %esi,%eax
    421e:	88 55 fc             	mov    %dl,-0x4(%rbp)
    4221:	88 45 f8             	mov    %al,-0x8(%rbp)
    4224:	0f b6 45 fc          	movzbl -0x4(%rbp),%eax
    4228:	0f b6 55 f8          	movzbl -0x8(%rbp),%edx
    422c:	0f af c2             	imul   %edx,%eax
    422f:	5d                   	pop    %rbp
    4230:	c3                   	retq   

0000000000004231 <safe_mod_func_int8_t_s_s>:
    4231:	f3 0f 1e fa          	endbr64 
    4235:	55                   	push   %rbp
    4236:	48 89 e5             	mov    %rsp,%rbp
    4239:	89 fa                	mov    %edi,%edx
    423b:	89 f0                	mov    %esi,%eax
    423d:	88 55 fc             	mov    %dl,-0x4(%rbp)
    4240:	88 45 f8             	mov    %al,-0x8(%rbp)
    4243:	80 7d f8 00          	cmpb   $0x0,-0x8(%rbp)
    4247:	74 1b                	je     4264 <safe_mod_func_int8_t_s_s+0x33>
    4249:	80 7d fc 80          	cmpb   $0x80,-0x4(%rbp)
    424d:	75 06                	jne    4255 <safe_mod_func_int8_t_s_s+0x24>
    424f:	80 7d f8 ff          	cmpb   $0xff,-0x8(%rbp)
    4253:	74 0f                	je     4264 <safe_mod_func_int8_t_s_s+0x33>
    4255:	0f be 45 fc          	movsbl -0x4(%rbp),%eax
    4259:	0f be 4d f8          	movsbl -0x8(%rbp),%ecx
    425d:	99                   	cltd   
    425e:	f7 f9                	idiv   %ecx
    4260:	89 d0                	mov    %edx,%eax
    4262:	eb 04                	jmp    4268 <safe_mod_func_int8_t_s_s+0x37>
    4264:	0f b6 45 fc          	movzbl -0x4(%rbp),%eax
    4268:	5d                   	pop    %rbp
    4269:	c3                   	retq   

000000000000426a <safe_div_func_int8_t_s_s>:
    426a:	f3 0f 1e fa          	endbr64 
    426e:	55                   	push   %rbp
    426f:	48 89 e5             	mov    %rsp,%rbp
    4272:	89 fa                	mov    %edi,%edx
    4274:	89 f0                	mov    %esi,%eax
    4276:	88 55 fc             	mov    %dl,-0x4(%rbp)
    4279:	88 45 f8             	mov    %al,-0x8(%rbp)
    427c:	80 7d f8 00          	cmpb   $0x0,-0x8(%rbp)
    4280:	74 19                	je     429b <safe_div_func_int8_t_s_s+0x31>
    4282:	80 7d fc 80          	cmpb   $0x80,-0x4(%rbp)
    4286:	75 06                	jne    428e <safe_div_func_int8_t_s_s+0x24>
    4288:	80 7d f8 ff          	cmpb   $0xff,-0x8(%rbp)
    428c:	74 0d                	je     429b <safe_div_func_int8_t_s_s+0x31>
    428e:	0f be 45 fc          	movsbl -0x4(%rbp),%eax
    4292:	0f be 4d f8          	movsbl -0x8(%rbp),%ecx
    4296:	99                   	cltd   
    4297:	f7 f9                	idiv   %ecx
    4299:	eb 04                	jmp    429f <safe_div_func_int8_t_s_s+0x35>
    429b:	0f b6 45 fc          	movzbl -0x4(%rbp),%eax
    429f:	5d                   	pop    %rbp
    42a0:	c3                   	retq   

00000000000042a1 <safe_lshift_func_int8_t_s_s>:
    42a1:	f3 0f 1e fa          	endbr64 
    42a5:	55                   	push   %rbp
    42a6:	48 89 e5             	mov    %rsp,%rbp
    42a9:	89 f8                	mov    %edi,%eax
    42ab:	89 75 f8             	mov    %esi,-0x8(%rbp)
    42ae:	88 45 fc             	mov    %al,-0x4(%rbp)
    42b1:	80 7d fc 00          	cmpb   $0x0,-0x4(%rbp)
    42b5:	78 31                	js     42e8 <safe_lshift_func_int8_t_s_s+0x47>
    42b7:	83 7d f8 00          	cmpl   $0x0,-0x8(%rbp)
    42bb:	78 2b                	js     42e8 <safe_lshift_func_int8_t_s_s+0x47>
    42bd:	83 7d f8 1f          	cmpl   $0x1f,-0x8(%rbp)
    42c1:	7f 25                	jg     42e8 <safe_lshift_func_int8_t_s_s+0x47>
    42c3:	0f be 55 fc          	movsbl -0x4(%rbp),%edx
    42c7:	8b 45 f8             	mov    -0x8(%rbp),%eax
    42ca:	be 7f 00 00 00       	mov    $0x7f,%esi
    42cf:	89 c1                	mov    %eax,%ecx
    42d1:	d3 fe                	sar    %cl,%esi
    42d3:	89 f0                	mov    %esi,%eax
    42d5:	39 c2                	cmp    %eax,%edx
    42d7:	7f 0f                	jg     42e8 <safe_lshift_func_int8_t_s_s+0x47>
    42d9:	0f be 55 fc          	movsbl -0x4(%rbp),%edx
    42dd:	8b 45 f8             	mov    -0x8(%rbp),%eax
    42e0:	89 c1                	mov    %eax,%ecx
    42e2:	d3 e2                	shl    %cl,%edx
    42e4:	89 d0                	mov    %edx,%eax
    42e6:	eb 04                	jmp    42ec <safe_lshift_func_int8_t_s_s+0x4b>
    42e8:	0f b6 45 fc          	movzbl -0x4(%rbp),%eax
    42ec:	5d                   	pop    %rbp
    42ed:	c3                   	retq   

00000000000042ee <safe_lshift_func_int8_t_s_u>:
    42ee:	f3 0f 1e fa          	endbr64 
    42f2:	55                   	push   %rbp
    42f3:	48 89 e5             	mov    %rsp,%rbp
    42f6:	89 f8                	mov    %edi,%eax
    42f8:	89 75 f8             	mov    %esi,-0x8(%rbp)
    42fb:	88 45 fc             	mov    %al,-0x4(%rbp)
    42fe:	80 7d fc 00          	cmpb   $0x0,-0x4(%rbp)
    4302:	78 2b                	js     432f <safe_lshift_func_int8_t_s_u+0x41>
    4304:	83 7d f8 1f          	cmpl   $0x1f,-0x8(%rbp)
    4308:	77 25                	ja     432f <safe_lshift_func_int8_t_s_u+0x41>
    430a:	0f be 55 fc          	movsbl -0x4(%rbp),%edx
    430e:	8b 45 f8             	mov    -0x8(%rbp),%eax
    4311:	be 7f 00 00 00       	mov    $0x7f,%esi
    4316:	89 c1                	mov    %eax,%ecx
    4318:	d3 fe                	sar    %cl,%esi
    431a:	89 f0                	mov    %esi,%eax
    431c:	39 c2                	cmp    %eax,%edx
    431e:	7f 0f                	jg     432f <safe_lshift_func_int8_t_s_u+0x41>
    4320:	0f be 55 fc          	movsbl -0x4(%rbp),%edx
    4324:	8b 45 f8             	mov    -0x8(%rbp),%eax
    4327:	89 c1                	mov    %eax,%ecx
    4329:	d3 e2                	shl    %cl,%edx
    432b:	89 d0                	mov    %edx,%eax
    432d:	eb 04                	jmp    4333 <safe_lshift_func_int8_t_s_u+0x45>
    432f:	0f b6 45 fc          	movzbl -0x4(%rbp),%eax
    4333:	5d                   	pop    %rbp
    4334:	c3                   	retq   

0000000000004335 <safe_rshift_func_int8_t_s_s>:
    4335:	f3 0f 1e fa          	endbr64 
    4339:	55                   	push   %rbp
    433a:	48 89 e5             	mov    %rsp,%rbp
    433d:	89 f8                	mov    %edi,%eax
    433f:	89 75 f8             	mov    %esi,-0x8(%rbp)
    4342:	88 45 fc             	mov    %al,-0x4(%rbp)
    4345:	80 7d fc 00          	cmpb   $0x0,-0x4(%rbp)
    4349:	78 1b                	js     4366 <safe_rshift_func_int8_t_s_s+0x31>
    434b:	83 7d f8 00          	cmpl   $0x0,-0x8(%rbp)
    434f:	78 15                	js     4366 <safe_rshift_func_int8_t_s_s+0x31>
    4351:	83 7d f8 1f          	cmpl   $0x1f,-0x8(%rbp)
    4355:	7f 0f                	jg     4366 <safe_rshift_func_int8_t_s_s+0x31>
    4357:	0f be 55 fc          	movsbl -0x4(%rbp),%edx
    435b:	8b 45 f8             	mov    -0x8(%rbp),%eax
    435e:	89 c1                	mov    %eax,%ecx
    4360:	d3 fa                	sar    %cl,%edx
    4362:	89 d0                	mov    %edx,%eax
    4364:	eb 04                	jmp    436a <safe_rshift_func_int8_t_s_s+0x35>
    4366:	0f b6 45 fc          	movzbl -0x4(%rbp),%eax
    436a:	5d                   	pop    %rbp
    436b:	c3                   	retq   

000000000000436c <safe_rshift_func_int8_t_s_u>:
    436c:	f3 0f 1e fa          	endbr64 
    4370:	55                   	push   %rbp
    4371:	48 89 e5             	mov    %rsp,%rbp
    4374:	89 f8                	mov    %edi,%eax
    4376:	89 75 f8             	mov    %esi,-0x8(%rbp)
    4379:	88 45 fc             	mov    %al,-0x4(%rbp)
    437c:	80 7d fc 00          	cmpb   $0x0,-0x4(%rbp)
    4380:	78 15                	js     4397 <safe_rshift_func_int8_t_s_u+0x2b>
    4382:	83 7d f8 1f          	cmpl   $0x1f,-0x8(%rbp)
    4386:	77 0f                	ja     4397 <safe_rshift_func_int8_t_s_u+0x2b>
    4388:	0f be 55 fc          	movsbl -0x4(%rbp),%edx
    438c:	8b 45 f8             	mov    -0x8(%rbp),%eax
    438f:	89 c1                	mov    %eax,%ecx
    4391:	d3 fa                	sar    %cl,%edx
    4393:	89 d0                	mov    %edx,%eax
    4395:	eb 04                	jmp    439b <safe_rshift_func_int8_t_s_u+0x2f>
    4397:	0f b6 45 fc          	movzbl -0x4(%rbp),%eax
    439b:	5d                   	pop    %rbp
    439c:	c3                   	retq   

000000000000439d <safe_unary_minus_func_int16_t_s>:
    439d:	f3 0f 1e fa          	endbr64 
    43a1:	55                   	push   %rbp
    43a2:	48 89 e5             	mov    %rsp,%rbp
    43a5:	89 f8                	mov    %edi,%eax
    43a7:	66 89 45 fc          	mov    %ax,-0x4(%rbp)
    43ab:	0f b7 45 fc          	movzwl -0x4(%rbp),%eax
    43af:	f7 d8                	neg    %eax
    43b1:	5d                   	pop    %rbp
    43b2:	c3                   	retq   

00000000000043b3 <safe_add_func_int16_t_s_s>:
    43b3:	f3 0f 1e fa          	endbr64 
    43b7:	55                   	push   %rbp
    43b8:	48 89 e5             	mov    %rsp,%rbp
    43bb:	89 fa                	mov    %edi,%edx
    43bd:	89 f0                	mov    %esi,%eax
    43bf:	66 89 55 fc          	mov    %dx,-0x4(%rbp)
    43c3:	66 89 45 f8          	mov    %ax,-0x8(%rbp)
    43c7:	0f b7 55 fc          	movzwl -0x4(%rbp),%edx
    43cb:	0f b7 45 f8          	movzwl -0x8(%rbp),%eax
    43cf:	01 d0                	add    %edx,%eax
    43d1:	5d                   	pop    %rbp
    43d2:	c3                   	retq   

00000000000043d3 <safe_sub_func_int16_t_s_s>:
    43d3:	f3 0f 1e fa          	endbr64 
    43d7:	55                   	push   %rbp
    43d8:	48 89 e5             	mov    %rsp,%rbp
    43db:	89 fa                	mov    %edi,%edx
    43dd:	89 f0                	mov    %esi,%eax
    43df:	66 89 55 fc          	mov    %dx,-0x4(%rbp)
    43e3:	66 89 45 f8          	mov    %ax,-0x8(%rbp)
    43e7:	0f b7 55 fc          	movzwl -0x4(%rbp),%edx
    43eb:	0f b7 45 f8          	movzwl -0x8(%rbp),%eax
    43ef:	29 c2                	sub    %eax,%edx
    43f1:	89 d0                	mov    %edx,%eax
    43f3:	5d                   	pop    %rbp
    43f4:	c3                   	retq   

00000000000043f5 <safe_mul_func_int16_t_s_s>:
    43f5:	f3 0f 1e fa          	endbr64 
    43f9:	55                   	push   %rbp
    43fa:	48 89 e5             	mov    %rsp,%rbp
    43fd:	89 fa                	mov    %edi,%edx
    43ff:	89 f0                	mov    %esi,%eax
    4401:	66 89 55 fc          	mov    %dx,-0x4(%rbp)
    4405:	66 89 45 f8          	mov    %ax,-0x8(%rbp)
    4409:	0f b7 55 fc          	movzwl -0x4(%rbp),%edx
    440d:	0f b7 45 f8          	movzwl -0x8(%rbp),%eax
    4411:	0f af c2             	imul   %edx,%eax
    4414:	5d                   	pop    %rbp
    4415:	c3                   	retq   

0000000000004416 <safe_mod_func_int16_t_s_s>:
    4416:	f3 0f 1e fa          	endbr64 
    441a:	55                   	push   %rbp
    441b:	48 89 e5             	mov    %rsp,%rbp
    441e:	89 fa                	mov    %edi,%edx
    4420:	89 f0                	mov    %esi,%eax
    4422:	66 89 55 fc          	mov    %dx,-0x4(%rbp)
    4426:	66 89 45 f8          	mov    %ax,-0x8(%rbp)
    442a:	66 83 7d f8 00       	cmpw   $0x0,-0x8(%rbp)
    442f:	74 1e                	je     444f <safe_mod_func_int16_t_s_s+0x39>
    4431:	66 81 7d fc 00 80    	cmpw   $0x8000,-0x4(%rbp)
    4437:	75 07                	jne    4440 <safe_mod_func_int16_t_s_s+0x2a>
    4439:	66 83 7d f8 ff       	cmpw   $0xffff,-0x8(%rbp)
    443e:	74 0f                	je     444f <safe_mod_func_int16_t_s_s+0x39>
    4440:	0f bf 45 fc          	movswl -0x4(%rbp),%eax
    4444:	0f bf 4d f8          	movswl -0x8(%rbp),%ecx
    4448:	99                   	cltd   
    4449:	f7 f9                	idiv   %ecx
    444b:	89 d0                	mov    %edx,%eax
    444d:	eb 04                	jmp    4453 <safe_mod_func_int16_t_s_s+0x3d>
    444f:	0f b7 45 fc          	movzwl -0x4(%rbp),%eax
    4453:	5d                   	pop    %rbp
    4454:	c3                   	retq   

0000000000004455 <safe_div_func_int16_t_s_s>:
    4455:	f3 0f 1e fa          	endbr64 
    4459:	55                   	push   %rbp
    445a:	48 89 e5             	mov    %rsp,%rbp
    445d:	89 fa                	mov    %edi,%edx
    445f:	89 f0                	mov    %esi,%eax
    4461:	66 89 55 fc          	mov    %dx,-0x4(%rbp)
    4465:	66 89 45 f8          	mov    %ax,-0x8(%rbp)
    4469:	66 83 7d f8 00       	cmpw   $0x0,-0x8(%rbp)
    446e:	74 1c                	je     448c <safe_div_func_int16_t_s_s+0x37>
    4470:	66 81 7d fc 00 80    	cmpw   $0x8000,-0x4(%rbp)
    4476:	75 07                	jne    447f <safe_div_func_int16_t_s_s+0x2a>
    4478:	66 83 7d f8 ff       	cmpw   $0xffff,-0x8(%rbp)
    447d:	74 0d                	je     448c <safe_div_func_int16_t_s_s+0x37>
    447f:	0f bf 45 fc          	movswl -0x4(%rbp),%eax
    4483:	0f bf 4d f8          	movswl -0x8(%rbp),%ecx
    4487:	99                   	cltd   
    4488:	f7 f9                	idiv   %ecx
    448a:	eb 04                	jmp    4490 <safe_div_func_int16_t_s_s+0x3b>
    448c:	0f b7 45 fc          	movzwl -0x4(%rbp),%eax
    4490:	5d                   	pop    %rbp
    4491:	c3                   	retq   

0000000000004492 <safe_lshift_func_int16_t_s_s>:
    4492:	f3 0f 1e fa          	endbr64 
    4496:	55                   	push   %rbp
    4497:	48 89 e5             	mov    %rsp,%rbp
    449a:	89 f8                	mov    %edi,%eax
    449c:	89 75 f8             	mov    %esi,-0x8(%rbp)
    449f:	66 89 45 fc          	mov    %ax,-0x4(%rbp)
    44a3:	66 83 7d fc 00       	cmpw   $0x0,-0x4(%rbp)
    44a8:	78 31                	js     44db <safe_lshift_func_int16_t_s_s+0x49>
    44aa:	83 7d f8 00          	cmpl   $0x0,-0x8(%rbp)
    44ae:	78 2b                	js     44db <safe_lshift_func_int16_t_s_s+0x49>
    44b0:	83 7d f8 1f          	cmpl   $0x1f,-0x8(%rbp)
    44b4:	7f 25                	jg     44db <safe_lshift_func_int16_t_s_s+0x49>
    44b6:	0f bf 55 fc          	movswl -0x4(%rbp),%edx
    44ba:	8b 45 f8             	mov    -0x8(%rbp),%eax
    44bd:	be ff 7f 00 00       	mov    $0x7fff,%esi
    44c2:	89 c1                	mov    %eax,%ecx
    44c4:	d3 fe                	sar    %cl,%esi
    44c6:	89 f0                	mov    %esi,%eax
    44c8:	39 c2                	cmp    %eax,%edx
    44ca:	7f 0f                	jg     44db <safe_lshift_func_int16_t_s_s+0x49>
    44cc:	0f bf 55 fc          	movswl -0x4(%rbp),%edx
    44d0:	8b 45 f8             	mov    -0x8(%rbp),%eax
    44d3:	89 c1                	mov    %eax,%ecx
    44d5:	d3 e2                	shl    %cl,%edx
    44d7:	89 d0                	mov    %edx,%eax
    44d9:	eb 04                	jmp    44df <safe_lshift_func_int16_t_s_s+0x4d>
    44db:	0f b7 45 fc          	movzwl -0x4(%rbp),%eax
    44df:	5d                   	pop    %rbp
    44e0:	c3                   	retq   

00000000000044e1 <safe_lshift_func_int16_t_s_u>:
    44e1:	f3 0f 1e fa          	endbr64 
    44e5:	55                   	push   %rbp
    44e6:	48 89 e5             	mov    %rsp,%rbp
    44e9:	89 f8                	mov    %edi,%eax
    44eb:	89 75 f8             	mov    %esi,-0x8(%rbp)
    44ee:	66 89 45 fc          	mov    %ax,-0x4(%rbp)
    44f2:	66 83 7d fc 00       	cmpw   $0x0,-0x4(%rbp)
    44f7:	78 2b                	js     4524 <safe_lshift_func_int16_t_s_u+0x43>
    44f9:	83 7d f8 1f          	cmpl   $0x1f,-0x8(%rbp)
    44fd:	77 25                	ja     4524 <safe_lshift_func_int16_t_s_u+0x43>
    44ff:	0f bf 55 fc          	movswl -0x4(%rbp),%edx
    4503:	8b 45 f8             	mov    -0x8(%rbp),%eax
    4506:	be ff 7f 00 00       	mov    $0x7fff,%esi
    450b:	89 c1                	mov    %eax,%ecx
    450d:	d3 fe                	sar    %cl,%esi
    450f:	89 f0                	mov    %esi,%eax
    4511:	39 c2                	cmp    %eax,%edx
    4513:	7f 0f                	jg     4524 <safe_lshift_func_int16_t_s_u+0x43>
    4515:	0f bf 55 fc          	movswl -0x4(%rbp),%edx
    4519:	8b 45 f8             	mov    -0x8(%rbp),%eax
    451c:	89 c1                	mov    %eax,%ecx
    451e:	d3 e2                	shl    %cl,%edx
    4520:	89 d0                	mov    %edx,%eax
    4522:	eb 04                	jmp    4528 <safe_lshift_func_int16_t_s_u+0x47>
    4524:	0f b7 45 fc          	movzwl -0x4(%rbp),%eax
    4528:	5d                   	pop    %rbp
    4529:	c3                   	retq   

000000000000452a <safe_rshift_func_int16_t_s_s>:
    452a:	f3 0f 1e fa          	endbr64 
    452e:	55                   	push   %rbp
    452f:	48 89 e5             	mov    %rsp,%rbp
    4532:	89 f8                	mov    %edi,%eax
    4534:	89 75 f8             	mov    %esi,-0x8(%rbp)
    4537:	66 89 45 fc          	mov    %ax,-0x4(%rbp)
    453b:	66 83 7d fc 00       	cmpw   $0x0,-0x4(%rbp)
    4540:	78 1b                	js     455d <safe_rshift_func_int16_t_s_s+0x33>
    4542:	83 7d f8 00          	cmpl   $0x0,-0x8(%rbp)
    4546:	78 15                	js     455d <safe_rshift_func_int16_t_s_s+0x33>
    4548:	83 7d f8 1f          	cmpl   $0x1f,-0x8(%rbp)
    454c:	7f 0f                	jg     455d <safe_rshift_func_int16_t_s_s+0x33>
    454e:	0f bf 55 fc          	movswl -0x4(%rbp),%edx
    4552:	8b 45 f8             	mov    -0x8(%rbp),%eax
    4555:	89 c1                	mov    %eax,%ecx
    4557:	d3 fa                	sar    %cl,%edx
    4559:	89 d0                	mov    %edx,%eax
    455b:	eb 04                	jmp    4561 <safe_rshift_func_int16_t_s_s+0x37>
    455d:	0f b7 45 fc          	movzwl -0x4(%rbp),%eax
    4561:	5d                   	pop    %rbp
    4562:	c3                   	retq   

0000000000004563 <safe_rshift_func_int16_t_s_u>:
    4563:	f3 0f 1e fa          	endbr64 
    4567:	55                   	push   %rbp
    4568:	48 89 e5             	mov    %rsp,%rbp
    456b:	89 f8                	mov    %edi,%eax
    456d:	89 75 f8             	mov    %esi,-0x8(%rbp)
    4570:	66 89 45 fc          	mov    %ax,-0x4(%rbp)
    4574:	66 83 7d fc 00       	cmpw   $0x0,-0x4(%rbp)
    4579:	78 15                	js     4590 <safe_rshift_func_int16_t_s_u+0x2d>
    457b:	83 7d f8 1f          	cmpl   $0x1f,-0x8(%rbp)
    457f:	77 0f                	ja     4590 <safe_rshift_func_int16_t_s_u+0x2d>
    4581:	0f bf 55 fc          	movswl -0x4(%rbp),%edx
    4585:	8b 45 f8             	mov    -0x8(%rbp),%eax
    4588:	89 c1                	mov    %eax,%ecx
    458a:	d3 fa                	sar    %cl,%edx
    458c:	89 d0                	mov    %edx,%eax
    458e:	eb 04                	jmp    4594 <safe_rshift_func_int16_t_s_u+0x31>
    4590:	0f b7 45 fc          	movzwl -0x4(%rbp),%eax
    4594:	5d                   	pop    %rbp
    4595:	c3                   	retq   

0000000000004596 <safe_unary_minus_func_int32_t_s>:
    4596:	f3 0f 1e fa          	endbr64 
    459a:	55                   	push   %rbp
    459b:	48 89 e5             	mov    %rsp,%rbp
    459e:	89 7d fc             	mov    %edi,-0x4(%rbp)
    45a1:	81 7d fc 00 00 00 80 	cmpl   $0x80000000,-0x4(%rbp)
    45a8:	74 07                	je     45b1 <safe_unary_minus_func_int32_t_s+0x1b>
    45aa:	8b 45 fc             	mov    -0x4(%rbp),%eax
    45ad:	f7 d8                	neg    %eax
    45af:	eb 03                	jmp    45b4 <safe_unary_minus_func_int32_t_s+0x1e>
    45b1:	8b 45 fc             	mov    -0x4(%rbp),%eax
    45b4:	5d                   	pop    %rbp
    45b5:	c3                   	retq   

00000000000045b6 <safe_add_func_int32_t_s_s>:
    45b6:	f3 0f 1e fa          	endbr64 
    45ba:	55                   	push   %rbp
    45bb:	48 89 e5             	mov    %rsp,%rbp
    45be:	89 7d fc             	mov    %edi,-0x4(%rbp)
    45c1:	89 75 f8             	mov    %esi,-0x8(%rbp)
    45c4:	83 7d fc 00          	cmpl   $0x0,-0x4(%rbp)
    45c8:	7e 13                	jle    45dd <safe_add_func_int32_t_s_s+0x27>
    45ca:	83 7d f8 00          	cmpl   $0x0,-0x8(%rbp)
    45ce:	7e 0d                	jle    45dd <safe_add_func_int32_t_s_s+0x27>
    45d0:	b8 ff ff ff 7f       	mov    $0x7fffffff,%eax
    45d5:	2b 45 f8             	sub    -0x8(%rbp),%eax
    45d8:	39 45 fc             	cmp    %eax,-0x4(%rbp)
    45db:	7f 23                	jg     4600 <safe_add_func_int32_t_s_s+0x4a>
    45dd:	83 7d fc 00          	cmpl   $0x0,-0x4(%rbp)
    45e1:	79 13                	jns    45f6 <safe_add_func_int32_t_s_s+0x40>
    45e3:	83 7d f8 00          	cmpl   $0x0,-0x8(%rbp)
    45e7:	79 0d                	jns    45f6 <safe_add_func_int32_t_s_s+0x40>
    45e9:	b8 00 00 00 80       	mov    $0x80000000,%eax
    45ee:	2b 45 f8             	sub    -0x8(%rbp),%eax
    45f1:	39 45 fc             	cmp    %eax,-0x4(%rbp)
    45f4:	7c 0a                	jl     4600 <safe_add_func_int32_t_s_s+0x4a>
    45f6:	8b 55 fc             	mov    -0x4(%rbp),%edx
    45f9:	8b 45 f8             	mov    -0x8(%rbp),%eax
    45fc:	01 d0                	add    %edx,%eax
    45fe:	eb 03                	jmp    4603 <safe_add_func_int32_t_s_s+0x4d>
    4600:	8b 45 fc             	mov    -0x4(%rbp),%eax
    4603:	5d                   	pop    %rbp
    4604:	c3                   	retq   

0000000000004605 <safe_sub_func_int32_t_s_s>:
    4605:	f3 0f 1e fa          	endbr64 
    4609:	55                   	push   %rbp
    460a:	48 89 e5             	mov    %rsp,%rbp
    460d:	89 7d fc             	mov    %edi,-0x4(%rbp)
    4610:	89 75 f8             	mov    %esi,-0x8(%rbp)
    4613:	8b 45 fc             	mov    -0x4(%rbp),%eax
    4616:	33 45 f8             	xor    -0x8(%rbp),%eax
    4619:	89 c2                	mov    %eax,%edx
    461b:	8b 45 fc             	mov    -0x4(%rbp),%eax
    461e:	33 45 f8             	xor    -0x8(%rbp),%eax
    4621:	25 00 00 00 80       	and    $0x80000000,%eax
    4626:	33 45 fc             	xor    -0x4(%rbp),%eax
    4629:	2b 45 f8             	sub    -0x8(%rbp),%eax
    462c:	33 45 f8             	xor    -0x8(%rbp),%eax
    462f:	21 d0                	and    %edx,%eax
    4631:	85 c0                	test   %eax,%eax
    4633:	78 08                	js     463d <safe_sub_func_int32_t_s_s+0x38>
    4635:	8b 45 fc             	mov    -0x4(%rbp),%eax
    4638:	2b 45 f8             	sub    -0x8(%rbp),%eax
    463b:	eb 03                	jmp    4640 <safe_sub_func_int32_t_s_s+0x3b>
    463d:	8b 45 fc             	mov    -0x4(%rbp),%eax
    4640:	5d                   	pop    %rbp
    4641:	c3                   	retq   

0000000000004642 <safe_mul_func_int32_t_s_s>:
    4642:	f3 0f 1e fa          	endbr64 
    4646:	55                   	push   %rbp
    4647:	48 89 e5             	mov    %rsp,%rbp
    464a:	89 7d fc             	mov    %edi,-0x4(%rbp)
    464d:	89 75 f8             	mov    %esi,-0x8(%rbp)
    4650:	83 7d fc 00          	cmpl   $0x0,-0x4(%rbp)
    4654:	7e 14                	jle    466a <safe_mul_func_int32_t_s_s+0x28>
    4656:	83 7d f8 00          	cmpl   $0x0,-0x8(%rbp)
    465a:	7e 0e                	jle    466a <safe_mul_func_int32_t_s_s+0x28>
    465c:	b8 ff ff ff 7f       	mov    $0x7fffffff,%eax
    4661:	99                   	cltd   
    4662:	f7 7d f8             	idivl  -0x8(%rbp)
    4665:	39 45 fc             	cmp    %eax,-0x4(%rbp)
    4668:	7f 5d                	jg     46c7 <safe_mul_func_int32_t_s_s+0x85>
    466a:	83 7d fc 00          	cmpl   $0x0,-0x4(%rbp)
    466e:	7e 14                	jle    4684 <safe_mul_func_int32_t_s_s+0x42>
    4670:	83 7d f8 00          	cmpl   $0x0,-0x8(%rbp)
    4674:	7f 0e                	jg     4684 <safe_mul_func_int32_t_s_s+0x42>
    4676:	b8 00 00 00 80       	mov    $0x80000000,%eax
    467b:	99                   	cltd   
    467c:	f7 7d fc             	idivl  -0x4(%rbp)
    467f:	39 45 f8             	cmp    %eax,-0x8(%rbp)
    4682:	7c 43                	jl     46c7 <safe_mul_func_int32_t_s_s+0x85>
    4684:	83 7d fc 00          	cmpl   $0x0,-0x4(%rbp)
    4688:	7f 14                	jg     469e <safe_mul_func_int32_t_s_s+0x5c>
    468a:	83 7d f8 00          	cmpl   $0x0,-0x8(%rbp)
    468e:	7e 0e                	jle    469e <safe_mul_func_int32_t_s_s+0x5c>
    4690:	b8 00 00 00 80       	mov    $0x80000000,%eax
    4695:	99                   	cltd   
    4696:	f7 7d f8             	idivl  -0x8(%rbp)
    4699:	39 45 fc             	cmp    %eax,-0x4(%rbp)
    469c:	7c 29                	jl     46c7 <safe_mul_func_int32_t_s_s+0x85>
    469e:	83 7d fc 00          	cmpl   $0x0,-0x4(%rbp)
    46a2:	7f 1a                	jg     46be <safe_mul_func_int32_t_s_s+0x7c>
    46a4:	83 7d f8 00          	cmpl   $0x0,-0x8(%rbp)
    46a8:	7f 14                	jg     46be <safe_mul_func_int32_t_s_s+0x7c>
    46aa:	83 7d fc 00          	cmpl   $0x0,-0x4(%rbp)
    46ae:	74 0e                	je     46be <safe_mul_func_int32_t_s_s+0x7c>
    46b0:	b8 ff ff ff 7f       	mov    $0x7fffffff,%eax
    46b5:	99                   	cltd   
    46b6:	f7 7d fc             	idivl  -0x4(%rbp)
    46b9:	39 45 f8             	cmp    %eax,-0x8(%rbp)
    46bc:	7c 09                	jl     46c7 <safe_mul_func_int32_t_s_s+0x85>
    46be:	8b 45 fc             	mov    -0x4(%rbp),%eax
    46c1:	0f af 45 f8          	imul   -0x8(%rbp),%eax
    46c5:	eb 03                	jmp    46ca <safe_mul_func_int32_t_s_s+0x88>
    46c7:	8b 45 fc             	mov    -0x4(%rbp),%eax
    46ca:	5d                   	pop    %rbp
    46cb:	c3                   	retq   

00000000000046cc <safe_mod_func_int32_t_s_s>:
    46cc:	f3 0f 1e fa          	endbr64 
    46d0:	55                   	push   %rbp
    46d1:	48 89 e5             	mov    %rsp,%rbp
    46d4:	89 7d fc             	mov    %edi,-0x4(%rbp)
    46d7:	89 75 f8             	mov    %esi,-0x8(%rbp)
    46da:	83 7d f8 00          	cmpl   $0x0,-0x8(%rbp)
    46de:	74 1a                	je     46fa <safe_mod_func_int32_t_s_s+0x2e>
    46e0:	81 7d fc 00 00 00 80 	cmpl   $0x80000000,-0x4(%rbp)
    46e7:	75 06                	jne    46ef <safe_mod_func_int32_t_s_s+0x23>
    46e9:	83 7d f8 ff          	cmpl   $0xffffffff,-0x8(%rbp)
    46ed:	74 0b                	je     46fa <safe_mod_func_int32_t_s_s+0x2e>
    46ef:	8b 45 fc             	mov    -0x4(%rbp),%eax
    46f2:	99                   	cltd   
    46f3:	f7 7d f8             	idivl  -0x8(%rbp)
    46f6:	89 d0                	mov    %edx,%eax
    46f8:	eb 03                	jmp    46fd <safe_mod_func_int32_t_s_s+0x31>
    46fa:	8b 45 fc             	mov    -0x4(%rbp),%eax
    46fd:	5d                   	pop    %rbp
    46fe:	c3                   	retq   

00000000000046ff <safe_div_func_int32_t_s_s>:
    46ff:	f3 0f 1e fa          	endbr64 
    4703:	55                   	push   %rbp
    4704:	48 89 e5             	mov    %rsp,%rbp
    4707:	89 7d fc             	mov    %edi,-0x4(%rbp)
    470a:	89 75 f8             	mov    %esi,-0x8(%rbp)
    470d:	83 7d f8 00          	cmpl   $0x0,-0x8(%rbp)
    4711:	74 18                	je     472b <safe_div_func_int32_t_s_s+0x2c>
    4713:	81 7d fc 00 00 00 80 	cmpl   $0x80000000,-0x4(%rbp)
    471a:	75 06                	jne    4722 <safe_div_func_int32_t_s_s+0x23>
    471c:	83 7d f8 ff          	cmpl   $0xffffffff,-0x8(%rbp)
    4720:	74 09                	je     472b <safe_div_func_int32_t_s_s+0x2c>
    4722:	8b 45 fc             	mov    -0x4(%rbp),%eax
    4725:	99                   	cltd   
    4726:	f7 7d f8             	idivl  -0x8(%rbp)
    4729:	eb 03                	jmp    472e <safe_div_func_int32_t_s_s+0x2f>
    472b:	8b 45 fc             	mov    -0x4(%rbp),%eax
    472e:	5d                   	pop    %rbp
    472f:	c3                   	retq   

0000000000004730 <safe_lshift_func_int32_t_s_s>:
    4730:	f3 0f 1e fa          	endbr64 
    4734:	55                   	push   %rbp
    4735:	48 89 e5             	mov    %rsp,%rbp
    4738:	89 7d fc             	mov    %edi,-0x4(%rbp)
    473b:	89 75 f8             	mov    %esi,-0x8(%rbp)
    473e:	83 7d fc 00          	cmpl   $0x0,-0x4(%rbp)
    4742:	78 2d                	js     4771 <safe_lshift_func_int32_t_s_s+0x41>
    4744:	83 7d f8 00          	cmpl   $0x0,-0x8(%rbp)
    4748:	78 27                	js     4771 <safe_lshift_func_int32_t_s_s+0x41>
    474a:	83 7d f8 1f          	cmpl   $0x1f,-0x8(%rbp)
    474e:	7f 21                	jg     4771 <safe_lshift_func_int32_t_s_s+0x41>
    4750:	8b 45 f8             	mov    -0x8(%rbp),%eax
    4753:	ba ff ff ff 7f       	mov    $0x7fffffff,%edx
    4758:	89 c1                	mov    %eax,%ecx
    475a:	d3 fa                	sar    %cl,%edx
    475c:	89 d0                	mov    %edx,%eax
    475e:	39 45 fc             	cmp    %eax,-0x4(%rbp)
    4761:	7f 0e                	jg     4771 <safe_lshift_func_int32_t_s_s+0x41>
    4763:	8b 45 f8             	mov    -0x8(%rbp),%eax
    4766:	8b 55 fc             	mov    -0x4(%rbp),%edx
    4769:	89 c1                	mov    %eax,%ecx
    476b:	d3 e2                	shl    %cl,%edx
    476d:	89 d0                	mov    %edx,%eax
    476f:	eb 03                	jmp    4774 <safe_lshift_func_int32_t_s_s+0x44>
    4771:	8b 45 fc             	mov    -0x4(%rbp),%eax
    4774:	5d                   	pop    %rbp
    4775:	c3                   	retq   

0000000000004776 <safe_lshift_func_int32_t_s_u>:
    4776:	f3 0f 1e fa          	endbr64 
    477a:	55                   	push   %rbp
    477b:	48 89 e5             	mov    %rsp,%rbp
    477e:	89 7d fc             	mov    %edi,-0x4(%rbp)
    4781:	89 75 f8             	mov    %esi,-0x8(%rbp)
    4784:	83 7d fc 00          	cmpl   $0x0,-0x4(%rbp)
    4788:	78 27                	js     47b1 <safe_lshift_func_int32_t_s_u+0x3b>
    478a:	83 7d f8 1f          	cmpl   $0x1f,-0x8(%rbp)
    478e:	77 21                	ja     47b1 <safe_lshift_func_int32_t_s_u+0x3b>
    4790:	8b 45 f8             	mov    -0x8(%rbp),%eax
    4793:	ba ff ff ff 7f       	mov    $0x7fffffff,%edx
    4798:	89 c1                	mov    %eax,%ecx
    479a:	d3 fa                	sar    %cl,%edx
    479c:	89 d0                	mov    %edx,%eax
    479e:	39 45 fc             	cmp    %eax,-0x4(%rbp)
    47a1:	7f 0e                	jg     47b1 <safe_lshift_func_int32_t_s_u+0x3b>
    47a3:	8b 45 f8             	mov    -0x8(%rbp),%eax
    47a6:	8b 55 fc             	mov    -0x4(%rbp),%edx
    47a9:	89 c1                	mov    %eax,%ecx
    47ab:	d3 e2                	shl    %cl,%edx
    47ad:	89 d0                	mov    %edx,%eax
    47af:	eb 03                	jmp    47b4 <safe_lshift_func_int32_t_s_u+0x3e>
    47b1:	8b 45 fc             	mov    -0x4(%rbp),%eax
    47b4:	5d                   	pop    %rbp
    47b5:	c3                   	retq   

00000000000047b6 <safe_rshift_func_int32_t_s_s>:
    47b6:	f3 0f 1e fa          	endbr64 
    47ba:	55                   	push   %rbp
    47bb:	48 89 e5             	mov    %rsp,%rbp
    47be:	89 7d fc             	mov    %edi,-0x4(%rbp)
    47c1:	89 75 f8             	mov    %esi,-0x8(%rbp)
    47c4:	83 7d fc 00          	cmpl   $0x0,-0x4(%rbp)
    47c8:	78 1a                	js     47e4 <safe_rshift_func_int32_t_s_s+0x2e>
    47ca:	83 7d f8 00          	cmpl   $0x0,-0x8(%rbp)
    47ce:	78 14                	js     47e4 <safe_rshift_func_int32_t_s_s+0x2e>
    47d0:	83 7d f8 1f          	cmpl   $0x1f,-0x8(%rbp)
    47d4:	7f 0e                	jg     47e4 <safe_rshift_func_int32_t_s_s+0x2e>
    47d6:	8b 45 f8             	mov    -0x8(%rbp),%eax
    47d9:	8b 55 fc             	mov    -0x4(%rbp),%edx
    47dc:	89 c1                	mov    %eax,%ecx
    47de:	d3 fa                	sar    %cl,%edx
    47e0:	89 d0                	mov    %edx,%eax
    47e2:	eb 03                	jmp    47e7 <safe_rshift_func_int32_t_s_s+0x31>
    47e4:	8b 45 fc             	mov    -0x4(%rbp),%eax
    47e7:	5d                   	pop    %rbp
    47e8:	c3                   	retq   

00000000000047e9 <safe_rshift_func_int32_t_s_u>:
    47e9:	f3 0f 1e fa          	endbr64 
    47ed:	55                   	push   %rbp
    47ee:	48 89 e5             	mov    %rsp,%rbp
    47f1:	89 7d fc             	mov    %edi,-0x4(%rbp)
    47f4:	89 75 f8             	mov    %esi,-0x8(%rbp)
    47f7:	83 7d fc 00          	cmpl   $0x0,-0x4(%rbp)
    47fb:	78 14                	js     4811 <safe_rshift_func_int32_t_s_u+0x28>
    47fd:	83 7d f8 1f          	cmpl   $0x1f,-0x8(%rbp)
    4801:	77 0e                	ja     4811 <safe_rshift_func_int32_t_s_u+0x28>
    4803:	8b 45 f8             	mov    -0x8(%rbp),%eax
    4806:	8b 55 fc             	mov    -0x4(%rbp),%edx
    4809:	89 c1                	mov    %eax,%ecx
    480b:	d3 fa                	sar    %cl,%edx
    480d:	89 d0                	mov    %edx,%eax
    480f:	eb 03                	jmp    4814 <safe_rshift_func_int32_t_s_u+0x2b>
    4811:	8b 45 fc             	mov    -0x4(%rbp),%eax
    4814:	5d                   	pop    %rbp
    4815:	c3                   	retq   

0000000000004816 <safe_unary_minus_func_int64_t_s>:
    4816:	f3 0f 1e fa          	endbr64 
    481a:	55                   	push   %rbp
    481b:	48 89 e5             	mov    %rsp,%rbp
    481e:	48 89 7d f8          	mov    %rdi,-0x8(%rbp)
    4822:	48 b8 00 00 00 00 00 	movabs $0x8000000000000000,%rax
    4829:	00 00 80 
    482c:	48 39 45 f8          	cmp    %rax,-0x8(%rbp)
    4830:	74 09                	je     483b <safe_unary_minus_func_int64_t_s+0x25>
    4832:	48 8b 45 f8          	mov    -0x8(%rbp),%rax
    4836:	48 f7 d8             	neg    %rax
    4839:	eb 04                	jmp    483f <safe_unary_minus_func_int64_t_s+0x29>
    483b:	48 8b 45 f8          	mov    -0x8(%rbp),%rax
    483f:	5d                   	pop    %rbp
    4840:	c3                   	retq   

0000000000004841 <safe_add_func_int64_t_s_s>:
    4841:	f3 0f 1e fa          	endbr64 
    4845:	55                   	push   %rbp
    4846:	48 89 e5             	mov    %rsp,%rbp
    4849:	48 89 7d f8          	mov    %rdi,-0x8(%rbp)
    484d:	48 89 75 f0          	mov    %rsi,-0x10(%rbp)
    4851:	48 83 7d f8 00       	cmpq   $0x0,-0x8(%rbp)
    4856:	7e 1b                	jle    4873 <safe_add_func_int64_t_s_s+0x32>
    4858:	48 83 7d f0 00       	cmpq   $0x0,-0x10(%rbp)
    485d:	7e 14                	jle    4873 <safe_add_func_int64_t_s_s+0x32>
    485f:	48 b8 ff ff ff ff ff 	movabs $0x7fffffffffffffff,%rax
    4866:	ff ff 7f 
    4869:	48 2b 45 f0          	sub    -0x10(%rbp),%rax
    486d:	48 39 45 f8          	cmp    %rax,-0x8(%rbp)
    4871:	7f 2f                	jg     48a2 <safe_add_func_int64_t_s_s+0x61>
    4873:	48 83 7d f8 00       	cmpq   $0x0,-0x8(%rbp)
    4878:	79 1b                	jns    4895 <safe_add_func_int64_t_s_s+0x54>
    487a:	48 83 7d f0 00       	cmpq   $0x0,-0x10(%rbp)
    487f:	79 14                	jns    4895 <safe_add_func_int64_t_s_s+0x54>
    4881:	48 b8 00 00 00 00 00 	movabs $0x8000000000000000,%rax
    4888:	00 00 80 
    488b:	48 2b 45 f0          	sub    -0x10(%rbp),%rax
    488f:	48 39 45 f8          	cmp    %rax,-0x8(%rbp)
    4893:	7c 0d                	jl     48a2 <safe_add_func_int64_t_s_s+0x61>
    4895:	48 8b 55 f8          	mov    -0x8(%rbp),%rdx
    4899:	48 8b 45 f0          	mov    -0x10(%rbp),%rax
    489d:	48 01 d0             	add    %rdx,%rax
    48a0:	eb 04                	jmp    48a6 <safe_add_func_int64_t_s_s+0x65>
    48a2:	48 8b 45 f8          	mov    -0x8(%rbp),%rax
    48a6:	5d                   	pop    %rbp
    48a7:	c3                   	retq   

00000000000048a8 <safe_sub_func_int64_t_s_s>:
    48a8:	f3 0f 1e fa          	endbr64 
    48ac:	55                   	push   %rbp
    48ad:	48 89 e5             	mov    %rsp,%rbp
    48b0:	48 89 7d f8          	mov    %rdi,-0x8(%rbp)
    48b4:	48 89 75 f0          	mov    %rsi,-0x10(%rbp)
    48b8:	48 8b 45 f8          	mov    -0x8(%rbp),%rax
    48bc:	48 33 45 f0          	xor    -0x10(%rbp),%rax
    48c0:	48 89 c2             	mov    %rax,%rdx
    48c3:	48 8b 45 f8          	mov    -0x8(%rbp),%rax
    48c7:	48 33 45 f0          	xor    -0x10(%rbp),%rax
    48cb:	48 b9 00 00 00 00 00 	movabs $0x8000000000000000,%rcx
    48d2:	00 00 80 
    48d5:	48 21 c8             	and    %rcx,%rax
    48d8:	48 33 45 f8          	xor    -0x8(%rbp),%rax
    48dc:	48 2b 45 f0          	sub    -0x10(%rbp),%rax
    48e0:	48 33 45 f0          	xor    -0x10(%rbp),%rax
    48e4:	48 21 d0             	and    %rdx,%rax
    48e7:	48 85 c0             	test   %rax,%rax
    48ea:	78 0a                	js     48f6 <safe_sub_func_int64_t_s_s+0x4e>
    48ec:	48 8b 45 f8          	mov    -0x8(%rbp),%rax
    48f0:	48 2b 45 f0          	sub    -0x10(%rbp),%rax
    48f4:	eb 04                	jmp    48fa <safe_sub_func_int64_t_s_s+0x52>
    48f6:	48 8b 45 f8          	mov    -0x8(%rbp),%rax
    48fa:	5d                   	pop    %rbp
    48fb:	c3                   	retq   

00000000000048fc <safe_mul_func_int64_t_s_s>:
    48fc:	f3 0f 1e fa          	endbr64 
    4900:	55                   	push   %rbp
    4901:	48 89 e5             	mov    %rsp,%rbp
    4904:	48 89 7d f8          	mov    %rdi,-0x8(%rbp)
    4908:	48 89 75 f0          	mov    %rsi,-0x10(%rbp)
    490c:	48 83 7d f8 00       	cmpq   $0x0,-0x8(%rbp)
    4911:	7e 1d                	jle    4930 <safe_mul_func_int64_t_s_s+0x34>
    4913:	48 83 7d f0 00       	cmpq   $0x0,-0x10(%rbp)
    4918:	7e 16                	jle    4930 <safe_mul_func_int64_t_s_s+0x34>
    491a:	48 b8 ff ff ff ff ff 	movabs $0x7fffffffffffffff,%rax
    4921:	ff ff 7f 
    4924:	48 99                	cqto   
    4926:	48 f7 7d f0          	idivq  -0x10(%rbp)
    492a:	48 39 45 f8          	cmp    %rax,-0x8(%rbp)
    492e:	7f 7e                	jg     49ae <safe_mul_func_int64_t_s_s+0xb2>
    4930:	48 83 7d f8 00       	cmpq   $0x0,-0x8(%rbp)
    4935:	7e 1d                	jle    4954 <safe_mul_func_int64_t_s_s+0x58>
    4937:	48 83 7d f0 00       	cmpq   $0x0,-0x10(%rbp)
    493c:	7f 16                	jg     4954 <safe_mul_func_int64_t_s_s+0x58>
    493e:	48 b8 00 00 00 00 00 	movabs $0x8000000000000000,%rax
    4945:	00 00 80 
    4948:	48 99                	cqto   
    494a:	48 f7 7d f8          	idivq  -0x8(%rbp)
    494e:	48 39 45 f0          	cmp    %rax,-0x10(%rbp)
    4952:	7c 5a                	jl     49ae <safe_mul_func_int64_t_s_s+0xb2>
    4954:	48 83 7d f8 00       	cmpq   $0x0,-0x8(%rbp)
    4959:	7f 1d                	jg     4978 <safe_mul_func_int64_t_s_s+0x7c>
    495b:	48 83 7d f0 00       	cmpq   $0x0,-0x10(%rbp)
    4960:	7e 16                	jle    4978 <safe_mul_func_int64_t_s_s+0x7c>
    4962:	48 b8 00 00 00 00 00 	movabs $0x8000000000000000,%rax
    4969:	00 00 80 
    496c:	48 99                	cqto   
    496e:	48 f7 7d f0          	idivq  -0x10(%rbp)
    4972:	48 39 45 f8          	cmp    %rax,-0x8(%rbp)
    4976:	7c 36                	jl     49ae <safe_mul_func_int64_t_s_s+0xb2>
    4978:	48 83 7d f8 00       	cmpq   $0x0,-0x8(%rbp)
    497d:	7f 24                	jg     49a3 <safe_mul_func_int64_t_s_s+0xa7>
    497f:	48 83 7d f0 00       	cmpq   $0x0,-0x10(%rbp)
    4984:	7f 1d                	jg     49a3 <safe_mul_func_int64_t_s_s+0xa7>
    4986:	48 83 7d f8 00       	cmpq   $0x0,-0x8(%rbp)
    498b:	74 16                	je     49a3 <safe_mul_func_int64_t_s_s+0xa7>
    498d:	48 b8 ff ff ff ff ff 	movabs $0x7fffffffffffffff,%rax
    4994:	ff ff 7f 
    4997:	48 99                	cqto   
    4999:	48 f7 7d f8          	idivq  -0x8(%rbp)
    499d:	48 39 45 f0          	cmp    %rax,-0x10(%rbp)
    49a1:	7c 0b                	jl     49ae <safe_mul_func_int64_t_s_s+0xb2>
    49a3:	48 8b 45 f8          	mov    -0x8(%rbp),%rax
    49a7:	48 0f af 45 f0       	imul   -0x10(%rbp),%rax
    49ac:	eb 04                	jmp    49b2 <safe_mul_func_int64_t_s_s+0xb6>
    49ae:	48 8b 45 f8          	mov    -0x8(%rbp),%rax
    49b2:	5d                   	pop    %rbp
    49b3:	c3                   	retq   

00000000000049b4 <safe_mod_func_int64_t_s_s>:
    49b4:	f3 0f 1e fa          	endbr64 
    49b8:	55                   	push   %rbp
    49b9:	48 89 e5             	mov    %rsp,%rbp
    49bc:	48 89 7d f8          	mov    %rdi,-0x8(%rbp)
    49c0:	48 89 75 f0          	mov    %rsi,-0x10(%rbp)
    49c4:	48 83 7d f0 00       	cmpq   $0x0,-0x10(%rbp)
    49c9:	74 26                	je     49f1 <safe_mod_func_int64_t_s_s+0x3d>
    49cb:	48 b8 00 00 00 00 00 	movabs $0x8000000000000000,%rax
    49d2:	00 00 80 
    49d5:	48 39 45 f8          	cmp    %rax,-0x8(%rbp)
    49d9:	75 07                	jne    49e2 <safe_mod_func_int64_t_s_s+0x2e>
    49db:	48 83 7d f0 ff       	cmpq   $0xffffffffffffffff,-0x10(%rbp)
    49e0:	74 0f                	je     49f1 <safe_mod_func_int64_t_s_s+0x3d>
    49e2:	48 8b 45 f8          	mov    -0x8(%rbp),%rax
    49e6:	48 99                	cqto   
    49e8:	48 f7 7d f0          	idivq  -0x10(%rbp)
    49ec:	48 89 d0             	mov    %rdx,%rax
    49ef:	eb 04                	jmp    49f5 <safe_mod_func_int64_t_s_s+0x41>
    49f1:	48 8b 45 f8          	mov    -0x8(%rbp),%rax
    49f5:	5d                   	pop    %rbp
    49f6:	c3                   	retq   

00000000000049f7 <safe_div_func_int64_t_s_s>:
    49f7:	f3 0f 1e fa          	endbr64 
    49fb:	55                   	push   %rbp
    49fc:	48 89 e5             	mov    %rsp,%rbp
    49ff:	48 89 7d f8          	mov    %rdi,-0x8(%rbp)
    4a03:	48 89 75 f0          	mov    %rsi,-0x10(%rbp)
    4a07:	48 83 7d f0 00       	cmpq   $0x0,-0x10(%rbp)
    4a0c:	74 23                	je     4a31 <safe_div_func_int64_t_s_s+0x3a>
    4a0e:	48 b8 00 00 00 00 00 	movabs $0x8000000000000000,%rax
    4a15:	00 00 80 
    4a18:	48 39 45 f8          	cmp    %rax,-0x8(%rbp)
    4a1c:	75 07                	jne    4a25 <safe_div_func_int64_t_s_s+0x2e>
    4a1e:	48 83 7d f0 ff       	cmpq   $0xffffffffffffffff,-0x10(%rbp)
    4a23:	74 0c                	je     4a31 <safe_div_func_int64_t_s_s+0x3a>
    4a25:	48 8b 45 f8          	mov    -0x8(%rbp),%rax
    4a29:	48 99                	cqto   
    4a2b:	48 f7 7d f0          	idivq  -0x10(%rbp)
    4a2f:	eb 04                	jmp    4a35 <safe_div_func_int64_t_s_s+0x3e>
    4a31:	48 8b 45 f8          	mov    -0x8(%rbp),%rax
    4a35:	5d                   	pop    %rbp
    4a36:	c3                   	retq   

0000000000004a37 <safe_lshift_func_int64_t_s_s>:
    4a37:	f3 0f 1e fa          	endbr64 
    4a3b:	55                   	push   %rbp
    4a3c:	48 89 e5             	mov    %rsp,%rbp
    4a3f:	48 89 7d f8          	mov    %rdi,-0x8(%rbp)
    4a43:	89 75 f4             	mov    %esi,-0xc(%rbp)
    4a46:	48 83 7d f8 00       	cmpq   $0x0,-0x8(%rbp)
    4a4b:	78 38                	js     4a85 <safe_lshift_func_int64_t_s_s+0x4e>
    4a4d:	83 7d f4 00          	cmpl   $0x0,-0xc(%rbp)
    4a51:	78 32                	js     4a85 <safe_lshift_func_int64_t_s_s+0x4e>
    4a53:	83 7d f4 1f          	cmpl   $0x1f,-0xc(%rbp)
    4a57:	7f 2c                	jg     4a85 <safe_lshift_func_int64_t_s_s+0x4e>
    4a59:	8b 45 f4             	mov    -0xc(%rbp),%eax
    4a5c:	48 ba ff ff ff ff ff 	movabs $0x7fffffffffffffff,%rdx
    4a63:	ff ff 7f 
    4a66:	89 c1                	mov    %eax,%ecx
    4a68:	48 d3 fa             	sar    %cl,%rdx
    4a6b:	48 89 d0             	mov    %rdx,%rax
    4a6e:	48 39 45 f8          	cmp    %rax,-0x8(%rbp)
    4a72:	7f 11                	jg     4a85 <safe_lshift_func_int64_t_s_s+0x4e>
    4a74:	8b 45 f4             	mov    -0xc(%rbp),%eax
    4a77:	48 8b 55 f8          	mov    -0x8(%rbp),%rdx
    4a7b:	89 c1                	mov    %eax,%ecx
    4a7d:	48 d3 e2             	shl    %cl,%rdx
    4a80:	48 89 d0             	mov    %rdx,%rax
    4a83:	eb 04                	jmp    4a89 <safe_lshift_func_int64_t_s_s+0x52>
    4a85:	48 8b 45 f8          	mov    -0x8(%rbp),%rax
    4a89:	5d                   	pop    %rbp
    4a8a:	c3                   	retq   

0000000000004a8b <safe_lshift_func_int64_t_s_u>:
    4a8b:	f3 0f 1e fa          	endbr64 
    4a8f:	55                   	push   %rbp
    4a90:	48 89 e5             	mov    %rsp,%rbp
    4a93:	48 89 7d f8          	mov    %rdi,-0x8(%rbp)
    4a97:	89 75 f4             	mov    %esi,-0xc(%rbp)
    4a9a:	48 83 7d f8 00       	cmpq   $0x0,-0x8(%rbp)
    4a9f:	78 32                	js     4ad3 <safe_lshift_func_int64_t_s_u+0x48>
    4aa1:	83 7d f4 1f          	cmpl   $0x1f,-0xc(%rbp)
    4aa5:	77 2c                	ja     4ad3 <safe_lshift_func_int64_t_s_u+0x48>
    4aa7:	8b 45 f4             	mov    -0xc(%rbp),%eax
    4aaa:	48 ba ff ff ff ff ff 	movabs $0x7fffffffffffffff,%rdx
    4ab1:	ff ff 7f 
    4ab4:	89 c1                	mov    %eax,%ecx
    4ab6:	48 d3 fa             	sar    %cl,%rdx
    4ab9:	48 89 d0             	mov    %rdx,%rax
    4abc:	48 39 45 f8          	cmp    %rax,-0x8(%rbp)
    4ac0:	7f 11                	jg     4ad3 <safe_lshift_func_int64_t_s_u+0x48>
    4ac2:	8b 45 f4             	mov    -0xc(%rbp),%eax
    4ac5:	48 8b 55 f8          	mov    -0x8(%rbp),%rdx
    4ac9:	89 c1                	mov    %eax,%ecx
    4acb:	48 d3 e2             	shl    %cl,%rdx
    4ace:	48 89 d0             	mov    %rdx,%rax
    4ad1:	eb 04                	jmp    4ad7 <safe_lshift_func_int64_t_s_u+0x4c>
    4ad3:	48 8b 45 f8          	mov    -0x8(%rbp),%rax
    4ad7:	5d                   	pop    %rbp
    4ad8:	c3                   	retq   

0000000000004ad9 <safe_rshift_func_int64_t_s_s>:
    4ad9:	f3 0f 1e fa          	endbr64 
    4add:	55                   	push   %rbp
    4ade:	48 89 e5             	mov    %rsp,%rbp
    4ae1:	48 89 7d f8          	mov    %rdi,-0x8(%rbp)
    4ae5:	89 75 f4             	mov    %esi,-0xc(%rbp)
    4ae8:	48 83 7d f8 00       	cmpq   $0x0,-0x8(%rbp)
    4aed:	78 1d                	js     4b0c <safe_rshift_func_int64_t_s_s+0x33>
    4aef:	83 7d f4 00          	cmpl   $0x0,-0xc(%rbp)
    4af3:	78 17                	js     4b0c <safe_rshift_func_int64_t_s_s+0x33>
    4af5:	83 7d f4 1f          	cmpl   $0x1f,-0xc(%rbp)
    4af9:	7f 11                	jg     4b0c <safe_rshift_func_int64_t_s_s+0x33>
    4afb:	8b 45 f4             	mov    -0xc(%rbp),%eax
    4afe:	48 8b 55 f8          	mov    -0x8(%rbp),%rdx
    4b02:	89 c1                	mov    %eax,%ecx
    4b04:	48 d3 fa             	sar    %cl,%rdx
    4b07:	48 89 d0             	mov    %rdx,%rax
    4b0a:	eb 04                	jmp    4b10 <safe_rshift_func_int64_t_s_s+0x37>
    4b0c:	48 8b 45 f8          	mov    -0x8(%rbp),%rax
    4b10:	5d                   	pop    %rbp
    4b11:	c3                   	retq   

0000000000004b12 <safe_rshift_func_int64_t_s_u>:
    4b12:	f3 0f 1e fa          	endbr64 
    4b16:	55                   	push   %rbp
    4b17:	48 89 e5             	mov    %rsp,%rbp
    4b1a:	48 89 7d f8          	mov    %rdi,-0x8(%rbp)
    4b1e:	89 75 f4             	mov    %esi,-0xc(%rbp)
    4b21:	48 83 7d f8 00       	cmpq   $0x0,-0x8(%rbp)
    4b26:	78 17                	js     4b3f <safe_rshift_func_int64_t_s_u+0x2d>
    4b28:	83 7d f4 1f          	cmpl   $0x1f,-0xc(%rbp)
    4b2c:	77 11                	ja     4b3f <safe_rshift_func_int64_t_s_u+0x2d>
    4b2e:	8b 45 f4             	mov    -0xc(%rbp),%eax
    4b31:	48 8b 55 f8          	mov    -0x8(%rbp),%rdx
    4b35:	89 c1                	mov    %eax,%ecx
    4b37:	48 d3 fa             	sar    %cl,%rdx
    4b3a:	48 89 d0             	mov    %rdx,%rax
    4b3d:	eb 04                	jmp    4b43 <safe_rshift_func_int64_t_s_u+0x31>
    4b3f:	48 8b 45 f8          	mov    -0x8(%rbp),%rax
    4b43:	5d                   	pop    %rbp
    4b44:	c3                   	retq   

0000000000004b45 <safe_unary_minus_func_uint8_t_u>:
    4b45:	f3 0f 1e fa          	endbr64 
    4b49:	55                   	push   %rbp
    4b4a:	48 89 e5             	mov    %rsp,%rbp
    4b4d:	89 f8                	mov    %edi,%eax
    4b4f:	88 45 fc             	mov    %al,-0x4(%rbp)
    4b52:	0f b6 45 fc          	movzbl -0x4(%rbp),%eax
    4b56:	f7 d8                	neg    %eax
    4b58:	5d                   	pop    %rbp
    4b59:	c3                   	retq   

0000000000004b5a <safe_add_func_uint8_t_u_u>:
    4b5a:	f3 0f 1e fa          	endbr64 
    4b5e:	55                   	push   %rbp
    4b5f:	48 89 e5             	mov    %rsp,%rbp
    4b62:	89 fa                	mov    %edi,%edx
    4b64:	89 f0                	mov    %esi,%eax
    4b66:	88 55 fc             	mov    %dl,-0x4(%rbp)
    4b69:	88 45 f8             	mov    %al,-0x8(%rbp)
    4b6c:	0f b6 55 fc          	movzbl -0x4(%rbp),%edx
    4b70:	0f b6 45 f8          	movzbl -0x8(%rbp),%eax
    4b74:	01 d0                	add    %edx,%eax
    4b76:	5d                   	pop    %rbp
    4b77:	c3                   	retq   

0000000000004b78 <safe_sub_func_uint8_t_u_u>:
    4b78:	f3 0f 1e fa          	endbr64 
    4b7c:	55                   	push   %rbp
    4b7d:	48 89 e5             	mov    %rsp,%rbp
    4b80:	89 fa                	mov    %edi,%edx
    4b82:	89 f0                	mov    %esi,%eax
    4b84:	88 55 fc             	mov    %dl,-0x4(%rbp)
    4b87:	88 45 f8             	mov    %al,-0x8(%rbp)
    4b8a:	0f b6 45 fc          	movzbl -0x4(%rbp),%eax
    4b8e:	2a 45 f8             	sub    -0x8(%rbp),%al
    4b91:	5d                   	pop    %rbp
    4b92:	c3                   	retq   

0000000000004b93 <safe_mul_func_uint8_t_u_u>:
    4b93:	f3 0f 1e fa          	endbr64 
    4b97:	55                   	push   %rbp
    4b98:	48 89 e5             	mov    %rsp,%rbp
    4b9b:	89 fa                	mov    %edi,%edx
    4b9d:	89 f0                	mov    %esi,%eax
    4b9f:	88 55 fc             	mov    %dl,-0x4(%rbp)
    4ba2:	88 45 f8             	mov    %al,-0x8(%rbp)
    4ba5:	0f b6 45 fc          	movzbl -0x4(%rbp),%eax
    4ba9:	f6 65 f8             	mulb   -0x8(%rbp)
    4bac:	5d                   	pop    %rbp
    4bad:	c3                   	retq   

0000000000004bae <safe_mod_func_uint8_t_u_u>:
    4bae:	f3 0f 1e fa          	endbr64 
    4bb2:	55                   	push   %rbp
    4bb3:	48 89 e5             	mov    %rsp,%rbp
    4bb6:	89 fa                	mov    %edi,%edx
    4bb8:	89 f0                	mov    %esi,%eax
    4bba:	88 55 fc             	mov    %dl,-0x4(%rbp)
    4bbd:	88 45 f8             	mov    %al,-0x8(%rbp)
    4bc0:	80 7d f8 00          	cmpb   $0x0,-0x8(%rbp)
    4bc4:	74 0f                	je     4bd5 <safe_mod_func_uint8_t_u_u+0x27>
    4bc6:	0f b6 45 fc          	movzbl -0x4(%rbp),%eax
    4bca:	0f b6 c0             	movzbl %al,%eax
    4bcd:	f6 75 f8             	divb   -0x8(%rbp)
    4bd0:	0f b6 c4             	movzbl %ah,%eax
    4bd3:	eb 04                	jmp    4bd9 <safe_mod_func_uint8_t_u_u+0x2b>
    4bd5:	0f b6 45 fc          	movzbl -0x4(%rbp),%eax
    4bd9:	5d                   	pop    %rbp
    4bda:	c3                   	retq   

0000000000004bdb <safe_div_func_uint8_t_u_u>:
    4bdb:	f3 0f 1e fa          	endbr64 
    4bdf:	55                   	push   %rbp
    4be0:	48 89 e5             	mov    %rsp,%rbp
    4be3:	89 fa                	mov    %edi,%edx
    4be5:	89 f0                	mov    %esi,%eax
    4be7:	88 55 fc             	mov    %dl,-0x4(%rbp)
    4bea:	88 45 f8             	mov    %al,-0x8(%rbp)
    4bed:	80 7d f8 00          	cmpb   $0x0,-0x8(%rbp)
    4bf1:	74 0c                	je     4bff <safe_div_func_uint8_t_u_u+0x24>
    4bf3:	0f b6 45 fc          	movzbl -0x4(%rbp),%eax
    4bf7:	0f b6 c0             	movzbl %al,%eax
    4bfa:	f6 75 f8             	divb   -0x8(%rbp)
    4bfd:	eb 04                	jmp    4c03 <safe_div_func_uint8_t_u_u+0x28>
    4bff:	0f b6 45 fc          	movzbl -0x4(%rbp),%eax
    4c03:	5d                   	pop    %rbp
    4c04:	c3                   	retq   

0000000000004c05 <safe_lshift_func_uint8_t_u_s>:
    4c05:	f3 0f 1e fa          	endbr64 
    4c09:	55                   	push   %rbp
    4c0a:	48 89 e5             	mov    %rsp,%rbp
    4c0d:	89 f8                	mov    %edi,%eax
    4c0f:	89 75 f8             	mov    %esi,-0x8(%rbp)
    4c12:	88 45 fc             	mov    %al,-0x4(%rbp)
    4c15:	83 7d f8 00          	cmpl   $0x0,-0x8(%rbp)
    4c19:	78 2b                	js     4c46 <safe_lshift_func_uint8_t_u_s+0x41>
    4c1b:	83 7d f8 1f          	cmpl   $0x1f,-0x8(%rbp)
    4c1f:	7f 25                	jg     4c46 <safe_lshift_func_uint8_t_u_s+0x41>
    4c21:	0f b6 55 fc          	movzbl -0x4(%rbp),%edx
    4c25:	8b 45 f8             	mov    -0x8(%rbp),%eax
    4c28:	be ff 00 00 00       	mov    $0xff,%esi
    4c2d:	89 c1                	mov    %eax,%ecx
    4c2f:	d3 fe                	sar    %cl,%esi
    4c31:	89 f0                	mov    %esi,%eax
    4c33:	39 c2                	cmp    %eax,%edx
    4c35:	7f 0f                	jg     4c46 <safe_lshift_func_uint8_t_u_s+0x41>
    4c37:	0f b6 55 fc          	movzbl -0x4(%rbp),%edx
    4c3b:	8b 45 f8             	mov    -0x8(%rbp),%eax
    4c3e:	89 c1                	mov    %eax,%ecx
    4c40:	d3 e2                	shl    %cl,%edx
    4c42:	89 d0                	mov    %edx,%eax
    4c44:	eb 04                	jmp    4c4a <safe_lshift_func_uint8_t_u_s+0x45>
    4c46:	0f b6 45 fc          	movzbl -0x4(%rbp),%eax
    4c4a:	5d                   	pop    %rbp
    4c4b:	c3                   	retq   

0000000000004c4c <safe_lshift_func_uint8_t_u_u>:
    4c4c:	f3 0f 1e fa          	endbr64 
    4c50:	55                   	push   %rbp
    4c51:	48 89 e5             	mov    %rsp,%rbp
    4c54:	89 f8                	mov    %edi,%eax
    4c56:	89 75 f8             	mov    %esi,-0x8(%rbp)
    4c59:	88 45 fc             	mov    %al,-0x4(%rbp)
    4c5c:	83 7d f8 1f          	cmpl   $0x1f,-0x8(%rbp)
    4c60:	77 25                	ja     4c87 <safe_lshift_func_uint8_t_u_u+0x3b>
    4c62:	0f b6 55 fc          	movzbl -0x4(%rbp),%edx
    4c66:	8b 45 f8             	mov    -0x8(%rbp),%eax
    4c69:	be ff 00 00 00       	mov    $0xff,%esi
    4c6e:	89 c1                	mov    %eax,%ecx
    4c70:	d3 fe                	sar    %cl,%esi
    4c72:	89 f0                	mov    %esi,%eax
    4c74:	39 c2                	cmp    %eax,%edx
    4c76:	7f 0f                	jg     4c87 <safe_lshift_func_uint8_t_u_u+0x3b>
    4c78:	0f b6 55 fc          	movzbl -0x4(%rbp),%edx
    4c7c:	8b 45 f8             	mov    -0x8(%rbp),%eax
    4c7f:	89 c1                	mov    %eax,%ecx
    4c81:	d3 e2                	shl    %cl,%edx
    4c83:	89 d0                	mov    %edx,%eax
    4c85:	eb 04                	jmp    4c8b <safe_lshift_func_uint8_t_u_u+0x3f>
    4c87:	0f b6 45 fc          	movzbl -0x4(%rbp),%eax
    4c8b:	5d                   	pop    %rbp
    4c8c:	c3                   	retq   

0000000000004c8d <safe_rshift_func_uint8_t_u_s>:
    4c8d:	f3 0f 1e fa          	endbr64 
    4c91:	55                   	push   %rbp
    4c92:	48 89 e5             	mov    %rsp,%rbp
    4c95:	89 f8                	mov    %edi,%eax
    4c97:	89 75 f8             	mov    %esi,-0x8(%rbp)
    4c9a:	88 45 fc             	mov    %al,-0x4(%rbp)
    4c9d:	83 7d f8 00          	cmpl   $0x0,-0x8(%rbp)
    4ca1:	78 15                	js     4cb8 <safe_rshift_func_uint8_t_u_s+0x2b>
    4ca3:	83 7d f8 1f          	cmpl   $0x1f,-0x8(%rbp)
    4ca7:	7f 0f                	jg     4cb8 <safe_rshift_func_uint8_t_u_s+0x2b>
    4ca9:	0f b6 55 fc          	movzbl -0x4(%rbp),%edx
    4cad:	8b 45 f8             	mov    -0x8(%rbp),%eax
    4cb0:	89 c1                	mov    %eax,%ecx
    4cb2:	d3 fa                	sar    %cl,%edx
    4cb4:	89 d0                	mov    %edx,%eax
    4cb6:	eb 04                	jmp    4cbc <safe_rshift_func_uint8_t_u_s+0x2f>
    4cb8:	0f b6 45 fc          	movzbl -0x4(%rbp),%eax
    4cbc:	5d                   	pop    %rbp
    4cbd:	c3                   	retq   

0000000000004cbe <safe_rshift_func_uint8_t_u_u>:
    4cbe:	f3 0f 1e fa          	endbr64 
    4cc2:	55                   	push   %rbp
    4cc3:	48 89 e5             	mov    %rsp,%rbp
    4cc6:	89 f8                	mov    %edi,%eax
    4cc8:	89 75 f8             	mov    %esi,-0x8(%rbp)
    4ccb:	88 45 fc             	mov    %al,-0x4(%rbp)
    4cce:	83 7d f8 1f          	cmpl   $0x1f,-0x8(%rbp)
    4cd2:	77 0f                	ja     4ce3 <safe_rshift_func_uint8_t_u_u+0x25>
    4cd4:	0f b6 55 fc          	movzbl -0x4(%rbp),%edx
    4cd8:	8b 45 f8             	mov    -0x8(%rbp),%eax
    4cdb:	89 c1                	mov    %eax,%ecx
    4cdd:	d3 fa                	sar    %cl,%edx
    4cdf:	89 d0                	mov    %edx,%eax
    4ce1:	eb 04                	jmp    4ce7 <safe_rshift_func_uint8_t_u_u+0x29>
    4ce3:	0f b6 45 fc          	movzbl -0x4(%rbp),%eax
    4ce7:	5d                   	pop    %rbp
    4ce8:	c3                   	retq   

0000000000004ce9 <safe_unary_minus_func_uint16_t_u>:
    4ce9:	f3 0f 1e fa          	endbr64 
    4ced:	55                   	push   %rbp
    4cee:	48 89 e5             	mov    %rsp,%rbp
    4cf1:	89 f8                	mov    %edi,%eax
    4cf3:	66 89 45 fc          	mov    %ax,-0x4(%rbp)
    4cf7:	0f b7 45 fc          	movzwl -0x4(%rbp),%eax
    4cfb:	f7 d8                	neg    %eax
    4cfd:	5d                   	pop    %rbp
    4cfe:	c3                   	retq   

0000000000004cff <safe_add_func_uint16_t_u_u>:
    4cff:	f3 0f 1e fa          	endbr64 
    4d03:	55                   	push   %rbp
    4d04:	48 89 e5             	mov    %rsp,%rbp
    4d07:	89 fa                	mov    %edi,%edx
    4d09:	89 f0                	mov    %esi,%eax
    4d0b:	66 89 55 fc          	mov    %dx,-0x4(%rbp)
    4d0f:	66 89 45 f8          	mov    %ax,-0x8(%rbp)
    4d13:	0f b7 55 fc          	movzwl -0x4(%rbp),%edx
    4d17:	0f b7 45 f8          	movzwl -0x8(%rbp),%eax
    4d1b:	01 d0                	add    %edx,%eax
    4d1d:	5d                   	pop    %rbp
    4d1e:	c3                   	retq   

0000000000004d1f <safe_sub_func_uint16_t_u_u>:
    4d1f:	f3 0f 1e fa          	endbr64 
    4d23:	55                   	push   %rbp
    4d24:	48 89 e5             	mov    %rsp,%rbp
    4d27:	89 fa                	mov    %edi,%edx
    4d29:	89 f0                	mov    %esi,%eax
    4d2b:	66 89 55 fc          	mov    %dx,-0x4(%rbp)
    4d2f:	66 89 45 f8          	mov    %ax,-0x8(%rbp)
    4d33:	0f b7 45 fc          	movzwl -0x4(%rbp),%eax
    4d37:	66 2b 45 f8          	sub    -0x8(%rbp),%ax
    4d3b:	5d                   	pop    %rbp
    4d3c:	c3                   	retq   

0000000000004d3d <safe_mul_func_uint16_t_u_u>:
    4d3d:	f3 0f 1e fa          	endbr64 
    4d41:	55                   	push   %rbp
    4d42:	48 89 e5             	mov    %rsp,%rbp
    4d45:	89 fa                	mov    %edi,%edx
    4d47:	89 f0                	mov    %esi,%eax
    4d49:	66 89 55 fc          	mov    %dx,-0x4(%rbp)
    4d4d:	66 89 45 f8          	mov    %ax,-0x8(%rbp)
    4d51:	0f b7 45 fc          	movzwl -0x4(%rbp),%eax
    4d55:	66 0f af 45 f8       	imul   -0x8(%rbp),%ax
    4d5a:	5d                   	pop    %rbp
    4d5b:	c3                   	retq   

0000000000004d5c <safe_mod_func_uint16_t_u_u>:
    4d5c:	f3 0f 1e fa          	endbr64 
    4d60:	55                   	push   %rbp
    4d61:	48 89 e5             	mov    %rsp,%rbp
    4d64:	89 fa                	mov    %edi,%edx
    4d66:	89 f0                	mov    %esi,%eax
    4d68:	66 89 55 fc          	mov    %dx,-0x4(%rbp)
    4d6c:	66 89 45 f8          	mov    %ax,-0x8(%rbp)
    4d70:	66 83 7d f8 00       	cmpw   $0x0,-0x8(%rbp)
    4d75:	74 11                	je     4d88 <safe_mod_func_uint16_t_u_u+0x2c>
    4d77:	0f b7 45 fc          	movzwl -0x4(%rbp),%eax
    4d7b:	ba 00 00 00 00       	mov    $0x0,%edx
    4d80:	66 f7 75 f8          	divw   -0x8(%rbp)
    4d84:	89 d0                	mov    %edx,%eax
    4d86:	eb 04                	jmp    4d8c <safe_mod_func_uint16_t_u_u+0x30>
    4d88:	0f b7 45 fc          	movzwl -0x4(%rbp),%eax
    4d8c:	5d                   	pop    %rbp
    4d8d:	c3                   	retq   

0000000000004d8e <safe_div_func_uint16_t_u_u>:
    4d8e:	f3 0f 1e fa          	endbr64 
    4d92:	55                   	push   %rbp
    4d93:	48 89 e5             	mov    %rsp,%rbp
    4d96:	89 fa                	mov    %edi,%edx
    4d98:	89 f0                	mov    %esi,%eax
    4d9a:	66 89 55 fc          	mov    %dx,-0x4(%rbp)
    4d9e:	66 89 45 f8          	mov    %ax,-0x8(%rbp)
    4da2:	66 83 7d f8 00       	cmpw   $0x0,-0x8(%rbp)
    4da7:	74 0f                	je     4db8 <safe_div_func_uint16_t_u_u+0x2a>
    4da9:	0f b7 45 fc          	movzwl -0x4(%rbp),%eax
    4dad:	ba 00 00 00 00       	mov    $0x0,%edx
    4db2:	66 f7 75 f8          	divw   -0x8(%rbp)
    4db6:	eb 04                	jmp    4dbc <safe_div_func_uint16_t_u_u+0x2e>
    4db8:	0f b7 45 fc          	movzwl -0x4(%rbp),%eax
    4dbc:	5d                   	pop    %rbp
    4dbd:	c3                   	retq   

0000000000004dbe <safe_lshift_func_uint16_t_u_s>:
    4dbe:	f3 0f 1e fa          	endbr64 
    4dc2:	55                   	push   %rbp
    4dc3:	48 89 e5             	mov    %rsp,%rbp
    4dc6:	89 f8                	mov    %edi,%eax
    4dc8:	89 75 f8             	mov    %esi,-0x8(%rbp)
    4dcb:	66 89 45 fc          	mov    %ax,-0x4(%rbp)
    4dcf:	83 7d f8 00          	cmpl   $0x0,-0x8(%rbp)
    4dd3:	78 2b                	js     4e00 <safe_lshift_func_uint16_t_u_s+0x42>
    4dd5:	83 7d f8 1f          	cmpl   $0x1f,-0x8(%rbp)
    4dd9:	7f 25                	jg     4e00 <safe_lshift_func_uint16_t_u_s+0x42>
    4ddb:	0f b7 55 fc          	movzwl -0x4(%rbp),%edx
    4ddf:	8b 45 f8             	mov    -0x8(%rbp),%eax
    4de2:	be ff ff 00 00       	mov    $0xffff,%esi
    4de7:	89 c1                	mov    %eax,%ecx
    4de9:	d3 fe                	sar    %cl,%esi
    4deb:	89 f0                	mov    %esi,%eax
    4ded:	39 c2                	cmp    %eax,%edx
    4def:	7f 0f                	jg     4e00 <safe_lshift_func_uint16_t_u_s+0x42>
    4df1:	0f b7 55 fc          	movzwl -0x4(%rbp),%edx
    4df5:	8b 45 f8             	mov    -0x8(%rbp),%eax
    4df8:	89 c1                	mov    %eax,%ecx
    4dfa:	d3 e2                	shl    %cl,%edx
    4dfc:	89 d0                	mov    %edx,%eax
    4dfe:	eb 04                	jmp    4e04 <safe_lshift_func_uint16_t_u_s+0x46>
    4e00:	0f b7 45 fc          	movzwl -0x4(%rbp),%eax
    4e04:	5d                   	pop    %rbp
    4e05:	c3                   	retq   

0000000000004e06 <safe_lshift_func_uint16_t_u_u>:
    4e06:	f3 0f 1e fa          	endbr64 
    4e0a:	55                   	push   %rbp
    4e0b:	48 89 e5             	mov    %rsp,%rbp
    4e0e:	89 f8                	mov    %edi,%eax
    4e10:	89 75 f8             	mov    %esi,-0x8(%rbp)
    4e13:	66 89 45 fc          	mov    %ax,-0x4(%rbp)
    4e17:	83 7d f8 1f          	cmpl   $0x1f,-0x8(%rbp)
    4e1b:	77 25                	ja     4e42 <safe_lshift_func_uint16_t_u_u+0x3c>
    4e1d:	0f b7 55 fc          	movzwl -0x4(%rbp),%edx
    4e21:	8b 45 f8             	mov    -0x8(%rbp),%eax
    4e24:	be ff ff 00 00       	mov    $0xffff,%esi
    4e29:	89 c1                	mov    %eax,%ecx
    4e2b:	d3 fe                	sar    %cl,%esi
    4e2d:	89 f0                	mov    %esi,%eax
    4e2f:	39 c2                	cmp    %eax,%edx
    4e31:	7f 0f                	jg     4e42 <safe_lshift_func_uint16_t_u_u+0x3c>
    4e33:	0f b7 55 fc          	movzwl -0x4(%rbp),%edx
    4e37:	8b 45 f8             	mov    -0x8(%rbp),%eax
    4e3a:	89 c1                	mov    %eax,%ecx
    4e3c:	d3 e2                	shl    %cl,%edx
    4e3e:	89 d0                	mov    %edx,%eax
    4e40:	eb 04                	jmp    4e46 <safe_lshift_func_uint16_t_u_u+0x40>
    4e42:	0f b7 45 fc          	movzwl -0x4(%rbp),%eax
    4e46:	5d                   	pop    %rbp
    4e47:	c3                   	retq   

0000000000004e48 <safe_rshift_func_uint16_t_u_s>:
    4e48:	f3 0f 1e fa          	endbr64 
    4e4c:	55                   	push   %rbp
    4e4d:	48 89 e5             	mov    %rsp,%rbp
    4e50:	89 f8                	mov    %edi,%eax
    4e52:	89 75 f8             	mov    %esi,-0x8(%rbp)
    4e55:	66 89 45 fc          	mov    %ax,-0x4(%rbp)
    4e59:	83 7d f8 00          	cmpl   $0x0,-0x8(%rbp)
    4e5d:	78 15                	js     4e74 <safe_rshift_func_uint16_t_u_s+0x2c>
    4e5f:	83 7d f8 1f          	cmpl   $0x1f,-0x8(%rbp)
    4e63:	7f 0f                	jg     4e74 <safe_rshift_func_uint16_t_u_s+0x2c>
    4e65:	0f b7 55 fc          	movzwl -0x4(%rbp),%edx
    4e69:	8b 45 f8             	mov    -0x8(%rbp),%eax
    4e6c:	89 c1                	mov    %eax,%ecx
    4e6e:	d3 fa                	sar    %cl,%edx
    4e70:	89 d0                	mov    %edx,%eax
    4e72:	eb 04                	jmp    4e78 <safe_rshift_func_uint16_t_u_s+0x30>
    4e74:	0f b7 45 fc          	movzwl -0x4(%rbp),%eax
    4e78:	5d                   	pop    %rbp
    4e79:	c3                   	retq   

0000000000004e7a <safe_rshift_func_uint16_t_u_u>:
    4e7a:	f3 0f 1e fa          	endbr64 
    4e7e:	55                   	push   %rbp
    4e7f:	48 89 e5             	mov    %rsp,%rbp
    4e82:	89 f8                	mov    %edi,%eax
    4e84:	89 75 f8             	mov    %esi,-0x8(%rbp)
    4e87:	66 89 45 fc          	mov    %ax,-0x4(%rbp)
    4e8b:	83 7d f8 1f          	cmpl   $0x1f,-0x8(%rbp)
    4e8f:	77 0f                	ja     4ea0 <safe_rshift_func_uint16_t_u_u+0x26>
    4e91:	0f b7 55 fc          	movzwl -0x4(%rbp),%edx
    4e95:	8b 45 f8             	mov    -0x8(%rbp),%eax
    4e98:	89 c1                	mov    %eax,%ecx
    4e9a:	d3 fa                	sar    %cl,%edx
    4e9c:	89 d0                	mov    %edx,%eax
    4e9e:	eb 04                	jmp    4ea4 <safe_rshift_func_uint16_t_u_u+0x2a>
    4ea0:	0f b7 45 fc          	movzwl -0x4(%rbp),%eax
    4ea4:	5d                   	pop    %rbp
    4ea5:	c3                   	retq   

0000000000004ea6 <safe_unary_minus_func_uint32_t_u>:
    4ea6:	f3 0f 1e fa          	endbr64 
    4eaa:	55                   	push   %rbp
    4eab:	48 89 e5             	mov    %rsp,%rbp
    4eae:	89 7d fc             	mov    %edi,-0x4(%rbp)
    4eb1:	8b 45 fc             	mov    -0x4(%rbp),%eax
    4eb4:	f7 d8                	neg    %eax
    4eb6:	5d                   	pop    %rbp
    4eb7:	c3                   	retq   

0000000000004eb8 <safe_add_func_uint32_t_u_u>:
    4eb8:	f3 0f 1e fa          	endbr64 
    4ebc:	55                   	push   %rbp
    4ebd:	48 89 e5             	mov    %rsp,%rbp
    4ec0:	89 7d fc             	mov    %edi,-0x4(%rbp)
    4ec3:	89 75 f8             	mov    %esi,-0x8(%rbp)
    4ec6:	8b 55 fc             	mov    -0x4(%rbp),%edx
    4ec9:	8b 45 f8             	mov    -0x8(%rbp),%eax
    4ecc:	01 d0                	add    %edx,%eax
    4ece:	5d                   	pop    %rbp
    4ecf:	c3                   	retq   

0000000000004ed0 <safe_sub_func_uint32_t_u_u>:
    4ed0:	f3 0f 1e fa          	endbr64 
    4ed4:	55                   	push   %rbp
    4ed5:	48 89 e5             	mov    %rsp,%rbp
    4ed8:	89 7d fc             	mov    %edi,-0x4(%rbp)
    4edb:	89 75 f8             	mov    %esi,-0x8(%rbp)
    4ede:	8b 45 fc             	mov    -0x4(%rbp),%eax
    4ee1:	2b 45 f8             	sub    -0x8(%rbp),%eax
    4ee4:	5d                   	pop    %rbp
    4ee5:	c3                   	retq   

0000000000004ee6 <safe_mul_func_uint32_t_u_u>:
    4ee6:	f3 0f 1e fa          	endbr64 
    4eea:	55                   	push   %rbp
    4eeb:	48 89 e5             	mov    %rsp,%rbp
    4eee:	89 7d fc             	mov    %edi,-0x4(%rbp)
    4ef1:	89 75 f8             	mov    %esi,-0x8(%rbp)
    4ef4:	8b 45 fc             	mov    -0x4(%rbp),%eax
    4ef7:	0f af 45 f8          	imul   -0x8(%rbp),%eax
    4efb:	5d                   	pop    %rbp
    4efc:	c3                   	retq   

0000000000004efd <safe_mod_func_uint32_t_u_u>:
    4efd:	f3 0f 1e fa          	endbr64 
    4f01:	55                   	push   %rbp
    4f02:	48 89 e5             	mov    %rsp,%rbp
    4f05:	89 7d fc             	mov    %edi,-0x4(%rbp)
    4f08:	89 75 f8             	mov    %esi,-0x8(%rbp)
    4f0b:	83 7d f8 00          	cmpl   $0x0,-0x8(%rbp)
    4f0f:	74 0f                	je     4f20 <safe_mod_func_uint32_t_u_u+0x23>
    4f11:	8b 45 fc             	mov    -0x4(%rbp),%eax
    4f14:	ba 00 00 00 00       	mov    $0x0,%edx
    4f19:	f7 75 f8             	divl   -0x8(%rbp)
    4f1c:	89 d0                	mov    %edx,%eax
    4f1e:	eb 03                	jmp    4f23 <safe_mod_func_uint32_t_u_u+0x26>
    4f20:	8b 45 fc             	mov    -0x4(%rbp),%eax
    4f23:	5d                   	pop    %rbp
    4f24:	c3                   	retq   

0000000000004f25 <safe_div_func_uint32_t_u_u>:
    4f25:	f3 0f 1e fa          	endbr64 
    4f29:	55                   	push   %rbp
    4f2a:	48 89 e5             	mov    %rsp,%rbp
    4f2d:	89 7d fc             	mov    %edi,-0x4(%rbp)
    4f30:	89 75 f8             	mov    %esi,-0x8(%rbp)
    4f33:	83 7d f8 00          	cmpl   $0x0,-0x8(%rbp)
    4f37:	74 0d                	je     4f46 <safe_div_func_uint32_t_u_u+0x21>
    4f39:	8b 45 fc             	mov    -0x4(%rbp),%eax
    4f3c:	ba 00 00 00 00       	mov    $0x0,%edx
    4f41:	f7 75 f8             	divl   -0x8(%rbp)
    4f44:	eb 03                	jmp    4f49 <safe_div_func_uint32_t_u_u+0x24>
    4f46:	8b 45 fc             	mov    -0x4(%rbp),%eax
    4f49:	5d                   	pop    %rbp
    4f4a:	c3                   	retq   

0000000000004f4b <safe_lshift_func_uint32_t_u_s>:
    4f4b:	f3 0f 1e fa          	endbr64 
    4f4f:	55                   	push   %rbp
    4f50:	48 89 e5             	mov    %rsp,%rbp
    4f53:	89 7d fc             	mov    %edi,-0x4(%rbp)
    4f56:	89 75 f8             	mov    %esi,-0x8(%rbp)
    4f59:	83 7d f8 00          	cmpl   $0x0,-0x8(%rbp)
    4f5d:	78 27                	js     4f86 <safe_lshift_func_uint32_t_u_s+0x3b>
    4f5f:	83 7d f8 1f          	cmpl   $0x1f,-0x8(%rbp)
    4f63:	7f 21                	jg     4f86 <safe_lshift_func_uint32_t_u_s+0x3b>
    4f65:	8b 45 f8             	mov    -0x8(%rbp),%eax
    4f68:	ba ff ff ff ff       	mov    $0xffffffff,%edx
    4f6d:	89 c1                	mov    %eax,%ecx
    4f6f:	d3 ea                	shr    %cl,%edx
    4f71:	89 d0                	mov    %edx,%eax
    4f73:	39 45 fc             	cmp    %eax,-0x4(%rbp)
    4f76:	77 0e                	ja     4f86 <safe_lshift_func_uint32_t_u_s+0x3b>
    4f78:	8b 45 f8             	mov    -0x8(%rbp),%eax
    4f7b:	8b 55 fc             	mov    -0x4(%rbp),%edx
    4f7e:	89 c1                	mov    %eax,%ecx
    4f80:	d3 e2                	shl    %cl,%edx
    4f82:	89 d0                	mov    %edx,%eax
    4f84:	eb 03                	jmp    4f89 <safe_lshift_func_uint32_t_u_s+0x3e>
    4f86:	8b 45 fc             	mov    -0x4(%rbp),%eax
    4f89:	5d                   	pop    %rbp
    4f8a:	c3                   	retq   

0000000000004f8b <safe_lshift_func_uint32_t_u_u>:
    4f8b:	f3 0f 1e fa          	endbr64 
    4f8f:	55                   	push   %rbp
    4f90:	48 89 e5             	mov    %rsp,%rbp
    4f93:	89 7d fc             	mov    %edi,-0x4(%rbp)
    4f96:	89 75 f8             	mov    %esi,-0x8(%rbp)
    4f99:	83 7d f8 1f          	cmpl   $0x1f,-0x8(%rbp)
    4f9d:	77 21                	ja     4fc0 <safe_lshift_func_uint32_t_u_u+0x35>
    4f9f:	8b 45 f8             	mov    -0x8(%rbp),%eax
    4fa2:	ba ff ff ff ff       	mov    $0xffffffff,%edx
    4fa7:	89 c1                	mov    %eax,%ecx
    4fa9:	d3 ea                	shr    %cl,%edx
    4fab:	89 d0                	mov    %edx,%eax
    4fad:	39 45 fc             	cmp    %eax,-0x4(%rbp)
    4fb0:	77 0e                	ja     4fc0 <safe_lshift_func_uint32_t_u_u+0x35>
    4fb2:	8b 45 f8             	mov    -0x8(%rbp),%eax
    4fb5:	8b 55 fc             	mov    -0x4(%rbp),%edx
    4fb8:	89 c1                	mov    %eax,%ecx
    4fba:	d3 e2                	shl    %cl,%edx
    4fbc:	89 d0                	mov    %edx,%eax
    4fbe:	eb 03                	jmp    4fc3 <safe_lshift_func_uint32_t_u_u+0x38>
    4fc0:	8b 45 fc             	mov    -0x4(%rbp),%eax
    4fc3:	5d                   	pop    %rbp
    4fc4:	c3                   	retq   

0000000000004fc5 <safe_rshift_func_uint32_t_u_s>:
    4fc5:	f3 0f 1e fa          	endbr64 
    4fc9:	55                   	push   %rbp
    4fca:	48 89 e5             	mov    %rsp,%rbp
    4fcd:	89 7d fc             	mov    %edi,-0x4(%rbp)
    4fd0:	89 75 f8             	mov    %esi,-0x8(%rbp)
    4fd3:	83 7d f8 00          	cmpl   $0x0,-0x8(%rbp)
    4fd7:	78 14                	js     4fed <safe_rshift_func_uint32_t_u_s+0x28>
    4fd9:	83 7d f8 1f          	cmpl   $0x1f,-0x8(%rbp)
    4fdd:	7f 0e                	jg     4fed <safe_rshift_func_uint32_t_u_s+0x28>
    4fdf:	8b 45 f8             	mov    -0x8(%rbp),%eax
    4fe2:	8b 55 fc             	mov    -0x4(%rbp),%edx
    4fe5:	89 c1                	mov    %eax,%ecx
    4fe7:	d3 ea                	shr    %cl,%edx
    4fe9:	89 d0                	mov    %edx,%eax
    4feb:	eb 03                	jmp    4ff0 <safe_rshift_func_uint32_t_u_s+0x2b>
    4fed:	8b 45 fc             	mov    -0x4(%rbp),%eax
    4ff0:	5d                   	pop    %rbp
    4ff1:	c3                   	retq   

0000000000004ff2 <safe_rshift_func_uint32_t_u_u>:
    4ff2:	f3 0f 1e fa          	endbr64 
    4ff6:	55                   	push   %rbp
    4ff7:	48 89 e5             	mov    %rsp,%rbp
    4ffa:	89 7d fc             	mov    %edi,-0x4(%rbp)
    4ffd:	89 75 f8             	mov    %esi,-0x8(%rbp)
    5000:	83 7d f8 1f          	cmpl   $0x1f,-0x8(%rbp)
    5004:	77 0e                	ja     5014 <safe_rshift_func_uint32_t_u_u+0x22>
    5006:	8b 45 f8             	mov    -0x8(%rbp),%eax
    5009:	8b 55 fc             	mov    -0x4(%rbp),%edx
    500c:	89 c1                	mov    %eax,%ecx
    500e:	d3 ea                	shr    %cl,%edx
    5010:	89 d0                	mov    %edx,%eax
    5012:	eb 03                	jmp    5017 <safe_rshift_func_uint32_t_u_u+0x25>
    5014:	8b 45 fc             	mov    -0x4(%rbp),%eax
    5017:	5d                   	pop    %rbp
    5018:	c3                   	retq   

0000000000005019 <safe_unary_minus_func_uint64_t_u>:
    5019:	f3 0f 1e fa          	endbr64 
    501d:	55                   	push   %rbp
    501e:	48 89 e5             	mov    %rsp,%rbp
    5021:	48 89 7d f8          	mov    %rdi,-0x8(%rbp)
    5025:	48 8b 45 f8          	mov    -0x8(%rbp),%rax
    5029:	48 f7 d8             	neg    %rax
    502c:	5d                   	pop    %rbp
    502d:	c3                   	retq   

000000000000502e <safe_add_func_uint64_t_u_u>:
    502e:	f3 0f 1e fa          	endbr64 
    5032:	55                   	push   %rbp
    5033:	48 89 e5             	mov    %rsp,%rbp
    5036:	48 89 7d f8          	mov    %rdi,-0x8(%rbp)
    503a:	48 89 75 f0          	mov    %rsi,-0x10(%rbp)
    503e:	48 8b 55 f8          	mov    -0x8(%rbp),%rdx
    5042:	48 8b 45 f0          	mov    -0x10(%rbp),%rax
    5046:	48 01 d0             	add    %rdx,%rax
    5049:	5d                   	pop    %rbp
    504a:	c3                   	retq   

000000000000504b <safe_sub_func_uint64_t_u_u>:
    504b:	f3 0f 1e fa          	endbr64 
    504f:	55                   	push   %rbp
    5050:	48 89 e5             	mov    %rsp,%rbp
    5053:	48 89 7d f8          	mov    %rdi,-0x8(%rbp)
    5057:	48 89 75 f0          	mov    %rsi,-0x10(%rbp)
    505b:	48 8b 45 f8          	mov    -0x8(%rbp),%rax
    505f:	48 2b 45 f0          	sub    -0x10(%rbp),%rax
    5063:	5d                   	pop    %rbp
    5064:	c3                   	retq   

0000000000005065 <safe_mul_func_uint64_t_u_u>:
    5065:	f3 0f 1e fa          	endbr64 
    5069:	55                   	push   %rbp
    506a:	48 89 e5             	mov    %rsp,%rbp
    506d:	48 89 7d f8          	mov    %rdi,-0x8(%rbp)
    5071:	48 89 75 f0          	mov    %rsi,-0x10(%rbp)
    5075:	48 8b 45 f8          	mov    -0x8(%rbp),%rax
    5079:	48 0f af 45 f0       	imul   -0x10(%rbp),%rax
    507e:	5d                   	pop    %rbp
    507f:	c3                   	retq   

0000000000005080 <safe_mod_func_uint64_t_u_u>:
    5080:	f3 0f 1e fa          	endbr64 
    5084:	55                   	push   %rbp
    5085:	48 89 e5             	mov    %rsp,%rbp
    5088:	48 89 7d f8          	mov    %rdi,-0x8(%rbp)
    508c:	48 89 75 f0          	mov    %rsi,-0x10(%rbp)
    5090:	48 83 7d f0 00       	cmpq   $0x0,-0x10(%rbp)
    5095:	74 12                	je     50a9 <safe_mod_func_uint64_t_u_u+0x29>
    5097:	48 8b 45 f8          	mov    -0x8(%rbp),%rax
    509b:	ba 00 00 00 00       	mov    $0x0,%edx
    50a0:	48 f7 75 f0          	divq   -0x10(%rbp)
    50a4:	48 89 d0             	mov    %rdx,%rax
    50a7:	eb 04                	jmp    50ad <safe_mod_func_uint64_t_u_u+0x2d>
    50a9:	48 8b 45 f8          	mov    -0x8(%rbp),%rax
    50ad:	5d                   	pop    %rbp
    50ae:	c3                   	retq   

00000000000050af <safe_div_func_uint64_t_u_u>:
    50af:	f3 0f 1e fa          	endbr64 
    50b3:	55                   	push   %rbp
    50b4:	48 89 e5             	mov    %rsp,%rbp
    50b7:	48 89 7d f8          	mov    %rdi,-0x8(%rbp)
    50bb:	48 89 75 f0          	mov    %rsi,-0x10(%rbp)
    50bf:	48 83 7d f0 00       	cmpq   $0x0,-0x10(%rbp)
    50c4:	74 0f                	je     50d5 <safe_div_func_uint64_t_u_u+0x26>
    50c6:	48 8b 45 f8          	mov    -0x8(%rbp),%rax
    50ca:	ba 00 00 00 00       	mov    $0x0,%edx
    50cf:	48 f7 75 f0          	divq   -0x10(%rbp)
    50d3:	eb 04                	jmp    50d9 <safe_div_func_uint64_t_u_u+0x2a>
    50d5:	48 8b 45 f8          	mov    -0x8(%rbp),%rax
    50d9:	5d                   	pop    %rbp
    50da:	c3                   	retq   

00000000000050db <safe_lshift_func_uint64_t_u_s>:
    50db:	f3 0f 1e fa          	endbr64 
    50df:	55                   	push   %rbp
    50e0:	48 89 e5             	mov    %rsp,%rbp
    50e3:	48 89 7d f8          	mov    %rdi,-0x8(%rbp)
    50e7:	89 75 f4             	mov    %esi,-0xc(%rbp)
    50ea:	83 7d f4 00          	cmpl   $0x0,-0xc(%rbp)
    50ee:	78 2f                	js     511f <safe_lshift_func_uint64_t_u_s+0x44>
    50f0:	83 7d f4 1f          	cmpl   $0x1f,-0xc(%rbp)
    50f4:	7f 29                	jg     511f <safe_lshift_func_uint64_t_u_s+0x44>
    50f6:	8b 45 f4             	mov    -0xc(%rbp),%eax
    50f9:	48 c7 c2 ff ff ff ff 	mov    $0xffffffffffffffff,%rdx
    5100:	89 c1                	mov    %eax,%ecx
    5102:	48 d3 ea             	shr    %cl,%rdx
    5105:	48 89 d0             	mov    %rdx,%rax
    5108:	48 39 45 f8          	cmp    %rax,-0x8(%rbp)
    510c:	77 11                	ja     511f <safe_lshift_func_uint64_t_u_s+0x44>
    510e:	8b 45 f4             	mov    -0xc(%rbp),%eax
    5111:	48 8b 55 f8          	mov    -0x8(%rbp),%rdx
    5115:	89 c1                	mov    %eax,%ecx
    5117:	48 d3 e2             	shl    %cl,%rdx
    511a:	48 89 d0             	mov    %rdx,%rax
    511d:	eb 04                	jmp    5123 <safe_lshift_func_uint64_t_u_s+0x48>
    511f:	48 8b 45 f8          	mov    -0x8(%rbp),%rax
    5123:	5d                   	pop    %rbp
    5124:	c3                   	retq   

0000000000005125 <safe_lshift_func_uint64_t_u_u>:
    5125:	f3 0f 1e fa          	endbr64 
    5129:	55                   	push   %rbp
    512a:	48 89 e5             	mov    %rsp,%rbp
    512d:	48 89 7d f8          	mov    %rdi,-0x8(%rbp)
    5131:	89 75 f4             	mov    %esi,-0xc(%rbp)
    5134:	83 7d f4 1f          	cmpl   $0x1f,-0xc(%rbp)
    5138:	77 29                	ja     5163 <safe_lshift_func_uint64_t_u_u+0x3e>
    513a:	8b 45 f4             	mov    -0xc(%rbp),%eax
    513d:	48 c7 c2 ff ff ff ff 	mov    $0xffffffffffffffff,%rdx
    5144:	89 c1                	mov    %eax,%ecx
    5146:	48 d3 ea             	shr    %cl,%rdx
    5149:	48 89 d0             	mov    %rdx,%rax
    514c:	48 39 45 f8          	cmp    %rax,-0x8(%rbp)
    5150:	77 11                	ja     5163 <safe_lshift_func_uint64_t_u_u+0x3e>
    5152:	8b 45 f4             	mov    -0xc(%rbp),%eax
    5155:	48 8b 55 f8          	mov    -0x8(%rbp),%rdx
    5159:	89 c1                	mov    %eax,%ecx
    515b:	48 d3 e2             	shl    %cl,%rdx
    515e:	48 89 d0             	mov    %rdx,%rax
    5161:	eb 04                	jmp    5167 <safe_lshift_func_uint64_t_u_u+0x42>
    5163:	48 8b 45 f8          	mov    -0x8(%rbp),%rax
    5167:	5d                   	pop    %rbp
    5168:	c3                   	retq   

0000000000005169 <safe_rshift_func_uint64_t_u_s>:
    5169:	f3 0f 1e fa          	endbr64 
    516d:	55                   	push   %rbp
    516e:	48 89 e5             	mov    %rsp,%rbp
    5171:	48 89 7d f8          	mov    %rdi,-0x8(%rbp)
    5175:	89 75 f4             	mov    %esi,-0xc(%rbp)
    5178:	83 7d f4 00          	cmpl   $0x0,-0xc(%rbp)
    517c:	78 17                	js     5195 <safe_rshift_func_uint64_t_u_s+0x2c>
    517e:	83 7d f4 1f          	cmpl   $0x1f,-0xc(%rbp)
    5182:	7f 11                	jg     5195 <safe_rshift_func_uint64_t_u_s+0x2c>
    5184:	8b 45 f4             	mov    -0xc(%rbp),%eax
    5187:	48 8b 55 f8          	mov    -0x8(%rbp),%rdx
    518b:	89 c1                	mov    %eax,%ecx
    518d:	48 d3 ea             	shr    %cl,%rdx
    5190:	48 89 d0             	mov    %rdx,%rax
    5193:	eb 04                	jmp    5199 <safe_rshift_func_uint64_t_u_s+0x30>
    5195:	48 8b 45 f8          	mov    -0x8(%rbp),%rax
    5199:	5d                   	pop    %rbp
    519a:	c3                   	retq   

000000000000519b <safe_rshift_func_uint64_t_u_u>:
    519b:	f3 0f 1e fa          	endbr64 
    519f:	55                   	push   %rbp
    51a0:	48 89 e5             	mov    %rsp,%rbp
    51a3:	48 89 7d f8          	mov    %rdi,-0x8(%rbp)
    51a7:	89 75 f4             	mov    %esi,-0xc(%rbp)
    51aa:	83 7d f4 1f          	cmpl   $0x1f,-0xc(%rbp)
    51ae:	77 11                	ja     51c1 <safe_rshift_func_uint64_t_u_u+0x26>
    51b0:	8b 45 f4             	mov    -0xc(%rbp),%eax
    51b3:	48 8b 55 f8          	mov    -0x8(%rbp),%rdx
    51b7:	89 c1                	mov    %eax,%ecx
    51b9:	48 d3 ea             	shr    %cl,%rdx
    51bc:	48 89 d0             	mov    %rdx,%rax
    51bf:	eb 04                	jmp    51c5 <safe_rshift_func_uint64_t_u_u+0x2a>
    51c1:	48 8b 45 f8          	mov    -0x8(%rbp),%rax
    51c5:	5d                   	pop    %rbp
    51c6:	c3                   	retq   

00000000000051c7 <safe_add_func_float_f_f>:
    51c7:	f3 0f 1e fa          	endbr64 
    51cb:	55                   	push   %rbp
    51cc:	48 89 e5             	mov    %rsp,%rbp
    51cf:	f3 0f 11 45 fc       	movss  %xmm0,-0x4(%rbp)
    51d4:	f3 0f 11 4d f8       	movss  %xmm1,-0x8(%rbp)
    51d9:	f3 0f 10 4d fc       	movss  -0x4(%rbp),%xmm1
    51de:	f3 0f 10 05 26 e3 00 	movss  0xe326(%rip),%xmm0        # 1350c <l_1266.4442+0xc>
    51e5:	00 
    51e6:	f3 0f 59 c8          	mulss  %xmm0,%xmm1
    51ea:	f3 0f 10 55 f8       	movss  -0x8(%rbp),%xmm2
    51ef:	f3 0f 10 05 15 e3 00 	movss  0xe315(%rip),%xmm0        # 1350c <l_1266.4442+0xc>
    51f6:	00 
    51f7:	f3 0f 59 c2          	mulss  %xmm2,%xmm0
    51fb:	f3 0f 58 c1          	addss  %xmm1,%xmm0
    51ff:	f3 0f 10 0d 09 e3 00 	movss  0xe309(%rip),%xmm1        # 13510 <l_1266.4442+0x10>
    5206:	00 
    5207:	0f 54 c1             	andps  %xmm1,%xmm0
    520a:	0f 2f 05 0f e3 00 00 	comiss 0xe30f(%rip),%xmm0        # 13520 <l_1266.4442+0x20>
    5211:	76 07                	jbe    521a <safe_add_func_float_f_f+0x53>
    5213:	f3 0f 10 45 fc       	movss  -0x4(%rbp),%xmm0
    5218:	eb 0a                	jmp    5224 <safe_add_func_float_f_f+0x5d>
    521a:	f3 0f 10 45 fc       	movss  -0x4(%rbp),%xmm0
    521f:	f3 0f 58 45 f8       	addss  -0x8(%rbp),%xmm0
    5224:	5d                   	pop    %rbp
    5225:	c3                   	retq   

0000000000005226 <safe_sub_func_float_f_f>:
    5226:	f3 0f 1e fa          	endbr64 
    522a:	55                   	push   %rbp
    522b:	48 89 e5             	mov    %rsp,%rbp
    522e:	f3 0f 11 45 fc       	movss  %xmm0,-0x4(%rbp)
    5233:	f3 0f 11 4d f8       	movss  %xmm1,-0x8(%rbp)
    5238:	f3 0f 10 4d fc       	movss  -0x4(%rbp),%xmm1
    523d:	f3 0f 10 05 c7 e2 00 	movss  0xe2c7(%rip),%xmm0        # 1350c <l_1266.4442+0xc>
    5244:	00 
    5245:	f3 0f 59 c1          	mulss  %xmm1,%xmm0
    5249:	f3 0f 10 55 f8       	movss  -0x8(%rbp),%xmm2
    524e:	f3 0f 10 0d b6 e2 00 	movss  0xe2b6(%rip),%xmm1        # 1350c <l_1266.4442+0xc>
    5255:	00 
    5256:	f3 0f 59 ca          	mulss  %xmm2,%xmm1
    525a:	f3 0f 5c c1          	subss  %xmm1,%xmm0
    525e:	f3 0f 10 0d aa e2 00 	movss  0xe2aa(%rip),%xmm1        # 13510 <l_1266.4442+0x10>
    5265:	00 
    5266:	0f 54 c1             	andps  %xmm1,%xmm0
    5269:	0f 2f 05 b0 e2 00 00 	comiss 0xe2b0(%rip),%xmm0        # 13520 <l_1266.4442+0x20>
    5270:	76 07                	jbe    5279 <safe_sub_func_float_f_f+0x53>
    5272:	f3 0f 10 45 fc       	movss  -0x4(%rbp),%xmm0
    5277:	eb 0a                	jmp    5283 <safe_sub_func_float_f_f+0x5d>
    5279:	f3 0f 10 45 fc       	movss  -0x4(%rbp),%xmm0
    527e:	f3 0f 5c 45 f8       	subss  -0x8(%rbp),%xmm0
    5283:	5d                   	pop    %rbp
    5284:	c3                   	retq   

0000000000005285 <safe_mul_func_float_f_f>:
    5285:	f3 0f 1e fa          	endbr64 
    5289:	55                   	push   %rbp
    528a:	48 89 e5             	mov    %rsp,%rbp
    528d:	f3 0f 11 45 fc       	movss  %xmm0,-0x4(%rbp)
    5292:	f3 0f 11 4d f8       	movss  %xmm1,-0x8(%rbp)
    5297:	f3 0f 10 4d fc       	movss  -0x4(%rbp),%xmm1
    529c:	f3 0f 10 05 80 e2 00 	movss  0xe280(%rip),%xmm0        # 13524 <l_1266.4442+0x24>
    52a3:	00 
    52a4:	f3 0f 59 c8          	mulss  %xmm0,%xmm1
    52a8:	f3 0f 10 55 f8       	movss  -0x8(%rbp),%xmm2
    52ad:	f3 0f 10 05 73 e2 00 	movss  0xe273(%rip),%xmm0        # 13528 <l_1266.4442+0x28>
    52b4:	00 
    52b5:	f3 0f 59 c2          	mulss  %xmm2,%xmm0
    52b9:	f3 0f 59 c1          	mulss  %xmm1,%xmm0
    52bd:	f3 0f 10 0d 4b e2 00 	movss  0xe24b(%rip),%xmm1        # 13510 <l_1266.4442+0x10>
    52c4:	00 
    52c5:	0f 54 c1             	andps  %xmm1,%xmm0
    52c8:	0f 2f 05 5d e2 00 00 	comiss 0xe25d(%rip),%xmm0        # 1352c <l_1266.4442+0x2c>
    52cf:	76 07                	jbe    52d8 <safe_mul_func_float_f_f+0x53>
    52d1:	f3 0f 10 45 fc       	movss  -0x4(%rbp),%xmm0
    52d6:	eb 0a                	jmp    52e2 <safe_mul_func_float_f_f+0x5d>
    52d8:	f3 0f 10 45 fc       	movss  -0x4(%rbp),%xmm0
    52dd:	f3 0f 59 45 f8       	mulss  -0x8(%rbp),%xmm0
    52e2:	5d                   	pop    %rbp
    52e3:	c3                   	retq   

00000000000052e4 <safe_div_func_float_f_f>:
    52e4:	f3 0f 1e fa          	endbr64 
    52e8:	55                   	push   %rbp
    52e9:	48 89 e5             	mov    %rsp,%rbp
    52ec:	f3 0f 11 45 fc       	movss  %xmm0,-0x4(%rbp)
    52f1:	f3 0f 11 4d f8       	movss  %xmm1,-0x8(%rbp)
    52f6:	f3 0f 10 45 f8       	movss  -0x8(%rbp),%xmm0
    52fb:	f3 0f 10 0d 0d e2 00 	movss  0xe20d(%rip),%xmm1        # 13510 <l_1266.4442+0x10>
    5302:	00 
    5303:	0f 54 c8             	andps  %xmm0,%xmm1
    5306:	f3 0f 10 05 22 e2 00 	movss  0xe222(%rip),%xmm0        # 13530 <l_1266.4442+0x30>
    530d:	00 
    530e:	0f 2f c1             	comiss %xmm1,%xmm0
    5311:	0f 97 c0             	seta   %al
    5314:	83 f0 01             	xor    $0x1,%eax
    5317:	84 c0                	test   %al,%al
    5319:	75 56                	jne    5371 <safe_div_func_float_f_f+0x8d>
    531b:	66 0f ef c0          	pxor   %xmm0,%xmm0
    531f:	0f 2e 45 f8          	ucomiss -0x8(%rbp),%xmm0
    5323:	7a 0a                	jp     532f <safe_div_func_float_f_f+0x4b>
    5325:	66 0f ef c0          	pxor   %xmm0,%xmm0
    5329:	0f 2e 45 f8          	ucomiss -0x8(%rbp),%xmm0
    532d:	74 4e                	je     537d <safe_div_func_float_f_f+0x99>
    532f:	f3 0f 10 4d fc       	movss  -0x4(%rbp),%xmm1
    5334:	f3 0f 10 05 f8 e1 00 	movss  0xe1f8(%rip),%xmm0        # 13534 <l_1266.4442+0x34>
    533b:	00 
    533c:	f3 0f 59 c1          	mulss  %xmm1,%xmm0
    5340:	f3 0f 10 55 f8       	movss  -0x8(%rbp),%xmm2
    5345:	f3 0f 10 0d eb e1 00 	movss  0xe1eb(%rip),%xmm1        # 13538 <l_1266.4442+0x38>
    534c:	00 
    534d:	f3 0f 59 ca          	mulss  %xmm2,%xmm1
    5351:	f3 0f 5e c1          	divss  %xmm1,%xmm0
    5355:	f3 0f 10 0d b3 e1 00 	movss  0xe1b3(%rip),%xmm1        # 13510 <l_1266.4442+0x10>
    535c:	00 
    535d:	0f 54 c1             	andps  %xmm1,%xmm0
    5360:	0f 2f 05 d5 e1 00 00 	comiss 0xe1d5(%rip),%xmm0        # 1353c <l_1266.4442+0x3c>
    5367:	0f 97 c0             	seta   %al
    536a:	83 f0 01             	xor    $0x1,%eax
    536d:	84 c0                	test   %al,%al
    536f:	74 0c                	je     537d <safe_div_func_float_f_f+0x99>
    5371:	f3 0f 10 45 fc       	movss  -0x4(%rbp),%xmm0
    5376:	f3 0f 5e 45 f8       	divss  -0x8(%rbp),%xmm0
    537b:	eb 05                	jmp    5382 <safe_div_func_float_f_f+0x9e>
    537d:	f3 0f 10 45 fc       	movss  -0x4(%rbp),%xmm0
    5382:	5d                   	pop    %rbp
    5383:	c3                   	retq   

0000000000005384 <safe_add_func_double_f_f>:
    5384:	f3 0f 1e fa          	endbr64 
    5388:	55                   	push   %rbp
    5389:	48 89 e5             	mov    %rsp,%rbp
    538c:	f2 0f 11 45 f8       	movsd  %xmm0,-0x8(%rbp)
    5391:	f2 0f 11 4d f0       	movsd  %xmm1,-0x10(%rbp)
    5396:	f2 0f 10 4d f8       	movsd  -0x8(%rbp),%xmm1
    539b:	f2 0f 10 05 9d e1 00 	movsd  0xe19d(%rip),%xmm0        # 13540 <l_1266.4442+0x40>
    53a2:	00 
    53a3:	f2 0f 59 c8          	mulsd  %xmm0,%xmm1
    53a7:	f2 0f 10 55 f0       	movsd  -0x10(%rbp),%xmm2
    53ac:	f2 0f 10 05 8c e1 00 	movsd  0xe18c(%rip),%xmm0        # 13540 <l_1266.4442+0x40>
    53b3:	00 
    53b4:	f2 0f 59 c2          	mulsd  %xmm2,%xmm0
    53b8:	f2 0f 58 c1          	addsd  %xmm1,%xmm0
    53bc:	f3 0f 7e 0d 8c e1 00 	movq   0xe18c(%rip),%xmm1        # 13550 <l_1266.4442+0x50>
    53c3:	00 
    53c4:	66 0f 54 c1          	andpd  %xmm1,%xmm0
    53c8:	66 0f 2f 05 90 e1 00 	comisd 0xe190(%rip),%xmm0        # 13560 <l_1266.4442+0x60>
    53cf:	00 
    53d0:	76 07                	jbe    53d9 <safe_add_func_double_f_f+0x55>
    53d2:	f2 0f 10 45 f8       	movsd  -0x8(%rbp),%xmm0
    53d7:	eb 0a                	jmp    53e3 <safe_add_func_double_f_f+0x5f>
    53d9:	f2 0f 10 45 f8       	movsd  -0x8(%rbp),%xmm0
    53de:	f2 0f 58 45 f0       	addsd  -0x10(%rbp),%xmm0
    53e3:	5d                   	pop    %rbp
    53e4:	c3                   	retq   

00000000000053e5 <safe_sub_func_double_f_f>:
    53e5:	f3 0f 1e fa          	endbr64 
    53e9:	55                   	push   %rbp
    53ea:	48 89 e5             	mov    %rsp,%rbp
    53ed:	f2 0f 11 45 f8       	movsd  %xmm0,-0x8(%rbp)
    53f2:	f2 0f 11 4d f0       	movsd  %xmm1,-0x10(%rbp)
    53f7:	f2 0f 10 4d f8       	movsd  -0x8(%rbp),%xmm1
    53fc:	f2 0f 10 05 3c e1 00 	movsd  0xe13c(%rip),%xmm0        # 13540 <l_1266.4442+0x40>
    5403:	00 
    5404:	f2 0f 59 c1          	mulsd  %xmm1,%xmm0
    5408:	f2 0f 10 55 f0       	movsd  -0x10(%rbp),%xmm2
    540d:	f2 0f 10 0d 2b e1 00 	movsd  0xe12b(%rip),%xmm1        # 13540 <l_1266.4442+0x40>
    5414:	00 
    5415:	f2 0f 59 ca          	mulsd  %xmm2,%xmm1
    5419:	f2 0f 5c c1          	subsd  %xmm1,%xmm0
    541d:	f3 0f 7e 0d 2b e1 00 	movq   0xe12b(%rip),%xmm1        # 13550 <l_1266.4442+0x50>
    5424:	00 
    5425:	66 0f 54 c1          	andpd  %xmm1,%xmm0
    5429:	66 0f 2f 05 2f e1 00 	comisd 0xe12f(%rip),%xmm0        # 13560 <l_1266.4442+0x60>
    5430:	00 
    5431:	76 07                	jbe    543a <safe_sub_func_double_f_f+0x55>
    5433:	f2 0f 10 45 f8       	movsd  -0x8(%rbp),%xmm0
    5438:	eb 0a                	jmp    5444 <safe_sub_func_double_f_f+0x5f>
    543a:	f2 0f 10 45 f8       	movsd  -0x8(%rbp),%xmm0
    543f:	f2 0f 5c 45 f0       	subsd  -0x10(%rbp),%xmm0
    5444:	5d                   	pop    %rbp
    5445:	c3                   	retq   

0000000000005446 <safe_mul_func_double_f_f>:
    5446:	f3 0f 1e fa          	endbr64 
    544a:	55                   	push   %rbp
    544b:	48 89 e5             	mov    %rsp,%rbp
    544e:	f2 0f 11 45 f8       	movsd  %xmm0,-0x8(%rbp)
    5453:	f2 0f 11 4d f0       	movsd  %xmm1,-0x10(%rbp)
    5458:	f2 0f 10 4d f8       	movsd  -0x8(%rbp),%xmm1
    545d:	f2 0f 10 05 03 e1 00 	movsd  0xe103(%rip),%xmm0        # 13568 <l_1266.4442+0x68>
    5464:	00 
    5465:	f2 0f 59 c8          	mulsd  %xmm0,%xmm1
    5469:	f2 0f 10 55 f0       	movsd  -0x10(%rbp),%xmm2
    546e:	f2 0f 10 05 fa e0 00 	movsd  0xe0fa(%rip),%xmm0        # 13570 <l_1266.4442+0x70>
    5475:	00 
    5476:	f2 0f 59 c2          	mulsd  %xmm2,%xmm0
    547a:	f2 0f 59 c1          	mulsd  %xmm1,%xmm0
    547e:	f3 0f 7e 0d ca e0 00 	movq   0xe0ca(%rip),%xmm1        # 13550 <l_1266.4442+0x50>
    5485:	00 
    5486:	66 0f 54 c1          	andpd  %xmm1,%xmm0
    548a:	66 0f 2f 05 e6 e0 00 	comisd 0xe0e6(%rip),%xmm0        # 13578 <l_1266.4442+0x78>
    5491:	00 
    5492:	76 07                	jbe    549b <safe_mul_func_double_f_f+0x55>
    5494:	f2 0f 10 45 f8       	movsd  -0x8(%rbp),%xmm0
    5499:	eb 0a                	jmp    54a5 <safe_mul_func_double_f_f+0x5f>
    549b:	f2 0f 10 45 f8       	movsd  -0x8(%rbp),%xmm0
    54a0:	f2 0f 59 45 f0       	mulsd  -0x10(%rbp),%xmm0
    54a5:	5d                   	pop    %rbp
    54a6:	c3                   	retq   

00000000000054a7 <safe_div_func_double_f_f>:
    54a7:	f3 0f 1e fa          	endbr64 
    54ab:	55                   	push   %rbp
    54ac:	48 89 e5             	mov    %rsp,%rbp
    54af:	f2 0f 11 45 f8       	movsd  %xmm0,-0x8(%rbp)
    54b4:	f2 0f 11 4d f0       	movsd  %xmm1,-0x10(%rbp)
    54b9:	f2 0f 10 45 f0       	movsd  -0x10(%rbp),%xmm0
    54be:	f3 0f 7e 0d 8a e0 00 	movq   0xe08a(%rip),%xmm1        # 13550 <l_1266.4442+0x50>
    54c5:	00 
    54c6:	66 0f 54 c8          	andpd  %xmm0,%xmm1
    54ca:	f2 0f 10 05 ae e0 00 	movsd  0xe0ae(%rip),%xmm0        # 13580 <l_1266.4442+0x80>
    54d1:	00 
    54d2:	66 0f 2f c1          	comisd %xmm1,%xmm0
    54d6:	0f 97 c0             	seta   %al
    54d9:	83 f0 01             	xor    $0x1,%eax
    54dc:	84 c0                	test   %al,%al
    54de:	75 5a                	jne    553a <safe_div_func_double_f_f+0x93>
    54e0:	66 0f ef c0          	pxor   %xmm0,%xmm0
    54e4:	66 0f 2e 45 f0       	ucomisd -0x10(%rbp),%xmm0
    54e9:	7a 0b                	jp     54f6 <safe_div_func_double_f_f+0x4f>
    54eb:	66 0f ef c0          	pxor   %xmm0,%xmm0
    54ef:	66 0f 2e 45 f0       	ucomisd -0x10(%rbp),%xmm0
    54f4:	74 50                	je     5546 <safe_div_func_double_f_f+0x9f>
    54f6:	f2 0f 10 4d f8       	movsd  -0x8(%rbp),%xmm1
    54fb:	f2 0f 10 05 85 e0 00 	movsd  0xe085(%rip),%xmm0        # 13588 <l_1266.4442+0x88>
    5502:	00 
    5503:	f2 0f 59 c1          	mulsd  %xmm1,%xmm0
    5507:	f2 0f 10 55 f0       	movsd  -0x10(%rbp),%xmm2
    550c:	f2 0f 10 0d 7c e0 00 	movsd  0xe07c(%rip),%xmm1        # 13590 <l_1266.4442+0x90>
    5513:	00 
    5514:	f2 0f 59 ca          	mulsd  %xmm2,%xmm1
    5518:	f2 0f 5e c1          	divsd  %xmm1,%xmm0
    551c:	f3 0f 7e 0d 2c e0 00 	movq   0xe02c(%rip),%xmm1        # 13550 <l_1266.4442+0x50>
    5523:	00 
    5524:	66 0f 54 c1          	andpd  %xmm1,%xmm0
    5528:	66 0f 2f 05 68 e0 00 	comisd 0xe068(%rip),%xmm0        # 13598 <l_1266.4442+0x98>
    552f:	00 
    5530:	0f 97 c0             	seta   %al
    5533:	83 f0 01             	xor    $0x1,%eax
    5536:	84 c0                	test   %al,%al
    5538:	74 0c                	je     5546 <safe_div_func_double_f_f+0x9f>
    553a:	f2 0f 10 45 f8       	movsd  -0x8(%rbp),%xmm0
    553f:	f2 0f 5e 45 f0       	divsd  -0x10(%rbp),%xmm0
    5544:	eb 05                	jmp    554b <safe_div_func_double_f_f+0xa4>
    5546:	f2 0f 10 45 f8       	movsd  -0x8(%rbp),%xmm0
    554b:	5d                   	pop    %rbp
    554c:	c3                   	retq   

000000000000554d <safe_convert_func_float_to_int32_t>:
    554d:	f3 0f 1e fa          	endbr64 
    5551:	55                   	push   %rbp
    5552:	48 89 e5             	mov    %rsp,%rbp
    5555:	f3 0f 11 45 fc       	movss  %xmm0,-0x4(%rbp)
    555a:	f3 0f 10 05 3e e0 00 	movss  0xe03e(%rip),%xmm0        # 135a0 <l_1266.4442+0xa0>
    5561:	00 
    5562:	0f 2f 45 fc          	comiss -0x4(%rbp),%xmm0
    5566:	0f 93 c0             	setae  %al
    5569:	83 f0 01             	xor    $0x1,%eax
    556c:	84 c0                	test   %al,%al
    556e:	74 21                	je     5591 <safe_convert_func_float_to_int32_t+0x44>
    5570:	f3 0f 10 45 fc       	movss  -0x4(%rbp),%xmm0
    5575:	0f 2f 05 28 e0 00 00 	comiss 0xe028(%rip),%xmm0        # 135a4 <l_1266.4442+0xa4>
    557c:	0f 93 c0             	setae  %al
    557f:	83 f0 01             	xor    $0x1,%eax
    5582:	84 c0                	test   %al,%al
    5584:	74 0b                	je     5591 <safe_convert_func_float_to_int32_t+0x44>
    5586:	f3 0f 10 45 fc       	movss  -0x4(%rbp),%xmm0
    558b:	f3 0f 2c c0          	cvttss2si %xmm0,%eax
    558f:	eb 05                	jmp    5596 <safe_convert_func_float_to_int32_t+0x49>
    5591:	b8 ff ff ff 7f       	mov    $0x7fffffff,%eax
    5596:	5d                   	pop    %rbp
    5597:	c3                   	retq   

0000000000005598 <crc32_gentab>:
    5598:	f3 0f 1e fa          	endbr64 
    559c:	55                   	push   %rbp
    559d:	48 89 e5             	mov    %rsp,%rbp
    55a0:	c7 45 fc 20 83 b8 ed 	movl   $0xedb88320,-0x4(%rbp)
    55a7:	c7 45 f4 00 00 00 00 	movl   $0x0,-0xc(%rbp)
    55ae:	eb 51                	jmp    5601 <crc32_gentab+0x69>
    55b0:	8b 45 f4             	mov    -0xc(%rbp),%eax
    55b3:	89 45 f0             	mov    %eax,-0x10(%rbp)
    55b6:	c7 45 f8 08 00 00 00 	movl   $0x8,-0x8(%rbp)
    55bd:	eb 1e                	jmp    55dd <crc32_gentab+0x45>
    55bf:	8b 45 f0             	mov    -0x10(%rbp),%eax
    55c2:	83 e0 01             	and    $0x1,%eax
    55c5:	85 c0                	test   %eax,%eax
    55c7:	74 0d                	je     55d6 <crc32_gentab+0x3e>
    55c9:	8b 45 f0             	mov    -0x10(%rbp),%eax
    55cc:	d1 e8                	shr    %eax
    55ce:	33 45 fc             	xor    -0x4(%rbp),%eax
    55d1:	89 45 f0             	mov    %eax,-0x10(%rbp)
    55d4:	eb 03                	jmp    55d9 <crc32_gentab+0x41>
    55d6:	d1 6d f0             	shrl   -0x10(%rbp)
    55d9:	83 6d f8 01          	subl   $0x1,-0x8(%rbp)
    55dd:	83 7d f8 00          	cmpl   $0x0,-0x8(%rbp)
    55e1:	7f dc                	jg     55bf <crc32_gentab+0x27>
    55e3:	8b 45 f4             	mov    -0xc(%rbp),%eax
    55e6:	48 98                	cltq   
    55e8:	48 8d 0c 85 00 00 00 	lea    0x0(,%rax,4),%rcx
    55ef:	00 
    55f0:	48 8d 15 09 24 01 00 	lea    0x12409(%rip),%rdx        # 17a00 <crc32_tab>
    55f7:	8b 45 f0             	mov    -0x10(%rbp),%eax
    55fa:	89 04 11             	mov    %eax,(%rcx,%rdx,1)
    55fd:	83 45 f4 01          	addl   $0x1,-0xc(%rbp)
    5601:	81 7d f4 ff 00 00 00 	cmpl   $0xff,-0xc(%rbp)
    5608:	7e a6                	jle    55b0 <crc32_gentab+0x18>
    560a:	90                   	nop
    560b:	90                   	nop
    560c:	5d                   	pop    %rbp
    560d:	c3                   	retq   

000000000000560e <crc32_byte>:
    560e:	f3 0f 1e fa          	endbr64 
    5612:	55                   	push   %rbp
    5613:	48 89 e5             	mov    %rsp,%rbp
    5616:	89 f8                	mov    %edi,%eax
    5618:	88 45 fc             	mov    %al,-0x4(%rbp)
    561b:	8b 05 ff 09 01 00    	mov    0x109ff(%rip),%eax        # 16020 <crc32_context>
    5621:	c1 e8 08             	shr    $0x8,%eax
    5624:	89 c1                	mov    %eax,%ecx
    5626:	0f b6 55 fc          	movzbl -0x4(%rbp),%edx
    562a:	8b 05 f0 09 01 00    	mov    0x109f0(%rip),%eax        # 16020 <crc32_context>
    5630:	31 d0                	xor    %edx,%eax
    5632:	0f b6 c0             	movzbl %al,%eax
    5635:	89 c0                	mov    %eax,%eax
    5637:	48 8d 14 85 00 00 00 	lea    0x0(,%rax,4),%rdx
    563e:	00 
    563f:	48 8d 05 ba 23 01 00 	lea    0x123ba(%rip),%rax        # 17a00 <crc32_tab>
    5646:	8b 04 02             	mov    (%rdx,%rax,1),%eax
    5649:	31 c8                	xor    %ecx,%eax
    564b:	89 05 cf 09 01 00    	mov    %eax,0x109cf(%rip)        # 16020 <crc32_context>
    5651:	90                   	nop
    5652:	5d                   	pop    %rbp
    5653:	c3                   	retq   

0000000000005654 <crc32_8bytes>:
    5654:	f3 0f 1e fa          	endbr64 
    5658:	55                   	push   %rbp
    5659:	48 89 e5             	mov    %rsp,%rbp
    565c:	48 83 ec 08          	sub    $0x8,%rsp
    5660:	48 89 7d f8          	mov    %rdi,-0x8(%rbp)
    5664:	48 8b 45 f8          	mov    -0x8(%rbp),%rax
    5668:	0f b6 c0             	movzbl %al,%eax
    566b:	89 c7                	mov    %eax,%edi
    566d:	e8 9c ff ff ff       	callq  560e <crc32_byte>
    5672:	48 8b 45 f8          	mov    -0x8(%rbp),%rax
    5676:	48 c1 e8 08          	shr    $0x8,%rax
    567a:	0f b6 c0             	movzbl %al,%eax
    567d:	89 c7                	mov    %eax,%edi
    567f:	e8 8a ff ff ff       	callq  560e <crc32_byte>
    5684:	48 8b 45 f8          	mov    -0x8(%rbp),%rax
    5688:	48 c1 e8 10          	shr    $0x10,%rax
    568c:	0f b6 c0             	movzbl %al,%eax
    568f:	89 c7                	mov    %eax,%edi
    5691:	e8 78 ff ff ff       	callq  560e <crc32_byte>
    5696:	48 8b 45 f8          	mov    -0x8(%rbp),%rax
    569a:	48 c1 e8 18          	shr    $0x18,%rax
    569e:	0f b6 c0             	movzbl %al,%eax
    56a1:	89 c7                	mov    %eax,%edi
    56a3:	e8 66 ff ff ff       	callq  560e <crc32_byte>
    56a8:	48 8b 45 f8          	mov    -0x8(%rbp),%rax
    56ac:	48 c1 e8 20          	shr    $0x20,%rax
    56b0:	0f b6 c0             	movzbl %al,%eax
    56b3:	89 c7                	mov    %eax,%edi
    56b5:	e8 54 ff ff ff       	callq  560e <crc32_byte>
    56ba:	48 8b 45 f8          	mov    -0x8(%rbp),%rax
    56be:	48 c1 e8 28          	shr    $0x28,%rax
    56c2:	0f b6 c0             	movzbl %al,%eax
    56c5:	89 c7                	mov    %eax,%edi
    56c7:	e8 42 ff ff ff       	callq  560e <crc32_byte>
    56cc:	48 8b 45 f8          	mov    -0x8(%rbp),%rax
    56d0:	48 c1 e8 30          	shr    $0x30,%rax
    56d4:	0f b6 c0             	movzbl %al,%eax
    56d7:	89 c7                	mov    %eax,%edi
    56d9:	e8 30 ff ff ff       	callq  560e <crc32_byte>
    56de:	48 8b 45 f8          	mov    -0x8(%rbp),%rax
    56e2:	48 c1 e8 38          	shr    $0x38,%rax
    56e6:	0f b6 c0             	movzbl %al,%eax
    56e9:	89 c7                	mov    %eax,%edi
    56eb:	e8 1e ff ff ff       	callq  560e <crc32_byte>
    56f0:	90                   	nop
    56f1:	c9                   	leaveq 
    56f2:	c3                   	retq   

00000000000056f3 <transparent_crc>:
    56f3:	f3 0f 1e fa          	endbr64 
    56f7:	55                   	push   %rbp
    56f8:	48 89 e5             	mov    %rsp,%rbp
    56fb:	48 83 ec 20          	sub    $0x20,%rsp
    56ff:	48 89 7d f8          	mov    %rdi,-0x8(%rbp)
    5703:	48 89 75 f0          	mov    %rsi,-0x10(%rbp)
    5707:	89 55 ec             	mov    %edx,-0x14(%rbp)
    570a:	48 8b 45 f8          	mov    -0x8(%rbp),%rax
    570e:	48 89 c7             	mov    %rax,%rdi
    5711:	e8 3e ff ff ff       	callq  5654 <crc32_8bytes>
    5716:	83 7d ec 00          	cmpl   $0x0,-0x14(%rbp)
    571a:	74 22                	je     573e <transparent_crc+0x4b>
    571c:	8b 05 fe 08 01 00    	mov    0x108fe(%rip),%eax        # 16020 <crc32_context>
    5722:	f7 d0                	not    %eax
    5724:	89 c2                	mov    %eax,%edx
    5726:	48 8b 45 f0          	mov    -0x10(%rbp),%rax
    572a:	48 89 c6             	mov    %rax,%rsi
    572d:	48 8d 3d fc c8 00 00 	lea    0xc8fc(%rip),%rdi        # 12030 <_IO_stdin_used+0x30>
    5734:	b8 00 00 00 00       	mov    $0x0,%eax
    5739:	e8 42 e9 ff ff       	callq  4080 <printf@plt>
    573e:	90                   	nop
    573f:	c9                   	leaveq 
    5740:	c3                   	retq   

0000000000005741 <transparent_crc_bytes>:
    5741:	f3 0f 1e fa          	endbr64 
    5745:	55                   	push   %rbp
    5746:	48 89 e5             	mov    %rsp,%rbp
    5749:	48 83 ec 30          	sub    $0x30,%rsp
    574d:	48 89 7d e8          	mov    %rdi,-0x18(%rbp)
    5751:	89 75 e4             	mov    %esi,-0x1c(%rbp)
    5754:	48 89 55 d8          	mov    %rdx,-0x28(%rbp)
    5758:	89 4d e0             	mov    %ecx,-0x20(%rbp)
    575b:	c7 45 fc 00 00 00 00 	movl   $0x0,-0x4(%rbp)
    5762:	eb 1e                	jmp    5782 <transparent_crc_bytes+0x41>
    5764:	8b 45 fc             	mov    -0x4(%rbp),%eax
    5767:	48 63 d0             	movslq %eax,%rdx
    576a:	48 8b 45 e8          	mov    -0x18(%rbp),%rax
    576e:	48 01 d0             	add    %rdx,%rax
    5771:	0f b6 00             	movzbl (%rax),%eax
    5774:	0f b6 c0             	movzbl %al,%eax
    5777:	89 c7                	mov    %eax,%edi
    5779:	e8 90 fe ff ff       	callq  560e <crc32_byte>
    577e:	83 45 fc 01          	addl   $0x1,-0x4(%rbp)
    5782:	8b 45 fc             	mov    -0x4(%rbp),%eax
    5785:	3b 45 e4             	cmp    -0x1c(%rbp),%eax
    5788:	7c da                	jl     5764 <transparent_crc_bytes+0x23>
    578a:	83 7d e0 00          	cmpl   $0x0,-0x20(%rbp)
    578e:	74 22                	je     57b2 <transparent_crc_bytes+0x71>
    5790:	8b 05 8a 08 01 00    	mov    0x1088a(%rip),%eax        # 16020 <crc32_context>
    5796:	f7 d0                	not    %eax
    5798:	89 c2                	mov    %eax,%edx
    579a:	48 8b 45 d8          	mov    -0x28(%rbp),%rax
    579e:	48 89 c6             	mov    %rax,%rsi
    57a1:	48 8d 3d 88 c8 00 00 	lea    0xc888(%rip),%rdi        # 12030 <_IO_stdin_used+0x30>
    57a8:	b8 00 00 00 00       	mov    $0x0,%eax
    57ad:	e8 ce e8 ff ff       	callq  4080 <printf@plt>
    57b2:	90                   	nop
    57b3:	c9                   	leaveq 
    57b4:	c3                   	retq   

00000000000057b5 <func_1>:
    57b5:	f3 0f 1e fa          	endbr64 
    57b9:	55                   	push   %rbp
    57ba:	48 89 e5             	mov    %rsp,%rbp
    57bd:	41 54                	push   %r12
    57bf:	53                   	push   %rbx
    57c0:	48 83 ec 60          	sub    $0x60,%rsp
    57c4:	64 48 8b 04 25 28 00 	mov    %fs:0x28,%rax
    57cb:	00 00 
    57cd:	48 89 45 e8          	mov    %rax,-0x18(%rbp)
    57d1:	31 c0                	xor    %eax,%eax
    57d3:	48 c7 45 a8 01 00 00 	movq   $0x1,-0x58(%rbp)
    57da:	00 
    57db:	c7 45 a4 08 00 00 00 	movl   $0x8,-0x5c(%rbp)
    57e2:	48 8d 05 3f 08 01 00 	lea    0x1083f(%rip),%rax        # 16028 <g_19>
    57e9:	48 89 45 b0          	mov    %rax,-0x50(%rbp)
    57ed:	48 c7 45 b8 00 00 00 	movq   $0x0,-0x48(%rbp)
    57f4:	00 
    57f5:	c7 45 9c fe ff ff ff 	movl   $0xfffffffe,-0x64(%rbp)
    57fc:	48 8d 45 9c          	lea    -0x64(%rbp),%rax
    5800:	48 89 45 c0          	mov    %rax,-0x40(%rbp)
    5804:	48 b8 07 fd 87 96 24 	movabs $0x204102249687fd07,%rax
    580b:	02 41 20 
    580e:	48 89 45 c8          	mov    %rax,-0x38(%rbp)
    5812:	c7 45 a0 00 00 00 00 	movl   $0x0,-0x60(%rbp)
    5819:	eb 15                	jmp    5830 <func_1+0x7b>
    581b:	8b 45 a0             	mov    -0x60(%rbp),%eax
    581e:	48 98                	cltq   
    5820:	48 8d 15 02 08 01 00 	lea    0x10802(%rip),%rdx        # 16029 <g_23>
    5827:	48 89 54 c5 d0       	mov    %rdx,-0x30(%rbp,%rax,8)
    582c:	83 45 a0 01          	addl   $0x1,-0x60(%rbp)
    5830:	83 7d a0 01          	cmpl   $0x1,-0x60(%rbp)
    5834:	7e e5                	jle    581b <func_1+0x66>
    5836:	c7 45 a4 00 00 00 00 	movl   $0x0,-0x5c(%rbp)
    583d:	83 7d a4 00          	cmpl   $0x0,-0x5c(%rbp)
    5841:	0f 84 ce 00 00 00    	je     5915 <func_1+0x160>
    5847:	48 8b 45 a8          	mov    -0x58(%rbp),%rax
    584b:	0f b7 d8             	movzwl %ax,%ebx
    584e:	48 8b 45 c8          	mov    -0x38(%rbp),%rax
    5852:	44 0f be e0          	movsbl %al,%r12d
    5856:	0f b6 05 cc 07 01 00 	movzbl 0x107cc(%rip),%eax        # 16029 <g_23>
    585d:	83 e8 01             	sub    $0x1,%eax
    5860:	88 05 c3 07 01 00    	mov    %al,0x107c3(%rip)        # 16029 <g_23>
    5866:	8b 45 a4             	mov    -0x5c(%rbp),%eax
    5869:	0f b6 d0             	movzbl %al,%edx
    586c:	48 8b 45 a8          	mov    -0x58(%rbp),%rax
    5870:	0f b6 c0             	movzbl %al,%eax
    5873:	89 d6                	mov    %edx,%esi
    5875:	89 c7                	mov    %eax,%edi
    5877:	e8 17 f3 ff ff       	callq  4b93 <safe_mul_func_uint8_t_u_u>
    587c:	0f b6 15 a6 07 01 00 	movzbl 0x107a6(%rip),%edx        # 16029 <g_23>
    5883:	09 d0                	or     %edx,%eax
    5885:	84 c0                	test   %al,%al
    5887:	74 07                	je     5890 <func_1+0xdb>
    5889:	ba 01 00 00 00       	mov    $0x1,%edx
    588e:	eb 05                	jmp    5895 <func_1+0xe0>
    5890:	ba 00 00 00 00       	mov    $0x0,%edx
    5895:	8b 05 89 07 01 00    	mov    0x10789(%rip),%eax        # 16024 <g_6>
    589b:	39 c2                	cmp    %eax,%edx
    589d:	0f 9d c0             	setge  %al
    58a0:	0f b6 d0             	movzbl %al,%edx
    58a3:	48 8b 45 c0          	mov    -0x40(%rbp),%rax
    58a7:	89 10                	mov    %edx,(%rax)
    58a9:	48 8b 45 c0          	mov    -0x40(%rbp),%rax
    58ad:	8b 00                	mov    (%rax),%eax
    58af:	85 c0                	test   %eax,%eax
    58b1:	75 0a                	jne    58bd <func_1+0x108>
    58b3:	8b 05 6b 07 01 00    	mov    0x1076b(%rip),%eax        # 16024 <g_6>
    58b9:	85 c0                	test   %eax,%eax
    58bb:	74 07                	je     58c4 <func_1+0x10f>
    58bd:	b8 01 00 00 00       	mov    $0x1,%eax
    58c2:	eb 05                	jmp    58c9 <func_1+0x114>
    58c4:	b8 00 00 00 00       	mov    $0x0,%eax
    58c9:	0f b7 c8             	movzwl %ax,%ecx
    58cc:	8b 05 52 07 01 00    	mov    0x10752(%rip),%eax        # 16024 <g_6>
    58d2:	0f b6 f0             	movzbl %al,%esi
    58d5:	48 8b 05 a4 16 01 00 	mov    0x116a4(%rip),%rax        # 16f80 <g_18>
    58dc:	48 8b 55 b0          	mov    -0x50(%rbp),%rdx
    58e0:	45 89 e0             	mov    %r12d,%r8d
    58e3:	48 89 c7             	mov    %rax,%rdi
    58e6:	e8 8c 00 00 00       	callq  5977 <func_12>
    58eb:	0f b7 c0             	movzwl %ax,%eax
    58ee:	89 de                	mov    %ebx,%esi
    58f0:	89 c7                	mov    %eax,%edi
    58f2:	e8 08 f4 ff ff       	callq  4cff <safe_add_func_uint16_t_u_u>
    58f7:	0f b7 c0             	movzwl %ax,%eax
    58fa:	48 c7 c6 fd ff ff ff 	mov    $0xfffffffffffffffd,%rsi
    5901:	48 89 c7             	mov    %rax,%rdi
    5904:	e8 42 f7 ff ff       	callq  504b <safe_sub_func_uint64_t_u_u>
    5909:	48 85 c0             	test   %rax,%rax
    590c:	74 07                	je     5915 <func_1+0x160>
    590e:	b8 01 00 00 00       	mov    $0x1,%eax
    5913:	eb 05                	jmp    591a <func_1+0x165>
    5915:	b8 00 00 00 00       	mov    $0x0,%eax
    591a:	0f b7 d0             	movzwl %ax,%edx
    591d:	8b 05 01 07 01 00    	mov    0x10701(%rip),%eax        # 16024 <g_6>
    5923:	0f b7 c0             	movzwl %ax,%eax
    5926:	89 d6                	mov    %edx,%esi
    5928:	89 c7                	mov    %eax,%edi
    592a:	e8 f0 f3 ff ff       	callq  4d1f <safe_sub_func_uint16_t_u_u>
    592f:	66 85 c0             	test   %ax,%ax
    5932:	75 0a                	jne    593e <func_1+0x189>
    5934:	48 8b 45 c0          	mov    -0x40(%rbp),%rax
    5938:	8b 00                	mov    (%rax),%eax
    593a:	85 c0                	test   %eax,%eax
    593c:	74 07                	je     5945 <func_1+0x190>
    593e:	ba 01 00 00 00       	mov    $0x1,%edx
    5943:	eb 05                	jmp    594a <func_1+0x195>
    5945:	ba 00 00 00 00       	mov    $0x0,%edx
    594a:	48 8b 45 c0          	mov    -0x40(%rbp),%rax
    594e:	89 10                	mov    %edx,(%rax)
    5950:	48 8b 05 49 16 01 00 	mov    0x11649(%rip),%rax        # 16fa0 <g_467>
    5957:	0f b7 00             	movzwl (%rax),%eax
    595a:	48 8b 5d e8          	mov    -0x18(%rbp),%rbx
    595e:	64 48 33 1c 25 28 00 	xor    %fs:0x28,%rbx
    5965:	00 00 
    5967:	74 05                	je     596e <func_1+0x1b9>
    5969:	e8 02 e7 ff ff       	callq  4070 <__stack_chk_fail@plt>
    596e:	48 83 c4 60          	add    $0x60,%rsp
    5972:	5b                   	pop    %rbx
    5973:	41 5c                	pop    %r12
    5975:	5d                   	pop    %rbp
    5976:	c3                   	retq   

0000000000005977 <func_12>:
    5977:	f3 0f 1e fa          	endbr64 
    597b:	55                   	push   %rbp
    597c:	48 89 e5             	mov    %rsp,%rbp
    597f:	48 81 ec e0 00 00 00 	sub    $0xe0,%rsp
    5986:	48 89 bd 38 ff ff ff 	mov    %rdi,-0xc8(%rbp)
    598d:	48 89 95 28 ff ff ff 	mov    %rdx,-0xd8(%rbp)
    5994:	89 c8                	mov    %ecx,%eax
    5996:	44 89 c1             	mov    %r8d,%ecx
    5999:	89 f2                	mov    %esi,%edx
    599b:	88 95 34 ff ff ff    	mov    %dl,-0xcc(%rbp)
    59a1:	66 89 85 30 ff ff ff 	mov    %ax,-0xd0(%rbp)
    59a8:	89 c8                	mov    %ecx,%eax
    59aa:	88 85 24 ff ff ff    	mov    %al,-0xdc(%rbp)
    59b0:	64 48 8b 04 25 28 00 	mov    %fs:0x28,%rax
    59b7:	00 00 
    59b9:	48 89 45 f8          	mov    %rax,-0x8(%rbp)
    59bd:	31 c0                	xor    %eax,%eax
    59bf:	48 c7 45 b0 00 00 00 	movq   $0x0,-0x50(%rbp)
    59c6:	00 
    59c7:	48 c7 45 b8 00 00 00 	movq   $0x0,-0x48(%rbp)
    59ce:	00 
    59cf:	48 c7 45 c0 00 00 00 	movq   $0x0,-0x40(%rbp)
    59d6:	00 
    59d7:	48 c7 45 c8 00 00 00 	movq   $0x0,-0x38(%rbp)
    59de:	00 
    59df:	48 8d 05 43 06 01 00 	lea    0x10643(%rip),%rax        # 16029 <g_23>
    59e6:	48 89 85 60 ff ff ff 	mov    %rax,-0xa0(%rbp)
    59ed:	48 c7 85 50 ff ff ff 	movq   $0x0,-0xb0(%rbp)
    59f4:	00 00 00 00 
    59f8:	48 8d 85 50 ff ff ff 	lea    -0xb0(%rbp),%rax
    59ff:	48 89 85 58 ff ff ff 	mov    %rax,-0xa8(%rbp)
    5a06:	48 8d 85 58 ff ff ff 	lea    -0xa8(%rbp),%rax
    5a0d:	48 89 85 68 ff ff ff 	mov    %rax,-0x98(%rbp)
    5a14:	66 c7 45 98 1e 00    	movw   $0x1e,-0x68(%rbp)
    5a1a:	0f b6 45 9a          	movzbl -0x66(%rbp),%eax
    5a1e:	83 c8 1f             	or     $0x1f,%eax
    5a21:	88 45 9a             	mov    %al,-0x66(%rbp)
    5a24:	8b 45 9c             	mov    -0x64(%rbp),%eax
    5a27:	25 00 00 f8 ff       	and    $0xfff80000,%eax
    5a2c:	0d ed fe 07 00       	or     $0x7feed,%eax
    5a31:	89 45 9c             	mov    %eax,-0x64(%rbp)
    5a34:	66 c7 45 a0 da 61    	movw   $0x61da,-0x60(%rbp)
    5a3a:	0f b6 45 a2          	movzbl -0x5e(%rbp),%eax
    5a3e:	83 e0 f0             	and    $0xfffffff0,%eax
    5a41:	83 c8 0d             	or     $0xd,%eax
    5a44:	88 45 a2             	mov    %al,-0x5e(%rbp)
    5a47:	c7 85 48 ff ff ff 1a 	movl   $0xb380f21a,-0xb8(%rbp)
    5a4e:	f2 80 b3 
    5a51:	48 c7 85 70 ff ff ff 	movq   $0xffffffffffffffff,-0x90(%rbp)
    5a58:	ff ff ff ff 
    5a5c:	66 c7 85 46 ff ff ff 	movw   $0x97c4,-0xba(%rbp)
    5a63:	c4 97 
    5a65:	66 c7 85 30 ff ff ff 	movw   $0x0,-0xd0(%rbp)
    5a6c:	00 00 
    5a6e:	e9 c7 00 00 00       	jmpq   5b3a <func_12+0x1c3>
    5a73:	66 c7 45 a4 88 00    	movw   $0x88,-0x5c(%rbp)
    5a79:	0f b6 45 a6          	movzbl -0x5a(%rbp),%eax
    5a7d:	83 c8 1f             	or     $0x1f,%eax
    5a80:	88 45 a6             	mov    %al,-0x5a(%rbp)
    5a83:	8b 45 a8             	mov    -0x58(%rbp),%eax
    5a86:	25 00 00 f8 ff       	and    $0xfff80000,%eax
    5a8b:	0d 72 ff 07 00       	or     $0x7ff72,%eax
    5a90:	89 45 a8             	mov    %eax,-0x58(%rbp)
    5a93:	66 c7 45 ac e3 2c    	movw   $0x2ce3,-0x54(%rbp)
    5a99:	0f b6 45 ae          	movzbl -0x52(%rbp),%eax
    5a9d:	83 e0 f0             	and    $0xfffffff0,%eax
    5aa0:	88 45 ae             	mov    %al,-0x52(%rbp)
    5aa3:	48 8d 05 82 06 01 00 	lea    0x10682(%rip),%rax        # 1612c <g_911>
    5aaa:	48 89 85 78 ff ff ff 	mov    %rax,-0x88(%rbp)
    5ab1:	48 8d 05 9c 06 01 00 	lea    0x1069c(%rip),%rax        # 16154 <g_913+0x14>
    5ab8:	48 89 45 80          	mov    %rax,-0x80(%rbp)
    5abc:	c7 45 d0 ff ff ff ff 	movl   $0xffffffff,-0x30(%rbp)
    5ac3:	c7 45 d4 ff ff ff ff 	movl   $0xffffffff,-0x2c(%rbp)
    5aca:	c7 45 d8 ff ff ff ff 	movl   $0xffffffff,-0x28(%rbp)
    5ad1:	c7 45 dc ff ff ff ff 	movl   $0xffffffff,-0x24(%rbp)
    5ad8:	c7 45 e0 ff ff ff ff 	movl   $0xffffffff,-0x20(%rbp)
    5adf:	c7 45 e4 ff ff ff ff 	movl   $0xffffffff,-0x1c(%rbp)
    5ae6:	c7 45 e8 ff ff ff ff 	movl   $0xffffffff,-0x18(%rbp)
    5aed:	c7 45 ec ff ff ff ff 	movl   $0xffffffff,-0x14(%rbp)
    5af4:	c7 45 f0 ff ff ff ff 	movl   $0xffffffff,-0x10(%rbp)
    5afb:	c7 45 f4 ff ff ff ff 	movl   $0xffffffff,-0xc(%rbp)
    5b02:	c6 85 45 ff ff ff f7 	movb   $0xf7,-0xbb(%rbp)
    5b09:	48 8d 05 58 05 01 00 	lea    0x10558(%rip),%rax        # 16068 <g_132>
    5b10:	48 89 45 88          	mov    %rax,-0x78(%rbp)
    5b14:	48 8d 05 dd 05 01 00 	lea    0x105dd(%rip),%rax        # 160f8 <g_300>
    5b1b:	48 89 45 90          	mov    %rax,-0x70(%rbp)
    5b1f:	c7 85 4c ff ff ff dd 	movl   $0x33857bdd,-0xb4(%rbp)
    5b26:	7b 85 33 
    5b29:	0f b7 85 30 ff ff ff 	movzwl -0xd0(%rbp),%eax
    5b30:	83 c0 01             	add    $0x1,%eax
    5b33:	66 89 85 30 ff ff ff 	mov    %ax,-0xd0(%rbp)
    5b3a:	66 83 bd 30 ff ff ff 	cmpw   $0x10,-0xd0(%rbp)
    5b41:	10 
    5b42:	0f 87 2b ff ff ff    	ja     5a73 <func_12+0xfc>
    5b48:	66 0f be 85 24 ff ff 	movsbw -0xdc(%rbp),%ax
    5b4f:	ff 
    5b50:	48 8b 7d f8          	mov    -0x8(%rbp),%rdi
    5b54:	64 48 33 3c 25 28 00 	xor    %fs:0x28,%rdi
    5b5b:	00 00 
    5b5d:	74 05                	je     5b64 <func_12+0x1ed>
    5b5f:	e8 0c e5 ff ff       	callq  4070 <__stack_chk_fail@plt>
    5b64:	c9                   	leaveq 
    5b65:	c3                   	retq   

0000000000005b66 <func_34>:
    5b66:	f3 0f 1e fa          	endbr64 
    5b6a:	55                   	push   %rbp
    5b6b:	48 89 e5             	mov    %rsp,%rbp
    5b6e:	41 57                	push   %r15
    5b70:	41 56                	push   %r14
    5b72:	41 55                	push   %r13
    5b74:	41 54                	push   %r12
    5b76:	53                   	push   %rbx
    5b77:	48 81 ec 38 0a 00 00 	sub    $0xa38,%rsp
    5b7e:	48 89 bd c8 f5 ff ff 	mov    %rdi,-0xa38(%rbp)
    5b85:	89 b5 c4 f5 ff ff    	mov    %esi,-0xa3c(%rbp)
    5b8b:	89 95 c0 f5 ff ff    	mov    %edx,-0xa40(%rbp)
    5b91:	48 89 c8             	mov    %rcx,%rax
    5b94:	44 89 c2             	mov    %r8d,%edx
    5b97:	48 89 85 b0 f5 ff ff 	mov    %rax,-0xa50(%rbp)
    5b9e:	89 95 b8 f5 ff ff    	mov    %edx,-0xa48(%rbp)
    5ba4:	64 48 8b 04 25 28 00 	mov    %fs:0x28,%rax
    5bab:	00 00 
    5bad:	48 89 45 c8          	mov    %rax,-0x38(%rbp)
    5bb1:	31 c0                	xor    %eax,%eax
    5bb3:	66 c7 85 80 f9 ff ff 	movw   $0x3,-0x680(%rbp)
    5bba:	03 00 
    5bbc:	66 c7 85 82 f9 ff ff 	movw   $0x1,-0x67e(%rbp)
    5bc3:	01 00 
    5bc5:	66 c7 85 84 f9 ff ff 	movw   $0x8,-0x67c(%rbp)
    5bcc:	08 00 
    5bce:	66 c7 85 86 f9 ff ff 	movw   $0x4b25,-0x67a(%rbp)
    5bd5:	25 4b 
    5bd7:	66 c7 85 88 f9 ff ff 	movw   $0xfa30,-0x678(%rbp)
    5bde:	30 fa 
    5be0:	66 c7 85 8a f9 ff ff 	movw   $0x4,-0x676(%rbp)
    5be7:	04 00 
    5be9:	66 c7 85 8c f9 ff ff 	movw   $0x0,-0x674(%rbp)
    5bf0:	00 00 
    5bf2:	66 c7 85 8e f9 ff ff 	movw   $0x3,-0x672(%rbp)
    5bf9:	03 00 
    5bfb:	66 c7 85 90 f9 ff ff 	movw   $0x4,-0x670(%rbp)
    5c02:	04 00 
    5c04:	66 c7 85 92 f9 ff ff 	movw   $0xffff,-0x66e(%rbp)
    5c0b:	ff ff 
    5c0d:	66 c7 85 94 f9 ff ff 	movw   $0xfa30,-0x66c(%rbp)
    5c14:	30 fa 
    5c16:	66 c7 85 96 f9 ff ff 	movw   $0x4cce,-0x66a(%rbp)
    5c1d:	ce 4c 
    5c1f:	66 c7 85 98 f9 ff ff 	movw   $0x4cce,-0x668(%rbp)
    5c26:	ce 4c 
    5c28:	66 c7 85 9a f9 ff ff 	movw   $0xfa30,-0x666(%rbp)
    5c2f:	30 fa 
    5c31:	66 c7 85 9c f9 ff ff 	movw   $0x8,-0x664(%rbp)
    5c38:	08 00 
    5c3a:	66 c7 85 9e f9 ff ff 	movw   $0xfff8,-0x662(%rbp)
    5c41:	f8 ff 
    5c43:	66 c7 85 a0 f9 ff ff 	movw   $0x8,-0x660(%rbp)
    5c4a:	08 00 
    5c4c:	66 c7 85 a2 f9 ff ff 	movw   $0xf72,-0x65e(%rbp)
    5c53:	72 0f 
    5c55:	66 c7 85 a4 f9 ff ff 	movw   $0x5432,-0x65c(%rbp)
    5c5c:	32 54 
    5c5e:	66 c7 85 a6 f9 ff ff 	movw   $0x3,-0x65a(%rbp)
    5c65:	03 00 
    5c67:	66 c7 85 a8 f9 ff ff 	movw   $0x4,-0x658(%rbp)
    5c6e:	04 00 
    5c70:	66 c7 85 aa f9 ff ff 	movw   $0x8,-0x656(%rbp)
    5c77:	08 00 
    5c79:	66 c7 85 ac f9 ff ff 	movw   $0xfa30,-0x654(%rbp)
    5c80:	30 fa 
    5c82:	66 c7 85 ae f9 ff ff 	movw   $0xcdab,-0x652(%rbp)
    5c89:	ab cd 
    5c8b:	66 c7 85 b0 f9 ff ff 	movw   $0x3,-0x650(%rbp)
    5c92:	03 00 
    5c94:	66 c7 85 b2 f9 ff ff 	movw   $0x1,-0x64e(%rbp)
    5c9b:	01 00 
    5c9d:	66 c7 85 b4 f9 ff ff 	movw   $0x4,-0x64c(%rbp)
    5ca4:	04 00 
    5ca6:	66 c7 85 b6 f9 ff ff 	movw   $0x4b25,-0x64a(%rbp)
    5cad:	25 4b 
    5caf:	66 c7 85 b8 f9 ff ff 	movw   $0x4b25,-0x648(%rbp)
    5cb6:	25 4b 
    5cb8:	66 c7 85 ba f9 ff ff 	movw   $0x0,-0x646(%rbp)
    5cbf:	00 00 
    5cc1:	66 c7 85 bc f9 ff ff 	movw   $0x8,-0x644(%rbp)
    5cc8:	08 00 
    5cca:	66 c7 85 be f9 ff ff 	movw   $0x8,-0x642(%rbp)
    5cd1:	08 00 
    5cd3:	66 c7 85 c0 f9 ff ff 	movw   $0x0,-0x640(%rbp)
    5cda:	00 00 
    5cdc:	66 c7 85 c2 f9 ff ff 	movw   $0x4b25,-0x63e(%rbp)
    5ce3:	25 4b 
    5ce5:	66 c7 85 c4 f9 ff ff 	movw   $0x4cce,-0x63c(%rbp)
    5cec:	ce 4c 
    5cee:	66 c7 85 c6 f9 ff ff 	movw   $0x0,-0x63a(%rbp)
    5cf5:	00 00 
    5cf7:	66 c7 85 c8 f9 ff ff 	movw   $0xcdab,-0x638(%rbp)
    5cfe:	ab cd 
    5d00:	66 c7 85 ca f9 ff ff 	movw   $0x1,-0x636(%rbp)
    5d07:	01 00 
    5d09:	66 c7 85 cc f9 ff ff 	movw   $0x8,-0x634(%rbp)
    5d10:	08 00 
    5d12:	66 c7 85 ce f9 ff ff 	movw   $0xf170,-0x632(%rbp)
    5d19:	70 f1 
    5d1b:	66 c7 85 d0 f9 ff ff 	movw   $0xf72,-0x630(%rbp)
    5d22:	72 0f 
    5d24:	66 c7 85 d2 f9 ff ff 	movw   $0xfff8,-0x62e(%rbp)
    5d2b:	f8 ff 
    5d2d:	66 c7 85 d4 f9 ff ff 	movw   $0x1,-0x62c(%rbp)
    5d34:	01 00 
    5d36:	66 c7 85 d6 f9 ff ff 	movw   $0x4b25,-0x62a(%rbp)
    5d3d:	25 4b 
    5d3f:	66 c7 85 d8 f9 ff ff 	movw   $0xffff,-0x628(%rbp)
    5d46:	ff ff 
    5d48:	66 c7 85 da f9 ff ff 	movw   $0x3,-0x626(%rbp)
    5d4f:	03 00 
    5d51:	66 c7 85 dc f9 ff ff 	movw   $0xfa30,-0x624(%rbp)
    5d58:	30 fa 
    5d5a:	66 c7 85 de f9 ff ff 	movw   $0x3,-0x622(%rbp)
    5d61:	03 00 
    5d63:	66 c7 85 e0 f9 ff ff 	movw   $0xffff,-0x620(%rbp)
    5d6a:	ff ff 
    5d6c:	66 c7 85 e2 f9 ff ff 	movw   $0xcdab,-0x61e(%rbp)
    5d73:	ab cd 
    5d75:	66 c7 85 e4 f9 ff ff 	movw   $0xcdab,-0x61c(%rbp)
    5d7c:	ab cd 
    5d7e:	66 c7 85 e6 f9 ff ff 	movw   $0x4,-0x61a(%rbp)
    5d85:	04 00 
    5d87:	66 c7 85 e8 f9 ff ff 	movw   $0x3,-0x618(%rbp)
    5d8e:	03 00 
    5d90:	66 c7 85 ea f9 ff ff 	movw   $0x8,-0x616(%rbp)
    5d97:	08 00 
    5d99:	66 c7 85 ec f9 ff ff 	movw   $0x5432,-0x614(%rbp)
    5da0:	32 54 
    5da2:	66 c7 85 ee f9 ff ff 	movw   $0xffff,-0x612(%rbp)
    5da9:	ff ff 
    5dab:	48 8d 05 b6 04 01 00 	lea    0x104b6(%rip),%rax        # 16268 <g_1135>
    5db2:	48 89 85 80 f8 ff ff 	mov    %rax,-0x780(%rbp)
    5db9:	48 8d 05 a8 04 01 00 	lea    0x104a8(%rip),%rax        # 16268 <g_1135>
    5dc0:	48 89 85 88 f8 ff ff 	mov    %rax,-0x778(%rbp)
    5dc7:	48 8d 05 9a 04 01 00 	lea    0x1049a(%rip),%rax        # 16268 <g_1135>
    5dce:	48 89 85 90 f8 ff ff 	mov    %rax,-0x770(%rbp)
    5dd5:	48 8d 05 8c 04 01 00 	lea    0x1048c(%rip),%rax        # 16268 <g_1135>
    5ddc:	48 89 85 98 f8 ff ff 	mov    %rax,-0x768(%rbp)
    5de3:	48 8d 05 7e 04 01 00 	lea    0x1047e(%rip),%rax        # 16268 <g_1135>
    5dea:	48 89 85 a0 f8 ff ff 	mov    %rax,-0x760(%rbp)
    5df1:	48 8d 05 70 04 01 00 	lea    0x10470(%rip),%rax        # 16268 <g_1135>
    5df8:	48 89 85 a8 f8 ff ff 	mov    %rax,-0x758(%rbp)
    5dff:	48 8d 05 62 04 01 00 	lea    0x10462(%rip),%rax        # 16268 <g_1135>
    5e06:	48 89 85 b0 f8 ff ff 	mov    %rax,-0x750(%rbp)
    5e0d:	48 8d 05 54 04 01 00 	lea    0x10454(%rip),%rax        # 16268 <g_1135>
    5e14:	48 89 85 b8 f8 ff ff 	mov    %rax,-0x748(%rbp)
    5e1b:	48 8d 05 46 04 01 00 	lea    0x10446(%rip),%rax        # 16268 <g_1135>
    5e22:	48 89 85 c0 f8 ff ff 	mov    %rax,-0x740(%rbp)
    5e29:	48 c7 85 98 f6 ff ff 	movq   $0x0,-0x968(%rbp)
    5e30:	00 00 00 00 
    5e34:	48 b8 6a 60 e2 83 dc 	movabs $0xce59b6dc83e2606a,%rax
    5e3b:	b6 59 ce 
    5e3e:	48 89 85 a0 f6 ff ff 	mov    %rax,-0x960(%rbp)
    5e45:	48 8d 05 cc 2c 01 00 	lea    0x12ccc(%rip),%rax        # 18b18 <g_1532+0x18>
    5e4c:	48 89 85 68 f6 ff ff 	mov    %rax,-0x998(%rbp)
    5e53:	48 8d 85 68 f6 ff ff 	lea    -0x998(%rbp),%rax
    5e5a:	48 89 85 d0 f8 ff ff 	mov    %rax,-0x730(%rbp)
    5e61:	48 8d 85 68 f6 ff ff 	lea    -0x998(%rbp),%rax
    5e68:	48 89 85 d8 f8 ff ff 	mov    %rax,-0x728(%rbp)
    5e6f:	48 8d 85 68 f6 ff ff 	lea    -0x998(%rbp),%rax
    5e76:	48 89 85 e0 f8 ff ff 	mov    %rax,-0x720(%rbp)
    5e7d:	48 8d 85 68 f6 ff ff 	lea    -0x998(%rbp),%rax
    5e84:	48 89 85 e8 f8 ff ff 	mov    %rax,-0x718(%rbp)
    5e8b:	48 8d 85 68 f6 ff ff 	lea    -0x998(%rbp),%rax
    5e92:	48 89 85 f0 f8 ff ff 	mov    %rax,-0x710(%rbp)
    5e99:	48 8d 85 68 f6 ff ff 	lea    -0x998(%rbp),%rax
    5ea0:	48 89 85 f8 f8 ff ff 	mov    %rax,-0x708(%rbp)
    5ea7:	48 8d 85 68 f6 ff ff 	lea    -0x998(%rbp),%rax
    5eae:	48 89 85 00 f9 ff ff 	mov    %rax,-0x700(%rbp)
    5eb5:	48 8d 85 68 f6 ff ff 	lea    -0x998(%rbp),%rax
    5ebc:	48 89 85 08 f9 ff ff 	mov    %rax,-0x6f8(%rbp)
    5ec3:	48 8d 85 68 f6 ff ff 	lea    -0x998(%rbp),%rax
    5eca:	48 89 85 10 f9 ff ff 	mov    %rax,-0x6f0(%rbp)
    5ed1:	48 8d 85 68 f6 ff ff 	lea    -0x998(%rbp),%rax
    5ed8:	48 89 85 18 f9 ff ff 	mov    %rax,-0x6e8(%rbp)
    5edf:	c7 85 0c f6 ff ff f9 	movl   $0xfffffff9,-0x9f4(%rbp)
    5ee6:	ff ff ff 
    5ee9:	c7 85 d0 f7 ff ff ff 	movl   $0xffffffff,-0x830(%rbp)
    5ef0:	ff ff ff 
    5ef3:	c7 85 d4 f7 ff ff ff 	movl   $0xffffffff,-0x82c(%rbp)
    5efa:	ff ff ff 
    5efd:	c7 85 d8 f7 ff ff 01 	movl   $0x1,-0x828(%rbp)
    5f04:	00 00 00 
    5f07:	c7 85 dc f7 ff ff ff 	movl   $0xffffffff,-0x824(%rbp)
    5f0e:	ff ff ff 
    5f11:	c7 85 e0 f7 ff ff ff 	movl   $0xffffffff,-0x820(%rbp)
    5f18:	ff ff ff 
    5f1b:	c7 85 e4 f7 ff ff 01 	movl   $0x1,-0x81c(%rbp)
    5f22:	00 00 00 
    5f25:	c7 85 90 fa ff ff e7 	movl   $0x94268ee7,-0x570(%rbp)
    5f2c:	8e 26 94 
    5f2f:	c7 85 94 fa ff ff e7 	movl   $0x94268ee7,-0x56c(%rbp)
    5f36:	8e 26 94 
    5f39:	c7 85 98 fa ff ff f7 	movl   $0x88ce1df7,-0x568(%rbp)
    5f40:	1d ce 88 
    5f43:	c7 85 9c fa ff ff e7 	movl   $0x94268ee7,-0x564(%rbp)
    5f4a:	8e 26 94 
    5f4d:	c7 85 a0 fa ff ff e7 	movl   $0x94268ee7,-0x560(%rbp)
    5f54:	8e 26 94 
    5f57:	c7 85 a4 fa ff ff f7 	movl   $0x88ce1df7,-0x55c(%rbp)
    5f5e:	1d ce 88 
    5f61:	c7 85 a8 fa ff ff e7 	movl   $0x94268ee7,-0x558(%rbp)
    5f68:	8e 26 94 
    5f6b:	c7 85 ac fa ff ff e7 	movl   $0x94268ee7,-0x554(%rbp)
    5f72:	8e 26 94 
    5f75:	c7 85 b0 fa ff ff f7 	movl   $0x88ce1df7,-0x550(%rbp)
    5f7c:	1d ce 88 
    5f7f:	c7 85 b4 fa ff ff e7 	movl   $0x94268ee7,-0x54c(%rbp)
    5f86:	8e 26 94 
    5f89:	c7 85 b8 fa ff ff e7 	movl   $0x94268ee7,-0x548(%rbp)
    5f90:	8e 26 94 
    5f93:	c7 85 bc fa ff ff f7 	movl   $0x88ce1df7,-0x544(%rbp)
    5f9a:	1d ce 88 
    5f9d:	c7 85 c0 fa ff ff e7 	movl   $0x94268ee7,-0x540(%rbp)
    5fa4:	8e 26 94 
    5fa7:	c7 85 c4 fa ff ff e7 	movl   $0x94268ee7,-0x53c(%rbp)
    5fae:	8e 26 94 
    5fb1:	c7 85 c8 fa ff ff f7 	movl   $0x88ce1df7,-0x538(%rbp)
    5fb8:	1d ce 88 
    5fbb:	c7 85 cc fa ff ff e7 	movl   $0x94268ee7,-0x534(%rbp)
    5fc2:	8e 26 94 
    5fc5:	c7 85 d0 fa ff ff e7 	movl   $0x94268ee7,-0x530(%rbp)
    5fcc:	8e 26 94 
    5fcf:	c7 85 d4 fa ff ff f7 	movl   $0x88ce1df7,-0x52c(%rbp)
    5fd6:	1d ce 88 
    5fd9:	c7 85 d8 fa ff ff e7 	movl   $0x94268ee7,-0x528(%rbp)
    5fe0:	8e 26 94 
    5fe3:	c7 85 dc fa ff ff e7 	movl   $0x94268ee7,-0x524(%rbp)
    5fea:	8e 26 94 
    5fed:	c7 85 e0 fa ff ff f7 	movl   $0x88ce1df7,-0x520(%rbp)
    5ff4:	1d ce 88 
    5ff7:	c7 85 e4 fa ff ff e7 	movl   $0x94268ee7,-0x51c(%rbp)
    5ffe:	8e 26 94 
    6001:	c7 85 e8 fa ff ff e7 	movl   $0x94268ee7,-0x518(%rbp)
    6008:	8e 26 94 
    600b:	c7 85 ec fa ff ff f7 	movl   $0x88ce1df7,-0x514(%rbp)
    6012:	1d ce 88 
    6015:	c7 85 f0 fa ff ff e7 	movl   $0x94268ee7,-0x510(%rbp)
    601c:	8e 26 94 
    601f:	c7 85 f4 fa ff ff e7 	movl   $0x94268ee7,-0x50c(%rbp)
    6026:	8e 26 94 
    6029:	c7 85 f8 fa ff ff f7 	movl   $0x88ce1df7,-0x508(%rbp)
    6030:	1d ce 88 
    6033:	c7 85 fc fa ff ff e7 	movl   $0x94268ee7,-0x504(%rbp)
    603a:	8e 26 94 
    603d:	c7 85 00 fb ff ff e7 	movl   $0x94268ee7,-0x500(%rbp)
    6044:	8e 26 94 
    6047:	c7 85 04 fb ff ff f7 	movl   $0x88ce1df7,-0x4fc(%rbp)
    604e:	1d ce 88 
    6051:	c7 85 08 fb ff ff e7 	movl   $0x94268ee7,-0x4f8(%rbp)
    6058:	8e 26 94 
    605b:	c7 85 0c fb ff ff e7 	movl   $0x94268ee7,-0x4f4(%rbp)
    6062:	8e 26 94 
    6065:	c7 85 10 fb ff ff f7 	movl   $0x88ce1df7,-0x4f0(%rbp)
    606c:	1d ce 88 
    606f:	c7 85 14 fb ff ff e7 	movl   $0x94268ee7,-0x4ec(%rbp)
    6076:	8e 26 94 
    6079:	c7 85 18 fb ff ff e7 	movl   $0x94268ee7,-0x4e8(%rbp)
    6080:	8e 26 94 
    6083:	c7 85 1c fb ff ff f7 	movl   $0x88ce1df7,-0x4e4(%rbp)
    608a:	1d ce 88 
    608d:	c7 85 20 fb ff ff e7 	movl   $0x94268ee7,-0x4e0(%rbp)
    6094:	8e 26 94 
    6097:	c7 85 24 fb ff ff e7 	movl   $0x94268ee7,-0x4dc(%rbp)
    609e:	8e 26 94 
    60a1:	c7 85 28 fb ff ff f7 	movl   $0x88ce1df7,-0x4d8(%rbp)
    60a8:	1d ce 88 
    60ab:	c7 85 2c fb ff ff e7 	movl   $0x94268ee7,-0x4d4(%rbp)
    60b2:	8e 26 94 
    60b5:	c7 85 30 fb ff ff e7 	movl   $0x94268ee7,-0x4d0(%rbp)
    60bc:	8e 26 94 
    60bf:	c7 85 34 fb ff ff f7 	movl   $0x88ce1df7,-0x4cc(%rbp)
    60c6:	1d ce 88 
    60c9:	0f b7 85 86 f9 ff ff 	movzwl -0x67a(%rbp),%eax
    60d0:	83 e8 01             	sub    $0x1,%eax
    60d3:	66 89 85 86 f9 ff ff 	mov    %ax,-0x67a(%rbp)
    60da:	66 c7 85 b8 f5 ff ff 	movw   $0x0,-0xa48(%rbp)
    60e1:	00 00 
    60e3:	e9 9f 1e 00 00       	jmpq   7f87 <func_34+0x2421>
    60e8:	c7 85 20 f9 ff ff 85 	movl   $0xda5e3085,-0x6e0(%rbp)
    60ef:	30 5e da 
    60f2:	c7 85 24 f9 ff ff 85 	movl   $0xda5e3085,-0x6dc(%rbp)
    60f9:	30 5e da 
    60fc:	c7 85 28 f9 ff ff d3 	movl   $0x7a366ed3,-0x6d8(%rbp)
    6103:	6e 36 7a 
    6106:	c7 85 2c f9 ff ff 85 	movl   $0xda5e3085,-0x6d4(%rbp)
    610d:	30 5e da 
    6110:	c7 85 30 f9 ff ff 85 	movl   $0xda5e3085,-0x6d0(%rbp)
    6117:	30 5e da 
    611a:	c7 85 34 f9 ff ff d3 	movl   $0x7a366ed3,-0x6cc(%rbp)
    6121:	6e 36 7a 
    6124:	c7 85 38 f9 ff ff 85 	movl   $0xda5e3085,-0x6c8(%rbp)
    612b:	30 5e da 
    612e:	c7 85 3c f9 ff ff 85 	movl   $0xda5e3085,-0x6c4(%rbp)
    6135:	30 5e da 
    6138:	c7 85 40 f9 ff ff d3 	movl   $0x7a366ed3,-0x6c0(%rbp)
    613f:	6e 36 7a 
    6142:	c7 85 44 f9 ff ff 85 	movl   $0xda5e3085,-0x6bc(%rbp)
    6149:	30 5e da 
    614c:	c7 85 48 f9 ff ff 85 	movl   $0xda5e3085,-0x6b8(%rbp)
    6153:	30 5e da 
    6156:	c7 85 4c f9 ff ff d3 	movl   $0x7a366ed3,-0x6b4(%rbp)
    615d:	6e 36 7a 
    6160:	c7 85 50 f9 ff ff 85 	movl   $0xda5e3085,-0x6b0(%rbp)
    6167:	30 5e da 
    616a:	c7 85 54 f9 ff ff 85 	movl   $0xda5e3085,-0x6ac(%rbp)
    6171:	30 5e da 
    6174:	c7 85 58 f9 ff ff d3 	movl   $0x7a366ed3,-0x6a8(%rbp)
    617b:	6e 36 7a 
    617e:	c7 85 5c f9 ff ff 85 	movl   $0xda5e3085,-0x6a4(%rbp)
    6185:	30 5e da 
    6188:	c7 85 60 f9 ff ff 85 	movl   $0xda5e3085,-0x6a0(%rbp)
    618f:	30 5e da 
    6192:	c7 85 64 f9 ff ff d3 	movl   $0x7a366ed3,-0x69c(%rbp)
    6199:	6e 36 7a 
    619c:	c7 85 68 f9 ff ff 85 	movl   $0xda5e3085,-0x698(%rbp)
    61a3:	30 5e da 
    61a6:	c7 85 6c f9 ff ff 85 	movl   $0xda5e3085,-0x694(%rbp)
    61ad:	30 5e da 
    61b0:	c7 85 70 f9 ff ff d3 	movl   $0x7a366ed3,-0x690(%rbp)
    61b7:	6e 36 7a 
    61ba:	c7 85 74 f9 ff ff 85 	movl   $0xda5e3085,-0x68c(%rbp)
    61c1:	30 5e da 
    61c4:	c7 85 78 f9 ff ff 85 	movl   $0xda5e3085,-0x688(%rbp)
    61cb:	30 5e da 
    61ce:	c7 85 7c f9 ff ff d3 	movl   $0x7a366ed3,-0x684(%rbp)
    61d5:	6e 36 7a 
    61d8:	c7 85 10 f6 ff ff 00 	movl   $0x0,-0x9f0(%rbp)
    61df:	00 00 00 
    61e2:	48 8d 05 27 1c 01 00 	lea    0x11c27(%rip),%rax        # 17e10 <g_191>
    61e9:	48 89 85 a8 f6 ff ff 	mov    %rax,-0x958(%rbp)
    61f0:	48 8d 05 a9 fe 00 00 	lea    0xfea9(%rip),%rax        # 160a0 <g_281>
    61f7:	48 89 85 b0 f6 ff ff 	mov    %rax,-0x950(%rbp)
    61fe:	c7 85 14 f6 ff ff 7b 	movl   $0xf631217b,-0x9ec(%rbp)
    6205:	21 31 f6 
    6208:	66 c7 85 e4 f5 ff ff 	movw   $0x1,-0xa1c(%rbp)
    620f:	01 00 
    6211:	48 8d 85 f0 f9 ff ff 	lea    -0x610(%rbp),%rax
    6218:	48 83 c0 18          	add    $0x18,%rax
    621c:	48 89 85 40 f8 ff ff 	mov    %rax,-0x7c0(%rbp)
    6223:	48 8d 85 f0 f9 ff ff 	lea    -0x610(%rbp),%rax
    622a:	48 83 c0 18          	add    $0x18,%rax
    622e:	48 89 85 48 f8 ff ff 	mov    %rax,-0x7b8(%rbp)
    6235:	48 8d 85 f0 f9 ff ff 	lea    -0x610(%rbp),%rax
    623c:	48 83 c0 18          	add    $0x18,%rax
    6240:	48 89 85 50 f8 ff ff 	mov    %rax,-0x7b0(%rbp)
    6247:	48 8d 85 f0 f9 ff ff 	lea    -0x610(%rbp),%rax
    624e:	48 83 c0 18          	add    $0x18,%rax
    6252:	48 89 85 58 f8 ff ff 	mov    %rax,-0x7a8(%rbp)
    6259:	48 8d 85 f0 f9 ff ff 	lea    -0x610(%rbp),%rax
    6260:	48 83 c0 18          	add    $0x18,%rax
    6264:	48 89 85 60 f8 ff ff 	mov    %rax,-0x7a0(%rbp)
    626b:	48 8d 85 f0 f9 ff ff 	lea    -0x610(%rbp),%rax
    6272:	48 83 c0 18          	add    $0x18,%rax
    6276:	48 89 85 68 f8 ff ff 	mov    %rax,-0x798(%rbp)
    627d:	48 8d 85 f0 f9 ff ff 	lea    -0x610(%rbp),%rax
    6284:	48 83 c0 18          	add    $0x18,%rax
    6288:	48 89 85 70 f8 ff ff 	mov    %rax,-0x790(%rbp)
    628f:	48 8d 85 f0 f9 ff ff 	lea    -0x610(%rbp),%rax
    6296:	48 83 c0 18          	add    $0x18,%rax
    629a:	48 89 85 78 f8 ff ff 	mov    %rax,-0x788(%rbp)
    62a1:	c7 85 18 f6 ff ff 63 	movl   $0x2ccfe63,-0x9e8(%rbp)
    62a8:	fe cc 02 
    62ab:	c7 85 1c f6 ff ff df 	movl   $0x4886c8df,-0x9e4(%rbp)
    62b2:	c8 86 48 
    62b5:	c7 85 20 f6 ff ff f6 	movl   $0xfffffff6,-0x9e0(%rbp)
    62bc:	ff ff ff 
    62bf:	c7 85 24 f6 ff ff ff 	movl   $0xffffffff,-0x9dc(%rbp)
    62c6:	ff ff ff 
    62c9:	c7 85 f0 f7 ff ff 84 	movl   $0xc08dfe84,-0x810(%rbp)
    62d0:	fe 8d c0 
    62d3:	c7 85 f4 f7 ff ff 84 	movl   $0xc08dfe84,-0x80c(%rbp)
    62da:	fe 8d c0 
    62dd:	c7 85 f8 f7 ff ff 84 	movl   $0xc08dfe84,-0x808(%rbp)
    62e4:	fe 8d c0 
    62e7:	c7 85 fc f7 ff ff 84 	movl   $0xc08dfe84,-0x804(%rbp)
    62ee:	fe 8d c0 
    62f1:	c7 85 00 f8 ff ff 84 	movl   $0xc08dfe84,-0x800(%rbp)
    62f8:	fe 8d c0 
    62fb:	c7 85 04 f8 ff ff 84 	movl   $0xc08dfe84,-0x7fc(%rbp)
    6302:	fe 8d c0 
    6305:	c7 85 08 f8 ff ff 84 	movl   $0xc08dfe84,-0x7f8(%rbp)
    630c:	fe 8d c0 
    630f:	c7 85 0c f8 ff ff 84 	movl   $0xc08dfe84,-0x7f4(%rbp)
    6316:	fe 8d c0 
    6319:	c7 85 e8 f5 ff ff 00 	movl   $0x0,-0xa18(%rbp)
    6320:	00 00 00 
    6323:	eb 46                	jmp    636b <func_34+0x805>
    6325:	c7 85 ec f5 ff ff 00 	movl   $0x0,-0xa14(%rbp)
    632c:	00 00 00 
    632f:	eb 2a                	jmp    635b <func_34+0x7f5>
    6331:	8b 85 ec f5 ff ff    	mov    -0xa14(%rbp),%eax
    6337:	48 98                	cltq   
    6339:	8b 95 e8 f5 ff ff    	mov    -0xa18(%rbp),%edx
    633f:	48 63 d2             	movslq %edx,%rdx
    6342:	48 01 d2             	add    %rdx,%rdx
    6345:	48 01 d0             	add    %rdx,%rax
    6348:	48 c7 84 c5 f0 f9 ff 	movq   $0x0,-0x610(%rbp,%rax,8)
    634f:	ff 00 00 00 00 
    6354:	83 85 ec f5 ff ff 01 	addl   $0x1,-0xa14(%rbp)
    635b:	83 bd ec f5 ff ff 01 	cmpl   $0x1,-0xa14(%rbp)
    6362:	7e cd                	jle    6331 <func_34+0x7cb>
    6364:	83 85 e8 f5 ff ff 01 	addl   $0x1,-0xa18(%rbp)
    636b:	83 bd e8 f5 ff ff 09 	cmpl   $0x9,-0xa18(%rbp)
    6372:	7e b1                	jle    6325 <func_34+0x7bf>
    6374:	c7 85 c4 f5 ff ff 00 	movl   $0x0,-0xa3c(%rbp)
    637b:	00 00 00 
    637e:	e9 a9 00 00 00       	jmpq   642c <func_34+0x8c6>
    6383:	c7 85 c0 f5 ff ff 15 	movl   $0x15,-0xa40(%rbp)
    638a:	00 00 00 
    638d:	e9 86 00 00 00       	jmpq   6418 <func_34+0x8b2>
    6392:	48 8d 05 cf fe 00 00 	lea    0xfecf(%rip),%rax        # 16268 <g_1135>
    6399:	48 89 85 88 f7 ff ff 	mov    %rax,-0x878(%rbp)
    63a0:	48 c7 85 90 f7 ff ff 	movq   $0x0,-0x870(%rbp)
    63a7:	00 00 00 00 
    63ab:	48 8b 8d c8 f5 ff ff 	mov    -0xa38(%rbp),%rcx
    63b2:	0f b6 85 ba f5 ff ff 	movzbl -0xa46(%rbp),%eax
    63b9:	c1 e0 04             	shl    $0x4,%eax
    63bc:	c0 f8 04             	sar    $0x4,%al
    63bf:	0f be f0             	movsbl %al,%esi
    63c2:	48 8b 15 d7 0b 01 00 	mov    0x10bd7(%rip),%rdx        # 16fa0 <g_467>
    63c9:	48 8b 05 d0 0b 01 00 	mov    0x10bd0(%rip),%rax        # 16fa0 <g_467>
    63d0:	0f b7 12             	movzwl (%rdx),%edx
    63d3:	66 89 10             	mov    %dx,(%rax)
    63d6:	0f b7 00             	movzwl (%rax),%eax
    63d9:	98                   	cwtl   
    63da:	48 8b 95 88 f7 ff ff 	mov    -0x878(%rbp),%rdx
    63e1:	89 c7                	mov    %eax,%edi
    63e3:	e8 e8 36 00 00       	callq  9ad0 <func_48>
    63e8:	48 89 85 98 f8 ff ff 	mov    %rax,-0x768(%rbp)
    63ef:	48 8b 85 88 f7 ff ff 	mov    -0x878(%rbp),%rax
    63f6:	8b 00                	mov    (%rax),%eax
    63f8:	85 c0                	test   %eax,%eax
    63fa:	8b 85 c0 f5 ff ff    	mov    -0xa40(%rbp),%eax
    6400:	0f b7 c0             	movzwl %ax,%eax
    6403:	be 02 00 00 00       	mov    $0x2,%esi
    6408:	89 c7                	mov    %eax,%edi
    640a:	e8 f0 e8 ff ff       	callq  4cff <safe_add_func_uint16_t_u_u>
    640f:	0f b7 c0             	movzwl %ax,%eax
    6412:	89 85 c0 f5 ff ff    	mov    %eax,-0xa40(%rbp)
    6418:	83 bd c0 f5 ff ff 2f 	cmpl   $0x2f,-0xa40(%rbp)
    641f:	0f 85 6d ff ff ff    	jne    6392 <func_34+0x82c>
    6425:	83 85 c4 f5 ff ff 01 	addl   $0x1,-0xa3c(%rbp)
    642c:	83 bd c4 f5 ff ff 24 	cmpl   $0x24,-0xa3c(%rbp)
    6433:	0f 86 4a ff ff ff    	jbe    6383 <func_34+0x81d>
    6439:	0f b6 85 b2 f5 ff ff 	movzbl -0xa4e(%rbp),%eax
    6440:	c1 e0 03             	shl    $0x3,%eax
    6443:	c0 f8 03             	sar    $0x3,%al
    6446:	0f be d0             	movsbl %al,%edx
    6449:	48 8b 05 30 0b 01 00 	mov    0x10b30(%rip),%rax        # 16f80 <g_18>
    6450:	0f b6 00             	movzbl (%rax),%eax
    6453:	0f be c0             	movsbl %al,%eax
    6456:	89 d6                	mov    %edx,%esi
    6458:	89 c7                	mov    %eax,%edi
    645a:	e8 93 dd ff ff       	callq  41f2 <safe_sub_func_int8_t_s_s>
    645f:	84 c0                	test   %al,%al
    6461:	75 0e                	jne    6471 <func_34+0x90b>
    6463:	0f b6 85 ba f5 ff ff 	movzbl -0xa46(%rbp),%eax
    646a:	83 e0 0f             	and    $0xf,%eax
    646d:	84 c0                	test   %al,%al
    646f:	74 07                	je     6478 <func_34+0x912>
    6471:	b8 01 00 00 00       	mov    $0x1,%eax
    6476:	eb 05                	jmp    647d <func_34+0x917>
    6478:	b8 00 00 00 00       	mov    $0x0,%eax
    647d:	0f b6 d8             	movzbl %al,%ebx
    6480:	48 8b 85 a8 f6 ff ff 	mov    -0x958(%rbp),%rax
    6487:	0f b7 00             	movzwl (%rax),%eax
    648a:	8d 50 ff             	lea    -0x1(%rax),%edx
    648d:	48 8b 85 a8 f6 ff ff 	mov    -0x958(%rbp),%rax
    6494:	66 89 10             	mov    %dx,(%rax)
    6497:	48 8b 85 a8 f6 ff ff 	mov    -0x958(%rbp),%rax
    649e:	0f b7 00             	movzwl (%rax),%eax
    64a1:	0f b7 c0             	movzwl %ax,%eax
    64a4:	be 07 00 00 00       	mov    $0x7,%esi
    64a9:	89 c7                	mov    %eax,%edi
    64ab:	e8 98 e9 ff ff       	callq  4e48 <safe_rshift_func_uint16_t_u_s>
    64b0:	66 85 c0             	test   %ax,%ax
    64b3:	75 09                	jne    64be <func_34+0x958>
    64b5:	8b 85 20 f9 ff ff    	mov    -0x6e0(%rbp),%eax
    64bb:	83 f8 75             	cmp    $0x75,%eax
    64be:	8b 85 50 f9 ff ff    	mov    -0x6b0(%rbp),%eax
    64c4:	89 85 10 f6 ff ff    	mov    %eax,-0x9f0(%rbp)
    64ca:	48 8d 85 c8 f5 ff ff 	lea    -0xa38(%rbp),%rax
    64d1:	48 39 85 98 f6 ff ff 	cmp    %rax,-0x968(%rbp)
    64d8:	0f 95 c0             	setne  %al
    64db:	0f b6 c0             	movzbl %al,%eax
    64de:	39 85 10 f6 ff ff    	cmp    %eax,-0x9f0(%rbp)
    64e4:	0f 9d c0             	setge  %al
    64e7:	0f b6 c0             	movzbl %al,%eax
    64ea:	89 de                	mov    %ebx,%esi
    64ec:	89 c7                	mov    %eax,%edi
    64ee:	e8 67 e6 ff ff       	callq  4b5a <safe_add_func_uint8_t_u_u>
    64f3:	84 c0                	test   %al,%al
    64f5:	0f 84 f3 04 00 00    	je     69ee <func_34+0xe88>
    64fb:	48 8d 05 52 fb 00 00 	lea    0xfb52(%rip),%rax        # 16054 <g_59+0x14>
    6502:	48 89 85 30 f7 ff ff 	mov    %rax,-0x8d0(%rbp)
    6509:	c7 85 80 f6 ff ff 01 	movl   $0x1,-0x980(%rbp)
    6510:	00 00 00 
    6513:	c7 85 f0 f5 ff ff 00 	movl   $0x0,-0xa10(%rbp)
    651a:	00 00 00 
    651d:	eb 1e                	jmp    653d <func_34+0x9d7>
    651f:	8b 85 f0 f5 ff ff    	mov    -0xa10(%rbp),%eax
    6525:	48 98                	cltq   
    6527:	48 8d 15 4a fb 00 00 	lea    0xfb4a(%rip),%rdx        # 16078 <g_197>
    652e:	48 89 94 c5 10 f8 ff 	mov    %rdx,-0x7f0(%rbp,%rax,8)
    6535:	ff 
    6536:	83 85 f0 f5 ff ff 01 	addl   $0x1,-0xa10(%rbp)
    653d:	83 bd f0 f5 ff ff 01 	cmpl   $0x1,-0xa10(%rbp)
    6544:	7e d9                	jle    651f <func_34+0x9b9>
    6546:	c7 05 68 20 01 00 09 	movl   $0x9,0x12068(%rip)        # 185b8 <g_361>
    654d:	00 00 00 
    6550:	e9 85 04 00 00       	jmpq   69da <func_34+0xe74>
    6555:	48 8d 05 c4 fb 00 00 	lea    0xfbc4(%rip),%rax        # 16120 <g_534>
    655c:	48 89 85 38 f7 ff ff 	mov    %rax,-0x8c8(%rbp)
    6563:	c7 85 34 f6 ff ff fe 	movl   $0xfffffffe,-0x9cc(%rbp)
    656a:	ff ff ff 
    656d:	48 8d 05 ad fb 00 00 	lea    0xfbad(%rip),%rax        # 16121 <g_547>
    6574:	48 89 85 40 f7 ff ff 	mov    %rax,-0x8c0(%rbp)
    657b:	48 8d 05 a7 fa 00 00 	lea    0xfaa7(%rip),%rax        # 16029 <g_23>
    6582:	48 89 85 48 f7 ff ff 	mov    %rax,-0x8b8(%rbp)
    6589:	48 8d 05 b0 fa 00 00 	lea    0xfab0(%rip),%rax        # 16040 <g_59>
    6590:	48 89 85 88 f6 ff ff 	mov    %rax,-0x978(%rbp)
    6597:	48 8b 05 02 0a 01 00 	mov    0x10a02(%rip),%rax        # 16fa0 <g_467>
    659e:	0f b7 00             	movzwl (%rax),%eax
    65a1:	98                   	cwtl   
    65a2:	89 c6                	mov    %eax,%esi
    65a4:	bf ea 7b 00 00       	mov    $0x7bea,%edi
    65a9:	e8 05 de ff ff       	callq  43b3 <safe_add_func_int16_t_s_s>
    65ae:	48 8b 85 40 f7 ff ff 	mov    -0x8c0(%rbp),%rax
    65b5:	c6 00 01             	movb   $0x1,(%rax)
    65b8:	48 8b 85 40 f7 ff ff 	mov    -0x8c0(%rbp),%rax
    65bf:	0f b6 00             	movzbl (%rax),%eax
    65c2:	0f be d8             	movsbl %al,%ebx
    65c5:	0f b6 05 4e fb 00 00 	movzbl 0xfb4e(%rip),%eax        # 1611a <g_517+0xa>
    65cc:	c1 e0 04             	shl    $0x4,%eax
    65cf:	c0 f8 04             	sar    $0x4,%al
    65d2:	0f be c0             	movsbl %al,%eax
    65d5:	89 c7                	mov    %eax,%edi
    65d7:	e8 ca e8 ff ff       	callq  4ea6 <safe_unary_minus_func_uint32_t_u>
    65dc:	89 c2                	mov    %eax,%edx
    65de:	48 8b 85 38 f7 ff ff 	mov    -0x8c8(%rbp),%rax
    65e5:	88 10                	mov    %dl,(%rax)
    65e7:	48 8b 85 38 f7 ff ff 	mov    -0x8c8(%rbp),%rax
    65ee:	0f b6 00             	movzbl (%rax),%eax
    65f1:	0f b6 c0             	movzbl %al,%eax
    65f4:	be ff 00 00 00       	mov    $0xff,%esi
    65f9:	89 c7                	mov    %eax,%edi
    65fb:	e8 ae e5 ff ff       	callq  4bae <safe_mod_func_uint8_t_u_u>
    6600:	0f b6 c0             	movzbl %al,%eax
    6603:	89 85 34 f6 ff ff    	mov    %eax,-0x9cc(%rbp)
    6609:	8b 85 34 f6 ff ff    	mov    -0x9cc(%rbp),%eax
    660f:	89 c6                	mov    %eax,%esi
    6611:	bf 01 00 00 00       	mov    $0x1,%edi
    6616:	e8 0f df ff ff       	callq  452a <safe_rshift_func_int16_t_s_s>
    661b:	66 85 c0             	test   %ax,%ax
    661e:	74 11                	je     6631 <func_34+0xacb>
    6620:	8b 85 74 f9 ff ff    	mov    -0x68c(%rbp),%eax
    6626:	85 c0                	test   %eax,%eax
    6628:	74 07                	je     6631 <func_34+0xacb>
    662a:	b8 01 00 00 00       	mov    $0x1,%eax
    662f:	eb 05                	jmp    6636 <func_34+0xad0>
    6631:	b8 00 00 00 00       	mov    $0x0,%eax
    6636:	0f be c0             	movsbl %al,%eax
    6639:	89 de                	mov    %ebx,%esi
    663b:	89 c7                	mov    %eax,%edi
    663d:	e8 b0 db ff ff       	callq  41f2 <safe_sub_func_int8_t_s_s>
    6642:	89 c2                	mov    %eax,%edx
    6644:	48 8b 85 48 f7 ff ff 	mov    -0x8b8(%rbp),%rax
    664b:	88 10                	mov    %dl,(%rax)
    664d:	48 8b 85 48 f7 ff ff 	mov    -0x8b8(%rbp),%rax
    6654:	0f b6 00             	movzbl (%rax),%eax
    6657:	0f b6 d0             	movzbl %al,%edx
    665a:	0f b7 05 01 cd 00 00 	movzwl 0xcd01(%rip),%eax        # 13362 <l_1375.4234+0x42>
    6661:	98                   	cwtl   
    6662:	21 d0                	and    %edx,%eax
    6664:	89 c2                	mov    %eax,%edx
    6666:	0f b6 85 b2 f5 ff ff 	movzbl -0xa4e(%rbp),%eax
    666d:	c1 e0 03             	shl    $0x3,%eax
    6670:	c0 f8 03             	sar    $0x3,%al
    6673:	0f be c0             	movsbl %al,%eax
    6676:	89 d6                	mov    %edx,%esi
    6678:	89 c7                	mov    %eax,%edi
    667a:	e8 7e e8 ff ff       	callq  4efd <safe_mod_func_uint32_t_u_u>
    667f:	c1 e0 03             	shl    $0x3,%eax
    6682:	c0 f8 03             	sar    $0x3,%al
    6685:	83 e0 1f             	and    $0x1f,%eax
    6688:	89 c2                	mov    %eax,%edx
    668a:	0f b6 85 b2 f5 ff ff 	movzbl -0xa4e(%rbp),%eax
    6691:	83 e0 e0             	and    $0xffffffe0,%eax
    6694:	09 d0                	or     %edx,%eax
    6696:	88 85 b2 f5 ff ff    	mov    %al,-0xa4e(%rbp)
    669c:	c7 05 d2 fb 00 00 00 	movl   $0x0,0xfbd2(%rip)        # 16278 <g_1291>
    66a3:	00 00 00 
    66a6:	e9 07 03 00 00       	jmpq   69b2 <func_34+0xe4c>
    66ab:	48 8d 85 60 fc ff ff 	lea    -0x3a0(%rbp),%rax
    66b2:	48 8d 15 c7 fb 00 00 	lea    0xfbc7(%rip),%rdx        # 16280 <g_1291+0x8>
    66b9:	b9 51 00 00 00       	mov    $0x51,%ecx
    66be:	48 89 c7             	mov    %rax,%rdi
    66c1:	48 89 d6             	mov    %rdx,%rsi
    66c4:	f3 48 a5             	rep movsq %ds:(%rsi),%es:(%rdi)
    66c7:	48 8d 85 60 fc ff ff 	lea    -0x3a0(%rbp),%rax
    66ce:	48 05 28 02 00 00    	add    $0x228,%rax
    66d4:	48 89 85 50 f7 ff ff 	mov    %rax,-0x8b0(%rbp)
    66db:	48 8d 85 80 f6 ff ff 	lea    -0x980(%rbp),%rax
    66e2:	48 89 85 40 fb ff ff 	mov    %rax,-0x4c0(%rbp)
    66e9:	48 8d 85 80 f6 ff ff 	lea    -0x980(%rbp),%rax
    66f0:	48 89 85 48 fb ff ff 	mov    %rax,-0x4b8(%rbp)
    66f7:	48 8d 85 80 f6 ff ff 	lea    -0x980(%rbp),%rax
    66fe:	48 89 85 50 fb ff ff 	mov    %rax,-0x4b0(%rbp)
    6705:	48 8d 85 80 f6 ff ff 	lea    -0x980(%rbp),%rax
    670c:	48 89 85 58 fb ff ff 	mov    %rax,-0x4a8(%rbp)
    6713:	48 c7 05 da f9 00 00 	movq   $0x6,0xf9da(%rip)        # 160f8 <g_300>
    671a:	06 00 00 00 
    671e:	eb 7e                	jmp    679e <func_34+0xc38>
    6720:	c6 85 e2 f5 ff ff 04 	movb   $0x4,-0xa1e(%rbp)
    6727:	48 8d 85 40 fb ff ff 	lea    -0x4c0(%rbp),%rax
    672e:	48 89 85 58 f7 ff ff 	mov    %rax,-0x8a8(%rbp)
    6735:	48 83 bd 50 f7 ff ff 	cmpq   $0x0,-0x8b0(%rbp)
    673c:	00 
    673d:	0f 95 c0             	setne  %al
    6740:	c1 e0 03             	shl    $0x3,%eax
    6743:	c0 f8 03             	sar    $0x3,%al
    6746:	83 e0 1f             	and    $0x1f,%eax
    6749:	89 c2                	mov    %eax,%edx
    674b:	0f b6 85 b2 f5 ff ff 	movzbl -0xa4e(%rbp),%eax
    6752:	83 e0 e0             	and    $0xffffffe0,%eax
    6755:	09 d0                	or     %edx,%eax
    6757:	88 85 b2 f5 ff ff    	mov    %al,-0xa4e(%rbp)
    675d:	48 8b 85 30 f7 ff ff 	mov    -0x8d0(%rbp),%rax
    6764:	48 89 85 88 f6 ff ff 	mov    %rax,-0x978(%rbp)
    676b:	0f b6 85 e2 f5 ff ff 	movzbl -0xa1e(%rbp),%eax
    6772:	83 c0 01             	add    $0x1,%eax
    6775:	88 85 e2 f5 ff ff    	mov    %al,-0xa1e(%rbp)
    677b:	48 8b 95 40 fb ff ff 	mov    -0x4c0(%rbp),%rdx
    6782:	48 8b 85 58 f7 ff ff 	mov    -0x8a8(%rbp),%rax
    6789:	48 89 10             	mov    %rdx,(%rax)
    678c:	48 8b 05 65 f9 00 00 	mov    0xf965(%rip),%rax        # 160f8 <g_300>
    6793:	48 83 e8 01          	sub    $0x1,%rax
    6797:	48 89 05 5a f9 00 00 	mov    %rax,0xf95a(%rip)        # 160f8 <g_300>
    679e:	48 8b 05 53 f9 00 00 	mov    0xf953(%rip),%rax        # 160f8 <g_300>
    67a5:	48 85 c0             	test   %rax,%rax
    67a8:	0f 8f 72 ff ff ff    	jg     6720 <func_34+0xbba>
    67ae:	8b 05 c4 fa 00 00    	mov    0xfac4(%rip),%eax        # 16278 <g_1291>
    67b4:	8d 48 01             	lea    0x1(%rax),%ecx
    67b7:	8b 15 bb fa 00 00    	mov    0xfabb(%rip),%edx        # 16278 <g_1291>
    67bd:	48 63 fa             	movslq %edx,%rdi
    67c0:	48 63 f1             	movslq %ecx,%rsi
    67c3:	48 89 f0             	mov    %rsi,%rax
    67c6:	48 c1 e0 03          	shl    $0x3,%rax
    67ca:	48 29 f0             	sub    %rsi,%rax
    67cd:	48 01 f8             	add    %rdi,%rax
    67d0:	0f b7 84 45 80 f9 ff 	movzwl -0x680(%rbp,%rax,2),%eax
    67d7:	ff 
    67d8:	8d 78 01             	lea    0x1(%rax),%edi
    67db:	4c 63 c2             	movslq %edx,%r8
    67de:	48 63 f1             	movslq %ecx,%rsi
    67e1:	48 89 f0             	mov    %rsi,%rax
    67e4:	48 c1 e0 03          	shl    $0x3,%rax
    67e8:	48 29 f0             	sub    %rsi,%rax
    67eb:	4c 01 c0             	add    %r8,%rax
    67ee:	66 89 bc 45 80 f9 ff 	mov    %di,-0x680(%rbp,%rax,2)
    67f5:	ff 
    67f6:	48 63 f2             	movslq %edx,%rsi
    67f9:	48 63 d1             	movslq %ecx,%rdx
    67fc:	48 89 d0             	mov    %rdx,%rax
    67ff:	48 c1 e0 03          	shl    $0x3,%rax
    6803:	48 29 d0             	sub    %rdx,%rax
    6806:	48 01 f0             	add    %rsi,%rax
    6809:	0f b7 84 45 80 f9 ff 	movzwl -0x680(%rbp,%rax,2),%eax
    6810:	ff 
    6811:	0f b7 d0             	movzwl %ax,%edx
    6814:	8b 85 b4 f5 ff ff    	mov    -0xa4c(%rbp),%eax
    681a:	c1 e0 0d             	shl    $0xd,%eax
    681d:	c1 f8 0d             	sar    $0xd,%eax
    6820:	31 c2                	xor    %eax,%edx
    6822:	48 8b 85 88 f6 ff ff 	mov    -0x978(%rbp),%rax
    6829:	8b 00                	mov    (%rax),%eax
    682b:	21 c2                	and    %eax,%edx
    682d:	48 8b 85 88 f6 ff ff 	mov    -0x978(%rbp),%rax
    6834:	89 10                	mov    %edx,(%rax)
    6836:	8b 9d 10 f6 ff ff    	mov    -0x9f0(%rbp),%ebx
    683c:	48 8b 85 88 f6 ff ff 	mov    -0x978(%rbp),%rax
    6843:	8b 00                	mov    (%rax),%eax
    6845:	85 c0                	test   %eax,%eax
    6847:	75 0f                	jne    6858 <func_34+0xcf2>
    6849:	48 8b 05 50 07 01 00 	mov    0x10750(%rip),%rax        # 16fa0 <g_467>
    6850:	0f b7 00             	movzwl (%rax),%eax
    6853:	66 85 c0             	test   %ax,%ax
    6856:	74 07                	je     685f <func_34+0xcf9>
    6858:	ba 01 00 00 00       	mov    $0x1,%edx
    685d:	eb 05                	jmp    6864 <func_34+0xcfe>
    685f:	ba 00 00 00 00       	mov    $0x0,%edx
    6864:	48 8b 85 88 f6 ff ff 	mov    -0x978(%rbp),%rax
    686b:	8b 00                	mov    (%rax),%eax
    686d:	39 c2                	cmp    %eax,%edx
    686f:	0f 9e c0             	setle  %al
    6872:	0f b6 d0             	movzbl %al,%edx
    6875:	48 8b 85 88 f6 ff ff 	mov    -0x978(%rbp),%rax
    687c:	8b 00                	mov    (%rax),%eax
    687e:	09 c2                	or     %eax,%edx
    6880:	48 8b 85 30 f7 ff ff 	mov    -0x8d0(%rbp),%rax
    6887:	8b 00                	mov    (%rax),%eax
    6889:	39 c2                	cmp    %eax,%edx
    688b:	0f 95 c0             	setne  %al
    688e:	0f b6 c0             	movzbl %al,%eax
    6891:	be 00 00 00 00       	mov    $0x0,%esi
    6896:	89 c7                	mov    %eax,%edi
    6898:	e8 68 e3 ff ff       	callq  4c05 <safe_lshift_func_uint8_t_u_s>
    689d:	0f b6 d0             	movzbl %al,%edx
    68a0:	0f b7 85 b0 f5 ff ff 	movzwl -0xa50(%rbp),%eax
    68a7:	0f b6 c0             	movzbl %al,%eax
    68aa:	89 d6                	mov    %edx,%esi
    68ac:	89 c7                	mov    %eax,%edi
    68ae:	e8 a7 e2 ff ff       	callq  4b5a <safe_add_func_uint8_t_u_u>
    68b3:	89 c2                	mov    %eax,%edx
    68b5:	0f b7 85 b0 f5 ff ff 	movzwl -0xa50(%rbp),%eax
    68bc:	66 85 c0             	test   %ax,%ax
    68bf:	48 8b 05 ba 06 01 00 	mov    0x106ba(%rip),%rax        # 16f80 <g_18>
    68c6:	0f b6 08             	movzbl (%rax),%ecx
    68c9:	48 8b 05 b0 06 01 00 	mov    0x106b0(%rip),%rax        # 16f80 <g_18>
    68d0:	09 ca                	or     %ecx,%edx
    68d2:	88 10                	mov    %dl,(%rax)
    68d4:	48 8b 85 88 f6 ff ff 	mov    -0x978(%rbp),%rax
    68db:	8b 00                	mov    (%rax),%eax
    68dd:	0f b7 c0             	movzwl %ax,%eax
    68e0:	be 05 00 00 00       	mov    $0x5,%esi
    68e5:	89 c7                	mov    %eax,%edi
    68e7:	e8 51 e4 ff ff       	callq  4d3d <safe_mul_func_uint16_t_u_u>
    68ec:	0f b7 d0             	movzwl %ax,%edx
    68ef:	8b 85 50 f9 ff ff    	mov    -0x6b0(%rbp),%eax
    68f5:	39 c2                	cmp    %eax,%edx
    68f7:	73 0e                	jae    6907 <func_34+0xda1>
    68f9:	0f b6 85 ba f5 ff ff 	movzbl -0xa46(%rbp),%eax
    6900:	83 e0 0f             	and    $0xf,%eax
    6903:	84 c0                	test   %al,%al
    6905:	74 07                	je     690e <func_34+0xda8>
    6907:	b8 01 00 00 00       	mov    $0x1,%eax
    690c:	eb 05                	jmp    6913 <func_34+0xdad>
    690e:	b8 00 00 00 00       	mov    $0x0,%eax
    6913:	0f b7 c0             	movzwl %ax,%eax
    6916:	89 de                	mov    %ebx,%esi
    6918:	89 c7                	mov    %eax,%edi
    691a:	e8 e7 e4 ff ff       	callq  4e06 <safe_lshift_func_uint16_t_u_u>
    691f:	0f b7 c0             	movzwl %ax,%eax
    6922:	83 e0 f6             	and    $0xfffffff6,%eax
    6925:	48 89 c2             	mov    %rax,%rdx
    6928:	0f b6 85 b2 f5 ff ff 	movzbl -0xa4e(%rbp),%eax
    692f:	c1 e0 03             	shl    $0x3,%eax
    6932:	c0 f8 03             	sar    $0x3,%al
    6935:	48 0f be c0          	movsbq %al,%rax
    6939:	48 09 c2             	or     %rax,%rdx
    693c:	8b 85 b4 f5 ff ff    	mov    -0xa4c(%rbp),%eax
    6942:	c1 e0 0d             	shl    $0xd,%eax
    6945:	c1 f8 0d             	sar    $0xd,%eax
    6948:	89 c1                	mov    %eax,%ecx
    694a:	89 d0                	mov    %edx,%eax
    694c:	09 c8                	or     %ecx,%eax
    694e:	c1 e0 0d             	shl    $0xd,%eax
    6951:	c1 f8 0d             	sar    $0xd,%eax
    6954:	25 ff ff 07 00       	and    $0x7ffff,%eax
    6959:	89 c2                	mov    %eax,%edx
    695b:	8b 85 b4 f5 ff ff    	mov    -0xa4c(%rbp),%eax
    6961:	25 00 00 f8 ff       	and    $0xfff80000,%eax
    6966:	09 d0                	or     %edx,%eax
    6968:	89 85 b4 f5 ff ff    	mov    %eax,-0xa4c(%rbp)
    696e:	48 c7 05 ef f6 00 00 	movq   $0x6,0xf6ef(%rip)        # 16068 <g_132>
    6975:	06 00 00 00 
    6979:	90                   	nop
    697a:	48 8b 05 e7 f6 00 00 	mov    0xf6e7(%rip),%rax        # 16068 <g_132>
    6981:	48 85 c0             	test   %rax,%rax
    6984:	78 1d                	js     69a3 <func_34+0xe3d>
    6986:	0f b6 85 b2 f5 ff ff 	movzbl -0xa4e(%rbp),%eax
    698d:	83 e0 1f             	and    $0x1f,%eax
    6990:	84 c0                	test   %al,%al
    6992:	75 0e                	jne    69a2 <func_34+0xe3c>
    6994:	48 8b 85 88 f6 ff ff 	mov    -0x978(%rbp),%rax
    699b:	8b 00                	mov    (%rax),%eax
    699d:	e9 0f 16 00 00       	jmpq   7fb1 <func_34+0x244b>
    69a2:	90                   	nop
    69a3:	8b 05 cf f8 00 00    	mov    0xf8cf(%rip),%eax        # 16278 <g_1291>
    69a9:	83 c0 01             	add    $0x1,%eax
    69ac:	89 05 c6 f8 00 00    	mov    %eax,0xf8c6(%rip)        # 16278 <g_1291>
    69b2:	8b 05 c0 f8 00 00    	mov    0xf8c0(%rip),%eax        # 16278 <g_1291>
    69b8:	83 f8 06             	cmp    $0x6,%eax
    69bb:	0f 8e ea fc ff ff    	jle    66ab <func_34+0xb45>
    69c1:	0f b7 85 b8 f5 ff ff 	movzwl -0xa48(%rbp),%eax
    69c8:	66 85 c0             	test   %ax,%ax
    69cb:	8b 05 e7 1b 01 00    	mov    0x11be7(%rip),%eax        # 185b8 <g_361>
    69d1:	83 e8 01             	sub    $0x1,%eax
    69d4:	89 05 de 1b 01 00    	mov    %eax,0x11bde(%rip)        # 185b8 <g_361>
    69da:	8b 05 d8 1b 01 00    	mov    0x11bd8(%rip),%eax        # 185b8 <g_361>
    69e0:	83 f8 03             	cmp    $0x3,%eax
    69e3:	0f 87 6c fb ff ff    	ja     6555 <func_34+0x9ef>
    69e9:	e9 6d 0d 00 00       	jmpq   775b <func_34+0x1bf5>
    69ee:	c7 85 28 f6 ff ff a6 	movl   $0xbc0ab0a6,-0x9d8(%rbp)
    69f5:	b0 0a bc 
    69f8:	c6 85 e0 f5 ff ff fd 	movb   $0xfd,-0xa20(%rbp)
    69ff:	c7 85 a2 f7 ff ff 24 	movl   $0x2424c524,-0x85e(%rbp)
    6a06:	c5 24 24 
    6a09:	66 c7 85 a6 f7 ff ff 	movw   $0x24c5,-0x85a(%rbp)
    6a10:	c5 24 
    6a12:	c6 85 a8 f7 ff ff 24 	movb   $0x24,-0x858(%rbp)
    6a19:	c7 85 a9 f7 ff ff 8e 	movl   $0x8e068e8e,-0x857(%rbp)
    6a20:	8e 06 8e 
    6a23:	66 c7 85 ad f7 ff ff 	movw   $0x68e,-0x853(%rbp)
    6a2a:	8e 06 
    6a2c:	c6 85 af f7 ff ff 8e 	movb   $0x8e,-0x851(%rbp)
    6a33:	48 c7 85 70 f6 ff ff 	movq   $0x0,-0x990(%rbp)
    6a3a:	00 00 00 00 
    6a3e:	c7 85 f4 f5 ff ff ff 	movl   $0xffffffff,-0xa0c(%rbp)
    6a45:	ff ff ff 
    6a48:	48 8d 05 89 21 01 00 	lea    0x12189(%rip),%rax        # 18bd8 <g_1558+0x98>
    6a4f:	48 89 85 10 f8 ff ff 	mov    %rax,-0x7f0(%rbp)
    6a56:	48 8d 05 d3 20 01 00 	lea    0x120d3(%rip),%rax        # 18b30 <g_1557>
    6a5d:	48 89 85 18 f8 ff ff 	mov    %rax,-0x7e8(%rbp)
    6a64:	48 8d 05 c5 20 01 00 	lea    0x120c5(%rip),%rax        # 18b30 <g_1557>
    6a6b:	48 89 85 20 f8 ff ff 	mov    %rax,-0x7e0(%rbp)
    6a72:	48 8d 05 5f 21 01 00 	lea    0x1215f(%rip),%rax        # 18bd8 <g_1558+0x98>
    6a79:	48 89 85 28 f8 ff ff 	mov    %rax,-0x7d8(%rbp)
    6a80:	48 8d 05 a9 20 01 00 	lea    0x120a9(%rip),%rax        # 18b30 <g_1557>
    6a87:	48 89 85 30 f8 ff ff 	mov    %rax,-0x7d0(%rbp)
    6a8e:	48 8d 05 9b 20 01 00 	lea    0x1209b(%rip),%rax        # 18b30 <g_1557>
    6a95:	48 89 85 38 f8 ff ff 	mov    %rax,-0x7c8(%rbp)
    6a9c:	c7 85 f8 f5 ff ff 00 	movl   $0x0,-0xa08(%rbp)
    6aa3:	00 00 00 
    6aa6:	eb 1b                	jmp    6ac3 <func_34+0xf5d>
    6aa8:	8b 85 f8 f5 ff ff    	mov    -0xa08(%rbp),%eax
    6aae:	48 98                	cltq   
    6ab0:	48 c7 84 c5 40 fb ff 	movq   $0x0,-0x4c0(%rbp,%rax,8)
    6ab7:	ff 00 00 00 00 
    6abc:	83 85 f8 f5 ff ff 01 	addl   $0x1,-0xa08(%rbp)
    6ac3:	83 bd f8 f5 ff ff 06 	cmpl   $0x6,-0xa08(%rbp)
    6aca:	7e dc                	jle    6aa8 <func_34+0xf42>
    6acc:	66 c7 05 3b 13 01 00 	movw   $0x0,0x1133b(%rip)        # 17e10 <g_191>
    6ad3:	00 00 
    6ad5:	e9 57 0c 00 00       	jmpq   7731 <func_34+0x1bcb>
    6ada:	48 8d 05 5f 0e 01 00 	lea    0x10e5f(%rip),%rax        # 17940 <g_890+0x100>
    6ae1:	48 89 85 78 f6 ff ff 	mov    %rax,-0x988(%rbp)
    6ae8:	48 8d 85 b0 f7 ff ff 	lea    -0x850(%rbp),%rax
    6aef:	48 89 85 b8 f6 ff ff 	mov    %rax,-0x948(%rbp)
    6af6:	48 c7 85 90 f6 ff ff 	movq   $0x0,-0x970(%rbp)
    6afd:	00 00 00 00 
    6b01:	48 c7 85 c0 f6 ff ff 	movq   $0x0,-0x940(%rbp)
    6b08:	00 00 00 00 
    6b0c:	c7 85 fc f5 ff ff 00 	movl   $0x0,-0xa04(%rbp)
    6b13:	00 00 00 
    6b16:	eb 46                	jmp    6b5e <func_34+0xff8>
    6b18:	c7 85 00 f6 ff ff 00 	movl   $0x0,-0xa00(%rbp)
    6b1f:	00 00 00 
    6b22:	eb 2a                	jmp    6b4e <func_34+0xfe8>
    6b24:	8b 85 00 f6 ff ff    	mov    -0xa00(%rbp),%eax
    6b2a:	48 63 d0             	movslq %eax,%rdx
    6b2d:	8b 85 fc f5 ff ff    	mov    -0xa04(%rbp),%eax
    6b33:	48 98                	cltq   
    6b35:	48 01 c2             	add    %rax,%rdx
    6b38:	48 8d 85 78 f6 ff ff 	lea    -0x988(%rbp),%rax
    6b3f:	48 89 84 d5 98 f7 ff 	mov    %rax,-0x868(%rbp,%rdx,8)
    6b46:	ff 
    6b47:	83 85 00 f6 ff ff 01 	addl   $0x1,-0xa00(%rbp)
    6b4e:	83 bd 00 f6 ff ff 00 	cmpl   $0x0,-0xa00(%rbp)
    6b55:	7e cd                	jle    6b24 <func_34+0xfbe>
    6b57:	83 85 fc f5 ff ff 01 	addl   $0x1,-0xa04(%rbp)
    6b5e:	83 bd fc f5 ff ff 00 	cmpl   $0x0,-0xa04(%rbp)
    6b65:	7e b1                	jle    6b18 <func_34+0xfb2>
    6b67:	c7 85 fc f5 ff ff 00 	movl   $0x0,-0xa04(%rbp)
    6b6e:	00 00 00 
    6b71:	eb 49                	jmp    6bbc <func_34+0x1056>
    6b73:	c7 85 00 f6 ff ff 00 	movl   $0x0,-0xa00(%rbp)
    6b7a:	00 00 00 
    6b7d:	eb 2d                	jmp    6bac <func_34+0x1046>
    6b7f:	8b 85 00 f6 ff ff    	mov    -0xa00(%rbp),%eax
    6b85:	48 98                	cltq   
    6b87:	8b 95 fc f5 ff ff    	mov    -0xa04(%rbp),%edx
    6b8d:	48 63 d2             	movslq %edx,%rdx
    6b90:	48 01 d2             	add    %rdx,%rdx
    6b93:	48 01 d0             	add    %rdx,%rax
    6b96:	48 8d 15 53 1f 01 00 	lea    0x11f53(%rip),%rdx        # 18af0 <g_1447>
    6b9d:	48 89 94 c5 b0 f7 ff 	mov    %rdx,-0x850(%rbp,%rax,8)
    6ba4:	ff 
    6ba5:	83 85 00 f6 ff ff 01 	addl   $0x1,-0xa00(%rbp)
    6bac:	83 bd 00 f6 ff ff 01 	cmpl   $0x1,-0xa00(%rbp)
    6bb3:	7e ca                	jle    6b7f <func_34+0x1019>
    6bb5:	83 85 fc f5 ff ff 01 	addl   $0x1,-0xa04(%rbp)
    6bbc:	83 bd fc f5 ff ff 00 	cmpl   $0x0,-0xa04(%rbp)
    6bc3:	7e ae                	jle    6b73 <func_34+0x100d>
    6bc5:	0f b7 05 44 12 01 00 	movzwl 0x11244(%rip),%eax        # 17e10 <g_191>
    6bcc:	0f b7 c0             	movzwl %ax,%eax
    6bcf:	0f b7 15 3a 12 01 00 	movzwl 0x1123a(%rip),%edx        # 17e10 <g_191>
    6bd6:	0f b7 d2             	movzwl %dx,%edx
    6bd9:	83 c2 01             	add    $0x1,%edx
    6bdc:	48 63 ca             	movslq %edx,%rcx
    6bdf:	48 63 d0             	movslq %eax,%rdx
    6be2:	48 89 d0             	mov    %rdx,%rax
    6be5:	48 01 c0             	add    %rax,%rax
    6be8:	48 01 d0             	add    %rdx,%rax
    6beb:	48 01 c0             	add    %rax,%rax
    6bee:	48 01 c8             	add    %rcx,%rax
    6bf1:	8b 84 85 20 f9 ff ff 	mov    -0x6e0(%rbp,%rax,4),%eax
    6bf8:	85 c0                	test   %eax,%eax
    6bfa:	0f 85 44 0b 00 00    	jne    7744 <func_34+0x1bde>
    6c00:	0f b7 05 09 12 01 00 	movzwl 0x11209(%rip),%eax        # 17e10 <g_191>
    6c07:	0f b7 c0             	movzwl %ax,%eax
    6c0a:	0f b7 15 ff 11 01 00 	movzwl 0x111ff(%rip),%edx        # 17e10 <g_191>
    6c11:	0f b7 d2             	movzwl %dx,%edx
    6c14:	83 c2 01             	add    $0x1,%edx
    6c17:	48 63 ca             	movslq %edx,%rcx
    6c1a:	48 63 d0             	movslq %eax,%rdx
    6c1d:	48 89 d0             	mov    %rdx,%rax
    6c20:	48 01 c0             	add    %rax,%rax
    6c23:	48 01 d0             	add    %rdx,%rax
    6c26:	48 01 c0             	add    %rax,%rax
    6c29:	48 01 c8             	add    %rcx,%rax
    6c2c:	8b 84 85 20 f9 ff ff 	mov    -0x6e0(%rbp,%rax,4),%eax
    6c33:	85 c0                	test   %eax,%eax
    6c35:	0f 85 0c 0b 00 00    	jne    7747 <func_34+0x1be1>
    6c3b:	c7 05 df f4 00 00 00 	movl   $0x0,0xf4df(%rip)        # 16124 <g_609>
    6c42:	00 00 00 
    6c45:	e9 c7 0a 00 00       	jmpq   7711 <func_34+0x1bab>
    6c4a:	66 c7 85 e6 f5 ff ff 	movw   $0x2e11,-0xa1a(%rbp)
    6c51:	11 2e 
    6c53:	48 c7 85 c8 f6 ff ff 	movq   $0x0,-0x938(%rbp)
    6c5a:	00 00 00 00 
    6c5e:	48 c7 85 d0 f6 ff ff 	movq   $0x0,-0x930(%rbp)
    6c65:	00 00 00 00 
    6c69:	48 c7 85 80 f6 ff ff 	movq   $0x0,-0x980(%rbp)
    6c70:	00 00 00 00 
    6c74:	48 8d 85 80 f6 ff ff 	lea    -0x980(%rbp),%rax
    6c7b:	48 89 85 d8 f6 ff ff 	mov    %rax,-0x928(%rbp)
    6c82:	48 8d 05 67 f4 00 00 	lea    0xf467(%rip),%rax        # 160f0 <g_293>
    6c89:	48 89 85 e0 f6 ff ff 	mov    %rax,-0x920(%rbp)
    6c90:	c7 85 c0 f7 ff ff 56 	movl   $0x7f212f56,-0x840(%rbp)
    6c97:	2f 21 7f 
    6c9a:	c7 85 c4 f7 ff ff 56 	movl   $0x7f212f56,-0x83c(%rbp)
    6ca1:	2f 21 7f 
    6ca4:	c7 85 c8 f7 ff ff 56 	movl   $0x7f212f56,-0x838(%rbp)
    6cab:	2f 21 7f 
    6cae:	c7 85 cc f7 ff ff 56 	movl   $0x7f212f56,-0x834(%rbp)
    6cb5:	2f 21 7f 
    6cb8:	0f b6 85 ba f5 ff ff 	movzbl -0xa46(%rbp),%eax
    6cbf:	c1 e0 04             	shl    $0x4,%eax
    6cc2:	c0 f8 04             	sar    $0x4,%al
    6cc5:	89 c2                	mov    %eax,%edx
    6cc7:	48 83 bd b0 f6 ff ff 	cmpq   $0x0,-0x950(%rbp)
    6cce:	00 
    6ccf:	74 07                	je     6cd8 <func_34+0x1172>
    6cd1:	b8 e9 ff ff ff       	mov    $0xffffffe9,%eax
    6cd6:	eb 05                	jmp    6cdd <func_34+0x1177>
    6cd8:	b8 e8 ff ff ff       	mov    $0xffffffe8,%eax
    6cdd:	31 d0                	xor    %edx,%eax
    6cdf:	c1 e0 04             	shl    $0x4,%eax
    6ce2:	c0 f8 04             	sar    $0x4,%al
    6ce5:	83 e0 0f             	and    $0xf,%eax
    6ce8:	89 c2                	mov    %eax,%edx
    6cea:	0f b6 85 ba f5 ff ff 	movzbl -0xa46(%rbp),%eax
    6cf1:	83 e0 f0             	and    $0xfffffff0,%eax
    6cf4:	09 d0                	or     %edx,%eax
    6cf6:	88 85 ba f5 ff ff    	mov    %al,-0xa46(%rbp)
    6cfc:	c7 05 26 f4 00 00 00 	movl   $0x0,0xf426(%rip)        # 1612c <g_911>
    6d03:	00 00 00 
    6d06:	e9 96 01 00 00       	jmpq   6ea1 <func_34+0x133b>
    6d0b:	c7 85 30 f6 ff ff f6 	movl   $0xfffffff6,-0x9d0(%rbp)
    6d12:	ff ff ff 
    6d15:	0f b7 05 f4 10 01 00 	movzwl 0x110f4(%rip),%eax        # 17e10 <g_191>
    6d1c:	0f b7 c0             	movzwl %ax,%eax
    6d1f:	0f b7 15 ea 10 01 00 	movzwl 0x110ea(%rip),%edx        # 17e10 <g_191>
    6d26:	0f b7 d2             	movzwl %dx,%edx
    6d29:	83 c2 01             	add    $0x1,%edx
    6d2c:	48 63 ca             	movslq %edx,%rcx
    6d2f:	48 63 d0             	movslq %eax,%rdx
    6d32:	48 89 d0             	mov    %rdx,%rax
    6d35:	48 01 c0             	add    %rax,%rax
    6d38:	48 01 d0             	add    %rdx,%rax
    6d3b:	48 01 c0             	add    %rax,%rax
    6d3e:	48 01 c8             	add    %rcx,%rax
    6d41:	8b 84 85 20 f9 ff ff 	mov    -0x6e0(%rbp,%rax,4),%eax
    6d48:	85 c0                	test   %eax,%eax
    6d4a:	0f 85 06 01 00 00    	jne    6e56 <func_34+0x12f0>
    6d50:	0f b7 05 29 f3 00 00 	movzwl 0xf329(%rip),%eax        # 16080 <g_197+0x8>
    6d57:	0f b7 d8             	movzwl %ax,%ebx
    6d5a:	8b 85 c0 f5 ff ff    	mov    -0xa40(%rbp),%eax
    6d60:	44 0f bf e0          	movswl %ax,%r12d
    6d64:	0f b6 05 bd f2 00 00 	movzbl 0xf2bd(%rip),%eax        # 16028 <g_19>
    6d6b:	44 0f be e8          	movsbl %al,%r13d
    6d6f:	8b 85 b4 f5 ff ff    	mov    -0xa4c(%rbp),%eax
    6d75:	c1 e0 0d             	shl    $0xd,%eax
    6d78:	c1 f8 0d             	sar    $0xd,%eax
    6d7b:	89 c2                	mov    %eax,%edx
    6d7d:	0f b7 05 fc f2 00 00 	movzwl 0xf2fc(%rip),%eax        # 16080 <g_197+0x8>
    6d84:	0f b7 c0             	movzwl %ax,%eax
    6d87:	39 85 10 f6 ff ff    	cmp    %eax,-0x9f0(%rbp)
    6d8d:	0f 9f c0             	setg   %al
    6d90:	0f b6 c0             	movzbl %al,%eax
    6d93:	39 c2                	cmp    %eax,%edx
    6d95:	0f 9c c0             	setl   %al
    6d98:	0f b6 c0             	movzbl %al,%eax
    6d9b:	39 85 30 f6 ff ff    	cmp    %eax,-0x9d0(%rbp)
    6da1:	0f 9d c0             	setge  %al
    6da4:	44 0f b6 f0          	movzbl %al,%r14d
    6da8:	48 8b 85 98 f7 ff ff 	mov    -0x868(%rbp),%rax
    6daf:	48 85 c0             	test   %rax,%rax
    6db2:	0f 95 c0             	setne  %al
    6db5:	0f b6 c0             	movzbl %al,%eax
    6db8:	48 89 c7             	mov    %rax,%rdi
    6dbb:	e8 56 da ff ff       	callq  4816 <safe_unary_minus_func_int64_t_s>
    6dc0:	0f bf d0             	movswl %ax,%edx
    6dc3:	81 bd c0 f5 ff ff bd 	cmpl   $0x230578bd,-0xa40(%rbp)
    6dca:	78 05 23 
    6dcd:	0f 95 c0             	setne  %al
    6dd0:	0f b6 c0             	movzbl %al,%eax
    6dd3:	89 d6                	mov    %edx,%esi
    6dd5:	89 c7                	mov    %eax,%edi
    6dd7:	e8 19 d6 ff ff       	callq  43f5 <safe_mul_func_int16_t_s_s>
    6ddc:	89 c2                	mov    %eax,%edx
    6dde:	0f b6 85 b2 f5 ff ff 	movzbl -0xa4e(%rbp),%eax
    6de5:	c1 e0 03             	shl    $0x3,%eax
    6de8:	c0 f8 03             	sar    $0x3,%al
    6deb:	66 98                	cbtw   
    6ded:	66 39 c2             	cmp    %ax,%dx
    6df0:	0f 9c c0             	setl   %al
    6df3:	0f b6 c0             	movzbl %al,%eax
    6df6:	33 85 c0 f5 ff ff    	xor    -0xa40(%rbp),%eax
    6dfc:	89 c0                	mov    %eax,%eax
    6dfe:	48 23 85 a0 f6 ff ff 	and    -0x960(%rbp),%rax
    6e05:	49 39 c6             	cmp    %rax,%r14
    6e08:	0f 95 c0             	setne  %al
    6e0b:	0f b6 c0             	movzbl %al,%eax
    6e0e:	44 89 ee             	mov    %r13d,%esi
    6e11:	89 c7                	mov    %eax,%edi
    6e13:	e8 e7 d8 ff ff       	callq  46ff <safe_div_func_int32_t_s_s>
    6e18:	48 63 d0             	movslq %eax,%rdx
    6e1b:	0f b7 85 b0 f5 ff ff 	movzwl -0xa50(%rbp),%eax
    6e22:	0f b7 c0             	movzwl %ax,%eax
    6e25:	48 89 d6             	mov    %rdx,%rsi
    6e28:	48 89 c7             	mov    %rax,%rdi
    6e2b:	e8 1b e2 ff ff       	callq  504b <safe_sub_func_uint64_t_u_u>
    6e30:	48 8b 05 69 01 01 00 	mov    0x10169(%rip),%rax        # 16fa0 <g_467>
    6e37:	0f b7 00             	movzwl (%rax),%eax
    6e3a:	98                   	cwtl   
    6e3b:	44 89 e6             	mov    %r12d,%esi
    6e3e:	89 c7                	mov    %eax,%edi
    6e40:	e8 d1 d5 ff ff       	callq  4416 <safe_mod_func_int16_t_s_s>
    6e45:	89 de                	mov    %ebx,%esi
    6e47:	bf 00 00 00 00       	mov    $0x0,%edi
    6e4c:	e8 ec de ff ff       	callq  4d3d <safe_mul_func_uint16_t_u_u>
    6e51:	66 85 c0             	test   %ax,%ax
    6e54:	74 07                	je     6e5d <func_34+0x12f7>
    6e56:	ba 01 00 00 00       	mov    $0x1,%edx
    6e5b:	eb 05                	jmp    6e62 <func_34+0x12fc>
    6e5d:	ba 00 00 00 00       	mov    $0x0,%edx
    6e62:	0f b6 85 ba f5 ff ff 	movzbl -0xa46(%rbp),%eax
    6e69:	c1 e0 04             	shl    $0x4,%eax
    6e6c:	c0 f8 04             	sar    $0x4,%al
    6e6f:	89 c1                	mov    %eax,%ecx
    6e71:	89 d0                	mov    %edx,%eax
    6e73:	31 c8                	xor    %ecx,%eax
    6e75:	c1 e0 04             	shl    $0x4,%eax
    6e78:	c0 f8 04             	sar    $0x4,%al
    6e7b:	83 e0 0f             	and    $0xf,%eax
    6e7e:	89 c2                	mov    %eax,%edx
    6e80:	0f b6 85 ba f5 ff ff 	movzbl -0xa46(%rbp),%eax
    6e87:	83 e0 f0             	and    $0xfffffff0,%eax
    6e8a:	09 d0                	or     %edx,%eax
    6e8c:	88 85 ba f5 ff ff    	mov    %al,-0xa46(%rbp)
    6e92:	8b 05 94 f2 00 00    	mov    0xf294(%rip),%eax        # 1612c <g_911>
    6e98:	83 c0 01             	add    $0x1,%eax
    6e9b:	89 05 8b f2 00 00    	mov    %eax,0xf28b(%rip)        # 1612c <g_911>
    6ea1:	8b 05 85 f2 00 00    	mov    0xf285(%rip),%eax        # 1612c <g_911>
    6ea7:	85 c0                	test   %eax,%eax
    6ea9:	0f 8e 5c fe ff ff    	jle    6d0b <func_34+0x11a5>
    6eaf:	0f b7 05 5a 0f 01 00 	movzwl 0x10f5a(%rip),%eax        # 17e10 <g_191>
    6eb6:	0f b7 c0             	movzwl %ax,%eax
    6eb9:	0f b7 15 50 0f 01 00 	movzwl 0x10f50(%rip),%edx        # 17e10 <g_191>
    6ec0:	0f b7 d2             	movzwl %dx,%edx
    6ec3:	83 c2 01             	add    $0x1,%edx
    6ec6:	48 63 ca             	movslq %edx,%rcx
    6ec9:	48 63 d0             	movslq %eax,%rdx
    6ecc:	48 89 d0             	mov    %rdx,%rax
    6ecf:	48 01 c0             	add    %rax,%rax
    6ed2:	48 01 d0             	add    %rdx,%rax
    6ed5:	48 01 c0             	add    %rax,%rax
    6ed8:	48 01 c8             	add    %rcx,%rax
    6edb:	8b 84 85 20 f9 ff ff 	mov    -0x6e0(%rbp,%rax,4),%eax
    6ee2:	41 89 c4             	mov    %eax,%r12d
    6ee5:	66 c7 85 e6 f5 ff ff 	movw   $0xffff,-0xa1a(%rbp)
    6eec:	ff ff 
    6eee:	0f b7 05 1b 0f 01 00 	movzwl 0x10f1b(%rip),%eax        # 17e10 <g_191>
    6ef5:	0f b7 c0             	movzwl %ax,%eax
    6ef8:	0f b7 15 11 0f 01 00 	movzwl 0x10f11(%rip),%edx        # 17e10 <g_191>
    6eff:	0f b7 d2             	movzwl %dx,%edx
    6f02:	83 c2 01             	add    $0x1,%edx
    6f05:	48 63 ca             	movslq %edx,%rcx
    6f08:	48 63 d0             	movslq %eax,%rdx
    6f0b:	48 89 d0             	mov    %rdx,%rax
    6f0e:	48 01 c0             	add    %rax,%rax
    6f11:	48 01 d0             	add    %rdx,%rax
    6f14:	48 01 c0             	add    %rax,%rax
    6f17:	48 01 c8             	add    %rcx,%rax
    6f1a:	8b 9c 85 20 f9 ff ff 	mov    -0x6e0(%rbp,%rax,4),%ebx
    6f21:	48 8b 85 d8 f6 ff ff 	mov    -0x928(%rbp),%rax
    6f28:	48 8d 95 b0 f7 ff ff 	lea    -0x850(%rbp),%rdx
    6f2f:	48 83 c2 08          	add    $0x8,%rdx
    6f33:	48 89 10             	mov    %rdx,(%rax)
    6f36:	48 8b 85 d8 f6 ff ff 	mov    -0x928(%rbp),%rax
    6f3d:	48 8b 00             	mov    (%rax),%rax
    6f40:	48 39 85 b8 f6 ff ff 	cmp    %rax,-0x948(%rbp)
    6f47:	0f b7 85 b0 f5 ff ff 	movzwl -0xa50(%rbp),%eax
    6f4e:	0f b7 c0             	movzwl %ax,%eax
    6f51:	39 85 c0 f5 ff ff    	cmp    %eax,-0xa40(%rbp)
    6f57:	0f 92 c0             	setb   %al
    6f5a:	0f b6 d0             	movzbl %al,%edx
    6f5d:	48 8b 85 e0 f6 ff ff 	mov    -0x920(%rbp),%rax
    6f64:	89 10                	mov    %edx,(%rax)
    6f66:	48 8b 85 e0 f6 ff ff 	mov    -0x920(%rbp),%rax
    6f6d:	8b 00                	mov    (%rax),%eax
    6f6f:	66 89 85 b0 f5 ff ff 	mov    %ax,-0xa50(%rbp)
    6f76:	8b 85 c4 f5 ff ff    	mov    -0xa3c(%rbp),%eax
    6f7c:	be 01 00 00 00       	mov    $0x1,%esi
    6f81:	89 c7                	mov    %eax,%edi
    6f83:	e8 2e d6 ff ff       	callq  45b6 <safe_add_func_int32_t_s_s>
    6f88:	39 85 28 f6 ff ff    	cmp    %eax,-0x9d8(%rbp)
    6f8e:	0f 9e c0             	setle  %al
    6f91:	0f b6 c0             	movzbl %al,%eax
    6f94:	be b5 74 55 7e       	mov    $0x7e5574b5,%esi
    6f99:	89 c7                	mov    %eax,%edi
    6f9b:	e8 2c d7 ff ff       	callq  46cc <safe_mod_func_int32_t_s_s>
    6fa0:	be f8 ff ff ff       	mov    $0xfffffff8,%esi
    6fa5:	bf 01 00 00 00       	mov    $0x1,%edi
    6faa:	e8 21 df ff ff       	callq  4ed0 <safe_sub_func_uint32_t_u_u>
    6faf:	0f b7 c0             	movzwl %ax,%eax
    6fb2:	89 de                	mov    %ebx,%esi
    6fb4:	89 c7                	mov    %eax,%edi
    6fb6:	e8 4b de ff ff       	callq  4e06 <safe_lshift_func_uint16_t_u_u>
    6fbb:	0f b7 85 b0 f5 ff ff 	movzwl -0xa50(%rbp),%eax
    6fc2:	0f b7 c0             	movzwl %ax,%eax
    6fc5:	4c 89 e6             	mov    %r12,%rsi
    6fc8:	48 89 c7             	mov    %rax,%rdi
    6fcb:	e8 71 d8 ff ff       	callq  4841 <safe_add_func_int64_t_s_s>
    6fd0:	89 85 c0 f7 ff ff    	mov    %eax,-0x840(%rbp)
    6fd6:	80 bd e0 f5 ff ff 00 	cmpb   $0x0,-0xa20(%rbp)
    6fdd:	74 10                	je     6fef <func_34+0x1489>
    6fdf:	80 bd e0 f5 ff ff 00 	cmpb   $0x0,-0xa20(%rbp)
    6fe6:	74 07                	je     6fef <func_34+0x1489>
    6fe8:	b8 01 00 00 00       	mov    $0x1,%eax
    6fed:	eb 05                	jmp    6ff4 <func_34+0x148e>
    6fef:	b8 00 00 00 00       	mov    $0x0,%eax
    6ff4:	89 c2                	mov    %eax,%edx
    6ff6:	8b 85 50 f9 ff ff    	mov    -0x6b0(%rbp),%eax
    6ffc:	39 c2                	cmp    %eax,%edx
    6ffe:	0f 95 c0             	setne  %al
    7001:	0f b6 c0             	movzbl %al,%eax
    7004:	39 85 14 f6 ff ff    	cmp    %eax,-0x9ec(%rbp)
    700a:	0f 8e 81 04 00 00    	jle    7491 <func_34+0x192b>
    7010:	48 c7 85 f0 f6 ff ff 	movq   $0x1,-0x910(%rbp)
    7017:	01 00 00 00 
    701b:	48 8d 05 ff f0 00 00 	lea    0xf0ff(%rip),%rax        # 16121 <g_547>
    7022:	48 89 85 f8 f6 ff ff 	mov    %rax,-0x908(%rbp)
    7029:	c7 85 2c f6 ff ff 01 	movl   $0x1,-0x9d4(%rbp)
    7030:	00 00 00 
    7033:	48 8d 85 70 f6 ff ff 	lea    -0x990(%rbp),%rax
    703a:	48 89 85 60 fc ff ff 	mov    %rax,-0x3a0(%rbp)
    7041:	48 c7 85 68 fc ff ff 	movq   $0x0,-0x398(%rbp)
    7048:	00 00 00 00 
    704c:	48 8d 85 70 f6 ff ff 	lea    -0x990(%rbp),%rax
    7053:	48 89 85 70 fc ff ff 	mov    %rax,-0x390(%rbp)
    705a:	48 8d 85 70 f6 ff ff 	lea    -0x990(%rbp),%rax
    7061:	48 89 85 78 fc ff ff 	mov    %rax,-0x388(%rbp)
    7068:	48 c7 85 80 fc ff ff 	movq   $0x0,-0x380(%rbp)
    706f:	00 00 00 00 
    7073:	48 8d 85 70 f6 ff ff 	lea    -0x990(%rbp),%rax
    707a:	48 89 85 88 fc ff ff 	mov    %rax,-0x378(%rbp)
    7081:	48 8d 85 70 f6 ff ff 	lea    -0x990(%rbp),%rax
    7088:	48 89 85 90 fc ff ff 	mov    %rax,-0x370(%rbp)
    708f:	48 8d 05 42 15 01 00 	lea    0x11542(%rip),%rax        # 185d8 <g_796>
    7096:	48 89 85 00 f7 ff ff 	mov    %rax,-0x900(%rbp)
    709d:	48 c7 85 08 f7 ff ff 	movq   $0x0,-0x8f8(%rbp)
    70a4:	00 00 00 00 
    70a8:	48 8d 05 29 15 01 00 	lea    0x11529(%rip),%rax        # 185d8 <g_796>
    70af:	48 89 85 10 f7 ff ff 	mov    %rax,-0x8f0(%rbp)
    70b6:	48 8d 05 1b 15 01 00 	lea    0x1151b(%rip),%rax        # 185d8 <g_796>
    70bd:	48 89 85 18 f7 ff ff 	mov    %rax,-0x8e8(%rbp)
    70c4:	48 8d 05 0d 15 01 00 	lea    0x1150d(%rip),%rax        # 185d8 <g_796>
    70cb:	48 89 85 20 f7 ff ff 	mov    %rax,-0x8e0(%rbp)
    70d2:	48 c7 85 28 f7 ff ff 	movq   $0x0,-0x8d8(%rbp)
    70d9:	00 00 00 00 
    70dd:	4c 8b a5 70 f6 ff ff 	mov    -0x990(%rbp),%r12
    70e4:	8b 9d 2c f6 ff ff    	mov    -0x9d4(%rbp),%ebx
    70ea:	48 8b 85 c8 f5 ff ff 	mov    -0xa38(%rbp),%rax
    70f1:	0f b6 00             	movzbl (%rax),%eax
    70f4:	44 0f b6 e8          	movzbl %al,%r13d
    70f8:	8b 85 10 f6 ff ff    	mov    -0x9f0(%rbp),%eax
    70fe:	44 0f be f0          	movsbl %al,%r14d
    7102:	8b 85 c0 f5 ff ff    	mov    -0xa40(%rbp),%eax
    7108:	44 0f bf f8          	movswl %ax,%r15d
    710c:	0f b6 85 b2 f5 ff ff 	movzbl -0xa4e(%rbp),%eax
    7113:	c1 e0 03             	shl    $0x3,%eax
    7116:	c0 f8 03             	sar    $0x3,%al
    7119:	66 98                	cbtw   
    711b:	66 89 85 a8 f5 ff ff 	mov    %ax,-0xa58(%rbp)
    7122:	0f b6 85 b2 f5 ff ff 	movzbl -0xa4e(%rbp),%eax
    7129:	c1 e0 03             	shl    $0x3,%eax
    712c:	c0 f8 03             	sar    $0x3,%al
    712f:	0f be c0             	movsbl %al,%eax
    7132:	89 85 a4 f5 ff ff    	mov    %eax,-0xa5c(%rbp)
    7138:	48 8b 85 e0 f6 ff ff 	mov    -0x920(%rbp),%rax
    713f:	8b 00                	mov    (%rax),%eax
    7141:	8d 50 ff             	lea    -0x1(%rax),%edx
    7144:	48 8b 85 e0 f6 ff ff 	mov    -0x920(%rbp),%rax
    714b:	89 10                	mov    %edx,(%rax)
    714d:	0f b7 8d b0 f5 ff ff 	movzwl -0xa50(%rbp),%ecx
    7154:	66 89 8d a0 f5 ff ff 	mov    %cx,-0xa60(%rbp)
    715b:	0f b7 85 b8 f5 ff ff 	movzwl -0xa48(%rbp),%eax
    7162:	0f b7 d0             	movzwl %ax,%edx
    7165:	8b 85 c4 f5 ff ff    	mov    -0xa3c(%rbp),%eax
    716b:	0f b7 c0             	movzwl %ax,%eax
    716e:	89 d6                	mov    %edx,%esi
    7170:	89 c7                	mov    %eax,%edi
    7172:	e8 e5 db ff ff       	callq  4d5c <safe_mod_func_uint16_t_u_u>
    7177:	66 39 85 a0 f5 ff ff 	cmp    %ax,-0xa60(%rbp)
    717e:	0f 93 c0             	setae  %al
    7181:	0f b6 d0             	movzbl %al,%edx
    7184:	48 8b 85 e0 f6 ff ff 	mov    -0x920(%rbp),%rax
    718b:	89 10                	mov    %edx,(%rax)
    718d:	b8 00 00 00 00       	mov    $0x0,%eax
    7192:	0f b7 d0             	movzwl %ax,%edx
    7195:	8b 85 c4 f5 ff ff    	mov    -0xa3c(%rbp),%eax
    719b:	66 89 05 76 ef 00 00 	mov    %ax,0xef76(%rip)        # 16118 <g_517+0x8>
    71a2:	0f b7 05 6f ef 00 00 	movzwl 0xef6f(%rip),%eax        # 16118 <g_517+0x8>
    71a9:	0f b7 c0             	movzwl %ax,%eax
    71ac:	89 d6                	mov    %edx,%esi
    71ae:	89 c7                	mov    %eax,%edi
    71b0:	e8 88 db ff ff       	callq  4d3d <safe_mul_func_uint16_t_u_u>
    71b5:	66 85 c0             	test   %ax,%ax
    71b8:	0f 94 c2             	sete   %dl
    71bb:	48 8b 05 be fd 00 00 	mov    0xfdbe(%rip),%rax        # 16f80 <g_18>
    71c2:	88 10                	mov    %dl,(%rax)
    71c4:	0f b6 00             	movzbl (%rax),%eax
    71c7:	0f be c0             	movsbl %al,%eax
    71ca:	8b b5 a4 f5 ff ff    	mov    -0xa5c(%rbp),%esi
    71d0:	89 c7                	mov    %eax,%edi
    71d2:	e8 93 d0 ff ff       	callq  426a <safe_div_func_int8_t_s_s>
    71d7:	8b 85 c4 f5 ff ff    	mov    -0xa3c(%rbp),%eax
    71dd:	0f b7 d0             	movzwl %ax,%edx
    71e0:	0f b7 85 b0 f5 ff ff 	movzwl -0xa50(%rbp),%eax
    71e7:	0f b7 c0             	movzwl %ax,%eax
    71ea:	89 d6                	mov    %edx,%esi
    71ec:	89 c7                	mov    %eax,%edi
    71ee:	e8 69 db ff ff       	callq  4d5c <safe_mod_func_uint16_t_u_u>
    71f3:	8b 85 b4 f5 ff ff    	mov    -0xa4c(%rbp),%eax
    71f9:	25 ff ff 07 00       	and    $0x7ffff,%eax
    71fe:	83 f8 01             	cmp    $0x1,%eax
    7201:	74 12                	je     7215 <func_34+0x16af>
    7203:	0f b6 85 aa f7 ff ff 	movzbl -0x856(%rbp),%eax
    720a:	84 c0                	test   %al,%al
    720c:	74 07                	je     7215 <func_34+0x16af>
    720e:	b8 01 00 00 00       	mov    $0x1,%eax
    7213:	eb 05                	jmp    721a <func_34+0x16b4>
    7215:	b8 00 00 00 00       	mov    $0x0,%eax
    721a:	0f b6 d0             	movzbl %al,%edx
    721d:	8b 85 c4 f5 ff ff    	mov    -0xa3c(%rbp),%eax
    7223:	48 89 85 f0 f6 ff ff 	mov    %rax,-0x910(%rbp)
    722a:	48 8b 8d f0 f6 ff ff 	mov    -0x910(%rbp),%rcx
    7231:	48 8b 85 f8 f6 ff ff 	mov    -0x908(%rbp),%rax
    7238:	0f b6 00             	movzbl (%rax),%eax
    723b:	89 c6                	mov    %eax,%esi
    723d:	89 c8                	mov    %ecx,%eax
    723f:	31 f0                	xor    %esi,%eax
    7241:	89 c1                	mov    %eax,%ecx
    7243:	48 8b 85 f8 f6 ff ff 	mov    -0x908(%rbp),%rax
    724a:	88 08                	mov    %cl,(%rax)
    724c:	48 8b 85 f8 f6 ff ff 	mov    -0x908(%rbp),%rax
    7253:	0f b6 00             	movzbl (%rax),%eax
    7256:	0f b6 c0             	movzbl %al,%eax
    7259:	89 d6                	mov    %edx,%esi
    725b:	89 c7                	mov    %eax,%edi
    725d:	e8 16 d9 ff ff       	callq  4b78 <safe_sub_func_uint8_t_u_u>
    7262:	0f b6 c0             	movzbl %al,%eax
    7265:	0b 85 2c f6 ff ff    	or     -0x9d4(%rbp),%eax
    726b:	89 c2                	mov    %eax,%edx
    726d:	8b 05 f5 ef 00 00    	mov    0xeff5(%rip),%eax        # 16268 <g_1135>
    7273:	39 c2                	cmp    %eax,%edx
    7275:	0f 9f c0             	setg   %al
    7278:	0f b6 c0             	movzbl %al,%eax
    727b:	0f b7 95 a8 f5 ff ff 	movzwl -0xa58(%rbp),%edx
    7282:	31 c2                	xor    %eax,%edx
    7284:	8b 85 b4 f5 ff ff    	mov    -0xa4c(%rbp),%eax
    728a:	c1 e0 0d             	shl    $0xd,%eax
    728d:	c1 f8 0d             	sar    $0xd,%eax
    7290:	21 c2                	and    %eax,%edx
    7292:	8b 85 2c f6 ff ff    	mov    -0x9d4(%rbp),%eax
    7298:	31 d0                	xor    %edx,%eax
    729a:	98                   	cwtl   
    729b:	44 89 fe             	mov    %r15d,%esi
    729e:	89 c7                	mov    %eax,%edi
    72a0:	e8 0e d1 ff ff       	callq  43b3 <safe_add_func_int16_t_s_s>
    72a5:	0f b7 85 b8 f5 ff ff 	movzwl -0xa48(%rbp),%eax
    72ac:	0f b7 c0             	movzwl %ax,%eax
    72af:	89 c6                	mov    %eax,%esi
    72b1:	bf fa ff 00 00       	mov    $0xfffa,%edi
    72b6:	e8 82 da ff ff       	callq  4d3d <safe_mul_func_uint16_t_u_u>
    72bb:	0f be c0             	movsbl %al,%eax
    72be:	44 89 f6             	mov    %r14d,%esi
    72c1:	89 c7                	mov    %eax,%edi
    72c3:	e8 a2 cf ff ff       	callq  426a <safe_div_func_int8_t_s_s>
    72c8:	0f be c0             	movsbl %al,%eax
    72cb:	be 0a 00 00 00       	mov    $0xa,%esi
    72d0:	89 c7                	mov    %eax,%edi
    72d2:	e8 53 d2 ff ff       	callq  452a <safe_rshift_func_int16_t_s_s>
    72d7:	0f b6 c0             	movzbl %al,%eax
    72da:	44 89 ee             	mov    %r13d,%esi
    72dd:	89 c7                	mov    %eax,%edi
    72df:	e8 76 d8 ff ff       	callq  4b5a <safe_add_func_uint8_t_u_u>
    72e4:	0f b6 c0             	movzbl %al,%eax
    72e7:	48 8d 0d 6a ef 00 00 	lea    0xef6a(%rip),%rcx        # 16258 <g_1123>
    72ee:	4c 89 e2             	mov    %r12,%rdx
    72f1:	89 de                	mov    %ebx,%esi
    72f3:	89 c7                	mov    %eax,%edi
    72f5:	e8 d6 27 00 00       	callq  9ad0 <func_48>
    72fa:	48 89 85 70 f6 ff ff 	mov    %rax,-0x990(%rbp)
    7301:	48 8b 9d c8 f5 ff ff 	mov    -0xa38(%rbp),%rbx
    7308:	0f b6 85 ba f5 ff ff 	movzbl -0xa46(%rbp),%eax
    730f:	c1 e0 04             	shl    $0x4,%eax
    7312:	c0 f8 04             	sar    $0x4,%al
    7315:	0f be d0             	movsbl %al,%edx
    7318:	48 8b 85 e0 f6 ff ff 	mov    -0x920(%rbp),%rax
    731f:	89 10                	mov    %edx,(%rax)
    7321:	48 8b 85 e0 f6 ff ff 	mov    -0x920(%rbp),%rax
    7328:	8b 30                	mov    (%rax),%esi
    732a:	48 8b 05 6f fc 00 00 	mov    0xfc6f(%rip),%rax        # 16fa0 <g_467>
    7331:	0f b7 00             	movzwl (%rax),%eax
    7334:	98                   	cwtl   
    7335:	48 8b 95 90 f6 ff ff 	mov    -0x970(%rbp),%rdx
    733c:	48 8d 0d e5 ec 00 00 	lea    0xece5(%rip),%rcx        # 16028 <g_19>
    7343:	89 c7                	mov    %eax,%edi
    7345:	e8 86 27 00 00       	callq  9ad0 <func_48>
    734a:	48 89 c2             	mov    %rax,%rdx
    734d:	48 8b 05 14 ee 00 00 	mov    0xee14(%rip),%rax        # 16168 <g_1070>
    7354:	89 c6                	mov    %eax,%esi
    7356:	8b 85 c4 f5 ff ff    	mov    -0xa3c(%rbp),%eax
    735c:	98                   	cwtl   
    735d:	48 8d 0d c4 ec 00 00 	lea    0xecc4(%rip),%rcx        # 16028 <g_19>
    7364:	89 c7                	mov    %eax,%edi
    7366:	e8 65 27 00 00       	callq  9ad0 <func_48>
    736b:	48 89 c2             	mov    %rax,%rdx
    736e:	48 8b 05 eb ee 00 00 	mov    0xeeeb(%rip),%rax        # 16260 <g_1134>
    7375:	89 c6                	mov    %eax,%esi
    7377:	8b 85 b4 f5 ff ff    	mov    -0xa4c(%rbp),%eax
    737d:	c1 e0 0d             	shl    $0xd,%eax
    7380:	c1 f8 0d             	sar    $0xd,%eax
    7383:	98                   	cwtl   
    7384:	48 89 d9             	mov    %rbx,%rcx
    7387:	89 c7                	mov    %eax,%edi
    7389:	e8 42 27 00 00       	callq  9ad0 <func_48>
    738e:	48 89 85 90 f6 ff ff 	mov    %rax,-0x970(%rbp)
    7395:	0f b7 85 b8 f5 ff ff 	movzwl -0xa48(%rbp),%eax
    739c:	0f b7 d0             	movzwl %ax,%edx
    739f:	48 8b 85 b0 f6 ff ff 	mov    -0x950(%rbp),%rax
    73a6:	48 89 10             	mov    %rdx,(%rax)
    73a9:	48 8b 85 b0 f6 ff ff 	mov    -0x950(%rbp),%rax
    73b0:	48 8b 18             	mov    (%rax),%rbx
    73b3:	48 8b 05 ae ed 00 00 	mov    0xedae(%rip),%rax        # 16168 <g_1070>
    73ba:	89 c6                	mov    %eax,%esi
    73bc:	bf 00 00 00 00       	mov    $0x0,%edi
    73c1:	e8 37 db ff ff       	callq  4efd <safe_mod_func_uint32_t_u_u>
    73c6:	0f b7 c0             	movzwl %ax,%eax
    73c9:	48 c7 85 28 f7 ff ff 	movq   $0x0,-0x8d8(%rbp)
    73d0:	00 00 00 00 
    73d4:	89 c6                	mov    %eax,%esi
    73d6:	bf 01 00 00 00       	mov    $0x1,%edi
    73db:	e8 5d d9 ff ff       	callq  4d3d <safe_mul_func_uint16_t_u_u>
    73e0:	0f be c0             	movsbl %al,%eax
    73e3:	89 c7                	mov    %eax,%edi
    73e5:	e8 d5 cd ff ff       	callq  41bf <safe_unary_minus_func_int8_t_s>
    73ea:	48 0f be c0          	movsbq %al,%rax
    73ee:	48 be 3f 59 fc dd 07 	movabs $0xa85ca207ddfc593f,%rsi
    73f5:	a2 5c a8 
    73f8:	48 89 c7             	mov    %rax,%rdi
    73fb:	e8 41 d4 ff ff       	callq  4841 <safe_add_func_int64_t_s_s>
    7400:	89 c2                	mov    %eax,%edx
    7402:	48 8b 85 f8 f6 ff ff 	mov    -0x908(%rbp),%rax
    7409:	88 10                	mov    %dl,(%rax)
    740b:	48 8b 85 f8 f6 ff ff 	mov    -0x908(%rbp),%rax
    7412:	0f b6 00             	movzbl (%rax),%eax
    7415:	84 c0                	test   %al,%al
    7417:	0f 94 c0             	sete   %al
    741a:	0f b6 c0             	movzbl %al,%eax
    741d:	48 39 c3             	cmp    %rax,%rbx
    7420:	0f 95 c0             	setne  %al
    7423:	0f b6 d0             	movzbl %al,%edx
    7426:	0f b6 85 b2 f5 ff ff 	movzbl -0xa4e(%rbp),%eax
    742d:	c1 e0 03             	shl    $0x3,%eax
    7430:	c0 f8 03             	sar    $0x3,%al
    7433:	0f be c0             	movsbl %al,%eax
    7436:	39 c2                	cmp    %eax,%edx
    7438:	0f 9d c0             	setge  %al
    743b:	0f b6 d0             	movzbl %al,%edx
    743e:	8b 85 b4 f5 ff ff    	mov    -0xa4c(%rbp),%eax
    7444:	c1 e0 0d             	shl    $0xd,%eax
    7447:	c1 f8 0d             	sar    $0xd,%eax
    744a:	39 c2                	cmp    %eax,%edx
    744c:	0f 9f c0             	setg   %al
    744f:	0f b6 c0             	movzbl %al,%eax
    7452:	31 85 f4 f5 ff ff    	xor    %eax,-0xa0c(%rbp)
    7458:	0f b6 85 b2 f5 ff ff 	movzbl -0xa4e(%rbp),%eax
    745f:	c1 e0 03             	shl    $0x3,%eax
    7462:	c0 f8 03             	sar    $0x3,%al
    7465:	89 c2                	mov    %eax,%edx
    7467:	8b 85 cc f7 ff ff    	mov    -0x834(%rbp),%eax
    746d:	09 d0                	or     %edx,%eax
    746f:	c1 e0 03             	shl    $0x3,%eax
    7472:	c0 f8 03             	sar    $0x3,%al
    7475:	83 e0 1f             	and    $0x1f,%eax
    7478:	89 c2                	mov    %eax,%edx
    747a:	0f b6 85 b2 f5 ff ff 	movzbl -0xa4e(%rbp),%eax
    7481:	83 e0 e0             	and    $0xffffffe0,%eax
    7484:	09 d0                	or     %edx,%eax
    7486:	88 85 b2 f5 ff ff    	mov    %al,-0xa4e(%rbp)
    748c:	e9 71 02 00 00       	jmpq   7702 <func_34+0x1b9c>
    7491:	c6 85 e1 f5 ff ff 92 	movb   $0x92,-0xa1f(%rbp)
    7498:	48 8d 05 81 16 01 00 	lea    0x11681(%rip),%rax        # 18b20 <g_1554>
    749f:	48 89 85 e8 f6 ff ff 	mov    %rax,-0x918(%rbp)
    74a6:	8b 95 50 f9 ff ff    	mov    -0x6b0(%rbp),%edx
    74ac:	8b 05 72 ec 00 00    	mov    0xec72(%rip),%eax        # 16124 <g_609>
    74b2:	89 d6                	mov    %edx,%esi
    74b4:	89 c7                	mov    %eax,%edi
    74b6:	e8 15 da ff ff       	callq  4ed0 <safe_sub_func_uint32_t_u_u>
    74bb:	41 89 c4             	mov    %eax,%r12d
    74be:	48 8b 05 db fa 00 00 	mov    0xfadb(%rip),%rax        # 16fa0 <g_467>
    74c5:	0f b7 00             	movzwl (%rax),%eax
    74c8:	98                   	cwtl   
    74c9:	be 3f 33 00 00       	mov    $0x333f,%esi
    74ce:	89 c7                	mov    %eax,%edi
    74d0:	e8 80 cf ff ff       	callq  4455 <safe_div_func_int16_t_s_s>
    74d5:	0f be d8             	movsbl %al,%ebx
    74d8:	0f b7 85 b0 f5 ff ff 	movzwl -0xa50(%rbp),%eax
    74df:	66 85 c0             	test   %ax,%ax
    74e2:	75 0c                	jne    74f0 <func_34+0x198a>
    74e4:	0f b7 05 8d eb 00 00 	movzwl 0xeb8d(%rip),%eax        # 16078 <g_197>
    74eb:	66 85 c0             	test   %ax,%ax
    74ee:	74 07                	je     74f7 <func_34+0x1991>
    74f0:	b8 01 00 00 00       	mov    $0x1,%eax
    74f5:	eb 05                	jmp    74fc <func_34+0x1996>
    74f7:	b8 00 00 00 00       	mov    $0x0,%eax
    74fc:	48 63 d0             	movslq %eax,%rdx
    74ff:	8b 85 10 f6 ff ff    	mov    -0x9f0(%rbp),%eax
    7505:	48 98                	cltq   
    7507:	48 89 d6             	mov    %rdx,%rsi
    750a:	48 89 c7             	mov    %rax,%rdi
    750d:	e8 a2 d4 ff ff       	callq  49b4 <safe_mod_func_int64_t_s_s>
    7512:	0f be c0             	movsbl %al,%eax
    7515:	89 de                	mov    %ebx,%esi
    7517:	89 c7                	mov    %eax,%edi
    7519:	e8 f4 cc ff ff       	callq  4212 <safe_mul_func_int8_t_s_s>
    751e:	0f be c0             	movsbl %al,%eax
    7521:	44 89 e6             	mov    %r12d,%esi
    7524:	89 c7                	mov    %eax,%edi
    7526:	e8 c3 cd ff ff       	callq  42ee <safe_lshift_func_int8_t_s_u>
    752b:	89 c2                	mov    %eax,%edx
    752d:	0f b6 85 b2 f5 ff ff 	movzbl -0xa4e(%rbp),%eax
    7534:	c1 e0 03             	shl    $0x3,%eax
    7537:	c0 f8 03             	sar    $0x3,%al
    753a:	09 d0                	or     %edx,%eax
    753c:	c1 e0 03             	shl    $0x3,%eax
    753f:	c0 f8 03             	sar    $0x3,%al
    7542:	83 e0 1f             	and    $0x1f,%eax
    7545:	89 c2                	mov    %eax,%edx
    7547:	0f b6 85 b2 f5 ff ff 	movzbl -0xa4e(%rbp),%eax
    754e:	83 e0 e0             	and    $0xffffffe0,%eax
    7551:	09 d0                	or     %edx,%eax
    7553:	88 85 b2 f5 ff ff    	mov    %al,-0xa4e(%rbp)
    7559:	48 8b 85 58 fb ff ff 	mov    -0x4a8(%rbp),%rax
    7560:	48 89 85 d8 f8 ff ff 	mov    %rax,-0x728(%rbp)
    7567:	48 8b 85 c8 f5 ff ff 	mov    -0xa38(%rbp),%rax
    756e:	0f b6 00             	movzbl (%rax),%eax
    7571:	0f b6 d8             	movzbl %al,%ebx
    7574:	48 8b 85 c8 f5 ff ff 	mov    -0xa38(%rbp),%rax
    757b:	0f b6 00             	movzbl (%rax),%eax
    757e:	44 0f be e0          	movsbl %al,%r12d
    7582:	8b 85 c0 f7 ff ff    	mov    -0x840(%rbp),%eax
    7588:	48 63 d0             	movslq %eax,%rdx
    758b:	0f be 85 e1 f5 ff ff 	movsbl -0xa1f(%rbp),%eax
    7592:	f7 d0                	not    %eax
    7594:	89 c6                	mov    %eax,%esi
    7596:	0f b6 85 ba f5 ff ff 	movzbl -0xa46(%rbp),%eax
    759d:	c1 e0 04             	shl    $0x4,%eax
    75a0:	c0 f8 04             	sar    $0x4,%al
    75a3:	0f be c0             	movsbl %al,%eax
    75a6:	0f b6 8d ba f5 ff ff 	movzbl -0xa46(%rbp),%ecx
    75ad:	83 e1 0f             	and    $0xf,%ecx
    75b0:	84 c9                	test   %cl,%cl
    75b2:	74 07                	je     75bb <func_34+0x1a55>
    75b4:	b9 01 00 00 00       	mov    $0x1,%ecx
    75b9:	eb 05                	jmp    75c0 <func_34+0x1a5a>
    75bb:	b9 00 00 00 00       	mov    $0x0,%ecx
    75c0:	21 c8                	and    %ecx,%eax
    75c2:	09 f0                	or     %esi,%eax
    75c4:	48 98                	cltq   
    75c6:	48 89 d6             	mov    %rdx,%rsi
    75c9:	48 89 c7             	mov    %rax,%rdi
    75cc:	e8 5d da ff ff       	callq  502e <safe_add_func_uint64_t_u_u>
    75d1:	0f b7 d0             	movzwl %ax,%edx
    75d4:	8b 85 c0 f5 ff ff    	mov    -0xa40(%rbp),%eax
    75da:	0f b7 c0             	movzwl %ax,%eax
    75dd:	89 d6                	mov    %edx,%esi
    75df:	89 c7                	mov    %eax,%edi
    75e1:	e8 57 d7 ff ff       	callq  4d3d <safe_mul_func_uint16_t_u_u>
    75e6:	0f be c0             	movsbl %al,%eax
    75e9:	44 89 e6             	mov    %r12d,%esi
    75ec:	89 c7                	mov    %eax,%edi
    75ee:	e8 42 cd ff ff       	callq  4335 <safe_rshift_func_int8_t_s_s>
    75f3:	0f be c0             	movsbl %al,%eax
    75f6:	be 02 00 00 00       	mov    $0x2,%esi
    75fb:	89 c7                	mov    %eax,%edi
    75fd:	e8 33 cd ff ff       	callq  4335 <safe_rshift_func_int8_t_s_s>
    7602:	66 98                	cbtw   
    7604:	0f b7 c0             	movzwl %ax,%eax
    7607:	be 01 00 00 00       	mov    $0x1,%esi
    760c:	89 c7                	mov    %eax,%edi
    760e:	e8 67 d8 ff ff       	callq  4e7a <safe_rshift_func_uint16_t_u_u>
    7613:	89 de                	mov    %ebx,%esi
    7615:	bf 01 00 00 00       	mov    $0x1,%edi
    761a:	e8 59 d5 ff ff       	callq  4b78 <safe_sub_func_uint8_t_u_u>
    761f:	0f b6 d0             	movzbl %al,%edx
    7622:	48 8b 85 c8 f5 ff ff 	mov    -0xa38(%rbp),%rax
    7629:	0f b6 00             	movzbl (%rax),%eax
    762c:	0f be c0             	movsbl %al,%eax
    762f:	09 d0                	or     %edx,%eax
    7631:	89 c2                	mov    %eax,%edx
    7633:	8b 05 07 eb 00 00    	mov    0xeb07(%rip),%eax        # 16140 <g_913>
    7639:	89 d6                	mov    %edx,%esi
    763b:	89 c7                	mov    %eax,%edi
    763d:	e8 8e d8 ff ff       	callq  4ed0 <safe_sub_func_uint32_t_u_u>
    7642:	c6 05 0f ec 00 00 42 	movb   $0x42,0xec0f(%rip)        # 16258 <g_1123>
    7649:	0f b6 05 08 ec 00 00 	movzbl 0xec08(%rip),%eax        # 16258 <g_1123>
    7650:	0f be d0             	movsbl %al,%edx
    7653:	48 8b 05 26 f9 00 00 	mov    0xf926(%rip),%rax        # 16f80 <g_18>
    765a:	0f b6 30             	movzbl (%rax),%esi
    765d:	48 8b 85 c8 f5 ff ff 	mov    -0xa38(%rbp),%rax
    7664:	0f b6 08             	movzbl (%rax),%ecx
    7667:	48 8b 05 12 f9 00 00 	mov    0xf912(%rip),%rax        # 16f80 <g_18>
    766e:	31 f1                	xor    %esi,%ecx
    7670:	88 08                	mov    %cl,(%rax)
    7672:	0f b6 00             	movzbl (%rax),%eax
    7675:	0f be c0             	movsbl %al,%eax
    7678:	89 d6                	mov    %edx,%esi
    767a:	89 c7                	mov    %eax,%edi
    767c:	e8 53 cb ff ff       	callq  41d4 <safe_add_func_int8_t_s_s>
    7681:	48 0f be d0          	movsbq %al,%rdx
    7685:	0f b7 85 b0 f5 ff ff 	movzwl -0xa50(%rbp),%eax
    768c:	0f b7 c0             	movzwl %ax,%eax
    768f:	48 89 d6             	mov    %rdx,%rsi
    7692:	48 89 c7             	mov    %rax,%rdi
    7695:	e8 b1 d9 ff ff       	callq  504b <safe_sub_func_uint64_t_u_u>
    769a:	0f b6 85 e1 f5 ff ff 	movzbl -0xa1f(%rbp),%eax
    76a1:	c1 e0 03             	shl    $0x3,%eax
    76a4:	c0 f8 03             	sar    $0x3,%al
    76a7:	83 e0 1f             	and    $0x1f,%eax
    76aa:	89 c2                	mov    %eax,%edx
    76ac:	0f b6 85 b2 f5 ff ff 	movzbl -0xa4e(%rbp),%eax
    76b3:	83 e0 e0             	and    $0xffffffe0,%eax
    76b6:	09 d0                	or     %edx,%eax
    76b8:	88 85 b2 f5 ff ff    	mov    %al,-0xa4e(%rbp)
    76be:	48 8b 85 80 f6 ff ff 	mov    -0x980(%rbp),%rax
    76c5:	48 8b 95 e8 f6 ff ff 	mov    -0x918(%rbp),%rdx
    76cc:	48 89 10             	mov    %rdx,(%rax)
    76cf:	48 8b 10             	mov    (%rax),%rdx
    76d2:	48 8b 85 38 f8 ff ff 	mov    -0x7c8(%rbp),%rax
    76d9:	48 39 c2             	cmp    %rax,%rdx
    76dc:	0f 95 c0             	setne  %al
    76df:	0f b6 c0             	movzbl %al,%eax
    76e2:	c1 e0 0d             	shl    $0xd,%eax
    76e5:	c1 f8 0d             	sar    $0xd,%eax
    76e8:	25 ff ff 07 00       	and    $0x7ffff,%eax
    76ed:	89 c2                	mov    %eax,%edx
    76ef:	8b 85 b4 f5 ff ff    	mov    -0xa4c(%rbp),%eax
    76f5:	25 00 00 f8 ff       	and    $0xfff80000,%eax
    76fa:	09 d0                	or     %edx,%eax
    76fc:	89 85 b4 f5 ff ff    	mov    %eax,-0xa4c(%rbp)
    7702:	8b 05 1c ea 00 00    	mov    0xea1c(%rip),%eax        # 16124 <g_609>
    7708:	83 c0 01             	add    $0x1,%eax
    770b:	89 05 13 ea 00 00    	mov    %eax,0xea13(%rip)        # 16124 <g_609>
    7711:	8b 05 0d ea 00 00    	mov    0xea0d(%rip),%eax        # 16124 <g_609>
    7717:	83 f8 03             	cmp    $0x3,%eax
    771a:	0f 86 2a f5 ff ff    	jbe    6c4a <func_34+0x10e4>
    7720:	0f b7 05 e9 06 01 00 	movzwl 0x106e9(%rip),%eax        # 17e10 <g_191>
    7727:	83 c0 01             	add    $0x1,%eax
    772a:	66 89 05 df 06 01 00 	mov    %ax,0x106df(%rip)        # 17e10 <g_191>
    7731:	0f b7 05 d8 06 01 00 	movzwl 0x106d8(%rip),%eax        # 17e10 <g_191>
    7738:	66 83 f8 03          	cmp    $0x3,%ax
    773c:	0f 86 98 f3 ff ff    	jbe    6ada <func_34+0xf74>
    7742:	eb 04                	jmp    7748 <func_34+0x1be2>
    7744:	90                   	nop
    7745:	eb 01                	jmp    7748 <func_34+0x1be2>
    7747:	90                   	nop
    7748:	0f b6 85 b2 f5 ff ff 	movzbl -0xa4e(%rbp),%eax
    774f:	83 e0 e0             	and    $0xffffffe0,%eax
    7752:	83 c8 17             	or     $0x17,%eax
    7755:	88 85 b2 f5 ff ff    	mov    %al,-0xa4e(%rbp)
    775b:	66 c7 05 b4 e9 00 00 	movw   $0x0,0xe9b4(%rip)        # 16118 <g_517+0x8>
    7762:	00 00 
    7764:	e9 cb 01 00 00       	jmpq   7934 <func_34+0x1dce>
    7769:	c6 85 e3 f5 ff ff 01 	movb   $0x1,-0xa1d(%rbp)
    7770:	c7 85 64 f6 ff ff 68 	movl   $0xb4bd0168,-0x99c(%rbp)
    7777:	01 bd b4 
    777a:	c7 85 04 f6 ff ff 00 	movl   $0x0,-0x9fc(%rbp)
    7781:	00 00 00 
    7784:	eb 1e                	jmp    77a4 <func_34+0x1c3e>
    7786:	8b 85 04 f6 ff ff    	mov    -0x9fc(%rbp),%eax
    778c:	48 98                	cltq   
    778e:	48 8d 15 63 e9 00 00 	lea    0xe963(%rip),%rdx        # 160f8 <g_300>
    7795:	48 89 94 c5 60 fc ff 	mov    %rdx,-0x3a0(%rbp,%rax,8)
    779c:	ff 
    779d:	83 85 04 f6 ff ff 01 	addl   $0x1,-0x9fc(%rbp)
    77a4:	83 bd 04 f6 ff ff 01 	cmpl   $0x1,-0x9fc(%rbp)
    77ab:	7e d9                	jle    7786 <func_34+0x1c20>
    77ad:	0f b7 85 b8 f5 ff ff 	movzwl -0xa48(%rbp),%eax
    77b4:	0f b7 d8             	movzwl %ax,%ebx
    77b7:	0f b7 85 b0 f5 ff ff 	movzwl -0xa50(%rbp),%eax
    77be:	44 0f b7 e0          	movzwl %ax,%r12d
    77c2:	48 8b 05 b7 f7 00 00 	mov    0xf7b7(%rip),%rax        # 16f80 <g_18>
    77c9:	0f b6 00             	movzbl (%rax),%eax
    77cc:	44 0f b6 e8          	movzbl %al,%r13d
    77d0:	44 0f be bd e3 f5 ff 	movsbl -0xa1d(%rbp),%r15d
    77d7:	ff 
    77d8:	0f b6 05 9b e8 00 00 	movzbl 0xe89b(%rip),%eax        # 1607a <g_197+0x2>
    77df:	c1 e0 03             	shl    $0x3,%eax
    77e2:	c0 f8 03             	sar    $0x3,%al
    77e5:	44 0f be f0          	movsbl %al,%r14d
    77e9:	8b 85 50 f9 ff ff    	mov    -0x6b0(%rbp),%eax
    77ef:	89 c0                	mov    %eax,%eax
    77f1:	48 89 85 a8 f5 ff ff 	mov    %rax,-0xa58(%rbp)
    77f8:	48 8b 15 a1 f7 00 00 	mov    0xf7a1(%rip),%rdx        # 16fa0 <g_467>
    77ff:	48 8b 05 9a f7 00 00 	mov    0xf79a(%rip),%rax        # 16fa0 <g_467>
    7806:	0f b7 12             	movzwl (%rdx),%edx
    7809:	66 89 10             	mov    %dx,(%rax)
    780c:	0f b7 00             	movzwl (%rax),%eax
    780f:	0f bf d0             	movswl %ax,%edx
    7812:	83 bd 64 f6 ff ff 00 	cmpl   $0x0,-0x99c(%rbp)
    7819:	74 10                	je     782b <func_34+0x1cc5>
    781b:	83 bd 64 f6 ff ff 00 	cmpl   $0x0,-0x99c(%rbp)
    7822:	74 07                	je     782b <func_34+0x1cc5>
    7824:	b8 01 00 00 00       	mov    $0x1,%eax
    7829:	eb 05                	jmp    7830 <func_34+0x1cca>
    782b:	b8 00 00 00 00       	mov    $0x0,%eax
    7830:	33 85 c0 f5 ff ff    	xor    -0xa40(%rbp),%eax
    7836:	39 c2                	cmp    %eax,%edx
    7838:	0f 96 c0             	setbe  %al
    783b:	0f b6 c0             	movzbl %al,%eax
    783e:	be 00 00 00 00       	mov    $0x0,%esi
    7843:	89 c7                	mov    %eax,%edi
    7845:	e8 97 cc ff ff       	callq  44e1 <safe_lshift_func_int16_t_s_u>
    784a:	48 0f bf c0          	movswq %ax,%rax
    784e:	48 8b b5 a8 f5 ff ff 	mov    -0xa58(%rbp),%rsi
    7855:	48 89 c7             	mov    %rax,%rdi
    7858:	e8 23 d8 ff ff       	callq  5080 <safe_mod_func_uint64_t_u_u>
    785d:	48 83 f8 4a          	cmp    $0x4a,%rax
    7861:	0f 95 c0             	setne  %al
    7864:	0f b6 c0             	movzbl %al,%eax
    7867:	44 89 f6             	mov    %r14d,%esi
    786a:	89 c7                	mov    %eax,%edi
    786c:	e8 70 cc ff ff       	callq  44e1 <safe_lshift_func_int16_t_s_u>
    7871:	98                   	cwtl   
    7872:	44 09 f8             	or     %r15d,%eax
    7875:	85 c0                	test   %eax,%eax
    7877:	74 16                	je     788f <func_34+0x1d29>
    7879:	8b 85 b4 f5 ff ff    	mov    -0xa4c(%rbp),%eax
    787f:	25 ff ff 07 00       	and    $0x7ffff,%eax
    7884:	85 c0                	test   %eax,%eax
    7886:	74 07                	je     788f <func_34+0x1d29>
    7888:	b8 01 00 00 00       	mov    $0x1,%eax
    788d:	eb 05                	jmp    7894 <func_34+0x1d2e>
    788f:	b8 00 00 00 00       	mov    $0x0,%eax
    7894:	83 f8 01             	cmp    $0x1,%eax
    7897:	0f 95 c0             	setne  %al
    789a:	0f b6 c0             	movzbl %al,%eax
    789d:	44 89 ee             	mov    %r13d,%esi
    78a0:	89 c7                	mov    %eax,%edi
    78a2:	e8 ec d2 ff ff       	callq  4b93 <safe_mul_func_uint8_t_u_u>
    78a7:	0f be d0             	movsbl %al,%edx
    78aa:	8b 85 0c f6 ff ff    	mov    -0x9f4(%rbp),%eax
    78b0:	0f be c0             	movsbl %al,%eax
    78b3:	89 d6                	mov    %edx,%esi
    78b5:	89 c7                	mov    %eax,%edi
    78b7:	e8 18 c9 ff ff       	callq  41d4 <safe_add_func_int8_t_s_s>
    78bc:	8b 85 50 f9 ff ff    	mov    -0x6b0(%rbp),%eax
    78c2:	0f b7 c0             	movzwl %ax,%eax
    78c5:	44 89 e6             	mov    %r12d,%esi
    78c8:	89 c7                	mov    %eax,%edi
    78ca:	e8 6e d4 ff ff       	callq  4d3d <safe_mul_func_uint16_t_u_u>
    78cf:	0f b6 c0             	movzbl %al,%eax
    78d2:	89 c6                	mov    %eax,%esi
    78d4:	bf 01 00 00 00       	mov    $0x1,%edi
    78d9:	e8 d0 d2 ff ff       	callq  4bae <safe_mod_func_uint8_t_u_u>
    78de:	0f b6 c0             	movzbl %al,%eax
    78e1:	89 de                	mov    %ebx,%esi
    78e3:	89 c7                	mov    %eax,%edi
    78e5:	e8 35 d4 ff ff       	callq  4d1f <safe_sub_func_uint16_t_u_u>
    78ea:	0f b6 85 ba f5 ff ff 	movzbl -0xa46(%rbp),%eax
    78f1:	c1 e0 04             	shl    $0x4,%eax
    78f4:	c0 f8 04             	sar    $0x4,%al
    78f7:	0f b6 95 b2 f5 ff ff 	movzbl -0xa4e(%rbp),%edx
    78fe:	c1 e2 03             	shl    $0x3,%edx
    7901:	c0 fa 03             	sar    $0x3,%dl
    7904:	21 d0                	and    %edx,%eax
    7906:	c1 e0 03             	shl    $0x3,%eax
    7909:	c0 f8 03             	sar    $0x3,%al
    790c:	83 e0 1f             	and    $0x1f,%eax
    790f:	89 c2                	mov    %eax,%edx
    7911:	0f b6 85 b2 f5 ff ff 	movzbl -0xa4e(%rbp),%eax
    7918:	83 e0 e0             	and    $0xffffffe0,%eax
    791b:	09 d0                	or     %edx,%eax
    791d:	88 85 b2 f5 ff ff    	mov    %al,-0xa4e(%rbp)
    7923:	0f b7 05 ee e7 00 00 	movzwl 0xe7ee(%rip),%eax        # 16118 <g_517+0x8>
    792a:	83 c0 01             	add    $0x1,%eax
    792d:	66 89 05 e4 e7 00 00 	mov    %ax,0xe7e4(%rip)        # 16118 <g_517+0x8>
    7934:	0f b7 05 dd e7 00 00 	movzwl 0xe7dd(%rip),%eax        # 16118 <g_517+0x8>
    793b:	66 83 f8 02          	cmp    $0x2,%ax
    793f:	0f 86 24 fe ff ff    	jbe    7769 <func_34+0x1c03>
    7945:	c7 05 69 0c 01 00 e2 	movl   $0xffffffe2,0x10c69(%rip)        # 185b8 <g_361>
    794c:	ff ff ff 
    794f:	e9 07 06 00 00       	jmpq   7f5b <func_34+0x23f5>
    7954:	c7 85 08 f6 ff ff fd 	movl   $0xcae82dfd,-0x9f8(%rbp)
    795b:	2d e8 ca 
    795e:	c7 85 38 f6 ff ff 17 	movl   $0xc03fc17,-0x9c8(%rbp)
    7965:	fc 03 0c 
    7968:	c7 85 3c f6 ff ff 85 	movl   $0x2813285,-0x9c4(%rbp)
    796f:	32 81 02 
    7972:	c7 85 40 f6 ff ff ff 	movl   $0xffffffff,-0x9c0(%rbp)
    7979:	ff ff ff 
    797c:	c7 85 44 f6 ff ff e5 	movl   $0x6806dae5,-0x9bc(%rbp)
    7983:	da 06 68 
    7986:	48 8d 85 40 fb ff ff 	lea    -0x4c0(%rbp),%rax
    798d:	48 8d 15 cc a6 00 00 	lea    0xa6cc(%rip),%rdx        # 12060 <g_1085+0x8>
    7994:	b9 24 00 00 00       	mov    $0x24,%ecx
    7999:	48 89 c7             	mov    %rax,%rdi
    799c:	48 89 d6             	mov    %rdx,%rsi
    799f:	f3 48 a5             	rep movsq %ds:(%rsi),%es:(%rdi)
    79a2:	48 c7 85 60 f7 ff ff 	movq   $0x0,-0x8a0(%rbp)
    79a9:	00 00 00 00 
    79ad:	c6 85 df f5 ff ff 00 	movb   $0x0,-0xa21(%rbp)
    79b4:	48 8b 15 15 00 01 00 	mov    0x10015(%rip),%rdx        # 179d0 <g_1333>
    79bb:	48 8b 05 0e 00 01 00 	mov    0x1000e(%rip),%rax        # 179d0 <g_1333>
    79c2:	48 8b 0a             	mov    (%rdx),%rcx
    79c5:	48 89 08             	mov    %rcx,(%rax)
    79c8:	8b 52 08             	mov    0x8(%rdx),%edx
    79cb:	89 50 08             	mov    %edx,0x8(%rax)
    79ce:	c7 05 44 e7 00 00 00 	movl   $0x0,0xe744(%rip)        # 1611c <g_532>
    79d5:	00 00 00 
    79d8:	e9 55 05 00 00       	jmpq   7f32 <func_34+0x23cc>
    79dd:	48 8d 85 20 f9 ff ff 	lea    -0x6e0(%rbp),%rax
    79e4:	48 83 c0 30          	add    $0x30,%rax
    79e8:	48 89 85 68 f7 ff ff 	mov    %rax,-0x898(%rbp)
    79ef:	c7 85 48 f6 ff ff 01 	movl   $0x1,-0x9b8(%rbp)
    79f6:	00 00 00 
    79f9:	c7 85 4c f6 ff ff a3 	movl   $0x7ecec7a3,-0x9b4(%rbp)
    7a00:	c7 ce 7e 
    7a03:	c7 85 50 f6 ff ff 01 	movl   $0x1,-0x9b0(%rbp)
    7a0a:	00 00 00 
    7a0d:	c7 85 54 f6 ff ff 01 	movl   $0x1,-0x9ac(%rbp)
    7a14:	00 00 00 
    7a17:	c7 85 58 f6 ff ff d0 	movl   $0x8ab4a7d0,-0x9a8(%rbp)
    7a1e:	a7 b4 8a 
    7a21:	c7 85 5c f6 ff ff 06 	movl   $0x6,-0x9a4(%rbp)
    7a28:	00 00 00 
    7a2b:	c7 85 10 f8 ff ff 59 	movl   $0x6bb4f759,-0x7f0(%rbp)
    7a32:	f7 b4 6b 
    7a35:	c7 85 14 f8 ff ff 59 	movl   $0x6bb4f759,-0x7ec(%rbp)
    7a3c:	f7 b4 6b 
    7a3f:	c7 85 18 f8 ff ff 59 	movl   $0x6bb4f759,-0x7e8(%rbp)
    7a46:	f7 b4 6b 
    7a49:	c7 85 1c f8 ff ff 59 	movl   $0x6bb4f759,-0x7e4(%rbp)
    7a50:	f7 b4 6b 
    7a53:	c7 85 20 f8 ff ff 59 	movl   $0x6bb4f759,-0x7e0(%rbp)
    7a5a:	f7 b4 6b 
    7a5d:	48 8b 85 68 f7 ff ff 	mov    -0x898(%rbp),%rax
    7a64:	8b 00                	mov    (%rax),%eax
    7a66:	8d 50 01             	lea    0x1(%rax),%edx
    7a69:	48 8b 85 68 f7 ff ff 	mov    -0x898(%rbp),%rax
    7a70:	89 10                	mov    %edx,(%rax)
    7a72:	48 8b 85 68 f7 ff ff 	mov    -0x898(%rbp),%rax
    7a79:	8b 00                	mov    (%rax),%eax
    7a7b:	89 c3                	mov    %eax,%ebx
    7a7d:	8b 85 08 f6 ff ff    	mov    -0x9f8(%rbp),%eax
    7a83:	48 98                	cltq   
    7a85:	48 89 c6             	mov    %rax,%rsi
    7a88:	48 bf 9b 01 9f f6 77 	movabs $0x1edd8377f69f019b,%rdi
    7a8f:	83 dd 1e 
    7a92:	e8 e9 d5 ff ff       	callq  5080 <safe_mod_func_uint64_t_u_u>
    7a97:	09 c3                	or     %eax,%ebx
    7a99:	89 da                	mov    %ebx,%edx
    7a9b:	8b 85 b4 f5 ff ff    	mov    -0xa4c(%rbp),%eax
    7aa1:	c1 e0 0d             	shl    $0xd,%eax
    7aa4:	c1 f8 0d             	sar    $0xd,%eax
    7aa7:	85 c0                	test   %eax,%eax
    7aa9:	0f 9e c0             	setle  %al
    7aac:	09 d0                	or     %edx,%eax
    7aae:	0f b6 c0             	movzbl %al,%eax
    7ab1:	be 02 00 00 00       	mov    $0x2,%esi
    7ab6:	89 c7                	mov    %eax,%edi
    7ab8:	e8 48 d1 ff ff       	callq  4c05 <safe_lshift_func_uint8_t_u_s>
    7abd:	8b 85 c0 f5 ff ff    	mov    -0xa40(%rbp),%eax
    7ac3:	89 85 08 f6 ff ff    	mov    %eax,-0x9f8(%rbp)
    7ac9:	8b 85 08 f6 ff ff    	mov    -0x9f8(%rbp),%eax
    7acf:	48 63 d8             	movslq %eax,%rbx
    7ad2:	8b 85 48 f6 ff ff    	mov    -0x9b8(%rbp),%eax
    7ad8:	48 63 d0             	movslq %eax,%rdx
    7adb:	0f b6 05 76 e7 00 00 	movzbl 0xe776(%rip),%eax        # 16258 <g_1123>
    7ae2:	48 0f be c0          	movsbq %al,%rax
    7ae6:	48 89 d6             	mov    %rdx,%rsi
    7ae9:	48 89 c7             	mov    %rax,%rdi
    7aec:	e8 8f d5 ff ff       	callq  5080 <safe_mod_func_uint64_t_u_u>
    7af1:	8b 95 c4 f5 ff ff    	mov    -0xa3c(%rbp),%edx
    7af7:	48 21 d0             	and    %rdx,%rax
    7afa:	48 09 c3             	or     %rax,%rbx
    7afd:	48 89 da             	mov    %rbx,%rdx
    7b00:	8b 85 c8 fa ff ff    	mov    -0x538(%rbp),%eax
    7b06:	21 d0                	and    %edx,%eax
    7b08:	89 85 c8 fa ff ff    	mov    %eax,-0x538(%rbp)
    7b0e:	c7 85 c4 f5 ff ff 12 	movl   $0x12,-0xa3c(%rbp)
    7b15:	00 00 00 
    7b18:	e9 da 03 00 00       	jmpq   7ef7 <func_34+0x2391>
    7b1d:	48 c7 85 70 f7 ff ff 	movq   $0x0,-0x890(%rbp)
    7b24:	00 00 00 00 
    7b28:	48 8d 85 80 f8 ff ff 	lea    -0x780(%rbp),%rax
    7b2f:	48 83 c0 38          	add    $0x38,%rax
    7b33:	48 89 85 78 f7 ff ff 	mov    %rax,-0x888(%rbp)
    7b3a:	48 8d 85 60 fc ff ff 	lea    -0x3a0(%rbp),%rax
    7b41:	48 8d 15 38 a6 00 00 	lea    0xa638(%rip),%rdx        # 12180 <g_1085+0x128>
    7b48:	b9 6c 00 00 00       	mov    $0x6c,%ecx
    7b4d:	48 89 c7             	mov    %rax,%rdi
    7b50:	48 89 d6             	mov    %rdx,%rsi
    7b53:	f3 48 a5             	rep movsq %ds:(%rsi),%es:(%rdi)
    7b56:	48 8b 85 78 f7 ff ff 	mov    -0x888(%rbp),%rax
    7b5d:	48 8b 95 70 f7 ff ff 	mov    -0x890(%rbp),%rdx
    7b64:	48 89 10             	mov    %rdx,(%rax)
    7b67:	c7 85 14 f6 ff ff e2 	movl   $0xffffffe2,-0x9ec(%rbp)
    7b6e:	ff ff ff 
    7b71:	83 bd 14 f6 ff ff 1d 	cmpl   $0x1d,-0x9ec(%rbp)
    7b78:	0f 8f e6 02 00 00    	jg     7e64 <func_34+0x22fe>
    7b7e:	c7 85 60 f6 ff ff 01 	movl   $0x1,-0x9a0(%rbp)
    7b85:	00 00 00 
    7b88:	48 8d 85 80 f9 ff ff 	lea    -0x680(%rbp),%rax
    7b8f:	48 83 c0 06          	add    $0x6,%rax
    7b93:	48 89 85 80 f7 ff ff 	mov    %rax,-0x880(%rbp)
    7b9a:	0f b7 85 b8 f5 ff ff 	movzwl -0xa48(%rbp),%eax
    7ba1:	66 85 c0             	test   %ax,%ax
    7ba4:	0f 85 b9 02 00 00    	jne    7e63 <func_34+0x22fd>
    7baa:	8b 05 a4 e5 00 00    	mov    0xe5a4(%rip),%eax        # 16154 <g_913+0x14>
    7bb0:	0f b6 d8             	movzbl %al,%ebx
    7bb3:	8b 85 b4 f5 ff ff    	mov    -0xa4c(%rbp),%eax
    7bb9:	c1 e0 0d             	shl    $0xd,%eax
    7bbc:	c1 f8 0d             	sar    $0xd,%eax
    7bbf:	89 85 a8 f5 ff ff    	mov    %eax,-0xa58(%rbp)
    7bc5:	44 8b a5 60 f6 ff ff 	mov    -0x9a0(%rbp),%r12d
    7bcc:	8b 85 b4 f5 ff ff    	mov    -0xa4c(%rbp),%eax
    7bd2:	c1 e0 0d             	shl    $0xd,%eax
    7bd5:	c1 f8 0d             	sar    $0xd,%eax
    7bd8:	89 85 a4 f5 ff ff    	mov    %eax,-0xa5c(%rbp)
    7bde:	48 8b 85 a8 f6 ff ff 	mov    -0x958(%rbp),%rax
    7be5:	0f b7 00             	movzwl (%rax),%eax
    7be8:	8d 50 01             	lea    0x1(%rax),%edx
    7beb:	48 8b 85 a8 f6 ff ff 	mov    -0x958(%rbp),%rax
    7bf2:	66 89 10             	mov    %dx,(%rax)
    7bf5:	48 8b 85 a8 f6 ff ff 	mov    -0x958(%rbp),%rax
    7bfc:	0f b7 00             	movzwl (%rax),%eax
    7bff:	98                   	cwtl   
    7c00:	89 c6                	mov    %eax,%esi
    7c02:	bf 06 00 00 00       	mov    $0x6,%edi
    7c07:	e8 c7 c7 ff ff       	callq  43d3 <safe_sub_func_int16_t_s_s>
    7c0c:	98                   	cwtl   
    7c0d:	89 85 a0 f5 ff ff    	mov    %eax,-0xa60(%rbp)
    7c13:	8b 85 48 f6 ff ff    	mov    -0x9b8(%rbp),%eax
    7c19:	44 0f b6 e8          	movzbl %al,%r13d
    7c1d:	44 8b b5 60 f6 ff ff 	mov    -0x9a0(%rbp),%r14d
    7c24:	8b 85 48 f6 ff ff    	mov    -0x9b8(%rbp),%eax
    7c2a:	44 0f b6 f8          	movzbl %al,%r15d
    7c2e:	8b 85 48 f6 ff ff    	mov    -0x9b8(%rbp),%eax
    7c34:	0f b6 d0             	movzbl %al,%edx
    7c37:	0f b6 05 eb e3 00 00 	movzbl 0xe3eb(%rip),%eax        # 16029 <g_23>
    7c3e:	0f b6 c0             	movzbl %al,%eax
    7c41:	89 d6                	mov    %edx,%esi
    7c43:	89 c7                	mov    %eax,%edi
    7c45:	e8 10 cf ff ff       	callq  4b5a <safe_add_func_uint8_t_u_u>
    7c4a:	0f b6 c0             	movzbl %al,%eax
    7c4d:	be 01 00 00 00       	mov    $0x1,%esi
    7c52:	89 c7                	mov    %eax,%edi
    7c54:	e8 65 d1 ff ff       	callq  4dbe <safe_lshift_func_uint16_t_u_s>
    7c59:	98                   	cwtl   
    7c5a:	89 c7                	mov    %eax,%edi
    7c5c:	e8 3c c7 ff ff       	callq  439d <safe_unary_minus_func_int16_t_s>
    7c61:	0f b7 c0             	movzwl %ax,%eax
    7c64:	be 03 00 00 00       	mov    $0x3,%esi
    7c69:	89 c7                	mov    %eax,%edi
    7c6b:	e8 96 d1 ff ff       	callq  4e06 <safe_lshift_func_uint16_t_u_u>
    7c70:	0f b6 c0             	movzbl %al,%eax
    7c73:	44 89 fe             	mov    %r15d,%esi
    7c76:	89 c7                	mov    %eax,%edi
    7c78:	e8 16 cf ff ff       	callq  4b93 <safe_mul_func_uint8_t_u_u>
    7c7d:	0f b6 c0             	movzbl %al,%eax
    7c80:	4c 89 f6             	mov    %r14,%rsi
    7c83:	48 89 c7             	mov    %rax,%rdi
    7c86:	e8 b6 cb ff ff       	callq  4841 <safe_add_func_int64_t_s_s>
    7c8b:	89 c2                	mov    %eax,%edx
    7c8d:	8b 85 c4 f5 ff ff    	mov    -0xa3c(%rbp),%eax
    7c93:	09 d0                	or     %edx,%eax
    7c95:	0f b7 c0             	movzwl %ax,%eax
    7c98:	be 0c 00 00 00       	mov    $0xc,%esi
    7c9d:	89 c7                	mov    %eax,%edi
    7c9f:	e8 1a d1 ff ff       	callq  4dbe <safe_lshift_func_uint16_t_u_s>
    7ca4:	44 0f b7 f0          	movzwl %ax,%r14d
    7ca8:	8b 85 48 f6 ff ff    	mov    -0x9b8(%rbp),%eax
    7cae:	0f be d0             	movsbl %al,%edx
    7cb1:	48 8b 85 c8 f5 ff ff 	mov    -0xa38(%rbp),%rax
    7cb8:	0f b6 00             	movzbl (%rax),%eax
    7cbb:	0f be c0             	movsbl %al,%eax
    7cbe:	89 d6                	mov    %edx,%esi
    7cc0:	89 c7                	mov    %eax,%edi
    7cc2:	e8 2b c5 ff ff       	callq  41f2 <safe_sub_func_int8_t_s_s>
    7cc7:	48 0f be c0          	movsbq %al,%rax
    7ccb:	4c 89 f6             	mov    %r14,%rsi
    7cce:	48 89 c7             	mov    %rax,%rdi
    7cd1:	e8 21 cd ff ff       	callq  49f7 <safe_div_func_int64_t_s_s>
    7cd6:	48 83 f8 01          	cmp    $0x1,%rax
    7cda:	0f 9e c0             	setle  %al
    7cdd:	0f b6 c0             	movzbl %al,%eax
    7ce0:	89 85 c0 f5 ff ff    	mov    %eax,-0xa40(%rbp)
    7ce6:	83 bd c0 f5 ff ff 00 	cmpl   $0x0,-0xa40(%rbp)
    7ced:	74 07                	je     7cf6 <func_34+0x2190>
    7cef:	b8 01 00 00 00       	mov    $0x1,%eax
    7cf4:	eb 05                	jmp    7cfb <func_34+0x2195>
    7cf6:	b8 00 00 00 00       	mov    $0x0,%eax
    7cfb:	48 63 d0             	movslq %eax,%rdx
    7cfe:	8b 85 08 f6 ff ff    	mov    -0x9f8(%rbp),%eax
    7d04:	48 98                	cltq   
    7d06:	48 89 d6             	mov    %rdx,%rsi
    7d09:	48 89 c7             	mov    %rax,%rdi
    7d0c:	e8 30 cb ff ff       	callq  4841 <safe_add_func_int64_t_s_s>
    7d11:	0f b6 c0             	movzbl %al,%eax
    7d14:	44 89 ee             	mov    %r13d,%esi
    7d17:	89 c7                	mov    %eax,%edi
    7d19:	e8 5a ce ff ff       	callq  4b78 <safe_sub_func_uint8_t_u_u>
    7d1e:	0f b6 c0             	movzbl %al,%eax
    7d21:	39 85 a0 f5 ff ff    	cmp    %eax,-0xa60(%rbp)
    7d27:	0f 95 c0             	setne  %al
    7d2a:	0f b6 c0             	movzbl %al,%eax
    7d2d:	8b b5 a4 f5 ff ff    	mov    -0xa5c(%rbp),%esi
    7d33:	89 c7                	mov    %eax,%edi
    7d35:	e8 cc d0 ff ff       	callq  4e06 <safe_lshift_func_uint16_t_u_u>
    7d3a:	0f b7 d0             	movzwl %ax,%edx
    7d3d:	0f b6 85 ba f5 ff ff 	movzbl -0xa46(%rbp),%eax
    7d44:	c1 e0 04             	shl    $0x4,%eax
    7d47:	c0 f8 04             	sar    $0x4,%al
    7d4a:	0f be c0             	movsbl %al,%eax
    7d4d:	39 c2                	cmp    %eax,%edx
    7d4f:	0f 9f c0             	setg   %al
    7d52:	0f b6 c0             	movzbl %al,%eax
    7d55:	44 89 e6             	mov    %r12d,%esi
    7d58:	89 c7                	mov    %eax,%edi
    7d5a:	e8 33 c7 ff ff       	callq  4492 <safe_lshift_func_int16_t_s_s>
    7d5f:	0f be c0             	movsbl %al,%eax
    7d62:	be 06 00 00 00       	mov    $0x6,%esi
    7d67:	89 c7                	mov    %eax,%edi
    7d69:	e8 84 c4 ff ff       	callq  41f2 <safe_sub_func_int8_t_s_s>
    7d6e:	0f b6 c0             	movzbl %al,%eax
    7d71:	8b 95 08 f6 ff ff    	mov    -0x9f8(%rbp),%edx
    7d77:	89 d6                	mov    %edx,%esi
    7d79:	89 c7                	mov    %eax,%edi
    7d7b:	e8 0d cf ff ff       	callq  4c8d <safe_rshift_func_uint8_t_u_s>
    7d80:	be 04 00 00 00       	mov    $0x4,%esi
    7d85:	bf 00 00 00 00       	mov    $0x0,%edi
    7d8a:	e8 dd c5 ff ff       	callq  436c <safe_rshift_func_int8_t_s_u>
    7d8f:	84 c0                	test   %al,%al
    7d91:	74 07                	je     7d9a <func_34+0x2234>
    7d93:	b8 01 00 00 00       	mov    $0x1,%eax
    7d98:	eb 05                	jmp    7d9f <func_34+0x2239>
    7d9a:	b8 00 00 00 00       	mov    $0x0,%eax
    7d9f:	0f be d0             	movsbl %al,%edx
    7da2:	48 8b 05 d7 f1 00 00 	mov    0xf1d7(%rip),%rax        # 16f80 <g_18>
    7da9:	0f b6 30             	movzbl (%rax),%esi
    7dac:	48 8b 85 c8 f5 ff ff 	mov    -0xa38(%rbp),%rax
    7db3:	0f b6 08             	movzbl (%rax),%ecx
    7db6:	48 8b 05 c3 f1 00 00 	mov    0xf1c3(%rip),%rax        # 16f80 <g_18>
    7dbd:	09 f1                	or     %esi,%ecx
    7dbf:	88 08                	mov    %cl,(%rax)
    7dc1:	0f b6 00             	movzbl (%rax),%eax
    7dc4:	0f be c0             	movsbl %al,%eax
    7dc7:	89 d6                	mov    %edx,%esi
    7dc9:	89 c7                	mov    %eax,%edi
    7dcb:	e8 04 c4 ff ff       	callq  41d4 <safe_add_func_int8_t_s_s>
    7dd0:	66 98                	cbtw   
    7dd2:	66 0d ad d0          	or     $0xd0ad,%ax
    7dd6:	0f b7 c0             	movzwl %ax,%eax
    7dd9:	8b b5 a8 f5 ff ff    	mov    -0xa58(%rbp),%esi
    7ddf:	89 c7                	mov    %eax,%edi
    7de1:	e8 20 d0 ff ff       	callq  4e06 <safe_lshift_func_uint16_t_u_u>
    7de6:	48 8b 95 80 f7 ff ff 	mov    -0x880(%rbp),%rdx
    7ded:	66 89 02             	mov    %ax,(%rdx)
    7df0:	48 8b 85 80 f7 ff ff 	mov    -0x880(%rbp),%rax
    7df7:	0f b7 00             	movzwl (%rax),%eax
    7dfa:	0f b7 d0             	movzwl %ax,%edx
    7dfd:	48 8b 05 9c f1 00 00 	mov    0xf19c(%rip),%rax        # 16fa0 <g_467>
    7e04:	0f b7 00             	movzwl (%rax),%eax
    7e07:	98                   	cwtl   
    7e08:	31 d0                	xor    %edx,%eax
    7e0a:	39 85 c4 f5 ff ff    	cmp    %eax,-0xa3c(%rbp)
    7e10:	0f 92 c0             	setb   %al
    7e13:	0f b6 c0             	movzbl %al,%eax
    7e16:	89 de                	mov    %ebx,%esi
    7e18:	89 c7                	mov    %eax,%edi
    7e1a:	e8 59 cd ff ff       	callq  4b78 <safe_sub_func_uint8_t_u_u>
    7e1f:	0f b6 c0             	movzbl %al,%eax
    7e22:	c1 e0 0d             	shl    $0xd,%eax
    7e25:	c1 f8 0d             	sar    $0xd,%eax
    7e28:	25 ff ff 07 00       	and    $0x7ffff,%eax
    7e2d:	89 c2                	mov    %eax,%edx
    7e2f:	8b 85 b4 f5 ff ff    	mov    -0xa4c(%rbp),%eax
    7e35:	25 00 00 f8 ff       	and    $0xfff80000,%eax
    7e3a:	09 d0                	or     %edx,%eax
    7e3c:	89 85 b4 f5 ff ff    	mov    %eax,-0xa4c(%rbp)
    7e42:	8b 85 b4 f5 ff ff    	mov    -0xa4c(%rbp),%eax
    7e48:	c1 e0 0d             	shl    $0xd,%eax
    7e4b:	c1 f8 0d             	sar    $0xd,%eax
    7e4e:	89 85 08 f6 ff ff    	mov    %eax,-0x9f8(%rbp)
    7e54:	0f b7 85 b0 f5 ff ff 	movzwl -0xa50(%rbp),%eax
    7e5b:	0f b7 c0             	movzwl %ax,%eax
    7e5e:	e9 4e 01 00 00       	jmpq   7fb1 <func_34+0x244b>
    7e63:	90                   	nop
    7e64:	c7 85 08 f6 ff ff 00 	movl   $0x0,-0x9f8(%rbp)
    7e6b:	00 00 00 
    7e6e:	eb 77                	jmp    7ee7 <func_34+0x2381>
    7e70:	8b 85 38 ff ff ff    	mov    -0xc8(%rbp),%eax
    7e76:	83 c0 01             	add    $0x1,%eax
    7e79:	89 85 38 ff ff ff    	mov    %eax,-0xc8(%rbp)
    7e7f:	8b 85 b4 f5 ff ff    	mov    -0xa4c(%rbp),%eax
    7e85:	25 ff ff 07 00       	and    $0x7ffff,%eax
    7e8a:	85 c0                	test   %eax,%eax
    7e8c:	75 3d                	jne    7ecb <func_34+0x2365>
    7e8e:	0f b6 85 ba f5 ff ff 	movzbl -0xa46(%rbp),%eax
    7e95:	c1 e0 04             	shl    $0x4,%eax
    7e98:	c0 f8 04             	sar    $0x4,%al
    7e9b:	89 c2                	mov    %eax,%edx
    7e9d:	8b 85 c0 f5 ff ff    	mov    -0xa40(%rbp),%eax
    7ea3:	21 d0                	and    %edx,%eax
    7ea5:	c1 e0 04             	shl    $0x4,%eax
    7ea8:	c0 f8 04             	sar    $0x4,%al
    7eab:	83 e0 0f             	and    $0xf,%eax
    7eae:	89 c2                	mov    %eax,%edx
    7eb0:	0f b6 85 ba f5 ff ff 	movzbl -0xa46(%rbp),%eax
    7eb7:	83 e0 f0             	and    $0xfffffff0,%eax
    7eba:	09 d0                	or     %edx,%eax
    7ebc:	88 85 ba f5 ff ff    	mov    %al,-0xa46(%rbp)
    7ec2:	83 bd c0 f5 ff ff 00 	cmpl   $0x0,-0xa40(%rbp)
    7ec9:	eb 01                	jmp    7ecc <func_34+0x2366>
    7ecb:	90                   	nop
    7ecc:	8b 85 08 f6 ff ff    	mov    -0x9f8(%rbp),%eax
    7ed2:	48 98                	cltq   
    7ed4:	be 02 00 00 00       	mov    $0x2,%esi
    7ed9:	48 89 c7             	mov    %rax,%rdi
    7edc:	e8 c7 c9 ff ff       	callq  48a8 <safe_sub_func_int64_t_s_s>
    7ee1:	89 85 08 f6 ff ff    	mov    %eax,-0x9f8(%rbp)
    7ee7:	83 bd 08 f6 ff ff e6 	cmpl   $0xffffffe6,-0x9f8(%rbp)
    7eee:	75 80                	jne    7e70 <func_34+0x230a>
    7ef0:	83 ad c4 f5 ff ff 01 	subl   $0x1,-0xa3c(%rbp)
    7ef7:	83 bd c4 f5 ff ff 11 	cmpl   $0x11,-0xa3c(%rbp)
    7efe:	0f 87 19 fc ff ff    	ja     7b1d <func_34+0x1fb7>
    7f04:	80 85 df f5 ff ff 01 	addb   $0x1,-0xa21(%rbp)
    7f0b:	8b 85 b4 f5 ff ff    	mov    -0xa4c(%rbp),%eax
    7f11:	25 ff ff 07 00       	and    $0x7ffff,%eax
    7f16:	85 c0                	test   %eax,%eax
    7f18:	8b 05 fe e1 00 00    	mov    0xe1fe(%rip),%eax        # 1611c <g_532>
    7f1e:	98                   	cwtl   
    7f1f:	be 06 00 00 00       	mov    $0x6,%esi
    7f24:	89 c7                	mov    %eax,%edi
    7f26:	e8 88 c4 ff ff       	callq  43b3 <safe_add_func_int16_t_s_s>
    7f2b:	98                   	cwtl   
    7f2c:	89 05 ea e1 00 00    	mov    %eax,0xe1ea(%rip)        # 1611c <g_532>
    7f32:	8b 05 e4 e1 00 00    	mov    0xe1e4(%rip),%eax        # 1611c <g_532>
    7f38:	83 f8 0d             	cmp    $0xd,%eax
    7f3b:	0f 85 9c fa ff ff    	jne    79dd <func_34+0x1e77>
    7f41:	8b 05 71 06 01 00    	mov    0x10671(%rip),%eax        # 185b8 <g_361>
    7f47:	98                   	cwtl   
    7f48:	be 06 00 00 00       	mov    $0x6,%esi
    7f4d:	89 c7                	mov    %eax,%edi
    7f4f:	e8 5f c4 ff ff       	callq  43b3 <safe_add_func_int16_t_s_s>
    7f54:	98                   	cwtl   
    7f55:	89 05 5d 06 01 00    	mov    %eax,0x1065d(%rip)        # 185b8 <g_361>
    7f5b:	8b 05 57 06 01 00    	mov    0x10657(%rip),%eax        # 185b8 <g_361>
    7f61:	83 f8 2a             	cmp    $0x2a,%eax
    7f64:	0f 85 ea f9 ff ff    	jne    7954 <func_34+0x1dee>
    7f6a:	0f b7 85 b8 f5 ff ff 	movzwl -0xa48(%rbp),%eax
    7f71:	0f b7 c0             	movzwl %ax,%eax
    7f74:	be 03 00 00 00       	mov    $0x3,%esi
    7f79:	89 c7                	mov    %eax,%edi
    7f7b:	e8 36 c6 ff ff       	callq  45b6 <safe_add_func_int32_t_s_s>
    7f80:	66 89 85 b8 f5 ff ff 	mov    %ax,-0xa48(%rbp)
    7f87:	0f b7 85 b8 f5 ff ff 	movzwl -0xa48(%rbp),%eax
    7f8e:	66 83 f8 27          	cmp    $0x27,%ax
    7f92:	0f 85 50 e1 ff ff    	jne    60e8 <func_34+0x582>
    7f98:	8b 05 d2 e0 00 00    	mov    0xe0d2(%rip),%eax        # 16070 <g_194>
    7f9e:	85 c0                	test   %eax,%eax
    7fa0:	74 05                	je     7fa7 <func_34+0x2441>
    7fa2:	e9 22 e1 ff ff       	jmpq   60c9 <func_34+0x563>
    7fa7:	0f b6 05 72 e1 00 00 	movzbl 0xe172(%rip),%eax        # 16120 <g_534>
    7fae:	0f b6 c0             	movzbl %al,%eax
    7fb1:	48 8b 5d c8          	mov    -0x38(%rbp),%rbx
    7fb5:	64 48 33 1c 25 28 00 	xor    %fs:0x28,%rbx
    7fbc:	00 00 
    7fbe:	74 05                	je     7fc5 <func_34+0x245f>
    7fc0:	e8 ab c0 ff ff       	callq  4070 <__stack_chk_fail@plt>
    7fc5:	48 81 c4 38 0a 00 00 	add    $0xa38,%rsp
    7fcc:	5b                   	pop    %rbx
    7fcd:	41 5c                	pop    %r12
    7fcf:	41 5d                	pop    %r13
    7fd1:	41 5e                	pop    %r14
    7fd3:	41 5f                	pop    %r15
    7fd5:	5d                   	pop    %rbp
    7fd6:	c3                   	retq   

0000000000007fd7 <func_39>:
    7fd7:	f3 0f 1e fa          	endbr64 
    7fdb:	55                   	push   %rbp
    7fdc:	48 89 e5             	mov    %rsp,%rbp
    7fdf:	41 54                	push   %r12
    7fe1:	53                   	push   %rbx
    7fe2:	48 81 ec 90 01 00 00 	sub    $0x190,%rsp
    7fe9:	89 bd 6c fe ff ff    	mov    %edi,-0x194(%rbp)
    7fef:	89 f0                	mov    %esi,%eax
    7ff1:	88 85 68 fe ff ff    	mov    %al,-0x198(%rbp)
    7ff7:	64 48 8b 04 25 28 00 	mov    %fs:0x28,%rax
    7ffe:	00 00 
    8000:	48 89 45 e8          	mov    %rax,-0x18(%rbp)
    8004:	31 c0                	xor    %eax,%eax
    8006:	48 c7 85 88 fe ff ff 	movq   $0xfffffffffffffff6,-0x178(%rbp)
    800d:	f6 ff ff ff 
    8011:	48 8d 05 c8 e0 00 00 	lea    0xe0c8(%rip),%rax        # 160e0 <g_281+0x40>
    8018:	48 89 85 90 fe ff ff 	mov    %rax,-0x170(%rbp)
    801f:	c7 85 10 ff ff ff 08 	movl   $0x8,-0xf0(%rbp)
    8026:	00 00 00 
    8029:	c7 85 14 ff ff ff c9 	movl   $0x99ff7c9,-0xec(%rbp)
    8030:	f7 9f 09 
    8033:	c7 85 18 ff ff ff 2a 	movl   $0xec3d8a2a,-0xe8(%rbp)
    803a:	8a 3d ec 
    803d:	c7 85 1c ff ff ff e4 	movl   $0x61b46de4,-0xe4(%rbp)
    8044:	6d b4 61 
    8047:	c7 85 20 ff ff ff 00 	movl   $0x0,-0xe0(%rbp)
    804e:	00 00 00 
    8051:	c7 85 24 ff ff ff 2a 	movl   $0xec3d8a2a,-0xdc(%rbp)
    8058:	8a 3d ec 
    805b:	c7 85 28 ff ff ff e1 	movl   $0x52911ee1,-0xd8(%rbp)
    8062:	1e 91 52 
    8065:	c7 85 2c ff ff ff 50 	movl   $0x4c1a5650,-0xd4(%rbp)
    806c:	56 1a 4c 
    806f:	c7 85 30 ff ff ff e1 	movl   $0x52911ee1,-0xd0(%rbp)
    8076:	1e 91 52 
    8079:	c7 85 34 ff ff ff 01 	movl   $0x1,-0xcc(%rbp)
    8080:	00 00 00 
    8083:	c7 85 38 ff ff ff 90 	movl   $0x5d4ea90,-0xc8(%rbp)
    808a:	ea d4 05 
    808d:	c7 85 3c ff ff ff 2a 	movl   $0xec3d8a2a,-0xc4(%rbp)
    8094:	8a 3d ec 
    8097:	c7 85 40 ff ff ff 2a 	movl   $0xec3d8a2a,-0xc0(%rbp)
    809e:	8a 3d ec 
    80a1:	c7 85 44 ff ff ff 90 	movl   $0x5d4ea90,-0xbc(%rbp)
    80a8:	ea d4 05 
    80ab:	c7 85 48 ff ff ff 01 	movl   $0x1,-0xb8(%rbp)
    80b2:	00 00 00 
    80b5:	c7 85 4c ff ff ff e4 	movl   $0x61b46de4,-0xb4(%rbp)
    80bc:	6d b4 61 
    80bf:	c7 85 50 ff ff ff fd 	movl   $0x4c37a1fd,-0xb0(%rbp)
    80c6:	a1 37 4c 
    80c9:	c7 85 54 ff ff ff 00 	movl   $0x0,-0xac(%rbp)
    80d0:	00 00 00 
    80d3:	c7 85 58 ff ff ff 01 	movl   $0x1,-0xa8(%rbp)
    80da:	00 00 00 
    80dd:	c7 85 5c ff ff ff c9 	movl   $0x99ff7c9,-0xa4(%rbp)
    80e4:	f7 9f 09 
    80e7:	c7 85 60 ff ff ff e1 	movl   $0x52911ee1,-0xa0(%rbp)
    80ee:	1e 91 52 
    80f1:	c7 85 64 ff ff ff 01 	movl   $0x1,-0x9c(%rbp)
    80f8:	00 00 00 
    80fb:	c7 85 68 ff ff ff 50 	movl   $0x4c1a5650,-0x98(%rbp)
    8102:	56 1a 4c 
    8105:	c7 85 6c ff ff ff 00 	movl   $0x0,-0x94(%rbp)
    810c:	00 00 00 
    810f:	c7 85 70 ff ff ff 08 	movl   $0x8,-0x90(%rbp)
    8116:	00 00 00 
    8119:	c7 85 74 ff ff ff fd 	movl   $0x4c37a1fd,-0x8c(%rbp)
    8120:	a1 37 4c 
    8123:	c7 85 78 ff ff ff e1 	movl   $0x52911ee1,-0x88(%rbp)
    812a:	1e 91 52 
    812d:	c7 85 7c ff ff ff 08 	movl   $0x8,-0x84(%rbp)
    8134:	00 00 00 
    8137:	c7 45 80 50 56 1a 4c 	movl   $0x4c1a5650,-0x80(%rbp)
    813e:	c7 45 84 e4 6d b4 61 	movl   $0x61b46de4,-0x7c(%rbp)
    8145:	c7 45 88 00 00 00 00 	movl   $0x0,-0x78(%rbp)
    814c:	c7 45 8c 03 00 00 00 	movl   $0x3,-0x74(%rbp)
    8153:	c7 45 90 00 00 00 00 	movl   $0x0,-0x70(%rbp)
    815a:	c7 45 94 e4 6d b4 61 	movl   $0x61b46de4,-0x6c(%rbp)
    8161:	c7 45 98 50 56 1a 4c 	movl   $0x4c1a5650,-0x68(%rbp)
    8168:	c7 45 9c 08 00 00 00 	movl   $0x8,-0x64(%rbp)
    816f:	c7 45 a0 e1 1e 91 52 	movl   $0x52911ee1,-0x60(%rbp)
    8176:	c7 45 a4 fd a1 37 4c 	movl   $0x4c37a1fd,-0x5c(%rbp)
    817d:	c7 45 a8 08 00 00 00 	movl   $0x8,-0x58(%rbp)
    8184:	c7 45 ac 00 00 00 00 	movl   $0x0,-0x54(%rbp)
    818b:	c7 45 b0 50 56 1a 4c 	movl   $0x4c1a5650,-0x50(%rbp)
    8192:	c7 45 b4 01 00 00 00 	movl   $0x1,-0x4c(%rbp)
    8199:	c7 45 b8 e1 1e 91 52 	movl   $0x52911ee1,-0x48(%rbp)
    81a0:	c7 45 bc c9 f7 9f 09 	movl   $0x99ff7c9,-0x44(%rbp)
    81a7:	c7 45 c0 01 00 00 00 	movl   $0x1,-0x40(%rbp)
    81ae:	c7 45 c4 00 00 00 00 	movl   $0x0,-0x3c(%rbp)
    81b5:	c7 45 c8 fd a1 37 4c 	movl   $0x4c37a1fd,-0x38(%rbp)
    81bc:	c7 45 cc e4 6d b4 61 	movl   $0x61b46de4,-0x34(%rbp)
    81c3:	c7 45 d0 01 00 00 00 	movl   $0x1,-0x30(%rbp)
    81ca:	c7 45 d4 90 ea d4 05 	movl   $0x5d4ea90,-0x2c(%rbp)
    81d1:	c7 45 d8 2a 8a 3d ec 	movl   $0xec3d8a2a,-0x28(%rbp)
    81d8:	c7 45 dc 2a 8a 3d ec 	movl   $0xec3d8a2a,-0x24(%rbp)
    81df:	c7 45 e0 90 ea d4 05 	movl   $0x5d4ea90,-0x20(%rbp)
    81e6:	c7 45 e4 01 00 00 00 	movl   $0x1,-0x1c(%rbp)
    81ed:	c7 85 c0 fe ff ff b9 	movl   $0xd18913b9,-0x140(%rbp)
    81f4:	13 89 d1 
    81f7:	c7 85 c4 fe ff ff b9 	movl   $0xd18913b9,-0x13c(%rbp)
    81fe:	13 89 d1 
    8201:	c7 85 c8 fe ff ff b9 	movl   $0xd18913b9,-0x138(%rbp)
    8208:	13 89 d1 
    820b:	c7 85 cc fe ff ff b9 	movl   $0xd18913b9,-0x134(%rbp)
    8212:	13 89 d1 
    8215:	48 8b 05 64 ed 00 00 	mov    0xed64(%rip),%rax        # 16f80 <g_18>
    821c:	0f b6 00             	movzbl (%rax),%eax
    821f:	0f be c0             	movsbl %al,%eax
    8222:	be b5 ff ff ff       	mov    $0xffffffb5,%esi
    8227:	89 c7                	mov    %eax,%edi
    8229:	e8 e4 bf ff ff       	callq  4212 <safe_mul_func_int8_t_s_s>
    822e:	0f be c0             	movsbl %al,%eax
    8231:	89 85 6c fe ff ff    	mov    %eax,-0x194(%rbp)
    8237:	c7 05 27 e0 00 00 00 	movl   $0x0,0xe027(%rip)        # 16268 <g_1135>
    823e:	00 00 00 
    8241:	e9 ee 02 00 00       	jmpq   8534 <func_39+0x55d>
    8246:	48 8d 05 23 de 00 00 	lea    0xde23(%rip),%rax        # 16070 <g_194>
    824d:	48 89 85 98 fe ff ff 	mov    %rax,-0x168(%rbp)
    8254:	c7 85 7c fe ff ff 40 	movl   $0xc83d8140,-0x184(%rbp)
    825b:	81 3d c8 
    825e:	48 8d 05 7b de 00 00 	lea    0xde7b(%rip),%rax        # 160e0 <g_281+0x40>
    8265:	48 89 85 a0 fe ff ff 	mov    %rax,-0x160(%rbp)
    826c:	48 c7 85 a8 fe ff ff 	movq   $0x0,-0x158(%rbp)
    8273:	00 00 00 00 
    8277:	c6 85 77 fe ff ff 00 	movb   $0x0,-0x189(%rbp)
    827e:	8b 85 6c fe ff ff    	mov    -0x194(%rbp),%eax
    8284:	48 98                	cltq   
    8286:	48 39 85 88 fe ff ff 	cmp    %rax,-0x178(%rbp)
    828d:	0f 9e c0             	setle  %al
    8290:	0f b6 d0             	movzbl %al,%edx
    8293:	48 8b 85 98 fe ff ff 	mov    -0x168(%rbp),%rax
    829a:	89 10                	mov    %edx,(%rax)
    829c:	48 8b 85 98 fe ff ff 	mov    -0x168(%rbp),%rax
    82a3:	8b 00                	mov    (%rax),%eax
    82a5:	89 85 7c fe ff ff    	mov    %eax,-0x184(%rbp)
    82ab:	48 8d 85 6c fe ff ff 	lea    -0x194(%rbp),%rax
    82b2:	48 89 85 98 fe ff ff 	mov    %rax,-0x168(%rbp)
    82b9:	8b 85 6c fe ff ff    	mov    -0x194(%rbp),%eax
    82bf:	0f bf d8             	movswl %ax,%ebx
    82c2:	44 0f be a5 77 fe ff 	movsbl -0x189(%rbp),%r12d
    82c9:	ff 
    82ca:	48 8b 85 a0 fe ff ff 	mov    -0x160(%rbp),%rax
    82d1:	48 3b 85 90 fe ff ff 	cmp    -0x170(%rbp),%rax
    82d8:	0f 95 c0             	setne  %al
    82db:	0f b6 d0             	movzbl %al,%edx
    82de:	48 8b 05 bb ec 00 00 	mov    0xecbb(%rip),%rax        # 16fa0 <g_467>
    82e5:	0f b6 8d 68 fe ff ff 	movzbl -0x198(%rbp),%ecx
    82ec:	66 89 08             	mov    %cx,(%rax)
    82ef:	48 8b 85 98 fe ff ff 	mov    -0x168(%rbp),%rax
    82f6:	8b 00                	mov    (%rax),%eax
    82f8:	89 d6                	mov    %edx,%esi
    82fa:	89 c7                	mov    %eax,%edi
    82fc:	e8 b5 c2 ff ff       	callq  45b6 <safe_add_func_int32_t_s_s>
    8301:	8b 95 6c fe ff ff    	mov    -0x194(%rbp),%edx
    8307:	48 8d 05 13 de 00 00 	lea    0xde13(%rip),%rax        # 16121 <g_547>
    830e:	48 39 85 a8 fe ff ff 	cmp    %rax,-0x158(%rbp)
    8315:	0f 95 c0             	setne  %al
    8318:	0f b6 c8             	movzbl %al,%ecx
    831b:	8b 85 6c fe ff ff    	mov    -0x194(%rbp),%eax
    8321:	39 c1                	cmp    %eax,%ecx
    8323:	0f 9e c0             	setle  %al
    8326:	0f b6 c0             	movzbl %al,%eax
    8329:	89 d6                	mov    %edx,%esi
    832b:	89 c7                	mov    %eax,%edi
    832d:	e8 60 c1 ff ff       	callq  4492 <safe_lshift_func_int16_t_s_s>
    8332:	98                   	cwtl   
    8333:	be 00 00 00 00       	mov    $0x0,%esi
    8338:	89 c7                	mov    %eax,%edi
    833a:	e8 b6 c0 ff ff       	callq  43f5 <safe_mul_func_int16_t_s_s>
    833f:	98                   	cwtl   
    8340:	89 c6                	mov    %eax,%esi
    8342:	bf b0 34 93 09       	mov    $0x99334b0,%edi
    8347:	e8 84 cb ff ff       	callq  4ed0 <safe_sub_func_uint32_t_u_u>
    834c:	89 c0                	mov    %eax,%eax
    834e:	83 e0 01             	and    $0x1,%eax
    8351:	48 3d 2b e6 00 00    	cmp    $0xe62b,%rax
    8357:	0f 97 c0             	seta   %al
    835a:	0f b6 c0             	movzbl %al,%eax
    835d:	48 39 85 88 fe ff ff 	cmp    %rax,-0x178(%rbp)
    8364:	7f 0a                	jg     8370 <func_39+0x399>
    8366:	8b 85 6c fe ff ff    	mov    -0x194(%rbp),%eax
    836c:	85 c0                	test   %eax,%eax
    836e:	74 07                	je     8377 <func_39+0x3a0>
    8370:	b8 01 00 00 00       	mov    $0x1,%eax
    8375:	eb 05                	jmp    837c <func_39+0x3a5>
    8377:	b8 00 00 00 00       	mov    $0x0,%eax
    837c:	0f be c0             	movsbl %al,%eax
    837f:	be 02 00 00 00       	mov    $0x2,%esi
    8384:	89 c7                	mov    %eax,%edi
    8386:	e8 aa bf ff ff       	callq  4335 <safe_rshift_func_int8_t_s_s>
    838b:	48 8b 85 88 fe ff ff 	mov    -0x178(%rbp),%rax
    8392:	0f b7 c0             	movzwl %ax,%eax
    8395:	be 9d d2 00 00       	mov    $0xd29d,%esi
    839a:	89 c7                	mov    %eax,%edi
    839c:	e8 7e c9 ff ff       	callq  4d1f <safe_sub_func_uint16_t_u_u>
    83a1:	0f b6 c0             	movzbl %al,%eax
    83a4:	be 09 00 00 00       	mov    $0x9,%esi
    83a9:	89 c7                	mov    %eax,%edi
    83ab:	e8 fe c7 ff ff       	callq  4bae <safe_mod_func_uint8_t_u_u>
    83b0:	0f b6 c0             	movzbl %al,%eax
    83b3:	66 89 05 6e dd 00 00 	mov    %ax,0xdd6e(%rip)        # 16128 <g_818>
    83ba:	0f b7 05 67 dd 00 00 	movzwl 0xdd67(%rip),%eax        # 16128 <g_818>
    83c1:	98                   	cwtl   
    83c2:	44 89 e6             	mov    %r12d,%esi
    83c5:	89 c7                	mov    %eax,%edi
    83c7:	e8 89 c0 ff ff       	callq  4455 <safe_div_func_int16_t_s_s>
    83cc:	66 85 c0             	test   %ax,%ax
    83cf:	74 14                	je     83e5 <func_39+0x40e>
    83d1:	48 8b 85 98 fe ff ff 	mov    -0x168(%rbp),%rax
    83d8:	8b 00                	mov    (%rax),%eax
    83da:	85 c0                	test   %eax,%eax
    83dc:	74 07                	je     83e5 <func_39+0x40e>
    83de:	b8 01 00 00 00       	mov    $0x1,%eax
    83e3:	eb 05                	jmp    83ea <func_39+0x413>
    83e5:	b8 00 00 00 00       	mov    $0x0,%eax
    83ea:	89 c2                	mov    %eax,%edx
    83ec:	48 8b 05 8d eb 00 00 	mov    0xeb8d(%rip),%rax        # 16f80 <g_18>
    83f3:	0f b6 00             	movzbl (%rax),%eax
    83f6:	66 98                	cbtw   
    83f8:	09 d0                	or     %edx,%eax
    83fa:	98                   	cwtl   
    83fb:	89 de                	mov    %ebx,%esi
    83fd:	89 c7                	mov    %eax,%edi
    83ff:	e8 f1 bf ff ff       	callq  43f5 <safe_mul_func_int16_t_s_s>
    8404:	0f bf d0             	movswl %ax,%edx
    8407:	48 8b 85 98 fe ff ff 	mov    -0x168(%rbp),%rax
    840e:	8b 00                	mov    (%rax),%eax
    8410:	39 c2                	cmp    %eax,%edx
    8412:	0f 9e c0             	setle  %al
    8415:	0f b6 d0             	movzbl %al,%edx
    8418:	48 8b 85 98 fe ff ff 	mov    -0x168(%rbp),%rax
    841f:	89 10                	mov    %edx,(%rax)
    8421:	8b 95 c8 fe ff ff    	mov    -0x138(%rbp),%edx
    8427:	8b 45 dc             	mov    -0x24(%rbp),%eax
    842a:	21 d0                	and    %edx,%eax
    842c:	89 85 c8 fe ff ff    	mov    %eax,-0x138(%rbp)
    8432:	48 c7 05 bb dc 00 00 	movq   $0x3,0xdcbb(%rip)        # 160f8 <g_300>
    8439:	03 00 00 00 
    843d:	90                   	nop
    843e:	48 8b 05 b3 dc 00 00 	mov    0xdcb3(%rip),%rax        # 160f8 <g_300>
    8445:	48 85 c0             	test   %rax,%rax
    8448:	0f 88 d7 00 00 00    	js     8525 <func_39+0x54e>
    844e:	48 c7 85 b0 fe ff ff 	movq   $0xfffffffffffffffd,-0x150(%rbp)
    8455:	fd ff ff ff 
    8459:	48 8d 05 b0 dc 00 00 	lea    0xdcb0(%rip),%rax        # 16110 <g_517>
    8460:	48 89 85 80 fe ff ff 	mov    %rax,-0x180(%rbp)
    8467:	48 8d 85 80 fe ff ff 	lea    -0x180(%rbp),%rax
    846e:	48 89 85 d0 fe ff ff 	mov    %rax,-0x130(%rbp)
    8475:	48 8d 85 80 fe ff ff 	lea    -0x180(%rbp),%rax
    847c:	48 89 85 d8 fe ff ff 	mov    %rax,-0x128(%rbp)
    8483:	48 8d 85 80 fe ff ff 	lea    -0x180(%rbp),%rax
    848a:	48 89 85 e0 fe ff ff 	mov    %rax,-0x120(%rbp)
    8491:	48 8d 85 80 fe ff ff 	lea    -0x180(%rbp),%rax
    8498:	48 89 85 e8 fe ff ff 	mov    %rax,-0x118(%rbp)
    849f:	48 8d 85 80 fe ff ff 	lea    -0x180(%rbp),%rax
    84a6:	48 89 85 f0 fe ff ff 	mov    %rax,-0x110(%rbp)
    84ad:	48 8d 85 80 fe ff ff 	lea    -0x180(%rbp),%rax
    84b4:	48 89 85 f8 fe ff ff 	mov    %rax,-0x108(%rbp)
    84bb:	48 8d 85 80 fe ff ff 	lea    -0x180(%rbp),%rax
    84c2:	48 89 85 00 ff ff ff 	mov    %rax,-0x100(%rbp)
    84c9:	c7 85 78 fe ff ff 00 	movl   $0x0,-0x188(%rbp)
    84d0:	00 00 00 
    84d3:	eb 1b                	jmp    84f0 <func_39+0x519>
    84d5:	8b 85 78 fe ff ff    	mov    -0x188(%rbp),%eax
    84db:	48 98                	cltq   
    84dd:	48 c7 84 c5 b8 fe ff 	movq   $0x0,-0x148(%rbp,%rax,8)
    84e4:	ff 00 00 00 00 
    84e9:	83 85 78 fe ff ff 01 	addl   $0x1,-0x188(%rbp)
    84f0:	83 bd 78 fe ff ff 00 	cmpl   $0x0,-0x188(%rbp)
    84f7:	7e dc                	jle    84d5 <func_39+0x4fe>
    84f9:	48 83 85 b0 fe ff ff 	addq   $0x1,-0x150(%rbp)
    8500:	01 
    8501:	48 8b 85 80 fe ff ff 	mov    -0x180(%rbp),%rax
    8508:	48 89 05 c1 f4 00 00 	mov    %rax,0xf4c1(%rip)        # 179d0 <g_1333>
    850f:	48 8b 85 b8 fe ff ff 	mov    -0x148(%rbp),%rax
    8516:	48 89 85 98 fe ff ff 	mov    %rax,-0x168(%rbp)
    851d:	8b 85 6c fe ff ff    	mov    -0x194(%rbp),%eax
    8523:	eb 24                	jmp    8549 <func_39+0x572>
    8525:	8b 05 3d dd 00 00    	mov    0xdd3d(%rip),%eax        # 16268 <g_1135>
    852b:	83 c0 01             	add    $0x1,%eax
    852e:	89 05 34 dd 00 00    	mov    %eax,0xdd34(%rip)        # 16268 <g_1135>
    8534:	8b 05 2e dd 00 00    	mov    0xdd2e(%rip),%eax        # 16268 <g_1135>
    853a:	83 f8 03             	cmp    $0x3,%eax
    853d:	0f 8e 03 fd ff ff    	jle    8246 <func_39+0x26f>
    8543:	8b 85 7c ff ff ff    	mov    -0x84(%rbp),%eax
    8549:	48 8b 5d e8          	mov    -0x18(%rbp),%rbx
    854d:	64 48 33 1c 25 28 00 	xor    %fs:0x28,%rbx
    8554:	00 00 
    8556:	74 05                	je     855d <func_39+0x586>
    8558:	e8 13 bb ff ff       	callq  4070 <__stack_chk_fail@plt>
    855d:	48 81 c4 90 01 00 00 	add    $0x190,%rsp
    8564:	5b                   	pop    %rbx
    8565:	41 5c                	pop    %r12
    8567:	5d                   	pop    %rbp
    8568:	c3                   	retq   

0000000000008569 <func_42>:
    8569:	f3 0f 1e fa          	endbr64 
    856d:	55                   	push   %rbp
    856e:	48 89 e5             	mov    %rsp,%rbp
    8571:	41 56                	push   %r14
    8573:	41 55                	push   %r13
    8575:	41 54                	push   %r12
    8577:	53                   	push   %rbx
    8578:	48 81 ec e0 06 00 00 	sub    $0x6e0,%rsp
    857f:	48 89 bd 28 f9 ff ff 	mov    %rdi,-0x6d8(%rbp)
    8586:	48 89 b5 20 f9 ff ff 	mov    %rsi,-0x6e0(%rbp)
    858d:	48 89 95 18 f9 ff ff 	mov    %rdx,-0x6e8(%rbp)
    8594:	89 c8                	mov    %ecx,%eax
    8596:	4c 89 85 08 f9 ff ff 	mov    %r8,-0x6f8(%rbp)
    859d:	66 89 85 14 f9 ff ff 	mov    %ax,-0x6ec(%rbp)
    85a4:	64 48 8b 04 25 28 00 	mov    %fs:0x28,%rax
    85ab:	00 00 
    85ad:	48 89 45 d8          	mov    %rax,-0x28(%rbp)
    85b1:	31 c0                	xor    %eax,%eax
    85b3:	48 c7 85 b0 f9 ff ff 	movq   $0x0,-0x650(%rbp)
    85ba:	00 00 00 00 
    85be:	48 c7 85 90 fb ff ff 	movq   $0x0,-0x470(%rbp)
    85c5:	00 00 00 00 
    85c9:	48 c7 85 98 fb ff ff 	movq   $0x0,-0x468(%rbp)
    85d0:	00 00 00 00 
    85d4:	48 c7 85 a0 fb ff ff 	movq   $0x0,-0x460(%rbp)
    85db:	00 00 00 00 
    85df:	48 8d 05 6e da 00 00 	lea    0xda6e(%rip),%rax        # 16054 <g_59+0x14>
    85e6:	48 89 85 a8 fb ff ff 	mov    %rax,-0x458(%rbp)
    85ed:	48 8d 05 60 da 00 00 	lea    0xda60(%rip),%rax        # 16054 <g_59+0x14>
    85f4:	48 89 85 b0 fb ff ff 	mov    %rax,-0x450(%rbp)
    85fb:	48 8d 05 52 da 00 00 	lea    0xda52(%rip),%rax        # 16054 <g_59+0x14>
    8602:	48 89 85 b8 fb ff ff 	mov    %rax,-0x448(%rbp)
    8609:	48 c7 85 c0 fb ff ff 	movq   $0x0,-0x440(%rbp)
    8610:	00 00 00 00 
    8614:	48 c7 85 c8 fb ff ff 	movq   $0x0,-0x438(%rbp)
    861b:	00 00 00 00 
    861f:	48 c7 85 d0 fb ff ff 	movq   $0x0,-0x430(%rbp)
    8626:	00 00 00 00 
    862a:	48 c7 85 b8 f9 ff ff 	movq   $0xffffffffffffffff,-0x648(%rbp)
    8631:	ff ff ff ff 
    8635:	c7 85 68 f9 ff ff 9c 	movl   $0x275bf39c,-0x698(%rbp)
    863c:	f3 5b 27 
    863f:	48 8d 05 b2 da 00 00 	lea    0xdab2(%rip),%rax        # 160f8 <g_300>
    8646:	48 89 85 c0 f9 ff ff 	mov    %rax,-0x640(%rbp)
    864d:	48 b8 9f c4 22 44 3e 	movabs $0x5d4fb73e4422c49f,%rax
    8654:	b7 4f 5d 
    8657:	48 89 85 c8 f9 ff ff 	mov    %rax,-0x638(%rbp)
    865e:	66 c7 85 38 f9 ff ff 	movw   $0xfffe,-0x6c8(%rbp)
    8665:	fe ff 
    8667:	66 c7 85 90 fa ff ff 	movw   $0x2605,-0x570(%rbp)
    866e:	05 26 
    8670:	c6 85 92 fa ff ff 26 	movb   $0x26,-0x56e(%rbp)
    8677:	66 c7 85 93 fa ff ff 	movw   $0x103,-0x56d(%rbp)
    867e:	03 01 
    8680:	c6 85 95 fa ff ff 01 	movb   $0x1,-0x56b(%rbp)
    8687:	66 c7 85 96 fa ff ff 	movw   $0x2605,-0x56a(%rbp)
    868e:	05 26 
    8690:	c6 85 98 fa ff ff 26 	movb   $0x26,-0x568(%rbp)
    8697:	66 c7 85 99 fa ff ff 	movw   $0x103,-0x567(%rbp)
    869e:	03 01 
    86a0:	c6 85 9b fa ff ff 01 	movb   $0x1,-0x565(%rbp)
    86a7:	66 c7 85 9c fa ff ff 	movw   $0x2605,-0x564(%rbp)
    86ae:	05 26 
    86b0:	c6 85 9e fa ff ff 26 	movb   $0x26,-0x562(%rbp)
    86b7:	66 c7 85 9f fa ff ff 	movw   $0x103,-0x561(%rbp)
    86be:	03 01 
    86c0:	c6 85 a1 fa ff ff 01 	movb   $0x1,-0x55f(%rbp)
    86c7:	66 c7 85 a2 fa ff ff 	movw   $0x2605,-0x55e(%rbp)
    86ce:	05 26 
    86d0:	c6 85 a4 fa ff ff 26 	movb   $0x26,-0x55c(%rbp)
    86d7:	66 c7 85 a5 fa ff ff 	movw   $0x103,-0x55b(%rbp)
    86de:	03 01 
    86e0:	c6 85 a7 fa ff ff 01 	movb   $0x1,-0x559(%rbp)
    86e7:	66 c7 85 3a f9 ff ff 	movw   $0xfa87,-0x6c6(%rbp)
    86ee:	87 fa 
    86f0:	48 c7 85 78 f9 ff ff 	movq   $0x0,-0x688(%rbp)
    86f7:	00 00 00 00 
    86fb:	48 8d 85 78 f9 ff ff 	lea    -0x688(%rbp),%rax
    8702:	48 89 85 d0 f9 ff ff 	mov    %rax,-0x630(%rbp)
    8709:	c7 85 6c f9 ff ff 31 	movl   $0x78c5931,-0x694(%rbp)
    8710:	59 8c 07 
    8713:	c7 85 3c f9 ff ff 00 	movl   $0x0,-0x6c4(%rbp)
    871a:	00 00 00 
    871d:	eb 1b                	jmp    873a <func_42+0x1d1>
    871f:	8b 85 3c f9 ff ff    	mov    -0x6c4(%rbp),%eax
    8725:	48 98                	cltq   
    8727:	48 c7 84 c5 60 fa ff 	movq   $0x0,-0x5a0(%rbp,%rax,8)
    872e:	ff 00 00 00 00 
    8733:	83 85 3c f9 ff ff 01 	addl   $0x1,-0x6c4(%rbp)
    873a:	83 bd 3c f9 ff ff 01 	cmpl   $0x1,-0x6c4(%rbp)
    8741:	7e dc                	jle    871f <func_42+0x1b6>
    8743:	c7 85 3c f9 ff ff 00 	movl   $0x0,-0x6c4(%rbp)
    874a:	00 00 00 
    874d:	eb 4b                	jmp    879a <func_42+0x231>
    874f:	c7 85 40 f9 ff ff 00 	movl   $0x0,-0x6c0(%rbp)
    8756:	00 00 00 
    8759:	eb 2f                	jmp    878a <func_42+0x221>
    875b:	8b 85 40 f9 ff ff    	mov    -0x6c0(%rbp),%eax
    8761:	48 98                	cltq   
    8763:	8b 95 3c f9 ff ff    	mov    -0x6c4(%rbp),%edx
    8769:	48 63 d2             	movslq %edx,%rdx
    876c:	48 c1 e2 03          	shl    $0x3,%rdx
    8770:	48 8d 5d e0          	lea    -0x20(%rbp),%rbx
    8774:	48 01 da             	add    %rbx,%rdx
    8777:	48 01 d0             	add    %rdx,%rax
    877a:	48 2d 70 05 00 00    	sub    $0x570,%rax
    8780:	c6 00 01             	movb   $0x1,(%rax)
    8783:	83 85 40 f9 ff ff 01 	addl   $0x1,-0x6c0(%rbp)
    878a:	83 bd 40 f9 ff ff 07 	cmpl   $0x7,-0x6c0(%rbp)
    8791:	7e c8                	jle    875b <func_42+0x1f2>
    8793:	83 85 3c f9 ff ff 01 	addl   $0x1,-0x6c4(%rbp)
    879a:	83 bd 3c f9 ff ff 02 	cmpl   $0x2,-0x6c4(%rbp)
    87a1:	7e ac                	jle    874f <func_42+0x1e6>
    87a3:	c7 85 3c f9 ff ff 00 	movl   $0x0,-0x6c4(%rbp)
    87aa:	00 00 00 
    87ad:	eb 14                	jmp    87c3 <func_42+0x25a>
    87af:	8b 85 3c f9 ff ff    	mov    -0x6c4(%rbp),%eax
    87b5:	48 98                	cltq   
    87b7:	c6 44 05 d2 f9       	movb   $0xf9,-0x2e(%rbp,%rax,1)
    87bc:	83 85 3c f9 ff ff 01 	addl   $0x1,-0x6c4(%rbp)
    87c3:	83 bd 3c f9 ff ff 05 	cmpl   $0x5,-0x6c4(%rbp)
    87ca:	7e e3                	jle    87af <func_42+0x246>
    87cc:	48 8b 85 b0 f9 ff ff 	mov    -0x650(%rbp),%rax
    87d3:	48 89 85 98 fb ff ff 	mov    %rax,-0x468(%rbp)
    87da:	c7 85 68 f9 ff ff 00 	movl   $0x0,-0x698(%rbp)
    87e1:	00 00 00 
    87e4:	48 8b 05 b5 e7 00 00 	mov    0xe7b5(%rip),%rax        # 16fa0 <g_467>
    87eb:	0f b7 00             	movzwl (%rax),%eax
    87ee:	0f bf d8             	movswl %ax,%ebx
    87f1:	48 8b 85 18 f9 ff ff 	mov    -0x6e8(%rbp),%rax
    87f8:	48 89 85 c8 f9 ff ff 	mov    %rax,-0x638(%rbp)
    87ff:	66 83 bd 14 f9 ff ff 	cmpw   $0xffff,-0x6ec(%rbp)
    8806:	ff 
    8807:	0f 9c c0             	setl   %al
    880a:	0f b6 c0             	movzbl %al,%eax
    880d:	89 c6                	mov    %eax,%esi
    880f:	bf 23 44 00 00       	mov    $0x4423,%edi
    8814:	e8 ba bb ff ff       	callq  43d3 <safe_sub_func_int16_t_s_s>
    8819:	be b0 61 00 00       	mov    $0x61b0,%esi
    881e:	bf 04 00 00 00       	mov    $0x4,%edi
    8823:	e8 15 c5 ff ff       	callq  4d3d <safe_mul_func_uint16_t_u_u>
    8828:	f7 d0                	not    %eax
    882a:	98                   	cwtl   
    882b:	89 de                	mov    %ebx,%esi
    882d:	89 c7                	mov    %eax,%edi
    882f:	e8 21 bc ff ff       	callq  4455 <safe_div_func_int16_t_s_s>
    8834:	0f bf d8             	movswl %ax,%ebx
    8837:	be 07 00 00 00       	mov    $0x7,%esi
    883c:	bf 4d 00 00 00       	mov    $0x4d,%edi
    8841:	e8 47 c4 ff ff       	callq  4c8d <safe_rshift_func_uint8_t_u_s>
    8846:	48 8b 85 20 f9 ff ff 	mov    -0x6e0(%rbp),%rax
    884d:	0f b6 00             	movzbl (%rax),%eax
    8850:	8d 50 01             	lea    0x1(%rax),%edx
    8853:	48 8b 85 20 f9 ff ff 	mov    -0x6e0(%rbp),%rax
    885a:	88 10                	mov    %dl,(%rax)
    885c:	be 07 00 00 00       	mov    $0x7,%esi
    8861:	bf 01 00 00 00       	mov    $0x1,%edi
    8866:	e8 53 c4 ff ff       	callq  4cbe <safe_rshift_func_uint8_t_u_u>
    886b:	0f b6 d0             	movzbl %al,%edx
    886e:	48 8b 85 c0 f9 ff ff 	mov    -0x640(%rbp),%rax
    8875:	48 8b 8d 18 f9 ff ff 	mov    -0x6e8(%rbp),%rcx
    887c:	48 89 08             	mov    %rcx,(%rax)
    887f:	48 8b 85 c0 f9 ff ff 	mov    -0x640(%rbp),%rax
    8886:	48 8b 00             	mov    (%rax),%rax
    8889:	48 89 d6             	mov    %rdx,%rsi
    888c:	48 89 c7             	mov    %rax,%rdi
    888f:	e8 63 c1 ff ff       	callq  49f7 <safe_div_func_int64_t_s_s>
    8894:	48 c1 e8 3f          	shr    $0x3f,%rax
    8898:	0f b6 c0             	movzbl %al,%eax
    889b:	89 de                	mov    %ebx,%esi
    889d:	89 c7                	mov    %eax,%edi
    889f:	e8 51 bb ff ff       	callq  43f5 <safe_mul_func_int16_t_s_s>
    88a4:	0f be d0             	movsbl %al,%edx
    88a7:	48 8b 85 08 f9 ff ff 	mov    -0x6f8(%rbp),%rax
    88ae:	0f be c0             	movsbl %al,%eax
    88b1:	89 d6                	mov    %edx,%esi
    88b3:	89 c7                	mov    %eax,%edi
    88b5:	e8 77 b9 ff ff       	callq  4231 <safe_mod_func_int8_t_s_s>
    88ba:	0f be d0             	movsbl %al,%edx
    88bd:	0f b6 85 7b fa ff ff 	movzbl -0x585(%rbp),%eax
    88c4:	0f b6 c0             	movzbl %al,%eax
    88c7:	39 c2                	cmp    %eax,%edx
    88c9:	0f 9c c0             	setl   %al
    88cc:	0f b6 d0             	movzbl %al,%edx
    88cf:	0f b7 85 38 f9 ff ff 	movzwl -0x6c8(%rbp),%eax
    88d6:	98                   	cwtl   
    88d7:	39 c2                	cmp    %eax,%edx
    88d9:	0f 9c c0             	setl   %al
    88dc:	89 c2                	mov    %eax,%edx
    88de:	48 8b 85 18 f9 ff ff 	mov    -0x6e8(%rbp),%rax
    88e5:	21 d0                	and    %edx,%eax
    88e7:	88 85 9b fa ff ff    	mov    %al,-0x565(%rbp)
    88ed:	0f b6 85 9b fa ff ff 	movzbl -0x565(%rbp),%eax
    88f4:	84 c0                	test   %al,%al
    88f6:	74 5b                	je     8953 <func_42+0x3ea>
    88f8:	48 c7 85 30 fa ff ff 	movq   $0x2,-0x5d0(%rbp)
    88ff:	02 00 00 00 
    8903:	c6 85 37 f9 ff ff 01 	movb   $0x1,-0x6c9(%rbp)
    890a:	c7 85 44 f9 ff ff 00 	movl   $0x0,-0x6bc(%rbp)
    8911:	00 00 00 
    8914:	eb 1a                	jmp    8930 <func_42+0x3c7>
    8916:	8b 85 44 f9 ff ff    	mov    -0x6bc(%rbp),%eax
    891c:	48 98                	cltq   
    891e:	c7 84 85 00 fd ff ff 	movl   $0xebf1588a,-0x300(%rbp,%rax,4)
    8925:	8a 58 f1 eb 
    8929:	83 85 44 f9 ff ff 01 	addl   $0x1,-0x6bc(%rbp)
    8930:	83 bd 44 f9 ff ff 09 	cmpl   $0x9,-0x6bc(%rbp)
    8937:	7e dd                	jle    8916 <func_42+0x3ad>
    8939:	48 8b 85 18 f9 ff ff 	mov    -0x6e8(%rbp),%rax
    8940:	48 89 85 30 fa ff ff 	mov    %rax,-0x5d0(%rbp)
    8947:	80 ad 37 f9 ff ff 01 	subb   $0x1,-0x6c9(%rbp)
    894e:	e9 49 11 00 00       	jmpq   9a9c <func_42+0x1533>
    8953:	c7 85 b0 fa ff ff fd 	movl   $0xfffffffd,-0x550(%rbp)
    895a:	ff ff ff 
    895d:	c7 85 b4 fa ff ff 05 	movl   $0x5,-0x54c(%rbp)
    8964:	00 00 00 
    8967:	c7 85 b8 fa ff ff 05 	movl   $0x5,-0x548(%rbp)
    896e:	00 00 00 
    8971:	c7 85 bc fa ff ff fd 	movl   $0xfffffffd,-0x544(%rbp)
    8978:	ff ff ff 
    897b:	c7 85 c0 fa ff ff 05 	movl   $0x5,-0x540(%rbp)
    8982:	00 00 00 
    8985:	c7 85 c4 fa ff ff 05 	movl   $0x5,-0x53c(%rbp)
    898c:	00 00 00 
    898f:	c6 85 34 f9 ff ff 01 	movb   $0x1,-0x6cc(%rbp)
    8996:	48 8d 85 38 f9 ff ff 	lea    -0x6c8(%rbp),%rax
    899d:	48 89 85 d8 f9 ff ff 	mov    %rax,-0x628(%rbp)
    89a4:	c7 85 48 f9 ff ff 03 	movl   $0x3,-0x6b8(%rbp)
    89ab:	00 00 00 
    89ae:	66 c7 85 3c fa ff ff 	movw   $0x56,-0x5c4(%rbp)
    89b5:	56 00 
    89b7:	0f b6 85 3e fa ff ff 	movzbl -0x5c2(%rbp),%eax
    89be:	83 e0 e0             	and    $0xffffffe0,%eax
    89c1:	83 c8 1d             	or     $0x1d,%eax
    89c4:	88 85 3e fa ff ff    	mov    %al,-0x5c2(%rbp)
    89ca:	8b 85 40 fa ff ff    	mov    -0x5c0(%rbp),%eax
    89d0:	25 00 00 f8 ff       	and    $0xfff80000,%eax
    89d5:	0d 4a 01 00 00       	or     $0x14a,%eax
    89da:	89 85 40 fa ff ff    	mov    %eax,-0x5c0(%rbp)
    89e0:	66 c7 85 44 fa ff ff 	movw   $0xfff8,-0x5bc(%rbp)
    89e7:	f8 ff 
    89e9:	0f b6 85 46 fa ff ff 	movzbl -0x5ba(%rbp),%eax
    89f0:	83 e0 f0             	and    $0xfffffff0,%eax
    89f3:	83 c8 03             	or     $0x3,%eax
    89f6:	88 85 46 fa ff ff    	mov    %al,-0x5ba(%rbp)
    89fc:	c7 85 70 f9 ff ff 07 	movl   $0x7,-0x690(%rbp)
    8a03:	00 00 00 
    8a06:	c7 85 4c f9 ff ff 00 	movl   $0x0,-0x6b4(%rbp)
    8a0d:	00 00 00 
    8a10:	eb 71                	jmp    8a83 <func_42+0x51a>
    8a12:	c7 85 50 f9 ff ff 00 	movl   $0x0,-0x6b0(%rbp)
    8a19:	00 00 00 
    8a1c:	eb 55                	jmp    8a73 <func_42+0x50a>
    8a1e:	c7 85 54 f9 ff ff 00 	movl   $0x0,-0x6ac(%rbp)
    8a25:	00 00 00 
    8a28:	eb 39                	jmp    8a63 <func_42+0x4fa>
    8a2a:	8b 85 54 f9 ff ff    	mov    -0x6ac(%rbp),%eax
    8a30:	48 98                	cltq   
    8a32:	8b 95 4c f9 ff ff    	mov    -0x6b4(%rbp),%edx
    8a38:	48 63 ca             	movslq %edx,%rcx
    8a3b:	8b 95 50 f9 ff ff    	mov    -0x6b0(%rbp),%edx
    8a41:	48 63 d2             	movslq %edx,%rdx
    8a44:	48 c1 e1 03          	shl    $0x3,%rcx
    8a48:	48 01 ca             	add    %rcx,%rdx
    8a4b:	48 01 d2             	add    %rdx,%rdx
    8a4e:	48 01 d0             	add    %rdx,%rax
    8a51:	c7 84 85 50 fb ff ff 	movl   $0x3cdc31f6,-0x4b0(%rbp,%rax,4)
    8a58:	f6 31 dc 3c 
    8a5c:	83 85 54 f9 ff ff 01 	addl   $0x1,-0x6ac(%rbp)
    8a63:	83 bd 54 f9 ff ff 01 	cmpl   $0x1,-0x6ac(%rbp)
    8a6a:	7e be                	jle    8a2a <func_42+0x4c1>
    8a6c:	83 85 50 f9 ff ff 01 	addl   $0x1,-0x6b0(%rbp)
    8a73:	83 bd 50 f9 ff ff 07 	cmpl   $0x7,-0x6b0(%rbp)
    8a7a:	7e a2                	jle    8a1e <func_42+0x4b5>
    8a7c:	83 85 4c f9 ff ff 01 	addl   $0x1,-0x6b4(%rbp)
    8a83:	83 bd 4c f9 ff ff 00 	cmpl   $0x0,-0x6b4(%rbp)
    8a8a:	7e 86                	jle    8a12 <func_42+0x4a9>
    8a8c:	90                   	nop
    8a8d:	8b 85 b0 fa ff ff    	mov    -0x550(%rbp),%eax
    8a93:	83 e8 01             	sub    $0x1,%eax
    8a96:	89 85 b0 fa ff ff    	mov    %eax,-0x550(%rbp)
    8a9c:	48 c7 85 08 f9 ff ff 	movq   $0xfffffffffffffff3,-0x6f8(%rbp)
    8aa3:	f3 ff ff ff 
    8aa7:	e9 e2 0f 00 00       	jmpq   9a8e <func_42+0x1525>
    8aac:	c6 85 35 f9 ff ff 00 	movb   $0x0,-0x6cb(%rbp)
    8ab3:	48 8d 05 ae d7 00 00 	lea    0xd7ae(%rip),%rax        # 16268 <g_1135>
    8aba:	48 89 85 e0 f9 ff ff 	mov    %rax,-0x620(%rbp)
    8ac1:	48 8d 85 d0 fa ff ff 	lea    -0x530(%rbp),%rax
    8ac8:	48 83 c0 08          	add    $0x8,%rax
    8acc:	48 89 85 80 f9 ff ff 	mov    %rax,-0x680(%rbp)
    8ad3:	48 8d 85 80 f9 ff ff 	lea    -0x680(%rbp),%rax
    8ada:	48 89 85 00 fd ff ff 	mov    %rax,-0x300(%rbp)
    8ae1:	48 8d 85 80 f9 ff ff 	lea    -0x680(%rbp),%rax
    8ae8:	48 89 85 08 fd ff ff 	mov    %rax,-0x2f8(%rbp)
    8aef:	48 8d 85 80 f9 ff ff 	lea    -0x680(%rbp),%rax
    8af6:	48 89 85 10 fd ff ff 	mov    %rax,-0x2f0(%rbp)
    8afd:	48 8d 85 80 f9 ff ff 	lea    -0x680(%rbp),%rax
    8b04:	48 89 85 18 fd ff ff 	mov    %rax,-0x2e8(%rbp)
    8b0b:	48 8d 85 80 f9 ff ff 	lea    -0x680(%rbp),%rax
    8b12:	48 89 85 20 fd ff ff 	mov    %rax,-0x2e0(%rbp)
    8b19:	48 8d 85 80 f9 ff ff 	lea    -0x680(%rbp),%rax
    8b20:	48 89 85 28 fd ff ff 	mov    %rax,-0x2d8(%rbp)
    8b27:	48 8d 85 80 f9 ff ff 	lea    -0x680(%rbp),%rax
    8b2e:	48 89 85 30 fd ff ff 	mov    %rax,-0x2d0(%rbp)
    8b35:	48 8d 85 80 f9 ff ff 	lea    -0x680(%rbp),%rax
    8b3c:	48 89 85 38 fd ff ff 	mov    %rax,-0x2c8(%rbp)
    8b43:	48 8d 85 80 f9 ff ff 	lea    -0x680(%rbp),%rax
    8b4a:	48 89 85 40 fd ff ff 	mov    %rax,-0x2c0(%rbp)
    8b51:	48 8d 85 80 f9 ff ff 	lea    -0x680(%rbp),%rax
    8b58:	48 89 85 48 fd ff ff 	mov    %rax,-0x2b8(%rbp)
    8b5f:	48 8d 85 80 f9 ff ff 	lea    -0x680(%rbp),%rax
    8b66:	48 89 85 50 fd ff ff 	mov    %rax,-0x2b0(%rbp)
    8b6d:	48 8d 85 80 f9 ff ff 	lea    -0x680(%rbp),%rax
    8b74:	48 89 85 58 fd ff ff 	mov    %rax,-0x2a8(%rbp)
    8b7b:	48 8d 85 80 f9 ff ff 	lea    -0x680(%rbp),%rax
    8b82:	48 89 85 60 fd ff ff 	mov    %rax,-0x2a0(%rbp)
    8b89:	48 8d 85 80 f9 ff ff 	lea    -0x680(%rbp),%rax
    8b90:	48 89 85 68 fd ff ff 	mov    %rax,-0x298(%rbp)
    8b97:	48 8d 85 80 f9 ff ff 	lea    -0x680(%rbp),%rax
    8b9e:	48 89 85 70 fd ff ff 	mov    %rax,-0x290(%rbp)
    8ba5:	48 8d 85 80 f9 ff ff 	lea    -0x680(%rbp),%rax
    8bac:	48 89 85 78 fd ff ff 	mov    %rax,-0x288(%rbp)
    8bb3:	48 8d 85 80 f9 ff ff 	lea    -0x680(%rbp),%rax
    8bba:	48 89 85 80 fd ff ff 	mov    %rax,-0x280(%rbp)
    8bc1:	48 8d 85 80 f9 ff ff 	lea    -0x680(%rbp),%rax
    8bc8:	48 89 85 88 fd ff ff 	mov    %rax,-0x278(%rbp)
    8bcf:	48 8d 85 80 f9 ff ff 	lea    -0x680(%rbp),%rax
    8bd6:	48 89 85 90 fd ff ff 	mov    %rax,-0x270(%rbp)
    8bdd:	48 8d 85 80 f9 ff ff 	lea    -0x680(%rbp),%rax
    8be4:	48 89 85 98 fd ff ff 	mov    %rax,-0x268(%rbp)
    8beb:	48 8d 85 80 f9 ff ff 	lea    -0x680(%rbp),%rax
    8bf2:	48 89 85 a0 fd ff ff 	mov    %rax,-0x260(%rbp)
    8bf9:	48 8d 85 80 f9 ff ff 	lea    -0x680(%rbp),%rax
    8c00:	48 89 85 a8 fd ff ff 	mov    %rax,-0x258(%rbp)
    8c07:	48 8d 85 80 f9 ff ff 	lea    -0x680(%rbp),%rax
    8c0e:	48 89 85 b0 fd ff ff 	mov    %rax,-0x250(%rbp)
    8c15:	48 8d 85 80 f9 ff ff 	lea    -0x680(%rbp),%rax
    8c1c:	48 89 85 b8 fd ff ff 	mov    %rax,-0x248(%rbp)
    8c23:	48 8d 85 80 f9 ff ff 	lea    -0x680(%rbp),%rax
    8c2a:	48 89 85 c0 fd ff ff 	mov    %rax,-0x240(%rbp)
    8c31:	48 8d 85 80 f9 ff ff 	lea    -0x680(%rbp),%rax
    8c38:	48 89 85 c8 fd ff ff 	mov    %rax,-0x238(%rbp)
    8c3f:	48 8d 85 80 f9 ff ff 	lea    -0x680(%rbp),%rax
    8c46:	48 89 85 d0 fd ff ff 	mov    %rax,-0x230(%rbp)
    8c4d:	48 8d 85 80 f9 ff ff 	lea    -0x680(%rbp),%rax
    8c54:	48 89 85 d8 fd ff ff 	mov    %rax,-0x228(%rbp)
    8c5b:	48 8d 85 80 f9 ff ff 	lea    -0x680(%rbp),%rax
    8c62:	48 89 85 e0 fd ff ff 	mov    %rax,-0x220(%rbp)
    8c69:	48 8d 85 80 f9 ff ff 	lea    -0x680(%rbp),%rax
    8c70:	48 89 85 e8 fd ff ff 	mov    %rax,-0x218(%rbp)
    8c77:	48 8d 85 80 f9 ff ff 	lea    -0x680(%rbp),%rax
    8c7e:	48 89 85 f0 fd ff ff 	mov    %rax,-0x210(%rbp)
    8c85:	48 8d 85 80 f9 ff ff 	lea    -0x680(%rbp),%rax
    8c8c:	48 89 85 f8 fd ff ff 	mov    %rax,-0x208(%rbp)
    8c93:	48 8d 85 80 f9 ff ff 	lea    -0x680(%rbp),%rax
    8c9a:	48 89 85 00 fe ff ff 	mov    %rax,-0x200(%rbp)
    8ca1:	48 8d 85 80 f9 ff ff 	lea    -0x680(%rbp),%rax
    8ca8:	48 89 85 08 fe ff ff 	mov    %rax,-0x1f8(%rbp)
    8caf:	48 8d 85 80 f9 ff ff 	lea    -0x680(%rbp),%rax
    8cb6:	48 89 85 10 fe ff ff 	mov    %rax,-0x1f0(%rbp)
    8cbd:	48 8d 85 80 f9 ff ff 	lea    -0x680(%rbp),%rax
    8cc4:	48 89 85 18 fe ff ff 	mov    %rax,-0x1e8(%rbp)
    8ccb:	48 8d 85 80 f9 ff ff 	lea    -0x680(%rbp),%rax
    8cd2:	48 89 85 20 fe ff ff 	mov    %rax,-0x1e0(%rbp)
    8cd9:	48 8d 85 80 f9 ff ff 	lea    -0x680(%rbp),%rax
    8ce0:	48 89 85 28 fe ff ff 	mov    %rax,-0x1d8(%rbp)
    8ce7:	48 8d 85 80 f9 ff ff 	lea    -0x680(%rbp),%rax
    8cee:	48 89 85 30 fe ff ff 	mov    %rax,-0x1d0(%rbp)
    8cf5:	48 8d 85 80 f9 ff ff 	lea    -0x680(%rbp),%rax
    8cfc:	48 89 85 38 fe ff ff 	mov    %rax,-0x1c8(%rbp)
    8d03:	48 8d 85 80 f9 ff ff 	lea    -0x680(%rbp),%rax
    8d0a:	48 89 85 40 fe ff ff 	mov    %rax,-0x1c0(%rbp)
    8d11:	48 8d 85 80 f9 ff ff 	lea    -0x680(%rbp),%rax
    8d18:	48 89 85 48 fe ff ff 	mov    %rax,-0x1b8(%rbp)
    8d1f:	48 8d 85 80 f9 ff ff 	lea    -0x680(%rbp),%rax
    8d26:	48 89 85 50 fe ff ff 	mov    %rax,-0x1b0(%rbp)
    8d2d:	48 8d 85 80 f9 ff ff 	lea    -0x680(%rbp),%rax
    8d34:	48 89 85 58 fe ff ff 	mov    %rax,-0x1a8(%rbp)
    8d3b:	48 8d 85 80 f9 ff ff 	lea    -0x680(%rbp),%rax
    8d42:	48 89 85 60 fe ff ff 	mov    %rax,-0x1a0(%rbp)
    8d49:	48 8d 85 80 f9 ff ff 	lea    -0x680(%rbp),%rax
    8d50:	48 89 85 68 fe ff ff 	mov    %rax,-0x198(%rbp)
    8d57:	48 8d 85 80 f9 ff ff 	lea    -0x680(%rbp),%rax
    8d5e:	48 89 85 70 fe ff ff 	mov    %rax,-0x190(%rbp)
    8d65:	48 8d 85 80 f9 ff ff 	lea    -0x680(%rbp),%rax
    8d6c:	48 89 85 78 fe ff ff 	mov    %rax,-0x188(%rbp)
    8d73:	48 8d 85 80 f9 ff ff 	lea    -0x680(%rbp),%rax
    8d7a:	48 89 85 80 fe ff ff 	mov    %rax,-0x180(%rbp)
    8d81:	48 8d 85 80 f9 ff ff 	lea    -0x680(%rbp),%rax
    8d88:	48 89 85 88 fe ff ff 	mov    %rax,-0x178(%rbp)
    8d8f:	48 8d 85 80 f9 ff ff 	lea    -0x680(%rbp),%rax
    8d96:	48 89 85 90 fe ff ff 	mov    %rax,-0x170(%rbp)
    8d9d:	48 8d 85 80 f9 ff ff 	lea    -0x680(%rbp),%rax
    8da4:	48 89 85 98 fe ff ff 	mov    %rax,-0x168(%rbp)
    8dab:	48 8d 85 80 f9 ff ff 	lea    -0x680(%rbp),%rax
    8db2:	48 89 85 a0 fe ff ff 	mov    %rax,-0x160(%rbp)
    8db9:	48 8d 85 80 f9 ff ff 	lea    -0x680(%rbp),%rax
    8dc0:	48 89 85 a8 fe ff ff 	mov    %rax,-0x158(%rbp)
    8dc7:	48 8d 85 80 f9 ff ff 	lea    -0x680(%rbp),%rax
    8dce:	48 89 85 b0 fe ff ff 	mov    %rax,-0x150(%rbp)
    8dd5:	48 8d 85 80 f9 ff ff 	lea    -0x680(%rbp),%rax
    8ddc:	48 89 85 b8 fe ff ff 	mov    %rax,-0x148(%rbp)
    8de3:	48 8d 85 80 f9 ff ff 	lea    -0x680(%rbp),%rax
    8dea:	48 89 85 c0 fe ff ff 	mov    %rax,-0x140(%rbp)
    8df1:	48 8d 85 80 f9 ff ff 	lea    -0x680(%rbp),%rax
    8df8:	48 89 85 c8 fe ff ff 	mov    %rax,-0x138(%rbp)
    8dff:	48 8d 85 80 f9 ff ff 	lea    -0x680(%rbp),%rax
    8e06:	48 89 85 d0 fe ff ff 	mov    %rax,-0x130(%rbp)
    8e0d:	48 8d 85 80 f9 ff ff 	lea    -0x680(%rbp),%rax
    8e14:	48 89 85 d8 fe ff ff 	mov    %rax,-0x128(%rbp)
    8e1b:	48 8d 85 80 f9 ff ff 	lea    -0x680(%rbp),%rax
    8e22:	48 89 85 e0 fe ff ff 	mov    %rax,-0x120(%rbp)
    8e29:	48 8d 85 80 f9 ff ff 	lea    -0x680(%rbp),%rax
    8e30:	48 89 85 e8 fe ff ff 	mov    %rax,-0x118(%rbp)
    8e37:	48 8d 85 80 f9 ff ff 	lea    -0x680(%rbp),%rax
    8e3e:	48 89 85 f0 fe ff ff 	mov    %rax,-0x110(%rbp)
    8e45:	48 8d 85 80 f9 ff ff 	lea    -0x680(%rbp),%rax
    8e4c:	48 89 85 f8 fe ff ff 	mov    %rax,-0x108(%rbp)
    8e53:	48 8d 85 80 f9 ff ff 	lea    -0x680(%rbp),%rax
    8e5a:	48 89 85 00 ff ff ff 	mov    %rax,-0x100(%rbp)
    8e61:	48 8d 85 80 f9 ff ff 	lea    -0x680(%rbp),%rax
    8e68:	48 89 85 08 ff ff ff 	mov    %rax,-0xf8(%rbp)
    8e6f:	48 8d 85 80 f9 ff ff 	lea    -0x680(%rbp),%rax
    8e76:	48 89 85 10 ff ff ff 	mov    %rax,-0xf0(%rbp)
    8e7d:	48 8d 85 80 f9 ff ff 	lea    -0x680(%rbp),%rax
    8e84:	48 89 85 18 ff ff ff 	mov    %rax,-0xe8(%rbp)
    8e8b:	48 8d 85 80 f9 ff ff 	lea    -0x680(%rbp),%rax
    8e92:	48 89 85 20 ff ff ff 	mov    %rax,-0xe0(%rbp)
    8e99:	48 8d 85 80 f9 ff ff 	lea    -0x680(%rbp),%rax
    8ea0:	48 89 85 28 ff ff ff 	mov    %rax,-0xd8(%rbp)
    8ea7:	48 8d 85 80 f9 ff ff 	lea    -0x680(%rbp),%rax
    8eae:	48 89 85 30 ff ff ff 	mov    %rax,-0xd0(%rbp)
    8eb5:	48 8d 85 80 f9 ff ff 	lea    -0x680(%rbp),%rax
    8ebc:	48 89 85 38 ff ff ff 	mov    %rax,-0xc8(%rbp)
    8ec3:	48 8d 85 80 f9 ff ff 	lea    -0x680(%rbp),%rax
    8eca:	48 89 85 40 ff ff ff 	mov    %rax,-0xc0(%rbp)
    8ed1:	48 8d 85 80 f9 ff ff 	lea    -0x680(%rbp),%rax
    8ed8:	48 89 85 48 ff ff ff 	mov    %rax,-0xb8(%rbp)
    8edf:	48 8d 85 80 f9 ff ff 	lea    -0x680(%rbp),%rax
    8ee6:	48 89 85 50 ff ff ff 	mov    %rax,-0xb0(%rbp)
    8eed:	48 8d 85 80 f9 ff ff 	lea    -0x680(%rbp),%rax
    8ef4:	48 89 85 58 ff ff ff 	mov    %rax,-0xa8(%rbp)
    8efb:	48 8d 85 80 f9 ff ff 	lea    -0x680(%rbp),%rax
    8f02:	48 89 85 60 ff ff ff 	mov    %rax,-0xa0(%rbp)
    8f09:	48 8d 85 80 f9 ff ff 	lea    -0x680(%rbp),%rax
    8f10:	48 89 85 68 ff ff ff 	mov    %rax,-0x98(%rbp)
    8f17:	48 8d 85 80 f9 ff ff 	lea    -0x680(%rbp),%rax
    8f1e:	48 89 85 70 ff ff ff 	mov    %rax,-0x90(%rbp)
    8f25:	48 8d 85 80 f9 ff ff 	lea    -0x680(%rbp),%rax
    8f2c:	48 89 85 78 ff ff ff 	mov    %rax,-0x88(%rbp)
    8f33:	48 8d 85 80 f9 ff ff 	lea    -0x680(%rbp),%rax
    8f3a:	48 89 45 80          	mov    %rax,-0x80(%rbp)
    8f3e:	48 8d 85 80 f9 ff ff 	lea    -0x680(%rbp),%rax
    8f45:	48 89 45 88          	mov    %rax,-0x78(%rbp)
    8f49:	48 8d 85 80 f9 ff ff 	lea    -0x680(%rbp),%rax
    8f50:	48 89 45 90          	mov    %rax,-0x70(%rbp)
    8f54:	48 8d 85 80 f9 ff ff 	lea    -0x680(%rbp),%rax
    8f5b:	48 89 45 98          	mov    %rax,-0x68(%rbp)
    8f5f:	48 8d 85 80 f9 ff ff 	lea    -0x680(%rbp),%rax
    8f66:	48 89 45 a0          	mov    %rax,-0x60(%rbp)
    8f6a:	48 8d 85 80 f9 ff ff 	lea    -0x680(%rbp),%rax
    8f71:	48 89 45 a8          	mov    %rax,-0x58(%rbp)
    8f75:	48 8d 85 80 f9 ff ff 	lea    -0x680(%rbp),%rax
    8f7c:	48 89 45 b0          	mov    %rax,-0x50(%rbp)
    8f80:	48 8d 85 80 f9 ff ff 	lea    -0x680(%rbp),%rax
    8f87:	48 89 45 b8          	mov    %rax,-0x48(%rbp)
    8f8b:	48 8d 85 80 f9 ff ff 	lea    -0x680(%rbp),%rax
    8f92:	48 89 45 c0          	mov    %rax,-0x40(%rbp)
    8f96:	48 8d 85 80 f9 ff ff 	lea    -0x680(%rbp),%rax
    8f9d:	48 89 45 c8          	mov    %rax,-0x38(%rbp)
    8fa1:	48 8d 85 00 fd ff ff 	lea    -0x300(%rbp),%rax
    8fa8:	48 05 38 02 00 00    	add    $0x238,%rax
    8fae:	48 89 85 88 f9 ff ff 	mov    %rax,-0x678(%rbp)
    8fb5:	48 8d 85 88 f9 ff ff 	lea    -0x678(%rbp),%rax
    8fbc:	48 89 85 e8 f9 ff ff 	mov    %rax,-0x618(%rbp)
    8fc3:	66 c7 85 48 fa ff ff 	movw   $0x36,-0x5b8(%rbp)
    8fca:	36 00 
    8fcc:	0f b6 85 4a fa ff ff 	movzbl -0x5b6(%rbp),%eax
    8fd3:	83 e0 e0             	and    $0xffffffe0,%eax
    8fd6:	83 c8 1e             	or     $0x1e,%eax
    8fd9:	88 85 4a fa ff ff    	mov    %al,-0x5b6(%rbp)
    8fdf:	8b 85 4c fa ff ff    	mov    -0x5b4(%rbp),%eax
    8fe5:	25 00 00 f8 ff       	and    $0xfff80000,%eax
    8fea:	83 c8 5e             	or     $0x5e,%eax
    8fed:	89 85 4c fa ff ff    	mov    %eax,-0x5b4(%rbp)
    8ff3:	66 c7 85 50 fa ff ff 	movw   $0xffff,-0x5b0(%rbp)
    8ffa:	ff ff 
    8ffc:	0f b6 85 52 fa ff ff 	movzbl -0x5ae(%rbp),%eax
    9003:	83 e0 f0             	and    $0xfffffff0,%eax
    9006:	83 c8 0d             	or     $0xd,%eax
    9009:	88 85 52 fa ff ff    	mov    %al,-0x5ae(%rbp)
    900f:	48 8d 05 62 d0 00 00 	lea    0xd062(%rip),%rax        # 16078 <g_197>
    9016:	48 89 85 20 fb ff ff 	mov    %rax,-0x4e0(%rbp)
    901d:	48 c7 85 28 fb ff ff 	movq   $0x0,-0x4d8(%rbp)
    9024:	00 00 00 00 
    9028:	48 c7 85 30 fb ff ff 	movq   $0x0,-0x4d0(%rbp)
    902f:	00 00 00 00 
    9033:	48 8d 05 3e d0 00 00 	lea    0xd03e(%rip),%rax        # 16078 <g_197>
    903a:	48 89 85 38 fb ff ff 	mov    %rax,-0x4c8(%rbp)
    9041:	48 c7 85 40 fb ff ff 	movq   $0x0,-0x4c0(%rbp)
    9048:	00 00 00 00 
    904c:	48 c7 85 48 fb ff ff 	movq   $0x0,-0x4b8(%rbp)
    9053:	00 00 00 00 
    9057:	48 8d 85 20 fb ff ff 	lea    -0x4e0(%rbp),%rax
    905e:	48 83 c0 08          	add    $0x8,%rax
    9062:	48 89 85 90 f9 ff ff 	mov    %rax,-0x670(%rbp)
    9069:	48 8d 85 90 f9 ff ff 	lea    -0x670(%rbp),%rax
    9070:	48 89 85 98 f9 ff ff 	mov    %rax,-0x668(%rbp)
    9077:	48 8d 85 98 f9 ff ff 	lea    -0x668(%rbp),%rax
    907e:	48 89 85 a0 f9 ff ff 	mov    %rax,-0x660(%rbp)
    9085:	48 8d 85 a0 f9 ff ff 	lea    -0x660(%rbp),%rax
    908c:	48 89 85 f0 f9 ff ff 	mov    %rax,-0x610(%rbp)
    9093:	c7 85 58 f9 ff ff 00 	movl   $0x0,-0x6a8(%rbp)
    909a:	00 00 00 
    909d:	eb 45                	jmp    90e4 <func_42+0xb7b>
    909f:	c7 85 5c f9 ff ff 00 	movl   $0x0,-0x6a4(%rbp)
    90a6:	00 00 00 
    90a9:	eb 29                	jmp    90d4 <func_42+0xb6b>
    90ab:	8b 85 5c f9 ff ff    	mov    -0x6a4(%rbp),%eax
    90b1:	48 98                	cltq   
    90b3:	8b 95 58 f9 ff ff    	mov    -0x6a8(%rbp),%edx
    90b9:	48 63 d2             	movslq %edx,%rdx
    90bc:	48 c1 e2 02          	shl    $0x2,%rdx
    90c0:	48 01 d0             	add    %rdx,%rax
    90c3:	66 c7 84 45 d0 fa ff 	movw   $0x1,-0x530(%rbp,%rax,2)
    90ca:	ff 01 00 
    90cd:	83 85 5c f9 ff ff 01 	addl   $0x1,-0x6a4(%rbp)
    90d4:	83 bd 5c f9 ff ff 03 	cmpl   $0x3,-0x6a4(%rbp)
    90db:	7e ce                	jle    90ab <func_42+0xb42>
    90dd:	83 85 58 f9 ff ff 01 	addl   $0x1,-0x6a8(%rbp)
    90e4:	83 bd 58 f9 ff ff 03 	cmpl   $0x3,-0x6a8(%rbp)
    90eb:	7e b2                	jle    909f <func_42+0xb36>
    90ed:	0f b7 85 d8 fa ff ff 	movzwl -0x528(%rbp),%eax
    90f4:	83 c0 01             	add    $0x1,%eax
    90f7:	66 89 85 d8 fa ff ff 	mov    %ax,-0x528(%rbp)
    90fe:	66 c7 05 09 ed 00 00 	movw   $0x4,0xed09(%rip)        # 17e10 <g_191>
    9105:	04 00 
    9107:	e9 5a 08 00 00       	jmpq   9966 <func_42+0x13fd>
    910c:	48 c7 85 f8 f9 ff ff 	movq   $0x0,-0x608(%rbp)
    9113:	00 00 00 00 
    9117:	66 c7 85 54 fa ff ff 	movw   $0x29,-0x5ac(%rbp)
    911e:	29 00 
    9120:	0f b6 85 56 fa ff ff 	movzbl -0x5aa(%rbp),%eax
    9127:	83 e0 e0             	and    $0xffffffe0,%eax
    912a:	88 85 56 fa ff ff    	mov    %al,-0x5aa(%rbp)
    9130:	8b 85 58 fa ff ff    	mov    -0x5a8(%rbp),%eax
    9136:	25 00 00 f8 ff       	and    $0xfff80000,%eax
    913b:	0d 66 ff 07 00       	or     $0x7ff66,%eax
    9140:	89 85 58 fa ff ff    	mov    %eax,-0x5a8(%rbp)
    9146:	66 c7 85 5c fa ff ff 	movw   $0x29bc,-0x5a4(%rbp)
    914d:	bc 29 
    914f:	0f b6 85 5e fa ff ff 	movzbl -0x5a2(%rbp),%eax
    9156:	83 e0 f0             	and    $0xfffffff0,%eax
    9159:	83 c8 0e             	or     $0xe,%eax
    915c:	88 85 5e fa ff ff    	mov    %al,-0x5a2(%rbp)
    9162:	48 8d 05 eb ce 00 00 	lea    0xceeb(%rip),%rax        # 16054 <g_59+0x14>
    9169:	48 89 85 30 fc ff ff 	mov    %rax,-0x3d0(%rbp)
    9170:	48 8d 05 dd ce 00 00 	lea    0xcedd(%rip),%rax        # 16054 <g_59+0x14>
    9177:	48 89 85 38 fc ff ff 	mov    %rax,-0x3c8(%rbp)
    917e:	48 8d 05 cf ce 00 00 	lea    0xcecf(%rip),%rax        # 16054 <g_59+0x14>
    9185:	48 89 85 40 fc ff ff 	mov    %rax,-0x3c0(%rbp)
    918c:	48 8d 05 c1 ce 00 00 	lea    0xcec1(%rip),%rax        # 16054 <g_59+0x14>
    9193:	48 89 85 48 fc ff ff 	mov    %rax,-0x3b8(%rbp)
    919a:	48 8d 05 b3 ce 00 00 	lea    0xceb3(%rip),%rax        # 16054 <g_59+0x14>
    91a1:	48 89 85 50 fc ff ff 	mov    %rax,-0x3b0(%rbp)
    91a8:	48 8d 05 a5 ce 00 00 	lea    0xcea5(%rip),%rax        # 16054 <g_59+0x14>
    91af:	48 89 85 58 fc ff ff 	mov    %rax,-0x3a8(%rbp)
    91b6:	48 8d 05 97 ce 00 00 	lea    0xce97(%rip),%rax        # 16054 <g_59+0x14>
    91bd:	48 89 85 60 fc ff ff 	mov    %rax,-0x3a0(%rbp)
    91c4:	48 8d 05 a5 ce 00 00 	lea    0xcea5(%rip),%rax        # 16070 <g_194>
    91cb:	48 89 85 68 fc ff ff 	mov    %rax,-0x398(%rbp)
    91d2:	48 8d 05 7b ce 00 00 	lea    0xce7b(%rip),%rax        # 16054 <g_59+0x14>
    91d9:	48 89 85 70 fc ff ff 	mov    %rax,-0x390(%rbp)
    91e0:	48 8d 05 6d ce 00 00 	lea    0xce6d(%rip),%rax        # 16054 <g_59+0x14>
    91e7:	48 89 85 78 fc ff ff 	mov    %rax,-0x388(%rbp)
    91ee:	48 8d 05 5f ce 00 00 	lea    0xce5f(%rip),%rax        # 16054 <g_59+0x14>
    91f5:	48 89 85 80 fc ff ff 	mov    %rax,-0x380(%rbp)
    91fc:	48 8d 05 51 ce 00 00 	lea    0xce51(%rip),%rax        # 16054 <g_59+0x14>
    9203:	48 89 85 88 fc ff ff 	mov    %rax,-0x378(%rbp)
    920a:	48 8d 05 43 ce 00 00 	lea    0xce43(%rip),%rax        # 16054 <g_59+0x14>
    9211:	48 89 85 90 fc ff ff 	mov    %rax,-0x370(%rbp)
    9218:	48 8d 05 35 ce 00 00 	lea    0xce35(%rip),%rax        # 16054 <g_59+0x14>
    921f:	48 89 85 98 fc ff ff 	mov    %rax,-0x368(%rbp)
    9226:	48 8d 05 27 ce 00 00 	lea    0xce27(%rip),%rax        # 16054 <g_59+0x14>
    922d:	48 89 85 a0 fc ff ff 	mov    %rax,-0x360(%rbp)
    9234:	48 8d 05 19 ce 00 00 	lea    0xce19(%rip),%rax        # 16054 <g_59+0x14>
    923b:	48 89 85 a8 fc ff ff 	mov    %rax,-0x358(%rbp)
    9242:	48 8d 05 0b ce 00 00 	lea    0xce0b(%rip),%rax        # 16054 <g_59+0x14>
    9249:	48 89 85 b0 fc ff ff 	mov    %rax,-0x350(%rbp)
    9250:	48 8d 05 fd cd 00 00 	lea    0xcdfd(%rip),%rax        # 16054 <g_59+0x14>
    9257:	48 89 85 b8 fc ff ff 	mov    %rax,-0x348(%rbp)
    925e:	48 8d 05 ef cd 00 00 	lea    0xcdef(%rip),%rax        # 16054 <g_59+0x14>
    9265:	48 89 85 c0 fc ff ff 	mov    %rax,-0x340(%rbp)
    926c:	48 8d 05 e1 cd 00 00 	lea    0xcde1(%rip),%rax        # 16054 <g_59+0x14>
    9273:	48 89 85 c8 fc ff ff 	mov    %rax,-0x338(%rbp)
    927a:	48 8d 05 d3 cd 00 00 	lea    0xcdd3(%rip),%rax        # 16054 <g_59+0x14>
    9281:	48 89 85 d0 fc ff ff 	mov    %rax,-0x330(%rbp)
    9288:	48 8d 05 c5 cd 00 00 	lea    0xcdc5(%rip),%rax        # 16054 <g_59+0x14>
    928f:	48 89 85 d8 fc ff ff 	mov    %rax,-0x328(%rbp)
    9296:	48 8d 05 d3 cd 00 00 	lea    0xcdd3(%rip),%rax        # 16070 <g_194>
    929d:	48 89 85 e0 fc ff ff 	mov    %rax,-0x320(%rbp)
    92a4:	48 8d 05 a9 cd 00 00 	lea    0xcda9(%rip),%rax        # 16054 <g_59+0x14>
    92ab:	48 89 85 e8 fc ff ff 	mov    %rax,-0x318(%rbp)
    92b2:	48 8d 05 9b cd 00 00 	lea    0xcd9b(%rip),%rax        # 16054 <g_59+0x14>
    92b9:	48 89 85 f0 fc ff ff 	mov    %rax,-0x310(%rbp)
    92c0:	c7 85 60 f9 ff ff 00 	movl   $0x0,-0x6a0(%rbp)
    92c7:	00 00 00 
    92ca:	eb 1b                	jmp    92e7 <func_42+0xd7e>
    92cc:	8b 85 60 f9 ff ff    	mov    -0x6a0(%rbp),%eax
    92d2:	48 98                	cltq   
    92d4:	48 c7 84 c5 f0 fa ff 	movq   $0x0,-0x510(%rbp,%rax,8)
    92db:	ff 00 00 00 00 
    92e0:	83 85 60 f9 ff ff 01 	addl   $0x1,-0x6a0(%rbp)
    92e7:	83 bd 60 f9 ff ff 04 	cmpl   $0x4,-0x6a0(%rbp)
    92ee:	7e dc                	jle    92cc <func_42+0xd63>
    92f0:	48 0f be 9d 34 f9 ff 	movsbq -0x6cc(%rbp),%rbx
    92f7:	ff 
    92f8:	48 8b 05 a1 dc 00 00 	mov    0xdca1(%rip),%rax        # 16fa0 <g_467>
    92ff:	0f b7 00             	movzwl (%rax),%eax
    9302:	66 85 c0             	test   %ax,%ax
    9305:	0f 89 e1 00 00 00    	jns    93ec <func_42+0xe83>
    930b:	48 8b 85 18 f9 ff ff 	mov    -0x6e8(%rbp),%rax
    9312:	44 0f be e0          	movsbl %al,%r12d
    9316:	48 8b 85 08 f9 ff ff 	mov    -0x6f8(%rbp),%rax
    931d:	41 89 c5             	mov    %eax,%r13d
    9320:	48 8b 85 08 f9 ff ff 	mov    -0x6f8(%rbp),%rax
    9327:	48 89 c6             	mov    %rax,%rsi
    932a:	bf 01 00 00 00       	mov    $0x1,%edi
    932f:	e8 74 b5 ff ff       	callq  48a8 <safe_sub_func_int64_t_s_s>
    9334:	48 8b 85 18 f9 ff ff 	mov    -0x6e8(%rbp),%rax
    933b:	48 3b 85 08 f9 ff ff 	cmp    -0x6f8(%rbp),%rax
    9342:	0f 9f c0             	setg   %al
    9345:	0f b6 d0             	movzbl %al,%edx
    9348:	0f bf 85 3a f9 ff ff 	movswl -0x6c6(%rbp),%eax
    934f:	21 d0                	and    %edx,%eax
    9351:	89 c6                	mov    %eax,%esi
    9353:	bf 00 00 00 00       	mov    $0x0,%edi
    9358:	e8 cd b1 ff ff       	callq  452a <safe_rshift_func_int16_t_s_s>
    935d:	0f bf d0             	movswl %ax,%edx
    9360:	0f b6 85 35 f9 ff ff 	movzbl -0x6cb(%rbp),%eax
    9367:	39 c2                	cmp    %eax,%edx
    9369:	0f 9f c0             	setg   %al
    936c:	0f b6 c0             	movzbl %al,%eax
    936f:	44 89 ee             	mov    %r13d,%esi
    9372:	89 c7                	mov    %eax,%edi
    9374:	e8 8d ba ff ff       	callq  4e06 <safe_lshift_func_uint16_t_u_u>
    9379:	44 89 e6             	mov    %r12d,%esi
    937c:	bf 00 00 00 00       	mov    $0x0,%edi
    9381:	e8 ab ae ff ff       	callq  4231 <safe_mod_func_int8_t_s_s>
    9386:	0f be d0             	movsbl %al,%edx
    9389:	48 8b 05 f0 db 00 00 	mov    0xdbf0(%rip),%rax        # 16f80 <g_18>
    9390:	0f b6 08             	movzbl (%rax),%ecx
    9393:	66 83 bd 14 f9 ff ff 	cmpw   $0x0,-0x6ec(%rbp)
    939a:	00 
    939b:	74 13                	je     93b0 <func_42+0xe47>
    939d:	48 8b 85 10 fb ff ff 	mov    -0x4f0(%rbp),%rax
    93a4:	48 85 c0             	test   %rax,%rax
    93a7:	74 07                	je     93b0 <func_42+0xe47>
    93a9:	b8 01 00 00 00       	mov    $0x1,%eax
    93ae:	eb 05                	jmp    93b5 <func_42+0xe4c>
    93b0:	b8 00 00 00 00       	mov    $0x0,%eax
    93b5:	89 c6                	mov    %eax,%esi
    93b7:	48 8b 05 c2 db 00 00 	mov    0xdbc2(%rip),%rax        # 16f80 <g_18>
    93be:	21 f1                	and    %esi,%ecx
    93c0:	88 08                	mov    %cl,(%rax)
    93c2:	0f b6 00             	movzbl (%rax),%eax
    93c5:	8b 8d 54 fb ff ff    	mov    -0x4ac(%rbp),%ecx
    93cb:	0f be c0             	movsbl %al,%eax
    93ce:	09 c8                	or     %ecx,%eax
    93d0:	89 85 54 fb ff ff    	mov    %eax,-0x4ac(%rbp)
    93d6:	8b 85 54 fb ff ff    	mov    -0x4ac(%rbp),%eax
    93dc:	0f be c0             	movsbl %al,%eax
    93df:	89 d6                	mov    %edx,%esi
    93e1:	89 c7                	mov    %eax,%edi
    93e3:	e8 49 ae ff ff       	callq  4231 <safe_mod_func_int8_t_s_s>
    93e8:	84 c0                	test   %al,%al
    93ea:	74 07                	je     93f3 <func_42+0xe8a>
    93ec:	b8 01 00 00 00       	mov    $0x1,%eax
    93f1:	eb 05                	jmp    93f8 <func_42+0xe8f>
    93f3:	b8 00 00 00 00       	mov    $0x0,%eax
    93f8:	83 f8 01             	cmp    $0x1,%eax
    93fb:	0f 96 c0             	setbe  %al
    93fe:	0f b6 c0             	movzbl %al,%eax
    9401:	48 89 de             	mov    %rbx,%rsi
    9404:	48 89 c7             	mov    %rax,%rdi
    9407:	e8 35 b4 ff ff       	callq  4841 <safe_add_func_int64_t_s_s>
    940c:	48 85 c0             	test   %rax,%rax
    940f:	0f 84 df 00 00 00    	je     94f4 <func_42+0xf8b>
    9415:	c6 85 36 f9 ff ff ff 	movb   $0xff,-0x6ca(%rbp)
    941c:	c7 85 64 f9 ff ff 76 	movl   $0x5305c076,-0x69c(%rbp)
    9423:	c0 05 53 
    9426:	48 8d 05 93 e5 00 00 	lea    0xe593(%rip),%rax        # 179c0 <g_1213>
    942d:	48 89 85 28 fa ff ff 	mov    %rax,-0x5d8(%rbp)
    9434:	80 bd 36 f9 ff ff 00 	cmpb   $0x0,-0x6ca(%rbp)
    943b:	0f 85 38 05 00 00    	jne    9979 <func_42+0x1410>
    9441:	0f b7 85 dc fa ff ff 	movzwl -0x524(%rbp),%eax
    9448:	66 85 c0             	test   %ax,%ax
    944b:	0f 85 2b 05 00 00    	jne    997c <func_42+0x1413>
    9451:	c7 05 15 cc 00 00 01 	movl   $0x1,0xcc15(%rip)        # 16070 <g_194>
    9458:	00 00 00 
    945b:	eb 74                	jmp    94d1 <func_42+0xf68>
    945d:	48 8b 95 08 fb ff ff 	mov    -0x4f8(%rbp),%rdx
    9464:	8b 05 06 cc 00 00    	mov    0xcc06(%rip),%eax        # 16070 <g_194>
    946a:	83 c0 05             	add    $0x5,%eax
    946d:	89 d6                	mov    %edx,%esi
    946f:	48 63 d0             	movslq %eax,%rdx
    9472:	48 8d 0c 95 00 00 00 	lea    0x0(,%rdx,4),%rcx
    9479:	00 
    947a:	48 8d 15 bf cb 00 00 	lea    0xcbbf(%rip),%rdx        # 16040 <g_59>
    9481:	89 34 11             	mov    %esi,(%rcx,%rdx,1)
    9484:	48 98                	cltq   
    9486:	48 8d 14 85 00 00 00 	lea    0x0(,%rax,4),%rdx
    948d:	00 
    948e:	48 8d 05 ab cb 00 00 	lea    0xcbab(%rip),%rax        # 16040 <g_59>
    9495:	8b 04 02             	mov    (%rdx,%rax,1),%eax
    9498:	89 85 54 fb ff ff    	mov    %eax,-0x4ac(%rbp)
    949e:	8b 85 54 fb ff ff    	mov    -0x4ac(%rbp),%eax
    94a4:	85 c0                	test   %eax,%eax
    94a6:	75 19                	jne    94c1 <func_42+0xf58>
    94a8:	0f be 85 36 f9 ff ff 	movsbl -0x6ca(%rbp),%eax
    94af:	21 85 64 f9 ff ff    	and    %eax,-0x69c(%rbp)
    94b5:	48 83 bd 18 f9 ff ff 	cmpq   $0x0,-0x6e8(%rbp)
    94bc:	00 
    94bd:	75 1e                	jne    94dd <func_42+0xf74>
    94bf:	eb 01                	jmp    94c2 <func_42+0xf59>
    94c1:	90                   	nop
    94c2:	8b 05 a8 cb 00 00    	mov    0xcba8(%rip),%eax        # 16070 <g_194>
    94c8:	83 e8 01             	sub    $0x1,%eax
    94cb:	89 05 9f cb 00 00    	mov    %eax,0xcb9f(%rip)        # 16070 <g_194>
    94d1:	8b 05 99 cb 00 00    	mov    0xcb99(%rip),%eax        # 16070 <g_194>
    94d7:	85 c0                	test   %eax,%eax
    94d9:	79 82                	jns    945d <func_42+0xef4>
    94db:	eb 01                	jmp    94de <func_42+0xf75>
    94dd:	90                   	nop
    94de:	48 8b 15 db e4 00 00 	mov    0xe4db(%rip),%rdx        # 179c0 <g_1213>
    94e5:	48 8b 85 28 fa ff ff 	mov    -0x5d8(%rbp),%rax
    94ec:	48 89 10             	mov    %rdx,(%rax)
    94ef:	e9 24 04 00 00       	jmpq   9918 <func_42+0x13af>
    94f4:	48 c7 85 a8 f9 ff ff 	movq   $0x0,-0x658(%rbp)
    94fb:	00 00 00 00 
    94ff:	c7 85 74 f9 ff ff 01 	movl   $0x1,-0x68c(%rbp)
    9506:	00 00 00 
    9509:	48 8d 05 68 cb 00 00 	lea    0xcb68(%rip),%rax        # 16078 <g_197>
    9510:	48 89 85 e0 fb ff ff 	mov    %rax,-0x420(%rbp)
    9517:	48 8d 05 5a cb 00 00 	lea    0xcb5a(%rip),%rax        # 16078 <g_197>
    951e:	48 89 85 e8 fb ff ff 	mov    %rax,-0x418(%rbp)
    9525:	48 8d 05 4c cb 00 00 	lea    0xcb4c(%rip),%rax        # 16078 <g_197>
    952c:	48 89 85 f0 fb ff ff 	mov    %rax,-0x410(%rbp)
    9533:	48 8d 05 3e cb 00 00 	lea    0xcb3e(%rip),%rax        # 16078 <g_197>
    953a:	48 89 85 f8 fb ff ff 	mov    %rax,-0x408(%rbp)
    9541:	48 8d 05 30 cb 00 00 	lea    0xcb30(%rip),%rax        # 16078 <g_197>
    9548:	48 89 85 00 fc ff ff 	mov    %rax,-0x400(%rbp)
    954f:	48 8d 05 22 cb 00 00 	lea    0xcb22(%rip),%rax        # 16078 <g_197>
    9556:	48 89 85 08 fc ff ff 	mov    %rax,-0x3f8(%rbp)
    955d:	48 8d 05 14 cb 00 00 	lea    0xcb14(%rip),%rax        # 16078 <g_197>
    9564:	48 89 85 10 fc ff ff 	mov    %rax,-0x3f0(%rbp)
    956b:	48 8d 05 06 cb 00 00 	lea    0xcb06(%rip),%rax        # 16078 <g_197>
    9572:	48 89 85 18 fc ff ff 	mov    %rax,-0x3e8(%rbp)
    9579:	48 8d 05 f8 ca 00 00 	lea    0xcaf8(%rip),%rax        # 16078 <g_197>
    9580:	48 89 85 20 fc ff ff 	mov    %rax,-0x3e0(%rbp)
    9587:	c7 05 93 cb 00 00 12 	movl   $0x12,0xcb93(%rip)        # 16124 <g_609>
    958e:	00 00 00 
    9591:	e9 10 02 00 00       	jmpq   97a6 <func_42+0x123d>
    9596:	48 8d 05 13 f0 00 00 	lea    0xf013(%rip),%rax        # 185b0 <g_329>
    959d:	48 89 85 08 fa ff ff 	mov    %rax,-0x5f8(%rbp)
    95a4:	48 8d 85 a8 f9 ff ff 	lea    -0x658(%rbp),%rax
    95ab:	48 89 85 10 fa ff ff 	mov    %rax,-0x5f0(%rbp)
    95b2:	48 8d 05 bf ca 00 00 	lea    0xcabf(%rip),%rax        # 16078 <g_197>
    95b9:	48 89 85 18 fa ff ff 	mov    %rax,-0x5e8(%rbp)
    95c0:	48 c7 85 20 fa ff ff 	movq   $0x0,-0x5e0(%rbp)
    95c7:	00 00 00 00 
    95cb:	48 8b 85 08 fa ff ff 	mov    -0x5f8(%rbp),%rax
    95d2:	48 8b 95 e0 f9 ff ff 	mov    -0x620(%rbp),%rdx
    95d9:	48 89 10             	mov    %rdx,(%rax)
    95dc:	48 8b 95 a8 f9 ff ff 	mov    -0x658(%rbp),%rdx
    95e3:	48 8b 85 10 fa ff ff 	mov    -0x5f0(%rbp),%rax
    95ea:	48 89 10             	mov    %rdx,(%rax)
    95ed:	48 8b 85 18 fa ff ff 	mov    -0x5e8(%rbp),%rax
    95f4:	48 8b 15 15 cb 00 00 	mov    0xcb15(%rip),%rdx        # 16110 <g_517>
    95fb:	48 89 10             	mov    %rdx,(%rax)
    95fe:	8b 15 14 cb 00 00    	mov    0xcb14(%rip),%edx        # 16118 <g_517+0x8>
    9604:	89 50 08             	mov    %edx,0x8(%rax)
    9607:	48 8b 05 72 d9 00 00 	mov    0xd972(%rip),%rax        # 16f80 <g_18>
    960e:	0f b6 00             	movzbl (%rax),%eax
    9611:	0f be d8             	movsbl %al,%ebx
    9614:	48 83 bd 08 f9 ff ff 	cmpq   $0x0,-0x6f8(%rbp)
    961b:	00 
    961c:	0f 85 2e 01 00 00    	jne    9750 <func_42+0x11e7>
    9622:	48 8b 85 18 f9 ff ff 	mov    -0x6e8(%rbp),%rax
    9629:	44 0f bf e0          	movswl %ax,%r12d
    962d:	48 8b 85 e0 f9 ff ff 	mov    -0x620(%rbp),%rax
    9634:	8b 00                	mov    (%rax),%eax
    9636:	44 0f b7 e8          	movzwl %ax,%r13d
    963a:	48 8d 05 e7 ca 00 00 	lea    0xcae7(%rip),%rax        # 16128 <g_818>
    9641:	48 39 85 d8 f9 ff ff 	cmp    %rax,-0x628(%rbp)
    9648:	0f 95 c0             	setne  %al
    964b:	44 0f b6 f0          	movzbl %al,%r14d
    964f:	48 8b 85 e0 f9 ff ff 	mov    -0x620(%rbp),%rax
    9656:	8b 00                	mov    (%rax),%eax
    9658:	89 c2                	mov    %eax,%edx
    965a:	48 8b 85 20 f9 ff ff 	mov    -0x6e0(%rbp),%rax
    9661:	88 10                	mov    %dl,(%rax)
    9663:	48 8b 05 4e e3 00 00 	mov    0xe34e(%rip),%rax        # 179b8 <g_1107>
    966a:	48 8b 00             	mov    (%rax),%rax
    966d:	48 85 c0             	test   %rax,%rax
    9670:	0f 95 c2             	setne  %dl
    9673:	48 8b 05 26 d9 00 00 	mov    0xd926(%rip),%rax        # 16fa0 <g_467>
    967a:	0f b6 d2             	movzbl %dl,%edx
    967d:	66 89 10             	mov    %dx,(%rax)
    9680:	0f b7 00             	movzwl (%rax),%eax
    9683:	98                   	cwtl   
    9684:	be 09 00 00 00       	mov    $0x9,%esi
    9689:	89 c7                	mov    %eax,%edi
    968b:	e8 51 ae ff ff       	callq  44e1 <safe_lshift_func_int16_t_s_u>
    9690:	98                   	cwtl   
    9691:	be 09 00 00 00       	mov    $0x9,%esi
    9696:	89 c7                	mov    %eax,%edi
    9698:	e8 c6 ae ff ff       	callq  4563 <safe_rshift_func_int16_t_s_u>
    969d:	0f bf d0             	movswl %ax,%edx
    96a0:	48 8b 05 21 e3 00 00 	mov    0xe321(%rip),%rax        # 179c8 <g_1244>
    96a7:	48 39 85 10 fa ff ff 	cmp    %rax,-0x5f0(%rbp)
    96ae:	0f 95 c0             	setne  %al
    96b1:	0f b6 c0             	movzbl %al,%eax
    96b4:	89 85 54 fb ff ff    	mov    %eax,-0x4ac(%rbp)
    96ba:	8b 8d 54 fb ff ff    	mov    -0x4ac(%rbp),%ecx
    96c0:	48 8b 85 e0 f9 ff ff 	mov    -0x620(%rbp),%rax
    96c7:	8b 00                	mov    (%rax),%eax
    96c9:	39 c1                	cmp    %eax,%ecx
    96cb:	0f 95 c0             	setne  %al
    96ce:	0f b6 c0             	movzbl %al,%eax
    96d1:	39 c2                	cmp    %eax,%edx
    96d3:	7e 14                	jle    96e9 <func_42+0x1180>
    96d5:	48 8b 85 e0 f9 ff ff 	mov    -0x620(%rbp),%rax
    96dc:	8b 00                	mov    (%rax),%eax
    96de:	85 c0                	test   %eax,%eax
    96e0:	74 07                	je     96e9 <func_42+0x1180>
    96e2:	b8 01 00 00 00       	mov    $0x1,%eax
    96e7:	eb 05                	jmp    96ee <func_42+0x1185>
    96e9:	b8 00 00 00 00       	mov    $0x0,%eax
    96ee:	be 18 7e a3 f0       	mov    $0xf0a37e18,%esi
    96f3:	89 c7                	mov    %eax,%edi
    96f5:	e8 bc ae ff ff       	callq  45b6 <safe_add_func_int32_t_s_s>
    96fa:	41 39 c6             	cmp    %eax,%r14d
    96fd:	0f 9f c0             	setg   %al
    9700:	0f b6 c0             	movzbl %al,%eax
    9703:	be ff ff ff ff       	mov    $0xffffffff,%esi
    9708:	89 c7                	mov    %eax,%edi
    970a:	e8 ee b7 ff ff       	callq  4efd <safe_mod_func_uint32_t_u_u>
    970f:	44 89 ee             	mov    %r13d,%esi
    9712:	bf 01 00 00 00       	mov    $0x1,%edi
    9717:	e8 03 b6 ff ff       	callq  4d1f <safe_sub_func_uint16_t_u_u>
    971c:	98                   	cwtl   
    971d:	44 89 e6             	mov    %r12d,%esi
    9720:	89 c7                	mov    %eax,%edi
    9722:	e8 ce ac ff ff       	callq  43f5 <safe_mul_func_int16_t_s_s>
    9727:	0f be c0             	movsbl %al,%eax
    972a:	be 04 00 00 00       	mov    $0x4,%esi
    972f:	89 c7                	mov    %eax,%edi
    9731:	e8 ff ab ff ff       	callq  4335 <safe_rshift_func_int8_t_s_s>
    9736:	0f be c0             	movsbl %al,%eax
    9739:	89 c7                	mov    %eax,%edi
    973b:	e8 5d ac ff ff       	callq  439d <safe_unary_minus_func_int16_t_s>
    9740:	0f b6 15 e1 c8 00 00 	movzbl 0xc8e1(%rip),%edx        # 16028 <g_19>
    9747:	66 0f be d2          	movsbw %dl,%dx
    974b:	66 39 d0             	cmp    %dx,%ax
    974e:	74 07                	je     9757 <func_42+0x11ee>
    9750:	b8 01 00 00 00       	mov    $0x1,%eax
    9755:	eb 05                	jmp    975c <func_42+0x11f3>
    9757:	b8 00 00 00 00       	mov    $0x0,%eax
    975c:	98                   	cwtl   
    975d:	be fa ff ff ff       	mov    $0xfffffffa,%esi
    9762:	89 c7                	mov    %eax,%edi
    9764:	e8 4a ac ff ff       	callq  43b3 <safe_add_func_int16_t_s_s>
    9769:	0f be c0             	movsbl %al,%eax
    976c:	89 de                	mov    %ebx,%esi
    976e:	89 c7                	mov    %eax,%edi
    9770:	e8 9d aa ff ff       	callq  4212 <safe_mul_func_int8_t_s_s>
    9775:	81 bd 74 f9 ff ff 34 	cmpl   $0x4d529634,-0x68c(%rbp)
    977c:	96 52 4d 
    977f:	0f 95 c0             	setne  %al
    9782:	0f b6 c0             	movzbl %al,%eax
    9785:	21 85 48 f9 ff ff    	and    %eax,-0x6b8(%rbp)
    978b:	8b 05 93 c9 00 00    	mov    0xc993(%rip),%eax        # 16124 <g_609>
    9791:	89 c0                	mov    %eax,%eax
    9793:	be 09 00 00 00       	mov    $0x9,%esi
    9798:	48 89 c7             	mov    %rax,%rdi
    979b:	e8 a1 b0 ff ff       	callq  4841 <safe_add_func_int64_t_s_s>
    97a0:	89 05 7e c9 00 00    	mov    %eax,0xc97e(%rip)        # 16124 <g_609>
    97a6:	8b 05 78 c9 00 00    	mov    0xc978(%rip),%eax        # 16124 <g_609>
    97ac:	83 f8 1c             	cmp    $0x1c,%eax
    97af:	0f 87 e1 fd ff ff    	ja     9596 <func_42+0x102d>
    97b5:	48 8b 85 3c fa ff ff 	mov    -0x5c4(%rbp),%rax
    97bc:	48 89 05 b5 c8 00 00 	mov    %rax,0xc8b5(%rip)        # 16078 <g_197>
    97c3:	8b 85 44 fa ff ff    	mov    -0x5bc(%rbp),%eax
    97c9:	89 05 b1 c8 00 00    	mov    %eax,0xc8b1(%rip)        # 16080 <g_197+0x8>
    97cf:	48 8b 05 a2 c8 00 00 	mov    0xc8a2(%rip),%rax        # 16078 <g_197>
    97d6:	48 89 85 48 fa ff ff 	mov    %rax,-0x5b8(%rbp)
    97dd:	8b 05 9d c8 00 00    	mov    0xc89d(%rip),%eax        # 16080 <g_197+0x8>
    97e3:	89 85 50 fa ff ff    	mov    %eax,-0x5b0(%rbp)
    97e9:	48 8b 85 20 f9 ff ff 	mov    -0x6e0(%rbp),%rax
    97f0:	0f b6 00             	movzbl (%rax),%eax
    97f3:	8d 48 01             	lea    0x1(%rax),%ecx
    97f6:	48 8b 95 20 f9 ff ff 	mov    -0x6e0(%rbp),%rdx
    97fd:	88 0a                	mov    %cl,(%rdx)
    97ff:	3c ba                	cmp    $0xba,%al
    9801:	0f 95 c0             	setne  %al
    9804:	0f b6 c0             	movzbl %al,%eax
    9807:	be 64 f1 ff ff       	mov    $0xfffff164,%esi
    980c:	89 c7                	mov    %eax,%edi
    980e:	e8 42 ac ff ff       	callq  4455 <safe_div_func_int16_t_s_s>
    9813:	48 0f bf c0          	movswq %ax,%rax
    9817:	48 8b 95 08 f9 ff ff 	mov    -0x6f8(%rbp),%rdx
    981e:	48 b9 4c 11 84 28 28 	movabs $0xb42125282884114c,%rcx
    9825:	25 21 b4 
    9828:	48 21 ca             	and    %rcx,%rdx
    982b:	48 39 d0             	cmp    %rdx,%rax
    982e:	48 0f bf 95 14 f9 ff 	movswq -0x6ec(%rbp),%rdx
    9835:	ff 
    9836:	48 8b 85 f8 fa ff ff 	mov    -0x508(%rbp),%rax
    983d:	48 b9 d5 47 00 a3 ee 	movabs $0x3f5c0beea30047d5,%rcx
    9844:	0b 5c 3f 
    9847:	48 39 c8             	cmp    %rcx,%rax
    984a:	0f 95 c0             	setne  %al
    984d:	0f b6 c0             	movzbl %al,%eax
    9850:	48 89 d6             	mov    %rdx,%rsi
    9853:	48 89 c7             	mov    %rax,%rdi
    9856:	e8 e6 af ff ff       	callq  4841 <safe_add_func_int64_t_s_s>
    985b:	48 83 f8 01          	cmp    $0x1,%rax
    985f:	74 50                	je     98b1 <func_42+0x1348>
    9861:	66 c7 85 54 fa ff ff 	movw   $0xbb,-0x5ac(%rbp)
    9868:	bb 00 
    986a:	0f b6 85 56 fa ff ff 	movzbl -0x5aa(%rbp),%eax
    9871:	83 e0 e0             	and    $0xffffffe0,%eax
    9874:	83 c8 02             	or     $0x2,%eax
    9877:	88 85 56 fa ff ff    	mov    %al,-0x5aa(%rbp)
    987d:	8b 85 58 fa ff ff    	mov    -0x5a8(%rbp),%eax
    9883:	25 00 00 f8 ff       	and    $0xfff80000,%eax
    9888:	0d 62 fe 07 00       	or     $0x7fe62,%eax
    988d:	89 85 58 fa ff ff    	mov    %eax,-0x5a8(%rbp)
    9893:	66 c7 85 5c fa ff ff 	movw   $0x1,-0x5a4(%rbp)
    989a:	01 00 
    989c:	0f b6 85 5e fa ff ff 	movzbl -0x5a2(%rbp),%eax
    98a3:	83 e0 f0             	and    $0xfffffff0,%eax
    98a6:	83 c8 03             	or     $0x3,%eax
    98a9:	88 85 5e fa ff ff    	mov    %al,-0x5a2(%rbp)
    98af:	eb 67                	jmp    9918 <func_42+0x13af>
    98b1:	48 8d 05 a0 c7 00 00 	lea    0xc7a0(%rip),%rax        # 16058 <g_59+0x18>
    98b8:	48 89 85 00 fa ff ff 	mov    %rax,-0x600(%rbp)
    98bf:	48 8b 85 98 fc ff ff 	mov    -0x368(%rbp),%rax
    98c6:	48 89 85 00 fa ff ff 	mov    %rax,-0x600(%rbp)
    98cd:	0f b6 85 46 fa ff ff 	movzbl -0x5ba(%rbp),%eax
    98d4:	c1 e0 04             	shl    $0x4,%eax
    98d7:	c0 f8 04             	sar    $0x4,%al
    98da:	f7 d0                	not    %eax
    98dc:	83 e0 0f             	and    $0xf,%eax
    98df:	89 c2                	mov    %eax,%edx
    98e1:	0f b6 85 46 fa ff ff 	movzbl -0x5ba(%rbp),%eax
    98e8:	83 e0 f0             	and    $0xfffffff0,%eax
    98eb:	09 d0                	or     %edx,%eax
    98ed:	88 85 46 fa ff ff    	mov    %al,-0x5ba(%rbp)
    98f3:	0f b7 05 06 9c 00 00 	movzwl 0x9c06(%rip),%eax        # 13500 <l_1266.4442>
    98fa:	66 85 c0             	test   %ax,%ax
    98fd:	75 13                	jne    9912 <func_42+0x13a9>
    98ff:	0f b6 05 0c c8 00 00 	movzbl 0xc80c(%rip),%eax        # 16112 <g_517+0x2>
    9906:	83 e0 1f             	and    $0x1f,%eax
    9909:	84 c0                	test   %al,%al
    990b:	74 0b                	je     9918 <func_42+0x13af>
    990d:	e9 7b f1 ff ff       	jmpq   8a8d <func_42+0x524>
    9912:	90                   	nop
    9913:	e9 75 f1 ff ff       	jmpq   8a8d <func_42+0x524>
    9918:	66 c7 05 df c7 00 00 	movw   $0x0,0xc7df(%rip)        # 16100 <g_468>
    991f:	00 00 
    9921:	90                   	nop
    9922:	0f b7 05 d7 c7 00 00 	movzwl 0xc7d7(%rip),%eax        # 16100 <g_468>
    9929:	66 83 f8 05          	cmp    $0x5,%ax
    992d:	7f 0c                	jg     993b <func_42+0x13d2>
    992f:	48 8b 85 18 f9 ff ff 	mov    -0x6e8(%rbp),%rax
    9936:	e9 71 01 00 00       	jmpq   9aac <func_42+0x1543>
    993b:	48 8b 85 e0 f9 ff ff 	mov    -0x620(%rbp),%rax
    9942:	8b 00                	mov    (%rax),%eax
    9944:	0b 85 70 f9 ff ff    	or     -0x690(%rbp),%eax
    994a:	89 c2                	mov    %eax,%edx
    994c:	48 8b 85 e0 f9 ff ff 	mov    -0x620(%rbp),%rax
    9953:	89 10                	mov    %edx,(%rax)
    9955:	0f b7 05 b4 e4 00 00 	movzwl 0xe4b4(%rip),%eax        # 17e10 <g_191>
    995c:	83 c0 01             	add    $0x1,%eax
    995f:	66 89 05 aa e4 00 00 	mov    %ax,0xe4aa(%rip)        # 17e10 <g_191>
    9966:	0f b7 05 a3 e4 00 00 	movzwl 0xe4a3(%rip),%eax        # 17e10 <g_191>
    996d:	66 83 f8 1c          	cmp    $0x1c,%ax
    9971:	0f 87 95 f7 ff ff    	ja     910c <func_42+0xba3>
    9977:	eb 04                	jmp    997d <func_42+0x1414>
    9979:	90                   	nop
    997a:	eb 01                	jmp    997d <func_42+0x1414>
    997c:	90                   	nop
    997d:	0f be 9d 34 f9 ff ff 	movsbl -0x6cc(%rbp),%ebx
    9984:	48 8b 85 e0 f9 ff ff 	mov    -0x620(%rbp),%rax
    998b:	8b 00                	mov    (%rax),%eax
    998d:	89 c2                	mov    %eax,%edx
    998f:	0f b6 05 8a c7 00 00 	movzbl 0xc78a(%rip),%eax        # 16120 <g_534>
    9996:	0f b6 c0             	movzbl %al,%eax
    9999:	89 d6                	mov    %edx,%esi
    999b:	89 c7                	mov    %eax,%edi
    999d:	e8 83 b5 ff ff       	callq  4f25 <safe_div_func_uint32_t_u_u>
    99a2:	89 c6                	mov    %eax,%esi
    99a4:	bf 95 3d 00 00       	mov    $0x3d95,%edi
    99a9:	e8 b5 ab ff ff       	callq  4563 <safe_rshift_func_int16_t_s_u>
    99ae:	0f b6 c0             	movzbl %al,%eax
    99b1:	be 00 00 00 00       	mov    $0x0,%esi
    99b6:	89 c7                	mov    %eax,%edi
    99b8:	e8 8f b2 ff ff       	callq  4c4c <safe_lshift_func_uint8_t_u_u>
    99bd:	0f b6 c0             	movzbl %al,%eax
    99c0:	21 d8                	and    %ebx,%eax
    99c2:	85 c0                	test   %eax,%eax
    99c4:	74 0c                	je     99d2 <func_42+0x1469>
    99c6:	48 8b 85 20 f9 ff ff 	mov    -0x6e0(%rbp),%rax
    99cd:	0f b6 00             	movzbl (%rax),%eax
    99d0:	84 c0                	test   %al,%al
    99d2:	48 83 bd e0 f9 ff ff 	cmpq   $0x0,-0x620(%rbp)
    99d9:	00 
    99da:	0f 95 c0             	setne  %al
    99dd:	0f b6 c0             	movzbl %al,%eax
    99e0:	be 07 00 00 00       	mov    $0x7,%esi
    99e5:	89 c7                	mov    %eax,%edi
    99e7:	e8 b5 a8 ff ff       	callq  42a1 <safe_lshift_func_int8_t_s_s>
    99ec:	84 c0                	test   %al,%al
    99ee:	74 11                	je     9a01 <func_42+0x1498>
    99f0:	48 83 bd 08 f9 ff ff 	cmpq   $0x0,-0x6f8(%rbp)
    99f7:	00 
    99f8:	74 07                	je     9a01 <func_42+0x1498>
    99fa:	b8 01 00 00 00       	mov    $0x1,%eax
    99ff:	eb 05                	jmp    9a06 <func_42+0x149d>
    9a01:	b8 00 00 00 00       	mov    $0x0,%eax
    9a06:	89 c2                	mov    %eax,%edx
    9a08:	48 8b 85 18 f9 ff ff 	mov    -0x6e8(%rbp),%rax
    9a0f:	31 d0                	xor    %edx,%eax
    9a11:	0f b6 c0             	movzbl %al,%eax
    9a14:	be 03 00 00 00       	mov    $0x3,%esi
    9a19:	89 c7                	mov    %eax,%edi
    9a1b:	e8 e5 b1 ff ff       	callq  4c05 <safe_lshift_func_uint8_t_u_s>
    9a20:	84 c0                	test   %al,%al
    9a22:	74 14                	je     9a38 <func_42+0x14cf>
    9a24:	48 8b 85 e0 f9 ff ff 	mov    -0x620(%rbp),%rax
    9a2b:	8b 00                	mov    (%rax),%eax
    9a2d:	85 c0                	test   %eax,%eax
    9a2f:	74 07                	je     9a38 <func_42+0x14cf>
    9a31:	ba 01 00 00 00       	mov    $0x1,%edx
    9a36:	eb 05                	jmp    9a3d <func_42+0x14d4>
    9a38:	ba 00 00 00 00       	mov    $0x0,%edx
    9a3d:	48 8b 05 3c d5 00 00 	mov    0xd53c(%rip),%rax        # 16f80 <g_18>
    9a44:	0f b6 00             	movzbl (%rax),%eax
    9a47:	0f be c0             	movsbl %al,%eax
    9a4a:	39 c2                	cmp    %eax,%edx
    9a4c:	7f 0a                	jg     9a58 <func_42+0x14ef>
    9a4e:	48 83 bd 08 f9 ff ff 	cmpq   $0x0,-0x6f8(%rbp)
    9a55:	00 
    9a56:	74 07                	je     9a5f <func_42+0x14f6>
    9a58:	b8 01 00 00 00       	mov    $0x1,%eax
    9a5d:	eb 05                	jmp    9a64 <func_42+0x14fb>
    9a5f:	b8 00 00 00 00       	mov    $0x0,%eax
    9a64:	98                   	cwtl   
    9a65:	be 7c 45 00 00       	mov    $0x457c,%esi
    9a6a:	89 c7                	mov    %eax,%edi
    9a6c:	e8 84 a9 ff ff       	callq  43f5 <safe_mul_func_int16_t_s_s>
    9a71:	b8 d7 d0 3d dd       	mov    $0xdd3dd0d7,%eax
    9a76:	89 c2                	mov    %eax,%edx
    9a78:	8b 05 fa c7 00 00    	mov    0xc7fa(%rip),%eax        # 16278 <g_1291>
    9a7e:	09 d0                	or     %edx,%eax
    9a80:	89 05 f2 c7 00 00    	mov    %eax,0xc7f2(%rip)        # 16278 <g_1291>
    9a86:	48 83 ad 08 f9 ff ff 	subq   $0x1,-0x6f8(%rbp)
    9a8d:	01 
    9a8e:	48 83 bd 08 f9 ff ff 	cmpq   $0xffffffffffffffe4,-0x6f8(%rbp)
    9a95:	e4 
    9a96:	0f 8c 10 f0 ff ff    	jl     8aac <func_42+0x543>
    9a9c:	0f b6 45 d7          	movzbl -0x29(%rbp),%eax
    9aa0:	83 e8 01             	sub    $0x1,%eax
    9aa3:	88 45 d7             	mov    %al,-0x29(%rbp)
    9aa6:	8b 85 6c f9 ff ff    	mov    -0x694(%rbp),%eax
    9aac:	48 8b 5d d8          	mov    -0x28(%rbp),%rbx
    9ab0:	64 48 33 1c 25 28 00 	xor    %fs:0x28,%rbx
    9ab7:	00 00 
    9ab9:	74 05                	je     9ac0 <func_42+0x1557>
    9abb:	e8 b0 a5 ff ff       	callq  4070 <__stack_chk_fail@plt>
    9ac0:	48 81 c4 e0 06 00 00 	add    $0x6e0,%rsp
    9ac7:	5b                   	pop    %rbx
    9ac8:	41 5c                	pop    %r12
    9aca:	41 5d                	pop    %r13
    9acc:	41 5e                	pop    %r14
    9ace:	5d                   	pop    %rbp
    9acf:	c3                   	retq   

0000000000009ad0 <func_48>:
    9ad0:	f3 0f 1e fa          	endbr64 
    9ad4:	55                   	push   %rbp
    9ad5:	48 89 e5             	mov    %rsp,%rbp
    9ad8:	41 57                	push   %r15
    9ada:	41 56                	push   %r14
    9adc:	41 55                	push   %r13
    9ade:	41 54                	push   %r12
    9ae0:	53                   	push   %rbx
    9ae1:	48 81 ec c8 0f 00 00 	sub    $0xfc8,%rsp
    9ae8:	89 f8                	mov    %edi,%eax
    9aea:	89 b5 38 f0 ff ff    	mov    %esi,-0xfc8(%rbp)
    9af0:	48 89 95 30 f0 ff ff 	mov    %rdx,-0xfd0(%rbp)
    9af7:	48 89 8d 28 f0 ff ff 	mov    %rcx,-0xfd8(%rbp)
    9afe:	66 89 85 3c f0 ff ff 	mov    %ax,-0xfc4(%rbp)
    9b05:	64 48 8b 04 25 28 00 	mov    %fs:0x28,%rax
    9b0c:	00 00 
    9b0e:	48 89 45 c8          	mov    %rax,-0x38(%rbp)
    9b12:	31 c0                	xor    %eax,%eax
    9b14:	48 8d 85 80 f5 ff ff 	lea    -0xa80(%rbp),%rax
    9b1b:	48 8d 15 fe c9 00 00 	lea    0xc9fe(%rip),%rdx        # 16520 <g_1291+0x2a8>
    9b22:	b9 30 00 00 00       	mov    $0x30,%ecx
    9b27:	48 89 c7             	mov    %rax,%rdi
    9b2a:	48 89 d6             	mov    %rdx,%rsi
    9b2d:	f3 48 a5             	rep movsq %ds:(%rsi),%es:(%rdi)
    9b30:	48 8d 85 80 f5 ff ff 	lea    -0xa80(%rbp),%rax
    9b37:	48 83 c0 08          	add    $0x8,%rax
    9b3b:	48 89 85 20 f1 ff ff 	mov    %rax,-0xee0(%rbp)
    9b42:	48 8d 85 68 f2 ff ff 	lea    -0xd98(%rbp),%rax
    9b49:	48 83 c0 04          	add    $0x4,%rax
    9b4d:	48 89 85 a0 f0 ff ff 	mov    %rax,-0xf60(%rbp)
    9b54:	48 8d 05 b5 e2 00 00 	lea    0xe2b5(%rip),%rax        # 17e10 <g_191>
    9b5b:	48 89 85 a8 f0 ff ff 	mov    %rax,-0xf58(%rbp)
    9b62:	48 8d 85 a8 f0 ff ff 	lea    -0xf58(%rbp),%rax
    9b69:	48 89 85 b0 f0 ff ff 	mov    %rax,-0xf50(%rbp)
    9b70:	48 8d 85 b0 f0 ff ff 	lea    -0xf50(%rbp),%rax
    9b77:	48 89 85 b8 f0 ff ff 	mov    %rax,-0xf48(%rbp)
    9b7e:	48 c7 85 c0 f0 ff ff 	movq   $0x0,-0xf40(%rbp)
    9b85:	00 00 00 00 
    9b89:	48 8d 85 c0 f0 ff ff 	lea    -0xf40(%rbp),%rax
    9b90:	48 89 85 c8 f0 ff ff 	mov    %rax,-0xf38(%rbp)
    9b97:	48 8d 85 00 f3 ff ff 	lea    -0xd00(%rbp),%rax
    9b9e:	48 83 c0 10          	add    $0x10,%rax
    9ba2:	48 89 85 d0 f0 ff ff 	mov    %rax,-0xf30(%rbp)
    9ba9:	48 c7 85 40 f3 ff ff 	movq   $0x0,-0xcc0(%rbp)
    9bb0:	00 00 00 00 
    9bb4:	48 8d 05 4d c5 00 00 	lea    0xc54d(%rip),%rax        # 16108 <g_471>
    9bbb:	48 89 85 48 f3 ff ff 	mov    %rax,-0xcb8(%rbp)
    9bc2:	48 c7 85 50 f3 ff ff 	movq   $0x0,-0xcb0(%rbp)
    9bc9:	00 00 00 00 
    9bcd:	48 c7 85 58 f3 ff ff 	movq   $0x0,-0xca8(%rbp)
    9bd4:	00 00 00 00 
    9bd8:	48 8d 05 29 c5 00 00 	lea    0xc529(%rip),%rax        # 16108 <g_471>
    9bdf:	48 89 85 60 f3 ff ff 	mov    %rax,-0xca0(%rbp)
    9be6:	48 c7 85 68 f3 ff ff 	movq   $0x0,-0xc98(%rbp)
    9bed:	00 00 00 00 
    9bf1:	48 c7 85 70 f3 ff ff 	movq   $0x0,-0xc90(%rbp)
    9bf8:	00 00 00 00 
    9bfc:	48 8d 05 1d c5 00 00 	lea    0xc51d(%rip),%rax        # 16120 <g_534>
    9c03:	48 89 85 28 f1 ff ff 	mov    %rax,-0xed8(%rbp)
    9c0a:	48 c7 85 30 f1 ff ff 	movq   $0x0,-0xed0(%rbp)
    9c11:	00 00 00 00 
    9c15:	66 c7 85 52 f0 ff ff 	movw   $0x14b,-0xfae(%rbp)
    9c1c:	4b 01 
    9c1e:	c7 85 7c f0 ff ff fa 	movl   $0xfffffffa,-0xf84(%rbp)
    9c25:	ff ff ff 
    9c28:	c7 85 60 f0 ff ff 00 	movl   $0xbadad800,-0xfa0(%rbp)
    9c2f:	d8 da ba 
    9c32:	48 8d 85 10 f4 ff ff 	lea    -0xbf0(%rbp),%rax
    9c39:	48 83 c0 28          	add    $0x28,%rax
    9c3d:	48 89 85 38 f1 ff ff 	mov    %rax,-0xec8(%rbp)
    9c44:	c7 85 5c f0 ff ff 00 	movl   $0x0,-0xfa4(%rbp)
    9c4b:	00 00 00 
    9c4e:	eb 1a                	jmp    9c6a <func_48+0x19a>
    9c50:	8b 85 5c f0 ff ff    	mov    -0xfa4(%rbp),%eax
    9c56:	48 98                	cltq   
    9c58:	c7 84 85 68 f2 ff ff 	movl   $0xffffffff,-0xd98(%rbp,%rax,4)
    9c5f:	ff ff ff ff 
    9c63:	83 85 5c f0 ff ff 01 	addl   $0x1,-0xfa4(%rbp)
    9c6a:	83 bd 5c f0 ff ff 01 	cmpl   $0x1,-0xfa4(%rbp)
    9c71:	7e dd                	jle    9c50 <func_48+0x180>
    9c73:	c7 85 5c f0 ff ff 00 	movl   $0x0,-0xfa4(%rbp)
    9c7a:	00 00 00 
    9c7d:	eb 1b                	jmp    9c9a <func_48+0x1ca>
    9c7f:	8b 85 5c f0 ff ff    	mov    -0xfa4(%rbp),%eax
    9c85:	48 98                	cltq   
    9c87:	48 c7 84 c5 00 f3 ff 	movq   $0x0,-0xd00(%rbp,%rax,8)
    9c8e:	ff 00 00 00 00 
    9c93:	83 85 5c f0 ff ff 01 	addl   $0x1,-0xfa4(%rbp)
    9c9a:	83 bd 5c f0 ff ff 06 	cmpl   $0x6,-0xfa4(%rbp)
    9ca1:	7e dc                	jle    9c7f <func_48+0x1af>
    9ca3:	c7 85 5c f0 ff ff 00 	movl   $0x0,-0xfa4(%rbp)
    9caa:	00 00 00 
    9cad:	eb 22                	jmp    9cd1 <func_48+0x201>
    9caf:	8b 85 5c f0 ff ff    	mov    -0xfa4(%rbp),%eax
    9cb5:	48 98                	cltq   
    9cb7:	48 8d 95 68 f2 ff ff 	lea    -0xd98(%rbp),%rdx
    9cbe:	48 83 c2 04          	add    $0x4,%rdx
    9cc2:	48 89 94 c5 10 f4 ff 	mov    %rdx,-0xbf0(%rbp,%rax,8)
    9cc9:	ff 
    9cca:	83 85 5c f0 ff ff 01 	addl   $0x1,-0xfa4(%rbp)
    9cd1:	83 bd 5c f0 ff ff 09 	cmpl   $0x9,-0xfa4(%rbp)
    9cd8:	7e d5                	jle    9caf <func_48+0x1df>
    9cda:	c7 05 8c c3 00 00 02 	movl   $0x2,0xc38c(%rip)        # 16070 <g_194>
    9ce1:	00 00 00 
    9ce4:	e9 2f 1c 00 00       	jmpq   b918 <func_48+0x1e48>
    9ce9:	48 c7 85 d8 f0 ff ff 	movq   $0x0,-0xf28(%rbp)
    9cf0:	00 00 00 00 
    9cf4:	48 8d 85 d8 f0 ff ff 	lea    -0xf28(%rbp),%rax
    9cfb:	48 89 85 e0 f0 ff ff 	mov    %rax,-0xf20(%rbp)
    9d02:	48 c7 85 e8 f0 ff ff 	movq   $0x0,-0xf18(%rbp)
    9d09:	00 00 00 00 
    9d0d:	48 8d 85 00 f7 ff ff 	lea    -0x900(%rbp),%rax
    9d14:	48 8d 15 85 c9 00 00 	lea    0xc985(%rip),%rdx        # 166a0 <g_1291+0x428>
    9d1b:	b9 5a 00 00 00       	mov    $0x5a,%ecx
    9d20:	48 89 c7             	mov    %rax,%rdi
    9d23:	48 89 d6             	mov    %rdx,%rsi
    9d26:	f3 48 a5             	rep movsq %ds:(%rsi),%es:(%rdi)
    9d29:	48 c7 85 f0 f0 ff ff 	movq   $0x0,-0xf10(%rbp)
    9d30:	00 00 00 00 
    9d34:	48 8d 85 f0 f0 ff ff 	lea    -0xf10(%rbp),%rax
    9d3b:	48 89 85 c0 f3 ff ff 	mov    %rax,-0xc40(%rbp)
    9d42:	48 8d 85 f0 f0 ff ff 	lea    -0xf10(%rbp),%rax
    9d49:	48 89 85 c8 f3 ff ff 	mov    %rax,-0xc38(%rbp)
    9d50:	48 8d 85 f0 f0 ff ff 	lea    -0xf10(%rbp),%rax
    9d57:	48 89 85 d0 f3 ff ff 	mov    %rax,-0xc30(%rbp)
    9d5e:	48 8d 85 f0 f0 ff ff 	lea    -0xf10(%rbp),%rax
    9d65:	48 89 85 d8 f3 ff ff 	mov    %rax,-0xc28(%rbp)
    9d6c:	48 8d 85 f0 f0 ff ff 	lea    -0xf10(%rbp),%rax
    9d73:	48 89 85 e0 f3 ff ff 	mov    %rax,-0xc20(%rbp)
    9d7a:	48 8d 85 f0 f0 ff ff 	lea    -0xf10(%rbp),%rax
    9d81:	48 89 85 e8 f3 ff ff 	mov    %rax,-0xc18(%rbp)
    9d88:	48 8d 85 f0 f0 ff ff 	lea    -0xf10(%rbp),%rax
    9d8f:	48 89 85 f0 f3 ff ff 	mov    %rax,-0xc10(%rbp)
    9d96:	48 8d 85 f0 f0 ff ff 	lea    -0xf10(%rbp),%rax
    9d9d:	48 89 85 f8 f3 ff ff 	mov    %rax,-0xc08(%rbp)
    9da4:	48 8d 85 f0 f0 ff ff 	lea    -0xf10(%rbp),%rax
    9dab:	48 89 85 00 f4 ff ff 	mov    %rax,-0xc00(%rbp)
    9db2:	c7 85 80 f0 ff ff d2 	movl   $0x67fd05d2,-0xf80(%rbp)
    9db9:	05 fd 67 
    9dbc:	66 c7 85 4e f0 ff ff 	movw   $0xffff,-0xfb2(%rbp)
    9dc3:	ff ff 
    9dc5:	c6 85 4a f0 ff ff f6 	movb   $0xf6,-0xfb6(%rbp)
    9dcc:	c6 85 4b f0 ff ff f8 	movb   $0xf8,-0xfb5(%rbp)
    9dd3:	48 8d 05 fe c2 00 00 	lea    0xc2fe(%rip),%rax        # 160d8 <g_281+0x38>
    9dda:	48 89 85 40 f1 ff ff 	mov    %rax,-0xec0(%rbp)
    9de1:	48 8d 05 98 c2 00 00 	lea    0xc298(%rip),%rax        # 16080 <g_197+0x8>
    9de8:	48 89 85 48 f1 ff ff 	mov    %rax,-0xeb8(%rbp)
    9def:	c7 85 64 f0 ff ff 00 	movl   $0x0,-0xf9c(%rbp)
    9df6:	00 00 00 
    9df9:	eb 14                	jmp    9e0f <func_48+0x33f>
    9dfb:	8b 85 64 f0 ff ff    	mov    -0xf9c(%rbp),%eax
    9e01:	48 98                	cltq   
    9e03:	c6 44 05 be 6c       	movb   $0x6c,-0x42(%rbp,%rax,1)
    9e08:	83 85 64 f0 ff ff 01 	addl   $0x1,-0xf9c(%rbp)
    9e0f:	83 bd 64 f0 ff ff 00 	cmpl   $0x0,-0xf9c(%rbp)
    9e16:	7e e3                	jle    9dfb <func_48+0x32b>
    9e18:	8b 05 52 c2 00 00    	mov    0xc252(%rip),%eax        # 16070 <g_194>
    9e1e:	48 98                	cltq   
    9e20:	48 8d 14 85 00 00 00 	lea    0x0(,%rax,4),%rdx
    9e27:	00 
    9e28:	48 8d 05 11 c2 00 00 	lea    0xc211(%rip),%rax        # 16040 <g_59>
    9e2f:	8b 04 02             	mov    (%rdx,%rax,1),%eax
    9e32:	85 c0                	test   %eax,%eax
    9e34:	0f 95 c0             	setne  %al
    9e37:	0f b6 d0             	movzbl %al,%edx
    9e3a:	48 8b 85 e0 f0 ff ff 	mov    -0xf20(%rbp),%rax
    9e41:	48 39 85 20 f1 ff ff 	cmp    %rax,-0xee0(%rbp)
    9e48:	0f 95 c0             	setne  %al
    9e4b:	0f b6 c0             	movzbl %al,%eax
    9e4e:	89 85 6c f2 ff ff    	mov    %eax,-0xd94(%rbp)
    9e54:	8b 85 6c f2 ff ff    	mov    -0xd94(%rbp),%eax
    9e5a:	39 c2                	cmp    %eax,%edx
    9e5c:	0f 8f c3 00 00 00    	jg     9f25 <func_48+0x455>
    9e62:	48 8d 05 ff da 00 00 	lea    0xdaff(%rip),%rax        # 17968 <g_890+0x128>
    9e69:	48 89 85 50 f1 ff ff 	mov    %rax,-0xeb0(%rbp)
    9e70:	48 8b 95 68 f7 ff ff 	mov    -0x898(%rbp),%rdx
    9e77:	48 8b 85 50 f1 ff ff 	mov    -0xeb0(%rbp),%rax
    9e7e:	48 c7 00 00 00 00 00 	movq   $0x0,(%rax)
    9e85:	48 8b 85 50 f1 ff ff 	mov    -0xeb0(%rbp),%rax
    9e8c:	48 8b 00             	mov    (%rax),%rax
    9e8f:	48 39 c2             	cmp    %rax,%rdx
    9e92:	0f 95 c0             	setne  %al
    9e95:	0f b6 c0             	movzbl %al,%eax
    9e98:	48 89 c7             	mov    %rax,%rdi
    9e9b:	e8 76 a9 ff ff       	callq  4816 <safe_unary_minus_func_int64_t_s>
    9ea0:	0f b7 95 3c f0 ff ff 	movzwl -0xfc4(%rbp),%edx
    9ea7:	0f bf d2             	movswl %dx,%edx
    9eaa:	89 95 68 f2 ff ff    	mov    %edx,-0xd98(%rbp)
    9eb0:	8b 8d 68 f2 ff ff    	mov    -0xd98(%rbp),%ecx
    9eb6:	0f b7 95 3c f0 ff ff 	movzwl -0xfc4(%rbp),%edx
    9ebd:	0f bf d2             	movswl %dx,%edx
    9ec0:	09 ca                	or     %ecx,%edx
    9ec2:	48 63 d2             	movslq %edx,%rdx
    9ec5:	48 39 d0             	cmp    %rdx,%rax
    9ec8:	0f 9c c0             	setl   %al
    9ecb:	0f b6 d0             	movzbl %al,%edx
    9ece:	48 8b 05 cb d0 00 00 	mov    0xd0cb(%rip),%rax        # 16fa0 <g_467>
    9ed5:	0f b7 00             	movzwl (%rax),%eax
    9ed8:	98                   	cwtl   
    9ed9:	89 d6                	mov    %edx,%esi
    9edb:	89 c7                	mov    %eax,%edi
    9edd:	e8 f1 a4 ff ff       	callq  43d3 <safe_sub_func_int16_t_s_s>
    9ee2:	8b 05 d0 e6 00 00    	mov    0xe6d0(%rip),%eax        # 185b8 <g_361>
    9ee8:	83 e8 01             	sub    $0x1,%eax
    9eeb:	89 05 c7 e6 00 00    	mov    %eax,0xe6c7(%rip)        # 185b8 <g_361>
    9ef1:	0f b6 45 be          	movzbl -0x42(%rbp),%eax
    9ef5:	83 f0 01             	xor    $0x1,%eax
    9ef8:	0f be c0             	movsbl %al,%eax
    9efb:	be 08 00 00 00       	mov    $0x8,%esi
    9f00:	89 c7                	mov    %eax,%edi
    9f02:	e8 23 a6 ff ff       	callq  452a <safe_rshift_func_int16_t_s_s>
    9f07:	0f b7 c0             	movzwl %ax,%eax
    9f0a:	be f6 ff 00 00       	mov    $0xfff6,%esi
    9f0f:	89 c7                	mov    %eax,%edi
    9f11:	e8 78 ae ff ff       	callq  4d8e <safe_div_func_uint16_t_u_u>
    9f16:	c7 05 fc c1 00 00 00 	movl   $0x0,0xc1fc(%rip)        # 1611c <g_532>
    9f1d:	00 00 00 
    9f20:	e9 41 18 00 00       	jmpq   b766 <func_48+0x1c96>
    9f25:	48 8b 85 30 f0 ff ff 	mov    -0xfd0(%rbp),%rax
    9f2c:	e9 12 1a 00 00       	jmpq   b943 <func_48+0x1e73>
    9f31:	48 8d 05 e0 c1 00 00 	lea    0xc1e0(%rip),%rax        # 16118 <g_517+0x8>
    9f38:	48 89 85 f8 f0 ff ff 	mov    %rax,-0xf08(%rbp)
    9f3f:	48 8d 85 f8 f0 ff ff 	lea    -0xf08(%rbp),%rax
    9f46:	48 89 85 00 f1 ff ff 	mov    %rax,-0xf00(%rbp)
    9f4d:	48 8d 85 00 f1 ff ff 	lea    -0xf00(%rbp),%rax
    9f54:	48 89 85 58 f1 ff ff 	mov    %rax,-0xea8(%rbp)
    9f5b:	c7 85 68 f0 ff ff 7d 	movl   $0x704ad17d,-0xf98(%rbp)
    9f62:	d1 4a 70 
    9f65:	48 8d 05 84 c1 00 00 	lea    0xc184(%rip),%rax        # 160f0 <g_293>
    9f6c:	48 89 85 08 f1 ff ff 	mov    %rax,-0xef8(%rbp)
    9f73:	48 8d 85 08 f1 ff ff 	lea    -0xef8(%rbp),%rax
    9f7a:	48 89 85 60 f1 ff ff 	mov    %rax,-0xea0(%rbp)
    9f81:	48 8d 85 f0 f0 ff ff 	lea    -0xf10(%rbp),%rax
    9f88:	48 89 85 d0 f2 ff ff 	mov    %rax,-0xd30(%rbp)
    9f8f:	48 8d 85 f0 f0 ff ff 	lea    -0xf10(%rbp),%rax
    9f96:	48 89 85 d8 f2 ff ff 	mov    %rax,-0xd28(%rbp)
    9f9d:	48 8d 85 f0 f0 ff ff 	lea    -0xf10(%rbp),%rax
    9fa4:	48 89 85 e0 f2 ff ff 	mov    %rax,-0xd20(%rbp)
    9fab:	48 8d 85 f0 f0 ff ff 	lea    -0xf10(%rbp),%rax
    9fb2:	48 89 85 e8 f2 ff ff 	mov    %rax,-0xd18(%rbp)
    9fb9:	48 8d 85 f0 f0 ff ff 	lea    -0xf10(%rbp),%rax
    9fc0:	48 89 85 f0 f2 ff ff 	mov    %rax,-0xd10(%rbp)
    9fc7:	48 8d 85 f0 f0 ff ff 	lea    -0xf10(%rbp),%rax
    9fce:	48 89 85 f8 f2 ff ff 	mov    %rax,-0xd08(%rbp)
    9fd5:	66 c7 85 70 f2 ff ff 	movw   $0x6,-0xd90(%rbp)
    9fdc:	06 00 
    9fde:	66 c7 85 72 f2 ff ff 	movw   $0x6,-0xd8e(%rbp)
    9fe5:	06 00 
    9fe7:	66 c7 85 74 f2 ff ff 	movw   $0xfffe,-0xd8c(%rbp)
    9fee:	fe ff 
    9ff0:	66 c7 85 76 f2 ff ff 	movw   $0x6,-0xd8a(%rbp)
    9ff7:	06 00 
    9ff9:	66 c7 85 78 f2 ff ff 	movw   $0x6,-0xd88(%rbp)
    a000:	06 00 
    a002:	66 c7 85 7a f2 ff ff 	movw   $0xfffe,-0xd86(%rbp)
    a009:	fe ff 
    a00b:	66 c7 85 7c f2 ff ff 	movw   $0x6,-0xd84(%rbp)
    a012:	06 00 
    a014:	66 c7 85 7e f2 ff ff 	movw   $0x6,-0xd82(%rbp)
    a01b:	06 00 
    a01d:	48 8d 05 34 80 00 00 	lea    0x8034(%rip),%rax        # 12058 <g_1085>
    a024:	48 89 85 68 f1 ff ff 	mov    %rax,-0xe98(%rbp)
    a02b:	48 8d 85 80 f2 ff ff 	lea    -0xd80(%rbp),%rax
    a032:	48 83 c0 08          	add    $0x8,%rax
    a036:	48 89 85 70 f1 ff ff 	mov    %rax,-0xe90(%rbp)
    a03d:	48 b8 25 0e be 36 a6 	movabs $0xb61a4a636be0e25,%rax
    a044:	a4 61 0b 
    a047:	48 89 85 80 f3 ff ff 	mov    %rax,-0xc80(%rbp)
    a04e:	48 bb c4 a3 26 37 ad 	movabs $0x873260ad3726a3c4,%rbx
    a055:	60 32 87 
    a058:	48 89 9d 88 f3 ff ff 	mov    %rbx,-0xc78(%rbp)
    a05f:	48 89 85 90 f3 ff ff 	mov    %rax,-0xc70(%rbp)
    a066:	48 89 85 98 f3 ff ff 	mov    %rax,-0xc68(%rbp)
    a06d:	48 89 9d a0 f3 ff ff 	mov    %rbx,-0xc60(%rbp)
    a074:	48 89 85 a8 f3 ff ff 	mov    %rax,-0xc58(%rbp)
    a07b:	48 89 85 b0 f3 ff ff 	mov    %rax,-0xc50(%rbp)
    a082:	48 89 9d b8 f3 ff ff 	mov    %rbx,-0xc48(%rbp)
    a089:	c7 85 60 f4 ff ff 5b 	movl   $0xeb12af5b,-0xba0(%rbp)
    a090:	af 12 eb 
    a093:	c7 85 64 f4 ff ff 5b 	movl   $0xeb12af5b,-0xb9c(%rbp)
    a09a:	af 12 eb 
    a09d:	c7 85 68 f4 ff ff c7 	movl   $0x94fb7ac7,-0xb98(%rbp)
    a0a4:	7a fb 94 
    a0a7:	c7 85 6c f4 ff ff 00 	movl   $0x0,-0xb94(%rbp)
    a0ae:	00 00 00 
    a0b1:	c7 85 70 f4 ff ff f6 	movl   $0xfffffff6,-0xb90(%rbp)
    a0b8:	ff ff ff 
    a0bb:	c7 85 74 f4 ff ff 06 	movl   $0x6,-0xb8c(%rbp)
    a0c2:	00 00 00 
    a0c5:	c7 85 78 f4 ff ff f6 	movl   $0xfffffff6,-0xb88(%rbp)
    a0cc:	ff ff ff 
    a0cf:	c7 85 7c f4 ff ff c7 	movl   $0x94fb7ac7,-0xb84(%rbp)
    a0d6:	7a fb 94 
    a0d9:	c7 85 80 f4 ff ff f6 	movl   $0xfffffff6,-0xb80(%rbp)
    a0e0:	ff ff ff 
    a0e3:	c7 85 84 f4 ff ff c7 	movl   $0x94fb7ac7,-0xb7c(%rbp)
    a0ea:	7a fb 94 
    a0ed:	c7 85 88 f4 ff ff c7 	movl   $0x94fb7ac7,-0xb78(%rbp)
    a0f4:	7a fb 94 
    a0f7:	c7 85 8c f4 ff ff f6 	movl   $0xfffffff6,-0xb74(%rbp)
    a0fe:	ff ff ff 
    a101:	c7 85 90 f4 ff ff 5b 	movl   $0xeb12af5b,-0xb70(%rbp)
    a108:	af 12 eb 
    a10b:	c7 85 94 f4 ff ff c7 	movl   $0x94fb7ac7,-0xb6c(%rbp)
    a112:	7a fb 94 
    a115:	c7 85 98 f4 ff ff 00 	movl   $0x0,-0xb68(%rbp)
    a11c:	00 00 00 
    a11f:	c7 85 9c f4 ff ff c7 	movl   $0x94fb7ac7,-0xb64(%rbp)
    a126:	7a fb 94 
    a129:	c7 85 a0 f4 ff ff c7 	movl   $0x94fb7ac7,-0xb60(%rbp)
    a130:	7a fb 94 
    a133:	c7 85 a4 f4 ff ff 06 	movl   $0x6,-0xb5c(%rbp)
    a13a:	00 00 00 
    a13d:	c7 85 a8 f4 ff ff 00 	movl   $0x0,-0xb58(%rbp)
    a144:	00 00 00 
    a147:	c7 85 ac f4 ff ff 00 	movl   $0x0,-0xb54(%rbp)
    a14e:	00 00 00 
    a151:	c7 85 b0 f4 ff ff 5b 	movl   $0xeb12af5b,-0xb50(%rbp)
    a158:	af 12 eb 
    a15b:	c7 85 b4 f4 ff ff 5b 	movl   $0xeb12af5b,-0xb4c(%rbp)
    a162:	af 12 eb 
    a165:	c7 85 b8 f4 ff ff c7 	movl   $0x94fb7ac7,-0xb48(%rbp)
    a16c:	7a fb 94 
    a16f:	c7 85 bc f4 ff ff 00 	movl   $0x0,-0xb44(%rbp)
    a176:	00 00 00 
    a179:	c7 85 6c f0 ff ff 00 	movl   $0x0,-0xf94(%rbp)
    a180:	00 00 00 
    a183:	eb 1e                	jmp    a1a3 <func_48+0x6d3>
    a185:	8b 85 6c f0 ff ff    	mov    -0xf94(%rbp),%eax
    a18b:	48 98                	cltq   
    a18d:	48 8d 15 64 d7 00 00 	lea    0xd764(%rip),%rdx        # 178f8 <g_890+0xb8>
    a194:	48 89 94 c5 80 f2 ff 	mov    %rdx,-0xd80(%rbp,%rax,8)
    a19b:	ff 
    a19c:	83 85 6c f0 ff ff 01 	addl   $0x1,-0xf94(%rbp)
    a1a3:	83 bd 6c f0 ff ff 03 	cmpl   $0x3,-0xf94(%rbp)
    a1aa:	7e d9                	jle    a185 <func_48+0x6b5>
    a1ac:	c6 05 6d bf 00 00 00 	movb   $0x0,0xbf6d(%rip)        # 16120 <g_534>
    a1b3:	e9 b9 02 00 00       	jmpq   a471 <func_48+0x9a1>
    a1b8:	48 c7 85 20 f2 ff ff 	movq   $0x0,-0xde0(%rbp)
    a1bf:	00 00 00 00 
    a1c3:	c7 85 c0 f4 ff ff ff 	movl   $0xffffffff,-0xb40(%rbp)
    a1ca:	ff ff ff 
    a1cd:	c7 85 c4 f4 ff ff 01 	movl   $0x1,-0xb3c(%rbp)
    a1d4:	00 00 00 
    a1d7:	c7 85 c8 f4 ff ff eb 	movl   $0x292a41eb,-0xb38(%rbp)
    a1de:	41 2a 29 
    a1e1:	c7 85 cc f4 ff ff fc 	movl   $0xfffffffc,-0xb34(%rbp)
    a1e8:	ff ff ff 
    a1eb:	c7 85 d0 f4 ff ff f9 	movl   $0xfffffff9,-0xb30(%rbp)
    a1f2:	ff ff ff 
    a1f5:	c7 85 d4 f4 ff ff fc 	movl   $0xfffffffc,-0xb2c(%rbp)
    a1fc:	ff ff ff 
    a1ff:	c7 85 d8 f4 ff ff ff 	movl   $0xffffffff,-0xb28(%rbp)
    a206:	ff ff ff 
    a209:	c7 85 dc f4 ff ff ff 	movl   $0xffffffff,-0xb24(%rbp)
    a210:	ff ff ff 
    a213:	c7 85 e0 f4 ff ff fc 	movl   $0xfffffffc,-0xb20(%rbp)
    a21a:	ff ff ff 
    a21d:	c7 85 e4 f4 ff ff f9 	movl   $0xfffffff9,-0xb1c(%rbp)
    a224:	ff ff ff 
    a227:	c7 85 e8 f4 ff ff fc 	movl   $0xfffffffc,-0xb18(%rbp)
    a22e:	ff ff ff 
    a231:	c7 85 ec f4 ff ff eb 	movl   $0x292a41eb,-0xb14(%rbp)
    a238:	41 2a 29 
    a23b:	c7 85 f0 f4 ff ff 01 	movl   $0x1,-0xb10(%rbp)
    a242:	00 00 00 
    a245:	c7 85 f4 f4 ff ff ff 	movl   $0xffffffff,-0xb0c(%rbp)
    a24c:	ff ff ff 
    a24f:	c7 85 f8 f4 ff ff 01 	movl   $0x1,-0xb08(%rbp)
    a256:	00 00 00 
    a259:	48 8b 85 58 f1 ff ff 	mov    -0xea8(%rbp),%rax
    a260:	48 89 85 b8 f0 ff ff 	mov    %rax,-0xf48(%rbp)
    a267:	c6 05 b3 be 00 00 00 	movb   $0x0,0xbeb3(%rip)        # 16121 <g_547>
    a26e:	90                   	nop
    a26f:	0f b6 05 ab be 00 00 	movzbl 0xbeab(%rip),%eax        # 16121 <g_547>
    a276:	3c 02                	cmp    $0x2,%al
    a278:	0f 87 e3 01 00 00    	ja     a461 <func_48+0x991>
    a27e:	c7 85 a0 f2 ff ff ff 	movl   $0xffffffff,-0xd60(%rbp)
    a285:	ff ff ff 
    a288:	c7 85 a4 f2 ff ff 3c 	movl   $0xa57c563c,-0xd5c(%rbp)
    a28f:	56 7c a5 
    a292:	c7 85 a8 f2 ff ff ff 	movl   $0xffffffff,-0xd58(%rbp)
    a299:	ff ff ff 
    a29c:	c7 85 ac f2 ff ff 3c 	movl   $0xa57c563c,-0xd54(%rbp)
    a2a3:	56 7c a5 
    a2a6:	c7 85 b0 f2 ff ff ff 	movl   $0xffffffff,-0xd50(%rbp)
    a2ad:	ff ff ff 
    a2b0:	66 c7 85 3c f0 ff ff 	movw   $0x0,-0xfc4(%rbp)
    a2b7:	00 00 
    a2b9:	90                   	nop
    a2ba:	0f b7 85 3c f0 ff ff 	movzwl -0xfc4(%rbp),%eax
    a2c1:	66 83 f8 03          	cmp    $0x3,%ax
    a2c5:	0f 8f 8a 01 00 00    	jg     a455 <func_48+0x985>
    a2cb:	48 8d 05 ce d6 00 00 	lea    0xd6ce(%rip),%rax        # 179a0 <g_943>
    a2d2:	48 89 85 28 f2 ff ff 	mov    %rax,-0xdd8(%rbp)
    a2d9:	48 8d 85 c8 f0 ff ff 	lea    -0xf38(%rbp),%rax
    a2e0:	48 89 85 30 f2 ff ff 	mov    %rax,-0xdd0(%rbp)
    a2e7:	48 8d 85 68 f2 ff ff 	lea    -0xd98(%rbp),%rax
    a2ee:	48 83 c0 04          	add    $0x4,%rax
    a2f2:	48 89 85 38 f2 ff ff 	mov    %rax,-0xdc8(%rbp)
    a2f9:	48 c7 85 40 f2 ff ff 	movq   $0x0,-0xdc0(%rbp)
    a300:	00 00 00 00 
    a304:	48 c7 85 48 f2 ff ff 	movq   $0x0,-0xdb8(%rbp)
    a30b:	00 00 00 00 
    a30f:	48 c7 85 50 f2 ff ff 	movq   $0x0,-0xdb0(%rbp)
    a316:	00 00 00 00 
    a31a:	8b 05 50 bd 00 00    	mov    0xbd50(%rip),%eax        # 16070 <g_194>
    a320:	48 98                	cltq   
    a322:	48 8d 14 85 00 00 00 	lea    0x0(,%rax,4),%rdx
    a329:	00 
    a32a:	48 8d 05 0f bd 00 00 	lea    0xbd0f(%rip),%rax        # 16040 <g_59>
    a331:	48 01 d0             	add    %rdx,%rax
    a334:	48 89 85 58 f2 ff ff 	mov    %rax,-0xda8(%rbp)
    a33b:	48 8d 05 ea bd 00 00 	lea    0xbdea(%rip),%rax        # 1612c <g_911>
    a342:	48 89 85 60 f2 ff ff 	mov    %rax,-0xda0(%rbp)
    a349:	48 8d 85 68 f2 ff ff 	lea    -0xd98(%rbp),%rax
    a350:	48 83 c0 04          	add    $0x4,%rax
    a354:	48 89 85 d0 f9 ff ff 	mov    %rax,-0x630(%rbp)
    a35b:	48 8d 85 68 f2 ff ff 	lea    -0xd98(%rbp),%rax
    a362:	48 83 c0 04          	add    $0x4,%rax
    a366:	48 89 85 d8 f9 ff ff 	mov    %rax,-0x628(%rbp)
    a36d:	8b 05 fd bc 00 00    	mov    0xbcfd(%rip),%eax        # 16070 <g_194>
    a373:	48 98                	cltq   
    a375:	48 8d 14 85 00 00 00 	lea    0x0(,%rax,4),%rdx
    a37c:	00 
    a37d:	48 8d 05 bc bc 00 00 	lea    0xbcbc(%rip),%rax        # 16040 <g_59>
    a384:	48 01 d0             	add    %rdx,%rax
    a387:	48 89 85 e0 f9 ff ff 	mov    %rax,-0x620(%rbp)
    a38e:	48 8d 85 68 f2 ff ff 	lea    -0xd98(%rbp),%rax
    a395:	48 83 c0 04          	add    $0x4,%rax
    a399:	48 89 85 e8 f9 ff ff 	mov    %rax,-0x618(%rbp)
    a3a0:	48 8d 85 68 f2 ff ff 	lea    -0xd98(%rbp),%rax
    a3a7:	48 83 c0 04          	add    $0x4,%rax
    a3ab:	48 89 85 f0 f9 ff ff 	mov    %rax,-0x610(%rbp)
    a3b2:	8b 05 b8 bc 00 00    	mov    0xbcb8(%rip),%eax        # 16070 <g_194>
    a3b8:	48 98                	cltq   
    a3ba:	48 8d 14 85 00 00 00 	lea    0x0(,%rax,4),%rdx
    a3c1:	00 
    a3c2:	48 8d 05 77 bc 00 00 	lea    0xbc77(%rip),%rax        # 16040 <g_59>
    a3c9:	48 01 d0             	add    %rdx,%rax
    a3cc:	48 89 85 f8 f9 ff ff 	mov    %rax,-0x608(%rbp)
    a3d3:	48 8d 85 68 f2 ff ff 	lea    -0xd98(%rbp),%rax
    a3da:	48 83 c0 04          	add    $0x4,%rax
    a3de:	48 89 85 00 fa ff ff 	mov    %rax,-0x600(%rbp)
    a3e5:	48 8d 85 68 f2 ff ff 	lea    -0xd98(%rbp),%rax
    a3ec:	48 83 c0 04          	add    $0x4,%rax
    a3f0:	48 89 85 08 fa ff ff 	mov    %rax,-0x5f8(%rbp)
    a3f7:	8b 05 73 bc 00 00    	mov    0xbc73(%rip),%eax        # 16070 <g_194>
    a3fd:	48 98                	cltq   
    a3ff:	48 8d 14 85 00 00 00 	lea    0x0(,%rax,4),%rdx
    a406:	00 
    a407:	48 8d 05 32 bc 00 00 	lea    0xbc32(%rip),%rax        # 16040 <g_59>
    a40e:	48 01 d0             	add    %rdx,%rax
    a411:	48 89 85 10 fa ff ff 	mov    %rax,-0x5f0(%rbp)
    a418:	48 8b 15 81 d5 00 00 	mov    0xd581(%rip),%rdx        # 179a0 <g_943>
    a41f:	48 8b 85 28 f2 ff ff 	mov    -0xdd8(%rbp),%rax
    a426:	48 89 10             	mov    %rdx,(%rax)
    a429:	48 8b 95 c8 f0 ff ff 	mov    -0xf38(%rbp),%rdx
    a430:	48 8b 85 30 f2 ff ff 	mov    -0xdd0(%rbp),%rax
    a437:	48 89 10             	mov    %rdx,(%rax)
    a43a:	8b 85 a4 f2 ff ff    	mov    -0xd5c(%rbp),%eax
    a440:	83 e8 01             	sub    $0x1,%eax
    a443:	89 85 a4 f2 ff ff    	mov    %eax,-0xd5c(%rbp)
    a449:	48 8b 85 30 f0 ff ff 	mov    -0xfd0(%rbp),%rax
    a450:	e9 ee 14 00 00       	jmpq   b943 <func_48+0x1e73>
    a455:	48 8b 85 30 f0 ff ff 	mov    -0xfd0(%rbp),%rax
    a45c:	e9 e2 14 00 00       	jmpq   b943 <func_48+0x1e73>
    a461:	0f b6 05 b8 bc 00 00 	movzbl 0xbcb8(%rip),%eax        # 16120 <g_534>
    a468:	83 c0 01             	add    $0x1,%eax
    a46b:	88 05 af bc 00 00    	mov    %al,0xbcaf(%rip)        # 16120 <g_534>
    a471:	0f b6 05 a8 bc 00 00 	movzbl 0xbca8(%rip),%eax        # 16120 <g_534>
    a478:	84 c0                	test   %al,%al
    a47a:	0f 84 38 fd ff ff    	je     a1b8 <func_48+0x6e8>
    a480:	0f b7 85 3c f0 ff ff 	movzwl -0xfc4(%rbp),%eax
    a487:	0f bf d8             	movswl %ax,%ebx
    a48a:	0f b7 85 3c f0 ff ff 	movzwl -0xfc4(%rbp),%eax
    a491:	44 0f bf e0          	movswl %ax,%r12d
    a495:	48 8b 85 a0 f0 ff ff 	mov    -0xf60(%rbp),%rax
    a49c:	44 8b 28             	mov    (%rax),%r13d
    a49f:	8b 85 68 f0 ff ff    	mov    -0xf98(%rbp),%eax
    a4a5:	44 0f b7 f0          	movzwl %ax,%r14d
    a4a9:	48 8b 85 60 f1 ff ff 	mov    -0xea0(%rbp),%rax
    a4b0:	48 8d 95 38 f0 ff ff 	lea    -0xfc8(%rbp),%rdx
    a4b7:	48 89 10             	mov    %rdx,(%rax)
    a4ba:	48 8b 85 60 f1 ff ff 	mov    -0xea0(%rbp),%rax
    a4c1:	48 8b 00             	mov    (%rax),%rax
    a4c4:	48 8d 15 25 bc 00 00 	lea    0xbc25(%rip),%rdx        # 160f0 <g_293>
    a4cb:	48 39 d0             	cmp    %rdx,%rax
    a4ce:	0f b7 85 3c f0 ff ff 	movzwl -0xfc4(%rbp),%eax
    a4d5:	89 c2                	mov    %eax,%edx
    a4d7:	8b 85 38 f0 ff ff    	mov    -0xfc8(%rbp),%eax
    a4dd:	31 d0                	xor    %edx,%eax
    a4df:	0f b6 c0             	movzbl %al,%eax
    a4e2:	be d1 00 00 00       	mov    $0xd1,%esi
    a4e7:	89 c7                	mov    %eax,%edi
    a4e9:	e8 8a a6 ff ff       	callq  4b78 <safe_sub_func_uint8_t_u_u>
    a4ee:	44 89 f6             	mov    %r14d,%esi
    a4f1:	bf 01 00 00 00       	mov    $0x1,%edi
    a4f6:	e8 61 a8 ff ff       	callq  4d5c <safe_mod_func_uint16_t_u_u>
    a4fb:	98                   	cwtl   
    a4fc:	89 c7                	mov    %eax,%edi
    a4fe:	e8 9a 9e ff ff       	callq  439d <safe_unary_minus_func_int16_t_s>
    a503:	89 c2                	mov    %eax,%edx
    a505:	48 8b 05 94 ca 00 00 	mov    0xca94(%rip),%rax        # 16fa0 <g_467>
    a50c:	0f b7 08             	movzwl (%rax),%ecx
    a50f:	48 8b 05 8a ca 00 00 	mov    0xca8a(%rip),%rax        # 16fa0 <g_467>
    a516:	31 ca                	xor    %ecx,%edx
    a518:	66 89 10             	mov    %dx,(%rax)
    a51b:	48 8b 95 f8 f3 ff ff 	mov    -0xc08(%rbp),%rdx
    a522:	48 8b 85 d0 f2 ff ff 	mov    -0xd30(%rbp),%rax
    a529:	48 39 c2             	cmp    %rax,%rdx
    a52c:	0f 95 c0             	setne  %al
    a52f:	0f b6 c0             	movzbl %al,%eax
    a532:	ba 58 d5 db 3e       	mov    $0x3edbd558,%edx
    a537:	39 d0                	cmp    %edx,%eax
    a539:	0f 95 c0             	setne  %al
    a53c:	0f b6 d0             	movzbl %al,%edx
    a53f:	48 8b 85 58 f1 ff ff 	mov    -0xea8(%rbp),%rax
    a546:	48 8b 00             	mov    (%rax),%rax
    a549:	48 8b 00             	mov    (%rax),%rax
    a54c:	0f b7 00             	movzwl (%rax),%eax
    a54f:	89 c1                	mov    %eax,%ecx
    a551:	89 d0                	mov    %edx,%eax
    a553:	21 c1                	and    %eax,%ecx
    a555:	89 ca                	mov    %ecx,%edx
    a557:	48 8b 85 58 f1 ff ff 	mov    -0xea8(%rbp),%rax
    a55e:	48 8b 00             	mov    (%rax),%rax
    a561:	48 8b 00             	mov    (%rax),%rax
    a564:	66 89 10             	mov    %dx,(%rax)
    a567:	0f b7 00             	movzwl (%rax),%eax
    a56a:	0f b7 c0             	movzwl %ax,%eax
    a56d:	44 89 ee             	mov    %r13d,%esi
    a570:	89 c7                	mov    %eax,%edi
    a572:	e8 47 a8 ff ff       	callq  4dbe <safe_lshift_func_uint16_t_u_s>
    a577:	0f b7 05 aa bb 00 00 	movzwl 0xbbaa(%rip),%eax        # 16128 <g_818>
    a57e:	83 f0 01             	xor    $0x1,%eax
    a581:	48 0f bf c0          	movswq %ax,%rax
    a585:	be 01 00 00 00       	mov    $0x1,%esi
    a58a:	48 89 c7             	mov    %rax,%rdi
    a58d:	e8 16 a3 ff ff       	callq  48a8 <safe_sub_func_int64_t_s_s>
    a592:	0f b7 c0             	movzwl %ax,%eax
    a595:	89 c6                	mov    %eax,%esi
    a597:	bf 6f 16 00 00       	mov    $0x166f,%edi
    a59c:	e8 5e a7 ff ff       	callq  4cff <safe_add_func_uint16_t_u_u>
    a5a1:	0f b7 c0             	movzwl %ax,%eax
    a5a4:	be 02 00 00 00       	mov    $0x2,%esi
    a5a9:	89 c7                	mov    %eax,%edi
    a5ab:	e8 98 a8 ff ff       	callq  4e48 <safe_rshift_func_uint16_t_u_s>
    a5b0:	98                   	cwtl   
    a5b1:	44 89 e6             	mov    %r12d,%esi
    a5b4:	89 c7                	mov    %eax,%edi
    a5b6:	e8 9a 9e ff ff       	callq  4455 <safe_div_func_int16_t_s_s>
    a5bb:	98                   	cwtl   
    a5bc:	89 de                	mov    %ebx,%esi
    a5be:	89 c7                	mov    %eax,%edi
    a5c0:	e8 cd 9e ff ff       	callq  4492 <safe_lshift_func_int16_t_s_s>
    a5c5:	0f b7 c0             	movzwl %ax,%eax
    a5c8:	be 05 00 00 00       	mov    $0x5,%esi
    a5cd:	89 c7                	mov    %eax,%edi
    a5cf:	e8 74 a8 ff ff       	callq  4e48 <safe_rshift_func_uint16_t_u_s>
    a5d4:	0f b6 c0             	movzbl %al,%eax
    a5d7:	be fe 00 00 00       	mov    $0xfe,%esi
    a5dc:	89 c7                	mov    %eax,%edi
    a5de:	e8 f8 a5 ff ff       	callq  4bdb <safe_div_func_uint8_t_u_u>
    a5e3:	0f b6 c0             	movzbl %al,%eax
    a5e6:	0b 85 68 f0 ff ff    	or     -0xf98(%rbp),%eax
    a5ec:	39 85 68 f0 ff ff    	cmp    %eax,-0xf98(%rbp)
    a5f2:	7d 07                	jge    a5fb <func_48+0xb2b>
    a5f4:	b8 01 00 00 00       	mov    $0x1,%eax
    a5f9:	eb 05                	jmp    a600 <func_48+0xb30>
    a5fb:	b8 00 00 00 00       	mov    $0x0,%eax
    a600:	84 c0                	test   %al,%al
    a602:	0f 84 86 03 00 00    	je     a98e <func_48+0xebe>
    a608:	c6 85 4c f0 ff ff 06 	movb   $0x6,-0xfb4(%rbp)
    a60f:	c7 85 84 f0 ff ff 87 	movl   $0x172fa587,-0xf7c(%rbp)
    a616:	a5 2f 17 
    a619:	c7 85 88 f0 ff ff 00 	movl   $0x0,-0xf78(%rbp)
    a620:	00 00 00 
    a623:	48 8d 85 d0 f9 ff ff 	lea    -0x630(%rbp),%rax
    a62a:	48 8d 15 4f c3 00 00 	lea    0xc34f(%rip),%rdx        # 16980 <g_1291+0x708>
    a631:	b9 bd 00 00 00       	mov    $0xbd,%ecx
    a636:	48 89 c7             	mov    %rax,%rdi
    a639:	48 89 d6             	mov    %rdx,%rsi
    a63c:	f3 48 a5             	rep movsq %ds:(%rsi),%es:(%rdi)
    a63f:	48 8b 05 42 c9 00 00 	mov    0xc942(%rip),%rax        # 16f88 <g_223>
    a646:	48 85 c0             	test   %rax,%rax
    a649:	0f 95 c0             	setne  %al
    a64c:	0f b6 d0             	movzbl %al,%edx
    a64f:	48 8b 85 a0 f0 ff ff 	mov    -0xf60(%rbp),%rax
    a656:	8b 00                	mov    (%rax),%eax
    a658:	09 d0                	or     %edx,%eax
    a65a:	0f bf d0             	movswl %ax,%edx
    a65d:	48 8b 85 28 f0 ff ff 	mov    -0xfd8(%rbp),%rax
    a664:	0f b6 00             	movzbl (%rax),%eax
    a667:	83 f0 01             	xor    $0x1,%eax
    a66a:	0f be c0             	movsbl %al,%eax
    a66d:	89 d6                	mov    %edx,%esi
    a66f:	89 c7                	mov    %eax,%edi
    a671:	e8 3d 9d ff ff       	callq  43b3 <safe_add_func_int16_t_s_s>
    a676:	0f bf d8             	movswl %ax,%ebx
    a679:	bf ff ff ff ff       	mov    $0xffffffff,%edi
    a67e:	e8 1a 9d ff ff       	callq  439d <safe_unary_minus_func_int16_t_s>
    a683:	48 0f bf c0          	movswq %ax,%rax
    a687:	c6 85 4c f0 ff ff 02 	movb   $0x2,-0xfb4(%rbp)
    a68e:	48 89 c6             	mov    %rax,%rsi
    a691:	bf 02 00 00 00       	mov    $0x2,%edi
    a696:	e8 14 aa ff ff       	callq  50af <safe_div_func_uint64_t_u_u>
    a69b:	89 c2                	mov    %eax,%edx
    a69d:	48 8b 05 3c cf 00 00 	mov    0xcf3c(%rip),%rax        # 175e0 <g_791>
    a6a4:	48 8b 00             	mov    (%rax),%rax
    a6a7:	48 85 c0             	test   %rax,%rax
    a6aa:	0f 95 c0             	setne  %al
    a6ad:	21 d0                	and    %edx,%eax
    a6af:	0f b6 c0             	movzbl %al,%eax
    a6b2:	89 de                	mov    %ebx,%esi
    a6b4:	89 c7                	mov    %eax,%edi
    a6b6:	e8 d2 a5 ff ff       	callq  4c8d <safe_rshift_func_uint8_t_u_s>
    a6bb:	0f b6 c0             	movzbl %al,%eax
    a6be:	39 85 68 f0 ff ff    	cmp    %eax,-0xf98(%rbp)
    a6c4:	0f 9f c2             	setg   %dl
    a6c7:	48 8b 85 a0 f0 ff ff 	mov    -0xf60(%rbp),%rax
    a6ce:	0f b6 d2             	movzbl %dl,%edx
    a6d1:	89 10                	mov    %edx,(%rax)
    a6d3:	8b 00                	mov    (%rax),%eax
    a6d5:	66 89 85 70 f2 ff ff 	mov    %ax,-0xd90(%rbp)
    a6dc:	0f b7 85 70 f2 ff ff 	movzwl -0xd90(%rbp),%eax
    a6e3:	66 85 c0             	test   %ax,%ax
    a6e6:	74 28                	je     a710 <func_48+0xc40>
    a6e8:	48 c7 05 05 ba 00 00 	movq   $0x3,0xba05(%rip)        # 160f8 <g_300>
    a6ef:	03 00 00 00 
    a6f3:	90                   	nop
    a6f4:	48 8b 05 fd b9 00 00 	mov    0xb9fd(%rip),%rax        # 160f8 <g_300>
    a6fb:	48 85 c0             	test   %rax,%rax
    a6fe:	0f 88 25 02 00 00    	js     a929 <func_48+0xe59>
    a704:	48 8b 85 30 f0 ff ff 	mov    -0xfd0(%rbp),%rax
    a70b:	e9 33 12 00 00       	jmpq   b943 <func_48+0x1e73>
    a710:	c7 85 8c f0 ff ff 06 	movl   $0x78e28b06,-0xf74(%rbp)
    a717:	8b e2 78 
    a71a:	48 8d 85 b8 f0 ff ff 	lea    -0xf48(%rbp),%rax
    a721:	48 89 85 c0 f4 ff ff 	mov    %rax,-0xb40(%rbp)
    a728:	48 8d 85 b8 f0 ff ff 	lea    -0xf48(%rbp),%rax
    a72f:	48 89 85 c8 f4 ff ff 	mov    %rax,-0xb38(%rbp)
    a736:	48 8d 85 b8 f0 ff ff 	lea    -0xf48(%rbp),%rax
    a73d:	48 89 85 d0 f4 ff ff 	mov    %rax,-0xb30(%rbp)
    a744:	48 8d 85 b8 f0 ff ff 	lea    -0xf48(%rbp),%rax
    a74b:	48 89 85 d8 f4 ff ff 	mov    %rax,-0xb28(%rbp)
    a752:	48 8d 85 b8 f0 ff ff 	lea    -0xf48(%rbp),%rax
    a759:	48 89 85 e0 f4 ff ff 	mov    %rax,-0xb20(%rbp)
    a760:	48 c7 85 80 f1 ff ff 	movq   $0x0,-0xe80(%rbp)
    a767:	00 00 00 00 
    a76b:	83 bd 80 f0 ff ff 00 	cmpl   $0x0,-0xf80(%rbp)
    a772:	0f 84 74 01 00 00    	je     a8ec <func_48+0xe1c>
    a778:	48 b8 6e b5 63 50 d7 	movabs $0xc2c531d75063b56e,%rax
    a77f:	31 c5 c2 
    a782:	48 89 85 88 f1 ff ff 	mov    %rax,-0xe78(%rbp)
    a789:	48 83 ad 88 f1 ff ff 	subq   $0x1,-0xe78(%rbp)
    a790:	01 
    a791:	0f bf 95 4e f0 ff ff 	movswl -0xfb2(%rbp),%edx
    a798:	48 8b 05 e1 c7 00 00 	mov    0xc7e1(%rip),%rax        # 16f80 <g_18>
    a79f:	0f b6 00             	movzbl (%rax),%eax
    a7a2:	0f be c0             	movsbl %al,%eax
    a7a5:	09 d0                	or     %edx,%eax
    a7a7:	89 85 8c f0 ff ff    	mov    %eax,-0xf74(%rbp)
    a7ad:	bf 06 00 00 00       	mov    $0x6,%edi
    a7b2:	e8 e6 9b ff ff       	callq  439d <safe_unary_minus_func_int16_t_s>
    a7b7:	89 c2                	mov    %eax,%edx
    a7b9:	8b 05 b1 b8 00 00    	mov    0xb8b1(%rip),%eax        # 16070 <g_194>
    a7bf:	0f bf d2             	movswl %dx,%edx
    a7c2:	48 63 c8             	movslq %eax,%rcx
    a7c5:	48 8d 34 8d 00 00 00 	lea    0x0(,%rcx,4),%rsi
    a7cc:	00 
    a7cd:	48 8d 0d 6c b8 00 00 	lea    0xb86c(%rip),%rcx        # 16040 <g_59>
    a7d4:	89 14 0e             	mov    %edx,(%rsi,%rcx,1)
    a7d7:	48 98                	cltq   
    a7d9:	48 8d 14 85 00 00 00 	lea    0x0(,%rax,4),%rdx
    a7e0:	00 
    a7e1:	48 8d 05 58 b8 00 00 	lea    0xb858(%rip),%rax        # 16040 <g_59>
    a7e8:	8b 04 02             	mov    (%rdx,%rax,1),%eax
    a7eb:	09 85 84 f0 ff ff    	or     %eax,-0xf7c(%rbp)
    a7f1:	48 8b 85 c8 f4 ff ff 	mov    -0xb38(%rbp),%rax
    a7f8:	48 85 c0             	test   %rax,%rax
    a7fb:	0f 95 c0             	setne  %al
    a7fe:	0f b6 c0             	movzbl %al,%eax
    a801:	39 85 84 f0 ff ff    	cmp    %eax,-0xf7c(%rbp)
    a807:	0f 9f c0             	setg   %al
    a80a:	41 89 c4             	mov    %eax,%r12d
    a80d:	be 01 00 00 00       	mov    $0x1,%esi
    a812:	bf 00 00 00 00       	mov    $0x0,%edi
    a817:	e8 ea a5 ff ff       	callq  4e06 <safe_lshift_func_uint16_t_u_u>
    a81c:	0f b6 9d 4c f0 ff ff 	movzbl -0xfb4(%rbp),%ebx
    a823:	0f b6 05 f7 b8 00 00 	movzbl 0xb8f7(%rip),%eax        # 16121 <g_547>
    a82a:	0f b6 c0             	movzbl %al,%eax
    a82d:	89 c7                	mov    %eax,%edi
    a82f:	e8 11 a3 ff ff       	callq  4b45 <safe_unary_minus_func_uint8_t_u>
    a834:	48 83 bd 80 f1 ff ff 	cmpq   $0x0,-0xe80(%rbp)
    a83b:	00 
    a83c:	0f 95 c0             	setne  %al
    a83f:	0f b6 d0             	movzbl %al,%edx
    a842:	48 8b 05 37 c7 00 00 	mov    0xc737(%rip),%rax        # 16f80 <g_18>
    a849:	0f b6 00             	movzbl (%rax),%eax
    a84c:	0f be c0             	movsbl %al,%eax
    a84f:	39 c2                	cmp    %eax,%edx
    a851:	48 89 de             	mov    %rbx,%rsi
    a854:	48 bf 65 77 4a 32 cb 	movabs $0x312affcb324a7765,%rdi
    a85b:	ff 2a 31 
    a85e:	e8 e8 a7 ff ff       	callq  504b <safe_sub_func_uint64_t_u_u>
    a863:	48 8b 05 36 c7 00 00 	mov    0xc736(%rip),%rax        # 16fa0 <g_467>
    a86a:	0f b7 10             	movzwl (%rax),%edx
    a86d:	0f b7 85 3c f0 ff ff 	movzwl -0xfc4(%rbp),%eax
    a874:	66 39 c2             	cmp    %ax,%dx
    a877:	0f 9e c0             	setle  %al
    a87a:	0f b6 d0             	movzbl %al,%edx
    a87d:	0f b6 85 4c f0 ff ff 	movzbl -0xfb4(%rbp),%eax
    a884:	39 c2                	cmp    %eax,%edx
    a886:	0f 95 c0             	setne  %al
    a889:	0f b6 c0             	movzbl %al,%eax
    a88c:	be ff ff ff ff       	mov    $0xffffffff,%esi
    a891:	89 c7                	mov    %eax,%edi
    a893:	e8 3b 9b ff ff       	callq  43d3 <safe_sub_func_int16_t_s_s>
    a898:	44 21 e0             	and    %r12d,%eax
    a89b:	0f b6 c0             	movzbl %al,%eax
    a89e:	be 12 00 00 00       	mov    $0x12,%esi
    a8a3:	89 c7                	mov    %eax,%edi
    a8a5:	e8 04 a3 ff ff       	callq  4bae <safe_mod_func_uint8_t_u_u>
    a8aa:	0f b7 85 70 f2 ff ff 	movzwl -0xd90(%rbp),%eax
    a8b1:	66 85 c0             	test   %ax,%ax
    a8b4:	0f 9f c0             	setg   %al
    a8b7:	0f b6 d0             	movzbl %al,%edx
    a8ba:	0f b6 85 4c f0 ff ff 	movzbl -0xfb4(%rbp),%eax
    a8c1:	21 c2                	and    %eax,%edx
    a8c3:	48 8b 85 28 f0 ff ff 	mov    -0xfd8(%rbp),%rax
    a8ca:	0f b6 00             	movzbl (%rax),%eax
    a8cd:	0f be c0             	movsbl %al,%eax
    a8d0:	39 c2                	cmp    %eax,%edx
    a8d2:	0f 95 c0             	setne  %al
    a8d5:	0f b6 c0             	movzbl %al,%eax
    a8d8:	39 85 8c f0 ff ff    	cmp    %eax,-0xf74(%rbp)
    a8de:	0f 9c c0             	setl   %al
    a8e1:	0f b6 c0             	movzbl %al,%eax
    a8e4:	31 85 88 f0 ff ff    	xor    %eax,-0xf78(%rbp)
    a8ea:	eb 3d                	jmp    a929 <func_48+0xe59>
    a8ec:	48 8b 85 a0 f0 ff ff 	mov    -0xf60(%rbp),%rax
    a8f3:	8b 00                	mov    (%rax),%eax
    a8f5:	85 c0                	test   %eax,%eax
    a8f7:	0f 85 79 0e 00 00    	jne    b776 <func_48+0x1ca6>
    a8fd:	8b 85 38 f0 ff ff    	mov    -0xfc8(%rbp),%eax
    a903:	85 c0                	test   %eax,%eax
    a905:	0f 85 4c 0e 00 00    	jne    b757 <func_48+0x1c87>
    a90b:	0f b7 85 70 f2 ff ff 	movzwl -0xd90(%rbp),%eax
    a912:	66 85 c0             	test   %ax,%ax
    a915:	0f 85 5e 0e 00 00    	jne    b779 <func_48+0x1ca9>
    a91b:	8b 85 38 f0 ff ff    	mov    -0xfc8(%rbp),%eax
    a921:	85 c0                	test   %eax,%eax
    a923:	0f 85 53 0e 00 00    	jne    b77c <func_48+0x1cac>
    a929:	48 8d 05 58 c6 00 00 	lea    0xc658(%rip),%rax        # 16f88 <g_223>
    a930:	48 89 85 50 ff ff ff 	mov    %rax,-0xb0(%rbp)
    a937:	8b 85 38 f0 ff ff    	mov    -0xfc8(%rbp),%eax
    a93d:	98                   	cwtl   
    a93e:	be 01 00 00 00       	mov    $0x1,%esi
    a943:	89 c7                	mov    %eax,%edi
    a945:	e8 e0 9b ff ff       	callq  452a <safe_rshift_func_int16_t_s_s>
    a94a:	83 f0 06             	xor    $0x6,%eax
    a94d:	89 c2                	mov    %eax,%edx
    a94f:	8b 05 1b b7 00 00    	mov    0xb71b(%rip),%eax        # 16070 <g_194>
    a955:	0f bf d2             	movswl %dx,%edx
    a958:	48 63 c8             	movslq %eax,%rcx
    a95b:	48 8d 34 8d 00 00 00 	lea    0x0(,%rcx,4),%rsi
    a962:	00 
    a963:	48 8d 0d d6 b6 00 00 	lea    0xb6d6(%rip),%rcx        # 16040 <g_59>
    a96a:	89 14 0e             	mov    %edx,(%rsi,%rcx,1)
    a96d:	48 98                	cltq   
    a96f:	48 8d 14 85 00 00 00 	lea    0x0(,%rax,4),%rdx
    a976:	00 
    a977:	48 8d 05 c2 b6 00 00 	lea    0xb6c2(%rip),%rax        # 16040 <g_59>
    a97e:	8b 04 02             	mov    (%rdx,%rax,1),%eax
    a981:	85 c0                	test   %eax,%eax
    a983:	0f 84 ef 02 00 00    	je     ac78 <func_48+0x11a8>
    a989:	e9 83 01 00 00       	jmpq   ab11 <func_48+0x1041>
    a98e:	c7 85 c0 f4 ff ff 59 	movl   $0xc9fd6159,-0xb40(%rbp)
    a995:	61 fd c9 
    a998:	c7 85 c4 f4 ff ff 59 	movl   $0xc9fd6159,-0xb3c(%rbp)
    a99f:	61 fd c9 
    a9a2:	c7 85 c8 f4 ff ff 59 	movl   $0xc9fd6159,-0xb38(%rbp)
    a9a9:	61 fd c9 
    a9ac:	c7 85 cc f4 ff ff 59 	movl   $0xc9fd6159,-0xb34(%rbp)
    a9b3:	61 fd c9 
    a9b6:	c7 85 d0 f4 ff ff 59 	movl   $0xc9fd6159,-0xb30(%rbp)
    a9bd:	61 fd c9 
    a9c0:	c7 85 d4 f4 ff ff 59 	movl   $0xc9fd6159,-0xb2c(%rbp)
    a9c7:	61 fd c9 
    a9ca:	c7 85 d8 f4 ff ff 59 	movl   $0xc9fd6159,-0xb28(%rbp)
    a9d1:	61 fd c9 
    a9d4:	c7 85 68 f0 ff ff 02 	movl   $0x2,-0xf98(%rbp)
    a9db:	00 00 00 
    a9de:	e9 15 01 00 00       	jmpq   aaf8 <func_48+0x1028>
    a9e3:	8b 05 87 b6 00 00    	mov    0xb687(%rip),%eax        # 16070 <g_194>
    a9e9:	48 98                	cltq   
    a9eb:	48 8d 14 85 00 00 00 	lea    0x0(,%rax,4),%rdx
    a9f2:	00 
    a9f3:	48 8d 05 46 b6 00 00 	lea    0xb646(%rip),%rax        # 16040 <g_59>
    a9fa:	48 01 d0             	add    %rdx,%rax
    a9fd:	48 89 85 78 f1 ff ff 	mov    %rax,-0xe88(%rbp)
    aa04:	8b 05 66 b6 00 00    	mov    0xb666(%rip),%eax        # 16070 <g_194>
    aa0a:	48 98                	cltq   
    aa0c:	48 8d 14 85 00 00 00 	lea    0x0(,%rax,4),%rdx
    aa13:	00 
    aa14:	48 8d 05 25 b6 00 00 	lea    0xb625(%rip),%rax        # 16040 <g_59>
    aa1b:	48 01 d0             	add    %rdx,%rax
    aa1e:	48 89 85 d0 f9 ff ff 	mov    %rax,-0x630(%rbp)
    aa25:	8b 05 45 b6 00 00    	mov    0xb645(%rip),%eax        # 16070 <g_194>
    aa2b:	48 98                	cltq   
    aa2d:	48 8d 14 85 00 00 00 	lea    0x0(,%rax,4),%rdx
    aa34:	00 
    aa35:	48 8d 05 04 b6 00 00 	lea    0xb604(%rip),%rax        # 16040 <g_59>
    aa3c:	48 01 d0             	add    %rdx,%rax
    aa3f:	48 89 85 d8 f9 ff ff 	mov    %rax,-0x628(%rbp)
    aa46:	48 8d 05 cf b6 00 00 	lea    0xb6cf(%rip),%rax        # 1611c <g_532>
    aa4d:	48 89 85 e0 f9 ff ff 	mov    %rax,-0x620(%rbp)
    aa54:	8b 05 16 b6 00 00    	mov    0xb616(%rip),%eax        # 16070 <g_194>
    aa5a:	48 98                	cltq   
    aa5c:	48 8d 14 85 00 00 00 	lea    0x0(,%rax,4),%rdx
    aa63:	00 
    aa64:	48 8d 05 d5 b5 00 00 	lea    0xb5d5(%rip),%rax        # 16040 <g_59>
    aa6b:	48 01 d0             	add    %rdx,%rax
    aa6e:	48 89 85 e8 f9 ff ff 	mov    %rax,-0x618(%rbp)
    aa75:	8b 05 f5 b5 00 00    	mov    0xb5f5(%rip),%eax        # 16070 <g_194>
    aa7b:	48 98                	cltq   
    aa7d:	48 8d 14 85 00 00 00 	lea    0x0(,%rax,4),%rdx
    aa84:	00 
    aa85:	48 8d 05 b4 b5 00 00 	lea    0xb5b4(%rip),%rax        # 16040 <g_59>
    aa8c:	48 01 d0             	add    %rdx,%rax
    aa8f:	48 89 85 f0 f9 ff ff 	mov    %rax,-0x610(%rbp)
    aa96:	48 8d 05 7f b6 00 00 	lea    0xb67f(%rip),%rax        # 1611c <g_532>
    aa9d:	48 89 85 f8 f9 ff ff 	mov    %rax,-0x608(%rbp)
    aaa4:	8b 05 c6 b5 00 00    	mov    0xb5c6(%rip),%eax        # 16070 <g_194>
    aaaa:	48 98                	cltq   
    aaac:	48 8d 14 85 00 00 00 	lea    0x0(,%rax,4),%rdx
    aab3:	00 
    aab4:	48 8d 05 85 b5 00 00 	lea    0xb585(%rip),%rax        # 16040 <g_59>
    aabb:	48 01 d0             	add    %rdx,%rax
    aabe:	48 89 85 00 fa ff ff 	mov    %rax,-0x600(%rbp)
    aac5:	48 8b 85 a0 f0 ff ff 	mov    -0xf60(%rbp),%rax
    aacc:	8b 00                	mov    (%rax),%eax
    aace:	89 c2                	mov    %eax,%edx
    aad0:	8b 85 38 f0 ff ff    	mov    -0xfc8(%rbp),%eax
    aad6:	31 c2                	xor    %eax,%edx
    aad8:	48 8b 85 a0 f0 ff ff 	mov    -0xf60(%rbp),%rax
    aadf:	89 10                	mov    %edx,(%rax)
    aae1:	0f b6 85 4a f0 ff ff 	movzbl -0xfb6(%rbp),%eax
    aae8:	83 e8 01             	sub    $0x1,%eax
    aaeb:	88 85 4a f0 ff ff    	mov    %al,-0xfb6(%rbp)
    aaf1:	83 ad 68 f0 ff ff 01 	subl   $0x1,-0xf98(%rbp)
    aaf8:	83 bd 68 f0 ff ff 00 	cmpl   $0x0,-0xf98(%rbp)
    aaff:	0f 89 de fe ff ff    	jns    a9e3 <func_48+0xf13>
    ab05:	48 8b 85 30 f0 ff ff 	mov    -0xfd0(%rbp),%rax
    ab0c:	e9 32 0e 00 00       	jmpq   b943 <func_48+0x1e73>
    ab11:	48 b8 77 d0 8f 7a cf 	movabs $0xc4228ccf7a8fd077,%rax
    ab18:	8c 22 c4 
    ab1b:	48 89 85 00 f2 ff ff 	mov    %rax,-0xe00(%rbp)
    ab22:	48 8d 85 d0 f0 ff ff 	lea    -0xf30(%rbp),%rax
    ab29:	48 89 85 c0 f4 ff ff 	mov    %rax,-0xb40(%rbp)
    ab30:	48 8d 85 d0 f0 ff ff 	lea    -0xf30(%rbp),%rax
    ab37:	48 89 85 c8 f4 ff ff 	mov    %rax,-0xb38(%rbp)
    ab3e:	48 8d 85 d0 f0 ff ff 	lea    -0xf30(%rbp),%rax
    ab45:	48 89 85 d0 f4 ff ff 	mov    %rax,-0xb30(%rbp)
    ab4c:	48 8d 85 d0 f0 ff ff 	lea    -0xf30(%rbp),%rax
    ab53:	48 89 85 d8 f4 ff ff 	mov    %rax,-0xb28(%rbp)
    ab5a:	48 83 bd 00 f2 ff ff 	cmpq   $0x0,-0xe00(%rbp)
    ab61:	00 
    ab62:	0f 84 de 00 00 00    	je     ac46 <func_48+0x1176>
    ab68:	48 8d 05 e5 b4 00 00 	lea    0xb4e5(%rip),%rax        # 16054 <g_59+0x14>
    ab6f:	48 89 85 08 f2 ff ff 	mov    %rax,-0xdf8(%rbp)
    ab76:	48 c7 85 10 f2 ff ff 	movq   $0x0,-0xdf0(%rbp)
    ab7d:	00 00 00 00 
    ab81:	48 8d 05 28 da 00 00 	lea    0xda28(%rip),%rax        # 185b0 <g_329>
    ab88:	48 89 85 18 f2 ff ff 	mov    %rax,-0xde8(%rbp)
    ab8f:	c7 85 70 f0 ff ff 00 	movl   $0x0,-0xf90(%rbp)
    ab96:	00 00 00 
    ab99:	eb 1b                	jmp    abb6 <func_48+0x10e6>
    ab9b:	8b 85 70 f0 ff ff    	mov    -0xf90(%rbp),%eax
    aba1:	48 98                	cltq   
    aba3:	48 c7 84 c5 d0 f9 ff 	movq   $0x1,-0x630(%rbp,%rax,8)
    abaa:	ff 01 00 00 00 
    abaf:	83 85 70 f0 ff ff 01 	addl   $0x1,-0xf90(%rbp)
    abb6:	83 bd 70 f0 ff ff 09 	cmpl   $0x9,-0xf90(%rbp)
    abbd:	7e dc                	jle    ab9b <func_48+0x10cb>
    abbf:	48 c7 05 2e b5 00 00 	movq   $0x0,0xb52e(%rip)        # 160f8 <g_300>
    abc6:	00 00 00 00 
    abca:	eb 58                	jmp    ac24 <func_48+0x1154>
    abcc:	48 8b 85 a0 f0 ff ff 	mov    -0xf60(%rbp),%rax
    abd3:	8b 00                	mov    (%rax),%eax
    abd5:	89 c2                	mov    %eax,%edx
    abd7:	8b 85 38 f0 ff ff    	mov    -0xfc8(%rbp),%eax
    abdd:	21 c2                	and    %eax,%edx
    abdf:	48 8b 85 a0 f0 ff ff 	mov    -0xf60(%rbp),%rax
    abe6:	89 10                	mov    %edx,(%rax)
    abe8:	48 8b 85 00 fa ff ff 	mov    -0x600(%rbp),%rax
    abef:	48 85 c0             	test   %rax,%rax
    abf2:	75 3e                	jne    ac32 <func_48+0x1162>
    abf4:	48 8b 85 a0 f0 ff ff 	mov    -0xf60(%rbp),%rax
    abfb:	8b 08                	mov    (%rax),%ecx
    abfd:	0f b7 85 3c f0 ff ff 	movzwl -0xfc4(%rbp),%eax
    ac04:	0f bf d0             	movswl %ax,%edx
    ac07:	48 8b 85 a0 f0 ff ff 	mov    -0xf60(%rbp),%rax
    ac0e:	21 ca                	and    %ecx,%edx
    ac10:	89 10                	mov    %edx,(%rax)
    ac12:	48 8b 05 df b4 00 00 	mov    0xb4df(%rip),%rax        # 160f8 <g_300>
    ac19:	48 83 e8 01          	sub    $0x1,%rax
    ac1d:	48 89 05 d4 b4 00 00 	mov    %rax,0xb4d4(%rip)        # 160f8 <g_300>
    ac24:	48 8b 05 cd b4 00 00 	mov    0xb4cd(%rip),%rax        # 160f8 <g_300>
    ac2b:	48 85 c0             	test   %rax,%rax
    ac2e:	79 9c                	jns    abcc <func_48+0x10fc>
    ac30:	eb 01                	jmp    ac33 <func_48+0x1163>
    ac32:	90                   	nop
    ac33:	48 8b 85 18 f2 ff ff 	mov    -0xde8(%rbp),%rax
    ac3a:	48 8b 95 08 f2 ff ff 	mov    -0xdf8(%rbp),%rdx
    ac41:	48 89 10             	mov    %rdx,(%rax)
    ac44:	eb 1f                	jmp    ac65 <func_48+0x1195>
    ac46:	48 83 bd 00 f2 ff ff 	cmpq   $0x0,-0xe00(%rbp)
    ac4d:	00 
    ac4e:	0f 85 2b 0b 00 00    	jne    b77f <func_48+0x1caf>
    ac54:	48 8b 85 a0 f0 ff ff 	mov    -0xf60(%rbp),%rax
    ac5b:	8b 00                	mov    (%rax),%eax
    ac5d:	85 c0                	test   %eax,%eax
    ac5f:	0f 85 1d 0b 00 00    	jne    b782 <func_48+0x1cb2>
    ac65:	48 8b 85 d0 f0 ff ff 	mov    -0xf30(%rbp),%rax
    ac6c:	48 89 85 d0 f0 ff ff 	mov    %rax,-0xf30(%rbp)
    ac73:	e9 df 0a 00 00       	jmpq   b757 <func_48+0x1c87>
    ac78:	66 c7 85 54 f0 ff ff 	movw   $0x9fc6,-0xfac(%rbp)
    ac7f:	c6 9f 
    ac81:	48 c7 45 bf ff ff ff 	movq   $0xffffffffffffffff,-0x41(%rbp)
    ac88:	ff 
    ac89:	c6 45 c7 ff          	movb   $0xff,-0x39(%rbp)
    ac8d:	48 b9 bc 7b db cf 41 	movabs $0x50495541cfdb7bbc,%rcx
    ac94:	55 49 50 
    ac97:	48 89 8d c0 f4 ff ff 	mov    %rcx,-0xb40(%rbp)
    ac9e:	48 c7 85 c8 f4 ff ff 	movq   $0xfffffffffffffffd,-0xb38(%rbp)
    aca5:	fd ff ff ff 
    aca9:	48 89 8d d0 f4 ff ff 	mov    %rcx,-0xb30(%rbp)
    acb0:	48 bb 17 df 93 3d cb 	movabs $0x2e6aebcb3d93df17,%rbx
    acb7:	eb 6a 2e 
    acba:	48 89 9d d8 f4 ff ff 	mov    %rbx,-0xb28(%rbp)
    acc1:	48 b8 8d 62 73 f5 94 	movabs $0xb0cbc894f573628d,%rax
    acc8:	c8 cb b0 
    accb:	48 89 85 e0 f4 ff ff 	mov    %rax,-0xb20(%rbp)
    acd2:	48 c7 85 e8 f4 ff ff 	movq   $0x3,-0xb18(%rbp)
    acd9:	03 00 00 00 
    acdd:	48 89 9d f0 f4 ff ff 	mov    %rbx,-0xb10(%rbp)
    ace4:	48 89 9d f8 f4 ff ff 	mov    %rbx,-0xb08(%rbp)
    aceb:	48 89 85 00 f5 ff ff 	mov    %rax,-0xb00(%rbp)
    acf2:	48 89 8d 08 f5 ff ff 	mov    %rcx,-0xaf8(%rbp)
    acf9:	48 89 85 10 f5 ff ff 	mov    %rax,-0xaf0(%rbp)
    ad00:	48 89 85 18 f5 ff ff 	mov    %rax,-0xae8(%rbp)
    ad07:	48 89 85 20 f5 ff ff 	mov    %rax,-0xae0(%rbp)
    ad0e:	48 c7 85 28 f5 ff ff 	movq   $0xfffffffffffffffd,-0xad8(%rbp)
    ad15:	fd ff ff ff 
    ad19:	48 c7 85 30 f5 ff ff 	movq   $0x3,-0xad0(%rbp)
    ad20:	03 00 00 00 
    ad24:	48 89 8d 38 f5 ff ff 	mov    %rcx,-0xac8(%rbp)
    ad2b:	48 c7 85 40 f5 ff ff 	movq   $0xfffffffffffffffd,-0xac0(%rbp)
    ad32:	fd ff ff ff 
    ad36:	48 89 8d 48 f5 ff ff 	mov    %rcx,-0xab8(%rbp)
    ad3d:	48 89 9d 50 f5 ff ff 	mov    %rbx,-0xab0(%rbp)
    ad44:	48 89 85 58 f5 ff ff 	mov    %rax,-0xaa8(%rbp)
    ad4b:	48 c7 85 60 f5 ff ff 	movq   $0x3,-0xaa0(%rbp)
    ad52:	03 00 00 00 
    ad56:	48 89 9d 68 f5 ff ff 	mov    %rbx,-0xa98(%rbp)
    ad5d:	48 89 9d 70 f5 ff ff 	mov    %rbx,-0xa90(%rbp)
    ad64:	48 89 85 78 f5 ff ff 	mov    %rax,-0xa88(%rbp)
    ad6b:	c7 85 90 f0 ff ff d3 	movl   $0xcb1ce2d3,-0xf70(%rbp)
    ad72:	e2 1c cb 
    ad75:	c7 85 94 f0 ff ff 00 	movl   $0x0,-0xf6c(%rbp)
    ad7c:	00 00 00 
    ad7f:	c7 85 58 f0 ff ff 09 	movl   $0x9,-0xfa8(%rbp)
    ad86:	00 00 00 
    ad89:	c7 05 5d b3 00 00 00 	movl   $0x0,0xb35d(%rip)        # 160f0 <g_293>
    ad90:	00 00 00 
    ad93:	90                   	nop
    ad94:	8b 05 56 b3 00 00    	mov    0xb356(%rip),%eax        # 160f0 <g_293>
    ad9a:	83 f8 02             	cmp    $0x2,%eax
    ad9d:	0f 87 8e 02 00 00    	ja     b031 <func_48+0x1561>
    ada3:	48 8d 05 06 d8 00 00 	lea    0xd806(%rip),%rax        # 185b0 <g_329>
    adaa:	48 89 85 d0 f9 ff ff 	mov    %rax,-0x630(%rbp)
    adb1:	48 c7 85 d8 f9 ff ff 	movq   $0x0,-0x628(%rbp)
    adb8:	00 00 00 00 
    adbc:	48 8d 05 ed d7 00 00 	lea    0xd7ed(%rip),%rax        # 185b0 <g_329>
    adc3:	48 89 85 e0 f9 ff ff 	mov    %rax,-0x620(%rbp)
    adca:	48 c7 85 e8 f9 ff ff 	movq   $0x0,-0x618(%rbp)
    add1:	00 00 00 00 
    add5:	48 c7 85 f0 f9 ff ff 	movq   $0x0,-0x610(%rbp)
    addc:	00 00 00 00 
    ade0:	48 c7 85 f8 f9 ff ff 	movq   $0x0,-0x608(%rbp)
    ade7:	00 00 00 00 
    adeb:	48 8d 85 a0 f0 ff ff 	lea    -0xf60(%rbp),%rax
    adf2:	48 89 85 00 fa ff ff 	mov    %rax,-0x600(%rbp)
    adf9:	48 c7 85 08 fa ff ff 	movq   $0x0,-0x5f8(%rbp)
    ae00:	00 00 00 00 
    ae04:	48 8d 85 a0 f0 ff ff 	lea    -0xf60(%rbp),%rax
    ae0b:	48 89 85 10 fa ff ff 	mov    %rax,-0x5f0(%rbp)
    ae12:	48 8d 85 a0 f0 ff ff 	lea    -0xf60(%rbp),%rax
    ae19:	48 89 85 18 fa ff ff 	mov    %rax,-0x5e8(%rbp)
    ae20:	48 c7 85 20 fa ff ff 	movq   $0x0,-0x5e0(%rbp)
    ae27:	00 00 00 00 
    ae2b:	48 8d 85 a0 f0 ff ff 	lea    -0xf60(%rbp),%rax
    ae32:	48 89 85 28 fa ff ff 	mov    %rax,-0x5d8(%rbp)
    ae39:	48 8d 05 70 d7 00 00 	lea    0xd770(%rip),%rax        # 185b0 <g_329>
    ae40:	48 89 85 30 fa ff ff 	mov    %rax,-0x5d0(%rbp)
    ae47:	48 8d 85 a0 f0 ff ff 	lea    -0xf60(%rbp),%rax
    ae4e:	48 89 85 38 fa ff ff 	mov    %rax,-0x5c8(%rbp)
    ae55:	48 8d 05 54 d7 00 00 	lea    0xd754(%rip),%rax        # 185b0 <g_329>
    ae5c:	48 89 85 40 fa ff ff 	mov    %rax,-0x5c0(%rbp)
    ae63:	48 8d 05 46 d7 00 00 	lea    0xd746(%rip),%rax        # 185b0 <g_329>
    ae6a:	48 89 85 48 fa ff ff 	mov    %rax,-0x5b8(%rbp)
    ae71:	48 8d 05 38 d7 00 00 	lea    0xd738(%rip),%rax        # 185b0 <g_329>
    ae78:	48 89 85 50 fa ff ff 	mov    %rax,-0x5b0(%rbp)
    ae7f:	48 8d 85 e8 f0 ff ff 	lea    -0xf18(%rbp),%rax
    ae86:	48 89 85 58 fa ff ff 	mov    %rax,-0x5a8(%rbp)
    ae8d:	48 8d 05 1c d7 00 00 	lea    0xd71c(%rip),%rax        # 185b0 <g_329>
    ae94:	48 89 85 60 fa ff ff 	mov    %rax,-0x5a0(%rbp)
    ae9b:	48 8d 05 0e d7 00 00 	lea    0xd70e(%rip),%rax        # 185b0 <g_329>
    aea2:	48 89 85 68 fa ff ff 	mov    %rax,-0x598(%rbp)
    aea9:	48 8d 85 a0 f0 ff ff 	lea    -0xf60(%rbp),%rax
    aeb0:	48 89 85 70 fa ff ff 	mov    %rax,-0x590(%rbp)
    aeb7:	48 c7 85 78 fa ff ff 	movq   $0x0,-0x588(%rbp)
    aebe:	00 00 00 00 
    aec2:	48 8d 05 e7 d6 00 00 	lea    0xd6e7(%rip),%rax        # 185b0 <g_329>
    aec9:	48 89 85 80 fa ff ff 	mov    %rax,-0x580(%rbp)
    aed0:	48 8d 05 d9 d6 00 00 	lea    0xd6d9(%rip),%rax        # 185b0 <g_329>
    aed7:	48 89 85 88 fa ff ff 	mov    %rax,-0x578(%rbp)
    aede:	48 8d 05 cb d6 00 00 	lea    0xd6cb(%rip),%rax        # 185b0 <g_329>
    aee5:	48 89 85 90 fa ff ff 	mov    %rax,-0x570(%rbp)
    aeec:	48 8d 85 a0 f0 ff ff 	lea    -0xf60(%rbp),%rax
    aef3:	48 89 85 98 fa ff ff 	mov    %rax,-0x568(%rbp)
    aefa:	48 8d 85 a0 f0 ff ff 	lea    -0xf60(%rbp),%rax
    af01:	48 89 85 a0 fa ff ff 	mov    %rax,-0x560(%rbp)
    af08:	48 8d 05 a1 d6 00 00 	lea    0xd6a1(%rip),%rax        # 185b0 <g_329>
    af0f:	48 89 85 a8 fa ff ff 	mov    %rax,-0x558(%rbp)
    af16:	48 8d 05 93 d6 00 00 	lea    0xd693(%rip),%rax        # 185b0 <g_329>
    af1d:	48 89 85 b0 fa ff ff 	mov    %rax,-0x550(%rbp)
    af24:	48 8d 85 e8 f0 ff ff 	lea    -0xf18(%rbp),%rax
    af2b:	48 89 85 b8 fa ff ff 	mov    %rax,-0x548(%rbp)
    af32:	48 c7 85 c0 fa ff ff 	movq   $0x0,-0x540(%rbp)
    af39:	00 00 00 00 
    af3d:	48 8d 05 6c d6 00 00 	lea    0xd66c(%rip),%rax        # 185b0 <g_329>
    af44:	48 89 85 c8 fa ff ff 	mov    %rax,-0x538(%rbp)
    af4b:	48 c7 85 d0 fa ff ff 	movq   $0x0,-0x530(%rbp)
    af52:	00 00 00 00 
    af56:	48 8d 85 e8 f0 ff ff 	lea    -0xf18(%rbp),%rax
    af5d:	48 89 85 d8 fa ff ff 	mov    %rax,-0x528(%rbp)
    af64:	48 c7 85 e0 fa ff ff 	movq   $0x0,-0x520(%rbp)
    af6b:	00 00 00 00 
    af6f:	48 8d 85 e8 f0 ff ff 	lea    -0xf18(%rbp),%rax
    af76:	48 89 85 e8 fa ff ff 	mov    %rax,-0x518(%rbp)
    af7d:	48 8d 85 e8 f0 ff ff 	lea    -0xf18(%rbp),%rax
    af84:	48 89 85 f0 fa ff ff 	mov    %rax,-0x510(%rbp)
    af8b:	48 8d 85 e8 f0 ff ff 	lea    -0xf18(%rbp),%rax
    af92:	48 89 85 f8 fa ff ff 	mov    %rax,-0x508(%rbp)
    af99:	48 8d 05 10 d6 00 00 	lea    0xd610(%rip),%rax        # 185b0 <g_329>
    afa0:	48 89 85 00 fb ff ff 	mov    %rax,-0x500(%rbp)
    afa7:	48 8d 05 02 d6 00 00 	lea    0xd602(%rip),%rax        # 185b0 <g_329>
    afae:	48 89 85 08 fb ff ff 	mov    %rax,-0x4f8(%rbp)
    afb5:	48 8d 05 f4 d5 00 00 	lea    0xd5f4(%rip),%rax        # 185b0 <g_329>
    afbc:	48 89 85 10 fb ff ff 	mov    %rax,-0x4f0(%rbp)
    afc3:	48 8d 05 e6 d5 00 00 	lea    0xd5e6(%rip),%rax        # 185b0 <g_329>
    afca:	48 89 85 18 fb ff ff 	mov    %rax,-0x4e8(%rbp)
    afd1:	48 8d 85 a0 f0 ff ff 	lea    -0xf60(%rbp),%rax
    afd8:	48 89 85 20 fb ff ff 	mov    %rax,-0x4e0(%rbp)
    afdf:	48 8d 85 a0 f0 ff ff 	lea    -0xf60(%rbp),%rax
    afe6:	48 89 85 28 fb ff ff 	mov    %rax,-0x4d8(%rbp)
    afed:	48 8d 05 bc d5 00 00 	lea    0xd5bc(%rip),%rax        # 185b0 <g_329>
    aff4:	48 89 85 30 fb ff ff 	mov    %rax,-0x4d0(%rbp)
    affb:	0f b6 85 4b f0 ff ff 	movzbl -0xfb5(%rbp),%eax
    b002:	66 89 85 54 f0 ff ff 	mov    %ax,-0xfac(%rbp)
    b009:	48 8b 85 30 f0 ff ff 	mov    -0xfd0(%rbp),%rax
    b010:	48 89 85 e8 f0 ff ff 	mov    %rax,-0xf18(%rbp)
    b017:	48 8b 85 e8 f0 ff ff 	mov    -0xf18(%rbp),%rax
    b01e:	48 89 85 38 f4 ff ff 	mov    %rax,-0xbc8(%rbp)
    b025:	48 8b 85 30 f0 ff ff 	mov    -0xfd0(%rbp),%rax
    b02c:	e9 12 09 00 00       	jmpq   b943 <func_48+0x1e73>
    b031:	66 c7 05 ee b0 00 00 	movw   $0x2,0xb0ee(%rip)        # 16128 <g_818>
    b038:	02 00 
    b03a:	e9 7c 04 00 00       	jmpq   b4bb <func_48+0x19eb>
    b03f:	48 8d 05 1a d6 00 00 	lea    0xd61a(%rip),%rax        # 18660 <g_1045+0x60>
    b046:	48 89 85 10 f1 ff ff 	mov    %rax,-0xef0(%rbp)
    b04d:	48 8d 85 10 f1 ff ff 	lea    -0xef0(%rbp),%rax
    b054:	48 89 85 b8 f1 ff ff 	mov    %rax,-0xe48(%rbp)
    b05b:	48 8d 85 d0 f9 ff ff 	lea    -0x630(%rbp),%rax
    b062:	48 8d 15 77 74 00 00 	lea    0x7477(%rip),%rdx        # 124e0 <g_1085+0x488>
    b069:	b9 64 00 00 00       	mov    $0x64,%ecx
    b06e:	48 89 c7             	mov    %rax,%rdi
    b071:	48 89 d6             	mov    %rdx,%rsi
    b074:	f3 48 a5             	rep movsq %ds:(%rsi),%es:(%rdi)
    b077:	c7 85 98 f0 ff ff 04 	movl   $0x4,-0xf68(%rbp)
    b07e:	00 00 00 
    b081:	c7 85 74 f0 ff ff 01 	movl   $0x1,-0xf8c(%rbp)
    b088:	00 00 00 
    b08b:	c7 85 78 f0 ff ff 00 	movl   $0x0,-0xf88(%rbp)
    b092:	00 00 00 
    b095:	eb 1e                	jmp    b0b5 <func_48+0x15e5>
    b097:	8b 85 78 f0 ff ff    	mov    -0xf88(%rbp),%eax
    b09d:	48 98                	cltq   
    b09f:	48 8d 15 7e af 00 00 	lea    0xaf7e(%rip),%rdx        # 16024 <g_6>
    b0a6:	48 89 94 c5 a0 f2 ff 	mov    %rdx,-0xd60(%rbp,%rax,8)
    b0ad:	ff 
    b0ae:	83 85 78 f0 ff ff 01 	addl   $0x1,-0xf88(%rbp)
    b0b5:	83 bd 78 f0 ff ff 04 	cmpl   $0x4,-0xf88(%rbp)
    b0bc:	7e d9                	jle    b097 <func_48+0x15c7>
    b0be:	48 8b 95 10 f1 ff ff 	mov    -0xef0(%rbp),%rdx
    b0c5:	48 8b 85 b8 f1 ff ff 	mov    -0xe48(%rbp),%rax
    b0cc:	48 89 10             	mov    %rdx,(%rax)
    b0cf:	8b 85 d4 fb ff ff    	mov    -0x42c(%rbp),%eax
    b0d5:	85 c0                	test   %eax,%eax
    b0d7:	0f 85 cc 03 00 00    	jne    b4a9 <func_48+0x19d9>
    b0dd:	c6 85 4b f0 ff ff 00 	movb   $0x0,-0xfb5(%rbp)
    b0e4:	e9 b1 03 00 00       	jmpq   b49a <func_48+0x19ca>
    b0e9:	48 c7 85 c0 f1 ff ff 	movq   $0x0,-0xe40(%rbp)
    b0f0:	00 00 00 00 
    b0f4:	48 8d 05 0d b0 00 00 	lea    0xb00d(%rip),%rax        # 16108 <g_471>
    b0fb:	48 89 85 c8 f1 ff ff 	mov    %rax,-0xe38(%rbp)
    b102:	c7 85 9c f0 ff ff 34 	movl   $0xd30aae34,-0xf64(%rbp)
    b109:	ae 0a d3 
    b10c:	48 8d 05 ad c5 00 00 	lea    0xc5ad(%rip),%rax        # 176c0 <g_876+0xc0>
    b113:	48 89 85 d0 f1 ff ff 	mov    %rax,-0xe30(%rbp)
    b11a:	48 c7 85 d8 f1 ff ff 	movq   $0x0,-0xe28(%rbp)
    b121:	00 00 00 00 
    b125:	48 8d 05 14 c5 00 00 	lea    0xc514(%rip),%rax        # 17640 <g_876+0x40>
    b12c:	48 89 85 e0 f1 ff ff 	mov    %rax,-0xe20(%rbp)
    b133:	48 8d 05 2e b0 00 00 	lea    0xb02e(%rip),%rax        # 16168 <g_1070>
    b13a:	48 89 85 18 f1 ff ff 	mov    %rax,-0xee8(%rbp)
    b141:	48 8d 85 18 f1 ff ff 	lea    -0xee8(%rbp),%rax
    b148:	48 89 85 e8 f1 ff ff 	mov    %rax,-0xe18(%rbp)
    b14f:	48 8d 05 72 d4 00 00 	lea    0xd472(%rip),%rax        # 185c8 <g_512>
    b156:	48 89 85 f0 f1 ff ff 	mov    %rax,-0xe10(%rbp)
    b15d:	c6 85 4d f0 ff ff ff 	movb   $0xff,-0xfb3(%rbp)
    b164:	66 c7 85 56 f0 ff ff 	movw   $0x1,-0xfaa(%rbp)
    b16b:	01 00 
    b16d:	48 8d 05 64 d5 00 00 	lea    0xd564(%rip),%rax        # 186d8 <g_1105>
    b174:	48 89 85 f8 f1 ff ff 	mov    %rax,-0xe08(%rbp)
    b17b:	48 8b 85 68 f7 ff ff 	mov    -0x898(%rbp),%rax
    b182:	48 89 85 c8 f1 ff ff 	mov    %rax,-0xe38(%rbp)
    b189:	48 8d 05 10 af 00 00 	lea    0xaf10(%rip),%rax        # 160a0 <g_281>
    b190:	48 39 85 c8 f1 ff ff 	cmp    %rax,-0xe38(%rbp)
    b197:	0f b7 85 3c f0 ff ff 	movzwl -0xfc4(%rbp),%eax
    b19e:	0f bf d8             	movswl %ax,%ebx
    b1a1:	8b 85 38 f0 ff ff    	mov    -0xfc8(%rbp),%eax
    b1a7:	44 0f b7 e0          	movzwl %ax,%r12d
    b1ab:	0f b7 85 54 f0 ff ff 	movzwl -0xfac(%rbp),%eax
    b1b2:	0f bf d0             	movswl %ax,%edx
    b1b5:	0f b7 85 3c f0 ff ff 	movzwl -0xfc4(%rbp),%eax
    b1bc:	66 c1 e8 0f          	shr    $0xf,%ax
    b1c0:	0f b6 c8             	movzbl %al,%ecx
    b1c3:	0f b7 85 3c f0 ff ff 	movzwl -0xfc4(%rbp),%eax
    b1ca:	98                   	cwtl   
    b1cb:	39 c1                	cmp    %eax,%ecx
    b1cd:	0f 9f c0             	setg   %al
    b1d0:	0f b6 c0             	movzbl %al,%eax
    b1d3:	89 d6                	mov    %edx,%esi
    b1d5:	89 c7                	mov    %eax,%edi
    b1d7:	e8 19 92 ff ff       	callq  43f5 <safe_mul_func_int16_t_s_s>
    b1dc:	48 8b 95 58 f1 ff ff 	mov    -0xea8(%rbp),%rdx
    b1e3:	48 8b 12             	mov    (%rdx),%rdx
    b1e6:	48 8b 12             	mov    (%rdx),%rdx
    b1e9:	0f b7 12             	movzwl (%rdx),%edx
    b1ec:	31 c2                	xor    %eax,%edx
    b1ee:	48 8b 85 58 f1 ff ff 	mov    -0xea8(%rbp),%rax
    b1f5:	48 8b 00             	mov    (%rax),%rax
    b1f8:	48 8b 00             	mov    (%rax),%rax
    b1fb:	66 89 10             	mov    %dx,(%rax)
    b1fe:	0f b7 00             	movzwl (%rax),%eax
    b201:	0f b7 c0             	movzwl %ax,%eax
    b204:	44 89 e6             	mov    %r12d,%esi
    b207:	89 c7                	mov    %eax,%edi
    b209:	e8 80 9b ff ff       	callq  4d8e <safe_div_func_uint16_t_u_u>
    b20e:	66 39 85 54 f0 ff ff 	cmp    %ax,-0xfac(%rbp)
    b215:	0f 95 c0             	setne  %al
    b218:	0f b6 c0             	movzbl %al,%eax
    b21b:	89 de                	mov    %ebx,%esi
    b21d:	89 c7                	mov    %eax,%edi
    b21f:	e8 af 91 ff ff       	callq  43d3 <safe_sub_func_int16_t_s_s>
    b224:	be 02 00 00 00       	mov    $0x2,%esi
    b229:	bf 4e e7 00 00       	mov    $0xe74e,%edi
    b22e:	e8 47 9c ff ff       	callq  4e7a <safe_rshift_func_uint16_t_u_u>
    b233:	66 83 f8 06          	cmp    $0x6,%ax
    b237:	0f 96 c0             	setbe  %al
    b23a:	0f b6 d0             	movzbl %al,%edx
    b23d:	48 c7 85 40 f1 ff ff 	movq   $0x0,-0xec0(%rbp)
    b244:	00 00 00 00 
    b248:	48 8d 05 b9 ae 00 00 	lea    0xaeb9(%rip),%rax        # 16108 <g_471>
    b24f:	48 89 85 68 f3 ff ff 	mov    %rax,-0xc98(%rbp)
    b256:	48 8b 85 68 f3 ff ff 	mov    -0xc98(%rbp),%rax
    b25d:	48 39 85 40 f1 ff ff 	cmp    %rax,-0xec0(%rbp)
    b264:	0f 95 c0             	setne  %al
    b267:	0f b6 c0             	movzbl %al,%eax
    b26a:	39 85 9c f0 ff ff    	cmp    %eax,-0xf64(%rbp)
    b270:	0f 9e c0             	setle  %al
    b273:	89 c1                	mov    %eax,%ecx
    b275:	0f b7 85 72 f2 ff ff 	movzwl -0xd8e(%rbp),%eax
    b27c:	09 c8                	or     %ecx,%eax
    b27e:	0f be c0             	movsbl %al,%eax
    b281:	89 d6                	mov    %edx,%esi
    b283:	89 c7                	mov    %eax,%edi
    b285:	e8 4a 8f ff ff       	callq  41d4 <safe_add_func_int8_t_s_s>
    b28a:	48 8b 85 a0 f0 ff ff 	mov    -0xf60(%rbp),%rax
    b291:	c7 00 01 00 00 00    	movl   $0x1,(%rax)
    b297:	48 8b 85 e8 f1 ff ff 	mov    -0xe18(%rbp),%rax
    b29e:	48 c7 00 00 00 00 00 	movq   $0x0,(%rax)
    b2a5:	8b 85 98 f0 ff ff    	mov    -0xf68(%rbp),%eax
    b2ab:	0f bf d8             	movswl %ax,%ebx
    b2ae:	44 0f bf a5 56 f0 ff 	movswl -0xfaa(%rbp),%r12d
    b2b5:	ff 
    b2b6:	0f b6 45 c6          	movzbl -0x3a(%rbp),%eax
    b2ba:	0f be c0             	movsbl %al,%eax
    b2bd:	89 c6                	mov    %eax,%esi
    b2bf:	bf 01 00 00 00       	mov    $0x1,%edi
    b2c4:	e8 c4 99 ff ff       	callq  4c8d <safe_rshift_func_uint8_t_u_s>
    b2c9:	0f b6 d0             	movzbl %al,%edx
    b2cc:	0f b7 85 3c f0 ff ff 	movzwl -0xfc4(%rbp),%eax
    b2d3:	98                   	cwtl   
    b2d4:	39 c2                	cmp    %eax,%edx
    b2d6:	0f 95 c0             	setne  %al
    b2d9:	0f b6 d0             	movzbl %al,%edx
    b2dc:	48 8b 85 28 f0 ff ff 	mov    -0xfd8(%rbp),%rax
    b2e3:	0f b6 00             	movzbl (%rax),%eax
    b2e6:	84 c0                	test   %al,%al
    b2e8:	74 11                	je     b2fb <func_48+0x182b>
    b2ea:	8b 85 38 f0 ff ff    	mov    -0xfc8(%rbp),%eax
    b2f0:	85 c0                	test   %eax,%eax
    b2f2:	74 07                	je     b2fb <func_48+0x182b>
    b2f4:	b8 01 00 00 00       	mov    $0x1,%eax
    b2f9:	eb 05                	jmp    b300 <func_48+0x1830>
    b2fb:	b8 00 00 00 00       	mov    $0x0,%eax
    b300:	39 d0                	cmp    %edx,%eax
    b302:	0f 9e c0             	setle  %al
    b305:	44 0f b6 f8          	movzbl %al,%r15d
    b309:	0f b7 85 3c f0 ff ff 	movzwl -0xfc4(%rbp),%eax
    b310:	44 0f bf e8          	movswl %ax,%r13d
    b314:	48 8b 85 c8 f4 ff ff 	mov    -0xb38(%rbp),%rax
    b31b:	89 85 24 f0 ff ff    	mov    %eax,-0xfdc(%rbp)
    b321:	0f b7 85 70 f2 ff ff 	movzwl -0xd90(%rbp),%eax
    b328:	44 0f bf f0          	movswl %ax,%r14d
    b32c:	8b 85 38 f0 ff ff    	mov    -0xfc8(%rbp),%eax
    b332:	89 c0                	mov    %eax,%eax
    b334:	48 89 85 18 f0 ff ff 	mov    %rax,-0xfe8(%rbp)
    b33b:	0f b7 85 3c f0 ff ff 	movzwl -0xfc4(%rbp),%eax
    b342:	98                   	cwtl   
    b343:	be 00 00 00 00       	mov    $0x0,%esi
    b348:	89 c7                	mov    %eax,%edi
    b34a:	e8 64 90 ff ff       	callq  43b3 <safe_add_func_int16_t_s_s>
    b34f:	0f bf d0             	movswl %ax,%edx
    b352:	8b 85 38 f0 ff ff    	mov    -0xfc8(%rbp),%eax
    b358:	39 c2                	cmp    %eax,%edx
    b35a:	0f 95 c0             	setne  %al
    b35d:	0f b6 c0             	movzbl %al,%eax
    b360:	be fd ff ff ff       	mov    $0xfffffffd,%esi
    b365:	89 c7                	mov    %eax,%edi
    b367:	e8 99 92 ff ff       	callq  4605 <safe_sub_func_int32_t_s_s>
    b36c:	48 98                	cltq   
    b36e:	48 8b b5 18 f0 ff ff 	mov    -0xfe8(%rbp),%rsi
    b375:	48 89 c7             	mov    %rax,%rdi
    b378:	e8 03 9d ff ff       	callq  5080 <safe_mod_func_uint64_t_u_u>
    b37d:	0f be c0             	movsbl %al,%eax
    b380:	44 89 f6             	mov    %r14d,%esi
    b383:	89 c7                	mov    %eax,%edi
    b385:	e8 ab 8f ff ff       	callq  4335 <safe_rshift_func_int8_t_s_s>
    b38a:	0a 85 4d f0 ff ff    	or     -0xfb3(%rbp),%al
    b390:	0f b6 c0             	movzbl %al,%eax
    b393:	8b b5 24 f0 ff ff    	mov    -0xfdc(%rbp),%esi
    b399:	89 c7                	mov    %eax,%edi
    b39b:	e8 1e 99 ff ff       	callq  4cbe <safe_rshift_func_uint8_t_u_u>
    b3a0:	0f b6 c0             	movzbl %al,%eax
    b3a3:	44 89 ee             	mov    %r13d,%esi
    b3a6:	89 c7                	mov    %eax,%edi
    b3a8:	e8 b6 91 ff ff       	callq  4563 <safe_rshift_func_int16_t_s_u>
    b3ad:	0f b6 d0             	movzbl %al,%edx
    b3b0:	48 8b 85 b8 f2 ff ff 	mov    -0xd48(%rbp),%rax
    b3b7:	48 89 85 68 f1 ff ff 	mov    %rax,-0xe98(%rbp)
    b3be:	48 8b 85 08 f1 ff ff 	mov    -0xef8(%rbp),%rax
    b3c5:	48 39 85 68 f1 ff ff 	cmp    %rax,-0xe98(%rbp)
    b3cc:	0f 95 c0             	setne  %al
    b3cf:	0f b6 c0             	movzbl %al,%eax
    b3d2:	89 d6                	mov    %edx,%esi
    b3d4:	89 c7                	mov    %eax,%edi
    b3d6:	e8 b8 97 ff ff       	callq  4b93 <safe_mul_func_uint8_t_u_u>
    b3db:	0f b6 c0             	movzbl %al,%eax
    b3de:	41 39 c7             	cmp    %eax,%r15d
    b3e1:	0f 9e c0             	setle  %al
    b3e4:	0f b6 c0             	movzbl %al,%eax
    b3e7:	48 89 c7             	mov    %rax,%rdi
    b3ea:	e8 2a 9c ff ff       	callq  5019 <safe_unary_minus_func_uint64_t_u>
    b3ef:	89 85 d4 fb ff ff    	mov    %eax,-0x42c(%rbp)
    b3f5:	0f b7 85 3c f0 ff ff 	movzwl -0xfc4(%rbp),%eax
    b3fc:	66 85 c0             	test   %ax,%ax
    b3ff:	74 13                	je     b414 <func_48+0x1944>
    b401:	0f b7 85 3c f0 ff ff 	movzwl -0xfc4(%rbp),%eax
    b408:	66 85 c0             	test   %ax,%ax
    b40b:	74 07                	je     b414 <func_48+0x1944>
    b40d:	b8 01 00 00 00       	mov    $0x1,%eax
    b412:	eb 05                	jmp    b419 <func_48+0x1949>
    b414:	b8 00 00 00 00       	mov    $0x0,%eax
    b419:	0f b7 c0             	movzwl %ax,%eax
    b41c:	44 89 e6             	mov    %r12d,%esi
    b41f:	89 c7                	mov    %eax,%edi
    b421:	e8 54 9a ff ff       	callq  4e7a <safe_rshift_func_uint16_t_u_u>
    b426:	98                   	cwtl   
    b427:	89 de                	mov    %ebx,%esi
    b429:	89 c7                	mov    %eax,%edi
    b42b:	e8 e6 8f ff ff       	callq  4416 <safe_mod_func_int16_t_s_s>
    b430:	98                   	cwtl   
    b431:	be 05 00 00 00       	mov    $0x5,%esi
    b436:	89 c7                	mov    %eax,%edi
    b438:	e8 26 91 ff ff       	callq  4563 <safe_rshift_func_int16_t_s_u>
    b43d:	0f bf d0             	movswl %ax,%edx
    b440:	48 8b 85 28 f0 ff ff 	mov    -0xfd8(%rbp),%rax
    b447:	0f b6 00             	movzbl (%rax),%eax
    b44a:	0f be c0             	movsbl %al,%eax
    b44d:	31 c2                	xor    %eax,%edx
    b44f:	0f b7 85 52 f0 ff ff 	movzwl -0xfae(%rbp),%eax
    b456:	39 c2                	cmp    %eax,%edx
    b458:	0f 9c c0             	setl   %al
    b45b:	0f b6 d0             	movzbl %al,%edx
    b45e:	0f b7 85 3c f0 ff ff 	movzwl -0xfc4(%rbp),%eax
    b465:	98                   	cwtl   
    b466:	39 c2                	cmp    %eax,%edx
    b468:	0f 9f c0             	setg   %al
    b46b:	0f b6 c0             	movzbl %al,%eax
    b46e:	21 85 74 f0 ff ff    	and    %eax,-0xf8c(%rbp)
    b474:	0f b7 85 70 f2 ff ff 	movzwl -0xd90(%rbp),%eax
    b47b:	98                   	cwtl   
    b47c:	21 85 68 f0 ff ff    	and    %eax,-0xf98(%rbp)
    b482:	48 8b 15 4f d2 00 00 	mov    0xd24f(%rip),%rdx        # 186d8 <g_1105>
    b489:	48 8b 85 f8 f1 ff ff 	mov    -0xe08(%rbp),%rax
    b490:	48 89 10             	mov    %rdx,(%rax)
    b493:	80 85 4b f0 ff ff 01 	addb   $0x1,-0xfb5(%rbp)
    b49a:	80 bd 4b f0 ff ff 00 	cmpb   $0x0,-0xfb5(%rbp)
    b4a1:	0f 84 42 fc ff ff    	je     b0e9 <func_48+0x1619>
    b4a7:	eb 01                	jmp    b4aa <func_48+0x19da>
    b4a9:	90                   	nop
    b4aa:	0f b7 05 77 ac 00 00 	movzwl 0xac77(%rip),%eax        # 16128 <g_818>
    b4b1:	83 e8 01             	sub    $0x1,%eax
    b4b4:	66 89 05 6d ac 00 00 	mov    %ax,0xac6d(%rip)        # 16128 <g_818>
    b4bb:	0f b7 05 66 ac 00 00 	movzwl 0xac66(%rip),%eax        # 16128 <g_818>
    b4c2:	66 85 c0             	test   %ax,%ax
    b4c5:	0f 89 74 fb ff ff    	jns    b03f <func_48+0x156f>
    b4cb:	0f b7 85 3c f0 ff ff 	movzwl -0xfc4(%rbp),%eax
    b4d2:	66 85 c0             	test   %ax,%ax
    b4d5:	0f 84 3c 01 00 00    	je     b617 <func_48+0x1b47>
    b4db:	66 c7 85 50 f0 ff ff 	movw   $0xfffb,-0xfb0(%rbp)
    b4e2:	fb ff 
    b4e4:	c6 85 4a f0 ff ff 00 	movb   $0x0,-0xfb6(%rbp)
    b4eb:	eb 4d                	jmp    b53a <func_48+0x1a6a>
    b4ed:	48 b8 fe 65 52 b6 f9 	movabs $0xfbc50ef9b65265fe,%rax
    b4f4:	0e c5 fb 
    b4f7:	48 89 85 b0 f1 ff ff 	mov    %rax,-0xe50(%rbp)
    b4fe:	48 8b 85 b0 f1 ff ff 	mov    -0xe50(%rbp),%rax
    b505:	89 85 68 f0 ff ff    	mov    %eax,-0xf98(%rbp)
    b50b:	48 8b 05 a6 c4 00 00 	mov    0xc4a6(%rip),%rax        # 179b8 <g_1107>
    b512:	48 39 85 70 f1 ff ff 	cmp    %rax,-0xe90(%rbp)
    b519:	0f 95 c0             	setne  %al
    b51c:	0f b6 c8             	movzbl %al,%ecx
    b51f:	48 8b 85 a0 f0 ff ff 	mov    -0xf60(%rbp),%rax
    b526:	8b 10                	mov    (%rax),%edx
    b528:	48 8b 85 a0 f0 ff ff 	mov    -0xf60(%rbp),%rax
    b52f:	21 ca                	and    %ecx,%edx
    b531:	89 10                	mov    %edx,(%rax)
    b533:	80 85 4a f0 ff ff 01 	addb   $0x1,-0xfb6(%rbp)
    b53a:	80 bd 4a f0 ff ff 00 	cmpb   $0x0,-0xfb6(%rbp)
    b541:	74 aa                	je     b4ed <func_48+0x1a1d>
    b543:	0f b7 85 3c f0 ff ff 	movzwl -0xfc4(%rbp),%eax
    b54a:	66 85 c0             	test   %ax,%ax
    b54d:	75 33                	jne    b582 <func_48+0x1ab2>
    b54f:	0f b6 45 c7          	movzbl -0x39(%rbp),%eax
    b553:	84 c0                	test   %al,%al
    b555:	0f 95 c0             	setne  %al
    b558:	0f b6 d0             	movzbl %al,%edx
    b55b:	48 8b 85 a0 f0 ff ff 	mov    -0xf60(%rbp),%rax
    b562:	8b 00                	mov    (%rax),%eax
    b564:	39 c2                	cmp    %eax,%edx
    b566:	0f 9e c0             	setle  %al
    b569:	0f b6 d0             	movzbl %al,%edx
    b56c:	8b 85 38 f0 ff ff    	mov    -0xfc8(%rbp),%eax
    b572:	0f b6 c0             	movzbl %al,%eax
    b575:	89 d6                	mov    %edx,%esi
    b577:	89 c7                	mov    %eax,%edi
    b579:	e8 40 97 ff ff       	callq  4cbe <safe_rshift_func_uint8_t_u_u>
    b57e:	84 c0                	test   %al,%al
    b580:	74 30                	je     b5b2 <func_48+0x1ae2>
    b582:	48 8b 85 80 f3 ff ff 	mov    -0xc80(%rbp),%rax
    b589:	0f b6 c0             	movzbl %al,%eax
    b58c:	be 3a 00 00 00       	mov    $0x3a,%esi
    b591:	89 c7                	mov    %eax,%edi
    b593:	e8 16 96 ff ff       	callq  4bae <safe_mod_func_uint8_t_u_u>
    b598:	0f b6 c0             	movzbl %al,%eax
    b59b:	89 c6                	mov    %eax,%esi
    b59d:	bf 00 00 00 00       	mov    $0x0,%edi
    b5a2:	e8 e6 96 ff ff       	callq  4c8d <safe_rshift_func_uint8_t_u_s>
    b5a7:	84 c0                	test   %al,%al
    b5a9:	74 07                	je     b5b2 <func_48+0x1ae2>
    b5ab:	b8 01 00 00 00       	mov    $0x1,%eax
    b5b0:	eb 05                	jmp    b5b7 <func_48+0x1ae7>
    b5b2:	b8 00 00 00 00       	mov    $0x0,%eax
    b5b7:	89 85 68 f0 ff ff    	mov    %eax,-0xf98(%rbp)
    b5bd:	66 c7 85 4e f0 ff ff 	movw   $0x5,-0xfb2(%rbp)
    b5c4:	05 00 
    b5c6:	eb 40                	jmp    b608 <func_48+0x1b38>
    b5c8:	48 c7 85 a8 f1 ff ff 	movq   $0xfffffffffffffffa,-0xe58(%rbp)
    b5cf:	fa ff ff ff 
    b5d3:	48 8b 85 a0 f0 ff ff 	mov    -0xf60(%rbp),%rax
    b5da:	48 8b 95 a8 f1 ff ff 	mov    -0xe58(%rbp),%rdx
    b5e1:	89 10                	mov    %edx,(%rax)
    b5e3:	8b 00                	mov    (%rax),%eax
    b5e5:	89 c2                	mov    %eax,%edx
    b5e7:	0f b7 85 50 f0 ff ff 	movzwl -0xfb0(%rbp),%eax
    b5ee:	31 d0                	xor    %edx,%eax
    b5f0:	66 89 85 50 f0 ff ff 	mov    %ax,-0xfb0(%rbp)
    b5f7:	0f b7 85 4e f0 ff ff 	movzwl -0xfb2(%rbp),%eax
    b5fe:	83 e8 01             	sub    $0x1,%eax
    b601:	66 89 85 4e f0 ff ff 	mov    %ax,-0xfb2(%rbp)
    b608:	66 83 bd 4e f0 ff ff 	cmpw   $0x0,-0xfb2(%rbp)
    b60f:	00 
    b610:	7f b6                	jg     b5c8 <func_48+0x1af8>
    b612:	e9 1e 01 00 00       	jmpq   b735 <func_48+0x1c65>
    b617:	48 8d 05 42 ac 00 00 	lea    0xac42(%rip),%rax        # 16260 <g_1134>
    b61e:	48 89 85 18 f1 ff ff 	mov    %rax,-0xee8(%rbp)
    b625:	48 8d 85 18 f1 ff ff 	lea    -0xee8(%rbp),%rax
    b62c:	48 89 85 90 f1 ff ff 	mov    %rax,-0xe70(%rbp)
    b633:	48 8d 85 58 f0 ff ff 	lea    -0xfa8(%rbp),%rax
    b63a:	48 89 85 98 f1 ff ff 	mov    %rax,-0xe68(%rbp)
    b641:	8b 85 78 f4 ff ff    	mov    -0xb88(%rbp),%eax
    b647:	83 e8 01             	sub    $0x1,%eax
    b64a:	89 85 78 f4 ff ff    	mov    %eax,-0xb88(%rbp)
    b650:	48 83 bd 90 f1 ff ff 	cmpq   $0x0,-0xe70(%rbp)
    b657:	00 
    b658:	0f 95 c0             	setne  %al
    b65b:	0f b6 c0             	movzbl %al,%eax
    b65e:	be 05 00 00 00       	mov    $0x5,%esi
    b663:	89 c7                	mov    %eax,%edi
    b665:	e8 9b 95 ff ff       	callq  4c05 <safe_lshift_func_uint8_t_u_s>
    b66a:	48 c7 85 a0 f1 ff ff 	movq   $0x0,-0xe60(%rbp)
    b671:	00 00 00 00 
    b675:	48 8d 85 e8 f0 ff ff 	lea    -0xf18(%rbp),%rax
    b67c:	48 89 85 d0 f9 ff ff 	mov    %rax,-0x630(%rbp)
    b683:	48 8d 85 10 f4 ff ff 	lea    -0xbf0(%rbp),%rax
    b68a:	48 83 c0 28          	add    $0x28,%rax
    b68e:	48 89 85 d8 f9 ff ff 	mov    %rax,-0x628(%rbp)
    b695:	48 8d 85 10 f4 ff ff 	lea    -0xbf0(%rbp),%rax
    b69c:	48 83 c0 28          	add    $0x28,%rax
    b6a0:	48 89 85 e0 f9 ff ff 	mov    %rax,-0x620(%rbp)
    b6a7:	48 8d 85 e8 f0 ff ff 	lea    -0xf18(%rbp),%rax
    b6ae:	48 89 85 e8 f9 ff ff 	mov    %rax,-0x618(%rbp)
    b6b5:	48 8d 85 10 f4 ff ff 	lea    -0xbf0(%rbp),%rax
    b6bc:	48 83 c0 28          	add    $0x28,%rax
    b6c0:	48 89 85 f0 f9 ff ff 	mov    %rax,-0x610(%rbp)
    b6c7:	48 8d 85 10 f4 ff ff 	lea    -0xbf0(%rbp),%rax
    b6ce:	48 83 c0 28          	add    $0x28,%rax
    b6d2:	48 89 85 f8 f9 ff ff 	mov    %rax,-0x608(%rbp)
    b6d9:	48 8d 85 e8 f0 ff ff 	lea    -0xf18(%rbp),%rax
    b6e0:	48 89 85 00 fa ff ff 	mov    %rax,-0x600(%rbp)
    b6e7:	48 8d 85 10 f4 ff ff 	lea    -0xbf0(%rbp),%rax
    b6ee:	48 83 c0 28          	add    $0x28,%rax
    b6f2:	48 89 85 08 fa ff ff 	mov    %rax,-0x5f8(%rbp)
    b6f9:	48 83 bd 28 f0 ff ff 	cmpq   $0x0,-0xfd8(%rbp)
    b700:	00 
    b701:	0f 95 c2             	setne  %dl
    b704:	48 8b 85 60 f1 ff ff 	mov    -0xea0(%rbp),%rax
    b70b:	48 8b 00             	mov    (%rax),%rax
    b70e:	0f b6 d2             	movzbl %dl,%edx
    b711:	89 10                	mov    %edx,(%rax)
    b713:	8b 85 38 f0 ff ff    	mov    -0xfc8(%rbp),%eax
    b719:	8b 15 49 ab 00 00    	mov    0xab49(%rip),%edx        # 16268 <g_1135>
    b71f:	21 d0                	and    %edx,%eax
    b721:	89 05 41 ab 00 00    	mov    %eax,0xab41(%rip)        # 16268 <g_1135>
    b727:	48 8b 85 a0 f1 ff ff 	mov    -0xe60(%rbp),%rax
    b72e:	48 89 85 98 f1 ff ff 	mov    %rax,-0xe68(%rbp)
    b735:	8b 95 38 f0 ff ff    	mov    -0xfc8(%rbp),%edx
    b73b:	8b 05 2f a9 00 00    	mov    0xa92f(%rip),%eax        # 16070 <g_194>
    b741:	89 d1                	mov    %edx,%ecx
    b743:	48 98                	cltq   
    b745:	48 8d 14 85 00 00 00 	lea    0x0(,%rax,4),%rdx
    b74c:	00 
    b74d:	48 8d 05 ec a8 00 00 	lea    0xa8ec(%rip),%rax        # 16040 <g_59>
    b754:	89 0c 02             	mov    %ecx,(%rdx,%rax,1)
    b757:	8b 05 bf a9 00 00    	mov    0xa9bf(%rip),%eax        # 1611c <g_532>
    b75d:	83 c0 01             	add    $0x1,%eax
    b760:	89 05 b6 a9 00 00    	mov    %eax,0xa9b6(%rip)        # 1611c <g_532>
    b766:	8b 05 b0 a9 00 00    	mov    0xa9b0(%rip),%eax        # 1611c <g_532>
    b76c:	85 c0                	test   %eax,%eax
    b76e:	0f 8e bd e7 ff ff    	jle    9f31 <func_48+0x461>
    b774:	eb 0d                	jmp    b783 <func_48+0x1cb3>
    b776:	90                   	nop
    b777:	eb 0a                	jmp    b783 <func_48+0x1cb3>
    b779:	90                   	nop
    b77a:	eb 07                	jmp    b783 <func_48+0x1cb3>
    b77c:	90                   	nop
    b77d:	eb 04                	jmp    b783 <func_48+0x1cb3>
    b77f:	90                   	nop
    b780:	eb 01                	jmp    b783 <func_48+0x1cb3>
    b782:	90                   	nop
    b783:	48 8b 05 f6 b7 00 00 	mov    0xb7f6(%rip),%rax        # 16f80 <g_18>
    b78a:	0f b6 00             	movzbl (%rax),%eax
    b78d:	84 c0                	test   %al,%al
    b78f:	0f 85 50 01 00 00    	jne    b8e5 <func_48+0x1e15>
    b795:	8b 85 38 f0 ff ff    	mov    -0xfc8(%rbp),%eax
    b79b:	0f be d8             	movsbl %al,%ebx
    b79e:	48 8b 05 db b7 00 00 	mov    0xb7db(%rip),%rax        # 16f80 <g_18>
    b7a5:	0f b6 00             	movzbl (%rax),%eax
    b7a8:	84 c0                	test   %al,%al
    b7aa:	0f 84 0d 01 00 00    	je     b8bd <func_48+0x1ded>
    b7b0:	48 8b 85 a0 f0 ff ff 	mov    -0xf60(%rbp),%rax
    b7b7:	c7 00 00 00 00 00    	movl   $0x0,(%rax)
    b7bd:	8b 85 38 f0 ff ff    	mov    -0xfc8(%rbp),%eax
    b7c3:	41 89 c4             	mov    %eax,%r12d
    b7c6:	48 8b 85 28 f0 ff ff 	mov    -0xfd8(%rbp),%rax
    b7cd:	0f b6 00             	movzbl (%rax),%eax
    b7d0:	0f be d0             	movsbl %al,%edx
    b7d3:	48 8b 85 28 f0 ff ff 	mov    -0xfd8(%rbp),%rax
    b7da:	0f b6 00             	movzbl (%rax),%eax
    b7dd:	48 0f be c8          	movsbq %al,%rcx
    b7e1:	48 8b 05 10 a9 00 00 	mov    0xa910(%rip),%rax        # 160f8 <g_300>
    b7e8:	48 09 c8             	or     %rcx,%rax
    b7eb:	8b 8d 38 f0 ff ff    	mov    -0xfc8(%rbp),%ecx
    b7f1:	89 c9                	mov    %ecx,%ecx
    b7f3:	48 39 c8             	cmp    %rcx,%rax
    b7f6:	0f 95 c0             	setne  %al
    b7f9:	0f b6 c8             	movzbl %al,%ecx
    b7fc:	48 8b 05 9d b7 00 00 	mov    0xb79d(%rip),%rax        # 16fa0 <g_467>
    b803:	0f b7 00             	movzwl (%rax),%eax
    b806:	98                   	cwtl   
    b807:	39 c1                	cmp    %eax,%ecx
    b809:	0f 9c c0             	setl   %al
    b80c:	0f b6 c8             	movzbl %al,%ecx
    b80f:	48 8b 05 e2 a8 00 00 	mov    0xa8e2(%rip),%rax        # 160f8 <g_300>
    b816:	48 39 c1             	cmp    %rax,%rcx
    b819:	0f 9c c0             	setl   %al
    b81c:	0f b6 c0             	movzbl %al,%eax
    b81f:	89 d6                	mov    %edx,%esi
    b821:	89 c7                	mov    %eax,%edi
    b823:	e8 79 8a ff ff       	callq  42a1 <safe_lshift_func_int8_t_s_s>
    b828:	66 98                	cbtw   
    b82a:	0f b7 c0             	movzwl %ax,%eax
    b82d:	44 89 e6             	mov    %r12d,%esi
    b830:	89 c7                	mov    %eax,%edi
    b832:	e8 11 96 ff ff       	callq  4e48 <safe_rshift_func_uint16_t_u_s>
    b837:	48 8b 85 b0 f0 ff ff 	mov    -0xf50(%rbp),%rax
    b83e:	48 8b 95 48 f1 ff ff 	mov    -0xeb8(%rbp),%rdx
    b845:	48 89 10             	mov    %rdx,(%rax)
    b848:	0f b7 85 3c f0 ff ff 	movzwl -0xfc4(%rbp),%eax
    b84f:	66 85 c0             	test   %ax,%ax
    b852:	75 0a                	jne    b85e <func_48+0x1d8e>
    b854:	8b 85 38 f0 ff ff    	mov    -0xfc8(%rbp),%eax
    b85a:	85 c0                	test   %eax,%eax
    b85c:	74 07                	je     b865 <func_48+0x1d95>
    b85e:	b8 01 00 00 00       	mov    $0x1,%eax
    b863:	eb 05                	jmp    b86a <func_48+0x1d9a>
    b865:	b8 00 00 00 00       	mov    $0x0,%eax
    b86a:	89 85 7c f0 ff ff    	mov    %eax,-0xf84(%rbp)
    b870:	0f b7 85 3c f0 ff ff 	movzwl -0xfc4(%rbp),%eax
    b877:	98                   	cwtl   
    b878:	39 85 7c f0 ff ff    	cmp    %eax,-0xf84(%rbp)
    b87e:	0f 96 c0             	setbe  %al
    b881:	0f b6 d0             	movzbl %al,%edx
    b884:	48 8b 05 15 b7 00 00 	mov    0xb715(%rip),%rax        # 16fa0 <g_467>
    b88b:	0f b7 00             	movzwl (%rax),%eax
    b88e:	98                   	cwtl   
    b88f:	39 c2                	cmp    %eax,%edx
    b891:	0f 95 c0             	setne  %al
    b894:	89 c2                	mov    %eax,%edx
    b896:	48 8b 85 28 f1 ff ff 	mov    -0xed8(%rbp),%rax
    b89d:	88 10                	mov    %dl,(%rax)
    b89f:	48 8b 85 28 f1 ff ff 	mov    -0xed8(%rbp),%rax
    b8a6:	0f b6 00             	movzbl (%rax),%eax
    b8a9:	0f b6 d0             	movzbl %al,%edx
    b8ac:	8b 85 38 f0 ff ff    	mov    -0xfc8(%rbp),%eax
    b8b2:	39 c2                	cmp    %eax,%edx
    b8b4:	73 07                	jae    b8bd <func_48+0x1ded>
    b8b6:	b8 01 00 00 00       	mov    $0x1,%eax
    b8bb:	eb 05                	jmp    b8c2 <func_48+0x1df2>
    b8bd:	b8 00 00 00 00       	mov    $0x0,%eax
    b8c2:	83 f8 fd             	cmp    $0xfffffffd,%eax
    b8c5:	0f 95 c0             	setne  %al
    b8c8:	0f b6 d0             	movzbl %al,%edx
    b8cb:	0f b6 85 4b f0 ff ff 	movzbl -0xfb5(%rbp),%eax
    b8d2:	39 c2                	cmp    %eax,%edx
    b8d4:	0f 9d c0             	setge  %al
    b8d7:	0f b6 c0             	movzbl %al,%eax
    b8da:	89 de                	mov    %ebx,%esi
    b8dc:	89 c7                	mov    %eax,%edi
    b8de:	e8 2f 89 ff ff       	callq  4212 <safe_mul_func_int8_t_s_s>
    b8e3:	84 c0                	test   %al,%al
    b8e5:	b8 00 00 00 00       	mov    $0x0,%eax
    b8ea:	09 85 60 f0 ff ff    	or     %eax,-0xfa0(%rbp)
    b8f0:	c6 85 4a f0 ff ff 00 	movb   $0x0,-0xfb6(%rbp)
    b8f7:	80 bd 4a f0 ff ff 02 	cmpb   $0x2,-0xfb6(%rbp)
    b8fe:	77 09                	ja     b909 <func_48+0x1e39>
    b900:	48 8b 85 30 f0 ff ff 	mov    -0xfd0(%rbp),%rax
    b907:	eb 3a                	jmp    b943 <func_48+0x1e73>
    b909:	8b 05 61 a7 00 00    	mov    0xa761(%rip),%eax        # 16070 <g_194>
    b90f:	83 c0 01             	add    $0x1,%eax
    b912:	89 05 58 a7 00 00    	mov    %eax,0xa758(%rip)        # 16070 <g_194>
    b918:	8b 05 52 a7 00 00    	mov    0xa752(%rip),%eax        # 16070 <g_194>
    b91e:	83 f8 09             	cmp    $0x9,%eax
    b921:	0f 8e c2 e3 ff ff    	jle    9ce9 <func_48+0x219>
    b927:	48 8b 85 38 f1 ff ff 	mov    -0xec8(%rbp),%rax
    b92e:	48 8d 95 68 f2 ff ff 	lea    -0xd98(%rbp),%rdx
    b935:	48 83 c2 04          	add    $0x4,%rdx
    b939:	48 89 10             	mov    %rdx,(%rax)
    b93c:	48 8b 85 30 f0 ff ff 	mov    -0xfd0(%rbp),%rax
    b943:	48 8b 5d c8          	mov    -0x38(%rbp),%rbx
    b947:	64 48 33 1c 25 28 00 	xor    %fs:0x28,%rbx
    b94e:	00 00 
    b950:	74 05                	je     b957 <func_48+0x1e87>
    b952:	e8 19 87 ff ff       	callq  4070 <__stack_chk_fail@plt>
    b957:	48 81 c4 c8 0f 00 00 	add    $0xfc8,%rsp
    b95e:	5b                   	pop    %rbx
    b95f:	41 5c                	pop    %r12
    b961:	41 5d                	pop    %r13
    b963:	41 5e                	pop    %r14
    b965:	41 5f                	pop    %r15
    b967:	5d                   	pop    %rbp
    b968:	c3                   	retq   

000000000000b969 <func_55>:
    b969:	f3 0f 1e fa          	endbr64 
    b96d:	55                   	push   %rbp
    b96e:	48 89 e5             	mov    %rsp,%rbp
    b971:	41 57                	push   %r15
    b973:	41 56                	push   %r14
    b975:	41 55                	push   %r13
    b977:	41 54                	push   %r12
    b979:	53                   	push   %rbx
    b97a:	48 81 ec 98 0d 00 00 	sub    $0xd98,%rsp
    b981:	48 89 fa             	mov    %rdi,%rdx
    b984:	89 f0                	mov    %esi,%eax
    b986:	48 89 95 70 f2 ff ff 	mov    %rdx,-0xd90(%rbp)
    b98d:	89 85 78 f2 ff ff    	mov    %eax,-0xd88(%rbp)
    b993:	64 48 8b 04 25 28 00 	mov    %fs:0x28,%rax
    b99a:	00 00 
    b99c:	48 89 45 c8          	mov    %rax,-0x38(%rbp)
    b9a0:	31 c0                	xor    %eax,%eax
    b9a2:	48 8d 05 ab a6 00 00 	lea    0xa6ab(%rip),%rax        # 16054 <g_59+0x14>
    b9a9:	48 89 85 c8 f3 ff ff 	mov    %rax,-0xc38(%rbp)
    b9b0:	48 8d 05 9d a6 00 00 	lea    0xa69d(%rip),%rax        # 16054 <g_59+0x14>
    b9b7:	48 89 85 d0 f3 ff ff 	mov    %rax,-0xc30(%rbp)
    b9be:	48 c7 85 d8 f3 ff ff 	movq   $0x0,-0xc28(%rbp)
    b9c5:	00 00 00 00 
    b9c9:	48 8d 05 80 a6 00 00 	lea    0xa680(%rip),%rax        # 16050 <g_59+0x10>
    b9d0:	48 89 85 e0 f3 ff ff 	mov    %rax,-0xc20(%rbp)
    b9d7:	48 8d 05 76 a6 00 00 	lea    0xa676(%rip),%rax        # 16054 <g_59+0x14>
    b9de:	48 89 85 e8 f3 ff ff 	mov    %rax,-0xc18(%rbp)
    b9e5:	48 8d 05 68 a6 00 00 	lea    0xa668(%rip),%rax        # 16054 <g_59+0x14>
    b9ec:	48 89 85 f0 f3 ff ff 	mov    %rax,-0xc10(%rbp)
    b9f3:	48 c7 85 f8 f3 ff ff 	movq   $0x0,-0xc08(%rbp)
    b9fa:	00 00 00 00 
    b9fe:	48 8d 05 4f a6 00 00 	lea    0xa64f(%rip),%rax        # 16054 <g_59+0x14>
    ba05:	48 89 85 00 f4 ff ff 	mov    %rax,-0xc00(%rbp)
    ba0c:	48 8d 05 35 a6 00 00 	lea    0xa635(%rip),%rax        # 16048 <g_59+0x8>
    ba13:	48 89 85 08 f4 ff ff 	mov    %rax,-0xbf8(%rbp)
    ba1a:	48 8d 05 33 a6 00 00 	lea    0xa633(%rip),%rax        # 16054 <g_59+0x14>
    ba21:	48 89 85 10 f4 ff ff 	mov    %rax,-0xbf0(%rbp)
    ba28:	48 8d 05 11 a6 00 00 	lea    0xa611(%rip),%rax        # 16040 <g_59>
    ba2f:	48 89 85 18 f4 ff ff 	mov    %rax,-0xbe8(%rbp)
    ba36:	c7 85 90 f2 ff ff ea 	movl   $0x8eca1aea,-0xd70(%rbp)
    ba3d:	1a ca 8e 
    ba40:	48 c7 85 20 f4 ff ff 	movq   $0x0,-0xbe0(%rbp)
    ba47:	00 00 00 00 
    ba4b:	48 c7 85 28 f4 ff ff 	movq   $0x0,-0xbd8(%rbp)
    ba52:	00 00 00 00 
    ba56:	48 8d 05 03 a6 00 00 	lea    0xa603(%rip),%rax        # 16060 <g_59+0x20>
    ba5d:	48 89 85 30 f3 ff ff 	mov    %rax,-0xcd0(%rbp)
    ba64:	48 8d 85 90 f2 ff ff 	lea    -0xd70(%rbp),%rax
    ba6b:	48 89 85 30 f4 ff ff 	mov    %rax,-0xbd0(%rbp)
    ba72:	48 8d 05 db a5 00 00 	lea    0xa5db(%rip),%rax        # 16054 <g_59+0x14>
    ba79:	48 89 85 38 f4 ff ff 	mov    %rax,-0xbc8(%rbp)
    ba80:	48 8d 05 cd a5 00 00 	lea    0xa5cd(%rip),%rax        # 16054 <g_59+0x14>
    ba87:	48 89 85 40 f4 ff ff 	mov    %rax,-0xbc0(%rbp)
    ba8e:	48 8d 05 bf a5 00 00 	lea    0xa5bf(%rip),%rax        # 16054 <g_59+0x14>
    ba95:	48 89 85 48 f4 ff ff 	mov    %rax,-0xbb8(%rbp)
    ba9c:	48 8d 85 90 f2 ff ff 	lea    -0xd70(%rbp),%rax
    baa3:	48 89 85 50 f4 ff ff 	mov    %rax,-0xbb0(%rbp)
    baaa:	48 8d 05 a3 a5 00 00 	lea    0xa5a3(%rip),%rax        # 16054 <g_59+0x14>
    bab1:	48 89 85 80 f3 ff ff 	mov    %rax,-0xc80(%rbp)
    bab8:	48 c7 85 88 f3 ff ff 	movq   $0x0,-0xc78(%rbp)
    babf:	00 00 00 00 
    bac3:	48 8d 85 90 f2 ff ff 	lea    -0xd70(%rbp),%rax
    baca:	48 89 85 90 f3 ff ff 	mov    %rax,-0xc70(%rbp)
    bad1:	48 8d 05 84 a5 00 00 	lea    0xa584(%rip),%rax        # 1605c <g_59+0x1c>
    bad8:	48 89 85 98 f3 ff ff 	mov    %rax,-0xc68(%rbp)
    badf:	48 8d 85 90 f2 ff ff 	lea    -0xd70(%rbp),%rax
    bae6:	48 89 85 a0 f3 ff ff 	mov    %rax,-0xc60(%rbp)
    baed:	c7 85 94 f2 ff ff 86 	movl   $0xb67a0786,-0xd6c(%rbp)
    baf4:	07 7a b6 
    baf7:	48 c7 85 a8 f3 ff ff 	movq   $0x0,-0xc58(%rbp)
    bafe:	00 00 00 00 
    bb02:	48 8d 85 90 f2 ff ff 	lea    -0xd70(%rbp),%rax
    bb09:	48 89 85 b0 f3 ff ff 	mov    %rax,-0xc50(%rbp)
    bb10:	48 c7 85 b8 f3 ff ff 	movq   $0x0,-0xc48(%rbp)
    bb17:	00 00 00 00 
    bb1b:	48 c7 85 c0 f3 ff ff 	movq   $0x0,-0xc40(%rbp)
    bb22:	00 00 00 00 
    bb26:	c6 85 84 f2 ff ff 01 	movb   $0x1,-0xd7c(%rbp)
    bb2d:	c6 85 85 f2 ff ff 64 	movb   $0x64,-0xd7b(%rbp)
    bb34:	48 c7 85 38 f3 ff ff 	movq   $0x0,-0xcc8(%rbp)
    bb3b:	00 00 00 00 
    bb3f:	48 8d 85 38 f3 ff ff 	lea    -0xcc8(%rbp),%rax
    bb46:	48 89 85 70 f6 ff ff 	mov    %rax,-0x990(%rbp)
    bb4d:	48 8d 85 38 f3 ff ff 	lea    -0xcc8(%rbp),%rax
    bb54:	48 89 85 78 f6 ff ff 	mov    %rax,-0x988(%rbp)
    bb5b:	48 8d 85 38 f3 ff ff 	lea    -0xcc8(%rbp),%rax
    bb62:	48 89 85 80 f6 ff ff 	mov    %rax,-0x980(%rbp)
    bb69:	48 8d 85 38 f3 ff ff 	lea    -0xcc8(%rbp),%rax
    bb70:	48 89 85 88 f6 ff ff 	mov    %rax,-0x978(%rbp)
    bb77:	48 8d 85 38 f3 ff ff 	lea    -0xcc8(%rbp),%rax
    bb7e:	48 89 85 90 f6 ff ff 	mov    %rax,-0x970(%rbp)
    bb85:	48 8d 85 38 f3 ff ff 	lea    -0xcc8(%rbp),%rax
    bb8c:	48 89 85 98 f6 ff ff 	mov    %rax,-0x968(%rbp)
    bb93:	48 8d 85 38 f3 ff ff 	lea    -0xcc8(%rbp),%rax
    bb9a:	48 89 85 a0 f6 ff ff 	mov    %rax,-0x960(%rbp)
    bba1:	48 8d 85 38 f3 ff ff 	lea    -0xcc8(%rbp),%rax
    bba8:	48 89 85 a8 f6 ff ff 	mov    %rax,-0x958(%rbp)
    bbaf:	48 8d 85 38 f3 ff ff 	lea    -0xcc8(%rbp),%rax
    bbb6:	48 89 85 b0 f6 ff ff 	mov    %rax,-0x950(%rbp)
    bbbd:	48 8d 05 a4 a4 00 00 	lea    0xa4a4(%rip),%rax        # 16068 <g_132>
    bbc4:	48 89 85 40 f3 ff ff 	mov    %rax,-0xcc0(%rbp)
    bbcb:	66 c7 85 8a f2 ff ff 	movw   $0xec87,-0xd76(%rbp)
    bbd2:	87 ec 
    bbd4:	48 8d 85 8a f2 ff ff 	lea    -0xd76(%rbp),%rax
    bbdb:	48 89 85 48 f3 ff ff 	mov    %rax,-0xcb8(%rbp)
    bbe2:	48 8d 85 48 f3 ff ff 	lea    -0xcb8(%rbp),%rax
    bbe9:	48 89 85 50 f3 ff ff 	mov    %rax,-0xcb0(%rbp)
    bbf0:	c7 85 a4 f2 ff ff ff 	movl   $0xffffffff,-0xd5c(%rbp)
    bbf7:	ff ff ff 
    bbfa:	c7 85 a8 f2 ff ff 00 	movl   $0x0,-0xd58(%rbp)
    bc01:	00 00 00 
    bc04:	eb 74                	jmp    bc7a <func_55+0x311>
    bc06:	c7 85 b0 f2 ff ff 00 	movl   $0x0,-0xd50(%rbp)
    bc0d:	00 00 00 
    bc10:	eb 58                	jmp    bc6a <func_55+0x301>
    bc12:	c7 85 b4 f2 ff ff 00 	movl   $0x0,-0xd4c(%rbp)
    bc19:	00 00 00 
    bc1c:	eb 3c                	jmp    bc5a <func_55+0x2f1>
    bc1e:	8b 85 b4 f2 ff ff    	mov    -0xd4c(%rbp),%eax
    bc24:	48 98                	cltq   
    bc26:	8b 95 a8 f2 ff ff    	mov    -0xd58(%rbp),%edx
    bc2c:	48 63 ca             	movslq %edx,%rcx
    bc2f:	8b 95 b0 f2 ff ff    	mov    -0xd50(%rbp),%edx
    bc35:	48 63 d2             	movslq %edx,%rdx
    bc38:	48 01 c9             	add    %rcx,%rcx
    bc3b:	48 01 ca             	add    %rcx,%rdx
    bc3e:	48 01 d2             	add    %rdx,%rdx
    bc41:	48 01 d0             	add    %rdx,%rax
    bc44:	48 8d 15 f5 a3 00 00 	lea    0xa3f5(%rip),%rdx        # 16040 <g_59>
    bc4b:	48 89 94 c5 30 f9 ff 	mov    %rdx,-0x6d0(%rbp,%rax,8)
    bc52:	ff 
    bc53:	83 85 b4 f2 ff ff 01 	addl   $0x1,-0xd4c(%rbp)
    bc5a:	83 bd b4 f2 ff ff 01 	cmpl   $0x1,-0xd4c(%rbp)
    bc61:	7e bb                	jle    bc1e <func_55+0x2b5>
    bc63:	83 85 b0 f2 ff ff 01 	addl   $0x1,-0xd50(%rbp)
    bc6a:	83 bd b0 f2 ff ff 01 	cmpl   $0x1,-0xd50(%rbp)
    bc71:	7e 9f                	jle    bc12 <func_55+0x2a9>
    bc73:	83 85 a8 f2 ff ff 01 	addl   $0x1,-0xd58(%rbp)
    bc7a:	83 bd a8 f2 ff ff 09 	cmpl   $0x9,-0xd58(%rbp)
    bc81:	7e 83                	jle    bc06 <func_55+0x29d>
    bc83:	90                   	nop
    bc84:	f3 0f 1e fa          	endbr64 
    bc88:	80 85 84 f2 ff ff 01 	addb   $0x1,-0xd7c(%rbp)
    bc8f:	66 c7 85 78 f2 ff ff 	movw   $0xf,-0xd88(%rbp)
    bc96:	0f 00 
    bc98:	e9 52 18 00 00       	jmpq   d4ef <func_55+0x1b86>
    bc9d:	c7 85 ac f2 ff ff a8 	movl   $0x1d7193a8,-0xd54(%rbp)
    bca4:	93 71 1d 
    bca7:	c7 85 a0 f2 ff ff 57 	movl   $0xc7fa1d57,-0xd60(%rbp)
    bcae:	1d fa c7 
    bcb1:	48 b8 7b 90 d2 15 5e 	movabs $0x2831745e15d2907b,%rax
    bcb8:	74 31 28 
    bcbb:	48 89 85 78 f3 ff ff 	mov    %rax,-0xc88(%rbp)
    bcc2:	c7 85 98 f2 ff ff fe 	movl   $0xfffffffe,-0xd68(%rbp)
    bcc9:	ff ff ff 
    bccc:	c7 85 9c f2 ff ff 00 	movl   $0x0,-0xd64(%rbp)
    bcd3:	00 00 00 
    bcd6:	c7 85 d8 f2 ff ff 7b 	movl   $0x430be17b,-0xd28(%rbp)
    bcdd:	e1 0b 43 
    bce0:	48 8d 05 81 a3 00 00 	lea    0xa381(%rip),%rax        # 16068 <g_132>
    bce7:	48 89 85 58 f4 ff ff 	mov    %rax,-0xba8(%rbp)
    bcee:	48 8d 85 40 f3 ff ff 	lea    -0xcc0(%rbp),%rax
    bcf5:	48 89 85 68 f4 ff ff 	mov    %rax,-0xb98(%rbp)
    bcfc:	48 8d 05 0d a4 00 00 	lea    0xa40d(%rip),%rax        # 16110 <g_517>
    bd03:	48 89 85 30 f6 ff ff 	mov    %rax,-0x9d0(%rbp)
    bd0a:	48 8d 05 ff a3 00 00 	lea    0xa3ff(%rip),%rax        # 16110 <g_517>
    bd11:	48 89 85 38 f6 ff ff 	mov    %rax,-0x9c8(%rbp)
    bd18:	48 8d 05 f1 a3 00 00 	lea    0xa3f1(%rip),%rax        # 16110 <g_517>
    bd1f:	48 89 85 40 f6 ff ff 	mov    %rax,-0x9c0(%rbp)
    bd26:	48 8d 05 e3 a3 00 00 	lea    0xa3e3(%rip),%rax        # 16110 <g_517>
    bd2d:	48 89 85 48 f6 ff ff 	mov    %rax,-0x9b8(%rbp)
    bd34:	48 8d 05 d5 a3 00 00 	lea    0xa3d5(%rip),%rax        # 16110 <g_517>
    bd3b:	48 89 85 50 f6 ff ff 	mov    %rax,-0x9b0(%rbp)
    bd42:	48 8d 05 c7 a3 00 00 	lea    0xa3c7(%rip),%rax        # 16110 <g_517>
    bd49:	48 89 85 58 f6 ff ff 	mov    %rax,-0x9a8(%rbp)
    bd50:	48 8d 05 b9 a3 00 00 	lea    0xa3b9(%rip),%rax        # 16110 <g_517>
    bd57:	48 89 85 60 f6 ff ff 	mov    %rax,-0x9a0(%rbp)
    bd5e:	48 8d 85 30 f6 ff ff 	lea    -0x9d0(%rbp),%rax
    bd65:	48 83 c0 20          	add    $0x20,%rax
    bd69:	48 89 85 70 f4 ff ff 	mov    %rax,-0xb90(%rbp)
    bd70:	c7 85 b8 f2 ff ff bc 	movl   $0x360238bc,-0xd48(%rbp)
    bd77:	38 02 36 
    bd7a:	48 8d 05 5f b8 00 00 	lea    0xb85f(%rip),%rax        # 175e0 <g_791>
    bd81:	48 89 85 78 f4 ff ff 	mov    %rax,-0xb88(%rbp)
    bd88:	48 8d 05 99 a2 00 00 	lea    0xa299(%rip),%rax        # 16028 <g_19>
    bd8f:	48 89 85 80 f4 ff ff 	mov    %rax,-0xb80(%rbp)
    bd96:	48 8d 85 30 f5 ff ff 	lea    -0xad0(%rbp),%rax
    bd9d:	48 83 c0 08          	add    $0x8,%rax
    bda1:	48 89 85 88 f4 ff ff 	mov    %rax,-0xb78(%rbp)
    bda8:	48 8d 85 9c f2 ff ff 	lea    -0xd64(%rbp),%rax
    bdaf:	48 89 85 90 f4 ff ff 	mov    %rax,-0xb70(%rbp)
    bdb6:	c7 85 bc f2 ff ff 00 	movl   $0x0,-0xd44(%rbp)
    bdbd:	00 00 00 
    bdc0:	eb 1a                	jmp    bddc <func_55+0x473>
    bdc2:	8b 85 bc f2 ff ff    	mov    -0xd44(%rbp),%eax
    bdc8:	48 98                	cltq   
    bdca:	c7 84 85 30 f5 ff ff 	movl   $0x0,-0xad0(%rbp,%rax,4)
    bdd1:	00 00 00 00 
    bdd5:	83 85 bc f2 ff ff 01 	addl   $0x1,-0xd44(%rbp)
    bddc:	83 bd bc f2 ff ff 03 	cmpl   $0x3,-0xd44(%rbp)
    bde3:	7e dd                	jle    bdc2 <func_55+0x459>
    bde5:	48 8b 85 08 f4 ff ff 	mov    -0xbf8(%rbp),%rax
    bdec:	8b 10                	mov    (%rax),%edx
    bdee:	0f b6 05 34 a2 00 00 	movzbl 0xa234(%rip),%eax        # 16029 <g_23>
    bdf5:	0f b6 c0             	movzbl %al,%eax
    bdf8:	09 c2                	or     %eax,%edx
    bdfa:	48 8b 85 08 f4 ff ff 	mov    -0xbf8(%rbp),%rax
    be01:	89 10                	mov    %edx,(%rax)
    be03:	0f b6 05 1e a2 00 00 	movzbl 0xa21e(%rip),%eax        # 16028 <g_19>
    be0a:	84 c0                	test   %al,%al
    be0c:	74 0e                	je     be1c <func_55+0x4b3>
    be0e:	48 8b 85 c8 f3 ff ff 	mov    -0xc38(%rbp),%rax
    be15:	8b 00                	mov    (%rax),%eax
    be17:	e9 ed 16 00 00       	jmpq   d509 <func_55+0x1ba0>
    be1c:	48 b8 9b 88 4a 24 66 	movabs $0xb3ec5f66244a889b,%rax
    be23:	5f ec b3 
    be26:	48 89 85 58 f3 ff ff 	mov    %rax,-0xca8(%rbp)
    be2d:	48 8d 05 34 a2 00 00 	lea    0xa234(%rip),%rax        # 16068 <g_132>
    be34:	48 89 85 00 f6 ff ff 	mov    %rax,-0xa00(%rbp)
    be3b:	48 8d 05 26 a2 00 00 	lea    0xa226(%rip),%rax        # 16068 <g_132>
    be42:	48 89 85 08 f6 ff ff 	mov    %rax,-0x9f8(%rbp)
    be49:	48 8d 05 18 a2 00 00 	lea    0xa218(%rip),%rax        # 16068 <g_132>
    be50:	48 89 85 10 f6 ff ff 	mov    %rax,-0x9f0(%rbp)
    be57:	48 8d 05 0a a2 00 00 	lea    0xa20a(%rip),%rax        # 16068 <g_132>
    be5e:	48 89 85 18 f6 ff ff 	mov    %rax,-0x9e8(%rbp)
    be65:	48 8d 05 fc a1 00 00 	lea    0xa1fc(%rip),%rax        # 16068 <g_132>
    be6c:	48 89 85 20 f6 ff ff 	mov    %rax,-0x9e0(%rbp)
    be73:	48 8d 05 ee a1 00 00 	lea    0xa1ee(%rip),%rax        # 16068 <g_132>
    be7a:	48 89 85 28 f6 ff ff 	mov    %rax,-0x9d8(%rbp)
    be81:	c7 85 b0 f7 ff ff fb 	movl   $0xfffffffb,-0x850(%rbp)
    be88:	ff ff ff 
    be8b:	c7 85 b4 f7 ff ff 07 	movl   $0x7,-0x84c(%rbp)
    be92:	00 00 00 
    be95:	c7 85 b8 f7 ff ff 02 	movl   $0x2,-0x848(%rbp)
    be9c:	00 00 00 
    be9f:	c7 85 bc f7 ff ff 01 	movl   $0x1,-0x844(%rbp)
    bea6:	00 00 00 
    bea9:	c7 85 c0 f7 ff ff 01 	movl   $0x1,-0x840(%rbp)
    beb0:	00 00 00 
    beb3:	c7 85 c4 f7 ff ff 02 	movl   $0x2,-0x83c(%rbp)
    beba:	00 00 00 
    bebd:	c7 85 c8 f7 ff ff 07 	movl   $0x7,-0x838(%rbp)
    bec4:	00 00 00 
    bec7:	c7 85 cc f7 ff ff fb 	movl   $0xfffffffb,-0x834(%rbp)
    bece:	ff ff ff 
    bed1:	c7 85 d0 f7 ff ff fd 	movl   $0xfffffffd,-0x830(%rbp)
    bed8:	ff ff ff 
    bedb:	c7 85 d4 f7 ff ff 03 	movl   $0x3,-0x82c(%rbp)
    bee2:	00 00 00 
    bee5:	c7 85 d8 f7 ff ff 01 	movl   $0x1,-0x828(%rbp)
    beec:	00 00 00 
    beef:	c7 85 dc f7 ff ff 03 	movl   $0x3,-0x824(%rbp)
    bef6:	00 00 00 
    bef9:	c7 85 e0 f7 ff ff 03 	movl   $0x3,-0x820(%rbp)
    bf00:	00 00 00 
    bf03:	c7 85 e4 f7 ff ff 07 	movl   $0x7,-0x81c(%rbp)
    bf0a:	00 00 00 
    bf0d:	c7 85 e8 f7 ff ff 01 	movl   $0x1,-0x818(%rbp)
    bf14:	00 00 00 
    bf17:	c7 85 ec f7 ff ff 07 	movl   $0x7,-0x814(%rbp)
    bf1e:	00 00 00 
    bf21:	c7 85 f0 f7 ff ff 03 	movl   $0x3,-0x810(%rbp)
    bf28:	00 00 00 
    bf2b:	c7 85 f4 f7 ff ff 03 	movl   $0x3,-0x80c(%rbp)
    bf32:	00 00 00 
    bf35:	c7 85 f8 f7 ff ff 01 	movl   $0x1,-0x808(%rbp)
    bf3c:	00 00 00 
    bf3f:	c7 85 fc f7 ff ff 03 	movl   $0x3,-0x804(%rbp)
    bf46:	00 00 00 
    bf49:	c7 85 00 f8 ff ff fd 	movl   $0xfffffffd,-0x800(%rbp)
    bf50:	ff ff ff 
    bf53:	c7 85 04 f8 ff ff fb 	movl   $0xfffffffb,-0x7fc(%rbp)
    bf5a:	ff ff ff 
    bf5d:	c7 85 08 f8 ff ff 07 	movl   $0x7,-0x7f8(%rbp)
    bf64:	00 00 00 
    bf67:	c7 85 0c f8 ff ff 02 	movl   $0x2,-0x7f4(%rbp)
    bf6e:	00 00 00 
    bf71:	66 c7 85 14 f5 ff ff 	movw   $0x2,-0xaec(%rbp)
    bf78:	02 00 
    bf7a:	0f b6 85 16 f5 ff ff 	movzbl -0xaea(%rbp),%eax
    bf81:	83 e0 e0             	and    $0xffffffe0,%eax
    bf84:	83 c8 02             	or     $0x2,%eax
    bf87:	88 85 16 f5 ff ff    	mov    %al,-0xaea(%rbp)
    bf8d:	8b 85 18 f5 ff ff    	mov    -0xae8(%rbp),%eax
    bf93:	25 00 00 f8 ff       	and    $0xfff80000,%eax
    bf98:	0d 35 ff 07 00       	or     $0x7ff35,%eax
    bf9d:	89 85 18 f5 ff ff    	mov    %eax,-0xae8(%rbp)
    bfa3:	66 c7 85 1c f5 ff ff 	movw   $0x6133,-0xae4(%rbp)
    bfaa:	33 61 
    bfac:	0f b6 85 1e f5 ff ff 	movzbl -0xae2(%rbp),%eax
    bfb3:	83 e0 f0             	and    $0xfffffff0,%eax
    bfb6:	83 c8 0e             	or     $0xe,%eax
    bfb9:	88 85 1e f5 ff ff    	mov    %al,-0xae2(%rbp)
    bfbf:	c6 85 86 f2 ff ff ff 	movb   $0xff,-0xd7a(%rbp)
    bfc6:	48 c7 85 98 f4 ff ff 	movq   $0x3,-0xb68(%rbp)
    bfcd:	03 00 00 00 
    bfd1:	c6 85 87 f2 ff ff fe 	movb   $0xfe,-0xd79(%rbp)
    bfd8:	48 c7 85 60 f3 ff ff 	movq   $0x0,-0xca0(%rbp)
    bfdf:	00 00 00 00 
    bfe3:	48 8d 85 50 f3 ff ff 	lea    -0xcb0(%rbp),%rax
    bfea:	48 89 85 a0 f5 ff ff 	mov    %rax,-0xa60(%rbp)
    bff1:	48 c7 85 a8 f5 ff ff 	movq   $0x0,-0xa58(%rbp)
    bff8:	00 00 00 00 
    bffc:	48 8d 85 50 f3 ff ff 	lea    -0xcb0(%rbp),%rax
    c003:	48 89 85 b0 f5 ff ff 	mov    %rax,-0xa50(%rbp)
    c00a:	48 c7 85 b8 f5 ff ff 	movq   $0x0,-0xa48(%rbp)
    c011:	00 00 00 00 
    c015:	48 8d 85 50 f3 ff ff 	lea    -0xcb0(%rbp),%rax
    c01c:	48 89 85 c0 f5 ff ff 	mov    %rax,-0xa40(%rbp)
    c023:	48 8d 05 c6 a0 00 00 	lea    0xa0c6(%rip),%rax        # 160f0 <g_293>
    c02a:	48 89 85 a0 f4 ff ff 	mov    %rax,-0xb60(%rbp)
    c031:	48 b8 de 0c b9 0e 6d 	movabs $0x1076fe6d0eb90cde,%rax
    c038:	fe 76 10 
    c03b:	48 89 85 10 f7 ff ff 	mov    %rax,-0x8f0(%rbp)
    c042:	48 c7 85 18 f7 ff ff 	movq   $0x1,-0x8e8(%rbp)
    c049:	01 00 00 00 
    c04d:	48 89 85 20 f7 ff ff 	mov    %rax,-0x8e0(%rbp)
    c054:	48 c7 85 28 f7 ff ff 	movq   $0x1,-0x8d8(%rbp)
    c05b:	01 00 00 00 
    c05f:	48 89 85 30 f7 ff ff 	mov    %rax,-0x8d0(%rbp)
    c066:	48 c7 85 38 f7 ff ff 	movq   $0x1,-0x8c8(%rbp)
    c06d:	01 00 00 00 
    c071:	48 89 85 40 f7 ff ff 	mov    %rax,-0x8c0(%rbp)
    c078:	48 c7 85 48 f7 ff ff 	movq   $0x1,-0x8b8(%rbp)
    c07f:	01 00 00 00 
    c083:	48 89 85 50 f7 ff ff 	mov    %rax,-0x8b0(%rbp)
    c08a:	48 c7 85 68 f3 ff ff 	movq   $0x0,-0xc98(%rbp)
    c091:	00 00 00 00 
    c095:	48 8d 85 68 f3 ff ff 	lea    -0xc98(%rbp),%rax
    c09c:	48 89 85 a8 f4 ff ff 	mov    %rax,-0xb58(%rbp)
    c0a3:	48 8d 05 72 a0 00 00 	lea    0xa072(%rip),%rax        # 1611c <g_532>
    c0aa:	48 89 85 b0 f4 ff ff 	mov    %rax,-0xb50(%rbp)
    c0b1:	48 8d 85 10 f7 ff ff 	lea    -0x8f0(%rbp),%rax
    c0b8:	48 83 c0 08          	add    $0x8,%rax
    c0bc:	48 89 85 60 f7 ff ff 	mov    %rax,-0x8a0(%rbp)
    c0c3:	48 8d 85 10 f7 ff ff 	lea    -0x8f0(%rbp),%rax
    c0ca:	48 83 c0 08          	add    $0x8,%rax
    c0ce:	48 89 85 68 f7 ff ff 	mov    %rax,-0x898(%rbp)
    c0d5:	48 8d 05 2c a0 00 00 	lea    0xa02c(%rip),%rax        # 16108 <g_471>
    c0dc:	48 89 85 70 f7 ff ff 	mov    %rax,-0x890(%rbp)
    c0e3:	48 8d 85 10 f7 ff ff 	lea    -0x8f0(%rbp),%rax
    c0ea:	48 83 c0 08          	add    $0x8,%rax
    c0ee:	48 89 85 78 f7 ff ff 	mov    %rax,-0x888(%rbp)
    c0f5:	48 8d 85 10 f7 ff ff 	lea    -0x8f0(%rbp),%rax
    c0fc:	48 83 c0 08          	add    $0x8,%rax
    c100:	48 89 85 80 f7 ff ff 	mov    %rax,-0x880(%rbp)
    c107:	48 8d 05 fa 9f 00 00 	lea    0x9ffa(%rip),%rax        # 16108 <g_471>
    c10e:	48 89 85 88 f7 ff ff 	mov    %rax,-0x878(%rbp)
    c115:	48 8d 85 10 f7 ff ff 	lea    -0x8f0(%rbp),%rax
    c11c:	48 83 c0 08          	add    $0x8,%rax
    c120:	48 89 85 90 f7 ff ff 	mov    %rax,-0x870(%rbp)
    c127:	48 8d 85 10 f7 ff ff 	lea    -0x8f0(%rbp),%rax
    c12e:	48 83 c0 08          	add    $0x8,%rax
    c132:	48 89 85 98 f7 ff ff 	mov    %rax,-0x868(%rbp)
    c139:	48 8d 05 c8 9f 00 00 	lea    0x9fc8(%rip),%rax        # 16108 <g_471>
    c140:	48 89 85 a0 f7 ff ff 	mov    %rax,-0x860(%rbp)
    c147:	48 8d 85 10 f7 ff ff 	lea    -0x8f0(%rbp),%rax
    c14e:	48 83 c0 08          	add    $0x8,%rax
    c152:	48 89 85 a8 f7 ff ff 	mov    %rax,-0x858(%rbp)
    c159:	48 c7 85 60 f4 ff ff 	movq   $0x2,-0xba0(%rbp)
    c160:	02 00 00 00 
    c164:	c7 85 c0 f2 ff ff 00 	movl   $0x0,-0xd40(%rbp)
    c16b:	00 00 00 
    c16e:	eb 1e                	jmp    c18e <func_55+0x825>
    c170:	8b 85 c0 f2 ff ff    	mov    -0xd40(%rbp),%eax
    c176:	48 98                	cltq   
    c178:	48 8d 15 81 9f 00 00 	lea    0x9f81(%rip),%rdx        # 16100 <g_468>
    c17f:	48 89 94 c5 c0 f6 ff 	mov    %rdx,-0x940(%rbp,%rax,8)
    c186:	ff 
    c187:	83 85 c0 f2 ff ff 01 	addl   $0x1,-0xd40(%rbp)
    c18e:	83 bd c0 f2 ff ff 08 	cmpl   $0x8,-0xd40(%rbp)
    c195:	7e d9                	jle    c170 <func_55+0x807>
    c197:	48 8b 85 58 f3 ff ff 	mov    -0xca8(%rbp),%rax
    c19e:	44 0f be e0          	movsbl %al,%r12d
    c1a2:	0f b7 85 70 f2 ff ff 	movzwl -0xd90(%rbp),%eax
    c1a9:	44 0f bf e8          	movswl %ax,%r13d
    c1ad:	0f b6 85 7a f2 ff ff 	movzbl -0xd86(%rbp),%eax
    c1b4:	c1 e0 04             	shl    $0x4,%eax
    c1b7:	c0 f8 04             	sar    $0x4,%al
    c1ba:	0f be d8             	movsbl %al,%ebx
    c1bd:	48 8b 95 58 f3 ff ff 	mov    -0xca8(%rbp),%rdx
    c1c4:	0f b6 05 5e 9e 00 00 	movzbl 0x9e5e(%rip),%eax        # 16029 <g_23>
    c1cb:	0f b6 c0             	movzbl %al,%eax
    c1ce:	48 89 d6             	mov    %rdx,%rsi
    c1d1:	48 89 c7             	mov    %rax,%rdi
    c1d4:	e8 68 86 ff ff       	callq  4841 <safe_add_func_int64_t_s_s>
    c1d9:	89 de                	mov    %ebx,%esi
    c1db:	89 c7                	mov    %eax,%edi
    c1dd:	e8 ea 84 ff ff       	callq  46cc <safe_mod_func_int32_t_s_s>
    c1e2:	66 89 85 6e f2 ff ff 	mov    %ax,-0xd92(%rbp)
    c1e9:	44 8b 35 34 9e 00 00 	mov    0x9e34(%rip),%r14d        # 16024 <g_6>
    c1f0:	44 8b bd ac f2 ff ff 	mov    -0xd54(%rbp),%r15d
    c1f7:	0f b7 85 78 f2 ff ff 	movzwl -0xd88(%rbp),%eax
    c1fe:	0f b7 c0             	movzwl %ax,%eax
    c201:	89 85 68 f2 ff ff    	mov    %eax,-0xd98(%rbp)
    c207:	48 8b 85 a0 f3 ff ff 	mov    -0xc60(%rbp),%rax
    c20e:	8b 00                	mov    (%rax),%eax
    c210:	89 85 64 f2 ff ff    	mov    %eax,-0xd9c(%rbp)
    c216:	48 8b 85 78 f3 ff ff 	mov    -0xc88(%rbp),%rax
    c21d:	0f b7 c0             	movzwl %ax,%eax
    c220:	89 85 60 f2 ff ff    	mov    %eax,-0xda0(%rbp)
    c226:	8b 05 8c c3 00 00    	mov    0xc38c(%rip),%eax        # 185b8 <g_361>
    c22c:	89 c0                	mov    %eax,%eax
    c22e:	48 89 85 58 f2 ff ff 	mov    %rax,-0xda8(%rbp)
    c235:	48 8b 05 44 ad 00 00 	mov    0xad44(%rip),%rax        # 16f80 <g_18>
    c23c:	48 89 85 50 f2 ff ff 	mov    %rax,-0xdb0(%rbp)
    c243:	0f b7 85 78 f2 ff ff 	movzwl -0xd88(%rbp),%eax
    c24a:	0f b7 c0             	movzwl %ax,%eax
    c24d:	48 89 85 48 f2 ff ff 	mov    %rax,-0xdb8(%rbp)
    c254:	0f b6 05 ce 9d 00 00 	movzbl 0x9dce(%rip),%eax        # 16029 <g_23>
    c25b:	0f b6 c0             	movzbl %al,%eax
    c25e:	89 85 44 f2 ff ff    	mov    %eax,-0xdbc(%rbp)
    c264:	8b 85 ac f2 ff ff    	mov    -0xd54(%rbp),%eax
    c26a:	0f be d8             	movsbl %al,%ebx
    c26d:	8b 8d ac f2 ff ff    	mov    -0xd54(%rbp),%ecx
    c273:	0f b7 95 78 f2 ff ff 	movzwl -0xd88(%rbp),%edx
    c27a:	0f b6 05 a8 9d 00 00 	movzbl 0x9da8(%rip),%eax        # 16029 <g_23>
    c281:	0f b6 c0             	movzbl %al,%eax
    c284:	66 39 c2             	cmp    %ax,%dx
    c287:	0f 96 c0             	setbe  %al
    c28a:	0f b6 c0             	movzbl %al,%eax
    c28d:	89 ce                	mov    %ecx,%esi
    c28f:	89 c7                	mov    %eax,%edi
    c291:	e8 8f 8c ff ff       	callq  4f25 <safe_div_func_uint32_t_u_u>
    c296:	83 bd a0 f2 ff ff 00 	cmpl   $0x0,-0xd60(%rbp)
    c29d:	74 07                	je     c2a6 <func_55+0x93d>
    c29f:	b8 01 00 00 00       	mov    $0x1,%eax
    c2a4:	eb 05                	jmp    c2ab <func_55+0x942>
    c2a6:	b8 00 00 00 00       	mov    $0x0,%eax
    c2ab:	0f be d0             	movsbl %al,%edx
    c2ae:	8b 85 ac f2 ff ff    	mov    -0xd54(%rbp),%eax
    c2b4:	0f be c0             	movsbl %al,%eax
    c2b7:	89 d6                	mov    %edx,%esi
    c2b9:	89 c7                	mov    %eax,%edi
    c2bb:	e8 71 7f ff ff       	callq  4231 <safe_mod_func_int8_t_s_s>
    c2c0:	84 c0                	test   %al,%al
    c2c2:	75 0b                	jne    c2cf <func_55+0x966>
    c2c4:	0f b6 05 5d 9d 00 00 	movzbl 0x9d5d(%rip),%eax        # 16028 <g_19>
    c2cb:	84 c0                	test   %al,%al
    c2cd:	74 07                	je     c2d6 <func_55+0x96d>
    c2cf:	b8 01 00 00 00       	mov    $0x1,%eax
    c2d4:	eb 05                	jmp    c2db <func_55+0x972>
    c2d6:	b8 00 00 00 00       	mov    $0x0,%eax
    c2db:	48 98                	cltq   
    c2dd:	48 89 05 84 9d 00 00 	mov    %rax,0x9d84(%rip)        # 16068 <g_132>
    c2e4:	48 8b 05 7d 9d 00 00 	mov    0x9d7d(%rip),%rax        # 16068 <g_132>
    c2eb:	48 c7 c6 ff ff ff ff 	mov    $0xffffffffffffffff,%rsi
    c2f2:	48 89 c7             	mov    %rax,%rdi
    c2f5:	e8 ba 86 ff ff       	callq  49b4 <safe_mod_func_int64_t_s_s>
    c2fa:	48 8b 8d 48 f2 ff ff 	mov    -0xdb8(%rbp),%rcx
    c301:	8b 95 44 f2 ff ff    	mov    -0xdbc(%rbp),%edx
    c307:	89 de                	mov    %ebx,%esi
    c309:	89 c7                	mov    %eax,%edi
    c30b:	e8 6d 33 00 00       	callq  f67d <func_118>
    c310:	0f b6 d0             	movzbl %al,%edx
    c313:	48 8b 05 de 9d 00 00 	mov    0x9dde(%rip),%rax        # 160f8 <g_300>
    c31a:	48 39 c2             	cmp    %rax,%rdx
    c31d:	0f 9e c0             	setle  %al
    c320:	0f b6 c0             	movzbl %al,%eax
    c323:	48 8b 1d 76 ac 00 00 	mov    0xac76(%rip),%rbx        # 16fa0 <g_467>
    c32a:	8b 8d 60 f2 ff ff    	mov    -0xda0(%rbp),%ecx
    c330:	48 8b 95 58 f2 ff ff 	mov    -0xda8(%rbp),%rdx
    c337:	48 8b b5 50 f2 ff ff 	mov    -0xdb0(%rbp),%rsi
    c33e:	89 c7                	mov    %eax,%edi
    c340:	e8 f7 27 00 00       	callq  eb3c <func_113>
    c345:	66 89 03             	mov    %ax,(%rbx)
    c348:	8b b5 64 f2 ff ff    	mov    -0xd9c(%rbp),%esi
    c34e:	bf 01 00 00 00       	mov    $0x1,%edi
    c353:	e8 78 8b ff ff       	callq  4ed0 <safe_sub_func_uint32_t_u_u>
    c358:	0f b7 15 b9 9d 00 00 	movzwl 0x9db9(%rip),%edx        # 16118 <g_517+0x8>
    c35f:	0f b7 d2             	movzwl %dx,%edx
    c362:	39 d0                	cmp    %edx,%eax
    c364:	0f 92 c0             	setb   %al
    c367:	0f b6 c0             	movzbl %al,%eax
    c36a:	39 85 68 f2 ff ff    	cmp    %eax,-0xd98(%rbp)
    c370:	0f 9e c0             	setle  %al
    c373:	0f b6 d0             	movzbl %al,%edx
    c376:	48 8b 05 7b 9d 00 00 	mov    0x9d7b(%rip),%rax        # 160f8 <g_300>
    c37d:	48 39 c2             	cmp    %rax,%rdx
    c380:	74 11                	je     c393 <func_55+0xa2a>
    c382:	8b 05 cc 9c 00 00    	mov    0x9ccc(%rip),%eax        # 16054 <g_59+0x14>
    c388:	85 c0                	test   %eax,%eax
    c38a:	74 07                	je     c393 <func_55+0xa2a>
    c38c:	b8 01 00 00 00       	mov    $0x1,%eax
    c391:	eb 05                	jmp    c398 <func_55+0xa2f>
    c393:	b8 00 00 00 00       	mov    $0x0,%eax
    c398:	89 85 98 f2 ff ff    	mov    %eax,-0xd68(%rbp)
    c39e:	8b 85 98 f2 ff ff    	mov    -0xd68(%rbp),%eax
    c3a4:	98                   	cwtl   
    c3a5:	44 89 fe             	mov    %r15d,%esi
    c3a8:	89 c7                	mov    %eax,%edi
    c3aa:	e8 32 81 ff ff       	callq  44e1 <safe_lshift_func_int16_t_s_u>
    c3af:	0f b6 c0             	movzbl %al,%eax
    c3b2:	44 89 f6             	mov    %r14d,%esi
    c3b5:	89 c7                	mov    %eax,%edi
    c3b7:	e8 49 88 ff ff       	callq  4c05 <safe_lshift_func_uint8_t_u_s>
    c3bc:	0f b6 c0             	movzbl %al,%eax
    c3bf:	66 33 85 6e f2 ff ff 	xor    -0xd92(%rbp),%ax
    c3c6:	0f b7 c0             	movzwl %ax,%eax
    c3c9:	48 8d 95 90 f2 ff ff 	lea    -0xd70(%rbp),%rdx
    c3d0:	44 89 ee             	mov    %r13d,%esi
    c3d3:	89 c7                	mov    %eax,%edi
    c3d5:	e8 55 11 00 00       	callq  d52f <func_98>
    c3da:	85 c0                	test   %eax,%eax
    c3dc:	78 07                	js     c3e5 <func_55+0xa7c>
    c3de:	b8 01 00 00 00       	mov    $0x1,%eax
    c3e3:	eb 05                	jmp    c3ea <func_55+0xa81>
    c3e5:	b8 00 00 00 00       	mov    $0x0,%eax
    c3ea:	0f b6 c0             	movzbl %al,%eax
    c3ed:	89 c7                	mov    %eax,%edi
    c3ef:	e8 51 87 ff ff       	callq  4b45 <safe_unary_minus_func_uint8_t_u>
    c3f4:	84 c0                	test   %al,%al
    c3f6:	75 0a                	jne    c402 <func_55+0xa99>
    c3f8:	48 83 bd 78 f3 ff ff 	cmpq   $0x0,-0xc88(%rbp)
    c3ff:	00 
    c400:	74 07                	je     c409 <func_55+0xaa0>
    c402:	ba 01 00 00 00       	mov    $0x1,%edx
    c407:	eb 05                	jmp    c40e <func_55+0xaa5>
    c409:	ba 00 00 00 00       	mov    $0x0,%edx
    c40e:	48 8b 05 6b ab 00 00 	mov    0xab6b(%rip),%rax        # 16f80 <g_18>
    c415:	88 10                	mov    %dl,(%rax)
    c417:	0f b6 00             	movzbl (%rax),%eax
    c41a:	0f be c0             	movsbl %al,%eax
    c41d:	44 89 e6             	mov    %r12d,%esi
    c420:	89 c7                	mov    %eax,%edi
    c422:	e8 eb 7d ff ff       	callq  4212 <safe_mul_func_int8_t_s_s>
    c427:	c6 85 88 f2 ff ff 2a 	movb   $0x2a,-0xd78(%rbp)
    c42e:	c7 85 dc f2 ff ff 19 	movl   $0xcc1be019,-0xd24(%rbp)
    c435:	e0 1b cc 
    c438:	c7 85 e0 f2 ff ff 00 	movl   $0x0,-0xd20(%rbp)
    c43f:	00 00 00 
    c442:	c7 85 e4 f2 ff ff ff 	movl   $0xffffffff,-0xd1c(%rbp)
    c449:	ff ff ff 
    c44c:	0f b6 85 85 f2 ff ff 	movzbl -0xd7b(%rbp),%eax
    c453:	83 e8 01             	sub    $0x1,%eax
    c456:	88 85 85 f2 ff ff    	mov    %al,-0xd7b(%rbp)
    c45c:	0f b7 85 78 f2 ff ff 	movzwl -0xd88(%rbp),%eax
    c463:	66 85 c0             	test   %ax,%ax
    c466:	0f 84 fe 00 00 00    	je     c56a <func_55+0xc01>
    c46c:	48 8b 85 f0 f3 ff ff 	mov    -0xc10(%rbp),%rax
    c473:	44 8b 28             	mov    (%rax),%r13d
    c476:	0f b6 05 fd 9b 00 00 	movzbl 0x9bfd(%rip),%eax        # 1607a <g_197+0x2>
    c47d:	c1 e0 03             	shl    $0x3,%eax
    c480:	c0 f8 03             	sar    $0x3,%al
    c483:	48 0f be d8          	movsbq %al,%rbx
    c487:	0f b6 05 84 9c 00 00 	movzbl 0x9c84(%rip),%eax        # 16112 <g_517+0x2>
    c48e:	c1 e0 03             	shl    $0x3,%eax
    c491:	c0 f8 03             	sar    $0x3,%al
    c494:	4c 0f be e0          	movsbq %al,%r12
    c498:	0f b7 05 71 9c 00 00 	movzwl 0x9c71(%rip),%eax        # 16110 <g_517>
    c49f:	0f b7 d0             	movzwl %ax,%edx
    c4a2:	0f b6 85 7a f2 ff ff 	movzbl -0xd86(%rbp),%eax
    c4a9:	c1 e0 04             	shl    $0x4,%eax
    c4ac:	c0 f8 04             	sar    $0x4,%al
    c4af:	83 c8 07             	or     $0x7,%eax
    c4b2:	48 0f be c0          	movsbq %al,%rax
    c4b6:	48 89 d6             	mov    %rdx,%rsi
    c4b9:	48 89 c7             	mov    %rax,%rdi
    c4bc:	e8 f3 84 ff ff       	callq  49b4 <safe_mod_func_int64_t_s_s>
    c4c1:	4c 89 e6             	mov    %r12,%rsi
    c4c4:	48 89 c7             	mov    %rax,%rdi
    c4c7:	e8 e8 84 ff ff       	callq  49b4 <safe_mod_func_int64_t_s_s>
    c4cc:	c7 85 9c f2 ff ff 01 	movl   $0x1,-0xd64(%rbp)
    c4d3:	00 00 00 
    c4d6:	0f b7 05 3b 9c 00 00 	movzwl 0x9c3b(%rip),%eax        # 16118 <g_517+0x8>
    c4dd:	0f b7 d0             	movzwl %ax,%edx
    c4e0:	48 8b 85 50 f3 ff ff 	mov    -0xcb0(%rbp),%rax
    c4e7:	48 89 85 50 f3 ff ff 	mov    %rax,-0xcb0(%rbp)
    c4ee:	48 8b 85 50 f3 ff ff 	mov    -0xcb0(%rbp),%rax
    c4f5:	48 85 c0             	test   %rax,%rax
    c4f8:	0f 95 c0             	setne  %al
    c4fb:	0f b6 c0             	movzbl %al,%eax
    c4fe:	48 89 d6             	mov    %rdx,%rsi
    c501:	48 89 c7             	mov    %rax,%rdi
    c504:	e8 a6 8b ff ff       	callq  50af <safe_div_func_uint64_t_u_u>
    c509:	8b 95 d8 f2 ff ff    	mov    -0xd28(%rbp),%edx
    c50f:	48 63 d2             	movslq %edx,%rdx
    c512:	48 39 d0             	cmp    %rdx,%rax
    c515:	0f 95 c0             	setne  %al
    c518:	0f b6 c0             	movzbl %al,%eax
    c51b:	89 c6                	mov    %eax,%esi
    c51d:	bf f6 ff ff ff       	mov    $0xfffffff6,%edi
    c522:	e8 ad 7c ff ff       	callq  41d4 <safe_add_func_int8_t_s_s>
    c527:	48 0f be c0          	movsbq %al,%rax
    c52b:	48 89 de             	mov    %rbx,%rsi
    c52e:	48 89 c7             	mov    %rax,%rdi
    c531:	e8 4a 8b ff ff       	callq  5080 <safe_mod_func_uint64_t_u_u>
    c536:	0f b7 d0             	movzwl %ax,%edx
    c539:	0f b7 05 d0 9b 00 00 	movzwl 0x9bd0(%rip),%eax        # 16110 <g_517>
    c540:	0f b7 c0             	movzwl %ax,%eax
    c543:	89 d6                	mov    %edx,%esi
    c545:	89 c7                	mov    %eax,%edi
    c547:	e8 f1 87 ff ff       	callq  4d3d <safe_mul_func_uint16_t_u_u>
    c54c:	0f b7 c0             	movzwl %ax,%eax
    c54f:	89 85 d4 f7 ff ff    	mov    %eax,-0x82c(%rbp)
    c555:	8b 85 d4 f7 ff ff    	mov    -0x82c(%rbp),%eax
    c55b:	41 39 c5             	cmp    %eax,%r13d
    c55e:	7e 0a                	jle    c56a <func_55+0xc01>
    c560:	0f b7 05 a9 9b 00 00 	movzwl 0x9ba9(%rip),%eax        # 16110 <g_517>
    c567:	66 85 c0             	test   %ax,%ax
    c56a:	48 8b 85 40 f7 ff ff 	mov    -0x8c0(%rbp),%rax
    c571:	48 83 e8 01          	sub    $0x1,%rax
    c575:	48 89 85 40 f7 ff ff 	mov    %rax,-0x8c0(%rbp)
    c57c:	c6 05 9d 9b 00 00 f3 	movb   $0xf3,0x9b9d(%rip)        # 16120 <g_534>
    c583:	e9 1d 0f 00 00       	jmpq   d4a5 <func_55+0x1b3c>
    c588:	48 c7 85 b8 f4 ff ff 	movq   $0x0,-0xb48(%rbp)
    c58f:	00 00 00 00 
    c593:	c7 85 e8 f2 ff ff e6 	movl   $0x6a9d74e6,-0xd18(%rbp)
    c59a:	74 9d 6a 
    c59d:	48 8d 85 98 f2 ff ff 	lea    -0xd68(%rbp),%rax
    c5a4:	48 89 85 10 f8 ff ff 	mov    %rax,-0x7f0(%rbp)
    c5ab:	48 8d 85 30 f5 ff ff 	lea    -0xad0(%rbp),%rax
    c5b2:	48 83 c0 0c          	add    $0xc,%rax
    c5b6:	48 89 85 18 f8 ff ff 	mov    %rax,-0x7e8(%rbp)
    c5bd:	48 8d 85 98 f2 ff ff 	lea    -0xd68(%rbp),%rax
    c5c4:	48 89 85 20 f8 ff ff 	mov    %rax,-0x7e0(%rbp)
    c5cb:	48 8d 85 94 f2 ff ff 	lea    -0xd6c(%rbp),%rax
    c5d2:	48 89 85 28 f8 ff ff 	mov    %rax,-0x7d8(%rbp)
    c5d9:	48 8d 85 98 f2 ff ff 	lea    -0xd68(%rbp),%rax
    c5e0:	48 89 85 30 f8 ff ff 	mov    %rax,-0x7d0(%rbp)
    c5e7:	48 8d 85 30 f5 ff ff 	lea    -0xad0(%rbp),%rax
    c5ee:	48 83 c0 0c          	add    $0xc,%rax
    c5f2:	48 89 85 38 f8 ff ff 	mov    %rax,-0x7c8(%rbp)
    c5f9:	48 8d 85 98 f2 ff ff 	lea    -0xd68(%rbp),%rax
    c600:	48 89 85 40 f8 ff ff 	mov    %rax,-0x7c0(%rbp)
    c607:	48 8d 85 94 f2 ff ff 	lea    -0xd6c(%rbp),%rax
    c60e:	48 89 85 48 f8 ff ff 	mov    %rax,-0x7b8(%rbp)
    c615:	48 8d 85 98 f2 ff ff 	lea    -0xd68(%rbp),%rax
    c61c:	48 89 85 50 f8 ff ff 	mov    %rax,-0x7b0(%rbp)
    c623:	48 8d 85 30 f5 ff ff 	lea    -0xad0(%rbp),%rax
    c62a:	48 83 c0 0c          	add    $0xc,%rax
    c62e:	48 89 85 58 f8 ff ff 	mov    %rax,-0x7a8(%rbp)
    c635:	48 8d 85 98 f2 ff ff 	lea    -0xd68(%rbp),%rax
    c63c:	48 89 85 60 f8 ff ff 	mov    %rax,-0x7a0(%rbp)
    c643:	48 8d 85 94 f2 ff ff 	lea    -0xd6c(%rbp),%rax
    c64a:	48 89 85 68 f8 ff ff 	mov    %rax,-0x798(%rbp)
    c651:	48 8d 85 98 f2 ff ff 	lea    -0xd68(%rbp),%rax
    c658:	48 89 85 70 f8 ff ff 	mov    %rax,-0x790(%rbp)
    c65f:	48 8d 85 30 f5 ff ff 	lea    -0xad0(%rbp),%rax
    c666:	48 83 c0 0c          	add    $0xc,%rax
    c66a:	48 89 85 78 f8 ff ff 	mov    %rax,-0x788(%rbp)
    c671:	48 8d 85 98 f2 ff ff 	lea    -0xd68(%rbp),%rax
    c678:	48 89 85 80 f8 ff ff 	mov    %rax,-0x780(%rbp)
    c67f:	48 8d 85 94 f2 ff ff 	lea    -0xd6c(%rbp),%rax
    c686:	48 89 85 88 f8 ff ff 	mov    %rax,-0x778(%rbp)
    c68d:	48 8d 85 98 f2 ff ff 	lea    -0xd68(%rbp),%rax
    c694:	48 89 85 90 f8 ff ff 	mov    %rax,-0x770(%rbp)
    c69b:	48 8d 85 30 f5 ff ff 	lea    -0xad0(%rbp),%rax
    c6a2:	48 83 c0 0c          	add    $0xc,%rax
    c6a6:	48 89 85 98 f8 ff ff 	mov    %rax,-0x768(%rbp)
    c6ad:	48 8d 85 98 f2 ff ff 	lea    -0xd68(%rbp),%rax
    c6b4:	48 89 85 a0 f8 ff ff 	mov    %rax,-0x760(%rbp)
    c6bb:	48 8d 85 94 f2 ff ff 	lea    -0xd6c(%rbp),%rax
    c6c2:	48 89 85 a8 f8 ff ff 	mov    %rax,-0x758(%rbp)
    c6c9:	48 8d 85 98 f2 ff ff 	lea    -0xd68(%rbp),%rax
    c6d0:	48 89 85 b0 f8 ff ff 	mov    %rax,-0x750(%rbp)
    c6d7:	48 8d 85 30 f5 ff ff 	lea    -0xad0(%rbp),%rax
    c6de:	48 83 c0 0c          	add    $0xc,%rax
    c6e2:	48 89 85 b8 f8 ff ff 	mov    %rax,-0x748(%rbp)
    c6e9:	48 8d 85 98 f2 ff ff 	lea    -0xd68(%rbp),%rax
    c6f0:	48 89 85 c0 f8 ff ff 	mov    %rax,-0x740(%rbp)
    c6f7:	48 8d 85 94 f2 ff ff 	lea    -0xd6c(%rbp),%rax
    c6fe:	48 89 85 c8 f8 ff ff 	mov    %rax,-0x738(%rbp)
    c705:	48 8d 85 98 f2 ff ff 	lea    -0xd68(%rbp),%rax
    c70c:	48 89 85 d0 f8 ff ff 	mov    %rax,-0x730(%rbp)
    c713:	48 8d 85 30 f5 ff ff 	lea    -0xad0(%rbp),%rax
    c71a:	48 83 c0 0c          	add    $0xc,%rax
    c71e:	48 89 85 d8 f8 ff ff 	mov    %rax,-0x728(%rbp)
    c725:	48 8d 85 98 f2 ff ff 	lea    -0xd68(%rbp),%rax
    c72c:	48 89 85 e0 f8 ff ff 	mov    %rax,-0x720(%rbp)
    c733:	48 8d 85 94 f2 ff ff 	lea    -0xd6c(%rbp),%rax
    c73a:	48 89 85 e8 f8 ff ff 	mov    %rax,-0x718(%rbp)
    c741:	48 8d 85 98 f2 ff ff 	lea    -0xd68(%rbp),%rax
    c748:	48 89 85 f0 f8 ff ff 	mov    %rax,-0x710(%rbp)
    c74f:	48 8d 85 30 f5 ff ff 	lea    -0xad0(%rbp),%rax
    c756:	48 83 c0 0c          	add    $0xc,%rax
    c75a:	48 89 85 f8 f8 ff ff 	mov    %rax,-0x708(%rbp)
    c761:	48 8d 85 98 f2 ff ff 	lea    -0xd68(%rbp),%rax
    c768:	48 89 85 00 f9 ff ff 	mov    %rax,-0x700(%rbp)
    c76f:	48 8d 85 94 f2 ff ff 	lea    -0xd6c(%rbp),%rax
    c776:	48 89 85 08 f9 ff ff 	mov    %rax,-0x6f8(%rbp)
    c77d:	48 8d 85 98 f2 ff ff 	lea    -0xd68(%rbp),%rax
    c784:	48 89 85 10 f9 ff ff 	mov    %rax,-0x6f0(%rbp)
    c78b:	48 8d 85 30 f5 ff ff 	lea    -0xad0(%rbp),%rax
    c792:	48 83 c0 0c          	add    $0xc,%rax
    c796:	48 89 85 18 f9 ff ff 	mov    %rax,-0x6e8(%rbp)
    c79d:	48 8d 85 98 f2 ff ff 	lea    -0xd68(%rbp),%rax
    c7a4:	48 89 85 20 f9 ff ff 	mov    %rax,-0x6e0(%rbp)
    c7ab:	48 b8 d9 f2 35 21 d8 	movabs $0x2f2e84d82135f2d9,%rax
    c7b2:	84 2e 2f 
    c7b5:	48 89 85 70 f3 ff ff 	mov    %rax,-0xc90(%rbp)
    c7bc:	48 8d 85 50 f3 ff ff 	lea    -0xcb0(%rbp),%rax
    c7c3:	48 89 85 c0 f4 ff ff 	mov    %rax,-0xb40(%rbp)
    c7ca:	c7 85 c4 f2 ff ff 00 	movl   $0x0,-0xd3c(%rbp)
    c7d1:	00 00 00 
    c7d4:	eb 6e                	jmp    c844 <func_55+0xedb>
    c7d6:	c7 85 c8 f2 ff ff 00 	movl   $0x0,-0xd38(%rbp)
    c7dd:	00 00 00 
    c7e0:	eb 52                	jmp    c834 <func_55+0xecb>
    c7e2:	c7 85 cc f2 ff ff 00 	movl   $0x0,-0xd34(%rbp)
    c7e9:	00 00 00 
    c7ec:	eb 36                	jmp    c824 <func_55+0xebb>
    c7ee:	8b 85 cc f2 ff ff    	mov    -0xd34(%rbp),%eax
    c7f4:	48 63 c8             	movslq %eax,%rcx
    c7f7:	8b 85 c8 f2 ff ff    	mov    -0xd38(%rbp),%eax
    c7fd:	48 63 d0             	movslq %eax,%rdx
    c800:	8b 85 c4 f2 ff ff    	mov    -0xd3c(%rbp),%eax
    c806:	48 98                	cltq   
    c808:	48 01 ca             	add    %rcx,%rdx
    c80b:	48 01 c2             	add    %rax,%rdx
    c80e:	48 8d 85 40 f3 ff ff 	lea    -0xcc0(%rbp),%rax
    c815:	48 89 84 d5 d0 f5 ff 	mov    %rax,-0xa30(%rbp,%rdx,8)
    c81c:	ff 
    c81d:	83 85 cc f2 ff ff 01 	addl   $0x1,-0xd34(%rbp)
    c824:	83 bd cc f2 ff ff 00 	cmpl   $0x0,-0xd34(%rbp)
    c82b:	7e c1                	jle    c7ee <func_55+0xe85>
    c82d:	83 85 c8 f2 ff ff 01 	addl   $0x1,-0xd38(%rbp)
    c834:	83 bd c8 f2 ff ff 00 	cmpl   $0x0,-0xd38(%rbp)
    c83b:	7e a5                	jle    c7e2 <func_55+0xe79>
    c83d:	83 85 c4 f2 ff ff 01 	addl   $0x1,-0xd3c(%rbp)
    c844:	83 bd c4 f2 ff ff 04 	cmpl   $0x4,-0xd3c(%rbp)
    c84b:	7e 89                	jle    c7d6 <func_55+0xe6d>
    c84d:	c7 85 c4 f2 ff ff 00 	movl   $0x0,-0xd3c(%rbp)
    c854:	00 00 00 
    c857:	eb 22                	jmp    c87b <func_55+0xf12>
    c859:	8b 85 c4 f2 ff ff    	mov    -0xd3c(%rbp),%eax
    c85f:	48 98                	cltq   
    c861:	48 8d 95 d0 f5 ff ff 	lea    -0xa30(%rbp),%rdx
    c868:	48 83 c2 20          	add    $0x20,%rdx
    c86c:	48 89 94 c5 40 f5 ff 	mov    %rdx,-0xac0(%rbp,%rax,8)
    c873:	ff 
    c874:	83 85 c4 f2 ff ff 01 	addl   $0x1,-0xd3c(%rbp)
    c87b:	83 bd c4 f2 ff ff 01 	cmpl   $0x1,-0xd3c(%rbp)
    c882:	7e d5                	jle    c859 <func_55+0xef0>
    c884:	48 8b 85 40 f7 ff ff 	mov    -0x8c0(%rbp),%rax
    c88b:	0f b6 d0             	movzbl %al,%edx
    c88e:	48 8d 05 63 98 00 00 	lea    0x9863(%rip),%rax        # 160f8 <g_300>
    c895:	48 39 85 58 f4 ff ff 	cmp    %rax,-0xba8(%rbp)
    c89c:	0f 95 c0             	setne  %al
    c89f:	0f b6 c0             	movzbl %al,%eax
    c8a2:	89 d6                	mov    %edx,%esi
    c8a4:	89 c7                	mov    %eax,%edi
    c8a6:	e8 30 83 ff ff       	callq  4bdb <safe_div_func_uint8_t_u_u>
    c8ab:	48 8b 95 50 f4 ff ff 	mov    -0xbb0(%rbp),%rdx
    c8b2:	8b 12                	mov    (%rdx),%edx
    c8b4:	0f b6 c0             	movzbl %al,%eax
    c8b7:	21 c2                	and    %eax,%edx
    c8b9:	48 8b 85 50 f4 ff ff 	mov    -0xbb0(%rbp),%rax
    c8c0:	89 10                	mov    %edx,(%rax)
    c8c2:	48 8b 85 50 f4 ff ff 	mov    -0xbb0(%rbp),%rax
    c8c9:	8b 10                	mov    (%rax),%edx
    c8cb:	48 8b 05 ae a6 00 00 	mov    0xa6ae(%rip),%rax        # 16f80 <g_18>
    c8d2:	0f b6 00             	movzbl (%rax),%eax
    c8d5:	84 c0                	test   %al,%al
    c8d7:	0f 94 c0             	sete   %al
    c8da:	0f b6 c0             	movzbl %al,%eax
    c8dd:	c1 e0 0d             	shl    $0xd,%eax
    c8e0:	c1 f8 0d             	sar    $0xd,%eax
    c8e3:	25 ff ff 07 00       	and    $0x7ffff,%eax
    c8e8:	89 c1                	mov    %eax,%ecx
    c8ea:	8b 85 74 f2 ff ff    	mov    -0xd8c(%rbp),%eax
    c8f0:	25 00 00 f8 ff       	and    $0xfff80000,%eax
    c8f5:	09 c8                	or     %ecx,%eax
    c8f7:	89 85 74 f2 ff ff    	mov    %eax,-0xd8c(%rbp)
    c8fd:	8b 85 74 f2 ff ff    	mov    -0xd8c(%rbp),%eax
    c903:	c1 e0 0d             	shl    $0xd,%eax
    c906:	c1 f8 0d             	sar    $0xd,%eax
    c909:	89 d6                	mov    %edx,%esi
    c90b:	89 c7                	mov    %eax,%edi
    c90d:	e8 f3 7c ff ff       	callq  4605 <safe_sub_func_int32_t_s_s>
    c912:	48 8b 05 87 a6 00 00 	mov    0xa687(%rip),%rax        # 16fa0 <g_467>
    c919:	0f b7 00             	movzwl (%rax),%eax
    c91c:	98                   	cwtl   
    c91d:	89 c6                	mov    %eax,%esi
    c91f:	bf 01 00 00 00       	mov    $0x1,%edi
    c924:	e8 cc 7a ff ff       	callq  43f5 <safe_mul_func_int16_t_s_s>
    c929:	89 c2                	mov    %eax,%edx
    c92b:	48 8b 05 4e a6 00 00 	mov    0xa64e(%rip),%rax        # 16f80 <g_18>
    c932:	88 10                	mov    %dl,(%rax)
    c934:	0f b6 00             	movzbl (%rax),%eax
    c937:	0f be c0             	movsbl %al,%eax
    c93a:	be 05 00 00 00       	mov    $0x5,%esi
    c93f:	89 c7                	mov    %eax,%edi
    c941:	e8 26 7a ff ff       	callq  436c <safe_rshift_func_int8_t_s_u>
    c946:	84 c0                	test   %al,%al
    c948:	0f 94 c0             	sete   %al
    c94b:	0f b6 c0             	movzbl %al,%eax
    c94e:	be ff ff ff ff       	mov    $0xffffffff,%esi
    c953:	89 c7                	mov    %eax,%edi
    c955:	e8 59 7a ff ff       	callq  43b3 <safe_add_func_int16_t_s_s>
    c95a:	0f b7 85 78 f2 ff ff 	movzwl -0xd88(%rbp),%eax
    c961:	66 85 c0             	test   %ax,%ax
    c964:	0f 84 d8 04 00 00    	je     ce42 <func_55+0x14d9>
    c96a:	66 c7 85 20 f5 ff ff 	movw   $0x34,-0xae0(%rbp)
    c971:	34 00 
    c973:	0f b6 85 22 f5 ff ff 	movzbl -0xade(%rbp),%eax
    c97a:	83 e0 e0             	and    $0xffffffe0,%eax
    c97d:	83 c8 1d             	or     $0x1d,%eax
    c980:	88 85 22 f5 ff ff    	mov    %al,-0xade(%rbp)
    c986:	8b 85 24 f5 ff ff    	mov    -0xadc(%rbp),%eax
    c98c:	25 00 00 f8 ff       	and    $0xfff80000,%eax
    c991:	0d e7 fd 07 00       	or     $0x7fde7,%eax
    c996:	89 85 24 f5 ff ff    	mov    %eax,-0xadc(%rbp)
    c99c:	66 c7 85 28 f5 ff ff 	movw   $0xbb81,-0xad8(%rbp)
    c9a3:	81 bb 
    c9a5:	0f b6 85 2a f5 ff ff 	movzbl -0xad6(%rbp),%eax
    c9ac:	83 c8 0f             	or     $0xf,%eax
    c9af:	88 85 2a f5 ff ff    	mov    %al,-0xad6(%rbp)
    c9b5:	c7 85 f4 f2 ff ff a4 	movl   $0x6a1baca4,-0xd0c(%rbp)
    c9bc:	ac 1b 6a 
    c9bf:	c7 85 f8 f2 ff ff 1f 	movl   $0x56131d1f,-0xd08(%rbp)
    c9c6:	1d 13 56 
    c9c9:	c7 85 fc f2 ff ff 55 	movl   $0x38f14955,-0xd04(%rbp)
    c9d0:	49 f1 38 
    c9d3:	c7 85 00 f3 ff ff 00 	movl   $0x0,-0xd00(%rbp)
    c9da:	00 00 00 
    c9dd:	c7 85 04 f3 ff ff 00 	movl   $0x0,-0xcfc(%rbp)
    c9e4:	00 00 00 
    c9e7:	c7 85 08 f3 ff ff cd 	movl   $0xf91b55cd,-0xcf8(%rbp)
    c9ee:	55 1b f9 
    c9f1:	c7 85 50 f5 ff ff 45 	movl   $0x941a5a45,-0xab0(%rbp)
    c9f8:	5a 1a 94 
    c9fb:	c7 85 54 f5 ff ff 45 	movl   $0x941a5a45,-0xaac(%rbp)
    ca02:	5a 1a 94 
    ca05:	c7 85 58 f5 ff ff 45 	movl   $0x941a5a45,-0xaa8(%rbp)
    ca0c:	5a 1a 94 
    ca0f:	c7 85 5c f5 ff ff 45 	movl   $0x941a5a45,-0xaa4(%rbp)
    ca16:	5a 1a 94 
    ca19:	c7 85 60 f5 ff ff 45 	movl   $0x941a5a45,-0xaa0(%rbp)
    ca20:	5a 1a 94 
    ca23:	c7 85 64 f5 ff ff 45 	movl   $0x941a5a45,-0xa9c(%rbp)
    ca2a:	5a 1a 94 
    ca2d:	c7 85 d0 f2 ff ff 99 	movl   $0xd9ff0a99,-0xd30(%rbp)
    ca34:	0a ff d9 
    ca37:	8b 1d 07 96 00 00    	mov    0x9607(%rip),%ebx        # 16044 <g_59+0x4>
    ca3d:	be 00 00 00 00       	mov    $0x0,%esi
    ca42:	bf 03 00 00 00       	mov    $0x3,%edi
    ca47:	e8 20 79 ff ff       	callq  436c <safe_rshift_func_int8_t_s_u>
    ca4c:	48 8b 85 90 f3 ff ff 	mov    -0xc70(%rbp),%rax
    ca53:	c7 00 00 00 00 00    	movl   $0x0,(%rax)
    ca59:	48 8b 85 90 f3 ff ff 	mov    -0xc70(%rbp),%rax
    ca60:	8b 00                	mov    (%rax),%eax
    ca62:	09 d8                	or     %ebx,%eax
    ca64:	85 c0                	test   %eax,%eax
    ca66:	74 46                	je     caae <func_55+0x1145>
    ca68:	48 8d 05 09 96 00 00 	lea    0x9609(%rip),%rax        # 16078 <g_197>
    ca6f:	48 89 85 00 f5 ff ff 	mov    %rax,-0xb00(%rbp)
    ca76:	48 8b 85 00 f5 ff ff 	mov    -0xb00(%rbp),%rax
    ca7d:	48 8b 95 20 f5 ff ff 	mov    -0xae0(%rbp),%rdx
    ca84:	48 89 10             	mov    %rdx,(%rax)
    ca87:	8b 95 28 f5 ff ff    	mov    -0xad8(%rbp),%edx
    ca8d:	89 50 08             	mov    %edx,0x8(%rax)
    ca90:	48 8d 85 b0 f7 ff ff 	lea    -0x850(%rbp),%rax
    ca97:	48 83 c0 5c          	add    $0x5c,%rax
    ca9b:	48 89 85 f8 f8 ff ff 	mov    %rax,-0x708(%rbp)
    caa2:	c6 85 84 f2 ff ff 00 	movb   $0x0,-0xd7c(%rbp)
    caa9:	e9 cf 02 00 00       	jmpq   cd7d <func_55+0x1414>
    caae:	8b 85 e8 f2 ff ff    	mov    -0xd18(%rbp),%eax
    cab4:	e9 50 0a 00 00       	jmpq   d509 <func_55+0x1ba0>
    cab9:	48 8d 05 30 96 00 00 	lea    0x9630(%rip),%rax        # 160f0 <g_293>
    cac0:	48 89 85 08 f5 ff ff 	mov    %rax,-0xaf8(%rbp)
    cac7:	c7 85 18 f3 ff ff 00 	movl   $0x0,-0xce8(%rbp)
    cace:	00 00 00 
    cad1:	c7 85 1c f3 ff ff 00 	movl   $0x0,-0xce4(%rbp)
    cad8:	00 00 00 
    cadb:	c7 85 20 f3 ff ff 00 	movl   $0x0,-0xce0(%rbp)
    cae2:	00 00 00 
    cae5:	c7 85 24 f3 ff ff c6 	movl   $0x488d58c6,-0xcdc(%rbp)
    caec:	58 8d 48 
    caef:	c7 85 28 f3 ff ff f6 	movl   $0xfffffff6,-0xcd8(%rbp)
    caf6:	ff ff ff 
    caf9:	c7 85 2c f3 ff ff da 	movl   $0x14590dda,-0xcd4(%rbp)
    cb00:	0d 59 14 
    cb03:	8b 85 74 f2 ff ff    	mov    -0xd8c(%rbp),%eax
    cb09:	c1 e0 0d             	shl    $0xd,%eax
    cb0c:	c1 f8 0d             	sar    $0xd,%eax
    cb0f:	0f b7 d8             	movzwl %ax,%ebx
    cb12:	8b 85 74 f2 ff ff    	mov    -0xd8c(%rbp),%eax
    cb18:	c1 e0 0d             	shl    $0xd,%eax
    cb1b:	c1 f8 0d             	sar    $0xd,%eax
    cb1e:	44 0f b6 e0          	movzbl %al,%r12d
    cb22:	8b 85 18 f3 ff ff    	mov    -0xce8(%rbp),%eax
    cb28:	44 0f be e8          	movsbl %al,%r13d
    cb2c:	0f b6 05 ed 95 00 00 	movzbl 0x95ed(%rip),%eax        # 16120 <g_534>
    cb33:	44 0f b6 f0          	movzbl %al,%r14d
    cb37:	48 8b 85 b0 f3 ff ff 	mov    -0xc50(%rbp),%rax
    cb3e:	8b 10                	mov    (%rax),%edx
    cb40:	48 8b 05 a1 aa 00 00 	mov    0xaaa1(%rip),%rax        # 175e8 <g_790>
    cb47:	48 85 c0             	test   %rax,%rax
    cb4a:	0f 95 c0             	setne  %al
    cb4d:	0f b6 f0             	movzbl %al,%esi
    cb50:	48 8b 85 38 f4 ff ff 	mov    -0xbc8(%rbp),%rax
    cb57:	8b 08                	mov    (%rax),%ecx
    cb59:	8b 85 74 f2 ff ff    	mov    -0xd8c(%rbp),%eax
    cb5f:	c1 e0 0d             	shl    $0xd,%eax
    cb62:	c1 f8 0d             	sar    $0xd,%eax
    cb65:	39 c1                	cmp    %eax,%ecx
    cb67:	0f 9c c1             	setl   %cl
    cb6a:	48 8b 05 2f a4 00 00 	mov    0xa42f(%rip),%rax        # 16fa0 <g_467>
    cb71:	0f b6 c9             	movzbl %cl,%ecx
    cb74:	66 89 08             	mov    %cx,(%rax)
    cb77:	0f b7 00             	movzwl (%rax),%eax
    cb7a:	98                   	cwtl   
    cb7b:	89 f1                	mov    %esi,%ecx
    cb7d:	21 c1                	and    %eax,%ecx
    cb7f:	48 8b 85 08 f5 ff ff 	mov    -0xaf8(%rbp),%rax
    cb86:	8b 00                	mov    (%rax),%eax
    cb88:	31 c1                	xor    %eax,%ecx
    cb8a:	48 8b 85 08 f5 ff ff 	mov    -0xaf8(%rbp),%rax
    cb91:	89 08                	mov    %ecx,(%rax)
    cb93:	48 8b 85 08 f5 ff ff 	mov    -0xaf8(%rbp),%rax
    cb9a:	8b 08                	mov    (%rax),%ecx
    cb9c:	48 8b 85 a8 f4 ff ff 	mov    -0xb58(%rbp),%rax
    cba3:	48 89 05 2e ba 00 00 	mov    %rax,0xba2e(%rip)        # 185d8 <g_796>
    cbaa:	48 8b 05 27 ba 00 00 	mov    0xba27(%rip),%rax        # 185d8 <g_796>
    cbb1:	48 39 85 70 f4 ff ff 	cmp    %rax,-0xb90(%rbp)
    cbb8:	0f 95 c0             	setne  %al
    cbbb:	0f b6 c0             	movzbl %al,%eax
    cbbe:	39 c1                	cmp    %eax,%ecx
    cbc0:	0f 96 c0             	setbe  %al
    cbc3:	0f b6 c0             	movzbl %al,%eax
    cbc6:	89 d6                	mov    %edx,%esi
    cbc8:	89 c7                	mov    %eax,%edi
    cbca:	e8 36 7a ff ff       	callq  4605 <safe_sub_func_int32_t_s_s>
    cbcf:	48 63 d0             	movslq %eax,%rdx
    cbd2:	48 8b 85 70 f3 ff ff 	mov    -0xc90(%rbp),%rax
    cbd9:	48 39 c2             	cmp    %rax,%rdx
    cbdc:	0f 9c c0             	setl   %al
    cbdf:	0f b6 c0             	movzbl %al,%eax
    cbe2:	44 89 f6             	mov    %r14d,%esi
    cbe5:	89 c7                	mov    %eax,%edi
    cbe7:	e8 e0 7a ff ff       	callq  46cc <safe_mod_func_int32_t_s_s>
    cbec:	8b 05 62 94 00 00    	mov    0x9462(%rip),%eax        # 16054 <g_59+0x14>
    cbf2:	83 f8 02             	cmp    $0x2,%eax
    cbf5:	7f 13                	jg     cc0a <func_55+0x12a1>
    cbf7:	0f b7 85 70 f2 ff ff 	movzwl -0xd90(%rbp),%eax
    cbfe:	66 85 c0             	test   %ax,%ax
    cc01:	74 07                	je     cc0a <func_55+0x12a1>
    cc03:	b8 01 00 00 00       	mov    $0x1,%eax
    cc08:	eb 05                	jmp    cc0f <func_55+0x12a6>
    cc0a:	b8 00 00 00 00       	mov    $0x0,%eax
    cc0f:	0f be c0             	movsbl %al,%eax
    cc12:	44 89 ee             	mov    %r13d,%esi
    cc15:	89 c7                	mov    %eax,%edi
    cc17:	e8 15 76 ff ff       	callq  4231 <safe_mod_func_int8_t_s_s>
    cc1c:	84 c0                	test   %al,%al
    cc1e:	75 0d                	jne    cc2d <func_55+0x12c4>
    cc20:	8b 85 74 f2 ff ff    	mov    -0xd8c(%rbp),%eax
    cc26:	25 ff ff 07 00       	and    $0x7ffff,%eax
    cc2b:	85 c0                	test   %eax,%eax
    cc2d:	0f b6 85 7a f2 ff ff 	movzbl -0xd86(%rbp),%eax
    cc34:	c1 e0 04             	shl    $0x4,%eax
    cc37:	89 c2                	mov    %eax,%edx
    cc39:	c0 fa 04             	sar    $0x4,%dl
    cc3c:	0f b6 85 2a f5 ff ff 	movzbl -0xad6(%rbp),%eax
    cc43:	c1 e0 04             	shl    $0x4,%eax
    cc46:	c0 f8 04             	sar    $0x4,%al
    cc49:	31 d0                	xor    %edx,%eax
    cc4b:	0f be c0             	movsbl %al,%eax
    cc4e:	83 e0 01             	and    $0x1,%eax
    cc51:	89 c1                	mov    %eax,%ecx
    cc53:	0f b6 85 72 f2 ff ff 	movzbl -0xd8e(%rbp),%eax
    cc5a:	c1 e0 03             	shl    $0x3,%eax
    cc5d:	c0 f8 03             	sar    $0x3,%al
    cc60:	89 c2                	mov    %eax,%edx
    cc62:	89 c8                	mov    %ecx,%eax
    cc64:	21 d0                	and    %edx,%eax
    cc66:	c1 e0 03             	shl    $0x3,%eax
    cc69:	c0 f8 03             	sar    $0x3,%al
    cc6c:	83 e0 1f             	and    $0x1f,%eax
    cc6f:	89 c2                	mov    %eax,%edx
    cc71:	0f b6 85 72 f2 ff ff 	movzbl -0xd8e(%rbp),%eax
    cc78:	83 e0 e0             	and    $0xffffffe0,%eax
    cc7b:	09 d0                	or     %edx,%eax
    cc7d:	88 85 72 f2 ff ff    	mov    %al,-0xd8e(%rbp)
    cc83:	0f b6 85 2a f5 ff ff 	movzbl -0xad6(%rbp),%eax
    cc8a:	c1 e0 04             	shl    $0x4,%eax
    cc8d:	c0 f8 04             	sar    $0x4,%al
    cc90:	0f be d0             	movsbl %al,%edx
    cc93:	8b 85 9c f2 ff ff    	mov    -0xd64(%rbp),%eax
    cc99:	39 c2                	cmp    %eax,%edx
    cc9b:	0f 9c c0             	setl   %al
    cc9e:	0f b6 c0             	movzbl %al,%eax
    cca1:	be 01 00 00 00       	mov    $0x1,%esi
    cca6:	89 c7                	mov    %eax,%edi
    cca8:	e8 58 79 ff ff       	callq  4605 <safe_sub_func_int32_t_s_s>
    ccad:	0f b6 d0             	movzbl %al,%edx
    ccb0:	0f b7 85 20 f5 ff ff 	movzwl -0xae0(%rbp),%eax
    ccb7:	0f b6 c0             	movzbl %al,%eax
    ccba:	89 d6                	mov    %edx,%esi
    ccbc:	89 c7                	mov    %eax,%edi
    ccbe:	e8 18 7f ff ff       	callq  4bdb <safe_div_func_uint8_t_u_u>
    ccc3:	0f b6 c0             	movzbl %al,%eax
    ccc6:	44 89 e6             	mov    %r12d,%esi
    ccc9:	89 c7                	mov    %eax,%edi
    cccb:	e8 8a 7e ff ff       	callq  4b5a <safe_add_func_uint8_t_u_u>
    ccd0:	48 8b 15 a9 a2 00 00 	mov    0xa2a9(%rip),%rdx        # 16f80 <g_18>
    ccd7:	48 8b 05 a2 a2 00 00 	mov    0xa2a2(%rip),%rax        # 16f80 <g_18>
    ccde:	0f b6 12             	movzbl (%rdx),%edx
    cce1:	88 10                	mov    %dl,(%rax)
    cce3:	0f b6 00             	movzbl (%rax),%eax
    cce6:	0f be c0             	movsbl %al,%eax
    cce9:	be 00 00 00 00       	mov    $0x0,%esi
    ccee:	89 c7                	mov    %eax,%edi
    ccf0:	e8 ac 75 ff ff       	callq  42a1 <safe_lshift_func_int8_t_s_s>
    ccf5:	66 98                	cbtw   
    ccf7:	0f b7 c0             	movzwl %ax,%eax
    ccfa:	89 de                	mov    %ebx,%esi
    ccfc:	89 c7                	mov    %eax,%edi
    ccfe:	e8 8b 80 ff ff       	callq  4d8e <safe_div_func_uint16_t_u_u>
    cd03:	0f b7 d0             	movzwl %ax,%edx
    cd06:	8b 85 30 f5 ff ff    	mov    -0xad0(%rbp),%eax
    cd0c:	39 c2                	cmp    %eax,%edx
    cd0e:	0f 9c c0             	setl   %al
    cd11:	0f b6 c0             	movzbl %al,%eax
    cd14:	be 6f 00 00 00       	mov    $0x6f,%esi
    cd19:	89 c7                	mov    %eax,%edi
    cd1b:	e8 f2 74 ff ff       	callq  4212 <safe_mul_func_int8_t_s_s>
    cd20:	0f b7 15 e9 93 00 00 	movzwl 0x93e9(%rip),%edx        # 16110 <g_517>
    cd27:	21 d0                	and    %edx,%eax
    cd29:	0f be c0             	movsbl %al,%eax
    cd2c:	be 02 00 00 00       	mov    $0x2,%esi
    cd31:	89 c7                	mov    %eax,%edi
    cd33:	e8 9c 74 ff ff       	callq  41d4 <safe_add_func_int8_t_s_s>
    cd38:	b9 bd b6 d2 42       	mov    $0x42d2b6bd,%ecx
    cd3d:	8b 85 24 f5 ff ff    	mov    -0xadc(%rbp),%eax
    cd43:	c1 e0 0d             	shl    $0xd,%eax
    cd46:	c1 f8 0d             	sar    $0xd,%eax
    cd49:	89 c2                	mov    %eax,%edx
    cd4b:	89 c8                	mov    %ecx,%eax
    cd4d:	21 d0                	and    %edx,%eax
    cd4f:	c1 e0 0d             	shl    $0xd,%eax
    cd52:	c1 f8 0d             	sar    $0xd,%eax
    cd55:	25 ff ff 07 00       	and    $0x7ffff,%eax
    cd5a:	89 c2                	mov    %eax,%edx
    cd5c:	8b 85 24 f5 ff ff    	mov    -0xadc(%rbp),%eax
    cd62:	25 00 00 f8 ff       	and    $0xfff80000,%eax
    cd67:	09 d0                	or     %edx,%eax
    cd69:	89 85 24 f5 ff ff    	mov    %eax,-0xadc(%rbp)
    cd6f:	83 ad b8 f2 ff ff 01 	subl   $0x1,-0xd48(%rbp)
    cd76:	80 85 84 f2 ff ff 01 	addb   $0x1,-0xd7c(%rbp)
    cd7d:	80 bd 84 f2 ff ff 33 	cmpb   $0x33,-0xd7c(%rbp)
    cd84:	0f 87 2f fd ff ff    	ja     cab9 <func_55+0x1150>
    cd8a:	c7 85 a0 f2 ff ff 00 	movl   $0x0,-0xd60(%rbp)
    cd91:	00 00 00 
    cd94:	e9 97 00 00 00       	jmpq   ce30 <func_55+0x14c7>
    cd99:	c7 45 c1 11 11 11 11 	movl   $0x11111111,-0x3f(%rbp)
    cda0:	66 c7 45 c5 11 11    	movw   $0x1111,-0x3b(%rbp)
    cda6:	c6 45 c7 11          	movb   $0x11,-0x39(%rbp)
    cdaa:	c7 85 0c f3 ff ff d2 	movl   $0x3eaddfd2,-0xcf4(%rbp)
    cdb1:	df ad 3e 
    cdb4:	c7 85 10 f3 ff ff d7 	movl   $0x47f49dd7,-0xcf0(%rbp)
    cdbb:	9d f4 47 
    cdbe:	c7 85 14 f3 ff ff 2c 	movl   $0x69d99c2c,-0xcec(%rbp)
    cdc5:	9c d9 69 
    cdc8:	c7 85 70 f5 ff ff f6 	movl   $0xfffffff6,-0xa90(%rbp)
    cdcf:	ff ff ff 
    cdd2:	c7 85 74 f5 ff ff f6 	movl   $0xfffffff6,-0xa8c(%rbp)
    cdd9:	ff ff ff 
    cddc:	c7 85 78 f5 ff ff 09 	movl   $0x9,-0xa88(%rbp)
    cde3:	00 00 00 
    cde6:	c7 85 7c f5 ff ff f6 	movl   $0xfffffff6,-0xa84(%rbp)
    cded:	ff ff ff 
    cdf0:	c7 85 80 f5 ff ff f6 	movl   $0xfffffff6,-0xa80(%rbp)
    cdf7:	ff ff ff 
    cdfa:	c7 85 84 f5 ff ff 09 	movl   $0x9,-0xa7c(%rbp)
    ce01:	00 00 00 
    ce04:	c7 85 88 f5 ff ff f6 	movl   $0xfffffff6,-0xa78(%rbp)
    ce0b:	ff ff ff 
    ce0e:	c7 85 8c f5 ff ff f6 	movl   $0xfffffff6,-0xa74(%rbp)
    ce15:	ff ff ff 
    ce18:	c7 85 90 f5 ff ff 09 	movl   $0x9,-0xa70(%rbp)
    ce1f:	00 00 00 
    ce22:	83 85 d0 f2 ff ff 01 	addl   $0x1,-0xd30(%rbp)
    ce29:	83 85 a0 f2 ff ff 01 	addl   $0x1,-0xd60(%rbp)
    ce30:	83 bd a0 f2 ff ff 36 	cmpl   $0x36,-0xd60(%rbp)
    ce37:	0f 86 5c ff ff ff    	jbe    cd99 <func_55+0x1430>
    ce3d:	e9 30 06 00 00       	jmpq   d472 <func_55+0x1b09>
    ce42:	66 c7 85 8c f2 ff ff 	movw   $0xfff6,-0xd74(%rbp)
    ce49:	f6 ff 
    ce4b:	48 8d 85 70 f3 ff ff 	lea    -0xc90(%rbp),%rax
    ce52:	48 89 85 c8 f4 ff ff 	mov    %rax,-0xb38(%rbp)
    ce59:	c7 85 d4 f2 ff ff 02 	movl   $0x2,-0xd2c(%rbp)
    ce60:	00 00 00 
    ce63:	c7 85 70 f5 ff ff 1a 	movl   $0xc28aa81a,-0xa90(%rbp)
    ce6a:	a8 8a c2 
    ce6d:	c7 85 74 f5 ff ff 1a 	movl   $0xc28aa81a,-0xa8c(%rbp)
    ce74:	a8 8a c2 
    ce77:	c7 85 78 f5 ff ff 1a 	movl   $0xc28aa81a,-0xa88(%rbp)
    ce7e:	a8 8a c2 
    ce81:	c7 85 7c f5 ff ff 1a 	movl   $0xc28aa81a,-0xa84(%rbp)
    ce88:	a8 8a c2 
    ce8b:	c7 85 ec f2 ff ff 93 	movl   $0x6f51f393,-0xd14(%rbp)
    ce92:	f3 51 6f 
    ce95:	48 8d 85 30 f5 ff ff 	lea    -0xad0(%rbp),%rax
    ce9c:	48 83 c0 04          	add    $0x4,%rax
    cea0:	48 89 85 b0 f4 ff ff 	mov    %rax,-0xb50(%rbp)
    cea7:	8b 05 77 92 00 00    	mov    0x9277(%rip),%eax        # 16124 <g_609>
    cead:	89 c2                	mov    %eax,%edx
    ceaf:	0f b6 85 72 f2 ff ff 	movzbl -0xd8e(%rbp),%eax
    ceb6:	c1 e0 03             	shl    $0x3,%eax
    ceb9:	c0 f8 03             	sar    $0x3,%al
    cebc:	48 0f be c0          	movsbq %al,%rax
    cec0:	48 89 d6             	mov    %rdx,%rsi
    cec3:	48 89 c7             	mov    %rax,%rdi
    cec6:	e8 2c 7b ff ff       	callq  49f7 <safe_div_func_int64_t_s_s>
    cecb:	0f b6 d0             	movzbl %al,%edx
    cece:	48 8b 85 b0 f4 ff ff 	mov    -0xb50(%rbp),%rax
    ced5:	8b 00                	mov    (%rax),%eax
    ced7:	0f b6 c0             	movzbl %al,%eax
    ceda:	89 d6                	mov    %edx,%esi
    cedc:	89 c7                	mov    %eax,%edi
    cede:	e8 b0 7c ff ff       	callq  4b93 <safe_mul_func_uint8_t_u_u>
    cee3:	8b 85 74 f2 ff ff    	mov    -0xd8c(%rbp),%eax
    cee9:	c1 e0 0d             	shl    $0xd,%eax
    ceec:	c1 f8 0d             	sar    $0xd,%eax
    ceef:	89 c3                	mov    %eax,%ebx
    cef1:	0f b7 85 70 f2 ff ff 	movzwl -0xd90(%rbp),%eax
    cef8:	0f b7 d0             	movzwl %ax,%edx
    cefb:	48 8b 85 a0 f3 ff ff 	mov    -0xc60(%rbp),%rax
    cf02:	8b 00                	mov    (%rax),%eax
    cf04:	48 98                	cltq   
    cf06:	48 89 d6             	mov    %rdx,%rsi
    cf09:	48 89 c7             	mov    %rax,%rdi
    cf0c:	e8 9e 81 ff ff       	callq  50af <safe_div_func_uint64_t_u_u>
    cf11:	0f b7 05 68 91 00 00 	movzwl 0x9168(%rip),%eax        # 16080 <g_197+0x8>
    cf18:	0f b7 c0             	movzwl %ax,%eax
    cf1b:	89 c6                	mov    %eax,%esi
    cf1d:	bf f5 58 00 00       	mov    $0x58f5,%edi
    cf22:	e8 df 7e ff ff       	callq  4e06 <safe_lshift_func_uint16_t_u_u>
    cf27:	48 8b 05 72 a0 00 00 	mov    0xa072(%rip),%rax        # 16fa0 <g_467>
    cf2e:	66 c7 00 76 fa       	movw   $0xfa76,(%rax)
    cf33:	0f b7 00             	movzwl (%rax),%eax
    cf36:	98                   	cwtl   
    cf37:	89 c6                	mov    %eax,%esi
    cf39:	bf ff ff ff ff       	mov    $0xffffffff,%edi
    cf3e:	e8 70 74 ff ff       	callq  43b3 <safe_add_func_int16_t_s_s>
    cf43:	98                   	cwtl   
    cf44:	89 de                	mov    %ebx,%esi
    cf46:	89 c7                	mov    %eax,%edi
    cf48:	e8 d8 7f ff ff       	callq  4f25 <safe_div_func_uint32_t_u_u>
    cf4d:	89 c6                	mov    %eax,%esi
    cf4f:	bf fa ff ff ff       	mov    $0xfffffffa,%edi
    cf54:	e8 77 7f ff ff       	callq  4ed0 <safe_sub_func_uint32_t_u_u>
    cf59:	48 be 71 99 c9 28 2c 	movabs $0xaca52d2c28c99971,%rsi
    cf60:	2d a5 ac 
    cf63:	48 c7 c7 fd ff ff ff 	mov    $0xfffffffffffffffd,%rdi
    cf6a:	e8 11 81 ff ff       	callq  5080 <safe_mod_func_uint64_t_u_u>
    cf6f:	89 c2                	mov    %eax,%edx
    cf71:	0f b7 85 78 f2 ff ff 	movzwl -0xd88(%rbp),%eax
    cf78:	09 d0                	or     %edx,%eax
    cf7a:	0f b7 c0             	movzwl %ax,%eax
    cf7d:	89 c7                	mov    %eax,%edi
    cf7f:	e8 65 7d ff ff       	callq  4ce9 <safe_unary_minus_func_uint16_t_u>
    cf84:	48 8d 85 10 f7 ff ff 	lea    -0x8f0(%rbp),%rax
    cf8b:	48 83 c0 30          	add    $0x30,%rax
    cf8f:	48 39 85 58 f4 ff ff 	cmp    %rax,-0xba8(%rbp)
    cf96:	0f 84 d8 00 00 00    	je     d074 <func_55+0x170b>
    cf9c:	66 c7 85 8e f2 ff ff 	movw   $0x58ad,-0xd72(%rbp)
    cfa3:	ad 58 
    cfa5:	0f b7 9d 8e f2 ff ff 	movzwl -0xd72(%rbp),%ebx
    cfac:	0f b7 05 cd 90 00 00 	movzwl 0x90cd(%rip),%eax        # 16080 <g_197+0x8>
    cfb3:	44 0f b7 e0          	movzwl %ax,%r12d
    cfb7:	48 8d 85 70 f6 ff ff 	lea    -0x990(%rbp),%rax
    cfbe:	48 83 c0 28          	add    $0x28,%rax
    cfc2:	48 39 85 78 f4 ff ff 	cmp    %rax,-0xb88(%rbp)
    cfc9:	74 4a                	je     d015 <func_55+0x16ac>
    cfcb:	0f b6 05 48 91 00 00 	movzbl 0x9148(%rip),%eax        # 1611a <g_517+0xa>
    cfd2:	c1 e0 04             	shl    $0x4,%eax
    cfd5:	c0 f8 04             	sar    $0x4,%al
    cfd8:	66 98                	cbtw   
    cfda:	66 89 05 2f ae 00 00 	mov    %ax,0xae2f(%rip)        # 17e10 <g_191>
    cfe1:	0f b7 05 28 ae 00 00 	movzwl 0xae28(%rip),%eax        # 17e10 <g_191>
    cfe8:	0f b7 d0             	movzwl %ax,%edx
    cfeb:	48 8b 05 ae 9f 00 00 	mov    0x9fae(%rip),%rax        # 16fa0 <g_467>
    cff2:	0f b7 00             	movzwl (%rax),%eax
    cff5:	98                   	cwtl   
    cff6:	09 c2                	or     %eax,%edx
    cff8:	8b 05 26 90 00 00    	mov    0x9026(%rip),%eax        # 16024 <g_6>
    cffe:	39 c2                	cmp    %eax,%edx
    d000:	0f 95 c0             	setne  %al
    d003:	0f b6 c0             	movzbl %al,%eax
    d006:	89 c6                	mov    %eax,%esi
    d008:	bf 5c 3e 00 00       	mov    $0x3e5c,%edi
    d00d:	e8 ac 7d ff ff       	callq  4dbe <safe_lshift_func_uint16_t_u_s>
    d012:	66 85 c0             	test   %ax,%ax
    d015:	0f b6 05 0c 90 00 00 	movzbl 0x900c(%rip),%eax        # 16028 <g_19>
    d01c:	0f be c0             	movsbl %al,%eax
    d01f:	44 89 e6             	mov    %r12d,%esi
    d022:	89 c7                	mov    %eax,%edi
    d024:	e8 a7 7e ff ff       	callq  4ed0 <safe_sub_func_uint32_t_u_u>
    d029:	0f be d0             	movsbl %al,%edx
    d02c:	8b 85 74 f2 ff ff    	mov    -0xd8c(%rbp),%eax
    d032:	c1 e0 0d             	shl    $0xd,%eax
    d035:	c1 f8 0d             	sar    $0xd,%eax
    d038:	0f be c0             	movsbl %al,%eax
    d03b:	89 d6                	mov    %edx,%esi
    d03d:	89 c7                	mov    %eax,%edi
    d03f:	e8 ed 71 ff ff       	callq  4231 <safe_mod_func_int8_t_s_s>
    d044:	0f b7 85 8c f2 ff ff 	movzwl -0xd74(%rbp),%eax
    d04b:	66 c1 e8 0f          	shr    $0xf,%ax
    d04f:	0f b6 c0             	movzbl %al,%eax
    d052:	89 de                	mov    %ebx,%esi
    d054:	89 c7                	mov    %eax,%edi
    d056:	e8 a4 76 ff ff       	callq  46ff <safe_div_func_int32_t_s_s>
    d05b:	48 8b 95 80 f3 ff ff 	mov    -0xc80(%rbp),%rdx
    d062:	8b 12                	mov    (%rdx),%edx
    d064:	09 c2                	or     %eax,%edx
    d066:	48 8b 85 80 f3 ff ff 	mov    -0xc80(%rbp),%rax
    d06d:	89 10                	mov    %edx,(%rax)
    d06f:	e9 35 02 00 00       	jmpq   d2a9 <func_55+0x1940>
    d074:	48 8d 05 a1 90 00 00 	lea    0x90a1(%rip),%rax        # 1611c <g_532>
    d07b:	48 89 85 d0 f4 ff ff 	mov    %rax,-0xb30(%rbp)
    d082:	48 8d 05 7f 90 00 00 	lea    0x907f(%rip),%rax        # 16108 <g_471>
    d089:	48 89 85 d8 f4 ff ff 	mov    %rax,-0xb28(%rbp)
    d090:	48 8d 05 09 90 00 00 	lea    0x9009(%rip),%rax        # 160a0 <g_281>
    d097:	48 89 85 e0 f4 ff ff 	mov    %rax,-0xb20(%rbp)
    d09e:	48 8d 05 83 8f 00 00 	lea    0x8f83(%rip),%rax        # 16028 <g_19>
    d0a5:	48 89 85 e8 f4 ff ff 	mov    %rax,-0xb18(%rbp)
    d0ac:	48 8d 85 60 f7 ff ff 	lea    -0x8a0(%rbp),%rax
    d0b3:	48 83 c0 30          	add    $0x30,%rax
    d0b7:	48 89 85 f0 f4 ff ff 	mov    %rax,-0xb10(%rbp)
    d0be:	48 8b 85 b0 f4 ff ff 	mov    -0xb50(%rbp),%rax
    d0c5:	8b 00                	mov    (%rax),%eax
    d0c7:	48 63 d0             	movslq %eax,%rdx
    d0ca:	0f b7 05 3f ad 00 00 	movzwl 0xad3f(%rip),%eax        # 17e10 <g_191>
    d0d1:	0f b7 c8             	movzwl %ax,%ecx
    d0d4:	48 8b 85 d8 f4 ff ff 	mov    -0xb28(%rbp),%rax
    d0db:	48 89 08             	mov    %rcx,(%rax)
    d0de:	48 8b 85 d8 f4 ff ff 	mov    -0xb28(%rbp),%rax
    d0e5:	48 8b 08             	mov    (%rax),%rcx
    d0e8:	48 8b 85 e0 f4 ff ff 	mov    -0xb20(%rbp),%rax
    d0ef:	48 89 08             	mov    %rcx,(%rax)
    d0f2:	48 8b 85 e0 f4 ff ff 	mov    -0xb20(%rbp),%rax
    d0f9:	48 8b 00             	mov    (%rax),%rax
    d0fc:	48 89 d6             	mov    %rdx,%rsi
    d0ff:	48 89 c7             	mov    %rax,%rdi
    d102:	e8 44 7f ff ff       	callq  504b <safe_sub_func_uint64_t_u_u>
    d107:	48 8b 85 80 f4 ff ff 	mov    -0xb80(%rbp),%rax
    d10e:	48 3b 85 e8 f4 ff ff 	cmp    -0xb18(%rbp),%rax
    d115:	0f 95 c0             	setne  %al
    d118:	0f b6 d0             	movzbl %al,%edx
    d11b:	48 8b 85 b0 f4 ff ff 	mov    -0xb50(%rbp),%rax
    d122:	8b 00                	mov    (%rax),%eax
    d124:	39 c2                	cmp    %eax,%edx
    d126:	7e 0d                	jle    d135 <func_55+0x17cc>
    d128:	48 8b 85 80 f3 ff ff 	mov    -0xc80(%rbp),%rax
    d12f:	c7 00 00 00 00 00    	movl   $0x0,(%rax)
    d135:	b8 00 00 00 00       	mov    $0x0,%eax
    d13a:	0f bf d0             	movswl %ax,%edx
    d13d:	48 83 bd d0 f4 ff ff 	cmpq   $0x0,-0xb30(%rbp)
    d144:	00 
    d145:	0f 95 c0             	setne  %al
    d148:	0f b6 c0             	movzbl %al,%eax
    d14b:	89 d6                	mov    %edx,%esi
    d14d:	89 c7                	mov    %eax,%edi
    d14f:	e8 a1 72 ff ff       	callq  43f5 <safe_mul_func_int16_t_s_s>
    d154:	89 c2                	mov    %eax,%edx
    d156:	0f b6 85 7a f2 ff ff 	movzbl -0xd86(%rbp),%eax
    d15d:	c1 e0 04             	shl    $0x4,%eax
    d160:	c0 f8 04             	sar    $0x4,%al
    d163:	89 c1                	mov    %eax,%ecx
    d165:	89 d0                	mov    %edx,%eax
    d167:	09 c8                	or     %ecx,%eax
    d169:	c1 e0 04             	shl    $0x4,%eax
    d16c:	c0 f8 04             	sar    $0x4,%al
    d16f:	83 e0 0f             	and    $0xf,%eax
    d172:	89 c2                	mov    %eax,%edx
    d174:	0f b6 85 7a f2 ff ff 	movzbl -0xd86(%rbp),%eax
    d17b:	83 e0 f0             	and    $0xfffffff0,%eax
    d17e:	09 d0                	or     %edx,%eax
    d180:	88 85 7a f2 ff ff    	mov    %al,-0xd86(%rbp)
    d186:	0f b6 85 7a f2 ff ff 	movzbl -0xd86(%rbp),%eax
    d18d:	c1 e0 04             	shl    $0x4,%eax
    d190:	c0 f8 04             	sar    $0x4,%al
    d193:	0f be c0             	movsbl %al,%eax
    d196:	39 85 a4 f2 ff ff    	cmp    %eax,-0xd5c(%rbp)
    d19c:	0f 92 c0             	setb   %al
    d19f:	0f b6 d0             	movzbl %al,%edx
    d1a2:	48 8b 05 f7 9d 00 00 	mov    0x9df7(%rip),%rax        # 16fa0 <g_467>
    d1a9:	0f b7 00             	movzwl (%rax),%eax
    d1ac:	98                   	cwtl   
    d1ad:	39 c2                	cmp    %eax,%edx
    d1af:	0f 9e c0             	setle  %al
    d1b2:	0f b6 d0             	movzbl %al,%edx
    d1b5:	0f b6 05 be 8e 00 00 	movzbl 0x8ebe(%rip),%eax        # 1607a <g_197+0x2>
    d1bc:	c1 e0 03             	shl    $0x3,%eax
    d1bf:	c0 f8 03             	sar    $0x3,%al
    d1c2:	0f be c0             	movsbl %al,%eax
    d1c5:	21 d0                	and    %edx,%eax
    d1c7:	c1 e0 0d             	shl    $0xd,%eax
    d1ca:	c1 f8 0d             	sar    $0xd,%eax
    d1cd:	25 ff ff 07 00       	and    $0x7ffff,%eax
    d1d2:	89 c2                	mov    %eax,%edx
    d1d4:	8b 85 74 f2 ff ff    	mov    -0xd8c(%rbp),%eax
    d1da:	25 00 00 f8 ff       	and    $0xfff80000,%eax
    d1df:	09 d0                	or     %edx,%eax
    d1e1:	89 85 74 f2 ff ff    	mov    %eax,-0xd8c(%rbp)
    d1e7:	48 8b 85 b0 f3 ff ff 	mov    -0xc50(%rbp),%rax
    d1ee:	8b 00                	mov    (%rax),%eax
    d1f0:	85 c0                	test   %eax,%eax
    d1f2:	0f 85 9d 02 00 00    	jne    d495 <func_55+0x1b2c>
    d1f8:	48 8b 05 09 8f 00 00 	mov    0x8f09(%rip),%rax        # 16108 <g_471>
    d1ff:	89 c2                	mov    %eax,%edx
    d201:	8b 85 d4 f2 ff ff    	mov    -0xd2c(%rbp),%eax
    d207:	21 d0                	and    %edx,%eax
    d209:	89 85 d4 f2 ff ff    	mov    %eax,-0xd2c(%rbp)
    d20f:	8b 9d d4 f2 ff ff    	mov    -0xd2c(%rbp),%ebx
    d215:	48 8b 05 ec 8e 00 00 	mov    0x8eec(%rip),%rax        # 16108 <g_471>
    d21c:	89 c2                	mov    %eax,%edx
    d21e:	48 8b 05 63 9d 00 00 	mov    0x9d63(%rip),%rax        # 16f88 <g_223>
    d225:	48 85 c0             	test   %rax,%rax
    d228:	0f 95 c0             	setne  %al
    d22b:	0f b6 c0             	movzbl %al,%eax
    d22e:	89 d6                	mov    %edx,%esi
    d230:	89 c7                	mov    %eax,%edi
    d232:	e8 ee 7c ff ff       	callq  4f25 <safe_div_func_uint32_t_u_u>
    d237:	39 c3                	cmp    %eax,%ebx
    d239:	0f 95 c0             	setne  %al
    d23c:	0f b6 d0             	movzbl %al,%edx
    d23f:	0f b7 85 78 f2 ff ff 	movzwl -0xd88(%rbp),%eax
    d246:	0f b7 c0             	movzwl %ax,%eax
    d249:	09 c2                	or     %eax,%edx
    d24b:	0f bf 85 8c f2 ff ff 	movswl -0xd74(%rbp),%eax
    d252:	09 d0                	or     %edx,%eax
    d254:	48 63 d8             	movslq %eax,%rbx
    d257:	8b 85 74 f2 ff ff    	mov    -0xd8c(%rbp),%eax
    d25d:	c1 e0 0d             	shl    $0xd,%eax
    d260:	c1 f8 0d             	sar    $0xd,%eax
    d263:	0f b6 c0             	movzbl %al,%eax
    d266:	be 00 00 00 00       	mov    $0x0,%esi
    d26b:	89 c7                	mov    %eax,%edi
    d26d:	e8 93 79 ff ff       	callq  4c05 <safe_lshift_func_uint8_t_u_s>
    d272:	84 c0                	test   %al,%al
    d274:	0f 95 c0             	setne  %al
    d277:	0f b6 c0             	movzbl %al,%eax
    d27a:	89 c6                	mov    %eax,%esi
    d27c:	bf 01 00 00 00       	mov    $0x1,%edi
    d281:	e8 4d 71 ff ff       	callq  43d3 <safe_sub_func_int16_t_s_s>
    d286:	48 0f bf c0          	movswq %ax,%rax
    d28a:	48 89 de             	mov    %rbx,%rsi
    d28d:	48 89 c7             	mov    %rax,%rdi
    d290:	e8 13 76 ff ff       	callq  48a8 <safe_sub_func_int64_t_s_s>
    d295:	48 8b 95 40 f4 ff ff 	mov    -0xbc0(%rbp),%rdx
    d29c:	8b 12                	mov    (%rdx),%edx
    d29e:	09 c2                	or     %eax,%edx
    d2a0:	48 8b 85 40 f4 ff ff 	mov    -0xbc0(%rbp),%rax
    d2a7:	89 10                	mov    %edx,(%rax)
    d2a9:	48 8b 85 50 f4 ff ff 	mov    -0xbb0(%rbp),%rax
    d2b0:	8b 10                	mov    (%rax),%edx
    d2b2:	0f b7 85 78 f2 ff ff 	movzwl -0xd88(%rbp),%eax
    d2b9:	0f b7 c0             	movzwl %ax,%eax
    d2bc:	21 c2                	and    %eax,%edx
    d2be:	48 8b 85 50 f4 ff ff 	mov    -0xbb0(%rbp),%rax
    d2c5:	89 10                	mov    %edx,(%rax)
    d2c7:	c7 85 a4 f2 ff ff 0c 	movl   $0xc,-0xd5c(%rbp)
    d2ce:	00 00 00 
    d2d1:	e9 8c 01 00 00       	jmpq   d462 <func_55+0x1af9>
    d2d6:	48 8d 85 60 f3 ff ff 	lea    -0xca0(%rbp),%rax
    d2dd:	48 89 85 f8 f4 ff ff 	mov    %rax,-0xb08(%rbp)
    d2e4:	c7 85 f0 f2 ff ff 00 	movl   $0x0,-0xd10(%rbp)
    d2eb:	00 00 00 
    d2ee:	c6 85 89 f2 ff ff 57 	movb   $0x57,-0xd77(%rbp)
    d2f5:	48 8b 85 f8 f4 ff ff 	mov    -0xb08(%rbp),%rax
    d2fc:	48 8b 95 c0 f4 ff ff 	mov    -0xb40(%rbp),%rdx
    d303:	48 89 10             	mov    %rdx,(%rax)
    d306:	0f b7 85 70 f2 ff ff 	movzwl -0xd90(%rbp),%eax
    d30d:	66 85 c0             	test   %ax,%ax
    d310:	0f 85 5b 01 00 00    	jne    d471 <func_55+0x1b08>
    d316:	0f b7 85 78 f2 ff ff 	movzwl -0xd88(%rbp),%eax
    d31d:	66 85 c0             	test   %ax,%ax
    d320:	0f b7 85 78 f2 ff ff 	movzwl -0xd88(%rbp),%eax
    d327:	0f b7 c0             	movzwl %ax,%eax
    d32a:	48 c7 c6 f9 ff ff ff 	mov    $0xfffffffffffffff9,%rsi
    d331:	48 89 c7             	mov    %rax,%rdi
    d334:	e8 76 7d ff ff       	callq  50af <safe_div_func_uint64_t_u_u>
    d339:	48 8b 95 68 f4 ff ff 	mov    -0xb98(%rbp),%rdx
    d340:	48 8d 0d b1 8d 00 00 	lea    0x8db1(%rip),%rcx        # 160f8 <g_300>
    d347:	48 89 0a             	mov    %rcx,(%rdx)
    d34a:	48 8b 95 68 f4 ff ff 	mov    -0xb98(%rbp),%rdx
    d351:	48 8b 12             	mov    (%rdx),%rdx
    d354:	48 89 15 15 a5 00 00 	mov    %rdx,0xa515(%rip)        # 17870 <g_890+0x30>
    d35b:	48 8b 0d 0e a5 00 00 	mov    0xa50e(%rip),%rcx        # 17870 <g_890+0x30>
    d362:	48 8d 95 58 f3 ff ff 	lea    -0xca8(%rbp),%rdx
    d369:	48 39 d1             	cmp    %rdx,%rcx
    d36c:	0f 95 c2             	setne  %dl
    d36f:	0f b6 d2             	movzbl %dl,%edx
    d372:	48 09 d0             	or     %rdx,%rax
    d375:	48 85 c0             	test   %rax,%rax
    d378:	0f 84 a5 00 00 00    	je     d423 <func_55+0x1aba>
    d37e:	8b 85 98 f2 ff ff    	mov    -0xd68(%rbp),%eax
    d384:	41 89 c4             	mov    %eax,%r12d
    d387:	0f b7 05 ea 8c 00 00 	movzwl 0x8cea(%rip),%eax        # 16078 <g_197>
    d38e:	0f bf d8             	movswl %ax,%ebx
    d391:	48 8b 85 b0 f4 ff ff 	mov    -0xb50(%rbp),%rax
    d398:	8b 00                	mov    (%rax),%eax
    d39a:	48 63 d0             	movslq %eax,%rdx
    d39d:	0f b6 85 72 f2 ff ff 	movzbl -0xd8e(%rbp),%eax
    d3a4:	c1 e0 03             	shl    $0x3,%eax
    d3a7:	c0 f8 03             	sar    $0x3,%al
    d3aa:	48 0f be c0          	movsbq %al,%rax
    d3ae:	48 89 d6             	mov    %rdx,%rsi
    d3b1:	48 89 c7             	mov    %rax,%rdi
    d3b4:	e8 f6 7c ff ff       	callq  50af <safe_div_func_uint64_t_u_u>
    d3b9:	98                   	cwtl   
    d3ba:	89 de                	mov    %ebx,%esi
    d3bc:	89 c7                	mov    %eax,%edi
    d3be:	e8 53 70 ff ff       	callq  4416 <safe_mod_func_int16_t_s_s>
    d3c3:	0f bf d0             	movswl %ax,%edx
    d3c6:	0f b7 85 78 f2 ff ff 	movzwl -0xd88(%rbp),%eax
    d3cd:	98                   	cwtl   
    d3ce:	89 d6                	mov    %edx,%esi
    d3d0:	89 c7                	mov    %eax,%edi
    d3d2:	e8 7e 70 ff ff       	callq  4455 <safe_div_func_int16_t_s_s>
    d3d7:	66 85 c0             	test   %ax,%ax
    d3da:	74 0c                	je     d3e8 <func_55+0x1a7f>
    d3dc:	0f b6 85 7a f2 ff ff 	movzbl -0xd86(%rbp),%eax
    d3e3:	83 e0 0f             	and    $0xf,%eax
    d3e6:	84 c0                	test   %al,%al
    d3e8:	48 8b 85 60 f4 ff ff 	mov    -0xba0(%rbp),%rax
    d3ef:	48 83 e8 01          	sub    $0x1,%rax
    d3f3:	48 89 85 60 f4 ff ff 	mov    %rax,-0xba0(%rbp)
    d3fa:	83 bd ec f2 ff ff 00 	cmpl   $0x0,-0xd14(%rbp)
    d401:	74 08                	je     d40b <func_55+0x1aa2>
    d403:	8b 05 af b1 00 00    	mov    0xb1af(%rip),%eax        # 185b8 <g_361>
    d409:	85 c0                	test   %eax,%eax
    d40b:	0f be 85 89 f2 ff ff 	movsbl -0xd77(%rbp),%eax
    d412:	44 89 e6             	mov    %r12d,%esi
    d415:	89 c7                	mov    %eax,%edi
    d417:	e8 d2 6e ff ff       	callq  42ee <safe_lshift_func_int8_t_s_u>
    d41c:	83 bd d4 f2 ff ff 00 	cmpl   $0x0,-0xd2c(%rbp)
    d423:	48 8b 85 f0 f3 ff ff 	mov    -0xc10(%rbp),%rax
    d42a:	8b 10                	mov    (%rax),%edx
    d42c:	48 8b 85 30 f4 ff ff 	mov    -0xbd0(%rbp),%rax
    d433:	89 10                	mov    %edx,(%rax)
    d435:	48 8b 85 30 f4 ff ff 	mov    -0xbd0(%rbp),%rax
    d43c:	8b 00                	mov    (%rax),%eax
    d43e:	09 85 f0 f2 ff ff    	or     %eax,-0xd10(%rbp)
    d444:	8b 85 a4 f2 ff ff    	mov    -0xd5c(%rbp),%eax
    d44a:	0f b6 c0             	movzbl %al,%eax
    d44d:	be 01 00 00 00       	mov    $0x1,%esi
    d452:	89 c7                	mov    %eax,%edi
    d454:	e8 01 77 ff ff       	callq  4b5a <safe_add_func_uint8_t_u_u>
    d459:	0f b6 c0             	movzbl %al,%eax
    d45c:	89 85 a4 f2 ff ff    	mov    %eax,-0xd5c(%rbp)
    d462:	83 bd a4 f2 ff ff 2b 	cmpl   $0x2b,-0xd5c(%rbp)
    d469:	0f 87 67 fe ff ff    	ja     d2d6 <func_55+0x196d>
    d46f:	eb 01                	jmp    d472 <func_55+0x1b09>
    d471:	90                   	nop
    d472:	be 03 00 00 00       	mov    $0x3,%esi
    d477:	bf 01 00 00 00       	mov    $0x1,%edi
    d47c:	e8 0d 79 ff ff       	callq  4d8e <safe_div_func_uint16_t_u_u>
    d481:	48 8b 85 70 f4 ff ff 	mov    -0xb90(%rbp),%rax
    d488:	48 8b 10             	mov    (%rax),%rdx
    d48b:	48 8b 85 a8 f4 ff ff 	mov    -0xb58(%rbp),%rax
    d492:	48 89 10             	mov    %rdx,(%rax)
    d495:	0f b6 05 84 8c 00 00 	movzbl 0x8c84(%rip),%eax        # 16120 <g_534>
    d49c:	83 c0 01             	add    $0x1,%eax
    d49f:	88 05 7b 8c 00 00    	mov    %al,0x8c7b(%rip)        # 16120 <g_534>
    d4a5:	0f b6 05 74 8c 00 00 	movzbl 0x8c74(%rip),%eax        # 16120 <g_534>
    d4ac:	3c 25                	cmp    $0x25,%al
    d4ae:	0f 85 d4 f0 ff ff    	jne    c588 <func_55+0xc1f>
    d4b4:	48 8d 85 30 f5 ff ff 	lea    -0xad0(%rbp),%rax
    d4bb:	48 83 c0 0c          	add    $0xc,%rax
    d4bf:	48 89 85 88 f4 ff ff 	mov    %rax,-0xb78(%rbp)
    d4c6:	48 8b 85 88 f4 ff ff 	mov    -0xb78(%rbp),%rax
    d4cd:	48 89 85 90 f4 ff ff 	mov    %rax,-0xb70(%rbp)
    d4d4:	0f b7 85 78 f2 ff ff 	movzwl -0xd88(%rbp),%eax
    d4db:	98                   	cwtl   
    d4dc:	be 07 00 00 00       	mov    $0x7,%esi
    d4e1:	89 c7                	mov    %eax,%edi
    d4e3:	e8 cb 6e ff ff       	callq  43b3 <safe_add_func_int16_t_s_s>
    d4e8:	66 89 85 78 f2 ff ff 	mov    %ax,-0xd88(%rbp)
    d4ef:	0f b7 85 78 f2 ff ff 	movzwl -0xd88(%rbp),%eax
    d4f6:	66 83 f8 14          	cmp    $0x14,%ax
    d4fa:	0f 85 9d e7 ff ff    	jne    bc9d <func_55+0x334>
    d500:	48 8b 85 00 f4 ff ff 	mov    -0xc00(%rbp),%rax
    d507:	8b 00                	mov    (%rax),%eax
    d509:	48 8b 5d c8          	mov    -0x38(%rbp),%rbx
    d50d:	64 48 33 1c 25 28 00 	xor    %fs:0x28,%rbx
    d514:	00 00 
    d516:	74 05                	je     d51d <func_55+0x1bb4>
    d518:	e8 53 6b ff ff       	callq  4070 <__stack_chk_fail@plt>
    d51d:	48 81 c4 98 0d 00 00 	add    $0xd98,%rsp
    d524:	5b                   	pop    %rbx
    d525:	41 5c                	pop    %r12
    d527:	41 5d                	pop    %r13
    d529:	41 5e                	pop    %r14
    d52b:	41 5f                	pop    %r15
    d52d:	5d                   	pop    %rbp
    d52e:	c3                   	retq   

000000000000d52f <func_98>:
    d52f:	f3 0f 1e fa          	endbr64 
    d533:	55                   	push   %rbp
    d534:	48 89 e5             	mov    %rsp,%rbp
    d537:	41 57                	push   %r15
    d539:	41 56                	push   %r14
    d53b:	41 55                	push   %r13
    d53d:	41 54                	push   %r12
    d53f:	53                   	push   %rbx
    d540:	48 81 ec 28 0e 00 00 	sub    $0xe28,%rsp
    d547:	89 f9                	mov    %edi,%ecx
    d549:	89 f0                	mov    %esi,%eax
    d54b:	48 89 95 c0 f1 ff ff 	mov    %rdx,-0xe40(%rbp)
    d552:	89 ca                	mov    %ecx,%edx
    d554:	66 89 95 cc f1 ff ff 	mov    %dx,-0xe34(%rbp)
    d55b:	66 89 85 c8 f1 ff ff 	mov    %ax,-0xe38(%rbp)
    d562:	64 48 8b 04 25 28 00 	mov    %fs:0x28,%rax
    d569:	00 00 
    d56b:	48 89 45 c8          	mov    %rax,-0x38(%rbp)
    d56f:	31 c0                	xor    %eax,%eax
    d571:	66 c7 85 a4 f2 ff ff 	movw   $0x94,-0xd5c(%rbp)
    d578:	94 00 
    d57a:	0f b6 85 a6 f2 ff ff 	movzbl -0xd5a(%rbp),%eax
    d581:	83 e0 e0             	and    $0xffffffe0,%eax
    d584:	83 c8 01             	or     $0x1,%eax
    d587:	88 85 a6 f2 ff ff    	mov    %al,-0xd5a(%rbp)
    d58d:	8b 85 a8 f2 ff ff    	mov    -0xd58(%rbp),%eax
    d593:	25 00 00 f8 ff       	and    $0xfff80000,%eax
    d598:	0d b8 ff 07 00       	or     $0x7ffb8,%eax
    d59d:	89 85 a8 f2 ff ff    	mov    %eax,-0xd58(%rbp)
    d5a3:	66 c7 85 ac f2 ff ff 	movw   $0x7,-0xd54(%rbp)
    d5aa:	07 00 
    d5ac:	0f b6 85 ae f2 ff ff 	movzbl -0xd52(%rbp),%eax
    d5b3:	83 e0 f0             	and    $0xfffffff0,%eax
    d5b6:	83 c8 0e             	or     $0xe,%eax
    d5b9:	88 85 ae f2 ff ff    	mov    %al,-0xd52(%rbp)
    d5bf:	48 8d 05 aa 8a 00 00 	lea    0x8aaa(%rip),%rax        # 16070 <g_194>
    d5c6:	48 89 85 e8 f1 ff ff 	mov    %rax,-0xe18(%rbp)
    d5cd:	48 8d 85 e8 f1 ff ff 	lea    -0xe18(%rbp),%rax
    d5d4:	48 89 85 f0 f1 ff ff 	mov    %rax,-0xe10(%rbp)
    d5db:	48 8d 85 f0 f1 ff ff 	lea    -0xe10(%rbp),%rax
    d5e2:	48 89 85 f8 f1 ff ff 	mov    %rax,-0xe08(%rbp)
    d5e9:	48 8d 85 f8 f1 ff ff 	lea    -0xe08(%rbp),%rax
    d5f0:	48 89 85 00 f2 ff ff 	mov    %rax,-0xe00(%rbp)
    d5f7:	48 8d 85 00 f2 ff ff 	lea    -0xe00(%rbp),%rax
    d5fe:	48 89 85 10 f2 ff ff 	mov    %rax,-0xdf0(%rbp)
    d605:	48 c7 85 18 f2 ff ff 	movq   $0x0,-0xde8(%rbp)
    d60c:	00 00 00 00 
    d610:	48 8d 85 50 f4 ff ff 	lea    -0xbb0(%rbp),%rax
    d617:	48 8d 15 e2 51 00 00 	lea    0x51e2(%rip),%rdx        # 12800 <g_1085+0x7a8>
    d61e:	b9 7e 00 00 00       	mov    $0x7e,%ecx
    d623:	48 89 c7             	mov    %rax,%rdi
    d626:	48 89 d6             	mov    %rdx,%rsi
    d629:	f3 48 a5             	rep movsq %ds:(%rsi),%es:(%rdi)
    d62c:	48 8d 85 50 f4 ff ff 	lea    -0xbb0(%rbp),%rax
    d633:	48 05 6c 03 00 00    	add    $0x36c,%rax
    d639:	48 89 85 20 f2 ff ff 	mov    %rax,-0xde0(%rbp)
    d640:	48 8d 85 50 f4 ff ff 	lea    -0xbb0(%rbp),%rax
    d647:	48 05 b8 02 00 00    	add    $0x2b8,%rax
    d64d:	48 89 85 28 f2 ff ff 	mov    %rax,-0xdd8(%rbp)
    d654:	48 c7 85 30 f2 ff ff 	movq   $0x0,-0xdd0(%rbp)
    d65b:	00 00 00 00 
    d65f:	48 8d 05 b6 8a 00 00 	lea    0x8ab6(%rip),%rax        # 1611c <g_532>
    d666:	48 89 85 38 f2 ff ff 	mov    %rax,-0xdc8(%rbp)
    d66d:	48 8d 05 a8 8a 00 00 	lea    0x8aa8(%rip),%rax        # 1611c <g_532>
    d674:	48 89 85 40 f2 ff ff 	mov    %rax,-0xdc0(%rbp)
    d67b:	48 8d 05 d2 89 00 00 	lea    0x89d2(%rip),%rax        # 16054 <g_59+0x14>
    d682:	48 89 85 48 f2 ff ff 	mov    %rax,-0xdb8(%rbp)
    d689:	48 8d 05 d4 89 00 00 	lea    0x89d4(%rip),%rax        # 16064 <g_59+0x24>
    d690:	48 89 85 50 f2 ff ff 	mov    %rax,-0xdb0(%rbp)
    d697:	48 8d 05 7e 8a 00 00 	lea    0x8a7e(%rip),%rax        # 1611c <g_532>
    d69e:	48 89 85 40 f8 ff ff 	mov    %rax,-0x7c0(%rbp)
    d6a5:	48 8d 85 50 f4 ff ff 	lea    -0xbb0(%rbp),%rax
    d6ac:	48 05 b8 02 00 00    	add    $0x2b8,%rax
    d6b2:	48 89 85 48 f8 ff ff 	mov    %rax,-0x7b8(%rbp)
    d6b9:	48 8d 05 5c 8a 00 00 	lea    0x8a5c(%rip),%rax        # 1611c <g_532>
    d6c0:	48 89 85 50 f8 ff ff 	mov    %rax,-0x7b0(%rbp)
    d6c7:	48 8d 05 4e 8a 00 00 	lea    0x8a4e(%rip),%rax        # 1611c <g_532>
    d6ce:	48 89 85 58 f8 ff ff 	mov    %rax,-0x7a8(%rbp)
    d6d5:	48 c7 85 60 f8 ff ff 	movq   $0x0,-0x7a0(%rbp)
    d6dc:	00 00 00 00 
    d6e0:	48 8d 05 35 8a 00 00 	lea    0x8a35(%rip),%rax        # 1611c <g_532>
    d6e7:	48 89 85 68 f8 ff ff 	mov    %rax,-0x798(%rbp)
    d6ee:	48 8d 05 63 89 00 00 	lea    0x8963(%rip),%rax        # 16058 <g_59+0x18>
    d6f5:	48 89 85 70 f8 ff ff 	mov    %rax,-0x790(%rbp)
    d6fc:	48 c7 85 78 f8 ff ff 	movq   $0x0,-0x788(%rbp)
    d703:	00 00 00 00 
    d707:	48 c7 85 80 f8 ff ff 	movq   $0x0,-0x780(%rbp)
    d70e:	00 00 00 00 
    d712:	48 8d 05 3f 89 00 00 	lea    0x893f(%rip),%rax        # 16058 <g_59+0x18>
    d719:	48 89 85 88 f8 ff ff 	mov    %rax,-0x778(%rbp)
    d720:	48 8d 05 35 89 00 00 	lea    0x8935(%rip),%rax        # 1605c <g_59+0x1c>
    d727:	48 89 85 90 f8 ff ff 	mov    %rax,-0x770(%rbp)
    d72e:	48 c7 85 98 f8 ff ff 	movq   $0x0,-0x768(%rbp)
    d735:	00 00 00 00 
    d739:	48 8d 85 50 f4 ff ff 	lea    -0xbb0(%rbp),%rax
    d740:	48 05 b8 02 00 00    	add    $0x2b8,%rax
    d746:	48 89 85 a0 f8 ff ff 	mov    %rax,-0x760(%rbp)
    d74d:	48 8d 05 0c 89 00 00 	lea    0x890c(%rip),%rax        # 16060 <g_59+0x20>
    d754:	48 89 85 a8 f8 ff ff 	mov    %rax,-0x758(%rbp)
    d75b:	48 8d 05 ba 89 00 00 	lea    0x89ba(%rip),%rax        # 1611c <g_532>
    d762:	48 89 85 b0 f8 ff ff 	mov    %rax,-0x750(%rbp)
    d769:	48 8d 05 f4 88 00 00 	lea    0x88f4(%rip),%rax        # 16064 <g_59+0x24>
    d770:	48 89 85 b8 f8 ff ff 	mov    %rax,-0x748(%rbp)
    d777:	48 8d 05 d6 88 00 00 	lea    0x88d6(%rip),%rax        # 16054 <g_59+0x14>
    d77e:	48 89 85 c0 f8 ff ff 	mov    %rax,-0x740(%rbp)
    d785:	48 8d 85 50 f4 ff ff 	lea    -0xbb0(%rbp),%rax
    d78c:	48 05 b8 02 00 00    	add    $0x2b8,%rax
    d792:	48 89 85 c8 f8 ff ff 	mov    %rax,-0x738(%rbp)
    d799:	48 8d 05 7c 89 00 00 	lea    0x897c(%rip),%rax        # 1611c <g_532>
    d7a0:	48 89 85 d0 f8 ff ff 	mov    %rax,-0x730(%rbp)
    d7a7:	48 8d 85 50 f4 ff ff 	lea    -0xbb0(%rbp),%rax
    d7ae:	48 05 30 02 00 00    	add    $0x230,%rax
    d7b4:	48 89 85 d8 f8 ff ff 	mov    %rax,-0x728(%rbp)
    d7bb:	48 8d 05 9e 88 00 00 	lea    0x889e(%rip),%rax        # 16060 <g_59+0x20>
    d7c2:	48 89 85 e0 f8 ff ff 	mov    %rax,-0x720(%rbp)
    d7c9:	48 c7 85 e8 f8 ff ff 	movq   $0x0,-0x718(%rbp)
    d7d0:	00 00 00 00 
    d7d4:	48 8d 05 41 89 00 00 	lea    0x8941(%rip),%rax        # 1611c <g_532>
    d7db:	48 89 85 f0 f8 ff ff 	mov    %rax,-0x710(%rbp)
    d7e2:	48 8d 85 50 f4 ff ff 	lea    -0xbb0(%rbp),%rax
    d7e9:	48 05 b8 02 00 00    	add    $0x2b8,%rax
    d7ef:	48 89 85 f8 f8 ff ff 	mov    %rax,-0x708(%rbp)
    d7f6:	48 8d 85 50 f4 ff ff 	lea    -0xbb0(%rbp),%rax
    d7fd:	48 05 b8 02 00 00    	add    $0x2b8,%rax
    d803:	48 89 85 00 f9 ff ff 	mov    %rax,-0x700(%rbp)
    d80a:	48 8d 05 53 88 00 00 	lea    0x8853(%rip),%rax        # 16064 <g_59+0x24>
    d811:	48 89 85 08 f9 ff ff 	mov    %rax,-0x6f8(%rbp)
    d818:	48 c7 85 10 f9 ff ff 	movq   $0x0,-0x6f0(%rbp)
    d81f:	00 00 00 00 
    d823:	48 8d 05 46 88 00 00 	lea    0x8846(%rip),%rax        # 16070 <g_194>
    d82a:	48 89 85 18 f9 ff ff 	mov    %rax,-0x6e8(%rbp)
    d831:	48 c7 85 20 f9 ff ff 	movq   $0x0,-0x6e0(%rbp)
    d838:	00 00 00 00 
    d83c:	48 8d 05 1d 88 00 00 	lea    0x881d(%rip),%rax        # 16060 <g_59+0x20>
    d843:	48 89 85 28 f9 ff ff 	mov    %rax,-0x6d8(%rbp)
    d84a:	48 8d 05 0b 88 00 00 	lea    0x880b(%rip),%rax        # 1605c <g_59+0x1c>
    d851:	48 89 85 30 f9 ff ff 	mov    %rax,-0x6d0(%rbp)
    d858:	48 8d 05 11 88 00 00 	lea    0x8811(%rip),%rax        # 16070 <g_194>
    d85f:	48 89 85 38 f9 ff ff 	mov    %rax,-0x6c8(%rbp)
    d866:	48 8d 05 f7 87 00 00 	lea    0x87f7(%rip),%rax        # 16064 <g_59+0x24>
    d86d:	48 89 85 40 f9 ff ff 	mov    %rax,-0x6c0(%rbp)
    d874:	48 8d 05 c9 87 00 00 	lea    0x87c9(%rip),%rax        # 16044 <g_59+0x4>
    d87b:	48 89 85 48 f9 ff ff 	mov    %rax,-0x6b8(%rbp)
    d882:	48 8d 05 93 88 00 00 	lea    0x8893(%rip),%rax        # 1611c <g_532>
    d889:	48 89 85 50 f9 ff ff 	mov    %rax,-0x6b0(%rbp)
    d890:	48 8d 05 85 88 00 00 	lea    0x8885(%rip),%rax        # 1611c <g_532>
    d897:	48 89 85 58 f9 ff ff 	mov    %rax,-0x6a8(%rbp)
    d89e:	48 8d 05 b7 87 00 00 	lea    0x87b7(%rip),%rax        # 1605c <g_59+0x1c>
    d8a5:	48 89 85 60 f9 ff ff 	mov    %rax,-0x6a0(%rbp)
    d8ac:	48 8d 85 50 f4 ff ff 	lea    -0xbb0(%rbp),%rax
    d8b3:	48 05 30 02 00 00    	add    $0x230,%rax
    d8b9:	48 89 85 68 f9 ff ff 	mov    %rax,-0x698(%rbp)
    d8c0:	48 8d 05 55 88 00 00 	lea    0x8855(%rip),%rax        # 1611c <g_532>
    d8c7:	48 89 85 70 f9 ff ff 	mov    %rax,-0x690(%rbp)
    d8ce:	48 c7 85 78 f9 ff ff 	movq   $0x0,-0x688(%rbp)
    d8d5:	00 00 00 00 
    d8d9:	48 8d 05 3c 88 00 00 	lea    0x883c(%rip),%rax        # 1611c <g_532>
    d8e0:	48 89 85 80 f9 ff ff 	mov    %rax,-0x680(%rbp)
    d8e7:	48 8d 85 50 f4 ff ff 	lea    -0xbb0(%rbp),%rax
    d8ee:	48 05 b8 02 00 00    	add    $0x2b8,%rax
    d8f4:	48 89 85 88 f9 ff ff 	mov    %rax,-0x678(%rbp)
    d8fb:	48 8d 05 1a 88 00 00 	lea    0x881a(%rip),%rax        # 1611c <g_532>
    d902:	48 89 85 90 f9 ff ff 	mov    %rax,-0x670(%rbp)
    d909:	48 c7 85 98 f9 ff ff 	movq   $0x0,-0x668(%rbp)
    d910:	00 00 00 00 
    d914:	48 8d 05 39 87 00 00 	lea    0x8739(%rip),%rax        # 16054 <g_59+0x14>
    d91b:	48 89 85 a0 f9 ff ff 	mov    %rax,-0x660(%rbp)
    d922:	48 c7 85 a8 f9 ff ff 	movq   $0x0,-0x658(%rbp)
    d929:	00 00 00 00 
    d92d:	48 8d 05 e8 87 00 00 	lea    0x87e8(%rip),%rax        # 1611c <g_532>
    d934:	48 89 85 b0 f9 ff ff 	mov    %rax,-0x650(%rbp)
    d93b:	48 8d 85 50 f4 ff ff 	lea    -0xbb0(%rbp),%rax
    d942:	48 05 b8 02 00 00    	add    $0x2b8,%rax
    d948:	48 89 85 b8 f9 ff ff 	mov    %rax,-0x648(%rbp)
    d94f:	48 8d 05 c6 87 00 00 	lea    0x87c6(%rip),%rax        # 1611c <g_532>
    d956:	48 89 85 c0 f9 ff ff 	mov    %rax,-0x640(%rbp)
    d95d:	48 c7 85 c8 f9 ff ff 	movq   $0x0,-0x638(%rbp)
    d964:	00 00 00 00 
    d968:	48 c7 85 d0 f9 ff ff 	movq   $0x0,-0x630(%rbp)
    d96f:	00 00 00 00 
    d973:	48 8d 85 50 f4 ff ff 	lea    -0xbb0(%rbp),%rax
    d97a:	48 05 30 02 00 00    	add    $0x230,%rax
    d980:	48 89 85 d8 f9 ff ff 	mov    %rax,-0x628(%rbp)
    d987:	48 8d 85 50 f4 ff ff 	lea    -0xbb0(%rbp),%rax
    d98e:	48 05 b8 02 00 00    	add    $0x2b8,%rax
    d994:	48 89 85 e0 f9 ff ff 	mov    %rax,-0x620(%rbp)
    d99b:	48 8d 05 b2 86 00 00 	lea    0x86b2(%rip),%rax        # 16054 <g_59+0x14>
    d9a2:	48 89 85 e8 f9 ff ff 	mov    %rax,-0x618(%rbp)
    d9a9:	48 8d 05 a4 86 00 00 	lea    0x86a4(%rip),%rax        # 16054 <g_59+0x14>
    d9b0:	48 89 85 f0 f9 ff ff 	mov    %rax,-0x610(%rbp)
    d9b7:	48 8d 85 50 f4 ff ff 	lea    -0xbb0(%rbp),%rax
    d9be:	48 05 b8 02 00 00    	add    $0x2b8,%rax
    d9c4:	48 89 85 f8 f9 ff ff 	mov    %rax,-0x608(%rbp)
    d9cb:	48 8d 05 4a 87 00 00 	lea    0x874a(%rip),%rax        # 1611c <g_532>
    d9d2:	48 89 85 00 fa ff ff 	mov    %rax,-0x600(%rbp)
    d9d9:	48 8d 05 74 86 00 00 	lea    0x8674(%rip),%rax        # 16054 <g_59+0x14>
    d9e0:	48 89 85 08 fa ff ff 	mov    %rax,-0x5f8(%rbp)
    d9e7:	48 8d 05 2e 87 00 00 	lea    0x872e(%rip),%rax        # 1611c <g_532>
    d9ee:	48 89 85 10 fa ff ff 	mov    %rax,-0x5f0(%rbp)
    d9f5:	48 c7 85 18 fa ff ff 	movq   $0x0,-0x5e8(%rbp)
    d9fc:	00 00 00 00 
    da00:	48 c7 85 20 fa ff ff 	movq   $0x0,-0x5e0(%rbp)
    da07:	00 00 00 00 
    da0b:	48 c7 85 28 fa ff ff 	movq   $0x0,-0x5d8(%rbp)
    da12:	00 00 00 00 
    da16:	48 8d 05 ff 86 00 00 	lea    0x86ff(%rip),%rax        # 1611c <g_532>
    da1d:	48 89 85 30 fa ff ff 	mov    %rax,-0x5d0(%rbp)
    da24:	48 8d 85 50 f4 ff ff 	lea    -0xbb0(%rbp),%rax
    da2b:	48 05 30 02 00 00    	add    $0x230,%rax
    da31:	48 89 85 38 fa ff ff 	mov    %rax,-0x5c8(%rbp)
    da38:	48 8d 05 31 86 00 00 	lea    0x8631(%rip),%rax        # 16070 <g_194>
    da3f:	48 89 85 40 fa ff ff 	mov    %rax,-0x5c0(%rbp)
    da46:	48 8d 05 cf 86 00 00 	lea    0x86cf(%rip),%rax        # 1611c <g_532>
    da4d:	48 89 85 48 fa ff ff 	mov    %rax,-0x5b8(%rbp)
    da54:	48 8d 05 c1 86 00 00 	lea    0x86c1(%rip),%rax        # 1611c <g_532>
    da5b:	48 89 85 50 fa ff ff 	mov    %rax,-0x5b0(%rbp)
    da62:	48 8d 85 50 f4 ff ff 	lea    -0xbb0(%rbp),%rax
    da69:	48 05 b8 02 00 00    	add    $0x2b8,%rax
    da6f:	48 89 85 58 fa ff ff 	mov    %rax,-0x5a8(%rbp)
    da76:	48 8d 05 9f 86 00 00 	lea    0x869f(%rip),%rax        # 1611c <g_532>
    da7d:	48 89 85 60 fa ff ff 	mov    %rax,-0x5a0(%rbp)
    da84:	48 8d 05 91 86 00 00 	lea    0x8691(%rip),%rax        # 1611c <g_532>
    da8b:	48 89 85 68 fa ff ff 	mov    %rax,-0x598(%rbp)
    da92:	48 8d 05 bb 85 00 00 	lea    0x85bb(%rip),%rax        # 16054 <g_59+0x14>
    da99:	48 89 85 70 fa ff ff 	mov    %rax,-0x590(%rbp)
    daa0:	48 8d 05 c9 85 00 00 	lea    0x85c9(%rip),%rax        # 16070 <g_194>
    daa7:	48 89 85 78 fa ff ff 	mov    %rax,-0x588(%rbp)
    daae:	48 8d 85 50 f4 ff ff 	lea    -0xbb0(%rbp),%rax
    dab5:	48 05 dc 03 00 00    	add    $0x3dc,%rax
    dabb:	48 89 85 80 fa ff ff 	mov    %rax,-0x580(%rbp)
    dac2:	48 8d 05 8b 85 00 00 	lea    0x858b(%rip),%rax        # 16054 <g_59+0x14>
    dac9:	48 89 85 88 fa ff ff 	mov    %rax,-0x578(%rbp)
    dad0:	48 8d 05 8d 85 00 00 	lea    0x858d(%rip),%rax        # 16064 <g_59+0x24>
    dad7:	48 89 85 90 fa ff ff 	mov    %rax,-0x570(%rbp)
    dade:	48 8d 05 8b 85 00 00 	lea    0x858b(%rip),%rax        # 16070 <g_194>
    dae5:	48 89 85 98 fa ff ff 	mov    %rax,-0x568(%rbp)
    daec:	48 8d 85 50 f4 ff ff 	lea    -0xbb0(%rbp),%rax
    daf3:	48 05 30 02 00 00    	add    $0x230,%rax
    daf9:	48 89 85 a0 fa ff ff 	mov    %rax,-0x560(%rbp)
    db00:	48 8d 05 15 86 00 00 	lea    0x8615(%rip),%rax        # 1611c <g_532>
    db07:	48 89 85 a8 fa ff ff 	mov    %rax,-0x558(%rbp)
    db0e:	48 8d 85 50 f4 ff ff 	lea    -0xbb0(%rbp),%rax
    db15:	48 05 b8 02 00 00    	add    $0x2b8,%rax
    db1b:	48 89 85 b0 fa ff ff 	mov    %rax,-0x550(%rbp)
    db22:	48 8d 05 f3 85 00 00 	lea    0x85f3(%rip),%rax        # 1611c <g_532>
    db29:	48 89 85 b8 fa ff ff 	mov    %rax,-0x548(%rbp)
    db30:	48 8d 05 39 85 00 00 	lea    0x8539(%rip),%rax        # 16070 <g_194>
    db37:	48 89 85 c0 fa ff ff 	mov    %rax,-0x540(%rbp)
    db3e:	48 c7 85 c8 fa ff ff 	movq   $0x0,-0x538(%rbp)
    db45:	00 00 00 00 
    db49:	48 8d 05 f4 84 00 00 	lea    0x84f4(%rip),%rax        # 16044 <g_59+0x4>
    db50:	48 89 85 d0 fa ff ff 	mov    %rax,-0x530(%rbp)
    db57:	48 8d 05 12 85 00 00 	lea    0x8512(%rip),%rax        # 16070 <g_194>
    db5e:	48 89 85 d8 fa ff ff 	mov    %rax,-0x528(%rbp)
    db65:	48 8d 05 f8 84 00 00 	lea    0x84f8(%rip),%rax        # 16064 <g_59+0x24>
    db6c:	48 89 85 e0 fa ff ff 	mov    %rax,-0x520(%rbp)
    db73:	48 c7 85 e8 fa ff ff 	movq   $0x0,-0x518(%rbp)
    db7a:	00 00 00 00 
    db7e:	48 8d 85 50 f4 ff ff 	lea    -0xbb0(%rbp),%rax
    db85:	48 05 b8 02 00 00    	add    $0x2b8,%rax
    db8b:	48 89 85 f0 fa ff ff 	mov    %rax,-0x510(%rbp)
    db92:	48 c7 85 f8 fa ff ff 	movq   $0x0,-0x508(%rbp)
    db99:	00 00 00 00 
    db9d:	48 8d 05 b4 84 00 00 	lea    0x84b4(%rip),%rax        # 16058 <g_59+0x18>
    dba4:	48 89 85 00 fb ff ff 	mov    %rax,-0x500(%rbp)
    dbab:	48 8d 05 6a 85 00 00 	lea    0x856a(%rip),%rax        # 1611c <g_532>
    dbb2:	48 89 85 08 fb ff ff 	mov    %rax,-0x4f8(%rbp)
    dbb9:	48 8d 05 a4 84 00 00 	lea    0x84a4(%rip),%rax        # 16064 <g_59+0x24>
    dbc0:	48 89 85 10 fb ff ff 	mov    %rax,-0x4f0(%rbp)
    dbc7:	48 8d 05 a2 84 00 00 	lea    0x84a2(%rip),%rax        # 16070 <g_194>
    dbce:	48 89 85 18 fb ff ff 	mov    %rax,-0x4e8(%rbp)
    dbd5:	48 c7 85 20 fb ff ff 	movq   $0x0,-0x4e0(%rbp)
    dbdc:	00 00 00 00 
    dbe0:	48 8d 05 6d 84 00 00 	lea    0x846d(%rip),%rax        # 16054 <g_59+0x14>
    dbe7:	48 89 85 28 fb ff ff 	mov    %rax,-0x4d8(%rbp)
    dbee:	48 8d 05 7b 84 00 00 	lea    0x847b(%rip),%rax        # 16070 <g_194>
    dbf5:	48 89 85 30 fb ff ff 	mov    %rax,-0x4d0(%rbp)
    dbfc:	48 8d 85 50 f4 ff ff 	lea    -0xbb0(%rbp),%rax
    dc03:	48 05 b8 02 00 00    	add    $0x2b8,%rax
    dc09:	48 89 85 38 fb ff ff 	mov    %rax,-0x4c8(%rbp)
    dc10:	48 8d 05 3d 84 00 00 	lea    0x843d(%rip),%rax        # 16054 <g_59+0x14>
    dc17:	48 89 85 40 fb ff ff 	mov    %rax,-0x4c0(%rbp)
    dc1e:	48 c7 85 48 fb ff ff 	movq   $0x0,-0x4b8(%rbp)
    dc25:	00 00 00 00 
    dc29:	48 8d 05 34 84 00 00 	lea    0x8434(%rip),%rax        # 16064 <g_59+0x24>
    dc30:	48 89 85 50 fb ff ff 	mov    %rax,-0x4b0(%rbp)
    dc37:	48 c7 85 58 fb ff ff 	movq   $0x0,-0x4a8(%rbp)
    dc3e:	00 00 00 00 
    dc42:	48 c7 85 60 fb ff ff 	movq   $0x0,-0x4a0(%rbp)
    dc49:	00 00 00 00 
    dc4d:	48 8d 05 08 84 00 00 	lea    0x8408(%rip),%rax        # 1605c <g_59+0x1c>
    dc54:	48 89 85 68 fb ff ff 	mov    %rax,-0x498(%rbp)
    dc5b:	48 c7 85 70 fb ff ff 	movq   $0x0,-0x490(%rbp)
    dc62:	00 00 00 00 
    dc66:	48 8d 05 af 84 00 00 	lea    0x84af(%rip),%rax        # 1611c <g_532>
    dc6d:	48 89 85 78 fb ff ff 	mov    %rax,-0x488(%rbp)
    dc74:	48 8d 05 a1 84 00 00 	lea    0x84a1(%rip),%rax        # 1611c <g_532>
    dc7b:	48 89 85 80 fb ff ff 	mov    %rax,-0x480(%rbp)
    dc82:	48 c7 85 88 fb ff ff 	movq   $0x0,-0x478(%rbp)
    dc89:	00 00 00 00 
    dc8d:	48 c7 85 90 fb ff ff 	movq   $0x0,-0x470(%rbp)
    dc94:	00 00 00 00 
    dc98:	48 8d 05 a1 83 00 00 	lea    0x83a1(%rip),%rax        # 16040 <g_59>
    dc9f:	48 89 85 98 fb ff ff 	mov    %rax,-0x468(%rbp)
    dca6:	48 c7 85 a0 fb ff ff 	movq   $0x0,-0x460(%rbp)
    dcad:	00 00 00 00 
    dcb1:	48 8d 05 9c 83 00 00 	lea    0x839c(%rip),%rax        # 16054 <g_59+0x14>
    dcb8:	48 89 85 a8 fb ff ff 	mov    %rax,-0x458(%rbp)
    dcbf:	48 8d 05 9e 83 00 00 	lea    0x839e(%rip),%rax        # 16064 <g_59+0x24>
    dcc6:	48 89 85 b0 fb ff ff 	mov    %rax,-0x450(%rbp)
    dccd:	48 c7 85 b8 fb ff ff 	movq   $0x0,-0x448(%rbp)
    dcd4:	00 00 00 00 
    dcd8:	48 8d 05 3d 84 00 00 	lea    0x843d(%rip),%rax        # 1611c <g_532>
    dcdf:	48 89 85 c0 fb ff ff 	mov    %rax,-0x440(%rbp)
    dce6:	48 8d 85 50 f4 ff ff 	lea    -0xbb0(%rbp),%rax
    dced:	48 05 b8 02 00 00    	add    $0x2b8,%rax
    dcf3:	48 89 85 c8 fb ff ff 	mov    %rax,-0x438(%rbp)
    dcfa:	48 8d 05 43 83 00 00 	lea    0x8343(%rip),%rax        # 16044 <g_59+0x4>
    dd01:	48 89 85 d0 fb ff ff 	mov    %rax,-0x430(%rbp)
    dd08:	48 8d 85 50 f4 ff ff 	lea    -0xbb0(%rbp),%rax
    dd0f:	48 05 b8 02 00 00    	add    $0x2b8,%rax
    dd15:	48 89 85 d8 fb ff ff 	mov    %rax,-0x428(%rbp)
    dd1c:	48 8d 05 39 83 00 00 	lea    0x8339(%rip),%rax        # 1605c <g_59+0x1c>
    dd23:	48 89 85 e0 fb ff ff 	mov    %rax,-0x420(%rbp)
    dd2a:	48 8d 05 eb 83 00 00 	lea    0x83eb(%rip),%rax        # 1611c <g_532>
    dd31:	48 89 85 e8 fb ff ff 	mov    %rax,-0x418(%rbp)
    dd38:	48 8d 05 15 83 00 00 	lea    0x8315(%rip),%rax        # 16054 <g_59+0x14>
    dd3f:	48 89 85 f0 fb ff ff 	mov    %rax,-0x410(%rbp)
    dd46:	48 c7 85 f8 fb ff ff 	movq   $0x0,-0x408(%rbp)
    dd4d:	00 00 00 00 
    dd51:	48 8d 05 fc 82 00 00 	lea    0x82fc(%rip),%rax        # 16054 <g_59+0x14>
    dd58:	48 89 85 00 fc ff ff 	mov    %rax,-0x400(%rbp)
    dd5f:	48 8d 05 ee 82 00 00 	lea    0x82ee(%rip),%rax        # 16054 <g_59+0x14>
    dd66:	48 89 85 08 fc ff ff 	mov    %rax,-0x3f8(%rbp)
    dd6d:	48 8d 05 e0 82 00 00 	lea    0x82e0(%rip),%rax        # 16054 <g_59+0x14>
    dd74:	48 89 85 10 fc ff ff 	mov    %rax,-0x3f0(%rbp)
    dd7b:	48 8d 05 9a 83 00 00 	lea    0x839a(%rip),%rax        # 1611c <g_532>
    dd82:	48 89 85 18 fc ff ff 	mov    %rax,-0x3e8(%rbp)
    dd89:	48 8d 05 c4 82 00 00 	lea    0x82c4(%rip),%rax        # 16054 <g_59+0x14>
    dd90:	48 89 85 20 fc ff ff 	mov    %rax,-0x3e0(%rbp)
    dd97:	48 8d 05 c2 82 00 00 	lea    0x82c2(%rip),%rax        # 16060 <g_59+0x20>
    dd9e:	48 89 85 28 fc ff ff 	mov    %rax,-0x3d8(%rbp)
    dda5:	48 8d 05 c4 82 00 00 	lea    0x82c4(%rip),%rax        # 16070 <g_194>
    ddac:	48 89 85 30 fc ff ff 	mov    %rax,-0x3d0(%rbp)
    ddb3:	48 8d 05 b6 82 00 00 	lea    0x82b6(%rip),%rax        # 16070 <g_194>
    ddba:	48 89 85 38 fc ff ff 	mov    %rax,-0x3c8(%rbp)
    ddc1:	48 8d 05 98 82 00 00 	lea    0x8298(%rip),%rax        # 16060 <g_59+0x20>
    ddc8:	48 89 85 40 fc ff ff 	mov    %rax,-0x3c0(%rbp)
    ddcf:	48 c7 85 48 fc ff ff 	movq   $0x0,-0x3b8(%rbp)
    ddd6:	00 00 00 00 
    ddda:	48 8d 05 73 82 00 00 	lea    0x8273(%rip),%rax        # 16054 <g_59+0x14>
    dde1:	48 89 85 50 fc ff ff 	mov    %rax,-0x3b0(%rbp)
    dde8:	48 8d 85 50 f4 ff ff 	lea    -0xbb0(%rbp),%rax
    ddef:	48 05 b8 02 00 00    	add    $0x2b8,%rax
    ddf5:	48 89 85 58 fc ff ff 	mov    %rax,-0x3a8(%rbp)
    ddfc:	48 8d 85 50 f4 ff ff 	lea    -0xbb0(%rbp),%rax
    de03:	48 05 b8 02 00 00    	add    $0x2b8,%rax
    de09:	48 89 85 60 fc ff ff 	mov    %rax,-0x3a0(%rbp)
    de10:	48 c7 85 68 fc ff ff 	movq   $0x0,-0x398(%rbp)
    de17:	00 00 00 00 
    de1b:	48 8d 05 22 82 00 00 	lea    0x8222(%rip),%rax        # 16044 <g_59+0x4>
    de22:	48 89 85 70 fc ff ff 	mov    %rax,-0x390(%rbp)
    de29:	48 8d 85 50 f4 ff ff 	lea    -0xbb0(%rbp),%rax
    de30:	48 05 84 00 00 00    	add    $0x84,%rax
    de36:	48 89 85 78 fc ff ff 	mov    %rax,-0x388(%rbp)
    de3d:	48 c7 85 80 fc ff ff 	movq   $0x0,-0x380(%rbp)
    de44:	00 00 00 00 
    de48:	48 8d 85 50 f4 ff ff 	lea    -0xbb0(%rbp),%rax
    de4f:	48 05 b8 02 00 00    	add    $0x2b8,%rax
    de55:	48 89 85 88 fc ff ff 	mov    %rax,-0x378(%rbp)
    de5c:	48 8d 85 50 f4 ff ff 	lea    -0xbb0(%rbp),%rax
    de63:	48 05 08 03 00 00    	add    $0x308,%rax
    de69:	48 89 85 90 fc ff ff 	mov    %rax,-0x370(%rbp)
    de70:	48 8d 05 a5 82 00 00 	lea    0x82a5(%rip),%rax        # 1611c <g_532>
    de77:	48 89 85 98 fc ff ff 	mov    %rax,-0x368(%rbp)
    de7e:	48 8d 05 cf 81 00 00 	lea    0x81cf(%rip),%rax        # 16054 <g_59+0x14>
    de85:	48 89 85 a0 fc ff ff 	mov    %rax,-0x360(%rbp)
    de8c:	48 8d 85 50 f4 ff ff 	lea    -0xbb0(%rbp),%rax
    de93:	48 05 30 02 00 00    	add    $0x230,%rax
    de99:	48 89 85 a8 fc ff ff 	mov    %rax,-0x358(%rbp)
    dea0:	48 8d 05 c9 81 00 00 	lea    0x81c9(%rip),%rax        # 16070 <g_194>
    dea7:	48 89 85 b0 fc ff ff 	mov    %rax,-0x350(%rbp)
    deae:	48 c7 85 b8 fc ff ff 	movq   $0x0,-0x348(%rbp)
    deb5:	00 00 00 00 
    deb9:	48 c7 85 c0 fc ff ff 	movq   $0x0,-0x340(%rbp)
    dec0:	00 00 00 00 
    dec4:	48 c7 85 c8 fc ff ff 	movq   $0x0,-0x338(%rbp)
    decb:	00 00 00 00 
    decf:	48 8d 05 9a 81 00 00 	lea    0x819a(%rip),%rax        # 16070 <g_194>
    ded6:	48 89 85 d0 fc ff ff 	mov    %rax,-0x330(%rbp)
    dedd:	48 c7 85 d8 fc ff ff 	movq   $0x0,-0x328(%rbp)
    dee4:	00 00 00 00 
    dee8:	48 8d 05 71 81 00 00 	lea    0x8171(%rip),%rax        # 16060 <g_59+0x20>
    deef:	48 89 85 e0 fc ff ff 	mov    %rax,-0x320(%rbp)
    def6:	48 8d 05 1f 82 00 00 	lea    0x821f(%rip),%rax        # 1611c <g_532>
    defd:	48 89 85 e8 fc ff ff 	mov    %rax,-0x318(%rbp)
    df04:	48 8d 05 65 81 00 00 	lea    0x8165(%rip),%rax        # 16070 <g_194>
    df0b:	48 89 85 f0 fc ff ff 	mov    %rax,-0x310(%rbp)
    df12:	48 8d 05 03 82 00 00 	lea    0x8203(%rip),%rax        # 1611c <g_532>
    df19:	48 89 85 f8 fc ff ff 	mov    %rax,-0x308(%rbp)
    df20:	48 8d 05 2d 81 00 00 	lea    0x812d(%rip),%rax        # 16054 <g_59+0x14>
    df27:	48 89 85 00 fd ff ff 	mov    %rax,-0x300(%rbp)
    df2e:	48 8d 05 e7 81 00 00 	lea    0x81e7(%rip),%rax        # 1611c <g_532>
    df35:	48 89 85 08 fd ff ff 	mov    %rax,-0x2f8(%rbp)
    df3c:	48 8d 85 50 f4 ff ff 	lea    -0xbb0(%rbp),%rax
    df43:	48 05 b8 02 00 00    	add    $0x2b8,%rax
    df49:	48 89 85 10 fd ff ff 	mov    %rax,-0x2f0(%rbp)
    df50:	48 8d 05 ed 80 00 00 	lea    0x80ed(%rip),%rax        # 16044 <g_59+0x4>
    df57:	48 89 85 18 fd ff ff 	mov    %rax,-0x2e8(%rbp)
    df5e:	48 c7 85 20 fd ff ff 	movq   $0x0,-0x2e0(%rbp)
    df65:	00 00 00 00 
    df69:	48 8d 05 f0 80 00 00 	lea    0x80f0(%rip),%rax        # 16060 <g_59+0x20>
    df70:	48 89 85 28 fd ff ff 	mov    %rax,-0x2d8(%rbp)
    df77:	48 8d 05 d6 80 00 00 	lea    0x80d6(%rip),%rax        # 16054 <g_59+0x14>
    df7e:	48 89 85 30 fd ff ff 	mov    %rax,-0x2d0(%rbp)
    df85:	48 8d 05 90 81 00 00 	lea    0x8190(%rip),%rax        # 1611c <g_532>
    df8c:	48 89 85 38 fd ff ff 	mov    %rax,-0x2c8(%rbp)
    df93:	48 8d 05 82 81 00 00 	lea    0x8182(%rip),%rax        # 1611c <g_532>
    df9a:	48 89 85 40 fd ff ff 	mov    %rax,-0x2c0(%rbp)
    dfa1:	48 8d 05 74 81 00 00 	lea    0x8174(%rip),%rax        # 1611c <g_532>
    dfa8:	48 89 85 48 fd ff ff 	mov    %rax,-0x2b8(%rbp)
    dfaf:	48 8d 85 50 f4 ff ff 	lea    -0xbb0(%rbp),%rax
    dfb6:	48 05 30 02 00 00    	add    $0x230,%rax
    dfbc:	48 89 85 50 fd ff ff 	mov    %rax,-0x2b0(%rbp)
    dfc3:	48 8d 85 50 f4 ff ff 	lea    -0xbb0(%rbp),%rax
    dfca:	48 05 b8 02 00 00    	add    $0x2b8,%rax
    dfd0:	48 89 85 58 fd ff ff 	mov    %rax,-0x2a8(%rbp)
    dfd7:	48 8d 05 76 80 00 00 	lea    0x8076(%rip),%rax        # 16054 <g_59+0x14>
    dfde:	48 89 85 60 fd ff ff 	mov    %rax,-0x2a0(%rbp)
    dfe5:	48 8d 85 50 f4 ff ff 	lea    -0xbb0(%rbp),%rax
    dfec:	48 05 b8 02 00 00    	add    $0x2b8,%rax
    dff2:	48 89 85 68 fd ff ff 	mov    %rax,-0x298(%rbp)
    dff9:	48 8d 05 1c 81 00 00 	lea    0x811c(%rip),%rax        # 1611c <g_532>
    e000:	48 89 85 70 fd ff ff 	mov    %rax,-0x290(%rbp)
    e007:	48 c7 85 78 fd ff ff 	movq   $0x0,-0x288(%rbp)
    e00e:	00 00 00 00 
    e012:	48 c7 85 80 fd ff ff 	movq   $0x0,-0x280(%rbp)
    e019:	00 00 00 00 
    e01d:	48 8d 05 4c 80 00 00 	lea    0x804c(%rip),%rax        # 16070 <g_194>
    e024:	48 89 85 88 fd ff ff 	mov    %rax,-0x278(%rbp)
    e02b:	48 8d 85 50 f4 ff ff 	lea    -0xbb0(%rbp),%rax
    e032:	48 05 b8 02 00 00    	add    $0x2b8,%rax
    e038:	48 89 85 90 fd ff ff 	mov    %rax,-0x270(%rbp)
    e03f:	48 8d 05 d6 80 00 00 	lea    0x80d6(%rip),%rax        # 1611c <g_532>
    e046:	48 89 85 98 fd ff ff 	mov    %rax,-0x268(%rbp)
    e04d:	48 8d 85 50 f4 ff ff 	lea    -0xbb0(%rbp),%rax
    e054:	48 05 b8 02 00 00    	add    $0x2b8,%rax
    e05a:	48 89 85 a0 fd ff ff 	mov    %rax,-0x260(%rbp)
    e061:	48 8d 05 b4 80 00 00 	lea    0x80b4(%rip),%rax        # 1611c <g_532>
    e068:	48 89 85 a8 fd ff ff 	mov    %rax,-0x258(%rbp)
    e06f:	48 c7 85 b0 fd ff ff 	movq   $0x0,-0x250(%rbp)
    e076:	00 00 00 00 
    e07a:	48 8d 05 9b 80 00 00 	lea    0x809b(%rip),%rax        # 1611c <g_532>
    e081:	48 89 85 b8 fd ff ff 	mov    %rax,-0x248(%rbp)
    e088:	48 c7 85 c0 fd ff ff 	movq   $0x0,-0x240(%rbp)
    e08f:	00 00 00 00 
    e093:	48 8d 05 82 80 00 00 	lea    0x8082(%rip),%rax        # 1611c <g_532>
    e09a:	48 89 85 c8 fd ff ff 	mov    %rax,-0x238(%rbp)
    e0a1:	48 8d 05 bc 7f 00 00 	lea    0x7fbc(%rip),%rax        # 16064 <g_59+0x24>
    e0a8:	48 89 85 d0 fd ff ff 	mov    %rax,-0x230(%rbp)
    e0af:	48 c7 85 d8 fd ff ff 	movq   $0x0,-0x228(%rbp)
    e0b6:	00 00 00 00 
    e0ba:	48 8d 05 83 7f 00 00 	lea    0x7f83(%rip),%rax        # 16044 <g_59+0x4>
    e0c1:	48 89 85 e0 fd ff ff 	mov    %rax,-0x220(%rbp)
    e0c8:	48 8d 85 50 f4 ff ff 	lea    -0xbb0(%rbp),%rax
    e0cf:	48 05 b8 02 00 00    	add    $0x2b8,%rax
    e0d5:	48 89 85 e8 fd ff ff 	mov    %rax,-0x218(%rbp)
    e0dc:	48 8d 05 79 7f 00 00 	lea    0x7f79(%rip),%rax        # 1605c <g_59+0x1c>
    e0e3:	48 89 85 f0 fd ff ff 	mov    %rax,-0x210(%rbp)
    e0ea:	48 8d 05 63 7f 00 00 	lea    0x7f63(%rip),%rax        # 16054 <g_59+0x14>
    e0f1:	48 89 85 f8 fd ff ff 	mov    %rax,-0x208(%rbp)
    e0f8:	48 8d 05 55 7f 00 00 	lea    0x7f55(%rip),%rax        # 16054 <g_59+0x14>
    e0ff:	48 89 85 00 fe ff ff 	mov    %rax,-0x200(%rbp)
    e106:	48 8d 05 63 7f 00 00 	lea    0x7f63(%rip),%rax        # 16070 <g_194>
    e10d:	48 89 85 08 fe ff ff 	mov    %rax,-0x1f8(%rbp)
    e114:	48 c7 85 10 fe ff ff 	movq   $0x0,-0x1f0(%rbp)
    e11b:	00 00 00 00 
    e11f:	48 8d 05 4a 7f 00 00 	lea    0x7f4a(%rip),%rax        # 16070 <g_194>
    e126:	48 89 85 18 fe ff ff 	mov    %rax,-0x1e8(%rbp)
    e12d:	48 8d 05 24 7f 00 00 	lea    0x7f24(%rip),%rax        # 16058 <g_59+0x18>
    e134:	48 89 85 20 fe ff ff 	mov    %rax,-0x1e0(%rbp)
    e13b:	48 c7 85 28 fe ff ff 	movq   $0x0,-0x1d8(%rbp)
    e142:	00 00 00 00 
    e146:	48 c7 85 30 fe ff ff 	movq   $0x0,-0x1d0(%rbp)
    e14d:	00 00 00 00 
    e151:	48 8d 85 50 f4 ff ff 	lea    -0xbb0(%rbp),%rax
    e158:	48 05 b8 02 00 00    	add    $0x2b8,%rax
    e15e:	48 89 85 38 fe ff ff 	mov    %rax,-0x1c8(%rbp)
    e165:	48 8d 85 50 f4 ff ff 	lea    -0xbb0(%rbp),%rax
    e16c:	48 05 08 03 00 00    	add    $0x308,%rax
    e172:	48 89 85 40 fe ff ff 	mov    %rax,-0x1c0(%rbp)
    e179:	48 8d 05 f0 7e 00 00 	lea    0x7ef0(%rip),%rax        # 16070 <g_194>
    e180:	48 89 85 48 fe ff ff 	mov    %rax,-0x1b8(%rbp)
    e187:	48 8d 05 c6 7e 00 00 	lea    0x7ec6(%rip),%rax        # 16054 <g_59+0x14>
    e18e:	48 89 85 50 fe ff ff 	mov    %rax,-0x1b0(%rbp)
    e195:	48 8d 05 b8 7e 00 00 	lea    0x7eb8(%rip),%rax        # 16054 <g_59+0x14>
    e19c:	48 89 85 58 fe ff ff 	mov    %rax,-0x1a8(%rbp)
    e1a3:	48 8d 05 aa 7e 00 00 	lea    0x7eaa(%rip),%rax        # 16054 <g_59+0x14>
    e1aa:	48 89 85 60 fe ff ff 	mov    %rax,-0x1a0(%rbp)
    e1b1:	48 c7 85 68 fe ff ff 	movq   $0x0,-0x198(%rbp)
    e1b8:	00 00 00 00 
    e1bc:	48 8d 85 50 f4 ff ff 	lea    -0xbb0(%rbp),%rax
    e1c3:	48 05 b8 02 00 00    	add    $0x2b8,%rax
    e1c9:	48 89 85 70 fe ff ff 	mov    %rax,-0x190(%rbp)
    e1d0:	48 8d 85 50 f4 ff ff 	lea    -0xbb0(%rbp),%rax
    e1d7:	48 05 b8 02 00 00    	add    $0x2b8,%rax
    e1dd:	48 89 85 78 fe ff ff 	mov    %rax,-0x188(%rbp)
    e1e4:	48 8d 85 50 f4 ff ff 	lea    -0xbb0(%rbp),%rax
    e1eb:	48 05 84 00 00 00    	add    $0x84,%rax
    e1f1:	48 89 85 80 fe ff ff 	mov    %rax,-0x180(%rbp)
    e1f8:	48 8d 05 1d 7f 00 00 	lea    0x7f1d(%rip),%rax        # 1611c <g_532>
    e1ff:	48 89 85 88 fe ff ff 	mov    %rax,-0x178(%rbp)
    e206:	48 8d 85 50 f4 ff ff 	lea    -0xbb0(%rbp),%rax
    e20d:	48 05 08 03 00 00    	add    $0x308,%rax
    e213:	48 89 85 90 fe ff ff 	mov    %rax,-0x170(%rbp)
    e21a:	48 8d 05 33 7e 00 00 	lea    0x7e33(%rip),%rax        # 16054 <g_59+0x14>
    e221:	48 89 85 98 fe ff ff 	mov    %rax,-0x168(%rbp)
    e228:	48 c7 85 a0 fe ff ff 	movq   $0x0,-0x160(%rbp)
    e22f:	00 00 00 00 
    e233:	48 8d 05 1a 7e 00 00 	lea    0x7e1a(%rip),%rax        # 16054 <g_59+0x14>
    e23a:	48 89 85 a8 fe ff ff 	mov    %rax,-0x158(%rbp)
    e241:	48 8d 85 50 f4 ff ff 	lea    -0xbb0(%rbp),%rax
    e248:	48 05 64 03 00 00    	add    $0x364,%rax
    e24e:	48 89 85 b0 fe ff ff 	mov    %rax,-0x150(%rbp)
    e255:	48 8d 05 14 7e 00 00 	lea    0x7e14(%rip),%rax        # 16070 <g_194>
    e25c:	48 89 85 b8 fe ff ff 	mov    %rax,-0x148(%rbp)
    e263:	48 8d 05 b2 7e 00 00 	lea    0x7eb2(%rip),%rax        # 1611c <g_532>
    e26a:	48 89 85 c0 fe ff ff 	mov    %rax,-0x140(%rbp)
    e271:	48 8d 05 dc 7d 00 00 	lea    0x7ddc(%rip),%rax        # 16054 <g_59+0x14>
    e278:	48 89 85 c8 fe ff ff 	mov    %rax,-0x138(%rbp)
    e27f:	48 8d 05 da 7d 00 00 	lea    0x7dda(%rip),%rax        # 16060 <g_59+0x20>
    e286:	48 89 85 d0 fe ff ff 	mov    %rax,-0x130(%rbp)
    e28d:	48 8d 05 88 7e 00 00 	lea    0x7e88(%rip),%rax        # 1611c <g_532>
    e294:	48 89 85 d8 fe ff ff 	mov    %rax,-0x128(%rbp)
    e29b:	48 8d 05 ba 7d 00 00 	lea    0x7dba(%rip),%rax        # 1605c <g_59+0x1c>
    e2a2:	48 89 85 e0 fe ff ff 	mov    %rax,-0x120(%rbp)
    e2a9:	48 8d 85 50 f4 ff ff 	lea    -0xbb0(%rbp),%rax
    e2b0:	48 05 30 02 00 00    	add    $0x230,%rax
    e2b6:	48 89 85 e8 fe ff ff 	mov    %rax,-0x118(%rbp)
    e2bd:	48 8d 05 58 7e 00 00 	lea    0x7e58(%rip),%rax        # 1611c <g_532>
    e2c4:	48 89 85 f0 fe ff ff 	mov    %rax,-0x110(%rbp)
    e2cb:	48 8d 05 82 7d 00 00 	lea    0x7d82(%rip),%rax        # 16054 <g_59+0x14>
    e2d2:	48 89 85 f8 fe ff ff 	mov    %rax,-0x108(%rbp)
    e2d9:	48 c7 85 00 ff ff ff 	movq   $0x0,-0x100(%rbp)
    e2e0:	00 00 00 00 
    e2e4:	48 8d 05 31 7e 00 00 	lea    0x7e31(%rip),%rax        # 1611c <g_532>
    e2eb:	48 89 85 08 ff ff ff 	mov    %rax,-0xf8(%rbp)
    e2f2:	48 8d 05 23 7e 00 00 	lea    0x7e23(%rip),%rax        # 1611c <g_532>
    e2f9:	48 89 85 10 ff ff ff 	mov    %rax,-0xf0(%rbp)
    e300:	48 c7 85 18 ff ff ff 	movq   $0x0,-0xe8(%rbp)
    e307:	00 00 00 00 
    e30b:	48 8d 85 50 f4 ff ff 	lea    -0xbb0(%rbp),%rax
    e312:	48 05 b8 02 00 00    	add    $0x2b8,%rax
    e318:	48 89 85 20 ff ff ff 	mov    %rax,-0xe0(%rbp)
    e31f:	48 c7 85 28 ff ff ff 	movq   $0x0,-0xd8(%rbp)
    e326:	00 00 00 00 
    e32a:	48 8d 85 50 f4 ff ff 	lea    -0xbb0(%rbp),%rax
    e331:	48 05 b8 02 00 00    	add    $0x2b8,%rax
    e337:	48 89 85 30 ff ff ff 	mov    %rax,-0xd0(%rbp)
    e33e:	48 8d 05 d7 7d 00 00 	lea    0x7dd7(%rip),%rax        # 1611c <g_532>
    e345:	48 89 85 38 ff ff ff 	mov    %rax,-0xc8(%rbp)
    e34c:	48 8d 05 c9 7d 00 00 	lea    0x7dc9(%rip),%rax        # 1611c <g_532>
    e353:	48 89 85 40 ff ff ff 	mov    %rax,-0xc0(%rbp)
    e35a:	48 8d 05 03 7d 00 00 	lea    0x7d03(%rip),%rax        # 16064 <g_59+0x24>
    e361:	48 89 85 48 ff ff ff 	mov    %rax,-0xb8(%rbp)
    e368:	48 c7 85 50 ff ff ff 	movq   $0x0,-0xb0(%rbp)
    e36f:	00 00 00 00 
    e373:	48 c7 85 58 ff ff ff 	movq   $0x0,-0xa8(%rbp)
    e37a:	00 00 00 00 
    e37e:	48 c7 85 60 ff ff ff 	movq   $0x0,-0xa0(%rbp)
    e385:	00 00 00 00 
    e389:	48 8d 05 8c 7d 00 00 	lea    0x7d8c(%rip),%rax        # 1611c <g_532>
    e390:	48 89 85 68 ff ff ff 	mov    %rax,-0x98(%rbp)
    e397:	48 c7 85 70 ff ff ff 	movq   $0x0,-0x90(%rbp)
    e39e:	00 00 00 00 
    e3a2:	48 8d 05 ab 7c 00 00 	lea    0x7cab(%rip),%rax        # 16054 <g_59+0x14>
    e3a9:	48 89 85 78 ff ff ff 	mov    %rax,-0x88(%rbp)
    e3b0:	48 8d 85 50 f4 ff ff 	lea    -0xbb0(%rbp),%rax
    e3b7:	48 05 30 02 00 00    	add    $0x230,%rax
    e3bd:	48 89 45 80          	mov    %rax,-0x80(%rbp)
    e3c1:	48 8d 05 78 7c 00 00 	lea    0x7c78(%rip),%rax        # 16040 <g_59>
    e3c8:	48 89 45 88          	mov    %rax,-0x78(%rbp)
    e3cc:	48 c7 45 90 00 00 00 	movq   $0x0,-0x70(%rbp)
    e3d3:	00 
    e3d4:	48 c7 45 98 00 00 00 	movq   $0x0,-0x68(%rbp)
    e3db:	00 
    e3dc:	48 8d 05 5d 7c 00 00 	lea    0x7c5d(%rip),%rax        # 16040 <g_59>
    e3e3:	48 89 45 a0          	mov    %rax,-0x60(%rbp)
    e3e7:	48 8d 05 72 7c 00 00 	lea    0x7c72(%rip),%rax        # 16060 <g_59+0x20>
    e3ee:	48 89 45 a8          	mov    %rax,-0x58(%rbp)
    e3f2:	48 8d 85 50 f4 ff ff 	lea    -0xbb0(%rbp),%rax
    e3f9:	48 05 ec 01 00 00    	add    $0x1ec,%rax
    e3ff:	48 89 45 b0          	mov    %rax,-0x50(%rbp)
    e403:	48 8d 05 12 7d 00 00 	lea    0x7d12(%rip),%rax        # 1611c <g_532>
    e40a:	48 89 45 b8          	mov    %rax,-0x48(%rbp)
    e40e:	c7 85 dc f1 ff ff e4 	movl   $0xf19629e4,-0xe24(%rbp)
    e415:	29 96 f1 
    e418:	48 c7 85 08 f2 ff ff 	movq   $0xfffffffffffffffd,-0xdf8(%rbp)
    e41f:	fd ff ff ff 
    e423:	66 c7 05 d4 7c 00 00 	movw   $0x0,0x7cd4(%rip)        # 16100 <g_468>
    e42a:	00 00 
    e42c:	e9 00 02 00 00       	jmpq   e631 <func_98+0x1102>
    e431:	48 8d 05 40 7c 00 00 	lea    0x7c40(%rip),%rax        # 16078 <g_197>
    e438:	48 89 85 68 f2 ff ff 	mov    %rax,-0xd98(%rbp)
    e43f:	48 8d 85 00 f2 ff ff 	lea    -0xe00(%rbp),%rax
    e446:	48 89 85 70 f2 ff ff 	mov    %rax,-0xd90(%rbp)
    e44d:	48 8d 05 4c 7c 00 00 	lea    0x7c4c(%rip),%rax        # 160a0 <g_281>
    e454:	48 89 85 78 f2 ff ff 	mov    %rax,-0xd88(%rbp)
    e45b:	48 c7 85 80 f2 ff ff 	movq   $0x0,-0xd80(%rbp)
    e462:	00 00 00 00 
    e466:	48 8d 05 a3 99 00 00 	lea    0x99a3(%rip),%rax        # 17e10 <g_191>
    e46d:	48 89 85 88 f2 ff ff 	mov    %rax,-0xd78(%rbp)
    e474:	c7 85 d4 f1 ff ff 03 	movl   $0x3,-0xe2c(%rbp)
    e47b:	00 00 00 
    e47e:	48 8d 05 33 a1 00 00 	lea    0xa133(%rip),%rax        # 185b8 <g_361>
    e485:	48 89 85 90 f2 ff ff 	mov    %rax,-0xd70(%rbp)
    e48c:	48 c7 85 98 f2 ff ff 	movq   $0x0,-0xd68(%rbp)
    e493:	00 00 00 00 
    e497:	c7 85 e4 f1 ff ff 02 	movl   $0x2,-0xe1c(%rbp)
    e49e:	00 00 00 
    e4a1:	c7 85 d8 f1 ff ff 00 	movl   $0x0,-0xe28(%rbp)
    e4a8:	00 00 00 
    e4ab:	eb 1e                	jmp    e4cb <func_98+0xf9c>
    e4ad:	8b 85 d8 f1 ff ff    	mov    -0xe28(%rbp),%eax
    e4b3:	48 98                	cltq   
    e4b5:	48 8d 95 d4 f1 ff ff 	lea    -0xe2c(%rbp),%rdx
    e4bc:	48 89 94 c5 00 f3 ff 	mov    %rdx,-0xd00(%rbp,%rax,8)
    e4c3:	ff 
    e4c4:	83 85 d8 f1 ff ff 01 	addl   $0x1,-0xe28(%rbp)
    e4cb:	83 bd d8 f1 ff ff 03 	cmpl   $0x3,-0xe28(%rbp)
    e4d2:	7e d9                	jle    e4ad <func_98+0xf7e>
    e4d4:	48 8b 85 68 f2 ff ff 	mov    -0xd98(%rbp),%rax
    e4db:	48 8b 95 a4 f2 ff ff 	mov    -0xd5c(%rbp),%rdx
    e4e2:	48 89 10             	mov    %rdx,(%rax)
    e4e5:	8b 95 ac f2 ff ff    	mov    -0xd54(%rbp),%edx
    e4eb:	89 50 08             	mov    %edx,0x8(%rax)
    e4ee:	48 8b 85 10 f2 ff ff 	mov    -0xdf0(%rbp),%rax
    e4f5:	48 89 85 70 f2 ff ff 	mov    %rax,-0xd90(%rbp)
    e4fc:	0f b6 05 1e 7c 00 00 	movzbl 0x7c1e(%rip),%eax        # 16121 <g_547>
    e503:	0f b6 d8             	movzbl %al,%ebx
    e506:	48 8b 85 e8 f1 ff ff 	mov    -0xe18(%rbp),%rax
    e50d:	8b 00                	mov    (%rax),%eax
    e50f:	0f b6 c0             	movzbl %al,%eax
    e512:	be 01 00 00 00       	mov    $0x1,%esi
    e517:	89 c7                	mov    %eax,%edi
    e519:	e8 6f 67 ff ff       	callq  4c8d <safe_rshift_func_uint8_t_u_s>
    e51e:	0f b6 d0             	movzbl %al,%edx
    e521:	48 83 bd 78 f2 ff ff 	cmpq   $0x0,-0xd88(%rbp)
    e528:	00 
    e529:	0f 95 c0             	setne  %al
    e52c:	0f b6 c0             	movzbl %al,%eax
    e52f:	39 c2                	cmp    %eax,%edx
    e531:	0f 9e c0             	setle  %al
    e534:	0f b6 c0             	movzbl %al,%eax
    e537:	89 de                	mov    %ebx,%esi
    e539:	89 c7                	mov    %eax,%edi
    e53b:	e8 ae 5d ff ff       	callq  42ee <safe_lshift_func_int8_t_s_u>
    e540:	48 8b 85 88 f2 ff ff 	mov    -0xd78(%rbp),%rax
    e547:	0f b7 00             	movzwl (%rax),%eax
    e54a:	8d 48 01             	lea    0x1(%rax),%ecx
    e54d:	48 8b 95 88 f2 ff ff 	mov    -0xd78(%rbp),%rdx
    e554:	66 89 0a             	mov    %cx,(%rdx)
    e557:	0f b7 c0             	movzwl %ax,%eax
    e55a:	89 c6                	mov    %eax,%esi
    e55c:	bf 08 00 00 00       	mov    $0x8,%edi
    e561:	e8 14 69 ff ff       	callq  4e7a <safe_rshift_func_uint16_t_u_u>
    e566:	89 c3                	mov    %eax,%ebx
    e568:	48 8b 05 11 8a 00 00 	mov    0x8a11(%rip),%rax        # 16f80 <g_18>
    e56f:	0f b6 00             	movzbl (%rax),%eax
    e572:	0f be d0             	movsbl %al,%edx
    e575:	48 8b 85 f8 f1 ff ff 	mov    -0xe08(%rbp),%rax
    e57c:	48 8b 00             	mov    (%rax),%rax
    e57f:	48 8b 00             	mov    (%rax),%rax
    e582:	8b 00                	mov    (%rax),%eax
    e584:	89 85 d4 f1 ff ff    	mov    %eax,-0xe2c(%rbp)
    e58a:	8b 8d d4 f1 ff ff    	mov    -0xe2c(%rbp),%ecx
    e590:	48 8b 85 90 f2 ff ff 	mov    -0xd70(%rbp),%rax
    e597:	8b 00                	mov    (%rax),%eax
    e599:	09 c1                	or     %eax,%ecx
    e59b:	48 8b 85 90 f2 ff ff 	mov    -0xd70(%rbp),%rax
    e5a2:	89 08                	mov    %ecx,(%rax)
    e5a4:	48 8b 85 90 f2 ff ff 	mov    -0xd70(%rbp),%rax
    e5ab:	8b 00                	mov    (%rax),%eax
    e5ad:	85 c0                	test   %eax,%eax
    e5af:	0f 95 c0             	setne  %al
    e5b2:	0f b6 c0             	movzbl %al,%eax
    e5b5:	89 d6                	mov    %edx,%esi
    e5b7:	89 c7                	mov    %eax,%edi
    e5b9:	e8 73 5c ff ff       	callq  4231 <safe_mod_func_int8_t_s_s>
    e5be:	66 98                	cbtw   
    e5c0:	0f b7 c0             	movzwl %ax,%eax
    e5c3:	be 05 00 00 00       	mov    $0x5,%esi
    e5c8:	89 c7                	mov    %eax,%edi
    e5ca:	e8 ef 67 ff ff       	callq  4dbe <safe_lshift_func_uint16_t_u_s>
    e5cf:	66 39 c3             	cmp    %ax,%bx
    e5d2:	0f 95 c0             	setne  %al
    e5d5:	0f b6 c0             	movzbl %al,%eax
    e5d8:	be 50 0f 00 00       	mov    $0xf50,%esi
    e5dd:	89 c7                	mov    %eax,%edi
    e5df:	e8 11 5e ff ff       	callq  43f5 <safe_mul_func_int16_t_s_s>
    e5e4:	89 c2                	mov    %eax,%edx
    e5e6:	8b 85 a8 f2 ff ff    	mov    -0xd58(%rbp),%eax
    e5ec:	c1 e0 0d             	shl    $0xd,%eax
    e5ef:	c1 f8 0d             	sar    $0xd,%eax
    e5f2:	89 c1                	mov    %eax,%ecx
    e5f4:	0f bf c2             	movswl %dx,%eax
    e5f7:	31 c8                	xor    %ecx,%eax
    e5f9:	c1 e0 0d             	shl    $0xd,%eax
    e5fc:	c1 f8 0d             	sar    $0xd,%eax
    e5ff:	25 ff ff 07 00       	and    $0x7ffff,%eax
    e604:	89 c2                	mov    %eax,%edx
    e606:	8b 85 a8 f2 ff ff    	mov    -0xd58(%rbp),%eax
    e60c:	25 00 00 f8 ff       	and    $0xfff80000,%eax
    e611:	09 d0                	or     %edx,%eax
    e613:	89 85 a8 f2 ff ff    	mov    %eax,-0xd58(%rbp)
    e619:	83 ad e4 f1 ff ff 01 	subl   $0x1,-0xe1c(%rbp)
    e620:	0f b7 05 d9 7a 00 00 	movzwl 0x7ad9(%rip),%eax        # 16100 <g_468>
    e627:	83 e8 01             	sub    $0x1,%eax
    e62a:	66 89 05 cf 7a 00 00 	mov    %ax,0x7acf(%rip)        # 16100 <g_468>
    e631:	0f b7 05 c8 7a 00 00 	movzwl 0x7ac8(%rip),%eax        # 16100 <g_468>
    e638:	66 83 f8 fb          	cmp    $0xfffb,%ax
    e63c:	0f 8c ef fd ff ff    	jl     e431 <func_98+0xf02>
    e642:	8b 05 dc 7a 00 00    	mov    0x7adc(%rip),%eax        # 16124 <g_609>
    e648:	83 e8 01             	sub    $0x1,%eax
    e64b:	89 05 d3 7a 00 00    	mov    %eax,0x7ad3(%rip)        # 16124 <g_609>
    e651:	66 c7 05 a6 7a 00 00 	movw   $0x16,0x7aa6(%rip)        # 16100 <g_468>
    e658:	16 00 
    e65a:	e9 9d 04 00 00       	jmpq   eafc <func_98+0x15cd>
    e65f:	48 c7 85 b0 f2 ff ff 	movq   $0x1,-0xd50(%rbp)
    e666:	01 00 00 00 
    e66a:	48 c7 85 b8 f2 ff ff 	movq   $0xfffffffffffffffc,-0xd48(%rbp)
    e671:	fc ff ff ff 
    e675:	48 c7 85 c0 f2 ff ff 	movq   $0x1,-0xd40(%rbp)
    e67c:	01 00 00 00 
    e680:	48 c7 85 c8 f2 ff ff 	movq   $0xfffffffffffffffc,-0xd38(%rbp)
    e687:	fc ff ff ff 
    e68b:	48 c7 85 d0 f2 ff ff 	movq   $0x1,-0xd30(%rbp)
    e692:	01 00 00 00 
    e696:	48 c7 85 d8 f2 ff ff 	movq   $0xfffffffffffffffc,-0xd28(%rbp)
    e69d:	fc ff ff ff 
    e6a1:	48 c7 85 e0 f2 ff ff 	movq   $0x1,-0xd20(%rbp)
    e6a8:	01 00 00 00 
    e6ac:	48 c7 85 e8 f2 ff ff 	movq   $0xfffffffffffffffc,-0xd18(%rbp)
    e6b3:	fc ff ff ff 
    e6b7:	48 c7 85 f0 f2 ff ff 	movq   $0x1,-0xd10(%rbp)
    e6be:	01 00 00 00 
    e6c2:	48 c7 85 f8 f2 ff ff 	movq   $0xfffffffffffffffc,-0xd08(%rbp)
    e6c9:	fc ff ff ff 
    e6cd:	48 c7 85 58 f2 ff ff 	movq   $0x0,-0xda8(%rbp)
    e6d4:	00 00 00 00 
    e6d8:	48 c7 85 60 f2 ff ff 	movq   $0x0,-0xda0(%rbp)
    e6df:	00 00 00 00 
    e6e3:	48 8d 85 08 f2 ff ff 	lea    -0xdf8(%rbp),%rax
    e6ea:	48 89 85 00 f3 ff ff 	mov    %rax,-0xd00(%rbp)
    e6f1:	48 8d 85 b0 f2 ff ff 	lea    -0xd50(%rbp),%rax
    e6f8:	48 83 c0 48          	add    $0x48,%rax
    e6fc:	48 89 85 08 f3 ff ff 	mov    %rax,-0xcf8(%rbp)
    e703:	48 8d 05 ee 79 00 00 	lea    0x79ee(%rip),%rax        # 160f8 <g_300>
    e70a:	48 89 85 10 f3 ff ff 	mov    %rax,-0xcf0(%rbp)
    e711:	48 8d 05 e0 79 00 00 	lea    0x79e0(%rip),%rax        # 160f8 <g_300>
    e718:	48 89 85 18 f3 ff ff 	mov    %rax,-0xce8(%rbp)
    e71f:	48 8d 85 08 f2 ff ff 	lea    -0xdf8(%rbp),%rax
    e726:	48 89 85 20 f3 ff ff 	mov    %rax,-0xce0(%rbp)
    e72d:	48 8d 85 b0 f2 ff ff 	lea    -0xd50(%rbp),%rax
    e734:	48 83 c0 48          	add    $0x48,%rax
    e738:	48 89 85 28 f3 ff ff 	mov    %rax,-0xcd8(%rbp)
    e73f:	48 8d 85 08 f2 ff ff 	lea    -0xdf8(%rbp),%rax
    e746:	48 89 85 30 f3 ff ff 	mov    %rax,-0xcd0(%rbp)
    e74d:	48 8d 85 08 f2 ff ff 	lea    -0xdf8(%rbp),%rax
    e754:	48 89 85 38 f3 ff ff 	mov    %rax,-0xcc8(%rbp)
    e75b:	48 8d 85 08 f2 ff ff 	lea    -0xdf8(%rbp),%rax
    e762:	48 89 85 40 f3 ff ff 	mov    %rax,-0xcc0(%rbp)
    e769:	48 8d 85 08 f2 ff ff 	lea    -0xdf8(%rbp),%rax
    e770:	48 89 85 48 f3 ff ff 	mov    %rax,-0xcb8(%rbp)
    e777:	48 8d 85 08 f2 ff ff 	lea    -0xdf8(%rbp),%rax
    e77e:	48 89 85 50 f3 ff ff 	mov    %rax,-0xcb0(%rbp)
    e785:	48 8d 85 b0 f2 ff ff 	lea    -0xd50(%rbp),%rax
    e78c:	48 83 c0 48          	add    $0x48,%rax
    e790:	48 89 85 58 f3 ff ff 	mov    %rax,-0xca8(%rbp)
    e797:	48 8d 05 5a 79 00 00 	lea    0x795a(%rip),%rax        # 160f8 <g_300>
    e79e:	48 89 85 60 f3 ff ff 	mov    %rax,-0xca0(%rbp)
    e7a5:	48 8d 85 b0 f2 ff ff 	lea    -0xd50(%rbp),%rax
    e7ac:	48 83 c0 30          	add    $0x30,%rax
    e7b0:	48 89 85 68 f3 ff ff 	mov    %rax,-0xc98(%rbp)
    e7b7:	48 c7 85 70 f3 ff ff 	movq   $0x0,-0xc90(%rbp)
    e7be:	00 00 00 00 
    e7c2:	48 8d 05 2f 79 00 00 	lea    0x792f(%rip),%rax        # 160f8 <g_300>
    e7c9:	48 89 85 78 f3 ff ff 	mov    %rax,-0xc88(%rbp)
    e7d0:	48 8d 05 21 79 00 00 	lea    0x7921(%rip),%rax        # 160f8 <g_300>
    e7d7:	48 89 85 80 f3 ff ff 	mov    %rax,-0xc80(%rbp)
    e7de:	48 8d 85 b0 f2 ff ff 	lea    -0xd50(%rbp),%rax
    e7e5:	48 83 c0 48          	add    $0x48,%rax
    e7e9:	48 89 85 88 f3 ff ff 	mov    %rax,-0xc78(%rbp)
    e7f0:	48 8d 85 b0 f2 ff ff 	lea    -0xd50(%rbp),%rax
    e7f7:	48 83 c0 48          	add    $0x48,%rax
    e7fb:	48 89 85 90 f3 ff ff 	mov    %rax,-0xc70(%rbp)
    e802:	48 8d 05 ef 78 00 00 	lea    0x78ef(%rip),%rax        # 160f8 <g_300>
    e809:	48 89 85 98 f3 ff ff 	mov    %rax,-0xc68(%rbp)
    e810:	48 8d 05 e1 78 00 00 	lea    0x78e1(%rip),%rax        # 160f8 <g_300>
    e817:	48 89 85 a0 f3 ff ff 	mov    %rax,-0xc60(%rbp)
    e81e:	48 8d 85 b0 f2 ff ff 	lea    -0xd50(%rbp),%rax
    e825:	48 83 c0 48          	add    $0x48,%rax
    e829:	48 89 85 a8 f3 ff ff 	mov    %rax,-0xc58(%rbp)
    e830:	48 c7 85 b0 f3 ff ff 	movq   $0x0,-0xc50(%rbp)
    e837:	00 00 00 00 
    e83b:	48 8d 85 b0 f2 ff ff 	lea    -0xd50(%rbp),%rax
    e842:	48 83 c0 48          	add    $0x48,%rax
    e846:	48 89 85 b8 f3 ff ff 	mov    %rax,-0xc48(%rbp)
    e84d:	48 8d 85 b0 f2 ff ff 	lea    -0xd50(%rbp),%rax
    e854:	48 83 c0 48          	add    $0x48,%rax
    e858:	48 89 85 c0 f3 ff ff 	mov    %rax,-0xc40(%rbp)
    e85f:	48 8d 85 08 f2 ff ff 	lea    -0xdf8(%rbp),%rax
    e866:	48 89 85 c8 f3 ff ff 	mov    %rax,-0xc38(%rbp)
    e86d:	48 8d 85 b0 f2 ff ff 	lea    -0xd50(%rbp),%rax
    e874:	48 83 c0 30          	add    $0x30,%rax
    e878:	48 89 85 d0 f3 ff ff 	mov    %rax,-0xc30(%rbp)
    e87f:	48 8d 85 b0 f2 ff ff 	lea    -0xd50(%rbp),%rax
    e886:	48 83 c0 30          	add    $0x30,%rax
    e88a:	48 89 85 d8 f3 ff ff 	mov    %rax,-0xc28(%rbp)
    e891:	48 8d 85 b0 f2 ff ff 	lea    -0xd50(%rbp),%rax
    e898:	48 83 c0 48          	add    $0x48,%rax
    e89c:	48 89 85 e0 f3 ff ff 	mov    %rax,-0xc20(%rbp)
    e8a3:	48 c7 85 e8 f3 ff ff 	movq   $0x0,-0xc18(%rbp)
    e8aa:	00 00 00 00 
    e8ae:	48 8d 85 b0 f2 ff ff 	lea    -0xd50(%rbp),%rax
    e8b5:	48 83 c0 48          	add    $0x48,%rax
    e8b9:	48 89 85 f0 f3 ff ff 	mov    %rax,-0xc10(%rbp)
    e8c0:	48 c7 85 f8 f3 ff ff 	movq   $0x0,-0xc08(%rbp)
    e8c7:	00 00 00 00 
    e8cb:	48 8d 85 b0 f2 ff ff 	lea    -0xd50(%rbp),%rax
    e8d2:	48 83 c0 48          	add    $0x48,%rax
    e8d6:	48 89 85 00 f4 ff ff 	mov    %rax,-0xc00(%rbp)
    e8dd:	48 8d 85 b0 f2 ff ff 	lea    -0xd50(%rbp),%rax
    e8e4:	48 83 c0 48          	add    $0x48,%rax
    e8e8:	48 89 85 08 f4 ff ff 	mov    %rax,-0xbf8(%rbp)
    e8ef:	48 8d 85 08 f2 ff ff 	lea    -0xdf8(%rbp),%rax
    e8f6:	48 89 85 10 f4 ff ff 	mov    %rax,-0xbf0(%rbp)
    e8fd:	48 8d 05 f4 77 00 00 	lea    0x77f4(%rip),%rax        # 160f8 <g_300>
    e904:	48 89 85 18 f4 ff ff 	mov    %rax,-0xbe8(%rbp)
    e90b:	48 8d 05 e6 77 00 00 	lea    0x77e6(%rip),%rax        # 160f8 <g_300>
    e912:	48 89 85 20 f4 ff ff 	mov    %rax,-0xbe0(%rbp)
    e919:	48 c7 85 28 f4 ff ff 	movq   $0x0,-0xbd8(%rbp)
    e920:	00 00 00 00 
    e924:	48 8d 85 b0 f2 ff ff 	lea    -0xd50(%rbp),%rax
    e92b:	48 83 c0 48          	add    $0x48,%rax
    e92f:	48 89 85 30 f4 ff ff 	mov    %rax,-0xbd0(%rbp)
    e936:	48 8d 05 bb 77 00 00 	lea    0x77bb(%rip),%rax        # 160f8 <g_300>
    e93d:	48 89 85 38 f4 ff ff 	mov    %rax,-0xbc8(%rbp)
    e944:	48 8d 85 b0 f2 ff ff 	lea    -0xd50(%rbp),%rax
    e94b:	48 83 c0 48          	add    $0x48,%rax
    e94f:	48 89 85 40 f4 ff ff 	mov    %rax,-0xbc0(%rbp)
    e956:	48 c7 85 48 f4 ff ff 	movq   $0x0,-0xbb8(%rbp)
    e95d:	00 00 00 00 
    e961:	c7 85 e0 f1 ff ff ee 	movl   $0x62eb14ee,-0xe20(%rbp)
    e968:	14 eb 62 
    e96b:	8b 05 0b 77 00 00    	mov    0x770b(%rip),%eax        # 1607c <g_197+0x4>
    e971:	25 ff ff 07 00       	and    $0x7ffff,%eax
    e976:	85 c0                	test   %eax,%eax
    e978:	0f 95 c0             	setne  %al
    e97b:	0f b6 c0             	movzbl %al,%eax
    e97e:	39 85 dc f1 ff ff    	cmp    %eax,-0xe24(%rbp)
    e984:	0f 9d c0             	setge  %al
    e987:	44 0f b6 f8          	movzbl %al,%r15d
    e98b:	0f b7 85 cc f1 ff ff 	movzwl -0xe34(%rbp),%eax
    e992:	0f bf d8             	movswl %ax,%ebx
    e995:	48 8b 85 f8 f2 ff ff 	mov    -0xd08(%rbp),%rax
    e99c:	48 85 c0             	test   %rax,%rax
    e99f:	0f 85 21 01 00 00    	jne    eac6 <func_98+0x1597>
    e9a5:	0f b7 85 cc f1 ff ff 	movzwl -0xe34(%rbp),%eax
    e9ac:	44 0f b6 e0          	movzbl %al,%r12d
    e9b0:	0f b6 05 63 77 00 00 	movzbl 0x7763(%rip),%eax        # 1611a <g_517+0xa>
    e9b7:	c1 e0 04             	shl    $0x4,%eax
    e9ba:	c0 f8 04             	sar    $0x4,%al
    e9bd:	44 0f be e8          	movsbl %al,%r13d
    e9c1:	48 8b 05 d8 85 00 00 	mov    0x85d8(%rip),%rax        # 16fa0 <g_467>
    e9c8:	0f b7 00             	movzwl (%rax),%eax
    e9cb:	44 0f b7 f0          	movzwl %ax,%r14d
    e9cf:	48 8b 85 f8 f1 ff ff 	mov    -0xe08(%rbp),%rax
    e9d6:	48 8b 00             	mov    (%rax),%rax
    e9d9:	48 8b 00             	mov    (%rax),%rax
    e9dc:	8b 00                	mov    (%rax),%eax
    e9de:	66 89 85 ca f1 ff ff 	mov    %ax,-0xe36(%rbp)
    e9e5:	48 8b 85 08 f2 ff ff 	mov    -0xdf8(%rbp),%rax
    e9ec:	89 85 bc f1 ff ff    	mov    %eax,-0xe44(%rbp)
    e9f2:	b8 58 d5 db 3e       	mov    $0x3edbd558,%eax
    e9f7:	48 98                	cltq   
    e9f9:	48 c7 c6 fe ff ff ff 	mov    $0xfffffffffffffffe,%rsi
    ea00:	48 89 c7             	mov    %rax,%rdi
    ea03:	e8 ef 5f ff ff       	callq  49f7 <safe_div_func_int64_t_s_s>
    ea08:	48 85 c0             	test   %rax,%rax
    ea0b:	75 0d                	jne    ea1a <func_98+0x14eb>
    ea0d:	48 8b 05 8c 85 00 00 	mov    0x858c(%rip),%rax        # 16fa0 <g_467>
    ea14:	0f b7 00             	movzwl (%rax),%eax
    ea17:	66 85 c0             	test   %ax,%ax
    ea1a:	8b b5 bc f1 ff ff    	mov    -0xe44(%rbp),%esi
    ea20:	bf 01 00 00 00       	mov    $0x1,%edi
    ea25:	e8 d3 64 ff ff       	callq  4efd <safe_mod_func_uint32_t_u_u>
    ea2a:	0f be c0             	movsbl %al,%eax
    ea2d:	be 00 00 00 00       	mov    $0x0,%esi
    ea32:	89 c7                	mov    %eax,%edi
    ea34:	e8 fc 58 ff ff       	callq  4335 <safe_rshift_func_int8_t_s_s>
    ea39:	66 0f be d0          	movsbw %al,%dx
    ea3d:	48 8b 85 c0 f1 ff ff 	mov    -0xe40(%rbp),%rax
    ea44:	8b 00                	mov    (%rax),%eax
    ea46:	31 d0                	xor    %edx,%eax
    ea48:	66 0b 85 ca f1 ff ff 	or     -0xe36(%rbp),%ax
    ea4f:	0f b7 c0             	movzwl %ax,%eax
    ea52:	44 89 f6             	mov    %r14d,%esi
    ea55:	89 c7                	mov    %eax,%edi
    ea57:	e8 c3 62 ff ff       	callq  4d1f <safe_sub_func_uint16_t_u_u>
    ea5c:	0f b7 c0             	movzwl %ax,%eax
    ea5f:	44 89 ee             	mov    %r13d,%esi
    ea62:	89 c7                	mov    %eax,%edi
    ea64:	e8 9d 63 ff ff       	callq  4e06 <safe_lshift_func_uint16_t_u_u>
    ea69:	66 83 f8 01          	cmp    $0x1,%ax
    ea6d:	0f 95 c0             	setne  %al
    ea70:	0f b6 d0             	movzbl %al,%edx
    ea73:	48 8b 85 f8 f2 ff ff 	mov    -0xd08(%rbp),%rax
    ea7a:	48 39 c2             	cmp    %rax,%rdx
    ea7d:	7c 0a                	jl     ea89 <func_98+0x155a>
    ea7f:	66 83 bd c8 f1 ff ff 	cmpw   $0x0,-0xe38(%rbp)
    ea86:	00 
    ea87:	74 07                	je     ea90 <func_98+0x1561>
    ea89:	b8 01 00 00 00       	mov    $0x1,%eax
    ea8e:	eb 05                	jmp    ea95 <func_98+0x1566>
    ea90:	b8 00 00 00 00       	mov    $0x0,%eax
    ea95:	0f b6 c0             	movzbl %al,%eax
    ea98:	44 89 e6             	mov    %r12d,%esi
    ea9b:	89 c7                	mov    %eax,%edi
    ea9d:	e8 b8 60 ff ff       	callq  4b5a <safe_add_func_uint8_t_u_u>
    eaa2:	0f b6 d0             	movzbl %al,%edx
    eaa5:	0f b7 85 cc f1 ff ff 	movzwl -0xe34(%rbp),%eax
    eaac:	48 89 d6             	mov    %rdx,%rsi
    eaaf:	48 89 c7             	mov    %rax,%rdi
    eab2:	e8 94 65 ff ff       	callq  504b <safe_sub_func_uint64_t_u_u>
    eab7:	89 85 e0 f1 ff ff    	mov    %eax,-0xe20(%rbp)
    eabd:	83 bd e0 f1 ff ff 00 	cmpl   $0x0,-0xe20(%rbp)
    eac4:	74 07                	je     eacd <func_98+0x159e>
    eac6:	b8 01 00 00 00       	mov    $0x1,%eax
    eacb:	eb 05                	jmp    ead2 <func_98+0x15a3>
    eacd:	b8 00 00 00 00       	mov    $0x0,%eax
    ead2:	98                   	cwtl   
    ead3:	89 de                	mov    %ebx,%esi
    ead5:	89 c7                	mov    %eax,%edi
    ead7:	e8 f7 58 ff ff       	callq  43d3 <safe_sub_func_int16_t_s_s>
    eadc:	98                   	cwtl   
    eadd:	44 89 fa             	mov    %r15d,%edx
    eae0:	21 c2                	and    %eax,%edx
    eae2:	48 8b 85 28 f2 ff ff 	mov    -0xdd8(%rbp),%rax
    eae9:	89 10                	mov    %edx,(%rax)
    eaeb:	0f b7 05 0e 76 00 00 	movzwl 0x760e(%rip),%eax        # 16100 <g_468>
    eaf2:	83 e8 01             	sub    $0x1,%eax
    eaf5:	66 89 05 04 76 00 00 	mov    %ax,0x7604(%rip)        # 16100 <g_468>
    eafc:	0f b7 05 fd 75 00 00 	movzwl 0x75fd(%rip),%eax        # 16100 <g_468>
    eb03:	66 83 f8 fd          	cmp    $0xfffd,%ax
    eb07:	0f 8d 52 fb ff ff    	jge    e65f <func_98+0x1130>
    eb0d:	48 8b 85 c0 f1 ff ff 	mov    -0xe40(%rbp),%rax
    eb14:	8b 00                	mov    (%rax),%eax
    eb16:	48 8b 5d c8          	mov    -0x38(%rbp),%rbx
    eb1a:	64 48 33 1c 25 28 00 	xor    %fs:0x28,%rbx
    eb21:	00 00 
    eb23:	74 05                	je     eb2a <func_98+0x15fb>
    eb25:	e8 46 55 ff ff       	callq  4070 <__stack_chk_fail@plt>
    eb2a:	48 81 c4 28 0e 00 00 	add    $0xe28,%rsp
    eb31:	5b                   	pop    %rbx
    eb32:	41 5c                	pop    %r12
    eb34:	41 5d                	pop    %r13
    eb36:	41 5e                	pop    %r14
    eb38:	41 5f                	pop    %r15
    eb3a:	5d                   	pop    %rbp
    eb3b:	c3                   	retq   

000000000000eb3c <func_113>:
    eb3c:	f3 0f 1e fa          	endbr64 
    eb40:	55                   	push   %rbp
    eb41:	48 89 e5             	mov    %rsp,%rbp
    eb44:	41 56                	push   %r14
    eb46:	41 55                	push   %r13
    eb48:	41 54                	push   %r12
    eb4a:	53                   	push   %rbx
    eb4b:	48 81 ec b0 01 00 00 	sub    $0x1b0,%rsp
    eb52:	48 89 b5 40 fe ff ff 	mov    %rsi,-0x1c0(%rbp)
    eb59:	48 89 95 38 fe ff ff 	mov    %rdx,-0x1c8(%rbp)
    eb60:	89 c8                	mov    %ecx,%eax
    eb62:	89 fa                	mov    %edi,%edx
    eb64:	66 89 95 4c fe ff ff 	mov    %dx,-0x1b4(%rbp)
    eb6b:	66 89 85 48 fe ff ff 	mov    %ax,-0x1b8(%rbp)
    eb72:	64 48 8b 04 25 28 00 	mov    %fs:0x28,%rax
    eb79:	00 00 
    eb7b:	48 89 45 d8          	mov    %rax,-0x28(%rbp)
    eb7f:	31 c0                	xor    %eax,%eax
    eb81:	48 8d 05 e0 74 00 00 	lea    0x74e0(%rip),%rax        # 16068 <g_132>
    eb88:	48 89 85 88 fe ff ff 	mov    %rax,-0x178(%rbp)
    eb8f:	c7 85 54 fe ff ff 53 	movl   $0x2a686b53,-0x1ac(%rbp)
    eb96:	6b 68 2a 
    eb99:	48 8d 05 70 92 00 00 	lea    0x9270(%rip),%rax        # 17e10 <g_191>
    eba0:	48 89 85 90 fe ff ff 	mov    %rax,-0x170(%rbp)
    eba7:	48 8d 05 d2 74 00 00 	lea    0x74d2(%rip),%rax        # 16080 <g_197+0x8>
    ebae:	48 89 85 98 fe ff ff 	mov    %rax,-0x168(%rbp)
    ebb5:	c7 85 58 fe ff ff d7 	movl   $0x1919b3d7,-0x1a8(%rbp)
    ebbc:	b3 19 19 
    ebbf:	c7 85 5c fe ff ff 01 	movl   $0x1,-0x1a4(%rbp)
    ebc6:	00 00 00 
    ebc9:	48 8d 05 00 9a 00 00 	lea    0x9a00(%rip),%rax        # 185d0 <g_527>
    ebd0:	48 89 85 70 fe ff ff 	mov    %rax,-0x190(%rbp)
    ebd7:	48 8d 85 70 fe ff ff 	lea    -0x190(%rbp),%rax
    ebde:	48 89 85 a0 fe ff ff 	mov    %rax,-0x160(%rbp)
    ebe5:	66 c7 85 08 ff ff ff 	movw   $0xd7,-0xf8(%rbp)
    ebec:	d7 00 
    ebee:	0f b6 85 0a ff ff ff 	movzbl -0xf6(%rbp),%eax
    ebf5:	83 e0 e0             	and    $0xffffffe0,%eax
    ebf8:	83 c8 03             	or     $0x3,%eax
    ebfb:	88 85 0a ff ff ff    	mov    %al,-0xf6(%rbp)
    ec01:	8b 85 0c ff ff ff    	mov    -0xf4(%rbp),%eax
    ec07:	25 00 00 f8 ff       	and    $0xfff80000,%eax
    ec0c:	0d ea 01 00 00       	or     $0x1ea,%eax
    ec11:	89 85 0c ff ff ff    	mov    %eax,-0xf4(%rbp)
    ec17:	66 c7 85 10 ff ff ff 	movw   $0x1,-0xf0(%rbp)
    ec1e:	01 00 
    ec20:	0f b6 85 12 ff ff ff 	movzbl -0xee(%rbp),%eax
    ec27:	83 e0 f0             	and    $0xfffffff0,%eax
    ec2a:	83 c8 0e             	or     $0xe,%eax
    ec2d:	88 85 12 ff ff ff    	mov    %al,-0xee(%rbp)
    ec33:	48 c7 85 a8 fe ff ff 	movq   $0x0,-0x158(%rbp)
    ec3a:	00 00 00 00 
    ec3e:	48 8d 05 33 74 00 00 	lea    0x7433(%rip),%rax        # 16078 <g_197>
    ec45:	48 89 85 b0 fe ff ff 	mov    %rax,-0x150(%rbp)
    ec4c:	c7 85 68 fe ff ff ff 	movl   $0xffffffff,-0x198(%rbp)
    ec53:	ff ff ff 
    ec56:	8b 85 54 fe ff ff    	mov    -0x1ac(%rbp),%eax
    ec5c:	0f b6 d8             	movzbl %al,%ebx
    ec5f:	48 8b 85 90 fe ff ff 	mov    -0x170(%rbp),%rax
    ec66:	0f b7 00             	movzwl (%rax),%eax
    ec69:	8d 50 ff             	lea    -0x1(%rax),%edx
    ec6c:	48 8b 85 90 fe ff ff 	mov    -0x170(%rbp),%rax
    ec73:	66 89 10             	mov    %dx,(%rax)
    ec76:	48 8b 85 90 fe ff ff 	mov    -0x170(%rbp),%rax
    ec7d:	0f b7 00             	movzwl (%rax),%eax
    ec80:	0f b7 d0             	movzwl %ax,%edx
    ec83:	8b 85 54 fe ff ff    	mov    -0x1ac(%rbp),%eax
    ec89:	48 98                	cltq   
    ec8b:	48 39 85 38 fe ff ff 	cmp    %rax,-0x1c8(%rbp)
    ec92:	0f 93 c0             	setae  %al
    ec95:	0f b6 c0             	movzbl %al,%eax
    ec98:	89 d6                	mov    %edx,%esi
    ec9a:	89 c7                	mov    %eax,%edi
    ec9c:	e8 c2 58 ff ff       	callq  4563 <safe_rshift_func_int16_t_s_u>
    eca1:	48 8b 85 38 fe ff ff 	mov    -0x1c8(%rbp),%rax
    eca8:	0f b7 d0             	movzwl %ax,%edx
    ecab:	48 8b 85 98 fe ff ff 	mov    -0x168(%rbp),%rax
    ecb2:	0f b7 00             	movzwl (%rax),%eax
    ecb5:	8d 70 ff             	lea    -0x1(%rax),%esi
    ecb8:	48 8b 8d 98 fe ff ff 	mov    -0x168(%rbp),%rcx
    ecbf:	66 89 31             	mov    %si,(%rcx)
    ecc2:	0f b7 c0             	movzwl %ax,%eax
    ecc5:	89 d6                	mov    %edx,%esi
    ecc7:	89 c7                	mov    %eax,%edi
    ecc9:	e8 6f 60 ff ff       	callq  4d3d <safe_mul_func_uint16_t_u_u>
    ecce:	48 8b 85 40 fe ff ff 	mov    -0x1c0(%rbp),%rax
    ecd5:	c6 00 01             	movb   $0x1,(%rax)
    ecd8:	48 8b 05 a1 82 00 00 	mov    0x82a1(%rip),%rax        # 16f80 <g_18>
    ecdf:	0f b6 00             	movzbl (%rax),%eax
    ece2:	84 c0                	test   %al,%al
    ece4:	66 83 bd 4c fe ff ff 	cmpw   $0x2a,-0x1b4(%rbp)
    eceb:	2a 
    ecec:	0f 96 c0             	setbe  %al
    ecef:	0f b6 c0             	movzbl %al,%eax
    ecf2:	be 94 af 44 a4       	mov    $0xa444af94,%esi
    ecf7:	89 c7                	mov    %eax,%edi
    ecf9:	e8 ba 61 ff ff       	callq  4eb8 <safe_add_func_uint32_t_u_u>
    ecfe:	89 c0                	mov    %eax,%eax
    ed00:	48 c7 c6 ff ff ff ff 	mov    $0xffffffffffffffff,%rsi
    ed07:	48 89 c7             	mov    %rax,%rdi
    ed0a:	e8 e8 5c ff ff       	callq  49f7 <safe_div_func_int64_t_s_s>
    ed0f:	48 83 bd 88 fe ff ff 	cmpq   $0x0,-0x178(%rbp)
    ed16:	00 
    ed17:	0f 95 c0             	setne  %al
    ed1a:	0f b6 c0             	movzbl %al,%eax
    ed1d:	89 de                	mov    %ebx,%esi
    ed1f:	89 c7                	mov    %eax,%edi
    ed21:	e8 88 5e ff ff       	callq  4bae <safe_mod_func_uint8_t_u_u>
    ed26:	0f b6 c0             	movzbl %al,%eax
    ed29:	48 39 85 38 fe ff ff 	cmp    %rax,-0x1c8(%rbp)
    ed30:	0f 95 c0             	setne  %al
    ed33:	0f b6 c0             	movzbl %al,%eax
    ed36:	31 85 58 fe ff ff    	xor    %eax,-0x1a8(%rbp)
    ed3c:	48 c7 05 21 73 00 00 	movq   $0x0,0x7321(%rip)        # 16068 <g_132>
    ed43:	00 00 00 00 
    ed47:	e9 d1 08 00 00       	jmpq   f61d <func_113+0xae1>
    ed4c:	66 c7 85 18 ff ff ff 	movw   $0xaf96,-0xe8(%rbp)
    ed53:	96 af 
    ed55:	66 c7 85 1a ff ff ff 	movw   $0xaf96,-0xe6(%rbp)
    ed5c:	96 af 
    ed5e:	66 c7 85 1c ff ff ff 	movw   $0xaf96,-0xe4(%rbp)
    ed65:	96 af 
    ed67:	66 c7 85 1e ff ff ff 	movw   $0xaf96,-0xe2(%rbp)
    ed6e:	96 af 
    ed70:	48 8d 05 39 98 00 00 	lea    0x9839(%rip),%rax        # 185b0 <g_329>
    ed77:	48 89 85 20 ff ff ff 	mov    %rax,-0xe0(%rbp)
    ed7e:	48 8d 05 2b 98 00 00 	lea    0x982b(%rip),%rax        # 185b0 <g_329>
    ed85:	48 89 85 28 ff ff ff 	mov    %rax,-0xd8(%rbp)
    ed8c:	48 8d 05 1d 98 00 00 	lea    0x981d(%rip),%rax        # 185b0 <g_329>
    ed93:	48 89 85 30 ff ff ff 	mov    %rax,-0xd0(%rbp)
    ed9a:	48 8d 05 0f 98 00 00 	lea    0x980f(%rip),%rax        # 185b0 <g_329>
    eda1:	48 89 85 38 ff ff ff 	mov    %rax,-0xc8(%rbp)
    eda8:	48 8d 05 01 98 00 00 	lea    0x9801(%rip),%rax        # 185b0 <g_329>
    edaf:	48 89 85 40 ff ff ff 	mov    %rax,-0xc0(%rbp)
    edb6:	48 8d 05 f3 97 00 00 	lea    0x97f3(%rip),%rax        # 185b0 <g_329>
    edbd:	48 89 85 48 ff ff ff 	mov    %rax,-0xb8(%rbp)
    edc4:	48 8d 05 e5 97 00 00 	lea    0x97e5(%rip),%rax        # 185b0 <g_329>
    edcb:	48 89 85 50 ff ff ff 	mov    %rax,-0xb0(%rbp)
    edd2:	48 8d 85 20 ff ff ff 	lea    -0xe0(%rbp),%rax
    edd9:	48 83 c0 28          	add    $0x28,%rax
    eddd:	48 89 85 b8 fe ff ff 	mov    %rax,-0x148(%rbp)
    ede4:	c6 05 3d 72 00 00 0a 	movb   $0xa,0x723d(%rip)        # 16028 <g_19>
    edeb:	90                   	nop
    edec:	0f b6 05 35 72 00 00 	movzbl 0x7235(%rip),%eax        # 16028 <g_19>
    edf3:	3c ef                	cmp    $0xef,%al
    edf5:	7c 19                	jl     ee10 <func_113+0x2d4>
    edf7:	0f b7 85 4c fe ff ff 	movzwl -0x1b4(%rbp),%eax
    edfe:	89 85 54 fe ff ff    	mov    %eax,-0x1ac(%rbp)
    ee04:	48 8b 85 38 fe ff ff 	mov    -0x1c8(%rbp),%rax
    ee0b:	e9 49 08 00 00       	jmpq   f659 <func_113+0xb1d>
    ee10:	0f b6 05 63 72 00 00 	movzbl 0x7263(%rip),%eax        # 1607a <g_197+0x2>
    ee17:	c1 e0 03             	shl    $0x3,%eax
    ee1a:	c0 f8 03             	sar    $0x3,%al
    ee1d:	0f be d8             	movsbl %al,%ebx
    ee20:	be fe ff ff ff       	mov    $0xfffffffe,%esi
    ee25:	bf 08 00 00 00       	mov    $0x8,%edi
    ee2a:	e8 c6 55 ff ff       	callq  43f5 <safe_mul_func_int16_t_s_s>
    ee2f:	0f b6 c0             	movzbl %al,%eax
    ee32:	be 01 00 00 00       	mov    $0x1,%esi
    ee37:	89 c7                	mov    %eax,%edi
    ee39:	e8 55 5d ff ff       	callq  4b93 <safe_mul_func_uint8_t_u_u>
    ee3e:	3c 01                	cmp    $0x1,%al
    ee40:	0f 97 c0             	seta   %al
    ee43:	0f b6 c0             	movzbl %al,%eax
    ee46:	89 de                	mov    %ebx,%esi
    ee48:	89 c7                	mov    %eax,%edi
    ee4a:	e8 a3 53 ff ff       	callq  41f2 <safe_sub_func_int8_t_s_s>
    ee4f:	0f be c0             	movsbl %al,%eax
    ee52:	be 02 00 00 00       	mov    $0x2,%esi
    ee57:	89 c7                	mov    %eax,%edi
    ee59:	e8 0c 54 ff ff       	callq  426a <safe_div_func_int8_t_s_s>
    ee5e:	48 8d 85 20 ff ff ff 	lea    -0xe0(%rbp),%rax
    ee65:	48 83 c0 28          	add    $0x28,%rax
    ee69:	48 39 85 b8 fe ff ff 	cmp    %rax,-0x148(%rbp)
    ee70:	0f 95 c0             	setne  %al
    ee73:	0f b6 c0             	movzbl %al,%eax
    ee76:	be 01 00 00 00       	mov    $0x1,%esi
    ee7b:	89 c7                	mov    %eax,%edi
    ee7d:	e8 11 5d ff ff       	callq  4b93 <safe_mul_func_uint8_t_u_u>
    ee82:	83 bd 54 fe ff ff 00 	cmpl   $0x0,-0x1ac(%rbp)
    ee89:	0f 95 c0             	setne  %al
    ee8c:	0f b6 c0             	movzbl %al,%eax
    ee8f:	48 89 05 72 72 00 00 	mov    %rax,0x7272(%rip)        # 16108 <g_471>
    ee96:	48 8b 05 03 72 00 00 	mov    0x7203(%rip),%rax        # 160a0 <g_281>
    ee9d:	0f be d0             	movsbl %al,%edx
    eea0:	48 8b 05 d9 80 00 00 	mov    0x80d9(%rip),%rax        # 16f80 <g_18>
    eea7:	0f b6 00             	movzbl (%rax),%eax
    eeaa:	0f be c0             	movsbl %al,%eax
    eead:	89 d6                	mov    %edx,%esi
    eeaf:	89 c7                	mov    %eax,%edi
    eeb1:	e8 1e 53 ff ff       	callq  41d4 <safe_add_func_int8_t_s_s>
    eeb6:	0f be c0             	movsbl %al,%eax
    eeb9:	21 85 5c fe ff ff    	and    %eax,-0x1a4(%rbp)
    eebf:	c7 05 a7 71 00 00 03 	movl   $0x3,0x71a7(%rip)        # 16070 <g_194>
    eec6:	00 00 00 
    eec9:	e9 25 07 00 00       	jmpq   f5f3 <func_113+0xab7>
    eece:	c6 85 50 fe ff ff 04 	movb   $0x4,-0x1b0(%rbp)
    eed5:	c7 85 54 fe ff ff 03 	movl   $0x3,-0x1ac(%rbp)
    eedc:	00 00 00 
    eedf:	e9 05 02 00 00       	jmpq   f0e9 <func_113+0x5ad>
    eee4:	48 8d 05 1d 72 00 00 	lea    0x721d(%rip),%rax        # 16108 <g_471>
    eeeb:	48 89 85 f8 fe ff ff 	mov    %rax,-0x108(%rbp)
    eef2:	48 8d 05 07 72 00 00 	lea    0x7207(%rip),%rax        # 16100 <g_468>
    eef9:	48 89 85 00 ff ff ff 	mov    %rax,-0x100(%rbp)
    ef00:	c7 85 6c fe ff ff 2a 	movl   $0x8aaeb52a,-0x194(%rbp)
    ef07:	b5 ae 8a 
    ef0a:	48 8b 85 b8 fe ff ff 	mov    -0x148(%rbp),%rax
    ef11:	48 8b 10             	mov    (%rax),%rdx
    ef14:	48 8b 85 b8 fe ff ff 	mov    -0x148(%rbp),%rax
    ef1b:	48 8b 00             	mov    (%rax),%rax
    ef1e:	48 8b 12             	mov    (%rdx),%rdx
    ef21:	48 89 10             	mov    %rdx,(%rax)
    ef24:	0f b7 05 e5 8e 00 00 	movzwl 0x8ee5(%rip),%eax        # 17e10 <g_191>
    ef2b:	66 85 c0             	test   %ax,%ax
    ef2e:	0f 85 a9 06 00 00    	jne    f5dd <func_113+0xaa1>
    ef34:	48 8b 1d bd 71 00 00 	mov    0x71bd(%rip),%rbx        # 160f8 <g_300>
    ef3b:	48 8b 05 8e 71 00 00 	mov    0x718e(%rip),%rax        # 160d0 <g_281+0x30>
    ef42:	89 c2                	mov    %eax,%edx
    ef44:	8b 85 54 fe ff ff    	mov    -0x1ac(%rbp),%eax
    ef4a:	48 98                	cltq   
    ef4c:	0f b7 84 45 18 ff ff 	movzwl -0xe8(%rbp,%rax,2),%eax
    ef53:	ff 
    ef54:	98                   	cwtl   
    ef55:	89 d6                	mov    %edx,%esi
    ef57:	89 c7                	mov    %eax,%edi
    ef59:	e8 05 56 ff ff       	callq  4563 <safe_rshift_func_int16_t_s_u>
    ef5e:	44 0f bf e8          	movswl %ax,%r13d
    ef62:	0f b7 95 48 fe ff ff 	movzwl -0x1b8(%rbp),%edx
    ef69:	0f b6 85 50 fe ff ff 	movzbl -0x1b0(%rbp),%eax
    ef70:	0f be c0             	movsbl %al,%eax
    ef73:	21 c2                	and    %eax,%edx
    ef75:	48 8b 05 24 80 00 00 	mov    0x8024(%rip),%rax        # 16fa0 <g_467>
    ef7c:	0f b7 00             	movzwl (%rax),%eax
    ef7f:	98                   	cwtl   
    ef80:	39 c2                	cmp    %eax,%edx
    ef82:	0f 9e c0             	setle  %al
    ef85:	0f b6 d0             	movzbl %al,%edx
    ef88:	48 8b 85 f8 fe ff ff 	mov    -0x108(%rbp),%rax
    ef8f:	48 89 10             	mov    %rdx,(%rax)
    ef92:	48 8b 85 f8 fe ff ff 	mov    -0x108(%rbp),%rax
    ef99:	48 8b 00             	mov    (%rax),%rax
    ef9c:	48 85 c0             	test   %rax,%rax
    ef9f:	0f 85 03 01 00 00    	jne    f0a8 <func_113+0x56c>
    efa5:	44 0f b7 a5 4c fe ff 	movzwl -0x1b4(%rbp),%r12d
    efac:	ff 
    efad:	48 83 bd 00 ff ff ff 	cmpq   $0x0,-0x100(%rbp)
    efb4:	00 
    efb5:	0f 95 c0             	setne  %al
    efb8:	0f b6 c0             	movzbl %al,%eax
    efbb:	be fa ff ff ff       	mov    $0xfffffffa,%esi
    efc0:	89 c7                	mov    %eax,%edi
    efc2:	e8 05 57 ff ff       	callq  46cc <safe_mod_func_int32_t_s_s>
    efc7:	8b 95 54 fe ff ff    	mov    -0x1ac(%rbp),%edx
    efcd:	48 63 d2             	movslq %edx,%rdx
    efd0:	0f b7 94 55 18 ff ff 	movzwl -0xe8(%rbp,%rdx,2),%edx
    efd7:	ff 
    efd8:	0f b7 d2             	movzwl %dx,%edx
    efdb:	39 d0                	cmp    %edx,%eax
    efdd:	0f 95 c2             	setne  %dl
    efe0:	48 8b 85 40 fe ff ff 	mov    -0x1c0(%rbp),%rax
    efe7:	88 10                	mov    %dl,(%rax)
    efe9:	0f b6 00             	movzbl (%rax),%eax
    efec:	48 0f be c0          	movsbq %al,%rax
    eff0:	48 39 85 38 fe ff ff 	cmp    %rax,-0x1c8(%rbp)
    eff7:	0f b7 05 12 8e 00 00 	movzwl 0x8e12(%rip),%eax        # 17e10 <g_191>
    effe:	0f b7 d0             	movzwl %ax,%edx
    f001:	8b 05 69 70 00 00    	mov    0x7069(%rip),%eax        # 16070 <g_194>
    f007:	83 c0 04             	add    $0x4,%eax
    f00a:	48 98                	cltq   
    f00c:	48 8d 0c c5 00 00 00 	lea    0x0(,%rax,8),%rcx
    f013:	00 
    f014:	48 8d 05 85 70 00 00 	lea    0x7085(%rip),%rax        # 160a0 <g_281>
    f01b:	48 8b 04 01          	mov    (%rcx,%rax,1),%rax
    f01f:	48 39 c2             	cmp    %rax,%rdx
    f022:	0f 96 c0             	setbe  %al
    f025:	0f b6 d0             	movzbl %al,%edx
    f028:	8b 85 54 fe ff ff    	mov    -0x1ac(%rbp),%eax
    f02e:	48 98                	cltq   
    f030:	0f b7 84 45 18 ff ff 	movzwl -0xe8(%rbp,%rax,2),%eax
    f037:	ff 
    f038:	0f b7 c0             	movzwl %ax,%eax
    f03b:	39 c2                	cmp    %eax,%edx
    f03d:	7c 0c                	jl     f04b <func_113+0x50f>
    f03f:	0f b7 05 ba 70 00 00 	movzwl 0x70ba(%rip),%eax        # 16100 <g_468>
    f046:	66 85 c0             	test   %ax,%ax
    f049:	74 07                	je     f052 <func_113+0x516>
    f04b:	b8 01 00 00 00       	mov    $0x1,%eax
    f050:	eb 05                	jmp    f057 <func_113+0x51b>
    f052:	b8 00 00 00 00       	mov    $0x0,%eax
    f057:	98                   	cwtl   
    f058:	44 89 e6             	mov    %r12d,%esi
    f05b:	89 c7                	mov    %eax,%edi
    f05d:	e8 c8 54 ff ff       	callq  452a <safe_rshift_func_int16_t_s_s>
    f062:	0f be c0             	movsbl %al,%eax
    f065:	be 04 00 00 00       	mov    $0x4,%esi
    f06a:	89 c7                	mov    %eax,%edi
    f06c:	e8 fb 52 ff ff       	callq  436c <safe_rshift_func_int8_t_s_u>
    f071:	0f b7 95 48 fe ff ff 	movzwl -0x1b8(%rbp),%edx
    f078:	31 d0                	xor    %edx,%eax
    f07a:	0f b6 c0             	movzbl %al,%eax
    f07d:	be 02 00 00 00       	mov    $0x2,%esi
    f082:	89 c7                	mov    %eax,%edi
    f084:	e8 c3 5b ff ff       	callq  4c4c <safe_lshift_func_uint8_t_u_u>
    f089:	0f b7 85 4c fe ff ff 	movzwl -0x1b4(%rbp),%eax
    f090:	83 f0 01             	xor    $0x1,%eax
    f093:	0f b7 c0             	movzwl %ax,%eax
    f096:	48 89 c6             	mov    %rax,%rsi
    f099:	bf 01 00 00 00       	mov    $0x1,%edi
    f09e:	e8 11 59 ff ff       	callq  49b4 <safe_mod_func_int64_t_s_s>
    f0a3:	48 85 c0             	test   %rax,%rax
    f0a6:	74 07                	je     f0af <func_113+0x573>
    f0a8:	b8 01 00 00 00       	mov    $0x1,%eax
    f0ad:	eb 05                	jmp    f0b4 <func_113+0x578>
    f0af:	b8 00 00 00 00       	mov    $0x0,%eax
    f0b4:	3b 85 54 fe ff ff    	cmp    -0x1ac(%rbp),%eax
    f0ba:	0f 9d c0             	setge  %al
    f0bd:	0f b6 c0             	movzbl %al,%eax
    f0c0:	41 39 c5             	cmp    %eax,%r13d
    f0c3:	0f 95 c0             	setne  %al
    f0c6:	0f b6 c0             	movzbl %al,%eax
    f0c9:	48 89 de             	mov    %rbx,%rsi
    f0cc:	48 89 c7             	mov    %rax,%rdi
    f0cf:	e8 6d 57 ff ff       	callq  4841 <safe_add_func_int64_t_s_s>
    f0d4:	31 85 6c fe ff ff    	xor    %eax,-0x194(%rbp)
    f0da:	48 83 bd 38 fe ff ff 	cmpq   $0x0,-0x1c8(%rbp)
    f0e1:	00 
    f0e2:	83 ad 54 fe ff ff 01 	subl   $0x1,-0x1ac(%rbp)
    f0e9:	83 bd 54 fe ff ff 00 	cmpl   $0x0,-0x1ac(%rbp)
    f0f0:	0f 89 ee fd ff ff    	jns    eee4 <func_113+0x3a8>
    f0f6:	83 bd 5c fe ff ff 00 	cmpl   $0x0,-0x1a4(%rbp)
    f0fd:	0f 85 e0 04 00 00    	jne    f5e3 <func_113+0xaa7>
    f103:	66 c7 85 48 fe ff ff 	movw   $0xfff4,-0x1b8(%rbp)
    f10a:	f4 ff 
    f10c:	e9 ad 04 00 00       	jmpq   f5be <func_113+0xa82>
    f111:	48 c7 85 78 fe ff ff 	movq   $0xfffffffffffffffc,-0x188(%rbp)
    f118:	fc ff ff ff 
    f11c:	48 8d 05 ed 6f 00 00 	lea    0x6fed(%rip),%rax        # 16110 <g_517>
    f123:	48 89 85 60 ff ff ff 	mov    %rax,-0xa0(%rbp)
    f12a:	48 8d 05 df 6f 00 00 	lea    0x6fdf(%rip),%rax        # 16110 <g_517>
    f131:	48 89 85 68 ff ff ff 	mov    %rax,-0x98(%rbp)
    f138:	48 8d 05 d1 6f 00 00 	lea    0x6fd1(%rip),%rax        # 16110 <g_517>
    f13f:	48 89 85 70 ff ff ff 	mov    %rax,-0x90(%rbp)
    f146:	48 8d 05 c3 6f 00 00 	lea    0x6fc3(%rip),%rax        # 16110 <g_517>
    f14d:	48 89 85 78 ff ff ff 	mov    %rax,-0x88(%rbp)
    f154:	48 8d 05 b5 6f 00 00 	lea    0x6fb5(%rip),%rax        # 16110 <g_517>
    f15b:	48 89 45 80          	mov    %rax,-0x80(%rbp)
    f15f:	48 8d 05 aa 6f 00 00 	lea    0x6faa(%rip),%rax        # 16110 <g_517>
    f166:	48 89 45 88          	mov    %rax,-0x78(%rbp)
    f16a:	48 8d 05 9f 6f 00 00 	lea    0x6f9f(%rip),%rax        # 16110 <g_517>
    f171:	48 89 45 90          	mov    %rax,-0x70(%rbp)
    f175:	48 8d 05 94 6f 00 00 	lea    0x6f94(%rip),%rax        # 16110 <g_517>
    f17c:	48 89 45 98          	mov    %rax,-0x68(%rbp)
    f180:	48 8d 05 89 6f 00 00 	lea    0x6f89(%rip),%rax        # 16110 <g_517>
    f187:	48 89 45 a0          	mov    %rax,-0x60(%rbp)
    f18b:	48 8d 05 7e 6f 00 00 	lea    0x6f7e(%rip),%rax        # 16110 <g_517>
    f192:	48 89 45 a8          	mov    %rax,-0x58(%rbp)
    f196:	48 8d 05 73 6f 00 00 	lea    0x6f73(%rip),%rax        # 16110 <g_517>
    f19d:	48 89 45 b0          	mov    %rax,-0x50(%rbp)
    f1a1:	48 8d 05 68 6f 00 00 	lea    0x6f68(%rip),%rax        # 16110 <g_517>
    f1a8:	48 89 45 b8          	mov    %rax,-0x48(%rbp)
    f1ac:	48 8d 05 5d 6f 00 00 	lea    0x6f5d(%rip),%rax        # 16110 <g_517>
    f1b3:	48 89 45 c0          	mov    %rax,-0x40(%rbp)
    f1b7:	48 8d 05 52 6f 00 00 	lea    0x6f52(%rip),%rax        # 16110 <g_517>
    f1be:	48 89 45 c8          	mov    %rax,-0x38(%rbp)
    f1c2:	c7 85 60 fe ff ff 01 	movl   $0x1,-0x1a0(%rbp)
    f1c9:	00 00 00 
    f1cc:	66 c7 85 52 fe ff ff 	movw   $0xc43f,-0x1ae(%rbp)
    f1d3:	3f c4 
    f1d5:	48 c7 85 38 fe ff ff 	movq   $0x0,-0x1c8(%rbp)
    f1dc:	00 00 00 00 
    f1e0:	e9 c3 03 00 00       	jmpq   f5a8 <func_113+0xa6c>
    f1e5:	48 c7 85 c0 fe ff ff 	movq   $0x0,-0x140(%rbp)
    f1ec:	00 00 00 00 
    f1f0:	48 8d 85 50 fe ff ff 	lea    -0x1b0(%rbp),%rax
    f1f7:	48 89 85 c8 fe ff ff 	mov    %rax,-0x138(%rbp)
    f1fe:	48 c7 85 d0 fe ff ff 	movq   $0x0,-0x130(%rbp)
    f205:	00 00 00 00 
    f209:	8b 9d 58 fe ff ff    	mov    -0x1a8(%rbp),%ebx
    f20f:	48 8b 05 6a 7d 00 00 	mov    0x7d6a(%rip),%rax        # 16f80 <g_18>
    f216:	0f b6 00             	movzbl (%rax),%eax
    f219:	44 0f be e8          	movsbl %al,%r13d
    f21d:	44 0f b7 a5 4c fe ff 	movzwl -0x1b4(%rbp),%r12d
    f224:	ff 
    f225:	b8 58 d5 db 3e       	mov    $0x3edbd558,%eax
    f22a:	41 89 c6             	mov    %eax,%r14d
    f22d:	0f b6 85 50 fe ff ff 	movzbl -0x1b0(%rbp),%eax
    f234:	84 c0                	test   %al,%al
    f236:	75 0c                	jne    f244 <func_113+0x708>
    f238:	48 8b 85 68 ff ff ff 	mov    -0x98(%rbp),%rax
    f23f:	48 85 c0             	test   %rax,%rax
    f242:	74 07                	je     f24b <func_113+0x70f>
    f244:	b8 01 00 00 00       	mov    $0x1,%eax
    f249:	eb 05                	jmp    f250 <func_113+0x714>
    f24b:	b8 00 00 00 00       	mov    $0x0,%eax
    f250:	0f bf d0             	movswl %ax,%edx
    f253:	48 8b 05 4e 7d 00 00 	mov    0x7d4e(%rip),%rax        # 16fa8 <g_511>
    f25a:	48 89 05 47 7d 00 00 	mov    %rax,0x7d47(%rip)        # 16fa8 <g_511>
    f261:	48 8b 05 40 7d 00 00 	mov    0x7d40(%rip),%rax        # 16fa8 <g_511>
    f268:	48 85 c0             	test   %rax,%rax
    f26b:	0f 95 c0             	setne  %al
    f26e:	0f b6 c0             	movzbl %al,%eax
    f271:	89 d6                	mov    %edx,%esi
    f273:	89 c7                	mov    %eax,%edi
    f275:	e8 39 51 ff ff       	callq  43b3 <safe_add_func_int16_t_s_s>
    f27a:	0f bf d0             	movswl %ax,%edx
    f27d:	0f b7 85 4c fe ff ff 	movzwl -0x1b4(%rbp),%eax
    f284:	09 85 60 fe ff ff    	or     %eax,-0x1a0(%rbp)
    f28a:	8b 85 60 fe ff ff    	mov    -0x1a0(%rbp),%eax
    f290:	83 e0 fe             	and    $0xfffffffe,%eax
    f293:	66 89 05 de 6d 00 00 	mov    %ax,0x6dde(%rip)        # 16078 <g_197>
    f29a:	0f b7 05 d7 6d 00 00 	movzwl 0x6dd7(%rip),%eax        # 16078 <g_197>
    f2a1:	0f b7 c0             	movzwl %ax,%eax
    f2a4:	09 c2                	or     %eax,%edx
    f2a6:	0f b6 05 d5 6d 00 00 	movzbl 0x6dd5(%rip),%eax        # 16082 <g_197+0xa>
    f2ad:	c1 e0 04             	shl    $0x4,%eax
    f2b0:	c0 f8 04             	sar    $0x4,%al
    f2b3:	0f be c0             	movsbl %al,%eax
    f2b6:	39 c2                	cmp    %eax,%edx
    f2b8:	0f 95 c0             	setne  %al
    f2bb:	89 c2                	mov    %eax,%edx
    f2bd:	48 8b 85 c8 fe ff ff 	mov    -0x138(%rbp),%rax
    f2c4:	88 10                	mov    %dl,(%rax)
    f2c6:	0f b7 85 4c fe ff ff 	movzwl -0x1b4(%rbp),%eax
    f2cd:	98                   	cwtl   
    f2ce:	44 89 f6             	mov    %r14d,%esi
    f2d1:	89 c7                	mov    %eax,%edi
    f2d3:	e8 09 52 ff ff       	callq  44e1 <safe_lshift_func_int16_t_s_u>
    f2d8:	83 c8 05             	or     $0x5,%eax
    f2db:	48 0f bf c0          	movswq %ax,%rax
    f2df:	48 8b 95 38 fe ff ff 	mov    -0x1c8(%rbp),%rdx
    f2e6:	48 8d 0c d5 00 00 00 	lea    0x0(,%rdx,8),%rcx
    f2ed:	00 
    f2ee:	48 8d 15 ab 6d 00 00 	lea    0x6dab(%rip),%rdx        # 160a0 <g_281>
    f2f5:	48 89 04 11          	mov    %rax,(%rcx,%rdx,1)
    f2f9:	48 8b 85 38 fe ff ff 	mov    -0x1c8(%rbp),%rax
    f300:	48 8d 14 c5 00 00 00 	lea    0x0(,%rax,8),%rdx
    f307:	00 
    f308:	48 8d 05 91 6d 00 00 	lea    0x6d91(%rip),%rax        # 160a0 <g_281>
    f30f:	48 8b 04 02          	mov    (%rdx,%rax,1),%rax
    f313:	48 39 85 38 fe ff ff 	cmp    %rax,-0x1c8(%rbp)
    f31a:	0f 93 c0             	setae  %al
    f31d:	0f b6 c0             	movzbl %al,%eax
    f320:	44 89 e6             	mov    %r12d,%esi
    f323:	89 c7                	mov    %eax,%edi
    f325:	e8 13 5a ff ff       	callq  4d3d <safe_mul_func_uint16_t_u_u>
    f32a:	0f b7 d0             	movzwl %ax,%edx
    f32d:	48 8b 05 6c 7c 00 00 	mov    0x7c6c(%rip),%rax        # 16fa0 <g_467>
    f334:	0f b7 00             	movzwl (%rax),%eax
    f337:	98                   	cwtl   
    f338:	39 c2                	cmp    %eax,%edx
    f33a:	b8 01 00 00 00       	mov    $0x1,%eax
    f33f:	44 39 e8             	cmp    %r13d,%eax
    f342:	0f 9c c0             	setl   %al
    f345:	0f b6 d0             	movzbl %al,%edx
    f348:	0f b7 05 31 6d 00 00 	movzwl 0x6d31(%rip),%eax        # 16080 <g_197+0x8>
    f34f:	8d 48 ff             	lea    -0x1(%rax),%ecx
    f352:	66 89 0d 27 6d 00 00 	mov    %cx,0x6d27(%rip)        # 16080 <g_197+0x8>
    f359:	0f b7 c0             	movzwl %ax,%eax
    f35c:	89 d6                	mov    %edx,%esi
    f35e:	89 c7                	mov    %eax,%edi
    f360:	e8 e3 5a ff ff       	callq  4e48 <safe_rshift_func_uint16_t_u_s>
    f365:	98                   	cwtl   
    f366:	be 04 00 00 00       	mov    $0x4,%esi
    f36b:	89 c7                	mov    %eax,%edi
    f36d:	e8 6f 51 ff ff       	callq  44e1 <safe_lshift_func_int16_t_s_u>
    f372:	66 85 c0             	test   %ax,%ax
    f375:	74 10                	je     f387 <func_113+0x84b>
    f377:	83 bd 58 fe ff ff 00 	cmpl   $0x0,-0x1a8(%rbp)
    f37e:	74 07                	je     f387 <func_113+0x84b>
    f380:	b8 01 00 00 00       	mov    $0x1,%eax
    f385:	eb 05                	jmp    f38c <func_113+0x850>
    f387:	b8 00 00 00 00       	mov    $0x0,%eax
    f38c:	89 de                	mov    %ebx,%esi
    f38e:	89 c7                	mov    %eax,%edi
    f390:	e8 23 5b ff ff       	callq  4eb8 <safe_add_func_uint32_t_u_u>
    f395:	0f be c0             	movsbl %al,%eax
    f398:	be f3 ff ff ff       	mov    $0xfffffff3,%esi
    f39d:	89 c7                	mov    %eax,%edi
    f39f:	e8 c6 4e ff ff       	callq  426a <safe_div_func_int8_t_s_s>
    f3a4:	84 c0                	test   %al,%al
    f3a6:	74 2f                	je     f3d7 <func_113+0x89b>
    f3a8:	48 c7 85 80 fe ff ff 	movq   $0x0,-0x180(%rbp)
    f3af:	00 00 00 00 
    f3b3:	48 8d 85 80 fe ff ff 	lea    -0x180(%rbp),%rax
    f3ba:	48 89 85 f0 fe ff ff 	mov    %rax,-0x110(%rbp)
    f3c1:	48 8b 95 80 fe ff ff 	mov    -0x180(%rbp),%rdx
    f3c8:	48 8b 85 f0 fe ff ff 	mov    -0x110(%rbp),%rax
    f3cf:	48 89 10             	mov    %rdx,(%rax)
    f3d2:	e9 c9 01 00 00       	jmpq   f5a0 <func_113+0xa64>
    f3d7:	c6 85 51 fe ff ff fc 	movb   $0xfc,-0x1af(%rbp)
    f3de:	48 8d 05 3b 6d 00 00 	lea    0x6d3b(%rip),%rax        # 16120 <g_534>
    f3e5:	48 89 85 d8 fe ff ff 	mov    %rax,-0x128(%rbp)
    f3ec:	48 8d 85 78 fe ff ff 	lea    -0x188(%rbp),%rax
    f3f3:	48 89 85 e0 fe ff ff 	mov    %rax,-0x120(%rbp)
    f3fa:	48 8d 05 20 6d 00 00 	lea    0x6d20(%rip),%rax        # 16121 <g_547>
    f401:	48 89 85 e8 fe ff ff 	mov    %rax,-0x118(%rbp)
    f408:	c7 85 64 fe ff ff 00 	movl   $0x0,-0x19c(%rbp)
    f40f:	00 00 00 
    f412:	eb 1a                	jmp    f42e <func_113+0x8f2>
    f414:	8b 85 64 fe ff ff    	mov    -0x19c(%rbp),%eax
    f41a:	48 98                	cltq   
    f41c:	c7 84 85 14 ff ff ff 	movl   $0x1,-0xec(%rbp,%rax,4)
    f423:	01 00 00 00 
    f427:	83 85 64 fe ff ff 01 	addl   $0x1,-0x19c(%rbp)
    f42e:	83 bd 64 fe ff ff 00 	cmpl   $0x0,-0x19c(%rbp)
    f435:	7e dd                	jle    f414 <func_113+0x8d8>
    f437:	8b 85 58 fe ff ff    	mov    -0x1a8(%rbp),%eax
    f43d:	30 85 51 fe ff ff    	xor    %al,-0x1af(%rbp)
    f443:	8b 9d 5c fe ff ff    	mov    -0x1a4(%rbp),%ebx
    f449:	48 8b 05 30 7b 00 00 	mov    0x7b30(%rip),%rax        # 16f80 <g_18>
    f450:	0f b6 00             	movzbl (%rax),%eax
    f453:	44 0f be e0          	movsbl %al,%r12d
    f457:	8b 05 eb 6b 00 00    	mov    0x6beb(%rip),%eax        # 16048 <g_59+0x8>
    f45d:	48 63 d0             	movslq %eax,%rdx
    f460:	48 8b 85 e0 fe ff ff 	mov    -0x120(%rbp),%rax
    f467:	48 89 10             	mov    %rdx,(%rax)
    f46a:	48 8b 05 97 6c 00 00 	mov    0x6c97(%rip),%rax        # 16108 <g_471>
    f471:	0f be d0             	movsbl %al,%edx
    f474:	48 8b 05 05 7b 00 00 	mov    0x7b05(%rip),%rax        # 16f80 <g_18>
    f47b:	0f b6 00             	movzbl (%rax),%eax
    f47e:	84 c0                	test   %al,%al
    f480:	75 09                	jne    f48b <func_113+0x94f>
    f482:	83 bd 5c fe ff ff 00 	cmpl   $0x0,-0x1a4(%rbp)
    f489:	74 07                	je     f492 <func_113+0x956>
    f48b:	b8 01 00 00 00       	mov    $0x1,%eax
    f490:	eb 05                	jmp    f497 <func_113+0x95b>
    f492:	b8 00 00 00 00       	mov    $0x0,%eax
    f497:	0f be c0             	movsbl %al,%eax
    f49a:	89 d6                	mov    %edx,%esi
    f49c:	89 c7                	mov    %eax,%edi
    f49e:	e8 6f 4d ff ff       	callq  4212 <safe_mul_func_int8_t_s_s>
    f4a3:	b8 01 00 00 00       	mov    $0x1,%eax
    f4a8:	48 98                	cltq   
    f4aa:	be 01 00 00 00       	mov    $0x1,%esi
    f4af:	48 89 c7             	mov    %rax,%rdi
    f4b2:	e8 fd 54 ff ff       	callq  49b4 <safe_mod_func_int64_t_s_s>
    f4b7:	98                   	cwtl   
    f4b8:	be 09 00 00 00       	mov    $0x9,%esi
    f4bd:	89 c7                	mov    %eax,%edi
    f4bf:	e8 31 4f ff ff       	callq  43f5 <safe_mul_func_int16_t_s_s>
    f4c4:	48 8b 85 e8 fe ff ff 	mov    -0x118(%rbp),%rax
    f4cb:	0f b6 00             	movzbl (%rax),%eax
    f4ce:	8d 50 01             	lea    0x1(%rax),%edx
    f4d1:	48 8b 85 e8 fe ff ff 	mov    -0x118(%rbp),%rax
    f4d8:	88 10                	mov    %dl,(%rax)
    f4da:	8b 85 54 fe ff ff    	mov    -0x1ac(%rbp),%eax
    f4e0:	c1 e8 1f             	shr    $0x1f,%eax
    f4e3:	0f b6 c0             	movzbl %al,%eax
    f4e6:	44 89 e6             	mov    %r12d,%esi
    f4e9:	89 c7                	mov    %eax,%edi
    f4eb:	e8 9d 57 ff ff       	callq  4c8d <safe_rshift_func_uint8_t_u_s>
    f4f0:	be 7a 00 00 00       	mov    $0x7a,%esi
    f4f5:	bf 01 00 00 00       	mov    $0x1,%edi
    f4fa:	e8 79 56 ff ff       	callq  4b78 <safe_sub_func_uint8_t_u_u>
    f4ff:	0f be c0             	movsbl %al,%eax
    f502:	89 de                	mov    %ebx,%esi
    f504:	89 c7                	mov    %eax,%edi
    f506:	e8 e3 4d ff ff       	callq  42ee <safe_lshift_func_int8_t_s_u>
    f50b:	0f b6 d0             	movzbl %al,%edx
    f50e:	48 8b 85 d8 fe ff ff 	mov    -0x128(%rbp),%rax
    f515:	0f b6 00             	movzbl (%rax),%eax
    f518:	8d 48 ff             	lea    -0x1(%rax),%ecx
    f51b:	48 8b 85 d8 fe ff ff 	mov    -0x128(%rbp),%rax
    f522:	88 08                	mov    %cl,(%rax)
    f524:	48 8b 85 d8 fe ff ff 	mov    -0x128(%rbp),%rax
    f52b:	0f b6 00             	movzbl (%rax),%eax
    f52e:	0f b6 c0             	movzbl %al,%eax
    f531:	89 d6                	mov    %edx,%esi
    f533:	89 c7                	mov    %eax,%edi
    f535:	e8 59 56 ff ff       	callq  4b93 <safe_mul_func_uint8_t_u_u>
    f53a:	84 c0                	test   %al,%al
    f53c:	0f 94 c0             	sete   %al
    f53f:	0f b6 c0             	movzbl %al,%eax
    f542:	39 85 60 fe ff ff    	cmp    %eax,-0x1a0(%rbp)
    f548:	0f 95 c0             	setne  %al
    f54b:	0f b6 c0             	movzbl %al,%eax
    f54e:	89 85 14 ff ff ff    	mov    %eax,-0xec(%rbp)
    f554:	48 8b 85 a0 fe ff ff 	mov    -0x160(%rbp),%rax
    f55b:	48 3b 85 d0 fe ff ff 	cmp    -0x130(%rbp),%rax
    f562:	0f 95 c0             	setne  %al
    f565:	0f b6 c0             	movzbl %al,%eax
    f568:	be 00 00 00 00       	mov    $0x0,%esi
    f56d:	89 c7                	mov    %eax,%edi
    f56f:	e8 e6 55 ff ff       	callq  4b5a <safe_add_func_uint8_t_u_u>
    f574:	84 c0                	test   %al,%al
    f576:	75 0a                	jne    f582 <func_113+0xa46>
    f578:	66 83 bd 52 fe ff ff 	cmpw   $0x0,-0x1ae(%rbp)
    f57f:	00 
    f580:	74 07                	je     f589 <func_113+0xa4d>
    f582:	b8 01 00 00 00       	mov    $0x1,%eax
    f587:	eb 05                	jmp    f58e <func_113+0xa52>
    f589:	b8 00 00 00 00       	mov    $0x0,%eax
    f58e:	89 85 60 fe ff ff    	mov    %eax,-0x1a0(%rbp)
    f594:	0f b7 85 52 fe ff ff 	movzwl -0x1ae(%rbp),%eax
    f59b:	e9 b9 00 00 00       	jmpq   f659 <func_113+0xb1d>
    f5a0:	48 83 85 38 fe ff ff 	addq   $0x1,-0x1c8(%rbp)
    f5a7:	01 
    f5a8:	48 83 bd 38 fe ff ff 	cmpq   $0x9,-0x1c8(%rbp)
    f5af:	09 
    f5b0:	0f 86 2f fc ff ff    	jbe    f1e5 <func_113+0x6a9>
    f5b6:	66 83 85 48 fe ff ff 	addw   $0x1,-0x1b8(%rbp)
    f5bd:	01 
    f5be:	66 83 bd 48 fe ff ff 	cmpw   $0x5,-0x1b8(%rbp)
    f5c5:	05 
    f5c6:	0f 85 45 fb ff ff    	jne    f111 <func_113+0x5d5>
    f5cc:	0f b7 05 3d 88 00 00 	movzwl 0x883d(%rip),%eax        # 17e10 <g_191>
    f5d3:	66 85 c0             	test   %ax,%ax
    f5d6:	74 0c                	je     f5e4 <func_113+0xaa8>
    f5d8:	e9 79 f6 ff ff       	jmpq   ec56 <func_113+0x11a>
    f5dd:	90                   	nop
    f5de:	e9 73 f6 ff ff       	jmpq   ec56 <func_113+0x11a>
    f5e3:	90                   	nop
    f5e4:	8b 05 86 6a 00 00    	mov    0x6a86(%rip),%eax        # 16070 <g_194>
    f5ea:	83 e8 01             	sub    $0x1,%eax
    f5ed:	89 05 7d 6a 00 00    	mov    %eax,0x6a7d(%rip)        # 16070 <g_194>
    f5f3:	8b 05 77 6a 00 00    	mov    0x6a77(%rip),%eax        # 16070 <g_194>
    f5f9:	85 c0                	test   %eax,%eax
    f5fb:	0f 89 cd f8 ff ff    	jns    eece <func_113+0x392>
    f601:	48 8b 05 60 6a 00 00 	mov    0x6a60(%rip),%rax        # 16068 <g_132>
    f608:	be 06 00 00 00       	mov    $0x6,%esi
    f60d:	89 c7                	mov    %eax,%edi
    f60f:	e8 bc 58 ff ff       	callq  4ed0 <safe_sub_func_uint32_t_u_u>
    f614:	89 c0                	mov    %eax,%eax
    f616:	48 89 05 4b 6a 00 00 	mov    %rax,0x6a4b(%rip)        # 16068 <g_132>
    f61d:	48 8b 05 44 6a 00 00 	mov    0x6a44(%rip),%rax        # 16068 <g_132>
    f624:	48 83 f8 e8          	cmp    $0xffffffffffffffe8,%rax
    f628:	0f 8c 1e f7 ff ff    	jl     ed4c <func_113+0x210>
    f62e:	48 8b 85 b0 fe ff ff 	mov    -0x150(%rbp),%rax
    f635:	48 8b 95 08 ff ff ff 	mov    -0xf8(%rbp),%rdx
    f63c:	48 89 10             	mov    %rdx,(%rax)
    f63f:	8b 95 10 ff ff ff    	mov    -0xf0(%rbp),%edx
    f645:	89 50 08             	mov    %edx,0x8(%rax)
    f648:	83 85 68 fe ff ff 01 	addl   $0x1,-0x198(%rbp)
    f64f:	48 8b 05 4a 79 00 00 	mov    0x794a(%rip),%rax        # 16fa0 <g_467>
    f656:	0f b7 00             	movzwl (%rax),%eax
    f659:	48 8b 5d d8          	mov    -0x28(%rbp),%rbx
    f65d:	64 48 33 1c 25 28 00 	xor    %fs:0x28,%rbx
    f664:	00 00 
    f666:	74 05                	je     f66d <func_113+0xb31>
    f668:	e8 03 4a ff ff       	callq  4070 <__stack_chk_fail@plt>
    f66d:	48 81 c4 b0 01 00 00 	add    $0x1b0,%rsp
    f674:	5b                   	pop    %rbx
    f675:	41 5c                	pop    %r12
    f677:	41 5d                	pop    %r13
    f679:	41 5e                	pop    %r14
    f67b:	5d                   	pop    %rbp
    f67c:	c3                   	retq   

000000000000f67d <func_118>:
    f67d:	f3 0f 1e fa          	endbr64 
    f681:	55                   	push   %rbp
    f682:	48 89 e5             	mov    %rsp,%rbp
    f685:	41 55                	push   %r13
    f687:	41 54                	push   %r12
    f689:	53                   	push   %rbx
    f68a:	48 81 ec 08 0b 00 00 	sub    $0xb08,%rsp
    f691:	89 bd fc f4 ff ff    	mov    %edi,-0xb04(%rbp)
    f697:	89 f0                	mov    %esi,%eax
    f699:	89 95 f4 f4 ff ff    	mov    %edx,-0xb0c(%rbp)
    f69f:	48 89 8d e8 f4 ff ff 	mov    %rcx,-0xb18(%rbp)
    f6a6:	88 85 f8 f4 ff ff    	mov    %al,-0xb08(%rbp)
    f6ac:	64 48 8b 04 25 28 00 	mov    %fs:0x28,%rax
    f6b3:	00 00 
    f6b5:	48 89 45 d8          	mov    %rax,-0x28(%rbp)
    f6b9:	31 c0                	xor    %eax,%eax
    f6bb:	48 c7 85 90 f5 ff ff 	movq   $0x0,-0xa70(%rbp)
    f6c2:	00 00 00 00 
    f6c6:	48 8d 05 87 69 00 00 	lea    0x6987(%rip),%rax        # 16054 <g_59+0x14>
    f6cd:	48 89 85 98 f5 ff ff 	mov    %rax,-0xa68(%rbp)
    f6d4:	48 c7 85 a0 f5 ff ff 	movq   $0x0,-0xa60(%rbp)
    f6db:	00 00 00 00 
    f6df:	48 8d 05 6e 69 00 00 	lea    0x696e(%rip),%rax        # 16054 <g_59+0x14>
    f6e6:	48 89 85 a8 f5 ff ff 	mov    %rax,-0xa58(%rbp)
    f6ed:	48 c7 85 b0 f5 ff ff 	movq   $0x0,-0xa50(%rbp)
    f6f4:	00 00 00 00 
    f6f8:	48 8d 05 51 69 00 00 	lea    0x6951(%rip),%rax        # 16050 <g_59+0x10>
    f6ff:	48 89 85 b8 f5 ff ff 	mov    %rax,-0xa48(%rbp)
    f706:	48 8d 05 47 69 00 00 	lea    0x6947(%rip),%rax        # 16054 <g_59+0x14>
    f70d:	48 89 85 c0 f5 ff ff 	mov    %rax,-0xa40(%rbp)
    f714:	48 8d 05 39 69 00 00 	lea    0x6939(%rip),%rax        # 16054 <g_59+0x14>
    f71b:	48 89 85 c8 f5 ff ff 	mov    %rax,-0xa38(%rbp)
    f722:	48 8d 05 2b 69 00 00 	lea    0x692b(%rip),%rax        # 16054 <g_59+0x14>
    f729:	48 89 85 d0 f5 ff ff 	mov    %rax,-0xa30(%rbp)
    f730:	48 8d 05 29 69 00 00 	lea    0x6929(%rip),%rax        # 16060 <g_59+0x20>
    f737:	48 89 85 d8 f5 ff ff 	mov    %rax,-0xa28(%rbp)
    f73e:	48 8d 05 1f 69 00 00 	lea    0x691f(%rip),%rax        # 16064 <g_59+0x24>
    f745:	48 89 85 e0 f5 ff ff 	mov    %rax,-0xa20(%rbp)
    f74c:	48 8d 05 01 69 00 00 	lea    0x6901(%rip),%rax        # 16054 <g_59+0x14>
    f753:	48 89 85 60 f5 ff ff 	mov    %rax,-0xaa0(%rbp)
    f75a:	48 8d 05 ff 68 00 00 	lea    0x68ff(%rip),%rax        # 16060 <g_59+0x20>
    f761:	48 89 85 68 f5 ff ff 	mov    %rax,-0xa98(%rbp)
    f768:	48 c7 85 e8 f5 ff ff 	movq   $0x0,-0xa18(%rbp)
    f76f:	00 00 00 00 
    f773:	48 c7 85 f0 f5 ff ff 	movq   $0x0,-0xa10(%rbp)
    f77a:	00 00 00 00 
    f77e:	48 c7 85 70 f5 ff ff 	movq   $0x0,-0xa90(%rbp)
    f785:	00 00 00 00 
    f789:	48 8d 05 cc 68 00 00 	lea    0x68cc(%rip),%rax        # 1605c <g_59+0x1c>
    f790:	48 89 85 f8 f5 ff ff 	mov    %rax,-0xa08(%rbp)
    f797:	48 c7 85 00 f6 ff ff 	movq   $0x0,-0xa00(%rbp)
    f79e:	00 00 00 00 
    f7a2:	66 c7 85 0e f5 ff ff 	movw   $0x9,-0xaf2(%rbp)
    f7a9:	09 00 
    f7ab:	c7 85 18 f5 ff ff ff 	movl   $0xffffffff,-0xae8(%rbp)
    f7b2:	ff ff ff 
    f7b5:	66 c7 85 e4 f6 ff ff 	movw   $0x7b,-0x91c(%rbp)
    f7bc:	7b 00 
    f7be:	0f b6 85 e6 f6 ff ff 	movzbl -0x91a(%rbp),%eax
    f7c5:	83 c8 1f             	or     $0x1f,%eax
    f7c8:	88 85 e6 f6 ff ff    	mov    %al,-0x91a(%rbp)
    f7ce:	8b 85 e8 f6 ff ff    	mov    -0x918(%rbp),%eax
    f7d4:	25 00 00 f8 ff       	and    $0xfff80000,%eax
    f7d9:	0d 91 01 00 00       	or     $0x191,%eax
    f7de:	89 85 e8 f6 ff ff    	mov    %eax,-0x918(%rbp)
    f7e4:	66 c7 85 ec f6 ff ff 	movw   $0xfff6,-0x914(%rbp)
    f7eb:	f6 ff 
    f7ed:	0f b6 85 ee f6 ff ff 	movzbl -0x912(%rbp),%eax
    f7f4:	83 e0 f0             	and    $0xfffffff0,%eax
    f7f7:	88 85 ee f6 ff ff    	mov    %al,-0x912(%rbp)
    f7fd:	48 c7 85 08 f6 ff ff 	movq   $0x0,-0x9f8(%rbp)
    f804:	00 00 00 00 
    f808:	48 8d 05 91 8d 00 00 	lea    0x8d91(%rip),%rax        # 185a0 <g_228>
    f80f:	48 89 85 10 f6 ff ff 	mov    %rax,-0x9f0(%rbp)
    f816:	c7 85 34 f5 ff ff 4f 	movl   $0x74d8d94f,-0xacc(%rbp)
    f81d:	d9 d8 74 
    f820:	48 c7 85 18 f6 ff ff 	movq   $0x0,-0x9e8(%rbp)
    f827:	00 00 00 00 
    f82b:	48 8d 05 46 68 00 00 	lea    0x6846(%rip),%rax        # 16078 <g_197>
    f832:	48 89 85 20 f6 ff ff 	mov    %rax,-0x9e0(%rbp)
    f839:	48 8d 85 e4 f6 ff ff 	lea    -0x91c(%rbp),%rax
    f840:	48 83 c0 08          	add    $0x8,%rax
    f844:	48 89 85 28 f6 ff ff 	mov    %rax,-0x9d8(%rbp)
    f84b:	48 c7 85 30 f6 ff ff 	movq   $0x0,-0x9d0(%rbp)
    f852:	00 00 00 00 
    f856:	c7 85 38 f5 ff ff e4 	movl   $0xb76930e4,-0xac8(%rbp)
    f85d:	30 69 b7 
    f860:	c7 85 1c f5 ff ff 00 	movl   $0x0,-0xae4(%rbp)
    f867:	00 00 00 
    f86a:	eb 1e                	jmp    f88a <func_118+0x20d>
    f86c:	8b 85 1c f5 ff ff    	mov    -0xae4(%rbp),%eax
    f872:	48 98                	cltq   
    f874:	48 8d 15 d9 67 00 00 	lea    0x67d9(%rip),%rdx        # 16054 <g_59+0x14>
    f87b:	48 89 94 c5 10 f7 ff 	mov    %rdx,-0x8f0(%rbp,%rax,8)
    f882:	ff 
    f883:	83 85 1c f5 ff ff 01 	addl   $0x1,-0xae4(%rbp)
    f88a:	83 bd 1c f5 ff ff 04 	cmpl   $0x4,-0xae4(%rbp)
    f891:	7e d9                	jle    f86c <func_118+0x1ef>
    f893:	90                   	nop
    f894:	83 ad 18 f5 ff ff 01 	subl   $0x1,-0xae8(%rbp)
    f89b:	c6 05 86 67 00 00 09 	movb   $0x9,0x6786(%rip)        # 16028 <g_19>
    f8a2:	e9 03 10 00 00       	jmpq   108aa <func_118+0x122d>
    f8a7:	48 8d 05 ba 67 00 00 	lea    0x67ba(%rip),%rax        # 16068 <g_132>
    f8ae:	48 89 85 38 f6 ff ff 	mov    %rax,-0x9c8(%rbp)
    f8b5:	c7 85 14 f5 ff ff 2f 	movl   $0x34325e2f,-0xaec(%rbp)
    f8bc:	5e 32 34 
    f8bf:	48 8d 85 50 fc ff ff 	lea    -0x3b0(%rbp),%rax
    f8c6:	48 8d 15 33 33 00 00 	lea    0x3333(%rip),%rdx        # 12c00 <g_1085+0xba8>
    f8cd:	b9 70 00 00 00       	mov    $0x70,%ecx
    f8d2:	48 89 c7             	mov    %rax,%rdi
    f8d5:	48 89 d6             	mov    %rdx,%rsi
    f8d8:	f3 48 a5             	rep movsq %ds:(%rsi),%es:(%rdi)
    f8db:	66 c7 85 40 f7 ff ff 	movw   $0xec8b,-0x8c0(%rbp)
    f8e2:	8b ec 
    f8e4:	66 c7 85 42 f7 ff ff 	movw   $0x1,-0x8be(%rbp)
    f8eb:	01 00 
    f8ed:	66 c7 85 44 f7 ff ff 	movw   $0xec8b,-0x8bc(%rbp)
    f8f4:	8b ec 
    f8f6:	66 c7 85 46 f7 ff ff 	movw   $0xa27d,-0x8ba(%rbp)
    f8fd:	7d a2 
    f8ff:	66 c7 85 48 f7 ff ff 	movw   $0x1,-0x8b8(%rbp)
    f906:	01 00 
    f908:	66 c7 85 4a f7 ff ff 	movw   $0x711b,-0x8b6(%rbp)
    f90f:	1b 71 
    f911:	66 c7 85 4c f7 ff ff 	movw   $0xa27d,-0x8b4(%rbp)
    f918:	7d a2 
    f91a:	66 c7 85 4e f7 ff ff 	movw   $0xa27d,-0x8b2(%rbp)
    f921:	7d a2 
    f923:	66 c7 85 50 f7 ff ff 	movw   $0x1,-0x8b0(%rbp)
    f92a:	01 00 
    f92c:	66 c7 85 52 f7 ff ff 	movw   $0x1,-0x8ae(%rbp)
    f933:	01 00 
    f935:	66 c7 85 54 f7 ff ff 	movw   $0xffff,-0x8ac(%rbp)
    f93c:	ff ff 
    f93e:	66 c7 85 56 f7 ff ff 	movw   $0x711b,-0x8aa(%rbp)
    f945:	1b 71 
    f947:	66 c7 85 58 f7 ff ff 	movw   $0x711b,-0x8a8(%rbp)
    f94e:	1b 71 
    f950:	66 c7 85 5a f7 ff ff 	movw   $0x1,-0x8a6(%rbp)
    f957:	01 00 
    f959:	66 c7 85 5c f7 ff ff 	movw   $0xffff,-0x8a4(%rbp)
    f960:	ff ff 
    f962:	66 c7 85 5e f7 ff ff 	movw   $0x1,-0x8a2(%rbp)
    f969:	01 00 
    f96b:	66 c7 85 60 f7 ff ff 	movw   $0x1,-0x8a0(%rbp)
    f972:	01 00 
    f974:	66 c7 85 62 f7 ff ff 	movw   $0xec8b,-0x89e(%rbp)
    f97b:	8b ec 
    f97d:	66 c7 85 64 f7 ff ff 	movw   $0xa27d,-0x89c(%rbp)
    f984:	7d a2 
    f986:	66 c7 85 66 f7 ff ff 	movw   $0xffff,-0x89a(%rbp)
    f98d:	ff ff 
    f98f:	66 c7 85 68 f7 ff ff 	movw   $0x1,-0x898(%rbp)
    f996:	01 00 
    f998:	66 c7 85 6a f7 ff ff 	movw   $0xec8b,-0x896(%rbp)
    f99f:	8b ec 
    f9a1:	66 c7 85 6c f7 ff ff 	movw   $0xec8b,-0x894(%rbp)
    f9a8:	8b ec 
    f9aa:	66 c7 85 6e f7 ff ff 	movw   $0x1,-0x892(%rbp)
    f9b1:	01 00 
    f9b3:	48 8d 85 60 f5 ff ff 	lea    -0xaa0(%rbp),%rax
    f9ba:	48 89 85 40 f6 ff ff 	mov    %rax,-0x9c0(%rbp)
    f9c1:	48 8d 85 14 f5 ff ff 	lea    -0xaec(%rbp),%rax
    f9c8:	48 89 85 b0 f7 ff ff 	mov    %rax,-0x850(%rbp)
    f9cf:	48 8d 85 14 f5 ff ff 	lea    -0xaec(%rbp),%rax
    f9d6:	48 89 85 b8 f7 ff ff 	mov    %rax,-0x848(%rbp)
    f9dd:	48 8d 85 14 f5 ff ff 	lea    -0xaec(%rbp),%rax
    f9e4:	48 89 85 c0 f7 ff ff 	mov    %rax,-0x840(%rbp)
    f9eb:	48 8d 85 14 f5 ff ff 	lea    -0xaec(%rbp),%rax
    f9f2:	48 89 85 c8 f7 ff ff 	mov    %rax,-0x838(%rbp)
    f9f9:	48 8d 85 14 f5 ff ff 	lea    -0xaec(%rbp),%rax
    fa00:	48 89 85 d0 f7 ff ff 	mov    %rax,-0x830(%rbp)
    fa07:	48 8d 85 14 f5 ff ff 	lea    -0xaec(%rbp),%rax
    fa0e:	48 89 85 d8 f7 ff ff 	mov    %rax,-0x828(%rbp)
    fa15:	48 8d 85 14 f5 ff ff 	lea    -0xaec(%rbp),%rax
    fa1c:	48 89 85 e0 f7 ff ff 	mov    %rax,-0x820(%rbp)
    fa23:	48 8d 85 14 f5 ff ff 	lea    -0xaec(%rbp),%rax
    fa2a:	48 89 85 e8 f7 ff ff 	mov    %rax,-0x818(%rbp)
    fa31:	c7 85 3c f5 ff ff 00 	movl   $0x0,-0xac4(%rbp)
    fa38:	00 00 00 
    fa3b:	48 8d 05 3e 66 00 00 	lea    0x663e(%rip),%rax        # 16080 <g_197+0x8>
    fa42:	48 89 85 78 f5 ff ff 	mov    %rax,-0xa88(%rbp)
    fa49:	48 8d 85 78 f5 ff ff 	lea    -0xa88(%rbp),%rax
    fa50:	48 89 85 48 f6 ff ff 	mov    %rax,-0x9b8(%rbp)
    fa57:	66 c7 85 70 f7 ff ff 	movw   $0xab,-0x890(%rbp)
    fa5e:	ab 00 
    fa60:	0f b6 85 72 f7 ff ff 	movzbl -0x88e(%rbp),%eax
    fa67:	83 e0 e0             	and    $0xffffffe0,%eax
    fa6a:	83 c8 04             	or     $0x4,%eax
    fa6d:	88 85 72 f7 ff ff    	mov    %al,-0x88e(%rbp)
    fa73:	8b 85 74 f7 ff ff    	mov    -0x88c(%rbp),%eax
    fa79:	25 00 00 f8 ff       	and    $0xfff80000,%eax
    fa7e:	83 c8 33             	or     $0x33,%eax
    fa81:	89 85 74 f7 ff ff    	mov    %eax,-0x88c(%rbp)
    fa87:	66 c7 85 78 f7 ff ff 	movw   $0x4edf,-0x888(%rbp)
    fa8e:	df 4e 
    fa90:	0f b6 85 7a f7 ff ff 	movzbl -0x886(%rbp),%eax
    fa97:	83 e0 f0             	and    $0xfffffff0,%eax
    fa9a:	83 c8 02             	or     $0x2,%eax
    fa9d:	88 85 7a f7 ff ff    	mov    %al,-0x886(%rbp)
    faa3:	66 c7 85 7c f7 ff ff 	movw   $0xab,-0x884(%rbp)
    faaa:	ab 00 
    faac:	0f b6 85 7e f7 ff ff 	movzbl -0x882(%rbp),%eax
    fab3:	83 e0 e0             	and    $0xffffffe0,%eax
    fab6:	83 c8 04             	or     $0x4,%eax
    fab9:	88 85 7e f7 ff ff    	mov    %al,-0x882(%rbp)
    fabf:	8b 85 80 f7 ff ff    	mov    -0x880(%rbp),%eax
    fac5:	25 00 00 f8 ff       	and    $0xfff80000,%eax
    faca:	83 c8 33             	or     $0x33,%eax
    facd:	89 85 80 f7 ff ff    	mov    %eax,-0x880(%rbp)
    fad3:	66 c7 85 84 f7 ff ff 	movw   $0x4edf,-0x87c(%rbp)
    fada:	df 4e 
    fadc:	0f b6 85 86 f7 ff ff 	movzbl -0x87a(%rbp),%eax
    fae3:	83 e0 f0             	and    $0xfffffff0,%eax
    fae6:	83 c8 02             	or     $0x2,%eax
    fae9:	88 85 86 f7 ff ff    	mov    %al,-0x87a(%rbp)
    faef:	66 c7 85 88 f7 ff ff 	movw   $0xab,-0x878(%rbp)
    faf6:	ab 00 
    faf8:	0f b6 85 8a f7 ff ff 	movzbl -0x876(%rbp),%eax
    faff:	83 e0 e0             	and    $0xffffffe0,%eax
    fb02:	83 c8 04             	or     $0x4,%eax
    fb05:	88 85 8a f7 ff ff    	mov    %al,-0x876(%rbp)
    fb0b:	8b 85 8c f7 ff ff    	mov    -0x874(%rbp),%eax
    fb11:	25 00 00 f8 ff       	and    $0xfff80000,%eax
    fb16:	83 c8 33             	or     $0x33,%eax
    fb19:	89 85 8c f7 ff ff    	mov    %eax,-0x874(%rbp)
    fb1f:	66 c7 85 90 f7 ff ff 	movw   $0x4edf,-0x870(%rbp)
    fb26:	df 4e 
    fb28:	0f b6 85 92 f7 ff ff 	movzbl -0x86e(%rbp),%eax
    fb2f:	83 e0 f0             	and    $0xfffffff0,%eax
    fb32:	83 c8 02             	or     $0x2,%eax
    fb35:	88 85 92 f7 ff ff    	mov    %al,-0x86e(%rbp)
    fb3b:	66 c7 85 94 f7 ff ff 	movw   $0xab,-0x86c(%rbp)
    fb42:	ab 00 
    fb44:	0f b6 85 96 f7 ff ff 	movzbl -0x86a(%rbp),%eax
    fb4b:	83 e0 e0             	and    $0xffffffe0,%eax
    fb4e:	83 c8 04             	or     $0x4,%eax
    fb51:	88 85 96 f7 ff ff    	mov    %al,-0x86a(%rbp)
    fb57:	8b 85 98 f7 ff ff    	mov    -0x868(%rbp),%eax
    fb5d:	25 00 00 f8 ff       	and    $0xfff80000,%eax
    fb62:	83 c8 33             	or     $0x33,%eax
    fb65:	89 85 98 f7 ff ff    	mov    %eax,-0x868(%rbp)
    fb6b:	66 c7 85 9c f7 ff ff 	movw   $0x4edf,-0x864(%rbp)
    fb72:	df 4e 
    fb74:	0f b6 85 9e f7 ff ff 	movzbl -0x862(%rbp),%eax
    fb7b:	83 e0 f0             	and    $0xfffffff0,%eax
    fb7e:	83 c8 02             	or     $0x2,%eax
    fb81:	88 85 9e f7 ff ff    	mov    %al,-0x862(%rbp)
    fb87:	66 c7 85 a0 f7 ff ff 	movw   $0xab,-0x860(%rbp)
    fb8e:	ab 00 
    fb90:	0f b6 85 a2 f7 ff ff 	movzbl -0x85e(%rbp),%eax
    fb97:	83 e0 e0             	and    $0xffffffe0,%eax
    fb9a:	83 c8 04             	or     $0x4,%eax
    fb9d:	88 85 a2 f7 ff ff    	mov    %al,-0x85e(%rbp)
    fba3:	8b 85 a4 f7 ff ff    	mov    -0x85c(%rbp),%eax
    fba9:	25 00 00 f8 ff       	and    $0xfff80000,%eax
    fbae:	83 c8 33             	or     $0x33,%eax
    fbb1:	89 85 a4 f7 ff ff    	mov    %eax,-0x85c(%rbp)
    fbb7:	66 c7 85 a8 f7 ff ff 	movw   $0x4edf,-0x858(%rbp)
    fbbe:	df 4e 
    fbc0:	0f b6 85 aa f7 ff ff 	movzbl -0x856(%rbp),%eax
    fbc7:	83 e0 f0             	and    $0xfffffff0,%eax
    fbca:	83 c8 02             	or     $0x2,%eax
    fbcd:	88 85 aa f7 ff ff    	mov    %al,-0x856(%rbp)
    fbd3:	c7 85 20 f5 ff ff 00 	movl   $0x0,-0xae0(%rbp)
    fbda:	00 00 00 
    fbdd:	eb 78                	jmp    fc57 <func_118+0x5da>
    fbdf:	c7 85 24 f5 ff ff 00 	movl   $0x0,-0xadc(%rbp)
    fbe6:	00 00 00 
    fbe9:	eb 5c                	jmp    fc47 <func_118+0x5ca>
    fbeb:	c7 85 28 f5 ff ff 00 	movl   $0x0,-0xad8(%rbp)
    fbf2:	00 00 00 
    fbf5:	eb 40                	jmp    fc37 <func_118+0x5ba>
    fbf7:	8b 85 28 f5 ff ff    	mov    -0xad8(%rbp),%eax
    fbfd:	48 63 c8             	movslq %eax,%rcx
    fc00:	8b 85 20 f5 ff ff    	mov    -0xae0(%rbp),%eax
    fc06:	48 63 d0             	movslq %eax,%rdx
    fc09:	8b 85 24 f5 ff ff    	mov    -0xadc(%rbp),%eax
    fc0f:	48 98                	cltq   
    fc11:	48 01 c2             	add    %rax,%rdx
    fc14:	48 89 d0             	mov    %rdx,%rax
    fc17:	48 c1 e0 03          	shl    $0x3,%rax
    fc1b:	48 01 d0             	add    %rdx,%rax
    fc1e:	48 01 c8             	add    %rcx,%rax
    fc21:	48 8d 15 00 64 00 00 	lea    0x6400(%rip),%rdx        # 16028 <g_19>
    fc28:	48 89 94 c5 f0 f8 ff 	mov    %rdx,-0x710(%rbp,%rax,8)
    fc2f:	ff 
    fc30:	83 85 28 f5 ff ff 01 	addl   $0x1,-0xad8(%rbp)
    fc37:	83 bd 28 f5 ff ff 08 	cmpl   $0x8,-0xad8(%rbp)
    fc3e:	7e b7                	jle    fbf7 <func_118+0x57a>
    fc40:	83 85 24 f5 ff ff 01 	addl   $0x1,-0xadc(%rbp)
    fc47:	83 bd 24 f5 ff ff 00 	cmpl   $0x0,-0xadc(%rbp)
    fc4e:	7e 9b                	jle    fbeb <func_118+0x56e>
    fc50:	83 85 20 f5 ff ff 01 	addl   $0x1,-0xae0(%rbp)
    fc57:	83 bd 20 f5 ff ff 05 	cmpl   $0x5,-0xae0(%rbp)
    fc5e:	0f 8e 7b ff ff ff    	jle    fbdf <func_118+0x562>
    fc64:	0f be 95 f8 f4 ff ff 	movsbl -0xb08(%rbp),%edx
    fc6b:	48 8d 05 f6 63 00 00 	lea    0x63f6(%rip),%rax        # 16068 <g_132>
    fc72:	48 39 85 38 f6 ff ff 	cmp    %rax,-0x9c8(%rbp)
    fc79:	0f 95 c0             	setne  %al
    fc7c:	0f b6 c0             	movzbl %al,%eax
    fc7f:	39 c2                	cmp    %eax,%edx
    fc81:	0f 9e c0             	setle  %al
    fc84:	0f b6 d0             	movzbl %al,%edx
    fc87:	48 8b 85 98 f5 ff ff 	mov    -0xa68(%rbp),%rax
    fc8e:	89 10                	mov    %edx,(%rax)
    fc90:	48 8b 85 60 f5 ff ff 	mov    -0xaa0(%rbp),%rax
    fc97:	8b 00                	mov    (%rax),%eax
    fc99:	85 c0                	test   %eax,%eax
    fc9b:	0f 84 91 00 00 00    	je     fd32 <func_118+0x6b5>
    fca1:	c7 85 18 f5 ff ff 00 	movl   $0x0,-0xae8(%rbp)
    fca8:	00 00 00 
    fcab:	eb 77                	jmp    fd24 <func_118+0x6a7>
    fcad:	66 c7 85 00 f7 ff ff 	movw   $0x84,-0x900(%rbp)
    fcb4:	84 00 
    fcb6:	0f b6 85 02 f7 ff ff 	movzbl -0x8fe(%rbp),%eax
    fcbd:	83 e0 e0             	and    $0xffffffe0,%eax
    fcc0:	88 85 02 f7 ff ff    	mov    %al,-0x8fe(%rbp)
    fcc6:	8b 85 04 f7 ff ff    	mov    -0x8fc(%rbp),%eax
    fccc:	25 00 00 f8 ff       	and    $0xfff80000,%eax
    fcd1:	0d 7e fe 07 00       	or     $0x7fe7e,%eax
    fcd6:	89 85 04 f7 ff ff    	mov    %eax,-0x8fc(%rbp)
    fcdc:	66 c7 85 08 f7 ff ff 	movw   $0x87d,-0x8f8(%rbp)
    fce3:	7d 08 
    fce5:	0f b6 85 0a f7 ff ff 	movzbl -0x8f6(%rbp),%eax
    fcec:	83 c8 0f             	or     $0xf,%eax
    fcef:	88 85 0a f7 ff ff    	mov    %al,-0x8f6(%rbp)
    fcf5:	48 8d 85 00 f7 ff ff 	lea    -0x900(%rbp),%rax
    fcfc:	48 89 85 88 f6 ff ff 	mov    %rax,-0x978(%rbp)
    fd03:	48 8b 85 88 f6 ff ff 	mov    -0x978(%rbp),%rax
    fd0a:	48 8b 95 00 f7 ff ff 	mov    -0x900(%rbp),%rdx
    fd11:	48 89 10             	mov    %rdx,(%rax)
    fd14:	8b 95 08 f7 ff ff    	mov    -0x8f8(%rbp),%edx
    fd1a:	89 50 08             	mov    %edx,0x8(%rax)
    fd1d:	83 85 18 f5 ff ff 01 	addl   $0x1,-0xae8(%rbp)
    fd24:	83 bd 18 f5 ff ff 08 	cmpl   $0x8,-0xae8(%rbp)
    fd2b:	76 80                	jbe    fcad <func_118+0x630>
    fd2d:	e9 bb 07 00 00       	jmpq   104ed <func_118+0xe70>
    fd32:	48 8d 85 a0 fa ff ff 	lea    -0x560(%rbp),%rax
    fd39:	48 8d 15 40 32 00 00 	lea    0x3240(%rip),%rdx        # 12f80 <g_1085+0xf28>
    fd40:	b9 36 00 00 00       	mov    $0x36,%ecx
    fd45:	48 89 c7             	mov    %rax,%rdi
    fd48:	48 89 d6             	mov    %rdx,%rsi
    fd4b:	f3 48 a5             	rep movsq %ds:(%rsi),%es:(%rdi)
    fd4e:	66 c7 85 f0 f6 ff ff 	movw   $0xf4,-0x910(%rbp)
    fd55:	f4 00 
    fd57:	0f b6 85 f2 f6 ff ff 	movzbl -0x90e(%rbp),%eax
    fd5e:	83 e0 e0             	and    $0xffffffe0,%eax
    fd61:	88 85 f2 f6 ff ff    	mov    %al,-0x90e(%rbp)
    fd67:	8b 85 f4 f6 ff ff    	mov    -0x90c(%rbp),%eax
    fd6d:	25 00 00 f8 ff       	and    $0xfff80000,%eax
    fd72:	0d 71 fd 07 00       	or     $0x7fd71,%eax
    fd77:	89 85 f4 f6 ff ff    	mov    %eax,-0x90c(%rbp)
    fd7d:	66 c7 85 f8 f6 ff ff 	movw   $0xd55b,-0x908(%rbp)
    fd84:	5b d5 
    fd86:	0f b6 85 fa f6 ff ff 	movzbl -0x906(%rbp),%eax
    fd8d:	83 e0 f0             	and    $0xfffffff0,%eax
    fd90:	83 c8 01             	or     $0x1,%eax
    fd93:	88 85 fa f6 ff ff    	mov    %al,-0x906(%rbp)
    fd99:	c7 85 f4 f4 ff ff f9 	movl   $0xfffffff9,-0xb0c(%rbp)
    fda0:	ff ff ff 
    fda3:	e9 33 07 00 00       	jmpq   104db <func_118+0xe5e>
    fda8:	c7 85 40 f8 ff ff e3 	movl   $0x41fae3,-0x7c0(%rbp)
    fdaf:	fa 41 00 
    fdb2:	66 c7 85 44 f8 ff ff 	movw   $0xc4fd,-0x7bc(%rbp)
    fdb9:	fd c4 
    fdbb:	c6 85 46 f8 ff ff 00 	movb   $0x0,-0x7ba(%rbp)
    fdc2:	c7 85 47 f8 ff ff 40 	movl   $0xc3ff0140,-0x7b9(%rbp)
    fdc9:	01 ff c3 
    fdcc:	66 c7 85 4b f8 ff ff 	movw   $0x107,-0x7b5(%rbp)
    fdd3:	07 01 
    fdd5:	c6 85 4d f8 ff ff f7 	movb   $0xf7,-0x7b3(%rbp)
    fddc:	c7 85 4e f8 ff ff 7d 	movl   $0x701057d,-0x7b2(%rbp)
    fde3:	05 01 07 
    fde6:	66 c7 85 52 f8 ff ff 	movw   $0x0,-0x7ae(%rbp)
    fded:	00 00 
    fdef:	c6 85 54 f8 ff ff 00 	movb   $0x0,-0x7ac(%rbp)
    fdf6:	c7 85 55 f8 ff ff 05 	movl   $0xf7f9f705,-0x7ab(%rbp)
    fdfd:	f7 f9 f7 
    fe00:	66 c7 85 59 f8 ff ff 	movw   $0x105,-0x7a7(%rbp)
    fe07:	05 01 
    fe09:	c6 85 5b f8 ff ff 39 	movb   $0x39,-0x7a5(%rbp)
    fe10:	c7 85 5c f8 ff ff 69 	movl   $0x19cc69,-0x7a4(%rbp)
    fe17:	cc 19 00 
    fe1a:	66 c7 85 60 f8 ff ff 	movw   $0x101,-0x7a0(%rbp)
    fe21:	01 01 
    fe23:	c6 85 62 f8 ff ff fd 	movb   $0xfd,-0x79e(%rbp)
    fe2a:	c7 85 63 f8 ff ff 01 	movl   $0x41f50001,-0x79d(%rbp)
    fe31:	00 f5 41 
    fe34:	66 c7 85 67 f8 ff ff 	movw   $0x100,-0x799(%rbp)
    fe3b:	00 01 
    fe3d:	c6 85 69 f8 ff ff 7c 	movb   $0x7c,-0x797(%rbp)
    fe44:	c7 85 6a f8 ff ff 69 	movl   $0xc3c40069,-0x796(%rbp)
    fe4b:	00 c4 c3 
    fe4e:	66 c7 85 6e f8 ff ff 	movw   $0x201,-0x792(%rbp)
    fe55:	01 02 
    fe57:	c6 85 70 f8 ff ff e3 	movb   $0xe3,-0x790(%rbp)
    fe5e:	c7 85 71 f8 ff ff 05 	movl   $0x38017105,-0x78f(%rbp)
    fe65:	71 01 38 
    fe68:	66 c7 85 75 f8 ff ff 	movw   $0xfdff,-0x78b(%rbp)
    fe6f:	ff fd 
    fe71:	c6 85 77 f8 ff ff f7 	movb   $0xf7,-0x789(%rbp)
    fe78:	c7 85 78 f8 ff ff 7d 	movl   $0xfff5dd7d,-0x788(%rbp)
    fe7f:	dd f5 ff 
    fe82:	66 c7 85 7c f8 ff ff 	movw   $0x805,-0x784(%rbp)
    fe89:	05 08 
    fe8b:	c6 85 7e f8 ff ff 01 	movb   $0x1,-0x782(%rbp)
    fe92:	c7 85 7f f8 ff ff 40 	movl   $0xdd020040,-0x781(%rbp)
    fe99:	00 02 dd 
    fe9c:	66 c7 85 83 f8 ff ff 	movw   $0x39,-0x77d(%rbp)
    fea3:	39 00 
    fea5:	c6 85 85 f8 ff ff 00 	movb   $0x0,-0x77b(%rbp)
    feac:	c7 85 86 f8 ff ff e3 	movl   $0x1b37ce3,-0x77a(%rbp)
    feb3:	7c b3 01 
    feb6:	66 c7 85 8a f8 ff ff 	movw   $0x17c,-0x776(%rbp)
    febd:	7c 01 
    febf:	c6 85 8c f8 ff ff 00 	movb   $0x0,-0x774(%rbp)
    fec6:	c7 85 8d f8 ff ff a6 	movl   $0x190139a6,-0x773(%rbp)
    fecd:	39 01 19 
    fed0:	66 c7 85 91 f8 ff ff 	movw   $0xff00,-0x76f(%rbp)
    fed7:	00 ff 
    fed9:	c6 85 93 f8 ff ff 01 	movb   $0x1,-0x76d(%rbp)
    fee0:	c7 85 94 f8 ff ff 08 	movl   $0x13d0508,-0x76c(%rbp)
    fee7:	05 3d 01 
    feea:	66 c7 85 98 f8 ff ff 	movw   $0x7edd,-0x768(%rbp)
    fef1:	dd 7e 
    fef3:	c6 85 9a f8 ff ff f7 	movb   $0xf7,-0x766(%rbp)
    fefa:	c7 85 9b f8 ff ff 10 	movl   $0xe347ff10,-0x765(%rbp)
    ff01:	ff 47 e3 
    ff04:	66 c7 85 9f f8 ff ff 	movw   $0x7171,-0x761(%rbp)
    ff0b:	71 71 
    ff0d:	c6 85 a1 f8 ff ff e3 	movb   $0xe3,-0x75f(%rbp)
    ff14:	c7 85 a2 f8 ff ff 19 	movl   $0x1190119,-0x75e(%rbp)
    ff1b:	01 19 01 
    ff1e:	66 c7 85 a6 f8 ff ff 	movw   $0xab00,-0x75a(%rbp)
    ff25:	00 ab 
    ff27:	c6 85 a8 f8 ff ff 7c 	movb   $0x7c,-0x758(%rbp)
    ff2e:	c7 85 a9 f8 ff ff e3 	movl   $0x10000e3,-0x757(%rbp)
    ff35:	00 00 01 
    ff38:	66 c7 85 ad f8 ff ff 	movw   $0xc400,-0x753(%rbp)
    ff3f:	00 c4 
    ff41:	c6 85 af f8 ff ff fd 	movb   $0xfd,-0x751(%rbp)
    ff48:	c7 85 b0 f8 ff ff 9b 	movl   $0xc301019b,-0x750(%rbp)
    ff4f:	01 01 c3 
    ff52:	66 c7 85 b4 f8 ff ff 	movw   $0xabcc,-0x74c(%rbp)
    ff59:	cc ab 
    ff5b:	c6 85 b6 f8 ff ff 39 	movb   $0x39,-0x74a(%rbp)
    ff62:	c7 85 b7 f8 ff ff 00 	movl   $0xb3e60500,-0x749(%rbp)
    ff69:	05 e6 b3 
    ff6c:	66 c7 85 bb f8 ff ff 	movw   $0x71f7,-0x745(%rbp)
    ff73:	f7 71 
    ff75:	c6 85 bd f8 ff ff 00 	movb   $0x0,-0x743(%rbp)
    ff7c:	c7 85 be f8 ff ff f7 	movl   $0xdd4b00f7,-0x742(%rbp)
    ff83:	00 4b dd 
    ff86:	66 c7 85 c2 f8 ff ff 	movw   $0x7e05,-0x73e(%rbp)
    ff8d:	05 7e 
    ff8f:	c6 85 c4 f8 ff ff f7 	movb   $0xf7,-0x73c(%rbp)
    ff96:	c7 85 c5 f8 ff ff 9b 	movl   $0x3919079b,-0x73b(%rbp)
    ff9d:	07 19 39 
    ffa0:	66 c7 85 c9 f8 ff ff 	movw   $0xff01,-0x737(%rbp)
    ffa7:	01 ff 
    ffa9:	c6 85 cb f8 ff ff 00 	movb   $0x0,-0x735(%rbp)
    ffb0:	c7 85 cc f8 ff ff 01 	movl   $0x4707fd01,-0x734(%rbp)
    ffb7:	fd 07 47 
    ffba:	66 c7 85 d0 f8 ff ff 	movw   $0x1fa,-0x730(%rbp)
    ffc1:	fa 01 
    ffc3:	c6 85 d2 f8 ff ff ff 	movb   $0xff,-0x72e(%rbp)
    ffca:	c7 85 d3 f8 ff ff c3 	movl   $0xc3fff7c3,-0x72d(%rbp)
    ffd1:	f7 ff c3 
    ffd4:	66 c7 85 d7 f8 ff ff 	movw   $0xfa,-0x729(%rbp)
    ffdb:	fa 00 
    ffdd:	c6 85 d9 f8 ff ff dd 	movb   $0xdd,-0x727(%rbp)
    ffe4:	c7 85 da f8 ff ff 10 	movl   $0x1017110,-0x726(%rbp)
    ffeb:	71 01 01 
    ffee:	66 c7 85 de f8 ff ff 	movw   $0x801,-0x722(%rbp)
    fff5:	01 08 
    fff7:	c6 85 e0 f8 ff ff f7 	movb   $0xf7,-0x720(%rbp)
    fffe:	c7 85 e1 f8 ff ff 08 	movl   $0x141e308,-0x71f(%rbp)
   10005:	e3 41 01 
   10008:	66 c7 85 e5 f8 ff ff 	movw   $0xfd05,-0x71b(%rbp)
   1000f:	05 fd 
   10011:	c6 85 e7 f8 ff ff 01 	movb   $0x1,-0x719(%rbp)
   10018:	c7 85 40 f5 ff ff 5d 	movl   $0x8df6465d,-0xac0(%rbp)
   1001f:	46 f6 8d 
   10022:	c7 85 44 f5 ff ff 05 	movl   $0x5,-0xabc(%rbp)
   10029:	00 00 00 
   1002c:	c7 85 48 f5 ff ff 93 	movl   $0x4526e093,-0xab8(%rbp)
   10033:	e0 26 45 
   10036:	c7 85 4c f5 ff ff 88 	movl   $0xa1c6e988,-0xab4(%rbp)
   1003d:	e9 c6 a1 
   10040:	c7 85 50 f5 ff ff fd 	movl   $0xfffffffd,-0xab0(%rbp)
   10047:	ff ff ff 
   1004a:	66 c7 85 00 f7 ff ff 	movw   $0x9b,-0x900(%rbp)
   10051:	9b 00 
   10053:	0f b6 85 02 f7 ff ff 	movzbl -0x8fe(%rbp),%eax
   1005a:	83 e0 e0             	and    $0xffffffe0,%eax
   1005d:	88 85 02 f7 ff ff    	mov    %al,-0x8fe(%rbp)
   10063:	8b 85 04 f7 ff ff    	mov    -0x8fc(%rbp),%eax
   10069:	25 00 00 f8 ff       	and    $0xfff80000,%eax
   1006e:	0c 85                	or     $0x85,%al
   10070:	89 85 04 f7 ff ff    	mov    %eax,-0x8fc(%rbp)
   10076:	66 c7 85 08 f7 ff ff 	movw   $0x0,-0x8f8(%rbp)
   1007d:	00 00 
   1007f:	0f b6 85 0a f7 ff ff 	movzbl -0x8f6(%rbp),%eax
   10086:	83 e0 f0             	and    $0xfffffff0,%eax
   10089:	83 c8 01             	or     $0x1,%eax
   1008c:	88 85 0a f7 ff ff    	mov    %al,-0x8f6(%rbp)
   10092:	48 c7 85 50 f6 ff ff 	movq   $0x0,-0x9b0(%rbp)
   10099:	00 00 00 00 
   1009d:	48 c7 05 c0 5f 00 00 	movq   $0xa,0x5fc0(%rip)        # 16068 <g_132>
   100a4:	0a 00 00 00 
   100a8:	e9 99 02 00 00       	jmpq   10346 <func_118+0xcc9>
   100ad:	48 b8 8d 75 98 04 58 	movabs $0xd45b90580498758d,%rax
   100b4:	90 5b d4 
   100b7:	48 89 85 70 f6 ff ff 	mov    %rax,-0x990(%rbp)
   100be:	c7 85 54 f5 ff ff f8 	movl   $0xfffffff8,-0xaac(%rbp)
   100c5:	ff ff ff 
   100c8:	48 8d 05 41 7d 00 00 	lea    0x7d41(%rip),%rax        # 17e10 <g_191>
   100cf:	48 89 85 78 f6 ff ff 	mov    %rax,-0x988(%rbp)
   100d6:	48 8b 85 38 fb ff ff 	mov    -0x4c8(%rbp),%rax
   100dd:	48 83 c0 01          	add    $0x1,%rax
   100e1:	48 89 85 38 fb ff ff 	mov    %rax,-0x4c8(%rbp)
   100e8:	48 8b 85 78 f6 ff ff 	mov    -0x988(%rbp),%rax
   100ef:	0f b7 00             	movzwl (%rax),%eax
   100f2:	83 f0 01             	xor    $0x1,%eax
   100f5:	89 c2                	mov    %eax,%edx
   100f7:	48 8b 85 78 f6 ff ff 	mov    -0x988(%rbp),%rax
   100fe:	66 89 10             	mov    %dx,(%rax)
   10101:	48 8b 85 78 f6 ff ff 	mov    -0x988(%rbp),%rax
   10108:	0f b7 00             	movzwl (%rax),%eax
   1010b:	0f b7 d0             	movzwl %ax,%edx
   1010e:	8b 05 2c 5f 00 00    	mov    0x5f2c(%rip),%eax        # 16040 <g_59>
   10114:	0f b7 c0             	movzwl %ax,%eax
   10117:	89 d6                	mov    %edx,%esi
   10119:	89 c7                	mov    %eax,%edi
   1011b:	e8 6e 4c ff ff       	callq  4d8e <safe_div_func_uint16_t_u_u>
   10120:	0f b7 d0             	movzwl %ax,%edx
   10123:	66 0f be 85 f8 f4 ff 	movsbw -0xb08(%rbp),%ax
   1012a:	ff 
   1012b:	0f b7 c0             	movzwl %ax,%eax
   1012e:	89 d6                	mov    %edx,%esi
   10130:	89 c7                	mov    %eax,%edi
   10132:	e8 06 4c ff ff       	callq  4d3d <safe_mul_func_uint16_t_u_u>
   10137:	0f bf d8             	movswl %ax,%ebx
   1013a:	80 bd f8 f4 ff ff 00 	cmpb   $0x0,-0xb08(%rbp)
   10141:	0f 95 c0             	setne  %al
   10144:	0f b6 d0             	movzbl %al,%edx
   10147:	48 8b 85 e8 f4 ff ff 	mov    -0xb18(%rbp),%rax
   1014e:	48 89 d6             	mov    %rdx,%rsi
   10151:	48 89 c7             	mov    %rax,%rdi
   10154:	e8 56 4f ff ff       	callq  50af <safe_div_func_uint64_t_u_u>
   10159:	98                   	cwtl   
   1015a:	89 de                	mov    %ebx,%esi
   1015c:	89 c7                	mov    %eax,%edi
   1015e:	e8 50 42 ff ff       	callq  43b3 <safe_add_func_int16_t_s_s>
   10163:	66 85 c0             	test   %ax,%ax
   10166:	0f 84 a8 01 00 00    	je     10314 <func_118+0xc97>
   1016c:	48 8d 85 f0 f6 ff ff 	lea    -0x910(%rbp),%rax
   10173:	48 89 85 f0 f7 ff ff 	mov    %rax,-0x810(%rbp)
   1017a:	48 8d 85 f0 f6 ff ff 	lea    -0x910(%rbp),%rax
   10181:	48 89 85 f8 f7 ff ff 	mov    %rax,-0x808(%rbp)
   10188:	48 8d 85 f0 f6 ff ff 	lea    -0x910(%rbp),%rax
   1018f:	48 89 85 00 f8 ff ff 	mov    %rax,-0x800(%rbp)
   10196:	48 8d 85 f0 f6 ff ff 	lea    -0x910(%rbp),%rax
   1019d:	48 89 85 08 f8 ff ff 	mov    %rax,-0x7f8(%rbp)
   101a4:	48 8d 85 f0 f6 ff ff 	lea    -0x910(%rbp),%rax
   101ab:	48 89 85 10 f8 ff ff 	mov    %rax,-0x7f0(%rbp)
   101b2:	48 8d 85 f0 f6 ff ff 	lea    -0x910(%rbp),%rax
   101b9:	48 89 85 18 f8 ff ff 	mov    %rax,-0x7e8(%rbp)
   101c0:	48 8d 85 f0 f6 ff ff 	lea    -0x910(%rbp),%rax
   101c7:	48 89 85 20 f8 ff ff 	mov    %rax,-0x7e0(%rbp)
   101ce:	48 8d 85 0e f5 ff ff 	lea    -0xaf2(%rbp),%rax
   101d5:	48 89 85 80 f6 ff ff 	mov    %rax,-0x980(%rbp)
   101dc:	8b 95 f4 f4 ff ff    	mov    -0xb0c(%rbp),%edx
   101e2:	48 8b 85 c0 f5 ff ff 	mov    -0xa40(%rbp),%rax
   101e9:	c7 00 00 00 00 00    	movl   $0x0,(%rax)
   101ef:	48 8b 85 c0 f5 ff ff 	mov    -0xa40(%rbp),%rax
   101f6:	8b 00                	mov    (%rax),%eax
   101f8:	89 d6                	mov    %edx,%esi
   101fa:	89 c7                	mov    %eax,%edi
   101fc:	e8 b5 43 ff ff       	callq  45b6 <safe_add_func_int32_t_s_s>
   10201:	89 05 69 5e 00 00    	mov    %eax,0x5e69(%rip)        # 16070 <g_194>
   10207:	48 8b 85 f0 f6 ff ff 	mov    -0x910(%rbp),%rax
   1020e:	48 89 05 63 5e 00 00 	mov    %rax,0x5e63(%rip)        # 16078 <g_197>
   10215:	8b 85 f8 f6 ff ff    	mov    -0x908(%rbp),%eax
   1021b:	89 05 5f 5e 00 00    	mov    %eax,0x5e5f(%rip)        # 16080 <g_197+0x8>
   10221:	48 8b 85 00 f7 ff ff 	mov    -0x900(%rbp),%rax
   10228:	48 89 85 e4 f6 ff ff 	mov    %rax,-0x91c(%rbp)
   1022f:	8b 85 08 f7 ff ff    	mov    -0x8f8(%rbp),%eax
   10235:	89 85 ec f6 ff ff    	mov    %eax,-0x914(%rbp)
   1023b:	0f b7 85 f8 f6 ff ff 	movzwl -0x908(%rbp),%eax
   10242:	0f b7 d8             	movzwl %ax,%ebx
   10245:	8b 05 31 5e 00 00    	mov    0x5e31(%rip),%eax        # 1607c <g_197+0x4>
   1024b:	c1 e0 0d             	shl    $0xd,%eax
   1024e:	c1 f8 0d             	sar    $0xd,%eax
   10251:	41 89 c4             	mov    %eax,%r12d
   10254:	8b 05 22 5e 00 00    	mov    0x5e22(%rip),%eax        # 1607c <g_197+0x4>
   1025a:	c1 e0 0d             	shl    $0xd,%eax
   1025d:	c1 f8 0d             	sar    $0xd,%eax
   10260:	41 89 c5             	mov    %eax,%r13d
   10263:	0f b6 85 0a f7 ff ff 	movzbl -0x8f6(%rbp),%eax
   1026a:	c1 e0 04             	shl    $0x4,%eax
   1026d:	c0 f8 04             	sar    $0x4,%al
   10270:	0f be c0             	movsbl %al,%eax
   10273:	39 85 fc f4 ff ff    	cmp    %eax,-0xb04(%rbp)
   10279:	0f 93 c0             	setae  %al
   1027c:	0f b6 d0             	movzbl %al,%edx
   1027f:	48 8b 85 e8 f4 ff ff 	mov    -0xb18(%rbp),%rax
   10286:	98                   	cwtl   
   10287:	89 d6                	mov    %edx,%esi
   10289:	89 c7                	mov    %eax,%edi
   1028b:	e8 65 41 ff ff       	callq  43f5 <safe_mul_func_int16_t_s_s>
   10290:	98                   	cwtl   
   10291:	44 21 e8             	and    %r13d,%eax
   10294:	be 0b 62 35 35       	mov    $0x3535620b,%esi
   10299:	89 c7                	mov    %eax,%edi
   1029b:	e8 18 4c ff ff       	callq  4eb8 <safe_add_func_uint32_t_u_u>
   102a0:	89 c2                	mov    %eax,%edx
   102a2:	48 8b 85 80 f6 ff ff 	mov    -0x980(%rbp),%rax
   102a9:	66 89 10             	mov    %dx,(%rax)
   102ac:	8b 05 a2 5d 00 00    	mov    0x5da2(%rip),%eax        # 16054 <g_59+0x14>
   102b2:	44 89 e6             	mov    %r12d,%esi
   102b5:	89 c7                	mov    %eax,%edi
   102b7:	e8 41 4c ff ff       	callq  4efd <safe_mod_func_uint32_t_u_u>
   102bc:	0f b7 c0             	movzwl %ax,%eax
   102bf:	89 de                	mov    %ebx,%esi
   102c1:	89 c7                	mov    %eax,%edi
   102c3:	e8 80 4b ff ff       	callq  4e48 <safe_rshift_func_uint16_t_u_s>
   102c8:	0f b7 05 a9 5d 00 00 	movzwl 0x5da9(%rip),%eax        # 16078 <g_197>
   102cf:	0f bf d8             	movswl %ax,%ebx
   102d2:	0f b6 05 a1 5d 00 00 	movzbl 0x5da1(%rip),%eax        # 1607a <g_197+0x2>
   102d9:	c1 e0 03             	shl    $0x3,%eax
   102dc:	c0 f8 03             	sar    $0x3,%al
   102df:	0f b6 c0             	movzbl %al,%eax
   102e2:	be 00 00 00 00       	mov    $0x0,%esi
   102e7:	89 c7                	mov    %eax,%edi
   102e9:	e8 d0 49 ff ff       	callq  4cbe <safe_rshift_func_uint8_t_u_u>
   102ee:	0f b6 c0             	movzbl %al,%eax
   102f1:	8b 95 fc f4 ff ff    	mov    -0xb04(%rbp),%edx
   102f7:	21 d0                	and    %edx,%eax
   102f9:	98                   	cwtl   
   102fa:	89 de                	mov    %ebx,%esi
   102fc:	89 c7                	mov    %eax,%edi
   102fe:	e8 f2 40 ff ff       	callq  43f5 <safe_mul_func_int16_t_s_s>
   10303:	66 85 c0             	test   %ax,%ax
   10306:	0f 9e c0             	setle  %al
   10309:	0f b6 c0             	movzbl %al,%eax
   1030c:	21 85 54 f5 ff ff    	and    %eax,-0xaac(%rbp)
   10312:	eb 12                	jmp    10326 <func_118+0xca9>
   10314:	0f b6 05 5f 5d 00 00 	movzbl 0x5d5f(%rip),%eax        # 1607a <g_197+0x2>
   1031b:	c1 e0 03             	shl    $0x3,%eax
   1031e:	c0 f8 03             	sar    $0x3,%al
   10321:	e9 cf 07 00 00       	jmpq   10af5 <func_118+0x1478>
   10326:	48 8b 05 3b 5d 00 00 	mov    0x5d3b(%rip),%rax        # 16068 <g_132>
   1032d:	0f b7 c0             	movzwl %ax,%eax
   10330:	be 02 00 00 00       	mov    $0x2,%esi
   10335:	89 c7                	mov    %eax,%edi
   10337:	e8 e3 49 ff ff       	callq  4d1f <safe_sub_func_uint16_t_u_u>
   1033c:	0f b7 c0             	movzwl %ax,%eax
   1033f:	48 89 05 22 5d 00 00 	mov    %rax,0x5d22(%rip)        # 16068 <g_132>
   10346:	48 8b 05 1b 5d 00 00 	mov    0x5d1b(%rip),%rax        # 16068 <g_132>
   1034d:	48 83 f8 e4          	cmp    $0xffffffffffffffe4,%rax
   10351:	0f 85 56 fd ff ff    	jne    100ad <func_118+0xa30>
   10357:	0f b7 05 1a 5d 00 00 	movzwl 0x5d1a(%rip),%eax        # 16078 <g_197>
   1035e:	0f b7 c0             	movzwl %ax,%eax
   10361:	48 8b 95 08 f6 ff ff 	mov    -0x9f8(%rbp),%rdx
   10368:	48 3b 95 50 f6 ff ff 	cmp    -0x9b0(%rbp),%rdx
   1036f:	89 c6                	mov    %eax,%esi
   10371:	bf 00 00 00 00       	mov    $0x0,%edi
   10376:	e8 82 4b ff ff       	callq  4efd <safe_mod_func_uint32_t_u_u>
   1037b:	0f b7 85 42 f7 ff ff 	movzwl -0x8be(%rbp),%eax
   10382:	0f b7 c0             	movzwl %ax,%eax
   10385:	be 01 00 00 00       	mov    $0x1,%esi
   1038a:	89 c7                	mov    %eax,%edi
   1038c:	e8 8e 49 ff ff       	callq  4d1f <safe_sub_func_uint16_t_u_u>
   10391:	48 8d 05 91 5c 00 00 	lea    0x5c91(%rip),%rax        # 16029 <g_23>
   10398:	48 39 85 50 f6 ff ff 	cmp    %rax,-0x9b0(%rbp)
   1039f:	0f 95 c0             	setne  %al
   103a2:	0f b6 d0             	movzbl %al,%edx
   103a5:	48 8b 85 a8 f5 ff ff 	mov    -0xa58(%rbp),%rax
   103ac:	8b 00                	mov    (%rax),%eax
   103ae:	21 c2                	and    %eax,%edx
   103b0:	48 8b 85 a8 f5 ff ff 	mov    -0xa58(%rbp),%rax
   103b7:	89 10                	mov    %edx,(%rax)
   103b9:	0f b6 05 c2 5c 00 00 	movzbl 0x5cc2(%rip),%eax        # 16082 <g_197+0xa>
   103c0:	83 e0 0f             	and    $0xf,%eax
   103c3:	84 c0                	test   %al,%al
   103c5:	0f 85 21 01 00 00    	jne    104ec <func_118+0xe6f>
   103cb:	c7 05 9b 5c 00 00 04 	movl   $0x4,0x5c9b(%rip)        # 16070 <g_194>
   103d2:	00 00 00 
   103d5:	e9 d5 00 00 00       	jmpq   104af <func_118+0xe32>
   103da:	48 c7 85 58 f6 ff ff 	movq   $0x0,-0x9a8(%rbp)
   103e1:	00 00 00 00 
   103e5:	48 c7 85 f0 f7 ff ff 	movq   $0x0,-0x810(%rbp)
   103ec:	00 00 00 00 
   103f0:	48 c7 85 f8 f7 ff ff 	movq   $0x0,-0x808(%rbp)
   103f7:	00 00 00 00 
   103fb:	48 8d 05 86 6b 00 00 	lea    0x6b86(%rip),%rax        # 16f88 <g_223>
   10402:	48 89 85 00 f8 ff ff 	mov    %rax,-0x800(%rbp)
   10409:	48 8d 05 78 6b 00 00 	lea    0x6b78(%rip),%rax        # 16f88 <g_223>
   10410:	48 89 85 08 f8 ff ff 	mov    %rax,-0x7f8(%rbp)
   10417:	48 c7 85 10 f8 ff ff 	movq   $0x0,-0x7f0(%rbp)
   1041e:	00 00 00 00 
   10422:	48 c7 85 18 f8 ff ff 	movq   $0x0,-0x7e8(%rbp)
   10429:	00 00 00 00 
   1042d:	48 c7 85 20 f8 ff ff 	movq   $0x0,-0x7e0(%rbp)
   10434:	00 00 00 00 
   10438:	48 8d 05 49 6b 00 00 	lea    0x6b49(%rip),%rax        # 16f88 <g_223>
   1043f:	48 89 85 28 f8 ff ff 	mov    %rax,-0x7d8(%rbp)
   10446:	48 8d 05 3b 6b 00 00 	lea    0x6b3b(%rip),%rax        # 16f88 <g_223>
   1044d:	48 89 85 30 f8 ff ff 	mov    %rax,-0x7d0(%rbp)
   10454:	48 c7 85 38 f8 ff ff 	movq   $0x0,-0x7c8(%rbp)
   1045b:	00 00 00 00 
   1045f:	48 c7 85 60 f6 ff ff 	movq   $0x0,-0x9a0(%rbp)
   10466:	00 00 00 00 
   1046a:	48 8d 85 68 f5 ff ff 	lea    -0xa98(%rbp),%rax
   10471:	48 89 85 68 f6 ff ff 	mov    %rax,-0x998(%rbp)
   10478:	48 8b 05 09 6b 00 00 	mov    0x6b09(%rip),%rax        # 16f88 <g_223>
   1047f:	48 89 85 10 f6 ff ff 	mov    %rax,-0x9f0(%rbp)
   10486:	8b 05 e4 5b 00 00    	mov    0x5be4(%rip),%eax        # 16070 <g_194>
   1048c:	48 98                	cltq   
   1048e:	48 8b 94 c5 10 f7 ff 	mov    -0x8f0(%rbp,%rax,8),%rdx
   10495:	ff 
   10496:	48 8b 85 68 f6 ff ff 	mov    -0x998(%rbp),%rax
   1049d:	48 89 10             	mov    %rdx,(%rax)
   104a0:	8b 05 ca 5b 00 00    	mov    0x5bca(%rip),%eax        # 16070 <g_194>
   104a6:	83 e8 01             	sub    $0x1,%eax
   104a9:	89 05 c1 5b 00 00    	mov    %eax,0x5bc1(%rip)        # 16070 <g_194>
   104af:	8b 05 bb 5b 00 00    	mov    0x5bbb(%rip),%eax        # 16070 <g_194>
   104b5:	85 c0                	test   %eax,%eax
   104b7:	0f 89 1d ff ff ff    	jns    103da <func_118+0xd5d>
   104bd:	8b 85 f4 f4 ff ff    	mov    -0xb0c(%rbp),%eax
   104c3:	0f b6 c0             	movzbl %al,%eax
   104c6:	be 08 00 00 00       	mov    $0x8,%esi
   104cb:	89 c7                	mov    %eax,%edi
   104cd:	e8 a6 46 ff ff       	callq  4b78 <safe_sub_func_uint8_t_u_u>
   104d2:	0f b6 c0             	movzbl %al,%eax
   104d5:	89 85 f4 f4 ff ff    	mov    %eax,-0xb0c(%rbp)
   104db:	8b 85 f4 f4 ff ff    	mov    -0xb0c(%rbp),%eax
   104e1:	83 f8 ec             	cmp    $0xffffffec,%eax
   104e4:	0f 85 be f8 ff ff    	jne    fda8 <func_118+0x72b>
   104ea:	eb 01                	jmp    104ed <func_118+0xe70>
   104ec:	90                   	nop
   104ed:	c7 85 f4 f4 ff ff 01 	movl   $0x1,-0xb0c(%rbp)
   104f4:	00 00 00 
   104f7:	e9 81 03 00 00       	jmpq   1087d <func_118+0x1200>
   104fc:	c7 85 58 f5 ff ff e8 	movl   $0xf3d79fe8,-0xaa8(%rbp)
   10503:	9f d7 f3 
   10506:	c7 85 5c f5 ff ff c6 	movl   $0x5489c1c6,-0xaa4(%rbp)
   1050d:	c1 89 54 
   10510:	48 8d 05 91 80 00 00 	lea    0x8091(%rip),%rax        # 185a8 <g_284>
   10517:	48 89 85 80 f5 ff ff 	mov    %rax,-0xa80(%rbp)
   1051e:	48 8d 85 80 f5 ff ff 	lea    -0xa80(%rbp),%rax
   10525:	48 89 85 90 f6 ff ff 	mov    %rax,-0x970(%rbp)
   1052c:	48 8d 85 80 f5 ff ff 	lea    -0xa80(%rbp),%rax
   10533:	48 89 85 98 f6 ff ff 	mov    %rax,-0x968(%rbp)
   1053a:	66 c7 85 10 f5 ff ff 	movw   $0x13a3,-0xaf0(%rbp)
   10541:	a3 13 
   10543:	8b 85 f4 f4 ff ff    	mov    -0xb0c(%rbp),%eax
   10549:	8b 8d f4 f4 ff ff    	mov    -0xb0c(%rbp),%ecx
   1054f:	48 98                	cltq   
   10551:	48 8b 94 c5 10 f7 ff 	mov    -0x8f0(%rbp,%rax,8),%rdx
   10558:	ff 
   10559:	48 63 c1             	movslq %ecx,%rax
   1055c:	48 89 94 c5 10 f7 ff 	mov    %rdx,-0x8f0(%rbp,%rax,8)
   10563:	ff 
   10564:	48 c7 85 e8 f4 ff ff 	movq   $0x0,-0xb18(%rbp)
   1056b:	00 00 00 00 
   1056f:	e9 ec 02 00 00       	jmpq   10860 <func_118+0x11e3>
   10574:	48 c7 85 a0 f6 ff ff 	movq   $0x0,-0x960(%rbp)
   1057b:	00 00 00 00 
   1057f:	48 8d 85 10 f7 ff ff 	lea    -0x8f0(%rbp),%rax
   10586:	48 83 c0 10          	add    $0x10,%rax
   1058a:	48 89 85 a8 f6 ff ff 	mov    %rax,-0x958(%rbp)
   10591:	66 c7 85 12 f5 ff ff 	movw   $0x4,-0xaee(%rbp)
   10598:	04 00 
   1059a:	48 8d 05 ff 5a 00 00 	lea    0x5aff(%rip),%rax        # 160a0 <g_281>
   105a1:	48 89 85 b0 f6 ff ff 	mov    %rax,-0x950(%rbp)
   105a8:	c7 85 2c f5 ff ff 00 	movl   $0x0,-0xad4(%rbp)
   105af:	00 00 00 
   105b2:	eb 1a                	jmp    105ce <func_118+0xf51>
   105b4:	8b 85 2c f5 ff ff    	mov    -0xad4(%rbp),%eax
   105ba:	48 98                	cltq   
   105bc:	c7 84 85 40 f8 ff ff 	movl   $0xfffffffd,-0x7c0(%rbp,%rax,4)
   105c3:	fd ff ff ff 
   105c7:	83 85 2c f5 ff ff 01 	addl   $0x1,-0xad4(%rbp)
   105ce:	83 bd 2c f5 ff ff 00 	cmpl   $0x0,-0xad4(%rbp)
   105d5:	7e dd                	jle    105b4 <func_118+0xf37>
   105d7:	be 04 00 00 00       	mov    $0x4,%esi
   105dc:	bf 31 00 00 00       	mov    $0x31,%edi
   105e1:	e8 a7 46 ff ff       	callq  4c8d <safe_rshift_func_uint8_t_u_s>
   105e6:	0f b6 d8             	movzbl %al,%ebx
   105e9:	48 83 bd a0 f6 ff ff 	cmpq   $0x0,-0x960(%rbp)
   105f0:	00 
   105f1:	0f 95 c0             	setne  %al
   105f4:	0f b6 c0             	movzbl %al,%eax
   105f7:	89 c6                	mov    %eax,%esi
   105f9:	bf 01 00 00 00       	mov    $0x1,%edi
   105fe:	e8 8a 46 ff ff       	callq  4c8d <safe_rshift_func_uint8_t_u_s>
   10603:	48 89 de             	mov    %rbx,%rsi
   10606:	bf 01 00 00 00       	mov    $0x1,%edi
   1060b:	e8 9f 4a ff ff       	callq  50af <safe_div_func_uint64_t_u_u>
   10610:	48 8b 15 69 69 00 00 	mov    0x6969(%rip),%rdx        # 16f80 <g_18>
   10617:	0f b6 12             	movzbl (%rdx),%edx
   1061a:	f7 d2                	not    %edx
   1061c:	48 0f be d2          	movsbq %dl,%rdx
   10620:	48 09 d0             	or     %rdx,%rax
   10623:	48 85 c0             	test   %rax,%rax
   10626:	74 07                	je     1062f <func_118+0xfb2>
   10628:	b8 01 00 00 00       	mov    $0x1,%eax
   1062d:	eb 05                	jmp    10634 <func_118+0xfb7>
   1062f:	b8 00 00 00 00       	mov    $0x0,%eax
   10634:	88 85 f8 f4 ff ff    	mov    %al,-0xb08(%rbp)
   1063a:	48 8d 85 40 f7 ff ff 	lea    -0x8c0(%rbp),%rax
   10641:	48 83 c0 02          	add    $0x2,%rax
   10645:	48 89 85 88 f5 ff ff 	mov    %rax,-0xa78(%rbp)
   1064c:	48 8d 05 01 1a 00 00 	lea    0x1a01(%rip),%rax        # 12054 <g_256>
   10653:	48 89 85 f0 f6 ff ff 	mov    %rax,-0x910(%rbp)
   1065a:	48 8d 85 f0 f6 ff ff 	lea    -0x910(%rbp),%rax
   10661:	48 89 85 b8 f6 ff ff 	mov    %rax,-0x948(%rbp)
   10668:	48 c7 85 00 f7 ff ff 	movq   $0x0,-0x900(%rbp)
   1066f:	00 00 00 00 
   10673:	48 8d 85 00 f7 ff ff 	lea    -0x900(%rbp),%rax
   1067a:	48 89 85 c0 f6 ff ff 	mov    %rax,-0x940(%rbp)
   10681:	66 c7 85 ec f6 ff ff 	movw   $0xb,-0x914(%rbp)
   10688:	0b 00 
   1068a:	e9 56 01 00 00       	jmpq   107e5 <func_118+0x1168>
   1068f:	48 8d 85 70 f5 ff ff 	lea    -0xa90(%rbp),%rax
   10696:	48 89 85 c8 f6 ff ff 	mov    %rax,-0x938(%rbp)
   1069d:	48 8d 85 88 f5 ff ff 	lea    -0xa78(%rbp),%rax
   106a4:	48 89 85 d0 f6 ff ff 	mov    %rax,-0x930(%rbp)
   106ab:	c6 85 0d f5 ff ff 01 	movb   $0x1,-0xaf3(%rbp)
   106b2:	48 c7 85 d8 f6 ff ff 	movq   $0x0,-0x928(%rbp)
   106b9:	00 00 00 00 
   106bd:	c7 85 30 f5 ff ff 00 	movl   $0x0,-0xad0(%rbp)
   106c4:	00 00 00 
   106c7:	eb 1e                	jmp    106e7 <func_118+0x106a>
   106c9:	8b 85 30 f5 ff ff    	mov    -0xad0(%rbp),%eax
   106cf:	48 98                	cltq   
   106d1:	48 8d 15 90 59 00 00 	lea    0x5990(%rip),%rdx        # 16068 <g_132>
   106d8:	48 89 94 c5 a0 fa ff 	mov    %rdx,-0x560(%rbp,%rax,8)
   106df:	ff 
   106e0:	83 85 30 f5 ff ff 01 	addl   $0x1,-0xad0(%rbp)
   106e7:	83 bd 30 f5 ff ff 01 	cmpl   $0x1,-0xad0(%rbp)
   106ee:	7e d9                	jle    106c9 <func_118+0x104c>
   106f0:	48 83 bd e8 f4 ff ff 	cmpq   $0x0,-0xb18(%rbp)
   106f7:	00 
   106f8:	74 05                	je     106ff <func_118+0x1082>
   106fa:	e9 95 f1 ff ff       	jmpq   f894 <func_118+0x217>
   106ff:	48 8b 85 c8 f6 ff ff 	mov    -0x938(%rbp),%rax
   10706:	48 8d 95 f4 f4 ff ff 	lea    -0xb0c(%rbp),%rdx
   1070d:	48 89 10             	mov    %rdx,(%rax)
   10710:	48 8b 85 40 f6 ff ff 	mov    -0x9c0(%rbp),%rax
   10717:	48 3b 85 a8 f6 ff ff 	cmp    -0x958(%rbp),%rax
   1071e:	0f 84 9f 00 00 00    	je     107c3 <func_118+0x1146>
   10724:	0f b6 05 57 59 00 00 	movzbl 0x5957(%rip),%eax        # 16082 <g_197+0xa>
   1072b:	c1 e0 04             	shl    $0x4,%eax
   1072e:	c0 f8 04             	sar    $0x4,%al
   10731:	66 98                	cbtw   
   10733:	0f b7 d8             	movzwl %ax,%ebx
   10736:	48 8d 05 2b 59 00 00 	lea    0x592b(%rip),%rax        # 16068 <g_132>
   1073d:	48 39 85 38 f6 ff ff 	cmp    %rax,-0x9c8(%rbp)
   10744:	0f 95 c0             	setne  %al
   10747:	0f b6 d0             	movzbl %al,%edx
   1074a:	0f be 85 f8 f4 ff ff 	movsbl -0xb08(%rbp),%eax
   10751:	39 c2                	cmp    %eax,%edx
   10753:	0f 9d c0             	setge  %al
   10756:	44 0f b6 e0          	movzbl %al,%r12d
   1075a:	8b 95 fc f4 ff ff    	mov    -0xb04(%rbp),%edx
   10760:	48 8b 8d 88 f5 ff ff 	mov    -0xa78(%rbp),%rcx
   10767:	48 8b 85 d0 f6 ff ff 	mov    -0x930(%rbp),%rax
   1076e:	48 89 08             	mov    %rcx,(%rax)
   10771:	0f b6 85 0d f5 ff ff 	movzbl -0xaf3(%rbp),%eax
   10778:	48 89 05 e9 58 00 00 	mov    %rax,0x58e9(%rip)        # 16068 <g_132>
   1077f:	48 8b 05 e2 58 00 00 	mov    0x58e2(%rip),%rax        # 16068 <g_132>
   10786:	48 89 d6             	mov    %rdx,%rsi
   10789:	48 89 c7             	mov    %rax,%rdi
   1078c:	e8 b0 40 ff ff       	callq  4841 <safe_add_func_int64_t_s_s>
   10791:	49 39 c4             	cmp    %rax,%r12
   10794:	7f 10                	jg     107a6 <func_118+0x1129>
   10796:	80 bd f8 f4 ff ff 00 	cmpb   $0x0,-0xb08(%rbp)
   1079d:	74 07                	je     107a6 <func_118+0x1129>
   1079f:	b8 01 00 00 00       	mov    $0x1,%eax
   107a4:	eb 05                	jmp    107ab <func_118+0x112e>
   107a6:	b8 00 00 00 00       	mov    $0x0,%eax
   107ab:	0f b7 c0             	movzwl %ax,%eax
   107ae:	89 de                	mov    %ebx,%esi
   107b0:	89 c7                	mov    %eax,%edi
   107b2:	e8 d7 45 ff ff       	callq  4d8e <safe_div_func_uint16_t_u_u>
   107b7:	66 85 c0             	test   %ax,%ax
   107ba:	74 07                	je     107c3 <func_118+0x1146>
   107bc:	ba 01 00 00 00       	mov    $0x1,%edx
   107c1:	eb 05                	jmp    107c8 <func_118+0x114b>
   107c3:	ba 00 00 00 00       	mov    $0x0,%edx
   107c8:	48 8b 85 40 f6 ff ff 	mov    -0x9c0(%rbp),%rax
   107cf:	48 8b 00             	mov    (%rax),%rax
   107d2:	89 10                	mov    %edx,(%rax)
   107d4:	0f b7 85 ec f6 ff ff 	movzwl -0x914(%rbp),%eax
   107db:	83 c0 01             	add    $0x1,%eax
   107de:	66 89 85 ec f6 ff ff 	mov    %ax,-0x914(%rbp)
   107e5:	0f b7 85 ec f6 ff ff 	movzwl -0x914(%rbp),%eax
   107ec:	66 83 f8 15          	cmp    $0x15,%ax
   107f0:	0f 86 99 fe ff ff    	jbe    1068f <func_118+0x1012>
   107f6:	48 8b 85 b8 f6 ff ff 	mov    -0x948(%rbp),%rax
   107fd:	48 8d 15 54 58 00 00 	lea    0x5854(%rip),%rdx        # 16058 <g_59+0x18>
   10804:	48 89 10             	mov    %rdx,(%rax)
   10807:	48 8b 85 b8 f6 ff ff 	mov    -0x948(%rbp),%rax
   1080e:	48 8b 10             	mov    (%rax),%rdx
   10811:	48 8b 85 c0 f6 ff ff 	mov    -0x940(%rbp),%rax
   10818:	48 89 10             	mov    %rdx,(%rax)
   1081b:	8b 85 f4 f4 ff ff    	mov    -0xb0c(%rbp),%eax
   10821:	48 98                	cltq   
   10823:	48 8b 94 c5 10 f7 ff 	mov    -0x8f0(%rbp,%rax,8),%rdx
   1082a:	ff 
   1082b:	48 8b 85 40 f6 ff ff 	mov    -0x9c0(%rbp),%rax
   10832:	48 89 10             	mov    %rdx,(%rax)
   10835:	66 c7 05 42 58 00 00 	movw   $0xffe5,0x5842(%rip)        # 16080 <g_197+0x8>
   1083c:	e5 ff 
   1083e:	90                   	nop
   1083f:	0f b7 05 3a 58 00 00 	movzwl 0x583a(%rip),%eax        # 16080 <g_197+0x8>
   10846:	66 83 f8 12          	cmp    $0x12,%ax
   1084a:	74 0c                	je     10858 <func_118+0x11db>
   1084c:	0f b6 85 f8 f4 ff ff 	movzbl -0xb08(%rbp),%eax
   10853:	e9 9d 02 00 00       	jmpq   10af5 <func_118+0x1478>
   10858:	48 83 85 e8 f4 ff ff 	addq   $0x1,-0xb18(%rbp)
   1085f:	01 
   10860:	48 83 bd e8 f4 ff ff 	cmpq   $0x3,-0xb18(%rbp)
   10867:	03 
   10868:	0f 86 06 fd ff ff    	jbe    10574 <func_118+0xef7>
   1086e:	8b 85 f4 f4 ff ff    	mov    -0xb0c(%rbp),%eax
   10874:	83 c0 01             	add    $0x1,%eax
   10877:	89 85 f4 f4 ff ff    	mov    %eax,-0xb0c(%rbp)
   1087d:	8b 85 f4 f4 ff ff    	mov    -0xb0c(%rbp),%eax
   10883:	83 f8 04             	cmp    $0x4,%eax
   10886:	0f 8e 70 fc ff ff    	jle    104fc <func_118+0xe7f>
   1088c:	0f b6 05 95 57 00 00 	movzbl 0x5795(%rip),%eax        # 16028 <g_19>
   10893:	66 98                	cbtw   
   10895:	0f b7 c0             	movzwl %ax,%eax
   10898:	be 02 00 00 00       	mov    $0x2,%esi
   1089d:	89 c7                	mov    %eax,%edi
   1089f:	e8 7b 44 ff ff       	callq  4d1f <safe_sub_func_uint16_t_u_u>
   108a4:	88 05 7e 57 00 00    	mov    %al,0x577e(%rip)        # 16028 <g_19>
   108aa:	0f b6 05 77 57 00 00 	movzbl 0x5777(%rip),%eax        # 16028 <g_19>
   108b1:	3c e3                	cmp    $0xe3,%al
   108b3:	0f 8c ee ef ff ff    	jl     f8a7 <func_118+0x22a>
   108b9:	c7 05 2d 58 00 00 00 	movl   $0x0,0x582d(%rip)        # 160f0 <g_293>
   108c0:	00 00 00 
   108c3:	e9 1d 01 00 00       	jmpq   109e5 <func_118+0x1368>
   108c8:	48 8d 05 a9 57 00 00 	lea    0x57a9(%rip),%rax        # 16078 <g_197>
   108cf:	48 89 85 a0 fa ff ff 	mov    %rax,-0x560(%rbp)
   108d6:	48 8d 05 9b 57 00 00 	lea    0x579b(%rip),%rax        # 16078 <g_197>
   108dd:	48 89 85 a8 fa ff ff 	mov    %rax,-0x558(%rbp)
   108e4:	48 8d 85 e4 f6 ff ff 	lea    -0x91c(%rbp),%rax
   108eb:	48 89 85 b0 fa ff ff 	mov    %rax,-0x550(%rbp)
   108f2:	48 8d 85 e4 f6 ff ff 	lea    -0x91c(%rbp),%rax
   108f9:	48 89 85 b8 fa ff ff 	mov    %rax,-0x548(%rbp)
   10900:	48 8d 05 71 57 00 00 	lea    0x5771(%rip),%rax        # 16078 <g_197>
   10907:	48 89 85 c0 fa ff ff 	mov    %rax,-0x540(%rbp)
   1090e:	48 8d 85 e4 f6 ff ff 	lea    -0x91c(%rbp),%rax
   10915:	48 89 85 c8 fa ff ff 	mov    %rax,-0x538(%rbp)
   1091c:	48 8d 85 e4 f6 ff ff 	lea    -0x91c(%rbp),%rax
   10923:	48 89 85 d0 fa ff ff 	mov    %rax,-0x530(%rbp)
   1092a:	48 8d 05 47 57 00 00 	lea    0x5747(%rip),%rax        # 16078 <g_197>
   10931:	48 89 85 d8 fa ff ff 	mov    %rax,-0x528(%rbp)
   10938:	48 8d 85 a0 fa ff ff 	lea    -0x560(%rbp),%rax
   1093f:	48 83 c0 30          	add    $0x30,%rax
   10943:	48 89 85 50 fc ff ff 	mov    %rax,-0x3b0(%rbp)
   1094a:	48 8d 85 a0 fa ff ff 	lea    -0x560(%rbp),%rax
   10951:	48 83 c0 18          	add    $0x18,%rax
   10955:	48 89 85 58 fc ff ff 	mov    %rax,-0x3a8(%rbp)
   1095c:	48 8d 85 a0 fa ff ff 	lea    -0x560(%rbp),%rax
   10963:	48 83 c0 18          	add    $0x18,%rax
   10967:	48 89 85 60 fc ff ff 	mov    %rax,-0x3a0(%rbp)
   1096e:	48 8d 85 a0 fa ff ff 	lea    -0x560(%rbp),%rax
   10975:	48 83 c0 30          	add    $0x30,%rax
   10979:	48 89 85 68 fc ff ff 	mov    %rax,-0x398(%rbp)
   10980:	48 8d 85 a0 fa ff ff 	lea    -0x560(%rbp),%rax
   10987:	48 83 c0 18          	add    $0x18,%rax
   1098b:	48 89 85 70 fc ff ff 	mov    %rax,-0x390(%rbp)
   10992:	48 8d 85 a0 fa ff ff 	lea    -0x560(%rbp),%rax
   10999:	48 83 c0 18          	add    $0x18,%rax
   1099d:	48 89 85 78 fc ff ff 	mov    %rax,-0x388(%rbp)
   109a4:	48 8d 85 a0 fa ff ff 	lea    -0x560(%rbp),%rax
   109ab:	48 83 c0 30          	add    $0x30,%rax
   109af:	48 89 85 80 fc ff ff 	mov    %rax,-0x380(%rbp)
   109b6:	48 8d 85 a0 fa ff ff 	lea    -0x560(%rbp),%rax
   109bd:	48 83 c0 18          	add    $0x18,%rax
   109c1:	48 89 85 88 fc ff ff 	mov    %rax,-0x378(%rbp)
   109c8:	48 8b 85 b8 fa ff ff 	mov    -0x548(%rbp),%rax
   109cf:	48 89 85 20 f6 ff ff 	mov    %rax,-0x9e0(%rbp)
   109d6:	8b 05 14 57 00 00    	mov    0x5714(%rip),%eax        # 160f0 <g_293>
   109dc:	83 c0 01             	add    $0x1,%eax
   109df:	89 05 0b 57 00 00    	mov    %eax,0x570b(%rip)        # 160f0 <g_293>
   109e5:	8b 05 05 57 00 00    	mov    0x5705(%rip),%eax        # 160f0 <g_293>
   109eb:	83 f8 04             	cmp    $0x4,%eax
   109ee:	0f 86 d4 fe ff ff    	jbe    108c8 <func_118+0x124b>
   109f4:	48 8b 85 f8 f5 ff ff 	mov    -0xa08(%rbp),%rax
   109fb:	8b 00                	mov    (%rax),%eax
   109fd:	0f bf d8             	movswl %ax,%ebx
   10a00:	48 8b 85 e8 f4 ff ff 	mov    -0xb18(%rbp),%rax
   10a07:	41 89 c4             	mov    %eax,%r12d
   10a0a:	be 0b 00 00 00       	mov    $0xb,%esi
   10a0f:	bf 00 00 00 00       	mov    $0x0,%edi
   10a14:	e8 79 3a ff ff       	callq  4492 <safe_lshift_func_int16_t_s_s>
   10a19:	98                   	cwtl   
   10a1a:	48 8b 95 28 f6 ff ff 	mov    -0x9d8(%rbp),%rdx
   10a21:	0f b7 0a             	movzwl (%rdx),%ecx
   10a24:	0f b7 15 e5 73 00 00 	movzwl 0x73e5(%rip),%edx        # 17e10 <g_191>
   10a2b:	21 d1                	and    %edx,%ecx
   10a2d:	48 8b 95 28 f6 ff ff 	mov    -0x9d8(%rbp),%rdx
   10a34:	66 89 0a             	mov    %cx,(%rdx)
   10a37:	48 8b 95 28 f6 ff ff 	mov    -0x9d8(%rbp),%rdx
   10a3e:	0f b7 0a             	movzwl (%rdx),%ecx
   10a41:	0f b7 15 38 56 00 00 	movzwl 0x5638(%rip),%edx        # 16080 <g_197+0x8>
   10a48:	09 ca                	or     %ecx,%edx
   10a4a:	66 89 15 2f 56 00 00 	mov    %dx,0x562f(%rip)        # 16080 <g_197+0x8>
   10a51:	89 c6                	mov    %eax,%esi
   10a53:	bf 01 00 00 00       	mov    $0x1,%edi
   10a58:	e8 56 39 ff ff       	callq  43b3 <safe_add_func_int16_t_s_s>
   10a5d:	8b 05 8d 56 00 00    	mov    0x568d(%rip),%eax        # 160f0 <g_293>
   10a63:	0f be d0             	movsbl %al,%edx
   10a66:	8b 85 f4 f4 ff ff    	mov    -0xb0c(%rbp),%eax
   10a6c:	0f be c0             	movsbl %al,%eax
   10a6f:	89 d6                	mov    %edx,%esi
   10a71:	89 c7                	mov    %eax,%edi
   10a73:	e8 9a 37 ff ff       	callq  4212 <safe_mul_func_int8_t_s_s>
   10a78:	38 85 f8 f4 ff ff    	cmp    %al,-0xb08(%rbp)
   10a7e:	8b 85 f4 f4 ff ff    	mov    -0xb0c(%rbp),%eax
   10a84:	3d db 00 00 00       	cmp    $0xdb,%eax
   10a89:	0f 9f c0             	setg   %al
   10a8c:	0f b6 c0             	movzbl %al,%eax
   10a8f:	44 89 e6             	mov    %r12d,%esi
   10a92:	89 c7                	mov    %eax,%edi
   10a94:	e8 37 44 ff ff       	callq  4ed0 <safe_sub_func_uint32_t_u_u>
   10a99:	85 c0                	test   %eax,%eax
   10a9b:	74 14                	je     10ab1 <func_118+0x1434>
   10a9d:	48 8b 85 98 f5 ff ff 	mov    -0xa68(%rbp),%rax
   10aa4:	8b 00                	mov    (%rax),%eax
   10aa6:	85 c0                	test   %eax,%eax
   10aa8:	74 07                	je     10ab1 <func_118+0x1434>
   10aaa:	b8 01 00 00 00       	mov    $0x1,%eax
   10aaf:	eb 05                	jmp    10ab6 <func_118+0x1439>
   10ab1:	b8 00 00 00 00       	mov    $0x0,%eax
   10ab6:	48 98                	cltq   
   10ab8:	be 00 00 00 00       	mov    $0x0,%esi
   10abd:	48 89 c7             	mov    %rax,%rdi
   10ac0:	e8 7c 3d ff ff       	callq  4841 <safe_add_func_int64_t_s_s>
   10ac5:	0f b7 c0             	movzwl %ax,%eax
   10ac8:	be 01 00 00 00       	mov    $0x1,%esi
   10acd:	89 c7                	mov    %eax,%edi
   10acf:	e8 69 42 ff ff       	callq  4d3d <safe_mul_func_uint16_t_u_u>
   10ad4:	48 8b 85 68 f5 ff ff 	mov    -0xa98(%rbp),%rax
   10adb:	8b 00                	mov    (%rax),%eax
   10add:	98                   	cwtl   
   10ade:	89 de                	mov    %ebx,%esi
   10ae0:	89 c7                	mov    %eax,%edi
   10ae2:	e8 6e 39 ff ff       	callq  4455 <safe_div_func_int16_t_s_s>
   10ae7:	98                   	cwtl   
   10ae8:	09 85 38 f5 ff ff    	or     %eax,-0xac8(%rbp)
   10aee:	48 8b 85 e8 f4 ff ff 	mov    -0xb18(%rbp),%rax
   10af5:	48 8b 5d d8          	mov    -0x28(%rbp),%rbx
   10af9:	64 48 33 1c 25 28 00 	xor    %fs:0x28,%rbx
   10b00:	00 00 
   10b02:	74 05                	je     10b09 <func_118+0x148c>
   10b04:	e8 67 35 ff ff       	callq  4070 <__stack_chk_fail@plt>
   10b09:	48 81 c4 08 0b 00 00 	add    $0xb08,%rsp
   10b10:	5b                   	pop    %rbx
   10b11:	41 5c                	pop    %r12
   10b13:	41 5d                	pop    %r13
   10b15:	5d                   	pop    %rbp
   10b16:	c3                   	retq   

0000000000010b17 <main>:
   10b17:	f3 0f 1e fa          	endbr64 
   10b1b:	55                   	push   %rbp
   10b1c:	48 89 e5             	mov    %rsp,%rbp
   10b1f:	48 83 ec 20          	sub    $0x20,%rsp
   10b23:	89 7d ec             	mov    %edi,-0x14(%rbp)
   10b26:	48 89 75 e0          	mov    %rsi,-0x20(%rbp)
   10b2a:	c7 45 fc 00 00 00 00 	movl   $0x0,-0x4(%rbp)
   10b31:	83 7d ec 02          	cmpl   $0x2,-0x14(%rbp)
   10b35:	74 25                	je     10b5c <main+0x45>
   10b37:	48 8b 45 e0          	mov    -0x20(%rbp),%rax
   10b3b:	48 83 c0 08          	add    $0x8,%rax
   10b3f:	48 8b 00             	mov    (%rax),%rax
   10b42:	48 8d 35 e7 25 00 00 	lea    0x25e7(%rip),%rsi        # 13130 <g_1085+0x10d8>
   10b49:	48 89 c7             	mov    %rax,%rdi
   10b4c:	e8 3f 35 ff ff       	callq  4090 <strcmp@plt>
   10b51:	85 c0                	test   %eax,%eax
   10b53:	74 07                	je     10b5c <main+0x45>
   10b55:	c7 45 fc 01 00 00 00 	movl   $0x1,-0x4(%rbp)
   10b5c:	e8 28 36 ff ff       	callq  4189 <platform_main_begin>
   10b61:	e8 32 4a ff ff       	callq  5598 <crc32_gentab>
   10b66:	e8 4a 4c ff ff       	callq  57b5 <func_1>
   10b6b:	8b 05 b3 54 00 00    	mov    0x54b3(%rip),%eax        # 16024 <g_6>
   10b71:	48 98                	cltq   
   10b73:	8b 55 fc             	mov    -0x4(%rbp),%edx
   10b76:	48 8d 35 b5 25 00 00 	lea    0x25b5(%rip),%rsi        # 13132 <g_1085+0x10da>
   10b7d:	48 89 c7             	mov    %rax,%rdi
   10b80:	e8 6e 4b ff ff       	callq  56f3 <transparent_crc>
   10b85:	0f b6 05 9c 54 00 00 	movzbl 0x549c(%rip),%eax        # 16028 <g_19>
   10b8c:	48 0f be c0          	movsbq %al,%rax
   10b90:	8b 55 fc             	mov    -0x4(%rbp),%edx
   10b93:	48 8d 35 9c 25 00 00 	lea    0x259c(%rip),%rsi        # 13136 <g_1085+0x10de>
   10b9a:	48 89 c7             	mov    %rax,%rdi
   10b9d:	e8 51 4b ff ff       	callq  56f3 <transparent_crc>
   10ba2:	0f b6 05 80 54 00 00 	movzbl 0x5480(%rip),%eax        # 16029 <g_23>
   10ba9:	0f b6 c0             	movzbl %al,%eax
   10bac:	8b 55 fc             	mov    -0x4(%rbp),%edx
   10baf:	48 8d 35 85 25 00 00 	lea    0x2585(%rip),%rsi        # 1313b <g_1085+0x10e3>
   10bb6:	48 89 c7             	mov    %rax,%rdi
   10bb9:	e8 35 4b ff ff       	callq  56f3 <transparent_crc>
   10bbe:	c7 45 f0 00 00 00 00 	movl   $0x0,-0x10(%rbp)
   10bc5:	eb 4b                	jmp    10c12 <main+0xfb>
   10bc7:	8b 45 f0             	mov    -0x10(%rbp),%eax
   10bca:	48 98                	cltq   
   10bcc:	48 8d 14 85 00 00 00 	lea    0x0(,%rax,4),%rdx
   10bd3:	00 
   10bd4:	48 8d 05 65 54 00 00 	lea    0x5465(%rip),%rax        # 16040 <g_59>
   10bdb:	8b 04 02             	mov    (%rdx,%rax,1),%eax
   10bde:	48 98                	cltq   
   10be0:	8b 55 fc             	mov    -0x4(%rbp),%edx
   10be3:	48 8d 35 56 25 00 00 	lea    0x2556(%rip),%rsi        # 13140 <g_1085+0x10e8>
   10bea:	48 89 c7             	mov    %rax,%rdi
   10bed:	e8 01 4b ff ff       	callq  56f3 <transparent_crc>
   10bf2:	83 7d fc 00          	cmpl   $0x0,-0x4(%rbp)
   10bf6:	74 16                	je     10c0e <main+0xf7>
   10bf8:	8b 45 f0             	mov    -0x10(%rbp),%eax
   10bfb:	89 c6                	mov    %eax,%esi
   10bfd:	48 8d 3d 44 25 00 00 	lea    0x2544(%rip),%rdi        # 13148 <g_1085+0x10f0>
   10c04:	b8 00 00 00 00       	mov    $0x0,%eax
   10c09:	e8 72 34 ff ff       	callq  4080 <printf@plt>
   10c0e:	83 45 f0 01          	addl   $0x1,-0x10(%rbp)
   10c12:	83 7d f0 09          	cmpl   $0x9,-0x10(%rbp)
   10c16:	7e af                	jle    10bc7 <main+0xb0>
   10c18:	48 8b 05 49 54 00 00 	mov    0x5449(%rip),%rax        # 16068 <g_132>
   10c1f:	48 89 c1             	mov    %rax,%rcx
   10c22:	8b 45 fc             	mov    -0x4(%rbp),%eax
   10c25:	89 c2                	mov    %eax,%edx
   10c27:	48 8d 35 28 25 00 00 	lea    0x2528(%rip),%rsi        # 13156 <g_1085+0x10fe>
   10c2e:	48 89 cf             	mov    %rcx,%rdi
   10c31:	e8 bd 4a ff ff       	callq  56f3 <transparent_crc>
   10c36:	0f b7 05 d3 71 00 00 	movzwl 0x71d3(%rip),%eax        # 17e10 <g_191>
   10c3d:	0f b7 c0             	movzwl %ax,%eax
   10c40:	8b 55 fc             	mov    -0x4(%rbp),%edx
   10c43:	48 8d 35 12 25 00 00 	lea    0x2512(%rip),%rsi        # 1315c <g_1085+0x1104>
   10c4a:	48 89 c7             	mov    %rax,%rdi
   10c4d:	e8 a1 4a ff ff       	callq  56f3 <transparent_crc>
   10c52:	8b 05 18 54 00 00    	mov    0x5418(%rip),%eax        # 16070 <g_194>
   10c58:	48 98                	cltq   
   10c5a:	8b 55 fc             	mov    -0x4(%rbp),%edx
   10c5d:	48 8d 35 fe 24 00 00 	lea    0x24fe(%rip),%rsi        # 13162 <g_1085+0x110a>
   10c64:	48 89 c7             	mov    %rax,%rdi
   10c67:	e8 87 4a ff ff       	callq  56f3 <transparent_crc>
   10c6c:	0f b7 05 05 54 00 00 	movzwl 0x5405(%rip),%eax        # 16078 <g_197>
   10c73:	0f b7 c0             	movzwl %ax,%eax
   10c76:	8b 55 fc             	mov    -0x4(%rbp),%edx
   10c79:	48 8d 35 e8 24 00 00 	lea    0x24e8(%rip),%rsi        # 13168 <g_1085+0x1110>
   10c80:	48 89 c7             	mov    %rax,%rdi
   10c83:	e8 6b 4a ff ff       	callq  56f3 <transparent_crc>
   10c88:	0f b6 05 eb 53 00 00 	movzbl 0x53eb(%rip),%eax        # 1607a <g_197+0x2>
   10c8f:	c1 e0 03             	shl    $0x3,%eax
   10c92:	c0 f8 03             	sar    $0x3,%al
   10c95:	48 0f be c0          	movsbq %al,%rax
   10c99:	8b 55 fc             	mov    -0x4(%rbp),%edx
   10c9c:	48 8d 35 ce 24 00 00 	lea    0x24ce(%rip),%rsi        # 13171 <g_1085+0x1119>
   10ca3:	48 89 c7             	mov    %rax,%rdi
   10ca6:	e8 48 4a ff ff       	callq  56f3 <transparent_crc>
   10cab:	8b 05 cb 53 00 00    	mov    0x53cb(%rip),%eax        # 1607c <g_197+0x4>
   10cb1:	c1 e0 0d             	shl    $0xd,%eax
   10cb4:	c1 f8 0d             	sar    $0xd,%eax
   10cb7:	48 98                	cltq   
   10cb9:	8b 55 fc             	mov    -0x4(%rbp),%edx
   10cbc:	48 8d 35 b7 24 00 00 	lea    0x24b7(%rip),%rsi        # 1317a <g_1085+0x1122>
   10cc3:	48 89 c7             	mov    %rax,%rdi
   10cc6:	e8 28 4a ff ff       	callq  56f3 <transparent_crc>
   10ccb:	0f b7 05 ae 53 00 00 	movzwl 0x53ae(%rip),%eax        # 16080 <g_197+0x8>
   10cd2:	0f b7 c0             	movzwl %ax,%eax
   10cd5:	8b 55 fc             	mov    -0x4(%rbp),%edx
   10cd8:	48 8d 35 a4 24 00 00 	lea    0x24a4(%rip),%rsi        # 13183 <g_1085+0x112b>
   10cdf:	48 89 c7             	mov    %rax,%rdi
   10ce2:	e8 0c 4a ff ff       	callq  56f3 <transparent_crc>
   10ce7:	0f b6 05 94 53 00 00 	movzbl 0x5394(%rip),%eax        # 16082 <g_197+0xa>
   10cee:	c1 e0 04             	shl    $0x4,%eax
   10cf1:	c0 f8 04             	sar    $0x4,%al
   10cf4:	48 0f be c0          	movsbq %al,%rax
   10cf8:	8b 55 fc             	mov    -0x4(%rbp),%edx
   10cfb:	48 8d 35 8a 24 00 00 	lea    0x248a(%rip),%rsi        # 1318c <g_1085+0x1134>
   10d02:	48 89 c7             	mov    %rax,%rdi
   10d05:	e8 e9 49 ff ff       	callq  56f3 <transparent_crc>
   10d0a:	b8 58 d5 db 3e       	mov    $0x3edbd558,%eax
   10d0f:	48 98                	cltq   
   10d11:	8b 55 fc             	mov    -0x4(%rbp),%edx
   10d14:	48 8d 35 7a 24 00 00 	lea    0x247a(%rip),%rsi        # 13195 <g_1085+0x113d>
   10d1b:	48 89 c7             	mov    %rax,%rdi
   10d1e:	e8 d0 49 ff ff       	callq  56f3 <transparent_crc>
   10d23:	c7 45 f0 00 00 00 00 	movl   $0x0,-0x10(%rbp)
   10d2a:	eb 4a                	jmp    10d76 <main+0x25f>
   10d2c:	8b 45 f0             	mov    -0x10(%rbp),%eax
   10d2f:	48 98                	cltq   
   10d31:	48 8d 14 c5 00 00 00 	lea    0x0(,%rax,8),%rdx
   10d38:	00 
   10d39:	48 8d 05 60 53 00 00 	lea    0x5360(%rip),%rax        # 160a0 <g_281>
   10d40:	48 8b 04 02          	mov    (%rdx,%rax,1),%rax
   10d44:	8b 55 fc             	mov    -0x4(%rbp),%edx
   10d47:	48 8d 35 4d 24 00 00 	lea    0x244d(%rip),%rsi        # 1319b <g_1085+0x1143>
   10d4e:	48 89 c7             	mov    %rax,%rdi
   10d51:	e8 9d 49 ff ff       	callq  56f3 <transparent_crc>
   10d56:	83 7d fc 00          	cmpl   $0x0,-0x4(%rbp)
   10d5a:	74 16                	je     10d72 <main+0x25b>
   10d5c:	8b 45 f0             	mov    -0x10(%rbp),%eax
   10d5f:	89 c6                	mov    %eax,%esi
   10d61:	48 8d 3d e0 23 00 00 	lea    0x23e0(%rip),%rdi        # 13148 <g_1085+0x10f0>
   10d68:	b8 00 00 00 00       	mov    $0x0,%eax
   10d6d:	e8 0e 33 ff ff       	callq  4080 <printf@plt>
   10d72:	83 45 f0 01          	addl   $0x1,-0x10(%rbp)
   10d76:	83 7d f0 09          	cmpl   $0x9,-0x10(%rbp)
   10d7a:	7e b0                	jle    10d2c <main+0x215>
   10d7c:	8b 05 6e 53 00 00    	mov    0x536e(%rip),%eax        # 160f0 <g_293>
   10d82:	89 c1                	mov    %eax,%ecx
   10d84:	8b 45 fc             	mov    -0x4(%rbp),%eax
   10d87:	89 c2                	mov    %eax,%edx
   10d89:	48 8d 35 14 24 00 00 	lea    0x2414(%rip),%rsi        # 131a4 <g_1085+0x114c>
   10d90:	48 89 cf             	mov    %rcx,%rdi
   10d93:	e8 5b 49 ff ff       	callq  56f3 <transparent_crc>
   10d98:	48 8b 05 59 53 00 00 	mov    0x5359(%rip),%rax        # 160f8 <g_300>
   10d9f:	48 89 c1             	mov    %rax,%rcx
   10da2:	8b 45 fc             	mov    -0x4(%rbp),%eax
   10da5:	89 c2                	mov    %eax,%edx
   10da7:	48 8d 35 fc 23 00 00 	lea    0x23fc(%rip),%rsi        # 131aa <g_1085+0x1152>
   10dae:	48 89 cf             	mov    %rcx,%rdi
   10db1:	e8 3d 49 ff ff       	callq  56f3 <transparent_crc>
   10db6:	8b 05 fc 77 00 00    	mov    0x77fc(%rip),%eax        # 185b8 <g_361>
   10dbc:	89 c1                	mov    %eax,%ecx
   10dbe:	8b 45 fc             	mov    -0x4(%rbp),%eax
   10dc1:	89 c2                	mov    %eax,%edx
   10dc3:	48 8d 35 e6 23 00 00 	lea    0x23e6(%rip),%rsi        # 131b0 <g_1085+0x1158>
   10dca:	48 89 cf             	mov    %rcx,%rdi
   10dcd:	e8 21 49 ff ff       	callq  56f3 <transparent_crc>
   10dd2:	0f b7 05 27 53 00 00 	movzwl 0x5327(%rip),%eax        # 16100 <g_468>
   10dd9:	48 0f bf c0          	movswq %ax,%rax
   10ddd:	8b 55 fc             	mov    -0x4(%rbp),%edx
   10de0:	48 8d 35 cf 23 00 00 	lea    0x23cf(%rip),%rsi        # 131b6 <g_1085+0x115e>
   10de7:	48 89 c7             	mov    %rax,%rdi
   10dea:	e8 04 49 ff ff       	callq  56f3 <transparent_crc>
   10def:	48 8b 05 12 53 00 00 	mov    0x5312(%rip),%rax        # 16108 <g_471>
   10df6:	8b 55 fc             	mov    -0x4(%rbp),%edx
   10df9:	48 8d 35 bc 23 00 00 	lea    0x23bc(%rip),%rsi        # 131bc <g_1085+0x1164>
   10e00:	48 89 c7             	mov    %rax,%rdi
   10e03:	e8 eb 48 ff ff       	callq  56f3 <transparent_crc>
   10e08:	0f b7 05 01 53 00 00 	movzwl 0x5301(%rip),%eax        # 16110 <g_517>
   10e0f:	0f b7 c0             	movzwl %ax,%eax
   10e12:	8b 55 fc             	mov    -0x4(%rbp),%edx
   10e15:	48 8d 35 a6 23 00 00 	lea    0x23a6(%rip),%rsi        # 131c2 <g_1085+0x116a>
   10e1c:	48 89 c7             	mov    %rax,%rdi
   10e1f:	e8 cf 48 ff ff       	callq  56f3 <transparent_crc>
   10e24:	0f b6 05 e7 52 00 00 	movzbl 0x52e7(%rip),%eax        # 16112 <g_517+0x2>
   10e2b:	c1 e0 03             	shl    $0x3,%eax
   10e2e:	c0 f8 03             	sar    $0x3,%al
   10e31:	48 0f be c0          	movsbq %al,%rax
   10e35:	8b 55 fc             	mov    -0x4(%rbp),%edx
   10e38:	48 8d 35 8c 23 00 00 	lea    0x238c(%rip),%rsi        # 131cb <g_1085+0x1173>
   10e3f:	48 89 c7             	mov    %rax,%rdi
   10e42:	e8 ac 48 ff ff       	callq  56f3 <transparent_crc>
   10e47:	8b 05 c7 52 00 00    	mov    0x52c7(%rip),%eax        # 16114 <g_517+0x4>
   10e4d:	c1 e0 0d             	shl    $0xd,%eax
   10e50:	c1 f8 0d             	sar    $0xd,%eax
   10e53:	48 98                	cltq   
   10e55:	8b 55 fc             	mov    -0x4(%rbp),%edx
   10e58:	48 8d 35 75 23 00 00 	lea    0x2375(%rip),%rsi        # 131d4 <g_1085+0x117c>
   10e5f:	48 89 c7             	mov    %rax,%rdi
   10e62:	e8 8c 48 ff ff       	callq  56f3 <transparent_crc>
   10e67:	0f b7 05 aa 52 00 00 	movzwl 0x52aa(%rip),%eax        # 16118 <g_517+0x8>
   10e6e:	0f b7 c0             	movzwl %ax,%eax
   10e71:	8b 55 fc             	mov    -0x4(%rbp),%edx
   10e74:	48 8d 35 62 23 00 00 	lea    0x2362(%rip),%rsi        # 131dd <g_1085+0x1185>
   10e7b:	48 89 c7             	mov    %rax,%rdi
   10e7e:	e8 70 48 ff ff       	callq  56f3 <transparent_crc>
   10e83:	0f b6 05 90 52 00 00 	movzbl 0x5290(%rip),%eax        # 1611a <g_517+0xa>
   10e8a:	c1 e0 04             	shl    $0x4,%eax
   10e8d:	c0 f8 04             	sar    $0x4,%al
   10e90:	48 0f be c0          	movsbq %al,%rax
   10e94:	8b 55 fc             	mov    -0x4(%rbp),%edx
   10e97:	48 8d 35 48 23 00 00 	lea    0x2348(%rip),%rsi        # 131e6 <g_1085+0x118e>
   10e9e:	48 89 c7             	mov    %rax,%rdi
   10ea1:	e8 4d 48 ff ff       	callq  56f3 <transparent_crc>
   10ea6:	8b 05 70 52 00 00    	mov    0x5270(%rip),%eax        # 1611c <g_532>
   10eac:	48 98                	cltq   
   10eae:	8b 55 fc             	mov    -0x4(%rbp),%edx
   10eb1:	48 8d 35 37 23 00 00 	lea    0x2337(%rip),%rsi        # 131ef <g_1085+0x1197>
   10eb8:	48 89 c7             	mov    %rax,%rdi
   10ebb:	e8 33 48 ff ff       	callq  56f3 <transparent_crc>
   10ec0:	0f b6 05 59 52 00 00 	movzbl 0x5259(%rip),%eax        # 16120 <g_534>
   10ec7:	0f b6 c0             	movzbl %al,%eax
   10eca:	8b 55 fc             	mov    -0x4(%rbp),%edx
   10ecd:	48 8d 35 21 23 00 00 	lea    0x2321(%rip),%rsi        # 131f5 <g_1085+0x119d>
   10ed4:	48 89 c7             	mov    %rax,%rdi
   10ed7:	e8 17 48 ff ff       	callq  56f3 <transparent_crc>
   10edc:	0f b6 05 3e 52 00 00 	movzbl 0x523e(%rip),%eax        # 16121 <g_547>
   10ee3:	0f b6 c0             	movzbl %al,%eax
   10ee6:	8b 55 fc             	mov    -0x4(%rbp),%edx
   10ee9:	48 8d 35 0b 23 00 00 	lea    0x230b(%rip),%rsi        # 131fb <g_1085+0x11a3>
   10ef0:	48 89 c7             	mov    %rax,%rdi
   10ef3:	e8 fb 47 ff ff       	callq  56f3 <transparent_crc>
   10ef8:	8b 05 26 52 00 00    	mov    0x5226(%rip),%eax        # 16124 <g_609>
   10efe:	89 c1                	mov    %eax,%ecx
   10f00:	8b 45 fc             	mov    -0x4(%rbp),%eax
   10f03:	89 c2                	mov    %eax,%edx
   10f05:	48 8d 35 f5 22 00 00 	lea    0x22f5(%rip),%rsi        # 13201 <g_1085+0x11a9>
   10f0c:	48 89 cf             	mov    %rcx,%rdi
   10f0f:	e8 df 47 ff ff       	callq  56f3 <transparent_crc>
   10f14:	0f b7 05 0d 52 00 00 	movzwl 0x520d(%rip),%eax        # 16128 <g_818>
   10f1b:	48 0f bf c0          	movswq %ax,%rax
   10f1f:	8b 55 fc             	mov    -0x4(%rbp),%edx
   10f22:	48 8d 35 de 22 00 00 	lea    0x22de(%rip),%rsi        # 13207 <g_1085+0x11af>
   10f29:	48 89 c7             	mov    %rax,%rdi
   10f2c:	e8 c2 47 ff ff       	callq  56f3 <transparent_crc>
   10f31:	8b 05 f5 51 00 00    	mov    0x51f5(%rip),%eax        # 1612c <g_911>
   10f37:	48 98                	cltq   
   10f39:	8b 55 fc             	mov    -0x4(%rbp),%edx
   10f3c:	48 8d 35 ca 22 00 00 	lea    0x22ca(%rip),%rsi        # 1320d <g_1085+0x11b5>
   10f43:	48 89 c7             	mov    %rax,%rdi
   10f46:	e8 a8 47 ff ff       	callq  56f3 <transparent_crc>
   10f4b:	c7 45 f0 00 00 00 00 	movl   $0x0,-0x10(%rbp)
   10f52:	eb 74                	jmp    10fc8 <main+0x4b1>
   10f54:	c7 45 f4 00 00 00 00 	movl   $0x0,-0xc(%rbp)
   10f5b:	eb 61                	jmp    10fbe <main+0x4a7>
   10f5d:	8b 45 f4             	mov    -0xc(%rbp),%eax
   10f60:	48 63 c8             	movslq %eax,%rcx
   10f63:	8b 45 f0             	mov    -0x10(%rbp),%eax
   10f66:	48 63 d0             	movslq %eax,%rdx
   10f69:	48 89 d0             	mov    %rdx,%rax
   10f6c:	48 01 c0             	add    %rax,%rax
   10f6f:	48 01 d0             	add    %rdx,%rax
   10f72:	48 01 c8             	add    %rcx,%rax
   10f75:	48 8d 14 85 00 00 00 	lea    0x0(,%rax,4),%rdx
   10f7c:	00 
   10f7d:	48 8d 05 bc 51 00 00 	lea    0x51bc(%rip),%rax        # 16140 <g_913>
   10f84:	8b 04 02             	mov    (%rdx,%rax,1),%eax
   10f87:	48 98                	cltq   
   10f89:	8b 55 fc             	mov    -0x4(%rbp),%edx
   10f8c:	48 8d 35 80 22 00 00 	lea    0x2280(%rip),%rsi        # 13213 <g_1085+0x11bb>
   10f93:	48 89 c7             	mov    %rax,%rdi
   10f96:	e8 58 47 ff ff       	callq  56f3 <transparent_crc>
   10f9b:	83 7d fc 00          	cmpl   $0x0,-0x4(%rbp)
   10f9f:	74 19                	je     10fba <main+0x4a3>
   10fa1:	8b 55 f4             	mov    -0xc(%rbp),%edx
   10fa4:	8b 45 f0             	mov    -0x10(%rbp),%eax
   10fa7:	89 c6                	mov    %eax,%esi
   10fa9:	48 8d 3d 6f 22 00 00 	lea    0x226f(%rip),%rdi        # 1321f <g_1085+0x11c7>
   10fb0:	b8 00 00 00 00       	mov    $0x0,%eax
   10fb5:	e8 c6 30 ff ff       	callq  4080 <printf@plt>
   10fba:	83 45 f4 01          	addl   $0x1,-0xc(%rbp)
   10fbe:	83 7d f4 02          	cmpl   $0x2,-0xc(%rbp)
   10fc2:	7e 99                	jle    10f5d <main+0x446>
   10fc4:	83 45 f0 01          	addl   $0x1,-0x10(%rbp)
   10fc8:	83 7d f0 02          	cmpl   $0x2,-0x10(%rbp)
   10fcc:	7e 86                	jle    10f54 <main+0x43d>
   10fce:	0f b6 05 13 76 00 00 	movzbl 0x7613(%rip),%eax        # 185e8 <g_946>
   10fd5:	48 0f be c0          	movsbq %al,%rax
   10fd9:	8b 55 fc             	mov    -0x4(%rbp),%edx
   10fdc:	48 8d 35 4e 22 00 00 	lea    0x224e(%rip),%rsi        # 13231 <g_1085+0x11d9>
   10fe3:	48 89 c7             	mov    %rax,%rdi
   10fe6:	e8 08 47 ff ff       	callq  56f3 <transparent_crc>
   10feb:	48 8b 05 76 51 00 00 	mov    0x5176(%rip),%rax        # 16168 <g_1070>
   10ff2:	48 89 c1             	mov    %rax,%rcx
   10ff5:	8b 45 fc             	mov    -0x4(%rbp),%eax
   10ff8:	89 c2                	mov    %eax,%edx
   10ffa:	48 8d 35 36 22 00 00 	lea    0x2236(%rip),%rsi        # 13237 <g_1085+0x11df>
   11001:	48 89 cf             	mov    %rcx,%rdi
   11004:	e8 ea 46 ff ff       	callq  56f3 <transparent_crc>
   11009:	0f b6 05 58 51 00 00 	movzbl 0x5158(%rip),%eax        # 16168 <g_1070>
   11010:	48 0f be c0          	movsbq %al,%rax
   11014:	8b 55 fc             	mov    -0x4(%rbp),%edx
   11017:	48 8d 35 23 22 00 00 	lea    0x2223(%rip),%rsi        # 13241 <g_1085+0x11e9>
   1101e:	48 89 c7             	mov    %rax,%rdi
   11021:	e8 cd 46 ff ff       	callq  56f3 <transparent_crc>
   11026:	8b 05 3c 51 00 00    	mov    0x513c(%rip),%eax        # 16168 <g_1070>
   1102c:	48 98                	cltq   
   1102e:	8b 55 fc             	mov    -0x4(%rbp),%edx
   11031:	48 8d 35 13 22 00 00 	lea    0x2213(%rip),%rsi        # 1324b <g_1085+0x11f3>
   11038:	48 89 c7             	mov    %rax,%rdi
   1103b:	e8 b3 46 ff ff       	callq  56f3 <transparent_crc>
   11040:	0f b7 05 21 51 00 00 	movzwl 0x5121(%rip),%eax        # 16168 <g_1070>
   11047:	48 0f bf c0          	movswq %ax,%rax
   1104b:	8b 55 fc             	mov    -0x4(%rbp),%edx
   1104e:	48 8d 35 00 22 00 00 	lea    0x2200(%rip),%rsi        # 13255 <g_1085+0x11fd>
   11055:	48 89 c7             	mov    %rax,%rdi
   11058:	e8 96 46 ff ff       	callq  56f3 <transparent_crc>
   1105d:	0f b6 05 04 51 00 00 	movzbl 0x5104(%rip),%eax        # 16168 <g_1070>
   11064:	0f b6 c0             	movzbl %al,%eax
   11067:	8b 55 fc             	mov    -0x4(%rbp),%edx
   1106a:	48 8d 35 ee 21 00 00 	lea    0x21ee(%rip),%rsi        # 1325f <g_1085+0x1207>
   11071:	48 89 c7             	mov    %rax,%rdi
   11074:	e8 7a 46 ff ff       	callq  56f3 <transparent_crc>
   11079:	b8 00 00 00 00       	mov    $0x0,%eax
   1107e:	48 98                	cltq   
   11080:	8b 55 fc             	mov    -0x4(%rbp),%edx
   11083:	48 8d 35 df 21 00 00 	lea    0x21df(%rip),%rsi        # 13269 <g_1085+0x1211>
   1108a:	48 89 c7             	mov    %rax,%rdi
   1108d:	e8 61 46 ff ff       	callq  56f3 <transparent_crc>
   11092:	c7 45 f0 00 00 00 00 	movl   $0x0,-0x10(%rbp)
   11099:	e9 b9 00 00 00       	jmpq   11157 <main+0x640>
   1109e:	c7 45 f4 00 00 00 00 	movl   $0x0,-0xc(%rbp)
   110a5:	e9 9f 00 00 00       	jmpq   11149 <main+0x632>
   110aa:	c7 45 f8 00 00 00 00 	movl   $0x0,-0x8(%rbp)
   110b1:	e9 85 00 00 00       	jmpq   1113b <main+0x624>
   110b6:	8b 45 f8             	mov    -0x8(%rbp),%eax
   110b9:	48 63 f0             	movslq %eax,%rsi
   110bc:	8b 45 f0             	mov    -0x10(%rbp),%eax
   110bf:	48 63 d0             	movslq %eax,%rdx
   110c2:	8b 45 f4             	mov    -0xc(%rbp),%eax
   110c5:	48 63 c8             	movslq %eax,%rcx
   110c8:	48 89 d0             	mov    %rdx,%rax
   110cb:	48 01 c0             	add    %rax,%rax
   110ce:	48 01 d0             	add    %rdx,%rax
   110d1:	48 8d 14 c5 00 00 00 	lea    0x0(,%rax,8),%rdx
   110d8:	00 
   110d9:	48 01 d0             	add    %rdx,%rax
   110dc:	48 89 ca             	mov    %rcx,%rdx
   110df:	48 01 d2             	add    %rdx,%rdx
   110e2:	48 01 ca             	add    %rcx,%rdx
   110e5:	48 01 d0             	add    %rdx,%rax
   110e8:	48 01 f0             	add    %rsi,%rax
   110eb:	48 8d 14 c5 00 00 00 	lea    0x0(,%rax,8),%rdx
   110f2:	00 
   110f3:	48 8d 05 86 50 00 00 	lea    0x5086(%rip),%rax        # 16180 <g_1110>
   110fa:	48 8b 04 02          	mov    (%rdx,%rax,1),%rax
   110fe:	48 89 c1             	mov    %rax,%rcx
   11101:	8b 45 fc             	mov    -0x4(%rbp),%eax
   11104:	89 c2                	mov    %eax,%edx
   11106:	48 8d 35 63 21 00 00 	lea    0x2163(%rip),%rsi        # 13270 <g_1085+0x1218>
   1110d:	48 89 cf             	mov    %rcx,%rdi
   11110:	e8 de 45 ff ff       	callq  56f3 <transparent_crc>
   11115:	83 7d fc 00          	cmpl   $0x0,-0x4(%rbp)
   11119:	74 1c                	je     11137 <main+0x620>
   1111b:	8b 4d f8             	mov    -0x8(%rbp),%ecx
   1111e:	8b 55 f4             	mov    -0xc(%rbp),%edx
   11121:	8b 45 f0             	mov    -0x10(%rbp),%eax
   11124:	89 c6                	mov    %eax,%esi
   11126:	48 8d 3d 53 21 00 00 	lea    0x2153(%rip),%rdi        # 13280 <g_1085+0x1228>
   1112d:	b8 00 00 00 00       	mov    $0x0,%eax
   11132:	e8 49 2f ff ff       	callq  4080 <printf@plt>
   11137:	83 45 f8 01          	addl   $0x1,-0x8(%rbp)
   1113b:	83 7d f8 02          	cmpl   $0x2,-0x8(%rbp)
   1113f:	0f 8e 71 ff ff ff    	jle    110b6 <main+0x59f>
   11145:	83 45 f4 01          	addl   $0x1,-0xc(%rbp)
   11149:	83 7d f4 08          	cmpl   $0x8,-0xc(%rbp)
   1114d:	0f 8e 57 ff ff ff    	jle    110aa <main+0x593>
   11153:	83 45 f0 01          	addl   $0x1,-0x10(%rbp)
   11157:	83 7d f0 00          	cmpl   $0x0,-0x10(%rbp)
   1115b:	0f 8e 3d ff ff ff    	jle    1109e <main+0x587>
   11161:	0f b6 05 f0 50 00 00 	movzbl 0x50f0(%rip),%eax        # 16258 <g_1123>
   11168:	48 0f be c0          	movsbq %al,%rax
   1116c:	8b 55 fc             	mov    -0x4(%rbp),%edx
   1116f:	48 8d 35 20 21 00 00 	lea    0x2120(%rip),%rsi        # 13296 <g_1085+0x123e>
   11176:	48 89 c7             	mov    %rax,%rdi
   11179:	e8 75 45 ff ff       	callq  56f3 <transparent_crc>
   1117e:	48 8b 05 db 50 00 00 	mov    0x50db(%rip),%rax        # 16260 <g_1134>
   11185:	48 89 c1             	mov    %rax,%rcx
   11188:	8b 45 fc             	mov    -0x4(%rbp),%eax
   1118b:	89 c2                	mov    %eax,%edx
   1118d:	48 8d 35 09 21 00 00 	lea    0x2109(%rip),%rsi        # 1329d <g_1085+0x1245>
   11194:	48 89 cf             	mov    %rcx,%rdi
   11197:	e8 57 45 ff ff       	callq  56f3 <transparent_crc>
   1119c:	0f b6 05 bd 50 00 00 	movzbl 0x50bd(%rip),%eax        # 16260 <g_1134>
   111a3:	48 0f be c0          	movsbq %al,%rax
   111a7:	8b 55 fc             	mov    -0x4(%rbp),%edx
   111aa:	48 8d 35 f6 20 00 00 	lea    0x20f6(%rip),%rsi        # 132a7 <g_1085+0x124f>
   111b1:	48 89 c7             	mov    %rax,%rdi
   111b4:	e8 3a 45 ff ff       	callq  56f3 <transparent_crc>
   111b9:	8b 05 a1 50 00 00    	mov    0x50a1(%rip),%eax        # 16260 <g_1134>
   111bf:	48 98                	cltq   
   111c1:	8b 55 fc             	mov    -0x4(%rbp),%edx
   111c4:	48 8d 35 e6 20 00 00 	lea    0x20e6(%rip),%rsi        # 132b1 <g_1085+0x1259>
   111cb:	48 89 c7             	mov    %rax,%rdi
   111ce:	e8 20 45 ff ff       	callq  56f3 <transparent_crc>
   111d3:	0f b7 05 86 50 00 00 	movzwl 0x5086(%rip),%eax        # 16260 <g_1134>
   111da:	48 0f bf c0          	movswq %ax,%rax
   111de:	8b 55 fc             	mov    -0x4(%rbp),%edx
   111e1:	48 8d 35 d3 20 00 00 	lea    0x20d3(%rip),%rsi        # 132bb <g_1085+0x1263>
   111e8:	48 89 c7             	mov    %rax,%rdi
   111eb:	e8 03 45 ff ff       	callq  56f3 <transparent_crc>
   111f0:	0f b6 05 69 50 00 00 	movzbl 0x5069(%rip),%eax        # 16260 <g_1134>
   111f7:	0f b6 c0             	movzbl %al,%eax
   111fa:	8b 55 fc             	mov    -0x4(%rbp),%edx
   111fd:	48 8d 35 c1 20 00 00 	lea    0x20c1(%rip),%rsi        # 132c5 <g_1085+0x126d>
   11204:	48 89 c7             	mov    %rax,%rdi
   11207:	e8 e7 44 ff ff       	callq  56f3 <transparent_crc>
   1120c:	8b 05 56 50 00 00    	mov    0x5056(%rip),%eax        # 16268 <g_1135>
   11212:	48 98                	cltq   
   11214:	8b 55 fc             	mov    -0x4(%rbp),%edx
   11217:	48 8d 35 b1 20 00 00 	lea    0x20b1(%rip),%rsi        # 132cf <g_1085+0x1277>
   1121e:	48 89 c7             	mov    %rax,%rdi
   11221:	e8 cd 44 ff ff       	callq  56f3 <transparent_crc>
   11226:	48 8b 05 43 50 00 00 	mov    0x5043(%rip),%rax        # 16270 <g_1214>
   1122d:	48 89 c1             	mov    %rax,%rcx
   11230:	8b 45 fc             	mov    -0x4(%rbp),%eax
   11233:	89 c2                	mov    %eax,%edx
   11235:	48 8d 35 9a 20 00 00 	lea    0x209a(%rip),%rsi        # 132d6 <g_1085+0x127e>
   1123c:	48 89 cf             	mov    %rcx,%rdi
   1123f:	e8 af 44 ff ff       	callq  56f3 <transparent_crc>
   11244:	0f b6 05 25 50 00 00 	movzbl 0x5025(%rip),%eax        # 16270 <g_1214>
   1124b:	48 0f be c0          	movsbq %al,%rax
   1124f:	8b 55 fc             	mov    -0x4(%rbp),%edx
   11252:	48 8d 35 87 20 00 00 	lea    0x2087(%rip),%rsi        # 132e0 <g_1085+0x1288>
   11259:	48 89 c7             	mov    %rax,%rdi
   1125c:	e8 92 44 ff ff       	callq  56f3 <transparent_crc>
   11261:	8b 05 09 50 00 00    	mov    0x5009(%rip),%eax        # 16270 <g_1214>
   11267:	48 98                	cltq   
   11269:	8b 55 fc             	mov    -0x4(%rbp),%edx
   1126c:	48 8d 35 77 20 00 00 	lea    0x2077(%rip),%rsi        # 132ea <g_1085+0x1292>
   11273:	48 89 c7             	mov    %rax,%rdi
   11276:	e8 78 44 ff ff       	callq  56f3 <transparent_crc>
   1127b:	0f b7 05 ee 4f 00 00 	movzwl 0x4fee(%rip),%eax        # 16270 <g_1214>
   11282:	48 0f bf c0          	movswq %ax,%rax
   11286:	8b 55 fc             	mov    -0x4(%rbp),%edx
   11289:	48 8d 35 64 20 00 00 	lea    0x2064(%rip),%rsi        # 132f4 <g_1085+0x129c>
   11290:	48 89 c7             	mov    %rax,%rdi
   11293:	e8 5b 44 ff ff       	callq  56f3 <transparent_crc>
   11298:	0f b6 05 d1 4f 00 00 	movzbl 0x4fd1(%rip),%eax        # 16270 <g_1214>
   1129f:	0f b6 c0             	movzbl %al,%eax
   112a2:	8b 55 fc             	mov    -0x4(%rbp),%edx
   112a5:	48 8d 35 52 20 00 00 	lea    0x2052(%rip),%rsi        # 132fe <g_1085+0x12a6>
   112ac:	48 89 c7             	mov    %rax,%rdi
   112af:	e8 3f 44 ff ff       	callq  56f3 <transparent_crc>
   112b4:	8b 05 be 4f 00 00    	mov    0x4fbe(%rip),%eax        # 16278 <g_1291>
   112ba:	48 98                	cltq   
   112bc:	8b 55 fc             	mov    -0x4(%rbp),%edx
   112bf:	48 8d 35 42 20 00 00 	lea    0x2042(%rip),%rsi        # 13308 <g_1085+0x12b0>
   112c6:	48 89 c7             	mov    %rax,%rdi
   112c9:	e8 25 44 ff ff       	callq  56f3 <transparent_crc>
   112ce:	8b 05 4c 4d 00 00    	mov    0x4d4c(%rip),%eax        # 16020 <crc32_context>
   112d4:	f7 d0                	not    %eax
   112d6:	89 c2                	mov    %eax,%edx
   112d8:	8b 45 fc             	mov    -0x4(%rbp),%eax
   112db:	89 c6                	mov    %eax,%esi
   112dd:	89 d7                	mov    %edx,%edi
   112df:	e8 b0 2e ff ff       	callq  4194 <platform_main_end>
   112e4:	b8 00 00 00 00       	mov    $0x0,%eax
   112e9:	c9                   	leaveq 
   112ea:	c3                   	retq   
   112eb:	0f 1f 44 00 00       	nopl   0x0(%rax,%rax,1)

00000000000112f0 <__libc_csu_init>:
   112f0:	f3 0f 1e fa          	endbr64 
   112f4:	41 57                	push   %r15
   112f6:	4c 8d 3d a3 4a 00 00 	lea    0x4aa3(%rip),%r15        # 15da0 <__frame_dummy_init_array_entry>
   112fd:	41 56                	push   %r14
   112ff:	49 89 d6             	mov    %rdx,%r14
   11302:	41 55                	push   %r13
   11304:	49 89 f5             	mov    %rsi,%r13
   11307:	41 54                	push   %r12
   11309:	41 89 fc             	mov    %edi,%r12d
   1130c:	55                   	push   %rbp
   1130d:	48 8d 2d 94 4a 00 00 	lea    0x4a94(%rip),%rbp        # 15da8 <__do_global_dtors_aux_fini_array_entry>
   11314:	53                   	push   %rbx
   11315:	4c 29 fd             	sub    %r15,%rbp
   11318:	48 83 ec 08          	sub    $0x8,%rsp
   1131c:	e8 df 2c ff ff       	callq  4000 <_init>
   11321:	48 c1 fd 03          	sar    $0x3,%rbp
   11325:	74 1f                	je     11346 <__libc_csu_init+0x56>
   11327:	31 db                	xor    %ebx,%ebx
   11329:	0f 1f 80 00 00 00 00 	nopl   0x0(%rax)
   11330:	4c 89 f2             	mov    %r14,%rdx
   11333:	4c 89 ee             	mov    %r13,%rsi
   11336:	44 89 e7             	mov    %r12d,%edi
   11339:	41 ff 14 df          	callq  *(%r15,%rbx,8)
   1133d:	48 83 c3 01          	add    $0x1,%rbx
   11341:	48 39 dd             	cmp    %rbx,%rbp
   11344:	75 ea                	jne    11330 <__libc_csu_init+0x40>
   11346:	48 83 c4 08          	add    $0x8,%rsp
   1134a:	5b                   	pop    %rbx
   1134b:	5d                   	pop    %rbp
   1134c:	41 5c                	pop    %r12
   1134e:	41 5d                	pop    %r13
   11350:	41 5e                	pop    %r14
   11352:	41 5f                	pop    %r15
   11354:	c3                   	retq   
   11355:	66 66 2e 0f 1f 84 00 	data16 nopw %cs:0x0(%rax,%rax,1)
   1135c:	00 00 00 00 

0000000000011360 <__libc_csu_fini>:
   11360:	f3 0f 1e fa          	endbr64 
   11364:	c3                   	retq   
