


Disassembly of section .text:

00000000000040a0 <_start>:
    40a0:	f3 0f 1e fa          	endbr64 
    40a4:	31 ed                	xor    %ebp,%ebp
    40a6:	49 89 d1             	mov    %rdx,%r9
    40a9:	5e                   	pop    %rsi
    40aa:	48 89 e2             	mov    %rsp,%rdx
    40ad:	48 83 e4 f0          	and    $0xfffffffffffffff0,%rsp
    40b1:	50                   	push   %rax
    40b2:	54                   	push   %rsp
    40b3:	4c 8d 05 66 7a 00 00 	lea    0x7a66(%rip),%r8        # bb20 <__libc_csu_fini>
    40ba:	48 8d 0d ef 79 00 00 	lea    0x79ef(%rip),%rcx        # bab0 <__libc_csu_init>
    40c1:	48 8d 3d 20 71 00 00 	lea    0x7120(%rip),%rdi        # b1e8 <main>
    40c8:	ff 15 fa be 00 00    	callq  *0xbefa(%rip)        # ffc8 <__libc_start_main@GLIBC_2.2.5>
    40ce:	f4                   	hlt    
    40cf:	90                   	nop

00000000000040d0 <deregister_tm_clones>:
    40d0:	48 8d 3d a1 d0 00 00 	lea    0xd0a1(%rip),%rdi        # 11178 <__TMC_END__>
    40d7:	48 8d 05 9a d0 00 00 	lea    0xd09a(%rip),%rax        # 11178 <__TMC_END__>
    40de:	48 39 f8             	cmp    %rdi,%rax
    40e1:	74 15                	je     40f8 <deregister_tm_clones+0x28>
    40e3:	48 8b 05 d6 be 00 00 	mov    0xbed6(%rip),%rax        # ffc0 <_ITM_deregisterTMCloneTable>
    40ea:	48 85 c0             	test   %rax,%rax
    40ed:	74 09                	je     40f8 <deregister_tm_clones+0x28>
    40ef:	ff e0                	jmpq   *%rax
    40f1:	0f 1f 80 00 00 00 00 	nopl   0x0(%rax)
    40f8:	c3                   	retq   
    40f9:	0f 1f 80 00 00 00 00 	nopl   0x0(%rax)

0000000000004100 <register_tm_clones>:
    4100:	48 8d 3d 71 d0 00 00 	lea    0xd071(%rip),%rdi        # 11178 <__TMC_END__>
    4107:	48 8d 35 6a d0 00 00 	lea    0xd06a(%rip),%rsi        # 11178 <__TMC_END__>
    410e:	48 29 fe             	sub    %rdi,%rsi
    4111:	48 89 f0             	mov    %rsi,%rax
    4114:	48 c1 ee 3f          	shr    $0x3f,%rsi
    4118:	48 c1 f8 03          	sar    $0x3,%rax
    411c:	48 01 c6             	add    %rax,%rsi
    411f:	48 d1 fe             	sar    %rsi
    4122:	74 14                	je     4138 <register_tm_clones+0x38>
    4124:	48 8b 05 ad be 00 00 	mov    0xbead(%rip),%rax        # ffd8 <_ITM_registerTMCloneTable>
    412b:	48 85 c0             	test   %rax,%rax
    412e:	74 08                	je     4138 <register_tm_clones+0x38>
    4130:	ff e0                	jmpq   *%rax
    4132:	66 0f 1f 44 00 00    	nopw   0x0(%rax,%rax,1)
    4138:	c3                   	retq   
    4139:	0f 1f 80 00 00 00 00 	nopl   0x0(%rax)

0000000000004140 <__do_global_dtors_aux>:
    4140:	f3 0f 1e fa          	endbr64 
    4144:	80 3d 35 d0 00 00 00 	cmpb   $0x0,0xd035(%rip)        # 11180 <completed.8061>
    414b:	75 2b                	jne    4178 <__do_global_dtors_aux+0x38>
    414d:	55                   	push   %rbp
    414e:	48 83 3d 8a be 00 00 	cmpq   $0x0,0xbe8a(%rip)        # ffe0 <__cxa_finalize@GLIBC_2.2.5>
    4155:	00 
    4156:	48 89 e5             	mov    %rsp,%rbp
    4159:	74 0c                	je     4167 <__do_global_dtors_aux+0x27>
    415b:	48 8b 3d a6 be 00 00 	mov    0xbea6(%rip),%rdi        # 10008 <__dso_handle>
    4162:	e8 f9 fe ff ff       	callq  4060 <__cxa_finalize@plt>
    4167:	e8 64 ff ff ff       	callq  40d0 <deregister_tm_clones>
    416c:	c6 05 0d d0 00 00 01 	movb   $0x1,0xd00d(%rip)        # 11180 <completed.8061>
    4173:	5d                   	pop    %rbp
    4174:	c3                   	retq   
    4175:	0f 1f 00             	nopl   (%rax)
    4178:	c3                   	retq   
    4179:	0f 1f 80 00 00 00 00 	nopl   0x0(%rax)

0000000000004180 <frame_dummy>:
    4180:	f3 0f 1e fa          	endbr64 
    4184:	e9 77 ff ff ff       	jmpq   4100 <register_tm_clones>

0000000000004189 <platform_main_begin>:
    4189:	f3 0f 1e fa          	endbr64 
    418d:	55                   	push   %rbp
    418e:	48 89 e5             	mov    %rsp,%rbp
    4191:	90                   	nop
    4192:	5d                   	pop    %rbp
    4193:	c3                   	retq   

0000000000004194 <platform_main_end>:
    4194:	f3 0f 1e fa          	endbr64 
    4198:	55                   	push   %rbp
    4199:	48 89 e5             	mov    %rsp,%rbp
    419c:	48 83 ec 10          	sub    $0x10,%rsp
    41a0:	89 7d fc             	mov    %edi,-0x4(%rbp)
    41a3:	89 75 f8             	mov    %esi,-0x8(%rbp)
    41a6:	8b 45 fc             	mov    -0x4(%rbp),%eax
    41a9:	89 c6                	mov    %eax,%esi
    41ab:	48 8d 3d 6e 7e 00 00 	lea    0x7e6e(%rip),%rdi        # c020 <_IO_stdin_used+0x20>
    41b2:	b8 00 00 00 00       	mov    $0x0,%eax
    41b7:	e8 c4 fe ff ff       	callq  4080 <printf@plt>
    41bc:	90                   	nop
    41bd:	c9                   	leaveq 
    41be:	c3                   	retq   

00000000000041bf <safe_unary_minus_func_int8_t_s>:
    41bf:	f3 0f 1e fa          	endbr64 
    41c3:	55                   	push   %rbp
    41c4:	48 89 e5             	mov    %rsp,%rbp
    41c7:	89 f8                	mov    %edi,%eax
    41c9:	88 45 fc             	mov    %al,-0x4(%rbp)
    41cc:	0f b6 45 fc          	movzbl -0x4(%rbp),%eax
    41d0:	f7 d8                	neg    %eax
    41d2:	5d                   	pop    %rbp
    41d3:	c3                   	retq   

00000000000041d4 <safe_add_func_int8_t_s_s>:
    41d4:	f3 0f 1e fa          	endbr64 
    41d8:	55                   	push   %rbp
    41d9:	48 89 e5             	mov    %rsp,%rbp
    41dc:	89 fa                	mov    %edi,%edx
    41de:	89 f0                	mov    %esi,%eax
    41e0:	88 55 fc             	mov    %dl,-0x4(%rbp)
    41e3:	88 45 f8             	mov    %al,-0x8(%rbp)
    41e6:	0f b6 55 fc          	movzbl -0x4(%rbp),%edx
    41ea:	0f b6 45 f8          	movzbl -0x8(%rbp),%eax
    41ee:	01 d0                	add    %edx,%eax
    41f0:	5d                   	pop    %rbp
    41f1:	c3                   	retq   

00000000000041f2 <safe_sub_func_int8_t_s_s>:
    41f2:	f3 0f 1e fa          	endbr64 
    41f6:	55                   	push   %rbp
    41f7:	48 89 e5             	mov    %rsp,%rbp
    41fa:	89 fa                	mov    %edi,%edx
    41fc:	89 f0                	mov    %esi,%eax
    41fe:	88 55 fc             	mov    %dl,-0x4(%rbp)
    4201:	88 45 f8             	mov    %al,-0x8(%rbp)
    4204:	0f b6 55 fc          	movzbl -0x4(%rbp),%edx
    4208:	0f b6 45 f8          	movzbl -0x8(%rbp),%eax
    420c:	29 c2                	sub    %eax,%edx
    420e:	89 d0                	mov    %edx,%eax
    4210:	5d                   	pop    %rbp
    4211:	c3                   	retq   

0000000000004212 <safe_mul_func_int8_t_s_s>:
    4212:	f3 0f 1e fa          	endbr64 
    4216:	55                   	push   %rbp
    4217:	48 89 e5             	mov    %rsp,%rbp
    421a:	89 fa                	mov    %edi,%edx
    421c:	89 f0                	mov    %esi,%eax
    421e:	88 55 fc             	mov    %dl,-0x4(%rbp)
    4221:	88 45 f8             	mov    %al,-0x8(%rbp)
    4224:	0f b6 45 fc          	movzbl -0x4(%rbp),%eax
    4228:	0f b6 55 f8          	movzbl -0x8(%rbp),%edx
    422c:	0f af c2             	imul   %edx,%eax
    422f:	5d                   	pop    %rbp
    4230:	c3                   	retq   

0000000000004231 <safe_mod_func_int8_t_s_s>:
    4231:	f3 0f 1e fa          	endbr64 
    4235:	55                   	push   %rbp
    4236:	48 89 e5             	mov    %rsp,%rbp
    4239:	89 fa                	mov    %edi,%edx
    423b:	89 f0                	mov    %esi,%eax
    423d:	88 55 fc             	mov    %dl,-0x4(%rbp)
    4240:	88 45 f8             	mov    %al,-0x8(%rbp)
    4243:	80 7d f8 00          	cmpb   $0x0,-0x8(%rbp)
    4247:	74 1b                	je     4264 <safe_mod_func_int8_t_s_s+0x33>
    4249:	80 7d fc 80          	cmpb   $0x80,-0x4(%rbp)
    424d:	75 06                	jne    4255 <safe_mod_func_int8_t_s_s+0x24>
    424f:	80 7d f8 ff          	cmpb   $0xff,-0x8(%rbp)
    4253:	74 0f                	je     4264 <safe_mod_func_int8_t_s_s+0x33>
    4255:	0f be 45 fc          	movsbl -0x4(%rbp),%eax
    4259:	0f be 4d f8          	movsbl -0x8(%rbp),%ecx
    425d:	99                   	cltd   
    425e:	f7 f9                	idiv   %ecx
    4260:	89 d0                	mov    %edx,%eax
    4262:	eb 04                	jmp    4268 <safe_mod_func_int8_t_s_s+0x37>
    4264:	0f b6 45 fc          	movzbl -0x4(%rbp),%eax
    4268:	5d                   	pop    %rbp
    4269:	c3                   	retq   

000000000000426a <safe_div_func_int8_t_s_s>:
    426a:	f3 0f 1e fa          	endbr64 
    426e:	55                   	push   %rbp
    426f:	48 89 e5             	mov    %rsp,%rbp
    4272:	89 fa                	mov    %edi,%edx
    4274:	89 f0                	mov    %esi,%eax
    4276:	88 55 fc             	mov    %dl,-0x4(%rbp)
    4279:	88 45 f8             	mov    %al,-0x8(%rbp)
    427c:	80 7d f8 00          	cmpb   $0x0,-0x8(%rbp)
    4280:	74 19                	je     429b <safe_div_func_int8_t_s_s+0x31>
    4282:	80 7d fc 80          	cmpb   $0x80,-0x4(%rbp)
    4286:	75 06                	jne    428e <safe_div_func_int8_t_s_s+0x24>
    4288:	80 7d f8 ff          	cmpb   $0xff,-0x8(%rbp)
    428c:	74 0d                	je     429b <safe_div_func_int8_t_s_s+0x31>
    428e:	0f be 45 fc          	movsbl -0x4(%rbp),%eax
    4292:	0f be 4d f8          	movsbl -0x8(%rbp),%ecx
    4296:	99                   	cltd   
    4297:	f7 f9                	idiv   %ecx
    4299:	eb 04                	jmp    429f <safe_div_func_int8_t_s_s+0x35>
    429b:	0f b6 45 fc          	movzbl -0x4(%rbp),%eax
    429f:	5d                   	pop    %rbp
    42a0:	c3                   	retq   

00000000000042a1 <safe_lshift_func_int8_t_s_s>:
    42a1:	f3 0f 1e fa          	endbr64 
    42a5:	55                   	push   %rbp
    42a6:	48 89 e5             	mov    %rsp,%rbp
    42a9:	89 f8                	mov    %edi,%eax
    42ab:	89 75 f8             	mov    %esi,-0x8(%rbp)
    42ae:	88 45 fc             	mov    %al,-0x4(%rbp)
    42b1:	80 7d fc 00          	cmpb   $0x0,-0x4(%rbp)
    42b5:	78 31                	js     42e8 <safe_lshift_func_int8_t_s_s+0x47>
    42b7:	83 7d f8 00          	cmpl   $0x0,-0x8(%rbp)
    42bb:	78 2b                	js     42e8 <safe_lshift_func_int8_t_s_s+0x47>
    42bd:	83 7d f8 1f          	cmpl   $0x1f,-0x8(%rbp)
    42c1:	7f 25                	jg     42e8 <safe_lshift_func_int8_t_s_s+0x47>
    42c3:	0f be 55 fc          	movsbl -0x4(%rbp),%edx
    42c7:	8b 45 f8             	mov    -0x8(%rbp),%eax
    42ca:	be 7f 00 00 00       	mov    $0x7f,%esi
    42cf:	89 c1                	mov    %eax,%ecx
    42d1:	d3 fe                	sar    %cl,%esi
    42d3:	89 f0                	mov    %esi,%eax
    42d5:	39 c2                	cmp    %eax,%edx
    42d7:	7f 0f                	jg     42e8 <safe_lshift_func_int8_t_s_s+0x47>
    42d9:	0f be 55 fc          	movsbl -0x4(%rbp),%edx
    42dd:	8b 45 f8             	mov    -0x8(%rbp),%eax
    42e0:	89 c1                	mov    %eax,%ecx
    42e2:	d3 e2                	shl    %cl,%edx
    42e4:	89 d0                	mov    %edx,%eax
    42e6:	eb 04                	jmp    42ec <safe_lshift_func_int8_t_s_s+0x4b>
    42e8:	0f b6 45 fc          	movzbl -0x4(%rbp),%eax
    42ec:	5d                   	pop    %rbp
    42ed:	c3                   	retq   

00000000000042ee <safe_lshift_func_int8_t_s_u>:
    42ee:	f3 0f 1e fa          	endbr64 
    42f2:	55                   	push   %rbp
    42f3:	48 89 e5             	mov    %rsp,%rbp
    42f6:	89 f8                	mov    %edi,%eax
    42f8:	89 75 f8             	mov    %esi,-0x8(%rbp)
    42fb:	88 45 fc             	mov    %al,-0x4(%rbp)
    42fe:	80 7d fc 00          	cmpb   $0x0,-0x4(%rbp)
    4302:	78 2b                	js     432f <safe_lshift_func_int8_t_s_u+0x41>
    4304:	83 7d f8 1f          	cmpl   $0x1f,-0x8(%rbp)
    4308:	77 25                	ja     432f <safe_lshift_func_int8_t_s_u+0x41>
    430a:	0f be 55 fc          	movsbl -0x4(%rbp),%edx
    430e:	8b 45 f8             	mov    -0x8(%rbp),%eax
    4311:	be 7f 00 00 00       	mov    $0x7f,%esi
    4316:	89 c1                	mov    %eax,%ecx
    4318:	d3 fe                	sar    %cl,%esi
    431a:	89 f0                	mov    %esi,%eax
    431c:	39 c2                	cmp    %eax,%edx
    431e:	7f 0f                	jg     432f <safe_lshift_func_int8_t_s_u+0x41>
    4320:	0f be 55 fc          	movsbl -0x4(%rbp),%edx
    4324:	8b 45 f8             	mov    -0x8(%rbp),%eax
    4327:	89 c1                	mov    %eax,%ecx
    4329:	d3 e2                	shl    %cl,%edx
    432b:	89 d0                	mov    %edx,%eax
    432d:	eb 04                	jmp    4333 <safe_lshift_func_int8_t_s_u+0x45>
    432f:	0f b6 45 fc          	movzbl -0x4(%rbp),%eax
    4333:	5d                   	pop    %rbp
    4334:	c3                   	retq   

0000000000004335 <safe_rshift_func_int8_t_s_s>:
    4335:	f3 0f 1e fa          	endbr64 
    4339:	55                   	push   %rbp
    433a:	48 89 e5             	mov    %rsp,%rbp
    433d:	89 f8                	mov    %edi,%eax
    433f:	89 75 f8             	mov    %esi,-0x8(%rbp)
    4342:	88 45 fc             	mov    %al,-0x4(%rbp)
    4345:	80 7d fc 00          	cmpb   $0x0,-0x4(%rbp)
    4349:	78 1b                	js     4366 <safe_rshift_func_int8_t_s_s+0x31>
    434b:	83 7d f8 00          	cmpl   $0x0,-0x8(%rbp)
    434f:	78 15                	js     4366 <safe_rshift_func_int8_t_s_s+0x31>
    4351:	83 7d f8 1f          	cmpl   $0x1f,-0x8(%rbp)
    4355:	7f 0f                	jg     4366 <safe_rshift_func_int8_t_s_s+0x31>
    4357:	0f be 55 fc          	movsbl -0x4(%rbp),%edx
    435b:	8b 45 f8             	mov    -0x8(%rbp),%eax
    435e:	89 c1                	mov    %eax,%ecx
    4360:	d3 fa                	sar    %cl,%edx
    4362:	89 d0                	mov    %edx,%eax
    4364:	eb 04                	jmp    436a <safe_rshift_func_int8_t_s_s+0x35>
    4366:	0f b6 45 fc          	movzbl -0x4(%rbp),%eax
    436a:	5d                   	pop    %rbp
    436b:	c3                   	retq   

000000000000436c <safe_rshift_func_int8_t_s_u>:
    436c:	f3 0f 1e fa          	endbr64 
    4370:	55                   	push   %rbp
    4371:	48 89 e5             	mov    %rsp,%rbp
    4374:	89 f8                	mov    %edi,%eax
    4376:	89 75 f8             	mov    %esi,-0x8(%rbp)
    4379:	88 45 fc             	mov    %al,-0x4(%rbp)
    437c:	80 7d fc 00          	cmpb   $0x0,-0x4(%rbp)
    4380:	78 15                	js     4397 <safe_rshift_func_int8_t_s_u+0x2b>
    4382:	83 7d f8 1f          	cmpl   $0x1f,-0x8(%rbp)
    4386:	77 0f                	ja     4397 <safe_rshift_func_int8_t_s_u+0x2b>
    4388:	0f be 55 fc          	movsbl -0x4(%rbp),%edx
    438c:	8b 45 f8             	mov    -0x8(%rbp),%eax
    438f:	89 c1                	mov    %eax,%ecx
    4391:	d3 fa                	sar    %cl,%edx
    4393:	89 d0                	mov    %edx,%eax
    4395:	eb 04                	jmp    439b <safe_rshift_func_int8_t_s_u+0x2f>
    4397:	0f b6 45 fc          	movzbl -0x4(%rbp),%eax
    439b:	5d                   	pop    %rbp
    439c:	c3                   	retq   

000000000000439d <safe_unary_minus_func_int16_t_s>:
    439d:	f3 0f 1e fa          	endbr64 
    43a1:	55                   	push   %rbp
    43a2:	48 89 e5             	mov    %rsp,%rbp
    43a5:	89 f8                	mov    %edi,%eax
    43a7:	66 89 45 fc          	mov    %ax,-0x4(%rbp)
    43ab:	0f b7 45 fc          	movzwl -0x4(%rbp),%eax
    43af:	f7 d8                	neg    %eax
    43b1:	5d                   	pop    %rbp
    43b2:	c3                   	retq   

00000000000043b3 <safe_add_func_int16_t_s_s>:
    43b3:	f3 0f 1e fa          	endbr64 
    43b7:	55                   	push   %rbp
    43b8:	48 89 e5             	mov    %rsp,%rbp
    43bb:	89 fa                	mov    %edi,%edx
    43bd:	89 f0                	mov    %esi,%eax
    43bf:	66 89 55 fc          	mov    %dx,-0x4(%rbp)
    43c3:	66 89 45 f8          	mov    %ax,-0x8(%rbp)
    43c7:	0f b7 55 fc          	movzwl -0x4(%rbp),%edx
    43cb:	0f b7 45 f8          	movzwl -0x8(%rbp),%eax
    43cf:	01 d0                	add    %edx,%eax
    43d1:	5d                   	pop    %rbp
    43d2:	c3                   	retq   

00000000000043d3 <safe_sub_func_int16_t_s_s>:
    43d3:	f3 0f 1e fa          	endbr64 
    43d7:	55                   	push   %rbp
    43d8:	48 89 e5             	mov    %rsp,%rbp
    43db:	89 fa                	mov    %edi,%edx
    43dd:	89 f0                	mov    %esi,%eax
    43df:	66 89 55 fc          	mov    %dx,-0x4(%rbp)
    43e3:	66 89 45 f8          	mov    %ax,-0x8(%rbp)
    43e7:	0f b7 55 fc          	movzwl -0x4(%rbp),%edx
    43eb:	0f b7 45 f8          	movzwl -0x8(%rbp),%eax
    43ef:	29 c2                	sub    %eax,%edx
    43f1:	89 d0                	mov    %edx,%eax
    43f3:	5d                   	pop    %rbp
    43f4:	c3                   	retq   

00000000000043f5 <safe_mul_func_int16_t_s_s>:
    43f5:	f3 0f 1e fa          	endbr64 
    43f9:	55                   	push   %rbp
    43fa:	48 89 e5             	mov    %rsp,%rbp
    43fd:	89 fa                	mov    %edi,%edx
    43ff:	89 f0                	mov    %esi,%eax
    4401:	66 89 55 fc          	mov    %dx,-0x4(%rbp)
    4405:	66 89 45 f8          	mov    %ax,-0x8(%rbp)
    4409:	0f b7 55 fc          	movzwl -0x4(%rbp),%edx
    440d:	0f b7 45 f8          	movzwl -0x8(%rbp),%eax
    4411:	0f af c2             	imul   %edx,%eax
    4414:	5d                   	pop    %rbp
    4415:	c3                   	retq   

0000000000004416 <safe_mod_func_int16_t_s_s>:
    4416:	f3 0f 1e fa          	endbr64 
    441a:	55                   	push   %rbp
    441b:	48 89 e5             	mov    %rsp,%rbp
    441e:	89 fa                	mov    %edi,%edx
    4420:	89 f0                	mov    %esi,%eax
    4422:	66 89 55 fc          	mov    %dx,-0x4(%rbp)
    4426:	66 89 45 f8          	mov    %ax,-0x8(%rbp)
    442a:	66 83 7d f8 00       	cmpw   $0x0,-0x8(%rbp)
    442f:	74 1e                	je     444f <safe_mod_func_int16_t_s_s+0x39>
    4431:	66 81 7d fc 00 80    	cmpw   $0x8000,-0x4(%rbp)
    4437:	75 07                	jne    4440 <safe_mod_func_int16_t_s_s+0x2a>
    4439:	66 83 7d f8 ff       	cmpw   $0xffff,-0x8(%rbp)
    443e:	74 0f                	je     444f <safe_mod_func_int16_t_s_s+0x39>
    4440:	0f bf 45 fc          	movswl -0x4(%rbp),%eax
    4444:	0f bf 4d f8          	movswl -0x8(%rbp),%ecx
    4448:	99                   	cltd   
    4449:	f7 f9                	idiv   %ecx
    444b:	89 d0                	mov    %edx,%eax
    444d:	eb 04                	jmp    4453 <safe_mod_func_int16_t_s_s+0x3d>
    444f:	0f b7 45 fc          	movzwl -0x4(%rbp),%eax
    4453:	5d                   	pop    %rbp
    4454:	c3                   	retq   

0000000000004455 <safe_div_func_int16_t_s_s>:
    4455:	f3 0f 1e fa          	endbr64 
    4459:	55                   	push   %rbp
    445a:	48 89 e5             	mov    %rsp,%rbp
    445d:	89 fa                	mov    %edi,%edx
    445f:	89 f0                	mov    %esi,%eax
    4461:	66 89 55 fc          	mov    %dx,-0x4(%rbp)
    4465:	66 89 45 f8          	mov    %ax,-0x8(%rbp)
    4469:	66 83 7d f8 00       	cmpw   $0x0,-0x8(%rbp)
    446e:	74 1c                	je     448c <safe_div_func_int16_t_s_s+0x37>
    4470:	66 81 7d fc 00 80    	cmpw   $0x8000,-0x4(%rbp)
    4476:	75 07                	jne    447f <safe_div_func_int16_t_s_s+0x2a>
    4478:	66 83 7d f8 ff       	cmpw   $0xffff,-0x8(%rbp)
    447d:	74 0d                	je     448c <safe_div_func_int16_t_s_s+0x37>
    447f:	0f bf 45 fc          	movswl -0x4(%rbp),%eax
    4483:	0f bf 4d f8          	movswl -0x8(%rbp),%ecx
    4487:	99                   	cltd   
    4488:	f7 f9                	idiv   %ecx
    448a:	eb 04                	jmp    4490 <safe_div_func_int16_t_s_s+0x3b>
    448c:	0f b7 45 fc          	movzwl -0x4(%rbp),%eax
    4490:	5d                   	pop    %rbp
    4491:	c3                   	retq   

0000000000004492 <safe_lshift_func_int16_t_s_s>:
    4492:	f3 0f 1e fa          	endbr64 
    4496:	55                   	push   %rbp
    4497:	48 89 e5             	mov    %rsp,%rbp
    449a:	89 f8                	mov    %edi,%eax
    449c:	89 75 f8             	mov    %esi,-0x8(%rbp)
    449f:	66 89 45 fc          	mov    %ax,-0x4(%rbp)
    44a3:	66 83 7d fc 00       	cmpw   $0x0,-0x4(%rbp)
    44a8:	78 31                	js     44db <safe_lshift_func_int16_t_s_s+0x49>
    44aa:	83 7d f8 00          	cmpl   $0x0,-0x8(%rbp)
    44ae:	78 2b                	js     44db <safe_lshift_func_int16_t_s_s+0x49>
    44b0:	83 7d f8 1f          	cmpl   $0x1f,-0x8(%rbp)
    44b4:	7f 25                	jg     44db <safe_lshift_func_int16_t_s_s+0x49>
    44b6:	0f bf 55 fc          	movswl -0x4(%rbp),%edx
    44ba:	8b 45 f8             	mov    -0x8(%rbp),%eax
    44bd:	be ff 7f 00 00       	mov    $0x7fff,%esi
    44c2:	89 c1                	mov    %eax,%ecx
    44c4:	d3 fe                	sar    %cl,%esi
    44c6:	89 f0                	mov    %esi,%eax
    44c8:	39 c2                	cmp    %eax,%edx
    44ca:	7f 0f                	jg     44db <safe_lshift_func_int16_t_s_s+0x49>
    44cc:	0f bf 55 fc          	movswl -0x4(%rbp),%edx
    44d0:	8b 45 f8             	mov    -0x8(%rbp),%eax
    44d3:	89 c1                	mov    %eax,%ecx
    44d5:	d3 e2                	shl    %cl,%edx
    44d7:	89 d0                	mov    %edx,%eax
    44d9:	eb 04                	jmp    44df <safe_lshift_func_int16_t_s_s+0x4d>
    44db:	0f b7 45 fc          	movzwl -0x4(%rbp),%eax
    44df:	5d                   	pop    %rbp
    44e0:	c3                   	retq   

00000000000044e1 <safe_lshift_func_int16_t_s_u>:
    44e1:	f3 0f 1e fa          	endbr64 
    44e5:	55                   	push   %rbp
    44e6:	48 89 e5             	mov    %rsp,%rbp
    44e9:	89 f8                	mov    %edi,%eax
    44eb:	89 75 f8             	mov    %esi,-0x8(%rbp)
    44ee:	66 89 45 fc          	mov    %ax,-0x4(%rbp)
    44f2:	66 83 7d fc 00       	cmpw   $0x0,-0x4(%rbp)
    44f7:	78 2b                	js     4524 <safe_lshift_func_int16_t_s_u+0x43>
    44f9:	83 7d f8 1f          	cmpl   $0x1f,-0x8(%rbp)
    44fd:	77 25                	ja     4524 <safe_lshift_func_int16_t_s_u+0x43>
    44ff:	0f bf 55 fc          	movswl -0x4(%rbp),%edx
    4503:	8b 45 f8             	mov    -0x8(%rbp),%eax
    4506:	be ff 7f 00 00       	mov    $0x7fff,%esi
    450b:	89 c1                	mov    %eax,%ecx
    450d:	d3 fe                	sar    %cl,%esi
    450f:	89 f0                	mov    %esi,%eax
    4511:	39 c2                	cmp    %eax,%edx
    4513:	7f 0f                	jg     4524 <safe_lshift_func_int16_t_s_u+0x43>
    4515:	0f bf 55 fc          	movswl -0x4(%rbp),%edx
    4519:	8b 45 f8             	mov    -0x8(%rbp),%eax
    451c:	89 c1                	mov    %eax,%ecx
    451e:	d3 e2                	shl    %cl,%edx
    4520:	89 d0                	mov    %edx,%eax
    4522:	eb 04                	jmp    4528 <safe_lshift_func_int16_t_s_u+0x47>
    4524:	0f b7 45 fc          	movzwl -0x4(%rbp),%eax
    4528:	5d                   	pop    %rbp
    4529:	c3                   	retq   

000000000000452a <safe_rshift_func_int16_t_s_s>:
    452a:	f3 0f 1e fa          	endbr64 
    452e:	55                   	push   %rbp
    452f:	48 89 e5             	mov    %rsp,%rbp
    4532:	89 f8                	mov    %edi,%eax
    4534:	89 75 f8             	mov    %esi,-0x8(%rbp)
    4537:	66 89 45 fc          	mov    %ax,-0x4(%rbp)
    453b:	66 83 7d fc 00       	cmpw   $0x0,-0x4(%rbp)
    4540:	78 1b                	js     455d <safe_rshift_func_int16_t_s_s+0x33>
    4542:	83 7d f8 00          	cmpl   $0x0,-0x8(%rbp)
    4546:	78 15                	js     455d <safe_rshift_func_int16_t_s_s+0x33>
    4548:	83 7d f8 1f          	cmpl   $0x1f,-0x8(%rbp)
    454c:	7f 0f                	jg     455d <safe_rshift_func_int16_t_s_s+0x33>
    454e:	0f bf 55 fc          	movswl -0x4(%rbp),%edx
    4552:	8b 45 f8             	mov    -0x8(%rbp),%eax
    4555:	89 c1                	mov    %eax,%ecx
    4557:	d3 fa                	sar    %cl,%edx
    4559:	89 d0                	mov    %edx,%eax
    455b:	eb 04                	jmp    4561 <safe_rshift_func_int16_t_s_s+0x37>
    455d:	0f b7 45 fc          	movzwl -0x4(%rbp),%eax
    4561:	5d                   	pop    %rbp
    4562:	c3                   	retq   

0000000000004563 <safe_rshift_func_int16_t_s_u>:
    4563:	f3 0f 1e fa          	endbr64 
    4567:	55                   	push   %rbp
    4568:	48 89 e5             	mov    %rsp,%rbp
    456b:	89 f8                	mov    %edi,%eax
    456d:	89 75 f8             	mov    %esi,-0x8(%rbp)
    4570:	66 89 45 fc          	mov    %ax,-0x4(%rbp)
    4574:	66 83 7d fc 00       	cmpw   $0x0,-0x4(%rbp)
    4579:	78 15                	js     4590 <safe_rshift_func_int16_t_s_u+0x2d>
    457b:	83 7d f8 1f          	cmpl   $0x1f,-0x8(%rbp)
    457f:	77 0f                	ja     4590 <safe_rshift_func_int16_t_s_u+0x2d>
    4581:	0f bf 55 fc          	movswl -0x4(%rbp),%edx
    4585:	8b 45 f8             	mov    -0x8(%rbp),%eax
    4588:	89 c1                	mov    %eax,%ecx
    458a:	d3 fa                	sar    %cl,%edx
    458c:	89 d0                	mov    %edx,%eax
    458e:	eb 04                	jmp    4594 <safe_rshift_func_int16_t_s_u+0x31>
    4590:	0f b7 45 fc          	movzwl -0x4(%rbp),%eax
    4594:	5d                   	pop    %rbp
    4595:	c3                   	retq   

0000000000004596 <safe_unary_minus_func_int32_t_s>:
    4596:	f3 0f 1e fa          	endbr64 
    459a:	55                   	push   %rbp
    459b:	48 89 e5             	mov    %rsp,%rbp
    459e:	89 7d fc             	mov    %edi,-0x4(%rbp)
    45a1:	81 7d fc 00 00 00 80 	cmpl   $0x80000000,-0x4(%rbp)
    45a8:	74 07                	je     45b1 <safe_unary_minus_func_int32_t_s+0x1b>
    45aa:	8b 45 fc             	mov    -0x4(%rbp),%eax
    45ad:	f7 d8                	neg    %eax
    45af:	eb 03                	jmp    45b4 <safe_unary_minus_func_int32_t_s+0x1e>
    45b1:	8b 45 fc             	mov    -0x4(%rbp),%eax
    45b4:	5d                   	pop    %rbp
    45b5:	c3                   	retq   

00000000000045b6 <safe_add_func_int32_t_s_s>:
    45b6:	f3 0f 1e fa          	endbr64 
    45ba:	55                   	push   %rbp
    45bb:	48 89 e5             	mov    %rsp,%rbp
    45be:	89 7d fc             	mov    %edi,-0x4(%rbp)
    45c1:	89 75 f8             	mov    %esi,-0x8(%rbp)
    45c4:	83 7d fc 00          	cmpl   $0x0,-0x4(%rbp)
    45c8:	7e 13                	jle    45dd <safe_add_func_int32_t_s_s+0x27>
    45ca:	83 7d f8 00          	cmpl   $0x0,-0x8(%rbp)
    45ce:	7e 0d                	jle    45dd <safe_add_func_int32_t_s_s+0x27>
    45d0:	b8 ff ff ff 7f       	mov    $0x7fffffff,%eax
    45d5:	2b 45 f8             	sub    -0x8(%rbp),%eax
    45d8:	39 45 fc             	cmp    %eax,-0x4(%rbp)
    45db:	7f 23                	jg     4600 <safe_add_func_int32_t_s_s+0x4a>
    45dd:	83 7d fc 00          	cmpl   $0x0,-0x4(%rbp)
    45e1:	79 13                	jns    45f6 <safe_add_func_int32_t_s_s+0x40>
    45e3:	83 7d f8 00          	cmpl   $0x0,-0x8(%rbp)
    45e7:	79 0d                	jns    45f6 <safe_add_func_int32_t_s_s+0x40>
    45e9:	b8 00 00 00 80       	mov    $0x80000000,%eax
    45ee:	2b 45 f8             	sub    -0x8(%rbp),%eax
    45f1:	39 45 fc             	cmp    %eax,-0x4(%rbp)
    45f4:	7c 0a                	jl     4600 <safe_add_func_int32_t_s_s+0x4a>
    45f6:	8b 55 fc             	mov    -0x4(%rbp),%edx
    45f9:	8b 45 f8             	mov    -0x8(%rbp),%eax
    45fc:	01 d0                	add    %edx,%eax
    45fe:	eb 03                	jmp    4603 <safe_add_func_int32_t_s_s+0x4d>
    4600:	8b 45 fc             	mov    -0x4(%rbp),%eax
    4603:	5d                   	pop    %rbp
    4604:	c3                   	retq   

0000000000004605 <safe_sub_func_int32_t_s_s>:
    4605:	f3 0f 1e fa          	endbr64 
    4609:	55                   	push   %rbp
    460a:	48 89 e5             	mov    %rsp,%rbp
    460d:	89 7d fc             	mov    %edi,-0x4(%rbp)
    4610:	89 75 f8             	mov    %esi,-0x8(%rbp)
    4613:	8b 45 fc             	mov    -0x4(%rbp),%eax
    4616:	33 45 f8             	xor    -0x8(%rbp),%eax
    4619:	89 c2                	mov    %eax,%edx
    461b:	8b 45 fc             	mov    -0x4(%rbp),%eax
    461e:	33 45 f8             	xor    -0x8(%rbp),%eax
    4621:	25 00 00 00 80       	and    $0x80000000,%eax
    4626:	33 45 fc             	xor    -0x4(%rbp),%eax
    4629:	2b 45 f8             	sub    -0x8(%rbp),%eax
    462c:	33 45 f8             	xor    -0x8(%rbp),%eax
    462f:	21 d0                	and    %edx,%eax
    4631:	85 c0                	test   %eax,%eax
    4633:	78 08                	js     463d <safe_sub_func_int32_t_s_s+0x38>
    4635:	8b 45 fc             	mov    -0x4(%rbp),%eax
    4638:	2b 45 f8             	sub    -0x8(%rbp),%eax
    463b:	eb 03                	jmp    4640 <safe_sub_func_int32_t_s_s+0x3b>
    463d:	8b 45 fc             	mov    -0x4(%rbp),%eax
    4640:	5d                   	pop    %rbp
    4641:	c3                   	retq   

0000000000004642 <safe_mul_func_int32_t_s_s>:
    4642:	f3 0f 1e fa          	endbr64 
    4646:	55                   	push   %rbp
    4647:	48 89 e5             	mov    %rsp,%rbp
    464a:	89 7d fc             	mov    %edi,-0x4(%rbp)
    464d:	89 75 f8             	mov    %esi,-0x8(%rbp)
    4650:	83 7d fc 00          	cmpl   $0x0,-0x4(%rbp)
    4654:	7e 14                	jle    466a <safe_mul_func_int32_t_s_s+0x28>
    4656:	83 7d f8 00          	cmpl   $0x0,-0x8(%rbp)
    465a:	7e 0e                	jle    466a <safe_mul_func_int32_t_s_s+0x28>
    465c:	b8 ff ff ff 7f       	mov    $0x7fffffff,%eax
    4661:	99                   	cltd   
    4662:	f7 7d f8             	idivl  -0x8(%rbp)
    4665:	39 45 fc             	cmp    %eax,-0x4(%rbp)
    4668:	7f 5d                	jg     46c7 <safe_mul_func_int32_t_s_s+0x85>
    466a:	83 7d fc 00          	cmpl   $0x0,-0x4(%rbp)
    466e:	7e 14                	jle    4684 <safe_mul_func_int32_t_s_s+0x42>
    4670:	83 7d f8 00          	cmpl   $0x0,-0x8(%rbp)
    4674:	7f 0e                	jg     4684 <safe_mul_func_int32_t_s_s+0x42>
    4676:	b8 00 00 00 80       	mov    $0x80000000,%eax
    467b:	99                   	cltd   
    467c:	f7 7d fc             	idivl  -0x4(%rbp)
    467f:	39 45 f8             	cmp    %eax,-0x8(%rbp)
    4682:	7c 43                	jl     46c7 <safe_mul_func_int32_t_s_s+0x85>
    4684:	83 7d fc 00          	cmpl   $0x0,-0x4(%rbp)
    4688:	7f 14                	jg     469e <safe_mul_func_int32_t_s_s+0x5c>
    468a:	83 7d f8 00          	cmpl   $0x0,-0x8(%rbp)
    468e:	7e 0e                	jle    469e <safe_mul_func_int32_t_s_s+0x5c>
    4690:	b8 00 00 00 80       	mov    $0x80000000,%eax
    4695:	99                   	cltd   
    4696:	f7 7d f8             	idivl  -0x8(%rbp)
    4699:	39 45 fc             	cmp    %eax,-0x4(%rbp)
    469c:	7c 29                	jl     46c7 <safe_mul_func_int32_t_s_s+0x85>
    469e:	83 7d fc 00          	cmpl   $0x0,-0x4(%rbp)
    46a2:	7f 1a                	jg     46be <safe_mul_func_int32_t_s_s+0x7c>
    46a4:	83 7d f8 00          	cmpl   $0x0,-0x8(%rbp)
    46a8:	7f 14                	jg     46be <safe_mul_func_int32_t_s_s+0x7c>
    46aa:	83 7d fc 00          	cmpl   $0x0,-0x4(%rbp)
    46ae:	74 0e                	je     46be <safe_mul_func_int32_t_s_s+0x7c>
    46b0:	b8 ff ff ff 7f       	mov    $0x7fffffff,%eax
    46b5:	99                   	cltd   
    46b6:	f7 7d fc             	idivl  -0x4(%rbp)
    46b9:	39 45 f8             	cmp    %eax,-0x8(%rbp)
    46bc:	7c 09                	jl     46c7 <safe_mul_func_int32_t_s_s+0x85>
    46be:	8b 45 fc             	mov    -0x4(%rbp),%eax
    46c1:	0f af 45 f8          	imul   -0x8(%rbp),%eax
    46c5:	eb 03                	jmp    46ca <safe_mul_func_int32_t_s_s+0x88>
    46c7:	8b 45 fc             	mov    -0x4(%rbp),%eax
    46ca:	5d                   	pop    %rbp
    46cb:	c3                   	retq   

00000000000046cc <safe_mod_func_int32_t_s_s>:
    46cc:	f3 0f 1e fa          	endbr64 
    46d0:	55                   	push   %rbp
    46d1:	48 89 e5             	mov    %rsp,%rbp
    46d4:	89 7d fc             	mov    %edi,-0x4(%rbp)
    46d7:	89 75 f8             	mov    %esi,-0x8(%rbp)
    46da:	83 7d f8 00          	cmpl   $0x0,-0x8(%rbp)
    46de:	74 1a                	je     46fa <safe_mod_func_int32_t_s_s+0x2e>
    46e0:	81 7d fc 00 00 00 80 	cmpl   $0x80000000,-0x4(%rbp)
    46e7:	75 06                	jne    46ef <safe_mod_func_int32_t_s_s+0x23>
    46e9:	83 7d f8 ff          	cmpl   $0xffffffff,-0x8(%rbp)
    46ed:	74 0b                	je     46fa <safe_mod_func_int32_t_s_s+0x2e>
    46ef:	8b 45 fc             	mov    -0x4(%rbp),%eax
    46f2:	99                   	cltd   
    46f3:	f7 7d f8             	idivl  -0x8(%rbp)
    46f6:	89 d0                	mov    %edx,%eax
    46f8:	eb 03                	jmp    46fd <safe_mod_func_int32_t_s_s+0x31>
    46fa:	8b 45 fc             	mov    -0x4(%rbp),%eax
    46fd:	5d                   	pop    %rbp
    46fe:	c3                   	retq   

00000000000046ff <safe_div_func_int32_t_s_s>:
    46ff:	f3 0f 1e fa          	endbr64 
    4703:	55                   	push   %rbp
    4704:	48 89 e5             	mov    %rsp,%rbp
    4707:	89 7d fc             	mov    %edi,-0x4(%rbp)
    470a:	89 75 f8             	mov    %esi,-0x8(%rbp)
    470d:	83 7d f8 00          	cmpl   $0x0,-0x8(%rbp)
    4711:	74 18                	je     472b <safe_div_func_int32_t_s_s+0x2c>
    4713:	81 7d fc 00 00 00 80 	cmpl   $0x80000000,-0x4(%rbp)
    471a:	75 06                	jne    4722 <safe_div_func_int32_t_s_s+0x23>
    471c:	83 7d f8 ff          	cmpl   $0xffffffff,-0x8(%rbp)
    4720:	74 09                	je     472b <safe_div_func_int32_t_s_s+0x2c>
    4722:	8b 45 fc             	mov    -0x4(%rbp),%eax
    4725:	99                   	cltd   
    4726:	f7 7d f8             	idivl  -0x8(%rbp)
    4729:	eb 03                	jmp    472e <safe_div_func_int32_t_s_s+0x2f>
    472b:	8b 45 fc             	mov    -0x4(%rbp),%eax
    472e:	5d                   	pop    %rbp
    472f:	c3                   	retq   

0000000000004730 <safe_lshift_func_int32_t_s_s>:
    4730:	f3 0f 1e fa          	endbr64 
    4734:	55                   	push   %rbp
    4735:	48 89 e5             	mov    %rsp,%rbp
    4738:	89 7d fc             	mov    %edi,-0x4(%rbp)
    473b:	89 75 f8             	mov    %esi,-0x8(%rbp)
    473e:	83 7d fc 00          	cmpl   $0x0,-0x4(%rbp)
    4742:	78 2d                	js     4771 <safe_lshift_func_int32_t_s_s+0x41>
    4744:	83 7d f8 00          	cmpl   $0x0,-0x8(%rbp)
    4748:	78 27                	js     4771 <safe_lshift_func_int32_t_s_s+0x41>
    474a:	83 7d f8 1f          	cmpl   $0x1f,-0x8(%rbp)
    474e:	7f 21                	jg     4771 <safe_lshift_func_int32_t_s_s+0x41>
    4750:	8b 45 f8             	mov    -0x8(%rbp),%eax
    4753:	ba ff ff ff 7f       	mov    $0x7fffffff,%edx
    4758:	89 c1                	mov    %eax,%ecx
    475a:	d3 fa                	sar    %cl,%edx
    475c:	89 d0                	mov    %edx,%eax
    475e:	39 45 fc             	cmp    %eax,-0x4(%rbp)
    4761:	7f 0e                	jg     4771 <safe_lshift_func_int32_t_s_s+0x41>
    4763:	8b 45 f8             	mov    -0x8(%rbp),%eax
    4766:	8b 55 fc             	mov    -0x4(%rbp),%edx
    4769:	89 c1                	mov    %eax,%ecx
    476b:	d3 e2                	shl    %cl,%edx
    476d:	89 d0                	mov    %edx,%eax
    476f:	eb 03                	jmp    4774 <safe_lshift_func_int32_t_s_s+0x44>
    4771:	8b 45 fc             	mov    -0x4(%rbp),%eax
    4774:	5d                   	pop    %rbp
    4775:	c3                   	retq   

0000000000004776 <safe_lshift_func_int32_t_s_u>:
    4776:	f3 0f 1e fa          	endbr64 
    477a:	55                   	push   %rbp
    477b:	48 89 e5             	mov    %rsp,%rbp
    477e:	89 7d fc             	mov    %edi,-0x4(%rbp)
    4781:	89 75 f8             	mov    %esi,-0x8(%rbp)
    4784:	83 7d fc 00          	cmpl   $0x0,-0x4(%rbp)
    4788:	78 27                	js     47b1 <safe_lshift_func_int32_t_s_u+0x3b>
    478a:	83 7d f8 1f          	cmpl   $0x1f,-0x8(%rbp)
    478e:	77 21                	ja     47b1 <safe_lshift_func_int32_t_s_u+0x3b>
    4790:	8b 45 f8             	mov    -0x8(%rbp),%eax
    4793:	ba ff ff ff 7f       	mov    $0x7fffffff,%edx
    4798:	89 c1                	mov    %eax,%ecx
    479a:	d3 fa                	sar    %cl,%edx
    479c:	89 d0                	mov    %edx,%eax
    479e:	39 45 fc             	cmp    %eax,-0x4(%rbp)
    47a1:	7f 0e                	jg     47b1 <safe_lshift_func_int32_t_s_u+0x3b>
    47a3:	8b 45 f8             	mov    -0x8(%rbp),%eax
    47a6:	8b 55 fc             	mov    -0x4(%rbp),%edx
    47a9:	89 c1                	mov    %eax,%ecx
    47ab:	d3 e2                	shl    %cl,%edx
    47ad:	89 d0                	mov    %edx,%eax
    47af:	eb 03                	jmp    47b4 <safe_lshift_func_int32_t_s_u+0x3e>
    47b1:	8b 45 fc             	mov    -0x4(%rbp),%eax
    47b4:	5d                   	pop    %rbp
    47b5:	c3                   	retq   

00000000000047b6 <safe_rshift_func_int32_t_s_s>:
    47b6:	f3 0f 1e fa          	endbr64 
    47ba:	55                   	push   %rbp
    47bb:	48 89 e5             	mov    %rsp,%rbp
    47be:	89 7d fc             	mov    %edi,-0x4(%rbp)
    47c1:	89 75 f8             	mov    %esi,-0x8(%rbp)
    47c4:	83 7d fc 00          	cmpl   $0x0,-0x4(%rbp)
    47c8:	78 1a                	js     47e4 <safe_rshift_func_int32_t_s_s+0x2e>
    47ca:	83 7d f8 00          	cmpl   $0x0,-0x8(%rbp)
    47ce:	78 14                	js     47e4 <safe_rshift_func_int32_t_s_s+0x2e>
    47d0:	83 7d f8 1f          	cmpl   $0x1f,-0x8(%rbp)
    47d4:	7f 0e                	jg     47e4 <safe_rshift_func_int32_t_s_s+0x2e>
    47d6:	8b 45 f8             	mov    -0x8(%rbp),%eax
    47d9:	8b 55 fc             	mov    -0x4(%rbp),%edx
    47dc:	89 c1                	mov    %eax,%ecx
    47de:	d3 fa                	sar    %cl,%edx
    47e0:	89 d0                	mov    %edx,%eax
    47e2:	eb 03                	jmp    47e7 <safe_rshift_func_int32_t_s_s+0x31>
    47e4:	8b 45 fc             	mov    -0x4(%rbp),%eax
    47e7:	5d                   	pop    %rbp
    47e8:	c3                   	retq   

00000000000047e9 <safe_rshift_func_int32_t_s_u>:
    47e9:	f3 0f 1e fa          	endbr64 
    47ed:	55                   	push   %rbp
    47ee:	48 89 e5             	mov    %rsp,%rbp
    47f1:	89 7d fc             	mov    %edi,-0x4(%rbp)
    47f4:	89 75 f8             	mov    %esi,-0x8(%rbp)
    47f7:	83 7d fc 00          	cmpl   $0x0,-0x4(%rbp)
    47fb:	78 14                	js     4811 <safe_rshift_func_int32_t_s_u+0x28>
    47fd:	83 7d f8 1f          	cmpl   $0x1f,-0x8(%rbp)
    4801:	77 0e                	ja     4811 <safe_rshift_func_int32_t_s_u+0x28>
    4803:	8b 45 f8             	mov    -0x8(%rbp),%eax
    4806:	8b 55 fc             	mov    -0x4(%rbp),%edx
    4809:	89 c1                	mov    %eax,%ecx
    480b:	d3 fa                	sar    %cl,%edx
    480d:	89 d0                	mov    %edx,%eax
    480f:	eb 03                	jmp    4814 <safe_rshift_func_int32_t_s_u+0x2b>
    4811:	8b 45 fc             	mov    -0x4(%rbp),%eax
    4814:	5d                   	pop    %rbp
    4815:	c3                   	retq   

0000000000004816 <safe_unary_minus_func_int64_t_s>:
    4816:	f3 0f 1e fa          	endbr64 
    481a:	55                   	push   %rbp
    481b:	48 89 e5             	mov    %rsp,%rbp
    481e:	48 89 7d f8          	mov    %rdi,-0x8(%rbp)
    4822:	48 b8 00 00 00 00 00 	movabs $0x8000000000000000,%rax
    4829:	00 00 80 
    482c:	48 39 45 f8          	cmp    %rax,-0x8(%rbp)
    4830:	74 09                	je     483b <safe_unary_minus_func_int64_t_s+0x25>
    4832:	48 8b 45 f8          	mov    -0x8(%rbp),%rax
    4836:	48 f7 d8             	neg    %rax
    4839:	eb 04                	jmp    483f <safe_unary_minus_func_int64_t_s+0x29>
    483b:	48 8b 45 f8          	mov    -0x8(%rbp),%rax
    483f:	5d                   	pop    %rbp
    4840:	c3                   	retq   

0000000000004841 <safe_add_func_int64_t_s_s>:
    4841:	f3 0f 1e fa          	endbr64 
    4845:	55                   	push   %rbp
    4846:	48 89 e5             	mov    %rsp,%rbp
    4849:	48 89 7d f8          	mov    %rdi,-0x8(%rbp)
    484d:	48 89 75 f0          	mov    %rsi,-0x10(%rbp)
    4851:	48 83 7d f8 00       	cmpq   $0x0,-0x8(%rbp)
    4856:	7e 1b                	jle    4873 <safe_add_func_int64_t_s_s+0x32>
    4858:	48 83 7d f0 00       	cmpq   $0x0,-0x10(%rbp)
    485d:	7e 14                	jle    4873 <safe_add_func_int64_t_s_s+0x32>
    485f:	48 b8 ff ff ff ff ff 	movabs $0x7fffffffffffffff,%rax
    4866:	ff ff 7f 
    4869:	48 2b 45 f0          	sub    -0x10(%rbp),%rax
    486d:	48 39 45 f8          	cmp    %rax,-0x8(%rbp)
    4871:	7f 2f                	jg     48a2 <safe_add_func_int64_t_s_s+0x61>
    4873:	48 83 7d f8 00       	cmpq   $0x0,-0x8(%rbp)
    4878:	79 1b                	jns    4895 <safe_add_func_int64_t_s_s+0x54>
    487a:	48 83 7d f0 00       	cmpq   $0x0,-0x10(%rbp)
    487f:	79 14                	jns    4895 <safe_add_func_int64_t_s_s+0x54>
    4881:	48 b8 00 00 00 00 00 	movabs $0x8000000000000000,%rax
    4888:	00 00 80 
    488b:	48 2b 45 f0          	sub    -0x10(%rbp),%rax
    488f:	48 39 45 f8          	cmp    %rax,-0x8(%rbp)
    4893:	7c 0d                	jl     48a2 <safe_add_func_int64_t_s_s+0x61>
    4895:	48 8b 55 f8          	mov    -0x8(%rbp),%rdx
    4899:	48 8b 45 f0          	mov    -0x10(%rbp),%rax
    489d:	48 01 d0             	add    %rdx,%rax
    48a0:	eb 04                	jmp    48a6 <safe_add_func_int64_t_s_s+0x65>
    48a2:	48 8b 45 f8          	mov    -0x8(%rbp),%rax
    48a6:	5d                   	pop    %rbp
    48a7:	c3                   	retq   

00000000000048a8 <safe_sub_func_int64_t_s_s>:
    48a8:	f3 0f 1e fa          	endbr64 
    48ac:	55                   	push   %rbp
    48ad:	48 89 e5             	mov    %rsp,%rbp
    48b0:	48 89 7d f8          	mov    %rdi,-0x8(%rbp)
    48b4:	48 89 75 f0          	mov    %rsi,-0x10(%rbp)
    48b8:	48 8b 45 f8          	mov    -0x8(%rbp),%rax
    48bc:	48 33 45 f0          	xor    -0x10(%rbp),%rax
    48c0:	48 89 c2             	mov    %rax,%rdx
    48c3:	48 8b 45 f8          	mov    -0x8(%rbp),%rax
    48c7:	48 33 45 f0          	xor    -0x10(%rbp),%rax
    48cb:	48 b9 00 00 00 00 00 	movabs $0x8000000000000000,%rcx
    48d2:	00 00 80 
    48d5:	48 21 c8             	and    %rcx,%rax
    48d8:	48 33 45 f8          	xor    -0x8(%rbp),%rax
    48dc:	48 2b 45 f0          	sub    -0x10(%rbp),%rax
    48e0:	48 33 45 f0          	xor    -0x10(%rbp),%rax
    48e4:	48 21 d0             	and    %rdx,%rax
    48e7:	48 85 c0             	test   %rax,%rax
    48ea:	78 0a                	js     48f6 <safe_sub_func_int64_t_s_s+0x4e>
    48ec:	48 8b 45 f8          	mov    -0x8(%rbp),%rax
    48f0:	48 2b 45 f0          	sub    -0x10(%rbp),%rax
    48f4:	eb 04                	jmp    48fa <safe_sub_func_int64_t_s_s+0x52>
    48f6:	48 8b 45 f8          	mov    -0x8(%rbp),%rax
    48fa:	5d                   	pop    %rbp
    48fb:	c3                   	retq   

00000000000048fc <safe_mul_func_int64_t_s_s>:
    48fc:	f3 0f 1e fa          	endbr64 
    4900:	55                   	push   %rbp
    4901:	48 89 e5             	mov    %rsp,%rbp
    4904:	48 89 7d f8          	mov    %rdi,-0x8(%rbp)
    4908:	48 89 75 f0          	mov    %rsi,-0x10(%rbp)
    490c:	48 83 7d f8 00       	cmpq   $0x0,-0x8(%rbp)
    4911:	7e 1d                	jle    4930 <safe_mul_func_int64_t_s_s+0x34>
    4913:	48 83 7d f0 00       	cmpq   $0x0,-0x10(%rbp)
    4918:	7e 16                	jle    4930 <safe_mul_func_int64_t_s_s+0x34>
    491a:	48 b8 ff ff ff ff ff 	movabs $0x7fffffffffffffff,%rax
    4921:	ff ff 7f 
    4924:	48 99                	cqto   
    4926:	48 f7 7d f0          	idivq  -0x10(%rbp)
    492a:	48 39 45 f8          	cmp    %rax,-0x8(%rbp)
    492e:	7f 7e                	jg     49ae <safe_mul_func_int64_t_s_s+0xb2>
    4930:	48 83 7d f8 00       	cmpq   $0x0,-0x8(%rbp)
    4935:	7e 1d                	jle    4954 <safe_mul_func_int64_t_s_s+0x58>
    4937:	48 83 7d f0 00       	cmpq   $0x0,-0x10(%rbp)
    493c:	7f 16                	jg     4954 <safe_mul_func_int64_t_s_s+0x58>
    493e:	48 b8 00 00 00 00 00 	movabs $0x8000000000000000,%rax
    4945:	00 00 80 
    4948:	48 99                	cqto   
    494a:	48 f7 7d f8          	idivq  -0x8(%rbp)
    494e:	48 39 45 f0          	cmp    %rax,-0x10(%rbp)
    4952:	7c 5a                	jl     49ae <safe_mul_func_int64_t_s_s+0xb2>
    4954:	48 83 7d f8 00       	cmpq   $0x0,-0x8(%rbp)
    4959:	7f 1d                	jg     4978 <safe_mul_func_int64_t_s_s+0x7c>
    495b:	48 83 7d f0 00       	cmpq   $0x0,-0x10(%rbp)
    4960:	7e 16                	jle    4978 <safe_mul_func_int64_t_s_s+0x7c>
    4962:	48 b8 00 00 00 00 00 	movabs $0x8000000000000000,%rax
    4969:	00 00 80 
    496c:	48 99                	cqto   
    496e:	48 f7 7d f0          	idivq  -0x10(%rbp)
    4972:	48 39 45 f8          	cmp    %rax,-0x8(%rbp)
    4976:	7c 36                	jl     49ae <safe_mul_func_int64_t_s_s+0xb2>
    4978:	48 83 7d f8 00       	cmpq   $0x0,-0x8(%rbp)
    497d:	7f 24                	jg     49a3 <safe_mul_func_int64_t_s_s+0xa7>
    497f:	48 83 7d f0 00       	cmpq   $0x0,-0x10(%rbp)
    4984:	7f 1d                	jg     49a3 <safe_mul_func_int64_t_s_s+0xa7>
    4986:	48 83 7d f8 00       	cmpq   $0x0,-0x8(%rbp)
    498b:	74 16                	je     49a3 <safe_mul_func_int64_t_s_s+0xa7>
    498d:	48 b8 ff ff ff ff ff 	movabs $0x7fffffffffffffff,%rax
    4994:	ff ff 7f 
    4997:	48 99                	cqto   
    4999:	48 f7 7d f8          	idivq  -0x8(%rbp)
    499d:	48 39 45 f0          	cmp    %rax,-0x10(%rbp)
    49a1:	7c 0b                	jl     49ae <safe_mul_func_int64_t_s_s+0xb2>
    49a3:	48 8b 45 f8          	mov    -0x8(%rbp),%rax
    49a7:	48 0f af 45 f0       	imul   -0x10(%rbp),%rax
    49ac:	eb 04                	jmp    49b2 <safe_mul_func_int64_t_s_s+0xb6>
    49ae:	48 8b 45 f8          	mov    -0x8(%rbp),%rax
    49b2:	5d                   	pop    %rbp
    49b3:	c3                   	retq   

00000000000049b4 <safe_mod_func_int64_t_s_s>:
    49b4:	f3 0f 1e fa          	endbr64 
    49b8:	55                   	push   %rbp
    49b9:	48 89 e5             	mov    %rsp,%rbp
    49bc:	48 89 7d f8          	mov    %rdi,-0x8(%rbp)
    49c0:	48 89 75 f0          	mov    %rsi,-0x10(%rbp)
    49c4:	48 83 7d f0 00       	cmpq   $0x0,-0x10(%rbp)
    49c9:	74 26                	je     49f1 <safe_mod_func_int64_t_s_s+0x3d>
    49cb:	48 b8 00 00 00 00 00 	movabs $0x8000000000000000,%rax
    49d2:	00 00 80 
    49d5:	48 39 45 f8          	cmp    %rax,-0x8(%rbp)
    49d9:	75 07                	jne    49e2 <safe_mod_func_int64_t_s_s+0x2e>
    49db:	48 83 7d f0 ff       	cmpq   $0xffffffffffffffff,-0x10(%rbp)
    49e0:	74 0f                	je     49f1 <safe_mod_func_int64_t_s_s+0x3d>
    49e2:	48 8b 45 f8          	mov    -0x8(%rbp),%rax
    49e6:	48 99                	cqto   
    49e8:	48 f7 7d f0          	idivq  -0x10(%rbp)
    49ec:	48 89 d0             	mov    %rdx,%rax
    49ef:	eb 04                	jmp    49f5 <safe_mod_func_int64_t_s_s+0x41>
    49f1:	48 8b 45 f8          	mov    -0x8(%rbp),%rax
    49f5:	5d                   	pop    %rbp
    49f6:	c3                   	retq   

00000000000049f7 <safe_div_func_int64_t_s_s>:
    49f7:	f3 0f 1e fa          	endbr64 
    49fb:	55                   	push   %rbp
    49fc:	48 89 e5             	mov    %rsp,%rbp
    49ff:	48 89 7d f8          	mov    %rdi,-0x8(%rbp)
    4a03:	48 89 75 f0          	mov    %rsi,-0x10(%rbp)
    4a07:	48 83 7d f0 00       	cmpq   $0x0,-0x10(%rbp)
    4a0c:	74 23                	je     4a31 <safe_div_func_int64_t_s_s+0x3a>
    4a0e:	48 b8 00 00 00 00 00 	movabs $0x8000000000000000,%rax
    4a15:	00 00 80 
    4a18:	48 39 45 f8          	cmp    %rax,-0x8(%rbp)
    4a1c:	75 07                	jne    4a25 <safe_div_func_int64_t_s_s+0x2e>
    4a1e:	48 83 7d f0 ff       	cmpq   $0xffffffffffffffff,-0x10(%rbp)
    4a23:	74 0c                	je     4a31 <safe_div_func_int64_t_s_s+0x3a>
    4a25:	48 8b 45 f8          	mov    -0x8(%rbp),%rax
    4a29:	48 99                	cqto   
    4a2b:	48 f7 7d f0          	idivq  -0x10(%rbp)
    4a2f:	eb 04                	jmp    4a35 <safe_div_func_int64_t_s_s+0x3e>
    4a31:	48 8b 45 f8          	mov    -0x8(%rbp),%rax
    4a35:	5d                   	pop    %rbp
    4a36:	c3                   	retq   

0000000000004a37 <safe_lshift_func_int64_t_s_s>:
    4a37:	f3 0f 1e fa          	endbr64 
    4a3b:	55                   	push   %rbp
    4a3c:	48 89 e5             	mov    %rsp,%rbp
    4a3f:	48 89 7d f8          	mov    %rdi,-0x8(%rbp)
    4a43:	89 75 f4             	mov    %esi,-0xc(%rbp)
    4a46:	48 83 7d f8 00       	cmpq   $0x0,-0x8(%rbp)
    4a4b:	78 38                	js     4a85 <safe_lshift_func_int64_t_s_s+0x4e>
    4a4d:	83 7d f4 00          	cmpl   $0x0,-0xc(%rbp)
    4a51:	78 32                	js     4a85 <safe_lshift_func_int64_t_s_s+0x4e>
    4a53:	83 7d f4 1f          	cmpl   $0x1f,-0xc(%rbp)
    4a57:	7f 2c                	jg     4a85 <safe_lshift_func_int64_t_s_s+0x4e>
    4a59:	8b 45 f4             	mov    -0xc(%rbp),%eax
    4a5c:	48 ba ff ff ff ff ff 	movabs $0x7fffffffffffffff,%rdx
    4a63:	ff ff 7f 
    4a66:	89 c1                	mov    %eax,%ecx
    4a68:	48 d3 fa             	sar    %cl,%rdx
    4a6b:	48 89 d0             	mov    %rdx,%rax
    4a6e:	48 39 45 f8          	cmp    %rax,-0x8(%rbp)
    4a72:	7f 11                	jg     4a85 <safe_lshift_func_int64_t_s_s+0x4e>
    4a74:	8b 45 f4             	mov    -0xc(%rbp),%eax
    4a77:	48 8b 55 f8          	mov    -0x8(%rbp),%rdx
    4a7b:	89 c1                	mov    %eax,%ecx
    4a7d:	48 d3 e2             	shl    %cl,%rdx
    4a80:	48 89 d0             	mov    %rdx,%rax
    4a83:	eb 04                	jmp    4a89 <safe_lshift_func_int64_t_s_s+0x52>
    4a85:	48 8b 45 f8          	mov    -0x8(%rbp),%rax
    4a89:	5d                   	pop    %rbp
    4a8a:	c3                   	retq   

0000000000004a8b <safe_lshift_func_int64_t_s_u>:
    4a8b:	f3 0f 1e fa          	endbr64 
    4a8f:	55                   	push   %rbp
    4a90:	48 89 e5             	mov    %rsp,%rbp
    4a93:	48 89 7d f8          	mov    %rdi,-0x8(%rbp)
    4a97:	89 75 f4             	mov    %esi,-0xc(%rbp)
    4a9a:	48 83 7d f8 00       	cmpq   $0x0,-0x8(%rbp)
    4a9f:	78 32                	js     4ad3 <safe_lshift_func_int64_t_s_u+0x48>
    4aa1:	83 7d f4 1f          	cmpl   $0x1f,-0xc(%rbp)
    4aa5:	77 2c                	ja     4ad3 <safe_lshift_func_int64_t_s_u+0x48>
    4aa7:	8b 45 f4             	mov    -0xc(%rbp),%eax
    4aaa:	48 ba ff ff ff ff ff 	movabs $0x7fffffffffffffff,%rdx
    4ab1:	ff ff 7f 
    4ab4:	89 c1                	mov    %eax,%ecx
    4ab6:	48 d3 fa             	sar    %cl,%rdx
    4ab9:	48 89 d0             	mov    %rdx,%rax
    4abc:	48 39 45 f8          	cmp    %rax,-0x8(%rbp)
    4ac0:	7f 11                	jg     4ad3 <safe_lshift_func_int64_t_s_u+0x48>
    4ac2:	8b 45 f4             	mov    -0xc(%rbp),%eax
    4ac5:	48 8b 55 f8          	mov    -0x8(%rbp),%rdx
    4ac9:	89 c1                	mov    %eax,%ecx
    4acb:	48 d3 e2             	shl    %cl,%rdx
    4ace:	48 89 d0             	mov    %rdx,%rax
    4ad1:	eb 04                	jmp    4ad7 <safe_lshift_func_int64_t_s_u+0x4c>
    4ad3:	48 8b 45 f8          	mov    -0x8(%rbp),%rax
    4ad7:	5d                   	pop    %rbp
    4ad8:	c3                   	retq   

0000000000004ad9 <safe_rshift_func_int64_t_s_s>:
    4ad9:	f3 0f 1e fa          	endbr64 
    4add:	55                   	push   %rbp
    4ade:	48 89 e5             	mov    %rsp,%rbp
    4ae1:	48 89 7d f8          	mov    %rdi,-0x8(%rbp)
    4ae5:	89 75 f4             	mov    %esi,-0xc(%rbp)
    4ae8:	48 83 7d f8 00       	cmpq   $0x0,-0x8(%rbp)
    4aed:	78 1d                	js     4b0c <safe_rshift_func_int64_t_s_s+0x33>
    4aef:	83 7d f4 00          	cmpl   $0x0,-0xc(%rbp)
    4af3:	78 17                	js     4b0c <safe_rshift_func_int64_t_s_s+0x33>
    4af5:	83 7d f4 1f          	cmpl   $0x1f,-0xc(%rbp)
    4af9:	7f 11                	jg     4b0c <safe_rshift_func_int64_t_s_s+0x33>
    4afb:	8b 45 f4             	mov    -0xc(%rbp),%eax
    4afe:	48 8b 55 f8          	mov    -0x8(%rbp),%rdx
    4b02:	89 c1                	mov    %eax,%ecx
    4b04:	48 d3 fa             	sar    %cl,%rdx
    4b07:	48 89 d0             	mov    %rdx,%rax
    4b0a:	eb 04                	jmp    4b10 <safe_rshift_func_int64_t_s_s+0x37>
    4b0c:	48 8b 45 f8          	mov    -0x8(%rbp),%rax
    4b10:	5d                   	pop    %rbp
    4b11:	c3                   	retq   

0000000000004b12 <safe_rshift_func_int64_t_s_u>:
    4b12:	f3 0f 1e fa          	endbr64 
    4b16:	55                   	push   %rbp
    4b17:	48 89 e5             	mov    %rsp,%rbp
    4b1a:	48 89 7d f8          	mov    %rdi,-0x8(%rbp)
    4b1e:	89 75 f4             	mov    %esi,-0xc(%rbp)
    4b21:	48 83 7d f8 00       	cmpq   $0x0,-0x8(%rbp)
    4b26:	78 17                	js     4b3f <safe_rshift_func_int64_t_s_u+0x2d>
    4b28:	83 7d f4 1f          	cmpl   $0x1f,-0xc(%rbp)
    4b2c:	77 11                	ja     4b3f <safe_rshift_func_int64_t_s_u+0x2d>
    4b2e:	8b 45 f4             	mov    -0xc(%rbp),%eax
    4b31:	48 8b 55 f8          	mov    -0x8(%rbp),%rdx
    4b35:	89 c1                	mov    %eax,%ecx
    4b37:	48 d3 fa             	sar    %cl,%rdx
    4b3a:	48 89 d0             	mov    %rdx,%rax
    4b3d:	eb 04                	jmp    4b43 <safe_rshift_func_int64_t_s_u+0x31>
    4b3f:	48 8b 45 f8          	mov    -0x8(%rbp),%rax
    4b43:	5d                   	pop    %rbp
    4b44:	c3                   	retq   

0000000000004b45 <safe_unary_minus_func_uint8_t_u>:
    4b45:	f3 0f 1e fa          	endbr64 
    4b49:	55                   	push   %rbp
    4b4a:	48 89 e5             	mov    %rsp,%rbp
    4b4d:	89 f8                	mov    %edi,%eax
    4b4f:	88 45 fc             	mov    %al,-0x4(%rbp)
    4b52:	0f b6 45 fc          	movzbl -0x4(%rbp),%eax
    4b56:	f7 d8                	neg    %eax
    4b58:	5d                   	pop    %rbp
    4b59:	c3                   	retq   

0000000000004b5a <safe_add_func_uint8_t_u_u>:
    4b5a:	f3 0f 1e fa          	endbr64 
    4b5e:	55                   	push   %rbp
    4b5f:	48 89 e5             	mov    %rsp,%rbp
    4b62:	89 fa                	mov    %edi,%edx
    4b64:	89 f0                	mov    %esi,%eax
    4b66:	88 55 fc             	mov    %dl,-0x4(%rbp)
    4b69:	88 45 f8             	mov    %al,-0x8(%rbp)
    4b6c:	0f b6 55 fc          	movzbl -0x4(%rbp),%edx
    4b70:	0f b6 45 f8          	movzbl -0x8(%rbp),%eax
    4b74:	01 d0                	add    %edx,%eax
    4b76:	5d                   	pop    %rbp
    4b77:	c3                   	retq   

0000000000004b78 <safe_sub_func_uint8_t_u_u>:
    4b78:	f3 0f 1e fa          	endbr64 
    4b7c:	55                   	push   %rbp
    4b7d:	48 89 e5             	mov    %rsp,%rbp
    4b80:	89 fa                	mov    %edi,%edx
    4b82:	89 f0                	mov    %esi,%eax
    4b84:	88 55 fc             	mov    %dl,-0x4(%rbp)
    4b87:	88 45 f8             	mov    %al,-0x8(%rbp)
    4b8a:	0f b6 45 fc          	movzbl -0x4(%rbp),%eax
    4b8e:	2a 45 f8             	sub    -0x8(%rbp),%al
    4b91:	5d                   	pop    %rbp
    4b92:	c3                   	retq   

0000000000004b93 <safe_mul_func_uint8_t_u_u>:
    4b93:	f3 0f 1e fa          	endbr64 
    4b97:	55                   	push   %rbp
    4b98:	48 89 e5             	mov    %rsp,%rbp
    4b9b:	89 fa                	mov    %edi,%edx
    4b9d:	89 f0                	mov    %esi,%eax
    4b9f:	88 55 fc             	mov    %dl,-0x4(%rbp)
    4ba2:	88 45 f8             	mov    %al,-0x8(%rbp)
    4ba5:	0f b6 45 fc          	movzbl -0x4(%rbp),%eax
    4ba9:	f6 65 f8             	mulb   -0x8(%rbp)
    4bac:	5d                   	pop    %rbp
    4bad:	c3                   	retq   

0000000000004bae <safe_mod_func_uint8_t_u_u>:
    4bae:	f3 0f 1e fa          	endbr64 
    4bb2:	55                   	push   %rbp
    4bb3:	48 89 e5             	mov    %rsp,%rbp
    4bb6:	89 fa                	mov    %edi,%edx
    4bb8:	89 f0                	mov    %esi,%eax
    4bba:	88 55 fc             	mov    %dl,-0x4(%rbp)
    4bbd:	88 45 f8             	mov    %al,-0x8(%rbp)
    4bc0:	80 7d f8 00          	cmpb   $0x0,-0x8(%rbp)
    4bc4:	74 0f                	je     4bd5 <safe_mod_func_uint8_t_u_u+0x27>
    4bc6:	0f b6 45 fc          	movzbl -0x4(%rbp),%eax
    4bca:	0f b6 c0             	movzbl %al,%eax
    4bcd:	f6 75 f8             	divb   -0x8(%rbp)
    4bd0:	0f b6 c4             	movzbl %ah,%eax
    4bd3:	eb 04                	jmp    4bd9 <safe_mod_func_uint8_t_u_u+0x2b>
    4bd5:	0f b6 45 fc          	movzbl -0x4(%rbp),%eax
    4bd9:	5d                   	pop    %rbp
    4bda:	c3                   	retq   

0000000000004bdb <safe_div_func_uint8_t_u_u>:
    4bdb:	f3 0f 1e fa          	endbr64 
    4bdf:	55                   	push   %rbp
    4be0:	48 89 e5             	mov    %rsp,%rbp
    4be3:	89 fa                	mov    %edi,%edx
    4be5:	89 f0                	mov    %esi,%eax
    4be7:	88 55 fc             	mov    %dl,-0x4(%rbp)
    4bea:	88 45 f8             	mov    %al,-0x8(%rbp)
    4bed:	80 7d f8 00          	cmpb   $0x0,-0x8(%rbp)
    4bf1:	74 0c                	je     4bff <safe_div_func_uint8_t_u_u+0x24>
    4bf3:	0f b6 45 fc          	movzbl -0x4(%rbp),%eax
    4bf7:	0f b6 c0             	movzbl %al,%eax
    4bfa:	f6 75 f8             	divb   -0x8(%rbp)
    4bfd:	eb 04                	jmp    4c03 <safe_div_func_uint8_t_u_u+0x28>
    4bff:	0f b6 45 fc          	movzbl -0x4(%rbp),%eax
    4c03:	5d                   	pop    %rbp
    4c04:	c3                   	retq   

0000000000004c05 <safe_lshift_func_uint8_t_u_s>:
    4c05:	f3 0f 1e fa          	endbr64 
    4c09:	55                   	push   %rbp
    4c0a:	48 89 e5             	mov    %rsp,%rbp
    4c0d:	89 f8                	mov    %edi,%eax
    4c0f:	89 75 f8             	mov    %esi,-0x8(%rbp)
    4c12:	88 45 fc             	mov    %al,-0x4(%rbp)
    4c15:	83 7d f8 00          	cmpl   $0x0,-0x8(%rbp)
    4c19:	78 2b                	js     4c46 <safe_lshift_func_uint8_t_u_s+0x41>
    4c1b:	83 7d f8 1f          	cmpl   $0x1f,-0x8(%rbp)
    4c1f:	7f 25                	jg     4c46 <safe_lshift_func_uint8_t_u_s+0x41>
    4c21:	0f b6 55 fc          	movzbl -0x4(%rbp),%edx
    4c25:	8b 45 f8             	mov    -0x8(%rbp),%eax
    4c28:	be ff 00 00 00       	mov    $0xff,%esi
    4c2d:	89 c1                	mov    %eax,%ecx
    4c2f:	d3 fe                	sar    %cl,%esi
    4c31:	89 f0                	mov    %esi,%eax
    4c33:	39 c2                	cmp    %eax,%edx
    4c35:	7f 0f                	jg     4c46 <safe_lshift_func_uint8_t_u_s+0x41>
    4c37:	0f b6 55 fc          	movzbl -0x4(%rbp),%edx
    4c3b:	8b 45 f8             	mov    -0x8(%rbp),%eax
    4c3e:	89 c1                	mov    %eax,%ecx
    4c40:	d3 e2                	shl    %cl,%edx
    4c42:	89 d0                	mov    %edx,%eax
    4c44:	eb 04                	jmp    4c4a <safe_lshift_func_uint8_t_u_s+0x45>
    4c46:	0f b6 45 fc          	movzbl -0x4(%rbp),%eax
    4c4a:	5d                   	pop    %rbp
    4c4b:	c3                   	retq   

0000000000004c4c <safe_lshift_func_uint8_t_u_u>:
    4c4c:	f3 0f 1e fa          	endbr64 
    4c50:	55                   	push   %rbp
    4c51:	48 89 e5             	mov    %rsp,%rbp
    4c54:	89 f8                	mov    %edi,%eax
    4c56:	89 75 f8             	mov    %esi,-0x8(%rbp)
    4c59:	88 45 fc             	mov    %al,-0x4(%rbp)
    4c5c:	83 7d f8 1f          	cmpl   $0x1f,-0x8(%rbp)
    4c60:	77 25                	ja     4c87 <safe_lshift_func_uint8_t_u_u+0x3b>
    4c62:	0f b6 55 fc          	movzbl -0x4(%rbp),%edx
    4c66:	8b 45 f8             	mov    -0x8(%rbp),%eax
    4c69:	be ff 00 00 00       	mov    $0xff,%esi
    4c6e:	89 c1                	mov    %eax,%ecx
    4c70:	d3 fe                	sar    %cl,%esi
    4c72:	89 f0                	mov    %esi,%eax
    4c74:	39 c2                	cmp    %eax,%edx
    4c76:	7f 0f                	jg     4c87 <safe_lshift_func_uint8_t_u_u+0x3b>
    4c78:	0f b6 55 fc          	movzbl -0x4(%rbp),%edx
    4c7c:	8b 45 f8             	mov    -0x8(%rbp),%eax
    4c7f:	89 c1                	mov    %eax,%ecx
    4c81:	d3 e2                	shl    %cl,%edx
    4c83:	89 d0                	mov    %edx,%eax
    4c85:	eb 04                	jmp    4c8b <safe_lshift_func_uint8_t_u_u+0x3f>
    4c87:	0f b6 45 fc          	movzbl -0x4(%rbp),%eax
    4c8b:	5d                   	pop    %rbp
    4c8c:	c3                   	retq   

0000000000004c8d <safe_rshift_func_uint8_t_u_s>:
    4c8d:	f3 0f 1e fa          	endbr64 
    4c91:	55                   	push   %rbp
    4c92:	48 89 e5             	mov    %rsp,%rbp
    4c95:	89 f8                	mov    %edi,%eax
    4c97:	89 75 f8             	mov    %esi,-0x8(%rbp)
    4c9a:	88 45 fc             	mov    %al,-0x4(%rbp)
    4c9d:	83 7d f8 00          	cmpl   $0x0,-0x8(%rbp)
    4ca1:	78 15                	js     4cb8 <safe_rshift_func_uint8_t_u_s+0x2b>
    4ca3:	83 7d f8 1f          	cmpl   $0x1f,-0x8(%rbp)
    4ca7:	7f 0f                	jg     4cb8 <safe_rshift_func_uint8_t_u_s+0x2b>
    4ca9:	0f b6 55 fc          	movzbl -0x4(%rbp),%edx
    4cad:	8b 45 f8             	mov    -0x8(%rbp),%eax
    4cb0:	89 c1                	mov    %eax,%ecx
    4cb2:	d3 fa                	sar    %cl,%edx
    4cb4:	89 d0                	mov    %edx,%eax
    4cb6:	eb 04                	jmp    4cbc <safe_rshift_func_uint8_t_u_s+0x2f>
    4cb8:	0f b6 45 fc          	movzbl -0x4(%rbp),%eax
    4cbc:	5d                   	pop    %rbp
    4cbd:	c3                   	retq   

0000000000004cbe <safe_rshift_func_uint8_t_u_u>:
    4cbe:	f3 0f 1e fa          	endbr64 
    4cc2:	55                   	push   %rbp
    4cc3:	48 89 e5             	mov    %rsp,%rbp
    4cc6:	89 f8                	mov    %edi,%eax
    4cc8:	89 75 f8             	mov    %esi,-0x8(%rbp)
    4ccb:	88 45 fc             	mov    %al,-0x4(%rbp)
    4cce:	83 7d f8 1f          	cmpl   $0x1f,-0x8(%rbp)
    4cd2:	77 0f                	ja     4ce3 <safe_rshift_func_uint8_t_u_u+0x25>
    4cd4:	0f b6 55 fc          	movzbl -0x4(%rbp),%edx
    4cd8:	8b 45 f8             	mov    -0x8(%rbp),%eax
    4cdb:	89 c1                	mov    %eax,%ecx
    4cdd:	d3 fa                	sar    %cl,%edx
    4cdf:	89 d0                	mov    %edx,%eax
    4ce1:	eb 04                	jmp    4ce7 <safe_rshift_func_uint8_t_u_u+0x29>
    4ce3:	0f b6 45 fc          	movzbl -0x4(%rbp),%eax
    4ce7:	5d                   	pop    %rbp
    4ce8:	c3                   	retq   

0000000000004ce9 <safe_unary_minus_func_uint16_t_u>:
    4ce9:	f3 0f 1e fa          	endbr64 
    4ced:	55                   	push   %rbp
    4cee:	48 89 e5             	mov    %rsp,%rbp
    4cf1:	89 f8                	mov    %edi,%eax
    4cf3:	66 89 45 fc          	mov    %ax,-0x4(%rbp)
    4cf7:	0f b7 45 fc          	movzwl -0x4(%rbp),%eax
    4cfb:	f7 d8                	neg    %eax
    4cfd:	5d                   	pop    %rbp
    4cfe:	c3                   	retq   

0000000000004cff <safe_add_func_uint16_t_u_u>:
    4cff:	f3 0f 1e fa          	endbr64 
    4d03:	55                   	push   %rbp
    4d04:	48 89 e5             	mov    %rsp,%rbp
    4d07:	89 fa                	mov    %edi,%edx
    4d09:	89 f0                	mov    %esi,%eax
    4d0b:	66 89 55 fc          	mov    %dx,-0x4(%rbp)
    4d0f:	66 89 45 f8          	mov    %ax,-0x8(%rbp)
    4d13:	0f b7 55 fc          	movzwl -0x4(%rbp),%edx
    4d17:	0f b7 45 f8          	movzwl -0x8(%rbp),%eax
    4d1b:	01 d0                	add    %edx,%eax
    4d1d:	5d                   	pop    %rbp
    4d1e:	c3                   	retq   

0000000000004d1f <safe_sub_func_uint16_t_u_u>:
    4d1f:	f3 0f 1e fa          	endbr64 
    4d23:	55                   	push   %rbp
    4d24:	48 89 e5             	mov    %rsp,%rbp
    4d27:	89 fa                	mov    %edi,%edx
    4d29:	89 f0                	mov    %esi,%eax
    4d2b:	66 89 55 fc          	mov    %dx,-0x4(%rbp)
    4d2f:	66 89 45 f8          	mov    %ax,-0x8(%rbp)
    4d33:	0f b7 45 fc          	movzwl -0x4(%rbp),%eax
    4d37:	66 2b 45 f8          	sub    -0x8(%rbp),%ax
    4d3b:	5d                   	pop    %rbp
    4d3c:	c3                   	retq   

0000000000004d3d <safe_mul_func_uint16_t_u_u>:
    4d3d:	f3 0f 1e fa          	endbr64 
    4d41:	55                   	push   %rbp
    4d42:	48 89 e5             	mov    %rsp,%rbp
    4d45:	89 fa                	mov    %edi,%edx
    4d47:	89 f0                	mov    %esi,%eax
    4d49:	66 89 55 fc          	mov    %dx,-0x4(%rbp)
    4d4d:	66 89 45 f8          	mov    %ax,-0x8(%rbp)
    4d51:	0f b7 45 fc          	movzwl -0x4(%rbp),%eax
    4d55:	66 0f af 45 f8       	imul   -0x8(%rbp),%ax
    4d5a:	5d                   	pop    %rbp
    4d5b:	c3                   	retq   

0000000000004d5c <safe_mod_func_uint16_t_u_u>:
    4d5c:	f3 0f 1e fa          	endbr64 
    4d60:	55                   	push   %rbp
    4d61:	48 89 e5             	mov    %rsp,%rbp
    4d64:	89 fa                	mov    %edi,%edx
    4d66:	89 f0                	mov    %esi,%eax
    4d68:	66 89 55 fc          	mov    %dx,-0x4(%rbp)
    4d6c:	66 89 45 f8          	mov    %ax,-0x8(%rbp)
    4d70:	66 83 7d f8 00       	cmpw   $0x0,-0x8(%rbp)
    4d75:	74 11                	je     4d88 <safe_mod_func_uint16_t_u_u+0x2c>
    4d77:	0f b7 45 fc          	movzwl -0x4(%rbp),%eax
    4d7b:	ba 00 00 00 00       	mov    $0x0,%edx
    4d80:	66 f7 75 f8          	divw   -0x8(%rbp)
    4d84:	89 d0                	mov    %edx,%eax
    4d86:	eb 04                	jmp    4d8c <safe_mod_func_uint16_t_u_u+0x30>
    4d88:	0f b7 45 fc          	movzwl -0x4(%rbp),%eax
    4d8c:	5d                   	pop    %rbp
    4d8d:	c3                   	retq   

0000000000004d8e <safe_div_func_uint16_t_u_u>:
    4d8e:	f3 0f 1e fa          	endbr64 
    4d92:	55                   	push   %rbp
    4d93:	48 89 e5             	mov    %rsp,%rbp
    4d96:	89 fa                	mov    %edi,%edx
    4d98:	89 f0                	mov    %esi,%eax
    4d9a:	66 89 55 fc          	mov    %dx,-0x4(%rbp)
    4d9e:	66 89 45 f8          	mov    %ax,-0x8(%rbp)
    4da2:	66 83 7d f8 00       	cmpw   $0x0,-0x8(%rbp)
    4da7:	74 0f                	je     4db8 <safe_div_func_uint16_t_u_u+0x2a>
    4da9:	0f b7 45 fc          	movzwl -0x4(%rbp),%eax
    4dad:	ba 00 00 00 00       	mov    $0x0,%edx
    4db2:	66 f7 75 f8          	divw   -0x8(%rbp)
    4db6:	eb 04                	jmp    4dbc <safe_div_func_uint16_t_u_u+0x2e>
    4db8:	0f b7 45 fc          	movzwl -0x4(%rbp),%eax
    4dbc:	5d                   	pop    %rbp
    4dbd:	c3                   	retq   

0000000000004dbe <safe_lshift_func_uint16_t_u_s>:
    4dbe:	f3 0f 1e fa          	endbr64 
    4dc2:	55                   	push   %rbp
    4dc3:	48 89 e5             	mov    %rsp,%rbp
    4dc6:	89 f8                	mov    %edi,%eax
    4dc8:	89 75 f8             	mov    %esi,-0x8(%rbp)
    4dcb:	66 89 45 fc          	mov    %ax,-0x4(%rbp)
    4dcf:	83 7d f8 00          	cmpl   $0x0,-0x8(%rbp)
    4dd3:	78 2b                	js     4e00 <safe_lshift_func_uint16_t_u_s+0x42>
    4dd5:	83 7d f8 1f          	cmpl   $0x1f,-0x8(%rbp)
    4dd9:	7f 25                	jg     4e00 <safe_lshift_func_uint16_t_u_s+0x42>
    4ddb:	0f b7 55 fc          	movzwl -0x4(%rbp),%edx
    4ddf:	8b 45 f8             	mov    -0x8(%rbp),%eax
    4de2:	be ff ff 00 00       	mov    $0xffff,%esi
    4de7:	89 c1                	mov    %eax,%ecx
    4de9:	d3 fe                	sar    %cl,%esi
    4deb:	89 f0                	mov    %esi,%eax
    4ded:	39 c2                	cmp    %eax,%edx
    4def:	7f 0f                	jg     4e00 <safe_lshift_func_uint16_t_u_s+0x42>
    4df1:	0f b7 55 fc          	movzwl -0x4(%rbp),%edx
    4df5:	8b 45 f8             	mov    -0x8(%rbp),%eax
    4df8:	89 c1                	mov    %eax,%ecx
    4dfa:	d3 e2                	shl    %cl,%edx
    4dfc:	89 d0                	mov    %edx,%eax
    4dfe:	eb 04                	jmp    4e04 <safe_lshift_func_uint16_t_u_s+0x46>
    4e00:	0f b7 45 fc          	movzwl -0x4(%rbp),%eax
    4e04:	5d                   	pop    %rbp
    4e05:	c3                   	retq   

0000000000004e06 <safe_lshift_func_uint16_t_u_u>:
    4e06:	f3 0f 1e fa          	endbr64 
    4e0a:	55                   	push   %rbp
    4e0b:	48 89 e5             	mov    %rsp,%rbp
    4e0e:	89 f8                	mov    %edi,%eax
    4e10:	89 75 f8             	mov    %esi,-0x8(%rbp)
    4e13:	66 89 45 fc          	mov    %ax,-0x4(%rbp)
    4e17:	83 7d f8 1f          	cmpl   $0x1f,-0x8(%rbp)
    4e1b:	77 25                	ja     4e42 <safe_lshift_func_uint16_t_u_u+0x3c>
    4e1d:	0f b7 55 fc          	movzwl -0x4(%rbp),%edx
    4e21:	8b 45 f8             	mov    -0x8(%rbp),%eax
    4e24:	be ff ff 00 00       	mov    $0xffff,%esi
    4e29:	89 c1                	mov    %eax,%ecx
    4e2b:	d3 fe                	sar    %cl,%esi
    4e2d:	89 f0                	mov    %esi,%eax
    4e2f:	39 c2                	cmp    %eax,%edx
    4e31:	7f 0f                	jg     4e42 <safe_lshift_func_uint16_t_u_u+0x3c>
    4e33:	0f b7 55 fc          	movzwl -0x4(%rbp),%edx
    4e37:	8b 45 f8             	mov    -0x8(%rbp),%eax
    4e3a:	89 c1                	mov    %eax,%ecx
    4e3c:	d3 e2                	shl    %cl,%edx
    4e3e:	89 d0                	mov    %edx,%eax
    4e40:	eb 04                	jmp    4e46 <safe_lshift_func_uint16_t_u_u+0x40>
    4e42:	0f b7 45 fc          	movzwl -0x4(%rbp),%eax
    4e46:	5d                   	pop    %rbp
    4e47:	c3                   	retq   

0000000000004e48 <safe_rshift_func_uint16_t_u_s>:
    4e48:	f3 0f 1e fa          	endbr64 
    4e4c:	55                   	push   %rbp
    4e4d:	48 89 e5             	mov    %rsp,%rbp
    4e50:	89 f8                	mov    %edi,%eax
    4e52:	89 75 f8             	mov    %esi,-0x8(%rbp)
    4e55:	66 89 45 fc          	mov    %ax,-0x4(%rbp)
    4e59:	83 7d f8 00          	cmpl   $0x0,-0x8(%rbp)
    4e5d:	78 15                	js     4e74 <safe_rshift_func_uint16_t_u_s+0x2c>
    4e5f:	83 7d f8 1f          	cmpl   $0x1f,-0x8(%rbp)
    4e63:	7f 0f                	jg     4e74 <safe_rshift_func_uint16_t_u_s+0x2c>
    4e65:	0f b7 55 fc          	movzwl -0x4(%rbp),%edx
    4e69:	8b 45 f8             	mov    -0x8(%rbp),%eax
    4e6c:	89 c1                	mov    %eax,%ecx
    4e6e:	d3 fa                	sar    %cl,%edx
    4e70:	89 d0                	mov    %edx,%eax
    4e72:	eb 04                	jmp    4e78 <safe_rshift_func_uint16_t_u_s+0x30>
    4e74:	0f b7 45 fc          	movzwl -0x4(%rbp),%eax
    4e78:	5d                   	pop    %rbp
    4e79:	c3                   	retq   

0000000000004e7a <safe_rshift_func_uint16_t_u_u>:
    4e7a:	f3 0f 1e fa          	endbr64 
    4e7e:	55                   	push   %rbp
    4e7f:	48 89 e5             	mov    %rsp,%rbp
    4e82:	89 f8                	mov    %edi,%eax
    4e84:	89 75 f8             	mov    %esi,-0x8(%rbp)
    4e87:	66 89 45 fc          	mov    %ax,-0x4(%rbp)
    4e8b:	83 7d f8 1f          	cmpl   $0x1f,-0x8(%rbp)
    4e8f:	77 0f                	ja     4ea0 <safe_rshift_func_uint16_t_u_u+0x26>
    4e91:	0f b7 55 fc          	movzwl -0x4(%rbp),%edx
    4e95:	8b 45 f8             	mov    -0x8(%rbp),%eax
    4e98:	89 c1                	mov    %eax,%ecx
    4e9a:	d3 fa                	sar    %cl,%edx
    4e9c:	89 d0                	mov    %edx,%eax
    4e9e:	eb 04                	jmp    4ea4 <safe_rshift_func_uint16_t_u_u+0x2a>
    4ea0:	0f b7 45 fc          	movzwl -0x4(%rbp),%eax
    4ea4:	5d                   	pop    %rbp
    4ea5:	c3                   	retq   

0000000000004ea6 <safe_unary_minus_func_uint32_t_u>:
    4ea6:	f3 0f 1e fa          	endbr64 
    4eaa:	55                   	push   %rbp
    4eab:	48 89 e5             	mov    %rsp,%rbp
    4eae:	89 7d fc             	mov    %edi,-0x4(%rbp)
    4eb1:	8b 45 fc             	mov    -0x4(%rbp),%eax
    4eb4:	f7 d8                	neg    %eax
    4eb6:	5d                   	pop    %rbp
    4eb7:	c3                   	retq   

0000000000004eb8 <safe_add_func_uint32_t_u_u>:
    4eb8:	f3 0f 1e fa          	endbr64 
    4ebc:	55                   	push   %rbp
    4ebd:	48 89 e5             	mov    %rsp,%rbp
    4ec0:	89 7d fc             	mov    %edi,-0x4(%rbp)
    4ec3:	89 75 f8             	mov    %esi,-0x8(%rbp)
    4ec6:	8b 55 fc             	mov    -0x4(%rbp),%edx
    4ec9:	8b 45 f8             	mov    -0x8(%rbp),%eax
    4ecc:	01 d0                	add    %edx,%eax
    4ece:	5d                   	pop    %rbp
    4ecf:	c3                   	retq   

0000000000004ed0 <safe_sub_func_uint32_t_u_u>:
    4ed0:	f3 0f 1e fa          	endbr64 
    4ed4:	55                   	push   %rbp
    4ed5:	48 89 e5             	mov    %rsp,%rbp
    4ed8:	89 7d fc             	mov    %edi,-0x4(%rbp)
    4edb:	89 75 f8             	mov    %esi,-0x8(%rbp)
    4ede:	8b 45 fc             	mov    -0x4(%rbp),%eax
    4ee1:	2b 45 f8             	sub    -0x8(%rbp),%eax
    4ee4:	5d                   	pop    %rbp
    4ee5:	c3                   	retq   

0000000000004ee6 <safe_mul_func_uint32_t_u_u>:
    4ee6:	f3 0f 1e fa          	endbr64 
    4eea:	55                   	push   %rbp
    4eeb:	48 89 e5             	mov    %rsp,%rbp
    4eee:	89 7d fc             	mov    %edi,-0x4(%rbp)
    4ef1:	89 75 f8             	mov    %esi,-0x8(%rbp)
    4ef4:	8b 45 fc             	mov    -0x4(%rbp),%eax
    4ef7:	0f af 45 f8          	imul   -0x8(%rbp),%eax
    4efb:	5d                   	pop    %rbp
    4efc:	c3                   	retq   

0000000000004efd <safe_mod_func_uint32_t_u_u>:
    4efd:	f3 0f 1e fa          	endbr64 
    4f01:	55                   	push   %rbp
    4f02:	48 89 e5             	mov    %rsp,%rbp
    4f05:	89 7d fc             	mov    %edi,-0x4(%rbp)
    4f08:	89 75 f8             	mov    %esi,-0x8(%rbp)
    4f0b:	83 7d f8 00          	cmpl   $0x0,-0x8(%rbp)
    4f0f:	74 0f                	je     4f20 <safe_mod_func_uint32_t_u_u+0x23>
    4f11:	8b 45 fc             	mov    -0x4(%rbp),%eax
    4f14:	ba 00 00 00 00       	mov    $0x0,%edx
    4f19:	f7 75 f8             	divl   -0x8(%rbp)
    4f1c:	89 d0                	mov    %edx,%eax
    4f1e:	eb 03                	jmp    4f23 <safe_mod_func_uint32_t_u_u+0x26>
    4f20:	8b 45 fc             	mov    -0x4(%rbp),%eax
    4f23:	5d                   	pop    %rbp
    4f24:	c3                   	retq   

0000000000004f25 <safe_div_func_uint32_t_u_u>:
    4f25:	f3 0f 1e fa          	endbr64 
    4f29:	55                   	push   %rbp
    4f2a:	48 89 e5             	mov    %rsp,%rbp
    4f2d:	89 7d fc             	mov    %edi,-0x4(%rbp)
    4f30:	89 75 f8             	mov    %esi,-0x8(%rbp)
    4f33:	83 7d f8 00          	cmpl   $0x0,-0x8(%rbp)
    4f37:	74 0d                	je     4f46 <safe_div_func_uint32_t_u_u+0x21>
    4f39:	8b 45 fc             	mov    -0x4(%rbp),%eax
    4f3c:	ba 00 00 00 00       	mov    $0x0,%edx
    4f41:	f7 75 f8             	divl   -0x8(%rbp)
    4f44:	eb 03                	jmp    4f49 <safe_div_func_uint32_t_u_u+0x24>
    4f46:	8b 45 fc             	mov    -0x4(%rbp),%eax
    4f49:	5d                   	pop    %rbp
    4f4a:	c3                   	retq   

0000000000004f4b <safe_lshift_func_uint32_t_u_s>:
    4f4b:	f3 0f 1e fa          	endbr64 
    4f4f:	55                   	push   %rbp
    4f50:	48 89 e5             	mov    %rsp,%rbp
    4f53:	89 7d fc             	mov    %edi,-0x4(%rbp)
    4f56:	89 75 f8             	mov    %esi,-0x8(%rbp)
    4f59:	83 7d f8 00          	cmpl   $0x0,-0x8(%rbp)
    4f5d:	78 27                	js     4f86 <safe_lshift_func_uint32_t_u_s+0x3b>
    4f5f:	83 7d f8 1f          	cmpl   $0x1f,-0x8(%rbp)
    4f63:	7f 21                	jg     4f86 <safe_lshift_func_uint32_t_u_s+0x3b>
    4f65:	8b 45 f8             	mov    -0x8(%rbp),%eax
    4f68:	ba ff ff ff ff       	mov    $0xffffffff,%edx
    4f6d:	89 c1                	mov    %eax,%ecx
    4f6f:	d3 ea                	shr    %cl,%edx
    4f71:	89 d0                	mov    %edx,%eax
    4f73:	39 45 fc             	cmp    %eax,-0x4(%rbp)
    4f76:	77 0e                	ja     4f86 <safe_lshift_func_uint32_t_u_s+0x3b>
    4f78:	8b 45 f8             	mov    -0x8(%rbp),%eax
    4f7b:	8b 55 fc             	mov    -0x4(%rbp),%edx
    4f7e:	89 c1                	mov    %eax,%ecx
    4f80:	d3 e2                	shl    %cl,%edx
    4f82:	89 d0                	mov    %edx,%eax
    4f84:	eb 03                	jmp    4f89 <safe_lshift_func_uint32_t_u_s+0x3e>
    4f86:	8b 45 fc             	mov    -0x4(%rbp),%eax
    4f89:	5d                   	pop    %rbp
    4f8a:	c3                   	retq   

0000000000004f8b <safe_lshift_func_uint32_t_u_u>:
    4f8b:	f3 0f 1e fa          	endbr64 
    4f8f:	55                   	push   %rbp
    4f90:	48 89 e5             	mov    %rsp,%rbp
    4f93:	89 7d fc             	mov    %edi,-0x4(%rbp)
    4f96:	89 75 f8             	mov    %esi,-0x8(%rbp)
    4f99:	83 7d f8 1f          	cmpl   $0x1f,-0x8(%rbp)
    4f9d:	77 21                	ja     4fc0 <safe_lshift_func_uint32_t_u_u+0x35>
    4f9f:	8b 45 f8             	mov    -0x8(%rbp),%eax
    4fa2:	ba ff ff ff ff       	mov    $0xffffffff,%edx
    4fa7:	89 c1                	mov    %eax,%ecx
    4fa9:	d3 ea                	shr    %cl,%edx
    4fab:	89 d0                	mov    %edx,%eax
    4fad:	39 45 fc             	cmp    %eax,-0x4(%rbp)
    4fb0:	77 0e                	ja     4fc0 <safe_lshift_func_uint32_t_u_u+0x35>
    4fb2:	8b 45 f8             	mov    -0x8(%rbp),%eax
    4fb5:	8b 55 fc             	mov    -0x4(%rbp),%edx
    4fb8:	89 c1                	mov    %eax,%ecx
    4fba:	d3 e2                	shl    %cl,%edx
    4fbc:	89 d0                	mov    %edx,%eax
    4fbe:	eb 03                	jmp    4fc3 <safe_lshift_func_uint32_t_u_u+0x38>
    4fc0:	8b 45 fc             	mov    -0x4(%rbp),%eax
    4fc3:	5d                   	pop    %rbp
    4fc4:	c3                   	retq   

0000000000004fc5 <safe_rshift_func_uint32_t_u_s>:
    4fc5:	f3 0f 1e fa          	endbr64 
    4fc9:	55                   	push   %rbp
    4fca:	48 89 e5             	mov    %rsp,%rbp
    4fcd:	89 7d fc             	mov    %edi,-0x4(%rbp)
    4fd0:	89 75 f8             	mov    %esi,-0x8(%rbp)
    4fd3:	83 7d f8 00          	cmpl   $0x0,-0x8(%rbp)
    4fd7:	78 14                	js     4fed <safe_rshift_func_uint32_t_u_s+0x28>
    4fd9:	83 7d f8 1f          	cmpl   $0x1f,-0x8(%rbp)
    4fdd:	7f 0e                	jg     4fed <safe_rshift_func_uint32_t_u_s+0x28>
    4fdf:	8b 45 f8             	mov    -0x8(%rbp),%eax
    4fe2:	8b 55 fc             	mov    -0x4(%rbp),%edx
    4fe5:	89 c1                	mov    %eax,%ecx
    4fe7:	d3 ea                	shr    %cl,%edx
    4fe9:	89 d0                	mov    %edx,%eax
    4feb:	eb 03                	jmp    4ff0 <safe_rshift_func_uint32_t_u_s+0x2b>
    4fed:	8b 45 fc             	mov    -0x4(%rbp),%eax
    4ff0:	5d                   	pop    %rbp
    4ff1:	c3                   	retq   

0000000000004ff2 <safe_rshift_func_uint32_t_u_u>:
    4ff2:	f3 0f 1e fa          	endbr64 
    4ff6:	55                   	push   %rbp
    4ff7:	48 89 e5             	mov    %rsp,%rbp
    4ffa:	89 7d fc             	mov    %edi,-0x4(%rbp)
    4ffd:	89 75 f8             	mov    %esi,-0x8(%rbp)
    5000:	83 7d f8 1f          	cmpl   $0x1f,-0x8(%rbp)
    5004:	77 0e                	ja     5014 <safe_rshift_func_uint32_t_u_u+0x22>
    5006:	8b 45 f8             	mov    -0x8(%rbp),%eax
    5009:	8b 55 fc             	mov    -0x4(%rbp),%edx
    500c:	89 c1                	mov    %eax,%ecx
    500e:	d3 ea                	shr    %cl,%edx
    5010:	89 d0                	mov    %edx,%eax
    5012:	eb 03                	jmp    5017 <safe_rshift_func_uint32_t_u_u+0x25>
    5014:	8b 45 fc             	mov    -0x4(%rbp),%eax
    5017:	5d                   	pop    %rbp
    5018:	c3                   	retq   

0000000000005019 <safe_unary_minus_func_uint64_t_u>:
    5019:	f3 0f 1e fa          	endbr64 
    501d:	55                   	push   %rbp
    501e:	48 89 e5             	mov    %rsp,%rbp
    5021:	48 89 7d f8          	mov    %rdi,-0x8(%rbp)
    5025:	48 8b 45 f8          	mov    -0x8(%rbp),%rax
    5029:	48 f7 d8             	neg    %rax
    502c:	5d                   	pop    %rbp
    502d:	c3                   	retq   

000000000000502e <safe_add_func_uint64_t_u_u>:
    502e:	f3 0f 1e fa          	endbr64 
    5032:	55                   	push   %rbp
    5033:	48 89 e5             	mov    %rsp,%rbp
    5036:	48 89 7d f8          	mov    %rdi,-0x8(%rbp)
    503a:	48 89 75 f0          	mov    %rsi,-0x10(%rbp)
    503e:	48 8b 55 f8          	mov    -0x8(%rbp),%rdx
    5042:	48 8b 45 f0          	mov    -0x10(%rbp),%rax
    5046:	48 01 d0             	add    %rdx,%rax
    5049:	5d                   	pop    %rbp
    504a:	c3                   	retq   

000000000000504b <safe_sub_func_uint64_t_u_u>:
    504b:	f3 0f 1e fa          	endbr64 
    504f:	55                   	push   %rbp
    5050:	48 89 e5             	mov    %rsp,%rbp
    5053:	48 89 7d f8          	mov    %rdi,-0x8(%rbp)
    5057:	48 89 75 f0          	mov    %rsi,-0x10(%rbp)
    505b:	48 8b 45 f8          	mov    -0x8(%rbp),%rax
    505f:	48 2b 45 f0          	sub    -0x10(%rbp),%rax
    5063:	5d                   	pop    %rbp
    5064:	c3                   	retq   

0000000000005065 <safe_mul_func_uint64_t_u_u>:
    5065:	f3 0f 1e fa          	endbr64 
    5069:	55                   	push   %rbp
    506a:	48 89 e5             	mov    %rsp,%rbp
    506d:	48 89 7d f8          	mov    %rdi,-0x8(%rbp)
    5071:	48 89 75 f0          	mov    %rsi,-0x10(%rbp)
    5075:	48 8b 45 f8          	mov    -0x8(%rbp),%rax
    5079:	48 0f af 45 f0       	imul   -0x10(%rbp),%rax
    507e:	5d                   	pop    %rbp
    507f:	c3                   	retq   

0000000000005080 <safe_mod_func_uint64_t_u_u>:
    5080:	f3 0f 1e fa          	endbr64 
    5084:	55                   	push   %rbp
    5085:	48 89 e5             	mov    %rsp,%rbp
    5088:	48 89 7d f8          	mov    %rdi,-0x8(%rbp)
    508c:	48 89 75 f0          	mov    %rsi,-0x10(%rbp)
    5090:	48 83 7d f0 00       	cmpq   $0x0,-0x10(%rbp)
    5095:	74 12                	je     50a9 <safe_mod_func_uint64_t_u_u+0x29>
    5097:	48 8b 45 f8          	mov    -0x8(%rbp),%rax
    509b:	ba 00 00 00 00       	mov    $0x0,%edx
    50a0:	48 f7 75 f0          	divq   -0x10(%rbp)
    50a4:	48 89 d0             	mov    %rdx,%rax
    50a7:	eb 04                	jmp    50ad <safe_mod_func_uint64_t_u_u+0x2d>
    50a9:	48 8b 45 f8          	mov    -0x8(%rbp),%rax
    50ad:	5d                   	pop    %rbp
    50ae:	c3                   	retq   

00000000000050af <safe_div_func_uint64_t_u_u>:
    50af:	f3 0f 1e fa          	endbr64 
    50b3:	55                   	push   %rbp
    50b4:	48 89 e5             	mov    %rsp,%rbp
    50b7:	48 89 7d f8          	mov    %rdi,-0x8(%rbp)
    50bb:	48 89 75 f0          	mov    %rsi,-0x10(%rbp)
    50bf:	48 83 7d f0 00       	cmpq   $0x0,-0x10(%rbp)
    50c4:	74 0f                	je     50d5 <safe_div_func_uint64_t_u_u+0x26>
    50c6:	48 8b 45 f8          	mov    -0x8(%rbp),%rax
    50ca:	ba 00 00 00 00       	mov    $0x0,%edx
    50cf:	48 f7 75 f0          	divq   -0x10(%rbp)
    50d3:	eb 04                	jmp    50d9 <safe_div_func_uint64_t_u_u+0x2a>
    50d5:	48 8b 45 f8          	mov    -0x8(%rbp),%rax
    50d9:	5d                   	pop    %rbp
    50da:	c3                   	retq   

00000000000050db <safe_lshift_func_uint64_t_u_s>:
    50db:	f3 0f 1e fa          	endbr64 
    50df:	55                   	push   %rbp
    50e0:	48 89 e5             	mov    %rsp,%rbp
    50e3:	48 89 7d f8          	mov    %rdi,-0x8(%rbp)
    50e7:	89 75 f4             	mov    %esi,-0xc(%rbp)
    50ea:	83 7d f4 00          	cmpl   $0x0,-0xc(%rbp)
    50ee:	78 2f                	js     511f <safe_lshift_func_uint64_t_u_s+0x44>
    50f0:	83 7d f4 1f          	cmpl   $0x1f,-0xc(%rbp)
    50f4:	7f 29                	jg     511f <safe_lshift_func_uint64_t_u_s+0x44>
    50f6:	8b 45 f4             	mov    -0xc(%rbp),%eax
    50f9:	48 c7 c2 ff ff ff ff 	mov    $0xffffffffffffffff,%rdx
    5100:	89 c1                	mov    %eax,%ecx
    5102:	48 d3 ea             	shr    %cl,%rdx
    5105:	48 89 d0             	mov    %rdx,%rax
    5108:	48 39 45 f8          	cmp    %rax,-0x8(%rbp)
    510c:	77 11                	ja     511f <safe_lshift_func_uint64_t_u_s+0x44>
    510e:	8b 45 f4             	mov    -0xc(%rbp),%eax
    5111:	48 8b 55 f8          	mov    -0x8(%rbp),%rdx
    5115:	89 c1                	mov    %eax,%ecx
    5117:	48 d3 e2             	shl    %cl,%rdx
    511a:	48 89 d0             	mov    %rdx,%rax
    511d:	eb 04                	jmp    5123 <safe_lshift_func_uint64_t_u_s+0x48>
    511f:	48 8b 45 f8          	mov    -0x8(%rbp),%rax
    5123:	5d                   	pop    %rbp
    5124:	c3                   	retq   

0000000000005125 <safe_lshift_func_uint64_t_u_u>:
    5125:	f3 0f 1e fa          	endbr64 
    5129:	55                   	push   %rbp
    512a:	48 89 e5             	mov    %rsp,%rbp
    512d:	48 89 7d f8          	mov    %rdi,-0x8(%rbp)
    5131:	89 75 f4             	mov    %esi,-0xc(%rbp)
    5134:	83 7d f4 1f          	cmpl   $0x1f,-0xc(%rbp)
    5138:	77 29                	ja     5163 <safe_lshift_func_uint64_t_u_u+0x3e>
    513a:	8b 45 f4             	mov    -0xc(%rbp),%eax
    513d:	48 c7 c2 ff ff ff ff 	mov    $0xffffffffffffffff,%rdx
    5144:	89 c1                	mov    %eax,%ecx
    5146:	48 d3 ea             	shr    %cl,%rdx
    5149:	48 89 d0             	mov    %rdx,%rax
    514c:	48 39 45 f8          	cmp    %rax,-0x8(%rbp)
    5150:	77 11                	ja     5163 <safe_lshift_func_uint64_t_u_u+0x3e>
    5152:	8b 45 f4             	mov    -0xc(%rbp),%eax
    5155:	48 8b 55 f8          	mov    -0x8(%rbp),%rdx
    5159:	89 c1                	mov    %eax,%ecx
    515b:	48 d3 e2             	shl    %cl,%rdx
    515e:	48 89 d0             	mov    %rdx,%rax
    5161:	eb 04                	jmp    5167 <safe_lshift_func_uint64_t_u_u+0x42>
    5163:	48 8b 45 f8          	mov    -0x8(%rbp),%rax
    5167:	5d                   	pop    %rbp
    5168:	c3                   	retq   

0000000000005169 <safe_rshift_func_uint64_t_u_s>:
    5169:	f3 0f 1e fa          	endbr64 
    516d:	55                   	push   %rbp
    516e:	48 89 e5             	mov    %rsp,%rbp
    5171:	48 89 7d f8          	mov    %rdi,-0x8(%rbp)
    5175:	89 75 f4             	mov    %esi,-0xc(%rbp)
    5178:	83 7d f4 00          	cmpl   $0x0,-0xc(%rbp)
    517c:	78 17                	js     5195 <safe_rshift_func_uint64_t_u_s+0x2c>
    517e:	83 7d f4 1f          	cmpl   $0x1f,-0xc(%rbp)
    5182:	7f 11                	jg     5195 <safe_rshift_func_uint64_t_u_s+0x2c>
    5184:	8b 45 f4             	mov    -0xc(%rbp),%eax
    5187:	48 8b 55 f8          	mov    -0x8(%rbp),%rdx
    518b:	89 c1                	mov    %eax,%ecx
    518d:	48 d3 ea             	shr    %cl,%rdx
    5190:	48 89 d0             	mov    %rdx,%rax
    5193:	eb 04                	jmp    5199 <safe_rshift_func_uint64_t_u_s+0x30>
    5195:	48 8b 45 f8          	mov    -0x8(%rbp),%rax
    5199:	5d                   	pop    %rbp
    519a:	c3                   	retq   

000000000000519b <safe_rshift_func_uint64_t_u_u>:
    519b:	f3 0f 1e fa          	endbr64 
    519f:	55                   	push   %rbp
    51a0:	48 89 e5             	mov    %rsp,%rbp
    51a3:	48 89 7d f8          	mov    %rdi,-0x8(%rbp)
    51a7:	89 75 f4             	mov    %esi,-0xc(%rbp)
    51aa:	83 7d f4 1f          	cmpl   $0x1f,-0xc(%rbp)
    51ae:	77 11                	ja     51c1 <safe_rshift_func_uint64_t_u_u+0x26>
    51b0:	8b 45 f4             	mov    -0xc(%rbp),%eax
    51b3:	48 8b 55 f8          	mov    -0x8(%rbp),%rdx
    51b7:	89 c1                	mov    %eax,%ecx
    51b9:	48 d3 ea             	shr    %cl,%rdx
    51bc:	48 89 d0             	mov    %rdx,%rax
    51bf:	eb 04                	jmp    51c5 <safe_rshift_func_uint64_t_u_u+0x2a>
    51c1:	48 8b 45 f8          	mov    -0x8(%rbp),%rax
    51c5:	5d                   	pop    %rbp
    51c6:	c3                   	retq   

00000000000051c7 <safe_add_func_float_f_f>:
    51c7:	f3 0f 1e fa          	endbr64 
    51cb:	55                   	push   %rbp
    51cc:	48 89 e5             	mov    %rsp,%rbp
    51cf:	f3 0f 11 45 fc       	movss  %xmm0,-0x4(%rbp)
    51d4:	f3 0f 11 4d f8       	movss  %xmm1,-0x8(%rbp)
    51d9:	f3 0f 10 4d fc       	movss  -0x4(%rbp),%xmm1
    51de:	f3 0f 10 05 8a 77 00 	movss  0x778a(%rip),%xmm0        # c970 <l_60.4449+0x10>
    51e5:	00 
    51e6:	f3 0f 59 c8          	mulss  %xmm0,%xmm1
    51ea:	f3 0f 10 55 f8       	movss  -0x8(%rbp),%xmm2
    51ef:	f3 0f 10 05 79 77 00 	movss  0x7779(%rip),%xmm0        # c970 <l_60.4449+0x10>
    51f6:	00 
    51f7:	f3 0f 59 c2          	mulss  %xmm2,%xmm0
    51fb:	f3 0f 58 c1          	addss  %xmm1,%xmm0
    51ff:	f3 0f 10 0d 79 77 00 	movss  0x7779(%rip),%xmm1        # c980 <l_60.4449+0x20>
    5206:	00 
    5207:	0f 54 c1             	andps  %xmm1,%xmm0
    520a:	0f 2f 05 7f 77 00 00 	comiss 0x777f(%rip),%xmm0        # c990 <l_60.4449+0x30>
    5211:	76 07                	jbe    521a <safe_add_func_float_f_f+0x53>
    5213:	f3 0f 10 45 fc       	movss  -0x4(%rbp),%xmm0
    5218:	eb 0a                	jmp    5224 <safe_add_func_float_f_f+0x5d>
    521a:	f3 0f 10 45 fc       	movss  -0x4(%rbp),%xmm0
    521f:	f3 0f 58 45 f8       	addss  -0x8(%rbp),%xmm0
    5224:	5d                   	pop    %rbp
    5225:	c3                   	retq   

0000000000005226 <safe_sub_func_float_f_f>:
    5226:	f3 0f 1e fa          	endbr64 
    522a:	55                   	push   %rbp
    522b:	48 89 e5             	mov    %rsp,%rbp
    522e:	f3 0f 11 45 fc       	movss  %xmm0,-0x4(%rbp)
    5233:	f3 0f 11 4d f8       	movss  %xmm1,-0x8(%rbp)
    5238:	f3 0f 10 4d fc       	movss  -0x4(%rbp),%xmm1
    523d:	f3 0f 10 05 2b 77 00 	movss  0x772b(%rip),%xmm0        # c970 <l_60.4449+0x10>
    5244:	00 
    5245:	f3 0f 59 c1          	mulss  %xmm1,%xmm0
    5249:	f3 0f 10 55 f8       	movss  -0x8(%rbp),%xmm2
    524e:	f3 0f 10 0d 1a 77 00 	movss  0x771a(%rip),%xmm1        # c970 <l_60.4449+0x10>
    5255:	00 
    5256:	f3 0f 59 ca          	mulss  %xmm2,%xmm1
    525a:	f3 0f 5c c1          	subss  %xmm1,%xmm0
    525e:	f3 0f 10 0d 1a 77 00 	movss  0x771a(%rip),%xmm1        # c980 <l_60.4449+0x20>
    5265:	00 
    5266:	0f 54 c1             	andps  %xmm1,%xmm0
    5269:	0f 2f 05 20 77 00 00 	comiss 0x7720(%rip),%xmm0        # c990 <l_60.4449+0x30>
    5270:	76 07                	jbe    5279 <safe_sub_func_float_f_f+0x53>
    5272:	f3 0f 10 45 fc       	movss  -0x4(%rbp),%xmm0
    5277:	eb 0a                	jmp    5283 <safe_sub_func_float_f_f+0x5d>
    5279:	f3 0f 10 45 fc       	movss  -0x4(%rbp),%xmm0
    527e:	f3 0f 5c 45 f8       	subss  -0x8(%rbp),%xmm0
    5283:	5d                   	pop    %rbp
    5284:	c3                   	retq   

0000000000005285 <safe_mul_func_float_f_f>:
    5285:	f3 0f 1e fa          	endbr64 
    5289:	55                   	push   %rbp
    528a:	48 89 e5             	mov    %rsp,%rbp
    528d:	f3 0f 11 45 fc       	movss  %xmm0,-0x4(%rbp)
    5292:	f3 0f 11 4d f8       	movss  %xmm1,-0x8(%rbp)
    5297:	f3 0f 10 4d fc       	movss  -0x4(%rbp),%xmm1
    529c:	f3 0f 10 05 f0 76 00 	movss  0x76f0(%rip),%xmm0        # c994 <l_60.4449+0x34>
    52a3:	00 
    52a4:	f3 0f 59 c8          	mulss  %xmm0,%xmm1
    52a8:	f3 0f 10 55 f8       	movss  -0x8(%rbp),%xmm2
    52ad:	f3 0f 10 05 e3 76 00 	movss  0x76e3(%rip),%xmm0        # c998 <l_60.4449+0x38>
    52b4:	00 
    52b5:	f3 0f 59 c2          	mulss  %xmm2,%xmm0
    52b9:	f3 0f 59 c1          	mulss  %xmm1,%xmm0
    52bd:	f3 0f 10 0d bb 76 00 	movss  0x76bb(%rip),%xmm1        # c980 <l_60.4449+0x20>
    52c4:	00 
    52c5:	0f 54 c1             	andps  %xmm1,%xmm0
    52c8:	0f 2f 05 cd 76 00 00 	comiss 0x76cd(%rip),%xmm0        # c99c <l_60.4449+0x3c>
    52cf:	76 07                	jbe    52d8 <safe_mul_func_float_f_f+0x53>
    52d1:	f3 0f 10 45 fc       	movss  -0x4(%rbp),%xmm0
    52d6:	eb 0a                	jmp    52e2 <safe_mul_func_float_f_f+0x5d>
    52d8:	f3 0f 10 45 fc       	movss  -0x4(%rbp),%xmm0
    52dd:	f3 0f 59 45 f8       	mulss  -0x8(%rbp),%xmm0
    52e2:	5d                   	pop    %rbp
    52e3:	c3                   	retq   

00000000000052e4 <safe_div_func_float_f_f>:
    52e4:	f3 0f 1e fa          	endbr64 
    52e8:	55                   	push   %rbp
    52e9:	48 89 e5             	mov    %rsp,%rbp
    52ec:	f3 0f 11 45 fc       	movss  %xmm0,-0x4(%rbp)
    52f1:	f3 0f 11 4d f8       	movss  %xmm1,-0x8(%rbp)
    52f6:	f3 0f 10 45 f8       	movss  -0x8(%rbp),%xmm0
    52fb:	f3 0f 10 0d 7d 76 00 	movss  0x767d(%rip),%xmm1        # c980 <l_60.4449+0x20>
    5302:	00 
    5303:	0f 54 c8             	andps  %xmm0,%xmm1
    5306:	f3 0f 10 05 92 76 00 	movss  0x7692(%rip),%xmm0        # c9a0 <l_60.4449+0x40>
    530d:	00 
    530e:	0f 2f c1             	comiss %xmm1,%xmm0
    5311:	0f 97 c0             	seta   %al
    5314:	83 f0 01             	xor    $0x1,%eax
    5317:	84 c0                	test   %al,%al
    5319:	75 56                	jne    5371 <safe_div_func_float_f_f+0x8d>
    531b:	66 0f ef c0          	pxor   %xmm0,%xmm0
    531f:	0f 2e 45 f8          	ucomiss -0x8(%rbp),%xmm0
    5323:	7a 0a                	jp     532f <safe_div_func_float_f_f+0x4b>
    5325:	66 0f ef c0          	pxor   %xmm0,%xmm0
    5329:	0f 2e 45 f8          	ucomiss -0x8(%rbp),%xmm0
    532d:	74 4e                	je     537d <safe_div_func_float_f_f+0x99>
    532f:	f3 0f 10 4d fc       	movss  -0x4(%rbp),%xmm1
    5334:	f3 0f 10 05 68 76 00 	movss  0x7668(%rip),%xmm0        # c9a4 <l_60.4449+0x44>
    533b:	00 
    533c:	f3 0f 59 c1          	mulss  %xmm1,%xmm0
    5340:	f3 0f 10 55 f8       	movss  -0x8(%rbp),%xmm2
    5345:	f3 0f 10 0d 5b 76 00 	movss  0x765b(%rip),%xmm1        # c9a8 <l_60.4449+0x48>
    534c:	00 
    534d:	f3 0f 59 ca          	mulss  %xmm2,%xmm1
    5351:	f3 0f 5e c1          	divss  %xmm1,%xmm0
    5355:	f3 0f 10 0d 23 76 00 	movss  0x7623(%rip),%xmm1        # c980 <l_60.4449+0x20>
    535c:	00 
    535d:	0f 54 c1             	andps  %xmm1,%xmm0
    5360:	0f 2f 05 45 76 00 00 	comiss 0x7645(%rip),%xmm0        # c9ac <l_60.4449+0x4c>
    5367:	0f 97 c0             	seta   %al
    536a:	83 f0 01             	xor    $0x1,%eax
    536d:	84 c0                	test   %al,%al
    536f:	74 0c                	je     537d <safe_div_func_float_f_f+0x99>
    5371:	f3 0f 10 45 fc       	movss  -0x4(%rbp),%xmm0
    5376:	f3 0f 5e 45 f8       	divss  -0x8(%rbp),%xmm0
    537b:	eb 05                	jmp    5382 <safe_div_func_float_f_f+0x9e>
    537d:	f3 0f 10 45 fc       	movss  -0x4(%rbp),%xmm0
    5382:	5d                   	pop    %rbp
    5383:	c3                   	retq   

0000000000005384 <safe_add_func_double_f_f>:
    5384:	f3 0f 1e fa          	endbr64 
    5388:	55                   	push   %rbp
    5389:	48 89 e5             	mov    %rsp,%rbp
    538c:	f2 0f 11 45 f8       	movsd  %xmm0,-0x8(%rbp)
    5391:	f2 0f 11 4d f0       	movsd  %xmm1,-0x10(%rbp)
    5396:	f2 0f 10 4d f8       	movsd  -0x8(%rbp),%xmm1
    539b:	f2 0f 10 05 0d 76 00 	movsd  0x760d(%rip),%xmm0        # c9b0 <l_60.4449+0x50>
    53a2:	00 
    53a3:	f2 0f 59 c8          	mulsd  %xmm0,%xmm1
    53a7:	f2 0f 10 55 f0       	movsd  -0x10(%rbp),%xmm2
    53ac:	f2 0f 10 05 fc 75 00 	movsd  0x75fc(%rip),%xmm0        # c9b0 <l_60.4449+0x50>
    53b3:	00 
    53b4:	f2 0f 59 c2          	mulsd  %xmm2,%xmm0
    53b8:	f2 0f 58 c1          	addsd  %xmm1,%xmm0
    53bc:	f3 0f 7e 0d fc 75 00 	movq   0x75fc(%rip),%xmm1        # c9c0 <l_60.4449+0x60>
    53c3:	00 
    53c4:	66 0f 54 c1          	andpd  %xmm1,%xmm0
    53c8:	66 0f 2f 05 00 76 00 	comisd 0x7600(%rip),%xmm0        # c9d0 <l_60.4449+0x70>
    53cf:	00 
    53d0:	76 07                	jbe    53d9 <safe_add_func_double_f_f+0x55>
    53d2:	f2 0f 10 45 f8       	movsd  -0x8(%rbp),%xmm0
    53d7:	eb 0a                	jmp    53e3 <safe_add_func_double_f_f+0x5f>
    53d9:	f2 0f 10 45 f8       	movsd  -0x8(%rbp),%xmm0
    53de:	f2 0f 58 45 f0       	addsd  -0x10(%rbp),%xmm0
    53e3:	5d                   	pop    %rbp
    53e4:	c3                   	retq   

00000000000053e5 <safe_sub_func_double_f_f>:
    53e5:	f3 0f 1e fa          	endbr64 
    53e9:	55                   	push   %rbp
    53ea:	48 89 e5             	mov    %rsp,%rbp
    53ed:	f2 0f 11 45 f8       	movsd  %xmm0,-0x8(%rbp)
    53f2:	f2 0f 11 4d f0       	movsd  %xmm1,-0x10(%rbp)
    53f7:	f2 0f 10 4d f8       	movsd  -0x8(%rbp),%xmm1
    53fc:	f2 0f 10 05 ac 75 00 	movsd  0x75ac(%rip),%xmm0        # c9b0 <l_60.4449+0x50>
    5403:	00 
    5404:	f2 0f 59 c1          	mulsd  %xmm1,%xmm0
    5408:	f2 0f 10 55 f0       	movsd  -0x10(%rbp),%xmm2
    540d:	f2 0f 10 0d 9b 75 00 	movsd  0x759b(%rip),%xmm1        # c9b0 <l_60.4449+0x50>
    5414:	00 
    5415:	f2 0f 59 ca          	mulsd  %xmm2,%xmm1
    5419:	f2 0f 5c c1          	subsd  %xmm1,%xmm0
    541d:	f3 0f 7e 0d 9b 75 00 	movq   0x759b(%rip),%xmm1        # c9c0 <l_60.4449+0x60>
    5424:	00 
    5425:	66 0f 54 c1          	andpd  %xmm1,%xmm0
    5429:	66 0f 2f 05 9f 75 00 	comisd 0x759f(%rip),%xmm0        # c9d0 <l_60.4449+0x70>
    5430:	00 
    5431:	76 07                	jbe    543a <safe_sub_func_double_f_f+0x55>
    5433:	f2 0f 10 45 f8       	movsd  -0x8(%rbp),%xmm0
    5438:	eb 0a                	jmp    5444 <safe_sub_func_double_f_f+0x5f>
    543a:	f2 0f 10 45 f8       	movsd  -0x8(%rbp),%xmm0
    543f:	f2 0f 5c 45 f0       	subsd  -0x10(%rbp),%xmm0
    5444:	5d                   	pop    %rbp
    5445:	c3                   	retq   

0000000000005446 <safe_mul_func_double_f_f>:
    5446:	f3 0f 1e fa          	endbr64 
    544a:	55                   	push   %rbp
    544b:	48 89 e5             	mov    %rsp,%rbp
    544e:	f2 0f 11 45 f8       	movsd  %xmm0,-0x8(%rbp)
    5453:	f2 0f 11 4d f0       	movsd  %xmm1,-0x10(%rbp)
    5458:	f2 0f 10 4d f8       	movsd  -0x8(%rbp),%xmm1
    545d:	f2 0f 10 05 73 75 00 	movsd  0x7573(%rip),%xmm0        # c9d8 <l_60.4449+0x78>
    5464:	00 
    5465:	f2 0f 59 c8          	mulsd  %xmm0,%xmm1
    5469:	f2 0f 10 55 f0       	movsd  -0x10(%rbp),%xmm2
    546e:	f2 0f 10 05 6a 75 00 	movsd  0x756a(%rip),%xmm0        # c9e0 <l_60.4449+0x80>
    5475:	00 
    5476:	f2 0f 59 c2          	mulsd  %xmm2,%xmm0
    547a:	f2 0f 59 c1          	mulsd  %xmm1,%xmm0
    547e:	f3 0f 7e 0d 3a 75 00 	movq   0x753a(%rip),%xmm1        # c9c0 <l_60.4449+0x60>
    5485:	00 
    5486:	66 0f 54 c1          	andpd  %xmm1,%xmm0
    548a:	66 0f 2f 05 56 75 00 	comisd 0x7556(%rip),%xmm0        # c9e8 <l_60.4449+0x88>
    5491:	00 
    5492:	76 07                	jbe    549b <safe_mul_func_double_f_f+0x55>
    5494:	f2 0f 10 45 f8       	movsd  -0x8(%rbp),%xmm0
    5499:	eb 0a                	jmp    54a5 <safe_mul_func_double_f_f+0x5f>
    549b:	f2 0f 10 45 f8       	movsd  -0x8(%rbp),%xmm0
    54a0:	f2 0f 59 45 f0       	mulsd  -0x10(%rbp),%xmm0
    54a5:	5d                   	pop    %rbp
    54a6:	c3                   	retq   

00000000000054a7 <safe_div_func_double_f_f>:
    54a7:	f3 0f 1e fa          	endbr64 
    54ab:	55                   	push   %rbp
    54ac:	48 89 e5             	mov    %rsp,%rbp
    54af:	f2 0f 11 45 f8       	movsd  %xmm0,-0x8(%rbp)
    54b4:	f2 0f 11 4d f0       	movsd  %xmm1,-0x10(%rbp)
    54b9:	f2 0f 10 45 f0       	movsd  -0x10(%rbp),%xmm0
    54be:	f3 0f 7e 0d fa 74 00 	movq   0x74fa(%rip),%xmm1        # c9c0 <l_60.4449+0x60>
    54c5:	00 
    54c6:	66 0f 54 c8          	andpd  %xmm0,%xmm1
    54ca:	f2 0f 10 05 1e 75 00 	movsd  0x751e(%rip),%xmm0        # c9f0 <l_60.4449+0x90>
    54d1:	00 
    54d2:	66 0f 2f c1          	comisd %xmm1,%xmm0
    54d6:	0f 97 c0             	seta   %al
    54d9:	83 f0 01             	xor    $0x1,%eax
    54dc:	84 c0                	test   %al,%al
    54de:	75 5a                	jne    553a <safe_div_func_double_f_f+0x93>
    54e0:	66 0f ef c0          	pxor   %xmm0,%xmm0
    54e4:	66 0f 2e 45 f0       	ucomisd -0x10(%rbp),%xmm0
    54e9:	7a 0b                	jp     54f6 <safe_div_func_double_f_f+0x4f>
    54eb:	66 0f ef c0          	pxor   %xmm0,%xmm0
    54ef:	66 0f 2e 45 f0       	ucomisd -0x10(%rbp),%xmm0
    54f4:	74 50                	je     5546 <safe_div_func_double_f_f+0x9f>
    54f6:	f2 0f 10 4d f8       	movsd  -0x8(%rbp),%xmm1
    54fb:	f2 0f 10 05 f5 74 00 	movsd  0x74f5(%rip),%xmm0        # c9f8 <l_60.4449+0x98>
    5502:	00 
    5503:	f2 0f 59 c1          	mulsd  %xmm1,%xmm0
    5507:	f2 0f 10 55 f0       	movsd  -0x10(%rbp),%xmm2
    550c:	f2 0f 10 0d ec 74 00 	movsd  0x74ec(%rip),%xmm1        # ca00 <l_60.4449+0xa0>
    5513:	00 
    5514:	f2 0f 59 ca          	mulsd  %xmm2,%xmm1
    5518:	f2 0f 5e c1          	divsd  %xmm1,%xmm0
    551c:	f3 0f 7e 0d 9c 74 00 	movq   0x749c(%rip),%xmm1        # c9c0 <l_60.4449+0x60>
    5523:	00 
    5524:	66 0f 54 c1          	andpd  %xmm1,%xmm0
    5528:	66 0f 2f 05 d8 74 00 	comisd 0x74d8(%rip),%xmm0        # ca08 <l_60.4449+0xa8>
    552f:	00 
    5530:	0f 97 c0             	seta   %al
    5533:	83 f0 01             	xor    $0x1,%eax
    5536:	84 c0                	test   %al,%al
    5538:	74 0c                	je     5546 <safe_div_func_double_f_f+0x9f>
    553a:	f2 0f 10 45 f8       	movsd  -0x8(%rbp),%xmm0
    553f:	f2 0f 5e 45 f0       	divsd  -0x10(%rbp),%xmm0
    5544:	eb 05                	jmp    554b <safe_div_func_double_f_f+0xa4>
    5546:	f2 0f 10 45 f8       	movsd  -0x8(%rbp),%xmm0
    554b:	5d                   	pop    %rbp
    554c:	c3                   	retq   

000000000000554d <safe_convert_func_float_to_int32_t>:
    554d:	f3 0f 1e fa          	endbr64 
    5551:	55                   	push   %rbp
    5552:	48 89 e5             	mov    %rsp,%rbp
    5555:	f3 0f 11 45 fc       	movss  %xmm0,-0x4(%rbp)
    555a:	f3 0f 10 05 ae 74 00 	movss  0x74ae(%rip),%xmm0        # ca10 <l_60.4449+0xb0>
    5561:	00 
    5562:	0f 2f 45 fc          	comiss -0x4(%rbp),%xmm0
    5566:	0f 93 c0             	setae  %al
    5569:	83 f0 01             	xor    $0x1,%eax
    556c:	84 c0                	test   %al,%al
    556e:	74 21                	je     5591 <safe_convert_func_float_to_int32_t+0x44>
    5570:	f3 0f 10 45 fc       	movss  -0x4(%rbp),%xmm0
    5575:	0f 2f 05 98 74 00 00 	comiss 0x7498(%rip),%xmm0        # ca14 <l_60.4449+0xb4>
    557c:	0f 93 c0             	setae  %al
    557f:	83 f0 01             	xor    $0x1,%eax
    5582:	84 c0                	test   %al,%al
    5584:	74 0b                	je     5591 <safe_convert_func_float_to_int32_t+0x44>
    5586:	f3 0f 10 45 fc       	movss  -0x4(%rbp),%xmm0
    558b:	f3 0f 2c c0          	cvttss2si %xmm0,%eax
    558f:	eb 05                	jmp    5596 <safe_convert_func_float_to_int32_t+0x49>
    5591:	b8 ff ff ff 7f       	mov    $0x7fffffff,%eax
    5596:	5d                   	pop    %rbp
    5597:	c3                   	retq   

0000000000005598 <crc32_gentab>:
    5598:	f3 0f 1e fa          	endbr64 
    559c:	55                   	push   %rbp
    559d:	48 89 e5             	mov    %rsp,%rbp
    55a0:	c7 45 fc 20 83 b8 ed 	movl   $0xedb88320,-0x4(%rbp)
    55a7:	c7 45 f4 00 00 00 00 	movl   $0x0,-0xc(%rbp)
    55ae:	eb 51                	jmp    5601 <crc32_gentab+0x69>
    55b0:	8b 45 f4             	mov    -0xc(%rbp),%eax
    55b3:	89 45 f0             	mov    %eax,-0x10(%rbp)
    55b6:	c7 45 f8 08 00 00 00 	movl   $0x8,-0x8(%rbp)
    55bd:	eb 1e                	jmp    55dd <crc32_gentab+0x45>
    55bf:	8b 45 f0             	mov    -0x10(%rbp),%eax
    55c2:	83 e0 01             	and    $0x1,%eax
    55c5:	85 c0                	test   %eax,%eax
    55c7:	74 0d                	je     55d6 <crc32_gentab+0x3e>
    55c9:	8b 45 f0             	mov    -0x10(%rbp),%eax
    55cc:	d1 e8                	shr    %eax
    55ce:	33 45 fc             	xor    -0x4(%rbp),%eax
    55d1:	89 45 f0             	mov    %eax,-0x10(%rbp)
    55d4:	eb 03                	jmp    55d9 <crc32_gentab+0x41>
    55d6:	d1 6d f0             	shrl   -0x10(%rbp)
    55d9:	83 6d f8 01          	subl   $0x1,-0x8(%rbp)
    55dd:	83 7d f8 00          	cmpl   $0x0,-0x8(%rbp)
    55e1:	7f dc                	jg     55bf <crc32_gentab+0x27>
    55e3:	8b 45 f4             	mov    -0xc(%rbp),%eax
    55e6:	48 98                	cltq   
    55e8:	48 8d 0c 85 00 00 00 	lea    0x0(,%rax,4),%rcx
    55ef:	00 
    55f0:	48 8d 15 a9 bb 00 00 	lea    0xbba9(%rip),%rdx        # 111a0 <crc32_tab>
    55f7:	8b 45 f0             	mov    -0x10(%rbp),%eax
    55fa:	89 04 11             	mov    %eax,(%rcx,%rdx,1)
    55fd:	83 45 f4 01          	addl   $0x1,-0xc(%rbp)
    5601:	81 7d f4 ff 00 00 00 	cmpl   $0xff,-0xc(%rbp)
    5608:	7e a6                	jle    55b0 <crc32_gentab+0x18>
    560a:	90                   	nop
    560b:	90                   	nop
    560c:	5d                   	pop    %rbp
    560d:	c3                   	retq   

000000000000560e <crc32_byte>:
    560e:	f3 0f 1e fa          	endbr64 
    5612:	55                   	push   %rbp
    5613:	48 89 e5             	mov    %rsp,%rbp
    5616:	89 f8                	mov    %edi,%eax
    5618:	88 45 fc             	mov    %al,-0x4(%rbp)
    561b:	8b 05 ff a9 00 00    	mov    0xa9ff(%rip),%eax        # 10020 <crc32_context>
    5621:	c1 e8 08             	shr    $0x8,%eax
    5624:	89 c1                	mov    %eax,%ecx
    5626:	0f b6 55 fc          	movzbl -0x4(%rbp),%edx
    562a:	8b 05 f0 a9 00 00    	mov    0xa9f0(%rip),%eax        # 10020 <crc32_context>
    5630:	31 d0                	xor    %edx,%eax
    5632:	0f b6 c0             	movzbl %al,%eax
    5635:	89 c0                	mov    %eax,%eax
    5637:	48 8d 14 85 00 00 00 	lea    0x0(,%rax,4),%rdx
    563e:	00 
    563f:	48 8d 05 5a bb 00 00 	lea    0xbb5a(%rip),%rax        # 111a0 <crc32_tab>
    5646:	8b 04 02             	mov    (%rdx,%rax,1),%eax
    5649:	31 c8                	xor    %ecx,%eax
    564b:	89 05 cf a9 00 00    	mov    %eax,0xa9cf(%rip)        # 10020 <crc32_context>
    5651:	90                   	nop
    5652:	5d                   	pop    %rbp
    5653:	c3                   	retq   

0000000000005654 <crc32_8bytes>:
    5654:	f3 0f 1e fa          	endbr64 
    5658:	55                   	push   %rbp
    5659:	48 89 e5             	mov    %rsp,%rbp
    565c:	48 83 ec 08          	sub    $0x8,%rsp
    5660:	48 89 7d f8          	mov    %rdi,-0x8(%rbp)
    5664:	48 8b 45 f8          	mov    -0x8(%rbp),%rax
    5668:	0f b6 c0             	movzbl %al,%eax
    566b:	89 c7                	mov    %eax,%edi
    566d:	e8 9c ff ff ff       	callq  560e <crc32_byte>
    5672:	48 8b 45 f8          	mov    -0x8(%rbp),%rax
    5676:	48 c1 e8 08          	shr    $0x8,%rax
    567a:	0f b6 c0             	movzbl %al,%eax
    567d:	89 c7                	mov    %eax,%edi
    567f:	e8 8a ff ff ff       	callq  560e <crc32_byte>
    5684:	48 8b 45 f8          	mov    -0x8(%rbp),%rax
    5688:	48 c1 e8 10          	shr    $0x10,%rax
    568c:	0f b6 c0             	movzbl %al,%eax
    568f:	89 c7                	mov    %eax,%edi
    5691:	e8 78 ff ff ff       	callq  560e <crc32_byte>
    5696:	48 8b 45 f8          	mov    -0x8(%rbp),%rax
    569a:	48 c1 e8 18          	shr    $0x18,%rax
    569e:	0f b6 c0             	movzbl %al,%eax
    56a1:	89 c7                	mov    %eax,%edi
    56a3:	e8 66 ff ff ff       	callq  560e <crc32_byte>
    56a8:	48 8b 45 f8          	mov    -0x8(%rbp),%rax
    56ac:	48 c1 e8 20          	shr    $0x20,%rax
    56b0:	0f b6 c0             	movzbl %al,%eax
    56b3:	89 c7                	mov    %eax,%edi
    56b5:	e8 54 ff ff ff       	callq  560e <crc32_byte>
    56ba:	48 8b 45 f8          	mov    -0x8(%rbp),%rax
    56be:	48 c1 e8 28          	shr    $0x28,%rax
    56c2:	0f b6 c0             	movzbl %al,%eax
    56c5:	89 c7                	mov    %eax,%edi
    56c7:	e8 42 ff ff ff       	callq  560e <crc32_byte>
    56cc:	48 8b 45 f8          	mov    -0x8(%rbp),%rax
    56d0:	48 c1 e8 30          	shr    $0x30,%rax
    56d4:	0f b6 c0             	movzbl %al,%eax
    56d7:	89 c7                	mov    %eax,%edi
    56d9:	e8 30 ff ff ff       	callq  560e <crc32_byte>
    56de:	48 8b 45 f8          	mov    -0x8(%rbp),%rax
    56e2:	48 c1 e8 38          	shr    $0x38,%rax
    56e6:	0f b6 c0             	movzbl %al,%eax
    56e9:	89 c7                	mov    %eax,%edi
    56eb:	e8 1e ff ff ff       	callq  560e <crc32_byte>
    56f0:	90                   	nop
    56f1:	c9                   	leaveq 
    56f2:	c3                   	retq   

00000000000056f3 <transparent_crc>:
    56f3:	f3 0f 1e fa          	endbr64 
    56f7:	55                   	push   %rbp
    56f8:	48 89 e5             	mov    %rsp,%rbp
    56fb:	48 83 ec 20          	sub    $0x20,%rsp
    56ff:	48 89 7d f8          	mov    %rdi,-0x8(%rbp)
    5703:	48 89 75 f0          	mov    %rsi,-0x10(%rbp)
    5707:	89 55 ec             	mov    %edx,-0x14(%rbp)
    570a:	48 8b 45 f8          	mov    -0x8(%rbp),%rax
    570e:	48 89 c7             	mov    %rax,%rdi
    5711:	e8 3e ff ff ff       	callq  5654 <crc32_8bytes>
    5716:	83 7d ec 00          	cmpl   $0x0,-0x14(%rbp)
    571a:	74 22                	je     573e <transparent_crc+0x4b>
    571c:	8b 05 fe a8 00 00    	mov    0xa8fe(%rip),%eax        # 10020 <crc32_context>
    5722:	f7 d0                	not    %eax
    5724:	89 c2                	mov    %eax,%edx
    5726:	48 8b 45 f0          	mov    -0x10(%rbp),%rax
    572a:	48 89 c6             	mov    %rax,%rsi
    572d:	48 8d 3d fc 68 00 00 	lea    0x68fc(%rip),%rdi        # c030 <_IO_stdin_used+0x30>
    5734:	b8 00 00 00 00       	mov    $0x0,%eax
    5739:	e8 42 e9 ff ff       	callq  4080 <printf@plt>
    573e:	90                   	nop
    573f:	c9                   	leaveq 
    5740:	c3                   	retq   

0000000000005741 <transparent_crc_bytes>:
    5741:	f3 0f 1e fa          	endbr64 
    5745:	55                   	push   %rbp
    5746:	48 89 e5             	mov    %rsp,%rbp
    5749:	48 83 ec 30          	sub    $0x30,%rsp
    574d:	48 89 7d e8          	mov    %rdi,-0x18(%rbp)
    5751:	89 75 e4             	mov    %esi,-0x1c(%rbp)
    5754:	48 89 55 d8          	mov    %rdx,-0x28(%rbp)
    5758:	89 4d e0             	mov    %ecx,-0x20(%rbp)
    575b:	c7 45 fc 00 00 00 00 	movl   $0x0,-0x4(%rbp)
    5762:	eb 1e                	jmp    5782 <transparent_crc_bytes+0x41>
    5764:	8b 45 fc             	mov    -0x4(%rbp),%eax
    5767:	48 63 d0             	movslq %eax,%rdx
    576a:	48 8b 45 e8          	mov    -0x18(%rbp),%rax
    576e:	48 01 d0             	add    %rdx,%rax
    5771:	0f b6 00             	movzbl (%rax),%eax
    5774:	0f b6 c0             	movzbl %al,%eax
    5777:	89 c7                	mov    %eax,%edi
    5779:	e8 90 fe ff ff       	callq  560e <crc32_byte>
    577e:	83 45 fc 01          	addl   $0x1,-0x4(%rbp)
    5782:	8b 45 fc             	mov    -0x4(%rbp),%eax
    5785:	3b 45 e4             	cmp    -0x1c(%rbp),%eax
    5788:	7c da                	jl     5764 <transparent_crc_bytes+0x23>
    578a:	83 7d e0 00          	cmpl   $0x0,-0x20(%rbp)
    578e:	74 22                	je     57b2 <transparent_crc_bytes+0x71>
    5790:	8b 05 8a a8 00 00    	mov    0xa88a(%rip),%eax        # 10020 <crc32_context>
    5796:	f7 d0                	not    %eax
    5798:	89 c2                	mov    %eax,%edx
    579a:	48 8b 45 d8          	mov    -0x28(%rbp),%rax
    579e:	48 89 c6             	mov    %rax,%rsi
    57a1:	48 8d 3d 88 68 00 00 	lea    0x6888(%rip),%rdi        # c030 <_IO_stdin_used+0x30>
    57a8:	b8 00 00 00 00       	mov    $0x0,%eax
    57ad:	e8 ce e8 ff ff       	callq  4080 <printf@plt>
    57b2:	90                   	nop
    57b3:	c9                   	leaveq 
    57b4:	c3                   	retq   

00000000000057b5 <func_1>:
    57b5:	f3 0f 1e fa          	endbr64 
    57b9:	55                   	push   %rbp
    57ba:	48 89 e5             	mov    %rsp,%rbp
    57bd:	41 57                	push   %r15
    57bf:	41 56                	push   %r14
    57c1:	41 55                	push   %r13
    57c3:	41 54                	push   %r12
    57c5:	53                   	push   %rbx
    57c6:	48 81 ec 00 10 00 00 	sub    $0x1000,%rsp
    57cd:	48 83 0c 24 00       	orq    $0x0,(%rsp)
    57d2:	48 81 ec 08 09 00 00 	sub    $0x908,%rsp
    57d9:	64 48 8b 04 25 28 00 	mov    %fs:0x28,%rax
    57e0:	00 00 
    57e2:	48 89 45 c8          	mov    %rax,-0x38(%rbp)
    57e6:	31 c0                	xor    %eax,%eax
    57e8:	c7 85 18 e7 ff ff ed 	movl   $0x3367f5ed,-0x18e8(%rbp)
    57ef:	f5 67 33 
    57f2:	48 8d 85 70 eb ff ff 	lea    -0x1490(%rbp),%rax
    57f9:	48 8d 15 80 68 00 00 	lea    0x6880(%rip),%rdx        # c080 <g_909+0x8>
    5800:	b9 2d 00 00 00       	mov    $0x2d,%ecx
    5805:	48 89 c7             	mov    %rax,%rdi
    5808:	48 89 d6             	mov    %rdx,%rsi
    580b:	f3 48 a5             	rep movsq %ds:(%rsi),%es:(%rdi)
    580e:	c7 85 1c e7 ff ff df 	movl   $0xf17b4edf,-0x18e4(%rbp)
    5815:	4e 7b f1 
    5818:	48 8d 05 5d a8 00 00 	lea    0xa85d(%rip),%rax        # 1007c <g_59+0xc>
    581f:	48 89 85 68 e7 ff ff 	mov    %rax,-0x1898(%rbp)
    5826:	48 8d 85 10 ef ff ff 	lea    -0x10f0(%rbp),%rax
    582d:	48 8d 15 cc 69 00 00 	lea    0x69cc(%rip),%rdx        # c200 <g_909+0x188>
    5834:	b9 6c 00 00 00       	mov    $0x6c,%ecx
    5839:	48 89 c7             	mov    %rax,%rdi
    583c:	48 89 d6             	mov    %rdx,%rsi
    583f:	f3 48 a5             	rep movsq %ds:(%rsi),%es:(%rdi)
    5842:	c7 85 20 e7 ff ff f8 	movl   $0xfffffff8,-0x18e0(%rbp)
    5849:	ff ff ff 
    584c:	c7 85 24 e7 ff ff 27 	movl   $0xaddaf827,-0x18dc(%rbp)
    5853:	f8 da ad 
    5856:	48 8d 85 70 f2 ff ff 	lea    -0xd90(%rbp),%rax
    585d:	48 8d 15 5c ad 00 00 	lea    0xad5c(%rip),%rdx        # 105c0 <g_873+0x20>
    5864:	b9 d2 00 00 00       	mov    $0xd2,%ecx
    5869:	48 89 c7             	mov    %rax,%rdi
    586c:	48 89 d6             	mov    %rdx,%rsi
    586f:	f3 48 a5             	rep movsq %ds:(%rsi),%es:(%rdi)
    5872:	48 8d 85 70 f2 ff ff 	lea    -0xd90(%rbp),%rax
    5879:	48 05 78 02 00 00    	add    $0x278,%rax
    587f:	48 89 85 98 e7 ff ff 	mov    %rax,-0x1868(%rbp)
    5886:	c6 85 e1 e6 ff ff fb 	movb   $0xfb,-0x191f(%rbp)
    588d:	48 8d 05 44 a8 00 00 	lea    0xa844(%rip),%rax        # 100d8 <g_171>
    5894:	48 89 85 70 e9 ff ff 	mov    %rax,-0x1690(%rbp)
    589b:	48 8d 05 36 a8 00 00 	lea    0xa836(%rip),%rax        # 100d8 <g_171>
    58a2:	48 89 85 78 e9 ff ff 	mov    %rax,-0x1688(%rbp)
    58a9:	48 8d 05 d8 a7 00 00 	lea    0xa7d8(%rip),%rax        # 10088 <g_103>
    58b0:	48 89 85 80 e9 ff ff 	mov    %rax,-0x1680(%rbp)
    58b7:	48 8d 05 1a a8 00 00 	lea    0xa81a(%rip),%rax        # 100d8 <g_171>
    58be:	48 89 85 88 e9 ff ff 	mov    %rax,-0x1678(%rbp)
    58c5:	48 8d 05 0c a8 00 00 	lea    0xa80c(%rip),%rax        # 100d8 <g_171>
    58cc:	48 89 85 90 e9 ff ff 	mov    %rax,-0x1670(%rbp)
    58d3:	48 8d 05 ae a7 00 00 	lea    0xa7ae(%rip),%rax        # 10088 <g_103>
    58da:	48 89 85 98 e9 ff ff 	mov    %rax,-0x1668(%rbp)
    58e1:	48 8d 05 f0 a7 00 00 	lea    0xa7f0(%rip),%rax        # 100d8 <g_171>
    58e8:	48 89 85 a0 e9 ff ff 	mov    %rax,-0x1660(%rbp)
    58ef:	48 8d 05 e2 a7 00 00 	lea    0xa7e2(%rip),%rax        # 100d8 <g_171>
    58f6:	48 89 85 a8 e9 ff ff 	mov    %rax,-0x1658(%rbp)
    58fd:	48 8d 05 84 a7 00 00 	lea    0xa784(%rip),%rax        # 10088 <g_103>
    5904:	48 89 85 b0 e9 ff ff 	mov    %rax,-0x1650(%rbp)
    590b:	48 8d 05 c6 a7 00 00 	lea    0xa7c6(%rip),%rax        # 100d8 <g_171>
    5912:	48 89 85 b8 e9 ff ff 	mov    %rax,-0x1648(%rbp)
    5919:	48 8d 05 b8 a7 00 00 	lea    0xa7b8(%rip),%rax        # 100d8 <g_171>
    5920:	48 89 85 c0 e9 ff ff 	mov    %rax,-0x1640(%rbp)
    5927:	48 8d 05 5a a7 00 00 	lea    0xa75a(%rip),%rax        # 10088 <g_103>
    592e:	48 89 85 c8 e9 ff ff 	mov    %rax,-0x1638(%rbp)
    5935:	48 8d 05 9c a7 00 00 	lea    0xa79c(%rip),%rax        # 100d8 <g_171>
    593c:	48 89 85 d0 e9 ff ff 	mov    %rax,-0x1630(%rbp)
    5943:	48 8d 05 8e a7 00 00 	lea    0xa78e(%rip),%rax        # 100d8 <g_171>
    594a:	48 89 85 d8 e9 ff ff 	mov    %rax,-0x1628(%rbp)
    5951:	48 8d 05 30 a7 00 00 	lea    0xa730(%rip),%rax        # 10088 <g_103>
    5958:	48 89 85 e0 e9 ff ff 	mov    %rax,-0x1620(%rbp)
    595f:	48 8d 05 72 a7 00 00 	lea    0xa772(%rip),%rax        # 100d8 <g_171>
    5966:	48 89 85 e8 e9 ff ff 	mov    %rax,-0x1618(%rbp)
    596d:	48 8d 05 64 a7 00 00 	lea    0xa764(%rip),%rax        # 100d8 <g_171>
    5974:	48 89 85 f0 e9 ff ff 	mov    %rax,-0x1610(%rbp)
    597b:	48 8d 05 06 a7 00 00 	lea    0xa706(%rip),%rax        # 10088 <g_103>
    5982:	48 89 85 f8 e9 ff ff 	mov    %rax,-0x1608(%rbp)
    5989:	48 8d 05 48 a7 00 00 	lea    0xa748(%rip),%rax        # 100d8 <g_171>
    5990:	48 89 85 00 ea ff ff 	mov    %rax,-0x1600(%rbp)
    5997:	48 8d 05 3a a7 00 00 	lea    0xa73a(%rip),%rax        # 100d8 <g_171>
    599e:	48 89 85 08 ea ff ff 	mov    %rax,-0x15f8(%rbp)
    59a5:	48 8d 05 dc a6 00 00 	lea    0xa6dc(%rip),%rax        # 10088 <g_103>
    59ac:	48 89 85 10 ea ff ff 	mov    %rax,-0x15f0(%rbp)
    59b3:	48 8d 05 1e a7 00 00 	lea    0xa71e(%rip),%rax        # 100d8 <g_171>
    59ba:	48 89 85 18 ea ff ff 	mov    %rax,-0x15e8(%rbp)
    59c1:	48 8d 05 10 a7 00 00 	lea    0xa710(%rip),%rax        # 100d8 <g_171>
    59c8:	48 89 85 20 ea ff ff 	mov    %rax,-0x15e0(%rbp)
    59cf:	48 8d 05 b2 a6 00 00 	lea    0xa6b2(%rip),%rax        # 10088 <g_103>
    59d6:	48 89 85 28 ea ff ff 	mov    %rax,-0x15d8(%rbp)
    59dd:	c6 85 e2 e6 ff ff f2 	movb   $0xf2,-0x191e(%rbp)
    59e4:	c7 85 28 e7 ff ff 1f 	movl   $0xdb680b1f,-0x18d8(%rbp)
    59eb:	0b 68 db 
    59ee:	48 b8 49 64 82 44 e2 	movabs $0x187afe244826449,%rax
    59f5:	af 87 01 
    59f8:	48 89 85 a0 e7 ff ff 	mov    %rax,-0x1860(%rbp)
    59ff:	66 c7 85 e6 e6 ff ff 	movw   $0x1,-0x191a(%rbp)
    5a06:	01 00 
    5a08:	66 c7 85 d0 e8 ff ff 	movw   $0x6a8f,-0x1730(%rbp)
    5a0f:	8f 6a 
    5a11:	66 c7 85 d2 e8 ff ff 	movw   $0x0,-0x172e(%rbp)
    5a18:	00 00 
    5a1a:	66 c7 85 d4 e8 ff ff 	movw   $0x0,-0x172c(%rbp)
    5a21:	00 00 
    5a23:	66 c7 85 d6 e8 ff ff 	movw   $0x0,-0x172a(%rbp)
    5a2a:	00 00 
    5a2c:	66 c7 85 d8 e8 ff ff 	movw   $0x6a8f,-0x1728(%rbp)
    5a33:	8f 6a 
    5a35:	66 c7 85 da e8 ff ff 	movw   $0x0,-0x1726(%rbp)
    5a3c:	00 00 
    5a3e:	66 c7 85 dc e8 ff ff 	movw   $0x0,-0x1724(%rbp)
    5a45:	00 00 
    5a47:	66 c7 85 de e8 ff ff 	movw   $0x5,-0x1722(%rbp)
    5a4e:	05 00 
    5a50:	66 c7 85 e0 e8 ff ff 	movw   $0x6a8f,-0x1720(%rbp)
    5a57:	8f 6a 
    5a59:	66 c7 85 e2 e8 ff ff 	movw   $0x5,-0x171e(%rbp)
    5a60:	05 00 
    5a62:	66 c7 85 e4 e8 ff ff 	movw   $0x5,-0x171c(%rbp)
    5a69:	05 00 
    5a6b:	66 c7 85 e6 e8 ff ff 	movw   $0x5,-0x171a(%rbp)
    5a72:	05 00 
    5a74:	66 c7 85 e8 e8 ff ff 	movw   $0x0,-0x1718(%rbp)
    5a7b:	00 00 
    5a7d:	66 c7 85 ea e8 ff ff 	movw   $0x6a8f,-0x1716(%rbp)
    5a84:	8f 6a 
    5a86:	66 c7 85 ec e8 ff ff 	movw   $0xffff,-0x1714(%rbp)
    5a8d:	ff ff 
    5a8f:	c7 85 10 e7 ff ff 00 	movl   $0x0,-0x18f0(%rbp)
    5a96:	00 00 00 
    5a99:	eb 1a                	jmp    5ab5 <func_1+0x300>
    5a9b:	8b 85 10 e7 ff ff    	mov    -0x18f0(%rbp),%eax
    5aa1:	48 98                	cltq   
    5aa3:	c7 84 85 f0 e8 ff ff 	movl   $0x0,-0x1710(%rbp,%rax,4)
    5aaa:	00 00 00 00 
    5aae:	83 85 10 e7 ff ff 01 	addl   $0x1,-0x18f0(%rbp)
    5ab5:	83 bd 10 e7 ff ff 07 	cmpl   $0x7,-0x18f0(%rbp)
    5abc:	7e dd                	jle    5a9b <func_1+0x2e6>
    5abe:	83 bd 18 e7 ff ff 00 	cmpl   $0x0,-0x18e8(%rbp)
    5ac5:	0f 84 fa 07 00 00    	je     62c5 <func_1+0xb10>
    5acb:	48 8d 05 8e a5 00 00 	lea    0xa58e(%rip),%rax        # 10060 <g_15>
    5ad2:	48 89 85 50 e8 ff ff 	mov    %rax,-0x17b0(%rbp)
    5ad9:	c7 85 ec e6 ff ff 03 	movl   $0x3,-0x1914(%rbp)
    5ae0:	00 00 00 
    5ae3:	48 c7 85 58 e8 ff ff 	movq   $0x0,-0x17a8(%rbp)
    5aea:	00 00 00 00 
    5aee:	66 c7 85 e4 e6 ff ff 	movw   $0x59d1,-0x191c(%rbp)
    5af5:	d1 59 
    5af7:	48 8d 85 68 e7 ff ff 	lea    -0x1898(%rbp),%rax
    5afe:	48 89 85 60 e8 ff ff 	mov    %rax,-0x17a0(%rbp)
    5b05:	c7 85 48 e7 ff ff ff 	movl   $0xffffffff,-0x18b8(%rbp)
    5b0c:	ff ff ff 
    5b0f:	48 8d 05 42 a5 00 00 	lea    0xa542(%rip),%rax        # 10058 <g_9+0x18>
    5b16:	48 89 85 70 e7 ff ff 	mov    %rax,-0x1890(%rbp)
    5b1d:	48 8d 85 70 e7 ff ff 	lea    -0x1890(%rbp),%rax
    5b24:	48 89 85 68 e8 ff ff 	mov    %rax,-0x1798(%rbp)
    5b2b:	48 c7 85 78 e7 ff ff 	movq   $0x1,-0x1888(%rbp)
    5b32:	01 00 00 00 
    5b36:	c7 85 4c e7 ff ff fd 	movl   $0xfffffffd,-0x18b4(%rbp)
    5b3d:	ff ff ff 
    5b40:	48 8d 05 69 b4 00 00 	lea    0xb469(%rip),%rax        # 10fb0 <g_280>
    5b47:	48 89 85 80 e7 ff ff 	mov    %rax,-0x1880(%rbp)
    5b4e:	48 8d 85 80 e7 ff ff 	lea    -0x1880(%rbp),%rax
    5b55:	48 89 85 88 e7 ff ff 	mov    %rax,-0x1878(%rbp)
    5b5c:	48 8d 85 88 e7 ff ff 	lea    -0x1878(%rbp),%rax
    5b63:	48 89 85 70 e8 ff ff 	mov    %rax,-0x1790(%rbp)
    5b6a:	c7 85 50 e7 ff ff 02 	movl   $0x2,-0x18b0(%rbp)
    5b71:	00 00 00 
    5b74:	48 c7 85 78 e8 ff ff 	movq   $0x1,-0x1788(%rbp)
    5b7b:	01 00 00 00 
    5b7f:	c7 85 54 e7 ff ff df 	movl   $0x692462df,-0x18ac(%rbp)
    5b86:	62 24 69 
    5b89:	c7 85 58 e7 ff ff 09 	movl   $0x9,-0x18a8(%rbp)
    5b90:	00 00 00 
    5b93:	48 8d 05 f6 a9 00 00 	lea    0xa9f6(%rip),%rax        # 10590 <g_727>
    5b9a:	48 89 85 90 e7 ff ff 	mov    %rax,-0x1870(%rbp)
    5ba1:	48 8d 85 90 e7 ff ff 	lea    -0x1870(%rbp),%rax
    5ba8:	48 89 85 30 ea ff ff 	mov    %rax,-0x15d0(%rbp)
    5baf:	48 8d 85 90 e7 ff ff 	lea    -0x1870(%rbp),%rax
    5bb6:	48 89 85 38 ea ff ff 	mov    %rax,-0x15c8(%rbp)
    5bbd:	48 8d 85 90 e7 ff ff 	lea    -0x1870(%rbp),%rax
    5bc4:	48 89 85 40 ea ff ff 	mov    %rax,-0x15c0(%rbp)
    5bcb:	48 8d 85 90 e7 ff ff 	lea    -0x1870(%rbp),%rax
    5bd2:	48 89 85 48 ea ff ff 	mov    %rax,-0x15b8(%rbp)
    5bd9:	48 8d 85 90 e7 ff ff 	lea    -0x1870(%rbp),%rax
    5be0:	48 89 85 50 ea ff ff 	mov    %rax,-0x15b0(%rbp)
    5be7:	48 8d 85 90 e7 ff ff 	lea    -0x1870(%rbp),%rax
    5bee:	48 89 85 58 ea ff ff 	mov    %rax,-0x15a8(%rbp)
    5bf5:	48 8d 85 90 e7 ff ff 	lea    -0x1870(%rbp),%rax
    5bfc:	48 89 85 60 ea ff ff 	mov    %rax,-0x15a0(%rbp)
    5c03:	48 8d 85 90 e7 ff ff 	lea    -0x1870(%rbp),%rax
    5c0a:	48 89 85 68 ea ff ff 	mov    %rax,-0x1598(%rbp)
    5c11:	48 8d 85 90 e7 ff ff 	lea    -0x1870(%rbp),%rax
    5c18:	48 89 85 70 ea ff ff 	mov    %rax,-0x1590(%rbp)
    5c1f:	c7 85 14 e7 ff ff 00 	movl   $0x0,-0x18ec(%rbp)
    5c26:	00 00 00 
    5c29:	eb 1a                	jmp    5c45 <func_1+0x490>
    5c2b:	8b 85 14 e7 ff ff    	mov    -0x18ec(%rbp),%eax
    5c31:	48 98                	cltq   
    5c33:	c7 84 85 bc e8 ff ff 	movl   $0x0,-0x1744(%rbp,%rax,4)
    5c3a:	00 00 00 00 
    5c3e:	83 85 14 e7 ff ff 01 	addl   $0x1,-0x18ec(%rbp)
    5c45:	83 bd 14 e7 ff ff 00 	cmpl   $0x0,-0x18ec(%rbp)
    5c4c:	7e dd                	jle    5c2b <func_1+0x476>
    5c4e:	48 c7 85 58 e8 ff ff 	movq   $0x65de6af5,-0x17a8(%rbp)
    5c55:	f5 6a de 65 
    5c59:	8b 85 ec e6 ff ff    	mov    -0x1914(%rbp),%eax
    5c5f:	be f5 6a de 65       	mov    $0x65de6af5,%esi
    5c64:	89 c7                	mov    %eax,%edi
    5c66:	e8 92 f2 ff ff       	callq  4efd <safe_mod_func_uint32_t_u_u>
    5c6b:	85 c0                	test   %eax,%eax
    5c6d:	74 11                	je     5c80 <func_1+0x4cb>
    5c6f:	8b 85 ec e6 ff ff    	mov    -0x1914(%rbp),%eax
    5c75:	85 c0                	test   %eax,%eax
    5c77:	74 07                	je     5c80 <func_1+0x4cb>
    5c79:	b8 01 00 00 00       	mov    $0x1,%eax
    5c7e:	eb 05                	jmp    5c85 <func_1+0x4d0>
    5c80:	b8 00 00 00 00       	mov    $0x0,%eax
    5c85:	66 35 0e db          	xor    $0xdb0e,%ax
    5c89:	98                   	cwtl   
    5c8a:	be 08 00 00 00       	mov    $0x8,%esi
    5c8f:	89 c7                	mov    %eax,%edi
    5c91:	e8 fc e7 ff ff       	callq  4492 <safe_lshift_func_int16_t_s_s>
    5c96:	0f b7 c0             	movzwl %ax,%eax
    5c99:	89 c7                	mov    %eax,%edi
    5c9b:	e8 49 f0 ff ff       	callq  4ce9 <safe_unary_minus_func_uint16_t_u>
    5ca0:	0f b7 85 2a ec ff ff 	movzwl -0x13d6(%rbp),%eax
    5ca7:	89 c7                	mov    %eax,%edi
    5ca9:	e8 8f 24 00 00       	callq  813d <func_6>
    5cae:	89 c3                	mov    %eax,%ebx
    5cb0:	48 8b 05 e9 b2 00 00 	mov    0xb2e9(%rip),%rax        # 10fa0 <g_18>
    5cb7:	48 8d 15 96 63 00 00 	lea    0x6396(%rip),%rdx        # c054 <g_19>
    5cbe:	48 39 d0             	cmp    %rdx,%rax
    5cc1:	0f 95 c0             	setne  %al
    5cc4:	0f b6 d0             	movzbl %al,%edx
    5cc7:	8b 05 73 a3 00 00    	mov    0xa373(%rip),%eax        # 10040 <g_9>
    5ccd:	89 c7                	mov    %eax,%edi
    5ccf:	48 8b 85 50 e8 ff ff 	mov    -0x17b0(%rbp),%rax
    5cd6:	8b 00                	mov    (%rax),%eax
    5cd8:	8d 70 ff             	lea    -0x1(%rax),%esi
    5cdb:	48 8b 8d 50 e8 ff ff 	mov    -0x17b0(%rbp),%rcx
    5ce2:	89 31                	mov    %esi,(%rcx)
    5ce4:	31 f8                	xor    %edi,%eax
    5ce6:	0f b7 c0             	movzwl %ax,%eax
    5ce9:	48 89 d6             	mov    %rdx,%rsi
    5cec:	89 c7                	mov    %eax,%edi
    5cee:	e8 5e 24 00 00       	callq  8151 <func_11>
    5cf3:	98                   	cwtl   
    5cf4:	f7 d0                	not    %eax
    5cf6:	89 c2                	mov    %eax,%edx
    5cf8:	83 bd 18 e7 ff ff fa 	cmpl   $0xfffffffa,-0x18e8(%rbp)
    5cff:	0f 9c c0             	setl   %al
    5d02:	0f b6 c0             	movzbl %al,%eax
    5d05:	39 c2                	cmp    %eax,%edx
    5d07:	0f 94 c0             	sete   %al
    5d0a:	0f b6 c0             	movzbl %al,%eax
    5d0d:	39 c3                	cmp    %eax,%ebx
    5d0f:	74 0d                	je     5d1e <func_1+0x569>
    5d11:	48 8b 05 88 b2 00 00 	mov    0xb288(%rip),%rax        # 10fa0 <g_18>
    5d18:	8b 00                	mov    (%rax),%eax
    5d1a:	85 c0                	test   %eax,%eax
    5d1c:	74 07                	je     5d25 <func_1+0x570>
    5d1e:	b8 01 00 00 00       	mov    $0x1,%eax
    5d23:	eb 05                	jmp    5d2a <func_1+0x575>
    5d25:	b8 00 00 00 00       	mov    $0x0,%eax
    5d2a:	98                   	cwtl   
    5d2b:	be 07 00 00 00       	mov    $0x7,%esi
    5d30:	89 c7                	mov    %eax,%edi
    5d32:	e8 2c e8 ff ff       	callq  4563 <safe_rshift_func_int16_t_s_u>
    5d37:	98                   	cwtl   
    5d38:	0b 85 1c e7 ff ff    	or     -0x18e4(%rbp),%eax
    5d3e:	85 c0                	test   %eax,%eax
    5d40:	0f 84 fd 01 00 00    	je     5f43 <func_1+0x78e>
    5d46:	66 c7 85 c0 e8 ff ff 	movw   $0xe09b,-0x1740(%rbp)
    5d4d:	9b e0 
    5d4f:	66 c7 85 c2 e8 ff ff 	movw   $0xe09b,-0x173e(%rbp)
    5d56:	9b e0 
    5d58:	66 c7 85 c4 e8 ff ff 	movw   $0xe09b,-0x173c(%rbp)
    5d5f:	9b e0 
    5d61:	66 c7 85 c6 e8 ff ff 	movw   $0xe09b,-0x173a(%rbp)
    5d68:	9b e0 
    5d6a:	66 c7 85 c8 e8 ff ff 	movw   $0xe09b,-0x1738(%rbp)
    5d71:	9b e0 
    5d73:	66 c7 85 ca e8 ff ff 	movw   $0xe09b,-0x1736(%rbp)
    5d7a:	9b e0 
    5d7c:	66 c7 85 cc e8 ff ff 	movw   $0xe09b,-0x1734(%rbp)
    5d83:	9b e0 
    5d85:	66 c7 85 ce e8 ff ff 	movw   $0xe09b,-0x1732(%rbp)
    5d8c:	9b e0 
    5d8e:	c7 85 5c e7 ff ff fe 	movl   $0xfffffffe,-0x18a4(%rbp)
    5d95:	ff ff ff 
    5d98:	c7 85 60 e7 ff ff 09 	movl   $0x9,-0x18a0(%rbp)
    5d9f:	00 00 00 
    5da2:	66 c7 85 e8 e6 ff ff 	movw   $0x0,-0x1918(%rbp)
    5da9:	00 00 
    5dab:	c6 85 e3 e6 ff ff 49 	movb   $0x49,-0x191d(%rbp)
    5db2:	48 8d 85 ec e6 ff ff 	lea    -0x1914(%rbp),%rax
    5db9:	48 89 85 a0 e8 ff ff 	mov    %rax,-0x1760(%rbp)
    5dc0:	48 8d 85 00 f9 ff ff 	lea    -0x700(%rbp),%rax
    5dc7:	48 8d 15 92 ae 00 00 	lea    0xae92(%rip),%rdx        # 10c60 <g_873+0x6c0>
    5dce:	b9 3c 00 00 00       	mov    $0x3c,%ecx
    5dd3:	48 89 c7             	mov    %rax,%rdi
    5dd6:	48 89 d6             	mov    %rdx,%rsi
    5dd9:	f3 48 a5             	rep movsq %ds:(%rsi),%es:(%rdi)
    5ddc:	48 8d 85 70 e7 ff ff 	lea    -0x1890(%rbp),%rax
    5de3:	48 89 85 a8 e8 ff ff 	mov    %rax,-0x1758(%rbp)
    5dea:	48 8d 05 a7 a2 00 00 	lea    0xa2a7(%rip),%rax        # 10098 <g_130>
    5df1:	48 89 85 10 e9 ff ff 	mov    %rax,-0x16f0(%rbp)
    5df8:	48 8d 05 99 a2 00 00 	lea    0xa299(%rip),%rax        # 10098 <g_130>
    5dff:	48 89 85 18 e9 ff ff 	mov    %rax,-0x16e8(%rbp)
    5e06:	48 8d 05 8b a2 00 00 	lea    0xa28b(%rip),%rax        # 10098 <g_130>
    5e0d:	48 89 85 20 e9 ff ff 	mov    %rax,-0x16e0(%rbp)
    5e14:	48 8d 05 7d a2 00 00 	lea    0xa27d(%rip),%rax        # 10098 <g_130>
    5e1b:	48 89 85 28 e9 ff ff 	mov    %rax,-0x16d8(%rbp)
    5e22:	66 c7 85 ea e6 ff ff 	movw   $0x0,-0x1916(%rbp)
    5e29:	00 00 
    5e2b:	48 8d 05 7a b7 00 00 	lea    0xb77a(%rip),%rax        # 115ac <g_82>
    5e32:	48 89 85 b0 e8 ff ff 	mov    %rax,-0x1750(%rbp)
    5e39:	c7 85 64 e7 ff ff ff 	movl   $0xffffffff,-0x189c(%rbp)
    5e40:	ff ff ff 
    5e43:	c7 85 e0 ec ff ff 01 	movl   $0x1,-0x1320(%rbp)
    5e4a:	00 00 00 
    5e4d:	c7 85 e4 ec ff ff fb 	movl   $0xfffffffb,-0x131c(%rbp)
    5e54:	ff ff ff 
    5e57:	c7 85 e8 ec ff ff f7 	movl   $0xfffffff7,-0x1318(%rbp)
    5e5e:	ff ff ff 
    5e61:	c7 85 ec ec ff ff 84 	movl   $0xcc9c3384,-0x1314(%rbp)
    5e68:	33 9c cc 
    5e6b:	c7 85 f0 ec ff ff f7 	movl   $0xfffffff7,-0x1310(%rbp)
    5e72:	ff ff ff 
    5e75:	c7 85 f4 ec ff ff fb 	movl   $0xfffffffb,-0x130c(%rbp)
    5e7c:	ff ff ff 
    5e7f:	c7 85 f8 ec ff ff 01 	movl   $0x1,-0x1308(%rbp)
    5e86:	00 00 00 
    5e89:	c7 85 fc ec ff ff 01 	movl   $0x1,-0x1304(%rbp)
    5e90:	00 00 00 
    5e93:	c7 85 00 ed ff ff fb 	movl   $0xfffffffb,-0x1300(%rbp)
    5e9a:	ff ff ff 
    5e9d:	c7 85 04 ed ff ff f7 	movl   $0xfffffff7,-0x12fc(%rbp)
    5ea4:	ff ff ff 
    5ea7:	c7 85 08 ed ff ff fb 	movl   $0xfffffffb,-0x12f8(%rbp)
    5eae:	ff ff ff 
    5eb1:	c7 85 0c ed ff ff 01 	movl   $0x1,-0x12f4(%rbp)
    5eb8:	00 00 00 
    5ebb:	c7 85 10 ed ff ff 01 	movl   $0x1,-0x12f0(%rbp)
    5ec2:	00 00 00 
    5ec5:	c7 85 14 ed ff ff fb 	movl   $0xfffffffb,-0x12ec(%rbp)
    5ecc:	ff ff ff 
    5ecf:	c7 85 18 ed ff ff f7 	movl   $0xfffffff7,-0x12e8(%rbp)
    5ed6:	ff ff ff 
    5ed9:	c7 85 1c ed ff ff 84 	movl   $0xcc9c3384,-0x12e4(%rbp)
    5ee0:	33 9c cc 
    5ee3:	c7 85 20 ed ff ff f7 	movl   $0xfffffff7,-0x12e0(%rbp)
    5eea:	ff ff ff 
    5eed:	c7 85 24 ed ff ff fb 	movl   $0xfffffffb,-0x12dc(%rbp)
    5ef4:	ff ff ff 
    5ef7:	c7 85 28 ed ff ff 01 	movl   $0x1,-0x12d8(%rbp)
    5efe:	00 00 00 
    5f01:	c7 85 2c ed ff ff 01 	movl   $0x1,-0x12d4(%rbp)
    5f08:	00 00 00 
    5f0b:	c7 85 08 e7 ff ff 00 	movl   $0x0,-0x18f8(%rbp)
    5f12:	00 00 00 
    5f15:	eb 1e                	jmp    5f35 <func_1+0x780>
    5f17:	8b 85 08 e7 ff ff    	mov    -0x18f8(%rbp),%eax
    5f1d:	48 98                	cltq   
    5f1f:	48 8d 15 62 a1 00 00 	lea    0xa162(%rip),%rdx        # 10088 <g_103>
    5f26:	48 89 94 c5 30 e9 ff 	mov    %rdx,-0x16d0(%rbp,%rax,8)
    5f2d:	ff 
    5f2e:	83 85 08 e7 ff ff 01 	addl   $0x1,-0x18f8(%rbp)
    5f35:	83 bd 08 e7 ff ff 07 	cmpl   $0x7,-0x18f8(%rbp)
    5f3c:	7e d9                	jle    5f17 <func_1+0x762>
    5f3e:	e9 02 03 00 00       	jmpq   6245 <func_1+0xa90>
    5f43:	48 8d 85 68 e7 ff ff 	lea    -0x1898(%rbp),%rax
    5f4a:	48 89 85 80 e8 ff ff 	mov    %rax,-0x1780(%rbp)
    5f51:	48 8d 85 bc e8 ff ff 	lea    -0x1744(%rbp),%rax
    5f58:	48 89 85 00 f9 ff ff 	mov    %rax,-0x700(%rbp)
    5f5f:	48 8d 05 2a a1 00 00 	lea    0xa12a(%rip),%rax        # 10090 <g_112>
    5f66:	48 89 85 08 f9 ff ff 	mov    %rax,-0x6f8(%rbp)
    5f6d:	48 8d 85 bc e8 ff ff 	lea    -0x1744(%rbp),%rax
    5f74:	48 89 85 10 f9 ff ff 	mov    %rax,-0x6f0(%rbp)
    5f7b:	48 8d 85 bc e8 ff ff 	lea    -0x1744(%rbp),%rax
    5f82:	48 89 85 18 f9 ff ff 	mov    %rax,-0x6e8(%rbp)
    5f89:	48 8d 05 00 a1 00 00 	lea    0xa100(%rip),%rax        # 10090 <g_112>
    5f90:	48 89 85 20 f9 ff ff 	mov    %rax,-0x6e0(%rbp)
    5f97:	48 8d 85 bc e8 ff ff 	lea    -0x1744(%rbp),%rax
    5f9e:	48 89 85 28 f9 ff ff 	mov    %rax,-0x6d8(%rbp)
    5fa5:	48 8d 85 bc e8 ff ff 	lea    -0x1744(%rbp),%rax
    5fac:	48 89 85 30 f9 ff ff 	mov    %rax,-0x6d0(%rbp)
    5fb3:	48 8d 85 78 e7 ff ff 	lea    -0x1888(%rbp),%rax
    5fba:	48 89 85 88 e8 ff ff 	mov    %rax,-0x1778(%rbp)
    5fc1:	48 c7 85 90 e8 ff ff 	movq   $0x0,-0x1770(%rbp)
    5fc8:	00 00 00 00 
    5fcc:	48 8d 05 91 a5 00 00 	lea    0xa591(%rip),%rax        # 10564 <g_483+0x4>
    5fd3:	48 89 85 98 e8 ff ff 	mov    %rax,-0x1768(%rbp)
    5fda:	48 8b 85 60 e8 ff ff 	mov    -0x17a0(%rbp),%rax
    5fe1:	48 8b 00             	mov    (%rax),%rax
    5fe4:	8b 00                	mov    (%rax),%eax
    5fe6:	0f b7 d8             	movzwl %ax,%ebx
    5fe9:	be 02 00 00 00       	mov    $0x2,%esi
    5fee:	bf 01 00 00 00       	mov    $0x1,%edi
    5ff3:	e8 0e ee ff ff       	callq  4e06 <safe_lshift_func_uint16_t_u_u>
    5ff8:	0f b7 d0             	movzwl %ax,%edx
    5ffb:	8b 05 8f a0 00 00    	mov    0xa08f(%rip),%eax        # 10090 <g_112>
    6001:	31 d0                	xor    %edx,%eax
    6003:	89 05 87 a0 00 00    	mov    %eax,0xa087(%rip)        # 10090 <g_112>
    6009:	8b 05 81 a0 00 00    	mov    0xa081(%rip),%eax        # 10090 <g_112>
    600f:	41 89 c4             	mov    %eax,%r12d
    6012:	48 8b 85 88 e8 ff ff 	mov    -0x1778(%rbp),%rax
    6019:	48 b9 c0 56 43 4f 34 	movabs $0xa1fe42344f4356c0,%rcx
    6020:	42 fe a1 
    6023:	48 89 08             	mov    %rcx,(%rax)
    6026:	48 8b 85 88 e8 ff ff 	mov    -0x1778(%rbp),%rax
    602d:	48 8b 00             	mov    (%rax),%rax
    6030:	48 89 c7             	mov    %rax,%rdi
    6033:	e8 e1 ef ff ff       	callq  5019 <safe_unary_minus_func_uint64_t_u>
    6038:	89 c2                	mov    %eax,%edx
    603a:	48 8b 85 50 e8 ff ff 	mov    -0x17b0(%rbp),%rax
    6041:	89 10                	mov    %edx,(%rax)
    6043:	48 8b 85 50 e8 ff ff 	mov    -0x17b0(%rbp),%rax
    604a:	8b 00                	mov    (%rax),%eax
    604c:	41 39 c4             	cmp    %eax,%r12d
    604f:	77 65                	ja     60b6 <func_1+0x901>
    6051:	8b 05 09 a5 00 00    	mov    0xa509(%rip),%eax        # 10560 <g_483>
    6057:	0f be d0             	movsbl %al,%edx
    605a:	48 8b 85 60 e8 ff ff 	mov    -0x17a0(%rbp),%rax
    6061:	48 8b 00             	mov    (%rax),%rax
    6064:	8b 00                	mov    (%rax),%eax
    6066:	3d ce 8e 00 00       	cmp    $0x8ece,%eax
    606b:	0f 9e c0             	setle  %al
    606e:	0f b6 c0             	movzbl %al,%eax
    6071:	89 d6                	mov    %edx,%esi
    6073:	89 c7                	mov    %eax,%edi
    6075:	e8 78 e1 ff ff       	callq  41f2 <safe_sub_func_int8_t_s_s>
    607a:	84 c0                	test   %al,%al
    607c:	74 08                	je     6086 <func_1+0x8d1>
    607e:	8b 05 24 a0 00 00    	mov    0xa024(%rip),%eax        # 100a8 <g_138+0x8>
    6084:	85 c0                	test   %eax,%eax
    6086:	0f b6 05 ae a0 00 00 	movzbl 0xa0ae(%rip),%eax        # 1013b <g_203+0x3>
    608d:	84 c0                	test   %al,%al
    608f:	75 0b                	jne    609c <func_1+0x8e7>
    6091:	48 8b 85 68 e7 ff ff 	mov    -0x1898(%rbp),%rax
    6098:	8b 00                	mov    (%rax),%eax
    609a:	85 c0                	test   %eax,%eax
    609c:	be 00 00 00 00       	mov    $0x0,%esi
    60a1:	bf 0b 00 00 00       	mov    $0xb,%edi
    60a6:	e8 5a eb ff ff       	callq  4c05 <safe_lshift_func_uint8_t_u_s>
    60ab:	3c fa                	cmp    $0xfa,%al
    60ad:	76 07                	jbe    60b6 <func_1+0x901>
    60af:	b8 01 00 00 00       	mov    $0x1,%eax
    60b4:	eb 05                	jmp    60bb <func_1+0x906>
    60b6:	b8 00 00 00 00       	mov    $0x0,%eax
    60bb:	0f b7 c0             	movzwl %ax,%eax
    60be:	be 0b 00 00 00       	mov    $0xb,%esi
    60c3:	89 c7                	mov    %eax,%edi
    60c5:	e8 b0 ed ff ff       	callq  4e7a <safe_rshift_func_uint16_t_u_u>
    60ca:	0f b7 c0             	movzwl %ax,%eax
    60cd:	89 de                	mov    %ebx,%esi
    60cf:	89 c7                	mov    %eax,%edi
    60d1:	e8 67 ec ff ff       	callq  4d3d <safe_mul_func_uint16_t_u_u>
    60d6:	0f bf d0             	movswl %ax,%edx
    60d9:	48 8b 85 60 e8 ff ff 	mov    -0x17a0(%rbp),%rax
    60e0:	48 8b 00             	mov    (%rax),%rax
    60e3:	8b 00                	mov    (%rax),%eax
    60e5:	98                   	cwtl   
    60e6:	89 d6                	mov    %edx,%esi
    60e8:	89 c7                	mov    %eax,%edi
    60ea:	e8 c4 e2 ff ff       	callq  43b3 <safe_add_func_int16_t_s_s>
    60ef:	0f bf d0             	movswl %ax,%edx
    60f2:	8b 05 30 a4 00 00    	mov    0xa430(%rip),%eax        # 10528 <g_439>
    60f8:	09 d0                	or     %edx,%eax
    60fa:	89 05 28 a4 00 00    	mov    %eax,0xa428(%rip)        # 10528 <g_439>
    6100:	0f b7 05 1d a4 00 00 	movzwl 0xa41d(%rip),%eax        # 10524 <g_270+0x4>
    6107:	0f be d8             	movsbl %al,%ebx
    610a:	44 8b 2d 2f 9f 00 00 	mov    0x9f2f(%rip),%r13d        # 10040 <g_9>
    6111:	48 8b 05 a0 ae 00 00 	mov    0xaea0(%rip),%rax        # 10fb8 <g_278>
    6118:	48 8b 00             	mov    (%rax),%rax
    611b:	48 8b 10             	mov    (%rax),%rdx
    611e:	48 8b 85 80 e7 ff ff 	mov    -0x1880(%rbp),%rax
    6125:	48 8b 00             	mov    (%rax),%rax
    6128:	48 8b 12             	mov    (%rdx),%rdx
    612b:	48 89 10             	mov    %rdx,(%rax)
    612e:	48 8b 00             	mov    (%rax),%rax
    6131:	48 89 c2             	mov    %rax,%rdx
    6134:	48 8b 85 80 e8 ff ff 	mov    -0x1780(%rbp),%rax
    613b:	48 8b 00             	mov    (%rax),%rax
    613e:	8b 00                	mov    (%rax),%eax
    6140:	48 98                	cltq   
    6142:	48 89 d6             	mov    %rdx,%rsi
    6145:	48 89 c7             	mov    %rax,%rdi
    6148:	e8 e1 ee ff ff       	callq  502e <safe_add_func_uint64_t_u_u>
    614d:	66 89 05 72 b4 00 00 	mov    %ax,0xb472(%rip)        # 115c6 <g_722+0x6>
    6154:	0f b7 05 6b b4 00 00 	movzwl 0xb46b(%rip),%eax        # 115c6 <g_722+0x6>
    615b:	0f b7 c0             	movzwl %ax,%eax
    615e:	be 01 00 00 00       	mov    $0x1,%esi
    6163:	48 89 c7             	mov    %rax,%rdi
    6166:	e8 c3 ee ff ff       	callq  502e <safe_add_func_uint64_t_u_u>
    616b:	49 89 c4             	mov    %rax,%r12
    616e:	48 8b 85 40 ea ff ff 	mov    -0x15c0(%rbp),%rax
    6175:	48 8d 15 ec ae 00 00 	lea    0xaeec(%rip),%rdx        # 11068 <g_685>
    617c:	48 39 d0             	cmp    %rdx,%rax
    617f:	0f 94 c0             	sete   %al
    6182:	0f b6 c0             	movzbl %al,%eax
    6185:	be 01 00 00 00       	mov    $0x1,%esi
    618a:	89 c7                	mov    %eax,%edi
    618c:	e8 2d ec ff ff       	callq  4dbe <safe_lshift_func_uint16_t_u_s>
    6191:	0f b7 c0             	movzwl %ax,%eax
    6194:	4c 21 e0             	and    %r12,%rax
    6197:	48 3d 5a bc 82 0f    	cmp    $0xf82bc5a,%rax
    619d:	0f 97 c0             	seta   %al
    61a0:	0f b6 c0             	movzbl %al,%eax
    61a3:	41 39 c5             	cmp    %eax,%r13d
    61a6:	0f 97 c0             	seta   %al
    61a9:	0f b6 c0             	movzbl %al,%eax
    61ac:	be 06 00 00 00       	mov    $0x6,%esi
    61b1:	89 c7                	mov    %eax,%edi
    61b3:	e8 47 eb ff ff       	callq  4cff <safe_add_func_uint16_t_u_u>
    61b8:	48 8b 05 11 af 00 00 	mov    0xaf11(%rip),%rax        # 110d0 <g_713>
    61bf:	48 85 c0             	test   %rax,%rax
    61c2:	0f 95 c0             	setne  %al
    61c5:	0f b6 c0             	movzbl %al,%eax
    61c8:	48 89 05 c9 9e 00 00 	mov    %rax,0x9ec9(%rip)        # 10098 <g_130>
    61cf:	48 8b 05 c2 9e 00 00 	mov    0x9ec2(%rip),%rax        # 10098 <g_130>
    61d6:	be 01 00 00 00       	mov    $0x1,%esi
    61db:	48 89 c7             	mov    %rax,%rdi
    61de:	e8 68 ee ff ff       	callq  504b <safe_sub_func_uint64_t_u_u>
    61e3:	48 8b 15 de ad 00 00 	mov    0xadde(%rip),%rdx        # 10fc8 <g_356>
    61ea:	0f b7 12             	movzwl (%rdx),%edx
    61ed:	0f b7 d2             	movzwl %dx,%edx
    61f0:	48 39 d0             	cmp    %rdx,%rax
    61f3:	0f 93 c0             	setae  %al
    61f6:	0f b6 d0             	movzbl %al,%edx
    61f9:	b8 ff ff ff ff       	mov    $0xffffffff,%eax
    61fe:	98                   	cwtl   
    61ff:	39 c2                	cmp    %eax,%edx
    6201:	0f 94 c0             	sete   %al
    6204:	0f b6 c0             	movzbl %al,%eax
    6207:	89 de                	mov    %ebx,%esi
    6209:	89 c7                	mov    %eax,%edi
    620b:	e8 5a e0 ff ff       	callq  426a <safe_div_func_int8_t_s_s>
    6210:	3c ff                	cmp    $0xff,%al
    6212:	0f 95 c0             	setne  %al
    6215:	0f b6 d0             	movzbl %al,%edx
    6218:	48 8b 85 98 e8 ff ff 	mov    -0x1768(%rbp),%rax
    621f:	66 89 10             	mov    %dx,(%rax)
    6222:	48 8b 85 98 e8 ff ff 	mov    -0x1768(%rbp),%rax
    6229:	0f b7 10             	movzwl (%rax),%edx
    622c:	0f b7 05 51 9e 00 00 	movzwl 0x9e51(%rip),%eax        # 10084 <g_78>
    6233:	66 39 c2             	cmp    %ax,%dx
    6236:	0f 9f c2             	setg   %dl
    6239:	48 8b 85 68 e7 ff ff 	mov    -0x1898(%rbp),%rax
    6240:	0f b6 d2             	movzbl %dl,%edx
    6243:	89 10                	mov    %edx,(%rax)
    6245:	48 8b 85 68 e7 ff ff 	mov    -0x1898(%rbp),%rax
    624c:	8b 00                	mov    (%rax),%eax
    624e:	85 c0                	test   %eax,%eax
    6250:	74 16                	je     6268 <func_1+0xab3>
    6252:	48 8b 05 bf ae 00 00 	mov    0xaebf(%rip),%rax        # 11118 <g_733>
    6259:	48 8b 15 b0 ae 00 00 	mov    0xaeb0(%rip),%rdx        # 11110 <g_730>
    6260:	48 89 10             	mov    %rdx,(%rax)
    6263:	e9 a6 1e 00 00       	jmpq   810e <func_1+0x2959>
    6268:	8b 05 3e b3 00 00    	mov    0xb33e(%rip),%eax        # 115ac <g_82>
    626e:	48 63 c8             	movslq %eax,%rcx
    6271:	48 8b 85 60 e8 ff ff 	mov    -0x17a0(%rbp),%rax
    6278:	48 8b 00             	mov    (%rax),%rax
    627b:	8b 00                	mov    (%rax),%eax
    627d:	0f b7 d0             	movzwl %ax,%edx
    6280:	0f b7 05 21 b3 00 00 	movzwl 0xb321(%rip),%eax        # 115a8 <g_76>
    6287:	48 8d 35 d2 9d 00 00 	lea    0x9dd2(%rip),%rsi        # 10060 <g_15>
    628e:	89 c7                	mov    %eax,%edi
    6290:	e8 aa 3b 00 00       	callq  9e3f <func_31>
    6295:	89 c2                	mov    %eax,%edx
    6297:	0f b7 05 28 b3 00 00 	movzwl 0xb328(%rip),%eax        # 115c6 <g_722+0x6>
    629e:	0f b6 c8             	movzbl %al,%ecx
    62a1:	48 8b 05 28 ae 00 00 	mov    0xae28(%rip),%rax        # 110d0 <g_713>
    62a8:	48 8b 00             	mov    (%rax),%rax
    62ab:	8b 00                	mov    (%rax),%eax
    62ad:	89 ce                	mov    %ecx,%esi
    62af:	89 c7                	mov    %eax,%edi
    62b1:	e8 f4 4a 00 00       	callq  adaa <func_43>
    62b6:	48 8b 95 60 e8 ff ff 	mov    -0x17a0(%rbp),%rdx
    62bd:	48 89 02             	mov    %rax,(%rdx)
    62c0:	e9 49 1e 00 00       	jmpq   810e <func_1+0x2959>
    62c5:	66 c7 85 80 e7 ff ff 	movw   $0xffff,-0x1880(%rbp)
    62cc:	ff ff 
    62ce:	c6 85 78 e7 ff ff ff 	movb   $0xff,-0x1888(%rbp)
    62d5:	c7 85 0c e7 ff ff 00 	movl   $0x0,-0x18f4(%rbp)
    62dc:	00 00 00 
    62df:	eb 1a                	jmp    62fb <func_1+0xb46>
    62e1:	8b 85 0c e7 ff ff    	mov    -0x18f4(%rbp),%eax
    62e7:	48 98                	cltq   
    62e9:	c7 84 85 30 e9 ff ff 	movl   $0x4ba530c0,-0x16d0(%rbp,%rax,4)
    62f0:	c0 30 a5 4b 
    62f4:	83 85 0c e7 ff ff 01 	addl   $0x1,-0x18f4(%rbp)
    62fb:	83 bd 0c e7 ff ff 02 	cmpl   $0x2,-0x18f4(%rbp)
    6302:	7e dd                	jle    62e1 <func_1+0xb2c>
    6304:	66 c7 05 9b b2 00 00 	movw   $0xfff4,0xb29b(%rip)        # 115a8 <g_76>
    630b:	f4 ff 
    630d:	e9 e8 1d 00 00       	jmpq   80fa <func_1+0x2945>
    6312:	c7 85 f0 e6 ff ff 03 	movl   $0x7c411803,-0x1910(%rbp)
    6319:	18 41 7c 
    631c:	48 c7 85 a8 e7 ff ff 	movq   $0x0,-0x1858(%rbp)
    6323:	00 00 00 00 
    6327:	c7 85 f4 e6 ff ff 6e 	movl   $0x2b0b246e,-0x190c(%rbp)
    632e:	24 0b 2b 
    6331:	48 8d 05 ee a1 00 00 	lea    0xa1ee(%rip),%rax        # 10526 <g_270+0x6>
    6338:	48 89 85 b0 e7 ff ff 	mov    %rax,-0x1850(%rbp)
    633f:	48 8d 85 d0 e8 ff ff 	lea    -0x1730(%rbp),%rax
    6346:	48 83 c0 0e          	add    $0xe,%rax
    634a:	48 89 85 b8 e7 ff ff 	mov    %rax,-0x1848(%rbp)
    6351:	be 01 00 00 00       	mov    $0x1,%esi
    6356:	bf 00 00 00 00       	mov    $0x0,%edi
    635b:	e8 5e e9 ff ff       	callq  4cbe <safe_rshift_func_uint8_t_u_u>
    6360:	89 c2                	mov    %eax,%edx
    6362:	48 8b 05 3f ac 00 00 	mov    0xac3f(%rip),%rax        # 10fa8 <g_189>
    6369:	0f b6 d2             	movzbl %dl,%edx
    636c:	89 10                	mov    %edx,(%rax)
    636e:	8b 00                	mov    (%rax),%eax
    6370:	85 c0                	test   %eax,%eax
    6372:	0f 84 ad 19 00 00    	je     7d25 <func_1+0x2570>
    6378:	48 8d 05 81 92 00 00 	lea    0x9281(%rip),%rax        # f600 <g_279>
    637f:	48 89 85 f8 e7 ff ff 	mov    %rax,-0x1808(%rbp)
    6386:	c7 85 30 e7 ff ff ff 	movl   $0xffffffff,-0x18d0(%rbp)
    638d:	ff ff ff 
    6390:	48 8d 05 91 ac 00 00 	lea    0xac91(%rip),%rax        # 11028 <g_627>
    6397:	48 89 85 00 e8 ff ff 	mov    %rax,-0x1800(%rbp)
    639e:	c7 05 80 a1 00 00 05 	movl   $0x5,0xa180(%rip)        # 10528 <g_439>
    63a5:	00 00 00 
    63a8:	90                   	nop
    63a9:	8b 05 79 a1 00 00    	mov    0xa179(%rip),%eax        # 10528 <g_439>
    63af:	85 c0                	test   %eax,%eax
    63b1:	0f 88 b4 1c 00 00    	js     806b <func_1+0x28b6>
    63b7:	c7 85 34 e7 ff ff ff 	movl   $0xffffffff,-0x18cc(%rbp)
    63be:	ff ff ff 
    63c1:	c7 85 f8 e6 ff ff 4f 	movl   $0x8745c04f,-0x1908(%rbp)
    63c8:	c0 45 87 
    63cb:	48 8d 05 f8 b1 00 00 	lea    0xb1f8(%rip),%rax        # 115ca <g_722+0xa>
    63d2:	48 89 85 30 ea ff ff 	mov    %rax,-0x15d0(%rbp)
    63d9:	48 8d 85 70 eb ff ff 	lea    -0x1490(%rbp),%rax
    63e0:	48 05 ba 00 00 00    	add    $0xba,%rax
    63e6:	48 89 85 38 ea ff ff 	mov    %rax,-0x15c8(%rbp)
    63ed:	48 c7 85 40 ea ff ff 	movq   $0x0,-0x15c0(%rbp)
    63f4:	00 00 00 00 
    63f8:	48 c7 85 48 ea ff ff 	movq   $0x0,-0x15b8(%rbp)
    63ff:	00 00 00 00 
    6403:	48 8d 05 be b1 00 00 	lea    0xb1be(%rip),%rax        # 115c8 <g_722+0x8>
    640a:	48 89 85 50 ea ff ff 	mov    %rax,-0x15b0(%rbp)
    6411:	48 8d 05 b0 b1 00 00 	lea    0xb1b0(%rip),%rax        # 115c8 <g_722+0x8>
    6418:	48 89 85 58 ea ff ff 	mov    %rax,-0x15a8(%rbp)
    641f:	48 c7 85 60 ea ff ff 	movq   $0x0,-0x15a0(%rbp)
    6426:	00 00 00 00 
    642a:	48 8d 05 95 b1 00 00 	lea    0xb195(%rip),%rax        # 115c6 <g_722+0x6>
    6431:	48 89 85 68 ea ff ff 	mov    %rax,-0x1598(%rbp)
    6438:	48 8d 05 8b b1 00 00 	lea    0xb18b(%rip),%rax        # 115ca <g_722+0xa>
    643f:	48 89 85 70 ea ff ff 	mov    %rax,-0x1590(%rbp)
    6446:	48 c7 85 78 ea ff ff 	movq   $0x0,-0x1588(%rbp)
    644d:	00 00 00 00 
    6451:	48 8d 85 70 eb ff ff 	lea    -0x1490(%rbp),%rax
    6458:	48 05 ba 00 00 00    	add    $0xba,%rax
    645e:	48 89 85 80 ea ff ff 	mov    %rax,-0x1580(%rbp)
    6465:	48 8d 85 70 eb ff ff 	lea    -0x1490(%rbp),%rax
    646c:	48 05 ba 00 00 00    	add    $0xba,%rax
    6472:	48 89 85 88 ea ff ff 	mov    %rax,-0x1578(%rbp)
    6479:	48 8d 85 70 eb ff ff 	lea    -0x1490(%rbp),%rax
    6480:	48 05 ba 00 00 00    	add    $0xba,%rax
    6486:	48 89 85 90 ea ff ff 	mov    %rax,-0x1570(%rbp)
    648d:	48 8d 85 70 eb ff ff 	lea    -0x1490(%rbp),%rax
    6494:	48 05 ba 00 00 00    	add    $0xba,%rax
    649a:	48 89 85 98 ea ff ff 	mov    %rax,-0x1568(%rbp)
    64a1:	48 8d 05 1e b1 00 00 	lea    0xb11e(%rip),%rax        # 115c6 <g_722+0x6>
    64a8:	48 89 85 a0 ea ff ff 	mov    %rax,-0x1560(%rbp)
    64af:	48 8d 85 70 eb ff ff 	lea    -0x1490(%rbp),%rax
    64b6:	48 05 ba 00 00 00    	add    $0xba,%rax
    64bc:	48 89 85 a8 ea ff ff 	mov    %rax,-0x1558(%rbp)
    64c3:	48 8d 05 fc b0 00 00 	lea    0xb0fc(%rip),%rax        # 115c6 <g_722+0x6>
    64ca:	48 89 85 b0 ea ff ff 	mov    %rax,-0x1550(%rbp)
    64d1:	48 8d 85 70 eb ff ff 	lea    -0x1490(%rbp),%rax
    64d8:	48 05 ba 00 00 00    	add    $0xba,%rax
    64de:	48 89 85 b8 ea ff ff 	mov    %rax,-0x1548(%rbp)
    64e5:	48 8d 85 70 eb ff ff 	lea    -0x1490(%rbp),%rax
    64ec:	48 05 ba 00 00 00    	add    $0xba,%rax
    64f2:	48 89 85 c0 ea ff ff 	mov    %rax,-0x1540(%rbp)
    64f9:	48 8d 85 70 eb ff ff 	lea    -0x1490(%rbp),%rax
    6500:	48 05 ba 00 00 00    	add    $0xba,%rax
    6506:	48 89 85 c8 ea ff ff 	mov    %rax,-0x1538(%rbp)
    650d:	48 8d 85 70 eb ff ff 	lea    -0x1490(%rbp),%rax
    6514:	48 05 ba 00 00 00    	add    $0xba,%rax
    651a:	48 89 85 d0 ea ff ff 	mov    %rax,-0x1530(%rbp)
    6521:	48 c7 85 d8 ea ff ff 	movq   $0x0,-0x1528(%rbp)
    6528:	00 00 00 00 
    652c:	48 8d 05 97 b0 00 00 	lea    0xb097(%rip),%rax        # 115ca <g_722+0xa>
    6533:	48 89 85 e0 ea ff ff 	mov    %rax,-0x1520(%rbp)
    653a:	48 8d 05 85 b0 00 00 	lea    0xb085(%rip),%rax        # 115c6 <g_722+0x6>
    6541:	48 89 85 e8 ea ff ff 	mov    %rax,-0x1518(%rbp)
    6548:	48 c7 85 f0 ea ff ff 	movq   $0x0,-0x1510(%rbp)
    654f:	00 00 00 00 
    6553:	48 8d 05 6e b0 00 00 	lea    0xb06e(%rip),%rax        # 115c8 <g_722+0x8>
    655a:	48 89 85 f8 ea ff ff 	mov    %rax,-0x1508(%rbp)
    6561:	48 8d 05 60 b0 00 00 	lea    0xb060(%rip),%rax        # 115c8 <g_722+0x8>
    6568:	48 89 85 00 eb ff ff 	mov    %rax,-0x1500(%rbp)
    656f:	48 c7 85 08 eb ff ff 	movq   $0x0,-0x14f8(%rbp)
    6576:	00 00 00 00 
    657a:	48 c7 85 10 eb ff ff 	movq   $0x0,-0x14f0(%rbp)
    6581:	00 00 00 00 
    6585:	48 8d 85 70 eb ff ff 	lea    -0x1490(%rbp),%rax
    658c:	48 05 ba 00 00 00    	add    $0xba,%rax
    6592:	48 89 85 18 eb ff ff 	mov    %rax,-0x14e8(%rbp)
    6599:	48 8d 05 2a b0 00 00 	lea    0xb02a(%rip),%rax        # 115ca <g_722+0xa>
    65a0:	48 89 85 20 eb ff ff 	mov    %rax,-0x14e0(%rbp)
    65a7:	48 8d 85 80 e7 ff ff 	lea    -0x1880(%rbp),%rax
    65ae:	48 89 85 28 eb ff ff 	mov    %rax,-0x14d8(%rbp)
    65b5:	48 8d 85 70 eb ff ff 	lea    -0x1490(%rbp),%rax
    65bc:	48 05 ba 00 00 00    	add    $0xba,%rax
    65c2:	48 89 85 30 eb ff ff 	mov    %rax,-0x14d0(%rbp)
    65c9:	48 c7 85 38 eb ff ff 	movq   $0x0,-0x14c8(%rbp)
    65d0:	00 00 00 00 
    65d4:	48 8d 85 70 eb ff ff 	lea    -0x1490(%rbp),%rax
    65db:	48 05 ba 00 00 00    	add    $0xba,%rax
    65e1:	48 89 85 40 eb ff ff 	mov    %rax,-0x14c0(%rbp)
    65e8:	48 8d 05 d9 af 00 00 	lea    0xafd9(%rip),%rax        # 115c8 <g_722+0x8>
    65ef:	48 89 85 48 eb ff ff 	mov    %rax,-0x14b8(%rbp)
    65f6:	48 8d 05 c9 af 00 00 	lea    0xafc9(%rip),%rax        # 115c6 <g_722+0x6>
    65fd:	48 89 85 50 eb ff ff 	mov    %rax,-0x14b0(%rbp)
    6604:	48 8d 05 bb af 00 00 	lea    0xafbb(%rip),%rax        # 115c6 <g_722+0x6>
    660b:	48 89 85 58 eb ff ff 	mov    %rax,-0x14a8(%rbp)
    6612:	48 8d 05 ad af 00 00 	lea    0xafad(%rip),%rax        # 115c6 <g_722+0x6>
    6619:	48 89 85 60 eb ff ff 	mov    %rax,-0x14a0(%rbp)
    6620:	48 8d 05 a1 af 00 00 	lea    0xafa1(%rip),%rax        # 115c8 <g_722+0x8>
    6627:	48 89 85 68 eb ff ff 	mov    %rax,-0x1498(%rbp)
    662e:	48 8d 05 4f 9a 00 00 	lea    0x9a4f(%rip),%rax        # 10084 <g_78>
    6635:	48 89 85 08 e8 ff ff 	mov    %rax,-0x17f8(%rbp)
    663c:	c7 85 38 e7 ff ff 01 	movl   $0x1,-0x18c8(%rbp)
    6643:	00 00 00 
    6646:	48 8b 85 68 e7 ff ff 	mov    -0x1898(%rbp),%rax
    664d:	8b 00                	mov    (%rax),%eax
    664f:	98                   	cwtl   
    6650:	be 0a 00 00 00       	mov    $0xa,%esi
    6655:	89 c7                	mov    %eax,%edi
    6657:	e8 ce de ff ff       	callq  452a <safe_rshift_func_int16_t_s_s>
    665c:	66 85 c0             	test   %ax,%ax
    665f:	0f 84 cf 02 00 00    	je     6934 <func_1+0x117f>
    6665:	48 8d 85 e2 e6 ff ff 	lea    -0x191e(%rbp),%rax
    666c:	48 89 85 20 e8 ff ff 	mov    %rax,-0x17e0(%rbp)
    6673:	48 8d 05 c1 9a 00 00 	lea    0x9ac1(%rip),%rax        # 1013b <g_203+0x3>
    667a:	48 89 85 28 e8 ff ff 	mov    %rax,-0x17d8(%rbp)
    6681:	48 c7 85 00 f9 ff ff 	movq   $0x0,-0x700(%rbp)
    6688:	00 00 00 00 
    668c:	48 8d 05 93 9e 00 00 	lea    0x9e93(%rip),%rax        # 10526 <g_270+0x6>
    6693:	48 89 85 08 f9 ff ff 	mov    %rax,-0x6f8(%rbp)
    669a:	48 c7 85 10 f9 ff ff 	movq   $0x0,-0x6f0(%rbp)
    66a1:	00 00 00 00 
    66a5:	48 8d 05 ba 9e 00 00 	lea    0x9eba(%rip),%rax        # 10566 <g_483+0x6>
    66ac:	48 89 85 18 f9 ff ff 	mov    %rax,-0x6e8(%rbp)
    66b3:	48 8d 05 bf 9e 00 00 	lea    0x9ebf(%rip),%rax        # 10579 <g_624+0x6>
    66ba:	48 89 85 20 f9 ff ff 	mov    %rax,-0x6e0(%rbp)
    66c1:	48 c7 85 28 f9 ff ff 	movq   $0x0,-0x6d8(%rbp)
    66c8:	00 00 00 00 
    66cc:	48 8d 85 e1 e6 ff ff 	lea    -0x191f(%rbp),%rax
    66d3:	48 89 85 30 f9 ff ff 	mov    %rax,-0x6d0(%rbp)
    66da:	48 c7 85 38 f9 ff ff 	movq   $0x0,-0x6c8(%rbp)
    66e1:	00 00 00 00 
    66e5:	48 8d 05 8d 9e 00 00 	lea    0x9e8d(%rip),%rax        # 10579 <g_624+0x6>
    66ec:	48 89 85 40 f9 ff ff 	mov    %rax,-0x6c0(%rbp)
    66f3:	48 c7 85 48 f9 ff ff 	movq   $0x0,-0x6b8(%rbp)
    66fa:	00 00 00 00 
    66fe:	48 8d 05 74 9e 00 00 	lea    0x9e74(%rip),%rax        # 10579 <g_624+0x6>
    6705:	48 89 85 50 f9 ff ff 	mov    %rax,-0x6b0(%rbp)
    670c:	48 8d 05 53 9e 00 00 	lea    0x9e53(%rip),%rax        # 10566 <g_483+0x6>
    6713:	48 89 85 58 f9 ff ff 	mov    %rax,-0x6a8(%rbp)
    671a:	48 c7 85 60 f9 ff ff 	movq   $0x0,-0x6a0(%rbp)
    6721:	00 00 00 00 
    6725:	48 8d 05 fa 9d 00 00 	lea    0x9dfa(%rip),%rax        # 10526 <g_270+0x6>
    672c:	48 89 85 68 f9 ff ff 	mov    %rax,-0x698(%rbp)
    6733:	48 c7 85 70 f9 ff ff 	movq   $0x0,-0x690(%rbp)
    673a:	00 00 00 00 
    673e:	48 8d 05 34 9e 00 00 	lea    0x9e34(%rip),%rax        # 10579 <g_624+0x6>
    6745:	48 89 85 78 f9 ff ff 	mov    %rax,-0x688(%rbp)
    674c:	48 8d 05 26 9e 00 00 	lea    0x9e26(%rip),%rax        # 10579 <g_624+0x6>
    6753:	48 89 85 80 f9 ff ff 	mov    %rax,-0x680(%rbp)
    675a:	48 c7 85 88 f9 ff ff 	movq   $0x0,-0x678(%rbp)
    6761:	00 00 00 00 
    6765:	48 8d 05 0d 9e 00 00 	lea    0x9e0d(%rip),%rax        # 10579 <g_624+0x6>
    676c:	48 89 85 90 f9 ff ff 	mov    %rax,-0x670(%rbp)
    6773:	48 8d 05 ac 9d 00 00 	lea    0x9dac(%rip),%rax        # 10526 <g_270+0x6>
    677a:	48 89 85 98 f9 ff ff 	mov    %rax,-0x668(%rbp)
    6781:	48 c7 85 a0 f9 ff ff 	movq   $0x0,-0x660(%rbp)
    6788:	00 00 00 00 
    678c:	48 8d 05 03 9e 00 00 	lea    0x9e03(%rip),%rax        # 10596 <g_727+0x6>
    6793:	48 89 85 a8 f9 ff ff 	mov    %rax,-0x658(%rbp)
    679a:	48 8d 05 f5 9d 00 00 	lea    0x9df5(%rip),%rax        # 10596 <g_727+0x6>
    67a1:	48 89 85 b0 f9 ff ff 	mov    %rax,-0x650(%rbp)
    67a8:	48 c7 85 b8 f9 ff ff 	movq   $0x0,-0x648(%rbp)
    67af:	00 00 00 00 
    67b3:	48 8d 05 ac 9d 00 00 	lea    0x9dac(%rip),%rax        # 10566 <g_483+0x6>
    67ba:	48 89 85 c0 f9 ff ff 	mov    %rax,-0x640(%rbp)
    67c1:	48 8d 05 aa 9d 00 00 	lea    0x9daa(%rip),%rax        # 10572 <g_622+0x6>
    67c8:	48 89 85 c8 f9 ff ff 	mov    %rax,-0x638(%rbp)
    67cf:	48 8d 85 e1 e6 ff ff 	lea    -0x191f(%rbp),%rax
    67d6:	48 89 85 d0 f9 ff ff 	mov    %rax,-0x630(%rbp)
    67dd:	48 8d 05 42 9d 00 00 	lea    0x9d42(%rip),%rax        # 10526 <g_270+0x6>
    67e4:	48 89 85 d8 f9 ff ff 	mov    %rax,-0x628(%rbp)
    67eb:	48 8d 05 87 9d 00 00 	lea    0x9d87(%rip),%rax        # 10579 <g_624+0x6>
    67f2:	48 89 85 e0 f9 ff ff 	mov    %rax,-0x620(%rbp)
    67f9:	48 c7 85 e8 f9 ff ff 	movq   $0x0,-0x618(%rbp)
    6800:	00 00 00 00 
    6804:	48 8d 05 1b 9d 00 00 	lea    0x9d1b(%rip),%rax        # 10526 <g_270+0x6>
    680b:	48 89 85 f0 f9 ff ff 	mov    %rax,-0x610(%rbp)
    6812:	48 c7 85 f8 f9 ff ff 	movq   $0x0,-0x608(%rbp)
    6819:	00 00 00 00 
    681d:	48 8d 05 02 9d 00 00 	lea    0x9d02(%rip),%rax        # 10526 <g_270+0x6>
    6824:	48 89 85 00 fa ff ff 	mov    %rax,-0x600(%rbp)
    682b:	48 c7 85 08 fa ff ff 	movq   $0x0,-0x5f8(%rbp)
    6832:	00 00 00 00 
    6836:	48 c7 85 10 fa ff ff 	movq   $0x0,-0x5f0(%rbp)
    683d:	00 00 00 00 
    6841:	48 c7 85 18 fa ff ff 	movq   $0x0,-0x5e8(%rbp)
    6848:	00 00 00 00 
    684c:	48 8d 05 43 9d 00 00 	lea    0x9d43(%rip),%rax        # 10596 <g_727+0x6>
    6853:	48 89 85 20 fa ff ff 	mov    %rax,-0x5e0(%rbp)
    685a:	48 c7 85 28 fa ff ff 	movq   $0x0,-0x5d8(%rbp)
    6861:	00 00 00 00 
    6865:	48 8d 05 06 9d 00 00 	lea    0x9d06(%rip),%rax        # 10572 <g_622+0x6>
    686c:	48 89 85 30 fa ff ff 	mov    %rax,-0x5d0(%rbp)
    6873:	48 8d 05 ac 9c 00 00 	lea    0x9cac(%rip),%rax        # 10526 <g_270+0x6>
    687a:	48 89 85 38 fa ff ff 	mov    %rax,-0x5c8(%rbp)
    6881:	48 8b 05 40 a7 00 00 	mov    0xa740(%rip),%rax        # 10fc8 <g_356>
    6888:	0f b7 00             	movzwl (%rax),%eax
    688b:	0f b7 d8             	movzwl %ax,%ebx
    688e:	8b 85 34 e7 ff ff    	mov    -0x18cc(%rbp),%eax
    6894:	48 98                	cltq   
    6896:	48 be fa 71 83 d5 52 	movabs $0xbdcca552d58371fa,%rsi
    689d:	a5 cc bd 
    68a0:	48 89 c7             	mov    %rax,%rdi
    68a3:	e8 d8 e7 ff ff       	callq  5080 <safe_mod_func_uint64_t_u_u>
    68a8:	98                   	cwtl   
    68a9:	89 de                	mov    %ebx,%esi
    68ab:	89 c7                	mov    %eax,%edi
    68ad:	e8 b1 dc ff ff       	callq  4563 <safe_rshift_func_int16_t_s_u>
    68b2:	48 8b 15 6f a7 00 00 	mov    0xa76f(%rip),%rdx        # 11028 <g_627>
    68b9:	48 8b 12             	mov    (%rdx),%rdx
    68bc:	8b 0a                	mov    (%rdx),%ecx
    68be:	0f bf d0             	movswl %ax,%edx
    68c1:	48 8b 05 60 a7 00 00 	mov    0xa760(%rip),%rax        # 11028 <g_627>
    68c8:	48 8b 00             	mov    (%rax),%rax
    68cb:	09 ca                	or     %ecx,%edx
    68cd:	89 10                	mov    %edx,(%rax)
    68cf:	48 8b 85 20 e8 ff ff 	mov    -0x17e0(%rbp),%rax
    68d6:	c6 00 15             	movb   $0x15,(%rax)
    68d9:	48 8b 85 20 e8 ff ff 	mov    -0x17e0(%rbp),%rax
    68e0:	0f b6 10             	movzbl (%rax),%edx
    68e3:	48 8b 85 28 e8 ff ff 	mov    -0x17d8(%rbp),%rax
    68ea:	88 10                	mov    %dl,(%rax)
    68ec:	b8 01 00 00 00       	mov    $0x1,%eax
    68f1:	83 f8 f7             	cmp    $0xfffffff7,%eax
    68f4:	0f 9d c0             	setge  %al
    68f7:	0f b6 d8             	movzbl %al,%ebx
    68fa:	b8 86 97 3d ce       	mov    $0xce3d9786,%eax
    68ff:	0f be d0             	movsbl %al,%edx
    6902:	8b 05 5f 57 00 00    	mov    0x575f(%rip),%eax        # c067 <g_575>
    6908:	0f be c0             	movsbl %al,%eax
    690b:	89 d6                	mov    %edx,%esi
    690d:	89 c7                	mov    %eax,%edi
    690f:	e8 1d d9 ff ff       	callq  4231 <safe_mod_func_int8_t_s_s>
    6914:	48 0f be c0          	movsbq %al,%rax
    6918:	48 89 de             	mov    %rbx,%rsi
    691b:	48 89 c7             	mov    %rax,%rdi
    691e:	e8 0b e7 ff ff       	callq  502e <safe_add_func_uint64_t_u_u>
    6923:	48 89 c2             	mov    %rax,%rdx
    6926:	48 8b 05 7b a6 00 00 	mov    0xa67b(%rip),%rax        # 10fa8 <g_189>
    692d:	89 10                	mov    %edx,(%rax)
    692f:	e9 3d 01 00 00       	jmpq   6a71 <func_1+0x12bc>
    6934:	48 8d 05 eb 9b 00 00 	lea    0x9beb(%rip),%rax        # 10526 <g_270+0x6>
    693b:	48 89 85 10 e8 ff ff 	mov    %rax,-0x17f0(%rbp)
    6942:	48 8d 05 f0 97 00 00 	lea    0x97f0(%rip),%rax        # 10139 <g_203+0x1>
    6949:	48 89 85 18 e8 ff ff 	mov    %rax,-0x17e8(%rbp)
    6950:	8b 85 34 e7 ff ff    	mov    -0x18cc(%rbp),%eax
    6956:	48 63 d8             	movslq %eax,%rbx
    6959:	8b 05 3d 9c 00 00    	mov    0x9c3d(%rip),%eax        # 1059c <g_774>
    695f:	89 c0                	mov    %eax,%eax
    6961:	25 5a 34 98 3f       	and    $0x3f98345a,%eax
    6966:	be 00 00 00 00       	mov    $0x0,%esi
    696b:	48 89 c7             	mov    %rax,%rdi
    696e:	e8 bb e6 ff ff       	callq  502e <safe_add_func_uint64_t_u_u>
    6973:	48 89 c2             	mov    %rax,%rdx
    6976:	48 8b 85 18 e8 ff ff 	mov    -0x17e8(%rbp),%rax
    697d:	0f b6 00             	movzbl (%rax),%eax
    6980:	89 c1                	mov    %eax,%ecx
    6982:	89 d0                	mov    %edx,%eax
    6984:	21 c8                	and    %ecx,%eax
    6986:	89 c2                	mov    %eax,%edx
    6988:	48 8b 85 18 e8 ff ff 	mov    -0x17e8(%rbp),%rax
    698f:	88 10                	mov    %dl,(%rax)
    6991:	48 8b 85 a8 e7 ff ff 	mov    -0x1858(%rbp),%rax
    6998:	48 3b 85 00 e8 ff ff 	cmp    -0x1800(%rbp),%rax
    699f:	0f 95 c0             	setne  %al
    69a2:	0f b6 d0             	movzbl %al,%edx
    69a5:	48 8b 85 10 e8 ff ff 	mov    -0x17f0(%rbp),%rax
    69ac:	0f b6 00             	movzbl (%rax),%eax
    69af:	83 c8 01             	or     $0x1,%eax
    69b2:	89 c1                	mov    %eax,%ecx
    69b4:	48 8b 85 10 e8 ff ff 	mov    -0x17f0(%rbp),%rax
    69bb:	88 08                	mov    %cl,(%rax)
    69bd:	48 8b 85 10 e8 ff ff 	mov    -0x17f0(%rbp),%rax
    69c4:	0f b6 00             	movzbl (%rax),%eax
    69c7:	0f b6 c0             	movzbl %al,%eax
    69ca:	89 d6                	mov    %edx,%esi
    69cc:	89 c7                	mov    %eax,%edi
    69ce:	e8 eb e2 ff ff       	callq  4cbe <safe_rshift_func_uint8_t_u_u>
    69d3:	b8 01 00 00 00       	mov    $0x1,%eax
    69d8:	0f b7 d0             	movzwl %ax,%edx
    69db:	48 8b 05 7e 90 00 00 	mov    0x907e(%rip),%rax        # fa60 <l_768.4179+0x440>
    69e2:	48 85 c0             	test   %rax,%rax
    69e5:	0f 95 c0             	setne  %al
    69e8:	0f b6 c0             	movzbl %al,%eax
    69eb:	89 d6                	mov    %edx,%esi
    69ed:	89 c7                	mov    %eax,%edi
    69ef:	e8 49 e3 ff ff       	callq  4d3d <safe_mul_func_uint16_t_u_u>
    69f4:	0f b7 c0             	movzwl %ax,%eax
    69f7:	48 89 de             	mov    %rbx,%rsi
    69fa:	48 89 c7             	mov    %rax,%rdi
    69fd:	e8 a6 de ff ff       	callq  48a8 <safe_sub_func_int64_t_s_s>
    6a02:	be 8b 5d 00 00       	mov    $0x5d8b,%esi
    6a07:	bf 41 ef ff ff       	mov    $0xffffef41,%edi
    6a0c:	e8 05 da ff ff       	callq  4416 <safe_mod_func_int16_t_s_s>
    6a11:	48 8b 15 10 a6 00 00 	mov    0xa610(%rip),%rdx        # 11028 <g_627>
    6a18:	48 8b 12             	mov    (%rdx),%rdx
    6a1b:	8b 0a                	mov    (%rdx),%ecx
    6a1d:	0f bf d0             	movswl %ax,%edx
    6a20:	48 8b 05 01 a6 00 00 	mov    0xa601(%rip),%rax        # 11028 <g_627>
    6a27:	48 8b 00             	mov    (%rax),%rax
    6a2a:	09 ca                	or     %ecx,%edx
    6a2c:	89 10                	mov    %edx,(%rax)
    6a2e:	c7 85 f8 e6 ff ff a9 	movl   $0xc43e47a9,-0x1908(%rbp)
    6a35:	47 3e c4 
    6a38:	8b 8d f8 e6 ff ff    	mov    -0x1908(%rbp),%ecx
    6a3e:	48 8b 05 63 a5 00 00 	mov    0xa563(%rip),%rax        # 10fa8 <g_189>
    6a45:	8b 10                	mov    (%rax),%edx
    6a47:	48 8b 05 5a a5 00 00 	mov    0xa55a(%rip),%rax        # 10fa8 <g_189>
    6a4e:	21 ca                	and    %ecx,%edx
    6a50:	89 10                	mov    %edx,(%rax)
    6a52:	48 8b 15 c7 a6 00 00 	mov    0xa6c7(%rip),%rdx        # 11120 <g_780>
    6a59:	8b 00                	mov    (%rax),%eax
    6a5b:	89 02                	mov    %eax,(%rdx)
    6a5d:	48 8b 05 c4 a5 00 00 	mov    0xa5c4(%rip),%rax        # 11028 <g_627>
    6a64:	48 8b 00             	mov    (%rax),%rax
    6a67:	8b 00                	mov    (%rax),%eax
    6a69:	85 c0                	test   %eax,%eax
    6a6b:	0f 85 f9 15 00 00    	jne    806a <func_1+0x28b5>
    6a71:	48 8b 85 68 e7 ff ff 	mov    -0x1898(%rbp),%rax
    6a78:	8b 18                	mov    (%rax),%ebx
    6a7a:	48 8b 05 3f a5 00 00 	mov    0xa53f(%rip),%rax        # 10fc0 <g_277>
    6a81:	48 8b 00             	mov    (%rax),%rax
    6a84:	48 8b 00             	mov    (%rax),%rax
    6a87:	48 8b 00             	mov    (%rax),%rax
    6a8a:	48 b9 56 99 47 1c f3 	movabs $0xa56dfbf31c479956,%rcx
    6a91:	fb 6d a5 
    6a94:	48 89 08             	mov    %rcx,(%rax)
    6a97:	48 8b 85 68 e7 ff ff 	mov    -0x1898(%rbp),%rax
    6a9e:	8b 00                	mov    (%rax),%eax
    6aa0:	44 0f be e0          	movsbl %al,%r12d
    6aa4:	48 8b 85 68 e7 ff ff 	mov    -0x1898(%rbp),%rax
    6aab:	8b 00                	mov    (%rax),%eax
    6aad:	0f b6 c0             	movzbl %al,%eax
    6ab0:	be 00 00 00 00       	mov    $0x0,%esi
    6ab5:	89 c7                	mov    %eax,%edi
    6ab7:	e8 90 e1 ff ff       	callq  4c4c <safe_lshift_func_uint8_t_u_u>
    6abc:	44 0f b6 e8          	movzbl %al,%r13d
    6ac0:	48 8d 05 60 9a 00 00 	lea    0x9a60(%rip),%rax        # 10527 <g_410>
    6ac7:	48 89 05 7a a6 00 00 	mov    %rax,0xa67a(%rip)        # 11148 <g_801+0x8>
    6ace:	48 8b 05 73 a6 00 00 	mov    0xa673(%rip),%rax        # 11148 <g_801+0x8>
    6ad5:	48 8d 15 64 96 00 00 	lea    0x9664(%rip),%rdx        # 10140 <g_203+0x8>
    6adc:	48 39 d0             	cmp    %rdx,%rax
    6adf:	75 14                	jne    6af5 <func_1+0x1340>
    6ae1:	be 0b 00 00 00       	mov    $0xb,%esi
    6ae6:	bf 00 00 00 00       	mov    $0x0,%edi
    6aeb:	e8 3a da ff ff       	callq  452a <safe_rshift_func_int16_t_s_s>
    6af0:	66 85 c0             	test   %ax,%ax
    6af3:	74 07                	je     6afc <func_1+0x1347>
    6af5:	b8 01 00 00 00       	mov    $0x1,%eax
    6afa:	eb 05                	jmp    6b01 <func_1+0x134c>
    6afc:	b8 00 00 00 00       	mov    $0x0,%eax
    6b01:	be ff ff ff ff       	mov    $0xffffffff,%esi
    6b06:	89 c7                	mov    %eax,%edi
    6b08:	e8 18 e4 ff ff       	callq  4f25 <safe_div_func_uint32_t_u_u>
    6b0d:	0f b7 95 80 e7 ff ff 	movzwl -0x1880(%rbp),%edx
    6b14:	0f b7 d2             	movzwl %dx,%edx
    6b17:	39 d0                	cmp    %edx,%eax
    6b19:	0f 94 c0             	sete   %al
    6b1c:	0f b6 c0             	movzbl %al,%eax
    6b1f:	41 39 c5             	cmp    %eax,%r13d
    6b22:	7f 13                	jg     6b37 <func_1+0x1382>
    6b24:	48 8b 85 00 e8 ff ff 	mov    -0x1800(%rbp),%rax
    6b2b:	48 8b 00             	mov    (%rax),%rax
    6b2e:	48 8b 00             	mov    (%rax),%rax
    6b31:	8b 00                	mov    (%rax),%eax
    6b33:	85 c0                	test   %eax,%eax
    6b35:	74 07                	je     6b3e <func_1+0x1389>
    6b37:	b8 01 00 00 00       	mov    $0x1,%eax
    6b3c:	eb 05                	jmp    6b43 <func_1+0x138e>
    6b3e:	b8 00 00 00 00       	mov    $0x0,%eax
    6b43:	0f be d0             	movsbl %al,%edx
    6b46:	83 bd 34 e7 ff ff 00 	cmpl   $0x0,-0x18cc(%rbp)
    6b4d:	0f 95 c0             	setne  %al
    6b50:	0f b6 c0             	movzbl %al,%eax
    6b53:	89 d6                	mov    %edx,%esi
    6b55:	89 c7                	mov    %eax,%edi
    6b57:	e8 b6 d6 ff ff       	callq  4212 <safe_mul_func_int8_t_s_s>
    6b5c:	0f be c0             	movsbl %al,%eax
    6b5f:	44 89 e6             	mov    %r12d,%esi
    6b62:	89 c7                	mov    %eax,%edi
    6b64:	e8 89 d6 ff ff       	callq  41f2 <safe_sub_func_int8_t_s_s>
    6b69:	0f b7 15 52 aa 00 00 	movzwl 0xaa52(%rip),%edx        # 115c2 <g_722+0x2>
    6b70:	66 98                	cbtw   
    6b72:	21 d0                	and    %edx,%eax
    6b74:	66 89 05 47 aa 00 00 	mov    %ax,0xaa47(%rip)        # 115c2 <g_722+0x2>
    6b7b:	8b 85 f8 e6 ff ff    	mov    -0x1908(%rbp),%eax
    6b81:	0f b7 c0             	movzwl %ax,%eax
    6b84:	be d1 fb 00 00       	mov    $0xfbd1,%esi
    6b89:	89 c7                	mov    %eax,%edi
    6b8b:	e8 ad e1 ff ff       	callq  4d3d <safe_mul_func_uint16_t_u_u>
    6b90:	88 85 78 e7 ff ff    	mov    %al,-0x1888(%rbp)
    6b96:	0f b6 85 78 e7 ff ff 	movzbl -0x1888(%rbp),%eax
    6b9d:	84 c0                	test   %al,%al
    6b9f:	74 07                	je     6ba8 <func_1+0x13f3>
    6ba1:	b8 01 00 00 00       	mov    $0x1,%eax
    6ba6:	eb 05                	jmp    6bad <func_1+0x13f8>
    6ba8:	b8 00 00 00 00       	mov    $0x0,%eax
    6bad:	89 c2                	mov    %eax,%edx
    6baf:	48 8b 85 08 e8 ff ff 	mov    -0x17f8(%rbp),%rax
    6bb6:	66 89 10             	mov    %dx,(%rax)
    6bb9:	48 8b 85 08 e8 ff ff 	mov    -0x17f8(%rbp),%rax
    6bc0:	0f b7 00             	movzwl (%rax),%eax
    6bc3:	98                   	cwtl   
    6bc4:	89 de                	mov    %ebx,%esi
    6bc6:	89 c7                	mov    %eax,%edi
    6bc8:	e8 5d d9 ff ff       	callq  452a <safe_rshift_func_int16_t_s_s>
    6bcd:	0f be c0             	movsbl %al,%eax
    6bd0:	be 03 00 00 00       	mov    $0x3,%esi
    6bd5:	89 c7                	mov    %eax,%edi
    6bd7:	e8 12 d7 ff ff       	callq  42ee <safe_lshift_func_int8_t_s_u>
    6bdc:	48 8b 05 e5 a3 00 00 	mov    0xa3e5(%rip),%rax        # 10fc8 <g_356>
    6be3:	0f b7 00             	movzwl (%rax),%eax
    6be6:	0f b7 d0             	movzwl %ax,%edx
    6be9:	48 8b 85 00 e8 ff ff 	mov    -0x1800(%rbp),%rax
    6bf0:	48 8b 00             	mov    (%rax),%rax
    6bf3:	48 8b 00             	mov    (%rax),%rax
    6bf6:	8b 00                	mov    (%rax),%eax
    6bf8:	39 c2                	cmp    %eax,%edx
    6bfa:	75 0f                	jne    6c0b <func_1+0x1456>
    6bfc:	48 8b 05 c5 a3 00 00 	mov    0xa3c5(%rip),%rax        # 10fc8 <g_356>
    6c03:	0f b7 00             	movzwl (%rax),%eax
    6c06:	66 85 c0             	test   %ax,%ax
    6c09:	74 07                	je     6c12 <func_1+0x145d>
    6c0b:	b8 01 00 00 00       	mov    $0x1,%eax
    6c10:	eb 05                	jmp    6c17 <func_1+0x1462>
    6c12:	b8 00 00 00 00       	mov    $0x0,%eax
    6c17:	3b 85 f8 e6 ff ff    	cmp    -0x1908(%rbp),%eax
    6c1d:	0f 94 c0             	sete   %al
    6c20:	0f b6 c0             	movzbl %al,%eax
    6c23:	48 c7 c6 fa ff ff ff 	mov    $0xfffffffffffffffa,%rsi
    6c2a:	48 89 c7             	mov    %rax,%rdi
    6c2d:	e8 19 e4 ff ff       	callq  504b <safe_sub_func_uint64_t_u_u>
    6c32:	48 85 c0             	test   %rax,%rax
    6c35:	0f 84 0b 04 00 00    	je     7046 <func_1+0x1891>
    6c3b:	c7 85 40 e7 ff ff 40 	movl   $0xd7439a40,-0x18c0(%rbp)
    6c42:	9a 43 d7 
    6c45:	c7 85 44 e7 ff ff 00 	movl   $0x0,-0x18bc(%rbp)
    6c4c:	00 00 00 
    6c4f:	48 8d 85 70 e9 ff ff 	lea    -0x1690(%rbp),%rax
    6c56:	48 83 c0 30          	add    $0x30,%rax
    6c5a:	48 89 85 88 e7 ff ff 	mov    %rax,-0x1878(%rbp)
    6c61:	48 8d 85 88 e7 ff ff 	lea    -0x1878(%rbp),%rax
    6c68:	48 89 85 90 e7 ff ff 	mov    %rax,-0x1870(%rbp)
    6c6f:	48 8d 85 90 e7 ff ff 	lea    -0x1870(%rbp),%rax
    6c76:	48 89 85 40 e8 ff ff 	mov    %rax,-0x17c0(%rbp)
    6c7d:	48 8d 85 10 ef ff ff 	lea    -0x10f0(%rbp),%rax
    6c84:	48 05 44 03 00 00    	add    $0x344,%rax
    6c8a:	48 89 85 48 e8 ff ff 	mov    %rax,-0x17b8(%rbp)
    6c91:	c7 85 fc e6 ff ff 00 	movl   $0x0,-0x1904(%rbp)
    6c98:	00 00 00 
    6c9b:	eb 1e                	jmp    6cbb <func_1+0x1506>
    6c9d:	8b 85 fc e6 ff ff    	mov    -0x1904(%rbp),%eax
    6ca3:	48 98                	cltq   
    6ca5:	48 8d 15 b4 93 00 00 	lea    0x93b4(%rip),%rdx        # 10060 <g_15>
    6cac:	48 89 94 c5 00 f9 ff 	mov    %rdx,-0x700(%rbp,%rax,8)
    6cb3:	ff 
    6cb4:	83 85 fc e6 ff ff 01 	addl   $0x1,-0x1904(%rbp)
    6cbb:	83 bd fc e6 ff ff 00 	cmpl   $0x0,-0x1904(%rbp)
    6cc2:	7e d9                	jle    6c9d <func_1+0x14e8>
    6cc4:	8b 05 d2 98 00 00    	mov    0x98d2(%rip),%eax        # 1059c <g_774>
    6cca:	85 c0                	test   %eax,%eax
    6ccc:	0f 85 b7 01 00 00    	jne    6e89 <func_1+0x16d4>
    6cd2:	0f b7 05 4b 98 00 00 	movzwl 0x984b(%rip),%eax        # 10524 <g_270+0x4>
    6cd9:	66 85 c0             	test   %ax,%ax
    6cdc:	0f 85 a7 01 00 00    	jne    6e89 <func_1+0x16d4>
    6ce2:	48 8b 85 00 e8 ff ff 	mov    -0x1800(%rbp),%rax
    6ce9:	48 8b 00             	mov    (%rax),%rax
    6cec:	48 8b 00             	mov    (%rax),%rax
    6cef:	8b 00                	mov    (%rax),%eax
    6cf1:	0f b6 d8             	movzbl %al,%ebx
    6cf4:	8b 05 66 93 00 00    	mov    0x9366(%rip),%eax        # 10060 <g_15>
    6cfa:	44 0f b7 e0          	movzwl %ax,%r12d
    6cfe:	48 8b 85 68 e7 ff ff 	mov    -0x1898(%rbp),%rax
    6d05:	44 8b 28             	mov    (%rax),%r13d
    6d08:	48 8b 85 68 e7 ff ff 	mov    -0x1898(%rbp),%rax
    6d0f:	8b 00                	mov    (%rax),%eax
    6d11:	4c 63 f0             	movslq %eax,%r14
    6d14:	48 8b 05 05 a4 00 00 	mov    0xa405(%rip),%rax        # 11120 <g_780>
    6d1b:	8b 00                	mov    (%rax),%eax
    6d1d:	89 85 dc e6 ff ff    	mov    %eax,-0x1924(%rbp)
    6d23:	8b 85 38 e7 ff ff    	mov    -0x18c8(%rbp),%eax
    6d29:	44 0f b7 f8          	movzwl %ax,%r15d
    6d2d:	83 a5 f8 e6 ff ff 03 	andl   $0x3,-0x1908(%rbp)
    6d34:	8b 85 f8 e6 ff ff    	mov    -0x1908(%rbp),%eax
    6d3a:	66 89 85 da e6 ff ff 	mov    %ax,-0x1926(%rbp)
    6d41:	8b 85 34 e7 ff ff    	mov    -0x18cc(%rbp),%eax
    6d47:	0f bf c8             	movswl %ax,%ecx
    6d4a:	89 8d d4 e6 ff ff    	mov    %ecx,-0x192c(%rbp)
    6d50:	48 8b 85 00 e8 ff ff 	mov    -0x1800(%rbp),%rax
    6d57:	48 8b 00             	mov    (%rax),%rax
    6d5a:	48 8b 00             	mov    (%rax),%rax
    6d5d:	8b 38                	mov    (%rax),%edi
    6d5f:	89 bd d0 e6 ff ff    	mov    %edi,-0x1930(%rbp)
    6d65:	8b 85 40 e7 ff ff    	mov    -0x18c0(%rbp),%eax
    6d6b:	83 c8 da             	or     $0xffffffda,%eax
    6d6e:	0f be c0             	movsbl %al,%eax
    6d71:	be 02 00 00 00       	mov    $0x2,%esi
    6d76:	89 c7                	mov    %eax,%edi
    6d78:	e8 ef d5 ff ff       	callq  436c <safe_rshift_func_int8_t_s_u>
    6d7d:	0f be c0             	movsbl %al,%eax
    6d80:	39 85 40 e7 ff ff    	cmp    %eax,-0x18c0(%rbp)
    6d86:	0f 95 c0             	setne  %al
    6d89:	0f b6 c0             	movzbl %al,%eax
    6d8c:	be ff 00 00 00       	mov    $0xff,%esi
    6d91:	89 c7                	mov    %eax,%edi
    6d93:	e8 e0 dd ff ff       	callq  4b78 <safe_sub_func_uint8_t_u_u>
    6d98:	0f b6 c0             	movzbl %al,%eax
    6d9b:	39 85 d0 e6 ff ff    	cmp    %eax,-0x1930(%rbp)
    6da1:	0f 9e c0             	setle  %al
    6da4:	0f b6 c0             	movzbl %al,%eax
    6da7:	ba 78 3a 00 00       	mov    $0x3a78,%edx
    6dac:	31 d0                	xor    %edx,%eax
    6dae:	f7 d0                	not    %eax
    6db0:	98                   	cwtl   
    6db1:	8b b5 d4 e6 ff ff    	mov    -0x192c(%rbp),%esi
    6db7:	89 c7                	mov    %eax,%edi
    6db9:	e8 15 d6 ff ff       	callq  43d3 <safe_sub_func_int16_t_s_s>
    6dbe:	0f b7 d0             	movzwl %ax,%edx
    6dc1:	48 8b 05 00 a2 00 00 	mov    0xa200(%rip),%rax        # 10fc8 <g_356>
    6dc8:	0f b7 00             	movzwl (%rax),%eax
    6dcb:	0f b7 c0             	movzwl %ax,%eax
    6dce:	89 d6                	mov    %edx,%esi
    6dd0:	89 c7                	mov    %eax,%edi
    6dd2:	e8 b7 df ff ff       	callq  4d8e <safe_div_func_uint16_t_u_u>
    6dd7:	66 23 85 da e6 ff ff 	and    -0x1926(%rbp),%ax
    6dde:	0f b7 c0             	movzwl %ax,%eax
    6de1:	44 89 fe             	mov    %r15d,%esi
    6de4:	89 c7                	mov    %eax,%edi
    6de6:	e8 34 df ff ff       	callq  4d1f <safe_sub_func_uint16_t_u_u>
    6deb:	89 c2                	mov    %eax,%edx
    6ded:	48 8b 85 08 e8 ff ff 	mov    -0x17f8(%rbp),%rax
    6df4:	66 89 10             	mov    %dx,(%rax)
    6df7:	48 8b 85 08 e8 ff ff 	mov    -0x17f8(%rbp),%rax
    6dfe:	0f b7 00             	movzwl (%rax),%eax
    6e01:	98                   	cwtl   
    6e02:	be 0b 00 00 00       	mov    $0xb,%esi
    6e07:	89 c7                	mov    %eax,%edi
    6e09:	e8 1c d7 ff ff       	callq  452a <safe_rshift_func_int16_t_s_s>
    6e0e:	48 0f bf d0          	movswq %ax,%rdx
    6e12:	0f b7 05 8f a7 00 00 	movzwl 0xa78f(%rip),%eax        # 115a8 <g_76>
    6e19:	0f b7 c0             	movzwl %ax,%eax
    6e1c:	48 89 d6             	mov    %rdx,%rsi
    6e1f:	48 89 c7             	mov    %rax,%rdi
    6e22:	e8 24 e2 ff ff       	callq  504b <safe_sub_func_uint64_t_u_u>
    6e27:	8b b5 dc e6 ff ff    	mov    -0x1924(%rbp),%esi
    6e2d:	89 c7                	mov    %eax,%edi
    6e2f:	e8 f1 e0 ff ff       	callq  4f25 <safe_div_func_uint32_t_u_u>
    6e34:	89 c0                	mov    %eax,%eax
    6e36:	4c 89 f6             	mov    %r14,%rsi
    6e39:	48 89 c7             	mov    %rax,%rdi
    6e3c:	e8 00 da ff ff       	callq  4841 <safe_add_func_int64_t_s_s>
    6e41:	44 89 ee             	mov    %r13d,%esi
    6e44:	89 c7                	mov    %eax,%edi
    6e46:	e8 6b d7 ff ff       	callq  45b6 <safe_add_func_int32_t_s_s>
    6e4b:	0f b7 95 80 e7 ff ff 	movzwl -0x1880(%rbp),%edx
    6e52:	0f b7 d2             	movzwl %dx,%edx
    6e55:	21 d0                	and    %edx,%eax
    6e57:	89 c2                	mov    %eax,%edx
    6e59:	0f b7 85 80 e7 ff ff 	movzwl -0x1880(%rbp),%eax
    6e60:	0f be c0             	movsbl %al,%eax
    6e63:	89 d6                	mov    %edx,%esi
    6e65:	89 c7                	mov    %eax,%edi
    6e67:	e8 00 d5 ff ff       	callq  436c <safe_rshift_func_int8_t_s_u>
    6e6c:	66 98                	cbtw   
    6e6e:	0f b7 c0             	movzwl %ax,%eax
    6e71:	44 89 e6             	mov    %r12d,%esi
    6e74:	89 c7                	mov    %eax,%edi
    6e76:	e8 c2 de ff ff       	callq  4d3d <safe_mul_func_uint16_t_u_u>
    6e7b:	0f b6 c0             	movzbl %al,%eax
    6e7e:	89 de                	mov    %ebx,%esi
    6e80:	89 c7                	mov    %eax,%edi
    6e82:	e8 0c dd ff ff       	callq  4b93 <safe_mul_func_uint8_t_u_u>
    6e87:	84 c0                	test   %al,%al
    6e89:	90                   	nop
    6e8a:	48 8b 05 17 a1 00 00 	mov    0xa117(%rip),%rax        # 10fa8 <g_189>
    6e91:	c7 00 01 00 00 00    	movl   $0x1,(%rax)
    6e97:	8b 00                	mov    (%rax),%eax
    6e99:	89 85 44 e7 ff ff    	mov    %eax,-0x18bc(%rbp)
    6e9f:	83 bd 44 e7 ff ff 00 	cmpl   $0x0,-0x18bc(%rbp)
    6ea6:	0f 85 7c 01 00 00    	jne    7028 <func_1+0x1873>
    6eac:	83 bd 34 e7 ff ff 00 	cmpl   $0x0,-0x18cc(%rbp)
    6eb3:	0f 85 b3 00 00 00    	jne    6f6c <func_1+0x17b7>
    6eb9:	48 8b 85 00 e8 ff ff 	mov    -0x1800(%rbp),%rax
    6ec0:	48 8b 00             	mov    (%rax),%rax
    6ec3:	48 8b 00             	mov    (%rax),%rax
    6ec6:	8b 00                	mov    (%rax),%eax
    6ec8:	0f be d8             	movsbl %al,%ebx
    6ecb:	48 83 bd 40 e8 ff ff 	cmpq   $0x0,-0x17c0(%rbp)
    6ed2:	00 
    6ed3:	0f 95 c0             	setne  %al
    6ed6:	0f b6 c0             	movzbl %al,%eax
    6ed9:	be 0d 67 00 00       	mov    $0x670d,%esi
    6ede:	89 c7                	mov    %eax,%edi
    6ee0:	e8 70 d5 ff ff       	callq  4455 <safe_div_func_int16_t_s_s>
    6ee5:	48 0f bf c0          	movswq %ax,%rax
    6ee9:	83 e0 06             	and    $0x6,%eax
    6eec:	48 83 f8 01          	cmp    $0x1,%rax
    6ef0:	0f 95 c0             	setne  %al
    6ef3:	0f b6 d0             	movzbl %al,%edx
    6ef6:	48 8d 05 b3 a0 00 00 	lea    0xa0b3(%rip),%rax        # 10fb0 <g_280>
    6efd:	48 8b 00             	mov    (%rax),%rax
    6f00:	48 8b 00             	mov    (%rax),%rax
    6f03:	48 21 c2             	and    %rax,%rdx
    6f06:	48 8b 05 bb a0 00 00 	mov    0xa0bb(%rip),%rax        # 10fc8 <g_356>
    6f0d:	0f b7 00             	movzwl (%rax),%eax
    6f10:	0f b7 c0             	movzwl %ax,%eax
    6f13:	48 39 c2             	cmp    %rax,%rdx
    6f16:	0f 9e c0             	setle  %al
    6f19:	0f b6 c0             	movzbl %al,%eax
    6f1c:	be 03 00 00 00       	mov    $0x3,%esi
    6f21:	89 c7                	mov    %eax,%edi
    6f23:	e8 ee d4 ff ff       	callq  4416 <safe_mod_func_int16_t_s_s>
    6f28:	48 8b 85 00 e8 ff ff 	mov    -0x1800(%rbp),%rax
    6f2f:	48 8b 00             	mov    (%rax),%rax
    6f32:	48 8b 00             	mov    (%rax),%rax
    6f35:	8b 00                	mov    (%rax),%eax
    6f37:	0f be c0             	movsbl %al,%eax
    6f3a:	89 de                	mov    %ebx,%esi
    6f3c:	89 c7                	mov    %eax,%edi
    6f3e:	e8 91 d2 ff ff       	callq  41d4 <safe_add_func_int8_t_s_s>
    6f43:	0f be d0             	movsbl %al,%edx
    6f46:	48 8b 85 00 e8 ff ff 	mov    -0x1800(%rbp),%rax
    6f4d:	48 8b 00             	mov    (%rax),%rax
    6f50:	48 8b 00             	mov    (%rax),%rax
    6f53:	8b 00                	mov    (%rax),%eax
    6f55:	39 c2                	cmp    %eax,%edx
    6f57:	0f 9d c2             	setge  %dl
    6f5a:	48 8b 05 47 a0 00 00 	mov    0xa047(%rip),%rax        # 10fa8 <g_189>
    6f61:	0f b6 d2             	movzbl %dl,%edx
    6f64:	89 10                	mov    %edx,(%rax)
    6f66:	8b 00                	mov    (%rax),%eax
    6f68:	85 c0                	test   %eax,%eax
    6f6a:	74 07                	je     6f73 <func_1+0x17be>
    6f6c:	b8 01 00 00 00       	mov    $0x1,%eax
    6f71:	eb 05                	jmp    6f78 <func_1+0x17c3>
    6f73:	b8 00 00 00 00       	mov    $0x0,%eax
    6f78:	3b 85 40 e7 ff ff    	cmp    -0x18c0(%rbp),%eax
    6f7e:	0f 9f c0             	setg   %al
    6f81:	0f b6 d0             	movzbl %al,%edx
    6f84:	48 8b 85 48 e8 ff ff 	mov    -0x17b8(%rbp),%rax
    6f8b:	8b 00                	mov    (%rax),%eax
    6f8d:	21 c2                	and    %eax,%edx
    6f8f:	48 8b 85 48 e8 ff ff 	mov    -0x17b8(%rbp),%rax
    6f96:	89 10                	mov    %edx,(%rax)
    6f98:	48 8b 85 48 e8 ff ff 	mov    -0x17b8(%rbp),%rax
    6f9f:	8b 10                	mov    (%rax),%edx
    6fa1:	8b 05 b9 90 00 00    	mov    0x90b9(%rip),%eax        # 10060 <g_15>
    6fa7:	09 d0                	or     %edx,%eax
    6fa9:	89 05 b1 90 00 00    	mov    %eax,0x90b1(%rip)        # 10060 <g_15>
    6faf:	8b 05 ab 90 00 00    	mov    0x90ab(%rip),%eax        # 10060 <g_15>
    6fb5:	3d fc 6c 49 40       	cmp    $0x40496cfc,%eax
    6fba:	0f 95 c2             	setne  %dl
    6fbd:	48 8b 85 40 e8 ff ff 	mov    -0x17c0(%rbp),%rax
    6fc4:	48 8b 00             	mov    (%rax),%rax
    6fc7:	48 8b 00             	mov    (%rax),%rax
    6fca:	48 8b 00             	mov    (%rax),%rax
    6fcd:	0f b6 d2             	movzbl %dl,%edx
    6fd0:	48 89 10             	mov    %rdx,(%rax)
    6fd3:	48 8b 00             	mov    (%rax),%rax
    6fd6:	48 89 c7             	mov    %rax,%rdi
    6fd9:	e8 38 d8 ff ff       	callq  4816 <safe_unary_minus_func_int64_t_s>
    6fde:	48 8b 05 db 9f 00 00 	mov    0x9fdb(%rip),%rax        # 10fc0 <g_277>
    6fe5:	48 8b 00             	mov    (%rax),%rax
    6fe8:	48 85 c0             	test   %rax,%rax
    6feb:	0f 94 c0             	sete   %al
    6fee:	0f b6 c0             	movzbl %al,%eax
    6ff1:	48 be 00 a1 b3 9c e1 	movabs $0xd6b8d8e19cb3a100,%rsi
    6ff8:	d8 b8 d6 
    6ffb:	48 89 c7             	mov    %rax,%rdi
    6ffe:	e8 48 e0 ff ff       	callq  504b <safe_sub_func_uint64_t_u_u>
    7003:	0f b7 c0             	movzwl %ax,%eax
    7006:	be ff ff 00 00       	mov    $0xffff,%esi
    700b:	89 c7                	mov    %eax,%edi
    700d:	e8 7c dd ff ff       	callq  4d8e <safe_div_func_uint16_t_u_u>
    7012:	0f be c0             	movsbl %al,%eax
    7015:	be 07 00 00 00       	mov    $0x7,%esi
    701a:	89 c7                	mov    %eax,%edi
    701c:	e8 4b d3 ff ff       	callq  436c <safe_rshift_func_int8_t_s_u>
    7021:	b8 00 00 00 00       	mov    $0x0,%eax
    7026:	eb 05                	jmp    702d <func_1+0x1878>
    7028:	b8 01 00 00 00       	mov    $0x1,%eax
    702d:	09 85 f4 e6 ff ff    	or     %eax,-0x190c(%rbp)
    7033:	48 8b 05 ee 9f 00 00 	mov    0x9fee(%rip),%rax        # 11028 <g_627>
    703a:	48 c7 00 00 00 00 00 	movq   $0x0,(%rax)
    7041:	e9 d1 0c 00 00       	jmpq   7d17 <func_1+0x2562>
    7046:	48 8d 05 19 95 00 00 	lea    0x9519(%rip),%rax        # 10566 <g_483+0x6>
    704d:	48 89 85 30 e8 ff ff 	mov    %rax,-0x17d0(%rbp)
    7054:	48 8d 05 3d 90 00 00 	lea    0x903d(%rip),%rax        # 10098 <g_130>
    705b:	48 89 85 38 e8 ff ff 	mov    %rax,-0x17c8(%rbp)
    7062:	48 8d 85 e0 ec ff ff 	lea    -0x1320(%rbp),%rax
    7069:	48 8d 15 f0 54 00 00 	lea    0x54f0(%rip),%rdx        # c560 <g_909+0x4e8>
    7070:	b9 46 00 00 00       	mov    $0x46,%ecx
    7075:	48 89 c7             	mov    %rax,%rdi
    7078:	48 89 d6             	mov    %rdx,%rsi
    707b:	f3 48 a5             	rep movsq %ds:(%rsi),%es:(%rdi)
    707e:	48 8d 05 a1 94 00 00 	lea    0x94a1(%rip),%rax        # 10526 <g_270+0x6>
    7085:	48 89 85 00 f9 ff ff 	mov    %rax,-0x700(%rbp)
    708c:	48 8d 05 93 94 00 00 	lea    0x9493(%rip),%rax        # 10526 <g_270+0x6>
    7093:	48 89 85 08 f9 ff ff 	mov    %rax,-0x6f8(%rbp)
    709a:	48 8d 05 2f 90 00 00 	lea    0x902f(%rip),%rax        # 100d0 <g_140>
    70a1:	48 89 85 10 f9 ff ff 	mov    %rax,-0x6f0(%rbp)
    70a8:	48 c7 85 18 f9 ff ff 	movq   $0x0,-0x6e8(%rbp)
    70af:	00 00 00 00 
    70b3:	48 8d 05 16 90 00 00 	lea    0x9016(%rip),%rax        # 100d0 <g_140>
    70ba:	48 89 85 20 f9 ff ff 	mov    %rax,-0x6e0(%rbp)
    70c1:	48 8d 85 e1 e6 ff ff 	lea    -0x191f(%rbp),%rax
    70c8:	48 89 85 28 f9 ff ff 	mov    %rax,-0x6d8(%rbp)
    70cf:	48 8d 85 e1 e6 ff ff 	lea    -0x191f(%rbp),%rax
    70d6:	48 89 85 30 f9 ff ff 	mov    %rax,-0x6d0(%rbp)
    70dd:	48 8d 05 ec 8f 00 00 	lea    0x8fec(%rip),%rax        # 100d0 <g_140>
    70e4:	48 89 85 38 f9 ff ff 	mov    %rax,-0x6c8(%rbp)
    70eb:	48 8d 05 de 8f 00 00 	lea    0x8fde(%rip),%rax        # 100d0 <g_140>
    70f2:	48 89 85 40 f9 ff ff 	mov    %rax,-0x6c0(%rbp)
    70f9:	48 8d 05 72 94 00 00 	lea    0x9472(%rip),%rax        # 10572 <g_622+0x6>
    7100:	48 89 85 48 f9 ff ff 	mov    %rax,-0x6b8(%rbp)
    7107:	48 8d 05 6b 94 00 00 	lea    0x946b(%rip),%rax        # 10579 <g_624+0x6>
    710e:	48 89 85 50 f9 ff ff 	mov    %rax,-0x6b0(%rbp)
    7115:	48 8d 05 b4 8f 00 00 	lea    0x8fb4(%rip),%rax        # 100d0 <g_140>
    711c:	48 89 85 58 f9 ff ff 	mov    %rax,-0x6a8(%rbp)
    7123:	48 8d 05 fc 93 00 00 	lea    0x93fc(%rip),%rax        # 10526 <g_270+0x6>
    712a:	48 89 85 60 f9 ff ff 	mov    %rax,-0x6a0(%rbp)
    7131:	48 8d 85 e1 e6 ff ff 	lea    -0x191f(%rbp),%rax
    7138:	48 89 85 68 f9 ff ff 	mov    %rax,-0x698(%rbp)
    713f:	48 8d 85 e1 e6 ff ff 	lea    -0x191f(%rbp),%rax
    7146:	48 89 85 70 f9 ff ff 	mov    %rax,-0x690(%rbp)
    714d:	48 c7 85 78 f9 ff ff 	movq   $0x0,-0x688(%rbp)
    7154:	00 00 00 00 
    7158:	48 8d 05 1a 94 00 00 	lea    0x941a(%rip),%rax        # 10579 <g_624+0x6>
    715f:	48 89 85 80 f9 ff ff 	mov    %rax,-0x680(%rbp)
    7166:	48 8d 05 b9 93 00 00 	lea    0x93b9(%rip),%rax        # 10526 <g_270+0x6>
    716d:	48 89 85 88 f9 ff ff 	mov    %rax,-0x678(%rbp)
    7174:	48 8d 05 55 8f 00 00 	lea    0x8f55(%rip),%rax        # 100d0 <g_140>
    717b:	48 89 85 90 f9 ff ff 	mov    %rax,-0x670(%rbp)
    7182:	48 8d 85 e1 e6 ff ff 	lea    -0x191f(%rbp),%rax
    7189:	48 89 85 98 f9 ff ff 	mov    %rax,-0x668(%rbp)
    7190:	48 8d 05 db 93 00 00 	lea    0x93db(%rip),%rax        # 10572 <g_622+0x6>
    7197:	48 89 85 a0 f9 ff ff 	mov    %rax,-0x660(%rbp)
    719e:	48 8d 05 d4 93 00 00 	lea    0x93d4(%rip),%rax        # 10579 <g_624+0x6>
    71a5:	48 89 85 a8 f9 ff ff 	mov    %rax,-0x658(%rbp)
    71ac:	48 8d 85 78 e7 ff ff 	lea    -0x1888(%rbp),%rax
    71b3:	48 89 85 b0 f9 ff ff 	mov    %rax,-0x650(%rbp)
    71ba:	48 8d 05 b8 93 00 00 	lea    0x93b8(%rip),%rax        # 10579 <g_624+0x6>
    71c1:	48 89 85 b8 f9 ff ff 	mov    %rax,-0x648(%rbp)
    71c8:	48 8d 05 01 8f 00 00 	lea    0x8f01(%rip),%rax        # 100d0 <g_140>
    71cf:	48 89 85 c0 f9 ff ff 	mov    %rax,-0x640(%rbp)
    71d6:	48 c7 85 c8 f9 ff ff 	movq   $0x0,-0x638(%rbp)
    71dd:	00 00 00 00 
    71e1:	48 c7 85 d0 f9 ff ff 	movq   $0x0,-0x630(%rbp)
    71e8:	00 00 00 00 
    71ec:	48 8d 05 dd 8e 00 00 	lea    0x8edd(%rip),%rax        # 100d0 <g_140>
    71f3:	48 89 85 d8 f9 ff ff 	mov    %rax,-0x628(%rbp)
    71fa:	48 8d 85 78 e7 ff ff 	lea    -0x1888(%rbp),%rax
    7201:	48 89 85 e0 f9 ff ff 	mov    %rax,-0x620(%rbp)
    7208:	48 8d 05 63 93 00 00 	lea    0x9363(%rip),%rax        # 10572 <g_622+0x6>
    720f:	48 89 85 e8 f9 ff ff 	mov    %rax,-0x618(%rbp)
    7216:	48 8d 05 09 93 00 00 	lea    0x9309(%rip),%rax        # 10526 <g_270+0x6>
    721d:	48 89 85 f0 f9 ff ff 	mov    %rax,-0x610(%rbp)
    7224:	48 c7 85 f8 f9 ff ff 	movq   $0x0,-0x608(%rbp)
    722b:	00 00 00 00 
    722f:	48 c7 85 00 fa ff ff 	movq   $0x0,-0x600(%rbp)
    7236:	00 00 00 00 
    723a:	48 8d 05 8f 8e 00 00 	lea    0x8e8f(%rip),%rax        # 100d0 <g_140>
    7241:	48 89 85 08 fa ff ff 	mov    %rax,-0x5f8(%rbp)
    7248:	48 8d 05 81 8e 00 00 	lea    0x8e81(%rip),%rax        # 100d0 <g_140>
    724f:	48 89 85 10 fa ff ff 	mov    %rax,-0x5f0(%rbp)
    7256:	48 8d 05 1c 93 00 00 	lea    0x931c(%rip),%rax        # 10579 <g_624+0x6>
    725d:	48 89 85 18 fa ff ff 	mov    %rax,-0x5e8(%rbp)
    7264:	48 c7 85 20 fa ff ff 	movq   $0x0,-0x5e0(%rbp)
    726b:	00 00 00 00 
    726f:	48 8d 05 b0 92 00 00 	lea    0x92b0(%rip),%rax        # 10526 <g_270+0x6>
    7276:	48 89 85 28 fa ff ff 	mov    %rax,-0x5d8(%rbp)
    727d:	48 8d 05 ee 92 00 00 	lea    0x92ee(%rip),%rax        # 10572 <g_622+0x6>
    7284:	48 89 85 30 fa ff ff 	mov    %rax,-0x5d0(%rbp)
    728b:	48 8d 05 3e 8e 00 00 	lea    0x8e3e(%rip),%rax        # 100d0 <g_140>
    7292:	48 89 85 38 fa ff ff 	mov    %rax,-0x5c8(%rbp)
    7299:	48 8d 05 d9 92 00 00 	lea    0x92d9(%rip),%rax        # 10579 <g_624+0x6>
    72a0:	48 89 85 40 fa ff ff 	mov    %rax,-0x5c0(%rbp)
    72a7:	48 8d 05 cb 92 00 00 	lea    0x92cb(%rip),%rax        # 10579 <g_624+0x6>
    72ae:	48 89 85 48 fa ff ff 	mov    %rax,-0x5b8(%rbp)
    72b5:	48 8d 85 e1 e6 ff ff 	lea    -0x191f(%rbp),%rax
    72bc:	48 89 85 50 fa ff ff 	mov    %rax,-0x5b0(%rbp)
    72c3:	48 8d 85 e1 e6 ff ff 	lea    -0x191f(%rbp),%rax
    72ca:	48 89 85 58 fa ff ff 	mov    %rax,-0x5a8(%rbp)
    72d1:	48 8d 85 e1 e6 ff ff 	lea    -0x191f(%rbp),%rax
    72d8:	48 89 85 60 fa ff ff 	mov    %rax,-0x5a0(%rbp)
    72df:	48 8d 05 8c 92 00 00 	lea    0x928c(%rip),%rax        # 10572 <g_622+0x6>
    72e6:	48 89 85 68 fa ff ff 	mov    %rax,-0x598(%rbp)
    72ed:	48 8d 85 e1 e6 ff ff 	lea    -0x191f(%rbp),%rax
    72f4:	48 89 85 70 fa ff ff 	mov    %rax,-0x590(%rbp)
    72fb:	48 8d 85 e1 e6 ff ff 	lea    -0x191f(%rbp),%rax
    7302:	48 89 85 78 fa ff ff 	mov    %rax,-0x588(%rbp)
    7309:	48 8d 05 c0 8d 00 00 	lea    0x8dc0(%rip),%rax        # 100d0 <g_140>
    7310:	48 89 85 80 fa ff ff 	mov    %rax,-0x580(%rbp)
    7317:	48 8d 05 b2 8d 00 00 	lea    0x8db2(%rip),%rax        # 100d0 <g_140>
    731e:	48 89 85 88 fa ff ff 	mov    %rax,-0x578(%rbp)
    7325:	48 8d 85 e1 e6 ff ff 	lea    -0x191f(%rbp),%rax
    732c:	48 89 85 90 fa ff ff 	mov    %rax,-0x570(%rbp)
    7333:	48 8d 85 e1 e6 ff ff 	lea    -0x191f(%rbp),%rax
    733a:	48 89 85 98 fa ff ff 	mov    %rax,-0x568(%rbp)
    7341:	48 8d 85 e1 e6 ff ff 	lea    -0x191f(%rbp),%rax
    7348:	48 89 85 a0 fa ff ff 	mov    %rax,-0x560(%rbp)
    734f:	48 8d 85 78 e7 ff ff 	lea    -0x1888(%rbp),%rax
    7356:	48 89 85 a8 fa ff ff 	mov    %rax,-0x558(%rbp)
    735d:	48 8d 05 6c 8d 00 00 	lea    0x8d6c(%rip),%rax        # 100d0 <g_140>
    7364:	48 89 85 b0 fa ff ff 	mov    %rax,-0x550(%rbp)
    736b:	48 8d 05 00 92 00 00 	lea    0x9200(%rip),%rax        # 10572 <g_622+0x6>
    7372:	48 89 85 b8 fa ff ff 	mov    %rax,-0x548(%rbp)
    7379:	48 8d 85 78 e7 ff ff 	lea    -0x1888(%rbp),%rax
    7380:	48 89 85 c0 fa ff ff 	mov    %rax,-0x540(%rbp)
    7387:	48 8d 85 e1 e6 ff ff 	lea    -0x191f(%rbp),%rax
    738e:	48 89 85 c8 fa ff ff 	mov    %rax,-0x538(%rbp)
    7395:	48 8d 05 dd 91 00 00 	lea    0x91dd(%rip),%rax        # 10579 <g_624+0x6>
    739c:	48 89 85 d0 fa ff ff 	mov    %rax,-0x530(%rbp)
    73a3:	48 8d 05 26 8d 00 00 	lea    0x8d26(%rip),%rax        # 100d0 <g_140>
    73aa:	48 89 85 d8 fa ff ff 	mov    %rax,-0x528(%rbp)
    73b1:	48 c7 85 e0 fa ff ff 	movq   $0x0,-0x520(%rbp)
    73b8:	00 00 00 00 
    73bc:	48 8d 85 e1 e6 ff ff 	lea    -0x191f(%rbp),%rax
    73c3:	48 89 85 e8 fa ff ff 	mov    %rax,-0x518(%rbp)
    73ca:	48 c7 85 f0 fa ff ff 	movq   $0x0,-0x510(%rbp)
    73d1:	00 00 00 00 
    73d5:	48 8d 05 96 91 00 00 	lea    0x9196(%rip),%rax        # 10572 <g_622+0x6>
    73dc:	48 89 85 f8 fa ff ff 	mov    %rax,-0x508(%rbp)
    73e3:	48 8d 85 e1 e6 ff ff 	lea    -0x191f(%rbp),%rax
    73ea:	48 89 85 00 fb ff ff 	mov    %rax,-0x500(%rbp)
    73f1:	48 8d 85 78 e7 ff ff 	lea    -0x1888(%rbp),%rax
    73f8:	48 89 85 08 fb ff ff 	mov    %rax,-0x4f8(%rbp)
    73ff:	48 8d 05 ca 8c 00 00 	lea    0x8cca(%rip),%rax        # 100d0 <g_140>
    7406:	48 89 85 10 fb ff ff 	mov    %rax,-0x4f0(%rbp)
    740d:	48 8d 85 e1 e6 ff ff 	lea    -0x191f(%rbp),%rax
    7414:	48 89 85 18 fb ff ff 	mov    %rax,-0x4e8(%rbp)
    741b:	48 8d 05 04 91 00 00 	lea    0x9104(%rip),%rax        # 10526 <g_270+0x6>
    7422:	48 89 85 20 fb ff ff 	mov    %rax,-0x4e0(%rbp)
    7429:	48 8d 05 a0 8c 00 00 	lea    0x8ca0(%rip),%rax        # 100d0 <g_140>
    7430:	48 89 85 28 fb ff ff 	mov    %rax,-0x4d8(%rbp)
    7437:	48 8d 85 e1 e6 ff ff 	lea    -0x191f(%rbp),%rax
    743e:	48 89 85 30 fb ff ff 	mov    %rax,-0x4d0(%rbp)
    7445:	48 8d 85 e1 e6 ff ff 	lea    -0x191f(%rbp),%rax
    744c:	48 89 85 38 fb ff ff 	mov    %rax,-0x4c8(%rbp)
    7453:	48 8d 05 76 8c 00 00 	lea    0x8c76(%rip),%rax        # 100d0 <g_140>
    745a:	48 89 85 40 fb ff ff 	mov    %rax,-0x4c0(%rbp)
    7461:	48 8d 05 0a 91 00 00 	lea    0x910a(%rip),%rax        # 10572 <g_622+0x6>
    7468:	48 89 85 48 fb ff ff 	mov    %rax,-0x4b8(%rbp)
    746f:	48 8d 05 5a 8c 00 00 	lea    0x8c5a(%rip),%rax        # 100d0 <g_140>
    7476:	48 89 85 50 fb ff ff 	mov    %rax,-0x4b0(%rbp)
    747d:	48 8d 85 e1 e6 ff ff 	lea    -0x191f(%rbp),%rax
    7484:	48 89 85 58 fb ff ff 	mov    %rax,-0x4a8(%rbp)
    748b:	48 8d 05 3e 8c 00 00 	lea    0x8c3e(%rip),%rax        # 100d0 <g_140>
    7492:	48 89 85 60 fb ff ff 	mov    %rax,-0x4a0(%rbp)
    7499:	48 8d 05 d9 90 00 00 	lea    0x90d9(%rip),%rax        # 10579 <g_624+0x6>
    74a0:	48 89 85 68 fb ff ff 	mov    %rax,-0x498(%rbp)
    74a7:	48 8d 05 78 90 00 00 	lea    0x9078(%rip),%rax        # 10526 <g_270+0x6>
    74ae:	48 89 85 70 fb ff ff 	mov    %rax,-0x490(%rbp)
    74b5:	48 8d 05 14 8c 00 00 	lea    0x8c14(%rip),%rax        # 100d0 <g_140>
    74bc:	48 89 85 78 fb ff ff 	mov    %rax,-0x488(%rbp)
    74c3:	48 8d 05 af 90 00 00 	lea    0x90af(%rip),%rax        # 10579 <g_624+0x6>
    74ca:	48 89 85 80 fb ff ff 	mov    %rax,-0x480(%rbp)
    74d1:	48 8d 05 4e 90 00 00 	lea    0x904e(%rip),%rax        # 10526 <g_270+0x6>
    74d8:	48 89 85 88 fb ff ff 	mov    %rax,-0x478(%rbp)
    74df:	48 c7 85 90 fb ff ff 	movq   $0x0,-0x470(%rbp)
    74e6:	00 00 00 00 
    74ea:	48 8d 05 88 90 00 00 	lea    0x9088(%rip),%rax        # 10579 <g_624+0x6>
    74f1:	48 89 85 98 fb ff ff 	mov    %rax,-0x468(%rbp)
    74f8:	48 8d 85 e1 e6 ff ff 	lea    -0x191f(%rbp),%rax
    74ff:	48 89 85 a0 fb ff ff 	mov    %rax,-0x460(%rbp)
    7506:	48 8d 05 c3 8b 00 00 	lea    0x8bc3(%rip),%rax        # 100d0 <g_140>
    750d:	48 89 85 a8 fb ff ff 	mov    %rax,-0x458(%rbp)
    7514:	48 c7 85 b0 fb ff ff 	movq   $0x0,-0x450(%rbp)
    751b:	00 00 00 00 
    751f:	48 c7 85 b8 fb ff ff 	movq   $0x0,-0x448(%rbp)
    7526:	00 00 00 00 
    752a:	48 8d 05 48 90 00 00 	lea    0x9048(%rip),%rax        # 10579 <g_624+0x6>
    7531:	48 89 85 c0 fb ff ff 	mov    %rax,-0x440(%rbp)
    7538:	48 8d 05 91 8b 00 00 	lea    0x8b91(%rip),%rax        # 100d0 <g_140>
    753f:	48 89 85 c8 fb ff ff 	mov    %rax,-0x438(%rbp)
    7546:	48 8d 05 d9 8f 00 00 	lea    0x8fd9(%rip),%rax        # 10526 <g_270+0x6>
    754d:	48 89 85 d0 fb ff ff 	mov    %rax,-0x430(%rbp)
    7554:	48 8d 05 75 8b 00 00 	lea    0x8b75(%rip),%rax        # 100d0 <g_140>
    755b:	48 89 85 d8 fb ff ff 	mov    %rax,-0x428(%rbp)
    7562:	48 8d 05 67 8b 00 00 	lea    0x8b67(%rip),%rax        # 100d0 <g_140>
    7569:	48 89 85 e0 fb ff ff 	mov    %rax,-0x420(%rbp)
    7570:	48 8d 05 af 8f 00 00 	lea    0x8faf(%rip),%rax        # 10526 <g_270+0x6>
    7577:	48 89 85 e8 fb ff ff 	mov    %rax,-0x418(%rbp)
    757e:	48 8d 05 4b 8b 00 00 	lea    0x8b4b(%rip),%rax        # 100d0 <g_140>
    7585:	48 89 85 f0 fb ff ff 	mov    %rax,-0x410(%rbp)
    758c:	48 8d 85 e1 e6 ff ff 	lea    -0x191f(%rbp),%rax
    7593:	48 89 85 f8 fb ff ff 	mov    %rax,-0x408(%rbp)
    759a:	48 8d 05 2f 8b 00 00 	lea    0x8b2f(%rip),%rax        # 100d0 <g_140>
    75a1:	48 89 85 00 fc ff ff 	mov    %rax,-0x400(%rbp)
    75a8:	48 8d 85 e1 e6 ff ff 	lea    -0x191f(%rbp),%rax
    75af:	48 89 85 08 fc ff ff 	mov    %rax,-0x3f8(%rbp)
    75b6:	48 8d 85 e1 e6 ff ff 	lea    -0x191f(%rbp),%rax
    75bd:	48 89 85 10 fc ff ff 	mov    %rax,-0x3f0(%rbp)
    75c4:	48 8d 05 05 8b 00 00 	lea    0x8b05(%rip),%rax        # 100d0 <g_140>
    75cb:	48 89 85 18 fc ff ff 	mov    %rax,-0x3e8(%rbp)
    75d2:	48 8d 05 4d 8f 00 00 	lea    0x8f4d(%rip),%rax        # 10526 <g_270+0x6>
    75d9:	48 89 85 20 fc ff ff 	mov    %rax,-0x3e0(%rbp)
    75e0:	48 8d 05 8b 8f 00 00 	lea    0x8f8b(%rip),%rax        # 10572 <g_622+0x6>
    75e7:	48 89 85 28 fc ff ff 	mov    %rax,-0x3d8(%rbp)
    75ee:	48 8d 05 db 8a 00 00 	lea    0x8adb(%rip),%rax        # 100d0 <g_140>
    75f5:	48 89 85 30 fc ff ff 	mov    %rax,-0x3d0(%rbp)
    75fc:	48 8d 05 23 8f 00 00 	lea    0x8f23(%rip),%rax        # 10526 <g_270+0x6>
    7603:	48 89 85 38 fc ff ff 	mov    %rax,-0x3c8(%rbp)
    760a:	48 8d 85 e1 e6 ff ff 	lea    -0x191f(%rbp),%rax
    7611:	48 89 85 40 fc ff ff 	mov    %rax,-0x3c0(%rbp)
    7618:	48 8d 05 07 8f 00 00 	lea    0x8f07(%rip),%rax        # 10526 <g_270+0x6>
    761f:	48 89 85 48 fc ff ff 	mov    %rax,-0x3b8(%rbp)
    7626:	48 c7 85 50 fc ff ff 	movq   $0x0,-0x3b0(%rbp)
    762d:	00 00 00 00 
    7631:	48 c7 85 58 fc ff ff 	movq   $0x0,-0x3a8(%rbp)
    7638:	00 00 00 00 
    763c:	48 c7 85 60 fc ff ff 	movq   $0x0,-0x3a0(%rbp)
    7643:	00 00 00 00 
    7647:	48 8d 05 82 8a 00 00 	lea    0x8a82(%rip),%rax        # 100d0 <g_140>
    764e:	48 89 85 68 fc ff ff 	mov    %rax,-0x398(%rbp)
    7655:	48 8d 05 1d 8f 00 00 	lea    0x8f1d(%rip),%rax        # 10579 <g_624+0x6>
    765c:	48 89 85 70 fc ff ff 	mov    %rax,-0x390(%rbp)
    7663:	48 c7 85 78 fc ff ff 	movq   $0x0,-0x388(%rbp)
    766a:	00 00 00 00 
    766e:	48 8d 85 78 e7 ff ff 	lea    -0x1888(%rbp),%rax
    7675:	48 89 85 80 fc ff ff 	mov    %rax,-0x380(%rbp)
    767c:	48 8d 05 a3 8e 00 00 	lea    0x8ea3(%rip),%rax        # 10526 <g_270+0x6>
    7683:	48 89 85 88 fc ff ff 	mov    %rax,-0x378(%rbp)
    768a:	48 8d 05 3f 8a 00 00 	lea    0x8a3f(%rip),%rax        # 100d0 <g_140>
    7691:	48 89 85 90 fc ff ff 	mov    %rax,-0x370(%rbp)
    7698:	48 8d 05 87 8e 00 00 	lea    0x8e87(%rip),%rax        # 10526 <g_270+0x6>
    769f:	48 89 85 98 fc ff ff 	mov    %rax,-0x368(%rbp)
    76a6:	48 8d 85 e1 e6 ff ff 	lea    -0x191f(%rbp),%rax
    76ad:	48 89 85 a0 fc ff ff 	mov    %rax,-0x360(%rbp)
    76b4:	48 8d 05 b7 8e 00 00 	lea    0x8eb7(%rip),%rax        # 10572 <g_622+0x6>
    76bb:	48 89 85 a8 fc ff ff 	mov    %rax,-0x358(%rbp)
    76c2:	48 8d 85 e1 e6 ff ff 	lea    -0x191f(%rbp),%rax
    76c9:	48 89 85 b0 fc ff ff 	mov    %rax,-0x350(%rbp)
    76d0:	48 8d 05 f9 89 00 00 	lea    0x89f9(%rip),%rax        # 100d0 <g_140>
    76d7:	48 89 85 b8 fc ff ff 	mov    %rax,-0x348(%rbp)
    76de:	48 8d 05 eb 89 00 00 	lea    0x89eb(%rip),%rax        # 100d0 <g_140>
    76e5:	48 89 85 c0 fc ff ff 	mov    %rax,-0x340(%rbp)
    76ec:	48 8d 85 e1 e6 ff ff 	lea    -0x191f(%rbp),%rax
    76f3:	48 89 85 c8 fc ff ff 	mov    %rax,-0x338(%rbp)
    76fa:	48 8d 85 e1 e6 ff ff 	lea    -0x191f(%rbp),%rax
    7701:	48 89 85 d0 fc ff ff 	mov    %rax,-0x330(%rbp)
    7708:	48 8d 85 e1 e6 ff ff 	lea    -0x191f(%rbp),%rax
    770f:	48 89 85 d8 fc ff ff 	mov    %rax,-0x328(%rbp)
    7716:	48 8d 85 e1 e6 ff ff 	lea    -0x191f(%rbp),%rax
    771d:	48 89 85 e0 fc ff ff 	mov    %rax,-0x320(%rbp)
    7724:	48 8d 05 fb 8d 00 00 	lea    0x8dfb(%rip),%rax        # 10526 <g_270+0x6>
    772b:	48 89 85 e8 fc ff ff 	mov    %rax,-0x318(%rbp)
    7732:	48 8d 85 e1 e6 ff ff 	lea    -0x191f(%rbp),%rax
    7739:	48 89 85 f0 fc ff ff 	mov    %rax,-0x310(%rbp)
    7740:	48 8d 05 89 89 00 00 	lea    0x8989(%rip),%rax        # 100d0 <g_140>
    7747:	48 89 85 f8 fc ff ff 	mov    %rax,-0x308(%rbp)
    774e:	48 8d 05 24 8e 00 00 	lea    0x8e24(%rip),%rax        # 10579 <g_624+0x6>
    7755:	48 89 85 00 fd ff ff 	mov    %rax,-0x300(%rbp)
    775c:	48 8d 05 6d 89 00 00 	lea    0x896d(%rip),%rax        # 100d0 <g_140>
    7763:	48 89 85 08 fd ff ff 	mov    %rax,-0x2f8(%rbp)
    776a:	48 8d 05 01 8e 00 00 	lea    0x8e01(%rip),%rax        # 10572 <g_622+0x6>
    7771:	48 89 85 10 fd ff ff 	mov    %rax,-0x2f0(%rbp)
    7778:	48 c7 85 18 fd ff ff 	movq   $0x0,-0x2e8(%rbp)
    777f:	00 00 00 00 
    7783:	48 c7 85 20 fd ff ff 	movq   $0x0,-0x2e0(%rbp)
    778a:	00 00 00 00 
    778e:	48 8d 05 3b 89 00 00 	lea    0x893b(%rip),%rax        # 100d0 <g_140>
    7795:	48 89 85 28 fd ff ff 	mov    %rax,-0x2d8(%rbp)
    779c:	48 8d 05 2d 89 00 00 	lea    0x892d(%rip),%rax        # 100d0 <g_140>
    77a3:	48 89 85 30 fd ff ff 	mov    %rax,-0x2d0(%rbp)
    77aa:	48 8d 05 c8 8d 00 00 	lea    0x8dc8(%rip),%rax        # 10579 <g_624+0x6>
    77b1:	48 89 85 38 fd ff ff 	mov    %rax,-0x2c8(%rbp)
    77b8:	48 c7 85 40 fd ff ff 	movq   $0x0,-0x2c0(%rbp)
    77bf:	00 00 00 00 
    77c3:	48 8d 05 5c 8d 00 00 	lea    0x8d5c(%rip),%rax        # 10526 <g_270+0x6>
    77ca:	48 89 85 48 fd ff ff 	mov    %rax,-0x2b8(%rbp)
    77d1:	48 8d 05 9a 8d 00 00 	lea    0x8d9a(%rip),%rax        # 10572 <g_622+0x6>
    77d8:	48 89 85 50 fd ff ff 	mov    %rax,-0x2b0(%rbp)
    77df:	48 8d 05 ea 88 00 00 	lea    0x88ea(%rip),%rax        # 100d0 <g_140>
    77e6:	48 89 85 58 fd ff ff 	mov    %rax,-0x2a8(%rbp)
    77ed:	48 8d 05 85 8d 00 00 	lea    0x8d85(%rip),%rax        # 10579 <g_624+0x6>
    77f4:	48 89 85 60 fd ff ff 	mov    %rax,-0x2a0(%rbp)
    77fb:	48 8d 05 77 8d 00 00 	lea    0x8d77(%rip),%rax        # 10579 <g_624+0x6>
    7802:	48 89 85 68 fd ff ff 	mov    %rax,-0x298(%rbp)
    7809:	48 8d 85 e1 e6 ff ff 	lea    -0x191f(%rbp),%rax
    7810:	48 89 85 70 fd ff ff 	mov    %rax,-0x290(%rbp)
    7817:	48 8d 85 e1 e6 ff ff 	lea    -0x191f(%rbp),%rax
    781e:	48 89 85 78 fd ff ff 	mov    %rax,-0x288(%rbp)
    7825:	48 8d 85 e1 e6 ff ff 	lea    -0x191f(%rbp),%rax
    782c:	48 89 85 80 fd ff ff 	mov    %rax,-0x280(%rbp)
    7833:	48 8d 05 38 8d 00 00 	lea    0x8d38(%rip),%rax        # 10572 <g_622+0x6>
    783a:	48 89 85 88 fd ff ff 	mov    %rax,-0x278(%rbp)
    7841:	48 8d 85 e1 e6 ff ff 	lea    -0x191f(%rbp),%rax
    7848:	48 89 85 90 fd ff ff 	mov    %rax,-0x270(%rbp)
    784f:	48 8d 85 e1 e6 ff ff 	lea    -0x191f(%rbp),%rax
    7856:	48 89 85 98 fd ff ff 	mov    %rax,-0x268(%rbp)
    785d:	48 8d 05 6c 88 00 00 	lea    0x886c(%rip),%rax        # 100d0 <g_140>
    7864:	48 89 85 a0 fd ff ff 	mov    %rax,-0x260(%rbp)
    786b:	48 8d 05 5e 88 00 00 	lea    0x885e(%rip),%rax        # 100d0 <g_140>
    7872:	48 89 85 a8 fd ff ff 	mov    %rax,-0x258(%rbp)
    7879:	48 8d 85 e1 e6 ff ff 	lea    -0x191f(%rbp),%rax
    7880:	48 89 85 b0 fd ff ff 	mov    %rax,-0x250(%rbp)
    7887:	48 8d 85 e1 e6 ff ff 	lea    -0x191f(%rbp),%rax
    788e:	48 89 85 b8 fd ff ff 	mov    %rax,-0x248(%rbp)
    7895:	48 8d 85 e1 e6 ff ff 	lea    -0x191f(%rbp),%rax
    789c:	48 89 85 c0 fd ff ff 	mov    %rax,-0x240(%rbp)
    78a3:	48 8d 85 78 e7 ff ff 	lea    -0x1888(%rbp),%rax
    78aa:	48 89 85 c8 fd ff ff 	mov    %rax,-0x238(%rbp)
    78b1:	48 8d 05 18 88 00 00 	lea    0x8818(%rip),%rax        # 100d0 <g_140>
    78b8:	48 89 85 d0 fd ff ff 	mov    %rax,-0x230(%rbp)
    78bf:	48 8d 05 ac 8c 00 00 	lea    0x8cac(%rip),%rax        # 10572 <g_622+0x6>
    78c6:	48 89 85 d8 fd ff ff 	mov    %rax,-0x228(%rbp)
    78cd:	48 8d 85 78 e7 ff ff 	lea    -0x1888(%rbp),%rax
    78d4:	48 89 85 e0 fd ff ff 	mov    %rax,-0x220(%rbp)
    78db:	48 8d 85 e1 e6 ff ff 	lea    -0x191f(%rbp),%rax
    78e2:	48 89 85 e8 fd ff ff 	mov    %rax,-0x218(%rbp)
    78e9:	48 8d 05 89 8c 00 00 	lea    0x8c89(%rip),%rax        # 10579 <g_624+0x6>
    78f0:	48 89 85 f0 fd ff ff 	mov    %rax,-0x210(%rbp)
    78f7:	48 8d 05 d2 87 00 00 	lea    0x87d2(%rip),%rax        # 100d0 <g_140>
    78fe:	48 89 85 f8 fd ff ff 	mov    %rax,-0x208(%rbp)
    7905:	48 c7 85 00 fe ff ff 	movq   $0x0,-0x200(%rbp)
    790c:	00 00 00 00 
    7910:	48 8d 85 e1 e6 ff ff 	lea    -0x191f(%rbp),%rax
    7917:	48 89 85 08 fe ff ff 	mov    %rax,-0x1f8(%rbp)
    791e:	48 c7 85 10 fe ff ff 	movq   $0x0,-0x1f0(%rbp)
    7925:	00 00 00 00 
    7929:	48 8d 05 42 8c 00 00 	lea    0x8c42(%rip),%rax        # 10572 <g_622+0x6>
    7930:	48 89 85 18 fe ff ff 	mov    %rax,-0x1e8(%rbp)
    7937:	48 8d 85 e1 e6 ff ff 	lea    -0x191f(%rbp),%rax
    793e:	48 89 85 20 fe ff ff 	mov    %rax,-0x1e0(%rbp)
    7945:	48 8d 85 78 e7 ff ff 	lea    -0x1888(%rbp),%rax
    794c:	48 89 85 28 fe ff ff 	mov    %rax,-0x1d8(%rbp)
    7953:	48 8d 05 76 87 00 00 	lea    0x8776(%rip),%rax        # 100d0 <g_140>
    795a:	48 89 85 30 fe ff ff 	mov    %rax,-0x1d0(%rbp)
    7961:	48 8d 85 e1 e6 ff ff 	lea    -0x191f(%rbp),%rax
    7968:	48 89 85 38 fe ff ff 	mov    %rax,-0x1c8(%rbp)
    796f:	48 8d 05 b0 8b 00 00 	lea    0x8bb0(%rip),%rax        # 10526 <g_270+0x6>
    7976:	48 89 85 40 fe ff ff 	mov    %rax,-0x1c0(%rbp)
    797d:	48 8d 05 4c 87 00 00 	lea    0x874c(%rip),%rax        # 100d0 <g_140>
    7984:	48 89 85 48 fe ff ff 	mov    %rax,-0x1b8(%rbp)
    798b:	48 8d 85 e1 e6 ff ff 	lea    -0x191f(%rbp),%rax
    7992:	48 89 85 50 fe ff ff 	mov    %rax,-0x1b0(%rbp)
    7999:	48 8d 85 e1 e6 ff ff 	lea    -0x191f(%rbp),%rax
    79a0:	48 89 85 58 fe ff ff 	mov    %rax,-0x1a8(%rbp)
    79a7:	48 8d 05 22 87 00 00 	lea    0x8722(%rip),%rax        # 100d0 <g_140>
    79ae:	48 89 85 60 fe ff ff 	mov    %rax,-0x1a0(%rbp)
    79b5:	48 8d 05 b6 8b 00 00 	lea    0x8bb6(%rip),%rax        # 10572 <g_622+0x6>
    79bc:	48 89 85 68 fe ff ff 	mov    %rax,-0x198(%rbp)
    79c3:	48 8d 05 06 87 00 00 	lea    0x8706(%rip),%rax        # 100d0 <g_140>
    79ca:	48 89 85 70 fe ff ff 	mov    %rax,-0x190(%rbp)
    79d1:	48 8d 85 e1 e6 ff ff 	lea    -0x191f(%rbp),%rax
    79d8:	48 89 85 78 fe ff ff 	mov    %rax,-0x188(%rbp)
    79df:	48 8d 05 ea 86 00 00 	lea    0x86ea(%rip),%rax        # 100d0 <g_140>
    79e6:	48 89 85 80 fe ff ff 	mov    %rax,-0x180(%rbp)
    79ed:	48 8d 05 85 8b 00 00 	lea    0x8b85(%rip),%rax        # 10579 <g_624+0x6>
    79f4:	48 89 85 88 fe ff ff 	mov    %rax,-0x178(%rbp)
    79fb:	48 8d 05 24 8b 00 00 	lea    0x8b24(%rip),%rax        # 10526 <g_270+0x6>
    7a02:	48 89 85 90 fe ff ff 	mov    %rax,-0x170(%rbp)
    7a09:	48 8d 05 c0 86 00 00 	lea    0x86c0(%rip),%rax        # 100d0 <g_140>
    7a10:	48 89 85 98 fe ff ff 	mov    %rax,-0x168(%rbp)
    7a17:	48 8d 05 5b 8b 00 00 	lea    0x8b5b(%rip),%rax        # 10579 <g_624+0x6>
    7a1e:	48 89 85 a0 fe ff ff 	mov    %rax,-0x160(%rbp)
    7a25:	48 8d 05 fa 8a 00 00 	lea    0x8afa(%rip),%rax        # 10526 <g_270+0x6>
    7a2c:	48 89 85 a8 fe ff ff 	mov    %rax,-0x158(%rbp)
    7a33:	48 c7 85 b0 fe ff ff 	movq   $0x0,-0x150(%rbp)
    7a3a:	00 00 00 00 
    7a3e:	48 8d 05 34 8b 00 00 	lea    0x8b34(%rip),%rax        # 10579 <g_624+0x6>
    7a45:	48 89 85 b8 fe ff ff 	mov    %rax,-0x148(%rbp)
    7a4c:	48 8d 85 e1 e6 ff ff 	lea    -0x191f(%rbp),%rax
    7a53:	48 89 85 c0 fe ff ff 	mov    %rax,-0x140(%rbp)
    7a5a:	48 8d 05 6f 86 00 00 	lea    0x866f(%rip),%rax        # 100d0 <g_140>
    7a61:	48 89 85 c8 fe ff ff 	mov    %rax,-0x138(%rbp)
    7a68:	48 c7 85 d0 fe ff ff 	movq   $0x0,-0x130(%rbp)
    7a6f:	00 00 00 00 
    7a73:	48 c7 85 d8 fe ff ff 	movq   $0x0,-0x128(%rbp)
    7a7a:	00 00 00 00 
    7a7e:	48 8d 05 f4 8a 00 00 	lea    0x8af4(%rip),%rax        # 10579 <g_624+0x6>
    7a85:	48 89 85 e0 fe ff ff 	mov    %rax,-0x120(%rbp)
    7a8c:	48 8d 05 3d 86 00 00 	lea    0x863d(%rip),%rax        # 100d0 <g_140>
    7a93:	48 89 85 e8 fe ff ff 	mov    %rax,-0x118(%rbp)
    7a9a:	48 8d 05 85 8a 00 00 	lea    0x8a85(%rip),%rax        # 10526 <g_270+0x6>
    7aa1:	48 89 85 f0 fe ff ff 	mov    %rax,-0x110(%rbp)
    7aa8:	48 8d 05 21 86 00 00 	lea    0x8621(%rip),%rax        # 100d0 <g_140>
    7aaf:	48 89 85 f8 fe ff ff 	mov    %rax,-0x108(%rbp)
    7ab6:	48 8d 05 13 86 00 00 	lea    0x8613(%rip),%rax        # 100d0 <g_140>
    7abd:	48 89 85 00 ff ff ff 	mov    %rax,-0x100(%rbp)
    7ac4:	48 8d 05 5b 8a 00 00 	lea    0x8a5b(%rip),%rax        # 10526 <g_270+0x6>
    7acb:	48 89 85 08 ff ff ff 	mov    %rax,-0xf8(%rbp)
    7ad2:	48 8d 05 f7 85 00 00 	lea    0x85f7(%rip),%rax        # 100d0 <g_140>
    7ad9:	48 89 85 10 ff ff ff 	mov    %rax,-0xf0(%rbp)
    7ae0:	48 8d 85 e1 e6 ff ff 	lea    -0x191f(%rbp),%rax
    7ae7:	48 89 85 18 ff ff ff 	mov    %rax,-0xe8(%rbp)
    7aee:	48 8d 05 db 85 00 00 	lea    0x85db(%rip),%rax        # 100d0 <g_140>
    7af5:	48 89 85 20 ff ff ff 	mov    %rax,-0xe0(%rbp)
    7afc:	48 8d 85 e1 e6 ff ff 	lea    -0x191f(%rbp),%rax
    7b03:	48 89 85 28 ff ff ff 	mov    %rax,-0xd8(%rbp)
    7b0a:	48 8d 85 e1 e6 ff ff 	lea    -0x191f(%rbp),%rax
    7b11:	48 89 85 30 ff ff ff 	mov    %rax,-0xd0(%rbp)
    7b18:	48 8d 05 b1 85 00 00 	lea    0x85b1(%rip),%rax        # 100d0 <g_140>
    7b1f:	48 89 85 38 ff ff ff 	mov    %rax,-0xc8(%rbp)
    7b26:	48 8d 05 f9 89 00 00 	lea    0x89f9(%rip),%rax        # 10526 <g_270+0x6>
    7b2d:	48 89 85 40 ff ff ff 	mov    %rax,-0xc0(%rbp)
    7b34:	48 8d 05 37 8a 00 00 	lea    0x8a37(%rip),%rax        # 10572 <g_622+0x6>
    7b3b:	48 89 85 48 ff ff ff 	mov    %rax,-0xb8(%rbp)
    7b42:	48 8d 05 87 85 00 00 	lea    0x8587(%rip),%rax        # 100d0 <g_140>
    7b49:	48 89 85 50 ff ff ff 	mov    %rax,-0xb0(%rbp)
    7b50:	48 8d 05 cf 89 00 00 	lea    0x89cf(%rip),%rax        # 10526 <g_270+0x6>
    7b57:	48 89 85 58 ff ff ff 	mov    %rax,-0xa8(%rbp)
    7b5e:	48 8d 85 e1 e6 ff ff 	lea    -0x191f(%rbp),%rax
    7b65:	48 89 85 60 ff ff ff 	mov    %rax,-0xa0(%rbp)
    7b6c:	48 8d 05 b3 89 00 00 	lea    0x89b3(%rip),%rax        # 10526 <g_270+0x6>
    7b73:	48 89 85 68 ff ff ff 	mov    %rax,-0x98(%rbp)
    7b7a:	48 c7 85 70 ff ff ff 	movq   $0x0,-0x90(%rbp)
    7b81:	00 00 00 00 
    7b85:	48 c7 85 78 ff ff ff 	movq   $0x0,-0x88(%rbp)
    7b8c:	00 00 00 00 
    7b90:	48 c7 45 80 00 00 00 	movq   $0x0,-0x80(%rbp)
    7b97:	00 
    7b98:	48 8d 05 31 85 00 00 	lea    0x8531(%rip),%rax        # 100d0 <g_140>
    7b9f:	48 89 45 88          	mov    %rax,-0x78(%rbp)
    7ba3:	48 8d 05 cf 89 00 00 	lea    0x89cf(%rip),%rax        # 10579 <g_624+0x6>
    7baa:	48 89 45 90          	mov    %rax,-0x70(%rbp)
    7bae:	48 c7 45 98 00 00 00 	movq   $0x0,-0x68(%rbp)
    7bb5:	00 
    7bb6:	48 8d 85 78 e7 ff ff 	lea    -0x1888(%rbp),%rax
    7bbd:	48 89 45 a0          	mov    %rax,-0x60(%rbp)
    7bc1:	48 8d 05 5e 89 00 00 	lea    0x895e(%rip),%rax        # 10526 <g_270+0x6>
    7bc8:	48 89 45 a8          	mov    %rax,-0x58(%rbp)
    7bcc:	48 8d 05 fd 84 00 00 	lea    0x84fd(%rip),%rax        # 100d0 <g_140>
    7bd3:	48 89 45 b0          	mov    %rax,-0x50(%rbp)
    7bd7:	48 8d 05 48 89 00 00 	lea    0x8948(%rip),%rax        # 10526 <g_270+0x6>
    7bde:	48 89 45 b8          	mov    %rax,-0x48(%rbp)
    7be2:	c7 85 3c e7 ff ff 09 	movl   $0x9,-0x18c4(%rbp)
    7be9:	00 00 00 
    7bec:	8b 05 6e 84 00 00    	mov    0x846e(%rip),%eax        # 10060 <g_15>
    7bf2:	89 c2                	mov    %eax,%edx
    7bf4:	48 8b 85 38 e8 ff ff 	mov    -0x17c8(%rbp),%rax
    7bfb:	48 89 10             	mov    %rdx,(%rax)
    7bfe:	8b 85 c8 ee ff ff    	mov    -0x1138(%rbp),%eax
    7c04:	48 63 d8             	movslq %eax,%rbx
    7c07:	48 8b 05 92 93 00 00 	mov    0x9392(%rip),%rax        # 10fa0 <g_18>
    7c0e:	48 8b 85 00 e8 ff ff 	mov    -0x1800(%rbp),%rax
    7c15:	48 8b 00             	mov    (%rax),%rax
    7c18:	48 8b 00             	mov    (%rax),%rax
    7c1b:	8b 10                	mov    (%rax),%edx
    7c1d:	48 8b 05 8c 93 00 00 	mov    0x938c(%rip),%rax        # 10fb0 <g_280>
    7c24:	48 63 d2             	movslq %edx,%rdx
    7c27:	48 89 10             	mov    %rdx,(%rax)
    7c2a:	48 8b 00             	mov    (%rax),%rax
    7c2d:	48 ba b2 44 0d 83 4d 	movabs $0x7cc2ee4d830d44b2,%rdx
    7c34:	ee c2 7c 
    7c37:	48 39 d0             	cmp    %rdx,%rax
    7c3a:	0f 95 c0             	setne  %al
    7c3d:	0f b6 d0             	movzbl %al,%edx
    7c40:	8b 85 78 ed ff ff    	mov    -0x1288(%rbp),%eax
    7c46:	31 d0                	xor    %edx,%eax
    7c48:	89 85 3c e7 ff ff    	mov    %eax,-0x18c4(%rbp)
    7c4e:	8b 85 3c e7 ff ff    	mov    -0x18c4(%rbp),%eax
    7c54:	0f b7 c0             	movzwl %ax,%eax
    7c57:	be 06 00 00 00       	mov    $0x6,%esi
    7c5c:	89 c7                	mov    %eax,%edi
    7c5e:	e8 a3 d1 ff ff       	callq  4e06 <safe_lshift_func_uint16_t_u_u>
    7c63:	0f b7 c0             	movzwl %ax,%eax
    7c66:	48 89 c6             	mov    %rax,%rsi
    7c69:	48 bf 66 ac 39 f3 3c 	movabs $0x32b3b63cf339ac66,%rdi
    7c70:	b6 b3 32 
    7c73:	e8 7f cd ff ff       	callq  49f7 <safe_div_func_int64_t_s_s>
    7c78:	48 39 c3             	cmp    %rax,%rbx
    7c7b:	7e 0b                	jle    7c88 <func_1+0x24d3>
    7c7d:	0f b6 85 78 e7 ff ff 	movzbl -0x1888(%rbp),%eax
    7c84:	84 c0                	test   %al,%al
    7c86:	74 07                	je     7c8f <func_1+0x24da>
    7c88:	ba 01 00 00 00       	mov    $0x1,%edx
    7c8d:	eb 05                	jmp    7c94 <func_1+0x24df>
    7c8f:	ba 00 00 00 00       	mov    $0x0,%edx
    7c94:	48 8b 85 00 e8 ff ff 	mov    -0x1800(%rbp),%rax
    7c9b:	48 8b 00             	mov    (%rax),%rax
    7c9e:	48 8b 00             	mov    (%rax),%rax
    7ca1:	8b 00                	mov    (%rax),%eax
    7ca3:	39 c2                	cmp    %eax,%edx
    7ca5:	0f 9f c0             	setg   %al
    7ca8:	0f b6 d0             	movzbl %al,%edx
    7cab:	48 8b 85 30 e8 ff ff 	mov    -0x17d0(%rbp),%rax
    7cb2:	0f b6 00             	movzbl (%rax),%eax
    7cb5:	0f b7 8d 80 e7 ff ff 	movzwl -0x1880(%rbp),%ecx
    7cbc:	31 c1                	xor    %eax,%ecx
    7cbe:	48 8b 85 30 e8 ff ff 	mov    -0x17d0(%rbp),%rax
    7cc5:	88 08                	mov    %cl,(%rax)
    7cc7:	48 8b 85 30 e8 ff ff 	mov    -0x17d0(%rbp),%rax
    7cce:	0f b6 00             	movzbl (%rax),%eax
    7cd1:	0f b6 c0             	movzbl %al,%eax
    7cd4:	89 d6                	mov    %edx,%esi
    7cd6:	89 c7                	mov    %eax,%edi
    7cd8:	e8 b6 ce ff ff       	callq  4b93 <safe_mul_func_uint8_t_u_u>
    7cdd:	0f b6 c0             	movzbl %al,%eax
    7ce0:	89 c6                	mov    %eax,%esi
    7ce2:	bf 01 00 00 00       	mov    $0x1,%edi
    7ce7:	e8 2a c7 ff ff       	callq  4416 <safe_mod_func_int16_t_s_s>
    7cec:	98                   	cwtl   
    7ced:	21 85 f8 e6 ff ff    	and    %eax,-0x1908(%rbp)
    7cf3:	48 8b 85 00 e8 ff ff 	mov    -0x1800(%rbp),%rax
    7cfa:	48 8b 00             	mov    (%rax),%rax
    7cfd:	48 8b 00             	mov    (%rax),%rax
    7d00:	8b 10                	mov    (%rax),%edx
    7d02:	48 8b 85 00 e8 ff ff 	mov    -0x1800(%rbp),%rax
    7d09:	48 8b 00             	mov    (%rax),%rax
    7d0c:	48 8b 00             	mov    (%rax),%rax
    7d0f:	33 95 3c e7 ff ff    	xor    -0x18c4(%rbp),%edx
    7d15:	89 10                	mov    %edx,(%rax)
    7d17:	48 8b 05 aa 93 00 00 	mov    0x93aa(%rip),%rax        # 110c8 <g_714>
    7d1e:	8b 00                	mov    (%rax),%eax
    7d20:	e9 f2 03 00 00       	jmpq   8117 <func_1+0x2962>
    7d25:	48 8d 05 3a 88 00 00 	lea    0x883a(%rip),%rax        # 10566 <g_483+0x6>
    7d2c:	48 89 85 c0 e7 ff ff 	mov    %rax,-0x1840(%rbp)
    7d33:	48 c7 85 c8 e7 ff ff 	movq   $0x0,-0x1838(%rbp)
    7d3a:	00 00 00 00 
    7d3e:	48 8d 05 ed 83 00 00 	lea    0x83ed(%rip),%rax        # 10132 <g_186>
    7d45:	48 89 85 d0 e7 ff ff 	mov    %rax,-0x1830(%rbp)
    7d4c:	48 c7 85 d8 e7 ff ff 	movq   $0x0,-0x1828(%rbp)
    7d53:	00 00 00 00 
    7d57:	48 8d 05 72 98 00 00 	lea    0x9872(%rip),%rax        # 115d0 <g_760>
    7d5e:	48 89 85 e0 e7 ff ff 	mov    %rax,-0x1820(%rbp)
    7d65:	48 c7 85 e8 e7 ff ff 	movq   $0x0,-0x1818(%rbp)
    7d6c:	00 00 00 00 
    7d70:	48 8d 05 c4 83 00 00 	lea    0x83c4(%rip),%rax        # 1013b <g_203+0x3>
    7d77:	48 89 85 f0 e7 ff ff 	mov    %rax,-0x1810(%rbp)
    7d7e:	c7 85 00 e7 ff ff 00 	movl   $0x0,-0x1900(%rbp)
    7d85:	00 00 00 
    7d88:	eb 46                	jmp    7dd0 <func_1+0x261b>
    7d8a:	c7 85 04 e7 ff ff 00 	movl   $0x0,-0x18fc(%rbp)
    7d91:	00 00 00 
    7d94:	eb 2a                	jmp    7dc0 <func_1+0x260b>
    7d96:	8b 85 04 e7 ff ff    	mov    -0x18fc(%rbp),%eax
    7d9c:	48 63 d0             	movslq %eax,%rdx
    7d9f:	8b 85 00 e7 ff ff    	mov    -0x1900(%rbp),%eax
    7da5:	48 98                	cltq   
    7da7:	48 01 d0             	add    %rdx,%rax
    7daa:	48 8d 15 df 82 00 00 	lea    0x82df(%rip),%rdx        # 10090 <g_112>
    7db1:	48 89 94 c5 00 f9 ff 	mov    %rdx,-0x700(%rbp,%rax,8)
    7db8:	ff 
    7db9:	83 85 04 e7 ff ff 01 	addl   $0x1,-0x18fc(%rbp)
    7dc0:	83 bd 04 e7 ff ff 00 	cmpl   $0x0,-0x18fc(%rbp)
    7dc7:	7e cd                	jle    7d96 <func_1+0x25e1>
    7dc9:	83 85 00 e7 ff ff 01 	addl   $0x1,-0x1900(%rbp)
    7dd0:	83 bd 00 e7 ff ff 09 	cmpl   $0x9,-0x1900(%rbp)
    7dd7:	7e b1                	jle    7d8a <func_1+0x25d5>
    7dd9:	8b 05 c1 87 00 00    	mov    0x87c1(%rip),%eax        # 105a0 <g_873>
    7ddf:	85 c0                	test   %eax,%eax
    7de1:	0f 85 26 03 00 00    	jne    810d <func_1+0x2958>
    7de7:	c7 05 6f 82 00 00 09 	movl   $0x9,0x826f(%rip)        # 10060 <g_15>
    7dee:	00 00 00 
    7df1:	eb 66                	jmp    7e59 <func_1+0x26a4>
    7df3:	c7 85 2c e7 ff ff 7a 	movl   $0xfd8cf97a,-0x18d4(%rbp)
    7dfa:	f9 8c fd 
    7dfd:	83 bd 2c e7 ff ff 00 	cmpl   $0x0,-0x18d4(%rbp)
    7e04:	75 60                	jne    7e66 <func_1+0x26b1>
    7e06:	c7 85 f4 e6 ff ff 00 	movl   $0x0,-0x190c(%rbp)
    7e0d:	00 00 00 
    7e10:	83 bd f4 e6 ff ff 01 	cmpl   $0x1,-0x190c(%rbp)
    7e17:	77 31                	ja     7e4a <func_1+0x2695>
    7e19:	8b 85 f4 e6 ff ff    	mov    -0x190c(%rbp),%eax
    7e1f:	8d 50 01             	lea    0x1(%rax),%edx
    7e22:	8b 85 f4 e6 ff ff    	mov    -0x190c(%rbp),%eax
    7e28:	83 c0 03             	add    $0x3,%eax
    7e2b:	89 c1                	mov    %eax,%ecx
    7e2d:	89 d2                	mov    %edx,%edx
    7e2f:	48 89 d0             	mov    %rdx,%rax
    7e32:	48 c1 e0 02          	shl    $0x2,%rax
    7e36:	48 01 d0             	add    %rdx,%rax
    7e39:	48 01 c8             	add    %rcx,%rax
    7e3c:	0f b7 84 45 d0 e8 ff 	movzwl -0x1730(%rbp,%rax,2),%eax
    7e43:	ff 
    7e44:	98                   	cwtl   
    7e45:	e9 cd 02 00 00       	jmpq   8117 <func_1+0x2962>
    7e4a:	8b 05 10 82 00 00    	mov    0x8210(%rip),%eax        # 10060 <g_15>
    7e50:	83 c0 01             	add    $0x1,%eax
    7e53:	89 05 07 82 00 00    	mov    %eax,0x8207(%rip)        # 10060 <g_15>
    7e59:	8b 05 01 82 00 00    	mov    0x8201(%rip),%eax        # 10060 <g_15>
    7e5f:	83 f8 12             	cmp    $0x12,%eax
    7e62:	77 8f                	ja     7df3 <func_1+0x263e>
    7e64:	eb 01                	jmp    7e67 <func_1+0x26b2>
    7e66:	90                   	nop
    7e67:	48 8b 05 6a 82 00 00 	mov    0x826a(%rip),%rax        # 100d8 <g_171>
    7e6e:	89 85 dc e6 ff ff    	mov    %eax,-0x1924(%rbp)
    7e74:	0f b6 05 ac 86 00 00 	movzbl 0x86ac(%rip),%eax        # 10527 <g_410>
    7e7b:	44 0f be f8          	movsbl %al,%r15d
    7e7f:	0f b7 05 f1 86 00 00 	movzwl 0x86f1(%rip),%eax        # 10577 <g_624+0x4>
    7e86:	0f b7 d8             	movzwl %ax,%ebx
    7e89:	48 8b 05 38 91 00 00 	mov    0x9138(%rip),%rax        # 10fc8 <g_356>
    7e90:	0f b7 00             	movzwl (%rax),%eax
    7e93:	44 0f b7 e0          	movzwl %ax,%r12d
    7e97:	44 8b ad f4 e6 ff ff 	mov    -0x190c(%rbp),%r13d
    7e9e:	48 8b 85 c0 e7 ff ff 	mov    -0x1840(%rbp),%rax
    7ea5:	0f b6 00             	movzbl (%rax),%eax
    7ea8:	8d 50 ff             	lea    -0x1(%rax),%edx
    7eab:	48 8b 85 c0 e7 ff ff 	mov    -0x1840(%rbp),%rax
    7eb2:	88 10                	mov    %dl,(%rax)
    7eb4:	48 8b 05 0d 91 00 00 	mov    0x910d(%rip),%rax        # 10fc8 <g_356>
    7ebb:	0f b7 00             	movzwl (%rax),%eax
    7ebe:	44 0f bf f0          	movswl %ax,%r14d
    7ec2:	48 8b 05 d7 90 00 00 	mov    0x90d7(%rip),%rax        # 10fa0 <g_18>
    7ec9:	48 8b 85 68 e7 ff ff 	mov    -0x1898(%rbp),%rax
    7ed0:	8b 00                	mov    (%rax),%eax
    7ed2:	85 c0                	test   %eax,%eax
    7ed4:	75 0a                	jne    7ee0 <func_1+0x272b>
    7ed6:	0f b7 05 87 86 00 00 	movzwl 0x8687(%rip),%eax        # 10564 <g_483+0x4>
    7edd:	66 85 c0             	test   %ax,%ax
    7ee0:	8b 05 9a 81 00 00    	mov    0x819a(%rip),%eax        # 10080 <g_62>
    7ee6:	0f be d0             	movsbl %al,%edx
    7ee9:	c7 85 f0 e6 ff ff ff 	movl   $0xffffffff,-0x1910(%rbp)
    7ef0:	ff ff ff 
    7ef3:	48 83 bd c8 e7 ff ff 	cmpq   $0x0,-0x1838(%rbp)
    7efa:	00 
    7efb:	0f 95 c0             	setne  %al
    7efe:	0f b6 c0             	movzbl %al,%eax
    7f01:	89 d6                	mov    %edx,%esi
    7f03:	89 c7                	mov    %eax,%edi
    7f05:	e8 08 c3 ff ff       	callq  4212 <safe_mul_func_int8_t_s_s>
    7f0a:	48 8b 85 68 e7 ff ff 	mov    -0x1898(%rbp),%rax
    7f11:	8b 00                	mov    (%rax),%eax
    7f13:	89 c2                	mov    %eax,%edx
    7f15:	48 8b 85 d0 e7 ff ff 	mov    -0x1830(%rbp),%rax
    7f1c:	66 89 10             	mov    %dx,(%rax)
    7f1f:	48 8b 85 d0 e7 ff ff 	mov    -0x1830(%rbp),%rax
    7f26:	0f b7 00             	movzwl (%rax),%eax
    7f29:	98                   	cwtl   
    7f2a:	44 89 f6             	mov    %r14d,%esi
    7f2d:	89 c7                	mov    %eax,%edi
    7f2f:	e8 7f c4 ff ff       	callq  43b3 <safe_add_func_int16_t_s_s>
    7f34:	0f b6 85 78 e7 ff ff 	movzbl -0x1888(%rbp),%eax
    7f3b:	0f b6 d0             	movzbl %al,%edx
    7f3e:	48 8d 05 6b 90 00 00 	lea    0x906b(%rip),%rax        # 10fb0 <g_280>
    7f45:	48 8b 00             	mov    (%rax),%rax
    7f48:	48 8b 00             	mov    (%rax),%rax
    7f4b:	48 89 d6             	mov    %rdx,%rsi
    7f4e:	48 89 c7             	mov    %rax,%rdi
    7f51:	e8 5e ca ff ff       	callq  49b4 <safe_mod_func_int64_t_s_s>
    7f56:	48 ba f6 4c 81 55 aa 	movabs $0x36a02daa55814cf6,%rdx
    7f5d:	2d a0 36 
    7f60:	48 31 c2             	xor    %rax,%rdx
    7f63:	8b 05 9b 85 00 00    	mov    0x859b(%rip),%eax        # 10504 <g_261+0x3a4>
    7f69:	48 98                	cltq   
    7f6b:	48 39 c2             	cmp    %rax,%rdx
    7f6e:	0f 94 c0             	sete   %al
    7f71:	0f b6 c0             	movzbl %al,%eax
    7f74:	44 89 ee             	mov    %r13d,%esi
    7f77:	89 c7                	mov    %eax,%edi
    7f79:	e8 ca ce ff ff       	callq  4e48 <safe_rshift_func_uint16_t_u_s>
    7f7e:	0f b7 c0             	movzwl %ax,%eax
    7f81:	be 00 00 00 00       	mov    $0x0,%esi
    7f86:	48 89 c7             	mov    %rax,%rdi
    7f89:	e8 bd d0 ff ff       	callq  504b <safe_sub_func_uint64_t_u_u>
    7f8e:	0f b7 c0             	movzwl %ax,%eax
    7f91:	44 89 e6             	mov    %r12d,%esi
    7f94:	89 c7                	mov    %eax,%edi
    7f96:	e8 c1 cd ff ff       	callq  4d5c <safe_mod_func_uint16_t_u_u>
    7f9b:	0f b7 c0             	movzwl %ax,%eax
    7f9e:	89 de                	mov    %ebx,%esi
    7fa0:	89 c7                	mov    %eax,%edi
    7fa2:	e8 78 cd ff ff       	callq  4d1f <safe_sub_func_uint16_t_u_u>
    7fa7:	0f b7 c0             	movzwl %ax,%eax
    7faa:	41 39 c7             	cmp    %eax,%r15d
    7fad:	0f 9c c0             	setl   %al
    7fb0:	0f b6 d0             	movzbl %al,%edx
    7fb3:	48 8b 85 e0 e7 ff ff 	mov    -0x1820(%rbp),%rax
    7fba:	66 89 10             	mov    %dx,(%rax)
    7fbd:	48 8b 85 e0 e7 ff ff 	mov    -0x1820(%rbp),%rax
    7fc4:	0f b7 00             	movzwl (%rax),%eax
    7fc7:	98                   	cwtl   
    7fc8:	ba 86 97 3d ce       	mov    $0xce3d9786,%edx
    7fcd:	31 c2                	xor    %eax,%edx
    7fcf:	0f b7 05 5a 81 00 00 	movzwl 0x815a(%rip),%eax        # 10130 <g_178>
    7fd6:	98                   	cwtl   
    7fd7:	39 c2                	cmp    %eax,%edx
    7fd9:	b8 d8 ff ff ff       	mov    $0xffffffd8,%eax
    7fde:	0f be c0             	movsbl %al,%eax
    7fe1:	be 03 00 00 00       	mov    $0x3,%esi
    7fe6:	89 c7                	mov    %eax,%edi
    7fe8:	e8 44 c2 ff ff       	callq  4231 <safe_mod_func_int8_t_s_s>
    7fed:	0f be c0             	movsbl %al,%eax
    7ff0:	8b b5 dc e6 ff ff    	mov    -0x1924(%rbp),%esi
    7ff6:	89 c7                	mov    %eax,%edi
    7ff8:	e8 f1 c2 ff ff       	callq  42ee <safe_lshift_func_int8_t_s_u>
    7ffd:	89 c2                	mov    %eax,%edx
    7fff:	48 8b 85 f0 e7 ff ff 	mov    -0x1810(%rbp),%rax
    8006:	0f b6 00             	movzbl (%rax),%eax
    8009:	09 c2                	or     %eax,%edx
    800b:	48 8b 85 f0 e7 ff ff 	mov    -0x1810(%rbp),%rax
    8012:	88 10                	mov    %dl,(%rax)
    8014:	48 8b 85 f0 e7 ff ff 	mov    -0x1810(%rbp),%rax
    801b:	0f b6 00             	movzbl (%rax),%eax
    801e:	0f b6 d0             	movzbl %al,%edx
    8021:	0f b6 85 78 e7 ff ff 	movzbl -0x1888(%rbp),%eax
    8028:	0f b6 c0             	movzbl %al,%eax
    802b:	89 d6                	mov    %edx,%esi
    802d:	89 c7                	mov    %eax,%edi
    802f:	e8 26 cb ff ff       	callq  4b5a <safe_add_func_uint8_t_u_u>
    8034:	0f b6 c0             	movzbl %al,%eax
    8037:	be 1c 00 00 00       	mov    $0x1c,%esi
    803c:	89 c7                	mov    %eax,%edi
    803e:	e8 17 cb ff ff       	callq  4b5a <safe_add_func_uint8_t_u_u>
    8043:	0f b6 d0             	movzbl %al,%edx
    8046:	8b 05 dc 84 00 00    	mov    0x84dc(%rip),%eax        # 10528 <g_439>
    804c:	09 d0                	or     %edx,%eax
    804e:	89 05 d4 84 00 00    	mov    %eax,0x84d4(%rip)        # 10528 <g_439>
    8054:	8b 15 ce 84 00 00    	mov    0x84ce(%rip),%edx        # 10528 <g_439>
    805a:	8b 05 30 80 00 00    	mov    0x8030(%rip),%eax        # 10090 <g_112>
    8060:	21 d0                	and    %edx,%eax
    8062:	89 05 28 80 00 00    	mov    %eax,0x8028(%rip)        # 10090 <g_112>
    8068:	eb 01                	jmp    806b <func_1+0x28b6>
    806a:	90                   	nop
    806b:	48 8b 85 b0 e7 ff ff 	mov    -0x1850(%rbp),%rax
    8072:	0f b6 00             	movzbl (%rax),%eax
    8075:	89 c2                	mov    %eax,%edx
    8077:	48 8b 85 68 e7 ff ff 	mov    -0x1898(%rbp),%rax
    807e:	8b 00                	mov    (%rax),%eax
    8080:	83 f0 26             	xor    $0x26,%eax
    8083:	21 d0                	and    %edx,%eax
    8085:	89 c2                	mov    %eax,%edx
    8087:	48 8b 85 b0 e7 ff ff 	mov    -0x1850(%rbp),%rax
    808e:	88 10                	mov    %dl,(%rax)
    8090:	48 8b 85 b0 e7 ff ff 	mov    -0x1850(%rbp),%rax
    8097:	0f b6 00             	movzbl (%rax),%eax
    809a:	0f b6 c8             	movzbl %al,%ecx
    809d:	48 8b 85 b8 e7 ff ff 	mov    -0x1848(%rbp),%rax
    80a4:	0f b7 10             	movzwl (%rax),%edx
    80a7:	48 8b 85 b8 e7 ff ff 	mov    -0x1848(%rbp),%rax
    80ae:	66 89 10             	mov    %dx,(%rax)
    80b1:	48 8b 85 b8 e7 ff ff 	mov    -0x1848(%rbp),%rax
    80b8:	0f b7 00             	movzwl (%rax),%eax
    80bb:	98                   	cwtl   
    80bc:	39 85 f0 e6 ff ff    	cmp    %eax,-0x1910(%rbp)
    80c2:	0f 9d c0             	setge  %al
    80c5:	0f b6 c0             	movzbl %al,%eax
    80c8:	39 c1                	cmp    %eax,%ecx
    80ca:	0f 9c c0             	setl   %al
    80cd:	0f b6 d0             	movzbl %al,%edx
    80d0:	8b 85 30 e9 ff ff    	mov    -0x16d0(%rbp),%eax
    80d6:	09 d0                	or     %edx,%eax
    80d8:	89 85 30 e9 ff ff    	mov    %eax,-0x16d0(%rbp)
    80de:	48 8b 85 68 e7 ff ff 	mov    -0x1898(%rbp),%rax
    80e5:	8b 00                	mov    (%rax),%eax
    80e7:	85 c0                	test   %eax,%eax
    80e9:	0f b7 05 b8 94 00 00 	movzwl 0x94b8(%rip),%eax        # 115a8 <g_76>
    80f0:	83 c0 01             	add    $0x1,%eax
    80f3:	66 89 05 ae 94 00 00 	mov    %ax,0x94ae(%rip)        # 115a8 <g_76>
    80fa:	0f b7 05 a7 94 00 00 	movzwl 0x94a7(%rip),%eax        # 115a8 <g_76>
    8101:	66 83 f8 2f          	cmp    $0x2f,%ax
    8105:	0f 85 07 e2 ff ff    	jne    6312 <func_1+0xb5d>
    810b:	eb 01                	jmp    810e <func_1+0x2959>
    810d:	90                   	nop
    810e:	48 8b 05 b3 8f 00 00 	mov    0x8fb3(%rip),%rax        # 110c8 <g_714>
    8115:	8b 00                	mov    (%rax),%eax
    8117:	48 8b 5d c8          	mov    -0x38(%rbp),%rbx
    811b:	64 48 33 1c 25 28 00 	xor    %fs:0x28,%rbx
    8122:	00 00 
    8124:	74 05                	je     812b <func_1+0x2976>
    8126:	e8 45 bf ff ff       	callq  4070 <__stack_chk_fail@plt>
    812b:	48 81 c4 08 19 00 00 	add    $0x1908,%rsp
    8132:	5b                   	pop    %rbx
    8133:	41 5c                	pop    %r12
    8135:	41 5d                	pop    %r13
    8137:	41 5e                	pop    %r14
    8139:	41 5f                	pop    %r15
    813b:	5d                   	pop    %rbp
    813c:	c3                   	retq   

000000000000813d <func_6>:
    813d:	f3 0f 1e fa          	endbr64 
    8141:	55                   	push   %rbp
    8142:	48 89 e5             	mov    %rsp,%rbp
    8145:	66 89 7d fe          	mov    %di,-0x2(%rbp)
    8149:	8b 05 f1 7e 00 00    	mov    0x7ef1(%rip),%eax        # 10040 <g_9>
    814f:	5d                   	pop    %rbp
    8150:	c3                   	retq   

0000000000008151 <func_11>:
    8151:	f3 0f 1e fa          	endbr64 
    8155:	55                   	push   %rbp
    8156:	48 89 e5             	mov    %rsp,%rbp
    8159:	41 57                	push   %r15
    815b:	41 56                	push   %r14
    815d:	41 55                	push   %r13
    815f:	41 54                	push   %r12
    8161:	53                   	push   %rbx
    8162:	48 81 ec e8 00 00 00 	sub    $0xe8,%rsp
    8169:	89 f8                	mov    %edi,%eax
    816b:	48 89 b5 00 ff ff ff 	mov    %rsi,-0x100(%rbp)
    8172:	66 89 85 0c ff ff ff 	mov    %ax,-0xf4(%rbp)
    8179:	64 48 8b 04 25 28 00 	mov    %fs:0x28,%rax
    8180:	00 00 
    8182:	48 89 45 c8          	mov    %rax,-0x38(%rbp)
    8186:	31 c0                	xor    %eax,%eax
    8188:	66 c7 85 30 ff ff ff 	movw   $0x43a1,-0xd0(%rbp)
    818f:	a1 43 
    8191:	66 c7 85 32 ff ff ff 	movw   $0x78cd,-0xce(%rbp)
    8198:	cd 78 
    819a:	66 c7 85 34 ff ff ff 	movw   $0x7,-0xcc(%rbp)
    81a1:	07 00 
    81a3:	66 c7 85 36 ff ff ff 	movw   $0x9c8,-0xca(%rbp)
    81aa:	c8 09 
    81ac:	66 c7 85 38 ff ff ff 	movw   $0x1,-0xc8(%rbp)
    81b3:	01 00 
    81b5:	66 c7 85 3a ff ff ff 	movw   $0x43a1,-0xc6(%rbp)
    81bc:	a1 43 
    81be:	66 c7 85 3c ff ff ff 	movw   $0x1,-0xc4(%rbp)
    81c5:	01 00 
    81c7:	66 c7 85 3e ff ff ff 	movw   $0x505d,-0xc2(%rbp)
    81ce:	5d 50 
    81d0:	66 c7 85 40 ff ff ff 	movw   $0xd441,-0xc0(%rbp)
    81d7:	41 d4 
    81d9:	66 c7 85 42 ff ff ff 	movw   $0xdbec,-0xbe(%rbp)
    81e0:	ec db 
    81e2:	66 c7 85 44 ff ff ff 	movw   $0xffff,-0xbc(%rbp)
    81e9:	ff ff 
    81eb:	66 c7 85 46 ff ff ff 	movw   $0xda84,-0xba(%rbp)
    81f2:	84 da 
    81f4:	66 c7 85 48 ff ff ff 	movw   $0x1,-0xb8(%rbp)
    81fb:	01 00 
    81fd:	66 c7 85 4a ff ff ff 	movw   $0x1,-0xb6(%rbp)
    8204:	01 00 
    8206:	66 c7 85 4c ff ff ff 	movw   $0xffff,-0xb4(%rbp)
    820d:	ff ff 
    820f:	66 c7 85 4e ff ff ff 	movw   $0xffff,-0xb2(%rbp)
    8216:	ff ff 
    8218:	66 c7 85 50 ff ff ff 	movw   $0x1,-0xb0(%rbp)
    821f:	01 00 
    8221:	66 c7 85 52 ff ff ff 	movw   $0x1,-0xae(%rbp)
    8228:	01 00 
    822a:	66 c7 85 54 ff ff ff 	movw   $0xa74,-0xac(%rbp)
    8231:	74 0a 
    8233:	66 c7 85 56 ff ff ff 	movw   $0x9c8,-0xaa(%rbp)
    823a:	c8 09 
    823c:	66 c7 85 58 ff ff ff 	movw   $0xa74,-0xa8(%rbp)
    8243:	74 0a 
    8245:	66 c7 85 5a ff ff ff 	movw   $0x7,-0xa6(%rbp)
    824c:	07 00 
    824e:	66 c7 85 5c ff ff ff 	movw   $0x1,-0xa4(%rbp)
    8255:	01 00 
    8257:	66 c7 85 5e ff ff ff 	movw   $0xec53,-0xa2(%rbp)
    825e:	53 ec 
    8260:	66 c7 85 60 ff ff ff 	movw   $0x32da,-0xa0(%rbp)
    8267:	da 32 
    8269:	66 c7 85 62 ff ff ff 	movw   $0x32da,-0x9e(%rbp)
    8270:	da 32 
    8272:	66 c7 85 64 ff ff ff 	movw   $0xec53,-0x9c(%rbp)
    8279:	53 ec 
    827b:	66 c7 85 66 ff ff ff 	movw   $0xda84,-0x9a(%rbp)
    8282:	84 da 
    8284:	66 c7 85 68 ff ff ff 	movw   $0xffff,-0x98(%rbp)
    828b:	ff ff 
    828d:	66 c7 85 6a ff ff ff 	movw   $0xdbec,-0x96(%rbp)
    8294:	ec db 
    8296:	66 c7 85 6c ff ff ff 	movw   $0xffff,-0x94(%rbp)
    829d:	ff ff 
    829f:	66 c7 85 6e ff ff ff 	movw   $0xda84,-0x92(%rbp)
    82a6:	84 da 
    82a8:	66 c7 85 70 ff ff ff 	movw   $0x1,-0x90(%rbp)
    82af:	01 00 
    82b1:	66 c7 85 72 ff ff ff 	movw   $0x1,-0x8e(%rbp)
    82b8:	01 00 
    82ba:	66 c7 85 74 ff ff ff 	movw   $0xffff,-0x8c(%rbp)
    82c1:	ff ff 
    82c3:	66 c7 85 76 ff ff ff 	movw   $0xffff,-0x8a(%rbp)
    82ca:	ff ff 
    82cc:	66 c7 85 78 ff ff ff 	movw   $0x505d,-0x88(%rbp)
    82d3:	5d 50 
    82d5:	66 c7 85 7a ff ff ff 	movw   $0xd441,-0x86(%rbp)
    82dc:	41 d4 
    82de:	66 c7 85 7c ff ff ff 	movw   $0xec53,-0x84(%rbp)
    82e5:	53 ec 
    82e7:	66 c7 85 7e ff ff ff 	movw   $0x7,-0x82(%rbp)
    82ee:	07 00 
    82f0:	66 c7 45 80 53 ec    	movw   $0xec53,-0x80(%rbp)
    82f6:	66 c7 45 82 41 d4    	movw   $0xd441,-0x7e(%rbp)
    82fc:	66 c7 45 84 5d 50    	movw   $0x505d,-0x7c(%rbp)
    8302:	66 c7 45 86 01 00    	movw   $0x1,-0x7a(%rbp)
    8308:	66 c7 45 88 a1 43    	movw   $0x43a1,-0x78(%rbp)
    830e:	66 c7 45 8a 06 00    	movw   $0x6,-0x76(%rbp)
    8314:	66 c7 45 8c 00 00    	movw   $0x0,-0x74(%rbp)
    831a:	66 c7 45 8e ff ff    	movw   $0xffff,-0x72(%rbp)
    8320:	66 c7 45 90 01 00    	movw   $0x1,-0x70(%rbp)
    8326:	66 c7 45 92 04 00    	movw   $0x4,-0x6e(%rbp)
    832c:	66 c7 45 94 01 00    	movw   $0x1,-0x6c(%rbp)
    8332:	66 c7 45 96 ff ff    	movw   $0xffff,-0x6a(%rbp)
    8338:	66 c7 45 98 00 00    	movw   $0x0,-0x68(%rbp)
    833e:	66 c7 45 9a 06 00    	movw   $0x6,-0x66(%rbp)
    8344:	66 c7 45 9c 41 d4    	movw   $0xd441,-0x64(%rbp)
    834a:	66 c7 45 9e cd 78    	movw   $0x78cd,-0x62(%rbp)
    8350:	66 c7 45 a0 da 32    	movw   $0x32da,-0x60(%rbp)
    8356:	66 c7 45 a2 01 00    	movw   $0x1,-0x5e(%rbp)
    835c:	66 c7 45 a4 bf 15    	movw   $0x15bf,-0x5c(%rbp)
    8362:	66 c7 45 a6 53 ec    	movw   $0xec53,-0x5a(%rbp)
    8368:	66 c7 45 a8 bf 15    	movw   $0x15bf,-0x58(%rbp)
    836e:	66 c7 45 aa 01 00    	movw   $0x1,-0x56(%rbp)
    8374:	66 c7 45 ac da 32    	movw   $0x32da,-0x54(%rbp)
    837a:	66 c7 45 ae 01 00    	movw   $0x1,-0x52(%rbp)
    8380:	66 c7 45 b0 01 00    	movw   $0x1,-0x50(%rbp)
    8386:	66 c7 45 b2 99 1f    	movw   $0x1f99,-0x4e(%rbp)
    838c:	66 c7 45 b4 ec db    	movw   $0xdbec,-0x4c(%rbp)
    8392:	66 c7 45 b6 00 00    	movw   $0x0,-0x4a(%rbp)
    8398:	66 c7 45 b8 ff ff    	movw   $0xffff,-0x48(%rbp)
    839e:	66 c7 45 ba 06 00    	movw   $0x6,-0x46(%rbp)
    83a4:	66 c7 45 bc ff ff    	movw   $0xffff,-0x44(%rbp)
    83aa:	66 c7 45 be 00 00    	movw   $0x0,-0x42(%rbp)
    83b0:	48 8d 05 a9 7c 00 00 	lea    0x7ca9(%rip),%rax        # 10060 <g_15>
    83b7:	48 89 85 18 ff ff ff 	mov    %rax,-0xe8(%rbp)
    83be:	48 c7 85 20 ff ff ff 	movq   $0x0,-0xe0(%rbp)
    83c5:	00 00 00 00 
    83c9:	48 8d 05 b0 7c 00 00 	lea    0x7cb0(%rip),%rax        # 10080 <g_62>
    83d0:	48 89 85 28 ff ff ff 	mov    %rax,-0xd8(%rbp)
    83d7:	c7 85 14 ff ff ff db 	movl   $0x4d1bb4db,-0xec(%rbp)
    83de:	b4 1b 4d 
    83e1:	0f b7 85 6c ff ff ff 	movzwl -0x94(%rbp),%eax
    83e8:	0f bf d8             	movswl %ax,%ebx
    83eb:	0f b7 85 6c ff ff ff 	movzwl -0x94(%rbp),%eax
    83f2:	44 0f b7 e0          	movzwl %ax,%r12d
    83f6:	48 c7 c0 fb ff ff ff 	mov    $0xfffffffffffffffb,%rax
    83fd:	44 0f b7 e8          	movzwl %ax,%r13d
    8401:	0f b7 85 6c ff ff ff 	movzwl -0x94(%rbp),%eax
    8408:	44 0f b7 f0          	movzwl %ax,%r14d
    840c:	8b 05 4e 7c 00 00    	mov    0x7c4e(%rip),%eax        # 10060 <g_15>
    8412:	98                   	cwtl   
    8413:	89 85 08 ff ff ff    	mov    %eax,-0xf8(%rbp)
    8419:	0f b7 85 6c ff ff ff 	movzwl -0x94(%rbp),%eax
    8420:	44 0f b7 f8          	movzwl %ax,%r15d
    8424:	8b 05 36 7c 00 00    	mov    0x7c36(%rip),%eax        # 10060 <g_15>
    842a:	0f b6 c8             	movzbl %al,%ecx
    842d:	89 8d fc fe ff ff    	mov    %ecx,-0x104(%rbp)
    8433:	48 8b 85 00 ff ff ff 	mov    -0x100(%rbp),%rax
    843a:	89 85 f8 fe ff ff    	mov    %eax,-0x108(%rbp)
    8440:	0f b7 85 6c ff ff ff 	movzwl -0x94(%rbp),%eax
    8447:	0f b6 f8             	movzbl %al,%edi
    844a:	0f b7 85 6c ff ff ff 	movzwl -0x94(%rbp),%eax
    8451:	0f b6 c0             	movzbl %al,%eax
    8454:	48 8b 8d 20 ff ff ff 	mov    -0xe0(%rbp),%rcx
    845b:	48 8b 95 20 ff ff ff 	mov    -0xe0(%rbp),%rdx
    8462:	48 8b b5 18 ff ff ff 	mov    -0xe8(%rbp),%rsi
    8469:	41 89 f8             	mov    %edi,%r8d
    846c:	89 c7                	mov    %eax,%edi
    846e:	e8 c4 2b 00 00       	callq  b037 <func_49>
    8473:	48 8b 85 00 ff ff ff 	mov    -0x100(%rbp),%rax
    847a:	25 4a 1f 35 d3       	and    $0xd3351f4a,%eax
    847f:	89 c2                	mov    %eax,%edx
    8481:	48 8b 85 28 ff ff ff 	mov    -0xd8(%rbp),%rax
    8488:	89 10                	mov    %edx,(%rax)
    848a:	0f b7 85 0c ff ff ff 	movzwl -0xf4(%rbp),%eax
    8491:	8b b5 f8 fe ff ff    	mov    -0x108(%rbp),%esi
    8497:	89 c7                	mov    %eax,%edi
    8499:	e8 18 c1 ff ff       	callq  45b6 <safe_add_func_int32_t_s_s>
    849e:	89 c1                	mov    %eax,%ecx
    84a0:	0f b7 85 5a ff ff ff 	movzwl -0xa6(%rbp),%eax
    84a7:	89 c2                	mov    %eax,%edx
    84a9:	8b b5 fc fe ff ff    	mov    -0x104(%rbp),%esi
    84af:	89 cf                	mov    %ecx,%edi
    84b1:	e8 f4 28 00 00       	callq  adaa <func_43>
    84b6:	48 89 85 20 ff ff ff 	mov    %rax,-0xe0(%rbp)
    84bd:	48 8b 95 28 ff ff ff 	mov    -0xd8(%rbp),%rdx
    84c4:	48 8b 85 20 ff ff ff 	mov    -0xe0(%rbp),%rax
    84cb:	48 89 d1             	mov    %rdx,%rcx
    84ce:	8b 95 08 ff ff ff    	mov    -0xf8(%rbp),%edx
    84d4:	44 89 fe             	mov    %r15d,%esi
    84d7:	48 89 c7             	mov    %rax,%rdi
    84da:	e8 83 19 00 00       	callq  9e62 <func_38>
    84df:	0f b7 85 6c ff ff ff 	movzwl -0x94(%rbp),%eax
    84e6:	4c 89 f1             	mov    %r14,%rcx
    84e9:	ba c1 07 00 00       	mov    $0x7c1,%edx
    84ee:	48 8d 35 6b 7b 00 00 	lea    0x7b6b(%rip),%rsi        # 10060 <g_15>
    84f5:	89 c7                	mov    %eax,%edi
    84f7:	e8 43 19 00 00       	callq  9e3f <func_31>
    84fc:	89 c7                	mov    %eax,%edi
    84fe:	e8 3a fc ff ff       	callq  813d <func_6>
    8503:	85 c0                	test   %eax,%eax
    8505:	0f 95 c0             	setne  %al
    8508:	0f b6 c0             	movzbl %al,%eax
    850b:	44 89 ee             	mov    %r13d,%esi
    850e:	89 c7                	mov    %eax,%edi
    8510:	e8 79 c8 ff ff       	callq  4d8e <safe_div_func_uint16_t_u_u>
    8515:	0f b7 d0             	movzwl %ax,%edx
    8518:	48 8b 05 81 8a 00 00 	mov    0x8a81(%rip),%rax        # 10fa0 <g_18>
    851f:	8b 00                	mov    (%rax),%eax
    8521:	89 d6                	mov    %edx,%esi
    8523:	89 c7                	mov    %eax,%edi
    8525:	e8 8e c9 ff ff       	callq  4eb8 <safe_add_func_uint32_t_u_u>
    852a:	0f b7 85 6c ff ff ff 	movzwl -0x94(%rbp),%eax
    8531:	89 c7                	mov    %eax,%edi
    8533:	e8 05 fc ff ff       	callq  813d <func_6>
    8538:	89 c2                	mov    %eax,%edx
    853a:	8b 05 00 7b 00 00    	mov    0x7b00(%rip),%eax        # 10040 <g_9>
    8540:	0f be c0             	movsbl %al,%eax
    8543:	89 d6                	mov    %edx,%esi
    8545:	89 c7                	mov    %eax,%edi
    8547:	e8 a2 bd ff ff       	callq  42ee <safe_lshift_func_int8_t_s_u>
    854c:	0f be c0             	movsbl %al,%eax
    854f:	44 89 e6             	mov    %r12d,%esi
    8552:	89 c7                	mov    %eax,%edi
    8554:	e8 a6 c1 ff ff       	callq  46ff <safe_div_func_int32_t_s_s>
    8559:	48 98                	cltq   
    855b:	48 39 85 00 ff ff ff 	cmp    %rax,-0x100(%rbp)
    8562:	0f 9d c0             	setge  %al
    8565:	0f b6 c0             	movzbl %al,%eax
    8568:	89 de                	mov    %ebx,%esi
    856a:	89 c7                	mov    %eax,%edi
    856c:	e8 42 00 00 00       	callq  85b3 <func_20>
    8571:	89 c7                	mov    %eax,%edi
    8573:	e8 c5 fb ff ff       	callq  813d <func_6>
    8578:	8b 95 14 ff ff ff    	mov    -0xec(%rbp),%edx
    857e:	21 d0                	and    %edx,%eax
    8580:	89 85 14 ff ff ff    	mov    %eax,-0xec(%rbp)
    8586:	48 8b 05 4b 7b 00 00 	mov    0x7b4b(%rip),%rax        # 100d8 <g_171>
    858d:	48 8b 5d c8          	mov    -0x38(%rbp),%rbx
    8591:	64 48 33 1c 25 28 00 	xor    %fs:0x28,%rbx
    8598:	00 00 
    859a:	74 05                	je     85a1 <func_11+0x450>
    859c:	e8 cf ba ff ff       	callq  4070 <__stack_chk_fail@plt>
    85a1:	48 81 c4 e8 00 00 00 	add    $0xe8,%rsp
    85a8:	5b                   	pop    %rbx
    85a9:	41 5c                	pop    %r12
    85ab:	41 5d                	pop    %r13
    85ad:	41 5e                	pop    %r14
    85af:	41 5f                	pop    %r15
    85b1:	5d                   	pop    %rbp
    85b2:	c3                   	retq   

00000000000085b3 <func_20>:
    85b3:	f3 0f 1e fa          	endbr64 
    85b7:	55                   	push   %rbp
    85b8:	48 89 e5             	mov    %rsp,%rbp
    85bb:	41 57                	push   %r15
    85bd:	41 56                	push   %r14
    85bf:	41 55                	push   %r13
    85c1:	41 54                	push   %r12
    85c3:	53                   	push   %rbx
    85c4:	48 81 ec 18 07 00 00 	sub    $0x718,%rsp
    85cb:	89 bd cc f8 ff ff    	mov    %edi,-0x734(%rbp)
    85d1:	89 f0                	mov    %esi,%eax
    85d3:	66 89 85 c8 f8 ff ff 	mov    %ax,-0x738(%rbp)
    85da:	64 48 8b 04 25 28 00 	mov    %fs:0x28,%rax
    85e1:	00 00 
    85e3:	48 89 45 c8          	mov    %rax,-0x38(%rbp)
    85e7:	31 c0                	xor    %eax,%eax
    85e9:	48 8d 05 bc 8f 00 00 	lea    0x8fbc(%rip),%rax        # 115ac <g_82>
    85f0:	48 89 85 10 f9 ff ff 	mov    %rax,-0x6f0(%rbp)
    85f7:	48 8d 85 10 f9 ff ff 	lea    -0x6f0(%rbp),%rax
    85fe:	48 89 85 40 fa ff ff 	mov    %rax,-0x5c0(%rbp)
    8605:	48 8d 85 10 f9 ff ff 	lea    -0x6f0(%rbp),%rax
    860c:	48 89 85 48 fa ff ff 	mov    %rax,-0x5b8(%rbp)
    8613:	48 8d 85 10 f9 ff ff 	lea    -0x6f0(%rbp),%rax
    861a:	48 89 85 50 fa ff ff 	mov    %rax,-0x5b0(%rbp)
    8621:	48 8d 85 10 f9 ff ff 	lea    -0x6f0(%rbp),%rax
    8628:	48 89 85 58 fa ff ff 	mov    %rax,-0x5a8(%rbp)
    862f:	48 8d 85 10 f9 ff ff 	lea    -0x6f0(%rbp),%rax
    8636:	48 89 85 60 fa ff ff 	mov    %rax,-0x5a0(%rbp)
    863d:	48 8d 85 10 f9 ff ff 	lea    -0x6f0(%rbp),%rax
    8644:	48 89 85 68 fa ff ff 	mov    %rax,-0x598(%rbp)
    864b:	48 8d 85 10 f9 ff ff 	lea    -0x6f0(%rbp),%rax
    8652:	48 89 85 70 fa ff ff 	mov    %rax,-0x590(%rbp)
    8659:	48 8d 85 10 f9 ff ff 	lea    -0x6f0(%rbp),%rax
    8660:	48 89 85 78 fa ff ff 	mov    %rax,-0x588(%rbp)
    8667:	48 8d 05 c4 7a 00 00 	lea    0x7ac4(%rip),%rax        # 10132 <g_186>
    866e:	48 89 85 00 fa ff ff 	mov    %rax,-0x600(%rbp)
    8675:	48 8d 05 b6 7a 00 00 	lea    0x7ab6(%rip),%rax        # 10132 <g_186>
    867c:	48 89 85 08 fa ff ff 	mov    %rax,-0x5f8(%rbp)
    8683:	48 8d 05 a6 7a 00 00 	lea    0x7aa6(%rip),%rax        # 10130 <g_178>
    868a:	48 89 85 10 fa ff ff 	mov    %rax,-0x5f0(%rbp)
    8691:	48 8d 05 9a 7a 00 00 	lea    0x7a9a(%rip),%rax        # 10132 <g_186>
    8698:	48 89 85 18 fa ff ff 	mov    %rax,-0x5e8(%rbp)
    869f:	48 8d 05 8c 7a 00 00 	lea    0x7a8c(%rip),%rax        # 10132 <g_186>
    86a6:	48 89 85 20 fa ff ff 	mov    %rax,-0x5e0(%rbp)
    86ad:	48 8d 05 7c 7a 00 00 	lea    0x7a7c(%rip),%rax        # 10130 <g_178>
    86b4:	48 89 85 28 fa ff ff 	mov    %rax,-0x5d8(%rbp)
    86bb:	48 8d 05 70 7a 00 00 	lea    0x7a70(%rip),%rax        # 10132 <g_186>
    86c2:	48 89 85 30 fa ff ff 	mov    %rax,-0x5d0(%rbp)
    86c9:	48 8d 05 00 7a 00 00 	lea    0x7a00(%rip),%rax        # 100d0 <g_140>
    86d0:	48 89 85 80 fa ff ff 	mov    %rax,-0x580(%rbp)
    86d7:	48 8d 05 f2 79 00 00 	lea    0x79f2(%rip),%rax        # 100d0 <g_140>
    86de:	48 89 85 88 fa ff ff 	mov    %rax,-0x578(%rbp)
    86e5:	48 8d 05 e4 79 00 00 	lea    0x79e4(%rip),%rax        # 100d0 <g_140>
    86ec:	48 89 85 90 fa ff ff 	mov    %rax,-0x570(%rbp)
    86f3:	48 8d 05 d6 79 00 00 	lea    0x79d6(%rip),%rax        # 100d0 <g_140>
    86fa:	48 89 85 98 fa ff ff 	mov    %rax,-0x568(%rbp)
    8701:	48 8d 05 c8 79 00 00 	lea    0x79c8(%rip),%rax        # 100d0 <g_140>
    8708:	48 89 85 a0 fa ff ff 	mov    %rax,-0x560(%rbp)
    870f:	48 8d 05 ba 79 00 00 	lea    0x79ba(%rip),%rax        # 100d0 <g_140>
    8716:	48 89 85 a8 fa ff ff 	mov    %rax,-0x558(%rbp)
    871d:	48 8d 05 ac 79 00 00 	lea    0x79ac(%rip),%rax        # 100d0 <g_140>
    8724:	48 89 85 b0 fa ff ff 	mov    %rax,-0x550(%rbp)
    872b:	48 8d 05 9e 79 00 00 	lea    0x799e(%rip),%rax        # 100d0 <g_140>
    8732:	48 89 85 b8 fa ff ff 	mov    %rax,-0x548(%rbp)
    8739:	c7 85 ec f8 ff ff 00 	movl   $0x0,-0x714(%rbp)
    8740:	00 00 00 
    8743:	c7 85 f0 f8 ff ff 01 	movl   $0x1,-0x710(%rbp)
    874a:	00 00 00 
    874d:	c7 85 e4 f8 ff ff 00 	movl   $0x0,-0x71c(%rbp)
    8754:	00 00 00 
    8757:	eb 19                	jmp    8772 <func_20+0x1bf>
    8759:	8b 85 e4 f8 ff ff    	mov    -0x71c(%rbp),%eax
    875f:	48 98                	cltq   
    8761:	66 c7 84 45 f4 f9 ff 	movw   $0x1,-0x60c(%rbp,%rax,2)
    8768:	ff 01 00 
    876b:	83 85 e4 f8 ff ff 01 	addl   $0x1,-0x71c(%rbp)
    8772:	83 bd e4 f8 ff ff 05 	cmpl   $0x5,-0x71c(%rbp)
    8779:	7e de                	jle    8759 <func_20+0x1a6>
    877b:	c7 85 cc f8 ff ff 00 	movl   $0x0,-0x734(%rbp)
    8782:	00 00 00 
    8785:	e9 a9 13 00 00       	jmpq   9b33 <func_20+0x1580>
    878a:	48 8d 05 f7 78 00 00 	lea    0x78f7(%rip),%rax        # 10088 <g_103>
    8791:	48 89 85 18 f9 ff ff 	mov    %rax,-0x6e8(%rbp)
    8798:	c7 85 d4 f8 ff ff c0 	movl   $0x819cc9c0,-0x72c(%rbp)
    879f:	c9 9c 81 
    87a2:	66 c7 85 d0 f8 ff ff 	movw   $0x5bd8,-0x730(%rbp)
    87a9:	d8 5b 
    87ab:	48 8d 85 18 f9 ff ff 	lea    -0x6e8(%rbp),%rax
    87b2:	48 89 85 40 fd ff ff 	mov    %rax,-0x2c0(%rbp)
    87b9:	48 8d 85 18 f9 ff ff 	lea    -0x6e8(%rbp),%rax
    87c0:	48 89 85 48 fd ff ff 	mov    %rax,-0x2b8(%rbp)
    87c7:	48 c7 85 50 fd ff ff 	movq   $0x0,-0x2b0(%rbp)
    87ce:	00 00 00 00 
    87d2:	48 8d 85 18 f9 ff ff 	lea    -0x6e8(%rbp),%rax
    87d9:	48 89 85 58 fd ff ff 	mov    %rax,-0x2a8(%rbp)
    87e0:	48 8d 85 18 f9 ff ff 	lea    -0x6e8(%rbp),%rax
    87e7:	48 89 85 60 fd ff ff 	mov    %rax,-0x2a0(%rbp)
    87ee:	48 c7 85 68 fd ff ff 	movq   $0x0,-0x298(%rbp)
    87f5:	00 00 00 00 
    87f9:	48 8d 85 18 f9 ff ff 	lea    -0x6e8(%rbp),%rax
    8800:	48 89 85 70 fd ff ff 	mov    %rax,-0x290(%rbp)
    8807:	48 8d 85 18 f9 ff ff 	lea    -0x6e8(%rbp),%rax
    880e:	48 89 85 78 fd ff ff 	mov    %rax,-0x288(%rbp)
    8815:	48 8d 85 18 f9 ff ff 	lea    -0x6e8(%rbp),%rax
    881c:	48 89 85 80 fd ff ff 	mov    %rax,-0x280(%rbp)
    8823:	48 8d 85 18 f9 ff ff 	lea    -0x6e8(%rbp),%rax
    882a:	48 89 85 88 fd ff ff 	mov    %rax,-0x278(%rbp)
    8831:	48 8d 85 18 f9 ff ff 	lea    -0x6e8(%rbp),%rax
    8838:	48 89 85 90 fd ff ff 	mov    %rax,-0x270(%rbp)
    883f:	48 8d 85 18 f9 ff ff 	lea    -0x6e8(%rbp),%rax
    8846:	48 89 85 98 fd ff ff 	mov    %rax,-0x268(%rbp)
    884d:	48 8d 85 18 f9 ff ff 	lea    -0x6e8(%rbp),%rax
    8854:	48 89 85 a0 fd ff ff 	mov    %rax,-0x260(%rbp)
    885b:	48 8d 85 18 f9 ff ff 	lea    -0x6e8(%rbp),%rax
    8862:	48 89 85 a8 fd ff ff 	mov    %rax,-0x258(%rbp)
    8869:	48 8d 85 18 f9 ff ff 	lea    -0x6e8(%rbp),%rax
    8870:	48 89 85 b0 fd ff ff 	mov    %rax,-0x250(%rbp)
    8877:	48 c7 85 b8 fd ff ff 	movq   $0x0,-0x248(%rbp)
    887e:	00 00 00 00 
    8882:	48 8d 85 18 f9 ff ff 	lea    -0x6e8(%rbp),%rax
    8889:	48 89 85 c0 fd ff ff 	mov    %rax,-0x240(%rbp)
    8890:	48 8d 85 18 f9 ff ff 	lea    -0x6e8(%rbp),%rax
    8897:	48 89 85 c8 fd ff ff 	mov    %rax,-0x238(%rbp)
    889e:	48 c7 85 d0 fd ff ff 	movq   $0x0,-0x230(%rbp)
    88a5:	00 00 00 00 
    88a9:	48 8d 85 18 f9 ff ff 	lea    -0x6e8(%rbp),%rax
    88b0:	48 89 85 d8 fd ff ff 	mov    %rax,-0x228(%rbp)
    88b7:	48 8d 85 18 f9 ff ff 	lea    -0x6e8(%rbp),%rax
    88be:	48 89 85 e0 fd ff ff 	mov    %rax,-0x220(%rbp)
    88c5:	48 8d 85 18 f9 ff ff 	lea    -0x6e8(%rbp),%rax
    88cc:	48 89 85 e8 fd ff ff 	mov    %rax,-0x218(%rbp)
    88d3:	48 8d 85 18 f9 ff ff 	lea    -0x6e8(%rbp),%rax
    88da:	48 89 85 f0 fd ff ff 	mov    %rax,-0x210(%rbp)
    88e1:	48 8d 85 18 f9 ff ff 	lea    -0x6e8(%rbp),%rax
    88e8:	48 89 85 f8 fd ff ff 	mov    %rax,-0x208(%rbp)
    88ef:	48 8d 85 18 f9 ff ff 	lea    -0x6e8(%rbp),%rax
    88f6:	48 89 85 00 fe ff ff 	mov    %rax,-0x200(%rbp)
    88fd:	48 8d 85 18 f9 ff ff 	lea    -0x6e8(%rbp),%rax
    8904:	48 89 85 08 fe ff ff 	mov    %rax,-0x1f8(%rbp)
    890b:	48 8d 85 18 f9 ff ff 	lea    -0x6e8(%rbp),%rax
    8912:	48 89 85 10 fe ff ff 	mov    %rax,-0x1f0(%rbp)
    8919:	48 8d 85 18 f9 ff ff 	lea    -0x6e8(%rbp),%rax
    8920:	48 89 85 18 fe ff ff 	mov    %rax,-0x1e8(%rbp)
    8927:	48 c7 85 20 fe ff ff 	movq   $0x0,-0x1e0(%rbp)
    892e:	00 00 00 00 
    8932:	48 8d 85 18 f9 ff ff 	lea    -0x6e8(%rbp),%rax
    8939:	48 89 85 28 fe ff ff 	mov    %rax,-0x1d8(%rbp)
    8940:	48 8d 85 18 f9 ff ff 	lea    -0x6e8(%rbp),%rax
    8947:	48 89 85 30 fe ff ff 	mov    %rax,-0x1d0(%rbp)
    894e:	48 c7 85 38 fe ff ff 	movq   $0x0,-0x1c8(%rbp)
    8955:	00 00 00 00 
    8959:	48 8d 85 18 f9 ff ff 	lea    -0x6e8(%rbp),%rax
    8960:	48 89 85 40 fe ff ff 	mov    %rax,-0x1c0(%rbp)
    8967:	48 8d 85 18 f9 ff ff 	lea    -0x6e8(%rbp),%rax
    896e:	48 89 85 48 fe ff ff 	mov    %rax,-0x1b8(%rbp)
    8975:	48 8d 85 18 f9 ff ff 	lea    -0x6e8(%rbp),%rax
    897c:	48 89 85 50 fe ff ff 	mov    %rax,-0x1b0(%rbp)
    8983:	48 8d 85 18 f9 ff ff 	lea    -0x6e8(%rbp),%rax
    898a:	48 89 85 58 fe ff ff 	mov    %rax,-0x1a8(%rbp)
    8991:	48 8d 85 18 f9 ff ff 	lea    -0x6e8(%rbp),%rax
    8998:	48 89 85 60 fe ff ff 	mov    %rax,-0x1a0(%rbp)
    899f:	48 8d 85 18 f9 ff ff 	lea    -0x6e8(%rbp),%rax
    89a6:	48 89 85 68 fe ff ff 	mov    %rax,-0x198(%rbp)
    89ad:	48 8d 85 18 f9 ff ff 	lea    -0x6e8(%rbp),%rax
    89b4:	48 89 85 70 fe ff ff 	mov    %rax,-0x190(%rbp)
    89bb:	48 8d 85 18 f9 ff ff 	lea    -0x6e8(%rbp),%rax
    89c2:	48 89 85 78 fe ff ff 	mov    %rax,-0x188(%rbp)
    89c9:	48 8d 85 18 f9 ff ff 	lea    -0x6e8(%rbp),%rax
    89d0:	48 89 85 80 fe ff ff 	mov    %rax,-0x180(%rbp)
    89d7:	48 c7 85 88 fe ff ff 	movq   $0x0,-0x178(%rbp)
    89de:	00 00 00 00 
    89e2:	48 8d 85 18 f9 ff ff 	lea    -0x6e8(%rbp),%rax
    89e9:	48 89 85 90 fe ff ff 	mov    %rax,-0x170(%rbp)
    89f0:	48 8d 85 18 f9 ff ff 	lea    -0x6e8(%rbp),%rax
    89f7:	48 89 85 98 fe ff ff 	mov    %rax,-0x168(%rbp)
    89fe:	48 c7 85 a0 fe ff ff 	movq   $0x0,-0x160(%rbp)
    8a05:	00 00 00 00 
    8a09:	48 8d 85 18 f9 ff ff 	lea    -0x6e8(%rbp),%rax
    8a10:	48 89 85 a8 fe ff ff 	mov    %rax,-0x158(%rbp)
    8a17:	48 8d 85 18 f9 ff ff 	lea    -0x6e8(%rbp),%rax
    8a1e:	48 89 85 b0 fe ff ff 	mov    %rax,-0x150(%rbp)
    8a25:	48 8d 85 18 f9 ff ff 	lea    -0x6e8(%rbp),%rax
    8a2c:	48 89 85 b8 fe ff ff 	mov    %rax,-0x148(%rbp)
    8a33:	48 8d 85 18 f9 ff ff 	lea    -0x6e8(%rbp),%rax
    8a3a:	48 89 85 c0 fe ff ff 	mov    %rax,-0x140(%rbp)
    8a41:	48 8d 85 18 f9 ff ff 	lea    -0x6e8(%rbp),%rax
    8a48:	48 89 85 c8 fe ff ff 	mov    %rax,-0x138(%rbp)
    8a4f:	48 8d 85 18 f9 ff ff 	lea    -0x6e8(%rbp),%rax
    8a56:	48 89 85 d0 fe ff ff 	mov    %rax,-0x130(%rbp)
    8a5d:	48 8d 85 18 f9 ff ff 	lea    -0x6e8(%rbp),%rax
    8a64:	48 89 85 d8 fe ff ff 	mov    %rax,-0x128(%rbp)
    8a6b:	48 8d 85 18 f9 ff ff 	lea    -0x6e8(%rbp),%rax
    8a72:	48 89 85 e0 fe ff ff 	mov    %rax,-0x120(%rbp)
    8a79:	48 8d 85 18 f9 ff ff 	lea    -0x6e8(%rbp),%rax
    8a80:	48 89 85 e8 fe ff ff 	mov    %rax,-0x118(%rbp)
    8a87:	48 c7 85 f0 fe ff ff 	movq   $0x0,-0x110(%rbp)
    8a8e:	00 00 00 00 
    8a92:	48 8d 85 18 f9 ff ff 	lea    -0x6e8(%rbp),%rax
    8a99:	48 89 85 f8 fe ff ff 	mov    %rax,-0x108(%rbp)
    8aa0:	48 8d 85 18 f9 ff ff 	lea    -0x6e8(%rbp),%rax
    8aa7:	48 89 85 00 ff ff ff 	mov    %rax,-0x100(%rbp)
    8aae:	48 c7 85 08 ff ff ff 	movq   $0x0,-0xf8(%rbp)
    8ab5:	00 00 00 00 
    8ab9:	48 8d 85 18 f9 ff ff 	lea    -0x6e8(%rbp),%rax
    8ac0:	48 89 85 10 ff ff ff 	mov    %rax,-0xf0(%rbp)
    8ac7:	48 8d 85 18 f9 ff ff 	lea    -0x6e8(%rbp),%rax
    8ace:	48 89 85 18 ff ff ff 	mov    %rax,-0xe8(%rbp)
    8ad5:	48 8d 85 18 f9 ff ff 	lea    -0x6e8(%rbp),%rax
    8adc:	48 89 85 20 ff ff ff 	mov    %rax,-0xe0(%rbp)
    8ae3:	48 8d 85 18 f9 ff ff 	lea    -0x6e8(%rbp),%rax
    8aea:	48 89 85 28 ff ff ff 	mov    %rax,-0xd8(%rbp)
    8af1:	48 8d 85 18 f9 ff ff 	lea    -0x6e8(%rbp),%rax
    8af8:	48 89 85 30 ff ff ff 	mov    %rax,-0xd0(%rbp)
    8aff:	48 8d 85 18 f9 ff ff 	lea    -0x6e8(%rbp),%rax
    8b06:	48 89 85 38 ff ff ff 	mov    %rax,-0xc8(%rbp)
    8b0d:	48 8d 85 18 f9 ff ff 	lea    -0x6e8(%rbp),%rax
    8b14:	48 89 85 40 ff ff ff 	mov    %rax,-0xc0(%rbp)
    8b1b:	48 8d 85 18 f9 ff ff 	lea    -0x6e8(%rbp),%rax
    8b22:	48 89 85 48 ff ff ff 	mov    %rax,-0xb8(%rbp)
    8b29:	48 8d 85 18 f9 ff ff 	lea    -0x6e8(%rbp),%rax
    8b30:	48 89 85 50 ff ff ff 	mov    %rax,-0xb0(%rbp)
    8b37:	48 c7 85 58 ff ff ff 	movq   $0x0,-0xa8(%rbp)
    8b3e:	00 00 00 00 
    8b42:	48 8d 85 18 f9 ff ff 	lea    -0x6e8(%rbp),%rax
    8b49:	48 89 85 60 ff ff ff 	mov    %rax,-0xa0(%rbp)
    8b50:	48 8d 85 18 f9 ff ff 	lea    -0x6e8(%rbp),%rax
    8b57:	48 89 85 68 ff ff ff 	mov    %rax,-0x98(%rbp)
    8b5e:	48 c7 85 70 ff ff ff 	movq   $0x0,-0x90(%rbp)
    8b65:	00 00 00 00 
    8b69:	48 8d 85 18 f9 ff ff 	lea    -0x6e8(%rbp),%rax
    8b70:	48 89 85 78 ff ff ff 	mov    %rax,-0x88(%rbp)
    8b77:	48 8d 85 18 f9 ff ff 	lea    -0x6e8(%rbp),%rax
    8b7e:	48 89 45 80          	mov    %rax,-0x80(%rbp)
    8b82:	48 8d 85 18 f9 ff ff 	lea    -0x6e8(%rbp),%rax
    8b89:	48 89 45 88          	mov    %rax,-0x78(%rbp)
    8b8d:	48 8d 85 18 f9 ff ff 	lea    -0x6e8(%rbp),%rax
    8b94:	48 89 45 90          	mov    %rax,-0x70(%rbp)
    8b98:	48 8d 85 18 f9 ff ff 	lea    -0x6e8(%rbp),%rax
    8b9f:	48 89 45 98          	mov    %rax,-0x68(%rbp)
    8ba3:	48 8d 85 18 f9 ff ff 	lea    -0x6e8(%rbp),%rax
    8baa:	48 89 45 a0          	mov    %rax,-0x60(%rbp)
    8bae:	48 8d 85 18 f9 ff ff 	lea    -0x6e8(%rbp),%rax
    8bb5:	48 89 45 a8          	mov    %rax,-0x58(%rbp)
    8bb9:	48 8d 85 18 f9 ff ff 	lea    -0x6e8(%rbp),%rax
    8bc0:	48 89 45 b0          	mov    %rax,-0x50(%rbp)
    8bc4:	48 8d 85 18 f9 ff ff 	lea    -0x6e8(%rbp),%rax
    8bcb:	48 89 45 b8          	mov    %rax,-0x48(%rbp)
    8bcf:	48 8d 85 40 fd ff ff 	lea    -0x2c0(%rbp),%rax
    8bd6:	48 05 30 01 00 00    	add    $0x130,%rax
    8bdc:	48 89 85 40 fb ff ff 	mov    %rax,-0x4c0(%rbp)
    8be3:	48 8d 85 40 fd ff ff 	lea    -0x2c0(%rbp),%rax
    8bea:	48 05 30 01 00 00    	add    $0x130,%rax
    8bf0:	48 89 85 48 fb ff ff 	mov    %rax,-0x4b8(%rbp)
    8bf7:	48 8d 85 40 fd ff ff 	lea    -0x2c0(%rbp),%rax
    8bfe:	48 05 00 01 00 00    	add    $0x100,%rax
    8c04:	48 89 85 50 fb ff ff 	mov    %rax,-0x4b0(%rbp)
    8c0b:	48 8d 85 40 fd ff ff 	lea    -0x2c0(%rbp),%rax
    8c12:	48 05 30 01 00 00    	add    $0x130,%rax
    8c18:	48 89 85 58 fb ff ff 	mov    %rax,-0x4a8(%rbp)
    8c1f:	48 8d 85 40 fd ff ff 	lea    -0x2c0(%rbp),%rax
    8c26:	48 05 30 01 00 00    	add    $0x130,%rax
    8c2c:	48 89 85 60 fb ff ff 	mov    %rax,-0x4a0(%rbp)
    8c33:	48 8d 85 40 fd ff ff 	lea    -0x2c0(%rbp),%rax
    8c3a:	48 05 30 01 00 00    	add    $0x130,%rax
    8c40:	48 89 85 68 fb ff ff 	mov    %rax,-0x498(%rbp)
    8c47:	48 8d 85 40 fd ff ff 	lea    -0x2c0(%rbp),%rax
    8c4e:	48 05 00 01 00 00    	add    $0x100,%rax
    8c54:	48 89 85 70 fb ff ff 	mov    %rax,-0x490(%rbp)
    8c5b:	48 8d 85 40 fd ff ff 	lea    -0x2c0(%rbp),%rax
    8c62:	48 05 30 01 00 00    	add    $0x130,%rax
    8c68:	48 89 85 78 fb ff ff 	mov    %rax,-0x488(%rbp)
    8c6f:	48 8d 85 40 fd ff ff 	lea    -0x2c0(%rbp),%rax
    8c76:	48 05 30 01 00 00    	add    $0x130,%rax
    8c7c:	48 89 85 80 fb ff ff 	mov    %rax,-0x480(%rbp)
    8c83:	48 8d 85 40 fd ff ff 	lea    -0x2c0(%rbp),%rax
    8c8a:	48 05 10 02 00 00    	add    $0x210,%rax
    8c90:	48 89 85 88 fb ff ff 	mov    %rax,-0x478(%rbp)
    8c97:	48 c7 85 90 fb ff ff 	movq   $0x0,-0x470(%rbp)
    8c9e:	00 00 00 00 
    8ca2:	48 8d 85 40 fd ff ff 	lea    -0x2c0(%rbp),%rax
    8ca9:	48 83 c0 60          	add    $0x60,%rax
    8cad:	48 89 85 98 fb ff ff 	mov    %rax,-0x468(%rbp)
    8cb4:	48 8d 85 40 fd ff ff 	lea    -0x2c0(%rbp),%rax
    8cbb:	48 05 10 02 00 00    	add    $0x210,%rax
    8cc1:	48 89 85 a0 fb ff ff 	mov    %rax,-0x460(%rbp)
    8cc8:	48 8d 85 40 fd ff ff 	lea    -0x2c0(%rbp),%rax
    8ccf:	48 05 00 01 00 00    	add    $0x100,%rax
    8cd5:	48 89 85 a8 fb ff ff 	mov    %rax,-0x458(%rbp)
    8cdc:	48 8d 85 40 fd ff ff 	lea    -0x2c0(%rbp),%rax
    8ce3:	48 05 30 01 00 00    	add    $0x130,%rax
    8ce9:	48 89 85 b0 fb ff ff 	mov    %rax,-0x450(%rbp)
    8cf0:	48 c7 85 b8 fb ff ff 	movq   $0x0,-0x448(%rbp)
    8cf7:	00 00 00 00 
    8cfb:	48 8d 85 40 fd ff ff 	lea    -0x2c0(%rbp),%rax
    8d02:	48 05 30 01 00 00    	add    $0x130,%rax
    8d08:	48 89 85 c0 fb ff ff 	mov    %rax,-0x440(%rbp)
    8d0f:	48 8d 85 40 fd ff ff 	lea    -0x2c0(%rbp),%rax
    8d16:	48 05 30 01 00 00    	add    $0x130,%rax
    8d1c:	48 89 85 c8 fb ff ff 	mov    %rax,-0x438(%rbp)
    8d23:	48 8d 85 40 fd ff ff 	lea    -0x2c0(%rbp),%rax
    8d2a:	48 05 30 01 00 00    	add    $0x130,%rax
    8d30:	48 89 85 d0 fb ff ff 	mov    %rax,-0x430(%rbp)
    8d37:	48 8d 85 40 fd ff ff 	lea    -0x2c0(%rbp),%rax
    8d3e:	48 05 30 01 00 00    	add    $0x130,%rax
    8d44:	48 89 85 d8 fb ff ff 	mov    %rax,-0x428(%rbp)
    8d4b:	48 8d 85 40 fd ff ff 	lea    -0x2c0(%rbp),%rax
    8d52:	48 05 30 01 00 00    	add    $0x130,%rax
    8d58:	48 89 85 e0 fb ff ff 	mov    %rax,-0x420(%rbp)
    8d5f:	48 8d 85 40 fd ff ff 	lea    -0x2c0(%rbp),%rax
    8d66:	48 83 c0 60          	add    $0x60,%rax
    8d6a:	48 89 85 e8 fb ff ff 	mov    %rax,-0x418(%rbp)
    8d71:	48 c7 85 f0 fb ff ff 	movq   $0x0,-0x410(%rbp)
    8d78:	00 00 00 00 
    8d7c:	48 c7 85 f8 fb ff ff 	movq   $0x0,-0x408(%rbp)
    8d83:	00 00 00 00 
    8d87:	48 c7 85 00 fc ff ff 	movq   $0x0,-0x400(%rbp)
    8d8e:	00 00 00 00 
    8d92:	48 8d 85 40 fd ff ff 	lea    -0x2c0(%rbp),%rax
    8d99:	48 05 30 01 00 00    	add    $0x130,%rax
    8d9f:	48 89 85 08 fc ff ff 	mov    %rax,-0x3f8(%rbp)
    8da6:	48 8d 85 40 fd ff ff 	lea    -0x2c0(%rbp),%rax
    8dad:	48 05 30 01 00 00    	add    $0x130,%rax
    8db3:	48 89 85 10 fc ff ff 	mov    %rax,-0x3f0(%rbp)
    8dba:	48 8d 85 40 fd ff ff 	lea    -0x2c0(%rbp),%rax
    8dc1:	48 05 30 01 00 00    	add    $0x130,%rax
    8dc7:	48 89 85 18 fc ff ff 	mov    %rax,-0x3e8(%rbp)
    8dce:	48 8d 85 40 fd ff ff 	lea    -0x2c0(%rbp),%rax
    8dd5:	48 05 00 01 00 00    	add    $0x100,%rax
    8ddb:	48 89 85 20 fc ff ff 	mov    %rax,-0x3e0(%rbp)
    8de2:	48 c7 85 28 fc ff ff 	movq   $0x0,-0x3d8(%rbp)
    8de9:	00 00 00 00 
    8ded:	48 8d 85 40 fd ff ff 	lea    -0x2c0(%rbp),%rax
    8df4:	48 05 30 01 00 00    	add    $0x130,%rax
    8dfa:	48 89 85 30 fc ff ff 	mov    %rax,-0x3d0(%rbp)
    8e01:	48 8d 85 40 fd ff ff 	lea    -0x2c0(%rbp),%rax
    8e08:	48 05 10 02 00 00    	add    $0x210,%rax
    8e0e:	48 89 85 38 fc ff ff 	mov    %rax,-0x3c8(%rbp)
    8e15:	48 8d 85 40 fd ff ff 	lea    -0x2c0(%rbp),%rax
    8e1c:	48 05 00 01 00 00    	add    $0x100,%rax
    8e22:	48 89 85 40 fc ff ff 	mov    %rax,-0x3c0(%rbp)
    8e29:	48 c7 85 48 fc ff ff 	movq   $0x0,-0x3b8(%rbp)
    8e30:	00 00 00 00 
    8e34:	48 8d 85 40 fd ff ff 	lea    -0x2c0(%rbp),%rax
    8e3b:	48 05 30 01 00 00    	add    $0x130,%rax
    8e41:	48 89 85 50 fc ff ff 	mov    %rax,-0x3b0(%rbp)
    8e48:	48 8d 85 40 fd ff ff 	lea    -0x2c0(%rbp),%rax
    8e4f:	48 05 10 02 00 00    	add    $0x210,%rax
    8e55:	48 89 85 58 fc ff ff 	mov    %rax,-0x3a8(%rbp)
    8e5c:	48 8d 85 40 fd ff ff 	lea    -0x2c0(%rbp),%rax
    8e63:	48 05 30 01 00 00    	add    $0x130,%rax
    8e69:	48 89 85 60 fc ff ff 	mov    %rax,-0x3a0(%rbp)
    8e70:	48 c7 85 68 fc ff ff 	movq   $0x0,-0x398(%rbp)
    8e77:	00 00 00 00 
    8e7b:	48 8d 85 40 fd ff ff 	lea    -0x2c0(%rbp),%rax
    8e82:	48 05 00 01 00 00    	add    $0x100,%rax
    8e88:	48 89 85 70 fc ff ff 	mov    %rax,-0x390(%rbp)
    8e8f:	48 8d 85 40 fd ff ff 	lea    -0x2c0(%rbp),%rax
    8e96:	48 05 30 01 00 00    	add    $0x130,%rax
    8e9c:	48 89 85 78 fc ff ff 	mov    %rax,-0x388(%rbp)
    8ea3:	48 c7 85 80 fc ff ff 	movq   $0x0,-0x380(%rbp)
    8eaa:	00 00 00 00 
    8eae:	48 8d 85 40 fd ff ff 	lea    -0x2c0(%rbp),%rax
    8eb5:	48 05 30 01 00 00    	add    $0x130,%rax
    8ebb:	48 89 85 88 fc ff ff 	mov    %rax,-0x378(%rbp)
    8ec2:	48 8d 85 40 fd ff ff 	lea    -0x2c0(%rbp),%rax
    8ec9:	48 05 30 01 00 00    	add    $0x130,%rax
    8ecf:	48 89 85 90 fc ff ff 	mov    %rax,-0x370(%rbp)
    8ed6:	48 c7 85 98 fc ff ff 	movq   $0x0,-0x368(%rbp)
    8edd:	00 00 00 00 
    8ee1:	48 c7 85 a0 fc ff ff 	movq   $0x0,-0x360(%rbp)
    8ee8:	00 00 00 00 
    8eec:	48 8d 85 40 fd ff ff 	lea    -0x2c0(%rbp),%rax
    8ef3:	48 83 c0 60          	add    $0x60,%rax
    8ef7:	48 89 85 a8 fc ff ff 	mov    %rax,-0x358(%rbp)
    8efe:	48 8d 85 40 fd ff ff 	lea    -0x2c0(%rbp),%rax
    8f05:	48 05 30 01 00 00    	add    $0x130,%rax
    8f0b:	48 89 85 b0 fc ff ff 	mov    %rax,-0x350(%rbp)
    8f12:	48 8d 85 40 fd ff ff 	lea    -0x2c0(%rbp),%rax
    8f19:	48 05 30 01 00 00    	add    $0x130,%rax
    8f1f:	48 89 85 b8 fc ff ff 	mov    %rax,-0x348(%rbp)
    8f26:	48 8d 85 40 fd ff ff 	lea    -0x2c0(%rbp),%rax
    8f2d:	48 05 30 01 00 00    	add    $0x130,%rax
    8f33:	48 89 85 c0 fc ff ff 	mov    %rax,-0x340(%rbp)
    8f3a:	48 c7 85 c8 fc ff ff 	movq   $0x0,-0x338(%rbp)
    8f41:	00 00 00 00 
    8f45:	48 8d 85 40 fd ff ff 	lea    -0x2c0(%rbp),%rax
    8f4c:	48 05 30 01 00 00    	add    $0x130,%rax
    8f52:	48 89 85 d0 fc ff ff 	mov    %rax,-0x330(%rbp)
    8f59:	48 8d 85 40 fd ff ff 	lea    -0x2c0(%rbp),%rax
    8f60:	48 05 30 01 00 00    	add    $0x130,%rax
    8f66:	48 89 85 d8 fc ff ff 	mov    %rax,-0x328(%rbp)
    8f6d:	48 c7 85 e0 fc ff ff 	movq   $0x0,-0x320(%rbp)
    8f74:	00 00 00 00 
    8f78:	48 8d 85 40 fd ff ff 	lea    -0x2c0(%rbp),%rax
    8f7f:	48 05 30 01 00 00    	add    $0x130,%rax
    8f85:	48 89 85 e8 fc ff ff 	mov    %rax,-0x318(%rbp)
    8f8c:	48 c7 85 f0 fc ff ff 	movq   $0x0,-0x310(%rbp)
    8f93:	00 00 00 00 
    8f97:	48 8d 85 40 fd ff ff 	lea    -0x2c0(%rbp),%rax
    8f9e:	48 05 10 02 00 00    	add    $0x210,%rax
    8fa4:	48 89 85 f8 fc ff ff 	mov    %rax,-0x308(%rbp)
    8fab:	48 c7 85 00 fd ff ff 	movq   $0x0,-0x300(%rbp)
    8fb2:	00 00 00 00 
    8fb6:	48 c7 85 08 fd ff ff 	movq   $0x0,-0x2f8(%rbp)
    8fbd:	00 00 00 00 
    8fc1:	48 8d 85 40 fd ff ff 	lea    -0x2c0(%rbp),%rax
    8fc8:	48 05 30 01 00 00    	add    $0x130,%rax
    8fce:	48 89 85 10 fd ff ff 	mov    %rax,-0x2f0(%rbp)
    8fd5:	48 8d 85 40 fd ff ff 	lea    -0x2c0(%rbp),%rax
    8fdc:	48 05 30 01 00 00    	add    $0x130,%rax
    8fe2:	48 89 85 18 fd ff ff 	mov    %rax,-0x2e8(%rbp)
    8fe9:	48 8d 85 40 fd ff ff 	lea    -0x2c0(%rbp),%rax
    8ff0:	48 05 30 01 00 00    	add    $0x130,%rax
    8ff6:	48 89 85 20 fd ff ff 	mov    %rax,-0x2e0(%rbp)
    8ffd:	48 8d 85 40 fd ff ff 	lea    -0x2c0(%rbp),%rax
    9004:	48 05 30 01 00 00    	add    $0x130,%rax
    900a:	48 89 85 28 fd ff ff 	mov    %rax,-0x2d8(%rbp)
    9011:	48 c7 85 30 fd ff ff 	movq   $0x0,-0x2d0(%rbp)
    9018:	00 00 00 00 
    901c:	48 8d 85 40 fd ff ff 	lea    -0x2c0(%rbp),%rax
    9023:	48 05 30 01 00 00    	add    $0x130,%rax
    9029:	48 89 85 38 fd ff ff 	mov    %rax,-0x2c8(%rbp)
    9030:	48 8d 85 40 fb ff ff 	lea    -0x4c0(%rbp),%rax
    9037:	48 05 28 01 00 00    	add    $0x128,%rax
    903d:	48 89 85 58 f9 ff ff 	mov    %rax,-0x6a8(%rbp)
    9044:	66 c7 05 37 70 00 00 	movw   $0x0,0x7037(%rip)        # 10084 <g_78>
    904b:	00 00 
    904d:	e9 79 05 00 00       	jmpq   95cb <func_20+0x1018>
    9052:	66 c7 85 28 f9 ff ff 	movw   $0x880e,-0x6d8(%rbp)
    9059:	0e 88 
    905b:	48 c7 85 a8 f9 ff ff 	movq   $0x0,-0x658(%rbp)
    9062:	00 00 00 00 
    9066:	48 8d 05 ce 70 00 00 	lea    0x70ce(%rip),%rax        # 1013b <g_203+0x3>
    906d:	48 89 85 b0 f9 ff ff 	mov    %rax,-0x650(%rbp)
    9074:	c7 85 fc f8 ff ff 39 	movl   $0x92e01139,-0x704(%rbp)
    907b:	11 e0 92 
    907e:	c6 05 4b 70 00 00 00 	movb   $0x0,0x704b(%rip)        # 100d0 <g_140>
    9085:	e9 39 03 00 00       	jmpq   93c3 <func_20+0xe10>
    908a:	c7 85 e8 f8 ff ff 8b 	movl   $0xc658c38b,-0x718(%rbp)
    9091:	c3 58 c6 
    9094:	c7 85 04 f9 ff ff fb 	movl   $0xfffffffb,-0x6fc(%rbp)
    909b:	ff ff ff 
    909e:	66 c7 05 01 85 00 00 	movw   $0x0,0x8501(%rip)        # 115a8 <g_76>
    90a5:	00 00 
    90a7:	90                   	nop
    90a8:	0f b7 05 f9 84 00 00 	movzwl 0x84f9(%rip),%eax        # 115a8 <g_76>
    90af:	66 83 f8 30          	cmp    $0x30,%ax
    90b3:	77 36                	ja     90eb <func_20+0xb38>
    90b5:	66 c7 85 30 f9 ff ff 	movw   $0x590e,-0x6d0(%rbp)
    90bc:	0e 59 
    90be:	c7 05 98 6f 00 00 00 	movl   $0x0,0x6f98(%rip)        # 10060 <g_15>
    90c5:	00 00 00 
    90c8:	90                   	nop
    90c9:	8b 05 91 6f 00 00    	mov    0x6f91(%rip),%eax        # 10060 <g_15>
    90cf:	85 c0                	test   %eax,%eax
    90d1:	75 0c                	jne    90df <func_20+0xb2c>
    90d3:	0f b7 85 30 f9 ff ff 	movzwl -0x6d0(%rbp),%eax
    90da:	e9 3a 0d 00 00       	jmpq   9e19 <func_20+0x1866>
    90df:	0f b7 85 28 f9 ff ff 	movzwl -0x6d8(%rbp),%eax
    90e6:	e9 2e 0d 00 00       	jmpq   9e19 <func_20+0x1866>
    90eb:	0f b7 85 c8 f8 ff ff 	movzwl -0x738(%rbp),%eax
    90f2:	66 85 c0             	test   %ax,%ax
    90f5:	0f 84 86 02 00 00    	je     9381 <func_20+0xdce>
    90fb:	48 c7 85 c8 f9 ff ff 	movq   $0x0,-0x638(%rbp)
    9102:	00 00 00 00 
    9106:	48 8d 05 83 6f 00 00 	lea    0x6f83(%rip),%rax        # 10090 <g_112>
    910d:	48 89 85 c0 fa ff ff 	mov    %rax,-0x540(%rbp)
    9114:	48 8d 05 75 6f 00 00 	lea    0x6f75(%rip),%rax        # 10090 <g_112>
    911b:	48 89 85 c8 fa ff ff 	mov    %rax,-0x538(%rbp)
    9122:	48 8d 05 67 6f 00 00 	lea    0x6f67(%rip),%rax        # 10090 <g_112>
    9129:	48 89 85 d0 fa ff ff 	mov    %rax,-0x530(%rbp)
    9130:	48 8d 05 59 6f 00 00 	lea    0x6f59(%rip),%rax        # 10090 <g_112>
    9137:	48 89 85 d8 fa ff ff 	mov    %rax,-0x528(%rbp)
    913e:	48 8d 05 4b 6f 00 00 	lea    0x6f4b(%rip),%rax        # 10090 <g_112>
    9145:	48 89 85 e0 fa ff ff 	mov    %rax,-0x520(%rbp)
    914c:	48 8d 05 3d 6f 00 00 	lea    0x6f3d(%rip),%rax        # 10090 <g_112>
    9153:	48 89 85 e8 fa ff ff 	mov    %rax,-0x518(%rbp)
    915a:	48 8d 05 2f 6f 00 00 	lea    0x6f2f(%rip),%rax        # 10090 <g_112>
    9161:	48 89 85 f0 fa ff ff 	mov    %rax,-0x510(%rbp)
    9168:	48 8d 05 21 6f 00 00 	lea    0x6f21(%rip),%rax        # 10090 <g_112>
    916f:	48 89 85 f8 fa ff ff 	mov    %rax,-0x508(%rbp)
    9176:	48 8d 05 13 6f 00 00 	lea    0x6f13(%rip),%rax        # 10090 <g_112>
    917d:	48 89 85 00 fb ff ff 	mov    %rax,-0x500(%rbp)
    9184:	48 8d 05 05 6f 00 00 	lea    0x6f05(%rip),%rax        # 10090 <g_112>
    918b:	48 89 85 08 fb ff ff 	mov    %rax,-0x4f8(%rbp)
    9192:	48 8d 85 c0 fa ff ff 	lea    -0x540(%rbp),%rax
    9199:	48 83 c0 20          	add    $0x20,%rax
    919d:	48 89 85 d0 f9 ff ff 	mov    %rax,-0x630(%rbp)
    91a4:	48 8b 85 d0 f9 ff ff 	mov    -0x630(%rbp),%rax
    91ab:	48 c7 00 00 00 00 00 	movq   $0x0,(%rax)
    91b2:	66 c7 85 28 f9 ff ff 	movw   $0xfff6,-0x6d8(%rbp)
    91b9:	f6 ff 
    91bb:	e9 a4 01 00 00       	jmpq   9364 <func_20+0xdb1>
    91c0:	48 8d 05 11 6f 00 00 	lea    0x6f11(%rip),%rax        # 100d8 <g_171>
    91c7:	48 89 85 d8 f9 ff ff 	mov    %rax,-0x628(%rbp)
    91ce:	c7 85 08 f9 ff ff fa 	movl   $0xfffffffa,-0x6f8(%rbp)
    91d5:	ff ff ff 
    91d8:	48 8d 05 51 6f 00 00 	lea    0x6f51(%rip),%rax        # 10130 <g_178>
    91df:	48 89 85 e0 f9 ff ff 	mov    %rax,-0x620(%rbp)
    91e6:	48 8d 05 45 6f 00 00 	lea    0x6f45(%rip),%rax        # 10132 <g_186>
    91ed:	48 89 85 e8 f9 ff ff 	mov    %rax,-0x618(%rbp)
    91f4:	c7 85 0c f9 ff ff f7 	movl   $0xfffffff7,-0x6f4(%rbp)
    91fb:	ff ff ff 
    91fe:	81 8d e8 f8 ff ff 26 	orl    $0xcf26,-0x718(%rbp)
    9205:	cf 00 00 
    9208:	0f b7 05 99 83 00 00 	movzwl 0x8399(%rip),%eax        # 115a8 <g_76>
    920f:	66 85 c0             	test   %ax,%ax
    9212:	74 08                	je     921c <func_20+0xc69>
    9214:	41 bd 01 00 00 00    	mov    $0x1,%r13d
    921a:	eb 06                	jmp    9222 <func_20+0xc6f>
    921c:	41 bd 00 00 00 00    	mov    $0x0,%r13d
    9222:	48 8b 85 18 f9 ff ff 	mov    -0x6e8(%rbp),%rax
    9229:	48 85 c0             	test   %rax,%rax
    922c:	0f 94 c0             	sete   %al
    922f:	44 0f b6 e0          	movzbl %al,%r12d
    9233:	0f b7 95 f6 f9 ff ff 	movzwl -0x60a(%rbp),%edx
    923a:	48 8b 85 18 f9 ff ff 	mov    -0x6e8(%rbp),%rax
    9241:	0f b7 d2             	movzwl %dx,%edx
    9244:	48 89 10             	mov    %rdx,(%rax)
    9247:	48 8b 10             	mov    (%rax),%rdx
    924a:	48 8b 85 d8 f9 ff ff 	mov    -0x628(%rbp),%rax
    9251:	48 89 10             	mov    %rdx,(%rax)
    9254:	48 8b 85 d8 f9 ff ff 	mov    -0x628(%rbp),%rax
    925b:	48 8b 18             	mov    (%rax),%rbx
    925e:	8b 85 cc f8 ff ff    	mov    -0x734(%rbp),%eax
    9264:	48 89 c7             	mov    %rax,%rdi
    9267:	e8 ad bd ff ff       	callq  5019 <safe_unary_minus_func_uint64_t_u>
    926c:	48 89 de             	mov    %rbx,%rsi
    926f:	bf 00 00 00 00       	mov    $0x0,%edi
    9274:	e8 7e b7 ff ff       	callq  49f7 <safe_div_func_int64_t_s_s>
    9279:	49 39 c4             	cmp    %rax,%r12
    927c:	0f 9d c0             	setge  %al
    927f:	0f b6 d0             	movzbl %al,%edx
    9282:	0f b7 85 f6 f9 ff ff 	movzwl -0x60a(%rbp),%eax
    9289:	0f b7 c0             	movzwl %ax,%eax
    928c:	39 c2                	cmp    %eax,%edx
    928e:	7d 07                	jge    9297 <func_20+0xce4>
    9290:	ba 02 00 00 00       	mov    $0x2,%edx
    9295:	eb 05                	jmp    929c <func_20+0xce9>
    9297:	ba 03 00 00 00       	mov    $0x3,%edx
    929c:	8b 85 04 f9 ff ff    	mov    -0x6fc(%rbp),%eax
    92a2:	48 98                	cltq   
    92a4:	48 39 c2             	cmp    %rax,%rdx
    92a7:	0f 9e c0             	setle  %al
    92aa:	0f b6 c0             	movzbl %al,%eax
    92ad:	41 39 c5             	cmp    %eax,%r13d
    92b0:	0f 9f c0             	setg   %al
    92b3:	0f b6 c0             	movzbl %al,%eax
    92b6:	09 85 08 f9 ff ff    	or     %eax,-0x6f8(%rbp)
    92bc:	8b 85 d4 f8 ff ff    	mov    -0x72c(%rbp),%eax
    92c2:	0f b6 d8             	movzbl %al,%ebx
    92c5:	48 8b 85 60 fa ff ff 	mov    -0x5a0(%rbp),%rax
    92cc:	48 39 85 a8 f9 ff ff 	cmp    %rax,-0x658(%rbp)
    92d3:	0f 95 c0             	setne  %al
    92d6:	0f b6 d0             	movzbl %al,%edx
    92d9:	48 8b 85 e8 f9 ff ff 	mov    -0x618(%rbp),%rax
    92e0:	66 89 10             	mov    %dx,(%rax)
    92e3:	48 8b 85 e8 f9 ff ff 	mov    -0x618(%rbp),%rax
    92ea:	0f b7 00             	movzwl (%rax),%eax
    92ed:	98                   	cwtl   
    92ee:	89 c7                	mov    %eax,%edi
    92f0:	e8 a8 b0 ff ff       	callq  439d <safe_unary_minus_func_int16_t_s>
    92f5:	0f b6 c0             	movzbl %al,%eax
    92f8:	89 de                	mov    %ebx,%esi
    92fa:	89 c7                	mov    %eax,%edi
    92fc:	e8 59 b8 ff ff       	callq  4b5a <safe_add_func_uint8_t_u_u>
    9301:	0f b6 d0             	movzbl %al,%edx
    9304:	48 8b 85 e0 f9 ff ff 	mov    -0x620(%rbp),%rax
    930b:	0f b7 00             	movzwl (%rax),%eax
    930e:	89 c1                	mov    %eax,%ecx
    9310:	8b 85 cc f8 ff ff    	mov    -0x734(%rbp),%eax
    9316:	09 c8                	or     %ecx,%eax
    9318:	89 c1                	mov    %eax,%ecx
    931a:	48 8b 85 e0 f9 ff ff 	mov    -0x620(%rbp),%rax
    9321:	66 89 08             	mov    %cx,(%rax)
    9324:	48 8b 85 e0 f9 ff ff 	mov    -0x620(%rbp),%rax
    932b:	0f b7 00             	movzwl (%rax),%eax
    932e:	98                   	cwtl   
    932f:	89 d6                	mov    %edx,%esi
    9331:	89 c7                	mov    %eax,%edi
    9333:	e8 bd b0 ff ff       	callq  43f5 <safe_mul_func_int16_t_s_s>
    9338:	66 3d ff 00          	cmp    $0xff,%ax
    933c:	0f 97 c2             	seta   %dl
    933f:	48 8b 85 10 f9 ff ff 	mov    -0x6f0(%rbp),%rax
    9346:	0f b6 d2             	movzbl %dl,%edx
    9349:	89 10                	mov    %edx,(%rax)
    934b:	8b 00                	mov    (%rax),%eax
    934d:	09 85 0c f9 ff ff    	or     %eax,-0x6f4(%rbp)
    9353:	0f b7 85 28 f9 ff ff 	movzwl -0x6d8(%rbp),%eax
    935a:	83 c0 01             	add    $0x1,%eax
    935d:	66 89 85 28 f9 ff ff 	mov    %ax,-0x6d8(%rbp)
    9364:	0f b7 85 28 f9 ff ff 	movzwl -0x6d8(%rbp),%eax
    936b:	66 83 f8 0f          	cmp    $0xf,%ax
    936f:	0f 87 4b fe ff ff    	ja     91c0 <func_20+0xc0d>
    9375:	48 8b 05 0c 6d 00 00 	mov    0x6d0c(%rip),%rax        # 10088 <g_103>
    937c:	48 85 c0             	test   %rax,%rax
    937f:	eb 26                	jmp    93a7 <func_20+0xdf4>
    9381:	48 8d 05 ec 6c 00 00 	lea    0x6cec(%rip),%rax        # 10074 <g_59+0x4>
    9388:	48 89 05 19 7c 00 00 	mov    %rax,0x7c19(%rip)        # 10fa8 <g_189>
    938f:	48 8b 85 10 f9 ff ff 	mov    -0x6f0(%rbp),%rax
    9396:	8b 10                	mov    (%rax),%edx
    9398:	48 8b 85 10 f9 ff ff 	mov    -0x6f0(%rbp),%rax
    939f:	81 ca 93 94 f8 30    	or     $0x30f89493,%edx
    93a5:	89 10                	mov    %edx,(%rax)
    93a7:	0f b6 05 22 6d 00 00 	movzbl 0x6d22(%rip),%eax        # 100d0 <g_140>
    93ae:	0f b6 c0             	movzbl %al,%eax
    93b1:	be 04 00 00 00       	mov    $0x4,%esi
    93b6:	89 c7                	mov    %eax,%edi
    93b8:	e8 42 b9 ff ff       	callq  4cff <safe_add_func_uint16_t_u_u>
    93bd:	88 05 0d 6d 00 00    	mov    %al,0x6d0d(%rip)        # 100d0 <g_140>
    93c3:	0f b6 05 06 6d 00 00 	movzbl 0x6d06(%rip),%eax        # 100d0 <g_140>
    93ca:	3c 0a                	cmp    $0xa,%al
    93cc:	0f 84 b8 fc ff ff    	je     908a <func_20+0xad7>
    93d2:	c7 05 84 6c 00 00 ef 	movl   $0xffffffef,0x6c84(%rip)        # 10060 <g_15>
    93d9:	ff ff ff 
    93dc:	90                   	nop
    93dd:	8b 05 7d 6c 00 00    	mov    0x6c7d(%rip),%eax        # 10060 <g_15>
    93e3:	83 f8 1c             	cmp    $0x1c,%eax
    93e6:	76 4c                	jbe    9434 <func_20+0xe81>
    93e8:	66 c7 85 28 f9 ff ff 	movw   $0xffe7,-0x6d8(%rbp)
    93ef:	e7 ff 
    93f1:	eb 28                	jmp    941b <func_20+0xe68>
    93f3:	48 c7 05 aa 7b 00 00 	movq   $0x0,0x7baa(%rip)        # 10fa8 <g_189>
    93fa:	00 00 00 00 
    93fe:	0f b7 85 28 f9 ff ff 	movzwl -0x6d8(%rbp),%eax
    9405:	0f b7 c0             	movzwl %ax,%eax
    9408:	be 02 00 00 00       	mov    $0x2,%esi
    940d:	89 c7                	mov    %eax,%edi
    940f:	e8 eb b8 ff ff       	callq  4cff <safe_add_func_uint16_t_u_u>
    9414:	66 89 85 28 f9 ff ff 	mov    %ax,-0x6d8(%rbp)
    941b:	0f b7 85 28 f9 ff ff 	movzwl -0x6d8(%rbp),%eax
    9422:	66 83 f8 2a          	cmp    $0x2a,%ax
    9426:	77 cb                	ja     93f3 <func_20+0xe40>
    9428:	0f b7 05 79 81 00 00 	movzwl 0x8179(%rip),%eax        # 115a8 <g_76>
    942f:	e9 e5 09 00 00       	jmpq   9e19 <func_20+0x1866>
    9434:	48 c7 05 49 6c 00 00 	movq   $0x0,0x6c49(%rip)        # 10088 <g_103>
    943b:	00 00 00 00 
    943f:	e9 63 01 00 00       	jmpq   95a7 <func_20+0xff4>
    9444:	48 8d 05 4d 6c 00 00 	lea    0x6c4d(%rip),%rax        # 10098 <g_130>
    944b:	48 89 85 b8 f9 ff ff 	mov    %rax,-0x648(%rbp)
    9452:	48 8d 05 37 6c 00 00 	lea    0x6c37(%rip),%rax        # 10090 <g_112>
    9459:	48 89 85 c0 f9 ff ff 	mov    %rax,-0x640(%rbp)
    9460:	48 8b 05 21 6c 00 00 	mov    0x6c21(%rip),%rax        # 10088 <g_103>
    9467:	48 8d 48 02          	lea    0x2(%rax),%rcx
    946b:	48 8b 05 16 6c 00 00 	mov    0x6c16(%rip),%rax        # 10088 <g_103>
    9472:	48 8d 50 01          	lea    0x1(%rax),%rdx
    9476:	48 8b 05 0b 6c 00 00 	mov    0x6c0b(%rip),%rax        # 10088 <g_103>
    947d:	48 01 c9             	add    %rcx,%rcx
    9480:	48 01 ca             	add    %rcx,%rdx
    9483:	48 01 d0             	add    %rdx,%rax
    9486:	48 8d 14 85 00 00 00 	lea    0x0(,%rax,4),%rdx
    948d:	00 
    948e:	48 8d 05 0b 6c 00 00 	lea    0x6c0b(%rip),%rax        # 100a0 <g_138>
    9495:	8b 04 02             	mov    (%rdx,%rax,1),%eax
    9498:	98                   	cwtl   
    9499:	be 0c 00 00 00       	mov    $0xc,%esi
    949e:	89 c7                	mov    %eax,%edi
    94a0:	e8 ed af ff ff       	callq  4492 <safe_lshift_func_int16_t_s_s>
    94a5:	48 0f bf d8          	movswq %ax,%rbx
    94a9:	48 8b 85 b8 f9 ff ff 	mov    -0x648(%rbp),%rax
    94b0:	48 c7 00 01 00 00 00 	movq   $0x1,(%rax)
    94b7:	48 8b 85 b8 f9 ff ff 	mov    -0x648(%rbp),%rax
    94be:	4c 8b 20             	mov    (%rax),%r12
    94c1:	0f b7 85 c8 f8 ff ff 	movzwl -0x738(%rbp),%eax
    94c8:	98                   	cwtl   
    94c9:	89 c6                	mov    %eax,%esi
    94cb:	bf a3 76 45 c4       	mov    $0xc44576a3,%edi
    94d0:	e8 50 ba ff ff       	callq  4f25 <safe_div_func_uint32_t_u_u>
    94d5:	0f b7 d0             	movzwl %ax,%edx
    94d8:	48 83 bd b0 f9 ff ff 	cmpq   $0x0,-0x650(%rbp)
    94df:	00 
    94e0:	0f 95 c0             	setne  %al
    94e3:	0f b6 c0             	movzbl %al,%eax
    94e6:	89 d6                	mov    %edx,%esi
    94e8:	89 c7                	mov    %eax,%edi
    94ea:	e8 6d b8 ff ff       	callq  4d5c <safe_mod_func_uint16_t_u_u>
    94ef:	0f b7 d0             	movzwl %ax,%edx
    94f2:	48 8b 85 28 fa ff ff 	mov    -0x5d8(%rbp),%rax
    94f9:	48 8d 0d 30 6c 00 00 	lea    0x6c30(%rip),%rcx        # 10130 <g_178>
    9500:	48 39 c8             	cmp    %rcx,%rax
    9503:	0f 95 c0             	setne  %al
    9506:	0f b6 c0             	movzbl %al,%eax
    9509:	48 89 d6             	mov    %rdx,%rsi
    950c:	48 89 c7             	mov    %rax,%rdi
    950f:	e8 6c bb ff ff       	callq  5080 <safe_mod_func_uint64_t_u_u>
    9514:	8b 95 fc f8 ff ff    	mov    -0x704(%rbp),%edx
    951a:	48 39 d0             	cmp    %rdx,%rax
    951d:	0f 97 c0             	seta   %al
    9520:	0f b6 c0             	movzbl %al,%eax
    9523:	4c 31 e0             	xor    %r12,%rax
    9526:	48 21 d8             	and    %rbx,%rax
    9529:	48 85 c0             	test   %rax,%rax
    952c:	74 1d                	je     954b <func_20+0xf98>
    952e:	48 8b 05 73 7a 00 00 	mov    0x7a73(%rip),%rax        # 10fa8 <g_189>
    9535:	8b 00                	mov    (%rax),%eax
    9537:	85 c0                	test   %eax,%eax
    9539:	75 7e                	jne    95b9 <func_20+0x1006>
    953b:	48 8d 85 d4 f8 ff ff 	lea    -0x72c(%rbp),%rax
    9542:	48 89 85 c0 f9 ff ff 	mov    %rax,-0x640(%rbp)
    9549:	eb 3f                	jmp    958a <func_20+0xfd7>
    954b:	c7 85 00 f9 ff ff d3 	movl   $0xa69a7d3,-0x700(%rbp)
    9552:	a7 69 0a 
    9555:	48 8b 05 4c 7a 00 00 	mov    0x7a4c(%rip),%rax        # 10fa8 <g_189>
    955c:	8b 00                	mov    (%rax),%eax
    955e:	85 c0                	test   %eax,%eax
    9560:	74 13                	je     9575 <func_20+0xfc2>
    9562:	83 85 00 f9 ff ff 01 	addl   $0x1,-0x700(%rbp)
    9569:	8b 85 d4 f8 ff ff    	mov    -0x72c(%rbp),%eax
    956f:	85 c0                	test   %eax,%eax
    9571:	74 17                	je     958a <func_20+0xfd7>
    9573:	eb 20                	jmp    9595 <func_20+0xfe2>
    9575:	66 c7 85 30 f9 ff ff 	movw   $0xfffe,-0x6d0(%rbp)
    957c:	fe ff 
    957e:	0f b7 85 30 f9 ff ff 	movzwl -0x6d0(%rbp),%eax
    9585:	e9 8f 08 00 00       	jmpq   9e19 <func_20+0x1866>
    958a:	48 8b 05 17 7a 00 00 	mov    0x7a17(%rip),%rax        # 10fa8 <g_189>
    9591:	8b 00                	mov    (%rax),%eax
    9593:	85 c0                	test   %eax,%eax
    9595:	48 8b 05 ec 6a 00 00 	mov    0x6aec(%rip),%rax        # 10088 <g_103>
    959c:	48 83 e8 01          	sub    $0x1,%rax
    95a0:	48 89 05 e1 6a 00 00 	mov    %rax,0x6ae1(%rip)        # 10088 <g_103>
    95a7:	48 8b 05 da 6a 00 00 	mov    0x6ada(%rip),%rax        # 10088 <g_103>
    95ae:	48 85 c0             	test   %rax,%rax
    95b1:	0f 89 8d fe ff ff    	jns    9444 <func_20+0xe91>
    95b7:	eb 01                	jmp    95ba <func_20+0x1007>
    95b9:	90                   	nop
    95ba:	0f b7 05 c3 6a 00 00 	movzwl 0x6ac3(%rip),%eax        # 10084 <g_78>
    95c1:	83 c0 01             	add    $0x1,%eax
    95c4:	66 89 05 b9 6a 00 00 	mov    %ax,0x6ab9(%rip)        # 10084 <g_78>
    95cb:	0f b7 05 b2 6a 00 00 	movzwl 0x6ab2(%rip),%eax        # 10084 <g_78>
    95d2:	66 83 f8 1a          	cmp    $0x1a,%ax
    95d6:	0f 8e 76 fa ff ff    	jle    9052 <func_20+0xa9f>
    95dc:	c7 05 aa 6a 00 00 00 	movl   $0x0,0x6aaa(%rip)        # 10090 <g_112>
    95e3:	00 00 00 
    95e6:	e9 32 05 00 00       	jmpq   9b1d <func_20+0x156a>
    95eb:	48 8d 05 e6 6a 00 00 	lea    0x6ae6(%rip),%rax        # 100d8 <g_171>
    95f2:	48 89 85 60 f9 ff ff 	mov    %rax,-0x6a0(%rbp)
    95f9:	48 8d 85 18 f9 ff ff 	lea    -0x6e8(%rbp),%rax
    9600:	48 89 85 20 f9 ff ff 	mov    %rax,-0x6e0(%rbp)
    9607:	48 c7 85 28 f9 ff ff 	movq   $0x0,-0x6d8(%rbp)
    960e:	00 00 00 00 
    9612:	48 8d 85 28 f9 ff ff 	lea    -0x6d8(%rbp),%rax
    9619:	48 89 85 30 f9 ff ff 	mov    %rax,-0x6d0(%rbp)
    9620:	48 8d 85 30 f9 ff ff 	lea    -0x6d0(%rbp),%rax
    9627:	48 89 85 68 f9 ff ff 	mov    %rax,-0x698(%rbp)
    962e:	48 8d 05 04 6b 00 00 	lea    0x6b04(%rip),%rax        # 10139 <g_203+0x1>
    9635:	48 89 85 70 f9 ff ff 	mov    %rax,-0x690(%rbp)
    963c:	48 8d 05 8d 6a 00 00 	lea    0x6a8d(%rip),%rax        # 100d0 <g_140>
    9643:	48 89 85 78 f9 ff ff 	mov    %rax,-0x688(%rbp)
    964a:	48 8d 05 0f 6a 00 00 	lea    0x6a0f(%rip),%rax        # 10060 <g_15>
    9651:	48 89 85 80 f9 ff ff 	mov    %rax,-0x680(%rbp)
    9658:	c7 85 f8 f8 ff ff 46 	movl   $0x9209cf46,-0x708(%rbp)
    965f:	cf 09 92 
    9662:	48 8d 85 f4 f9 ff ff 	lea    -0x60c(%rbp),%rax
    9669:	48 83 c0 08          	add    $0x8,%rax
    966d:	48 89 85 88 f9 ff ff 	mov    %rax,-0x678(%rbp)
    9674:	48 8d 05 f5 69 00 00 	lea    0x69f5(%rip),%rax        # 10070 <g_59>
    967b:	48 89 85 90 f9 ff ff 	mov    %rax,-0x670(%rbp)
    9682:	0f b7 85 c8 f8 ff ff 	movzwl -0x738(%rbp),%eax
    9689:	0f be d8             	movsbl %al,%ebx
    968c:	48 8b 85 20 f9 ff ff 	mov    -0x6e0(%rbp),%rax
    9693:	48 8b 95 60 f9 ff ff 	mov    -0x6a0(%rbp),%rdx
    969a:	48 89 10             	mov    %rdx,(%rax)
    969d:	48 8b 85 30 f9 ff ff 	mov    -0x6d0(%rbp),%rax
    96a4:	48 8d 15 dd 69 00 00 	lea    0x69dd(%rip),%rdx        # 10088 <g_103>
    96ab:	48 89 10             	mov    %rdx,(%rax)
    96ae:	48 8b 85 68 f9 ff ff 	mov    -0x698(%rbp),%rax
    96b5:	48 8d 95 18 f9 ff ff 	lea    -0x6e8(%rbp),%rdx
    96bc:	48 89 10             	mov    %rdx,(%rax)
    96bf:	48 8b 85 68 f9 ff ff 	mov    -0x698(%rbp),%rax
    96c6:	48 8b 10             	mov    (%rax),%rdx
    96c9:	48 8d 85 28 f9 ff ff 	lea    -0x6d8(%rbp),%rax
    96d0:	48 39 c2             	cmp    %rax,%rdx
    96d3:	8b 05 87 69 00 00    	mov    0x6987(%rip),%eax        # 10060 <g_15>
    96d9:	44 0f b7 e0          	movzwl %ax,%r12d
    96dd:	48 8b 85 70 f9 ff ff 	mov    -0x690(%rbp),%rax
    96e4:	c6 00 fd             	movb   $0xfd,(%rax)
    96e7:	0f b7 85 c8 f8 ff ff 	movzwl -0x738(%rbp),%eax
    96ee:	98                   	cwtl   
    96ef:	89 c6                	mov    %eax,%esi
    96f1:	bf 05 00 00 00       	mov    $0x5,%edi
    96f6:	e8 d1 af ff ff       	callq  46cc <safe_mod_func_int32_t_s_s>
    96fb:	83 c8 fd             	or     $0xfffffffd,%eax
    96fe:	48 98                	cltq   
    9700:	48 be 6f b5 70 ed b2 	movabs $0x7d6962b2ed70b56f,%rsi
    9707:	62 69 7d 
    970a:	48 89 c7             	mov    %rax,%rdi
    970d:	e8 1c b9 ff ff       	callq  502e <safe_add_func_uint64_t_u_u>
    9712:	48 83 f8 53          	cmp    $0x53,%rax
    9716:	0f 96 c0             	setbe  %al
    9719:	0f b6 c0             	movzbl %al,%eax
    971c:	44 89 e6             	mov    %r12d,%esi
    971f:	89 c7                	mov    %eax,%edi
    9721:	e8 17 b6 ff ff       	callq  4d3d <safe_mul_func_uint16_t_u_u>
    9726:	66 85 c0             	test   %ax,%ax
    9729:	75 0a                	jne    9735 <func_20+0x1182>
    972b:	8b 05 4b 69 00 00    	mov    0x694b(%rip),%eax        # 1007c <g_59+0xc>
    9731:	85 c0                	test   %eax,%eax
    9733:	74 07                	je     973c <func_20+0x1189>
    9735:	b8 01 00 00 00       	mov    $0x1,%eax
    973a:	eb 05                	jmp    9741 <func_20+0x118e>
    973c:	b8 00 00 00 00       	mov    $0x0,%eax
    9741:	3d d9 00 00 00       	cmp    $0xd9,%eax
    9746:	8b 95 cc f8 ff ff    	mov    -0x734(%rbp),%edx
    974c:	48 8b 85 78 f9 ff ff 	mov    -0x688(%rbp),%rax
    9753:	0f b6 00             	movzbl (%rax),%eax
    9756:	31 c2                	xor    %eax,%edx
    9758:	48 8b 85 78 f9 ff ff 	mov    -0x688(%rbp),%rax
    975f:	88 10                	mov    %dl,(%rax)
    9761:	48 8b 85 78 f9 ff ff 	mov    -0x688(%rbp),%rax
    9768:	0f b6 00             	movzbl (%rax),%eax
    976b:	0f be c0             	movsbl %al,%eax
    976e:	89 c6                	mov    %eax,%esi
    9770:	bf ff ff ff ff       	mov    $0xffffffff,%edi
    9775:	e8 f0 aa ff ff       	callq  426a <safe_div_func_int8_t_s_s>
    977a:	48 0f be c0          	movsbq %al,%rax
    977e:	48 be 38 6f 44 53 69 	movabs $0xab08536953446f38,%rsi
    9785:	53 08 ab 
    9788:	48 89 c7             	mov    %rax,%rdi
    978b:	e8 24 b2 ff ff       	callq  49b4 <safe_mod_func_int64_t_s_s>
    9790:	48 85 c0             	test   %rax,%rax
    9793:	75 09                	jne    979e <func_20+0x11eb>
    9795:	83 bd cc f8 ff ff 00 	cmpl   $0x0,-0x734(%rbp)
    979c:	74 07                	je     97a5 <func_20+0x11f2>
    979e:	b8 01 00 00 00       	mov    $0x1,%eax
    97a3:	eb 05                	jmp    97aa <func_20+0x11f7>
    97a5:	b8 00 00 00 00       	mov    $0x0,%eax
    97aa:	89 c2                	mov    %eax,%edx
    97ac:	48 8b 85 80 f9 ff ff 	mov    -0x680(%rbp),%rax
    97b3:	89 10                	mov    %edx,(%rax)
    97b5:	48 8b 85 80 f9 ff ff 	mov    -0x680(%rbp),%rax
    97bc:	8b 00                	mov    (%rax),%eax
    97be:	89 c2                	mov    %eax,%edx
    97c0:	48 8b 05 d9 77 00 00 	mov    0x77d9(%rip),%rax        # 10fa0 <g_18>
    97c7:	8b 00                	mov    (%rax),%eax
    97c9:	31 d0                	xor    %edx,%eax
    97cb:	0f b7 d0             	movzwl %ax,%edx
    97ce:	8b 85 d4 f8 ff ff    	mov    -0x72c(%rbp),%eax
    97d4:	0f b7 c0             	movzwl %ax,%eax
    97d7:	89 d6                	mov    %edx,%esi
    97d9:	89 c7                	mov    %eax,%edi
    97db:	e8 ae b5 ff ff       	callq  4d8e <safe_div_func_uint16_t_u_u>
    97e0:	0f be c0             	movsbl %al,%eax
    97e3:	89 de                	mov    %ebx,%esi
    97e5:	89 c7                	mov    %eax,%edi
    97e7:	e8 26 aa ff ff       	callq  4212 <safe_mul_func_int8_t_s_s>
    97ec:	48 8b 95 10 f9 ff ff 	mov    -0x6f0(%rbp),%rdx
    97f3:	8b 0a                	mov    (%rdx),%ecx
    97f5:	0f be d0             	movsbl %al,%edx
    97f8:	48 8b 85 10 f9 ff ff 	mov    -0x6f0(%rbp),%rax
    97ff:	31 ca                	xor    %ecx,%edx
    9801:	89 10                	mov    %edx,(%rax)
    9803:	0f b6 05 31 69 00 00 	movzbl 0x6931(%rip),%eax        # 1013b <g_203+0x3>
    980a:	48 0f be d8          	movsbq %al,%rbx
    980e:	0f b7 85 c8 f8 ff ff 	movzwl -0x738(%rbp),%eax
    9815:	98                   	cwtl   
    9816:	89 85 c4 f8 ff ff    	mov    %eax,-0x73c(%rbp)
    981c:	8b 05 5e 68 00 00    	mov    0x685e(%rip),%eax        # 10080 <g_62>
    9822:	44 0f be e0          	movsbl %al,%r12d
    9826:	0f b7 05 57 68 00 00 	movzwl 0x6857(%rip),%eax        # 10084 <g_78>
    982d:	44 0f b6 e8          	movzbl %al,%r13d
    9831:	48 8b 85 88 f9 ff ff 	mov    -0x678(%rbp),%rax
    9838:	0f b7 00             	movzwl (%rax),%eax
    983b:	89 c2                	mov    %eax,%edx
    983d:	8b 85 f8 f8 ff ff    	mov    -0x708(%rbp),%eax
    9843:	31 d0                	xor    %edx,%eax
    9845:	89 c2                	mov    %eax,%edx
    9847:	48 8b 85 88 f9 ff ff 	mov    -0x678(%rbp),%rax
    984e:	66 89 10             	mov    %dx,(%rax)
    9851:	8b 05 39 68 00 00    	mov    0x6839(%rip),%eax        # 10090 <g_112>
    9857:	44 0f bf f0          	movswl %ax,%r14d
    985b:	0f b6 05 d9 68 00 00 	movzbl 0x68d9(%rip),%eax        # 1013b <g_203+0x3>
    9862:	4c 0f be f8          	movsbq %al,%r15
    9866:	b8 01 00 00 00       	mov    $0x1,%eax
    986b:	0f b7 c0             	movzwl %ax,%eax
    986e:	be 0b 00 00 00       	mov    $0xb,%esi
    9873:	89 c7                	mov    %eax,%edi
    9875:	e8 8c b5 ff ff       	callq  4e06 <safe_lshift_func_uint16_t_u_u>
    987a:	0f b7 d0             	movzwl %ax,%edx
    987d:	0f b7 85 c8 f8 ff ff 	movzwl -0x738(%rbp),%eax
    9884:	98                   	cwtl   
    9885:	09 d0                	or     %edx,%eax
    9887:	48 98                	cltq   
    9889:	4c 89 fe             	mov    %r15,%rsi
    988c:	48 89 c7             	mov    %rax,%rdi
    988f:	e8 ad af ff ff       	callq  4841 <safe_add_func_int64_t_s_s>
    9894:	44 89 f6             	mov    %r14d,%esi
    9897:	bf 01 00 00 00       	mov    $0x1,%edi
    989c:	e8 b4 ab ff ff       	callq  4455 <safe_div_func_int16_t_s_s>
    98a1:	0f bf d0             	movswl %ax,%edx
    98a4:	48 8b 85 80 f9 ff ff 	mov    -0x680(%rbp),%rax
    98ab:	89 10                	mov    %edx,(%rax)
    98ad:	48 8b 85 80 f9 ff ff 	mov    -0x680(%rbp),%rax
    98b4:	8b 10                	mov    (%rax),%edx
    98b6:	48 8b 85 10 f9 ff ff 	mov    -0x6f0(%rbp),%rax
    98bd:	8b 00                	mov    (%rax),%eax
    98bf:	39 c2                	cmp    %eax,%edx
    98c1:	0f 94 c0             	sete   %al
    98c4:	0f b6 d0             	movzbl %al,%edx
    98c7:	8b 05 6f 6a 00 00    	mov    0x6a6f(%rip),%eax        # 1033c <g_261+0x1dc>
    98cd:	09 d0                	or     %edx,%eax
    98cf:	89 05 67 6a 00 00    	mov    %eax,0x6a67(%rip)        # 1033c <g_261+0x1dc>
    98d5:	8b 05 61 6a 00 00    	mov    0x6a61(%rip),%eax        # 1033c <g_261+0x1dc>
    98db:	89 c6                	mov    %eax,%esi
    98dd:	bf 9d 00 00 00       	mov    $0x9d,%edi
    98e2:	e8 1e b3 ff ff       	callq  4c05 <safe_lshift_func_uint8_t_u_s>
    98e7:	0f b6 c0             	movzbl %al,%eax
    98ea:	be 01 00 00 00       	mov    $0x1,%esi
    98ef:	89 c7                	mov    %eax,%edi
    98f1:	e8 0f ad ff ff       	callq  4605 <safe_sub_func_int32_t_s_s>
    98f6:	83 bd cc f8 ff ff 00 	cmpl   $0x0,-0x734(%rbp)
    98fd:	0f 95 c0             	setne  %al
    9900:	0f b6 c0             	movzbl %al,%eax
    9903:	44 89 ee             	mov    %r13d,%esi
    9906:	89 c7                	mov    %eax,%edi
    9908:	e8 6b b2 ff ff       	callq  4b78 <safe_sub_func_uint8_t_u_u>
    990d:	0f b7 85 c8 f8 ff ff 	movzwl -0x738(%rbp),%eax
    9914:	66 85 c0             	test   %ax,%ax
    9917:	0f 9e c0             	setle  %al
    991a:	0f b6 c0             	movzbl %al,%eax
    991d:	44 89 e6             	mov    %r12d,%esi
    9920:	89 c7                	mov    %eax,%edi
    9922:	e8 eb a8 ff ff       	callq  4212 <safe_mul_func_int8_t_s_s>
    9927:	0f be c0             	movsbl %al,%eax
    992a:	be ff ff ff ff       	mov    $0xffffffff,%esi
    992f:	89 c7                	mov    %eax,%edi
    9931:	e8 96 ad ff ff       	callq  46cc <safe_mod_func_int32_t_s_s>
    9936:	39 85 c4 f8 ff ff    	cmp    %eax,-0x73c(%rbp)
    993c:	0f 9d c0             	setge  %al
    993f:	0f b6 c0             	movzbl %al,%eax
    9942:	48 89 de             	mov    %rbx,%rsi
    9945:	48 89 c7             	mov    %rax,%rdi
    9948:	e8 fe b6 ff ff       	callq  504b <safe_sub_func_uint64_t_u_u>
    994d:	83 e0 04             	and    $0x4,%eax
    9950:	48 be eb a6 bf d7 2e 	movabs $0xa3699c2ed7bfa6eb,%rsi
    9957:	9c 69 a3 
    995a:	48 89 c7             	mov    %rax,%rdi
    995d:	e8 95 b0 ff ff       	callq  49f7 <safe_div_func_int64_t_s_s>
    9962:	89 c2                	mov    %eax,%edx
    9964:	8b 85 d4 f8 ff ff    	mov    -0x72c(%rbp),%eax
    996a:	21 d0                	and    %edx,%eax
    996c:	89 85 d4 f8 ff ff    	mov    %eax,-0x72c(%rbp)
    9972:	48 c7 05 5b 67 00 00 	movq   $0x0,0x675b(%rip)        # 100d8 <g_171>
    9979:	00 00 00 00 
    997d:	e9 61 01 00 00       	jmpq   9ae3 <func_20+0x1530>
    9982:	48 c7 85 98 f9 ff ff 	movq   $0x0,-0x668(%rbp)
    9989:	00 00 00 00 
    998d:	48 c7 05 00 67 00 00 	movq   $0x6,0x6700(%rip)        # 10098 <g_130>
    9994:	06 00 00 00 
    9998:	90                   	nop
    9999:	48 8b 05 f8 66 00 00 	mov    0x66f8(%rip),%rax        # 10098 <g_130>
    99a0:	48 83 f8 39          	cmp    $0x39,%rax
    99a4:	0f 87 12 01 00 00    	ja     9abc <func_20+0x1509>
    99aa:	66 c7 85 d2 f8 ff ff 	movw   $0x735a,-0x72e(%rbp)
    99b1:	5a 73 
    99b3:	0f b7 85 c8 f8 ff ff 	movzwl -0x738(%rbp),%eax
    99ba:	98                   	cwtl   
    99bb:	8b 95 f8 f8 ff ff    	mov    -0x708(%rbp),%edx
    99c1:	89 d6                	mov    %edx,%esi
    99c3:	89 c7                	mov    %eax,%edi
    99c5:	e8 ec ab ff ff       	callq  45b6 <safe_add_func_int32_t_s_s>
    99ca:	85 c0                	test   %eax,%eax
    99cc:	0f 84 d0 00 00 00    	je     9aa2 <func_20+0x14ef>
    99d2:	48 8d 05 47 6b 00 00 	lea    0x6b47(%rip),%rax        # 10520 <g_270>
    99d9:	48 89 85 a0 f9 ff ff 	mov    %rax,-0x660(%rbp)
    99e0:	c7 85 d8 f8 ff ff 00 	movl   $0x0,-0x728(%rbp)
    99e7:	00 00 00 
    99ea:	eb 6e                	jmp    9a5a <func_20+0x14a7>
    99ec:	c7 85 dc f8 ff ff 00 	movl   $0x0,-0x724(%rbp)
    99f3:	00 00 00 
    99f6:	eb 52                	jmp    9a4a <func_20+0x1497>
    99f8:	c7 85 e0 f8 ff ff 00 	movl   $0x0,-0x720(%rbp)
    99ff:	00 00 00 
    9a02:	eb 36                	jmp    9a3a <func_20+0x1487>
    9a04:	8b 85 e0 f8 ff ff    	mov    -0x720(%rbp),%eax
    9a0a:	48 98                	cltq   
    9a0c:	8b 95 d8 f8 ff ff    	mov    -0x728(%rbp),%edx
    9a12:	48 63 ca             	movslq %edx,%rcx
    9a15:	8b 95 dc f8 ff ff    	mov    -0x724(%rbp),%edx
    9a1b:	48 63 d2             	movslq %edx,%rdx
    9a1e:	48 01 ca             	add    %rcx,%rdx
    9a21:	48 c1 e2 02          	shl    $0x2,%rdx
    9a25:	48 01 d0             	add    %rdx,%rax
    9a28:	c7 84 85 c0 fa ff ff 	movl   $0x9,-0x540(%rbp,%rax,4)
    9a2f:	09 00 00 00 
    9a33:	83 85 e0 f8 ff ff 01 	addl   $0x1,-0x720(%rbp)
    9a3a:	83 bd e0 f8 ff ff 03 	cmpl   $0x3,-0x720(%rbp)
    9a41:	7e c1                	jle    9a04 <func_20+0x1451>
    9a43:	83 85 dc f8 ff ff 01 	addl   $0x1,-0x724(%rbp)
    9a4a:	83 bd dc f8 ff ff 00 	cmpl   $0x0,-0x724(%rbp)
    9a51:	7e a5                	jle    99f8 <func_20+0x1445>
    9a53:	83 85 d8 f8 ff ff 01 	addl   $0x1,-0x728(%rbp)
    9a5a:	83 bd d8 f8 ff ff 07 	cmpl   $0x7,-0x728(%rbp)
    9a61:	7e 89                	jle    99ec <func_20+0x1439>
    9a63:	8b 85 2c fb ff ff    	mov    -0x4d4(%rbp),%eax
    9a69:	83 e0 fb             	and    $0xfffffffb,%eax
    9a6c:	89 85 2c fb ff ff    	mov    %eax,-0x4d4(%rbp)
    9a72:	48 8b 85 a0 f9 ff ff 	mov    -0x660(%rbp),%rax
    9a79:	8b 15 a1 6a 00 00    	mov    0x6aa1(%rip),%edx        # 10520 <g_270>
    9a7f:	89 10                	mov    %edx,(%rax)
    9a81:	0f b7 15 9c 6a 00 00 	movzwl 0x6a9c(%rip),%edx        # 10524 <g_270+0x4>
    9a88:	66 89 50 04          	mov    %dx,0x4(%rax)
    9a8c:	0f b6 15 93 6a 00 00 	movzbl 0x6a93(%rip),%edx        # 10526 <g_270+0x6>
    9a93:	88 50 06             	mov    %dl,0x6(%rax)
    9a96:	0f b7 85 d2 f8 ff ff 	movzwl -0x72e(%rbp),%eax
    9a9d:	e9 77 03 00 00       	jmpq   9e19 <func_20+0x1866>
    9aa2:	48 8b 85 98 f9 ff ff 	mov    -0x668(%rbp),%rax
    9aa9:	48 89 05 f8 74 00 00 	mov    %rax,0x74f8(%rip)        # 10fa8 <g_189>
    9ab0:	0f b7 85 d0 f8 ff ff 	movzwl -0x730(%rbp),%eax
    9ab7:	e9 5d 03 00 00       	jmpq   9e19 <func_20+0x1866>
    9abc:	48 8b 85 58 f9 ff ff 	mov    -0x6a8(%rbp),%rax
    9ac3:	48 89 05 f6 74 00 00 	mov    %rax,0x74f6(%rip)        # 10fc0 <g_277>
    9aca:	83 ad ec f8 ff ff 01 	subl   $0x1,-0x714(%rbp)
    9ad1:	48 8b 05 00 66 00 00 	mov    0x6600(%rip),%rax        # 100d8 <g_171>
    9ad8:	48 83 c0 01          	add    $0x1,%rax
    9adc:	48 89 05 f5 65 00 00 	mov    %rax,0x65f5(%rip)        # 100d8 <g_171>
    9ae3:	48 8b 05 ee 65 00 00 	mov    0x65ee(%rip),%rax        # 100d8 <g_171>
    9aea:	48 83 f8 08          	cmp    $0x8,%rax
    9aee:	0f 8f 8e fe ff ff    	jg     9982 <func_20+0x13cf>
    9af4:	48 c7 85 90 f9 ff ff 	movq   $0x0,-0x670(%rbp)
    9afb:	00 00 00 00 
    9aff:	8b 05 8b 65 00 00    	mov    0x658b(%rip),%eax        # 10090 <g_112>
    9b05:	0f be c0             	movsbl %al,%eax
    9b08:	be 05 00 00 00       	mov    $0x5,%esi
    9b0d:	89 c7                	mov    %eax,%edi
    9b0f:	e8 de a6 ff ff       	callq  41f2 <safe_sub_func_int8_t_s_s>
    9b14:	0f be c0             	movsbl %al,%eax
    9b17:	89 05 73 65 00 00    	mov    %eax,0x6573(%rip)        # 10090 <g_112>
    9b1d:	8b 05 6d 65 00 00    	mov    0x656d(%rip),%eax        # 10090 <g_112>
    9b23:	83 f8 f5             	cmp    $0xfffffff5,%eax
    9b26:	0f 84 bf fa ff ff    	je     95eb <func_20+0x1038>
    9b2c:	83 85 cc f8 ff ff 01 	addl   $0x1,-0x734(%rbp)
    9b33:	83 bd cc f8 ff ff 30 	cmpl   $0x30,-0x734(%rbp)
    9b3a:	0f 86 4a ec ff ff    	jbe    878a <func_20+0x1d7>
    9b40:	c6 05 df 69 00 00 ee 	movb   $0xee,0x69df(%rip)        # 10526 <g_270+0x6>
    9b47:	e9 b7 02 00 00       	jmpq   9e03 <func_20+0x1850>
    9b4c:	66 c7 85 30 f9 ff ff 	movw   $0xfffd,-0x6d0(%rbp)
    9b53:	fd ff 
    9b55:	48 8d 05 4c 74 00 00 	lea    0x744c(%rip),%rax        # 10fa8 <g_189>
    9b5c:	48 89 85 38 f9 ff ff 	mov    %rax,-0x6c8(%rbp)
    9b63:	48 8d 05 f6 64 00 00 	lea    0x64f6(%rip),%rax        # 10060 <g_15>
    9b6a:	48 89 85 40 fd ff ff 	mov    %rax,-0x2c0(%rbp)
    9b71:	48 8d 05 e8 64 00 00 	lea    0x64e8(%rip),%rax        # 10060 <g_15>
    9b78:	48 89 85 48 fd ff ff 	mov    %rax,-0x2b8(%rbp)
    9b7f:	48 8d 05 da 64 00 00 	lea    0x64da(%rip),%rax        # 10060 <g_15>
    9b86:	48 89 85 50 fd ff ff 	mov    %rax,-0x2b0(%rbp)
    9b8d:	48 8d 05 cc 64 00 00 	lea    0x64cc(%rip),%rax        # 10060 <g_15>
    9b94:	48 89 85 58 fd ff ff 	mov    %rax,-0x2a8(%rbp)
    9b9b:	48 8d 05 be 64 00 00 	lea    0x64be(%rip),%rax        # 10060 <g_15>
    9ba2:	48 89 85 60 fd ff ff 	mov    %rax,-0x2a0(%rbp)
    9ba9:	48 8d 05 b0 64 00 00 	lea    0x64b0(%rip),%rax        # 10060 <g_15>
    9bb0:	48 89 85 68 fd ff ff 	mov    %rax,-0x298(%rbp)
    9bb7:	48 8d 05 a2 64 00 00 	lea    0x64a2(%rip),%rax        # 10060 <g_15>
    9bbe:	48 89 85 70 fd ff ff 	mov    %rax,-0x290(%rbp)
    9bc5:	48 8d 05 94 64 00 00 	lea    0x6494(%rip),%rax        # 10060 <g_15>
    9bcc:	48 89 85 78 fd ff ff 	mov    %rax,-0x288(%rbp)
    9bd3:	48 8d 05 86 64 00 00 	lea    0x6486(%rip),%rax        # 10060 <g_15>
    9bda:	48 89 85 80 fd ff ff 	mov    %rax,-0x280(%rbp)
    9be1:	66 c7 05 be 79 00 00 	movw   $0x0,0x79be(%rip)        # 115a8 <g_76>
    9be8:	00 00 
    9bea:	e9 b1 01 00 00       	jmpq   9da0 <func_20+0x17ed>
    9bef:	c7 85 f4 f8 ff ff fa 	movl   $0xfffffffa,-0x70c(%rbp)
    9bf6:	ff ff ff 
    9bf9:	48 c7 85 40 f9 ff ff 	movq   $0x0,-0x6c0(%rbp)
    9c00:	00 00 00 00 
    9c04:	48 8d 05 32 65 00 00 	lea    0x6532(%rip),%rax        # 1013d <g_203+0x5>
    9c0b:	48 89 85 48 f9 ff ff 	mov    %rax,-0x6b8(%rbp)
    9c12:	48 8d 05 47 64 00 00 	lea    0x6447(%rip),%rax        # 10060 <g_15>
    9c19:	48 89 85 50 f9 ff ff 	mov    %rax,-0x6b0(%rbp)
    9c20:	44 8b a5 f0 f8 ff ff 	mov    -0x710(%rbp),%r12d
    9c27:	8b 05 7b 64 00 00    	mov    0x647b(%rip),%eax        # 100a8 <g_138+0x8>
    9c2d:	0f b7 d8             	movzwl %ax,%ebx
    9c30:	b8 86 97 3d ce       	mov    $0xce3d9786,%eax
    9c35:	44 0f b6 f8          	movzbl %al,%r15d
    9c39:	4c 8b ad 48 fd ff ff 	mov    -0x2b8(%rbp),%r13
    9c40:	8b 05 66 64 00 00    	mov    0x6466(%rip),%eax        # 100ac <g_138+0xc>
    9c46:	44 0f bf f0          	movswl %ax,%r14d
    9c4a:	48 8d 05 5f 73 00 00 	lea    0x735f(%rip),%rax        # 10fb0 <g_280>
    9c51:	48 8b 00             	mov    (%rax),%rax
    9c54:	48 8b 00             	mov    (%rax),%rax
    9c57:	48 89 c1             	mov    %rax,%rcx
    9c5a:	48 8b 85 10 f9 ff ff 	mov    -0x6f0(%rbp),%rax
    9c61:	8b 95 f4 f8 ff ff    	mov    -0x70c(%rbp),%edx
    9c67:	89 10                	mov    %edx,(%rax)
    9c69:	8b 00                	mov    (%rax),%eax
    9c6b:	85 c0                	test   %eax,%eax
    9c6d:	74 10                	je     9c7f <func_20+0x16cc>
    9c6f:	83 bd cc f8 ff ff 00 	cmpl   $0x0,-0x734(%rbp)
    9c76:	74 07                	je     9c7f <func_20+0x16cc>
    9c78:	b8 01 00 00 00       	mov    $0x1,%eax
    9c7d:	eb 05                	jmp    9c84 <func_20+0x16d1>
    9c7f:	b8 00 00 00 00       	mov    $0x0,%eax
    9c84:	48 98                	cltq   
    9c86:	48 89 ce             	mov    %rcx,%rsi
    9c89:	48 89 c7             	mov    %rax,%rdi
    9c8c:	e8 1e b4 ff ff       	callq  50af <safe_div_func_uint64_t_u_u>
    9c91:	48 8b 05 18 73 00 00 	mov    0x7318(%rip),%rax        # 10fb0 <g_280>
    9c98:	48 8b 10             	mov    (%rax),%rdx
    9c9b:	0f b7 85 c8 f8 ff ff 	movzwl -0x738(%rbp),%eax
    9ca2:	48 0f bf c0          	movswq %ax,%rax
    9ca6:	48 39 c2             	cmp    %rax,%rdx
    9ca9:	0f 9e c0             	setle  %al
    9cac:	89 c2                	mov    %eax,%edx
    9cae:	48 8b 85 48 f9 ff ff 	mov    -0x6b8(%rbp),%rax
    9cb5:	88 10                	mov    %dl,(%rax)
    9cb7:	48 8b 85 48 f9 ff ff 	mov    -0x6b8(%rbp),%rax
    9cbe:	0f b6 00             	movzbl (%rax),%eax
    9cc1:	66 0f be d0          	movsbw %al,%dx
    9cc5:	0f b7 85 c8 f8 ff ff 	movzwl -0x738(%rbp),%eax
    9ccc:	66 39 c2             	cmp    %ax,%dx
    9ccf:	0f 9d c0             	setge  %al
    9cd2:	0f b6 c0             	movzbl %al,%eax
    9cd5:	44 89 f6             	mov    %r14d,%esi
    9cd8:	89 c7                	mov    %eax,%edi
    9cda:	e8 16 a7 ff ff       	callq  43f5 <safe_mul_func_int16_t_s_s>
    9cdf:	0f b7 95 c8 f8 ff ff 	movzwl -0x738(%rbp),%edx
    9ce6:	21 d0                	and    %edx,%eax
    9ce8:	0f bf d0             	movswl %ax,%edx
    9ceb:	8b 85 cc f8 ff ff    	mov    -0x734(%rbp),%eax
    9cf1:	0f b7 c0             	movzwl %ax,%eax
    9cf4:	89 d6                	mov    %edx,%esi
    9cf6:	89 c7                	mov    %eax,%edi
    9cf8:	e8 09 b1 ff ff       	callq  4e06 <safe_lshift_func_uint16_t_u_u>
    9cfd:	48 8b 05 b4 72 00 00 	mov    0x72b4(%rip),%rax        # 10fb8 <g_278>
    9d04:	48 8b 00             	mov    (%rax),%rax
    9d07:	48 8b 00             	mov    (%rax),%rax
    9d0a:	48 8b 00             	mov    (%rax),%rax
    9d0d:	83 c8 01             	or     $0x1,%eax
    9d10:	0f b6 c0             	movzbl %al,%eax
    9d13:	45 89 f8             	mov    %r15d,%r8d
    9d16:	48 8d 0d 43 63 00 00 	lea    0x6343(%rip),%rcx        # 10060 <g_15>
    9d1d:	4c 89 ea             	mov    %r13,%rdx
    9d20:	48 8d 35 39 63 00 00 	lea    0x6339(%rip),%rsi        # 10060 <g_15>
    9d27:	89 c7                	mov    %eax,%edi
    9d29:	e8 09 13 00 00       	callq  b037 <func_49>
    9d2e:	89 c7                	mov    %eax,%edi
    9d30:	48 8b 85 50 f9 ff ff 	mov    -0x6b0(%rbp),%rax
    9d37:	4c 89 e1             	mov    %r12,%rcx
    9d3a:	89 da                	mov    %ebx,%edx
    9d3c:	48 89 c6             	mov    %rax,%rsi
    9d3f:	e8 fb 00 00 00       	callq  9e3f <func_31>
    9d44:	48 8b 85 38 f9 ff ff 	mov    -0x6c8(%rbp),%rax
    9d4b:	48 8b 00             	mov    (%rax),%rax
    9d4e:	8b 10                	mov    (%rax),%edx
    9d50:	0f b7 85 c8 f8 ff ff 	movzwl -0x738(%rbp),%eax
    9d57:	98                   	cwtl   
    9d58:	39 c2                	cmp    %eax,%edx
    9d5a:	0f 95 c0             	setne  %al
    9d5d:	0f b6 c0             	movzbl %al,%eax
    9d60:	48 8b 1d 41 72 00 00 	mov    0x7241(%rip),%rbx        # 10fa8 <g_189>
    9d67:	89 c7                	mov    %eax,%edi
    9d69:	e8 28 a8 ff ff       	callq  4596 <safe_unary_minus_func_int32_t_s>
    9d6e:	89 03                	mov    %eax,(%rbx)
    9d70:	48 8b 85 38 f9 ff ff 	mov    -0x6c8(%rbp),%rax
    9d77:	48 8d 15 12 63 00 00 	lea    0x6312(%rip),%rdx        # 10090 <g_112>
    9d7e:	48 89 10             	mov    %rdx,(%rax)
    9d81:	0f b7 05 20 78 00 00 	movzwl 0x7820(%rip),%eax        # 115a8 <g_76>
    9d88:	0f be c0             	movsbl %al,%eax
    9d8b:	be 01 00 00 00       	mov    $0x1,%esi
    9d90:	89 c7                	mov    %eax,%edi
    9d92:	e8 3d a4 ff ff       	callq  41d4 <safe_add_func_int8_t_s_s>
    9d97:	66 98                	cbtw   
    9d99:	66 89 05 08 78 00 00 	mov    %ax,0x7808(%rip)        # 115a8 <g_76>
    9da0:	0f b7 05 01 78 00 00 	movzwl 0x7801(%rip),%eax        # 115a8 <g_76>
    9da7:	66 83 f8 04          	cmp    $0x4,%ax
    9dab:	0f 87 3e fe ff ff    	ja     9bef <func_20+0x163c>
    9db1:	66 c7 05 6a 67 00 00 	movw   $0x0,0x676a(%rip)        # 10524 <g_270+0x4>
    9db8:	00 00 
    9dba:	eb 2a                	jmp    9de6 <func_20+0x1833>
    9dbc:	0f b7 05 61 67 00 00 	movzwl 0x6761(%rip),%eax        # 10524 <g_270+0x4>
    9dc3:	98                   	cwtl   
    9dc4:	48 98                	cltq   
    9dc6:	48 8d 95 10 f9 ff ff 	lea    -0x6f0(%rbp),%rdx
    9dcd:	48 89 94 c5 40 fa ff 	mov    %rdx,-0x5c0(%rbp,%rax,8)
    9dd4:	ff 
    9dd5:	0f b7 05 48 67 00 00 	movzwl 0x6748(%rip),%eax        # 10524 <g_270+0x4>
    9ddc:	83 c0 01             	add    $0x1,%eax
    9ddf:	66 89 05 3e 67 00 00 	mov    %ax,0x673e(%rip)        # 10524 <g_270+0x4>
    9de6:	0f b7 05 37 67 00 00 	movzwl 0x6737(%rip),%eax        # 10524 <g_270+0x4>
    9ded:	66 83 f8 07          	cmp    $0x7,%ax
    9df1:	7e c9                	jle    9dbc <func_20+0x1809>
    9df3:	0f b6 05 2c 67 00 00 	movzbl 0x672c(%rip),%eax        # 10526 <g_270+0x6>
    9dfa:	83 c0 01             	add    $0x1,%eax
    9dfd:	88 05 23 67 00 00    	mov    %al,0x6723(%rip)        # 10526 <g_270+0x6>
    9e03:	0f b6 05 1c 67 00 00 	movzbl 0x671c(%rip),%eax        # 10526 <g_270+0x6>
    9e0a:	3c 29                	cmp    $0x29,%al
    9e0c:	0f 84 3a fd ff ff    	je     9b4c <func_20+0x1599>
    9e12:	0f b7 05 8f 77 00 00 	movzwl 0x778f(%rip),%eax        # 115a8 <g_76>
    9e19:	48 8b 5d c8          	mov    -0x38(%rbp),%rbx
    9e1d:	64 48 33 1c 25 28 00 	xor    %fs:0x28,%rbx
    9e24:	00 00 
    9e26:	74 05                	je     9e2d <func_20+0x187a>
    9e28:	e8 43 a2 ff ff       	callq  4070 <__stack_chk_fail@plt>
    9e2d:	48 81 c4 18 07 00 00 	add    $0x718,%rsp
    9e34:	5b                   	pop    %rbx
    9e35:	41 5c                	pop    %r12
    9e37:	41 5d                	pop    %r13
    9e39:	41 5e                	pop    %r14
    9e3b:	41 5f                	pop    %r15
    9e3d:	5d                   	pop    %rbp
    9e3e:	c3                   	retq   

0000000000009e3f <func_31>:
    9e3f:	f3 0f 1e fa          	endbr64 
    9e43:	55                   	push   %rbp
    9e44:	48 89 e5             	mov    %rsp,%rbp
    9e47:	66 89 7d fe          	mov    %di,-0x2(%rbp)
    9e4b:	48 89 75 f0          	mov    %rsi,-0x10(%rbp)
    9e4f:	89 d0                	mov    %edx,%eax
    9e51:	48 89 4d e8          	mov    %rcx,-0x18(%rbp)
    9e55:	66 89 45 fc          	mov    %ax,-0x4(%rbp)
    9e59:	0f b7 05 48 77 00 00 	movzwl 0x7748(%rip),%eax        # 115a8 <g_76>
    9e60:	5d                   	pop    %rbp
    9e61:	c3                   	retq   

0000000000009e62 <func_38>:
    9e62:	f3 0f 1e fa          	endbr64 
    9e66:	55                   	push   %rbp
    9e67:	48 89 e5             	mov    %rsp,%rbp
    9e6a:	41 56                	push   %r14
    9e6c:	41 55                	push   %r13
    9e6e:	41 54                	push   %r12
    9e70:	53                   	push   %rbx
    9e71:	48 81 ec 20 08 00 00 	sub    $0x820,%rsp
    9e78:	48 89 bd d8 f7 ff ff 	mov    %rdi,-0x828(%rbp)
    9e7f:	89 d0                	mov    %edx,%eax
    9e81:	48 89 8d c8 f7 ff ff 	mov    %rcx,-0x838(%rbp)
    9e88:	89 f2                	mov    %esi,%edx
    9e8a:	66 89 95 d4 f7 ff ff 	mov    %dx,-0x82c(%rbp)
    9e91:	66 89 85 d0 f7 ff ff 	mov    %ax,-0x830(%rbp)
    9e98:	64 48 8b 04 25 28 00 	mov    %fs:0x28,%rax
    9e9f:	00 00 
    9ea1:	48 89 45 d8          	mov    %rax,-0x28(%rbp)
    9ea5:	31 c0                	xor    %eax,%eax
    9ea7:	c7 85 e0 f7 ff ff dd 	movl   $0x631b5fdd,-0x820(%rbp)
    9eae:	5f 1b 63 
    9eb1:	48 b8 08 b8 ee 6d 08 	movabs $0x1fa0a7086deeb808,%rax
    9eb8:	a7 a0 1f 
    9ebb:	48 89 85 e8 f7 ff ff 	mov    %rax,-0x818(%rbp)
    9ec2:	48 c7 85 50 f8 ff ff 	movq   $0x0,-0x7b0(%rbp)
    9ec9:	00 00 00 00 
    9ecd:	48 8d 85 e8 f7 ff ff 	lea    -0x818(%rbp),%rax
    9ed4:	48 89 85 58 f8 ff ff 	mov    %rax,-0x7a8(%rbp)
    9edb:	48 8d 85 e8 f7 ff ff 	lea    -0x818(%rbp),%rax
    9ee2:	48 89 85 60 f8 ff ff 	mov    %rax,-0x7a0(%rbp)
    9ee9:	48 8d 85 e8 f7 ff ff 	lea    -0x818(%rbp),%rax
    9ef0:	48 89 85 68 f8 ff ff 	mov    %rax,-0x798(%rbp)
    9ef7:	48 8d 85 e8 f7 ff ff 	lea    -0x818(%rbp),%rax
    9efe:	48 89 85 70 f8 ff ff 	mov    %rax,-0x790(%rbp)
    9f05:	48 c7 85 78 f8 ff ff 	movq   $0x0,-0x788(%rbp)
    9f0c:	00 00 00 00 
    9f10:	48 8d 85 e8 f7 ff ff 	lea    -0x818(%rbp),%rax
    9f17:	48 89 85 80 f8 ff ff 	mov    %rax,-0x780(%rbp)
    9f1e:	48 8d 85 e8 f7 ff ff 	lea    -0x818(%rbp),%rax
    9f25:	48 89 85 88 f8 ff ff 	mov    %rax,-0x778(%rbp)
    9f2c:	48 8d 85 e8 f7 ff ff 	lea    -0x818(%rbp),%rax
    9f33:	48 89 85 90 f8 ff ff 	mov    %rax,-0x770(%rbp)
    9f3a:	48 8d 85 e8 f7 ff ff 	lea    -0x818(%rbp),%rax
    9f41:	48 89 85 98 f8 ff ff 	mov    %rax,-0x768(%rbp)
    9f48:	48 8d 85 e8 f7 ff ff 	lea    -0x818(%rbp),%rax
    9f4f:	48 89 85 a0 f8 ff ff 	mov    %rax,-0x760(%rbp)
    9f56:	48 c7 85 a8 f8 ff ff 	movq   $0x0,-0x758(%rbp)
    9f5d:	00 00 00 00 
    9f61:	48 c7 85 b0 f8 ff ff 	movq   $0x0,-0x750(%rbp)
    9f68:	00 00 00 00 
    9f6c:	48 8d 85 e8 f7 ff ff 	lea    -0x818(%rbp),%rax
    9f73:	48 89 85 b8 f8 ff ff 	mov    %rax,-0x748(%rbp)
    9f7a:	48 8d 85 e8 f7 ff ff 	lea    -0x818(%rbp),%rax
    9f81:	48 89 85 c0 f8 ff ff 	mov    %rax,-0x740(%rbp)
    9f88:	48 8d 85 e8 f7 ff ff 	lea    -0x818(%rbp),%rax
    9f8f:	48 89 85 c8 f8 ff ff 	mov    %rax,-0x738(%rbp)
    9f96:	48 8d 85 e8 f7 ff ff 	lea    -0x818(%rbp),%rax
    9f9d:	48 89 85 d0 f8 ff ff 	mov    %rax,-0x730(%rbp)
    9fa4:	48 c7 85 d8 f8 ff ff 	movq   $0x0,-0x728(%rbp)
    9fab:	00 00 00 00 
    9faf:	48 c7 85 e0 f8 ff ff 	movq   $0x0,-0x720(%rbp)
    9fb6:	00 00 00 00 
    9fba:	48 8d 85 e8 f7 ff ff 	lea    -0x818(%rbp),%rax
    9fc1:	48 89 85 e8 f8 ff ff 	mov    %rax,-0x718(%rbp)
    9fc8:	48 c7 85 f0 f8 ff ff 	movq   $0x0,-0x710(%rbp)
    9fcf:	00 00 00 00 
    9fd3:	48 c7 85 f8 f8 ff ff 	movq   $0x0,-0x708(%rbp)
    9fda:	00 00 00 00 
    9fde:	48 8d 85 e8 f7 ff ff 	lea    -0x818(%rbp),%rax
    9fe5:	48 89 85 00 f9 ff ff 	mov    %rax,-0x700(%rbp)
    9fec:	48 8d 85 e8 f7 ff ff 	lea    -0x818(%rbp),%rax
    9ff3:	48 89 85 08 f9 ff ff 	mov    %rax,-0x6f8(%rbp)
    9ffa:	48 8d 85 e8 f7 ff ff 	lea    -0x818(%rbp),%rax
    a001:	48 89 85 10 f9 ff ff 	mov    %rax,-0x6f0(%rbp)
    a008:	48 8d 85 e8 f7 ff ff 	lea    -0x818(%rbp),%rax
    a00f:	48 89 85 18 f9 ff ff 	mov    %rax,-0x6e8(%rbp)
    a016:	48 c7 85 20 f9 ff ff 	movq   $0x0,-0x6e0(%rbp)
    a01d:	00 00 00 00 
    a021:	48 8d 85 e8 f7 ff ff 	lea    -0x818(%rbp),%rax
    a028:	48 89 85 28 f9 ff ff 	mov    %rax,-0x6d8(%rbp)
    a02f:	48 8d 85 e8 f7 ff ff 	lea    -0x818(%rbp),%rax
    a036:	48 89 85 30 f9 ff ff 	mov    %rax,-0x6d0(%rbp)
    a03d:	48 c7 85 38 f9 ff ff 	movq   $0x0,-0x6c8(%rbp)
    a044:	00 00 00 00 
    a048:	48 8d 85 e8 f7 ff ff 	lea    -0x818(%rbp),%rax
    a04f:	48 89 85 40 f9 ff ff 	mov    %rax,-0x6c0(%rbp)
    a056:	48 8d 85 e8 f7 ff ff 	lea    -0x818(%rbp),%rax
    a05d:	48 89 85 48 f9 ff ff 	mov    %rax,-0x6b8(%rbp)
    a064:	48 8d 85 e8 f7 ff ff 	lea    -0x818(%rbp),%rax
    a06b:	48 89 85 50 f9 ff ff 	mov    %rax,-0x6b0(%rbp)
    a072:	48 c7 85 58 f9 ff ff 	movq   $0x0,-0x6a8(%rbp)
    a079:	00 00 00 00 
    a07d:	48 c7 85 60 f9 ff ff 	movq   $0x0,-0x6a0(%rbp)
    a084:	00 00 00 00 
    a088:	48 8d 85 e8 f7 ff ff 	lea    -0x818(%rbp),%rax
    a08f:	48 89 85 68 f9 ff ff 	mov    %rax,-0x698(%rbp)
    a096:	48 8d 85 e8 f7 ff ff 	lea    -0x818(%rbp),%rax
    a09d:	48 89 85 70 f9 ff ff 	mov    %rax,-0x690(%rbp)
    a0a4:	48 8d 85 e8 f7 ff ff 	lea    -0x818(%rbp),%rax
    a0ab:	48 89 85 78 f9 ff ff 	mov    %rax,-0x688(%rbp)
    a0b2:	48 8d 85 e8 f7 ff ff 	lea    -0x818(%rbp),%rax
    a0b9:	48 89 85 80 f9 ff ff 	mov    %rax,-0x680(%rbp)
    a0c0:	48 8d 85 e8 f7 ff ff 	lea    -0x818(%rbp),%rax
    a0c7:	48 89 85 88 f9 ff ff 	mov    %rax,-0x678(%rbp)
    a0ce:	48 8d 85 e8 f7 ff ff 	lea    -0x818(%rbp),%rax
    a0d5:	48 89 85 90 f9 ff ff 	mov    %rax,-0x670(%rbp)
    a0dc:	48 8d 85 e8 f7 ff ff 	lea    -0x818(%rbp),%rax
    a0e3:	48 89 85 98 f9 ff ff 	mov    %rax,-0x668(%rbp)
    a0ea:	48 8d 85 e8 f7 ff ff 	lea    -0x818(%rbp),%rax
    a0f1:	48 89 85 a0 f9 ff ff 	mov    %rax,-0x660(%rbp)
    a0f8:	48 8d 85 e8 f7 ff ff 	lea    -0x818(%rbp),%rax
    a0ff:	48 89 85 a8 f9 ff ff 	mov    %rax,-0x658(%rbp)
    a106:	48 8d 85 e8 f7 ff ff 	lea    -0x818(%rbp),%rax
    a10d:	48 89 85 b0 f9 ff ff 	mov    %rax,-0x650(%rbp)
    a114:	48 c7 85 b8 f9 ff ff 	movq   $0x0,-0x648(%rbp)
    a11b:	00 00 00 00 
    a11f:	48 8d 85 e8 f7 ff ff 	lea    -0x818(%rbp),%rax
    a126:	48 89 85 c0 f9 ff ff 	mov    %rax,-0x640(%rbp)
    a12d:	48 8d 85 e8 f7 ff ff 	lea    -0x818(%rbp),%rax
    a134:	48 89 85 c8 f9 ff ff 	mov    %rax,-0x638(%rbp)
    a13b:	48 8d 85 e8 f7 ff ff 	lea    -0x818(%rbp),%rax
    a142:	48 89 85 d0 f9 ff ff 	mov    %rax,-0x630(%rbp)
    a149:	48 8d 85 e8 f7 ff ff 	lea    -0x818(%rbp),%rax
    a150:	48 89 85 d8 f9 ff ff 	mov    %rax,-0x628(%rbp)
    a157:	48 c7 85 e0 f9 ff ff 	movq   $0x0,-0x620(%rbp)
    a15e:	00 00 00 00 
    a162:	48 c7 85 e8 f9 ff ff 	movq   $0x0,-0x618(%rbp)
    a169:	00 00 00 00 
    a16d:	48 8d 85 e8 f7 ff ff 	lea    -0x818(%rbp),%rax
    a174:	48 89 85 f0 f9 ff ff 	mov    %rax,-0x610(%rbp)
    a17b:	48 8d 85 e8 f7 ff ff 	lea    -0x818(%rbp),%rax
    a182:	48 89 85 f8 f9 ff ff 	mov    %rax,-0x608(%rbp)
    a189:	48 8d 85 e8 f7 ff ff 	lea    -0x818(%rbp),%rax
    a190:	48 89 85 00 fa ff ff 	mov    %rax,-0x600(%rbp)
    a197:	48 8d 85 e8 f7 ff ff 	lea    -0x818(%rbp),%rax
    a19e:	48 89 85 08 fa ff ff 	mov    %rax,-0x5f8(%rbp)
    a1a5:	48 8d 85 e8 f7 ff ff 	lea    -0x818(%rbp),%rax
    a1ac:	48 89 85 10 fa ff ff 	mov    %rax,-0x5f0(%rbp)
    a1b3:	48 8d 85 e8 f7 ff ff 	lea    -0x818(%rbp),%rax
    a1ba:	48 89 85 18 fa ff ff 	mov    %rax,-0x5e8(%rbp)
    a1c1:	48 8d 85 e8 f7 ff ff 	lea    -0x818(%rbp),%rax
    a1c8:	48 89 85 20 fa ff ff 	mov    %rax,-0x5e0(%rbp)
    a1cf:	48 c7 85 28 fa ff ff 	movq   $0x0,-0x5d8(%rbp)
    a1d6:	00 00 00 00 
    a1da:	48 8d 85 e8 f7 ff ff 	lea    -0x818(%rbp),%rax
    a1e1:	48 89 85 30 fa ff ff 	mov    %rax,-0x5d0(%rbp)
    a1e8:	48 8d 85 e8 f7 ff ff 	lea    -0x818(%rbp),%rax
    a1ef:	48 89 85 38 fa ff ff 	mov    %rax,-0x5c8(%rbp)
    a1f6:	48 8d 85 e8 f7 ff ff 	lea    -0x818(%rbp),%rax
    a1fd:	48 89 85 40 fa ff ff 	mov    %rax,-0x5c0(%rbp)
    a204:	48 c7 85 48 fa ff ff 	movq   $0x0,-0x5b8(%rbp)
    a20b:	00 00 00 00 
    a20f:	48 c7 85 50 fa ff ff 	movq   $0x0,-0x5b0(%rbp)
    a216:	00 00 00 00 
    a21a:	48 8d 85 e8 f7 ff ff 	lea    -0x818(%rbp),%rax
    a221:	48 89 85 58 fa ff ff 	mov    %rax,-0x5a8(%rbp)
    a228:	48 c7 85 60 fa ff ff 	movq   $0x0,-0x5a0(%rbp)
    a22f:	00 00 00 00 
    a233:	48 8d 85 e8 f7 ff ff 	lea    -0x818(%rbp),%rax
    a23a:	48 89 85 68 fa ff ff 	mov    %rax,-0x598(%rbp)
    a241:	48 c7 85 70 fa ff ff 	movq   $0x0,-0x590(%rbp)
    a248:	00 00 00 00 
    a24c:	48 8d 85 e8 f7 ff ff 	lea    -0x818(%rbp),%rax
    a253:	48 89 85 78 fa ff ff 	mov    %rax,-0x588(%rbp)
    a25a:	48 c7 85 80 fa ff ff 	movq   $0x0,-0x580(%rbp)
    a261:	00 00 00 00 
    a265:	48 8d 85 e8 f7 ff ff 	lea    -0x818(%rbp),%rax
    a26c:	48 89 85 88 fa ff ff 	mov    %rax,-0x578(%rbp)
    a273:	48 c7 85 90 fa ff ff 	movq   $0x0,-0x570(%rbp)
    a27a:	00 00 00 00 
    a27e:	48 c7 85 98 fa ff ff 	movq   $0x0,-0x568(%rbp)
    a285:	00 00 00 00 
    a289:	48 8d 85 e8 f7 ff ff 	lea    -0x818(%rbp),%rax
    a290:	48 89 85 a0 fa ff ff 	mov    %rax,-0x560(%rbp)
    a297:	48 8d 85 e8 f7 ff ff 	lea    -0x818(%rbp),%rax
    a29e:	48 89 85 a8 fa ff ff 	mov    %rax,-0x558(%rbp)
    a2a5:	48 8d 85 e8 f7 ff ff 	lea    -0x818(%rbp),%rax
    a2ac:	48 89 85 b0 fa ff ff 	mov    %rax,-0x550(%rbp)
    a2b3:	48 8d 85 e8 f7 ff ff 	lea    -0x818(%rbp),%rax
    a2ba:	48 89 85 b8 fa ff ff 	mov    %rax,-0x548(%rbp)
    a2c1:	48 8d 85 e8 f7 ff ff 	lea    -0x818(%rbp),%rax
    a2c8:	48 89 85 c0 fa ff ff 	mov    %rax,-0x540(%rbp)
    a2cf:	48 8d 85 e8 f7 ff ff 	lea    -0x818(%rbp),%rax
    a2d6:	48 89 85 c8 fa ff ff 	mov    %rax,-0x538(%rbp)
    a2dd:	48 8d 85 e8 f7 ff ff 	lea    -0x818(%rbp),%rax
    a2e4:	48 89 85 d0 fa ff ff 	mov    %rax,-0x530(%rbp)
    a2eb:	48 8d 85 e8 f7 ff ff 	lea    -0x818(%rbp),%rax
    a2f2:	48 89 85 d8 fa ff ff 	mov    %rax,-0x528(%rbp)
    a2f9:	48 8d 85 e8 f7 ff ff 	lea    -0x818(%rbp),%rax
    a300:	48 89 85 e0 fa ff ff 	mov    %rax,-0x520(%rbp)
    a307:	48 8d 85 e8 f7 ff ff 	lea    -0x818(%rbp),%rax
    a30e:	48 89 85 e8 fa ff ff 	mov    %rax,-0x518(%rbp)
    a315:	48 8d 85 e8 f7 ff ff 	lea    -0x818(%rbp),%rax
    a31c:	48 89 85 f0 fa ff ff 	mov    %rax,-0x510(%rbp)
    a323:	48 8d 85 e8 f7 ff ff 	lea    -0x818(%rbp),%rax
    a32a:	48 89 85 f8 fa ff ff 	mov    %rax,-0x508(%rbp)
    a331:	48 8d 85 e8 f7 ff ff 	lea    -0x818(%rbp),%rax
    a338:	48 89 85 00 fb ff ff 	mov    %rax,-0x500(%rbp)
    a33f:	48 8d 85 e8 f7 ff ff 	lea    -0x818(%rbp),%rax
    a346:	48 89 85 08 fb ff ff 	mov    %rax,-0x4f8(%rbp)
    a34d:	48 c7 85 10 fb ff ff 	movq   $0x0,-0x4f0(%rbp)
    a354:	00 00 00 00 
    a358:	48 8d 85 e8 f7 ff ff 	lea    -0x818(%rbp),%rax
    a35f:	48 89 85 18 fb ff ff 	mov    %rax,-0x4e8(%rbp)
    a366:	48 8d 85 e8 f7 ff ff 	lea    -0x818(%rbp),%rax
    a36d:	48 89 85 20 fb ff ff 	mov    %rax,-0x4e0(%rbp)
    a374:	48 8d 85 e8 f7 ff ff 	lea    -0x818(%rbp),%rax
    a37b:	48 89 85 28 fb ff ff 	mov    %rax,-0x4d8(%rbp)
    a382:	48 c7 85 30 fb ff ff 	movq   $0x0,-0x4d0(%rbp)
    a389:	00 00 00 00 
    a38d:	48 8d 85 e8 f7 ff ff 	lea    -0x818(%rbp),%rax
    a394:	48 89 85 38 fb ff ff 	mov    %rax,-0x4c8(%rbp)
    a39b:	48 8d 85 e8 f7 ff ff 	lea    -0x818(%rbp),%rax
    a3a2:	48 89 85 40 fb ff ff 	mov    %rax,-0x4c0(%rbp)
    a3a9:	48 8d 85 e8 f7 ff ff 	lea    -0x818(%rbp),%rax
    a3b0:	48 89 85 48 fb ff ff 	mov    %rax,-0x4b8(%rbp)
    a3b7:	48 c7 85 50 fb ff ff 	movq   $0x0,-0x4b0(%rbp)
    a3be:	00 00 00 00 
    a3c2:	48 8d 85 e8 f7 ff ff 	lea    -0x818(%rbp),%rax
    a3c9:	48 89 85 58 fb ff ff 	mov    %rax,-0x4a8(%rbp)
    a3d0:	48 c7 85 60 fb ff ff 	movq   $0x0,-0x4a0(%rbp)
    a3d7:	00 00 00 00 
    a3db:	48 c7 85 68 fb ff ff 	movq   $0x0,-0x498(%rbp)
    a3e2:	00 00 00 00 
    a3e6:	48 8d 85 e8 f7 ff ff 	lea    -0x818(%rbp),%rax
    a3ed:	48 89 85 70 fb ff ff 	mov    %rax,-0x490(%rbp)
    a3f4:	48 8d 85 e8 f7 ff ff 	lea    -0x818(%rbp),%rax
    a3fb:	48 89 85 78 fb ff ff 	mov    %rax,-0x488(%rbp)
    a402:	48 8d 85 e8 f7 ff ff 	lea    -0x818(%rbp),%rax
    a409:	48 89 85 80 fb ff ff 	mov    %rax,-0x480(%rbp)
    a410:	48 8d 85 e8 f7 ff ff 	lea    -0x818(%rbp),%rax
    a417:	48 89 85 88 fb ff ff 	mov    %rax,-0x478(%rbp)
    a41e:	48 8d 85 e8 f7 ff ff 	lea    -0x818(%rbp),%rax
    a425:	48 89 85 90 fb ff ff 	mov    %rax,-0x470(%rbp)
    a42c:	48 c7 85 98 fb ff ff 	movq   $0x0,-0x468(%rbp)
    a433:	00 00 00 00 
    a437:	48 8d 85 e8 f7 ff ff 	lea    -0x818(%rbp),%rax
    a43e:	48 89 85 a0 fb ff ff 	mov    %rax,-0x460(%rbp)
    a445:	48 8d 85 e8 f7 ff ff 	lea    -0x818(%rbp),%rax
    a44c:	48 89 85 a8 fb ff ff 	mov    %rax,-0x458(%rbp)
    a453:	48 8d 85 e8 f7 ff ff 	lea    -0x818(%rbp),%rax
    a45a:	48 89 85 b0 fb ff ff 	mov    %rax,-0x450(%rbp)
    a461:	48 c7 85 b8 fb ff ff 	movq   $0x0,-0x448(%rbp)
    a468:	00 00 00 00 
    a46c:	48 c7 85 c0 fb ff ff 	movq   $0x0,-0x440(%rbp)
    a473:	00 00 00 00 
    a477:	48 8d 85 e8 f7 ff ff 	lea    -0x818(%rbp),%rax
    a47e:	48 89 85 c8 fb ff ff 	mov    %rax,-0x438(%rbp)
    a485:	48 8d 85 e8 f7 ff ff 	lea    -0x818(%rbp),%rax
    a48c:	48 89 85 d0 fb ff ff 	mov    %rax,-0x430(%rbp)
    a493:	48 8d 85 e8 f7 ff ff 	lea    -0x818(%rbp),%rax
    a49a:	48 89 85 d8 fb ff ff 	mov    %rax,-0x428(%rbp)
    a4a1:	48 c7 85 e0 fb ff ff 	movq   $0x0,-0x420(%rbp)
    a4a8:	00 00 00 00 
    a4ac:	48 8d 85 e8 f7 ff ff 	lea    -0x818(%rbp),%rax
    a4b3:	48 89 85 e8 fb ff ff 	mov    %rax,-0x418(%rbp)
    a4ba:	48 8d 85 e8 f7 ff ff 	lea    -0x818(%rbp),%rax
    a4c1:	48 89 85 f0 fb ff ff 	mov    %rax,-0x410(%rbp)
    a4c8:	48 c7 85 f8 fb ff ff 	movq   $0x0,-0x408(%rbp)
    a4cf:	00 00 00 00 
    a4d3:	48 8d 85 e8 f7 ff ff 	lea    -0x818(%rbp),%rax
    a4da:	48 89 85 00 fc ff ff 	mov    %rax,-0x400(%rbp)
    a4e1:	48 8d 85 e8 f7 ff ff 	lea    -0x818(%rbp),%rax
    a4e8:	48 89 85 08 fc ff ff 	mov    %rax,-0x3f8(%rbp)
    a4ef:	48 8d 85 e8 f7 ff ff 	lea    -0x818(%rbp),%rax
    a4f6:	48 89 85 10 fc ff ff 	mov    %rax,-0x3f0(%rbp)
    a4fd:	48 8d 85 e8 f7 ff ff 	lea    -0x818(%rbp),%rax
    a504:	48 89 85 18 fc ff ff 	mov    %rax,-0x3e8(%rbp)
    a50b:	48 8d 85 e8 f7 ff ff 	lea    -0x818(%rbp),%rax
    a512:	48 89 85 20 fc ff ff 	mov    %rax,-0x3e0(%rbp)
    a519:	48 8d 85 e8 f7 ff ff 	lea    -0x818(%rbp),%rax
    a520:	48 89 85 28 fc ff ff 	mov    %rax,-0x3d8(%rbp)
    a527:	48 8d 85 e8 f7 ff ff 	lea    -0x818(%rbp),%rax
    a52e:	48 89 85 30 fc ff ff 	mov    %rax,-0x3d0(%rbp)
    a535:	48 8d 85 e8 f7 ff ff 	lea    -0x818(%rbp),%rax
    a53c:	48 89 85 38 fc ff ff 	mov    %rax,-0x3c8(%rbp)
    a543:	48 8d 85 e8 f7 ff ff 	lea    -0x818(%rbp),%rax
    a54a:	48 89 85 40 fc ff ff 	mov    %rax,-0x3c0(%rbp)
    a551:	48 8d 85 e8 f7 ff ff 	lea    -0x818(%rbp),%rax
    a558:	48 89 85 48 fc ff ff 	mov    %rax,-0x3b8(%rbp)
    a55f:	48 8d 85 e8 f7 ff ff 	lea    -0x818(%rbp),%rax
    a566:	48 89 85 50 fc ff ff 	mov    %rax,-0x3b0(%rbp)
    a56d:	48 c7 85 58 fc ff ff 	movq   $0x0,-0x3a8(%rbp)
    a574:	00 00 00 00 
    a578:	48 8d 85 e8 f7 ff ff 	lea    -0x818(%rbp),%rax
    a57f:	48 89 85 60 fc ff ff 	mov    %rax,-0x3a0(%rbp)
    a586:	48 8d 85 e8 f7 ff ff 	lea    -0x818(%rbp),%rax
    a58d:	48 89 85 68 fc ff ff 	mov    %rax,-0x398(%rbp)
    a594:	48 8d 85 e8 f7 ff ff 	lea    -0x818(%rbp),%rax
    a59b:	48 89 85 70 fc ff ff 	mov    %rax,-0x390(%rbp)
    a5a2:	48 8d 85 e8 f7 ff ff 	lea    -0x818(%rbp),%rax
    a5a9:	48 89 85 78 fc ff ff 	mov    %rax,-0x388(%rbp)
    a5b0:	48 8d 85 e8 f7 ff ff 	lea    -0x818(%rbp),%rax
    a5b7:	48 89 85 80 fc ff ff 	mov    %rax,-0x380(%rbp)
    a5be:	48 8d 85 e8 f7 ff ff 	lea    -0x818(%rbp),%rax
    a5c5:	48 89 85 88 fc ff ff 	mov    %rax,-0x378(%rbp)
    a5cc:	48 c7 85 90 fc ff ff 	movq   $0x0,-0x370(%rbp)
    a5d3:	00 00 00 00 
    a5d7:	48 8d 85 e8 f7 ff ff 	lea    -0x818(%rbp),%rax
    a5de:	48 89 85 98 fc ff ff 	mov    %rax,-0x368(%rbp)
    a5e5:	48 8d 85 e8 f7 ff ff 	lea    -0x818(%rbp),%rax
    a5ec:	48 89 85 a0 fc ff ff 	mov    %rax,-0x360(%rbp)
    a5f3:	48 8d 85 e8 f7 ff ff 	lea    -0x818(%rbp),%rax
    a5fa:	48 89 85 a8 fc ff ff 	mov    %rax,-0x358(%rbp)
    a601:	48 8d 85 e8 f7 ff ff 	lea    -0x818(%rbp),%rax
    a608:	48 89 85 b0 fc ff ff 	mov    %rax,-0x350(%rbp)
    a60f:	48 8d 85 e8 f7 ff ff 	lea    -0x818(%rbp),%rax
    a616:	48 89 85 b8 fc ff ff 	mov    %rax,-0x348(%rbp)
    a61d:	48 8d 85 e8 f7 ff ff 	lea    -0x818(%rbp),%rax
    a624:	48 89 85 c0 fc ff ff 	mov    %rax,-0x340(%rbp)
    a62b:	48 8d 85 e8 f7 ff ff 	lea    -0x818(%rbp),%rax
    a632:	48 89 85 c8 fc ff ff 	mov    %rax,-0x338(%rbp)
    a639:	48 8d 85 e8 f7 ff ff 	lea    -0x818(%rbp),%rax
    a640:	48 89 85 d0 fc ff ff 	mov    %rax,-0x330(%rbp)
    a647:	48 8d 85 e8 f7 ff ff 	lea    -0x818(%rbp),%rax
    a64e:	48 89 85 d8 fc ff ff 	mov    %rax,-0x328(%rbp)
    a655:	48 8d 85 e8 f7 ff ff 	lea    -0x818(%rbp),%rax
    a65c:	48 89 85 e0 fc ff ff 	mov    %rax,-0x320(%rbp)
    a663:	48 8d 85 e8 f7 ff ff 	lea    -0x818(%rbp),%rax
    a66a:	48 89 85 e8 fc ff ff 	mov    %rax,-0x318(%rbp)
    a671:	48 8d 85 e8 f7 ff ff 	lea    -0x818(%rbp),%rax
    a678:	48 89 85 f0 fc ff ff 	mov    %rax,-0x310(%rbp)
    a67f:	48 c7 85 f8 fc ff ff 	movq   $0x0,-0x308(%rbp)
    a686:	00 00 00 00 
    a68a:	48 8d 85 e8 f7 ff ff 	lea    -0x818(%rbp),%rax
    a691:	48 89 85 00 fd ff ff 	mov    %rax,-0x300(%rbp)
    a698:	48 8d 85 e8 f7 ff ff 	lea    -0x818(%rbp),%rax
    a69f:	48 89 85 08 fd ff ff 	mov    %rax,-0x2f8(%rbp)
    a6a6:	48 8d 85 e8 f7 ff ff 	lea    -0x818(%rbp),%rax
    a6ad:	48 89 85 10 fd ff ff 	mov    %rax,-0x2f0(%rbp)
    a6b4:	48 8d 85 e8 f7 ff ff 	lea    -0x818(%rbp),%rax
    a6bb:	48 89 85 18 fd ff ff 	mov    %rax,-0x2e8(%rbp)
    a6c2:	48 8d 85 e8 f7 ff ff 	lea    -0x818(%rbp),%rax
    a6c9:	48 89 85 20 fd ff ff 	mov    %rax,-0x2e0(%rbp)
    a6d0:	48 8d 85 e8 f7 ff ff 	lea    -0x818(%rbp),%rax
    a6d7:	48 89 85 28 fd ff ff 	mov    %rax,-0x2d8(%rbp)
    a6de:	48 8d 85 e8 f7 ff ff 	lea    -0x818(%rbp),%rax
    a6e5:	48 89 85 30 fd ff ff 	mov    %rax,-0x2d0(%rbp)
    a6ec:	48 8d 85 e8 f7 ff ff 	lea    -0x818(%rbp),%rax
    a6f3:	48 89 85 38 fd ff ff 	mov    %rax,-0x2c8(%rbp)
    a6fa:	48 8d 85 e8 f7 ff ff 	lea    -0x818(%rbp),%rax
    a701:	48 89 85 40 fd ff ff 	mov    %rax,-0x2c0(%rbp)
    a708:	48 8d 85 e8 f7 ff ff 	lea    -0x818(%rbp),%rax
    a70f:	48 89 85 48 fd ff ff 	mov    %rax,-0x2b8(%rbp)
    a716:	48 8d 85 e8 f7 ff ff 	lea    -0x818(%rbp),%rax
    a71d:	48 89 85 50 fd ff ff 	mov    %rax,-0x2b0(%rbp)
    a724:	48 c7 85 58 fd ff ff 	movq   $0x0,-0x2a8(%rbp)
    a72b:	00 00 00 00 
    a72f:	48 c7 85 60 fd ff ff 	movq   $0x0,-0x2a0(%rbp)
    a736:	00 00 00 00 
    a73a:	48 8d 85 e8 f7 ff ff 	lea    -0x818(%rbp),%rax
    a741:	48 89 85 68 fd ff ff 	mov    %rax,-0x298(%rbp)
    a748:	48 c7 85 70 fd ff ff 	movq   $0x0,-0x290(%rbp)
    a74f:	00 00 00 00 
    a753:	48 c7 85 78 fd ff ff 	movq   $0x0,-0x288(%rbp)
    a75a:	00 00 00 00 
    a75e:	48 8d 85 e8 f7 ff ff 	lea    -0x818(%rbp),%rax
    a765:	48 89 85 80 fd ff ff 	mov    %rax,-0x280(%rbp)
    a76c:	48 c7 85 88 fd ff ff 	movq   $0x0,-0x278(%rbp)
    a773:	00 00 00 00 
    a777:	48 8d 85 e8 f7 ff ff 	lea    -0x818(%rbp),%rax
    a77e:	48 89 85 90 fd ff ff 	mov    %rax,-0x270(%rbp)
    a785:	48 8d 85 e8 f7 ff ff 	lea    -0x818(%rbp),%rax
    a78c:	48 89 85 98 fd ff ff 	mov    %rax,-0x268(%rbp)
    a793:	48 8d 85 e8 f7 ff ff 	lea    -0x818(%rbp),%rax
    a79a:	48 89 85 a0 fd ff ff 	mov    %rax,-0x260(%rbp)
    a7a1:	48 8d 85 e8 f7 ff ff 	lea    -0x818(%rbp),%rax
    a7a8:	48 89 85 a8 fd ff ff 	mov    %rax,-0x258(%rbp)
    a7af:	48 c7 85 b0 fd ff ff 	movq   $0x0,-0x250(%rbp)
    a7b6:	00 00 00 00 
    a7ba:	48 8d 85 e8 f7 ff ff 	lea    -0x818(%rbp),%rax
    a7c1:	48 89 85 b8 fd ff ff 	mov    %rax,-0x248(%rbp)
    a7c8:	48 8d 85 e8 f7 ff ff 	lea    -0x818(%rbp),%rax
    a7cf:	48 89 85 c0 fd ff ff 	mov    %rax,-0x240(%rbp)
    a7d6:	48 8d 85 e8 f7 ff ff 	lea    -0x818(%rbp),%rax
    a7dd:	48 89 85 c8 fd ff ff 	mov    %rax,-0x238(%rbp)
    a7e4:	48 8d 85 e8 f7 ff ff 	lea    -0x818(%rbp),%rax
    a7eb:	48 89 85 d0 fd ff ff 	mov    %rax,-0x230(%rbp)
    a7f2:	48 8d 85 e8 f7 ff ff 	lea    -0x818(%rbp),%rax
    a7f9:	48 89 85 d8 fd ff ff 	mov    %rax,-0x228(%rbp)
    a800:	48 8d 85 e8 f7 ff ff 	lea    -0x818(%rbp),%rax
    a807:	48 89 85 e0 fd ff ff 	mov    %rax,-0x220(%rbp)
    a80e:	48 8d 85 e8 f7 ff ff 	lea    -0x818(%rbp),%rax
    a815:	48 89 85 e8 fd ff ff 	mov    %rax,-0x218(%rbp)
    a81c:	48 8d 85 e8 f7 ff ff 	lea    -0x818(%rbp),%rax
    a823:	48 89 85 f0 fd ff ff 	mov    %rax,-0x210(%rbp)
    a82a:	48 c7 85 f8 fd ff ff 	movq   $0x0,-0x208(%rbp)
    a831:	00 00 00 00 
    a835:	48 8d 85 e8 f7 ff ff 	lea    -0x818(%rbp),%rax
    a83c:	48 89 85 00 fe ff ff 	mov    %rax,-0x200(%rbp)
    a843:	48 8d 85 e8 f7 ff ff 	lea    -0x818(%rbp),%rax
    a84a:	48 89 85 08 fe ff ff 	mov    %rax,-0x1f8(%rbp)
    a851:	48 8d 85 e8 f7 ff ff 	lea    -0x818(%rbp),%rax
    a858:	48 89 85 10 fe ff ff 	mov    %rax,-0x1f0(%rbp)
    a85f:	48 c7 85 18 fe ff ff 	movq   $0x0,-0x1e8(%rbp)
    a866:	00 00 00 00 
    a86a:	48 8d 85 e8 f7 ff ff 	lea    -0x818(%rbp),%rax
    a871:	48 89 85 20 fe ff ff 	mov    %rax,-0x1e0(%rbp)
    a878:	48 8d 85 e8 f7 ff ff 	lea    -0x818(%rbp),%rax
    a87f:	48 89 85 28 fe ff ff 	mov    %rax,-0x1d8(%rbp)
    a886:	48 8d 85 e8 f7 ff ff 	lea    -0x818(%rbp),%rax
    a88d:	48 89 85 30 fe ff ff 	mov    %rax,-0x1d0(%rbp)
    a894:	48 c7 85 38 fe ff ff 	movq   $0x0,-0x1c8(%rbp)
    a89b:	00 00 00 00 
    a89f:	48 c7 85 40 fe ff ff 	movq   $0x0,-0x1c0(%rbp)
    a8a6:	00 00 00 00 
    a8aa:	48 8d 85 e8 f7 ff ff 	lea    -0x818(%rbp),%rax
    a8b1:	48 89 85 48 fe ff ff 	mov    %rax,-0x1b8(%rbp)
    a8b8:	48 8d 85 e8 f7 ff ff 	lea    -0x818(%rbp),%rax
    a8bf:	48 89 85 50 fe ff ff 	mov    %rax,-0x1b0(%rbp)
    a8c6:	48 8d 85 e8 f7 ff ff 	lea    -0x818(%rbp),%rax
    a8cd:	48 89 85 58 fe ff ff 	mov    %rax,-0x1a8(%rbp)
    a8d4:	48 8d 85 e8 f7 ff ff 	lea    -0x818(%rbp),%rax
    a8db:	48 89 85 60 fe ff ff 	mov    %rax,-0x1a0(%rbp)
    a8e2:	48 8d 85 e8 f7 ff ff 	lea    -0x818(%rbp),%rax
    a8e9:	48 89 85 68 fe ff ff 	mov    %rax,-0x198(%rbp)
    a8f0:	48 8d 85 e8 f7 ff ff 	lea    -0x818(%rbp),%rax
    a8f7:	48 89 85 70 fe ff ff 	mov    %rax,-0x190(%rbp)
    a8fe:	48 c7 85 78 fe ff ff 	movq   $0x0,-0x188(%rbp)
    a905:	00 00 00 00 
    a909:	48 8d 85 e8 f7 ff ff 	lea    -0x818(%rbp),%rax
    a910:	48 89 85 80 fe ff ff 	mov    %rax,-0x180(%rbp)
    a917:	48 8d 85 e8 f7 ff ff 	lea    -0x818(%rbp),%rax
    a91e:	48 89 85 88 fe ff ff 	mov    %rax,-0x178(%rbp)
    a925:	48 8d 85 e8 f7 ff ff 	lea    -0x818(%rbp),%rax
    a92c:	48 89 85 90 fe ff ff 	mov    %rax,-0x170(%rbp)
    a933:	48 8d 85 e8 f7 ff ff 	lea    -0x818(%rbp),%rax
    a93a:	48 89 85 98 fe ff ff 	mov    %rax,-0x168(%rbp)
    a941:	48 8d 85 e8 f7 ff ff 	lea    -0x818(%rbp),%rax
    a948:	48 89 85 a0 fe ff ff 	mov    %rax,-0x160(%rbp)
    a94f:	48 8d 85 e8 f7 ff ff 	lea    -0x818(%rbp),%rax
    a956:	48 89 85 a8 fe ff ff 	mov    %rax,-0x158(%rbp)
    a95d:	48 8d 85 e8 f7 ff ff 	lea    -0x818(%rbp),%rax
    a964:	48 89 85 b0 fe ff ff 	mov    %rax,-0x150(%rbp)
    a96b:	48 8d 85 e8 f7 ff ff 	lea    -0x818(%rbp),%rax
    a972:	48 89 85 b8 fe ff ff 	mov    %rax,-0x148(%rbp)
    a979:	48 8d 85 e8 f7 ff ff 	lea    -0x818(%rbp),%rax
    a980:	48 89 85 c0 fe ff ff 	mov    %rax,-0x140(%rbp)
    a987:	48 c7 85 c8 fe ff ff 	movq   $0x0,-0x138(%rbp)
    a98e:	00 00 00 00 
    a992:	48 8d 85 e8 f7 ff ff 	lea    -0x818(%rbp),%rax
    a999:	48 89 85 d0 fe ff ff 	mov    %rax,-0x130(%rbp)
    a9a0:	48 8d 85 e8 f7 ff ff 	lea    -0x818(%rbp),%rax
    a9a7:	48 89 85 d8 fe ff ff 	mov    %rax,-0x128(%rbp)
    a9ae:	48 8d 85 e8 f7 ff ff 	lea    -0x818(%rbp),%rax
    a9b5:	48 89 85 e0 fe ff ff 	mov    %rax,-0x120(%rbp)
    a9bc:	48 8d 85 e8 f7 ff ff 	lea    -0x818(%rbp),%rax
    a9c3:	48 89 85 e8 fe ff ff 	mov    %rax,-0x118(%rbp)
    a9ca:	48 8d 85 e8 f7 ff ff 	lea    -0x818(%rbp),%rax
    a9d1:	48 89 85 f0 fe ff ff 	mov    %rax,-0x110(%rbp)
    a9d8:	48 8d 85 e8 f7 ff ff 	lea    -0x818(%rbp),%rax
    a9df:	48 89 85 f8 fe ff ff 	mov    %rax,-0x108(%rbp)
    a9e6:	48 8d 85 e8 f7 ff ff 	lea    -0x818(%rbp),%rax
    a9ed:	48 89 85 00 ff ff ff 	mov    %rax,-0x100(%rbp)
    a9f4:	48 8d 85 e8 f7 ff ff 	lea    -0x818(%rbp),%rax
    a9fb:	48 89 85 08 ff ff ff 	mov    %rax,-0xf8(%rbp)
    aa02:	48 c7 85 10 ff ff ff 	movq   $0x0,-0xf0(%rbp)
    aa09:	00 00 00 00 
    aa0d:	48 c7 85 18 ff ff ff 	movq   $0x0,-0xe8(%rbp)
    aa14:	00 00 00 00 
    aa18:	48 c7 85 20 ff ff ff 	movq   $0x0,-0xe0(%rbp)
    aa1f:	00 00 00 00 
    aa23:	48 8d 85 e8 f7 ff ff 	lea    -0x818(%rbp),%rax
    aa2a:	48 89 85 28 ff ff ff 	mov    %rax,-0xd8(%rbp)
    aa31:	48 8d 85 e8 f7 ff ff 	lea    -0x818(%rbp),%rax
    aa38:	48 89 85 30 ff ff ff 	mov    %rax,-0xd0(%rbp)
    aa3f:	48 c7 85 38 ff ff ff 	movq   $0x0,-0xc8(%rbp)
    aa46:	00 00 00 00 
    aa4a:	48 8d 85 e8 f7 ff ff 	lea    -0x818(%rbp),%rax
    aa51:	48 89 85 40 ff ff ff 	mov    %rax,-0xc0(%rbp)
    aa58:	48 8d 85 e8 f7 ff ff 	lea    -0x818(%rbp),%rax
    aa5f:	48 89 85 48 ff ff ff 	mov    %rax,-0xb8(%rbp)
    aa66:	48 c7 85 50 ff ff ff 	movq   $0x0,-0xb0(%rbp)
    aa6d:	00 00 00 00 
    aa71:	48 8d 85 e8 f7 ff ff 	lea    -0x818(%rbp),%rax
    aa78:	48 89 85 58 ff ff ff 	mov    %rax,-0xa8(%rbp)
    aa7f:	48 8d 85 e8 f7 ff ff 	lea    -0x818(%rbp),%rax
    aa86:	48 89 85 60 ff ff ff 	mov    %rax,-0xa0(%rbp)
    aa8d:	48 8d 85 e8 f7 ff ff 	lea    -0x818(%rbp),%rax
    aa94:	48 89 85 68 ff ff ff 	mov    %rax,-0x98(%rbp)
    aa9b:	48 8d 85 e8 f7 ff ff 	lea    -0x818(%rbp),%rax
    aaa2:	48 89 85 70 ff ff ff 	mov    %rax,-0x90(%rbp)
    aaa9:	48 8d 85 e8 f7 ff ff 	lea    -0x818(%rbp),%rax
    aab0:	48 89 85 78 ff ff ff 	mov    %rax,-0x88(%rbp)
    aab7:	48 8d 85 e8 f7 ff ff 	lea    -0x818(%rbp),%rax
    aabe:	48 89 45 80          	mov    %rax,-0x80(%rbp)
    aac2:	48 8d 85 e8 f7 ff ff 	lea    -0x818(%rbp),%rax
    aac9:	48 89 45 88          	mov    %rax,-0x78(%rbp)
    aacd:	48 8d 85 e8 f7 ff ff 	lea    -0x818(%rbp),%rax
    aad4:	48 89 45 90          	mov    %rax,-0x70(%rbp)
    aad8:	48 8d 85 e8 f7 ff ff 	lea    -0x818(%rbp),%rax
    aadf:	48 89 45 98          	mov    %rax,-0x68(%rbp)
    aae3:	48 8d 85 e8 f7 ff ff 	lea    -0x818(%rbp),%rax
    aaea:	48 89 45 a0          	mov    %rax,-0x60(%rbp)
    aaee:	48 8d 85 e8 f7 ff ff 	lea    -0x818(%rbp),%rax
    aaf5:	48 89 45 a8          	mov    %rax,-0x58(%rbp)
    aaf9:	48 c7 45 b0 00 00 00 	movq   $0x0,-0x50(%rbp)
    ab00:	00 
    ab01:	48 8d 85 e8 f7 ff ff 	lea    -0x818(%rbp),%rax
    ab08:	48 89 45 b8          	mov    %rax,-0x48(%rbp)
    ab0c:	48 8d 85 e8 f7 ff ff 	lea    -0x818(%rbp),%rax
    ab13:	48 89 45 c0          	mov    %rax,-0x40(%rbp)
    ab17:	48 8d 85 e8 f7 ff ff 	lea    -0x818(%rbp),%rax
    ab1e:	48 89 45 c8          	mov    %rax,-0x38(%rbp)
    ab22:	c7 85 e4 f7 ff ff f9 	movl   $0xfffffff9,-0x81c(%rbp)
    ab29:	ff ff ff 
    ab2c:	66 c7 85 06 f8 ff ff 	movw   $0x4fec,-0x7fa(%rbp)
    ab33:	ec 4f 
    ab35:	66 c7 85 08 f8 ff ff 	movw   $0x4fec,-0x7f8(%rbp)
    ab3c:	ec 4f 
    ab3e:	66 c7 85 0a f8 ff ff 	movw   $0x4fec,-0x7f6(%rbp)
    ab45:	ec 4f 
    ab47:	66 c7 85 0c f8 ff ff 	movw   $0x4fec,-0x7f4(%rbp)
    ab4e:	ec 4f 
    ab50:	66 c7 85 0e f8 ff ff 	movw   $0x4fec,-0x7f2(%rbp)
    ab57:	ec 4f 
    ab59:	48 8d 05 24 55 00 00 	lea    0x5524(%rip),%rax        # 10084 <g_78>
    ab60:	48 89 85 f0 f7 ff ff 	mov    %rax,-0x810(%rbp)
    ab67:	48 c7 85 10 f8 ff ff 	movq   $0x0,-0x7f0(%rbp)
    ab6e:	00 00 00 00 
    ab72:	48 c7 85 18 f8 ff ff 	movq   $0x0,-0x7e8(%rbp)
    ab79:	00 00 00 00 
    ab7d:	48 c7 85 20 f8 ff ff 	movq   $0x0,-0x7e0(%rbp)
    ab84:	00 00 00 00 
    ab88:	48 c7 85 28 f8 ff ff 	movq   $0x0,-0x7d8(%rbp)
    ab8f:	00 00 00 00 
    ab93:	48 c7 85 30 f8 ff ff 	movq   $0x0,-0x7d0(%rbp)
    ab9a:	00 00 00 00 
    ab9e:	48 c7 85 38 f8 ff ff 	movq   $0x0,-0x7c8(%rbp)
    aba5:	00 00 00 00 
    aba9:	48 c7 85 40 f8 ff ff 	movq   $0x0,-0x7c0(%rbp)
    abb0:	00 00 00 00 
    abb4:	48 c7 85 48 f8 ff ff 	movq   $0x0,-0x7b8(%rbp)
    abbb:	00 00 00 00 
    abbf:	48 8d 05 ca 54 00 00 	lea    0x54ca(%rip),%rax        # 10090 <g_112>
    abc6:	48 89 85 f8 f7 ff ff 	mov    %rax,-0x808(%rbp)
    abcd:	48 8b 85 e8 f7 ff ff 	mov    -0x818(%rbp),%rax
    abd4:	0f be d8             	movsbl %al,%ebx
    abd7:	48 8b 85 d8 f7 ff ff 	mov    -0x828(%rbp),%rax
    abde:	8b 00                	mov    (%rax),%eax
    abe0:	41 89 c6             	mov    %eax,%r14d
    abe3:	48 8b 85 e8 f7 ff ff 	mov    -0x818(%rbp),%rax
    abea:	48 89 05 a7 54 00 00 	mov    %rax,0x54a7(%rip)        # 10098 <g_130>
    abf1:	4c 8b 2d a0 54 00 00 	mov    0x54a0(%rip),%r13        # 10098 <g_130>
    abf8:	44 0f b7 a5 d4 f7 ff 	movzwl -0x82c(%rbp),%r12d
    abff:	ff 
    ac00:	0f b6 05 c9 54 00 00 	movzbl 0x54c9(%rip),%eax        # 100d0 <g_140>
    ac07:	8d 50 ff             	lea    -0x1(%rax),%edx
    ac0a:	88 15 c0 54 00 00    	mov    %dl,0x54c0(%rip)        # 100d0 <g_140>
    ac10:	0f b6 c0             	movzbl %al,%eax
    ac13:	48 ba 38 3a 42 93 6e 	movabs $0x768ffd6e93423a38,%rdx
    ac1a:	fd 8f 76 
    ac1d:	48 31 d0             	xor    %rdx,%rax
    ac20:	48 89 c1             	mov    %rax,%rcx
    ac23:	48 0f bf 95 d0 f7 ff 	movswq -0x830(%rbp),%rdx
    ac2a:	ff 
    ac2b:	48 8b 85 e8 f7 ff ff 	mov    -0x818(%rbp),%rax
    ac32:	48 21 d0             	and    %rdx,%rax
    ac35:	48 39 c1             	cmp    %rax,%rcx
    ac38:	0f 95 c0             	setne  %al
    ac3b:	0f b6 d0             	movzbl %al,%edx
    ac3e:	48 8b 85 e8 f7 ff ff 	mov    -0x818(%rbp),%rax
    ac45:	48 39 c2             	cmp    %rax,%rdx
    ac48:	0f 95 c0             	setne  %al
    ac4b:	0f b6 c0             	movzbl %al,%eax
    ac4e:	8b 95 e0 f7 ff ff    	mov    -0x820(%rbp),%edx
    ac54:	09 d0                	or     %edx,%eax
    ac56:	0f b7 c0             	movzwl %ax,%eax
    ac59:	89 c6                	mov    %eax,%esi
    ac5b:	bf 00 00 00 00       	mov    $0x0,%edi
    ac60:	e8 9a a0 ff ff       	callq  4cff <safe_add_func_uint16_t_u_u>
    ac65:	0f b7 c0             	movzwl %ax,%eax
    ac68:	48 83 e0 f7          	and    $0xfffffffffffffff7,%rax
    ac6c:	48 83 f8 03          	cmp    $0x3,%rax
    ac70:	0f 96 c0             	setbe  %al
    ac73:	0f b6 c0             	movzbl %al,%eax
    ac76:	44 89 e6             	mov    %r12d,%esi
    ac79:	89 c7                	mov    %eax,%edi
    ac7b:	e8 7d a2 ff ff       	callq  4efd <safe_mod_func_uint32_t_u_u>
    ac80:	85 c0                	test   %eax,%eax
    ac82:	8b 05 f0 53 00 00    	mov    0x53f0(%rip),%eax        # 10078 <g_59+0x8>
    ac88:	f7 d0                	not    %eax
    ac8a:	89 c2                	mov    %eax,%edx
    ac8c:	8b 05 ce 53 00 00    	mov    0x53ce(%rip),%eax        # 10060 <g_15>
    ac92:	39 c2                	cmp    %eax,%edx
    ac94:	0f 92 c0             	setb   %al
    ac97:	0f b6 d0             	movzbl %al,%edx
    ac9a:	48 8b 85 f0 f7 ff ff 	mov    -0x810(%rbp),%rax
    aca1:	66 89 10             	mov    %dx,(%rax)
    aca4:	48 8b 85 f0 f7 ff ff 	mov    -0x810(%rbp),%rax
    acab:	0f b7 00             	movzwl (%rax),%eax
    acae:	98                   	cwtl   
    acaf:	be 00 00 00 00       	mov    $0x0,%esi
    acb4:	89 c7                	mov    %eax,%edi
    acb6:	e8 f8 96 ff ff       	callq  43b3 <safe_add_func_int16_t_s_s>
    acbb:	8b 05 ef 53 00 00    	mov    0x53ef(%rip),%eax        # 100b0 <g_138+0x10>
    acc1:	48 98                	cltq   
    acc3:	ba ff ff ff ff       	mov    $0xffffffff,%edx
    acc8:	48 39 d0             	cmp    %rdx,%rax
    accb:	0f 96 c0             	setbe  %al
    acce:	0f b6 c0             	movzbl %al,%eax
    acd1:	48 89 05 b0 53 00 00 	mov    %rax,0x53b0(%rip)        # 10088 <g_103>
    acd8:	48 8b 05 a9 53 00 00 	mov    0x53a9(%rip),%rax        # 10088 <g_103>
    acdf:	49 39 c5             	cmp    %rax,%r13
    ace2:	76 0a                	jbe    acee <func_38+0xe8c>
    ace4:	48 8b 85 e8 f7 ff ff 	mov    -0x818(%rbp),%rax
    aceb:	48 85 c0             	test   %rax,%rax
    acee:	be 58 00 00 00       	mov    $0x58,%esi
    acf3:	bf 00 00 00 00       	mov    $0x0,%edi
    acf8:	e8 5d 9e ff ff       	callq  4b5a <safe_add_func_uint8_t_u_u>
    acfd:	84 c0                	test   %al,%al
    acff:	74 10                	je     ad11 <func_38+0xeaf>
    ad01:	83 bd e0 f7 ff ff 00 	cmpl   $0x0,-0x820(%rbp)
    ad08:	74 07                	je     ad11 <func_38+0xeaf>
    ad0a:	b8 01 00 00 00       	mov    $0x1,%eax
    ad0f:	eb 05                	jmp    ad16 <func_38+0xeb4>
    ad11:	b8 00 00 00 00       	mov    $0x0,%eax
    ad16:	44 89 f6             	mov    %r14d,%esi
    ad19:	89 c7                	mov    %eax,%edi
    ad1b:	e8 df 99 ff ff       	callq  46ff <safe_div_func_int32_t_s_s>
    ad20:	89 c2                	mov    %eax,%edx
    ad22:	8b 05 28 53 00 00    	mov    0x5328(%rip),%eax        # 10050 <g_9+0x10>
    ad28:	39 c2                	cmp    %eax,%edx
    ad2a:	0f 93 c0             	setae  %al
    ad2d:	0f b6 c0             	movzbl %al,%eax
    ad30:	be aa ff ff ff       	mov    $0xffffffaa,%esi
    ad35:	89 c7                	mov    %eax,%edi
    ad37:	e8 d6 94 ff ff       	callq  4212 <safe_mul_func_int8_t_s_s>
    ad3c:	0f be c0             	movsbl %al,%eax
    ad3f:	89 de                	mov    %ebx,%esi
    ad41:	89 c7                	mov    %eax,%edi
    ad43:	e8 8c 94 ff ff       	callq  41d4 <safe_add_func_int8_t_s_s>
    ad48:	0f be c0             	movsbl %al,%eax
    ad4b:	be 00 00 00 00       	mov    $0x0,%esi
    ad50:	89 c7                	mov    %eax,%edi
    ad52:	e8 9e 96 ff ff       	callq  43f5 <safe_mul_func_int16_t_s_s>
    ad57:	98                   	cwtl   
    ad58:	39 85 e0 f7 ff ff    	cmp    %eax,-0x820(%rbp)
    ad5e:	0f 96 c0             	setbe  %al
    ad61:	0f b6 c0             	movzbl %al,%eax
    ad64:	89 c6                	mov    %eax,%esi
    ad66:	bf 70 00 00 00       	mov    $0x70,%edi
    ad6b:	e8 ea 9d ff ff       	callq  4b5a <safe_add_func_uint8_t_u_u>
    ad70:	48 8b 85 f8 f7 ff ff 	mov    -0x808(%rbp),%rax
    ad77:	c7 00 56 5f 72 9c    	movl   $0x9c725f56,(%rax)
    ad7d:	48 8b 85 f8 f7 ff ff 	mov    -0x808(%rbp),%rax
    ad84:	8b 00                	mov    (%rax),%eax
    ad86:	48 8b 5d d8          	mov    -0x28(%rbp),%rbx
    ad8a:	64 48 33 1c 25 28 00 	xor    %fs:0x28,%rbx
    ad91:	00 00 
    ad93:	74 05                	je     ad9a <func_38+0xf38>
    ad95:	e8 d6 92 ff ff       	callq  4070 <__stack_chk_fail@plt>
    ad9a:	48 81 c4 20 08 00 00 	add    $0x820,%rsp
    ada1:	5b                   	pop    %rbx
    ada2:	41 5c                	pop    %r12
    ada4:	41 5d                	pop    %r13
    ada6:	41 5e                	pop    %r14
    ada8:	5d                   	pop    %rbp
    ada9:	c3                   	retq   

000000000000adaa <func_43>:
    adaa:	f3 0f 1e fa          	endbr64 
    adae:	55                   	push   %rbp
    adaf:	48 89 e5             	mov    %rsp,%rbp
    adb2:	41 55                	push   %r13
    adb4:	41 54                	push   %r12
    adb6:	53                   	push   %rbx
    adb7:	48 83 ec 78          	sub    $0x78,%rsp
    adbb:	89 bd 7c ff ff ff    	mov    %edi,-0x84(%rbp)
    adc1:	89 f0                	mov    %esi,%eax
    adc3:	66 89 95 7a ff ff ff 	mov    %dx,-0x86(%rbp)
    adca:	88 85 78 ff ff ff    	mov    %al,-0x88(%rbp)
    add0:	48 c7 45 90 09 00 00 	movq   $0x9,-0x70(%rbp)
    add7:	00 
    add8:	48 8d 05 81 52 00 00 	lea    0x5281(%rip),%rax        # 10060 <g_15>
    addf:	48 89 45 98          	mov    %rax,-0x68(%rbp)
    ade3:	48 8d 05 9a 52 00 00 	lea    0x529a(%rip),%rax        # 10084 <g_78>
    adea:	48 89 45 a0          	mov    %rax,-0x60(%rbp)
    adee:	48 8d 05 b7 67 00 00 	lea    0x67b7(%rip),%rax        # 115ac <g_82>
    adf5:	48 89 45 a8          	mov    %rax,-0x58(%rbp)
    adf9:	48 c7 45 b0 00 00 00 	movq   $0x0,-0x50(%rbp)
    ae00:	00 
    ae01:	48 8d 05 80 52 00 00 	lea    0x5280(%rip),%rax        # 10088 <g_103>
    ae08:	48 89 45 b8          	mov    %rax,-0x48(%rbp)
    ae0c:	c7 45 8c 73 a9 6f ce 	movl   $0xce6fa973,-0x74(%rbp)
    ae13:	48 c7 45 c0 00 00 00 	movq   $0x0,-0x40(%rbp)
    ae1a:	00 
    ae1b:	48 8d 05 6e 52 00 00 	lea    0x526e(%rip),%rax        # 10090 <g_112>
    ae22:	48 89 45 c8          	mov    %rax,-0x38(%rbp)
    ae26:	48 8d 05 4b 52 00 00 	lea    0x524b(%rip),%rax        # 10078 <g_59+0x8>
    ae2d:	48 89 45 d0          	mov    %rax,-0x30(%rbp)
    ae31:	48 c7 45 d8 00 00 00 	movq   $0x0,-0x28(%rbp)
    ae38:	00 
    ae39:	48 8b 45 90          	mov    -0x70(%rbp),%rax
    ae3d:	98                   	cwtl   
    ae3e:	89 c6                	mov    %eax,%esi
    ae40:	bf b2 12 00 00       	mov    $0x12b2,%edi
    ae45:	e8 69 95 ff ff       	callq  43b3 <safe_add_func_int16_t_s_s>
    ae4a:	98                   	cwtl   
    ae4b:	89 c6                	mov    %eax,%esi
    ae4d:	bf 01 00 00 00       	mov    $0x1,%edi
    ae52:	e8 fe 95 ff ff       	callq  4455 <safe_div_func_int16_t_s_s>
    ae57:	0f b6 c0             	movzbl %al,%eax
    ae5a:	be 01 00 00 00       	mov    $0x1,%esi
    ae5f:	89 c7                	mov    %eax,%edi
    ae61:	e8 9f 9d ff ff       	callq  4c05 <safe_lshift_func_uint8_t_u_s>
    ae66:	0f b6 9d 78 ff ff ff 	movzbl -0x88(%rbp),%ebx
    ae6d:	b8 86 97 3d ce       	mov    $0xce3d9786,%eax
    ae72:	89 c6                	mov    %eax,%esi
    ae74:	bf fa ff ff ff       	mov    $0xfffffffa,%edi
    ae79:	e8 87 97 ff ff       	callq  4605 <safe_sub_func_int32_t_s_s>
    ae7e:	0f b7 05 23 67 00 00 	movzwl 0x6723(%rip),%eax        # 115a8 <g_76>
    ae85:	89 c7                	mov    %eax,%edi
    ae87:	e8 b1 d2 ff ff       	callq  813d <func_6>
    ae8c:	39 c3                	cmp    %eax,%ebx
    ae8e:	0f 94 c0             	sete   %al
    ae91:	0f b6 d0             	movzbl %al,%edx
    ae94:	48 8b 45 a0          	mov    -0x60(%rbp),%rax
    ae98:	66 89 10             	mov    %dx,(%rax)
    ae9b:	bf 01 00 00 00       	mov    $0x1,%edi
    aea0:	e8 5c 02 00 00       	callq  b101 <func_64>
    aea5:	85 c0                	test   %eax,%eax
    aea7:	74 05                	je     aeae <func_43+0x104>
    aea9:	48 83 7d 90 00       	cmpq   $0x0,-0x70(%rbp)
    aeae:	8b 05 90 51 00 00    	mov    0x5190(%rip),%eax        # 10044 <g_9+0x4>
    aeb4:	83 f8 01             	cmp    $0x1,%eax
    aeb7:	0f 95 c0             	setne  %al
    aeba:	0f b6 d0             	movzbl %al,%edx
    aebd:	48 8b 45 a8          	mov    -0x58(%rbp),%rax
    aec1:	8b 00                	mov    (%rax),%eax
    aec3:	31 c2                	xor    %eax,%edx
    aec5:	48 8b 45 a8          	mov    -0x58(%rbp),%rax
    aec9:	89 10                	mov    %edx,(%rax)
    aecb:	0f b7 85 7a ff ff ff 	movzwl -0x86(%rbp),%eax
    aed2:	0f b7 d8             	movzwl %ax,%ebx
    aed5:	8b 05 a5 51 00 00    	mov    0x51a5(%rip),%eax        # 10080 <g_62>
    aedb:	44 0f b6 e0          	movzbl %al,%r12d
    aedf:	48 8b 45 a8          	mov    -0x58(%rbp),%rax
    aee3:	8b 00                	mov    (%rax),%eax
    aee5:	44 0f bf e8          	movswl %ax,%r13d
    aee9:	8b 95 7c ff ff ff    	mov    -0x84(%rbp),%edx
    aeef:	48 8b 45 b8          	mov    -0x48(%rbp),%rax
    aef3:	48 89 10             	mov    %rdx,(%rax)
    aef6:	0f b7 85 7a ff ff ff 	movzwl -0x86(%rbp),%eax
    aefd:	66 85 c0             	test   %ax,%ax
    af00:	0f 94 c0             	sete   %al
    af03:	0f b6 c0             	movzbl %al,%eax
    af06:	be b2 9b 00 00       	mov    $0x9bb2,%esi
    af0b:	89 c7                	mov    %eax,%edi
    af0d:	e8 2b 9e ff ff       	callq  4d3d <safe_mul_func_uint16_t_u_u>
    af12:	0f b7 c0             	movzwl %ax,%eax
    af15:	39 45 8c             	cmp    %eax,-0x74(%rbp)
    af18:	0f b7 85 7a ff ff ff 	movzwl -0x86(%rbp),%eax
    af1f:	83 f0 01             	xor    $0x1,%eax
    af22:	66 83 f8 0a          	cmp    $0xa,%ax
    af26:	76 11                	jbe    af39 <func_43+0x18f>
    af28:	8b 05 32 51 00 00    	mov    0x5132(%rip),%eax        # 10060 <g_15>
    af2e:	85 c0                	test   %eax,%eax
    af30:	74 07                	je     af39 <func_43+0x18f>
    af32:	b8 01 00 00 00       	mov    $0x1,%eax
    af37:	eb 05                	jmp    af3e <func_43+0x194>
    af39:	b8 00 00 00 00       	mov    $0x0,%eax
    af3e:	98                   	cwtl   
    af3f:	44 89 ee             	mov    %r13d,%esi
    af42:	89 c7                	mov    %eax,%edi
    af44:	e8 cd 94 ff ff       	callq  4416 <safe_mod_func_int16_t_s_s>
    af49:	44 0f b6 e8          	movzbl %al,%r13d
    af4d:	8b 05 2d 51 00 00    	mov    0x512d(%rip),%eax        # 10080 <g_62>
    af53:	89 c2                	mov    %eax,%edx
    af55:	8b 05 05 51 00 00    	mov    0x5105(%rip),%eax        # 10060 <g_15>
    af5b:	21 d0                	and    %edx,%eax
    af5d:	0f be c0             	movsbl %al,%eax
    af60:	89 c6                	mov    %eax,%esi
    af62:	bf ff ff ff ff       	mov    $0xffffffff,%edi
    af67:	e8 a6 92 ff ff       	callq  4212 <safe_mul_func_int8_t_s_s>
    af6c:	0f b6 c0             	movzbl %al,%eax
    af6f:	44 89 ee             	mov    %r13d,%esi
    af72:	89 c7                	mov    %eax,%edi
    af74:	e8 62 9c ff ff       	callq  4bdb <safe_div_func_uint8_t_u_u>
    af79:	0f b7 85 7a ff ff ff 	movzwl -0x86(%rbp),%eax
    af80:	0f b7 c0             	movzwl %ax,%eax
    af83:	be 01 00 00 00       	mov    $0x1,%esi
    af88:	89 c7                	mov    %eax,%edi
    af8a:	e8 ff 9d ff ff       	callq  4d8e <safe_div_func_uint16_t_u_u>
    af8f:	0f b7 05 ee 50 00 00 	movzwl 0x50ee(%rip),%eax        # 10084 <g_78>
    af96:	f7 d0                	not    %eax
    af98:	66 c1 e8 0f          	shr    $0xf,%ax
    af9c:	0f b6 c0             	movzbl %al,%eax
    af9f:	44 89 e6             	mov    %r12d,%esi
    afa2:	89 c7                	mov    %eax,%edi
    afa4:	e8 ea 9b ff ff       	callq  4b93 <safe_mul_func_uint8_t_u_u>
    afa9:	0f b6 c0             	movzbl %al,%eax
    afac:	89 de                	mov    %ebx,%esi
    afae:	89 c7                	mov    %eax,%edi
    afb0:	e8 09 9e ff ff       	callq  4dbe <safe_lshift_func_uint16_t_u_s>
    afb5:	0f b6 85 78 ff ff ff 	movzbl -0x88(%rbp),%eax
    afbc:	8b 15 9e 50 00 00    	mov    0x509e(%rip),%edx        # 10060 <g_15>
    afc2:	31 d0                	xor    %edx,%eax
    afc4:	98                   	cwtl   
    afc5:	89 c7                	mov    %eax,%edi
    afc7:	e8 b8 01 00 00       	callq  b184 <func_87>
    afcc:	89 c7                	mov    %eax,%edi
    afce:	e8 6a d1 ff ff       	callq  813d <func_6>
    afd3:	89 c2                	mov    %eax,%edx
    afd5:	48 8b 45 a8          	mov    -0x58(%rbp),%rax
    afd9:	89 10                	mov    %edx,(%rax)
    afdb:	48 8b 45 a8          	mov    -0x58(%rbp),%rax
    afdf:	8b 00                	mov    (%rax),%eax
    afe1:	85 c0                	test   %eax,%eax
    afe3:	0f 95 c0             	setne  %al
    afe6:	0f b6 d8             	movzbl %al,%ebx
    afe9:	0f b6 85 78 ff ff ff 	movzbl -0x88(%rbp),%eax
    aff0:	89 c7                	mov    %eax,%edi
    aff2:	e8 0a 01 00 00       	callq  b101 <func_64>
    aff7:	0f be c0             	movsbl %al,%eax
    affa:	89 de                	mov    %ebx,%esi
    affc:	89 c7                	mov    %eax,%edi
    affe:	e8 67 92 ff ff       	callq  426a <safe_div_func_int8_t_s_s>
    b003:	0f be c0             	movsbl %al,%eax
    b006:	be 01 00 00 00       	mov    $0x1,%esi
    b00b:	89 c7                	mov    %eax,%edi
    b00d:	e8 a4 95 ff ff       	callq  45b6 <safe_add_func_int32_t_s_s>
    b012:	48 8b 55 c8          	mov    -0x38(%rbp),%rdx
    b016:	8b 12                	mov    (%rdx),%edx
    b018:	31 c2                	xor    %eax,%edx
    b01a:	48 8b 45 c8          	mov    -0x38(%rbp),%rax
    b01e:	89 10                	mov    %edx,(%rax)
    b020:	48 8b 45 d0          	mov    -0x30(%rbp),%rax
    b024:	48 89 45 a8          	mov    %rax,-0x58(%rbp)
    b028:	48 8b 45 98          	mov    -0x68(%rbp),%rax
    b02c:	48 83 c4 78          	add    $0x78,%rsp
    b030:	5b                   	pop    %rbx
    b031:	41 5c                	pop    %r12
    b033:	41 5d                	pop    %r13
    b035:	5d                   	pop    %rbp
    b036:	c3                   	retq   

000000000000b037 <func_49>:
    b037:	f3 0f 1e fa          	endbr64 
    b03b:	55                   	push   %rbp
    b03c:	48 89 e5             	mov    %rsp,%rbp
    b03f:	48 83 ec 60          	sub    $0x60,%rsp
    b043:	89 f8                	mov    %edi,%eax
    b045:	48 89 75 b0          	mov    %rsi,-0x50(%rbp)
    b049:	48 89 55 a8          	mov    %rdx,-0x58(%rbp)
    b04d:	48 89 4d a0          	mov    %rcx,-0x60(%rbp)
    b051:	44 89 c2             	mov    %r8d,%edx
    b054:	88 45 bc             	mov    %al,-0x44(%rbp)
    b057:	89 d0                	mov    %edx,%eax
    b059:	88 45 b8             	mov    %al,-0x48(%rbp)
    b05c:	64 48 8b 04 25 28 00 	mov    %fs:0x28,%rax
    b063:	00 00 
    b065:	48 89 45 f8          	mov    %rax,-0x8(%rbp)
    b069:	31 c0                	xor    %eax,%eax
    b06b:	48 8d 05 06 50 00 00 	lea    0x5006(%rip),%rax        # 10078 <g_59+0x8>
    b072:	48 89 45 d8          	mov    %rax,-0x28(%rbp)
    b076:	c7 45 cc 00 00 00 00 	movl   $0x0,-0x34(%rbp)
    b07d:	eb 54                	jmp    b0d3 <func_49+0x9c>
    b07f:	c7 45 d0 00 00 00 00 	movl   $0x0,-0x30(%rbp)
    b086:	eb 41                	jmp    b0c9 <func_49+0x92>
    b088:	c7 45 d4 00 00 00 00 	movl   $0x0,-0x2c(%rbp)
    b08f:	eb 2e                	jmp    b0bf <func_49+0x88>
    b091:	8b 45 d4             	mov    -0x2c(%rbp),%eax
    b094:	48 63 f0             	movslq %eax,%rsi
    b097:	8b 45 d0             	mov    -0x30(%rbp),%eax
    b09a:	48 63 c8             	movslq %eax,%rcx
    b09d:	8b 45 cc             	mov    -0x34(%rbp),%eax
    b0a0:	48 63 d0             	movslq %eax,%rdx
    b0a3:	48 89 d0             	mov    %rdx,%rax
    b0a6:	48 c1 e0 02          	shl    $0x2,%rax
    b0aa:	48 01 d0             	add    %rdx,%rax
    b0ad:	48 01 f0             	add    %rsi,%rax
    b0b0:	48 01 c8             	add    %rcx,%rax
    b0b3:	c7 44 85 e0 ff 24 48 	movl   $0x954824ff,-0x20(%rbp,%rax,4)
    b0ba:	95 
    b0bb:	83 45 d4 01          	addl   $0x1,-0x2c(%rbp)
    b0bf:	83 7d d4 00          	cmpl   $0x0,-0x2c(%rbp)
    b0c3:	7e cc                	jle    b091 <func_49+0x5a>
    b0c5:	83 45 d0 01          	addl   $0x1,-0x30(%rbp)
    b0c9:	83 7d d0 04          	cmpl   $0x4,-0x30(%rbp)
    b0cd:	7e b9                	jle    b088 <func_49+0x51>
    b0cf:	83 45 cc 01          	addl   $0x1,-0x34(%rbp)
    b0d3:	83 7d cc 00          	cmpl   $0x0,-0x34(%rbp)
    b0d7:	7e a6                	jle    b07f <func_49+0x48>
    b0d9:	8b 45 e8             	mov    -0x18(%rbp),%eax
    b0dc:	89 c2                	mov    %eax,%edx
    b0de:	48 8b 45 d8          	mov    -0x28(%rbp),%rax
    b0e2:	89 10                	mov    %edx,(%rax)
    b0e4:	0f b7 05 7f 18 00 00 	movzwl 0x187f(%rip),%eax        # c96a <l_60.4449+0xa>
    b0eb:	48 8b 7d f8          	mov    -0x8(%rbp),%rdi
    b0ef:	64 48 33 3c 25 28 00 	xor    %fs:0x28,%rdi
    b0f6:	00 00 
    b0f8:	74 05                	je     b0ff <func_49+0xc8>
    b0fa:	e8 71 8f ff ff       	callq  4070 <__stack_chk_fail@plt>
    b0ff:	c9                   	leaveq 
    b100:	c3                   	retq   

000000000000b101 <func_64>:
    b101:	f3 0f 1e fa          	endbr64 
    b105:	55                   	push   %rbp
    b106:	48 89 e5             	mov    %rsp,%rbp
    b109:	48 81 ec 80 01 00 00 	sub    $0x180,%rsp
    b110:	89 f8                	mov    %edi,%eax
    b112:	66 89 85 8c fe ff ff 	mov    %ax,-0x174(%rbp)
    b119:	64 48 8b 04 25 28 00 	mov    %fs:0x28,%rax
    b120:	00 00 
    b122:	48 89 45 f8          	mov    %rax,-0x8(%rbp)
    b126:	31 c0                	xor    %eax,%eax
    b128:	48 8d 05 31 4f 00 00 	lea    0x4f31(%rip),%rax        # 10060 <g_15>
    b12f:	48 89 85 98 fe ff ff 	mov    %rax,-0x168(%rbp)
    b136:	48 8d 85 a0 fe ff ff 	lea    -0x160(%rbp),%rax
    b13d:	48 8d 15 fc 5c 00 00 	lea    0x5cfc(%rip),%rdx        # 10e40 <g_873+0x8a0>
    b144:	b9 2a 00 00 00       	mov    $0x2a,%ecx
    b149:	48 89 c7             	mov    %rax,%rdi
    b14c:	48 89 d6             	mov    %rdx,%rsi
    b14f:	f3 48 a5             	rep movsq %ds:(%rsi),%es:(%rdi)
    b152:	48 83 bd 98 fe ff ff 	cmpq   $0x0,-0x168(%rbp)
    b159:	00 
    b15a:	0f 94 c0             	sete   %al
    b15d:	0f b6 c0             	movzbl %al,%eax
    b160:	89 05 12 4f 00 00    	mov    %eax,0x4f12(%rip)        # 10078 <g_59+0x8>
    b166:	0f b7 05 17 4f 00 00 	movzwl 0x4f17(%rip),%eax        # 10084 <g_78>
    b16d:	98                   	cwtl   
    b16e:	48 8b 55 f8          	mov    -0x8(%rbp),%rdx
    b172:	64 48 33 14 25 28 00 	xor    %fs:0x28,%rdx
    b179:	00 00 
    b17b:	74 05                	je     b182 <func_64+0x81>
    b17d:	e8 ee 8e ff ff       	callq  4070 <__stack_chk_fail@plt>
    b182:	c9                   	leaveq 
    b183:	c3                   	retq   

000000000000b184 <func_87>:
    b184:	f3 0f 1e fa          	endbr64 
    b188:	55                   	push   %rbp
    b189:	48 89 e5             	mov    %rsp,%rbp
    b18c:	48 83 ec 30          	sub    $0x30,%rsp
    b190:	89 f8                	mov    %edi,%eax
    b192:	66 89 45 dc          	mov    %ax,-0x24(%rbp)
    b196:	64 48 8b 04 25 28 00 	mov    %fs:0x28,%rax
    b19d:	00 00 
    b19f:	48 89 45 f8          	mov    %rax,-0x8(%rbp)
    b1a3:	31 c0                	xor    %eax,%eax
    b1a5:	48 c7 45 e8 00 00 00 	movq   $0x0,-0x18(%rbp)
    b1ac:	00 
    b1ad:	48 8d 05 f8 63 00 00 	lea    0x63f8(%rip),%rax        # 115ac <g_82>
    b1b4:	48 89 45 e0          	mov    %rax,-0x20(%rbp)
    b1b8:	48 8d 45 e0          	lea    -0x20(%rbp),%rax
    b1bc:	48 89 45 f0          	mov    %rax,-0x10(%rbp)
    b1c0:	48 8b 45 f0          	mov    -0x10(%rbp),%rax
    b1c4:	48 c7 00 00 00 00 00 	movq   $0x0,(%rax)
    b1cb:	0f b7 05 d6 63 00 00 	movzwl 0x63d6(%rip),%eax        # 115a8 <g_76>
    b1d2:	48 8b 55 f8          	mov    -0x8(%rbp),%rdx
    b1d6:	64 48 33 14 25 28 00 	xor    %fs:0x28,%rdx
    b1dd:	00 00 
    b1df:	74 05                	je     b1e6 <func_87+0x62>
    b1e1:	e8 8a 8e ff ff       	callq  4070 <__stack_chk_fail@plt>
    b1e6:	c9                   	leaveq 
    b1e7:	c3                   	retq   

000000000000b1e8 <main>:
    b1e8:	f3 0f 1e fa          	endbr64 
    b1ec:	55                   	push   %rbp
    b1ed:	48 89 e5             	mov    %rsp,%rbp
    b1f0:	48 83 ec 20          	sub    $0x20,%rsp
    b1f4:	89 7d ec             	mov    %edi,-0x14(%rbp)
    b1f7:	48 89 75 e0          	mov    %rsi,-0x20(%rbp)
    b1fb:	c7 45 fc 00 00 00 00 	movl   $0x0,-0x4(%rbp)
    b202:	83 7d ec 02          	cmpl   $0x2,-0x14(%rbp)
    b206:	75 25                	jne    b22d <main+0x45>
    b208:	48 8b 45 e0          	mov    -0x20(%rbp),%rax
    b20c:	48 83 c0 08          	add    $0x8,%rax
    b210:	48 8b 00             	mov    (%rax),%rax
    b213:	48 8d 35 76 15 00 00 	lea    0x1576(%rip),%rsi        # c790 <g_909+0x718>
    b21a:	48 89 c7             	mov    %rax,%rdi
    b21d:	e8 6e 8e ff ff       	callq  4090 <strcmp@plt>
    b222:	85 c0                	test   %eax,%eax
    b224:	75 07                	jne    b22d <main+0x45>
    b226:	c7 45 fc 01 00 00 00 	movl   $0x1,-0x4(%rbp)
    b22d:	e8 57 8f ff ff       	callq  4189 <platform_main_begin>
    b232:	e8 61 a3 ff ff       	callq  5598 <crc32_gentab>
    b237:	e8 79 a5 ff ff       	callq  57b5 <func_1>
    b23c:	c7 45 f0 00 00 00 00 	movl   $0x0,-0x10(%rbp)
    b243:	eb 4d                	jmp    b292 <main+0xaa>
    b245:	8b 45 f0             	mov    -0x10(%rbp),%eax
    b248:	48 98                	cltq   
    b24a:	48 8d 14 85 00 00 00 	lea    0x0(,%rax,4),%rdx
    b251:	00 
    b252:	48 8d 05 e7 4d 00 00 	lea    0x4de7(%rip),%rax        # 10040 <g_9>
    b259:	8b 04 02             	mov    (%rdx,%rax,1),%eax
    b25c:	89 c1                	mov    %eax,%ecx
    b25e:	8b 45 fc             	mov    -0x4(%rbp),%eax
    b261:	89 c2                	mov    %eax,%edx
    b263:	48 8d 35 28 15 00 00 	lea    0x1528(%rip),%rsi        # c792 <g_909+0x71a>
    b26a:	48 89 cf             	mov    %rcx,%rdi
    b26d:	e8 81 a4 ff ff       	callq  56f3 <transparent_crc>
    b272:	83 7d fc 00          	cmpl   $0x0,-0x4(%rbp)
    b276:	74 16                	je     b28e <main+0xa6>
    b278:	8b 45 f0             	mov    -0x10(%rbp),%eax
    b27b:	89 c6                	mov    %eax,%esi
    b27d:	48 8d 3d 15 15 00 00 	lea    0x1515(%rip),%rdi        # c799 <g_909+0x721>
    b284:	b8 00 00 00 00       	mov    $0x0,%eax
    b289:	e8 f2 8d ff ff       	callq  4080 <printf@plt>
    b28e:	83 45 f0 01          	addl   $0x1,-0x10(%rbp)
    b292:	83 7d f0 07          	cmpl   $0x7,-0x10(%rbp)
    b296:	7e ad                	jle    b245 <main+0x5d>
    b298:	8b 05 c2 4d 00 00    	mov    0x4dc2(%rip),%eax        # 10060 <g_15>
    b29e:	89 c1                	mov    %eax,%ecx
    b2a0:	8b 45 fc             	mov    -0x4(%rbp),%eax
    b2a3:	89 c2                	mov    %eax,%edx
    b2a5:	48 8d 35 fb 14 00 00 	lea    0x14fb(%rip),%rsi        # c7a7 <g_909+0x72f>
    b2ac:	48 89 cf             	mov    %rcx,%rdi
    b2af:	e8 3f a4 ff ff       	callq  56f3 <transparent_crc>
    b2b4:	b8 86 97 3d ce       	mov    $0xce3d9786,%eax
    b2b9:	89 c1                	mov    %eax,%ecx
    b2bb:	8b 45 fc             	mov    -0x4(%rbp),%eax
    b2be:	89 c2                	mov    %eax,%edx
    b2c0:	48 8d 35 e5 14 00 00 	lea    0x14e5(%rip),%rsi        # c7ac <g_909+0x734>
    b2c7:	48 89 cf             	mov    %rcx,%rdi
    b2ca:	e8 24 a4 ff ff       	callq  56f3 <transparent_crc>
    b2cf:	c7 45 f0 00 00 00 00 	movl   $0x0,-0x10(%rbp)
    b2d6:	eb 4b                	jmp    b323 <main+0x13b>
    b2d8:	8b 45 f0             	mov    -0x10(%rbp),%eax
    b2db:	48 98                	cltq   
    b2dd:	48 8d 14 85 00 00 00 	lea    0x0(,%rax,4),%rdx
    b2e4:	00 
    b2e5:	48 8d 05 84 4d 00 00 	lea    0x4d84(%rip),%rax        # 10070 <g_59>
    b2ec:	8b 04 02             	mov    (%rdx,%rax,1),%eax
    b2ef:	48 98                	cltq   
    b2f1:	8b 55 fc             	mov    -0x4(%rbp),%edx
    b2f4:	48 8d 35 b6 14 00 00 	lea    0x14b6(%rip),%rsi        # c7b1 <g_909+0x739>
    b2fb:	48 89 c7             	mov    %rax,%rdi
    b2fe:	e8 f0 a3 ff ff       	callq  56f3 <transparent_crc>
    b303:	83 7d fc 00          	cmpl   $0x0,-0x4(%rbp)
    b307:	74 16                	je     b31f <main+0x137>
    b309:	8b 45 f0             	mov    -0x10(%rbp),%eax
    b30c:	89 c6                	mov    %eax,%esi
    b30e:	48 8d 3d 84 14 00 00 	lea    0x1484(%rip),%rdi        # c799 <g_909+0x721>
    b315:	b8 00 00 00 00       	mov    $0x0,%eax
    b31a:	e8 61 8d ff ff       	callq  4080 <printf@plt>
    b31f:	83 45 f0 01          	addl   $0x1,-0x10(%rbp)
    b323:	83 7d f0 03          	cmpl   $0x3,-0x10(%rbp)
    b327:	7e af                	jle    b2d8 <main+0xf0>
    b329:	8b 05 51 4d 00 00    	mov    0x4d51(%rip),%eax        # 10080 <g_62>
    b32f:	89 c1                	mov    %eax,%ecx
    b331:	8b 45 fc             	mov    -0x4(%rbp),%eax
    b334:	89 c2                	mov    %eax,%edx
    b336:	48 8d 35 7c 14 00 00 	lea    0x147c(%rip),%rsi        # c7b9 <g_909+0x741>
    b33d:	48 89 cf             	mov    %rcx,%rdi
    b340:	e8 ae a3 ff ff       	callq  56f3 <transparent_crc>
    b345:	48 c7 c1 fb ff ff ff 	mov    $0xfffffffffffffffb,%rcx
    b34c:	8b 45 fc             	mov    -0x4(%rbp),%eax
    b34f:	89 c2                	mov    %eax,%edx
    b351:	48 8d 35 66 14 00 00 	lea    0x1466(%rip),%rsi        # c7be <g_909+0x746>
    b358:	48 89 cf             	mov    %rcx,%rdi
    b35b:	e8 93 a3 ff ff       	callq  56f3 <transparent_crc>
    b360:	0f b7 05 41 62 00 00 	movzwl 0x6241(%rip),%eax        # 115a8 <g_76>
    b367:	0f b7 c0             	movzwl %ax,%eax
    b36a:	8b 55 fc             	mov    -0x4(%rbp),%edx
    b36d:	48 8d 35 4f 14 00 00 	lea    0x144f(%rip),%rsi        # c7c3 <g_909+0x74b>
    b374:	48 89 c7             	mov    %rax,%rdi
    b377:	e8 77 a3 ff ff       	callq  56f3 <transparent_crc>
    b37c:	0f b7 05 01 4d 00 00 	movzwl 0x4d01(%rip),%eax        # 10084 <g_78>
    b383:	48 0f bf c0          	movswq %ax,%rax
    b387:	8b 55 fc             	mov    -0x4(%rbp),%edx
    b38a:	48 8d 35 3a 14 00 00 	lea    0x143a(%rip),%rsi        # c7cb <g_909+0x753>
    b391:	48 89 c7             	mov    %rax,%rdi
    b394:	e8 5a a3 ff ff       	callq  56f3 <transparent_crc>
    b399:	8b 05 0d 62 00 00    	mov    0x620d(%rip),%eax        # 115ac <g_82>
    b39f:	48 98                	cltq   
    b3a1:	8b 55 fc             	mov    -0x4(%rbp),%edx
    b3a4:	48 8d 35 25 14 00 00 	lea    0x1425(%rip),%rsi        # c7d0 <g_909+0x758>
    b3ab:	48 89 c7             	mov    %rax,%rdi
    b3ae:	e8 40 a3 ff ff       	callq  56f3 <transparent_crc>
    b3b3:	48 8b 05 ce 4c 00 00 	mov    0x4cce(%rip),%rax        # 10088 <g_103>
    b3ba:	48 89 c1             	mov    %rax,%rcx
    b3bd:	8b 45 fc             	mov    -0x4(%rbp),%eax
    b3c0:	89 c2                	mov    %eax,%edx
    b3c2:	48 8d 35 0c 14 00 00 	lea    0x140c(%rip),%rsi        # c7d5 <g_909+0x75d>
    b3c9:	48 89 cf             	mov    %rcx,%rdi
    b3cc:	e8 22 a3 ff ff       	callq  56f3 <transparent_crc>
    b3d1:	8b 05 b9 4c 00 00    	mov    0x4cb9(%rip),%eax        # 10090 <g_112>
    b3d7:	48 98                	cltq   
    b3d9:	8b 55 fc             	mov    -0x4(%rbp),%edx
    b3dc:	48 8d 35 f8 13 00 00 	lea    0x13f8(%rip),%rsi        # c7db <g_909+0x763>
    b3e3:	48 89 c7             	mov    %rax,%rdi
    b3e6:	e8 08 a3 ff ff       	callq  56f3 <transparent_crc>
    b3eb:	48 8b 05 a6 4c 00 00 	mov    0x4ca6(%rip),%rax        # 10098 <g_130>
    b3f2:	8b 55 fc             	mov    -0x4(%rbp),%edx
    b3f5:	48 8d 35 e5 13 00 00 	lea    0x13e5(%rip),%rsi        # c7e1 <g_909+0x769>
    b3fc:	48 89 c7             	mov    %rax,%rdi
    b3ff:	e8 ef a2 ff ff       	callq  56f3 <transparent_crc>
    b404:	c7 45 f0 00 00 00 00 	movl   $0x0,-0x10(%rbp)
    b40b:	e9 8c 00 00 00       	jmpq   b49c <main+0x2b4>
    b410:	c7 45 f4 00 00 00 00 	movl   $0x0,-0xc(%rbp)
    b417:	eb 79                	jmp    b492 <main+0x2aa>
    b419:	c7 45 f8 00 00 00 00 	movl   $0x0,-0x8(%rbp)
    b420:	eb 66                	jmp    b488 <main+0x2a0>
    b422:	8b 45 f8             	mov    -0x8(%rbp),%eax
    b425:	48 63 d0             	movslq %eax,%rdx
    b428:	8b 45 f4             	mov    -0xc(%rbp),%eax
    b42b:	48 98                	cltq   
    b42d:	8b 4d f0             	mov    -0x10(%rbp),%ecx
    b430:	48 63 c9             	movslq %ecx,%rcx
    b433:	48 01 c9             	add    %rcx,%rcx
    b436:	48 01 ca             	add    %rcx,%rdx
    b439:	48 01 d0             	add    %rdx,%rax
    b43c:	48 8d 14 85 00 00 00 	lea    0x0(,%rax,4),%rdx
    b443:	00 
    b444:	48 8d 05 55 4c 00 00 	lea    0x4c55(%rip),%rax        # 100a0 <g_138>
    b44b:	8b 04 02             	mov    (%rdx,%rax,1),%eax
    b44e:	48 98                	cltq   
    b450:	8b 55 fc             	mov    -0x4(%rbp),%edx
    b453:	48 8d 35 8d 13 00 00 	lea    0x138d(%rip),%rsi        # c7e7 <g_909+0x76f>
    b45a:	48 89 c7             	mov    %rax,%rdi
    b45d:	e8 91 a2 ff ff       	callq  56f3 <transparent_crc>
    b462:	83 7d fc 00          	cmpl   $0x0,-0x4(%rbp)
    b466:	74 1c                	je     b484 <main+0x29c>
    b468:	8b 4d f8             	mov    -0x8(%rbp),%ecx
    b46b:	8b 55 f4             	mov    -0xc(%rbp),%edx
    b46e:	8b 45 f0             	mov    -0x10(%rbp),%eax
    b471:	89 c6                	mov    %eax,%esi
    b473:	48 8d 3d 7c 13 00 00 	lea    0x137c(%rip),%rdi        # c7f6 <g_909+0x77e>
    b47a:	b8 00 00 00 00       	mov    $0x0,%eax
    b47f:	e8 fc 8b ff ff       	callq  4080 <printf@plt>
    b484:	83 45 f8 01          	addl   $0x1,-0x8(%rbp)
    b488:	83 7d f8 00          	cmpl   $0x0,-0x8(%rbp)
    b48c:	7e 94                	jle    b422 <main+0x23a>
    b48e:	83 45 f4 01          	addl   $0x1,-0xc(%rbp)
    b492:	83 7d f4 01          	cmpl   $0x1,-0xc(%rbp)
    b496:	7e 81                	jle    b419 <main+0x231>
    b498:	83 45 f0 01          	addl   $0x1,-0x10(%rbp)
    b49c:	83 7d f0 05          	cmpl   $0x5,-0x10(%rbp)
    b4a0:	0f 8e 6a ff ff ff    	jle    b410 <main+0x228>
    b4a6:	0f b6 05 23 4c 00 00 	movzbl 0x4c23(%rip),%eax        # 100d0 <g_140>
    b4ad:	0f b6 c0             	movzbl %al,%eax
    b4b0:	8b 55 fc             	mov    -0x4(%rbp),%edx
    b4b3:	48 8d 35 52 13 00 00 	lea    0x1352(%rip),%rsi        # c80c <g_909+0x794>
    b4ba:	48 89 c7             	mov    %rax,%rdi
    b4bd:	e8 31 a2 ff ff       	callq  56f3 <transparent_crc>
    b4c2:	48 8b 05 0f 4c 00 00 	mov    0x4c0f(%rip),%rax        # 100d8 <g_171>
    b4c9:	48 89 c1             	mov    %rax,%rcx
    b4cc:	8b 45 fc             	mov    -0x4(%rbp),%eax
    b4cf:	89 c2                	mov    %eax,%edx
    b4d1:	48 8d 35 3a 13 00 00 	lea    0x133a(%rip),%rsi        # c812 <g_909+0x79a>
    b4d8:	48 89 cf             	mov    %rcx,%rdi
    b4db:	e8 13 a2 ff ff       	callq  56f3 <transparent_crc>
    b4e0:	c7 45 f0 00 00 00 00 	movl   $0x0,-0x10(%rbp)
    b4e7:	eb 4d                	jmp    b536 <main+0x34e>
    b4e9:	8b 45 f0             	mov    -0x10(%rbp),%eax
    b4ec:	48 98                	cltq   
    b4ee:	48 8d 14 c5 00 00 00 	lea    0x0(,%rax,8),%rdx
    b4f5:	00 
    b4f6:	48 8d 05 e3 4b 00 00 	lea    0x4be3(%rip),%rax        # 100e0 <g_176>
    b4fd:	0f b6 04 02          	movzbl (%rdx,%rax,1),%eax
    b501:	0f b6 c0             	movzbl %al,%eax
    b504:	8b 55 fc             	mov    -0x4(%rbp),%edx
    b507:	48 8d 35 0a 13 00 00 	lea    0x130a(%rip),%rsi        # c818 <g_909+0x7a0>
    b50e:	48 89 c7             	mov    %rax,%rdi
    b511:	e8 dd a1 ff ff       	callq  56f3 <transparent_crc>
    b516:	83 7d fc 00          	cmpl   $0x0,-0x4(%rbp)
    b51a:	74 16                	je     b532 <main+0x34a>
    b51c:	8b 45 f0             	mov    -0x10(%rbp),%eax
    b51f:	89 c6                	mov    %eax,%esi
    b521:	48 8d 3d 71 12 00 00 	lea    0x1271(%rip),%rdi        # c799 <g_909+0x721>
    b528:	b8 00 00 00 00       	mov    $0x0,%eax
    b52d:	e8 4e 8b ff ff       	callq  4080 <printf@plt>
    b532:	83 45 f0 01          	addl   $0x1,-0x10(%rbp)
    b536:	83 7d f0 09          	cmpl   $0x9,-0x10(%rbp)
    b53a:	7e ad                	jle    b4e9 <main+0x301>
    b53c:	0f b7 05 ed 4b 00 00 	movzwl 0x4bed(%rip),%eax        # 10130 <g_178>
    b543:	48 0f bf c0          	movswq %ax,%rax
    b547:	8b 55 fc             	mov    -0x4(%rbp),%edx
    b54a:	48 8d 35 d3 12 00 00 	lea    0x12d3(%rip),%rsi        # c824 <g_909+0x7ac>
    b551:	48 89 c7             	mov    %rax,%rdi
    b554:	e8 9a a1 ff ff       	callq  56f3 <transparent_crc>
    b559:	0f b7 05 d2 4b 00 00 	movzwl 0x4bd2(%rip),%eax        # 10132 <g_186>
    b560:	48 0f bf c0          	movswq %ax,%rax
    b564:	8b 55 fc             	mov    -0x4(%rbp),%edx
    b567:	48 8d 35 bc 12 00 00 	lea    0x12bc(%rip),%rsi        # c82a <g_909+0x7b2>
    b56e:	48 89 c7             	mov    %rax,%rdi
    b571:	e8 7d a1 ff ff       	callq  56f3 <transparent_crc>
    b576:	c7 45 f0 00 00 00 00 	movl   $0x0,-0x10(%rbp)
    b57d:	eb 73                	jmp    b5f2 <main+0x40a>
    b57f:	c7 45 f4 00 00 00 00 	movl   $0x0,-0xc(%rbp)
    b586:	eb 60                	jmp    b5e8 <main+0x400>
    b588:	8b 45 f4             	mov    -0xc(%rbp),%eax
    b58b:	48 63 c8             	movslq %eax,%rcx
    b58e:	8b 45 f0             	mov    -0x10(%rbp),%eax
    b591:	48 63 d0             	movslq %eax,%rdx
    b594:	48 89 d0             	mov    %rdx,%rax
    b597:	48 c1 e0 02          	shl    $0x2,%rax
    b59b:	48 01 d0             	add    %rdx,%rax
    b59e:	48 8d 14 08          	lea    (%rax,%rcx,1),%rdx
    b5a2:	48 8d 05 8f 4b 00 00 	lea    0x4b8f(%rip),%rax        # 10138 <g_203>
    b5a9:	48 01 d0             	add    %rdx,%rax
    b5ac:	0f b6 00             	movzbl (%rax),%eax
    b5af:	48 0f be c0          	movsbq %al,%rax
    b5b3:	8b 55 fc             	mov    -0x4(%rbp),%edx
    b5b6:	48 8d 35 73 12 00 00 	lea    0x1273(%rip),%rsi        # c830 <g_909+0x7b8>
    b5bd:	48 89 c7             	mov    %rax,%rdi
    b5c0:	e8 2e a1 ff ff       	callq  56f3 <transparent_crc>
    b5c5:	83 7d fc 00          	cmpl   $0x0,-0x4(%rbp)
    b5c9:	74 19                	je     b5e4 <main+0x3fc>
    b5cb:	8b 55 f4             	mov    -0xc(%rbp),%edx
    b5ce:	8b 45 f0             	mov    -0x10(%rbp),%eax
    b5d1:	89 c6                	mov    %eax,%esi
    b5d3:	48 8d 3d 62 12 00 00 	lea    0x1262(%rip),%rdi        # c83c <g_909+0x7c4>
    b5da:	b8 00 00 00 00       	mov    $0x0,%eax
    b5df:	e8 9c 8a ff ff       	callq  4080 <printf@plt>
    b5e4:	83 45 f4 01          	addl   $0x1,-0xc(%rbp)
    b5e8:	83 7d f4 04          	cmpl   $0x4,-0xc(%rbp)
    b5ec:	7e 9a                	jle    b588 <main+0x3a0>
    b5ee:	83 45 f0 01          	addl   $0x1,-0x10(%rbp)
    b5f2:	83 7d f0 01          	cmpl   $0x1,-0x10(%rbp)
    b5f6:	7e 87                	jle    b57f <main+0x397>
    b5f8:	c7 45 f0 00 00 00 00 	movl   $0x0,-0x10(%rbp)
    b5ff:	e9 a7 00 00 00       	jmpq   b6ab <main+0x4c3>
    b604:	c7 45 f4 00 00 00 00 	movl   $0x0,-0xc(%rbp)
    b60b:	e9 8d 00 00 00       	jmpq   b69d <main+0x4b5>
    b610:	c7 45 f8 00 00 00 00 	movl   $0x0,-0x8(%rbp)
    b617:	eb 7a                	jmp    b693 <main+0x4ab>
    b619:	8b 45 f8             	mov    -0x8(%rbp),%eax
    b61c:	48 63 f0             	movslq %eax,%rsi
    b61f:	8b 45 f0             	mov    -0x10(%rbp),%eax
    b622:	48 63 d0             	movslq %eax,%rdx
    b625:	8b 45 f4             	mov    -0xc(%rbp),%eax
    b628:	48 63 c8             	movslq %eax,%rcx
    b62b:	48 89 d0             	mov    %rdx,%rax
    b62e:	48 c1 e0 04          	shl    $0x4,%rax
    b632:	48 29 d0             	sub    %rdx,%rax
    b635:	48 01 c0             	add    %rax,%rax
    b638:	48 89 ca             	mov    %rcx,%rdx
    b63b:	48 01 d2             	add    %rdx,%rdx
    b63e:	48 01 ca             	add    %rcx,%rdx
    b641:	48 01 d0             	add    %rdx,%rax
    b644:	48 01 f0             	add    %rsi,%rax
    b647:	48 8d 14 85 00 00 00 	lea    0x0(,%rax,4),%rdx
    b64e:	00 
    b64f:	48 8d 05 0a 4b 00 00 	lea    0x4b0a(%rip),%rax        # 10160 <g_261>
    b656:	8b 04 02             	mov    (%rdx,%rax,1),%eax
    b659:	48 98                	cltq   
    b65b:	8b 55 fc             	mov    -0x4(%rbp),%edx
    b65e:	48 8d 35 e9 11 00 00 	lea    0x11e9(%rip),%rsi        # c84e <g_909+0x7d6>
    b665:	48 89 c7             	mov    %rax,%rdi
    b668:	e8 86 a0 ff ff       	callq  56f3 <transparent_crc>
    b66d:	83 7d fc 00          	cmpl   $0x0,-0x4(%rbp)
    b671:	74 1c                	je     b68f <main+0x4a7>
    b673:	8b 4d f8             	mov    -0x8(%rbp),%ecx
    b676:	8b 55 f4             	mov    -0xc(%rbp),%edx
    b679:	8b 45 f0             	mov    -0x10(%rbp),%eax
    b67c:	89 c6                	mov    %eax,%esi
    b67e:	48 8d 3d 71 11 00 00 	lea    0x1171(%rip),%rdi        # c7f6 <g_909+0x77e>
    b685:	b8 00 00 00 00       	mov    $0x0,%eax
    b68a:	e8 f1 89 ff ff       	callq  4080 <printf@plt>
    b68f:	83 45 f8 01          	addl   $0x1,-0x8(%rbp)
    b693:	83 7d f8 02          	cmpl   $0x2,-0x8(%rbp)
    b697:	7e 80                	jle    b619 <main+0x431>
    b699:	83 45 f4 01          	addl   $0x1,-0xc(%rbp)
    b69d:	83 7d f4 09          	cmpl   $0x9,-0xc(%rbp)
    b6a1:	0f 8e 69 ff ff ff    	jle    b610 <main+0x428>
    b6a7:	83 45 f0 01          	addl   $0x1,-0x10(%rbp)
    b6ab:	83 7d f0 07          	cmpl   $0x7,-0x10(%rbp)
    b6af:	0f 8e 4f ff ff ff    	jle    b604 <main+0x41c>
    b6b5:	8b 05 65 4e 00 00    	mov    0x4e65(%rip),%eax        # 10520 <g_270>
    b6bb:	48 98                	cltq   
    b6bd:	8b 55 fc             	mov    -0x4(%rbp),%edx
    b6c0:	48 8d 35 96 11 00 00 	lea    0x1196(%rip),%rsi        # c85d <g_909+0x7e5>
    b6c7:	48 89 c7             	mov    %rax,%rdi
    b6ca:	e8 24 a0 ff ff       	callq  56f3 <transparent_crc>
    b6cf:	0f b7 05 4e 4e 00 00 	movzwl 0x4e4e(%rip),%eax        # 10524 <g_270+0x4>
    b6d6:	48 0f bf c0          	movswq %ax,%rax
    b6da:	8b 55 fc             	mov    -0x4(%rbp),%edx
    b6dd:	48 8d 35 82 11 00 00 	lea    0x1182(%rip),%rsi        # c866 <g_909+0x7ee>
    b6e4:	48 89 c7             	mov    %rax,%rdi
    b6e7:	e8 07 a0 ff ff       	callq  56f3 <transparent_crc>
    b6ec:	0f b6 05 33 4e 00 00 	movzbl 0x4e33(%rip),%eax        # 10526 <g_270+0x6>
    b6f3:	0f b6 c0             	movzbl %al,%eax
    b6f6:	8b 55 fc             	mov    -0x4(%rbp),%edx
    b6f9:	48 8d 35 6f 11 00 00 	lea    0x116f(%rip),%rsi        # c86f <g_909+0x7f7>
    b700:	48 89 c7             	mov    %rax,%rdi
    b703:	e8 eb 9f ff ff       	callq  56f3 <transparent_crc>
    b708:	8b 05 52 09 00 00    	mov    0x952(%rip),%eax        # c060 <g_358>
    b70e:	48 98                	cltq   
    b710:	8b 55 fc             	mov    -0x4(%rbp),%edx
    b713:	48 8d 35 5e 11 00 00 	lea    0x115e(%rip),%rsi        # c878 <g_909+0x800>
    b71a:	48 89 c7             	mov    %rax,%rdi
    b71d:	e8 d1 9f ff ff       	callq  56f3 <transparent_crc>
    b722:	b8 ff ff ff ff       	mov    $0xffffffff,%eax
    b727:	48 0f bf c0          	movswq %ax,%rax
    b72b:	8b 55 fc             	mov    -0x4(%rbp),%edx
    b72e:	48 8d 35 4c 11 00 00 	lea    0x114c(%rip),%rsi        # c881 <g_909+0x809>
    b735:	48 89 c7             	mov    %rax,%rdi
    b738:	e8 b6 9f ff ff       	callq  56f3 <transparent_crc>
    b73d:	b8 90 ff ff ff       	mov    $0xffffff90,%eax
    b742:	0f b6 c0             	movzbl %al,%eax
    b745:	8b 55 fc             	mov    -0x4(%rbp),%edx
    b748:	48 8d 35 3b 11 00 00 	lea    0x113b(%rip),%rsi        # c88a <g_909+0x812>
    b74f:	48 89 c7             	mov    %rax,%rdi
    b752:	e8 9c 9f ff ff       	callq  56f3 <transparent_crc>
    b757:	0f b6 05 c9 4d 00 00 	movzbl 0x4dc9(%rip),%eax        # 10527 <g_410>
    b75e:	48 0f be c0          	movsbq %al,%rax
    b762:	8b 55 fc             	mov    -0x4(%rbp),%edx
    b765:	48 8d 35 27 11 00 00 	lea    0x1127(%rip),%rsi        # c893 <g_909+0x81b>
    b76c:	48 89 c7             	mov    %rax,%rdi
    b76f:	e8 7f 9f ff ff       	callq  56f3 <transparent_crc>
    b774:	8b 05 ae 4d 00 00    	mov    0x4dae(%rip),%eax        # 10528 <g_439>
    b77a:	48 98                	cltq   
    b77c:	8b 55 fc             	mov    -0x4(%rbp),%edx
    b77f:	48 8d 35 13 11 00 00 	lea    0x1113(%rip),%rsi        # c899 <g_909+0x821>
    b786:	48 89 c7             	mov    %rax,%rdi
    b789:	e8 65 9f ff ff       	callq  56f3 <transparent_crc>
    b78e:	c7 45 f0 00 00 00 00 	movl   $0x0,-0x10(%rbp)
    b795:	eb 4d                	jmp    b7e4 <main+0x5fc>
    b797:	8b 45 f0             	mov    -0x10(%rbp),%eax
    b79a:	48 98                	cltq   
    b79c:	48 8d 14 c5 00 00 00 	lea    0x0(,%rax,8),%rdx
    b7a3:	00 
    b7a4:	48 8d 05 95 4d 00 00 	lea    0x4d95(%rip),%rax        # 10540 <g_477>
    b7ab:	0f b6 04 02          	movzbl (%rdx,%rax,1),%eax
    b7af:	0f b6 c0             	movzbl %al,%eax
    b7b2:	8b 55 fc             	mov    -0x4(%rbp),%edx
    b7b5:	48 8d 35 e3 10 00 00 	lea    0x10e3(%rip),%rsi        # c89f <g_909+0x827>
    b7bc:	48 89 c7             	mov    %rax,%rdi
    b7bf:	e8 2f 9f ff ff       	callq  56f3 <transparent_crc>
    b7c4:	83 7d fc 00          	cmpl   $0x0,-0x4(%rbp)
    b7c8:	74 16                	je     b7e0 <main+0x5f8>
    b7ca:	8b 45 f0             	mov    -0x10(%rbp),%eax
    b7cd:	89 c6                	mov    %eax,%esi
    b7cf:	48 8d 3d c3 0f 00 00 	lea    0xfc3(%rip),%rdi        # c799 <g_909+0x721>
    b7d6:	b8 00 00 00 00       	mov    $0x0,%eax
    b7db:	e8 a0 88 ff ff       	callq  4080 <printf@plt>
    b7e0:	83 45 f0 01          	addl   $0x1,-0x10(%rbp)
    b7e4:	83 7d f0 03          	cmpl   $0x3,-0x10(%rbp)
    b7e8:	7e ad                	jle    b797 <main+0x5af>
    b7ea:	8b 05 70 4d 00 00    	mov    0x4d70(%rip),%eax        # 10560 <g_483>
    b7f0:	48 98                	cltq   
    b7f2:	8b 55 fc             	mov    -0x4(%rbp),%edx
    b7f5:	48 8d 35 af 10 00 00 	lea    0x10af(%rip),%rsi        # c8ab <g_909+0x833>
    b7fc:	48 89 c7             	mov    %rax,%rdi
    b7ff:	e8 ef 9e ff ff       	callq  56f3 <transparent_crc>
    b804:	0f b7 05 59 4d 00 00 	movzwl 0x4d59(%rip),%eax        # 10564 <g_483+0x4>
    b80b:	48 0f bf c0          	movswq %ax,%rax
    b80f:	8b 55 fc             	mov    -0x4(%rbp),%edx
    b812:	48 8d 35 9b 10 00 00 	lea    0x109b(%rip),%rsi        # c8b4 <g_909+0x83c>
    b819:	48 89 c7             	mov    %rax,%rdi
    b81c:	e8 d2 9e ff ff       	callq  56f3 <transparent_crc>
    b821:	0f b6 05 3e 4d 00 00 	movzbl 0x4d3e(%rip),%eax        # 10566 <g_483+0x6>
    b828:	0f b6 c0             	movzbl %al,%eax
    b82b:	8b 55 fc             	mov    -0x4(%rbp),%edx
    b82e:	48 8d 35 88 10 00 00 	lea    0x1088(%rip),%rsi        # c8bd <g_909+0x845>
    b835:	48 89 c7             	mov    %rax,%rdi
    b838:	e8 b6 9e ff ff       	callq  56f3 <transparent_crc>
    b83d:	8b 05 25 4d 00 00    	mov    0x4d25(%rip),%eax        # 10568 <g_550>
    b843:	89 c1                	mov    %eax,%ecx
    b845:	8b 45 fc             	mov    -0x4(%rbp),%eax
    b848:	89 c2                	mov    %eax,%edx
    b84a:	48 8d 35 75 10 00 00 	lea    0x1075(%rip),%rsi        # c8c6 <g_909+0x84e>
    b851:	48 89 cf             	mov    %rcx,%rdi
    b854:	e8 9a 9e ff ff       	callq  56f3 <transparent_crc>
    b859:	8b 05 08 08 00 00    	mov    0x808(%rip),%eax        # c067 <g_575>
    b85f:	48 98                	cltq   
    b861:	8b 55 fc             	mov    -0x4(%rbp),%edx
    b864:	48 8d 35 61 10 00 00 	lea    0x1061(%rip),%rsi        # c8cc <g_909+0x854>
    b86b:	48 89 c7             	mov    %rax,%rdi
    b86e:	e8 80 9e ff ff       	callq  56f3 <transparent_crc>
    b873:	b8 78 3a 00 00       	mov    $0x3a78,%eax
    b878:	48 0f bf c0          	movswq %ax,%rax
    b87c:	8b 55 fc             	mov    -0x4(%rbp),%edx
    b87f:	48 8d 35 4f 10 00 00 	lea    0x104f(%rip),%rsi        # c8d5 <g_909+0x85d>
    b886:	48 89 c7             	mov    %rax,%rdi
    b889:	e8 65 9e ff ff       	callq  56f3 <transparent_crc>
    b88e:	b8 8e ff ff ff       	mov    $0xffffff8e,%eax
    b893:	0f b6 c0             	movzbl %al,%eax
    b896:	8b 55 fc             	mov    -0x4(%rbp),%edx
    b899:	48 8d 35 3e 10 00 00 	lea    0x103e(%rip),%rsi        # c8de <g_909+0x866>
    b8a0:	48 89 c7             	mov    %rax,%rdi
    b8a3:	e8 4b 9e ff ff       	callq  56f3 <transparent_crc>
    b8a8:	8b 05 be 4c 00 00    	mov    0x4cbe(%rip),%eax        # 1056c <g_622>
    b8ae:	48 98                	cltq   
    b8b0:	8b 55 fc             	mov    -0x4(%rbp),%edx
    b8b3:	48 8d 35 2d 10 00 00 	lea    0x102d(%rip),%rsi        # c8e7 <g_909+0x86f>
    b8ba:	48 89 c7             	mov    %rax,%rdi
    b8bd:	e8 31 9e ff ff       	callq  56f3 <transparent_crc>
    b8c2:	0f b7 05 a7 4c 00 00 	movzwl 0x4ca7(%rip),%eax        # 10570 <g_622+0x4>
    b8c9:	48 0f bf c0          	movswq %ax,%rax
    b8cd:	8b 55 fc             	mov    -0x4(%rbp),%edx
    b8d0:	48 8d 35 19 10 00 00 	lea    0x1019(%rip),%rsi        # c8f0 <g_909+0x878>
    b8d7:	48 89 c7             	mov    %rax,%rdi
    b8da:	e8 14 9e ff ff       	callq  56f3 <transparent_crc>
    b8df:	0f b6 05 8c 4c 00 00 	movzbl 0x4c8c(%rip),%eax        # 10572 <g_622+0x6>
    b8e6:	0f b6 c0             	movzbl %al,%eax
    b8e9:	8b 55 fc             	mov    -0x4(%rbp),%edx
    b8ec:	48 8d 35 06 10 00 00 	lea    0x1006(%rip),%rsi        # c8f9 <g_909+0x881>
    b8f3:	48 89 c7             	mov    %rax,%rdi
    b8f6:	e8 f8 9d ff ff       	callq  56f3 <transparent_crc>
    b8fb:	8b 05 72 4c 00 00    	mov    0x4c72(%rip),%eax        # 10573 <g_624>
    b901:	48 98                	cltq   
    b903:	8b 55 fc             	mov    -0x4(%rbp),%edx
    b906:	48 8d 35 f5 0f 00 00 	lea    0xff5(%rip),%rsi        # c902 <g_909+0x88a>
    b90d:	48 89 c7             	mov    %rax,%rdi
    b910:	e8 de 9d ff ff       	callq  56f3 <transparent_crc>
    b915:	0f b7 05 5b 4c 00 00 	movzwl 0x4c5b(%rip),%eax        # 10577 <g_624+0x4>
    b91c:	48 0f bf c0          	movswq %ax,%rax
    b920:	8b 55 fc             	mov    -0x4(%rbp),%edx
    b923:	48 8d 35 e1 0f 00 00 	lea    0xfe1(%rip),%rsi        # c90b <g_909+0x893>
    b92a:	48 89 c7             	mov    %rax,%rdi
    b92d:	e8 c1 9d ff ff       	callq  56f3 <transparent_crc>
    b932:	0f b6 05 40 4c 00 00 	movzbl 0x4c40(%rip),%eax        # 10579 <g_624+0x6>
    b939:	0f b6 c0             	movzbl %al,%eax
    b93c:	8b 55 fc             	mov    -0x4(%rbp),%edx
    b93f:	48 8d 35 ce 0f 00 00 	lea    0xfce(%rip),%rsi        # c914 <g_909+0x89c>
    b946:	48 89 c7             	mov    %rax,%rdi
    b949:	e8 a5 9d ff ff       	callq  56f3 <transparent_crc>
    b94e:	0f b6 05 2b 4c 00 00 	movzbl 0x4c2b(%rip),%eax        # 10580 <g_697>
    b955:	0f b6 c0             	movzbl %al,%eax
    b958:	8b 55 fc             	mov    -0x4(%rbp),%edx
    b95b:	48 8d 35 bb 0f 00 00 	lea    0xfbb(%rip),%rsi        # c91d <g_909+0x8a5>
    b962:	48 89 c7             	mov    %rax,%rdi
    b965:	e8 89 9d ff ff       	callq  56f3 <transparent_crc>
    b96a:	8b 05 18 4c 00 00    	mov    0x4c18(%rip),%eax        # 10588 <g_715>
    b970:	89 c1                	mov    %eax,%ecx
    b972:	8b 45 fc             	mov    -0x4(%rbp),%eax
    b975:	89 c2                	mov    %eax,%edx
    b977:	48 8d 35 a8 0f 00 00 	lea    0xfa8(%rip),%rsi        # c926 <g_909+0x8ae>
    b97e:	48 89 cf             	mov    %rcx,%rdi
    b981:	e8 6d 9d ff ff       	callq  56f3 <transparent_crc>
    b986:	c7 45 f0 00 00 00 00 	movl   $0x0,-0x10(%rbp)
    b98d:	eb 49                	jmp    b9d8 <main+0x7f0>
    b98f:	8b 45 f0             	mov    -0x10(%rbp),%eax
    b992:	48 98                	cltq   
    b994:	48 8d 14 00          	lea    (%rax,%rax,1),%rdx
    b998:	48 8d 05 21 5c 00 00 	lea    0x5c21(%rip),%rax        # 115c0 <g_722>
    b99f:	0f b7 04 02          	movzwl (%rdx,%rax,1),%eax
    b9a3:	0f b7 c0             	movzwl %ax,%eax
    b9a6:	8b 55 fc             	mov    -0x4(%rbp),%edx
    b9a9:	48 8d 35 7c 0f 00 00 	lea    0xf7c(%rip),%rsi        # c92c <g_909+0x8b4>
    b9b0:	48 89 c7             	mov    %rax,%rdi
    b9b3:	e8 3b 9d ff ff       	callq  56f3 <transparent_crc>
    b9b8:	83 7d fc 00          	cmpl   $0x0,-0x4(%rbp)
    b9bc:	74 16                	je     b9d4 <main+0x7ec>
    b9be:	8b 45 f0             	mov    -0x10(%rbp),%eax
    b9c1:	89 c6                	mov    %eax,%esi
    b9c3:	48 8d 3d cf 0d 00 00 	lea    0xdcf(%rip),%rdi        # c799 <g_909+0x721>
    b9ca:	b8 00 00 00 00       	mov    $0x0,%eax
    b9cf:	e8 ac 86 ff ff       	callq  4080 <printf@plt>
    b9d4:	83 45 f0 01          	addl   $0x1,-0x10(%rbp)
    b9d8:	83 7d f0 07          	cmpl   $0x7,-0x10(%rbp)
    b9dc:	7e b1                	jle    b98f <main+0x7a7>
    b9de:	0f b6 05 ab 4b 00 00 	movzbl 0x4bab(%rip),%eax        # 10590 <g_727>
    b9e5:	0f b6 c0             	movzbl %al,%eax
    b9e8:	8b 55 fc             	mov    -0x4(%rbp),%edx
    b9eb:	48 8d 35 43 0f 00 00 	lea    0xf43(%rip),%rsi        # c935 <g_909+0x8bd>
    b9f2:	48 89 c7             	mov    %rax,%rdi
    b9f5:	e8 f9 9c ff ff       	callq  56f3 <transparent_crc>
    b9fa:	0f b7 05 97 4b 00 00 	movzwl 0x4b97(%rip),%eax        # 10598 <g_732>
    ba01:	48 0f bf c0          	movswq %ax,%rax
    ba05:	8b 55 fc             	mov    -0x4(%rbp),%edx
    ba08:	48 8d 35 2f 0f 00 00 	lea    0xf2f(%rip),%rsi        # c93e <g_909+0x8c6>
    ba0f:	48 89 c7             	mov    %rax,%rdi
    ba12:	e8 dc 9c ff ff       	callq  56f3 <transparent_crc>
    ba17:	0f b7 05 b2 5b 00 00 	movzwl 0x5bb2(%rip),%eax        # 115d0 <g_760>
    ba1e:	48 0f bf c0          	movswq %ax,%rax
    ba22:	8b 55 fc             	mov    -0x4(%rbp),%edx
    ba25:	48 8d 35 18 0f 00 00 	lea    0xf18(%rip),%rsi        # c944 <g_909+0x8cc>
    ba2c:	48 89 c7             	mov    %rax,%rdi
    ba2f:	e8 bf 9c ff ff       	callq  56f3 <transparent_crc>
    ba34:	8b 05 62 4b 00 00    	mov    0x4b62(%rip),%eax        # 1059c <g_774>
    ba3a:	89 c1                	mov    %eax,%ecx
    ba3c:	8b 45 fc             	mov    -0x4(%rbp),%eax
    ba3f:	89 c2                	mov    %eax,%edx
    ba41:	48 8d 35 02 0f 00 00 	lea    0xf02(%rip),%rsi        # c94a <g_909+0x8d2>
    ba48:	48 89 cf             	mov    %rcx,%rdi
    ba4b:	e8 a3 9c ff ff       	callq  56f3 <transparent_crc>
    ba50:	8b 05 4a 4b 00 00    	mov    0x4b4a(%rip),%eax        # 105a0 <g_873>
    ba56:	48 98                	cltq   
    ba58:	8b 55 fc             	mov    -0x4(%rbp),%edx
    ba5b:	48 8d 35 ee 0e 00 00 	lea    0xeee(%rip),%rsi        # c950 <g_909+0x8d8>
    ba62:	48 89 c7             	mov    %rax,%rdi
    ba65:	e8 89 9c ff ff       	callq  56f3 <transparent_crc>
    ba6a:	b8 d8 ff ff ff       	mov    $0xffffffd8,%eax
    ba6f:	0f b6 c0             	movzbl %al,%eax
    ba72:	8b 55 fc             	mov    -0x4(%rbp),%edx
    ba75:	48 8d 35 da 0e 00 00 	lea    0xeda(%rip),%rsi        # c956 <g_909+0x8de>
    ba7c:	48 89 c7             	mov    %rax,%rdi
    ba7f:	e8 6f 9c ff ff       	callq  56f3 <transparent_crc>
    ba84:	8b 05 96 45 00 00    	mov    0x4596(%rip),%eax        # 10020 <crc32_context>
    ba8a:	f7 d0                	not    %eax
    ba8c:	89 c2                	mov    %eax,%edx
    ba8e:	8b 45 fc             	mov    -0x4(%rbp),%eax
    ba91:	89 c6                	mov    %eax,%esi
    ba93:	89 d7                	mov    %edx,%edi
    ba95:	e8 fa 86 ff ff       	callq  4194 <platform_main_end>
    ba9a:	b8 00 00 00 00       	mov    $0x0,%eax
    ba9f:	c9                   	leaveq 
    baa0:	c3                   	retq   
    baa1:	66 2e 0f 1f 84 00 00 	nopw   %cs:0x0(%rax,%rax,1)
    baa8:	00 00 00 
    baab:	0f 1f 44 00 00       	nopl   0x0(%rax,%rax,1)

000000000000bab0 <__libc_csu_init>:
    bab0:	f3 0f 1e fa          	endbr64 
    bab4:	41 57                	push   %r15
    bab6:	4c 8d 3d 33 3b 00 00 	lea    0x3b33(%rip),%r15        # f5f0 <__frame_dummy_init_array_entry>
    babd:	41 56                	push   %r14
    babf:	49 89 d6             	mov    %rdx,%r14
    bac2:	41 55                	push   %r13
    bac4:	49 89 f5             	mov    %rsi,%r13
    bac7:	41 54                	push   %r12
    bac9:	41 89 fc             	mov    %edi,%r12d
    bacc:	55                   	push   %rbp
    bacd:	48 8d 2d 24 3b 00 00 	lea    0x3b24(%rip),%rbp        # f5f8 <__do_global_dtors_aux_fini_array_entry>
    bad4:	53                   	push   %rbx
    bad5:	4c 29 fd             	sub    %r15,%rbp
    bad8:	48 83 ec 08          	sub    $0x8,%rsp
    badc:	e8 1f 85 ff ff       	callq  4000 <_init>
    bae1:	48 c1 fd 03          	sar    $0x3,%rbp
    bae5:	74 1f                	je     bb06 <__libc_csu_init+0x56>
    bae7:	31 db                	xor    %ebx,%ebx
    bae9:	0f 1f 80 00 00 00 00 	nopl   0x0(%rax)
    baf0:	4c 89 f2             	mov    %r14,%rdx
    baf3:	4c 89 ee             	mov    %r13,%rsi
    baf6:	44 89 e7             	mov    %r12d,%edi
    baf9:	41 ff 14 df          	callq  *(%r15,%rbx,8)
    bafd:	48 83 c3 01          	add    $0x1,%rbx
    bb01:	48 39 dd             	cmp    %rbx,%rbp
    bb04:	75 ea                	jne    baf0 <__libc_csu_init+0x40>
    bb06:	48 83 c4 08          	add    $0x8,%rsp
    bb0a:	5b                   	pop    %rbx
    bb0b:	5d                   	pop    %rbp
    bb0c:	41 5c                	pop    %r12
    bb0e:	41 5d                	pop    %r13
    bb10:	41 5e                	pop    %r14
    bb12:	41 5f                	pop    %r15
    bb14:	c3                   	retq   
    bb15:	66 66 2e 0f 1f 84 00 	data16 nopw %cs:0x0(%rax,%rax,1)
    bb1c:	00 00 00 00 

000000000000bb20 <__libc_csu_fini>:
    bb20:	f3 0f 1e fa          	endbr64 
    bb24:	c3                   	retq   
