


Disassembly of section .text:

00000000000080a0 <_start>:
    80a0:	f3 0f 1e fa          	endbr64 
    80a4:	31 ed                	xor    %ebp,%ebp
    80a6:	49 89 d1             	mov    %rdx,%r9
    80a9:	5e                   	pop    %rsi
    80aa:	48 89 e2             	mov    %rsp,%rdx
    80ad:	48 83 e4 f0          	and    $0xfffffffffffffff0,%rsp
    80b1:	50                   	push   %rax
    80b2:	54                   	push   %rsp
    80b3:	4c 8d 05 56 f3 00 00 	lea    0xf356(%rip),%r8        # 17410 <__libc_csu_fini>
    80ba:	48 8d 0d df f2 00 00 	lea    0xf2df(%rip),%rcx        # 173a0 <__libc_csu_init>
    80c1:	48 8d 3d c8 b0 00 00 	lea    0xb0c8(%rip),%rdi        # 13190 <main>
    80c8:	ff 15 0a 4f 01 00    	callq  *0x14f0a(%rip)        # 1cfd8 <__libc_start_main@GLIBC_2.2.5>
    80ce:	f4                   	hlt    
    80cf:	90                   	nop

00000000000080d0 <deregister_tm_clones>:
    80d0:	48 8d 3d b1 d0 01 00 	lea    0x1d0b1(%rip),%rdi        # 25188 <__TMC_END__>
    80d7:	48 8d 05 aa d0 01 00 	lea    0x1d0aa(%rip),%rax        # 25188 <__TMC_END__>
    80de:	48 39 f8             	cmp    %rdi,%rax
    80e1:	74 15                	je     80f8 <deregister_tm_clones+0x28>
    80e3:	48 8b 05 e6 4e 01 00 	mov    0x14ee6(%rip),%rax        # 1cfd0 <_ITM_deregisterTMCloneTable>
    80ea:	48 85 c0             	test   %rax,%rax
    80ed:	74 09                	je     80f8 <deregister_tm_clones+0x28>
    80ef:	ff e0                	jmpq   *%rax
    80f1:	0f 1f 80 00 00 00 00 	nopl   0x0(%rax)
    80f8:	c3                   	retq   
    80f9:	0f 1f 80 00 00 00 00 	nopl   0x0(%rax)

0000000000008100 <register_tm_clones>:
    8100:	48 8d 3d 81 d0 01 00 	lea    0x1d081(%rip),%rdi        # 25188 <__TMC_END__>
    8107:	48 8d 35 7a d0 01 00 	lea    0x1d07a(%rip),%rsi        # 25188 <__TMC_END__>
    810e:	48 29 fe             	sub    %rdi,%rsi
    8111:	48 89 f0             	mov    %rsi,%rax
    8114:	48 c1 ee 3f          	shr    $0x3f,%rsi
    8118:	48 c1 f8 03          	sar    $0x3,%rax
    811c:	48 01 c6             	add    %rax,%rsi
    811f:	48 d1 fe             	sar    %rsi
    8122:	74 14                	je     8138 <register_tm_clones+0x38>
    8124:	48 8b 05 bd 4e 01 00 	mov    0x14ebd(%rip),%rax        # 1cfe8 <_ITM_registerTMCloneTable>
    812b:	48 85 c0             	test   %rax,%rax
    812e:	74 08                	je     8138 <register_tm_clones+0x38>
    8130:	ff e0                	jmpq   *%rax
    8132:	66 0f 1f 44 00 00    	nopw   0x0(%rax,%rax,1)
    8138:	c3                   	retq   
    8139:	0f 1f 80 00 00 00 00 	nopl   0x0(%rax)

0000000000008140 <__do_global_dtors_aux>:
    8140:	f3 0f 1e fa          	endbr64 
    8144:	80 3d 55 d0 01 00 00 	cmpb   $0x0,0x1d055(%rip)        # 251a0 <completed.8061>
    814b:	75 2b                	jne    8178 <__do_global_dtors_aux+0x38>
    814d:	55                   	push   %rbp
    814e:	48 83 3d 9a 4e 01 00 	cmpq   $0x0,0x14e9a(%rip)        # 1cff0 <__cxa_finalize@GLIBC_2.2.5>
    8155:	00 
    8156:	48 89 e5             	mov    %rsp,%rbp
    8159:	74 0c                	je     8167 <__do_global_dtors_aux+0x27>
    815b:	48 8b 3d a6 4e 01 00 	mov    0x14ea6(%rip),%rdi        # 1d008 <__dso_handle>
    8162:	e8 f9 fe ff ff       	callq  8060 <__cxa_finalize@plt>
    8167:	e8 64 ff ff ff       	callq  80d0 <deregister_tm_clones>
    816c:	c6 05 2d d0 01 00 01 	movb   $0x1,0x1d02d(%rip)        # 251a0 <completed.8061>
    8173:	5d                   	pop    %rbp
    8174:	c3                   	retq   
    8175:	0f 1f 00             	nopl   (%rax)
    8178:	c3                   	retq   
    8179:	0f 1f 80 00 00 00 00 	nopl   0x0(%rax)

0000000000008180 <frame_dummy>:
    8180:	f3 0f 1e fa          	endbr64 
    8184:	e9 77 ff ff ff       	jmpq   8100 <register_tm_clones>

0000000000008189 <platform_main_begin>:
    8189:	f3 0f 1e fa          	endbr64 
    818d:	55                   	push   %rbp
    818e:	48 89 e5             	mov    %rsp,%rbp
    8191:	90                   	nop
    8192:	5d                   	pop    %rbp
    8193:	c3                   	retq   

0000000000008194 <platform_main_end>:
    8194:	f3 0f 1e fa          	endbr64 
    8198:	55                   	push   %rbp
    8199:	48 89 e5             	mov    %rsp,%rbp
    819c:	48 83 ec 10          	sub    $0x10,%rsp
    81a0:	89 7d fc             	mov    %edi,-0x4(%rbp)
    81a3:	89 75 f8             	mov    %esi,-0x8(%rbp)
    81a6:	8b 45 fc             	mov    -0x4(%rbp),%eax
    81a9:	89 c6                	mov    %eax,%esi
    81ab:	48 8d 3d 6e fe 00 00 	lea    0xfe6e(%rip),%rdi        # 18020 <_IO_stdin_used+0x20>
    81b2:	b8 00 00 00 00       	mov    $0x0,%eax
    81b7:	e8 c4 fe ff ff       	callq  8080 <printf@plt>
    81bc:	90                   	nop
    81bd:	c9                   	leaveq 
    81be:	c3                   	retq   

00000000000081bf <safe_unary_minus_func_int8_t_s>:
    81bf:	f3 0f 1e fa          	endbr64 
    81c3:	55                   	push   %rbp
    81c4:	48 89 e5             	mov    %rsp,%rbp
    81c7:	89 f8                	mov    %edi,%eax
    81c9:	88 45 fc             	mov    %al,-0x4(%rbp)
    81cc:	0f b6 45 fc          	movzbl -0x4(%rbp),%eax
    81d0:	f7 d8                	neg    %eax
    81d2:	5d                   	pop    %rbp
    81d3:	c3                   	retq   

00000000000081d4 <safe_add_func_int8_t_s_s>:
    81d4:	f3 0f 1e fa          	endbr64 
    81d8:	55                   	push   %rbp
    81d9:	48 89 e5             	mov    %rsp,%rbp
    81dc:	89 fa                	mov    %edi,%edx
    81de:	89 f0                	mov    %esi,%eax
    81e0:	88 55 fc             	mov    %dl,-0x4(%rbp)
    81e3:	88 45 f8             	mov    %al,-0x8(%rbp)
    81e6:	0f b6 55 fc          	movzbl -0x4(%rbp),%edx
    81ea:	0f b6 45 f8          	movzbl -0x8(%rbp),%eax
    81ee:	01 d0                	add    %edx,%eax
    81f0:	5d                   	pop    %rbp
    81f1:	c3                   	retq   

00000000000081f2 <safe_sub_func_int8_t_s_s>:
    81f2:	f3 0f 1e fa          	endbr64 
    81f6:	55                   	push   %rbp
    81f7:	48 89 e5             	mov    %rsp,%rbp
    81fa:	89 fa                	mov    %edi,%edx
    81fc:	89 f0                	mov    %esi,%eax
    81fe:	88 55 fc             	mov    %dl,-0x4(%rbp)
    8201:	88 45 f8             	mov    %al,-0x8(%rbp)
    8204:	0f b6 55 fc          	movzbl -0x4(%rbp),%edx
    8208:	0f b6 45 f8          	movzbl -0x8(%rbp),%eax
    820c:	29 c2                	sub    %eax,%edx
    820e:	89 d0                	mov    %edx,%eax
    8210:	5d                   	pop    %rbp
    8211:	c3                   	retq   

0000000000008212 <safe_mul_func_int8_t_s_s>:
    8212:	f3 0f 1e fa          	endbr64 
    8216:	55                   	push   %rbp
    8217:	48 89 e5             	mov    %rsp,%rbp
    821a:	89 fa                	mov    %edi,%edx
    821c:	89 f0                	mov    %esi,%eax
    821e:	88 55 fc             	mov    %dl,-0x4(%rbp)
    8221:	88 45 f8             	mov    %al,-0x8(%rbp)
    8224:	0f b6 45 fc          	movzbl -0x4(%rbp),%eax
    8228:	0f b6 55 f8          	movzbl -0x8(%rbp),%edx
    822c:	0f af c2             	imul   %edx,%eax
    822f:	5d                   	pop    %rbp
    8230:	c3                   	retq   

0000000000008231 <safe_mod_func_int8_t_s_s>:
    8231:	f3 0f 1e fa          	endbr64 
    8235:	55                   	push   %rbp
    8236:	48 89 e5             	mov    %rsp,%rbp
    8239:	89 fa                	mov    %edi,%edx
    823b:	89 f0                	mov    %esi,%eax
    823d:	88 55 fc             	mov    %dl,-0x4(%rbp)
    8240:	88 45 f8             	mov    %al,-0x8(%rbp)
    8243:	80 7d f8 00          	cmpb   $0x0,-0x8(%rbp)
    8247:	74 1b                	je     8264 <safe_mod_func_int8_t_s_s+0x33>
    8249:	80 7d fc 80          	cmpb   $0x80,-0x4(%rbp)
    824d:	75 06                	jne    8255 <safe_mod_func_int8_t_s_s+0x24>
    824f:	80 7d f8 ff          	cmpb   $0xff,-0x8(%rbp)
    8253:	74 0f                	je     8264 <safe_mod_func_int8_t_s_s+0x33>
    8255:	0f be 45 fc          	movsbl -0x4(%rbp),%eax
    8259:	0f be 4d f8          	movsbl -0x8(%rbp),%ecx
    825d:	99                   	cltd   
    825e:	f7 f9                	idiv   %ecx
    8260:	89 d0                	mov    %edx,%eax
    8262:	eb 04                	jmp    8268 <safe_mod_func_int8_t_s_s+0x37>
    8264:	0f b6 45 fc          	movzbl -0x4(%rbp),%eax
    8268:	5d                   	pop    %rbp
    8269:	c3                   	retq   

000000000000826a <safe_div_func_int8_t_s_s>:
    826a:	f3 0f 1e fa          	endbr64 
    826e:	55                   	push   %rbp
    826f:	48 89 e5             	mov    %rsp,%rbp
    8272:	89 fa                	mov    %edi,%edx
    8274:	89 f0                	mov    %esi,%eax
    8276:	88 55 fc             	mov    %dl,-0x4(%rbp)
    8279:	88 45 f8             	mov    %al,-0x8(%rbp)
    827c:	80 7d f8 00          	cmpb   $0x0,-0x8(%rbp)
    8280:	74 19                	je     829b <safe_div_func_int8_t_s_s+0x31>
    8282:	80 7d fc 80          	cmpb   $0x80,-0x4(%rbp)
    8286:	75 06                	jne    828e <safe_div_func_int8_t_s_s+0x24>
    8288:	80 7d f8 ff          	cmpb   $0xff,-0x8(%rbp)
    828c:	74 0d                	je     829b <safe_div_func_int8_t_s_s+0x31>
    828e:	0f be 45 fc          	movsbl -0x4(%rbp),%eax
    8292:	0f be 4d f8          	movsbl -0x8(%rbp),%ecx
    8296:	99                   	cltd   
    8297:	f7 f9                	idiv   %ecx
    8299:	eb 04                	jmp    829f <safe_div_func_int8_t_s_s+0x35>
    829b:	0f b6 45 fc          	movzbl -0x4(%rbp),%eax
    829f:	5d                   	pop    %rbp
    82a0:	c3                   	retq   

00000000000082a1 <safe_lshift_func_int8_t_s_s>:
    82a1:	f3 0f 1e fa          	endbr64 
    82a5:	55                   	push   %rbp
    82a6:	48 89 e5             	mov    %rsp,%rbp
    82a9:	89 f8                	mov    %edi,%eax
    82ab:	89 75 f8             	mov    %esi,-0x8(%rbp)
    82ae:	88 45 fc             	mov    %al,-0x4(%rbp)
    82b1:	80 7d fc 00          	cmpb   $0x0,-0x4(%rbp)
    82b5:	78 31                	js     82e8 <safe_lshift_func_int8_t_s_s+0x47>
    82b7:	83 7d f8 00          	cmpl   $0x0,-0x8(%rbp)
    82bb:	78 2b                	js     82e8 <safe_lshift_func_int8_t_s_s+0x47>
    82bd:	83 7d f8 1f          	cmpl   $0x1f,-0x8(%rbp)
    82c1:	7f 25                	jg     82e8 <safe_lshift_func_int8_t_s_s+0x47>
    82c3:	0f be 55 fc          	movsbl -0x4(%rbp),%edx
    82c7:	8b 45 f8             	mov    -0x8(%rbp),%eax
    82ca:	be 7f 00 00 00       	mov    $0x7f,%esi
    82cf:	89 c1                	mov    %eax,%ecx
    82d1:	d3 fe                	sar    %cl,%esi
    82d3:	89 f0                	mov    %esi,%eax
    82d5:	39 c2                	cmp    %eax,%edx
    82d7:	7f 0f                	jg     82e8 <safe_lshift_func_int8_t_s_s+0x47>
    82d9:	0f be 55 fc          	movsbl -0x4(%rbp),%edx
    82dd:	8b 45 f8             	mov    -0x8(%rbp),%eax
    82e0:	89 c1                	mov    %eax,%ecx
    82e2:	d3 e2                	shl    %cl,%edx
    82e4:	89 d0                	mov    %edx,%eax
    82e6:	eb 04                	jmp    82ec <safe_lshift_func_int8_t_s_s+0x4b>
    82e8:	0f b6 45 fc          	movzbl -0x4(%rbp),%eax
    82ec:	5d                   	pop    %rbp
    82ed:	c3                   	retq   

00000000000082ee <safe_lshift_func_int8_t_s_u>:
    82ee:	f3 0f 1e fa          	endbr64 
    82f2:	55                   	push   %rbp
    82f3:	48 89 e5             	mov    %rsp,%rbp
    82f6:	89 f8                	mov    %edi,%eax
    82f8:	89 75 f8             	mov    %esi,-0x8(%rbp)
    82fb:	88 45 fc             	mov    %al,-0x4(%rbp)
    82fe:	80 7d fc 00          	cmpb   $0x0,-0x4(%rbp)
    8302:	78 2b                	js     832f <safe_lshift_func_int8_t_s_u+0x41>
    8304:	83 7d f8 1f          	cmpl   $0x1f,-0x8(%rbp)
    8308:	77 25                	ja     832f <safe_lshift_func_int8_t_s_u+0x41>
    830a:	0f be 55 fc          	movsbl -0x4(%rbp),%edx
    830e:	8b 45 f8             	mov    -0x8(%rbp),%eax
    8311:	be 7f 00 00 00       	mov    $0x7f,%esi
    8316:	89 c1                	mov    %eax,%ecx
    8318:	d3 fe                	sar    %cl,%esi
    831a:	89 f0                	mov    %esi,%eax
    831c:	39 c2                	cmp    %eax,%edx
    831e:	7f 0f                	jg     832f <safe_lshift_func_int8_t_s_u+0x41>
    8320:	0f be 55 fc          	movsbl -0x4(%rbp),%edx
    8324:	8b 45 f8             	mov    -0x8(%rbp),%eax
    8327:	89 c1                	mov    %eax,%ecx
    8329:	d3 e2                	shl    %cl,%edx
    832b:	89 d0                	mov    %edx,%eax
    832d:	eb 04                	jmp    8333 <safe_lshift_func_int8_t_s_u+0x45>
    832f:	0f b6 45 fc          	movzbl -0x4(%rbp),%eax
    8333:	5d                   	pop    %rbp
    8334:	c3                   	retq   

0000000000008335 <safe_rshift_func_int8_t_s_s>:
    8335:	f3 0f 1e fa          	endbr64 
    8339:	55                   	push   %rbp
    833a:	48 89 e5             	mov    %rsp,%rbp
    833d:	89 f8                	mov    %edi,%eax
    833f:	89 75 f8             	mov    %esi,-0x8(%rbp)
    8342:	88 45 fc             	mov    %al,-0x4(%rbp)
    8345:	80 7d fc 00          	cmpb   $0x0,-0x4(%rbp)
    8349:	78 1b                	js     8366 <safe_rshift_func_int8_t_s_s+0x31>
    834b:	83 7d f8 00          	cmpl   $0x0,-0x8(%rbp)
    834f:	78 15                	js     8366 <safe_rshift_func_int8_t_s_s+0x31>
    8351:	83 7d f8 1f          	cmpl   $0x1f,-0x8(%rbp)
    8355:	7f 0f                	jg     8366 <safe_rshift_func_int8_t_s_s+0x31>
    8357:	0f be 55 fc          	movsbl -0x4(%rbp),%edx
    835b:	8b 45 f8             	mov    -0x8(%rbp),%eax
    835e:	89 c1                	mov    %eax,%ecx
    8360:	d3 fa                	sar    %cl,%edx
    8362:	89 d0                	mov    %edx,%eax
    8364:	eb 04                	jmp    836a <safe_rshift_func_int8_t_s_s+0x35>
    8366:	0f b6 45 fc          	movzbl -0x4(%rbp),%eax
    836a:	5d                   	pop    %rbp
    836b:	c3                   	retq   

000000000000836c <safe_rshift_func_int8_t_s_u>:
    836c:	f3 0f 1e fa          	endbr64 
    8370:	55                   	push   %rbp
    8371:	48 89 e5             	mov    %rsp,%rbp
    8374:	89 f8                	mov    %edi,%eax
    8376:	89 75 f8             	mov    %esi,-0x8(%rbp)
    8379:	88 45 fc             	mov    %al,-0x4(%rbp)
    837c:	80 7d fc 00          	cmpb   $0x0,-0x4(%rbp)
    8380:	78 15                	js     8397 <safe_rshift_func_int8_t_s_u+0x2b>
    8382:	83 7d f8 1f          	cmpl   $0x1f,-0x8(%rbp)
    8386:	77 0f                	ja     8397 <safe_rshift_func_int8_t_s_u+0x2b>
    8388:	0f be 55 fc          	movsbl -0x4(%rbp),%edx
    838c:	8b 45 f8             	mov    -0x8(%rbp),%eax
    838f:	89 c1                	mov    %eax,%ecx
    8391:	d3 fa                	sar    %cl,%edx
    8393:	89 d0                	mov    %edx,%eax
    8395:	eb 04                	jmp    839b <safe_rshift_func_int8_t_s_u+0x2f>
    8397:	0f b6 45 fc          	movzbl -0x4(%rbp),%eax
    839b:	5d                   	pop    %rbp
    839c:	c3                   	retq   

000000000000839d <safe_unary_minus_func_int16_t_s>:
    839d:	f3 0f 1e fa          	endbr64 
    83a1:	55                   	push   %rbp
    83a2:	48 89 e5             	mov    %rsp,%rbp
    83a5:	89 f8                	mov    %edi,%eax
    83a7:	66 89 45 fc          	mov    %ax,-0x4(%rbp)
    83ab:	0f b7 45 fc          	movzwl -0x4(%rbp),%eax
    83af:	f7 d8                	neg    %eax
    83b1:	5d                   	pop    %rbp
    83b2:	c3                   	retq   

00000000000083b3 <safe_add_func_int16_t_s_s>:
    83b3:	f3 0f 1e fa          	endbr64 
    83b7:	55                   	push   %rbp
    83b8:	48 89 e5             	mov    %rsp,%rbp
    83bb:	89 fa                	mov    %edi,%edx
    83bd:	89 f0                	mov    %esi,%eax
    83bf:	66 89 55 fc          	mov    %dx,-0x4(%rbp)
    83c3:	66 89 45 f8          	mov    %ax,-0x8(%rbp)
    83c7:	0f b7 55 fc          	movzwl -0x4(%rbp),%edx
    83cb:	0f b7 45 f8          	movzwl -0x8(%rbp),%eax
    83cf:	01 d0                	add    %edx,%eax
    83d1:	5d                   	pop    %rbp
    83d2:	c3                   	retq   

00000000000083d3 <safe_sub_func_int16_t_s_s>:
    83d3:	f3 0f 1e fa          	endbr64 
    83d7:	55                   	push   %rbp
    83d8:	48 89 e5             	mov    %rsp,%rbp
    83db:	89 fa                	mov    %edi,%edx
    83dd:	89 f0                	mov    %esi,%eax
    83df:	66 89 55 fc          	mov    %dx,-0x4(%rbp)
    83e3:	66 89 45 f8          	mov    %ax,-0x8(%rbp)
    83e7:	0f b7 55 fc          	movzwl -0x4(%rbp),%edx
    83eb:	0f b7 45 f8          	movzwl -0x8(%rbp),%eax
    83ef:	29 c2                	sub    %eax,%edx
    83f1:	89 d0                	mov    %edx,%eax
    83f3:	5d                   	pop    %rbp
    83f4:	c3                   	retq   

00000000000083f5 <safe_mul_func_int16_t_s_s>:
    83f5:	f3 0f 1e fa          	endbr64 
    83f9:	55                   	push   %rbp
    83fa:	48 89 e5             	mov    %rsp,%rbp
    83fd:	89 fa                	mov    %edi,%edx
    83ff:	89 f0                	mov    %esi,%eax
    8401:	66 89 55 fc          	mov    %dx,-0x4(%rbp)
    8405:	66 89 45 f8          	mov    %ax,-0x8(%rbp)
    8409:	0f b7 55 fc          	movzwl -0x4(%rbp),%edx
    840d:	0f b7 45 f8          	movzwl -0x8(%rbp),%eax
    8411:	0f af c2             	imul   %edx,%eax
    8414:	5d                   	pop    %rbp
    8415:	c3                   	retq   

0000000000008416 <safe_mod_func_int16_t_s_s>:
    8416:	f3 0f 1e fa          	endbr64 
    841a:	55                   	push   %rbp
    841b:	48 89 e5             	mov    %rsp,%rbp
    841e:	89 fa                	mov    %edi,%edx
    8420:	89 f0                	mov    %esi,%eax
    8422:	66 89 55 fc          	mov    %dx,-0x4(%rbp)
    8426:	66 89 45 f8          	mov    %ax,-0x8(%rbp)
    842a:	66 83 7d f8 00       	cmpw   $0x0,-0x8(%rbp)
    842f:	74 1e                	je     844f <safe_mod_func_int16_t_s_s+0x39>
    8431:	66 81 7d fc 00 80    	cmpw   $0x8000,-0x4(%rbp)
    8437:	75 07                	jne    8440 <safe_mod_func_int16_t_s_s+0x2a>
    8439:	66 83 7d f8 ff       	cmpw   $0xffff,-0x8(%rbp)
    843e:	74 0f                	je     844f <safe_mod_func_int16_t_s_s+0x39>
    8440:	0f bf 45 fc          	movswl -0x4(%rbp),%eax
    8444:	0f bf 4d f8          	movswl -0x8(%rbp),%ecx
    8448:	99                   	cltd   
    8449:	f7 f9                	idiv   %ecx
    844b:	89 d0                	mov    %edx,%eax
    844d:	eb 04                	jmp    8453 <safe_mod_func_int16_t_s_s+0x3d>
    844f:	0f b7 45 fc          	movzwl -0x4(%rbp),%eax
    8453:	5d                   	pop    %rbp
    8454:	c3                   	retq   

0000000000008455 <safe_div_func_int16_t_s_s>:
    8455:	f3 0f 1e fa          	endbr64 
    8459:	55                   	push   %rbp
    845a:	48 89 e5             	mov    %rsp,%rbp
    845d:	89 fa                	mov    %edi,%edx
    845f:	89 f0                	mov    %esi,%eax
    8461:	66 89 55 fc          	mov    %dx,-0x4(%rbp)
    8465:	66 89 45 f8          	mov    %ax,-0x8(%rbp)
    8469:	66 83 7d f8 00       	cmpw   $0x0,-0x8(%rbp)
    846e:	74 1c                	je     848c <safe_div_func_int16_t_s_s+0x37>
    8470:	66 81 7d fc 00 80    	cmpw   $0x8000,-0x4(%rbp)
    8476:	75 07                	jne    847f <safe_div_func_int16_t_s_s+0x2a>
    8478:	66 83 7d f8 ff       	cmpw   $0xffff,-0x8(%rbp)
    847d:	74 0d                	je     848c <safe_div_func_int16_t_s_s+0x37>
    847f:	0f bf 45 fc          	movswl -0x4(%rbp),%eax
    8483:	0f bf 4d f8          	movswl -0x8(%rbp),%ecx
    8487:	99                   	cltd   
    8488:	f7 f9                	idiv   %ecx
    848a:	eb 04                	jmp    8490 <safe_div_func_int16_t_s_s+0x3b>
    848c:	0f b7 45 fc          	movzwl -0x4(%rbp),%eax
    8490:	5d                   	pop    %rbp
    8491:	c3                   	retq   

0000000000008492 <safe_lshift_func_int16_t_s_s>:
    8492:	f3 0f 1e fa          	endbr64 
    8496:	55                   	push   %rbp
    8497:	48 89 e5             	mov    %rsp,%rbp
    849a:	89 f8                	mov    %edi,%eax
    849c:	89 75 f8             	mov    %esi,-0x8(%rbp)
    849f:	66 89 45 fc          	mov    %ax,-0x4(%rbp)
    84a3:	66 83 7d fc 00       	cmpw   $0x0,-0x4(%rbp)
    84a8:	78 31                	js     84db <safe_lshift_func_int16_t_s_s+0x49>
    84aa:	83 7d f8 00          	cmpl   $0x0,-0x8(%rbp)
    84ae:	78 2b                	js     84db <safe_lshift_func_int16_t_s_s+0x49>
    84b0:	83 7d f8 1f          	cmpl   $0x1f,-0x8(%rbp)
    84b4:	7f 25                	jg     84db <safe_lshift_func_int16_t_s_s+0x49>
    84b6:	0f bf 55 fc          	movswl -0x4(%rbp),%edx
    84ba:	8b 45 f8             	mov    -0x8(%rbp),%eax
    84bd:	be ff 7f 00 00       	mov    $0x7fff,%esi
    84c2:	89 c1                	mov    %eax,%ecx
    84c4:	d3 fe                	sar    %cl,%esi
    84c6:	89 f0                	mov    %esi,%eax
    84c8:	39 c2                	cmp    %eax,%edx
    84ca:	7f 0f                	jg     84db <safe_lshift_func_int16_t_s_s+0x49>
    84cc:	0f bf 55 fc          	movswl -0x4(%rbp),%edx
    84d0:	8b 45 f8             	mov    -0x8(%rbp),%eax
    84d3:	89 c1                	mov    %eax,%ecx
    84d5:	d3 e2                	shl    %cl,%edx
    84d7:	89 d0                	mov    %edx,%eax
    84d9:	eb 04                	jmp    84df <safe_lshift_func_int16_t_s_s+0x4d>
    84db:	0f b7 45 fc          	movzwl -0x4(%rbp),%eax
    84df:	5d                   	pop    %rbp
    84e0:	c3                   	retq   

00000000000084e1 <safe_lshift_func_int16_t_s_u>:
    84e1:	f3 0f 1e fa          	endbr64 
    84e5:	55                   	push   %rbp
    84e6:	48 89 e5             	mov    %rsp,%rbp
    84e9:	89 f8                	mov    %edi,%eax
    84eb:	89 75 f8             	mov    %esi,-0x8(%rbp)
    84ee:	66 89 45 fc          	mov    %ax,-0x4(%rbp)
    84f2:	66 83 7d fc 00       	cmpw   $0x0,-0x4(%rbp)
    84f7:	78 2b                	js     8524 <safe_lshift_func_int16_t_s_u+0x43>
    84f9:	83 7d f8 1f          	cmpl   $0x1f,-0x8(%rbp)
    84fd:	77 25                	ja     8524 <safe_lshift_func_int16_t_s_u+0x43>
    84ff:	0f bf 55 fc          	movswl -0x4(%rbp),%edx
    8503:	8b 45 f8             	mov    -0x8(%rbp),%eax
    8506:	be ff 7f 00 00       	mov    $0x7fff,%esi
    850b:	89 c1                	mov    %eax,%ecx
    850d:	d3 fe                	sar    %cl,%esi
    850f:	89 f0                	mov    %esi,%eax
    8511:	39 c2                	cmp    %eax,%edx
    8513:	7f 0f                	jg     8524 <safe_lshift_func_int16_t_s_u+0x43>
    8515:	0f bf 55 fc          	movswl -0x4(%rbp),%edx
    8519:	8b 45 f8             	mov    -0x8(%rbp),%eax
    851c:	89 c1                	mov    %eax,%ecx
    851e:	d3 e2                	shl    %cl,%edx
    8520:	89 d0                	mov    %edx,%eax
    8522:	eb 04                	jmp    8528 <safe_lshift_func_int16_t_s_u+0x47>
    8524:	0f b7 45 fc          	movzwl -0x4(%rbp),%eax
    8528:	5d                   	pop    %rbp
    8529:	c3                   	retq   

000000000000852a <safe_rshift_func_int16_t_s_s>:
    852a:	f3 0f 1e fa          	endbr64 
    852e:	55                   	push   %rbp
    852f:	48 89 e5             	mov    %rsp,%rbp
    8532:	89 f8                	mov    %edi,%eax
    8534:	89 75 f8             	mov    %esi,-0x8(%rbp)
    8537:	66 89 45 fc          	mov    %ax,-0x4(%rbp)
    853b:	66 83 7d fc 00       	cmpw   $0x0,-0x4(%rbp)
    8540:	78 1b                	js     855d <safe_rshift_func_int16_t_s_s+0x33>
    8542:	83 7d f8 00          	cmpl   $0x0,-0x8(%rbp)
    8546:	78 15                	js     855d <safe_rshift_func_int16_t_s_s+0x33>
    8548:	83 7d f8 1f          	cmpl   $0x1f,-0x8(%rbp)
    854c:	7f 0f                	jg     855d <safe_rshift_func_int16_t_s_s+0x33>
    854e:	0f bf 55 fc          	movswl -0x4(%rbp),%edx
    8552:	8b 45 f8             	mov    -0x8(%rbp),%eax
    8555:	89 c1                	mov    %eax,%ecx
    8557:	d3 fa                	sar    %cl,%edx
    8559:	89 d0                	mov    %edx,%eax
    855b:	eb 04                	jmp    8561 <safe_rshift_func_int16_t_s_s+0x37>
    855d:	0f b7 45 fc          	movzwl -0x4(%rbp),%eax
    8561:	5d                   	pop    %rbp
    8562:	c3                   	retq   

0000000000008563 <safe_rshift_func_int16_t_s_u>:
    8563:	f3 0f 1e fa          	endbr64 
    8567:	55                   	push   %rbp
    8568:	48 89 e5             	mov    %rsp,%rbp
    856b:	89 f8                	mov    %edi,%eax
    856d:	89 75 f8             	mov    %esi,-0x8(%rbp)
    8570:	66 89 45 fc          	mov    %ax,-0x4(%rbp)
    8574:	66 83 7d fc 00       	cmpw   $0x0,-0x4(%rbp)
    8579:	78 15                	js     8590 <safe_rshift_func_int16_t_s_u+0x2d>
    857b:	83 7d f8 1f          	cmpl   $0x1f,-0x8(%rbp)
    857f:	77 0f                	ja     8590 <safe_rshift_func_int16_t_s_u+0x2d>
    8581:	0f bf 55 fc          	movswl -0x4(%rbp),%edx
    8585:	8b 45 f8             	mov    -0x8(%rbp),%eax
    8588:	89 c1                	mov    %eax,%ecx
    858a:	d3 fa                	sar    %cl,%edx
    858c:	89 d0                	mov    %edx,%eax
    858e:	eb 04                	jmp    8594 <safe_rshift_func_int16_t_s_u+0x31>
    8590:	0f b7 45 fc          	movzwl -0x4(%rbp),%eax
    8594:	5d                   	pop    %rbp
    8595:	c3                   	retq   

0000000000008596 <safe_unary_minus_func_int32_t_s>:
    8596:	f3 0f 1e fa          	endbr64 
    859a:	55                   	push   %rbp
    859b:	48 89 e5             	mov    %rsp,%rbp
    859e:	89 7d fc             	mov    %edi,-0x4(%rbp)
    85a1:	81 7d fc 00 00 00 80 	cmpl   $0x80000000,-0x4(%rbp)
    85a8:	74 07                	je     85b1 <safe_unary_minus_func_int32_t_s+0x1b>
    85aa:	8b 45 fc             	mov    -0x4(%rbp),%eax
    85ad:	f7 d8                	neg    %eax
    85af:	eb 03                	jmp    85b4 <safe_unary_minus_func_int32_t_s+0x1e>
    85b1:	8b 45 fc             	mov    -0x4(%rbp),%eax
    85b4:	5d                   	pop    %rbp
    85b5:	c3                   	retq   

00000000000085b6 <safe_add_func_int32_t_s_s>:
    85b6:	f3 0f 1e fa          	endbr64 
    85ba:	55                   	push   %rbp
    85bb:	48 89 e5             	mov    %rsp,%rbp
    85be:	89 7d fc             	mov    %edi,-0x4(%rbp)
    85c1:	89 75 f8             	mov    %esi,-0x8(%rbp)
    85c4:	83 7d fc 00          	cmpl   $0x0,-0x4(%rbp)
    85c8:	7e 13                	jle    85dd <safe_add_func_int32_t_s_s+0x27>
    85ca:	83 7d f8 00          	cmpl   $0x0,-0x8(%rbp)
    85ce:	7e 0d                	jle    85dd <safe_add_func_int32_t_s_s+0x27>
    85d0:	b8 ff ff ff 7f       	mov    $0x7fffffff,%eax
    85d5:	2b 45 f8             	sub    -0x8(%rbp),%eax
    85d8:	39 45 fc             	cmp    %eax,-0x4(%rbp)
    85db:	7f 23                	jg     8600 <safe_add_func_int32_t_s_s+0x4a>
    85dd:	83 7d fc 00          	cmpl   $0x0,-0x4(%rbp)
    85e1:	79 13                	jns    85f6 <safe_add_func_int32_t_s_s+0x40>
    85e3:	83 7d f8 00          	cmpl   $0x0,-0x8(%rbp)
    85e7:	79 0d                	jns    85f6 <safe_add_func_int32_t_s_s+0x40>
    85e9:	b8 00 00 00 80       	mov    $0x80000000,%eax
    85ee:	2b 45 f8             	sub    -0x8(%rbp),%eax
    85f1:	39 45 fc             	cmp    %eax,-0x4(%rbp)
    85f4:	7c 0a                	jl     8600 <safe_add_func_int32_t_s_s+0x4a>
    85f6:	8b 55 fc             	mov    -0x4(%rbp),%edx
    85f9:	8b 45 f8             	mov    -0x8(%rbp),%eax
    85fc:	01 d0                	add    %edx,%eax
    85fe:	eb 03                	jmp    8603 <safe_add_func_int32_t_s_s+0x4d>
    8600:	8b 45 fc             	mov    -0x4(%rbp),%eax
    8603:	5d                   	pop    %rbp
    8604:	c3                   	retq   

0000000000008605 <safe_sub_func_int32_t_s_s>:
    8605:	f3 0f 1e fa          	endbr64 
    8609:	55                   	push   %rbp
    860a:	48 89 e5             	mov    %rsp,%rbp
    860d:	89 7d fc             	mov    %edi,-0x4(%rbp)
    8610:	89 75 f8             	mov    %esi,-0x8(%rbp)
    8613:	8b 45 fc             	mov    -0x4(%rbp),%eax
    8616:	33 45 f8             	xor    -0x8(%rbp),%eax
    8619:	89 c2                	mov    %eax,%edx
    861b:	8b 45 fc             	mov    -0x4(%rbp),%eax
    861e:	33 45 f8             	xor    -0x8(%rbp),%eax
    8621:	25 00 00 00 80       	and    $0x80000000,%eax
    8626:	33 45 fc             	xor    -0x4(%rbp),%eax
    8629:	2b 45 f8             	sub    -0x8(%rbp),%eax
    862c:	33 45 f8             	xor    -0x8(%rbp),%eax
    862f:	21 d0                	and    %edx,%eax
    8631:	85 c0                	test   %eax,%eax
    8633:	78 08                	js     863d <safe_sub_func_int32_t_s_s+0x38>
    8635:	8b 45 fc             	mov    -0x4(%rbp),%eax
    8638:	2b 45 f8             	sub    -0x8(%rbp),%eax
    863b:	eb 03                	jmp    8640 <safe_sub_func_int32_t_s_s+0x3b>
    863d:	8b 45 fc             	mov    -0x4(%rbp),%eax
    8640:	5d                   	pop    %rbp
    8641:	c3                   	retq   

0000000000008642 <safe_mul_func_int32_t_s_s>:
    8642:	f3 0f 1e fa          	endbr64 
    8646:	55                   	push   %rbp
    8647:	48 89 e5             	mov    %rsp,%rbp
    864a:	89 7d fc             	mov    %edi,-0x4(%rbp)
    864d:	89 75 f8             	mov    %esi,-0x8(%rbp)
    8650:	83 7d fc 00          	cmpl   $0x0,-0x4(%rbp)
    8654:	7e 14                	jle    866a <safe_mul_func_int32_t_s_s+0x28>
    8656:	83 7d f8 00          	cmpl   $0x0,-0x8(%rbp)
    865a:	7e 0e                	jle    866a <safe_mul_func_int32_t_s_s+0x28>
    865c:	b8 ff ff ff 7f       	mov    $0x7fffffff,%eax
    8661:	99                   	cltd   
    8662:	f7 7d f8             	idivl  -0x8(%rbp)
    8665:	39 45 fc             	cmp    %eax,-0x4(%rbp)
    8668:	7f 5d                	jg     86c7 <safe_mul_func_int32_t_s_s+0x85>
    866a:	83 7d fc 00          	cmpl   $0x0,-0x4(%rbp)
    866e:	7e 14                	jle    8684 <safe_mul_func_int32_t_s_s+0x42>
    8670:	83 7d f8 00          	cmpl   $0x0,-0x8(%rbp)
    8674:	7f 0e                	jg     8684 <safe_mul_func_int32_t_s_s+0x42>
    8676:	b8 00 00 00 80       	mov    $0x80000000,%eax
    867b:	99                   	cltd   
    867c:	f7 7d fc             	idivl  -0x4(%rbp)
    867f:	39 45 f8             	cmp    %eax,-0x8(%rbp)
    8682:	7c 43                	jl     86c7 <safe_mul_func_int32_t_s_s+0x85>
    8684:	83 7d fc 00          	cmpl   $0x0,-0x4(%rbp)
    8688:	7f 14                	jg     869e <safe_mul_func_int32_t_s_s+0x5c>
    868a:	83 7d f8 00          	cmpl   $0x0,-0x8(%rbp)
    868e:	7e 0e                	jle    869e <safe_mul_func_int32_t_s_s+0x5c>
    8690:	b8 00 00 00 80       	mov    $0x80000000,%eax
    8695:	99                   	cltd   
    8696:	f7 7d f8             	idivl  -0x8(%rbp)
    8699:	39 45 fc             	cmp    %eax,-0x4(%rbp)
    869c:	7c 29                	jl     86c7 <safe_mul_func_int32_t_s_s+0x85>
    869e:	83 7d fc 00          	cmpl   $0x0,-0x4(%rbp)
    86a2:	7f 1a                	jg     86be <safe_mul_func_int32_t_s_s+0x7c>
    86a4:	83 7d f8 00          	cmpl   $0x0,-0x8(%rbp)
    86a8:	7f 14                	jg     86be <safe_mul_func_int32_t_s_s+0x7c>
    86aa:	83 7d fc 00          	cmpl   $0x0,-0x4(%rbp)
    86ae:	74 0e                	je     86be <safe_mul_func_int32_t_s_s+0x7c>
    86b0:	b8 ff ff ff 7f       	mov    $0x7fffffff,%eax
    86b5:	99                   	cltd   
    86b6:	f7 7d fc             	idivl  -0x4(%rbp)
    86b9:	39 45 f8             	cmp    %eax,-0x8(%rbp)
    86bc:	7c 09                	jl     86c7 <safe_mul_func_int32_t_s_s+0x85>
    86be:	8b 45 fc             	mov    -0x4(%rbp),%eax
    86c1:	0f af 45 f8          	imul   -0x8(%rbp),%eax
    86c5:	eb 03                	jmp    86ca <safe_mul_func_int32_t_s_s+0x88>
    86c7:	8b 45 fc             	mov    -0x4(%rbp),%eax
    86ca:	5d                   	pop    %rbp
    86cb:	c3                   	retq   

00000000000086cc <safe_mod_func_int32_t_s_s>:
    86cc:	f3 0f 1e fa          	endbr64 
    86d0:	55                   	push   %rbp
    86d1:	48 89 e5             	mov    %rsp,%rbp
    86d4:	89 7d fc             	mov    %edi,-0x4(%rbp)
    86d7:	89 75 f8             	mov    %esi,-0x8(%rbp)
    86da:	83 7d f8 00          	cmpl   $0x0,-0x8(%rbp)
    86de:	74 1a                	je     86fa <safe_mod_func_int32_t_s_s+0x2e>
    86e0:	81 7d fc 00 00 00 80 	cmpl   $0x80000000,-0x4(%rbp)
    86e7:	75 06                	jne    86ef <safe_mod_func_int32_t_s_s+0x23>
    86e9:	83 7d f8 ff          	cmpl   $0xffffffff,-0x8(%rbp)
    86ed:	74 0b                	je     86fa <safe_mod_func_int32_t_s_s+0x2e>
    86ef:	8b 45 fc             	mov    -0x4(%rbp),%eax
    86f2:	99                   	cltd   
    86f3:	f7 7d f8             	idivl  -0x8(%rbp)
    86f6:	89 d0                	mov    %edx,%eax
    86f8:	eb 03                	jmp    86fd <safe_mod_func_int32_t_s_s+0x31>
    86fa:	8b 45 fc             	mov    -0x4(%rbp),%eax
    86fd:	5d                   	pop    %rbp
    86fe:	c3                   	retq   

00000000000086ff <safe_div_func_int32_t_s_s>:
    86ff:	f3 0f 1e fa          	endbr64 
    8703:	55                   	push   %rbp
    8704:	48 89 e5             	mov    %rsp,%rbp
    8707:	89 7d fc             	mov    %edi,-0x4(%rbp)
    870a:	89 75 f8             	mov    %esi,-0x8(%rbp)
    870d:	83 7d f8 00          	cmpl   $0x0,-0x8(%rbp)
    8711:	74 18                	je     872b <safe_div_func_int32_t_s_s+0x2c>
    8713:	81 7d fc 00 00 00 80 	cmpl   $0x80000000,-0x4(%rbp)
    871a:	75 06                	jne    8722 <safe_div_func_int32_t_s_s+0x23>
    871c:	83 7d f8 ff          	cmpl   $0xffffffff,-0x8(%rbp)
    8720:	74 09                	je     872b <safe_div_func_int32_t_s_s+0x2c>
    8722:	8b 45 fc             	mov    -0x4(%rbp),%eax
    8725:	99                   	cltd   
    8726:	f7 7d f8             	idivl  -0x8(%rbp)
    8729:	eb 03                	jmp    872e <safe_div_func_int32_t_s_s+0x2f>
    872b:	8b 45 fc             	mov    -0x4(%rbp),%eax
    872e:	5d                   	pop    %rbp
    872f:	c3                   	retq   

0000000000008730 <safe_lshift_func_int32_t_s_s>:
    8730:	f3 0f 1e fa          	endbr64 
    8734:	55                   	push   %rbp
    8735:	48 89 e5             	mov    %rsp,%rbp
    8738:	89 7d fc             	mov    %edi,-0x4(%rbp)
    873b:	89 75 f8             	mov    %esi,-0x8(%rbp)
    873e:	83 7d fc 00          	cmpl   $0x0,-0x4(%rbp)
    8742:	78 2d                	js     8771 <safe_lshift_func_int32_t_s_s+0x41>
    8744:	83 7d f8 00          	cmpl   $0x0,-0x8(%rbp)
    8748:	78 27                	js     8771 <safe_lshift_func_int32_t_s_s+0x41>
    874a:	83 7d f8 1f          	cmpl   $0x1f,-0x8(%rbp)
    874e:	7f 21                	jg     8771 <safe_lshift_func_int32_t_s_s+0x41>
    8750:	8b 45 f8             	mov    -0x8(%rbp),%eax
    8753:	ba ff ff ff 7f       	mov    $0x7fffffff,%edx
    8758:	89 c1                	mov    %eax,%ecx
    875a:	d3 fa                	sar    %cl,%edx
    875c:	89 d0                	mov    %edx,%eax
    875e:	39 45 fc             	cmp    %eax,-0x4(%rbp)
    8761:	7f 0e                	jg     8771 <safe_lshift_func_int32_t_s_s+0x41>
    8763:	8b 45 f8             	mov    -0x8(%rbp),%eax
    8766:	8b 55 fc             	mov    -0x4(%rbp),%edx
    8769:	89 c1                	mov    %eax,%ecx
    876b:	d3 e2                	shl    %cl,%edx
    876d:	89 d0                	mov    %edx,%eax
    876f:	eb 03                	jmp    8774 <safe_lshift_func_int32_t_s_s+0x44>
    8771:	8b 45 fc             	mov    -0x4(%rbp),%eax
    8774:	5d                   	pop    %rbp
    8775:	c3                   	retq   

0000000000008776 <safe_lshift_func_int32_t_s_u>:
    8776:	f3 0f 1e fa          	endbr64 
    877a:	55                   	push   %rbp
    877b:	48 89 e5             	mov    %rsp,%rbp
    877e:	89 7d fc             	mov    %edi,-0x4(%rbp)
    8781:	89 75 f8             	mov    %esi,-0x8(%rbp)
    8784:	83 7d fc 00          	cmpl   $0x0,-0x4(%rbp)
    8788:	78 27                	js     87b1 <safe_lshift_func_int32_t_s_u+0x3b>
    878a:	83 7d f8 1f          	cmpl   $0x1f,-0x8(%rbp)
    878e:	77 21                	ja     87b1 <safe_lshift_func_int32_t_s_u+0x3b>
    8790:	8b 45 f8             	mov    -0x8(%rbp),%eax
    8793:	ba ff ff ff 7f       	mov    $0x7fffffff,%edx
    8798:	89 c1                	mov    %eax,%ecx
    879a:	d3 fa                	sar    %cl,%edx
    879c:	89 d0                	mov    %edx,%eax
    879e:	39 45 fc             	cmp    %eax,-0x4(%rbp)
    87a1:	7f 0e                	jg     87b1 <safe_lshift_func_int32_t_s_u+0x3b>
    87a3:	8b 45 f8             	mov    -0x8(%rbp),%eax
    87a6:	8b 55 fc             	mov    -0x4(%rbp),%edx
    87a9:	89 c1                	mov    %eax,%ecx
    87ab:	d3 e2                	shl    %cl,%edx
    87ad:	89 d0                	mov    %edx,%eax
    87af:	eb 03                	jmp    87b4 <safe_lshift_func_int32_t_s_u+0x3e>
    87b1:	8b 45 fc             	mov    -0x4(%rbp),%eax
    87b4:	5d                   	pop    %rbp
    87b5:	c3                   	retq   

00000000000087b6 <safe_rshift_func_int32_t_s_s>:
    87b6:	f3 0f 1e fa          	endbr64 
    87ba:	55                   	push   %rbp
    87bb:	48 89 e5             	mov    %rsp,%rbp
    87be:	89 7d fc             	mov    %edi,-0x4(%rbp)
    87c1:	89 75 f8             	mov    %esi,-0x8(%rbp)
    87c4:	83 7d fc 00          	cmpl   $0x0,-0x4(%rbp)
    87c8:	78 1a                	js     87e4 <safe_rshift_func_int32_t_s_s+0x2e>
    87ca:	83 7d f8 00          	cmpl   $0x0,-0x8(%rbp)
    87ce:	78 14                	js     87e4 <safe_rshift_func_int32_t_s_s+0x2e>
    87d0:	83 7d f8 1f          	cmpl   $0x1f,-0x8(%rbp)
    87d4:	7f 0e                	jg     87e4 <safe_rshift_func_int32_t_s_s+0x2e>
    87d6:	8b 45 f8             	mov    -0x8(%rbp),%eax
    87d9:	8b 55 fc             	mov    -0x4(%rbp),%edx
    87dc:	89 c1                	mov    %eax,%ecx
    87de:	d3 fa                	sar    %cl,%edx
    87e0:	89 d0                	mov    %edx,%eax
    87e2:	eb 03                	jmp    87e7 <safe_rshift_func_int32_t_s_s+0x31>
    87e4:	8b 45 fc             	mov    -0x4(%rbp),%eax
    87e7:	5d                   	pop    %rbp
    87e8:	c3                   	retq   

00000000000087e9 <safe_rshift_func_int32_t_s_u>:
    87e9:	f3 0f 1e fa          	endbr64 
    87ed:	55                   	push   %rbp
    87ee:	48 89 e5             	mov    %rsp,%rbp
    87f1:	89 7d fc             	mov    %edi,-0x4(%rbp)
    87f4:	89 75 f8             	mov    %esi,-0x8(%rbp)
    87f7:	83 7d fc 00          	cmpl   $0x0,-0x4(%rbp)
    87fb:	78 14                	js     8811 <safe_rshift_func_int32_t_s_u+0x28>
    87fd:	83 7d f8 1f          	cmpl   $0x1f,-0x8(%rbp)
    8801:	77 0e                	ja     8811 <safe_rshift_func_int32_t_s_u+0x28>
    8803:	8b 45 f8             	mov    -0x8(%rbp),%eax
    8806:	8b 55 fc             	mov    -0x4(%rbp),%edx
    8809:	89 c1                	mov    %eax,%ecx
    880b:	d3 fa                	sar    %cl,%edx
    880d:	89 d0                	mov    %edx,%eax
    880f:	eb 03                	jmp    8814 <safe_rshift_func_int32_t_s_u+0x2b>
    8811:	8b 45 fc             	mov    -0x4(%rbp),%eax
    8814:	5d                   	pop    %rbp
    8815:	c3                   	retq   

0000000000008816 <safe_unary_minus_func_int64_t_s>:
    8816:	f3 0f 1e fa          	endbr64 
    881a:	55                   	push   %rbp
    881b:	48 89 e5             	mov    %rsp,%rbp
    881e:	48 89 7d f8          	mov    %rdi,-0x8(%rbp)
    8822:	48 b8 00 00 00 00 00 	movabs $0x8000000000000000,%rax
    8829:	00 00 80 
    882c:	48 39 45 f8          	cmp    %rax,-0x8(%rbp)
    8830:	74 09                	je     883b <safe_unary_minus_func_int64_t_s+0x25>
    8832:	48 8b 45 f8          	mov    -0x8(%rbp),%rax
    8836:	48 f7 d8             	neg    %rax
    8839:	eb 04                	jmp    883f <safe_unary_minus_func_int64_t_s+0x29>
    883b:	48 8b 45 f8          	mov    -0x8(%rbp),%rax
    883f:	5d                   	pop    %rbp
    8840:	c3                   	retq   

0000000000008841 <safe_add_func_int64_t_s_s>:
    8841:	f3 0f 1e fa          	endbr64 
    8845:	55                   	push   %rbp
    8846:	48 89 e5             	mov    %rsp,%rbp
    8849:	48 89 7d f8          	mov    %rdi,-0x8(%rbp)
    884d:	48 89 75 f0          	mov    %rsi,-0x10(%rbp)
    8851:	48 83 7d f8 00       	cmpq   $0x0,-0x8(%rbp)
    8856:	7e 1b                	jle    8873 <safe_add_func_int64_t_s_s+0x32>
    8858:	48 83 7d f0 00       	cmpq   $0x0,-0x10(%rbp)
    885d:	7e 14                	jle    8873 <safe_add_func_int64_t_s_s+0x32>
    885f:	48 b8 ff ff ff ff ff 	movabs $0x7fffffffffffffff,%rax
    8866:	ff ff 7f 
    8869:	48 2b 45 f0          	sub    -0x10(%rbp),%rax
    886d:	48 39 45 f8          	cmp    %rax,-0x8(%rbp)
    8871:	7f 2f                	jg     88a2 <safe_add_func_int64_t_s_s+0x61>
    8873:	48 83 7d f8 00       	cmpq   $0x0,-0x8(%rbp)
    8878:	79 1b                	jns    8895 <safe_add_func_int64_t_s_s+0x54>
    887a:	48 83 7d f0 00       	cmpq   $0x0,-0x10(%rbp)
    887f:	79 14                	jns    8895 <safe_add_func_int64_t_s_s+0x54>
    8881:	48 b8 00 00 00 00 00 	movabs $0x8000000000000000,%rax
    8888:	00 00 80 
    888b:	48 2b 45 f0          	sub    -0x10(%rbp),%rax
    888f:	48 39 45 f8          	cmp    %rax,-0x8(%rbp)
    8893:	7c 0d                	jl     88a2 <safe_add_func_int64_t_s_s+0x61>
    8895:	48 8b 55 f8          	mov    -0x8(%rbp),%rdx
    8899:	48 8b 45 f0          	mov    -0x10(%rbp),%rax
    889d:	48 01 d0             	add    %rdx,%rax
    88a0:	eb 04                	jmp    88a6 <safe_add_func_int64_t_s_s+0x65>
    88a2:	48 8b 45 f8          	mov    -0x8(%rbp),%rax
    88a6:	5d                   	pop    %rbp
    88a7:	c3                   	retq   

00000000000088a8 <safe_sub_func_int64_t_s_s>:
    88a8:	f3 0f 1e fa          	endbr64 
    88ac:	55                   	push   %rbp
    88ad:	48 89 e5             	mov    %rsp,%rbp
    88b0:	48 89 7d f8          	mov    %rdi,-0x8(%rbp)
    88b4:	48 89 75 f0          	mov    %rsi,-0x10(%rbp)
    88b8:	48 8b 45 f8          	mov    -0x8(%rbp),%rax
    88bc:	48 33 45 f0          	xor    -0x10(%rbp),%rax
    88c0:	48 89 c2             	mov    %rax,%rdx
    88c3:	48 8b 45 f8          	mov    -0x8(%rbp),%rax
    88c7:	48 33 45 f0          	xor    -0x10(%rbp),%rax
    88cb:	48 b9 00 00 00 00 00 	movabs $0x8000000000000000,%rcx
    88d2:	00 00 80 
    88d5:	48 21 c8             	and    %rcx,%rax
    88d8:	48 33 45 f8          	xor    -0x8(%rbp),%rax
    88dc:	48 2b 45 f0          	sub    -0x10(%rbp),%rax
    88e0:	48 33 45 f0          	xor    -0x10(%rbp),%rax
    88e4:	48 21 d0             	and    %rdx,%rax
    88e7:	48 85 c0             	test   %rax,%rax
    88ea:	78 0a                	js     88f6 <safe_sub_func_int64_t_s_s+0x4e>
    88ec:	48 8b 45 f8          	mov    -0x8(%rbp),%rax
    88f0:	48 2b 45 f0          	sub    -0x10(%rbp),%rax
    88f4:	eb 04                	jmp    88fa <safe_sub_func_int64_t_s_s+0x52>
    88f6:	48 8b 45 f8          	mov    -0x8(%rbp),%rax
    88fa:	5d                   	pop    %rbp
    88fb:	c3                   	retq   

00000000000088fc <safe_mul_func_int64_t_s_s>:
    88fc:	f3 0f 1e fa          	endbr64 
    8900:	55                   	push   %rbp
    8901:	48 89 e5             	mov    %rsp,%rbp
    8904:	48 89 7d f8          	mov    %rdi,-0x8(%rbp)
    8908:	48 89 75 f0          	mov    %rsi,-0x10(%rbp)
    890c:	48 83 7d f8 00       	cmpq   $0x0,-0x8(%rbp)
    8911:	7e 1d                	jle    8930 <safe_mul_func_int64_t_s_s+0x34>
    8913:	48 83 7d f0 00       	cmpq   $0x0,-0x10(%rbp)
    8918:	7e 16                	jle    8930 <safe_mul_func_int64_t_s_s+0x34>
    891a:	48 b8 ff ff ff ff ff 	movabs $0x7fffffffffffffff,%rax
    8921:	ff ff 7f 
    8924:	48 99                	cqto   
    8926:	48 f7 7d f0          	idivq  -0x10(%rbp)
    892a:	48 39 45 f8          	cmp    %rax,-0x8(%rbp)
    892e:	7f 7e                	jg     89ae <safe_mul_func_int64_t_s_s+0xb2>
    8930:	48 83 7d f8 00       	cmpq   $0x0,-0x8(%rbp)
    8935:	7e 1d                	jle    8954 <safe_mul_func_int64_t_s_s+0x58>
    8937:	48 83 7d f0 00       	cmpq   $0x0,-0x10(%rbp)
    893c:	7f 16                	jg     8954 <safe_mul_func_int64_t_s_s+0x58>
    893e:	48 b8 00 00 00 00 00 	movabs $0x8000000000000000,%rax
    8945:	00 00 80 
    8948:	48 99                	cqto   
    894a:	48 f7 7d f8          	idivq  -0x8(%rbp)
    894e:	48 39 45 f0          	cmp    %rax,-0x10(%rbp)
    8952:	7c 5a                	jl     89ae <safe_mul_func_int64_t_s_s+0xb2>
    8954:	48 83 7d f8 00       	cmpq   $0x0,-0x8(%rbp)
    8959:	7f 1d                	jg     8978 <safe_mul_func_int64_t_s_s+0x7c>
    895b:	48 83 7d f0 00       	cmpq   $0x0,-0x10(%rbp)
    8960:	7e 16                	jle    8978 <safe_mul_func_int64_t_s_s+0x7c>
    8962:	48 b8 00 00 00 00 00 	movabs $0x8000000000000000,%rax
    8969:	00 00 80 
    896c:	48 99                	cqto   
    896e:	48 f7 7d f0          	idivq  -0x10(%rbp)
    8972:	48 39 45 f8          	cmp    %rax,-0x8(%rbp)
    8976:	7c 36                	jl     89ae <safe_mul_func_int64_t_s_s+0xb2>
    8978:	48 83 7d f8 00       	cmpq   $0x0,-0x8(%rbp)
    897d:	7f 24                	jg     89a3 <safe_mul_func_int64_t_s_s+0xa7>
    897f:	48 83 7d f0 00       	cmpq   $0x0,-0x10(%rbp)
    8984:	7f 1d                	jg     89a3 <safe_mul_func_int64_t_s_s+0xa7>
    8986:	48 83 7d f8 00       	cmpq   $0x0,-0x8(%rbp)
    898b:	74 16                	je     89a3 <safe_mul_func_int64_t_s_s+0xa7>
    898d:	48 b8 ff ff ff ff ff 	movabs $0x7fffffffffffffff,%rax
    8994:	ff ff 7f 
    8997:	48 99                	cqto   
    8999:	48 f7 7d f8          	idivq  -0x8(%rbp)
    899d:	48 39 45 f0          	cmp    %rax,-0x10(%rbp)
    89a1:	7c 0b                	jl     89ae <safe_mul_func_int64_t_s_s+0xb2>
    89a3:	48 8b 45 f8          	mov    -0x8(%rbp),%rax
    89a7:	48 0f af 45 f0       	imul   -0x10(%rbp),%rax
    89ac:	eb 04                	jmp    89b2 <safe_mul_func_int64_t_s_s+0xb6>
    89ae:	48 8b 45 f8          	mov    -0x8(%rbp),%rax
    89b2:	5d                   	pop    %rbp
    89b3:	c3                   	retq   

00000000000089b4 <safe_mod_func_int64_t_s_s>:
    89b4:	f3 0f 1e fa          	endbr64 
    89b8:	55                   	push   %rbp
    89b9:	48 89 e5             	mov    %rsp,%rbp
    89bc:	48 89 7d f8          	mov    %rdi,-0x8(%rbp)
    89c0:	48 89 75 f0          	mov    %rsi,-0x10(%rbp)
    89c4:	48 83 7d f0 00       	cmpq   $0x0,-0x10(%rbp)
    89c9:	74 26                	je     89f1 <safe_mod_func_int64_t_s_s+0x3d>
    89cb:	48 b8 00 00 00 00 00 	movabs $0x8000000000000000,%rax
    89d2:	00 00 80 
    89d5:	48 39 45 f8          	cmp    %rax,-0x8(%rbp)
    89d9:	75 07                	jne    89e2 <safe_mod_func_int64_t_s_s+0x2e>
    89db:	48 83 7d f0 ff       	cmpq   $0xffffffffffffffff,-0x10(%rbp)
    89e0:	74 0f                	je     89f1 <safe_mod_func_int64_t_s_s+0x3d>
    89e2:	48 8b 45 f8          	mov    -0x8(%rbp),%rax
    89e6:	48 99                	cqto   
    89e8:	48 f7 7d f0          	idivq  -0x10(%rbp)
    89ec:	48 89 d0             	mov    %rdx,%rax
    89ef:	eb 04                	jmp    89f5 <safe_mod_func_int64_t_s_s+0x41>
    89f1:	48 8b 45 f8          	mov    -0x8(%rbp),%rax
    89f5:	5d                   	pop    %rbp
    89f6:	c3                   	retq   

00000000000089f7 <safe_div_func_int64_t_s_s>:
    89f7:	f3 0f 1e fa          	endbr64 
    89fb:	55                   	push   %rbp
    89fc:	48 89 e5             	mov    %rsp,%rbp
    89ff:	48 89 7d f8          	mov    %rdi,-0x8(%rbp)
    8a03:	48 89 75 f0          	mov    %rsi,-0x10(%rbp)
    8a07:	48 83 7d f0 00       	cmpq   $0x0,-0x10(%rbp)
    8a0c:	74 23                	je     8a31 <safe_div_func_int64_t_s_s+0x3a>
    8a0e:	48 b8 00 00 00 00 00 	movabs $0x8000000000000000,%rax
    8a15:	00 00 80 
    8a18:	48 39 45 f8          	cmp    %rax,-0x8(%rbp)
    8a1c:	75 07                	jne    8a25 <safe_div_func_int64_t_s_s+0x2e>
    8a1e:	48 83 7d f0 ff       	cmpq   $0xffffffffffffffff,-0x10(%rbp)
    8a23:	74 0c                	je     8a31 <safe_div_func_int64_t_s_s+0x3a>
    8a25:	48 8b 45 f8          	mov    -0x8(%rbp),%rax
    8a29:	48 99                	cqto   
    8a2b:	48 f7 7d f0          	idivq  -0x10(%rbp)
    8a2f:	eb 04                	jmp    8a35 <safe_div_func_int64_t_s_s+0x3e>
    8a31:	48 8b 45 f8          	mov    -0x8(%rbp),%rax
    8a35:	5d                   	pop    %rbp
    8a36:	c3                   	retq   

0000000000008a37 <safe_lshift_func_int64_t_s_s>:
    8a37:	f3 0f 1e fa          	endbr64 
    8a3b:	55                   	push   %rbp
    8a3c:	48 89 e5             	mov    %rsp,%rbp
    8a3f:	48 89 7d f8          	mov    %rdi,-0x8(%rbp)
    8a43:	89 75 f4             	mov    %esi,-0xc(%rbp)
    8a46:	48 83 7d f8 00       	cmpq   $0x0,-0x8(%rbp)
    8a4b:	78 38                	js     8a85 <safe_lshift_func_int64_t_s_s+0x4e>
    8a4d:	83 7d f4 00          	cmpl   $0x0,-0xc(%rbp)
    8a51:	78 32                	js     8a85 <safe_lshift_func_int64_t_s_s+0x4e>
    8a53:	83 7d f4 1f          	cmpl   $0x1f,-0xc(%rbp)
    8a57:	7f 2c                	jg     8a85 <safe_lshift_func_int64_t_s_s+0x4e>
    8a59:	8b 45 f4             	mov    -0xc(%rbp),%eax
    8a5c:	48 ba ff ff ff ff ff 	movabs $0x7fffffffffffffff,%rdx
    8a63:	ff ff 7f 
    8a66:	89 c1                	mov    %eax,%ecx
    8a68:	48 d3 fa             	sar    %cl,%rdx
    8a6b:	48 89 d0             	mov    %rdx,%rax
    8a6e:	48 39 45 f8          	cmp    %rax,-0x8(%rbp)
    8a72:	7f 11                	jg     8a85 <safe_lshift_func_int64_t_s_s+0x4e>
    8a74:	8b 45 f4             	mov    -0xc(%rbp),%eax
    8a77:	48 8b 55 f8          	mov    -0x8(%rbp),%rdx
    8a7b:	89 c1                	mov    %eax,%ecx
    8a7d:	48 d3 e2             	shl    %cl,%rdx
    8a80:	48 89 d0             	mov    %rdx,%rax
    8a83:	eb 04                	jmp    8a89 <safe_lshift_func_int64_t_s_s+0x52>
    8a85:	48 8b 45 f8          	mov    -0x8(%rbp),%rax
    8a89:	5d                   	pop    %rbp
    8a8a:	c3                   	retq   

0000000000008a8b <safe_lshift_func_int64_t_s_u>:
    8a8b:	f3 0f 1e fa          	endbr64 
    8a8f:	55                   	push   %rbp
    8a90:	48 89 e5             	mov    %rsp,%rbp
    8a93:	48 89 7d f8          	mov    %rdi,-0x8(%rbp)
    8a97:	89 75 f4             	mov    %esi,-0xc(%rbp)
    8a9a:	48 83 7d f8 00       	cmpq   $0x0,-0x8(%rbp)
    8a9f:	78 32                	js     8ad3 <safe_lshift_func_int64_t_s_u+0x48>
    8aa1:	83 7d f4 1f          	cmpl   $0x1f,-0xc(%rbp)
    8aa5:	77 2c                	ja     8ad3 <safe_lshift_func_int64_t_s_u+0x48>
    8aa7:	8b 45 f4             	mov    -0xc(%rbp),%eax
    8aaa:	48 ba ff ff ff ff ff 	movabs $0x7fffffffffffffff,%rdx
    8ab1:	ff ff 7f 
    8ab4:	89 c1                	mov    %eax,%ecx
    8ab6:	48 d3 fa             	sar    %cl,%rdx
    8ab9:	48 89 d0             	mov    %rdx,%rax
    8abc:	48 39 45 f8          	cmp    %rax,-0x8(%rbp)
    8ac0:	7f 11                	jg     8ad3 <safe_lshift_func_int64_t_s_u+0x48>
    8ac2:	8b 45 f4             	mov    -0xc(%rbp),%eax
    8ac5:	48 8b 55 f8          	mov    -0x8(%rbp),%rdx
    8ac9:	89 c1                	mov    %eax,%ecx
    8acb:	48 d3 e2             	shl    %cl,%rdx
    8ace:	48 89 d0             	mov    %rdx,%rax
    8ad1:	eb 04                	jmp    8ad7 <safe_lshift_func_int64_t_s_u+0x4c>
    8ad3:	48 8b 45 f8          	mov    -0x8(%rbp),%rax
    8ad7:	5d                   	pop    %rbp
    8ad8:	c3                   	retq   

0000000000008ad9 <safe_rshift_func_int64_t_s_s>:
    8ad9:	f3 0f 1e fa          	endbr64 
    8add:	55                   	push   %rbp
    8ade:	48 89 e5             	mov    %rsp,%rbp
    8ae1:	48 89 7d f8          	mov    %rdi,-0x8(%rbp)
    8ae5:	89 75 f4             	mov    %esi,-0xc(%rbp)
    8ae8:	48 83 7d f8 00       	cmpq   $0x0,-0x8(%rbp)
    8aed:	78 1d                	js     8b0c <safe_rshift_func_int64_t_s_s+0x33>
    8aef:	83 7d f4 00          	cmpl   $0x0,-0xc(%rbp)
    8af3:	78 17                	js     8b0c <safe_rshift_func_int64_t_s_s+0x33>
    8af5:	83 7d f4 1f          	cmpl   $0x1f,-0xc(%rbp)
    8af9:	7f 11                	jg     8b0c <safe_rshift_func_int64_t_s_s+0x33>
    8afb:	8b 45 f4             	mov    -0xc(%rbp),%eax
    8afe:	48 8b 55 f8          	mov    -0x8(%rbp),%rdx
    8b02:	89 c1                	mov    %eax,%ecx
    8b04:	48 d3 fa             	sar    %cl,%rdx
    8b07:	48 89 d0             	mov    %rdx,%rax
    8b0a:	eb 04                	jmp    8b10 <safe_rshift_func_int64_t_s_s+0x37>
    8b0c:	48 8b 45 f8          	mov    -0x8(%rbp),%rax
    8b10:	5d                   	pop    %rbp
    8b11:	c3                   	retq   

0000000000008b12 <safe_rshift_func_int64_t_s_u>:
    8b12:	f3 0f 1e fa          	endbr64 
    8b16:	55                   	push   %rbp
    8b17:	48 89 e5             	mov    %rsp,%rbp
    8b1a:	48 89 7d f8          	mov    %rdi,-0x8(%rbp)
    8b1e:	89 75 f4             	mov    %esi,-0xc(%rbp)
    8b21:	48 83 7d f8 00       	cmpq   $0x0,-0x8(%rbp)
    8b26:	78 17                	js     8b3f <safe_rshift_func_int64_t_s_u+0x2d>
    8b28:	83 7d f4 1f          	cmpl   $0x1f,-0xc(%rbp)
    8b2c:	77 11                	ja     8b3f <safe_rshift_func_int64_t_s_u+0x2d>
    8b2e:	8b 45 f4             	mov    -0xc(%rbp),%eax
    8b31:	48 8b 55 f8          	mov    -0x8(%rbp),%rdx
    8b35:	89 c1                	mov    %eax,%ecx
    8b37:	48 d3 fa             	sar    %cl,%rdx
    8b3a:	48 89 d0             	mov    %rdx,%rax
    8b3d:	eb 04                	jmp    8b43 <safe_rshift_func_int64_t_s_u+0x31>
    8b3f:	48 8b 45 f8          	mov    -0x8(%rbp),%rax
    8b43:	5d                   	pop    %rbp
    8b44:	c3                   	retq   

0000000000008b45 <safe_unary_minus_func_uint8_t_u>:
    8b45:	f3 0f 1e fa          	endbr64 
    8b49:	55                   	push   %rbp
    8b4a:	48 89 e5             	mov    %rsp,%rbp
    8b4d:	89 f8                	mov    %edi,%eax
    8b4f:	88 45 fc             	mov    %al,-0x4(%rbp)
    8b52:	0f b6 45 fc          	movzbl -0x4(%rbp),%eax
    8b56:	f7 d8                	neg    %eax
    8b58:	5d                   	pop    %rbp
    8b59:	c3                   	retq   

0000000000008b5a <safe_add_func_uint8_t_u_u>:
    8b5a:	f3 0f 1e fa          	endbr64 
    8b5e:	55                   	push   %rbp
    8b5f:	48 89 e5             	mov    %rsp,%rbp
    8b62:	89 fa                	mov    %edi,%edx
    8b64:	89 f0                	mov    %esi,%eax
    8b66:	88 55 fc             	mov    %dl,-0x4(%rbp)
    8b69:	88 45 f8             	mov    %al,-0x8(%rbp)
    8b6c:	0f b6 55 fc          	movzbl -0x4(%rbp),%edx
    8b70:	0f b6 45 f8          	movzbl -0x8(%rbp),%eax
    8b74:	01 d0                	add    %edx,%eax
    8b76:	5d                   	pop    %rbp
    8b77:	c3                   	retq   

0000000000008b78 <safe_sub_func_uint8_t_u_u>:
    8b78:	f3 0f 1e fa          	endbr64 
    8b7c:	55                   	push   %rbp
    8b7d:	48 89 e5             	mov    %rsp,%rbp
    8b80:	89 fa                	mov    %edi,%edx
    8b82:	89 f0                	mov    %esi,%eax
    8b84:	88 55 fc             	mov    %dl,-0x4(%rbp)
    8b87:	88 45 f8             	mov    %al,-0x8(%rbp)
    8b8a:	0f b6 45 fc          	movzbl -0x4(%rbp),%eax
    8b8e:	2a 45 f8             	sub    -0x8(%rbp),%al
    8b91:	5d                   	pop    %rbp
    8b92:	c3                   	retq   

0000000000008b93 <safe_mul_func_uint8_t_u_u>:
    8b93:	f3 0f 1e fa          	endbr64 
    8b97:	55                   	push   %rbp
    8b98:	48 89 e5             	mov    %rsp,%rbp
    8b9b:	89 fa                	mov    %edi,%edx
    8b9d:	89 f0                	mov    %esi,%eax
    8b9f:	88 55 fc             	mov    %dl,-0x4(%rbp)
    8ba2:	88 45 f8             	mov    %al,-0x8(%rbp)
    8ba5:	0f b6 45 fc          	movzbl -0x4(%rbp),%eax
    8ba9:	f6 65 f8             	mulb   -0x8(%rbp)
    8bac:	5d                   	pop    %rbp
    8bad:	c3                   	retq   

0000000000008bae <safe_mod_func_uint8_t_u_u>:
    8bae:	f3 0f 1e fa          	endbr64 
    8bb2:	55                   	push   %rbp
    8bb3:	48 89 e5             	mov    %rsp,%rbp
    8bb6:	89 fa                	mov    %edi,%edx
    8bb8:	89 f0                	mov    %esi,%eax
    8bba:	88 55 fc             	mov    %dl,-0x4(%rbp)
    8bbd:	88 45 f8             	mov    %al,-0x8(%rbp)
    8bc0:	80 7d f8 00          	cmpb   $0x0,-0x8(%rbp)
    8bc4:	74 0f                	je     8bd5 <safe_mod_func_uint8_t_u_u+0x27>
    8bc6:	0f b6 45 fc          	movzbl -0x4(%rbp),%eax
    8bca:	0f b6 c0             	movzbl %al,%eax
    8bcd:	f6 75 f8             	divb   -0x8(%rbp)
    8bd0:	0f b6 c4             	movzbl %ah,%eax
    8bd3:	eb 04                	jmp    8bd9 <safe_mod_func_uint8_t_u_u+0x2b>
    8bd5:	0f b6 45 fc          	movzbl -0x4(%rbp),%eax
    8bd9:	5d                   	pop    %rbp
    8bda:	c3                   	retq   

0000000000008bdb <safe_div_func_uint8_t_u_u>:
    8bdb:	f3 0f 1e fa          	endbr64 
    8bdf:	55                   	push   %rbp
    8be0:	48 89 e5             	mov    %rsp,%rbp
    8be3:	89 fa                	mov    %edi,%edx
    8be5:	89 f0                	mov    %esi,%eax
    8be7:	88 55 fc             	mov    %dl,-0x4(%rbp)
    8bea:	88 45 f8             	mov    %al,-0x8(%rbp)
    8bed:	80 7d f8 00          	cmpb   $0x0,-0x8(%rbp)
    8bf1:	74 0c                	je     8bff <safe_div_func_uint8_t_u_u+0x24>
    8bf3:	0f b6 45 fc          	movzbl -0x4(%rbp),%eax
    8bf7:	0f b6 c0             	movzbl %al,%eax
    8bfa:	f6 75 f8             	divb   -0x8(%rbp)
    8bfd:	eb 04                	jmp    8c03 <safe_div_func_uint8_t_u_u+0x28>
    8bff:	0f b6 45 fc          	movzbl -0x4(%rbp),%eax
    8c03:	5d                   	pop    %rbp
    8c04:	c3                   	retq   

0000000000008c05 <safe_lshift_func_uint8_t_u_s>:
    8c05:	f3 0f 1e fa          	endbr64 
    8c09:	55                   	push   %rbp
    8c0a:	48 89 e5             	mov    %rsp,%rbp
    8c0d:	89 f8                	mov    %edi,%eax
    8c0f:	89 75 f8             	mov    %esi,-0x8(%rbp)
    8c12:	88 45 fc             	mov    %al,-0x4(%rbp)
    8c15:	83 7d f8 00          	cmpl   $0x0,-0x8(%rbp)
    8c19:	78 2b                	js     8c46 <safe_lshift_func_uint8_t_u_s+0x41>
    8c1b:	83 7d f8 1f          	cmpl   $0x1f,-0x8(%rbp)
    8c1f:	7f 25                	jg     8c46 <safe_lshift_func_uint8_t_u_s+0x41>
    8c21:	0f b6 55 fc          	movzbl -0x4(%rbp),%edx
    8c25:	8b 45 f8             	mov    -0x8(%rbp),%eax
    8c28:	be ff 00 00 00       	mov    $0xff,%esi
    8c2d:	89 c1                	mov    %eax,%ecx
    8c2f:	d3 fe                	sar    %cl,%esi
    8c31:	89 f0                	mov    %esi,%eax
    8c33:	39 c2                	cmp    %eax,%edx
    8c35:	7f 0f                	jg     8c46 <safe_lshift_func_uint8_t_u_s+0x41>
    8c37:	0f b6 55 fc          	movzbl -0x4(%rbp),%edx
    8c3b:	8b 45 f8             	mov    -0x8(%rbp),%eax
    8c3e:	89 c1                	mov    %eax,%ecx
    8c40:	d3 e2                	shl    %cl,%edx
    8c42:	89 d0                	mov    %edx,%eax
    8c44:	eb 04                	jmp    8c4a <safe_lshift_func_uint8_t_u_s+0x45>
    8c46:	0f b6 45 fc          	movzbl -0x4(%rbp),%eax
    8c4a:	5d                   	pop    %rbp
    8c4b:	c3                   	retq   

0000000000008c4c <safe_lshift_func_uint8_t_u_u>:
    8c4c:	f3 0f 1e fa          	endbr64 
    8c50:	55                   	push   %rbp
    8c51:	48 89 e5             	mov    %rsp,%rbp
    8c54:	89 f8                	mov    %edi,%eax
    8c56:	89 75 f8             	mov    %esi,-0x8(%rbp)
    8c59:	88 45 fc             	mov    %al,-0x4(%rbp)
    8c5c:	83 7d f8 1f          	cmpl   $0x1f,-0x8(%rbp)
    8c60:	77 25                	ja     8c87 <safe_lshift_func_uint8_t_u_u+0x3b>
    8c62:	0f b6 55 fc          	movzbl -0x4(%rbp),%edx
    8c66:	8b 45 f8             	mov    -0x8(%rbp),%eax
    8c69:	be ff 00 00 00       	mov    $0xff,%esi
    8c6e:	89 c1                	mov    %eax,%ecx
    8c70:	d3 fe                	sar    %cl,%esi
    8c72:	89 f0                	mov    %esi,%eax
    8c74:	39 c2                	cmp    %eax,%edx
    8c76:	7f 0f                	jg     8c87 <safe_lshift_func_uint8_t_u_u+0x3b>
    8c78:	0f b6 55 fc          	movzbl -0x4(%rbp),%edx
    8c7c:	8b 45 f8             	mov    -0x8(%rbp),%eax
    8c7f:	89 c1                	mov    %eax,%ecx
    8c81:	d3 e2                	shl    %cl,%edx
    8c83:	89 d0                	mov    %edx,%eax
    8c85:	eb 04                	jmp    8c8b <safe_lshift_func_uint8_t_u_u+0x3f>
    8c87:	0f b6 45 fc          	movzbl -0x4(%rbp),%eax
    8c8b:	5d                   	pop    %rbp
    8c8c:	c3                   	retq   

0000000000008c8d <safe_rshift_func_uint8_t_u_s>:
    8c8d:	f3 0f 1e fa          	endbr64 
    8c91:	55                   	push   %rbp
    8c92:	48 89 e5             	mov    %rsp,%rbp
    8c95:	89 f8                	mov    %edi,%eax
    8c97:	89 75 f8             	mov    %esi,-0x8(%rbp)
    8c9a:	88 45 fc             	mov    %al,-0x4(%rbp)
    8c9d:	83 7d f8 00          	cmpl   $0x0,-0x8(%rbp)
    8ca1:	78 15                	js     8cb8 <safe_rshift_func_uint8_t_u_s+0x2b>
    8ca3:	83 7d f8 1f          	cmpl   $0x1f,-0x8(%rbp)
    8ca7:	7f 0f                	jg     8cb8 <safe_rshift_func_uint8_t_u_s+0x2b>
    8ca9:	0f b6 55 fc          	movzbl -0x4(%rbp),%edx
    8cad:	8b 45 f8             	mov    -0x8(%rbp),%eax
    8cb0:	89 c1                	mov    %eax,%ecx
    8cb2:	d3 fa                	sar    %cl,%edx
    8cb4:	89 d0                	mov    %edx,%eax
    8cb6:	eb 04                	jmp    8cbc <safe_rshift_func_uint8_t_u_s+0x2f>
    8cb8:	0f b6 45 fc          	movzbl -0x4(%rbp),%eax
    8cbc:	5d                   	pop    %rbp
    8cbd:	c3                   	retq   

0000000000008cbe <safe_rshift_func_uint8_t_u_u>:
    8cbe:	f3 0f 1e fa          	endbr64 
    8cc2:	55                   	push   %rbp
    8cc3:	48 89 e5             	mov    %rsp,%rbp
    8cc6:	89 f8                	mov    %edi,%eax
    8cc8:	89 75 f8             	mov    %esi,-0x8(%rbp)
    8ccb:	88 45 fc             	mov    %al,-0x4(%rbp)
    8cce:	83 7d f8 1f          	cmpl   $0x1f,-0x8(%rbp)
    8cd2:	77 0f                	ja     8ce3 <safe_rshift_func_uint8_t_u_u+0x25>
    8cd4:	0f b6 55 fc          	movzbl -0x4(%rbp),%edx
    8cd8:	8b 45 f8             	mov    -0x8(%rbp),%eax
    8cdb:	89 c1                	mov    %eax,%ecx
    8cdd:	d3 fa                	sar    %cl,%edx
    8cdf:	89 d0                	mov    %edx,%eax
    8ce1:	eb 04                	jmp    8ce7 <safe_rshift_func_uint8_t_u_u+0x29>
    8ce3:	0f b6 45 fc          	movzbl -0x4(%rbp),%eax
    8ce7:	5d                   	pop    %rbp
    8ce8:	c3                   	retq   

0000000000008ce9 <safe_unary_minus_func_uint16_t_u>:
    8ce9:	f3 0f 1e fa          	endbr64 
    8ced:	55                   	push   %rbp
    8cee:	48 89 e5             	mov    %rsp,%rbp
    8cf1:	89 f8                	mov    %edi,%eax
    8cf3:	66 89 45 fc          	mov    %ax,-0x4(%rbp)
    8cf7:	0f b7 45 fc          	movzwl -0x4(%rbp),%eax
    8cfb:	f7 d8                	neg    %eax
    8cfd:	5d                   	pop    %rbp
    8cfe:	c3                   	retq   

0000000000008cff <safe_add_func_uint16_t_u_u>:
    8cff:	f3 0f 1e fa          	endbr64 
    8d03:	55                   	push   %rbp
    8d04:	48 89 e5             	mov    %rsp,%rbp
    8d07:	89 fa                	mov    %edi,%edx
    8d09:	89 f0                	mov    %esi,%eax
    8d0b:	66 89 55 fc          	mov    %dx,-0x4(%rbp)
    8d0f:	66 89 45 f8          	mov    %ax,-0x8(%rbp)
    8d13:	0f b7 55 fc          	movzwl -0x4(%rbp),%edx
    8d17:	0f b7 45 f8          	movzwl -0x8(%rbp),%eax
    8d1b:	01 d0                	add    %edx,%eax
    8d1d:	5d                   	pop    %rbp
    8d1e:	c3                   	retq   

0000000000008d1f <safe_sub_func_uint16_t_u_u>:
    8d1f:	f3 0f 1e fa          	endbr64 
    8d23:	55                   	push   %rbp
    8d24:	48 89 e5             	mov    %rsp,%rbp
    8d27:	89 fa                	mov    %edi,%edx
    8d29:	89 f0                	mov    %esi,%eax
    8d2b:	66 89 55 fc          	mov    %dx,-0x4(%rbp)
    8d2f:	66 89 45 f8          	mov    %ax,-0x8(%rbp)
    8d33:	0f b7 45 fc          	movzwl -0x4(%rbp),%eax
    8d37:	66 2b 45 f8          	sub    -0x8(%rbp),%ax
    8d3b:	5d                   	pop    %rbp
    8d3c:	c3                   	retq   

0000000000008d3d <safe_mul_func_uint16_t_u_u>:
    8d3d:	f3 0f 1e fa          	endbr64 
    8d41:	55                   	push   %rbp
    8d42:	48 89 e5             	mov    %rsp,%rbp
    8d45:	89 fa                	mov    %edi,%edx
    8d47:	89 f0                	mov    %esi,%eax
    8d49:	66 89 55 fc          	mov    %dx,-0x4(%rbp)
    8d4d:	66 89 45 f8          	mov    %ax,-0x8(%rbp)
    8d51:	0f b7 45 fc          	movzwl -0x4(%rbp),%eax
    8d55:	66 0f af 45 f8       	imul   -0x8(%rbp),%ax
    8d5a:	5d                   	pop    %rbp
    8d5b:	c3                   	retq   

0000000000008d5c <safe_mod_func_uint16_t_u_u>:
    8d5c:	f3 0f 1e fa          	endbr64 
    8d60:	55                   	push   %rbp
    8d61:	48 89 e5             	mov    %rsp,%rbp
    8d64:	89 fa                	mov    %edi,%edx
    8d66:	89 f0                	mov    %esi,%eax
    8d68:	66 89 55 fc          	mov    %dx,-0x4(%rbp)
    8d6c:	66 89 45 f8          	mov    %ax,-0x8(%rbp)
    8d70:	66 83 7d f8 00       	cmpw   $0x0,-0x8(%rbp)
    8d75:	74 11                	je     8d88 <safe_mod_func_uint16_t_u_u+0x2c>
    8d77:	0f b7 45 fc          	movzwl -0x4(%rbp),%eax
    8d7b:	ba 00 00 00 00       	mov    $0x0,%edx
    8d80:	66 f7 75 f8          	divw   -0x8(%rbp)
    8d84:	89 d0                	mov    %edx,%eax
    8d86:	eb 04                	jmp    8d8c <safe_mod_func_uint16_t_u_u+0x30>
    8d88:	0f b7 45 fc          	movzwl -0x4(%rbp),%eax
    8d8c:	5d                   	pop    %rbp
    8d8d:	c3                   	retq   

0000000000008d8e <safe_div_func_uint16_t_u_u>:
    8d8e:	f3 0f 1e fa          	endbr64 
    8d92:	55                   	push   %rbp
    8d93:	48 89 e5             	mov    %rsp,%rbp
    8d96:	89 fa                	mov    %edi,%edx
    8d98:	89 f0                	mov    %esi,%eax
    8d9a:	66 89 55 fc          	mov    %dx,-0x4(%rbp)
    8d9e:	66 89 45 f8          	mov    %ax,-0x8(%rbp)
    8da2:	66 83 7d f8 00       	cmpw   $0x0,-0x8(%rbp)
    8da7:	74 0f                	je     8db8 <safe_div_func_uint16_t_u_u+0x2a>
    8da9:	0f b7 45 fc          	movzwl -0x4(%rbp),%eax
    8dad:	ba 00 00 00 00       	mov    $0x0,%edx
    8db2:	66 f7 75 f8          	divw   -0x8(%rbp)
    8db6:	eb 04                	jmp    8dbc <safe_div_func_uint16_t_u_u+0x2e>
    8db8:	0f b7 45 fc          	movzwl -0x4(%rbp),%eax
    8dbc:	5d                   	pop    %rbp
    8dbd:	c3                   	retq   

0000000000008dbe <safe_lshift_func_uint16_t_u_s>:
    8dbe:	f3 0f 1e fa          	endbr64 
    8dc2:	55                   	push   %rbp
    8dc3:	48 89 e5             	mov    %rsp,%rbp
    8dc6:	89 f8                	mov    %edi,%eax
    8dc8:	89 75 f8             	mov    %esi,-0x8(%rbp)
    8dcb:	66 89 45 fc          	mov    %ax,-0x4(%rbp)
    8dcf:	83 7d f8 00          	cmpl   $0x0,-0x8(%rbp)
    8dd3:	78 2b                	js     8e00 <safe_lshift_func_uint16_t_u_s+0x42>
    8dd5:	83 7d f8 1f          	cmpl   $0x1f,-0x8(%rbp)
    8dd9:	7f 25                	jg     8e00 <safe_lshift_func_uint16_t_u_s+0x42>
    8ddb:	0f b7 55 fc          	movzwl -0x4(%rbp),%edx
    8ddf:	8b 45 f8             	mov    -0x8(%rbp),%eax
    8de2:	be ff ff 00 00       	mov    $0xffff,%esi
    8de7:	89 c1                	mov    %eax,%ecx
    8de9:	d3 fe                	sar    %cl,%esi
    8deb:	89 f0                	mov    %esi,%eax
    8ded:	39 c2                	cmp    %eax,%edx
    8def:	7f 0f                	jg     8e00 <safe_lshift_func_uint16_t_u_s+0x42>
    8df1:	0f b7 55 fc          	movzwl -0x4(%rbp),%edx
    8df5:	8b 45 f8             	mov    -0x8(%rbp),%eax
    8df8:	89 c1                	mov    %eax,%ecx
    8dfa:	d3 e2                	shl    %cl,%edx
    8dfc:	89 d0                	mov    %edx,%eax
    8dfe:	eb 04                	jmp    8e04 <safe_lshift_func_uint16_t_u_s+0x46>
    8e00:	0f b7 45 fc          	movzwl -0x4(%rbp),%eax
    8e04:	5d                   	pop    %rbp
    8e05:	c3                   	retq   

0000000000008e06 <safe_lshift_func_uint16_t_u_u>:
    8e06:	f3 0f 1e fa          	endbr64 
    8e0a:	55                   	push   %rbp
    8e0b:	48 89 e5             	mov    %rsp,%rbp
    8e0e:	89 f8                	mov    %edi,%eax
    8e10:	89 75 f8             	mov    %esi,-0x8(%rbp)
    8e13:	66 89 45 fc          	mov    %ax,-0x4(%rbp)
    8e17:	83 7d f8 1f          	cmpl   $0x1f,-0x8(%rbp)
    8e1b:	77 25                	ja     8e42 <safe_lshift_func_uint16_t_u_u+0x3c>
    8e1d:	0f b7 55 fc          	movzwl -0x4(%rbp),%edx
    8e21:	8b 45 f8             	mov    -0x8(%rbp),%eax
    8e24:	be ff ff 00 00       	mov    $0xffff,%esi
    8e29:	89 c1                	mov    %eax,%ecx
    8e2b:	d3 fe                	sar    %cl,%esi
    8e2d:	89 f0                	mov    %esi,%eax
    8e2f:	39 c2                	cmp    %eax,%edx
    8e31:	7f 0f                	jg     8e42 <safe_lshift_func_uint16_t_u_u+0x3c>
    8e33:	0f b7 55 fc          	movzwl -0x4(%rbp),%edx
    8e37:	8b 45 f8             	mov    -0x8(%rbp),%eax
    8e3a:	89 c1                	mov    %eax,%ecx
    8e3c:	d3 e2                	shl    %cl,%edx
    8e3e:	89 d0                	mov    %edx,%eax
    8e40:	eb 04                	jmp    8e46 <safe_lshift_func_uint16_t_u_u+0x40>
    8e42:	0f b7 45 fc          	movzwl -0x4(%rbp),%eax
    8e46:	5d                   	pop    %rbp
    8e47:	c3                   	retq   

0000000000008e48 <safe_rshift_func_uint16_t_u_s>:
    8e48:	f3 0f 1e fa          	endbr64 
    8e4c:	55                   	push   %rbp
    8e4d:	48 89 e5             	mov    %rsp,%rbp
    8e50:	89 f8                	mov    %edi,%eax
    8e52:	89 75 f8             	mov    %esi,-0x8(%rbp)
    8e55:	66 89 45 fc          	mov    %ax,-0x4(%rbp)
    8e59:	83 7d f8 00          	cmpl   $0x0,-0x8(%rbp)
    8e5d:	78 15                	js     8e74 <safe_rshift_func_uint16_t_u_s+0x2c>
    8e5f:	83 7d f8 1f          	cmpl   $0x1f,-0x8(%rbp)
    8e63:	7f 0f                	jg     8e74 <safe_rshift_func_uint16_t_u_s+0x2c>
    8e65:	0f b7 55 fc          	movzwl -0x4(%rbp),%edx
    8e69:	8b 45 f8             	mov    -0x8(%rbp),%eax
    8e6c:	89 c1                	mov    %eax,%ecx
    8e6e:	d3 fa                	sar    %cl,%edx
    8e70:	89 d0                	mov    %edx,%eax
    8e72:	eb 04                	jmp    8e78 <safe_rshift_func_uint16_t_u_s+0x30>
    8e74:	0f b7 45 fc          	movzwl -0x4(%rbp),%eax
    8e78:	5d                   	pop    %rbp
    8e79:	c3                   	retq   

0000000000008e7a <safe_rshift_func_uint16_t_u_u>:
    8e7a:	f3 0f 1e fa          	endbr64 
    8e7e:	55                   	push   %rbp
    8e7f:	48 89 e5             	mov    %rsp,%rbp
    8e82:	89 f8                	mov    %edi,%eax
    8e84:	89 75 f8             	mov    %esi,-0x8(%rbp)
    8e87:	66 89 45 fc          	mov    %ax,-0x4(%rbp)
    8e8b:	83 7d f8 1f          	cmpl   $0x1f,-0x8(%rbp)
    8e8f:	77 0f                	ja     8ea0 <safe_rshift_func_uint16_t_u_u+0x26>
    8e91:	0f b7 55 fc          	movzwl -0x4(%rbp),%edx
    8e95:	8b 45 f8             	mov    -0x8(%rbp),%eax
    8e98:	89 c1                	mov    %eax,%ecx
    8e9a:	d3 fa                	sar    %cl,%edx
    8e9c:	89 d0                	mov    %edx,%eax
    8e9e:	eb 04                	jmp    8ea4 <safe_rshift_func_uint16_t_u_u+0x2a>
    8ea0:	0f b7 45 fc          	movzwl -0x4(%rbp),%eax
    8ea4:	5d                   	pop    %rbp
    8ea5:	c3                   	retq   

0000000000008ea6 <safe_unary_minus_func_uint32_t_u>:
    8ea6:	f3 0f 1e fa          	endbr64 
    8eaa:	55                   	push   %rbp
    8eab:	48 89 e5             	mov    %rsp,%rbp
    8eae:	89 7d fc             	mov    %edi,-0x4(%rbp)
    8eb1:	8b 45 fc             	mov    -0x4(%rbp),%eax
    8eb4:	f7 d8                	neg    %eax
    8eb6:	5d                   	pop    %rbp
    8eb7:	c3                   	retq   

0000000000008eb8 <safe_add_func_uint32_t_u_u>:
    8eb8:	f3 0f 1e fa          	endbr64 
    8ebc:	55                   	push   %rbp
    8ebd:	48 89 e5             	mov    %rsp,%rbp
    8ec0:	89 7d fc             	mov    %edi,-0x4(%rbp)
    8ec3:	89 75 f8             	mov    %esi,-0x8(%rbp)
    8ec6:	8b 55 fc             	mov    -0x4(%rbp),%edx
    8ec9:	8b 45 f8             	mov    -0x8(%rbp),%eax
    8ecc:	01 d0                	add    %edx,%eax
    8ece:	5d                   	pop    %rbp
    8ecf:	c3                   	retq   

0000000000008ed0 <safe_sub_func_uint32_t_u_u>:
    8ed0:	f3 0f 1e fa          	endbr64 
    8ed4:	55                   	push   %rbp
    8ed5:	48 89 e5             	mov    %rsp,%rbp
    8ed8:	89 7d fc             	mov    %edi,-0x4(%rbp)
    8edb:	89 75 f8             	mov    %esi,-0x8(%rbp)
    8ede:	8b 45 fc             	mov    -0x4(%rbp),%eax
    8ee1:	2b 45 f8             	sub    -0x8(%rbp),%eax
    8ee4:	5d                   	pop    %rbp
    8ee5:	c3                   	retq   

0000000000008ee6 <safe_mul_func_uint32_t_u_u>:
    8ee6:	f3 0f 1e fa          	endbr64 
    8eea:	55                   	push   %rbp
    8eeb:	48 89 e5             	mov    %rsp,%rbp
    8eee:	89 7d fc             	mov    %edi,-0x4(%rbp)
    8ef1:	89 75 f8             	mov    %esi,-0x8(%rbp)
    8ef4:	8b 45 fc             	mov    -0x4(%rbp),%eax
    8ef7:	0f af 45 f8          	imul   -0x8(%rbp),%eax
    8efb:	5d                   	pop    %rbp
    8efc:	c3                   	retq   

0000000000008efd <safe_mod_func_uint32_t_u_u>:
    8efd:	f3 0f 1e fa          	endbr64 
    8f01:	55                   	push   %rbp
    8f02:	48 89 e5             	mov    %rsp,%rbp
    8f05:	89 7d fc             	mov    %edi,-0x4(%rbp)
    8f08:	89 75 f8             	mov    %esi,-0x8(%rbp)
    8f0b:	83 7d f8 00          	cmpl   $0x0,-0x8(%rbp)
    8f0f:	74 0f                	je     8f20 <safe_mod_func_uint32_t_u_u+0x23>
    8f11:	8b 45 fc             	mov    -0x4(%rbp),%eax
    8f14:	ba 00 00 00 00       	mov    $0x0,%edx
    8f19:	f7 75 f8             	divl   -0x8(%rbp)
    8f1c:	89 d0                	mov    %edx,%eax
    8f1e:	eb 03                	jmp    8f23 <safe_mod_func_uint32_t_u_u+0x26>
    8f20:	8b 45 fc             	mov    -0x4(%rbp),%eax
    8f23:	5d                   	pop    %rbp
    8f24:	c3                   	retq   

0000000000008f25 <safe_div_func_uint32_t_u_u>:
    8f25:	f3 0f 1e fa          	endbr64 
    8f29:	55                   	push   %rbp
    8f2a:	48 89 e5             	mov    %rsp,%rbp
    8f2d:	89 7d fc             	mov    %edi,-0x4(%rbp)
    8f30:	89 75 f8             	mov    %esi,-0x8(%rbp)
    8f33:	83 7d f8 00          	cmpl   $0x0,-0x8(%rbp)
    8f37:	74 0d                	je     8f46 <safe_div_func_uint32_t_u_u+0x21>
    8f39:	8b 45 fc             	mov    -0x4(%rbp),%eax
    8f3c:	ba 00 00 00 00       	mov    $0x0,%edx
    8f41:	f7 75 f8             	divl   -0x8(%rbp)
    8f44:	eb 03                	jmp    8f49 <safe_div_func_uint32_t_u_u+0x24>
    8f46:	8b 45 fc             	mov    -0x4(%rbp),%eax
    8f49:	5d                   	pop    %rbp
    8f4a:	c3                   	retq   

0000000000008f4b <safe_lshift_func_uint32_t_u_s>:
    8f4b:	f3 0f 1e fa          	endbr64 
    8f4f:	55                   	push   %rbp
    8f50:	48 89 e5             	mov    %rsp,%rbp
    8f53:	89 7d fc             	mov    %edi,-0x4(%rbp)
    8f56:	89 75 f8             	mov    %esi,-0x8(%rbp)
    8f59:	83 7d f8 00          	cmpl   $0x0,-0x8(%rbp)
    8f5d:	78 27                	js     8f86 <safe_lshift_func_uint32_t_u_s+0x3b>
    8f5f:	83 7d f8 1f          	cmpl   $0x1f,-0x8(%rbp)
    8f63:	7f 21                	jg     8f86 <safe_lshift_func_uint32_t_u_s+0x3b>
    8f65:	8b 45 f8             	mov    -0x8(%rbp),%eax
    8f68:	ba ff ff ff ff       	mov    $0xffffffff,%edx
    8f6d:	89 c1                	mov    %eax,%ecx
    8f6f:	d3 ea                	shr    %cl,%edx
    8f71:	89 d0                	mov    %edx,%eax
    8f73:	39 45 fc             	cmp    %eax,-0x4(%rbp)
    8f76:	77 0e                	ja     8f86 <safe_lshift_func_uint32_t_u_s+0x3b>
    8f78:	8b 45 f8             	mov    -0x8(%rbp),%eax
    8f7b:	8b 55 fc             	mov    -0x4(%rbp),%edx
    8f7e:	89 c1                	mov    %eax,%ecx
    8f80:	d3 e2                	shl    %cl,%edx
    8f82:	89 d0                	mov    %edx,%eax
    8f84:	eb 03                	jmp    8f89 <safe_lshift_func_uint32_t_u_s+0x3e>
    8f86:	8b 45 fc             	mov    -0x4(%rbp),%eax
    8f89:	5d                   	pop    %rbp
    8f8a:	c3                   	retq   

0000000000008f8b <safe_lshift_func_uint32_t_u_u>:
    8f8b:	f3 0f 1e fa          	endbr64 
    8f8f:	55                   	push   %rbp
    8f90:	48 89 e5             	mov    %rsp,%rbp
    8f93:	89 7d fc             	mov    %edi,-0x4(%rbp)
    8f96:	89 75 f8             	mov    %esi,-0x8(%rbp)
    8f99:	83 7d f8 1f          	cmpl   $0x1f,-0x8(%rbp)
    8f9d:	77 21                	ja     8fc0 <safe_lshift_func_uint32_t_u_u+0x35>
    8f9f:	8b 45 f8             	mov    -0x8(%rbp),%eax
    8fa2:	ba ff ff ff ff       	mov    $0xffffffff,%edx
    8fa7:	89 c1                	mov    %eax,%ecx
    8fa9:	d3 ea                	shr    %cl,%edx
    8fab:	89 d0                	mov    %edx,%eax
    8fad:	39 45 fc             	cmp    %eax,-0x4(%rbp)
    8fb0:	77 0e                	ja     8fc0 <safe_lshift_func_uint32_t_u_u+0x35>
    8fb2:	8b 45 f8             	mov    -0x8(%rbp),%eax
    8fb5:	8b 55 fc             	mov    -0x4(%rbp),%edx
    8fb8:	89 c1                	mov    %eax,%ecx
    8fba:	d3 e2                	shl    %cl,%edx
    8fbc:	89 d0                	mov    %edx,%eax
    8fbe:	eb 03                	jmp    8fc3 <safe_lshift_func_uint32_t_u_u+0x38>
    8fc0:	8b 45 fc             	mov    -0x4(%rbp),%eax
    8fc3:	5d                   	pop    %rbp
    8fc4:	c3                   	retq   

0000000000008fc5 <safe_rshift_func_uint32_t_u_s>:
    8fc5:	f3 0f 1e fa          	endbr64 
    8fc9:	55                   	push   %rbp
    8fca:	48 89 e5             	mov    %rsp,%rbp
    8fcd:	89 7d fc             	mov    %edi,-0x4(%rbp)
    8fd0:	89 75 f8             	mov    %esi,-0x8(%rbp)
    8fd3:	83 7d f8 00          	cmpl   $0x0,-0x8(%rbp)
    8fd7:	78 14                	js     8fed <safe_rshift_func_uint32_t_u_s+0x28>
    8fd9:	83 7d f8 1f          	cmpl   $0x1f,-0x8(%rbp)
    8fdd:	7f 0e                	jg     8fed <safe_rshift_func_uint32_t_u_s+0x28>
    8fdf:	8b 45 f8             	mov    -0x8(%rbp),%eax
    8fe2:	8b 55 fc             	mov    -0x4(%rbp),%edx
    8fe5:	89 c1                	mov    %eax,%ecx
    8fe7:	d3 ea                	shr    %cl,%edx
    8fe9:	89 d0                	mov    %edx,%eax
    8feb:	eb 03                	jmp    8ff0 <safe_rshift_func_uint32_t_u_s+0x2b>
    8fed:	8b 45 fc             	mov    -0x4(%rbp),%eax
    8ff0:	5d                   	pop    %rbp
    8ff1:	c3                   	retq   

0000000000008ff2 <safe_rshift_func_uint32_t_u_u>:
    8ff2:	f3 0f 1e fa          	endbr64 
    8ff6:	55                   	push   %rbp
    8ff7:	48 89 e5             	mov    %rsp,%rbp
    8ffa:	89 7d fc             	mov    %edi,-0x4(%rbp)
    8ffd:	89 75 f8             	mov    %esi,-0x8(%rbp)
    9000:	83 7d f8 1f          	cmpl   $0x1f,-0x8(%rbp)
    9004:	77 0e                	ja     9014 <safe_rshift_func_uint32_t_u_u+0x22>
    9006:	8b 45 f8             	mov    -0x8(%rbp),%eax
    9009:	8b 55 fc             	mov    -0x4(%rbp),%edx
    900c:	89 c1                	mov    %eax,%ecx
    900e:	d3 ea                	shr    %cl,%edx
    9010:	89 d0                	mov    %edx,%eax
    9012:	eb 03                	jmp    9017 <safe_rshift_func_uint32_t_u_u+0x25>
    9014:	8b 45 fc             	mov    -0x4(%rbp),%eax
    9017:	5d                   	pop    %rbp
    9018:	c3                   	retq   

0000000000009019 <safe_unary_minus_func_uint64_t_u>:
    9019:	f3 0f 1e fa          	endbr64 
    901d:	55                   	push   %rbp
    901e:	48 89 e5             	mov    %rsp,%rbp
    9021:	48 89 7d f8          	mov    %rdi,-0x8(%rbp)
    9025:	48 8b 45 f8          	mov    -0x8(%rbp),%rax
    9029:	48 f7 d8             	neg    %rax
    902c:	5d                   	pop    %rbp
    902d:	c3                   	retq   

000000000000902e <safe_add_func_uint64_t_u_u>:
    902e:	f3 0f 1e fa          	endbr64 
    9032:	55                   	push   %rbp
    9033:	48 89 e5             	mov    %rsp,%rbp
    9036:	48 89 7d f8          	mov    %rdi,-0x8(%rbp)
    903a:	48 89 75 f0          	mov    %rsi,-0x10(%rbp)
    903e:	48 8b 55 f8          	mov    -0x8(%rbp),%rdx
    9042:	48 8b 45 f0          	mov    -0x10(%rbp),%rax
    9046:	48 01 d0             	add    %rdx,%rax
    9049:	5d                   	pop    %rbp
    904a:	c3                   	retq   

000000000000904b <safe_sub_func_uint64_t_u_u>:
    904b:	f3 0f 1e fa          	endbr64 
    904f:	55                   	push   %rbp
    9050:	48 89 e5             	mov    %rsp,%rbp
    9053:	48 89 7d f8          	mov    %rdi,-0x8(%rbp)
    9057:	48 89 75 f0          	mov    %rsi,-0x10(%rbp)
    905b:	48 8b 45 f8          	mov    -0x8(%rbp),%rax
    905f:	48 2b 45 f0          	sub    -0x10(%rbp),%rax
    9063:	5d                   	pop    %rbp
    9064:	c3                   	retq   

0000000000009065 <safe_mul_func_uint64_t_u_u>:
    9065:	f3 0f 1e fa          	endbr64 
    9069:	55                   	push   %rbp
    906a:	48 89 e5             	mov    %rsp,%rbp
    906d:	48 89 7d f8          	mov    %rdi,-0x8(%rbp)
    9071:	48 89 75 f0          	mov    %rsi,-0x10(%rbp)
    9075:	48 8b 45 f8          	mov    -0x8(%rbp),%rax
    9079:	48 0f af 45 f0       	imul   -0x10(%rbp),%rax
    907e:	5d                   	pop    %rbp
    907f:	c3                   	retq   

0000000000009080 <safe_mod_func_uint64_t_u_u>:
    9080:	f3 0f 1e fa          	endbr64 
    9084:	55                   	push   %rbp
    9085:	48 89 e5             	mov    %rsp,%rbp
    9088:	48 89 7d f8          	mov    %rdi,-0x8(%rbp)
    908c:	48 89 75 f0          	mov    %rsi,-0x10(%rbp)
    9090:	48 83 7d f0 00       	cmpq   $0x0,-0x10(%rbp)
    9095:	74 12                	je     90a9 <safe_mod_func_uint64_t_u_u+0x29>
    9097:	48 8b 45 f8          	mov    -0x8(%rbp),%rax
    909b:	ba 00 00 00 00       	mov    $0x0,%edx
    90a0:	48 f7 75 f0          	divq   -0x10(%rbp)
    90a4:	48 89 d0             	mov    %rdx,%rax
    90a7:	eb 04                	jmp    90ad <safe_mod_func_uint64_t_u_u+0x2d>
    90a9:	48 8b 45 f8          	mov    -0x8(%rbp),%rax
    90ad:	5d                   	pop    %rbp
    90ae:	c3                   	retq   

00000000000090af <safe_div_func_uint64_t_u_u>:
    90af:	f3 0f 1e fa          	endbr64 
    90b3:	55                   	push   %rbp
    90b4:	48 89 e5             	mov    %rsp,%rbp
    90b7:	48 89 7d f8          	mov    %rdi,-0x8(%rbp)
    90bb:	48 89 75 f0          	mov    %rsi,-0x10(%rbp)
    90bf:	48 83 7d f0 00       	cmpq   $0x0,-0x10(%rbp)
    90c4:	74 0f                	je     90d5 <safe_div_func_uint64_t_u_u+0x26>
    90c6:	48 8b 45 f8          	mov    -0x8(%rbp),%rax
    90ca:	ba 00 00 00 00       	mov    $0x0,%edx
    90cf:	48 f7 75 f0          	divq   -0x10(%rbp)
    90d3:	eb 04                	jmp    90d9 <safe_div_func_uint64_t_u_u+0x2a>
    90d5:	48 8b 45 f8          	mov    -0x8(%rbp),%rax
    90d9:	5d                   	pop    %rbp
    90da:	c3                   	retq   

00000000000090db <safe_lshift_func_uint64_t_u_s>:
    90db:	f3 0f 1e fa          	endbr64 
    90df:	55                   	push   %rbp
    90e0:	48 89 e5             	mov    %rsp,%rbp
    90e3:	48 89 7d f8          	mov    %rdi,-0x8(%rbp)
    90e7:	89 75 f4             	mov    %esi,-0xc(%rbp)
    90ea:	83 7d f4 00          	cmpl   $0x0,-0xc(%rbp)
    90ee:	78 2f                	js     911f <safe_lshift_func_uint64_t_u_s+0x44>
    90f0:	83 7d f4 1f          	cmpl   $0x1f,-0xc(%rbp)
    90f4:	7f 29                	jg     911f <safe_lshift_func_uint64_t_u_s+0x44>
    90f6:	8b 45 f4             	mov    -0xc(%rbp),%eax
    90f9:	48 c7 c2 ff ff ff ff 	mov    $0xffffffffffffffff,%rdx
    9100:	89 c1                	mov    %eax,%ecx
    9102:	48 d3 ea             	shr    %cl,%rdx
    9105:	48 89 d0             	mov    %rdx,%rax
    9108:	48 39 45 f8          	cmp    %rax,-0x8(%rbp)
    910c:	77 11                	ja     911f <safe_lshift_func_uint64_t_u_s+0x44>
    910e:	8b 45 f4             	mov    -0xc(%rbp),%eax
    9111:	48 8b 55 f8          	mov    -0x8(%rbp),%rdx
    9115:	89 c1                	mov    %eax,%ecx
    9117:	48 d3 e2             	shl    %cl,%rdx
    911a:	48 89 d0             	mov    %rdx,%rax
    911d:	eb 04                	jmp    9123 <safe_lshift_func_uint64_t_u_s+0x48>
    911f:	48 8b 45 f8          	mov    -0x8(%rbp),%rax
    9123:	5d                   	pop    %rbp
    9124:	c3                   	retq   

0000000000009125 <safe_lshift_func_uint64_t_u_u>:
    9125:	f3 0f 1e fa          	endbr64 
    9129:	55                   	push   %rbp
    912a:	48 89 e5             	mov    %rsp,%rbp
    912d:	48 89 7d f8          	mov    %rdi,-0x8(%rbp)
    9131:	89 75 f4             	mov    %esi,-0xc(%rbp)
    9134:	83 7d f4 1f          	cmpl   $0x1f,-0xc(%rbp)
    9138:	77 29                	ja     9163 <safe_lshift_func_uint64_t_u_u+0x3e>
    913a:	8b 45 f4             	mov    -0xc(%rbp),%eax
    913d:	48 c7 c2 ff ff ff ff 	mov    $0xffffffffffffffff,%rdx
    9144:	89 c1                	mov    %eax,%ecx
    9146:	48 d3 ea             	shr    %cl,%rdx
    9149:	48 89 d0             	mov    %rdx,%rax
    914c:	48 39 45 f8          	cmp    %rax,-0x8(%rbp)
    9150:	77 11                	ja     9163 <safe_lshift_func_uint64_t_u_u+0x3e>
    9152:	8b 45 f4             	mov    -0xc(%rbp),%eax
    9155:	48 8b 55 f8          	mov    -0x8(%rbp),%rdx
    9159:	89 c1                	mov    %eax,%ecx
    915b:	48 d3 e2             	shl    %cl,%rdx
    915e:	48 89 d0             	mov    %rdx,%rax
    9161:	eb 04                	jmp    9167 <safe_lshift_func_uint64_t_u_u+0x42>
    9163:	48 8b 45 f8          	mov    -0x8(%rbp),%rax
    9167:	5d                   	pop    %rbp
    9168:	c3                   	retq   

0000000000009169 <safe_rshift_func_uint64_t_u_s>:
    9169:	f3 0f 1e fa          	endbr64 
    916d:	55                   	push   %rbp
    916e:	48 89 e5             	mov    %rsp,%rbp
    9171:	48 89 7d f8          	mov    %rdi,-0x8(%rbp)
    9175:	89 75 f4             	mov    %esi,-0xc(%rbp)
    9178:	83 7d f4 00          	cmpl   $0x0,-0xc(%rbp)
    917c:	78 17                	js     9195 <safe_rshift_func_uint64_t_u_s+0x2c>
    917e:	83 7d f4 1f          	cmpl   $0x1f,-0xc(%rbp)
    9182:	7f 11                	jg     9195 <safe_rshift_func_uint64_t_u_s+0x2c>
    9184:	8b 45 f4             	mov    -0xc(%rbp),%eax
    9187:	48 8b 55 f8          	mov    -0x8(%rbp),%rdx
    918b:	89 c1                	mov    %eax,%ecx
    918d:	48 d3 ea             	shr    %cl,%rdx
    9190:	48 89 d0             	mov    %rdx,%rax
    9193:	eb 04                	jmp    9199 <safe_rshift_func_uint64_t_u_s+0x30>
    9195:	48 8b 45 f8          	mov    -0x8(%rbp),%rax
    9199:	5d                   	pop    %rbp
    919a:	c3                   	retq   

000000000000919b <safe_rshift_func_uint64_t_u_u>:
    919b:	f3 0f 1e fa          	endbr64 
    919f:	55                   	push   %rbp
    91a0:	48 89 e5             	mov    %rsp,%rbp
    91a3:	48 89 7d f8          	mov    %rdi,-0x8(%rbp)
    91a7:	89 75 f4             	mov    %esi,-0xc(%rbp)
    91aa:	83 7d f4 1f          	cmpl   $0x1f,-0xc(%rbp)
    91ae:	77 11                	ja     91c1 <safe_rshift_func_uint64_t_u_u+0x26>
    91b0:	8b 45 f4             	mov    -0xc(%rbp),%eax
    91b3:	48 8b 55 f8          	mov    -0x8(%rbp),%rdx
    91b7:	89 c1                	mov    %eax,%ecx
    91b9:	48 d3 ea             	shr    %cl,%rdx
    91bc:	48 89 d0             	mov    %rdx,%rax
    91bf:	eb 04                	jmp    91c5 <safe_rshift_func_uint64_t_u_u+0x2a>
    91c1:	48 8b 45 f8          	mov    -0x8(%rbp),%rax
    91c5:	5d                   	pop    %rbp
    91c6:	c3                   	retq   

00000000000091c7 <safe_add_func_float_f_f>:
    91c7:	f3 0f 1e fa          	endbr64 
    91cb:	55                   	push   %rbp
    91cc:	48 89 e5             	mov    %rsp,%rbp
    91cf:	f3 0f 11 45 fc       	movss  %xmm0,-0x4(%rbp)
    91d4:	f3 0f 11 4d f8       	movss  %xmm1,-0x8(%rbp)
    91d9:	f3 0f 10 4d fc       	movss  -0x4(%rbp),%xmm1
    91de:	f3 0f 10 05 6e 0e 01 	movss  0x10e6e(%rip),%xmm0        # 1a054 <l_2488.4687+0x14>
    91e5:	00 
    91e6:	f3 0f 59 c8          	mulss  %xmm0,%xmm1
    91ea:	f3 0f 10 55 f8       	movss  -0x8(%rbp),%xmm2
    91ef:	f3 0f 10 05 5d 0e 01 	movss  0x10e5d(%rip),%xmm0        # 1a054 <l_2488.4687+0x14>
    91f6:	00 
    91f7:	f3 0f 59 c2          	mulss  %xmm2,%xmm0
    91fb:	f3 0f 58 c1          	addss  %xmm1,%xmm0
    91ff:	f3 0f 10 0d 59 0e 01 	movss  0x10e59(%rip),%xmm1        # 1a060 <l_2488.4687+0x20>
    9206:	00 
    9207:	0f 54 c1             	andps  %xmm1,%xmm0
    920a:	0f 2f 05 5f 0e 01 00 	comiss 0x10e5f(%rip),%xmm0        # 1a070 <l_2488.4687+0x30>
    9211:	76 07                	jbe    921a <safe_add_func_float_f_f+0x53>
    9213:	f3 0f 10 45 fc       	movss  -0x4(%rbp),%xmm0
    9218:	eb 0a                	jmp    9224 <safe_add_func_float_f_f+0x5d>
    921a:	f3 0f 10 45 fc       	movss  -0x4(%rbp),%xmm0
    921f:	f3 0f 58 45 f8       	addss  -0x8(%rbp),%xmm0
    9224:	5d                   	pop    %rbp
    9225:	c3                   	retq   

0000000000009226 <safe_sub_func_float_f_f>:
    9226:	f3 0f 1e fa          	endbr64 
    922a:	55                   	push   %rbp
    922b:	48 89 e5             	mov    %rsp,%rbp
    922e:	f3 0f 11 45 fc       	movss  %xmm0,-0x4(%rbp)
    9233:	f3 0f 11 4d f8       	movss  %xmm1,-0x8(%rbp)
    9238:	f3 0f 10 4d fc       	movss  -0x4(%rbp),%xmm1
    923d:	f3 0f 10 05 0f 0e 01 	movss  0x10e0f(%rip),%xmm0        # 1a054 <l_2488.4687+0x14>
    9244:	00 
    9245:	f3 0f 59 c1          	mulss  %xmm1,%xmm0
    9249:	f3 0f 10 55 f8       	movss  -0x8(%rbp),%xmm2
    924e:	f3 0f 10 0d fe 0d 01 	movss  0x10dfe(%rip),%xmm1        # 1a054 <l_2488.4687+0x14>
    9255:	00 
    9256:	f3 0f 59 ca          	mulss  %xmm2,%xmm1
    925a:	f3 0f 5c c1          	subss  %xmm1,%xmm0
    925e:	f3 0f 10 0d fa 0d 01 	movss  0x10dfa(%rip),%xmm1        # 1a060 <l_2488.4687+0x20>
    9265:	00 
    9266:	0f 54 c1             	andps  %xmm1,%xmm0
    9269:	0f 2f 05 00 0e 01 00 	comiss 0x10e00(%rip),%xmm0        # 1a070 <l_2488.4687+0x30>
    9270:	76 07                	jbe    9279 <safe_sub_func_float_f_f+0x53>
    9272:	f3 0f 10 45 fc       	movss  -0x4(%rbp),%xmm0
    9277:	eb 0a                	jmp    9283 <safe_sub_func_float_f_f+0x5d>
    9279:	f3 0f 10 45 fc       	movss  -0x4(%rbp),%xmm0
    927e:	f3 0f 5c 45 f8       	subss  -0x8(%rbp),%xmm0
    9283:	5d                   	pop    %rbp
    9284:	c3                   	retq   

0000000000009285 <safe_mul_func_float_f_f>:
    9285:	f3 0f 1e fa          	endbr64 
    9289:	55                   	push   %rbp
    928a:	48 89 e5             	mov    %rsp,%rbp
    928d:	f3 0f 11 45 fc       	movss  %xmm0,-0x4(%rbp)
    9292:	f3 0f 11 4d f8       	movss  %xmm1,-0x8(%rbp)
    9297:	f3 0f 10 4d fc       	movss  -0x4(%rbp),%xmm1
    929c:	f3 0f 10 05 d0 0d 01 	movss  0x10dd0(%rip),%xmm0        # 1a074 <l_2488.4687+0x34>
    92a3:	00 
    92a4:	f3 0f 59 c8          	mulss  %xmm0,%xmm1
    92a8:	f3 0f 10 55 f8       	movss  -0x8(%rbp),%xmm2
    92ad:	f3 0f 10 05 c3 0d 01 	movss  0x10dc3(%rip),%xmm0        # 1a078 <l_2488.4687+0x38>
    92b4:	00 
    92b5:	f3 0f 59 c2          	mulss  %xmm2,%xmm0
    92b9:	f3 0f 59 c1          	mulss  %xmm1,%xmm0
    92bd:	f3 0f 10 0d 9b 0d 01 	movss  0x10d9b(%rip),%xmm1        # 1a060 <l_2488.4687+0x20>
    92c4:	00 
    92c5:	0f 54 c1             	andps  %xmm1,%xmm0
    92c8:	0f 2f 05 ad 0d 01 00 	comiss 0x10dad(%rip),%xmm0        # 1a07c <l_2488.4687+0x3c>
    92cf:	76 07                	jbe    92d8 <safe_mul_func_float_f_f+0x53>
    92d1:	f3 0f 10 45 fc       	movss  -0x4(%rbp),%xmm0
    92d6:	eb 0a                	jmp    92e2 <safe_mul_func_float_f_f+0x5d>
    92d8:	f3 0f 10 45 fc       	movss  -0x4(%rbp),%xmm0
    92dd:	f3 0f 59 45 f8       	mulss  -0x8(%rbp),%xmm0
    92e2:	5d                   	pop    %rbp
    92e3:	c3                   	retq   

00000000000092e4 <safe_div_func_float_f_f>:
    92e4:	f3 0f 1e fa          	endbr64 
    92e8:	55                   	push   %rbp
    92e9:	48 89 e5             	mov    %rsp,%rbp
    92ec:	f3 0f 11 45 fc       	movss  %xmm0,-0x4(%rbp)
    92f1:	f3 0f 11 4d f8       	movss  %xmm1,-0x8(%rbp)
    92f6:	f3 0f 10 45 f8       	movss  -0x8(%rbp),%xmm0
    92fb:	f3 0f 10 0d 5d 0d 01 	movss  0x10d5d(%rip),%xmm1        # 1a060 <l_2488.4687+0x20>
    9302:	00 
    9303:	0f 54 c8             	andps  %xmm0,%xmm1
    9306:	f3 0f 10 05 72 0d 01 	movss  0x10d72(%rip),%xmm0        # 1a080 <l_2488.4687+0x40>
    930d:	00 
    930e:	0f 2f c1             	comiss %xmm1,%xmm0
    9311:	0f 97 c0             	seta   %al
    9314:	83 f0 01             	xor    $0x1,%eax
    9317:	84 c0                	test   %al,%al
    9319:	75 56                	jne    9371 <safe_div_func_float_f_f+0x8d>
    931b:	66 0f ef c0          	pxor   %xmm0,%xmm0
    931f:	0f 2e 45 f8          	ucomiss -0x8(%rbp),%xmm0
    9323:	7a 0a                	jp     932f <safe_div_func_float_f_f+0x4b>
    9325:	66 0f ef c0          	pxor   %xmm0,%xmm0
    9329:	0f 2e 45 f8          	ucomiss -0x8(%rbp),%xmm0
    932d:	74 4e                	je     937d <safe_div_func_float_f_f+0x99>
    932f:	f3 0f 10 4d fc       	movss  -0x4(%rbp),%xmm1
    9334:	f3 0f 10 05 48 0d 01 	movss  0x10d48(%rip),%xmm0        # 1a084 <l_2488.4687+0x44>
    933b:	00 
    933c:	f3 0f 59 c1          	mulss  %xmm1,%xmm0
    9340:	f3 0f 10 55 f8       	movss  -0x8(%rbp),%xmm2
    9345:	f3 0f 10 0d 3b 0d 01 	movss  0x10d3b(%rip),%xmm1        # 1a088 <l_2488.4687+0x48>
    934c:	00 
    934d:	f3 0f 59 ca          	mulss  %xmm2,%xmm1
    9351:	f3 0f 5e c1          	divss  %xmm1,%xmm0
    9355:	f3 0f 10 0d 03 0d 01 	movss  0x10d03(%rip),%xmm1        # 1a060 <l_2488.4687+0x20>
    935c:	00 
    935d:	0f 54 c1             	andps  %xmm1,%xmm0
    9360:	0f 2f 05 25 0d 01 00 	comiss 0x10d25(%rip),%xmm0        # 1a08c <l_2488.4687+0x4c>
    9367:	0f 97 c0             	seta   %al
    936a:	83 f0 01             	xor    $0x1,%eax
    936d:	84 c0                	test   %al,%al
    936f:	74 0c                	je     937d <safe_div_func_float_f_f+0x99>
    9371:	f3 0f 10 45 fc       	movss  -0x4(%rbp),%xmm0
    9376:	f3 0f 5e 45 f8       	divss  -0x8(%rbp),%xmm0
    937b:	eb 05                	jmp    9382 <safe_div_func_float_f_f+0x9e>
    937d:	f3 0f 10 45 fc       	movss  -0x4(%rbp),%xmm0
    9382:	5d                   	pop    %rbp
    9383:	c3                   	retq   

0000000000009384 <safe_add_func_double_f_f>:
    9384:	f3 0f 1e fa          	endbr64 
    9388:	55                   	push   %rbp
    9389:	48 89 e5             	mov    %rsp,%rbp
    938c:	f2 0f 11 45 f8       	movsd  %xmm0,-0x8(%rbp)
    9391:	f2 0f 11 4d f0       	movsd  %xmm1,-0x10(%rbp)
    9396:	f2 0f 10 4d f8       	movsd  -0x8(%rbp),%xmm1
    939b:	f2 0f 10 05 ed 0c 01 	movsd  0x10ced(%rip),%xmm0        # 1a090 <l_2488.4687+0x50>
    93a2:	00 
    93a3:	f2 0f 59 c8          	mulsd  %xmm0,%xmm1
    93a7:	f2 0f 10 55 f0       	movsd  -0x10(%rbp),%xmm2
    93ac:	f2 0f 10 05 dc 0c 01 	movsd  0x10cdc(%rip),%xmm0        # 1a090 <l_2488.4687+0x50>
    93b3:	00 
    93b4:	f2 0f 59 c2          	mulsd  %xmm2,%xmm0
    93b8:	f2 0f 58 c1          	addsd  %xmm1,%xmm0
    93bc:	f3 0f 7e 0d dc 0c 01 	movq   0x10cdc(%rip),%xmm1        # 1a0a0 <l_2488.4687+0x60>
    93c3:	00 
    93c4:	66 0f 54 c1          	andpd  %xmm1,%xmm0
    93c8:	66 0f 2f 05 e0 0c 01 	comisd 0x10ce0(%rip),%xmm0        # 1a0b0 <l_2488.4687+0x70>
    93cf:	00 
    93d0:	76 07                	jbe    93d9 <safe_add_func_double_f_f+0x55>
    93d2:	f2 0f 10 45 f8       	movsd  -0x8(%rbp),%xmm0
    93d7:	eb 0a                	jmp    93e3 <safe_add_func_double_f_f+0x5f>
    93d9:	f2 0f 10 45 f8       	movsd  -0x8(%rbp),%xmm0
    93de:	f2 0f 58 45 f0       	addsd  -0x10(%rbp),%xmm0
    93e3:	5d                   	pop    %rbp
    93e4:	c3                   	retq   

00000000000093e5 <safe_sub_func_double_f_f>:
    93e5:	f3 0f 1e fa          	endbr64 
    93e9:	55                   	push   %rbp
    93ea:	48 89 e5             	mov    %rsp,%rbp
    93ed:	f2 0f 11 45 f8       	movsd  %xmm0,-0x8(%rbp)
    93f2:	f2 0f 11 4d f0       	movsd  %xmm1,-0x10(%rbp)
    93f7:	f2 0f 10 4d f8       	movsd  -0x8(%rbp),%xmm1
    93fc:	f2 0f 10 05 8c 0c 01 	movsd  0x10c8c(%rip),%xmm0        # 1a090 <l_2488.4687+0x50>
    9403:	00 
    9404:	f2 0f 59 c1          	mulsd  %xmm1,%xmm0
    9408:	f2 0f 10 55 f0       	movsd  -0x10(%rbp),%xmm2
    940d:	f2 0f 10 0d 7b 0c 01 	movsd  0x10c7b(%rip),%xmm1        # 1a090 <l_2488.4687+0x50>
    9414:	00 
    9415:	f2 0f 59 ca          	mulsd  %xmm2,%xmm1
    9419:	f2 0f 5c c1          	subsd  %xmm1,%xmm0
    941d:	f3 0f 7e 0d 7b 0c 01 	movq   0x10c7b(%rip),%xmm1        # 1a0a0 <l_2488.4687+0x60>
    9424:	00 
    9425:	66 0f 54 c1          	andpd  %xmm1,%xmm0
    9429:	66 0f 2f 05 7f 0c 01 	comisd 0x10c7f(%rip),%xmm0        # 1a0b0 <l_2488.4687+0x70>
    9430:	00 
    9431:	76 07                	jbe    943a <safe_sub_func_double_f_f+0x55>
    9433:	f2 0f 10 45 f8       	movsd  -0x8(%rbp),%xmm0
    9438:	eb 0a                	jmp    9444 <safe_sub_func_double_f_f+0x5f>
    943a:	f2 0f 10 45 f8       	movsd  -0x8(%rbp),%xmm0
    943f:	f2 0f 5c 45 f0       	subsd  -0x10(%rbp),%xmm0
    9444:	5d                   	pop    %rbp
    9445:	c3                   	retq   

0000000000009446 <safe_mul_func_double_f_f>:
    9446:	f3 0f 1e fa          	endbr64 
    944a:	55                   	push   %rbp
    944b:	48 89 e5             	mov    %rsp,%rbp
    944e:	f2 0f 11 45 f8       	movsd  %xmm0,-0x8(%rbp)
    9453:	f2 0f 11 4d f0       	movsd  %xmm1,-0x10(%rbp)
    9458:	f2 0f 10 4d f8       	movsd  -0x8(%rbp),%xmm1
    945d:	f2 0f 10 05 53 0c 01 	movsd  0x10c53(%rip),%xmm0        # 1a0b8 <l_2488.4687+0x78>
    9464:	00 
    9465:	f2 0f 59 c8          	mulsd  %xmm0,%xmm1
    9469:	f2 0f 10 55 f0       	movsd  -0x10(%rbp),%xmm2
    946e:	f2 0f 10 05 4a 0c 01 	movsd  0x10c4a(%rip),%xmm0        # 1a0c0 <l_2488.4687+0x80>
    9475:	00 
    9476:	f2 0f 59 c2          	mulsd  %xmm2,%xmm0
    947a:	f2 0f 59 c1          	mulsd  %xmm1,%xmm0
    947e:	f3 0f 7e 0d 1a 0c 01 	movq   0x10c1a(%rip),%xmm1        # 1a0a0 <l_2488.4687+0x60>
    9485:	00 
    9486:	66 0f 54 c1          	andpd  %xmm1,%xmm0
    948a:	66 0f 2f 05 36 0c 01 	comisd 0x10c36(%rip),%xmm0        # 1a0c8 <l_2488.4687+0x88>
    9491:	00 
    9492:	76 07                	jbe    949b <safe_mul_func_double_f_f+0x55>
    9494:	f2 0f 10 45 f8       	movsd  -0x8(%rbp),%xmm0
    9499:	eb 0a                	jmp    94a5 <safe_mul_func_double_f_f+0x5f>
    949b:	f2 0f 10 45 f8       	movsd  -0x8(%rbp),%xmm0
    94a0:	f2 0f 59 45 f0       	mulsd  -0x10(%rbp),%xmm0
    94a5:	5d                   	pop    %rbp
    94a6:	c3                   	retq   

00000000000094a7 <safe_div_func_double_f_f>:
    94a7:	f3 0f 1e fa          	endbr64 
    94ab:	55                   	push   %rbp
    94ac:	48 89 e5             	mov    %rsp,%rbp
    94af:	f2 0f 11 45 f8       	movsd  %xmm0,-0x8(%rbp)
    94b4:	f2 0f 11 4d f0       	movsd  %xmm1,-0x10(%rbp)
    94b9:	f2 0f 10 45 f0       	movsd  -0x10(%rbp),%xmm0
    94be:	f3 0f 7e 0d da 0b 01 	movq   0x10bda(%rip),%xmm1        # 1a0a0 <l_2488.4687+0x60>
    94c5:	00 
    94c6:	66 0f 54 c8          	andpd  %xmm0,%xmm1
    94ca:	f2 0f 10 05 fe 0b 01 	movsd  0x10bfe(%rip),%xmm0        # 1a0d0 <l_2488.4687+0x90>
    94d1:	00 
    94d2:	66 0f 2f c1          	comisd %xmm1,%xmm0
    94d6:	0f 97 c0             	seta   %al
    94d9:	83 f0 01             	xor    $0x1,%eax
    94dc:	84 c0                	test   %al,%al
    94de:	75 5a                	jne    953a <safe_div_func_double_f_f+0x93>
    94e0:	66 0f ef c0          	pxor   %xmm0,%xmm0
    94e4:	66 0f 2e 45 f0       	ucomisd -0x10(%rbp),%xmm0
    94e9:	7a 0b                	jp     94f6 <safe_div_func_double_f_f+0x4f>
    94eb:	66 0f ef c0          	pxor   %xmm0,%xmm0
    94ef:	66 0f 2e 45 f0       	ucomisd -0x10(%rbp),%xmm0
    94f4:	74 50                	je     9546 <safe_div_func_double_f_f+0x9f>
    94f6:	f2 0f 10 4d f8       	movsd  -0x8(%rbp),%xmm1
    94fb:	f2 0f 10 05 d5 0b 01 	movsd  0x10bd5(%rip),%xmm0        # 1a0d8 <l_2488.4687+0x98>
    9502:	00 
    9503:	f2 0f 59 c1          	mulsd  %xmm1,%xmm0
    9507:	f2 0f 10 55 f0       	movsd  -0x10(%rbp),%xmm2
    950c:	f2 0f 10 0d cc 0b 01 	movsd  0x10bcc(%rip),%xmm1        # 1a0e0 <l_2488.4687+0xa0>
    9513:	00 
    9514:	f2 0f 59 ca          	mulsd  %xmm2,%xmm1
    9518:	f2 0f 5e c1          	divsd  %xmm1,%xmm0
    951c:	f3 0f 7e 0d 7c 0b 01 	movq   0x10b7c(%rip),%xmm1        # 1a0a0 <l_2488.4687+0x60>
    9523:	00 
    9524:	66 0f 54 c1          	andpd  %xmm1,%xmm0
    9528:	66 0f 2f 05 b8 0b 01 	comisd 0x10bb8(%rip),%xmm0        # 1a0e8 <l_2488.4687+0xa8>
    952f:	00 
    9530:	0f 97 c0             	seta   %al
    9533:	83 f0 01             	xor    $0x1,%eax
    9536:	84 c0                	test   %al,%al
    9538:	74 0c                	je     9546 <safe_div_func_double_f_f+0x9f>
    953a:	f2 0f 10 45 f8       	movsd  -0x8(%rbp),%xmm0
    953f:	f2 0f 5e 45 f0       	divsd  -0x10(%rbp),%xmm0
    9544:	eb 05                	jmp    954b <safe_div_func_double_f_f+0xa4>
    9546:	f2 0f 10 45 f8       	movsd  -0x8(%rbp),%xmm0
    954b:	5d                   	pop    %rbp
    954c:	c3                   	retq   

000000000000954d <safe_convert_func_float_to_int32_t>:
    954d:	f3 0f 1e fa          	endbr64 
    9551:	55                   	push   %rbp
    9552:	48 89 e5             	mov    %rsp,%rbp
    9555:	f3 0f 11 45 fc       	movss  %xmm0,-0x4(%rbp)
    955a:	f3 0f 10 05 8e 0b 01 	movss  0x10b8e(%rip),%xmm0        # 1a0f0 <l_2488.4687+0xb0>
    9561:	00 
    9562:	0f 2f 45 fc          	comiss -0x4(%rbp),%xmm0
    9566:	0f 93 c0             	setae  %al
    9569:	83 f0 01             	xor    $0x1,%eax
    956c:	84 c0                	test   %al,%al
    956e:	74 21                	je     9591 <safe_convert_func_float_to_int32_t+0x44>
    9570:	f3 0f 10 45 fc       	movss  -0x4(%rbp),%xmm0
    9575:	0f 2f 05 78 0b 01 00 	comiss 0x10b78(%rip),%xmm0        # 1a0f4 <l_2488.4687+0xb4>
    957c:	0f 93 c0             	setae  %al
    957f:	83 f0 01             	xor    $0x1,%eax
    9582:	84 c0                	test   %al,%al
    9584:	74 0b                	je     9591 <safe_convert_func_float_to_int32_t+0x44>
    9586:	f3 0f 10 45 fc       	movss  -0x4(%rbp),%xmm0
    958b:	f3 0f 2c c0          	cvttss2si %xmm0,%eax
    958f:	eb 05                	jmp    9596 <safe_convert_func_float_to_int32_t+0x49>
    9591:	b8 ff ff ff 7f       	mov    $0x7fffffff,%eax
    9596:	5d                   	pop    %rbp
    9597:	c3                   	retq   

0000000000009598 <crc32_gentab>:
    9598:	f3 0f 1e fa          	endbr64 
    959c:	55                   	push   %rbp
    959d:	48 89 e5             	mov    %rsp,%rbp
    95a0:	c7 45 fc 20 83 b8 ed 	movl   $0xedb88320,-0x4(%rbp)
    95a7:	c7 45 f4 00 00 00 00 	movl   $0x0,-0xc(%rbp)
    95ae:	eb 51                	jmp    9601 <crc32_gentab+0x69>
    95b0:	8b 45 f4             	mov    -0xc(%rbp),%eax
    95b3:	89 45 f0             	mov    %eax,-0x10(%rbp)
    95b6:	c7 45 f8 08 00 00 00 	movl   $0x8,-0x8(%rbp)
    95bd:	eb 1e                	jmp    95dd <crc32_gentab+0x45>
    95bf:	8b 45 f0             	mov    -0x10(%rbp),%eax
    95c2:	83 e0 01             	and    $0x1,%eax
    95c5:	85 c0                	test   %eax,%eax
    95c7:	74 0d                	je     95d6 <crc32_gentab+0x3e>
    95c9:	8b 45 f0             	mov    -0x10(%rbp),%eax
    95cc:	d1 e8                	shr    %eax
    95ce:	33 45 fc             	xor    -0x4(%rbp),%eax
    95d1:	89 45 f0             	mov    %eax,-0x10(%rbp)
    95d4:	eb 03                	jmp    95d9 <crc32_gentab+0x41>
    95d6:	d1 6d f0             	shrl   -0x10(%rbp)
    95d9:	83 6d f8 01          	subl   $0x1,-0x8(%rbp)
    95dd:	83 7d f8 00          	cmpl   $0x0,-0x8(%rbp)
    95e1:	7f dc                	jg     95bf <crc32_gentab+0x27>
    95e3:	8b 45 f4             	mov    -0xc(%rbp),%eax
    95e6:	48 98                	cltq   
    95e8:	48 8d 0c 85 00 00 00 	lea    0x0(,%rax,4),%rcx
    95ef:	00 
    95f0:	48 8d 15 c9 bb 01 00 	lea    0x1bbc9(%rip),%rdx        # 251c0 <crc32_tab>
    95f7:	8b 45 f0             	mov    -0x10(%rbp),%eax
    95fa:	89 04 11             	mov    %eax,(%rcx,%rdx,1)
    95fd:	83 45 f4 01          	addl   $0x1,-0xc(%rbp)
    9601:	81 7d f4 ff 00 00 00 	cmpl   $0xff,-0xc(%rbp)
    9608:	7e a6                	jle    95b0 <crc32_gentab+0x18>
    960a:	90                   	nop
    960b:	90                   	nop
    960c:	5d                   	pop    %rbp
    960d:	c3                   	retq   

000000000000960e <crc32_byte>:
    960e:	f3 0f 1e fa          	endbr64 
    9612:	55                   	push   %rbp
    9613:	48 89 e5             	mov    %rsp,%rbp
    9616:	89 f8                	mov    %edi,%eax
    9618:	88 45 fc             	mov    %al,-0x4(%rbp)
    961b:	8b 05 ff 39 01 00    	mov    0x139ff(%rip),%eax        # 1d020 <crc32_context>
    9621:	c1 e8 08             	shr    $0x8,%eax
    9624:	89 c1                	mov    %eax,%ecx
    9626:	0f b6 55 fc          	movzbl -0x4(%rbp),%edx
    962a:	8b 05 f0 39 01 00    	mov    0x139f0(%rip),%eax        # 1d020 <crc32_context>
    9630:	31 d0                	xor    %edx,%eax
    9632:	0f b6 c0             	movzbl %al,%eax
    9635:	89 c0                	mov    %eax,%eax
    9637:	48 8d 14 85 00 00 00 	lea    0x0(,%rax,4),%rdx
    963e:	00 
    963f:	48 8d 05 7a bb 01 00 	lea    0x1bb7a(%rip),%rax        # 251c0 <crc32_tab>
    9646:	8b 04 02             	mov    (%rdx,%rax,1),%eax
    9649:	31 c8                	xor    %ecx,%eax
    964b:	89 05 cf 39 01 00    	mov    %eax,0x139cf(%rip)        # 1d020 <crc32_context>
    9651:	90                   	nop
    9652:	5d                   	pop    %rbp
    9653:	c3                   	retq   

0000000000009654 <crc32_8bytes>:
    9654:	f3 0f 1e fa          	endbr64 
    9658:	55                   	push   %rbp
    9659:	48 89 e5             	mov    %rsp,%rbp
    965c:	48 83 ec 08          	sub    $0x8,%rsp
    9660:	48 89 7d f8          	mov    %rdi,-0x8(%rbp)
    9664:	48 8b 45 f8          	mov    -0x8(%rbp),%rax
    9668:	0f b6 c0             	movzbl %al,%eax
    966b:	89 c7                	mov    %eax,%edi
    966d:	e8 9c ff ff ff       	callq  960e <crc32_byte>
    9672:	48 8b 45 f8          	mov    -0x8(%rbp),%rax
    9676:	48 c1 e8 08          	shr    $0x8,%rax
    967a:	0f b6 c0             	movzbl %al,%eax
    967d:	89 c7                	mov    %eax,%edi
    967f:	e8 8a ff ff ff       	callq  960e <crc32_byte>
    9684:	48 8b 45 f8          	mov    -0x8(%rbp),%rax
    9688:	48 c1 e8 10          	shr    $0x10,%rax
    968c:	0f b6 c0             	movzbl %al,%eax
    968f:	89 c7                	mov    %eax,%edi
    9691:	e8 78 ff ff ff       	callq  960e <crc32_byte>
    9696:	48 8b 45 f8          	mov    -0x8(%rbp),%rax
    969a:	48 c1 e8 18          	shr    $0x18,%rax
    969e:	0f b6 c0             	movzbl %al,%eax
    96a1:	89 c7                	mov    %eax,%edi
    96a3:	e8 66 ff ff ff       	callq  960e <crc32_byte>
    96a8:	48 8b 45 f8          	mov    -0x8(%rbp),%rax
    96ac:	48 c1 e8 20          	shr    $0x20,%rax
    96b0:	0f b6 c0             	movzbl %al,%eax
    96b3:	89 c7                	mov    %eax,%edi
    96b5:	e8 54 ff ff ff       	callq  960e <crc32_byte>
    96ba:	48 8b 45 f8          	mov    -0x8(%rbp),%rax
    96be:	48 c1 e8 28          	shr    $0x28,%rax
    96c2:	0f b6 c0             	movzbl %al,%eax
    96c5:	89 c7                	mov    %eax,%edi
    96c7:	e8 42 ff ff ff       	callq  960e <crc32_byte>
    96cc:	48 8b 45 f8          	mov    -0x8(%rbp),%rax
    96d0:	48 c1 e8 30          	shr    $0x30,%rax
    96d4:	0f b6 c0             	movzbl %al,%eax
    96d7:	89 c7                	mov    %eax,%edi
    96d9:	e8 30 ff ff ff       	callq  960e <crc32_byte>
    96de:	48 8b 45 f8          	mov    -0x8(%rbp),%rax
    96e2:	48 c1 e8 38          	shr    $0x38,%rax
    96e6:	0f b6 c0             	movzbl %al,%eax
    96e9:	89 c7                	mov    %eax,%edi
    96eb:	e8 1e ff ff ff       	callq  960e <crc32_byte>
    96f0:	90                   	nop
    96f1:	c9                   	leaveq 
    96f2:	c3                   	retq   

00000000000096f3 <transparent_crc>:
    96f3:	f3 0f 1e fa          	endbr64 
    96f7:	55                   	push   %rbp
    96f8:	48 89 e5             	mov    %rsp,%rbp
    96fb:	48 83 ec 20          	sub    $0x20,%rsp
    96ff:	48 89 7d f8          	mov    %rdi,-0x8(%rbp)
    9703:	48 89 75 f0          	mov    %rsi,-0x10(%rbp)
    9707:	89 55 ec             	mov    %edx,-0x14(%rbp)
    970a:	48 8b 45 f8          	mov    -0x8(%rbp),%rax
    970e:	48 89 c7             	mov    %rax,%rdi
    9711:	e8 3e ff ff ff       	callq  9654 <crc32_8bytes>
    9716:	83 7d ec 00          	cmpl   $0x0,-0x14(%rbp)
    971a:	74 22                	je     973e <transparent_crc+0x4b>
    971c:	8b 05 fe 38 01 00    	mov    0x138fe(%rip),%eax        # 1d020 <crc32_context>
    9722:	f7 d0                	not    %eax
    9724:	89 c2                	mov    %eax,%edx
    9726:	48 8b 45 f0          	mov    -0x10(%rbp),%rax
    972a:	48 89 c6             	mov    %rax,%rsi
    972d:	48 8d 3d fc e8 00 00 	lea    0xe8fc(%rip),%rdi        # 18030 <_IO_stdin_used+0x30>
    9734:	b8 00 00 00 00       	mov    $0x0,%eax
    9739:	e8 42 e9 ff ff       	callq  8080 <printf@plt>
    973e:	90                   	nop
    973f:	c9                   	leaveq 
    9740:	c3                   	retq   

0000000000009741 <transparent_crc_bytes>:
    9741:	f3 0f 1e fa          	endbr64 
    9745:	55                   	push   %rbp
    9746:	48 89 e5             	mov    %rsp,%rbp
    9749:	48 83 ec 30          	sub    $0x30,%rsp
    974d:	48 89 7d e8          	mov    %rdi,-0x18(%rbp)
    9751:	89 75 e4             	mov    %esi,-0x1c(%rbp)
    9754:	48 89 55 d8          	mov    %rdx,-0x28(%rbp)
    9758:	89 4d e0             	mov    %ecx,-0x20(%rbp)
    975b:	c7 45 fc 00 00 00 00 	movl   $0x0,-0x4(%rbp)
    9762:	eb 1e                	jmp    9782 <transparent_crc_bytes+0x41>
    9764:	8b 45 fc             	mov    -0x4(%rbp),%eax
    9767:	48 63 d0             	movslq %eax,%rdx
    976a:	48 8b 45 e8          	mov    -0x18(%rbp),%rax
    976e:	48 01 d0             	add    %rdx,%rax
    9771:	0f b6 00             	movzbl (%rax),%eax
    9774:	0f b6 c0             	movzbl %al,%eax
    9777:	89 c7                	mov    %eax,%edi
    9779:	e8 90 fe ff ff       	callq  960e <crc32_byte>
    977e:	83 45 fc 01          	addl   $0x1,-0x4(%rbp)
    9782:	8b 45 fc             	mov    -0x4(%rbp),%eax
    9785:	3b 45 e4             	cmp    -0x1c(%rbp),%eax
    9788:	7c da                	jl     9764 <transparent_crc_bytes+0x23>
    978a:	83 7d e0 00          	cmpl   $0x0,-0x20(%rbp)
    978e:	74 22                	je     97b2 <transparent_crc_bytes+0x71>
    9790:	8b 05 8a 38 01 00    	mov    0x1388a(%rip),%eax        # 1d020 <crc32_context>
    9796:	f7 d0                	not    %eax
    9798:	89 c2                	mov    %eax,%edx
    979a:	48 8b 45 d8          	mov    -0x28(%rbp),%rax
    979e:	48 89 c6             	mov    %rax,%rsi
    97a1:	48 8d 3d 88 e8 00 00 	lea    0xe888(%rip),%rdi        # 18030 <_IO_stdin_used+0x30>
    97a8:	b8 00 00 00 00       	mov    $0x0,%eax
    97ad:	e8 ce e8 ff ff       	callq  8080 <printf@plt>
    97b2:	90                   	nop
    97b3:	c9                   	leaveq 
    97b4:	c3                   	retq   

00000000000097b5 <func_1>:
    97b5:	f3 0f 1e fa          	endbr64 
    97b9:	55                   	push   %rbp
    97ba:	48 89 e5             	mov    %rsp,%rbp
    97bd:	53                   	push   %rbx
    97be:	48 81 ec 28 01 00 00 	sub    $0x128,%rsp
    97c5:	48 89 bd d8 fe ff ff 	mov    %rdi,-0x128(%rbp)
    97cc:	64 48 8b 04 25 28 00 	mov    %fs:0x28,%rax
    97d3:	00 00 
    97d5:	48 89 45 e8          	mov    %rax,-0x18(%rbp)
    97d9:	31 c0                	xor    %eax,%eax
    97db:	c7 85 e4 fe ff ff 81 	movl   $0xb6ce1a81,-0x11c(%rbp)
    97e2:	1a ce b6 
    97e5:	48 c7 85 e8 fe ff ff 	movq   $0x0,-0x118(%rbp)
    97ec:	00 00 00 00 
    97f0:	48 8d 05 37 38 01 00 	lea    0x13837(%rip),%rax        # 1d02e <g_29+0x6>
    97f7:	48 89 85 f0 fe ff ff 	mov    %rax,-0x110(%rbp)
    97fe:	48 8d 05 03 82 01 00 	lea    0x18203(%rip),%rax        # 21a08 <g_1971>
    9805:	48 89 85 f8 fe ff ff 	mov    %rax,-0x108(%rbp)
    980c:	48 b8 55 2c 49 4c ac 	movabs $0x7322a8ac4c492c55,%rax
    9813:	a8 22 73 
    9816:	48 89 85 00 ff ff ff 	mov    %rax,-0x100(%rbp)
    981d:	48 89 85 08 ff ff ff 	mov    %rax,-0xf8(%rbp)
    9824:	48 89 85 10 ff ff ff 	mov    %rax,-0xf0(%rbp)
    982b:	48 89 85 18 ff ff ff 	mov    %rax,-0xe8(%rbp)
    9832:	48 89 85 20 ff ff ff 	mov    %rax,-0xe0(%rbp)
    9839:	48 89 85 28 ff ff ff 	mov    %rax,-0xd8(%rbp)
    9840:	48 89 85 30 ff ff ff 	mov    %rax,-0xd0(%rbp)
    9847:	48 89 85 38 ff ff ff 	mov    %rax,-0xc8(%rbp)
    984e:	c6 85 e3 fe ff ff 01 	movb   $0x1,-0x11d(%rbp)
    9855:	48 b8 a8 54 26 a0 41 	movabs $0xf21dbf41a02654a8,%rax
    985c:	bf 1d f2 
    985f:	48 89 85 40 ff ff ff 	mov    %rax,-0xc0(%rbp)
    9866:	48 c7 85 48 ff ff ff 	movq   $0x0,-0xb8(%rbp)
    986d:	00 00 00 00 
    9871:	48 c7 85 50 ff ff ff 	movq   $0x1,-0xb0(%rbp)
    9878:	01 00 00 00 
    987c:	48 c7 85 58 ff ff ff 	movq   $0x1,-0xa8(%rbp)
    9883:	01 00 00 00 
    9887:	48 c7 85 60 ff ff ff 	movq   $0x0,-0xa0(%rbp)
    988e:	00 00 00 00 
    9892:	48 89 85 68 ff ff ff 	mov    %rax,-0x98(%rbp)
    9899:	48 c7 85 70 ff ff ff 	movq   $0x0,-0x90(%rbp)
    98a0:	00 00 00 00 
    98a4:	48 c7 85 78 ff ff ff 	movq   $0x1,-0x88(%rbp)
    98ab:	01 00 00 00 
    98af:	48 c7 45 80 01 00 00 	movq   $0x1,-0x80(%rbp)
    98b6:	00 
    98b7:	48 c7 45 88 00 00 00 	movq   $0x0,-0x78(%rbp)
    98be:	00 
    98bf:	48 89 45 90          	mov    %rax,-0x70(%rbp)
    98c3:	48 c7 45 98 00 00 00 	movq   $0x0,-0x68(%rbp)
    98ca:	00 
    98cb:	48 c7 45 a0 01 00 00 	movq   $0x1,-0x60(%rbp)
    98d2:	00 
    98d3:	48 c7 45 a8 01 00 00 	movq   $0x1,-0x58(%rbp)
    98da:	00 
    98db:	48 c7 45 b0 00 00 00 	movq   $0x0,-0x50(%rbp)
    98e2:	00 
    98e3:	48 89 45 b8          	mov    %rax,-0x48(%rbp)
    98e7:	48 c7 45 c0 00 00 00 	movq   $0x0,-0x40(%rbp)
    98ee:	00 
    98ef:	48 c7 45 c8 01 00 00 	movq   $0x1,-0x38(%rbp)
    98f6:	00 
    98f7:	48 c7 45 d0 01 00 00 	movq   $0x1,-0x30(%rbp)
    98fe:	00 
    98ff:	48 c7 45 d8 00 00 00 	movq   $0x0,-0x28(%rbp)
    9906:	00 
    9907:	48 8b 15 62 97 01 00 	mov    0x19762(%rip),%rdx        # 23070 <g_491>
    990e:	48 8b 85 d8 fe ff ff 	mov    -0x128(%rbp),%rax
    9915:	48 8b 0a             	mov    (%rdx),%rcx
    9918:	48 8b 5a 08          	mov    0x8(%rdx),%rbx
    991c:	48 89 08             	mov    %rcx,(%rax)
    991f:	48 89 58 08          	mov    %rbx,0x8(%rax)
    9923:	48 8b 4a 10          	mov    0x10(%rdx),%rcx
    9927:	48 8b 5a 18          	mov    0x18(%rdx),%rbx
    992b:	48 89 48 10          	mov    %rcx,0x10(%rax)
    992f:	48 89 58 18          	mov    %rbx,0x18(%rax)
    9933:	48 8b 52 20          	mov    0x20(%rdx),%rdx
    9937:	48 89 50 20          	mov    %rdx,0x20(%rax)
    993b:	48 8b 45 e8          	mov    -0x18(%rbp),%rax
    993f:	64 48 33 04 25 28 00 	xor    %fs:0x28,%rax
    9946:	00 00 
    9948:	74 05                	je     994f <func_1+0x19a>
    994a:	e8 21 e7 ff ff       	callq  8070 <__stack_chk_fail@plt>
    994f:	48 8b 85 d8 fe ff ff 	mov    -0x128(%rbp),%rax
    9956:	48 81 c4 28 01 00 00 	add    $0x128,%rsp
    995d:	5b                   	pop    %rbx
    995e:	5d                   	pop    %rbp
    995f:	c3                   	retq   

0000000000009960 <func_2>:
    9960:	f3 0f 1e fa          	endbr64 
    9964:	55                   	push   %rbp
    9965:	48 89 e5             	mov    %rsp,%rbp
    9968:	41 57                	push   %r15
    996a:	41 56                	push   %r14
    996c:	41 55                	push   %r13
    996e:	41 54                	push   %r12
    9970:	53                   	push   %rbx
    9971:	48 81 ec 00 10 00 00 	sub    $0x1000,%rsp
    9978:	48 83 0c 24 00       	orq    $0x0,(%rsp)
    997d:	48 81 ec 58 08 00 00 	sub    $0x858,%rsp
    9984:	89 bd 9c e7 ff ff    	mov    %edi,-0x1864(%rbp)
    998a:	89 f0                	mov    %esi,%eax
    998c:	89 95 94 e7 ff ff    	mov    %edx,-0x186c(%rbp)
    9992:	48 89 8d 88 e7 ff ff 	mov    %rcx,-0x1878(%rbp)
    9999:	4c 89 85 80 e7 ff ff 	mov    %r8,-0x1880(%rbp)
    99a0:	88 85 98 e7 ff ff    	mov    %al,-0x1868(%rbp)
    99a6:	64 48 8b 04 25 28 00 	mov    %fs:0x28,%rax
    99ad:	00 00 
    99af:	48 89 45 c8          	mov    %rax,-0x38(%rbp)
    99b3:	31 c0                	xor    %eax,%eax
    99b5:	66 c7 85 b8 e7 ff ff 	movw   $0x1,-0x1848(%rbp)
    99bc:	01 00 
    99be:	c7 85 c4 e7 ff ff a3 	movl   $0x77a97ea3,-0x183c(%rbp)
    99c5:	7e a9 77 
    99c8:	48 c7 85 48 e8 ff ff 	movq   $0x0,-0x17b8(%rbp)
    99cf:	00 00 00 00 
    99d3:	48 8d 85 48 e8 ff ff 	lea    -0x17b8(%rbp),%rax
    99da:	48 89 85 50 e8 ff ff 	mov    %rax,-0x17b0(%rbp)
    99e1:	48 8d 85 50 e8 ff ff 	lea    -0x17b0(%rbp),%rax
    99e8:	48 89 85 58 e8 ff ff 	mov    %rax,-0x17a8(%rbp)
    99ef:	48 8d 85 58 e8 ff ff 	lea    -0x17a8(%rbp),%rax
    99f6:	48 89 85 98 e8 ff ff 	mov    %rax,-0x1768(%rbp)
    99fd:	c7 85 00 e8 ff ff c5 	movl   $0xfc196ac5,-0x1800(%rbp)
    9a04:	6a 19 fc 
    9a07:	c7 85 c8 e7 ff ff 00 	movl   $0x0,-0x1838(%rbp)
    9a0e:	00 00 00 
    9a11:	c7 85 04 e8 ff ff 67 	movl   $0xaa5e8267,-0x17fc(%rbp)
    9a18:	82 5e aa 
    9a1b:	c7 85 08 e8 ff ff 1a 	movl   $0x13f6d11a,-0x17f8(%rbp)
    9a22:	d1 f6 13 
    9a25:	c7 85 90 ea ff ff d7 	movl   $0x16bcecd7,-0x1570(%rbp)
    9a2c:	ec bc 16 
    9a2f:	c7 85 94 ea ff ff 35 	movl   $0x8eeab735,-0x156c(%rbp)
    9a36:	b7 ea 8e 
    9a39:	c7 85 98 ea ff ff d7 	movl   $0x16bcecd7,-0x1568(%rbp)
    9a40:	ec bc 16 
    9a43:	c7 85 9c ea ff ff d7 	movl   $0x16bcecd7,-0x1564(%rbp)
    9a4a:	ec bc 16 
    9a4d:	c7 85 a0 ea ff ff 35 	movl   $0x8eeab735,-0x1560(%rbp)
    9a54:	b7 ea 8e 
    9a57:	c7 85 a4 ea ff ff d7 	movl   $0x16bcecd7,-0x155c(%rbp)
    9a5e:	ec bc 16 
    9a61:	c7 85 a8 ea ff ff d7 	movl   $0x16bcecd7,-0x1558(%rbp)
    9a68:	ec bc 16 
    9a6b:	c7 85 ac ea ff ff 35 	movl   $0x8eeab735,-0x1554(%rbp)
    9a72:	b7 ea 8e 
    9a75:	c7 85 b0 ea ff ff d7 	movl   $0x16bcecd7,-0x1550(%rbp)
    9a7c:	ec bc 16 
    9a7f:	c6 85 ae e7 ff ff 4a 	movb   $0x4a,-0x1852(%rbp)
    9a86:	66 c7 85 20 ea ff ff 	movw   $0x7575,-0x15e0(%rbp)
    9a8d:	75 75 
    9a8f:	66 c7 85 22 ea ff ff 	movw   $0x8edb,-0x15de(%rbp)
    9a96:	db 8e 
    9a98:	66 c7 85 24 ea ff ff 	movw   $0x7575,-0x15dc(%rbp)
    9a9f:	75 75 
    9aa1:	66 c7 85 26 ea ff ff 	movw   $0x8edb,-0x15da(%rbp)
    9aa8:	db 8e 
    9aaa:	66 c7 85 28 ea ff ff 	movw   $0x7575,-0x15d8(%rbp)
    9ab1:	75 75 
    9ab3:	66 c7 85 2a ea ff ff 	movw   $0x8edb,-0x15d6(%rbp)
    9aba:	db 8e 
    9abc:	66 c7 85 2c ea ff ff 	movw   $0x7575,-0x15d4(%rbp)
    9ac3:	75 75 
    9ac5:	66 c7 85 2e ea ff ff 	movw   $0x8edb,-0x15d2(%rbp)
    9acc:	db 8e 
    9ace:	48 c7 85 60 e8 ff ff 	movq   $0x0,-0x17a0(%rbp)
    9ad5:	00 00 00 00 
    9ad9:	48 8d 85 60 e8 ff ff 	lea    -0x17a0(%rbp),%rax
    9ae0:	48 89 85 a0 e8 ff ff 	mov    %rax,-0x1760(%rbp)
    9ae7:	66 c7 85 ba e7 ff ff 	movw   $0x0,-0x1846(%rbp)
    9aee:	00 00 
    9af0:	c7 85 0c e8 ff ff 5a 	movl   $0xb6033e5a,-0x17f4(%rbp)
    9af7:	3e 03 b6 
    9afa:	66 c7 85 bc e7 ff ff 	movw   $0x7fc4,-0x1844(%rbp)
    9b01:	c4 7f 
    9b03:	c7 85 10 e8 ff ff f9 	movl   $0xfffffff9,-0x17f0(%rbp)
    9b0a:	ff ff ff 
    9b0d:	48 8d 05 5c bb 01 00 	lea    0x1bb5c(%rip),%rax        # 25670 <g_877>
    9b14:	48 89 85 68 e8 ff ff 	mov    %rax,-0x1798(%rbp)
    9b1b:	48 8d 85 c4 e7 ff ff 	lea    -0x183c(%rbp),%rax
    9b22:	48 89 85 a8 e8 ff ff 	mov    %rax,-0x1758(%rbp)
    9b29:	48 8d 85 90 ea ff ff 	lea    -0x1570(%rbp),%rax
    9b30:	48 89 85 b0 e8 ff ff 	mov    %rax,-0x1750(%rbp)
    9b37:	c7 85 d4 e7 ff ff 00 	movl   $0x0,-0x182c(%rbp)
    9b3e:	00 00 00 
    9b41:	eb 1b                	jmp    9b5e <func_2+0x1fe>
    9b43:	8b 85 d4 e7 ff ff    	mov    -0x182c(%rbp),%eax
    9b49:	48 98                	cltq   
    9b4b:	48 c7 84 c5 70 ea ff 	movq   $0xffffffffffffffff,-0x1590(%rbp,%rax,8)
    9b52:	ff ff ff ff ff 
    9b57:	83 85 d4 e7 ff ff 01 	addl   $0x1,-0x182c(%rbp)
    9b5e:	83 bd d4 e7 ff ff 03 	cmpl   $0x3,-0x182c(%rbp)
    9b65:	7e dc                	jle    9b43 <func_2+0x1e3>
    9b67:	c7 85 d4 e7 ff ff 00 	movl   $0x0,-0x182c(%rbp)
    9b6e:	00 00 00 
    9b71:	eb 1b                	jmp    9b8e <func_2+0x22e>
    9b73:	8b 85 d4 e7 ff ff    	mov    -0x182c(%rbp),%eax
    9b79:	48 98                	cltq   
    9b7b:	48 c7 84 c5 10 ec ff 	movq   $0x0,-0x13f0(%rbp,%rax,8)
    9b82:	ff 00 00 00 00 
    9b87:	83 85 d4 e7 ff ff 01 	addl   $0x1,-0x182c(%rbp)
    9b8e:	83 bd d4 e7 ff ff 09 	cmpl   $0x9,-0x182c(%rbp)
    9b95:	7e dc                	jle    9b73 <func_2+0x213>
    9b97:	be 01 00 00 00       	mov    $0x1,%esi
    9b9c:	bf 09 00 00 00       	mov    $0x9,%edi
    9ba1:	e8 5f f0 ff ff       	callq  8c05 <safe_lshift_func_uint8_t_u_s>
    9ba6:	84 c0                	test   %al,%al
    9ba8:	74 21                	je     9bcb <func_2+0x26b>
    9baa:	48 c7 85 08 ea ff ff 	movq   $0x0,-0x15f8(%rbp)
    9bb1:	00 00 00 00 
    9bb5:	48 8b 05 0c a8 01 00 	mov    0x1a80c(%rip),%rax        # 243c8 <g_2629>
    9bbc:	48 8b 95 08 ea ff ff 	mov    -0x15f8(%rbp),%rdx
    9bc3:	48 89 10             	mov    %rdx,(%rax)
    9bc6:	e9 4f 32 00 00       	jmpq   ce1a <func_2+0x34ba>
    9bcb:	48 8d 05 ae ba 01 00 	lea    0x1baae(%rip),%rax        # 25680 <g_1386>
    9bd2:	48 89 85 b8 e8 ff ff 	mov    %rax,-0x1748(%rbp)
    9bd9:	48 8d 05 fa 7d 01 00 	lea    0x17dfa(%rip),%rax        # 219da <g_1726>
    9be0:	48 89 85 20 ef ff ff 	mov    %rax,-0x10e0(%rbp)
    9be7:	48 c7 85 28 ef ff ff 	movq   $0x0,-0x10d8(%rbp)
    9bee:	00 00 00 00 
    9bf2:	48 8d 05 0f 38 01 00 	lea    0x1380f(%rip),%rax        # 1d408 <g_538>
    9bf9:	48 89 85 30 ef ff ff 	mov    %rax,-0x10d0(%rbp)
    9c00:	48 c7 85 38 ef ff ff 	movq   $0x0,-0x10c8(%rbp)
    9c07:	00 00 00 00 
    9c0b:	48 8d 05 c8 7d 01 00 	lea    0x17dc8(%rip),%rax        # 219da <g_1726>
    9c12:	48 89 85 40 ef ff ff 	mov    %rax,-0x10c0(%rbp)
    9c19:	48 c7 85 48 ef ff ff 	movq   $0x0,-0x10b8(%rbp)
    9c20:	00 00 00 00 
    9c24:	48 8d 05 dd 37 01 00 	lea    0x137dd(%rip),%rax        # 1d408 <g_538>
    9c2b:	48 89 85 50 ef ff ff 	mov    %rax,-0x10b0(%rbp)
    9c32:	48 c7 85 58 ef ff ff 	movq   $0x0,-0x10a8(%rbp)
    9c39:	00 00 00 00 
    9c3d:	48 8d 05 96 7d 01 00 	lea    0x17d96(%rip),%rax        # 219da <g_1726>
    9c44:	48 89 85 60 ef ff ff 	mov    %rax,-0x10a0(%rbp)
    9c4b:	48 c7 85 68 ef ff ff 	movq   $0x0,-0x1098(%rbp)
    9c52:	00 00 00 00 
    9c56:	48 8d 05 ab 37 01 00 	lea    0x137ab(%rip),%rax        # 1d408 <g_538>
    9c5d:	48 89 85 70 ef ff ff 	mov    %rax,-0x1090(%rbp)
    9c64:	48 c7 85 78 ef ff ff 	movq   $0x0,-0x1088(%rbp)
    9c6b:	00 00 00 00 
    9c6f:	48 8d 05 64 7d 01 00 	lea    0x17d64(%rip),%rax        # 219da <g_1726>
    9c76:	48 89 85 80 ef ff ff 	mov    %rax,-0x1080(%rbp)
    9c7d:	48 c7 85 88 ef ff ff 	movq   $0x0,-0x1078(%rbp)
    9c84:	00 00 00 00 
    9c88:	48 8d 05 79 37 01 00 	lea    0x13779(%rip),%rax        # 1d408 <g_538>
    9c8f:	48 89 85 90 ef ff ff 	mov    %rax,-0x1070(%rbp)
    9c96:	48 c7 85 98 ef ff ff 	movq   $0x0,-0x1068(%rbp)
    9c9d:	00 00 00 00 
    9ca1:	48 8d 05 32 7d 01 00 	lea    0x17d32(%rip),%rax        # 219da <g_1726>
    9ca8:	48 89 85 a0 ef ff ff 	mov    %rax,-0x1060(%rbp)
    9caf:	48 c7 85 a8 ef ff ff 	movq   $0x0,-0x1058(%rbp)
    9cb6:	00 00 00 00 
    9cba:	48 8d 05 47 37 01 00 	lea    0x13747(%rip),%rax        # 1d408 <g_538>
    9cc1:	48 89 85 b0 ef ff ff 	mov    %rax,-0x1050(%rbp)
    9cc8:	48 c7 85 b8 ef ff ff 	movq   $0x0,-0x1048(%rbp)
    9ccf:	00 00 00 00 
    9cd3:	48 8d 05 00 7d 01 00 	lea    0x17d00(%rip),%rax        # 219da <g_1726>
    9cda:	48 89 85 c0 ef ff ff 	mov    %rax,-0x1040(%rbp)
    9ce1:	48 c7 85 c8 ef ff ff 	movq   $0x0,-0x1038(%rbp)
    9ce8:	00 00 00 00 
    9cec:	48 8d 05 15 37 01 00 	lea    0x13715(%rip),%rax        # 1d408 <g_538>
    9cf3:	48 89 85 d0 ef ff ff 	mov    %rax,-0x1030(%rbp)
    9cfa:	48 c7 85 d8 ef ff ff 	movq   $0x0,-0x1028(%rbp)
    9d01:	00 00 00 00 
    9d05:	48 8d 05 ce 7c 01 00 	lea    0x17cce(%rip),%rax        # 219da <g_1726>
    9d0c:	48 89 85 e0 ef ff ff 	mov    %rax,-0x1020(%rbp)
    9d13:	48 c7 85 e8 ef ff ff 	movq   $0x0,-0x1018(%rbp)
    9d1a:	00 00 00 00 
    9d1e:	48 8d 05 e3 36 01 00 	lea    0x136e3(%rip),%rax        # 1d408 <g_538>
    9d25:	48 89 85 f0 ef ff ff 	mov    %rax,-0x1010(%rbp)
    9d2c:	48 c7 85 f8 ef ff ff 	movq   $0x0,-0x1008(%rbp)
    9d33:	00 00 00 00 
    9d37:	48 8d 05 9c 7c 01 00 	lea    0x17c9c(%rip),%rax        # 219da <g_1726>
    9d3e:	48 89 85 00 f0 ff ff 	mov    %rax,-0x1000(%rbp)
    9d45:	48 c7 85 08 f0 ff ff 	movq   $0x0,-0xff8(%rbp)
    9d4c:	00 00 00 00 
    9d50:	48 8d 05 b1 36 01 00 	lea    0x136b1(%rip),%rax        # 1d408 <g_538>
    9d57:	48 89 85 10 f0 ff ff 	mov    %rax,-0xff0(%rbp)
    9d5e:	48 c7 85 18 f0 ff ff 	movq   $0x0,-0xfe8(%rbp)
    9d65:	00 00 00 00 
    9d69:	c6 85 af e7 ff ff 84 	movb   $0x84,-0x1851(%rbp)
    9d70:	48 c7 85 c0 e8 ff ff 	movq   $0x0,-0x1740(%rbp)
    9d77:	00 00 00 00 
    9d7b:	48 8d 05 a6 35 01 00 	lea    0x135a6(%rip),%rax        # 1d328 <g_192+0x28>
    9d82:	48 89 85 c8 e8 ff ff 	mov    %rax,-0x1738(%rbp)
    9d89:	48 c7 85 d0 e8 ff ff 	movq   $0x0,-0x1730(%rbp)
    9d90:	00 00 00 00 
    9d94:	48 c7 85 d8 e8 ff ff 	movq   $0x0,-0x1728(%rbp)
    9d9b:	00 00 00 00 
    9d9f:	48 8d 05 a2 35 01 00 	lea    0x135a2(%rip),%rax        # 1d348 <g_223>
    9da6:	48 89 85 b0 ec ff ff 	mov    %rax,-0x1350(%rbp)
    9dad:	48 8d 05 94 35 01 00 	lea    0x13594(%rip),%rax        # 1d348 <g_223>
    9db4:	48 89 85 b8 ec ff ff 	mov    %rax,-0x1348(%rbp)
    9dbb:	48 8d 05 86 35 01 00 	lea    0x13586(%rip),%rax        # 1d348 <g_223>
    9dc2:	48 89 85 c0 ec ff ff 	mov    %rax,-0x1340(%rbp)
    9dc9:	48 8d 05 78 35 01 00 	lea    0x13578(%rip),%rax        # 1d348 <g_223>
    9dd0:	48 89 85 c8 ec ff ff 	mov    %rax,-0x1338(%rbp)
    9dd7:	48 8d 05 6a 35 01 00 	lea    0x1356a(%rip),%rax        # 1d348 <g_223>
    9dde:	48 89 85 d0 ec ff ff 	mov    %rax,-0x1330(%rbp)
    9de5:	48 8d 05 5c 35 01 00 	lea    0x1355c(%rip),%rax        # 1d348 <g_223>
    9dec:	48 89 85 d8 ec ff ff 	mov    %rax,-0x1328(%rbp)
    9df3:	48 8d 05 4e 35 01 00 	lea    0x1354e(%rip),%rax        # 1d348 <g_223>
    9dfa:	48 89 85 e0 ec ff ff 	mov    %rax,-0x1320(%rbp)
    9e01:	48 8d 05 40 35 01 00 	lea    0x13540(%rip),%rax        # 1d348 <g_223>
    9e08:	48 89 85 e8 ec ff ff 	mov    %rax,-0x1318(%rbp)
    9e0f:	48 8d 05 32 35 01 00 	lea    0x13532(%rip),%rax        # 1d348 <g_223>
    9e16:	48 89 85 f0 ec ff ff 	mov    %rax,-0x1310(%rbp)
    9e1d:	48 8d 05 24 35 01 00 	lea    0x13524(%rip),%rax        # 1d348 <g_223>
    9e24:	48 89 85 f8 ec ff ff 	mov    %rax,-0x1308(%rbp)
    9e2b:	48 8d 05 16 35 01 00 	lea    0x13516(%rip),%rax        # 1d348 <g_223>
    9e32:	48 89 85 00 ed ff ff 	mov    %rax,-0x1300(%rbp)
    9e39:	48 8d 05 08 35 01 00 	lea    0x13508(%rip),%rax        # 1d348 <g_223>
    9e40:	48 89 85 08 ed ff ff 	mov    %rax,-0x12f8(%rbp)
    9e47:	48 8d 05 fa 34 01 00 	lea    0x134fa(%rip),%rax        # 1d348 <g_223>
    9e4e:	48 89 85 10 ed ff ff 	mov    %rax,-0x12f0(%rbp)
    9e55:	48 8d 05 ec 34 01 00 	lea    0x134ec(%rip),%rax        # 1d348 <g_223>
    9e5c:	48 89 85 18 ed ff ff 	mov    %rax,-0x12e8(%rbp)
    9e63:	48 8d 05 de 34 01 00 	lea    0x134de(%rip),%rax        # 1d348 <g_223>
    9e6a:	48 89 85 20 ed ff ff 	mov    %rax,-0x12e0(%rbp)
    9e71:	48 8d 05 d0 34 01 00 	lea    0x134d0(%rip),%rax        # 1d348 <g_223>
    9e78:	48 89 85 28 ed ff ff 	mov    %rax,-0x12d8(%rbp)
    9e7f:	48 8d 05 c2 34 01 00 	lea    0x134c2(%rip),%rax        # 1d348 <g_223>
    9e86:	48 89 85 30 ed ff ff 	mov    %rax,-0x12d0(%rbp)
    9e8d:	48 8d 05 b4 34 01 00 	lea    0x134b4(%rip),%rax        # 1d348 <g_223>
    9e94:	48 89 85 38 ed ff ff 	mov    %rax,-0x12c8(%rbp)
    9e9b:	48 8d 05 a6 34 01 00 	lea    0x134a6(%rip),%rax        # 1d348 <g_223>
    9ea2:	48 89 85 40 ed ff ff 	mov    %rax,-0x12c0(%rbp)
    9ea9:	48 8d 05 98 34 01 00 	lea    0x13498(%rip),%rax        # 1d348 <g_223>
    9eb0:	48 89 85 48 ed ff ff 	mov    %rax,-0x12b8(%rbp)
    9eb7:	c7 85 c0 ea ff ff 00 	movl   $0x0,-0x1540(%rbp)
    9ebe:	00 00 00 
    9ec1:	c7 85 c4 ea ff ff 04 	movl   $0x4,-0x153c(%rbp)
    9ec8:	00 00 00 
    9ecb:	c7 85 c8 ea ff ff 00 	movl   $0x0,-0x1538(%rbp)
    9ed2:	00 00 00 
    9ed5:	c7 85 cc ea ff ff 00 	movl   $0x0,-0x1534(%rbp)
    9edc:	00 00 00 
    9edf:	c7 85 d0 ea ff ff 04 	movl   $0x4,-0x1530(%rbp)
    9ee6:	00 00 00 
    9ee9:	c7 85 d4 ea ff ff 00 	movl   $0x0,-0x152c(%rbp)
    9ef0:	00 00 00 
    9ef3:	c7 85 d8 ea ff ff 00 	movl   $0x0,-0x1528(%rbp)
    9efa:	00 00 00 
    9efd:	c7 85 dc ea ff ff 04 	movl   $0x4,-0x1524(%rbp)
    9f04:	00 00 00 
    9f07:	c7 85 e0 ea ff ff 00 	movl   $0x0,-0x1520(%rbp)
    9f0e:	00 00 00 
    9f11:	48 c7 85 e0 e8 ff ff 	movq   $0x0,-0x1720(%rbp)
    9f18:	00 00 00 00 
    9f1c:	48 c7 85 e8 e8 ff ff 	movq   $0xfffffffffffffffd,-0x1718(%rbp)
    9f23:	fd ff ff ff 
    9f27:	66 c7 85 80 eb ff ff 	movw   $0x1,-0x1480(%rbp)
    9f2e:	01 00 
    9f30:	66 c7 85 82 eb ff ff 	movw   $0x1,-0x147e(%rbp)
    9f37:	01 00 
    9f39:	66 c7 85 84 eb ff ff 	movw   $0xc5f6,-0x147c(%rbp)
    9f40:	f6 c5 
    9f42:	66 c7 85 86 eb ff ff 	movw   $0xfff9,-0x147a(%rbp)
    9f49:	f9 ff 
    9f4b:	66 c7 85 88 eb ff ff 	movw   $0xfff9,-0x1478(%rbp)
    9f52:	f9 ff 
    9f54:	66 c7 85 8a eb ff ff 	movw   $0xc5f6,-0x1476(%rbp)
    9f5b:	f6 c5 
    9f5d:	66 c7 85 8c eb ff ff 	movw   $0x1,-0x1474(%rbp)
    9f64:	01 00 
    9f66:	66 c7 85 8e eb ff ff 	movw   $0xc5f6,-0x1472(%rbp)
    9f6d:	f6 c5 
    9f6f:	66 c7 85 90 eb ff ff 	movw   $0x45df,-0x1470(%rbp)
    9f76:	df 45 
    9f78:	66 c7 85 92 eb ff ff 	movw   $0x1,-0x146e(%rbp)
    9f7f:	01 00 
    9f81:	66 c7 85 94 eb ff ff 	movw   $0xe2b5,-0x146c(%rbp)
    9f88:	b5 e2 
    9f8a:	66 c7 85 96 eb ff ff 	movw   $0x1,-0x146a(%rbp)
    9f91:	01 00 
    9f93:	66 c7 85 98 eb ff ff 	movw   $0x1,-0x1468(%rbp)
    9f9a:	01 00 
    9f9c:	66 c7 85 9a eb ff ff 	movw   $0x1,-0x1466(%rbp)
    9fa3:	01 00 
    9fa5:	66 c7 85 9c eb ff ff 	movw   $0xc5f6,-0x1464(%rbp)
    9fac:	f6 c5 
    9fae:	66 c7 85 9e eb ff ff 	movw   $0xa293,-0x1462(%rbp)
    9fb5:	93 a2 
    9fb7:	66 c7 85 a0 eb ff ff 	movw   $0x3b1d,-0x1460(%rbp)
    9fbe:	1d 3b 
    9fc0:	66 c7 85 a2 eb ff ff 	movw   $0x1,-0x145e(%rbp)
    9fc7:	01 00 
    9fc9:	66 c7 85 a4 eb ff ff 	movw   $0x3b1d,-0x145c(%rbp)
    9fd0:	1d 3b 
    9fd2:	66 c7 85 a6 eb ff ff 	movw   $0xa293,-0x145a(%rbp)
    9fd9:	93 a2 
    9fdb:	66 c7 85 a8 eb ff ff 	movw   $0xc5f6,-0x1458(%rbp)
    9fe2:	f6 c5 
    9fe4:	66 c7 85 aa eb ff ff 	movw   $0x1,-0x1456(%rbp)
    9feb:	01 00 
    9fed:	66 c7 85 ac eb ff ff 	movw   $0x1,-0x1454(%rbp)
    9ff4:	01 00 
    9ff6:	66 c7 85 ae eb ff ff 	movw   $0x1,-0x1452(%rbp)
    9ffd:	01 00 
    9fff:	66 c7 85 b0 eb ff ff 	movw   $0xe2b5,-0x1450(%rbp)
    a006:	b5 e2 
    a008:	66 c7 85 b2 eb ff ff 	movw   $0x1,-0x144e(%rbp)
    a00f:	01 00 
    a011:	66 c7 85 b4 eb ff ff 	movw   $0x45df,-0x144c(%rbp)
    a018:	df 45 
    a01a:	66 c7 85 b6 eb ff ff 	movw   $0xc5f6,-0x144a(%rbp)
    a021:	f6 c5 
    a023:	c7 85 cc e7 ff ff 00 	movl   $0x0,-0x1834(%rbp)
    a02a:	00 00 00 
    a02d:	c6 85 ad e7 ff ff 45 	movb   $0x45,-0x1853(%rbp)
    a034:	48 b8 cd aa d2 3f 63 	movabs $0x55aaaf633fd2aacd,%rax
    a03b:	af aa 55 
    a03e:	48 89 85 90 e8 ff ff 	mov    %rax,-0x1770(%rbp)
    a045:	48 c7 85 f0 e8 ff ff 	movq   $0xffffffffffffffff,-0x1710(%rbp)
    a04c:	ff ff ff ff 
    a050:	48 c7 85 f8 e8 ff ff 	movq   $0xffffffffffffffff,-0x1708(%rbp)
    a057:	ff ff ff ff 
    a05b:	c7 85 d8 e7 ff ff 00 	movl   $0x0,-0x1828(%rbp)
    a062:	00 00 00 
    a065:	eb 1a                	jmp    a081 <func_2+0x721>
    a067:	8b 85 d8 e7 ff ff    	mov    -0x1828(%rbp),%eax
    a06d:	48 98                	cltq   
    a06f:	c7 84 85 1c ea ff ff 	movl   $0xffffffff,-0x15e4(%rbp,%rax,4)
    a076:	ff ff ff ff 
    a07a:	83 85 d8 e7 ff ff 01 	addl   $0x1,-0x1828(%rbp)
    a081:	83 bd d8 e7 ff ff 00 	cmpl   $0x0,-0x1828(%rbp)
    a088:	7e dd                	jle    a067 <func_2+0x707>
    a08a:	c7 85 d8 e7 ff ff 00 	movl   $0x0,-0x1828(%rbp)
    a091:	00 00 00 
    a094:	eb 1a                	jmp    a0b0 <func_2+0x750>
    a096:	8b 85 d8 e7 ff ff    	mov    -0x1828(%rbp),%eax
    a09c:	48 98                	cltq   
    a09e:	c7 84 85 30 ea ff ff 	movl   $0xb25a617b,-0x15d0(%rbp,%rax,4)
    a0a5:	7b 61 5a b2 
    a0a9:	83 85 d8 e7 ff ff 01 	addl   $0x1,-0x1828(%rbp)
    a0b0:	83 bd d8 e7 ff ff 03 	cmpl   $0x3,-0x1828(%rbp)
    a0b7:	7e dd                	jle    a096 <func_2+0x736>
    a0b9:	48 8d 05 c0 b5 01 00 	lea    0x1b5c0(%rip),%rax        # 25680 <g_1386>
    a0c0:	48 89 85 b8 e8 ff ff 	mov    %rax,-0x1748(%rbp)
    a0c7:	8b 85 94 e7 ff ff    	mov    -0x186c(%rbp),%eax
    a0cd:	0f be d8             	movsbl %al,%ebx
    a0d0:	80 85 98 e7 ff ff 01 	addb   $0x1,-0x1868(%rbp)
    a0d7:	0f b6 85 98 e7 ff ff 	movzbl -0x1868(%rbp),%eax
    a0de:	f7 d0                	not    %eax
    a0e0:	41 89 c7             	mov    %eax,%r15d
    a0e3:	48 8b 85 88 ea ff ff 	mov    -0x1578(%rbp),%rax
    a0ea:	89 c2                	mov    %eax,%edx
    a0ec:	48 8b 85 c8 e8 ff ff 	mov    -0x1738(%rbp),%rax
    a0f3:	66 89 10             	mov    %dx,(%rax)
    a0f6:	48 8b 85 c8 e8 ff ff 	mov    -0x1738(%rbp),%rax
    a0fd:	0f b7 00             	movzwl (%rax),%eax
    a100:	66 3d 74 16          	cmp    $0x1674,%ax
    a104:	0f 95 c0             	setne  %al
    a107:	0f b6 d0             	movzbl %al,%edx
    a10a:	0f be 85 af e7 ff ff 	movsbl -0x1851(%rbp),%eax
    a111:	39 c2                	cmp    %eax,%edx
    a113:	0f 8d af 00 00 00    	jge    a1c8 <func_2+0x868>
    a119:	44 8b a5 9c e7 ff ff 	mov    -0x1864(%rbp),%r12d
    a120:	48 8b 85 88 ea ff ff 	mov    -0x1578(%rbp),%rax
    a127:	44 0f bf e8          	movswl %ax,%r13d
    a12b:	8b 85 1c ea ff ff    	mov    -0x15e4(%rbp),%eax
    a131:	83 f8 04             	cmp    $0x4,%eax
    a134:	0f 9f c0             	setg   %al
    a137:	44 0f b6 f0          	movzbl %al,%r14d
    a13b:	48 8d 05 b2 32 01 00 	lea    0x132b2(%rip),%rax        # 1d3f4 <g_500+0x4>
    a142:	8b 10                	mov    (%rax),%edx
    a144:	0f be 85 af e7 ff ff 	movsbl -0x1851(%rbp),%eax
    a14b:	09 d0                	or     %edx,%eax
    a14d:	48 98                	cltq   
    a14f:	48 c7 c6 ff ff ff ff 	mov    $0xffffffffffffffff,%rsi
    a156:	48 89 c7             	mov    %rax,%rdi
    a159:	e8 e3 e6 ff ff       	callq  8841 <safe_add_func_int64_t_s_s>
    a15e:	48 83 c8 05          	or     $0x5,%rax
    a162:	49 39 c6             	cmp    %rax,%r14
    a165:	0f 9d c0             	setge  %al
    a168:	0f b6 c0             	movzbl %al,%eax
    a16b:	44 89 ee             	mov    %r13d,%esi
    a16e:	89 c7                	mov    %eax,%edi
    a170:	e8 e0 e2 ff ff       	callq  8455 <safe_div_func_int16_t_s_s>
    a175:	48 0f bf c0          	movswq %ax,%rax
    a179:	4c 89 e6             	mov    %r12,%rsi
    a17c:	48 89 c7             	mov    %rax,%rdi
    a17f:	e8 c7 ee ff ff       	callq  904b <safe_sub_func_uint64_t_u_u>
    a184:	89 c2                	mov    %eax,%edx
    a186:	0f b6 85 af e7 ff ff 	movzbl -0x1851(%rbp),%eax
    a18d:	21 c2                	and    %eax,%edx
    a18f:	8b 85 1c ea ff ff    	mov    -0x15e4(%rbp),%eax
    a195:	09 d0                	or     %edx,%eax
    a197:	0f be d0             	movsbl %al,%edx
    a19a:	48 8b 85 88 e7 ff ff 	mov    -0x1878(%rbp),%rax
    a1a1:	0f b6 00             	movzbl (%rax),%eax
    a1a4:	0f be c0             	movsbl %al,%eax
    a1a7:	89 d6                	mov    %edx,%esi
    a1a9:	89 c7                	mov    %eax,%edi
    a1ab:	e8 42 e0 ff ff       	callq  81f2 <safe_sub_func_int8_t_s_s>
    a1b0:	0f be c0             	movsbl %al,%eax
    a1b3:	39 85 94 e7 ff ff    	cmp    %eax,-0x186c(%rbp)
    a1b9:	0f 95 c0             	setne  %al
    a1bc:	0f b6 d0             	movzbl %al,%edx
    a1bf:	0f be 85 af e7 ff ff 	movsbl -0x1851(%rbp),%eax
    a1c6:	39 c2                	cmp    %eax,%edx
    a1c8:	48 83 bd d0 e8 ff ff 	cmpq   $0x0,-0x1730(%rbp)
    a1cf:	00 
    a1d0:	0f 95 c0             	setne  %al
    a1d3:	0f b6 c0             	movzbl %al,%eax
    a1d6:	be ac 00 00 00       	mov    $0xac,%esi
    a1db:	89 c7                	mov    %eax,%edi
    a1dd:	e8 78 e9 ff ff       	callq  8b5a <safe_add_func_uint8_t_u_u>
    a1e2:	0f b6 d0             	movzbl %al,%edx
    a1e5:	48 8b 85 80 ea ff ff 	mov    -0x1580(%rbp),%rax
    a1ec:	48 39 c2             	cmp    %rax,%rdx
    a1ef:	0f 9d c0             	setge  %al
    a1f2:	0f b6 d0             	movzbl %al,%edx
    a1f5:	48 8b 85 80 e7 ff ff 	mov    -0x1880(%rbp),%rax
    a1fc:	0f b6 00             	movzbl (%rax),%eax
    a1ff:	0f be c0             	movsbl %al,%eax
    a202:	89 d6                	mov    %edx,%esi
    a204:	89 c7                	mov    %eax,%edi
    a206:	e8 07 e0 ff ff       	callq  8212 <safe_mul_func_int8_t_s_s>
    a20b:	66 98                	cbtw   
    a20d:	0f b7 c0             	movzwl %ax,%eax
    a210:	8b 95 94 e7 ff ff    	mov    -0x186c(%rbp),%edx
    a216:	89 d6                	mov    %edx,%esi
    a218:	89 c7                	mov    %eax,%edi
    a21a:	e8 5b ec ff ff       	callq  8e7a <safe_rshift_func_uint16_t_u_u>
    a21f:	83 f0 08             	xor    $0x8,%eax
    a222:	66 3d 9a 00          	cmp    $0x9a,%ax
    a226:	0f 97 c0             	seta   %al
    a229:	0f b6 c0             	movzbl %al,%eax
    a22c:	41 39 c7             	cmp    %eax,%r15d
    a22f:	0f 9f c0             	setg   %al
    a232:	0f b6 c0             	movzbl %al,%eax
    a235:	89 de                	mov    %ebx,%esi
    a237:	89 c7                	mov    %eax,%edi
    a239:	e8 2c e0 ff ff       	callq  826a <safe_div_func_int8_t_s_s>
    a23e:	0f be c0             	movsbl %al,%eax
    a241:	89 85 1c ea ff ff    	mov    %eax,-0x15e4(%rbp)
    a247:	ba 01 00 00 00       	mov    $0x1,%edx
    a24c:	8b 85 e0 ea ff ff    	mov    -0x1520(%rbp),%eax
    a252:	31 d0                	xor    %edx,%eax
    a254:	89 85 e0 ea ff ff    	mov    %eax,-0x1520(%rbp)
    a25a:	83 bd 94 e7 ff ff 00 	cmpl   $0x0,-0x186c(%rbp)
    a261:	0f 84 c1 02 00 00    	je     a528 <func_2+0xbc8>
    a267:	48 b8 b8 4a 6e ea d1 	movabs $0x6d3139d1ea6e4ab8,%rax
    a26e:	39 31 6d 
    a271:	48 89 85 d0 e9 ff ff 	mov    %rax,-0x1630(%rbp)
    a278:	48 8d 05 75 31 01 00 	lea    0x13175(%rip),%rax        # 1d3f4 <g_500+0x4>
    a27f:	48 89 85 d8 e9 ff ff 	mov    %rax,-0x1628(%rbp)
    a286:	48 8d 05 a7 2d 01 00 	lea    0x12da7(%rip),%rax        # 1d034 <g_31>
    a28d:	48 89 85 e0 e9 ff ff 	mov    %rax,-0x1620(%rbp)
    a294:	48 8d 05 49 30 01 00 	lea    0x13049(%rip),%rax        # 1d2e4 <g_108>
    a29b:	48 89 85 e8 e9 ff ff 	mov    %rax,-0x1618(%rbp)
    a2a2:	48 8d 85 c0 ea ff ff 	lea    -0x1540(%rbp),%rax
    a2a9:	48 83 c0 20          	add    $0x20,%rax
    a2ad:	48 89 85 f0 e9 ff ff 	mov    %rax,-0x1610(%rbp)
    a2b4:	48 8d 85 c0 ea ff ff 	lea    -0x1540(%rbp),%rax
    a2bb:	48 83 c0 20          	add    $0x20,%rax
    a2bf:	48 89 85 f8 e9 ff ff 	mov    %rax,-0x1608(%rbp)
    a2c6:	48 8d 05 6f 2d 01 00 	lea    0x12d6f(%rip),%rax        # 1d03c <g_67>
    a2cd:	48 89 85 00 ea ff ff 	mov    %rax,-0x1600(%rbp)
    a2d4:	48 8d 05 61 2d 01 00 	lea    0x12d61(%rip),%rax        # 1d03c <g_67>
    a2db:	48 89 85 20 f0 ff ff 	mov    %rax,-0xfe0(%rbp)
    a2e2:	48 8d 05 53 2d 01 00 	lea    0x12d53(%rip),%rax        # 1d03c <g_67>
    a2e9:	48 89 85 28 f0 ff ff 	mov    %rax,-0xfd8(%rbp)
    a2f0:	48 8d 05 45 2d 01 00 	lea    0x12d45(%rip),%rax        # 1d03c <g_67>
    a2f7:	48 89 85 30 f0 ff ff 	mov    %rax,-0xfd0(%rbp)
    a2fe:	48 8d 05 37 2d 01 00 	lea    0x12d37(%rip),%rax        # 1d03c <g_67>
    a305:	48 89 85 38 f0 ff ff 	mov    %rax,-0xfc8(%rbp)
    a30c:	48 8d 05 29 2d 01 00 	lea    0x12d29(%rip),%rax        # 1d03c <g_67>
    a313:	48 89 85 40 f0 ff ff 	mov    %rax,-0xfc0(%rbp)
    a31a:	48 8d 05 03 77 01 00 	lea    0x17703(%rip),%rax        # 21a24 <g_2372>
    a321:	48 89 85 48 f0 ff ff 	mov    %rax,-0xfb8(%rbp)
    a328:	48 c7 85 50 f0 ff ff 	movq   $0x0,-0xfb0(%rbp)
    a32f:	00 00 00 00 
    a333:	48 8d 05 ea 76 01 00 	lea    0x176ea(%rip),%rax        # 21a24 <g_2372>
    a33a:	48 89 85 58 f0 ff ff 	mov    %rax,-0xfa8(%rbp)
    a341:	48 c7 85 60 f0 ff ff 	movq   $0x0,-0xfa0(%rbp)
    a348:	00 00 00 00 
    a34c:	48 8d 05 d1 76 01 00 	lea    0x176d1(%rip),%rax        # 21a24 <g_2372>
    a353:	48 89 85 68 f0 ff ff 	mov    %rax,-0xf98(%rbp)
    a35a:	48 8d 05 db 2c 01 00 	lea    0x12cdb(%rip),%rax        # 1d03c <g_67>
    a361:	48 89 85 70 f0 ff ff 	mov    %rax,-0xf90(%rbp)
    a368:	48 8d 05 cd 2c 01 00 	lea    0x12ccd(%rip),%rax        # 1d03c <g_67>
    a36f:	48 89 85 78 f0 ff ff 	mov    %rax,-0xf88(%rbp)
    a376:	48 8d 05 bf 2c 01 00 	lea    0x12cbf(%rip),%rax        # 1d03c <g_67>
    a37d:	48 89 85 80 f0 ff ff 	mov    %rax,-0xf80(%rbp)
    a384:	48 8d 05 b1 2c 01 00 	lea    0x12cb1(%rip),%rax        # 1d03c <g_67>
    a38b:	48 89 85 88 f0 ff ff 	mov    %rax,-0xf78(%rbp)
    a392:	48 8d 05 a3 2c 01 00 	lea    0x12ca3(%rip),%rax        # 1d03c <g_67>
    a399:	48 89 85 90 f0 ff ff 	mov    %rax,-0xf70(%rbp)
    a3a0:	48 8d 05 7d 76 01 00 	lea    0x1767d(%rip),%rax        # 21a24 <g_2372>
    a3a7:	48 89 85 98 f0 ff ff 	mov    %rax,-0xf68(%rbp)
    a3ae:	48 c7 85 a0 f0 ff ff 	movq   $0x0,-0xf60(%rbp)
    a3b5:	00 00 00 00 
    a3b9:	48 8d 05 64 76 01 00 	lea    0x17664(%rip),%rax        # 21a24 <g_2372>
    a3c0:	48 89 85 a8 f0 ff ff 	mov    %rax,-0xf58(%rbp)
    a3c7:	48 c7 85 b0 f0 ff ff 	movq   $0x0,-0xf50(%rbp)
    a3ce:	00 00 00 00 
    a3d2:	48 8d 05 4b 76 01 00 	lea    0x1764b(%rip),%rax        # 21a24 <g_2372>
    a3d9:	48 89 85 b8 f0 ff ff 	mov    %rax,-0xf48(%rbp)
    a3e0:	48 8d 05 55 2c 01 00 	lea    0x12c55(%rip),%rax        # 1d03c <g_67>
    a3e7:	48 89 85 c0 f0 ff ff 	mov    %rax,-0xf40(%rbp)
    a3ee:	48 8d 05 47 2c 01 00 	lea    0x12c47(%rip),%rax        # 1d03c <g_67>
    a3f5:	48 89 85 c8 f0 ff ff 	mov    %rax,-0xf38(%rbp)
    a3fc:	48 8d 05 39 2c 01 00 	lea    0x12c39(%rip),%rax        # 1d03c <g_67>
    a403:	48 89 85 d0 f0 ff ff 	mov    %rax,-0xf30(%rbp)
    a40a:	48 8d 05 2b 2c 01 00 	lea    0x12c2b(%rip),%rax        # 1d03c <g_67>
    a411:	48 89 85 d8 f0 ff ff 	mov    %rax,-0xf28(%rbp)
    a418:	48 8d 05 1d 2c 01 00 	lea    0x12c1d(%rip),%rax        # 1d03c <g_67>
    a41f:	48 89 85 e0 f0 ff ff 	mov    %rax,-0xf20(%rbp)
    a426:	48 8d 05 f7 75 01 00 	lea    0x175f7(%rip),%rax        # 21a24 <g_2372>
    a42d:	48 89 85 e8 f0 ff ff 	mov    %rax,-0xf18(%rbp)
    a434:	48 c7 85 f0 f0 ff ff 	movq   $0x0,-0xf10(%rbp)
    a43b:	00 00 00 00 
    a43f:	48 8d 05 de 75 01 00 	lea    0x175de(%rip),%rax        # 21a24 <g_2372>
    a446:	48 89 85 f8 f0 ff ff 	mov    %rax,-0xf08(%rbp)
    a44d:	48 c7 85 00 f1 ff ff 	movq   $0x0,-0xf00(%rbp)
    a454:	00 00 00 00 
    a458:	48 8d 05 c5 75 01 00 	lea    0x175c5(%rip),%rax        # 21a24 <g_2372>
    a45f:	48 89 85 08 f1 ff ff 	mov    %rax,-0xef8(%rbp)
    a466:	48 8d 85 f0 f7 ff ff 	lea    -0x810(%rbp),%rax
    a46d:	48 8d 15 0c e6 00 00 	lea    0xe60c(%rip),%rdx        # 18a80 <g_2539+0x40>
    a474:	b9 7e 00 00 00       	mov    $0x7e,%ecx
    a479:	48 89 c7             	mov    %rax,%rdi
    a47c:	48 89 d6             	mov    %rdx,%rsi
    a47f:	f3 48 a5             	rep movsq %ds:(%rsi),%es:(%rdi)
    a482:	c7 05 9c 75 01 00 04 	movl   $0x4,0x1759c(%rip)        # 21a28 <g_2418>
    a489:	00 00 00 
    a48c:	eb 77                	jmp    a505 <func_2+0xba5>
    a48e:	48 8b 05 63 7b 01 00 	mov    0x17b63(%rip),%rax        # 21ff8 <g_2668>
    a495:	48 89 05 64 7b 01 00 	mov    %rax,0x17b64(%rip)        # 22000 <g_2669>
    a49c:	48 8d 05 51 2f 01 00 	lea    0x12f51(%rip),%rax        # 1d3f4 <g_500+0x4>
    a4a3:	8b 00                	mov    (%rax),%eax
    a4a5:	89 c2                	mov    %eax,%edx
    a4a7:	48 8b 85 d0 e9 ff ff 	mov    -0x1630(%rbp),%rax
    a4ae:	09 c2                	or     %eax,%edx
    a4b0:	48 8d 05 3d 2f 01 00 	lea    0x12f3d(%rip),%rax        # 1d3f4 <g_500+0x4>
    a4b7:	89 10                	mov    %edx,(%rax)
    a4b9:	48 8b 05 10 9f 01 00 	mov    0x19f10(%rip),%rax        # 243d0 <g_2671>
    a4c0:	48 8d 15 b9 2e 01 00 	lea    0x12eb9(%rip),%rdx        # 1d380 <g_474>
    a4c7:	48 89 10             	mov    %rdx,(%rax)
    a4ca:	48 8b 05 ff a0 01 00 	mov    0x1a0ff(%rip),%rax        # 245d0 <g_2676+0x1f0>
    a4d1:	48 39 85 98 e8 ff ff 	cmp    %rax,-0x1768(%rbp)
    a4d8:	0f 95 c2             	setne  %dl
    a4db:	48 8b 05 d6 86 01 00 	mov    0x186d6(%rip),%rax        # 22bb8 <g_74>
    a4e2:	0f b6 d2             	movzbl %dl,%edx
    a4e5:	89 10                	mov    %edx,(%rax)
    a4e7:	8b 05 3b 75 01 00    	mov    0x1753b(%rip),%eax        # 21a28 <g_2418>
    a4ed:	0f be c0             	movsbl %al,%eax
    a4f0:	be 01 00 00 00       	mov    $0x1,%esi
    a4f5:	89 c7                	mov    %eax,%edi
    a4f7:	e8 d8 dc ff ff       	callq  81d4 <safe_add_func_int8_t_s_s>
    a4fc:	0f be c0             	movsbl %al,%eax
    a4ff:	89 05 23 75 01 00    	mov    %eax,0x17523(%rip)        # 21a28 <g_2418>
    a505:	8b 05 1d 75 01 00    	mov    0x1751d(%rip),%eax        # 21a28 <g_2418>
    a50b:	83 f8 1b             	cmp    $0x1b,%eax
    a50e:	0f 85 7a ff ff ff    	jne    a48e <func_2+0xb2e>
    a514:	8b 85 14 fa ff ff    	mov    -0x5ec(%rbp),%eax
    a51a:	83 c0 01             	add    $0x1,%eax
    a51d:	89 85 14 fa ff ff    	mov    %eax,-0x5ec(%rbp)
    a523:	e9 45 28 00 00       	jmpq   cd6d <func_2+0x340d>
    a528:	48 8d 05 99 73 01 00 	lea    0x17399(%rip),%rax        # 218c8 <g_1218+0x8>
    a52f:	48 89 85 70 e8 ff ff 	mov    %rax,-0x1790(%rbp)
    a536:	48 8d 85 70 e8 ff ff 	lea    -0x1790(%rbp),%rax
    a53d:	48 89 85 00 e9 ff ff 	mov    %rax,-0x1700(%rbp)
    a544:	c7 85 dc e7 ff ff 0f 	movl   $0xf449240f,-0x1824(%rbp)
    a54b:	24 49 f4 
    a54e:	48 8d 05 13 a6 01 00 	lea    0x1a613(%rip),%rax        # 24b68 <g_2708>
    a555:	48 89 85 08 e9 ff ff 	mov    %rax,-0x16f8(%rbp)
    a55c:	c7 85 d0 e7 ff ff ff 	movl   $0xffffffff,-0x1830(%rbp)
    a563:	ff ff ff 
    a566:	c7 85 14 e8 ff ff 67 	movl   $0xa4228d67,-0x17ec(%rbp)
    a56d:	8d 22 a4 
    a570:	c7 85 18 e8 ff ff f7 	movl   $0xfffffff7,-0x17e8(%rbp)
    a577:	ff ff ff 
    a57a:	66 c7 85 b4 e7 ff ff 	movw   $0x5955,-0x184c(%rbp)
    a581:	55 59 
    a583:	c7 85 40 ea ff ff 12 	movl   $0xa3b46d12,-0x15c0(%rbp)
    a58a:	6d b4 a3 
    a58d:	c7 85 44 ea ff ff 12 	movl   $0xa3b46d12,-0x15bc(%rbp)
    a594:	6d b4 a3 
    a597:	c7 85 48 ea ff ff 12 	movl   $0xa3b46d12,-0x15b8(%rbp)
    a59e:	6d b4 a3 
    a5a1:	c7 85 4c ea ff ff 12 	movl   $0xa3b46d12,-0x15b4(%rbp)
    a5a8:	6d b4 a3 
    a5ab:	48 8d 05 2a 7a 01 00 	lea    0x17a2a(%rip),%rax        # 21fdc <g_2530+0xc>
    a5b2:	48 89 85 10 e9 ff ff 	mov    %rax,-0x16f0(%rbp)
    a5b9:	66 c7 85 b6 e7 ff ff 	movw   $0xde2c,-0x184a(%rbp)
    a5c0:	2c de 
    a5c2:	c7 85 1c e8 ff ff 06 	movl   $0x6,-0x17e4(%rbp)
    a5c9:	00 00 00 
    a5cc:	48 8d 05 ad 7a 01 00 	lea    0x17aad(%rip),%rax        # 22080 <g_2833>
    a5d3:	48 89 85 18 e9 ff ff 	mov    %rax,-0x16e8(%rbp)
    a5da:	48 8d 05 8f b0 01 00 	lea    0x1b08f(%rip),%rax        # 25670 <g_877>
    a5e1:	48 89 85 20 e9 ff ff 	mov    %rax,-0x16e0(%rbp)
    a5e8:	48 8d 05 b9 7a 01 00 	lea    0x17ab9(%rip),%rax        # 220a8 <g_2891>
    a5ef:	48 89 85 28 e9 ff ff 	mov    %rax,-0x16d8(%rbp)
    a5f6:	c6 85 b0 e7 ff ff ff 	movb   $0xff,-0x1850(%rbp)
    a5fd:	48 8d 85 ad e7 ff ff 	lea    -0x1853(%rbp),%rax
    a604:	48 89 85 30 e9 ff ff 	mov    %rax,-0x16d0(%rbp)
    a60b:	c6 85 b1 e7 ff ff ae 	movb   $0xae,-0x184f(%rbp)
    a612:	48 8d 85 68 e8 ff ff 	lea    -0x1798(%rbp),%rax
    a619:	48 89 85 38 e9 ff ff 	mov    %rax,-0x16c8(%rbp)
    a620:	48 8b 85 00 e9 ff ff 	mov    -0x1700(%rbp),%rax
    a627:	48 8d 95 70 ea ff ff 	lea    -0x1590(%rbp),%rdx
    a62e:	48 83 c2 18          	add    $0x18,%rdx
    a632:	48 89 10             	mov    %rdx,(%rax)
    a635:	48 8b 85 00 e9 ff ff 	mov    -0x1700(%rbp),%rax
    a63c:	48 8b 00             	mov    (%rax),%rax
    a63f:	48 39 85 e0 e8 ff ff 	cmp    %rax,-0x1720(%rbp)
    a646:	0f 95 c0             	setne  %al
    a649:	0f b6 c0             	movzbl %al,%eax
    a64c:	89 85 00 e8 ff ff    	mov    %eax,-0x1800(%rbp)
    a652:	8b 85 94 e7 ff ff    	mov    -0x186c(%rbp),%eax
    a658:	0f b7 d8             	movzwl %ax,%ebx
    a65b:	8b 85 dc e7 ff ff    	mov    -0x1824(%rbp),%eax
    a661:	44 0f b7 e0          	movzwl %ax,%r12d
    a665:	48 8b 15 fc a4 01 00 	mov    0x1a4fc(%rip),%rdx        # 24b68 <g_2708>
    a66c:	48 8b 85 08 e9 ff ff 	mov    -0x16f8(%rbp),%rax
    a673:	48 89 10             	mov    %rdx,(%rax)
    a676:	48 8b 85 08 e9 ff ff 	mov    -0x16f8(%rbp),%rax
    a67d:	48 8b 00             	mov    (%rax),%rax
    a680:	48 85 c0             	test   %rax,%rax
    a683:	44 8b ad dc e7 ff ff 	mov    -0x1824(%rbp),%r13d
    a68a:	48 c7 c6 fe ff ff ff 	mov    $0xfffffffffffffffe,%rsi
    a691:	48 bf 34 b5 b8 8e 7f 	movabs $0x6078317f8eb8b534,%rdi
    a698:	31 78 60 
    a69b:	e8 8e e9 ff ff       	callq  902e <safe_add_func_uint64_t_u_u>
    a6a0:	89 c2                	mov    %eax,%edx
    a6a2:	48 8b 85 c8 e8 ff ff 	mov    -0x1738(%rbp),%rax
    a6a9:	66 89 10             	mov    %dx,(%rax)
    a6ac:	48 8b 85 80 e7 ff ff 	mov    -0x1880(%rbp),%rax
    a6b3:	0f b6 95 ae e7 ff ff 	movzbl -0x1852(%rbp),%edx
    a6ba:	88 10                	mov    %dl,(%rax)
    a6bc:	48 8b 85 80 e7 ff ff 	mov    -0x1880(%rbp),%rax
    a6c3:	0f b6 00             	movzbl (%rax),%eax
    a6c6:	38 85 af e7 ff ff    	cmp    %al,-0x1851(%rbp)
    a6cc:	7d 07                	jge    a6d5 <func_2+0xd75>
    a6ce:	b8 01 00 00 00       	mov    $0x1,%eax
    a6d3:	eb 05                	jmp    a6da <func_2+0xd7a>
    a6d5:	b8 00 00 00 00       	mov    $0x0,%eax
    a6da:	0f b7 c0             	movzwl %ax,%eax
    a6dd:	44 89 ee             	mov    %r13d,%esi
    a6e0:	89 c7                	mov    %eax,%edi
    a6e2:	e8 93 e7 ff ff       	callq  8e7a <safe_rshift_func_uint16_t_u_u>
    a6e7:	0f b7 d0             	movzwl %ax,%edx
    a6ea:	8b 85 e0 ea ff ff    	mov    -0x1520(%rbp),%eax
    a6f0:	39 c2                	cmp    %eax,%edx
    a6f2:	0f 95 c0             	setne  %al
    a6f5:	0f b6 c0             	movzbl %al,%eax
    a6f8:	be 04 00 00 00       	mov    $0x4,%esi
    a6fd:	89 c7                	mov    %eax,%edi
    a6ff:	e8 dd dd ff ff       	callq  84e1 <safe_lshift_func_int16_t_s_u>
    a704:	44 89 e6             	mov    %r12d,%esi
    a707:	bf 01 00 00 00       	mov    $0x1,%edi
    a70c:	e8 2c e6 ff ff       	callq  8d3d <safe_mul_func_uint16_t_u_u>
    a711:	0f b7 c0             	movzwl %ax,%eax
    a714:	39 85 94 e7 ff ff    	cmp    %eax,-0x186c(%rbp)
    a71a:	0f 95 c0             	setne  %al
    a71d:	0f b6 c0             	movzbl %al,%eax
    a720:	be 94 65 00 00       	mov    $0x6594,%esi
    a725:	89 c7                	mov    %eax,%edi
    a727:	e8 f3 e5 ff ff       	callq  8d1f <safe_sub_func_uint16_t_u_u>
    a72c:	48 8d 05 c1 2c 01 00 	lea    0x12cc1(%rip),%rax        # 1d3f4 <g_500+0x4>
    a733:	8b 10                	mov    (%rax),%edx
    a735:	0f bf 85 b8 e7 ff ff 	movswl -0x1848(%rbp),%eax
    a73c:	39 85 dc e7 ff ff    	cmp    %eax,-0x1824(%rbp)
    a742:	0f 9e c0             	setle  %al
    a745:	0f b6 c0             	movzbl %al,%eax
    a748:	89 d6                	mov    %edx,%esi
    a74a:	89 c7                	mov    %eax,%edi
    a74c:	e8 ae df ff ff       	callq  86ff <safe_div_func_int32_t_s_s>
    a751:	0f b7 c0             	movzwl %ax,%eax
    a754:	89 de                	mov    %ebx,%esi
    a756:	89 c7                	mov    %eax,%edi
    a758:	e8 ff e5 ff ff       	callq  8d5c <safe_mod_func_uint16_t_u_u>
    a75d:	0f b6 d0             	movzbl %al,%edx
    a760:	8b 85 dc e7 ff ff    	mov    -0x1824(%rbp),%eax
    a766:	f7 d0                	not    %eax
    a768:	0f b6 c0             	movzbl %al,%eax
    a76b:	89 d6                	mov    %edx,%esi
    a76d:	89 c7                	mov    %eax,%edi
    a76f:	e8 e6 e3 ff ff       	callq  8b5a <safe_add_func_uint8_t_u_u>
    a774:	84 c0                	test   %al,%al
    a776:	0f 84 82 11 00 00    	je     b8fe <func_2+0x1f9e>
    a77c:	66 c7 85 c2 e7 ff ff 	movw   $0x8fac,-0x183e(%rbp)
    a783:	ac 8f 
    a785:	48 8d 05 34 9c 01 00 	lea    0x19c34(%rip),%rax        # 243c0 <g_2630>
    a78c:	48 89 85 80 e8 ff ff 	mov    %rax,-0x1780(%rbp)
    a793:	48 8d 85 80 e8 ff ff 	lea    -0x1780(%rbp),%rax
    a79a:	48 89 85 20 f0 ff ff 	mov    %rax,-0xfe0(%rbp)
    a7a1:	48 8d 85 80 e8 ff ff 	lea    -0x1780(%rbp),%rax
    a7a8:	48 89 85 28 f0 ff ff 	mov    %rax,-0xfd8(%rbp)
    a7af:	48 8d 85 80 e8 ff ff 	lea    -0x1780(%rbp),%rax
    a7b6:	48 89 85 30 f0 ff ff 	mov    %rax,-0xfd0(%rbp)
    a7bd:	48 8d 85 80 e8 ff ff 	lea    -0x1780(%rbp),%rax
    a7c4:	48 89 85 38 f0 ff ff 	mov    %rax,-0xfc8(%rbp)
    a7cb:	48 8d 85 80 e8 ff ff 	lea    -0x1780(%rbp),%rax
    a7d2:	48 89 85 40 f0 ff ff 	mov    %rax,-0xfc0(%rbp)
    a7d9:	48 8d 85 80 e8 ff ff 	lea    -0x1780(%rbp),%rax
    a7e0:	48 89 85 48 f0 ff ff 	mov    %rax,-0xfb8(%rbp)
    a7e7:	48 8d 85 80 e8 ff ff 	lea    -0x1780(%rbp),%rax
    a7ee:	48 89 85 50 f0 ff ff 	mov    %rax,-0xfb0(%rbp)
    a7f5:	48 8d 85 80 e8 ff ff 	lea    -0x1780(%rbp),%rax
    a7fc:	48 89 85 58 f0 ff ff 	mov    %rax,-0xfa8(%rbp)
    a803:	48 8d 85 80 e8 ff ff 	lea    -0x1780(%rbp),%rax
    a80a:	48 89 85 60 f0 ff ff 	mov    %rax,-0xfa0(%rbp)
    a811:	48 c7 85 68 f0 ff ff 	movq   $0x0,-0xf98(%rbp)
    a818:	00 00 00 00 
    a81c:	48 8d 85 80 e8 ff ff 	lea    -0x1780(%rbp),%rax
    a823:	48 89 85 70 f0 ff ff 	mov    %rax,-0xf90(%rbp)
    a82a:	48 8d 85 80 e8 ff ff 	lea    -0x1780(%rbp),%rax
    a831:	48 89 85 78 f0 ff ff 	mov    %rax,-0xf88(%rbp)
    a838:	48 8d 85 80 e8 ff ff 	lea    -0x1780(%rbp),%rax
    a83f:	48 89 85 80 f0 ff ff 	mov    %rax,-0xf80(%rbp)
    a846:	48 8d 85 80 e8 ff ff 	lea    -0x1780(%rbp),%rax
    a84d:	48 89 85 88 f0 ff ff 	mov    %rax,-0xf78(%rbp)
    a854:	48 8d 85 80 e8 ff ff 	lea    -0x1780(%rbp),%rax
    a85b:	48 89 85 90 f0 ff ff 	mov    %rax,-0xf70(%rbp)
    a862:	48 8d 85 80 e8 ff ff 	lea    -0x1780(%rbp),%rax
    a869:	48 89 85 98 f0 ff ff 	mov    %rax,-0xf68(%rbp)
    a870:	48 8d 85 80 e8 ff ff 	lea    -0x1780(%rbp),%rax
    a877:	48 89 85 a0 f0 ff ff 	mov    %rax,-0xf60(%rbp)
    a87e:	48 8d 85 80 e8 ff ff 	lea    -0x1780(%rbp),%rax
    a885:	48 89 85 a8 f0 ff ff 	mov    %rax,-0xf58(%rbp)
    a88c:	48 8d 85 80 e8 ff ff 	lea    -0x1780(%rbp),%rax
    a893:	48 89 85 b0 f0 ff ff 	mov    %rax,-0xf50(%rbp)
    a89a:	48 8d 85 80 e8 ff ff 	lea    -0x1780(%rbp),%rax
    a8a1:	48 89 85 b8 f0 ff ff 	mov    %rax,-0xf48(%rbp)
    a8a8:	48 8d 85 80 e8 ff ff 	lea    -0x1780(%rbp),%rax
    a8af:	48 89 85 c0 f0 ff ff 	mov    %rax,-0xf40(%rbp)
    a8b6:	48 8d 85 80 e8 ff ff 	lea    -0x1780(%rbp),%rax
    a8bd:	48 89 85 c8 f0 ff ff 	mov    %rax,-0xf38(%rbp)
    a8c4:	48 8d 85 80 e8 ff ff 	lea    -0x1780(%rbp),%rax
    a8cb:	48 89 85 d0 f0 ff ff 	mov    %rax,-0xf30(%rbp)
    a8d2:	48 8d 85 80 e8 ff ff 	lea    -0x1780(%rbp),%rax
    a8d9:	48 89 85 d8 f0 ff ff 	mov    %rax,-0xf28(%rbp)
    a8e0:	48 8d 85 80 e8 ff ff 	lea    -0x1780(%rbp),%rax
    a8e7:	48 89 85 e0 f0 ff ff 	mov    %rax,-0xf20(%rbp)
    a8ee:	48 8d 85 80 e8 ff ff 	lea    -0x1780(%rbp),%rax
    a8f5:	48 89 85 e8 f0 ff ff 	mov    %rax,-0xf18(%rbp)
    a8fc:	48 8d 85 80 e8 ff ff 	lea    -0x1780(%rbp),%rax
    a903:	48 89 85 f0 f0 ff ff 	mov    %rax,-0xf10(%rbp)
    a90a:	48 8d 85 80 e8 ff ff 	lea    -0x1780(%rbp),%rax
    a911:	48 89 85 f8 f0 ff ff 	mov    %rax,-0xf08(%rbp)
    a918:	48 c7 85 00 f1 ff ff 	movq   $0x0,-0xf00(%rbp)
    a91f:	00 00 00 00 
    a923:	48 c7 85 08 f1 ff ff 	movq   $0x0,-0xef8(%rbp)
    a92a:	00 00 00 00 
    a92e:	48 8d 85 80 e8 ff ff 	lea    -0x1780(%rbp),%rax
    a935:	48 89 85 10 f1 ff ff 	mov    %rax,-0xef0(%rbp)
    a93c:	48 8d 85 80 e8 ff ff 	lea    -0x1780(%rbp),%rax
    a943:	48 89 85 18 f1 ff ff 	mov    %rax,-0xee8(%rbp)
    a94a:	48 c7 85 20 f1 ff ff 	movq   $0x0,-0xee0(%rbp)
    a951:	00 00 00 00 
    a955:	48 8d 85 80 e8 ff ff 	lea    -0x1780(%rbp),%rax
    a95c:	48 89 85 28 f1 ff ff 	mov    %rax,-0xed8(%rbp)
    a963:	48 8d 85 80 e8 ff ff 	lea    -0x1780(%rbp),%rax
    a96a:	48 89 85 30 f1 ff ff 	mov    %rax,-0xed0(%rbp)
    a971:	48 8d 85 80 e8 ff ff 	lea    -0x1780(%rbp),%rax
    a978:	48 89 85 38 f1 ff ff 	mov    %rax,-0xec8(%rbp)
    a97f:	48 8d 85 80 e8 ff ff 	lea    -0x1780(%rbp),%rax
    a986:	48 89 85 40 f1 ff ff 	mov    %rax,-0xec0(%rbp)
    a98d:	48 8d 85 80 e8 ff ff 	lea    -0x1780(%rbp),%rax
    a994:	48 89 85 48 f1 ff ff 	mov    %rax,-0xeb8(%rbp)
    a99b:	48 8d 85 80 e8 ff ff 	lea    -0x1780(%rbp),%rax
    a9a2:	48 89 85 50 f1 ff ff 	mov    %rax,-0xeb0(%rbp)
    a9a9:	48 8d 85 80 e8 ff ff 	lea    -0x1780(%rbp),%rax
    a9b0:	48 89 85 58 f1 ff ff 	mov    %rax,-0xea8(%rbp)
    a9b7:	48 8d 85 80 e8 ff ff 	lea    -0x1780(%rbp),%rax
    a9be:	48 89 85 60 f1 ff ff 	mov    %rax,-0xea0(%rbp)
    a9c5:	48 c7 85 68 f1 ff ff 	movq   $0x0,-0xe98(%rbp)
    a9cc:	00 00 00 00 
    a9d0:	48 c7 85 70 f1 ff ff 	movq   $0x0,-0xe90(%rbp)
    a9d7:	00 00 00 00 
    a9db:	48 8d 85 80 e8 ff ff 	lea    -0x1780(%rbp),%rax
    a9e2:	48 89 85 78 f1 ff ff 	mov    %rax,-0xe88(%rbp)
    a9e9:	48 8d 85 80 e8 ff ff 	lea    -0x1780(%rbp),%rax
    a9f0:	48 89 85 80 f1 ff ff 	mov    %rax,-0xe80(%rbp)
    a9f7:	48 8d 85 80 e8 ff ff 	lea    -0x1780(%rbp),%rax
    a9fe:	48 89 85 88 f1 ff ff 	mov    %rax,-0xe78(%rbp)
    aa05:	48 8d 85 80 e8 ff ff 	lea    -0x1780(%rbp),%rax
    aa0c:	48 89 85 90 f1 ff ff 	mov    %rax,-0xe70(%rbp)
    aa13:	48 8d 85 80 e8 ff ff 	lea    -0x1780(%rbp),%rax
    aa1a:	48 89 85 98 f1 ff ff 	mov    %rax,-0xe68(%rbp)
    aa21:	48 8d 85 80 e8 ff ff 	lea    -0x1780(%rbp),%rax
    aa28:	48 89 85 a0 f1 ff ff 	mov    %rax,-0xe60(%rbp)
    aa2f:	48 8d 85 80 e8 ff ff 	lea    -0x1780(%rbp),%rax
    aa36:	48 89 85 a8 f1 ff ff 	mov    %rax,-0xe58(%rbp)
    aa3d:	48 8d 85 80 e8 ff ff 	lea    -0x1780(%rbp),%rax
    aa44:	48 89 85 b0 f1 ff ff 	mov    %rax,-0xe50(%rbp)
    aa4b:	48 c7 85 b8 f1 ff ff 	movq   $0x0,-0xe48(%rbp)
    aa52:	00 00 00 00 
    aa56:	48 8d 85 80 e8 ff ff 	lea    -0x1780(%rbp),%rax
    aa5d:	48 89 85 c0 f1 ff ff 	mov    %rax,-0xe40(%rbp)
    aa64:	48 8d 85 80 e8 ff ff 	lea    -0x1780(%rbp),%rax
    aa6b:	48 89 85 c8 f1 ff ff 	mov    %rax,-0xe38(%rbp)
    aa72:	48 c7 85 d0 f1 ff ff 	movq   $0x0,-0xe30(%rbp)
    aa79:	00 00 00 00 
    aa7d:	48 8d 85 80 e8 ff ff 	lea    -0x1780(%rbp),%rax
    aa84:	48 89 85 d8 f1 ff ff 	mov    %rax,-0xe28(%rbp)
    aa8b:	48 8d 85 80 e8 ff ff 	lea    -0x1780(%rbp),%rax
    aa92:	48 89 85 e0 f1 ff ff 	mov    %rax,-0xe20(%rbp)
    aa99:	48 8d 85 80 e8 ff ff 	lea    -0x1780(%rbp),%rax
    aaa0:	48 89 85 e8 f1 ff ff 	mov    %rax,-0xe18(%rbp)
    aaa7:	48 c7 85 f0 f1 ff ff 	movq   $0x0,-0xe10(%rbp)
    aaae:	00 00 00 00 
    aab2:	48 8d 85 80 e8 ff ff 	lea    -0x1780(%rbp),%rax
    aab9:	48 89 85 f8 f1 ff ff 	mov    %rax,-0xe08(%rbp)
    aac0:	48 8d 85 80 e8 ff ff 	lea    -0x1780(%rbp),%rax
    aac7:	48 89 85 00 f2 ff ff 	mov    %rax,-0xe00(%rbp)
    aace:	48 8d 85 80 e8 ff ff 	lea    -0x1780(%rbp),%rax
    aad5:	48 89 85 08 f2 ff ff 	mov    %rax,-0xdf8(%rbp)
    aadc:	48 8d 85 80 e8 ff ff 	lea    -0x1780(%rbp),%rax
    aae3:	48 89 85 10 f2 ff ff 	mov    %rax,-0xdf0(%rbp)
    aaea:	48 8d 85 80 e8 ff ff 	lea    -0x1780(%rbp),%rax
    aaf1:	48 89 85 18 f2 ff ff 	mov    %rax,-0xde8(%rbp)
    aaf8:	48 8d 85 80 e8 ff ff 	lea    -0x1780(%rbp),%rax
    aaff:	48 89 85 20 f2 ff ff 	mov    %rax,-0xde0(%rbp)
    ab06:	48 8d 85 80 e8 ff ff 	lea    -0x1780(%rbp),%rax
    ab0d:	48 89 85 28 f2 ff ff 	mov    %rax,-0xdd8(%rbp)
    ab14:	48 8d 85 80 e8 ff ff 	lea    -0x1780(%rbp),%rax
    ab1b:	48 89 85 30 f2 ff ff 	mov    %rax,-0xdd0(%rbp)
    ab22:	48 8d 85 80 e8 ff ff 	lea    -0x1780(%rbp),%rax
    ab29:	48 89 85 38 f2 ff ff 	mov    %rax,-0xdc8(%rbp)
    ab30:	48 8d 85 80 e8 ff ff 	lea    -0x1780(%rbp),%rax
    ab37:	48 89 85 40 f2 ff ff 	mov    %rax,-0xdc0(%rbp)
    ab3e:	48 8d 85 80 e8 ff ff 	lea    -0x1780(%rbp),%rax
    ab45:	48 89 85 48 f2 ff ff 	mov    %rax,-0xdb8(%rbp)
    ab4c:	48 8d 85 80 e8 ff ff 	lea    -0x1780(%rbp),%rax
    ab53:	48 89 85 50 f2 ff ff 	mov    %rax,-0xdb0(%rbp)
    ab5a:	48 c7 85 58 f2 ff ff 	movq   $0x0,-0xda8(%rbp)
    ab61:	00 00 00 00 
    ab65:	48 8d 85 80 e8 ff ff 	lea    -0x1780(%rbp),%rax
    ab6c:	48 89 85 60 f2 ff ff 	mov    %rax,-0xda0(%rbp)
    ab73:	48 8d 85 80 e8 ff ff 	lea    -0x1780(%rbp),%rax
    ab7a:	48 89 85 68 f2 ff ff 	mov    %rax,-0xd98(%rbp)
    ab81:	48 8d 85 80 e8 ff ff 	lea    -0x1780(%rbp),%rax
    ab88:	48 89 85 70 f2 ff ff 	mov    %rax,-0xd90(%rbp)
    ab8f:	48 8d 85 80 e8 ff ff 	lea    -0x1780(%rbp),%rax
    ab96:	48 89 85 78 f2 ff ff 	mov    %rax,-0xd88(%rbp)
    ab9d:	48 8d 85 80 e8 ff ff 	lea    -0x1780(%rbp),%rax
    aba4:	48 89 85 80 f2 ff ff 	mov    %rax,-0xd80(%rbp)
    abab:	48 c7 85 88 f2 ff ff 	movq   $0x0,-0xd78(%rbp)
    abb2:	00 00 00 00 
    abb6:	48 8d 85 80 e8 ff ff 	lea    -0x1780(%rbp),%rax
    abbd:	48 89 85 90 f2 ff ff 	mov    %rax,-0xd70(%rbp)
    abc4:	48 8d 85 80 e8 ff ff 	lea    -0x1780(%rbp),%rax
    abcb:	48 89 85 98 f2 ff ff 	mov    %rax,-0xd68(%rbp)
    abd2:	48 8d 85 80 e8 ff ff 	lea    -0x1780(%rbp),%rax
    abd9:	48 89 85 a0 f2 ff ff 	mov    %rax,-0xd60(%rbp)
    abe0:	48 8d 85 80 e8 ff ff 	lea    -0x1780(%rbp),%rax
    abe7:	48 89 85 a8 f2 ff ff 	mov    %rax,-0xd58(%rbp)
    abee:	48 8d 85 80 e8 ff ff 	lea    -0x1780(%rbp),%rax
    abf5:	48 89 85 b0 f2 ff ff 	mov    %rax,-0xd50(%rbp)
    abfc:	48 8d 85 80 e8 ff ff 	lea    -0x1780(%rbp),%rax
    ac03:	48 89 85 b8 f2 ff ff 	mov    %rax,-0xd48(%rbp)
    ac0a:	48 8d 85 80 e8 ff ff 	lea    -0x1780(%rbp),%rax
    ac11:	48 89 85 c0 f2 ff ff 	mov    %rax,-0xd40(%rbp)
    ac18:	48 8d 85 80 e8 ff ff 	lea    -0x1780(%rbp),%rax
    ac1f:	48 89 85 c8 f2 ff ff 	mov    %rax,-0xd38(%rbp)
    ac26:	48 c7 85 d0 f2 ff ff 	movq   $0x0,-0xd30(%rbp)
    ac2d:	00 00 00 00 
    ac31:	48 c7 85 d8 f2 ff ff 	movq   $0x0,-0xd28(%rbp)
    ac38:	00 00 00 00 
    ac3c:	48 8d 85 80 e8 ff ff 	lea    -0x1780(%rbp),%rax
    ac43:	48 89 85 e0 f2 ff ff 	mov    %rax,-0xd20(%rbp)
    ac4a:	48 8d 85 80 e8 ff ff 	lea    -0x1780(%rbp),%rax
    ac51:	48 89 85 e8 f2 ff ff 	mov    %rax,-0xd18(%rbp)
    ac58:	48 8d 85 80 e8 ff ff 	lea    -0x1780(%rbp),%rax
    ac5f:	48 89 85 f0 f2 ff ff 	mov    %rax,-0xd10(%rbp)
    ac66:	48 8d 85 80 e8 ff ff 	lea    -0x1780(%rbp),%rax
    ac6d:	48 89 85 f8 f2 ff ff 	mov    %rax,-0xd08(%rbp)
    ac74:	48 8d 85 80 e8 ff ff 	lea    -0x1780(%rbp),%rax
    ac7b:	48 89 85 00 f3 ff ff 	mov    %rax,-0xd00(%rbp)
    ac82:	48 8d 85 80 e8 ff ff 	lea    -0x1780(%rbp),%rax
    ac89:	48 89 85 08 f3 ff ff 	mov    %rax,-0xcf8(%rbp)
    ac90:	48 8d 85 80 e8 ff ff 	lea    -0x1780(%rbp),%rax
    ac97:	48 89 85 10 f3 ff ff 	mov    %rax,-0xcf0(%rbp)
    ac9e:	48 8d 85 80 e8 ff ff 	lea    -0x1780(%rbp),%rax
    aca5:	48 89 85 18 f3 ff ff 	mov    %rax,-0xce8(%rbp)
    acac:	48 c7 85 20 f3 ff ff 	movq   $0x0,-0xce0(%rbp)
    acb3:	00 00 00 00 
    acb7:	48 8d 85 80 e8 ff ff 	lea    -0x1780(%rbp),%rax
    acbe:	48 89 85 28 f3 ff ff 	mov    %rax,-0xcd8(%rbp)
    acc5:	48 8d 85 80 e8 ff ff 	lea    -0x1780(%rbp),%rax
    accc:	48 89 85 30 f3 ff ff 	mov    %rax,-0xcd0(%rbp)
    acd3:	48 8d 85 80 e8 ff ff 	lea    -0x1780(%rbp),%rax
    acda:	48 89 85 38 f3 ff ff 	mov    %rax,-0xcc8(%rbp)
    ace1:	48 8d 85 80 e8 ff ff 	lea    -0x1780(%rbp),%rax
    ace8:	48 89 85 40 f3 ff ff 	mov    %rax,-0xcc0(%rbp)
    acef:	48 8d 85 80 e8 ff ff 	lea    -0x1780(%rbp),%rax
    acf6:	48 89 85 48 f3 ff ff 	mov    %rax,-0xcb8(%rbp)
    acfd:	48 8d 85 80 e8 ff ff 	lea    -0x1780(%rbp),%rax
    ad04:	48 89 85 50 f3 ff ff 	mov    %rax,-0xcb0(%rbp)
    ad0b:	48 8d 85 80 e8 ff ff 	lea    -0x1780(%rbp),%rax
    ad12:	48 89 85 58 f3 ff ff 	mov    %rax,-0xca8(%rbp)
    ad19:	48 8d 85 80 e8 ff ff 	lea    -0x1780(%rbp),%rax
    ad20:	48 89 85 60 f3 ff ff 	mov    %rax,-0xca0(%rbp)
    ad27:	48 8d 85 80 e8 ff ff 	lea    -0x1780(%rbp),%rax
    ad2e:	48 89 85 68 f3 ff ff 	mov    %rax,-0xc98(%rbp)
    ad35:	48 8d 85 80 e8 ff ff 	lea    -0x1780(%rbp),%rax
    ad3c:	48 89 85 70 f3 ff ff 	mov    %rax,-0xc90(%rbp)
    ad43:	48 8d 85 80 e8 ff ff 	lea    -0x1780(%rbp),%rax
    ad4a:	48 89 85 78 f3 ff ff 	mov    %rax,-0xc88(%rbp)
    ad51:	48 8d 85 80 e8 ff ff 	lea    -0x1780(%rbp),%rax
    ad58:	48 89 85 80 f3 ff ff 	mov    %rax,-0xc80(%rbp)
    ad5f:	48 8d 85 80 e8 ff ff 	lea    -0x1780(%rbp),%rax
    ad66:	48 89 85 88 f3 ff ff 	mov    %rax,-0xc78(%rbp)
    ad6d:	48 8d 85 80 e8 ff ff 	lea    -0x1780(%rbp),%rax
    ad74:	48 89 85 90 f3 ff ff 	mov    %rax,-0xc70(%rbp)
    ad7b:	48 c7 85 98 f3 ff ff 	movq   $0x0,-0xc68(%rbp)
    ad82:	00 00 00 00 
    ad86:	48 8d 85 80 e8 ff ff 	lea    -0x1780(%rbp),%rax
    ad8d:	48 89 85 a0 f3 ff ff 	mov    %rax,-0xc60(%rbp)
    ad94:	48 8d 85 80 e8 ff ff 	lea    -0x1780(%rbp),%rax
    ad9b:	48 89 85 a8 f3 ff ff 	mov    %rax,-0xc58(%rbp)
    ada2:	48 8d 85 80 e8 ff ff 	lea    -0x1780(%rbp),%rax
    ada9:	48 89 85 b0 f3 ff ff 	mov    %rax,-0xc50(%rbp)
    adb0:	48 8d 85 80 e8 ff ff 	lea    -0x1780(%rbp),%rax
    adb7:	48 89 85 b8 f3 ff ff 	mov    %rax,-0xc48(%rbp)
    adbe:	48 8d 85 80 e8 ff ff 	lea    -0x1780(%rbp),%rax
    adc5:	48 89 85 c0 f3 ff ff 	mov    %rax,-0xc40(%rbp)
    adcc:	48 c7 85 c8 f3 ff ff 	movq   $0x0,-0xc38(%rbp)
    add3:	00 00 00 00 
    add7:	48 8d 85 80 e8 ff ff 	lea    -0x1780(%rbp),%rax
    adde:	48 89 85 d0 f3 ff ff 	mov    %rax,-0xc30(%rbp)
    ade5:	48 8d 85 80 e8 ff ff 	lea    -0x1780(%rbp),%rax
    adec:	48 89 85 d8 f3 ff ff 	mov    %rax,-0xc28(%rbp)
    adf3:	48 8d 85 80 e8 ff ff 	lea    -0x1780(%rbp),%rax
    adfa:	48 89 85 e0 f3 ff ff 	mov    %rax,-0xc20(%rbp)
    ae01:	48 8d 85 80 e8 ff ff 	lea    -0x1780(%rbp),%rax
    ae08:	48 89 85 e8 f3 ff ff 	mov    %rax,-0xc18(%rbp)
    ae0f:	48 8d 85 80 e8 ff ff 	lea    -0x1780(%rbp),%rax
    ae16:	48 89 85 f0 f3 ff ff 	mov    %rax,-0xc10(%rbp)
    ae1d:	48 8d 85 80 e8 ff ff 	lea    -0x1780(%rbp),%rax
    ae24:	48 89 85 f8 f3 ff ff 	mov    %rax,-0xc08(%rbp)
    ae2b:	48 8d 85 80 e8 ff ff 	lea    -0x1780(%rbp),%rax
    ae32:	48 89 85 00 f4 ff ff 	mov    %rax,-0xc00(%rbp)
    ae39:	48 8d 85 80 e8 ff ff 	lea    -0x1780(%rbp),%rax
    ae40:	48 89 85 08 f4 ff ff 	mov    %rax,-0xbf8(%rbp)
    ae47:	48 8d 85 80 e8 ff ff 	lea    -0x1780(%rbp),%rax
    ae4e:	48 89 85 10 f4 ff ff 	mov    %rax,-0xbf0(%rbp)
    ae55:	48 8d 85 80 e8 ff ff 	lea    -0x1780(%rbp),%rax
    ae5c:	48 89 85 18 f4 ff ff 	mov    %rax,-0xbe8(%rbp)
    ae63:	48 8d 85 80 e8 ff ff 	lea    -0x1780(%rbp),%rax
    ae6a:	48 89 85 20 f4 ff ff 	mov    %rax,-0xbe0(%rbp)
    ae71:	48 8d 85 80 e8 ff ff 	lea    -0x1780(%rbp),%rax
    ae78:	48 89 85 28 f4 ff ff 	mov    %rax,-0xbd8(%rbp)
    ae7f:	48 8d 85 80 e8 ff ff 	lea    -0x1780(%rbp),%rax
    ae86:	48 89 85 30 f4 ff ff 	mov    %rax,-0xbd0(%rbp)
    ae8d:	48 8d 85 80 e8 ff ff 	lea    -0x1780(%rbp),%rax
    ae94:	48 89 85 38 f4 ff ff 	mov    %rax,-0xbc8(%rbp)
    ae9b:	48 8d 85 80 e8 ff ff 	lea    -0x1780(%rbp),%rax
    aea2:	48 89 85 40 f4 ff ff 	mov    %rax,-0xbc0(%rbp)
    aea9:	48 8d 85 80 e8 ff ff 	lea    -0x1780(%rbp),%rax
    aeb0:	48 89 85 48 f4 ff ff 	mov    %rax,-0xbb8(%rbp)
    aeb7:	48 8d 85 80 e8 ff ff 	lea    -0x1780(%rbp),%rax
    aebe:	48 89 85 50 f4 ff ff 	mov    %rax,-0xbb0(%rbp)
    aec5:	48 8d 85 80 e8 ff ff 	lea    -0x1780(%rbp),%rax
    aecc:	48 89 85 58 f4 ff ff 	mov    %rax,-0xba8(%rbp)
    aed3:	48 8d 85 80 e8 ff ff 	lea    -0x1780(%rbp),%rax
    aeda:	48 89 85 60 f4 ff ff 	mov    %rax,-0xba0(%rbp)
    aee1:	48 c7 85 68 f4 ff ff 	movq   $0x0,-0xb98(%rbp)
    aee8:	00 00 00 00 
    aeec:	48 8d 85 80 e8 ff ff 	lea    -0x1780(%rbp),%rax
    aef3:	48 89 85 70 f4 ff ff 	mov    %rax,-0xb90(%rbp)
    aefa:	48 8d 85 80 e8 ff ff 	lea    -0x1780(%rbp),%rax
    af01:	48 89 85 78 f4 ff ff 	mov    %rax,-0xb88(%rbp)
    af08:	48 8d 85 80 e8 ff ff 	lea    -0x1780(%rbp),%rax
    af0f:	48 89 85 80 f4 ff ff 	mov    %rax,-0xb80(%rbp)
    af16:	48 8d 85 80 e8 ff ff 	lea    -0x1780(%rbp),%rax
    af1d:	48 89 85 88 f4 ff ff 	mov    %rax,-0xb78(%rbp)
    af24:	48 8d 85 80 e8 ff ff 	lea    -0x1780(%rbp),%rax
    af2b:	48 89 85 90 f4 ff ff 	mov    %rax,-0xb70(%rbp)
    af32:	48 8d 85 80 e8 ff ff 	lea    -0x1780(%rbp),%rax
    af39:	48 89 85 98 f4 ff ff 	mov    %rax,-0xb68(%rbp)
    af40:	48 8d 85 80 e8 ff ff 	lea    -0x1780(%rbp),%rax
    af47:	48 89 85 a0 f4 ff ff 	mov    %rax,-0xb60(%rbp)
    af4e:	48 8d 85 80 e8 ff ff 	lea    -0x1780(%rbp),%rax
    af55:	48 89 85 a8 f4 ff ff 	mov    %rax,-0xb58(%rbp)
    af5c:	48 8d 85 80 e8 ff ff 	lea    -0x1780(%rbp),%rax
    af63:	48 89 85 b0 f4 ff ff 	mov    %rax,-0xb50(%rbp)
    af6a:	48 8d 85 80 e8 ff ff 	lea    -0x1780(%rbp),%rax
    af71:	48 89 85 b8 f4 ff ff 	mov    %rax,-0xb48(%rbp)
    af78:	48 8d 85 80 e8 ff ff 	lea    -0x1780(%rbp),%rax
    af7f:	48 89 85 c0 f4 ff ff 	mov    %rax,-0xb40(%rbp)
    af86:	48 8d 85 80 e8 ff ff 	lea    -0x1780(%rbp),%rax
    af8d:	48 89 85 c8 f4 ff ff 	mov    %rax,-0xb38(%rbp)
    af94:	48 8d 85 80 e8 ff ff 	lea    -0x1780(%rbp),%rax
    af9b:	48 89 85 d0 f4 ff ff 	mov    %rax,-0xb30(%rbp)
    afa2:	48 8d 85 80 e8 ff ff 	lea    -0x1780(%rbp),%rax
    afa9:	48 89 85 d8 f4 ff ff 	mov    %rax,-0xb28(%rbp)
    afb0:	48 8d 85 80 e8 ff ff 	lea    -0x1780(%rbp),%rax
    afb7:	48 89 85 e0 f4 ff ff 	mov    %rax,-0xb20(%rbp)
    afbe:	48 8d 85 80 e8 ff ff 	lea    -0x1780(%rbp),%rax
    afc5:	48 89 85 e8 f4 ff ff 	mov    %rax,-0xb18(%rbp)
    afcc:	48 8d 85 80 e8 ff ff 	lea    -0x1780(%rbp),%rax
    afd3:	48 89 85 f0 f4 ff ff 	mov    %rax,-0xb10(%rbp)
    afda:	48 8d 85 80 e8 ff ff 	lea    -0x1780(%rbp),%rax
    afe1:	48 89 85 f8 f4 ff ff 	mov    %rax,-0xb08(%rbp)
    afe8:	48 8d 85 80 e8 ff ff 	lea    -0x1780(%rbp),%rax
    afef:	48 89 85 00 f5 ff ff 	mov    %rax,-0xb00(%rbp)
    aff6:	48 8d 85 80 e8 ff ff 	lea    -0x1780(%rbp),%rax
    affd:	48 89 85 08 f5 ff ff 	mov    %rax,-0xaf8(%rbp)
    b004:	48 8d 85 80 e8 ff ff 	lea    -0x1780(%rbp),%rax
    b00b:	48 89 85 10 f5 ff ff 	mov    %rax,-0xaf0(%rbp)
    b012:	48 8d 85 80 e8 ff ff 	lea    -0x1780(%rbp),%rax
    b019:	48 89 85 18 f5 ff ff 	mov    %rax,-0xae8(%rbp)
    b020:	48 8d 85 80 e8 ff ff 	lea    -0x1780(%rbp),%rax
    b027:	48 89 85 20 f5 ff ff 	mov    %rax,-0xae0(%rbp)
    b02e:	48 c7 85 28 f5 ff ff 	movq   $0x0,-0xad8(%rbp)
    b035:	00 00 00 00 
    b039:	48 8d 85 80 e8 ff ff 	lea    -0x1780(%rbp),%rax
    b040:	48 89 85 30 f5 ff ff 	mov    %rax,-0xad0(%rbp)
    b047:	48 8d 85 80 e8 ff ff 	lea    -0x1780(%rbp),%rax
    b04e:	48 89 85 38 f5 ff ff 	mov    %rax,-0xac8(%rbp)
    b055:	48 8d 85 80 e8 ff ff 	lea    -0x1780(%rbp),%rax
    b05c:	48 89 85 40 f5 ff ff 	mov    %rax,-0xac0(%rbp)
    b063:	48 8d 85 80 e8 ff ff 	lea    -0x1780(%rbp),%rax
    b06a:	48 89 85 48 f5 ff ff 	mov    %rax,-0xab8(%rbp)
    b071:	48 8d 85 80 e8 ff ff 	lea    -0x1780(%rbp),%rax
    b078:	48 89 85 50 f5 ff ff 	mov    %rax,-0xab0(%rbp)
    b07f:	48 c7 85 58 f5 ff ff 	movq   $0x0,-0xaa8(%rbp)
    b086:	00 00 00 00 
    b08a:	48 8d 85 80 e8 ff ff 	lea    -0x1780(%rbp),%rax
    b091:	48 89 85 60 f5 ff ff 	mov    %rax,-0xaa0(%rbp)
    b098:	48 8d 85 80 e8 ff ff 	lea    -0x1780(%rbp),%rax
    b09f:	48 89 85 68 f5 ff ff 	mov    %rax,-0xa98(%rbp)
    b0a6:	48 8d 85 80 e8 ff ff 	lea    -0x1780(%rbp),%rax
    b0ad:	48 89 85 70 f5 ff ff 	mov    %rax,-0xa90(%rbp)
    b0b4:	48 8d 85 80 e8 ff ff 	lea    -0x1780(%rbp),%rax
    b0bb:	48 89 85 78 f5 ff ff 	mov    %rax,-0xa88(%rbp)
    b0c2:	48 8d 85 80 e8 ff ff 	lea    -0x1780(%rbp),%rax
    b0c9:	48 89 85 80 f5 ff ff 	mov    %rax,-0xa80(%rbp)
    b0d0:	48 8d 85 80 e8 ff ff 	lea    -0x1780(%rbp),%rax
    b0d7:	48 89 85 88 f5 ff ff 	mov    %rax,-0xa78(%rbp)
    b0de:	48 8d 85 80 e8 ff ff 	lea    -0x1780(%rbp),%rax
    b0e5:	48 89 85 90 f5 ff ff 	mov    %rax,-0xa70(%rbp)
    b0ec:	48 8d 85 80 e8 ff ff 	lea    -0x1780(%rbp),%rax
    b0f3:	48 89 85 98 f5 ff ff 	mov    %rax,-0xa68(%rbp)
    b0fa:	48 c7 85 a0 f5 ff ff 	movq   $0x0,-0xa60(%rbp)
    b101:	00 00 00 00 
    b105:	48 c7 85 a8 f5 ff ff 	movq   $0x0,-0xa58(%rbp)
    b10c:	00 00 00 00 
    b110:	48 8d 85 80 e8 ff ff 	lea    -0x1780(%rbp),%rax
    b117:	48 89 85 b0 f5 ff ff 	mov    %rax,-0xa50(%rbp)
    b11e:	48 8d 85 80 e8 ff ff 	lea    -0x1780(%rbp),%rax
    b125:	48 89 85 b8 f5 ff ff 	mov    %rax,-0xa48(%rbp)
    b12c:	48 8d 85 80 e8 ff ff 	lea    -0x1780(%rbp),%rax
    b133:	48 89 85 c0 f5 ff ff 	mov    %rax,-0xa40(%rbp)
    b13a:	48 8d 85 80 e8 ff ff 	lea    -0x1780(%rbp),%rax
    b141:	48 89 85 c8 f5 ff ff 	mov    %rax,-0xa38(%rbp)
    b148:	48 8d 85 80 e8 ff ff 	lea    -0x1780(%rbp),%rax
    b14f:	48 89 85 d0 f5 ff ff 	mov    %rax,-0xa30(%rbp)
    b156:	48 8d 85 80 e8 ff ff 	lea    -0x1780(%rbp),%rax
    b15d:	48 89 85 d8 f5 ff ff 	mov    %rax,-0xa28(%rbp)
    b164:	48 8d 85 80 e8 ff ff 	lea    -0x1780(%rbp),%rax
    b16b:	48 89 85 e0 f5 ff ff 	mov    %rax,-0xa20(%rbp)
    b172:	48 8d 85 80 e8 ff ff 	lea    -0x1780(%rbp),%rax
    b179:	48 89 85 e8 f5 ff ff 	mov    %rax,-0xa18(%rbp)
    b180:	48 c7 85 f0 f5 ff ff 	movq   $0x0,-0xa10(%rbp)
    b187:	00 00 00 00 
    b18b:	48 8d 85 80 e8 ff ff 	lea    -0x1780(%rbp),%rax
    b192:	48 89 85 f8 f5 ff ff 	mov    %rax,-0xa08(%rbp)
    b199:	48 8d 85 80 e8 ff ff 	lea    -0x1780(%rbp),%rax
    b1a0:	48 89 85 00 f6 ff ff 	mov    %rax,-0xa00(%rbp)
    b1a7:	48 8d 85 80 e8 ff ff 	lea    -0x1780(%rbp),%rax
    b1ae:	48 89 85 08 f6 ff ff 	mov    %rax,-0x9f8(%rbp)
    b1b5:	48 8d 85 80 e8 ff ff 	lea    -0x1780(%rbp),%rax
    b1bc:	48 89 85 10 f6 ff ff 	mov    %rax,-0x9f0(%rbp)
    b1c3:	48 8d 85 80 e8 ff ff 	lea    -0x1780(%rbp),%rax
    b1ca:	48 89 85 18 f6 ff ff 	mov    %rax,-0x9e8(%rbp)
    b1d1:	48 8d 85 80 e8 ff ff 	lea    -0x1780(%rbp),%rax
    b1d8:	48 89 85 20 f6 ff ff 	mov    %rax,-0x9e0(%rbp)
    b1df:	48 8d 85 80 e8 ff ff 	lea    -0x1780(%rbp),%rax
    b1e6:	48 89 85 28 f6 ff ff 	mov    %rax,-0x9d8(%rbp)
    b1ed:	48 8d 85 80 e8 ff ff 	lea    -0x1780(%rbp),%rax
    b1f4:	48 89 85 30 f6 ff ff 	mov    %rax,-0x9d0(%rbp)
    b1fb:	48 8d 85 80 e8 ff ff 	lea    -0x1780(%rbp),%rax
    b202:	48 89 85 38 f6 ff ff 	mov    %rax,-0x9c8(%rbp)
    b209:	48 8d 85 80 e8 ff ff 	lea    -0x1780(%rbp),%rax
    b210:	48 89 85 40 f6 ff ff 	mov    %rax,-0x9c0(%rbp)
    b217:	48 8d 85 80 e8 ff ff 	lea    -0x1780(%rbp),%rax
    b21e:	48 89 85 48 f6 ff ff 	mov    %rax,-0x9b8(%rbp)
    b225:	48 8d 85 80 e8 ff ff 	lea    -0x1780(%rbp),%rax
    b22c:	48 89 85 50 f6 ff ff 	mov    %rax,-0x9b0(%rbp)
    b233:	48 8d 85 80 e8 ff ff 	lea    -0x1780(%rbp),%rax
    b23a:	48 89 85 58 f6 ff ff 	mov    %rax,-0x9a8(%rbp)
    b241:	48 8d 85 80 e8 ff ff 	lea    -0x1780(%rbp),%rax
    b248:	48 89 85 60 f6 ff ff 	mov    %rax,-0x9a0(%rbp)
    b24f:	48 c7 85 68 f6 ff ff 	movq   $0x0,-0x998(%rbp)
    b256:	00 00 00 00 
    b25a:	48 8d 85 80 e8 ff ff 	lea    -0x1780(%rbp),%rax
    b261:	48 89 85 70 f6 ff ff 	mov    %rax,-0x990(%rbp)
    b268:	48 8d 85 80 e8 ff ff 	lea    -0x1780(%rbp),%rax
    b26f:	48 89 85 78 f6 ff ff 	mov    %rax,-0x988(%rbp)
    b276:	48 8d 85 80 e8 ff ff 	lea    -0x1780(%rbp),%rax
    b27d:	48 89 85 80 f6 ff ff 	mov    %rax,-0x980(%rbp)
    b284:	48 8d 85 80 e8 ff ff 	lea    -0x1780(%rbp),%rax
    b28b:	48 89 85 88 f6 ff ff 	mov    %rax,-0x978(%rbp)
    b292:	48 8d 85 80 e8 ff ff 	lea    -0x1780(%rbp),%rax
    b299:	48 89 85 90 f6 ff ff 	mov    %rax,-0x970(%rbp)
    b2a0:	48 c7 85 98 f6 ff ff 	movq   $0x0,-0x968(%rbp)
    b2a7:	00 00 00 00 
    b2ab:	48 8d 85 80 e8 ff ff 	lea    -0x1780(%rbp),%rax
    b2b2:	48 89 85 a0 f6 ff ff 	mov    %rax,-0x960(%rbp)
    b2b9:	48 8d 85 80 e8 ff ff 	lea    -0x1780(%rbp),%rax
    b2c0:	48 89 85 a8 f6 ff ff 	mov    %rax,-0x958(%rbp)
    b2c7:	48 8d 85 80 e8 ff ff 	lea    -0x1780(%rbp),%rax
    b2ce:	48 89 85 b0 f6 ff ff 	mov    %rax,-0x950(%rbp)
    b2d5:	48 8d 85 80 e8 ff ff 	lea    -0x1780(%rbp),%rax
    b2dc:	48 89 85 b8 f6 ff ff 	mov    %rax,-0x948(%rbp)
    b2e3:	48 8d 85 80 e8 ff ff 	lea    -0x1780(%rbp),%rax
    b2ea:	48 89 85 c0 f6 ff ff 	mov    %rax,-0x940(%rbp)
    b2f1:	48 8d 85 80 e8 ff ff 	lea    -0x1780(%rbp),%rax
    b2f8:	48 89 85 c8 f6 ff ff 	mov    %rax,-0x938(%rbp)
    b2ff:	48 8d 85 80 e8 ff ff 	lea    -0x1780(%rbp),%rax
    b306:	48 89 85 d0 f6 ff ff 	mov    %rax,-0x930(%rbp)
    b30d:	48 8d 85 80 e8 ff ff 	lea    -0x1780(%rbp),%rax
    b314:	48 89 85 d8 f6 ff ff 	mov    %rax,-0x928(%rbp)
    b31b:	48 8d 85 80 e8 ff ff 	lea    -0x1780(%rbp),%rax
    b322:	48 89 85 e0 f6 ff ff 	mov    %rax,-0x920(%rbp)
    b329:	48 8d 85 80 e8 ff ff 	lea    -0x1780(%rbp),%rax
    b330:	48 89 85 e8 f6 ff ff 	mov    %rax,-0x918(%rbp)
    b337:	48 8d 85 80 e8 ff ff 	lea    -0x1780(%rbp),%rax
    b33e:	48 89 85 f0 f6 ff ff 	mov    %rax,-0x910(%rbp)
    b345:	48 8d 85 80 e8 ff ff 	lea    -0x1780(%rbp),%rax
    b34c:	48 89 85 f8 f6 ff ff 	mov    %rax,-0x908(%rbp)
    b353:	48 8d 85 80 e8 ff ff 	lea    -0x1780(%rbp),%rax
    b35a:	48 89 85 00 f7 ff ff 	mov    %rax,-0x900(%rbp)
    b361:	48 8d 85 80 e8 ff ff 	lea    -0x1780(%rbp),%rax
    b368:	48 89 85 08 f7 ff ff 	mov    %rax,-0x8f8(%rbp)
    b36f:	48 8d 85 80 e8 ff ff 	lea    -0x1780(%rbp),%rax
    b376:	48 89 85 10 f7 ff ff 	mov    %rax,-0x8f0(%rbp)
    b37d:	48 8d 85 80 e8 ff ff 	lea    -0x1780(%rbp),%rax
    b384:	48 89 85 18 f7 ff ff 	mov    %rax,-0x8e8(%rbp)
    b38b:	48 8d 85 80 e8 ff ff 	lea    -0x1780(%rbp),%rax
    b392:	48 89 85 20 f7 ff ff 	mov    %rax,-0x8e0(%rbp)
    b399:	48 8d 85 80 e8 ff ff 	lea    -0x1780(%rbp),%rax
    b3a0:	48 89 85 28 f7 ff ff 	mov    %rax,-0x8d8(%rbp)
    b3a7:	48 8d 85 80 e8 ff ff 	lea    -0x1780(%rbp),%rax
    b3ae:	48 89 85 30 f7 ff ff 	mov    %rax,-0x8d0(%rbp)
    b3b5:	48 c7 85 38 f7 ff ff 	movq   $0x0,-0x8c8(%rbp)
    b3bc:	00 00 00 00 
    b3c0:	48 8d 85 80 e8 ff ff 	lea    -0x1780(%rbp),%rax
    b3c7:	48 89 85 40 f7 ff ff 	mov    %rax,-0x8c0(%rbp)
    b3ce:	48 8d 85 80 e8 ff ff 	lea    -0x1780(%rbp),%rax
    b3d5:	48 89 85 48 f7 ff ff 	mov    %rax,-0x8b8(%rbp)
    b3dc:	48 8d 85 80 e8 ff ff 	lea    -0x1780(%rbp),%rax
    b3e3:	48 89 85 50 f7 ff ff 	mov    %rax,-0x8b0(%rbp)
    b3ea:	48 8d 85 80 e8 ff ff 	lea    -0x1780(%rbp),%rax
    b3f1:	48 89 85 58 f7 ff ff 	mov    %rax,-0x8a8(%rbp)
    b3f8:	48 8d 85 80 e8 ff ff 	lea    -0x1780(%rbp),%rax
    b3ff:	48 89 85 60 f7 ff ff 	mov    %rax,-0x8a0(%rbp)
    b406:	48 8d 85 80 e8 ff ff 	lea    -0x1780(%rbp),%rax
    b40d:	48 89 85 68 f7 ff ff 	mov    %rax,-0x898(%rbp)
    b414:	48 8d 85 80 e8 ff ff 	lea    -0x1780(%rbp),%rax
    b41b:	48 89 85 70 f7 ff ff 	mov    %rax,-0x890(%rbp)
    b422:	48 8d 85 80 e8 ff ff 	lea    -0x1780(%rbp),%rax
    b429:	48 89 85 78 f7 ff ff 	mov    %rax,-0x888(%rbp)
    b430:	48 8d 85 80 e8 ff ff 	lea    -0x1780(%rbp),%rax
    b437:	48 89 85 80 f7 ff ff 	mov    %rax,-0x880(%rbp)
    b43e:	48 8d 85 80 e8 ff ff 	lea    -0x1780(%rbp),%rax
    b445:	48 89 85 88 f7 ff ff 	mov    %rax,-0x878(%rbp)
    b44c:	48 8d 85 80 e8 ff ff 	lea    -0x1780(%rbp),%rax
    b453:	48 89 85 90 f7 ff ff 	mov    %rax,-0x870(%rbp)
    b45a:	48 8d 85 80 e8 ff ff 	lea    -0x1780(%rbp),%rax
    b461:	48 89 85 98 f7 ff ff 	mov    %rax,-0x868(%rbp)
    b468:	48 8d 85 80 e8 ff ff 	lea    -0x1780(%rbp),%rax
    b46f:	48 89 85 a0 f7 ff ff 	mov    %rax,-0x860(%rbp)
    b476:	48 8d 85 80 e8 ff ff 	lea    -0x1780(%rbp),%rax
    b47d:	48 89 85 a8 f7 ff ff 	mov    %rax,-0x858(%rbp)
    b484:	48 8d 85 80 e8 ff ff 	lea    -0x1780(%rbp),%rax
    b48b:	48 89 85 b0 f7 ff ff 	mov    %rax,-0x850(%rbp)
    b492:	48 8d 85 80 e8 ff ff 	lea    -0x1780(%rbp),%rax
    b499:	48 89 85 b8 f7 ff ff 	mov    %rax,-0x848(%rbp)
    b4a0:	48 8d 85 80 e8 ff ff 	lea    -0x1780(%rbp),%rax
    b4a7:	48 89 85 c0 f7 ff ff 	mov    %rax,-0x840(%rbp)
    b4ae:	48 8d 85 80 e8 ff ff 	lea    -0x1780(%rbp),%rax
    b4b5:	48 89 85 c8 f7 ff ff 	mov    %rax,-0x838(%rbp)
    b4bc:	48 8d 85 80 e8 ff ff 	lea    -0x1780(%rbp),%rax
    b4c3:	48 89 85 d0 f7 ff ff 	mov    %rax,-0x830(%rbp)
    b4ca:	48 8d 85 80 e8 ff ff 	lea    -0x1780(%rbp),%rax
    b4d1:	48 89 85 d8 f7 ff ff 	mov    %rax,-0x828(%rbp)
    b4d8:	48 8d 85 80 e8 ff ff 	lea    -0x1780(%rbp),%rax
    b4df:	48 89 85 e0 f7 ff ff 	mov    %rax,-0x820(%rbp)
    b4e6:	48 8d 85 80 e8 ff ff 	lea    -0x1780(%rbp),%rax
    b4ed:	48 89 85 e8 f7 ff ff 	mov    %rax,-0x818(%rbp)
    b4f4:	c7 85 e0 e7 ff ff 01 	movl   $0x8ccdbf01,-0x1820(%rbp)
    b4fb:	bf cd 8c 
    b4fe:	c7 85 e4 e7 ff ff 00 	movl   $0x0,-0x181c(%rbp)
    b505:	00 00 00 
    b508:	eb 1a                	jmp    b524 <func_2+0x1bc4>
    b50a:	8b 85 e4 e7 ff ff    	mov    -0x181c(%rbp),%eax
    b510:	48 98                	cltq   
    b512:	c7 84 85 60 ec ff ff 	movl   $0x57a22482,-0x13a0(%rbp,%rax,4)
    b519:	82 24 a2 57 
    b51d:	83 85 e4 e7 ff ff 01 	addl   $0x1,-0x181c(%rbp)
    b524:	83 bd e4 e7 ff ff 00 	cmpl   $0x0,-0x181c(%rbp)
    b52b:	7e dd                	jle    b50a <func_2+0x1baa>
    b52d:	8b 85 dc e7 ff ff    	mov    -0x1824(%rbp),%eax
    b533:	0f b6 c0             	movzbl %al,%eax
    b536:	89 c6                	mov    %eax,%esi
    b538:	bf 00 00 00 00       	mov    $0x0,%edi
    b53d:	e8 51 d6 ff ff       	callq  8b93 <safe_mul_func_uint8_t_u_u>
    b542:	0f b6 c0             	movzbl %al,%eax
    b545:	89 85 98 ea ff ff    	mov    %eax,-0x1568(%rbp)
    b54b:	8b 85 98 ea ff ff    	mov    -0x1568(%rbp),%eax
    b551:	09 85 08 e8 ff ff    	or     %eax,-0x17f8(%rbp)
    b557:	48 8b 05 2a 7c 01 00 	mov    0x17c2a(%rip),%rax        # 23188 <g_637>
    b55e:	48 8b 00             	mov    (%rax),%rax
    b561:	48 8b 00             	mov    (%rax),%rax
    b564:	48 8d 95 1c ea ff ff 	lea    -0x15e4(%rbp),%rdx
    b56b:	48 89 10             	mov    %rdx,(%rax)
    b56e:	c7 85 dc e7 ff ff 1d 	movl   $0x1d,-0x1824(%rbp)
    b575:	00 00 00 
    b578:	e9 6f 03 00 00       	jmpq   b8ec <func_2+0x1f8c>
    b57d:	48 8d 85 c4 e7 ff ff 	lea    -0x183c(%rbp),%rax
    b584:	48 89 85 a8 e9 ff ff 	mov    %rax,-0x1658(%rbp)
    b58b:	48 8d 85 c0 ea ff ff 	lea    -0x1540(%rbp),%rax
    b592:	48 83 c0 20          	add    $0x20,%rax
    b596:	48 89 85 b0 e9 ff ff 	mov    %rax,-0x1650(%rbp)
    b59d:	48 c7 85 b8 e9 ff ff 	movq   $0x0,-0x1648(%rbp)
    b5a4:	00 00 00 00 
    b5a8:	48 8d 85 f0 f7 ff ff 	lea    -0x810(%rbp),%rax
    b5af:	48 8d 15 8a 6b 01 00 	lea    0x16b8a(%rip),%rdx        # 22140 <g_3063+0x40>
    b5b6:	b9 fa 00 00 00       	mov    $0xfa,%ecx
    b5bb:	48 89 c7             	mov    %rax,%rdi
    b5be:	48 89 d6             	mov    %rdx,%rsi
    b5c1:	f3 48 a5             	rep movsq %ds:(%rsi),%es:(%rdi)
    b5c4:	48 8d 85 f0 f7 ff ff 	lea    -0x810(%rbp),%rax
    b5cb:	48 05 d8 02 00 00    	add    $0x2d8,%rax
    b5d1:	48 89 85 88 e8 ff ff 	mov    %rax,-0x1778(%rbp)
    b5d8:	48 8d 85 88 e8 ff ff 	lea    -0x1778(%rbp),%rax
    b5df:	48 89 85 c0 e9 ff ff 	mov    %rax,-0x1640(%rbp)
    b5e6:	48 c7 85 c8 e9 ff ff 	movq   $0x0,-0x1638(%rbp)
    b5ed:	00 00 00 00 
    b5f1:	48 8d 05 18 64 01 00 	lea    0x16418(%rip),%rax        # 21a10 <g_2080>
    b5f8:	48 89 85 30 ee ff ff 	mov    %rax,-0x11d0(%rbp)
    b5ff:	48 8d 05 0a 64 01 00 	lea    0x1640a(%rip),%rax        # 21a10 <g_2080>
    b606:	48 89 85 38 ee ff ff 	mov    %rax,-0x11c8(%rbp)
    b60d:	48 8d 05 dc 69 01 00 	lea    0x169dc(%rip),%rax        # 21ff0 <g_2624>
    b614:	48 89 85 40 ee ff ff 	mov    %rax,-0x11c0(%rbp)
    b61b:	48 8d 05 ee 63 01 00 	lea    0x163ee(%rip),%rax        # 21a10 <g_2080>
    b622:	48 89 85 48 ee ff ff 	mov    %rax,-0x11b8(%rbp)
    b629:	48 8d 05 e0 63 01 00 	lea    0x163e0(%rip),%rax        # 21a10 <g_2080>
    b630:	48 89 85 50 ee ff ff 	mov    %rax,-0x11b0(%rbp)
    b637:	48 8d 05 b2 69 01 00 	lea    0x169b2(%rip),%rax        # 21ff0 <g_2624>
    b63e:	48 89 85 58 ee ff ff 	mov    %rax,-0x11a8(%rbp)
    b645:	48 8d 05 c4 63 01 00 	lea    0x163c4(%rip),%rax        # 21a10 <g_2080>
    b64c:	48 89 85 60 ee ff ff 	mov    %rax,-0x11a0(%rbp)
    b653:	c7 85 44 e8 ff ff fb 	movl   $0xfffffffb,-0x17bc(%rbp)
    b65a:	ff ff ff 
    b65d:	c7 85 e8 e7 ff ff 00 	movl   $0x0,-0x1818(%rbp)
    b664:	00 00 00 
    b667:	eb 46                	jmp    b6af <func_2+0x1d4f>
    b669:	c7 85 ec e7 ff ff 00 	movl   $0x0,-0x1814(%rbp)
    b670:	00 00 00 
    b673:	eb 2a                	jmp    b69f <func_2+0x1d3f>
    b675:	8b 85 ec e7 ff ff    	mov    -0x1814(%rbp),%eax
    b67b:	48 63 d0             	movslq %eax,%rdx
    b67e:	8b 85 e8 e7 ff ff    	mov    -0x1818(%rbp),%eax
    b684:	48 98                	cltq   
    b686:	48 01 d0             	add    %rdx,%rax
    b689:	48 8d 15 60 1d 01 00 	lea    0x11d60(%rip),%rdx        # 1d3f0 <g_500>
    b690:	48 89 94 c5 50 ed ff 	mov    %rdx,-0x12b0(%rbp,%rax,8)
    b697:	ff 
    b698:	83 85 ec e7 ff ff 01 	addl   $0x1,-0x1814(%rbp)
    b69f:	83 bd ec e7 ff ff 00 	cmpl   $0x0,-0x1814(%rbp)
    b6a6:	7e cd                	jle    b675 <func_2+0x1d15>
    b6a8:	83 85 e8 e7 ff ff 01 	addl   $0x1,-0x1818(%rbp)
    b6af:	83 bd e8 e7 ff ff 05 	cmpl   $0x5,-0x1818(%rbp)
    b6b6:	7e b1                	jle    b669 <func_2+0x1d09>
    b6b8:	48 8d 05 35 1d 01 00 	lea    0x11d35(%rip),%rax        # 1d3f4 <g_500+0x4>
    b6bf:	8b 00                	mov    (%rax),%eax
    b6c1:	23 85 94 e7 ff ff    	and    -0x186c(%rbp),%eax
    b6c7:	89 c2                	mov    %eax,%edx
    b6c9:	48 8d 05 24 1d 01 00 	lea    0x11d24(%rip),%rax        # 1d3f4 <g_500+0x4>
    b6d0:	89 10                	mov    %edx,(%rax)
    b6d2:	66 83 ad b4 e7 ff ff 	subw   $0x1,-0x184c(%rbp)
    b6d9:	01 
    b6da:	8b 9d 9c e7 ff ff    	mov    -0x1864(%rbp),%ebx
    b6e0:	0f b6 85 98 e7 ff ff 	movzbl -0x1868(%rbp),%eax
    b6e7:	39 85 dc e7 ff ff    	cmp    %eax,-0x1824(%rbp)
    b6ed:	0f 9d c0             	setge  %al
    b6f0:	44 0f b6 e0          	movzbl %al,%r12d
    b6f4:	48 8b 95 88 e8 ff ff 	mov    -0x1778(%rbp),%rdx
    b6fb:	48 8b 85 c0 e9 ff ff 	mov    -0x1640(%rbp),%rax
    b702:	48 89 10             	mov    %rdx,(%rax)
    b705:	48 8b 85 c0 e9 ff ff 	mov    -0x1640(%rbp),%rax
    b70c:	48 8b 10             	mov    (%rax),%rdx
    b70f:	48 8d 85 f0 f7 ff ff 	lea    -0x810(%rbp),%rax
    b716:	48 05 90 00 00 00    	add    $0x90,%rax
    b71c:	48 89 85 30 f1 ff ff 	mov    %rax,-0xed0(%rbp)
    b723:	48 8b 85 30 f1 ff ff 	mov    -0xed0(%rbp),%rax
    b72a:	48 39 c2             	cmp    %rax,%rdx
    b72d:	74 1d                	je     b74c <func_2+0x1dec>
    b72f:	0f b7 05 d4 68 01 00 	movzwl 0x168d4(%rip),%eax        # 2200a <g_2756+0x2>
    b736:	8d 50 01             	lea    0x1(%rax),%edx
    b739:	66 89 15 ca 68 01 00 	mov    %dx,0x168ca(%rip)        # 2200a <g_2756+0x2>
    b740:	66 85 c0             	test   %ax,%ax
    b743:	74 07                	je     b74c <func_2+0x1dec>
    b745:	b8 01 00 00 00       	mov    $0x1,%eax
    b74a:	eb 05                	jmp    b751 <func_2+0x1df1>
    b74c:	b8 00 00 00 00       	mov    $0x0,%eax
    b751:	3d fc 00 00 00       	cmp    $0xfc,%eax
    b756:	0f 95 c0             	setne  %al
    b759:	0f b6 c0             	movzbl %al,%eax
    b75c:	39 85 94 e7 ff ff    	cmp    %eax,-0x186c(%rbp)
    b762:	76 17                	jbe    b77b <func_2+0x1e1b>
    b764:	8b 85 e0 e7 ff ff    	mov    -0x1820(%rbp),%eax
    b76a:	8d 50 ff             	lea    -0x1(%rax),%edx
    b76d:	89 95 e0 e7 ff ff    	mov    %edx,-0x1820(%rbp)
    b773:	39 85 94 e7 ff ff    	cmp    %eax,-0x186c(%rbp)
    b779:	77 07                	ja     b782 <func_2+0x1e22>
    b77b:	b8 01 00 00 00       	mov    $0x1,%eax
    b780:	eb 05                	jmp    b787 <func_2+0x1e27>
    b782:	b8 00 00 00 00       	mov    $0x0,%eax
    b787:	0f b7 c0             	movzwl %ax,%eax
    b78a:	be 06 00 00 00       	mov    $0x6,%esi
    b78f:	89 c7                	mov    %eax,%edi
    b791:	e8 a7 d5 ff ff       	callq  8d3d <safe_mul_func_uint16_t_u_u>
    b796:	98                   	cwtl   
    b797:	44 89 e6             	mov    %r12d,%esi
    b79a:	89 c7                	mov    %eax,%edi
    b79c:	e8 c2 cd ff ff       	callq  8563 <safe_rshift_func_int16_t_s_u>
    b7a1:	98                   	cwtl   
    b7a2:	89 85 60 ec ff ff    	mov    %eax,-0x13a0(%rbp)
    b7a8:	be 07 00 00 00       	mov    $0x7,%esi
    b7ad:	bf f7 ff ff ff       	mov    $0xfffffff7,%edi
    b7b2:	e8 7e cb ff ff       	callq  8335 <safe_rshift_func_int8_t_s_s>
    b7b7:	0f be d0             	movsbl %al,%edx
    b7ba:	48 8b 85 80 e7 ff ff 	mov    -0x1880(%rbp),%rax
    b7c1:	0f b6 00             	movzbl (%rax),%eax
    b7c4:	0f be c0             	movsbl %al,%eax
    b7c7:	89 d6                	mov    %edx,%esi
    b7c9:	89 c7                	mov    %eax,%edi
    b7cb:	e8 9a ca ff ff       	callq  826a <safe_div_func_int8_t_s_s>
    b7d0:	0f be c0             	movsbl %al,%eax
    b7d3:	39 85 9c e7 ff ff    	cmp    %eax,-0x1864(%rbp)
    b7d9:	0f 93 c0             	setae  %al
    b7dc:	0f b6 d0             	movzbl %al,%edx
    b7df:	0f bf 85 c2 e7 ff ff 	movswl -0x183e(%rbp),%eax
    b7e6:	31 d0                	xor    %edx,%eax
    b7e8:	3d e6 00 00 00       	cmp    $0xe6,%eax
    b7ed:	0f 9e c0             	setle  %al
    b7f0:	0f b6 c0             	movzbl %al,%eax
    b7f3:	48 89 de             	mov    %rbx,%rsi
    b7f6:	48 89 c7             	mov    %rax,%rdi
    b7f9:	e8 b6 d1 ff ff       	callq  89b4 <safe_mod_func_int64_t_s_s>
    b7fe:	48 8b 95 80 e7 ff ff 	mov    -0x1880(%rbp),%rdx
    b805:	0f b6 12             	movzbl (%rdx),%edx
    b808:	48 0f be d2          	movsbq %dl,%rdx
    b80c:	48 39 d0             	cmp    %rdx,%rax
    b80f:	0f 9e c0             	setle  %al
    b812:	0f b6 d0             	movzbl %al,%edx
    b815:	48 8b 85 b0 e9 ff ff 	mov    -0x1650(%rbp),%rax
    b81c:	89 10                	mov    %edx,(%rax)
    b81e:	8b 85 44 e8 ff ff    	mov    -0x17bc(%rbp),%eax
    b824:	0f b7 d8             	movzwl %ax,%ebx
    b827:	48 8b 05 e2 67 01 00 	mov    0x167e2(%rip),%rax        # 22010 <g_2764>
    b82e:	8b 85 9c e7 ff ff    	mov    -0x1864(%rbp),%eax
    b834:	0f b6 d0             	movzbl %al,%edx
    b837:	0f b6 85 98 e7 ff ff 	movzbl -0x1868(%rbp),%eax
    b83e:	89 d6                	mov    %edx,%esi
    b840:	89 c7                	mov    %eax,%edi
    b842:	e8 31 d3 ff ff       	callq  8b78 <safe_sub_func_uint8_t_u_u>
    b847:	84 c0                	test   %al,%al
    b849:	74 4f                	je     b89a <func_2+0x1f3a>
    b84b:	0f b6 85 98 e7 ff ff 	movzbl -0x1868(%rbp),%eax
    b852:	0f be c0             	movsbl %al,%eax
    b855:	48 83 bd 10 e9 ff ff 	cmpq   $0x0,-0x16f0(%rbp)
    b85c:	00 
    b85d:	0f 95 c1             	setne  %cl
    b860:	48 8b 15 51 73 01 00 	mov    0x17351(%rip),%rdx        # 22bb8 <g_74>
    b867:	0f b6 c9             	movzbl %cl,%ecx
    b86a:	89 0a                	mov    %ecx,(%rdx)
    b86c:	89 c6                	mov    %eax,%esi
    b86e:	bf 68 00 00 00       	mov    $0x68,%edi
    b873:	e8 5c c9 ff ff       	callq  81d4 <safe_add_func_int8_t_s_s>
    b878:	8b 95 1c ea ff ff    	mov    -0x15e4(%rbp),%edx
    b87e:	0f be c0             	movsbl %al,%eax
    b881:	09 d0                	or     %edx,%eax
    b883:	89 85 1c ea ff ff    	mov    %eax,-0x15e4(%rbp)
    b889:	8b 85 1c ea ff ff    	mov    -0x15e4(%rbp),%eax
    b88f:	85 c0                	test   %eax,%eax
    b891:	74 07                	je     b89a <func_2+0x1f3a>
    b893:	b8 01 00 00 00       	mov    $0x1,%eax
    b898:	eb 05                	jmp    b89f <func_2+0x1f3f>
    b89a:	b8 00 00 00 00       	mov    $0x0,%eax
    b89f:	48 98                	cltq   
    b8a1:	48 89 c6             	mov    %rax,%rsi
    b8a4:	bf 05 00 00 00       	mov    $0x5,%edi
    b8a9:	e8 fa cf ff ff       	callq  88a8 <safe_sub_func_int64_t_s_s>
    b8ae:	8b 95 94 e7 ff ff    	mov    -0x186c(%rbp),%edx
    b8b4:	48 39 d0             	cmp    %rdx,%rax
    b8b7:	0f 9f c0             	setg   %al
    b8ba:	0f b6 c0             	movzbl %al,%eax
    b8bd:	be 05 00 00 00       	mov    $0x5,%esi
    b8c2:	89 c7                	mov    %eax,%edi
    b8c4:	e8 3c d3 ff ff       	callq  8c05 <safe_lshift_func_uint8_t_u_s>
    b8c9:	0f b6 c0             	movzbl %al,%eax
    b8cc:	89 de                	mov    %ebx,%esi
    b8ce:	89 c7                	mov    %eax,%edi
    b8d0:	e8 4a d4 ff ff       	callq  8d1f <safe_sub_func_uint16_t_u_u>
    b8d5:	48 8d 15 18 1b 01 00 	lea    0x11b18(%rip),%rdx        # 1d3f4 <g_500+0x4>
    b8dc:	0f b6 85 98 e7 ff ff 	movzbl -0x1868(%rbp),%eax
    b8e3:	89 02                	mov    %eax,(%rdx)
    b8e5:	83 ad dc e7 ff ff 01 	subl   $0x1,-0x1824(%rbp)
    b8ec:	83 bd dc e7 ff ff eb 	cmpl   $0xffffffeb,-0x1824(%rbp)
    b8f3:	0f 85 84 fc ff ff    	jne    b57d <func_2+0x1c1d>
    b8f9:	e9 5c 13 00 00       	jmpq   cc5a <func_2+0x32fa>
    b8fe:	c7 85 20 e8 ff ff 4e 	movl   $0x246e9d4e,-0x17e0(%rbp)
    b905:	9d 6e 24 
    b908:	c7 85 30 ee ff ff 99 	movl   $0x2604d799,-0x11d0(%rbp)
    b90f:	d7 04 26 
    b912:	c7 85 34 ee ff ff 99 	movl   $0x2604d799,-0x11cc(%rbp)
    b919:	d7 04 26 
    b91c:	c7 85 38 ee ff ff 99 	movl   $0x2604d799,-0x11c8(%rbp)
    b923:	d7 04 26 
    b926:	c7 85 3c ee ff ff 99 	movl   $0x2604d799,-0x11c4(%rbp)
    b92d:	d7 04 26 
    b930:	c7 85 40 ee ff ff 99 	movl   $0x2604d799,-0x11c0(%rbp)
    b937:	d7 04 26 
    b93a:	c7 85 44 ee ff ff 99 	movl   $0x2604d799,-0x11bc(%rbp)
    b941:	d7 04 26 
    b944:	c7 85 48 ee ff ff 99 	movl   $0x2604d799,-0x11b8(%rbp)
    b94b:	d7 04 26 
    b94e:	c7 85 4c ee ff ff 99 	movl   $0x2604d799,-0x11b4(%rbp)
    b955:	d7 04 26 
    b958:	c7 85 50 ee ff ff 99 	movl   $0x2604d799,-0x11b0(%rbp)
    b95f:	d7 04 26 
    b962:	c7 85 54 ee ff ff 99 	movl   $0x2604d799,-0x11ac(%rbp)
    b969:	d7 04 26 
    b96c:	c7 85 58 ee ff ff 99 	movl   $0x2604d799,-0x11a8(%rbp)
    b973:	d7 04 26 
    b976:	c7 85 5c ee ff ff 99 	movl   $0x2604d799,-0x11a4(%rbp)
    b97d:	d7 04 26 
    b980:	c7 85 60 ee ff ff 99 	movl   $0x2604d799,-0x11a0(%rbp)
    b987:	d7 04 26 
    b98a:	c7 85 64 ee ff ff 99 	movl   $0x2604d799,-0x119c(%rbp)
    b991:	d7 04 26 
    b994:	c7 85 68 ee ff ff 99 	movl   $0x2604d799,-0x1198(%rbp)
    b99b:	d7 04 26 
    b99e:	c7 85 6c ee ff ff 99 	movl   $0x2604d799,-0x1194(%rbp)
    b9a5:	d7 04 26 
    b9a8:	c7 85 70 ee ff ff 99 	movl   $0x2604d799,-0x1190(%rbp)
    b9af:	d7 04 26 
    b9b2:	c7 85 74 ee ff ff 99 	movl   $0x2604d799,-0x118c(%rbp)
    b9b9:	d7 04 26 
    b9bc:	c7 85 78 ee ff ff 99 	movl   $0x2604d799,-0x1188(%rbp)
    b9c3:	d7 04 26 
    b9c6:	c7 85 7c ee ff ff 99 	movl   $0x2604d799,-0x1184(%rbp)
    b9cd:	d7 04 26 
    b9d0:	c7 85 80 ee ff ff 99 	movl   $0x2604d799,-0x1180(%rbp)
    b9d7:	d7 04 26 
    b9da:	c7 85 84 ee ff ff 99 	movl   $0x2604d799,-0x117c(%rbp)
    b9e1:	d7 04 26 
    b9e4:	c7 85 88 ee ff ff 99 	movl   $0x2604d799,-0x1178(%rbp)
    b9eb:	d7 04 26 
    b9ee:	c7 85 8c ee ff ff 99 	movl   $0x2604d799,-0x1174(%rbp)
    b9f5:	d7 04 26 
    b9f8:	c7 85 90 ee ff ff 99 	movl   $0x2604d799,-0x1170(%rbp)
    b9ff:	d7 04 26 
    ba02:	c7 85 94 ee ff ff 99 	movl   $0x2604d799,-0x116c(%rbp)
    ba09:	d7 04 26 
    ba0c:	c7 85 98 ee ff ff 99 	movl   $0x2604d799,-0x1168(%rbp)
    ba13:	d7 04 26 
    ba16:	c7 85 9c ee ff ff 99 	movl   $0x2604d799,-0x1164(%rbp)
    ba1d:	d7 04 26 
    ba20:	c7 85 a0 ee ff ff 99 	movl   $0x2604d799,-0x1160(%rbp)
    ba27:	d7 04 26 
    ba2a:	c7 85 a4 ee ff ff 99 	movl   $0x2604d799,-0x115c(%rbp)
    ba31:	d7 04 26 
    ba34:	c7 85 a8 ee ff ff 99 	movl   $0x2604d799,-0x1158(%rbp)
    ba3b:	d7 04 26 
    ba3e:	c7 85 ac ee ff ff 99 	movl   $0x2604d799,-0x1154(%rbp)
    ba45:	d7 04 26 
    ba48:	c7 85 b0 ee ff ff 99 	movl   $0x2604d799,-0x1150(%rbp)
    ba4f:	d7 04 26 
    ba52:	c7 85 b4 ee ff ff 99 	movl   $0x2604d799,-0x114c(%rbp)
    ba59:	d7 04 26 
    ba5c:	c7 85 b8 ee ff ff 99 	movl   $0x2604d799,-0x1148(%rbp)
    ba63:	d7 04 26 
    ba66:	c7 85 bc ee ff ff 99 	movl   $0x2604d799,-0x1144(%rbp)
    ba6d:	d7 04 26 
    ba70:	c7 85 c0 ee ff ff 99 	movl   $0x2604d799,-0x1140(%rbp)
    ba77:	d7 04 26 
    ba7a:	c7 85 c4 ee ff ff 99 	movl   $0x2604d799,-0x113c(%rbp)
    ba81:	d7 04 26 
    ba84:	c7 85 c8 ee ff ff 99 	movl   $0x2604d799,-0x1138(%rbp)
    ba8b:	d7 04 26 
    ba8e:	c7 85 cc ee ff ff 99 	movl   $0x2604d799,-0x1134(%rbp)
    ba95:	d7 04 26 
    ba98:	c7 85 d0 ee ff ff 99 	movl   $0x2604d799,-0x1130(%rbp)
    ba9f:	d7 04 26 
    baa2:	c7 85 d4 ee ff ff 99 	movl   $0x2604d799,-0x112c(%rbp)
    baa9:	d7 04 26 
    baac:	c7 85 d8 ee ff ff 99 	movl   $0x2604d799,-0x1128(%rbp)
    bab3:	d7 04 26 
    bab6:	c7 85 dc ee ff ff 99 	movl   $0x2604d799,-0x1124(%rbp)
    babd:	d7 04 26 
    bac0:	c7 85 e0 ee ff ff 99 	movl   $0x2604d799,-0x1120(%rbp)
    bac7:	d7 04 26 
    baca:	c7 85 e4 ee ff ff 99 	movl   $0x2604d799,-0x111c(%rbp)
    bad1:	d7 04 26 
    bad4:	c7 85 e8 ee ff ff 99 	movl   $0x2604d799,-0x1118(%rbp)
    badb:	d7 04 26 
    bade:	c7 85 ec ee ff ff 99 	movl   $0x2604d799,-0x1114(%rbp)
    bae5:	d7 04 26 
    bae8:	c7 85 f0 ee ff ff 99 	movl   $0x2604d799,-0x1110(%rbp)
    baef:	d7 04 26 
    baf2:	c7 85 f4 ee ff ff 99 	movl   $0x2604d799,-0x110c(%rbp)
    baf9:	d7 04 26 
    bafc:	c7 85 f8 ee ff ff 99 	movl   $0x2604d799,-0x1108(%rbp)
    bb03:	d7 04 26 
    bb06:	c7 85 fc ee ff ff 99 	movl   $0x2604d799,-0x1104(%rbp)
    bb0d:	d7 04 26 
    bb10:	c7 85 00 ef ff ff 99 	movl   $0x2604d799,-0x1100(%rbp)
    bb17:	d7 04 26 
    bb1a:	c7 85 04 ef ff ff 99 	movl   $0x2604d799,-0x10fc(%rbp)
    bb21:	d7 04 26 
    bb24:	c7 85 08 ef ff ff 99 	movl   $0x2604d799,-0x10f8(%rbp)
    bb2b:	d7 04 26 
    bb2e:	c7 85 0c ef ff ff 99 	movl   $0x2604d799,-0x10f4(%rbp)
    bb35:	d7 04 26 
    bb38:	c7 85 10 ef ff ff 99 	movl   $0x2604d799,-0x10f0(%rbp)
    bb3f:	d7 04 26 
    bb42:	c7 85 14 ef ff ff 99 	movl   $0x2604d799,-0x10ec(%rbp)
    bb49:	d7 04 26 
    bb4c:	c7 85 18 ef ff ff 99 	movl   $0x2604d799,-0x10e8(%rbp)
    bb53:	d7 04 26 
    bb56:	c7 85 1c ef ff ff 99 	movl   $0x2604d799,-0x10e4(%rbp)
    bb5d:	d7 04 26 
    bb60:	48 c7 85 40 e9 ff ff 	movq   $0x0,-0x16c0(%rbp)
    bb67:	00 00 00 00 
    bb6b:	48 8d 05 7e 5d 01 00 	lea    0x15d7e(%rip),%rax        # 218f0 <g_1332>
    bb72:	48 89 85 78 e8 ff ff 	mov    %rax,-0x1788(%rbp)
    bb79:	66 c7 85 be e7 ff ff 	movw   $0xd947,-0x1842(%rbp)
    bb80:	47 d9 
    bb82:	66 c7 85 c0 e7 ff ff 	movw   $0x9a0a,-0x1840(%rbp)
    bb89:	0a 9a 
    bb8b:	48 8d 85 20 f0 ff ff 	lea    -0xfe0(%rbp),%rax
    bb92:	48 8d 15 87 6d 01 00 	lea    0x16d87(%rip),%rdx        # 22920 <g_3063+0x820>
    bb99:	b9 28 00 00 00       	mov    $0x28,%ecx
    bb9e:	48 89 c7             	mov    %rax,%rdi
    bba1:	48 89 d6             	mov    %rdx,%rsi
    bba4:	f3 48 a5             	rep movsq %ds:(%rsi),%es:(%rdi)
    bba7:	48 8d 85 20 f0 ff ff 	lea    -0xfe0(%rbp),%rax
    bbae:	48 05 10 01 00 00    	add    $0x110,%rax
    bbb4:	48 89 85 f0 f7 ff ff 	mov    %rax,-0x810(%rbp)
    bbbb:	48 8d 85 20 f0 ff ff 	lea    -0xfe0(%rbp),%rax
    bbc2:	48 83 c0 38          	add    $0x38,%rax
    bbc6:	48 89 85 f8 f7 ff ff 	mov    %rax,-0x808(%rbp)
    bbcd:	48 8d 85 20 f0 ff ff 	lea    -0xfe0(%rbp),%rax
    bbd4:	48 05 f0 00 00 00    	add    $0xf0,%rax
    bbda:	48 89 85 00 f8 ff ff 	mov    %rax,-0x800(%rbp)
    bbe1:	48 8d 85 20 f0 ff ff 	lea    -0xfe0(%rbp),%rax
    bbe8:	48 83 c0 38          	add    $0x38,%rax
    bbec:	48 89 85 08 f8 ff ff 	mov    %rax,-0x7f8(%rbp)
    bbf3:	48 8d 85 20 f0 ff ff 	lea    -0xfe0(%rbp),%rax
    bbfa:	48 05 f0 00 00 00    	add    $0xf0,%rax
    bc00:	48 89 85 10 f8 ff ff 	mov    %rax,-0x7f0(%rbp)
    bc07:	48 8d 85 20 f0 ff ff 	lea    -0xfe0(%rbp),%rax
    bc0e:	48 05 f0 00 00 00    	add    $0xf0,%rax
    bc14:	48 89 85 18 f8 ff ff 	mov    %rax,-0x7e8(%rbp)
    bc1b:	48 8d 85 20 f0 ff ff 	lea    -0xfe0(%rbp),%rax
    bc22:	48 05 f0 00 00 00    	add    $0xf0,%rax
    bc28:	48 89 85 20 f8 ff ff 	mov    %rax,-0x7e0(%rbp)
    bc2f:	48 8d 85 20 f0 ff ff 	lea    -0xfe0(%rbp),%rax
    bc36:	48 83 c0 38          	add    $0x38,%rax
    bc3a:	48 89 85 28 f8 ff ff 	mov    %rax,-0x7d8(%rbp)
    bc41:	48 8d 85 20 f0 ff ff 	lea    -0xfe0(%rbp),%rax
    bc48:	48 05 f0 00 00 00    	add    $0xf0,%rax
    bc4e:	48 89 85 30 f8 ff ff 	mov    %rax,-0x7d0(%rbp)
    bc55:	48 c7 85 38 f8 ff ff 	movq   $0x0,-0x7c8(%rbp)
    bc5c:	00 00 00 00 
    bc60:	48 8d 85 20 f0 ff ff 	lea    -0xfe0(%rbp),%rax
    bc67:	48 05 f0 00 00 00    	add    $0xf0,%rax
    bc6d:	48 89 85 40 f8 ff ff 	mov    %rax,-0x7c0(%rbp)
    bc74:	48 8d 85 20 f0 ff ff 	lea    -0xfe0(%rbp),%rax
    bc7b:	48 83 c0 10          	add    $0x10,%rax
    bc7f:	48 89 85 48 f8 ff ff 	mov    %rax,-0x7b8(%rbp)
    bc86:	48 8d 85 20 f0 ff ff 	lea    -0xfe0(%rbp),%rax
    bc8d:	48 83 c0 38          	add    $0x38,%rax
    bc91:	48 89 85 50 f8 ff ff 	mov    %rax,-0x7b0(%rbp)
    bc98:	48 8d 85 20 f0 ff ff 	lea    -0xfe0(%rbp),%rax
    bc9f:	48 05 f0 00 00 00    	add    $0xf0,%rax
    bca5:	48 89 85 58 f8 ff ff 	mov    %rax,-0x7a8(%rbp)
    bcac:	48 8d 85 20 f0 ff ff 	lea    -0xfe0(%rbp),%rax
    bcb3:	48 05 f0 00 00 00    	add    $0xf0,%rax
    bcb9:	48 89 85 60 f8 ff ff 	mov    %rax,-0x7a0(%rbp)
    bcc0:	48 8d 85 20 f0 ff ff 	lea    -0xfe0(%rbp),%rax
    bcc7:	48 05 f0 00 00 00    	add    $0xf0,%rax
    bccd:	48 89 85 68 f8 ff ff 	mov    %rax,-0x798(%rbp)
    bcd4:	48 8d 85 20 f0 ff ff 	lea    -0xfe0(%rbp),%rax
    bcdb:	48 05 f0 00 00 00    	add    $0xf0,%rax
    bce1:	48 89 85 70 f8 ff ff 	mov    %rax,-0x790(%rbp)
    bce8:	48 8d 85 20 f0 ff ff 	lea    -0xfe0(%rbp),%rax
    bcef:	48 83 c0 38          	add    $0x38,%rax
    bcf3:	48 89 85 78 f8 ff ff 	mov    %rax,-0x788(%rbp)
    bcfa:	48 8d 85 20 f0 ff ff 	lea    -0xfe0(%rbp),%rax
    bd01:	48 05 10 01 00 00    	add    $0x110,%rax
    bd07:	48 89 85 80 f8 ff ff 	mov    %rax,-0x780(%rbp)
    bd0e:	48 8d 85 20 f0 ff ff 	lea    -0xfe0(%rbp),%rax
    bd15:	48 05 10 01 00 00    	add    $0x110,%rax
    bd1b:	48 89 85 88 f8 ff ff 	mov    %rax,-0x778(%rbp)
    bd22:	48 8d 85 20 f0 ff ff 	lea    -0xfe0(%rbp),%rax
    bd29:	48 83 c0 38          	add    $0x38,%rax
    bd2d:	48 89 85 90 f8 ff ff 	mov    %rax,-0x770(%rbp)
    bd34:	48 8d 85 20 f0 ff ff 	lea    -0xfe0(%rbp),%rax
    bd3b:	48 05 f0 00 00 00    	add    $0xf0,%rax
    bd41:	48 89 85 98 f8 ff ff 	mov    %rax,-0x768(%rbp)
    bd48:	48 8d 85 20 f0 ff ff 	lea    -0xfe0(%rbp),%rax
    bd4f:	48 83 c0 38          	add    $0x38,%rax
    bd53:	48 89 85 a0 f8 ff ff 	mov    %rax,-0x760(%rbp)
    bd5a:	48 8d 85 20 f0 ff ff 	lea    -0xfe0(%rbp),%rax
    bd61:	48 05 f0 00 00 00    	add    $0xf0,%rax
    bd67:	48 89 85 a8 f8 ff ff 	mov    %rax,-0x758(%rbp)
    bd6e:	48 8d 85 20 f0 ff ff 	lea    -0xfe0(%rbp),%rax
    bd75:	48 05 f0 00 00 00    	add    $0xf0,%rax
    bd7b:	48 89 85 b0 f8 ff ff 	mov    %rax,-0x750(%rbp)
    bd82:	48 8d 85 20 f0 ff ff 	lea    -0xfe0(%rbp),%rax
    bd89:	48 05 38 01 00 00    	add    $0x138,%rax
    bd8f:	48 89 85 b8 f8 ff ff 	mov    %rax,-0x748(%rbp)
    bd96:	48 8d 85 20 f0 ff ff 	lea    -0xfe0(%rbp),%rax
    bd9d:	48 05 d8 00 00 00    	add    $0xd8,%rax
    bda3:	48 89 85 c0 f8 ff ff 	mov    %rax,-0x740(%rbp)
    bdaa:	48 8d 85 20 f0 ff ff 	lea    -0xfe0(%rbp),%rax
    bdb1:	48 83 c0 38          	add    $0x38,%rax
    bdb5:	48 89 85 c8 f8 ff ff 	mov    %rax,-0x738(%rbp)
    bdbc:	48 8d 85 20 f0 ff ff 	lea    -0xfe0(%rbp),%rax
    bdc3:	48 83 c0 38          	add    $0x38,%rax
    bdc7:	48 89 85 d0 f8 ff ff 	mov    %rax,-0x730(%rbp)
    bdce:	48 8d 85 20 f0 ff ff 	lea    -0xfe0(%rbp),%rax
    bdd5:	48 83 c0 38          	add    $0x38,%rax
    bdd9:	48 89 85 d8 f8 ff ff 	mov    %rax,-0x728(%rbp)
    bde0:	48 8d 85 20 f0 ff ff 	lea    -0xfe0(%rbp),%rax
    bde7:	48 05 d8 00 00 00    	add    $0xd8,%rax
    bded:	48 89 85 e0 f8 ff ff 	mov    %rax,-0x720(%rbp)
    bdf4:	48 8d 85 20 f0 ff ff 	lea    -0xfe0(%rbp),%rax
    bdfb:	48 05 38 01 00 00    	add    $0x138,%rax
    be01:	48 89 85 e8 f8 ff ff 	mov    %rax,-0x718(%rbp)
    be08:	48 8d 85 20 f0 ff ff 	lea    -0xfe0(%rbp),%rax
    be0f:	48 83 c0 38          	add    $0x38,%rax
    be13:	48 89 85 f0 f8 ff ff 	mov    %rax,-0x710(%rbp)
    be1a:	48 c7 85 f8 f8 ff ff 	movq   $0x0,-0x708(%rbp)
    be21:	00 00 00 00 
    be25:	48 8d 85 20 f0 ff ff 	lea    -0xfe0(%rbp),%rax
    be2c:	48 05 f0 00 00 00    	add    $0xf0,%rax
    be32:	48 89 85 00 f9 ff ff 	mov    %rax,-0x700(%rbp)
    be39:	48 8d 85 20 f0 ff ff 	lea    -0xfe0(%rbp),%rax
    be40:	48 05 10 01 00 00    	add    $0x110,%rax
    be46:	48 89 85 08 f9 ff ff 	mov    %rax,-0x6f8(%rbp)
    be4d:	48 8d 85 20 f0 ff ff 	lea    -0xfe0(%rbp),%rax
    be54:	48 83 c0 10          	add    $0x10,%rax
    be58:	48 89 85 10 f9 ff ff 	mov    %rax,-0x6f0(%rbp)
    be5f:	48 8d 85 20 f0 ff ff 	lea    -0xfe0(%rbp),%rax
    be66:	48 05 d8 00 00 00    	add    $0xd8,%rax
    be6c:	48 89 85 18 f9 ff ff 	mov    %rax,-0x6e8(%rbp)
    be73:	48 8d 85 20 f0 ff ff 	lea    -0xfe0(%rbp),%rax
    be7a:	48 05 d8 00 00 00    	add    $0xd8,%rax
    be80:	48 89 85 20 f9 ff ff 	mov    %rax,-0x6e0(%rbp)
    be87:	48 8d 85 20 f0 ff ff 	lea    -0xfe0(%rbp),%rax
    be8e:	48 83 c0 10          	add    $0x10,%rax
    be92:	48 89 85 28 f9 ff ff 	mov    %rax,-0x6d8(%rbp)
    be99:	48 8d 85 20 f0 ff ff 	lea    -0xfe0(%rbp),%rax
    bea0:	48 05 f0 00 00 00    	add    $0xf0,%rax
    bea6:	48 89 85 30 f9 ff ff 	mov    %rax,-0x6d0(%rbp)
    bead:	48 8d 85 20 f0 ff ff 	lea    -0xfe0(%rbp),%rax
    beb4:	48 83 c0 10          	add    $0x10,%rax
    beb8:	48 89 85 38 f9 ff ff 	mov    %rax,-0x6c8(%rbp)
    bebf:	48 8d 85 20 f0 ff ff 	lea    -0xfe0(%rbp),%rax
    bec6:	48 83 c0 10          	add    $0x10,%rax
    beca:	48 89 85 40 f9 ff ff 	mov    %rax,-0x6c0(%rbp)
    bed1:	48 8d 85 20 f0 ff ff 	lea    -0xfe0(%rbp),%rax
    bed8:	48 05 f0 00 00 00    	add    $0xf0,%rax
    bede:	48 89 85 48 f9 ff ff 	mov    %rax,-0x6b8(%rbp)
    bee5:	48 8d 85 20 f0 ff ff 	lea    -0xfe0(%rbp),%rax
    beec:	48 83 c0 38          	add    $0x38,%rax
    bef0:	48 89 85 50 f9 ff ff 	mov    %rax,-0x6b0(%rbp)
    bef7:	48 8d 85 20 f0 ff ff 	lea    -0xfe0(%rbp),%rax
    befe:	48 05 f0 00 00 00    	add    $0xf0,%rax
    bf04:	48 89 85 58 f9 ff ff 	mov    %rax,-0x6a8(%rbp)
    bf0b:	48 8d 85 20 f0 ff ff 	lea    -0xfe0(%rbp),%rax
    bf12:	48 05 d8 00 00 00    	add    $0xd8,%rax
    bf18:	48 89 85 60 f9 ff ff 	mov    %rax,-0x6a0(%rbp)
    bf1f:	48 8d 85 20 f0 ff ff 	lea    -0xfe0(%rbp),%rax
    bf26:	48 05 f0 00 00 00    	add    $0xf0,%rax
    bf2c:	48 89 85 68 f9 ff ff 	mov    %rax,-0x698(%rbp)
    bf33:	48 8d 85 f0 f7 ff ff 	lea    -0x810(%rbp),%rax
    bf3a:	48 05 50 01 00 00    	add    $0x150,%rax
    bf40:	48 89 85 80 e8 ff ff 	mov    %rax,-0x1780(%rbp)
    bf47:	48 8d 85 80 e8 ff ff 	lea    -0x1780(%rbp),%rax
    bf4e:	48 89 85 88 e8 ff ff 	mov    %rax,-0x1778(%rbp)
    bf55:	48 8d 85 88 e8 ff ff 	lea    -0x1778(%rbp),%rax
    bf5c:	48 89 85 48 e9 ff ff 	mov    %rax,-0x16b8(%rbp)
    bf63:	48 8d 05 60 96 01 00 	lea    0x19660(%rip),%rax        # 255ca <g_80+0x2>
    bf6a:	48 89 85 50 e9 ff ff 	mov    %rax,-0x16b0(%rbp)
    bf71:	c6 85 b2 e7 ff ff ff 	movb   $0xff,-0x184e(%rbp)
    bf78:	c7 85 f0 e7 ff ff 00 	movl   $0x0,-0x1810(%rbp)
    bf7f:	00 00 00 
    bf82:	eb 51                	jmp    bfd5 <func_2+0x2675>
    bf84:	c7 85 f4 e7 ff ff 00 	movl   $0x0,-0x180c(%rbp)
    bf8b:	00 00 00 
    bf8e:	eb 35                	jmp    bfc5 <func_2+0x2665>
    bf90:	8b 85 f4 e7 ff ff    	mov    -0x180c(%rbp),%eax
    bf96:	48 63 c8             	movslq %eax,%rcx
    bf99:	8b 85 f0 e7 ff ff    	mov    -0x1810(%rbp),%eax
    bf9f:	48 63 d0             	movslq %eax,%rdx
    bfa2:	48 89 d0             	mov    %rdx,%rax
    bfa5:	48 c1 e0 02          	shl    $0x2,%rax
    bfa9:	48 01 d0             	add    %rdx,%rax
    bfac:	48 01 c8             	add    %rcx,%rax
    bfaf:	48 8d 15 70 10 01 00 	lea    0x11070(%rip),%rdx        # 1d026 <g_19>
    bfb6:	48 89 94 c5 20 eb ff 	mov    %rdx,-0x14e0(%rbp,%rax,8)
    bfbd:	ff 
    bfbe:	83 85 f4 e7 ff ff 01 	addl   $0x1,-0x180c(%rbp)
    bfc5:	83 bd f4 e7 ff ff 04 	cmpl   $0x4,-0x180c(%rbp)
    bfcc:	7e c2                	jle    bf90 <func_2+0x2630>
    bfce:	83 85 f0 e7 ff ff 01 	addl   $0x1,-0x1810(%rbp)
    bfd5:	83 bd f0 e7 ff ff 00 	cmpl   $0x0,-0x1810(%rbp)
    bfdc:	7e a6                	jle    bf84 <func_2+0x2624>
    bfde:	90                   	nop
    bfdf:	48 8b 85 80 e7 ff ff 	mov    -0x1880(%rbp),%rax
    bfe6:	0f b6 00             	movzbl (%rax),%eax
    bfe9:	0f b6 d8             	movzbl %al,%ebx
    bfec:	66 83 ad b6 e7 ff ff 	subw   $0x1,-0x184a(%rbp)
    bff3:	01 
    bff4:	0f b7 85 b6 e7 ff ff 	movzwl -0x184a(%rbp),%eax
    bffb:	0f b6 d0             	movzbl %al,%edx
    bffe:	0f b6 85 98 e7 ff ff 	movzbl -0x1868(%rbp),%eax
    c005:	89 d6                	mov    %edx,%esi
    c007:	89 c7                	mov    %eax,%edi
    c009:	e8 4c cb ff ff       	callq  8b5a <safe_add_func_uint8_t_u_u>
    c00e:	0f b6 d0             	movzbl %al,%edx
    c011:	48 8b 05 b0 6e 01 00 	mov    0x16eb0(%rip),%rax        # 22ec8 <g_348>
    c018:	48 8b 00             	mov    (%rax),%rax
    c01b:	0f b6 00             	movzbl (%rax),%eax
    c01e:	0f b6 c0             	movzbl %al,%eax
    c021:	89 d6                	mov    %edx,%esi
    c023:	89 c7                	mov    %eax,%edi
    c025:	e8 69 cb ff ff       	callq  8b93 <safe_mul_func_uint8_t_u_u>
    c02a:	48 8b 15 87 6b 01 00 	mov    0x16b87(%rip),%rdx        # 22bb8 <g_74>
    c031:	8b 0a                	mov    (%rdx),%ecx
    c033:	0f b6 d0             	movzbl %al,%edx
    c036:	48 8b 05 7b 6b 01 00 	mov    0x16b7b(%rip),%rax        # 22bb8 <g_74>
    c03d:	09 ca                	or     %ecx,%edx
    c03f:	89 10                	mov    %edx,(%rax)
    c041:	8b 85 1c ea ff ff    	mov    -0x15e4(%rbp),%eax
    c047:	0f be c0             	movsbl %al,%eax
    c04a:	89 c6                	mov    %eax,%esi
    c04c:	bf 00 00 00 00       	mov    $0x0,%edi
    c051:	e8 bc c1 ff ff       	callq  8212 <safe_mul_func_int8_t_s_s>
    c056:	48 0f be c0          	movsbq %al,%rax
    c05a:	ba d1 a8 ef e1       	mov    $0xe1efa8d1,%edx
    c05f:	48 31 c2             	xor    %rax,%rdx
    c062:	8b 85 9c e7 ff ff    	mov    -0x1864(%rbp),%eax
    c068:	48 21 d0             	and    %rdx,%rax
    c06b:	48 85 c0             	test   %rax,%rax
    c06e:	74 07                	je     c077 <func_2+0x2717>
    c070:	b8 01 00 00 00       	mov    $0x1,%eax
    c075:	eb 05                	jmp    c07c <func_2+0x271c>
    c077:	b8 00 00 00 00       	mov    $0x0,%eax
    c07c:	0f b7 c0             	movzwl %ax,%eax
    c07f:	be 05 00 00 00       	mov    $0x5,%esi
    c084:	89 c7                	mov    %eax,%edi
    c086:	e8 33 cd ff ff       	callq  8dbe <safe_lshift_func_uint16_t_u_s>
    c08b:	80 bd 98 e7 ff ff 00 	cmpb   $0x0,-0x1868(%rbp)
    c092:	0f 95 c0             	setne  %al
    c095:	0f b6 c0             	movzbl %al,%eax
    c098:	89 85 1c ea ff ff    	mov    %eax,-0x15e4(%rbp)
    c09e:	89 de                	mov    %ebx,%esi
    c0a0:	bf 01 00 00 00       	mov    $0x1,%edi
    c0a5:	e8 31 cb ff ff       	callq  8bdb <safe_div_func_uint8_t_u_u>
    c0aa:	48 8b 05 c7 70 01 00 	mov    0x170c7(%rip),%rax        # 23178 <g_622>
    c0b1:	48 8b 00             	mov    (%rax),%rax
    c0b4:	48 83 f8 08          	cmp    $0x8,%rax
    c0b8:	0f 96 c0             	setbe  %al
    c0bb:	0f b6 d0             	movzbl %al,%edx
    c0be:	48 8b 85 78 e8 ff ff 	mov    -0x1788(%rbp),%rax
    c0c5:	48 8b 08             	mov    (%rax),%rcx
    c0c8:	48 63 d2             	movslq %edx,%rdx
    c0cb:	48 8b 85 78 e8 ff ff 	mov    -0x1788(%rbp),%rax
    c0d2:	48 31 ca             	xor    %rcx,%rdx
    c0d5:	48 89 10             	mov    %rdx,(%rax)
    c0d8:	48 8b 00             	mov    (%rax),%rax
    c0db:	48 85 c0             	test   %rax,%rax
    c0de:	75 09                	jne    c0e9 <func_2+0x2789>
    c0e0:	83 bd 94 e7 ff ff 00 	cmpl   $0x0,-0x186c(%rbp)
    c0e7:	74 07                	je     c0f0 <func_2+0x2790>
    c0e9:	ba 01 00 00 00       	mov    $0x1,%edx
    c0ee:	eb 05                	jmp    c0f5 <func_2+0x2795>
    c0f0:	ba 00 00 00 00       	mov    $0x0,%edx
    c0f5:	0f b7 85 ac eb ff ff 	movzwl -0x1454(%rbp),%eax
    c0fc:	98                   	cwtl   
    c0fd:	39 c2                	cmp    %eax,%edx
    c0ff:	0f 9c c0             	setl   %al
    c102:	0f b6 c0             	movzbl %al,%eax
    c105:	48 39 85 e8 e8 ff ff 	cmp    %rax,-0x1718(%rbp)
    c10c:	0f 9f c0             	setg   %al
    c10f:	0f b6 d0             	movzbl %al,%edx
    c112:	8b 85 3c ea ff ff    	mov    -0x15c4(%rbp),%eax
    c118:	31 c2                	xor    %eax,%edx
    c11a:	8b 85 cc e7 ff ff    	mov    -0x1834(%rbp),%eax
    c120:	21 d0                	and    %edx,%eax
    c122:	89 85 cc e7 ff ff    	mov    %eax,-0x1834(%rbp)
    c128:	c6 85 ae e7 ff ff 04 	movb   $0x4,-0x1852(%rbp)
    c12f:	eb 52                	jmp    c183 <func_2+0x2823>
    c131:	48 8b 05 70 78 01 00 	mov    0x17870(%rip),%rax        # 239a8 <g_1383>
    c138:	48 8b 15 d9 5e 01 00 	mov    0x15ed9(%rip),%rdx        # 22018 <g_2798>
    c13f:	48 89 10             	mov    %rdx,(%rax)
    c142:	c6 85 af e7 ff ff 05 	movb   $0x5,-0x1851(%rbp)
    c149:	eb 1f                	jmp    c16a <func_2+0x280a>
    c14b:	8b 05 d7 58 01 00    	mov    0x158d7(%rip),%eax        # 21a28 <g_2418>
    c151:	85 c0                	test   %eax,%eax
    c153:	74 05                	je     c15a <func_2+0x27fa>
    c155:	e9 85 fe ff ff       	jmpq   bfdf <func_2+0x267f>
    c15a:	0f b6 85 af e7 ff ff 	movzbl -0x1851(%rbp),%eax
    c161:	83 e8 01             	sub    $0x1,%eax
    c164:	88 85 af e7 ff ff    	mov    %al,-0x1851(%rbp)
    c16a:	80 bd af e7 ff ff 00 	cmpb   $0x0,-0x1851(%rbp)
    c171:	79 d8                	jns    c14b <func_2+0x27eb>
    c173:	0f b6 85 ae e7 ff ff 	movzbl -0x1852(%rbp),%eax
    c17a:	83 e8 01             	sub    $0x1,%eax
    c17d:	88 85 ae e7 ff ff    	mov    %al,-0x1852(%rbp)
    c183:	80 bd ae e7 ff ff 00 	cmpb   $0x0,-0x1852(%rbp)
    c18a:	79 a5                	jns    c131 <func_2+0x27d1>
    c18c:	8b 9d 1c ea ff ff    	mov    -0x15e4(%rbp),%ebx
    c192:	44 8b a5 dc ee ff ff 	mov    -0x1124(%rbp),%r12d
    c199:	8b 95 9c e7 ff ff    	mov    -0x1864(%rbp),%edx
    c19f:	8b 85 9c e7 ff ff    	mov    -0x1864(%rbp),%eax
    c1a5:	48 89 d6             	mov    %rdx,%rsi
    c1a8:	48 89 c7             	mov    %rax,%rdi
    c1ab:	e8 47 c8 ff ff       	callq  89f7 <safe_div_func_int64_t_s_s>
    c1b0:	89 85 dc e7 ff ff    	mov    %eax,-0x1824(%rbp)
    c1b6:	8b 85 48 ee ff ff    	mov    -0x11b8(%rbp),%eax
    c1bc:	39 85 dc e7 ff ff    	cmp    %eax,-0x1824(%rbp)
    c1c2:	c7 85 c8 e7 ff ff 00 	movl   $0x0,-0x1838(%rbp)
    c1c9:	00 00 00 
    c1cc:	8b 85 c8 e7 ff ff    	mov    -0x1838(%rbp),%eax
    c1d2:	48 8b 15 f7 81 01 00 	mov    0x181f7(%rip),%rdx        # 243d0 <g_2671>
    c1d9:	89 c6                	mov    %eax,%esi
    c1db:	bf fc ff 00 00       	mov    $0xfffc,%edi
    c1e0:	e8 63 cc ff ff       	callq  8e48 <safe_rshift_func_uint16_t_u_s>
    c1e5:	0f b6 c0             	movzbl %al,%eax
    c1e8:	be 38 00 00 00       	mov    $0x38,%esi
    c1ed:	89 c7                	mov    %eax,%edi
    c1ef:	e8 66 c9 ff ff       	callq  8b5a <safe_add_func_uint8_t_u_u>
    c1f4:	89 c2                	mov    %eax,%edx
    c1f6:	48 8b 85 88 e7 ff ff 	mov    -0x1878(%rbp),%rax
    c1fd:	88 10                	mov    %dl,(%rax)
    c1ff:	48 8b 85 88 e7 ff ff 	mov    -0x1878(%rbp),%rax
    c206:	0f b6 00             	movzbl (%rax),%eax
    c209:	84 c0                	test   %al,%al
    c20b:	0f 95 c0             	setne  %al
    c20e:	0f b6 c0             	movzbl %al,%eax
    c211:	41 39 c4             	cmp    %eax,%r12d
    c214:	0f 9e c0             	setle  %al
    c217:	0f b6 c0             	movzbl %al,%eax
    c21a:	21 d8                	and    %ebx,%eax
    c21c:	85 c0                	test   %eax,%eax
    c21e:	75 0a                	jne    c22a <func_2+0x28ca>
    c220:	8b 85 d0 e7 ff ff    	mov    -0x1830(%rbp),%eax
    c226:	85 c0                	test   %eax,%eax
    c228:	74 07                	je     c231 <func_2+0x28d1>
    c22a:	b8 01 00 00 00       	mov    $0x1,%eax
    c22f:	eb 05                	jmp    c236 <func_2+0x28d6>
    c231:	b8 00 00 00 00       	mov    $0x0,%eax
    c236:	89 c2                	mov    %eax,%edx
    c238:	0f b6 85 98 e7 ff ff 	movzbl -0x1868(%rbp),%eax
    c23f:	21 d0                	and    %edx,%eax
    c241:	88 85 98 e7 ff ff    	mov    %al,-0x1868(%rbp)
    c247:	0f b6 95 98 e7 ff ff 	movzbl -0x1868(%rbp),%edx
    c24e:	8b 05 2c 56 01 00    	mov    0x1562c(%rip),%eax        # 21880 <g_1217>
    c254:	c1 e0 03             	shl    $0x3,%eax
    c257:	c1 f8 03             	sar    $0x3,%eax
    c25a:	39 c2                	cmp    %eax,%edx
    c25c:	0f 8f 44 08 00 00    	jg     caa6 <func_2+0x3146>
    c262:	48 c7 85 50 ed ff ff 	movq   $0x0,-0x12b0(%rbp)
    c269:	00 00 00 00 
    c26d:	48 c7 85 58 ed ff ff 	movq   $0x0,-0x12a8(%rbp)
    c274:	00 00 00 00 
    c278:	48 c7 85 60 ed ff ff 	movq   $0x0,-0x12a0(%rbp)
    c27f:	00 00 00 00 
    c283:	48 8d 05 ee 6e 01 00 	lea    0x16eee(%rip),%rax        # 23178 <g_622>
    c28a:	48 89 85 68 ed ff ff 	mov    %rax,-0x1298(%rbp)
    c291:	48 8d 85 78 e8 ff ff 	lea    -0x1788(%rbp),%rax
    c298:	48 89 85 70 ed ff ff 	mov    %rax,-0x1290(%rbp)
    c29f:	48 8d 85 78 e8 ff ff 	lea    -0x1788(%rbp),%rax
    c2a6:	48 89 85 78 ed ff ff 	mov    %rax,-0x1288(%rbp)
    c2ad:	48 c7 85 80 ed ff ff 	movq   $0x0,-0x1280(%rbp)
    c2b4:	00 00 00 00 
    c2b8:	48 c7 85 88 ed ff ff 	movq   $0x0,-0x1278(%rbp)
    c2bf:	00 00 00 00 
    c2c3:	48 c7 85 90 ed ff ff 	movq   $0x0,-0x1270(%rbp)
    c2ca:	00 00 00 00 
    c2ce:	48 8d 05 a3 6e 01 00 	lea    0x16ea3(%rip),%rax        # 23178 <g_622>
    c2d5:	48 89 85 98 ed ff ff 	mov    %rax,-0x1268(%rbp)
    c2dc:	48 8d 05 95 6e 01 00 	lea    0x16e95(%rip),%rax        # 23178 <g_622>
    c2e3:	48 89 85 a0 ed ff ff 	mov    %rax,-0x1260(%rbp)
    c2ea:	48 8d 85 78 e8 ff ff 	lea    -0x1788(%rbp),%rax
    c2f1:	48 89 85 a8 ed ff ff 	mov    %rax,-0x1258(%rbp)
    c2f8:	48 c7 85 b0 ed ff ff 	movq   $0x0,-0x1250(%rbp)
    c2ff:	00 00 00 00 
    c303:	48 c7 85 b8 ed ff ff 	movq   $0x0,-0x1248(%rbp)
    c30a:	00 00 00 00 
    c30e:	48 c7 85 c0 ed ff ff 	movq   $0x0,-0x1240(%rbp)
    c315:	00 00 00 00 
    c319:	48 8d 05 58 6e 01 00 	lea    0x16e58(%rip),%rax        # 23178 <g_622>
    c320:	48 89 85 c8 ed ff ff 	mov    %rax,-0x1238(%rbp)
    c327:	48 8d 85 78 e8 ff ff 	lea    -0x1788(%rbp),%rax
    c32e:	48 89 85 d0 ed ff ff 	mov    %rax,-0x1230(%rbp)
    c335:	48 8d 85 78 e8 ff ff 	lea    -0x1788(%rbp),%rax
    c33c:	48 89 85 d8 ed ff ff 	mov    %rax,-0x1228(%rbp)
    c343:	48 c7 85 e0 ed ff ff 	movq   $0x0,-0x1220(%rbp)
    c34a:	00 00 00 00 
    c34e:	48 c7 85 e8 ed ff ff 	movq   $0x0,-0x1218(%rbp)
    c355:	00 00 00 00 
    c359:	48 c7 85 f0 ed ff ff 	movq   $0x0,-0x1210(%rbp)
    c360:	00 00 00 00 
    c364:	48 8d 05 0d 6e 01 00 	lea    0x16e0d(%rip),%rax        # 23178 <g_622>
    c36b:	48 89 85 f8 ed ff ff 	mov    %rax,-0x1208(%rbp)
    c372:	48 8d 05 ff 6d 01 00 	lea    0x16dff(%rip),%rax        # 23178 <g_622>
    c379:	48 89 85 00 ee ff ff 	mov    %rax,-0x1200(%rbp)
    c380:	48 8d 85 78 e8 ff ff 	lea    -0x1788(%rbp),%rax
    c387:	48 89 85 08 ee ff ff 	mov    %rax,-0x11f8(%rbp)
    c38e:	48 c7 85 10 ee ff ff 	movq   $0x0,-0x11f0(%rbp)
    c395:	00 00 00 00 
    c399:	48 c7 85 18 ee ff ff 	movq   $0x0,-0x11e8(%rbp)
    c3a0:	00 00 00 00 
    c3a4:	48 c7 85 20 ee ff ff 	movq   $0x0,-0x11e0(%rbp)
    c3ab:	00 00 00 00 
    c3af:	48 8d 85 50 ed ff ff 	lea    -0x12b0(%rbp),%rax
    c3b6:	48 83 c0 38          	add    $0x38,%rax
    c3ba:	48 89 85 c0 eb ff ff 	mov    %rax,-0x1440(%rbp)
    c3c1:	48 c7 85 c8 eb ff ff 	movq   $0x0,-0x1438(%rbp)
    c3c8:	00 00 00 00 
    c3cc:	48 8d 85 50 ed ff ff 	lea    -0x12b0(%rbp),%rax
    c3d3:	48 83 c0 38          	add    $0x38,%rax
    c3d7:	48 89 85 d0 eb ff ff 	mov    %rax,-0x1430(%rbp)
    c3de:	48 8d 85 50 ed ff ff 	lea    -0x12b0(%rbp),%rax
    c3e5:	48 83 c0 38          	add    $0x38,%rax
    c3e9:	48 89 85 d8 eb ff ff 	mov    %rax,-0x1428(%rbp)
    c3f0:	48 c7 85 e0 eb ff ff 	movq   $0x0,-0x1420(%rbp)
    c3f7:	00 00 00 00 
    c3fb:	48 8d 85 50 ed ff ff 	lea    -0x12b0(%rbp),%rax
    c402:	48 83 c0 38          	add    $0x38,%rax
    c406:	48 89 85 e8 eb ff ff 	mov    %rax,-0x1418(%rbp)
    c40d:	48 8d 85 50 ed ff ff 	lea    -0x12b0(%rbp),%rax
    c414:	48 83 c0 38          	add    $0x38,%rax
    c418:	48 89 85 f0 eb ff ff 	mov    %rax,-0x1410(%rbp)
    c41f:	48 c7 85 f8 eb ff ff 	movq   $0x0,-0x1408(%rbp)
    c426:	00 00 00 00 
    c42a:	48 8d 85 50 ed ff ff 	lea    -0x12b0(%rbp),%rax
    c431:	48 83 c0 38          	add    $0x38,%rax
    c435:	48 89 85 00 ec ff ff 	mov    %rax,-0x1400(%rbp)
    c43c:	48 8d 85 c0 eb ff ff 	lea    -0x1440(%rbp),%rax
    c443:	48 83 c0 38          	add    $0x38,%rax
    c447:	48 89 85 58 e9 ff ff 	mov    %rax,-0x16a8(%rbp)
    c44e:	48 8d 05 eb 5b 01 00 	lea    0x15beb(%rip),%rax        # 22040 <g_2822>
    c455:	48 89 85 60 e9 ff ff 	mov    %rax,-0x16a0(%rbp)
    c45c:	c7 85 30 e8 ff ff ae 	movl   $0x8e1004ae,-0x17d0(%rbp)
    c463:	04 10 8e 
    c466:	48 8d 85 1c ea ff ff 	lea    -0x15e4(%rbp),%rax
    c46d:	48 89 85 68 e9 ff ff 	mov    %rax,-0x1698(%rbp)
    c474:	c7 85 34 e8 ff ff c9 	movl   $0x72e87cc9,-0x17cc(%rbp)
    c47b:	7c e8 72 
    c47e:	c7 85 38 e8 ff ff 3f 	movl   $0x9c0cda3f,-0x17c8(%rbp)
    c485:	da 0c 9c 
    c488:	c7 85 f0 ea ff ff 06 	movl   $0x6,-0x1510(%rbp)
    c48f:	00 00 00 
    c492:	c7 85 f4 ea ff ff fd 	movl   $0xfffffffd,-0x150c(%rbp)
    c499:	ff ff ff 
    c49c:	c7 85 f8 ea ff ff 06 	movl   $0x6,-0x1508(%rbp)
    c4a3:	00 00 00 
    c4a6:	c7 85 fc ea ff ff 06 	movl   $0x6,-0x1504(%rbp)
    c4ad:	00 00 00 
    c4b0:	c7 85 00 eb ff ff fd 	movl   $0xfffffffd,-0x1500(%rbp)
    c4b7:	ff ff ff 
    c4ba:	c7 85 04 eb ff ff 06 	movl   $0x6,-0x14fc(%rbp)
    c4c1:	00 00 00 
    c4c4:	c7 85 08 eb ff ff 06 	movl   $0x6,-0x14f8(%rbp)
    c4cb:	00 00 00 
    c4ce:	c7 85 0c eb ff ff fd 	movl   $0xfffffffd,-0x14f4(%rbp)
    c4d5:	ff ff ff 
    c4d8:	c7 85 10 eb ff ff 06 	movl   $0x6,-0x14f0(%rbp)
    c4df:	00 00 00 
    c4e2:	c7 85 f8 e7 ff ff 00 	movl   $0x0,-0x1808(%rbp)
    c4e9:	00 00 00 
    c4ec:	eb 1e                	jmp    c50c <func_2+0x2bac>
    c4ee:	8b 85 f8 e7 ff ff    	mov    -0x1808(%rbp),%eax
    c4f4:	48 98                	cltq   
    c4f6:	48 8d 15 63 86 01 00 	lea    0x18663(%rip),%rdx        # 24b60 <g_2709>
    c4fd:	48 89 94 c5 50 eb ff 	mov    %rdx,-0x14b0(%rbp,%rax,8)
    c504:	ff 
    c505:	83 85 f8 e7 ff ff 01 	addl   $0x1,-0x1808(%rbp)
    c50c:	83 bd f8 e7 ff ff 05 	cmpl   $0x5,-0x1808(%rbp)
    c513:	7e d9                	jle    c4ee <func_2+0x2b8e>
    c515:	c7 85 f8 e7 ff ff 00 	movl   $0x0,-0x1808(%rbp)
    c51c:	00 00 00 
    c51f:	eb 22                	jmp    c543 <func_2+0x2be3>
    c521:	8b 85 f8 e7 ff ff    	mov    -0x1808(%rbp),%eax
    c527:	48 98                	cltq   
    c529:	48 8d 95 50 eb ff ff 	lea    -0x14b0(%rbp),%rdx
    c530:	48 83 c2 08          	add    $0x8,%rdx
    c534:	48 89 94 c5 50 ea ff 	mov    %rdx,-0x15b0(%rbp,%rax,8)
    c53b:	ff 
    c53c:	83 85 f8 e7 ff ff 01 	addl   $0x1,-0x1808(%rbp)
    c543:	83 bd f8 e7 ff ff 01 	cmpl   $0x1,-0x1808(%rbp)
    c54a:	7e d5                	jle    c521 <func_2+0x2bc1>
    c54c:	c6 85 af e7 ff ff 00 	movb   $0x0,-0x1851(%rbp)
    c553:	e9 3e 02 00 00       	jmpq   c796 <func_2+0x2e36>
    c558:	c7 85 40 e8 ff ff 50 	movl   $0x2460fa50,-0x17c0(%rbp)
    c55f:	fa 60 24 
    c562:	48 8d 85 d0 e7 ff ff 	lea    -0x1830(%rbp),%rax
    c569:	48 89 85 88 e9 ff ff 	mov    %rax,-0x1678(%rbp)
    c570:	48 c7 85 90 e9 ff ff 	movq   $0x0,-0x1670(%rbp)
    c577:	00 00 00 00 
    c57b:	48 8d 85 c0 ea ff ff 	lea    -0x1540(%rbp),%rax
    c582:	48 83 c0 0c          	add    $0xc,%rax
    c586:	48 89 85 98 e9 ff ff 	mov    %rax,-0x1668(%rbp)
    c58d:	48 c7 85 a0 e9 ff ff 	movq   $0x0,-0x1660(%rbp)
    c594:	00 00 00 00 
    c598:	c6 85 b3 e7 ff ff 03 	movb   $0x3,-0x184d(%rbp)
    c59f:	c7 85 fc e7 ff ff 00 	movl   $0x0,-0x1804(%rbp)
    c5a6:	00 00 00 
    c5a9:	eb 1a                	jmp    c5c5 <func_2+0x2c65>
    c5ab:	8b 85 fc e7 ff ff    	mov    -0x1804(%rbp),%eax
    c5b1:	48 98                	cltq   
    c5b3:	c7 84 85 60 ea ff ff 	movl   $0xffffffff,-0x15a0(%rbp,%rax,4)
    c5ba:	ff ff ff ff 
    c5be:	83 85 fc e7 ff ff 01 	addl   $0x1,-0x1804(%rbp)
    c5c5:	83 bd fc e7 ff ff 03 	cmpl   $0x3,-0x1804(%rbp)
    c5cc:	7e dd                	jle    c5ab <func_2+0x2c4b>
    c5ce:	c7 85 fc e7 ff ff 00 	movl   $0x0,-0x1804(%rbp)
    c5d5:	00 00 00 
    c5d8:	eb 1e                	jmp    c5f8 <func_2+0x2c98>
    c5da:	8b 85 fc e7 ff ff    	mov    -0x1804(%rbp),%eax
    c5e0:	48 98                	cltq   
    c5e2:	48 8d 15 53 0a 01 00 	lea    0x10a53(%rip),%rdx        # 1d03c <g_67>
    c5e9:	48 89 94 c5 60 ec ff 	mov    %rdx,-0x13a0(%rbp,%rax,8)
    c5f0:	ff 
    c5f1:	83 85 fc e7 ff ff 01 	addl   $0x1,-0x1804(%rbp)
    c5f8:	83 bd fc e7 ff ff 06 	cmpl   $0x6,-0x1804(%rbp)
    c5ff:	7e d9                	jle    c5da <func_2+0x2c7a>
    c601:	8b 95 40 e8 ff ff    	mov    -0x17c0(%rbp),%edx
    c607:	0f be 85 af e7 ff ff 	movsbl -0x1851(%rbp),%eax
    c60e:	83 c0 01             	add    $0x1,%eax
    c611:	48 98                	cltq   
    c613:	48 8d 0c c5 00 00 00 	lea    0x0(,%rax,8),%rcx
    c61a:	00 
    c61b:	48 8d 05 fe 29 01 00 	lea    0x129fe(%rip),%rax        # 1f020 <g_866>
    c622:	48 8b 04 01          	mov    (%rcx,%rax,1),%rax
    c626:	0f b7 c0             	movzwl %ax,%eax
    c629:	89 d6                	mov    %edx,%esi
    c62b:	89 c7                	mov    %eax,%edi
    c62d:	e8 d4 c7 ff ff       	callq  8e06 <safe_lshift_func_uint16_t_u_u>
    c632:	44 0f b7 e8          	movzwl %ax,%r13d
    c636:	48 83 bd 58 e9 ff ff 	cmpq   $0x0,-0x16a8(%rbp)
    c63d:	00 
    c63e:	0f 95 c0             	setne  %al
    c641:	44 0f b6 f0          	movzbl %al,%r14d
    c645:	8b 9d 9c e7 ff ff    	mov    -0x1864(%rbp),%ebx
    c64b:	0f b7 05 b8 59 01 00 	movzwl 0x159b8(%rip),%eax        # 2200a <g_2756+0x2>
    c652:	44 0f b7 e0          	movzwl %ax,%r12d
    c656:	0f b6 05 73 52 01 00 	movzbl 0x15273(%rip),%eax        # 218d0 <g_1218+0x10>
    c65d:	83 e0 0f             	and    $0xf,%eax
    c660:	0f b6 c0             	movzbl %al,%eax
    c663:	89 85 14 e8 ff ff    	mov    %eax,-0x17ec(%rbp)
    c669:	48 8b 85 88 e7 ff ff 	mov    -0x1878(%rbp),%rax
    c670:	0f b6 00             	movzbl (%rax),%eax
    c673:	66 98                	cbtw   
    c675:	66 89 85 be e7 ff ff 	mov    %ax,-0x1842(%rbp)
    c67c:	0f b7 85 be e7 ff ff 	movzwl -0x1842(%rbp),%eax
    c683:	89 c2                	mov    %eax,%edx
    c685:	48 8b 85 80 e7 ff ff 	mov    -0x1880(%rbp),%rax
    c68c:	88 10                	mov    %dl,(%rax)
    c68e:	48 8b 85 80 e7 ff ff 	mov    -0x1880(%rbp),%rax
    c695:	0f b6 00             	movzbl (%rax),%eax
    c698:	0f be c0             	movsbl %al,%eax
    c69b:	89 c6                	mov    %eax,%esi
    c69d:	bf 04 00 00 00       	mov    $0x4,%edi
    c6a2:	e8 e6 c5 ff ff       	callq  8c8d <safe_rshift_func_uint8_t_u_s>
    c6a7:	0f b6 d0             	movzbl %al,%edx
    c6aa:	0f b7 85 ac eb ff ff 	movzwl -0x1454(%rbp),%eax
    c6b1:	98                   	cwtl   
    c6b2:	39 c2                	cmp    %eax,%edx
    c6b4:	0f 9c c0             	setl   %al
    c6b7:	0f b6 c0             	movzbl %al,%eax
    c6ba:	0b 85 1c e8 ff ff    	or     -0x17e4(%rbp),%eax
    c6c0:	f7 d0                	not    %eax
    c6c2:	c1 e8 1f             	shr    $0x1f,%eax
    c6c5:	0f b6 c0             	movzbl %al,%eax
    c6c8:	44 89 e6             	mov    %r12d,%esi
    c6cb:	89 c7                	mov    %eax,%edi
    c6cd:	e8 1c bc ff ff       	callq  82ee <safe_lshift_func_int8_t_s_u>
    c6d2:	84 c0                	test   %al,%al
    c6d4:	74 10                	je     c6e6 <func_2+0x2d86>
    c6d6:	80 bd 98 e7 ff ff 00 	cmpb   $0x0,-0x1868(%rbp)
    c6dd:	74 07                	je     c6e6 <func_2+0x2d86>
    c6df:	b8 01 00 00 00       	mov    $0x1,%eax
    c6e4:	eb 05                	jmp    c6eb <func_2+0x2d8b>
    c6e6:	b8 00 00 00 00       	mov    $0x0,%eax
    c6eb:	66 25 ac 1c          	and    $0x1cac,%ax
    c6ef:	89 c2                	mov    %eax,%edx
    c6f1:	8b 05 0d 53 01 00    	mov    0x1530d(%rip),%eax        # 21a04 <g_1897+0x24>
    c6f7:	25 ff ff ff 7f       	and    $0x7fffffff,%eax
    c6fc:	21 d0                	and    %edx,%eax
    c6fe:	98                   	cwtl   
    c6ff:	8b 95 9c e7 ff ff    	mov    -0x1864(%rbp),%edx
    c705:	89 d6                	mov    %edx,%esi
    c707:	89 c7                	mov    %eax,%edi
    c709:	e8 d3 bd ff ff       	callq  84e1 <safe_lshift_func_int16_t_s_u>
    c70e:	8b 85 44 ea ff ff    	mov    -0x15bc(%rbp),%eax
    c714:	48 63 d0             	movslq %eax,%rdx
    c717:	48 8b 85 18 e9 ff ff 	mov    -0x16e8(%rbp),%rax
    c71e:	48 3b 85 60 e9 ff ff 	cmp    -0x16a0(%rbp),%rax
    c725:	74 07                	je     c72e <func_2+0x2dce>
    c727:	b8 65 7b 36 aa       	mov    $0xaa367b65,%eax
    c72c:	eb 05                	jmp    c733 <func_2+0x2dd3>
    c72e:	b8 64 7b 36 aa       	mov    $0xaa367b64,%eax
    c733:	48 39 d0             	cmp    %rdx,%rax
    c736:	0f 95 c0             	setne  %al
    c739:	0f b6 c0             	movzbl %al,%eax
    c73c:	89 de                	mov    %ebx,%esi
    c73e:	89 c7                	mov    %eax,%edi
    c740:	e8 03 c7 ff ff       	callq  8e48 <safe_rshift_func_uint16_t_u_s>
    c745:	83 e0 fa             	and    $0xfffffffa,%eax
    c748:	98                   	cwtl   
    c749:	be cb 87 ff ff       	mov    $0xffff87cb,%esi
    c74e:	89 c7                	mov    %eax,%edi
    c750:	e8 5e bc ff ff       	callq  83b3 <safe_add_func_int16_t_s_s>
    c755:	98                   	cwtl   
    c756:	44 21 f0             	and    %r14d,%eax
    c759:	f7 d0                	not    %eax
    c75b:	41 39 c5             	cmp    %eax,%r13d
    c75e:	0f 9e c0             	setle  %al
    c761:	48 8d 15 8c 0c 01 00 	lea    0x10c8c(%rip),%rdx        # 1d3f4 <g_500+0x4>
    c768:	0f b6 c0             	movzbl %al,%eax
    c76b:	89 02                	mov    %eax,(%rdx)
    c76d:	0f b7 85 26 ea ff ff 	movzwl -0x15da(%rbp),%eax
    c774:	83 e8 01             	sub    $0x1,%eax
    c777:	66 89 85 26 ea ff ff 	mov    %ax,-0x15da(%rbp)
    c77e:	48 83 ad 90 e8 ff ff 	subq   $0x1,-0x1770(%rbp)
    c785:	01 
    c786:	0f b6 85 af e7 ff ff 	movzbl -0x1851(%rbp),%eax
    c78d:	83 c0 01             	add    $0x1,%eax
    c790:	88 85 af e7 ff ff    	mov    %al,-0x1851(%rbp)
    c796:	80 bd af e7 ff ff 05 	cmpb   $0x5,-0x1851(%rbp)
    c79d:	0f 8e b5 fd ff ff    	jle    c558 <func_2+0x2bf8>
    c7a3:	48 8b 85 08 e9 ff ff 	mov    -0x16f8(%rbp),%rax
    c7aa:	48 8d 15 af 83 01 00 	lea    0x183af(%rip),%rdx        # 24b60 <g_2709>
    c7b1:	48 89 10             	mov    %rdx,(%rax)
    c7b4:	48 8b 85 08 e9 ff ff 	mov    -0x16f8(%rbp),%rax
    c7bb:	48 8b 00             	mov    (%rax),%rax
    c7be:	48 89 05 e3 84 01 00 	mov    %rax,0x184e3(%rip)        # 24ca8 <g_2858+0x128>
    c7c5:	48 8b 05 ac 69 01 00 	mov    0x169ac(%rip),%rax        # 23178 <g_622>
    c7cc:	48 8b 10             	mov    (%rax),%rdx
    c7cf:	48 83 c2 01          	add    $0x1,%rdx
    c7d3:	48 89 10             	mov    %rdx,(%rax)
    c7d6:	48 8b 00             	mov    (%rax),%rax
    c7d9:	be 01 00 00 00       	mov    $0x1,%esi
    c7de:	48 89 c7             	mov    %rax,%rdi
    c7e1:	e8 65 c8 ff ff       	callq  904b <safe_sub_func_uint64_t_u_u>
    c7e6:	0f be d0             	movsbl %al,%edx
    c7e9:	8b 85 1c e8 ff ff    	mov    -0x17e4(%rbp),%eax
    c7ef:	0f be c0             	movsbl %al,%eax
    c7f2:	89 d6                	mov    %edx,%esi
    c7f4:	89 c7                	mov    %eax,%edi
    c7f6:	e8 d9 b9 ff ff       	callq  81d4 <safe_add_func_int8_t_s_s>
    c7fb:	8b 95 94 e7 ff ff    	mov    -0x186c(%rbp),%edx
    c801:	8b 85 94 e7 ff ff    	mov    -0x186c(%rbp),%eax
    c807:	48 89 d6             	mov    %rdx,%rsi
    c80a:	48 89 c7             	mov    %rax,%rdi
    c80d:	e8 2f c0 ff ff       	callq  8841 <safe_add_func_int64_t_s_s>
    c812:	48 89 c2             	mov    %rax,%rdx
    c815:	48 8b 05 9c 63 01 00 	mov    0x1639c(%rip),%rax        # 22bb8 <g_74>
    c81c:	89 10                	mov    %edx,(%rax)
    c81e:	8b 00                	mov    (%rax),%eax
    c820:	85 c0                	test   %eax,%eax
    c822:	0f 84 a6 01 00 00    	je     c9ce <func_2+0x306e>
    c828:	48 b8 02 8a a7 ad 55 	movabs $0x97a77455ada78a02,%rax
    c82f:	74 a7 97 
    c832:	48 89 85 78 e9 ff ff 	mov    %rax,-0x1688(%rbp)
    c839:	48 c7 85 80 e9 ff ff 	movq   $0x0,-0x1680(%rbp)
    c840:	00 00 00 00 
    c844:	80 bd 98 e7 ff ff 00 	cmpb   $0x0,-0x1868(%rbp)
    c84b:	0f 85 ec 00 00 00    	jne    c93d <func_2+0x2fdd>
    c851:	8b 85 48 ee ff ff    	mov    -0x11b8(%rbp),%eax
    c857:	85 c0                	test   %eax,%eax
    c859:	74 53                	je     c8ae <func_2+0x2f4e>
    c85b:	48 8b 85 90 e8 ff ff 	mov    -0x1770(%rbp),%rax
    c862:	0f bf d8             	movswl %ax,%ebx
    c865:	8b 85 1c ea ff ff    	mov    -0x15e4(%rbp),%eax
    c86b:	89 85 14 e8 ff ff    	mov    %eax,-0x17ec(%rbp)
    c871:	8b 85 14 e8 ff ff    	mov    -0x17ec(%rbp),%eax
    c877:	48 98                	cltq   
    c879:	48 be 59 15 31 52 2d 	movabs $0x4bcf5f2d52311559,%rsi
    c880:	5f cf 4b 
    c883:	48 89 c7             	mov    %rax,%rdi
    c886:	e8 a3 c7 ff ff       	callq  902e <safe_add_func_uint64_t_u_u>
    c88b:	89 de                	mov    %ebx,%esi
    c88d:	bf 9d 4f 00 00       	mov    $0x4f9d,%edi
    c892:	e8 5e bb ff ff       	callq  83f5 <safe_mul_func_int16_t_s_s>
    c897:	48 8b 85 48 e9 ff ff 	mov    -0x16b8(%rbp),%rax
    c89e:	48 3b 85 a0 e8 ff ff 	cmp    -0x1760(%rbp),%rax
    c8a5:	74 07                	je     c8ae <func_2+0x2f4e>
    c8a7:	ba 01 00 00 00       	mov    $0x1,%edx
    c8ac:	eb 05                	jmp    c8b3 <func_2+0x2f53>
    c8ae:	ba 00 00 00 00       	mov    $0x0,%edx
    c8b3:	8b 85 9c e7 ff ff    	mov    -0x1864(%rbp),%eax
    c8b9:	0f b7 c0             	movzwl %ax,%eax
    c8bc:	89 d6                	mov    %edx,%esi
    c8be:	89 c7                	mov    %eax,%edi
    c8c0:	e8 83 c5 ff ff       	callq  8e48 <safe_rshift_func_uint16_t_u_s>
    c8c5:	0f be c0             	movsbl %al,%eax
    c8c8:	8b 95 30 e8 ff ff    	mov    -0x17d0(%rbp),%edx
    c8ce:	89 d6                	mov    %edx,%esi
    c8d0:	89 c7                	mov    %eax,%edi
    c8d2:	e8 5e ba ff ff       	callq  8335 <safe_rshift_func_int8_t_s_s>
    c8d7:	84 c0                	test   %al,%al
    c8d9:	75 0a                	jne    c8e5 <func_2+0x2f85>
    c8db:	48 83 bd 78 e9 ff ff 	cmpq   $0x0,-0x1688(%rbp)
    c8e2:	00 
    c8e3:	74 07                	je     c8ec <func_2+0x2f8c>
    c8e5:	b8 01 00 00 00       	mov    $0x1,%eax
    c8ea:	eb 05                	jmp    c8f1 <func_2+0x2f91>
    c8ec:	b8 00 00 00 00       	mov    $0x0,%eax
    c8f1:	39 85 9c e7 ff ff    	cmp    %eax,-0x1864(%rbp)
    c8f7:	0f 96 c0             	setbe  %al
    c8fa:	0f b6 c0             	movzbl %al,%eax
    c8fd:	39 85 30 e8 ff ff    	cmp    %eax,-0x17d0(%rbp)
    c903:	0f 95 c0             	setne  %al
    c906:	0f b6 c0             	movzbl %al,%eax
    c909:	48 39 85 f0 e8 ff ff 	cmp    %rax,-0x1710(%rbp)
    c910:	0f 9c c2             	setl   %dl
    c913:	48 8b 05 9e 62 01 00 	mov    0x1629e(%rip),%rax        # 22bb8 <g_74>
    c91a:	0f b6 d2             	movzbl %dl,%edx
    c91d:	89 10                	mov    %edx,(%rax)
    c91f:	8b 00                	mov    (%rax),%eax
    c921:	3d 02 d3 8a 66       	cmp    $0x668ad302,%eax
    c926:	0f 95 c0             	setne  %al
    c929:	0f b6 c0             	movzbl %al,%eax
    c92c:	be fd ff ff ff       	mov    $0xfffffffd,%esi
    c931:	89 c7                	mov    %eax,%edi
    c933:	e8 cd bc ff ff       	callq  8605 <safe_sub_func_int32_t_s_s>
    c938:	83 f8 64             	cmp    $0x64,%eax
    c93b:	74 07                	je     c944 <func_2+0x2fe4>
    c93d:	b8 01 00 00 00       	mov    $0x1,%eax
    c942:	eb 05                	jmp    c949 <func_2+0x2fe9>
    c944:	b8 00 00 00 00       	mov    $0x0,%eax
    c949:	0f be d8             	movsbl %al,%ebx
    c94c:	8b 85 9c e7 ff ff    	mov    -0x1864(%rbp),%eax
    c952:	0f b6 c0             	movzbl %al,%eax
    c955:	be 05 00 00 00       	mov    $0x5,%esi
    c95a:	89 c7                	mov    %eax,%edi
    c95c:	e8 eb c2 ff ff       	callq  8c4c <safe_lshift_func_uint8_t_u_u>
    c961:	44 0f b6 e0          	movzbl %al,%r12d
    c965:	8b 95 94 e7 ff ff    	mov    -0x186c(%rbp),%edx
    c96b:	48 8b 85 80 e7 ff ff 	mov    -0x1880(%rbp),%rax
    c972:	0f b6 00             	movzbl (%rax),%eax
    c975:	3c 3c                	cmp    $0x3c,%al
    c977:	0f 95 c0             	setne  %al
    c97a:	0f b6 c0             	movzbl %al,%eax
    c97d:	48 89 d6             	mov    %rdx,%rsi
    c980:	48 89 c7             	mov    %rax,%rdi
    c983:	e8 a6 c6 ff ff       	callq  902e <safe_add_func_uint64_t_u_u>
    c988:	44 89 e6             	mov    %r12d,%esi
    c98b:	89 c7                	mov    %eax,%edi
    c98d:	e8 93 c5 ff ff       	callq  8f25 <safe_div_func_uint32_t_u_u>
    c992:	0f be c0             	movsbl %al,%eax
    c995:	89 de                	mov    %ebx,%esi
    c997:	89 c7                	mov    %eax,%edi
    c999:	e8 74 b8 ff ff       	callq  8212 <safe_mul_func_int8_t_s_s>
    c99e:	48 8d 15 4f 0a 01 00 	lea    0x10a4f(%rip),%rdx        # 1d3f4 <g_500+0x4>
    c9a5:	0f be c0             	movsbl %al,%eax
    c9a8:	89 02                	mov    %eax,(%rdx)
    c9aa:	48 8b 85 80 e9 ff ff 	mov    -0x1680(%rbp),%rax
    c9b1:	48 89 85 28 e9 ff ff 	mov    %rax,-0x16d8(%rbp)
    c9b8:	48 8b 05 01 62 01 00 	mov    0x16201(%rip),%rax        # 22bc0 <g_100>
    c9bf:	48 8b 95 68 e9 ff ff 	mov    -0x1698(%rbp),%rdx
    c9c6:	48 89 10             	mov    %rdx,(%rax)
    c9c9:	e9 8c 02 00 00       	jmpq   cc5a <func_2+0x32fa>
    c9ce:	c7 85 3c e8 ff ff 01 	movl   $0x1,-0x17c4(%rbp)
    c9d5:	00 00 00 
    c9d8:	48 8d 85 90 ea ff ff 	lea    -0x1570(%rbp),%rax
    c9df:	48 83 c0 08          	add    $0x8,%rax
    c9e3:	48 89 85 70 e9 ff ff 	mov    %rax,-0x1690(%rbp)
    c9ea:	48 8d 85 1c ea ff ff 	lea    -0x15e4(%rbp),%rax
    c9f1:	48 89 85 60 ec ff ff 	mov    %rax,-0x13a0(%rbp)
    c9f8:	48 8d 85 1c ea ff ff 	lea    -0x15e4(%rbp),%rax
    c9ff:	48 89 85 68 ec ff ff 	mov    %rax,-0x1398(%rbp)
    ca06:	48 c7 85 70 ec ff ff 	movq   $0x0,-0x1390(%rbp)
    ca0d:	00 00 00 00 
    ca11:	48 8d 85 c8 e7 ff ff 	lea    -0x1838(%rbp),%rax
    ca18:	48 89 85 78 ec ff ff 	mov    %rax,-0x1388(%rbp)
    ca1f:	48 c7 85 80 ec ff ff 	movq   $0x0,-0x1380(%rbp)
    ca26:	00 00 00 00 
    ca2a:	48 8d 85 1c ea ff ff 	lea    -0x15e4(%rbp),%rax
    ca31:	48 89 85 88 ec ff ff 	mov    %rax,-0x1378(%rbp)
    ca38:	48 8d 85 1c ea ff ff 	lea    -0x15e4(%rbp),%rax
    ca3f:	48 89 85 90 ec ff ff 	mov    %rax,-0x1370(%rbp)
    ca46:	48 c7 85 98 ec ff ff 	movq   $0x0,-0x1368(%rbp)
    ca4d:	00 00 00 00 
    ca51:	48 8d 85 c8 e7 ff ff 	lea    -0x1838(%rbp),%rax
    ca58:	48 89 85 a0 ec ff ff 	mov    %rax,-0x1360(%rbp)
    ca5f:	48 c7 85 a8 ec ff ff 	movq   $0x0,-0x1358(%rbp)
    ca66:	00 00 00 00 
    ca6a:	0f b6 85 98 e7 ff ff 	movzbl -0x1868(%rbp),%eax
    ca71:	48 8b 1d a8 70 01 00 	mov    0x170a8(%rip),%rbx        # 23b20 <g_2390>
    ca78:	48 8d 8d cc e7 ff ff 	lea    -0x1834(%rbp),%rcx
    ca7f:	8b 95 34 e8 ff ff    	mov    -0x17cc(%rbp),%edx
    ca85:	48 8d b5 40 ea ff ff 	lea    -0x15c0(%rbp),%rsi
    ca8c:	48 8d 7e 0c          	lea    0xc(%rsi),%rdi
    ca90:	89 c6                	mov    %eax,%esi
    ca92:	e8 42 65 00 00       	callq  12fd9 <func_58>
    ca97:	48 89 03             	mov    %rax,(%rbx)
    ca9a:	80 ad b0 e7 ff ff 01 	subb   $0x1,-0x1850(%rbp)
    caa1:	e9 b4 01 00 00       	jmpq   cc5a <func_2+0x32fa>
    caa6:	c7 85 24 e8 ff ff 6a 	movl   $0xf127f96a,-0x17dc(%rbp)
    caad:	f9 27 f1 
    cab0:	c7 85 28 e8 ff ff f6 	movl   $0xfffffff6,-0x17d8(%rbp)
    cab7:	ff ff ff 
    caba:	83 bd 9c e7 ff ff 00 	cmpl   $0x0,-0x1864(%rbp)
    cac1:	0f 84 00 01 00 00    	je     cbc7 <func_2+0x3267>
    cac7:	8b 85 24 e8 ff ff    	mov    -0x17dc(%rbp),%eax
    cacd:	0f b6 d8             	movzbl %al,%ebx
    cad0:	83 bd 94 e7 ff ff 00 	cmpl   $0x0,-0x186c(%rbp)
    cad7:	74 54                	je     cb2d <func_2+0x31cd>
    cad9:	48 8b 05 e8 63 01 00 	mov    0x163e8(%rip),%rax        # 22ec8 <g_348>
    cae0:	48 8b 00             	mov    (%rax),%rax
    cae3:	0f b6 00             	movzbl (%rax),%eax
    cae6:	48 8b 85 78 e8 ff ff 	mov    -0x1788(%rbp),%rax
    caed:	8b 95 94 e7 ff ff    	mov    -0x186c(%rbp),%edx
    caf3:	48 89 10             	mov    %rdx,(%rax)
    caf6:	48 8b 00             	mov    (%rax),%rax
    caf9:	48 85 c0             	test   %rax,%rax
    cafc:	75 09                	jne    cb07 <func_2+0x31a7>
    cafe:	83 bd 94 e7 ff ff 00 	cmpl   $0x0,-0x186c(%rbp)
    cb05:	74 07                	je     cb0e <func_2+0x31ae>
    cb07:	b8 01 00 00 00       	mov    $0x1,%eax
    cb0c:	eb 05                	jmp    cb13 <func_2+0x31b3>
    cb0e:	b8 00 00 00 00       	mov    $0x0,%eax
    cb13:	0f bf d0             	movswl %ax,%edx
    cb16:	8b 85 94 e7 ff ff    	mov    -0x186c(%rbp),%eax
    cb1c:	98                   	cwtl   
    cb1d:	89 d6                	mov    %edx,%esi
    cb1f:	89 c7                	mov    %eax,%edi
    cb21:	e8 8d b8 ff ff       	callq  83b3 <safe_add_func_int16_t_s_s>
    cb26:	b8 01 00 00 00       	mov    $0x1,%eax
    cb2b:	eb 05                	jmp    cb32 <func_2+0x31d2>
    cb2d:	b8 00 00 00 00       	mov    $0x0,%eax
    cb32:	be 44 ef 97 53       	mov    $0x5397ef44,%esi
    cb37:	89 c7                	mov    %eax,%edi
    cb39:	e8 c1 bb ff ff       	callq  86ff <safe_div_func_int32_t_s_s>
    cb3e:	c7 85 48 ee ff ff fe 	movl   $0xfffffffe,-0x11b8(%rbp)
    cb45:	ff ff ff 
    cb48:	8b 85 48 ee ff ff    	mov    -0x11b8(%rbp),%eax
    cb4e:	3d 82 8a 27 3d       	cmp    $0x3d278a82,%eax
    cb53:	0f 9f c0             	setg   %al
    cb56:	0f b6 c0             	movzbl %al,%eax
    cb59:	39 85 94 e7 ff ff    	cmp    %eax,-0x186c(%rbp)
    cb5f:	0f 97 c0             	seta   %al
    cb62:	0f b6 c0             	movzbl %al,%eax
    cb65:	89 de                	mov    %ebx,%esi
    cb67:	89 c7                	mov    %eax,%edi
    cb69:	e8 25 c0 ff ff       	callq  8b93 <safe_mul_func_uint8_t_u_u>
    cb6e:	c6 85 b2 e7 ff ff f7 	movb   $0xf7,-0x184e(%rbp)
    cb75:	0f b6 85 98 e7 ff ff 	movzbl -0x1868(%rbp),%eax
    cb7c:	48 be 17 b2 5a dd 64 	movabs $0x5e680664dd5ab217,%rsi
    cb83:	06 68 5e 
    cb86:	48 89 c7             	mov    %rax,%rdi
    cb89:	e8 bd c4 ff ff       	callq  904b <safe_sub_func_uint64_t_u_u>
    cb8e:	8b 85 34 ee ff ff    	mov    -0x11cc(%rbp),%eax
    cb94:	0f b7 d0             	movzwl %ax,%edx
    cb97:	8b 85 94 e7 ff ff    	mov    -0x186c(%rbp),%eax
    cb9d:	0f b7 c0             	movzwl %ax,%eax
    cba0:	89 d6                	mov    %edx,%esi
    cba2:	89 c7                	mov    %eax,%edi
    cba4:	e8 94 c1 ff ff       	callq  8d3d <safe_mul_func_uint16_t_u_u>
    cba9:	0f b7 c0             	movzwl %ax,%eax
    cbac:	8b 95 24 e8 ff ff    	mov    -0x17dc(%rbp),%edx
    cbb2:	89 d6                	mov    %edx,%esi
    cbb4:	89 c7                	mov    %eax,%edi
    cbb6:	e8 4b c2 ff ff       	callq  8e06 <safe_lshift_func_uint16_t_u_u>
    cbbb:	66 85 c0             	test   %ax,%ax
    cbbe:	74 07                	je     cbc7 <func_2+0x3267>
    cbc0:	b9 01 00 00 00       	mov    $0x1,%ecx
    cbc5:	eb 05                	jmp    cbcc <func_2+0x326c>
    cbc7:	b9 00 00 00 00       	mov    $0x0,%ecx
    cbcc:	48 8b 05 e5 5f 01 00 	mov    0x15fe5(%rip),%rax        # 22bb8 <g_74>
    cbd3:	8b 10                	mov    (%rax),%edx
    cbd5:	48 8b 05 dc 5f 01 00 	mov    0x15fdc(%rip),%rax        # 22bb8 <g_74>
    cbdc:	09 ca                	or     %ecx,%edx
    cbde:	89 10                	mov    %edx,(%rax)
    cbe0:	c7 85 28 e8 ff ff ff 	movl   $0xffffffff,-0x17d8(%rbp)
    cbe7:	ff ff ff 
    cbea:	c6 85 98 e7 ff ff f0 	movb   $0xf0,-0x1868(%rbp)
    cbf1:	eb 5e                	jmp    cc51 <func_2+0x32f1>
    cbf3:	c7 85 2c e8 ff ff 00 	movl   $0x0,-0x17d4(%rbp)
    cbfa:	00 00 00 
    cbfd:	48 8d 05 f0 07 01 00 	lea    0x107f0(%rip),%rax        # 1d3f4 <g_500+0x4>
    cc04:	8b 00                	mov    (%rax),%eax
    cc06:	89 c2                	mov    %eax,%edx
    cc08:	8b 85 2c e8 ff ff    	mov    -0x17d4(%rbp),%eax
    cc0e:	f7 d0                	not    %eax
    cc10:	39 c2                	cmp    %eax,%edx
    cc12:	0f 95 c0             	setne  %al
    cc15:	48 8d 15 d8 07 01 00 	lea    0x107d8(%rip),%rdx        # 1d3f4 <g_500+0x4>
    cc1c:	0f b6 c0             	movzbl %al,%eax
    cc1f:	89 02                	mov    %eax,(%rdx)
    cc21:	48 8d 05 cc 07 01 00 	lea    0x107cc(%rip),%rax        # 1d3f4 <g_500+0x4>
    cc28:	8b 08                	mov    (%rax),%ecx
    cc2a:	8b 95 44 ea ff ff    	mov    -0x15bc(%rbp),%edx
    cc30:	48 8d 05 bd 07 01 00 	lea    0x107bd(%rip),%rax        # 1d3f4 <g_500+0x4>
    cc37:	09 ca                	or     %ecx,%edx
    cc39:	89 10                	mov    %edx,(%rax)
    cc3b:	8b 05 fb 03 01 00    	mov    0x103fb(%rip),%eax        # 1d03c <g_67>
    cc41:	85 c0                	test   %eax,%eax
    cc43:	74 05                	je     cc4a <func_2+0x32ea>
    cc45:	e9 70 fe ff ff       	jmpq   caba <func_2+0x315a>
    cc4a:	80 85 98 e7 ff ff 01 	addb   $0x1,-0x1868(%rbp)
    cc51:	80 bd 98 e7 ff ff 38 	cmpb   $0x38,-0x1868(%rbp)
    cc58:	77 99                	ja     cbf3 <func_2+0x3293>
    cc5a:	48 8b 85 f8 e8 ff ff 	mov    -0x1708(%rbp),%rax
    cc61:	0f b7 d8             	movzwl %ax,%ebx
    cc64:	48 8b 85 80 e7 ff ff 	mov    -0x1880(%rbp),%rax
    cc6b:	0f b6 00             	movzbl (%rax),%eax
    cc6e:	3c 01                	cmp    $0x1,%al
    cc70:	0f 95 c0             	setne  %al
    cc73:	0f b6 c0             	movzbl %al,%eax
    cc76:	be 07 00 00 00       	mov    $0x7,%esi
    cc7b:	89 c7                	mov    %eax,%edi
    cc7d:	e8 3c c0 ff ff       	callq  8cbe <safe_rshift_func_uint8_t_u_u>
    cc82:	44 0f b6 e8          	movzbl %al,%r13d
    cc86:	8b 85 10 e8 ff ff    	mov    -0x17f0(%rbp),%eax
    cc8c:	44 0f be e0          	movsbl %al,%r12d
    cc90:	8b 85 0c e8 ff ff    	mov    -0x17f4(%rbp),%eax
    cc96:	0f be c0             	movsbl %al,%eax
    cc99:	be 07 00 00 00       	mov    $0x7,%esi
    cc9e:	89 c7                	mov    %eax,%edi
    cca0:	e8 c7 b6 ff ff       	callq  836c <safe_rshift_func_int8_t_s_u>
    cca5:	0f be c0             	movsbl %al,%eax
    cca8:	be dc e1 a6 5b       	mov    $0x5ba6e1dc,%esi
    ccad:	89 c7                	mov    %eax,%edi
    ccaf:	e8 1c c2 ff ff       	callq  8ed0 <safe_sub_func_uint32_t_u_u>
    ccb4:	8b 85 9c e7 ff ff    	mov    -0x1864(%rbp),%eax
    ccba:	89 c6                	mov    %eax,%esi
    ccbc:	bf 94 64 75 8e       	mov    $0x8e756494,%edi
    ccc1:	e8 f0 b8 ff ff       	callq  85b6 <safe_add_func_int32_t_s_s>
    ccc6:	39 85 94 e7 ff ff    	cmp    %eax,-0x186c(%rbp)
    cccc:	48 8b 05 ed 61 01 00 	mov    0x161ed(%rip),%rax        # 22ec0 <g_349>
    ccd3:	0f b6 00             	movzbl (%rax),%eax
    ccd6:	83 f0 4e             	xor    $0x4e,%eax
    ccd9:	0f b6 c0             	movzbl %al,%eax
    ccdc:	39 85 94 e7 ff ff    	cmp    %eax,-0x186c(%rbp)
    cce2:	0f 92 c0             	setb   %al
    cce5:	0f b6 d0             	movzbl %al,%edx
    cce8:	0f b6 85 98 e7 ff ff 	movzbl -0x1868(%rbp),%eax
    ccef:	0b 85 94 e7 ff ff    	or     -0x186c(%rbp),%eax
    ccf5:	89 c1                	mov    %eax,%ecx
    ccf7:	0f b6 85 98 e7 ff ff 	movzbl -0x1868(%rbp),%eax
    ccfe:	39 c1                	cmp    %eax,%ecx
    cd00:	0f 95 c0             	setne  %al
    cd03:	0f b6 c0             	movzbl %al,%eax
    cd06:	39 c2                	cmp    %eax,%edx
    cd08:	0f 9c c0             	setl   %al
    cd0b:	0f b6 c0             	movzbl %al,%eax
    cd0e:	89 85 d0 ea ff ff    	mov    %eax,-0x1530(%rbp)
    cd14:	8b 85 d0 ea ff ff    	mov    -0x1530(%rbp),%eax
    cd1a:	89 c2                	mov    %eax,%edx
    cd1c:	48 8b 85 30 e9 ff ff 	mov    -0x16d0(%rbp),%rax
    cd23:	88 10                	mov    %dl,(%rax)
    cd25:	44 89 e6             	mov    %r12d,%esi
    cd28:	bf 00 00 00 00       	mov    $0x0,%edi
    cd2d:	e8 e0 b4 ff ff       	callq  8212 <safe_mul_func_int8_t_s_s>
    cd32:	0f be d0             	movsbl %al,%edx
    cd35:	0f b6 85 98 e7 ff ff 	movzbl -0x1868(%rbp),%eax
    cd3c:	39 c2                	cmp    %eax,%edx
    cd3e:	0f 9d c0             	setge  %al
    cd41:	0f b6 c0             	movzbl %al,%eax
    cd44:	23 85 0c e8 ff ff    	and    -0x17f4(%rbp),%eax
    cd4a:	41 39 c5             	cmp    %eax,%r13d
    cd4d:	0f 9c c0             	setl   %al
    cd50:	0f b6 c0             	movzbl %al,%eax
    cd53:	89 de                	mov    %ebx,%esi
    cd55:	89 c7                	mov    %eax,%edi
    cd57:	e8 a3 bf ff ff       	callq  8cff <safe_add_func_uint16_t_u_u>
    cd5c:	48 8b 95 68 e8 ff ff 	mov    -0x1798(%rbp),%rdx
    cd63:	48 8b 85 38 e9 ff ff 	mov    -0x16c8(%rbp),%rax
    cd6a:	48 89 10             	mov    %rdx,(%rax)
    cd6d:	c6 05 f5 05 01 00 ef 	movb   $0xef,0x105f5(%rip)        # 1d369 <g_399>
    cd74:	e9 92 00 00 00       	jmpq   ce0b <func_2+0x34ab>
    cd79:	48 c7 05 6c 05 01 00 	movq   $0x0,0x1056c(%rip)        # 1d2f0 <g_145>
    cd80:	00 00 00 00 
    cd84:	eb 5c                	jmp    cde2 <func_2+0x3482>
    cd86:	0f b6 85 98 e7 ff ff 	movzbl -0x1868(%rbp),%eax
    cd8d:	be 82 00 00 00       	mov    $0x82,%esi
    cd92:	89 c7                	mov    %eax,%edi
    cd94:	e8 15 be ff ff       	callq  8bae <safe_mod_func_uint8_t_u_u>
    cd99:	89 c2                	mov    %eax,%edx
    cd9b:	48 8b 05 d6 63 01 00 	mov    0x163d6(%rip),%rax        # 23178 <g_622>
    cda2:	0f b6 d2             	movzbl %dl,%edx
    cda5:	48 89 10             	mov    %rdx,(%rax)
    cda8:	48 8b 10             	mov    (%rax),%rdx
    cdab:	8b 85 1c ea ff ff    	mov    -0x15e4(%rbp),%eax
    cdb1:	48 98                	cltq   
    cdb3:	48 39 c2             	cmp    %rax,%rdx
    cdb6:	0f 95 c0             	setne  %al
    cdb9:	0f b6 c8             	movzbl %al,%ecx
    cdbc:	48 8b 05 f5 5d 01 00 	mov    0x15df5(%rip),%rax        # 22bb8 <g_74>
    cdc3:	8b 10                	mov    (%rax),%edx
    cdc5:	48 8b 05 ec 5d 01 00 	mov    0x15dec(%rip),%rax        # 22bb8 <g_74>
    cdcc:	31 ca                	xor    %ecx,%edx
    cdce:	89 10                	mov    %edx,(%rax)
    cdd0:	48 8b 05 19 05 01 00 	mov    0x10519(%rip),%rax        # 1d2f0 <g_145>
    cdd7:	48 83 e8 01          	sub    $0x1,%rax
    cddb:	48 89 05 0e 05 01 00 	mov    %rax,0x1050e(%rip)        # 1d2f0 <g_145>
    cde2:	48 8b 05 07 05 01 00 	mov    0x10507(%rip),%rax        # 1d2f0 <g_145>
    cde9:	48 83 f8 e2          	cmp    $0xffffffffffffffe2,%rax
    cded:	75 97                	jne    cd86 <func_2+0x3426>
    cdef:	0f b6 05 73 05 01 00 	movzbl 0x10573(%rip),%eax        # 1d369 <g_399>
    cdf6:	0f b6 c0             	movzbl %al,%eax
    cdf9:	be 01 00 00 00       	mov    $0x1,%esi
    cdfe:	89 c7                	mov    %eax,%edi
    ce00:	e8 b3 c0 ff ff       	callq  8eb8 <safe_add_func_uint32_t_u_u>
    ce05:	88 05 5e 05 01 00    	mov    %al,0x1055e(%rip)        # 1d369 <g_399>
    ce0b:	0f b6 05 57 05 01 00 	movzbl 0x10557(%rip),%eax        # 1d369 <g_399>
    ce12:	3c 19                	cmp    $0x19,%al
    ce14:	0f 86 5f ff ff ff    	jbe    cd79 <func_2+0x3419>
    ce1a:	c7 85 c8 e7 ff ff 00 	movl   $0x0,-0x1838(%rbp)
    ce21:	00 00 00 
    ce24:	90                   	nop
    ce25:	8b 85 c8 e7 ff ff    	mov    -0x1838(%rbp),%eax
    ce2b:	85 c0                	test   %eax,%eax
    ce2d:	7f 1b                	jg     ce4a <func_2+0x34ea>
    ce2f:	48 8d 85 90 ea ff ff 	lea    -0x1570(%rbp),%rax
    ce36:	48 83 c0 08          	add    $0x8,%rax
    ce3a:	48 89 85 10 ea ff ff 	mov    %rax,-0x15f0(%rbp)
    ce41:	48 8d 05 f0 01 01 00 	lea    0x101f0(%rip),%rax        # 1d038 <g_45>
    ce48:	eb 07                	jmp    ce51 <func_2+0x34f1>
    ce4a:	48 8b 85 20 ec ff ff 	mov    -0x13e0(%rbp),%rax
    ce51:	48 8b 5d c8          	mov    -0x38(%rbp),%rbx
    ce55:	64 48 33 1c 25 28 00 	xor    %fs:0x28,%rbx
    ce5c:	00 00 
    ce5e:	74 05                	je     ce65 <func_2+0x3505>
    ce60:	e8 0b b2 ff ff       	callq  8070 <__stack_chk_fail@plt>
    ce65:	48 81 c4 58 18 00 00 	add    $0x1858,%rsp
    ce6c:	5b                   	pop    %rbx
    ce6d:	41 5c                	pop    %r12
    ce6f:	41 5d                	pop    %r13
    ce71:	41 5e                	pop    %r14
    ce73:	41 5f                	pop    %r15
    ce75:	5d                   	pop    %rbp
    ce76:	c3                   	retq   

000000000000ce77 <func_13>:
    ce77:	f3 0f 1e fa          	endbr64 
    ce7b:	55                   	push   %rbp
    ce7c:	48 89 e5             	mov    %rsp,%rbp
    ce7f:	41 55                	push   %r13
    ce81:	41 54                	push   %r12
    ce83:	53                   	push   %rbx
    ce84:	48 81 ec 68 09 00 00 	sub    $0x968,%rsp
    ce8b:	89 bd 9c f6 ff ff    	mov    %edi,-0x964(%rbp)
    ce91:	48 89 b5 90 f6 ff ff 	mov    %rsi,-0x970(%rbp)
    ce98:	89 95 98 f6 ff ff    	mov    %edx,-0x968(%rbp)
    ce9e:	48 89 8d 88 f6 ff ff 	mov    %rcx,-0x978(%rbp)
    cea5:	44 89 c0             	mov    %r8d,%eax
    cea8:	66 89 85 84 f6 ff ff 	mov    %ax,-0x97c(%rbp)
    ceaf:	64 48 8b 04 25 28 00 	mov    %fs:0x28,%rax
    ceb6:	00 00 
    ceb8:	48 89 45 d8          	mov    %rax,-0x28(%rbp)
    cebc:	31 c0                	xor    %eax,%eax
    cebe:	c7 85 c0 f6 ff ff db 	movl   $0x1ed58cdb,-0x940(%rbp)
    cec5:	8c d5 1e 
    cec8:	c7 85 80 f7 ff ff f7 	movl   $0xfffffff7,-0x880(%rbp)
    cecf:	ff ff ff 
    ced2:	c7 85 84 f7 ff ff f7 	movl   $0xfffffff7,-0x87c(%rbp)
    ced9:	ff ff ff 
    cedc:	c7 85 88 f7 ff ff 3b 	movl   $0x6dfe233b,-0x878(%rbp)
    cee3:	23 fe 6d 
    cee6:	c7 85 8c f7 ff ff f7 	movl   $0xfffffff7,-0x874(%rbp)
    ceed:	ff ff ff 
    cef0:	c7 85 90 f7 ff ff f7 	movl   $0xfffffff7,-0x870(%rbp)
    cef7:	ff ff ff 
    cefa:	c7 85 94 f7 ff ff 3b 	movl   $0x6dfe233b,-0x86c(%rbp)
    cf01:	23 fe 6d 
    cf04:	c7 85 c4 f6 ff ff b3 	movl   $0xa36995b3,-0x93c(%rbp)
    cf0b:	95 69 a3 
    cf0e:	48 c7 45 cf ff ff ff 	movq   $0xffffffffffffffff,-0x31(%rbp)
    cf15:	ff 
    cf16:	c6 45 d7 ff          	movb   $0xff,-0x29(%rbp)
    cf1a:	48 c7 85 10 f7 ff ff 	movq   $0x3,-0x8f0(%rbp)
    cf21:	03 00 00 00 
    cf25:	c7 85 c8 f6 ff ff ff 	movl   $0xd82cf4ff,-0x938(%rbp)
    cf2c:	f4 2c d8 
    cf2f:	c7 85 00 f8 ff ff 01 	movl   $0x1,-0x800(%rbp)
    cf36:	00 00 00 
    cf39:	c7 85 04 f8 ff ff 01 	movl   $0x1,-0x7fc(%rbp)
    cf40:	00 00 00 
    cf43:	c7 85 08 f8 ff ff 01 	movl   $0x1,-0x7f8(%rbp)
    cf4a:	00 00 00 
    cf4d:	c7 85 0c f8 ff ff 01 	movl   $0x1,-0x7f4(%rbp)
    cf54:	00 00 00 
    cf57:	c7 85 10 f8 ff ff 01 	movl   $0x1,-0x7f0(%rbp)
    cf5e:	00 00 00 
    cf61:	c7 85 14 f8 ff ff 01 	movl   $0x1,-0x7ec(%rbp)
    cf68:	00 00 00 
    cf6b:	c7 85 18 f8 ff ff 01 	movl   $0x1,-0x7e8(%rbp)
    cf72:	00 00 00 
    cf75:	c7 85 1c f8 ff ff 01 	movl   $0x1,-0x7e4(%rbp)
    cf7c:	00 00 00 
    cf7f:	c7 85 20 f8 ff ff 01 	movl   $0x1,-0x7e0(%rbp)
    cf86:	00 00 00 
    cf89:	48 c7 85 18 f7 ff ff 	movq   $0x0,-0x8e8(%rbp)
    cf90:	00 00 00 00 
    cf94:	48 b8 7c d5 e4 93 4c 	movabs $0x3b07f14c93e4d57c,%rax
    cf9b:	f1 07 3b 
    cf9e:	48 89 85 20 f7 ff ff 	mov    %rax,-0x8e0(%rbp)
    cfa5:	66 c7 85 a8 f6 ff ff 	movw   $0x0,-0x958(%rbp)
    cfac:	00 00 
    cfae:	c7 85 cc f6 ff ff 1f 	movl   $0xe93a341f,-0x934(%rbp)
    cfb5:	34 3a e9 
    cfb8:	66 c7 85 aa f6 ff ff 	movw   $0xffff,-0x956(%rbp)
    cfbf:	ff ff 
    cfc1:	c7 85 b8 f6 ff ff 00 	movl   $0x0,-0x948(%rbp)
    cfc8:	00 00 00 
    cfcb:	eb 1e                	jmp    cfeb <func_13+0x174>
    cfcd:	8b 85 b8 f6 ff ff    	mov    -0x948(%rbp),%eax
    cfd3:	48 98                	cltq   
    cfd5:	48 8d 15 a4 61 01 00 	lea    0x161a4(%rip),%rdx        # 23180 <g_638>
    cfdc:	48 89 94 c5 70 f8 ff 	mov    %rdx,-0x790(%rbp,%rax,8)
    cfe3:	ff 
    cfe4:	83 85 b8 f6 ff ff 01 	addl   $0x1,-0x948(%rbp)
    cfeb:	83 bd b8 f6 ff ff 09 	cmpl   $0x9,-0x948(%rbp)
    cff2:	7e d9                	jle    cfcd <func_13+0x156>
    cff4:	48 8b 05 c5 5b 01 00 	mov    0x15bc5(%rip),%rax        # 22bc0 <g_100>
    cffb:	48 8b 00             	mov    (%rax),%rax
    cffe:	c7 00 7c 92 ce 68    	movl   $0x68ce927c,(%rax)
    d004:	c7 85 d0 f6 ff ff 67 	movl   $0xa85f4667,-0x930(%rbp)
    d00b:	46 5f a8 
    d00e:	c7 85 d4 f6 ff ff d8 	movl   $0xded112d8,-0x92c(%rbp)
    d015:	12 d1 de 
    d018:	c7 85 d8 f6 ff ff a1 	movl   $0x11974aa1,-0x928(%rbp)
    d01f:	4a 97 11 
    d022:	c7 85 dc f6 ff ff 1b 	movl   $0xb561cb1b,-0x924(%rbp)
    d029:	cb 61 b5 
    d02c:	c7 85 e0 f6 ff ff f8 	movl   $0xfffffff8,-0x920(%rbp)
    d033:	ff ff ff 
    d036:	c7 85 e4 f6 ff ff 00 	movl   $0x0,-0x91c(%rbp)
    d03d:	00 00 00 
    d040:	c7 85 e8 f6 ff ff 8e 	movl   $0x3735208e,-0x918(%rbp)
    d047:	20 35 37 
    d04a:	c7 85 ec f6 ff ff 01 	movl   $0x1,-0x914(%rbp)
    d051:	00 00 00 
    d054:	c7 85 a0 f7 ff ff ff 	movl   $0xffffffff,-0x860(%rbp)
    d05b:	ff ff ff 
    d05e:	c7 85 a4 f7 ff ff ff 	movl   $0xffffffff,-0x85c(%rbp)
    d065:	ff ff ff 
    d068:	c7 85 a8 f7 ff ff ff 	movl   $0xffffffff,-0x858(%rbp)
    d06f:	ff ff ff 
    d072:	c7 85 ac f7 ff ff ff 	movl   $0xffffffff,-0x854(%rbp)
    d079:	ff ff ff 
    d07c:	c7 85 b0 f7 ff ff ff 	movl   $0xffffffff,-0x850(%rbp)
    d083:	ff ff ff 
    d086:	c7 85 b4 f7 ff ff ff 	movl   $0xffffffff,-0x84c(%rbp)
    d08d:	ff ff ff 
    d090:	c7 85 b8 f7 ff ff ff 	movl   $0xffffffff,-0x848(%rbp)
    d097:	ff ff ff 
    d09a:	c7 85 c0 f7 ff ff b5 	movl   $0x286d0cb5,-0x840(%rbp)
    d0a1:	0c 6d 28 
    d0a4:	c7 85 c4 f7 ff ff f8 	movl   $0xfffffff8,-0x83c(%rbp)
    d0ab:	ff ff ff 
    d0ae:	c7 85 c8 f7 ff ff f8 	movl   $0xfffffff8,-0x838(%rbp)
    d0b5:	ff ff ff 
    d0b8:	c7 85 cc f7 ff ff b5 	movl   $0x286d0cb5,-0x834(%rbp)
    d0bf:	0c 6d 28 
    d0c2:	c7 85 d0 f7 ff ff f8 	movl   $0xfffffff8,-0x830(%rbp)
    d0c9:	ff ff ff 
    d0cc:	c7 85 d4 f7 ff ff f8 	movl   $0xfffffff8,-0x82c(%rbp)
    d0d3:	ff ff ff 
    d0d6:	c7 85 d8 f7 ff ff b5 	movl   $0x286d0cb5,-0x828(%rbp)
    d0dd:	0c 6d 28 
    d0e0:	c7 85 b4 f6 ff ff fb 	movl   $0xa27e34fb,-0x94c(%rbp)
    d0e7:	34 7e a2 
    d0ea:	48 c7 85 08 f7 ff ff 	movq   $0x1,-0x8f8(%rbp)
    d0f1:	01 00 00 00 
    d0f5:	48 b8 8c 5f 8c 8c 5f 	movabs $0x5f8c8c5f8c8c5f8c,%rax
    d0fc:	8c 8c 5f 
    d0ff:	48 89 85 e0 f7 ff ff 	mov    %rax,-0x820(%rbp)
    d106:	48 b9 5f 8c 8c 5f 8c 	movabs $0x8c5f8c8c5f8c8c5f,%rcx
    d10d:	8c 5f 8c 
    d110:	48 89 8d e8 f7 ff ff 	mov    %rcx,-0x818(%rbp)
    d117:	48 bb 5f 5f 32 5f 5f 	movabs $0x5f5f325f5f325f5f,%rbx
    d11e:	32 5f 5f 
    d121:	48 89 9d f0 f7 ff ff 	mov    %rbx,-0x810(%rbp)
    d128:	48 89 85 f8 f7 ff ff 	mov    %rax,-0x808(%rbp)
    d12f:	48 8d 05 5a 60 01 00 	lea    0x1605a(%rip),%rax        # 23190 <g_736>
    d136:	48 89 85 00 f7 ff ff 	mov    %rax,-0x900(%rbp)
    d13d:	c7 85 b0 f6 ff ff 9c 	movl   $0x1a75e9c,-0x950(%rbp)
    d144:	5e a7 01 
    d147:	48 8b 05 3a 60 01 00 	mov    0x1603a(%rip),%rax        # 23188 <g_637>
    d14e:	48 8b 00             	mov    (%rax),%rax
    d151:	48 8b 00             	mov    (%rax),%rax
    d154:	48 8b 00             	mov    (%rax),%rax
    d157:	8b 00                	mov    (%rax),%eax
    d159:	89 c6                	mov    %eax,%esi
    d15b:	bf 54 2b 9d 11       	mov    $0x119d2b54,%edi
    d160:	e8 67 b5 ff ff       	callq  86cc <safe_mod_func_int32_t_s_s>
    d165:	48 8d 05 b8 48 01 00 	lea    0x148b8(%rip),%rax        # 21a24 <g_2372>
    d16c:	48 89 85 f8 f6 ff ff 	mov    %rax,-0x908(%rbp)
    d173:	48 8d 85 f8 f6 ff ff 	lea    -0x908(%rbp),%rax
    d17a:	48 89 85 c0 f8 ff ff 	mov    %rax,-0x740(%rbp)
    d181:	48 8d 85 f8 f6 ff ff 	lea    -0x908(%rbp),%rax
    d188:	48 89 85 c8 f8 ff ff 	mov    %rax,-0x738(%rbp)
    d18f:	48 8d 85 f8 f6 ff ff 	lea    -0x908(%rbp),%rax
    d196:	48 89 85 d0 f8 ff ff 	mov    %rax,-0x730(%rbp)
    d19d:	48 8d 85 f8 f6 ff ff 	lea    -0x908(%rbp),%rax
    d1a4:	48 89 85 d8 f8 ff ff 	mov    %rax,-0x728(%rbp)
    d1ab:	48 8d 85 f8 f6 ff ff 	lea    -0x908(%rbp),%rax
    d1b2:	48 89 85 e0 f8 ff ff 	mov    %rax,-0x720(%rbp)
    d1b9:	48 8d 85 f8 f6 ff ff 	lea    -0x908(%rbp),%rax
    d1c0:	48 89 85 e8 f8 ff ff 	mov    %rax,-0x718(%rbp)
    d1c7:	48 8d 85 f8 f6 ff ff 	lea    -0x908(%rbp),%rax
    d1ce:	48 89 85 f0 f8 ff ff 	mov    %rax,-0x710(%rbp)
    d1d5:	48 8d 85 f8 f6 ff ff 	lea    -0x908(%rbp),%rax
    d1dc:	48 89 85 f8 f8 ff ff 	mov    %rax,-0x708(%rbp)
    d1e3:	48 8d 85 f8 f6 ff ff 	lea    -0x908(%rbp),%rax
    d1ea:	48 89 85 00 f9 ff ff 	mov    %rax,-0x700(%rbp)
    d1f1:	48 8d 85 f8 f6 ff ff 	lea    -0x908(%rbp),%rax
    d1f8:	48 89 85 08 f9 ff ff 	mov    %rax,-0x6f8(%rbp)
    d1ff:	48 8d 85 f8 f6 ff ff 	lea    -0x908(%rbp),%rax
    d206:	48 89 85 10 f9 ff ff 	mov    %rax,-0x6f0(%rbp)
    d20d:	48 8d 85 f8 f6 ff ff 	lea    -0x908(%rbp),%rax
    d214:	48 89 85 18 f9 ff ff 	mov    %rax,-0x6e8(%rbp)
    d21b:	48 8d 85 f8 f6 ff ff 	lea    -0x908(%rbp),%rax
    d222:	48 89 85 20 f9 ff ff 	mov    %rax,-0x6e0(%rbp)
    d229:	48 8d 85 f8 f6 ff ff 	lea    -0x908(%rbp),%rax
    d230:	48 89 85 28 f9 ff ff 	mov    %rax,-0x6d8(%rbp)
    d237:	48 c7 85 30 f9 ff ff 	movq   $0x0,-0x6d0(%rbp)
    d23e:	00 00 00 00 
    d242:	48 8d 85 f8 f6 ff ff 	lea    -0x908(%rbp),%rax
    d249:	48 89 85 38 f9 ff ff 	mov    %rax,-0x6c8(%rbp)
    d250:	48 8d 85 f8 f6 ff ff 	lea    -0x908(%rbp),%rax
    d257:	48 89 85 40 f9 ff ff 	mov    %rax,-0x6c0(%rbp)
    d25e:	48 8d 85 f8 f6 ff ff 	lea    -0x908(%rbp),%rax
    d265:	48 89 85 48 f9 ff ff 	mov    %rax,-0x6b8(%rbp)
    d26c:	48 8d 85 f8 f6 ff ff 	lea    -0x908(%rbp),%rax
    d273:	48 89 85 50 f9 ff ff 	mov    %rax,-0x6b0(%rbp)
    d27a:	48 8d 85 f8 f6 ff ff 	lea    -0x908(%rbp),%rax
    d281:	48 89 85 58 f9 ff ff 	mov    %rax,-0x6a8(%rbp)
    d288:	48 8d 85 f8 f6 ff ff 	lea    -0x908(%rbp),%rax
    d28f:	48 89 85 60 f9 ff ff 	mov    %rax,-0x6a0(%rbp)
    d296:	48 8d 85 f8 f6 ff ff 	lea    -0x908(%rbp),%rax
    d29d:	48 89 85 68 f9 ff ff 	mov    %rax,-0x698(%rbp)
    d2a4:	48 8d 85 f8 f6 ff ff 	lea    -0x908(%rbp),%rax
    d2ab:	48 89 85 70 f9 ff ff 	mov    %rax,-0x690(%rbp)
    d2b2:	48 8d 85 f8 f6 ff ff 	lea    -0x908(%rbp),%rax
    d2b9:	48 89 85 78 f9 ff ff 	mov    %rax,-0x688(%rbp)
    d2c0:	48 c7 85 80 f9 ff ff 	movq   $0x0,-0x680(%rbp)
    d2c7:	00 00 00 00 
    d2cb:	48 8d 85 f8 f6 ff ff 	lea    -0x908(%rbp),%rax
    d2d2:	48 89 85 88 f9 ff ff 	mov    %rax,-0x678(%rbp)
    d2d9:	48 8d 85 f8 f6 ff ff 	lea    -0x908(%rbp),%rax
    d2e0:	48 89 85 90 f9 ff ff 	mov    %rax,-0x670(%rbp)
    d2e7:	48 8d 85 f8 f6 ff ff 	lea    -0x908(%rbp),%rax
    d2ee:	48 89 85 98 f9 ff ff 	mov    %rax,-0x668(%rbp)
    d2f5:	48 8d 85 f8 f6 ff ff 	lea    -0x908(%rbp),%rax
    d2fc:	48 89 85 a0 f9 ff ff 	mov    %rax,-0x660(%rbp)
    d303:	48 8d 85 f8 f6 ff ff 	lea    -0x908(%rbp),%rax
    d30a:	48 89 85 a8 f9 ff ff 	mov    %rax,-0x658(%rbp)
    d311:	48 c7 85 b0 f9 ff ff 	movq   $0x0,-0x650(%rbp)
    d318:	00 00 00 00 
    d31c:	48 8d 85 f8 f6 ff ff 	lea    -0x908(%rbp),%rax
    d323:	48 89 85 b8 f9 ff ff 	mov    %rax,-0x648(%rbp)
    d32a:	48 8d 85 f8 f6 ff ff 	lea    -0x908(%rbp),%rax
    d331:	48 89 85 c0 f9 ff ff 	mov    %rax,-0x640(%rbp)
    d338:	48 8d 85 f8 f6 ff ff 	lea    -0x908(%rbp),%rax
    d33f:	48 89 85 c8 f9 ff ff 	mov    %rax,-0x638(%rbp)
    d346:	48 8d 85 f8 f6 ff ff 	lea    -0x908(%rbp),%rax
    d34d:	48 89 85 d0 f9 ff ff 	mov    %rax,-0x630(%rbp)
    d354:	48 8d 85 f8 f6 ff ff 	lea    -0x908(%rbp),%rax
    d35b:	48 89 85 d8 f9 ff ff 	mov    %rax,-0x628(%rbp)
    d362:	48 8d 85 f8 f6 ff ff 	lea    -0x908(%rbp),%rax
    d369:	48 89 85 e0 f9 ff ff 	mov    %rax,-0x620(%rbp)
    d370:	48 8d 85 f8 f6 ff ff 	lea    -0x908(%rbp),%rax
    d377:	48 89 85 e8 f9 ff ff 	mov    %rax,-0x618(%rbp)
    d37e:	48 8d 85 f8 f6 ff ff 	lea    -0x908(%rbp),%rax
    d385:	48 89 85 f0 f9 ff ff 	mov    %rax,-0x610(%rbp)
    d38c:	48 8d 85 f8 f6 ff ff 	lea    -0x908(%rbp),%rax
    d393:	48 89 85 f8 f9 ff ff 	mov    %rax,-0x608(%rbp)
    d39a:	48 8d 85 f8 f6 ff ff 	lea    -0x908(%rbp),%rax
    d3a1:	48 89 85 00 fa ff ff 	mov    %rax,-0x600(%rbp)
    d3a8:	48 c7 85 08 fa ff ff 	movq   $0x0,-0x5f8(%rbp)
    d3af:	00 00 00 00 
    d3b3:	48 8d 85 f8 f6 ff ff 	lea    -0x908(%rbp),%rax
    d3ba:	48 89 85 10 fa ff ff 	mov    %rax,-0x5f0(%rbp)
    d3c1:	48 8d 85 f8 f6 ff ff 	lea    -0x908(%rbp),%rax
    d3c8:	48 89 85 18 fa ff ff 	mov    %rax,-0x5e8(%rbp)
    d3cf:	48 8d 85 f8 f6 ff ff 	lea    -0x908(%rbp),%rax
    d3d6:	48 89 85 20 fa ff ff 	mov    %rax,-0x5e0(%rbp)
    d3dd:	48 8d 85 f8 f6 ff ff 	lea    -0x908(%rbp),%rax
    d3e4:	48 89 85 28 fa ff ff 	mov    %rax,-0x5d8(%rbp)
    d3eb:	48 8d 85 f8 f6 ff ff 	lea    -0x908(%rbp),%rax
    d3f2:	48 89 85 30 fa ff ff 	mov    %rax,-0x5d0(%rbp)
    d3f9:	48 c7 85 38 fa ff ff 	movq   $0x0,-0x5c8(%rbp)
    d400:	00 00 00 00 
    d404:	48 8d 85 f8 f6 ff ff 	lea    -0x908(%rbp),%rax
    d40b:	48 89 85 40 fa ff ff 	mov    %rax,-0x5c0(%rbp)
    d412:	48 8d 85 f8 f6 ff ff 	lea    -0x908(%rbp),%rax
    d419:	48 89 85 48 fa ff ff 	mov    %rax,-0x5b8(%rbp)
    d420:	48 8d 85 f8 f6 ff ff 	lea    -0x908(%rbp),%rax
    d427:	48 89 85 50 fa ff ff 	mov    %rax,-0x5b0(%rbp)
    d42e:	48 8d 85 f8 f6 ff ff 	lea    -0x908(%rbp),%rax
    d435:	48 89 85 58 fa ff ff 	mov    %rax,-0x5a8(%rbp)
    d43c:	48 c7 85 60 fa ff ff 	movq   $0x0,-0x5a0(%rbp)
    d443:	00 00 00 00 
    d447:	48 8d 85 f8 f6 ff ff 	lea    -0x908(%rbp),%rax
    d44e:	48 89 85 68 fa ff ff 	mov    %rax,-0x598(%rbp)
    d455:	48 8d 85 f8 f6 ff ff 	lea    -0x908(%rbp),%rax
    d45c:	48 89 85 70 fa ff ff 	mov    %rax,-0x590(%rbp)
    d463:	48 8d 85 f8 f6 ff ff 	lea    -0x908(%rbp),%rax
    d46a:	48 89 85 78 fa ff ff 	mov    %rax,-0x588(%rbp)
    d471:	48 8d 85 f8 f6 ff ff 	lea    -0x908(%rbp),%rax
    d478:	48 89 85 80 fa ff ff 	mov    %rax,-0x580(%rbp)
    d47f:	48 8d 85 f8 f6 ff ff 	lea    -0x908(%rbp),%rax
    d486:	48 89 85 88 fa ff ff 	mov    %rax,-0x578(%rbp)
    d48d:	48 8d 85 f8 f6 ff ff 	lea    -0x908(%rbp),%rax
    d494:	48 89 85 90 fa ff ff 	mov    %rax,-0x570(%rbp)
    d49b:	48 8d 85 f8 f6 ff ff 	lea    -0x908(%rbp),%rax
    d4a2:	48 89 85 98 fa ff ff 	mov    %rax,-0x568(%rbp)
    d4a9:	48 8d 85 f8 f6 ff ff 	lea    -0x908(%rbp),%rax
    d4b0:	48 89 85 a0 fa ff ff 	mov    %rax,-0x560(%rbp)
    d4b7:	48 c7 85 a8 fa ff ff 	movq   $0x0,-0x558(%rbp)
    d4be:	00 00 00 00 
    d4c2:	48 8d 85 f8 f6 ff ff 	lea    -0x908(%rbp),%rax
    d4c9:	48 89 85 b0 fa ff ff 	mov    %rax,-0x550(%rbp)
    d4d0:	48 8d 85 f8 f6 ff ff 	lea    -0x908(%rbp),%rax
    d4d7:	48 89 85 b8 fa ff ff 	mov    %rax,-0x548(%rbp)
    d4de:	48 8d 85 f8 f6 ff ff 	lea    -0x908(%rbp),%rax
    d4e5:	48 89 85 c0 fa ff ff 	mov    %rax,-0x540(%rbp)
    d4ec:	48 8d 85 f8 f6 ff ff 	lea    -0x908(%rbp),%rax
    d4f3:	48 89 85 c8 fa ff ff 	mov    %rax,-0x538(%rbp)
    d4fa:	48 8d 85 f8 f6 ff ff 	lea    -0x908(%rbp),%rax
    d501:	48 89 85 d0 fa ff ff 	mov    %rax,-0x530(%rbp)
    d508:	48 8d 85 f8 f6 ff ff 	lea    -0x908(%rbp),%rax
    d50f:	48 89 85 d8 fa ff ff 	mov    %rax,-0x528(%rbp)
    d516:	48 8d 85 f8 f6 ff ff 	lea    -0x908(%rbp),%rax
    d51d:	48 89 85 e0 fa ff ff 	mov    %rax,-0x520(%rbp)
    d524:	48 8d 85 f8 f6 ff ff 	lea    -0x908(%rbp),%rax
    d52b:	48 89 85 e8 fa ff ff 	mov    %rax,-0x518(%rbp)
    d532:	48 8d 85 f8 f6 ff ff 	lea    -0x908(%rbp),%rax
    d539:	48 89 85 f0 fa ff ff 	mov    %rax,-0x510(%rbp)
    d540:	48 8d 85 f8 f6 ff ff 	lea    -0x908(%rbp),%rax
    d547:	48 89 85 f8 fa ff ff 	mov    %rax,-0x508(%rbp)
    d54e:	48 8d 85 f8 f6 ff ff 	lea    -0x908(%rbp),%rax
    d555:	48 89 85 00 fb ff ff 	mov    %rax,-0x500(%rbp)
    d55c:	48 8d 85 f8 f6 ff ff 	lea    -0x908(%rbp),%rax
    d563:	48 89 85 08 fb ff ff 	mov    %rax,-0x4f8(%rbp)
    d56a:	48 8d 85 f8 f6 ff ff 	lea    -0x908(%rbp),%rax
    d571:	48 89 85 10 fb ff ff 	mov    %rax,-0x4f0(%rbp)
    d578:	48 8d 85 f8 f6 ff ff 	lea    -0x908(%rbp),%rax
    d57f:	48 89 85 18 fb ff ff 	mov    %rax,-0x4e8(%rbp)
    d586:	48 8d 85 f8 f6 ff ff 	lea    -0x908(%rbp),%rax
    d58d:	48 89 85 20 fb ff ff 	mov    %rax,-0x4e0(%rbp)
    d594:	48 8d 85 f8 f6 ff ff 	lea    -0x908(%rbp),%rax
    d59b:	48 89 85 28 fb ff ff 	mov    %rax,-0x4d8(%rbp)
    d5a2:	48 8d 85 f8 f6 ff ff 	lea    -0x908(%rbp),%rax
    d5a9:	48 89 85 30 fb ff ff 	mov    %rax,-0x4d0(%rbp)
    d5b0:	48 8d 85 f8 f6 ff ff 	lea    -0x908(%rbp),%rax
    d5b7:	48 89 85 38 fb ff ff 	mov    %rax,-0x4c8(%rbp)
    d5be:	48 8d 85 f8 f6 ff ff 	lea    -0x908(%rbp),%rax
    d5c5:	48 89 85 40 fb ff ff 	mov    %rax,-0x4c0(%rbp)
    d5cc:	48 8d 85 f8 f6 ff ff 	lea    -0x908(%rbp),%rax
    d5d3:	48 89 85 48 fb ff ff 	mov    %rax,-0x4b8(%rbp)
    d5da:	48 c7 85 50 fb ff ff 	movq   $0x0,-0x4b0(%rbp)
    d5e1:	00 00 00 00 
    d5e5:	48 8d 85 f8 f6 ff ff 	lea    -0x908(%rbp),%rax
    d5ec:	48 89 85 58 fb ff ff 	mov    %rax,-0x4a8(%rbp)
    d5f3:	48 8d 85 f8 f6 ff ff 	lea    -0x908(%rbp),%rax
    d5fa:	48 89 85 60 fb ff ff 	mov    %rax,-0x4a0(%rbp)
    d601:	48 8d 85 f8 f6 ff ff 	lea    -0x908(%rbp),%rax
    d608:	48 89 85 68 fb ff ff 	mov    %rax,-0x498(%rbp)
    d60f:	48 8d 85 f8 f6 ff ff 	lea    -0x908(%rbp),%rax
    d616:	48 89 85 70 fb ff ff 	mov    %rax,-0x490(%rbp)
    d61d:	48 8d 85 f8 f6 ff ff 	lea    -0x908(%rbp),%rax
    d624:	48 89 85 78 fb ff ff 	mov    %rax,-0x488(%rbp)
    d62b:	48 8d 85 f8 f6 ff ff 	lea    -0x908(%rbp),%rax
    d632:	48 89 85 80 fb ff ff 	mov    %rax,-0x480(%rbp)
    d639:	48 8d 85 f8 f6 ff ff 	lea    -0x908(%rbp),%rax
    d640:	48 89 85 88 fb ff ff 	mov    %rax,-0x478(%rbp)
    d647:	48 c7 85 90 fb ff ff 	movq   $0x0,-0x470(%rbp)
    d64e:	00 00 00 00 
    d652:	48 c7 85 98 fb ff ff 	movq   $0x0,-0x468(%rbp)
    d659:	00 00 00 00 
    d65d:	48 8d 85 f8 f6 ff ff 	lea    -0x908(%rbp),%rax
    d664:	48 89 85 a0 fb ff ff 	mov    %rax,-0x460(%rbp)
    d66b:	48 8d 85 f8 f6 ff ff 	lea    -0x908(%rbp),%rax
    d672:	48 89 85 a8 fb ff ff 	mov    %rax,-0x458(%rbp)
    d679:	48 8d 85 f8 f6 ff ff 	lea    -0x908(%rbp),%rax
    d680:	48 89 85 b0 fb ff ff 	mov    %rax,-0x450(%rbp)
    d687:	48 8d 85 f8 f6 ff ff 	lea    -0x908(%rbp),%rax
    d68e:	48 89 85 b8 fb ff ff 	mov    %rax,-0x448(%rbp)
    d695:	48 8d 85 f8 f6 ff ff 	lea    -0x908(%rbp),%rax
    d69c:	48 89 85 c0 fb ff ff 	mov    %rax,-0x440(%rbp)
    d6a3:	48 8d 85 f8 f6 ff ff 	lea    -0x908(%rbp),%rax
    d6aa:	48 89 85 c8 fb ff ff 	mov    %rax,-0x438(%rbp)
    d6b1:	48 8d 85 f8 f6 ff ff 	lea    -0x908(%rbp),%rax
    d6b8:	48 89 85 d0 fb ff ff 	mov    %rax,-0x430(%rbp)
    d6bf:	48 8d 85 f8 f6 ff ff 	lea    -0x908(%rbp),%rax
    d6c6:	48 89 85 d8 fb ff ff 	mov    %rax,-0x428(%rbp)
    d6cd:	48 c7 85 e0 fb ff ff 	movq   $0x0,-0x420(%rbp)
    d6d4:	00 00 00 00 
    d6d8:	48 8d 85 f8 f6 ff ff 	lea    -0x908(%rbp),%rax
    d6df:	48 89 85 e8 fb ff ff 	mov    %rax,-0x418(%rbp)
    d6e6:	48 8d 85 f8 f6 ff ff 	lea    -0x908(%rbp),%rax
    d6ed:	48 89 85 f0 fb ff ff 	mov    %rax,-0x410(%rbp)
    d6f4:	48 8d 85 f8 f6 ff ff 	lea    -0x908(%rbp),%rax
    d6fb:	48 89 85 f8 fb ff ff 	mov    %rax,-0x408(%rbp)
    d702:	48 8d 85 f8 f6 ff ff 	lea    -0x908(%rbp),%rax
    d709:	48 89 85 00 fc ff ff 	mov    %rax,-0x400(%rbp)
    d710:	48 8d 85 f8 f6 ff ff 	lea    -0x908(%rbp),%rax
    d717:	48 89 85 08 fc ff ff 	mov    %rax,-0x3f8(%rbp)
    d71e:	48 c7 85 10 fc ff ff 	movq   $0x0,-0x3f0(%rbp)
    d725:	00 00 00 00 
    d729:	48 8d 85 f8 f6 ff ff 	lea    -0x908(%rbp),%rax
    d730:	48 89 85 18 fc ff ff 	mov    %rax,-0x3e8(%rbp)
    d737:	48 8d 85 f8 f6 ff ff 	lea    -0x908(%rbp),%rax
    d73e:	48 89 85 20 fc ff ff 	mov    %rax,-0x3e0(%rbp)
    d745:	48 c7 85 28 fc ff ff 	movq   $0x0,-0x3d8(%rbp)
    d74c:	00 00 00 00 
    d750:	48 8d 85 f8 f6 ff ff 	lea    -0x908(%rbp),%rax
    d757:	48 89 85 30 fc ff ff 	mov    %rax,-0x3d0(%rbp)
    d75e:	48 8d 85 f8 f6 ff ff 	lea    -0x908(%rbp),%rax
    d765:	48 89 85 38 fc ff ff 	mov    %rax,-0x3c8(%rbp)
    d76c:	48 8d 85 f8 f6 ff ff 	lea    -0x908(%rbp),%rax
    d773:	48 89 85 40 fc ff ff 	mov    %rax,-0x3c0(%rbp)
    d77a:	48 8d 85 f8 f6 ff ff 	lea    -0x908(%rbp),%rax
    d781:	48 89 85 48 fc ff ff 	mov    %rax,-0x3b8(%rbp)
    d788:	48 8d 85 f8 f6 ff ff 	lea    -0x908(%rbp),%rax
    d78f:	48 89 85 50 fc ff ff 	mov    %rax,-0x3b0(%rbp)
    d796:	48 c7 85 58 fc ff ff 	movq   $0x0,-0x3a8(%rbp)
    d79d:	00 00 00 00 
    d7a1:	48 8d 85 f8 f6 ff ff 	lea    -0x908(%rbp),%rax
    d7a8:	48 89 85 60 fc ff ff 	mov    %rax,-0x3a0(%rbp)
    d7af:	48 c7 85 68 fc ff ff 	movq   $0x0,-0x398(%rbp)
    d7b6:	00 00 00 00 
    d7ba:	48 8d 85 f8 f6 ff ff 	lea    -0x908(%rbp),%rax
    d7c1:	48 89 85 70 fc ff ff 	mov    %rax,-0x390(%rbp)
    d7c8:	48 8d 85 f8 f6 ff ff 	lea    -0x908(%rbp),%rax
    d7cf:	48 89 85 78 fc ff ff 	mov    %rax,-0x388(%rbp)
    d7d6:	48 8d 85 f8 f6 ff ff 	lea    -0x908(%rbp),%rax
    d7dd:	48 89 85 80 fc ff ff 	mov    %rax,-0x380(%rbp)
    d7e4:	48 8d 85 f8 f6 ff ff 	lea    -0x908(%rbp),%rax
    d7eb:	48 89 85 88 fc ff ff 	mov    %rax,-0x378(%rbp)
    d7f2:	48 8d 85 f8 f6 ff ff 	lea    -0x908(%rbp),%rax
    d7f9:	48 89 85 90 fc ff ff 	mov    %rax,-0x370(%rbp)
    d800:	48 8d 85 f8 f6 ff ff 	lea    -0x908(%rbp),%rax
    d807:	48 89 85 98 fc ff ff 	mov    %rax,-0x368(%rbp)
    d80e:	48 c7 85 a0 fc ff ff 	movq   $0x0,-0x360(%rbp)
    d815:	00 00 00 00 
    d819:	48 8d 85 f8 f6 ff ff 	lea    -0x908(%rbp),%rax
    d820:	48 89 85 a8 fc ff ff 	mov    %rax,-0x358(%rbp)
    d827:	48 8d 85 f8 f6 ff ff 	lea    -0x908(%rbp),%rax
    d82e:	48 89 85 b0 fc ff ff 	mov    %rax,-0x350(%rbp)
    d835:	48 8d 85 f8 f6 ff ff 	lea    -0x908(%rbp),%rax
    d83c:	48 89 85 b8 fc ff ff 	mov    %rax,-0x348(%rbp)
    d843:	48 8d 85 f8 f6 ff ff 	lea    -0x908(%rbp),%rax
    d84a:	48 89 85 c0 fc ff ff 	mov    %rax,-0x340(%rbp)
    d851:	48 8d 85 f8 f6 ff ff 	lea    -0x908(%rbp),%rax
    d858:	48 89 85 c8 fc ff ff 	mov    %rax,-0x338(%rbp)
    d85f:	48 8d 85 f8 f6 ff ff 	lea    -0x908(%rbp),%rax
    d866:	48 89 85 d0 fc ff ff 	mov    %rax,-0x330(%rbp)
    d86d:	48 8d 85 f8 f6 ff ff 	lea    -0x908(%rbp),%rax
    d874:	48 89 85 d8 fc ff ff 	mov    %rax,-0x328(%rbp)
    d87b:	48 8d 85 f8 f6 ff ff 	lea    -0x908(%rbp),%rax
    d882:	48 89 85 e0 fc ff ff 	mov    %rax,-0x320(%rbp)
    d889:	48 c7 85 e8 fc ff ff 	movq   $0x0,-0x318(%rbp)
    d890:	00 00 00 00 
    d894:	48 8d 85 f8 f6 ff ff 	lea    -0x908(%rbp),%rax
    d89b:	48 89 85 f0 fc ff ff 	mov    %rax,-0x310(%rbp)
    d8a2:	48 8d 85 f8 f6 ff ff 	lea    -0x908(%rbp),%rax
    d8a9:	48 89 85 f8 fc ff ff 	mov    %rax,-0x308(%rbp)
    d8b0:	48 8d 85 f8 f6 ff ff 	lea    -0x908(%rbp),%rax
    d8b7:	48 89 85 00 fd ff ff 	mov    %rax,-0x300(%rbp)
    d8be:	48 8d 85 f8 f6 ff ff 	lea    -0x908(%rbp),%rax
    d8c5:	48 89 85 08 fd ff ff 	mov    %rax,-0x2f8(%rbp)
    d8cc:	48 8d 85 f8 f6 ff ff 	lea    -0x908(%rbp),%rax
    d8d3:	48 89 85 10 fd ff ff 	mov    %rax,-0x2f0(%rbp)
    d8da:	48 8d 85 f8 f6 ff ff 	lea    -0x908(%rbp),%rax
    d8e1:	48 89 85 18 fd ff ff 	mov    %rax,-0x2e8(%rbp)
    d8e8:	48 8d 85 f8 f6 ff ff 	lea    -0x908(%rbp),%rax
    d8ef:	48 89 85 20 fd ff ff 	mov    %rax,-0x2e0(%rbp)
    d8f6:	48 8d 85 f8 f6 ff ff 	lea    -0x908(%rbp),%rax
    d8fd:	48 89 85 28 fd ff ff 	mov    %rax,-0x2d8(%rbp)
    d904:	48 8d 85 f8 f6 ff ff 	lea    -0x908(%rbp),%rax
    d90b:	48 89 85 30 fd ff ff 	mov    %rax,-0x2d0(%rbp)
    d912:	48 8d 85 f8 f6 ff ff 	lea    -0x908(%rbp),%rax
    d919:	48 89 85 38 fd ff ff 	mov    %rax,-0x2c8(%rbp)
    d920:	48 8d 85 f8 f6 ff ff 	lea    -0x908(%rbp),%rax
    d927:	48 89 85 40 fd ff ff 	mov    %rax,-0x2c0(%rbp)
    d92e:	48 8d 85 f8 f6 ff ff 	lea    -0x908(%rbp),%rax
    d935:	48 89 85 48 fd ff ff 	mov    %rax,-0x2b8(%rbp)
    d93c:	48 8d 85 f8 f6 ff ff 	lea    -0x908(%rbp),%rax
    d943:	48 89 85 50 fd ff ff 	mov    %rax,-0x2b0(%rbp)
    d94a:	48 8d 85 f8 f6 ff ff 	lea    -0x908(%rbp),%rax
    d951:	48 89 85 58 fd ff ff 	mov    %rax,-0x2a8(%rbp)
    d958:	48 8d 85 f8 f6 ff ff 	lea    -0x908(%rbp),%rax
    d95f:	48 89 85 60 fd ff ff 	mov    %rax,-0x2a0(%rbp)
    d966:	48 8d 85 f8 f6 ff ff 	lea    -0x908(%rbp),%rax
    d96d:	48 89 85 68 fd ff ff 	mov    %rax,-0x298(%rbp)
    d974:	48 8d 85 f8 f6 ff ff 	lea    -0x908(%rbp),%rax
    d97b:	48 89 85 70 fd ff ff 	mov    %rax,-0x290(%rbp)
    d982:	48 8d 85 f8 f6 ff ff 	lea    -0x908(%rbp),%rax
    d989:	48 89 85 78 fd ff ff 	mov    %rax,-0x288(%rbp)
    d990:	48 8d 85 f8 f6 ff ff 	lea    -0x908(%rbp),%rax
    d997:	48 89 85 80 fd ff ff 	mov    %rax,-0x280(%rbp)
    d99e:	48 8d 85 f8 f6 ff ff 	lea    -0x908(%rbp),%rax
    d9a5:	48 89 85 88 fd ff ff 	mov    %rax,-0x278(%rbp)
    d9ac:	48 c7 85 90 fd ff ff 	movq   $0x0,-0x270(%rbp)
    d9b3:	00 00 00 00 
    d9b7:	48 8d 85 f8 f6 ff ff 	lea    -0x908(%rbp),%rax
    d9be:	48 89 85 98 fd ff ff 	mov    %rax,-0x268(%rbp)
    d9c5:	48 8d 85 f8 f6 ff ff 	lea    -0x908(%rbp),%rax
    d9cc:	48 89 85 a0 fd ff ff 	mov    %rax,-0x260(%rbp)
    d9d3:	48 8d 85 f8 f6 ff ff 	lea    -0x908(%rbp),%rax
    d9da:	48 89 85 a8 fd ff ff 	mov    %rax,-0x258(%rbp)
    d9e1:	48 8d 85 f8 f6 ff ff 	lea    -0x908(%rbp),%rax
    d9e8:	48 89 85 b0 fd ff ff 	mov    %rax,-0x250(%rbp)
    d9ef:	48 8d 85 f8 f6 ff ff 	lea    -0x908(%rbp),%rax
    d9f6:	48 89 85 b8 fd ff ff 	mov    %rax,-0x248(%rbp)
    d9fd:	48 8d 85 f8 f6 ff ff 	lea    -0x908(%rbp),%rax
    da04:	48 89 85 c0 fd ff ff 	mov    %rax,-0x240(%rbp)
    da0b:	48 8d 85 f8 f6 ff ff 	lea    -0x908(%rbp),%rax
    da12:	48 89 85 c8 fd ff ff 	mov    %rax,-0x238(%rbp)
    da19:	48 8d 85 f8 f6 ff ff 	lea    -0x908(%rbp),%rax
    da20:	48 89 85 d0 fd ff ff 	mov    %rax,-0x230(%rbp)
    da27:	48 c7 85 d8 fd ff ff 	movq   $0x0,-0x228(%rbp)
    da2e:	00 00 00 00 
    da32:	48 8d 85 f8 f6 ff ff 	lea    -0x908(%rbp),%rax
    da39:	48 89 85 e0 fd ff ff 	mov    %rax,-0x220(%rbp)
    da40:	48 8d 85 f8 f6 ff ff 	lea    -0x908(%rbp),%rax
    da47:	48 89 85 e8 fd ff ff 	mov    %rax,-0x218(%rbp)
    da4e:	48 8d 85 f8 f6 ff ff 	lea    -0x908(%rbp),%rax
    da55:	48 89 85 f0 fd ff ff 	mov    %rax,-0x210(%rbp)
    da5c:	48 8d 85 f8 f6 ff ff 	lea    -0x908(%rbp),%rax
    da63:	48 89 85 f8 fd ff ff 	mov    %rax,-0x208(%rbp)
    da6a:	48 8d 85 f8 f6 ff ff 	lea    -0x908(%rbp),%rax
    da71:	48 89 85 00 fe ff ff 	mov    %rax,-0x200(%rbp)
    da78:	48 8d 85 f8 f6 ff ff 	lea    -0x908(%rbp),%rax
    da7f:	48 89 85 08 fe ff ff 	mov    %rax,-0x1f8(%rbp)
    da86:	48 c7 85 10 fe ff ff 	movq   $0x0,-0x1f0(%rbp)
    da8d:	00 00 00 00 
    da91:	48 8d 85 f8 f6 ff ff 	lea    -0x908(%rbp),%rax
    da98:	48 89 85 18 fe ff ff 	mov    %rax,-0x1e8(%rbp)
    da9f:	48 c7 85 20 fe ff ff 	movq   $0x0,-0x1e0(%rbp)
    daa6:	00 00 00 00 
    daaa:	48 8d 85 f8 f6 ff ff 	lea    -0x908(%rbp),%rax
    dab1:	48 89 85 28 fe ff ff 	mov    %rax,-0x1d8(%rbp)
    dab8:	48 8d 85 f8 f6 ff ff 	lea    -0x908(%rbp),%rax
    dabf:	48 89 85 30 fe ff ff 	mov    %rax,-0x1d0(%rbp)
    dac6:	48 8d 85 f8 f6 ff ff 	lea    -0x908(%rbp),%rax
    dacd:	48 89 85 38 fe ff ff 	mov    %rax,-0x1c8(%rbp)
    dad4:	48 8d 85 f8 f6 ff ff 	lea    -0x908(%rbp),%rax
    dadb:	48 89 85 40 fe ff ff 	mov    %rax,-0x1c0(%rbp)
    dae2:	48 8d 85 f8 f6 ff ff 	lea    -0x908(%rbp),%rax
    dae9:	48 89 85 48 fe ff ff 	mov    %rax,-0x1b8(%rbp)
    daf0:	48 c7 85 50 fe ff ff 	movq   $0x0,-0x1b0(%rbp)
    daf7:	00 00 00 00 
    dafb:	48 8d 85 f8 f6 ff ff 	lea    -0x908(%rbp),%rax
    db02:	48 89 85 58 fe ff ff 	mov    %rax,-0x1a8(%rbp)
    db09:	48 8d 85 f8 f6 ff ff 	lea    -0x908(%rbp),%rax
    db10:	48 89 85 60 fe ff ff 	mov    %rax,-0x1a0(%rbp)
    db17:	48 c7 85 68 fe ff ff 	movq   $0x0,-0x198(%rbp)
    db1e:	00 00 00 00 
    db22:	48 8d 85 f8 f6 ff ff 	lea    -0x908(%rbp),%rax
    db29:	48 89 85 70 fe ff ff 	mov    %rax,-0x190(%rbp)
    db30:	48 8d 85 f8 f6 ff ff 	lea    -0x908(%rbp),%rax
    db37:	48 89 85 78 fe ff ff 	mov    %rax,-0x188(%rbp)
    db3e:	48 8d 85 f8 f6 ff ff 	lea    -0x908(%rbp),%rax
    db45:	48 89 85 80 fe ff ff 	mov    %rax,-0x180(%rbp)
    db4c:	48 8d 85 f8 f6 ff ff 	lea    -0x908(%rbp),%rax
    db53:	48 89 85 88 fe ff ff 	mov    %rax,-0x178(%rbp)
    db5a:	48 8d 85 f8 f6 ff ff 	lea    -0x908(%rbp),%rax
    db61:	48 89 85 90 fe ff ff 	mov    %rax,-0x170(%rbp)
    db68:	48 c7 85 98 fe ff ff 	movq   $0x0,-0x168(%rbp)
    db6f:	00 00 00 00 
    db73:	48 8d 85 f8 f6 ff ff 	lea    -0x908(%rbp),%rax
    db7a:	48 89 85 a0 fe ff ff 	mov    %rax,-0x160(%rbp)
    db81:	48 8d 85 f8 f6 ff ff 	lea    -0x908(%rbp),%rax
    db88:	48 89 85 a8 fe ff ff 	mov    %rax,-0x158(%rbp)
    db8f:	48 8d 85 f8 f6 ff ff 	lea    -0x908(%rbp),%rax
    db96:	48 89 85 b0 fe ff ff 	mov    %rax,-0x150(%rbp)
    db9d:	48 8d 85 f8 f6 ff ff 	lea    -0x908(%rbp),%rax
    dba4:	48 89 85 b8 fe ff ff 	mov    %rax,-0x148(%rbp)
    dbab:	48 8d 85 f8 f6 ff ff 	lea    -0x908(%rbp),%rax
    dbb2:	48 89 85 c0 fe ff ff 	mov    %rax,-0x140(%rbp)
    dbb9:	48 8d 85 f8 f6 ff ff 	lea    -0x908(%rbp),%rax
    dbc0:	48 89 85 c8 fe ff ff 	mov    %rax,-0x138(%rbp)
    dbc7:	48 8d 85 f8 f6 ff ff 	lea    -0x908(%rbp),%rax
    dbce:	48 89 85 d0 fe ff ff 	mov    %rax,-0x130(%rbp)
    dbd5:	48 8d 85 f8 f6 ff ff 	lea    -0x908(%rbp),%rax
    dbdc:	48 89 85 d8 fe ff ff 	mov    %rax,-0x128(%rbp)
    dbe3:	48 c7 85 e0 fe ff ff 	movq   $0x0,-0x120(%rbp)
    dbea:	00 00 00 00 
    dbee:	48 c7 85 e8 fe ff ff 	movq   $0x0,-0x118(%rbp)
    dbf5:	00 00 00 00 
    dbf9:	48 8d 85 f8 f6 ff ff 	lea    -0x908(%rbp),%rax
    dc00:	48 89 85 f0 fe ff ff 	mov    %rax,-0x110(%rbp)
    dc07:	48 8d 85 f8 f6 ff ff 	lea    -0x908(%rbp),%rax
    dc0e:	48 89 85 f8 fe ff ff 	mov    %rax,-0x108(%rbp)
    dc15:	48 8d 85 f8 f6 ff ff 	lea    -0x908(%rbp),%rax
    dc1c:	48 89 85 00 ff ff ff 	mov    %rax,-0x100(%rbp)
    dc23:	48 8d 85 f8 f6 ff ff 	lea    -0x908(%rbp),%rax
    dc2a:	48 89 85 08 ff ff ff 	mov    %rax,-0xf8(%rbp)
    dc31:	48 8d 85 f8 f6 ff ff 	lea    -0x908(%rbp),%rax
    dc38:	48 89 85 10 ff ff ff 	mov    %rax,-0xf0(%rbp)
    dc3f:	48 8d 85 f8 f6 ff ff 	lea    -0x908(%rbp),%rax
    dc46:	48 89 85 18 ff ff ff 	mov    %rax,-0xe8(%rbp)
    dc4d:	48 8d 85 f8 f6 ff ff 	lea    -0x908(%rbp),%rax
    dc54:	48 89 85 20 ff ff ff 	mov    %rax,-0xe0(%rbp)
    dc5b:	48 c7 85 28 ff ff ff 	movq   $0x0,-0xd8(%rbp)
    dc62:	00 00 00 00 
    dc66:	48 8d 85 f8 f6 ff ff 	lea    -0x908(%rbp),%rax
    dc6d:	48 89 85 30 ff ff ff 	mov    %rax,-0xd0(%rbp)
    dc74:	48 8d 85 f8 f6 ff ff 	lea    -0x908(%rbp),%rax
    dc7b:	48 89 85 38 ff ff ff 	mov    %rax,-0xc8(%rbp)
    dc82:	48 8d 85 f8 f6 ff ff 	lea    -0x908(%rbp),%rax
    dc89:	48 89 85 40 ff ff ff 	mov    %rax,-0xc0(%rbp)
    dc90:	48 8d 85 f8 f6 ff ff 	lea    -0x908(%rbp),%rax
    dc97:	48 89 85 48 ff ff ff 	mov    %rax,-0xb8(%rbp)
    dc9e:	48 8d 85 f8 f6 ff ff 	lea    -0x908(%rbp),%rax
    dca5:	48 89 85 50 ff ff ff 	mov    %rax,-0xb0(%rbp)
    dcac:	48 8d 85 f8 f6 ff ff 	lea    -0x908(%rbp),%rax
    dcb3:	48 89 85 58 ff ff ff 	mov    %rax,-0xa8(%rbp)
    dcba:	48 8d 85 f8 f6 ff ff 	lea    -0x908(%rbp),%rax
    dcc1:	48 89 85 60 ff ff ff 	mov    %rax,-0xa0(%rbp)
    dcc8:	48 8d 85 f8 f6 ff ff 	lea    -0x908(%rbp),%rax
    dccf:	48 89 85 68 ff ff ff 	mov    %rax,-0x98(%rbp)
    dcd6:	48 8d 85 f8 f6 ff ff 	lea    -0x908(%rbp),%rax
    dcdd:	48 89 85 70 ff ff ff 	mov    %rax,-0x90(%rbp)
    dce4:	48 8d 85 f8 f6 ff ff 	lea    -0x908(%rbp),%rax
    dceb:	48 89 85 78 ff ff ff 	mov    %rax,-0x88(%rbp)
    dcf2:	48 8d 85 f8 f6 ff ff 	lea    -0x908(%rbp),%rax
    dcf9:	48 89 45 80          	mov    %rax,-0x80(%rbp)
    dcfd:	48 8d 85 f8 f6 ff ff 	lea    -0x908(%rbp),%rax
    dd04:	48 89 45 88          	mov    %rax,-0x78(%rbp)
    dd08:	48 8d 85 f8 f6 ff ff 	lea    -0x908(%rbp),%rax
    dd0f:	48 89 45 90          	mov    %rax,-0x70(%rbp)
    dd13:	48 8d 85 f8 f6 ff ff 	lea    -0x908(%rbp),%rax
    dd1a:	48 89 45 98          	mov    %rax,-0x68(%rbp)
    dd1e:	48 8d 85 f8 f6 ff ff 	lea    -0x908(%rbp),%rax
    dd25:	48 89 45 a0          	mov    %rax,-0x60(%rbp)
    dd29:	48 8d 85 f8 f6 ff ff 	lea    -0x908(%rbp),%rax
    dd30:	48 89 45 a8          	mov    %rax,-0x58(%rbp)
    dd34:	48 8d 85 f8 f6 ff ff 	lea    -0x908(%rbp),%rax
    dd3b:	48 89 45 b0          	mov    %rax,-0x50(%rbp)
    dd3f:	48 8d 85 f8 f6 ff ff 	lea    -0x908(%rbp),%rax
    dd46:	48 89 45 b8          	mov    %rax,-0x48(%rbp)
    dd4a:	48 8d 85 c0 f8 ff ff 	lea    -0x740(%rbp),%rax
    dd51:	48 05 68 04 00 00    	add    $0x468,%rax
    dd57:	48 89 85 28 f7 ff ff 	mov    %rax,-0x8d8(%rbp)
    dd5e:	c7 85 ac f6 ff ff fe 	movl   $0xfffffffe,-0x954(%rbp)
    dd65:	ff ff ff 
    dd68:	48 8d 05 85 f6 00 00 	lea    0xf685(%rip),%rax        # 1d3f4 <g_500+0x4>
    dd6f:	48 89 85 30 f7 ff ff 	mov    %rax,-0x8d0(%rbp)
    dd76:	48 8d 05 a7 3c 01 00 	lea    0x13ca7(%rip),%rax        # 21a24 <g_2372>
    dd7d:	48 89 85 38 f7 ff ff 	mov    %rax,-0x8c8(%rbp)
    dd84:	48 8d 05 ad f2 00 00 	lea    0xf2ad(%rip),%rax        # 1d038 <g_45>
    dd8b:	48 89 85 40 f7 ff ff 	mov    %rax,-0x8c0(%rbp)
    dd92:	48 8d 05 9f f2 00 00 	lea    0xf29f(%rip),%rax        # 1d038 <g_45>
    dd99:	48 89 85 48 f7 ff ff 	mov    %rax,-0x8b8(%rbp)
    dda0:	48 8d 85 ac f6 ff ff 	lea    -0x954(%rbp),%rax
    dda7:	48 89 85 50 f7 ff ff 	mov    %rax,-0x8b0(%rbp)
    ddae:	48 8d 05 6f 3c 01 00 	lea    0x13c6f(%rip),%rax        # 21a24 <g_2372>
    ddb5:	48 89 85 58 f7 ff ff 	mov    %rax,-0x8a8(%rbp)
    ddbc:	48 8d 05 75 f2 00 00 	lea    0xf275(%rip),%rax        # 1d038 <g_45>
    ddc3:	48 89 85 60 f7 ff ff 	mov    %rax,-0x8a0(%rbp)
    ddca:	48 8d 05 6b f2 00 00 	lea    0xf26b(%rip),%rax        # 1d03c <g_67>
    ddd1:	48 89 85 30 f8 ff ff 	mov    %rax,-0x7d0(%rbp)
    ddd8:	48 8d 05 5d f2 00 00 	lea    0xf25d(%rip),%rax        # 1d03c <g_67>
    dddf:	48 89 85 38 f8 ff ff 	mov    %rax,-0x7c8(%rbp)
    dde6:	48 c7 85 40 f8 ff ff 	movq   $0x0,-0x7c0(%rbp)
    dded:	00 00 00 00 
    ddf1:	48 8d 05 44 f2 00 00 	lea    0xf244(%rip),%rax        # 1d03c <g_67>
    ddf8:	48 89 85 48 f8 ff ff 	mov    %rax,-0x7b8(%rbp)
    ddff:	48 8d 05 36 f2 00 00 	lea    0xf236(%rip),%rax        # 1d03c <g_67>
    de06:	48 89 85 50 f8 ff ff 	mov    %rax,-0x7b0(%rbp)
    de0d:	48 c7 85 58 f8 ff ff 	movq   $0x0,-0x7a8(%rbp)
    de14:	00 00 00 00 
    de18:	48 8d 05 1d f2 00 00 	lea    0xf21d(%rip),%rax        # 1d03c <g_67>
    de1f:	48 89 85 60 f8 ff ff 	mov    %rax,-0x7a0(%rbp)
    de26:	c7 85 f0 f6 ff ff 6c 	movl   $0x1db4b26c,-0x910(%rbp)
    de2d:	b2 b4 1d 
    de30:	c7 85 f4 f6 ff ff 00 	movl   $0x0,-0x90c(%rbp)
    de37:	00 00 00 
    de3a:	48 b8 42 e1 5c ac a7 	movabs $0xd8e098a7ac5ce142,%rax
    de41:	98 e0 d8 
    de44:	48 89 85 68 f7 ff ff 	mov    %rax,-0x898(%rbp)
    de4b:	c7 85 bc f6 ff ff 00 	movl   $0x0,-0x944(%rbp)
    de52:	00 00 00 
    de55:	eb 1b                	jmp    de72 <func_13+0xffb>
    de57:	8b 85 bc f6 ff ff    	mov    -0x944(%rbp),%eax
    de5d:	48 98                	cltq   
    de5f:	48 c7 84 c5 70 f7 ff 	movq   $0x0,-0x890(%rbp,%rax,8)
    de66:	ff 00 00 00 00 
    de6b:	83 85 bc f6 ff ff 01 	addl   $0x1,-0x944(%rbp)
    de72:	83 bd bc f6 ff ff 01 	cmpl   $0x1,-0x944(%rbp)
    de79:	7e dc                	jle    de57 <func_13+0xfe0>
    de7b:	48 8b 85 28 f7 ff ff 	mov    -0x8d8(%rbp),%rax
    de82:	48 89 05 9f 5c 01 00 	mov    %rax,0x15c9f(%rip)        # 23b28 <g_2389>
    de89:	48 83 ad 68 f7 ff ff 	subq   $0x1,-0x898(%rbp)
    de90:	01 
    de91:	0f bf 9d 84 f6 ff ff 	movswl -0x97c(%rbp),%ebx
    de98:	0f b6 05 59 f4 00 00 	movzbl 0xf459(%rip),%eax        # 1d2f8 <g_161>
    de9f:	84 c0                	test   %al,%al
    dea1:	0f 95 c0             	setne  %al
    dea4:	44 0f b6 e0          	movzbl %al,%r12d
    dea8:	0f b7 05 7d f1 00 00 	movzwl 0xf17d(%rip),%eax        # 1d02c <g_29+0x4>
    deaf:	44 0f bf e8          	movswl %ax,%r13d
    deb3:	be 00 00 00 00       	mov    $0x0,%esi
    deb8:	bf 01 00 00 00       	mov    $0x1,%edi
    debd:	e8 89 b1 ff ff       	callq  904b <safe_sub_func_uint64_t_u_u>
    dec2:	0f b6 c0             	movzbl %al,%eax
    dec5:	89 c7                	mov    %eax,%edi
    dec7:	e8 79 ac ff ff       	callq  8b45 <safe_unary_minus_func_uint8_t_u>
    decc:	0f b6 d0             	movzbl %al,%edx
    decf:	0f b7 05 24 f4 00 00 	movzwl 0xf424(%rip),%eax        # 1d2fa <g_166>
    ded6:	0f b7 c0             	movzwl %ax,%eax
    ded9:	09 d0                	or     %edx,%eax
    dedb:	41 39 c5             	cmp    %eax,%r13d
    dede:	0f 95 c0             	setne  %al
    dee1:	0f b6 c0             	movzbl %al,%eax
    dee4:	be fd 00 00 00       	mov    $0xfd,%esi
    dee9:	89 c7                	mov    %eax,%edi
    deeb:	e8 88 ac ff ff       	callq  8b78 <safe_sub_func_uint8_t_u_u>
    def0:	0f b6 c0             	movzbl %al,%eax
    def3:	be fa 00 00 00       	mov    $0xfa,%esi
    def8:	89 c7                	mov    %eax,%edi
    defa:	e8 94 ac ff ff       	callq  8b93 <safe_mul_func_uint8_t_u_u>
    deff:	0f b6 d0             	movzbl %al,%edx
    df02:	0f b7 85 84 f6 ff ff 	movzwl -0x97c(%rbp),%eax
    df09:	0f b7 c0             	movzwl %ax,%eax
    df0c:	89 d6                	mov    %edx,%esi
    df0e:	89 c7                	mov    %eax,%edi
    df10:	e8 0a ae ff ff       	callq  8d1f <safe_sub_func_uint16_t_u_u>
    df15:	66 85 c0             	test   %ax,%ax
    df18:	74 11                	je     df2b <func_13+0x10b4>
    df1a:	48 83 bd 10 f7 ff ff 	cmpq   $0x0,-0x8f0(%rbp)
    df21:	00 
    df22:	74 07                	je     df2b <func_13+0x10b4>
    df24:	b8 01 00 00 00       	mov    $0x1,%eax
    df29:	eb 05                	jmp    df30 <func_13+0x10b9>
    df2b:	b8 00 00 00 00       	mov    $0x0,%eax
    df30:	44 39 e0             	cmp    %r12d,%eax
    df33:	0f 9e c0             	setle  %al
    df36:	0f b6 c0             	movzbl %al,%eax
    df39:	0b 85 98 f6 ff ff    	or     -0x968(%rbp),%eax
    df3f:	89 c6                	mov    %eax,%esi
    df41:	48 8b 05 78 4c 01 00 	mov    0x14c78(%rip),%rax        # 22bc0 <g_100>
    df48:	48 8b 00             	mov    (%rax),%rax
    df4b:	48 8b 15 36 52 01 00 	mov    0x15236(%rip),%rdx        # 23188 <g_637>
    df52:	48 8b 12             	mov    (%rdx),%rdx
    df55:	4c 8b 22             	mov    (%rdx),%r12
    df58:	48 8d 95 80 f7 ff ff 	lea    -0x880(%rbp),%rdx
    df5f:	48 83 c2 10          	add    $0x10,%rdx
    df63:	48 89 d1             	mov    %rdx,%rcx
    df66:	89 da                	mov    %ebx,%edx
    df68:	48 89 c7             	mov    %rax,%rdi
    df6b:	e8 69 50 00 00       	callq  12fd9 <func_58>
    df70:	49 89 04 24          	mov    %rax,(%r12)
    df74:	8b 95 90 f7 ff ff    	mov    -0x870(%rbp),%edx
    df7a:	8b 85 d4 f7 ff ff    	mov    -0x82c(%rbp),%eax
    df80:	21 d0                	and    %edx,%eax
    df82:	89 85 90 f7 ff ff    	mov    %eax,-0x870(%rbp)
    df88:	8b 85 90 f7 ff ff    	mov    -0x870(%rbp),%eax
    df8e:	98                   	cwtl   
    df8f:	89 c7                	mov    %eax,%edi
    df91:	e8 07 a4 ff ff       	callq  839d <safe_unary_minus_func_int16_t_s>
    df96:	66 85 c0             	test   %ax,%ax
    df99:	74 0a                	je     dfa5 <func_13+0x112e>
    df9b:	8b 85 b0 f6 ff ff    	mov    -0x950(%rbp),%eax
    dfa1:	48 98                	cltq   
    dfa3:	eb 08                	jmp    dfad <func_13+0x1136>
    dfa5:	8b 85 9c f6 ff ff    	mov    -0x964(%rbp),%eax
    dfab:	48 98                	cltq   
    dfad:	48 8b 4d d8          	mov    -0x28(%rbp),%rcx
    dfb1:	64 48 33 0c 25 28 00 	xor    %fs:0x28,%rcx
    dfb8:	00 00 
    dfba:	74 05                	je     dfc1 <func_13+0x114a>
    dfbc:	e8 af a0 ff ff       	callq  8070 <__stack_chk_fail@plt>
    dfc1:	48 81 c4 68 09 00 00 	add    $0x968,%rsp
    dfc8:	5b                   	pop    %rbx
    dfc9:	41 5c                	pop    %r12
    dfcb:	41 5d                	pop    %r13
    dfcd:	5d                   	pop    %rbp
    dfce:	c3                   	retq   

000000000000dfcf <func_22>:
    dfcf:	f3 0f 1e fa          	endbr64 
    dfd3:	55                   	push   %rbp
    dfd4:	48 89 e5             	mov    %rsp,%rbp
    dfd7:	48 81 ec d0 01 00 00 	sub    $0x1d0,%rsp
    dfde:	48 89 bd 48 fe ff ff 	mov    %rdi,-0x1b8(%rbp)
    dfe5:	89 b5 44 fe ff ff    	mov    %esi,-0x1bc(%rbp)
    dfeb:	48 89 95 38 fe ff ff 	mov    %rdx,-0x1c8(%rbp)
    dff2:	89 c8                	mov    %ecx,%eax
    dff4:	4c 89 85 30 fe ff ff 	mov    %r8,-0x1d0(%rbp)
    dffb:	66 89 85 40 fe ff ff 	mov    %ax,-0x1c0(%rbp)
    e002:	64 48 8b 04 25 28 00 	mov    %fs:0x28,%rax
    e009:	00 00 
    e00b:	48 89 45 f8          	mov    %rax,-0x8(%rbp)
    e00f:	31 c0                	xor    %eax,%eax
    e011:	c6 85 5e fe ff ff 90 	movb   $0x90,-0x1a2(%rbp)
    e018:	c7 85 70 fe ff ff 06 	movl   $0x6,-0x190(%rbp)
    e01f:	00 00 00 
    e022:	48 8d 05 13 f0 00 00 	lea    0xf013(%rip),%rax        # 1d03c <g_67>
    e029:	48 89 85 c8 fe ff ff 	mov    %rax,-0x138(%rbp)
    e030:	48 8d 05 ef ef 00 00 	lea    0xefef(%rip),%rax        # 1d026 <g_19>
    e037:	48 89 85 98 fe ff ff 	mov    %rax,-0x168(%rbp)
    e03e:	48 8d 85 98 fe ff ff 	lea    -0x168(%rbp),%rax
    e045:	48 89 85 d0 fe ff ff 	mov    %rax,-0x130(%rbp)
    e04c:	48 8d 05 91 f2 00 00 	lea    0xf291(%rip),%rax        # 1d2e4 <g_108>
    e053:	48 89 85 d8 fe ff ff 	mov    %rax,-0x128(%rbp)
    e05a:	48 c7 85 a0 fe ff ff 	movq   $0x0,-0x160(%rbp)
    e061:	00 00 00 00 
    e065:	48 8d 85 a0 fe ff ff 	lea    -0x160(%rbp),%rax
    e06c:	48 89 85 a8 fe ff ff 	mov    %rax,-0x158(%rbp)
    e073:	48 8d 85 a8 fe ff ff 	lea    -0x158(%rbp),%rax
    e07a:	48 89 85 e0 fe ff ff 	mov    %rax,-0x120(%rbp)
    e081:	66 c7 85 60 fe ff ff 	movw   $0x233f,-0x1a0(%rbp)
    e088:	3f 23 
    e08a:	c7 85 74 fe ff ff d9 	movl   $0x55c5d9d9,-0x18c(%rbp)
    e091:	d9 c5 55 
    e094:	48 8d 05 ce f2 00 00 	lea    0xf2ce(%rip),%rax        # 1d369 <g_399>
    e09b:	48 89 85 b0 fe ff ff 	mov    %rax,-0x150(%rbp)
    e0a2:	48 8d 85 b0 fe ff ff 	lea    -0x150(%rbp),%rax
    e0a9:	48 89 85 e8 fe ff ff 	mov    %rax,-0x118(%rbp)
    e0b0:	c7 85 78 fe ff ff 0d 	movl   $0x2b0e130d,-0x188(%rbp)
    e0b7:	13 0e 2b 
    e0ba:	c7 85 7c fe ff ff fe 	movl   $0xfffffffe,-0x184(%rbp)
    e0c1:	ff ff ff 
    e0c4:	c7 85 80 fe ff ff 4b 	movl   $0x53dbe14b,-0x180(%rbp)
    e0cb:	e1 db 53 
    e0ce:	66 c7 45 80 01 00    	movw   $0x1,-0x80(%rbp)
    e0d4:	66 c7 45 82 01 00    	movw   $0x1,-0x7e(%rbp)
    e0da:	66 c7 45 84 ff ff    	movw   $0xffff,-0x7c(%rbp)
    e0e0:	66 c7 45 86 ff ff    	movw   $0xffff,-0x7a(%rbp)
    e0e6:	66 c7 45 88 00 00    	movw   $0x0,-0x78(%rbp)
    e0ec:	66 c7 45 8a 6e 38    	movw   $0x386e,-0x76(%rbp)
    e0f2:	66 c7 45 8c 00 00    	movw   $0x0,-0x74(%rbp)
    e0f8:	66 c7 45 8e ff ff    	movw   $0xffff,-0x72(%rbp)
    e0fe:	66 c7 45 90 00 00    	movw   $0x0,-0x70(%rbp)
    e104:	66 c7 45 92 ff ff    	movw   $0xffff,-0x6e(%rbp)
    e10a:	66 c7 45 94 ff ff    	movw   $0xffff,-0x6c(%rbp)
    e110:	66 c7 45 96 00 00    	movw   $0x0,-0x6a(%rbp)
    e116:	66 c7 45 98 01 00    	movw   $0x1,-0x68(%rbp)
    e11c:	66 c7 45 9a ff ff    	movw   $0xffff,-0x66(%rbp)
    e122:	66 c7 45 9c ff ff    	movw   $0xffff,-0x64(%rbp)
    e128:	66 c7 45 9e ff ff    	movw   $0xffff,-0x62(%rbp)
    e12e:	66 c7 45 a0 ff ff    	movw   $0xffff,-0x60(%rbp)
    e134:	66 c7 45 a2 6e 38    	movw   $0x386e,-0x5e(%rbp)
    e13a:	66 c7 45 a4 ff ff    	movw   $0xffff,-0x5c(%rbp)
    e140:	66 c7 45 a6 ff ff    	movw   $0xffff,-0x5a(%rbp)
    e146:	66 c7 45 a8 01 00    	movw   $0x1,-0x58(%rbp)
    e14c:	66 c7 45 aa 01 00    	movw   $0x1,-0x56(%rbp)
    e152:	66 c7 45 ac ff ff    	movw   $0xffff,-0x54(%rbp)
    e158:	66 c7 45 ae ff ff    	movw   $0xffff,-0x52(%rbp)
    e15e:	66 c7 45 b0 00 00    	movw   $0x0,-0x50(%rbp)
    e164:	66 c7 45 b2 6e 38    	movw   $0x386e,-0x4e(%rbp)
    e16a:	66 c7 45 b4 00 00    	movw   $0x0,-0x4c(%rbp)
    e170:	66 c7 45 b6 ff ff    	movw   $0xffff,-0x4a(%rbp)
    e176:	66 c7 45 b8 00 00    	movw   $0x0,-0x48(%rbp)
    e17c:	66 c7 45 ba ff ff    	movw   $0xffff,-0x46(%rbp)
    e182:	66 c7 45 bc ff ff    	movw   $0xffff,-0x44(%rbp)
    e188:	66 c7 45 be 00 00    	movw   $0x0,-0x42(%rbp)
    e18e:	66 c7 45 c0 01 00    	movw   $0x1,-0x40(%rbp)
    e194:	66 c7 45 c2 ff ff    	movw   $0xffff,-0x3e(%rbp)
    e19a:	66 c7 45 c4 ff ff    	movw   $0xffff,-0x3c(%rbp)
    e1a0:	66 c7 45 c6 ff ff    	movw   $0xffff,-0x3a(%rbp)
    e1a6:	66 c7 45 c8 ff ff    	movw   $0xffff,-0x38(%rbp)
    e1ac:	66 c7 45 ca 6e 38    	movw   $0x386e,-0x36(%rbp)
    e1b2:	66 c7 45 cc ff ff    	movw   $0xffff,-0x34(%rbp)
    e1b8:	66 c7 45 ce ff ff    	movw   $0xffff,-0x32(%rbp)
    e1be:	66 c7 45 d0 01 00    	movw   $0x1,-0x30(%rbp)
    e1c4:	66 c7 45 d2 01 00    	movw   $0x1,-0x2e(%rbp)
    e1ca:	66 c7 45 d4 ff ff    	movw   $0xffff,-0x2c(%rbp)
    e1d0:	66 c7 45 d6 ff ff    	movw   $0xffff,-0x2a(%rbp)
    e1d6:	66 c7 45 d8 00 00    	movw   $0x0,-0x28(%rbp)
    e1dc:	66 c7 45 da 6e 38    	movw   $0x386e,-0x26(%rbp)
    e1e2:	66 c7 45 dc 00 00    	movw   $0x0,-0x24(%rbp)
    e1e8:	66 c7 45 de ff ff    	movw   $0xffff,-0x22(%rbp)
    e1ee:	66 c7 45 e0 00 00    	movw   $0x0,-0x20(%rbp)
    e1f4:	66 c7 45 e2 ff ff    	movw   $0xffff,-0x1e(%rbp)
    e1fa:	66 c7 45 e4 ff ff    	movw   $0xffff,-0x1c(%rbp)
    e200:	66 c7 45 e6 00 00    	movw   $0x0,-0x1a(%rbp)
    e206:	66 c7 45 e8 01 00    	movw   $0x1,-0x18(%rbp)
    e20c:	66 c7 45 ea ff ff    	movw   $0xffff,-0x16(%rbp)
    e212:	66 c7 45 ec ff ff    	movw   $0xffff,-0x14(%rbp)
    e218:	66 c7 45 ee ff ff    	movw   $0xffff,-0x12(%rbp)
    e21e:	48 8d 05 03 74 01 00 	lea    0x17403(%rip),%rax        # 25628 <g_737+0x28>
    e225:	48 89 85 f0 fe ff ff 	mov    %rax,-0x110(%rbp)
    e22c:	c7 85 84 fe ff ff ff 	movl   $0xffffffff,-0x17c(%rbp)
    e233:	ff ff ff 
    e236:	c6 85 5f fe ff ff 44 	movb   $0x44,-0x1a1(%rbp)
    e23d:	48 b8 8e 58 20 ff 4b 	movabs $0x17962a4bff20588e,%rax
    e244:	2a 96 17 
    e247:	48 89 85 f8 fe ff ff 	mov    %rax,-0x108(%rbp)
    e24e:	c7 85 88 fe ff ff f6 	movl   $0xfffffff6,-0x178(%rbp)
    e255:	ff ff ff 
    e258:	c7 85 8c fe ff ff 70 	movl   $0x3ddddd70,-0x174(%rbp)
    e25f:	dd dd 3d 
    e262:	48 8d 85 40 ff ff ff 	lea    -0xc0(%rbp),%rax
    e269:	48 83 c0 08          	add    $0x8,%rax
    e26d:	48 89 85 b8 fe ff ff 	mov    %rax,-0x148(%rbp)
    e274:	48 8d 85 b8 fe ff ff 	lea    -0x148(%rbp),%rax
    e27b:	48 89 85 c0 fe ff ff 	mov    %rax,-0x140(%rbp)
    e282:	48 8d 85 c0 fe ff ff 	lea    -0x140(%rbp),%rax
    e289:	48 89 85 10 ff ff ff 	mov    %rax,-0xf0(%rbp)
    e290:	48 8d 85 c0 fe ff ff 	lea    -0x140(%rbp),%rax
    e297:	48 89 85 18 ff ff ff 	mov    %rax,-0xe8(%rbp)
    e29e:	48 8d 85 c0 fe ff ff 	lea    -0x140(%rbp),%rax
    e2a5:	48 89 85 20 ff ff ff 	mov    %rax,-0xe0(%rbp)
    e2ac:	48 8d 85 c0 fe ff ff 	lea    -0x140(%rbp),%rax
    e2b3:	48 89 85 28 ff ff ff 	mov    %rax,-0xd8(%rbp)
    e2ba:	48 8d 85 c0 fe ff ff 	lea    -0x140(%rbp),%rax
    e2c1:	48 89 85 30 ff ff ff 	mov    %rax,-0xd0(%rbp)
    e2c8:	48 8d 85 10 ff ff ff 	lea    -0xf0(%rbp),%rax
    e2cf:	48 83 c0 10          	add    $0x10,%rax
    e2d3:	48 89 85 00 ff ff ff 	mov    %rax,-0x100(%rbp)
    e2da:	c7 85 90 fe ff ff 08 	movl   $0x8,-0x170(%rbp)
    e2e1:	00 00 00 
    e2e4:	c7 85 94 fe ff ff 02 	movl   $0x2,-0x16c(%rbp)
    e2eb:	00 00 00 
    e2ee:	66 c7 85 62 fe ff ff 	movw   $0x97c3,-0x19e(%rbp)
    e2f5:	c3 97 
    e2f7:	c7 85 64 fe ff ff 00 	movl   $0x0,-0x19c(%rbp)
    e2fe:	00 00 00 
    e301:	eb 79                	jmp    e37c <func_22+0x3ad>
    e303:	c7 85 68 fe ff ff 00 	movl   $0x0,-0x198(%rbp)
    e30a:	00 00 00 
    e30d:	eb 5d                	jmp    e36c <func_22+0x39d>
    e30f:	c7 85 6c fe ff ff 00 	movl   $0x0,-0x194(%rbp)
    e316:	00 00 00 
    e319:	eb 41                	jmp    e35c <func_22+0x38d>
    e31b:	8b 85 6c fe ff ff    	mov    -0x194(%rbp),%eax
    e321:	48 63 f0             	movslq %eax,%rsi
    e324:	8b 85 68 fe ff ff    	mov    -0x198(%rbp),%eax
    e32a:	48 63 c8             	movslq %eax,%rcx
    e32d:	8b 85 64 fe ff ff    	mov    -0x19c(%rbp),%eax
    e333:	48 63 d0             	movslq %eax,%rdx
    e336:	48 89 d0             	mov    %rdx,%rax
    e339:	48 c1 e0 03          	shl    $0x3,%rax
    e33d:	48 29 d0             	sub    %rdx,%rax
    e340:	48 01 f0             	add    %rsi,%rax
    e343:	48 01 c8             	add    %rcx,%rax
    e346:	48 8d 15 9b ef 00 00 	lea    0xef9b(%rip),%rdx        # 1d2e8 <g_122>
    e34d:	48 89 94 c5 40 ff ff 	mov    %rdx,-0xc0(%rbp,%rax,8)
    e354:	ff 
    e355:	83 85 6c fe ff ff 01 	addl   $0x1,-0x194(%rbp)
    e35c:	83 bd 6c fe ff ff 00 	cmpl   $0x0,-0x194(%rbp)
    e363:	7e b6                	jle    e31b <func_22+0x34c>
    e365:	83 85 68 fe ff ff 01 	addl   $0x1,-0x198(%rbp)
    e36c:	83 bd 68 fe ff ff 06 	cmpl   $0x6,-0x198(%rbp)
    e373:	7e 9a                	jle    e30f <func_22+0x340>
    e375:	83 85 64 fe ff ff 01 	addl   $0x1,-0x19c(%rbp)
    e37c:	83 bd 64 fe ff ff 00 	cmpl   $0x0,-0x19c(%rbp)
    e383:	0f 8e 7a ff ff ff    	jle    e303 <func_22+0x334>
    e389:	c7 85 64 fe ff ff 00 	movl   $0x0,-0x19c(%rbp)
    e390:	00 00 00 
    e393:	eb 1a                	jmp    e3af <func_22+0x3e0>
    e395:	8b 85 64 fe ff ff    	mov    -0x19c(%rbp),%eax
    e39b:	48 98                	cltq   
    e39d:	c7 84 85 0c ff ff ff 	movl   $0xffffffff,-0xf4(%rbp,%rax,4)
    e3a4:	ff ff ff ff 
    e3a8:	83 85 64 fe ff ff 01 	addl   $0x1,-0x19c(%rbp)
    e3af:	83 bd 64 fe ff ff 00 	cmpl   $0x0,-0x19c(%rbp)
    e3b6:	7e dd                	jle    e395 <func_22+0x3c6>
    e3b8:	48 8b 85 d8 fe ff ff 	mov    -0x128(%rbp),%rax
    e3bf:	8b 00                	mov    (%rax),%eax
    e3c1:	48 8b 7d f8          	mov    -0x8(%rbp),%rdi
    e3c5:	64 48 33 3c 25 28 00 	xor    %fs:0x28,%rdi
    e3cc:	00 00 
    e3ce:	74 05                	je     e3d5 <func_22+0x406>
    e3d0:	e8 9b 9c ff ff       	callq  8070 <__stack_chk_fail@plt>
    e3d5:	c9                   	leaveq 
    e3d6:	c3                   	retq   

000000000000e3d7 <func_36>:
    e3d7:	f3 0f 1e fa          	endbr64 
    e3db:	55                   	push   %rbp
    e3dc:	48 89 e5             	mov    %rsp,%rbp
    e3df:	41 54                	push   %r12
    e3e1:	53                   	push   %rbx
    e3e2:	48 81 ec a0 06 00 00 	sub    $0x6a0,%rsp
    e3e9:	89 f9                	mov    %edi,%ecx
    e3eb:	89 f0                	mov    %esi,%eax
    e3ed:	48 89 95 50 f9 ff ff 	mov    %rdx,-0x6b0(%rbp)
    e3f4:	89 ca                	mov    %ecx,%edx
    e3f6:	66 89 95 5c f9 ff ff 	mov    %dx,-0x6a4(%rbp)
    e3fd:	66 89 85 58 f9 ff ff 	mov    %ax,-0x6a8(%rbp)
    e404:	64 48 8b 04 25 28 00 	mov    %fs:0x28,%rax
    e40b:	00 00 
    e40d:	48 89 45 e8          	mov    %rax,-0x18(%rbp)
    e411:	31 c0                	xor    %eax,%eax
    e413:	c7 85 50 fb ff ff 00 	movl   $0x0,-0x4b0(%rbp)
    e41a:	00 00 00 
    e41d:	c7 85 54 fb ff ff 00 	movl   $0x0,-0x4ac(%rbp)
    e424:	00 00 00 
    e427:	c7 85 58 fb ff ff 00 	movl   $0x0,-0x4a8(%rbp)
    e42e:	00 00 00 
    e431:	c7 85 5c fb ff ff 00 	movl   $0x0,-0x4a4(%rbp)
    e438:	00 00 00 
    e43b:	c7 85 60 fb ff ff 00 	movl   $0x0,-0x4a0(%rbp)
    e442:	00 00 00 
    e445:	c7 85 64 fb ff ff 00 	movl   $0x0,-0x49c(%rbp)
    e44c:	00 00 00 
    e44f:	c7 85 68 fb ff ff 00 	movl   $0x0,-0x498(%rbp)
    e456:	00 00 00 
    e459:	c7 85 6c fb ff ff 00 	movl   $0x0,-0x494(%rbp)
    e460:	00 00 00 
    e463:	c7 85 70 fb ff ff 00 	movl   $0x0,-0x490(%rbp)
    e46a:	00 00 00 
    e46d:	c7 85 74 fb ff ff 00 	movl   $0x0,-0x48c(%rbp)
    e474:	00 00 00 
    e477:	48 c7 85 c8 f9 ff ff 	movq   $0x0,-0x638(%rbp)
    e47e:	00 00 00 00 
    e482:	c7 85 68 f9 ff ff 01 	movl   $0x1,-0x698(%rbp)
    e489:	00 00 00 
    e48c:	c7 85 78 f9 ff ff fc 	movl   $0xfffffffc,-0x688(%rbp)
    e493:	ff ff ff 
    e496:	c7 85 7c f9 ff ff 00 	movl   $0x0,-0x684(%rbp)
    e49d:	00 00 00 
    e4a0:	c7 85 00 fb ff ff 01 	movl   $0x1,-0x500(%rbp)
    e4a7:	00 00 00 
    e4aa:	c7 85 04 fb ff ff 01 	movl   $0x1,-0x4fc(%rbp)
    e4b1:	00 00 00 
    e4b4:	c7 85 08 fb ff ff 01 	movl   $0x1,-0x4f8(%rbp)
    e4bb:	00 00 00 
    e4be:	c7 85 0c fb ff ff 01 	movl   $0x1,-0x4f4(%rbp)
    e4c5:	00 00 00 
    e4c8:	c7 85 10 fb ff ff 01 	movl   $0x1,-0x4f0(%rbp)
    e4cf:	00 00 00 
    e4d2:	c7 85 14 fb ff ff 01 	movl   $0x1,-0x4ec(%rbp)
    e4d9:	00 00 00 
    e4dc:	48 c7 85 d0 f9 ff ff 	movq   $0x0,-0x630(%rbp)
    e4e3:	00 00 00 00 
    e4e7:	48 8d 85 d0 f9 ff ff 	lea    -0x630(%rbp),%rax
    e4ee:	48 89 85 28 fa ff ff 	mov    %rax,-0x5d8(%rbp)
    e4f5:	48 8d 95 b0 fd ff ff 	lea    -0x250(%rbp),%rdx
    e4fc:	b8 00 00 00 00       	mov    $0x0,%eax
    e501:	b9 46 00 00 00       	mov    $0x46,%ecx
    e506:	48 89 d7             	mov    %rdx,%rdi
    e509:	f3 48 ab             	rep stos %rax,%es:(%rdi)
    e50c:	48 c7 85 30 fa ff ff 	movq   $0x0,-0x5d0(%rbp)
    e513:	00 00 00 00 
    e517:	48 8d 05 c2 34 01 00 	lea    0x134c2(%rip),%rax        # 219e0 <g_1897>
    e51e:	48 89 85 38 fa ff ff 	mov    %rax,-0x5c8(%rbp)
    e525:	c6 85 60 f9 ff ff bd 	movb   $0xbd,-0x6a0(%rbp)
    e52c:	48 c7 05 99 34 01 00 	movq   $0x19,0x13499(%rip)        # 219d0 <g_1673>
    e533:	19 00 00 00 
    e537:	e9 53 12 00 00       	jmpq   f78f <func_36+0x13b8>
    e53c:	48 8d 05 9d ed 00 00 	lea    0xed9d(%rip),%rax        # 1d2e0 <g_107>
    e543:	48 89 85 d8 f9 ff ff 	mov    %rax,-0x628(%rbp)
    e54a:	48 8d 85 d8 f9 ff ff 	lea    -0x628(%rbp),%rax
    e551:	48 89 85 e0 f9 ff ff 	mov    %rax,-0x620(%rbp)
    e558:	48 8d 85 e0 f9 ff ff 	lea    -0x620(%rbp),%rax
    e55f:	48 89 85 e8 f9 ff ff 	mov    %rax,-0x618(%rbp)
    e566:	48 8d 85 e8 f9 ff ff 	lea    -0x618(%rbp),%rax
    e56d:	48 89 85 40 fa ff ff 	mov    %rax,-0x5c0(%rbp)
    e574:	48 8d 05 b5 ea 00 00 	lea    0xeab5(%rip),%rax        # 1d030 <g_29+0x8>
    e57b:	48 89 85 48 fa ff ff 	mov    %rax,-0x5b8(%rbp)
    e582:	c7 85 6c f9 ff ff 02 	movl   $0x2,-0x694(%rbp)
    e589:	00 00 00 
    e58c:	48 8d 05 ed 4b 01 00 	lea    0x14bed(%rip),%rax        # 23180 <g_638>
    e593:	48 89 85 50 fa ff ff 	mov    %rax,-0x5b0(%rbp)
    e59a:	c7 85 64 f9 ff ff 00 	movl   $0x0,-0x69c(%rbp)
    e5a1:	00 00 00 
    e5a4:	c7 85 80 f9 ff ff 00 	movl   $0x0,-0x680(%rbp)
    e5ab:	00 00 00 
    e5ae:	c7 85 84 f9 ff ff 01 	movl   $0x1,-0x67c(%rbp)
    e5b5:	00 00 00 
    e5b8:	c7 85 88 f9 ff ff ad 	movl   $0x408805ad,-0x678(%rbp)
    e5bf:	05 88 40 
    e5c2:	c7 85 8c f9 ff ff 93 	movl   $0xe11f3593,-0x674(%rbp)
    e5c9:	35 1f e1 
    e5cc:	c7 85 90 f9 ff ff eb 	movl   $0xa11fd1eb,-0x670(%rbp)
    e5d3:	d1 1f a1 
    e5d6:	c7 85 94 f9 ff ff 67 	movl   $0x1fb66467,-0x66c(%rbp)
    e5dd:	64 b6 1f 
    e5e0:	66 c7 85 62 f9 ff ff 	movw   $0xb0ac,-0x69e(%rbp)
    e5e7:	ac b0 
    e5e9:	48 8d 05 70 9a 00 00 	lea    0x9a70(%rip),%rax        # 18060 <g_1333+0x8>
    e5f0:	48 89 85 f0 f9 ff ff 	mov    %rax,-0x610(%rbp)
    e5f7:	48 8d 85 f0 f9 ff ff 	lea    -0x610(%rbp),%rax
    e5fe:	48 89 85 f8 f9 ff ff 	mov    %rax,-0x608(%rbp)
    e605:	48 8d 85 f8 f9 ff ff 	lea    -0x608(%rbp),%rax
    e60c:	48 89 85 58 fa ff ff 	mov    %rax,-0x5a8(%rbp)
    e613:	c7 85 98 f9 ff ff 1d 	movl   $0x6050601d,-0x668(%rbp)
    e61a:	60 50 60 
    e61d:	c7 85 9c f9 ff ff 00 	movl   $0x0,-0x664(%rbp)
    e624:	00 00 00 
    e627:	48 8d 05 5a ed 00 00 	lea    0xed5a(%rip),%rax        # 1d388 <g_474+0x8>
    e62e:	48 89 85 00 fa ff ff 	mov    %rax,-0x600(%rbp)
    e635:	48 8d 85 00 fa ff ff 	lea    -0x600(%rbp),%rax
    e63c:	48 89 85 60 fa ff ff 	mov    %rax,-0x5a0(%rbp)
    e643:	48 8d 05 5a 70 01 00 	lea    0x1705a(%rip),%rax        # 256a4 <g_1832>
    e64a:	48 89 85 08 fa ff ff 	mov    %rax,-0x5f8(%rbp)
    e651:	48 8d 85 08 fa ff ff 	lea    -0x5f8(%rbp),%rax
    e658:	48 89 85 68 fa ff ff 	mov    %rax,-0x598(%rbp)
    e65f:	8b 05 37 32 01 00    	mov    0x13237(%rip),%eax        # 2189c <g_1217+0x1c>
    e665:	25 ff ff 3f 00       	and    $0x3fffff,%eax
    e66a:	89 c3                	mov    %eax,%ebx
    e66c:	be 02 00 00 00       	mov    $0x2,%esi
    e671:	bf c4 ab 00 00       	mov    $0xabc4,%edi
    e676:	e8 cd a7 ff ff       	callq  8e48 <safe_rshift_func_uint16_t_u_s>
    e67b:	66 85 c0             	test   %ax,%ax
    e67e:	0f 95 c0             	setne  %al
    e681:	0f b6 c0             	movzbl %al,%eax
    e684:	be 81 e8 c2 3d       	mov    $0x3dc2e881,%esi
    e689:	89 c7                	mov    %eax,%edi
    e68b:	e8 28 a8 ff ff       	callq  8eb8 <safe_add_func_uint32_t_u_u>
    e690:	89 c2                	mov    %eax,%edx
    e692:	48 83 bd 40 fa ff ff 	cmpq   $0x0,-0x5c0(%rbp)
    e699:	00 
    e69a:	0f 95 c0             	setne  %al
    e69d:	0f b6 c0             	movzbl %al,%eax
    e6a0:	89 d6                	mov    %edx,%esi
    e6a2:	89 c7                	mov    %eax,%edi
    e6a4:	e8 7c a8 ff ff       	callq  8f25 <safe_div_func_uint32_t_u_u>
    e6a9:	89 c2                	mov    %eax,%edx
    e6ab:	48 8b 85 48 fa ff ff 	mov    -0x5b8(%rbp),%rax
    e6b2:	66 89 10             	mov    %dx,(%rax)
    e6b5:	48 8b 85 48 fa ff ff 	mov    -0x5b8(%rbp),%rax
    e6bc:	0f b7 00             	movzwl (%rax),%eax
    e6bf:	98                   	cwtl   
    e6c0:	be 03 00 00 00       	mov    $0x3,%esi
    e6c5:	89 c7                	mov    %eax,%edi
    e6c7:	e8 c6 9d ff ff       	callq  8492 <safe_lshift_func_int16_t_s_s>
    e6cc:	48 8b 85 50 f9 ff ff 	mov    -0x6b0(%rbp),%rax
    e6d3:	8b 00                	mov    (%rax),%eax
    e6d5:	85 c0                	test   %eax,%eax
    e6d7:	74 10                	je     e6e9 <func_36+0x312>
    e6d9:	83 bd 6c f9 ff ff 00 	cmpl   $0x0,-0x694(%rbp)
    e6e0:	74 07                	je     e6e9 <func_36+0x312>
    e6e2:	b8 01 00 00 00       	mov    $0x1,%eax
    e6e7:	eb 05                	jmp    e6ee <func_36+0x317>
    e6e9:	b8 00 00 00 00       	mov    $0x0,%eax
    e6ee:	83 f0 03             	xor    $0x3,%eax
    e6f1:	48 63 d0             	movslq %eax,%rdx
    e6f4:	0f b7 85 5c f9 ff ff 	movzwl -0x6a4(%rbp),%eax
    e6fb:	48 39 c2             	cmp    %rax,%rdx
    e6fe:	0f 9d c0             	setge  %al
    e701:	0f b6 c0             	movzbl %al,%eax
    e704:	89 de                	mov    %ebx,%esi
    e706:	89 c7                	mov    %eax,%edi
    e708:	e8 56 9e ff ff       	callq  8563 <safe_rshift_func_int16_t_s_u>
    e70d:	48 0f bf c8          	movswq %ax,%rcx
    e711:	48 8b 15 60 4a 01 00 	mov    0x14a60(%rip),%rdx        # 23178 <g_622>
    e718:	48 8b 02             	mov    (%rdx),%rax
    e71b:	48 8d 70 01          	lea    0x1(%rax),%rsi
    e71f:	48 89 32             	mov    %rsi,(%rdx)
    e722:	48 89 ce             	mov    %rcx,%rsi
    e725:	48 89 c7             	mov    %rax,%rdi
    e728:	e8 1e a9 ff ff       	callq  904b <safe_sub_func_uint64_t_u_u>
    e72d:	ba 01 00 00 00       	mov    $0x1,%edx
    e732:	0f b6 85 54 fb ff ff 	movzbl -0x4ac(%rbp),%eax
    e739:	0f be c0             	movsbl %al,%eax
    e73c:	39 c2                	cmp    %eax,%edx
    e73e:	0f 9e c0             	setle  %al
    e741:	0f b6 c0             	movzbl %al,%eax
    e744:	be 0b 00 00 00       	mov    $0xb,%esi
    e749:	89 c7                	mov    %eax,%edi
    e74b:	e8 91 9d ff ff       	callq  84e1 <safe_lshift_func_int16_t_s_u>
    e750:	0f b6 95 54 fb ff ff 	movzbl -0x4ac(%rbp),%edx
    e757:	66 0f be d2          	movsbw %dl,%dx
    e75b:	66 39 d0             	cmp    %dx,%ax
    e75e:	74 1d                	je     e77d <func_36+0x3a6>
    e760:	48 8b 95 50 f9 ff ff 	mov    -0x6b0(%rbp),%rdx
    e767:	48 8b 05 12 4a 01 00 	mov    0x14a12(%rip),%rax        # 23180 <g_638>
    e76e:	48 8b 00             	mov    (%rax),%rax
    e771:	48 8b 00             	mov    (%rax),%rax
    e774:	8b 12                	mov    (%rdx),%edx
    e776:	89 10                	mov    %edx,(%rax)
    e778:	e9 78 06 00 00       	jmpq   edf5 <func_36+0xa1e>
    e77d:	c6 85 61 f9 ff ff a6 	movb   $0xa6,-0x69f(%rbp)
    e784:	c7 85 a0 f9 ff ff dc 	movl   $0xfebdc4dc,-0x660(%rbp)
    e78b:	c4 bd fe 
    e78e:	c7 85 20 fb ff ff 04 	movl   $0x4,-0x4e0(%rbp)
    e795:	00 00 00 
    e798:	c7 85 24 fb ff ff 04 	movl   $0x4,-0x4dc(%rbp)
    e79f:	00 00 00 
    e7a2:	c7 85 28 fb ff ff 04 	movl   $0x4,-0x4d8(%rbp)
    e7a9:	00 00 00 
    e7ac:	c7 85 2c fb ff ff 04 	movl   $0x4,-0x4d4(%rbp)
    e7b3:	00 00 00 
    e7b6:	c7 85 30 fb ff ff 04 	movl   $0x4,-0x4d0(%rbp)
    e7bd:	00 00 00 
    e7c0:	c7 85 34 fb ff ff 04 	movl   $0x4,-0x4cc(%rbp)
    e7c7:	00 00 00 
    e7ca:	c7 85 38 fb ff ff 04 	movl   $0x4,-0x4c8(%rbp)
    e7d1:	00 00 00 
    e7d4:	c7 85 3c fb ff ff 04 	movl   $0x4,-0x4c4(%rbp)
    e7db:	00 00 00 
    e7de:	c7 85 40 fb ff ff 04 	movl   $0x4,-0x4c0(%rbp)
    e7e5:	00 00 00 
    e7e8:	66 c7 85 f8 fa ff ff 	movw   $0xf574,-0x508(%rbp)
    e7ef:	74 f5 
    e7f1:	66 c7 85 fa fa ff ff 	movw   $0xf574,-0x506(%rbp)
    e7f8:	74 f5 
    e7fa:	66 c7 85 fc fa ff ff 	movw   $0xf574,-0x504(%rbp)
    e801:	74 f5 
    e803:	66 c7 85 fe fa ff ff 	movw   $0xf574,-0x502(%rbp)
    e80a:	74 f5 
    e80c:	c7 85 6c f9 ff ff 0e 	movl   $0xe,-0x694(%rbp)
    e813:	00 00 00 
    e816:	e9 cd 05 00 00       	jmpq   ede8 <func_36+0xa11>
    e81b:	48 c7 85 70 fa ff ff 	movq   $0x0,-0x590(%rbp)
    e822:	00 00 00 00 
    e826:	48 8d 85 c8 f9 ff ff 	lea    -0x638(%rbp),%rax
    e82d:	48 89 85 78 fa ff ff 	mov    %rax,-0x588(%rbp)
    e834:	c7 85 a4 f9 ff ff 51 	movl   $0x6168b251,-0x65c(%rbp)
    e83b:	b2 68 61 
    e83e:	c7 85 a8 f9 ff ff f9 	movl   $0xfffffff9,-0x658(%rbp)
    e845:	ff ff ff 
    e848:	c7 85 ac f9 ff ff 96 	movl   $0xd3f1de96,-0x654(%rbp)
    e84f:	de f1 d3 
    e852:	c7 85 b0 f9 ff ff 93 	movl   $0xa7e9f893,-0x650(%rbp)
    e859:	f8 e9 a7 
    e85c:	c7 85 b4 f9 ff ff da 	movl   $0x6402ccda,-0x64c(%rbp)
    e863:	cc 02 64 
    e866:	48 8d 05 6b e8 00 00 	lea    0xe86b(%rip),%rax        # 1d0d8 <g_86+0x98>
    e86d:	48 89 85 10 fa ff ff 	mov    %rax,-0x5f0(%rbp)
    e874:	48 8d 85 10 fa ff ff 	lea    -0x5f0(%rbp),%rax
    e87b:	48 89 85 18 fa ff ff 	mov    %rax,-0x5e8(%rbp)
    e882:	48 8d 85 18 fa ff ff 	lea    -0x5e8(%rbp),%rax
    e889:	48 89 85 20 fa ff ff 	mov    %rax,-0x5e0(%rbp)
    e890:	c7 85 b8 f9 ff ff f9 	movl   $0xfffffff9,-0x648(%rbp)
    e897:	ff ff ff 
    e89a:	48 8b 95 c8 f9 ff ff 	mov    -0x638(%rbp),%rdx
    e8a1:	48 8b 85 78 fa ff ff 	mov    -0x588(%rbp),%rax
    e8a8:	48 89 10             	mov    %rdx,(%rax)
    e8ab:	48 8b 85 78 fa ff ff 	mov    -0x588(%rbp),%rax
    e8b2:	48 8b 00             	mov    (%rax),%rax
    e8b5:	48 89 85 50 fa ff ff 	mov    %rax,-0x5b0(%rbp)
    e8bc:	48 8b 85 50 f9 ff ff 	mov    -0x6b0(%rbp),%rax
    e8c3:	8b 00                	mov    (%rax),%eax
    e8c5:	85 c0                	test   %eax,%eax
    e8c7:	0f 84 be 02 00 00    	je     eb8b <func_36+0x7b4>
    e8cd:	48 8d 85 64 f9 ff ff 	lea    -0x69c(%rbp),%rax
    e8d4:	48 89 85 a0 fa ff ff 	mov    %rax,-0x560(%rbp)
    e8db:	48 8d 05 56 e7 00 00 	lea    0xe756(%rip),%rax        # 1d038 <g_45>
    e8e2:	48 89 85 80 fb ff ff 	mov    %rax,-0x480(%rbp)
    e8e9:	48 8d 05 48 e7 00 00 	lea    0xe748(%rip),%rax        # 1d038 <g_45>
    e8f0:	48 89 85 88 fb ff ff 	mov    %rax,-0x478(%rbp)
    e8f7:	48 8d 05 3a e7 00 00 	lea    0xe73a(%rip),%rax        # 1d038 <g_45>
    e8fe:	48 89 85 90 fb ff ff 	mov    %rax,-0x470(%rbp)
    e905:	48 8d 05 2c e7 00 00 	lea    0xe72c(%rip),%rax        # 1d038 <g_45>
    e90c:	48 89 85 98 fb ff ff 	mov    %rax,-0x468(%rbp)
    e913:	48 8d 05 1e e7 00 00 	lea    0xe71e(%rip),%rax        # 1d038 <g_45>
    e91a:	48 89 85 a0 fb ff ff 	mov    %rax,-0x460(%rbp)
    e921:	48 8d 05 10 e7 00 00 	lea    0xe710(%rip),%rax        # 1d038 <g_45>
    e928:	48 89 85 a8 fb ff ff 	mov    %rax,-0x458(%rbp)
    e92f:	48 8d 05 02 e7 00 00 	lea    0xe702(%rip),%rax        # 1d038 <g_45>
    e936:	48 89 85 b0 fb ff ff 	mov    %rax,-0x450(%rbp)
    e93d:	48 8d 85 f0 fb ff ff 	lea    -0x410(%rbp),%rax
    e944:	48 8d 15 35 a5 00 00 	lea    0xa535(%rip),%rdx        # 18e80 <g_2539+0x440>
    e94b:	b9 38 00 00 00       	mov    $0x38,%ecx
    e950:	48 89 c7             	mov    %rax,%rdi
    e953:	48 89 d6             	mov    %rdx,%rsi
    e956:	f3 48 a5             	rep movsq %ds:(%rsi),%es:(%rdi)
    e959:	48 8d 85 f0 fb ff ff 	lea    -0x410(%rbp),%rax
    e960:	48 83 c0 0c          	add    $0xc,%rax
    e964:	48 89 85 a8 fa ff ff 	mov    %rax,-0x558(%rbp)
    e96b:	48 8d 05 d6 e9 00 00 	lea    0xe9d6(%rip),%rax        # 1d348 <g_223>
    e972:	48 89 85 b0 fa ff ff 	mov    %rax,-0x550(%rbp)
    e979:	48 8d 05 70 2f 01 00 	lea    0x12f70(%rip),%rax        # 218f0 <g_1332>
    e980:	48 89 85 b8 fa ff ff 	mov    %rax,-0x548(%rbp)
    e987:	48 c7 85 c0 fa ff ff 	movq   $0x0,-0x540(%rbp)
    e98e:	00 00 00 00 
    e992:	48 8d 05 0b 6d 01 00 	lea    0x16d0b(%rip),%rax        # 256a4 <g_1832>
    e999:	48 89 85 c8 fa ff ff 	mov    %rax,-0x538(%rbp)
    e9a0:	c7 85 70 f9 ff ff 00 	movl   $0x0,-0x690(%rbp)
    e9a7:	00 00 00 
    e9aa:	eb 19                	jmp    e9c5 <func_36+0x5ee>
    e9ac:	8b 85 70 f9 ff ff    	mov    -0x690(%rbp),%eax
    e9b2:	48 98                	cltq   
    e9b4:	66 c7 84 45 f2 fa ff 	movw   $0x842a,-0x50e(%rbp,%rax,2)
    e9bb:	ff 2a 84 
    e9be:	83 85 70 f9 ff ff 01 	addl   $0x1,-0x690(%rbp)
    e9c5:	83 bd 70 f9 ff ff 02 	cmpl   $0x2,-0x690(%rbp)
    e9cc:	7e de                	jle    e9ac <func_36+0x5d5>
    e9ce:	8b 85 34 fd ff ff    	mov    -0x2cc(%rbp),%eax
    e9d4:	83 e8 01             	sub    $0x1,%eax
    e9d7:	89 85 34 fd ff ff    	mov    %eax,-0x2cc(%rbp)
    e9dd:	48 8b 85 c8 fa ff ff 	mov    -0x538(%rbp),%rax
    e9e4:	8b 00                	mov    (%rax),%eax
    e9e6:	83 e0 03             	and    $0x3,%eax
    e9e9:	89 c2                	mov    %eax,%edx
    e9eb:	48 8b 85 c8 fa ff ff 	mov    -0x538(%rbp),%rax
    e9f2:	89 10                	mov    %edx,(%rax)
    e9f4:	48 8b 85 78 fa ff ff 	mov    -0x588(%rbp),%rax
    e9fb:	48 c7 00 00 00 00 00 	movq   $0x0,(%rax)
    ea02:	48 8b 85 78 fa ff ff 	mov    -0x588(%rbp),%rax
    ea09:	48 8b 00             	mov    (%rax),%rax
    ea0c:	48 85 c0             	test   %rax,%rax
    ea0f:	0f 94 c0             	sete   %al
    ea12:	0f b6 d0             	movzbl %al,%edx
    ea15:	0f b7 85 58 f9 ff ff 	movzwl -0x6a8(%rbp),%eax
    ea1c:	0f b6 c0             	movzbl %al,%eax
    ea1f:	89 d6                	mov    %edx,%esi
    ea21:	89 c7                	mov    %eax,%edi
    ea23:	e8 6b a1 ff ff       	callq  8b93 <safe_mul_func_uint8_t_u_u>
    ea28:	0f b6 c0             	movzbl %al,%eax
    ea2b:	66 39 85 58 f9 ff ff 	cmp    %ax,-0x6a8(%rbp)
    ea32:	0f 93 c0             	setae  %al
    ea35:	0f b6 c0             	movzbl %al,%eax
    ea38:	be 50 7f 23 10       	mov    $0x10237f50,%esi
    ea3d:	89 c7                	mov    %eax,%edi
    ea3f:	e8 88 9c ff ff       	callq  86cc <safe_mod_func_int32_t_s_s>
    ea44:	8b 95 28 fb ff ff    	mov    -0x4d8(%rbp),%edx
    ea4a:	39 d0                	cmp    %edx,%eax
    ea4c:	0f 9f c0             	setg   %al
    ea4f:	0f b6 d8             	movzbl %al,%ebx
    ea52:	48 8b 85 a8 fa ff ff 	mov    -0x558(%rbp),%rax
    ea59:	8b 00                	mov    (%rax),%eax
    ea5b:	8d 50 ff             	lea    -0x1(%rax),%edx
    ea5e:	48 8b 85 a8 fa ff ff 	mov    -0x558(%rbp),%rax
    ea65:	89 10                	mov    %edx,(%rax)
    ea67:	48 8b 85 a8 fa ff ff 	mov    -0x558(%rbp),%rax
    ea6e:	8b 10                	mov    (%rax),%edx
    ea70:	48 8b 85 b0 fa ff ff 	mov    -0x550(%rbp),%rax
    ea77:	8b 00                	mov    (%rax),%eax
    ea79:	8d 48 ff             	lea    -0x1(%rax),%ecx
    ea7c:	48 8b 85 b0 fa ff ff 	mov    -0x550(%rbp),%rax
    ea83:	89 08                	mov    %ecx,(%rax)
    ea85:	48 8b 85 b0 fa ff ff 	mov    -0x550(%rbp),%rax
    ea8c:	8b 00                	mov    (%rax),%eax
    ea8e:	39 c2                	cmp    %eax,%edx
    ea90:	73 08                	jae    ea9a <func_36+0x6c3>
    ea92:	41 bc 01 00 00 00    	mov    $0x1,%r12d
    ea98:	eb 06                	jmp    eaa0 <func_36+0x6c9>
    ea9a:	41 bc 00 00 00 00    	mov    $0x0,%r12d
    eaa0:	0f b7 8d 58 f9 ff ff 	movzwl -0x6a8(%rbp),%ecx
    eaa7:	48 8b 15 ca 46 01 00 	mov    0x146ca(%rip),%rdx        # 23178 <g_622>
    eaae:	48 8b 02             	mov    (%rdx),%rax
    eab1:	48 8d 70 01          	lea    0x1(%rax),%rsi
    eab5:	48 89 32             	mov    %rsi,(%rdx)
    eab8:	48 8b 95 b8 fa ff ff 	mov    -0x548(%rbp),%rdx
    eabf:	48 89 02             	mov    %rax,(%rdx)
    eac2:	48 8b 85 b8 fa ff ff 	mov    -0x548(%rbp),%rax
    eac9:	48 8b 00             	mov    (%rax),%rax
    eacc:	48 89 ce             	mov    %rcx,%rsi
    eacf:	48 89 c7             	mov    %rax,%rdi
    ead2:	e8 a9 a5 ff ff       	callq  9080 <safe_mod_func_uint64_t_u_u>
    ead7:	66 31 85 5c f9 ff ff 	xor    %ax,-0x6a4(%rbp)
    eade:	66 83 bd 5c f9 ff ff 	cmpw   $0x0,-0x6a4(%rbp)
    eae5:	00 
    eae6:	0f 95 c0             	setne  %al
    eae9:	0f b6 c0             	movzbl %al,%eax
    eaec:	89 c6                	mov    %eax,%esi
    eaee:	bf fa 00 00 00       	mov    $0xfa,%edi
    eaf3:	e8 54 a1 ff ff       	callq  8c4c <safe_lshift_func_uint8_t_u_u>
    eaf8:	0f b6 c0             	movzbl %al,%eax
    eafb:	44 31 e0             	xor    %r12d,%eax
    eafe:	48 98                	cltq   
    eb00:	48 89 c6             	mov    %rax,%rsi
    eb03:	48 c7 c7 fd ff ff ff 	mov    $0xfffffffffffffffd,%rdi
    eb0a:	e8 1f a5 ff ff       	callq  902e <safe_add_func_uint64_t_u_u>
    eb0f:	48 89 c2             	mov    %rax,%rdx
    eb12:	48 8b 85 40 fa ff ff 	mov    -0x5c0(%rbp),%rax
    eb19:	48 8b 00             	mov    (%rax),%rax
    eb1c:	48 8b 00             	mov    (%rax),%rax
    eb1f:	48 8b 00             	mov    (%rax),%rax
    eb22:	66 89 10             	mov    %dx,(%rax)
    eb25:	0f b7 00             	movzwl (%rax),%eax
    eb28:	0f b7 c0             	movzwl %ax,%eax
    eb2b:	89 de                	mov    %ebx,%esi
    eb2d:	89 c7                	mov    %eax,%edi
    eb2f:	e8 8a a2 ff ff       	callq  8dbe <safe_lshift_func_uint16_t_u_s>
    eb34:	48 8b 85 50 f9 ff ff 	mov    -0x6b0(%rbp),%rax
    eb3b:	8b 10                	mov    (%rax),%edx
    eb3d:	48 8b 85 a0 fa ff ff 	mov    -0x560(%rbp),%rax
    eb44:	8b 00                	mov    (%rax),%eax
    eb46:	31 c2                	xor    %eax,%edx
    eb48:	48 8b 85 a0 fa ff ff 	mov    -0x560(%rbp),%rax
    eb4f:	89 10                	mov    %edx,(%rax)
    eb51:	48 8b 05 28 46 01 00 	mov    0x14628(%rip),%rax        # 23180 <g_638>
    eb58:	48 8b 00             	mov    (%rax),%rax
    eb5b:	48 8b 00             	mov    (%rax),%rax
    eb5e:	48 8b 95 a0 fa ff ff 	mov    -0x560(%rbp),%rdx
    eb65:	8b 12                	mov    (%rdx),%edx
    eb67:	89 10                	mov    %edx,(%rax)
    eb69:	48 8d 05 84 e8 00 00 	lea    0xe884(%rip),%rax        # 1d3f4 <g_500+0x4>
    eb70:	8b 08                	mov    (%rax),%ecx
    eb72:	48 8b 85 50 f9 ff ff 	mov    -0x6b0(%rbp),%rax
    eb79:	8b 10                	mov    (%rax),%edx
    eb7b:	48 8d 05 72 e8 00 00 	lea    0xe872(%rip),%rax        # 1d3f4 <g_500+0x4>
    eb82:	31 ca                	xor    %ecx,%edx
    eb84:	89 10                	mov    %edx,(%rax)
    eb86:	e9 21 02 00 00       	jmpq   edac <func_36+0x9d5>
    eb8b:	48 c7 85 80 fa ff ff 	movq   $0x0,-0x580(%rbp)
    eb92:	00 00 00 00 
    eb96:	48 8d 05 d3 44 01 00 	lea    0x144d3(%rip),%rax        # 23070 <g_491>
    eb9d:	48 89 85 88 fa ff ff 	mov    %rax,-0x578(%rbp)
    eba4:	c7 85 bc f9 ff ff 08 	movl   $0x8,-0x644(%rbp)
    ebab:	00 00 00 
    ebae:	48 8d 85 e0 f9 ff ff 	lea    -0x620(%rbp),%rax
    ebb5:	48 89 85 90 fa ff ff 	mov    %rax,-0x570(%rbp)
    ebbc:	c7 85 74 f9 ff ff 00 	movl   $0x0,-0x68c(%rbp)
    ebc3:	00 00 00 
    ebc6:	eb 1e                	jmp    ebe6 <func_36+0x80f>
    ebc8:	8b 85 74 f9 ff ff    	mov    -0x68c(%rbp),%eax
    ebce:	48 98                	cltq   
    ebd0:	48 8d 95 20 fa ff ff 	lea    -0x5e0(%rbp),%rdx
    ebd7:	48 89 94 c5 f0 fb ff 	mov    %rdx,-0x410(%rbp,%rax,8)
    ebde:	ff 
    ebdf:	83 85 74 f9 ff ff 01 	addl   $0x1,-0x68c(%rbp)
    ebe6:	83 bd 74 f9 ff ff 01 	cmpl   $0x1,-0x68c(%rbp)
    ebed:	7e d9                	jle    ebc8 <func_36+0x7f1>
    ebef:	48 8b 85 88 fa ff ff 	mov    -0x578(%rbp),%rax
    ebf6:	48 8b 95 80 fa ff ff 	mov    -0x580(%rbp),%rdx
    ebfd:	48 89 10             	mov    %rdx,(%rax)
    ec00:	48 8b 05 69 45 01 00 	mov    0x14569(%rip),%rax        # 23170 <g_503>
    ec07:	48 8b 00             	mov    (%rax),%rax
    ec0a:	c7 00 00 00 00 00    	movl   $0x0,(%rax)
    ec10:	0f b7 85 58 f9 ff ff 	movzwl -0x6a8(%rbp),%eax
    ec17:	0f bf d8             	movswl %ax,%ebx
    ec1a:	66 81 bd 62 f9 ff ff 	cmpw   $0xfb,-0x69e(%rbp)
    ec21:	fb 00 
    ec23:	0f 97 c0             	seta   %al
    ec26:	0f b6 c0             	movzbl %al,%eax
    ec29:	89 c6                	mov    %eax,%esi
    ec2b:	bf ff ff ff ff       	mov    $0xffffffff,%edi
    ec30:	e8 9b a2 ff ff       	callq  8ed0 <safe_sub_func_uint32_t_u_u>
    ec35:	0f b7 05 d4 18 01 00 	movzwl 0x118d4(%rip),%eax        # 20510 <g_1216+0xe50>
    ec3c:	66 25 ff 0f          	and    $0xfff,%ax
    ec40:	66 85 c0             	test   %ax,%ax
    ec43:	48 8b 05 26 45 01 00 	mov    0x14526(%rip),%rax        # 23170 <g_503>
    ec4a:	48 8b 10             	mov    (%rax),%rdx
    ec4d:	48 8b 85 50 f9 ff ff 	mov    -0x6b0(%rbp),%rax
    ec54:	48 39 c2             	cmp    %rax,%rdx
    ec57:	0f 95 c0             	setne  %al
    ec5a:	0f b6 c0             	movzbl %al,%eax
    ec5d:	89 c7                	mov    %eax,%edi
    ec5f:	e8 42 a2 ff ff       	callq  8ea6 <safe_unary_minus_func_uint32_t_u>
    ec64:	8b 95 bc f9 ff ff    	mov    -0x644(%rbp),%edx
    ec6a:	09 d0                	or     %edx,%eax
    ec6c:	85 c0                	test   %eax,%eax
    ec6e:	74 08                	je     ec78 <func_36+0x8a1>
    ec70:	66 83 bd 58 f9 ff ff 	cmpw   $0x0,-0x6a8(%rbp)
    ec77:	00 
    ec78:	48 8b 05 39 3f 01 00 	mov    0x13f39(%rip),%rax        # 22bb8 <g_74>
    ec7f:	8b 00                	mov    (%rax),%eax
    ec81:	89 c2                	mov    %eax,%edx
    ec83:	0f b7 85 5c f9 ff ff 	movzwl -0x6a4(%rbp),%eax
    ec8a:	66 3b 85 58 f9 ff ff 	cmp    -0x6a8(%rbp),%ax
    ec91:	0f 92 c0             	setb   %al
    ec94:	0f b6 c0             	movzbl %al,%eax
    ec97:	21 d0                	and    %edx,%eax
    ec99:	98                   	cwtl   
    ec9a:	89 de                	mov    %ebx,%esi
    ec9c:	89 c7                	mov    %eax,%edi
    ec9e:	e8 52 97 ff ff       	callq  83f5 <safe_mul_func_int16_t_s_s>
    eca3:	66 85 c0             	test   %ax,%ax
    eca6:	74 11                	je     ecb9 <func_36+0x8e2>
    eca8:	66 83 bd 5c f9 ff ff 	cmpw   $0x0,-0x6a4(%rbp)
    ecaf:	00 
    ecb0:	74 07                	je     ecb9 <func_36+0x8e2>
    ecb2:	b9 01 00 00 00       	mov    $0x1,%ecx
    ecb7:	eb 05                	jmp    ecbe <func_36+0x8e7>
    ecb9:	b9 00 00 00 00       	mov    $0x0,%ecx
    ecbe:	48 8d 05 2f e7 00 00 	lea    0xe72f(%rip),%rax        # 1d3f4 <g_500+0x4>
    ecc5:	8b 10                	mov    (%rax),%edx
    ecc7:	48 8d 05 26 e7 00 00 	lea    0xe726(%rip),%rax        # 1d3f4 <g_500+0x4>
    ecce:	31 ca                	xor    %ecx,%edx
    ecd0:	89 10                	mov    %edx,(%rax)
    ecd2:	48 8b 85 20 fa ff ff 	mov    -0x5e0(%rbp),%rax
    ecd9:	48 89 85 58 fa ff ff 	mov    %rax,-0x5a8(%rbp)
    ece0:	48 8d 05 f1 4c 01 00 	lea    0x14cf1(%rip),%rax        # 239d8 <g_1631>
    ece7:	48 39 85 58 fa ff ff 	cmp    %rax,-0x5a8(%rbp)
    ecee:	0f 84 a3 00 00 00    	je     ed97 <func_36+0x9c0>
    ecf4:	48 c7 85 98 fa ff ff 	movq   $0xfffffffffffffff7,-0x568(%rbp)
    ecfb:	f7 ff ff ff 
    ecff:	8b 05 03 18 01 00    	mov    0x11803(%rip),%eax        # 20508 <g_1216+0xe48>
    ed05:	01 c0                	add    %eax,%eax
    ed07:	c1 f8 05             	sar    $0x5,%eax
    ed0a:	41 89 c4             	mov    %eax,%r12d
    ed0d:	0f b7 9d 58 f9 ff ff 	movzwl -0x6a8(%rbp),%ebx
    ed14:	0f b6 85 62 fb ff ff 	movzbl -0x49e(%rbp),%eax
    ed1b:	f7 d0                	not    %eax
    ed1d:	c0 e8 07             	shr    $0x7,%al
    ed20:	0f b6 c0             	movzbl %al,%eax
    ed23:	be 01 00 00 00       	mov    $0x1,%esi
    ed28:	48 89 c7             	mov    %rax,%rdi
    ed2b:	e8 fe a2 ff ff       	callq  902e <safe_add_func_uint64_t_u_u>
    ed30:	0f b7 c0             	movzwl %ax,%eax
    ed33:	89 de                	mov    %ebx,%esi
    ed35:	89 c7                	mov    %eax,%edi
    ed37:	e8 0c a1 ff ff       	callq  8e48 <safe_rshift_func_uint16_t_u_s>
    ed3c:	b8 01 00 00 00       	mov    $0x1,%eax
    ed41:	0f be c0             	movsbl %al,%eax
    ed44:	44 89 e6             	mov    %r12d,%esi
    ed47:	89 c7                	mov    %eax,%edi
    ed49:	e8 1e 96 ff ff       	callq  836c <safe_rshift_func_int8_t_s_u>
    ed4e:	0f b7 b5 58 f9 ff ff 	movzwl -0x6a8(%rbp),%esi
    ed55:	48 8b 85 90 fa ff ff 	mov    -0x570(%rbp),%rax
    ed5c:	48 3b 85 28 fa ff ff 	cmp    -0x5d8(%rbp),%rax
    ed63:	0f 95 c0             	setne  %al
    ed66:	0f b6 c0             	movzbl %al,%eax
    ed69:	48 8b 15 18 44 01 00 	mov    0x14418(%rip),%rdx        # 23188 <g_637>
    ed70:	48 8b 12             	mov    (%rdx),%rdx
    ed73:	48 8b 1a             	mov    (%rdx),%rbx
    ed76:	48 8d 95 50 fb ff ff 	lea    -0x4b0(%rbp),%rdx
    ed7d:	48 83 c2 04          	add    $0x4,%rdx
    ed81:	48 b9 c7 a0 d1 39 8d 	movabs $0x4b396e8d39d1a0c7,%rcx
    ed88:	6e 39 4b 
    ed8b:	89 c7                	mov    %eax,%edi
    ed8d:	e8 55 0a 00 00       	callq  f7e7 <func_40>
    ed92:	48 89 03             	mov    %rax,(%rbx)
    ed95:	eb 15                	jmp    edac <func_36+0x9d5>
    ed97:	48 8b 05 e2 43 01 00 	mov    0x143e2(%rip),%rax        # 23180 <g_638>
    ed9e:	48 8b 00             	mov    (%rax),%rax
    eda1:	48 8b 00             	mov    (%rax),%rax
    eda4:	8b 95 a0 f9 ff ff    	mov    -0x660(%rbp),%edx
    edaa:	89 10                	mov    %edx,(%rax)
    edac:	48 8b 05 bd 43 01 00 	mov    0x143bd(%rip),%rax        # 23170 <g_503>
    edb3:	48 8b 00             	mov    (%rax),%rax
    edb6:	8b 10                	mov    (%rax),%edx
    edb8:	48 8b 05 b1 43 01 00 	mov    0x143b1(%rip),%rax        # 23170 <g_503>
    edbf:	48 8b 00             	mov    (%rax),%rax
    edc2:	81 ca e8 a1 22 82    	or     $0x8222a1e8,%edx
    edc8:	89 10                	mov    %edx,(%rax)
    edca:	8b 85 6c f9 ff ff    	mov    -0x694(%rbp),%eax
    edd0:	0f b7 c0             	movzwl %ax,%eax
    edd3:	be 03 00 00 00       	mov    $0x3,%esi
    edd8:	89 c7                	mov    %eax,%edi
    edda:	e8 20 9f ff ff       	callq  8cff <safe_add_func_uint16_t_u_u>
    eddf:	0f b7 c0             	movzwl %ax,%eax
    ede2:	89 85 6c f9 ff ff    	mov    %eax,-0x694(%rbp)
    ede8:	83 bd 6c f9 ff ff 1a 	cmpl   $0x1a,-0x694(%rbp)
    edef:	0f 85 26 fa ff ff    	jne    e81b <func_36+0x444>
    edf5:	48 8d 05 f8 e5 00 00 	lea    0xe5f8(%rip),%rax        # 1d3f4 <g_500+0x4>
    edfc:	8b 00                	mov    (%rax),%eax
    edfe:	89 c7                	mov    %eax,%edi
    ee00:	e8 91 97 ff ff       	callq  8596 <safe_unary_minus_func_int32_t_s>
    ee05:	48 8b 15 b4 3d 01 00 	mov    0x13db4(%rip),%rdx        # 22bc0 <g_100>
    ee0c:	48 8b 05 ad 3d 01 00 	mov    0x13dad(%rip),%rax        # 22bc0 <g_100>
    ee13:	48 8b 12             	mov    (%rdx),%rdx
    ee16:	48 89 10             	mov    %rdx,(%rax)
    ee19:	48 8b 00             	mov    (%rax),%rax
    ee1c:	48 89 85 50 f9 ff ff 	mov    %rax,-0x6b0(%rbp)
    ee23:	0f b6 05 66 e5 00 00 	movzbl 0xe566(%rip),%eax        # 1d390 <g_474+0x10>
    ee2a:	83 e0 0f             	and    $0xf,%eax
    ee2d:	0f b6 d0             	movzbl %al,%edx
    ee30:	8b 05 aa 02 01 00    	mov    0x102aa(%rip),%eax        # 1f0e0 <g_1014>
    ee36:	c1 e8 0c             	shr    $0xc,%eax
    ee39:	25 ff ff 01 00       	and    $0x1ffff,%eax
    ee3e:	39 c2                	cmp    %eax,%edx
    ee40:	0f 8e d7 00 00 00    	jle    ef1d <func_36+0xb46>
    ee46:	c7 85 c4 f9 ff ff af 	movl   $0xc475af,-0x63c(%rbp)
    ee4d:	75 c4 00 
    ee50:	83 bd c4 f9 ff ff 00 	cmpl   $0x0,-0x63c(%rbp)
    ee57:	74 11                	je     ee6a <func_36+0xa93>
    ee59:	66 83 bd 58 f9 ff ff 	cmpw   $0x0,-0x6a8(%rbp)
    ee60:	00 
    ee61:	74 07                	je     ee6a <func_36+0xa93>
    ee63:	b8 01 00 00 00       	mov    $0x1,%eax
    ee68:	eb 05                	jmp    ee6f <func_36+0xa98>
    ee6a:	b8 00 00 00 00       	mov    $0x0,%eax
    ee6f:	3d eb 00 00 00       	cmp    $0xeb,%eax
    ee74:	0f b7 85 5c f9 ff ff 	movzwl -0x6a4(%rbp),%eax
    ee7b:	89 c6                	mov    %eax,%esi
    ee7d:	bf fd 00 00 00       	mov    $0xfd,%edi
    ee82:	e8 06 9e ff ff       	callq  8c8d <safe_rshift_func_uint8_t_u_s>
    ee87:	0f b6 c0             	movzbl %al,%eax
    ee8a:	83 e0 01             	and    $0x1,%eax
    ee8d:	be ba 31 00 00       	mov    $0x31ba,%esi
    ee92:	89 c7                	mov    %eax,%edi
    ee94:	e8 f5 9e ff ff       	callq  8d8e <safe_div_func_uint16_t_u_u>
    ee99:	66 39 85 5c f9 ff ff 	cmp    %ax,-0x6a4(%rbp)
    eea0:	8b 85 c4 f9 ff ff    	mov    -0x63c(%rbp),%eax
    eea6:	0f be c0             	movsbl %al,%eax
    eea9:	89 c7                	mov    %eax,%edi
    eeab:	e8 0f 93 ff ff       	callq  81bf <safe_unary_minus_func_int8_t_s>
    eeb0:	f7 d0                	not    %eax
    eeb2:	c0 e8 07             	shr    $0x7,%al
    eeb5:	0f b6 d0             	movzbl %al,%edx
    eeb8:	48 8b 85 48 fa ff ff 	mov    -0x5b8(%rbp),%rax
    eebf:	0f b7 00             	movzwl (%rax),%eax
    eec2:	21 c2                	and    %eax,%edx
    eec4:	48 8b 85 48 fa ff ff 	mov    -0x5b8(%rbp),%rax
    eecb:	66 89 10             	mov    %dx,(%rax)
    eece:	48 8b 85 48 fa ff ff 	mov    -0x5b8(%rbp),%rax
    eed5:	0f b7 00             	movzwl (%rax),%eax
    eed8:	98                   	cwtl   
    eed9:	be 01 00 00 00       	mov    $0x1,%esi
    eede:	89 c7                	mov    %eax,%edi
    eee0:	e8 10 95 ff ff       	callq  83f5 <safe_mul_func_int16_t_s_s>
    eee5:	34 f5                	xor    $0xf5,%al
    eee7:	48 0f bf d0          	movswq %ax,%rdx
    eeeb:	0f b7 85 58 f9 ff ff 	movzwl -0x6a8(%rbp),%eax
    eef2:	48 89 d1             	mov    %rdx,%rcx
    eef5:	48 09 c1             	or     %rax,%rcx
    eef8:	48 8b 05 81 42 01 00 	mov    0x14281(%rip),%rax        # 23180 <g_638>
    eeff:	48 8b 00             	mov    (%rax),%rax
    ef02:	48 8b 00             	mov    (%rax),%rax
    ef05:	8b 10                	mov    (%rax),%edx
    ef07:	48 8b 05 72 42 01 00 	mov    0x14272(%rip),%rax        # 23180 <g_638>
    ef0e:	48 8b 00             	mov    (%rax),%rax
    ef11:	48 8b 00             	mov    (%rax),%rax
    ef14:	09 ca                	or     %ecx,%edx
    ef16:	89 10                	mov    %edx,(%rax)
    ef18:	e9 78 07 00 00       	jmpq   f695 <func_36+0x12be>
    ef1d:	c7 85 80 fb ff ff 07 	movl   $0xffffff07,-0x480(%rbp)
    ef24:	ff ff ff 
    ef27:	66 c7 85 84 fb ff ff 	movw   $0x7,-0x47c(%rbp)
    ef2e:	07 00 
    ef30:	c7 85 86 fb ff ff ff 	movl   $0x10007ff,-0x47a(%rbp)
    ef37:	07 00 01 
    ef3a:	66 c7 85 8a fb ff ff 	movw   $0xa07,-0x476(%rbp)
    ef41:	07 0a 
    ef43:	c7 85 8c fb ff ff fe 	movl   $0x701fffe,-0x474(%rbp)
    ef4a:	ff 01 07 
    ef4d:	66 c7 85 90 fb ff ff 	movw   $0xa03,-0x470(%rbp)
    ef54:	03 0a 
    ef56:	c7 85 92 fb ff ff 03 	movl   $0xff00fe03,-0x46e(%rbp)
    ef5d:	fe 00 ff 
    ef60:	66 c7 85 96 fb ff ff 	movw   $0xff,-0x46a(%rbp)
    ef67:	ff 00 
    ef69:	c7 85 98 fb ff ff 03 	movl   $0x7ff0303,-0x468(%rbp)
    ef70:	03 ff 07 
    ef73:	66 c7 85 9c fb ff ff 	movw   $0x176,-0x464(%rbp)
    ef7a:	76 01 
    ef7c:	c7 85 9e fb ff ff fe 	movl   $0x1fb03fe,-0x462(%rbp)
    ef83:	03 fb 01 
    ef86:	66 c7 85 a2 fb ff ff 	movw   $0xffff,-0x45e(%rbp)
    ef8d:	ff ff 
    ef8f:	c7 85 a4 fb ff ff 5d 	movl   $0x5d07ff5d,-0x45c(%rbp)
    ef96:	ff 07 5d 
    ef99:	66 c7 85 a8 fb ff ff 	movw   $0x101,-0x458(%rbp)
    efa0:	01 01 
    efa2:	c7 85 aa fb ff ff bf 	movl   $0x5d035dbf,-0x456(%rbp)
    efa9:	5d 03 5d 
    efac:	66 c7 85 ae fb ff ff 	movw   $0xffbf,-0x452(%rbp)
    efb3:	bf ff 
    efb5:	c7 85 b0 fb ff ff 5d 	movl   $0x79ffbf5d,-0x450(%rbp)
    efbc:	bf ff 79 
    efbf:	66 c7 85 b4 fb ff ff 	movw   $0xfebf,-0x44c(%rbp)
    efc6:	bf fe 
    efc8:	c7 85 b6 fb ff ff ff 	movl   $0xbf765dff,-0x44a(%rbp)
    efcf:	5d 76 bf 
    efd2:	66 c7 85 ba fb ff ff 	movw   $0xfe01,-0x446(%rbp)
    efd9:	01 fe 
    efdb:	c7 85 bc fb ff ff 01 	movl   $0xf7ffff01,-0x444(%rbp)
    efe2:	ff ff f7 
    efe5:	66 c7 85 c0 fb ff ff 	movw   $0xfff7,-0x440(%rbp)
    efec:	f7 ff 
    efee:	c7 85 c2 fb ff ff 01 	movl   $0xbf030101,-0x43e(%rbp)
    eff5:	01 03 bf 
    eff8:	66 c7 85 c6 fb ff ff 	movw   $0x1fb,-0x43a(%rbp)
    efff:	fb 01 
    f001:	c7 85 c8 fb ff ff ff 	movl   $0x790701ff,-0x438(%rbp)
    f008:	01 07 79 
    f00b:	66 c7 85 cc fb ff ff 	movw   $0x3f7,-0x434(%rbp)
    f012:	f7 03 
    f014:	c7 85 ce fb ff ff 5d 	movl   $0x5d07ff5d,-0x432(%rbp)
    f01b:	ff 07 5d 
    f01e:	66 c7 85 d2 fb ff ff 	movw   $0x101,-0x42e(%rbp)
    f025:	01 01 
    f027:	c7 85 d4 fb ff ff bf 	movl   $0x5d035dbf,-0x42c(%rbp)
    f02e:	5d 03 5d 
    f031:	66 c7 85 d8 fb ff ff 	movw   $0xffbf,-0x428(%rbp)
    f038:	bf ff 
    f03a:	c7 85 da fb ff ff 5d 	movl   $0x79ffbf5d,-0x426(%rbp)
    f041:	bf ff 79 
    f044:	66 c7 85 de fb ff ff 	movw   $0xfebf,-0x422(%rbp)
    f04b:	bf fe 
    f04d:	c7 85 e0 fb ff ff ff 	movl   $0xbf765dff,-0x420(%rbp)
    f054:	5d 76 bf 
    f057:	66 c7 85 e4 fb ff ff 	movw   $0xfe01,-0x41c(%rbp)
    f05e:	01 fe 
    f060:	c7 85 e6 fb ff ff 01 	movl   $0xf7ffff01,-0x41a(%rbp)
    f067:	ff ff f7 
    f06a:	66 c7 85 ea fb ff ff 	movw   $0xfff7,-0x416(%rbp)
    f071:	f7 ff 
    f073:	48 b8 6f 54 fa d1 75 	movabs $0x9dc41c75d1fa546f,%rax
    f07a:	1c c4 9d 
    f07d:	48 89 85 d0 fa ff ff 	mov    %rax,-0x530(%rbp)
    f084:	48 8d 05 a5 65 01 00 	lea    0x165a5(%rip),%rax        # 25630 <g_741>
    f08b:	48 89 85 d8 fa ff ff 	mov    %rax,-0x528(%rbp)
    f092:	48 8d 85 80 fb ff ff 	lea    -0x480(%rbp),%rax
    f099:	48 83 c0 20          	add    $0x20,%rax
    f09d:	48 89 85 e0 fa ff ff 	mov    %rax,-0x520(%rbp)
    f0a4:	48 8d 05 9d e2 00 00 	lea    0xe29d(%rip),%rax        # 1d348 <g_223>
    f0ab:	48 89 85 e8 fa ff ff 	mov    %rax,-0x518(%rbp)
    f0b2:	48 8d 85 50 fb ff ff 	lea    -0x4b0(%rbp),%rax
    f0b9:	48 83 c0 04          	add    $0x4,%rax
    f0bd:	48 89 85 f0 fb ff ff 	mov    %rax,-0x410(%rbp)
    f0c4:	48 8d 85 50 fb ff ff 	lea    -0x4b0(%rbp),%rax
    f0cb:	48 83 c0 03          	add    $0x3,%rax
    f0cf:	48 89 85 f8 fb ff ff 	mov    %rax,-0x408(%rbp)
    f0d6:	48 c7 85 00 fc ff ff 	movq   $0x0,-0x400(%rbp)
    f0dd:	00 00 00 00 
    f0e1:	48 c7 85 08 fc ff ff 	movq   $0x0,-0x3f8(%rbp)
    f0e8:	00 00 00 00 
    f0ec:	48 8d 85 50 fb ff ff 	lea    -0x4b0(%rbp),%rax
    f0f3:	48 83 c0 03          	add    $0x3,%rax
    f0f7:	48 89 85 10 fc ff ff 	mov    %rax,-0x3f0(%rbp)
    f0fe:	48 8d 85 50 fb ff ff 	lea    -0x4b0(%rbp),%rax
    f105:	48 83 c0 04          	add    $0x4,%rax
    f109:	48 89 85 18 fc ff ff 	mov    %rax,-0x3e8(%rbp)
    f110:	48 8d 85 50 fb ff ff 	lea    -0x4b0(%rbp),%rax
    f117:	48 83 c0 04          	add    $0x4,%rax
    f11b:	48 89 85 20 fc ff ff 	mov    %rax,-0x3e0(%rbp)
    f122:	48 8d 85 50 fb ff ff 	lea    -0x4b0(%rbp),%rax
    f129:	48 83 c0 04          	add    $0x4,%rax
    f12d:	48 89 85 28 fc ff ff 	mov    %rax,-0x3d8(%rbp)
    f134:	48 c7 85 30 fc ff ff 	movq   $0x0,-0x3d0(%rbp)
    f13b:	00 00 00 00 
    f13f:	48 c7 85 38 fc ff ff 	movq   $0x0,-0x3c8(%rbp)
    f146:	00 00 00 00 
    f14a:	48 8d 85 50 fb ff ff 	lea    -0x4b0(%rbp),%rax
    f151:	48 83 c0 04          	add    $0x4,%rax
    f155:	48 89 85 40 fc ff ff 	mov    %rax,-0x3c0(%rbp)
    f15c:	48 8d 85 50 fb ff ff 	lea    -0x4b0(%rbp),%rax
    f163:	48 83 c0 17          	add    $0x17,%rax
    f167:	48 89 85 48 fc ff ff 	mov    %rax,-0x3b8(%rbp)
    f16e:	48 8d 85 50 fb ff ff 	lea    -0x4b0(%rbp),%rax
    f175:	48 83 c0 04          	add    $0x4,%rax
    f179:	48 89 85 50 fc ff ff 	mov    %rax,-0x3b0(%rbp)
    f180:	48 8d 85 50 fb ff ff 	lea    -0x4b0(%rbp),%rax
    f187:	48 83 c0 04          	add    $0x4,%rax
    f18b:	48 89 85 58 fc ff ff 	mov    %rax,-0x3a8(%rbp)
    f192:	48 8d 05 31 64 01 00 	lea    0x16431(%rip),%rax        # 255ca <g_80+0x2>
    f199:	48 89 85 60 fc ff ff 	mov    %rax,-0x3a0(%rbp)
    f1a0:	48 8d 85 50 fb ff ff 	lea    -0x4b0(%rbp),%rax
    f1a7:	48 83 c0 17          	add    $0x17,%rax
    f1ab:	48 89 85 68 fc ff ff 	mov    %rax,-0x398(%rbp)
    f1b2:	48 8d 85 50 fb ff ff 	lea    -0x4b0(%rbp),%rax
    f1b9:	48 83 c0 0f          	add    $0xf,%rax
    f1bd:	48 89 85 70 fc ff ff 	mov    %rax,-0x390(%rbp)
    f1c4:	48 8d 85 50 fb ff ff 	lea    -0x4b0(%rbp),%rax
    f1cb:	48 83 c0 17          	add    $0x17,%rax
    f1cf:	48 89 85 78 fc ff ff 	mov    %rax,-0x388(%rbp)
    f1d6:	48 8d 05 ed 63 01 00 	lea    0x163ed(%rip),%rax        # 255ca <g_80+0x2>
    f1dd:	48 89 85 80 fc ff ff 	mov    %rax,-0x380(%rbp)
    f1e4:	48 c7 85 88 fc ff ff 	movq   $0x0,-0x378(%rbp)
    f1eb:	00 00 00 00 
    f1ef:	48 8d 85 50 fb ff ff 	lea    -0x4b0(%rbp),%rax
    f1f6:	48 83 c0 04          	add    $0x4,%rax
    f1fa:	48 89 85 90 fc ff ff 	mov    %rax,-0x370(%rbp)
    f201:	48 8d 05 c2 63 01 00 	lea    0x163c2(%rip),%rax        # 255ca <g_80+0x2>
    f208:	48 89 85 98 fc ff ff 	mov    %rax,-0x368(%rbp)
    f20f:	48 c7 85 a0 fc ff ff 	movq   $0x0,-0x360(%rbp)
    f216:	00 00 00 00 
    f21a:	48 8d 85 50 fb ff ff 	lea    -0x4b0(%rbp),%rax
    f221:	48 83 c0 04          	add    $0x4,%rax
    f225:	48 89 85 a8 fc ff ff 	mov    %rax,-0x358(%rbp)
    f22c:	48 c7 85 b0 fc ff ff 	movq   $0x0,-0x350(%rbp)
    f233:	00 00 00 00 
    f237:	48 8d 05 8c 63 01 00 	lea    0x1638c(%rip),%rax        # 255ca <g_80+0x2>
    f23e:	48 89 85 b8 fc ff ff 	mov    %rax,-0x348(%rbp)
    f245:	48 8d 85 50 fb ff ff 	lea    -0x4b0(%rbp),%rax
    f24c:	48 83 c0 04          	add    $0x4,%rax
    f250:	48 89 85 c0 fc ff ff 	mov    %rax,-0x340(%rbp)
    f257:	48 8d 05 6c 63 01 00 	lea    0x1636c(%rip),%rax        # 255ca <g_80+0x2>
    f25e:	48 89 85 c8 fc ff ff 	mov    %rax,-0x338(%rbp)
    f265:	48 8d 05 5e 63 01 00 	lea    0x1635e(%rip),%rax        # 255ca <g_80+0x2>
    f26c:	48 89 85 d0 fc ff ff 	mov    %rax,-0x330(%rbp)
    f273:	48 8d 85 50 fb ff ff 	lea    -0x4b0(%rbp),%rax
    f27a:	48 83 c0 03          	add    $0x3,%rax
    f27e:	48 89 85 d8 fc ff ff 	mov    %rax,-0x328(%rbp)
    f285:	48 8d 85 50 fb ff ff 	lea    -0x4b0(%rbp),%rax
    f28c:	48 83 c0 03          	add    $0x3,%rax
    f290:	48 89 85 e0 fc ff ff 	mov    %rax,-0x320(%rbp)
    f297:	48 8d 05 2c 63 01 00 	lea    0x1632c(%rip),%rax        # 255ca <g_80+0x2>
    f29e:	48 89 85 e8 fc ff ff 	mov    %rax,-0x318(%rbp)
    f2a5:	48 8d 85 50 fb ff ff 	lea    -0x4b0(%rbp),%rax
    f2ac:	48 83 c0 17          	add    $0x17,%rax
    f2b0:	48 89 85 f0 fc ff ff 	mov    %rax,-0x310(%rbp)
    f2b7:	48 c7 85 f8 fc ff ff 	movq   $0x0,-0x308(%rbp)
    f2be:	00 00 00 00 
    f2c2:	48 8d 05 01 63 01 00 	lea    0x16301(%rip),%rax        # 255ca <g_80+0x2>
    f2c9:	48 89 85 00 fd ff ff 	mov    %rax,-0x300(%rbp)
    f2d0:	48 8d 05 f3 62 01 00 	lea    0x162f3(%rip),%rax        # 255ca <g_80+0x2>
    f2d7:	48 89 85 08 fd ff ff 	mov    %rax,-0x2f8(%rbp)
    f2de:	48 c7 85 10 fd ff ff 	movq   $0x0,-0x2f0(%rbp)
    f2e5:	00 00 00 00 
    f2e9:	48 8d 85 50 fb ff ff 	lea    -0x4b0(%rbp),%rax
    f2f0:	48 83 c0 17          	add    $0x17,%rax
    f2f4:	48 89 85 18 fd ff ff 	mov    %rax,-0x2e8(%rbp)
    f2fb:	48 8d 05 c8 62 01 00 	lea    0x162c8(%rip),%rax        # 255ca <g_80+0x2>
    f302:	48 89 85 20 fd ff ff 	mov    %rax,-0x2e0(%rbp)
    f309:	48 8d 85 50 fb ff ff 	lea    -0x4b0(%rbp),%rax
    f310:	48 83 c0 03          	add    $0x3,%rax
    f314:	48 89 85 28 fd ff ff 	mov    %rax,-0x2d8(%rbp)
    f31b:	48 8d 85 50 fb ff ff 	lea    -0x4b0(%rbp),%rax
    f322:	48 83 c0 03          	add    $0x3,%rax
    f326:	48 89 85 30 fd ff ff 	mov    %rax,-0x2d0(%rbp)
    f32d:	48 8d 05 96 62 01 00 	lea    0x16296(%rip),%rax        # 255ca <g_80+0x2>
    f334:	48 89 85 38 fd ff ff 	mov    %rax,-0x2c8(%rbp)
    f33b:	48 8d 05 88 62 01 00 	lea    0x16288(%rip),%rax        # 255ca <g_80+0x2>
    f342:	48 89 85 40 fd ff ff 	mov    %rax,-0x2c0(%rbp)
    f349:	48 8d 85 50 fb ff ff 	lea    -0x4b0(%rbp),%rax
    f350:	48 83 c0 04          	add    $0x4,%rax
    f354:	48 89 85 48 fd ff ff 	mov    %rax,-0x2b8(%rbp)
    f35b:	48 8d 05 68 62 01 00 	lea    0x16268(%rip),%rax        # 255ca <g_80+0x2>
    f362:	48 89 85 50 fd ff ff 	mov    %rax,-0x2b0(%rbp)
    f369:	48 c7 85 58 fd ff ff 	movq   $0x0,-0x2a8(%rbp)
    f370:	00 00 00 00 
    f374:	48 8d 85 50 fb ff ff 	lea    -0x4b0(%rbp),%rax
    f37b:	48 83 c0 04          	add    $0x4,%rax
    f37f:	48 89 85 60 fd ff ff 	mov    %rax,-0x2a0(%rbp)
    f386:	48 c7 85 68 fd ff ff 	movq   $0x0,-0x298(%rbp)
    f38d:	00 00 00 00 
    f391:	48 8d 05 32 62 01 00 	lea    0x16232(%rip),%rax        # 255ca <g_80+0x2>
    f398:	48 89 85 70 fd ff ff 	mov    %rax,-0x290(%rbp)
    f39f:	48 8d 85 50 fb ff ff 	lea    -0x4b0(%rbp),%rax
    f3a6:	48 83 c0 04          	add    $0x4,%rax
    f3aa:	48 89 85 78 fd ff ff 	mov    %rax,-0x288(%rbp)
    f3b1:	48 c7 85 80 fd ff ff 	movq   $0x0,-0x280(%rbp)
    f3b8:	00 00 00 00 
    f3bc:	48 8d 05 07 62 01 00 	lea    0x16207(%rip),%rax        # 255ca <g_80+0x2>
    f3c3:	48 89 85 88 fd ff ff 	mov    %rax,-0x278(%rbp)
    f3ca:	48 8d 85 50 fb ff ff 	lea    -0x4b0(%rbp),%rax
    f3d1:	48 83 c0 17          	add    $0x17,%rax
    f3d5:	48 89 85 90 fd ff ff 	mov    %rax,-0x270(%rbp)
    f3dc:	48 8d 85 50 fb ff ff 	lea    -0x4b0(%rbp),%rax
    f3e3:	48 83 c0 0f          	add    $0xf,%rax
    f3e7:	48 89 85 98 fd ff ff 	mov    %rax,-0x268(%rbp)
    f3ee:	48 8d 85 50 fb ff ff 	lea    -0x4b0(%rbp),%rax
    f3f5:	48 83 c0 17          	add    $0x17,%rax
    f3f9:	48 89 85 a0 fd ff ff 	mov    %rax,-0x260(%rbp)
    f400:	48 8d 05 c3 61 01 00 	lea    0x161c3(%rip),%rax        # 255ca <g_80+0x2>
    f407:	48 89 85 a8 fd ff ff 	mov    %rax,-0x258(%rbp)
    f40e:	c7 85 c0 f9 ff ff 00 	movl   $0x0,-0x640(%rbp)
    f415:	00 00 00 
    f418:	48 8b 05 a1 37 01 00 	mov    0x137a1(%rip),%rax        # 22bc0 <g_100>
    f41f:	48 8b 00             	mov    (%rax),%rax
    f422:	8b 18                	mov    (%rax),%ebx
    f424:	0f b6 85 a0 fb ff ff 	movzbl -0x460(%rbp),%eax
    f42b:	0f b6 c0             	movzbl %al,%eax
    f42e:	66 39 85 58 f9 ff ff 	cmp    %ax,-0x6a8(%rbp)
    f435:	0f 93 c0             	setae  %al
    f438:	0f b6 c0             	movzbl %al,%eax
    f43b:	89 c6                	mov    %eax,%esi
    f43d:	bf fb ff ff ff       	mov    $0xfffffffb,%edi
    f442:	e8 5a 8e ff ff       	callq  82a1 <safe_lshift_func_int8_t_s_s>
    f447:	0f b6 85 a0 fb ff ff 	movzbl -0x460(%rbp),%eax
    f44e:	0f b6 d0             	movzbl %al,%edx
    f451:	48 83 bd d0 fa ff ff 	cmpq   $0x1,-0x530(%rbp)
    f458:	01 
    f459:	0f 9e c0             	setle  %al
    f45c:	0f b6 c0             	movzbl %al,%eax
    f45f:	39 c2                	cmp    %eax,%edx
    f461:	0f 95 c0             	setne  %al
    f464:	0f b6 d0             	movzbl %al,%edx
    f467:	0f b7 85 58 f9 ff ff 	movzwl -0x6a8(%rbp),%eax
    f46e:	09 d0                	or     %edx,%eax
    f470:	85 c0                	test   %eax,%eax
    f472:	0f 95 c0             	setne  %al
    f475:	0f b6 c0             	movzbl %al,%eax
    f478:	8b 95 9c f9 ff ff    	mov    -0x664(%rbp),%edx
    f47e:	89 d6                	mov    %edx,%esi
    f480:	89 c7                	mov    %eax,%edi
    f482:	e8 1a 8e ff ff       	callq  82a1 <safe_lshift_func_int8_t_s_s>
    f487:	48 8b 95 d0 fe ff ff 	mov    -0x130(%rbp),%rdx
    f48e:	48 8b 85 f8 fd ff ff 	mov    -0x208(%rbp),%rax
    f495:	48 39 c2             	cmp    %rax,%rdx
    f498:	0f 95 c0             	setne  %al
    f49b:	0f b6 c0             	movzbl %al,%eax
    f49e:	89 de                	mov    %ebx,%esi
    f4a0:	89 c7                	mov    %eax,%edi
    f4a2:	e8 25 92 ff ff       	callq  86cc <safe_mod_func_int32_t_s_s>
    f4a7:	89 c3                	mov    %eax,%ebx
    f4a9:	0f b7 85 58 f9 ff ff 	movzwl -0x6a8(%rbp),%eax
    f4b0:	0f be c0             	movsbl %al,%eax
    f4b3:	be 03 00 00 00       	mov    $0x3,%esi
    f4b8:	89 c7                	mov    %eax,%edi
    f4ba:	e8 2f 8e ff ff       	callq  82ee <safe_lshift_func_int8_t_s_u>
    f4bf:	0f be c0             	movsbl %al,%eax
    f4c2:	89 de                	mov    %ebx,%esi
    f4c4:	89 c7                	mov    %eax,%edi
    f4c6:	e8 5a 9a ff ff       	callq  8f25 <safe_div_func_uint32_t_u_u>
    f4cb:	89 c6                	mov    %eax,%esi
    f4cd:	bf ff ff ff ff       	mov    $0xffffffff,%edi
    f4d2:	e8 8c 90 ff ff       	callq  8563 <safe_rshift_func_int16_t_s_u>
    f4d7:	be 00 00 00 00       	mov    $0x0,%esi
    f4dc:	bf 00 00 00 00       	mov    $0x0,%edi
    f4e1:	e8 ad 96 ff ff       	callq  8b93 <safe_mul_func_uint8_t_u_u>
    f4e6:	84 c0                	test   %al,%al
    f4e8:	74 07                	je     f4f1 <func_36+0x111a>
    f4ea:	ba 01 00 00 00       	mov    $0x1,%edx
    f4ef:	eb 05                	jmp    f4f6 <func_36+0x111f>
    f4f1:	ba 00 00 00 00       	mov    $0x0,%edx
    f4f6:	48 8b 05 bb 36 01 00 	mov    0x136bb(%rip),%rax        # 22bb8 <g_74>
    f4fd:	89 10                	mov    %edx,(%rax)
    f4ff:	48 8b 85 d8 fa ff ff 	mov    -0x528(%rbp),%rax
    f506:	48 8b 10             	mov    (%rax),%rdx
    f509:	48 8b 05 68 3c 01 00 	mov    0x13c68(%rip),%rax        # 23178 <g_622>
    f510:	48 8b 00             	mov    (%rax),%rax
    f513:	48 31 c2             	xor    %rax,%rdx
    f516:	48 8b 85 d8 fa ff ff 	mov    -0x528(%rbp),%rax
    f51d:	48 89 10             	mov    %rdx,(%rax)
    f520:	66 83 bd 58 f9 ff ff 	cmpw   $0x0,-0x6a8(%rbp)
    f527:	00 
    f528:	74 26                	je     f550 <func_36+0x1179>
    f52a:	0f b7 85 5c f9 ff ff 	movzwl -0x6a4(%rbp),%eax
    f531:	98                   	cwtl   
    f532:	be 0c 00 00 00       	mov    $0xc,%esi
    f537:	89 c7                	mov    %eax,%edi
    f539:	e8 54 8f ff ff       	callq  8492 <safe_lshift_func_int16_t_s_s>
    f53e:	89 c2                	mov    %eax,%edx
    f540:	48 8b 85 e0 fa ff ff 	mov    -0x520(%rbp),%rax
    f547:	88 10                	mov    %dl,(%rax)
    f549:	b8 01 00 00 00       	mov    $0x1,%eax
    f54e:	eb 05                	jmp    f555 <func_36+0x117e>
    f550:	b8 00 00 00 00       	mov    $0x0,%eax
    f555:	89 c2                	mov    %eax,%edx
    f557:	48 8b 85 e8 fa ff ff 	mov    -0x518(%rbp),%rax
    f55e:	89 10                	mov    %edx,(%rax)
    f560:	48 8b 85 e8 fa ff ff 	mov    -0x518(%rbp),%rax
    f567:	8b 18                	mov    (%rax),%ebx
    f569:	48 8b 85 d8 fa ff ff 	mov    -0x528(%rbp),%rax
    f570:	48 c7 00 05 00 00 00 	movq   $0x5,(%rax)
    f577:	be 00 41 3f dd       	mov    $0xdd3f4100,%esi
    f57c:	bf 00 00 00 00       	mov    $0x0,%edi
    f581:	e8 32 99 ff ff       	callq  8eb8 <safe_add_func_uint32_t_u_u>
    f586:	89 c2                	mov    %eax,%edx
    f588:	48 8b 05 29 36 01 00 	mov    0x13629(%rip),%rax        # 22bb8 <g_74>
    f58f:	89 10                	mov    %edx,(%rax)
    f591:	8b 00                	mov    (%rax),%eax
    f593:	39 c3                	cmp    %eax,%ebx
    f595:	0f 92 c0             	setb   %al
    f598:	0f b6 d0             	movzbl %al,%edx
    f59b:	48 8b 05 fe 43 01 00 	mov    0x143fe(%rip),%rax        # 239a0 <g_876>
    f5a2:	48 8b 00             	mov    (%rax),%rax
    f5a5:	48 39 85 30 fa ff ff 	cmp    %rax,-0x5d0(%rbp)
    f5ac:	74 11                	je     f5bf <func_36+0x11e8>
    f5ae:	66 83 bd 58 f9 ff ff 	cmpw   $0x0,-0x6a8(%rbp)
    f5b5:	00 
    f5b6:	74 07                	je     f5bf <func_36+0x11e8>
    f5b8:	b8 01 00 00 00       	mov    $0x1,%eax
    f5bd:	eb 05                	jmp    f5c4 <func_36+0x11ed>
    f5bf:	b8 00 00 00 00       	mov    $0x0,%eax
    f5c4:	48 98                	cltq   
    f5c6:	48 89 d6             	mov    %rdx,%rsi
    f5c9:	48 89 c7             	mov    %rax,%rdi
    f5cc:	e8 70 92 ff ff       	callq  8841 <safe_add_func_int64_t_s_s>
    f5d1:	48 8d 15 1c de 00 00 	lea    0xde1c(%rip),%rdx        # 1d3f4 <g_500+0x4>
    f5d8:	89 02                	mov    %eax,(%rdx)
    f5da:	be 00 00 00 00       	mov    $0x0,%esi
    f5df:	48 c7 c7 ff ff ff ff 	mov    $0xffffffffffffffff,%rdi
    f5e6:	e8 60 9a ff ff       	callq  904b <safe_sub_func_uint64_t_u_u>
    f5eb:	0f b6 c0             	movzbl %al,%eax
    f5ee:	89 c6                	mov    %eax,%esi
    f5f0:	bf 53 00 00 00       	mov    $0x53,%edi
    f5f5:	e8 60 95 ff ff       	callq  8b5a <safe_add_func_uint8_t_u_u>
    f5fa:	0f b6 d0             	movzbl %al,%edx
    f5fd:	48 8b 05 74 3b 01 00 	mov    0x13b74(%rip),%rax        # 23178 <g_622>
    f604:	48 8b 00             	mov    (%rax),%rax
    f607:	48 39 c2             	cmp    %rax,%rdx
    f60a:	76 35                	jbe    f641 <func_36+0x126a>
    f60c:	0f b7 85 58 f9 ff ff 	movzwl -0x6a8(%rbp),%eax
    f613:	0f be c0             	movsbl %al,%eax
    f616:	be 01 00 00 00       	mov    $0x1,%esi
    f61b:	89 c7                	mov    %eax,%edi
    f61d:	e8 13 8d ff ff       	callq  8335 <safe_rshift_func_int8_t_s_s>
    f622:	66 98                	cbtw   
    f624:	48 8b 95 d0 fa ff ff 	mov    -0x530(%rbp),%rdx
    f62b:	09 d0                	or     %edx,%eax
    f62d:	0f b7 c0             	movzwl %ax,%eax
    f630:	be 09 00 00 00       	mov    $0x9,%esi
    f635:	89 c7                	mov    %eax,%edi
    f637:	e8 0c 98 ff ff       	callq  8e48 <safe_rshift_func_uint16_t_u_s>
    f63c:	66 85 c0             	test   %ax,%ax
    f63f:	74 49                	je     f68a <func_36+0x12b3>
    f641:	8b 85 9c f9 ff ff    	mov    -0x664(%rbp),%eax
    f647:	98                   	cwtl   
    f648:	89 c7                	mov    %eax,%edi
    f64a:	e8 4e 8d ff ff       	callq  839d <safe_unary_minus_func_int16_t_s>
    f64f:	66 85 c0             	test   %ax,%ax
    f652:	75 0a                	jne    f65e <func_36+0x1287>
    f654:	48 83 bd 60 fa ff ff 	cmpq   $0x0,-0x5a0(%rbp)
    f65b:	00 
    f65c:	74 07                	je     f665 <func_36+0x128e>
    f65e:	b8 01 00 00 00       	mov    $0x1,%eax
    f663:	eb 05                	jmp    f66a <func_36+0x1293>
    f665:	b8 00 00 00 00       	mov    $0x0,%eax
    f66a:	33 85 78 f9 ff ff    	xor    -0x688(%rbp),%eax
    f670:	89 85 c0 f9 ff ff    	mov    %eax,-0x640(%rbp)
    f676:	48 8b 85 50 f9 ff ff 	mov    -0x6b0(%rbp),%rax
    f67d:	8b 00                	mov    (%rax),%eax
    f67f:	85 c0                	test   %eax,%eax
    f681:	74 07                	je     f68a <func_36+0x12b3>
    f683:	b8 01 00 00 00       	mov    $0x1,%eax
    f688:	eb 05                	jmp    f68f <func_36+0x12b8>
    f68a:	b8 00 00 00 00       	mov    $0x0,%eax
    f68f:	21 85 68 f9 ff ff    	and    %eax,-0x698(%rbp)
    f695:	8b 05 35 dd 00 00    	mov    0xdd35(%rip),%eax        # 1d3d0 <g_492+0x10>
    f69b:	01 c0                	add    %eax,%eax
    f69d:	c1 f8 05             	sar    $0x5,%eax
    f6a0:	0f b6 d8             	movzbl %al,%ebx
    f6a3:	0f b7 85 5c f9 ff ff 	movzwl -0x6a4(%rbp),%eax
    f6aa:	44 0f b6 e0          	movzbl %al,%r12d
    f6ae:	8b 85 84 f9 ff ff    	mov    -0x67c(%rbp),%eax
    f6b4:	be 08 00 00 00       	mov    $0x8,%esi
    f6b9:	89 c7                	mov    %eax,%edi
    f6bb:	e8 f6 8e ff ff       	callq  85b6 <safe_add_func_int32_t_s_s>
    f6c0:	98                   	cwtl   
    f6c1:	48 8b 95 68 fa ff ff 	mov    -0x598(%rbp),%rdx
    f6c8:	48 8d 0d d5 5f 01 00 	lea    0x15fd5(%rip),%rcx        # 256a4 <g_1832>
    f6cf:	48 89 0a             	mov    %rcx,(%rdx)
    f6d2:	89 c6                	mov    %eax,%esi
    f6d4:	bf 01 00 00 00       	mov    $0x1,%edi
    f6d9:	e8 38 8d ff ff       	callq  8416 <safe_mod_func_int16_t_s_s>
    f6de:	0f b6 c0             	movzbl %al,%eax
    f6e1:	be a6 00 00 00       	mov    $0xa6,%esi
    f6e6:	89 c7                	mov    %eax,%edi
    f6e8:	e8 6d 94 ff ff       	callq  8b5a <safe_add_func_uint8_t_u_u>
    f6ed:	0f b6 d0             	movzbl %al,%edx
    f6f0:	48 8b 85 50 f9 ff ff 	mov    -0x6b0(%rbp),%rax
    f6f7:	8b 00                	mov    (%rax),%eax
    f6f9:	09 d0                	or     %edx,%eax
    f6fb:	98                   	cwtl   
    f6fc:	be 0e 00 00 00       	mov    $0xe,%esi
    f701:	89 c7                	mov    %eax,%edi
    f703:	e8 5b 8e ff ff       	callq  8563 <safe_rshift_func_int16_t_s_u>
    f708:	0f b6 c0             	movzbl %al,%eax
    f70b:	44 89 e6             	mov    %r12d,%esi
    f70e:	89 c7                	mov    %eax,%edi
    f710:	e8 99 94 ff ff       	callq  8bae <safe_mod_func_uint8_t_u_u>
    f715:	0f b6 c0             	movzbl %al,%eax
    f718:	89 c6                	mov    %eax,%esi
    f71a:	bf 00 00 00 00       	mov    $0x0,%edi
    f71f:	e8 01 98 ff ff       	callq  8f25 <safe_div_func_uint32_t_u_u>
    f724:	0f b7 85 5c f9 ff ff 	movzwl -0x6a4(%rbp),%eax
    f72b:	44 0f b6 e0          	movzbl %al,%r12d
    f72f:	8b 85 80 f9 ff ff    	mov    -0x680(%rbp),%eax
    f735:	98                   	cwtl   
    f736:	be 03 00 00 00       	mov    $0x3,%esi
    f73b:	89 c7                	mov    %eax,%edi
    f73d:	e8 9f 8d ff ff       	callq  84e1 <safe_lshift_func_int16_t_s_u>
    f742:	0f b6 c0             	movzbl %al,%eax
    f745:	44 89 e6             	mov    %r12d,%esi
    f748:	89 c7                	mov    %eax,%edi
    f74a:	e8 44 94 ff ff       	callq  8b93 <safe_mul_func_uint8_t_u_u>
    f74f:	0f b6 c0             	movzbl %al,%eax
    f752:	48 be ab c1 b1 6f 0e 	movabs $0x61789e0e6fb1c1ab,%rsi
    f759:	9e 78 61 
    f75c:	48 89 c7             	mov    %rax,%rdi
    f75f:	e8 e7 98 ff ff       	callq  904b <safe_sub_func_uint64_t_u_u>
    f764:	0f b6 c0             	movzbl %al,%eax
    f767:	89 de                	mov    %ebx,%esi
    f769:	89 c7                	mov    %eax,%edi
    f76b:	e8 3e 94 ff ff       	callq  8bae <safe_mod_func_uint8_t_u_u>
    f770:	48 8b 85 50 f9 ff ff 	mov    -0x6b0(%rbp),%rax
    f777:	c7 00 01 00 00 00    	movl   $0x1,(%rax)
    f77d:	48 8b 05 4c 22 01 00 	mov    0x1224c(%rip),%rax        # 219d0 <g_1673>
    f784:	48 83 e8 01          	sub    $0x1,%rax
    f788:	48 89 05 41 22 01 00 	mov    %rax,0x12241(%rip)        # 219d0 <g_1673>
    f78f:	48 8b 05 3a 22 01 00 	mov    0x1223a(%rip),%rax        # 219d0 <g_1673>
    f796:	48 83 f8 10          	cmp    $0x10,%rax
    f79a:	0f 8e 9c ed ff ff    	jle    e53c <func_36+0x165>
    f7a0:	c7 85 7c f9 ff ff 10 	movl   $0x10,-0x684(%rbp)
    f7a7:	00 00 00 
    f7aa:	83 bd 7c f9 ff ff 1c 	cmpl   $0x1c,-0x684(%rbp)
    f7b1:	74 0c                	je     f7bf <func_36+0x13e8>
    f7b3:	48 8b 05 be 39 01 00 	mov    0x139be(%rip),%rax        # 23178 <g_622>
    f7ba:	48 8b 00             	mov    (%rax),%rax
    f7bd:	eb 08                	jmp    f7c7 <func_36+0x13f0>
    f7bf:	48 0f be 85 60 f9 ff 	movsbq -0x6a0(%rbp),%rax
    f7c6:	ff 
    f7c7:	48 8b 5d e8          	mov    -0x18(%rbp),%rbx
    f7cb:	64 48 33 1c 25 28 00 	xor    %fs:0x28,%rbx
    f7d2:	00 00 
    f7d4:	74 05                	je     f7db <func_36+0x1404>
    f7d6:	e8 95 88 ff ff       	callq  8070 <__stack_chk_fail@plt>
    f7db:	48 81 c4 a0 06 00 00 	add    $0x6a0,%rsp
    f7e2:	5b                   	pop    %rbx
    f7e3:	41 5c                	pop    %r12
    f7e5:	5d                   	pop    %rbp
    f7e6:	c3                   	retq   

000000000000f7e7 <func_40>:
    f7e7:	f3 0f 1e fa          	endbr64 
    f7eb:	55                   	push   %rbp
    f7ec:	48 89 e5             	mov    %rsp,%rbp
    f7ef:	48 81 ec b0 04 00 00 	sub    $0x4b0,%rsp
    f7f6:	89 f8                	mov    %edi,%eax
    f7f8:	48 89 b5 60 fb ff ff 	mov    %rsi,-0x4a0(%rbp)
    f7ff:	48 89 95 58 fb ff ff 	mov    %rdx,-0x4a8(%rbp)
    f806:	48 89 8d 50 fb ff ff 	mov    %rcx,-0x4b0(%rbp)
    f80d:	88 85 6c fb ff ff    	mov    %al,-0x494(%rbp)
    f813:	64 48 8b 04 25 28 00 	mov    %fs:0x28,%rax
    f81a:	00 00 
    f81c:	48 89 45 f8          	mov    %rax,-0x8(%rbp)
    f820:	31 c0                	xor    %eax,%eax
    f822:	c6 85 74 fb ff ff ff 	movb   $0xff,-0x48c(%rbp)
    f829:	48 8d 05 b4 da 00 00 	lea    0xdab4(%rip),%rax        # 1d2e4 <g_108>
    f830:	48 89 85 d8 fb ff ff 	mov    %rax,-0x428(%rbp)
    f837:	c7 85 80 fb ff ff f8 	movl   $0xfffffff8,-0x480(%rbp)
    f83e:	ff ff ff 
    f841:	48 8d 05 b2 da 00 00 	lea    0xdab2(%rip),%rax        # 1d2fa <g_166>
    f848:	48 89 85 e0 fb ff ff 	mov    %rax,-0x420(%rbp)
    f84f:	48 8d 05 22 39 01 00 	lea    0x13922(%rip),%rax        # 23178 <g_622>
    f856:	48 89 85 e8 fb ff ff 	mov    %rax,-0x418(%rbp)
    f85d:	66 c7 85 76 fb ff ff 	movw   $0x0,-0x48a(%rbp)
    f864:	00 00 
    f866:	c7 85 90 fc ff ff 00 	movl   $0xc800,-0x370(%rbp)
    f86d:	c8 00 00 
    f870:	66 c7 85 94 fc ff ff 	movw   $0xc8,-0x36c(%rbp)
    f877:	c8 00 
    f879:	c6 85 96 fc ff ff 00 	movb   $0x0,-0x36a(%rbp)
    f880:	c7 85 97 fc ff ff 5e 	movl   $0x5eff5e5e,-0x369(%rbp)
    f887:	5e ff 5e 
    f88a:	66 c7 85 9b fc ff ff 	movw   $0xff5e,-0x365(%rbp)
    f891:	5e ff 
    f893:	c6 85 9d fc ff ff 5e 	movb   $0x5e,-0x363(%rbp)
    f89a:	c7 85 9e fc ff ff c8 	movl   $0xc80000c8,-0x362(%rbp)
    f8a1:	00 00 c8 
    f8a4:	66 c7 85 a2 fc ff ff 	movw   $0x0,-0x35e(%rbp)
    f8ab:	00 00 
    f8ad:	c6 85 a4 fc ff ff c8 	movb   $0xc8,-0x35c(%rbp)
    f8b4:	c7 85 a5 fc ff ff 42 	movl   $0x42425e42,-0x35b(%rbp)
    f8bb:	5e 42 42 
    f8be:	66 c7 85 a9 fc ff ff 	movw   $0x425e,-0x357(%rbp)
    f8c5:	5e 42 
    f8c7:	c6 85 ab fc ff ff 42 	movb   $0x42,-0x355(%rbp)
    f8ce:	c7 85 ac fc ff ff c8 	movl   $0xc829c8c8,-0x354(%rbp)
    f8d5:	c8 29 c8 
    f8d8:	66 c7 85 b0 fc ff ff 	movw   $0x29c8,-0x350(%rbp)
    f8df:	c8 29 
    f8e1:	c6 85 b2 fc ff ff c8 	movb   $0xc8,-0x34e(%rbp)
    f8e8:	c7 85 b3 fc ff ff 5e 	movl   $0x5e42425e,-0x34d(%rbp)
    f8ef:	42 42 5e 
    f8f2:	66 c7 85 b7 fc ff ff 	movw   $0x4242,-0x349(%rbp)
    f8f9:	42 42 
    f8fb:	c6 85 b9 fc ff ff 5e 	movb   $0x5e,-0x347(%rbp)
    f902:	c7 85 ba fc ff ff 00 	movl   $0xc800,-0x346(%rbp)
    f909:	c8 00 00 
    f90c:	66 c7 85 be fc ff ff 	movw   $0xc8,-0x342(%rbp)
    f913:	c8 00 
    f915:	c6 85 c0 fc ff ff 00 	movb   $0x0,-0x340(%rbp)
    f91c:	c7 85 c1 fc ff ff 5e 	movl   $0x5eff5e5e,-0x33f(%rbp)
    f923:	5e ff 5e 
    f926:	66 c7 85 c5 fc ff ff 	movw   $0xff5e,-0x33b(%rbp)
    f92d:	5e ff 
    f92f:	c6 85 c7 fc ff ff 5e 	movb   $0x5e,-0x339(%rbp)
    f936:	c7 85 c8 fc ff ff c8 	movl   $0xc80000c8,-0x338(%rbp)
    f93d:	00 00 c8 
    f940:	66 c7 85 cc fc ff ff 	movw   $0x0,-0x334(%rbp)
    f947:	00 00 
    f949:	c6 85 ce fc ff ff c8 	movb   $0xc8,-0x332(%rbp)
    f950:	c7 85 cf fc ff ff ff 	movl   $0xffff42ff,-0x331(%rbp)
    f957:	42 ff ff 
    f95a:	66 c7 85 d3 fc ff ff 	movw   $0xff42,-0x32d(%rbp)
    f961:	42 ff 
    f963:	c6 85 d5 fc ff ff ff 	movb   $0xff,-0x32b(%rbp)
    f96a:	c7 85 84 fb ff ff ff 	movl   $0xffffffff,-0x47c(%rbp)
    f971:	ff ff ff 
    f974:	c7 85 88 fb ff ff 42 	movl   $0x60b0c42,-0x478(%rbp)
    f97b:	0c 0b 06 
    f97e:	c7 85 8c fb ff ff 08 	movl   $0x8,-0x474(%rbp)
    f985:	00 00 00 
    f988:	48 8d 05 71 5c 01 00 	lea    0x15c71(%rip),%rax        # 25600 <g_737>
    f98f:	48 89 85 98 fb ff ff 	mov    %rax,-0x468(%rbp)
    f996:	48 8d 85 98 fb ff ff 	lea    -0x468(%rbp),%rax
    f99d:	48 89 85 30 fe ff ff 	mov    %rax,-0x1d0(%rbp)
    f9a4:	48 8d 85 98 fb ff ff 	lea    -0x468(%rbp),%rax
    f9ab:	48 89 85 38 fe ff ff 	mov    %rax,-0x1c8(%rbp)
    f9b2:	48 8d 85 98 fb ff ff 	lea    -0x468(%rbp),%rax
    f9b9:	48 89 85 40 fe ff ff 	mov    %rax,-0x1c0(%rbp)
    f9c0:	48 8d 85 98 fb ff ff 	lea    -0x468(%rbp),%rax
    f9c7:	48 89 85 48 fe ff ff 	mov    %rax,-0x1b8(%rbp)
    f9ce:	48 8d 85 98 fb ff ff 	lea    -0x468(%rbp),%rax
    f9d5:	48 89 85 50 fe ff ff 	mov    %rax,-0x1b0(%rbp)
    f9dc:	48 8d 85 98 fb ff ff 	lea    -0x468(%rbp),%rax
    f9e3:	48 89 85 58 fe ff ff 	mov    %rax,-0x1a8(%rbp)
    f9ea:	48 8d 85 98 fb ff ff 	lea    -0x468(%rbp),%rax
    f9f1:	48 89 85 60 fe ff ff 	mov    %rax,-0x1a0(%rbp)
    f9f8:	48 8d 85 98 fb ff ff 	lea    -0x468(%rbp),%rax
    f9ff:	48 89 85 68 fe ff ff 	mov    %rax,-0x198(%rbp)
    fa06:	48 8d 85 98 fb ff ff 	lea    -0x468(%rbp),%rax
    fa0d:	48 89 85 70 fe ff ff 	mov    %rax,-0x190(%rbp)
    fa14:	48 8d 85 98 fb ff ff 	lea    -0x468(%rbp),%rax
    fa1b:	48 89 85 78 fe ff ff 	mov    %rax,-0x188(%rbp)
    fa22:	48 8d 85 98 fb ff ff 	lea    -0x468(%rbp),%rax
    fa29:	48 89 85 80 fe ff ff 	mov    %rax,-0x180(%rbp)
    fa30:	48 c7 85 88 fe ff ff 	movq   $0x0,-0x178(%rbp)
    fa37:	00 00 00 00 
    fa3b:	48 8d 85 98 fb ff ff 	lea    -0x468(%rbp),%rax
    fa42:	48 89 85 90 fe ff ff 	mov    %rax,-0x170(%rbp)
    fa49:	48 8d 85 98 fb ff ff 	lea    -0x468(%rbp),%rax
    fa50:	48 89 85 98 fe ff ff 	mov    %rax,-0x168(%rbp)
    fa57:	48 8d 85 98 fb ff ff 	lea    -0x468(%rbp),%rax
    fa5e:	48 89 85 a0 fe ff ff 	mov    %rax,-0x160(%rbp)
    fa65:	48 8d 85 98 fb ff ff 	lea    -0x468(%rbp),%rax
    fa6c:	48 89 85 a8 fe ff ff 	mov    %rax,-0x158(%rbp)
    fa73:	48 c7 85 b0 fe ff ff 	movq   $0x0,-0x150(%rbp)
    fa7a:	00 00 00 00 
    fa7e:	48 c7 85 b8 fe ff ff 	movq   $0x0,-0x148(%rbp)
    fa85:	00 00 00 00 
    fa89:	48 8d 85 98 fb ff ff 	lea    -0x468(%rbp),%rax
    fa90:	48 89 85 c0 fe ff ff 	mov    %rax,-0x140(%rbp)
    fa97:	48 8d 85 98 fb ff ff 	lea    -0x468(%rbp),%rax
    fa9e:	48 89 85 c8 fe ff ff 	mov    %rax,-0x138(%rbp)
    faa5:	48 8d 85 98 fb ff ff 	lea    -0x468(%rbp),%rax
    faac:	48 89 85 d0 fe ff ff 	mov    %rax,-0x130(%rbp)
    fab3:	48 8d 85 98 fb ff ff 	lea    -0x468(%rbp),%rax
    faba:	48 89 85 d8 fe ff ff 	mov    %rax,-0x128(%rbp)
    fac1:	48 8d 85 98 fb ff ff 	lea    -0x468(%rbp),%rax
    fac8:	48 89 85 e0 fe ff ff 	mov    %rax,-0x120(%rbp)
    facf:	48 8d 85 98 fb ff ff 	lea    -0x468(%rbp),%rax
    fad6:	48 89 85 e8 fe ff ff 	mov    %rax,-0x118(%rbp)
    fadd:	48 8d 85 98 fb ff ff 	lea    -0x468(%rbp),%rax
    fae4:	48 89 85 f0 fe ff ff 	mov    %rax,-0x110(%rbp)
    faeb:	48 8d 85 98 fb ff ff 	lea    -0x468(%rbp),%rax
    faf2:	48 89 85 f8 fe ff ff 	mov    %rax,-0x108(%rbp)
    faf9:	48 8d 85 98 fb ff ff 	lea    -0x468(%rbp),%rax
    fb00:	48 89 85 00 ff ff ff 	mov    %rax,-0x100(%rbp)
    fb07:	48 8d 85 98 fb ff ff 	lea    -0x468(%rbp),%rax
    fb0e:	48 89 85 08 ff ff ff 	mov    %rax,-0xf8(%rbp)
    fb15:	48 8d 85 98 fb ff ff 	lea    -0x468(%rbp),%rax
    fb1c:	48 89 85 10 ff ff ff 	mov    %rax,-0xf0(%rbp)
    fb23:	48 8d 85 98 fb ff ff 	lea    -0x468(%rbp),%rax
    fb2a:	48 89 85 18 ff ff ff 	mov    %rax,-0xe8(%rbp)
    fb31:	48 8d 85 98 fb ff ff 	lea    -0x468(%rbp),%rax
    fb38:	48 89 85 20 ff ff ff 	mov    %rax,-0xe0(%rbp)
    fb3f:	48 8d 85 98 fb ff ff 	lea    -0x468(%rbp),%rax
    fb46:	48 89 85 28 ff ff ff 	mov    %rax,-0xd8(%rbp)
    fb4d:	48 c7 85 30 ff ff ff 	movq   $0x0,-0xd0(%rbp)
    fb54:	00 00 00 00 
    fb58:	48 c7 85 38 ff ff ff 	movq   $0x0,-0xc8(%rbp)
    fb5f:	00 00 00 00 
    fb63:	48 8d 85 98 fb ff ff 	lea    -0x468(%rbp),%rax
    fb6a:	48 89 85 40 ff ff ff 	mov    %rax,-0xc0(%rbp)
    fb71:	48 8d 85 98 fb ff ff 	lea    -0x468(%rbp),%rax
    fb78:	48 89 85 48 ff ff ff 	mov    %rax,-0xb8(%rbp)
    fb7f:	48 8d 85 98 fb ff ff 	lea    -0x468(%rbp),%rax
    fb86:	48 89 85 50 ff ff ff 	mov    %rax,-0xb0(%rbp)
    fb8d:	48 8d 85 98 fb ff ff 	lea    -0x468(%rbp),%rax
    fb94:	48 89 85 58 ff ff ff 	mov    %rax,-0xa8(%rbp)
    fb9b:	48 c7 85 60 ff ff ff 	movq   $0x0,-0xa0(%rbp)
    fba2:	00 00 00 00 
    fba6:	48 8d 85 98 fb ff ff 	lea    -0x468(%rbp),%rax
    fbad:	48 89 85 68 ff ff ff 	mov    %rax,-0x98(%rbp)
    fbb4:	48 8d 85 98 fb ff ff 	lea    -0x468(%rbp),%rax
    fbbb:	48 89 85 70 ff ff ff 	mov    %rax,-0x90(%rbp)
    fbc2:	48 8d 85 98 fb ff ff 	lea    -0x468(%rbp),%rax
    fbc9:	48 89 85 78 ff ff ff 	mov    %rax,-0x88(%rbp)
    fbd0:	48 8d 85 98 fb ff ff 	lea    -0x468(%rbp),%rax
    fbd7:	48 89 45 80          	mov    %rax,-0x80(%rbp)
    fbdb:	48 8d 85 98 fb ff ff 	lea    -0x468(%rbp),%rax
    fbe2:	48 89 45 88          	mov    %rax,-0x78(%rbp)
    fbe6:	48 8d 85 98 fb ff ff 	lea    -0x468(%rbp),%rax
    fbed:	48 89 45 90          	mov    %rax,-0x70(%rbp)
    fbf1:	48 8d 85 98 fb ff ff 	lea    -0x468(%rbp),%rax
    fbf8:	48 89 45 98          	mov    %rax,-0x68(%rbp)
    fbfc:	48 8d 85 98 fb ff ff 	lea    -0x468(%rbp),%rax
    fc03:	48 89 45 a0          	mov    %rax,-0x60(%rbp)
    fc07:	48 8d 85 98 fb ff ff 	lea    -0x468(%rbp),%rax
    fc0e:	48 89 45 a8          	mov    %rax,-0x58(%rbp)
    fc12:	48 8d 85 98 fb ff ff 	lea    -0x468(%rbp),%rax
    fc19:	48 89 45 b0          	mov    %rax,-0x50(%rbp)
    fc1d:	48 8d 85 98 fb ff ff 	lea    -0x468(%rbp),%rax
    fc24:	48 89 45 b8          	mov    %rax,-0x48(%rbp)
    fc28:	48 8d 85 98 fb ff ff 	lea    -0x468(%rbp),%rax
    fc2f:	48 89 45 c0          	mov    %rax,-0x40(%rbp)
    fc33:	48 c7 45 c8 00 00 00 	movq   $0x0,-0x38(%rbp)
    fc3a:	00 
    fc3b:	48 8d 85 98 fb ff ff 	lea    -0x468(%rbp),%rax
    fc42:	48 89 45 d0          	mov    %rax,-0x30(%rbp)
    fc46:	48 c7 45 d8 00 00 00 	movq   $0x0,-0x28(%rbp)
    fc4d:	00 
    fc4e:	48 8d 85 98 fb ff ff 	lea    -0x468(%rbp),%rax
    fc55:	48 89 45 e0          	mov    %rax,-0x20(%rbp)
    fc59:	48 8d 85 98 fb ff ff 	lea    -0x468(%rbp),%rax
    fc60:	48 89 45 e8          	mov    %rax,-0x18(%rbp)
    fc64:	c7 85 90 fb ff ff 07 	movl   $0x7,-0x470(%rbp)
    fc6b:	00 00 00 
    fc6e:	c7 85 70 fd ff ff 36 	movl   $0xf8ed9c36,-0x290(%rbp)
    fc75:	9c ed f8 
    fc78:	c7 85 74 fd ff ff 01 	movl   $0x1,-0x28c(%rbp)
    fc7f:	00 00 00 
    fc82:	c7 85 78 fd ff ff a3 	movl   $0xe0ef65a3,-0x288(%rbp)
    fc89:	65 ef e0 
    fc8c:	c7 85 7c fd ff ff 2d 	movl   $0xa5159c2d,-0x284(%rbp)
    fc93:	9c 15 a5 
    fc96:	c7 85 80 fd ff ff ff 	movl   $0xffffffff,-0x280(%rbp)
    fc9d:	ff ff ff 
    fca0:	c7 85 84 fd ff ff 9e 	movl   $0xae3f1d9e,-0x27c(%rbp)
    fca7:	1d 3f ae 
    fcaa:	c7 85 88 fd ff ff ff 	movl   $0xffffffff,-0x278(%rbp)
    fcb1:	ff ff ff 
    fcb4:	c7 85 8c fd ff ff 4a 	movl   $0x978ed84a,-0x274(%rbp)
    fcbb:	d8 8e 97 
    fcbe:	c7 85 90 fd ff ff ff 	movl   $0xffffffff,-0x270(%rbp)
    fcc5:	ff ff ff 
    fcc8:	c7 85 94 fd ff ff fa 	movl   $0xfffffffa,-0x26c(%rbp)
    fccf:	ff ff ff 
    fcd2:	c7 85 98 fd ff ff 01 	movl   $0x1,-0x268(%rbp)
    fcd9:	00 00 00 
    fcdc:	c7 85 9c fd ff ff 01 	movl   $0x1,-0x264(%rbp)
    fce3:	00 00 00 
    fce6:	c7 85 a0 fd ff ff ff 	movl   $0xffffffff,-0x260(%rbp)
    fced:	ff ff ff 
    fcf0:	c7 85 a4 fd ff ff 36 	movl   $0xf8ed9c36,-0x25c(%rbp)
    fcf7:	9c ed f8 
    fcfa:	c7 85 a8 fd ff ff 36 	movl   $0xf8ed9c36,-0x258(%rbp)
    fd01:	9c ed f8 
    fd04:	c7 85 ac fd ff ff ff 	movl   $0xffffffff,-0x254(%rbp)
    fd0b:	ff ff ff 
    fd0e:	c7 85 b0 fd ff ff ff 	movl   $0xffffffff,-0x250(%rbp)
    fd15:	ff ff ff 
    fd18:	c7 85 b4 fd ff ff 75 	movl   $0xc8ab0275,-0x24c(%rbp)
    fd1f:	02 ab c8 
    fd22:	c7 85 b8 fd ff ff fa 	movl   $0xfffffffa,-0x248(%rbp)
    fd29:	ff ff ff 
    fd2c:	c7 85 bc fd ff ff ff 	movl   $0xffffffff,-0x244(%rbp)
    fd33:	ff ff ff 
    fd36:	c7 85 c0 fd ff ff 4a 	movl   $0x978ed84a,-0x240(%rbp)
    fd3d:	d8 8e 97 
    fd40:	c7 85 c4 fd ff ff ff 	movl   $0xffffffff,-0x23c(%rbp)
    fd47:	ff ff ff 
    fd4a:	c7 85 c8 fd ff ff 04 	movl   $0x4,-0x238(%rbp)
    fd51:	00 00 00 
    fd54:	c7 85 cc fd ff ff 01 	movl   $0x1,-0x234(%rbp)
    fd5b:	00 00 00 
    fd5e:	c7 85 d0 fd ff ff 2d 	movl   $0xa5159c2d,-0x230(%rbp)
    fd65:	9c 15 a5 
    fd68:	c7 85 d4 fd ff ff a3 	movl   $0xe0ef65a3,-0x22c(%rbp)
    fd6f:	65 ef e0 
    fd72:	c7 85 d8 fd ff ff 01 	movl   $0x1,-0x228(%rbp)
    fd79:	00 00 00 
    fd7c:	c7 85 dc fd ff ff 36 	movl   $0xf8ed9c36,-0x224(%rbp)
    fd83:	9c ed f8 
    fd86:	c7 85 e0 fd ff ff 04 	movl   $0x4,-0x220(%rbp)
    fd8d:	00 00 00 
    fd90:	c7 85 e4 fd ff ff fa 	movl   $0xfffffffa,-0x21c(%rbp)
    fd97:	ff ff ff 
    fd9a:	c7 85 e8 fd ff ff 01 	movl   $0x1,-0x218(%rbp)
    fda1:	00 00 00 
    fda4:	c7 85 ec fd ff ff ff 	movl   $0xffffffff,-0x214(%rbp)
    fdab:	ff ff ff 
    fdae:	c7 85 f0 fd ff ff 2d 	movl   $0xa5159c2d,-0x210(%rbp)
    fdb5:	9c 15 a5 
    fdb8:	c7 85 f4 fd ff ff 09 	movl   $0x9,-0x20c(%rbp)
    fdbf:	00 00 00 
    fdc2:	c7 85 f8 fd ff ff ff 	movl   $0xffffffff,-0x208(%rbp)
    fdc9:	ff ff ff 
    fdcc:	c7 85 fc fd ff ff 09 	movl   $0x9,-0x204(%rbp)
    fdd3:	00 00 00 
    fdd6:	c7 85 00 fe ff ff ff 	movl   $0xffffffff,-0x200(%rbp)
    fddd:	ff ff ff 
    fde0:	c7 85 04 fe ff ff 36 	movl   $0xf8ed9c36,-0x1fc(%rbp)
    fde7:	9c ed f8 
    fdea:	c7 85 08 fe ff ff ff 	movl   $0xffffffff,-0x1f8(%rbp)
    fdf1:	ff ff ff 
    fdf4:	c7 85 0c fe ff ff f9 	movl   $0xfffffff9,-0x1f4(%rbp)
    fdfb:	ff ff ff 
    fdfe:	c7 85 10 fe ff ff 01 	movl   $0x1,-0x1f0(%rbp)
    fe05:	00 00 00 
    fe08:	c7 85 14 fe ff ff 04 	movl   $0x4,-0x1ec(%rbp)
    fe0f:	00 00 00 
    fe12:	c7 85 18 fe ff ff 04 	movl   $0x4,-0x1e8(%rbp)
    fe19:	00 00 00 
    fe1c:	c7 85 1c fe ff ff 4a 	movl   $0x978ed84a,-0x1e4(%rbp)
    fe23:	d8 8e 97 
    fe26:	c7 85 20 fe ff ff 01 	movl   $0x1,-0x1e0(%rbp)
    fe2d:	00 00 00 
    fe30:	c7 85 24 fe ff ff 0b 	movl   $0x9346a90b,-0x1dc(%rbp)
    fe37:	a9 46 93 
    fe3a:	c7 85 28 fe ff ff ff 	movl   $0xffffffff,-0x1d8(%rbp)
    fe41:	ff ff ff 
    fe44:	c7 85 2c fe ff ff ff 	movl   $0xffffffff,-0x1d4(%rbp)
    fe4b:	ff ff ff 
    fe4e:	48 c7 85 a0 fb ff ff 	movq   $0x0,-0x460(%rbp)
    fe55:	00 00 00 00 
    fe59:	48 8d 85 a0 fb ff ff 	lea    -0x460(%rbp),%rax
    fe60:	48 89 85 f0 fb ff ff 	mov    %rax,-0x410(%rbp)
    fe67:	c6 85 75 fb ff ff 00 	movb   $0x0,-0x48b(%rbp)
    fe6e:	48 8d 85 40 fc ff ff 	lea    -0x3c0(%rbp),%rax
    fe75:	48 89 85 f8 fb ff ff 	mov    %rax,-0x408(%rbp)
    fe7c:	66 c7 85 78 fb ff ff 	movw   $0x1,-0x488(%rbp)
    fe83:	01 00 
    fe85:	c7 45 f4 67 67 67 67 	movl   $0x67676767,-0xc(%rbp)
    fe8c:	48 8d 05 b5 d4 00 00 	lea    0xd4b5(%rip),%rax        # 1d348 <g_223>
    fe93:	48 89 85 a8 fb ff ff 	mov    %rax,-0x458(%rbp)
    fe9a:	48 8d 85 a8 fb ff ff 	lea    -0x458(%rbp),%rax
    fea1:	48 89 85 b0 fb ff ff 	mov    %rax,-0x450(%rbp)
    fea8:	48 8d 85 b0 fb ff ff 	lea    -0x450(%rbp),%rax
    feaf:	48 89 85 00 fc ff ff 	mov    %rax,-0x400(%rbp)
    feb6:	66 c7 85 e0 fc ff ff 	movw   $0x1,-0x320(%rbp)
    febd:	01 00 
    febf:	66 c7 85 e2 fc ff ff 	movw   $0x1,-0x31e(%rbp)
    fec6:	01 00 
    fec8:	66 c7 85 e4 fc ff ff 	movw   $0xe750,-0x31c(%rbp)
    fecf:	50 e7 
    fed1:	66 c7 85 e6 fc ff ff 	movw   $0xf042,-0x31a(%rbp)
    fed8:	42 f0 
    feda:	66 c7 85 e8 fc ff ff 	movw   $0xffff,-0x318(%rbp)
    fee1:	ff ff 
    fee3:	66 c7 85 ea fc ff ff 	movw   $0xe750,-0x316(%rbp)
    feea:	50 e7 
    feec:	66 c7 85 ec fc ff ff 	movw   $0xf042,-0x314(%rbp)
    fef3:	42 f0 
    fef5:	66 c7 85 ee fc ff ff 	movw   $0xffff,-0x312(%rbp)
    fefc:	ff ff 
    fefe:	66 c7 85 f0 fc ff ff 	movw   $0xe750,-0x310(%rbp)
    ff05:	50 e7 
    ff07:	66 c7 85 f2 fc ff ff 	movw   $0xffff,-0x30e(%rbp)
    ff0e:	ff ff 
    ff10:	66 c7 85 f4 fc ff ff 	movw   $0xf042,-0x30c(%rbp)
    ff17:	42 f0 
    ff19:	66 c7 85 f6 fc ff ff 	movw   $0xe750,-0x30a(%rbp)
    ff20:	50 e7 
    ff22:	66 c7 85 f8 fc ff ff 	movw   $0xffff,-0x308(%rbp)
    ff29:	ff ff 
    ff2b:	66 c7 85 fa fc ff ff 	movw   $0xf042,-0x306(%rbp)
    ff32:	42 f0 
    ff34:	66 c7 85 fc fc ff ff 	movw   $0xe750,-0x304(%rbp)
    ff3b:	50 e7 
    ff3d:	66 c7 85 fe fc ff ff 	movw   $0x1,-0x302(%rbp)
    ff44:	01 00 
    ff46:	66 c7 85 00 fd ff ff 	movw   $0x1,-0x300(%rbp)
    ff4d:	01 00 
    ff4f:	66 c7 85 02 fd ff ff 	movw   $0xe750,-0x2fe(%rbp)
    ff56:	50 e7 
    ff58:	66 c7 85 04 fd ff ff 	movw   $0x1,-0x2fc(%rbp)
    ff5f:	01 00 
    ff61:	66 c7 85 06 fd ff ff 	movw   $0x1,-0x2fa(%rbp)
    ff68:	01 00 
    ff6a:	66 c7 85 08 fd ff ff 	movw   $0xe750,-0x2f8(%rbp)
    ff71:	50 e7 
    ff73:	66 c7 85 0a fd ff ff 	movw   $0xf042,-0x2f6(%rbp)
    ff7a:	42 f0 
    ff7c:	66 c7 85 0c fd ff ff 	movw   $0xffff,-0x2f4(%rbp)
    ff83:	ff ff 
    ff85:	66 c7 85 0e fd ff ff 	movw   $0xe750,-0x2f2(%rbp)
    ff8c:	50 e7 
    ff8e:	66 c7 85 10 fd ff ff 	movw   $0xf042,-0x2f0(%rbp)
    ff95:	42 f0 
    ff97:	66 c7 85 12 fd ff ff 	movw   $0xffff,-0x2ee(%rbp)
    ff9e:	ff ff 
    ffa0:	66 c7 85 14 fd ff ff 	movw   $0xe750,-0x2ec(%rbp)
    ffa7:	50 e7 
    ffa9:	66 c7 85 16 fd ff ff 	movw   $0xffff,-0x2ea(%rbp)
    ffb0:	ff ff 
    ffb2:	66 c7 85 18 fd ff ff 	movw   $0xf042,-0x2e8(%rbp)
    ffb9:	42 f0 
    ffbb:	66 c7 85 1a fd ff ff 	movw   $0xe750,-0x2e6(%rbp)
    ffc2:	50 e7 
    ffc4:	66 c7 85 1c fd ff ff 	movw   $0xffff,-0x2e4(%rbp)
    ffcb:	ff ff 
    ffcd:	66 c7 85 1e fd ff ff 	movw   $0xf042,-0x2e2(%rbp)
    ffd4:	42 f0 
    ffd6:	66 c7 85 20 fd ff ff 	movw   $0xe750,-0x2e0(%rbp)
    ffdd:	50 e7 
    ffdf:	66 c7 85 22 fd ff ff 	movw   $0x1,-0x2de(%rbp)
    ffe6:	01 00 
    ffe8:	66 c7 85 24 fd ff ff 	movw   $0x1,-0x2dc(%rbp)
    ffef:	01 00 
    fff1:	66 c7 85 26 fd ff ff 	movw   $0xe750,-0x2da(%rbp)
    fff8:	50 e7 
    fffa:	66 c7 85 28 fd ff ff 	movw   $0x1,-0x2d8(%rbp)
   10001:	01 00 
   10003:	66 c7 85 2a fd ff ff 	movw   $0x1,-0x2d6(%rbp)
   1000a:	01 00 
   1000c:	66 c7 85 2c fd ff ff 	movw   $0xe750,-0x2d4(%rbp)
   10013:	50 e7 
   10015:	66 c7 85 2e fd ff ff 	movw   $0xf042,-0x2d2(%rbp)
   1001c:	42 f0 
   1001e:	66 c7 85 30 fd ff ff 	movw   $0xffff,-0x2d0(%rbp)
   10025:	ff ff 
   10027:	66 c7 85 32 fd ff ff 	movw   $0xe750,-0x2ce(%rbp)
   1002e:	50 e7 
   10030:	66 c7 85 34 fd ff ff 	movw   $0xf042,-0x2cc(%rbp)
   10037:	42 f0 
   10039:	66 c7 85 36 fd ff ff 	movw   $0xffff,-0x2ca(%rbp)
   10040:	ff ff 
   10042:	66 c7 85 38 fd ff ff 	movw   $0xe750,-0x2c8(%rbp)
   10049:	50 e7 
   1004b:	66 c7 85 3a fd ff ff 	movw   $0xffff,-0x2c6(%rbp)
   10052:	ff ff 
   10054:	66 c7 85 3c fd ff ff 	movw   $0xf042,-0x2c4(%rbp)
   1005b:	42 f0 
   1005d:	66 c7 85 3e fd ff ff 	movw   $0xe750,-0x2c2(%rbp)
   10064:	50 e7 
   10066:	66 c7 85 40 fd ff ff 	movw   $0xffff,-0x2c0(%rbp)
   1006d:	ff ff 
   1006f:	66 c7 85 42 fd ff ff 	movw   $0xf042,-0x2be(%rbp)
   10076:	42 f0 
   10078:	66 c7 85 44 fd ff ff 	movw   $0xe750,-0x2bc(%rbp)
   1007f:	50 e7 
   10081:	66 c7 85 46 fd ff ff 	movw   $0x1,-0x2ba(%rbp)
   10088:	01 00 
   1008a:	66 c7 85 48 fd ff ff 	movw   $0x1,-0x2b8(%rbp)
   10091:	01 00 
   10093:	66 c7 85 4a fd ff ff 	movw   $0xe750,-0x2b6(%rbp)
   1009a:	50 e7 
   1009c:	66 c7 85 4c fd ff ff 	movw   $0x1,-0x2b4(%rbp)
   100a3:	01 00 
   100a5:	66 c7 85 4e fd ff ff 	movw   $0x1,-0x2b2(%rbp)
   100ac:	01 00 
   100ae:	66 c7 85 50 fd ff ff 	movw   $0xe750,-0x2b0(%rbp)
   100b5:	50 e7 
   100b7:	66 c7 85 52 fd ff ff 	movw   $0xf042,-0x2ae(%rbp)
   100be:	42 f0 
   100c0:	66 c7 85 54 fd ff ff 	movw   $0xffff,-0x2ac(%rbp)
   100c7:	ff ff 
   100c9:	66 c7 85 56 fd ff ff 	movw   $0xe750,-0x2aa(%rbp)
   100d0:	50 e7 
   100d2:	66 c7 85 58 fd ff ff 	movw   $0xf042,-0x2a8(%rbp)
   100d9:	42 f0 
   100db:	66 c7 85 5a fd ff ff 	movw   $0xffff,-0x2a6(%rbp)
   100e2:	ff ff 
   100e4:	66 c7 85 5c fd ff ff 	movw   $0xe750,-0x2a4(%rbp)
   100eb:	50 e7 
   100ed:	66 c7 85 5e fd ff ff 	movw   $0xffff,-0x2a2(%rbp)
   100f4:	ff ff 
   100f6:	66 c7 85 60 fd ff ff 	movw   $0xf042,-0x2a0(%rbp)
   100fd:	42 f0 
   100ff:	66 c7 85 62 fd ff ff 	movw   $0xe750,-0x29e(%rbp)
   10106:	50 e7 
   10108:	66 c7 85 64 fd ff ff 	movw   $0xffff,-0x29c(%rbp)
   1010f:	ff ff 
   10111:	66 c7 85 66 fd ff ff 	movw   $0xf042,-0x29a(%rbp)
   10118:	42 f0 
   1011a:	66 c7 85 68 fd ff ff 	movw   $0xe750,-0x298(%rbp)
   10121:	50 e7 
   10123:	66 c7 85 6a fd ff ff 	movw   $0x1,-0x296(%rbp)
   1012a:	01 00 
   1012c:	66 c7 85 6c fd ff ff 	movw   $0x1,-0x294(%rbp)
   10133:	01 00 
   10135:	66 c7 85 6e fd ff ff 	movw   $0xe750,-0x292(%rbp)
   1013c:	50 e7 
   1013e:	c7 85 94 fb ff ff 38 	movl   $0x34496a38,-0x46c(%rbp)
   10145:	6a 49 34 
   10148:	48 b8 4b 97 c7 bd 72 	movabs $0x4eb32072bdc7974b,%rax
   1014f:	20 b3 4e 
   10152:	48 89 85 08 fc ff ff 	mov    %rax,-0x3f8(%rbp)
   10159:	c6 85 73 fb ff ff 6b 	movb   $0x6b,-0x48d(%rbp)
   10160:	48 8d 05 01 18 01 00 	lea    0x11801(%rip),%rax        # 21968 <g_1537>
   10167:	48 89 85 10 fc ff ff 	mov    %rax,-0x3f0(%rbp)
   1016e:	48 8d 05 fb 54 01 00 	lea    0x154fb(%rip),%rax        # 25670 <g_877>
   10175:	48 89 85 18 fc ff ff 	mov    %rax,-0x3e8(%rbp)
   1017c:	48 c7 85 20 fc ff ff 	movq   $0x0,-0x3e0(%rbp)
   10183:	00 00 00 00 
   10187:	48 c7 85 b8 fb ff ff 	movq   $0x0,-0x448(%rbp)
   1018e:	00 00 00 00 
   10192:	48 8d 85 b8 fb ff ff 	lea    -0x448(%rbp),%rax
   10199:	48 89 85 c0 fb ff ff 	mov    %rax,-0x440(%rbp)
   101a0:	48 8d 85 c0 fb ff ff 	lea    -0x440(%rbp),%rax
   101a7:	48 89 85 28 fc ff ff 	mov    %rax,-0x3d8(%rbp)
   101ae:	66 c7 85 7a fb ff ff 	movw   $0xed03,-0x486(%rbp)
   101b5:	03 ed 
   101b7:	48 8d 05 1a cf 00 00 	lea    0xcf1a(%rip),%rax        # 1d0d8 <g_86+0x98>
   101be:	48 89 85 c8 fb ff ff 	mov    %rax,-0x438(%rbp)
   101c5:	48 8d 85 c8 fb ff ff 	lea    -0x438(%rbp),%rax
   101cc:	48 89 85 d0 fb ff ff 	mov    %rax,-0x430(%rbp)
   101d3:	48 8d 85 d0 fb ff ff 	lea    -0x430(%rbp),%rax
   101da:	48 89 85 30 fc ff ff 	mov    %rax,-0x3d0(%rbp)
   101e1:	48 8d 85 73 fb ff ff 	lea    -0x48d(%rbp),%rax
   101e8:	48 89 85 38 fc ff ff 	mov    %rax,-0x3c8(%rbp)
   101ef:	c7 85 7c fb ff ff 00 	movl   $0x0,-0x484(%rbp)
   101f6:	00 00 00 
   101f9:	eb 1b                	jmp    10216 <func_40+0xa2f>
   101fb:	8b 85 7c fb ff ff    	mov    -0x484(%rbp),%eax
   10201:	48 98                	cltq   
   10203:	48 c7 84 c5 40 fc ff 	movq   $0x0,-0x3c0(%rbp,%rax,8)
   1020a:	ff 00 00 00 00 
   1020f:	83 85 7c fb ff ff 01 	addl   $0x1,-0x484(%rbp)
   10216:	83 bd 7c fb ff ff 01 	cmpl   $0x1,-0x484(%rbp)
   1021d:	7e dc                	jle    101fb <func_40+0xa14>
   1021f:	c7 85 7c fb ff ff 00 	movl   $0x0,-0x484(%rbp)
   10226:	00 00 00 
   10229:	eb 1e                	jmp    10249 <func_40+0xa62>
   1022b:	8b 85 7c fb ff ff    	mov    -0x484(%rbp),%eax
   10231:	48 98                	cltq   
   10233:	48 8d 15 26 17 01 00 	lea    0x11726(%rip),%rdx        # 21960 <g_1535>
   1023a:	48 89 94 c5 50 fc ff 	mov    %rdx,-0x3b0(%rbp,%rax,8)
   10241:	ff 
   10242:	83 85 7c fb ff ff 01 	addl   $0x1,-0x484(%rbp)
   10249:	83 bd 7c fb ff ff 01 	cmpl   $0x1,-0x484(%rbp)
   10250:	7e d9                	jle    1022b <func_40+0xa44>
   10252:	c7 85 7c fb ff ff 00 	movl   $0x0,-0x484(%rbp)
   10259:	00 00 00 
   1025c:	eb 1f                	jmp    1027d <func_40+0xa96>
   1025e:	8b 85 7c fb ff ff    	mov    -0x484(%rbp),%eax
   10264:	48 98                	cltq   
   10266:	48 8d 55 f4          	lea    -0xc(%rbp),%rdx
   1026a:	48 83 c2 03          	add    $0x3,%rdx
   1026e:	48 89 94 c5 60 fc ff 	mov    %rdx,-0x3a0(%rbp,%rax,8)
   10275:	ff 
   10276:	83 85 7c fb ff ff 01 	addl   $0x1,-0x484(%rbp)
   1027d:	83 bd 7c fb ff ff 04 	cmpl   $0x4,-0x484(%rbp)
   10284:	7e d8                	jle    1025e <func_40+0xa77>
   10286:	be 03 00 00 00       	mov    $0x3,%esi
   1028b:	bf 13 00 00 00       	mov    $0x13,%edi
   10290:	e8 d7 80 ff ff       	callq  836c <safe_rshift_func_int8_t_s_u>
   10295:	48 8d 15 58 d1 00 00 	lea    0xd158(%rip),%rdx        # 1d3f4 <g_500+0x4>
   1029c:	0f be c0             	movsbl %al,%eax
   1029f:	89 02                	mov    %eax,(%rdx)
   102a1:	48 8b 05 d8 2e 01 00 	mov    0x12ed8(%rip),%rax        # 23180 <g_638>
   102a8:	48 8b 00             	mov    (%rax),%rax
   102ab:	48 8b 00             	mov    (%rax),%rax
   102ae:	48 8b 4d f8          	mov    -0x8(%rbp),%rcx
   102b2:	64 48 33 0c 25 28 00 	xor    %fs:0x28,%rcx
   102b9:	00 00 
   102bb:	74 05                	je     102c2 <func_40+0xadb>
   102bd:	e8 ae 7d ff ff       	callq  8070 <__stack_chk_fail@plt>
   102c2:	c9                   	leaveq 
   102c3:	c3                   	retq   

00000000000102c4 <func_46>:
   102c4:	f3 0f 1e fa          	endbr64 
   102c8:	55                   	push   %rbp
   102c9:	48 89 e5             	mov    %rsp,%rbp
   102cc:	41 57                	push   %r15
   102ce:	41 56                	push   %r14
   102d0:	41 55                	push   %r13
   102d2:	41 54                	push   %r12
   102d4:	53                   	push   %rbx
   102d5:	48 81 ec c8 09 00 00 	sub    $0x9c8,%rsp
   102dc:	48 89 bd 48 f6 ff ff 	mov    %rdi,-0x9b8(%rbp)
   102e3:	89 b5 44 f6 ff ff    	mov    %esi,-0x9bc(%rbp)
   102e9:	48 89 8d 38 f6 ff ff 	mov    %rcx,-0x9c8(%rbp)
   102f0:	44 89 c0             	mov    %r8d,%eax
   102f3:	88 95 40 f6 ff ff    	mov    %dl,-0x9c0(%rbp)
   102f9:	66 89 85 34 f6 ff ff 	mov    %ax,-0x9cc(%rbp)
   10300:	64 48 8b 04 25 28 00 	mov    %fs:0x28,%rax
   10307:	00 00 
   10309:	48 89 45 c8          	mov    %rax,-0x38(%rbp)
   1030d:	31 c0                	xor    %eax,%eax
   1030f:	48 8d 05 6a d0 00 00 	lea    0xd06a(%rip),%rax        # 1d380 <g_474>
   10316:	48 89 85 68 f6 ff ff 	mov    %rax,-0x998(%rbp)
   1031d:	48 8d 85 68 f6 ff ff 	lea    -0x998(%rbp),%rax
   10324:	48 89 85 80 f6 ff ff 	mov    %rax,-0x980(%rbp)
   1032b:	c7 85 58 f6 ff ff 04 	movl   $0x4,-0x9a8(%rbp)
   10332:	00 00 00 
   10335:	48 c7 85 88 f6 ff ff 	movq   $0x0,-0x978(%rbp)
   1033c:	00 00 00 00 
   10340:	48 8d 05 31 d0 00 00 	lea    0xd031(%rip),%rax        # 1d378 <g_440>
   10347:	48 89 85 90 f6 ff ff 	mov    %rax,-0x970(%rbp)
   1034e:	48 8d 05 93 cf 00 00 	lea    0xcf93(%rip),%rax        # 1d2e8 <g_122>
   10355:	48 89 85 98 f6 ff ff 	mov    %rax,-0x968(%rbp)
   1035c:	48 8d 05 c7 cc 00 00 	lea    0xccc7(%rip),%rax        # 1d02a <g_29+0x2>
   10363:	48 89 85 a0 f6 ff ff 	mov    %rax,-0x960(%rbp)
   1036a:	48 8d 05 ff cf 00 00 	lea    0xcfff(%rip),%rax        # 1d370 <g_434>
   10371:	48 89 85 a8 f6 ff ff 	mov    %rax,-0x958(%rbp)
   10378:	c7 85 f0 f6 ff ff 0f 	movl   $0xcfe1940f,-0x910(%rbp)
   1037f:	94 e1 cf 
   10382:	c7 85 f4 f6 ff ff 0f 	movl   $0xcfe1940f,-0x90c(%rbp)
   10389:	94 e1 cf 
   1038c:	c7 85 f8 f6 ff ff 0f 	movl   $0xcfe1940f,-0x908(%rbp)
   10393:	94 e1 cf 
   10396:	c7 85 fc f6 ff ff 0f 	movl   $0xcfe1940f,-0x904(%rbp)
   1039d:	94 e1 cf 
   103a0:	c7 85 00 f7 ff ff 0f 	movl   $0xcfe1940f,-0x900(%rbp)
   103a7:	94 e1 cf 
   103aa:	c7 85 04 f7 ff ff 0f 	movl   $0xcfe1940f,-0x8fc(%rbp)
   103b1:	94 e1 cf 
   103b4:	c7 85 08 f7 ff ff 0f 	movl   $0xcfe1940f,-0x8f8(%rbp)
   103bb:	94 e1 cf 
   103be:	c7 85 0c f7 ff ff 0f 	movl   $0xcfe1940f,-0x8f4(%rbp)
   103c5:	94 e1 cf 
   103c8:	c6 85 57 f6 ff ff 8f 	movb   $0x8f,-0x9a9(%rbp)
   103cf:	48 c7 85 b0 f6 ff ff 	movq   $0x0,-0x950(%rbp)
   103d6:	00 00 00 00 
   103da:	48 c7 85 b8 f6 ff ff 	movq   $0x0,-0x948(%rbp)
   103e1:	00 00 00 00 
   103e5:	48 8d 05 08 d0 00 00 	lea    0xd008(%rip),%rax        # 1d3f4 <g_500+0x4>
   103ec:	48 89 85 c0 f6 ff ff 	mov    %rax,-0x940(%rbp)
   103f3:	48 8d 05 3a cc 00 00 	lea    0xcc3a(%rip),%rax        # 1d034 <g_31>
   103fa:	48 89 85 20 f8 ff ff 	mov    %rax,-0x7e0(%rbp)
   10401:	48 c7 85 28 f8 ff ff 	movq   $0x0,-0x7d8(%rbp)
   10408:	00 00 00 00 
   1040c:	48 8d 05 e1 cf 00 00 	lea    0xcfe1(%rip),%rax        # 1d3f4 <g_500+0x4>
   10413:	48 89 85 30 f8 ff ff 	mov    %rax,-0x7d0(%rbp)
   1041a:	48 8d 05 13 cc 00 00 	lea    0xcc13(%rip),%rax        # 1d034 <g_31>
   10421:	48 89 85 38 f8 ff ff 	mov    %rax,-0x7c8(%rbp)
   10428:	48 c7 85 40 f8 ff ff 	movq   $0x0,-0x7c0(%rbp)
   1042f:	00 00 00 00 
   10433:	48 c7 85 48 f8 ff ff 	movq   $0x0,-0x7b8(%rbp)
   1043a:	00 00 00 00 
   1043e:	48 c7 85 50 f8 ff ff 	movq   $0x0,-0x7b0(%rbp)
   10445:	00 00 00 00 
   10449:	48 c7 85 58 f8 ff ff 	movq   $0x0,-0x7a8(%rbp)
   10450:	00 00 00 00 
   10454:	48 8d 05 e1 cb 00 00 	lea    0xcbe1(%rip),%rax        # 1d03c <g_67>
   1045b:	48 89 85 60 f8 ff ff 	mov    %rax,-0x7a0(%rbp)
   10462:	48 8d 85 58 f6 ff ff 	lea    -0x9a8(%rbp),%rax
   10469:	48 89 85 68 f8 ff ff 	mov    %rax,-0x798(%rbp)
   10470:	48 8d 85 f0 f6 ff ff 	lea    -0x910(%rbp),%rax
   10477:	48 83 c0 1c          	add    $0x1c,%rax
   1047b:	48 89 85 70 f8 ff ff 	mov    %rax,-0x790(%rbp)
   10482:	48 c7 85 78 f8 ff ff 	movq   $0x0,-0x788(%rbp)
   10489:	00 00 00 00 
   1048d:	48 8d 05 50 ce 00 00 	lea    0xce50(%rip),%rax        # 1d2e4 <g_108>
   10494:	48 89 85 80 f8 ff ff 	mov    %rax,-0x780(%rbp)
   1049b:	48 c7 85 88 f8 ff ff 	movq   $0x0,-0x778(%rbp)
   104a2:	00 00 00 00 
   104a6:	48 c7 85 90 f8 ff ff 	movq   $0x0,-0x770(%rbp)
   104ad:	00 00 00 00 
   104b1:	48 8d 05 84 cb 00 00 	lea    0xcb84(%rip),%rax        # 1d03c <g_67>
   104b8:	48 89 85 98 f8 ff ff 	mov    %rax,-0x768(%rbp)
   104bf:	48 c7 85 a0 f8 ff ff 	movq   $0x0,-0x760(%rbp)
   104c6:	00 00 00 00 
   104ca:	48 8d 85 58 f6 ff ff 	lea    -0x9a8(%rbp),%rax
   104d1:	48 89 85 a8 f8 ff ff 	mov    %rax,-0x758(%rbp)
   104d8:	48 8d 85 58 f6 ff ff 	lea    -0x9a8(%rbp),%rax
   104df:	48 89 85 b0 f8 ff ff 	mov    %rax,-0x750(%rbp)
   104e6:	48 8d 05 07 cf 00 00 	lea    0xcf07(%rip),%rax        # 1d3f4 <g_500+0x4>
   104ed:	48 89 85 b8 f8 ff ff 	mov    %rax,-0x748(%rbp)
   104f4:	48 8d 85 f0 f6 ff ff 	lea    -0x910(%rbp),%rax
   104fb:	48 83 c0 08          	add    $0x8,%rax
   104ff:	48 89 85 c0 f8 ff ff 	mov    %rax,-0x740(%rbp)
   10506:	48 8d 85 58 f6 ff ff 	lea    -0x9a8(%rbp),%rax
   1050d:	48 89 85 c8 f8 ff ff 	mov    %rax,-0x738(%rbp)
   10514:	48 8d 85 f0 f6 ff ff 	lea    -0x910(%rbp),%rax
   1051b:	48 83 c0 0c          	add    $0xc,%rax
   1051f:	48 89 85 d0 f8 ff ff 	mov    %rax,-0x730(%rbp)
   10526:	48 8d 85 f0 f6 ff ff 	lea    -0x910(%rbp),%rax
   1052d:	48 83 c0 10          	add    $0x10,%rax
   10531:	48 89 85 d8 f8 ff ff 	mov    %rax,-0x728(%rbp)
   10538:	48 c7 85 e0 f8 ff ff 	movq   $0x0,-0x720(%rbp)
   1053f:	00 00 00 00 
   10543:	48 8d 05 9a cd 00 00 	lea    0xcd9a(%rip),%rax        # 1d2e4 <g_108>
   1054a:	48 89 85 e8 f8 ff ff 	mov    %rax,-0x718(%rbp)
   10551:	48 8d 05 9c ce 00 00 	lea    0xce9c(%rip),%rax        # 1d3f4 <g_500+0x4>
   10558:	48 89 85 f0 f8 ff ff 	mov    %rax,-0x710(%rbp)
   1055f:	48 8d 05 8e ce 00 00 	lea    0xce8e(%rip),%rax        # 1d3f4 <g_500+0x4>
   10566:	48 89 85 f8 f8 ff ff 	mov    %rax,-0x708(%rbp)
   1056d:	48 8d 85 58 f6 ff ff 	lea    -0x9a8(%rbp),%rax
   10574:	48 89 85 00 f9 ff ff 	mov    %rax,-0x700(%rbp)
   1057b:	48 8d 85 f0 f6 ff ff 	lea    -0x910(%rbp),%rax
   10582:	48 83 c0 1c          	add    $0x1c,%rax
   10586:	48 89 85 08 f9 ff ff 	mov    %rax,-0x6f8(%rbp)
   1058d:	48 8d 85 f0 f6 ff ff 	lea    -0x910(%rbp),%rax
   10594:	48 83 c0 08          	add    $0x8,%rax
   10598:	48 89 85 10 f9 ff ff 	mov    %rax,-0x6f0(%rbp)
   1059f:	48 8d 85 58 f6 ff ff 	lea    -0x9a8(%rbp),%rax
   105a6:	48 89 85 18 f9 ff ff 	mov    %rax,-0x6e8(%rbp)
   105ad:	48 c7 85 20 f9 ff ff 	movq   $0x0,-0x6e0(%rbp)
   105b4:	00 00 00 00 
   105b8:	48 8d 05 35 ce 00 00 	lea    0xce35(%rip),%rax        # 1d3f4 <g_500+0x4>
   105bf:	48 89 85 28 f9 ff ff 	mov    %rax,-0x6d8(%rbp)
   105c6:	48 c7 85 30 f9 ff ff 	movq   $0x0,-0x6d0(%rbp)
   105cd:	00 00 00 00 
   105d1:	48 8d 05 0c cd 00 00 	lea    0xcd0c(%rip),%rax        # 1d2e4 <g_108>
   105d8:	48 89 85 38 f9 ff ff 	mov    %rax,-0x6c8(%rbp)
   105df:	48 8d 85 f0 f6 ff ff 	lea    -0x910(%rbp),%rax
   105e6:	48 83 c0 10          	add    $0x10,%rax
   105ea:	48 89 85 40 f9 ff ff 	mov    %rax,-0x6c0(%rbp)
   105f1:	48 8d 85 f0 f6 ff ff 	lea    -0x910(%rbp),%rax
   105f8:	48 83 c0 18          	add    $0x18,%rax
   105fc:	48 89 85 48 f9 ff ff 	mov    %rax,-0x6b8(%rbp)
   10603:	48 8d 85 f0 f6 ff ff 	lea    -0x910(%rbp),%rax
   1060a:	48 83 c0 0c          	add    $0xc,%rax
   1060e:	48 89 85 50 f9 ff ff 	mov    %rax,-0x6b0(%rbp)
   10615:	48 8d 05 d8 cd 00 00 	lea    0xcdd8(%rip),%rax        # 1d3f4 <g_500+0x4>
   1061c:	48 89 85 58 f9 ff ff 	mov    %rax,-0x6a8(%rbp)
   10623:	48 8d 05 ca cd 00 00 	lea    0xcdca(%rip),%rax        # 1d3f4 <g_500+0x4>
   1062a:	48 89 85 60 f9 ff ff 	mov    %rax,-0x6a0(%rbp)
   10631:	48 8d 85 f0 f6 ff ff 	lea    -0x910(%rbp),%rax
   10638:	48 83 c0 10          	add    $0x10,%rax
   1063c:	48 89 85 68 f9 ff ff 	mov    %rax,-0x698(%rbp)
   10643:	48 8d 85 f0 f6 ff ff 	lea    -0x910(%rbp),%rax
   1064a:	48 83 c0 0c          	add    $0xc,%rax
   1064e:	48 89 85 70 f9 ff ff 	mov    %rax,-0x690(%rbp)
   10655:	48 c7 85 78 f9 ff ff 	movq   $0x0,-0x688(%rbp)
   1065c:	00 00 00 00 
   10660:	48 8d 05 d5 c9 00 00 	lea    0xc9d5(%rip),%rax        # 1d03c <g_67>
   10667:	48 89 85 80 f9 ff ff 	mov    %rax,-0x680(%rbp)
   1066e:	48 8d 85 f0 f6 ff ff 	lea    -0x910(%rbp),%rax
   10675:	48 83 c0 0c          	add    $0xc,%rax
   10679:	48 89 85 88 f9 ff ff 	mov    %rax,-0x678(%rbp)
   10680:	48 c7 85 90 f9 ff ff 	movq   $0x0,-0x670(%rbp)
   10687:	00 00 00 00 
   1068b:	48 8d 05 52 cc 00 00 	lea    0xcc52(%rip),%rax        # 1d2e4 <g_108>
   10692:	48 89 85 98 f9 ff ff 	mov    %rax,-0x668(%rbp)
   10699:	48 8d 05 9c c9 00 00 	lea    0xc99c(%rip),%rax        # 1d03c <g_67>
   106a0:	48 89 85 a0 f9 ff ff 	mov    %rax,-0x660(%rbp)
   106a7:	48 8d 85 f0 f6 ff ff 	lea    -0x910(%rbp),%rax
   106ae:	48 83 c0 0c          	add    $0xc,%rax
   106b2:	48 89 85 a8 f9 ff ff 	mov    %rax,-0x658(%rbp)
   106b9:	48 c7 85 b0 f9 ff ff 	movq   $0x0,-0x650(%rbp)
   106c0:	00 00 00 00 
   106c4:	48 c7 85 b8 f9 ff ff 	movq   $0x0,-0x648(%rbp)
   106cb:	00 00 00 00 
   106cf:	48 8d 05 1e cd 00 00 	lea    0xcd1e(%rip),%rax        # 1d3f4 <g_500+0x4>
   106d6:	48 89 85 c0 f9 ff ff 	mov    %rax,-0x640(%rbp)
   106dd:	48 8d 05 00 cc 00 00 	lea    0xcc00(%rip),%rax        # 1d2e4 <g_108>
   106e4:	48 89 85 c8 f9 ff ff 	mov    %rax,-0x638(%rbp)
   106eb:	48 c7 85 d0 f9 ff ff 	movq   $0x0,-0x630(%rbp)
   106f2:	00 00 00 00 
   106f6:	48 c7 85 d8 f9 ff ff 	movq   $0x0,-0x628(%rbp)
   106fd:	00 00 00 00 
   10701:	48 8d 85 58 f6 ff ff 	lea    -0x9a8(%rbp),%rax
   10708:	48 89 85 e0 f9 ff ff 	mov    %rax,-0x620(%rbp)
   1070f:	48 8d 05 de cc 00 00 	lea    0xccde(%rip),%rax        # 1d3f4 <g_500+0x4>
   10716:	48 89 85 e8 f9 ff ff 	mov    %rax,-0x618(%rbp)
   1071d:	48 8d 85 f0 f6 ff ff 	lea    -0x910(%rbp),%rax
   10724:	48 89 85 f0 f9 ff ff 	mov    %rax,-0x610(%rbp)
   1072b:	48 8d 05 b2 cb 00 00 	lea    0xcbb2(%rip),%rax        # 1d2e4 <g_108>
   10732:	48 89 85 f8 f9 ff ff 	mov    %rax,-0x608(%rbp)
   10739:	48 8d 85 f0 f6 ff ff 	lea    -0x910(%rbp),%rax
   10740:	48 83 c0 0c          	add    $0xc,%rax
   10744:	48 89 85 00 fa ff ff 	mov    %rax,-0x600(%rbp)
   1074b:	48 8d 85 f0 f6 ff ff 	lea    -0x910(%rbp),%rax
   10752:	48 83 c0 0c          	add    $0xc,%rax
   10756:	48 89 85 08 fa ff ff 	mov    %rax,-0x5f8(%rbp)
   1075d:	48 8d 05 d8 c8 00 00 	lea    0xc8d8(%rip),%rax        # 1d03c <g_67>
   10764:	48 89 85 10 fa ff ff 	mov    %rax,-0x5f0(%rbp)
   1076b:	48 8d 05 86 cc 00 00 	lea    0xcc86(%rip),%rax        # 1d3f8 <g_500+0x8>
   10772:	48 89 85 18 fa ff ff 	mov    %rax,-0x5e8(%rbp)
   10779:	48 8d 85 f0 f6 ff ff 	lea    -0x910(%rbp),%rax
   10780:	48 83 c0 18          	add    $0x18,%rax
   10784:	48 89 85 20 fa ff ff 	mov    %rax,-0x5e0(%rbp)
   1078b:	48 8d 85 f0 f6 ff ff 	lea    -0x910(%rbp),%rax
   10792:	48 83 c0 0c          	add    $0xc,%rax
   10796:	48 89 85 28 fa ff ff 	mov    %rax,-0x5d8(%rbp)
   1079d:	48 c7 85 30 fa ff ff 	movq   $0x0,-0x5d0(%rbp)
   107a4:	00 00 00 00 
   107a8:	48 c7 85 38 fa ff ff 	movq   $0x0,-0x5c8(%rbp)
   107af:	00 00 00 00 
   107b3:	48 8d 85 f0 f6 ff ff 	lea    -0x910(%rbp),%rax
   107ba:	48 83 c0 0c          	add    $0xc,%rax
   107be:	48 89 85 40 fa ff ff 	mov    %rax,-0x5c0(%rbp)
   107c5:	48 8d 85 f0 f6 ff ff 	lea    -0x910(%rbp),%rax
   107cc:	48 83 c0 18          	add    $0x18,%rax
   107d0:	48 89 85 48 fa ff ff 	mov    %rax,-0x5b8(%rbp)
   107d7:	48 c7 85 50 fa ff ff 	movq   $0x0,-0x5b0(%rbp)
   107de:	00 00 00 00 
   107e2:	48 8d 85 58 f6 ff ff 	lea    -0x9a8(%rbp),%rax
   107e9:	48 89 85 58 fa ff ff 	mov    %rax,-0x5a8(%rbp)
   107f0:	48 8d 05 3d c8 00 00 	lea    0xc83d(%rip),%rax        # 1d034 <g_31>
   107f7:	48 89 85 60 fa ff ff 	mov    %rax,-0x5a0(%rbp)
   107fe:	48 8d 05 df ca 00 00 	lea    0xcadf(%rip),%rax        # 1d2e4 <g_108>
   10805:	48 89 85 68 fa ff ff 	mov    %rax,-0x598(%rbp)
   1080c:	48 8d 05 e5 cb 00 00 	lea    0xcbe5(%rip),%rax        # 1d3f8 <g_500+0x8>
   10813:	48 89 85 70 fa ff ff 	mov    %rax,-0x590(%rbp)
   1081a:	48 8d 05 1b c8 00 00 	lea    0xc81b(%rip),%rax        # 1d03c <g_67>
   10821:	48 89 85 78 fa ff ff 	mov    %rax,-0x588(%rbp)
   10828:	48 8d 85 58 f6 ff ff 	lea    -0x9a8(%rbp),%rax
   1082f:	48 89 85 80 fa ff ff 	mov    %rax,-0x580(%rbp)
   10836:	48 c7 85 88 fa ff ff 	movq   $0x0,-0x578(%rbp)
   1083d:	00 00 00 00 
   10841:	48 8d 85 f0 f6 ff ff 	lea    -0x910(%rbp),%rax
   10848:	48 83 c0 0c          	add    $0xc,%rax
   1084c:	48 89 85 90 fa ff ff 	mov    %rax,-0x570(%rbp)
   10853:	48 8d 05 9a cb 00 00 	lea    0xcb9a(%rip),%rax        # 1d3f4 <g_500+0x4>
   1085a:	48 89 85 98 fa ff ff 	mov    %rax,-0x568(%rbp)
   10861:	48 8d 05 d4 c7 00 00 	lea    0xc7d4(%rip),%rax        # 1d03c <g_67>
   10868:	48 89 85 a0 fa ff ff 	mov    %rax,-0x560(%rbp)
   1086f:	48 8d 85 f0 f6 ff ff 	lea    -0x910(%rbp),%rax
   10876:	48 83 c0 1c          	add    $0x1c,%rax
   1087a:	48 89 85 a8 fa ff ff 	mov    %rax,-0x558(%rbp)
   10881:	48 8d 05 6c cb 00 00 	lea    0xcb6c(%rip),%rax        # 1d3f4 <g_500+0x4>
   10888:	48 89 85 b0 fa ff ff 	mov    %rax,-0x550(%rbp)
   1088f:	48 8d 85 58 f6 ff ff 	lea    -0x9a8(%rbp),%rax
   10896:	48 89 85 b8 fa ff ff 	mov    %rax,-0x548(%rbp)
   1089d:	48 c7 85 c0 fa ff ff 	movq   $0x0,-0x540(%rbp)
   108a4:	00 00 00 00 
   108a8:	48 8d 85 58 f6 ff ff 	lea    -0x9a8(%rbp),%rax
   108af:	48 89 85 c8 fa ff ff 	mov    %rax,-0x538(%rbp)
   108b6:	48 8d 05 27 ca 00 00 	lea    0xca27(%rip),%rax        # 1d2e4 <g_108>
   108bd:	48 89 85 d0 fa ff ff 	mov    %rax,-0x530(%rbp)
   108c4:	48 8d 05 19 ca 00 00 	lea    0xca19(%rip),%rax        # 1d2e4 <g_108>
   108cb:	48 89 85 d8 fa ff ff 	mov    %rax,-0x528(%rbp)
   108d2:	48 8d 05 1f cb 00 00 	lea    0xcb1f(%rip),%rax        # 1d3f8 <g_500+0x8>
   108d9:	48 89 85 e0 fa ff ff 	mov    %rax,-0x520(%rbp)
   108e0:	48 8d 05 55 c7 00 00 	lea    0xc755(%rip),%rax        # 1d03c <g_67>
   108e7:	48 89 85 e8 fa ff ff 	mov    %rax,-0x518(%rbp)
   108ee:	48 8d 05 47 c7 00 00 	lea    0xc747(%rip),%rax        # 1d03c <g_67>
   108f5:	48 89 85 f0 fa ff ff 	mov    %rax,-0x510(%rbp)
   108fc:	48 8d 85 f0 f6 ff ff 	lea    -0x910(%rbp),%rax
   10903:	48 83 c0 1c          	add    $0x1c,%rax
   10907:	48 89 85 f8 fa ff ff 	mov    %rax,-0x508(%rbp)
   1090e:	48 8d 85 58 f6 ff ff 	lea    -0x9a8(%rbp),%rax
   10915:	48 89 85 00 fb ff ff 	mov    %rax,-0x500(%rbp)
   1091c:	48 8d 05 d1 ca 00 00 	lea    0xcad1(%rip),%rax        # 1d3f4 <g_500+0x4>
   10923:	48 89 85 08 fb ff ff 	mov    %rax,-0x4f8(%rbp)
   1092a:	48 c7 85 10 fb ff ff 	movq   $0x0,-0x4f0(%rbp)
   10931:	00 00 00 00 
   10935:	48 8d 85 f0 f6 ff ff 	lea    -0x910(%rbp),%rax
   1093c:	48 83 c0 0c          	add    $0xc,%rax
   10940:	48 89 85 18 fb ff ff 	mov    %rax,-0x4e8(%rbp)
   10947:	48 8d 85 58 f6 ff ff 	lea    -0x9a8(%rbp),%rax
   1094e:	48 89 85 20 fb ff ff 	mov    %rax,-0x4e0(%rbp)
   10955:	48 8d 85 58 f6 ff ff 	lea    -0x9a8(%rbp),%rax
   1095c:	48 89 85 28 fb ff ff 	mov    %rax,-0x4d8(%rbp)
   10963:	48 8d 05 8e ca 00 00 	lea    0xca8e(%rip),%rax        # 1d3f8 <g_500+0x8>
   1096a:	48 89 85 30 fb ff ff 	mov    %rax,-0x4d0(%rbp)
   10971:	48 8d 85 58 f6 ff ff 	lea    -0x9a8(%rbp),%rax
   10978:	48 89 85 38 fb ff ff 	mov    %rax,-0x4c8(%rbp)
   1097f:	48 c7 85 40 fb ff ff 	movq   $0x0,-0x4c0(%rbp)
   10986:	00 00 00 00 
   1098a:	48 8d 05 53 c9 00 00 	lea    0xc953(%rip),%rax        # 1d2e4 <g_108>
   10991:	48 89 85 48 fb ff ff 	mov    %rax,-0x4b8(%rbp)
   10998:	48 8d 85 f0 f6 ff ff 	lea    -0x910(%rbp),%rax
   1099f:	48 83 c0 18          	add    $0x18,%rax
   109a3:	48 89 85 50 fb ff ff 	mov    %rax,-0x4b0(%rbp)
   109aa:	48 c7 85 58 fb ff ff 	movq   $0x0,-0x4a8(%rbp)
   109b1:	00 00 00 00 
   109b5:	48 8d 85 f0 f6 ff ff 	lea    -0x910(%rbp),%rax
   109bc:	48 83 c0 0c          	add    $0xc,%rax
   109c0:	48 89 85 60 fb ff ff 	mov    %rax,-0x4a0(%rbp)
   109c7:	48 8d 85 f0 f6 ff ff 	lea    -0x910(%rbp),%rax
   109ce:	48 83 c0 08          	add    $0x8,%rax
   109d2:	48 89 85 68 fb ff ff 	mov    %rax,-0x498(%rbp)
   109d9:	48 8d 05 04 c9 00 00 	lea    0xc904(%rip),%rax        # 1d2e4 <g_108>
   109e0:	48 89 85 70 fb ff ff 	mov    %rax,-0x490(%rbp)
   109e7:	48 c7 85 78 fb ff ff 	movq   $0x0,-0x488(%rbp)
   109ee:	00 00 00 00 
   109f2:	48 8d 05 fb c9 00 00 	lea    0xc9fb(%rip),%rax        # 1d3f4 <g_500+0x4>
   109f9:	48 89 85 80 fb ff ff 	mov    %rax,-0x480(%rbp)
   10a00:	48 8d 05 ed c9 00 00 	lea    0xc9ed(%rip),%rax        # 1d3f4 <g_500+0x4>
   10a07:	48 89 85 88 fb ff ff 	mov    %rax,-0x478(%rbp)
   10a0e:	48 8d 85 f0 f6 ff ff 	lea    -0x910(%rbp),%rax
   10a15:	48 83 c0 0c          	add    $0xc,%rax
   10a19:	48 89 85 90 fb ff ff 	mov    %rax,-0x470(%rbp)
   10a20:	48 8d 85 f0 f6 ff ff 	lea    -0x910(%rbp),%rax
   10a27:	48 83 c0 0c          	add    $0xc,%rax
   10a2b:	48 89 85 98 fb ff ff 	mov    %rax,-0x468(%rbp)
   10a32:	48 c7 85 a0 fb ff ff 	movq   $0x0,-0x460(%rbp)
   10a39:	00 00 00 00 
   10a3d:	48 c7 85 a8 fb ff ff 	movq   $0x0,-0x458(%rbp)
   10a44:	00 00 00 00 
   10a48:	48 8d 05 ed c5 00 00 	lea    0xc5ed(%rip),%rax        # 1d03c <g_67>
   10a4f:	48 89 85 b0 fb ff ff 	mov    %rax,-0x450(%rbp)
   10a56:	48 8d 85 f0 f6 ff ff 	lea    -0x910(%rbp),%rax
   10a5d:	48 83 c0 0c          	add    $0xc,%rax
   10a61:	48 89 85 b8 fb ff ff 	mov    %rax,-0x448(%rbp)
   10a68:	48 8d 85 58 f6 ff ff 	lea    -0x9a8(%rbp),%rax
   10a6f:	48 89 85 c0 fb ff ff 	mov    %rax,-0x440(%rbp)
   10a76:	48 8d 05 67 c8 00 00 	lea    0xc867(%rip),%rax        # 1d2e4 <g_108>
   10a7d:	48 89 85 c8 fb ff ff 	mov    %rax,-0x438(%rbp)
   10a84:	48 c7 85 d0 fb ff ff 	movq   $0x0,-0x430(%rbp)
   10a8b:	00 00 00 00 
   10a8f:	48 8d 85 f0 f6 ff ff 	lea    -0x910(%rbp),%rax
   10a96:	48 83 c0 0c          	add    $0xc,%rax
   10a9a:	48 89 85 d8 fb ff ff 	mov    %rax,-0x428(%rbp)
   10aa1:	48 8d 05 3c c8 00 00 	lea    0xc83c(%rip),%rax        # 1d2e4 <g_108>
   10aa8:	48 89 85 e0 fb ff ff 	mov    %rax,-0x420(%rbp)
   10aaf:	48 8d 05 3e c9 00 00 	lea    0xc93e(%rip),%rax        # 1d3f4 <g_500+0x4>
   10ab6:	48 89 85 e8 fb ff ff 	mov    %rax,-0x418(%rbp)
   10abd:	48 8d 85 f0 f6 ff ff 	lea    -0x910(%rbp),%rax
   10ac4:	48 83 c0 0c          	add    $0xc,%rax
   10ac8:	48 89 85 f0 fb ff ff 	mov    %rax,-0x410(%rbp)
   10acf:	48 8d 85 f0 f6 ff ff 	lea    -0x910(%rbp),%rax
   10ad6:	48 83 c0 10          	add    $0x10,%rax
   10ada:	48 89 85 f8 fb ff ff 	mov    %rax,-0x408(%rbp)
   10ae1:	48 8d 85 58 f6 ff ff 	lea    -0x9a8(%rbp),%rax
   10ae8:	48 89 85 00 fc ff ff 	mov    %rax,-0x400(%rbp)
   10aef:	48 8d 05 fe c8 00 00 	lea    0xc8fe(%rip),%rax        # 1d3f4 <g_500+0x4>
   10af6:	48 89 85 08 fc ff ff 	mov    %rax,-0x3f8(%rbp)
   10afd:	48 8d 85 58 f6 ff ff 	lea    -0x9a8(%rbp),%rax
   10b04:	48 89 85 10 fc ff ff 	mov    %rax,-0x3f0(%rbp)
   10b0b:	48 8d 05 e2 c8 00 00 	lea    0xc8e2(%rip),%rax        # 1d3f4 <g_500+0x4>
   10b12:	48 89 85 18 fc ff ff 	mov    %rax,-0x3e8(%rbp)
   10b19:	48 8d 85 f0 f6 ff ff 	lea    -0x910(%rbp),%rax
   10b20:	48 83 c0 0c          	add    $0xc,%rax
   10b24:	48 89 85 20 fc ff ff 	mov    %rax,-0x3e0(%rbp)
   10b2b:	48 8d 85 58 f6 ff ff 	lea    -0x9a8(%rbp),%rax
   10b32:	48 89 85 28 fc ff ff 	mov    %rax,-0x3d8(%rbp)
   10b39:	48 8d 85 58 f6 ff ff 	lea    -0x9a8(%rbp),%rax
   10b40:	48 89 85 30 fc ff ff 	mov    %rax,-0x3d0(%rbp)
   10b47:	48 c7 85 38 fc ff ff 	movq   $0x0,-0x3c8(%rbp)
   10b4e:	00 00 00 00 
   10b52:	48 8d 85 f0 f6 ff ff 	lea    -0x910(%rbp),%rax
   10b59:	48 83 c0 0c          	add    $0xc,%rax
   10b5d:	48 89 85 40 fc ff ff 	mov    %rax,-0x3c0(%rbp)
   10b64:	48 8d 85 f0 f6 ff ff 	lea    -0x910(%rbp),%rax
   10b6b:	48 83 c0 0c          	add    $0xc,%rax
   10b6f:	48 89 85 48 fc ff ff 	mov    %rax,-0x3b8(%rbp)
   10b76:	48 8d 05 77 c8 00 00 	lea    0xc877(%rip),%rax        # 1d3f4 <g_500+0x4>
   10b7d:	48 89 85 50 fc ff ff 	mov    %rax,-0x3b0(%rbp)
   10b84:	48 8d 05 a9 c4 00 00 	lea    0xc4a9(%rip),%rax        # 1d034 <g_31>
   10b8b:	48 89 85 58 fc ff ff 	mov    %rax,-0x3a8(%rbp)
   10b92:	48 c7 85 60 fc ff ff 	movq   $0x0,-0x3a0(%rbp)
   10b99:	00 00 00 00 
   10b9d:	48 c7 85 68 fc ff ff 	movq   $0x0,-0x398(%rbp)
   10ba4:	00 00 00 00 
   10ba8:	48 8d 85 f0 f6 ff ff 	lea    -0x910(%rbp),%rax
   10baf:	48 83 c0 0c          	add    $0xc,%rax
   10bb3:	48 89 85 70 fc ff ff 	mov    %rax,-0x390(%rbp)
   10bba:	48 8d 85 58 f6 ff ff 	lea    -0x9a8(%rbp),%rax
   10bc1:	48 89 85 78 fc ff ff 	mov    %rax,-0x388(%rbp)
   10bc8:	48 8d 85 58 f6 ff ff 	lea    -0x9a8(%rbp),%rax
   10bcf:	48 89 85 80 fc ff ff 	mov    %rax,-0x380(%rbp)
   10bd6:	48 8d 05 07 c7 00 00 	lea    0xc707(%rip),%rax        # 1d2e4 <g_108>
   10bdd:	48 89 85 88 fc ff ff 	mov    %rax,-0x378(%rbp)
   10be4:	48 c7 85 90 fc ff ff 	movq   $0x0,-0x370(%rbp)
   10beb:	00 00 00 00 
   10bef:	48 8d 85 58 f6 ff ff 	lea    -0x9a8(%rbp),%rax
   10bf6:	48 89 85 98 fc ff ff 	mov    %rax,-0x368(%rbp)
   10bfd:	48 8d 05 e0 c6 00 00 	lea    0xc6e0(%rip),%rax        # 1d2e4 <g_108>
   10c04:	48 89 85 a0 fc ff ff 	mov    %rax,-0x360(%rbp)
   10c0b:	48 8d 05 22 c4 00 00 	lea    0xc422(%rip),%rax        # 1d034 <g_31>
   10c12:	48 89 85 a8 fc ff ff 	mov    %rax,-0x358(%rbp)
   10c19:	48 8d 05 d4 c7 00 00 	lea    0xc7d4(%rip),%rax        # 1d3f4 <g_500+0x4>
   10c20:	48 89 85 b0 fc ff ff 	mov    %rax,-0x350(%rbp)
   10c27:	48 8d 05 c6 c7 00 00 	lea    0xc7c6(%rip),%rax        # 1d3f4 <g_500+0x4>
   10c2e:	48 89 85 b8 fc ff ff 	mov    %rax,-0x348(%rbp)
   10c35:	48 c7 85 c0 fc ff ff 	movq   $0x0,-0x340(%rbp)
   10c3c:	00 00 00 00 
   10c40:	48 8d 05 ad c7 00 00 	lea    0xc7ad(%rip),%rax        # 1d3f4 <g_500+0x4>
   10c47:	48 89 85 c8 fc ff ff 	mov    %rax,-0x338(%rbp)
   10c4e:	48 8d 85 f0 f6 ff ff 	lea    -0x910(%rbp),%rax
   10c55:	48 83 c0 1c          	add    $0x1c,%rax
   10c59:	48 89 85 d0 fc ff ff 	mov    %rax,-0x330(%rbp)
   10c60:	48 8d 05 91 c7 00 00 	lea    0xc791(%rip),%rax        # 1d3f8 <g_500+0x8>
   10c67:	48 89 85 d8 fc ff ff 	mov    %rax,-0x328(%rbp)
   10c6e:	48 8d 85 f0 f6 ff ff 	lea    -0x910(%rbp),%rax
   10c75:	48 83 c0 18          	add    $0x18,%rax
   10c79:	48 89 85 e0 fc ff ff 	mov    %rax,-0x320(%rbp)
   10c80:	48 8d 05 71 c7 00 00 	lea    0xc771(%rip),%rax        # 1d3f8 <g_500+0x8>
   10c87:	48 89 85 e8 fc ff ff 	mov    %rax,-0x318(%rbp)
   10c8e:	48 8d 05 4f c6 00 00 	lea    0xc64f(%rip),%rax        # 1d2e4 <g_108>
   10c95:	48 89 85 f0 fc ff ff 	mov    %rax,-0x310(%rbp)
   10c9c:	48 8d 05 41 c6 00 00 	lea    0xc641(%rip),%rax        # 1d2e4 <g_108>
   10ca3:	48 89 85 f8 fc ff ff 	mov    %rax,-0x308(%rbp)
   10caa:	48 c7 85 00 fd ff ff 	movq   $0x0,-0x300(%rbp)
   10cb1:	00 00 00 00 
   10cb5:	48 8d 05 78 c3 00 00 	lea    0xc378(%rip),%rax        # 1d034 <g_31>
   10cbc:	48 89 85 08 fd ff ff 	mov    %rax,-0x2f8(%rbp)
   10cc3:	48 8d 85 f0 f6 ff ff 	lea    -0x910(%rbp),%rax
   10cca:	48 83 c0 08          	add    $0x8,%rax
   10cce:	48 89 85 10 fd ff ff 	mov    %rax,-0x2f0(%rbp)
   10cd5:	48 8d 85 58 f6 ff ff 	lea    -0x9a8(%rbp),%rax
   10cdc:	48 89 85 18 fd ff ff 	mov    %rax,-0x2e8(%rbp)
   10ce3:	48 8d 85 f0 f6 ff ff 	lea    -0x910(%rbp),%rax
   10cea:	48 83 c0 0c          	add    $0xc,%rax
   10cee:	48 89 85 20 fd ff ff 	mov    %rax,-0x2e0(%rbp)
   10cf5:	48 8d 85 f0 f6 ff ff 	lea    -0x910(%rbp),%rax
   10cfc:	48 83 c0 1c          	add    $0x1c,%rax
   10d00:	48 89 85 28 fd ff ff 	mov    %rax,-0x2d8(%rbp)
   10d07:	48 8d 85 58 f6 ff ff 	lea    -0x9a8(%rbp),%rax
   10d0e:	48 89 85 30 fd ff ff 	mov    %rax,-0x2d0(%rbp)
   10d15:	48 8d 85 58 f6 ff ff 	lea    -0x9a8(%rbp),%rax
   10d1c:	48 89 85 38 fd ff ff 	mov    %rax,-0x2c8(%rbp)
   10d23:	48 8d 85 f0 f6 ff ff 	lea    -0x910(%rbp),%rax
   10d2a:	48 83 c0 0c          	add    $0xc,%rax
   10d2e:	48 89 85 40 fd ff ff 	mov    %rax,-0x2c0(%rbp)
   10d35:	48 8d 05 00 c3 00 00 	lea    0xc300(%rip),%rax        # 1d03c <g_67>
   10d3c:	48 89 85 48 fd ff ff 	mov    %rax,-0x2b8(%rbp)
   10d43:	48 8d 85 58 f6 ff ff 	lea    -0x9a8(%rbp),%rax
   10d4a:	48 89 85 50 fd ff ff 	mov    %rax,-0x2b0(%rbp)
   10d51:	48 8d 05 e4 c2 00 00 	lea    0xc2e4(%rip),%rax        # 1d03c <g_67>
   10d58:	48 89 85 58 fd ff ff 	mov    %rax,-0x2a8(%rbp)
   10d5f:	48 8d 05 8e c6 00 00 	lea    0xc68e(%rip),%rax        # 1d3f4 <g_500+0x4>
   10d66:	48 89 85 60 fd ff ff 	mov    %rax,-0x2a0(%rbp)
   10d6d:	48 8d 85 58 f6 ff ff 	lea    -0x9a8(%rbp),%rax
   10d74:	48 89 85 68 fd ff ff 	mov    %rax,-0x298(%rbp)
   10d7b:	48 8d 85 58 f6 ff ff 	lea    -0x9a8(%rbp),%rax
   10d82:	48 89 85 70 fd ff ff 	mov    %rax,-0x290(%rbp)
   10d89:	48 8d 05 64 c6 00 00 	lea    0xc664(%rip),%rax        # 1d3f4 <g_500+0x4>
   10d90:	48 89 85 78 fd ff ff 	mov    %rax,-0x288(%rbp)
   10d97:	48 8d 05 9e c2 00 00 	lea    0xc29e(%rip),%rax        # 1d03c <g_67>
   10d9e:	48 89 85 80 fd ff ff 	mov    %rax,-0x280(%rbp)
   10da5:	48 c7 85 88 fd ff ff 	movq   $0x0,-0x278(%rbp)
   10dac:	00 00 00 00 
   10db0:	48 8d 85 58 f6 ff ff 	lea    -0x9a8(%rbp),%rax
   10db7:	48 89 85 90 fd ff ff 	mov    %rax,-0x270(%rbp)
   10dbe:	48 8d 05 2f c6 00 00 	lea    0xc62f(%rip),%rax        # 1d3f4 <g_500+0x4>
   10dc5:	48 89 85 98 fd ff ff 	mov    %rax,-0x268(%rbp)
   10dcc:	48 8d 85 58 f6 ff ff 	lea    -0x9a8(%rbp),%rax
   10dd3:	48 89 85 a0 fd ff ff 	mov    %rax,-0x260(%rbp)
   10dda:	48 8d 05 13 c6 00 00 	lea    0xc613(%rip),%rax        # 1d3f4 <g_500+0x4>
   10de1:	48 89 85 a8 fd ff ff 	mov    %rax,-0x258(%rbp)
   10de8:	48 8d 85 58 f6 ff ff 	lea    -0x9a8(%rbp),%rax
   10def:	48 89 85 b0 fd ff ff 	mov    %rax,-0x250(%rbp)
   10df6:	48 c7 85 b8 fd ff ff 	movq   $0x0,-0x248(%rbp)
   10dfd:	00 00 00 00 
   10e01:	48 8d 85 f0 f6 ff ff 	lea    -0x910(%rbp),%rax
   10e08:	48 83 c0 0c          	add    $0xc,%rax
   10e0c:	48 89 85 c0 fd ff ff 	mov    %rax,-0x240(%rbp)
   10e13:	48 8d 85 f0 f6 ff ff 	lea    -0x910(%rbp),%rax
   10e1a:	48 83 c0 0c          	add    $0xc,%rax
   10e1e:	48 89 85 c8 fd ff ff 	mov    %rax,-0x238(%rbp)
   10e25:	48 8d 85 58 f6 ff ff 	lea    -0x9a8(%rbp),%rax
   10e2c:	48 89 85 d0 fd ff ff 	mov    %rax,-0x230(%rbp)
   10e33:	48 8d 85 f0 f6 ff ff 	lea    -0x910(%rbp),%rax
   10e3a:	48 83 c0 0c          	add    $0xc,%rax
   10e3e:	48 89 85 d8 fd ff ff 	mov    %rax,-0x228(%rbp)
   10e45:	48 8d 85 58 f6 ff ff 	lea    -0x9a8(%rbp),%rax
   10e4c:	48 89 85 e0 fd ff ff 	mov    %rax,-0x220(%rbp)
   10e53:	48 c7 85 e8 fd ff ff 	movq   $0x0,-0x218(%rbp)
   10e5a:	00 00 00 00 
   10e5e:	48 8d 85 58 f6 ff ff 	lea    -0x9a8(%rbp),%rax
   10e65:	48 89 85 f0 fd ff ff 	mov    %rax,-0x210(%rbp)
   10e6c:	48 c7 85 f8 fd ff ff 	movq   $0x0,-0x208(%rbp)
   10e73:	00 00 00 00 
   10e77:	48 8d 05 76 c5 00 00 	lea    0xc576(%rip),%rax        # 1d3f4 <g_500+0x4>
   10e7e:	48 89 85 00 fe ff ff 	mov    %rax,-0x200(%rbp)
   10e85:	48 8d 85 f0 f6 ff ff 	lea    -0x910(%rbp),%rax
   10e8c:	48 83 c0 1c          	add    $0x1c,%rax
   10e90:	48 89 85 08 fe ff ff 	mov    %rax,-0x1f8(%rbp)
   10e97:	48 8d 05 96 c1 00 00 	lea    0xc196(%rip),%rax        # 1d034 <g_31>
   10e9e:	48 89 85 10 fe ff ff 	mov    %rax,-0x1f0(%rbp)
   10ea5:	48 8d 05 90 c1 00 00 	lea    0xc190(%rip),%rax        # 1d03c <g_67>
   10eac:	48 89 85 18 fe ff ff 	mov    %rax,-0x1e8(%rbp)
   10eb3:	48 8d 05 3e c5 00 00 	lea    0xc53e(%rip),%rax        # 1d3f8 <g_500+0x8>
   10eba:	48 89 85 20 fe ff ff 	mov    %rax,-0x1e0(%rbp)
   10ec1:	48 8d 85 58 f6 ff ff 	lea    -0x9a8(%rbp),%rax
   10ec8:	48 89 85 28 fe ff ff 	mov    %rax,-0x1d8(%rbp)
   10ecf:	48 8d 05 0e c4 00 00 	lea    0xc40e(%rip),%rax        # 1d2e4 <g_108>
   10ed6:	48 89 85 30 fe ff ff 	mov    %rax,-0x1d0(%rbp)
   10edd:	48 8d 85 f0 f6 ff ff 	lea    -0x910(%rbp),%rax
   10ee4:	48 83 c0 0c          	add    $0xc,%rax
   10ee8:	48 89 85 38 fe ff ff 	mov    %rax,-0x1c8(%rbp)
   10eef:	48 8d 85 f0 f6 ff ff 	lea    -0x910(%rbp),%rax
   10ef6:	48 83 c0 0c          	add    $0xc,%rax
   10efa:	48 89 85 40 fe ff ff 	mov    %rax,-0x1c0(%rbp)
   10f01:	48 8d 05 2c c1 00 00 	lea    0xc12c(%rip),%rax        # 1d034 <g_31>
   10f08:	48 89 85 48 fe ff ff 	mov    %rax,-0x1b8(%rbp)
   10f0f:	48 c7 85 50 fe ff ff 	movq   $0x0,-0x1b0(%rbp)
   10f16:	00 00 00 00 
   10f1a:	48 8d 05 c3 c3 00 00 	lea    0xc3c3(%rip),%rax        # 1d2e4 <g_108>
   10f21:	48 89 85 58 fe ff ff 	mov    %rax,-0x1a8(%rbp)
   10f28:	48 c7 85 60 fe ff ff 	movq   $0x0,-0x1a0(%rbp)
   10f2f:	00 00 00 00 
   10f33:	48 8d 85 58 f6 ff ff 	lea    -0x9a8(%rbp),%rax
   10f3a:	48 89 85 68 fe ff ff 	mov    %rax,-0x198(%rbp)
   10f41:	48 8d 05 9c c3 00 00 	lea    0xc39c(%rip),%rax        # 1d2e4 <g_108>
   10f48:	48 89 85 70 fe ff ff 	mov    %rax,-0x190(%rbp)
   10f4f:	48 c7 85 78 fe ff ff 	movq   $0x0,-0x188(%rbp)
   10f56:	00 00 00 00 
   10f5a:	48 8d 85 58 f6 ff ff 	lea    -0x9a8(%rbp),%rax
   10f61:	48 89 85 80 fe ff ff 	mov    %rax,-0x180(%rbp)
   10f68:	48 8d 85 58 f6 ff ff 	lea    -0x9a8(%rbp),%rax
   10f6f:	48 89 85 88 fe ff ff 	mov    %rax,-0x178(%rbp)
   10f76:	48 8d 85 f0 f6 ff ff 	lea    -0x910(%rbp),%rax
   10f7d:	48 83 c0 1c          	add    $0x1c,%rax
   10f81:	48 89 85 90 fe ff ff 	mov    %rax,-0x170(%rbp)
   10f88:	48 c7 85 98 fe ff ff 	movq   $0x0,-0x168(%rbp)
   10f8f:	00 00 00 00 
   10f93:	48 8d 85 58 f6 ff ff 	lea    -0x9a8(%rbp),%rax
   10f9a:	48 89 85 a0 fe ff ff 	mov    %rax,-0x160(%rbp)
   10fa1:	48 8d 85 58 f6 ff ff 	lea    -0x9a8(%rbp),%rax
   10fa8:	48 89 85 a8 fe ff ff 	mov    %rax,-0x158(%rbp)
   10faf:	48 c7 85 b0 fe ff ff 	movq   $0x0,-0x150(%rbp)
   10fb6:	00 00 00 00 
   10fba:	48 8d 05 33 c4 00 00 	lea    0xc433(%rip),%rax        # 1d3f4 <g_500+0x4>
   10fc1:	48 89 85 b8 fe ff ff 	mov    %rax,-0x148(%rbp)
   10fc8:	48 8d 05 25 c4 00 00 	lea    0xc425(%rip),%rax        # 1d3f4 <g_500+0x4>
   10fcf:	48 89 85 c0 fe ff ff 	mov    %rax,-0x140(%rbp)
   10fd6:	48 8d 85 f0 f6 ff ff 	lea    -0x910(%rbp),%rax
   10fdd:	48 83 c0 0c          	add    $0xc,%rax
   10fe1:	48 89 85 c8 fe ff ff 	mov    %rax,-0x138(%rbp)
   10fe8:	48 8d 85 f0 f6 ff ff 	lea    -0x910(%rbp),%rax
   10fef:	48 83 c0 0c          	add    $0xc,%rax
   10ff3:	48 89 85 d0 fe ff ff 	mov    %rax,-0x130(%rbp)
   10ffa:	48 8d 85 58 f6 ff ff 	lea    -0x9a8(%rbp),%rax
   11001:	48 89 85 d8 fe ff ff 	mov    %rax,-0x128(%rbp)
   11008:	48 c7 85 e0 fe ff ff 	movq   $0x0,-0x120(%rbp)
   1100f:	00 00 00 00 
   11013:	48 c7 85 e8 fe ff ff 	movq   $0x0,-0x118(%rbp)
   1101a:	00 00 00 00 
   1101e:	48 c7 85 f0 fe ff ff 	movq   $0x0,-0x110(%rbp)
   11025:	00 00 00 00 
   11029:	48 8d 85 f0 f6 ff ff 	lea    -0x910(%rbp),%rax
   11030:	48 83 c0 0c          	add    $0xc,%rax
   11034:	48 89 85 f8 fe ff ff 	mov    %rax,-0x108(%rbp)
   1103b:	48 8d 05 f2 bf 00 00 	lea    0xbff2(%rip),%rax        # 1d034 <g_31>
   11042:	48 89 85 00 ff ff ff 	mov    %rax,-0x100(%rbp)
   11049:	48 c7 85 08 ff ff ff 	movq   $0x0,-0xf8(%rbp)
   11050:	00 00 00 00 
   11054:	48 8d 05 9d c3 00 00 	lea    0xc39d(%rip),%rax        # 1d3f8 <g_500+0x8>
   1105b:	48 89 85 10 ff ff ff 	mov    %rax,-0xf0(%rbp)
   11062:	48 8d 05 cb bf 00 00 	lea    0xbfcb(%rip),%rax        # 1d034 <g_31>
   11069:	48 89 85 18 ff ff ff 	mov    %rax,-0xe8(%rbp)
   11070:	48 8d 85 58 f6 ff ff 	lea    -0x9a8(%rbp),%rax
   11077:	48 89 85 20 ff ff ff 	mov    %rax,-0xe0(%rbp)
   1107e:	48 8d 85 58 f6 ff ff 	lea    -0x9a8(%rbp),%rax
   11085:	48 89 85 28 ff ff ff 	mov    %rax,-0xd8(%rbp)
   1108c:	48 8d 85 f0 f6 ff ff 	lea    -0x910(%rbp),%rax
   11093:	48 83 c0 0c          	add    $0xc,%rax
   11097:	48 89 85 30 ff ff ff 	mov    %rax,-0xd0(%rbp)
   1109e:	48 8d 85 f0 f6 ff ff 	lea    -0x910(%rbp),%rax
   110a5:	48 83 c0 1c          	add    $0x1c,%rax
   110a9:	48 89 85 38 ff ff ff 	mov    %rax,-0xc8(%rbp)
   110b0:	48 8d 85 f0 f6 ff ff 	lea    -0x910(%rbp),%rax
   110b7:	48 83 c0 0c          	add    $0xc,%rax
   110bb:	48 89 85 40 ff ff ff 	mov    %rax,-0xc0(%rbp)
   110c2:	48 8d 85 f0 f6 ff ff 	lea    -0x910(%rbp),%rax
   110c9:	48 83 c0 10          	add    $0x10,%rax
   110cd:	48 89 85 48 ff ff ff 	mov    %rax,-0xb8(%rbp)
   110d4:	48 8d 85 58 f6 ff ff 	lea    -0x9a8(%rbp),%rax
   110db:	48 89 85 50 ff ff ff 	mov    %rax,-0xb0(%rbp)
   110e2:	48 8d 05 0b c3 00 00 	lea    0xc30b(%rip),%rax        # 1d3f4 <g_500+0x4>
   110e9:	48 89 85 58 ff ff ff 	mov    %rax,-0xa8(%rbp)
   110f0:	48 c7 85 60 ff ff ff 	movq   $0x0,-0xa0(%rbp)
   110f7:	00 00 00 00 
   110fb:	48 8d 05 3a bf 00 00 	lea    0xbf3a(%rip),%rax        # 1d03c <g_67>
   11102:	48 89 85 68 ff ff ff 	mov    %rax,-0x98(%rbp)
   11109:	48 8d 85 58 f6 ff ff 	lea    -0x9a8(%rbp),%rax
   11110:	48 89 85 70 ff ff ff 	mov    %rax,-0x90(%rbp)
   11117:	48 8d 85 f0 f6 ff ff 	lea    -0x910(%rbp),%rax
   1111e:	48 83 c0 0c          	add    $0xc,%rax
   11122:	48 89 85 78 ff ff ff 	mov    %rax,-0x88(%rbp)
   11129:	48 8d 85 f0 f6 ff ff 	lea    -0x910(%rbp),%rax
   11130:	48 83 c0 0c          	add    $0xc,%rax
   11134:	48 89 45 80          	mov    %rax,-0x80(%rbp)
   11138:	48 c7 45 88 00 00 00 	movq   $0x0,-0x78(%rbp)
   1113f:	00 
   11140:	48 c7 45 90 00 00 00 	movq   $0x0,-0x70(%rbp)
   11147:	00 
   11148:	48 c7 45 98 00 00 00 	movq   $0x0,-0x68(%rbp)
   1114f:	00 
   11150:	48 8d 85 f0 f6 ff ff 	lea    -0x910(%rbp),%rax
   11157:	48 89 45 a0          	mov    %rax,-0x60(%rbp)
   1115b:	48 c7 45 a8 00 00 00 	movq   $0x0,-0x58(%rbp)
   11162:	00 
   11163:	48 c7 45 b0 00 00 00 	movq   $0x0,-0x50(%rbp)
   1116a:	00 
   1116b:	48 c7 45 b8 00 00 00 	movq   $0x0,-0x48(%rbp)
   11172:	00 
   11173:	48 8d 05 6a c1 00 00 	lea    0xc16a(%rip),%rax        # 1d2e4 <g_108>
   1117a:	48 89 45 c0          	mov    %rax,-0x40(%rbp)
   1117e:	48 b8 98 8e 3f ab a4 	movabs $0xb3c905a4ab3f8e98,%rax
   11185:	05 c9 b3 
   11188:	48 89 85 c8 f6 ff ff 	mov    %rax,-0x938(%rbp)
   1118f:	c7 85 64 f6 ff ff 78 	movl   $0xb1a98078,-0x99c(%rbp)
   11196:	80 a9 b1 
   11199:	48 8d 85 40 f7 ff ff 	lea    -0x8c0(%rbp),%rax
   111a0:	48 83 c0 28          	add    $0x28,%rax
   111a4:	48 89 85 d0 f6 ff ff 	mov    %rax,-0x930(%rbp)
   111ab:	48 b8 40 10 f9 a9 eb 	movabs $0x9a2fefeba9f91040,%rax
   111b2:	ef 2f 9a 
   111b5:	48 89 85 d8 f6 ff ff 	mov    %rax,-0x928(%rbp)
   111bc:	c7 85 5c f6 ff ff 00 	movl   $0x0,-0x9a4(%rbp)
   111c3:	00 00 00 
   111c6:	eb 1e                	jmp    111e6 <func_46+0xf22>
   111c8:	8b 85 5c f6 ff ff    	mov    -0x9a4(%rbp),%eax
   111ce:	48 98                	cltq   
   111d0:	48 8d 15 f3 43 01 00 	lea    0x143f3(%rip),%rdx        # 255ca <g_80+0x2>
   111d7:	48 89 94 c5 10 f7 ff 	mov    %rdx,-0x8f0(%rbp,%rax,8)
   111de:	ff 
   111df:	83 85 5c f6 ff ff 01 	addl   $0x1,-0x9a4(%rbp)
   111e6:	83 bd 5c f6 ff ff 04 	cmpl   $0x4,-0x9a4(%rbp)
   111ed:	7e d9                	jle    111c8 <func_46+0xf04>
   111ef:	c7 85 5c f6 ff ff 00 	movl   $0x0,-0x9a4(%rbp)
   111f6:	00 00 00 
   111f9:	eb 1b                	jmp    11216 <func_46+0xf52>
   111fb:	8b 85 5c f6 ff ff    	mov    -0x9a4(%rbp),%eax
   11201:	48 98                	cltq   
   11203:	48 c7 84 c5 40 f7 ff 	movq   $0x0,-0x8c0(%rbp,%rax,8)
   1120a:	ff 00 00 00 00 
   1120f:	83 85 5c f6 ff ff 01 	addl   $0x1,-0x9a4(%rbp)
   11216:	83 bd 5c f6 ff ff 05 	cmpl   $0x5,-0x9a4(%rbp)
   1121d:	7e dc                	jle    111fb <func_46+0xf37>
   1121f:	48 8b 95 68 f6 ff ff 	mov    -0x998(%rbp),%rdx
   11226:	48 8b 85 80 f6 ff ff 	mov    -0x980(%rbp),%rax
   1122d:	48 89 10             	mov    %rdx,(%rax)
   11230:	48 8b 85 38 f6 ff ff 	mov    -0x9c8(%rbp),%rax
   11237:	41 89 c5             	mov    %eax,%r13d
   1123a:	8b 95 44 f6 ff ff    	mov    -0x9bc(%rbp),%edx
   11240:	48 8b 85 a8 f6 ff ff 	mov    -0x958(%rbp),%rax
   11247:	48 8b 00             	mov    (%rax),%rax
   1124a:	83 e0 01             	and    $0x1,%eax
   1124d:	48 89 c1             	mov    %rax,%rcx
   11250:	48 8b 85 a8 f6 ff ff 	mov    -0x958(%rbp),%rax
   11257:	48 89 08             	mov    %rcx,(%rax)
   1125a:	48 8b 85 a8 f6 ff ff 	mov    -0x958(%rbp),%rax
   11261:	48 8b 00             	mov    (%rax),%rax
   11264:	48 39 c2             	cmp    %rax,%rdx
   11267:	0f 96 c0             	setbe  %al
   1126a:	0f b6 d8             	movzbl %al,%ebx
   1126d:	48 8b 85 98 f6 ff ff 	mov    -0x968(%rbp),%rax
   11274:	0f b7 00             	movzwl (%rax),%eax
   11277:	66 35 ea 2f          	xor    $0x2fea,%ax
   1127b:	89 c2                	mov    %eax,%edx
   1127d:	48 8b 85 98 f6 ff ff 	mov    -0x968(%rbp),%rax
   11284:	66 89 10             	mov    %dx,(%rax)
   11287:	48 8b 85 98 f6 ff ff 	mov    -0x968(%rbp),%rax
   1128e:	0f b7 00             	movzwl (%rax),%eax
   11291:	44 0f b7 e0          	movzwl %ax,%r12d
   11295:	48 8b 85 a0 f6 ff ff 	mov    -0x960(%rbp),%rax
   1129c:	0f b7 10             	movzwl (%rax),%edx
   1129f:	0f b7 85 34 f6 ff ff 	movzwl -0x9cc(%rbp),%eax
   112a6:	09 c2                	or     %eax,%edx
   112a8:	48 8b 85 a0 f6 ff ff 	mov    -0x960(%rbp),%rax
   112af:	66 89 10             	mov    %dx,(%rax)
   112b2:	48 8b 85 a0 f6 ff ff 	mov    -0x960(%rbp),%rax
   112b9:	0f b7 00             	movzwl (%rax),%eax
   112bc:	66 85 c0             	test   %ax,%ax
   112bf:	74 63                	je     11324 <func_46+0x1060>
   112c1:	48 8b 85 80 f6 ff ff 	mov    -0x980(%rbp),%rax
   112c8:	48 8b 10             	mov    (%rax),%rdx
   112cb:	48 8b 85 80 f6 ff ff 	mov    -0x980(%rbp),%rax
   112d2:	48 8b 00             	mov    (%rax),%rax
   112d5:	48 89 05 94 1d 01 00 	mov    %rax,0x11d94(%rip)        # 23070 <g_491>
   112dc:	48 8b 05 8d 1d 01 00 	mov    0x11d8d(%rip),%rax        # 23070 <g_491>
   112e3:	48 39 c2             	cmp    %rax,%rdx
   112e6:	0f 95 c0             	setne  %al
   112e9:	0f b6 c0             	movzbl %al,%eax
   112ec:	be 08 00 00 00       	mov    $0x8,%esi
   112f1:	89 c7                	mov    %eax,%edi
   112f3:	e8 32 72 ff ff       	callq  852a <safe_rshift_func_int16_t_s_s>
   112f8:	48 8b 95 a0 f6 ff ff 	mov    -0x960(%rbp),%rdx
   112ff:	0f b7 12             	movzwl (%rdx),%edx
   11302:	21 c2                	and    %eax,%edx
   11304:	48 8b 85 a0 f6 ff ff 	mov    -0x960(%rbp),%rax
   1130b:	66 89 10             	mov    %dx,(%rax)
   1130e:	48 8b 85 a0 f6 ff ff 	mov    -0x960(%rbp),%rax
   11315:	0f b7 00             	movzwl (%rax),%eax
   11318:	66 85 c0             	test   %ax,%ax
   1131b:	74 07                	je     11324 <func_46+0x1060>
   1131d:	b8 01 00 00 00       	mov    $0x1,%eax
   11322:	eb 05                	jmp    11329 <func_46+0x1065>
   11324:	b8 00 00 00 00       	mov    $0x0,%eax
   11329:	44 39 e0             	cmp    %r12d,%eax
   1132c:	0f 9d c0             	setge  %al
   1132f:	0f b6 c0             	movzbl %al,%eax
   11332:	48 89 05 b7 bf 00 00 	mov    %rax,0xbfb7(%rip)        # 1d2f0 <g_145>
   11339:	48 8b 05 b0 bf 00 00 	mov    0xbfb0(%rip),%rax        # 1d2f0 <g_145>
   11340:	48 89 de             	mov    %rbx,%rsi
   11343:	48 89 c7             	mov    %rax,%rdi
   11346:	e8 5d 75 ff ff       	callq  88a8 <safe_sub_func_int64_t_s_s>
   1134b:	48 83 bd 48 f6 ff ff 	cmpq   $0x0,-0x9b8(%rbp)
   11352:	00 
   11353:	0f 95 c0             	setne  %al
   11356:	0f b6 c0             	movzbl %al,%eax
   11359:	be 2b fb ff ff       	mov    $0xfffffb2b,%esi
   1135e:	89 c7                	mov    %eax,%edi
   11360:	e8 f0 70 ff ff       	callq  8455 <safe_div_func_int16_t_s_s>
   11365:	8b 95 fc f6 ff ff    	mov    -0x904(%rbp),%edx
   1136b:	98                   	cwtl   
   1136c:	09 d0                	or     %edx,%eax
   1136e:	89 85 fc f6 ff ff    	mov    %eax,-0x904(%rbp)
   11374:	8b 95 fc f6 ff ff    	mov    -0x904(%rbp),%edx
   1137a:	0f b7 05 a5 bc 00 00 	movzwl 0xbca5(%rip),%eax        # 1d026 <g_19>
   11381:	98                   	cwtl   
   11382:	39 c2                	cmp    %eax,%edx
   11384:	0f 9c c0             	setl   %al
   11387:	0f b6 c0             	movzbl %al,%eax
   1138a:	89 85 58 f6 ff ff    	mov    %eax,-0x9a8(%rbp)
   11390:	8b 85 58 f6 ff ff    	mov    -0x9a8(%rbp),%eax
   11396:	85 c0                	test   %eax,%eax
   11398:	75 08                	jne    113a2 <func_46+0x10de>
   1139a:	66 83 bd 34 f6 ff ff 	cmpw   $0x0,-0x9cc(%rbp)
   113a1:	00 
   113a2:	8b 85 58 f6 ff ff    	mov    -0x9a8(%rbp),%eax
   113a8:	0f b6 c0             	movzbl %al,%eax
   113ab:	be f8 00 00 00       	mov    $0xf8,%esi
   113b0:	89 c7                	mov    %eax,%edi
   113b2:	e8 dc 77 ff ff       	callq  8b93 <safe_mul_func_uint8_t_u_u>
   113b7:	0f b6 c0             	movzbl %al,%eax
   113ba:	44 89 ee             	mov    %r13d,%esi
   113bd:	89 c7                	mov    %eax,%edi
   113bf:	e8 c9 78 ff ff       	callq  8c8d <safe_rshift_func_uint8_t_u_s>
   113c4:	84 c0                	test   %al,%al
   113c6:	0f 84 e8 00 00 00    	je     114b4 <func_46+0x11f0>
   113cc:	48 8d 05 d5 17 01 00 	lea    0x117d5(%rip),%rax        # 22ba8 <g_30+0x28>
   113d3:	48 89 85 70 f6 ff ff 	mov    %rax,-0x990(%rbp)
   113da:	48 8d 85 70 f6 ff ff 	lea    -0x990(%rbp),%rax
   113e1:	48 89 85 e0 f6 ff ff 	mov    %rax,-0x920(%rbp)
   113e8:	48 8d 05 c9 17 01 00 	lea    0x117c9(%rip),%rax        # 22bb8 <g_74>
   113ef:	48 89 85 78 f6 ff ff 	mov    %rax,-0x988(%rbp)
   113f6:	48 8d 05 4b bf 00 00 	lea    0xbf4b(%rip),%rax        # 1d348 <g_223>
   113fd:	48 89 85 e8 f6 ff ff 	mov    %rax,-0x918(%rbp)
   11404:	c7 85 60 f6 ff ff 00 	movl   $0x0,-0x9a0(%rbp)
   1140b:	00 00 00 
   1140e:	eb 1e                	jmp    1142e <func_46+0x116a>
   11410:	8b 85 60 f6 ff ff    	mov    -0x9a0(%rbp),%eax
   11416:	48 98                	cltq   
   11418:	48 8d 95 78 f6 ff ff 	lea    -0x988(%rbp),%rdx
   1141f:	48 89 94 c5 70 f7 ff 	mov    %rdx,-0x890(%rbp,%rax,8)
   11426:	ff 
   11427:	83 85 60 f6 ff ff 01 	addl   $0x1,-0x9a0(%rbp)
   1142e:	83 bd 60 f6 ff ff 09 	cmpl   $0x9,-0x9a0(%rbp)
   11435:	7e d9                	jle    11410 <func_46+0x114c>
   11437:	48 8b 95 70 f6 ff ff 	mov    -0x990(%rbp),%rdx
   1143e:	48 8b 85 e0 f6 ff ff 	mov    -0x920(%rbp),%rax
   11445:	48 89 10             	mov    %rdx,(%rax)
   11448:	48 8b 85 e0 f6 ff ff 	mov    -0x920(%rbp),%rax
   1144f:	48 8b 00             	mov    (%rax),%rax
   11452:	48 89 05 7f 1c 01 00 	mov    %rax,0x11c7f(%rip)        # 230d8 <g_498+0x58>
   11459:	48 8b 05 78 1c 01 00 	mov    0x11c78(%rip),%rax        # 230d8 <g_498+0x58>
   11460:	48 89 05 09 1d 01 00 	mov    %rax,0x11d09(%rip)        # 23170 <g_503>
   11467:	48 8b 85 38 f6 ff ff 	mov    -0x9c8(%rbp),%rax
   1146e:	48 c1 e8 3f          	shr    $0x3f,%rax
   11472:	0f b6 d0             	movzbl %al,%edx
   11475:	48 8b 85 e8 f6 ff ff 	mov    -0x918(%rbp),%rax
   1147c:	89 10                	mov    %edx,(%rax)
   1147e:	48 8b 85 e8 f6 ff ff 	mov    -0x918(%rbp),%rax
   11485:	8b 00                	mov    (%rax),%eax
   11487:	8b 95 f8 f6 ff ff    	mov    -0x908(%rbp),%edx
   1148d:	39 d0                	cmp    %edx,%eax
   1148f:	0f 95 c0             	setne  %al
   11492:	0f b6 c8             	movzbl %al,%ecx
   11495:	48 8b 05 24 17 01 00 	mov    0x11724(%rip),%rax        # 22bc0 <g_100>
   1149c:	48 8b 00             	mov    (%rax),%rax
   1149f:	8b 10                	mov    (%rax),%edx
   114a1:	48 8b 05 18 17 01 00 	mov    0x11718(%rip),%rax        # 22bc0 <g_100>
   114a8:	48 8b 00             	mov    (%rax),%rax
   114ab:	09 ca                	or     %ecx,%edx
   114ad:	89 10                	mov    %edx,(%rax)
   114af:	e9 f0 04 00 00       	jmpq   119a4 <func_46+0x16e0>
   114b4:	66 c7 85 70 f7 ff ff 	movw   $0xca6e,-0x890(%rbp)
   114bb:	6e ca 
   114bd:	66 c7 85 72 f7 ff ff 	movw   $0x24e8,-0x88e(%rbp)
   114c4:	e8 24 
   114c6:	66 c7 85 74 f7 ff ff 	movw   $0x2869,-0x88c(%rbp)
   114cd:	69 28 
   114cf:	66 c7 85 76 f7 ff ff 	movw   $0xfff7,-0x88a(%rbp)
   114d6:	f7 ff 
   114d8:	66 c7 85 78 f7 ff ff 	movw   $0x1,-0x888(%rbp)
   114df:	01 00 
   114e1:	66 c7 85 7a f7 ff ff 	movw   $0x24e8,-0x886(%rbp)
   114e8:	e8 24 
   114ea:	66 c7 85 7c f7 ff ff 	movw   $0xfff7,-0x884(%rbp)
   114f1:	f7 ff 
   114f3:	66 c7 85 7e f7 ff ff 	movw   $0x4fd2,-0x882(%rbp)
   114fa:	d2 4f 
   114fc:	66 c7 85 80 f7 ff ff 	movw   $0x8,-0x880(%rbp)
   11503:	08 00 
   11505:	66 c7 85 82 f7 ff ff 	movw   $0xca6e,-0x87e(%rbp)
   1150c:	6e ca 
   1150e:	66 c7 85 84 f7 ff ff 	movw   $0x0,-0x87c(%rbp)
   11515:	00 00 
   11517:	66 c7 85 86 f7 ff ff 	movw   $0x0,-0x87a(%rbp)
   1151e:	00 00 
   11520:	66 c7 85 88 f7 ff ff 	movw   $0xfff7,-0x878(%rbp)
   11527:	f7 ff 
   11529:	66 c7 85 8a f7 ff ff 	movw   $0x4fd2,-0x876(%rbp)
   11530:	d2 4f 
   11532:	66 c7 85 8c f7 ff ff 	movw   $0x1fc,-0x874(%rbp)
   11539:	fc 01 
   1153b:	66 c7 85 8e f7 ff ff 	movw   $0xfffa,-0x872(%rbp)
   11542:	fa ff 
   11544:	66 c7 85 90 f7 ff ff 	movw   $0x1,-0x870(%rbp)
   1154b:	01 00 
   1154d:	66 c7 85 92 f7 ff ff 	movw   $0x1fc,-0x86e(%rbp)
   11554:	fc 01 
   11556:	66 c7 85 94 f7 ff ff 	movw   $0xa137,-0x86c(%rbp)
   1155d:	37 a1 
   1155f:	66 c7 85 96 f7 ff ff 	movw   $0x24e8,-0x86a(%rbp)
   11566:	e8 24 
   11568:	66 c7 85 98 f7 ff ff 	movw   $0x0,-0x868(%rbp)
   1156f:	00 00 
   11571:	66 c7 85 9a f7 ff ff 	movw   $0xbf9c,-0x866(%rbp)
   11578:	9c bf 
   1157a:	66 c7 85 9c f7 ff ff 	movw   $0xee3c,-0x864(%rbp)
   11581:	3c ee 
   11583:	66 c7 85 9e f7 ff ff 	movw   $0x8,-0x862(%rbp)
   1158a:	08 00 
   1158c:	66 c7 85 a0 f7 ff ff 	movw   $0xa137,-0x860(%rbp)
   11593:	37 a1 
   11595:	66 c7 85 a2 f7 ff ff 	movw   $0x8,-0x85e(%rbp)
   1159c:	08 00 
   1159e:	66 c7 85 a4 f7 ff ff 	movw   $0x24e8,-0x85c(%rbp)
   115a5:	e8 24 
   115a7:	66 c7 85 a6 f7 ff ff 	movw   $0xfffa,-0x85a(%rbp)
   115ae:	fa ff 
   115b0:	66 c7 85 a8 f7 ff ff 	movw   $0x8,-0x858(%rbp)
   115b7:	08 00 
   115b9:	66 c7 85 aa f7 ff ff 	movw   $0x2869,-0x856(%rbp)
   115c0:	69 28 
   115c2:	66 c7 85 ac f7 ff ff 	movw   $0xfff7,-0x854(%rbp)
   115c9:	f7 ff 
   115cb:	66 c7 85 ae f7 ff ff 	movw   $0xee3c,-0x852(%rbp)
   115d2:	3c ee 
   115d4:	66 c7 85 b0 f7 ff ff 	movw   $0xee3c,-0x850(%rbp)
   115db:	3c ee 
   115dd:	66 c7 85 b2 f7 ff ff 	movw   $0xca6e,-0x84e(%rbp)
   115e4:	6e ca 
   115e6:	66 c7 85 b4 f7 ff ff 	movw   $0x24e8,-0x84c(%rbp)
   115ed:	e8 24 
   115ef:	66 c7 85 b6 f7 ff ff 	movw   $0x2869,-0x84a(%rbp)
   115f6:	69 28 
   115f8:	66 c7 85 b8 f7 ff ff 	movw   $0xfff7,-0x848(%rbp)
   115ff:	f7 ff 
   11601:	66 c7 85 ba f7 ff ff 	movw   $0x1,-0x846(%rbp)
   11608:	01 00 
   1160a:	66 c7 85 bc f7 ff ff 	movw   $0x24e8,-0x844(%rbp)
   11611:	e8 24 
   11613:	66 c7 85 be f7 ff ff 	movw   $0xfff7,-0x842(%rbp)
   1161a:	f7 ff 
   1161c:	66 c7 85 c0 f7 ff ff 	movw   $0x4fd2,-0x840(%rbp)
   11623:	d2 4f 
   11625:	66 c7 85 c2 f7 ff ff 	movw   $0x8,-0x83e(%rbp)
   1162c:	08 00 
   1162e:	66 c7 85 c4 f7 ff ff 	movw   $0xca6e,-0x83c(%rbp)
   11635:	6e ca 
   11637:	66 c7 85 c6 f7 ff ff 	movw   $0x0,-0x83a(%rbp)
   1163e:	00 00 
   11640:	66 c7 85 c8 f7 ff ff 	movw   $0x0,-0x838(%rbp)
   11647:	00 00 
   11649:	66 c7 85 ca f7 ff ff 	movw   $0xfff7,-0x836(%rbp)
   11650:	f7 ff 
   11652:	66 c7 85 cc f7 ff ff 	movw   $0x4fd2,-0x834(%rbp)
   11659:	d2 4f 
   1165b:	66 c7 85 ce f7 ff ff 	movw   $0x1fc,-0x832(%rbp)
   11662:	fc 01 
   11664:	66 c7 85 d0 f7 ff ff 	movw   $0xfffa,-0x830(%rbp)
   1166b:	fa ff 
   1166d:	66 c7 85 d2 f7 ff ff 	movw   $0x1,-0x82e(%rbp)
   11674:	01 00 
   11676:	66 c7 85 d4 f7 ff ff 	movw   $0x1fc,-0x82c(%rbp)
   1167d:	fc 01 
   1167f:	66 c7 85 d6 f7 ff ff 	movw   $0xa137,-0x82a(%rbp)
   11686:	37 a1 
   11688:	66 c7 85 d8 f7 ff ff 	movw   $0x24e8,-0x828(%rbp)
   1168f:	e8 24 
   11691:	66 c7 85 da f7 ff ff 	movw   $0x0,-0x826(%rbp)
   11698:	00 00 
   1169a:	66 c7 85 dc f7 ff ff 	movw   $0xbf9c,-0x824(%rbp)
   116a1:	9c bf 
   116a3:	66 c7 85 de f7 ff ff 	movw   $0xee3c,-0x822(%rbp)
   116aa:	3c ee 
   116ac:	66 c7 85 e0 f7 ff ff 	movw   $0x8,-0x820(%rbp)
   116b3:	08 00 
   116b5:	66 c7 85 e2 f7 ff ff 	movw   $0xa137,-0x81e(%rbp)
   116bc:	37 a1 
   116be:	66 c7 85 e4 f7 ff ff 	movw   $0x8,-0x81c(%rbp)
   116c5:	08 00 
   116c7:	66 c7 85 e6 f7 ff ff 	movw   $0x24e8,-0x81a(%rbp)
   116ce:	e8 24 
   116d0:	66 c7 85 e8 f7 ff ff 	movw   $0xfffa,-0x818(%rbp)
   116d7:	fa ff 
   116d9:	66 c7 85 ea f7 ff ff 	movw   $0x8,-0x816(%rbp)
   116e0:	08 00 
   116e2:	66 c7 85 ec f7 ff ff 	movw   $0x2869,-0x814(%rbp)
   116e9:	69 28 
   116eb:	66 c7 85 ee f7 ff ff 	movw   $0xfff7,-0x812(%rbp)
   116f2:	f7 ff 
   116f4:	66 c7 85 f0 f7 ff ff 	movw   $0xee3c,-0x810(%rbp)
   116fb:	3c ee 
   116fd:	66 c7 85 f2 f7 ff ff 	movw   $0xee3c,-0x80e(%rbp)
   11704:	3c ee 
   11706:	66 c7 85 f4 f7 ff ff 	movw   $0xca6e,-0x80c(%rbp)
   1170d:	6e ca 
   1170f:	66 c7 85 f6 f7 ff ff 	movw   $0x24e8,-0x80a(%rbp)
   11716:	e8 24 
   11718:	66 c7 85 f8 f7 ff ff 	movw   $0x2869,-0x808(%rbp)
   1171f:	69 28 
   11721:	66 c7 85 fa f7 ff ff 	movw   $0xfff7,-0x806(%rbp)
   11728:	f7 ff 
   1172a:	66 c7 85 fc f7 ff ff 	movw   $0x1,-0x804(%rbp)
   11731:	01 00 
   11733:	66 c7 85 fe f7 ff ff 	movw   $0x24e8,-0x802(%rbp)
   1173a:	e8 24 
   1173c:	66 c7 85 00 f8 ff ff 	movw   $0xfff7,-0x800(%rbp)
   11743:	f7 ff 
   11745:	66 c7 85 02 f8 ff ff 	movw   $0x4fd2,-0x7fe(%rbp)
   1174c:	d2 4f 
   1174e:	66 c7 85 04 f8 ff ff 	movw   $0x8,-0x7fc(%rbp)
   11755:	08 00 
   11757:	66 c7 85 06 f8 ff ff 	movw   $0xca6e,-0x7fa(%rbp)
   1175e:	6e ca 
   11760:	66 c7 85 08 f8 ff ff 	movw   $0x0,-0x7f8(%rbp)
   11767:	00 00 
   11769:	66 c7 85 0a f8 ff ff 	movw   $0x0,-0x7f6(%rbp)
   11770:	00 00 
   11772:	66 c7 85 0c f8 ff ff 	movw   $0xfff7,-0x7f4(%rbp)
   11779:	f7 ff 
   1177b:	66 c7 85 0e f8 ff ff 	movw   $0x4fd2,-0x7f2(%rbp)
   11782:	d2 4f 
   11784:	66 c7 85 10 f8 ff ff 	movw   $0x1fc,-0x7f0(%rbp)
   1178b:	fc 01 
   1178d:	66 c7 85 12 f8 ff ff 	movw   $0xfffa,-0x7ee(%rbp)
   11794:	fa ff 
   11796:	66 c7 85 14 f8 ff ff 	movw   $0x1,-0x7ec(%rbp)
   1179d:	01 00 
   1179f:	66 c7 85 16 f8 ff ff 	movw   $0x1fc,-0x7ea(%rbp)
   117a6:	fc 01 
   117a8:	0f b6 85 40 f6 ff ff 	movzbl -0x9c0(%rbp),%eax
   117af:	0f b6 d8             	movzbl %al,%ebx
   117b2:	8b 05 20 b9 00 00    	mov    0xb920(%rip),%eax        # 1d0d8 <g_86+0x98>
   117b8:	44 0f bf e0          	movswl %ax,%r12d
   117bc:	8b 05 1a bc 00 00    	mov    0xbc1a(%rip),%eax        # 1d3dc <g_492+0x1c>
   117c2:	25 ff ff 3f 00       	and    $0x3fffff,%eax
   117c7:	44 0f be e8          	movsbl %al,%r13d
   117cb:	8b 05 ff bb 00 00    	mov    0xbbff(%rip),%eax        # 1d3d0 <g_492+0x10>
   117d1:	01 c0                	add    %eax,%eax
   117d3:	c1 f8 05             	sar    $0x5,%eax
   117d6:	89 85 30 f6 ff ff    	mov    %eax,-0x9d0(%rbp)
   117dc:	48 8b 05 a5 bb 00 00 	mov    0xbba5(%rip),%rax        # 1d388 <g_474+0x8>
   117e3:	44 0f b7 f0          	movzwl %ax,%r14d
   117e7:	0f b6 05 1a bc 00 00 	movzbl 0xbc1a(%rip),%eax        # 1d408 <g_538>
   117ee:	44 0f b6 f8          	movzbl %al,%r15d
   117f2:	8b 85 00 f7 ff ff    	mov    -0x900(%rbp),%eax
   117f8:	48 63 c8             	movslq %eax,%rcx
   117fb:	48 89 8d 28 f6 ff ff 	mov    %rcx,-0x9d8(%rbp)
   11802:	8b 05 40 bb 00 00    	mov    0xbb40(%rip),%eax        # 1d348 <g_223>
   11808:	0f b6 f8             	movzbl %al,%edi
   1180b:	89 bd 24 f6 ff ff    	mov    %edi,-0x9dc(%rbp)
   11811:	8b 85 58 f6 ff ff    	mov    -0x9a8(%rbp),%eax
   11817:	89 85 20 f6 ff ff    	mov    %eax,-0x9e0(%rbp)
   1181d:	8b 05 d1 bb 00 00    	mov    0xbbd1(%rip),%eax        # 1d3f4 <g_500+0x4>
   11823:	48 63 d0             	movslq %eax,%rdx
   11826:	48 89 95 18 f6 ff ff 	mov    %rdx,-0x9e8(%rbp)
   1182d:	0f b7 85 f6 f7 ff ff 	movzwl -0x80a(%rbp),%eax
   11834:	44 0f bf c8          	movswl %ax,%r9d
   11838:	44 89 8d 14 f6 ff ff 	mov    %r9d,-0x9ec(%rbp)
   1183f:	0f b6 85 57 f6 ff ff 	movzbl -0x9a9(%rbp),%eax
   11846:	0f b6 d0             	movzbl %al,%edx
   11849:	0f b7 85 7a f7 ff ff 	movzwl -0x886(%rbp),%eax
   11850:	0f b6 c0             	movzbl %al,%eax
   11853:	89 d6                	mov    %edx,%esi
   11855:	89 c7                	mov    %eax,%edi
   11857:	e8 37 73 ff ff       	callq  8b93 <safe_mul_func_uint8_t_u_u>
   1185c:	0f b6 c0             	movzbl %al,%eax
   1185f:	39 85 14 f6 ff ff    	cmp    %eax,-0x9ec(%rbp)
   11865:	0f 9d c0             	setge  %al
   11868:	0f b6 c0             	movzbl %al,%eax
   1186b:	48 8b b5 18 f6 ff ff 	mov    -0x9e8(%rbp),%rsi
   11872:	48 89 c7             	mov    %rax,%rdi
   11875:	e8 06 78 ff ff       	callq  9080 <safe_mod_func_uint64_t_u_u>
   1187a:	8b b5 20 f6 ff ff    	mov    -0x9e0(%rbp),%esi
   11880:	89 c7                	mov    %eax,%edi
   11882:	e8 49 76 ff ff       	callq  8ed0 <safe_sub_func_uint32_t_u_u>
   11887:	0f b6 d0             	movzbl %al,%edx
   1188a:	8b 05 4c bb 00 00    	mov    0xbb4c(%rip),%eax        # 1d3dc <g_492+0x1c>
   11890:	25 ff ff 3f 00       	and    $0x3fffff,%eax
   11895:	0f b6 c0             	movzbl %al,%eax
   11898:	89 d6                	mov    %edx,%esi
   1189a:	89 c7                	mov    %eax,%edi
   1189c:	e8 d7 72 ff ff       	callq  8b78 <safe_sub_func_uint8_t_u_u>
   118a1:	0f b6 c0             	movzbl %al,%eax
   118a4:	8b b5 24 f6 ff ff    	mov    -0x9dc(%rbp),%esi
   118aa:	89 c7                	mov    %eax,%edi
   118ac:	e8 a9 72 ff ff       	callq  8b5a <safe_add_func_uint8_t_u_u>
   118b1:	0f b6 c0             	movzbl %al,%eax
   118b4:	48 8b b5 28 f6 ff ff 	mov    -0x9d8(%rbp),%rsi
   118bb:	48 89 c7             	mov    %rax,%rdi
   118be:	e8 bd 77 ff ff       	callq  9080 <safe_mod_func_uint64_t_u_u>
   118c3:	4c 89 fe             	mov    %r15,%rsi
   118c6:	48 89 c7             	mov    %rax,%rdi
   118c9:	e8 e1 77 ff ff       	callq  90af <safe_div_func_uint64_t_u_u>
   118ce:	0f b7 c0             	movzwl %ax,%eax
   118d1:	44 89 f6             	mov    %r14d,%esi
   118d4:	89 c7                	mov    %eax,%edi
   118d6:	e8 b3 74 ff ff       	callq  8d8e <safe_div_func_uint16_t_u_u>
   118db:	66 83 f8 01          	cmp    $0x1,%ax
   118df:	0f 95 c0             	setne  %al
   118e2:	0f b6 c0             	movzbl %al,%eax
   118e5:	be fc ff ff ff       	mov    $0xfffffffc,%esi
   118ea:	89 c7                	mov    %eax,%edi
   118ec:	e8 c5 6c ff ff       	callq  85b6 <safe_add_func_int32_t_s_s>
   118f1:	98                   	cwtl   
   118f2:	8b b5 30 f6 ff ff    	mov    -0x9d0(%rbp),%esi
   118f8:	89 c7                	mov    %eax,%edi
   118fa:	e8 64 6c ff ff       	callq  8563 <safe_rshift_func_int16_t_s_u>
   118ff:	0f bf d0             	movswl %ax,%edx
   11902:	8b 85 fc f6 ff ff    	mov    -0x904(%rbp),%eax
   11908:	98                   	cwtl   
   11909:	89 d6                	mov    %edx,%esi
   1190b:	89 c7                	mov    %eax,%edi
   1190d:	e8 a1 6a ff ff       	callq  83b3 <safe_add_func_int16_t_s_s>
   11912:	0f b7 85 7a f7 ff ff 	movzwl -0x886(%rbp),%eax
   11919:	83 c8 01             	or     $0x1,%eax
   1191c:	48 0f bf c0          	movswq %ax,%rax
   11920:	48 89 85 38 f6 ff ff 	mov    %rax,-0x9c8(%rbp)
   11927:	48 b8 cf cb 35 5f be 	movabs $0xc63cbdbe5f35cbcf,%rax
   1192e:	bd 3c c6 
   11931:	48 39 85 38 f6 ff ff 	cmp    %rax,-0x9c8(%rbp)
   11938:	0f 95 c0             	setne  %al
   1193b:	0f b6 c0             	movzbl %al,%eax
   1193e:	44 89 ee             	mov    %r13d,%esi
   11941:	89 c7                	mov    %eax,%edi
   11943:	e8 aa 68 ff ff       	callq  81f2 <safe_sub_func_int8_t_s_s>
   11948:	0f be c0             	movsbl %al,%eax
   1194b:	44 89 e6             	mov    %r12d,%esi
   1194e:	89 c7                	mov    %eax,%edi
   11950:	e8 a0 6a ff ff       	callq  83f5 <safe_mul_func_int16_t_s_s>
   11955:	66 85 c0             	test   %ax,%ax
   11958:	75 09                	jne    11963 <func_46+0x169f>
   1195a:	83 bd 44 f6 ff ff 00 	cmpl   $0x0,-0x9bc(%rbp)
   11961:	74 07                	je     1196a <func_46+0x16a6>
   11963:	b8 01 00 00 00       	mov    $0x1,%eax
   11968:	eb 05                	jmp    1196f <func_46+0x16ab>
   1196a:	b8 00 00 00 00       	mov    $0x0,%eax
   1196f:	85 c0                	test   %eax,%eax
   11971:	0f 95 c0             	setne  %al
   11974:	0f b6 c0             	movzbl %al,%eax
   11977:	89 de                	mov    %ebx,%esi
   11979:	89 c7                	mov    %eax,%edi
   1197b:	e8 53 6a ff ff       	callq  83d3 <safe_sub_func_int16_t_s_s>
   11980:	0f b7 d0             	movzwl %ax,%edx
   11983:	0f b7 85 7a f7 ff ff 	movzwl -0x886(%rbp),%eax
   1198a:	0f b7 c0             	movzwl %ax,%eax
   1198d:	89 d6                	mov    %edx,%esi
   1198f:	89 c7                	mov    %eax,%edi
   11991:	e8 c6 73 ff ff       	callq  8d5c <safe_mod_func_uint16_t_u_u>
   11996:	89 c2                	mov    %eax,%edx
   11998:	48 8b 05 19 12 01 00 	mov    0x11219(%rip),%rax        # 22bb8 <g_74>
   1199f:	0f b7 d2             	movzwl %dx,%edx
   119a2:	89 10                	mov    %edx,(%rax)
   119a4:	83 85 64 f6 ff ff 01 	addl   $0x1,-0x99c(%rbp)
   119ab:	0f b7 05 7c b6 00 00 	movzwl 0xb67c(%rip),%eax        # 1d02e <g_29+0x6>
   119b2:	0f b6 c0             	movzbl %al,%eax
   119b5:	be 03 00 00 00       	mov    $0x3,%esi
   119ba:	89 c7                	mov    %eax,%edi
   119bc:	e8 8b 72 ff ff       	callq  8c4c <safe_lshift_func_uint8_t_u_u>
   119c1:	0f b7 9d 34 f6 ff ff 	movzwl -0x9cc(%rbp),%ebx
   119c8:	48 8b 85 c0 f6 ff ff 	mov    -0x940(%rbp),%rax
   119cf:	8b 00                	mov    (%rax),%eax
   119d1:	41 89 c5             	mov    %eax,%r13d
   119d4:	48 8b 85 c0 f6 ff ff 	mov    -0x940(%rbp),%rax
   119db:	44 8b 20             	mov    (%rax),%r12d
   119de:	8b 05 9c b9 00 00    	mov    0xb99c(%rip),%eax        # 1d380 <g_474>
   119e4:	c1 e0 03             	shl    $0x3,%eax
   119e7:	c1 f8 03             	sar    $0x3,%eax
   119ea:	0f b6 c0             	movzbl %al,%eax
   119ed:	89 c6                	mov    %eax,%esi
   119ef:	bf 01 00 00 00       	mov    $0x1,%edi
   119f4:	e8 7f 71 ff ff       	callq  8b78 <safe_sub_func_uint8_t_u_u>
   119f9:	0f b6 d0             	movzbl %al,%edx
   119fc:	48 8b 05 85 b9 00 00 	mov    0xb985(%rip),%rax        # 1d388 <g_474+0x8>
   11a03:	0f b6 c0             	movzbl %al,%eax
   11a06:	89 d6                	mov    %edx,%esi
   11a08:	89 c7                	mov    %eax,%edi
   11a0a:	e8 84 71 ff ff       	callq  8b93 <safe_mul_func_uint8_t_u_u>
   11a0f:	0f b6 c0             	movzbl %al,%eax
   11a12:	be d7 75 08 4f       	mov    $0x4f0875d7,%esi
   11a17:	89 c7                	mov    %eax,%edi
   11a19:	e8 b2 74 ff ff       	callq  8ed0 <safe_sub_func_uint32_t_u_u>
   11a1e:	0f be d0             	movsbl %al,%edx
   11a21:	0f b7 85 34 f6 ff ff 	movzwl -0x9cc(%rbp),%eax
   11a28:	0f be c0             	movsbl %al,%eax
   11a2b:	89 d6                	mov    %edx,%esi
   11a2d:	89 c7                	mov    %eax,%edi
   11a2f:	e8 be 67 ff ff       	callq  81f2 <safe_sub_func_int8_t_s_s>
   11a34:	3c 03                	cmp    $0x3,%al
   11a36:	0f 9e c0             	setle  %al
   11a39:	0f b6 c0             	movzbl %al,%eax
   11a3c:	41 39 c4             	cmp    %eax,%r12d
   11a3f:	0f 95 c0             	setne  %al
   11a42:	0f b6 c0             	movzbl %al,%eax
   11a45:	44 21 e8             	and    %r13d,%eax
   11a48:	98                   	cwtl   
   11a49:	89 de                	mov    %ebx,%esi
   11a4b:	89 c7                	mov    %eax,%edi
   11a4d:	e8 40 6a ff ff       	callq  8492 <safe_lshift_func_int16_t_s_s>
   11a52:	be 57 b5 ff ff       	mov    $0xffffb557,%esi
   11a57:	bf 00 00 00 00       	mov    $0x0,%edi
   11a5c:	e8 94 69 ff ff       	callq  83f5 <safe_mul_func_int16_t_s_s>
   11a61:	0f b7 c0             	movzwl %ax,%eax
   11a64:	be 03 00 00 00       	mov    $0x3,%esi
   11a69:	89 c7                	mov    %eax,%edi
   11a6b:	e8 0a 74 ff ff       	callq  8e7a <safe_rshift_func_uint16_t_u_u>
   11a70:	0f b7 d0             	movzwl %ax,%edx
   11a73:	48 8b 85 c0 f6 ff ff 	mov    -0x940(%rbp),%rax
   11a7a:	8b 00                	mov    (%rax),%eax
   11a7c:	31 c2                	xor    %eax,%edx
   11a7e:	0f b7 85 34 f6 ff ff 	movzwl -0x9cc(%rbp),%eax
   11a85:	39 c2                	cmp    %eax,%edx
   11a87:	0f 9c c0             	setl   %al
   11a8a:	0f b6 c0             	movzbl %al,%eax
   11a8d:	be 0c 00 00 00       	mov    $0xc,%esi
   11a92:	89 c7                	mov    %eax,%edi
   11a94:	e8 48 6a ff ff       	callq  84e1 <safe_lshift_func_int16_t_s_u>
   11a99:	89 c2                	mov    %eax,%edx
   11a9b:	48 8b 05 ce 16 01 00 	mov    0x116ce(%rip),%rax        # 23170 <g_503>
   11aa2:	48 8b 00             	mov    (%rax),%rax
   11aa5:	0f bf d2             	movswl %dx,%edx
   11aa8:	89 10                	mov    %edx,(%rax)
   11aaa:	0f b6 85 40 f6 ff ff 	movzbl -0x9c0(%rbp),%eax
   11ab1:	0f b6 c0             	movzbl %al,%eax
   11ab4:	48 8b 5d c8          	mov    -0x38(%rbp),%rbx
   11ab8:	64 48 33 1c 25 28 00 	xor    %fs:0x28,%rbx
   11abf:	00 00 
   11ac1:	74 05                	je     11ac8 <func_46+0x1804>
   11ac3:	e8 a8 65 ff ff       	callq  8070 <__stack_chk_fail@plt>
   11ac8:	48 81 c4 c8 09 00 00 	add    $0x9c8,%rsp
   11acf:	5b                   	pop    %rbx
   11ad0:	41 5c                	pop    %r12
   11ad2:	41 5d                	pop    %r13
   11ad4:	41 5e                	pop    %r14
   11ad6:	41 5f                	pop    %r15
   11ad8:	5d                   	pop    %rbp
   11ad9:	c3                   	retq   

0000000000011ada <func_52>:
   11ada:	f3 0f 1e fa          	endbr64 
   11ade:	55                   	push   %rbp
   11adf:	48 89 e5             	mov    %rsp,%rbp
   11ae2:	48 81 ec f0 0b 00 00 	sub    $0xbf0,%rsp
   11ae9:	89 f8                	mov    %edi,%eax
   11aeb:	88 85 1c f4 ff ff    	mov    %al,-0xbe4(%rbp)
   11af1:	64 48 8b 04 25 28 00 	mov    %fs:0x28,%rax
   11af8:	00 00 
   11afa:	48 89 45 f8          	mov    %rax,-0x8(%rbp)
   11afe:	31 c0                	xor    %eax,%eax
   11b00:	48 8d 85 00 f5 ff ff 	lea    -0xb00(%rbp),%rax
   11b07:	48 83 c0 10          	add    $0x10,%rax
   11b0b:	48 89 85 80 f4 ff ff 	mov    %rax,-0xb80(%rbp)
   11b12:	c6 85 22 f4 ff ff 0c 	movb   $0xc,-0xbde(%rbp)
   11b19:	48 8d 05 d8 b7 00 00 	lea    0xb7d8(%rip),%rax        # 1d2f8 <g_161>
   11b20:	48 89 85 88 f4 ff ff 	mov    %rax,-0xb78(%rbp)
   11b27:	48 c7 85 90 f4 ff ff 	movq   $0x0,-0xb70(%rbp)
   11b2e:	00 00 00 00 
   11b32:	48 b8 69 20 8a 9a 2a 	movabs $0xc668742a9a8a2069,%rax
   11b39:	74 68 c6 
   11b3c:	48 89 85 68 f4 ff ff 	mov    %rax,-0xb98(%rbp)
   11b43:	66 c7 85 26 f4 ff ff 	movw   $0xd863,-0xbda(%rbp)
   11b4a:	63 d8 
   11b4c:	48 8d 85 68 f4 ff ff 	lea    -0xb98(%rbp),%rax
   11b53:	48 89 85 70 f4 ff ff 	mov    %rax,-0xb90(%rbp)
   11b5a:	66 c7 85 c0 f5 ff ff 	movw   $0x1,-0xa40(%rbp)
   11b61:	01 00 
   11b63:	66 c7 85 c2 f5 ff ff 	movw   $0x5,-0xa3e(%rbp)
   11b6a:	05 00 
   11b6c:	66 c7 85 c4 f5 ff ff 	movw   $0x351d,-0xa3c(%rbp)
   11b73:	1d 35 
   11b75:	66 c7 85 c6 f5 ff ff 	movw   $0x5,-0xa3a(%rbp)
   11b7c:	05 00 
   11b7e:	66 c7 85 c8 f5 ff ff 	movw   $0x1,-0xa38(%rbp)
   11b85:	01 00 
   11b87:	66 c7 85 ca f5 ff ff 	movw   $0x8,-0xa36(%rbp)
   11b8e:	08 00 
   11b90:	66 c7 85 cc f5 ff ff 	movw   $0x1,-0xa34(%rbp)
   11b97:	01 00 
   11b99:	66 c7 85 ce f5 ff ff 	movw   $0xfff7,-0xa32(%rbp)
   11ba0:	f7 ff 
   11ba2:	66 c7 85 d0 f5 ff ff 	movw   $0x5,-0xa30(%rbp)
   11ba9:	05 00 
   11bab:	66 c7 85 d2 f5 ff ff 	movw   $0xe6c7,-0xa2e(%rbp)
   11bb2:	c7 e6 
   11bb4:	66 c7 85 d4 f5 ff ff 	movw   $0xffff,-0xa2c(%rbp)
   11bbb:	ff ff 
   11bbd:	66 c7 85 d6 f5 ff ff 	movw   $0xffff,-0xa2a(%rbp)
   11bc4:	ff ff 
   11bc6:	66 c7 85 d8 f5 ff ff 	movw   $0xfff7,-0xa28(%rbp)
   11bcd:	f7 ff 
   11bcf:	66 c7 85 da f5 ff ff 	movw   $0x1,-0xa26(%rbp)
   11bd6:	01 00 
   11bd8:	66 c7 85 dc f5 ff ff 	movw   $0x1,-0xa24(%rbp)
   11bdf:	01 00 
   11be1:	66 c7 85 de f5 ff ff 	movw   $0xfff7,-0xa22(%rbp)
   11be8:	f7 ff 
   11bea:	66 c7 85 e0 f5 ff ff 	movw   $0x351d,-0xa20(%rbp)
   11bf1:	1d 35 
   11bf3:	66 c7 85 e2 f5 ff ff 	movw   $0xffff,-0xa1e(%rbp)
   11bfa:	ff ff 
   11bfc:	66 c7 85 e4 f5 ff ff 	movw   $0x1,-0xa1c(%rbp)
   11c03:	01 00 
   11c05:	66 c7 85 e6 f5 ff ff 	movw   $0xffff,-0xa1a(%rbp)
   11c0c:	ff ff 
   11c0e:	66 c7 85 e8 f5 ff ff 	movw   $0x5,-0xa18(%rbp)
   11c15:	05 00 
   11c17:	66 c7 85 ea f5 ff ff 	movw   $0x8,-0xa16(%rbp)
   11c1e:	08 00 
   11c20:	66 c7 85 ec f5 ff ff 	movw   $0xe6c7,-0xa14(%rbp)
   11c27:	c7 e6 
   11c29:	66 c7 85 ee f5 ff ff 	movw   $0x8,-0xa12(%rbp)
   11c30:	08 00 
   11c32:	66 c7 85 f0 f5 ff ff 	movw   $0x351d,-0xa10(%rbp)
   11c39:	1d 35 
   11c3b:	66 c7 85 f2 f5 ff ff 	movw   $0xfff9,-0xa0e(%rbp)
   11c42:	f9 ff 
   11c44:	66 c7 85 f4 f5 ff ff 	movw   $0x351d,-0xa0c(%rbp)
   11c4b:	1d 35 
   11c4d:	66 c7 85 f6 f5 ff ff 	movw   $0x7a88,-0xa0a(%rbp)
   11c54:	88 7a 
   11c56:	66 c7 85 f8 f5 ff ff 	movw   $0xe6c7,-0xa08(%rbp)
   11c5d:	c7 e6 
   11c5f:	66 c7 85 fa f5 ff ff 	movw   $0x1,-0xa06(%rbp)
   11c66:	01 00 
   11c68:	66 c7 85 fc f5 ff ff 	movw   $0x5,-0xa04(%rbp)
   11c6f:	05 00 
   11c71:	66 c7 85 fe f5 ff ff 	movw   $0xffff,-0xa02(%rbp)
   11c78:	ff ff 
   11c7a:	66 c7 85 00 f6 ff ff 	movw   $0x1,-0xa00(%rbp)
   11c81:	01 00 
   11c83:	66 c7 85 02 f6 ff ff 	movw   $0x351d,-0x9fe(%rbp)
   11c8a:	1d 35 
   11c8c:	66 c7 85 04 f6 ff ff 	movw   $0x351d,-0x9fc(%rbp)
   11c93:	1d 35 
   11c95:	66 c7 85 06 f6 ff ff 	movw   $0x1,-0x9fa(%rbp)
   11c9c:	01 00 
   11c9e:	66 c7 85 08 f6 ff ff 	movw   $0x1,-0x9f8(%rbp)
   11ca5:	01 00 
   11ca7:	66 c7 85 0a f6 ff ff 	movw   $0x1,-0x9f6(%rbp)
   11cae:	01 00 
   11cb0:	66 c7 85 0c f6 ff ff 	movw   $0xfff7,-0x9f4(%rbp)
   11cb7:	f7 ff 
   11cb9:	66 c7 85 0e f6 ff ff 	movw   $0x351d,-0x9f2(%rbp)
   11cc0:	1d 35 
   11cc2:	66 c7 85 10 f6 ff ff 	movw   $0xffff,-0x9f0(%rbp)
   11cc9:	ff ff 
   11ccb:	66 c7 85 12 f6 ff ff 	movw   $0x7a88,-0x9ee(%rbp)
   11cd2:	88 7a 
   11cd4:	66 c7 85 14 f6 ff ff 	movw   $0x5,-0x9ec(%rbp)
   11cdb:	05 00 
   11cdd:	66 c7 85 16 f6 ff ff 	movw   $0xfff7,-0x9ea(%rbp)
   11ce4:	f7 ff 
   11ce6:	66 c7 85 18 f6 ff ff 	movw   $0x1,-0x9e8(%rbp)
   11ced:	01 00 
   11cef:	66 c7 85 1a f6 ff ff 	movw   $0x7a88,-0x9e6(%rbp)
   11cf6:	88 7a 
   11cf8:	66 c7 85 1c f6 ff ff 	movw   $0x1,-0x9e4(%rbp)
   11cff:	01 00 
   11d01:	66 c7 85 1e f6 ff ff 	movw   $0xfff7,-0x9e2(%rbp)
   11d08:	f7 ff 
   11d0a:	66 c7 85 20 f6 ff ff 	movw   $0x8,-0x9e0(%rbp)
   11d11:	08 00 
   11d13:	66 c7 85 22 f6 ff ff 	movw   $0xfff9,-0x9de(%rbp)
   11d1a:	f9 ff 
   11d1c:	66 c7 85 24 f6 ff ff 	movw   $0x1,-0x9dc(%rbp)
   11d23:	01 00 
   11d25:	66 c7 85 26 f6 ff ff 	movw   $0xfff7,-0x9da(%rbp)
   11d2c:	f7 ff 
   11d2e:	66 c7 85 28 f6 ff ff 	movw   $0x7a88,-0x9d8(%rbp)
   11d35:	88 7a 
   11d37:	66 c7 85 2a f6 ff ff 	movw   $0x5,-0x9d6(%rbp)
   11d3e:	05 00 
   11d40:	66 c7 85 2c f6 ff ff 	movw   $0x351d,-0x9d4(%rbp)
   11d47:	1d 35 
   11d49:	66 c7 85 2e f6 ff ff 	movw   $0xfff7,-0x9d2(%rbp)
   11d50:	f7 ff 
   11d52:	66 c7 85 30 f6 ff ff 	movw   $0x1,-0x9d0(%rbp)
   11d59:	01 00 
   11d5b:	66 c7 85 32 f6 ff ff 	movw   $0x1,-0x9ce(%rbp)
   11d62:	01 00 
   11d64:	66 c7 85 34 f6 ff ff 	movw   $0xfff7,-0x9cc(%rbp)
   11d6b:	f7 ff 
   11d6d:	66 c7 85 36 f6 ff ff 	movw   $0x351d,-0x9ca(%rbp)
   11d74:	1d 35 
   11d76:	48 c7 85 98 f4 ff ff 	movq   $0x0,-0xb68(%rbp)
   11d7d:	00 00 00 00 
   11d81:	48 8d 05 28 11 01 00 	lea    0x11128(%rip),%rax        # 22eb0 <g_191>
   11d88:	48 89 85 a0 f4 ff ff 	mov    %rax,-0xb60(%rbp)
   11d8f:	c7 85 3c f4 ff ff 04 	movl   $0x4,-0xbc4(%rbp)
   11d96:	00 00 00 
   11d99:	66 c7 85 28 f4 ff ff 	movw   $0xffff,-0xbd8(%rbp)
   11da0:	ff ff 
   11da2:	c7 85 30 f4 ff ff 00 	movl   $0x0,-0xbd0(%rbp)
   11da9:	00 00 00 
   11dac:	eb 1b                	jmp    11dc9 <func_52+0x2ef>
   11dae:	8b 85 30 f4 ff ff    	mov    -0xbd0(%rbp),%eax
   11db4:	48 98                	cltq   
   11db6:	48 c7 84 c5 00 f5 ff 	movq   $0x0,-0xb00(%rbp,%rax,8)
   11dbd:	ff 00 00 00 00 
   11dc2:	83 85 30 f4 ff ff 01 	addl   $0x1,-0xbd0(%rbp)
   11dc9:	83 bd 30 f4 ff ff 03 	cmpl   $0x3,-0xbd0(%rbp)
   11dd0:	7e dc                	jle    11dae <func_52+0x2d4>
   11dd2:	48 8b 05 df 0d 01 00 	mov    0x10ddf(%rip),%rax        # 22bb8 <g_74>
   11dd9:	8b 10                	mov    (%rax),%edx
   11ddb:	48 8b 05 d6 0d 01 00 	mov    0x10dd6(%rip),%rax        # 22bb8 <g_74>
   11de2:	81 f2 34 ed 1f 1f    	xor    $0x1f1fed34,%edx
   11de8:	89 10                	mov    %edx,(%rax)
   11dea:	48 8b 95 00 f5 ff ff 	mov    -0xb00(%rbp),%rdx
   11df1:	48 8b 85 80 f4 ff ff 	mov    -0xb80(%rbp),%rax
   11df8:	48 89 10             	mov    %rdx,(%rax)
   11dfb:	c7 05 2f b2 00 00 f4 	movl   $0xfffffff4,0xb22f(%rip)        # 1d034 <g_31>
   11e02:	ff ff ff 
   11e05:	e9 88 10 00 00       	jmpq   12e92 <func_52+0x13b8>
   11e0a:	c7 85 40 f4 ff ff 01 	movl   $0x1,-0xbc0(%rbp)
   11e11:	00 00 00 
   11e14:	48 8d 05 13 b2 00 00 	lea    0xb213(%rip),%rax        # 1d02e <g_29+0x6>
   11e1b:	48 89 85 78 f4 ff ff 	mov    %rax,-0xb88(%rbp)
   11e22:	48 8d 85 78 f4 ff ff 	lea    -0xb88(%rbp),%rax
   11e29:	48 89 85 a8 f4 ff ff 	mov    %rax,-0xb58(%rbp)
   11e30:	c7 85 44 f4 ff ff 7f 	movl   $0xe5ec2f7f,-0xbbc(%rbp)
   11e37:	2f ec e5 
   11e3a:	48 8d 05 a3 b4 00 00 	lea    0xb4a3(%rip),%rax        # 1d2e4 <g_108>
   11e41:	48 89 85 b0 f4 ff ff 	mov    %rax,-0xb50(%rbp)
   11e48:	48 8d 85 e0 f6 ff ff 	lea    -0x920(%rbp),%rax
   11e4f:	48 8d 15 ea 71 00 00 	lea    0x71ea(%rip),%rdx        # 19040 <g_2539+0x600>
   11e56:	b9 32 00 00 00       	mov    $0x32,%ecx
   11e5b:	48 89 c7             	mov    %rax,%rdi
   11e5e:	48 89 d6             	mov    %rdx,%rsi
   11e61:	f3 48 a5             	rep movsq %ds:(%rsi),%es:(%rdi)
   11e64:	c7 85 48 f4 ff ff fb 	movl   $0xfffffffb,-0xbb8(%rbp)
   11e6b:	ff ff ff 
   11e6e:	c7 85 4c f4 ff ff 09 	movl   $0x9,-0xbb4(%rbp)
   11e75:	00 00 00 
   11e78:	48 8d 05 51 37 01 00 	lea    0x13751(%rip),%rax        # 255d0 <g_120>
   11e7f:	48 89 85 b8 f4 ff ff 	mov    %rax,-0xb48(%rbp)
   11e86:	48 8d 05 6b b4 00 00 	lea    0xb46b(%rip),%rax        # 1d2f8 <g_161>
   11e8d:	48 89 85 c0 f4 ff ff 	mov    %rax,-0xb40(%rbp)
   11e94:	48 8d 05 8d b4 00 00 	lea    0xb48d(%rip),%rax        # 1d328 <g_192+0x28>
   11e9b:	48 89 85 c8 f4 ff ff 	mov    %rax,-0xb38(%rbp)
   11ea2:	48 8d 85 68 f4 ff ff 	lea    -0xb98(%rbp),%rax
   11ea9:	48 89 85 d0 f4 ff ff 	mov    %rax,-0xb30(%rbp)
   11eb0:	48 c7 85 d8 f4 ff ff 	movq   $0x0,-0xb28(%rbp)
   11eb7:	00 00 00 00 
   11ebb:	48 8d 85 70 f4 ff ff 	lea    -0xb90(%rbp),%rax
   11ec2:	48 89 85 e0 f4 ff ff 	mov    %rax,-0xb20(%rbp)
   11ec9:	48 8d 85 68 f4 ff ff 	lea    -0xb98(%rbp),%rax
   11ed0:	48 89 85 70 f8 ff ff 	mov    %rax,-0x790(%rbp)
   11ed7:	48 8d 85 68 f4 ff ff 	lea    -0xb98(%rbp),%rax
   11ede:	48 89 85 78 f8 ff ff 	mov    %rax,-0x788(%rbp)
   11ee5:	48 8d 85 68 f4 ff ff 	lea    -0xb98(%rbp),%rax
   11eec:	48 89 85 80 f8 ff ff 	mov    %rax,-0x780(%rbp)
   11ef3:	48 8d 85 68 f4 ff ff 	lea    -0xb98(%rbp),%rax
   11efa:	48 89 85 88 f8 ff ff 	mov    %rax,-0x778(%rbp)
   11f01:	48 c7 85 90 f8 ff ff 	movq   $0x0,-0x770(%rbp)
   11f08:	00 00 00 00 
   11f0c:	48 8d 85 68 f4 ff ff 	lea    -0xb98(%rbp),%rax
   11f13:	48 89 85 98 f8 ff ff 	mov    %rax,-0x768(%rbp)
   11f1a:	48 8d 85 68 f4 ff ff 	lea    -0xb98(%rbp),%rax
   11f21:	48 89 85 a0 f8 ff ff 	mov    %rax,-0x760(%rbp)
   11f28:	48 8d 85 68 f4 ff ff 	lea    -0xb98(%rbp),%rax
   11f2f:	48 89 85 a8 f8 ff ff 	mov    %rax,-0x758(%rbp)
   11f36:	48 8d 85 68 f4 ff ff 	lea    -0xb98(%rbp),%rax
   11f3d:	48 89 85 b0 f8 ff ff 	mov    %rax,-0x750(%rbp)
   11f44:	48 8d 85 68 f4 ff ff 	lea    -0xb98(%rbp),%rax
   11f4b:	48 89 85 b8 f8 ff ff 	mov    %rax,-0x748(%rbp)
   11f52:	48 8d 85 68 f4 ff ff 	lea    -0xb98(%rbp),%rax
   11f59:	48 89 85 c0 f8 ff ff 	mov    %rax,-0x740(%rbp)
   11f60:	48 8d 85 68 f4 ff ff 	lea    -0xb98(%rbp),%rax
   11f67:	48 89 85 c8 f8 ff ff 	mov    %rax,-0x738(%rbp)
   11f6e:	48 c7 85 d0 f8 ff ff 	movq   $0x0,-0x730(%rbp)
   11f75:	00 00 00 00 
   11f79:	48 8d 85 68 f4 ff ff 	lea    -0xb98(%rbp),%rax
   11f80:	48 89 85 d8 f8 ff ff 	mov    %rax,-0x728(%rbp)
   11f87:	48 8d 85 68 f4 ff ff 	lea    -0xb98(%rbp),%rax
   11f8e:	48 89 85 e0 f8 ff ff 	mov    %rax,-0x720(%rbp)
   11f95:	48 8d 85 68 f4 ff ff 	lea    -0xb98(%rbp),%rax
   11f9c:	48 89 85 e8 f8 ff ff 	mov    %rax,-0x718(%rbp)
   11fa3:	48 8d 85 68 f4 ff ff 	lea    -0xb98(%rbp),%rax
   11faa:	48 89 85 f0 f8 ff ff 	mov    %rax,-0x710(%rbp)
   11fb1:	48 8d 85 68 f4 ff ff 	lea    -0xb98(%rbp),%rax
   11fb8:	48 89 85 f8 f8 ff ff 	mov    %rax,-0x708(%rbp)
   11fbf:	48 c7 85 00 f9 ff ff 	movq   $0x0,-0x700(%rbp)
   11fc6:	00 00 00 00 
   11fca:	48 8d 85 68 f4 ff ff 	lea    -0xb98(%rbp),%rax
   11fd1:	48 89 85 08 f9 ff ff 	mov    %rax,-0x6f8(%rbp)
   11fd8:	48 8d 85 68 f4 ff ff 	lea    -0xb98(%rbp),%rax
   11fdf:	48 89 85 10 f9 ff ff 	mov    %rax,-0x6f0(%rbp)
   11fe6:	48 8d 85 68 f4 ff ff 	lea    -0xb98(%rbp),%rax
   11fed:	48 89 85 18 f9 ff ff 	mov    %rax,-0x6e8(%rbp)
   11ff4:	48 8d 85 68 f4 ff ff 	lea    -0xb98(%rbp),%rax
   11ffb:	48 89 85 20 f9 ff ff 	mov    %rax,-0x6e0(%rbp)
   12002:	48 8d 85 68 f4 ff ff 	lea    -0xb98(%rbp),%rax
   12009:	48 89 85 28 f9 ff ff 	mov    %rax,-0x6d8(%rbp)
   12010:	48 8d 85 68 f4 ff ff 	lea    -0xb98(%rbp),%rax
   12017:	48 89 85 30 f9 ff ff 	mov    %rax,-0x6d0(%rbp)
   1201e:	48 c7 85 38 f9 ff ff 	movq   $0x0,-0x6c8(%rbp)
   12025:	00 00 00 00 
   12029:	48 8d 85 68 f4 ff ff 	lea    -0xb98(%rbp),%rax
   12030:	48 89 85 40 f9 ff ff 	mov    %rax,-0x6c0(%rbp)
   12037:	48 c7 85 48 f9 ff ff 	movq   $0x0,-0x6b8(%rbp)
   1203e:	00 00 00 00 
   12042:	48 8d 85 68 f4 ff ff 	lea    -0xb98(%rbp),%rax
   12049:	48 89 85 50 f9 ff ff 	mov    %rax,-0x6b0(%rbp)
   12050:	48 8d 85 68 f4 ff ff 	lea    -0xb98(%rbp),%rax
   12057:	48 89 85 58 f9 ff ff 	mov    %rax,-0x6a8(%rbp)
   1205e:	48 8d 85 68 f4 ff ff 	lea    -0xb98(%rbp),%rax
   12065:	48 89 85 60 f9 ff ff 	mov    %rax,-0x6a0(%rbp)
   1206c:	48 8d 85 68 f4 ff ff 	lea    -0xb98(%rbp),%rax
   12073:	48 89 85 68 f9 ff ff 	mov    %rax,-0x698(%rbp)
   1207a:	48 8d 85 68 f4 ff ff 	lea    -0xb98(%rbp),%rax
   12081:	48 89 85 70 f9 ff ff 	mov    %rax,-0x690(%rbp)
   12088:	48 8d 85 68 f4 ff ff 	lea    -0xb98(%rbp),%rax
   1208f:	48 89 85 78 f9 ff ff 	mov    %rax,-0x688(%rbp)
   12096:	48 c7 85 80 f9 ff ff 	movq   $0x0,-0x680(%rbp)
   1209d:	00 00 00 00 
   120a1:	48 8d 85 68 f4 ff ff 	lea    -0xb98(%rbp),%rax
   120a8:	48 89 85 88 f9 ff ff 	mov    %rax,-0x678(%rbp)
   120af:	48 8d 85 68 f4 ff ff 	lea    -0xb98(%rbp),%rax
   120b6:	48 89 85 90 f9 ff ff 	mov    %rax,-0x670(%rbp)
   120bd:	48 8d 85 68 f4 ff ff 	lea    -0xb98(%rbp),%rax
   120c4:	48 89 85 98 f9 ff ff 	mov    %rax,-0x668(%rbp)
   120cb:	48 8d 85 68 f4 ff ff 	lea    -0xb98(%rbp),%rax
   120d2:	48 89 85 a0 f9 ff ff 	mov    %rax,-0x660(%rbp)
   120d9:	48 c7 85 a8 f9 ff ff 	movq   $0x0,-0x658(%rbp)
   120e0:	00 00 00 00 
   120e4:	48 8d 85 68 f4 ff ff 	lea    -0xb98(%rbp),%rax
   120eb:	48 89 85 b0 f9 ff ff 	mov    %rax,-0x650(%rbp)
   120f2:	48 8d 85 68 f4 ff ff 	lea    -0xb98(%rbp),%rax
   120f9:	48 89 85 b8 f9 ff ff 	mov    %rax,-0x648(%rbp)
   12100:	48 c7 85 c0 f9 ff ff 	movq   $0x0,-0x640(%rbp)
   12107:	00 00 00 00 
   1210b:	48 8d 85 68 f4 ff ff 	lea    -0xb98(%rbp),%rax
   12112:	48 89 85 c8 f9 ff ff 	mov    %rax,-0x638(%rbp)
   12119:	48 8d 85 68 f4 ff ff 	lea    -0xb98(%rbp),%rax
   12120:	48 89 85 d0 f9 ff ff 	mov    %rax,-0x630(%rbp)
   12127:	48 8d 85 68 f4 ff ff 	lea    -0xb98(%rbp),%rax
   1212e:	48 89 85 d8 f9 ff ff 	mov    %rax,-0x628(%rbp)
   12135:	48 8d 85 68 f4 ff ff 	lea    -0xb98(%rbp),%rax
   1213c:	48 89 85 e0 f9 ff ff 	mov    %rax,-0x620(%rbp)
   12143:	48 8d 85 68 f4 ff ff 	lea    -0xb98(%rbp),%rax
   1214a:	48 89 85 e8 f9 ff ff 	mov    %rax,-0x618(%rbp)
   12151:	48 8d 85 68 f4 ff ff 	lea    -0xb98(%rbp),%rax
   12158:	48 89 85 f0 f9 ff ff 	mov    %rax,-0x610(%rbp)
   1215f:	48 8d 85 68 f4 ff ff 	lea    -0xb98(%rbp),%rax
   12166:	48 89 85 f8 f9 ff ff 	mov    %rax,-0x608(%rbp)
   1216d:	48 8d 85 68 f4 ff ff 	lea    -0xb98(%rbp),%rax
   12174:	48 89 85 00 fa ff ff 	mov    %rax,-0x600(%rbp)
   1217b:	48 8d 85 68 f4 ff ff 	lea    -0xb98(%rbp),%rax
   12182:	48 89 85 08 fa ff ff 	mov    %rax,-0x5f8(%rbp)
   12189:	48 8d 85 68 f4 ff ff 	lea    -0xb98(%rbp),%rax
   12190:	48 89 85 10 fa ff ff 	mov    %rax,-0x5f0(%rbp)
   12197:	48 8d 85 68 f4 ff ff 	lea    -0xb98(%rbp),%rax
   1219e:	48 89 85 18 fa ff ff 	mov    %rax,-0x5e8(%rbp)
   121a5:	48 c7 85 20 fa ff ff 	movq   $0x0,-0x5e0(%rbp)
   121ac:	00 00 00 00 
   121b0:	48 8d 85 68 f4 ff ff 	lea    -0xb98(%rbp),%rax
   121b7:	48 89 85 28 fa ff ff 	mov    %rax,-0x5d8(%rbp)
   121be:	48 8d 85 68 f4 ff ff 	lea    -0xb98(%rbp),%rax
   121c5:	48 89 85 30 fa ff ff 	mov    %rax,-0x5d0(%rbp)
   121cc:	48 8d 85 68 f4 ff ff 	lea    -0xb98(%rbp),%rax
   121d3:	48 89 85 38 fa ff ff 	mov    %rax,-0x5c8(%rbp)
   121da:	48 8d 85 68 f4 ff ff 	lea    -0xb98(%rbp),%rax
   121e1:	48 89 85 40 fa ff ff 	mov    %rax,-0x5c0(%rbp)
   121e8:	48 8d 85 68 f4 ff ff 	lea    -0xb98(%rbp),%rax
   121ef:	48 89 85 48 fa ff ff 	mov    %rax,-0x5b8(%rbp)
   121f6:	48 8d 85 68 f4 ff ff 	lea    -0xb98(%rbp),%rax
   121fd:	48 89 85 50 fa ff ff 	mov    %rax,-0x5b0(%rbp)
   12204:	48 8d 85 68 f4 ff ff 	lea    -0xb98(%rbp),%rax
   1220b:	48 89 85 58 fa ff ff 	mov    %rax,-0x5a8(%rbp)
   12212:	48 c7 85 60 fa ff ff 	movq   $0x0,-0x5a0(%rbp)
   12219:	00 00 00 00 
   1221d:	48 c7 85 68 fa ff ff 	movq   $0x0,-0x598(%rbp)
   12224:	00 00 00 00 
   12228:	48 8d 85 68 f4 ff ff 	lea    -0xb98(%rbp),%rax
   1222f:	48 89 85 70 fa ff ff 	mov    %rax,-0x590(%rbp)
   12236:	48 c7 85 78 fa ff ff 	movq   $0x0,-0x588(%rbp)
   1223d:	00 00 00 00 
   12241:	48 c7 85 80 fa ff ff 	movq   $0x0,-0x580(%rbp)
   12248:	00 00 00 00 
   1224c:	48 8d 85 68 f4 ff ff 	lea    -0xb98(%rbp),%rax
   12253:	48 89 85 88 fa ff ff 	mov    %rax,-0x578(%rbp)
   1225a:	48 8d 85 68 f4 ff ff 	lea    -0xb98(%rbp),%rax
   12261:	48 89 85 90 fa ff ff 	mov    %rax,-0x570(%rbp)
   12268:	48 8d 85 68 f4 ff ff 	lea    -0xb98(%rbp),%rax
   1226f:	48 89 85 98 fa ff ff 	mov    %rax,-0x568(%rbp)
   12276:	48 8d 85 68 f4 ff ff 	lea    -0xb98(%rbp),%rax
   1227d:	48 89 85 a0 fa ff ff 	mov    %rax,-0x560(%rbp)
   12284:	48 8d 85 68 f4 ff ff 	lea    -0xb98(%rbp),%rax
   1228b:	48 89 85 a8 fa ff ff 	mov    %rax,-0x558(%rbp)
   12292:	48 8d 85 68 f4 ff ff 	lea    -0xb98(%rbp),%rax
   12299:	48 89 85 b0 fa ff ff 	mov    %rax,-0x550(%rbp)
   122a0:	48 8d 85 68 f4 ff ff 	lea    -0xb98(%rbp),%rax
   122a7:	48 89 85 b8 fa ff ff 	mov    %rax,-0x548(%rbp)
   122ae:	48 8d 85 68 f4 ff ff 	lea    -0xb98(%rbp),%rax
   122b5:	48 89 85 c0 fa ff ff 	mov    %rax,-0x540(%rbp)
   122bc:	48 c7 85 c8 fa ff ff 	movq   $0x0,-0x538(%rbp)
   122c3:	00 00 00 00 
   122c7:	48 8d 85 68 f4 ff ff 	lea    -0xb98(%rbp),%rax
   122ce:	48 89 85 d0 fa ff ff 	mov    %rax,-0x530(%rbp)
   122d5:	48 8d 85 68 f4 ff ff 	lea    -0xb98(%rbp),%rax
   122dc:	48 89 85 d8 fa ff ff 	mov    %rax,-0x528(%rbp)
   122e3:	48 8d 85 68 f4 ff ff 	lea    -0xb98(%rbp),%rax
   122ea:	48 89 85 e0 fa ff ff 	mov    %rax,-0x520(%rbp)
   122f1:	48 8d 85 68 f4 ff ff 	lea    -0xb98(%rbp),%rax
   122f8:	48 89 85 e8 fa ff ff 	mov    %rax,-0x518(%rbp)
   122ff:	48 c7 85 f0 fa ff ff 	movq   $0x0,-0x510(%rbp)
   12306:	00 00 00 00 
   1230a:	48 8d 85 68 f4 ff ff 	lea    -0xb98(%rbp),%rax
   12311:	48 89 85 f8 fa ff ff 	mov    %rax,-0x508(%rbp)
   12318:	48 8d 85 68 f4 ff ff 	lea    -0xb98(%rbp),%rax
   1231f:	48 89 85 00 fb ff ff 	mov    %rax,-0x500(%rbp)
   12326:	48 8d 85 68 f4 ff ff 	lea    -0xb98(%rbp),%rax
   1232d:	48 89 85 08 fb ff ff 	mov    %rax,-0x4f8(%rbp)
   12334:	48 8d 85 68 f4 ff ff 	lea    -0xb98(%rbp),%rax
   1233b:	48 89 85 10 fb ff ff 	mov    %rax,-0x4f0(%rbp)
   12342:	48 8d 85 68 f4 ff ff 	lea    -0xb98(%rbp),%rax
   12349:	48 89 85 18 fb ff ff 	mov    %rax,-0x4e8(%rbp)
   12350:	48 c7 85 20 fb ff ff 	movq   $0x0,-0x4e0(%rbp)
   12357:	00 00 00 00 
   1235b:	48 c7 85 28 fb ff ff 	movq   $0x0,-0x4d8(%rbp)
   12362:	00 00 00 00 
   12366:	48 8d 85 68 f4 ff ff 	lea    -0xb98(%rbp),%rax
   1236d:	48 89 85 30 fb ff ff 	mov    %rax,-0x4d0(%rbp)
   12374:	48 8d 85 68 f4 ff ff 	lea    -0xb98(%rbp),%rax
   1237b:	48 89 85 38 fb ff ff 	mov    %rax,-0x4c8(%rbp)
   12382:	48 8d 85 68 f4 ff ff 	lea    -0xb98(%rbp),%rax
   12389:	48 89 85 40 fb ff ff 	mov    %rax,-0x4c0(%rbp)
   12390:	48 8d 85 68 f4 ff ff 	lea    -0xb98(%rbp),%rax
   12397:	48 89 85 48 fb ff ff 	mov    %rax,-0x4b8(%rbp)
   1239e:	48 8d 85 68 f4 ff ff 	lea    -0xb98(%rbp),%rax
   123a5:	48 89 85 50 fb ff ff 	mov    %rax,-0x4b0(%rbp)
   123ac:	48 8d 85 68 f4 ff ff 	lea    -0xb98(%rbp),%rax
   123b3:	48 89 85 58 fb ff ff 	mov    %rax,-0x4a8(%rbp)
   123ba:	48 8d 85 68 f4 ff ff 	lea    -0xb98(%rbp),%rax
   123c1:	48 89 85 60 fb ff ff 	mov    %rax,-0x4a0(%rbp)
   123c8:	48 c7 85 68 fb ff ff 	movq   $0x0,-0x498(%rbp)
   123cf:	00 00 00 00 
   123d3:	48 8d 85 68 f4 ff ff 	lea    -0xb98(%rbp),%rax
   123da:	48 89 85 70 fb ff ff 	mov    %rax,-0x490(%rbp)
   123e1:	48 8d 85 68 f4 ff ff 	lea    -0xb98(%rbp),%rax
   123e8:	48 89 85 78 fb ff ff 	mov    %rax,-0x488(%rbp)
   123ef:	48 8d 85 68 f4 ff ff 	lea    -0xb98(%rbp),%rax
   123f6:	48 89 85 80 fb ff ff 	mov    %rax,-0x480(%rbp)
   123fd:	48 8d 85 68 f4 ff ff 	lea    -0xb98(%rbp),%rax
   12404:	48 89 85 88 fb ff ff 	mov    %rax,-0x478(%rbp)
   1240b:	48 c7 85 90 fb ff ff 	movq   $0x0,-0x470(%rbp)
   12412:	00 00 00 00 
   12416:	48 c7 85 98 fb ff ff 	movq   $0x0,-0x468(%rbp)
   1241d:	00 00 00 00 
   12421:	48 c7 85 a0 fb ff ff 	movq   $0x0,-0x460(%rbp)
   12428:	00 00 00 00 
   1242c:	48 8d 85 68 f4 ff ff 	lea    -0xb98(%rbp),%rax
   12433:	48 89 85 a8 fb ff ff 	mov    %rax,-0x458(%rbp)
   1243a:	48 8d 85 68 f4 ff ff 	lea    -0xb98(%rbp),%rax
   12441:	48 89 85 b0 fb ff ff 	mov    %rax,-0x450(%rbp)
   12448:	48 8d 85 68 f4 ff ff 	lea    -0xb98(%rbp),%rax
   1244f:	48 89 85 b8 fb ff ff 	mov    %rax,-0x448(%rbp)
   12456:	48 8d 85 68 f4 ff ff 	lea    -0xb98(%rbp),%rax
   1245d:	48 89 85 c0 fb ff ff 	mov    %rax,-0x440(%rbp)
   12464:	48 8d 85 68 f4 ff ff 	lea    -0xb98(%rbp),%rax
   1246b:	48 89 85 c8 fb ff ff 	mov    %rax,-0x438(%rbp)
   12472:	48 8d 85 68 f4 ff ff 	lea    -0xb98(%rbp),%rax
   12479:	48 89 85 d0 fb ff ff 	mov    %rax,-0x430(%rbp)
   12480:	48 8d 85 68 f4 ff ff 	lea    -0xb98(%rbp),%rax
   12487:	48 89 85 d8 fb ff ff 	mov    %rax,-0x428(%rbp)
   1248e:	48 8d 85 68 f4 ff ff 	lea    -0xb98(%rbp),%rax
   12495:	48 89 85 e0 fb ff ff 	mov    %rax,-0x420(%rbp)
   1249c:	48 8d 85 68 f4 ff ff 	lea    -0xb98(%rbp),%rax
   124a3:	48 89 85 e8 fb ff ff 	mov    %rax,-0x418(%rbp)
   124aa:	48 8d 85 68 f4 ff ff 	lea    -0xb98(%rbp),%rax
   124b1:	48 89 85 f0 fb ff ff 	mov    %rax,-0x410(%rbp)
   124b8:	48 8d 85 68 f4 ff ff 	lea    -0xb98(%rbp),%rax
   124bf:	48 89 85 f8 fb ff ff 	mov    %rax,-0x408(%rbp)
   124c6:	48 8d 85 68 f4 ff ff 	lea    -0xb98(%rbp),%rax
   124cd:	48 89 85 00 fc ff ff 	mov    %rax,-0x400(%rbp)
   124d4:	48 8d 85 68 f4 ff ff 	lea    -0xb98(%rbp),%rax
   124db:	48 89 85 08 fc ff ff 	mov    %rax,-0x3f8(%rbp)
   124e2:	48 c7 85 10 fc ff ff 	movq   $0x0,-0x3f0(%rbp)
   124e9:	00 00 00 00 
   124ed:	48 c7 85 18 fc ff ff 	movq   $0x0,-0x3e8(%rbp)
   124f4:	00 00 00 00 
   124f8:	48 8d 85 68 f4 ff ff 	lea    -0xb98(%rbp),%rax
   124ff:	48 89 85 20 fc ff ff 	mov    %rax,-0x3e0(%rbp)
   12506:	48 8d 85 68 f4 ff ff 	lea    -0xb98(%rbp),%rax
   1250d:	48 89 85 28 fc ff ff 	mov    %rax,-0x3d8(%rbp)
   12514:	48 8d 85 68 f4 ff ff 	lea    -0xb98(%rbp),%rax
   1251b:	48 89 85 30 fc ff ff 	mov    %rax,-0x3d0(%rbp)
   12522:	48 8d 85 68 f4 ff ff 	lea    -0xb98(%rbp),%rax
   12529:	48 89 85 38 fc ff ff 	mov    %rax,-0x3c8(%rbp)
   12530:	48 8d 85 68 f4 ff ff 	lea    -0xb98(%rbp),%rax
   12537:	48 89 85 40 fc ff ff 	mov    %rax,-0x3c0(%rbp)
   1253e:	48 8d 85 68 f4 ff ff 	lea    -0xb98(%rbp),%rax
   12545:	48 89 85 48 fc ff ff 	mov    %rax,-0x3b8(%rbp)
   1254c:	48 8d 85 68 f4 ff ff 	lea    -0xb98(%rbp),%rax
   12553:	48 89 85 50 fc ff ff 	mov    %rax,-0x3b0(%rbp)
   1255a:	48 8d 85 68 f4 ff ff 	lea    -0xb98(%rbp),%rax
   12561:	48 89 85 58 fc ff ff 	mov    %rax,-0x3a8(%rbp)
   12568:	48 8d 85 68 f4 ff ff 	lea    -0xb98(%rbp),%rax
   1256f:	48 89 85 60 fc ff ff 	mov    %rax,-0x3a0(%rbp)
   12576:	48 8d 85 68 f4 ff ff 	lea    -0xb98(%rbp),%rax
   1257d:	48 89 85 68 fc ff ff 	mov    %rax,-0x398(%rbp)
   12584:	48 8d 85 68 f4 ff ff 	lea    -0xb98(%rbp),%rax
   1258b:	48 89 85 70 fc ff ff 	mov    %rax,-0x390(%rbp)
   12592:	48 8d 85 68 f4 ff ff 	lea    -0xb98(%rbp),%rax
   12599:	48 89 85 78 fc ff ff 	mov    %rax,-0x388(%rbp)
   125a0:	48 8d 85 68 f4 ff ff 	lea    -0xb98(%rbp),%rax
   125a7:	48 89 85 80 fc ff ff 	mov    %rax,-0x380(%rbp)
   125ae:	48 8d 85 68 f4 ff ff 	lea    -0xb98(%rbp),%rax
   125b5:	48 89 85 88 fc ff ff 	mov    %rax,-0x378(%rbp)
   125bc:	48 8d 85 68 f4 ff ff 	lea    -0xb98(%rbp),%rax
   125c3:	48 89 85 90 fc ff ff 	mov    %rax,-0x370(%rbp)
   125ca:	48 8d 85 68 f4 ff ff 	lea    -0xb98(%rbp),%rax
   125d1:	48 89 85 98 fc ff ff 	mov    %rax,-0x368(%rbp)
   125d8:	48 8d 85 68 f4 ff ff 	lea    -0xb98(%rbp),%rax
   125df:	48 89 85 a0 fc ff ff 	mov    %rax,-0x360(%rbp)
   125e6:	48 8d 85 68 f4 ff ff 	lea    -0xb98(%rbp),%rax
   125ed:	48 89 85 a8 fc ff ff 	mov    %rax,-0x358(%rbp)
   125f4:	48 8d 85 68 f4 ff ff 	lea    -0xb98(%rbp),%rax
   125fb:	48 89 85 b0 fc ff ff 	mov    %rax,-0x350(%rbp)
   12602:	48 8d 85 68 f4 ff ff 	lea    -0xb98(%rbp),%rax
   12609:	48 89 85 b8 fc ff ff 	mov    %rax,-0x348(%rbp)
   12610:	48 8d 85 68 f4 ff ff 	lea    -0xb98(%rbp),%rax
   12617:	48 89 85 c0 fc ff ff 	mov    %rax,-0x340(%rbp)
   1261e:	48 8d 85 68 f4 ff ff 	lea    -0xb98(%rbp),%rax
   12625:	48 89 85 c8 fc ff ff 	mov    %rax,-0x338(%rbp)
   1262c:	48 8d 85 68 f4 ff ff 	lea    -0xb98(%rbp),%rax
   12633:	48 89 85 d0 fc ff ff 	mov    %rax,-0x330(%rbp)
   1263a:	48 8d 85 68 f4 ff ff 	lea    -0xb98(%rbp),%rax
   12641:	48 89 85 d8 fc ff ff 	mov    %rax,-0x328(%rbp)
   12648:	48 8d 85 68 f4 ff ff 	lea    -0xb98(%rbp),%rax
   1264f:	48 89 85 e0 fc ff ff 	mov    %rax,-0x320(%rbp)
   12656:	48 8d 85 68 f4 ff ff 	lea    -0xb98(%rbp),%rax
   1265d:	48 89 85 e8 fc ff ff 	mov    %rax,-0x318(%rbp)
   12664:	48 8d 85 68 f4 ff ff 	lea    -0xb98(%rbp),%rax
   1266b:	48 89 85 f0 fc ff ff 	mov    %rax,-0x310(%rbp)
   12672:	48 8d 85 68 f4 ff ff 	lea    -0xb98(%rbp),%rax
   12679:	48 89 85 f8 fc ff ff 	mov    %rax,-0x308(%rbp)
   12680:	48 8d 85 68 f4 ff ff 	lea    -0xb98(%rbp),%rax
   12687:	48 89 85 00 fd ff ff 	mov    %rax,-0x300(%rbp)
   1268e:	48 8d 85 68 f4 ff ff 	lea    -0xb98(%rbp),%rax
   12695:	48 89 85 08 fd ff ff 	mov    %rax,-0x2f8(%rbp)
   1269c:	48 8d 85 68 f4 ff ff 	lea    -0xb98(%rbp),%rax
   126a3:	48 89 85 10 fd ff ff 	mov    %rax,-0x2f0(%rbp)
   126aa:	48 8d 85 68 f4 ff ff 	lea    -0xb98(%rbp),%rax
   126b1:	48 89 85 18 fd ff ff 	mov    %rax,-0x2e8(%rbp)
   126b8:	48 8d 85 68 f4 ff ff 	lea    -0xb98(%rbp),%rax
   126bf:	48 89 85 20 fd ff ff 	mov    %rax,-0x2e0(%rbp)
   126c6:	48 c7 85 28 fd ff ff 	movq   $0x0,-0x2d8(%rbp)
   126cd:	00 00 00 00 
   126d1:	48 c7 85 30 fd ff ff 	movq   $0x0,-0x2d0(%rbp)
   126d8:	00 00 00 00 
   126dc:	48 8d 85 68 f4 ff ff 	lea    -0xb98(%rbp),%rax
   126e3:	48 89 85 38 fd ff ff 	mov    %rax,-0x2c8(%rbp)
   126ea:	48 c7 85 40 fd ff ff 	movq   $0x0,-0x2c0(%rbp)
   126f1:	00 00 00 00 
   126f5:	48 8d 85 68 f4 ff ff 	lea    -0xb98(%rbp),%rax
   126fc:	48 89 85 48 fd ff ff 	mov    %rax,-0x2b8(%rbp)
   12703:	48 8d 85 68 f4 ff ff 	lea    -0xb98(%rbp),%rax
   1270a:	48 89 85 50 fd ff ff 	mov    %rax,-0x2b0(%rbp)
   12711:	48 8d 85 68 f4 ff ff 	lea    -0xb98(%rbp),%rax
   12718:	48 89 85 58 fd ff ff 	mov    %rax,-0x2a8(%rbp)
   1271f:	48 8d 85 68 f4 ff ff 	lea    -0xb98(%rbp),%rax
   12726:	48 89 85 60 fd ff ff 	mov    %rax,-0x2a0(%rbp)
   1272d:	48 8d 85 68 f4 ff ff 	lea    -0xb98(%rbp),%rax
   12734:	48 89 85 68 fd ff ff 	mov    %rax,-0x298(%rbp)
   1273b:	48 8d 85 68 f4 ff ff 	lea    -0xb98(%rbp),%rax
   12742:	48 89 85 70 fd ff ff 	mov    %rax,-0x290(%rbp)
   12749:	48 c7 85 78 fd ff ff 	movq   $0x0,-0x288(%rbp)
   12750:	00 00 00 00 
   12754:	48 c7 85 80 fd ff ff 	movq   $0x0,-0x280(%rbp)
   1275b:	00 00 00 00 
   1275f:	48 c7 85 88 fd ff ff 	movq   $0x0,-0x278(%rbp)
   12766:	00 00 00 00 
   1276a:	48 8d 85 68 f4 ff ff 	lea    -0xb98(%rbp),%rax
   12771:	48 89 85 90 fd ff ff 	mov    %rax,-0x270(%rbp)
   12778:	48 8d 85 68 f4 ff ff 	lea    -0xb98(%rbp),%rax
   1277f:	48 89 85 98 fd ff ff 	mov    %rax,-0x268(%rbp)
   12786:	48 8d 85 68 f4 ff ff 	lea    -0xb98(%rbp),%rax
   1278d:	48 89 85 a0 fd ff ff 	mov    %rax,-0x260(%rbp)
   12794:	48 8d 85 68 f4 ff ff 	lea    -0xb98(%rbp),%rax
   1279b:	48 89 85 a8 fd ff ff 	mov    %rax,-0x258(%rbp)
   127a2:	48 8d 85 68 f4 ff ff 	lea    -0xb98(%rbp),%rax
   127a9:	48 89 85 b0 fd ff ff 	mov    %rax,-0x250(%rbp)
   127b0:	48 8d 85 68 f4 ff ff 	lea    -0xb98(%rbp),%rax
   127b7:	48 89 85 b8 fd ff ff 	mov    %rax,-0x248(%rbp)
   127be:	48 8d 85 68 f4 ff ff 	lea    -0xb98(%rbp),%rax
   127c5:	48 89 85 c0 fd ff ff 	mov    %rax,-0x240(%rbp)
   127cc:	48 c7 85 c8 fd ff ff 	movq   $0x0,-0x238(%rbp)
   127d3:	00 00 00 00 
   127d7:	48 8d 85 68 f4 ff ff 	lea    -0xb98(%rbp),%rax
   127de:	48 89 85 d0 fd ff ff 	mov    %rax,-0x230(%rbp)
   127e5:	48 8d 85 68 f4 ff ff 	lea    -0xb98(%rbp),%rax
   127ec:	48 89 85 d8 fd ff ff 	mov    %rax,-0x228(%rbp)
   127f3:	48 8d 85 68 f4 ff ff 	lea    -0xb98(%rbp),%rax
   127fa:	48 89 85 e0 fd ff ff 	mov    %rax,-0x220(%rbp)
   12801:	48 8d 85 68 f4 ff ff 	lea    -0xb98(%rbp),%rax
   12808:	48 89 85 e8 fd ff ff 	mov    %rax,-0x218(%rbp)
   1280f:	48 8d 85 68 f4 ff ff 	lea    -0xb98(%rbp),%rax
   12816:	48 89 85 f0 fd ff ff 	mov    %rax,-0x210(%rbp)
   1281d:	48 8d 85 68 f4 ff ff 	lea    -0xb98(%rbp),%rax
   12824:	48 89 85 f8 fd ff ff 	mov    %rax,-0x208(%rbp)
   1282b:	48 8d 85 68 f4 ff ff 	lea    -0xb98(%rbp),%rax
   12832:	48 89 85 00 fe ff ff 	mov    %rax,-0x200(%rbp)
   12839:	48 c7 85 08 fe ff ff 	movq   $0x0,-0x1f8(%rbp)
   12840:	00 00 00 00 
   12844:	48 8d 85 68 f4 ff ff 	lea    -0xb98(%rbp),%rax
   1284b:	48 89 85 10 fe ff ff 	mov    %rax,-0x1f0(%rbp)
   12852:	48 8d 85 68 f4 ff ff 	lea    -0xb98(%rbp),%rax
   12859:	48 89 85 18 fe ff ff 	mov    %rax,-0x1e8(%rbp)
   12860:	48 8d 85 68 f4 ff ff 	lea    -0xb98(%rbp),%rax
   12867:	48 89 85 20 fe ff ff 	mov    %rax,-0x1e0(%rbp)
   1286e:	48 8d 85 68 f4 ff ff 	lea    -0xb98(%rbp),%rax
   12875:	48 89 85 28 fe ff ff 	mov    %rax,-0x1d8(%rbp)
   1287c:	48 8d 85 68 f4 ff ff 	lea    -0xb98(%rbp),%rax
   12883:	48 89 85 30 fe ff ff 	mov    %rax,-0x1d0(%rbp)
   1288a:	48 8d 85 68 f4 ff ff 	lea    -0xb98(%rbp),%rax
   12891:	48 89 85 38 fe ff ff 	mov    %rax,-0x1c8(%rbp)
   12898:	48 8d 85 68 f4 ff ff 	lea    -0xb98(%rbp),%rax
   1289f:	48 89 85 40 fe ff ff 	mov    %rax,-0x1c0(%rbp)
   128a6:	48 8d 85 68 f4 ff ff 	lea    -0xb98(%rbp),%rax
   128ad:	48 89 85 48 fe ff ff 	mov    %rax,-0x1b8(%rbp)
   128b4:	48 8d 85 68 f4 ff ff 	lea    -0xb98(%rbp),%rax
   128bb:	48 89 85 50 fe ff ff 	mov    %rax,-0x1b0(%rbp)
   128c2:	48 8d 85 68 f4 ff ff 	lea    -0xb98(%rbp),%rax
   128c9:	48 89 85 58 fe ff ff 	mov    %rax,-0x1a8(%rbp)
   128d0:	48 8d 85 68 f4 ff ff 	lea    -0xb98(%rbp),%rax
   128d7:	48 89 85 60 fe ff ff 	mov    %rax,-0x1a0(%rbp)
   128de:	48 8d 85 68 f4 ff ff 	lea    -0xb98(%rbp),%rax
   128e5:	48 89 85 68 fe ff ff 	mov    %rax,-0x198(%rbp)
   128ec:	48 8d 85 68 f4 ff ff 	lea    -0xb98(%rbp),%rax
   128f3:	48 89 85 70 fe ff ff 	mov    %rax,-0x190(%rbp)
   128fa:	48 8d 85 68 f4 ff ff 	lea    -0xb98(%rbp),%rax
   12901:	48 89 85 78 fe ff ff 	mov    %rax,-0x188(%rbp)
   12908:	48 8d 85 68 f4 ff ff 	lea    -0xb98(%rbp),%rax
   1290f:	48 89 85 80 fe ff ff 	mov    %rax,-0x180(%rbp)
   12916:	48 c7 85 88 fe ff ff 	movq   $0x0,-0x178(%rbp)
   1291d:	00 00 00 00 
   12921:	48 8d 85 68 f4 ff ff 	lea    -0xb98(%rbp),%rax
   12928:	48 89 85 90 fe ff ff 	mov    %rax,-0x170(%rbp)
   1292f:	48 c7 85 98 fe ff ff 	movq   $0x0,-0x168(%rbp)
   12936:	00 00 00 00 
   1293a:	48 8d 85 68 f4 ff ff 	lea    -0xb98(%rbp),%rax
   12941:	48 89 85 a0 fe ff ff 	mov    %rax,-0x160(%rbp)
   12948:	48 8d 85 68 f4 ff ff 	lea    -0xb98(%rbp),%rax
   1294f:	48 89 85 a8 fe ff ff 	mov    %rax,-0x158(%rbp)
   12956:	48 8d 85 68 f4 ff ff 	lea    -0xb98(%rbp),%rax
   1295d:	48 89 85 b0 fe ff ff 	mov    %rax,-0x150(%rbp)
   12964:	48 8d 85 68 f4 ff ff 	lea    -0xb98(%rbp),%rax
   1296b:	48 89 85 b8 fe ff ff 	mov    %rax,-0x148(%rbp)
   12972:	48 8d 85 68 f4 ff ff 	lea    -0xb98(%rbp),%rax
   12979:	48 89 85 c0 fe ff ff 	mov    %rax,-0x140(%rbp)
   12980:	48 8d 85 68 f4 ff ff 	lea    -0xb98(%rbp),%rax
   12987:	48 89 85 c8 fe ff ff 	mov    %rax,-0x138(%rbp)
   1298e:	48 8d 85 68 f4 ff ff 	lea    -0xb98(%rbp),%rax
   12995:	48 89 85 d0 fe ff ff 	mov    %rax,-0x130(%rbp)
   1299c:	48 c7 85 d8 fe ff ff 	movq   $0x0,-0x128(%rbp)
   129a3:	00 00 00 00 
   129a7:	48 8d 85 68 f4 ff ff 	lea    -0xb98(%rbp),%rax
   129ae:	48 89 85 e0 fe ff ff 	mov    %rax,-0x120(%rbp)
   129b5:	48 8d 85 68 f4 ff ff 	lea    -0xb98(%rbp),%rax
   129bc:	48 89 85 e8 fe ff ff 	mov    %rax,-0x118(%rbp)
   129c3:	48 8d 85 68 f4 ff ff 	lea    -0xb98(%rbp),%rax
   129ca:	48 89 85 f0 fe ff ff 	mov    %rax,-0x110(%rbp)
   129d1:	48 8d 85 68 f4 ff ff 	lea    -0xb98(%rbp),%rax
   129d8:	48 89 85 f8 fe ff ff 	mov    %rax,-0x108(%rbp)
   129df:	48 8d 85 68 f4 ff ff 	lea    -0xb98(%rbp),%rax
   129e6:	48 89 85 00 ff ff ff 	mov    %rax,-0x100(%rbp)
   129ed:	48 8d 85 68 f4 ff ff 	lea    -0xb98(%rbp),%rax
   129f4:	48 89 85 08 ff ff ff 	mov    %rax,-0xf8(%rbp)
   129fb:	48 8d 85 68 f4 ff ff 	lea    -0xb98(%rbp),%rax
   12a02:	48 89 85 10 ff ff ff 	mov    %rax,-0xf0(%rbp)
   12a09:	48 c7 85 18 ff ff ff 	movq   $0x0,-0xe8(%rbp)
   12a10:	00 00 00 00 
   12a14:	48 c7 85 20 ff ff ff 	movq   $0x0,-0xe0(%rbp)
   12a1b:	00 00 00 00 
   12a1f:	48 8d 85 68 f4 ff ff 	lea    -0xb98(%rbp),%rax
   12a26:	48 89 85 28 ff ff ff 	mov    %rax,-0xd8(%rbp)
   12a2d:	48 c7 85 30 ff ff ff 	movq   $0x0,-0xd0(%rbp)
   12a34:	00 00 00 00 
   12a38:	48 8d 85 68 f4 ff ff 	lea    -0xb98(%rbp),%rax
   12a3f:	48 89 85 38 ff ff ff 	mov    %rax,-0xc8(%rbp)
   12a46:	48 8d 85 68 f4 ff ff 	lea    -0xb98(%rbp),%rax
   12a4d:	48 89 85 40 ff ff ff 	mov    %rax,-0xc0(%rbp)
   12a54:	48 8d 85 68 f4 ff ff 	lea    -0xb98(%rbp),%rax
   12a5b:	48 89 85 48 ff ff ff 	mov    %rax,-0xb8(%rbp)
   12a62:	48 8d 85 68 f4 ff ff 	lea    -0xb98(%rbp),%rax
   12a69:	48 89 85 50 ff ff ff 	mov    %rax,-0xb0(%rbp)
   12a70:	48 8d 85 68 f4 ff ff 	lea    -0xb98(%rbp),%rax
   12a77:	48 89 85 58 ff ff ff 	mov    %rax,-0xa8(%rbp)
   12a7e:	48 8d 85 68 f4 ff ff 	lea    -0xb98(%rbp),%rax
   12a85:	48 89 85 60 ff ff ff 	mov    %rax,-0xa0(%rbp)
   12a8c:	48 8d 85 68 f4 ff ff 	lea    -0xb98(%rbp),%rax
   12a93:	48 89 85 68 ff ff ff 	mov    %rax,-0x98(%rbp)
   12a9a:	48 8d 85 68 f4 ff ff 	lea    -0xb98(%rbp),%rax
   12aa1:	48 89 85 70 ff ff ff 	mov    %rax,-0x90(%rbp)
   12aa8:	48 8d 85 68 f4 ff ff 	lea    -0xb98(%rbp),%rax
   12aaf:	48 89 85 78 ff ff ff 	mov    %rax,-0x88(%rbp)
   12ab6:	48 8d 85 68 f4 ff ff 	lea    -0xb98(%rbp),%rax
   12abd:	48 89 45 80          	mov    %rax,-0x80(%rbp)
   12ac1:	48 8d 85 68 f4 ff ff 	lea    -0xb98(%rbp),%rax
   12ac8:	48 89 45 88          	mov    %rax,-0x78(%rbp)
   12acc:	48 8d 85 68 f4 ff ff 	lea    -0xb98(%rbp),%rax
   12ad3:	48 89 45 90          	mov    %rax,-0x70(%rbp)
   12ad7:	48 c7 45 98 00 00 00 	movq   $0x0,-0x68(%rbp)
   12ade:	00 
   12adf:	48 c7 45 a0 00 00 00 	movq   $0x0,-0x60(%rbp)
   12ae6:	00 
   12ae7:	48 8d 85 68 f4 ff ff 	lea    -0xb98(%rbp),%rax
   12aee:	48 89 45 a8          	mov    %rax,-0x58(%rbp)
   12af2:	48 8d 85 68 f4 ff ff 	lea    -0xb98(%rbp),%rax
   12af9:	48 89 45 b0          	mov    %rax,-0x50(%rbp)
   12afd:	48 c7 45 b8 00 00 00 	movq   $0x0,-0x48(%rbp)
   12b04:	00 
   12b05:	48 8d 85 68 f4 ff ff 	lea    -0xb98(%rbp),%rax
   12b0c:	48 89 45 c0          	mov    %rax,-0x40(%rbp)
   12b10:	48 8d 85 68 f4 ff ff 	lea    -0xb98(%rbp),%rax
   12b17:	48 89 45 c8          	mov    %rax,-0x38(%rbp)
   12b1b:	48 8d 85 68 f4 ff ff 	lea    -0xb98(%rbp),%rax
   12b22:	48 89 45 d0          	mov    %rax,-0x30(%rbp)
   12b26:	48 8d 85 68 f4 ff ff 	lea    -0xb98(%rbp),%rax
   12b2d:	48 89 45 d8          	mov    %rax,-0x28(%rbp)
   12b31:	48 8d 85 68 f4 ff ff 	lea    -0xb98(%rbp),%rax
   12b38:	48 89 45 e0          	mov    %rax,-0x20(%rbp)
   12b3c:	48 8d 85 68 f4 ff ff 	lea    -0xb98(%rbp),%rax
   12b43:	48 89 45 e8          	mov    %rax,-0x18(%rbp)
   12b47:	c6 85 23 f4 ff ff be 	movb   $0xbe,-0xbdd(%rbp)
   12b4e:	c6 85 24 f4 ff ff 2e 	movb   $0x2e,-0xbdc(%rbp)
   12b55:	66 c7 85 2a f4 ff ff 	movw   $0x7,-0xbd6(%rbp)
   12b5c:	07 00 
   12b5e:	c7 85 50 f4 ff ff ff 	movl   $0xffffffff,-0xbb0(%rbp)
   12b65:	ff ff ff 
   12b68:	66 c7 85 2c f4 ff ff 	movw   $0x6427,-0xbd4(%rbp)
   12b6f:	27 64 
   12b71:	c7 85 34 f4 ff ff 00 	movl   $0x0,-0xbcc(%rbp)
   12b78:	00 00 00 
   12b7b:	eb 1b                	jmp    12b98 <func_52+0x10be>
   12b7d:	8b 85 34 f4 ff ff    	mov    -0xbcc(%rbp),%eax
   12b83:	48 98                	cltq   
   12b85:	48 c7 84 c5 20 f5 ff 	movq   $0x0,-0xae0(%rbp,%rax,8)
   12b8c:	ff 00 00 00 00 
   12b91:	83 85 34 f4 ff ff 01 	addl   $0x1,-0xbcc(%rbp)
   12b98:	83 bd 34 f4 ff ff 03 	cmpl   $0x3,-0xbcc(%rbp)
   12b9f:	7e dc                	jle    12b7d <func_52+0x10a3>
   12ba1:	c7 05 91 a4 00 00 00 	movl   $0x0,0xa491(%rip)        # 1d03c <g_67>
   12ba8:	00 00 00 
   12bab:	e9 b5 02 00 00       	jmpq   12e65 <func_52+0x138b>
   12bb0:	c6 85 25 f4 ff ff 00 	movb   $0x0,-0xbdb(%rbp)
   12bb7:	48 c7 85 40 f5 ff ff 	movq   $0x0,-0xac0(%rbp)
   12bbe:	00 00 00 00 
   12bc2:	48 8d 05 ff 29 01 00 	lea    0x129ff(%rip),%rax        # 255c8 <g_80>
   12bc9:	48 89 85 48 f5 ff ff 	mov    %rax,-0xab8(%rbp)
   12bd0:	48 c7 85 50 f5 ff ff 	movq   $0x0,-0xab0(%rbp)
   12bd7:	00 00 00 00 
   12bdb:	48 c7 85 58 f5 ff ff 	movq   $0x0,-0xaa8(%rbp)
   12be2:	00 00 00 00 
   12be6:	48 8d 05 db 29 01 00 	lea    0x129db(%rip),%rax        # 255c8 <g_80>
   12bed:	48 89 85 60 f5 ff ff 	mov    %rax,-0xaa0(%rbp)
   12bf4:	48 c7 85 68 f5 ff ff 	movq   $0x0,-0xa98(%rbp)
   12bfb:	00 00 00 00 
   12bff:	48 c7 85 70 f5 ff ff 	movq   $0x0,-0xa90(%rbp)
   12c06:	00 00 00 00 
   12c0a:	48 8d 05 b7 29 01 00 	lea    0x129b7(%rip),%rax        # 255c8 <g_80>
   12c11:	48 89 85 78 f5 ff ff 	mov    %rax,-0xa88(%rbp)
   12c18:	c7 85 54 f4 ff ff e9 	movl   $0x834b12e9,-0xbac(%rbp)
   12c1f:	12 4b 83 
   12c22:	c7 85 58 f4 ff ff 03 	movl   $0x3,-0xba8(%rbp)
   12c29:	00 00 00 
   12c2c:	66 c7 85 2e f4 ff ff 	movw   $0xe4cd,-0xbd2(%rbp)
   12c33:	cd e4 
   12c35:	c7 85 5c f4 ff ff 2b 	movl   $0x563e1a2b,-0xba4(%rbp)
   12c3c:	1a 3e 56 
   12c3f:	c7 85 60 f4 ff ff ff 	movl   $0xffffffff,-0xba0(%rbp)
   12c46:	ff ff ff 
   12c49:	c7 85 64 f4 ff ff fd 	movl   $0xfffffffd,-0xb9c(%rbp)
   12c50:	ff ff ff 
   12c53:	48 b8 b6 e7 56 f4 59 	movabs $0xacd65f59f456e7b6,%rax
   12c5a:	5f d6 ac 
   12c5d:	48 89 85 e8 f4 ff ff 	mov    %rax,-0xb18(%rbp)
   12c64:	48 c7 85 40 f6 ff ff 	movq   $0x0,-0x9c0(%rbp)
   12c6b:	00 00 00 00 
   12c6f:	48 8d 85 00 f5 ff ff 	lea    -0xb00(%rbp),%rax
   12c76:	48 83 c0 18          	add    $0x18,%rax
   12c7a:	48 89 85 48 f6 ff ff 	mov    %rax,-0x9b8(%rbp)
   12c81:	48 8d 85 00 f5 ff ff 	lea    -0xb00(%rbp),%rax
   12c88:	48 83 c0 18          	add    $0x18,%rax
   12c8c:	48 89 85 50 f6 ff ff 	mov    %rax,-0x9b0(%rbp)
   12c93:	48 c7 85 58 f6 ff ff 	movq   $0x0,-0x9a8(%rbp)
   12c9a:	00 00 00 00 
   12c9e:	48 8d 85 00 f5 ff ff 	lea    -0xb00(%rbp),%rax
   12ca5:	48 83 c0 18          	add    $0x18,%rax
   12ca9:	48 89 85 60 f6 ff ff 	mov    %rax,-0x9a0(%rbp)
   12cb0:	48 8d 85 00 f5 ff ff 	lea    -0xb00(%rbp),%rax
   12cb7:	48 83 c0 18          	add    $0x18,%rax
   12cbb:	48 89 85 68 f6 ff ff 	mov    %rax,-0x998(%rbp)
   12cc2:	48 c7 85 70 f6 ff ff 	movq   $0x0,-0x990(%rbp)
   12cc9:	00 00 00 00 
   12ccd:	48 8d 85 00 f5 ff ff 	lea    -0xb00(%rbp),%rax
   12cd4:	48 83 c0 18          	add    $0x18,%rax
   12cd8:	48 89 85 78 f6 ff ff 	mov    %rax,-0x988(%rbp)
   12cdf:	48 8d 85 00 f5 ff ff 	lea    -0xb00(%rbp),%rax
   12ce6:	48 83 c0 18          	add    $0x18,%rax
   12cea:	48 89 85 80 f6 ff ff 	mov    %rax,-0x980(%rbp)
   12cf1:	48 c7 85 88 f6 ff ff 	movq   $0x0,-0x978(%rbp)
   12cf8:	00 00 00 00 
   12cfc:	48 8d 85 00 f5 ff ff 	lea    -0xb00(%rbp),%rax
   12d03:	48 83 c0 18          	add    $0x18,%rax
   12d07:	48 89 85 90 f6 ff ff 	mov    %rax,-0x970(%rbp)
   12d0e:	48 c7 85 98 f6 ff ff 	movq   $0x0,-0x968(%rbp)
   12d15:	00 00 00 00 
   12d19:	48 8d 85 00 f5 ff ff 	lea    -0xb00(%rbp),%rax
   12d20:	48 83 c0 18          	add    $0x18,%rax
   12d24:	48 89 85 a0 f6 ff ff 	mov    %rax,-0x960(%rbp)
   12d2b:	48 8d 85 00 f5 ff ff 	lea    -0xb00(%rbp),%rax
   12d32:	48 83 c0 18          	add    $0x18,%rax
   12d36:	48 89 85 a8 f6 ff ff 	mov    %rax,-0x958(%rbp)
   12d3d:	48 c7 85 b0 f6 ff ff 	movq   $0x0,-0x950(%rbp)
   12d44:	00 00 00 00 
   12d48:	48 8d 85 00 f5 ff ff 	lea    -0xb00(%rbp),%rax
   12d4f:	48 83 c0 18          	add    $0x18,%rax
   12d53:	48 89 85 b8 f6 ff ff 	mov    %rax,-0x948(%rbp)
   12d5a:	48 8d 85 00 f5 ff ff 	lea    -0xb00(%rbp),%rax
   12d61:	48 83 c0 18          	add    $0x18,%rax
   12d65:	48 89 85 c0 f6 ff ff 	mov    %rax,-0x940(%rbp)
   12d6c:	48 c7 85 c8 f6 ff ff 	movq   $0x0,-0x938(%rbp)
   12d73:	00 00 00 00 
   12d77:	48 8d 85 00 f5 ff ff 	lea    -0xb00(%rbp),%rax
   12d7e:	48 83 c0 18          	add    $0x18,%rax
   12d82:	48 89 85 d0 f6 ff ff 	mov    %rax,-0x930(%rbp)
   12d89:	48 8d 85 00 f5 ff ff 	lea    -0xb00(%rbp),%rax
   12d90:	48 83 c0 18          	add    $0x18,%rax
   12d94:	48 89 85 d8 f6 ff ff 	mov    %rax,-0x928(%rbp)
   12d9b:	48 8d 05 be a5 00 00 	lea    0xa5be(%rip),%rax        # 1d360 <g_302>
   12da2:	48 89 85 80 f5 ff ff 	mov    %rax,-0xa80(%rbp)
   12da9:	48 8d 05 a0 a5 00 00 	lea    0xa5a0(%rip),%rax        # 1d350 <g_300>
   12db0:	48 89 85 88 f5 ff ff 	mov    %rax,-0xa78(%rbp)
   12db7:	48 8d 05 a2 a5 00 00 	lea    0xa5a2(%rip),%rax        # 1d360 <g_302>
   12dbe:	48 89 85 90 f5 ff ff 	mov    %rax,-0xa70(%rbp)
   12dc5:	48 8d 05 84 a5 00 00 	lea    0xa584(%rip),%rax        # 1d350 <g_300>
   12dcc:	48 89 85 98 f5 ff ff 	mov    %rax,-0xa68(%rbp)
   12dd3:	48 8d 05 86 a5 00 00 	lea    0xa586(%rip),%rax        # 1d360 <g_302>
   12dda:	48 89 85 a0 f5 ff ff 	mov    %rax,-0xa60(%rbp)
   12de1:	48 8d 05 68 a5 00 00 	lea    0xa568(%rip),%rax        # 1d350 <g_300>
   12de8:	48 89 85 a8 f5 ff ff 	mov    %rax,-0xa58(%rbp)
   12def:	48 8d 05 6a a5 00 00 	lea    0xa56a(%rip),%rax        # 1d360 <g_302>
   12df6:	48 89 85 b0 f5 ff ff 	mov    %rax,-0xa50(%rbp)
   12dfd:	48 8d 05 4c a5 00 00 	lea    0xa54c(%rip),%rax        # 1d350 <g_300>
   12e04:	48 89 85 b8 f5 ff ff 	mov    %rax,-0xa48(%rbp)
   12e0b:	48 b8 07 98 26 93 4e 	movabs $0xb7867b4e93269807,%rax
   12e12:	7b 86 b7 
   12e15:	48 89 85 f0 f4 ff ff 	mov    %rax,-0xb10(%rbp)
   12e1c:	c7 85 38 f4 ff ff 00 	movl   $0x0,-0xbc8(%rbp)
   12e23:	00 00 00 
   12e26:	eb 19                	jmp    12e41 <func_52+0x1367>
   12e28:	8b 85 38 f4 ff ff    	mov    -0xbc8(%rbp),%eax
   12e2e:	48 98                	cltq   
   12e30:	66 c7 84 45 fe f4 ff 	movw   $0x1e18,-0xb02(%rbp,%rax,2)
   12e37:	ff 18 1e 
   12e3a:	83 85 38 f4 ff ff 01 	addl   $0x1,-0xbc8(%rbp)
   12e41:	83 bd 38 f4 ff ff 00 	cmpl   $0x0,-0xbc8(%rbp)
   12e48:	7e de                	jle    12e28 <func_52+0x134e>
   12e4a:	8b 85 40 f4 ff ff    	mov    -0xbc0(%rbp),%eax
   12e50:	88 85 25 f4 ff ff    	mov    %al,-0xbdb(%rbp)
   12e56:	8b 05 e0 a1 00 00    	mov    0xa1e0(%rip),%eax        # 1d03c <g_67>
   12e5c:	83 e8 01             	sub    $0x1,%eax
   12e5f:	89 05 d7 a1 00 00    	mov    %eax,0xa1d7(%rip)        # 1d03c <g_67>
   12e65:	8b 05 d1 a1 00 00    	mov    0xa1d1(%rip),%eax        # 1d03c <g_67>
   12e6b:	83 f8 ff             	cmp    $0xffffffff,%eax
   12e6e:	0f 85 3c fd ff ff    	jne    12bb0 <func_52+0x10d6>
   12e74:	8b 05 ba a1 00 00    	mov    0xa1ba(%rip),%eax        # 1d034 <g_31>
   12e7a:	0f b7 c0             	movzwl %ax,%eax
   12e7d:	be 08 00 00 00       	mov    $0x8,%esi
   12e82:	89 c7                	mov    %eax,%edi
   12e84:	e8 96 5e ff ff       	callq  8d1f <safe_sub_func_uint16_t_u_u>
   12e89:	0f b7 c0             	movzwl %ax,%eax
   12e8c:	89 05 a2 a1 00 00    	mov    %eax,0xa1a2(%rip)        # 1d034 <g_31>
   12e92:	8b 05 9c a1 00 00    	mov    0xa19c(%rip),%eax        # 1d034 <g_31>
   12e98:	83 f8 e4             	cmp    $0xffffffe4,%eax
   12e9b:	0f 8d 69 ef ff ff    	jge    11e0a <func_52+0x330>
   12ea1:	48 8b 85 a0 f4 ff ff 	mov    -0xb60(%rbp),%rax
   12ea8:	48 8b 10             	mov    (%rax),%rdx
   12eab:	48 8b 85 a0 f4 ff ff 	mov    -0xb60(%rbp),%rax
   12eb2:	48 89 10             	mov    %rdx,(%rax)
   12eb5:	0f be 85 1c f4 ff ff 	movsbl -0xbe4(%rbp),%eax
   12ebc:	48 8b 4d f8          	mov    -0x8(%rbp),%rcx
   12ec0:	64 48 33 0c 25 28 00 	xor    %fs:0x28,%rcx
   12ec7:	00 00 
   12ec9:	74 05                	je     12ed0 <func_52+0x13f6>
   12ecb:	e8 a0 51 ff ff       	callq  8070 <__stack_chk_fail@plt>
   12ed0:	c9                   	leaveq 
   12ed1:	c3                   	retq   

0000000000012ed2 <func_56>:
   12ed2:	f3 0f 1e fa          	endbr64 
   12ed6:	55                   	push   %rbp
   12ed7:	48 89 e5             	mov    %rsp,%rbp
   12eda:	48 83 c4 80          	add    $0xffffffffffffff80,%rsp
   12ede:	48 89 7d 88          	mov    %rdi,-0x78(%rbp)
   12ee2:	64 48 8b 04 25 28 00 	mov    %fs:0x28,%rax
   12ee9:	00 00 
   12eeb:	48 89 45 f8          	mov    %rax,-0x8(%rbp)
   12eef:	31 c0                	xor    %eax,%eax
   12ef1:	48 c7 45 98 00 00 00 	movq   $0x0,-0x68(%rbp)
   12ef8:	00 
   12ef9:	48 8d 05 34 a1 00 00 	lea    0xa134(%rip),%rax        # 1d034 <g_31>
   12f00:	48 89 45 b0          	mov    %rax,-0x50(%rbp)
   12f04:	48 8d 05 29 a1 00 00 	lea    0xa129(%rip),%rax        # 1d034 <g_31>
   12f0b:	48 89 45 b8          	mov    %rax,-0x48(%rbp)
   12f0f:	48 8d 05 1e a1 00 00 	lea    0xa11e(%rip),%rax        # 1d034 <g_31>
   12f16:	48 89 45 c0          	mov    %rax,-0x40(%rbp)
   12f1a:	48 8d 05 13 a1 00 00 	lea    0xa113(%rip),%rax        # 1d034 <g_31>
   12f21:	48 89 45 c8          	mov    %rax,-0x38(%rbp)
   12f25:	48 8d 05 08 a1 00 00 	lea    0xa108(%rip),%rax        # 1d034 <g_31>
   12f2c:	48 89 45 d0          	mov    %rax,-0x30(%rbp)
   12f30:	48 8d 05 fd a0 00 00 	lea    0xa0fd(%rip),%rax        # 1d034 <g_31>
   12f37:	48 89 45 d8          	mov    %rax,-0x28(%rbp)
   12f3b:	48 8d 05 f2 a0 00 00 	lea    0xa0f2(%rip),%rax        # 1d034 <g_31>
   12f42:	48 89 45 e0          	mov    %rax,-0x20(%rbp)
   12f46:	48 8d 05 e7 a0 00 00 	lea    0xa0e7(%rip),%rax        # 1d034 <g_31>
   12f4d:	48 89 45 e8          	mov    %rax,-0x18(%rbp)
   12f51:	48 c7 45 a0 00 00 00 	movq   $0x0,-0x60(%rbp)
   12f58:	00 
   12f59:	c7 05 d9 a0 00 00 00 	movl   $0x0,0xa0d9(%rip)        # 1d03c <g_67>
   12f60:	00 00 00 
   12f63:	eb 40                	jmp    12fa5 <func_56+0xd3>
   12f65:	48 8d 05 4c fc 00 00 	lea    0xfc4c(%rip),%rax        # 22bb8 <g_74>
   12f6c:	48 89 45 a8          	mov    %rax,-0x58(%rbp)
   12f70:	48 8b 45 a8          	mov    -0x58(%rbp),%rax
   12f74:	48 8d 15 b9 a0 00 00 	lea    0xa0b9(%rip),%rdx        # 1d034 <g_31>
   12f7b:	48 89 10             	mov    %rdx,(%rax)
   12f7e:	48 8b 45 88          	mov    -0x78(%rbp),%rax
   12f82:	8b 00                	mov    (%rax),%eax
   12f84:	85 c0                	test   %eax,%eax
   12f86:	75 0d                	jne    12f95 <func_56+0xc3>
   12f88:	48 8b 45 88          	mov    -0x78(%rbp),%rax
   12f8c:	48 89 05 1d fc 00 00 	mov    %rax,0xfc1d(%rip)        # 22bb0 <g_30+0x30>
   12f93:	eb 01                	jmp    12f96 <func_56+0xc4>
   12f95:	90                   	nop
   12f96:	8b 05 a0 a0 00 00    	mov    0xa0a0(%rip),%eax        # 1d03c <g_67>
   12f9c:	83 c0 01             	add    $0x1,%eax
   12f9f:	89 05 97 a0 00 00    	mov    %eax,0xa097(%rip)        # 1d03c <g_67>
   12fa5:	8b 05 91 a0 00 00    	mov    0xa091(%rip),%eax        # 1d03c <g_67>
   12fab:	83 f8 04             	cmp    $0x4,%eax
   12fae:	7e b5                	jle    12f65 <func_56+0x93>
   12fb0:	8b 05 22 a1 00 00    	mov    0xa122(%rip),%eax        # 1d0d8 <g_86+0x98>
   12fb6:	83 e8 01             	sub    $0x1,%eax
   12fb9:	89 05 19 a1 00 00    	mov    %eax,0xa119(%rip)        # 1d0d8 <g_86+0x98>
   12fbf:	48 8b 45 a0          	mov    -0x60(%rbp),%rax
   12fc3:	48 8b 4d f8          	mov    -0x8(%rbp),%rcx
   12fc7:	64 48 33 0c 25 28 00 	xor    %fs:0x28,%rcx
   12fce:	00 00 
   12fd0:	74 05                	je     12fd7 <func_56+0x105>
   12fd2:	e8 99 50 ff ff       	callq  8070 <__stack_chk_fail@plt>
   12fd7:	c9                   	leaveq 
   12fd8:	c3                   	retq   

0000000000012fd9 <func_58>:
   12fd9:	f3 0f 1e fa          	endbr64 
   12fdd:	55                   	push   %rbp
   12fde:	48 89 e5             	mov    %rsp,%rbp
   12fe1:	53                   	push   %rbx
   12fe2:	48 81 ec 78 01 00 00 	sub    $0x178,%rsp
   12fe9:	48 89 bd 98 fe ff ff 	mov    %rdi,-0x168(%rbp)
   12ff0:	89 b5 94 fe ff ff    	mov    %esi,-0x16c(%rbp)
   12ff6:	89 95 90 fe ff ff    	mov    %edx,-0x170(%rbp)
   12ffc:	48 89 8d 88 fe ff ff 	mov    %rcx,-0x178(%rbp)
   13003:	64 48 8b 04 25 28 00 	mov    %fs:0x28,%rax
   1300a:	00 00 
   1300c:	48 89 45 e8          	mov    %rax,-0x18(%rbp)
   13010:	31 c0                	xor    %eax,%eax
   13012:	c7 85 ac fe ff ff 7c 	movl   $0xd90c37c,-0x154(%rbp)
   13019:	c3 90 0d 
   1301c:	48 8b 85 98 fe ff ff 	mov    -0x168(%rbp),%rax
   13023:	8b 10                	mov    (%rax),%edx
   13025:	8b 85 ac fe ff ff    	mov    -0x154(%rbp),%eax
   1302b:	31 c2                	xor    %eax,%edx
   1302d:	48 8b 85 98 fe ff ff 	mov    -0x168(%rbp),%rax
   13034:	89 10                	mov    %edx,(%rax)
   13036:	8b 85 ac fe ff ff    	mov    -0x154(%rbp),%eax
   1303c:	85 c0                	test   %eax,%eax
   1303e:	74 2b                	je     1306b <func_58+0x92>
   13040:	48 8d 05 61 fb 00 00 	lea    0xfb61(%rip),%rax        # 22ba8 <g_30+0x28>
   13047:	48 89 85 b8 fe ff ff 	mov    %rax,-0x148(%rbp)
   1304e:	48 8b 85 b8 fe ff ff 	mov    -0x148(%rbp),%rax
   13055:	48 8b 95 88 fe ff ff 	mov    -0x178(%rbp),%rdx
   1305c:	48 89 10             	mov    %rdx,(%rax)
   1305f:	48 8d 05 ce 9f 00 00 	lea    0x9fce(%rip),%rax        # 1d034 <g_31>
   13066:	e9 07 01 00 00       	jmpq   13172 <func_58+0x199>
   1306b:	48 8d 85 c0 fe ff ff 	lea    -0x140(%rbp),%rax
   13072:	48 8d 15 e7 f9 00 00 	lea    0xf9e7(%rip),%rdx        # 22a60 <g_3063+0x960>
   13079:	b9 24 00 00 00       	mov    $0x24,%ecx
   1307e:	48 89 c7             	mov    %rax,%rdi
   13081:	48 89 d6             	mov    %rdx,%rsi
   13084:	f3 48 a5             	rep movsq %ds:(%rsi),%es:(%rdi)
   13087:	48 8d 05 3c 25 01 00 	lea    0x1253c(%rip),%rax        # 255ca <g_80+0x2>
   1308e:	48 89 85 b0 fe ff ff 	mov    %rax,-0x150(%rbp)
   13095:	8b 85 90 fe ff ff    	mov    -0x170(%rbp),%eax
   1309b:	0f b7 d8             	movzwl %ax,%ebx
   1309e:	48 8b 85 98 fe ff ff 	mov    -0x168(%rbp),%rax
   130a5:	c7 00 ff ff ff ff    	movl   $0xffffffff,(%rax)
   130ab:	0f b7 05 74 9f 00 00 	movzwl 0x9f74(%rip),%eax        # 1d026 <g_19>
   130b2:	48 0f bf c0          	movswq %ax,%rax
   130b6:	48 89 c6             	mov    %rax,%rsi
   130b9:	48 bf 1f 91 b8 fb ef 	movabs $0x2f105eeffbb8911f,%rdi
   130c0:	5e 10 2f 
   130c3:	e8 e0 57 ff ff       	callq  88a8 <safe_sub_func_int64_t_s_s>
   130c8:	48 8d 05 65 9f 00 00 	lea    0x9f65(%rip),%rax        # 1d034 <g_31>
   130cf:	48 89 05 b2 fa 00 00 	mov    %rax,0xfab2(%rip)        # 22b88 <g_30+0x8>
   130d6:	48 8b 05 ab fa 00 00 	mov    0xfaab(%rip),%rax        # 22b88 <g_30+0x8>
   130dd:	48 89 05 d4 fa 00 00 	mov    %rax,0xfad4(%rip)        # 22bb8 <g_74>
   130e4:	48 8b 15 cd fa 00 00 	mov    0xfacd(%rip),%rdx        # 22bb8 <g_74>
   130eb:	48 8d 85 ac fe ff ff 	lea    -0x154(%rbp),%rax
   130f2:	48 39 c2             	cmp    %rax,%rdx
   130f5:	0f 95 c0             	setne  %al
   130f8:	89 c2                	mov    %eax,%edx
   130fa:	48 8b 85 b0 fe ff ff 	mov    -0x150(%rbp),%rax
   13101:	88 10                	mov    %dl,(%rax)
   13103:	8b 85 ac fe ff ff    	mov    -0x154(%rbp),%eax
   13109:	83 f8 6e             	cmp    $0x6e,%eax
   1310c:	0f 95 c0             	setne  %al
   1310f:	0f b6 d0             	movzbl %al,%edx
   13112:	48 8b 85 88 fe ff ff 	mov    -0x178(%rbp),%rax
   13119:	8b 00                	mov    (%rax),%eax
   1311b:	31 c2                	xor    %eax,%edx
   1311d:	48 8b 85 88 fe ff ff 	mov    -0x178(%rbp),%rax
   13124:	89 10                	mov    %edx,(%rax)
   13126:	48 8b 85 88 fe ff ff 	mov    -0x178(%rbp),%rax
   1312d:	8b 10                	mov    (%rax),%edx
   1312f:	8b 85 ac fe ff ff    	mov    -0x154(%rbp),%eax
   13135:	39 c2                	cmp    %eax,%edx
   13137:	0f 95 c0             	setne  %al
   1313a:	0f b6 c0             	movzbl %al,%eax
   1313d:	f7 d0                	not    %eax
   1313f:	0f b7 c0             	movzwl %ax,%eax
   13142:	89 de                	mov    %ebx,%esi
   13144:	89 c7                	mov    %eax,%edi
   13146:	e8 43 5c ff ff       	callq  8d8e <safe_div_func_uint16_t_u_u>
   1314b:	0f b7 c0             	movzwl %ax,%eax
   1314e:	89 85 ac fe ff ff    	mov    %eax,-0x154(%rbp)
   13154:	48 8b 85 98 fe ff ff 	mov    -0x168(%rbp),%rax
   1315b:	8b 10                	mov    (%rax),%edx
   1315d:	8b 85 ac fe ff ff    	mov    -0x154(%rbp),%eax
   13163:	31 d0                	xor    %edx,%eax
   13165:	89 85 ac fe ff ff    	mov    %eax,-0x154(%rbp)
   1316b:	48 8d 05 c2 9e 00 00 	lea    0x9ec2(%rip),%rax        # 1d034 <g_31>
   13172:	48 8b 5d e8          	mov    -0x18(%rbp),%rbx
   13176:	64 48 33 1c 25 28 00 	xor    %fs:0x28,%rbx
   1317d:	00 00 
   1317f:	74 05                	je     13186 <func_58+0x1ad>
   13181:	e8 ea 4e ff ff       	callq  8070 <__stack_chk_fail@plt>
   13186:	48 81 c4 78 01 00 00 	add    $0x178,%rsp
   1318d:	5b                   	pop    %rbx
   1318e:	5d                   	pop    %rbp
   1318f:	c3                   	retq   

0000000000013190 <main>:
   13190:	f3 0f 1e fa          	endbr64 
   13194:	55                   	push   %rbp
   13195:	48 89 e5             	mov    %rsp,%rbp
   13198:	48 83 ec 60          	sub    $0x60,%rsp
   1319c:	89 7d dc             	mov    %edi,-0x24(%rbp)
   1319f:	48 89 75 d0          	mov    %rsi,-0x30(%rbp)
   131a3:	64 48 8b 04 25 28 00 	mov    %fs:0x28,%rax
   131aa:	00 00 
   131ac:	48 89 45 f8          	mov    %rax,-0x8(%rbp)
   131b0:	31 c0                	xor    %eax,%eax
   131b2:	c7 45 f4 00 00 00 00 	movl   $0x0,-0xc(%rbp)
   131b9:	83 7d dc 02          	cmpl   $0x2,-0x24(%rbp)
   131bd:	74 25                	je     131e4 <main+0x54>
   131bf:	48 8b 45 d0          	mov    -0x30(%rbp),%rax
   131c3:	48 83 c0 08          	add    $0x8,%rax
   131c7:	48 8b 00             	mov    (%rax),%rax
   131ca:	48 8d 35 ff 5f 00 00 	lea    0x5fff(%rip),%rsi        # 191d0 <g_2539+0x790>
   131d1:	48 89 c7             	mov    %rax,%rdi
   131d4:	e8 b7 4e ff ff       	callq  8090 <strcmp@plt>
   131d9:	85 c0                	test   %eax,%eax
   131db:	74 07                	je     131e4 <main+0x54>
   131dd:	c7 45 f4 01 00 00 00 	movl   $0x1,-0xc(%rbp)
   131e4:	e8 a0 4f ff ff       	callq  8189 <platform_main_begin>
   131e9:	e8 aa 63 ff ff       	callq  9598 <crc32_gentab>
   131ee:	48 8d 45 a0          	lea    -0x60(%rbp),%rax
   131f2:	48 89 c7             	mov    %rax,%rdi
   131f5:	e8 bb 65 ff ff       	callq  97b5 <func_1>
   131fa:	0f b6 05 23 9e 00 00 	movzbl 0x9e23(%rip),%eax        # 1d024 <g_8>
   13201:	48 0f be c0          	movsbq %al,%rax
   13205:	8b 55 f4             	mov    -0xc(%rbp),%edx
   13208:	48 8d 35 c3 5f 00 00 	lea    0x5fc3(%rip),%rsi        # 191d2 <g_2539+0x792>
   1320f:	48 89 c7             	mov    %rax,%rdi
   13212:	e8 dc 64 ff ff       	callq  96f3 <transparent_crc>
   13217:	0f b7 05 08 9e 00 00 	movzwl 0x9e08(%rip),%eax        # 1d026 <g_19>
   1321e:	48 0f bf c0          	movswq %ax,%rax
   13222:	8b 55 f4             	mov    -0xc(%rbp),%edx
   13225:	48 8d 35 aa 5f 00 00 	lea    0x5faa(%rip),%rsi        # 191d6 <g_2539+0x796>
   1322c:	48 89 c7             	mov    %rax,%rdi
   1322f:	e8 bf 64 ff ff       	callq  96f3 <transparent_crc>
   13234:	c7 45 e8 00 00 00 00 	movl   $0x0,-0x18(%rbp)
   1323b:	eb 4a                	jmp    13287 <main+0xf7>
   1323d:	8b 45 e8             	mov    -0x18(%rbp),%eax
   13240:	48 98                	cltq   
   13242:	48 8d 14 00          	lea    (%rax,%rax,1),%rdx
   13246:	48 8d 05 db 9d 00 00 	lea    0x9ddb(%rip),%rax        # 1d028 <g_29>
   1324d:	0f b7 04 02          	movzwl (%rdx,%rax,1),%eax
   13251:	48 0f bf c0          	movswq %ax,%rax
   13255:	8b 55 f4             	mov    -0xc(%rbp),%edx
   13258:	48 8d 35 7c 5f 00 00 	lea    0x5f7c(%rip),%rsi        # 191db <g_2539+0x79b>
   1325f:	48 89 c7             	mov    %rax,%rdi
   13262:	e8 8c 64 ff ff       	callq  96f3 <transparent_crc>
   13267:	83 7d f4 00          	cmpl   $0x0,-0xc(%rbp)
   1326b:	74 16                	je     13283 <main+0xf3>
   1326d:	8b 45 e8             	mov    -0x18(%rbp),%eax
   13270:	89 c6                	mov    %eax,%esi
   13272:	48 8d 3d 6a 5f 00 00 	lea    0x5f6a(%rip),%rdi        # 191e3 <g_2539+0x7a3>
   13279:	b8 00 00 00 00       	mov    $0x0,%eax
   1327e:	e8 fd 4d ff ff       	callq  8080 <printf@plt>
   13283:	83 45 e8 01          	addl   $0x1,-0x18(%rbp)
   13287:	83 7d e8 04          	cmpl   $0x4,-0x18(%rbp)
   1328b:	7e b0                	jle    1323d <main+0xad>
   1328d:	8b 05 a1 9d 00 00    	mov    0x9da1(%rip),%eax        # 1d034 <g_31>
   13293:	48 98                	cltq   
   13295:	8b 55 f4             	mov    -0xc(%rbp),%edx
   13298:	48 8d 35 52 5f 00 00 	lea    0x5f52(%rip),%rsi        # 191f1 <g_2539+0x7b1>
   1329f:	48 89 c7             	mov    %rax,%rdi
   132a2:	e8 4c 64 ff ff       	callq  96f3 <transparent_crc>
   132a7:	8b 05 8b 9d 00 00    	mov    0x9d8b(%rip),%eax        # 1d038 <g_45>
   132ad:	48 98                	cltq   
   132af:	8b 55 f4             	mov    -0xc(%rbp),%edx
   132b2:	48 8d 35 3d 5f 00 00 	lea    0x5f3d(%rip),%rsi        # 191f6 <g_2539+0x7b6>
   132b9:	48 89 c7             	mov    %rax,%rdi
   132bc:	e8 32 64 ff ff       	callq  96f3 <transparent_crc>
   132c1:	8b 05 75 9d 00 00    	mov    0x9d75(%rip),%eax        # 1d03c <g_67>
   132c7:	48 98                	cltq   
   132c9:	8b 55 f4             	mov    -0xc(%rbp),%edx
   132cc:	48 8d 35 28 5f 00 00 	lea    0x5f28(%rip),%rsi        # 191fb <g_2539+0x7bb>
   132d3:	48 89 c7             	mov    %rax,%rdi
   132d6:	e8 18 64 ff ff       	callq  96f3 <transparent_crc>
   132db:	c7 45 e8 00 00 00 00 	movl   $0x0,-0x18(%rbp)
   132e2:	eb 46                	jmp    1332a <main+0x19a>
   132e4:	8b 45 e8             	mov    -0x18(%rbp),%eax
   132e7:	48 98                	cltq   
   132e9:	48 8d 15 d8 22 01 00 	lea    0x122d8(%rip),%rdx        # 255c8 <g_80>
   132f0:	0f b6 04 10          	movzbl (%rax,%rdx,1),%eax
   132f4:	48 0f be c0          	movsbq %al,%rax
   132f8:	8b 55 f4             	mov    -0xc(%rbp),%edx
   132fb:	48 8d 35 fe 5e 00 00 	lea    0x5efe(%rip),%rsi        # 19200 <g_2539+0x7c0>
   13302:	48 89 c7             	mov    %rax,%rdi
   13305:	e8 e9 63 ff ff       	callq  96f3 <transparent_crc>
   1330a:	83 7d f4 00          	cmpl   $0x0,-0xc(%rbp)
   1330e:	74 16                	je     13326 <main+0x196>
   13310:	8b 45 e8             	mov    -0x18(%rbp),%eax
   13313:	89 c6                	mov    %eax,%esi
   13315:	48 8d 3d c7 5e 00 00 	lea    0x5ec7(%rip),%rdi        # 191e3 <g_2539+0x7a3>
   1331c:	b8 00 00 00 00       	mov    $0x0,%eax
   13321:	e8 5a 4d ff ff       	callq  8080 <printf@plt>
   13326:	83 45 e8 01          	addl   $0x1,-0x18(%rbp)
   1332a:	83 7d e8 02          	cmpl   $0x2,-0x18(%rbp)
   1332e:	7e b4                	jle    132e4 <main+0x154>
   13330:	c7 45 e8 00 00 00 00 	movl   $0x0,-0x18(%rbp)
   13337:	e9 a3 00 00 00       	jmpq   133df <main+0x24f>
   1333c:	c7 45 ec 00 00 00 00 	movl   $0x0,-0x14(%rbp)
   13343:	e9 89 00 00 00       	jmpq   133d1 <main+0x241>
   13348:	c7 45 f0 00 00 00 00 	movl   $0x0,-0x10(%rbp)
   1334f:	eb 76                	jmp    133c7 <main+0x237>
   13351:	8b 45 f0             	mov    -0x10(%rbp),%eax
   13354:	48 63 c8             	movslq %eax,%rcx
   13357:	8b 45 e8             	mov    -0x18(%rbp),%eax
   1335a:	48 63 d0             	movslq %eax,%rdx
   1335d:	8b 45 ec             	mov    -0x14(%rbp),%eax
   13360:	48 63 f0             	movslq %eax,%rsi
   13363:	48 89 d0             	mov    %rdx,%rax
   13366:	48 01 c0             	add    %rax,%rax
   13369:	48 01 d0             	add    %rdx,%rax
   1336c:	48 01 c0             	add    %rax,%rax
   1336f:	48 01 f0             	add    %rsi,%rax
   13372:	48 c1 e0 02          	shl    $0x2,%rax
   13376:	48 01 c8             	add    %rcx,%rax
   13379:	48 8d 14 85 00 00 00 	lea    0x0(,%rax,4),%rdx
   13380:	00 
   13381:	48 8d 05 b8 9c 00 00 	lea    0x9cb8(%rip),%rax        # 1d040 <g_86>
   13388:	8b 04 02             	mov    (%rdx,%rax,1),%eax
   1338b:	89 c1                	mov    %eax,%ecx
   1338d:	8b 45 f4             	mov    -0xc(%rbp),%eax
   13390:	89 c2                	mov    %eax,%edx
   13392:	48 8d 35 6f 5e 00 00 	lea    0x5e6f(%rip),%rsi        # 19208 <g_2539+0x7c8>
   13399:	48 89 cf             	mov    %rcx,%rdi
   1339c:	e8 52 63 ff ff       	callq  96f3 <transparent_crc>
   133a1:	83 7d f4 00          	cmpl   $0x0,-0xc(%rbp)
   133a5:	74 1c                	je     133c3 <main+0x233>
   133a7:	8b 4d f0             	mov    -0x10(%rbp),%ecx
   133aa:	8b 55 ec             	mov    -0x14(%rbp),%edx
   133ad:	8b 45 e8             	mov    -0x18(%rbp),%eax
   133b0:	89 c6                	mov    %eax,%esi
   133b2:	48 8d 3d 5d 5e 00 00 	lea    0x5e5d(%rip),%rdi        # 19216 <g_2539+0x7d6>
   133b9:	b8 00 00 00 00       	mov    $0x0,%eax
   133be:	e8 bd 4c ff ff       	callq  8080 <printf@plt>
   133c3:	83 45 f0 01          	addl   $0x1,-0x10(%rbp)
   133c7:	83 7d f0 03          	cmpl   $0x3,-0x10(%rbp)
   133cb:	7e 84                	jle    13351 <main+0x1c1>
   133cd:	83 45 ec 01          	addl   $0x1,-0x14(%rbp)
   133d1:	83 7d ec 05          	cmpl   $0x5,-0x14(%rbp)
   133d5:	0f 8e 6d ff ff ff    	jle    13348 <main+0x1b8>
   133db:	83 45 e8 01          	addl   $0x1,-0x18(%rbp)
   133df:	83 7d e8 06          	cmpl   $0x6,-0x18(%rbp)
   133e3:	0f 8e 53 ff ff ff    	jle    1333c <main+0x1ac>
   133e9:	0f b7 05 f0 9e 00 00 	movzwl 0x9ef0(%rip),%eax        # 1d2e0 <g_107>
   133f0:	0f b7 c0             	movzwl %ax,%eax
   133f3:	8b 55 f4             	mov    -0xc(%rbp),%edx
   133f6:	48 8d 35 2f 5e 00 00 	lea    0x5e2f(%rip),%rsi        # 1922c <g_2539+0x7ec>
   133fd:	48 89 c7             	mov    %rax,%rdi
   13400:	e8 ee 62 ff ff       	callq  96f3 <transparent_crc>
   13405:	8b 05 d9 9e 00 00    	mov    0x9ed9(%rip),%eax        # 1d2e4 <g_108>
   1340b:	48 98                	cltq   
   1340d:	8b 55 f4             	mov    -0xc(%rbp),%edx
   13410:	48 8d 35 1b 5e 00 00 	lea    0x5e1b(%rip),%rsi        # 19232 <g_2539+0x7f2>
   13417:	48 89 c7             	mov    %rax,%rdi
   1341a:	e8 d4 62 ff ff       	callq  96f3 <transparent_crc>
   1341f:	0f b7 05 c2 9e 00 00 	movzwl 0x9ec2(%rip),%eax        # 1d2e8 <g_122>
   13426:	0f b7 c0             	movzwl %ax,%eax
   13429:	8b 55 f4             	mov    -0xc(%rbp),%edx
   1342c:	48 8d 35 05 5e 00 00 	lea    0x5e05(%rip),%rsi        # 19238 <g_2539+0x7f8>
   13433:	48 89 c7             	mov    %rax,%rdi
   13436:	e8 b8 62 ff ff       	callq  96f3 <transparent_crc>
   1343b:	48 8b 05 ae 9e 00 00 	mov    0x9eae(%rip),%rax        # 1d2f0 <g_145>
   13442:	48 89 c1             	mov    %rax,%rcx
   13445:	8b 45 f4             	mov    -0xc(%rbp),%eax
   13448:	89 c2                	mov    %eax,%edx
   1344a:	48 8d 35 ed 5d 00 00 	lea    0x5ded(%rip),%rsi        # 1923e <g_2539+0x7fe>
   13451:	48 89 cf             	mov    %rcx,%rdi
   13454:	e8 9a 62 ff ff       	callq  96f3 <transparent_crc>
   13459:	0f b6 05 98 9e 00 00 	movzbl 0x9e98(%rip),%eax        # 1d2f8 <g_161>
   13460:	0f b6 c0             	movzbl %al,%eax
   13463:	8b 55 f4             	mov    -0xc(%rbp),%edx
   13466:	48 8d 35 d7 5d 00 00 	lea    0x5dd7(%rip),%rsi        # 19244 <g_2539+0x804>
   1346d:	48 89 c7             	mov    %rax,%rdi
   13470:	e8 7e 62 ff ff       	callq  96f3 <transparent_crc>
   13475:	0f b7 05 7e 9e 00 00 	movzwl 0x9e7e(%rip),%eax        # 1d2fa <g_166>
   1347c:	0f b7 c0             	movzwl %ax,%eax
   1347f:	8b 55 f4             	mov    -0xc(%rbp),%edx
   13482:	48 8d 35 c1 5d 00 00 	lea    0x5dc1(%rip),%rsi        # 1924a <g_2539+0x80a>
   13489:	48 89 c7             	mov    %rax,%rdi
   1348c:	e8 62 62 ff ff       	callq  96f3 <transparent_crc>
   13491:	c7 45 e8 00 00 00 00 	movl   $0x0,-0x18(%rbp)
   13498:	eb 4e                	jmp    134e8 <main+0x358>
   1349a:	8b 45 e8             	mov    -0x18(%rbp),%eax
   1349d:	48 98                	cltq   
   1349f:	48 8d 14 c5 00 00 00 	lea    0x0(,%rax,8),%rdx
   134a6:	00 
   134a7:	48 8d 05 52 9e 00 00 	lea    0x9e52(%rip),%rax        # 1d300 <g_192>
   134ae:	0f b6 04 02          	movzbl (%rdx,%rax,1),%eax
   134b2:	48 0f be c0          	movsbq %al,%rax
   134b6:	8b 55 f4             	mov    -0xc(%rbp),%edx
   134b9:	48 8d 35 90 5d 00 00 	lea    0x5d90(%rip),%rsi        # 19250 <g_2539+0x810>
   134c0:	48 89 c7             	mov    %rax,%rdi
   134c3:	e8 2b 62 ff ff       	callq  96f3 <transparent_crc>
   134c8:	83 7d f4 00          	cmpl   $0x0,-0xc(%rbp)
   134cc:	74 16                	je     134e4 <main+0x354>
   134ce:	8b 45 e8             	mov    -0x18(%rbp),%eax
   134d1:	89 c6                	mov    %eax,%esi
   134d3:	48 8d 3d 09 5d 00 00 	lea    0x5d09(%rip),%rdi        # 191e3 <g_2539+0x7a3>
   134da:	b8 00 00 00 00       	mov    $0x0,%eax
   134df:	e8 9c 4b ff ff       	callq  8080 <printf@plt>
   134e4:	83 45 e8 01          	addl   $0x1,-0x18(%rbp)
   134e8:	83 7d e8 07          	cmpl   $0x7,-0x18(%rbp)
   134ec:	7e ac                	jle    1349a <main+0x30a>
   134ee:	0f b6 05 4b 9e 00 00 	movzbl 0x9e4b(%rip),%eax        # 1d340 <g_195>
   134f5:	48 0f be c0          	movsbq %al,%rax
   134f9:	8b 55 f4             	mov    -0xc(%rbp),%edx
   134fc:	48 8d 35 59 5d 00 00 	lea    0x5d59(%rip),%rsi        # 1925c <g_2539+0x81c>
   13503:	48 89 c7             	mov    %rax,%rdi
   13506:	e8 e8 61 ff ff       	callq  96f3 <transparent_crc>
   1350b:	8b 05 37 9e 00 00    	mov    0x9e37(%rip),%eax        # 1d348 <g_223>
   13511:	89 c1                	mov    %eax,%ecx
   13513:	8b 45 f4             	mov    -0xc(%rbp),%eax
   13516:	89 c2                	mov    %eax,%edx
   13518:	48 8d 35 46 5d 00 00 	lea    0x5d46(%rip),%rsi        # 19265 <g_2539+0x825>
   1351f:	48 89 cf             	mov    %rcx,%rdi
   13522:	e8 cc 61 ff ff       	callq  96f3 <transparent_crc>
   13527:	0f b6 05 22 9e 00 00 	movzbl 0x9e22(%rip),%eax        # 1d350 <g_300>
   1352e:	48 0f be c0          	movsbq %al,%rax
   13532:	8b 55 f4             	mov    -0xc(%rbp),%edx
   13535:	48 8d 35 2f 5d 00 00 	lea    0x5d2f(%rip),%rsi        # 1926b <g_2539+0x82b>
   1353c:	48 89 c7             	mov    %rax,%rdi
   1353f:	e8 af 61 ff ff       	callq  96f3 <transparent_crc>
   13544:	0f b6 05 0d 9e 00 00 	movzbl 0x9e0d(%rip),%eax        # 1d358 <g_301>
   1354b:	48 0f be c0          	movsbq %al,%rax
   1354f:	8b 55 f4             	mov    -0xc(%rbp),%edx
   13552:	48 8d 35 1b 5d 00 00 	lea    0x5d1b(%rip),%rsi        # 19274 <g_2539+0x834>
   13559:	48 89 c7             	mov    %rax,%rdi
   1355c:	e8 92 61 ff ff       	callq  96f3 <transparent_crc>
   13561:	0f b6 05 f8 9d 00 00 	movzbl 0x9df8(%rip),%eax        # 1d360 <g_302>
   13568:	48 0f be c0          	movsbq %al,%rax
   1356c:	8b 55 f4             	mov    -0xc(%rbp),%edx
   1356f:	48 8d 35 07 5d 00 00 	lea    0x5d07(%rip),%rsi        # 1927d <g_2539+0x83d>
   13576:	48 89 c7             	mov    %rax,%rdi
   13579:	e8 75 61 ff ff       	callq  96f3 <transparent_crc>
   1357e:	0f b6 05 e3 9d 00 00 	movzbl 0x9de3(%rip),%eax        # 1d368 <g_350>
   13585:	0f b6 c0             	movzbl %al,%eax
   13588:	8b 55 f4             	mov    -0xc(%rbp),%edx
   1358b:	48 8d 35 f4 5c 00 00 	lea    0x5cf4(%rip),%rsi        # 19286 <g_2539+0x846>
   13592:	48 89 c7             	mov    %rax,%rdi
   13595:	e8 59 61 ff ff       	callq  96f3 <transparent_crc>
   1359a:	0f b6 05 c8 9d 00 00 	movzbl 0x9dc8(%rip),%eax        # 1d369 <g_399>
   135a1:	0f b6 c0             	movzbl %al,%eax
   135a4:	8b 55 f4             	mov    -0xc(%rbp),%edx
   135a7:	48 8d 35 de 5c 00 00 	lea    0x5cde(%rip),%rsi        # 1928c <g_2539+0x84c>
   135ae:	48 89 c7             	mov    %rax,%rdi
   135b1:	e8 3d 61 ff ff       	callq  96f3 <transparent_crc>
   135b6:	48 8b 05 b3 9d 00 00 	mov    0x9db3(%rip),%rax        # 1d370 <g_434>
   135bd:	8b 55 f4             	mov    -0xc(%rbp),%edx
   135c0:	48 8d 35 cb 5c 00 00 	lea    0x5ccb(%rip),%rsi        # 19292 <g_2539+0x852>
   135c7:	48 89 c7             	mov    %rax,%rdi
   135ca:	e8 24 61 ff ff       	callq  96f3 <transparent_crc>
   135cf:	0f b6 05 a2 9d 00 00 	movzbl 0x9da2(%rip),%eax        # 1d378 <g_440>
   135d6:	48 0f be c0          	movsbq %al,%rax
   135da:	8b 55 f4             	mov    -0xc(%rbp),%edx
   135dd:	48 8d 35 b4 5c 00 00 	lea    0x5cb4(%rip),%rsi        # 19298 <g_2539+0x858>
   135e4:	48 89 c7             	mov    %rax,%rdi
   135e7:	e8 07 61 ff ff       	callq  96f3 <transparent_crc>
   135ec:	8b 05 8e 9d 00 00    	mov    0x9d8e(%rip),%eax        # 1d380 <g_474>
   135f2:	c1 e0 03             	shl    $0x3,%eax
   135f5:	c1 f8 03             	sar    $0x3,%eax
   135f8:	48 98                	cltq   
   135fa:	8b 55 f4             	mov    -0xc(%rbp),%edx
   135fd:	48 8d 35 9d 5c 00 00 	lea    0x5c9d(%rip),%rsi        # 192a1 <g_2539+0x861>
   13604:	48 89 c7             	mov    %rax,%rdi
   13607:	e8 e7 60 ff ff       	callq  96f3 <transparent_crc>
   1360c:	48 8b 05 75 9d 00 00 	mov    0x9d75(%rip),%rax        # 1d388 <g_474+0x8>
   13613:	48 89 c1             	mov    %rax,%rcx
   13616:	8b 45 f4             	mov    -0xc(%rbp),%eax
   13619:	89 c2                	mov    %eax,%edx
   1361b:	48 8d 35 88 5c 00 00 	lea    0x5c88(%rip),%rsi        # 192aa <g_2539+0x86a>
   13622:	48 89 cf             	mov    %rcx,%rdi
   13625:	e8 c9 60 ff ff       	callq  96f3 <transparent_crc>
   1362a:	0f b6 05 5f 9d 00 00 	movzbl 0x9d5f(%rip),%eax        # 1d390 <g_474+0x10>
   13631:	83 e0 0f             	and    $0xf,%eax
   13634:	0f b6 c0             	movzbl %al,%eax
   13637:	8b 55 f4             	mov    -0xc(%rbp),%edx
   1363a:	48 8d 35 72 5c 00 00 	lea    0x5c72(%rip),%rsi        # 192b3 <g_2539+0x873>
   13641:	48 89 c7             	mov    %rax,%rdi
   13644:	e8 aa 60 ff ff       	callq  96f3 <transparent_crc>
   13649:	8b 05 41 9d 00 00    	mov    0x9d41(%rip),%eax        # 1d390 <g_474+0x10>
   1364f:	01 c0                	add    %eax,%eax
   13651:	c1 f8 05             	sar    $0x5,%eax
   13654:	48 98                	cltq   
   13656:	8b 55 f4             	mov    -0xc(%rbp),%edx
   13659:	48 8d 35 5c 5c 00 00 	lea    0x5c5c(%rip),%rsi        # 192bc <g_2539+0x87c>
   13660:	48 89 c7             	mov    %rax,%rdi
   13663:	e8 8b 60 ff ff       	callq  96f3 <transparent_crc>
   13668:	48 8b 05 21 9d 00 00 	mov    0x9d21(%rip),%rax        # 1d390 <g_474+0x10>
   1366f:	48 c1 e0 03          	shl    $0x3,%rax
   13673:	48 c1 f8 23          	sar    $0x23,%rax
   13677:	48 98                	cltq   
   13679:	8b 55 f4             	mov    -0xc(%rbp),%edx
   1367c:	48 8d 35 42 5c 00 00 	lea    0x5c42(%rip),%rsi        # 192c5 <g_2539+0x885>
   13683:	48 89 c7             	mov    %rax,%rdi
   13686:	e8 68 60 ff ff       	callq  96f3 <transparent_crc>
   1368b:	0f b7 05 06 9d 00 00 	movzwl 0x9d06(%rip),%eax        # 1d398 <g_474+0x18>
   13692:	66 25 ff 0f          	and    $0xfff,%ax
   13696:	0f b7 c0             	movzwl %ax,%eax
   13699:	8b 55 f4             	mov    -0xc(%rbp),%edx
   1369c:	48 8d 35 2b 5c 00 00 	lea    0x5c2b(%rip),%rsi        # 192ce <g_2539+0x88e>
   136a3:	48 89 c7             	mov    %rax,%rdi
   136a6:	e8 48 60 ff ff       	callq  96f3 <transparent_crc>
   136ab:	8b 05 eb 9c 00 00    	mov    0x9ceb(%rip),%eax        # 1d39c <g_474+0x1c>
   136b1:	25 ff ff 3f 00       	and    $0x3fffff,%eax
   136b6:	89 c1                	mov    %eax,%ecx
   136b8:	8b 45 f4             	mov    -0xc(%rbp),%eax
   136bb:	89 c2                	mov    %eax,%edx
   136bd:	48 8d 35 13 5c 00 00 	lea    0x5c13(%rip),%rsi        # 192d7 <g_2539+0x897>
   136c4:	48 89 cf             	mov    %rcx,%rdi
   136c7:	e8 27 60 ff ff       	callq  96f3 <transparent_crc>
   136cc:	0f b7 05 cd 9c 00 00 	movzwl 0x9ccd(%rip),%eax        # 1d3a0 <g_474+0x20>
   136d3:	c1 e0 03             	shl    $0x3,%eax
   136d6:	66 c1 f8 03          	sar    $0x3,%ax
   136da:	48 0f bf c0          	movswq %ax,%rax
   136de:	8b 55 f4             	mov    -0xc(%rbp),%edx
   136e1:	48 8d 35 f8 5b 00 00 	lea    0x5bf8(%rip),%rsi        # 192e0 <g_2539+0x8a0>
   136e8:	48 89 c7             	mov    %rax,%rdi
   136eb:	e8 03 60 ff ff       	callq  96f3 <transparent_crc>
   136f0:	8b 05 ae 9c 00 00    	mov    0x9cae(%rip),%eax        # 1d3a4 <g_474+0x24>
   136f6:	25 ff ff ff 7f       	and    $0x7fffffff,%eax
   136fb:	89 c1                	mov    %eax,%ecx
   136fd:	8b 45 f4             	mov    -0xc(%rbp),%eax
   13700:	89 c2                	mov    %eax,%edx
   13702:	48 8d 35 e0 5b 00 00 	lea    0x5be0(%rip),%rsi        # 192e9 <g_2539+0x8a9>
   13709:	48 89 cf             	mov    %rcx,%rdi
   1370c:	e8 e2 5f ff ff       	callq  96f3 <transparent_crc>
   13711:	8b 05 a9 9c 00 00    	mov    0x9ca9(%rip),%eax        # 1d3c0 <g_492>
   13717:	c1 e0 03             	shl    $0x3,%eax
   1371a:	c1 f8 03             	sar    $0x3,%eax
   1371d:	48 98                	cltq   
   1371f:	8b 55 f4             	mov    -0xc(%rbp),%edx
   13722:	48 8d 35 c9 5b 00 00 	lea    0x5bc9(%rip),%rsi        # 192f2 <g_2539+0x8b2>
   13729:	48 89 c7             	mov    %rax,%rdi
   1372c:	e8 c2 5f ff ff       	callq  96f3 <transparent_crc>
   13731:	48 8b 05 90 9c 00 00 	mov    0x9c90(%rip),%rax        # 1d3c8 <g_492+0x8>
   13738:	48 89 c1             	mov    %rax,%rcx
   1373b:	8b 45 f4             	mov    -0xc(%rbp),%eax
   1373e:	89 c2                	mov    %eax,%edx
   13740:	48 8d 35 b4 5b 00 00 	lea    0x5bb4(%rip),%rsi        # 192fb <g_2539+0x8bb>
   13747:	48 89 cf             	mov    %rcx,%rdi
   1374a:	e8 a4 5f ff ff       	callq  96f3 <transparent_crc>
   1374f:	0f b6 05 7a 9c 00 00 	movzbl 0x9c7a(%rip),%eax        # 1d3d0 <g_492+0x10>
   13756:	83 e0 0f             	and    $0xf,%eax
   13759:	0f b6 c0             	movzbl %al,%eax
   1375c:	8b 55 f4             	mov    -0xc(%rbp),%edx
   1375f:	48 8d 35 9e 5b 00 00 	lea    0x5b9e(%rip),%rsi        # 19304 <g_2539+0x8c4>
   13766:	48 89 c7             	mov    %rax,%rdi
   13769:	e8 85 5f ff ff       	callq  96f3 <transparent_crc>
   1376e:	8b 05 5c 9c 00 00    	mov    0x9c5c(%rip),%eax        # 1d3d0 <g_492+0x10>
   13774:	01 c0                	add    %eax,%eax
   13776:	c1 f8 05             	sar    $0x5,%eax
   13779:	48 98                	cltq   
   1377b:	8b 55 f4             	mov    -0xc(%rbp),%edx
   1377e:	48 8d 35 88 5b 00 00 	lea    0x5b88(%rip),%rsi        # 1930d <g_2539+0x8cd>
   13785:	48 89 c7             	mov    %rax,%rdi
   13788:	e8 66 5f ff ff       	callq  96f3 <transparent_crc>
   1378d:	48 8b 05 3c 9c 00 00 	mov    0x9c3c(%rip),%rax        # 1d3d0 <g_492+0x10>
   13794:	48 c1 e0 03          	shl    $0x3,%rax
   13798:	48 c1 f8 23          	sar    $0x23,%rax
   1379c:	48 98                	cltq   
   1379e:	8b 55 f4             	mov    -0xc(%rbp),%edx
   137a1:	48 8d 35 6e 5b 00 00 	lea    0x5b6e(%rip),%rsi        # 19316 <g_2539+0x8d6>
   137a8:	48 89 c7             	mov    %rax,%rdi
   137ab:	e8 43 5f ff ff       	callq  96f3 <transparent_crc>
   137b0:	0f b7 05 21 9c 00 00 	movzwl 0x9c21(%rip),%eax        # 1d3d8 <g_492+0x18>
   137b7:	66 25 ff 0f          	and    $0xfff,%ax
   137bb:	0f b7 c0             	movzwl %ax,%eax
   137be:	8b 55 f4             	mov    -0xc(%rbp),%edx
   137c1:	48 8d 35 57 5b 00 00 	lea    0x5b57(%rip),%rsi        # 1931f <g_2539+0x8df>
   137c8:	48 89 c7             	mov    %rax,%rdi
   137cb:	e8 23 5f ff ff       	callq  96f3 <transparent_crc>
   137d0:	8b 05 06 9c 00 00    	mov    0x9c06(%rip),%eax        # 1d3dc <g_492+0x1c>
   137d6:	25 ff ff 3f 00       	and    $0x3fffff,%eax
   137db:	89 c1                	mov    %eax,%ecx
   137dd:	8b 45 f4             	mov    -0xc(%rbp),%eax
   137e0:	89 c2                	mov    %eax,%edx
   137e2:	48 8d 35 3f 5b 00 00 	lea    0x5b3f(%rip),%rsi        # 19328 <g_2539+0x8e8>
   137e9:	48 89 cf             	mov    %rcx,%rdi
   137ec:	e8 02 5f ff ff       	callq  96f3 <transparent_crc>
   137f1:	0f b7 05 e8 9b 00 00 	movzwl 0x9be8(%rip),%eax        # 1d3e0 <g_492+0x20>
   137f8:	c1 e0 03             	shl    $0x3,%eax
   137fb:	66 c1 f8 03          	sar    $0x3,%ax
   137ff:	48 0f bf c0          	movswq %ax,%rax
   13803:	8b 55 f4             	mov    -0xc(%rbp),%edx
   13806:	48 8d 35 24 5b 00 00 	lea    0x5b24(%rip),%rsi        # 19331 <g_2539+0x8f1>
   1380d:	48 89 c7             	mov    %rax,%rdi
   13810:	e8 de 5e ff ff       	callq  96f3 <transparent_crc>
   13815:	8b 05 c9 9b 00 00    	mov    0x9bc9(%rip),%eax        # 1d3e4 <g_492+0x24>
   1381b:	25 ff ff ff 7f       	and    $0x7fffffff,%eax
   13820:	89 c1                	mov    %eax,%ecx
   13822:	8b 45 f4             	mov    -0xc(%rbp),%eax
   13825:	89 c2                	mov    %eax,%edx
   13827:	48 8d 35 0c 5b 00 00 	lea    0x5b0c(%rip),%rsi        # 1933a <g_2539+0x8fa>
   1382e:	48 89 cf             	mov    %rcx,%rdi
   13831:	e8 bd 5e ff ff       	callq  96f3 <transparent_crc>
   13836:	c7 45 e8 00 00 00 00 	movl   $0x0,-0x18(%rbp)
   1383d:	eb 4b                	jmp    1388a <main+0x6fa>
   1383f:	8b 45 e8             	mov    -0x18(%rbp),%eax
   13842:	48 98                	cltq   
   13844:	48 8d 14 85 00 00 00 	lea    0x0(,%rax,4),%rdx
   1384b:	00 
   1384c:	48 8d 05 9d 9b 00 00 	lea    0x9b9d(%rip),%rax        # 1d3f0 <g_500>
   13853:	8b 04 02             	mov    (%rdx,%rax,1),%eax
   13856:	48 98                	cltq   
   13858:	8b 55 f4             	mov    -0xc(%rbp),%edx
   1385b:	48 8d 35 e1 5a 00 00 	lea    0x5ae1(%rip),%rsi        # 19343 <g_2539+0x903>
   13862:	48 89 c7             	mov    %rax,%rdi
   13865:	e8 89 5e ff ff       	callq  96f3 <transparent_crc>
   1386a:	83 7d f4 00          	cmpl   $0x0,-0xc(%rbp)
   1386e:	74 16                	je     13886 <main+0x6f6>
   13870:	8b 45 e8             	mov    -0x18(%rbp),%eax
   13873:	89 c6                	mov    %eax,%esi
   13875:	48 8d 3d 67 59 00 00 	lea    0x5967(%rip),%rdi        # 191e3 <g_2539+0x7a3>
   1387c:	b8 00 00 00 00       	mov    $0x0,%eax
   13881:	e8 fa 47 ff ff       	callq  8080 <printf@plt>
   13886:	83 45 e8 01          	addl   $0x1,-0x18(%rbp)
   1388a:	83 7d e8 05          	cmpl   $0x5,-0x18(%rbp)
   1388e:	7e af                	jle    1383f <main+0x6af>
   13890:	0f b6 05 71 9b 00 00 	movzbl 0x9b71(%rip),%eax        # 1d408 <g_538>
   13897:	0f b6 c0             	movzbl %al,%eax
   1389a:	8b 55 f4             	mov    -0xc(%rbp),%edx
   1389d:	48 8d 35 a8 5a 00 00 	lea    0x5aa8(%rip),%rsi        # 1934c <g_2539+0x90c>
   138a4:	48 89 c7             	mov    %rax,%rdi
   138a7:	e8 47 5e ff ff       	callq  96f3 <transparent_crc>
   138ac:	0f b7 05 57 9b 00 00 	movzwl 0x9b57(%rip),%eax        # 1d40a <g_669>
   138b3:	48 0f bf c0          	movswq %ax,%rax
   138b7:	8b 55 f4             	mov    -0xc(%rbp),%edx
   138ba:	48 8d 35 91 5a 00 00 	lea    0x5a91(%rip),%rsi        # 19352 <g_2539+0x912>
   138c1:	48 89 c7             	mov    %rax,%rdi
   138c4:	e8 2a 5e ff ff       	callq  96f3 <transparent_crc>
   138c9:	48 8b 05 60 1d 01 00 	mov    0x11d60(%rip),%rax        # 25630 <g_741>
   138d0:	8b 55 f4             	mov    -0xc(%rbp),%edx
   138d3:	48 8d 35 7e 5a 00 00 	lea    0x5a7e(%rip),%rsi        # 19358 <g_2539+0x918>
   138da:	48 89 c7             	mov    %rax,%rdi
   138dd:	e8 11 5e ff ff       	callq  96f3 <transparent_crc>
   138e2:	48 8b 05 27 9b 00 00 	mov    0x9b27(%rip),%rax        # 1d410 <g_743>
   138e9:	8b 55 f4             	mov    -0xc(%rbp),%edx
   138ec:	48 8d 35 6b 5a 00 00 	lea    0x5a6b(%rip),%rsi        # 1935e <g_2539+0x91e>
   138f3:	48 89 c7             	mov    %rax,%rdi
   138f6:	e8 f8 5d ff ff       	callq  96f3 <transparent_crc>
   138fb:	48 8b 05 16 9b 00 00 	mov    0x9b16(%rip),%rax        # 1d418 <g_777>
   13902:	8b 55 f4             	mov    -0xc(%rbp),%edx
   13905:	48 8d 35 58 5a 00 00 	lea    0x5a58(%rip),%rsi        # 19364 <g_2539+0x924>
   1390c:	48 89 c7             	mov    %rax,%rdi
   1390f:	e8 df 5d ff ff       	callq  96f3 <transparent_crc>
   13914:	48 8b 05 05 9b 00 00 	mov    0x9b05(%rip),%rax        # 1d420 <g_778>
   1391b:	8b 55 f4             	mov    -0xc(%rbp),%edx
   1391e:	48 8d 35 45 5a 00 00 	lea    0x5a45(%rip),%rsi        # 1936a <g_2539+0x92a>
   13925:	48 89 c7             	mov    %rax,%rdi
   13928:	e8 c6 5d ff ff       	callq  96f3 <transparent_crc>
   1392d:	48 8b 05 f4 9a 00 00 	mov    0x9af4(%rip),%rax        # 1d428 <g_779>
   13934:	8b 55 f4             	mov    -0xc(%rbp),%edx
   13937:	48 8d 35 32 5a 00 00 	lea    0x5a32(%rip),%rsi        # 19370 <g_2539+0x930>
   1393e:	48 89 c7             	mov    %rax,%rdi
   13941:	e8 ad 5d ff ff       	callq  96f3 <transparent_crc>
   13946:	48 8b 05 e3 9a 00 00 	mov    0x9ae3(%rip),%rax        # 1d430 <g_780>
   1394d:	8b 55 f4             	mov    -0xc(%rbp),%edx
   13950:	48 8d 35 1f 5a 00 00 	lea    0x5a1f(%rip),%rsi        # 19376 <g_2539+0x936>
   13957:	48 89 c7             	mov    %rax,%rdi
   1395a:	e8 94 5d ff ff       	callq  96f3 <transparent_crc>
   1395f:	48 8b 05 d2 9a 00 00 	mov    0x9ad2(%rip),%rax        # 1d438 <g_781>
   13966:	8b 55 f4             	mov    -0xc(%rbp),%edx
   13969:	48 8d 35 0c 5a 00 00 	lea    0x5a0c(%rip),%rsi        # 1937c <g_2539+0x93c>
   13970:	48 89 c7             	mov    %rax,%rdi
   13973:	e8 7b 5d ff ff       	callq  96f3 <transparent_crc>
   13978:	48 8b 05 c1 9a 00 00 	mov    0x9ac1(%rip),%rax        # 1d440 <g_782>
   1397f:	8b 55 f4             	mov    -0xc(%rbp),%edx
   13982:	48 8d 35 f9 59 00 00 	lea    0x59f9(%rip),%rsi        # 19382 <g_2539+0x942>
   13989:	48 89 c7             	mov    %rax,%rdi
   1398c:	e8 62 5d ff ff       	callq  96f3 <transparent_crc>
   13991:	48 8b 05 b0 9a 00 00 	mov    0x9ab0(%rip),%rax        # 1d448 <g_783>
   13998:	8b 55 f4             	mov    -0xc(%rbp),%edx
   1399b:	48 8d 35 e6 59 00 00 	lea    0x59e6(%rip),%rsi        # 19388 <g_2539+0x948>
   139a2:	48 89 c7             	mov    %rax,%rdi
   139a5:	e8 49 5d ff ff       	callq  96f3 <transparent_crc>
   139aa:	48 8b 05 9f 9a 00 00 	mov    0x9a9f(%rip),%rax        # 1d450 <g_784>
   139b1:	8b 55 f4             	mov    -0xc(%rbp),%edx
   139b4:	48 8d 35 d3 59 00 00 	lea    0x59d3(%rip),%rsi        # 1938e <g_2539+0x94e>
   139bb:	48 89 c7             	mov    %rax,%rdi
   139be:	e8 30 5d ff ff       	callq  96f3 <transparent_crc>
   139c3:	48 8b 05 8e 9a 00 00 	mov    0x9a8e(%rip),%rax        # 1d458 <g_785>
   139ca:	8b 55 f4             	mov    -0xc(%rbp),%edx
   139cd:	48 8d 35 c0 59 00 00 	lea    0x59c0(%rip),%rsi        # 19394 <g_2539+0x954>
   139d4:	48 89 c7             	mov    %rax,%rdi
   139d7:	e8 17 5d ff ff       	callq  96f3 <transparent_crc>
   139dc:	48 8b 05 7d 9a 00 00 	mov    0x9a7d(%rip),%rax        # 1d460 <g_786>
   139e3:	8b 55 f4             	mov    -0xc(%rbp),%edx
   139e6:	48 8d 35 ad 59 00 00 	lea    0x59ad(%rip),%rsi        # 1939a <g_2539+0x95a>
   139ed:	48 89 c7             	mov    %rax,%rdi
   139f0:	e8 fe 5c ff ff       	callq  96f3 <transparent_crc>
   139f5:	48 8b 05 6c 9a 00 00 	mov    0x9a6c(%rip),%rax        # 1d468 <g_787>
   139fc:	8b 55 f4             	mov    -0xc(%rbp),%edx
   139ff:	48 8d 35 9a 59 00 00 	lea    0x599a(%rip),%rsi        # 193a0 <g_2539+0x960>
   13a06:	48 89 c7             	mov    %rax,%rdi
   13a09:	e8 e5 5c ff ff       	callq  96f3 <transparent_crc>
   13a0e:	48 8b 05 23 1c 01 00 	mov    0x11c23(%rip),%rax        # 25638 <g_788>
   13a15:	8b 55 f4             	mov    -0xc(%rbp),%edx
   13a18:	48 8d 35 87 59 00 00 	lea    0x5987(%rip),%rsi        # 193a6 <g_2539+0x966>
   13a1f:	48 89 c7             	mov    %rax,%rdi
   13a22:	e8 cc 5c ff ff       	callq  96f3 <transparent_crc>
   13a27:	c7 45 e8 00 00 00 00 	movl   $0x0,-0x18(%rbp)
   13a2e:	eb 6d                	jmp    13a9d <main+0x90d>
   13a30:	c7 45 ec 00 00 00 00 	movl   $0x0,-0x14(%rbp)
   13a37:	eb 5a                	jmp    13a93 <main+0x903>
   13a39:	8b 45 ec             	mov    -0x14(%rbp),%eax
   13a3c:	48 98                	cltq   
   13a3e:	8b 55 e8             	mov    -0x18(%rbp),%edx
   13a41:	48 63 d2             	movslq %edx,%rdx
   13a44:	48 c1 e2 02          	shl    $0x2,%rdx
   13a48:	48 01 d0             	add    %rdx,%rax
   13a4b:	48 8d 14 c5 00 00 00 	lea    0x0(,%rax,8),%rdx
   13a52:	00 
   13a53:	48 8d 05 26 9a 00 00 	lea    0x9a26(%rip),%rax        # 1d480 <g_789>
   13a5a:	48 8b 04 02          	mov    (%rdx,%rax,1),%rax
   13a5e:	8b 55 f4             	mov    -0xc(%rbp),%edx
   13a61:	48 8d 35 44 59 00 00 	lea    0x5944(%rip),%rsi        # 193ac <g_2539+0x96c>
   13a68:	48 89 c7             	mov    %rax,%rdi
   13a6b:	e8 83 5c ff ff       	callq  96f3 <transparent_crc>
   13a70:	83 7d f4 00          	cmpl   $0x0,-0xc(%rbp)
   13a74:	74 19                	je     13a8f <main+0x8ff>
   13a76:	8b 55 ec             	mov    -0x14(%rbp),%edx
   13a79:	8b 45 e8             	mov    -0x18(%rbp),%eax
   13a7c:	89 c6                	mov    %eax,%esi
   13a7e:	48 8d 3d 33 59 00 00 	lea    0x5933(%rip),%rdi        # 193b8 <g_2539+0x978>
   13a85:	b8 00 00 00 00       	mov    $0x0,%eax
   13a8a:	e8 f1 45 ff ff       	callq  8080 <printf@plt>
   13a8f:	83 45 ec 01          	addl   $0x1,-0x14(%rbp)
   13a93:	83 7d ec 03          	cmpl   $0x3,-0x14(%rbp)
   13a97:	7e a0                	jle    13a39 <main+0x8a9>
   13a99:	83 45 e8 01          	addl   $0x1,-0x18(%rbp)
   13a9d:	83 7d e8 07          	cmpl   $0x7,-0x18(%rbp)
   13aa1:	7e 8d                	jle    13a30 <main+0x8a0>
   13aa3:	c7 45 e8 00 00 00 00 	movl   $0x0,-0x18(%rbp)
   13aaa:	eb 4a                	jmp    13af6 <main+0x966>
   13aac:	8b 45 e8             	mov    -0x18(%rbp),%eax
   13aaf:	48 98                	cltq   
   13ab1:	48 8d 14 c5 00 00 00 	lea    0x0(,%rax,8),%rdx
   13ab8:	00 
   13ab9:	48 8d 05 c0 9a 00 00 	lea    0x9ac0(%rip),%rax        # 1d580 <g_790>
   13ac0:	48 8b 04 02          	mov    (%rdx,%rax,1),%rax
   13ac4:	8b 55 f4             	mov    -0xc(%rbp),%edx
   13ac7:	48 8d 35 fc 58 00 00 	lea    0x58fc(%rip),%rsi        # 193ca <g_2539+0x98a>
   13ace:	48 89 c7             	mov    %rax,%rdi
   13ad1:	e8 1d 5c ff ff       	callq  96f3 <transparent_crc>
   13ad6:	83 7d f4 00          	cmpl   $0x0,-0xc(%rbp)
   13ada:	74 16                	je     13af2 <main+0x962>
   13adc:	8b 45 e8             	mov    -0x18(%rbp),%eax
   13adf:	89 c6                	mov    %eax,%esi
   13ae1:	48 8d 3d fb 56 00 00 	lea    0x56fb(%rip),%rdi        # 191e3 <g_2539+0x7a3>
   13ae8:	b8 00 00 00 00       	mov    $0x0,%eax
   13aed:	e8 8e 45 ff ff       	callq  8080 <printf@plt>
   13af2:	83 45 e8 01          	addl   $0x1,-0x18(%rbp)
   13af6:	83 7d e8 09          	cmpl   $0x9,-0x18(%rbp)
   13afa:	7e b0                	jle    13aac <main+0x91c>
   13afc:	48 8b 05 cd 9a 00 00 	mov    0x9acd(%rip),%rax        # 1d5d0 <g_791>
   13b03:	8b 55 f4             	mov    -0xc(%rbp),%edx
   13b06:	48 8d 35 c6 58 00 00 	lea    0x58c6(%rip),%rsi        # 193d3 <g_2539+0x993>
   13b0d:	48 89 c7             	mov    %rax,%rdi
   13b10:	e8 de 5b ff ff       	callq  96f3 <transparent_crc>
   13b15:	48 8b 05 bc 9a 00 00 	mov    0x9abc(%rip),%rax        # 1d5d8 <g_792>
   13b1c:	8b 55 f4             	mov    -0xc(%rbp),%edx
   13b1f:	48 8d 35 b3 58 00 00 	lea    0x58b3(%rip),%rsi        # 193d9 <g_2539+0x999>
   13b26:	48 89 c7             	mov    %rax,%rdi
   13b29:	e8 c5 5b ff ff       	callq  96f3 <transparent_crc>
   13b2e:	48 8b 05 ab 9a 00 00 	mov    0x9aab(%rip),%rax        # 1d5e0 <g_793>
   13b35:	8b 55 f4             	mov    -0xc(%rbp),%edx
   13b38:	48 8d 35 a0 58 00 00 	lea    0x58a0(%rip),%rsi        # 193df <g_2539+0x99f>
   13b3f:	48 89 c7             	mov    %rax,%rdi
   13b42:	e8 ac 5b ff ff       	callq  96f3 <transparent_crc>
   13b47:	c7 45 e8 00 00 00 00 	movl   $0x0,-0x18(%rbp)
   13b4e:	e9 9e 00 00 00       	jmpq   13bf1 <main+0xa61>
   13b53:	c7 45 ec 00 00 00 00 	movl   $0x0,-0x14(%rbp)
   13b5a:	e9 84 00 00 00       	jmpq   13be3 <main+0xa53>
   13b5f:	c7 45 f0 00 00 00 00 	movl   $0x0,-0x10(%rbp)
   13b66:	eb 71                	jmp    13bd9 <main+0xa49>
   13b68:	8b 45 f0             	mov    -0x10(%rbp),%eax
   13b6b:	48 63 c8             	movslq %eax,%rcx
   13b6e:	8b 45 e8             	mov    -0x18(%rbp),%eax
   13b71:	48 63 d0             	movslq %eax,%rdx
   13b74:	8b 45 ec             	mov    -0x14(%rbp),%eax
   13b77:	48 63 f0             	movslq %eax,%rsi
   13b7a:	48 89 d0             	mov    %rdx,%rax
   13b7d:	48 c1 e0 03          	shl    $0x3,%rax
   13b81:	48 29 d0             	sub    %rdx,%rax
   13b84:	48 01 f0             	add    %rsi,%rax
   13b87:	48 c1 e0 02          	shl    $0x2,%rax
   13b8b:	48 01 c8             	add    %rcx,%rax
   13b8e:	48 8d 14 c5 00 00 00 	lea    0x0(,%rax,8),%rdx
   13b95:	00 
   13b96:	48 8d 05 63 9a 00 00 	lea    0x9a63(%rip),%rax        # 1d600 <g_794>
   13b9d:	48 8b 04 02          	mov    (%rdx,%rax,1),%rax
   13ba1:	8b 55 f4             	mov    -0xc(%rbp),%edx
   13ba4:	48 8d 35 3a 58 00 00 	lea    0x583a(%rip),%rsi        # 193e5 <g_2539+0x9a5>
   13bab:	48 89 c7             	mov    %rax,%rdi
   13bae:	e8 40 5b ff ff       	callq  96f3 <transparent_crc>
   13bb3:	83 7d f4 00          	cmpl   $0x0,-0xc(%rbp)
   13bb7:	74 1c                	je     13bd5 <main+0xa45>
   13bb9:	8b 4d f0             	mov    -0x10(%rbp),%ecx
   13bbc:	8b 55 ec             	mov    -0x14(%rbp),%edx
   13bbf:	8b 45 e8             	mov    -0x18(%rbp),%eax
   13bc2:	89 c6                	mov    %eax,%esi
   13bc4:	48 8d 3d 4b 56 00 00 	lea    0x564b(%rip),%rdi        # 19216 <g_2539+0x7d6>
   13bcb:	b8 00 00 00 00       	mov    $0x0,%eax
   13bd0:	e8 ab 44 ff ff       	callq  8080 <printf@plt>
   13bd5:	83 45 f0 01          	addl   $0x1,-0x10(%rbp)
   13bd9:	83 7d f0 03          	cmpl   $0x3,-0x10(%rbp)
   13bdd:	7e 89                	jle    13b68 <main+0x9d8>
   13bdf:	83 45 ec 01          	addl   $0x1,-0x14(%rbp)
   13be3:	83 7d ec 06          	cmpl   $0x6,-0x14(%rbp)
   13be7:	0f 8e 72 ff ff ff    	jle    13b5f <main+0x9cf>
   13bed:	83 45 e8 01          	addl   $0x1,-0x18(%rbp)
   13bf1:	83 7d e8 08          	cmpl   $0x8,-0x18(%rbp)
   13bf5:	0f 8e 58 ff ff ff    	jle    13b53 <main+0x9c3>
   13bfb:	48 8b 05 de a1 00 00 	mov    0xa1de(%rip),%rax        # 1dde0 <g_795>
   13c02:	8b 55 f4             	mov    -0xc(%rbp),%edx
   13c05:	48 8d 35 e8 57 00 00 	lea    0x57e8(%rip),%rsi        # 193f4 <g_2539+0x9b4>
   13c0c:	48 89 c7             	mov    %rax,%rdi
   13c0f:	e8 df 5a ff ff       	callq  96f3 <transparent_crc>
   13c14:	48 8b 05 cd a1 00 00 	mov    0xa1cd(%rip),%rax        # 1dde8 <g_796>
   13c1b:	8b 55 f4             	mov    -0xc(%rbp),%edx
   13c1e:	48 8d 35 d5 57 00 00 	lea    0x57d5(%rip),%rsi        # 193fa <g_2539+0x9ba>
   13c25:	48 89 c7             	mov    %rax,%rdi
   13c28:	e8 c6 5a ff ff       	callq  96f3 <transparent_crc>
   13c2d:	48 8b 05 bc a1 00 00 	mov    0xa1bc(%rip),%rax        # 1ddf0 <g_797>
   13c34:	8b 55 f4             	mov    -0xc(%rbp),%edx
   13c37:	48 8d 35 c2 57 00 00 	lea    0x57c2(%rip),%rsi        # 19400 <g_2539+0x9c0>
   13c3e:	48 89 c7             	mov    %rax,%rdi
   13c41:	e8 ad 5a ff ff       	callq  96f3 <transparent_crc>
   13c46:	c7 45 e8 00 00 00 00 	movl   $0x0,-0x18(%rbp)
   13c4d:	eb 74                	jmp    13cc3 <main+0xb33>
   13c4f:	c7 45 ec 00 00 00 00 	movl   $0x0,-0x14(%rbp)
   13c56:	eb 61                	jmp    13cb9 <main+0xb29>
   13c58:	8b 45 ec             	mov    -0x14(%rbp),%eax
   13c5b:	48 63 c8             	movslq %eax,%rcx
   13c5e:	8b 45 e8             	mov    -0x18(%rbp),%eax
   13c61:	48 63 d0             	movslq %eax,%rdx
   13c64:	48 89 d0             	mov    %rdx,%rax
   13c67:	48 c1 e0 02          	shl    $0x2,%rax
   13c6b:	48 01 d0             	add    %rdx,%rax
   13c6e:	48 01 c8             	add    %rcx,%rax
   13c71:	48 8d 14 c5 00 00 00 	lea    0x0(,%rax,8),%rdx
   13c78:	00 
   13c79:	48 8d 05 80 a1 00 00 	lea    0xa180(%rip),%rax        # 1de00 <g_798>
   13c80:	48 8b 04 02          	mov    (%rdx,%rax,1),%rax
   13c84:	8b 55 f4             	mov    -0xc(%rbp),%edx
   13c87:	48 8d 35 78 57 00 00 	lea    0x5778(%rip),%rsi        # 19406 <g_2539+0x9c6>
   13c8e:	48 89 c7             	mov    %rax,%rdi
   13c91:	e8 5d 5a ff ff       	callq  96f3 <transparent_crc>
   13c96:	83 7d f4 00          	cmpl   $0x0,-0xc(%rbp)
   13c9a:	74 19                	je     13cb5 <main+0xb25>
   13c9c:	8b 55 ec             	mov    -0x14(%rbp),%edx
   13c9f:	8b 45 e8             	mov    -0x18(%rbp),%eax
   13ca2:	89 c6                	mov    %eax,%esi
   13ca4:	48 8d 3d 0d 57 00 00 	lea    0x570d(%rip),%rdi        # 193b8 <g_2539+0x978>
   13cab:	b8 00 00 00 00       	mov    $0x0,%eax
   13cb0:	e8 cb 43 ff ff       	callq  8080 <printf@plt>
   13cb5:	83 45 ec 01          	addl   $0x1,-0x14(%rbp)
   13cb9:	83 7d ec 04          	cmpl   $0x4,-0x14(%rbp)
   13cbd:	7e 99                	jle    13c58 <main+0xac8>
   13cbf:	83 45 e8 01          	addl   $0x1,-0x18(%rbp)
   13cc3:	83 7d e8 06          	cmpl   $0x6,-0x18(%rbp)
   13cc7:	7e 86                	jle    13c4f <main+0xabf>
   13cc9:	48 8b 05 48 a2 00 00 	mov    0xa248(%rip),%rax        # 1df18 <g_799>
   13cd0:	8b 55 f4             	mov    -0xc(%rbp),%edx
   13cd3:	48 8d 35 38 57 00 00 	lea    0x5738(%rip),%rsi        # 19412 <g_2539+0x9d2>
   13cda:	48 89 c7             	mov    %rax,%rdi
   13cdd:	e8 11 5a ff ff       	callq  96f3 <transparent_crc>
   13ce2:	48 8b 05 37 a2 00 00 	mov    0xa237(%rip),%rax        # 1df20 <g_800>
   13ce9:	8b 55 f4             	mov    -0xc(%rbp),%edx
   13cec:	48 8d 35 25 57 00 00 	lea    0x5725(%rip),%rsi        # 19418 <g_2539+0x9d8>
   13cf3:	48 89 c7             	mov    %rax,%rdi
   13cf6:	e8 f8 59 ff ff       	callq  96f3 <transparent_crc>
   13cfb:	48 8b 05 26 a2 00 00 	mov    0xa226(%rip),%rax        # 1df28 <g_801>
   13d02:	8b 55 f4             	mov    -0xc(%rbp),%edx
   13d05:	48 8d 35 12 57 00 00 	lea    0x5712(%rip),%rsi        # 1941e <g_2539+0x9de>
   13d0c:	48 89 c7             	mov    %rax,%rdi
   13d0f:	e8 df 59 ff ff       	callq  96f3 <transparent_crc>
   13d14:	48 8b 05 15 a2 00 00 	mov    0xa215(%rip),%rax        # 1df30 <g_802>
   13d1b:	8b 55 f4             	mov    -0xc(%rbp),%edx
   13d1e:	48 8d 35 ff 56 00 00 	lea    0x56ff(%rip),%rsi        # 19424 <g_2539+0x9e4>
   13d25:	48 89 c7             	mov    %rax,%rdi
   13d28:	e8 c6 59 ff ff       	callq  96f3 <transparent_crc>
   13d2d:	48 8b 05 04 a2 00 00 	mov    0xa204(%rip),%rax        # 1df38 <g_803>
   13d34:	8b 55 f4             	mov    -0xc(%rbp),%edx
   13d37:	48 8d 35 ec 56 00 00 	lea    0x56ec(%rip),%rsi        # 1942a <g_2539+0x9ea>
   13d3e:	48 89 c7             	mov    %rax,%rdi
   13d41:	e8 ad 59 ff ff       	callq  96f3 <transparent_crc>
   13d46:	48 8b 05 f3 a1 00 00 	mov    0xa1f3(%rip),%rax        # 1df40 <g_804>
   13d4d:	8b 55 f4             	mov    -0xc(%rbp),%edx
   13d50:	48 8d 35 d9 56 00 00 	lea    0x56d9(%rip),%rsi        # 19430 <g_2539+0x9f0>
   13d57:	48 89 c7             	mov    %rax,%rdi
   13d5a:	e8 94 59 ff ff       	callq  96f3 <transparent_crc>
   13d5f:	48 8b 05 e2 a1 00 00 	mov    0xa1e2(%rip),%rax        # 1df48 <g_805>
   13d66:	8b 55 f4             	mov    -0xc(%rbp),%edx
   13d69:	48 8d 35 c6 56 00 00 	lea    0x56c6(%rip),%rsi        # 19436 <g_2539+0x9f6>
   13d70:	48 89 c7             	mov    %rax,%rdi
   13d73:	e8 7b 59 ff ff       	callq  96f3 <transparent_crc>
   13d78:	48 8b 05 d1 a1 00 00 	mov    0xa1d1(%rip),%rax        # 1df50 <g_806>
   13d7f:	8b 55 f4             	mov    -0xc(%rbp),%edx
   13d82:	48 8d 35 b3 56 00 00 	lea    0x56b3(%rip),%rsi        # 1943c <g_2539+0x9fc>
   13d89:	48 89 c7             	mov    %rax,%rdi
   13d8c:	e8 62 59 ff ff       	callq  96f3 <transparent_crc>
   13d91:	48 8b 05 a8 18 01 00 	mov    0x118a8(%rip),%rax        # 25640 <g_807>
   13d98:	8b 55 f4             	mov    -0xc(%rbp),%edx
   13d9b:	48 8d 35 a0 56 00 00 	lea    0x56a0(%rip),%rsi        # 19442 <g_2539+0xa02>
   13da2:	48 89 c7             	mov    %rax,%rdi
   13da5:	e8 49 59 ff ff       	callq  96f3 <transparent_crc>
   13daa:	48 8b 05 a7 a1 00 00 	mov    0xa1a7(%rip),%rax        # 1df58 <g_808>
   13db1:	8b 55 f4             	mov    -0xc(%rbp),%edx
   13db4:	48 8d 35 8d 56 00 00 	lea    0x568d(%rip),%rsi        # 19448 <g_2539+0xa08>
   13dbb:	48 89 c7             	mov    %rax,%rdi
   13dbe:	e8 30 59 ff ff       	callq  96f3 <transparent_crc>
   13dc3:	48 8b 05 96 a1 00 00 	mov    0xa196(%rip),%rax        # 1df60 <g_809>
   13dca:	8b 55 f4             	mov    -0xc(%rbp),%edx
   13dcd:	48 8d 35 7a 56 00 00 	lea    0x567a(%rip),%rsi        # 1944e <g_2539+0xa0e>
   13dd4:	48 89 c7             	mov    %rax,%rdi
   13dd7:	e8 17 59 ff ff       	callq  96f3 <transparent_crc>
   13ddc:	48 8b 05 85 a1 00 00 	mov    0xa185(%rip),%rax        # 1df68 <g_810>
   13de3:	8b 55 f4             	mov    -0xc(%rbp),%edx
   13de6:	48 8d 35 67 56 00 00 	lea    0x5667(%rip),%rsi        # 19454 <g_2539+0xa14>
   13ded:	48 89 c7             	mov    %rax,%rdi
   13df0:	e8 fe 58 ff ff       	callq  96f3 <transparent_crc>
   13df5:	c7 45 e8 00 00 00 00 	movl   $0x0,-0x18(%rbp)
   13dfc:	eb 74                	jmp    13e72 <main+0xce2>
   13dfe:	c7 45 ec 00 00 00 00 	movl   $0x0,-0x14(%rbp)
   13e05:	eb 61                	jmp    13e68 <main+0xcd8>
   13e07:	8b 45 ec             	mov    -0x14(%rbp),%eax
   13e0a:	48 63 c8             	movslq %eax,%rcx
   13e0d:	8b 45 e8             	mov    -0x18(%rbp),%eax
   13e10:	48 63 d0             	movslq %eax,%rdx
   13e13:	48 89 d0             	mov    %rdx,%rax
   13e16:	48 c1 e0 02          	shl    $0x2,%rax
   13e1a:	48 01 d0             	add    %rdx,%rax
   13e1d:	48 01 c8             	add    %rcx,%rax
   13e20:	48 8d 14 c5 00 00 00 	lea    0x0(,%rax,8),%rdx
   13e27:	00 
   13e28:	48 8d 05 51 a1 00 00 	lea    0xa151(%rip),%rax        # 1df80 <g_811>
   13e2f:	48 8b 04 02          	mov    (%rdx,%rax,1),%rax
   13e33:	8b 55 f4             	mov    -0xc(%rbp),%edx
   13e36:	48 8d 35 1d 56 00 00 	lea    0x561d(%rip),%rsi        # 1945a <g_2539+0xa1a>
   13e3d:	48 89 c7             	mov    %rax,%rdi
   13e40:	e8 ae 58 ff ff       	callq  96f3 <transparent_crc>
   13e45:	83 7d f4 00          	cmpl   $0x0,-0xc(%rbp)
   13e49:	74 19                	je     13e64 <main+0xcd4>
   13e4b:	8b 55 ec             	mov    -0x14(%rbp),%edx
   13e4e:	8b 45 e8             	mov    -0x18(%rbp),%eax
   13e51:	89 c6                	mov    %eax,%esi
   13e53:	48 8d 3d 5e 55 00 00 	lea    0x555e(%rip),%rdi        # 193b8 <g_2539+0x978>
   13e5a:	b8 00 00 00 00       	mov    $0x0,%eax
   13e5f:	e8 1c 42 ff ff       	callq  8080 <printf@plt>
   13e64:	83 45 ec 01          	addl   $0x1,-0x14(%rbp)
   13e68:	83 7d ec 04          	cmpl   $0x4,-0x14(%rbp)
   13e6c:	7e 99                	jle    13e07 <main+0xc77>
   13e6e:	83 45 e8 01          	addl   $0x1,-0x18(%rbp)
   13e72:	83 7d e8 01          	cmpl   $0x1,-0x18(%rbp)
   13e76:	7e 86                	jle    13dfe <main+0xc6e>
   13e78:	48 8b 05 51 a1 00 00 	mov    0xa151(%rip),%rax        # 1dfd0 <g_812>
   13e7f:	8b 55 f4             	mov    -0xc(%rbp),%edx
   13e82:	48 8d 35 dd 55 00 00 	lea    0x55dd(%rip),%rsi        # 19466 <g_2539+0xa26>
   13e89:	48 89 c7             	mov    %rax,%rdi
   13e8c:	e8 62 58 ff ff       	callq  96f3 <transparent_crc>
   13e91:	48 8b 05 40 a1 00 00 	mov    0xa140(%rip),%rax        # 1dfd8 <g_813>
   13e98:	8b 55 f4             	mov    -0xc(%rbp),%edx
   13e9b:	48 8d 35 ca 55 00 00 	lea    0x55ca(%rip),%rsi        # 1946c <g_2539+0xa2c>
   13ea2:	48 89 c7             	mov    %rax,%rdi
   13ea5:	e8 49 58 ff ff       	callq  96f3 <transparent_crc>
   13eaa:	48 8b 05 2f a1 00 00 	mov    0xa12f(%rip),%rax        # 1dfe0 <g_814>
   13eb1:	8b 55 f4             	mov    -0xc(%rbp),%edx
   13eb4:	48 8d 35 b7 55 00 00 	lea    0x55b7(%rip),%rsi        # 19472 <g_2539+0xa32>
   13ebb:	48 89 c7             	mov    %rax,%rdi
   13ebe:	e8 30 58 ff ff       	callq  96f3 <transparent_crc>
   13ec3:	c7 45 e8 00 00 00 00 	movl   $0x0,-0x18(%rbp)
   13eca:	eb 6d                	jmp    13f39 <main+0xda9>
   13ecc:	c7 45 ec 00 00 00 00 	movl   $0x0,-0x14(%rbp)
   13ed3:	eb 5a                	jmp    13f2f <main+0xd9f>
   13ed5:	8b 45 ec             	mov    -0x14(%rbp),%eax
   13ed8:	48 98                	cltq   
   13eda:	8b 55 e8             	mov    -0x18(%rbp),%edx
   13edd:	48 63 d2             	movslq %edx,%rdx
   13ee0:	48 c1 e2 03          	shl    $0x3,%rdx
   13ee4:	48 01 d0             	add    %rdx,%rax
   13ee7:	48 8d 14 c5 00 00 00 	lea    0x0(,%rax,8),%rdx
   13eee:	00 
   13eef:	48 8d 05 0a a1 00 00 	lea    0xa10a(%rip),%rax        # 1e000 <g_815>
   13ef6:	48 8b 04 02          	mov    (%rdx,%rax,1),%rax
   13efa:	8b 55 f4             	mov    -0xc(%rbp),%edx
   13efd:	48 8d 35 74 55 00 00 	lea    0x5574(%rip),%rsi        # 19478 <g_2539+0xa38>
   13f04:	48 89 c7             	mov    %rax,%rdi
   13f07:	e8 e7 57 ff ff       	callq  96f3 <transparent_crc>
   13f0c:	83 7d f4 00          	cmpl   $0x0,-0xc(%rbp)
   13f10:	74 19                	je     13f2b <main+0xd9b>
   13f12:	8b 55 ec             	mov    -0x14(%rbp),%edx
   13f15:	8b 45 e8             	mov    -0x18(%rbp),%eax
   13f18:	89 c6                	mov    %eax,%esi
   13f1a:	48 8d 3d 97 54 00 00 	lea    0x5497(%rip),%rdi        # 193b8 <g_2539+0x978>
   13f21:	b8 00 00 00 00       	mov    $0x0,%eax
   13f26:	e8 55 41 ff ff       	callq  8080 <printf@plt>
   13f2b:	83 45 ec 01          	addl   $0x1,-0x14(%rbp)
   13f2f:	83 7d ec 07          	cmpl   $0x7,-0x14(%rbp)
   13f33:	7e a0                	jle    13ed5 <main+0xd45>
   13f35:	83 45 e8 01          	addl   $0x1,-0x18(%rbp)
   13f39:	83 7d e8 04          	cmpl   $0x4,-0x18(%rbp)
   13f3d:	7e 8d                	jle    13ecc <main+0xd3c>
   13f3f:	48 8b 05 fa a1 00 00 	mov    0xa1fa(%rip),%rax        # 1e140 <g_816>
   13f46:	8b 55 f4             	mov    -0xc(%rbp),%edx
   13f49:	48 8d 35 34 55 00 00 	lea    0x5534(%rip),%rsi        # 19484 <g_2539+0xa44>
   13f50:	48 89 c7             	mov    %rax,%rdi
   13f53:	e8 9b 57 ff ff       	callq  96f3 <transparent_crc>
   13f58:	48 8b 05 e9 a1 00 00 	mov    0xa1e9(%rip),%rax        # 1e148 <g_817>
   13f5f:	8b 55 f4             	mov    -0xc(%rbp),%edx
   13f62:	48 8d 35 21 55 00 00 	lea    0x5521(%rip),%rsi        # 1948a <g_2539+0xa4a>
   13f69:	48 89 c7             	mov    %rax,%rdi
   13f6c:	e8 82 57 ff ff       	callq  96f3 <transparent_crc>
   13f71:	48 8b 05 d0 16 01 00 	mov    0x116d0(%rip),%rax        # 25648 <g_818>
   13f78:	8b 55 f4             	mov    -0xc(%rbp),%edx
   13f7b:	48 8d 35 0e 55 00 00 	lea    0x550e(%rip),%rsi        # 19490 <g_2539+0xa50>
   13f82:	48 89 c7             	mov    %rax,%rdi
   13f85:	e8 69 57 ff ff       	callq  96f3 <transparent_crc>
   13f8a:	48 8b 05 bf a1 00 00 	mov    0xa1bf(%rip),%rax        # 1e150 <g_819>
   13f91:	8b 55 f4             	mov    -0xc(%rbp),%edx
   13f94:	48 8d 35 fb 54 00 00 	lea    0x54fb(%rip),%rsi        # 19496 <g_2539+0xa56>
   13f9b:	48 89 c7             	mov    %rax,%rdi
   13f9e:	e8 50 57 ff ff       	callq  96f3 <transparent_crc>
   13fa3:	48 8b 05 ae a1 00 00 	mov    0xa1ae(%rip),%rax        # 1e158 <g_820>
   13faa:	8b 55 f4             	mov    -0xc(%rbp),%edx
   13fad:	48 8d 35 e8 54 00 00 	lea    0x54e8(%rip),%rsi        # 1949c <g_2539+0xa5c>
   13fb4:	48 89 c7             	mov    %rax,%rdi
   13fb7:	e8 37 57 ff ff       	callq  96f3 <transparent_crc>
   13fbc:	48 8b 05 8d 16 01 00 	mov    0x1168d(%rip),%rax        # 25650 <g_821>
   13fc3:	8b 55 f4             	mov    -0xc(%rbp),%edx
   13fc6:	48 8d 35 d5 54 00 00 	lea    0x54d5(%rip),%rsi        # 194a2 <g_2539+0xa62>
   13fcd:	48 89 c7             	mov    %rax,%rdi
   13fd0:	e8 1e 57 ff ff       	callq  96f3 <transparent_crc>
   13fd5:	48 8b 05 84 a1 00 00 	mov    0xa184(%rip),%rax        # 1e160 <g_822>
   13fdc:	8b 55 f4             	mov    -0xc(%rbp),%edx
   13fdf:	48 8d 35 c2 54 00 00 	lea    0x54c2(%rip),%rsi        # 194a8 <g_2539+0xa68>
   13fe6:	48 89 c7             	mov    %rax,%rdi
   13fe9:	e8 05 57 ff ff       	callq  96f3 <transparent_crc>
   13fee:	48 8b 05 73 a1 00 00 	mov    0xa173(%rip),%rax        # 1e168 <g_823>
   13ff5:	8b 55 f4             	mov    -0xc(%rbp),%edx
   13ff8:	48 8d 35 af 54 00 00 	lea    0x54af(%rip),%rsi        # 194ae <g_2539+0xa6e>
   13fff:	48 89 c7             	mov    %rax,%rdi
   14002:	e8 ec 56 ff ff       	callq  96f3 <transparent_crc>
   14007:	c7 45 e8 00 00 00 00 	movl   $0x0,-0x18(%rbp)
   1400e:	eb 4a                	jmp    1405a <main+0xeca>
   14010:	8b 45 e8             	mov    -0x18(%rbp),%eax
   14013:	48 98                	cltq   
   14015:	48 8d 14 c5 00 00 00 	lea    0x0(,%rax,8),%rdx
   1401c:	00 
   1401d:	48 8d 05 5c a1 00 00 	lea    0xa15c(%rip),%rax        # 1e180 <g_824>
   14024:	48 8b 04 02          	mov    (%rdx,%rax,1),%rax
   14028:	8b 55 f4             	mov    -0xc(%rbp),%edx
   1402b:	48 8d 35 82 54 00 00 	lea    0x5482(%rip),%rsi        # 194b4 <g_2539+0xa74>
   14032:	48 89 c7             	mov    %rax,%rdi
   14035:	e8 b9 56 ff ff       	callq  96f3 <transparent_crc>
   1403a:	83 7d f4 00          	cmpl   $0x0,-0xc(%rbp)
   1403e:	74 16                	je     14056 <main+0xec6>
   14040:	8b 45 e8             	mov    -0x18(%rbp),%eax
   14043:	89 c6                	mov    %eax,%esi
   14045:	48 8d 3d 97 51 00 00 	lea    0x5197(%rip),%rdi        # 191e3 <g_2539+0x7a3>
   1404c:	b8 00 00 00 00       	mov    $0x0,%eax
   14051:	e8 2a 40 ff ff       	callq  8080 <printf@plt>
   14056:	83 45 e8 01          	addl   $0x1,-0x18(%rbp)
   1405a:	83 7d e8 08          	cmpl   $0x8,-0x18(%rbp)
   1405e:	7e b0                	jle    14010 <main+0xe80>
   14060:	48 8b 05 61 a1 00 00 	mov    0xa161(%rip),%rax        # 1e1c8 <g_825>
   14067:	8b 55 f4             	mov    -0xc(%rbp),%edx
   1406a:	48 8d 35 4c 54 00 00 	lea    0x544c(%rip),%rsi        # 194bd <g_2539+0xa7d>
   14071:	48 89 c7             	mov    %rax,%rdi
   14074:	e8 7a 56 ff ff       	callq  96f3 <transparent_crc>
   14079:	48 8b 05 50 a1 00 00 	mov    0xa150(%rip),%rax        # 1e1d0 <g_826>
   14080:	8b 55 f4             	mov    -0xc(%rbp),%edx
   14083:	48 8d 35 39 54 00 00 	lea    0x5439(%rip),%rsi        # 194c3 <g_2539+0xa83>
   1408a:	48 89 c7             	mov    %rax,%rdi
   1408d:	e8 61 56 ff ff       	callq  96f3 <transparent_crc>
   14092:	48 8b 05 bf 15 01 00 	mov    0x115bf(%rip),%rax        # 25658 <g_827>
   14099:	8b 55 f4             	mov    -0xc(%rbp),%edx
   1409c:	48 8d 35 26 54 00 00 	lea    0x5426(%rip),%rsi        # 194c9 <g_2539+0xa89>
   140a3:	48 89 c7             	mov    %rax,%rdi
   140a6:	e8 48 56 ff ff       	callq  96f3 <transparent_crc>
   140ab:	48 8b 05 26 a1 00 00 	mov    0xa126(%rip),%rax        # 1e1d8 <g_828>
   140b2:	8b 55 f4             	mov    -0xc(%rbp),%edx
   140b5:	48 8d 35 13 54 00 00 	lea    0x5413(%rip),%rsi        # 194cf <g_2539+0xa8f>
   140bc:	48 89 c7             	mov    %rax,%rdi
   140bf:	e8 2f 56 ff ff       	callq  96f3 <transparent_crc>
   140c4:	48 8b 05 15 a1 00 00 	mov    0xa115(%rip),%rax        # 1e1e0 <g_829>
   140cb:	8b 55 f4             	mov    -0xc(%rbp),%edx
   140ce:	48 8d 35 00 54 00 00 	lea    0x5400(%rip),%rsi        # 194d5 <g_2539+0xa95>
   140d5:	48 89 c7             	mov    %rax,%rdi
   140d8:	e8 16 56 ff ff       	callq  96f3 <transparent_crc>
   140dd:	48 8b 05 04 a1 00 00 	mov    0xa104(%rip),%rax        # 1e1e8 <g_830>
   140e4:	8b 55 f4             	mov    -0xc(%rbp),%edx
   140e7:	48 8d 35 ed 53 00 00 	lea    0x53ed(%rip),%rsi        # 194db <g_2539+0xa9b>
   140ee:	48 89 c7             	mov    %rax,%rdi
   140f1:	e8 fd 55 ff ff       	callq  96f3 <transparent_crc>
   140f6:	48 8b 05 f3 a0 00 00 	mov    0xa0f3(%rip),%rax        # 1e1f0 <g_831>
   140fd:	8b 55 f4             	mov    -0xc(%rbp),%edx
   14100:	48 8d 35 da 53 00 00 	lea    0x53da(%rip),%rsi        # 194e1 <g_2539+0xaa1>
   14107:	48 89 c7             	mov    %rax,%rdi
   1410a:	e8 e4 55 ff ff       	callq  96f3 <transparent_crc>
   1410f:	48 8b 05 e2 a0 00 00 	mov    0xa0e2(%rip),%rax        # 1e1f8 <g_832>
   14116:	8b 55 f4             	mov    -0xc(%rbp),%edx
   14119:	48 8d 35 c7 53 00 00 	lea    0x53c7(%rip),%rsi        # 194e7 <g_2539+0xaa7>
   14120:	48 89 c7             	mov    %rax,%rdi
   14123:	e8 cb 55 ff ff       	callq  96f3 <transparent_crc>
   14128:	48 8b 05 d1 a0 00 00 	mov    0xa0d1(%rip),%rax        # 1e200 <g_833>
   1412f:	8b 55 f4             	mov    -0xc(%rbp),%edx
   14132:	48 8d 35 b4 53 00 00 	lea    0x53b4(%rip),%rsi        # 194ed <g_2539+0xaad>
   14139:	48 89 c7             	mov    %rax,%rdi
   1413c:	e8 b2 55 ff ff       	callq  96f3 <transparent_crc>
   14141:	48 8b 05 c0 a0 00 00 	mov    0xa0c0(%rip),%rax        # 1e208 <g_834>
   14148:	8b 55 f4             	mov    -0xc(%rbp),%edx
   1414b:	48 8d 35 a1 53 00 00 	lea    0x53a1(%rip),%rsi        # 194f3 <g_2539+0xab3>
   14152:	48 89 c7             	mov    %rax,%rdi
   14155:	e8 99 55 ff ff       	callq  96f3 <transparent_crc>
   1415a:	c7 45 e8 00 00 00 00 	movl   $0x0,-0x18(%rbp)
   14161:	eb 6d                	jmp    141d0 <main+0x1040>
   14163:	c7 45 ec 00 00 00 00 	movl   $0x0,-0x14(%rbp)
   1416a:	eb 5a                	jmp    141c6 <main+0x1036>
   1416c:	8b 45 ec             	mov    -0x14(%rbp),%eax
   1416f:	48 98                	cltq   
   14171:	8b 55 e8             	mov    -0x18(%rbp),%edx
   14174:	48 63 d2             	movslq %edx,%rdx
   14177:	48 c1 e2 02          	shl    $0x2,%rdx
   1417b:	48 01 d0             	add    %rdx,%rax
   1417e:	48 8d 14 c5 00 00 00 	lea    0x0(,%rax,8),%rdx
   14185:	00 
   14186:	48 8d 05 93 a0 00 00 	lea    0xa093(%rip),%rax        # 1e220 <g_835>
   1418d:	48 8b 04 02          	mov    (%rdx,%rax,1),%rax
   14191:	8b 55 f4             	mov    -0xc(%rbp),%edx
   14194:	48 8d 35 5e 53 00 00 	lea    0x535e(%rip),%rsi        # 194f9 <g_2539+0xab9>
   1419b:	48 89 c7             	mov    %rax,%rdi
   1419e:	e8 50 55 ff ff       	callq  96f3 <transparent_crc>
   141a3:	83 7d f4 00          	cmpl   $0x0,-0xc(%rbp)
   141a7:	74 19                	je     141c2 <main+0x1032>
   141a9:	8b 55 ec             	mov    -0x14(%rbp),%edx
   141ac:	8b 45 e8             	mov    -0x18(%rbp),%eax
   141af:	89 c6                	mov    %eax,%esi
   141b1:	48 8d 3d 00 52 00 00 	lea    0x5200(%rip),%rdi        # 193b8 <g_2539+0x978>
   141b8:	b8 00 00 00 00       	mov    $0x0,%eax
   141bd:	e8 be 3e ff ff       	callq  8080 <printf@plt>
   141c2:	83 45 ec 01          	addl   $0x1,-0x14(%rbp)
   141c6:	83 7d ec 03          	cmpl   $0x3,-0x14(%rbp)
   141ca:	7e a0                	jle    1416c <main+0xfdc>
   141cc:	83 45 e8 01          	addl   $0x1,-0x18(%rbp)
   141d0:	83 7d e8 06          	cmpl   $0x6,-0x18(%rbp)
   141d4:	7e 8d                	jle    14163 <main+0xfd3>
   141d6:	48 8b 05 23 a1 00 00 	mov    0xa123(%rip),%rax        # 1e300 <g_836>
   141dd:	8b 55 f4             	mov    -0xc(%rbp),%edx
   141e0:	48 8d 35 1e 53 00 00 	lea    0x531e(%rip),%rsi        # 19505 <g_2539+0xac5>
   141e7:	48 89 c7             	mov    %rax,%rdi
   141ea:	e8 04 55 ff ff       	callq  96f3 <transparent_crc>
   141ef:	48 8b 05 12 a1 00 00 	mov    0xa112(%rip),%rax        # 1e308 <g_837>
   141f6:	8b 55 f4             	mov    -0xc(%rbp),%edx
   141f9:	48 8d 35 0b 53 00 00 	lea    0x530b(%rip),%rsi        # 1950b <g_2539+0xacb>
   14200:	48 89 c7             	mov    %rax,%rdi
   14203:	e8 eb 54 ff ff       	callq  96f3 <transparent_crc>
   14208:	48 8b 05 01 a1 00 00 	mov    0xa101(%rip),%rax        # 1e310 <g_838>
   1420f:	8b 55 f4             	mov    -0xc(%rbp),%edx
   14212:	48 8d 35 f8 52 00 00 	lea    0x52f8(%rip),%rsi        # 19511 <g_2539+0xad1>
   14219:	48 89 c7             	mov    %rax,%rdi
   1421c:	e8 d2 54 ff ff       	callq  96f3 <transparent_crc>
   14221:	48 8b 05 f0 a0 00 00 	mov    0xa0f0(%rip),%rax        # 1e318 <g_839>
   14228:	8b 55 f4             	mov    -0xc(%rbp),%edx
   1422b:	48 8d 35 e5 52 00 00 	lea    0x52e5(%rip),%rsi        # 19517 <g_2539+0xad7>
   14232:	48 89 c7             	mov    %rax,%rdi
   14235:	e8 b9 54 ff ff       	callq  96f3 <transparent_crc>
   1423a:	48 8b 05 df a0 00 00 	mov    0xa0df(%rip),%rax        # 1e320 <g_840>
   14241:	8b 55 f4             	mov    -0xc(%rbp),%edx
   14244:	48 8d 35 d2 52 00 00 	lea    0x52d2(%rip),%rsi        # 1951d <g_2539+0xadd>
   1424b:	48 89 c7             	mov    %rax,%rdi
   1424e:	e8 a0 54 ff ff       	callq  96f3 <transparent_crc>
   14253:	48 8b 05 ce a0 00 00 	mov    0xa0ce(%rip),%rax        # 1e328 <g_841>
   1425a:	8b 55 f4             	mov    -0xc(%rbp),%edx
   1425d:	48 8d 35 bf 52 00 00 	lea    0x52bf(%rip),%rsi        # 19523 <g_2539+0xae3>
   14264:	48 89 c7             	mov    %rax,%rdi
   14267:	e8 87 54 ff ff       	callq  96f3 <transparent_crc>
   1426c:	48 8b 05 bd a0 00 00 	mov    0xa0bd(%rip),%rax        # 1e330 <g_842>
   14273:	8b 55 f4             	mov    -0xc(%rbp),%edx
   14276:	48 8d 35 ac 52 00 00 	lea    0x52ac(%rip),%rsi        # 19529 <g_2539+0xae9>
   1427d:	48 89 c7             	mov    %rax,%rdi
   14280:	e8 6e 54 ff ff       	callq  96f3 <transparent_crc>
   14285:	48 8b 05 ac a0 00 00 	mov    0xa0ac(%rip),%rax        # 1e338 <g_843>
   1428c:	8b 55 f4             	mov    -0xc(%rbp),%edx
   1428f:	48 8d 35 99 52 00 00 	lea    0x5299(%rip),%rsi        # 1952f <g_2539+0xaef>
   14296:	48 89 c7             	mov    %rax,%rdi
   14299:	e8 55 54 ff ff       	callq  96f3 <transparent_crc>
   1429e:	48 8b 05 9b a0 00 00 	mov    0xa09b(%rip),%rax        # 1e340 <g_844>
   142a5:	8b 55 f4             	mov    -0xc(%rbp),%edx
   142a8:	48 8d 35 86 52 00 00 	lea    0x5286(%rip),%rsi        # 19535 <g_2539+0xaf5>
   142af:	48 89 c7             	mov    %rax,%rdi
   142b2:	e8 3c 54 ff ff       	callq  96f3 <transparent_crc>
   142b7:	48 8b 05 8a a0 00 00 	mov    0xa08a(%rip),%rax        # 1e348 <g_845>
   142be:	8b 55 f4             	mov    -0xc(%rbp),%edx
   142c1:	48 8d 35 73 52 00 00 	lea    0x5273(%rip),%rsi        # 1953b <g_2539+0xafb>
   142c8:	48 89 c7             	mov    %rax,%rdi
   142cb:	e8 23 54 ff ff       	callq  96f3 <transparent_crc>
   142d0:	48 8b 05 79 a0 00 00 	mov    0xa079(%rip),%rax        # 1e350 <g_846>
   142d7:	8b 55 f4             	mov    -0xc(%rbp),%edx
   142da:	48 8d 35 60 52 00 00 	lea    0x5260(%rip),%rsi        # 19541 <g_2539+0xb01>
   142e1:	48 89 c7             	mov    %rax,%rdi
   142e4:	e8 0a 54 ff ff       	callq  96f3 <transparent_crc>
   142e9:	48 8b 05 68 a0 00 00 	mov    0xa068(%rip),%rax        # 1e358 <g_847>
   142f0:	8b 55 f4             	mov    -0xc(%rbp),%edx
   142f3:	48 8d 35 4d 52 00 00 	lea    0x524d(%rip),%rsi        # 19547 <g_2539+0xb07>
   142fa:	48 89 c7             	mov    %rax,%rdi
   142fd:	e8 f1 53 ff ff       	callq  96f3 <transparent_crc>
   14302:	48 8b 05 57 a0 00 00 	mov    0xa057(%rip),%rax        # 1e360 <g_848>
   14309:	8b 55 f4             	mov    -0xc(%rbp),%edx
   1430c:	48 8d 35 3a 52 00 00 	lea    0x523a(%rip),%rsi        # 1954d <g_2539+0xb0d>
   14313:	48 89 c7             	mov    %rax,%rdi
   14316:	e8 d8 53 ff ff       	callq  96f3 <transparent_crc>
   1431b:	c7 45 e8 00 00 00 00 	movl   $0x0,-0x18(%rbp)
   14322:	e9 a6 00 00 00       	jmpq   143cd <main+0x123d>
   14327:	c7 45 ec 00 00 00 00 	movl   $0x0,-0x14(%rbp)
   1432e:	e9 8c 00 00 00       	jmpq   143bf <main+0x122f>
   14333:	c7 45 f0 00 00 00 00 	movl   $0x0,-0x10(%rbp)
   1433a:	eb 79                	jmp    143b5 <main+0x1225>
   1433c:	8b 45 f0             	mov    -0x10(%rbp),%eax
   1433f:	48 63 f0             	movslq %eax,%rsi
   14342:	8b 45 e8             	mov    -0x18(%rbp),%eax
   14345:	48 63 d0             	movslq %eax,%rdx
   14348:	8b 45 ec             	mov    -0x14(%rbp),%eax
   1434b:	48 63 c8             	movslq %eax,%rcx
   1434e:	48 89 d0             	mov    %rdx,%rax
   14351:	48 c1 e0 03          	shl    $0x3,%rax
   14355:	48 01 d0             	add    %rdx,%rax
   14358:	48 01 c0             	add    %rax,%rax
   1435b:	48 89 ca             	mov    %rcx,%rdx
   1435e:	48 01 d2             	add    %rdx,%rdx
   14361:	48 01 ca             	add    %rcx,%rdx
   14364:	48 01 d0             	add    %rdx,%rax
   14367:	48 01 f0             	add    %rsi,%rax
   1436a:	48 8d 14 c5 00 00 00 	lea    0x0(,%rax,8),%rdx
   14371:	00 
   14372:	48 8d 05 07 a0 00 00 	lea    0xa007(%rip),%rax        # 1e380 <g_849>
   14379:	48 8b 04 02          	mov    (%rdx,%rax,1),%rax
   1437d:	8b 55 f4             	mov    -0xc(%rbp),%edx
   14380:	48 8d 35 cc 51 00 00 	lea    0x51cc(%rip),%rsi        # 19553 <g_2539+0xb13>
   14387:	48 89 c7             	mov    %rax,%rdi
   1438a:	e8 64 53 ff ff       	callq  96f3 <transparent_crc>
   1438f:	83 7d f4 00          	cmpl   $0x0,-0xc(%rbp)
   14393:	74 1c                	je     143b1 <main+0x1221>
   14395:	8b 4d f0             	mov    -0x10(%rbp),%ecx
   14398:	8b 55 ec             	mov    -0x14(%rbp),%edx
   1439b:	8b 45 e8             	mov    -0x18(%rbp),%eax
   1439e:	89 c6                	mov    %eax,%esi
   143a0:	48 8d 3d 6f 4e 00 00 	lea    0x4e6f(%rip),%rdi        # 19216 <g_2539+0x7d6>
   143a7:	b8 00 00 00 00       	mov    $0x0,%eax
   143ac:	e8 cf 3c ff ff       	callq  8080 <printf@plt>
   143b1:	83 45 f0 01          	addl   $0x1,-0x10(%rbp)
   143b5:	83 7d f0 02          	cmpl   $0x2,-0x10(%rbp)
   143b9:	7e 81                	jle    1433c <main+0x11ac>
   143bb:	83 45 ec 01          	addl   $0x1,-0x14(%rbp)
   143bf:	83 7d ec 05          	cmpl   $0x5,-0x14(%rbp)
   143c3:	0f 8e 6a ff ff ff    	jle    14333 <main+0x11a3>
   143c9:	83 45 e8 01          	addl   $0x1,-0x18(%rbp)
   143cd:	83 7d e8 05          	cmpl   $0x5,-0x18(%rbp)
   143d1:	0f 8e 50 ff ff ff    	jle    14327 <main+0x1197>
   143d7:	48 8b 05 02 a3 00 00 	mov    0xa302(%rip),%rax        # 1e6e0 <g_850>
   143de:	8b 55 f4             	mov    -0xc(%rbp),%edx
   143e1:	48 8d 35 7a 51 00 00 	lea    0x517a(%rip),%rsi        # 19562 <g_2539+0xb22>
   143e8:	48 89 c7             	mov    %rax,%rdi
   143eb:	e8 03 53 ff ff       	callq  96f3 <transparent_crc>
   143f0:	48 8b 05 f1 a2 00 00 	mov    0xa2f1(%rip),%rax        # 1e6e8 <g_851>
   143f7:	8b 55 f4             	mov    -0xc(%rbp),%edx
   143fa:	48 8d 35 67 51 00 00 	lea    0x5167(%rip),%rsi        # 19568 <g_2539+0xb28>
   14401:	48 89 c7             	mov    %rax,%rdi
   14404:	e8 ea 52 ff ff       	callq  96f3 <transparent_crc>
   14409:	48 8b 05 e0 a2 00 00 	mov    0xa2e0(%rip),%rax        # 1e6f0 <g_852>
   14410:	8b 55 f4             	mov    -0xc(%rbp),%edx
   14413:	48 8d 35 54 51 00 00 	lea    0x5154(%rip),%rsi        # 1956e <g_2539+0xb2e>
   1441a:	48 89 c7             	mov    %rax,%rdi
   1441d:	e8 d1 52 ff ff       	callq  96f3 <transparent_crc>
   14422:	48 8b 05 cf a2 00 00 	mov    0xa2cf(%rip),%rax        # 1e6f8 <g_853>
   14429:	8b 55 f4             	mov    -0xc(%rbp),%edx
   1442c:	48 8d 35 41 51 00 00 	lea    0x5141(%rip),%rsi        # 19574 <g_2539+0xb34>
   14433:	48 89 c7             	mov    %rax,%rdi
   14436:	e8 b8 52 ff ff       	callq  96f3 <transparent_crc>
   1443b:	48 8b 05 be a2 00 00 	mov    0xa2be(%rip),%rax        # 1e700 <g_854>
   14442:	8b 55 f4             	mov    -0xc(%rbp),%edx
   14445:	48 8d 35 2e 51 00 00 	lea    0x512e(%rip),%rsi        # 1957a <g_2539+0xb3a>
   1444c:	48 89 c7             	mov    %rax,%rdi
   1444f:	e8 9f 52 ff ff       	callq  96f3 <transparent_crc>
   14454:	48 8b 05 ad a2 00 00 	mov    0xa2ad(%rip),%rax        # 1e708 <g_855>
   1445b:	8b 55 f4             	mov    -0xc(%rbp),%edx
   1445e:	48 8d 35 1b 51 00 00 	lea    0x511b(%rip),%rsi        # 19580 <g_2539+0xb40>
   14465:	48 89 c7             	mov    %rax,%rdi
   14468:	e8 86 52 ff ff       	callq  96f3 <transparent_crc>
   1446d:	c7 45 e8 00 00 00 00 	movl   $0x0,-0x18(%rbp)
   14474:	eb 4a                	jmp    144c0 <main+0x1330>
   14476:	8b 45 e8             	mov    -0x18(%rbp),%eax
   14479:	48 98                	cltq   
   1447b:	48 8d 14 c5 00 00 00 	lea    0x0(,%rax,8),%rdx
   14482:	00 
   14483:	48 8d 05 96 a2 00 00 	lea    0xa296(%rip),%rax        # 1e720 <g_856>
   1448a:	48 8b 04 02          	mov    (%rdx,%rax,1),%rax
   1448e:	8b 55 f4             	mov    -0xc(%rbp),%edx
   14491:	48 8d 35 ee 50 00 00 	lea    0x50ee(%rip),%rsi        # 19586 <g_2539+0xb46>
   14498:	48 89 c7             	mov    %rax,%rdi
   1449b:	e8 53 52 ff ff       	callq  96f3 <transparent_crc>
   144a0:	83 7d f4 00          	cmpl   $0x0,-0xc(%rbp)
   144a4:	74 16                	je     144bc <main+0x132c>
   144a6:	8b 45 e8             	mov    -0x18(%rbp),%eax
   144a9:	89 c6                	mov    %eax,%esi
   144ab:	48 8d 3d 31 4d 00 00 	lea    0x4d31(%rip),%rdi        # 191e3 <g_2539+0x7a3>
   144b2:	b8 00 00 00 00       	mov    $0x0,%eax
   144b7:	e8 c4 3b ff ff       	callq  8080 <printf@plt>
   144bc:	83 45 e8 01          	addl   $0x1,-0x18(%rbp)
   144c0:	83 7d e8 05          	cmpl   $0x5,-0x18(%rbp)
   144c4:	7e b0                	jle    14476 <main+0x12e6>
   144c6:	48 8b 05 83 a2 00 00 	mov    0xa283(%rip),%rax        # 1e750 <g_857>
   144cd:	8b 55 f4             	mov    -0xc(%rbp),%edx
   144d0:	48 8d 35 b8 50 00 00 	lea    0x50b8(%rip),%rsi        # 1958f <g_2539+0xb4f>
   144d7:	48 89 c7             	mov    %rax,%rdi
   144da:	e8 14 52 ff ff       	callq  96f3 <transparent_crc>
   144df:	48 8b 05 72 a2 00 00 	mov    0xa272(%rip),%rax        # 1e758 <g_858>
   144e6:	8b 55 f4             	mov    -0xc(%rbp),%edx
   144e9:	48 8d 35 a5 50 00 00 	lea    0x50a5(%rip),%rsi        # 19595 <g_2539+0xb55>
   144f0:	48 89 c7             	mov    %rax,%rdi
   144f3:	e8 fb 51 ff ff       	callq  96f3 <transparent_crc>
   144f8:	48 8b 05 61 11 01 00 	mov    0x11161(%rip),%rax        # 25660 <g_859>
   144ff:	8b 55 f4             	mov    -0xc(%rbp),%edx
   14502:	48 8d 35 92 50 00 00 	lea    0x5092(%rip),%rsi        # 1959b <g_2539+0xb5b>
   14509:	48 89 c7             	mov    %rax,%rdi
   1450c:	e8 e2 51 ff ff       	callq  96f3 <transparent_crc>
   14511:	48 8b 05 48 a2 00 00 	mov    0xa248(%rip),%rax        # 1e760 <g_860>
   14518:	8b 55 f4             	mov    -0xc(%rbp),%edx
   1451b:	48 8d 35 7f 50 00 00 	lea    0x507f(%rip),%rsi        # 195a1 <g_2539+0xb61>
   14522:	48 89 c7             	mov    %rax,%rdi
   14525:	e8 c9 51 ff ff       	callq  96f3 <transparent_crc>
   1452a:	c7 45 e8 00 00 00 00 	movl   $0x0,-0x18(%rbp)
   14531:	eb 74                	jmp    145a7 <main+0x1417>
   14533:	c7 45 ec 00 00 00 00 	movl   $0x0,-0x14(%rbp)
   1453a:	eb 61                	jmp    1459d <main+0x140d>
   1453c:	8b 45 ec             	mov    -0x14(%rbp),%eax
   1453f:	48 63 c8             	movslq %eax,%rcx
   14542:	8b 45 e8             	mov    -0x18(%rbp),%eax
   14545:	48 63 d0             	movslq %eax,%rdx
   14548:	48 89 d0             	mov    %rdx,%rax
   1454b:	48 c1 e0 03          	shl    $0x3,%rax
   1454f:	48 29 d0             	sub    %rdx,%rax
   14552:	48 01 c8             	add    %rcx,%rax
   14555:	48 8d 14 c5 00 00 00 	lea    0x0(,%rax,8),%rdx
   1455c:	00 
   1455d:	48 8d 05 1c a2 00 00 	lea    0xa21c(%rip),%rax        # 1e780 <g_861>
   14564:	48 8b 04 02          	mov    (%rdx,%rax,1),%rax
   14568:	8b 55 f4             	mov    -0xc(%rbp),%edx
   1456b:	48 8d 35 35 50 00 00 	lea    0x5035(%rip),%rsi        # 195a7 <g_2539+0xb67>
   14572:	48 89 c7             	mov    %rax,%rdi
   14575:	e8 79 51 ff ff       	callq  96f3 <transparent_crc>
   1457a:	83 7d f4 00          	cmpl   $0x0,-0xc(%rbp)
   1457e:	74 19                	je     14599 <main+0x1409>
   14580:	8b 55 ec             	mov    -0x14(%rbp),%edx
   14583:	8b 45 e8             	mov    -0x18(%rbp),%eax
   14586:	89 c6                	mov    %eax,%esi
   14588:	48 8d 3d 29 4e 00 00 	lea    0x4e29(%rip),%rdi        # 193b8 <g_2539+0x978>
   1458f:	b8 00 00 00 00       	mov    $0x0,%eax
   14594:	e8 e7 3a ff ff       	callq  8080 <printf@plt>
   14599:	83 45 ec 01          	addl   $0x1,-0x14(%rbp)
   1459d:	83 7d ec 06          	cmpl   $0x6,-0x14(%rbp)
   145a1:	7e 99                	jle    1453c <main+0x13ac>
   145a3:	83 45 e8 01          	addl   $0x1,-0x18(%rbp)
   145a7:	83 7d e8 02          	cmpl   $0x2,-0x18(%rbp)
   145ab:	7e 86                	jle    14533 <main+0x13a3>
   145ad:	48 8b 05 74 a2 00 00 	mov    0xa274(%rip),%rax        # 1e828 <g_862>
   145b4:	8b 55 f4             	mov    -0xc(%rbp),%edx
   145b7:	48 8d 35 f5 4f 00 00 	lea    0x4ff5(%rip),%rsi        # 195b3 <g_2539+0xb73>
   145be:	48 89 c7             	mov    %rax,%rdi
   145c1:	e8 2d 51 ff ff       	callq  96f3 <transparent_crc>
   145c6:	48 8b 05 63 a2 00 00 	mov    0xa263(%rip),%rax        # 1e830 <g_863>
   145cd:	8b 55 f4             	mov    -0xc(%rbp),%edx
   145d0:	48 8d 35 e2 4f 00 00 	lea    0x4fe2(%rip),%rsi        # 195b9 <g_2539+0xb79>
   145d7:	48 89 c7             	mov    %rax,%rdi
   145da:	e8 14 51 ff ff       	callq  96f3 <transparent_crc>
   145df:	48 8b 05 52 a2 00 00 	mov    0xa252(%rip),%rax        # 1e838 <g_864>
   145e6:	8b 55 f4             	mov    -0xc(%rbp),%edx
   145e9:	48 8d 35 cf 4f 00 00 	lea    0x4fcf(%rip),%rsi        # 195bf <g_2539+0xb7f>
   145f0:	48 89 c7             	mov    %rax,%rdi
   145f3:	e8 fb 50 ff ff       	callq  96f3 <transparent_crc>
   145f8:	c7 45 e8 00 00 00 00 	movl   $0x0,-0x18(%rbp)
   145ff:	e9 b7 00 00 00       	jmpq   146bb <main+0x152b>
   14604:	c7 45 ec 00 00 00 00 	movl   $0x0,-0x14(%rbp)
   1460b:	e9 9d 00 00 00       	jmpq   146ad <main+0x151d>
   14610:	c7 45 f0 00 00 00 00 	movl   $0x0,-0x10(%rbp)
   14617:	e9 83 00 00 00       	jmpq   1469f <main+0x150f>
   1461c:	8b 45 f0             	mov    -0x10(%rbp),%eax
   1461f:	48 63 f0             	movslq %eax,%rsi
   14622:	8b 45 e8             	mov    -0x18(%rbp),%eax
   14625:	48 63 d0             	movslq %eax,%rdx
   14628:	8b 45 ec             	mov    -0x14(%rbp),%eax
   1462b:	48 63 c8             	movslq %eax,%rcx
   1462e:	48 89 d0             	mov    %rdx,%rax
   14631:	48 c1 e0 02          	shl    $0x2,%rax
   14635:	48 01 d0             	add    %rdx,%rax
   14638:	48 c1 e0 02          	shl    $0x2,%rax
   1463c:	48 01 d0             	add    %rdx,%rax
   1463f:	48 01 c0             	add    %rax,%rax
   14642:	48 89 ca             	mov    %rcx,%rdx
   14645:	48 01 d2             	add    %rdx,%rdx
   14648:	48 01 ca             	add    %rcx,%rdx
   1464b:	48 01 d2             	add    %rdx,%rdx
   1464e:	48 01 d0             	add    %rdx,%rax
   14651:	48 01 f0             	add    %rsi,%rax
   14654:	48 8d 14 c5 00 00 00 	lea    0x0(,%rax,8),%rdx
   1465b:	00 
   1465c:	48 8d 05 dd a1 00 00 	lea    0xa1dd(%rip),%rax        # 1e840 <g_865>
   14663:	48 8b 04 02          	mov    (%rdx,%rax,1),%rax
   14667:	8b 55 f4             	mov    -0xc(%rbp),%edx
   1466a:	48 8d 35 54 4f 00 00 	lea    0x4f54(%rip),%rsi        # 195c5 <g_2539+0xb85>
   14671:	48 89 c7             	mov    %rax,%rdi
   14674:	e8 7a 50 ff ff       	callq  96f3 <transparent_crc>
   14679:	83 7d f4 00          	cmpl   $0x0,-0xc(%rbp)
   1467d:	74 1c                	je     1469b <main+0x150b>
   1467f:	8b 4d f0             	mov    -0x10(%rbp),%ecx
   14682:	8b 55 ec             	mov    -0x14(%rbp),%edx
   14685:	8b 45 e8             	mov    -0x18(%rbp),%eax
   14688:	89 c6                	mov    %eax,%esi
   1468a:	48 8d 3d 85 4b 00 00 	lea    0x4b85(%rip),%rdi        # 19216 <g_2539+0x7d6>
   14691:	b8 00 00 00 00       	mov    $0x0,%eax
   14696:	e8 e5 39 ff ff       	callq  8080 <printf@plt>
   1469b:	83 45 f0 01          	addl   $0x1,-0x10(%rbp)
   1469f:	83 7d f0 05          	cmpl   $0x5,-0x10(%rbp)
   146a3:	0f 8e 73 ff ff ff    	jle    1461c <main+0x148c>
   146a9:	83 45 ec 01          	addl   $0x1,-0x14(%rbp)
   146ad:	83 7d ec 06          	cmpl   $0x6,-0x14(%rbp)
   146b1:	0f 8e 59 ff ff ff    	jle    14610 <main+0x1480>
   146b7:	83 45 e8 01          	addl   $0x1,-0x18(%rbp)
   146bb:	83 7d e8 05          	cmpl   $0x5,-0x18(%rbp)
   146bf:	0f 8e 3f ff ff ff    	jle    14604 <main+0x1474>
   146c5:	c7 45 e8 00 00 00 00 	movl   $0x0,-0x18(%rbp)
   146cc:	eb 4a                	jmp    14718 <main+0x1588>
   146ce:	8b 45 e8             	mov    -0x18(%rbp),%eax
   146d1:	48 98                	cltq   
   146d3:	48 8d 14 c5 00 00 00 	lea    0x0(,%rax,8),%rdx
   146da:	00 
   146db:	48 8d 05 3e a9 00 00 	lea    0xa93e(%rip),%rax        # 1f020 <g_866>
   146e2:	48 8b 04 02          	mov    (%rdx,%rax,1),%rax
   146e6:	8b 55 f4             	mov    -0xc(%rbp),%edx
   146e9:	48 8d 35 e4 4e 00 00 	lea    0x4ee4(%rip),%rsi        # 195d4 <g_2539+0xb94>
   146f0:	48 89 c7             	mov    %rax,%rdi
   146f3:	e8 fb 4f ff ff       	callq  96f3 <transparent_crc>
   146f8:	83 7d f4 00          	cmpl   $0x0,-0xc(%rbp)
   146fc:	74 16                	je     14714 <main+0x1584>
   146fe:	8b 45 e8             	mov    -0x18(%rbp),%eax
   14701:	89 c6                	mov    %eax,%esi
   14703:	48 8d 3d d9 4a 00 00 	lea    0x4ad9(%rip),%rdi        # 191e3 <g_2539+0x7a3>
   1470a:	b8 00 00 00 00       	mov    $0x0,%eax
   1470f:	e8 6c 39 ff ff       	callq  8080 <printf@plt>
   14714:	83 45 e8 01          	addl   $0x1,-0x18(%rbp)
   14718:	83 7d e8 06          	cmpl   $0x6,-0x18(%rbp)
   1471c:	7e b0                	jle    146ce <main+0x153e>
   1471e:	48 8b 05 33 a9 00 00 	mov    0xa933(%rip),%rax        # 1f058 <g_867>
   14725:	8b 55 f4             	mov    -0xc(%rbp),%edx
   14728:	48 8d 35 ae 4e 00 00 	lea    0x4eae(%rip),%rsi        # 195dd <g_2539+0xb9d>
   1472f:	48 89 c7             	mov    %rax,%rdi
   14732:	e8 bc 4f ff ff       	callq  96f3 <transparent_crc>
   14737:	48 8b 05 2a 0f 01 00 	mov    0x10f2a(%rip),%rax        # 25668 <g_868>
   1473e:	8b 55 f4             	mov    -0xc(%rbp),%edx
   14741:	48 8d 35 9b 4e 00 00 	lea    0x4e9b(%rip),%rsi        # 195e3 <g_2539+0xba3>
   14748:	48 89 c7             	mov    %rax,%rdi
   1474b:	e8 a3 4f ff ff       	callq  96f3 <transparent_crc>
   14750:	48 8b 05 09 a9 00 00 	mov    0xa909(%rip),%rax        # 1f060 <g_869>
   14757:	8b 55 f4             	mov    -0xc(%rbp),%edx
   1475a:	48 8d 35 88 4e 00 00 	lea    0x4e88(%rip),%rsi        # 195e9 <g_2539+0xba9>
   14761:	48 89 c7             	mov    %rax,%rdi
   14764:	e8 8a 4f ff ff       	callq  96f3 <transparent_crc>
   14769:	48 8b 05 f8 a8 00 00 	mov    0xa8f8(%rip),%rax        # 1f068 <g_870>
   14770:	8b 55 f4             	mov    -0xc(%rbp),%edx
   14773:	48 8d 35 75 4e 00 00 	lea    0x4e75(%rip),%rsi        # 195ef <g_2539+0xbaf>
   1477a:	48 89 c7             	mov    %rax,%rdi
   1477d:	e8 71 4f ff ff       	callq  96f3 <transparent_crc>
   14782:	48 8b 05 e7 a8 00 00 	mov    0xa8e7(%rip),%rax        # 1f070 <g_871>
   14789:	8b 55 f4             	mov    -0xc(%rbp),%edx
   1478c:	48 8d 35 62 4e 00 00 	lea    0x4e62(%rip),%rsi        # 195f5 <g_2539+0xbb5>
   14793:	48 89 c7             	mov    %rax,%rdi
   14796:	e8 58 4f ff ff       	callq  96f3 <transparent_crc>
   1479b:	48 8b 05 d6 a8 00 00 	mov    0xa8d6(%rip),%rax        # 1f078 <g_872>
   147a2:	8b 55 f4             	mov    -0xc(%rbp),%edx
   147a5:	48 8d 35 4f 4e 00 00 	lea    0x4e4f(%rip),%rsi        # 195fb <g_2539+0xbbb>
   147ac:	48 89 c7             	mov    %rax,%rdi
   147af:	e8 3f 4f ff ff       	callq  96f3 <transparent_crc>
   147b4:	48 8b 05 c5 a8 00 00 	mov    0xa8c5(%rip),%rax        # 1f080 <g_873>
   147bb:	8b 55 f4             	mov    -0xc(%rbp),%edx
   147be:	48 8d 35 3c 4e 00 00 	lea    0x4e3c(%rip),%rsi        # 19601 <g_2539+0xbc1>
   147c5:	48 89 c7             	mov    %rax,%rdi
   147c8:	e8 26 4f ff ff       	callq  96f3 <transparent_crc>
   147cd:	48 8b 05 b4 a8 00 00 	mov    0xa8b4(%rip),%rax        # 1f088 <g_874>
   147d4:	8b 55 f4             	mov    -0xc(%rbp),%edx
   147d7:	48 8d 35 29 4e 00 00 	lea    0x4e29(%rip),%rsi        # 19607 <g_2539+0xbc7>
   147de:	48 89 c7             	mov    %rax,%rdi
   147e1:	e8 0d 4f ff ff       	callq  96f3 <transparent_crc>
   147e6:	0f b7 05 a3 a8 00 00 	movzwl 0xa8a3(%rip),%eax        # 1f090 <g_1010>
   147ed:	c1 e0 04             	shl    $0x4,%eax
   147f0:	66 c1 f8 04          	sar    $0x4,%ax
   147f4:	48 0f bf c0          	movswq %ax,%rax
   147f8:	8b 55 f4             	mov    -0xc(%rbp),%edx
   147fb:	48 8d 35 0b 4e 00 00 	lea    0x4e0b(%rip),%rsi        # 1960d <g_2539+0xbcd>
   14802:	48 89 c7             	mov    %rax,%rdi
   14805:	e8 e9 4e ff ff       	callq  96f3 <transparent_crc>
   1480a:	8b 05 80 a8 00 00    	mov    0xa880(%rip),%eax        # 1f090 <g_1010>
   14810:	c1 e8 0c             	shr    $0xc,%eax
   14813:	25 ff ff 01 00       	and    $0x1ffff,%eax
   14818:	89 c1                	mov    %eax,%ecx
   1481a:	8b 45 f4             	mov    -0xc(%rbp),%eax
   1481d:	89 c2                	mov    %eax,%edx
   1481f:	48 8d 35 f1 4d 00 00 	lea    0x4df1(%rip),%rsi        # 19617 <g_2539+0xbd7>
   14826:	48 89 cf             	mov    %rcx,%rdi
   14829:	e8 c5 4e ff ff       	callq  96f3 <transparent_crc>
   1482e:	0f b7 05 5f a8 00 00 	movzwl 0xa85f(%rip),%eax        # 1f094 <g_1010+0x4>
   14835:	0f b7 c0             	movzwl %ax,%eax
   14838:	8b 55 f4             	mov    -0xc(%rbp),%edx
   1483b:	48 8d 35 df 4d 00 00 	lea    0x4ddf(%rip),%rsi        # 19621 <g_2539+0xbe1>
   14842:	48 89 c7             	mov    %rax,%rdi
   14845:	e8 a9 4e ff ff       	callq  96f3 <transparent_crc>
   1484a:	48 8b 05 3f a8 00 00 	mov    0xa83f(%rip),%rax        # 1f090 <g_1010>
   14851:	48 c1 e0 06          	shl    $0x6,%rax
   14855:	48 c1 f8 36          	sar    $0x36,%rax
   14859:	48 0f bf c0          	movswq %ax,%rax
   1485d:	8b 55 f4             	mov    -0xc(%rbp),%edx
   14860:	48 8d 35 c4 4d 00 00 	lea    0x4dc4(%rip),%rsi        # 1962b <g_2539+0xbeb>
   14867:	48 89 c7             	mov    %rax,%rdi
   1486a:	e8 84 4e ff ff       	callq  96f3 <transparent_crc>
   1486f:	c7 45 e8 00 00 00 00 	movl   $0x0,-0x18(%rbp)
   14876:	e9 ed 00 00 00       	jmpq   14968 <main+0x17d8>
   1487b:	8b 45 e8             	mov    -0x18(%rbp),%eax
   1487e:	48 98                	cltq   
   14880:	48 8d 14 c5 00 00 00 	lea    0x0(,%rax,8),%rdx
   14887:	00 
   14888:	48 8d 05 11 a8 00 00 	lea    0xa811(%rip),%rax        # 1f0a0 <g_1011>
   1488f:	0f b7 04 02          	movzwl (%rdx,%rax,1),%eax
   14893:	c1 e0 04             	shl    $0x4,%eax
   14896:	66 c1 f8 04          	sar    $0x4,%ax
   1489a:	48 0f bf c0          	movswq %ax,%rax
   1489e:	8b 55 f4             	mov    -0xc(%rbp),%edx
   148a1:	48 8d 35 8d 4d 00 00 	lea    0x4d8d(%rip),%rsi        # 19635 <g_2539+0xbf5>
   148a8:	48 89 c7             	mov    %rax,%rdi
   148ab:	e8 43 4e ff ff       	callq  96f3 <transparent_crc>
   148b0:	8b 45 e8             	mov    -0x18(%rbp),%eax
   148b3:	48 98                	cltq   
   148b5:	48 8d 14 c5 00 00 00 	lea    0x0(,%rax,8),%rdx
   148bc:	00 
   148bd:	48 8d 05 dc a7 00 00 	lea    0xa7dc(%rip),%rax        # 1f0a0 <g_1011>
   148c4:	8b 04 02             	mov    (%rdx,%rax,1),%eax
   148c7:	c1 e8 0c             	shr    $0xc,%eax
   148ca:	25 ff ff 01 00       	and    $0x1ffff,%eax
   148cf:	89 c1                	mov    %eax,%ecx
   148d1:	8b 45 f4             	mov    -0xc(%rbp),%eax
   148d4:	89 c2                	mov    %eax,%edx
   148d6:	48 8d 35 65 4d 00 00 	lea    0x4d65(%rip),%rsi        # 19642 <g_2539+0xc02>
   148dd:	48 89 cf             	mov    %rcx,%rdi
   148e0:	e8 0e 4e ff ff       	callq  96f3 <transparent_crc>
   148e5:	8b 45 e8             	mov    -0x18(%rbp),%eax
   148e8:	48 98                	cltq   
   148ea:	48 8d 14 c5 00 00 00 	lea    0x0(,%rax,8),%rdx
   148f1:	00 
   148f2:	48 8d 05 ab a7 00 00 	lea    0xa7ab(%rip),%rax        # 1f0a4 <g_1011+0x4>
   148f9:	0f b7 04 02          	movzwl (%rdx,%rax,1),%eax
   148fd:	0f b7 c0             	movzwl %ax,%eax
   14900:	8b 55 f4             	mov    -0xc(%rbp),%edx
   14903:	48 8d 35 45 4d 00 00 	lea    0x4d45(%rip),%rsi        # 1964f <g_2539+0xc0f>
   1490a:	48 89 c7             	mov    %rax,%rdi
   1490d:	e8 e1 4d ff ff       	callq  96f3 <transparent_crc>
   14912:	8b 45 e8             	mov    -0x18(%rbp),%eax
   14915:	48 98                	cltq   
   14917:	48 8d 14 c5 00 00 00 	lea    0x0(,%rax,8),%rdx
   1491e:	00 
   1491f:	48 8d 05 7a a7 00 00 	lea    0xa77a(%rip),%rax        # 1f0a0 <g_1011>
   14926:	48 8b 04 02          	mov    (%rdx,%rax,1),%rax
   1492a:	48 c1 e0 06          	shl    $0x6,%rax
   1492e:	48 c1 f8 36          	sar    $0x36,%rax
   14932:	48 0f bf c0          	movswq %ax,%rax
   14936:	8b 55 f4             	mov    -0xc(%rbp),%edx
   14939:	48 8d 35 1c 4d 00 00 	lea    0x4d1c(%rip),%rsi        # 1965c <g_2539+0xc1c>
   14940:	48 89 c7             	mov    %rax,%rdi
   14943:	e8 ab 4d ff ff       	callq  96f3 <transparent_crc>
   14948:	83 7d f4 00          	cmpl   $0x0,-0xc(%rbp)
   1494c:	74 16                	je     14964 <main+0x17d4>
   1494e:	8b 45 e8             	mov    -0x18(%rbp),%eax
   14951:	89 c6                	mov    %eax,%esi
   14953:	48 8d 3d 89 48 00 00 	lea    0x4889(%rip),%rdi        # 191e3 <g_2539+0x7a3>
   1495a:	b8 00 00 00 00       	mov    $0x0,%eax
   1495f:	e8 1c 37 ff ff       	callq  8080 <printf@plt>
   14964:	83 45 e8 01          	addl   $0x1,-0x18(%rbp)
   14968:	83 7d e8 05          	cmpl   $0x5,-0x18(%rbp)
   1496c:	0f 8e 09 ff ff ff    	jle    1487b <main+0x16eb>
   14972:	0f b7 05 57 a7 00 00 	movzwl 0xa757(%rip),%eax        # 1f0d0 <g_1012>
   14979:	c1 e0 04             	shl    $0x4,%eax
   1497c:	66 c1 f8 04          	sar    $0x4,%ax
   14980:	48 0f bf c0          	movswq %ax,%rax
   14984:	8b 55 f4             	mov    -0xc(%rbp),%edx
   14987:	48 8d 35 db 4c 00 00 	lea    0x4cdb(%rip),%rsi        # 19669 <g_2539+0xc29>
   1498e:	48 89 c7             	mov    %rax,%rdi
   14991:	e8 5d 4d ff ff       	callq  96f3 <transparent_crc>
   14996:	8b 05 34 a7 00 00    	mov    0xa734(%rip),%eax        # 1f0d0 <g_1012>
   1499c:	c1 e8 0c             	shr    $0xc,%eax
   1499f:	25 ff ff 01 00       	and    $0x1ffff,%eax
   149a4:	89 c1                	mov    %eax,%ecx
   149a6:	8b 45 f4             	mov    -0xc(%rbp),%eax
   149a9:	89 c2                	mov    %eax,%edx
   149ab:	48 8d 35 c1 4c 00 00 	lea    0x4cc1(%rip),%rsi        # 19673 <g_2539+0xc33>
   149b2:	48 89 cf             	mov    %rcx,%rdi
   149b5:	e8 39 4d ff ff       	callq  96f3 <transparent_crc>
   149ba:	0f b7 05 13 a7 00 00 	movzwl 0xa713(%rip),%eax        # 1f0d4 <g_1012+0x4>
   149c1:	0f b7 c0             	movzwl %ax,%eax
   149c4:	8b 55 f4             	mov    -0xc(%rbp),%edx
   149c7:	48 8d 35 af 4c 00 00 	lea    0x4caf(%rip),%rsi        # 1967d <g_2539+0xc3d>
   149ce:	48 89 c7             	mov    %rax,%rdi
   149d1:	e8 1d 4d ff ff       	callq  96f3 <transparent_crc>
   149d6:	48 8b 05 f3 a6 00 00 	mov    0xa6f3(%rip),%rax        # 1f0d0 <g_1012>
   149dd:	48 c1 e0 06          	shl    $0x6,%rax
   149e1:	48 c1 f8 36          	sar    $0x36,%rax
   149e5:	48 0f bf c0          	movswq %ax,%rax
   149e9:	8b 55 f4             	mov    -0xc(%rbp),%edx
   149ec:	48 8d 35 94 4c 00 00 	lea    0x4c94(%rip),%rsi        # 19687 <g_2539+0xc47>
   149f3:	48 89 c7             	mov    %rax,%rdi
   149f6:	e8 f8 4c ff ff       	callq  96f3 <transparent_crc>
   149fb:	0f b7 05 d6 a6 00 00 	movzwl 0xa6d6(%rip),%eax        # 1f0d8 <g_1013>
   14a02:	c1 e0 04             	shl    $0x4,%eax
   14a05:	66 c1 f8 04          	sar    $0x4,%ax
   14a09:	48 0f bf c0          	movswq %ax,%rax
   14a0d:	8b 55 f4             	mov    -0xc(%rbp),%edx
   14a10:	48 8d 35 7a 4c 00 00 	lea    0x4c7a(%rip),%rsi        # 19691 <g_2539+0xc51>
   14a17:	48 89 c7             	mov    %rax,%rdi
   14a1a:	e8 d4 4c ff ff       	callq  96f3 <transparent_crc>
   14a1f:	8b 05 b3 a6 00 00    	mov    0xa6b3(%rip),%eax        # 1f0d8 <g_1013>
   14a25:	c1 e8 0c             	shr    $0xc,%eax
   14a28:	25 ff ff 01 00       	and    $0x1ffff,%eax
   14a2d:	89 c1                	mov    %eax,%ecx
   14a2f:	8b 45 f4             	mov    -0xc(%rbp),%eax
   14a32:	89 c2                	mov    %eax,%edx
   14a34:	48 8d 35 60 4c 00 00 	lea    0x4c60(%rip),%rsi        # 1969b <g_2539+0xc5b>
   14a3b:	48 89 cf             	mov    %rcx,%rdi
   14a3e:	e8 b0 4c ff ff       	callq  96f3 <transparent_crc>
   14a43:	0f b7 05 92 a6 00 00 	movzwl 0xa692(%rip),%eax        # 1f0dc <g_1013+0x4>
   14a4a:	0f b7 c0             	movzwl %ax,%eax
   14a4d:	8b 55 f4             	mov    -0xc(%rbp),%edx
   14a50:	48 8d 35 4e 4c 00 00 	lea    0x4c4e(%rip),%rsi        # 196a5 <g_2539+0xc65>
   14a57:	48 89 c7             	mov    %rax,%rdi
   14a5a:	e8 94 4c ff ff       	callq  96f3 <transparent_crc>
   14a5f:	48 8b 05 72 a6 00 00 	mov    0xa672(%rip),%rax        # 1f0d8 <g_1013>
   14a66:	48 c1 e0 06          	shl    $0x6,%rax
   14a6a:	48 c1 f8 36          	sar    $0x36,%rax
   14a6e:	48 0f bf c0          	movswq %ax,%rax
   14a72:	8b 55 f4             	mov    -0xc(%rbp),%edx
   14a75:	48 8d 35 33 4c 00 00 	lea    0x4c33(%rip),%rsi        # 196af <g_2539+0xc6f>
   14a7c:	48 89 c7             	mov    %rax,%rdi
   14a7f:	e8 6f 4c ff ff       	callq  96f3 <transparent_crc>
   14a84:	0f b7 05 55 a6 00 00 	movzwl 0xa655(%rip),%eax        # 1f0e0 <g_1014>
   14a8b:	c1 e0 04             	shl    $0x4,%eax
   14a8e:	66 c1 f8 04          	sar    $0x4,%ax
   14a92:	48 0f bf c0          	movswq %ax,%rax
   14a96:	8b 55 f4             	mov    -0xc(%rbp),%edx
   14a99:	48 8d 35 19 4c 00 00 	lea    0x4c19(%rip),%rsi        # 196b9 <g_2539+0xc79>
   14aa0:	48 89 c7             	mov    %rax,%rdi
   14aa3:	e8 4b 4c ff ff       	callq  96f3 <transparent_crc>
   14aa8:	8b 05 32 a6 00 00    	mov    0xa632(%rip),%eax        # 1f0e0 <g_1014>
   14aae:	c1 e8 0c             	shr    $0xc,%eax
   14ab1:	25 ff ff 01 00       	and    $0x1ffff,%eax
   14ab6:	89 c1                	mov    %eax,%ecx
   14ab8:	8b 45 f4             	mov    -0xc(%rbp),%eax
   14abb:	89 c2                	mov    %eax,%edx
   14abd:	48 8d 35 ff 4b 00 00 	lea    0x4bff(%rip),%rsi        # 196c3 <g_2539+0xc83>
   14ac4:	48 89 cf             	mov    %rcx,%rdi
   14ac7:	e8 27 4c ff ff       	callq  96f3 <transparent_crc>
   14acc:	0f b7 05 11 a6 00 00 	movzwl 0xa611(%rip),%eax        # 1f0e4 <g_1014+0x4>
   14ad3:	0f b7 c0             	movzwl %ax,%eax
   14ad6:	8b 55 f4             	mov    -0xc(%rbp),%edx
   14ad9:	48 8d 35 ed 4b 00 00 	lea    0x4bed(%rip),%rsi        # 196cd <g_2539+0xc8d>
   14ae0:	48 89 c7             	mov    %rax,%rdi
   14ae3:	e8 0b 4c ff ff       	callq  96f3 <transparent_crc>
   14ae8:	48 8b 05 f1 a5 00 00 	mov    0xa5f1(%rip),%rax        # 1f0e0 <g_1014>
   14aef:	48 c1 e0 06          	shl    $0x6,%rax
   14af3:	48 c1 f8 36          	sar    $0x36,%rax
   14af7:	48 0f bf c0          	movswq %ax,%rax
   14afb:	8b 55 f4             	mov    -0xc(%rbp),%edx
   14afe:	48 8d 35 d2 4b 00 00 	lea    0x4bd2(%rip),%rsi        # 196d7 <g_2539+0xc97>
   14b05:	48 89 c7             	mov    %rax,%rdi
   14b08:	e8 e6 4b ff ff       	callq  96f3 <transparent_crc>
   14b0d:	c7 45 e8 00 00 00 00 	movl   $0x0,-0x18(%rbp)
   14b14:	e9 ab 01 00 00       	jmpq   14cc4 <main+0x1b34>
   14b19:	c7 45 ec 00 00 00 00 	movl   $0x0,-0x14(%rbp)
   14b20:	e9 91 01 00 00       	jmpq   14cb6 <main+0x1b26>
   14b25:	c7 45 f0 00 00 00 00 	movl   $0x0,-0x10(%rbp)
   14b2c:	e9 77 01 00 00       	jmpq   14ca8 <main+0x1b18>
   14b31:	8b 45 f0             	mov    -0x10(%rbp),%eax
   14b34:	48 63 c8             	movslq %eax,%rcx
   14b37:	8b 45 e8             	mov    -0x18(%rbp),%eax
   14b3a:	48 63 d0             	movslq %eax,%rdx
   14b3d:	8b 45 ec             	mov    -0x14(%rbp),%eax
   14b40:	48 63 f0             	movslq %eax,%rsi
   14b43:	48 89 d0             	mov    %rdx,%rax
   14b46:	48 c1 e0 03          	shl    $0x3,%rax
   14b4a:	48 29 d0             	sub    %rdx,%rax
   14b4d:	48 01 f0             	add    %rsi,%rax
   14b50:	48 c1 e0 02          	shl    $0x2,%rax
   14b54:	48 01 c8             	add    %rcx,%rax
   14b57:	48 8d 14 c5 00 00 00 	lea    0x0(,%rax,8),%rdx
   14b5e:	00 
   14b5f:	48 8d 05 9a a5 00 00 	lea    0xa59a(%rip),%rax        # 1f100 <g_1015>
   14b66:	0f b7 04 02          	movzwl (%rdx,%rax,1),%eax
   14b6a:	c1 e0 04             	shl    $0x4,%eax
   14b6d:	66 c1 f8 04          	sar    $0x4,%ax
   14b71:	48 0f bf c0          	movswq %ax,%rax
   14b75:	8b 55 f4             	mov    -0xc(%rbp),%edx
   14b78:	48 8d 35 62 4b 00 00 	lea    0x4b62(%rip),%rsi        # 196e1 <g_2539+0xca1>
   14b7f:	48 89 c7             	mov    %rax,%rdi
   14b82:	e8 6c 4b ff ff       	callq  96f3 <transparent_crc>
   14b87:	8b 45 f0             	mov    -0x10(%rbp),%eax
   14b8a:	48 63 c8             	movslq %eax,%rcx
   14b8d:	8b 45 e8             	mov    -0x18(%rbp),%eax
   14b90:	48 63 d0             	movslq %eax,%rdx
   14b93:	8b 45 ec             	mov    -0x14(%rbp),%eax
   14b96:	48 63 f0             	movslq %eax,%rsi
   14b99:	48 89 d0             	mov    %rdx,%rax
   14b9c:	48 c1 e0 03          	shl    $0x3,%rax
   14ba0:	48 29 d0             	sub    %rdx,%rax
   14ba3:	48 01 f0             	add    %rsi,%rax
   14ba6:	48 c1 e0 02          	shl    $0x2,%rax
   14baa:	48 01 c8             	add    %rcx,%rax
   14bad:	48 8d 14 c5 00 00 00 	lea    0x0(,%rax,8),%rdx
   14bb4:	00 
   14bb5:	48 8d 05 44 a5 00 00 	lea    0xa544(%rip),%rax        # 1f100 <g_1015>
   14bbc:	8b 04 02             	mov    (%rdx,%rax,1),%eax
   14bbf:	c1 e8 0c             	shr    $0xc,%eax
   14bc2:	25 ff ff 01 00       	and    $0x1ffff,%eax
   14bc7:	89 c1                	mov    %eax,%ecx
   14bc9:	8b 45 f4             	mov    -0xc(%rbp),%eax
   14bcc:	89 c2                	mov    %eax,%edx
   14bce:	48 8d 35 1f 4b 00 00 	lea    0x4b1f(%rip),%rsi        # 196f4 <g_2539+0xcb4>
   14bd5:	48 89 cf             	mov    %rcx,%rdi
   14bd8:	e8 16 4b ff ff       	callq  96f3 <transparent_crc>
   14bdd:	8b 45 f0             	mov    -0x10(%rbp),%eax
   14be0:	48 63 c8             	movslq %eax,%rcx
   14be3:	8b 45 e8             	mov    -0x18(%rbp),%eax
   14be6:	48 63 d0             	movslq %eax,%rdx
   14be9:	8b 45 ec             	mov    -0x14(%rbp),%eax
   14bec:	48 63 f0             	movslq %eax,%rsi
   14bef:	48 89 d0             	mov    %rdx,%rax
   14bf2:	48 c1 e0 03          	shl    $0x3,%rax
   14bf6:	48 29 d0             	sub    %rdx,%rax
   14bf9:	48 01 f0             	add    %rsi,%rax
   14bfc:	48 c1 e0 02          	shl    $0x2,%rax
   14c00:	48 01 c8             	add    %rcx,%rax
   14c03:	48 8d 14 c5 00 00 00 	lea    0x0(,%rax,8),%rdx
   14c0a:	00 
   14c0b:	48 8d 05 f2 a4 00 00 	lea    0xa4f2(%rip),%rax        # 1f104 <g_1015+0x4>
   14c12:	0f b7 04 02          	movzwl (%rdx,%rax,1),%eax
   14c16:	0f b7 c0             	movzwl %ax,%eax
   14c19:	8b 55 f4             	mov    -0xc(%rbp),%edx
   14c1c:	48 8d 35 e4 4a 00 00 	lea    0x4ae4(%rip),%rsi        # 19707 <g_2539+0xcc7>
   14c23:	48 89 c7             	mov    %rax,%rdi
   14c26:	e8 c8 4a ff ff       	callq  96f3 <transparent_crc>
   14c2b:	8b 45 f0             	mov    -0x10(%rbp),%eax
   14c2e:	48 63 c8             	movslq %eax,%rcx
   14c31:	8b 45 e8             	mov    -0x18(%rbp),%eax
   14c34:	48 63 d0             	movslq %eax,%rdx
   14c37:	8b 45 ec             	mov    -0x14(%rbp),%eax
   14c3a:	48 63 f0             	movslq %eax,%rsi
   14c3d:	48 89 d0             	mov    %rdx,%rax
   14c40:	48 c1 e0 03          	shl    $0x3,%rax
   14c44:	48 29 d0             	sub    %rdx,%rax
   14c47:	48 01 f0             	add    %rsi,%rax
   14c4a:	48 c1 e0 02          	shl    $0x2,%rax
   14c4e:	48 01 c8             	add    %rcx,%rax
   14c51:	48 8d 14 c5 00 00 00 	lea    0x0(,%rax,8),%rdx
   14c58:	00 
   14c59:	48 8d 05 a0 a4 00 00 	lea    0xa4a0(%rip),%rax        # 1f100 <g_1015>
   14c60:	48 8b 04 02          	mov    (%rdx,%rax,1),%rax
   14c64:	48 c1 e0 06          	shl    $0x6,%rax
   14c68:	48 c1 f8 36          	sar    $0x36,%rax
   14c6c:	48 0f bf c0          	movswq %ax,%rax
   14c70:	8b 55 f4             	mov    -0xc(%rbp),%edx
   14c73:	48 8d 35 a0 4a 00 00 	lea    0x4aa0(%rip),%rsi        # 1971a <g_2539+0xcda>
   14c7a:	48 89 c7             	mov    %rax,%rdi
   14c7d:	e8 71 4a ff ff       	callq  96f3 <transparent_crc>
   14c82:	83 7d f4 00          	cmpl   $0x0,-0xc(%rbp)
   14c86:	74 1c                	je     14ca4 <main+0x1b14>
   14c88:	8b 4d f0             	mov    -0x10(%rbp),%ecx
   14c8b:	8b 55 ec             	mov    -0x14(%rbp),%edx
   14c8e:	8b 45 e8             	mov    -0x18(%rbp),%eax
   14c91:	89 c6                	mov    %eax,%esi
   14c93:	48 8d 3d 7c 45 00 00 	lea    0x457c(%rip),%rdi        # 19216 <g_2539+0x7d6>
   14c9a:	b8 00 00 00 00       	mov    $0x0,%eax
   14c9f:	e8 dc 33 ff ff       	callq  8080 <printf@plt>
   14ca4:	83 45 f0 01          	addl   $0x1,-0x10(%rbp)
   14ca8:	83 7d f0 03          	cmpl   $0x3,-0x10(%rbp)
   14cac:	0f 8e 7f fe ff ff    	jle    14b31 <main+0x19a1>
   14cb2:	83 45 ec 01          	addl   $0x1,-0x14(%rbp)
   14cb6:	83 7d ec 06          	cmpl   $0x6,-0x14(%rbp)
   14cba:	0f 8e 65 fe ff ff    	jle    14b25 <main+0x1995>
   14cc0:	83 45 e8 01          	addl   $0x1,-0x18(%rbp)
   14cc4:	83 7d e8 05          	cmpl   $0x5,-0x18(%rbp)
   14cc8:	0f 8e 4b fe ff ff    	jle    14b19 <main+0x1989>
   14cce:	c7 45 e8 00 00 00 00 	movl   $0x0,-0x18(%rbp)
   14cd5:	e9 ed 00 00 00       	jmpq   14dc7 <main+0x1c37>
   14cda:	8b 45 e8             	mov    -0x18(%rbp),%eax
   14cdd:	48 98                	cltq   
   14cdf:	48 8d 14 c5 00 00 00 	lea    0x0(,%rax,8),%rdx
   14ce6:	00 
   14ce7:	48 8d 05 52 a9 00 00 	lea    0xa952(%rip),%rax        # 1f640 <g_1016>
   14cee:	0f b7 04 02          	movzwl (%rdx,%rax,1),%eax
   14cf2:	c1 e0 04             	shl    $0x4,%eax
   14cf5:	66 c1 f8 04          	sar    $0x4,%ax
   14cf9:	48 0f bf c0          	movswq %ax,%rax
   14cfd:	8b 55 f4             	mov    -0xc(%rbp),%edx
   14d00:	48 8d 35 26 4a 00 00 	lea    0x4a26(%rip),%rsi        # 1972d <g_2539+0xced>
   14d07:	48 89 c7             	mov    %rax,%rdi
   14d0a:	e8 e4 49 ff ff       	callq  96f3 <transparent_crc>
   14d0f:	8b 45 e8             	mov    -0x18(%rbp),%eax
   14d12:	48 98                	cltq   
   14d14:	48 8d 14 c5 00 00 00 	lea    0x0(,%rax,8),%rdx
   14d1b:	00 
   14d1c:	48 8d 05 1d a9 00 00 	lea    0xa91d(%rip),%rax        # 1f640 <g_1016>
   14d23:	8b 04 02             	mov    (%rdx,%rax,1),%eax
   14d26:	c1 e8 0c             	shr    $0xc,%eax
   14d29:	25 ff ff 01 00       	and    $0x1ffff,%eax
   14d2e:	89 c1                	mov    %eax,%ecx
   14d30:	8b 45 f4             	mov    -0xc(%rbp),%eax
   14d33:	89 c2                	mov    %eax,%edx
   14d35:	48 8d 35 fe 49 00 00 	lea    0x49fe(%rip),%rsi        # 1973a <g_2539+0xcfa>
   14d3c:	48 89 cf             	mov    %rcx,%rdi
   14d3f:	e8 af 49 ff ff       	callq  96f3 <transparent_crc>
   14d44:	8b 45 e8             	mov    -0x18(%rbp),%eax
   14d47:	48 98                	cltq   
   14d49:	48 8d 14 c5 00 00 00 	lea    0x0(,%rax,8),%rdx
   14d50:	00 
   14d51:	48 8d 05 ec a8 00 00 	lea    0xa8ec(%rip),%rax        # 1f644 <g_1016+0x4>
   14d58:	0f b7 04 02          	movzwl (%rdx,%rax,1),%eax
   14d5c:	0f b7 c0             	movzwl %ax,%eax
   14d5f:	8b 55 f4             	mov    -0xc(%rbp),%edx
   14d62:	48 8d 35 de 49 00 00 	lea    0x49de(%rip),%rsi        # 19747 <g_2539+0xd07>
   14d69:	48 89 c7             	mov    %rax,%rdi
   14d6c:	e8 82 49 ff ff       	callq  96f3 <transparent_crc>
   14d71:	8b 45 e8             	mov    -0x18(%rbp),%eax
   14d74:	48 98                	cltq   
   14d76:	48 8d 14 c5 00 00 00 	lea    0x0(,%rax,8),%rdx
   14d7d:	00 
   14d7e:	48 8d 05 bb a8 00 00 	lea    0xa8bb(%rip),%rax        # 1f640 <g_1016>
   14d85:	48 8b 04 02          	mov    (%rdx,%rax,1),%rax
   14d89:	48 c1 e0 06          	shl    $0x6,%rax
   14d8d:	48 c1 f8 36          	sar    $0x36,%rax
   14d91:	48 0f bf c0          	movswq %ax,%rax
   14d95:	8b 55 f4             	mov    -0xc(%rbp),%edx
   14d98:	48 8d 35 b5 49 00 00 	lea    0x49b5(%rip),%rsi        # 19754 <g_2539+0xd14>
   14d9f:	48 89 c7             	mov    %rax,%rdi
   14da2:	e8 4c 49 ff ff       	callq  96f3 <transparent_crc>
   14da7:	83 7d f4 00          	cmpl   $0x0,-0xc(%rbp)
   14dab:	74 16                	je     14dc3 <main+0x1c33>
   14dad:	8b 45 e8             	mov    -0x18(%rbp),%eax
   14db0:	89 c6                	mov    %eax,%esi
   14db2:	48 8d 3d 2a 44 00 00 	lea    0x442a(%rip),%rdi        # 191e3 <g_2539+0x7a3>
   14db9:	b8 00 00 00 00       	mov    $0x0,%eax
   14dbe:	e8 bd 32 ff ff       	callq  8080 <printf@plt>
   14dc3:	83 45 e8 01          	addl   $0x1,-0x18(%rbp)
   14dc7:	83 7d e8 09          	cmpl   $0x9,-0x18(%rbp)
   14dcb:	0f 8e 09 ff ff ff    	jle    14cda <main+0x1b4a>
   14dd1:	0f b7 05 b8 a8 00 00 	movzwl 0xa8b8(%rip),%eax        # 1f690 <g_1017>
   14dd8:	c1 e0 04             	shl    $0x4,%eax
   14ddb:	66 c1 f8 04          	sar    $0x4,%ax
   14ddf:	48 0f bf c0          	movswq %ax,%rax
   14de3:	8b 55 f4             	mov    -0xc(%rbp),%edx
   14de6:	48 8d 35 74 49 00 00 	lea    0x4974(%rip),%rsi        # 19761 <g_2539+0xd21>
   14ded:	48 89 c7             	mov    %rax,%rdi
   14df0:	e8 fe 48 ff ff       	callq  96f3 <transparent_crc>
   14df5:	8b 05 95 a8 00 00    	mov    0xa895(%rip),%eax        # 1f690 <g_1017>
   14dfb:	c1 e8 0c             	shr    $0xc,%eax
   14dfe:	25 ff ff 01 00       	and    $0x1ffff,%eax
   14e03:	89 c1                	mov    %eax,%ecx
   14e05:	8b 45 f4             	mov    -0xc(%rbp),%eax
   14e08:	89 c2                	mov    %eax,%edx
   14e0a:	48 8d 35 5a 49 00 00 	lea    0x495a(%rip),%rsi        # 1976b <g_2539+0xd2b>
   14e11:	48 89 cf             	mov    %rcx,%rdi
   14e14:	e8 da 48 ff ff       	callq  96f3 <transparent_crc>
   14e19:	0f b7 05 74 a8 00 00 	movzwl 0xa874(%rip),%eax        # 1f694 <g_1017+0x4>
   14e20:	0f b7 c0             	movzwl %ax,%eax
   14e23:	8b 55 f4             	mov    -0xc(%rbp),%edx
   14e26:	48 8d 35 48 49 00 00 	lea    0x4948(%rip),%rsi        # 19775 <g_2539+0xd35>
   14e2d:	48 89 c7             	mov    %rax,%rdi
   14e30:	e8 be 48 ff ff       	callq  96f3 <transparent_crc>
   14e35:	48 8b 05 54 a8 00 00 	mov    0xa854(%rip),%rax        # 1f690 <g_1017>
   14e3c:	48 c1 e0 06          	shl    $0x6,%rax
   14e40:	48 c1 f8 36          	sar    $0x36,%rax
   14e44:	48 0f bf c0          	movswq %ax,%rax
   14e48:	8b 55 f4             	mov    -0xc(%rbp),%edx
   14e4b:	48 8d 35 2d 49 00 00 	lea    0x492d(%rip),%rsi        # 1977f <g_2539+0xd3f>
   14e52:	48 89 c7             	mov    %rax,%rdi
   14e55:	e8 99 48 ff ff       	callq  96f3 <transparent_crc>
   14e5a:	0f b7 05 37 a8 00 00 	movzwl 0xa837(%rip),%eax        # 1f698 <g_1018>
   14e61:	c1 e0 04             	shl    $0x4,%eax
   14e64:	66 c1 f8 04          	sar    $0x4,%ax
   14e68:	48 0f bf c0          	movswq %ax,%rax
   14e6c:	8b 55 f4             	mov    -0xc(%rbp),%edx
   14e6f:	48 8d 35 13 49 00 00 	lea    0x4913(%rip),%rsi        # 19789 <g_2539+0xd49>
   14e76:	48 89 c7             	mov    %rax,%rdi
   14e79:	e8 75 48 ff ff       	callq  96f3 <transparent_crc>
   14e7e:	8b 05 14 a8 00 00    	mov    0xa814(%rip),%eax        # 1f698 <g_1018>
   14e84:	c1 e8 0c             	shr    $0xc,%eax
   14e87:	25 ff ff 01 00       	and    $0x1ffff,%eax
   14e8c:	89 c1                	mov    %eax,%ecx
   14e8e:	8b 45 f4             	mov    -0xc(%rbp),%eax
   14e91:	89 c2                	mov    %eax,%edx
   14e93:	48 8d 35 f9 48 00 00 	lea    0x48f9(%rip),%rsi        # 19793 <g_2539+0xd53>
   14e9a:	48 89 cf             	mov    %rcx,%rdi
   14e9d:	e8 51 48 ff ff       	callq  96f3 <transparent_crc>
   14ea2:	0f b7 05 f3 a7 00 00 	movzwl 0xa7f3(%rip),%eax        # 1f69c <g_1018+0x4>
   14ea9:	0f b7 c0             	movzwl %ax,%eax
   14eac:	8b 55 f4             	mov    -0xc(%rbp),%edx
   14eaf:	48 8d 35 e7 48 00 00 	lea    0x48e7(%rip),%rsi        # 1979d <g_2539+0xd5d>
   14eb6:	48 89 c7             	mov    %rax,%rdi
   14eb9:	e8 35 48 ff ff       	callq  96f3 <transparent_crc>
   14ebe:	48 8b 05 d3 a7 00 00 	mov    0xa7d3(%rip),%rax        # 1f698 <g_1018>
   14ec5:	48 c1 e0 06          	shl    $0x6,%rax
   14ec9:	48 c1 f8 36          	sar    $0x36,%rax
   14ecd:	48 0f bf c0          	movswq %ax,%rax
   14ed1:	8b 55 f4             	mov    -0xc(%rbp),%edx
   14ed4:	48 8d 35 cc 48 00 00 	lea    0x48cc(%rip),%rsi        # 197a7 <g_2539+0xd67>
   14edb:	48 89 c7             	mov    %rax,%rdi
   14ede:	e8 10 48 ff ff       	callq  96f3 <transparent_crc>
   14ee3:	0f b7 05 b6 a7 00 00 	movzwl 0xa7b6(%rip),%eax        # 1f6a0 <g_1019>
   14eea:	c1 e0 04             	shl    $0x4,%eax
   14eed:	66 c1 f8 04          	sar    $0x4,%ax
   14ef1:	48 0f bf c0          	movswq %ax,%rax
   14ef5:	8b 55 f4             	mov    -0xc(%rbp),%edx
   14ef8:	48 8d 35 b2 48 00 00 	lea    0x48b2(%rip),%rsi        # 197b1 <g_2539+0xd71>
   14eff:	48 89 c7             	mov    %rax,%rdi
   14f02:	e8 ec 47 ff ff       	callq  96f3 <transparent_crc>
   14f07:	8b 05 93 a7 00 00    	mov    0xa793(%rip),%eax        # 1f6a0 <g_1019>
   14f0d:	c1 e8 0c             	shr    $0xc,%eax
   14f10:	25 ff ff 01 00       	and    $0x1ffff,%eax
   14f15:	89 c1                	mov    %eax,%ecx
   14f17:	8b 45 f4             	mov    -0xc(%rbp),%eax
   14f1a:	89 c2                	mov    %eax,%edx
   14f1c:	48 8d 35 98 48 00 00 	lea    0x4898(%rip),%rsi        # 197bb <g_2539+0xd7b>
   14f23:	48 89 cf             	mov    %rcx,%rdi
   14f26:	e8 c8 47 ff ff       	callq  96f3 <transparent_crc>
   14f2b:	0f b7 05 72 a7 00 00 	movzwl 0xa772(%rip),%eax        # 1f6a4 <g_1019+0x4>
   14f32:	0f b7 c0             	movzwl %ax,%eax
   14f35:	8b 55 f4             	mov    -0xc(%rbp),%edx
   14f38:	48 8d 35 86 48 00 00 	lea    0x4886(%rip),%rsi        # 197c5 <g_2539+0xd85>
   14f3f:	48 89 c7             	mov    %rax,%rdi
   14f42:	e8 ac 47 ff ff       	callq  96f3 <transparent_crc>
   14f47:	48 8b 05 52 a7 00 00 	mov    0xa752(%rip),%rax        # 1f6a0 <g_1019>
   14f4e:	48 c1 e0 06          	shl    $0x6,%rax
   14f52:	48 c1 f8 36          	sar    $0x36,%rax
   14f56:	48 0f bf c0          	movswq %ax,%rax
   14f5a:	8b 55 f4             	mov    -0xc(%rbp),%edx
   14f5d:	48 8d 35 6b 48 00 00 	lea    0x486b(%rip),%rsi        # 197cf <g_2539+0xd8f>
   14f64:	48 89 c7             	mov    %rax,%rdi
   14f67:	e8 87 47 ff ff       	callq  96f3 <transparent_crc>
   14f6c:	0f b7 05 35 a7 00 00 	movzwl 0xa735(%rip),%eax        # 1f6a8 <g_1020>
   14f73:	c1 e0 04             	shl    $0x4,%eax
   14f76:	66 c1 f8 04          	sar    $0x4,%ax
   14f7a:	48 0f bf c0          	movswq %ax,%rax
   14f7e:	8b 55 f4             	mov    -0xc(%rbp),%edx
   14f81:	48 8d 35 51 48 00 00 	lea    0x4851(%rip),%rsi        # 197d9 <g_2539+0xd99>
   14f88:	48 89 c7             	mov    %rax,%rdi
   14f8b:	e8 63 47 ff ff       	callq  96f3 <transparent_crc>
   14f90:	8b 05 12 a7 00 00    	mov    0xa712(%rip),%eax        # 1f6a8 <g_1020>
   14f96:	c1 e8 0c             	shr    $0xc,%eax
   14f99:	25 ff ff 01 00       	and    $0x1ffff,%eax
   14f9e:	89 c1                	mov    %eax,%ecx
   14fa0:	8b 45 f4             	mov    -0xc(%rbp),%eax
   14fa3:	89 c2                	mov    %eax,%edx
   14fa5:	48 8d 35 37 48 00 00 	lea    0x4837(%rip),%rsi        # 197e3 <g_2539+0xda3>
   14fac:	48 89 cf             	mov    %rcx,%rdi
   14faf:	e8 3f 47 ff ff       	callq  96f3 <transparent_crc>
   14fb4:	0f b7 05 f1 a6 00 00 	movzwl 0xa6f1(%rip),%eax        # 1f6ac <g_1020+0x4>
   14fbb:	0f b7 c0             	movzwl %ax,%eax
   14fbe:	8b 55 f4             	mov    -0xc(%rbp),%edx
   14fc1:	48 8d 35 25 48 00 00 	lea    0x4825(%rip),%rsi        # 197ed <g_2539+0xdad>
   14fc8:	48 89 c7             	mov    %rax,%rdi
   14fcb:	e8 23 47 ff ff       	callq  96f3 <transparent_crc>
   14fd0:	48 8b 05 d1 a6 00 00 	mov    0xa6d1(%rip),%rax        # 1f6a8 <g_1020>
   14fd7:	48 c1 e0 06          	shl    $0x6,%rax
   14fdb:	48 c1 f8 36          	sar    $0x36,%rax
   14fdf:	48 0f bf c0          	movswq %ax,%rax
   14fe3:	8b 55 f4             	mov    -0xc(%rbp),%edx
   14fe6:	48 8d 35 0a 48 00 00 	lea    0x480a(%rip),%rsi        # 197f7 <g_2539+0xdb7>
   14fed:	48 89 c7             	mov    %rax,%rdi
   14ff0:	e8 fe 46 ff ff       	callq  96f3 <transparent_crc>
   14ff5:	c7 45 e8 00 00 00 00 	movl   $0x0,-0x18(%rbp)
   14ffc:	e9 0a 04 00 00       	jmpq   1540b <main+0x227b>
   15001:	c7 45 ec 00 00 00 00 	movl   $0x0,-0x14(%rbp)
   15008:	e9 f0 03 00 00       	jmpq   153fd <main+0x226d>
   1500d:	c7 45 f0 00 00 00 00 	movl   $0x0,-0x10(%rbp)
   15014:	e9 d6 03 00 00       	jmpq   153ef <main+0x225f>
   15019:	8b 45 f0             	mov    -0x10(%rbp),%eax
   1501c:	48 63 d0             	movslq %eax,%rdx
   1501f:	8b 45 ec             	mov    -0x14(%rbp),%eax
   15022:	48 63 f0             	movslq %eax,%rsi
   15025:	8b 45 e8             	mov    -0x18(%rbp),%eax
   15028:	48 63 c8             	movslq %eax,%rcx
   1502b:	48 89 d0             	mov    %rdx,%rax
   1502e:	48 c1 e0 02          	shl    $0x2,%rax
   15032:	48 01 d0             	add    %rdx,%rax
   15035:	48 c1 e0 03          	shl    $0x3,%rax
   15039:	48 89 f2             	mov    %rsi,%rdx
   1503c:	48 c1 e2 04          	shl    $0x4,%rdx
   15040:	48 29 f2             	sub    %rsi,%rdx
   15043:	48 c1 e2 03          	shl    $0x3,%rdx
   15047:	48 01 c2             	add    %rax,%rdx
   1504a:	48 89 c8             	mov    %rcx,%rax
   1504d:	48 c1 e0 04          	shl    $0x4,%rax
   15051:	48 29 c8             	sub    %rcx,%rax
   15054:	48 c1 e0 06          	shl    $0x6,%rax
   15058:	48 01 c2             	add    %rax,%rdx
   1505b:	48 8d 05 5e a6 00 00 	lea    0xa65e(%rip),%rax        # 1f6c0 <g_1216>
   15062:	48 01 d0             	add    %rdx,%rax
   15065:	8b 00                	mov    (%rax),%eax
   15067:	c1 e0 03             	shl    $0x3,%eax
   1506a:	c1 f8 03             	sar    $0x3,%eax
   1506d:	48 98                	cltq   
   1506f:	8b 55 f4             	mov    -0xc(%rbp),%edx
   15072:	48 8d 35 88 47 00 00 	lea    0x4788(%rip),%rsi        # 19801 <g_2539+0xdc1>
   15079:	48 89 c7             	mov    %rax,%rdi
   1507c:	e8 72 46 ff ff       	callq  96f3 <transparent_crc>
   15081:	8b 45 f0             	mov    -0x10(%rbp),%eax
   15084:	48 63 d0             	movslq %eax,%rdx
   15087:	8b 45 ec             	mov    -0x14(%rbp),%eax
   1508a:	48 63 f0             	movslq %eax,%rsi
   1508d:	8b 45 e8             	mov    -0x18(%rbp),%eax
   15090:	48 63 c8             	movslq %eax,%rcx
   15093:	48 89 d0             	mov    %rdx,%rax
   15096:	48 c1 e0 02          	shl    $0x2,%rax
   1509a:	48 01 d0             	add    %rdx,%rax
   1509d:	48 c1 e0 03          	shl    $0x3,%rax
   150a1:	48 89 f2             	mov    %rsi,%rdx
   150a4:	48 c1 e2 04          	shl    $0x4,%rdx
   150a8:	48 29 f2             	sub    %rsi,%rdx
   150ab:	48 c1 e2 03          	shl    $0x3,%rdx
   150af:	48 01 c2             	add    %rax,%rdx
   150b2:	48 89 c8             	mov    %rcx,%rax
   150b5:	48 c1 e0 04          	shl    $0x4,%rax
   150b9:	48 29 c8             	sub    %rcx,%rax
   150bc:	48 c1 e0 06          	shl    $0x6,%rax
   150c0:	48 01 c2             	add    %rax,%rdx
   150c3:	48 8d 05 fe a5 00 00 	lea    0xa5fe(%rip),%rax        # 1f6c8 <g_1216+0x8>
   150ca:	48 01 d0             	add    %rdx,%rax
   150cd:	48 8b 00             	mov    (%rax),%rax
   150d0:	48 89 c1             	mov    %rax,%rcx
   150d3:	8b 45 f4             	mov    -0xc(%rbp),%eax
   150d6:	89 c2                	mov    %eax,%edx
   150d8:	48 8d 35 35 47 00 00 	lea    0x4735(%rip),%rsi        # 19814 <g_2539+0xdd4>
   150df:	48 89 cf             	mov    %rcx,%rdi
   150e2:	e8 0c 46 ff ff       	callq  96f3 <transparent_crc>
   150e7:	8b 45 f0             	mov    -0x10(%rbp),%eax
   150ea:	48 63 d0             	movslq %eax,%rdx
   150ed:	8b 45 ec             	mov    -0x14(%rbp),%eax
   150f0:	48 63 c8             	movslq %eax,%rcx
   150f3:	8b 45 e8             	mov    -0x18(%rbp),%eax
   150f6:	48 63 f0             	movslq %eax,%rsi
   150f9:	48 89 d0             	mov    %rdx,%rax
   150fc:	48 c1 e0 02          	shl    $0x2,%rax
   15100:	48 01 d0             	add    %rdx,%rax
   15103:	48 c1 e0 03          	shl    $0x3,%rax
   15107:	48 89 f2             	mov    %rsi,%rdx
   1510a:	48 c1 e2 04          	shl    $0x4,%rdx
   1510e:	48 29 f2             	sub    %rsi,%rdx
   15111:	48 c1 e2 06          	shl    $0x6,%rdx
   15115:	48 01 c2             	add    %rax,%rdx
   15118:	48 89 c8             	mov    %rcx,%rax
   1511b:	48 c1 e0 04          	shl    $0x4,%rax
   1511f:	48 29 c8             	sub    %rcx,%rax
   15122:	48 c1 e0 03          	shl    $0x3,%rax
   15126:	48 01 c2             	add    %rax,%rdx
   15129:	48 8d 05 a0 a5 00 00 	lea    0xa5a0(%rip),%rax        # 1f6d0 <g_1216+0x10>
   15130:	48 01 d0             	add    %rdx,%rax
   15133:	0f b6 00             	movzbl (%rax),%eax
   15136:	83 e0 0f             	and    $0xf,%eax
   15139:	0f b6 c0             	movzbl %al,%eax
   1513c:	8b 55 f4             	mov    -0xc(%rbp),%edx
   1513f:	48 8d 35 e1 46 00 00 	lea    0x46e1(%rip),%rsi        # 19827 <g_2539+0xde7>
   15146:	48 89 c7             	mov    %rax,%rdi
   15149:	e8 a5 45 ff ff       	callq  96f3 <transparent_crc>
   1514e:	8b 45 f0             	mov    -0x10(%rbp),%eax
   15151:	48 63 d0             	movslq %eax,%rdx
   15154:	8b 45 ec             	mov    -0x14(%rbp),%eax
   15157:	48 63 c8             	movslq %eax,%rcx
   1515a:	8b 45 e8             	mov    -0x18(%rbp),%eax
   1515d:	48 63 f0             	movslq %eax,%rsi
   15160:	48 89 d0             	mov    %rdx,%rax
   15163:	48 c1 e0 02          	shl    $0x2,%rax
   15167:	48 01 d0             	add    %rdx,%rax
   1516a:	48 c1 e0 03          	shl    $0x3,%rax
   1516e:	48 89 f2             	mov    %rsi,%rdx
   15171:	48 c1 e2 04          	shl    $0x4,%rdx
   15175:	48 29 f2             	sub    %rsi,%rdx
   15178:	48 c1 e2 06          	shl    $0x6,%rdx
   1517c:	48 01 c2             	add    %rax,%rdx
   1517f:	48 89 c8             	mov    %rcx,%rax
   15182:	48 c1 e0 04          	shl    $0x4,%rax
   15186:	48 29 c8             	sub    %rcx,%rax
   15189:	48 c1 e0 03          	shl    $0x3,%rax
   1518d:	48 01 c2             	add    %rax,%rdx
   15190:	48 8d 05 39 a5 00 00 	lea    0xa539(%rip),%rax        # 1f6d0 <g_1216+0x10>
   15197:	48 01 d0             	add    %rdx,%rax
   1519a:	8b 00                	mov    (%rax),%eax
   1519c:	01 c0                	add    %eax,%eax
   1519e:	c1 f8 05             	sar    $0x5,%eax
   151a1:	48 98                	cltq   
   151a3:	8b 55 f4             	mov    -0xc(%rbp),%edx
   151a6:	48 8d 35 8d 46 00 00 	lea    0x468d(%rip),%rsi        # 1983a <g_2539+0xdfa>
   151ad:	48 89 c7             	mov    %rax,%rdi
   151b0:	e8 3e 45 ff ff       	callq  96f3 <transparent_crc>
   151b5:	8b 45 f0             	mov    -0x10(%rbp),%eax
   151b8:	48 63 d0             	movslq %eax,%rdx
   151bb:	8b 45 ec             	mov    -0x14(%rbp),%eax
   151be:	48 63 c8             	movslq %eax,%rcx
   151c1:	8b 45 e8             	mov    -0x18(%rbp),%eax
   151c4:	48 63 f0             	movslq %eax,%rsi
   151c7:	48 89 d0             	mov    %rdx,%rax
   151ca:	48 c1 e0 02          	shl    $0x2,%rax
   151ce:	48 01 d0             	add    %rdx,%rax
   151d1:	48 c1 e0 03          	shl    $0x3,%rax
   151d5:	48 89 f2             	mov    %rsi,%rdx
   151d8:	48 c1 e2 04          	shl    $0x4,%rdx
   151dc:	48 29 f2             	sub    %rsi,%rdx
   151df:	48 c1 e2 06          	shl    $0x6,%rdx
   151e3:	48 01 c2             	add    %rax,%rdx
   151e6:	48 89 c8             	mov    %rcx,%rax
   151e9:	48 c1 e0 04          	shl    $0x4,%rax
   151ed:	48 29 c8             	sub    %rcx,%rax
   151f0:	48 c1 e0 03          	shl    $0x3,%rax
   151f4:	48 01 c2             	add    %rax,%rdx
   151f7:	48 8d 05 d2 a4 00 00 	lea    0xa4d2(%rip),%rax        # 1f6d0 <g_1216+0x10>
   151fe:	48 01 d0             	add    %rdx,%rax
   15201:	48 8b 00             	mov    (%rax),%rax
   15204:	48 c1 e0 03          	shl    $0x3,%rax
   15208:	48 c1 f8 23          	sar    $0x23,%rax
   1520c:	48 98                	cltq   
   1520e:	8b 55 f4             	mov    -0xc(%rbp),%edx
   15211:	48 8d 35 35 46 00 00 	lea    0x4635(%rip),%rsi        # 1984d <g_2539+0xe0d>
   15218:	48 89 c7             	mov    %rax,%rdi
   1521b:	e8 d3 44 ff ff       	callq  96f3 <transparent_crc>
   15220:	8b 45 f0             	mov    -0x10(%rbp),%eax
   15223:	48 63 d0             	movslq %eax,%rdx
   15226:	8b 45 ec             	mov    -0x14(%rbp),%eax
   15229:	48 63 c8             	movslq %eax,%rcx
   1522c:	8b 45 e8             	mov    -0x18(%rbp),%eax
   1522f:	48 63 f0             	movslq %eax,%rsi
   15232:	48 89 d0             	mov    %rdx,%rax
   15235:	48 c1 e0 02          	shl    $0x2,%rax
   15239:	48 01 d0             	add    %rdx,%rax
   1523c:	48 c1 e0 03          	shl    $0x3,%rax
   15240:	48 89 f2             	mov    %rsi,%rdx
   15243:	48 c1 e2 04          	shl    $0x4,%rdx
   15247:	48 29 f2             	sub    %rsi,%rdx
   1524a:	48 c1 e2 06          	shl    $0x6,%rdx
   1524e:	48 01 c2             	add    %rax,%rdx
   15251:	48 89 c8             	mov    %rcx,%rax
   15254:	48 c1 e0 04          	shl    $0x4,%rax
   15258:	48 29 c8             	sub    %rcx,%rax
   1525b:	48 c1 e0 03          	shl    $0x3,%rax
   1525f:	48 01 c2             	add    %rax,%rdx
   15262:	48 8d 05 67 a4 00 00 	lea    0xa467(%rip),%rax        # 1f6d0 <g_1216+0x10>
   15269:	48 01 d0             	add    %rdx,%rax
   1526c:	0f b7 40 08          	movzwl 0x8(%rax),%eax
   15270:	66 25 ff 0f          	and    $0xfff,%ax
   15274:	0f b7 c0             	movzwl %ax,%eax
   15277:	8b 55 f4             	mov    -0xc(%rbp),%edx
   1527a:	48 8d 35 df 45 00 00 	lea    0x45df(%rip),%rsi        # 19860 <g_2539+0xe20>
   15281:	48 89 c7             	mov    %rax,%rdi
   15284:	e8 6a 44 ff ff       	callq  96f3 <transparent_crc>
   15289:	8b 45 f0             	mov    -0x10(%rbp),%eax
   1528c:	48 63 d0             	movslq %eax,%rdx
   1528f:	8b 45 ec             	mov    -0x14(%rbp),%eax
   15292:	48 63 c8             	movslq %eax,%rcx
   15295:	8b 45 e8             	mov    -0x18(%rbp),%eax
   15298:	48 63 f0             	movslq %eax,%rsi
   1529b:	48 89 d0             	mov    %rdx,%rax
   1529e:	48 c1 e0 02          	shl    $0x2,%rax
   152a2:	48 01 d0             	add    %rdx,%rax
   152a5:	48 c1 e0 03          	shl    $0x3,%rax
   152a9:	48 89 f2             	mov    %rsi,%rdx
   152ac:	48 c1 e2 04          	shl    $0x4,%rdx
   152b0:	48 29 f2             	sub    %rsi,%rdx
   152b3:	48 c1 e2 06          	shl    $0x6,%rdx
   152b7:	48 01 c2             	add    %rax,%rdx
   152ba:	48 89 c8             	mov    %rcx,%rax
   152bd:	48 c1 e0 04          	shl    $0x4,%rax
   152c1:	48 29 c8             	sub    %rcx,%rax
   152c4:	48 c1 e0 03          	shl    $0x3,%rax
   152c8:	48 01 c2             	add    %rax,%rdx
   152cb:	48 8d 05 fe a3 00 00 	lea    0xa3fe(%rip),%rax        # 1f6d0 <g_1216+0x10>
   152d2:	48 01 d0             	add    %rdx,%rax
   152d5:	8b 40 0c             	mov    0xc(%rax),%eax
   152d8:	25 ff ff 3f 00       	and    $0x3fffff,%eax
   152dd:	89 c1                	mov    %eax,%ecx
   152df:	8b 45 f4             	mov    -0xc(%rbp),%eax
   152e2:	89 c2                	mov    %eax,%edx
   152e4:	48 8d 35 88 45 00 00 	lea    0x4588(%rip),%rsi        # 19873 <g_2539+0xe33>
   152eb:	48 89 cf             	mov    %rcx,%rdi
   152ee:	e8 00 44 ff ff       	callq  96f3 <transparent_crc>
   152f3:	8b 45 f0             	mov    -0x10(%rbp),%eax
   152f6:	48 63 d0             	movslq %eax,%rdx
   152f9:	8b 45 ec             	mov    -0x14(%rbp),%eax
   152fc:	48 63 c8             	movslq %eax,%rcx
   152ff:	8b 45 e8             	mov    -0x18(%rbp),%eax
   15302:	48 63 f0             	movslq %eax,%rsi
   15305:	48 89 d0             	mov    %rdx,%rax
   15308:	48 c1 e0 02          	shl    $0x2,%rax
   1530c:	48 01 d0             	add    %rdx,%rax
   1530f:	48 c1 e0 03          	shl    $0x3,%rax
   15313:	48 89 f2             	mov    %rsi,%rdx
   15316:	48 c1 e2 04          	shl    $0x4,%rdx
   1531a:	48 29 f2             	sub    %rsi,%rdx
   1531d:	48 c1 e2 06          	shl    $0x6,%rdx
   15321:	48 01 c2             	add    %rax,%rdx
   15324:	48 89 c8             	mov    %rcx,%rax
   15327:	48 c1 e0 04          	shl    $0x4,%rax
   1532b:	48 29 c8             	sub    %rcx,%rax
   1532e:	48 c1 e0 03          	shl    $0x3,%rax
   15332:	48 01 c2             	add    %rax,%rdx
   15335:	48 8d 05 a4 a3 00 00 	lea    0xa3a4(%rip),%rax        # 1f6e0 <g_1216+0x20>
   1533c:	48 01 d0             	add    %rdx,%rax
   1533f:	0f b7 00             	movzwl (%rax),%eax
   15342:	c1 e0 03             	shl    $0x3,%eax
   15345:	66 c1 f8 03          	sar    $0x3,%ax
   15349:	48 0f bf c0          	movswq %ax,%rax
   1534d:	8b 55 f4             	mov    -0xc(%rbp),%edx
   15350:	48 8d 35 2f 45 00 00 	lea    0x452f(%rip),%rsi        # 19886 <g_2539+0xe46>
   15357:	48 89 c7             	mov    %rax,%rdi
   1535a:	e8 94 43 ff ff       	callq  96f3 <transparent_crc>
   1535f:	8b 45 f0             	mov    -0x10(%rbp),%eax
   15362:	48 63 d0             	movslq %eax,%rdx
   15365:	8b 45 ec             	mov    -0x14(%rbp),%eax
   15368:	48 63 c8             	movslq %eax,%rcx
   1536b:	8b 45 e8             	mov    -0x18(%rbp),%eax
   1536e:	48 63 f0             	movslq %eax,%rsi
   15371:	48 89 d0             	mov    %rdx,%rax
   15374:	48 c1 e0 02          	shl    $0x2,%rax
   15378:	48 01 d0             	add    %rdx,%rax
   1537b:	48 c1 e0 03          	shl    $0x3,%rax
   1537f:	48 89 f2             	mov    %rsi,%rdx
   15382:	48 c1 e2 04          	shl    $0x4,%rdx
   15386:	48 29 f2             	sub    %rsi,%rdx
   15389:	48 c1 e2 06          	shl    $0x6,%rdx
   1538d:	48 01 c2             	add    %rax,%rdx
   15390:	48 89 c8             	mov    %rcx,%rax
   15393:	48 c1 e0 04          	shl    $0x4,%rax
   15397:	48 29 c8             	sub    %rcx,%rax
   1539a:	48 c1 e0 03          	shl    $0x3,%rax
   1539e:	48 01 c2             	add    %rax,%rdx
   153a1:	48 8d 05 38 a3 00 00 	lea    0xa338(%rip),%rax        # 1f6e0 <g_1216+0x20>
   153a8:	48 01 d0             	add    %rdx,%rax
   153ab:	8b 40 04             	mov    0x4(%rax),%eax
   153ae:	25 ff ff ff 7f       	and    $0x7fffffff,%eax
   153b3:	89 c1                	mov    %eax,%ecx
   153b5:	8b 45 f4             	mov    -0xc(%rbp),%eax
   153b8:	89 c2                	mov    %eax,%edx
   153ba:	48 8d 35 d8 44 00 00 	lea    0x44d8(%rip),%rsi        # 19899 <g_2539+0xe59>
   153c1:	48 89 cf             	mov    %rcx,%rdi
   153c4:	e8 2a 43 ff ff       	callq  96f3 <transparent_crc>
   153c9:	83 7d f4 00          	cmpl   $0x0,-0xc(%rbp)
   153cd:	74 1c                	je     153eb <main+0x225b>
   153cf:	8b 4d f0             	mov    -0x10(%rbp),%ecx
   153d2:	8b 55 ec             	mov    -0x14(%rbp),%edx
   153d5:	8b 45 e8             	mov    -0x18(%rbp),%eax
   153d8:	89 c6                	mov    %eax,%esi
   153da:	48 8d 3d 35 3e 00 00 	lea    0x3e35(%rip),%rdi        # 19216 <g_2539+0x7d6>
   153e1:	b8 00 00 00 00       	mov    $0x0,%eax
   153e6:	e8 95 2c ff ff       	callq  8080 <printf@plt>
   153eb:	83 45 f0 01          	addl   $0x1,-0x10(%rbp)
   153ef:	83 7d f0 02          	cmpl   $0x2,-0x10(%rbp)
   153f3:	0f 8e 20 fc ff ff    	jle    15019 <main+0x1e89>
   153f9:	83 45 ec 01          	addl   $0x1,-0x14(%rbp)
   153fd:	83 7d ec 07          	cmpl   $0x7,-0x14(%rbp)
   15401:	0f 8e 06 fc ff ff    	jle    1500d <main+0x1e7d>
   15407:	83 45 e8 01          	addl   $0x1,-0x18(%rbp)
   1540b:	83 7d e8 08          	cmpl   $0x8,-0x18(%rbp)
   1540f:	0f 8e ec fb ff ff    	jle    15001 <main+0x1e71>
   15415:	8b 05 65 c4 00 00    	mov    0xc465(%rip),%eax        # 21880 <g_1217>
   1541b:	c1 e0 03             	shl    $0x3,%eax
   1541e:	c1 f8 03             	sar    $0x3,%eax
   15421:	48 98                	cltq   
   15423:	8b 55 f4             	mov    -0xc(%rbp),%edx
   15426:	48 8d 35 7f 44 00 00 	lea    0x447f(%rip),%rsi        # 198ac <g_2539+0xe6c>
   1542d:	48 89 c7             	mov    %rax,%rdi
   15430:	e8 be 42 ff ff       	callq  96f3 <transparent_crc>
   15435:	48 8b 05 4c c4 00 00 	mov    0xc44c(%rip),%rax        # 21888 <g_1217+0x8>
   1543c:	48 89 c1             	mov    %rax,%rcx
   1543f:	8b 45 f4             	mov    -0xc(%rbp),%eax
   15442:	89 c2                	mov    %eax,%edx
   15444:	48 8d 35 6b 44 00 00 	lea    0x446b(%rip),%rsi        # 198b6 <g_2539+0xe76>
   1544b:	48 89 cf             	mov    %rcx,%rdi
   1544e:	e8 a0 42 ff ff       	callq  96f3 <transparent_crc>
   15453:	0f b6 05 36 c4 00 00 	movzbl 0xc436(%rip),%eax        # 21890 <g_1217+0x10>
   1545a:	83 e0 0f             	and    $0xf,%eax
   1545d:	0f b6 c0             	movzbl %al,%eax
   15460:	8b 55 f4             	mov    -0xc(%rbp),%edx
   15463:	48 8d 35 56 44 00 00 	lea    0x4456(%rip),%rsi        # 198c0 <g_2539+0xe80>
   1546a:	48 89 c7             	mov    %rax,%rdi
   1546d:	e8 81 42 ff ff       	callq  96f3 <transparent_crc>
   15472:	8b 05 18 c4 00 00    	mov    0xc418(%rip),%eax        # 21890 <g_1217+0x10>
   15478:	01 c0                	add    %eax,%eax
   1547a:	c1 f8 05             	sar    $0x5,%eax
   1547d:	48 98                	cltq   
   1547f:	8b 55 f4             	mov    -0xc(%rbp),%edx
   15482:	48 8d 35 41 44 00 00 	lea    0x4441(%rip),%rsi        # 198ca <g_2539+0xe8a>
   15489:	48 89 c7             	mov    %rax,%rdi
   1548c:	e8 62 42 ff ff       	callq  96f3 <transparent_crc>
   15491:	48 8b 05 f8 c3 00 00 	mov    0xc3f8(%rip),%rax        # 21890 <g_1217+0x10>
   15498:	48 c1 e0 03          	shl    $0x3,%rax
   1549c:	48 c1 f8 23          	sar    $0x23,%rax
   154a0:	48 98                	cltq   
   154a2:	8b 55 f4             	mov    -0xc(%rbp),%edx
   154a5:	48 8d 35 28 44 00 00 	lea    0x4428(%rip),%rsi        # 198d4 <g_2539+0xe94>
   154ac:	48 89 c7             	mov    %rax,%rdi
   154af:	e8 3f 42 ff ff       	callq  96f3 <transparent_crc>
   154b4:	0f b7 05 dd c3 00 00 	movzwl 0xc3dd(%rip),%eax        # 21898 <g_1217+0x18>
   154bb:	66 25 ff 0f          	and    $0xfff,%ax
   154bf:	0f b7 c0             	movzwl %ax,%eax
   154c2:	8b 55 f4             	mov    -0xc(%rbp),%edx
   154c5:	48 8d 35 12 44 00 00 	lea    0x4412(%rip),%rsi        # 198de <g_2539+0xe9e>
   154cc:	48 89 c7             	mov    %rax,%rdi
   154cf:	e8 1f 42 ff ff       	callq  96f3 <transparent_crc>
   154d4:	8b 05 c2 c3 00 00    	mov    0xc3c2(%rip),%eax        # 2189c <g_1217+0x1c>
   154da:	25 ff ff 3f 00       	and    $0x3fffff,%eax
   154df:	89 c1                	mov    %eax,%ecx
   154e1:	8b 45 f4             	mov    -0xc(%rbp),%eax
   154e4:	89 c2                	mov    %eax,%edx
   154e6:	48 8d 35 fb 43 00 00 	lea    0x43fb(%rip),%rsi        # 198e8 <g_2539+0xea8>
   154ed:	48 89 cf             	mov    %rcx,%rdi
   154f0:	e8 fe 41 ff ff       	callq  96f3 <transparent_crc>
   154f5:	0f b7 05 a4 c3 00 00 	movzwl 0xc3a4(%rip),%eax        # 218a0 <g_1217+0x20>
   154fc:	c1 e0 03             	shl    $0x3,%eax
   154ff:	66 c1 f8 03          	sar    $0x3,%ax
   15503:	48 0f bf c0          	movswq %ax,%rax
   15507:	8b 55 f4             	mov    -0xc(%rbp),%edx
   1550a:	48 8d 35 e1 43 00 00 	lea    0x43e1(%rip),%rsi        # 198f2 <g_2539+0xeb2>
   15511:	48 89 c7             	mov    %rax,%rdi
   15514:	e8 da 41 ff ff       	callq  96f3 <transparent_crc>
   15519:	8b 05 85 c3 00 00    	mov    0xc385(%rip),%eax        # 218a4 <g_1217+0x24>
   1551f:	25 ff ff ff 7f       	and    $0x7fffffff,%eax
   15524:	89 c1                	mov    %eax,%ecx
   15526:	8b 45 f4             	mov    -0xc(%rbp),%eax
   15529:	89 c2                	mov    %eax,%edx
   1552b:	48 8d 35 ca 43 00 00 	lea    0x43ca(%rip),%rsi        # 198fc <g_2539+0xebc>
   15532:	48 89 cf             	mov    %rcx,%rdi
   15535:	e8 b9 41 ff ff       	callq  96f3 <transparent_crc>
   1553a:	8b 05 80 c3 00 00    	mov    0xc380(%rip),%eax        # 218c0 <g_1218>
   15540:	c1 e0 03             	shl    $0x3,%eax
   15543:	c1 f8 03             	sar    $0x3,%eax
   15546:	48 98                	cltq   
   15548:	8b 55 f4             	mov    -0xc(%rbp),%edx
   1554b:	48 8d 35 b4 43 00 00 	lea    0x43b4(%rip),%rsi        # 19906 <g_2539+0xec6>
   15552:	48 89 c7             	mov    %rax,%rdi
   15555:	e8 99 41 ff ff       	callq  96f3 <transparent_crc>
   1555a:	48 8b 05 67 c3 00 00 	mov    0xc367(%rip),%rax        # 218c8 <g_1218+0x8>
   15561:	48 89 c1             	mov    %rax,%rcx
   15564:	8b 45 f4             	mov    -0xc(%rbp),%eax
   15567:	89 c2                	mov    %eax,%edx
   15569:	48 8d 35 a0 43 00 00 	lea    0x43a0(%rip),%rsi        # 19910 <g_2539+0xed0>
   15570:	48 89 cf             	mov    %rcx,%rdi
   15573:	e8 7b 41 ff ff       	callq  96f3 <transparent_crc>
   15578:	0f b6 05 51 c3 00 00 	movzbl 0xc351(%rip),%eax        # 218d0 <g_1218+0x10>
   1557f:	83 e0 0f             	and    $0xf,%eax
   15582:	0f b6 c0             	movzbl %al,%eax
   15585:	8b 55 f4             	mov    -0xc(%rbp),%edx
   15588:	48 8d 35 8b 43 00 00 	lea    0x438b(%rip),%rsi        # 1991a <g_2539+0xeda>
   1558f:	48 89 c7             	mov    %rax,%rdi
   15592:	e8 5c 41 ff ff       	callq  96f3 <transparent_crc>
   15597:	8b 05 33 c3 00 00    	mov    0xc333(%rip),%eax        # 218d0 <g_1218+0x10>
   1559d:	01 c0                	add    %eax,%eax
   1559f:	c1 f8 05             	sar    $0x5,%eax
   155a2:	48 98                	cltq   
   155a4:	8b 55 f4             	mov    -0xc(%rbp),%edx
   155a7:	48 8d 35 76 43 00 00 	lea    0x4376(%rip),%rsi        # 19924 <g_2539+0xee4>
   155ae:	48 89 c7             	mov    %rax,%rdi
   155b1:	e8 3d 41 ff ff       	callq  96f3 <transparent_crc>
   155b6:	48 8b 05 13 c3 00 00 	mov    0xc313(%rip),%rax        # 218d0 <g_1218+0x10>
   155bd:	48 c1 e0 03          	shl    $0x3,%rax
   155c1:	48 c1 f8 23          	sar    $0x23,%rax
   155c5:	48 98                	cltq   
   155c7:	8b 55 f4             	mov    -0xc(%rbp),%edx
   155ca:	48 8d 35 5d 43 00 00 	lea    0x435d(%rip),%rsi        # 1992e <g_2539+0xeee>
   155d1:	48 89 c7             	mov    %rax,%rdi
   155d4:	e8 1a 41 ff ff       	callq  96f3 <transparent_crc>
   155d9:	0f b7 05 f8 c2 00 00 	movzwl 0xc2f8(%rip),%eax        # 218d8 <g_1218+0x18>
   155e0:	66 25 ff 0f          	and    $0xfff,%ax
   155e4:	0f b7 c0             	movzwl %ax,%eax
   155e7:	8b 55 f4             	mov    -0xc(%rbp),%edx
   155ea:	48 8d 35 47 43 00 00 	lea    0x4347(%rip),%rsi        # 19938 <g_2539+0xef8>
   155f1:	48 89 c7             	mov    %rax,%rdi
   155f4:	e8 fa 40 ff ff       	callq  96f3 <transparent_crc>
   155f9:	8b 05 dd c2 00 00    	mov    0xc2dd(%rip),%eax        # 218dc <g_1218+0x1c>
   155ff:	25 ff ff 3f 00       	and    $0x3fffff,%eax
   15604:	89 c1                	mov    %eax,%ecx
   15606:	8b 45 f4             	mov    -0xc(%rbp),%eax
   15609:	89 c2                	mov    %eax,%edx
   1560b:	48 8d 35 30 43 00 00 	lea    0x4330(%rip),%rsi        # 19942 <g_2539+0xf02>
   15612:	48 89 cf             	mov    %rcx,%rdi
   15615:	e8 d9 40 ff ff       	callq  96f3 <transparent_crc>
   1561a:	0f b7 05 bf c2 00 00 	movzwl 0xc2bf(%rip),%eax        # 218e0 <g_1218+0x20>
   15621:	c1 e0 03             	shl    $0x3,%eax
   15624:	66 c1 f8 03          	sar    $0x3,%ax
   15628:	48 0f bf c0          	movswq %ax,%rax
   1562c:	8b 55 f4             	mov    -0xc(%rbp),%edx
   1562f:	48 8d 35 16 43 00 00 	lea    0x4316(%rip),%rsi        # 1994c <g_2539+0xf0c>
   15636:	48 89 c7             	mov    %rax,%rdi
   15639:	e8 b5 40 ff ff       	callq  96f3 <transparent_crc>
   1563e:	8b 05 a0 c2 00 00    	mov    0xc2a0(%rip),%eax        # 218e4 <g_1218+0x24>
   15644:	25 ff ff ff 7f       	and    $0x7fffffff,%eax
   15649:	89 c1                	mov    %eax,%ecx
   1564b:	8b 45 f4             	mov    -0xc(%rbp),%eax
   1564e:	89 c2                	mov    %eax,%edx
   15650:	48 8d 35 ff 42 00 00 	lea    0x42ff(%rip),%rsi        # 19956 <g_2539+0xf16>
   15657:	48 89 cf             	mov    %rcx,%rdi
   1565a:	e8 94 40 ff ff       	callq  96f3 <transparent_crc>
   1565f:	0f b7 05 82 c2 00 00 	movzwl 0xc282(%rip),%eax        # 218e8 <g_1321>
   15666:	c1 e0 04             	shl    $0x4,%eax
   15669:	66 c1 f8 04          	sar    $0x4,%ax
   1566d:	48 0f bf c0          	movswq %ax,%rax
   15671:	8b 55 f4             	mov    -0xc(%rbp),%edx
   15674:	48 8d 35 e5 42 00 00 	lea    0x42e5(%rip),%rsi        # 19960 <g_2539+0xf20>
   1567b:	48 89 c7             	mov    %rax,%rdi
   1567e:	e8 70 40 ff ff       	callq  96f3 <transparent_crc>
   15683:	8b 05 5f c2 00 00    	mov    0xc25f(%rip),%eax        # 218e8 <g_1321>
   15689:	c1 e8 0c             	shr    $0xc,%eax
   1568c:	25 ff ff 01 00       	and    $0x1ffff,%eax
   15691:	89 c1                	mov    %eax,%ecx
   15693:	8b 45 f4             	mov    -0xc(%rbp),%eax
   15696:	89 c2                	mov    %eax,%edx
   15698:	48 8d 35 cb 42 00 00 	lea    0x42cb(%rip),%rsi        # 1996a <g_2539+0xf2a>
   1569f:	48 89 cf             	mov    %rcx,%rdi
   156a2:	e8 4c 40 ff ff       	callq  96f3 <transparent_crc>
   156a7:	0f b7 05 3e c2 00 00 	movzwl 0xc23e(%rip),%eax        # 218ec <g_1321+0x4>
   156ae:	0f b7 c0             	movzwl %ax,%eax
   156b1:	8b 55 f4             	mov    -0xc(%rbp),%edx
   156b4:	48 8d 35 b9 42 00 00 	lea    0x42b9(%rip),%rsi        # 19974 <g_2539+0xf34>
   156bb:	48 89 c7             	mov    %rax,%rdi
   156be:	e8 30 40 ff ff       	callq  96f3 <transparent_crc>
   156c3:	48 8b 05 1e c2 00 00 	mov    0xc21e(%rip),%rax        # 218e8 <g_1321>
   156ca:	48 c1 e0 06          	shl    $0x6,%rax
   156ce:	48 c1 f8 36          	sar    $0x36,%rax
   156d2:	48 0f bf c0          	movswq %ax,%rax
   156d6:	8b 55 f4             	mov    -0xc(%rbp),%edx
   156d9:	48 8d 35 9e 42 00 00 	lea    0x429e(%rip),%rsi        # 1997e <g_2539+0xf3e>
   156e0:	48 89 c7             	mov    %rax,%rdi
   156e3:	e8 0b 40 ff ff       	callq  96f3 <transparent_crc>
   156e8:	48 8b 05 01 c2 00 00 	mov    0xc201(%rip),%rax        # 218f0 <g_1332>
   156ef:	8b 55 f4             	mov    -0xc(%rbp),%edx
   156f2:	48 8d 35 8f 42 00 00 	lea    0x428f(%rip),%rsi        # 19988 <g_2539+0xf48>
   156f9:	48 89 c7             	mov    %rax,%rdi
   156fc:	e8 f2 3f ff ff       	callq  96f3 <transparent_crc>
   15701:	c7 45 e8 00 00 00 00 	movl   $0x0,-0x18(%rbp)
   15708:	eb 4d                	jmp    15757 <main+0x25c7>
   1570a:	8b 45 e8             	mov    -0x18(%rbp),%eax
   1570d:	48 98                	cltq   
   1570f:	48 8d 14 85 00 00 00 	lea    0x0(,%rax,4),%rdx
   15716:	00 
   15717:	48 8d 05 3a 29 00 00 	lea    0x293a(%rip),%rax        # 18058 <g_1333>
   1571e:	8b 04 02             	mov    (%rdx,%rax,1),%eax
   15721:	89 c1                	mov    %eax,%ecx
   15723:	8b 45 f4             	mov    -0xc(%rbp),%eax
   15726:	89 c2                	mov    %eax,%edx
   15728:	48 8d 35 60 42 00 00 	lea    0x4260(%rip),%rsi        # 1998f <g_2539+0xf4f>
   1572f:	48 89 cf             	mov    %rcx,%rdi
   15732:	e8 bc 3f ff ff       	callq  96f3 <transparent_crc>
   15737:	83 7d f4 00          	cmpl   $0x0,-0xc(%rbp)
   1573b:	74 16                	je     15753 <main+0x25c3>
   1573d:	8b 45 e8             	mov    -0x18(%rbp),%eax
   15740:	89 c6                	mov    %eax,%esi
   15742:	48 8d 3d 9a 3a 00 00 	lea    0x3a9a(%rip),%rdi        # 191e3 <g_2539+0x7a3>
   15749:	b8 00 00 00 00       	mov    $0x0,%eax
   1574e:	e8 2d 29 ff ff       	callq  8080 <printf@plt>
   15753:	83 45 e8 01          	addl   $0x1,-0x18(%rbp)
   15757:	83 7d e8 02          	cmpl   $0x2,-0x18(%rbp)
   1575b:	7e ad                	jle    1570a <main+0x257a>
   1575d:	0f b7 05 94 c1 00 00 	movzwl 0xc194(%rip),%eax        # 218f8 <g_1384>
   15764:	c1 e0 04             	shl    $0x4,%eax
   15767:	66 c1 f8 04          	sar    $0x4,%ax
   1576b:	48 0f bf c0          	movswq %ax,%rax
   1576f:	8b 55 f4             	mov    -0xc(%rbp),%edx
   15772:	48 8d 35 20 42 00 00 	lea    0x4220(%rip),%rsi        # 19999 <g_2539+0xf59>
   15779:	48 89 c7             	mov    %rax,%rdi
   1577c:	e8 72 3f ff ff       	callq  96f3 <transparent_crc>
   15781:	8b 05 71 c1 00 00    	mov    0xc171(%rip),%eax        # 218f8 <g_1384>
   15787:	c1 e8 0c             	shr    $0xc,%eax
   1578a:	25 ff ff 01 00       	and    $0x1ffff,%eax
   1578f:	89 c1                	mov    %eax,%ecx
   15791:	8b 45 f4             	mov    -0xc(%rbp),%eax
   15794:	89 c2                	mov    %eax,%edx
   15796:	48 8d 35 06 42 00 00 	lea    0x4206(%rip),%rsi        # 199a3 <g_2539+0xf63>
   1579d:	48 89 cf             	mov    %rcx,%rdi
   157a0:	e8 4e 3f ff ff       	callq  96f3 <transparent_crc>
   157a5:	0f b7 05 50 c1 00 00 	movzwl 0xc150(%rip),%eax        # 218fc <g_1384+0x4>
   157ac:	0f b7 c0             	movzwl %ax,%eax
   157af:	8b 55 f4             	mov    -0xc(%rbp),%edx
   157b2:	48 8d 35 f4 41 00 00 	lea    0x41f4(%rip),%rsi        # 199ad <g_2539+0xf6d>
   157b9:	48 89 c7             	mov    %rax,%rdi
   157bc:	e8 32 3f ff ff       	callq  96f3 <transparent_crc>
   157c1:	48 8b 05 30 c1 00 00 	mov    0xc130(%rip),%rax        # 218f8 <g_1384>
   157c8:	48 c1 e0 06          	shl    $0x6,%rax
   157cc:	48 c1 f8 36          	sar    $0x36,%rax
   157d0:	48 0f bf c0          	movswq %ax,%rax
   157d4:	8b 55 f4             	mov    -0xc(%rbp),%edx
   157d7:	48 8d 35 d9 41 00 00 	lea    0x41d9(%rip),%rsi        # 199b7 <g_2539+0xf77>
   157de:	48 89 c7             	mov    %rax,%rdi
   157e1:	e8 0d 3f ff ff       	callq  96f3 <transparent_crc>
   157e6:	c7 45 e8 00 00 00 00 	movl   $0x0,-0x18(%rbp)
   157ed:	e9 cb 01 00 00       	jmpq   159bd <main+0x282d>
   157f2:	c7 45 ec 00 00 00 00 	movl   $0x0,-0x14(%rbp)
   157f9:	e9 b1 01 00 00       	jmpq   159af <main+0x281f>
   157fe:	c7 45 f0 00 00 00 00 	movl   $0x0,-0x10(%rbp)
   15805:	e9 97 01 00 00       	jmpq   159a1 <main+0x2811>
   1580a:	8b 45 f0             	mov    -0x10(%rbp),%eax
   1580d:	48 63 f0             	movslq %eax,%rsi
   15810:	8b 45 e8             	mov    -0x18(%rbp),%eax
   15813:	48 63 d0             	movslq %eax,%rdx
   15816:	8b 45 ec             	mov    -0x14(%rbp),%eax
   15819:	48 63 c8             	movslq %eax,%rcx
   1581c:	48 89 d0             	mov    %rdx,%rax
   1581f:	48 c1 e0 04          	shl    $0x4,%rax
   15823:	48 29 d0             	sub    %rdx,%rax
   15826:	48 01 c0             	add    %rax,%rax
   15829:	48 89 ca             	mov    %rcx,%rdx
   1582c:	48 01 d2             	add    %rdx,%rdx
   1582f:	48 01 ca             	add    %rcx,%rdx
   15832:	48 01 d0             	add    %rdx,%rax
   15835:	48 01 f0             	add    %rsi,%rax
   15838:	48 8d 14 c5 00 00 00 	lea    0x0(,%rax,8),%rdx
   1583f:	00 
   15840:	48 8d 05 39 28 00 00 	lea    0x2839(%rip),%rax        # 18080 <g_1431>
   15847:	0f b7 04 02          	movzwl (%rdx,%rax,1),%eax
   1584b:	c1 e0 04             	shl    $0x4,%eax
   1584e:	66 c1 f8 04          	sar    $0x4,%ax
   15852:	48 0f bf c0          	movswq %ax,%rax
   15856:	8b 55 f4             	mov    -0xc(%rbp),%edx
   15859:	48 8d 35 61 41 00 00 	lea    0x4161(%rip),%rsi        # 199c1 <g_2539+0xf81>
   15860:	48 89 c7             	mov    %rax,%rdi
   15863:	e8 8b 3e ff ff       	callq  96f3 <transparent_crc>
   15868:	8b 45 f0             	mov    -0x10(%rbp),%eax
   1586b:	48 63 f0             	movslq %eax,%rsi
   1586e:	8b 45 e8             	mov    -0x18(%rbp),%eax
   15871:	48 63 d0             	movslq %eax,%rdx
   15874:	8b 45 ec             	mov    -0x14(%rbp),%eax
   15877:	48 63 c8             	movslq %eax,%rcx
   1587a:	48 89 d0             	mov    %rdx,%rax
   1587d:	48 c1 e0 04          	shl    $0x4,%rax
   15881:	48 29 d0             	sub    %rdx,%rax
   15884:	48 01 c0             	add    %rax,%rax
   15887:	48 89 ca             	mov    %rcx,%rdx
   1588a:	48 01 d2             	add    %rdx,%rdx
   1588d:	48 01 ca             	add    %rcx,%rdx
   15890:	48 01 d0             	add    %rdx,%rax
   15893:	48 01 f0             	add    %rsi,%rax
   15896:	48 8d 14 c5 00 00 00 	lea    0x0(,%rax,8),%rdx
   1589d:	00 
   1589e:	48 8d 05 db 27 00 00 	lea    0x27db(%rip),%rax        # 18080 <g_1431>
   158a5:	8b 04 02             	mov    (%rdx,%rax,1),%eax
   158a8:	c1 e8 0c             	shr    $0xc,%eax
   158ab:	25 ff ff 01 00       	and    $0x1ffff,%eax
   158b0:	89 c1                	mov    %eax,%ecx
   158b2:	8b 45 f4             	mov    -0xc(%rbp),%eax
   158b5:	89 c2                	mov    %eax,%edx
   158b7:	48 8d 35 16 41 00 00 	lea    0x4116(%rip),%rsi        # 199d4 <g_2539+0xf94>
   158be:	48 89 cf             	mov    %rcx,%rdi
   158c1:	e8 2d 3e ff ff       	callq  96f3 <transparent_crc>
   158c6:	8b 45 f0             	mov    -0x10(%rbp),%eax
   158c9:	48 63 f0             	movslq %eax,%rsi
   158cc:	8b 45 e8             	mov    -0x18(%rbp),%eax
   158cf:	48 63 d0             	movslq %eax,%rdx
   158d2:	8b 45 ec             	mov    -0x14(%rbp),%eax
   158d5:	48 63 c8             	movslq %eax,%rcx
   158d8:	48 89 d0             	mov    %rdx,%rax
   158db:	48 c1 e0 04          	shl    $0x4,%rax
   158df:	48 29 d0             	sub    %rdx,%rax
   158e2:	48 01 c0             	add    %rax,%rax
   158e5:	48 89 ca             	mov    %rcx,%rdx
   158e8:	48 01 d2             	add    %rdx,%rdx
   158eb:	48 01 ca             	add    %rcx,%rdx
   158ee:	48 01 d0             	add    %rdx,%rax
   158f1:	48 01 f0             	add    %rsi,%rax
   158f4:	48 8d 14 c5 00 00 00 	lea    0x0(,%rax,8),%rdx
   158fb:	00 
   158fc:	48 8d 05 81 27 00 00 	lea    0x2781(%rip),%rax        # 18084 <g_1431+0x4>
   15903:	0f b7 04 02          	movzwl (%rdx,%rax,1),%eax
   15907:	0f b7 c0             	movzwl %ax,%eax
   1590a:	8b 55 f4             	mov    -0xc(%rbp),%edx
   1590d:	48 8d 35 d3 40 00 00 	lea    0x40d3(%rip),%rsi        # 199e7 <g_2539+0xfa7>
   15914:	48 89 c7             	mov    %rax,%rdi
   15917:	e8 d7 3d ff ff       	callq  96f3 <transparent_crc>
   1591c:	8b 45 f0             	mov    -0x10(%rbp),%eax
   1591f:	48 63 f0             	movslq %eax,%rsi
   15922:	8b 45 e8             	mov    -0x18(%rbp),%eax
   15925:	48 63 d0             	movslq %eax,%rdx
   15928:	8b 45 ec             	mov    -0x14(%rbp),%eax
   1592b:	48 63 c8             	movslq %eax,%rcx
   1592e:	48 89 d0             	mov    %rdx,%rax
   15931:	48 c1 e0 04          	shl    $0x4,%rax
   15935:	48 29 d0             	sub    %rdx,%rax
   15938:	48 01 c0             	add    %rax,%rax
   1593b:	48 89 ca             	mov    %rcx,%rdx
   1593e:	48 01 d2             	add    %rdx,%rdx
   15941:	48 01 ca             	add    %rcx,%rdx
   15944:	48 01 d0             	add    %rdx,%rax
   15947:	48 01 f0             	add    %rsi,%rax
   1594a:	48 8d 14 c5 00 00 00 	lea    0x0(,%rax,8),%rdx
   15951:	00 
   15952:	48 8d 05 27 27 00 00 	lea    0x2727(%rip),%rax        # 18080 <g_1431>
   15959:	48 8b 04 02          	mov    (%rdx,%rax,1),%rax
   1595d:	48 c1 e0 06          	shl    $0x6,%rax
   15961:	48 c1 f8 36          	sar    $0x36,%rax
   15965:	48 0f bf c0          	movswq %ax,%rax
   15969:	8b 55 f4             	mov    -0xc(%rbp),%edx
   1596c:	48 8d 35 87 40 00 00 	lea    0x4087(%rip),%rsi        # 199fa <g_2539+0xfba>
   15973:	48 89 c7             	mov    %rax,%rdi
   15976:	e8 78 3d ff ff       	callq  96f3 <transparent_crc>
   1597b:	83 7d f4 00          	cmpl   $0x0,-0xc(%rbp)
   1597f:	74 1c                	je     1599d <main+0x280d>
   15981:	8b 4d f0             	mov    -0x10(%rbp),%ecx
   15984:	8b 55 ec             	mov    -0x14(%rbp),%edx
   15987:	8b 45 e8             	mov    -0x18(%rbp),%eax
   1598a:	89 c6                	mov    %eax,%esi
   1598c:	48 8d 3d 83 38 00 00 	lea    0x3883(%rip),%rdi        # 19216 <g_2539+0x7d6>
   15993:	b8 00 00 00 00       	mov    $0x0,%eax
   15998:	e8 e3 26 ff ff       	callq  8080 <printf@plt>
   1599d:	83 45 f0 01          	addl   $0x1,-0x10(%rbp)
   159a1:	83 7d f0 02          	cmpl   $0x2,-0x10(%rbp)
   159a5:	0f 8e 5f fe ff ff    	jle    1580a <main+0x267a>
   159ab:	83 45 ec 01          	addl   $0x1,-0x14(%rbp)
   159af:	83 7d ec 09          	cmpl   $0x9,-0x14(%rbp)
   159b3:	0f 8e 45 fe ff ff    	jle    157fe <main+0x266e>
   159b9:	83 45 e8 01          	addl   $0x1,-0x18(%rbp)
   159bd:	83 7d e8 06          	cmpl   $0x6,-0x18(%rbp)
   159c1:	0f 8e 2b fe ff ff    	jle    157f2 <main+0x2662>
   159c7:	48 8b 05 32 bf 00 00 	mov    0xbf32(%rip),%rax        # 21900 <g_1504>
   159ce:	48 89 c1             	mov    %rax,%rcx
   159d1:	8b 45 f4             	mov    -0xc(%rbp),%eax
   159d4:	89 c2                	mov    %eax,%edx
   159d6:	48 8d 35 30 40 00 00 	lea    0x4030(%rip),%rsi        # 19a0d <g_2539+0xfcd>
   159dd:	48 89 cf             	mov    %rcx,%rdi
   159e0:	e8 0e 3d ff ff       	callq  96f3 <transparent_crc>
   159e5:	0f b6 05 1c bf 00 00 	movzbl 0xbf1c(%rip),%eax        # 21908 <g_1507>
   159ec:	48 0f be c0          	movsbq %al,%rax
   159f0:	8b 55 f4             	mov    -0xc(%rbp),%edx
   159f3:	48 8d 35 1a 40 00 00 	lea    0x401a(%rip),%rsi        # 19a14 <g_2539+0xfd4>
   159fa:	48 89 c7             	mov    %rax,%rdi
   159fd:	e8 f1 3c ff ff       	callq  96f3 <transparent_crc>
   15a02:	c7 45 e8 00 00 00 00 	movl   $0x0,-0x18(%rbp)
   15a09:	e9 ed 00 00 00       	jmpq   15afb <main+0x296b>
   15a0e:	8b 45 e8             	mov    -0x18(%rbp),%eax
   15a11:	48 98                	cltq   
   15a13:	48 8d 14 c5 00 00 00 	lea    0x0(,%rax,8),%rdx
   15a1a:	00 
   15a1b:	48 8d 05 fe be 00 00 	lea    0xbefe(%rip),%rax        # 21920 <g_1533>
   15a22:	0f b7 04 02          	movzwl (%rdx,%rax,1),%eax
   15a26:	c1 e0 04             	shl    $0x4,%eax
   15a29:	66 c1 f8 04          	sar    $0x4,%ax
   15a2d:	48 0f bf c0          	movswq %ax,%rax
   15a31:	8b 55 f4             	mov    -0xc(%rbp),%edx
   15a34:	48 8d 35 e0 3f 00 00 	lea    0x3fe0(%rip),%rsi        # 19a1b <g_2539+0xfdb>
   15a3b:	48 89 c7             	mov    %rax,%rdi
   15a3e:	e8 b0 3c ff ff       	callq  96f3 <transparent_crc>
   15a43:	8b 45 e8             	mov    -0x18(%rbp),%eax
   15a46:	48 98                	cltq   
   15a48:	48 8d 14 c5 00 00 00 	lea    0x0(,%rax,8),%rdx
   15a4f:	00 
   15a50:	48 8d 05 c9 be 00 00 	lea    0xbec9(%rip),%rax        # 21920 <g_1533>
   15a57:	8b 04 02             	mov    (%rdx,%rax,1),%eax
   15a5a:	c1 e8 0c             	shr    $0xc,%eax
   15a5d:	25 ff ff 01 00       	and    $0x1ffff,%eax
   15a62:	89 c1                	mov    %eax,%ecx
   15a64:	8b 45 f4             	mov    -0xc(%rbp),%eax
   15a67:	89 c2                	mov    %eax,%edx
   15a69:	48 8d 35 b8 3f 00 00 	lea    0x3fb8(%rip),%rsi        # 19a28 <g_2539+0xfe8>
   15a70:	48 89 cf             	mov    %rcx,%rdi
   15a73:	e8 7b 3c ff ff       	callq  96f3 <transparent_crc>
   15a78:	8b 45 e8             	mov    -0x18(%rbp),%eax
   15a7b:	48 98                	cltq   
   15a7d:	48 8d 14 c5 00 00 00 	lea    0x0(,%rax,8),%rdx
   15a84:	00 
   15a85:	48 8d 05 98 be 00 00 	lea    0xbe98(%rip),%rax        # 21924 <g_1533+0x4>
   15a8c:	0f b7 04 02          	movzwl (%rdx,%rax,1),%eax
   15a90:	0f b7 c0             	movzwl %ax,%eax
   15a93:	8b 55 f4             	mov    -0xc(%rbp),%edx
   15a96:	48 8d 35 98 3f 00 00 	lea    0x3f98(%rip),%rsi        # 19a35 <g_2539+0xff5>
   15a9d:	48 89 c7             	mov    %rax,%rdi
   15aa0:	e8 4e 3c ff ff       	callq  96f3 <transparent_crc>
   15aa5:	8b 45 e8             	mov    -0x18(%rbp),%eax
   15aa8:	48 98                	cltq   
   15aaa:	48 8d 14 c5 00 00 00 	lea    0x0(,%rax,8),%rdx
   15ab1:	00 
   15ab2:	48 8d 05 67 be 00 00 	lea    0xbe67(%rip),%rax        # 21920 <g_1533>
   15ab9:	48 8b 04 02          	mov    (%rdx,%rax,1),%rax
   15abd:	48 c1 e0 06          	shl    $0x6,%rax
   15ac1:	48 c1 f8 36          	sar    $0x36,%rax
   15ac5:	48 0f bf c0          	movswq %ax,%rax
   15ac9:	8b 55 f4             	mov    -0xc(%rbp),%edx
   15acc:	48 8d 35 6f 3f 00 00 	lea    0x3f6f(%rip),%rsi        # 19a42 <g_2539+0x1002>
   15ad3:	48 89 c7             	mov    %rax,%rdi
   15ad6:	e8 18 3c ff ff       	callq  96f3 <transparent_crc>
   15adb:	83 7d f4 00          	cmpl   $0x0,-0xc(%rbp)
   15adf:	74 16                	je     15af7 <main+0x2967>
   15ae1:	8b 45 e8             	mov    -0x18(%rbp),%eax
   15ae4:	89 c6                	mov    %eax,%esi
   15ae6:	48 8d 3d f6 36 00 00 	lea    0x36f6(%rip),%rdi        # 191e3 <g_2539+0x7a3>
   15aed:	b8 00 00 00 00       	mov    $0x0,%eax
   15af2:	e8 89 25 ff ff       	callq  8080 <printf@plt>
   15af7:	83 45 e8 01          	addl   $0x1,-0x18(%rbp)
   15afb:	83 7d e8 07          	cmpl   $0x7,-0x18(%rbp)
   15aff:	0f 8e 09 ff ff ff    	jle    15a0e <main+0x287e>
   15b05:	0f b7 05 54 be 00 00 	movzwl 0xbe54(%rip),%eax        # 21960 <g_1535>
   15b0c:	c1 e0 04             	shl    $0x4,%eax
   15b0f:	66 c1 f8 04          	sar    $0x4,%ax
   15b13:	48 0f bf c0          	movswq %ax,%rax
   15b17:	8b 55 f4             	mov    -0xc(%rbp),%edx
   15b1a:	48 8d 35 2e 3f 00 00 	lea    0x3f2e(%rip),%rsi        # 19a4f <g_2539+0x100f>
   15b21:	48 89 c7             	mov    %rax,%rdi
   15b24:	e8 ca 3b ff ff       	callq  96f3 <transparent_crc>
   15b29:	8b 05 31 be 00 00    	mov    0xbe31(%rip),%eax        # 21960 <g_1535>
   15b2f:	c1 e8 0c             	shr    $0xc,%eax
   15b32:	25 ff ff 01 00       	and    $0x1ffff,%eax
   15b37:	89 c1                	mov    %eax,%ecx
   15b39:	8b 45 f4             	mov    -0xc(%rbp),%eax
   15b3c:	89 c2                	mov    %eax,%edx
   15b3e:	48 8d 35 14 3f 00 00 	lea    0x3f14(%rip),%rsi        # 19a59 <g_2539+0x1019>
   15b45:	48 89 cf             	mov    %rcx,%rdi
   15b48:	e8 a6 3b ff ff       	callq  96f3 <transparent_crc>
   15b4d:	0f b7 05 10 be 00 00 	movzwl 0xbe10(%rip),%eax        # 21964 <g_1535+0x4>
   15b54:	0f b7 c0             	movzwl %ax,%eax
   15b57:	8b 55 f4             	mov    -0xc(%rbp),%edx
   15b5a:	48 8d 35 02 3f 00 00 	lea    0x3f02(%rip),%rsi        # 19a63 <g_2539+0x1023>
   15b61:	48 89 c7             	mov    %rax,%rdi
   15b64:	e8 8a 3b ff ff       	callq  96f3 <transparent_crc>
   15b69:	48 8b 05 f0 bd 00 00 	mov    0xbdf0(%rip),%rax        # 21960 <g_1535>
   15b70:	48 c1 e0 06          	shl    $0x6,%rax
   15b74:	48 c1 f8 36          	sar    $0x36,%rax
   15b78:	48 0f bf c0          	movswq %ax,%rax
   15b7c:	8b 55 f4             	mov    -0xc(%rbp),%edx
   15b7f:	48 8d 35 e7 3e 00 00 	lea    0x3ee7(%rip),%rsi        # 19a6d <g_2539+0x102d>
   15b86:	48 89 c7             	mov    %rax,%rdi
   15b89:	e8 65 3b ff ff       	callq  96f3 <transparent_crc>
   15b8e:	0f b7 05 d3 bd 00 00 	movzwl 0xbdd3(%rip),%eax        # 21968 <g_1537>
   15b95:	c1 e0 04             	shl    $0x4,%eax
   15b98:	66 c1 f8 04          	sar    $0x4,%ax
   15b9c:	48 0f bf c0          	movswq %ax,%rax
   15ba0:	8b 55 f4             	mov    -0xc(%rbp),%edx
   15ba3:	48 8d 35 cd 3e 00 00 	lea    0x3ecd(%rip),%rsi        # 19a77 <g_2539+0x1037>
   15baa:	48 89 c7             	mov    %rax,%rdi
   15bad:	e8 41 3b ff ff       	callq  96f3 <transparent_crc>
   15bb2:	8b 05 b0 bd 00 00    	mov    0xbdb0(%rip),%eax        # 21968 <g_1537>
   15bb8:	c1 e8 0c             	shr    $0xc,%eax
   15bbb:	25 ff ff 01 00       	and    $0x1ffff,%eax
   15bc0:	89 c1                	mov    %eax,%ecx
   15bc2:	8b 45 f4             	mov    -0xc(%rbp),%eax
   15bc5:	89 c2                	mov    %eax,%edx
   15bc7:	48 8d 35 b3 3e 00 00 	lea    0x3eb3(%rip),%rsi        # 19a81 <g_2539+0x1041>
   15bce:	48 89 cf             	mov    %rcx,%rdi
   15bd1:	e8 1d 3b ff ff       	callq  96f3 <transparent_crc>
   15bd6:	0f b7 05 8f bd 00 00 	movzwl 0xbd8f(%rip),%eax        # 2196c <g_1537+0x4>
   15bdd:	0f b7 c0             	movzwl %ax,%eax
   15be0:	8b 55 f4             	mov    -0xc(%rbp),%edx
   15be3:	48 8d 35 a1 3e 00 00 	lea    0x3ea1(%rip),%rsi        # 19a8b <g_2539+0x104b>
   15bea:	48 89 c7             	mov    %rax,%rdi
   15bed:	e8 01 3b ff ff       	callq  96f3 <transparent_crc>
   15bf2:	48 8b 05 6f bd 00 00 	mov    0xbd6f(%rip),%rax        # 21968 <g_1537>
   15bf9:	48 c1 e0 06          	shl    $0x6,%rax
   15bfd:	48 c1 f8 36          	sar    $0x36,%rax
   15c01:	48 0f bf c0          	movswq %ax,%rax
   15c05:	8b 55 f4             	mov    -0xc(%rbp),%edx
   15c08:	48 8d 35 86 3e 00 00 	lea    0x3e86(%rip),%rsi        # 19a95 <g_2539+0x1055>
   15c0f:	48 89 c7             	mov    %rax,%rdi
   15c12:	e8 dc 3a ff ff       	callq  96f3 <transparent_crc>
   15c17:	0f b6 05 7a fa 00 00 	movzbl 0xfa7a(%rip),%eax        # 25698 <g_1550>
   15c1e:	48 0f be c0          	movsbq %al,%rax
   15c22:	8b 55 f4             	mov    -0xc(%rbp),%edx
   15c25:	48 8d 35 73 3e 00 00 	lea    0x3e73(%rip),%rsi        # 19a9f <g_2539+0x105f>
   15c2c:	48 89 c7             	mov    %rax,%rdi
   15c2f:	e8 bf 3a ff ff       	callq  96f3 <transparent_crc>
   15c34:	c7 45 e8 00 00 00 00 	movl   $0x0,-0x18(%rbp)
   15c3b:	eb 4e                	jmp    15c8b <main+0x2afb>
   15c3d:	8b 45 e8             	mov    -0x18(%rbp),%eax
   15c40:	48 98                	cltq   
   15c42:	48 8d 14 c5 00 00 00 	lea    0x0(,%rax,8),%rdx
   15c49:	00 
   15c4a:	48 8d 05 2f bd 00 00 	lea    0xbd2f(%rip),%rax        # 21980 <g_1552>
   15c51:	0f b6 04 02          	movzbl (%rdx,%rax,1),%eax
   15c55:	48 0f be c0          	movsbq %al,%rax
   15c59:	8b 55 f4             	mov    -0xc(%rbp),%edx
   15c5c:	48 8d 35 46 3e 00 00 	lea    0x3e46(%rip),%rsi        # 19aa9 <g_2539+0x1069>
   15c63:	48 89 c7             	mov    %rax,%rdi
   15c66:	e8 88 3a ff ff       	callq  96f3 <transparent_crc>
   15c6b:	83 7d f4 00          	cmpl   $0x0,-0xc(%rbp)
   15c6f:	74 16                	je     15c87 <main+0x2af7>
   15c71:	8b 45 e8             	mov    -0x18(%rbp),%eax
   15c74:	89 c6                	mov    %eax,%esi
   15c76:	48 8d 3d 66 35 00 00 	lea    0x3566(%rip),%rdi        # 191e3 <g_2539+0x7a3>
   15c7d:	b8 00 00 00 00       	mov    $0x0,%eax
   15c82:	e8 f9 23 ff ff       	callq  8080 <printf@plt>
   15c87:	83 45 e8 01          	addl   $0x1,-0x18(%rbp)
   15c8b:	83 7d e8 09          	cmpl   $0x9,-0x18(%rbp)
   15c8f:	7e ac                	jle    15c3d <main+0x2aad>
   15c91:	c7 45 e8 00 00 00 00 	movl   $0x0,-0x18(%rbp)
   15c98:	eb 4d                	jmp    15ce7 <main+0x2b57>
   15c9a:	8b 45 e8             	mov    -0x18(%rbp),%eax
   15c9d:	48 98                	cltq   
   15c9f:	48 8d 14 85 00 00 00 	lea    0x0(,%rax,4),%rdx
   15ca6:	00 
   15ca7:	48 8d 05 f2 f9 00 00 	lea    0xf9f2(%rip),%rax        # 256a0 <g_1633>
   15cae:	8b 04 02             	mov    (%rdx,%rax,1),%eax
   15cb1:	89 c1                	mov    %eax,%ecx
   15cb3:	8b 45 f4             	mov    -0xc(%rbp),%eax
   15cb6:	89 c2                	mov    %eax,%edx
   15cb8:	48 8d 35 f7 3d 00 00 	lea    0x3df7(%rip),%rsi        # 19ab6 <g_2539+0x1076>
   15cbf:	48 89 cf             	mov    %rcx,%rdi
   15cc2:	e8 2c 3a ff ff       	callq  96f3 <transparent_crc>
   15cc7:	83 7d f4 00          	cmpl   $0x0,-0xc(%rbp)
   15ccb:	74 16                	je     15ce3 <main+0x2b53>
   15ccd:	8b 45 e8             	mov    -0x18(%rbp),%eax
   15cd0:	89 c6                	mov    %eax,%esi
   15cd2:	48 8d 3d 0a 35 00 00 	lea    0x350a(%rip),%rdi        # 191e3 <g_2539+0x7a3>
   15cd9:	b8 00 00 00 00       	mov    $0x0,%eax
   15cde:	e8 9d 23 ff ff       	callq  8080 <printf@plt>
   15ce3:	83 45 e8 01          	addl   $0x1,-0x18(%rbp)
   15ce7:	83 7d e8 00          	cmpl   $0x0,-0x18(%rbp)
   15ceb:	7e ad                	jle    15c9a <main+0x2b0a>
   15ced:	48 8b 05 dc bc 00 00 	mov    0xbcdc(%rip),%rax        # 219d0 <g_1673>
   15cf4:	48 89 c1             	mov    %rax,%rcx
   15cf7:	8b 45 f4             	mov    -0xc(%rbp),%eax
   15cfa:	89 c2                	mov    %eax,%edx
   15cfc:	48 8d 35 bd 3d 00 00 	lea    0x3dbd(%rip),%rsi        # 19ac0 <g_2539+0x1080>
   15d03:	48 89 cf             	mov    %rcx,%rdi
   15d06:	e8 e8 39 ff ff       	callq  96f3 <transparent_crc>
   15d0b:	0f b7 05 c6 bc 00 00 	movzwl 0xbcc6(%rip),%eax        # 219d8 <g_1724>
   15d12:	48 0f bf c0          	movswq %ax,%rax
   15d16:	8b 55 f4             	mov    -0xc(%rbp),%edx
   15d19:	48 8d 35 a7 3d 00 00 	lea    0x3da7(%rip),%rsi        # 19ac7 <g_2539+0x1087>
   15d20:	48 89 c7             	mov    %rax,%rdi
   15d23:	e8 cb 39 ff ff       	callq  96f3 <transparent_crc>
   15d28:	0f b6 05 ab bc 00 00 	movzbl 0xbcab(%rip),%eax        # 219da <g_1726>
   15d2f:	0f b6 c0             	movzbl %al,%eax
   15d32:	8b 55 f4             	mov    -0xc(%rbp),%edx
   15d35:	48 8d 35 92 3d 00 00 	lea    0x3d92(%rip),%rsi        # 19ace <g_2539+0x108e>
   15d3c:	48 89 c7             	mov    %rax,%rdi
   15d3f:	e8 af 39 ff ff       	callq  96f3 <transparent_crc>
   15d44:	8b 05 5a f9 00 00    	mov    0xf95a(%rip),%eax        # 256a4 <g_1832>
   15d4a:	48 98                	cltq   
   15d4c:	8b 55 f4             	mov    -0xc(%rbp),%edx
   15d4f:	48 8d 35 7f 3d 00 00 	lea    0x3d7f(%rip),%rsi        # 19ad5 <g_2539+0x1095>
   15d56:	48 89 c7             	mov    %rax,%rdi
   15d59:	e8 95 39 ff ff       	callq  96f3 <transparent_crc>
   15d5e:	8b 05 78 bc 00 00    	mov    0xbc78(%rip),%eax        # 219dc <g_1867>
   15d64:	89 c1                	mov    %eax,%ecx
   15d66:	8b 45 f4             	mov    -0xc(%rbp),%eax
   15d69:	89 c2                	mov    %eax,%edx
   15d6b:	48 8d 35 6a 3d 00 00 	lea    0x3d6a(%rip),%rsi        # 19adc <g_2539+0x109c>
   15d72:	48 89 cf             	mov    %rcx,%rdi
   15d75:	e8 79 39 ff ff       	callq  96f3 <transparent_crc>
   15d7a:	8b 05 60 bc 00 00    	mov    0xbc60(%rip),%eax        # 219e0 <g_1897>
   15d80:	c1 e0 03             	shl    $0x3,%eax
   15d83:	c1 f8 03             	sar    $0x3,%eax
   15d86:	48 98                	cltq   
   15d88:	8b 55 f4             	mov    -0xc(%rbp),%edx
   15d8b:	48 8d 35 51 3d 00 00 	lea    0x3d51(%rip),%rsi        # 19ae3 <g_2539+0x10a3>
   15d92:	48 89 c7             	mov    %rax,%rdi
   15d95:	e8 59 39 ff ff       	callq  96f3 <transparent_crc>
   15d9a:	48 8b 05 47 bc 00 00 	mov    0xbc47(%rip),%rax        # 219e8 <g_1897+0x8>
   15da1:	48 89 c1             	mov    %rax,%rcx
   15da4:	8b 45 f4             	mov    -0xc(%rbp),%eax
   15da7:	89 c2                	mov    %eax,%edx
   15da9:	48 8d 35 3d 3d 00 00 	lea    0x3d3d(%rip),%rsi        # 19aed <g_2539+0x10ad>
   15db0:	48 89 cf             	mov    %rcx,%rdi
   15db3:	e8 3b 39 ff ff       	callq  96f3 <transparent_crc>
   15db8:	0f b6 05 31 bc 00 00 	movzbl 0xbc31(%rip),%eax        # 219f0 <g_1897+0x10>
   15dbf:	83 e0 0f             	and    $0xf,%eax
   15dc2:	0f b6 c0             	movzbl %al,%eax
   15dc5:	8b 55 f4             	mov    -0xc(%rbp),%edx
   15dc8:	48 8d 35 28 3d 00 00 	lea    0x3d28(%rip),%rsi        # 19af7 <g_2539+0x10b7>
   15dcf:	48 89 c7             	mov    %rax,%rdi
   15dd2:	e8 1c 39 ff ff       	callq  96f3 <transparent_crc>
   15dd7:	8b 05 13 bc 00 00    	mov    0xbc13(%rip),%eax        # 219f0 <g_1897+0x10>
   15ddd:	01 c0                	add    %eax,%eax
   15ddf:	c1 f8 05             	sar    $0x5,%eax
   15de2:	48 98                	cltq   
   15de4:	8b 55 f4             	mov    -0xc(%rbp),%edx
   15de7:	48 8d 35 13 3d 00 00 	lea    0x3d13(%rip),%rsi        # 19b01 <g_2539+0x10c1>
   15dee:	48 89 c7             	mov    %rax,%rdi
   15df1:	e8 fd 38 ff ff       	callq  96f3 <transparent_crc>
   15df6:	48 8b 05 f3 bb 00 00 	mov    0xbbf3(%rip),%rax        # 219f0 <g_1897+0x10>
   15dfd:	48 c1 e0 03          	shl    $0x3,%rax
   15e01:	48 c1 f8 23          	sar    $0x23,%rax
   15e05:	48 98                	cltq   
   15e07:	8b 55 f4             	mov    -0xc(%rbp),%edx
   15e0a:	48 8d 35 fa 3c 00 00 	lea    0x3cfa(%rip),%rsi        # 19b0b <g_2539+0x10cb>
   15e11:	48 89 c7             	mov    %rax,%rdi
   15e14:	e8 da 38 ff ff       	callq  96f3 <transparent_crc>
   15e19:	0f b7 05 d8 bb 00 00 	movzwl 0xbbd8(%rip),%eax        # 219f8 <g_1897+0x18>
   15e20:	66 25 ff 0f          	and    $0xfff,%ax
   15e24:	0f b7 c0             	movzwl %ax,%eax
   15e27:	8b 55 f4             	mov    -0xc(%rbp),%edx
   15e2a:	48 8d 35 e4 3c 00 00 	lea    0x3ce4(%rip),%rsi        # 19b15 <g_2539+0x10d5>
   15e31:	48 89 c7             	mov    %rax,%rdi
   15e34:	e8 ba 38 ff ff       	callq  96f3 <transparent_crc>
   15e39:	8b 05 bd bb 00 00    	mov    0xbbbd(%rip),%eax        # 219fc <g_1897+0x1c>
   15e3f:	25 ff ff 3f 00       	and    $0x3fffff,%eax
   15e44:	89 c1                	mov    %eax,%ecx
   15e46:	8b 45 f4             	mov    -0xc(%rbp),%eax
   15e49:	89 c2                	mov    %eax,%edx
   15e4b:	48 8d 35 cd 3c 00 00 	lea    0x3ccd(%rip),%rsi        # 19b1f <g_2539+0x10df>
   15e52:	48 89 cf             	mov    %rcx,%rdi
   15e55:	e8 99 38 ff ff       	callq  96f3 <transparent_crc>
   15e5a:	0f b7 05 9f bb 00 00 	movzwl 0xbb9f(%rip),%eax        # 21a00 <g_1897+0x20>
   15e61:	c1 e0 03             	shl    $0x3,%eax
   15e64:	66 c1 f8 03          	sar    $0x3,%ax
   15e68:	48 0f bf c0          	movswq %ax,%rax
   15e6c:	8b 55 f4             	mov    -0xc(%rbp),%edx
   15e6f:	48 8d 35 b3 3c 00 00 	lea    0x3cb3(%rip),%rsi        # 19b29 <g_2539+0x10e9>
   15e76:	48 89 c7             	mov    %rax,%rdi
   15e79:	e8 75 38 ff ff       	callq  96f3 <transparent_crc>
   15e7e:	8b 05 80 bb 00 00    	mov    0xbb80(%rip),%eax        # 21a04 <g_1897+0x24>
   15e84:	25 ff ff ff 7f       	and    $0x7fffffff,%eax
   15e89:	89 c1                	mov    %eax,%ecx
   15e8b:	8b 45 f4             	mov    -0xc(%rbp),%eax
   15e8e:	89 c2                	mov    %eax,%edx
   15e90:	48 8d 35 9c 3c 00 00 	lea    0x3c9c(%rip),%rsi        # 19b33 <g_2539+0x10f3>
   15e97:	48 89 cf             	mov    %rcx,%rdi
   15e9a:	e8 54 38 ff ff       	callq  96f3 <transparent_crc>
   15e9f:	0f b6 05 62 bb 00 00 	movzbl 0xbb62(%rip),%eax        # 21a08 <g_1971>
   15ea6:	48 0f be c0          	movsbq %al,%rax
   15eaa:	8b 55 f4             	mov    -0xc(%rbp),%edx
   15ead:	48 8d 35 89 3c 00 00 	lea    0x3c89(%rip),%rsi        # 19b3d <g_2539+0x10fd>
   15eb4:	48 89 c7             	mov    %rax,%rdi
   15eb7:	e8 37 38 ff ff       	callq  96f3 <transparent_crc>
   15ebc:	0f b7 05 47 bb 00 00 	movzwl 0xbb47(%rip),%eax        # 21a0a <g_2052>
   15ec3:	0f b7 c0             	movzwl %ax,%eax
   15ec6:	8b 55 f4             	mov    -0xc(%rbp),%edx
   15ec9:	48 8d 35 74 3c 00 00 	lea    0x3c74(%rip),%rsi        # 19b44 <g_2539+0x1104>
   15ed0:	48 89 c7             	mov    %rax,%rdi
   15ed3:	e8 1b 38 ff ff       	callq  96f3 <transparent_crc>
   15ed8:	8b 05 2e bb 00 00    	mov    0xbb2e(%rip),%eax        # 21a0c <g_2079>
   15ede:	89 c1                	mov    %eax,%ecx
   15ee0:	8b 45 f4             	mov    -0xc(%rbp),%eax
   15ee3:	89 c2                	mov    %eax,%edx
   15ee5:	48 8d 35 5f 3c 00 00 	lea    0x3c5f(%rip),%rsi        # 19b4b <g_2539+0x110b>
   15eec:	48 89 cf             	mov    %rcx,%rdi
   15eef:	e8 ff 37 ff ff       	callq  96f3 <transparent_crc>
   15ef4:	48 8b 05 15 bb 00 00 	mov    0xbb15(%rip),%rax        # 21a10 <g_2080>
   15efb:	48 89 c1             	mov    %rax,%rcx
   15efe:	8b 45 f4             	mov    -0xc(%rbp),%eax
   15f01:	89 c2                	mov    %eax,%edx
   15f03:	48 8d 35 48 3c 00 00 	lea    0x3c48(%rip),%rsi        # 19b52 <g_2539+0x1112>
   15f0a:	48 89 cf             	mov    %rcx,%rdi
   15f0d:	e8 e1 37 ff ff       	callq  96f3 <transparent_crc>
   15f12:	48 8b 05 ff ba 00 00 	mov    0xbaff(%rip),%rax        # 21a18 <g_2205>
   15f19:	48 89 c1             	mov    %rax,%rcx
   15f1c:	8b 45 f4             	mov    -0xc(%rbp),%eax
   15f1f:	89 c2                	mov    %eax,%edx
   15f21:	48 8d 35 31 3c 00 00 	lea    0x3c31(%rip),%rsi        # 19b59 <g_2539+0x1119>
   15f28:	48 89 cf             	mov    %rcx,%rdi
   15f2b:	e8 c3 37 ff ff       	callq  96f3 <transparent_crc>
   15f30:	0f b7 05 e9 ba 00 00 	movzwl 0xbae9(%rip),%eax        # 21a20 <g_2211>
   15f37:	48 0f bf c0          	movswq %ax,%rax
   15f3b:	8b 55 f4             	mov    -0xc(%rbp),%edx
   15f3e:	48 8d 35 1b 3c 00 00 	lea    0x3c1b(%rip),%rsi        # 19b60 <g_2539+0x1120>
   15f45:	48 89 c7             	mov    %rax,%rdi
   15f48:	e8 a6 37 ff ff       	callq  96f3 <transparent_crc>
   15f4d:	8b 05 d1 ba 00 00    	mov    0xbad1(%rip),%eax        # 21a24 <g_2372>
   15f53:	48 98                	cltq   
   15f55:	8b 55 f4             	mov    -0xc(%rbp),%edx
   15f58:	48 8d 35 08 3c 00 00 	lea    0x3c08(%rip),%rsi        # 19b67 <g_2539+0x1127>
   15f5f:	48 89 c7             	mov    %rax,%rdi
   15f62:	e8 8c 37 ff ff       	callq  96f3 <transparent_crc>
   15f67:	8b 05 bb ba 00 00    	mov    0xbabb(%rip),%eax        # 21a28 <g_2418>
   15f6d:	48 98                	cltq   
   15f6f:	8b 55 f4             	mov    -0xc(%rbp),%edx
   15f72:	48 8d 35 f5 3b 00 00 	lea    0x3bf5(%rip),%rsi        # 19b6e <g_2539+0x112e>
   15f79:	48 89 c7             	mov    %rax,%rdi
   15f7c:	e8 72 37 ff ff       	callq  96f3 <transparent_crc>
   15f81:	8b 05 a5 ba 00 00    	mov    0xbaa5(%rip),%eax        # 21a2c <g_2427>
   15f87:	89 c1                	mov    %eax,%ecx
   15f89:	8b 45 f4             	mov    -0xc(%rbp),%eax
   15f8c:	89 c2                	mov    %eax,%edx
   15f8e:	48 8d 35 e0 3b 00 00 	lea    0x3be0(%rip),%rsi        # 19b75 <g_2539+0x1135>
   15f95:	48 89 cf             	mov    %rcx,%rdi
   15f98:	e8 56 37 ff ff       	callq  96f3 <transparent_crc>
   15f9d:	8b 05 8d ba 00 00    	mov    0xba8d(%rip),%eax        # 21a30 <g_2428>
   15fa3:	89 c1                	mov    %eax,%ecx
   15fa5:	8b 45 f4             	mov    -0xc(%rbp),%eax
   15fa8:	89 c2                	mov    %eax,%edx
   15faa:	48 8d 35 cb 3b 00 00 	lea    0x3bcb(%rip),%rsi        # 19b7c <g_2539+0x113c>
   15fb1:	48 89 cf             	mov    %rcx,%rdi
   15fb4:	e8 3a 37 ff ff       	callq  96f3 <transparent_crc>
   15fb9:	8b 05 75 ba 00 00    	mov    0xba75(%rip),%eax        # 21a34 <g_2429>
   15fbf:	89 c1                	mov    %eax,%ecx
   15fc1:	8b 45 f4             	mov    -0xc(%rbp),%eax
   15fc4:	89 c2                	mov    %eax,%edx
   15fc6:	48 8d 35 b6 3b 00 00 	lea    0x3bb6(%rip),%rsi        # 19b83 <g_2539+0x1143>
   15fcd:	48 89 cf             	mov    %rcx,%rdi
   15fd0:	e8 1e 37 ff ff       	callq  96f3 <transparent_crc>
   15fd5:	8b 05 5d ba 00 00    	mov    0xba5d(%rip),%eax        # 21a38 <g_2430>
   15fdb:	89 c1                	mov    %eax,%ecx
   15fdd:	8b 45 f4             	mov    -0xc(%rbp),%eax
   15fe0:	89 c2                	mov    %eax,%edx
   15fe2:	48 8d 35 a1 3b 00 00 	lea    0x3ba1(%rip),%rsi        # 19b8a <g_2539+0x114a>
   15fe9:	48 89 cf             	mov    %rcx,%rdi
   15fec:	e8 02 37 ff ff       	callq  96f3 <transparent_crc>
   15ff1:	8b 05 45 ba 00 00    	mov    0xba45(%rip),%eax        # 21a3c <g_2431>
   15ff7:	89 c1                	mov    %eax,%ecx
   15ff9:	8b 45 f4             	mov    -0xc(%rbp),%eax
   15ffc:	89 c2                	mov    %eax,%edx
   15ffe:	48 8d 35 8c 3b 00 00 	lea    0x3b8c(%rip),%rsi        # 19b91 <g_2539+0x1151>
   16005:	48 89 cf             	mov    %rcx,%rdi
   16008:	e8 e6 36 ff ff       	callq  96f3 <transparent_crc>
   1600d:	8b 05 2d ba 00 00    	mov    0xba2d(%rip),%eax        # 21a40 <g_2432>
   16013:	89 c1                	mov    %eax,%ecx
   16015:	8b 45 f4             	mov    -0xc(%rbp),%eax
   16018:	89 c2                	mov    %eax,%edx
   1601a:	48 8d 35 77 3b 00 00 	lea    0x3b77(%rip),%rsi        # 19b98 <g_2539+0x1158>
   16021:	48 89 cf             	mov    %rcx,%rdi
   16024:	e8 ca 36 ff ff       	callq  96f3 <transparent_crc>
   16029:	8b 05 15 ba 00 00    	mov    0xba15(%rip),%eax        # 21a44 <g_2433>
   1602f:	89 c1                	mov    %eax,%ecx
   16031:	8b 45 f4             	mov    -0xc(%rbp),%eax
   16034:	89 c2                	mov    %eax,%edx
   16036:	48 8d 35 62 3b 00 00 	lea    0x3b62(%rip),%rsi        # 19b9f <g_2539+0x115f>
   1603d:	48 89 cf             	mov    %rcx,%rdi
   16040:	e8 ae 36 ff ff       	callq  96f3 <transparent_crc>
   16045:	8b 05 fd b9 00 00    	mov    0xb9fd(%rip),%eax        # 21a48 <g_2434>
   1604b:	89 c1                	mov    %eax,%ecx
   1604d:	8b 45 f4             	mov    -0xc(%rbp),%eax
   16050:	89 c2                	mov    %eax,%edx
   16052:	48 8d 35 4d 3b 00 00 	lea    0x3b4d(%rip),%rsi        # 19ba6 <g_2539+0x1166>
   16059:	48 89 cf             	mov    %rcx,%rdi
   1605c:	e8 92 36 ff ff       	callq  96f3 <transparent_crc>
   16061:	8b 05 e5 b9 00 00    	mov    0xb9e5(%rip),%eax        # 21a4c <g_2435>
   16067:	89 c1                	mov    %eax,%ecx
   16069:	8b 45 f4             	mov    -0xc(%rbp),%eax
   1606c:	89 c2                	mov    %eax,%edx
   1606e:	48 8d 35 38 3b 00 00 	lea    0x3b38(%rip),%rsi        # 19bad <g_2539+0x116d>
   16075:	48 89 cf             	mov    %rcx,%rdi
   16078:	e8 76 36 ff ff       	callq  96f3 <transparent_crc>
   1607d:	8b 05 cd b9 00 00    	mov    0xb9cd(%rip),%eax        # 21a50 <g_2436>
   16083:	89 c1                	mov    %eax,%ecx
   16085:	8b 45 f4             	mov    -0xc(%rbp),%eax
   16088:	89 c2                	mov    %eax,%edx
   1608a:	48 8d 35 23 3b 00 00 	lea    0x3b23(%rip),%rsi        # 19bb4 <g_2539+0x1174>
   16091:	48 89 cf             	mov    %rcx,%rdi
   16094:	e8 5a 36 ff ff       	callq  96f3 <transparent_crc>
   16099:	c7 45 e8 00 00 00 00 	movl   $0x0,-0x18(%rbp)
   160a0:	eb 76                	jmp    16118 <main+0x2f88>
   160a2:	c7 45 ec 00 00 00 00 	movl   $0x0,-0x14(%rbp)
   160a9:	eb 63                	jmp    1610e <main+0x2f7e>
   160ab:	8b 45 ec             	mov    -0x14(%rbp),%eax
   160ae:	48 63 c8             	movslq %eax,%rcx
   160b1:	8b 45 e8             	mov    -0x18(%rbp),%eax
   160b4:	48 63 d0             	movslq %eax,%rdx
   160b7:	48 89 d0             	mov    %rdx,%rax
   160ba:	48 01 c0             	add    %rax,%rax
   160bd:	48 01 d0             	add    %rdx,%rax
   160c0:	48 01 c8             	add    %rcx,%rax
   160c3:	48 8d 14 85 00 00 00 	lea    0x0(,%rax,4),%rdx
   160ca:	00 
   160cb:	48 8d 05 8e b9 00 00 	lea    0xb98e(%rip),%rax        # 21a60 <g_2437>
   160d2:	8b 04 02             	mov    (%rdx,%rax,1),%eax
   160d5:	89 c1                	mov    %eax,%ecx
   160d7:	8b 45 f4             	mov    -0xc(%rbp),%eax
   160da:	89 c2                	mov    %eax,%edx
   160dc:	48 8d 35 d8 3a 00 00 	lea    0x3ad8(%rip),%rsi        # 19bbb <g_2539+0x117b>
   160e3:	48 89 cf             	mov    %rcx,%rdi
   160e6:	e8 08 36 ff ff       	callq  96f3 <transparent_crc>
   160eb:	83 7d f4 00          	cmpl   $0x0,-0xc(%rbp)
   160ef:	74 19                	je     1610a <main+0x2f7a>
   160f1:	8b 55 ec             	mov    -0x14(%rbp),%edx
   160f4:	8b 45 e8             	mov    -0x18(%rbp),%eax
   160f7:	89 c6                	mov    %eax,%esi
   160f9:	48 8d 3d b8 32 00 00 	lea    0x32b8(%rip),%rdi        # 193b8 <g_2539+0x978>
   16100:	b8 00 00 00 00       	mov    $0x0,%eax
   16105:	e8 76 1f ff ff       	callq  8080 <printf@plt>
   1610a:	83 45 ec 01          	addl   $0x1,-0x14(%rbp)
   1610e:	83 7d ec 02          	cmpl   $0x2,-0x14(%rbp)
   16112:	7e 97                	jle    160ab <main+0x2f1b>
   16114:	83 45 e8 01          	addl   $0x1,-0x18(%rbp)
   16118:	83 7d e8 05          	cmpl   $0x5,-0x18(%rbp)
   1611c:	7e 84                	jle    160a2 <main+0x2f12>
   1611e:	8b 05 84 b9 00 00    	mov    0xb984(%rip),%eax        # 21aa8 <g_2438>
   16124:	89 c1                	mov    %eax,%ecx
   16126:	8b 45 f4             	mov    -0xc(%rbp),%eax
   16129:	89 c2                	mov    %eax,%edx
   1612b:	48 8d 35 96 3a 00 00 	lea    0x3a96(%rip),%rsi        # 19bc8 <g_2539+0x1188>
   16132:	48 89 cf             	mov    %rcx,%rdi
   16135:	e8 b9 35 ff ff       	callq  96f3 <transparent_crc>
   1613a:	8b 05 6c b9 00 00    	mov    0xb96c(%rip),%eax        # 21aac <g_2439>
   16140:	89 c1                	mov    %eax,%ecx
   16142:	8b 45 f4             	mov    -0xc(%rbp),%eax
   16145:	89 c2                	mov    %eax,%edx
   16147:	48 8d 35 81 3a 00 00 	lea    0x3a81(%rip),%rsi        # 19bcf <g_2539+0x118f>
   1614e:	48 89 cf             	mov    %rcx,%rdi
   16151:	e8 9d 35 ff ff       	callq  96f3 <transparent_crc>
   16156:	8b 05 54 b9 00 00    	mov    0xb954(%rip),%eax        # 21ab0 <g_2440>
   1615c:	89 c1                	mov    %eax,%ecx
   1615e:	8b 45 f4             	mov    -0xc(%rbp),%eax
   16161:	89 c2                	mov    %eax,%edx
   16163:	48 8d 35 6c 3a 00 00 	lea    0x3a6c(%rip),%rsi        # 19bd6 <g_2539+0x1196>
   1616a:	48 89 cf             	mov    %rcx,%rdi
   1616d:	e8 81 35 ff ff       	callq  96f3 <transparent_crc>
   16172:	8b 05 3c b9 00 00    	mov    0xb93c(%rip),%eax        # 21ab4 <g_2441>
   16178:	89 c1                	mov    %eax,%ecx
   1617a:	8b 45 f4             	mov    -0xc(%rbp),%eax
   1617d:	89 c2                	mov    %eax,%edx
   1617f:	48 8d 35 57 3a 00 00 	lea    0x3a57(%rip),%rsi        # 19bdd <g_2539+0x119d>
   16186:	48 89 cf             	mov    %rcx,%rdi
   16189:	e8 65 35 ff ff       	callq  96f3 <transparent_crc>
   1618e:	8b 05 24 b9 00 00    	mov    0xb924(%rip),%eax        # 21ab8 <g_2442>
   16194:	89 c1                	mov    %eax,%ecx
   16196:	8b 45 f4             	mov    -0xc(%rbp),%eax
   16199:	89 c2                	mov    %eax,%edx
   1619b:	48 8d 35 42 3a 00 00 	lea    0x3a42(%rip),%rsi        # 19be4 <g_2539+0x11a4>
   161a2:	48 89 cf             	mov    %rcx,%rdi
   161a5:	e8 49 35 ff ff       	callq  96f3 <transparent_crc>
   161aa:	8b 05 0c b9 00 00    	mov    0xb90c(%rip),%eax        # 21abc <g_2443>
   161b0:	89 c1                	mov    %eax,%ecx
   161b2:	8b 45 f4             	mov    -0xc(%rbp),%eax
   161b5:	89 c2                	mov    %eax,%edx
   161b7:	48 8d 35 2d 3a 00 00 	lea    0x3a2d(%rip),%rsi        # 19beb <g_2539+0x11ab>
   161be:	48 89 cf             	mov    %rcx,%rdi
   161c1:	e8 2d 35 ff ff       	callq  96f3 <transparent_crc>
   161c6:	8b 05 f4 b8 00 00    	mov    0xb8f4(%rip),%eax        # 21ac0 <g_2444>
   161cc:	89 c1                	mov    %eax,%ecx
   161ce:	8b 45 f4             	mov    -0xc(%rbp),%eax
   161d1:	89 c2                	mov    %eax,%edx
   161d3:	48 8d 35 18 3a 00 00 	lea    0x3a18(%rip),%rsi        # 19bf2 <g_2539+0x11b2>
   161da:	48 89 cf             	mov    %rcx,%rdi
   161dd:	e8 11 35 ff ff       	callq  96f3 <transparent_crc>
   161e2:	8b 05 dc b8 00 00    	mov    0xb8dc(%rip),%eax        # 21ac4 <g_2445>
   161e8:	89 c1                	mov    %eax,%ecx
   161ea:	8b 45 f4             	mov    -0xc(%rbp),%eax
   161ed:	89 c2                	mov    %eax,%edx
   161ef:	48 8d 35 03 3a 00 00 	lea    0x3a03(%rip),%rsi        # 19bf9 <g_2539+0x11b9>
   161f6:	48 89 cf             	mov    %rcx,%rdi
   161f9:	e8 f5 34 ff ff       	callq  96f3 <transparent_crc>
   161fe:	8b 05 c4 b8 00 00    	mov    0xb8c4(%rip),%eax        # 21ac8 <g_2446>
   16204:	89 c1                	mov    %eax,%ecx
   16206:	8b 45 f4             	mov    -0xc(%rbp),%eax
   16209:	89 c2                	mov    %eax,%edx
   1620b:	48 8d 35 ee 39 00 00 	lea    0x39ee(%rip),%rsi        # 19c00 <g_2539+0x11c0>
   16212:	48 89 cf             	mov    %rcx,%rdi
   16215:	e8 d9 34 ff ff       	callq  96f3 <transparent_crc>
   1621a:	8b 05 ac b8 00 00    	mov    0xb8ac(%rip),%eax        # 21acc <g_2447>
   16220:	89 c1                	mov    %eax,%ecx
   16222:	8b 45 f4             	mov    -0xc(%rbp),%eax
   16225:	89 c2                	mov    %eax,%edx
   16227:	48 8d 35 d9 39 00 00 	lea    0x39d9(%rip),%rsi        # 19c07 <g_2539+0x11c7>
   1622e:	48 89 cf             	mov    %rcx,%rdi
   16231:	e8 bd 34 ff ff       	callq  96f3 <transparent_crc>
   16236:	8b 05 94 b8 00 00    	mov    0xb894(%rip),%eax        # 21ad0 <g_2448>
   1623c:	89 c1                	mov    %eax,%ecx
   1623e:	8b 45 f4             	mov    -0xc(%rbp),%eax
   16241:	89 c2                	mov    %eax,%edx
   16243:	48 8d 35 c4 39 00 00 	lea    0x39c4(%rip),%rsi        # 19c0e <g_2539+0x11ce>
   1624a:	48 89 cf             	mov    %rcx,%rdi
   1624d:	e8 a1 34 ff ff       	callq  96f3 <transparent_crc>
   16252:	8b 05 7c b8 00 00    	mov    0xb87c(%rip),%eax        # 21ad4 <g_2449>
   16258:	89 c1                	mov    %eax,%ecx
   1625a:	8b 45 f4             	mov    -0xc(%rbp),%eax
   1625d:	89 c2                	mov    %eax,%edx
   1625f:	48 8d 35 af 39 00 00 	lea    0x39af(%rip),%rsi        # 19c15 <g_2539+0x11d5>
   16266:	48 89 cf             	mov    %rcx,%rdi
   16269:	e8 85 34 ff ff       	callq  96f3 <transparent_crc>
   1626e:	8b 05 4c f4 00 00    	mov    0xf44c(%rip),%eax        # 256c0 <g_2450>
   16274:	89 c1                	mov    %eax,%ecx
   16276:	8b 45 f4             	mov    -0xc(%rbp),%eax
   16279:	89 c2                	mov    %eax,%edx
   1627b:	48 8d 35 9a 39 00 00 	lea    0x399a(%rip),%rsi        # 19c1c <g_2539+0x11dc>
   16282:	48 89 cf             	mov    %rcx,%rdi
   16285:	e8 69 34 ff ff       	callq  96f3 <transparent_crc>
   1628a:	8b 05 48 b8 00 00    	mov    0xb848(%rip),%eax        # 21ad8 <g_2451>
   16290:	89 c1                	mov    %eax,%ecx
   16292:	8b 45 f4             	mov    -0xc(%rbp),%eax
   16295:	89 c2                	mov    %eax,%edx
   16297:	48 8d 35 85 39 00 00 	lea    0x3985(%rip),%rsi        # 19c23 <g_2539+0x11e3>
   1629e:	48 89 cf             	mov    %rcx,%rdi
   162a1:	e8 4d 34 ff ff       	callq  96f3 <transparent_crc>
   162a6:	c7 45 e8 00 00 00 00 	movl   $0x0,-0x18(%rbp)
   162ad:	e9 a1 00 00 00       	jmpq   16353 <main+0x31c3>
   162b2:	c7 45 ec 00 00 00 00 	movl   $0x0,-0x14(%rbp)
   162b9:	e9 87 00 00 00       	jmpq   16345 <main+0x31b5>
   162be:	c7 45 f0 00 00 00 00 	movl   $0x0,-0x10(%rbp)
   162c5:	eb 74                	jmp    1633b <main+0x31ab>
   162c7:	8b 45 f0             	mov    -0x10(%rbp),%eax
   162ca:	48 63 c8             	movslq %eax,%rcx
   162cd:	8b 45 e8             	mov    -0x18(%rbp),%eax
   162d0:	48 63 d0             	movslq %eax,%rdx
   162d3:	8b 45 ec             	mov    -0x14(%rbp),%eax
   162d6:	48 63 f0             	movslq %eax,%rsi
   162d9:	48 89 d0             	mov    %rdx,%rax
   162dc:	48 c1 e0 03          	shl    $0x3,%rax
   162e0:	48 29 d0             	sub    %rdx,%rax
   162e3:	48 01 f0             	add    %rsi,%rax
   162e6:	48 c1 e0 02          	shl    $0x2,%rax
   162ea:	48 01 c8             	add    %rcx,%rax
   162ed:	48 8d 14 85 00 00 00 	lea    0x0(,%rax,4),%rdx
   162f4:	00 
   162f5:	48 8d 05 e4 b7 00 00 	lea    0xb7e4(%rip),%rax        # 21ae0 <g_2452>
   162fc:	8b 04 02             	mov    (%rdx,%rax,1),%eax
   162ff:	89 c1                	mov    %eax,%ecx
   16301:	8b 45 f4             	mov    -0xc(%rbp),%eax
   16304:	89 c2                	mov    %eax,%edx
   16306:	48 8d 35 1d 39 00 00 	lea    0x391d(%rip),%rsi        # 19c2a <g_2539+0x11ea>
   1630d:	48 89 cf             	mov    %rcx,%rdi
   16310:	e8 de 33 ff ff       	callq  96f3 <transparent_crc>
   16315:	83 7d f4 00          	cmpl   $0x0,-0xc(%rbp)
   16319:	74 1c                	je     16337 <main+0x31a7>
   1631b:	8b 4d f0             	mov    -0x10(%rbp),%ecx
   1631e:	8b 55 ec             	mov    -0x14(%rbp),%edx
   16321:	8b 45 e8             	mov    -0x18(%rbp),%eax
   16324:	89 c6                	mov    %eax,%esi
   16326:	48 8d 3d e9 2e 00 00 	lea    0x2ee9(%rip),%rdi        # 19216 <g_2539+0x7d6>
   1632d:	b8 00 00 00 00       	mov    $0x0,%eax
   16332:	e8 49 1d ff ff       	callq  8080 <printf@plt>
   16337:	83 45 f0 01          	addl   $0x1,-0x10(%rbp)
   1633b:	83 7d f0 03          	cmpl   $0x3,-0x10(%rbp)
   1633f:	7e 86                	jle    162c7 <main+0x3137>
   16341:	83 45 ec 01          	addl   $0x1,-0x14(%rbp)
   16345:	83 7d ec 06          	cmpl   $0x6,-0x14(%rbp)
   16349:	0f 8e 6f ff ff ff    	jle    162be <main+0x312e>
   1634f:	83 45 e8 01          	addl   $0x1,-0x18(%rbp)
   16353:	83 7d e8 07          	cmpl   $0x7,-0x18(%rbp)
   16357:	0f 8e 55 ff ff ff    	jle    162b2 <main+0x3122>
   1635d:	c7 45 e8 00 00 00 00 	movl   $0x0,-0x18(%rbp)
   16364:	e9 9d 00 00 00       	jmpq   16406 <main+0x3276>
   16369:	c7 45 ec 00 00 00 00 	movl   $0x0,-0x14(%rbp)
   16370:	e9 83 00 00 00       	jmpq   163f8 <main+0x3268>
   16375:	c7 45 f0 00 00 00 00 	movl   $0x0,-0x10(%rbp)
   1637c:	eb 70                	jmp    163ee <main+0x325e>
   1637e:	8b 45 f0             	mov    -0x10(%rbp),%eax
   16381:	48 63 f0             	movslq %eax,%rsi
   16384:	8b 45 ec             	mov    -0x14(%rbp),%eax
   16387:	48 63 c8             	movslq %eax,%rcx
   1638a:	8b 45 e8             	mov    -0x18(%rbp),%eax
   1638d:	48 63 d0             	movslq %eax,%rdx
   16390:	48 89 d0             	mov    %rdx,%rax
   16393:	48 c1 e0 03          	shl    $0x3,%rax
   16397:	48 01 d0             	add    %rdx,%rax
   1639a:	48 01 f0             	add    %rsi,%rax
   1639d:	48 01 c8             	add    %rcx,%rax
   163a0:	48 8d 14 85 00 00 00 	lea    0x0(,%rax,4),%rdx
   163a7:	00 
   163a8:	48 8d 05 b1 ba 00 00 	lea    0xbab1(%rip),%rax        # 21e60 <g_2453>
   163af:	8b 04 02             	mov    (%rdx,%rax,1),%eax
   163b2:	89 c1                	mov    %eax,%ecx
   163b4:	8b 45 f4             	mov    -0xc(%rbp),%eax
   163b7:	89 c2                	mov    %eax,%edx
   163b9:	48 8d 35 7a 38 00 00 	lea    0x387a(%rip),%rsi        # 19c3a <g_2539+0x11fa>
   163c0:	48 89 cf             	mov    %rcx,%rdi
   163c3:	e8 2b 33 ff ff       	callq  96f3 <transparent_crc>
   163c8:	83 7d f4 00          	cmpl   $0x0,-0xc(%rbp)
   163cc:	74 1c                	je     163ea <main+0x325a>
   163ce:	8b 4d f0             	mov    -0x10(%rbp),%ecx
   163d1:	8b 55 ec             	mov    -0x14(%rbp),%edx
   163d4:	8b 45 e8             	mov    -0x18(%rbp),%eax
   163d7:	89 c6                	mov    %eax,%esi
   163d9:	48 8d 3d 36 2e 00 00 	lea    0x2e36(%rip),%rdi        # 19216 <g_2539+0x7d6>
   163e0:	b8 00 00 00 00       	mov    $0x0,%eax
   163e5:	e8 96 1c ff ff       	callq  8080 <printf@plt>
   163ea:	83 45 f0 01          	addl   $0x1,-0x10(%rbp)
   163ee:	83 7d f0 00          	cmpl   $0x0,-0x10(%rbp)
   163f2:	7e 8a                	jle    1637e <main+0x31ee>
   163f4:	83 45 ec 01          	addl   $0x1,-0x14(%rbp)
   163f8:	83 7d ec 08          	cmpl   $0x8,-0x14(%rbp)
   163fc:	0f 8e 73 ff ff ff    	jle    16375 <main+0x31e5>
   16402:	83 45 e8 01          	addl   $0x1,-0x18(%rbp)
   16406:	83 7d e8 04          	cmpl   $0x4,-0x18(%rbp)
   1640a:	0f 8e 59 ff ff ff    	jle    16369 <main+0x31d9>
   16410:	8b 05 fe ba 00 00    	mov    0xbafe(%rip),%eax        # 21f14 <g_2454>
   16416:	89 c1                	mov    %eax,%ecx
   16418:	8b 45 f4             	mov    -0xc(%rbp),%eax
   1641b:	89 c2                	mov    %eax,%edx
   1641d:	48 8d 35 26 38 00 00 	lea    0x3826(%rip),%rsi        # 19c4a <g_2539+0x120a>
   16424:	48 89 cf             	mov    %rcx,%rdi
   16427:	e8 c7 32 ff ff       	callq  96f3 <transparent_crc>
   1642c:	8b 05 e6 ba 00 00    	mov    0xbae6(%rip),%eax        # 21f18 <g_2455>
   16432:	89 c1                	mov    %eax,%ecx
   16434:	8b 45 f4             	mov    -0xc(%rbp),%eax
   16437:	89 c2                	mov    %eax,%edx
   16439:	48 8d 35 11 38 00 00 	lea    0x3811(%rip),%rsi        # 19c51 <g_2539+0x1211>
   16440:	48 89 cf             	mov    %rcx,%rdi
   16443:	e8 ab 32 ff ff       	callq  96f3 <transparent_crc>
   16448:	8b 05 ce ba 00 00    	mov    0xbace(%rip),%eax        # 21f1c <g_2456>
   1644e:	89 c1                	mov    %eax,%ecx
   16450:	8b 45 f4             	mov    -0xc(%rbp),%eax
   16453:	89 c2                	mov    %eax,%edx
   16455:	48 8d 35 fc 37 00 00 	lea    0x37fc(%rip),%rsi        # 19c58 <g_2539+0x1218>
   1645c:	48 89 cf             	mov    %rcx,%rdi
   1645f:	e8 8f 32 ff ff       	callq  96f3 <transparent_crc>
   16464:	8b 05 b6 ba 00 00    	mov    0xbab6(%rip),%eax        # 21f20 <g_2457>
   1646a:	89 c1                	mov    %eax,%ecx
   1646c:	8b 45 f4             	mov    -0xc(%rbp),%eax
   1646f:	89 c2                	mov    %eax,%edx
   16471:	48 8d 35 e7 37 00 00 	lea    0x37e7(%rip),%rsi        # 19c5f <g_2539+0x121f>
   16478:	48 89 cf             	mov    %rcx,%rdi
   1647b:	e8 73 32 ff ff       	callq  96f3 <transparent_crc>
   16480:	8b 05 9e ba 00 00    	mov    0xba9e(%rip),%eax        # 21f24 <g_2458>
   16486:	89 c1                	mov    %eax,%ecx
   16488:	8b 45 f4             	mov    -0xc(%rbp),%eax
   1648b:	89 c2                	mov    %eax,%edx
   1648d:	48 8d 35 d2 37 00 00 	lea    0x37d2(%rip),%rsi        # 19c66 <g_2539+0x1226>
   16494:	48 89 cf             	mov    %rcx,%rdi
   16497:	e8 57 32 ff ff       	callq  96f3 <transparent_crc>
   1649c:	c7 45 e8 00 00 00 00 	movl   $0x0,-0x18(%rbp)
   164a3:	eb 4d                	jmp    164f2 <main+0x3362>
   164a5:	8b 45 e8             	mov    -0x18(%rbp),%eax
   164a8:	48 98                	cltq   
   164aa:	48 8d 14 85 00 00 00 	lea    0x0(,%rax,4),%rdx
   164b1:	00 
   164b2:	48 8d 05 87 ba 00 00 	lea    0xba87(%rip),%rax        # 21f40 <g_2459>
   164b9:	8b 04 02             	mov    (%rdx,%rax,1),%eax
   164bc:	89 c1                	mov    %eax,%ecx
   164be:	8b 45 f4             	mov    -0xc(%rbp),%eax
   164c1:	89 c2                	mov    %eax,%edx
   164c3:	48 8d 35 a3 37 00 00 	lea    0x37a3(%rip),%rsi        # 19c6d <g_2539+0x122d>
   164ca:	48 89 cf             	mov    %rcx,%rdi
   164cd:	e8 21 32 ff ff       	callq  96f3 <transparent_crc>
   164d2:	83 7d f4 00          	cmpl   $0x0,-0xc(%rbp)
   164d6:	74 16                	je     164ee <main+0x335e>
   164d8:	8b 45 e8             	mov    -0x18(%rbp),%eax
   164db:	89 c6                	mov    %eax,%esi
   164dd:	48 8d 3d ff 2c 00 00 	lea    0x2cff(%rip),%rdi        # 191e3 <g_2539+0x7a3>
   164e4:	b8 00 00 00 00       	mov    $0x0,%eax
   164e9:	e8 92 1b ff ff       	callq  8080 <printf@plt>
   164ee:	83 45 e8 01          	addl   $0x1,-0x18(%rbp)
   164f2:	83 7d e8 09          	cmpl   $0x9,-0x18(%rbp)
   164f6:	7e ad                	jle    164a5 <main+0x3315>
   164f8:	8b 05 6a ba 00 00    	mov    0xba6a(%rip),%eax        # 21f68 <g_2460>
   164fe:	89 c1                	mov    %eax,%ecx
   16500:	8b 45 f4             	mov    -0xc(%rbp),%eax
   16503:	89 c2                	mov    %eax,%edx
   16505:	48 8d 35 6b 37 00 00 	lea    0x376b(%rip),%rsi        # 19c77 <g_2539+0x1237>
   1650c:	48 89 cf             	mov    %rcx,%rdi
   1650f:	e8 df 31 ff ff       	callq  96f3 <transparent_crc>
   16514:	8b 05 52 ba 00 00    	mov    0xba52(%rip),%eax        # 21f6c <g_2461>
   1651a:	89 c1                	mov    %eax,%ecx
   1651c:	8b 45 f4             	mov    -0xc(%rbp),%eax
   1651f:	89 c2                	mov    %eax,%edx
   16521:	48 8d 35 56 37 00 00 	lea    0x3756(%rip),%rsi        # 19c7e <g_2539+0x123e>
   16528:	48 89 cf             	mov    %rcx,%rdi
   1652b:	e8 c3 31 ff ff       	callq  96f3 <transparent_crc>
   16530:	8b 05 3a ba 00 00    	mov    0xba3a(%rip),%eax        # 21f70 <g_2462>
   16536:	89 c1                	mov    %eax,%ecx
   16538:	8b 45 f4             	mov    -0xc(%rbp),%eax
   1653b:	89 c2                	mov    %eax,%edx
   1653d:	48 8d 35 41 37 00 00 	lea    0x3741(%rip),%rsi        # 19c85 <g_2539+0x1245>
   16544:	48 89 cf             	mov    %rcx,%rdi
   16547:	e8 a7 31 ff ff       	callq  96f3 <transparent_crc>
   1654c:	8b 05 22 ba 00 00    	mov    0xba22(%rip),%eax        # 21f74 <g_2463>
   16552:	89 c1                	mov    %eax,%ecx
   16554:	8b 45 f4             	mov    -0xc(%rbp),%eax
   16557:	89 c2                	mov    %eax,%edx
   16559:	48 8d 35 2c 37 00 00 	lea    0x372c(%rip),%rsi        # 19c8c <g_2539+0x124c>
   16560:	48 89 cf             	mov    %rcx,%rdi
   16563:	e8 8b 31 ff ff       	callq  96f3 <transparent_crc>
   16568:	8b 05 0a ba 00 00    	mov    0xba0a(%rip),%eax        # 21f78 <g_2464>
   1656e:	89 c1                	mov    %eax,%ecx
   16570:	8b 45 f4             	mov    -0xc(%rbp),%eax
   16573:	89 c2                	mov    %eax,%edx
   16575:	48 8d 35 17 37 00 00 	lea    0x3717(%rip),%rsi        # 19c93 <g_2539+0x1253>
   1657c:	48 89 cf             	mov    %rcx,%rdi
   1657f:	e8 6f 31 ff ff       	callq  96f3 <transparent_crc>
   16584:	8b 05 f2 b9 00 00    	mov    0xb9f2(%rip),%eax        # 21f7c <g_2465>
   1658a:	89 c1                	mov    %eax,%ecx
   1658c:	8b 45 f4             	mov    -0xc(%rbp),%eax
   1658f:	89 c2                	mov    %eax,%edx
   16591:	48 8d 35 02 37 00 00 	lea    0x3702(%rip),%rsi        # 19c9a <g_2539+0x125a>
   16598:	48 89 cf             	mov    %rcx,%rdi
   1659b:	e8 53 31 ff ff       	callq  96f3 <transparent_crc>
   165a0:	8b 05 da b9 00 00    	mov    0xb9da(%rip),%eax        # 21f80 <g_2466>
   165a6:	89 c1                	mov    %eax,%ecx
   165a8:	8b 45 f4             	mov    -0xc(%rbp),%eax
   165ab:	89 c2                	mov    %eax,%edx
   165ad:	48 8d 35 ed 36 00 00 	lea    0x36ed(%rip),%rsi        # 19ca1 <g_2539+0x1261>
   165b4:	48 89 cf             	mov    %rcx,%rdi
   165b7:	e8 37 31 ff ff       	callq  96f3 <transparent_crc>
   165bc:	8b 05 c2 b9 00 00    	mov    0xb9c2(%rip),%eax        # 21f84 <g_2467>
   165c2:	89 c1                	mov    %eax,%ecx
   165c4:	8b 45 f4             	mov    -0xc(%rbp),%eax
   165c7:	89 c2                	mov    %eax,%edx
   165c9:	48 8d 35 d8 36 00 00 	lea    0x36d8(%rip),%rsi        # 19ca8 <g_2539+0x1268>
   165d0:	48 89 cf             	mov    %rcx,%rdi
   165d3:	e8 1b 31 ff ff       	callq  96f3 <transparent_crc>
   165d8:	8b 05 aa b9 00 00    	mov    0xb9aa(%rip),%eax        # 21f88 <g_2468>
   165de:	89 c1                	mov    %eax,%ecx
   165e0:	8b 45 f4             	mov    -0xc(%rbp),%eax
   165e3:	89 c2                	mov    %eax,%edx
   165e5:	48 8d 35 c3 36 00 00 	lea    0x36c3(%rip),%rsi        # 19caf <g_2539+0x126f>
   165ec:	48 89 cf             	mov    %rcx,%rdi
   165ef:	e8 ff 30 ff ff       	callq  96f3 <transparent_crc>
   165f4:	8b 05 92 b9 00 00    	mov    0xb992(%rip),%eax        # 21f8c <g_2469>
   165fa:	89 c1                	mov    %eax,%ecx
   165fc:	8b 45 f4             	mov    -0xc(%rbp),%eax
   165ff:	89 c2                	mov    %eax,%edx
   16601:	48 8d 35 ae 36 00 00 	lea    0x36ae(%rip),%rsi        # 19cb6 <g_2539+0x1276>
   16608:	48 89 cf             	mov    %rcx,%rdi
   1660b:	e8 e3 30 ff ff       	callq  96f3 <transparent_crc>
   16610:	8b 05 7a b9 00 00    	mov    0xb97a(%rip),%eax        # 21f90 <g_2470>
   16616:	89 c1                	mov    %eax,%ecx
   16618:	8b 45 f4             	mov    -0xc(%rbp),%eax
   1661b:	89 c2                	mov    %eax,%edx
   1661d:	48 8d 35 99 36 00 00 	lea    0x3699(%rip),%rsi        # 19cbd <g_2539+0x127d>
   16624:	48 89 cf             	mov    %rcx,%rdi
   16627:	e8 c7 30 ff ff       	callq  96f3 <transparent_crc>
   1662c:	c7 45 e8 00 00 00 00 	movl   $0x0,-0x18(%rbp)
   16633:	eb 4d                	jmp    16682 <main+0x34f2>
   16635:	8b 45 e8             	mov    -0x18(%rbp),%eax
   16638:	48 98                	cltq   
   1663a:	48 8d 14 85 00 00 00 	lea    0x0(,%rax,4),%rdx
   16641:	00 
   16642:	48 8d 05 57 b9 00 00 	lea    0xb957(%rip),%rax        # 21fa0 <g_2471>
   16649:	8b 04 02             	mov    (%rdx,%rax,1),%eax
   1664c:	89 c1                	mov    %eax,%ecx
   1664e:	8b 45 f4             	mov    -0xc(%rbp),%eax
   16651:	89 c2                	mov    %eax,%edx
   16653:	48 8d 35 6a 36 00 00 	lea    0x366a(%rip),%rsi        # 19cc4 <g_2539+0x1284>
   1665a:	48 89 cf             	mov    %rcx,%rdi
   1665d:	e8 91 30 ff ff       	callq  96f3 <transparent_crc>
   16662:	83 7d f4 00          	cmpl   $0x0,-0xc(%rbp)
   16666:	74 16                	je     1667e <main+0x34ee>
   16668:	8b 45 e8             	mov    -0x18(%rbp),%eax
   1666b:	89 c6                	mov    %eax,%esi
   1666d:	48 8d 3d 6f 2b 00 00 	lea    0x2b6f(%rip),%rdi        # 191e3 <g_2539+0x7a3>
   16674:	b8 00 00 00 00       	mov    $0x0,%eax
   16679:	e8 02 1a ff ff       	callq  8080 <printf@plt>
   1667e:	83 45 e8 01          	addl   $0x1,-0x18(%rbp)
   16682:	83 7d e8 08          	cmpl   $0x8,-0x18(%rbp)
   16686:	7e ad                	jle    16635 <main+0x34a5>
   16688:	8b 05 36 b9 00 00    	mov    0xb936(%rip),%eax        # 21fc4 <g_2472>
   1668e:	89 c1                	mov    %eax,%ecx
   16690:	8b 45 f4             	mov    -0xc(%rbp),%eax
   16693:	89 c2                	mov    %eax,%edx
   16695:	48 8d 35 32 36 00 00 	lea    0x3632(%rip),%rsi        # 19cce <g_2539+0x128e>
   1669c:	48 89 cf             	mov    %rcx,%rdi
   1669f:	e8 4f 30 ff ff       	callq  96f3 <transparent_crc>
   166a4:	8b 05 1e b9 00 00    	mov    0xb91e(%rip),%eax        # 21fc8 <g_2473>
   166aa:	89 c1                	mov    %eax,%ecx
   166ac:	8b 45 f4             	mov    -0xc(%rbp),%eax
   166af:	89 c2                	mov    %eax,%edx
   166b1:	48 8d 35 1d 36 00 00 	lea    0x361d(%rip),%rsi        # 19cd5 <g_2539+0x1295>
   166b8:	48 89 cf             	mov    %rcx,%rdi
   166bb:	e8 33 30 ff ff       	callq  96f3 <transparent_crc>
   166c0:	c7 45 e8 00 00 00 00 	movl   $0x0,-0x18(%rbp)
   166c7:	eb 4b                	jmp    16714 <main+0x3584>
   166c9:	8b 45 e8             	mov    -0x18(%rbp),%eax
   166cc:	48 98                	cltq   
   166ce:	48 8d 14 85 00 00 00 	lea    0x0(,%rax,4),%rdx
   166d5:	00 
   166d6:	48 8d 05 f3 b8 00 00 	lea    0xb8f3(%rip),%rax        # 21fd0 <g_2530>
   166dd:	8b 04 02             	mov    (%rdx,%rax,1),%eax
   166e0:	48 98                	cltq   
   166e2:	8b 55 f4             	mov    -0xc(%rbp),%edx
   166e5:	48 8d 35 f0 35 00 00 	lea    0x35f0(%rip),%rsi        # 19cdc <g_2539+0x129c>
   166ec:	48 89 c7             	mov    %rax,%rdi
   166ef:	e8 ff 2f ff ff       	callq  96f3 <transparent_crc>
   166f4:	83 7d f4 00          	cmpl   $0x0,-0xc(%rbp)
   166f8:	74 16                	je     16710 <main+0x3580>
   166fa:	8b 45 e8             	mov    -0x18(%rbp),%eax
   166fd:	89 c6                	mov    %eax,%esi
   166ff:	48 8d 3d dd 2a 00 00 	lea    0x2add(%rip),%rdi        # 191e3 <g_2539+0x7a3>
   16706:	b8 00 00 00 00       	mov    $0x0,%eax
   1670b:	e8 70 19 ff ff       	callq  8080 <printf@plt>
   16710:	83 45 e8 01          	addl   $0x1,-0x18(%rbp)
   16714:	83 7d e8 06          	cmpl   $0x6,-0x18(%rbp)
   16718:	7e af                	jle    166c9 <main+0x3539>
   1671a:	c7 45 e8 00 00 00 00 	movl   $0x0,-0x18(%rbp)
   16721:	e9 1e 03 00 00       	jmpq   16a44 <main+0x38b4>
   16726:	c7 45 ec 00 00 00 00 	movl   $0x0,-0x14(%rbp)
   1672d:	e9 04 03 00 00       	jmpq   16a36 <main+0x38a6>
   16732:	8b 45 ec             	mov    -0x14(%rbp),%eax
   16735:	48 63 d0             	movslq %eax,%rdx
   16738:	8b 45 e8             	mov    -0x18(%rbp),%eax
   1673b:	48 63 c8             	movslq %eax,%rcx
   1673e:	48 89 d0             	mov    %rdx,%rax
   16741:	48 c1 e0 02          	shl    $0x2,%rax
   16745:	48 01 d0             	add    %rdx,%rax
   16748:	48 c1 e0 03          	shl    $0x3,%rax
   1674c:	48 89 ca             	mov    %rcx,%rdx
   1674f:	48 c1 e2 04          	shl    $0x4,%rdx
   16753:	48 29 ca             	sub    %rcx,%rdx
   16756:	48 c1 e2 04          	shl    $0x4,%rdx
   1675a:	48 01 c2             	add    %rax,%rdx
   1675d:	48 8d 05 fc 1f 00 00 	lea    0x1ffc(%rip),%rax        # 18760 <g_2538>
   16764:	48 01 d0             	add    %rdx,%rax
   16767:	8b 00                	mov    (%rax),%eax
   16769:	c1 e0 03             	shl    $0x3,%eax
   1676c:	c1 f8 03             	sar    $0x3,%eax
   1676f:	48 98                	cltq   
   16771:	8b 55 f4             	mov    -0xc(%rbp),%edx
   16774:	48 8d 35 6b 35 00 00 	lea    0x356b(%rip),%rsi        # 19ce6 <g_2539+0x12a6>
   1677b:	48 89 c7             	mov    %rax,%rdi
   1677e:	e8 70 2f ff ff       	callq  96f3 <transparent_crc>
   16783:	8b 45 ec             	mov    -0x14(%rbp),%eax
   16786:	48 63 d0             	movslq %eax,%rdx
   16789:	8b 45 e8             	mov    -0x18(%rbp),%eax
   1678c:	48 63 c8             	movslq %eax,%rcx
   1678f:	48 89 d0             	mov    %rdx,%rax
   16792:	48 c1 e0 02          	shl    $0x2,%rax
   16796:	48 01 d0             	add    %rdx,%rax
   16799:	48 c1 e0 03          	shl    $0x3,%rax
   1679d:	48 89 ca             	mov    %rcx,%rdx
   167a0:	48 c1 e2 04          	shl    $0x4,%rdx
   167a4:	48 29 ca             	sub    %rcx,%rdx
   167a7:	48 c1 e2 04          	shl    $0x4,%rdx
   167ab:	48 01 c2             	add    %rax,%rdx
   167ae:	48 8d 05 b3 1f 00 00 	lea    0x1fb3(%rip),%rax        # 18768 <g_2538+0x8>
   167b5:	48 01 d0             	add    %rdx,%rax
   167b8:	48 8b 00             	mov    (%rax),%rax
   167bb:	48 89 c1             	mov    %rax,%rcx
   167be:	8b 45 f4             	mov    -0xc(%rbp),%eax
   167c1:	89 c2                	mov    %eax,%edx
   167c3:	48 8d 35 2c 35 00 00 	lea    0x352c(%rip),%rsi        # 19cf6 <g_2539+0x12b6>
   167ca:	48 89 cf             	mov    %rcx,%rdi
   167cd:	e8 21 2f ff ff       	callq  96f3 <transparent_crc>
   167d2:	8b 45 ec             	mov    -0x14(%rbp),%eax
   167d5:	48 63 d0             	movslq %eax,%rdx
   167d8:	8b 45 e8             	mov    -0x18(%rbp),%eax
   167db:	48 63 c8             	movslq %eax,%rcx
   167de:	48 89 d0             	mov    %rdx,%rax
   167e1:	48 c1 e0 02          	shl    $0x2,%rax
   167e5:	48 01 d0             	add    %rdx,%rax
   167e8:	48 c1 e0 03          	shl    $0x3,%rax
   167ec:	48 89 ca             	mov    %rcx,%rdx
   167ef:	48 c1 e2 04          	shl    $0x4,%rdx
   167f3:	48 29 ca             	sub    %rcx,%rdx
   167f6:	48 c1 e2 04          	shl    $0x4,%rdx
   167fa:	48 01 c2             	add    %rax,%rdx
   167fd:	48 8d 05 6c 1f 00 00 	lea    0x1f6c(%rip),%rax        # 18770 <g_2538+0x10>
   16804:	48 01 d0             	add    %rdx,%rax
   16807:	0f b6 00             	movzbl (%rax),%eax
   1680a:	83 e0 0f             	and    $0xf,%eax
   1680d:	0f b6 c0             	movzbl %al,%eax
   16810:	8b 55 f4             	mov    -0xc(%rbp),%edx
   16813:	48 8d 35 ec 34 00 00 	lea    0x34ec(%rip),%rsi        # 19d06 <g_2539+0x12c6>
   1681a:	48 89 c7             	mov    %rax,%rdi
   1681d:	e8 d1 2e ff ff       	callq  96f3 <transparent_crc>
   16822:	8b 45 ec             	mov    -0x14(%rbp),%eax
   16825:	48 63 d0             	movslq %eax,%rdx
   16828:	8b 45 e8             	mov    -0x18(%rbp),%eax
   1682b:	48 63 c8             	movslq %eax,%rcx
   1682e:	48 89 d0             	mov    %rdx,%rax
   16831:	48 c1 e0 02          	shl    $0x2,%rax
   16835:	48 01 d0             	add    %rdx,%rax
   16838:	48 c1 e0 03          	shl    $0x3,%rax
   1683c:	48 89 ca             	mov    %rcx,%rdx
   1683f:	48 c1 e2 04          	shl    $0x4,%rdx
   16843:	48 29 ca             	sub    %rcx,%rdx
   16846:	48 c1 e2 04          	shl    $0x4,%rdx
   1684a:	48 01 c2             	add    %rax,%rdx
   1684d:	48 8d 05 1c 1f 00 00 	lea    0x1f1c(%rip),%rax        # 18770 <g_2538+0x10>
   16854:	48 01 d0             	add    %rdx,%rax
   16857:	8b 00                	mov    (%rax),%eax
   16859:	01 c0                	add    %eax,%eax
   1685b:	c1 f8 05             	sar    $0x5,%eax
   1685e:	48 98                	cltq   
   16860:	8b 55 f4             	mov    -0xc(%rbp),%edx
   16863:	48 8d 35 ac 34 00 00 	lea    0x34ac(%rip),%rsi        # 19d16 <g_2539+0x12d6>
   1686a:	48 89 c7             	mov    %rax,%rdi
   1686d:	e8 81 2e ff ff       	callq  96f3 <transparent_crc>
   16872:	8b 45 ec             	mov    -0x14(%rbp),%eax
   16875:	48 63 d0             	movslq %eax,%rdx
   16878:	8b 45 e8             	mov    -0x18(%rbp),%eax
   1687b:	48 63 c8             	movslq %eax,%rcx
   1687e:	48 89 d0             	mov    %rdx,%rax
   16881:	48 c1 e0 02          	shl    $0x2,%rax
   16885:	48 01 d0             	add    %rdx,%rax
   16888:	48 c1 e0 03          	shl    $0x3,%rax
   1688c:	48 89 ca             	mov    %rcx,%rdx
   1688f:	48 c1 e2 04          	shl    $0x4,%rdx
   16893:	48 29 ca             	sub    %rcx,%rdx
   16896:	48 c1 e2 04          	shl    $0x4,%rdx
   1689a:	48 01 c2             	add    %rax,%rdx
   1689d:	48 8d 05 cc 1e 00 00 	lea    0x1ecc(%rip),%rax        # 18770 <g_2538+0x10>
   168a4:	48 01 d0             	add    %rdx,%rax
   168a7:	48 8b 00             	mov    (%rax),%rax
   168aa:	48 c1 e0 03          	shl    $0x3,%rax
   168ae:	48 c1 f8 23          	sar    $0x23,%rax
   168b2:	48 98                	cltq   
   168b4:	8b 55 f4             	mov    -0xc(%rbp),%edx
   168b7:	48 8d 35 68 34 00 00 	lea    0x3468(%rip),%rsi        # 19d26 <g_2539+0x12e6>
   168be:	48 89 c7             	mov    %rax,%rdi
   168c1:	e8 2d 2e ff ff       	callq  96f3 <transparent_crc>
   168c6:	8b 45 ec             	mov    -0x14(%rbp),%eax
   168c9:	48 63 d0             	movslq %eax,%rdx
   168cc:	8b 45 e8             	mov    -0x18(%rbp),%eax
   168cf:	48 63 c8             	movslq %eax,%rcx
   168d2:	48 89 d0             	mov    %rdx,%rax
   168d5:	48 c1 e0 02          	shl    $0x2,%rax
   168d9:	48 01 d0             	add    %rdx,%rax
   168dc:	48 c1 e0 03          	shl    $0x3,%rax
   168e0:	48 89 ca             	mov    %rcx,%rdx
   168e3:	48 c1 e2 04          	shl    $0x4,%rdx
   168e7:	48 29 ca             	sub    %rcx,%rdx
   168ea:	48 c1 e2 04          	shl    $0x4,%rdx
   168ee:	48 01 c2             	add    %rax,%rdx
   168f1:	48 8d 05 78 1e 00 00 	lea    0x1e78(%rip),%rax        # 18770 <g_2538+0x10>
   168f8:	48 01 d0             	add    %rdx,%rax
   168fb:	0f b7 40 08          	movzwl 0x8(%rax),%eax
   168ff:	66 25 ff 0f          	and    $0xfff,%ax
   16903:	0f b7 c0             	movzwl %ax,%eax
   16906:	8b 55 f4             	mov    -0xc(%rbp),%edx
   16909:	48 8d 35 26 34 00 00 	lea    0x3426(%rip),%rsi        # 19d36 <g_2539+0x12f6>
   16910:	48 89 c7             	mov    %rax,%rdi
   16913:	e8 db 2d ff ff       	callq  96f3 <transparent_crc>
   16918:	8b 45 ec             	mov    -0x14(%rbp),%eax
   1691b:	48 63 d0             	movslq %eax,%rdx
   1691e:	8b 45 e8             	mov    -0x18(%rbp),%eax
   16921:	48 63 c8             	movslq %eax,%rcx
   16924:	48 89 d0             	mov    %rdx,%rax
   16927:	48 c1 e0 02          	shl    $0x2,%rax
   1692b:	48 01 d0             	add    %rdx,%rax
   1692e:	48 c1 e0 03          	shl    $0x3,%rax
   16932:	48 89 ca             	mov    %rcx,%rdx
   16935:	48 c1 e2 04          	shl    $0x4,%rdx
   16939:	48 29 ca             	sub    %rcx,%rdx
   1693c:	48 c1 e2 04          	shl    $0x4,%rdx
   16940:	48 01 c2             	add    %rax,%rdx
   16943:	48 8d 05 26 1e 00 00 	lea    0x1e26(%rip),%rax        # 18770 <g_2538+0x10>
   1694a:	48 01 d0             	add    %rdx,%rax
   1694d:	8b 40 0c             	mov    0xc(%rax),%eax
   16950:	25 ff ff 3f 00       	and    $0x3fffff,%eax
   16955:	89 c1                	mov    %eax,%ecx
   16957:	8b 45 f4             	mov    -0xc(%rbp),%eax
   1695a:	89 c2                	mov    %eax,%edx
   1695c:	48 8d 35 e3 33 00 00 	lea    0x33e3(%rip),%rsi        # 19d46 <g_2539+0x1306>
   16963:	48 89 cf             	mov    %rcx,%rdi
   16966:	e8 88 2d ff ff       	callq  96f3 <transparent_crc>
   1696b:	8b 45 ec             	mov    -0x14(%rbp),%eax
   1696e:	48 63 d0             	movslq %eax,%rdx
   16971:	8b 45 e8             	mov    -0x18(%rbp),%eax
   16974:	48 63 c8             	movslq %eax,%rcx
   16977:	48 89 d0             	mov    %rdx,%rax
   1697a:	48 c1 e0 02          	shl    $0x2,%rax
   1697e:	48 01 d0             	add    %rdx,%rax
   16981:	48 c1 e0 03          	shl    $0x3,%rax
   16985:	48 89 ca             	mov    %rcx,%rdx
   16988:	48 c1 e2 04          	shl    $0x4,%rdx
   1698c:	48 29 ca             	sub    %rcx,%rdx
   1698f:	48 c1 e2 04          	shl    $0x4,%rdx
   16993:	48 01 c2             	add    %rax,%rdx
   16996:	48 8d 05 e3 1d 00 00 	lea    0x1de3(%rip),%rax        # 18780 <g_2538+0x20>
   1699d:	48 01 d0             	add    %rdx,%rax
   169a0:	0f b7 00             	movzwl (%rax),%eax
   169a3:	c1 e0 03             	shl    $0x3,%eax
   169a6:	66 c1 f8 03          	sar    $0x3,%ax
   169aa:	48 0f bf c0          	movswq %ax,%rax
   169ae:	8b 55 f4             	mov    -0xc(%rbp),%edx
   169b1:	48 8d 35 9e 33 00 00 	lea    0x339e(%rip),%rsi        # 19d56 <g_2539+0x1316>
   169b8:	48 89 c7             	mov    %rax,%rdi
   169bb:	e8 33 2d ff ff       	callq  96f3 <transparent_crc>
   169c0:	8b 45 ec             	mov    -0x14(%rbp),%eax
   169c3:	48 63 d0             	movslq %eax,%rdx
   169c6:	8b 45 e8             	mov    -0x18(%rbp),%eax
   169c9:	48 63 c8             	movslq %eax,%rcx
   169cc:	48 89 d0             	mov    %rdx,%rax
   169cf:	48 c1 e0 02          	shl    $0x2,%rax
   169d3:	48 01 d0             	add    %rdx,%rax
   169d6:	48 c1 e0 03          	shl    $0x3,%rax
   169da:	48 89 ca             	mov    %rcx,%rdx
   169dd:	48 c1 e2 04          	shl    $0x4,%rdx
   169e1:	48 29 ca             	sub    %rcx,%rdx
   169e4:	48 c1 e2 04          	shl    $0x4,%rdx
   169e8:	48 01 c2             	add    %rax,%rdx
   169eb:	48 8d 05 8e 1d 00 00 	lea    0x1d8e(%rip),%rax        # 18780 <g_2538+0x20>
   169f2:	48 01 d0             	add    %rdx,%rax
   169f5:	8b 40 04             	mov    0x4(%rax),%eax
   169f8:	25 ff ff ff 7f       	and    $0x7fffffff,%eax
   169fd:	89 c1                	mov    %eax,%ecx
   169ff:	8b 45 f4             	mov    -0xc(%rbp),%eax
   16a02:	89 c2                	mov    %eax,%edx
   16a04:	48 8d 35 5b 33 00 00 	lea    0x335b(%rip),%rsi        # 19d66 <g_2539+0x1326>
   16a0b:	48 89 cf             	mov    %rcx,%rdi
   16a0e:	e8 e0 2c ff ff       	callq  96f3 <transparent_crc>
   16a13:	83 7d f4 00          	cmpl   $0x0,-0xc(%rbp)
   16a17:	74 19                	je     16a32 <main+0x38a2>
   16a19:	8b 55 ec             	mov    -0x14(%rbp),%edx
   16a1c:	8b 45 e8             	mov    -0x18(%rbp),%eax
   16a1f:	89 c6                	mov    %eax,%esi
   16a21:	48 8d 3d 90 29 00 00 	lea    0x2990(%rip),%rdi        # 193b8 <g_2539+0x978>
   16a28:	b8 00 00 00 00       	mov    $0x0,%eax
   16a2d:	e8 4e 16 ff ff       	callq  8080 <printf@plt>
   16a32:	83 45 ec 01          	addl   $0x1,-0x14(%rbp)
   16a36:	83 7d ec 05          	cmpl   $0x5,-0x14(%rbp)
   16a3a:	0f 8e f2 fc ff ff    	jle    16732 <main+0x35a2>
   16a40:	83 45 e8 01          	addl   $0x1,-0x18(%rbp)
   16a44:	83 7d e8 02          	cmpl   $0x2,-0x18(%rbp)
   16a48:	0f 8e d8 fc ff ff    	jle    16726 <main+0x3596>
   16a4e:	b8 3a 31 00 00       	mov    $0x313a,%eax
   16a53:	48 98                	cltq   
   16a55:	8b 55 f4             	mov    -0xc(%rbp),%edx
   16a58:	48 8d 35 17 33 00 00 	lea    0x3317(%rip),%rsi        # 19d76 <g_2539+0x1336>
   16a5f:	48 89 c7             	mov    %rax,%rdi
   16a62:	e8 8c 2c ff ff       	callq  96f3 <transparent_crc>
   16a67:	b8 00 00 00 00       	mov    $0x0,%eax
   16a6c:	48 89 c1             	mov    %rax,%rcx
   16a6f:	8b 45 f4             	mov    -0xc(%rbp),%eax
   16a72:	89 c2                	mov    %eax,%edx
   16a74:	48 8d 35 05 33 00 00 	lea    0x3305(%rip),%rsi        # 19d80 <g_2539+0x1340>
   16a7b:	48 89 cf             	mov    %rcx,%rdi
   16a7e:	e8 70 2c ff ff       	callq  96f3 <transparent_crc>
   16a83:	b8 00 00 00 00       	mov    $0x0,%eax
   16a88:	0f b6 c0             	movzbl %al,%eax
   16a8b:	8b 55 f4             	mov    -0xc(%rbp),%edx
   16a8e:	48 8d 35 f5 32 00 00 	lea    0x32f5(%rip),%rsi        # 19d8a <g_2539+0x134a>
   16a95:	48 89 c7             	mov    %rax,%rdi
   16a98:	e8 56 2c ff ff       	callq  96f3 <transparent_crc>
   16a9d:	b8 83 0e 00 00       	mov    $0xe83,%eax
   16aa2:	48 98                	cltq   
   16aa4:	8b 55 f4             	mov    -0xc(%rbp),%edx
   16aa7:	48 8d 35 e6 32 00 00 	lea    0x32e6(%rip),%rsi        # 19d94 <g_2539+0x1354>
   16aae:	48 89 c7             	mov    %rax,%rdi
   16ab1:	e8 3d 2c ff ff       	callq  96f3 <transparent_crc>
   16ab6:	48 8b 05 93 1f 00 00 	mov    0x1f93(%rip),%rax        # 18a50 <g_2539+0x10>
   16abd:	48 c1 e0 03          	shl    $0x3,%rax
   16ac1:	48 c1 f8 23          	sar    $0x23,%rax
   16ac5:	48 98                	cltq   
   16ac7:	8b 55 f4             	mov    -0xc(%rbp),%edx
   16aca:	48 8d 35 cd 32 00 00 	lea    0x32cd(%rip),%rsi        # 19d9e <g_2539+0x135e>
   16ad1:	48 89 c7             	mov    %rax,%rdi
   16ad4:	e8 1a 2c ff ff       	callq  96f3 <transparent_crc>
   16ad9:	b8 29 00 00 00       	mov    $0x29,%eax
   16ade:	0f b7 c0             	movzwl %ax,%eax
   16ae1:	8b 55 f4             	mov    -0xc(%rbp),%edx
   16ae4:	48 8d 35 bd 32 00 00 	lea    0x32bd(%rip),%rsi        # 19da8 <g_2539+0x1368>
   16aeb:	48 89 c7             	mov    %rax,%rdi
   16aee:	e8 00 2c ff ff       	callq  96f3 <transparent_crc>
   16af3:	b8 fa 03 00 00       	mov    $0x3fa,%eax
   16af8:	89 c1                	mov    %eax,%ecx
   16afa:	8b 45 f4             	mov    -0xc(%rbp),%eax
   16afd:	89 c2                	mov    %eax,%edx
   16aff:	48 8d 35 ac 32 00 00 	lea    0x32ac(%rip),%rsi        # 19db2 <g_2539+0x1372>
   16b06:	48 89 cf             	mov    %rcx,%rdi
   16b09:	e8 e5 2b ff ff       	callq  96f3 <transparent_crc>
   16b0e:	b8 d7 ff ff ff       	mov    $0xffffffd7,%eax
   16b13:	48 0f bf c0          	movswq %ax,%rax
   16b17:	8b 55 f4             	mov    -0xc(%rbp),%edx
   16b1a:	48 8d 35 9b 32 00 00 	lea    0x329b(%rip),%rsi        # 19dbc <g_2539+0x137c>
   16b21:	48 89 c7             	mov    %rax,%rdi
   16b24:	e8 ca 2b ff ff       	callq  96f3 <transparent_crc>
   16b29:	b8 d5 1d 00 00       	mov    $0x1dd5,%eax
   16b2e:	89 c1                	mov    %eax,%ecx
   16b30:	8b 45 f4             	mov    -0xc(%rbp),%eax
   16b33:	89 c2                	mov    %eax,%edx
   16b35:	48 8d 35 8a 32 00 00 	lea    0x328a(%rip),%rsi        # 19dc6 <g_2539+0x1386>
   16b3c:	48 89 cf             	mov    %rcx,%rdi
   16b3f:	e8 af 2b ff ff       	callq  96f3 <transparent_crc>
   16b44:	8b 05 a2 b4 00 00    	mov    0xb4a2(%rip),%eax        # 21fec <g_2615>
   16b4a:	48 98                	cltq   
   16b4c:	8b 55 f4             	mov    -0xc(%rbp),%edx
   16b4f:	48 8d 35 7a 32 00 00 	lea    0x327a(%rip),%rsi        # 19dd0 <g_2539+0x1390>
   16b56:	48 89 c7             	mov    %rax,%rdi
   16b59:	e8 95 2b ff ff       	callq  96f3 <transparent_crc>
   16b5e:	48 8b 05 8b b4 00 00 	mov    0xb48b(%rip),%rax        # 21ff0 <g_2624>
   16b65:	48 89 c1             	mov    %rax,%rcx
   16b68:	8b 45 f4             	mov    -0xc(%rbp),%eax
   16b6b:	89 c2                	mov    %eax,%edx
   16b6d:	48 8d 35 63 32 00 00 	lea    0x3263(%rip),%rsi        # 19dd7 <g_2539+0x1397>
   16b74:	48 89 cf             	mov    %rcx,%rdi
   16b77:	e8 77 2b ff ff       	callq  96f3 <transparent_crc>
   16b7c:	0f b7 05 75 b4 00 00 	movzwl 0xb475(%rip),%eax        # 21ff8 <g_2668>
   16b83:	c1 e0 04             	shl    $0x4,%eax
   16b86:	66 c1 f8 04          	sar    $0x4,%ax
   16b8a:	48 0f bf c0          	movswq %ax,%rax
   16b8e:	8b 55 f4             	mov    -0xc(%rbp),%edx
   16b91:	48 8d 35 46 32 00 00 	lea    0x3246(%rip),%rsi        # 19dde <g_2539+0x139e>
   16b98:	48 89 c7             	mov    %rax,%rdi
   16b9b:	e8 53 2b ff ff       	callq  96f3 <transparent_crc>
   16ba0:	8b 05 52 b4 00 00    	mov    0xb452(%rip),%eax        # 21ff8 <g_2668>
   16ba6:	c1 e8 0c             	shr    $0xc,%eax
   16ba9:	25 ff ff 01 00       	and    $0x1ffff,%eax
   16bae:	89 c1                	mov    %eax,%ecx
   16bb0:	8b 45 f4             	mov    -0xc(%rbp),%eax
   16bb3:	89 c2                	mov    %eax,%edx
   16bb5:	48 8d 35 2c 32 00 00 	lea    0x322c(%rip),%rsi        # 19de8 <g_2539+0x13a8>
   16bbc:	48 89 cf             	mov    %rcx,%rdi
   16bbf:	e8 2f 2b ff ff       	callq  96f3 <transparent_crc>
   16bc4:	0f b7 05 31 b4 00 00 	movzwl 0xb431(%rip),%eax        # 21ffc <g_2668+0x4>
   16bcb:	0f b7 c0             	movzwl %ax,%eax
   16bce:	8b 55 f4             	mov    -0xc(%rbp),%edx
   16bd1:	48 8d 35 1a 32 00 00 	lea    0x321a(%rip),%rsi        # 19df2 <g_2539+0x13b2>
   16bd8:	48 89 c7             	mov    %rax,%rdi
   16bdb:	e8 13 2b ff ff       	callq  96f3 <transparent_crc>
   16be0:	48 8b 05 11 b4 00 00 	mov    0xb411(%rip),%rax        # 21ff8 <g_2668>
   16be7:	48 c1 e0 06          	shl    $0x6,%rax
   16beb:	48 c1 f8 36          	sar    $0x36,%rax
   16bef:	48 0f bf c0          	movswq %ax,%rax
   16bf3:	8b 55 f4             	mov    -0xc(%rbp),%edx
   16bf6:	48 8d 35 ff 31 00 00 	lea    0x31ff(%rip),%rsi        # 19dfc <g_2539+0x13bc>
   16bfd:	48 89 c7             	mov    %rax,%rdi
   16c00:	e8 ee 2a ff ff       	callq  96f3 <transparent_crc>
   16c05:	0f b7 05 f4 b3 00 00 	movzwl 0xb3f4(%rip),%eax        # 22000 <g_2669>
   16c0c:	c1 e0 04             	shl    $0x4,%eax
   16c0f:	66 c1 f8 04          	sar    $0x4,%ax
   16c13:	48 0f bf c0          	movswq %ax,%rax
   16c17:	8b 55 f4             	mov    -0xc(%rbp),%edx
   16c1a:	48 8d 35 e5 31 00 00 	lea    0x31e5(%rip),%rsi        # 19e06 <g_2539+0x13c6>
   16c21:	48 89 c7             	mov    %rax,%rdi
   16c24:	e8 ca 2a ff ff       	callq  96f3 <transparent_crc>
   16c29:	8b 05 d1 b3 00 00    	mov    0xb3d1(%rip),%eax        # 22000 <g_2669>
   16c2f:	c1 e8 0c             	shr    $0xc,%eax
   16c32:	25 ff ff 01 00       	and    $0x1ffff,%eax
   16c37:	89 c1                	mov    %eax,%ecx
   16c39:	8b 45 f4             	mov    -0xc(%rbp),%eax
   16c3c:	89 c2                	mov    %eax,%edx
   16c3e:	48 8d 35 cb 31 00 00 	lea    0x31cb(%rip),%rsi        # 19e10 <g_2539+0x13d0>
   16c45:	48 89 cf             	mov    %rcx,%rdi
   16c48:	e8 a6 2a ff ff       	callq  96f3 <transparent_crc>
   16c4d:	0f b7 05 b0 b3 00 00 	movzwl 0xb3b0(%rip),%eax        # 22004 <g_2669+0x4>
   16c54:	0f b7 c0             	movzwl %ax,%eax
   16c57:	8b 55 f4             	mov    -0xc(%rbp),%edx
   16c5a:	48 8d 35 b9 31 00 00 	lea    0x31b9(%rip),%rsi        # 19e1a <g_2539+0x13da>
   16c61:	48 89 c7             	mov    %rax,%rdi
   16c64:	e8 8a 2a ff ff       	callq  96f3 <transparent_crc>
   16c69:	48 8b 05 90 b3 00 00 	mov    0xb390(%rip),%rax        # 22000 <g_2669>
   16c70:	48 c1 e0 06          	shl    $0x6,%rax
   16c74:	48 c1 f8 36          	sar    $0x36,%rax
   16c78:	48 0f bf c0          	movswq %ax,%rax
   16c7c:	8b 55 f4             	mov    -0xc(%rbp),%edx
   16c7f:	48 8d 35 9e 31 00 00 	lea    0x319e(%rip),%rsi        # 19e24 <g_2539+0x13e4>
   16c86:	48 89 c7             	mov    %rax,%rdi
   16c89:	e8 65 2a ff ff       	callq  96f3 <transparent_crc>
   16c8e:	c7 45 e8 00 00 00 00 	movl   $0x0,-0x18(%rbp)
   16c95:	eb 49                	jmp    16ce0 <main+0x3b50>
   16c97:	8b 45 e8             	mov    -0x18(%rbp),%eax
   16c9a:	48 98                	cltq   
   16c9c:	48 8d 14 00          	lea    (%rax,%rax,1),%rdx
   16ca0:	48 8d 05 61 b3 00 00 	lea    0xb361(%rip),%rax        # 22008 <g_2756>
   16ca7:	0f b7 04 02          	movzwl (%rdx,%rax,1),%eax
   16cab:	0f b7 c0             	movzwl %ax,%eax
   16cae:	8b 55 f4             	mov    -0xc(%rbp),%edx
   16cb1:	48 8d 35 76 31 00 00 	lea    0x3176(%rip),%rsi        # 19e2e <g_2539+0x13ee>
   16cb8:	48 89 c7             	mov    %rax,%rdi
   16cbb:	e8 33 2a ff ff       	callq  96f3 <transparent_crc>
   16cc0:	83 7d f4 00          	cmpl   $0x0,-0xc(%rbp)
   16cc4:	74 16                	je     16cdc <main+0x3b4c>
   16cc6:	8b 45 e8             	mov    -0x18(%rbp),%eax
   16cc9:	89 c6                	mov    %eax,%esi
   16ccb:	48 8d 3d 11 25 00 00 	lea    0x2511(%rip),%rdi        # 191e3 <g_2539+0x7a3>
   16cd2:	b8 00 00 00 00       	mov    $0x0,%eax
   16cd7:	e8 a4 13 ff ff       	callq  8080 <printf@plt>
   16cdc:	83 45 e8 01          	addl   $0x1,-0x18(%rbp)
   16ce0:	83 7d e8 01          	cmpl   $0x1,-0x18(%rbp)
   16ce4:	7e b1                	jle    16c97 <main+0x3b07>
   16ce6:	0f b6 05 23 b3 00 00 	movzbl 0xb323(%rip),%eax        # 22010 <g_2764>
   16ced:	48 0f be c0          	movsbq %al,%rax
   16cf1:	8b 55 f4             	mov    -0xc(%rbp),%edx
   16cf4:	48 8d 35 3d 31 00 00 	lea    0x313d(%rip),%rsi        # 19e38 <g_2539+0x13f8>
   16cfb:	48 89 c7             	mov    %rax,%rdi
   16cfe:	e8 f0 29 ff ff       	callq  96f3 <transparent_crc>
   16d03:	0f b7 05 0e b3 00 00 	movzwl 0xb30e(%rip),%eax        # 22018 <g_2798>
   16d0a:	c1 e0 04             	shl    $0x4,%eax
   16d0d:	66 c1 f8 04          	sar    $0x4,%ax
   16d11:	48 0f bf c0          	movswq %ax,%rax
   16d15:	8b 55 f4             	mov    -0xc(%rbp),%edx
   16d18:	48 8d 35 23 31 00 00 	lea    0x3123(%rip),%rsi        # 19e42 <g_2539+0x1402>
   16d1f:	48 89 c7             	mov    %rax,%rdi
   16d22:	e8 cc 29 ff ff       	callq  96f3 <transparent_crc>
   16d27:	8b 05 eb b2 00 00    	mov    0xb2eb(%rip),%eax        # 22018 <g_2798>
   16d2d:	c1 e8 0c             	shr    $0xc,%eax
   16d30:	25 ff ff 01 00       	and    $0x1ffff,%eax
   16d35:	89 c1                	mov    %eax,%ecx
   16d37:	8b 45 f4             	mov    -0xc(%rbp),%eax
   16d3a:	89 c2                	mov    %eax,%edx
   16d3c:	48 8d 35 09 31 00 00 	lea    0x3109(%rip),%rsi        # 19e4c <g_2539+0x140c>
   16d43:	48 89 cf             	mov    %rcx,%rdi
   16d46:	e8 a8 29 ff ff       	callq  96f3 <transparent_crc>
   16d4b:	0f b7 05 ca b2 00 00 	movzwl 0xb2ca(%rip),%eax        # 2201c <g_2798+0x4>
   16d52:	0f b7 c0             	movzwl %ax,%eax
   16d55:	8b 55 f4             	mov    -0xc(%rbp),%edx
   16d58:	48 8d 35 f7 30 00 00 	lea    0x30f7(%rip),%rsi        # 19e56 <g_2539+0x1416>
   16d5f:	48 89 c7             	mov    %rax,%rdi
   16d62:	e8 8c 29 ff ff       	callq  96f3 <transparent_crc>
   16d67:	48 8b 05 aa b2 00 00 	mov    0xb2aa(%rip),%rax        # 22018 <g_2798>
   16d6e:	48 c1 e0 06          	shl    $0x6,%rax
   16d72:	48 c1 f8 36          	sar    $0x36,%rax
   16d76:	48 0f bf c0          	movswq %ax,%rax
   16d7a:	8b 55 f4             	mov    -0xc(%rbp),%edx
   16d7d:	48 8d 35 dc 30 00 00 	lea    0x30dc(%rip),%rsi        # 19e60 <g_2539+0x1420>
   16d84:	48 89 c7             	mov    %rax,%rdi
   16d87:	e8 67 29 ff ff       	callq  96f3 <transparent_crc>
   16d8c:	0f b7 05 8d b2 00 00 	movzwl 0xb28d(%rip),%eax        # 22020 <g_2805>
   16d93:	c1 e0 04             	shl    $0x4,%eax
   16d96:	66 c1 f8 04          	sar    $0x4,%ax
   16d9a:	48 0f bf c0          	movswq %ax,%rax
   16d9e:	8b 55 f4             	mov    -0xc(%rbp),%edx
   16da1:	48 8d 35 c2 30 00 00 	lea    0x30c2(%rip),%rsi        # 19e6a <g_2539+0x142a>
   16da8:	48 89 c7             	mov    %rax,%rdi
   16dab:	e8 43 29 ff ff       	callq  96f3 <transparent_crc>
   16db0:	8b 05 6a b2 00 00    	mov    0xb26a(%rip),%eax        # 22020 <g_2805>
   16db6:	c1 e8 0c             	shr    $0xc,%eax
   16db9:	25 ff ff 01 00       	and    $0x1ffff,%eax
   16dbe:	89 c1                	mov    %eax,%ecx
   16dc0:	8b 45 f4             	mov    -0xc(%rbp),%eax
   16dc3:	89 c2                	mov    %eax,%edx
   16dc5:	48 8d 35 a8 30 00 00 	lea    0x30a8(%rip),%rsi        # 19e74 <g_2539+0x1434>
   16dcc:	48 89 cf             	mov    %rcx,%rdi
   16dcf:	e8 1f 29 ff ff       	callq  96f3 <transparent_crc>
   16dd4:	0f b7 05 49 b2 00 00 	movzwl 0xb249(%rip),%eax        # 22024 <g_2805+0x4>
   16ddb:	0f b7 c0             	movzwl %ax,%eax
   16dde:	8b 55 f4             	mov    -0xc(%rbp),%edx
   16de1:	48 8d 35 96 30 00 00 	lea    0x3096(%rip),%rsi        # 19e7e <g_2539+0x143e>
   16de8:	48 89 c7             	mov    %rax,%rdi
   16deb:	e8 03 29 ff ff       	callq  96f3 <transparent_crc>
   16df0:	48 8b 05 29 b2 00 00 	mov    0xb229(%rip),%rax        # 22020 <g_2805>
   16df7:	48 c1 e0 06          	shl    $0x6,%rax
   16dfb:	48 c1 f8 36          	sar    $0x36,%rax
   16dff:	48 0f bf c0          	movswq %ax,%rax
   16e03:	8b 55 f4             	mov    -0xc(%rbp),%edx
   16e06:	48 8d 35 7b 30 00 00 	lea    0x307b(%rip),%rsi        # 19e88 <g_2539+0x1448>
   16e0d:	48 89 c7             	mov    %rax,%rdi
   16e10:	e8 de 28 ff ff       	callq  96f3 <transparent_crc>
   16e15:	8b 05 25 b2 00 00    	mov    0xb225(%rip),%eax        # 22040 <g_2822>
   16e1b:	c1 e0 03             	shl    $0x3,%eax
   16e1e:	c1 f8 03             	sar    $0x3,%eax
   16e21:	48 98                	cltq   
   16e23:	8b 55 f4             	mov    -0xc(%rbp),%edx
   16e26:	48 8d 35 65 30 00 00 	lea    0x3065(%rip),%rsi        # 19e92 <g_2539+0x1452>
   16e2d:	48 89 c7             	mov    %rax,%rdi
   16e30:	e8 be 28 ff ff       	callq  96f3 <transparent_crc>
   16e35:	48 8b 05 0c b2 00 00 	mov    0xb20c(%rip),%rax        # 22048 <g_2822+0x8>
   16e3c:	48 89 c1             	mov    %rax,%rcx
   16e3f:	8b 45 f4             	mov    -0xc(%rbp),%eax
   16e42:	89 c2                	mov    %eax,%edx
   16e44:	48 8d 35 51 30 00 00 	lea    0x3051(%rip),%rsi        # 19e9c <g_2539+0x145c>
   16e4b:	48 89 cf             	mov    %rcx,%rdi
   16e4e:	e8 a0 28 ff ff       	callq  96f3 <transparent_crc>
   16e53:	0f b6 05 f6 b1 00 00 	movzbl 0xb1f6(%rip),%eax        # 22050 <g_2822+0x10>
   16e5a:	83 e0 0f             	and    $0xf,%eax
   16e5d:	0f b6 c0             	movzbl %al,%eax
   16e60:	8b 55 f4             	mov    -0xc(%rbp),%edx
   16e63:	48 8d 35 3c 30 00 00 	lea    0x303c(%rip),%rsi        # 19ea6 <g_2539+0x1466>
   16e6a:	48 89 c7             	mov    %rax,%rdi
   16e6d:	e8 81 28 ff ff       	callq  96f3 <transparent_crc>
   16e72:	8b 05 d8 b1 00 00    	mov    0xb1d8(%rip),%eax        # 22050 <g_2822+0x10>
   16e78:	01 c0                	add    %eax,%eax
   16e7a:	c1 f8 05             	sar    $0x5,%eax
   16e7d:	48 98                	cltq   
   16e7f:	8b 55 f4             	mov    -0xc(%rbp),%edx
   16e82:	48 8d 35 27 30 00 00 	lea    0x3027(%rip),%rsi        # 19eb0 <g_2539+0x1470>
   16e89:	48 89 c7             	mov    %rax,%rdi
   16e8c:	e8 62 28 ff ff       	callq  96f3 <transparent_crc>
   16e91:	48 8b 05 b8 b1 00 00 	mov    0xb1b8(%rip),%rax        # 22050 <g_2822+0x10>
   16e98:	48 c1 e0 03          	shl    $0x3,%rax
   16e9c:	48 c1 f8 23          	sar    $0x23,%rax
   16ea0:	48 98                	cltq   
   16ea2:	8b 55 f4             	mov    -0xc(%rbp),%edx
   16ea5:	48 8d 35 0e 30 00 00 	lea    0x300e(%rip),%rsi        # 19eba <g_2539+0x147a>
   16eac:	48 89 c7             	mov    %rax,%rdi
   16eaf:	e8 3f 28 ff ff       	callq  96f3 <transparent_crc>
   16eb4:	0f b7 05 9d b1 00 00 	movzwl 0xb19d(%rip),%eax        # 22058 <g_2822+0x18>
   16ebb:	66 25 ff 0f          	and    $0xfff,%ax
   16ebf:	0f b7 c0             	movzwl %ax,%eax
   16ec2:	8b 55 f4             	mov    -0xc(%rbp),%edx
   16ec5:	48 8d 35 f8 2f 00 00 	lea    0x2ff8(%rip),%rsi        # 19ec4 <g_2539+0x1484>
   16ecc:	48 89 c7             	mov    %rax,%rdi
   16ecf:	e8 1f 28 ff ff       	callq  96f3 <transparent_crc>
   16ed4:	8b 05 82 b1 00 00    	mov    0xb182(%rip),%eax        # 2205c <g_2822+0x1c>
   16eda:	25 ff ff 3f 00       	and    $0x3fffff,%eax
   16edf:	89 c1                	mov    %eax,%ecx
   16ee1:	8b 45 f4             	mov    -0xc(%rbp),%eax
   16ee4:	89 c2                	mov    %eax,%edx
   16ee6:	48 8d 35 e1 2f 00 00 	lea    0x2fe1(%rip),%rsi        # 19ece <g_2539+0x148e>
   16eed:	48 89 cf             	mov    %rcx,%rdi
   16ef0:	e8 fe 27 ff ff       	callq  96f3 <transparent_crc>
   16ef5:	0f b7 05 64 b1 00 00 	movzwl 0xb164(%rip),%eax        # 22060 <g_2822+0x20>
   16efc:	c1 e0 03             	shl    $0x3,%eax
   16eff:	66 c1 f8 03          	sar    $0x3,%ax
   16f03:	48 0f bf c0          	movswq %ax,%rax
   16f07:	8b 55 f4             	mov    -0xc(%rbp),%edx
   16f0a:	48 8d 35 c7 2f 00 00 	lea    0x2fc7(%rip),%rsi        # 19ed8 <g_2539+0x1498>
   16f11:	48 89 c7             	mov    %rax,%rdi
   16f14:	e8 da 27 ff ff       	callq  96f3 <transparent_crc>
   16f19:	8b 05 45 b1 00 00    	mov    0xb145(%rip),%eax        # 22064 <g_2822+0x24>
   16f1f:	25 ff ff ff 7f       	and    $0x7fffffff,%eax
   16f24:	89 c1                	mov    %eax,%ecx
   16f26:	8b 45 f4             	mov    -0xc(%rbp),%eax
   16f29:	89 c2                	mov    %eax,%edx
   16f2b:	48 8d 35 b0 2f 00 00 	lea    0x2fb0(%rip),%rsi        # 19ee2 <g_2539+0x14a2>
   16f32:	48 89 cf             	mov    %rcx,%rdi
   16f35:	e8 b9 27 ff ff       	callq  96f3 <transparent_crc>
   16f3a:	8b 05 40 b1 00 00    	mov    0xb140(%rip),%eax        # 22080 <g_2833>
   16f40:	c1 e0 03             	shl    $0x3,%eax
   16f43:	c1 f8 03             	sar    $0x3,%eax
   16f46:	48 98                	cltq   
   16f48:	8b 55 f4             	mov    -0xc(%rbp),%edx
   16f4b:	48 8d 35 9a 2f 00 00 	lea    0x2f9a(%rip),%rsi        # 19eec <g_2539+0x14ac>
   16f52:	48 89 c7             	mov    %rax,%rdi
   16f55:	e8 99 27 ff ff       	callq  96f3 <transparent_crc>
   16f5a:	48 8b 05 27 b1 00 00 	mov    0xb127(%rip),%rax        # 22088 <g_2833+0x8>
   16f61:	48 89 c1             	mov    %rax,%rcx
   16f64:	8b 45 f4             	mov    -0xc(%rbp),%eax
   16f67:	89 c2                	mov    %eax,%edx
   16f69:	48 8d 35 86 2f 00 00 	lea    0x2f86(%rip),%rsi        # 19ef6 <g_2539+0x14b6>
   16f70:	48 89 cf             	mov    %rcx,%rdi
   16f73:	e8 7b 27 ff ff       	callq  96f3 <transparent_crc>
   16f78:	0f b6 05 11 b1 00 00 	movzbl 0xb111(%rip),%eax        # 22090 <g_2833+0x10>
   16f7f:	83 e0 0f             	and    $0xf,%eax
   16f82:	0f b6 c0             	movzbl %al,%eax
   16f85:	8b 55 f4             	mov    -0xc(%rbp),%edx
   16f88:	48 8d 35 71 2f 00 00 	lea    0x2f71(%rip),%rsi        # 19f00 <g_2539+0x14c0>
   16f8f:	48 89 c7             	mov    %rax,%rdi
   16f92:	e8 5c 27 ff ff       	callq  96f3 <transparent_crc>
   16f97:	8b 05 f3 b0 00 00    	mov    0xb0f3(%rip),%eax        # 22090 <g_2833+0x10>
   16f9d:	01 c0                	add    %eax,%eax
   16f9f:	c1 f8 05             	sar    $0x5,%eax
   16fa2:	48 98                	cltq   
   16fa4:	8b 55 f4             	mov    -0xc(%rbp),%edx
   16fa7:	48 8d 35 5c 2f 00 00 	lea    0x2f5c(%rip),%rsi        # 19f0a <g_2539+0x14ca>
   16fae:	48 89 c7             	mov    %rax,%rdi
   16fb1:	e8 3d 27 ff ff       	callq  96f3 <transparent_crc>
   16fb6:	48 8b 05 d3 b0 00 00 	mov    0xb0d3(%rip),%rax        # 22090 <g_2833+0x10>
   16fbd:	48 c1 e0 03          	shl    $0x3,%rax
   16fc1:	48 c1 f8 23          	sar    $0x23,%rax
   16fc5:	48 98                	cltq   
   16fc7:	8b 55 f4             	mov    -0xc(%rbp),%edx
   16fca:	48 8d 35 43 2f 00 00 	lea    0x2f43(%rip),%rsi        # 19f14 <g_2539+0x14d4>
   16fd1:	48 89 c7             	mov    %rax,%rdi
   16fd4:	e8 1a 27 ff ff       	callq  96f3 <transparent_crc>
   16fd9:	0f b7 05 b8 b0 00 00 	movzwl 0xb0b8(%rip),%eax        # 22098 <g_2833+0x18>
   16fe0:	66 25 ff 0f          	and    $0xfff,%ax
   16fe4:	0f b7 c0             	movzwl %ax,%eax
   16fe7:	8b 55 f4             	mov    -0xc(%rbp),%edx
   16fea:	48 8d 35 2d 2f 00 00 	lea    0x2f2d(%rip),%rsi        # 19f1e <g_2539+0x14de>
   16ff1:	48 89 c7             	mov    %rax,%rdi
   16ff4:	e8 fa 26 ff ff       	callq  96f3 <transparent_crc>
   16ff9:	8b 05 9d b0 00 00    	mov    0xb09d(%rip),%eax        # 2209c <g_2833+0x1c>
   16fff:	25 ff ff 3f 00       	and    $0x3fffff,%eax
   17004:	89 c1                	mov    %eax,%ecx
   17006:	8b 45 f4             	mov    -0xc(%rbp),%eax
   17009:	89 c2                	mov    %eax,%edx
   1700b:	48 8d 35 16 2f 00 00 	lea    0x2f16(%rip),%rsi        # 19f28 <g_2539+0x14e8>
   17012:	48 89 cf             	mov    %rcx,%rdi
   17015:	e8 d9 26 ff ff       	callq  96f3 <transparent_crc>
   1701a:	0f b7 05 7f b0 00 00 	movzwl 0xb07f(%rip),%eax        # 220a0 <g_2833+0x20>
   17021:	c1 e0 03             	shl    $0x3,%eax
   17024:	66 c1 f8 03          	sar    $0x3,%ax
   17028:	48 0f bf c0          	movswq %ax,%rax
   1702c:	8b 55 f4             	mov    -0xc(%rbp),%edx
   1702f:	48 8d 35 fc 2e 00 00 	lea    0x2efc(%rip),%rsi        # 19f32 <g_2539+0x14f2>
   17036:	48 89 c7             	mov    %rax,%rdi
   17039:	e8 b5 26 ff ff       	callq  96f3 <transparent_crc>
   1703e:	8b 05 60 b0 00 00    	mov    0xb060(%rip),%eax        # 220a4 <g_2833+0x24>
   17044:	25 ff ff ff 7f       	and    $0x7fffffff,%eax
   17049:	89 c1                	mov    %eax,%ecx
   1704b:	8b 45 f4             	mov    -0xc(%rbp),%eax
   1704e:	89 c2                	mov    %eax,%edx
   17050:	48 8d 35 e5 2e 00 00 	lea    0x2ee5(%rip),%rsi        # 19f3c <g_2539+0x14fc>
   17057:	48 89 cf             	mov    %rcx,%rdi
   1705a:	e8 94 26 ff ff       	callq  96f3 <transparent_crc>
   1705f:	0f b6 05 42 b0 00 00 	movzbl 0xb042(%rip),%eax        # 220a8 <g_2891>
   17066:	48 0f be c0          	movsbq %al,%rax
   1706a:	8b 55 f4             	mov    -0xc(%rbp),%edx
   1706d:	48 8d 35 d2 2e 00 00 	lea    0x2ed2(%rip),%rsi        # 19f46 <g_2539+0x1506>
   17074:	48 89 c7             	mov    %rax,%rdi
   17077:	e8 77 26 ff ff       	callq  96f3 <transparent_crc>
   1707c:	8b 05 3e b0 00 00    	mov    0xb03e(%rip),%eax        # 220c0 <g_3020>
   17082:	c1 e0 03             	shl    $0x3,%eax
   17085:	c1 f8 03             	sar    $0x3,%eax
   17088:	48 98                	cltq   
   1708a:	8b 55 f4             	mov    -0xc(%rbp),%edx
   1708d:	48 8d 35 bc 2e 00 00 	lea    0x2ebc(%rip),%rsi        # 19f50 <g_2539+0x1510>
   17094:	48 89 c7             	mov    %rax,%rdi
   17097:	e8 57 26 ff ff       	callq  96f3 <transparent_crc>
   1709c:	48 8b 05 25 b0 00 00 	mov    0xb025(%rip),%rax        # 220c8 <g_3020+0x8>
   170a3:	48 89 c1             	mov    %rax,%rcx
   170a6:	8b 45 f4             	mov    -0xc(%rbp),%eax
   170a9:	89 c2                	mov    %eax,%edx
   170ab:	48 8d 35 a8 2e 00 00 	lea    0x2ea8(%rip),%rsi        # 19f5a <g_2539+0x151a>
   170b2:	48 89 cf             	mov    %rcx,%rdi
   170b5:	e8 39 26 ff ff       	callq  96f3 <transparent_crc>
   170ba:	0f b6 05 0f b0 00 00 	movzbl 0xb00f(%rip),%eax        # 220d0 <g_3020+0x10>
   170c1:	83 e0 0f             	and    $0xf,%eax
   170c4:	0f b6 c0             	movzbl %al,%eax
   170c7:	8b 55 f4             	mov    -0xc(%rbp),%edx
   170ca:	48 8d 35 93 2e 00 00 	lea    0x2e93(%rip),%rsi        # 19f64 <g_2539+0x1524>
   170d1:	48 89 c7             	mov    %rax,%rdi
   170d4:	e8 1a 26 ff ff       	callq  96f3 <transparent_crc>
   170d9:	8b 05 f1 af 00 00    	mov    0xaff1(%rip),%eax        # 220d0 <g_3020+0x10>
   170df:	01 c0                	add    %eax,%eax
   170e1:	c1 f8 05             	sar    $0x5,%eax
   170e4:	48 98                	cltq   
   170e6:	8b 55 f4             	mov    -0xc(%rbp),%edx
   170e9:	48 8d 35 7e 2e 00 00 	lea    0x2e7e(%rip),%rsi        # 19f6e <g_2539+0x152e>
   170f0:	48 89 c7             	mov    %rax,%rdi
   170f3:	e8 fb 25 ff ff       	callq  96f3 <transparent_crc>
   170f8:	48 8b 05 d1 af 00 00 	mov    0xafd1(%rip),%rax        # 220d0 <g_3020+0x10>
   170ff:	48 c1 e0 03          	shl    $0x3,%rax
   17103:	48 c1 f8 23          	sar    $0x23,%rax
   17107:	48 98                	cltq   
   17109:	8b 55 f4             	mov    -0xc(%rbp),%edx
   1710c:	48 8d 35 65 2e 00 00 	lea    0x2e65(%rip),%rsi        # 19f78 <g_2539+0x1538>
   17113:	48 89 c7             	mov    %rax,%rdi
   17116:	e8 d8 25 ff ff       	callq  96f3 <transparent_crc>
   1711b:	0f b7 05 b6 af 00 00 	movzwl 0xafb6(%rip),%eax        # 220d8 <g_3020+0x18>
   17122:	66 25 ff 0f          	and    $0xfff,%ax
   17126:	0f b7 c0             	movzwl %ax,%eax
   17129:	8b 55 f4             	mov    -0xc(%rbp),%edx
   1712c:	48 8d 35 4f 2e 00 00 	lea    0x2e4f(%rip),%rsi        # 19f82 <g_2539+0x1542>
   17133:	48 89 c7             	mov    %rax,%rdi
   17136:	e8 b8 25 ff ff       	callq  96f3 <transparent_crc>
   1713b:	8b 05 9b af 00 00    	mov    0xaf9b(%rip),%eax        # 220dc <g_3020+0x1c>
   17141:	25 ff ff 3f 00       	and    $0x3fffff,%eax
   17146:	89 c1                	mov    %eax,%ecx
   17148:	8b 45 f4             	mov    -0xc(%rbp),%eax
   1714b:	89 c2                	mov    %eax,%edx
   1714d:	48 8d 35 38 2e 00 00 	lea    0x2e38(%rip),%rsi        # 19f8c <g_2539+0x154c>
   17154:	48 89 cf             	mov    %rcx,%rdi
   17157:	e8 97 25 ff ff       	callq  96f3 <transparent_crc>
   1715c:	0f b7 05 7d af 00 00 	movzwl 0xaf7d(%rip),%eax        # 220e0 <g_3020+0x20>
   17163:	c1 e0 03             	shl    $0x3,%eax
   17166:	66 c1 f8 03          	sar    $0x3,%ax
   1716a:	48 0f bf c0          	movswq %ax,%rax
   1716e:	8b 55 f4             	mov    -0xc(%rbp),%edx
   17171:	48 8d 35 1e 2e 00 00 	lea    0x2e1e(%rip),%rsi        # 19f96 <g_2539+0x1556>
   17178:	48 89 c7             	mov    %rax,%rdi
   1717b:	e8 73 25 ff ff       	callq  96f3 <transparent_crc>
   17180:	8b 05 5e af 00 00    	mov    0xaf5e(%rip),%eax        # 220e4 <g_3020+0x24>
   17186:	25 ff ff ff 7f       	and    $0x7fffffff,%eax
   1718b:	89 c1                	mov    %eax,%ecx
   1718d:	8b 45 f4             	mov    -0xc(%rbp),%eax
   17190:	89 c2                	mov    %eax,%edx
   17192:	48 8d 35 07 2e 00 00 	lea    0x2e07(%rip),%rsi        # 19fa0 <g_2539+0x1560>
   17199:	48 89 cf             	mov    %rcx,%rdi
   1719c:	e8 52 25 ff ff       	callq  96f3 <transparent_crc>
   171a1:	0f b7 05 40 af 00 00 	movzwl 0xaf40(%rip),%eax        # 220e8 <g_3021>
   171a8:	c1 e0 04             	shl    $0x4,%eax
   171ab:	66 c1 f8 04          	sar    $0x4,%ax
   171af:	48 0f bf c0          	movswq %ax,%rax
   171b3:	8b 55 f4             	mov    -0xc(%rbp),%edx
   171b6:	48 8d 35 ed 2d 00 00 	lea    0x2ded(%rip),%rsi        # 19faa <g_2539+0x156a>
   171bd:	48 89 c7             	mov    %rax,%rdi
   171c0:	e8 2e 25 ff ff       	callq  96f3 <transparent_crc>
   171c5:	8b 05 1d af 00 00    	mov    0xaf1d(%rip),%eax        # 220e8 <g_3021>
   171cb:	c1 e8 0c             	shr    $0xc,%eax
   171ce:	25 ff ff 01 00       	and    $0x1ffff,%eax
   171d3:	89 c1                	mov    %eax,%ecx
   171d5:	8b 45 f4             	mov    -0xc(%rbp),%eax
   171d8:	89 c2                	mov    %eax,%edx
   171da:	48 8d 35 d3 2d 00 00 	lea    0x2dd3(%rip),%rsi        # 19fb4 <g_2539+0x1574>
   171e1:	48 89 cf             	mov    %rcx,%rdi
   171e4:	e8 0a 25 ff ff       	callq  96f3 <transparent_crc>
   171e9:	0f b7 05 fc ae 00 00 	movzwl 0xaefc(%rip),%eax        # 220ec <g_3021+0x4>
   171f0:	0f b7 c0             	movzwl %ax,%eax
   171f3:	8b 55 f4             	mov    -0xc(%rbp),%edx
   171f6:	48 8d 35 c1 2d 00 00 	lea    0x2dc1(%rip),%rsi        # 19fbe <g_2539+0x157e>
   171fd:	48 89 c7             	mov    %rax,%rdi
   17200:	e8 ee 24 ff ff       	callq  96f3 <transparent_crc>
   17205:	48 8b 05 dc ae 00 00 	mov    0xaedc(%rip),%rax        # 220e8 <g_3021>
   1720c:	48 c1 e0 06          	shl    $0x6,%rax
   17210:	48 c1 f8 36          	sar    $0x36,%rax
   17214:	48 0f bf c0          	movswq %ax,%rax
   17218:	8b 55 f4             	mov    -0xc(%rbp),%edx
   1721b:	48 8d 35 a6 2d 00 00 	lea    0x2da6(%rip),%rsi        # 19fc8 <g_2539+0x1588>
   17222:	48 89 c7             	mov    %rax,%rdi
   17225:	e8 c9 24 ff ff       	callq  96f3 <transparent_crc>
   1722a:	0f b6 05 bf ae 00 00 	movzbl 0xaebf(%rip),%eax        # 220f0 <g_3023>
   17231:	48 0f be c0          	movsbq %al,%rax
   17235:	8b 55 f4             	mov    -0xc(%rbp),%edx
   17238:	48 8d 35 93 2d 00 00 	lea    0x2d93(%rip),%rsi        # 19fd2 <g_2539+0x1592>
   1723f:	48 89 c7             	mov    %rax,%rdi
   17242:	e8 ac 24 ff ff       	callq  96f3 <transparent_crc>
   17247:	8b 05 b3 ae 00 00    	mov    0xaeb3(%rip),%eax        # 22100 <g_3063>
   1724d:	c1 e0 03             	shl    $0x3,%eax
   17250:	c1 f8 03             	sar    $0x3,%eax
   17253:	48 98                	cltq   
   17255:	8b 55 f4             	mov    -0xc(%rbp),%edx
   17258:	48 8d 35 7d 2d 00 00 	lea    0x2d7d(%rip),%rsi        # 19fdc <g_2539+0x159c>
   1725f:	48 89 c7             	mov    %rax,%rdi
   17262:	e8 8c 24 ff ff       	callq  96f3 <transparent_crc>
   17267:	48 8b 05 9a ae 00 00 	mov    0xae9a(%rip),%rax        # 22108 <g_3063+0x8>
   1726e:	48 89 c1             	mov    %rax,%rcx
   17271:	8b 45 f4             	mov    -0xc(%rbp),%eax
   17274:	89 c2                	mov    %eax,%edx
   17276:	48 8d 35 69 2d 00 00 	lea    0x2d69(%rip),%rsi        # 19fe6 <g_2539+0x15a6>
   1727d:	48 89 cf             	mov    %rcx,%rdi
   17280:	e8 6e 24 ff ff       	callq  96f3 <transparent_crc>
   17285:	0f b6 05 84 ae 00 00 	movzbl 0xae84(%rip),%eax        # 22110 <g_3063+0x10>
   1728c:	83 e0 0f             	and    $0xf,%eax
   1728f:	0f b6 c0             	movzbl %al,%eax
   17292:	8b 55 f4             	mov    -0xc(%rbp),%edx
   17295:	48 8d 35 54 2d 00 00 	lea    0x2d54(%rip),%rsi        # 19ff0 <g_2539+0x15b0>
   1729c:	48 89 c7             	mov    %rax,%rdi
   1729f:	e8 4f 24 ff ff       	callq  96f3 <transparent_crc>
   172a4:	8b 05 66 ae 00 00    	mov    0xae66(%rip),%eax        # 22110 <g_3063+0x10>
   172aa:	01 c0                	add    %eax,%eax
   172ac:	c1 f8 05             	sar    $0x5,%eax
   172af:	48 98                	cltq   
   172b1:	8b 55 f4             	mov    -0xc(%rbp),%edx
   172b4:	48 8d 35 3f 2d 00 00 	lea    0x2d3f(%rip),%rsi        # 19ffa <g_2539+0x15ba>
   172bb:	48 89 c7             	mov    %rax,%rdi
   172be:	e8 30 24 ff ff       	callq  96f3 <transparent_crc>
   172c3:	48 8b 05 46 ae 00 00 	mov    0xae46(%rip),%rax        # 22110 <g_3063+0x10>
   172ca:	48 c1 e0 03          	shl    $0x3,%rax
   172ce:	48 c1 f8 23          	sar    $0x23,%rax
   172d2:	48 98                	cltq   
   172d4:	8b 55 f4             	mov    -0xc(%rbp),%edx
   172d7:	48 8d 35 26 2d 00 00 	lea    0x2d26(%rip),%rsi        # 1a004 <g_2539+0x15c4>
   172de:	48 89 c7             	mov    %rax,%rdi
   172e1:	e8 0d 24 ff ff       	callq  96f3 <transparent_crc>
   172e6:	0f b7 05 2b ae 00 00 	movzwl 0xae2b(%rip),%eax        # 22118 <g_3063+0x18>
   172ed:	66 25 ff 0f          	and    $0xfff,%ax
   172f1:	0f b7 c0             	movzwl %ax,%eax
   172f4:	8b 55 f4             	mov    -0xc(%rbp),%edx
   172f7:	48 8d 35 10 2d 00 00 	lea    0x2d10(%rip),%rsi        # 1a00e <g_2539+0x15ce>
   172fe:	48 89 c7             	mov    %rax,%rdi
   17301:	e8 ed 23 ff ff       	callq  96f3 <transparent_crc>
   17306:	8b 05 10 ae 00 00    	mov    0xae10(%rip),%eax        # 2211c <g_3063+0x1c>
   1730c:	25 ff ff 3f 00       	and    $0x3fffff,%eax
   17311:	89 c1                	mov    %eax,%ecx
   17313:	8b 45 f4             	mov    -0xc(%rbp),%eax
   17316:	89 c2                	mov    %eax,%edx
   17318:	48 8d 35 f9 2c 00 00 	lea    0x2cf9(%rip),%rsi        # 1a018 <g_2539+0x15d8>
   1731f:	48 89 cf             	mov    %rcx,%rdi
   17322:	e8 cc 23 ff ff       	callq  96f3 <transparent_crc>
   17327:	0f b7 05 f2 ad 00 00 	movzwl 0xadf2(%rip),%eax        # 22120 <g_3063+0x20>
   1732e:	c1 e0 03             	shl    $0x3,%eax
   17331:	66 c1 f8 03          	sar    $0x3,%ax
   17335:	48 0f bf c0          	movswq %ax,%rax
   17339:	8b 55 f4             	mov    -0xc(%rbp),%edx
   1733c:	48 8d 35 df 2c 00 00 	lea    0x2cdf(%rip),%rsi        # 1a022 <g_2539+0x15e2>
   17343:	48 89 c7             	mov    %rax,%rdi
   17346:	e8 a8 23 ff ff       	callq  96f3 <transparent_crc>
   1734b:	8b 05 d3 ad 00 00    	mov    0xadd3(%rip),%eax        # 22124 <g_3063+0x24>
   17351:	25 ff ff ff 7f       	and    $0x7fffffff,%eax
   17356:	89 c1                	mov    %eax,%ecx
   17358:	8b 45 f4             	mov    -0xc(%rbp),%eax
   1735b:	89 c2                	mov    %eax,%edx
   1735d:	48 8d 35 c8 2c 00 00 	lea    0x2cc8(%rip),%rsi        # 1a02c <g_2539+0x15ec>
   17364:	48 89 cf             	mov    %rcx,%rdi
   17367:	e8 87 23 ff ff       	callq  96f3 <transparent_crc>
   1736c:	8b 05 ae 5c 00 00    	mov    0x5cae(%rip),%eax        # 1d020 <crc32_context>
   17372:	f7 d0                	not    %eax
   17374:	89 c2                	mov    %eax,%edx
   17376:	8b 45 f4             	mov    -0xc(%rbp),%eax
   17379:	89 c6                	mov    %eax,%esi
   1737b:	89 d7                	mov    %edx,%edi
   1737d:	e8 12 0e ff ff       	callq  8194 <platform_main_end>
   17382:	b8 00 00 00 00       	mov    $0x0,%eax
   17387:	48 8b 4d f8          	mov    -0x8(%rbp),%rcx
   1738b:	64 48 33 0c 25 28 00 	xor    %fs:0x28,%rcx
   17392:	00 00 
   17394:	74 05                	je     1739b <main+0x420b>
   17396:	e8 d5 0c ff ff       	callq  8070 <__stack_chk_fail@plt>
   1739b:	c9                   	leaveq 
   1739c:	c3                   	retq   
   1739d:	0f 1f 00             	nopl   (%rax)

00000000000173a0 <__libc_csu_init>:
   173a0:	f3 0f 1e fa          	endbr64 
   173a4:	41 57                	push   %r15
   173a6:	4c 8d 3d 83 58 00 00 	lea    0x5883(%rip),%r15        # 1cc30 <__frame_dummy_init_array_entry>
   173ad:	41 56                	push   %r14
   173af:	49 89 d6             	mov    %rdx,%r14
   173b2:	41 55                	push   %r13
   173b4:	49 89 f5             	mov    %rsi,%r13
   173b7:	41 54                	push   %r12
   173b9:	41 89 fc             	mov    %edi,%r12d
   173bc:	55                   	push   %rbp
   173bd:	48 8d 2d 74 58 00 00 	lea    0x5874(%rip),%rbp        # 1cc38 <__do_global_dtors_aux_fini_array_entry>
   173c4:	53                   	push   %rbx
   173c5:	4c 29 fd             	sub    %r15,%rbp
   173c8:	48 83 ec 08          	sub    $0x8,%rsp
   173cc:	e8 2f 0c ff ff       	callq  8000 <_init>
   173d1:	48 c1 fd 03          	sar    $0x3,%rbp
   173d5:	74 1f                	je     173f6 <__libc_csu_init+0x56>
   173d7:	31 db                	xor    %ebx,%ebx
   173d9:	0f 1f 80 00 00 00 00 	nopl   0x0(%rax)
   173e0:	4c 89 f2             	mov    %r14,%rdx
   173e3:	4c 89 ee             	mov    %r13,%rsi
   173e6:	44 89 e7             	mov    %r12d,%edi
   173e9:	41 ff 14 df          	callq  *(%r15,%rbx,8)
   173ed:	48 83 c3 01          	add    $0x1,%rbx
   173f1:	48 39 dd             	cmp    %rbx,%rbp
   173f4:	75 ea                	jne    173e0 <__libc_csu_init+0x40>
   173f6:	48 83 c4 08          	add    $0x8,%rsp
   173fa:	5b                   	pop    %rbx
   173fb:	5d                   	pop    %rbp
   173fc:	41 5c                	pop    %r12
   173fe:	41 5d                	pop    %r13
   17400:	41 5e                	pop    %r14
   17402:	41 5f                	pop    %r15
   17404:	c3                   	retq   
   17405:	66 66 2e 0f 1f 84 00 	data16 nopw %cs:0x0(%rax,%rax,1)
   1740c:	00 00 00 00 

0000000000017410 <__libc_csu_fini>:
   17410:	f3 0f 1e fa          	endbr64 
   17414:	c3                   	retq   
