


Disassembly of section .text:

00000000000070a0 <_start>:
    70a0:	f3 0f 1e fa          	endbr64 
    70a4:	31 ed                	xor    %ebp,%ebp
    70a6:	49 89 d1             	mov    %rdx,%r9
    70a9:	5e                   	pop    %rsi
    70aa:	48 89 e2             	mov    %rsp,%rdx
    70ad:	48 83 e4 f0          	and    $0xfffffffffffffff0,%rsp
    70b1:	50                   	push   %rax
    70b2:	54                   	push   %rsp
    70b3:	4c 8d 05 66 a3 00 00 	lea    0xa366(%rip),%r8        # 11420 <__libc_csu_fini>
    70ba:	48 8d 0d ef a2 00 00 	lea    0xa2ef(%rip),%rcx        # 113b0 <__libc_csu_init>
    70c1:	48 8d 3d 98 96 00 00 	lea    0x9698(%rip),%rdi        # 10760 <main>
    70c8:	ff 15 12 df 00 00    	callq  *0xdf12(%rip)        # 14fe0 <__libc_start_main@GLIBC_2.2.5>
    70ce:	f4                   	hlt    
    70cf:	90                   	nop

00000000000070d0 <deregister_tm_clones>:
    70d0:	48 8d 3d 59 10 01 00 	lea    0x11059(%rip),%rdi        # 18130 <__TMC_END__>
    70d7:	48 8d 05 52 10 01 00 	lea    0x11052(%rip),%rax        # 18130 <__TMC_END__>
    70de:	48 39 f8             	cmp    %rdi,%rax
    70e1:	74 15                	je     70f8 <deregister_tm_clones+0x28>
    70e3:	48 8b 05 ee de 00 00 	mov    0xdeee(%rip),%rax        # 14fd8 <_ITM_deregisterTMCloneTable>
    70ea:	48 85 c0             	test   %rax,%rax
    70ed:	74 09                	je     70f8 <deregister_tm_clones+0x28>
    70ef:	ff e0                	jmpq   *%rax
    70f1:	0f 1f 80 00 00 00 00 	nopl   0x0(%rax)
    70f8:	c3                   	retq   
    70f9:	0f 1f 80 00 00 00 00 	nopl   0x0(%rax)

0000000000007100 <register_tm_clones>:
    7100:	48 8d 3d 29 10 01 00 	lea    0x11029(%rip),%rdi        # 18130 <__TMC_END__>
    7107:	48 8d 35 22 10 01 00 	lea    0x11022(%rip),%rsi        # 18130 <__TMC_END__>
    710e:	48 29 fe             	sub    %rdi,%rsi
    7111:	48 89 f0             	mov    %rsi,%rax
    7114:	48 c1 ee 3f          	shr    $0x3f,%rsi
    7118:	48 c1 f8 03          	sar    $0x3,%rax
    711c:	48 01 c6             	add    %rax,%rsi
    711f:	48 d1 fe             	sar    %rsi
    7122:	74 14                	je     7138 <register_tm_clones+0x38>
    7124:	48 8b 05 c5 de 00 00 	mov    0xdec5(%rip),%rax        # 14ff0 <_ITM_registerTMCloneTable>
    712b:	48 85 c0             	test   %rax,%rax
    712e:	74 08                	je     7138 <register_tm_clones+0x38>
    7130:	ff e0                	jmpq   *%rax
    7132:	66 0f 1f 44 00 00    	nopw   0x0(%rax,%rax,1)
    7138:	c3                   	retq   
    7139:	0f 1f 80 00 00 00 00 	nopl   0x0(%rax)

0000000000007140 <__do_global_dtors_aux>:
    7140:	f3 0f 1e fa          	endbr64 
    7144:	80 3d f5 0f 01 00 00 	cmpb   $0x0,0x10ff5(%rip)        # 18140 <completed.8061>
    714b:	75 2b                	jne    7178 <__do_global_dtors_aux+0x38>
    714d:	55                   	push   %rbp
    714e:	48 83 3d a2 de 00 00 	cmpq   $0x0,0xdea2(%rip)        # 14ff8 <__cxa_finalize@GLIBC_2.2.5>
    7155:	00 
    7156:	48 89 e5             	mov    %rsp,%rbp
    7159:	74 0c                	je     7167 <__do_global_dtors_aux+0x27>
    715b:	48 8b 3d a6 de 00 00 	mov    0xdea6(%rip),%rdi        # 15008 <__dso_handle>
    7162:	e8 f9 fe ff ff       	callq  7060 <__cxa_finalize@plt>
    7167:	e8 64 ff ff ff       	callq  70d0 <deregister_tm_clones>
    716c:	c6 05 cd 0f 01 00 01 	movb   $0x1,0x10fcd(%rip)        # 18140 <completed.8061>
    7173:	5d                   	pop    %rbp
    7174:	c3                   	retq   
    7175:	0f 1f 00             	nopl   (%rax)
    7178:	c3                   	retq   
    7179:	0f 1f 80 00 00 00 00 	nopl   0x0(%rax)

0000000000007180 <frame_dummy>:
    7180:	f3 0f 1e fa          	endbr64 
    7184:	e9 77 ff ff ff       	jmpq   7100 <register_tm_clones>

0000000000007189 <platform_main_begin>:
    7189:	f3 0f 1e fa          	endbr64 
    718d:	55                   	push   %rbp
    718e:	48 89 e5             	mov    %rsp,%rbp
    7191:	90                   	nop
    7192:	5d                   	pop    %rbp
    7193:	c3                   	retq   

0000000000007194 <platform_main_end>:
    7194:	f3 0f 1e fa          	endbr64 
    7198:	55                   	push   %rbp
    7199:	48 89 e5             	mov    %rsp,%rbp
    719c:	48 83 ec 10          	sub    $0x10,%rsp
    71a0:	89 7d fc             	mov    %edi,-0x4(%rbp)
    71a3:	89 75 f8             	mov    %esi,-0x8(%rbp)
    71a6:	8b 45 fc             	mov    -0x4(%rbp),%eax
    71a9:	89 c6                	mov    %eax,%esi
    71ab:	48 8d 3d 6e ae 00 00 	lea    0xae6e(%rip),%rdi        # 12020 <_IO_stdin_used+0x20>
    71b2:	b8 00 00 00 00       	mov    $0x0,%eax
    71b7:	e8 c4 fe ff ff       	callq  7080 <printf@plt>
    71bc:	90                   	nop
    71bd:	c9                   	leaveq 
    71be:	c3                   	retq   

00000000000071bf <safe_unary_minus_func_int8_t_s>:
    71bf:	f3 0f 1e fa          	endbr64 
    71c3:	55                   	push   %rbp
    71c4:	48 89 e5             	mov    %rsp,%rbp
    71c7:	89 f8                	mov    %edi,%eax
    71c9:	88 45 fc             	mov    %al,-0x4(%rbp)
    71cc:	0f b6 45 fc          	movzbl -0x4(%rbp),%eax
    71d0:	f7 d8                	neg    %eax
    71d2:	5d                   	pop    %rbp
    71d3:	c3                   	retq   

00000000000071d4 <safe_add_func_int8_t_s_s>:
    71d4:	f3 0f 1e fa          	endbr64 
    71d8:	55                   	push   %rbp
    71d9:	48 89 e5             	mov    %rsp,%rbp
    71dc:	89 fa                	mov    %edi,%edx
    71de:	89 f0                	mov    %esi,%eax
    71e0:	88 55 fc             	mov    %dl,-0x4(%rbp)
    71e3:	88 45 f8             	mov    %al,-0x8(%rbp)
    71e6:	0f b6 55 fc          	movzbl -0x4(%rbp),%edx
    71ea:	0f b6 45 f8          	movzbl -0x8(%rbp),%eax
    71ee:	01 d0                	add    %edx,%eax
    71f0:	5d                   	pop    %rbp
    71f1:	c3                   	retq   

00000000000071f2 <safe_sub_func_int8_t_s_s>:
    71f2:	f3 0f 1e fa          	endbr64 
    71f6:	55                   	push   %rbp
    71f7:	48 89 e5             	mov    %rsp,%rbp
    71fa:	89 fa                	mov    %edi,%edx
    71fc:	89 f0                	mov    %esi,%eax
    71fe:	88 55 fc             	mov    %dl,-0x4(%rbp)
    7201:	88 45 f8             	mov    %al,-0x8(%rbp)
    7204:	0f b6 55 fc          	movzbl -0x4(%rbp),%edx
    7208:	0f b6 45 f8          	movzbl -0x8(%rbp),%eax
    720c:	29 c2                	sub    %eax,%edx
    720e:	89 d0                	mov    %edx,%eax
    7210:	5d                   	pop    %rbp
    7211:	c3                   	retq   

0000000000007212 <safe_mul_func_int8_t_s_s>:
    7212:	f3 0f 1e fa          	endbr64 
    7216:	55                   	push   %rbp
    7217:	48 89 e5             	mov    %rsp,%rbp
    721a:	89 fa                	mov    %edi,%edx
    721c:	89 f0                	mov    %esi,%eax
    721e:	88 55 fc             	mov    %dl,-0x4(%rbp)
    7221:	88 45 f8             	mov    %al,-0x8(%rbp)
    7224:	0f b6 45 fc          	movzbl -0x4(%rbp),%eax
    7228:	0f b6 55 f8          	movzbl -0x8(%rbp),%edx
    722c:	0f af c2             	imul   %edx,%eax
    722f:	5d                   	pop    %rbp
    7230:	c3                   	retq   

0000000000007231 <safe_mod_func_int8_t_s_s>:
    7231:	f3 0f 1e fa          	endbr64 
    7235:	55                   	push   %rbp
    7236:	48 89 e5             	mov    %rsp,%rbp
    7239:	89 fa                	mov    %edi,%edx
    723b:	89 f0                	mov    %esi,%eax
    723d:	88 55 fc             	mov    %dl,-0x4(%rbp)
    7240:	88 45 f8             	mov    %al,-0x8(%rbp)
    7243:	80 7d f8 00          	cmpb   $0x0,-0x8(%rbp)
    7247:	74 1b                	je     7264 <safe_mod_func_int8_t_s_s+0x33>
    7249:	80 7d fc 80          	cmpb   $0x80,-0x4(%rbp)
    724d:	75 06                	jne    7255 <safe_mod_func_int8_t_s_s+0x24>
    724f:	80 7d f8 ff          	cmpb   $0xff,-0x8(%rbp)
    7253:	74 0f                	je     7264 <safe_mod_func_int8_t_s_s+0x33>
    7255:	0f be 45 fc          	movsbl -0x4(%rbp),%eax
    7259:	0f be 4d f8          	movsbl -0x8(%rbp),%ecx
    725d:	99                   	cltd   
    725e:	f7 f9                	idiv   %ecx
    7260:	89 d0                	mov    %edx,%eax
    7262:	eb 04                	jmp    7268 <safe_mod_func_int8_t_s_s+0x37>
    7264:	0f b6 45 fc          	movzbl -0x4(%rbp),%eax
    7268:	5d                   	pop    %rbp
    7269:	c3                   	retq   

000000000000726a <safe_div_func_int8_t_s_s>:
    726a:	f3 0f 1e fa          	endbr64 
    726e:	55                   	push   %rbp
    726f:	48 89 e5             	mov    %rsp,%rbp
    7272:	89 fa                	mov    %edi,%edx
    7274:	89 f0                	mov    %esi,%eax
    7276:	88 55 fc             	mov    %dl,-0x4(%rbp)
    7279:	88 45 f8             	mov    %al,-0x8(%rbp)
    727c:	80 7d f8 00          	cmpb   $0x0,-0x8(%rbp)
    7280:	74 19                	je     729b <safe_div_func_int8_t_s_s+0x31>
    7282:	80 7d fc 80          	cmpb   $0x80,-0x4(%rbp)
    7286:	75 06                	jne    728e <safe_div_func_int8_t_s_s+0x24>
    7288:	80 7d f8 ff          	cmpb   $0xff,-0x8(%rbp)
    728c:	74 0d                	je     729b <safe_div_func_int8_t_s_s+0x31>
    728e:	0f be 45 fc          	movsbl -0x4(%rbp),%eax
    7292:	0f be 4d f8          	movsbl -0x8(%rbp),%ecx
    7296:	99                   	cltd   
    7297:	f7 f9                	idiv   %ecx
    7299:	eb 04                	jmp    729f <safe_div_func_int8_t_s_s+0x35>
    729b:	0f b6 45 fc          	movzbl -0x4(%rbp),%eax
    729f:	5d                   	pop    %rbp
    72a0:	c3                   	retq   

00000000000072a1 <safe_lshift_func_int8_t_s_s>:
    72a1:	f3 0f 1e fa          	endbr64 
    72a5:	55                   	push   %rbp
    72a6:	48 89 e5             	mov    %rsp,%rbp
    72a9:	89 f8                	mov    %edi,%eax
    72ab:	89 75 f8             	mov    %esi,-0x8(%rbp)
    72ae:	88 45 fc             	mov    %al,-0x4(%rbp)
    72b1:	80 7d fc 00          	cmpb   $0x0,-0x4(%rbp)
    72b5:	78 31                	js     72e8 <safe_lshift_func_int8_t_s_s+0x47>
    72b7:	83 7d f8 00          	cmpl   $0x0,-0x8(%rbp)
    72bb:	78 2b                	js     72e8 <safe_lshift_func_int8_t_s_s+0x47>
    72bd:	83 7d f8 1f          	cmpl   $0x1f,-0x8(%rbp)
    72c1:	7f 25                	jg     72e8 <safe_lshift_func_int8_t_s_s+0x47>
    72c3:	0f be 55 fc          	movsbl -0x4(%rbp),%edx
    72c7:	8b 45 f8             	mov    -0x8(%rbp),%eax
    72ca:	be 7f 00 00 00       	mov    $0x7f,%esi
    72cf:	89 c1                	mov    %eax,%ecx
    72d1:	d3 fe                	sar    %cl,%esi
    72d3:	89 f0                	mov    %esi,%eax
    72d5:	39 c2                	cmp    %eax,%edx
    72d7:	7f 0f                	jg     72e8 <safe_lshift_func_int8_t_s_s+0x47>
    72d9:	0f be 55 fc          	movsbl -0x4(%rbp),%edx
    72dd:	8b 45 f8             	mov    -0x8(%rbp),%eax
    72e0:	89 c1                	mov    %eax,%ecx
    72e2:	d3 e2                	shl    %cl,%edx
    72e4:	89 d0                	mov    %edx,%eax
    72e6:	eb 04                	jmp    72ec <safe_lshift_func_int8_t_s_s+0x4b>
    72e8:	0f b6 45 fc          	movzbl -0x4(%rbp),%eax
    72ec:	5d                   	pop    %rbp
    72ed:	c3                   	retq   

00000000000072ee <safe_lshift_func_int8_t_s_u>:
    72ee:	f3 0f 1e fa          	endbr64 
    72f2:	55                   	push   %rbp
    72f3:	48 89 e5             	mov    %rsp,%rbp
    72f6:	89 f8                	mov    %edi,%eax
    72f8:	89 75 f8             	mov    %esi,-0x8(%rbp)
    72fb:	88 45 fc             	mov    %al,-0x4(%rbp)
    72fe:	80 7d fc 00          	cmpb   $0x0,-0x4(%rbp)
    7302:	78 2b                	js     732f <safe_lshift_func_int8_t_s_u+0x41>
    7304:	83 7d f8 1f          	cmpl   $0x1f,-0x8(%rbp)
    7308:	77 25                	ja     732f <safe_lshift_func_int8_t_s_u+0x41>
    730a:	0f be 55 fc          	movsbl -0x4(%rbp),%edx
    730e:	8b 45 f8             	mov    -0x8(%rbp),%eax
    7311:	be 7f 00 00 00       	mov    $0x7f,%esi
    7316:	89 c1                	mov    %eax,%ecx
    7318:	d3 fe                	sar    %cl,%esi
    731a:	89 f0                	mov    %esi,%eax
    731c:	39 c2                	cmp    %eax,%edx
    731e:	7f 0f                	jg     732f <safe_lshift_func_int8_t_s_u+0x41>
    7320:	0f be 55 fc          	movsbl -0x4(%rbp),%edx
    7324:	8b 45 f8             	mov    -0x8(%rbp),%eax
    7327:	89 c1                	mov    %eax,%ecx
    7329:	d3 e2                	shl    %cl,%edx
    732b:	89 d0                	mov    %edx,%eax
    732d:	eb 04                	jmp    7333 <safe_lshift_func_int8_t_s_u+0x45>
    732f:	0f b6 45 fc          	movzbl -0x4(%rbp),%eax
    7333:	5d                   	pop    %rbp
    7334:	c3                   	retq   

0000000000007335 <safe_rshift_func_int8_t_s_s>:
    7335:	f3 0f 1e fa          	endbr64 
    7339:	55                   	push   %rbp
    733a:	48 89 e5             	mov    %rsp,%rbp
    733d:	89 f8                	mov    %edi,%eax
    733f:	89 75 f8             	mov    %esi,-0x8(%rbp)
    7342:	88 45 fc             	mov    %al,-0x4(%rbp)
    7345:	80 7d fc 00          	cmpb   $0x0,-0x4(%rbp)
    7349:	78 1b                	js     7366 <safe_rshift_func_int8_t_s_s+0x31>
    734b:	83 7d f8 00          	cmpl   $0x0,-0x8(%rbp)
    734f:	78 15                	js     7366 <safe_rshift_func_int8_t_s_s+0x31>
    7351:	83 7d f8 1f          	cmpl   $0x1f,-0x8(%rbp)
    7355:	7f 0f                	jg     7366 <safe_rshift_func_int8_t_s_s+0x31>
    7357:	0f be 55 fc          	movsbl -0x4(%rbp),%edx
    735b:	8b 45 f8             	mov    -0x8(%rbp),%eax
    735e:	89 c1                	mov    %eax,%ecx
    7360:	d3 fa                	sar    %cl,%edx
    7362:	89 d0                	mov    %edx,%eax
    7364:	eb 04                	jmp    736a <safe_rshift_func_int8_t_s_s+0x35>
    7366:	0f b6 45 fc          	movzbl -0x4(%rbp),%eax
    736a:	5d                   	pop    %rbp
    736b:	c3                   	retq   

000000000000736c <safe_rshift_func_int8_t_s_u>:
    736c:	f3 0f 1e fa          	endbr64 
    7370:	55                   	push   %rbp
    7371:	48 89 e5             	mov    %rsp,%rbp
    7374:	89 f8                	mov    %edi,%eax
    7376:	89 75 f8             	mov    %esi,-0x8(%rbp)
    7379:	88 45 fc             	mov    %al,-0x4(%rbp)
    737c:	80 7d fc 00          	cmpb   $0x0,-0x4(%rbp)
    7380:	78 15                	js     7397 <safe_rshift_func_int8_t_s_u+0x2b>
    7382:	83 7d f8 1f          	cmpl   $0x1f,-0x8(%rbp)
    7386:	77 0f                	ja     7397 <safe_rshift_func_int8_t_s_u+0x2b>
    7388:	0f be 55 fc          	movsbl -0x4(%rbp),%edx
    738c:	8b 45 f8             	mov    -0x8(%rbp),%eax
    738f:	89 c1                	mov    %eax,%ecx
    7391:	d3 fa                	sar    %cl,%edx
    7393:	89 d0                	mov    %edx,%eax
    7395:	eb 04                	jmp    739b <safe_rshift_func_int8_t_s_u+0x2f>
    7397:	0f b6 45 fc          	movzbl -0x4(%rbp),%eax
    739b:	5d                   	pop    %rbp
    739c:	c3                   	retq   

000000000000739d <safe_unary_minus_func_int16_t_s>:
    739d:	f3 0f 1e fa          	endbr64 
    73a1:	55                   	push   %rbp
    73a2:	48 89 e5             	mov    %rsp,%rbp
    73a5:	89 f8                	mov    %edi,%eax
    73a7:	66 89 45 fc          	mov    %ax,-0x4(%rbp)
    73ab:	0f b7 45 fc          	movzwl -0x4(%rbp),%eax
    73af:	f7 d8                	neg    %eax
    73b1:	5d                   	pop    %rbp
    73b2:	c3                   	retq   

00000000000073b3 <safe_add_func_int16_t_s_s>:
    73b3:	f3 0f 1e fa          	endbr64 
    73b7:	55                   	push   %rbp
    73b8:	48 89 e5             	mov    %rsp,%rbp
    73bb:	89 fa                	mov    %edi,%edx
    73bd:	89 f0                	mov    %esi,%eax
    73bf:	66 89 55 fc          	mov    %dx,-0x4(%rbp)
    73c3:	66 89 45 f8          	mov    %ax,-0x8(%rbp)
    73c7:	0f b7 55 fc          	movzwl -0x4(%rbp),%edx
    73cb:	0f b7 45 f8          	movzwl -0x8(%rbp),%eax
    73cf:	01 d0                	add    %edx,%eax
    73d1:	5d                   	pop    %rbp
    73d2:	c3                   	retq   

00000000000073d3 <safe_sub_func_int16_t_s_s>:
    73d3:	f3 0f 1e fa          	endbr64 
    73d7:	55                   	push   %rbp
    73d8:	48 89 e5             	mov    %rsp,%rbp
    73db:	89 fa                	mov    %edi,%edx
    73dd:	89 f0                	mov    %esi,%eax
    73df:	66 89 55 fc          	mov    %dx,-0x4(%rbp)
    73e3:	66 89 45 f8          	mov    %ax,-0x8(%rbp)
    73e7:	0f b7 55 fc          	movzwl -0x4(%rbp),%edx
    73eb:	0f b7 45 f8          	movzwl -0x8(%rbp),%eax
    73ef:	29 c2                	sub    %eax,%edx
    73f1:	89 d0                	mov    %edx,%eax
    73f3:	5d                   	pop    %rbp
    73f4:	c3                   	retq   

00000000000073f5 <safe_mul_func_int16_t_s_s>:
    73f5:	f3 0f 1e fa          	endbr64 
    73f9:	55                   	push   %rbp
    73fa:	48 89 e5             	mov    %rsp,%rbp
    73fd:	89 fa                	mov    %edi,%edx
    73ff:	89 f0                	mov    %esi,%eax
    7401:	66 89 55 fc          	mov    %dx,-0x4(%rbp)
    7405:	66 89 45 f8          	mov    %ax,-0x8(%rbp)
    7409:	0f b7 55 fc          	movzwl -0x4(%rbp),%edx
    740d:	0f b7 45 f8          	movzwl -0x8(%rbp),%eax
    7411:	0f af c2             	imul   %edx,%eax
    7414:	5d                   	pop    %rbp
    7415:	c3                   	retq   

0000000000007416 <safe_mod_func_int16_t_s_s>:
    7416:	f3 0f 1e fa          	endbr64 
    741a:	55                   	push   %rbp
    741b:	48 89 e5             	mov    %rsp,%rbp
    741e:	89 fa                	mov    %edi,%edx
    7420:	89 f0                	mov    %esi,%eax
    7422:	66 89 55 fc          	mov    %dx,-0x4(%rbp)
    7426:	66 89 45 f8          	mov    %ax,-0x8(%rbp)
    742a:	66 83 7d f8 00       	cmpw   $0x0,-0x8(%rbp)
    742f:	74 1e                	je     744f <safe_mod_func_int16_t_s_s+0x39>
    7431:	66 81 7d fc 00 80    	cmpw   $0x8000,-0x4(%rbp)
    7437:	75 07                	jne    7440 <safe_mod_func_int16_t_s_s+0x2a>
    7439:	66 83 7d f8 ff       	cmpw   $0xffff,-0x8(%rbp)
    743e:	74 0f                	je     744f <safe_mod_func_int16_t_s_s+0x39>
    7440:	0f bf 45 fc          	movswl -0x4(%rbp),%eax
    7444:	0f bf 4d f8          	movswl -0x8(%rbp),%ecx
    7448:	99                   	cltd   
    7449:	f7 f9                	idiv   %ecx
    744b:	89 d0                	mov    %edx,%eax
    744d:	eb 04                	jmp    7453 <safe_mod_func_int16_t_s_s+0x3d>
    744f:	0f b7 45 fc          	movzwl -0x4(%rbp),%eax
    7453:	5d                   	pop    %rbp
    7454:	c3                   	retq   

0000000000007455 <safe_div_func_int16_t_s_s>:
    7455:	f3 0f 1e fa          	endbr64 
    7459:	55                   	push   %rbp
    745a:	48 89 e5             	mov    %rsp,%rbp
    745d:	89 fa                	mov    %edi,%edx
    745f:	89 f0                	mov    %esi,%eax
    7461:	66 89 55 fc          	mov    %dx,-0x4(%rbp)
    7465:	66 89 45 f8          	mov    %ax,-0x8(%rbp)
    7469:	66 83 7d f8 00       	cmpw   $0x0,-0x8(%rbp)
    746e:	74 1c                	je     748c <safe_div_func_int16_t_s_s+0x37>
    7470:	66 81 7d fc 00 80    	cmpw   $0x8000,-0x4(%rbp)
    7476:	75 07                	jne    747f <safe_div_func_int16_t_s_s+0x2a>
    7478:	66 83 7d f8 ff       	cmpw   $0xffff,-0x8(%rbp)
    747d:	74 0d                	je     748c <safe_div_func_int16_t_s_s+0x37>
    747f:	0f bf 45 fc          	movswl -0x4(%rbp),%eax
    7483:	0f bf 4d f8          	movswl -0x8(%rbp),%ecx
    7487:	99                   	cltd   
    7488:	f7 f9                	idiv   %ecx
    748a:	eb 04                	jmp    7490 <safe_div_func_int16_t_s_s+0x3b>
    748c:	0f b7 45 fc          	movzwl -0x4(%rbp),%eax
    7490:	5d                   	pop    %rbp
    7491:	c3                   	retq   

0000000000007492 <safe_lshift_func_int16_t_s_s>:
    7492:	f3 0f 1e fa          	endbr64 
    7496:	55                   	push   %rbp
    7497:	48 89 e5             	mov    %rsp,%rbp
    749a:	89 f8                	mov    %edi,%eax
    749c:	89 75 f8             	mov    %esi,-0x8(%rbp)
    749f:	66 89 45 fc          	mov    %ax,-0x4(%rbp)
    74a3:	66 83 7d fc 00       	cmpw   $0x0,-0x4(%rbp)
    74a8:	78 31                	js     74db <safe_lshift_func_int16_t_s_s+0x49>
    74aa:	83 7d f8 00          	cmpl   $0x0,-0x8(%rbp)
    74ae:	78 2b                	js     74db <safe_lshift_func_int16_t_s_s+0x49>
    74b0:	83 7d f8 1f          	cmpl   $0x1f,-0x8(%rbp)
    74b4:	7f 25                	jg     74db <safe_lshift_func_int16_t_s_s+0x49>
    74b6:	0f bf 55 fc          	movswl -0x4(%rbp),%edx
    74ba:	8b 45 f8             	mov    -0x8(%rbp),%eax
    74bd:	be ff 7f 00 00       	mov    $0x7fff,%esi
    74c2:	89 c1                	mov    %eax,%ecx
    74c4:	d3 fe                	sar    %cl,%esi
    74c6:	89 f0                	mov    %esi,%eax
    74c8:	39 c2                	cmp    %eax,%edx
    74ca:	7f 0f                	jg     74db <safe_lshift_func_int16_t_s_s+0x49>
    74cc:	0f bf 55 fc          	movswl -0x4(%rbp),%edx
    74d0:	8b 45 f8             	mov    -0x8(%rbp),%eax
    74d3:	89 c1                	mov    %eax,%ecx
    74d5:	d3 e2                	shl    %cl,%edx
    74d7:	89 d0                	mov    %edx,%eax
    74d9:	eb 04                	jmp    74df <safe_lshift_func_int16_t_s_s+0x4d>
    74db:	0f b7 45 fc          	movzwl -0x4(%rbp),%eax
    74df:	5d                   	pop    %rbp
    74e0:	c3                   	retq   

00000000000074e1 <safe_lshift_func_int16_t_s_u>:
    74e1:	f3 0f 1e fa          	endbr64 
    74e5:	55                   	push   %rbp
    74e6:	48 89 e5             	mov    %rsp,%rbp
    74e9:	89 f8                	mov    %edi,%eax
    74eb:	89 75 f8             	mov    %esi,-0x8(%rbp)
    74ee:	66 89 45 fc          	mov    %ax,-0x4(%rbp)
    74f2:	66 83 7d fc 00       	cmpw   $0x0,-0x4(%rbp)
    74f7:	78 2b                	js     7524 <safe_lshift_func_int16_t_s_u+0x43>
    74f9:	83 7d f8 1f          	cmpl   $0x1f,-0x8(%rbp)
    74fd:	77 25                	ja     7524 <safe_lshift_func_int16_t_s_u+0x43>
    74ff:	0f bf 55 fc          	movswl -0x4(%rbp),%edx
    7503:	8b 45 f8             	mov    -0x8(%rbp),%eax
    7506:	be ff 7f 00 00       	mov    $0x7fff,%esi
    750b:	89 c1                	mov    %eax,%ecx
    750d:	d3 fe                	sar    %cl,%esi
    750f:	89 f0                	mov    %esi,%eax
    7511:	39 c2                	cmp    %eax,%edx
    7513:	7f 0f                	jg     7524 <safe_lshift_func_int16_t_s_u+0x43>
    7515:	0f bf 55 fc          	movswl -0x4(%rbp),%edx
    7519:	8b 45 f8             	mov    -0x8(%rbp),%eax
    751c:	89 c1                	mov    %eax,%ecx
    751e:	d3 e2                	shl    %cl,%edx
    7520:	89 d0                	mov    %edx,%eax
    7522:	eb 04                	jmp    7528 <safe_lshift_func_int16_t_s_u+0x47>
    7524:	0f b7 45 fc          	movzwl -0x4(%rbp),%eax
    7528:	5d                   	pop    %rbp
    7529:	c3                   	retq   

000000000000752a <safe_rshift_func_int16_t_s_s>:
    752a:	f3 0f 1e fa          	endbr64 
    752e:	55                   	push   %rbp
    752f:	48 89 e5             	mov    %rsp,%rbp
    7532:	89 f8                	mov    %edi,%eax
    7534:	89 75 f8             	mov    %esi,-0x8(%rbp)
    7537:	66 89 45 fc          	mov    %ax,-0x4(%rbp)
    753b:	66 83 7d fc 00       	cmpw   $0x0,-0x4(%rbp)
    7540:	78 1b                	js     755d <safe_rshift_func_int16_t_s_s+0x33>
    7542:	83 7d f8 00          	cmpl   $0x0,-0x8(%rbp)
    7546:	78 15                	js     755d <safe_rshift_func_int16_t_s_s+0x33>
    7548:	83 7d f8 1f          	cmpl   $0x1f,-0x8(%rbp)
    754c:	7f 0f                	jg     755d <safe_rshift_func_int16_t_s_s+0x33>
    754e:	0f bf 55 fc          	movswl -0x4(%rbp),%edx
    7552:	8b 45 f8             	mov    -0x8(%rbp),%eax
    7555:	89 c1                	mov    %eax,%ecx
    7557:	d3 fa                	sar    %cl,%edx
    7559:	89 d0                	mov    %edx,%eax
    755b:	eb 04                	jmp    7561 <safe_rshift_func_int16_t_s_s+0x37>
    755d:	0f b7 45 fc          	movzwl -0x4(%rbp),%eax
    7561:	5d                   	pop    %rbp
    7562:	c3                   	retq   

0000000000007563 <safe_rshift_func_int16_t_s_u>:
    7563:	f3 0f 1e fa          	endbr64 
    7567:	55                   	push   %rbp
    7568:	48 89 e5             	mov    %rsp,%rbp
    756b:	89 f8                	mov    %edi,%eax
    756d:	89 75 f8             	mov    %esi,-0x8(%rbp)
    7570:	66 89 45 fc          	mov    %ax,-0x4(%rbp)
    7574:	66 83 7d fc 00       	cmpw   $0x0,-0x4(%rbp)
    7579:	78 15                	js     7590 <safe_rshift_func_int16_t_s_u+0x2d>
    757b:	83 7d f8 1f          	cmpl   $0x1f,-0x8(%rbp)
    757f:	77 0f                	ja     7590 <safe_rshift_func_int16_t_s_u+0x2d>
    7581:	0f bf 55 fc          	movswl -0x4(%rbp),%edx
    7585:	8b 45 f8             	mov    -0x8(%rbp),%eax
    7588:	89 c1                	mov    %eax,%ecx
    758a:	d3 fa                	sar    %cl,%edx
    758c:	89 d0                	mov    %edx,%eax
    758e:	eb 04                	jmp    7594 <safe_rshift_func_int16_t_s_u+0x31>
    7590:	0f b7 45 fc          	movzwl -0x4(%rbp),%eax
    7594:	5d                   	pop    %rbp
    7595:	c3                   	retq   

0000000000007596 <safe_unary_minus_func_int32_t_s>:
    7596:	f3 0f 1e fa          	endbr64 
    759a:	55                   	push   %rbp
    759b:	48 89 e5             	mov    %rsp,%rbp
    759e:	89 7d fc             	mov    %edi,-0x4(%rbp)
    75a1:	81 7d fc 00 00 00 80 	cmpl   $0x80000000,-0x4(%rbp)
    75a8:	74 07                	je     75b1 <safe_unary_minus_func_int32_t_s+0x1b>
    75aa:	8b 45 fc             	mov    -0x4(%rbp),%eax
    75ad:	f7 d8                	neg    %eax
    75af:	eb 03                	jmp    75b4 <safe_unary_minus_func_int32_t_s+0x1e>
    75b1:	8b 45 fc             	mov    -0x4(%rbp),%eax
    75b4:	5d                   	pop    %rbp
    75b5:	c3                   	retq   

00000000000075b6 <safe_add_func_int32_t_s_s>:
    75b6:	f3 0f 1e fa          	endbr64 
    75ba:	55                   	push   %rbp
    75bb:	48 89 e5             	mov    %rsp,%rbp
    75be:	89 7d fc             	mov    %edi,-0x4(%rbp)
    75c1:	89 75 f8             	mov    %esi,-0x8(%rbp)
    75c4:	83 7d fc 00          	cmpl   $0x0,-0x4(%rbp)
    75c8:	7e 13                	jle    75dd <safe_add_func_int32_t_s_s+0x27>
    75ca:	83 7d f8 00          	cmpl   $0x0,-0x8(%rbp)
    75ce:	7e 0d                	jle    75dd <safe_add_func_int32_t_s_s+0x27>
    75d0:	b8 ff ff ff 7f       	mov    $0x7fffffff,%eax
    75d5:	2b 45 f8             	sub    -0x8(%rbp),%eax
    75d8:	39 45 fc             	cmp    %eax,-0x4(%rbp)
    75db:	7f 23                	jg     7600 <safe_add_func_int32_t_s_s+0x4a>
    75dd:	83 7d fc 00          	cmpl   $0x0,-0x4(%rbp)
    75e1:	79 13                	jns    75f6 <safe_add_func_int32_t_s_s+0x40>
    75e3:	83 7d f8 00          	cmpl   $0x0,-0x8(%rbp)
    75e7:	79 0d                	jns    75f6 <safe_add_func_int32_t_s_s+0x40>
    75e9:	b8 00 00 00 80       	mov    $0x80000000,%eax
    75ee:	2b 45 f8             	sub    -0x8(%rbp),%eax
    75f1:	39 45 fc             	cmp    %eax,-0x4(%rbp)
    75f4:	7c 0a                	jl     7600 <safe_add_func_int32_t_s_s+0x4a>
    75f6:	8b 55 fc             	mov    -0x4(%rbp),%edx
    75f9:	8b 45 f8             	mov    -0x8(%rbp),%eax
    75fc:	01 d0                	add    %edx,%eax
    75fe:	eb 03                	jmp    7603 <safe_add_func_int32_t_s_s+0x4d>
    7600:	8b 45 fc             	mov    -0x4(%rbp),%eax
    7603:	5d                   	pop    %rbp
    7604:	c3                   	retq   

0000000000007605 <safe_sub_func_int32_t_s_s>:
    7605:	f3 0f 1e fa          	endbr64 
    7609:	55                   	push   %rbp
    760a:	48 89 e5             	mov    %rsp,%rbp
    760d:	89 7d fc             	mov    %edi,-0x4(%rbp)
    7610:	89 75 f8             	mov    %esi,-0x8(%rbp)
    7613:	8b 45 fc             	mov    -0x4(%rbp),%eax
    7616:	33 45 f8             	xor    -0x8(%rbp),%eax
    7619:	89 c2                	mov    %eax,%edx
    761b:	8b 45 fc             	mov    -0x4(%rbp),%eax
    761e:	33 45 f8             	xor    -0x8(%rbp),%eax
    7621:	25 00 00 00 80       	and    $0x80000000,%eax
    7626:	33 45 fc             	xor    -0x4(%rbp),%eax
    7629:	2b 45 f8             	sub    -0x8(%rbp),%eax
    762c:	33 45 f8             	xor    -0x8(%rbp),%eax
    762f:	21 d0                	and    %edx,%eax
    7631:	85 c0                	test   %eax,%eax
    7633:	78 08                	js     763d <safe_sub_func_int32_t_s_s+0x38>
    7635:	8b 45 fc             	mov    -0x4(%rbp),%eax
    7638:	2b 45 f8             	sub    -0x8(%rbp),%eax
    763b:	eb 03                	jmp    7640 <safe_sub_func_int32_t_s_s+0x3b>
    763d:	8b 45 fc             	mov    -0x4(%rbp),%eax
    7640:	5d                   	pop    %rbp
    7641:	c3                   	retq   

0000000000007642 <safe_mul_func_int32_t_s_s>:
    7642:	f3 0f 1e fa          	endbr64 
    7646:	55                   	push   %rbp
    7647:	48 89 e5             	mov    %rsp,%rbp
    764a:	89 7d fc             	mov    %edi,-0x4(%rbp)
    764d:	89 75 f8             	mov    %esi,-0x8(%rbp)
    7650:	83 7d fc 00          	cmpl   $0x0,-0x4(%rbp)
    7654:	7e 14                	jle    766a <safe_mul_func_int32_t_s_s+0x28>
    7656:	83 7d f8 00          	cmpl   $0x0,-0x8(%rbp)
    765a:	7e 0e                	jle    766a <safe_mul_func_int32_t_s_s+0x28>
    765c:	b8 ff ff ff 7f       	mov    $0x7fffffff,%eax
    7661:	99                   	cltd   
    7662:	f7 7d f8             	idivl  -0x8(%rbp)
    7665:	39 45 fc             	cmp    %eax,-0x4(%rbp)
    7668:	7f 5d                	jg     76c7 <safe_mul_func_int32_t_s_s+0x85>
    766a:	83 7d fc 00          	cmpl   $0x0,-0x4(%rbp)
    766e:	7e 14                	jle    7684 <safe_mul_func_int32_t_s_s+0x42>
    7670:	83 7d f8 00          	cmpl   $0x0,-0x8(%rbp)
    7674:	7f 0e                	jg     7684 <safe_mul_func_int32_t_s_s+0x42>
    7676:	b8 00 00 00 80       	mov    $0x80000000,%eax
    767b:	99                   	cltd   
    767c:	f7 7d fc             	idivl  -0x4(%rbp)
    767f:	39 45 f8             	cmp    %eax,-0x8(%rbp)
    7682:	7c 43                	jl     76c7 <safe_mul_func_int32_t_s_s+0x85>
    7684:	83 7d fc 00          	cmpl   $0x0,-0x4(%rbp)
    7688:	7f 14                	jg     769e <safe_mul_func_int32_t_s_s+0x5c>
    768a:	83 7d f8 00          	cmpl   $0x0,-0x8(%rbp)
    768e:	7e 0e                	jle    769e <safe_mul_func_int32_t_s_s+0x5c>
    7690:	b8 00 00 00 80       	mov    $0x80000000,%eax
    7695:	99                   	cltd   
    7696:	f7 7d f8             	idivl  -0x8(%rbp)
    7699:	39 45 fc             	cmp    %eax,-0x4(%rbp)
    769c:	7c 29                	jl     76c7 <safe_mul_func_int32_t_s_s+0x85>
    769e:	83 7d fc 00          	cmpl   $0x0,-0x4(%rbp)
    76a2:	7f 1a                	jg     76be <safe_mul_func_int32_t_s_s+0x7c>
    76a4:	83 7d f8 00          	cmpl   $0x0,-0x8(%rbp)
    76a8:	7f 14                	jg     76be <safe_mul_func_int32_t_s_s+0x7c>
    76aa:	83 7d fc 00          	cmpl   $0x0,-0x4(%rbp)
    76ae:	74 0e                	je     76be <safe_mul_func_int32_t_s_s+0x7c>
    76b0:	b8 ff ff ff 7f       	mov    $0x7fffffff,%eax
    76b5:	99                   	cltd   
    76b6:	f7 7d fc             	idivl  -0x4(%rbp)
    76b9:	39 45 f8             	cmp    %eax,-0x8(%rbp)
    76bc:	7c 09                	jl     76c7 <safe_mul_func_int32_t_s_s+0x85>
    76be:	8b 45 fc             	mov    -0x4(%rbp),%eax
    76c1:	0f af 45 f8          	imul   -0x8(%rbp),%eax
    76c5:	eb 03                	jmp    76ca <safe_mul_func_int32_t_s_s+0x88>
    76c7:	8b 45 fc             	mov    -0x4(%rbp),%eax
    76ca:	5d                   	pop    %rbp
    76cb:	c3                   	retq   

00000000000076cc <safe_mod_func_int32_t_s_s>:
    76cc:	f3 0f 1e fa          	endbr64 
    76d0:	55                   	push   %rbp
    76d1:	48 89 e5             	mov    %rsp,%rbp
    76d4:	89 7d fc             	mov    %edi,-0x4(%rbp)
    76d7:	89 75 f8             	mov    %esi,-0x8(%rbp)
    76da:	83 7d f8 00          	cmpl   $0x0,-0x8(%rbp)
    76de:	74 1a                	je     76fa <safe_mod_func_int32_t_s_s+0x2e>
    76e0:	81 7d fc 00 00 00 80 	cmpl   $0x80000000,-0x4(%rbp)
    76e7:	75 06                	jne    76ef <safe_mod_func_int32_t_s_s+0x23>
    76e9:	83 7d f8 ff          	cmpl   $0xffffffff,-0x8(%rbp)
    76ed:	74 0b                	je     76fa <safe_mod_func_int32_t_s_s+0x2e>
    76ef:	8b 45 fc             	mov    -0x4(%rbp),%eax
    76f2:	99                   	cltd   
    76f3:	f7 7d f8             	idivl  -0x8(%rbp)
    76f6:	89 d0                	mov    %edx,%eax
    76f8:	eb 03                	jmp    76fd <safe_mod_func_int32_t_s_s+0x31>
    76fa:	8b 45 fc             	mov    -0x4(%rbp),%eax
    76fd:	5d                   	pop    %rbp
    76fe:	c3                   	retq   

00000000000076ff <safe_div_func_int32_t_s_s>:
    76ff:	f3 0f 1e fa          	endbr64 
    7703:	55                   	push   %rbp
    7704:	48 89 e5             	mov    %rsp,%rbp
    7707:	89 7d fc             	mov    %edi,-0x4(%rbp)
    770a:	89 75 f8             	mov    %esi,-0x8(%rbp)
    770d:	83 7d f8 00          	cmpl   $0x0,-0x8(%rbp)
    7711:	74 18                	je     772b <safe_div_func_int32_t_s_s+0x2c>
    7713:	81 7d fc 00 00 00 80 	cmpl   $0x80000000,-0x4(%rbp)
    771a:	75 06                	jne    7722 <safe_div_func_int32_t_s_s+0x23>
    771c:	83 7d f8 ff          	cmpl   $0xffffffff,-0x8(%rbp)
    7720:	74 09                	je     772b <safe_div_func_int32_t_s_s+0x2c>
    7722:	8b 45 fc             	mov    -0x4(%rbp),%eax
    7725:	99                   	cltd   
    7726:	f7 7d f8             	idivl  -0x8(%rbp)
    7729:	eb 03                	jmp    772e <safe_div_func_int32_t_s_s+0x2f>
    772b:	8b 45 fc             	mov    -0x4(%rbp),%eax
    772e:	5d                   	pop    %rbp
    772f:	c3                   	retq   

0000000000007730 <safe_lshift_func_int32_t_s_s>:
    7730:	f3 0f 1e fa          	endbr64 
    7734:	55                   	push   %rbp
    7735:	48 89 e5             	mov    %rsp,%rbp
    7738:	89 7d fc             	mov    %edi,-0x4(%rbp)
    773b:	89 75 f8             	mov    %esi,-0x8(%rbp)
    773e:	83 7d fc 00          	cmpl   $0x0,-0x4(%rbp)
    7742:	78 2d                	js     7771 <safe_lshift_func_int32_t_s_s+0x41>
    7744:	83 7d f8 00          	cmpl   $0x0,-0x8(%rbp)
    7748:	78 27                	js     7771 <safe_lshift_func_int32_t_s_s+0x41>
    774a:	83 7d f8 1f          	cmpl   $0x1f,-0x8(%rbp)
    774e:	7f 21                	jg     7771 <safe_lshift_func_int32_t_s_s+0x41>
    7750:	8b 45 f8             	mov    -0x8(%rbp),%eax
    7753:	ba ff ff ff 7f       	mov    $0x7fffffff,%edx
    7758:	89 c1                	mov    %eax,%ecx
    775a:	d3 fa                	sar    %cl,%edx
    775c:	89 d0                	mov    %edx,%eax
    775e:	39 45 fc             	cmp    %eax,-0x4(%rbp)
    7761:	7f 0e                	jg     7771 <safe_lshift_func_int32_t_s_s+0x41>
    7763:	8b 45 f8             	mov    -0x8(%rbp),%eax
    7766:	8b 55 fc             	mov    -0x4(%rbp),%edx
    7769:	89 c1                	mov    %eax,%ecx
    776b:	d3 e2                	shl    %cl,%edx
    776d:	89 d0                	mov    %edx,%eax
    776f:	eb 03                	jmp    7774 <safe_lshift_func_int32_t_s_s+0x44>
    7771:	8b 45 fc             	mov    -0x4(%rbp),%eax
    7774:	5d                   	pop    %rbp
    7775:	c3                   	retq   

0000000000007776 <safe_lshift_func_int32_t_s_u>:
    7776:	f3 0f 1e fa          	endbr64 
    777a:	55                   	push   %rbp
    777b:	48 89 e5             	mov    %rsp,%rbp
    777e:	89 7d fc             	mov    %edi,-0x4(%rbp)
    7781:	89 75 f8             	mov    %esi,-0x8(%rbp)
    7784:	83 7d fc 00          	cmpl   $0x0,-0x4(%rbp)
    7788:	78 27                	js     77b1 <safe_lshift_func_int32_t_s_u+0x3b>
    778a:	83 7d f8 1f          	cmpl   $0x1f,-0x8(%rbp)
    778e:	77 21                	ja     77b1 <safe_lshift_func_int32_t_s_u+0x3b>
    7790:	8b 45 f8             	mov    -0x8(%rbp),%eax
    7793:	ba ff ff ff 7f       	mov    $0x7fffffff,%edx
    7798:	89 c1                	mov    %eax,%ecx
    779a:	d3 fa                	sar    %cl,%edx
    779c:	89 d0                	mov    %edx,%eax
    779e:	39 45 fc             	cmp    %eax,-0x4(%rbp)
    77a1:	7f 0e                	jg     77b1 <safe_lshift_func_int32_t_s_u+0x3b>
    77a3:	8b 45 f8             	mov    -0x8(%rbp),%eax
    77a6:	8b 55 fc             	mov    -0x4(%rbp),%edx
    77a9:	89 c1                	mov    %eax,%ecx
    77ab:	d3 e2                	shl    %cl,%edx
    77ad:	89 d0                	mov    %edx,%eax
    77af:	eb 03                	jmp    77b4 <safe_lshift_func_int32_t_s_u+0x3e>
    77b1:	8b 45 fc             	mov    -0x4(%rbp),%eax
    77b4:	5d                   	pop    %rbp
    77b5:	c3                   	retq   

00000000000077b6 <safe_rshift_func_int32_t_s_s>:
    77b6:	f3 0f 1e fa          	endbr64 
    77ba:	55                   	push   %rbp
    77bb:	48 89 e5             	mov    %rsp,%rbp
    77be:	89 7d fc             	mov    %edi,-0x4(%rbp)
    77c1:	89 75 f8             	mov    %esi,-0x8(%rbp)
    77c4:	83 7d fc 00          	cmpl   $0x0,-0x4(%rbp)
    77c8:	78 1a                	js     77e4 <safe_rshift_func_int32_t_s_s+0x2e>
    77ca:	83 7d f8 00          	cmpl   $0x0,-0x8(%rbp)
    77ce:	78 14                	js     77e4 <safe_rshift_func_int32_t_s_s+0x2e>
    77d0:	83 7d f8 1f          	cmpl   $0x1f,-0x8(%rbp)
    77d4:	7f 0e                	jg     77e4 <safe_rshift_func_int32_t_s_s+0x2e>
    77d6:	8b 45 f8             	mov    -0x8(%rbp),%eax
    77d9:	8b 55 fc             	mov    -0x4(%rbp),%edx
    77dc:	89 c1                	mov    %eax,%ecx
    77de:	d3 fa                	sar    %cl,%edx
    77e0:	89 d0                	mov    %edx,%eax
    77e2:	eb 03                	jmp    77e7 <safe_rshift_func_int32_t_s_s+0x31>
    77e4:	8b 45 fc             	mov    -0x4(%rbp),%eax
    77e7:	5d                   	pop    %rbp
    77e8:	c3                   	retq   

00000000000077e9 <safe_rshift_func_int32_t_s_u>:
    77e9:	f3 0f 1e fa          	endbr64 
    77ed:	55                   	push   %rbp
    77ee:	48 89 e5             	mov    %rsp,%rbp
    77f1:	89 7d fc             	mov    %edi,-0x4(%rbp)
    77f4:	89 75 f8             	mov    %esi,-0x8(%rbp)
    77f7:	83 7d fc 00          	cmpl   $0x0,-0x4(%rbp)
    77fb:	78 14                	js     7811 <safe_rshift_func_int32_t_s_u+0x28>
    77fd:	83 7d f8 1f          	cmpl   $0x1f,-0x8(%rbp)
    7801:	77 0e                	ja     7811 <safe_rshift_func_int32_t_s_u+0x28>
    7803:	8b 45 f8             	mov    -0x8(%rbp),%eax
    7806:	8b 55 fc             	mov    -0x4(%rbp),%edx
    7809:	89 c1                	mov    %eax,%ecx
    780b:	d3 fa                	sar    %cl,%edx
    780d:	89 d0                	mov    %edx,%eax
    780f:	eb 03                	jmp    7814 <safe_rshift_func_int32_t_s_u+0x2b>
    7811:	8b 45 fc             	mov    -0x4(%rbp),%eax
    7814:	5d                   	pop    %rbp
    7815:	c3                   	retq   

0000000000007816 <safe_unary_minus_func_int64_t_s>:
    7816:	f3 0f 1e fa          	endbr64 
    781a:	55                   	push   %rbp
    781b:	48 89 e5             	mov    %rsp,%rbp
    781e:	48 89 7d f8          	mov    %rdi,-0x8(%rbp)
    7822:	48 b8 00 00 00 00 00 	movabs $0x8000000000000000,%rax
    7829:	00 00 80 
    782c:	48 39 45 f8          	cmp    %rax,-0x8(%rbp)
    7830:	74 09                	je     783b <safe_unary_minus_func_int64_t_s+0x25>
    7832:	48 8b 45 f8          	mov    -0x8(%rbp),%rax
    7836:	48 f7 d8             	neg    %rax
    7839:	eb 04                	jmp    783f <safe_unary_minus_func_int64_t_s+0x29>
    783b:	48 8b 45 f8          	mov    -0x8(%rbp),%rax
    783f:	5d                   	pop    %rbp
    7840:	c3                   	retq   

0000000000007841 <safe_add_func_int64_t_s_s>:
    7841:	f3 0f 1e fa          	endbr64 
    7845:	55                   	push   %rbp
    7846:	48 89 e5             	mov    %rsp,%rbp
    7849:	48 89 7d f8          	mov    %rdi,-0x8(%rbp)
    784d:	48 89 75 f0          	mov    %rsi,-0x10(%rbp)
    7851:	48 83 7d f8 00       	cmpq   $0x0,-0x8(%rbp)
    7856:	7e 1b                	jle    7873 <safe_add_func_int64_t_s_s+0x32>
    7858:	48 83 7d f0 00       	cmpq   $0x0,-0x10(%rbp)
    785d:	7e 14                	jle    7873 <safe_add_func_int64_t_s_s+0x32>
    785f:	48 b8 ff ff ff ff ff 	movabs $0x7fffffffffffffff,%rax
    7866:	ff ff 7f 
    7869:	48 2b 45 f0          	sub    -0x10(%rbp),%rax
    786d:	48 39 45 f8          	cmp    %rax,-0x8(%rbp)
    7871:	7f 2f                	jg     78a2 <safe_add_func_int64_t_s_s+0x61>
    7873:	48 83 7d f8 00       	cmpq   $0x0,-0x8(%rbp)
    7878:	79 1b                	jns    7895 <safe_add_func_int64_t_s_s+0x54>
    787a:	48 83 7d f0 00       	cmpq   $0x0,-0x10(%rbp)
    787f:	79 14                	jns    7895 <safe_add_func_int64_t_s_s+0x54>
    7881:	48 b8 00 00 00 00 00 	movabs $0x8000000000000000,%rax
    7888:	00 00 80 
    788b:	48 2b 45 f0          	sub    -0x10(%rbp),%rax
    788f:	48 39 45 f8          	cmp    %rax,-0x8(%rbp)
    7893:	7c 0d                	jl     78a2 <safe_add_func_int64_t_s_s+0x61>
    7895:	48 8b 55 f8          	mov    -0x8(%rbp),%rdx
    7899:	48 8b 45 f0          	mov    -0x10(%rbp),%rax
    789d:	48 01 d0             	add    %rdx,%rax
    78a0:	eb 04                	jmp    78a6 <safe_add_func_int64_t_s_s+0x65>
    78a2:	48 8b 45 f8          	mov    -0x8(%rbp),%rax
    78a6:	5d                   	pop    %rbp
    78a7:	c3                   	retq   

00000000000078a8 <safe_sub_func_int64_t_s_s>:
    78a8:	f3 0f 1e fa          	endbr64 
    78ac:	55                   	push   %rbp
    78ad:	48 89 e5             	mov    %rsp,%rbp
    78b0:	48 89 7d f8          	mov    %rdi,-0x8(%rbp)
    78b4:	48 89 75 f0          	mov    %rsi,-0x10(%rbp)
    78b8:	48 8b 45 f8          	mov    -0x8(%rbp),%rax
    78bc:	48 33 45 f0          	xor    -0x10(%rbp),%rax
    78c0:	48 89 c2             	mov    %rax,%rdx
    78c3:	48 8b 45 f8          	mov    -0x8(%rbp),%rax
    78c7:	48 33 45 f0          	xor    -0x10(%rbp),%rax
    78cb:	48 b9 00 00 00 00 00 	movabs $0x8000000000000000,%rcx
    78d2:	00 00 80 
    78d5:	48 21 c8             	and    %rcx,%rax
    78d8:	48 33 45 f8          	xor    -0x8(%rbp),%rax
    78dc:	48 2b 45 f0          	sub    -0x10(%rbp),%rax
    78e0:	48 33 45 f0          	xor    -0x10(%rbp),%rax
    78e4:	48 21 d0             	and    %rdx,%rax
    78e7:	48 85 c0             	test   %rax,%rax
    78ea:	78 0a                	js     78f6 <safe_sub_func_int64_t_s_s+0x4e>
    78ec:	48 8b 45 f8          	mov    -0x8(%rbp),%rax
    78f0:	48 2b 45 f0          	sub    -0x10(%rbp),%rax
    78f4:	eb 04                	jmp    78fa <safe_sub_func_int64_t_s_s+0x52>
    78f6:	48 8b 45 f8          	mov    -0x8(%rbp),%rax
    78fa:	5d                   	pop    %rbp
    78fb:	c3                   	retq   

00000000000078fc <safe_mul_func_int64_t_s_s>:
    78fc:	f3 0f 1e fa          	endbr64 
    7900:	55                   	push   %rbp
    7901:	48 89 e5             	mov    %rsp,%rbp
    7904:	48 89 7d f8          	mov    %rdi,-0x8(%rbp)
    7908:	48 89 75 f0          	mov    %rsi,-0x10(%rbp)
    790c:	48 83 7d f8 00       	cmpq   $0x0,-0x8(%rbp)
    7911:	7e 1d                	jle    7930 <safe_mul_func_int64_t_s_s+0x34>
    7913:	48 83 7d f0 00       	cmpq   $0x0,-0x10(%rbp)
    7918:	7e 16                	jle    7930 <safe_mul_func_int64_t_s_s+0x34>
    791a:	48 b8 ff ff ff ff ff 	movabs $0x7fffffffffffffff,%rax
    7921:	ff ff 7f 
    7924:	48 99                	cqto   
    7926:	48 f7 7d f0          	idivq  -0x10(%rbp)
    792a:	48 39 45 f8          	cmp    %rax,-0x8(%rbp)
    792e:	7f 7e                	jg     79ae <safe_mul_func_int64_t_s_s+0xb2>
    7930:	48 83 7d f8 00       	cmpq   $0x0,-0x8(%rbp)
    7935:	7e 1d                	jle    7954 <safe_mul_func_int64_t_s_s+0x58>
    7937:	48 83 7d f0 00       	cmpq   $0x0,-0x10(%rbp)
    793c:	7f 16                	jg     7954 <safe_mul_func_int64_t_s_s+0x58>
    793e:	48 b8 00 00 00 00 00 	movabs $0x8000000000000000,%rax
    7945:	00 00 80 
    7948:	48 99                	cqto   
    794a:	48 f7 7d f8          	idivq  -0x8(%rbp)
    794e:	48 39 45 f0          	cmp    %rax,-0x10(%rbp)
    7952:	7c 5a                	jl     79ae <safe_mul_func_int64_t_s_s+0xb2>
    7954:	48 83 7d f8 00       	cmpq   $0x0,-0x8(%rbp)
    7959:	7f 1d                	jg     7978 <safe_mul_func_int64_t_s_s+0x7c>
    795b:	48 83 7d f0 00       	cmpq   $0x0,-0x10(%rbp)
    7960:	7e 16                	jle    7978 <safe_mul_func_int64_t_s_s+0x7c>
    7962:	48 b8 00 00 00 00 00 	movabs $0x8000000000000000,%rax
    7969:	00 00 80 
    796c:	48 99                	cqto   
    796e:	48 f7 7d f0          	idivq  -0x10(%rbp)
    7972:	48 39 45 f8          	cmp    %rax,-0x8(%rbp)
    7976:	7c 36                	jl     79ae <safe_mul_func_int64_t_s_s+0xb2>
    7978:	48 83 7d f8 00       	cmpq   $0x0,-0x8(%rbp)
    797d:	7f 24                	jg     79a3 <safe_mul_func_int64_t_s_s+0xa7>
    797f:	48 83 7d f0 00       	cmpq   $0x0,-0x10(%rbp)
    7984:	7f 1d                	jg     79a3 <safe_mul_func_int64_t_s_s+0xa7>
    7986:	48 83 7d f8 00       	cmpq   $0x0,-0x8(%rbp)
    798b:	74 16                	je     79a3 <safe_mul_func_int64_t_s_s+0xa7>
    798d:	48 b8 ff ff ff ff ff 	movabs $0x7fffffffffffffff,%rax
    7994:	ff ff 7f 
    7997:	48 99                	cqto   
    7999:	48 f7 7d f8          	idivq  -0x8(%rbp)
    799d:	48 39 45 f0          	cmp    %rax,-0x10(%rbp)
    79a1:	7c 0b                	jl     79ae <safe_mul_func_int64_t_s_s+0xb2>
    79a3:	48 8b 45 f8          	mov    -0x8(%rbp),%rax
    79a7:	48 0f af 45 f0       	imul   -0x10(%rbp),%rax
    79ac:	eb 04                	jmp    79b2 <safe_mul_func_int64_t_s_s+0xb6>
    79ae:	48 8b 45 f8          	mov    -0x8(%rbp),%rax
    79b2:	5d                   	pop    %rbp
    79b3:	c3                   	retq   

00000000000079b4 <safe_mod_func_int64_t_s_s>:
    79b4:	f3 0f 1e fa          	endbr64 
    79b8:	55                   	push   %rbp
    79b9:	48 89 e5             	mov    %rsp,%rbp
    79bc:	48 89 7d f8          	mov    %rdi,-0x8(%rbp)
    79c0:	48 89 75 f0          	mov    %rsi,-0x10(%rbp)
    79c4:	48 83 7d f0 00       	cmpq   $0x0,-0x10(%rbp)
    79c9:	74 26                	je     79f1 <safe_mod_func_int64_t_s_s+0x3d>
    79cb:	48 b8 00 00 00 00 00 	movabs $0x8000000000000000,%rax
    79d2:	00 00 80 
    79d5:	48 39 45 f8          	cmp    %rax,-0x8(%rbp)
    79d9:	75 07                	jne    79e2 <safe_mod_func_int64_t_s_s+0x2e>
    79db:	48 83 7d f0 ff       	cmpq   $0xffffffffffffffff,-0x10(%rbp)
    79e0:	74 0f                	je     79f1 <safe_mod_func_int64_t_s_s+0x3d>
    79e2:	48 8b 45 f8          	mov    -0x8(%rbp),%rax
    79e6:	48 99                	cqto   
    79e8:	48 f7 7d f0          	idivq  -0x10(%rbp)
    79ec:	48 89 d0             	mov    %rdx,%rax
    79ef:	eb 04                	jmp    79f5 <safe_mod_func_int64_t_s_s+0x41>
    79f1:	48 8b 45 f8          	mov    -0x8(%rbp),%rax
    79f5:	5d                   	pop    %rbp
    79f6:	c3                   	retq   

00000000000079f7 <safe_div_func_int64_t_s_s>:
    79f7:	f3 0f 1e fa          	endbr64 
    79fb:	55                   	push   %rbp
    79fc:	48 89 e5             	mov    %rsp,%rbp
    79ff:	48 89 7d f8          	mov    %rdi,-0x8(%rbp)
    7a03:	48 89 75 f0          	mov    %rsi,-0x10(%rbp)
    7a07:	48 83 7d f0 00       	cmpq   $0x0,-0x10(%rbp)
    7a0c:	74 23                	je     7a31 <safe_div_func_int64_t_s_s+0x3a>
    7a0e:	48 b8 00 00 00 00 00 	movabs $0x8000000000000000,%rax
    7a15:	00 00 80 
    7a18:	48 39 45 f8          	cmp    %rax,-0x8(%rbp)
    7a1c:	75 07                	jne    7a25 <safe_div_func_int64_t_s_s+0x2e>
    7a1e:	48 83 7d f0 ff       	cmpq   $0xffffffffffffffff,-0x10(%rbp)
    7a23:	74 0c                	je     7a31 <safe_div_func_int64_t_s_s+0x3a>
    7a25:	48 8b 45 f8          	mov    -0x8(%rbp),%rax
    7a29:	48 99                	cqto   
    7a2b:	48 f7 7d f0          	idivq  -0x10(%rbp)
    7a2f:	eb 04                	jmp    7a35 <safe_div_func_int64_t_s_s+0x3e>
    7a31:	48 8b 45 f8          	mov    -0x8(%rbp),%rax
    7a35:	5d                   	pop    %rbp
    7a36:	c3                   	retq   

0000000000007a37 <safe_lshift_func_int64_t_s_s>:
    7a37:	f3 0f 1e fa          	endbr64 
    7a3b:	55                   	push   %rbp
    7a3c:	48 89 e5             	mov    %rsp,%rbp
    7a3f:	48 89 7d f8          	mov    %rdi,-0x8(%rbp)
    7a43:	89 75 f4             	mov    %esi,-0xc(%rbp)
    7a46:	48 83 7d f8 00       	cmpq   $0x0,-0x8(%rbp)
    7a4b:	78 38                	js     7a85 <safe_lshift_func_int64_t_s_s+0x4e>
    7a4d:	83 7d f4 00          	cmpl   $0x0,-0xc(%rbp)
    7a51:	78 32                	js     7a85 <safe_lshift_func_int64_t_s_s+0x4e>
    7a53:	83 7d f4 1f          	cmpl   $0x1f,-0xc(%rbp)
    7a57:	7f 2c                	jg     7a85 <safe_lshift_func_int64_t_s_s+0x4e>
    7a59:	8b 45 f4             	mov    -0xc(%rbp),%eax
    7a5c:	48 ba ff ff ff ff ff 	movabs $0x7fffffffffffffff,%rdx
    7a63:	ff ff 7f 
    7a66:	89 c1                	mov    %eax,%ecx
    7a68:	48 d3 fa             	sar    %cl,%rdx
    7a6b:	48 89 d0             	mov    %rdx,%rax
    7a6e:	48 39 45 f8          	cmp    %rax,-0x8(%rbp)
    7a72:	7f 11                	jg     7a85 <safe_lshift_func_int64_t_s_s+0x4e>
    7a74:	8b 45 f4             	mov    -0xc(%rbp),%eax
    7a77:	48 8b 55 f8          	mov    -0x8(%rbp),%rdx
    7a7b:	89 c1                	mov    %eax,%ecx
    7a7d:	48 d3 e2             	shl    %cl,%rdx
    7a80:	48 89 d0             	mov    %rdx,%rax
    7a83:	eb 04                	jmp    7a89 <safe_lshift_func_int64_t_s_s+0x52>
    7a85:	48 8b 45 f8          	mov    -0x8(%rbp),%rax
    7a89:	5d                   	pop    %rbp
    7a8a:	c3                   	retq   

0000000000007a8b <safe_lshift_func_int64_t_s_u>:
    7a8b:	f3 0f 1e fa          	endbr64 
    7a8f:	55                   	push   %rbp
    7a90:	48 89 e5             	mov    %rsp,%rbp
    7a93:	48 89 7d f8          	mov    %rdi,-0x8(%rbp)
    7a97:	89 75 f4             	mov    %esi,-0xc(%rbp)
    7a9a:	48 83 7d f8 00       	cmpq   $0x0,-0x8(%rbp)
    7a9f:	78 32                	js     7ad3 <safe_lshift_func_int64_t_s_u+0x48>
    7aa1:	83 7d f4 1f          	cmpl   $0x1f,-0xc(%rbp)
    7aa5:	77 2c                	ja     7ad3 <safe_lshift_func_int64_t_s_u+0x48>
    7aa7:	8b 45 f4             	mov    -0xc(%rbp),%eax
    7aaa:	48 ba ff ff ff ff ff 	movabs $0x7fffffffffffffff,%rdx
    7ab1:	ff ff 7f 
    7ab4:	89 c1                	mov    %eax,%ecx
    7ab6:	48 d3 fa             	sar    %cl,%rdx
    7ab9:	48 89 d0             	mov    %rdx,%rax
    7abc:	48 39 45 f8          	cmp    %rax,-0x8(%rbp)
    7ac0:	7f 11                	jg     7ad3 <safe_lshift_func_int64_t_s_u+0x48>
    7ac2:	8b 45 f4             	mov    -0xc(%rbp),%eax
    7ac5:	48 8b 55 f8          	mov    -0x8(%rbp),%rdx
    7ac9:	89 c1                	mov    %eax,%ecx
    7acb:	48 d3 e2             	shl    %cl,%rdx
    7ace:	48 89 d0             	mov    %rdx,%rax
    7ad1:	eb 04                	jmp    7ad7 <safe_lshift_func_int64_t_s_u+0x4c>
    7ad3:	48 8b 45 f8          	mov    -0x8(%rbp),%rax
    7ad7:	5d                   	pop    %rbp
    7ad8:	c3                   	retq   

0000000000007ad9 <safe_rshift_func_int64_t_s_s>:
    7ad9:	f3 0f 1e fa          	endbr64 
    7add:	55                   	push   %rbp
    7ade:	48 89 e5             	mov    %rsp,%rbp
    7ae1:	48 89 7d f8          	mov    %rdi,-0x8(%rbp)
    7ae5:	89 75 f4             	mov    %esi,-0xc(%rbp)
    7ae8:	48 83 7d f8 00       	cmpq   $0x0,-0x8(%rbp)
    7aed:	78 1d                	js     7b0c <safe_rshift_func_int64_t_s_s+0x33>
    7aef:	83 7d f4 00          	cmpl   $0x0,-0xc(%rbp)
    7af3:	78 17                	js     7b0c <safe_rshift_func_int64_t_s_s+0x33>
    7af5:	83 7d f4 1f          	cmpl   $0x1f,-0xc(%rbp)
    7af9:	7f 11                	jg     7b0c <safe_rshift_func_int64_t_s_s+0x33>
    7afb:	8b 45 f4             	mov    -0xc(%rbp),%eax
    7afe:	48 8b 55 f8          	mov    -0x8(%rbp),%rdx
    7b02:	89 c1                	mov    %eax,%ecx
    7b04:	48 d3 fa             	sar    %cl,%rdx
    7b07:	48 89 d0             	mov    %rdx,%rax
    7b0a:	eb 04                	jmp    7b10 <safe_rshift_func_int64_t_s_s+0x37>
    7b0c:	48 8b 45 f8          	mov    -0x8(%rbp),%rax
    7b10:	5d                   	pop    %rbp
    7b11:	c3                   	retq   

0000000000007b12 <safe_rshift_func_int64_t_s_u>:
    7b12:	f3 0f 1e fa          	endbr64 
    7b16:	55                   	push   %rbp
    7b17:	48 89 e5             	mov    %rsp,%rbp
    7b1a:	48 89 7d f8          	mov    %rdi,-0x8(%rbp)
    7b1e:	89 75 f4             	mov    %esi,-0xc(%rbp)
    7b21:	48 83 7d f8 00       	cmpq   $0x0,-0x8(%rbp)
    7b26:	78 17                	js     7b3f <safe_rshift_func_int64_t_s_u+0x2d>
    7b28:	83 7d f4 1f          	cmpl   $0x1f,-0xc(%rbp)
    7b2c:	77 11                	ja     7b3f <safe_rshift_func_int64_t_s_u+0x2d>
    7b2e:	8b 45 f4             	mov    -0xc(%rbp),%eax
    7b31:	48 8b 55 f8          	mov    -0x8(%rbp),%rdx
    7b35:	89 c1                	mov    %eax,%ecx
    7b37:	48 d3 fa             	sar    %cl,%rdx
    7b3a:	48 89 d0             	mov    %rdx,%rax
    7b3d:	eb 04                	jmp    7b43 <safe_rshift_func_int64_t_s_u+0x31>
    7b3f:	48 8b 45 f8          	mov    -0x8(%rbp),%rax
    7b43:	5d                   	pop    %rbp
    7b44:	c3                   	retq   

0000000000007b45 <safe_unary_minus_func_uint8_t_u>:
    7b45:	f3 0f 1e fa          	endbr64 
    7b49:	55                   	push   %rbp
    7b4a:	48 89 e5             	mov    %rsp,%rbp
    7b4d:	89 f8                	mov    %edi,%eax
    7b4f:	88 45 fc             	mov    %al,-0x4(%rbp)
    7b52:	0f b6 45 fc          	movzbl -0x4(%rbp),%eax
    7b56:	f7 d8                	neg    %eax
    7b58:	5d                   	pop    %rbp
    7b59:	c3                   	retq   

0000000000007b5a <safe_add_func_uint8_t_u_u>:
    7b5a:	f3 0f 1e fa          	endbr64 
    7b5e:	55                   	push   %rbp
    7b5f:	48 89 e5             	mov    %rsp,%rbp
    7b62:	89 fa                	mov    %edi,%edx
    7b64:	89 f0                	mov    %esi,%eax
    7b66:	88 55 fc             	mov    %dl,-0x4(%rbp)
    7b69:	88 45 f8             	mov    %al,-0x8(%rbp)
    7b6c:	0f b6 55 fc          	movzbl -0x4(%rbp),%edx
    7b70:	0f b6 45 f8          	movzbl -0x8(%rbp),%eax
    7b74:	01 d0                	add    %edx,%eax
    7b76:	5d                   	pop    %rbp
    7b77:	c3                   	retq   

0000000000007b78 <safe_sub_func_uint8_t_u_u>:
    7b78:	f3 0f 1e fa          	endbr64 
    7b7c:	55                   	push   %rbp
    7b7d:	48 89 e5             	mov    %rsp,%rbp
    7b80:	89 fa                	mov    %edi,%edx
    7b82:	89 f0                	mov    %esi,%eax
    7b84:	88 55 fc             	mov    %dl,-0x4(%rbp)
    7b87:	88 45 f8             	mov    %al,-0x8(%rbp)
    7b8a:	0f b6 45 fc          	movzbl -0x4(%rbp),%eax
    7b8e:	2a 45 f8             	sub    -0x8(%rbp),%al
    7b91:	5d                   	pop    %rbp
    7b92:	c3                   	retq   

0000000000007b93 <safe_mul_func_uint8_t_u_u>:
    7b93:	f3 0f 1e fa          	endbr64 
    7b97:	55                   	push   %rbp
    7b98:	48 89 e5             	mov    %rsp,%rbp
    7b9b:	89 fa                	mov    %edi,%edx
    7b9d:	89 f0                	mov    %esi,%eax
    7b9f:	88 55 fc             	mov    %dl,-0x4(%rbp)
    7ba2:	88 45 f8             	mov    %al,-0x8(%rbp)
    7ba5:	0f b6 45 fc          	movzbl -0x4(%rbp),%eax
    7ba9:	f6 65 f8             	mulb   -0x8(%rbp)
    7bac:	5d                   	pop    %rbp
    7bad:	c3                   	retq   

0000000000007bae <safe_mod_func_uint8_t_u_u>:
    7bae:	f3 0f 1e fa          	endbr64 
    7bb2:	55                   	push   %rbp
    7bb3:	48 89 e5             	mov    %rsp,%rbp
    7bb6:	89 fa                	mov    %edi,%edx
    7bb8:	89 f0                	mov    %esi,%eax
    7bba:	88 55 fc             	mov    %dl,-0x4(%rbp)
    7bbd:	88 45 f8             	mov    %al,-0x8(%rbp)
    7bc0:	80 7d f8 00          	cmpb   $0x0,-0x8(%rbp)
    7bc4:	74 0f                	je     7bd5 <safe_mod_func_uint8_t_u_u+0x27>
    7bc6:	0f b6 45 fc          	movzbl -0x4(%rbp),%eax
    7bca:	0f b6 c0             	movzbl %al,%eax
    7bcd:	f6 75 f8             	divb   -0x8(%rbp)
    7bd0:	0f b6 c4             	movzbl %ah,%eax
    7bd3:	eb 04                	jmp    7bd9 <safe_mod_func_uint8_t_u_u+0x2b>
    7bd5:	0f b6 45 fc          	movzbl -0x4(%rbp),%eax
    7bd9:	5d                   	pop    %rbp
    7bda:	c3                   	retq   

0000000000007bdb <safe_div_func_uint8_t_u_u>:
    7bdb:	f3 0f 1e fa          	endbr64 
    7bdf:	55                   	push   %rbp
    7be0:	48 89 e5             	mov    %rsp,%rbp
    7be3:	89 fa                	mov    %edi,%edx
    7be5:	89 f0                	mov    %esi,%eax
    7be7:	88 55 fc             	mov    %dl,-0x4(%rbp)
    7bea:	88 45 f8             	mov    %al,-0x8(%rbp)
    7bed:	80 7d f8 00          	cmpb   $0x0,-0x8(%rbp)
    7bf1:	74 0c                	je     7bff <safe_div_func_uint8_t_u_u+0x24>
    7bf3:	0f b6 45 fc          	movzbl -0x4(%rbp),%eax
    7bf7:	0f b6 c0             	movzbl %al,%eax
    7bfa:	f6 75 f8             	divb   -0x8(%rbp)
    7bfd:	eb 04                	jmp    7c03 <safe_div_func_uint8_t_u_u+0x28>
    7bff:	0f b6 45 fc          	movzbl -0x4(%rbp),%eax
    7c03:	5d                   	pop    %rbp
    7c04:	c3                   	retq   

0000000000007c05 <safe_lshift_func_uint8_t_u_s>:
    7c05:	f3 0f 1e fa          	endbr64 
    7c09:	55                   	push   %rbp
    7c0a:	48 89 e5             	mov    %rsp,%rbp
    7c0d:	89 f8                	mov    %edi,%eax
    7c0f:	89 75 f8             	mov    %esi,-0x8(%rbp)
    7c12:	88 45 fc             	mov    %al,-0x4(%rbp)
    7c15:	83 7d f8 00          	cmpl   $0x0,-0x8(%rbp)
    7c19:	78 2b                	js     7c46 <safe_lshift_func_uint8_t_u_s+0x41>
    7c1b:	83 7d f8 1f          	cmpl   $0x1f,-0x8(%rbp)
    7c1f:	7f 25                	jg     7c46 <safe_lshift_func_uint8_t_u_s+0x41>
    7c21:	0f b6 55 fc          	movzbl -0x4(%rbp),%edx
    7c25:	8b 45 f8             	mov    -0x8(%rbp),%eax
    7c28:	be ff 00 00 00       	mov    $0xff,%esi
    7c2d:	89 c1                	mov    %eax,%ecx
    7c2f:	d3 fe                	sar    %cl,%esi
    7c31:	89 f0                	mov    %esi,%eax
    7c33:	39 c2                	cmp    %eax,%edx
    7c35:	7f 0f                	jg     7c46 <safe_lshift_func_uint8_t_u_s+0x41>
    7c37:	0f b6 55 fc          	movzbl -0x4(%rbp),%edx
    7c3b:	8b 45 f8             	mov    -0x8(%rbp),%eax
    7c3e:	89 c1                	mov    %eax,%ecx
    7c40:	d3 e2                	shl    %cl,%edx
    7c42:	89 d0                	mov    %edx,%eax
    7c44:	eb 04                	jmp    7c4a <safe_lshift_func_uint8_t_u_s+0x45>
    7c46:	0f b6 45 fc          	movzbl -0x4(%rbp),%eax
    7c4a:	5d                   	pop    %rbp
    7c4b:	c3                   	retq   

0000000000007c4c <safe_lshift_func_uint8_t_u_u>:
    7c4c:	f3 0f 1e fa          	endbr64 
    7c50:	55                   	push   %rbp
    7c51:	48 89 e5             	mov    %rsp,%rbp
    7c54:	89 f8                	mov    %edi,%eax
    7c56:	89 75 f8             	mov    %esi,-0x8(%rbp)
    7c59:	88 45 fc             	mov    %al,-0x4(%rbp)
    7c5c:	83 7d f8 1f          	cmpl   $0x1f,-0x8(%rbp)
    7c60:	77 25                	ja     7c87 <safe_lshift_func_uint8_t_u_u+0x3b>
    7c62:	0f b6 55 fc          	movzbl -0x4(%rbp),%edx
    7c66:	8b 45 f8             	mov    -0x8(%rbp),%eax
    7c69:	be ff 00 00 00       	mov    $0xff,%esi
    7c6e:	89 c1                	mov    %eax,%ecx
    7c70:	d3 fe                	sar    %cl,%esi
    7c72:	89 f0                	mov    %esi,%eax
    7c74:	39 c2                	cmp    %eax,%edx
    7c76:	7f 0f                	jg     7c87 <safe_lshift_func_uint8_t_u_u+0x3b>
    7c78:	0f b6 55 fc          	movzbl -0x4(%rbp),%edx
    7c7c:	8b 45 f8             	mov    -0x8(%rbp),%eax
    7c7f:	89 c1                	mov    %eax,%ecx
    7c81:	d3 e2                	shl    %cl,%edx
    7c83:	89 d0                	mov    %edx,%eax
    7c85:	eb 04                	jmp    7c8b <safe_lshift_func_uint8_t_u_u+0x3f>
    7c87:	0f b6 45 fc          	movzbl -0x4(%rbp),%eax
    7c8b:	5d                   	pop    %rbp
    7c8c:	c3                   	retq   

0000000000007c8d <safe_rshift_func_uint8_t_u_s>:
    7c8d:	f3 0f 1e fa          	endbr64 
    7c91:	55                   	push   %rbp
    7c92:	48 89 e5             	mov    %rsp,%rbp
    7c95:	89 f8                	mov    %edi,%eax
    7c97:	89 75 f8             	mov    %esi,-0x8(%rbp)
    7c9a:	88 45 fc             	mov    %al,-0x4(%rbp)
    7c9d:	83 7d f8 00          	cmpl   $0x0,-0x8(%rbp)
    7ca1:	78 15                	js     7cb8 <safe_rshift_func_uint8_t_u_s+0x2b>
    7ca3:	83 7d f8 1f          	cmpl   $0x1f,-0x8(%rbp)
    7ca7:	7f 0f                	jg     7cb8 <safe_rshift_func_uint8_t_u_s+0x2b>
    7ca9:	0f b6 55 fc          	movzbl -0x4(%rbp),%edx
    7cad:	8b 45 f8             	mov    -0x8(%rbp),%eax
    7cb0:	89 c1                	mov    %eax,%ecx
    7cb2:	d3 fa                	sar    %cl,%edx
    7cb4:	89 d0                	mov    %edx,%eax
    7cb6:	eb 04                	jmp    7cbc <safe_rshift_func_uint8_t_u_s+0x2f>
    7cb8:	0f b6 45 fc          	movzbl -0x4(%rbp),%eax
    7cbc:	5d                   	pop    %rbp
    7cbd:	c3                   	retq   

0000000000007cbe <safe_rshift_func_uint8_t_u_u>:
    7cbe:	f3 0f 1e fa          	endbr64 
    7cc2:	55                   	push   %rbp
    7cc3:	48 89 e5             	mov    %rsp,%rbp
    7cc6:	89 f8                	mov    %edi,%eax
    7cc8:	89 75 f8             	mov    %esi,-0x8(%rbp)
    7ccb:	88 45 fc             	mov    %al,-0x4(%rbp)
    7cce:	83 7d f8 1f          	cmpl   $0x1f,-0x8(%rbp)
    7cd2:	77 0f                	ja     7ce3 <safe_rshift_func_uint8_t_u_u+0x25>
    7cd4:	0f b6 55 fc          	movzbl -0x4(%rbp),%edx
    7cd8:	8b 45 f8             	mov    -0x8(%rbp),%eax
    7cdb:	89 c1                	mov    %eax,%ecx
    7cdd:	d3 fa                	sar    %cl,%edx
    7cdf:	89 d0                	mov    %edx,%eax
    7ce1:	eb 04                	jmp    7ce7 <safe_rshift_func_uint8_t_u_u+0x29>
    7ce3:	0f b6 45 fc          	movzbl -0x4(%rbp),%eax
    7ce7:	5d                   	pop    %rbp
    7ce8:	c3                   	retq   

0000000000007ce9 <safe_unary_minus_func_uint16_t_u>:
    7ce9:	f3 0f 1e fa          	endbr64 
    7ced:	55                   	push   %rbp
    7cee:	48 89 e5             	mov    %rsp,%rbp
    7cf1:	89 f8                	mov    %edi,%eax
    7cf3:	66 89 45 fc          	mov    %ax,-0x4(%rbp)
    7cf7:	0f b7 45 fc          	movzwl -0x4(%rbp),%eax
    7cfb:	f7 d8                	neg    %eax
    7cfd:	5d                   	pop    %rbp
    7cfe:	c3                   	retq   

0000000000007cff <safe_add_func_uint16_t_u_u>:
    7cff:	f3 0f 1e fa          	endbr64 
    7d03:	55                   	push   %rbp
    7d04:	48 89 e5             	mov    %rsp,%rbp
    7d07:	89 fa                	mov    %edi,%edx
    7d09:	89 f0                	mov    %esi,%eax
    7d0b:	66 89 55 fc          	mov    %dx,-0x4(%rbp)
    7d0f:	66 89 45 f8          	mov    %ax,-0x8(%rbp)
    7d13:	0f b7 55 fc          	movzwl -0x4(%rbp),%edx
    7d17:	0f b7 45 f8          	movzwl -0x8(%rbp),%eax
    7d1b:	01 d0                	add    %edx,%eax
    7d1d:	5d                   	pop    %rbp
    7d1e:	c3                   	retq   

0000000000007d1f <safe_sub_func_uint16_t_u_u>:
    7d1f:	f3 0f 1e fa          	endbr64 
    7d23:	55                   	push   %rbp
    7d24:	48 89 e5             	mov    %rsp,%rbp
    7d27:	89 fa                	mov    %edi,%edx
    7d29:	89 f0                	mov    %esi,%eax
    7d2b:	66 89 55 fc          	mov    %dx,-0x4(%rbp)
    7d2f:	66 89 45 f8          	mov    %ax,-0x8(%rbp)
    7d33:	0f b7 45 fc          	movzwl -0x4(%rbp),%eax
    7d37:	66 2b 45 f8          	sub    -0x8(%rbp),%ax
    7d3b:	5d                   	pop    %rbp
    7d3c:	c3                   	retq   

0000000000007d3d <safe_mul_func_uint16_t_u_u>:
    7d3d:	f3 0f 1e fa          	endbr64 
    7d41:	55                   	push   %rbp
    7d42:	48 89 e5             	mov    %rsp,%rbp
    7d45:	89 fa                	mov    %edi,%edx
    7d47:	89 f0                	mov    %esi,%eax
    7d49:	66 89 55 fc          	mov    %dx,-0x4(%rbp)
    7d4d:	66 89 45 f8          	mov    %ax,-0x8(%rbp)
    7d51:	0f b7 45 fc          	movzwl -0x4(%rbp),%eax
    7d55:	66 0f af 45 f8       	imul   -0x8(%rbp),%ax
    7d5a:	5d                   	pop    %rbp
    7d5b:	c3                   	retq   

0000000000007d5c <safe_mod_func_uint16_t_u_u>:
    7d5c:	f3 0f 1e fa          	endbr64 
    7d60:	55                   	push   %rbp
    7d61:	48 89 e5             	mov    %rsp,%rbp
    7d64:	89 fa                	mov    %edi,%edx
    7d66:	89 f0                	mov    %esi,%eax
    7d68:	66 89 55 fc          	mov    %dx,-0x4(%rbp)
    7d6c:	66 89 45 f8          	mov    %ax,-0x8(%rbp)
    7d70:	66 83 7d f8 00       	cmpw   $0x0,-0x8(%rbp)
    7d75:	74 11                	je     7d88 <safe_mod_func_uint16_t_u_u+0x2c>
    7d77:	0f b7 45 fc          	movzwl -0x4(%rbp),%eax
    7d7b:	ba 00 00 00 00       	mov    $0x0,%edx
    7d80:	66 f7 75 f8          	divw   -0x8(%rbp)
    7d84:	89 d0                	mov    %edx,%eax
    7d86:	eb 04                	jmp    7d8c <safe_mod_func_uint16_t_u_u+0x30>
    7d88:	0f b7 45 fc          	movzwl -0x4(%rbp),%eax
    7d8c:	5d                   	pop    %rbp
    7d8d:	c3                   	retq   

0000000000007d8e <safe_div_func_uint16_t_u_u>:
    7d8e:	f3 0f 1e fa          	endbr64 
    7d92:	55                   	push   %rbp
    7d93:	48 89 e5             	mov    %rsp,%rbp
    7d96:	89 fa                	mov    %edi,%edx
    7d98:	89 f0                	mov    %esi,%eax
    7d9a:	66 89 55 fc          	mov    %dx,-0x4(%rbp)
    7d9e:	66 89 45 f8          	mov    %ax,-0x8(%rbp)
    7da2:	66 83 7d f8 00       	cmpw   $0x0,-0x8(%rbp)
    7da7:	74 0f                	je     7db8 <safe_div_func_uint16_t_u_u+0x2a>
    7da9:	0f b7 45 fc          	movzwl -0x4(%rbp),%eax
    7dad:	ba 00 00 00 00       	mov    $0x0,%edx
    7db2:	66 f7 75 f8          	divw   -0x8(%rbp)
    7db6:	eb 04                	jmp    7dbc <safe_div_func_uint16_t_u_u+0x2e>
    7db8:	0f b7 45 fc          	movzwl -0x4(%rbp),%eax
    7dbc:	5d                   	pop    %rbp
    7dbd:	c3                   	retq   

0000000000007dbe <safe_lshift_func_uint16_t_u_s>:
    7dbe:	f3 0f 1e fa          	endbr64 
    7dc2:	55                   	push   %rbp
    7dc3:	48 89 e5             	mov    %rsp,%rbp
    7dc6:	89 f8                	mov    %edi,%eax
    7dc8:	89 75 f8             	mov    %esi,-0x8(%rbp)
    7dcb:	66 89 45 fc          	mov    %ax,-0x4(%rbp)
    7dcf:	83 7d f8 00          	cmpl   $0x0,-0x8(%rbp)
    7dd3:	78 2b                	js     7e00 <safe_lshift_func_uint16_t_u_s+0x42>
    7dd5:	83 7d f8 1f          	cmpl   $0x1f,-0x8(%rbp)
    7dd9:	7f 25                	jg     7e00 <safe_lshift_func_uint16_t_u_s+0x42>
    7ddb:	0f b7 55 fc          	movzwl -0x4(%rbp),%edx
    7ddf:	8b 45 f8             	mov    -0x8(%rbp),%eax
    7de2:	be ff ff 00 00       	mov    $0xffff,%esi
    7de7:	89 c1                	mov    %eax,%ecx
    7de9:	d3 fe                	sar    %cl,%esi
    7deb:	89 f0                	mov    %esi,%eax
    7ded:	39 c2                	cmp    %eax,%edx
    7def:	7f 0f                	jg     7e00 <safe_lshift_func_uint16_t_u_s+0x42>
    7df1:	0f b7 55 fc          	movzwl -0x4(%rbp),%edx
    7df5:	8b 45 f8             	mov    -0x8(%rbp),%eax
    7df8:	89 c1                	mov    %eax,%ecx
    7dfa:	d3 e2                	shl    %cl,%edx
    7dfc:	89 d0                	mov    %edx,%eax
    7dfe:	eb 04                	jmp    7e04 <safe_lshift_func_uint16_t_u_s+0x46>
    7e00:	0f b7 45 fc          	movzwl -0x4(%rbp),%eax
    7e04:	5d                   	pop    %rbp
    7e05:	c3                   	retq   

0000000000007e06 <safe_lshift_func_uint16_t_u_u>:
    7e06:	f3 0f 1e fa          	endbr64 
    7e0a:	55                   	push   %rbp
    7e0b:	48 89 e5             	mov    %rsp,%rbp
    7e0e:	89 f8                	mov    %edi,%eax
    7e10:	89 75 f8             	mov    %esi,-0x8(%rbp)
    7e13:	66 89 45 fc          	mov    %ax,-0x4(%rbp)
    7e17:	83 7d f8 1f          	cmpl   $0x1f,-0x8(%rbp)
    7e1b:	77 25                	ja     7e42 <safe_lshift_func_uint16_t_u_u+0x3c>
    7e1d:	0f b7 55 fc          	movzwl -0x4(%rbp),%edx
    7e21:	8b 45 f8             	mov    -0x8(%rbp),%eax
    7e24:	be ff ff 00 00       	mov    $0xffff,%esi
    7e29:	89 c1                	mov    %eax,%ecx
    7e2b:	d3 fe                	sar    %cl,%esi
    7e2d:	89 f0                	mov    %esi,%eax
    7e2f:	39 c2                	cmp    %eax,%edx
    7e31:	7f 0f                	jg     7e42 <safe_lshift_func_uint16_t_u_u+0x3c>
    7e33:	0f b7 55 fc          	movzwl -0x4(%rbp),%edx
    7e37:	8b 45 f8             	mov    -0x8(%rbp),%eax
    7e3a:	89 c1                	mov    %eax,%ecx
    7e3c:	d3 e2                	shl    %cl,%edx
    7e3e:	89 d0                	mov    %edx,%eax
    7e40:	eb 04                	jmp    7e46 <safe_lshift_func_uint16_t_u_u+0x40>
    7e42:	0f b7 45 fc          	movzwl -0x4(%rbp),%eax
    7e46:	5d                   	pop    %rbp
    7e47:	c3                   	retq   

0000000000007e48 <safe_rshift_func_uint16_t_u_s>:
    7e48:	f3 0f 1e fa          	endbr64 
    7e4c:	55                   	push   %rbp
    7e4d:	48 89 e5             	mov    %rsp,%rbp
    7e50:	89 f8                	mov    %edi,%eax
    7e52:	89 75 f8             	mov    %esi,-0x8(%rbp)
    7e55:	66 89 45 fc          	mov    %ax,-0x4(%rbp)
    7e59:	83 7d f8 00          	cmpl   $0x0,-0x8(%rbp)
    7e5d:	78 15                	js     7e74 <safe_rshift_func_uint16_t_u_s+0x2c>
    7e5f:	83 7d f8 1f          	cmpl   $0x1f,-0x8(%rbp)
    7e63:	7f 0f                	jg     7e74 <safe_rshift_func_uint16_t_u_s+0x2c>
    7e65:	0f b7 55 fc          	movzwl -0x4(%rbp),%edx
    7e69:	8b 45 f8             	mov    -0x8(%rbp),%eax
    7e6c:	89 c1                	mov    %eax,%ecx
    7e6e:	d3 fa                	sar    %cl,%edx
    7e70:	89 d0                	mov    %edx,%eax
    7e72:	eb 04                	jmp    7e78 <safe_rshift_func_uint16_t_u_s+0x30>
    7e74:	0f b7 45 fc          	movzwl -0x4(%rbp),%eax
    7e78:	5d                   	pop    %rbp
    7e79:	c3                   	retq   

0000000000007e7a <safe_rshift_func_uint16_t_u_u>:
    7e7a:	f3 0f 1e fa          	endbr64 
    7e7e:	55                   	push   %rbp
    7e7f:	48 89 e5             	mov    %rsp,%rbp
    7e82:	89 f8                	mov    %edi,%eax
    7e84:	89 75 f8             	mov    %esi,-0x8(%rbp)
    7e87:	66 89 45 fc          	mov    %ax,-0x4(%rbp)
    7e8b:	83 7d f8 1f          	cmpl   $0x1f,-0x8(%rbp)
    7e8f:	77 0f                	ja     7ea0 <safe_rshift_func_uint16_t_u_u+0x26>
    7e91:	0f b7 55 fc          	movzwl -0x4(%rbp),%edx
    7e95:	8b 45 f8             	mov    -0x8(%rbp),%eax
    7e98:	89 c1                	mov    %eax,%ecx
    7e9a:	d3 fa                	sar    %cl,%edx
    7e9c:	89 d0                	mov    %edx,%eax
    7e9e:	eb 04                	jmp    7ea4 <safe_rshift_func_uint16_t_u_u+0x2a>
    7ea0:	0f b7 45 fc          	movzwl -0x4(%rbp),%eax
    7ea4:	5d                   	pop    %rbp
    7ea5:	c3                   	retq   

0000000000007ea6 <safe_unary_minus_func_uint32_t_u>:
    7ea6:	f3 0f 1e fa          	endbr64 
    7eaa:	55                   	push   %rbp
    7eab:	48 89 e5             	mov    %rsp,%rbp
    7eae:	89 7d fc             	mov    %edi,-0x4(%rbp)
    7eb1:	8b 45 fc             	mov    -0x4(%rbp),%eax
    7eb4:	f7 d8                	neg    %eax
    7eb6:	5d                   	pop    %rbp
    7eb7:	c3                   	retq   

0000000000007eb8 <safe_add_func_uint32_t_u_u>:
    7eb8:	f3 0f 1e fa          	endbr64 
    7ebc:	55                   	push   %rbp
    7ebd:	48 89 e5             	mov    %rsp,%rbp
    7ec0:	89 7d fc             	mov    %edi,-0x4(%rbp)
    7ec3:	89 75 f8             	mov    %esi,-0x8(%rbp)
    7ec6:	8b 55 fc             	mov    -0x4(%rbp),%edx
    7ec9:	8b 45 f8             	mov    -0x8(%rbp),%eax
    7ecc:	01 d0                	add    %edx,%eax
    7ece:	5d                   	pop    %rbp
    7ecf:	c3                   	retq   

0000000000007ed0 <safe_sub_func_uint32_t_u_u>:
    7ed0:	f3 0f 1e fa          	endbr64 
    7ed4:	55                   	push   %rbp
    7ed5:	48 89 e5             	mov    %rsp,%rbp
    7ed8:	89 7d fc             	mov    %edi,-0x4(%rbp)
    7edb:	89 75 f8             	mov    %esi,-0x8(%rbp)
    7ede:	8b 45 fc             	mov    -0x4(%rbp),%eax
    7ee1:	2b 45 f8             	sub    -0x8(%rbp),%eax
    7ee4:	5d                   	pop    %rbp
    7ee5:	c3                   	retq   

0000000000007ee6 <safe_mul_func_uint32_t_u_u>:
    7ee6:	f3 0f 1e fa          	endbr64 
    7eea:	55                   	push   %rbp
    7eeb:	48 89 e5             	mov    %rsp,%rbp
    7eee:	89 7d fc             	mov    %edi,-0x4(%rbp)
    7ef1:	89 75 f8             	mov    %esi,-0x8(%rbp)
    7ef4:	8b 45 fc             	mov    -0x4(%rbp),%eax
    7ef7:	0f af 45 f8          	imul   -0x8(%rbp),%eax
    7efb:	5d                   	pop    %rbp
    7efc:	c3                   	retq   

0000000000007efd <safe_mod_func_uint32_t_u_u>:
    7efd:	f3 0f 1e fa          	endbr64 
    7f01:	55                   	push   %rbp
    7f02:	48 89 e5             	mov    %rsp,%rbp
    7f05:	89 7d fc             	mov    %edi,-0x4(%rbp)
    7f08:	89 75 f8             	mov    %esi,-0x8(%rbp)
    7f0b:	83 7d f8 00          	cmpl   $0x0,-0x8(%rbp)
    7f0f:	74 0f                	je     7f20 <safe_mod_func_uint32_t_u_u+0x23>
    7f11:	8b 45 fc             	mov    -0x4(%rbp),%eax
    7f14:	ba 00 00 00 00       	mov    $0x0,%edx
    7f19:	f7 75 f8             	divl   -0x8(%rbp)
    7f1c:	89 d0                	mov    %edx,%eax
    7f1e:	eb 03                	jmp    7f23 <safe_mod_func_uint32_t_u_u+0x26>
    7f20:	8b 45 fc             	mov    -0x4(%rbp),%eax
    7f23:	5d                   	pop    %rbp
    7f24:	c3                   	retq   

0000000000007f25 <safe_div_func_uint32_t_u_u>:
    7f25:	f3 0f 1e fa          	endbr64 
    7f29:	55                   	push   %rbp
    7f2a:	48 89 e5             	mov    %rsp,%rbp
    7f2d:	89 7d fc             	mov    %edi,-0x4(%rbp)
    7f30:	89 75 f8             	mov    %esi,-0x8(%rbp)
    7f33:	83 7d f8 00          	cmpl   $0x0,-0x8(%rbp)
    7f37:	74 0d                	je     7f46 <safe_div_func_uint32_t_u_u+0x21>
    7f39:	8b 45 fc             	mov    -0x4(%rbp),%eax
    7f3c:	ba 00 00 00 00       	mov    $0x0,%edx
    7f41:	f7 75 f8             	divl   -0x8(%rbp)
    7f44:	eb 03                	jmp    7f49 <safe_div_func_uint32_t_u_u+0x24>
    7f46:	8b 45 fc             	mov    -0x4(%rbp),%eax
    7f49:	5d                   	pop    %rbp
    7f4a:	c3                   	retq   

0000000000007f4b <safe_lshift_func_uint32_t_u_s>:
    7f4b:	f3 0f 1e fa          	endbr64 
    7f4f:	55                   	push   %rbp
    7f50:	48 89 e5             	mov    %rsp,%rbp
    7f53:	89 7d fc             	mov    %edi,-0x4(%rbp)
    7f56:	89 75 f8             	mov    %esi,-0x8(%rbp)
    7f59:	83 7d f8 00          	cmpl   $0x0,-0x8(%rbp)
    7f5d:	78 27                	js     7f86 <safe_lshift_func_uint32_t_u_s+0x3b>
    7f5f:	83 7d f8 1f          	cmpl   $0x1f,-0x8(%rbp)
    7f63:	7f 21                	jg     7f86 <safe_lshift_func_uint32_t_u_s+0x3b>
    7f65:	8b 45 f8             	mov    -0x8(%rbp),%eax
    7f68:	ba ff ff ff ff       	mov    $0xffffffff,%edx
    7f6d:	89 c1                	mov    %eax,%ecx
    7f6f:	d3 ea                	shr    %cl,%edx
    7f71:	89 d0                	mov    %edx,%eax
    7f73:	39 45 fc             	cmp    %eax,-0x4(%rbp)
    7f76:	77 0e                	ja     7f86 <safe_lshift_func_uint32_t_u_s+0x3b>
    7f78:	8b 45 f8             	mov    -0x8(%rbp),%eax
    7f7b:	8b 55 fc             	mov    -0x4(%rbp),%edx
    7f7e:	89 c1                	mov    %eax,%ecx
    7f80:	d3 e2                	shl    %cl,%edx
    7f82:	89 d0                	mov    %edx,%eax
    7f84:	eb 03                	jmp    7f89 <safe_lshift_func_uint32_t_u_s+0x3e>
    7f86:	8b 45 fc             	mov    -0x4(%rbp),%eax
    7f89:	5d                   	pop    %rbp
    7f8a:	c3                   	retq   

0000000000007f8b <safe_lshift_func_uint32_t_u_u>:
    7f8b:	f3 0f 1e fa          	endbr64 
    7f8f:	55                   	push   %rbp
    7f90:	48 89 e5             	mov    %rsp,%rbp
    7f93:	89 7d fc             	mov    %edi,-0x4(%rbp)
    7f96:	89 75 f8             	mov    %esi,-0x8(%rbp)
    7f99:	83 7d f8 1f          	cmpl   $0x1f,-0x8(%rbp)
    7f9d:	77 21                	ja     7fc0 <safe_lshift_func_uint32_t_u_u+0x35>
    7f9f:	8b 45 f8             	mov    -0x8(%rbp),%eax
    7fa2:	ba ff ff ff ff       	mov    $0xffffffff,%edx
    7fa7:	89 c1                	mov    %eax,%ecx
    7fa9:	d3 ea                	shr    %cl,%edx
    7fab:	89 d0                	mov    %edx,%eax
    7fad:	39 45 fc             	cmp    %eax,-0x4(%rbp)
    7fb0:	77 0e                	ja     7fc0 <safe_lshift_func_uint32_t_u_u+0x35>
    7fb2:	8b 45 f8             	mov    -0x8(%rbp),%eax
    7fb5:	8b 55 fc             	mov    -0x4(%rbp),%edx
    7fb8:	89 c1                	mov    %eax,%ecx
    7fba:	d3 e2                	shl    %cl,%edx
    7fbc:	89 d0                	mov    %edx,%eax
    7fbe:	eb 03                	jmp    7fc3 <safe_lshift_func_uint32_t_u_u+0x38>
    7fc0:	8b 45 fc             	mov    -0x4(%rbp),%eax
    7fc3:	5d                   	pop    %rbp
    7fc4:	c3                   	retq   

0000000000007fc5 <safe_rshift_func_uint32_t_u_s>:
    7fc5:	f3 0f 1e fa          	endbr64 
    7fc9:	55                   	push   %rbp
    7fca:	48 89 e5             	mov    %rsp,%rbp
    7fcd:	89 7d fc             	mov    %edi,-0x4(%rbp)
    7fd0:	89 75 f8             	mov    %esi,-0x8(%rbp)
    7fd3:	83 7d f8 00          	cmpl   $0x0,-0x8(%rbp)
    7fd7:	78 14                	js     7fed <safe_rshift_func_uint32_t_u_s+0x28>
    7fd9:	83 7d f8 1f          	cmpl   $0x1f,-0x8(%rbp)
    7fdd:	7f 0e                	jg     7fed <safe_rshift_func_uint32_t_u_s+0x28>
    7fdf:	8b 45 f8             	mov    -0x8(%rbp),%eax
    7fe2:	8b 55 fc             	mov    -0x4(%rbp),%edx
    7fe5:	89 c1                	mov    %eax,%ecx
    7fe7:	d3 ea                	shr    %cl,%edx
    7fe9:	89 d0                	mov    %edx,%eax
    7feb:	eb 03                	jmp    7ff0 <safe_rshift_func_uint32_t_u_s+0x2b>
    7fed:	8b 45 fc             	mov    -0x4(%rbp),%eax
    7ff0:	5d                   	pop    %rbp
    7ff1:	c3                   	retq   

0000000000007ff2 <safe_rshift_func_uint32_t_u_u>:
    7ff2:	f3 0f 1e fa          	endbr64 
    7ff6:	55                   	push   %rbp
    7ff7:	48 89 e5             	mov    %rsp,%rbp
    7ffa:	89 7d fc             	mov    %edi,-0x4(%rbp)
    7ffd:	89 75 f8             	mov    %esi,-0x8(%rbp)
    8000:	83 7d f8 1f          	cmpl   $0x1f,-0x8(%rbp)
    8004:	77 0e                	ja     8014 <safe_rshift_func_uint32_t_u_u+0x22>
    8006:	8b 45 f8             	mov    -0x8(%rbp),%eax
    8009:	8b 55 fc             	mov    -0x4(%rbp),%edx
    800c:	89 c1                	mov    %eax,%ecx
    800e:	d3 ea                	shr    %cl,%edx
    8010:	89 d0                	mov    %edx,%eax
    8012:	eb 03                	jmp    8017 <safe_rshift_func_uint32_t_u_u+0x25>
    8014:	8b 45 fc             	mov    -0x4(%rbp),%eax
    8017:	5d                   	pop    %rbp
    8018:	c3                   	retq   

0000000000008019 <safe_unary_minus_func_uint64_t_u>:
    8019:	f3 0f 1e fa          	endbr64 
    801d:	55                   	push   %rbp
    801e:	48 89 e5             	mov    %rsp,%rbp
    8021:	48 89 7d f8          	mov    %rdi,-0x8(%rbp)
    8025:	48 8b 45 f8          	mov    -0x8(%rbp),%rax
    8029:	48 f7 d8             	neg    %rax
    802c:	5d                   	pop    %rbp
    802d:	c3                   	retq   

000000000000802e <safe_add_func_uint64_t_u_u>:
    802e:	f3 0f 1e fa          	endbr64 
    8032:	55                   	push   %rbp
    8033:	48 89 e5             	mov    %rsp,%rbp
    8036:	48 89 7d f8          	mov    %rdi,-0x8(%rbp)
    803a:	48 89 75 f0          	mov    %rsi,-0x10(%rbp)
    803e:	48 8b 55 f8          	mov    -0x8(%rbp),%rdx
    8042:	48 8b 45 f0          	mov    -0x10(%rbp),%rax
    8046:	48 01 d0             	add    %rdx,%rax
    8049:	5d                   	pop    %rbp
    804a:	c3                   	retq   

000000000000804b <safe_sub_func_uint64_t_u_u>:
    804b:	f3 0f 1e fa          	endbr64 
    804f:	55                   	push   %rbp
    8050:	48 89 e5             	mov    %rsp,%rbp
    8053:	48 89 7d f8          	mov    %rdi,-0x8(%rbp)
    8057:	48 89 75 f0          	mov    %rsi,-0x10(%rbp)
    805b:	48 8b 45 f8          	mov    -0x8(%rbp),%rax
    805f:	48 2b 45 f0          	sub    -0x10(%rbp),%rax
    8063:	5d                   	pop    %rbp
    8064:	c3                   	retq   

0000000000008065 <safe_mul_func_uint64_t_u_u>:
    8065:	f3 0f 1e fa          	endbr64 
    8069:	55                   	push   %rbp
    806a:	48 89 e5             	mov    %rsp,%rbp
    806d:	48 89 7d f8          	mov    %rdi,-0x8(%rbp)
    8071:	48 89 75 f0          	mov    %rsi,-0x10(%rbp)
    8075:	48 8b 45 f8          	mov    -0x8(%rbp),%rax
    8079:	48 0f af 45 f0       	imul   -0x10(%rbp),%rax
    807e:	5d                   	pop    %rbp
    807f:	c3                   	retq   

0000000000008080 <safe_mod_func_uint64_t_u_u>:
    8080:	f3 0f 1e fa          	endbr64 
    8084:	55                   	push   %rbp
    8085:	48 89 e5             	mov    %rsp,%rbp
    8088:	48 89 7d f8          	mov    %rdi,-0x8(%rbp)
    808c:	48 89 75 f0          	mov    %rsi,-0x10(%rbp)
    8090:	48 83 7d f0 00       	cmpq   $0x0,-0x10(%rbp)
    8095:	74 12                	je     80a9 <safe_mod_func_uint64_t_u_u+0x29>
    8097:	48 8b 45 f8          	mov    -0x8(%rbp),%rax
    809b:	ba 00 00 00 00       	mov    $0x0,%edx
    80a0:	48 f7 75 f0          	divq   -0x10(%rbp)
    80a4:	48 89 d0             	mov    %rdx,%rax
    80a7:	eb 04                	jmp    80ad <safe_mod_func_uint64_t_u_u+0x2d>
    80a9:	48 8b 45 f8          	mov    -0x8(%rbp),%rax
    80ad:	5d                   	pop    %rbp
    80ae:	c3                   	retq   

00000000000080af <safe_div_func_uint64_t_u_u>:
    80af:	f3 0f 1e fa          	endbr64 
    80b3:	55                   	push   %rbp
    80b4:	48 89 e5             	mov    %rsp,%rbp
    80b7:	48 89 7d f8          	mov    %rdi,-0x8(%rbp)
    80bb:	48 89 75 f0          	mov    %rsi,-0x10(%rbp)
    80bf:	48 83 7d f0 00       	cmpq   $0x0,-0x10(%rbp)
    80c4:	74 0f                	je     80d5 <safe_div_func_uint64_t_u_u+0x26>
    80c6:	48 8b 45 f8          	mov    -0x8(%rbp),%rax
    80ca:	ba 00 00 00 00       	mov    $0x0,%edx
    80cf:	48 f7 75 f0          	divq   -0x10(%rbp)
    80d3:	eb 04                	jmp    80d9 <safe_div_func_uint64_t_u_u+0x2a>
    80d5:	48 8b 45 f8          	mov    -0x8(%rbp),%rax
    80d9:	5d                   	pop    %rbp
    80da:	c3                   	retq   

00000000000080db <safe_lshift_func_uint64_t_u_s>:
    80db:	f3 0f 1e fa          	endbr64 
    80df:	55                   	push   %rbp
    80e0:	48 89 e5             	mov    %rsp,%rbp
    80e3:	48 89 7d f8          	mov    %rdi,-0x8(%rbp)
    80e7:	89 75 f4             	mov    %esi,-0xc(%rbp)
    80ea:	83 7d f4 00          	cmpl   $0x0,-0xc(%rbp)
    80ee:	78 2f                	js     811f <safe_lshift_func_uint64_t_u_s+0x44>
    80f0:	83 7d f4 1f          	cmpl   $0x1f,-0xc(%rbp)
    80f4:	7f 29                	jg     811f <safe_lshift_func_uint64_t_u_s+0x44>
    80f6:	8b 45 f4             	mov    -0xc(%rbp),%eax
    80f9:	48 c7 c2 ff ff ff ff 	mov    $0xffffffffffffffff,%rdx
    8100:	89 c1                	mov    %eax,%ecx
    8102:	48 d3 ea             	shr    %cl,%rdx
    8105:	48 89 d0             	mov    %rdx,%rax
    8108:	48 39 45 f8          	cmp    %rax,-0x8(%rbp)
    810c:	77 11                	ja     811f <safe_lshift_func_uint64_t_u_s+0x44>
    810e:	8b 45 f4             	mov    -0xc(%rbp),%eax
    8111:	48 8b 55 f8          	mov    -0x8(%rbp),%rdx
    8115:	89 c1                	mov    %eax,%ecx
    8117:	48 d3 e2             	shl    %cl,%rdx
    811a:	48 89 d0             	mov    %rdx,%rax
    811d:	eb 04                	jmp    8123 <safe_lshift_func_uint64_t_u_s+0x48>
    811f:	48 8b 45 f8          	mov    -0x8(%rbp),%rax
    8123:	5d                   	pop    %rbp
    8124:	c3                   	retq   

0000000000008125 <safe_lshift_func_uint64_t_u_u>:
    8125:	f3 0f 1e fa          	endbr64 
    8129:	55                   	push   %rbp
    812a:	48 89 e5             	mov    %rsp,%rbp
    812d:	48 89 7d f8          	mov    %rdi,-0x8(%rbp)
    8131:	89 75 f4             	mov    %esi,-0xc(%rbp)
    8134:	83 7d f4 1f          	cmpl   $0x1f,-0xc(%rbp)
    8138:	77 29                	ja     8163 <safe_lshift_func_uint64_t_u_u+0x3e>
    813a:	8b 45 f4             	mov    -0xc(%rbp),%eax
    813d:	48 c7 c2 ff ff ff ff 	mov    $0xffffffffffffffff,%rdx
    8144:	89 c1                	mov    %eax,%ecx
    8146:	48 d3 ea             	shr    %cl,%rdx
    8149:	48 89 d0             	mov    %rdx,%rax
    814c:	48 39 45 f8          	cmp    %rax,-0x8(%rbp)
    8150:	77 11                	ja     8163 <safe_lshift_func_uint64_t_u_u+0x3e>
    8152:	8b 45 f4             	mov    -0xc(%rbp),%eax
    8155:	48 8b 55 f8          	mov    -0x8(%rbp),%rdx
    8159:	89 c1                	mov    %eax,%ecx
    815b:	48 d3 e2             	shl    %cl,%rdx
    815e:	48 89 d0             	mov    %rdx,%rax
    8161:	eb 04                	jmp    8167 <safe_lshift_func_uint64_t_u_u+0x42>
    8163:	48 8b 45 f8          	mov    -0x8(%rbp),%rax
    8167:	5d                   	pop    %rbp
    8168:	c3                   	retq   

0000000000008169 <safe_rshift_func_uint64_t_u_s>:
    8169:	f3 0f 1e fa          	endbr64 
    816d:	55                   	push   %rbp
    816e:	48 89 e5             	mov    %rsp,%rbp
    8171:	48 89 7d f8          	mov    %rdi,-0x8(%rbp)
    8175:	89 75 f4             	mov    %esi,-0xc(%rbp)
    8178:	83 7d f4 00          	cmpl   $0x0,-0xc(%rbp)
    817c:	78 17                	js     8195 <safe_rshift_func_uint64_t_u_s+0x2c>
    817e:	83 7d f4 1f          	cmpl   $0x1f,-0xc(%rbp)
    8182:	7f 11                	jg     8195 <safe_rshift_func_uint64_t_u_s+0x2c>
    8184:	8b 45 f4             	mov    -0xc(%rbp),%eax
    8187:	48 8b 55 f8          	mov    -0x8(%rbp),%rdx
    818b:	89 c1                	mov    %eax,%ecx
    818d:	48 d3 ea             	shr    %cl,%rdx
    8190:	48 89 d0             	mov    %rdx,%rax
    8193:	eb 04                	jmp    8199 <safe_rshift_func_uint64_t_u_s+0x30>
    8195:	48 8b 45 f8          	mov    -0x8(%rbp),%rax
    8199:	5d                   	pop    %rbp
    819a:	c3                   	retq   

000000000000819b <safe_rshift_func_uint64_t_u_u>:
    819b:	f3 0f 1e fa          	endbr64 
    819f:	55                   	push   %rbp
    81a0:	48 89 e5             	mov    %rsp,%rbp
    81a3:	48 89 7d f8          	mov    %rdi,-0x8(%rbp)
    81a7:	89 75 f4             	mov    %esi,-0xc(%rbp)
    81aa:	83 7d f4 1f          	cmpl   $0x1f,-0xc(%rbp)
    81ae:	77 11                	ja     81c1 <safe_rshift_func_uint64_t_u_u+0x26>
    81b0:	8b 45 f4             	mov    -0xc(%rbp),%eax
    81b3:	48 8b 55 f8          	mov    -0x8(%rbp),%rdx
    81b7:	89 c1                	mov    %eax,%ecx
    81b9:	48 d3 ea             	shr    %cl,%rdx
    81bc:	48 89 d0             	mov    %rdx,%rax
    81bf:	eb 04                	jmp    81c5 <safe_rshift_func_uint64_t_u_u+0x2a>
    81c1:	48 8b 45 f8          	mov    -0x8(%rbp),%rax
    81c5:	5d                   	pop    %rbp
    81c6:	c3                   	retq   

00000000000081c7 <safe_add_func_float_f_f>:
    81c7:	f3 0f 1e fa          	endbr64 
    81cb:	55                   	push   %rbp
    81cc:	48 89 e5             	mov    %rsp,%rbp
    81cf:	f3 0f 11 45 fc       	movss  %xmm0,-0x4(%rbp)
    81d4:	f3 0f 11 4d f8       	movss  %xmm1,-0x8(%rbp)
    81d9:	f3 0f 10 4d fc       	movss  -0x4(%rbp),%xmm1
    81de:	f3 0f 10 05 72 ab 00 	movss  0xab72(%rip),%xmm0        # 12d58 <g_2875+0xcfc>
    81e5:	00 
    81e6:	f3 0f 59 c8          	mulss  %xmm0,%xmm1
    81ea:	f3 0f 10 55 f8       	movss  -0x8(%rbp),%xmm2
    81ef:	f3 0f 10 05 61 ab 00 	movss  0xab61(%rip),%xmm0        # 12d58 <g_2875+0xcfc>
    81f6:	00 
    81f7:	f3 0f 59 c2          	mulss  %xmm2,%xmm0
    81fb:	f3 0f 58 c1          	addss  %xmm1,%xmm0
    81ff:	f3 0f 10 0d 59 ab 00 	movss  0xab59(%rip),%xmm1        # 12d60 <g_2875+0xd04>
    8206:	00 
    8207:	0f 54 c1             	andps  %xmm1,%xmm0
    820a:	0f 2f 05 5f ab 00 00 	comiss 0xab5f(%rip),%xmm0        # 12d70 <g_2875+0xd14>
    8211:	76 07                	jbe    821a <safe_add_func_float_f_f+0x53>
    8213:	f3 0f 10 45 fc       	movss  -0x4(%rbp),%xmm0
    8218:	eb 0a                	jmp    8224 <safe_add_func_float_f_f+0x5d>
    821a:	f3 0f 10 45 fc       	movss  -0x4(%rbp),%xmm0
    821f:	f3 0f 58 45 f8       	addss  -0x8(%rbp),%xmm0
    8224:	5d                   	pop    %rbp
    8225:	c3                   	retq   

0000000000008226 <safe_sub_func_float_f_f>:
    8226:	f3 0f 1e fa          	endbr64 
    822a:	55                   	push   %rbp
    822b:	48 89 e5             	mov    %rsp,%rbp
    822e:	f3 0f 11 45 fc       	movss  %xmm0,-0x4(%rbp)
    8233:	f3 0f 11 4d f8       	movss  %xmm1,-0x8(%rbp)
    8238:	f3 0f 10 4d fc       	movss  -0x4(%rbp),%xmm1
    823d:	f3 0f 10 05 13 ab 00 	movss  0xab13(%rip),%xmm0        # 12d58 <g_2875+0xcfc>
    8244:	00 
    8245:	f3 0f 59 c1          	mulss  %xmm1,%xmm0
    8249:	f3 0f 10 55 f8       	movss  -0x8(%rbp),%xmm2
    824e:	f3 0f 10 0d 02 ab 00 	movss  0xab02(%rip),%xmm1        # 12d58 <g_2875+0xcfc>
    8255:	00 
    8256:	f3 0f 59 ca          	mulss  %xmm2,%xmm1
    825a:	f3 0f 5c c1          	subss  %xmm1,%xmm0
    825e:	f3 0f 10 0d fa aa 00 	movss  0xaafa(%rip),%xmm1        # 12d60 <g_2875+0xd04>
    8265:	00 
    8266:	0f 54 c1             	andps  %xmm1,%xmm0
    8269:	0f 2f 05 00 ab 00 00 	comiss 0xab00(%rip),%xmm0        # 12d70 <g_2875+0xd14>
    8270:	76 07                	jbe    8279 <safe_sub_func_float_f_f+0x53>
    8272:	f3 0f 10 45 fc       	movss  -0x4(%rbp),%xmm0
    8277:	eb 0a                	jmp    8283 <safe_sub_func_float_f_f+0x5d>
    8279:	f3 0f 10 45 fc       	movss  -0x4(%rbp),%xmm0
    827e:	f3 0f 5c 45 f8       	subss  -0x8(%rbp),%xmm0
    8283:	5d                   	pop    %rbp
    8284:	c3                   	retq   

0000000000008285 <safe_mul_func_float_f_f>:
    8285:	f3 0f 1e fa          	endbr64 
    8289:	55                   	push   %rbp
    828a:	48 89 e5             	mov    %rsp,%rbp
    828d:	f3 0f 11 45 fc       	movss  %xmm0,-0x4(%rbp)
    8292:	f3 0f 11 4d f8       	movss  %xmm1,-0x8(%rbp)
    8297:	f3 0f 10 4d fc       	movss  -0x4(%rbp),%xmm1
    829c:	f3 0f 10 05 d0 aa 00 	movss  0xaad0(%rip),%xmm0        # 12d74 <g_2875+0xd18>
    82a3:	00 
    82a4:	f3 0f 59 c8          	mulss  %xmm0,%xmm1
    82a8:	f3 0f 10 55 f8       	movss  -0x8(%rbp),%xmm2
    82ad:	f3 0f 10 05 c3 aa 00 	movss  0xaac3(%rip),%xmm0        # 12d78 <g_2875+0xd1c>
    82b4:	00 
    82b5:	f3 0f 59 c2          	mulss  %xmm2,%xmm0
    82b9:	f3 0f 59 c1          	mulss  %xmm1,%xmm0
    82bd:	f3 0f 10 0d 9b aa 00 	movss  0xaa9b(%rip),%xmm1        # 12d60 <g_2875+0xd04>
    82c4:	00 
    82c5:	0f 54 c1             	andps  %xmm1,%xmm0
    82c8:	0f 2f 05 ad aa 00 00 	comiss 0xaaad(%rip),%xmm0        # 12d7c <g_2875+0xd20>
    82cf:	76 07                	jbe    82d8 <safe_mul_func_float_f_f+0x53>
    82d1:	f3 0f 10 45 fc       	movss  -0x4(%rbp),%xmm0
    82d6:	eb 0a                	jmp    82e2 <safe_mul_func_float_f_f+0x5d>
    82d8:	f3 0f 10 45 fc       	movss  -0x4(%rbp),%xmm0
    82dd:	f3 0f 59 45 f8       	mulss  -0x8(%rbp),%xmm0
    82e2:	5d                   	pop    %rbp
    82e3:	c3                   	retq   

00000000000082e4 <safe_div_func_float_f_f>:
    82e4:	f3 0f 1e fa          	endbr64 
    82e8:	55                   	push   %rbp
    82e9:	48 89 e5             	mov    %rsp,%rbp
    82ec:	f3 0f 11 45 fc       	movss  %xmm0,-0x4(%rbp)
    82f1:	f3 0f 11 4d f8       	movss  %xmm1,-0x8(%rbp)
    82f6:	f3 0f 10 45 f8       	movss  -0x8(%rbp),%xmm0
    82fb:	f3 0f 10 0d 5d aa 00 	movss  0xaa5d(%rip),%xmm1        # 12d60 <g_2875+0xd04>
    8302:	00 
    8303:	0f 54 c8             	andps  %xmm0,%xmm1
    8306:	f3 0f 10 05 72 aa 00 	movss  0xaa72(%rip),%xmm0        # 12d80 <g_2875+0xd24>
    830d:	00 
    830e:	0f 2f c1             	comiss %xmm1,%xmm0
    8311:	0f 97 c0             	seta   %al
    8314:	83 f0 01             	xor    $0x1,%eax
    8317:	84 c0                	test   %al,%al
    8319:	75 56                	jne    8371 <safe_div_func_float_f_f+0x8d>
    831b:	66 0f ef c0          	pxor   %xmm0,%xmm0
    831f:	0f 2e 45 f8          	ucomiss -0x8(%rbp),%xmm0
    8323:	7a 0a                	jp     832f <safe_div_func_float_f_f+0x4b>
    8325:	66 0f ef c0          	pxor   %xmm0,%xmm0
    8329:	0f 2e 45 f8          	ucomiss -0x8(%rbp),%xmm0
    832d:	74 4e                	je     837d <safe_div_func_float_f_f+0x99>
    832f:	f3 0f 10 4d fc       	movss  -0x4(%rbp),%xmm1
    8334:	f3 0f 10 05 48 aa 00 	movss  0xaa48(%rip),%xmm0        # 12d84 <g_2875+0xd28>
    833b:	00 
    833c:	f3 0f 59 c1          	mulss  %xmm1,%xmm0
    8340:	f3 0f 10 55 f8       	movss  -0x8(%rbp),%xmm2
    8345:	f3 0f 10 0d 3b aa 00 	movss  0xaa3b(%rip),%xmm1        # 12d88 <g_2875+0xd2c>
    834c:	00 
    834d:	f3 0f 59 ca          	mulss  %xmm2,%xmm1
    8351:	f3 0f 5e c1          	divss  %xmm1,%xmm0
    8355:	f3 0f 10 0d 03 aa 00 	movss  0xaa03(%rip),%xmm1        # 12d60 <g_2875+0xd04>
    835c:	00 
    835d:	0f 54 c1             	andps  %xmm1,%xmm0
    8360:	0f 2f 05 25 aa 00 00 	comiss 0xaa25(%rip),%xmm0        # 12d8c <g_2875+0xd30>
    8367:	0f 97 c0             	seta   %al
    836a:	83 f0 01             	xor    $0x1,%eax
    836d:	84 c0                	test   %al,%al
    836f:	74 0c                	je     837d <safe_div_func_float_f_f+0x99>
    8371:	f3 0f 10 45 fc       	movss  -0x4(%rbp),%xmm0
    8376:	f3 0f 5e 45 f8       	divss  -0x8(%rbp),%xmm0
    837b:	eb 05                	jmp    8382 <safe_div_func_float_f_f+0x9e>
    837d:	f3 0f 10 45 fc       	movss  -0x4(%rbp),%xmm0
    8382:	5d                   	pop    %rbp
    8383:	c3                   	retq   

0000000000008384 <safe_add_func_double_f_f>:
    8384:	f3 0f 1e fa          	endbr64 
    8388:	55                   	push   %rbp
    8389:	48 89 e5             	mov    %rsp,%rbp
    838c:	f2 0f 11 45 f8       	movsd  %xmm0,-0x8(%rbp)
    8391:	f2 0f 11 4d f0       	movsd  %xmm1,-0x10(%rbp)
    8396:	f2 0f 10 4d f8       	movsd  -0x8(%rbp),%xmm1
    839b:	f2 0f 10 05 ed a9 00 	movsd  0xa9ed(%rip),%xmm0        # 12d90 <g_2875+0xd34>
    83a2:	00 
    83a3:	f2 0f 59 c8          	mulsd  %xmm0,%xmm1
    83a7:	f2 0f 10 55 f0       	movsd  -0x10(%rbp),%xmm2
    83ac:	f2 0f 10 05 dc a9 00 	movsd  0xa9dc(%rip),%xmm0        # 12d90 <g_2875+0xd34>
    83b3:	00 
    83b4:	f2 0f 59 c2          	mulsd  %xmm2,%xmm0
    83b8:	f2 0f 58 c1          	addsd  %xmm1,%xmm0
    83bc:	f3 0f 7e 0d dc a9 00 	movq   0xa9dc(%rip),%xmm1        # 12da0 <g_2875+0xd44>
    83c3:	00 
    83c4:	66 0f 54 c1          	andpd  %xmm1,%xmm0
    83c8:	66 0f 2f 05 e0 a9 00 	comisd 0xa9e0(%rip),%xmm0        # 12db0 <g_2875+0xd54>
    83cf:	00 
    83d0:	76 07                	jbe    83d9 <safe_add_func_double_f_f+0x55>
    83d2:	f2 0f 10 45 f8       	movsd  -0x8(%rbp),%xmm0
    83d7:	eb 0a                	jmp    83e3 <safe_add_func_double_f_f+0x5f>
    83d9:	f2 0f 10 45 f8       	movsd  -0x8(%rbp),%xmm0
    83de:	f2 0f 58 45 f0       	addsd  -0x10(%rbp),%xmm0
    83e3:	5d                   	pop    %rbp
    83e4:	c3                   	retq   

00000000000083e5 <safe_sub_func_double_f_f>:
    83e5:	f3 0f 1e fa          	endbr64 
    83e9:	55                   	push   %rbp
    83ea:	48 89 e5             	mov    %rsp,%rbp
    83ed:	f2 0f 11 45 f8       	movsd  %xmm0,-0x8(%rbp)
    83f2:	f2 0f 11 4d f0       	movsd  %xmm1,-0x10(%rbp)
    83f7:	f2 0f 10 4d f8       	movsd  -0x8(%rbp),%xmm1
    83fc:	f2 0f 10 05 8c a9 00 	movsd  0xa98c(%rip),%xmm0        # 12d90 <g_2875+0xd34>
    8403:	00 
    8404:	f2 0f 59 c1          	mulsd  %xmm1,%xmm0
    8408:	f2 0f 10 55 f0       	movsd  -0x10(%rbp),%xmm2
    840d:	f2 0f 10 0d 7b a9 00 	movsd  0xa97b(%rip),%xmm1        # 12d90 <g_2875+0xd34>
    8414:	00 
    8415:	f2 0f 59 ca          	mulsd  %xmm2,%xmm1
    8419:	f2 0f 5c c1          	subsd  %xmm1,%xmm0
    841d:	f3 0f 7e 0d 7b a9 00 	movq   0xa97b(%rip),%xmm1        # 12da0 <g_2875+0xd44>
    8424:	00 
    8425:	66 0f 54 c1          	andpd  %xmm1,%xmm0
    8429:	66 0f 2f 05 7f a9 00 	comisd 0xa97f(%rip),%xmm0        # 12db0 <g_2875+0xd54>
    8430:	00 
    8431:	76 07                	jbe    843a <safe_sub_func_double_f_f+0x55>
    8433:	f2 0f 10 45 f8       	movsd  -0x8(%rbp),%xmm0
    8438:	eb 0a                	jmp    8444 <safe_sub_func_double_f_f+0x5f>
    843a:	f2 0f 10 45 f8       	movsd  -0x8(%rbp),%xmm0
    843f:	f2 0f 5c 45 f0       	subsd  -0x10(%rbp),%xmm0
    8444:	5d                   	pop    %rbp
    8445:	c3                   	retq   

0000000000008446 <safe_mul_func_double_f_f>:
    8446:	f3 0f 1e fa          	endbr64 
    844a:	55                   	push   %rbp
    844b:	48 89 e5             	mov    %rsp,%rbp
    844e:	f2 0f 11 45 f8       	movsd  %xmm0,-0x8(%rbp)
    8453:	f2 0f 11 4d f0       	movsd  %xmm1,-0x10(%rbp)
    8458:	f2 0f 10 4d f8       	movsd  -0x8(%rbp),%xmm1
    845d:	f2 0f 10 05 53 a9 00 	movsd  0xa953(%rip),%xmm0        # 12db8 <g_2875+0xd5c>
    8464:	00 
    8465:	f2 0f 59 c8          	mulsd  %xmm0,%xmm1
    8469:	f2 0f 10 55 f0       	movsd  -0x10(%rbp),%xmm2
    846e:	f2 0f 10 05 4a a9 00 	movsd  0xa94a(%rip),%xmm0        # 12dc0 <g_2875+0xd64>
    8475:	00 
    8476:	f2 0f 59 c2          	mulsd  %xmm2,%xmm0
    847a:	f2 0f 59 c1          	mulsd  %xmm1,%xmm0
    847e:	f3 0f 7e 0d 1a a9 00 	movq   0xa91a(%rip),%xmm1        # 12da0 <g_2875+0xd44>
    8485:	00 
    8486:	66 0f 54 c1          	andpd  %xmm1,%xmm0
    848a:	66 0f 2f 05 36 a9 00 	comisd 0xa936(%rip),%xmm0        # 12dc8 <g_2875+0xd6c>
    8491:	00 
    8492:	76 07                	jbe    849b <safe_mul_func_double_f_f+0x55>
    8494:	f2 0f 10 45 f8       	movsd  -0x8(%rbp),%xmm0
    8499:	eb 0a                	jmp    84a5 <safe_mul_func_double_f_f+0x5f>
    849b:	f2 0f 10 45 f8       	movsd  -0x8(%rbp),%xmm0
    84a0:	f2 0f 59 45 f0       	mulsd  -0x10(%rbp),%xmm0
    84a5:	5d                   	pop    %rbp
    84a6:	c3                   	retq   

00000000000084a7 <safe_div_func_double_f_f>:
    84a7:	f3 0f 1e fa          	endbr64 
    84ab:	55                   	push   %rbp
    84ac:	48 89 e5             	mov    %rsp,%rbp
    84af:	f2 0f 11 45 f8       	movsd  %xmm0,-0x8(%rbp)
    84b4:	f2 0f 11 4d f0       	movsd  %xmm1,-0x10(%rbp)
    84b9:	f2 0f 10 45 f0       	movsd  -0x10(%rbp),%xmm0
    84be:	f3 0f 7e 0d da a8 00 	movq   0xa8da(%rip),%xmm1        # 12da0 <g_2875+0xd44>
    84c5:	00 
    84c6:	66 0f 54 c8          	andpd  %xmm0,%xmm1
    84ca:	f2 0f 10 05 fe a8 00 	movsd  0xa8fe(%rip),%xmm0        # 12dd0 <g_2875+0xd74>
    84d1:	00 
    84d2:	66 0f 2f c1          	comisd %xmm1,%xmm0
    84d6:	0f 97 c0             	seta   %al
    84d9:	83 f0 01             	xor    $0x1,%eax
    84dc:	84 c0                	test   %al,%al
    84de:	75 5a                	jne    853a <safe_div_func_double_f_f+0x93>
    84e0:	66 0f ef c0          	pxor   %xmm0,%xmm0
    84e4:	66 0f 2e 45 f0       	ucomisd -0x10(%rbp),%xmm0
    84e9:	7a 0b                	jp     84f6 <safe_div_func_double_f_f+0x4f>
    84eb:	66 0f ef c0          	pxor   %xmm0,%xmm0
    84ef:	66 0f 2e 45 f0       	ucomisd -0x10(%rbp),%xmm0
    84f4:	74 50                	je     8546 <safe_div_func_double_f_f+0x9f>
    84f6:	f2 0f 10 4d f8       	movsd  -0x8(%rbp),%xmm1
    84fb:	f2 0f 10 05 d5 a8 00 	movsd  0xa8d5(%rip),%xmm0        # 12dd8 <g_2875+0xd7c>
    8502:	00 
    8503:	f2 0f 59 c1          	mulsd  %xmm1,%xmm0
    8507:	f2 0f 10 55 f0       	movsd  -0x10(%rbp),%xmm2
    850c:	f2 0f 10 0d cc a8 00 	movsd  0xa8cc(%rip),%xmm1        # 12de0 <g_2875+0xd84>
    8513:	00 
    8514:	f2 0f 59 ca          	mulsd  %xmm2,%xmm1
    8518:	f2 0f 5e c1          	divsd  %xmm1,%xmm0
    851c:	f3 0f 7e 0d 7c a8 00 	movq   0xa87c(%rip),%xmm1        # 12da0 <g_2875+0xd44>
    8523:	00 
    8524:	66 0f 54 c1          	andpd  %xmm1,%xmm0
    8528:	66 0f 2f 05 b8 a8 00 	comisd 0xa8b8(%rip),%xmm0        # 12de8 <g_2875+0xd8c>
    852f:	00 
    8530:	0f 97 c0             	seta   %al
    8533:	83 f0 01             	xor    $0x1,%eax
    8536:	84 c0                	test   %al,%al
    8538:	74 0c                	je     8546 <safe_div_func_double_f_f+0x9f>
    853a:	f2 0f 10 45 f8       	movsd  -0x8(%rbp),%xmm0
    853f:	f2 0f 5e 45 f0       	divsd  -0x10(%rbp),%xmm0
    8544:	eb 05                	jmp    854b <safe_div_func_double_f_f+0xa4>
    8546:	f2 0f 10 45 f8       	movsd  -0x8(%rbp),%xmm0
    854b:	5d                   	pop    %rbp
    854c:	c3                   	retq   

000000000000854d <safe_convert_func_float_to_int32_t>:
    854d:	f3 0f 1e fa          	endbr64 
    8551:	55                   	push   %rbp
    8552:	48 89 e5             	mov    %rsp,%rbp
    8555:	f3 0f 11 45 fc       	movss  %xmm0,-0x4(%rbp)
    855a:	f3 0f 10 05 8e a8 00 	movss  0xa88e(%rip),%xmm0        # 12df0 <g_2875+0xd94>
    8561:	00 
    8562:	0f 2f 45 fc          	comiss -0x4(%rbp),%xmm0
    8566:	0f 93 c0             	setae  %al
    8569:	83 f0 01             	xor    $0x1,%eax
    856c:	84 c0                	test   %al,%al
    856e:	74 21                	je     8591 <safe_convert_func_float_to_int32_t+0x44>
    8570:	f3 0f 10 45 fc       	movss  -0x4(%rbp),%xmm0
    8575:	0f 2f 05 78 a8 00 00 	comiss 0xa878(%rip),%xmm0        # 12df4 <g_2875+0xd98>
    857c:	0f 93 c0             	setae  %al
    857f:	83 f0 01             	xor    $0x1,%eax
    8582:	84 c0                	test   %al,%al
    8584:	74 0b                	je     8591 <safe_convert_func_float_to_int32_t+0x44>
    8586:	f3 0f 10 45 fc       	movss  -0x4(%rbp),%xmm0
    858b:	f3 0f 2c c0          	cvttss2si %xmm0,%eax
    858f:	eb 05                	jmp    8596 <safe_convert_func_float_to_int32_t+0x49>
    8591:	b8 ff ff ff 7f       	mov    $0x7fffffff,%eax
    8596:	5d                   	pop    %rbp
    8597:	c3                   	retq   

0000000000008598 <crc32_gentab>:
    8598:	f3 0f 1e fa          	endbr64 
    859c:	55                   	push   %rbp
    859d:	48 89 e5             	mov    %rsp,%rbp
    85a0:	c7 45 fc 20 83 b8 ed 	movl   $0xedb88320,-0x4(%rbp)
    85a7:	c7 45 f4 00 00 00 00 	movl   $0x0,-0xc(%rbp)
    85ae:	eb 51                	jmp    8601 <crc32_gentab+0x69>
    85b0:	8b 45 f4             	mov    -0xc(%rbp),%eax
    85b3:	89 45 f0             	mov    %eax,-0x10(%rbp)
    85b6:	c7 45 f8 08 00 00 00 	movl   $0x8,-0x8(%rbp)
    85bd:	eb 1e                	jmp    85dd <crc32_gentab+0x45>
    85bf:	8b 45 f0             	mov    -0x10(%rbp),%eax
    85c2:	83 e0 01             	and    $0x1,%eax
    85c5:	85 c0                	test   %eax,%eax
    85c7:	74 0d                	je     85d6 <crc32_gentab+0x3e>
    85c9:	8b 45 f0             	mov    -0x10(%rbp),%eax
    85cc:	d1 e8                	shr    %eax
    85ce:	33 45 fc             	xor    -0x4(%rbp),%eax
    85d1:	89 45 f0             	mov    %eax,-0x10(%rbp)
    85d4:	eb 03                	jmp    85d9 <crc32_gentab+0x41>
    85d6:	d1 6d f0             	shrl   -0x10(%rbp)
    85d9:	83 6d f8 01          	subl   $0x1,-0x8(%rbp)
    85dd:	83 7d f8 00          	cmpl   $0x0,-0x8(%rbp)
    85e1:	7f dc                	jg     85bf <crc32_gentab+0x27>
    85e3:	8b 45 f4             	mov    -0xc(%rbp),%eax
    85e6:	48 98                	cltq   
    85e8:	48 8d 0c 85 00 00 00 	lea    0x0(,%rax,4),%rcx
    85ef:	00 
    85f0:	48 8d 15 69 fb 00 00 	lea    0xfb69(%rip),%rdx        # 18160 <crc32_tab>
    85f7:	8b 45 f0             	mov    -0x10(%rbp),%eax
    85fa:	89 04 11             	mov    %eax,(%rcx,%rdx,1)
    85fd:	83 45 f4 01          	addl   $0x1,-0xc(%rbp)
    8601:	81 7d f4 ff 00 00 00 	cmpl   $0xff,-0xc(%rbp)
    8608:	7e a6                	jle    85b0 <crc32_gentab+0x18>
    860a:	90                   	nop
    860b:	90                   	nop
    860c:	5d                   	pop    %rbp
    860d:	c3                   	retq   

000000000000860e <crc32_byte>:
    860e:	f3 0f 1e fa          	endbr64 
    8612:	55                   	push   %rbp
    8613:	48 89 e5             	mov    %rsp,%rbp
    8616:	89 f8                	mov    %edi,%eax
    8618:	88 45 fc             	mov    %al,-0x4(%rbp)
    861b:	8b 05 ff c9 00 00    	mov    0xc9ff(%rip),%eax        # 15020 <crc32_context>
    8621:	c1 e8 08             	shr    $0x8,%eax
    8624:	89 c1                	mov    %eax,%ecx
    8626:	0f b6 55 fc          	movzbl -0x4(%rbp),%edx
    862a:	8b 05 f0 c9 00 00    	mov    0xc9f0(%rip),%eax        # 15020 <crc32_context>
    8630:	31 d0                	xor    %edx,%eax
    8632:	0f b6 c0             	movzbl %al,%eax
    8635:	89 c0                	mov    %eax,%eax
    8637:	48 8d 14 85 00 00 00 	lea    0x0(,%rax,4),%rdx
    863e:	00 
    863f:	48 8d 05 1a fb 00 00 	lea    0xfb1a(%rip),%rax        # 18160 <crc32_tab>
    8646:	8b 04 02             	mov    (%rdx,%rax,1),%eax
    8649:	31 c8                	xor    %ecx,%eax
    864b:	89 05 cf c9 00 00    	mov    %eax,0xc9cf(%rip)        # 15020 <crc32_context>
    8651:	90                   	nop
    8652:	5d                   	pop    %rbp
    8653:	c3                   	retq   

0000000000008654 <crc32_8bytes>:
    8654:	f3 0f 1e fa          	endbr64 
    8658:	55                   	push   %rbp
    8659:	48 89 e5             	mov    %rsp,%rbp
    865c:	48 83 ec 08          	sub    $0x8,%rsp
    8660:	48 89 7d f8          	mov    %rdi,-0x8(%rbp)
    8664:	48 8b 45 f8          	mov    -0x8(%rbp),%rax
    8668:	0f b6 c0             	movzbl %al,%eax
    866b:	89 c7                	mov    %eax,%edi
    866d:	e8 9c ff ff ff       	callq  860e <crc32_byte>
    8672:	48 8b 45 f8          	mov    -0x8(%rbp),%rax
    8676:	48 c1 e8 08          	shr    $0x8,%rax
    867a:	0f b6 c0             	movzbl %al,%eax
    867d:	89 c7                	mov    %eax,%edi
    867f:	e8 8a ff ff ff       	callq  860e <crc32_byte>
    8684:	48 8b 45 f8          	mov    -0x8(%rbp),%rax
    8688:	48 c1 e8 10          	shr    $0x10,%rax
    868c:	0f b6 c0             	movzbl %al,%eax
    868f:	89 c7                	mov    %eax,%edi
    8691:	e8 78 ff ff ff       	callq  860e <crc32_byte>
    8696:	48 8b 45 f8          	mov    -0x8(%rbp),%rax
    869a:	48 c1 e8 18          	shr    $0x18,%rax
    869e:	0f b6 c0             	movzbl %al,%eax
    86a1:	89 c7                	mov    %eax,%edi
    86a3:	e8 66 ff ff ff       	callq  860e <crc32_byte>
    86a8:	48 8b 45 f8          	mov    -0x8(%rbp),%rax
    86ac:	48 c1 e8 20          	shr    $0x20,%rax
    86b0:	0f b6 c0             	movzbl %al,%eax
    86b3:	89 c7                	mov    %eax,%edi
    86b5:	e8 54 ff ff ff       	callq  860e <crc32_byte>
    86ba:	48 8b 45 f8          	mov    -0x8(%rbp),%rax
    86be:	48 c1 e8 28          	shr    $0x28,%rax
    86c2:	0f b6 c0             	movzbl %al,%eax
    86c5:	89 c7                	mov    %eax,%edi
    86c7:	e8 42 ff ff ff       	callq  860e <crc32_byte>
    86cc:	48 8b 45 f8          	mov    -0x8(%rbp),%rax
    86d0:	48 c1 e8 30          	shr    $0x30,%rax
    86d4:	0f b6 c0             	movzbl %al,%eax
    86d7:	89 c7                	mov    %eax,%edi
    86d9:	e8 30 ff ff ff       	callq  860e <crc32_byte>
    86de:	48 8b 45 f8          	mov    -0x8(%rbp),%rax
    86e2:	48 c1 e8 38          	shr    $0x38,%rax
    86e6:	0f b6 c0             	movzbl %al,%eax
    86e9:	89 c7                	mov    %eax,%edi
    86eb:	e8 1e ff ff ff       	callq  860e <crc32_byte>
    86f0:	90                   	nop
    86f1:	c9                   	leaveq 
    86f2:	c3                   	retq   

00000000000086f3 <transparent_crc>:
    86f3:	f3 0f 1e fa          	endbr64 
    86f7:	55                   	push   %rbp
    86f8:	48 89 e5             	mov    %rsp,%rbp
    86fb:	48 83 ec 20          	sub    $0x20,%rsp
    86ff:	48 89 7d f8          	mov    %rdi,-0x8(%rbp)
    8703:	48 89 75 f0          	mov    %rsi,-0x10(%rbp)
    8707:	89 55 ec             	mov    %edx,-0x14(%rbp)
    870a:	48 8b 45 f8          	mov    -0x8(%rbp),%rax
    870e:	48 89 c7             	mov    %rax,%rdi
    8711:	e8 3e ff ff ff       	callq  8654 <crc32_8bytes>
    8716:	83 7d ec 00          	cmpl   $0x0,-0x14(%rbp)
    871a:	74 22                	je     873e <transparent_crc+0x4b>
    871c:	8b 05 fe c8 00 00    	mov    0xc8fe(%rip),%eax        # 15020 <crc32_context>
    8722:	f7 d0                	not    %eax
    8724:	89 c2                	mov    %eax,%edx
    8726:	48 8b 45 f0          	mov    -0x10(%rbp),%rax
    872a:	48 89 c6             	mov    %rax,%rsi
    872d:	48 8d 3d fc 98 00 00 	lea    0x98fc(%rip),%rdi        # 12030 <_IO_stdin_used+0x30>
    8734:	b8 00 00 00 00       	mov    $0x0,%eax
    8739:	e8 42 e9 ff ff       	callq  7080 <printf@plt>
    873e:	90                   	nop
    873f:	c9                   	leaveq 
    8740:	c3                   	retq   

0000000000008741 <transparent_crc_bytes>:
    8741:	f3 0f 1e fa          	endbr64 
    8745:	55                   	push   %rbp
    8746:	48 89 e5             	mov    %rsp,%rbp
    8749:	48 83 ec 30          	sub    $0x30,%rsp
    874d:	48 89 7d e8          	mov    %rdi,-0x18(%rbp)
    8751:	89 75 e4             	mov    %esi,-0x1c(%rbp)
    8754:	48 89 55 d8          	mov    %rdx,-0x28(%rbp)
    8758:	89 4d e0             	mov    %ecx,-0x20(%rbp)
    875b:	c7 45 fc 00 00 00 00 	movl   $0x0,-0x4(%rbp)
    8762:	eb 1e                	jmp    8782 <transparent_crc_bytes+0x41>
    8764:	8b 45 fc             	mov    -0x4(%rbp),%eax
    8767:	48 63 d0             	movslq %eax,%rdx
    876a:	48 8b 45 e8          	mov    -0x18(%rbp),%rax
    876e:	48 01 d0             	add    %rdx,%rax
    8771:	0f b6 00             	movzbl (%rax),%eax
    8774:	0f b6 c0             	movzbl %al,%eax
    8777:	89 c7                	mov    %eax,%edi
    8779:	e8 90 fe ff ff       	callq  860e <crc32_byte>
    877e:	83 45 fc 01          	addl   $0x1,-0x4(%rbp)
    8782:	8b 45 fc             	mov    -0x4(%rbp),%eax
    8785:	3b 45 e4             	cmp    -0x1c(%rbp),%eax
    8788:	7c da                	jl     8764 <transparent_crc_bytes+0x23>
    878a:	83 7d e0 00          	cmpl   $0x0,-0x20(%rbp)
    878e:	74 22                	je     87b2 <transparent_crc_bytes+0x71>
    8790:	8b 05 8a c8 00 00    	mov    0xc88a(%rip),%eax        # 15020 <crc32_context>
    8796:	f7 d0                	not    %eax
    8798:	89 c2                	mov    %eax,%edx
    879a:	48 8b 45 d8          	mov    -0x28(%rbp),%rax
    879e:	48 89 c6             	mov    %rax,%rsi
    87a1:	48 8d 3d 88 98 00 00 	lea    0x9888(%rip),%rdi        # 12030 <_IO_stdin_used+0x30>
    87a8:	b8 00 00 00 00       	mov    $0x0,%eax
    87ad:	e8 ce e8 ff ff       	callq  7080 <printf@plt>
    87b2:	90                   	nop
    87b3:	c9                   	leaveq 
    87b4:	c3                   	retq   

00000000000087b5 <func_1>:
    87b5:	f3 0f 1e fa          	endbr64 
    87b9:	55                   	push   %rbp
    87ba:	48 89 e5             	mov    %rsp,%rbp
    87bd:	41 57                	push   %r15
    87bf:	41 56                	push   %r14
    87c1:	41 55                	push   %r13
    87c3:	41 54                	push   %r12
    87c5:	53                   	push   %rbx
    87c6:	48 81 ec 00 10 00 00 	sub    $0x1000,%rsp
    87cd:	48 83 0c 24 00       	orq    $0x0,(%rsp)
    87d2:	48 83 ec 08          	sub    $0x8,%rsp
    87d6:	64 48 8b 04 25 28 00 	mov    %fs:0x28,%rax
    87dd:	00 00 
    87df:	48 89 45 c8          	mov    %rax,-0x38(%rbp)
    87e3:	31 c0                	xor    %eax,%eax
    87e5:	48 8d 05 80 d0 00 00 	lea    0xd080(%rip),%rax        # 1586c <g_670+0xc>
    87ec:	48 89 85 f8 ef ff ff 	mov    %rax,-0x1008(%rbp)
    87f3:	48 8d 05 62 98 00 00 	lea    0x9862(%rip),%rax        # 1205c <g_2875>
    87fa:	48 89 85 00 f0 ff ff 	mov    %rax,-0x1000(%rbp)
    8801:	66 c7 85 ec ef ff ff 	movw   $0x0,-0x1014(%rbp)
    8808:	00 00 
    880a:	c7 85 f0 ef ff ff 00 	movl   $0x0,-0x1010(%rbp)
    8811:	00 00 00 
    8814:	eb 21                	jmp    8837 <func_1+0x82>
    8816:	8b 85 f0 ef ff ff    	mov    -0x1010(%rbp),%eax
    881c:	48 98                	cltq   
    881e:	48 bb 44 45 06 e4 94 	movabs $0xf624e194e4064544,%rbx
    8825:	e1 24 f6 
    8828:	48 89 9c c5 30 f0 ff 	mov    %rbx,-0xfd0(%rbp,%rax,8)
    882f:	ff 
    8830:	83 85 f0 ef ff ff 01 	addl   $0x1,-0x1010(%rbp)
    8837:	83 bd f0 ef ff ff 05 	cmpl   $0x5,-0x1010(%rbp)
    883e:	7e d6                	jle    8816 <func_1+0x61>
    8840:	c7 05 72 ca 00 00 00 	movl   $0x0,0xca72(%rip)        # 152bc <g_4+0x27c>
    8847:	00 00 00 
    884a:	e9 79 02 00 00       	jmpq   8ac8 <func_1+0x313>
    884f:	48 8d 05 de ca 00 00 	lea    0xcade(%rip),%rax        # 15334 <g_19+0x74>
    8856:	48 89 85 08 f0 ff ff 	mov    %rax,-0xff8(%rbp)
    885d:	c7 85 f4 ef ff ff 08 	movl   $0xdb602708,-0x100c(%rbp)
    8864:	27 60 db 
    8867:	48 8d 85 60 f0 ff ff 	lea    -0xfa0(%rbp),%rax
    886e:	48 8d 15 8b d2 00 00 	lea    0xd28b(%rip),%rdx        # 15b00 <g_2866+0x20>
    8875:	b9 f0 00 00 00       	mov    $0xf0,%ecx
    887a:	48 89 c7             	mov    %rax,%rdi
    887d:	48 89 d6             	mov    %rdx,%rsi
    8880:	f3 48 a5             	rep movsq %ds:(%rsi),%es:(%rdi)
    8883:	48 c7 85 10 f0 ff ff 	movq   $0x0,-0xff0(%rbp)
    888a:	00 00 00 00 
    888e:	48 8d 05 d3 fc 00 00 	lea    0xfcd3(%rip),%rax        # 18568 <g_34>
    8895:	48 89 85 18 f0 ff ff 	mov    %rax,-0xfe8(%rbp)
    889c:	48 8d 05 91 cb 00 00 	lea    0xcb91(%rip),%rax        # 15434 <g_36>
    88a3:	48 89 85 20 f0 ff ff 	mov    %rax,-0xfe0(%rbp)
    88aa:	48 8d 85 e0 f7 ff ff 	lea    -0x820(%rbp),%rax
    88b1:	48 8d 15 c8 d9 00 00 	lea    0xd9c8(%rip),%rdx        # 16280 <g_2866+0x7a0>
    88b8:	b9 fc 00 00 00       	mov    $0xfc,%ecx
    88bd:	48 89 c7             	mov    %rax,%rdi
    88c0:	48 89 d6             	mov    %rdx,%rsi
    88c3:	f3 48 a5             	rep movsq %ds:(%rsi),%es:(%rdi)
    88c6:	48 c7 85 28 f0 ff ff 	movq   $0x0,-0xfd8(%rbp)
    88cd:	00 00 00 00 
    88d1:	66 c7 85 ee ef ff ff 	movw   $0x6d7c,-0x1012(%rbp)
    88d8:	7c 6d 
    88da:	0f b7 85 ee ef ff ff 	movzwl -0x1012(%rbp),%eax
    88e1:	0f be c0             	movsbl %al,%eax
    88e4:	89 85 dc ef ff ff    	mov    %eax,-0x1024(%rbp)
    88ea:	48 8b 05 c7 e7 00 00 	mov    0xe7c7(%rip),%rax        # 170b8 <g_1014>
    88f1:	48 8b 00             	mov    (%rax),%rax
    88f4:	0f b7 00             	movzwl (%rax),%eax
    88f7:	44 0f bf e0          	movswl %ax,%r12d
    88fb:	48 8b 85 30 f0 ff ff 	mov    -0xfd0(%rbp),%rax
    8902:	89 85 d8 ef ff ff    	mov    %eax,-0x1028(%rbp)
    8908:	0f bf 9d ec ef ff ff 	movswl -0x1014(%rbp),%ebx
    890f:	48 8b 05 92 e7 00 00 	mov    0xe792(%rip),%rax        # 170a8 <g_963>
    8916:	4c 8b 30             	mov    (%rax),%r14
    8919:	48 8b 05 88 e7 00 00 	mov    0xe788(%rip),%rax        # 170a8 <g_963>
    8920:	4c 8b 28             	mov    (%rax),%r13
    8923:	8b 15 93 c9 00 00    	mov    0xc993(%rip),%edx        # 152bc <g_4+0x27c>
    8929:	48 8b 85 08 f0 ff ff 	mov    -0xff8(%rbp),%rax
    8930:	89 10                	mov    %edx,(%rax)
    8932:	8b 05 44 c9 00 00    	mov    0xc944(%rip),%eax        # 1527c <g_4+0x23c>
    8938:	44 0f be f8          	movsbl %al,%r15d
    893c:	48 8b 8d 30 f0 ff ff 	mov    -0xfd0(%rbp),%rcx
    8943:	c7 05 1b ca 00 00 1b 	movl   $0x7a880e1b,0xca1b(%rip)        # 15368 <g_30>
    894a:	0e 88 7a 
    894d:	8b 05 dd c6 00 00    	mov    0xc6dd(%rip),%eax        # 15030 <g_3>
    8953:	85 c0                	test   %eax,%eax
    8955:	7f 0a                	jg     8961 <func_1+0x1ac>
    8957:	8b 05 c7 c6 00 00    	mov    0xc6c7(%rip),%eax        # 15024 <g_2>
    895d:	85 c0                	test   %eax,%eax
    895f:	74 07                	je     8968 <func_1+0x1b3>
    8961:	b8 01 00 00 00       	mov    $0x1,%eax
    8966:	eb 05                	jmp    896d <func_1+0x1b8>
    8968:	b8 00 00 00 00       	mov    $0x0,%eax
    896d:	83 f0 03             	xor    $0x3,%eax
    8970:	48 98                	cltq   
    8972:	0f b7 15 99 ca 00 00 	movzwl 0xca99(%rip),%edx        # 15412 <g_31+0x92>
    8979:	21 d0                	and    %edx,%eax
    897b:	66 89 05 90 ca 00 00 	mov    %ax,0xca90(%rip)        # 15412 <g_31+0x92>
    8982:	0f b7 05 89 ca 00 00 	movzwl 0xca89(%rip),%eax        # 15412 <g_31+0x92>
    8989:	66 85 c0             	test   %ax,%ax
    898c:	0f 95 c0             	setne  %al
    898f:	0f b6 d0             	movzbl %al,%edx
    8992:	48 8b 85 18 f0 ff ff 	mov    -0xfe8(%rbp),%rax
    8999:	89 10                	mov    %edx,(%rax)
    899b:	48 8b 85 18 f0 ff ff 	mov    -0xfe8(%rbp),%rax
    89a2:	8b 10                	mov    (%rax),%edx
    89a4:	48 8b 85 20 f0 ff ff 	mov    -0xfe0(%rbp),%rax
    89ab:	89 10                	mov    %edx,(%rax)
    89ad:	48 8b 85 20 f0 ff ff 	mov    -0xfe0(%rbp),%rax
    89b4:	8b 00                	mov    (%rax),%eax
    89b6:	48 98                	cltq   
    89b8:	48 39 c1             	cmp    %rax,%rcx
    89bb:	0f 95 c0             	setne  %al
    89be:	0f b6 c0             	movzbl %al,%eax
    89c1:	48 be d4 83 70 31 a3 	movabs $0x6fcac8a3317083d4,%rsi
    89c8:	c8 ca 6f 
    89cb:	48 89 c7             	mov    %rax,%rdi
    89ce:	e8 dc f6 ff ff       	callq  80af <safe_div_func_uint64_t_u_u>
    89d3:	8b 05 8f fb 00 00    	mov    0xfb8f(%rip),%eax        # 18568 <g_34>
    89d9:	34 a3                	xor    $0xa3,%al
    89db:	44 89 fe             	mov    %r15d,%esi
    89de:	89 c7                	mov    %eax,%edi
    89e0:	e8 6c 04 00 00       	callq  8e51 <func_21>
    89e5:	48 8b 95 30 f0 ff ff 	mov    -0xfd0(%rbp),%rdx
    89ec:	48 39 d0             	cmp    %rdx,%rax
    89ef:	48 8b 85 30 f0 ff ff 	mov    -0xfd0(%rbp),%rax
    89f6:	89 c2                	mov    %eax,%edx
    89f8:	0f b7 05 f1 ce 00 00 	movzwl 0xcef1(%rip),%eax        # 158f0 <g_1627>
    89ff:	09 c2                	or     %eax,%edx
    8a01:	48 8b 05 c0 e6 00 00 	mov    0xe6c0(%rip),%rax        # 170c8 <g_1046>
    8a08:	48 8b 00             	mov    (%rax),%rax
    8a0b:	48 8b 00             	mov    (%rax),%rax
    8a0e:	88 10                	mov    %dl,(%rax)
    8a10:	0f b6 00             	movzbl (%rax),%eax
    8a13:	0f be c0             	movsbl %al,%eax
    8a16:	48 8b b5 f8 ef ff ff 	mov    -0x1008(%rbp),%rsi
    8a1d:	4c 89 f1             	mov    %r14,%rcx
    8a20:	4c 89 ea             	mov    %r13,%rdx
    8a23:	89 c7                	mov    %eax,%edi
    8a25:	e8 5e 01 00 00       	callq  8b88 <func_13>
    8a2a:	48 89 85 28 f0 ff ff 	mov    %rax,-0xfd8(%rbp)
    8a31:	48 8b 85 28 f0 ff ff 	mov    -0xfd8(%rbp),%rax
    8a38:	48 89 85 00 f0 ff ff 	mov    %rax,-0x1000(%rbp)
    8a3f:	48 8b 05 6a e6 00 00 	mov    0xe66a(%rip),%rax        # 170b0 <g_962>
    8a46:	4c 8b 28             	mov    (%rax),%r13
    8a49:	48 8b 85 00 f0 ff ff 	mov    -0x1000(%rbp),%rax
    8a50:	44 8b 85 dc ef ff ff 	mov    -0x1024(%rbp),%r8d
    8a57:	44 89 e1             	mov    %r12d,%ecx
    8a5a:	8b 95 d8 ef ff ff    	mov    -0x1028(%rbp),%edx
    8a60:	89 de                	mov    %ebx,%esi
    8a62:	48 89 c7             	mov    %rax,%rdi
    8a65:	e8 a0 00 00 00       	callq  8b0a <func_7>
    8a6a:	49 89 45 00          	mov    %rax,0x0(%r13)
    8a6e:	c7 05 bc c9 00 00 f3 	movl   $0xfffffff3,0xc9bc(%rip)        # 15434 <g_36>
    8a75:	ff ff ff 
    8a78:	eb 34                	jmp    8aae <func_1+0x2f9>
    8a7a:	c7 05 00 ce 00 00 fb 	movl   $0xfffffffb,0xce00(%rip)        # 15884 <g_701>
    8a81:	ff ff ff 
    8a84:	90                   	nop
    8a85:	8b 05 f9 cd 00 00    	mov    0xcdf9(%rip),%eax        # 15884 <g_701>
    8a8b:	83 f8 26             	cmp    $0x26,%eax
    8a8e:	77 0f                	ja     8a9f <func_1+0x2ea>
    8a90:	48 8b 05 09 e6 00 00 	mov    0xe609(%rip),%rax        # 170a0 <g_918>
    8a97:	48 8b 00             	mov    (%rax),%rax
    8a9a:	0f b6 00             	movzbl (%rax),%eax
    8a9d:	eb 45                	jmp    8ae4 <func_1+0x32f>
    8a9f:	8b 05 8f c9 00 00    	mov    0xc98f(%rip),%eax        # 15434 <g_36>
    8aa5:	83 c0 01             	add    $0x1,%eax
    8aa8:	89 05 86 c9 00 00    	mov    %eax,0xc986(%rip)        # 15434 <g_36>
    8aae:	8b 05 80 c9 00 00    	mov    0xc980(%rip),%eax        # 15434 <g_36>
    8ab4:	83 f8 1c             	cmp    $0x1c,%eax
    8ab7:	7e c1                	jle    8a7a <func_1+0x2c5>
    8ab9:	8b 05 fd c7 00 00    	mov    0xc7fd(%rip),%eax        # 152bc <g_4+0x27c>
    8abf:	83 c0 01             	add    $0x1,%eax
    8ac2:	89 05 f4 c7 00 00    	mov    %eax,0xc7f4(%rip)        # 152bc <g_4+0x27c>
    8ac8:	8b 05 ee c7 00 00    	mov    0xc7ee(%rip),%eax        # 152bc <g_4+0x27c>
    8ace:	83 f8 0d             	cmp    $0xd,%eax
    8ad1:	0f 8f 78 fd ff ff    	jg     884f <func_1+0x9a>
    8ad7:	48 8b 05 c2 e5 00 00 	mov    0xe5c2(%rip),%rax        # 170a0 <g_918>
    8ade:	48 8b 00             	mov    (%rax),%rax
    8ae1:	0f b6 00             	movzbl (%rax),%eax
    8ae4:	48 8b 5d c8          	mov    -0x38(%rbp),%rbx
    8ae8:	64 48 33 1c 25 28 00 	xor    %fs:0x28,%rbx
    8aef:	00 00 
    8af1:	74 05                	je     8af8 <func_1+0x343>
    8af3:	e8 78 e5 ff ff       	callq  7070 <__stack_chk_fail@plt>
    8af8:	48 81 c4 08 10 00 00 	add    $0x1008,%rsp
    8aff:	5b                   	pop    %rbx
    8b00:	41 5c                	pop    %r12
    8b02:	41 5d                	pop    %r13
    8b04:	41 5e                	pop    %r14
    8b06:	41 5f                	pop    %r15
    8b08:	5d                   	pop    %rbp
    8b09:	c3                   	retq   

0000000000008b0a <func_7>:
    8b0a:	f3 0f 1e fa          	endbr64 
    8b0e:	55                   	push   %rbp
    8b0f:	48 89 e5             	mov    %rsp,%rbp
    8b12:	48 81 ec d0 05 00 00 	sub    $0x5d0,%rsp
    8b19:	48 89 bd 48 fa ff ff 	mov    %rdi,-0x5b8(%rbp)
    8b20:	89 b5 44 fa ff ff    	mov    %esi,-0x5bc(%rbp)
    8b26:	89 95 40 fa ff ff    	mov    %edx,-0x5c0(%rbp)
    8b2c:	89 c8                	mov    %ecx,%eax
    8b2e:	44 89 c2             	mov    %r8d,%edx
    8b31:	66 89 85 3c fa ff ff 	mov    %ax,-0x5c4(%rbp)
    8b38:	89 d0                	mov    %edx,%eax
    8b3a:	88 85 38 fa ff ff    	mov    %al,-0x5c8(%rbp)
    8b40:	64 48 8b 04 25 28 00 	mov    %fs:0x28,%rax
    8b47:	00 00 
    8b49:	48 89 45 f8          	mov    %rax,-0x8(%rbp)
    8b4d:	31 c0                	xor    %eax,%eax
    8b4f:	48 8d 85 50 fa ff ff 	lea    -0x5b0(%rbp),%rax
    8b56:	48 8d 15 03 df 00 00 	lea    0xdf03(%rip),%rdx        # 16a60 <g_2866+0xf80>
    8b5d:	b9 b4 00 00 00       	mov    $0xb4,%ecx
    8b62:	48 89 c7             	mov    %rax,%rdi
    8b65:	48 89 d6             	mov    %rdx,%rsi
    8b68:	f3 48 a5             	rep movsq %ds:(%rsi),%es:(%rdi)
    8b6b:	48 8b 85 18 ff ff ff 	mov    -0xe8(%rbp),%rax
    8b72:	48 8b 4d f8          	mov    -0x8(%rbp),%rcx
    8b76:	64 48 33 0c 25 28 00 	xor    %fs:0x28,%rcx
    8b7d:	00 00 
    8b7f:	74 05                	je     8b86 <func_7+0x7c>
    8b81:	e8 ea e4 ff ff       	callq  7070 <__stack_chk_fail@plt>
    8b86:	c9                   	leaveq 
    8b87:	c3                   	retq   

0000000000008b88 <func_13>:
    8b88:	f3 0f 1e fa          	endbr64 
    8b8c:	55                   	push   %rbp
    8b8d:	48 89 e5             	mov    %rsp,%rbp
    8b90:	53                   	push   %rbx
    8b91:	48 81 ec 38 01 00 00 	sub    $0x138,%rsp
    8b98:	89 f8                	mov    %edi,%eax
    8b9a:	48 89 b5 d0 fe ff ff 	mov    %rsi,-0x130(%rbp)
    8ba1:	48 89 95 c8 fe ff ff 	mov    %rdx,-0x138(%rbp)
    8ba8:	48 89 8d c0 fe ff ff 	mov    %rcx,-0x140(%rbp)
    8baf:	88 85 dc fe ff ff    	mov    %al,-0x124(%rbp)
    8bb5:	64 48 8b 04 25 28 00 	mov    %fs:0x28,%rax
    8bbc:	00 00 
    8bbe:	48 89 45 e8          	mov    %rax,-0x18(%rbp)
    8bc2:	31 c0                	xor    %eax,%eax
    8bc4:	48 c7 85 f0 fe ff ff 	movq   $0xfffffffffffffff9,-0x110(%rbp)
    8bcb:	f9 ff ff ff 
    8bcf:	48 c7 85 f8 fe ff ff 	movq   $0xfffffffffffffff9,-0x108(%rbp)
    8bd6:	f9 ff ff ff 
    8bda:	48 b8 84 81 af c7 ca 	movabs $0xc8ffbcac7af8184,%rax
    8be1:	fb 8f 0c 
    8be4:	48 89 85 00 ff ff ff 	mov    %rax,-0x100(%rbp)
    8beb:	48 b9 04 f2 e3 04 94 	movabs $0x39b02f9404e3f204,%rcx
    8bf2:	2f b0 39 
    8bf5:	48 89 8d 08 ff ff ff 	mov    %rcx,-0xf8(%rbp)
    8bfc:	48 89 85 10 ff ff ff 	mov    %rax,-0xf0(%rbp)
    8c03:	48 89 85 18 ff ff ff 	mov    %rax,-0xe8(%rbp)
    8c0a:	48 89 85 20 ff ff ff 	mov    %rax,-0xe0(%rbp)
    8c11:	48 c7 85 28 ff ff ff 	movq   $0xffffffffffffffff,-0xd8(%rbp)
    8c18:	ff ff ff ff 
    8c1c:	48 c7 85 30 ff ff ff 	movq   $0xfffffffffffffff8,-0xd0(%rbp)
    8c23:	f8 ff ff ff 
    8c27:	48 89 8d 38 ff ff ff 	mov    %rcx,-0xc8(%rbp)
    8c2e:	48 c7 85 40 ff ff ff 	movq   $0xffffffffffffffff,-0xc0(%rbp)
    8c35:	ff ff ff ff 
    8c39:	48 89 8d 48 ff ff ff 	mov    %rcx,-0xb8(%rbp)
    8c40:	48 c7 85 50 ff ff ff 	movq   $0xfffffffffffffff9,-0xb0(%rbp)
    8c47:	f9 ff ff ff 
    8c4b:	48 89 85 58 ff ff ff 	mov    %rax,-0xa8(%rbp)
    8c52:	48 c7 85 60 ff ff ff 	movq   $0xfffffffffffffff8,-0xa0(%rbp)
    8c59:	f8 ff ff ff 
    8c5d:	48 c7 85 68 ff ff ff 	movq   $0xfffffffffffffff9,-0x98(%rbp)
    8c64:	f9 ff ff ff 
    8c68:	48 c7 85 70 ff ff ff 	movq   $0xfffffffffffffff9,-0x90(%rbp)
    8c6f:	f9 ff ff ff 
    8c73:	48 89 85 78 ff ff ff 	mov    %rax,-0x88(%rbp)
    8c7a:	48 89 4d 80          	mov    %rcx,-0x80(%rbp)
    8c7e:	48 89 45 88          	mov    %rax,-0x78(%rbp)
    8c82:	48 89 45 90          	mov    %rax,-0x70(%rbp)
    8c86:	48 89 45 98          	mov    %rax,-0x68(%rbp)
    8c8a:	48 c7 45 a0 ff ff ff 	movq   $0xffffffffffffffff,-0x60(%rbp)
    8c91:	ff 
    8c92:	48 c7 45 a8 f8 ff ff 	movq   $0xfffffffffffffff8,-0x58(%rbp)
    8c99:	ff 
    8c9a:	48 89 4d b0          	mov    %rcx,-0x50(%rbp)
    8c9e:	48 c7 45 b8 ff ff ff 	movq   $0xffffffffffffffff,-0x48(%rbp)
    8ca5:	ff 
    8ca6:	48 89 4d c0          	mov    %rcx,-0x40(%rbp)
    8caa:	48 c7 45 c8 f9 ff ff 	movq   $0xfffffffffffffff9,-0x38(%rbp)
    8cb1:	ff 
    8cb2:	48 89 45 d0          	mov    %rax,-0x30(%rbp)
    8cb6:	48 c7 45 d8 f8 ff ff 	movq   $0xfffffffffffffff8,-0x28(%rbp)
    8cbd:	ff 
    8cbe:	c7 85 e0 fe ff ff 01 	movl   $0x1,-0x120(%rbp)
    8cc5:	00 00 00 
    8cc8:	c7 85 e4 fe ff ff 78 	movl   $0x724d8378,-0x11c(%rbp)
    8ccf:	83 4d 72 
    8cd2:	48 8d 05 5b c7 00 00 	lea    0xc75b(%rip),%rax        # 15434 <g_36>
    8cd9:	48 89 85 e8 fe ff ff 	mov    %rax,-0x118(%rbp)
    8ce0:	48 8d 05 ad cb 00 00 	lea    0xcbad(%rip),%rax        # 15894 <g_831>
    8ce7:	8b 00                	mov    (%rax),%eax
    8ce9:	0f b6 85 dc fe ff ff 	movzbl -0x124(%rbp),%eax
    8cf0:	0f b6 d8             	movzbl %al,%ebx
    8cf3:	48 8b 85 20 ff ff ff 	mov    -0xe0(%rbp),%rax
    8cfa:	48 85 c0             	test   %rax,%rax
    8cfd:	0f 85 b0 00 00 00    	jne    8db3 <func_13+0x22b>
    8d03:	48 8b 95 20 ff ff ff 	mov    -0xe0(%rbp),%rdx
    8d0a:	48 8b 85 70 ff ff ff 	mov    -0x90(%rbp),%rax
    8d11:	89 85 e0 fe ff ff    	mov    %eax,-0x120(%rbp)
    8d17:	83 bd e0 fe ff ff 00 	cmpl   $0x0,-0x120(%rbp)
    8d1e:	75 0f                	jne    8d2f <func_13+0x1a7>
    8d20:	48 8b 05 51 e3 00 00 	mov    0xe351(%rip),%rax        # 17078 <g_637>
    8d27:	0f b7 00             	movzwl (%rax),%eax
    8d2a:	66 85 c0             	test   %ax,%ax
    8d2d:	74 07                	je     8d36 <func_13+0x1ae>
    8d2f:	b8 01 00 00 00       	mov    $0x1,%eax
    8d34:	eb 05                	jmp    8d3b <func_13+0x1b3>
    8d36:	b8 00 00 00 00       	mov    $0x0,%eax
    8d3b:	48 98                	cltq   
    8d3d:	48 39 c2             	cmp    %rax,%rdx
    8d40:	0f 9e c0             	setle  %al
    8d43:	0f b6 d0             	movzbl %al,%edx
    8d46:	48 8b 05 6b e3 00 00 	mov    0xe36b(%rip),%rax        # 170b8 <g_1014>
    8d4d:	48 8b 00             	mov    (%rax),%rax
    8d50:	0f b7 00             	movzwl (%rax),%eax
    8d53:	98                   	cwtl   
    8d54:	89 d6                	mov    %edx,%esi
    8d56:	89 c7                	mov    %eax,%edi
    8d58:	e8 98 e6 ff ff       	callq  73f5 <safe_mul_func_int16_t_s_s>
    8d5d:	48 8b 95 20 ff ff ff 	mov    -0xe0(%rbp),%rdx
    8d64:	48 83 fa 08          	cmp    $0x8,%rdx
    8d68:	0f 9e c2             	setle  %dl
    8d6b:	0f b6 d2             	movzbl %dl,%edx
    8d6e:	09 d0                	or     %edx,%eax
    8d70:	0f bf d0             	movswl %ax,%edx
    8d73:	48 8b 05 66 cd 00 00 	mov    0xcd66(%rip),%rax        # 15ae0 <g_2866>
    8d7a:	98                   	cwtl   
    8d7b:	89 d6                	mov    %edx,%esi
    8d7d:	89 c7                	mov    %eax,%edi
    8d7f:	e8 71 e6 ff ff       	callq  73f5 <safe_mul_func_int16_t_s_s>
    8d84:	48 8b 95 d0 fe ff ff 	mov    -0x130(%rbp),%rdx
    8d8b:	8b 12                	mov    (%rdx),%edx
    8d8d:	98                   	cwtl   
    8d8e:	31 c2                	xor    %eax,%edx
    8d90:	48 8b 85 d0 fe ff ff 	mov    -0x130(%rbp),%rax
    8d97:	89 10                	mov    %edx,(%rax)
    8d99:	48 8b 85 d0 fe ff ff 	mov    -0x130(%rbp),%rax
    8da0:	8b 00                	mov    (%rax),%eax
    8da2:	48 8b 55 d8          	mov    -0x28(%rbp),%rdx
    8da6:	89 c6                	mov    %eax,%esi
    8da8:	89 d7                	mov    %edx,%edi
    8daa:	e8 56 e8 ff ff       	callq  7605 <safe_sub_func_int32_t_s_s>
    8daf:	85 c0                	test   %eax,%eax
    8db1:	74 07                	je     8dba <func_13+0x232>
    8db3:	b8 01 00 00 00       	mov    $0x1,%eax
    8db8:	eb 05                	jmp    8dbf <func_13+0x237>
    8dba:	b8 00 00 00 00       	mov    $0x0,%eax
    8dbf:	83 f8 01             	cmp    $0x1,%eax
    8dc2:	0f 95 c0             	setne  %al
    8dc5:	0f b6 c0             	movzbl %al,%eax
    8dc8:	21 85 e4 fe ff ff    	and    %eax,-0x11c(%rbp)
    8dce:	48 8b 05 83 e2 00 00 	mov    0xe283(%rip),%rax        # 17058 <g_450>
    8dd5:	0f b6 00             	movzbl (%rax),%eax
    8dd8:	0f b6 c0             	movzbl %al,%eax
    8ddb:	89 de                	mov    %ebx,%esi
    8ddd:	89 c7                	mov    %eax,%edi
    8ddf:	e8 f7 ed ff ff       	callq  7bdb <safe_div_func_uint8_t_u_u>
    8de4:	0f b6 d0             	movzbl %al,%edx
    8de7:	48 8b 85 30 ff ff ff 	mov    -0xd0(%rbp),%rax
    8dee:	48 09 d0             	or     %rdx,%rax
    8df1:	48 85 c0             	test   %rax,%rax
    8df4:	74 07                	je     8dfd <func_13+0x275>
    8df6:	80 bd dc fe ff ff 00 	cmpb   $0x0,-0x124(%rbp)
    8dfd:	83 bd e4 fe ff ff 00 	cmpl   $0x0,-0x11c(%rbp)
    8e04:	74 07                	je     8e0d <func_13+0x285>
    8e06:	ba 01 00 00 00       	mov    $0x1,%edx
    8e0b:	eb 05                	jmp    8e12 <func_13+0x28a>
    8e0d:	ba 00 00 00 00       	mov    $0x0,%edx
    8e12:	48 8b 85 e8 fe ff ff 	mov    -0x118(%rbp),%rax
    8e19:	8b 00                	mov    (%rax),%eax
    8e1b:	21 c2                	and    %eax,%edx
    8e1d:	48 8b 85 e8 fe ff ff 	mov    -0x118(%rbp),%rax
    8e24:	89 10                	mov    %edx,(%rax)
    8e26:	48 8b 05 83 e2 00 00 	mov    0xe283(%rip),%rax        # 170b0 <g_962>
    8e2d:	48 8b 00             	mov    (%rax),%rax
    8e30:	48 8b 00             	mov    (%rax),%rax
    8e33:	48 8b 5d e8          	mov    -0x18(%rbp),%rbx
    8e37:	64 48 33 1c 25 28 00 	xor    %fs:0x28,%rbx
    8e3e:	00 00 
    8e40:	74 05                	je     8e47 <func_13+0x2bf>
    8e42:	e8 29 e2 ff ff       	callq  7070 <__stack_chk_fail@plt>
    8e47:	48 81 c4 38 01 00 00 	add    $0x138,%rsp
    8e4e:	5b                   	pop    %rbx
    8e4f:	5d                   	pop    %rbp
    8e50:	c3                   	retq   

0000000000008e51 <func_21>:
    8e51:	f3 0f 1e fa          	endbr64 
    8e55:	55                   	push   %rbp
    8e56:	48 89 e5             	mov    %rsp,%rbp
    8e59:	48 81 ec d0 08 00 00 	sub    $0x8d0,%rsp
    8e60:	89 bd 3c f7 ff ff    	mov    %edi,-0x8c4(%rbp)
    8e66:	89 f0                	mov    %esi,%eax
    8e68:	88 85 38 f7 ff ff    	mov    %al,-0x8c8(%rbp)
    8e6e:	64 48 8b 04 25 28 00 	mov    %fs:0x28,%rax
    8e75:	00 00 
    8e77:	48 89 45 f8          	mov    %rax,-0x8(%rbp)
    8e7b:	31 c0                	xor    %eax,%eax
    8e7d:	48 8d 85 90 fc ff ff 	lea    -0x370(%rbp),%rax
    8e84:	48 8d 15 d5 91 00 00 	lea    0x91d5(%rip),%rdx        # 12060 <g_2875+0x4>
    8e8b:	b9 6c 00 00 00       	mov    $0x6c,%ecx
    8e90:	48 89 c7             	mov    %rax,%rdi
    8e93:	48 89 d6             	mov    %rdx,%rsi
    8e96:	f3 48 a5             	rep movsq %ds:(%rsi),%es:(%rdi)
    8e99:	48 8d 05 94 c5 00 00 	lea    0xc594(%rip),%rax        # 15434 <g_36>
    8ea0:	48 89 85 a0 f7 ff ff 	mov    %rax,-0x860(%rbp)
    8ea7:	48 8d 05 ba f6 00 00 	lea    0xf6ba(%rip),%rax        # 18568 <g_34>
    8eae:	48 89 85 a8 f7 ff ff 	mov    %rax,-0x858(%rbp)
    8eb5:	48 8d 05 b4 f6 00 00 	lea    0xf6b4(%rip),%rax        # 18570 <g_116>
    8ebc:	48 89 85 b0 f7 ff ff 	mov    %rax,-0x850(%rbp)
    8ec3:	48 8d 85 90 fc ff ff 	lea    -0x370(%rbp),%rax
    8eca:	48 05 20 03 00 00    	add    $0x320,%rax
    8ed0:	48 89 85 b8 f7 ff ff 	mov    %rax,-0x848(%rbp)
    8ed7:	48 8d 05 de c9 00 00 	lea    0xc9de(%rip),%rax        # 158bc <g_922>
    8ede:	48 89 85 c0 f7 ff ff 	mov    %rax,-0x840(%rbp)
    8ee5:	c7 85 58 f7 ff ff 50 	movl   $0x7b41a50,-0x8a8(%rbp)
    8eec:	1a b4 07 
    8eef:	48 8d 05 f2 e1 00 00 	lea    0xe1f2(%rip),%rax        # 170e8 <g_1074>
    8ef6:	48 89 85 30 f8 ff ff 	mov    %rax,-0x7d0(%rbp)
    8efd:	48 8d 05 e4 e1 00 00 	lea    0xe1e4(%rip),%rax        # 170e8 <g_1074>
    8f04:	48 89 85 38 f8 ff ff 	mov    %rax,-0x7c8(%rbp)
    8f0b:	48 8d 05 d6 e1 00 00 	lea    0xe1d6(%rip),%rax        # 170e8 <g_1074>
    8f12:	48 89 85 40 f8 ff ff 	mov    %rax,-0x7c0(%rbp)
    8f19:	48 8d 05 c8 e1 00 00 	lea    0xe1c8(%rip),%rax        # 170e8 <g_1074>
    8f20:	48 89 85 48 f8 ff ff 	mov    %rax,-0x7b8(%rbp)
    8f27:	48 8d 85 30 f8 ff ff 	lea    -0x7d0(%rbp),%rax
    8f2e:	48 83 c0 18          	add    $0x18,%rax
    8f32:	48 89 85 50 f8 ff ff 	mov    %rax,-0x7b0(%rbp)
    8f39:	48 8d 85 30 f8 ff ff 	lea    -0x7d0(%rbp),%rax
    8f40:	48 83 c0 18          	add    $0x18,%rax
    8f44:	48 89 85 58 f8 ff ff 	mov    %rax,-0x7a8(%rbp)
    8f4b:	48 8d 85 30 f8 ff ff 	lea    -0x7d0(%rbp),%rax
    8f52:	48 83 c0 18          	add    $0x18,%rax
    8f56:	48 89 85 60 f8 ff ff 	mov    %rax,-0x7a0(%rbp)
    8f5d:	48 8d 85 30 f8 ff ff 	lea    -0x7d0(%rbp),%rax
    8f64:	48 83 c0 18          	add    $0x18,%rax
    8f68:	48 89 85 68 f8 ff ff 	mov    %rax,-0x798(%rbp)
    8f6f:	48 8d 85 30 f8 ff ff 	lea    -0x7d0(%rbp),%rax
    8f76:	48 83 c0 18          	add    $0x18,%rax
    8f7a:	48 89 85 70 f8 ff ff 	mov    %rax,-0x790(%rbp)
    8f81:	c6 85 48 f7 ff ff 01 	movb   $0x1,-0x8b8(%rbp)
    8f88:	c7 85 b0 f8 ff ff 01 	movl   $0x1,-0x750(%rbp)
    8f8f:	00 00 00 
    8f92:	c7 85 b4 f8 ff ff 00 	movl   $0x0,-0x74c(%rbp)
    8f99:	00 00 00 
    8f9c:	c7 85 b8 f8 ff ff 01 	movl   $0x1,-0x748(%rbp)
    8fa3:	00 00 00 
    8fa6:	c7 85 bc f8 ff ff c7 	movl   $0x6e2f0bc7,-0x744(%rbp)
    8fad:	0b 2f 6e 
    8fb0:	c7 85 c0 f8 ff ff 71 	movl   $0xace34e71,-0x740(%rbp)
    8fb7:	4e e3 ac 
    8fba:	c7 85 c4 f8 ff ff ed 	movl   $0x3831d1ed,-0x73c(%rbp)
    8fc1:	d1 31 38 
    8fc4:	c7 85 c8 f8 ff ff 05 	movl   $0x5,-0x738(%rbp)
    8fcb:	00 00 00 
    8fce:	c7 85 cc f8 ff ff 01 	movl   $0x1,-0x734(%rbp)
    8fd5:	00 00 00 
    8fd8:	c7 85 d0 f8 ff ff 05 	movl   $0x5,-0x730(%rbp)
    8fdf:	00 00 00 
    8fe2:	c7 85 d4 f8 ff ff ed 	movl   $0x3831d1ed,-0x72c(%rbp)
    8fe9:	d1 31 38 
    8fec:	c7 85 d8 f8 ff ff c7 	movl   $0x6e2f0bc7,-0x728(%rbp)
    8ff3:	0b 2f 6e 
    8ff6:	c7 85 dc f8 ff ff ed 	movl   $0x3831d1ed,-0x724(%rbp)
    8ffd:	d1 31 38 
    9000:	66 c7 85 4a f7 ff ff 	movw   $0x3efa,-0x8b6(%rbp)
    9007:	fa 3e 
    9009:	48 c7 85 c8 f7 ff ff 	movq   $0x0,-0x838(%rbp)
    9010:	00 00 00 00 
    9014:	66 c7 85 4c f7 ff ff 	movw   $0x0,-0x8b4(%rbp)
    901b:	00 00 
    901d:	c7 85 5c f7 ff ff ff 	movl   $0xffffffff,-0x8a4(%rbp)
    9024:	ff ff ff 
    9027:	c7 85 60 f7 ff ff 55 	movl   $0x5b5ec855,-0x8a0(%rbp)
    902e:	c8 5e 5b 
    9031:	48 c7 85 d0 f7 ff ff 	movq   $0xfffffffffffffff8,-0x830(%rbp)
    9038:	f8 ff ff ff 
    903c:	48 c7 85 d8 f7 ff ff 	movq   $0x0,-0x828(%rbp)
    9043:	00 00 00 00 
    9047:	48 b8 c9 b8 09 35 79 	movabs $0x8c1ef1793509b8c9,%rax
    904e:	f1 1e 8c 
    9051:	48 89 85 e0 f7 ff ff 	mov    %rax,-0x820(%rbp)
    9058:	c6 85 49 f7 ff ff c8 	movb   $0xc8,-0x8b7(%rbp)
    905f:	48 b8 35 14 e2 81 f1 	movabs $0x37d660f181e21435,%rax
    9066:	60 d6 37 
    9069:	48 89 85 60 f9 ff ff 	mov    %rax,-0x6a0(%rbp)
    9070:	48 89 85 68 f9 ff ff 	mov    %rax,-0x698(%rbp)
    9077:	48 89 85 70 f9 ff ff 	mov    %rax,-0x690(%rbp)
    907e:	48 89 85 78 f9 ff ff 	mov    %rax,-0x688(%rbp)
    9085:	48 89 85 80 f9 ff ff 	mov    %rax,-0x680(%rbp)
    908c:	48 89 85 88 f9 ff ff 	mov    %rax,-0x678(%rbp)
    9093:	48 89 85 90 f9 ff ff 	mov    %rax,-0x670(%rbp)
    909a:	48 89 85 98 f9 ff ff 	mov    %rax,-0x668(%rbp)
    90a1:	48 8d 85 e0 f8 ff ff 	lea    -0x720(%rbp),%rax
    90a8:	48 83 c0 08          	add    $0x8,%rax
    90ac:	48 89 85 80 fa ff ff 	mov    %rax,-0x580(%rbp)
    90b3:	48 c7 85 88 fa ff ff 	movq   $0x0,-0x578(%rbp)
    90ba:	00 00 00 00 
    90be:	48 8d 85 e0 f8 ff ff 	lea    -0x720(%rbp),%rax
    90c5:	48 83 c0 10          	add    $0x10,%rax
    90c9:	48 89 85 90 fa ff ff 	mov    %rax,-0x570(%rbp)
    90d0:	48 8d 85 e0 f8 ff ff 	lea    -0x720(%rbp),%rax
    90d7:	48 83 c0 10          	add    $0x10,%rax
    90db:	48 89 85 98 fa ff ff 	mov    %rax,-0x568(%rbp)
    90e2:	48 c7 85 a0 fa ff ff 	movq   $0x0,-0x560(%rbp)
    90e9:	00 00 00 00 
    90ed:	48 8d 85 e0 f8 ff ff 	lea    -0x720(%rbp),%rax
    90f4:	48 83 c0 10          	add    $0x10,%rax
    90f8:	48 89 85 a8 fa ff ff 	mov    %rax,-0x558(%rbp)
    90ff:	48 8d 85 e0 f8 ff ff 	lea    -0x720(%rbp),%rax
    9106:	48 83 c0 10          	add    $0x10,%rax
    910a:	48 89 85 b0 fa ff ff 	mov    %rax,-0x550(%rbp)
    9111:	48 c7 85 b8 fa ff ff 	movq   $0x0,-0x548(%rbp)
    9118:	00 00 00 00 
    911c:	48 8d 85 e0 f8 ff ff 	lea    -0x720(%rbp),%rax
    9123:	48 83 c0 08          	add    $0x8,%rax
    9127:	48 89 85 c0 fa ff ff 	mov    %rax,-0x540(%rbp)
    912e:	48 8d 85 e0 f8 ff ff 	lea    -0x720(%rbp),%rax
    9135:	48 83 c0 08          	add    $0x8,%rax
    9139:	48 89 85 c8 fa ff ff 	mov    %rax,-0x538(%rbp)
    9140:	48 c7 85 d0 fa ff ff 	movq   $0x0,-0x530(%rbp)
    9147:	00 00 00 00 
    914b:	48 8d 85 e0 f8 ff ff 	lea    -0x720(%rbp),%rax
    9152:	48 83 c0 10          	add    $0x10,%rax
    9156:	48 89 85 d8 fa ff ff 	mov    %rax,-0x528(%rbp)
    915d:	48 8d 85 e0 f8 ff ff 	lea    -0x720(%rbp),%rax
    9164:	48 83 c0 10          	add    $0x10,%rax
    9168:	48 89 85 e0 fa ff ff 	mov    %rax,-0x520(%rbp)
    916f:	48 c7 85 e8 fa ff ff 	movq   $0x0,-0x518(%rbp)
    9176:	00 00 00 00 
    917a:	48 8d 85 e0 f8 ff ff 	lea    -0x720(%rbp),%rax
    9181:	48 83 c0 10          	add    $0x10,%rax
    9185:	48 89 85 f0 fa ff ff 	mov    %rax,-0x510(%rbp)
    918c:	48 8d 85 e0 f8 ff ff 	lea    -0x720(%rbp),%rax
    9193:	48 83 c0 10          	add    $0x10,%rax
    9197:	48 89 85 f8 fa ff ff 	mov    %rax,-0x508(%rbp)
    919e:	48 c7 85 00 fb ff ff 	movq   $0x0,-0x500(%rbp)
    91a5:	00 00 00 00 
    91a9:	48 8d 85 e0 f8 ff ff 	lea    -0x720(%rbp),%rax
    91b0:	48 83 c0 08          	add    $0x8,%rax
    91b4:	48 89 85 08 fb ff ff 	mov    %rax,-0x4f8(%rbp)
    91bb:	48 8d 85 e0 f8 ff ff 	lea    -0x720(%rbp),%rax
    91c2:	48 83 c0 08          	add    $0x8,%rax
    91c6:	48 89 85 10 fb ff ff 	mov    %rax,-0x4f0(%rbp)
    91cd:	48 c7 85 18 fb ff ff 	movq   $0x0,-0x4e8(%rbp)
    91d4:	00 00 00 00 
    91d8:	48 8d 85 e0 f8 ff ff 	lea    -0x720(%rbp),%rax
    91df:	48 83 c0 10          	add    $0x10,%rax
    91e3:	48 89 85 20 fb ff ff 	mov    %rax,-0x4e0(%rbp)
    91ea:	48 8d 85 e0 f8 ff ff 	lea    -0x720(%rbp),%rax
    91f1:	48 83 c0 10          	add    $0x10,%rax
    91f5:	48 89 85 28 fb ff ff 	mov    %rax,-0x4d8(%rbp)
    91fc:	48 c7 85 30 fb ff ff 	movq   $0x0,-0x4d0(%rbp)
    9203:	00 00 00 00 
    9207:	48 8d 85 e0 f8 ff ff 	lea    -0x720(%rbp),%rax
    920e:	48 83 c0 10          	add    $0x10,%rax
    9212:	48 89 85 38 fb ff ff 	mov    %rax,-0x4c8(%rbp)
    9219:	48 8d 85 e0 f8 ff ff 	lea    -0x720(%rbp),%rax
    9220:	48 83 c0 10          	add    $0x10,%rax
    9224:	48 89 85 40 fb ff ff 	mov    %rax,-0x4c0(%rbp)
    922b:	48 c7 85 48 fb ff ff 	movq   $0x0,-0x4b8(%rbp)
    9232:	00 00 00 00 
    9236:	48 8d 85 e0 f8 ff ff 	lea    -0x720(%rbp),%rax
    923d:	48 83 c0 08          	add    $0x8,%rax
    9241:	48 89 85 50 fb ff ff 	mov    %rax,-0x4b0(%rbp)
    9248:	48 8d 85 e0 f8 ff ff 	lea    -0x720(%rbp),%rax
    924f:	48 83 c0 08          	add    $0x8,%rax
    9253:	48 89 85 58 fb ff ff 	mov    %rax,-0x4a8(%rbp)
    925a:	48 c7 85 60 fb ff ff 	movq   $0x0,-0x4a0(%rbp)
    9261:	00 00 00 00 
    9265:	48 8d 85 e0 f8 ff ff 	lea    -0x720(%rbp),%rax
    926c:	48 83 c0 10          	add    $0x10,%rax
    9270:	48 89 85 68 fb ff ff 	mov    %rax,-0x498(%rbp)
    9277:	c7 85 50 f7 ff ff 08 	movl   $0x8,-0x8b0(%rbp)
    927e:	00 00 00 
    9281:	66 c7 85 4e f7 ff ff 	movw   $0x4,-0x8b2(%rbp)
    9288:	04 00 
    928a:	48 8d 85 4a f7 ff ff 	lea    -0x8b6(%rbp),%rax
    9291:	48 89 85 68 f7 ff ff 	mov    %rax,-0x898(%rbp)
    9298:	48 8d 85 68 f7 ff ff 	lea    -0x898(%rbp),%rax
    929f:	48 89 85 e8 f7 ff ff 	mov    %rax,-0x818(%rbp)
    92a6:	c7 85 a0 f9 ff ff 0f 	movl   $0x9fbbaa0f,-0x660(%rbp)
    92ad:	aa bb 9f 
    92b0:	c7 85 a4 f9 ff ff 0f 	movl   $0x9fbbaa0f,-0x65c(%rbp)
    92b7:	aa bb 9f 
    92ba:	c7 85 a8 f9 ff ff 0f 	movl   $0x9fbbaa0f,-0x658(%rbp)
    92c1:	aa bb 9f 
    92c4:	c7 85 ac f9 ff ff 0f 	movl   $0x9fbbaa0f,-0x654(%rbp)
    92cb:	aa bb 9f 
    92ce:	c7 85 b0 f9 ff ff 0f 	movl   $0x9fbbaa0f,-0x650(%rbp)
    92d5:	aa bb 9f 
    92d8:	c7 85 b4 f9 ff ff 0f 	movl   $0x9fbbaa0f,-0x64c(%rbp)
    92df:	aa bb 9f 
    92e2:	c7 85 b8 f9 ff ff 0f 	movl   $0x9fbbaa0f,-0x648(%rbp)
    92e9:	aa bb 9f 
    92ec:	c7 85 bc f9 ff ff 0f 	movl   $0x9fbbaa0f,-0x644(%rbp)
    92f3:	aa bb 9f 
    92f6:	c7 85 c0 f9 ff ff 0f 	movl   $0x9fbbaa0f,-0x640(%rbp)
    92fd:	aa bb 9f 
    9300:	c7 85 c4 f9 ff ff 0f 	movl   $0x9fbbaa0f,-0x63c(%rbp)
    9307:	aa bb 9f 
    930a:	c7 85 c8 f9 ff ff 0f 	movl   $0x9fbbaa0f,-0x638(%rbp)
    9311:	aa bb 9f 
    9314:	c7 85 cc f9 ff ff 0f 	movl   $0x9fbbaa0f,-0x634(%rbp)
    931b:	aa bb 9f 
    931e:	c7 85 d0 f9 ff ff 0f 	movl   $0x9fbbaa0f,-0x630(%rbp)
    9325:	aa bb 9f 
    9328:	c7 85 d4 f9 ff ff 0f 	movl   $0x9fbbaa0f,-0x62c(%rbp)
    932f:	aa bb 9f 
    9332:	c7 85 d8 f9 ff ff 0f 	movl   $0x9fbbaa0f,-0x628(%rbp)
    9339:	aa bb 9f 
    933c:	c7 85 dc f9 ff ff 0f 	movl   $0x9fbbaa0f,-0x624(%rbp)
    9343:	aa bb 9f 
    9346:	c7 85 e0 f9 ff ff 0f 	movl   $0x9fbbaa0f,-0x620(%rbp)
    934d:	aa bb 9f 
    9350:	c7 85 e4 f9 ff ff 0f 	movl   $0x9fbbaa0f,-0x61c(%rbp)
    9357:	aa bb 9f 
    935a:	c7 85 e8 f9 ff ff 0f 	movl   $0x9fbbaa0f,-0x618(%rbp)
    9361:	aa bb 9f 
    9364:	c7 85 ec f9 ff ff 0f 	movl   $0x9fbbaa0f,-0x614(%rbp)
    936b:	aa bb 9f 
    936e:	c7 85 f0 f9 ff ff 0f 	movl   $0x9fbbaa0f,-0x610(%rbp)
    9375:	aa bb 9f 
    9378:	c7 85 f4 f9 ff ff 0f 	movl   $0x9fbbaa0f,-0x60c(%rbp)
    937f:	aa bb 9f 
    9382:	c7 85 f8 f9 ff ff 0f 	movl   $0x9fbbaa0f,-0x608(%rbp)
    9389:	aa bb 9f 
    938c:	c7 85 fc f9 ff ff 0f 	movl   $0x9fbbaa0f,-0x604(%rbp)
    9393:	aa bb 9f 
    9396:	48 8d 05 bd c0 00 00 	lea    0xc0bd(%rip),%rax        # 1545a <g_196>
    939d:	48 89 85 70 f7 ff ff 	mov    %rax,-0x890(%rbp)
    93a4:	48 8d 85 70 f7 ff ff 	lea    -0x890(%rbp),%rax
    93ab:	48 89 85 78 f7 ff ff 	mov    %rax,-0x888(%rbp)
    93b2:	48 8d 85 78 f7 ff ff 	lea    -0x888(%rbp),%rax
    93b9:	48 89 85 f0 f7 ff ff 	mov    %rax,-0x810(%rbp)
    93c0:	48 b8 81 6e e4 18 15 	movabs $0xc3f4681518e46e81,%rax
    93c7:	68 f4 c3 
    93ca:	48 89 85 f8 f7 ff ff 	mov    %rax,-0x808(%rbp)
    93d1:	c7 85 64 f7 ff ff 00 	movl   $0x0,-0x89c(%rbp)
    93d8:	00 00 00 
    93db:	48 b8 19 f6 19 88 ec 	movabs $0x19749dec8819f619,%rax
    93e2:	9d 74 19 
    93e5:	48 89 85 00 f8 ff ff 	mov    %rax,-0x800(%rbp)
    93ec:	48 8d 85 70 fb ff ff 	lea    -0x490(%rbp),%rax
    93f3:	48 8d 15 c6 8f 00 00 	lea    0x8fc6(%rip),%rdx        # 123c0 <g_2875+0x364>
    93fa:	b9 23 00 00 00       	mov    $0x23,%ecx
    93ff:	48 89 c7             	mov    %rax,%rdi
    9402:	48 89 d6             	mov    %rdx,%rsi
    9405:	f3 48 a5             	rep movsq %ds:(%rsi),%es:(%rdi)
    9408:	48 8d 05 51 dc 00 00 	lea    0xdc51(%rip),%rax        # 17060 <g_449>
    940f:	48 89 85 80 f8 ff ff 	mov    %rax,-0x780(%rbp)
    9416:	48 8d 05 43 dc 00 00 	lea    0xdc43(%rip),%rax        # 17060 <g_449>
    941d:	48 89 85 88 f8 ff ff 	mov    %rax,-0x778(%rbp)
    9424:	48 8d 05 35 dc 00 00 	lea    0xdc35(%rip),%rax        # 17060 <g_449>
    942b:	48 89 85 90 f8 ff ff 	mov    %rax,-0x770(%rbp)
    9432:	48 8d 05 27 dc 00 00 	lea    0xdc27(%rip),%rax        # 17060 <g_449>
    9439:	48 89 85 98 f8 ff ff 	mov    %rax,-0x768(%rbp)
    9440:	48 8d 05 19 dc 00 00 	lea    0xdc19(%rip),%rax        # 17060 <g_449>
    9447:	48 89 85 a0 f8 ff ff 	mov    %rax,-0x760(%rbp)
    944e:	48 8d 05 eb c3 00 00 	lea    0xc3eb(%rip),%rax        # 15840 <g_574>
    9455:	48 89 85 20 f9 ff ff 	mov    %rax,-0x6e0(%rbp)
    945c:	48 c7 85 28 f9 ff ff 	movq   $0x0,-0x6d8(%rbp)
    9463:	00 00 00 00 
    9467:	48 c7 85 30 f9 ff ff 	movq   $0x0,-0x6d0(%rbp)
    946e:	00 00 00 00 
    9472:	48 8d 05 c7 c3 00 00 	lea    0xc3c7(%rip),%rax        # 15840 <g_574>
    9479:	48 89 85 38 f9 ff ff 	mov    %rax,-0x6c8(%rbp)
    9480:	48 c7 85 40 f9 ff ff 	movq   $0x0,-0x6c0(%rbp)
    9487:	00 00 00 00 
    948b:	48 c7 85 48 f9 ff ff 	movq   $0x0,-0x6b8(%rbp)
    9492:	00 00 00 00 
    9496:	48 8d 05 a3 c3 00 00 	lea    0xc3a3(%rip),%rax        # 15840 <g_574>
    949d:	48 89 85 50 f9 ff ff 	mov    %rax,-0x6b0(%rbp)
    94a4:	48 8d 85 20 f9 ff ff 	lea    -0x6e0(%rbp),%rax
    94ab:	48 83 c0 18          	add    $0x18,%rax
    94af:	48 89 85 80 f7 ff ff 	mov    %rax,-0x880(%rbp)
    94b6:	48 8d 85 80 f7 ff ff 	lea    -0x880(%rbp),%rax
    94bd:	48 89 85 08 f8 ff ff 	mov    %rax,-0x7f8(%rbp)
    94c4:	48 8d 85 50 f7 ff ff 	lea    -0x8b0(%rbp),%rax
    94cb:	48 89 85 88 f7 ff ff 	mov    %rax,-0x878(%rbp)
    94d2:	48 8d 85 88 f7 ff ff 	lea    -0x878(%rbp),%rax
    94d9:	48 89 85 90 f7 ff ff 	mov    %rax,-0x870(%rbp)
    94e0:	48 8d 85 90 f7 ff ff 	lea    -0x870(%rbp),%rax
    94e7:	48 89 85 00 fa ff ff 	mov    %rax,-0x600(%rbp)
    94ee:	48 8d 85 90 f7 ff ff 	lea    -0x870(%rbp),%rax
    94f5:	48 89 85 08 fa ff ff 	mov    %rax,-0x5f8(%rbp)
    94fc:	48 8d 85 90 f7 ff ff 	lea    -0x870(%rbp),%rax
    9503:	48 89 85 10 fa ff ff 	mov    %rax,-0x5f0(%rbp)
    950a:	48 8d 85 90 f7 ff ff 	lea    -0x870(%rbp),%rax
    9511:	48 89 85 18 fa ff ff 	mov    %rax,-0x5e8(%rbp)
    9518:	48 8d 85 90 f7 ff ff 	lea    -0x870(%rbp),%rax
    951f:	48 89 85 20 fa ff ff 	mov    %rax,-0x5e0(%rbp)
    9526:	48 8d 85 90 f7 ff ff 	lea    -0x870(%rbp),%rax
    952d:	48 89 85 28 fa ff ff 	mov    %rax,-0x5d8(%rbp)
    9534:	48 8d 85 90 f7 ff ff 	lea    -0x870(%rbp),%rax
    953b:	48 89 85 30 fa ff ff 	mov    %rax,-0x5d0(%rbp)
    9542:	48 8d 85 90 f7 ff ff 	lea    -0x870(%rbp),%rax
    9549:	48 89 85 38 fa ff ff 	mov    %rax,-0x5c8(%rbp)
    9550:	48 8d 85 90 f7 ff ff 	lea    -0x870(%rbp),%rax
    9557:	48 89 85 40 fa ff ff 	mov    %rax,-0x5c0(%rbp)
    955e:	48 8d 85 90 f7 ff ff 	lea    -0x870(%rbp),%rax
    9565:	48 89 85 48 fa ff ff 	mov    %rax,-0x5b8(%rbp)
    956c:	48 8d 85 90 f7 ff ff 	lea    -0x870(%rbp),%rax
    9573:	48 89 85 50 fa ff ff 	mov    %rax,-0x5b0(%rbp)
    957a:	48 8d 85 90 f7 ff ff 	lea    -0x870(%rbp),%rax
    9581:	48 89 85 58 fa ff ff 	mov    %rax,-0x5a8(%rbp)
    9588:	48 8d 85 90 f7 ff ff 	lea    -0x870(%rbp),%rax
    958f:	48 89 85 60 fa ff ff 	mov    %rax,-0x5a0(%rbp)
    9596:	48 8d 85 90 f7 ff ff 	lea    -0x870(%rbp),%rax
    959d:	48 89 85 68 fa ff ff 	mov    %rax,-0x598(%rbp)
    95a4:	48 8d 85 90 f7 ff ff 	lea    -0x870(%rbp),%rax
    95ab:	48 89 85 70 fa ff ff 	mov    %rax,-0x590(%rbp)
    95b2:	48 8d 05 17 eb 00 00 	lea    0xeb17(%rip),%rax        # 180d0 <g_2762+0x30>
    95b9:	48 89 85 98 f7 ff ff 	mov    %rax,-0x868(%rbp)
    95c0:	48 8d 85 98 f7 ff ff 	lea    -0x868(%rbp),%rax
    95c7:	48 89 85 10 f8 ff ff 	mov    %rax,-0x7f0(%rbp)
    95ce:	48 b8 d1 d0 95 ad b6 	movabs $0x8881b0b6ad95d0d1,%rax
    95d5:	b0 81 88 
    95d8:	48 89 85 18 f8 ff ff 	mov    %rax,-0x7e8(%rbp)
    95df:	c7 85 54 f7 ff ff 00 	movl   $0x0,-0x8ac(%rbp)
    95e6:	00 00 00 
    95e9:	eb 1e                	jmp    9609 <func_21+0x7b8>
    95eb:	8b 85 54 f7 ff ff    	mov    -0x8ac(%rbp),%eax
    95f1:	48 98                	cltq   
    95f3:	48 8d 15 ee c2 00 00 	lea    0xc2ee(%rip),%rdx        # 158e8 <g_1583>
    95fa:	48 89 94 c5 20 f8 ff 	mov    %rdx,-0x7e0(%rbp,%rax,8)
    9601:	ff 
    9602:	83 85 54 f7 ff ff 01 	addl   $0x1,-0x8ac(%rbp)
    9609:	83 bd 54 f7 ff ff 00 	cmpl   $0x0,-0x8ac(%rbp)
    9610:	7e d9                	jle    95eb <func_21+0x79a>
    9612:	c7 85 54 f7 ff ff 00 	movl   $0x0,-0x8ac(%rbp)
    9619:	00 00 00 
    961c:	eb 1b                	jmp    9639 <func_21+0x7e8>
    961e:	8b 85 54 f7 ff ff    	mov    -0x8ac(%rbp),%eax
    9624:	48 98                	cltq   
    9626:	48 c7 84 c5 e0 f8 ff 	movq   $0x0,-0x720(%rbp,%rax,8)
    962d:	ff 00 00 00 00 
    9632:	83 85 54 f7 ff ff 01 	addl   $0x1,-0x8ac(%rbp)
    9639:	83 bd 54 f7 ff ff 06 	cmpl   $0x6,-0x8ac(%rbp)
    9640:	7e dc                	jle    961e <func_21+0x7cd>
    9642:	c7 85 54 f7 ff ff 00 	movl   $0x0,-0x8ac(%rbp)
    9649:	00 00 00 
    964c:	eb 1e                	jmp    966c <func_21+0x81b>
    964e:	8b 85 54 f7 ff ff    	mov    -0x8ac(%rbp),%eax
    9654:	48 98                	cltq   
    9656:	48 8d 15 33 be 00 00 	lea    0xbe33(%rip),%rdx        # 15490 <g_389>
    965d:	48 89 94 c5 28 f8 ff 	mov    %rdx,-0x7d8(%rbp,%rax,8)
    9664:	ff 
    9665:	83 85 54 f7 ff ff 01 	addl   $0x1,-0x8ac(%rbp)
    966c:	83 bd 54 f7 ff ff 00 	cmpl   $0x0,-0x8ac(%rbp)
    9673:	7e d9                	jle    964e <func_21+0x7fd>
    9675:	48 8b 85 18 f8 ff ff 	mov    -0x7e8(%rbp),%rax
    967c:	48 8b 4d f8          	mov    -0x8(%rbp),%rcx
    9680:	64 48 33 0c 25 28 00 	xor    %fs:0x28,%rcx
    9687:	00 00 
    9689:	74 05                	je     9690 <func_21+0x83f>
    968b:	e8 e0 d9 ff ff       	callq  7070 <__stack_chk_fail@plt>
    9690:	c9                   	leaveq 
    9691:	c3                   	retq   

0000000000009692 <func_47>:
    9692:	f3 0f 1e fa          	endbr64 
    9696:	55                   	push   %rbp
    9697:	48 89 e5             	mov    %rsp,%rbp
    969a:	41 57                	push   %r15
    969c:	41 56                	push   %r14
    969e:	41 55                	push   %r13
    96a0:	41 54                	push   %r12
    96a2:	53                   	push   %rbx
    96a3:	48 81 ec 00 10 00 00 	sub    $0x1000,%rsp
    96aa:	48 83 0c 24 00       	orq    $0x0,(%rsp)
    96af:	48 81 ec 00 10 00 00 	sub    $0x1000,%rsp
    96b6:	48 83 0c 24 00       	orq    $0x0,(%rsp)
    96bb:	48 83 ec 68          	sub    $0x68,%rsp
    96bf:	48 89 bd 88 df ff ff 	mov    %rdi,-0x2078(%rbp)
    96c6:	48 89 b5 80 df ff ff 	mov    %rsi,-0x2080(%rbp)
    96cd:	64 48 8b 04 25 28 00 	mov    %fs:0x28,%rax
    96d4:	00 00 
    96d6:	48 89 45 c8          	mov    %rax,-0x38(%rbp)
    96da:	31 c0                	xor    %eax,%eax
    96dc:	48 b8 ff 2e 08 17 84 	movabs $0x3155778417082eff,%rax
    96e3:	77 55 31 
    96e6:	48 89 85 d0 e0 ff ff 	mov    %rax,-0x1f30(%rbp)
    96ed:	48 c7 85 88 e0 ff ff 	movq   $0x0,-0x1f78(%rbp)
    96f4:	00 00 00 00 
    96f8:	c7 85 e0 e1 ff ff 48 	movl   $0x6570e848,-0x1e20(%rbp)
    96ff:	e8 70 65 
    9702:	c7 85 e4 e1 ff ff 48 	movl   $0x6570e848,-0x1e1c(%rbp)
    9709:	e8 70 65 
    970c:	c7 85 e8 e1 ff ff 48 	movl   $0x6570e848,-0x1e18(%rbp)
    9713:	e8 70 65 
    9716:	c7 85 ec e1 ff ff 48 	movl   $0x6570e848,-0x1e14(%rbp)
    971d:	e8 70 65 
    9720:	48 8d 05 39 d9 00 00 	lea    0xd939(%rip),%rax        # 17060 <g_449>
    9727:	48 89 85 d8 e0 ff ff 	mov    %rax,-0x1f28(%rbp)
    972e:	48 8d 05 4b d9 00 00 	lea    0xd94b(%rip),%rax        # 17080 <g_656>
    9735:	48 89 85 70 e2 ff ff 	mov    %rax,-0x1d90(%rbp)
    973c:	48 8d 05 3d d9 00 00 	lea    0xd93d(%rip),%rax        # 17080 <g_656>
    9743:	48 89 85 78 e2 ff ff 	mov    %rax,-0x1d88(%rbp)
    974a:	48 8d 05 2f d9 00 00 	lea    0xd92f(%rip),%rax        # 17080 <g_656>
    9751:	48 89 85 80 e2 ff ff 	mov    %rax,-0x1d80(%rbp)
    9758:	48 8d 05 21 d9 00 00 	lea    0xd921(%rip),%rax        # 17080 <g_656>
    975f:	48 89 85 88 e2 ff ff 	mov    %rax,-0x1d78(%rbp)
    9766:	48 8d 05 13 d9 00 00 	lea    0xd913(%rip),%rax        # 17080 <g_656>
    976d:	48 89 85 90 e2 ff ff 	mov    %rax,-0x1d70(%rbp)
    9774:	48 8d 05 05 d9 00 00 	lea    0xd905(%rip),%rax        # 17080 <g_656>
    977b:	48 89 85 98 e2 ff ff 	mov    %rax,-0x1d68(%rbp)
    9782:	48 c7 45 c0 ff ff ff 	movq   $0xffffffffffffffff,-0x40(%rbp)
    9789:	ff 
    978a:	66 c7 85 a6 df ff ff 	movw   $0xd6f8,-0x205a(%rbp)
    9791:	f8 d6 
    9793:	c6 85 9c df ff ff 48 	movb   $0x48,-0x2064(%rbp)
    979a:	48 8d 85 80 e7 ff ff 	lea    -0x1880(%rbp),%rax
    97a1:	48 8d 15 38 8d 00 00 	lea    0x8d38(%rip),%rdx        # 124e0 <g_2875+0x484>
    97a8:	b9 7a 00 00 00       	mov    $0x7a,%ecx
    97ad:	48 89 c7             	mov    %rax,%rdi
    97b0:	48 89 d6             	mov    %rdx,%rsi
    97b3:	f3 48 a5             	rep movsq %ds:(%rsi),%es:(%rdi)
    97b6:	48 89 f2             	mov    %rsi,%rdx
    97b9:	48 89 f8             	mov    %rdi,%rax
    97bc:	8b 0a                	mov    (%rdx),%ecx
    97be:	89 08                	mov    %ecx,(%rax)
    97c0:	48 8d 85 10 e2 ff ff 	lea    -0x1df0(%rbp),%rax
    97c7:	48 89 85 e0 e0 ff ff 	mov    %rax,-0x1f20(%rbp)
    97ce:	48 8d 05 3d bc 00 00 	lea    0xbc3d(%rip),%rax        # 15412 <g_31+0x92>
    97d5:	48 89 85 a0 e2 ff ff 	mov    %rax,-0x1d60(%rbp)
    97dc:	48 8d 05 2f bc 00 00 	lea    0xbc2f(%rip),%rax        # 15412 <g_31+0x92>
    97e3:	48 89 85 a8 e2 ff ff 	mov    %rax,-0x1d58(%rbp)
    97ea:	48 8d 05 21 bc 00 00 	lea    0xbc21(%rip),%rax        # 15412 <g_31+0x92>
    97f1:	48 89 85 b0 e2 ff ff 	mov    %rax,-0x1d50(%rbp)
    97f8:	48 8d 05 13 bc 00 00 	lea    0xbc13(%rip),%rax        # 15412 <g_31+0x92>
    97ff:	48 89 85 b8 e2 ff ff 	mov    %rax,-0x1d48(%rbp)
    9806:	48 8d 05 05 bc 00 00 	lea    0xbc05(%rip),%rax        # 15412 <g_31+0x92>
    980d:	48 89 85 c0 e2 ff ff 	mov    %rax,-0x1d40(%rbp)
    9814:	48 8d 05 f7 bb 00 00 	lea    0xbbf7(%rip),%rax        # 15412 <g_31+0x92>
    981b:	48 89 85 c8 e2 ff ff 	mov    %rax,-0x1d38(%rbp)
    9822:	48 8d 05 e9 bb 00 00 	lea    0xbbe9(%rip),%rax        # 15412 <g_31+0x92>
    9829:	48 89 85 d0 e2 ff ff 	mov    %rax,-0x1d30(%rbp)
    9830:	66 c7 85 a4 df ff ff 	movw   $0xfff9,-0x205c(%rbp)
    9837:	f9 ff 
    9839:	66 c7 85 a8 df ff ff 	movw   $0x0,-0x2058(%rbp)
    9840:	00 00 
    9842:	66 c7 85 aa df ff ff 	movw   $0xced,-0x2056(%rbp)
    9849:	ed 0c 
    984b:	66 c7 85 ac df ff ff 	movw   $0xfade,-0x2054(%rbp)
    9852:	de fa 
    9854:	48 c7 85 90 e0 ff ff 	movq   $0x7,-0x1f70(%rbp)
    985b:	07 00 00 00 
    985f:	48 b8 43 84 b7 e6 f6 	movabs $0xcf1243f6e6b78443,%rax
    9866:	43 12 cf 
    9869:	48 89 85 e8 e0 ff ff 	mov    %rax,-0x1f18(%rbp)
    9870:	c7 85 b8 df ff ff e7 	movl   $0x833898e7,-0x2048(%rbp)
    9877:	98 38 83 
    987a:	48 c7 85 98 e0 ff ff 	movq   $0x0,-0x1f68(%rbp)
    9881:	00 00 00 00 
    9885:	c7 85 e8 df ff ff f7 	movl   $0x9920e2f7,-0x2018(%rbp)
    988c:	e2 20 99 
    988f:	66 c7 85 ae df ff ff 	movw   $0x84ec,-0x2052(%rbp)
    9896:	ec 84 
    9898:	48 8d 05 b1 d7 00 00 	lea    0xd7b1(%rip),%rax        # 17050 <g_413>
    989f:	48 89 85 f0 e0 ff ff 	mov    %rax,-0x1f10(%rbp)
    98a6:	48 8d 85 b8 df ff ff 	lea    -0x2048(%rbp),%rax
    98ad:	48 89 85 a0 e0 ff ff 	mov    %rax,-0x1f60(%rbp)
    98b4:	48 8d 85 a0 e0 ff ff 	lea    -0x1f60(%rbp),%rax
    98bb:	48 89 85 a8 e0 ff ff 	mov    %rax,-0x1f58(%rbp)
    98c2:	48 8d 85 a8 e0 ff ff 	lea    -0x1f58(%rbp),%rax
    98c9:	48 89 85 f8 e0 ff ff 	mov    %rax,-0x1f08(%rbp)
    98d0:	48 b8 2f fd a9 9d a1 	movabs $0x9eb8f3a19da9fd2f,%rax
    98d7:	f3 b8 9e 
    98da:	48 89 85 c8 e0 ff ff 	mov    %rax,-0x1f38(%rbp)
    98e1:	c7 85 0c e0 ff ff fe 	movl   $0xfffffffe,-0x1ff4(%rbp)
    98e8:	ff ff ff 
    98eb:	c7 85 10 e0 ff ff 16 	movl   $0x72f73c16,-0x1ff0(%rbp)
    98f2:	3c f7 72 
    98f5:	48 c7 85 00 e1 ff ff 	movq   $0xffffffffffffffff,-0x1f00(%rbp)
    98fc:	ff ff ff ff 
    9900:	c7 85 ec df ff ff 00 	movl   $0x0,-0x2014(%rbp)
    9907:	00 00 00 
    990a:	eb 22                	jmp    992e <func_47+0x29c>
    990c:	8b 85 ec df ff ff    	mov    -0x2014(%rbp),%eax
    9912:	48 98                	cltq   
    9914:	48 8d 95 70 e2 ff ff 	lea    -0x1d90(%rbp),%rdx
    991b:	48 83 c2 10          	add    $0x10,%rdx
    991f:	48 89 94 c5 10 e2 ff 	mov    %rdx,-0x1df0(%rbp,%rax,8)
    9926:	ff 
    9927:	83 85 ec df ff ff 01 	addl   $0x1,-0x2014(%rbp)
    992e:	83 bd ec df ff ff 02 	cmpl   $0x2,-0x2014(%rbp)
    9935:	7e d5                	jle    990c <func_47+0x27a>
    9937:	c7 85 ec df ff ff 00 	movl   $0x0,-0x2014(%rbp)
    993e:	00 00 00 
    9941:	eb 14                	jmp    9957 <func_47+0x2c5>
    9943:	8b 85 ec df ff ff    	mov    -0x2014(%rbp),%eax
    9949:	48 98                	cltq   
    994b:	c6 44 05 bd c6       	movb   $0xc6,-0x43(%rbp,%rax,1)
    9950:	83 85 ec df ff ff 01 	addl   $0x1,-0x2014(%rbp)
    9957:	83 bd ec df ff ff 02 	cmpl   $0x2,-0x2014(%rbp)
    995e:	7e e3                	jle    9943 <func_47+0x2b1>
    9960:	c7 05 2a ec 00 00 01 	movl   $0x1,0xec2a(%rip)        # 18594 <g_760>
    9967:	00 00 00 
    996a:	e9 96 15 00 00       	jmpq   af05 <func_47+0x1873>
    996f:	48 8d 05 ea be 00 00 	lea    0xbeea(%rip),%rax        # 15860 <g_670>
    9976:	48 89 85 c0 e0 ff ff 	mov    %rax,-0x1f40(%rbp)
    997d:	48 8d 85 80 e5 ff ff 	lea    -0x1a80(%rbp),%rax
    9984:	48 83 c0 10          	add    $0x10,%rax
    9988:	48 89 85 a0 f1 ff ff 	mov    %rax,-0xe60(%rbp)
    998f:	48 8d 85 80 e5 ff ff 	lea    -0x1a80(%rbp),%rax
    9996:	48 83 c0 10          	add    $0x10,%rax
    999a:	48 89 85 a8 f1 ff ff 	mov    %rax,-0xe58(%rbp)
    99a1:	48 8d 85 80 e5 ff ff 	lea    -0x1a80(%rbp),%rax
    99a8:	48 83 c0 10          	add    $0x10,%rax
    99ac:	48 89 85 b0 f1 ff ff 	mov    %rax,-0xe50(%rbp)
    99b3:	48 8d 85 80 e5 ff ff 	lea    -0x1a80(%rbp),%rax
    99ba:	48 83 c0 10          	add    $0x10,%rax
    99be:	48 89 85 b8 f1 ff ff 	mov    %rax,-0xe48(%rbp)
    99c5:	48 c7 85 c0 f1 ff ff 	movq   $0x0,-0xe40(%rbp)
    99cc:	00 00 00 00 
    99d0:	48 c7 85 c8 f1 ff ff 	movq   $0x0,-0xe38(%rbp)
    99d7:	00 00 00 00 
    99db:	48 c7 85 d0 f1 ff ff 	movq   $0x0,-0xe30(%rbp)
    99e2:	00 00 00 00 
    99e6:	48 8d 85 80 e5 ff ff 	lea    -0x1a80(%rbp),%rax
    99ed:	48 83 c0 10          	add    $0x10,%rax
    99f1:	48 89 85 d8 f1 ff ff 	mov    %rax,-0xe28(%rbp)
    99f8:	48 8d 85 80 e5 ff ff 	lea    -0x1a80(%rbp),%rax
    99ff:	48 83 c0 10          	add    $0x10,%rax
    9a03:	48 89 85 e0 f1 ff ff 	mov    %rax,-0xe20(%rbp)
    9a0a:	48 8d 85 80 e5 ff ff 	lea    -0x1a80(%rbp),%rax
    9a11:	48 83 c0 10          	add    $0x10,%rax
    9a15:	48 89 85 e8 f1 ff ff 	mov    %rax,-0xe18(%rbp)
    9a1c:	48 8d 85 80 e5 ff ff 	lea    -0x1a80(%rbp),%rax
    9a23:	48 83 c0 10          	add    $0x10,%rax
    9a27:	48 89 85 f0 f1 ff ff 	mov    %rax,-0xe10(%rbp)
    9a2e:	48 8d 85 80 e5 ff ff 	lea    -0x1a80(%rbp),%rax
    9a35:	48 83 c0 10          	add    $0x10,%rax
    9a39:	48 89 85 f8 f1 ff ff 	mov    %rax,-0xe08(%rbp)
    9a40:	48 8d 85 80 e5 ff ff 	lea    -0x1a80(%rbp),%rax
    9a47:	48 83 c0 10          	add    $0x10,%rax
    9a4b:	48 89 85 00 f2 ff ff 	mov    %rax,-0xe00(%rbp)
    9a52:	48 8d 85 80 e5 ff ff 	lea    -0x1a80(%rbp),%rax
    9a59:	48 83 c0 10          	add    $0x10,%rax
    9a5d:	48 89 85 08 f2 ff ff 	mov    %rax,-0xdf8(%rbp)
    9a64:	48 c7 85 10 f2 ff ff 	movq   $0x0,-0xdf0(%rbp)
    9a6b:	00 00 00 00 
    9a6f:	48 c7 85 18 f2 ff ff 	movq   $0x0,-0xde8(%rbp)
    9a76:	00 00 00 00 
    9a7a:	48 c7 85 20 f2 ff ff 	movq   $0x0,-0xde0(%rbp)
    9a81:	00 00 00 00 
    9a85:	48 8d 85 80 e5 ff ff 	lea    -0x1a80(%rbp),%rax
    9a8c:	48 83 c0 10          	add    $0x10,%rax
    9a90:	48 89 85 28 f2 ff ff 	mov    %rax,-0xdd8(%rbp)
    9a97:	48 8d 85 80 e5 ff ff 	lea    -0x1a80(%rbp),%rax
    9a9e:	48 83 c0 10          	add    $0x10,%rax
    9aa2:	48 89 85 30 f2 ff ff 	mov    %rax,-0xdd0(%rbp)
    9aa9:	48 8d 85 80 e5 ff ff 	lea    -0x1a80(%rbp),%rax
    9ab0:	48 83 c0 10          	add    $0x10,%rax
    9ab4:	48 89 85 38 f2 ff ff 	mov    %rax,-0xdc8(%rbp)
    9abb:	48 8d 85 80 e5 ff ff 	lea    -0x1a80(%rbp),%rax
    9ac2:	48 83 c0 10          	add    $0x10,%rax
    9ac6:	48 89 85 40 f2 ff ff 	mov    %rax,-0xdc0(%rbp)
    9acd:	48 8d 85 80 e5 ff ff 	lea    -0x1a80(%rbp),%rax
    9ad4:	48 83 c0 10          	add    $0x10,%rax
    9ad8:	48 89 85 48 f2 ff ff 	mov    %rax,-0xdb8(%rbp)
    9adf:	48 8d 85 80 e5 ff ff 	lea    -0x1a80(%rbp),%rax
    9ae6:	48 83 c0 10          	add    $0x10,%rax
    9aea:	48 89 85 50 f2 ff ff 	mov    %rax,-0xdb0(%rbp)
    9af1:	48 8d 85 80 e5 ff ff 	lea    -0x1a80(%rbp),%rax
    9af8:	48 83 c0 10          	add    $0x10,%rax
    9afc:	48 89 85 58 f2 ff ff 	mov    %rax,-0xda8(%rbp)
    9b03:	48 c7 85 60 f2 ff ff 	movq   $0x0,-0xda0(%rbp)
    9b0a:	00 00 00 00 
    9b0e:	48 c7 85 68 f2 ff ff 	movq   $0x0,-0xd98(%rbp)
    9b15:	00 00 00 00 
    9b19:	48 c7 85 70 f2 ff ff 	movq   $0x0,-0xd90(%rbp)
    9b20:	00 00 00 00 
    9b24:	48 8d 85 80 e5 ff ff 	lea    -0x1a80(%rbp),%rax
    9b2b:	48 83 c0 10          	add    $0x10,%rax
    9b2f:	48 89 85 78 f2 ff ff 	mov    %rax,-0xd88(%rbp)
    9b36:	48 8d 85 80 e5 ff ff 	lea    -0x1a80(%rbp),%rax
    9b3d:	48 83 c0 10          	add    $0x10,%rax
    9b41:	48 89 85 80 f2 ff ff 	mov    %rax,-0xd80(%rbp)
    9b48:	48 8d 85 80 e5 ff ff 	lea    -0x1a80(%rbp),%rax
    9b4f:	48 83 c0 10          	add    $0x10,%rax
    9b53:	48 89 85 88 f2 ff ff 	mov    %rax,-0xd78(%rbp)
    9b5a:	48 8d 85 80 e5 ff ff 	lea    -0x1a80(%rbp),%rax
    9b61:	48 83 c0 10          	add    $0x10,%rax
    9b65:	48 89 85 90 f2 ff ff 	mov    %rax,-0xd70(%rbp)
    9b6c:	48 8d 85 80 e5 ff ff 	lea    -0x1a80(%rbp),%rax
    9b73:	48 83 c0 10          	add    $0x10,%rax
    9b77:	48 89 85 98 f2 ff ff 	mov    %rax,-0xd68(%rbp)
    9b7e:	48 8d 85 80 e5 ff ff 	lea    -0x1a80(%rbp),%rax
    9b85:	48 83 c0 10          	add    $0x10,%rax
    9b89:	48 89 85 a0 f2 ff ff 	mov    %rax,-0xd60(%rbp)
    9b90:	48 8d 85 80 e5 ff ff 	lea    -0x1a80(%rbp),%rax
    9b97:	48 83 c0 10          	add    $0x10,%rax
    9b9b:	48 89 85 a8 f2 ff ff 	mov    %rax,-0xd58(%rbp)
    9ba2:	48 c7 85 b0 f2 ff ff 	movq   $0x0,-0xd50(%rbp)
    9ba9:	00 00 00 00 
    9bad:	48 c7 85 b8 f2 ff ff 	movq   $0x0,-0xd48(%rbp)
    9bb4:	00 00 00 00 
    9bb8:	48 c7 85 c0 f2 ff ff 	movq   $0x0,-0xd40(%rbp)
    9bbf:	00 00 00 00 
    9bc3:	48 8d 85 80 e5 ff ff 	lea    -0x1a80(%rbp),%rax
    9bca:	48 83 c0 10          	add    $0x10,%rax
    9bce:	48 89 85 c8 f2 ff ff 	mov    %rax,-0xd38(%rbp)
    9bd5:	48 8d 85 80 e5 ff ff 	lea    -0x1a80(%rbp),%rax
    9bdc:	48 83 c0 10          	add    $0x10,%rax
    9be0:	48 89 85 d0 f2 ff ff 	mov    %rax,-0xd30(%rbp)
    9be7:	48 8d 85 80 e5 ff ff 	lea    -0x1a80(%rbp),%rax
    9bee:	48 83 c0 10          	add    $0x10,%rax
    9bf2:	48 89 85 d8 f2 ff ff 	mov    %rax,-0xd28(%rbp)
    9bf9:	48 8d 85 80 e5 ff ff 	lea    -0x1a80(%rbp),%rax
    9c00:	48 83 c0 10          	add    $0x10,%rax
    9c04:	48 89 85 e0 f2 ff ff 	mov    %rax,-0xd20(%rbp)
    9c0b:	48 8d 85 80 e5 ff ff 	lea    -0x1a80(%rbp),%rax
    9c12:	48 83 c0 10          	add    $0x10,%rax
    9c16:	48 89 85 e8 f2 ff ff 	mov    %rax,-0xd18(%rbp)
    9c1d:	48 8d 85 80 e5 ff ff 	lea    -0x1a80(%rbp),%rax
    9c24:	48 83 c0 10          	add    $0x10,%rax
    9c28:	48 89 85 f0 f2 ff ff 	mov    %rax,-0xd10(%rbp)
    9c2f:	48 8d 85 80 e5 ff ff 	lea    -0x1a80(%rbp),%rax
    9c36:	48 83 c0 10          	add    $0x10,%rax
    9c3a:	48 89 85 f8 f2 ff ff 	mov    %rax,-0xd08(%rbp)
    9c41:	48 c7 85 00 f3 ff ff 	movq   $0x0,-0xd00(%rbp)
    9c48:	00 00 00 00 
    9c4c:	48 c7 85 08 f3 ff ff 	movq   $0x0,-0xcf8(%rbp)
    9c53:	00 00 00 00 
    9c57:	48 c7 85 10 f3 ff ff 	movq   $0x0,-0xcf0(%rbp)
    9c5e:	00 00 00 00 
    9c62:	48 8d 85 80 e5 ff ff 	lea    -0x1a80(%rbp),%rax
    9c69:	48 83 c0 10          	add    $0x10,%rax
    9c6d:	48 89 85 18 f3 ff ff 	mov    %rax,-0xce8(%rbp)
    9c74:	48 8d 85 80 e5 ff ff 	lea    -0x1a80(%rbp),%rax
    9c7b:	48 83 c0 10          	add    $0x10,%rax
    9c7f:	48 89 85 20 f3 ff ff 	mov    %rax,-0xce0(%rbp)
    9c86:	48 8d 85 80 e5 ff ff 	lea    -0x1a80(%rbp),%rax
    9c8d:	48 83 c0 10          	add    $0x10,%rax
    9c91:	48 89 85 28 f3 ff ff 	mov    %rax,-0xcd8(%rbp)
    9c98:	48 8d 85 80 e5 ff ff 	lea    -0x1a80(%rbp),%rax
    9c9f:	48 83 c0 10          	add    $0x10,%rax
    9ca3:	48 89 85 30 f3 ff ff 	mov    %rax,-0xcd0(%rbp)
    9caa:	48 8d 85 80 e5 ff ff 	lea    -0x1a80(%rbp),%rax
    9cb1:	48 83 c0 10          	add    $0x10,%rax
    9cb5:	48 89 85 38 f3 ff ff 	mov    %rax,-0xcc8(%rbp)
    9cbc:	48 8d 85 80 e5 ff ff 	lea    -0x1a80(%rbp),%rax
    9cc3:	48 83 c0 10          	add    $0x10,%rax
    9cc7:	48 89 85 40 f3 ff ff 	mov    %rax,-0xcc0(%rbp)
    9cce:	48 8d 85 80 e5 ff ff 	lea    -0x1a80(%rbp),%rax
    9cd5:	48 83 c0 10          	add    $0x10,%rax
    9cd9:	48 89 85 48 f3 ff ff 	mov    %rax,-0xcb8(%rbp)
    9ce0:	48 c7 85 50 f3 ff ff 	movq   $0x0,-0xcb0(%rbp)
    9ce7:	00 00 00 00 
    9ceb:	48 c7 85 58 f3 ff ff 	movq   $0x0,-0xca8(%rbp)
    9cf2:	00 00 00 00 
    9cf6:	48 c7 85 60 f3 ff ff 	movq   $0x0,-0xca0(%rbp)
    9cfd:	00 00 00 00 
    9d01:	48 8d 85 80 e5 ff ff 	lea    -0x1a80(%rbp),%rax
    9d08:	48 83 c0 10          	add    $0x10,%rax
    9d0c:	48 89 85 68 f3 ff ff 	mov    %rax,-0xc98(%rbp)
    9d13:	48 8d 85 80 e5 ff ff 	lea    -0x1a80(%rbp),%rax
    9d1a:	48 83 c0 10          	add    $0x10,%rax
    9d1e:	48 89 85 70 f3 ff ff 	mov    %rax,-0xc90(%rbp)
    9d25:	48 8d 85 80 e5 ff ff 	lea    -0x1a80(%rbp),%rax
    9d2c:	48 83 c0 10          	add    $0x10,%rax
    9d30:	48 89 85 78 f3 ff ff 	mov    %rax,-0xc88(%rbp)
    9d37:	48 8d 85 80 e5 ff ff 	lea    -0x1a80(%rbp),%rax
    9d3e:	48 83 c0 10          	add    $0x10,%rax
    9d42:	48 89 85 80 f3 ff ff 	mov    %rax,-0xc80(%rbp)
    9d49:	48 8d 85 80 e5 ff ff 	lea    -0x1a80(%rbp),%rax
    9d50:	48 83 c0 10          	add    $0x10,%rax
    9d54:	48 89 85 88 f3 ff ff 	mov    %rax,-0xc78(%rbp)
    9d5b:	48 8d 85 80 e5 ff ff 	lea    -0x1a80(%rbp),%rax
    9d62:	48 83 c0 10          	add    $0x10,%rax
    9d66:	48 89 85 90 f3 ff ff 	mov    %rax,-0xc70(%rbp)
    9d6d:	48 8d 85 80 e5 ff ff 	lea    -0x1a80(%rbp),%rax
    9d74:	48 83 c0 10          	add    $0x10,%rax
    9d78:	48 89 85 98 f3 ff ff 	mov    %rax,-0xc68(%rbp)
    9d7f:	48 c7 85 a0 f3 ff ff 	movq   $0x0,-0xc60(%rbp)
    9d86:	00 00 00 00 
    9d8a:	48 c7 85 a8 f3 ff ff 	movq   $0x0,-0xc58(%rbp)
    9d91:	00 00 00 00 
    9d95:	48 c7 85 b0 f3 ff ff 	movq   $0x0,-0xc50(%rbp)
    9d9c:	00 00 00 00 
    9da0:	48 8d 85 80 e5 ff ff 	lea    -0x1a80(%rbp),%rax
    9da7:	48 83 c0 10          	add    $0x10,%rax
    9dab:	48 89 85 b8 f3 ff ff 	mov    %rax,-0xc48(%rbp)
    9db2:	48 8d 85 80 e5 ff ff 	lea    -0x1a80(%rbp),%rax
    9db9:	48 83 c0 10          	add    $0x10,%rax
    9dbd:	48 89 85 c0 f3 ff ff 	mov    %rax,-0xc40(%rbp)
    9dc4:	48 8d 85 80 e5 ff ff 	lea    -0x1a80(%rbp),%rax
    9dcb:	48 83 c0 10          	add    $0x10,%rax
    9dcf:	48 89 85 c8 f3 ff ff 	mov    %rax,-0xc38(%rbp)
    9dd6:	48 8d 85 80 e5 ff ff 	lea    -0x1a80(%rbp),%rax
    9ddd:	48 83 c0 10          	add    $0x10,%rax
    9de1:	48 89 85 d0 f3 ff ff 	mov    %rax,-0xc30(%rbp)
    9de8:	48 8d 85 80 e5 ff ff 	lea    -0x1a80(%rbp),%rax
    9def:	48 83 c0 10          	add    $0x10,%rax
    9df3:	48 89 85 d8 f3 ff ff 	mov    %rax,-0xc28(%rbp)
    9dfa:	48 8d 85 80 e5 ff ff 	lea    -0x1a80(%rbp),%rax
    9e01:	48 83 c0 10          	add    $0x10,%rax
    9e05:	48 89 85 e0 f3 ff ff 	mov    %rax,-0xc20(%rbp)
    9e0c:	48 8d 85 80 e5 ff ff 	lea    -0x1a80(%rbp),%rax
    9e13:	48 83 c0 10          	add    $0x10,%rax
    9e17:	48 89 85 e8 f3 ff ff 	mov    %rax,-0xc18(%rbp)
    9e1e:	48 c7 85 f0 f3 ff ff 	movq   $0x0,-0xc10(%rbp)
    9e25:	00 00 00 00 
    9e29:	48 c7 85 f8 f3 ff ff 	movq   $0x0,-0xc08(%rbp)
    9e30:	00 00 00 00 
    9e34:	48 c7 85 00 f4 ff ff 	movq   $0x0,-0xc00(%rbp)
    9e3b:	00 00 00 00 
    9e3f:	48 8d 85 80 e5 ff ff 	lea    -0x1a80(%rbp),%rax
    9e46:	48 83 c0 10          	add    $0x10,%rax
    9e4a:	48 89 85 08 f4 ff ff 	mov    %rax,-0xbf8(%rbp)
    9e51:	48 8d 85 80 e5 ff ff 	lea    -0x1a80(%rbp),%rax
    9e58:	48 83 c0 10          	add    $0x10,%rax
    9e5c:	48 89 85 10 f4 ff ff 	mov    %rax,-0xbf0(%rbp)
    9e63:	48 8d 85 80 e5 ff ff 	lea    -0x1a80(%rbp),%rax
    9e6a:	48 83 c0 10          	add    $0x10,%rax
    9e6e:	48 89 85 18 f4 ff ff 	mov    %rax,-0xbe8(%rbp)
    9e75:	48 8d 85 a0 f1 ff ff 	lea    -0xe60(%rbp),%rax
    9e7c:	48 05 78 02 00 00    	add    $0x278,%rax
    9e82:	48 89 85 b0 e1 ff ff 	mov    %rax,-0x1e50(%rbp)
    9e89:	48 8d 05 d0 d1 00 00 	lea    0xd1d0(%rip),%rax        # 17060 <g_449>
    9e90:	48 89 85 b8 e1 ff ff 	mov    %rax,-0x1e48(%rbp)
    9e97:	48 8d 05 1e ba 00 00 	lea    0xba1e(%rip),%rax        # 158bc <g_922>
    9e9e:	48 89 85 c0 e1 ff ff 	mov    %rax,-0x1e40(%rbp)
    9ea5:	48 c7 85 60 eb ff ff 	movq   $0x0,-0x14a0(%rbp)
    9eac:	00 00 00 00 
    9eb0:	48 c7 85 68 eb ff ff 	movq   $0x0,-0x1498(%rbp)
    9eb7:	00 00 00 00 
    9ebb:	48 8d 85 c0 e0 ff ff 	lea    -0x1f40(%rbp),%rax
    9ec2:	48 89 85 70 eb ff ff 	mov    %rax,-0x1490(%rbp)
    9ec9:	48 c7 85 78 eb ff ff 	movq   $0x0,-0x1488(%rbp)
    9ed0:	00 00 00 00 
    9ed4:	48 8d 85 c0 e0 ff ff 	lea    -0x1f40(%rbp),%rax
    9edb:	48 89 85 80 eb ff ff 	mov    %rax,-0x1480(%rbp)
    9ee2:	48 8d 85 c0 e0 ff ff 	lea    -0x1f40(%rbp),%rax
    9ee9:	48 89 85 88 eb ff ff 	mov    %rax,-0x1478(%rbp)
    9ef0:	48 8d 85 c0 e0 ff ff 	lea    -0x1f40(%rbp),%rax
    9ef7:	48 89 85 90 eb ff ff 	mov    %rax,-0x1470(%rbp)
    9efe:	48 c7 85 98 eb ff ff 	movq   $0x0,-0x1468(%rbp)
    9f05:	00 00 00 00 
    9f09:	48 8d 85 c0 e0 ff ff 	lea    -0x1f40(%rbp),%rax
    9f10:	48 89 85 a0 eb ff ff 	mov    %rax,-0x1460(%rbp)
    9f17:	48 c7 85 a8 eb ff ff 	movq   $0x0,-0x1458(%rbp)
    9f1e:	00 00 00 00 
    9f22:	48 c7 85 b0 eb ff ff 	movq   $0x0,-0x1450(%rbp)
    9f29:	00 00 00 00 
    9f2d:	48 c7 85 b8 eb ff ff 	movq   $0x0,-0x1448(%rbp)
    9f34:	00 00 00 00 
    9f38:	48 8d 85 c0 e0 ff ff 	lea    -0x1f40(%rbp),%rax
    9f3f:	48 89 85 c0 eb ff ff 	mov    %rax,-0x1440(%rbp)
    9f46:	48 c7 85 c8 eb ff ff 	movq   $0x0,-0x1438(%rbp)
    9f4d:	00 00 00 00 
    9f51:	48 8d 85 c0 e0 ff ff 	lea    -0x1f40(%rbp),%rax
    9f58:	48 89 85 d0 eb ff ff 	mov    %rax,-0x1430(%rbp)
    9f5f:	48 8d 85 c0 e0 ff ff 	lea    -0x1f40(%rbp),%rax
    9f66:	48 89 85 d8 eb ff ff 	mov    %rax,-0x1428(%rbp)
    9f6d:	48 8d 85 c0 e0 ff ff 	lea    -0x1f40(%rbp),%rax
    9f74:	48 89 85 e0 eb ff ff 	mov    %rax,-0x1420(%rbp)
    9f7b:	48 c7 85 e8 eb ff ff 	movq   $0x0,-0x1418(%rbp)
    9f82:	00 00 00 00 
    9f86:	48 8d 85 c0 e0 ff ff 	lea    -0x1f40(%rbp),%rax
    9f8d:	48 89 85 f0 eb ff ff 	mov    %rax,-0x1410(%rbp)
    9f94:	48 c7 85 f8 eb ff ff 	movq   $0x0,-0x1408(%rbp)
    9f9b:	00 00 00 00 
    9f9f:	48 8d 85 60 eb ff ff 	lea    -0x14a0(%rbp),%rax
    9fa6:	48 83 c0 08          	add    $0x8,%rax
    9faa:	48 89 85 30 f8 ff ff 	mov    %rax,-0x7d0(%rbp)
    9fb1:	48 8d 85 60 eb ff ff 	lea    -0x14a0(%rbp),%rax
    9fb8:	48 83 c0 08          	add    $0x8,%rax
    9fbc:	48 89 85 38 f8 ff ff 	mov    %rax,-0x7c8(%rbp)
    9fc3:	48 8d 85 60 eb ff ff 	lea    -0x14a0(%rbp),%rax
    9fca:	48 83 c0 08          	add    $0x8,%rax
    9fce:	48 89 85 40 f8 ff ff 	mov    %rax,-0x7c0(%rbp)
    9fd5:	48 c7 85 48 f8 ff ff 	movq   $0x0,-0x7b8(%rbp)
    9fdc:	00 00 00 00 
    9fe0:	48 8d 85 60 eb ff ff 	lea    -0x14a0(%rbp),%rax
    9fe7:	48 83 c0 20          	add    $0x20,%rax
    9feb:	48 89 85 50 f8 ff ff 	mov    %rax,-0x7b0(%rbp)
    9ff2:	48 8d 85 60 eb ff ff 	lea    -0x14a0(%rbp),%rax
    9ff9:	48 83 c0 08          	add    $0x8,%rax
    9ffd:	48 89 85 58 f8 ff ff 	mov    %rax,-0x7a8(%rbp)
    a004:	48 c7 85 60 f8 ff ff 	movq   $0x0,-0x7a0(%rbp)
    a00b:	00 00 00 00 
    a00f:	48 8d 85 60 eb ff ff 	lea    -0x14a0(%rbp),%rax
    a016:	48 83 c0 08          	add    $0x8,%rax
    a01a:	48 89 85 68 f8 ff ff 	mov    %rax,-0x798(%rbp)
    a021:	48 c7 85 70 f8 ff ff 	movq   $0x0,-0x790(%rbp)
    a028:	00 00 00 00 
    a02c:	48 8d 85 60 eb ff ff 	lea    -0x14a0(%rbp),%rax
    a033:	48 89 85 78 f8 ff ff 	mov    %rax,-0x788(%rbp)
    a03a:	48 8d 85 60 eb ff ff 	lea    -0x14a0(%rbp),%rax
    a041:	48 83 c0 20          	add    $0x20,%rax
    a045:	48 89 85 80 f8 ff ff 	mov    %rax,-0x780(%rbp)
    a04c:	48 8d 85 60 eb ff ff 	lea    -0x14a0(%rbp),%rax
    a053:	48 89 85 88 f8 ff ff 	mov    %rax,-0x778(%rbp)
    a05a:	48 8d 85 60 eb ff ff 	lea    -0x14a0(%rbp),%rax
    a061:	48 83 c0 08          	add    $0x8,%rax
    a065:	48 89 85 90 f8 ff ff 	mov    %rax,-0x770(%rbp)
    a06c:	48 8d 85 60 eb ff ff 	lea    -0x14a0(%rbp),%rax
    a073:	48 83 c0 08          	add    $0x8,%rax
    a077:	48 89 85 98 f8 ff ff 	mov    %rax,-0x768(%rbp)
    a07e:	48 8d 85 60 eb ff ff 	lea    -0x14a0(%rbp),%rax
    a085:	48 83 c0 08          	add    $0x8,%rax
    a089:	48 89 85 a0 f8 ff ff 	mov    %rax,-0x760(%rbp)
    a090:	48 8d 85 60 eb ff ff 	lea    -0x14a0(%rbp),%rax
    a097:	48 89 85 a8 f8 ff ff 	mov    %rax,-0x758(%rbp)
    a09e:	48 8d 85 60 eb ff ff 	lea    -0x14a0(%rbp),%rax
    a0a5:	48 83 c0 68          	add    $0x68,%rax
    a0a9:	48 89 85 b0 f8 ff ff 	mov    %rax,-0x750(%rbp)
    a0b0:	48 8d 85 60 eb ff ff 	lea    -0x14a0(%rbp),%rax
    a0b7:	48 83 c0 08          	add    $0x8,%rax
    a0bb:	48 89 85 b8 f8 ff ff 	mov    %rax,-0x748(%rbp)
    a0c2:	48 8d 85 60 eb ff ff 	lea    -0x14a0(%rbp),%rax
    a0c9:	48 83 c0 08          	add    $0x8,%rax
    a0cd:	48 89 85 c0 f8 ff ff 	mov    %rax,-0x740(%rbp)
    a0d4:	48 8d 85 60 eb ff ff 	lea    -0x14a0(%rbp),%rax
    a0db:	48 83 c0 08          	add    $0x8,%rax
    a0df:	48 89 85 c8 f8 ff ff 	mov    %rax,-0x738(%rbp)
    a0e6:	48 c7 85 d0 f8 ff ff 	movq   $0x0,-0x730(%rbp)
    a0ed:	00 00 00 00 
    a0f1:	48 8d 85 60 eb ff ff 	lea    -0x14a0(%rbp),%rax
    a0f8:	48 83 c0 08          	add    $0x8,%rax
    a0fc:	48 89 85 d8 f8 ff ff 	mov    %rax,-0x728(%rbp)
    a103:	48 8d 85 60 eb ff ff 	lea    -0x14a0(%rbp),%rax
    a10a:	48 83 c0 10          	add    $0x10,%rax
    a10e:	48 89 85 e0 f8 ff ff 	mov    %rax,-0x720(%rbp)
    a115:	48 8d 85 60 eb ff ff 	lea    -0x14a0(%rbp),%rax
    a11c:	48 83 c0 08          	add    $0x8,%rax
    a120:	48 89 85 e8 f8 ff ff 	mov    %rax,-0x718(%rbp)
    a127:	48 8d 85 60 eb ff ff 	lea    -0x14a0(%rbp),%rax
    a12e:	48 83 c0 08          	add    $0x8,%rax
    a132:	48 89 85 f0 f8 ff ff 	mov    %rax,-0x710(%rbp)
    a139:	48 8d 85 60 eb ff ff 	lea    -0x14a0(%rbp),%rax
    a140:	48 83 c0 08          	add    $0x8,%rax
    a144:	48 89 85 f8 f8 ff ff 	mov    %rax,-0x708(%rbp)
    a14b:	48 8d 85 60 eb ff ff 	lea    -0x14a0(%rbp),%rax
    a152:	48 83 c0 08          	add    $0x8,%rax
    a156:	48 89 85 00 f9 ff ff 	mov    %rax,-0x700(%rbp)
    a15d:	48 8d 85 60 eb ff ff 	lea    -0x14a0(%rbp),%rax
    a164:	48 89 85 08 f9 ff ff 	mov    %rax,-0x6f8(%rbp)
    a16b:	48 8d 85 60 eb ff ff 	lea    -0x14a0(%rbp),%rax
    a172:	48 83 c0 08          	add    $0x8,%rax
    a176:	48 89 85 10 f9 ff ff 	mov    %rax,-0x6f0(%rbp)
    a17d:	48 8d 85 60 eb ff ff 	lea    -0x14a0(%rbp),%rax
    a184:	48 83 c0 28          	add    $0x28,%rax
    a188:	48 89 85 18 f9 ff ff 	mov    %rax,-0x6e8(%rbp)
    a18f:	48 8d 85 60 eb ff ff 	lea    -0x14a0(%rbp),%rax
    a196:	48 83 c0 08          	add    $0x8,%rax
    a19a:	48 89 85 20 f9 ff ff 	mov    %rax,-0x6e0(%rbp)
    a1a1:	48 8d 85 60 eb ff ff 	lea    -0x14a0(%rbp),%rax
    a1a8:	48 83 c0 08          	add    $0x8,%rax
    a1ac:	48 89 85 28 f9 ff ff 	mov    %rax,-0x6d8(%rbp)
    a1b3:	48 8d 85 60 eb ff ff 	lea    -0x14a0(%rbp),%rax
    a1ba:	48 83 c0 08          	add    $0x8,%rax
    a1be:	48 89 85 30 f9 ff ff 	mov    %rax,-0x6d0(%rbp)
    a1c5:	48 8d 85 60 eb ff ff 	lea    -0x14a0(%rbp),%rax
    a1cc:	48 89 85 38 f9 ff ff 	mov    %rax,-0x6c8(%rbp)
    a1d3:	48 8d 85 60 eb ff ff 	lea    -0x14a0(%rbp),%rax
    a1da:	48 83 c0 10          	add    $0x10,%rax
    a1de:	48 89 85 40 f9 ff ff 	mov    %rax,-0x6c0(%rbp)
    a1e5:	48 8d 85 60 eb ff ff 	lea    -0x14a0(%rbp),%rax
    a1ec:	48 83 c0 38          	add    $0x38,%rax
    a1f0:	48 89 85 48 f9 ff ff 	mov    %rax,-0x6b8(%rbp)
    a1f7:	48 8d 85 60 eb ff ff 	lea    -0x14a0(%rbp),%rax
    a1fe:	48 83 c0 08          	add    $0x8,%rax
    a202:	48 89 85 50 f9 ff ff 	mov    %rax,-0x6b0(%rbp)
    a209:	48 8d 85 60 eb ff ff 	lea    -0x14a0(%rbp),%rax
    a210:	48 83 c0 08          	add    $0x8,%rax
    a214:	48 89 85 58 f9 ff ff 	mov    %rax,-0x6a8(%rbp)
    a21b:	48 8d 85 60 eb ff ff 	lea    -0x14a0(%rbp),%rax
    a222:	48 83 c0 08          	add    $0x8,%rax
    a226:	48 89 85 60 f9 ff ff 	mov    %rax,-0x6a0(%rbp)
    a22d:	48 8d 85 60 eb ff ff 	lea    -0x14a0(%rbp),%rax
    a234:	48 83 c0 78          	add    $0x78,%rax
    a238:	48 89 85 68 f9 ff ff 	mov    %rax,-0x698(%rbp)
    a23f:	48 8d 85 60 eb ff ff 	lea    -0x14a0(%rbp),%rax
    a246:	48 83 c0 08          	add    $0x8,%rax
    a24a:	48 89 85 70 f9 ff ff 	mov    %rax,-0x690(%rbp)
    a251:	48 8d 85 60 eb ff ff 	lea    -0x14a0(%rbp),%rax
    a258:	48 83 c0 08          	add    $0x8,%rax
    a25c:	48 89 85 78 f9 ff ff 	mov    %rax,-0x688(%rbp)
    a263:	48 8d 85 60 eb ff ff 	lea    -0x14a0(%rbp),%rax
    a26a:	48 83 c0 08          	add    $0x8,%rax
    a26e:	48 89 85 80 f9 ff ff 	mov    %rax,-0x680(%rbp)
    a275:	48 8d 85 60 eb ff ff 	lea    -0x14a0(%rbp),%rax
    a27c:	48 83 c0 08          	add    $0x8,%rax
    a280:	48 89 85 88 f9 ff ff 	mov    %rax,-0x678(%rbp)
    a287:	48 8d 85 60 eb ff ff 	lea    -0x14a0(%rbp),%rax
    a28e:	48 83 c0 08          	add    $0x8,%rax
    a292:	48 89 85 90 f9 ff ff 	mov    %rax,-0x670(%rbp)
    a299:	48 8d 85 60 eb ff ff 	lea    -0x14a0(%rbp),%rax
    a2a0:	48 83 c0 58          	add    $0x58,%rax
    a2a4:	48 89 85 98 f9 ff ff 	mov    %rax,-0x668(%rbp)
    a2ab:	48 8d 85 60 eb ff ff 	lea    -0x14a0(%rbp),%rax
    a2b2:	48 83 c0 50          	add    $0x50,%rax
    a2b6:	48 89 85 a0 f9 ff ff 	mov    %rax,-0x660(%rbp)
    a2bd:	48 8d 85 60 eb ff ff 	lea    -0x14a0(%rbp),%rax
    a2c4:	48 83 c0 38          	add    $0x38,%rax
    a2c8:	48 89 85 a8 f9 ff ff 	mov    %rax,-0x658(%rbp)
    a2cf:	48 8d 85 60 eb ff ff 	lea    -0x14a0(%rbp),%rax
    a2d6:	48 83 c0 08          	add    $0x8,%rax
    a2da:	48 89 85 b0 f9 ff ff 	mov    %rax,-0x650(%rbp)
    a2e1:	48 c7 85 b8 f9 ff ff 	movq   $0x0,-0x648(%rbp)
    a2e8:	00 00 00 00 
    a2ec:	48 8d 85 60 eb ff ff 	lea    -0x14a0(%rbp),%rax
    a2f3:	48 83 c0 08          	add    $0x8,%rax
    a2f7:	48 89 85 c0 f9 ff ff 	mov    %rax,-0x640(%rbp)
    a2fe:	48 c7 85 c8 f9 ff ff 	movq   $0x0,-0x638(%rbp)
    a305:	00 00 00 00 
    a309:	48 8d 85 60 eb ff ff 	lea    -0x14a0(%rbp),%rax
    a310:	48 83 c0 50          	add    $0x50,%rax
    a314:	48 89 85 d0 f9 ff ff 	mov    %rax,-0x630(%rbp)
    a31b:	48 c7 85 d8 f9 ff ff 	movq   $0x0,-0x628(%rbp)
    a322:	00 00 00 00 
    a326:	48 8d 85 60 eb ff ff 	lea    -0x14a0(%rbp),%rax
    a32d:	48 83 c0 08          	add    $0x8,%rax
    a331:	48 89 85 e0 f9 ff ff 	mov    %rax,-0x620(%rbp)
    a338:	48 8d 85 60 eb ff ff 	lea    -0x14a0(%rbp),%rax
    a33f:	48 83 c0 08          	add    $0x8,%rax
    a343:	48 89 85 e8 f9 ff ff 	mov    %rax,-0x618(%rbp)
    a34a:	48 8d 85 60 eb ff ff 	lea    -0x14a0(%rbp),%rax
    a351:	48 83 c0 08          	add    $0x8,%rax
    a355:	48 89 85 f0 f9 ff ff 	mov    %rax,-0x610(%rbp)
    a35c:	48 8d 85 60 eb ff ff 	lea    -0x14a0(%rbp),%rax
    a363:	48 89 85 f8 f9 ff ff 	mov    %rax,-0x608(%rbp)
    a36a:	48 8d 85 60 eb ff ff 	lea    -0x14a0(%rbp),%rax
    a371:	48 83 c0 08          	add    $0x8,%rax
    a375:	48 89 85 00 fa ff ff 	mov    %rax,-0x600(%rbp)
    a37c:	48 8d 85 60 eb ff ff 	lea    -0x14a0(%rbp),%rax
    a383:	48 83 c0 08          	add    $0x8,%rax
    a387:	48 89 85 08 fa ff ff 	mov    %rax,-0x5f8(%rbp)
    a38e:	48 8d 85 60 eb ff ff 	lea    -0x14a0(%rbp),%rax
    a395:	48 83 c0 08          	add    $0x8,%rax
    a399:	48 89 85 10 fa ff ff 	mov    %rax,-0x5f0(%rbp)
    a3a0:	48 8d 85 60 eb ff ff 	lea    -0x14a0(%rbp),%rax
    a3a7:	48 83 c0 08          	add    $0x8,%rax
    a3ab:	48 89 85 18 fa ff ff 	mov    %rax,-0x5e8(%rbp)
    a3b2:	48 8d 85 60 eb ff ff 	lea    -0x14a0(%rbp),%rax
    a3b9:	48 83 c0 08          	add    $0x8,%rax
    a3bd:	48 89 85 20 fa ff ff 	mov    %rax,-0x5e0(%rbp)
    a3c4:	48 8d 85 60 eb ff ff 	lea    -0x14a0(%rbp),%rax
    a3cb:	48 83 c0 28          	add    $0x28,%rax
    a3cf:	48 89 85 28 fa ff ff 	mov    %rax,-0x5d8(%rbp)
    a3d6:	48 8d 85 60 eb ff ff 	lea    -0x14a0(%rbp),%rax
    a3dd:	48 83 c0 68          	add    $0x68,%rax
    a3e1:	48 89 85 30 fa ff ff 	mov    %rax,-0x5d0(%rbp)
    a3e8:	48 c7 85 38 fa ff ff 	movq   $0x0,-0x5c8(%rbp)
    a3ef:	00 00 00 00 
    a3f3:	48 8d 85 60 eb ff ff 	lea    -0x14a0(%rbp),%rax
    a3fa:	48 83 c0 08          	add    $0x8,%rax
    a3fe:	48 89 85 40 fa ff ff 	mov    %rax,-0x5c0(%rbp)
    a405:	48 8d 85 60 eb ff ff 	lea    -0x14a0(%rbp),%rax
    a40c:	48 83 c0 08          	add    $0x8,%rax
    a410:	48 89 85 48 fa ff ff 	mov    %rax,-0x5b8(%rbp)
    a417:	48 8d 85 60 eb ff ff 	lea    -0x14a0(%rbp),%rax
    a41e:	48 83 c0 08          	add    $0x8,%rax
    a422:	48 89 85 50 fa ff ff 	mov    %rax,-0x5b0(%rbp)
    a429:	48 8d 85 60 eb ff ff 	lea    -0x14a0(%rbp),%rax
    a430:	48 89 85 58 fa ff ff 	mov    %rax,-0x5a8(%rbp)
    a437:	48 c7 85 60 fa ff ff 	movq   $0x0,-0x5a0(%rbp)
    a43e:	00 00 00 00 
    a442:	48 8d 85 60 eb ff ff 	lea    -0x14a0(%rbp),%rax
    a449:	48 83 c0 08          	add    $0x8,%rax
    a44d:	48 89 85 68 fa ff ff 	mov    %rax,-0x598(%rbp)
    a454:	48 8d 85 60 eb ff ff 	lea    -0x14a0(%rbp),%rax
    a45b:	48 83 c0 08          	add    $0x8,%rax
    a45f:	48 89 85 70 fa ff ff 	mov    %rax,-0x590(%rbp)
    a466:	48 8d 85 60 eb ff ff 	lea    -0x14a0(%rbp),%rax
    a46d:	48 83 c0 08          	add    $0x8,%rax
    a471:	48 89 85 78 fa ff ff 	mov    %rax,-0x588(%rbp)
    a478:	48 8d 85 60 eb ff ff 	lea    -0x14a0(%rbp),%rax
    a47f:	48 83 c0 08          	add    $0x8,%rax
    a483:	48 89 85 80 fa ff ff 	mov    %rax,-0x580(%rbp)
    a48a:	48 c7 85 88 fa ff ff 	movq   $0x0,-0x578(%rbp)
    a491:	00 00 00 00 
    a495:	48 8d 85 60 eb ff ff 	lea    -0x14a0(%rbp),%rax
    a49c:	48 83 c0 68          	add    $0x68,%rax
    a4a0:	48 89 85 90 fa ff ff 	mov    %rax,-0x570(%rbp)
    a4a7:	48 8d 85 60 eb ff ff 	lea    -0x14a0(%rbp),%rax
    a4ae:	48 83 c0 78          	add    $0x78,%rax
    a4b2:	48 89 85 98 fa ff ff 	mov    %rax,-0x568(%rbp)
    a4b9:	48 8d 85 60 eb ff ff 	lea    -0x14a0(%rbp),%rax
    a4c0:	48 83 c0 08          	add    $0x8,%rax
    a4c4:	48 89 85 a0 fa ff ff 	mov    %rax,-0x560(%rbp)
    a4cb:	48 8d 85 60 eb ff ff 	lea    -0x14a0(%rbp),%rax
    a4d2:	48 83 c0 08          	add    $0x8,%rax
    a4d6:	48 89 85 a8 fa ff ff 	mov    %rax,-0x558(%rbp)
    a4dd:	48 8d 85 60 eb ff ff 	lea    -0x14a0(%rbp),%rax
    a4e4:	48 83 c0 08          	add    $0x8,%rax
    a4e8:	48 89 85 b0 fa ff ff 	mov    %rax,-0x550(%rbp)
    a4ef:	48 8d 85 60 eb ff ff 	lea    -0x14a0(%rbp),%rax
    a4f6:	48 83 c0 58          	add    $0x58,%rax
    a4fa:	48 89 85 b8 fa ff ff 	mov    %rax,-0x548(%rbp)
    a501:	48 8d 85 60 eb ff ff 	lea    -0x14a0(%rbp),%rax
    a508:	48 83 c0 08          	add    $0x8,%rax
    a50c:	48 89 85 c0 fa ff ff 	mov    %rax,-0x540(%rbp)
    a513:	48 8d 85 60 eb ff ff 	lea    -0x14a0(%rbp),%rax
    a51a:	48 83 c0 08          	add    $0x8,%rax
    a51e:	48 89 85 c8 fa ff ff 	mov    %rax,-0x538(%rbp)
    a525:	48 8d 85 60 eb ff ff 	lea    -0x14a0(%rbp),%rax
    a52c:	48 83 c0 08          	add    $0x8,%rax
    a530:	48 89 85 d0 fa ff ff 	mov    %rax,-0x530(%rbp)
    a537:	48 8d 85 60 eb ff ff 	lea    -0x14a0(%rbp),%rax
    a53e:	48 83 c0 08          	add    $0x8,%rax
    a542:	48 89 85 d8 fa ff ff 	mov    %rax,-0x528(%rbp)
    a549:	48 8d 85 60 eb ff ff 	lea    -0x14a0(%rbp),%rax
    a550:	48 83 c0 08          	add    $0x8,%rax
    a554:	48 89 85 e0 fa ff ff 	mov    %rax,-0x520(%rbp)
    a55b:	48 8d 85 60 eb ff ff 	lea    -0x14a0(%rbp),%rax
    a562:	48 83 c0 78          	add    $0x78,%rax
    a566:	48 89 85 e8 fa ff ff 	mov    %rax,-0x518(%rbp)
    a56d:	48 8d 85 60 eb ff ff 	lea    -0x14a0(%rbp),%rax
    a574:	48 83 c0 50          	add    $0x50,%rax
    a578:	48 89 85 f0 fa ff ff 	mov    %rax,-0x510(%rbp)
    a57f:	48 c7 85 f8 fa ff ff 	movq   $0x0,-0x508(%rbp)
    a586:	00 00 00 00 
    a58a:	48 8d 85 60 eb ff ff 	lea    -0x14a0(%rbp),%rax
    a591:	48 83 c0 08          	add    $0x8,%rax
    a595:	48 89 85 00 fb ff ff 	mov    %rax,-0x500(%rbp)
    a59c:	48 8d 85 60 eb ff ff 	lea    -0x14a0(%rbp),%rax
    a5a3:	48 83 c0 08          	add    $0x8,%rax
    a5a7:	48 89 85 08 fb ff ff 	mov    %rax,-0x4f8(%rbp)
    a5ae:	48 8d 85 60 eb ff ff 	lea    -0x14a0(%rbp),%rax
    a5b5:	48 83 c0 08          	add    $0x8,%rax
    a5b9:	48 89 85 10 fb ff ff 	mov    %rax,-0x4f0(%rbp)
    a5c0:	48 8d 85 60 eb ff ff 	lea    -0x14a0(%rbp),%rax
    a5c7:	48 83 c0 08          	add    $0x8,%rax
    a5cb:	48 89 85 18 fb ff ff 	mov    %rax,-0x4e8(%rbp)
    a5d2:	48 8d 85 60 eb ff ff 	lea    -0x14a0(%rbp),%rax
    a5d9:	48 83 c0 50          	add    $0x50,%rax
    a5dd:	48 89 85 20 fb ff ff 	mov    %rax,-0x4e0(%rbp)
    a5e4:	48 8d 85 60 eb ff ff 	lea    -0x14a0(%rbp),%rax
    a5eb:	48 83 c0 08          	add    $0x8,%rax
    a5ef:	48 89 85 28 fb ff ff 	mov    %rax,-0x4d8(%rbp)
    a5f6:	48 8d 85 60 eb ff ff 	lea    -0x14a0(%rbp),%rax
    a5fd:	48 83 c0 08          	add    $0x8,%rax
    a601:	48 89 85 30 fb ff ff 	mov    %rax,-0x4d0(%rbp)
    a608:	48 8d 85 60 eb ff ff 	lea    -0x14a0(%rbp),%rax
    a60f:	48 83 c0 08          	add    $0x8,%rax
    a613:	48 89 85 38 fb ff ff 	mov    %rax,-0x4c8(%rbp)
    a61a:	48 8d 85 60 eb ff ff 	lea    -0x14a0(%rbp),%rax
    a621:	48 83 c0 08          	add    $0x8,%rax
    a625:	48 89 85 40 fb ff ff 	mov    %rax,-0x4c0(%rbp)
    a62c:	48 8d 85 60 eb ff ff 	lea    -0x14a0(%rbp),%rax
    a633:	48 83 c0 08          	add    $0x8,%rax
    a637:	48 89 85 48 fb ff ff 	mov    %rax,-0x4b8(%rbp)
    a63e:	48 8d 85 60 eb ff ff 	lea    -0x14a0(%rbp),%rax
    a645:	48 83 c0 08          	add    $0x8,%rax
    a649:	48 89 85 50 fb ff ff 	mov    %rax,-0x4b0(%rbp)
    a650:	48 c7 85 58 fb ff ff 	movq   $0x0,-0x4a8(%rbp)
    a657:	00 00 00 00 
    a65b:	48 8d 85 60 eb ff ff 	lea    -0x14a0(%rbp),%rax
    a662:	48 83 c0 08          	add    $0x8,%rax
    a666:	48 89 85 60 fb ff ff 	mov    %rax,-0x4a0(%rbp)
    a66d:	48 8d 85 60 eb ff ff 	lea    -0x14a0(%rbp),%rax
    a674:	48 83 c0 08          	add    $0x8,%rax
    a678:	48 89 85 68 fb ff ff 	mov    %rax,-0x498(%rbp)
    a67f:	48 8d 85 60 eb ff ff 	lea    -0x14a0(%rbp),%rax
    a686:	48 83 c0 08          	add    $0x8,%rax
    a68a:	48 89 85 70 fb ff ff 	mov    %rax,-0x490(%rbp)
    a691:	48 8d 85 60 eb ff ff 	lea    -0x14a0(%rbp),%rax
    a698:	48 83 c0 08          	add    $0x8,%rax
    a69c:	48 89 85 78 fb ff ff 	mov    %rax,-0x488(%rbp)
    a6a3:	48 8d 85 60 eb ff ff 	lea    -0x14a0(%rbp),%rax
    a6aa:	48 83 c0 68          	add    $0x68,%rax
    a6ae:	48 89 85 80 fb ff ff 	mov    %rax,-0x480(%rbp)
    a6b5:	48 8d 85 60 eb ff ff 	lea    -0x14a0(%rbp),%rax
    a6bc:	48 83 c0 38          	add    $0x38,%rax
    a6c0:	48 89 85 88 fb ff ff 	mov    %rax,-0x478(%rbp)
    a6c7:	48 8d 85 60 eb ff ff 	lea    -0x14a0(%rbp),%rax
    a6ce:	48 83 c0 08          	add    $0x8,%rax
    a6d2:	48 89 85 90 fb ff ff 	mov    %rax,-0x470(%rbp)
    a6d9:	48 8d 85 60 eb ff ff 	lea    -0x14a0(%rbp),%rax
    a6e0:	48 83 c0 08          	add    $0x8,%rax
    a6e4:	48 89 85 98 fb ff ff 	mov    %rax,-0x468(%rbp)
    a6eb:	48 8d 85 60 eb ff ff 	lea    -0x14a0(%rbp),%rax
    a6f2:	48 83 c0 08          	add    $0x8,%rax
    a6f6:	48 89 85 a0 fb ff ff 	mov    %rax,-0x460(%rbp)
    a6fd:	48 8d 85 60 eb ff ff 	lea    -0x14a0(%rbp),%rax
    a704:	48 83 c0 08          	add    $0x8,%rax
    a708:	48 89 85 a8 fb ff ff 	mov    %rax,-0x458(%rbp)
    a70f:	48 c7 85 b0 fb ff ff 	movq   $0x0,-0x450(%rbp)
    a716:	00 00 00 00 
    a71a:	48 8d 85 60 eb ff ff 	lea    -0x14a0(%rbp),%rax
    a721:	48 83 c0 08          	add    $0x8,%rax
    a725:	48 89 85 b8 fb ff ff 	mov    %rax,-0x448(%rbp)
    a72c:	48 8d 85 60 eb ff ff 	lea    -0x14a0(%rbp),%rax
    a733:	48 83 c0 08          	add    $0x8,%rax
    a737:	48 89 85 c0 fb ff ff 	mov    %rax,-0x440(%rbp)
    a73e:	48 8d 85 60 eb ff ff 	lea    -0x14a0(%rbp),%rax
    a745:	48 83 c0 08          	add    $0x8,%rax
    a749:	48 89 85 c8 fb ff ff 	mov    %rax,-0x438(%rbp)
    a750:	48 8d 85 60 eb ff ff 	lea    -0x14a0(%rbp),%rax
    a757:	48 83 c0 08          	add    $0x8,%rax
    a75b:	48 89 85 d0 fb ff ff 	mov    %rax,-0x430(%rbp)
    a762:	48 8d 85 60 eb ff ff 	lea    -0x14a0(%rbp),%rax
    a769:	48 83 c0 08          	add    $0x8,%rax
    a76d:	48 89 85 d8 fb ff ff 	mov    %rax,-0x428(%rbp)
    a774:	48 8d 85 60 eb ff ff 	lea    -0x14a0(%rbp),%rax
    a77b:	48 83 c0 68          	add    $0x68,%rax
    a77f:	48 89 85 e0 fb ff ff 	mov    %rax,-0x420(%rbp)
    a786:	48 8d 85 60 eb ff ff 	lea    -0x14a0(%rbp),%rax
    a78d:	48 83 c0 58          	add    $0x58,%rax
    a791:	48 89 85 e8 fb ff ff 	mov    %rax,-0x418(%rbp)
    a798:	48 8d 85 60 eb ff ff 	lea    -0x14a0(%rbp),%rax
    a79f:	48 83 c0 08          	add    $0x8,%rax
    a7a3:	48 89 85 f0 fb ff ff 	mov    %rax,-0x410(%rbp)
    a7aa:	48 8d 85 60 eb ff ff 	lea    -0x14a0(%rbp),%rax
    a7b1:	48 83 c0 08          	add    $0x8,%rax
    a7b5:	48 89 85 f8 fb ff ff 	mov    %rax,-0x408(%rbp)
    a7bc:	48 8d 85 60 eb ff ff 	lea    -0x14a0(%rbp),%rax
    a7c3:	48 83 c0 08          	add    $0x8,%rax
    a7c7:	48 89 85 00 fc ff ff 	mov    %rax,-0x400(%rbp)
    a7ce:	48 8d 85 60 eb ff ff 	lea    -0x14a0(%rbp),%rax
    a7d5:	48 83 c0 78          	add    $0x78,%rax
    a7d9:	48 89 85 08 fc ff ff 	mov    %rax,-0x3f8(%rbp)
    a7e0:	48 8d 85 60 eb ff ff 	lea    -0x14a0(%rbp),%rax
    a7e7:	48 83 c0 08          	add    $0x8,%rax
    a7eb:	48 89 85 10 fc ff ff 	mov    %rax,-0x3f0(%rbp)
    a7f2:	48 8d 85 60 eb ff ff 	lea    -0x14a0(%rbp),%rax
    a7f9:	48 83 c0 08          	add    $0x8,%rax
    a7fd:	48 89 85 18 fc ff ff 	mov    %rax,-0x3e8(%rbp)
    a804:	48 8d 85 60 eb ff ff 	lea    -0x14a0(%rbp),%rax
    a80b:	48 83 c0 08          	add    $0x8,%rax
    a80f:	48 89 85 20 fc ff ff 	mov    %rax,-0x3e0(%rbp)
    a816:	48 8d 85 60 eb ff ff 	lea    -0x14a0(%rbp),%rax
    a81d:	48 83 c0 08          	add    $0x8,%rax
    a821:	48 89 85 28 fc ff ff 	mov    %rax,-0x3d8(%rbp)
    a828:	48 8d 85 60 eb ff ff 	lea    -0x14a0(%rbp),%rax
    a82f:	48 83 c0 08          	add    $0x8,%rax
    a833:	48 89 85 30 fc ff ff 	mov    %rax,-0x3d0(%rbp)
    a83a:	48 8d 85 60 eb ff ff 	lea    -0x14a0(%rbp),%rax
    a841:	48 83 c0 58          	add    $0x58,%rax
    a845:	48 89 85 38 fc ff ff 	mov    %rax,-0x3c8(%rbp)
    a84c:	48 8d 85 60 eb ff ff 	lea    -0x14a0(%rbp),%rax
    a853:	48 83 c0 50          	add    $0x50,%rax
    a857:	48 89 85 40 fc ff ff 	mov    %rax,-0x3c0(%rbp)
    a85e:	48 8d 85 60 eb ff ff 	lea    -0x14a0(%rbp),%rax
    a865:	48 83 c0 38          	add    $0x38,%rax
    a869:	48 89 85 48 fc ff ff 	mov    %rax,-0x3b8(%rbp)
    a870:	48 8d 85 60 eb ff ff 	lea    -0x14a0(%rbp),%rax
    a877:	48 83 c0 08          	add    $0x8,%rax
    a87b:	48 89 85 50 fc ff ff 	mov    %rax,-0x3b0(%rbp)
    a882:	48 c7 85 58 fc ff ff 	movq   $0x0,-0x3a8(%rbp)
    a889:	00 00 00 00 
    a88d:	48 8d 85 60 eb ff ff 	lea    -0x14a0(%rbp),%rax
    a894:	48 83 c0 08          	add    $0x8,%rax
    a898:	48 89 85 60 fc ff ff 	mov    %rax,-0x3a0(%rbp)
    a89f:	48 c7 85 68 fc ff ff 	movq   $0x0,-0x398(%rbp)
    a8a6:	00 00 00 00 
    a8aa:	48 8d 85 60 eb ff ff 	lea    -0x14a0(%rbp),%rax
    a8b1:	48 83 c0 50          	add    $0x50,%rax
    a8b5:	48 89 85 70 fc ff ff 	mov    %rax,-0x390(%rbp)
    a8bc:	48 c7 85 78 fc ff ff 	movq   $0x0,-0x388(%rbp)
    a8c3:	00 00 00 00 
    a8c7:	48 8d 85 60 eb ff ff 	lea    -0x14a0(%rbp),%rax
    a8ce:	48 83 c0 08          	add    $0x8,%rax
    a8d2:	48 89 85 80 fc ff ff 	mov    %rax,-0x380(%rbp)
    a8d9:	48 8d 85 60 eb ff ff 	lea    -0x14a0(%rbp),%rax
    a8e0:	48 83 c0 08          	add    $0x8,%rax
    a8e4:	48 89 85 88 fc ff ff 	mov    %rax,-0x378(%rbp)
    a8eb:	48 8d 85 60 eb ff ff 	lea    -0x14a0(%rbp),%rax
    a8f2:	48 83 c0 08          	add    $0x8,%rax
    a8f6:	48 89 85 90 fc ff ff 	mov    %rax,-0x370(%rbp)
    a8fd:	48 8d 85 60 eb ff ff 	lea    -0x14a0(%rbp),%rax
    a904:	48 89 85 98 fc ff ff 	mov    %rax,-0x368(%rbp)
    a90b:	48 8d 85 60 eb ff ff 	lea    -0x14a0(%rbp),%rax
    a912:	48 83 c0 08          	add    $0x8,%rax
    a916:	48 89 85 a0 fc ff ff 	mov    %rax,-0x360(%rbp)
    a91d:	48 8d 85 60 eb ff ff 	lea    -0x14a0(%rbp),%rax
    a924:	48 83 c0 08          	add    $0x8,%rax
    a928:	48 89 85 a8 fc ff ff 	mov    %rax,-0x358(%rbp)
    a92f:	48 8d 85 60 eb ff ff 	lea    -0x14a0(%rbp),%rax
    a936:	48 83 c0 08          	add    $0x8,%rax
    a93a:	48 89 85 b0 fc ff ff 	mov    %rax,-0x350(%rbp)
    a941:	48 8d 85 60 eb ff ff 	lea    -0x14a0(%rbp),%rax
    a948:	48 83 c0 08          	add    $0x8,%rax
    a94c:	48 89 85 b8 fc ff ff 	mov    %rax,-0x348(%rbp)
    a953:	48 8d 85 60 eb ff ff 	lea    -0x14a0(%rbp),%rax
    a95a:	48 83 c0 08          	add    $0x8,%rax
    a95e:	48 89 85 c0 fc ff ff 	mov    %rax,-0x340(%rbp)
    a965:	48 8d 85 60 eb ff ff 	lea    -0x14a0(%rbp),%rax
    a96c:	48 83 c0 28          	add    $0x28,%rax
    a970:	48 89 85 c8 fc ff ff 	mov    %rax,-0x338(%rbp)
    a977:	48 8d 85 60 eb ff ff 	lea    -0x14a0(%rbp),%rax
    a97e:	48 83 c0 68          	add    $0x68,%rax
    a982:	48 89 85 d0 fc ff ff 	mov    %rax,-0x330(%rbp)
    a989:	48 c7 85 d8 fc ff ff 	movq   $0x0,-0x328(%rbp)
    a990:	00 00 00 00 
    a994:	48 8d 85 60 eb ff ff 	lea    -0x14a0(%rbp),%rax
    a99b:	48 83 c0 08          	add    $0x8,%rax
    a99f:	48 89 85 e0 fc ff ff 	mov    %rax,-0x320(%rbp)
    a9a6:	48 8d 85 60 eb ff ff 	lea    -0x14a0(%rbp),%rax
    a9ad:	48 83 c0 08          	add    $0x8,%rax
    a9b1:	48 89 85 e8 fc ff ff 	mov    %rax,-0x318(%rbp)
    a9b8:	48 8d 85 60 eb ff ff 	lea    -0x14a0(%rbp),%rax
    a9bf:	48 83 c0 08          	add    $0x8,%rax
    a9c3:	48 89 85 f0 fc ff ff 	mov    %rax,-0x310(%rbp)
    a9ca:	48 8d 85 60 eb ff ff 	lea    -0x14a0(%rbp),%rax
    a9d1:	48 89 85 f8 fc ff ff 	mov    %rax,-0x308(%rbp)
    a9d8:	48 c7 85 00 fd ff ff 	movq   $0x0,-0x300(%rbp)
    a9df:	00 00 00 00 
    a9e3:	48 8d 85 60 eb ff ff 	lea    -0x14a0(%rbp),%rax
    a9ea:	48 83 c0 08          	add    $0x8,%rax
    a9ee:	48 89 85 08 fd ff ff 	mov    %rax,-0x2f8(%rbp)
    a9f5:	48 8d 85 60 eb ff ff 	lea    -0x14a0(%rbp),%rax
    a9fc:	48 83 c0 08          	add    $0x8,%rax
    aa00:	48 89 85 10 fd ff ff 	mov    %rax,-0x2f0(%rbp)
    aa07:	48 8d 85 60 eb ff ff 	lea    -0x14a0(%rbp),%rax
    aa0e:	48 83 c0 08          	add    $0x8,%rax
    aa12:	48 89 85 18 fd ff ff 	mov    %rax,-0x2e8(%rbp)
    aa19:	48 8d 85 60 eb ff ff 	lea    -0x14a0(%rbp),%rax
    aa20:	48 83 c0 08          	add    $0x8,%rax
    aa24:	48 89 85 20 fd ff ff 	mov    %rax,-0x2e0(%rbp)
    aa2b:	48 c7 85 28 fd ff ff 	movq   $0x0,-0x2d8(%rbp)
    aa32:	00 00 00 00 
    aa36:	48 8d 85 60 eb ff ff 	lea    -0x14a0(%rbp),%rax
    aa3d:	48 83 c0 68          	add    $0x68,%rax
    aa41:	48 89 85 30 fd ff ff 	mov    %rax,-0x2d0(%rbp)
    aa48:	48 8d 85 60 eb ff ff 	lea    -0x14a0(%rbp),%rax
    aa4f:	48 83 c0 78          	add    $0x78,%rax
    aa53:	48 89 85 38 fd ff ff 	mov    %rax,-0x2c8(%rbp)
    aa5a:	48 8d 85 60 eb ff ff 	lea    -0x14a0(%rbp),%rax
    aa61:	48 83 c0 08          	add    $0x8,%rax
    aa65:	48 89 85 40 fd ff ff 	mov    %rax,-0x2c0(%rbp)
    aa6c:	48 8d 85 60 eb ff ff 	lea    -0x14a0(%rbp),%rax
    aa73:	48 83 c0 08          	add    $0x8,%rax
    aa77:	48 89 85 48 fd ff ff 	mov    %rax,-0x2b8(%rbp)
    aa7e:	48 8d 85 60 eb ff ff 	lea    -0x14a0(%rbp),%rax
    aa85:	48 83 c0 08          	add    $0x8,%rax
    aa89:	48 89 85 50 fd ff ff 	mov    %rax,-0x2b0(%rbp)
    aa90:	48 8d 85 60 eb ff ff 	lea    -0x14a0(%rbp),%rax
    aa97:	48 83 c0 58          	add    $0x58,%rax
    aa9b:	48 89 85 58 fd ff ff 	mov    %rax,-0x2a8(%rbp)
    aaa2:	48 8d 85 60 eb ff ff 	lea    -0x14a0(%rbp),%rax
    aaa9:	48 83 c0 08          	add    $0x8,%rax
    aaad:	48 89 85 60 fd ff ff 	mov    %rax,-0x2a0(%rbp)
    aab4:	48 8d 85 60 eb ff ff 	lea    -0x14a0(%rbp),%rax
    aabb:	48 83 c0 08          	add    $0x8,%rax
    aabf:	48 89 85 68 fd ff ff 	mov    %rax,-0x298(%rbp)
    aac6:	48 8d 85 60 eb ff ff 	lea    -0x14a0(%rbp),%rax
    aacd:	48 83 c0 08          	add    $0x8,%rax
    aad1:	48 89 85 70 fd ff ff 	mov    %rax,-0x290(%rbp)
    aad8:	48 8d 85 60 eb ff ff 	lea    -0x14a0(%rbp),%rax
    aadf:	48 83 c0 08          	add    $0x8,%rax
    aae3:	48 89 85 78 fd ff ff 	mov    %rax,-0x288(%rbp)
    aaea:	48 8d 85 60 eb ff ff 	lea    -0x14a0(%rbp),%rax
    aaf1:	48 83 c0 08          	add    $0x8,%rax
    aaf5:	48 89 85 80 fd ff ff 	mov    %rax,-0x280(%rbp)
    aafc:	48 8d 85 60 eb ff ff 	lea    -0x14a0(%rbp),%rax
    ab03:	48 83 c0 78          	add    $0x78,%rax
    ab07:	48 89 85 88 fd ff ff 	mov    %rax,-0x278(%rbp)
    ab0e:	48 8d 85 60 eb ff ff 	lea    -0x14a0(%rbp),%rax
    ab15:	48 83 c0 50          	add    $0x50,%rax
    ab19:	48 89 85 90 fd ff ff 	mov    %rax,-0x270(%rbp)
    ab20:	48 c7 85 98 fd ff ff 	movq   $0x0,-0x268(%rbp)
    ab27:	00 00 00 00 
    ab2b:	48 8d 85 60 eb ff ff 	lea    -0x14a0(%rbp),%rax
    ab32:	48 83 c0 08          	add    $0x8,%rax
    ab36:	48 89 85 a0 fd ff ff 	mov    %rax,-0x260(%rbp)
    ab3d:	48 8d 85 60 eb ff ff 	lea    -0x14a0(%rbp),%rax
    ab44:	48 83 c0 08          	add    $0x8,%rax
    ab48:	48 89 85 a8 fd ff ff 	mov    %rax,-0x258(%rbp)
    ab4f:	48 8d 85 60 eb ff ff 	lea    -0x14a0(%rbp),%rax
    ab56:	48 83 c0 08          	add    $0x8,%rax
    ab5a:	48 89 85 b0 fd ff ff 	mov    %rax,-0x250(%rbp)
    ab61:	48 8d 85 60 eb ff ff 	lea    -0x14a0(%rbp),%rax
    ab68:	48 83 c0 08          	add    $0x8,%rax
    ab6c:	48 89 85 b8 fd ff ff 	mov    %rax,-0x248(%rbp)
    ab73:	48 8d 85 60 eb ff ff 	lea    -0x14a0(%rbp),%rax
    ab7a:	48 83 c0 50          	add    $0x50,%rax
    ab7e:	48 89 85 c0 fd ff ff 	mov    %rax,-0x240(%rbp)
    ab85:	48 8d 85 60 eb ff ff 	lea    -0x14a0(%rbp),%rax
    ab8c:	48 83 c0 08          	add    $0x8,%rax
    ab90:	48 89 85 c8 fd ff ff 	mov    %rax,-0x238(%rbp)
    ab97:	48 8d 85 60 eb ff ff 	lea    -0x14a0(%rbp),%rax
    ab9e:	48 83 c0 08          	add    $0x8,%rax
    aba2:	48 89 85 d0 fd ff ff 	mov    %rax,-0x230(%rbp)
    aba9:	48 8d 85 60 eb ff ff 	lea    -0x14a0(%rbp),%rax
    abb0:	48 83 c0 08          	add    $0x8,%rax
    abb4:	48 89 85 d8 fd ff ff 	mov    %rax,-0x228(%rbp)
    abbb:	48 8d 85 60 eb ff ff 	lea    -0x14a0(%rbp),%rax
    abc2:	48 83 c0 08          	add    $0x8,%rax
    abc6:	48 89 85 e0 fd ff ff 	mov    %rax,-0x220(%rbp)
    abcd:	48 8d 85 60 eb ff ff 	lea    -0x14a0(%rbp),%rax
    abd4:	48 83 c0 08          	add    $0x8,%rax
    abd8:	48 89 85 e8 fd ff ff 	mov    %rax,-0x218(%rbp)
    abdf:	48 8d 85 60 eb ff ff 	lea    -0x14a0(%rbp),%rax
    abe6:	48 83 c0 08          	add    $0x8,%rax
    abea:	48 89 85 f0 fd ff ff 	mov    %rax,-0x210(%rbp)
    abf1:	48 c7 85 f8 fd ff ff 	movq   $0x0,-0x208(%rbp)
    abf8:	00 00 00 00 
    abfc:	48 8d 85 60 eb ff ff 	lea    -0x14a0(%rbp),%rax
    ac03:	48 83 c0 08          	add    $0x8,%rax
    ac07:	48 89 85 00 fe ff ff 	mov    %rax,-0x200(%rbp)
    ac0e:	48 8d 85 60 eb ff ff 	lea    -0x14a0(%rbp),%rax
    ac15:	48 83 c0 08          	add    $0x8,%rax
    ac19:	48 89 85 08 fe ff ff 	mov    %rax,-0x1f8(%rbp)
    ac20:	48 8d 85 60 eb ff ff 	lea    -0x14a0(%rbp),%rax
    ac27:	48 83 c0 08          	add    $0x8,%rax
    ac2b:	48 89 85 10 fe ff ff 	mov    %rax,-0x1f0(%rbp)
    ac32:	48 8d 85 60 eb ff ff 	lea    -0x14a0(%rbp),%rax
    ac39:	48 83 c0 08          	add    $0x8,%rax
    ac3d:	48 89 85 18 fe ff ff 	mov    %rax,-0x1e8(%rbp)
    ac44:	48 8d 85 60 eb ff ff 	lea    -0x14a0(%rbp),%rax
    ac4b:	48 83 c0 68          	add    $0x68,%rax
    ac4f:	48 89 85 20 fe ff ff 	mov    %rax,-0x1e0(%rbp)
    ac56:	48 8d 85 60 eb ff ff 	lea    -0x14a0(%rbp),%rax
    ac5d:	48 83 c0 38          	add    $0x38,%rax
    ac61:	48 89 85 28 fe ff ff 	mov    %rax,-0x1d8(%rbp)
    ac68:	48 8d 85 60 eb ff ff 	lea    -0x14a0(%rbp),%rax
    ac6f:	48 83 c0 08          	add    $0x8,%rax
    ac73:	48 89 85 30 fe ff ff 	mov    %rax,-0x1d0(%rbp)
    ac7a:	48 8d 85 60 eb ff ff 	lea    -0x14a0(%rbp),%rax
    ac81:	48 83 c0 08          	add    $0x8,%rax
    ac85:	48 89 85 38 fe ff ff 	mov    %rax,-0x1c8(%rbp)
    ac8c:	48 8d 85 60 eb ff ff 	lea    -0x14a0(%rbp),%rax
    ac93:	48 83 c0 08          	add    $0x8,%rax
    ac97:	48 89 85 40 fe ff ff 	mov    %rax,-0x1c0(%rbp)
    ac9e:	48 8d 85 60 eb ff ff 	lea    -0x14a0(%rbp),%rax
    aca5:	48 83 c0 08          	add    $0x8,%rax
    aca9:	48 89 85 48 fe ff ff 	mov    %rax,-0x1b8(%rbp)
    acb0:	48 c7 85 50 fe ff ff 	movq   $0x0,-0x1b0(%rbp)
    acb7:	00 00 00 00 
    acbb:	48 8d 85 60 eb ff ff 	lea    -0x14a0(%rbp),%rax
    acc2:	48 83 c0 08          	add    $0x8,%rax
    acc6:	48 89 85 58 fe ff ff 	mov    %rax,-0x1a8(%rbp)
    accd:	48 8d 85 60 eb ff ff 	lea    -0x14a0(%rbp),%rax
    acd4:	48 83 c0 08          	add    $0x8,%rax
    acd8:	48 89 85 60 fe ff ff 	mov    %rax,-0x1a0(%rbp)
    acdf:	48 8d 85 60 eb ff ff 	lea    -0x14a0(%rbp),%rax
    ace6:	48 83 c0 08          	add    $0x8,%rax
    acea:	48 89 85 68 fe ff ff 	mov    %rax,-0x198(%rbp)
    acf1:	48 8d 85 60 eb ff ff 	lea    -0x14a0(%rbp),%rax
    acf8:	48 83 c0 08          	add    $0x8,%rax
    acfc:	48 89 85 70 fe ff ff 	mov    %rax,-0x190(%rbp)
    ad03:	48 8d 85 60 eb ff ff 	lea    -0x14a0(%rbp),%rax
    ad0a:	48 83 c0 08          	add    $0x8,%rax
    ad0e:	48 89 85 78 fe ff ff 	mov    %rax,-0x188(%rbp)
    ad15:	48 8d 85 60 eb ff ff 	lea    -0x14a0(%rbp),%rax
    ad1c:	48 83 c0 68          	add    $0x68,%rax
    ad20:	48 89 85 80 fe ff ff 	mov    %rax,-0x180(%rbp)
    ad27:	48 8d 85 60 eb ff ff 	lea    -0x14a0(%rbp),%rax
    ad2e:	48 83 c0 58          	add    $0x58,%rax
    ad32:	48 89 85 88 fe ff ff 	mov    %rax,-0x178(%rbp)
    ad39:	48 8d 85 60 eb ff ff 	lea    -0x14a0(%rbp),%rax
    ad40:	48 83 c0 08          	add    $0x8,%rax
    ad44:	48 89 85 90 fe ff ff 	mov    %rax,-0x170(%rbp)
    ad4b:	48 8d 85 60 eb ff ff 	lea    -0x14a0(%rbp),%rax
    ad52:	48 83 c0 08          	add    $0x8,%rax
    ad56:	48 89 85 98 fe ff ff 	mov    %rax,-0x168(%rbp)
    ad5d:	48 8d 85 60 eb ff ff 	lea    -0x14a0(%rbp),%rax
    ad64:	48 83 c0 08          	add    $0x8,%rax
    ad68:	48 89 85 a0 fe ff ff 	mov    %rax,-0x160(%rbp)
    ad6f:	48 8d 85 60 eb ff ff 	lea    -0x14a0(%rbp),%rax
    ad76:	48 83 c0 78          	add    $0x78,%rax
    ad7a:	48 89 85 a8 fe ff ff 	mov    %rax,-0x158(%rbp)
    ad81:	48 8d 85 60 eb ff ff 	lea    -0x14a0(%rbp),%rax
    ad88:	48 83 c0 08          	add    $0x8,%rax
    ad8c:	48 89 85 b0 fe ff ff 	mov    %rax,-0x150(%rbp)
    ad93:	48 8d 85 60 eb ff ff 	lea    -0x14a0(%rbp),%rax
    ad9a:	48 83 c0 08          	add    $0x8,%rax
    ad9e:	48 89 85 b8 fe ff ff 	mov    %rax,-0x148(%rbp)
    ada5:	48 8d 85 60 eb ff ff 	lea    -0x14a0(%rbp),%rax
    adac:	48 83 c0 08          	add    $0x8,%rax
    adb0:	48 89 85 c0 fe ff ff 	mov    %rax,-0x140(%rbp)
    adb7:	48 8d 85 60 eb ff ff 	lea    -0x14a0(%rbp),%rax
    adbe:	48 83 c0 08          	add    $0x8,%rax
    adc2:	48 89 85 c8 fe ff ff 	mov    %rax,-0x138(%rbp)
    adc9:	48 8d 85 60 eb ff ff 	lea    -0x14a0(%rbp),%rax
    add0:	48 83 c0 08          	add    $0x8,%rax
    add4:	48 89 85 d0 fe ff ff 	mov    %rax,-0x130(%rbp)
    addb:	48 8d 85 60 eb ff ff 	lea    -0x14a0(%rbp),%rax
    ade2:	48 83 c0 58          	add    $0x58,%rax
    ade6:	48 89 85 d8 fe ff ff 	mov    %rax,-0x128(%rbp)
    aded:	48 8d 85 60 eb ff ff 	lea    -0x14a0(%rbp),%rax
    adf4:	48 83 c0 50          	add    $0x50,%rax
    adf8:	48 89 85 e0 fe ff ff 	mov    %rax,-0x120(%rbp)
    adff:	48 8d 85 60 eb ff ff 	lea    -0x14a0(%rbp),%rax
    ae06:	48 83 c0 38          	add    $0x38,%rax
    ae0a:	48 89 85 e8 fe ff ff 	mov    %rax,-0x118(%rbp)
    ae11:	c7 85 84 e0 ff ff 6a 	movl   $0x24ebb96a,-0x1f7c(%rbp)
    ae18:	b9 eb 24 
    ae1b:	48 c7 85 c8 e1 ff ff 	movq   $0x0,-0x1e38(%rbp)
    ae22:	00 00 00 00 
    ae26:	48 8d 05 23 c2 00 00 	lea    0xc223(%rip),%rax        # 17050 <g_413>
    ae2d:	48 89 85 d0 e1 ff ff 	mov    %rax,-0x1e30(%rbp)
    ae34:	48 8d 05 59 d7 00 00 	lea    0xd759(%rip),%rax        # 18594 <g_760>
    ae3b:	48 89 85 d8 e1 ff ff 	mov    %rax,-0x1e28(%rbp)
    ae42:	c6 85 a2 df ff ff cf 	movb   $0xcf,-0x205e(%rbp)
    ae49:	c6 85 a3 df ff ff 89 	movb   $0x89,-0x205d(%rbp)
    ae50:	c7 85 f0 df ff ff 00 	movl   $0x0,-0x2010(%rbp)
    ae57:	00 00 00 
    ae5a:	eb 6e                	jmp    aeca <func_47+0x1838>
    ae5c:	c7 85 f4 df ff ff 00 	movl   $0x0,-0x200c(%rbp)
    ae63:	00 00 00 
    ae66:	eb 52                	jmp    aeba <func_47+0x1828>
    ae68:	c7 85 f8 df ff ff 00 	movl   $0x0,-0x2008(%rbp)
    ae6f:	00 00 00 
    ae72:	eb 36                	jmp    aeaa <func_47+0x1818>
    ae74:	8b 85 f8 df ff ff    	mov    -0x2008(%rbp),%eax
    ae7a:	48 63 c8             	movslq %eax,%rcx
    ae7d:	8b 85 f4 df ff ff    	mov    -0x200c(%rbp),%eax
    ae83:	48 63 d0             	movslq %eax,%rdx
    ae86:	8b 85 f0 df ff ff    	mov    -0x2010(%rbp),%eax
    ae8c:	48 98                	cltq   
    ae8e:	48 01 ca             	add    %rcx,%rdx
    ae91:	48 01 d0             	add    %rdx,%rax
    ae94:	48 8d 15 b9 71 00 00 	lea    0x71b9(%rip),%rdx        # 12054 <g_917>
    ae9b:	48 89 94 c5 80 e5 ff 	mov    %rdx,-0x1a80(%rbp,%rax,8)
    aea2:	ff 
    aea3:	83 85 f8 df ff ff 01 	addl   $0x1,-0x2008(%rbp)
    aeaa:	83 bd f8 df ff ff 00 	cmpl   $0x0,-0x2008(%rbp)
    aeb1:	7e c1                	jle    ae74 <func_47+0x17e2>
    aeb3:	83 85 f4 df ff ff 01 	addl   $0x1,-0x200c(%rbp)
    aeba:	83 bd f4 df ff ff 00 	cmpl   $0x0,-0x200c(%rbp)
    aec1:	7e a5                	jle    ae68 <func_47+0x17d6>
    aec3:	83 85 f0 df ff ff 01 	addl   $0x1,-0x2010(%rbp)
    aeca:	83 bd f0 df ff ff 02 	cmpl   $0x2,-0x2010(%rbp)
    aed1:	7e 89                	jle    ae5c <func_47+0x17ca>
    aed3:	8b 05 bb d6 00 00    	mov    0xd6bb(%rip),%eax        # 18594 <g_760>
    aed9:	48 98                	cltq   
    aedb:	48 8d 14 85 00 00 00 	lea    0x0(,%rax,4),%rdx
    aee2:	00 
    aee3:	48 8d 05 b6 a9 00 00 	lea    0xa9b6(%rip),%rax        # 158a0 <g_872>
    aeea:	8b 14 02             	mov    (%rdx,%rax,1),%edx
    aeed:	48 8b 85 c0 e0 ff ff 	mov    -0x1f40(%rbp),%rax
    aef4:	89 10                	mov    %edx,(%rax)
    aef6:	8b 05 98 d6 00 00    	mov    0xd698(%rip),%eax        # 18594 <g_760>
    aefc:	83 c0 01             	add    $0x1,%eax
    aeff:	89 05 8f d6 00 00    	mov    %eax,0xd68f(%rip)        # 18594 <g_760>
    af05:	8b 05 89 d6 00 00    	mov    0xd689(%rip),%eax        # 18594 <g_760>
    af0b:	83 f8 06             	cmp    $0x6,%eax
    af0e:	0f 8e 5b ea ff ff    	jle    996f <func_47+0x2dd>
    af14:	c6 05 ad a9 00 00 04 	movb   $0x4,0xa9ad(%rip)        # 158c8 <g_1316>
    af1b:	e9 6e 09 00 00       	jmpq   b88e <func_47+0x21fc>
    af20:	48 8d 85 80 e7 ff ff 	lea    -0x1880(%rbp),%rax
    af27:	48 83 e8 80          	sub    $0xffffffffffffff80,%rax
    af2b:	48 89 85 78 e1 ff ff 	mov    %rax,-0x1e88(%rbp)
    af32:	48 8d 05 2f d6 00 00 	lea    0xd62f(%rip),%rax        # 18568 <g_34>
    af39:	48 89 85 80 e1 ff ff 	mov    %rax,-0x1e80(%rbp)
    af40:	48 8d 85 a4 df ff ff 	lea    -0x205c(%rbp),%rax
    af47:	48 89 85 88 e1 ff ff 	mov    %rax,-0x1e78(%rbp)
    af4e:	48 8d 05 0b a9 00 00 	lea    0xa90b(%rip),%rax        # 15860 <g_670>
    af55:	48 89 85 90 e1 ff ff 	mov    %rax,-0x1e70(%rbp)
    af5c:	c7 85 60 e0 ff ff cb 	movl   $0xc00cbbcb,-0x1fa0(%rbp)
    af63:	bb 0c c0 
    af66:	48 8d 05 eb c0 00 00 	lea    0xc0eb(%rip),%rax        # 17058 <g_450>
    af6d:	48 89 85 98 e1 ff ff 	mov    %rax,-0x1e68(%rbp)
    af74:	c7 85 64 e0 ff ff ff 	movl   $0xffffffff,-0x1f9c(%rbp)
    af7b:	ff ff ff 
    af7e:	c7 85 68 e0 ff ff 04 	movl   $0x4,-0x1f98(%rbp)
    af85:	00 00 00 
    af88:	c7 85 6c e0 ff ff af 	movl   $0x8ef377af,-0x1f94(%rbp)
    af8f:	77 f3 8e 
    af92:	c7 85 fc df ff ff 00 	movl   $0x0,-0x2004(%rbp)
    af99:	00 00 00 
    af9c:	eb 1e                	jmp    afbc <func_47+0x192a>
    af9e:	8b 85 fc df ff ff    	mov    -0x2004(%rbp),%eax
    afa4:	48 98                	cltq   
    afa6:	48 8d 15 db a4 00 00 	lea    0xa4db(%rip),%rdx        # 15488 <g_379>
    afad:	48 89 94 c5 a0 f1 ff 	mov    %rdx,-0xe60(%rbp,%rax,8)
    afb4:	ff 
    afb5:	83 85 fc df ff ff 01 	addl   $0x1,-0x2004(%rbp)
    afbc:	83 bd fc df ff ff 06 	cmpl   $0x6,-0x2004(%rbp)
    afc3:	7e d9                	jle    af9e <func_47+0x190c>
    afc5:	c7 85 fc df ff ff 00 	movl   $0x0,-0x2004(%rbp)
    afcc:	00 00 00 
    afcf:	eb 1a                	jmp    afeb <func_47+0x1959>
    afd1:	8b 85 fc df ff ff    	mov    -0x2004(%rbp),%eax
    afd7:	48 98                	cltq   
    afd9:	c7 84 85 80 e5 ff ff 	movl   $0xfffffff6,-0x1a80(%rbp,%rax,4)
    afe0:	f6 ff ff ff 
    afe4:	83 85 fc df ff ff 01 	addl   $0x1,-0x2004(%rbp)
    afeb:	83 bd fc df ff ff 02 	cmpl   $0x2,-0x2004(%rbp)
    aff2:	7e dd                	jle    afd1 <func_47+0x193f>
    aff4:	8b 85 84 e5 ff ff    	mov    -0x1a7c(%rbp),%eax
    affa:	0f be c0             	movsbl %al,%eax
    affd:	89 85 7c df ff ff    	mov    %eax,-0x2084(%rbp)
    b003:	8b 85 84 e5 ff ff    	mov    -0x1a7c(%rbp),%eax
    b009:	0f bf d8             	movswl %ax,%ebx
    b00c:	8b 85 e4 e1 ff ff    	mov    -0x1e1c(%rbp),%eax
    b012:	89 85 78 df ff ff    	mov    %eax,-0x2088(%rbp)
    b018:	8b 05 2a a4 00 00    	mov    0xa42a(%rip),%eax        # 15448 <g_164>
    b01e:	0f be c0             	movsbl %al,%eax
    b021:	89 85 74 df ff ff    	mov    %eax,-0x208c(%rbp)
    b027:	48 8b 05 4a c0 00 00 	mov    0xc04a(%rip),%rax        # 17078 <g_637>
    b02e:	0f b7 00             	movzwl (%rax),%eax
    b031:	44 0f bf f0          	movswl %ax,%r14d
    b035:	44 0f bf ad ac df ff 	movswl -0x2054(%rbp),%r13d
    b03c:	ff 
    b03d:	0f b7 05 66 a3 00 00 	movzwl 0xa366(%rip),%eax        # 153aa <g_31+0x2a>
    b044:	44 0f b7 e0          	movzwl %ax,%r12d
    b048:	48 8b 05 99 c0 00 00 	mov    0xc099(%rip),%rax        # 170e8 <g_1074>
    b04f:	48 8b 00             	mov    (%rax),%rax
    b052:	48 8b 00             	mov    (%rax),%rax
    b055:	0f b6 00             	movzbl (%rax),%eax
    b058:	44 0f b6 f8          	movzbl %al,%r15d
    b05c:	0f be 8d 9c df ff ff 	movsbl -0x2064(%rbp),%ecx
    b063:	89 8d 70 df ff ff    	mov    %ecx,-0x2090(%rbp)
    b069:	48 83 bd 88 e1 ff ff 	cmpq   $0x0,-0x1e78(%rbp)
    b070:	00 
    b071:	0f 95 c0             	setne  %al
    b074:	0f b6 c0             	movzbl %al,%eax
    b077:	be f2 00 00 00       	mov    $0xf2,%esi
    b07c:	89 c7                	mov    %eax,%edi
    b07e:	e8 10 cb ff ff       	callq  7b93 <safe_mul_func_uint8_t_u_u>
    b083:	0f b6 c0             	movzbl %al,%eax
    b086:	8b b5 70 df ff ff    	mov    -0x2090(%rbp),%esi
    b08c:	89 c7                	mov    %eax,%edi
    b08e:	e8 92 ce ff ff       	callq  7f25 <safe_div_func_uint32_t_u_u>
    b093:	0f be c0             	movsbl %al,%eax
    b096:	44 89 fe             	mov    %r15d,%esi
    b099:	89 c7                	mov    %eax,%edi
    b09b:	e8 cc c2 ff ff       	callq  736c <safe_rshift_func_int8_t_s_u>
    b0a0:	0f b6 05 21 a8 00 00 	movzbl 0xa821(%rip),%eax        # 158c8 <g_1316>
    b0a7:	0f be c0             	movsbl %al,%eax
    b0aa:	83 c0 02             	add    $0x2,%eax
    b0ad:	48 98                	cltq   
    b0af:	48 8d 15 d2 a7 00 00 	lea    0xa7d2(%rip),%rdx        # 15888 <g_825>
    b0b6:	0f b6 04 10          	movzbl (%rax,%rdx,1),%eax
    b0ba:	0f b6 c0             	movzbl %al,%eax
    b0bd:	48 8b 95 d0 e0 ff ff 	mov    -0x1f30(%rbp),%rdx
    b0c4:	09 d0                	or     %edx,%eax
    b0c6:	89 c2                	mov    %eax,%edx
    b0c8:	48 8b 85 80 e1 ff ff 	mov    -0x1e80(%rbp),%rax
    b0cf:	89 10                	mov    %edx,(%rax)
    b0d1:	48 8b 85 80 e1 ff ff 	mov    -0x1e80(%rbp),%rax
    b0d8:	8b 00                	mov    (%rax),%eax
    b0da:	f7 d0                	not    %eax
    b0dc:	c1 e8 1f             	shr    $0x1f,%eax
    b0df:	0f b6 d0             	movzbl %al,%edx
    b0e2:	0f b7 05 f7 a7 00 00 	movzwl 0xa7f7(%rip),%eax        # 158e0 <g_1399+0x10>
    b0e9:	98                   	cwtl   
    b0ea:	39 c2                	cmp    %eax,%edx
    b0ec:	0f 9c c0             	setl   %al
    b0ef:	0f b6 d0             	movzbl %al,%edx
    b0f2:	0f bf 85 aa df ff ff 	movswl -0x2056(%rbp),%eax
    b0f9:	39 c2                	cmp    %eax,%edx
    b0fb:	0f 95 c0             	setne  %al
    b0fe:	0f b6 d0             	movzbl %al,%edx
    b101:	48 8b 85 90 e1 ff ff 	mov    -0x1e70(%rbp),%rax
    b108:	8b 00                	mov    (%rax),%eax
    b10a:	31 c2                	xor    %eax,%edx
    b10c:	48 8b 85 90 e1 ff ff 	mov    -0x1e70(%rbp),%rax
    b113:	89 10                	mov    %edx,(%rax)
    b115:	48 8b 85 90 e1 ff ff 	mov    -0x1e70(%rbp),%rax
    b11c:	8b 00                	mov    (%rax),%eax
    b11e:	44 8b 85 74 df ff ff 	mov    -0x208c(%rbp),%r8d
    b125:	44 89 f1             	mov    %r14d,%ecx
    b128:	44 89 ea             	mov    %r13d,%edx
    b12b:	4c 89 e6             	mov    %r12,%rsi
    b12e:	89 c7                	mov    %eax,%edi
    b130:	e8 2a 40 00 00       	callq  f15f <func_50>
    b135:	48 8b 05 64 bf 00 00 	mov    0xbf64(%rip),%rax        # 170a0 <g_918>
    b13c:	48 8b 00             	mov    (%rax),%rax
    b13f:	0f b6 00             	movzbl (%rax),%eax
    b142:	3c 01                	cmp    $0x1,%al
    b144:	75 0c                	jne    b152 <func_47+0x1ac0>
    b146:	48 8b 85 90 e0 ff ff 	mov    -0x1f70(%rbp),%rax
    b14d:	48 85 c0             	test   %rax,%rax
    b150:	74 07                	je     b159 <func_47+0x1ac7>
    b152:	ba 01 00 00 00       	mov    $0x1,%edx
    b157:	eb 05                	jmp    b15e <func_47+0x1acc>
    b159:	ba 00 00 00 00       	mov    $0x0,%edx
    b15e:	8b 05 e4 a2 00 00    	mov    0xa2e4(%rip),%eax        # 15448 <g_164>
    b164:	39 c2                	cmp    %eax,%edx
    b166:	0f 9d c0             	setge  %al
    b169:	0f b6 c0             	movzbl %al,%eax
    b16c:	21 85 60 e0 ff ff    	and    %eax,-0x1fa0(%rbp)
    b172:	8b b5 60 e0 ff ff    	mov    -0x1fa0(%rbp),%esi
    b178:	0f b6 05 49 a7 00 00 	movzbl 0xa749(%rip),%eax        # 158c8 <g_1316>
    b17f:	0f be c0             	movsbl %al,%eax
    b182:	83 c0 02             	add    $0x2,%eax
    b185:	48 98                	cltq   
    b187:	48 8d 15 fa a6 00 00 	lea    0xa6fa(%rip),%rdx        # 15888 <g_825>
    b18e:	0f b6 14 10          	movzbl (%rax,%rdx,1),%edx
    b192:	48 8b 05 ef be 00 00 	mov    0xbeef(%rip),%rax        # 17088 <g_655>
    b199:	48 8b 00             	mov    (%rax),%rax
    b19c:	88 10                	mov    %dl,(%rax)
    b19e:	0f b6 00             	movzbl (%rax),%eax
    b1a1:	84 c0                	test   %al,%al
    b1a3:	75 10                	jne    b1b5 <func_47+0x1b23>
    b1a5:	48 8b 05 1c bf 00 00 	mov    0xbf1c(%rip),%rax        # 170c8 <g_1046>
    b1ac:	48 8b 00             	mov    (%rax),%rax
    b1af:	48 8b 00             	mov    (%rax),%rax
    b1b2:	c6 00 ff             	movb   $0xff,(%rax)
    b1b5:	b8 01 00 00 00       	mov    $0x1,%eax
    b1ba:	4c 8b 25 e7 be 00 00 	mov    0xbee7(%rip),%r12        # 170a8 <g_963>
    b1c1:	44 8b 85 7c df ff ff 	mov    -0x2084(%rbp),%r8d
    b1c8:	89 d9                	mov    %ebx,%ecx
    b1ca:	8b 95 78 df ff ff    	mov    -0x2088(%rbp),%edx
    b1d0:	89 c7                	mov    %eax,%edi
    b1d2:	e8 88 3f 00 00       	callq  f15f <func_50>
    b1d7:	49 89 04 24          	mov    %rax,(%r12)
    b1db:	48 c7 05 a2 a2 00 00 	movq   $0x0,0xa2a2(%rip)        # 15488 <g_379>
    b1e2:	00 00 00 00 
    b1e6:	e9 82 06 00 00       	jmpq   b86d <func_47+0x21db>
    b1eb:	c7 85 60 eb ff ff 13 	movl   $0x13131313,-0x14a0(%rbp)
    b1f2:	13 13 13 
    b1f5:	c7 85 64 eb ff ff 13 	movl   $0x13131313,-0x149c(%rbp)
    b1fc:	13 13 13 
    b1ff:	c7 85 68 eb ff ff 13 	movl   $0x13131313,-0x1498(%rbp)
    b206:	13 13 13 
    b209:	c7 85 6c eb ff ff 13 	movl   $0x13131313,-0x1494(%rbp)
    b210:	13 13 13 
    b213:	48 8d 05 76 a2 00 00 	lea    0xa276(%rip),%rax        # 15490 <g_389>
    b21a:	48 89 85 c0 e0 ff ff 	mov    %rax,-0x1f40(%rbp)
    b221:	48 8d 85 c0 e0 ff ff 	lea    -0x1f40(%rbp),%rax
    b228:	48 89 85 a0 e1 ff ff 	mov    %rax,-0x1e60(%rbp)
    b22f:	c7 85 70 e0 ff ff fd 	movl   $0x39864dfd,-0x1f90(%rbp)
    b236:	4d 86 39 
    b239:	c7 85 74 e0 ff ff c2 	movl   $0x6cfcc2,-0x1f8c(%rbp)
    b240:	fc 6c 00 
    b243:	c7 85 78 e0 ff ff fb 	movl   $0xfffffffb,-0x1f88(%rbp)
    b24a:	ff ff ff 
    b24d:	48 8b 05 5c be 00 00 	mov    0xbe5c(%rip),%rax        # 170b0 <g_962>
    b254:	48 8b 00             	mov    (%rax),%rax
    b257:	48 8b 00             	mov    (%rax),%rax
    b25a:	8b 00                	mov    (%rax),%eax
    b25c:	85 c0                	test   %eax,%eax
    b25e:	0f 84 a2 01 00 00    	je     b406 <func_47+0x1d74>
    b264:	48 8d 05 f5 a1 00 00 	lea    0xa1f5(%rip),%rax        # 15460 <g_287>
    b26b:	48 89 85 30 f8 ff ff 	mov    %rax,-0x7d0(%rbp)
    b272:	48 8d 05 e7 a1 00 00 	lea    0xa1e7(%rip),%rax        # 15460 <g_287>
    b279:	48 89 85 38 f8 ff ff 	mov    %rax,-0x7c8(%rbp)
    b280:	48 8d 05 d9 a1 00 00 	lea    0xa1d9(%rip),%rax        # 15460 <g_287>
    b287:	48 89 85 40 f8 ff ff 	mov    %rax,-0x7c0(%rbp)
    b28e:	48 8d 05 cb a1 00 00 	lea    0xa1cb(%rip),%rax        # 15460 <g_287>
    b295:	48 89 85 48 f8 ff ff 	mov    %rax,-0x7b8(%rbp)
    b29c:	48 8d 05 bd a1 00 00 	lea    0xa1bd(%rip),%rax        # 15460 <g_287>
    b2a3:	48 89 85 50 f8 ff ff 	mov    %rax,-0x7b0(%rbp)
    b2aa:	48 8d 05 af a1 00 00 	lea    0xa1af(%rip),%rax        # 15460 <g_287>
    b2b1:	48 89 85 58 f8 ff ff 	mov    %rax,-0x7a8(%rbp)
    b2b8:	48 8d 05 a1 a1 00 00 	lea    0xa1a1(%rip),%rax        # 15460 <g_287>
    b2bf:	48 89 85 60 f8 ff ff 	mov    %rax,-0x7a0(%rbp)
    b2c6:	c7 85 80 e0 ff ff ea 	movl   $0x7491b9ea,-0x1f80(%rbp)
    b2cd:	b9 91 74 
    b2d0:	66 c7 85 b6 df ff ff 	movw   $0xff2,-0x204a(%rbp)
    b2d7:	f2 0f 
    b2d9:	48 8b 05 80 bd 00 00 	mov    0xbd80(%rip),%rax        # 17060 <g_449>
    b2e0:	48 8b 00             	mov    (%rax),%rax
    b2e3:	0f b6 00             	movzbl (%rax),%eax
    b2e6:	0f b6 c0             	movzbl %al,%eax
    b2e9:	be 05 00 00 00       	mov    $0x5,%esi
    b2ee:	89 c7                	mov    %eax,%edi
    b2f0:	e8 c9 c9 ff ff       	callq  7cbe <safe_rshift_func_uint8_t_u_u>
    b2f5:	48 8b 05 d4 bd 00 00 	mov    0xbdd4(%rip),%rax        # 170d0 <g_1045>
    b2fc:	48 8b 00             	mov    (%rax),%rax
    b2ff:	48 8b 00             	mov    (%rax),%rax
    b302:	48 8b 00             	mov    (%rax),%rax
    b305:	c6 00 01             	movb   $0x1,(%rax)
    b308:	0f b6 85 63 eb ff ff 	movzbl -0x149d(%rbp),%eax
    b30f:	3c 01                	cmp    $0x1,%al
    b311:	48 8b 85 98 e1 ff ff 	mov    -0x1e68(%rbp),%rax
    b318:	48 89 85 a0 e1 ff ff 	mov    %rax,-0x1e60(%rbp)
    b31f:	48 8b 05 52 bd 00 00 	mov    0xbd52(%rip),%rax        # 17078 <g_637>
    b326:	0f b7 00             	movzwl (%rax),%eax
    b329:	0f bf d8             	movswl %ax,%ebx
    b32c:	48 8b 85 90 e1 ff ff 	mov    -0x1e70(%rbp),%rax
    b333:	8b 00                	mov    (%rax),%eax
    b335:	44 0f b6 e0          	movzbl %al,%r12d
    b339:	0f b6 45 c7          	movzbl -0x39(%rbp),%eax
    b33d:	0f b6 c0             	movzbl %al,%eax
    b340:	48 89 c6             	mov    %rax,%rsi
    b343:	bf 00 00 00 00       	mov    $0x0,%edi
    b348:	e8 e1 cc ff ff       	callq  802e <safe_add_func_uint64_t_u_u>
    b34d:	0f b6 c0             	movzbl %al,%eax
    b350:	44 89 e6             	mov    %r12d,%esi
    b353:	89 c7                	mov    %eax,%edi
    b355:	e8 39 c8 ff ff       	callq  7b93 <safe_mul_func_uint8_t_u_u>
    b35a:	0f b7 85 a4 df ff ff 	movzwl -0x205c(%rbp),%eax
    b361:	0f bf d0             	movswl %ax,%edx
    b364:	0f b6 05 21 a5 00 00 	movzbl 0xa521(%rip),%eax        # 1588c <g_825+0x4>
    b36b:	0f b6 c0             	movzbl %al,%eax
    b36e:	39 c2                	cmp    %eax,%edx
    b370:	0f 9d c0             	setge  %al
    b373:	0f b6 c0             	movzbl %al,%eax
    b376:	89 de                	mov    %ebx,%esi
    b378:	89 c7                	mov    %eax,%edi
    b37a:	e8 13 c1 ff ff       	callq  7492 <safe_lshift_func_int16_t_s_s>
    b37f:	0f b7 c0             	movzwl %ax,%eax
    b382:	be 0d 11 00 00       	mov    $0x110d,%esi
    b387:	89 c7                	mov    %eax,%edi
    b389:	e8 af c9 ff ff       	callq  7d3d <safe_mul_func_uint16_t_u_u>
    b38e:	0f b7 c0             	movzwl %ax,%eax
    b391:	39 85 80 e0 ff ff    	cmp    %eax,-0x1f80(%rbp)
    b397:	0f 9e c0             	setle  %al
    b39a:	0f b6 c0             	movzbl %al,%eax
    b39d:	be 07 00 00 00       	mov    $0x7,%esi
    b3a2:	89 c7                	mov    %eax,%edi
    b3a4:	e8 c3 bf ff ff       	callq  736c <safe_rshift_func_int8_t_s_u>
    b3a9:	0f be d0             	movsbl %al,%edx
    b3ac:	48 8b 05 fd bc 00 00 	mov    0xbcfd(%rip),%rax        # 170b0 <g_962>
    b3b3:	48 8b 00             	mov    (%rax),%rax
    b3b6:	48 8b 00             	mov    (%rax),%rax
    b3b9:	8b 00                	mov    (%rax),%eax
    b3bb:	39 c2                	cmp    %eax,%edx
    b3bd:	0f 95 c0             	setne  %al
    b3c0:	0f b6 d0             	movzbl %al,%edx
    b3c3:	0f b7 85 b6 df ff ff 	movzwl -0x204a(%rbp),%eax
    b3ca:	39 c2                	cmp    %eax,%edx
    b3cc:	48 8b 85 30 f8 ff ff 	mov    -0x7d0(%rbp),%rax
    b3d3:	48 8d 15 56 a3 00 00 	lea    0xa356(%rip),%rdx        # 15730 <g_569+0x190>
    b3da:	48 39 d0             	cmp    %rdx,%rax
    b3dd:	0f 95 c0             	setne  %al
    b3e0:	0f b6 d0             	movzbl %al,%edx
    b3e3:	48 8b 85 80 e1 ff ff 	mov    -0x1e80(%rbp),%rax
    b3ea:	8b 00                	mov    (%rax),%eax
    b3ec:	09 c2                	or     %eax,%edx
    b3ee:	48 8b 85 80 e1 ff ff 	mov    -0x1e80(%rbp),%rax
    b3f5:	89 10                	mov    %edx,(%rax)
    b3f7:	48 8b 05 7a bc 00 00 	mov    0xbc7a(%rip),%rax        # 17078 <g_637>
    b3fe:	0f b7 00             	movzwl (%rax),%eax
    b401:	e9 33 3d 00 00       	jmpq   f139 <func_47+0x5aa7>
    b406:	c6 85 a0 df ff ff f9 	movb   $0xf9,-0x2060(%rbp)
    b40d:	48 c7 85 a8 e1 ff ff 	movq   $0x0,-0x1e58(%rbp)
    b414:	00 00 00 00 
    b418:	0f b6 85 a0 df ff ff 	movzbl -0x2060(%rbp),%eax
    b41f:	83 c0 01             	add    $0x1,%eax
    b422:	88 85 a0 df ff ff    	mov    %al,-0x2060(%rbp)
    b428:	c6 05 61 d1 00 00 00 	movb   $0x0,0xd161(%rip)        # 18590 <g_756>
    b42f:	e9 b2 02 00 00       	jmpq   b6e6 <func_47+0x2054>
    b434:	48 8b 05 4d a0 00 00 	mov    0xa04d(%rip),%rax        # 15488 <g_379>
    b43b:	48 8d 15 46 a4 00 00 	lea    0xa446(%rip),%rdx        # 15888 <g_825>
    b442:	0f b6 04 10          	movzbl (%rax,%rdx,1),%eax
    b446:	84 c0                	test   %al,%al
    b448:	0f 84 a2 00 00 00    	je     b4f0 <func_47+0x1e5e>
    b44e:	0f b6 05 3b d1 00 00 	movzbl 0xd13b(%rip),%eax        # 18590 <g_756>
    b455:	0f b6 c0             	movzbl %al,%eax
    b458:	48 98                	cltq   
    b45a:	8b 94 85 e0 e1 ff ff 	mov    -0x1e20(%rbp,%rax,4),%edx
    b461:	0f b6 05 28 d1 00 00 	movzbl 0xd128(%rip),%eax        # 18590 <g_756>
    b468:	0f b6 c0             	movzbl %al,%eax
    b46b:	89 d1                	mov    %edx,%ecx
    b46d:	81 c9 b0 5f ef 9c    	or     $0x9cef5fb0,%ecx
    b473:	48 63 d0             	movslq %eax,%rdx
    b476:	89 8c 95 e0 e1 ff ff 	mov    %ecx,-0x1e20(%rbp,%rdx,4)
    b47d:	48 98                	cltq   
    b47f:	8b 94 85 e0 e1 ff ff 	mov    -0x1e20(%rbp,%rax,4),%edx
    b486:	48 8b 85 90 e1 ff ff 	mov    -0x1e70(%rbp),%rax
    b48d:	89 10                	mov    %edx,(%rax)
    b48f:	0f b6 05 fa d0 00 00 	movzbl 0xd0fa(%rip),%eax        # 18590 <g_756>
    b496:	0f b6 c8             	movzbl %al,%ecx
    b499:	48 8b 05 10 bc 00 00 	mov    0xbc10(%rip),%rax        # 170b0 <g_962>
    b4a0:	48 8b 00             	mov    (%rax),%rax
    b4a3:	48 8d 95 e0 e1 ff ff 	lea    -0x1e20(%rbp),%rdx
    b4aa:	48 63 c9             	movslq %ecx,%rcx
    b4ad:	48 c1 e1 02          	shl    $0x2,%rcx
    b4b1:	48 01 ca             	add    %rcx,%rdx
    b4b4:	48 89 10             	mov    %rdx,(%rax)
    b4b7:	48 8b 05 b2 d0 00 00 	mov    0xd0b2(%rip),%rax        # 18570 <g_116>
    b4be:	c7 00 ff ff ff ff    	movl   $0xffffffff,(%rax)
    b4c4:	48 8b 85 80 e1 ff ff 	mov    -0x1e80(%rbp),%rax
    b4cb:	8b 10                	mov    (%rax),%edx
    b4cd:	0f b6 05 bc d0 00 00 	movzbl 0xd0bc(%rip),%eax        # 18590 <g_756>
    b4d4:	0f b6 c0             	movzbl %al,%eax
    b4d7:	48 98                	cltq   
    b4d9:	8b 84 85 e0 e1 ff ff 	mov    -0x1e20(%rbp,%rax,4),%eax
    b4e0:	31 c2                	xor    %eax,%edx
    b4e2:	48 8b 85 80 e1 ff ff 	mov    -0x1e80(%rbp),%rax
    b4e9:	89 10                	mov    %edx,(%rax)
    b4eb:	e9 e6 01 00 00       	jmpq   b6d6 <func_47+0x2044>
    b4f0:	c6 85 a1 df ff ff df 	movb   $0xdf,-0x205f(%rbp)
    b4f7:	c7 85 7c e0 ff ff fb 	movl   $0xfffffffb,-0x1f84(%rbp)
    b4fe:	ff ff ff 
    b501:	48 8b 85 80 e1 ff ff 	mov    -0x1e80(%rbp),%rax
    b508:	8b 00                	mov    (%rax),%eax
    b50a:	48 98                	cltq   
    b50c:	48 be 57 a3 ff bb f7 	movabs $0x96007df7bbffa357,%rsi
    b513:	7d 00 96 
    b516:	48 89 c7             	mov    %rax,%rdi
    b519:	e8 8a c3 ff ff       	callq  78a8 <safe_sub_func_int64_t_s_s>
    b51e:	89 c2                	mov    %eax,%edx
    b520:	48 8b 85 90 e1 ff ff 	mov    -0x1e70(%rbp),%rax
    b527:	8b 00                	mov    (%rax),%eax
    b529:	09 c2                	or     %eax,%edx
    b52b:	48 8b 85 90 e1 ff ff 	mov    -0x1e70(%rbp),%rax
    b532:	89 10                	mov    %edx,(%rax)
    b534:	48 8b 05 6d bb 00 00 	mov    0xbb6d(%rip),%rax        # 170a8 <g_963>
    b53b:	48 8b 00             	mov    (%rax),%rax
    b53e:	8b 00                	mov    (%rax),%eax
    b540:	85 c0                	test   %eax,%eax
    b542:	0f 85 8d 01 00 00    	jne    b6d5 <func_47+0x2043>
    b548:	48 8b 85 80 e1 ff ff 	mov    -0x1e80(%rbp),%rax
    b54f:	8b 10                	mov    (%rax),%edx
    b551:	80 bd a1 df ff ff 01 	cmpb   $0x1,-0x205f(%rbp)
    b558:	0f 97 c0             	seta   %al
    b55b:	0f b6 c0             	movzbl %al,%eax
    b55e:	21 c2                	and    %eax,%edx
    b560:	48 8b 85 80 e1 ff ff 	mov    -0x1e80(%rbp),%rax
    b567:	89 10                	mov    %edx,(%rax)
    b569:	0f b6 9d a1 df ff ff 	movzbl -0x205f(%rbp),%ebx
    b570:	8b 85 7c e0 ff ff    	mov    -0x1f84(%rbp),%eax
    b576:	44 0f be e0          	movsbl %al,%r12d
    b57a:	0f b6 85 63 eb ff ff 	movzbl -0x149d(%rbp),%eax
    b581:	44 0f be e8          	movsbl %al,%r13d
    b585:	48 8b 85 90 e1 ff ff 	mov    -0x1e70(%rbp),%rax
    b58c:	8b 00                	mov    (%rax),%eax
    b58e:	41 89 c7             	mov    %eax,%r15d
    b591:	0f b6 05 f2 a2 00 00 	movzbl 0xa2f2(%rip),%eax        # 1588a <g_825+0x2>
    b598:	44 0f b6 f0          	movzbl %al,%r14d
    b59c:	48 8b 05 05 bb 00 00 	mov    0xbb05(%rip),%rax        # 170a8 <g_963>
    b5a3:	48 8b 00             	mov    (%rax),%rax
    b5a6:	8b 00                	mov    (%rax),%eax
    b5a8:	89 c7                	mov    %eax,%edi
    b5aa:	e8 e7 bf ff ff       	callq  7596 <safe_unary_minus_func_int32_t_s>
    b5af:	0f b6 95 63 eb ff ff 	movzbl -0x149d(%rbp),%edx
    b5b6:	0f b6 d2             	movzbl %dl,%edx
    b5b9:	39 d0                	cmp    %edx,%eax
    b5bb:	74 13                	je     b5d0 <func_47+0x1f3e>
    b5bd:	48 8b 05 04 a0 00 00 	mov    0xa004(%rip),%rax        # 155c8 <g_569+0x28>
    b5c4:	48 85 c0             	test   %rax,%rax
    b5c7:	74 07                	je     b5d0 <func_47+0x1f3e>
    b5c9:	b8 01 00 00 00       	mov    $0x1,%eax
    b5ce:	eb 05                	jmp    b5d5 <func_47+0x1f43>
    b5d0:	b8 00 00 00 00       	mov    $0x0,%eax
    b5d5:	48 98                	cltq   
    b5d7:	4c 89 f6             	mov    %r14,%rsi
    b5da:	48 89 c7             	mov    %rax,%rdi
    b5dd:	e8 4c ca ff ff       	callq  802e <safe_add_func_uint64_t_u_u>
    b5e2:	44 89 fe             	mov    %r15d,%esi
    b5e5:	bf 50 9e 00 00       	mov    $0x9e50,%edi
    b5ea:	e8 17 c8 ff ff       	callq  7e06 <safe_lshift_func_uint16_t_u_u>
    b5ef:	48 8b 15 6a ba 00 00 	mov    0xba6a(%rip),%rdx        # 17060 <g_449>
    b5f6:	48 8b 12             	mov    (%rdx),%rdx
    b5f9:	0f b6 12             	movzbl (%rdx),%edx
    b5fc:	0f b6 d2             	movzbl %dl,%edx
    b5ff:	66 39 d0             	cmp    %dx,%ax
    b602:	0f 93 c2             	setae  %dl
    b605:	48 8b 05 bc ba 00 00 	mov    0xbabc(%rip),%rax        # 170c8 <g_1046>
    b60c:	48 8b 00             	mov    (%rax),%rax
    b60f:	48 8b 00             	mov    (%rax),%rax
    b612:	88 10                	mov    %dl,(%rax)
    b614:	0f b6 00             	movzbl (%rax),%eax
    b617:	0f be c0             	movsbl %al,%eax
    b61a:	44 89 ee             	mov    %r13d,%esi
    b61d:	89 c7                	mov    %eax,%edi
    b61f:	e8 b0 bb ff ff       	callq  71d4 <safe_add_func_int8_t_s_s>
    b624:	48 8b 05 85 ba 00 00 	mov    0xba85(%rip),%rax        # 170b0 <g_962>
    b62b:	48 8b 00             	mov    (%rax),%rax
    b62e:	48 8b 00             	mov    (%rax),%rax
    b631:	8b 10                	mov    (%rax),%edx
    b633:	8b 05 fb 9d 00 00    	mov    0x9dfb(%rip),%eax        # 15434 <g_36>
    b639:	21 d0                	and    %edx,%eax
    b63b:	89 05 f3 9d 00 00    	mov    %eax,0x9df3(%rip)        # 15434 <g_36>
    b641:	8b 05 ed 9d 00 00    	mov    0x9ded(%rip),%eax        # 15434 <g_36>
    b647:	89 c2                	mov    %eax,%edx
    b649:	48 8b 05 00 ba 00 00 	mov    0xba00(%rip),%rax        # 17050 <g_413>
    b650:	48 8b 00             	mov    (%rax),%rax
    b653:	8b 00                	mov    (%rax),%eax
    b655:	39 c2                	cmp    %eax,%edx
    b657:	72 10                	jb     b669 <func_47+0x1fd7>
    b659:	80 bd a0 df ff ff 00 	cmpb   $0x0,-0x2060(%rbp)
    b660:	74 07                	je     b669 <func_47+0x1fd7>
    b662:	ba 01 00 00 00       	mov    $0x1,%edx
    b667:	eb 05                	jmp    b66e <func_47+0x1fdc>
    b669:	ba 00 00 00 00       	mov    $0x0,%edx
    b66e:	48 8b 05 03 ba 00 00 	mov    0xba03(%rip),%rax        # 17078 <g_637>
    b675:	0f b7 00             	movzwl (%rax),%eax
    b678:	98                   	cwtl   
    b679:	89 d6                	mov    %edx,%esi
    b67b:	89 c7                	mov    %eax,%edi
    b67d:	e8 a8 be ff ff       	callq  752a <safe_rshift_func_int16_t_s_s>
    b682:	44 89 e6             	mov    %r12d,%esi
    b685:	bf 01 00 00 00       	mov    $0x1,%edi
    b68a:	e8 83 bb ff ff       	callq  7212 <safe_mul_func_int8_t_s_s>
    b68f:	3c 01                	cmp    $0x1,%al
    b691:	0f 95 c0             	setne  %al
    b694:	0f b6 c0             	movzbl %al,%eax
    b697:	89 de                	mov    %ebx,%esi
    b699:	89 c7                	mov    %eax,%edi
    b69b:	e8 1e c6 ff ff       	callq  7cbe <safe_rshift_func_uint8_t_u_u>
    b6a0:	0f b6 d0             	movzbl %al,%edx
    b6a3:	48 8b 85 90 e1 ff ff 	mov    -0x1e70(%rbp),%rax
    b6aa:	8b 00                	mov    (%rax),%eax
    b6ac:	0f b6 8d a1 df ff ff 	movzbl -0x205f(%rbp),%ecx
    b6b3:	83 e1 01             	and    $0x1,%ecx
    b6b6:	39 c8                	cmp    %ecx,%eax
    b6b8:	0f 95 c0             	setne  %al
    b6bb:	0f b6 c0             	movzbl %al,%eax
    b6be:	89 d6                	mov    %edx,%esi
    b6c0:	89 c7                	mov    %eax,%edi
    b6c2:	e8 f7 c5 ff ff       	callq  7cbe <safe_rshift_func_uint8_t_u_u>
    b6c7:	0f b6 d0             	movzbl %al,%edx
    b6ca:	48 8b 85 80 e1 ff ff 	mov    -0x1e80(%rbp),%rax
    b6d1:	89 10                	mov    %edx,(%rax)
    b6d3:	eb 01                	jmp    b6d6 <func_47+0x2044>
    b6d5:	90                   	nop
    b6d6:	0f b6 05 b3 ce 00 00 	movzbl 0xceb3(%rip),%eax        # 18590 <g_756>
    b6dd:	83 c0 01             	add    $0x1,%eax
    b6e0:	88 05 aa ce 00 00    	mov    %al,0xceaa(%rip)        # 18590 <g_756>
    b6e6:	0f b6 05 a3 ce 00 00 	movzbl 0xcea3(%rip),%eax        # 18590 <g_756>
    b6ed:	3c 03                	cmp    $0x3,%al
    b6ef:	0f 86 3f fd ff ff    	jbe    b434 <func_47+0x1da2>
    b6f5:	48 83 bd a8 e1 ff ff 	cmpq   $0x0,-0x1e58(%rbp)
    b6fc:	00 
    b6fd:	0f 95 c0             	setne  %al
    b700:	0f b6 c0             	movzbl %al,%eax
    b703:	be 05 00 00 00       	mov    $0x5,%esi
    b708:	89 c7                	mov    %eax,%edi
    b70a:	e8 af c6 ff ff       	callq  7dbe <safe_lshift_func_uint16_t_u_s>
    b70f:	89 c2                	mov    %eax,%edx
    b711:	48 8b 05 30 ba 00 00 	mov    0xba30(%rip),%rax        # 17148 <g_1214>
    b718:	48 8b 00             	mov    (%rax),%rax
    b71b:	0f b7 08             	movzwl (%rax),%ecx
    b71e:	48 8b 05 23 ba 00 00 	mov    0xba23(%rip),%rax        # 17148 <g_1214>
    b725:	48 8b 00             	mov    (%rax),%rax
    b728:	31 ca                	xor    %ecx,%edx
    b72a:	66 89 10             	mov    %dx,(%rax)
    b72d:	0f b7 00             	movzwl (%rax),%eax
    b730:	0f b7 d0             	movzwl %ax,%edx
    b733:	0f b6 85 69 eb ff ff 	movzbl -0x1497(%rbp),%eax
    b73a:	0f b6 c0             	movzbl %al,%eax
    b73d:	89 d6                	mov    %edx,%esi
    b73f:	89 c7                	mov    %eax,%edi
    b741:	e8 34 c7 ff ff       	callq  7e7a <safe_rshift_func_uint16_t_u_u>
    b746:	0f b7 d0             	movzwl %ax,%edx
    b749:	48 8b 05 10 b9 00 00 	mov    0xb910(%rip),%rax        # 17060 <g_449>
    b750:	48 8b 00             	mov    (%rax),%rax
    b753:	0f b6 00             	movzbl (%rax),%eax
    b756:	0f b6 c0             	movzbl %al,%eax
    b759:	89 d6                	mov    %edx,%esi
    b75b:	89 c7                	mov    %eax,%edi
    b75d:	e8 2b c5 ff ff       	callq  7c8d <safe_rshift_func_uint8_t_u_s>
    b762:	48 8b 95 80 e1 ff ff 	mov    -0x1e80(%rbp),%rdx
    b769:	8b 12                	mov    (%rdx),%edx
    b76b:	0f b6 c0             	movzbl %al,%eax
    b76e:	21 c2                	and    %eax,%edx
    b770:	48 8b 85 80 e1 ff ff 	mov    -0x1e80(%rbp),%rax
    b777:	89 10                	mov    %edx,(%rax)
    b779:	c7 05 e5 cd 00 00 05 	movl   $0x5,0xcde5(%rip)        # 18568 <g_34>
    b780:	00 00 00 
    b783:	e9 c5 00 00 00       	jmpq   b84d <func_47+0x21bb>
    b788:	48 8d 05 d5 a0 00 00 	lea    0xa0d5(%rip),%rax        # 15864 <g_670+0x4>
    b78f:	48 89 85 30 f8 ff ff 	mov    %rax,-0x7d0(%rbp)
    b796:	48 8d 85 e0 e1 ff ff 	lea    -0x1e20(%rbp),%rax
    b79d:	48 83 c0 04          	add    $0x4,%rax
    b7a1:	48 89 85 38 f8 ff ff 	mov    %rax,-0x7c8(%rbp)
    b7a8:	48 8d 05 b5 a0 00 00 	lea    0xa0b5(%rip),%rax        # 15864 <g_670+0x4>
    b7af:	48 89 85 40 f8 ff ff 	mov    %rax,-0x7c0(%rbp)
    b7b6:	48 8d 85 e0 e1 ff ff 	lea    -0x1e20(%rbp),%rax
    b7bd:	48 83 c0 04          	add    $0x4,%rax
    b7c1:	48 89 85 48 f8 ff ff 	mov    %rax,-0x7b8(%rbp)
    b7c8:	48 8d 05 95 a0 00 00 	lea    0xa095(%rip),%rax        # 15864 <g_670+0x4>
    b7cf:	48 89 85 50 f8 ff ff 	mov    %rax,-0x7b0(%rbp)
    b7d6:	48 8d 85 e0 e1 ff ff 	lea    -0x1e20(%rbp),%rax
    b7dd:	48 83 c0 04          	add    $0x4,%rax
    b7e1:	48 89 85 58 f8 ff ff 	mov    %rax,-0x7a8(%rbp)
    b7e8:	48 8d 05 75 a0 00 00 	lea    0xa075(%rip),%rax        # 15864 <g_670+0x4>
    b7ef:	48 89 85 60 f8 ff ff 	mov    %rax,-0x7a0(%rbp)
    b7f6:	48 8d 85 e0 e1 ff ff 	lea    -0x1e20(%rbp),%rax
    b7fd:	48 83 c0 04          	add    $0x4,%rax
    b801:	48 89 85 68 f8 ff ff 	mov    %rax,-0x798(%rbp)
    b808:	48 8d 05 55 a0 00 00 	lea    0xa055(%rip),%rax        # 15864 <g_670+0x4>
    b80f:	48 89 85 70 f8 ff ff 	mov    %rax,-0x790(%rbp)
    b816:	48 8b 85 90 e1 ff ff 	mov    -0x1e70(%rbp),%rax
    b81d:	8b 00                	mov    (%rax),%eax
    b81f:	25 db 5c 0d 7f       	and    $0x7f0d5cdb,%eax
    b824:	89 c2                	mov    %eax,%edx
    b826:	48 8b 85 90 e1 ff ff 	mov    -0x1e70(%rbp),%rax
    b82d:	89 10                	mov    %edx,(%rax)
    b82f:	8b 85 b8 df ff ff    	mov    -0x2048(%rbp),%eax
    b835:	83 e8 01             	sub    $0x1,%eax
    b838:	89 85 b8 df ff ff    	mov    %eax,-0x2048(%rbp)
    b83e:	8b 05 24 cd 00 00    	mov    0xcd24(%rip),%eax        # 18568 <g_34>
    b844:	83 e8 01             	sub    $0x1,%eax
    b847:	89 05 1b cd 00 00    	mov    %eax,0xcd1b(%rip)        # 18568 <g_34>
    b84d:	8b 05 15 cd 00 00    	mov    0xcd15(%rip),%eax        # 18568 <g_34>
    b853:	85 c0                	test   %eax,%eax
    b855:	0f 89 2d ff ff ff    	jns    b788 <func_47+0x20f6>
    b85b:	48 8b 05 26 9c 00 00 	mov    0x9c26(%rip),%rax        # 15488 <g_379>
    b862:	48 83 c0 01          	add    $0x1,%rax
    b866:	48 89 05 1b 9c 00 00 	mov    %rax,0x9c1b(%rip)        # 15488 <g_379>
    b86d:	48 8b 05 14 9c 00 00 	mov    0x9c14(%rip),%rax        # 15488 <g_379>
    b874:	48 83 f8 05          	cmp    $0x5,%rax
    b878:	0f 86 6d f9 ff ff    	jbe    b1eb <func_47+0x1b59>
    b87e:	0f b6 05 43 a0 00 00 	movzbl 0xa043(%rip),%eax        # 158c8 <g_1316>
    b885:	83 e8 01             	sub    $0x1,%eax
    b888:	88 05 3a a0 00 00    	mov    %al,0xa03a(%rip)        # 158c8 <g_1316>
    b88e:	0f b6 05 33 a0 00 00 	movzbl 0xa033(%rip),%eax        # 158c8 <g_1316>
    b895:	84 c0                	test   %al,%al
    b897:	0f 89 83 f6 ff ff    	jns    af20 <func_47+0x188e>
    b89d:	0f bf 9d a6 df ff ff 	movswl -0x205a(%rbp),%ebx
    b8a4:	0f b7 85 aa df ff ff 	movzwl -0x2056(%rbp),%eax
    b8ab:	44 0f b6 e0          	movzbl %al,%r12d
    b8af:	8b 85 00 e8 ff ff    	mov    -0x1800(%rbp),%eax
    b8b5:	41 89 c6             	mov    %eax,%r14d
    b8b8:	0f b6 45 bf          	movzbl -0x41(%rbp),%eax
    b8bc:	0f b6 c0             	movzbl %al,%eax
    b8bf:	be 01 00 00 00       	mov    $0x1,%esi
    b8c4:	89 c7                	mov    %eax,%edi
    b8c6:	e8 eb bc ff ff       	callq  75b6 <safe_add_func_int32_t_s_s>
    b8cb:	48 63 d0             	movslq %eax,%rdx
    b8ce:	48 8b 85 98 e0 ff ff 	mov    -0x1f68(%rbp),%rax
    b8d5:	48 89 d6             	mov    %rdx,%rsi
    b8d8:	48 89 c7             	mov    %rax,%rdi
    b8db:	e8 61 bf ff ff       	callq  7841 <safe_add_func_int64_t_s_s>
    b8e0:	4c 0f bf ad ac df ff 	movswq -0x2054(%rbp),%r13
    b8e7:	ff 
    b8e8:	48 8b 05 89 b7 00 00 	mov    0xb789(%rip),%rax        # 17078 <g_637>
    b8ef:	0f b7 00             	movzwl (%rax),%eax
    b8f2:	98                   	cwtl   
    b8f3:	89 c6                	mov    %eax,%esi
    b8f5:	bf 01 00 00 00       	mov    $0x1,%edi
    b8fa:	e8 f6 ba ff ff       	callq  73f5 <safe_mul_func_int16_t_s_s>
    b8ff:	48 8b 05 ca b7 00 00 	mov    0xb7ca(%rip),%rax        # 170d0 <g_1045>
    b906:	48 8b 00             	mov    (%rax),%rax
    b909:	48 8b 00             	mov    (%rax),%rax
    b90c:	48 8b 00             	mov    (%rax),%rax
    b90f:	0f b6 00             	movzbl (%rax),%eax
    b912:	0f be d0             	movsbl %al,%edx
    b915:	48 8b 05 cc b7 00 00 	mov    0xb7cc(%rip),%rax        # 170e8 <g_1074>
    b91c:	48 8b 00             	mov    (%rax),%rax
    b91f:	48 8b 00             	mov    (%rax),%rax
    b922:	0f b6 00             	movzbl (%rax),%eax
    b925:	0f b6 c0             	movzbl %al,%eax
    b928:	21 d0                	and    %edx,%eax
    b92a:	48 98                	cltq   
    b92c:	48 39 85 e8 e0 ff ff 	cmp    %rax,-0x1f18(%rbp)
    b933:	0f 9d c0             	setge  %al
    b936:	0f b6 c0             	movzbl %al,%eax
    b939:	4c 89 ee             	mov    %r13,%rsi
    b93c:	48 89 c7             	mov    %rax,%rdi
    b93f:	e8 70 c0 ff ff       	callq  79b4 <safe_mod_func_int64_t_s_s>
    b944:	48 3d ea 03 00 00    	cmp    $0x3ea,%rax
    b94a:	0f 95 c0             	setne  %al
    b94d:	0f b6 c0             	movzbl %al,%eax
    b950:	be 7e 00 00 00       	mov    $0x7e,%esi
    b955:	89 c7                	mov    %eax,%edi
    b957:	e8 d5 b8 ff ff       	callq  7231 <safe_mod_func_int8_t_s_s>
    b95c:	48 8b 05 75 b7 00 00 	mov    0xb775(%rip),%rax        # 170d8 <g_1076>
    b963:	0f b6 00             	movzbl (%rax),%eax
    b966:	0f b6 d0             	movzbl %al,%edx
    b969:	0f b6 45 c3          	movzbl -0x3d(%rbp),%eax
    b96d:	3c 05                	cmp    $0x5,%al
    b96f:	0f 97 c0             	seta   %al
    b972:	0f b6 c0             	movzbl %al,%eax
    b975:	39 c2                	cmp    %eax,%edx
    b977:	0f 95 c0             	setne  %al
    b97a:	0f b6 c0             	movzbl %al,%eax
    b97d:	48 be b4 00 e0 75 c6 	movabs $0x779f8bc675e000b4,%rsi
    b984:	8b 9f 77 
    b987:	48 89 c7             	mov    %rax,%rdi
    b98a:	e8 b2 be ff ff       	callq  7841 <safe_add_func_int64_t_s_s>
    b98f:	be 01 00 00 00       	mov    $0x1,%esi
    b994:	48 89 c7             	mov    %rax,%rdi
    b997:	e8 af c6 ff ff       	callq  804b <safe_sub_func_uint64_t_u_u>
    b99c:	48 8b 15 45 b7 00 00 	mov    0xb745(%rip),%rdx        # 170e8 <g_1074>
    b9a3:	48 8b 12             	mov    (%rdx),%rdx
    b9a6:	48 8b 12             	mov    (%rdx),%rdx
    b9a9:	0f b6 12             	movzbl (%rdx),%edx
    b9ac:	0f b6 d2             	movzbl %dl,%edx
    b9af:	48 39 d0             	cmp    %rdx,%rax
    b9b2:	0f 93 c0             	setae  %al
    b9b5:	0f b6 c0             	movzbl %al,%eax
    b9b8:	be 05 00 00 00       	mov    $0x5,%esi
    b9bd:	89 c7                	mov    %eax,%edi
    b9bf:	e8 79 c3 ff ff       	callq  7d3d <safe_mul_func_uint16_t_u_u>
    b9c4:	0f be c0             	movsbl %al,%eax
    b9c7:	be c0 ff ff ff       	mov    $0xffffffc0,%esi
    b9cc:	89 c7                	mov    %eax,%edi
    b9ce:	e8 97 b8 ff ff       	callq  726a <safe_div_func_int8_t_s_s>
    b9d3:	0f be c0             	movsbl %al,%eax
    b9d6:	44 89 f6             	mov    %r14d,%esi
    b9d9:	89 c7                	mov    %eax,%edi
    b9db:	e8 c1 b8 ff ff       	callq  72a1 <safe_lshift_func_int8_t_s_s>
    b9e0:	48 8b 15 99 b6 00 00 	mov    0xb699(%rip),%rdx        # 17080 <g_656>
    b9e7:	0f b6 12             	movzbl (%rdx),%edx
    b9ea:	38 d0                	cmp    %dl,%al
    b9ec:	0f 9e c0             	setle  %al
    b9ef:	0f b6 c0             	movzbl %al,%eax
    b9f2:	44 89 e6             	mov    %r12d,%esi
    b9f5:	89 c7                	mov    %eax,%edi
    b9f7:	e8 5e c1 ff ff       	callq  7b5a <safe_add_func_uint8_t_u_u>
    b9fc:	0f b6 55 c2          	movzbl -0x3e(%rbp),%edx
    ba00:	38 d0                	cmp    %dl,%al
    ba02:	0f 97 c0             	seta   %al
    ba05:	0f b6 c0             	movzbl %al,%eax
    ba08:	89 de                	mov    %ebx,%esi
    ba0a:	89 c7                	mov    %eax,%edi
    ba0c:	e8 bf c4 ff ff       	callq  7ed0 <safe_sub_func_uint32_t_u_u>
    ba11:	85 c0                	test   %eax,%eax
    ba13:	0f 84 4b 02 00 00    	je     bc64 <func_47+0x25d2>
    ba19:	48 c7 85 50 e1 ff ff 	movq   $0x0,-0x1eb0(%rbp)
    ba20:	00 00 00 00 
    ba24:	48 8d 05 09 9a 00 00 	lea    0x9a09(%rip),%rax        # 15434 <g_36>
    ba2b:	48 89 85 58 e1 ff ff 	mov    %rax,-0x1ea8(%rbp)
    ba32:	48 8d 05 0f 9a 00 00 	lea    0x9a0f(%rip),%rax        # 15448 <g_164>
    ba39:	48 89 85 60 e1 ff ff 	mov    %rax,-0x1ea0(%rbp)
    ba40:	48 8d 05 ed 99 00 00 	lea    0x99ed(%rip),%rax        # 15434 <g_36>
    ba47:	48 89 85 68 e1 ff ff 	mov    %rax,-0x1e98(%rbp)
    ba4e:	c7 85 5c e0 ff ff 01 	movl   $0x1,-0x1fa4(%rbp)
    ba55:	00 00 00 
    ba58:	48 8d 85 e0 e1 ff ff 	lea    -0x1e20(%rbp),%rax
    ba5f:	48 89 85 70 e1 ff ff 	mov    %rax,-0x1e90(%rbp)
    ba66:	48 c7 85 30 f8 ff ff 	movq   $0x0,-0x7d0(%rbp)
    ba6d:	00 00 00 00 
    ba71:	48 8d 05 f0 ca 00 00 	lea    0xcaf0(%rip),%rax        # 18568 <g_34>
    ba78:	48 89 85 38 f8 ff ff 	mov    %rax,-0x7c8(%rbp)
    ba7f:	48 c7 85 40 f8 ff ff 	movq   $0x0,-0x7c0(%rbp)
    ba86:	00 00 00 00 
    ba8a:	48 8d 05 d7 ca 00 00 	lea    0xcad7(%rip),%rax        # 18568 <g_34>
    ba91:	48 89 85 48 f8 ff ff 	mov    %rax,-0x7b8(%rbp)
    ba98:	48 c7 85 50 f8 ff ff 	movq   $0x0,-0x7b0(%rbp)
    ba9f:	00 00 00 00 
    baa3:	48 8d 05 be ca 00 00 	lea    0xcabe(%rip),%rax        # 18568 <g_34>
    baaa:	48 89 85 58 f8 ff ff 	mov    %rax,-0x7a8(%rbp)
    bab1:	48 c7 85 60 f8 ff ff 	movq   $0x0,-0x7a0(%rbp)
    bab8:	00 00 00 00 
    babc:	48 8d 05 a5 ca 00 00 	lea    0xcaa5(%rip),%rax        # 18568 <g_34>
    bac3:	48 89 85 68 f8 ff ff 	mov    %rax,-0x798(%rbp)
    baca:	48 c7 85 70 f8 ff ff 	movq   $0x0,-0x790(%rbp)
    bad1:	00 00 00 00 
    bad5:	48 8d 05 8c ca 00 00 	lea    0xca8c(%rip),%rax        # 18568 <g_34>
    badc:	48 89 85 78 f8 ff ff 	mov    %rax,-0x788(%rbp)
    bae3:	c7 05 8f 99 00 00 00 	movl   $0x0,0x998f(%rip)        # 1547c <g_289+0xc>
    baea:	00 00 00 
    baed:	48 8b 05 54 b6 00 00 	mov    0xb654(%rip),%rax        # 17148 <g_1214>
    baf4:	48 8b 00             	mov    (%rax),%rax
    baf7:	0f b7 00             	movzwl (%rax),%eax
    bafa:	89 c2                	mov    %eax,%edx
    bafc:	48 8d 05 e5 b5 00 00 	lea    0xb5e5(%rip),%rax        # 170e8 <g_1074>
    bb03:	48 39 85 50 e1 ff ff 	cmp    %rax,-0x1eb0(%rbp)
    bb0a:	0f 95 c0             	setne  %al
    bb0d:	0f b6 c0             	movzbl %al,%eax
    bb10:	09 c2                	or     %eax,%edx
    bb12:	48 8b 05 2f b6 00 00 	mov    0xb62f(%rip),%rax        # 17148 <g_1214>
    bb19:	48 8b 00             	mov    (%rax),%rax
    bb1c:	66 89 10             	mov    %dx,(%rax)
    bb1f:	0f b7 00             	movzwl (%rax),%eax
    bb22:	0f b7 c0             	movzwl %ax,%eax
    bb25:	be 02 00 00 00       	mov    $0x2,%esi
    bb2a:	89 c7                	mov    %eax,%edi
    bb2c:	e8 d5 c2 ff ff       	callq  7e06 <safe_lshift_func_uint16_t_u_u>
    bb31:	8b 95 e0 e1 ff ff    	mov    -0x1e20(%rbp),%edx
    bb37:	0f b7 c0             	movzwl %ax,%eax
    bb3a:	21 d0                	and    %edx,%eax
    bb3c:	89 85 e0 e1 ff ff    	mov    %eax,-0x1e20(%rbp)
    bb42:	83 ad e8 df ff ff 01 	subl   $0x1,-0x2018(%rbp)
    bb49:	48 8b 05 38 b5 00 00 	mov    0xb538(%rip),%rax        # 17088 <g_655>
    bb50:	48 8b 00             	mov    (%rax),%rax
    bb53:	0f b6 00             	movzbl (%rax),%eax
    bb56:	0f be c0             	movsbl %al,%eax
    bb59:	be 05 00 00 00       	mov    $0x5,%esi
    bb5e:	89 c7                	mov    %eax,%edi
    bb60:	e8 89 b7 ff ff       	callq  72ee <safe_lshift_func_int8_t_s_u>
    bb65:	66 44 0f be e0       	movsbw %al,%r12w
    bb6a:	48 8b 85 70 e1 ff ff 	mov    -0x1e90(%rbp),%rax
    bb71:	8b 18                	mov    (%rax),%ebx
    bb73:	48 8b 85 70 e1 ff ff 	mov    -0x1e90(%rbp),%rax
    bb7a:	8b 10                	mov    (%rax),%edx
    bb7c:	66 81 bd ae df ff ff 	cmpw   $0x6e06,-0x2052(%rbp)
    bb83:	06 6e 
    bb85:	0f 95 c0             	setne  %al
    bb88:	0f b6 c0             	movzbl %al,%eax
    bb8b:	39 c2                	cmp    %eax,%edx
    bb8d:	0f 95 c0             	setne  %al
    bb90:	44 0f b6 e8          	movzbl %al,%r13d
    bb94:	48 8b 05 e5 b4 00 00 	mov    0xb4e5(%rip),%rax        # 17080 <g_656>
    bb9b:	0f b6 00             	movzbl (%rax),%eax
    bb9e:	48 0f be c0          	movsbq %al,%rax
    bba2:	25 a3 00 00 00       	and    $0xa3,%eax
    bba7:	49 89 c6             	mov    %rax,%r14
    bbaa:	48 8b 05 a7 b4 00 00 	mov    0xb4a7(%rip),%rax        # 17058 <g_450>
    bbb1:	0f b6 00             	movzbl (%rax),%eax
    bbb4:	84 c0                	test   %al,%al
    bbb6:	75 15                	jne    bbcd <func_47+0x253b>
    bbb8:	8b 05 9e 95 00 00    	mov    0x959e(%rip),%eax        # 1515c <g_4+0x11c>
    bbbe:	48 98                	cltq   
    bbc0:	48 89 c7             	mov    %rax,%rdi
    bbc3:	e8 51 c4 ff ff       	callq  8019 <safe_unary_minus_func_uint64_t_u>
    bbc8:	48 85 c0             	test   %rax,%rax
    bbcb:	74 07                	je     bbd4 <func_47+0x2542>
    bbcd:	ba 01 00 00 00       	mov    $0x1,%edx
    bbd2:	eb 05                	jmp    bbd9 <func_47+0x2547>
    bbd4:	ba 00 00 00 00       	mov    $0x0,%edx
    bbd9:	48 8b 85 60 e1 ff ff 	mov    -0x1ea0(%rbp),%rax
    bbe0:	8b 00                	mov    (%rax),%eax
    bbe2:	39 c2                	cmp    %eax,%edx
    bbe4:	0f 9d c0             	setge  %al
    bbe7:	0f b6 c0             	movzbl %al,%eax
    bbea:	49 39 c6             	cmp    %rax,%r14
    bbed:	0f 9d c2             	setge  %dl
    bbf0:	48 8b 05 51 b4 00 00 	mov    0xb451(%rip),%rax        # 17048 <g_414>
    bbf7:	0f b6 d2             	movzbl %dl,%edx
    bbfa:	89 10                	mov    %edx,(%rax)
    bbfc:	8b 00                	mov    (%rax),%eax
    bbfe:	41 39 c5             	cmp    %eax,%r13d
    bc01:	0f 95 c0             	setne  %al
    bc04:	0f b6 c0             	movzbl %al,%eax
    bc07:	89 de                	mov    %ebx,%esi
    bc09:	89 c7                	mov    %eax,%edi
    bc0b:	e8 f5 bf ff ff       	callq  7c05 <safe_lshift_func_uint8_t_u_s>
    bc10:	0f b6 d0             	movzbl %al,%edx
    bc13:	48 8b 85 58 e1 ff ff 	mov    -0x1ea8(%rbp),%rax
    bc1a:	8b 00                	mov    (%rax),%eax
    bc1c:	39 c2                	cmp    %eax,%edx
    bc1e:	0f 94 c0             	sete   %al
    bc21:	0f b6 d0             	movzbl %al,%edx
    bc24:	48 8b 05 1d b5 00 00 	mov    0xb51d(%rip),%rax        # 17148 <g_1214>
    bc2b:	48 8b 00             	mov    (%rax),%rax
    bc2e:	0f b7 00             	movzwl (%rax),%eax
    bc31:	0f b7 c0             	movzwl %ax,%eax
    bc34:	89 d6                	mov    %edx,%esi
    bc36:	89 c7                	mov    %eax,%edi
    bc38:	e8 00 c1 ff ff       	callq  7d3d <safe_mul_func_uint16_t_u_u>
    bc3d:	44 31 e0             	xor    %r12d,%eax
    bc40:	98                   	cwtl   
    bc41:	89 c7                	mov    %eax,%edi
    bc43:	e8 55 b7 ff ff       	callq  739d <safe_unary_minus_func_int16_t_s>
    bc48:	48 8b 85 58 e1 ff ff 	mov    -0x1ea8(%rbp),%rax
    bc4f:	8b 10                	mov    (%rax),%edx
    bc51:	8b 05 11 c9 00 00    	mov    0xc911(%rip),%eax        # 18568 <g_34>
    bc57:	09 d0                	or     %edx,%eax
    bc59:	89 05 09 c9 00 00    	mov    %eax,0xc909(%rip)        # 18568 <g_34>
    bc5f:	e9 7f 33 00 00       	jmpq   efe3 <func_47+0x5951>
    bc64:	c6 85 9d df ff ff 01 	movb   $0x1,-0x2063(%rbp)
    bc6b:	48 8d 05 de b3 00 00 	lea    0xb3de(%rip),%rax        # 17050 <g_413>
    bc72:	48 89 85 b0 e0 ff ff 	mov    %rax,-0x1f50(%rbp)
    bc79:	48 c7 85 30 f8 ff ff 	movq   $0x0,-0x7d0(%rbp)
    bc80:	00 00 00 00 
    bc84:	48 8d 85 b0 e0 ff ff 	lea    -0x1f50(%rbp),%rax
    bc8b:	48 89 85 38 f8 ff ff 	mov    %rax,-0x7c8(%rbp)
    bc92:	48 8d 85 b0 e0 ff ff 	lea    -0x1f50(%rbp),%rax
    bc99:	48 89 85 40 f8 ff ff 	mov    %rax,-0x7c0(%rbp)
    bca0:	48 8d 85 b0 e0 ff ff 	lea    -0x1f50(%rbp),%rax
    bca7:	48 89 85 48 f8 ff ff 	mov    %rax,-0x7b8(%rbp)
    bcae:	48 8d 85 b0 e0 ff ff 	lea    -0x1f50(%rbp),%rax
    bcb5:	48 89 85 50 f8 ff ff 	mov    %rax,-0x7b0(%rbp)
    bcbc:	48 8d 85 b0 e0 ff ff 	lea    -0x1f50(%rbp),%rax
    bcc3:	48 89 85 58 f8 ff ff 	mov    %rax,-0x7a8(%rbp)
    bcca:	48 8d 85 b0 e0 ff ff 	lea    -0x1f50(%rbp),%rax
    bcd1:	48 89 85 60 f8 ff ff 	mov    %rax,-0x7a0(%rbp)
    bcd8:	48 8d 85 b0 e0 ff ff 	lea    -0x1f50(%rbp),%rax
    bcdf:	48 89 85 68 f8 ff ff 	mov    %rax,-0x798(%rbp)
    bce6:	48 8d 85 b0 e0 ff ff 	lea    -0x1f50(%rbp),%rax
    bced:	48 89 85 70 f8 ff ff 	mov    %rax,-0x790(%rbp)
    bcf4:	48 8d 85 b0 e0 ff ff 	lea    -0x1f50(%rbp),%rax
    bcfb:	48 89 85 78 f8 ff ff 	mov    %rax,-0x788(%rbp)
    bd02:	48 8d 85 b0 e0 ff ff 	lea    -0x1f50(%rbp),%rax
    bd09:	48 89 85 80 f8 ff ff 	mov    %rax,-0x780(%rbp)
    bd10:	48 8d 85 b0 e0 ff ff 	lea    -0x1f50(%rbp),%rax
    bd17:	48 89 85 88 f8 ff ff 	mov    %rax,-0x778(%rbp)
    bd1e:	48 8d 85 b0 e0 ff ff 	lea    -0x1f50(%rbp),%rax
    bd25:	48 89 85 90 f8 ff ff 	mov    %rax,-0x770(%rbp)
    bd2c:	48 8d 85 b0 e0 ff ff 	lea    -0x1f50(%rbp),%rax
    bd33:	48 89 85 98 f8 ff ff 	mov    %rax,-0x768(%rbp)
    bd3a:	48 8d 85 b0 e0 ff ff 	lea    -0x1f50(%rbp),%rax
    bd41:	48 89 85 a0 f8 ff ff 	mov    %rax,-0x760(%rbp)
    bd48:	48 8d 85 b0 e0 ff ff 	lea    -0x1f50(%rbp),%rax
    bd4f:	48 89 85 a8 f8 ff ff 	mov    %rax,-0x758(%rbp)
    bd56:	48 8d 85 b0 e0 ff ff 	lea    -0x1f50(%rbp),%rax
    bd5d:	48 89 85 b0 f8 ff ff 	mov    %rax,-0x750(%rbp)
    bd64:	48 8d 85 b0 e0 ff ff 	lea    -0x1f50(%rbp),%rax
    bd6b:	48 89 85 b8 f8 ff ff 	mov    %rax,-0x748(%rbp)
    bd72:	48 8d 85 b0 e0 ff ff 	lea    -0x1f50(%rbp),%rax
    bd79:	48 89 85 c0 f8 ff ff 	mov    %rax,-0x740(%rbp)
    bd80:	48 c7 85 c8 f8 ff ff 	movq   $0x0,-0x738(%rbp)
    bd87:	00 00 00 00 
    bd8b:	48 8d 85 b0 e0 ff ff 	lea    -0x1f50(%rbp),%rax
    bd92:	48 89 85 d0 f8 ff ff 	mov    %rax,-0x730(%rbp)
    bd99:	48 8d 85 b0 e0 ff ff 	lea    -0x1f50(%rbp),%rax
    bda0:	48 89 85 d8 f8 ff ff 	mov    %rax,-0x728(%rbp)
    bda7:	48 8d 85 b0 e0 ff ff 	lea    -0x1f50(%rbp),%rax
    bdae:	48 89 85 e0 f8 ff ff 	mov    %rax,-0x720(%rbp)
    bdb5:	48 8d 85 b0 e0 ff ff 	lea    -0x1f50(%rbp),%rax
    bdbc:	48 89 85 e8 f8 ff ff 	mov    %rax,-0x718(%rbp)
    bdc3:	48 8d 85 b0 e0 ff ff 	lea    -0x1f50(%rbp),%rax
    bdca:	48 89 85 f0 f8 ff ff 	mov    %rax,-0x710(%rbp)
    bdd1:	48 8d 85 b0 e0 ff ff 	lea    -0x1f50(%rbp),%rax
    bdd8:	48 89 85 f8 f8 ff ff 	mov    %rax,-0x708(%rbp)
    bddf:	48 8d 85 b0 e0 ff ff 	lea    -0x1f50(%rbp),%rax
    bde6:	48 89 85 00 f9 ff ff 	mov    %rax,-0x700(%rbp)
    bded:	48 c7 85 08 f9 ff ff 	movq   $0x0,-0x6f8(%rbp)
    bdf4:	00 00 00 00 
    bdf8:	48 8d 85 b0 e0 ff ff 	lea    -0x1f50(%rbp),%rax
    bdff:	48 89 85 10 f9 ff ff 	mov    %rax,-0x6f0(%rbp)
    be06:	48 8d 85 b0 e0 ff ff 	lea    -0x1f50(%rbp),%rax
    be0d:	48 89 85 18 f9 ff ff 	mov    %rax,-0x6e8(%rbp)
    be14:	48 8d 85 b0 e0 ff ff 	lea    -0x1f50(%rbp),%rax
    be1b:	48 89 85 20 f9 ff ff 	mov    %rax,-0x6e0(%rbp)
    be22:	48 c7 85 28 f9 ff ff 	movq   $0x0,-0x6d8(%rbp)
    be29:	00 00 00 00 
    be2d:	48 8d 85 b0 e0 ff ff 	lea    -0x1f50(%rbp),%rax
    be34:	48 89 85 30 f9 ff ff 	mov    %rax,-0x6d0(%rbp)
    be3b:	48 8d 85 b0 e0 ff ff 	lea    -0x1f50(%rbp),%rax
    be42:	48 89 85 38 f9 ff ff 	mov    %rax,-0x6c8(%rbp)
    be49:	48 8d 85 b0 e0 ff ff 	lea    -0x1f50(%rbp),%rax
    be50:	48 89 85 40 f9 ff ff 	mov    %rax,-0x6c0(%rbp)
    be57:	48 8d 85 b0 e0 ff ff 	lea    -0x1f50(%rbp),%rax
    be5e:	48 89 85 48 f9 ff ff 	mov    %rax,-0x6b8(%rbp)
    be65:	48 8d 85 b0 e0 ff ff 	lea    -0x1f50(%rbp),%rax
    be6c:	48 89 85 50 f9 ff ff 	mov    %rax,-0x6b0(%rbp)
    be73:	48 8d 85 b0 e0 ff ff 	lea    -0x1f50(%rbp),%rax
    be7a:	48 89 85 58 f9 ff ff 	mov    %rax,-0x6a8(%rbp)
    be81:	48 8d 85 b0 e0 ff ff 	lea    -0x1f50(%rbp),%rax
    be88:	48 89 85 60 f9 ff ff 	mov    %rax,-0x6a0(%rbp)
    be8f:	48 c7 85 68 f9 ff ff 	movq   $0x0,-0x698(%rbp)
    be96:	00 00 00 00 
    be9a:	48 8d 85 b0 e0 ff ff 	lea    -0x1f50(%rbp),%rax
    bea1:	48 89 85 70 f9 ff ff 	mov    %rax,-0x690(%rbp)
    bea8:	48 8d 85 b0 e0 ff ff 	lea    -0x1f50(%rbp),%rax
    beaf:	48 89 85 78 f9 ff ff 	mov    %rax,-0x688(%rbp)
    beb6:	48 8d 85 b0 e0 ff ff 	lea    -0x1f50(%rbp),%rax
    bebd:	48 89 85 80 f9 ff ff 	mov    %rax,-0x680(%rbp)
    bec4:	48 8d 85 b0 e0 ff ff 	lea    -0x1f50(%rbp),%rax
    becb:	48 89 85 88 f9 ff ff 	mov    %rax,-0x678(%rbp)
    bed2:	48 8d 85 b0 e0 ff ff 	lea    -0x1f50(%rbp),%rax
    bed9:	48 89 85 90 f9 ff ff 	mov    %rax,-0x670(%rbp)
    bee0:	48 c7 85 98 f9 ff ff 	movq   $0x0,-0x668(%rbp)
    bee7:	00 00 00 00 
    beeb:	48 8d 85 b0 e0 ff ff 	lea    -0x1f50(%rbp),%rax
    bef2:	48 89 85 a0 f9 ff ff 	mov    %rax,-0x660(%rbp)
    bef9:	48 8d 85 b0 e0 ff ff 	lea    -0x1f50(%rbp),%rax
    bf00:	48 89 85 a8 f9 ff ff 	mov    %rax,-0x658(%rbp)
    bf07:	48 c7 85 b0 f9 ff ff 	movq   $0x0,-0x650(%rbp)
    bf0e:	00 00 00 00 
    bf12:	48 8d 85 b0 e0 ff ff 	lea    -0x1f50(%rbp),%rax
    bf19:	48 89 85 b8 f9 ff ff 	mov    %rax,-0x648(%rbp)
    bf20:	48 8d 85 b0 e0 ff ff 	lea    -0x1f50(%rbp),%rax
    bf27:	48 89 85 c0 f9 ff ff 	mov    %rax,-0x640(%rbp)
    bf2e:	48 8d 85 b0 e0 ff ff 	lea    -0x1f50(%rbp),%rax
    bf35:	48 89 85 c8 f9 ff ff 	mov    %rax,-0x638(%rbp)
    bf3c:	48 8d 85 b0 e0 ff ff 	lea    -0x1f50(%rbp),%rax
    bf43:	48 89 85 d0 f9 ff ff 	mov    %rax,-0x630(%rbp)
    bf4a:	48 8d 85 b0 e0 ff ff 	lea    -0x1f50(%rbp),%rax
    bf51:	48 89 85 d8 f9 ff ff 	mov    %rax,-0x628(%rbp)
    bf58:	48 8d 85 b0 e0 ff ff 	lea    -0x1f50(%rbp),%rax
    bf5f:	48 89 85 e0 f9 ff ff 	mov    %rax,-0x620(%rbp)
    bf66:	48 8d 85 b0 e0 ff ff 	lea    -0x1f50(%rbp),%rax
    bf6d:	48 89 85 e8 f9 ff ff 	mov    %rax,-0x618(%rbp)
    bf74:	48 8d 85 b0 e0 ff ff 	lea    -0x1f50(%rbp),%rax
    bf7b:	48 89 85 f0 f9 ff ff 	mov    %rax,-0x610(%rbp)
    bf82:	48 8d 85 b0 e0 ff ff 	lea    -0x1f50(%rbp),%rax
    bf89:	48 89 85 f8 f9 ff ff 	mov    %rax,-0x608(%rbp)
    bf90:	48 8d 85 b0 e0 ff ff 	lea    -0x1f50(%rbp),%rax
    bf97:	48 89 85 00 fa ff ff 	mov    %rax,-0x600(%rbp)
    bf9e:	48 8d 85 b0 e0 ff ff 	lea    -0x1f50(%rbp),%rax
    bfa5:	48 89 85 08 fa ff ff 	mov    %rax,-0x5f8(%rbp)
    bfac:	48 8d 85 b0 e0 ff ff 	lea    -0x1f50(%rbp),%rax
    bfb3:	48 89 85 10 fa ff ff 	mov    %rax,-0x5f0(%rbp)
    bfba:	48 8d 85 b0 e0 ff ff 	lea    -0x1f50(%rbp),%rax
    bfc1:	48 89 85 18 fa ff ff 	mov    %rax,-0x5e8(%rbp)
    bfc8:	48 8d 85 b0 e0 ff ff 	lea    -0x1f50(%rbp),%rax
    bfcf:	48 89 85 20 fa ff ff 	mov    %rax,-0x5e0(%rbp)
    bfd6:	48 8d 85 b0 e0 ff ff 	lea    -0x1f50(%rbp),%rax
    bfdd:	48 89 85 28 fa ff ff 	mov    %rax,-0x5d8(%rbp)
    bfe4:	48 8d 85 b0 e0 ff ff 	lea    -0x1f50(%rbp),%rax
    bfeb:	48 89 85 30 fa ff ff 	mov    %rax,-0x5d0(%rbp)
    bff2:	48 8d 85 b0 e0 ff ff 	lea    -0x1f50(%rbp),%rax
    bff9:	48 89 85 38 fa ff ff 	mov    %rax,-0x5c8(%rbp)
    c000:	48 8d 85 b0 e0 ff ff 	lea    -0x1f50(%rbp),%rax
    c007:	48 89 85 40 fa ff ff 	mov    %rax,-0x5c0(%rbp)
    c00e:	48 8d 85 b0 e0 ff ff 	lea    -0x1f50(%rbp),%rax
    c015:	48 89 85 48 fa ff ff 	mov    %rax,-0x5b8(%rbp)
    c01c:	48 8d 85 b0 e0 ff ff 	lea    -0x1f50(%rbp),%rax
    c023:	48 89 85 50 fa ff ff 	mov    %rax,-0x5b0(%rbp)
    c02a:	48 c7 85 58 fa ff ff 	movq   $0x0,-0x5a8(%rbp)
    c031:	00 00 00 00 
    c035:	48 8d 85 b0 e0 ff ff 	lea    -0x1f50(%rbp),%rax
    c03c:	48 89 85 60 fa ff ff 	mov    %rax,-0x5a0(%rbp)
    c043:	48 8d 85 b0 e0 ff ff 	lea    -0x1f50(%rbp),%rax
    c04a:	48 89 85 68 fa ff ff 	mov    %rax,-0x598(%rbp)
    c051:	48 8d 85 b0 e0 ff ff 	lea    -0x1f50(%rbp),%rax
    c058:	48 89 85 70 fa ff ff 	mov    %rax,-0x590(%rbp)
    c05f:	48 8d 85 b0 e0 ff ff 	lea    -0x1f50(%rbp),%rax
    c066:	48 89 85 78 fa ff ff 	mov    %rax,-0x588(%rbp)
    c06d:	48 8d 85 b0 e0 ff ff 	lea    -0x1f50(%rbp),%rax
    c074:	48 89 85 80 fa ff ff 	mov    %rax,-0x580(%rbp)
    c07b:	48 8d 85 b0 e0 ff ff 	lea    -0x1f50(%rbp),%rax
    c082:	48 89 85 88 fa ff ff 	mov    %rax,-0x578(%rbp)
    c089:	48 8d 85 b0 e0 ff ff 	lea    -0x1f50(%rbp),%rax
    c090:	48 89 85 90 fa ff ff 	mov    %rax,-0x570(%rbp)
    c097:	48 8d 85 b0 e0 ff ff 	lea    -0x1f50(%rbp),%rax
    c09e:	48 89 85 98 fa ff ff 	mov    %rax,-0x568(%rbp)
    c0a5:	48 8d 85 b0 e0 ff ff 	lea    -0x1f50(%rbp),%rax
    c0ac:	48 89 85 a0 fa ff ff 	mov    %rax,-0x560(%rbp)
    c0b3:	48 8d 85 b0 e0 ff ff 	lea    -0x1f50(%rbp),%rax
    c0ba:	48 89 85 a8 fa ff ff 	mov    %rax,-0x558(%rbp)
    c0c1:	48 8d 85 b0 e0 ff ff 	lea    -0x1f50(%rbp),%rax
    c0c8:	48 89 85 b0 fa ff ff 	mov    %rax,-0x550(%rbp)
    c0cf:	48 8d 85 b0 e0 ff ff 	lea    -0x1f50(%rbp),%rax
    c0d6:	48 89 85 b8 fa ff ff 	mov    %rax,-0x548(%rbp)
    c0dd:	48 c7 85 c0 fa ff ff 	movq   $0x0,-0x540(%rbp)
    c0e4:	00 00 00 00 
    c0e8:	48 8d 85 b0 e0 ff ff 	lea    -0x1f50(%rbp),%rax
    c0ef:	48 89 85 c8 fa ff ff 	mov    %rax,-0x538(%rbp)
    c0f6:	48 c7 85 d0 fa ff ff 	movq   $0x0,-0x530(%rbp)
    c0fd:	00 00 00 00 
    c101:	48 8d 85 b0 e0 ff ff 	lea    -0x1f50(%rbp),%rax
    c108:	48 89 85 d8 fa ff ff 	mov    %rax,-0x528(%rbp)
    c10f:	48 8d 85 b0 e0 ff ff 	lea    -0x1f50(%rbp),%rax
    c116:	48 89 85 e0 fa ff ff 	mov    %rax,-0x520(%rbp)
    c11d:	48 8d 85 b0 e0 ff ff 	lea    -0x1f50(%rbp),%rax
    c124:	48 89 85 e8 fa ff ff 	mov    %rax,-0x518(%rbp)
    c12b:	48 8d 85 b0 e0 ff ff 	lea    -0x1f50(%rbp),%rax
    c132:	48 89 85 f0 fa ff ff 	mov    %rax,-0x510(%rbp)
    c139:	48 8d 85 b0 e0 ff ff 	lea    -0x1f50(%rbp),%rax
    c140:	48 89 85 f8 fa ff ff 	mov    %rax,-0x508(%rbp)
    c147:	48 8d 85 b0 e0 ff ff 	lea    -0x1f50(%rbp),%rax
    c14e:	48 89 85 00 fb ff ff 	mov    %rax,-0x500(%rbp)
    c155:	48 c7 85 08 fb ff ff 	movq   $0x0,-0x4f8(%rbp)
    c15c:	00 00 00 00 
    c160:	48 8d 85 b0 e0 ff ff 	lea    -0x1f50(%rbp),%rax
    c167:	48 89 85 10 fb ff ff 	mov    %rax,-0x4f0(%rbp)
    c16e:	48 8d 85 b0 e0 ff ff 	lea    -0x1f50(%rbp),%rax
    c175:	48 89 85 18 fb ff ff 	mov    %rax,-0x4e8(%rbp)
    c17c:	48 8d 85 b0 e0 ff ff 	lea    -0x1f50(%rbp),%rax
    c183:	48 89 85 20 fb ff ff 	mov    %rax,-0x4e0(%rbp)
    c18a:	48 8d 85 b0 e0 ff ff 	lea    -0x1f50(%rbp),%rax
    c191:	48 89 85 28 fb ff ff 	mov    %rax,-0x4d8(%rbp)
    c198:	48 8d 85 b0 e0 ff ff 	lea    -0x1f50(%rbp),%rax
    c19f:	48 89 85 30 fb ff ff 	mov    %rax,-0x4d0(%rbp)
    c1a6:	48 8d 85 b0 e0 ff ff 	lea    -0x1f50(%rbp),%rax
    c1ad:	48 89 85 38 fb ff ff 	mov    %rax,-0x4c8(%rbp)
    c1b4:	48 8d 85 b0 e0 ff ff 	lea    -0x1f50(%rbp),%rax
    c1bb:	48 89 85 40 fb ff ff 	mov    %rax,-0x4c0(%rbp)
    c1c2:	48 8d 85 b0 e0 ff ff 	lea    -0x1f50(%rbp),%rax
    c1c9:	48 89 85 48 fb ff ff 	mov    %rax,-0x4b8(%rbp)
    c1d0:	48 8d 85 b0 e0 ff ff 	lea    -0x1f50(%rbp),%rax
    c1d7:	48 89 85 50 fb ff ff 	mov    %rax,-0x4b0(%rbp)
    c1de:	48 8d 85 b0 e0 ff ff 	lea    -0x1f50(%rbp),%rax
    c1e5:	48 89 85 58 fb ff ff 	mov    %rax,-0x4a8(%rbp)
    c1ec:	48 8d 85 b0 e0 ff ff 	lea    -0x1f50(%rbp),%rax
    c1f3:	48 89 85 60 fb ff ff 	mov    %rax,-0x4a0(%rbp)
    c1fa:	48 8d 85 b0 e0 ff ff 	lea    -0x1f50(%rbp),%rax
    c201:	48 89 85 68 fb ff ff 	mov    %rax,-0x498(%rbp)
    c208:	48 8d 85 b0 e0 ff ff 	lea    -0x1f50(%rbp),%rax
    c20f:	48 89 85 70 fb ff ff 	mov    %rax,-0x490(%rbp)
    c216:	48 8d 85 b0 e0 ff ff 	lea    -0x1f50(%rbp),%rax
    c21d:	48 89 85 78 fb ff ff 	mov    %rax,-0x488(%rbp)
    c224:	48 c7 85 80 fb ff ff 	movq   $0x0,-0x480(%rbp)
    c22b:	00 00 00 00 
    c22f:	48 8d 85 b0 e0 ff ff 	lea    -0x1f50(%rbp),%rax
    c236:	48 89 85 88 fb ff ff 	mov    %rax,-0x478(%rbp)
    c23d:	48 8d 85 b0 e0 ff ff 	lea    -0x1f50(%rbp),%rax
    c244:	48 89 85 90 fb ff ff 	mov    %rax,-0x470(%rbp)
    c24b:	48 8d 85 b0 e0 ff ff 	lea    -0x1f50(%rbp),%rax
    c252:	48 89 85 98 fb ff ff 	mov    %rax,-0x468(%rbp)
    c259:	48 8d 85 b0 e0 ff ff 	lea    -0x1f50(%rbp),%rax
    c260:	48 89 85 a0 fb ff ff 	mov    %rax,-0x460(%rbp)
    c267:	48 8d 85 b0 e0 ff ff 	lea    -0x1f50(%rbp),%rax
    c26e:	48 89 85 a8 fb ff ff 	mov    %rax,-0x458(%rbp)
    c275:	48 c7 85 b0 fb ff ff 	movq   $0x0,-0x450(%rbp)
    c27c:	00 00 00 00 
    c280:	48 8d 85 b0 e0 ff ff 	lea    -0x1f50(%rbp),%rax
    c287:	48 89 85 b8 fb ff ff 	mov    %rax,-0x448(%rbp)
    c28e:	48 c7 85 c0 fb ff ff 	movq   $0x0,-0x440(%rbp)
    c295:	00 00 00 00 
    c299:	48 8d 85 b0 e0 ff ff 	lea    -0x1f50(%rbp),%rax
    c2a0:	48 89 85 c8 fb ff ff 	mov    %rax,-0x438(%rbp)
    c2a7:	48 8d 85 b0 e0 ff ff 	lea    -0x1f50(%rbp),%rax
    c2ae:	48 89 85 d0 fb ff ff 	mov    %rax,-0x430(%rbp)
    c2b5:	48 8d 85 b0 e0 ff ff 	lea    -0x1f50(%rbp),%rax
    c2bc:	48 89 85 d8 fb ff ff 	mov    %rax,-0x428(%rbp)
    c2c3:	48 8d 85 b0 e0 ff ff 	lea    -0x1f50(%rbp),%rax
    c2ca:	48 89 85 e0 fb ff ff 	mov    %rax,-0x420(%rbp)
    c2d1:	48 8d 85 b0 e0 ff ff 	lea    -0x1f50(%rbp),%rax
    c2d8:	48 89 85 e8 fb ff ff 	mov    %rax,-0x418(%rbp)
    c2df:	48 8d 85 b0 e0 ff ff 	lea    -0x1f50(%rbp),%rax
    c2e6:	48 89 85 f0 fb ff ff 	mov    %rax,-0x410(%rbp)
    c2ed:	48 8d 85 b0 e0 ff ff 	lea    -0x1f50(%rbp),%rax
    c2f4:	48 89 85 f8 fb ff ff 	mov    %rax,-0x408(%rbp)
    c2fb:	48 8d 85 b0 e0 ff ff 	lea    -0x1f50(%rbp),%rax
    c302:	48 89 85 00 fc ff ff 	mov    %rax,-0x400(%rbp)
    c309:	48 8d 85 b0 e0 ff ff 	lea    -0x1f50(%rbp),%rax
    c310:	48 89 85 08 fc ff ff 	mov    %rax,-0x3f8(%rbp)
    c317:	48 c7 85 10 fc ff ff 	movq   $0x0,-0x3f0(%rbp)
    c31e:	00 00 00 00 
    c322:	48 8d 85 b0 e0 ff ff 	lea    -0x1f50(%rbp),%rax
    c329:	48 89 85 18 fc ff ff 	mov    %rax,-0x3e8(%rbp)
    c330:	48 8d 85 b0 e0 ff ff 	lea    -0x1f50(%rbp),%rax
    c337:	48 89 85 20 fc ff ff 	mov    %rax,-0x3e0(%rbp)
    c33e:	48 8d 85 b0 e0 ff ff 	lea    -0x1f50(%rbp),%rax
    c345:	48 89 85 28 fc ff ff 	mov    %rax,-0x3d8(%rbp)
    c34c:	48 8d 85 b0 e0 ff ff 	lea    -0x1f50(%rbp),%rax
    c353:	48 89 85 30 fc ff ff 	mov    %rax,-0x3d0(%rbp)
    c35a:	48 8d 85 b0 e0 ff ff 	lea    -0x1f50(%rbp),%rax
    c361:	48 89 85 38 fc ff ff 	mov    %rax,-0x3c8(%rbp)
    c368:	48 8d 85 b0 e0 ff ff 	lea    -0x1f50(%rbp),%rax
    c36f:	48 89 85 40 fc ff ff 	mov    %rax,-0x3c0(%rbp)
    c376:	48 8d 85 b0 e0 ff ff 	lea    -0x1f50(%rbp),%rax
    c37d:	48 89 85 48 fc ff ff 	mov    %rax,-0x3b8(%rbp)
    c384:	48 8d 85 b0 e0 ff ff 	lea    -0x1f50(%rbp),%rax
    c38b:	48 89 85 50 fc ff ff 	mov    %rax,-0x3b0(%rbp)
    c392:	48 8d 85 b0 e0 ff ff 	lea    -0x1f50(%rbp),%rax
    c399:	48 89 85 58 fc ff ff 	mov    %rax,-0x3a8(%rbp)
    c3a0:	48 8d 85 b0 e0 ff ff 	lea    -0x1f50(%rbp),%rax
    c3a7:	48 89 85 60 fc ff ff 	mov    %rax,-0x3a0(%rbp)
    c3ae:	48 8d 85 b0 e0 ff ff 	lea    -0x1f50(%rbp),%rax
    c3b5:	48 89 85 68 fc ff ff 	mov    %rax,-0x398(%rbp)
    c3bc:	48 8d 85 b0 e0 ff ff 	lea    -0x1f50(%rbp),%rax
    c3c3:	48 89 85 70 fc ff ff 	mov    %rax,-0x390(%rbp)
    c3ca:	48 8d 85 b0 e0 ff ff 	lea    -0x1f50(%rbp),%rax
    c3d1:	48 89 85 78 fc ff ff 	mov    %rax,-0x388(%rbp)
    c3d8:	48 8d 85 b0 e0 ff ff 	lea    -0x1f50(%rbp),%rax
    c3df:	48 89 85 80 fc ff ff 	mov    %rax,-0x380(%rbp)
    c3e6:	48 8d 85 b0 e0 ff ff 	lea    -0x1f50(%rbp),%rax
    c3ed:	48 89 85 88 fc ff ff 	mov    %rax,-0x378(%rbp)
    c3f4:	48 8d 85 b0 e0 ff ff 	lea    -0x1f50(%rbp),%rax
    c3fb:	48 89 85 90 fc ff ff 	mov    %rax,-0x370(%rbp)
    c402:	48 8d 85 b0 e0 ff ff 	lea    -0x1f50(%rbp),%rax
    c409:	48 89 85 98 fc ff ff 	mov    %rax,-0x368(%rbp)
    c410:	48 8d 85 b0 e0 ff ff 	lea    -0x1f50(%rbp),%rax
    c417:	48 89 85 a0 fc ff ff 	mov    %rax,-0x360(%rbp)
    c41e:	48 8d 85 b0 e0 ff ff 	lea    -0x1f50(%rbp),%rax
    c425:	48 89 85 a8 fc ff ff 	mov    %rax,-0x358(%rbp)
    c42c:	48 c7 85 b0 fc ff ff 	movq   $0x0,-0x350(%rbp)
    c433:	00 00 00 00 
    c437:	48 8d 85 b0 e0 ff ff 	lea    -0x1f50(%rbp),%rax
    c43e:	48 89 85 b8 fc ff ff 	mov    %rax,-0x348(%rbp)
    c445:	48 8d 85 b0 e0 ff ff 	lea    -0x1f50(%rbp),%rax
    c44c:	48 89 85 c0 fc ff ff 	mov    %rax,-0x340(%rbp)
    c453:	48 8d 85 b0 e0 ff ff 	lea    -0x1f50(%rbp),%rax
    c45a:	48 89 85 c8 fc ff ff 	mov    %rax,-0x338(%rbp)
    c461:	48 8d 85 b0 e0 ff ff 	lea    -0x1f50(%rbp),%rax
    c468:	48 89 85 d0 fc ff ff 	mov    %rax,-0x330(%rbp)
    c46f:	48 8d 85 b0 e0 ff ff 	lea    -0x1f50(%rbp),%rax
    c476:	48 89 85 d8 fc ff ff 	mov    %rax,-0x328(%rbp)
    c47d:	48 8d 85 b0 e0 ff ff 	lea    -0x1f50(%rbp),%rax
    c484:	48 89 85 e0 fc ff ff 	mov    %rax,-0x320(%rbp)
    c48b:	48 c7 85 e8 fc ff ff 	movq   $0x0,-0x318(%rbp)
    c492:	00 00 00 00 
    c496:	48 8d 85 b0 e0 ff ff 	lea    -0x1f50(%rbp),%rax
    c49d:	48 89 85 f0 fc ff ff 	mov    %rax,-0x310(%rbp)
    c4a4:	48 8d 85 b0 e0 ff ff 	lea    -0x1f50(%rbp),%rax
    c4ab:	48 89 85 f8 fc ff ff 	mov    %rax,-0x308(%rbp)
    c4b2:	48 c7 85 00 fd ff ff 	movq   $0x0,-0x300(%rbp)
    c4b9:	00 00 00 00 
    c4bd:	48 8d 85 b0 e0 ff ff 	lea    -0x1f50(%rbp),%rax
    c4c4:	48 89 85 08 fd ff ff 	mov    %rax,-0x2f8(%rbp)
    c4cb:	48 8d 85 b0 e0 ff ff 	lea    -0x1f50(%rbp),%rax
    c4d2:	48 89 85 10 fd ff ff 	mov    %rax,-0x2f0(%rbp)
    c4d9:	48 c7 85 18 fd ff ff 	movq   $0x0,-0x2e8(%rbp)
    c4e0:	00 00 00 00 
    c4e4:	48 8d 85 b0 e0 ff ff 	lea    -0x1f50(%rbp),%rax
    c4eb:	48 89 85 20 fd ff ff 	mov    %rax,-0x2e0(%rbp)
    c4f2:	48 8d 85 b0 e0 ff ff 	lea    -0x1f50(%rbp),%rax
    c4f9:	48 89 85 28 fd ff ff 	mov    %rax,-0x2d8(%rbp)
    c500:	48 8d 85 b0 e0 ff ff 	lea    -0x1f50(%rbp),%rax
    c507:	48 89 85 30 fd ff ff 	mov    %rax,-0x2d0(%rbp)
    c50e:	48 8d 85 b0 e0 ff ff 	lea    -0x1f50(%rbp),%rax
    c515:	48 89 85 38 fd ff ff 	mov    %rax,-0x2c8(%rbp)
    c51c:	48 8d 85 b0 e0 ff ff 	lea    -0x1f50(%rbp),%rax
    c523:	48 89 85 40 fd ff ff 	mov    %rax,-0x2c0(%rbp)
    c52a:	48 8d 85 b0 e0 ff ff 	lea    -0x1f50(%rbp),%rax
    c531:	48 89 85 48 fd ff ff 	mov    %rax,-0x2b8(%rbp)
    c538:	48 8d 85 b0 e0 ff ff 	lea    -0x1f50(%rbp),%rax
    c53f:	48 89 85 50 fd ff ff 	mov    %rax,-0x2b0(%rbp)
    c546:	48 c7 85 58 fd ff ff 	movq   $0x0,-0x2a8(%rbp)
    c54d:	00 00 00 00 
    c551:	48 c7 85 60 fd ff ff 	movq   $0x0,-0x2a0(%rbp)
    c558:	00 00 00 00 
    c55c:	48 8d 85 b0 e0 ff ff 	lea    -0x1f50(%rbp),%rax
    c563:	48 89 85 68 fd ff ff 	mov    %rax,-0x298(%rbp)
    c56a:	48 8d 85 b0 e0 ff ff 	lea    -0x1f50(%rbp),%rax
    c571:	48 89 85 70 fd ff ff 	mov    %rax,-0x290(%rbp)
    c578:	48 8d 85 b0 e0 ff ff 	lea    -0x1f50(%rbp),%rax
    c57f:	48 89 85 78 fd ff ff 	mov    %rax,-0x288(%rbp)
    c586:	48 8d 85 b0 e0 ff ff 	lea    -0x1f50(%rbp),%rax
    c58d:	48 89 85 80 fd ff ff 	mov    %rax,-0x280(%rbp)
    c594:	48 8d 85 b0 e0 ff ff 	lea    -0x1f50(%rbp),%rax
    c59b:	48 89 85 88 fd ff ff 	mov    %rax,-0x278(%rbp)
    c5a2:	48 8d 85 b0 e0 ff ff 	lea    -0x1f50(%rbp),%rax
    c5a9:	48 89 85 90 fd ff ff 	mov    %rax,-0x270(%rbp)
    c5b0:	48 8d 85 b0 e0 ff ff 	lea    -0x1f50(%rbp),%rax
    c5b7:	48 89 85 98 fd ff ff 	mov    %rax,-0x268(%rbp)
    c5be:	48 8d 85 b0 e0 ff ff 	lea    -0x1f50(%rbp),%rax
    c5c5:	48 89 85 a0 fd ff ff 	mov    %rax,-0x260(%rbp)
    c5cc:	48 8d 85 b0 e0 ff ff 	lea    -0x1f50(%rbp),%rax
    c5d3:	48 89 85 a8 fd ff ff 	mov    %rax,-0x258(%rbp)
    c5da:	48 8d 85 b0 e0 ff ff 	lea    -0x1f50(%rbp),%rax
    c5e1:	48 89 85 b0 fd ff ff 	mov    %rax,-0x250(%rbp)
    c5e8:	48 8d 85 b0 e0 ff ff 	lea    -0x1f50(%rbp),%rax
    c5ef:	48 89 85 b8 fd ff ff 	mov    %rax,-0x248(%rbp)
    c5f6:	48 8d 85 b0 e0 ff ff 	lea    -0x1f50(%rbp),%rax
    c5fd:	48 89 85 c0 fd ff ff 	mov    %rax,-0x240(%rbp)
    c604:	48 8d 85 b0 e0 ff ff 	lea    -0x1f50(%rbp),%rax
    c60b:	48 89 85 c8 fd ff ff 	mov    %rax,-0x238(%rbp)
    c612:	48 8d 85 b0 e0 ff ff 	lea    -0x1f50(%rbp),%rax
    c619:	48 89 85 d0 fd ff ff 	mov    %rax,-0x230(%rbp)
    c620:	48 8d 85 b0 e0 ff ff 	lea    -0x1f50(%rbp),%rax
    c627:	48 89 85 d8 fd ff ff 	mov    %rax,-0x228(%rbp)
    c62e:	48 c7 85 e0 fd ff ff 	movq   $0x0,-0x220(%rbp)
    c635:	00 00 00 00 
    c639:	48 8d 85 b0 e0 ff ff 	lea    -0x1f50(%rbp),%rax
    c640:	48 89 85 e8 fd ff ff 	mov    %rax,-0x218(%rbp)
    c647:	48 8d 85 b0 e0 ff ff 	lea    -0x1f50(%rbp),%rax
    c64e:	48 89 85 f0 fd ff ff 	mov    %rax,-0x210(%rbp)
    c655:	48 c7 85 f8 fd ff ff 	movq   $0x0,-0x208(%rbp)
    c65c:	00 00 00 00 
    c660:	48 c7 85 00 fe ff ff 	movq   $0x0,-0x200(%rbp)
    c667:	00 00 00 00 
    c66b:	48 8d 85 b0 e0 ff ff 	lea    -0x1f50(%rbp),%rax
    c672:	48 89 85 08 fe ff ff 	mov    %rax,-0x1f8(%rbp)
    c679:	48 8d 85 b0 e0 ff ff 	lea    -0x1f50(%rbp),%rax
    c680:	48 89 85 10 fe ff ff 	mov    %rax,-0x1f0(%rbp)
    c687:	48 8d 85 b0 e0 ff ff 	lea    -0x1f50(%rbp),%rax
    c68e:	48 89 85 18 fe ff ff 	mov    %rax,-0x1e8(%rbp)
    c695:	48 8d 85 b0 e0 ff ff 	lea    -0x1f50(%rbp),%rax
    c69c:	48 89 85 20 fe ff ff 	mov    %rax,-0x1e0(%rbp)
    c6a3:	48 8d 85 b0 e0 ff ff 	lea    -0x1f50(%rbp),%rax
    c6aa:	48 89 85 28 fe ff ff 	mov    %rax,-0x1d8(%rbp)
    c6b1:	48 8d 85 b0 e0 ff ff 	lea    -0x1f50(%rbp),%rax
    c6b8:	48 89 85 30 fe ff ff 	mov    %rax,-0x1d0(%rbp)
    c6bf:	48 8d 85 b0 e0 ff ff 	lea    -0x1f50(%rbp),%rax
    c6c6:	48 89 85 38 fe ff ff 	mov    %rax,-0x1c8(%rbp)
    c6cd:	48 8d 85 b0 e0 ff ff 	lea    -0x1f50(%rbp),%rax
    c6d4:	48 89 85 40 fe ff ff 	mov    %rax,-0x1c0(%rbp)
    c6db:	48 8d 85 b0 e0 ff ff 	lea    -0x1f50(%rbp),%rax
    c6e2:	48 89 85 48 fe ff ff 	mov    %rax,-0x1b8(%rbp)
    c6e9:	48 8d 85 b0 e0 ff ff 	lea    -0x1f50(%rbp),%rax
    c6f0:	48 89 85 50 fe ff ff 	mov    %rax,-0x1b0(%rbp)
    c6f7:	48 8d 85 b0 e0 ff ff 	lea    -0x1f50(%rbp),%rax
    c6fe:	48 89 85 58 fe ff ff 	mov    %rax,-0x1a8(%rbp)
    c705:	48 8d 85 b0 e0 ff ff 	lea    -0x1f50(%rbp),%rax
    c70c:	48 89 85 60 fe ff ff 	mov    %rax,-0x1a0(%rbp)
    c713:	48 c7 85 68 fe ff ff 	movq   $0x0,-0x198(%rbp)
    c71a:	00 00 00 00 
    c71e:	48 8d 85 b0 e0 ff ff 	lea    -0x1f50(%rbp),%rax
    c725:	48 89 85 70 fe ff ff 	mov    %rax,-0x190(%rbp)
    c72c:	48 8d 85 b0 e0 ff ff 	lea    -0x1f50(%rbp),%rax
    c733:	48 89 85 78 fe ff ff 	mov    %rax,-0x188(%rbp)
    c73a:	48 8d 85 b0 e0 ff ff 	lea    -0x1f50(%rbp),%rax
    c741:	48 89 85 80 fe ff ff 	mov    %rax,-0x180(%rbp)
    c748:	48 8d 85 b0 e0 ff ff 	lea    -0x1f50(%rbp),%rax
    c74f:	48 89 85 88 fe ff ff 	mov    %rax,-0x178(%rbp)
    c756:	48 8d 85 b0 e0 ff ff 	lea    -0x1f50(%rbp),%rax
    c75d:	48 89 85 90 fe ff ff 	mov    %rax,-0x170(%rbp)
    c764:	48 c7 85 98 fe ff ff 	movq   $0x0,-0x168(%rbp)
    c76b:	00 00 00 00 
    c76f:	48 8d 85 b0 e0 ff ff 	lea    -0x1f50(%rbp),%rax
    c776:	48 89 85 a0 fe ff ff 	mov    %rax,-0x160(%rbp)
    c77d:	48 8d 85 b0 e0 ff ff 	lea    -0x1f50(%rbp),%rax
    c784:	48 89 85 a8 fe ff ff 	mov    %rax,-0x158(%rbp)
    c78b:	48 c7 85 b0 fe ff ff 	movq   $0x0,-0x150(%rbp)
    c792:	00 00 00 00 
    c796:	48 c7 85 b8 fe ff ff 	movq   $0x0,-0x148(%rbp)
    c79d:	00 00 00 00 
    c7a1:	48 8d 85 b0 e0 ff ff 	lea    -0x1f50(%rbp),%rax
    c7a8:	48 89 85 c0 fe ff ff 	mov    %rax,-0x140(%rbp)
    c7af:	48 c7 85 c8 fe ff ff 	movq   $0x0,-0x138(%rbp)
    c7b6:	00 00 00 00 
    c7ba:	48 c7 85 d0 fe ff ff 	movq   $0x0,-0x130(%rbp)
    c7c1:	00 00 00 00 
    c7c5:	48 8d 85 b0 e0 ff ff 	lea    -0x1f50(%rbp),%rax
    c7cc:	48 89 85 d8 fe ff ff 	mov    %rax,-0x128(%rbp)
    c7d3:	48 8d 85 b0 e0 ff ff 	lea    -0x1f50(%rbp),%rax
    c7da:	48 89 85 e0 fe ff ff 	mov    %rax,-0x120(%rbp)
    c7e1:	48 8d 85 b0 e0 ff ff 	lea    -0x1f50(%rbp),%rax
    c7e8:	48 89 85 e8 fe ff ff 	mov    %rax,-0x118(%rbp)
    c7ef:	48 8d 85 b0 e0 ff ff 	lea    -0x1f50(%rbp),%rax
    c7f6:	48 89 85 f0 fe ff ff 	mov    %rax,-0x110(%rbp)
    c7fd:	48 8d 85 b0 e0 ff ff 	lea    -0x1f50(%rbp),%rax
    c804:	48 89 85 f8 fe ff ff 	mov    %rax,-0x108(%rbp)
    c80b:	48 8d 85 b0 e0 ff ff 	lea    -0x1f50(%rbp),%rax
    c812:	48 89 85 00 ff ff ff 	mov    %rax,-0x100(%rbp)
    c819:	48 8d 85 b0 e0 ff ff 	lea    -0x1f50(%rbp),%rax
    c820:	48 89 85 08 ff ff ff 	mov    %rax,-0xf8(%rbp)
    c827:	48 8d 85 b0 e0 ff ff 	lea    -0x1f50(%rbp),%rax
    c82e:	48 89 85 10 ff ff ff 	mov    %rax,-0xf0(%rbp)
    c835:	48 8d 85 b0 e0 ff ff 	lea    -0x1f50(%rbp),%rax
    c83c:	48 89 85 18 ff ff ff 	mov    %rax,-0xe8(%rbp)
    c843:	48 c7 85 20 ff ff ff 	movq   $0x0,-0xe0(%rbp)
    c84a:	00 00 00 00 
    c84e:	48 8d 85 b0 e0 ff ff 	lea    -0x1f50(%rbp),%rax
    c855:	48 89 85 28 ff ff ff 	mov    %rax,-0xd8(%rbp)
    c85c:	48 8d 85 b0 e0 ff ff 	lea    -0x1f50(%rbp),%rax
    c863:	48 89 85 30 ff ff ff 	mov    %rax,-0xd0(%rbp)
    c86a:	48 8d 85 b0 e0 ff ff 	lea    -0x1f50(%rbp),%rax
    c871:	48 89 85 38 ff ff ff 	mov    %rax,-0xc8(%rbp)
    c878:	48 c7 85 40 ff ff ff 	movq   $0x0,-0xc0(%rbp)
    c87f:	00 00 00 00 
    c883:	48 8d 85 b0 e0 ff ff 	lea    -0x1f50(%rbp),%rax
    c88a:	48 89 85 48 ff ff ff 	mov    %rax,-0xb8(%rbp)
    c891:	48 8d 85 b0 e0 ff ff 	lea    -0x1f50(%rbp),%rax
    c898:	48 89 85 50 ff ff ff 	mov    %rax,-0xb0(%rbp)
    c89f:	48 8d 85 b0 e0 ff ff 	lea    -0x1f50(%rbp),%rax
    c8a6:	48 89 85 58 ff ff ff 	mov    %rax,-0xa8(%rbp)
    c8ad:	48 8d 85 b0 e0 ff ff 	lea    -0x1f50(%rbp),%rax
    c8b4:	48 89 85 60 ff ff ff 	mov    %rax,-0xa0(%rbp)
    c8bb:	48 8d 85 b0 e0 ff ff 	lea    -0x1f50(%rbp),%rax
    c8c2:	48 89 85 68 ff ff ff 	mov    %rax,-0x98(%rbp)
    c8c9:	48 c7 85 70 ff ff ff 	movq   $0x0,-0x90(%rbp)
    c8d0:	00 00 00 00 
    c8d4:	48 8d 85 b0 e0 ff ff 	lea    -0x1f50(%rbp),%rax
    c8db:	48 89 85 78 ff ff ff 	mov    %rax,-0x88(%rbp)
    c8e2:	48 8d 85 b0 e0 ff ff 	lea    -0x1f50(%rbp),%rax
    c8e9:	48 89 45 80          	mov    %rax,-0x80(%rbp)
    c8ed:	48 8d 85 b0 e0 ff ff 	lea    -0x1f50(%rbp),%rax
    c8f4:	48 89 45 88          	mov    %rax,-0x78(%rbp)
    c8f8:	48 c7 45 90 00 00 00 	movq   $0x0,-0x70(%rbp)
    c8ff:	00 
    c900:	48 8d 85 b0 e0 ff ff 	lea    -0x1f50(%rbp),%rax
    c907:	48 89 45 98          	mov    %rax,-0x68(%rbp)
    c90b:	48 8d 85 b0 e0 ff ff 	lea    -0x1f50(%rbp),%rax
    c912:	48 89 45 a0          	mov    %rax,-0x60(%rbp)
    c916:	48 c7 45 a8 00 00 00 	movq   $0x0,-0x58(%rbp)
    c91d:	00 
    c91e:	48 8d 05 43 bc 00 00 	lea    0xbc43(%rip),%rax        # 18568 <g_34>
    c925:	48 89 85 b8 e0 ff ff 	mov    %rax,-0x1f48(%rbp)
    c92c:	48 c7 85 08 e1 ff ff 	movq   $0x0,-0x1ef8(%rbp)
    c933:	00 00 00 00 
    c937:	48 8d 05 fa 8a 00 00 	lea    0x8afa(%rip),%rax        # 15438 <g_85>
    c93e:	48 89 85 10 e1 ff ff 	mov    %rax,-0x1ef0(%rbp)
    c945:	c7 85 14 e0 ff ff 1d 	movl   $0x966a2c1d,-0x1fec(%rbp)
    c94c:	2c 6a 96 
    c94f:	c7 85 bc df ff ff f1 	movl   $0x420c74f1,-0x2044(%rbp)
    c956:	74 0c 42 
    c959:	c7 85 18 e0 ff ff 01 	movl   $0x1,-0x1fe8(%rbp)
    c960:	00 00 00 
    c963:	c7 85 20 e3 ff ff 00 	movl   $0x0,-0x1ce0(%rbp)
    c96a:	00 00 00 
    c96d:	c7 85 24 e3 ff ff 00 	movl   $0x0,-0x1cdc(%rbp)
    c974:	00 00 00 
    c977:	c7 85 28 e3 ff ff 00 	movl   $0x0,-0x1cd8(%rbp)
    c97e:	00 00 00 
    c981:	c7 85 2c e3 ff ff 00 	movl   $0x0,-0x1cd4(%rbp)
    c988:	00 00 00 
    c98b:	c7 85 30 e3 ff ff 00 	movl   $0x0,-0x1cd0(%rbp)
    c992:	00 00 00 
    c995:	c7 85 34 e3 ff ff 5f 	movl   $0xb21c925f,-0x1ccc(%rbp)
    c99c:	92 1c b2 
    c99f:	c7 85 38 e3 ff ff 5f 	movl   $0xb21c925f,-0x1cc8(%rbp)
    c9a6:	92 1c b2 
    c9a9:	c7 85 3c e3 ff ff 5f 	movl   $0xb21c925f,-0x1cc4(%rbp)
    c9b0:	92 1c b2 
    c9b3:	c7 85 40 e3 ff ff 5f 	movl   $0xb21c925f,-0x1cc0(%rbp)
    c9ba:	92 1c b2 
    c9bd:	c7 85 44 e3 ff ff 5f 	movl   $0xb21c925f,-0x1cbc(%rbp)
    c9c4:	92 1c b2 
    c9c7:	c7 85 48 e3 ff ff 00 	movl   $0x0,-0x1cb8(%rbp)
    c9ce:	00 00 00 
    c9d1:	c7 85 4c e3 ff ff 00 	movl   $0x0,-0x1cb4(%rbp)
    c9d8:	00 00 00 
    c9db:	c7 85 50 e3 ff ff 00 	movl   $0x0,-0x1cb0(%rbp)
    c9e2:	00 00 00 
    c9e5:	c7 85 54 e3 ff ff 00 	movl   $0x0,-0x1cac(%rbp)
    c9ec:	00 00 00 
    c9ef:	c7 85 58 e3 ff ff 00 	movl   $0x0,-0x1ca8(%rbp)
    c9f6:	00 00 00 
    c9f9:	c7 85 5c e3 ff ff 5f 	movl   $0xb21c925f,-0x1ca4(%rbp)
    ca00:	92 1c b2 
    ca03:	c7 85 60 e3 ff ff 5f 	movl   $0xb21c925f,-0x1ca0(%rbp)
    ca0a:	92 1c b2 
    ca0d:	c7 85 64 e3 ff ff 5f 	movl   $0xb21c925f,-0x1c9c(%rbp)
    ca14:	92 1c b2 
    ca17:	c7 85 68 e3 ff ff 5f 	movl   $0xb21c925f,-0x1c98(%rbp)
    ca1e:	92 1c b2 
    ca21:	c7 85 6c e3 ff ff 5f 	movl   $0xb21c925f,-0x1c94(%rbp)
    ca28:	92 1c b2 
    ca2b:	c7 85 70 e3 ff ff 00 	movl   $0x0,-0x1c90(%rbp)
    ca32:	00 00 00 
    ca35:	c7 85 74 e3 ff ff 00 	movl   $0x0,-0x1c8c(%rbp)
    ca3c:	00 00 00 
    ca3f:	c7 85 78 e3 ff ff 00 	movl   $0x0,-0x1c88(%rbp)
    ca46:	00 00 00 
    ca49:	c7 85 7c e3 ff ff 00 	movl   $0x0,-0x1c84(%rbp)
    ca50:	00 00 00 
    ca53:	c7 85 80 e3 ff ff 00 	movl   $0x0,-0x1c80(%rbp)
    ca5a:	00 00 00 
    ca5d:	c7 85 84 e3 ff ff 5f 	movl   $0xb21c925f,-0x1c7c(%rbp)
    ca64:	92 1c b2 
    ca67:	c7 85 88 e3 ff ff 5f 	movl   $0xb21c925f,-0x1c78(%rbp)
    ca6e:	92 1c b2 
    ca71:	c7 85 8c e3 ff ff 5f 	movl   $0xb21c925f,-0x1c74(%rbp)
    ca78:	92 1c b2 
    ca7b:	c7 85 90 e3 ff ff 5f 	movl   $0xb21c925f,-0x1c70(%rbp)
    ca82:	92 1c b2 
    ca85:	c7 85 94 e3 ff ff 5f 	movl   $0xb21c925f,-0x1c6c(%rbp)
    ca8c:	92 1c b2 
    ca8f:	c7 85 98 e3 ff ff 00 	movl   $0x0,-0x1c68(%rbp)
    ca96:	00 00 00 
    ca99:	c7 85 9c e3 ff ff 00 	movl   $0x0,-0x1c64(%rbp)
    caa0:	00 00 00 
    caa3:	c7 85 a0 e3 ff ff 00 	movl   $0x0,-0x1c60(%rbp)
    caaa:	00 00 00 
    caad:	c7 85 a4 e3 ff ff 00 	movl   $0x0,-0x1c5c(%rbp)
    cab4:	00 00 00 
    cab7:	c7 85 a8 e3 ff ff 00 	movl   $0x0,-0x1c58(%rbp)
    cabe:	00 00 00 
    cac1:	c7 85 ac e3 ff ff 5f 	movl   $0xb21c925f,-0x1c54(%rbp)
    cac8:	92 1c b2 
    cacb:	c7 85 b0 e3 ff ff 5f 	movl   $0xb21c925f,-0x1c50(%rbp)
    cad2:	92 1c b2 
    cad5:	c7 85 b4 e3 ff ff 5f 	movl   $0xb21c925f,-0x1c4c(%rbp)
    cadc:	92 1c b2 
    cadf:	c7 85 b8 e3 ff ff 5f 	movl   $0xb21c925f,-0x1c48(%rbp)
    cae6:	92 1c b2 
    cae9:	c7 85 bc e3 ff ff 5f 	movl   $0xb21c925f,-0x1c44(%rbp)
    caf0:	92 1c b2 
    caf3:	c7 85 c0 e3 ff ff 00 	movl   $0x0,-0x1c40(%rbp)
    cafa:	00 00 00 
    cafd:	c7 85 c4 e3 ff ff 00 	movl   $0x0,-0x1c3c(%rbp)
    cb04:	00 00 00 
    cb07:	c7 85 c8 e3 ff ff 00 	movl   $0x0,-0x1c38(%rbp)
    cb0e:	00 00 00 
    cb11:	c7 85 cc e3 ff ff 00 	movl   $0x0,-0x1c34(%rbp)
    cb18:	00 00 00 
    cb1b:	c7 85 d0 e3 ff ff 00 	movl   $0x0,-0x1c30(%rbp)
    cb22:	00 00 00 
    cb25:	c7 85 d4 e3 ff ff 5f 	movl   $0xb21c925f,-0x1c2c(%rbp)
    cb2c:	92 1c b2 
    cb2f:	c7 85 d8 e3 ff ff 5f 	movl   $0xb21c925f,-0x1c28(%rbp)
    cb36:	92 1c b2 
    cb39:	c7 85 dc e3 ff ff 5f 	movl   $0xb21c925f,-0x1c24(%rbp)
    cb40:	92 1c b2 
    cb43:	c7 85 e0 e3 ff ff 5f 	movl   $0xb21c925f,-0x1c20(%rbp)
    cb4a:	92 1c b2 
    cb4d:	c7 85 e4 e3 ff ff 5f 	movl   $0xb21c925f,-0x1c1c(%rbp)
    cb54:	92 1c b2 
    cb57:	c7 85 e8 e3 ff ff 00 	movl   $0x0,-0x1c18(%rbp)
    cb5e:	00 00 00 
    cb61:	c7 85 ec e3 ff ff 00 	movl   $0x0,-0x1c14(%rbp)
    cb68:	00 00 00 
    cb6b:	c7 85 f0 e3 ff ff 00 	movl   $0x0,-0x1c10(%rbp)
    cb72:	00 00 00 
    cb75:	c7 85 f4 e3 ff ff 00 	movl   $0x0,-0x1c0c(%rbp)
    cb7c:	00 00 00 
    cb7f:	c7 85 f8 e3 ff ff 00 	movl   $0x0,-0x1c08(%rbp)
    cb86:	00 00 00 
    cb89:	c7 85 fc e3 ff ff 5f 	movl   $0xb21c925f,-0x1c04(%rbp)
    cb90:	92 1c b2 
    cb93:	c7 85 00 e4 ff ff 5f 	movl   $0xb21c925f,-0x1c00(%rbp)
    cb9a:	92 1c b2 
    cb9d:	c7 85 04 e4 ff ff 5f 	movl   $0xb21c925f,-0x1bfc(%rbp)
    cba4:	92 1c b2 
    cba7:	c7 85 08 e4 ff ff 5f 	movl   $0xb21c925f,-0x1bf8(%rbp)
    cbae:	92 1c b2 
    cbb1:	c7 85 0c e4 ff ff 5f 	movl   $0xb21c925f,-0x1bf4(%rbp)
    cbb8:	92 1c b2 
    cbbb:	c6 85 9e df ff ff 01 	movb   $0x1,-0x2062(%rbp)
    cbc2:	c7 85 1c e0 ff ff f2 	movl   $0xd9a134f2,-0x1fe4(%rbp)
    cbc9:	34 a1 d9 
    cbcc:	c6 85 9f df ff ff 05 	movb   $0x5,-0x2061(%rbp)
    cbd3:	c7 85 00 e0 ff ff 00 	movl   $0x0,-0x2000(%rbp)
    cbda:	00 00 00 
    cbdd:	eb 21                	jmp    cc00 <func_47+0x356e>
    cbdf:	8b 85 00 e0 ff ff    	mov    -0x2000(%rbp),%eax
    cbe5:	48 98                	cltq   
    cbe7:	48 bb 62 eb f2 74 45 	movabs $0x308e5f4574f2eb62,%rbx
    cbee:	5f 8e 30 
    cbf1:	48 89 9c c5 e0 e2 ff 	mov    %rbx,-0x1d20(%rbp,%rax,8)
    cbf8:	ff 
    cbf9:	83 85 00 e0 ff ff 01 	addl   $0x1,-0x2000(%rbp)
    cc00:	83 bd 00 e0 ff ff 06 	cmpl   $0x6,-0x2000(%rbp)
    cc07:	7e d6                	jle    cbdf <func_47+0x354d>
    cc09:	0f b7 85 a4 df ff ff 	movzwl -0x205c(%rbp),%eax
    cc10:	88 85 9d df ff ff    	mov    %al,-0x2063(%rbp)
    cc16:	48 8b 05 2b a5 00 00 	mov    0xa52b(%rip),%rax        # 17148 <g_1214>
    cc1d:	48 8b 00             	mov    (%rax),%rax
    cc20:	0f b7 00             	movzwl (%rax),%eax
    cc23:	0f bf d8             	movswl %ax,%ebx
    cc26:	44 0f be a5 9d df ff 	movsbl -0x2063(%rbp),%r12d
    cc2d:	ff 
    cc2e:	48 8b 05 43 a4 00 00 	mov    0xa443(%rip),%rax        # 17078 <g_637>
    cc35:	0f b7 00             	movzwl (%rax),%eax
    cc38:	66 85 c0             	test   %ax,%ax
    cc3b:	0f 85 bd 00 00 00    	jne    ccfe <func_47+0x366c>
    cc41:	48 8b 05 78 a4 00 00 	mov    0xa478(%rip),%rax        # 170c0 <g_1047>
    cc48:	48 8b 00             	mov    (%rax),%rax
    cc4b:	0f b6 00             	movzbl (%rax),%eax
    cc4e:	84 c0                	test   %al,%al
    cc50:	0f 84 81 00 00 00    	je     ccd7 <func_47+0x3645>
    cc56:	0f b6 85 9d df ff ff 	movzbl -0x2063(%rbp),%eax
    cc5d:	f7 d0                	not    %eax
    cc5f:	c0 e8 07             	shr    $0x7,%al
    cc62:	0f b6 c0             	movzbl %al,%eax
    cc65:	be 05 00 00 00       	mov    $0x5,%esi
    cc6a:	89 c7                	mov    %eax,%edi
    cc6c:	e8 4d b0 ff ff       	callq  7cbe <safe_rshift_func_uint8_t_u_u>
    cc71:	48 8b 95 60 fd ff ff 	mov    -0x2a0(%rbp),%rdx
    cc78:	48 8d 85 b0 e0 ff ff 	lea    -0x1f50(%rbp),%rax
    cc7f:	48 39 c2             	cmp    %rax,%rdx
    cc82:	0f 95 c1             	setne  %cl
    cc85:	48 8b 85 b8 e0 ff ff 	mov    -0x1f48(%rbp),%rax
    cc8c:	0f be 95 9d df ff ff 	movsbl -0x2063(%rbp),%edx
    cc93:	89 10                	mov    %edx,(%rax)
    cc95:	48 8b 85 10 e1 ff ff 	mov    -0x1ef0(%rbp),%rax
    cc9c:	48 c7 00 00 00 00 00 	movq   $0x0,(%rax)
    cca3:	48 8b 85 10 e1 ff ff 	mov    -0x1ef0(%rbp),%rax
    ccaa:	48 8b 10             	mov    (%rax),%rdx
    ccad:	48 0f be 85 9d df ff 	movsbq -0x2063(%rbp),%rax
    ccb4:	ff 
    ccb5:	48 39 c2             	cmp    %rax,%rdx
    ccb8:	0f 95 c0             	setne  %al
    ccbb:	31 c8                	xor    %ecx,%eax
    ccbd:	0f b6 c0             	movzbl %al,%eax
    ccc0:	39 85 e8 df ff ff    	cmp    %eax,-0x2018(%rbp)
    ccc6:	0f 95 c2             	setne  %dl
    ccc9:	48 8b 05 88 a3 00 00 	mov    0xa388(%rip),%rax        # 17058 <g_450>
    ccd0:	88 10                	mov    %dl,(%rax)
    ccd2:	0f b6 00             	movzbl (%rax),%eax
    ccd5:	84 c0                	test   %al,%al
    ccd7:	48 8b 85 b8 e0 ff ff 	mov    -0x1f48(%rbp),%rax
    ccde:	8b 10                	mov    (%rax),%edx
    cce0:	8b 85 ec e1 ff ff    	mov    -0x1e14(%rbp),%eax
    cce6:	39 c2                	cmp    %eax,%edx
    cce8:	0f 9f c0             	setg   %al
    cceb:	0f b6 c0             	movzbl %al,%eax
    ccee:	be d2 fe 2d eb       	mov    $0xeb2dfed2,%esi
    ccf3:	89 c7                	mov    %eax,%edi
    ccf5:	e8 bc a8 ff ff       	callq  75b6 <safe_add_func_int32_t_s_s>
    ccfa:	85 c0                	test   %eax,%eax
    ccfc:	74 07                	je     cd05 <func_47+0x3673>
    ccfe:	b8 01 00 00 00       	mov    $0x1,%eax
    cd03:	eb 05                	jmp    cd0a <func_47+0x3678>
    cd05:	b8 00 00 00 00       	mov    $0x0,%eax
    cd0a:	48 63 d0             	movslq %eax,%rdx
    cd0d:	48 8b 05 44 8a 00 00 	mov    0x8a44(%rip),%rax        # 15758 <g_569+0x1b8>
    cd14:	48 31 c2             	xor    %rax,%rdx
    cd17:	8b 85 14 e0 ff ff    	mov    -0x1fec(%rbp),%eax
    cd1d:	48 98                	cltq   
    cd1f:	48 39 c2             	cmp    %rax,%rdx
    cd22:	0f 95 c0             	setne  %al
    cd25:	0f b6 c0             	movzbl %al,%eax
    cd28:	41 39 c4             	cmp    %eax,%r12d
    cd2b:	0f 95 c0             	setne  %al
    cd2e:	0f b6 c0             	movzbl %al,%eax
    cd31:	89 de                	mov    %ebx,%esi
    cd33:	89 c7                	mov    %eax,%edi
    cd35:	e8 bb a6 ff ff       	callq  73f5 <safe_mul_func_int16_t_s_s>
    cd3a:	f7 d0                	not    %eax
    cd3c:	48 0f bf d0          	movswq %ax,%rdx
    cd40:	48 8b 05 01 a3 00 00 	mov    0xa301(%rip),%rax        # 17048 <g_414>
    cd47:	8b 00                	mov    (%rax),%eax
    cd49:	89 c0                	mov    %eax,%eax
    cd4b:	48 39 c2             	cmp    %rax,%rdx
    cd4e:	0f 8d 7d 22 00 00    	jge    efd1 <func_47+0x593f>
    cd54:	48 8d 85 98 e0 ff ff 	lea    -0x1f68(%rbp),%rax
    cd5b:	48 89 85 80 e5 ff ff 	mov    %rax,-0x1a80(%rbp)
    cd62:	48 8d 85 98 e0 ff ff 	lea    -0x1f68(%rbp),%rax
    cd69:	48 89 85 88 e5 ff ff 	mov    %rax,-0x1a78(%rbp)
    cd70:	48 c7 85 90 e5 ff ff 	movq   $0x0,-0x1a70(%rbp)
    cd77:	00 00 00 00 
    cd7b:	48 8d 85 98 e0 ff ff 	lea    -0x1f68(%rbp),%rax
    cd82:	48 89 85 98 e5 ff ff 	mov    %rax,-0x1a68(%rbp)
    cd89:	48 8d 85 98 e0 ff ff 	lea    -0x1f68(%rbp),%rax
    cd90:	48 89 85 a0 e5 ff ff 	mov    %rax,-0x1a60(%rbp)
    cd97:	48 c7 85 a8 e5 ff ff 	movq   $0x0,-0x1a58(%rbp)
    cd9e:	00 00 00 00 
    cda2:	48 8d 05 e7 88 00 00 	lea    0x88e7(%rip),%rax        # 15690 <g_569+0xf0>
    cda9:	48 89 85 b0 e5 ff ff 	mov    %rax,-0x1a50(%rbp)
    cdb0:	48 8d 05 d9 88 00 00 	lea    0x88d9(%rip),%rax        # 15690 <g_569+0xf0>
    cdb7:	48 89 85 b8 e5 ff ff 	mov    %rax,-0x1a48(%rbp)
    cdbe:	48 8d 05 b3 89 00 00 	lea    0x89b3(%rip),%rax        # 15778 <g_569+0x1d8>
    cdc5:	48 89 85 c0 e5 ff ff 	mov    %rax,-0x1a40(%rbp)
    cdcc:	48 8d 85 98 e0 ff ff 	lea    -0x1f68(%rbp),%rax
    cdd3:	48 89 85 c8 e5 ff ff 	mov    %rax,-0x1a38(%rbp)
    cdda:	48 8d 85 90 e0 ff ff 	lea    -0x1f70(%rbp),%rax
    cde1:	48 89 85 d0 e5 ff ff 	mov    %rax,-0x1a30(%rbp)
    cde8:	48 8d 85 90 e0 ff ff 	lea    -0x1f70(%rbp),%rax
    cdef:	48 89 85 d8 e5 ff ff 	mov    %rax,-0x1a28(%rbp)
    cdf6:	48 8d 85 98 e0 ff ff 	lea    -0x1f68(%rbp),%rax
    cdfd:	48 89 85 e0 e5 ff ff 	mov    %rax,-0x1a20(%rbp)
    ce04:	48 8d 05 6d 89 00 00 	lea    0x896d(%rip),%rax        # 15778 <g_569+0x1d8>
    ce0b:	48 89 85 e8 e5 ff ff 	mov    %rax,-0x1a18(%rbp)
    ce12:	48 8d 05 07 8a 00 00 	lea    0x8a07(%rip),%rax        # 15820 <g_569+0x280>
    ce19:	48 89 85 f0 e5 ff ff 	mov    %rax,-0x1a10(%rbp)
    ce20:	48 8d 85 98 e0 ff ff 	lea    -0x1f68(%rbp),%rax
    ce27:	48 89 85 f8 e5 ff ff 	mov    %rax,-0x1a08(%rbp)
    ce2e:	48 8d 05 5b 88 00 00 	lea    0x885b(%rip),%rax        # 15690 <g_569+0xf0>
    ce35:	48 89 85 00 e6 ff ff 	mov    %rax,-0x1a00(%rbp)
    ce3c:	48 8d 05 dd 89 00 00 	lea    0x89dd(%rip),%rax        # 15820 <g_569+0x280>
    ce43:	48 89 85 08 e6 ff ff 	mov    %rax,-0x19f8(%rbp)
    ce4a:	48 8d 85 90 e0 ff ff 	lea    -0x1f70(%rbp),%rax
    ce51:	48 89 85 10 e6 ff ff 	mov    %rax,-0x19f0(%rbp)
    ce58:	48 8d 05 31 88 00 00 	lea    0x8831(%rip),%rax        # 15690 <g_569+0xf0>
    ce5f:	48 89 85 18 e6 ff ff 	mov    %rax,-0x19e8(%rbp)
    ce66:	48 8d 85 90 e0 ff ff 	lea    -0x1f70(%rbp),%rax
    ce6d:	48 89 85 20 e6 ff ff 	mov    %rax,-0x19e0(%rbp)
    ce74:	48 8d 05 a5 89 00 00 	lea    0x89a5(%rip),%rax        # 15820 <g_569+0x280>
    ce7b:	48 89 85 28 e6 ff ff 	mov    %rax,-0x19d8(%rbp)
    ce82:	48 8d 05 07 88 00 00 	lea    0x8807(%rip),%rax        # 15690 <g_569+0xf0>
    ce89:	48 89 85 30 e6 ff ff 	mov    %rax,-0x19d0(%rbp)
    ce90:	48 8d 05 e1 88 00 00 	lea    0x88e1(%rip),%rax        # 15778 <g_569+0x1d8>
    ce97:	48 89 85 38 e6 ff ff 	mov    %rax,-0x19c8(%rbp)
    ce9e:	48 8d 85 98 e0 ff ff 	lea    -0x1f68(%rbp),%rax
    cea5:	48 89 85 40 e6 ff ff 	mov    %rax,-0x19c0(%rbp)
    ceac:	48 8d 85 98 e0 ff ff 	lea    -0x1f68(%rbp),%rax
    ceb3:	48 89 85 48 e6 ff ff 	mov    %rax,-0x19b8(%rbp)
    ceba:	48 c7 85 50 e6 ff ff 	movq   $0x0,-0x19b0(%rbp)
    cec1:	00 00 00 00 
    cec5:	48 8d 05 c4 87 00 00 	lea    0x87c4(%rip),%rax        # 15690 <g_569+0xf0>
    cecc:	48 89 85 58 e6 ff ff 	mov    %rax,-0x19a8(%rbp)
    ced3:	48 8d 05 b6 87 00 00 	lea    0x87b6(%rip),%rax        # 15690 <g_569+0xf0>
    ceda:	48 89 85 60 e6 ff ff 	mov    %rax,-0x19a0(%rbp)
    cee1:	48 c7 85 68 e6 ff ff 	movq   $0x0,-0x1998(%rbp)
    cee8:	00 00 00 00 
    ceec:	48 8d 85 98 e0 ff ff 	lea    -0x1f68(%rbp),%rax
    cef3:	48 89 85 70 e6 ff ff 	mov    %rax,-0x1990(%rbp)
    cefa:	48 8d 85 98 e0 ff ff 	lea    -0x1f68(%rbp),%rax
    cf01:	48 89 85 78 e6 ff ff 	mov    %rax,-0x1988(%rbp)
    cf08:	48 8d 05 69 88 00 00 	lea    0x8869(%rip),%rax        # 15778 <g_569+0x1d8>
    cf0f:	48 89 85 80 e6 ff ff 	mov    %rax,-0x1980(%rbp)
    cf16:	48 8d 05 73 87 00 00 	lea    0x8773(%rip),%rax        # 15690 <g_569+0xf0>
    cf1d:	48 89 85 88 e6 ff ff 	mov    %rax,-0x1978(%rbp)
    cf24:	48 8d 05 f5 88 00 00 	lea    0x88f5(%rip),%rax        # 15820 <g_569+0x280>
    cf2b:	48 89 85 90 e6 ff ff 	mov    %rax,-0x1970(%rbp)
    cf32:	48 8d 85 90 e0 ff ff 	lea    -0x1f70(%rbp),%rax
    cf39:	48 89 85 98 e6 ff ff 	mov    %rax,-0x1968(%rbp)
    cf40:	48 8d 05 49 87 00 00 	lea    0x8749(%rip),%rax        # 15690 <g_569+0xf0>
    cf47:	48 89 85 a0 e6 ff ff 	mov    %rax,-0x1960(%rbp)
    cf4e:	48 8d 85 90 e0 ff ff 	lea    -0x1f70(%rbp),%rax
    cf55:	48 89 85 a8 e6 ff ff 	mov    %rax,-0x1958(%rbp)
    cf5c:	48 8d 05 bd 88 00 00 	lea    0x88bd(%rip),%rax        # 15820 <g_569+0x280>
    cf63:	48 89 85 b0 e6 ff ff 	mov    %rax,-0x1950(%rbp)
    cf6a:	48 8d 05 1f 87 00 00 	lea    0x871f(%rip),%rax        # 15690 <g_569+0xf0>
    cf71:	48 89 85 b8 e6 ff ff 	mov    %rax,-0x1948(%rbp)
    cf78:	48 8d 85 98 e0 ff ff 	lea    -0x1f68(%rbp),%rax
    cf7f:	48 89 85 c0 e6 ff ff 	mov    %rax,-0x1940(%rbp)
    cf86:	48 8d 05 93 88 00 00 	lea    0x8893(%rip),%rax        # 15820 <g_569+0x280>
    cf8d:	48 89 85 c8 e6 ff ff 	mov    %rax,-0x1938(%rbp)
    cf94:	48 8d 05 dd 87 00 00 	lea    0x87dd(%rip),%rax        # 15778 <g_569+0x1d8>
    cf9b:	48 89 85 d0 e6 ff ff 	mov    %rax,-0x1930(%rbp)
    cfa2:	48 8d 85 98 e0 ff ff 	lea    -0x1f68(%rbp),%rax
    cfa9:	48 89 85 d8 e6 ff ff 	mov    %rax,-0x1928(%rbp)
    cfb0:	48 8d 85 90 e0 ff ff 	lea    -0x1f70(%rbp),%rax
    cfb7:	48 89 85 e0 e6 ff ff 	mov    %rax,-0x1920(%rbp)
    cfbe:	48 8d 85 90 e0 ff ff 	lea    -0x1f70(%rbp),%rax
    cfc5:	48 89 85 e8 e6 ff ff 	mov    %rax,-0x1918(%rbp)
    cfcc:	48 8d 85 98 e0 ff ff 	lea    -0x1f68(%rbp),%rax
    cfd3:	48 89 85 f0 e6 ff ff 	mov    %rax,-0x1910(%rbp)
    cfda:	48 8d 05 97 87 00 00 	lea    0x8797(%rip),%rax        # 15778 <g_569+0x1d8>
    cfe1:	48 89 85 f8 e6 ff ff 	mov    %rax,-0x1908(%rbp)
    cfe8:	48 8d 05 a1 86 00 00 	lea    0x86a1(%rip),%rax        # 15690 <g_569+0xf0>
    cfef:	48 89 85 00 e7 ff ff 	mov    %rax,-0x1900(%rbp)
    cff6:	48 8d 05 93 86 00 00 	lea    0x8693(%rip),%rax        # 15690 <g_569+0xf0>
    cffd:	48 89 85 08 e7 ff ff 	mov    %rax,-0x18f8(%rbp)
    d004:	48 8d 05 85 86 00 00 	lea    0x8685(%rip),%rax        # 15690 <g_569+0xf0>
    d00b:	48 89 85 10 e7 ff ff 	mov    %rax,-0x18f0(%rbp)
    d012:	48 8d 05 07 88 00 00 	lea    0x8807(%rip),%rax        # 15820 <g_569+0x280>
    d019:	48 89 85 18 e7 ff ff 	mov    %rax,-0x18e8(%rbp)
    d020:	48 8d 85 90 e0 ff ff 	lea    -0x1f70(%rbp),%rax
    d027:	48 89 85 20 e7 ff ff 	mov    %rax,-0x18e0(%rbp)
    d02e:	48 8d 05 5b 86 00 00 	lea    0x865b(%rip),%rax        # 15690 <g_569+0xf0>
    d035:	48 89 85 28 e7 ff ff 	mov    %rax,-0x18d8(%rbp)
    d03c:	48 8d 85 90 e0 ff ff 	lea    -0x1f70(%rbp),%rax
    d043:	48 89 85 30 e7 ff ff 	mov    %rax,-0x18d0(%rbp)
    d04a:	48 8d 05 cf 87 00 00 	lea    0x87cf(%rip),%rax        # 15820 <g_569+0x280>
    d051:	48 89 85 38 e7 ff ff 	mov    %rax,-0x18c8(%rbp)
    d058:	48 8d 05 e1 87 00 00 	lea    0x87e1(%rip),%rax        # 15840 <g_574>
    d05f:	48 89 85 40 e7 ff ff 	mov    %rax,-0x18c0(%rbp)
    d066:	48 8d 05 b3 87 00 00 	lea    0x87b3(%rip),%rax        # 15820 <g_569+0x280>
    d06d:	48 89 85 48 e7 ff ff 	mov    %rax,-0x18b8(%rbp)
    d074:	48 8d 05 c5 87 00 00 	lea    0x87c5(%rip),%rax        # 15840 <g_574>
    d07b:	48 89 85 50 e7 ff ff 	mov    %rax,-0x18b0(%rbp)
    d082:	48 c7 85 58 e7 ff ff 	movq   $0x0,-0x18a8(%rbp)
    d089:	00 00 00 00 
    d08d:	48 8d 05 8c 87 00 00 	lea    0x878c(%rip),%rax        # 15820 <g_569+0x280>
    d094:	48 89 85 60 e7 ff ff 	mov    %rax,-0x18a0(%rbp)
    d09b:	48 c7 85 68 e7 ff ff 	movq   $0x0,-0x1898(%rbp)
    d0a2:	00 00 00 00 
    d0a6:	48 c7 85 70 e7 ff ff 	movq   $0x0,-0x1890(%rbp)
    d0ad:	00 00 00 00 
    d0b1:	48 8d 05 68 87 00 00 	lea    0x8768(%rip),%rax        # 15820 <g_569+0x280>
    d0b8:	48 89 85 78 e7 ff ff 	mov    %rax,-0x1888(%rbp)
    d0bf:	c7 85 c0 df ff ff ff 	movl   $0xffffffff,-0x2040(%rbp)
    d0c6:	ff ff ff 
    d0c9:	48 c7 85 c0 e0 ff ff 	movq   $0x0,-0x1f40(%rbp)
    d0d0:	00 00 00 00 
    d0d4:	48 b8 6d 96 8d b1 5c 	movabs $0xeeeafb5cb18d966d,%rax
    d0db:	fb ea ee 
    d0de:	48 89 85 18 e1 ff ff 	mov    %rax,-0x1ee8(%rbp)
    d0e5:	66 c7 85 b0 df ff ff 	movw   $0xc39d,-0x2050(%rbp)
    d0ec:	9d c3 
    d0ee:	c7 85 c4 df ff ff dc 	movl   $0x28ee41dc,-0x203c(%rbp)
    d0f5:	41 ee 28 
    d0f8:	c7 85 c8 df ff ff ff 	movl   $0xffffffff,-0x2038(%rbp)
    d0ff:	ff ff ff 
    d102:	c7 85 20 e0 ff ff 94 	movl   $0xbc11f094,-0x1fe0(%rbp)
    d109:	f0 11 bc 
    d10c:	c7 85 cc df ff ff 2d 	movl   $0x5e565a2d,-0x2034(%rbp)
    d113:	5a 56 5e 
    d116:	c7 85 24 e0 ff ff 00 	movl   $0x0,-0x1fdc(%rbp)
    d11d:	00 00 00 
    d120:	c7 85 28 e0 ff ff 05 	movl   $0x5,-0x1fd8(%rbp)
    d127:	00 00 00 
    d12a:	c7 85 2c e0 ff ff 20 	movl   $0xde0c6820,-0x1fd4(%rbp)
    d131:	68 0c de 
    d134:	c7 85 30 e0 ff ff f8 	movl   $0xfffffff8,-0x1fd0(%rbp)
    d13b:	ff ff ff 
    d13e:	c7 85 d0 df ff ff c5 	movl   $0xee3c3bc5,-0x2030(%rbp)
    d145:	3b 3c ee 
    d148:	c7 85 d4 df ff ff a6 	movl   $0x7f38bfa6,-0x202c(%rbp)
    d14f:	bf 38 7f 
    d152:	c7 85 34 e0 ff ff 00 	movl   $0x0,-0x1fcc(%rbp)
    d159:	00 00 00 
    d15c:	c7 85 d8 df ff ff 76 	movl   $0xa4676376,-0x2028(%rbp)
    d163:	63 67 a4 
    d166:	c7 85 dc df ff ff 03 	movl   $0x3,-0x2024(%rbp)
    d16d:	00 00 00 
    d170:	c7 85 38 e0 ff ff 6a 	movl   $0x6c7a896a,-0x1fc8(%rbp)
    d177:	89 7a 6c 
    d17a:	c7 85 e0 df ff ff 08 	movl   $0x8,-0x2020(%rbp)
    d181:	00 00 00 
    d184:	c7 85 3c e0 ff ff 00 	movl   $0x0,-0x1fc4(%rbp)
    d18b:	00 00 00 
    d18e:	c7 85 40 e0 ff ff 00 	movl   $0x0,-0x1fc0(%rbp)
    d195:	00 00 00 
    d198:	c7 85 44 e0 ff ff fe 	movl   $0xfffffffe,-0x1fbc(%rbp)
    d19f:	ff ff ff 
    d1a2:	48 8d 85 e0 df ff ff 	lea    -0x2020(%rbp),%rax
    d1a9:	48 89 85 a0 f1 ff ff 	mov    %rax,-0xe60(%rbp)
    d1b0:	48 c7 85 a8 f1 ff ff 	movq   $0x0,-0xe58(%rbp)
    d1b7:	00 00 00 00 
    d1bb:	48 8d 85 e0 e1 ff ff 	lea    -0x1e20(%rbp),%rax
    d1c2:	48 83 c0 04          	add    $0x4,%rax
    d1c6:	48 89 85 b0 f1 ff ff 	mov    %rax,-0xe50(%rbp)
    d1cd:	48 c7 85 b8 f1 ff ff 	movq   $0x0,-0xe48(%rbp)
    d1d4:	00 00 00 00 
    d1d8:	48 8d 85 d8 df ff ff 	lea    -0x2028(%rbp),%rax
    d1df:	48 89 85 c0 f1 ff ff 	mov    %rax,-0xe40(%rbp)
    d1e6:	48 8d 85 d0 df ff ff 	lea    -0x2030(%rbp),%rax
    d1ed:	48 89 85 c8 f1 ff ff 	mov    %rax,-0xe38(%rbp)
    d1f4:	48 8d 85 d4 df ff ff 	lea    -0x202c(%rbp),%rax
    d1fb:	48 89 85 d0 f1 ff ff 	mov    %rax,-0xe30(%rbp)
    d202:	48 c7 85 d8 f1 ff ff 	movq   $0x0,-0xe28(%rbp)
    d209:	00 00 00 00 
    d20d:	48 8d 85 c8 df ff ff 	lea    -0x2038(%rbp),%rax
    d214:	48 89 85 e0 f1 ff ff 	mov    %rax,-0xe20(%rbp)
    d21b:	48 c7 85 e8 f1 ff ff 	movq   $0x0,-0xe18(%rbp)
    d222:	00 00 00 00 
    d226:	48 8d 85 d0 df ff ff 	lea    -0x2030(%rbp),%rax
    d22d:	48 89 85 f0 f1 ff ff 	mov    %rax,-0xe10(%rbp)
    d234:	48 8d 85 d4 df ff ff 	lea    -0x202c(%rbp),%rax
    d23b:	48 89 85 f8 f1 ff ff 	mov    %rax,-0xe08(%rbp)
    d242:	48 c7 85 00 f2 ff ff 	movq   $0x0,-0xe00(%rbp)
    d249:	00 00 00 00 
    d24d:	48 8d 85 c8 df ff ff 	lea    -0x2038(%rbp),%rax
    d254:	48 89 85 08 f2 ff ff 	mov    %rax,-0xdf8(%rbp)
    d25b:	48 c7 85 10 f2 ff ff 	movq   $0x0,-0xdf0(%rbp)
    d262:	00 00 00 00 
    d266:	48 8d 85 d4 df ff ff 	lea    -0x202c(%rbp),%rax
    d26d:	48 89 85 18 f2 ff ff 	mov    %rax,-0xde8(%rbp)
    d274:	48 8d 85 d0 df ff ff 	lea    -0x2030(%rbp),%rax
    d27b:	48 89 85 20 f2 ff ff 	mov    %rax,-0xde0(%rbp)
    d282:	48 8d 85 d8 df ff ff 	lea    -0x2028(%rbp),%rax
    d289:	48 89 85 28 f2 ff ff 	mov    %rax,-0xdd8(%rbp)
    d290:	48 c7 85 30 f2 ff ff 	movq   $0x0,-0xdd0(%rbp)
    d297:	00 00 00 00 
    d29b:	48 8d 85 e0 e1 ff ff 	lea    -0x1e20(%rbp),%rax
    d2a2:	48 83 c0 04          	add    $0x4,%rax
    d2a6:	48 89 85 38 f2 ff ff 	mov    %rax,-0xdc8(%rbp)
    d2ad:	48 8d 85 20 e3 ff ff 	lea    -0x1ce0(%rbp),%rax
    d2b4:	48 83 c0 50          	add    $0x50,%rax
    d2b8:	48 89 85 40 f2 ff ff 	mov    %rax,-0xdc0(%rbp)
    d2bf:	48 8d 85 cc df ff ff 	lea    -0x2034(%rbp),%rax
    d2c6:	48 89 85 48 f2 ff ff 	mov    %rax,-0xdb8(%rbp)
    d2cd:	48 8d 85 d4 df ff ff 	lea    -0x202c(%rbp),%rax
    d2d4:	48 89 85 50 f2 ff ff 	mov    %rax,-0xdb0(%rbp)
    d2db:	48 c7 85 58 f2 ff ff 	movq   $0x0,-0xda8(%rbp)
    d2e2:	00 00 00 00 
    d2e6:	48 8d 85 c8 df ff ff 	lea    -0x2038(%rbp),%rax
    d2ed:	48 89 85 60 f2 ff ff 	mov    %rax,-0xda0(%rbp)
    d2f4:	48 8d 85 20 e3 ff ff 	lea    -0x1ce0(%rbp),%rax
    d2fb:	48 83 c0 50          	add    $0x50,%rax
    d2ff:	48 89 85 68 f2 ff ff 	mov    %rax,-0xd98(%rbp)
    d306:	48 8d 85 e0 e1 ff ff 	lea    -0x1e20(%rbp),%rax
    d30d:	48 83 c0 04          	add    $0x4,%rax
    d311:	48 89 85 70 f2 ff ff 	mov    %rax,-0xd90(%rbp)
    d318:	48 8d 05 49 b2 00 00 	lea    0xb249(%rip),%rax        # 18568 <g_34>
    d31f:	48 89 85 78 f2 ff ff 	mov    %rax,-0xd88(%rbp)
    d326:	48 8d 85 dc df ff ff 	lea    -0x2024(%rbp),%rax
    d32d:	48 89 85 80 f2 ff ff 	mov    %rax,-0xd80(%rbp)
    d334:	48 8d 85 d8 df ff ff 	lea    -0x2028(%rbp),%rax
    d33b:	48 89 85 88 f2 ff ff 	mov    %rax,-0xd78(%rbp)
    d342:	48 c7 85 90 f2 ff ff 	movq   $0x0,-0xd70(%rbp)
    d349:	00 00 00 00 
    d34d:	48 8d 85 cc df ff ff 	lea    -0x2034(%rbp),%rax
    d354:	48 89 85 98 f2 ff ff 	mov    %rax,-0xd68(%rbp)
    d35b:	48 c7 85 a0 f2 ff ff 	movq   $0x0,-0xd60(%rbp)
    d362:	00 00 00 00 
    d366:	48 8d 85 e0 df ff ff 	lea    -0x2020(%rbp),%rax
    d36d:	48 89 85 a8 f2 ff ff 	mov    %rax,-0xd58(%rbp)
    d374:	48 8d 85 20 e3 ff ff 	lea    -0x1ce0(%rbp),%rax
    d37b:	48 83 c0 50          	add    $0x50,%rax
    d37f:	48 89 85 b0 f2 ff ff 	mov    %rax,-0xd50(%rbp)
    d386:	48 8d 85 20 e3 ff ff 	lea    -0x1ce0(%rbp),%rax
    d38d:	48 83 c0 50          	add    $0x50,%rax
    d391:	48 89 85 b8 f2 ff ff 	mov    %rax,-0xd48(%rbp)
    d398:	48 8d 85 d0 df ff ff 	lea    -0x2030(%rbp),%rax
    d39f:	48 89 85 c0 f2 ff ff 	mov    %rax,-0xd40(%rbp)
    d3a6:	48 8d 85 e0 e1 ff ff 	lea    -0x1e20(%rbp),%rax
    d3ad:	48 83 c0 04          	add    $0x4,%rax
    d3b1:	48 89 85 c8 f2 ff ff 	mov    %rax,-0xd38(%rbp)
    d3b8:	48 8d 85 20 e3 ff ff 	lea    -0x1ce0(%rbp),%rax
    d3bf:	48 05 b4 00 00 00    	add    $0xb4,%rax
    d3c5:	48 89 85 d0 f2 ff ff 	mov    %rax,-0xd30(%rbp)
    d3cc:	48 8d 85 20 e3 ff ff 	lea    -0x1ce0(%rbp),%rax
    d3d3:	48 05 b4 00 00 00    	add    $0xb4,%rax
    d3d9:	48 89 85 d8 f2 ff ff 	mov    %rax,-0xd28(%rbp)
    d3e0:	48 8d 85 e0 e1 ff ff 	lea    -0x1e20(%rbp),%rax
    d3e7:	48 83 c0 04          	add    $0x4,%rax
    d3eb:	48 89 85 e0 f2 ff ff 	mov    %rax,-0xd20(%rbp)
    d3f2:	48 8d 85 d4 df ff ff 	lea    -0x202c(%rbp),%rax
    d3f9:	48 89 85 e8 f2 ff ff 	mov    %rax,-0xd18(%rbp)
    d400:	48 8d 85 c8 df ff ff 	lea    -0x2038(%rbp),%rax
    d407:	48 89 85 f0 f2 ff ff 	mov    %rax,-0xd10(%rbp)
    d40e:	48 8d 85 c8 df ff ff 	lea    -0x2038(%rbp),%rax
    d415:	48 89 85 f8 f2 ff ff 	mov    %rax,-0xd08(%rbp)
    d41c:	48 8d 85 c8 df ff ff 	lea    -0x2038(%rbp),%rax
    d423:	48 89 85 00 f3 ff ff 	mov    %rax,-0xd00(%rbp)
    d42a:	48 8d 85 c8 df ff ff 	lea    -0x2038(%rbp),%rax
    d431:	48 89 85 08 f3 ff ff 	mov    %rax,-0xcf8(%rbp)
    d438:	48 8d 85 d4 df ff ff 	lea    -0x202c(%rbp),%rax
    d43f:	48 89 85 10 f3 ff ff 	mov    %rax,-0xcf0(%rbp)
    d446:	48 8d 85 e0 e1 ff ff 	lea    -0x1e20(%rbp),%rax
    d44d:	48 83 c0 04          	add    $0x4,%rax
    d451:	48 89 85 18 f3 ff ff 	mov    %rax,-0xce8(%rbp)
    d458:	48 c7 85 20 f3 ff ff 	movq   $0x0,-0xce0(%rbp)
    d45f:	00 00 00 00 
    d463:	48 8d 85 cc df ff ff 	lea    -0x2034(%rbp),%rax
    d46a:	48 89 85 28 f3 ff ff 	mov    %rax,-0xcd8(%rbp)
    d471:	48 c7 85 30 f3 ff ff 	movq   $0x0,-0xcd0(%rbp)
    d478:	00 00 00 00 
    d47c:	48 c7 85 38 f3 ff ff 	movq   $0x0,-0xcc8(%rbp)
    d483:	00 00 00 00 
    d487:	48 8d 85 c8 df ff ff 	lea    -0x2038(%rbp),%rax
    d48e:	48 89 85 40 f3 ff ff 	mov    %rax,-0xcc0(%rbp)
    d495:	48 c7 85 48 f3 ff ff 	movq   $0x0,-0xcb8(%rbp)
    d49c:	00 00 00 00 
    d4a0:	48 8d 85 dc df ff ff 	lea    -0x2024(%rbp),%rax
    d4a7:	48 89 85 50 f3 ff ff 	mov    %rax,-0xcb0(%rbp)
    d4ae:	48 8d 85 20 e3 ff ff 	lea    -0x1ce0(%rbp),%rax
    d4b5:	48 83 c0 50          	add    $0x50,%rax
    d4b9:	48 89 85 58 f3 ff ff 	mov    %rax,-0xca8(%rbp)
    d4c0:	48 8d 85 20 e3 ff ff 	lea    -0x1ce0(%rbp),%rax
    d4c7:	48 83 c0 50          	add    $0x50,%rax
    d4cb:	48 89 85 60 f3 ff ff 	mov    %rax,-0xca0(%rbp)
    d4d2:	48 8d 05 9b 7b 00 00 	lea    0x7b9b(%rip),%rax        # 15074 <g_4+0x34>
    d4d9:	48 89 85 68 f3 ff ff 	mov    %rax,-0xc98(%rbp)
    d4e0:	48 8d 85 d0 df ff ff 	lea    -0x2030(%rbp),%rax
    d4e7:	48 89 85 70 f3 ff ff 	mov    %rax,-0xc90(%rbp)
    d4ee:	48 8d 85 c8 df ff ff 	lea    -0x2038(%rbp),%rax
    d4f5:	48 89 85 78 f3 ff ff 	mov    %rax,-0xc88(%rbp)
    d4fc:	48 c7 85 80 f3 ff ff 	movq   $0x0,-0xc80(%rbp)
    d503:	00 00 00 00 
    d507:	48 c7 85 88 f3 ff ff 	movq   $0x0,-0xc78(%rbp)
    d50e:	00 00 00 00 
    d512:	48 8d 85 c8 df ff ff 	lea    -0x2038(%rbp),%rax
    d519:	48 89 85 90 f3 ff ff 	mov    %rax,-0xc70(%rbp)
    d520:	48 8d 85 dc df ff ff 	lea    -0x2024(%rbp),%rax
    d527:	48 89 85 98 f3 ff ff 	mov    %rax,-0xc68(%rbp)
    d52e:	48 8d 85 c8 df ff ff 	lea    -0x2038(%rbp),%rax
    d535:	48 89 85 a0 f3 ff ff 	mov    %rax,-0xc60(%rbp)
    d53c:	48 8d 05 31 7b 00 00 	lea    0x7b31(%rip),%rax        # 15074 <g_4+0x34>
    d543:	48 89 85 a8 f3 ff ff 	mov    %rax,-0xc58(%rbp)
    d54a:	48 8d 85 20 e3 ff ff 	lea    -0x1ce0(%rbp),%rax
    d551:	48 83 c0 50          	add    $0x50,%rax
    d555:	48 89 85 b0 f3 ff ff 	mov    %rax,-0xc50(%rbp)
    d55c:	48 8d 85 e0 e1 ff ff 	lea    -0x1e20(%rbp),%rax
    d563:	48 83 c0 04          	add    $0x4,%rax
    d567:	48 89 85 b8 f3 ff ff 	mov    %rax,-0xc48(%rbp)
    d56e:	48 8d 05 f3 af 00 00 	lea    0xaff3(%rip),%rax        # 18568 <g_34>
    d575:	48 89 85 c0 f3 ff ff 	mov    %rax,-0xc40(%rbp)
    d57c:	48 8d 85 20 e3 ff ff 	lea    -0x1ce0(%rbp),%rax
    d583:	48 83 c0 50          	add    $0x50,%rax
    d587:	48 89 85 c8 f3 ff ff 	mov    %rax,-0xc38(%rbp)
    d58e:	48 8d 85 bc df ff ff 	lea    -0x2044(%rbp),%rax
    d595:	48 89 85 d0 f3 ff ff 	mov    %rax,-0xc30(%rbp)
    d59c:	48 8d 85 e0 e1 ff ff 	lea    -0x1e20(%rbp),%rax
    d5a3:	48 83 c0 04          	add    $0x4,%rax
    d5a7:	48 89 85 d8 f3 ff ff 	mov    %rax,-0xc28(%rbp)
    d5ae:	48 8d 85 c8 df ff ff 	lea    -0x2038(%rbp),%rax
    d5b5:	48 89 85 e0 f3 ff ff 	mov    %rax,-0xc20(%rbp)
    d5bc:	48 8d 85 cc df ff ff 	lea    -0x2034(%rbp),%rax
    d5c3:	48 89 85 e8 f3 ff ff 	mov    %rax,-0xc18(%rbp)
    d5ca:	48 8d 85 d4 df ff ff 	lea    -0x202c(%rbp),%rax
    d5d1:	48 89 85 f0 f3 ff ff 	mov    %rax,-0xc10(%rbp)
    d5d8:	48 8d 85 cc df ff ff 	lea    -0x2034(%rbp),%rax
    d5df:	48 89 85 f8 f3 ff ff 	mov    %rax,-0xc08(%rbp)
    d5e6:	48 8d 85 c8 df ff ff 	lea    -0x2038(%rbp),%rax
    d5ed:	48 89 85 00 f4 ff ff 	mov    %rax,-0xc00(%rbp)
    d5f4:	48 8d 85 e0 e1 ff ff 	lea    -0x1e20(%rbp),%rax
    d5fb:	48 83 c0 04          	add    $0x4,%rax
    d5ff:	48 89 85 08 f4 ff ff 	mov    %rax,-0xbf8(%rbp)
    d606:	48 8d 85 bc df ff ff 	lea    -0x2044(%rbp),%rax
    d60d:	48 89 85 10 f4 ff ff 	mov    %rax,-0xbf0(%rbp)
    d614:	48 8d 85 e0 e1 ff ff 	lea    -0x1e20(%rbp),%rax
    d61b:	48 83 c0 04          	add    $0x4,%rax
    d61f:	48 89 85 18 f4 ff ff 	mov    %rax,-0xbe8(%rbp)
    d626:	48 8d 85 20 e3 ff ff 	lea    -0x1ce0(%rbp),%rax
    d62d:	48 83 c0 50          	add    $0x50,%rax
    d631:	48 89 85 20 f4 ff ff 	mov    %rax,-0xbe0(%rbp)
    d638:	48 8d 85 d0 df ff ff 	lea    -0x2030(%rbp),%rax
    d63f:	48 89 85 28 f4 ff ff 	mov    %rax,-0xbd8(%rbp)
    d646:	48 c7 85 30 f4 ff ff 	movq   $0x0,-0xbd0(%rbp)
    d64d:	00 00 00 00 
    d651:	48 8d 85 e0 e1 ff ff 	lea    -0x1e20(%rbp),%rax
    d658:	48 83 c0 04          	add    $0x4,%rax
    d65c:	48 89 85 38 f4 ff ff 	mov    %rax,-0xbc8(%rbp)
    d663:	48 8d 05 fe 81 00 00 	lea    0x81fe(%rip),%rax        # 15868 <g_670+0x8>
    d66a:	48 89 85 40 f4 ff ff 	mov    %rax,-0xbc0(%rbp)
    d671:	48 8d 85 e0 e1 ff ff 	lea    -0x1e20(%rbp),%rax
    d678:	48 83 c0 04          	add    $0x4,%rax
    d67c:	48 89 85 48 f4 ff ff 	mov    %rax,-0xbb8(%rbp)
    d683:	48 8d 85 20 e3 ff ff 	lea    -0x1ce0(%rbp),%rax
    d68a:	48 83 c0 50          	add    $0x50,%rax
    d68e:	48 89 85 50 f4 ff ff 	mov    %rax,-0xbb0(%rbp)
    d695:	48 8d 05 cc ae 00 00 	lea    0xaecc(%rip),%rax        # 18568 <g_34>
    d69c:	48 89 85 58 f4 ff ff 	mov    %rax,-0xba8(%rbp)
    d6a3:	48 8d 85 c8 df ff ff 	lea    -0x2038(%rbp),%rax
    d6aa:	48 89 85 60 f4 ff ff 	mov    %rax,-0xba0(%rbp)
    d6b1:	48 8d 85 bc df ff ff 	lea    -0x2044(%rbp),%rax
    d6b8:	48 89 85 68 f4 ff ff 	mov    %rax,-0xb98(%rbp)
    d6bf:	48 8d 05 a2 ae 00 00 	lea    0xaea2(%rip),%rax        # 18568 <g_34>
    d6c6:	48 89 85 70 f4 ff ff 	mov    %rax,-0xb90(%rbp)
    d6cd:	48 c7 85 78 f4 ff ff 	movq   $0x0,-0xb88(%rbp)
    d6d4:	00 00 00 00 
    d6d8:	48 8d 85 d4 df ff ff 	lea    -0x202c(%rbp),%rax
    d6df:	48 89 85 80 f4 ff ff 	mov    %rax,-0xb80(%rbp)
    d6e6:	48 8d 85 e0 e1 ff ff 	lea    -0x1e20(%rbp),%rax
    d6ed:	48 83 c0 04          	add    $0x4,%rax
    d6f1:	48 89 85 88 f4 ff ff 	mov    %rax,-0xb78(%rbp)
    d6f8:	48 8d 85 d0 df ff ff 	lea    -0x2030(%rbp),%rax
    d6ff:	48 89 85 90 f4 ff ff 	mov    %rax,-0xb70(%rbp)
    d706:	48 8d 05 5b 81 00 00 	lea    0x815b(%rip),%rax        # 15868 <g_670+0x8>
    d70d:	48 89 85 98 f4 ff ff 	mov    %rax,-0xb68(%rbp)
    d714:	48 8d 05 59 79 00 00 	lea    0x7959(%rip),%rax        # 15074 <g_4+0x34>
    d71b:	48 89 85 a0 f4 ff ff 	mov    %rax,-0xb60(%rbp)
    d722:	48 8d 85 d8 df ff ff 	lea    -0x2028(%rbp),%rax
    d729:	48 89 85 a8 f4 ff ff 	mov    %rax,-0xb58(%rbp)
    d730:	48 8d 85 bc df ff ff 	lea    -0x2044(%rbp),%rax
    d737:	48 89 85 b0 f4 ff ff 	mov    %rax,-0xb50(%rbp)
    d73e:	48 8d 85 e0 e1 ff ff 	lea    -0x1e20(%rbp),%rax
    d745:	48 83 c0 04          	add    $0x4,%rax
    d749:	48 89 85 b8 f4 ff ff 	mov    %rax,-0xb48(%rbp)
    d750:	48 8d 85 20 e3 ff ff 	lea    -0x1ce0(%rbp),%rax
    d757:	48 83 c0 50          	add    $0x50,%rax
    d75b:	48 89 85 c0 f4 ff ff 	mov    %rax,-0xb40(%rbp)
    d762:	48 8d 05 ff ad 00 00 	lea    0xadff(%rip),%rax        # 18568 <g_34>
    d769:	48 89 85 c8 f4 ff ff 	mov    %rax,-0xb38(%rbp)
    d770:	48 c7 85 d0 f4 ff ff 	movq   $0x0,-0xb30(%rbp)
    d777:	00 00 00 00 
    d77b:	48 8d 85 cc df ff ff 	lea    -0x2034(%rbp),%rax
    d782:	48 89 85 d8 f4 ff ff 	mov    %rax,-0xb28(%rbp)
    d789:	48 8d 85 dc df ff ff 	lea    -0x2024(%rbp),%rax
    d790:	48 89 85 e0 f4 ff ff 	mov    %rax,-0xb20(%rbp)
    d797:	48 8d 85 dc df ff ff 	lea    -0x2024(%rbp),%rax
    d79e:	48 89 85 e8 f4 ff ff 	mov    %rax,-0xb18(%rbp)
    d7a5:	48 8d 85 cc df ff ff 	lea    -0x2034(%rbp),%rax
    d7ac:	48 89 85 f0 f4 ff ff 	mov    %rax,-0xb10(%rbp)
    d7b3:	48 c7 85 f8 f4 ff ff 	movq   $0x0,-0xb08(%rbp)
    d7ba:	00 00 00 00 
    d7be:	48 8d 05 a3 ad 00 00 	lea    0xada3(%rip),%rax        # 18568 <g_34>
    d7c5:	48 89 85 00 f5 ff ff 	mov    %rax,-0xb00(%rbp)
    d7cc:	48 8d 85 20 e3 ff ff 	lea    -0x1ce0(%rbp),%rax
    d7d3:	48 83 c0 50          	add    $0x50,%rax
    d7d7:	48 89 85 08 f5 ff ff 	mov    %rax,-0xaf8(%rbp)
    d7de:	48 8d 05 83 80 00 00 	lea    0x8083(%rip),%rax        # 15868 <g_670+0x8>
    d7e5:	48 89 85 10 f5 ff ff 	mov    %rax,-0xaf0(%rbp)
    d7ec:	48 c7 85 18 f5 ff ff 	movq   $0x0,-0xae8(%rbp)
    d7f3:	00 00 00 00 
    d7f7:	48 8d 85 e0 e1 ff ff 	lea    -0x1e20(%rbp),%rax
    d7fe:	48 83 c0 04          	add    $0x4,%rax
    d802:	48 89 85 20 f5 ff ff 	mov    %rax,-0xae0(%rbp)
    d809:	48 8d 85 dc df ff ff 	lea    -0x2024(%rbp),%rax
    d810:	48 89 85 28 f5 ff ff 	mov    %rax,-0xad8(%rbp)
    d817:	48 8d 85 e0 e1 ff ff 	lea    -0x1e20(%rbp),%rax
    d81e:	48 83 c0 0c          	add    $0xc,%rax
    d822:	48 89 85 30 f5 ff ff 	mov    %rax,-0xad0(%rbp)
    d829:	48 8d 85 c8 df ff ff 	lea    -0x2038(%rbp),%rax
    d830:	48 89 85 38 f5 ff ff 	mov    %rax,-0xac8(%rbp)
    d837:	48 8d 85 e0 e1 ff ff 	lea    -0x1e20(%rbp),%rax
    d83e:	48 83 c0 04          	add    $0x4,%rax
    d842:	48 89 85 40 f5 ff ff 	mov    %rax,-0xac0(%rbp)
    d849:	48 8d 85 c8 df ff ff 	lea    -0x2038(%rbp),%rax
    d850:	48 89 85 48 f5 ff ff 	mov    %rax,-0xab8(%rbp)
    d857:	48 8d 85 d0 df ff ff 	lea    -0x2030(%rbp),%rax
    d85e:	48 89 85 50 f5 ff ff 	mov    %rax,-0xab0(%rbp)
    d865:	48 8d 85 d4 df ff ff 	lea    -0x202c(%rbp),%rax
    d86c:	48 89 85 58 f5 ff ff 	mov    %rax,-0xaa8(%rbp)
    d873:	48 8d 85 e0 e1 ff ff 	lea    -0x1e20(%rbp),%rax
    d87a:	48 83 c0 04          	add    $0x4,%rax
    d87e:	48 89 85 60 f5 ff ff 	mov    %rax,-0xaa0(%rbp)
    d885:	48 8d 85 e0 df ff ff 	lea    -0x2020(%rbp),%rax
    d88c:	48 89 85 68 f5 ff ff 	mov    %rax,-0xa98(%rbp)
    d893:	48 8d 85 d8 df ff ff 	lea    -0x2028(%rbp),%rax
    d89a:	48 89 85 70 f5 ff ff 	mov    %rax,-0xa90(%rbp)
    d8a1:	48 c7 85 78 f5 ff ff 	movq   $0x0,-0xa88(%rbp)
    d8a8:	00 00 00 00 
    d8ac:	48 8d 85 e0 e1 ff ff 	lea    -0x1e20(%rbp),%rax
    d8b3:	48 83 c0 0c          	add    $0xc,%rax
    d8b7:	48 89 85 80 f5 ff ff 	mov    %rax,-0xa80(%rbp)
    d8be:	48 c7 85 88 f5 ff ff 	movq   $0x0,-0xa78(%rbp)
    d8c5:	00 00 00 00 
    d8c9:	48 8d 05 98 7f 00 00 	lea    0x7f98(%rip),%rax        # 15868 <g_670+0x8>
    d8d0:	48 89 85 90 f5 ff ff 	mov    %rax,-0xa70(%rbp)
    d8d7:	48 8d 85 20 e3 ff ff 	lea    -0x1ce0(%rbp),%rax
    d8de:	48 83 c0 50          	add    $0x50,%rax
    d8e2:	48 89 85 98 f5 ff ff 	mov    %rax,-0xa68(%rbp)
    d8e9:	48 c7 85 a0 f5 ff ff 	movq   $0x0,-0xa60(%rbp)
    d8f0:	00 00 00 00 
    d8f4:	48 8d 85 20 e3 ff ff 	lea    -0x1ce0(%rbp),%rax
    d8fb:	48 83 c0 50          	add    $0x50,%rax
    d8ff:	48 89 85 a8 f5 ff ff 	mov    %rax,-0xa58(%rbp)
    d906:	48 8d 85 e0 e1 ff ff 	lea    -0x1e20(%rbp),%rax
    d90d:	48 83 c0 0c          	add    $0xc,%rax
    d911:	48 89 85 b0 f5 ff ff 	mov    %rax,-0xa50(%rbp)
    d918:	48 8d 85 e0 e1 ff ff 	lea    -0x1e20(%rbp),%rax
    d91f:	48 83 c0 04          	add    $0x4,%rax
    d923:	48 89 85 b8 f5 ff ff 	mov    %rax,-0xa48(%rbp)
    d92a:	48 8d 85 20 e3 ff ff 	lea    -0x1ce0(%rbp),%rax
    d931:	48 05 b4 00 00 00    	add    $0xb4,%rax
    d937:	48 89 85 c0 f5 ff ff 	mov    %rax,-0xa40(%rbp)
    d93e:	48 8d 85 c8 df ff ff 	lea    -0x2038(%rbp),%rax
    d945:	48 89 85 c8 f5 ff ff 	mov    %rax,-0xa38(%rbp)
    d94c:	48 8d 85 dc df ff ff 	lea    -0x2024(%rbp),%rax
    d953:	48 89 85 d0 f5 ff ff 	mov    %rax,-0xa30(%rbp)
    d95a:	48 c7 85 d8 f5 ff ff 	movq   $0x0,-0xa28(%rbp)
    d961:	00 00 00 00 
    d965:	48 8d 85 dc df ff ff 	lea    -0x2024(%rbp),%rax
    d96c:	48 89 85 e0 f5 ff ff 	mov    %rax,-0xa20(%rbp)
    d973:	48 8d 85 c8 df ff ff 	lea    -0x2038(%rbp),%rax
    d97a:	48 89 85 e8 f5 ff ff 	mov    %rax,-0xa18(%rbp)
    d981:	48 8d 85 20 e3 ff ff 	lea    -0x1ce0(%rbp),%rax
    d988:	48 05 b4 00 00 00    	add    $0xb4,%rax
    d98e:	48 89 85 f0 f5 ff ff 	mov    %rax,-0xa10(%rbp)
    d995:	48 8d 85 e0 e1 ff ff 	lea    -0x1e20(%rbp),%rax
    d99c:	48 83 c0 04          	add    $0x4,%rax
    d9a0:	48 89 85 f8 f5 ff ff 	mov    %rax,-0xa08(%rbp)
    d9a7:	48 8d 85 c8 df ff ff 	lea    -0x2038(%rbp),%rax
    d9ae:	48 89 85 00 f6 ff ff 	mov    %rax,-0xa00(%rbp)
    d9b5:	48 c7 85 08 f6 ff ff 	movq   $0x0,-0x9f8(%rbp)
    d9bc:	00 00 00 00 
    d9c0:	48 8d 85 cc df ff ff 	lea    -0x2034(%rbp),%rax
    d9c7:	48 89 85 10 f6 ff ff 	mov    %rax,-0x9f0(%rbp)
    d9ce:	48 8d 85 e0 df ff ff 	lea    -0x2020(%rbp),%rax
    d9d5:	48 89 85 18 f6 ff ff 	mov    %rax,-0x9e8(%rbp)
    d9dc:	48 8d 85 d0 df ff ff 	lea    -0x2030(%rbp),%rax
    d9e3:	48 89 85 20 f6 ff ff 	mov    %rax,-0x9e0(%rbp)
    d9ea:	48 c7 85 28 f6 ff ff 	movq   $0x0,-0x9d8(%rbp)
    d9f1:	00 00 00 00 
    d9f5:	48 8d 85 c8 df ff ff 	lea    -0x2038(%rbp),%rax
    d9fc:	48 89 85 30 f6 ff ff 	mov    %rax,-0x9d0(%rbp)
    da03:	48 8d 85 dc df ff ff 	lea    -0x2024(%rbp),%rax
    da0a:	48 89 85 38 f6 ff ff 	mov    %rax,-0x9c8(%rbp)
    da11:	48 8d 85 dc df ff ff 	lea    -0x2024(%rbp),%rax
    da18:	48 89 85 40 f6 ff ff 	mov    %rax,-0x9c0(%rbp)
    da1f:	48 8d 85 bc df ff ff 	lea    -0x2044(%rbp),%rax
    da26:	48 89 85 48 f6 ff ff 	mov    %rax,-0x9b8(%rbp)
    da2d:	48 8d 85 e0 e1 ff ff 	lea    -0x1e20(%rbp),%rax
    da34:	48 83 c0 04          	add    $0x4,%rax
    da38:	48 89 85 50 f6 ff ff 	mov    %rax,-0x9b0(%rbp)
    da3f:	48 8d 85 d8 df ff ff 	lea    -0x2028(%rbp),%rax
    da46:	48 89 85 58 f6 ff ff 	mov    %rax,-0x9a8(%rbp)
    da4d:	48 8d 85 c8 df ff ff 	lea    -0x2038(%rbp),%rax
    da54:	48 89 85 60 f6 ff ff 	mov    %rax,-0x9a0(%rbp)
    da5b:	48 c7 85 68 f6 ff ff 	movq   $0x0,-0x998(%rbp)
    da62:	00 00 00 00 
    da66:	48 8d 05 fb 7d 00 00 	lea    0x7dfb(%rip),%rax        # 15868 <g_670+0x8>
    da6d:	48 89 85 70 f6 ff ff 	mov    %rax,-0x990(%rbp)
    da74:	48 c7 85 78 f6 ff ff 	movq   $0x0,-0x988(%rbp)
    da7b:	00 00 00 00 
    da7f:	48 c7 85 80 f6 ff ff 	movq   $0x0,-0x980(%rbp)
    da86:	00 00 00 00 
    da8a:	48 8d 85 c8 df ff ff 	lea    -0x2038(%rbp),%rax
    da91:	48 89 85 88 f6 ff ff 	mov    %rax,-0x978(%rbp)
    da98:	48 c7 85 90 f6 ff ff 	movq   $0x0,-0x970(%rbp)
    da9f:	00 00 00 00 
    daa3:	48 8d 85 e0 e1 ff ff 	lea    -0x1e20(%rbp),%rax
    daaa:	48 83 c0 04          	add    $0x4,%rax
    daae:	48 89 85 98 f6 ff ff 	mov    %rax,-0x968(%rbp)
    dab5:	48 8d 85 c8 df ff ff 	lea    -0x2038(%rbp),%rax
    dabc:	48 89 85 a0 f6 ff ff 	mov    %rax,-0x960(%rbp)
    dac3:	48 c7 85 a8 f6 ff ff 	movq   $0x0,-0x958(%rbp)
    daca:	00 00 00 00 
    dace:	48 8d 85 20 e3 ff ff 	lea    -0x1ce0(%rbp),%rax
    dad5:	48 83 c0 50          	add    $0x50,%rax
    dad9:	48 89 85 b0 f6 ff ff 	mov    %rax,-0x950(%rbp)
    dae0:	48 8d 85 c8 df ff ff 	lea    -0x2038(%rbp),%rax
    dae7:	48 89 85 b8 f6 ff ff 	mov    %rax,-0x948(%rbp)
    daee:	48 8d 85 d4 df ff ff 	lea    -0x202c(%rbp),%rax
    daf5:	48 89 85 c0 f6 ff ff 	mov    %rax,-0x940(%rbp)
    dafc:	48 c7 85 c8 f6 ff ff 	movq   $0x0,-0x938(%rbp)
    db03:	00 00 00 00 
    db07:	48 c7 85 d0 f6 ff ff 	movq   $0x0,-0x930(%rbp)
    db0e:	00 00 00 00 
    db12:	48 8d 85 d4 df ff ff 	lea    -0x202c(%rbp),%rax
    db19:	48 89 85 d8 f6 ff ff 	mov    %rax,-0x928(%rbp)
    db20:	48 8d 85 c8 df ff ff 	lea    -0x2038(%rbp),%rax
    db27:	48 89 85 e0 f6 ff ff 	mov    %rax,-0x920(%rbp)
    db2e:	48 8d 85 20 e3 ff ff 	lea    -0x1ce0(%rbp),%rax
    db35:	48 83 c0 50          	add    $0x50,%rax
    db39:	48 89 85 e8 f6 ff ff 	mov    %rax,-0x918(%rbp)
    db40:	48 8d 85 e0 e1 ff ff 	lea    -0x1e20(%rbp),%rax
    db47:	48 83 c0 0c          	add    $0xc,%rax
    db4b:	48 89 85 f0 f6 ff ff 	mov    %rax,-0x910(%rbp)
    db52:	48 8d 85 e0 e1 ff ff 	lea    -0x1e20(%rbp),%rax
    db59:	48 83 c0 0c          	add    $0xc,%rax
    db5d:	48 89 85 f8 f6 ff ff 	mov    %rax,-0x908(%rbp)
    db64:	48 8d 85 e0 e1 ff ff 	lea    -0x1e20(%rbp),%rax
    db6b:	48 83 c0 04          	add    $0x4,%rax
    db6f:	48 89 85 00 f7 ff ff 	mov    %rax,-0x900(%rbp)
    db76:	48 c7 85 08 f7 ff ff 	movq   $0x0,-0x8f8(%rbp)
    db7d:	00 00 00 00 
    db81:	48 8d 85 c8 df ff ff 	lea    -0x2038(%rbp),%rax
    db88:	48 89 85 10 f7 ff ff 	mov    %rax,-0x8f0(%rbp)
    db8f:	48 c7 85 18 f7 ff ff 	movq   $0x0,-0x8e8(%rbp)
    db96:	00 00 00 00 
    db9a:	48 c7 85 20 f7 ff ff 	movq   $0x0,-0x8e0(%rbp)
    dba1:	00 00 00 00 
    dba5:	48 8d 85 cc df ff ff 	lea    -0x2034(%rbp),%rax
    dbac:	48 89 85 28 f7 ff ff 	mov    %rax,-0x8d8(%rbp)
    dbb3:	48 8d 85 dc df ff ff 	lea    -0x2024(%rbp),%rax
    dbba:	48 89 85 30 f7 ff ff 	mov    %rax,-0x8d0(%rbp)
    dbc1:	48 8d 85 d4 df ff ff 	lea    -0x202c(%rbp),%rax
    dbc8:	48 89 85 38 f7 ff ff 	mov    %rax,-0x8c8(%rbp)
    dbcf:	48 8d 85 e0 e1 ff ff 	lea    -0x1e20(%rbp),%rax
    dbd6:	48 83 c0 0c          	add    $0xc,%rax
    dbda:	48 89 85 40 f7 ff ff 	mov    %rax,-0x8c0(%rbp)
    dbe1:	48 8d 85 c8 df ff ff 	lea    -0x2038(%rbp),%rax
    dbe8:	48 89 85 48 f7 ff ff 	mov    %rax,-0x8b8(%rbp)
    dbef:	48 8d 85 e0 e1 ff ff 	lea    -0x1e20(%rbp),%rax
    dbf6:	48 83 c0 04          	add    $0x4,%rax
    dbfa:	48 89 85 50 f7 ff ff 	mov    %rax,-0x8b0(%rbp)
    dc01:	48 8d 85 c8 df ff ff 	lea    -0x2038(%rbp),%rax
    dc08:	48 89 85 58 f7 ff ff 	mov    %rax,-0x8a8(%rbp)
    dc0f:	48 8d 85 d0 df ff ff 	lea    -0x2030(%rbp),%rax
    dc16:	48 89 85 60 f7 ff ff 	mov    %rax,-0x8a0(%rbp)
    dc1d:	48 8d 85 d4 df ff ff 	lea    -0x202c(%rbp),%rax
    dc24:	48 89 85 68 f7 ff ff 	mov    %rax,-0x898(%rbp)
    dc2b:	48 8d 85 d8 df ff ff 	lea    -0x2028(%rbp),%rax
    dc32:	48 89 85 70 f7 ff ff 	mov    %rax,-0x890(%rbp)
    dc39:	48 8d 05 28 a9 00 00 	lea    0xa928(%rip),%rax        # 18568 <g_34>
    dc40:	48 89 85 78 f7 ff ff 	mov    %rax,-0x888(%rbp)
    dc47:	48 8d 85 c8 df ff ff 	lea    -0x2038(%rbp),%rax
    dc4e:	48 89 85 80 f7 ff ff 	mov    %rax,-0x880(%rbp)
    dc55:	48 8d 85 dc df ff ff 	lea    -0x2024(%rbp),%rax
    dc5c:	48 89 85 88 f7 ff ff 	mov    %rax,-0x878(%rbp)
    dc63:	48 8d 85 cc df ff ff 	lea    -0x2034(%rbp),%rax
    dc6a:	48 89 85 90 f7 ff ff 	mov    %rax,-0x870(%rbp)
    dc71:	48 8d 85 c4 df ff ff 	lea    -0x203c(%rbp),%rax
    dc78:	48 89 85 98 f7 ff ff 	mov    %rax,-0x868(%rbp)
    dc7f:	48 c7 85 a0 f7 ff ff 	movq   $0x0,-0x860(%rbp)
    dc86:	00 00 00 00 
    dc8a:	48 c7 85 a8 f7 ff ff 	movq   $0x0,-0x858(%rbp)
    dc91:	00 00 00 00 
    dc95:	48 8d 85 d4 df ff ff 	lea    -0x202c(%rbp),%rax
    dc9c:	48 89 85 b0 f7 ff ff 	mov    %rax,-0x850(%rbp)
    dca3:	48 8d 85 c8 df ff ff 	lea    -0x2038(%rbp),%rax
    dcaa:	48 89 85 b8 f7 ff ff 	mov    %rax,-0x848(%rbp)
    dcb1:	48 8d 85 20 e3 ff ff 	lea    -0x1ce0(%rbp),%rax
    dcb8:	48 83 c0 50          	add    $0x50,%rax
    dcbc:	48 89 85 c0 f7 ff ff 	mov    %rax,-0x840(%rbp)
    dcc3:	48 8d 85 c8 df ff ff 	lea    -0x2038(%rbp),%rax
    dcca:	48 89 85 c8 f7 ff ff 	mov    %rax,-0x838(%rbp)
    dcd1:	48 8d 85 d4 df ff ff 	lea    -0x202c(%rbp),%rax
    dcd8:	48 89 85 d0 f7 ff ff 	mov    %rax,-0x830(%rbp)
    dcdf:	48 c7 85 d8 f7 ff ff 	movq   $0x0,-0x828(%rbp)
    dce6:	00 00 00 00 
    dcea:	48 c7 85 e0 f7 ff ff 	movq   $0x0,-0x820(%rbp)
    dcf1:	00 00 00 00 
    dcf5:	48 8d 85 bc df ff ff 	lea    -0x2044(%rbp),%rax
    dcfc:	48 89 85 e8 f7 ff ff 	mov    %rax,-0x818(%rbp)
    dd03:	48 c7 85 f0 f7 ff ff 	movq   $0x0,-0x810(%rbp)
    dd0a:	00 00 00 00 
    dd0e:	48 8d 85 d8 df ff ff 	lea    -0x2028(%rbp),%rax
    dd15:	48 89 85 f8 f7 ff ff 	mov    %rax,-0x808(%rbp)
    dd1c:	48 8d 85 e0 e1 ff ff 	lea    -0x1e20(%rbp),%rax
    dd23:	48 83 c0 04          	add    $0x4,%rax
    dd27:	48 89 85 00 f8 ff ff 	mov    %rax,-0x800(%rbp)
    dd2e:	48 8d 85 cc df ff ff 	lea    -0x2034(%rbp),%rax
    dd35:	48 89 85 08 f8 ff ff 	mov    %rax,-0x7f8(%rbp)
    dd3c:	48 8d 85 20 e3 ff ff 	lea    -0x1ce0(%rbp),%rax
    dd43:	48 83 c0 50          	add    $0x50,%rax
    dd47:	48 89 85 10 f8 ff ff 	mov    %rax,-0x7f0(%rbp)
    dd4e:	48 8d 85 c4 df ff ff 	lea    -0x203c(%rbp),%rax
    dd55:	48 89 85 18 f8 ff ff 	mov    %rax,-0x7e8(%rbp)
    dd5c:	48 8d 05 05 7b 00 00 	lea    0x7b05(%rip),%rax        # 15868 <g_670+0x8>
    dd63:	48 89 85 20 f8 ff ff 	mov    %rax,-0x7e0(%rbp)
    dd6a:	48 c7 85 28 f8 ff ff 	movq   $0x0,-0x7d8(%rbp)
    dd71:	00 00 00 00 
    dd75:	c7 85 48 e0 ff ff 02 	movl   $0x2,-0x1fb8(%rbp)
    dd7c:	00 00 00 
    dd7f:	c7 85 04 e0 ff ff 00 	movl   $0x0,-0x1ffc(%rbp)
    dd86:	00 00 00 
    dd89:	eb 1e                	jmp    dda9 <func_47+0x4717>
    dd8b:	8b 85 04 e0 ff ff    	mov    -0x1ffc(%rbp),%eax
    dd91:	48 98                	cltq   
    dd93:	48 8d 95 c0 e0 ff ff 	lea    -0x1f40(%rbp),%rdx
    dd9a:	48 89 94 c5 50 e2 ff 	mov    %rdx,-0x1db0(%rbp,%rax,8)
    dda1:	ff 
    dda2:	83 85 04 e0 ff ff 01 	addl   $0x1,-0x1ffc(%rbp)
    dda9:	83 bd 04 e0 ff ff 03 	cmpl   $0x3,-0x1ffc(%rbp)
    ddb0:	7e d9                	jle    dd8b <func_47+0x46f9>
    ddb2:	c7 85 04 e0 ff ff 00 	movl   $0x0,-0x1ffc(%rbp)
    ddb9:	00 00 00 
    ddbc:	eb 1a                	jmp    ddd8 <func_47+0x4746>
    ddbe:	8b 85 04 e0 ff ff    	mov    -0x1ffc(%rbp),%eax
    ddc4:	48 98                	cltq   
    ddc6:	c7 84 85 30 e2 ff ff 	movl   $0x287fa3df,-0x1dd0(%rbp,%rax,4)
    ddcd:	df a3 7f 28 
    ddd1:	83 85 04 e0 ff ff 01 	addl   $0x1,-0x1ffc(%rbp)
    ddd8:	83 bd 04 e0 ff ff 05 	cmpl   $0x5,-0x1ffc(%rbp)
    dddf:	7e dd                	jle    ddbe <func_47+0x472c>
    dde1:	48 8b 85 b8 e0 ff ff 	mov    -0x1f48(%rbp),%rax
    dde8:	8b 18                	mov    (%rax),%ebx
    ddea:	48 8b 05 c7 92 00 00 	mov    0x92c7(%rip),%rax        # 170b8 <g_1014>
    ddf1:	48 8b 10             	mov    (%rax),%rdx
    ddf4:	48 8b 05 bd 92 00 00 	mov    0x92bd(%rip),%rax        # 170b8 <g_1014>
    ddfb:	48 8b 00             	mov    (%rax),%rax
    ddfe:	0f b7 12             	movzwl (%rdx),%edx
    de01:	66 89 10             	mov    %dx,(%rax)
    de04:	0f b7 00             	movzwl (%rax),%eax
    de07:	98                   	cwtl   
    de08:	be 02 00 00 00       	mov    $0x2,%esi
    de0d:	89 c7                	mov    %eax,%edi
    de0f:	e8 4f 97 ff ff       	callq  7563 <safe_rshift_func_int16_t_s_u>
    de14:	48 8b 85 60 e2 ff ff 	mov    -0x1da0(%rbp),%rax
    de1b:	48 8d 15 06 92 00 00 	lea    0x9206(%rip),%rdx        # 17028 <g_179+0x8>
    de22:	48 39 d0             	cmp    %rdx,%rax
    de25:	0f 95 c0             	setne  %al
    de28:	0f b6 c0             	movzbl %al,%eax
    de2b:	89 de                	mov    %ebx,%esi
    de2d:	89 c7                	mov    %eax,%edi
    de2f:	e8 82 97 ff ff       	callq  75b6 <safe_add_func_int32_t_s_s>
    de34:	0f b7 05 65 a7 00 00 	movzwl 0xa765(%rip),%eax        # 185a0 <g_1529>
    de3b:	0f bf d8             	movswl %ax,%ebx
    de3e:	48 8b 85 b8 e0 ff ff 	mov    -0x1f48(%rbp),%rax
    de45:	8b 00                	mov    (%rax),%eax
    de47:	0f b6 c0             	movzbl %al,%eax
    de4a:	89 c6                	mov    %eax,%esi
    de4c:	bf ff 00 00 00       	mov    $0xff,%edi
    de51:	e8 85 9d ff ff       	callq  7bdb <safe_div_func_uint8_t_u_u>
    de56:	0f b6 d0             	movzbl %al,%edx
    de59:	48 8b 05 d0 78 00 00 	mov    0x78d0(%rip),%rax        # 15730 <g_569+0x190>
    de60:	8b 0d 42 7a 00 00    	mov    0x7a42(%rip),%ecx        # 158a8 <g_872+0x8>
    de66:	89 c9                	mov    %ecx,%ecx
    de68:	48 31 c8             	xor    %rcx,%rax
    de6b:	48 89 05 be 78 00 00 	mov    %rax,0x78be(%rip)        # 15730 <g_569+0x190>
    de72:	48 8b 05 b7 78 00 00 	mov    0x78b7(%rip),%rax        # 15730 <g_569+0x190>
    de79:	48 83 f8 02          	cmp    $0x2,%rax
    de7d:	0f 96 c0             	setbe  %al
    de80:	0f b6 c8             	movzbl %al,%ecx
    de83:	8b 85 c0 df ff ff    	mov    -0x2040(%rbp),%eax
    de89:	39 c1                	cmp    %eax,%ecx
    de8b:	0f 9f c0             	setg   %al
    de8e:	0f b6 c0             	movzbl %al,%eax
    de91:	89 d6                	mov    %edx,%esi
    de93:	89 c7                	mov    %eax,%edi
    de95:	e8 32 98 ff ff       	callq  76cc <safe_mod_func_int32_t_s_s>
    de9a:	89 c2                	mov    %eax,%edx
    de9c:	48 8b 85 98 e0 ff ff 	mov    -0x1f68(%rbp),%rax
    dea3:	21 d0                	and    %edx,%eax
    dea5:	0f be c0             	movsbl %al,%eax
    dea8:	89 c6                	mov    %eax,%esi
    deaa:	bf 38 00 00 00       	mov    $0x38,%edi
    deaf:	e8 5e 93 ff ff       	callq  7212 <safe_mul_func_int8_t_s_s>
    deb4:	0f be d0             	movsbl %al,%edx
    deb7:	48 8d 05 ba a6 00 00 	lea    0xa6ba(%rip),%rax        # 18578 <g_150>
    debe:	48 39 85 f0 e0 ff ff 	cmp    %rax,-0x1f10(%rbp)
    dec5:	0f 95 c0             	setne  %al
    dec8:	0f b6 c8             	movzbl %al,%ecx
    decb:	8b 85 c0 df ff ff    	mov    -0x2040(%rbp),%eax
    ded1:	39 c1                	cmp    %eax,%ecx
    ded3:	0f 95 c0             	setne  %al
    ded6:	0f b6 c0             	movzbl %al,%eax
    ded9:	09 d0                	or     %edx,%eax
    dedb:	21 d8                	and    %ebx,%eax
    dedd:	85 c0                	test   %eax,%eax
    dedf:	0f 84 a1 00 00 00    	je     df86 <func_47+0x48f4>
    dee5:	66 c7 85 b4 df ff ff 	movw   $0x8c50,-0x204c(%rbp)
    deec:	50 8c 
    deee:	48 8b 05 bb 91 00 00 	mov    0x91bb(%rip),%rax        # 170b0 <g_962>
    def5:	48 8d 95 b8 e0 ff ff 	lea    -0x1f48(%rbp),%rdx
    defc:	48 89 10             	mov    %rdx,(%rax)
    deff:	48 8b 10             	mov    (%rax),%rdx
    df02:	48 8d 85 88 e0 ff ff 	lea    -0x1f78(%rbp),%rax
    df09:	48 39 c2             	cmp    %rax,%rdx
    df0c:	0f 95 c0             	setne  %al
    df0f:	0f b6 c0             	movzbl %al,%eax
    df12:	66 89 85 b4 df ff ff 	mov    %ax,-0x204c(%rbp)
    df19:	66 81 bd b4 df ff ff 	cmpw   $0x7688,-0x204c(%rbp)
    df20:	88 76 
    df22:	0f 9e c0             	setle  %al
    df25:	0f b6 c8             	movzbl %al,%ecx
    df28:	48 8b 85 b8 e0 ff ff 	mov    -0x1f48(%rbp),%rax
    df2f:	8b 10                	mov    (%rax),%edx
    df31:	48 8b 85 b8 e0 ff ff 	mov    -0x1f48(%rbp),%rax
    df38:	31 ca                	xor    %ecx,%edx
    df3a:	89 10                	mov    %edx,(%rax)
    df3c:	8b 85 c0 df ff ff    	mov    -0x2040(%rbp),%eax
    df42:	0f bf d0             	movswl %ax,%edx
    df45:	48 8b 85 10 e1 ff ff 	mov    -0x1ef0(%rbp),%rax
    df4c:	48 8b 00             	mov    (%rax),%rax
    df4f:	48 8d 70 01          	lea    0x1(%rax),%rsi
    df53:	48 8b 8d 10 e1 ff ff 	mov    -0x1ef0(%rbp),%rcx
    df5a:	48 89 31             	mov    %rsi,(%rcx)
    df5d:	83 e0 f8             	and    $0xfffffff8,%eax
    df60:	98                   	cwtl   
    df61:	89 d6                	mov    %edx,%esi
    df63:	89 c7                	mov    %eax,%edi
    df65:	e8 69 94 ff ff       	callq  73d3 <safe_sub_func_int16_t_s_s>
    df6a:	48 8b 95 b8 e0 ff ff 	mov    -0x1f48(%rbp),%rdx
    df71:	8b 0a                	mov    (%rdx),%ecx
    df73:	0f bf d0             	movswl %ax,%edx
    df76:	48 8b 85 b8 e0 ff ff 	mov    -0x1f48(%rbp),%rax
    df7d:	09 ca                	or     %ecx,%edx
    df7f:	89 10                	mov    %edx,(%rax)
    df81:	e9 10 0f 00 00       	jmpq   ee96 <func_47+0x5804>
    df86:	48 b8 14 eb f8 ce cc 	movabs $0x6f52a3cccef8eb14,%rax
    df8d:	a3 52 6f 
    df90:	48 89 85 20 e1 ff ff 	mov    %rax,-0x1ee0(%rbp)
    df97:	c7 85 e4 df ff ff a2 	movl   $0x21d9d5a2,-0x201c(%rbp)
    df9e:	d5 d9 21 
    dfa1:	c7 85 4c e0 ff ff ff 	movl   $0xffffffff,-0x1fb4(%rbp)
    dfa8:	ff ff ff 
    dfab:	66 c7 85 b2 df ff ff 	movw   $0x570e,-0x204e(%rbp)
    dfb2:	0e 57 
    dfb4:	c7 85 50 e0 ff ff ff 	movl   $0xffffffff,-0x1fb0(%rbp)
    dfbb:	ff ff ff 
    dfbe:	48 8d 85 10 e4 ff ff 	lea    -0x1bf0(%rbp),%rax
    dfc5:	48 8d 15 f4 48 00 00 	lea    0x48f4(%rip),%rdx        # 128c0 <g_2875+0x864>
    dfcc:	b9 2d 00 00 00       	mov    $0x2d,%ecx
    dfd1:	48 89 c7             	mov    %rax,%rdi
    dfd4:	48 89 d6             	mov    %rdx,%rsi
    dfd7:	f3 48 a5             	rep movsq %ds:(%rsi),%es:(%rdi)
    dfda:	0f b7 9d b0 df ff ff 	movzwl -0x2050(%rbp),%ebx
    dfe1:	44 0f b7 a5 b0 df ff 	movzwl -0x2050(%rbp),%r12d
    dfe8:	ff 
    dfe9:	8b 85 c0 df ff ff    	mov    -0x2040(%rbp),%eax
    dfef:	44 0f bf e8          	movswl %ax,%r13d
    dff3:	48 8b 85 b8 e0 ff ff 	mov    -0x1f48(%rbp),%rax
    dffa:	8b 00                	mov    (%rax),%eax
    dffc:	0f be d0             	movsbl %al,%edx
    dfff:	48 8b 85 b8 e0 ff ff 	mov    -0x1f48(%rbp),%rax
    e006:	8b 00                	mov    (%rax),%eax
    e008:	83 f0 f3             	xor    $0xfffffff3,%eax
    e00b:	0f be c0             	movsbl %al,%eax
    e00e:	89 d6                	mov    %edx,%esi
    e010:	89 c7                	mov    %eax,%edi
    e012:	e8 53 92 ff ff       	callq  726a <safe_div_func_int8_t_s_s>
    e017:	83 f0 f7             	xor    $0xfffffff7,%eax
    e01a:	4c 0f be f0          	movsbq %al,%r14
    e01e:	48 8b 05 53 90 00 00 	mov    0x9053(%rip),%rax        # 17078 <g_637>
    e025:	0f b7 00             	movzwl (%rax),%eax
    e028:	0f b7 d0             	movzwl %ax,%edx
    e02b:	8b 85 c0 df ff ff    	mov    -0x2040(%rbp),%eax
    e031:	0f b7 c0             	movzwl %ax,%eax
    e034:	89 d6                	mov    %edx,%esi
    e036:	89 c7                	mov    %eax,%edi
    e038:	e8 00 9d ff ff       	callq  7d3d <safe_mul_func_uint16_t_u_u>
    e03d:	98                   	cwtl   
    e03e:	be 0f 00 00 00       	mov    $0xf,%esi
    e043:	89 c7                	mov    %eax,%edi
    e045:	e8 48 94 ff ff       	callq  7492 <safe_lshift_func_int16_t_s_s>
    e04a:	48 0f bf c0          	movswq %ax,%rax
    e04e:	4c 89 f2             	mov    %r14,%rdx
    e051:	48 09 95 18 e1 ff ff 	or     %rdx,-0x1ee8(%rbp)
    e058:	48 39 85 18 e1 ff ff 	cmp    %rax,-0x1ee8(%rbp)
    e05f:	0f 97 c0             	seta   %al
    e062:	0f b6 d0             	movzbl %al,%edx
    e065:	48 8b 05 74 90 00 00 	mov    0x9074(%rip),%rax        # 170e0 <g_1075>
    e06c:	48 8b 00             	mov    (%rax),%rax
    e06f:	0f b6 00             	movzbl (%rax),%eax
    e072:	0f b6 c0             	movzbl %al,%eax
    e075:	21 d0                	and    %edx,%eax
    e077:	98                   	cwtl   
    e078:	44 89 ee             	mov    %r13d,%esi
    e07b:	89 c7                	mov    %eax,%edi
    e07d:	e8 94 93 ff ff       	callq  7416 <safe_mod_func_int16_t_s_s>
    e082:	48 0f bf c0          	movswq %ax,%rax
    e086:	48 39 85 20 e1 ff ff 	cmp    %rax,-0x1ee0(%rbp)
    e08d:	0f 9d c0             	setge  %al
    e090:	0f b6 c0             	movzbl %al,%eax
    e093:	48 39 85 20 e1 ff ff 	cmp    %rax,-0x1ee0(%rbp)
    e09a:	0f 95 c0             	setne  %al
    e09d:	44 0f b6 e8          	movzbl %al,%r13d
    e0a1:	48 8b 05 38 90 00 00 	mov    0x9038(%rip),%rax        # 170e0 <g_1075>
    e0a8:	48 8b 00             	mov    (%rax),%rax
    e0ab:	0f b6 00             	movzbl (%rax),%eax
    e0ae:	0f b6 c0             	movzbl %al,%eax
    e0b1:	89 c7                	mov    %eax,%edi
    e0b3:	e8 8d 9a ff ff       	callq  7b45 <safe_unary_minus_func_uint8_t_u>
    e0b8:	0f b6 c0             	movzbl %al,%eax
    e0bb:	44 89 ee             	mov    %r13d,%esi
    e0be:	89 c7                	mov    %eax,%edi
    e0c0:	e8 87 9b ff ff       	callq  7c4c <safe_lshift_func_uint8_t_u_u>
    e0c5:	48 8d 85 a8 e0 ff ff 	lea    -0x1f58(%rbp),%rax
    e0cc:	48 39 85 f8 e0 ff ff 	cmp    %rax,-0x1f08(%rbp)
    e0d3:	0f 95 c0             	setne  %al
    e0d6:	0f b6 d0             	movzbl %al,%edx
    e0d9:	48 8b 85 b8 e0 ff ff 	mov    -0x1f48(%rbp),%rax
    e0e0:	8b 00                	mov    (%rax),%eax
    e0e2:	39 c2                	cmp    %eax,%edx
    e0e4:	0f 9e c0             	setle  %al
    e0e7:	0f b6 d0             	movzbl %al,%edx
    e0ea:	48 8b 85 b8 e0 ff ff 	mov    -0x1f48(%rbp),%rax
    e0f1:	8b 00                	mov    (%rax),%eax
    e0f3:	39 c2                	cmp    %eax,%edx
    e0f5:	0f 9e c0             	setle  %al
    e0f8:	0f b6 c0             	movzbl %al,%eax
    e0fb:	4c 89 e6             	mov    %r12,%rsi
    e0fe:	48 89 c7             	mov    %rax,%rdi
    e101:	e8 28 9f ff ff       	callq  802e <safe_add_func_uint64_t_u_u>
    e106:	48 8b 85 b8 e0 ff ff 	mov    -0x1f48(%rbp),%rax
    e10d:	8b 00                	mov    (%rax),%eax
    e10f:	48 8b 15 1a 76 00 00 	mov    0x761a(%rip),%rdx        # 15730 <g_569+0x190>
    e116:	48 98                	cltq   
    e118:	48 31 d0             	xor    %rdx,%rax
    e11b:	48 89 05 0e 76 00 00 	mov    %rax,0x760e(%rip)        # 15730 <g_569+0x190>
    e122:	48 8b 15 07 76 00 00 	mov    0x7607(%rip),%rdx        # 15730 <g_569+0x190>
    e129:	48 8b 85 20 e1 ff ff 	mov    -0x1ee0(%rbp),%rax
    e130:	48 89 d6             	mov    %rdx,%rsi
    e133:	48 89 c7             	mov    %rax,%rdi
    e136:	e8 6d 97 ff ff       	callq  78a8 <safe_sub_func_int64_t_s_s>
    e13b:	0f b6 c0             	movzbl %al,%eax
    e13e:	89 de                	mov    %ebx,%esi
    e140:	89 c7                	mov    %eax,%edi
    e142:	e8 46 9b ff ff       	callq  7c8d <safe_rshift_func_uint8_t_u_s>
    e147:	be 04 00 00 00       	mov    $0x4,%esi
    e14c:	bf 01 00 00 00       	mov    $0x1,%edi
    e151:	e8 4b 91 ff ff       	callq  72a1 <safe_lshift_func_int8_t_s_s>
    e156:	8b 85 c0 df ff ff    	mov    -0x2040(%rbp),%eax
    e15c:	89 c6                	mov    %eax,%esi
    e15e:	bf c0 e2 46 d8       	mov    $0xd846e2c0,%edi
    e163:	e8 9d 94 ff ff       	callq  7605 <safe_sub_func_int32_t_s_s>
    e168:	be 01 00 00 00       	mov    $0x1,%esi
    e16d:	bf 01 00 00 00       	mov    $0x1,%edi
    e172:	e8 d1 9c ff ff       	callq  7e48 <safe_rshift_func_uint16_t_u_s>
    e177:	0f b7 d0             	movzwl %ax,%edx
    e17a:	48 8b 05 f7 8e 00 00 	mov    0x8ef7(%rip),%rax        # 17078 <g_637>
    e181:	0f b7 00             	movzwl (%rax),%eax
    e184:	48 0f bf c0          	movswq %ax,%rax
    e188:	48 39 85 20 e1 ff ff 	cmp    %rax,-0x1ee0(%rbp)
    e18f:	0f 9f c0             	setg   %al
    e192:	0f b6 c0             	movzbl %al,%eax
    e195:	39 c2                	cmp    %eax,%edx
    e197:	7e 5d                	jle    e1f6 <func_47+0x4b64>
    e199:	48 8d 85 c0 df ff ff 	lea    -0x2040(%rbp),%rax
    e1a0:	48 89 85 60 eb ff ff 	mov    %rax,-0x14a0(%rbp)
    e1a7:	48 8d 85 c0 df ff ff 	lea    -0x2040(%rbp),%rax
    e1ae:	48 89 85 68 eb ff ff 	mov    %rax,-0x1498(%rbp)
    e1b5:	48 8d 85 c0 df ff ff 	lea    -0x2040(%rbp),%rax
    e1bc:	48 89 85 70 eb ff ff 	mov    %rax,-0x1490(%rbp)
    e1c3:	48 8d 85 c0 df ff ff 	lea    -0x2040(%rbp),%rax
    e1ca:	48 89 85 78 eb ff ff 	mov    %rax,-0x1488(%rbp)
    e1d1:	48 8d 85 c0 df ff ff 	lea    -0x2040(%rbp),%rax
    e1d8:	48 89 85 80 eb ff ff 	mov    %rax,-0x1480(%rbp)
    e1df:	48 8b 05 02 77 00 00 	mov    0x7702(%rip),%rax        # 158e8 <g_1583>
    e1e6:	48 83 c0 01          	add    $0x1,%rax
    e1ea:	48 89 05 f7 76 00 00 	mov    %rax,0x76f7(%rip)        # 158e8 <g_1583>
    e1f1:	e9 7a 0c 00 00       	jmpq   ee70 <func_47+0x57de>
    e1f6:	c7 85 54 e0 ff ff ff 	movl   $0xffffffff,-0x1fac(%rbp)
    e1fd:	ff ff ff 
    e200:	48 8d 05 59 76 00 00 	lea    0x7659(%rip),%rax        # 15860 <g_670>
    e207:	48 89 85 28 e1 ff ff 	mov    %rax,-0x1ed8(%rbp)
    e20e:	48 8d 05 53 a3 00 00 	lea    0xa353(%rip),%rax        # 18568 <g_34>
    e215:	48 89 85 30 e1 ff ff 	mov    %rax,-0x1ed0(%rbp)
    e21c:	48 8d 05 3d 76 00 00 	lea    0x763d(%rip),%rax        # 15860 <g_670>
    e223:	48 89 85 38 e1 ff ff 	mov    %rax,-0x1ec8(%rbp)
    e22a:	48 8d 05 17 72 00 00 	lea    0x7217(%rip),%rax        # 15448 <g_164>
    e231:	48 89 85 40 e1 ff ff 	mov    %rax,-0x1ec0(%rbp)
    e238:	48 8d 05 39 76 00 00 	lea    0x7639(%rip),%rax        # 15878 <g_670+0x18>
    e23f:	48 89 85 48 e1 ff ff 	mov    %rax,-0x1eb8(%rbp)
    e246:	48 8d 85 e4 df ff ff 	lea    -0x201c(%rbp),%rax
    e24d:	48 89 85 60 eb ff ff 	mov    %rax,-0x14a0(%rbp)
    e254:	48 8d 05 05 76 00 00 	lea    0x7605(%rip),%rax        # 15860 <g_670>
    e25b:	48 89 85 68 eb ff ff 	mov    %rax,-0x1498(%rbp)
    e262:	48 8d 05 53 70 00 00 	lea    0x7053(%rip),%rax        # 152bc <g_4+0x27c>
    e269:	48 89 85 70 eb ff ff 	mov    %rax,-0x1490(%rbp)
    e270:	48 8d 85 f0 e1 ff ff 	lea    -0x1e10(%rbp),%rax
    e277:	48 83 c0 08          	add    $0x8,%rax
    e27b:	48 89 85 78 eb ff ff 	mov    %rax,-0x1488(%rbp)
    e282:	48 8d 05 33 70 00 00 	lea    0x7033(%rip),%rax        # 152bc <g_4+0x27c>
    e289:	48 89 85 80 eb ff ff 	mov    %rax,-0x1480(%rbp)
    e290:	48 8d 85 f0 e1 ff ff 	lea    -0x1e10(%rbp),%rax
    e297:	48 83 c0 08          	add    $0x8,%rax
    e29b:	48 89 85 88 eb ff ff 	mov    %rax,-0x1478(%rbp)
    e2a2:	48 c7 85 90 eb ff ff 	movq   $0x0,-0x1470(%rbp)
    e2a9:	00 00 00 00 
    e2ad:	48 c7 85 98 eb ff ff 	movq   $0x0,-0x1468(%rbp)
    e2b4:	00 00 00 00 
    e2b8:	48 8d 85 e4 df ff ff 	lea    -0x201c(%rbp),%rax
    e2bf:	48 89 85 a0 eb ff ff 	mov    %rax,-0x1460(%rbp)
    e2c6:	48 8d 05 ef 6f 00 00 	lea    0x6fef(%rip),%rax        # 152bc <g_4+0x27c>
    e2cd:	48 89 85 a8 eb ff ff 	mov    %rax,-0x1458(%rbp)
    e2d4:	48 8d 05 e1 6f 00 00 	lea    0x6fe1(%rip),%rax        # 152bc <g_4+0x27c>
    e2db:	48 89 85 b0 eb ff ff 	mov    %rax,-0x1450(%rbp)
    e2e2:	48 8d 85 e0 e1 ff ff 	lea    -0x1e20(%rbp),%rax
    e2e9:	48 83 c0 04          	add    $0x4,%rax
    e2ed:	48 89 85 b8 eb ff ff 	mov    %rax,-0x1448(%rbp)
    e2f4:	48 8d 85 e0 e1 ff ff 	lea    -0x1e20(%rbp),%rax
    e2fb:	48 83 c0 04          	add    $0x4,%rax
    e2ff:	48 89 85 c0 eb ff ff 	mov    %rax,-0x1440(%rbp)
    e306:	48 c7 85 c8 eb ff ff 	movq   $0x0,-0x1438(%rbp)
    e30d:	00 00 00 00 
    e311:	48 8d 05 44 6d 00 00 	lea    0x6d44(%rip),%rax        # 1505c <g_4+0x1c>
    e318:	48 89 85 d0 eb ff ff 	mov    %rax,-0x1430(%rbp)
    e31f:	48 8d 85 f0 e1 ff ff 	lea    -0x1e10(%rbp),%rax
    e326:	48 83 c0 08          	add    $0x8,%rax
    e32a:	48 89 85 d8 eb ff ff 	mov    %rax,-0x1428(%rbp)
    e331:	48 8d 05 00 6f 00 00 	lea    0x6f00(%rip),%rax        # 15238 <g_4+0x1f8>
    e338:	48 89 85 e0 eb ff ff 	mov    %rax,-0x1420(%rbp)
    e33f:	48 8d 05 32 75 00 00 	lea    0x7532(%rip),%rax        # 15878 <g_670+0x18>
    e346:	48 89 85 e8 eb ff ff 	mov    %rax,-0x1418(%rbp)
    e34d:	48 8d 85 c0 df ff ff 	lea    -0x2040(%rbp),%rax
    e354:	48 89 85 f0 eb ff ff 	mov    %rax,-0x1410(%rbp)
    e35b:	48 8d 05 d2 70 00 00 	lea    0x70d2(%rip),%rax        # 15434 <g_36>
    e362:	48 89 85 f8 eb ff ff 	mov    %rax,-0x1408(%rbp)
    e369:	48 8d 05 f8 a1 00 00 	lea    0xa1f8(%rip),%rax        # 18568 <g_34>
    e370:	48 89 85 00 ec ff ff 	mov    %rax,-0x1400(%rbp)
    e377:	48 8d 85 e0 e1 ff ff 	lea    -0x1e20(%rbp),%rax
    e37e:	48 83 c0 04          	add    $0x4,%rax
    e382:	48 89 85 08 ec ff ff 	mov    %rax,-0x13f8(%rbp)
    e389:	48 8d 05 d0 74 00 00 	lea    0x74d0(%rip),%rax        # 15860 <g_670>
    e390:	48 89 85 10 ec ff ff 	mov    %rax,-0x13f0(%rbp)
    e397:	48 8d 85 e0 e1 ff ff 	lea    -0x1e20(%rbp),%rax
    e39e:	48 83 c0 0c          	add    $0xc,%rax
    e3a2:	48 89 85 18 ec ff ff 	mov    %rax,-0x13e8(%rbp)
    e3a9:	48 8d 85 f0 e1 ff ff 	lea    -0x1e10(%rbp),%rax
    e3b0:	48 83 c0 08          	add    $0x8,%rax
    e3b4:	48 89 85 20 ec ff ff 	mov    %rax,-0x13e0(%rbp)
    e3bb:	48 8d 05 a6 74 00 00 	lea    0x74a6(%rip),%rax        # 15868 <g_670+0x8>
    e3c2:	48 89 85 28 ec ff ff 	mov    %rax,-0x13d8(%rbp)
    e3c9:	48 8d 05 a0 74 00 00 	lea    0x74a0(%rip),%rax        # 15870 <g_670+0x10>
    e3d0:	48 89 85 30 ec ff ff 	mov    %rax,-0x13d0(%rbp)
    e3d7:	48 8d 05 aa 6c 00 00 	lea    0x6caa(%rip),%rax        # 15088 <g_4+0x48>
    e3de:	48 89 85 38 ec ff ff 	mov    %rax,-0x13c8(%rbp)
    e3e5:	48 8d 85 e4 df ff ff 	lea    -0x201c(%rbp),%rax
    e3ec:	48 89 85 40 ec ff ff 	mov    %rax,-0x13c0(%rbp)
    e3f3:	48 8d 05 72 74 00 00 	lea    0x7472(%rip),%rax        # 1586c <g_670+0xc>
    e3fa:	48 89 85 48 ec ff ff 	mov    %rax,-0x13b8(%rbp)
    e401:	48 8d 05 60 a1 00 00 	lea    0xa160(%rip),%rax        # 18568 <g_34>
    e408:	48 89 85 50 ec ff ff 	mov    %rax,-0x13b0(%rbp)
    e40f:	48 8d 05 4a 74 00 00 	lea    0x744a(%rip),%rax        # 15860 <g_670>
    e416:	48 89 85 58 ec ff ff 	mov    %rax,-0x13a8(%rbp)
    e41d:	48 8d 85 e0 e1 ff ff 	lea    -0x1e20(%rbp),%rax
    e424:	48 83 c0 04          	add    $0x4,%rax
    e428:	48 89 85 60 ec ff ff 	mov    %rax,-0x13a0(%rbp)
    e42f:	48 8d 85 e0 e1 ff ff 	lea    -0x1e20(%rbp),%rax
    e436:	48 83 c0 04          	add    $0x4,%rax
    e43a:	48 89 85 68 ec ff ff 	mov    %rax,-0x1398(%rbp)
    e441:	48 8d 05 20 a1 00 00 	lea    0xa120(%rip),%rax        # 18568 <g_34>
    e448:	48 89 85 70 ec ff ff 	mov    %rax,-0x1390(%rbp)
    e44f:	48 8d 05 06 6c 00 00 	lea    0x6c06(%rip),%rax        # 1505c <g_4+0x1c>
    e456:	48 89 85 78 ec ff ff 	mov    %rax,-0x1388(%rbp)
    e45d:	48 8d 05 04 74 00 00 	lea    0x7404(%rip),%rax        # 15868 <g_670+0x8>
    e464:	48 89 85 80 ec ff ff 	mov    %rax,-0x1380(%rbp)
    e46b:	48 c7 85 88 ec ff ff 	movq   $0x0,-0x1378(%rbp)
    e472:	00 00 00 00 
    e476:	48 8d 85 e0 e1 ff ff 	lea    -0x1e20(%rbp),%rax
    e47d:	48 83 c0 04          	add    $0x4,%rax
    e481:	48 89 85 90 ec ff ff 	mov    %rax,-0x1370(%rbp)
    e488:	48 8d 85 f0 e1 ff ff 	lea    -0x1e10(%rbp),%rax
    e48f:	48 83 c0 08          	add    $0x8,%rax
    e493:	48 89 85 98 ec ff ff 	mov    %rax,-0x1368(%rbp)
    e49a:	48 8d 85 f0 e1 ff ff 	lea    -0x1e10(%rbp),%rax
    e4a1:	48 83 c0 08          	add    $0x8,%rax
    e4a5:	48 89 85 a0 ec ff ff 	mov    %rax,-0x1360(%rbp)
    e4ac:	48 8d 85 e0 e1 ff ff 	lea    -0x1e20(%rbp),%rax
    e4b3:	48 83 c0 0c          	add    $0xc,%rax
    e4b7:	48 89 85 a8 ec ff ff 	mov    %rax,-0x1358(%rbp)
    e4be:	48 8d 05 6f 6f 00 00 	lea    0x6f6f(%rip),%rax        # 15434 <g_36>
    e4c5:	48 89 85 b0 ec ff ff 	mov    %rax,-0x1350(%rbp)
    e4cc:	48 8d 05 e9 6d 00 00 	lea    0x6de9(%rip),%rax        # 152bc <g_4+0x27c>
    e4d3:	48 89 85 b8 ec ff ff 	mov    %rax,-0x1348(%rbp)
    e4da:	48 8d 85 e4 df ff ff 	lea    -0x201c(%rbp),%rax
    e4e1:	48 89 85 c0 ec ff ff 	mov    %rax,-0x1340(%rbp)
    e4e8:	48 8d 85 e0 e1 ff ff 	lea    -0x1e20(%rbp),%rax
    e4ef:	48 83 c0 04          	add    $0x4,%rax
    e4f3:	48 89 85 c8 ec ff ff 	mov    %rax,-0x1338(%rbp)
    e4fa:	48 8d 85 e0 e1 ff ff 	lea    -0x1e20(%rbp),%rax
    e501:	48 83 c0 08          	add    $0x8,%rax
    e505:	48 89 85 d0 ec ff ff 	mov    %rax,-0x1330(%rbp)
    e50c:	48 8d 05 49 6b 00 00 	lea    0x6b49(%rip),%rax        # 1505c <g_4+0x1c>
    e513:	48 89 85 d8 ec ff ff 	mov    %rax,-0x1328(%rbp)
    e51a:	48 c7 85 e0 ec ff ff 	movq   $0x0,-0x1320(%rbp)
    e521:	00 00 00 00 
    e525:	48 8d 05 34 73 00 00 	lea    0x7334(%rip),%rax        # 15860 <g_670>
    e52c:	48 89 85 e8 ec ff ff 	mov    %rax,-0x1318(%rbp)
    e533:	48 8d 05 82 6d 00 00 	lea    0x6d82(%rip),%rax        # 152bc <g_4+0x27c>
    e53a:	48 89 85 f0 ec ff ff 	mov    %rax,-0x1310(%rbp)
    e541:	48 c7 85 f8 ec ff ff 	movq   $0x0,-0x1308(%rbp)
    e548:	00 00 00 00 
    e54c:	48 c7 85 00 ed ff ff 	movq   $0x0,-0x1300(%rbp)
    e553:	00 00 00 00 
    e557:	48 8d 05 d6 6e 00 00 	lea    0x6ed6(%rip),%rax        # 15434 <g_36>
    e55e:	48 89 85 08 ed ff ff 	mov    %rax,-0x12f8(%rbp)
    e565:	48 8d 85 e4 df ff ff 	lea    -0x201c(%rbp),%rax
    e56c:	48 89 85 10 ed ff ff 	mov    %rax,-0x12f0(%rbp)
    e573:	48 8d 05 fe 72 00 00 	lea    0x72fe(%rip),%rax        # 15878 <g_670+0x18>
    e57a:	48 89 85 18 ed ff ff 	mov    %rax,-0x12e8(%rbp)
    e581:	48 c7 85 20 ed ff ff 	movq   $0x0,-0x12e0(%rbp)
    e588:	00 00 00 00 
    e58c:	48 8d 85 e0 e1 ff ff 	lea    -0x1e20(%rbp),%rax
    e593:	48 83 c0 0c          	add    $0xc,%rax
    e597:	48 89 85 28 ed ff ff 	mov    %rax,-0x12d8(%rbp)
    e59e:	48 8d 85 f0 e1 ff ff 	lea    -0x1e10(%rbp),%rax
    e5a5:	48 83 c0 08          	add    $0x8,%rax
    e5a9:	48 89 85 30 ed ff ff 	mov    %rax,-0x12d0(%rbp)
    e5b0:	48 8d 85 e0 e1 ff ff 	lea    -0x1e20(%rbp),%rax
    e5b7:	48 83 c0 0c          	add    $0xc,%rax
    e5bb:	48 89 85 38 ed ff ff 	mov    %rax,-0x12c8(%rbp)
    e5c2:	48 8d 05 6b 6e 00 00 	lea    0x6e6b(%rip),%rax        # 15434 <g_36>
    e5c9:	48 89 85 40 ed ff ff 	mov    %rax,-0x12c0(%rbp)
    e5d0:	48 8d 05 89 72 00 00 	lea    0x7289(%rip),%rax        # 15860 <g_670>
    e5d7:	48 89 85 48 ed ff ff 	mov    %rax,-0x12b8(%rbp)
    e5de:	48 8d 05 5b 6b 00 00 	lea    0x6b5b(%rip),%rax        # 15140 <g_4+0x100>
    e5e5:	48 89 85 50 ed ff ff 	mov    %rax,-0x12b0(%rbp)
    e5ec:	48 8d 05 6d 72 00 00 	lea    0x726d(%rip),%rax        # 15860 <g_670>
    e5f3:	48 89 85 58 ed ff ff 	mov    %rax,-0x12a8(%rbp)
    e5fa:	48 8d 05 3f 6b 00 00 	lea    0x6b3f(%rip),%rax        # 15140 <g_4+0x100>
    e601:	48 89 85 60 ed ff ff 	mov    %rax,-0x12a0(%rbp)
    e608:	48 8d 05 59 9f 00 00 	lea    0x9f59(%rip),%rax        # 18568 <g_34>
    e60f:	48 89 85 68 ed ff ff 	mov    %rax,-0x1298(%rbp)
    e616:	48 8d 85 e0 e1 ff ff 	lea    -0x1e20(%rbp),%rax
    e61d:	48 83 c0 04          	add    $0x4,%rax
    e621:	48 89 85 70 ed ff ff 	mov    %rax,-0x1290(%rbp)
    e628:	48 8d 05 8d 6c 00 00 	lea    0x6c8d(%rip),%rax        # 152bc <g_4+0x27c>
    e62f:	48 89 85 78 ed ff ff 	mov    %rax,-0x1288(%rbp)
    e636:	48 8d 85 e0 e1 ff ff 	lea    -0x1e20(%rbp),%rax
    e63d:	48 83 c0 04          	add    $0x4,%rax
    e641:	48 89 85 80 ed ff ff 	mov    %rax,-0x1280(%rbp)
    e648:	48 8d 05 29 72 00 00 	lea    0x7229(%rip),%rax        # 15878 <g_670+0x18>
    e64f:	48 89 85 88 ed ff ff 	mov    %rax,-0x1278(%rbp)
    e656:	48 8d 05 0f 72 00 00 	lea    0x720f(%rip),%rax        # 1586c <g_670+0xc>
    e65d:	48 89 85 90 ed ff ff 	mov    %rax,-0x1270(%rbp)
    e664:	48 8d 05 d5 6a 00 00 	lea    0x6ad5(%rip),%rax        # 15140 <g_4+0x100>
    e66b:	48 89 85 98 ed ff ff 	mov    %rax,-0x1268(%rbp)
    e672:	48 8d 85 f0 e1 ff ff 	lea    -0x1e10(%rbp),%rax
    e679:	48 83 c0 08          	add    $0x8,%rax
    e67d:	48 89 85 a0 ed ff ff 	mov    %rax,-0x1260(%rbp)
    e684:	48 8d 85 f0 e1 ff ff 	lea    -0x1e10(%rbp),%rax
    e68b:	48 83 c0 08          	add    $0x8,%rax
    e68f:	48 89 85 a8 ed ff ff 	mov    %rax,-0x1258(%rbp)
    e696:	48 8d 85 e0 e1 ff ff 	lea    -0x1e20(%rbp),%rax
    e69d:	48 83 c0 0c          	add    $0xc,%rax
    e6a1:	48 89 85 b0 ed ff ff 	mov    %rax,-0x1250(%rbp)
    e6a8:	48 8d 05 0d 6c 00 00 	lea    0x6c0d(%rip),%rax        # 152bc <g_4+0x27c>
    e6af:	48 89 85 b8 ed ff ff 	mov    %rax,-0x1248(%rbp)
    e6b6:	48 8d 85 e4 df ff ff 	lea    -0x201c(%rbp),%rax
    e6bd:	48 89 85 c0 ed ff ff 	mov    %rax,-0x1240(%rbp)
    e6c4:	48 8d 85 e4 df ff ff 	lea    -0x201c(%rbp),%rax
    e6cb:	48 89 85 c8 ed ff ff 	mov    %rax,-0x1238(%rbp)
    e6d2:	48 8d 85 c0 df ff ff 	lea    -0x2040(%rbp),%rax
    e6d9:	48 89 85 d0 ed ff ff 	mov    %rax,-0x1230(%rbp)
    e6e0:	48 8d 05 d5 6b 00 00 	lea    0x6bd5(%rip),%rax        # 152bc <g_4+0x27c>
    e6e7:	48 89 85 d8 ed ff ff 	mov    %rax,-0x1228(%rbp)
    e6ee:	48 8d 85 f0 e1 ff ff 	lea    -0x1e10(%rbp),%rax
    e6f5:	48 83 c0 08          	add    $0x8,%rax
    e6f9:	48 89 85 e0 ed ff ff 	mov    %rax,-0x1220(%rbp)
    e700:	48 8d 05 39 6a 00 00 	lea    0x6a39(%rip),%rax        # 15140 <g_4+0x100>
    e707:	48 89 85 e8 ed ff ff 	mov    %rax,-0x1218(%rbp)
    e70e:	48 8d 05 57 71 00 00 	lea    0x7157(%rip),%rax        # 1586c <g_670+0xc>
    e715:	48 89 85 f0 ed ff ff 	mov    %rax,-0x1210(%rbp)
    e71c:	48 8d 85 f0 e1 ff ff 	lea    -0x1e10(%rbp),%rax
    e723:	48 83 c0 08          	add    $0x8,%rax
    e727:	48 89 85 f8 ed ff ff 	mov    %rax,-0x1208(%rbp)
    e72e:	48 8d 05 13 6d 00 00 	lea    0x6d13(%rip),%rax        # 15448 <g_164>
    e735:	48 89 85 00 ee ff ff 	mov    %rax,-0x1200(%rbp)
    e73c:	48 8d 85 e0 e1 ff ff 	lea    -0x1e20(%rbp),%rax
    e743:	48 83 c0 04          	add    $0x4,%rax
    e747:	48 89 85 08 ee ff ff 	mov    %rax,-0x11f8(%rbp)
    e74e:	48 8d 85 e0 e1 ff ff 	lea    -0x1e20(%rbp),%rax
    e755:	48 83 c0 04          	add    $0x4,%rax
    e759:	48 89 85 10 ee ff ff 	mov    %rax,-0x11f0(%rbp)
    e760:	48 8d 05 11 71 00 00 	lea    0x7111(%rip),%rax        # 15878 <g_670+0x18>
    e767:	48 89 85 18 ee ff ff 	mov    %rax,-0x11e8(%rbp)
    e76e:	48 8d 05 47 6b 00 00 	lea    0x6b47(%rip),%rax        # 152bc <g_4+0x27c>
    e775:	48 89 85 20 ee ff ff 	mov    %rax,-0x11e0(%rbp)
    e77c:	48 8d 05 f5 70 00 00 	lea    0x70f5(%rip),%rax        # 15878 <g_670+0x18>
    e783:	48 89 85 28 ee ff ff 	mov    %rax,-0x11d8(%rbp)
    e78a:	48 c7 85 30 ee ff ff 	movq   $0x0,-0x11d0(%rbp)
    e791:	00 00 00 00 
    e795:	48 8d 05 cc 9d 00 00 	lea    0x9dcc(%rip),%rax        # 18568 <g_34>
    e79c:	48 89 85 38 ee ff ff 	mov    %rax,-0x11c8(%rbp)
    e7a3:	48 c7 85 40 ee ff ff 	movq   $0x0,-0x11c0(%rbp)
    e7aa:	00 00 00 00 
    e7ae:	48 8d 05 b3 9d 00 00 	lea    0x9db3(%rip),%rax        # 18568 <g_34>
    e7b5:	48 89 85 48 ee ff ff 	mov    %rax,-0x11b8(%rbp)
    e7bc:	48 8d 05 f9 6a 00 00 	lea    0x6af9(%rip),%rax        # 152bc <g_4+0x27c>
    e7c3:	48 89 85 50 ee ff ff 	mov    %rax,-0x11b0(%rbp)
    e7ca:	48 8d 85 f0 e1 ff ff 	lea    -0x1e10(%rbp),%rax
    e7d1:	48 83 c0 08          	add    $0x8,%rax
    e7d5:	48 89 85 58 ee ff ff 	mov    %rax,-0x11a8(%rbp)
    e7dc:	48 8d 05 51 6c 00 00 	lea    0x6c51(%rip),%rax        # 15434 <g_36>
    e7e3:	48 89 85 60 ee ff ff 	mov    %rax,-0x11a0(%rbp)
    e7ea:	48 8d 05 57 6c 00 00 	lea    0x6c57(%rip),%rax        # 15448 <g_164>
    e7f1:	48 89 85 68 ee ff ff 	mov    %rax,-0x1198(%rbp)
    e7f8:	48 8d 05 bd 6a 00 00 	lea    0x6abd(%rip),%rax        # 152bc <g_4+0x27c>
    e7ff:	48 89 85 70 ee ff ff 	mov    %rax,-0x1190(%rbp)
    e806:	48 8d 05 af 6a 00 00 	lea    0x6aaf(%rip),%rax        # 152bc <g_4+0x27c>
    e80d:	48 89 85 78 ee ff ff 	mov    %rax,-0x1188(%rbp)
    e814:	48 8d 85 e4 df ff ff 	lea    -0x201c(%rbp),%rax
    e81b:	48 89 85 80 ee ff ff 	mov    %rax,-0x1180(%rbp)
    e822:	48 8d 85 e0 e1 ff ff 	lea    -0x1e20(%rbp),%rax
    e829:	48 83 c0 04          	add    $0x4,%rax
    e82d:	48 89 85 88 ee ff ff 	mov    %rax,-0x1178(%rbp)
    e834:	48 8d 85 e4 df ff ff 	lea    -0x201c(%rbp),%rax
    e83b:	48 89 85 90 ee ff ff 	mov    %rax,-0x1170(%rbp)
    e842:	48 8d 85 f0 e1 ff ff 	lea    -0x1e10(%rbp),%rax
    e849:	48 83 c0 08          	add    $0x8,%rax
    e84d:	48 89 85 98 ee ff ff 	mov    %rax,-0x1168(%rbp)
    e854:	48 8d 05 61 6a 00 00 	lea    0x6a61(%rip),%rax        # 152bc <g_4+0x27c>
    e85b:	48 89 85 a0 ee ff ff 	mov    %rax,-0x1160(%rbp)
    e862:	48 8d 85 e4 df ff ff 	lea    -0x201c(%rbp),%rax
    e869:	48 89 85 a8 ee ff ff 	mov    %rax,-0x1158(%rbp)
    e870:	48 8d 85 e0 e1 ff ff 	lea    -0x1e20(%rbp),%rax
    e877:	48 83 c0 08          	add    $0x8,%rax
    e87b:	48 89 85 b0 ee ff ff 	mov    %rax,-0x1150(%rbp)
    e882:	48 8d 85 e4 df ff ff 	lea    -0x201c(%rbp),%rax
    e889:	48 89 85 b8 ee ff ff 	mov    %rax,-0x1148(%rbp)
    e890:	48 8d 05 e5 6f 00 00 	lea    0x6fe5(%rip),%rax        # 1587c <g_670+0x1c>
    e897:	48 89 85 c0 ee ff ff 	mov    %rax,-0x1140(%rbp)
    e89e:	48 8d 05 8f 6b 00 00 	lea    0x6b8f(%rip),%rax        # 15434 <g_36>
    e8a5:	48 89 85 c8 ee ff ff 	mov    %rax,-0x1138(%rbp)
    e8ac:	48 8d 05 81 6b 00 00 	lea    0x6b81(%rip),%rax        # 15434 <g_36>
    e8b3:	48 89 85 d0 ee ff ff 	mov    %rax,-0x1130(%rbp)
    e8ba:	48 8d 05 87 6b 00 00 	lea    0x6b87(%rip),%rax        # 15448 <g_164>
    e8c1:	48 89 85 d8 ee ff ff 	mov    %rax,-0x1128(%rbp)
    e8c8:	48 8d 85 f0 e1 ff ff 	lea    -0x1e10(%rbp),%rax
    e8cf:	48 83 c0 08          	add    $0x8,%rax
    e8d3:	48 89 85 e0 ee ff ff 	mov    %rax,-0x1120(%rbp)
    e8da:	48 8d 05 8b 6f 00 00 	lea    0x6f8b(%rip),%rax        # 1586c <g_670+0xc>
    e8e1:	48 89 85 e8 ee ff ff 	mov    %rax,-0x1118(%rbp)
    e8e8:	48 8d 05 71 6f 00 00 	lea    0x6f71(%rip),%rax        # 15860 <g_670>
    e8ef:	48 89 85 f0 ee ff ff 	mov    %rax,-0x1110(%rbp)
    e8f6:	48 8d 85 e0 e1 ff ff 	lea    -0x1e20(%rbp),%rax
    e8fd:	48 83 c0 04          	add    $0x4,%rax
    e901:	48 89 85 f8 ee ff ff 	mov    %rax,-0x1108(%rbp)
    e908:	48 8d 85 e0 e1 ff ff 	lea    -0x1e20(%rbp),%rax
    e90f:	48 83 c0 04          	add    $0x4,%rax
    e913:	48 89 85 00 ef ff ff 	mov    %rax,-0x1100(%rbp)
    e91a:	48 8d 05 47 9c 00 00 	lea    0x9c47(%rip),%rax        # 18568 <g_34>
    e921:	48 89 85 08 ef ff ff 	mov    %rax,-0x10f8(%rbp)
    e928:	48 8d 05 19 6b 00 00 	lea    0x6b19(%rip),%rax        # 15448 <g_164>
    e92f:	48 89 85 10 ef ff ff 	mov    %rax,-0x10f0(%rbp)
    e936:	48 c7 85 18 ef ff ff 	movq   $0x0,-0x10e8(%rbp)
    e93d:	00 00 00 00 
    e941:	48 8d 85 e4 df ff ff 	lea    -0x201c(%rbp),%rax
    e948:	48 89 85 20 ef ff ff 	mov    %rax,-0x10e0(%rbp)
    e94f:	48 c7 85 28 ef ff ff 	movq   $0x0,-0x10d8(%rbp)
    e956:	00 00 00 00 
    e95a:	48 8d 05 5b 69 00 00 	lea    0x695b(%rip),%rax        # 152bc <g_4+0x27c>
    e961:	48 89 85 30 ef ff ff 	mov    %rax,-0x10d0(%rbp)
    e968:	48 c7 85 38 ef ff ff 	movq   $0x0,-0x10c8(%rbp)
    e96f:	00 00 00 00 
    e973:	48 8d 05 f6 6e 00 00 	lea    0x6ef6(%rip),%rax        # 15870 <g_670+0x10>
    e97a:	48 89 85 40 ef ff ff 	mov    %rax,-0x10c0(%rbp)
    e981:	48 8d 85 e0 e1 ff ff 	lea    -0x1e20(%rbp),%rax
    e988:	48 83 c0 04          	add    $0x4,%rax
    e98c:	48 89 85 48 ef ff ff 	mov    %rax,-0x10b8(%rbp)
    e993:	48 c7 85 50 ef ff ff 	movq   $0x0,-0x10b0(%rbp)
    e99a:	00 00 00 00 
    e99e:	48 8d 85 e0 e1 ff ff 	lea    -0x1e20(%rbp),%rax
    e9a5:	48 83 c0 04          	add    $0x4,%rax
    e9a9:	48 89 85 58 ef ff ff 	mov    %rax,-0x10a8(%rbp)
    e9b0:	48 8d 05 05 69 00 00 	lea    0x6905(%rip),%rax        # 152bc <g_4+0x27c>
    e9b7:	48 89 85 60 ef ff ff 	mov    %rax,-0x10a0(%rbp)
    e9be:	48 8d 05 83 6a 00 00 	lea    0x6a83(%rip),%rax        # 15448 <g_164>
    e9c5:	48 89 85 68 ef ff ff 	mov    %rax,-0x1098(%rbp)
    e9cc:	48 8d 05 b5 66 00 00 	lea    0x66b5(%rip),%rax        # 15088 <g_4+0x48>
    e9d3:	48 89 85 70 ef ff ff 	mov    %rax,-0x1090(%rbp)
    e9da:	48 8d 85 c0 df ff ff 	lea    -0x2040(%rbp),%rax
    e9e1:	48 89 85 78 ef ff ff 	mov    %rax,-0x1088(%rbp)
    e9e8:	48 8d 05 cd 68 00 00 	lea    0x68cd(%rip),%rax        # 152bc <g_4+0x27c>
    e9ef:	48 89 85 80 ef ff ff 	mov    %rax,-0x1080(%rbp)
    e9f6:	48 8d 85 e0 e1 ff ff 	lea    -0x1e20(%rbp),%rax
    e9fd:	48 83 c0 0c          	add    $0xc,%rax
    ea01:	48 89 85 88 ef ff ff 	mov    %rax,-0x1078(%rbp)
    ea08:	48 c7 85 90 ef ff ff 	movq   $0x0,-0x1070(%rbp)
    ea0f:	00 00 00 00 
    ea13:	48 8d 05 4e 9b 00 00 	lea    0x9b4e(%rip),%rax        # 18568 <g_34>
    ea1a:	48 89 85 98 ef ff ff 	mov    %rax,-0x1068(%rbp)
    ea21:	48 8d 85 f0 e1 ff ff 	lea    -0x1e10(%rbp),%rax
    ea28:	48 83 c0 08          	add    $0x8,%rax
    ea2c:	48 89 85 a0 ef ff ff 	mov    %rax,-0x1060(%rbp)
    ea33:	48 8d 05 9e 66 00 00 	lea    0x669e(%rip),%rax        # 150d8 <g_4+0x98>
    ea3a:	48 89 85 a8 ef ff ff 	mov    %rax,-0x1058(%rbp)
    ea41:	48 8d 85 e4 df ff ff 	lea    -0x201c(%rbp),%rax
    ea48:	48 89 85 b0 ef ff ff 	mov    %rax,-0x1050(%rbp)
    ea4f:	48 8d 85 e4 df ff ff 	lea    -0x201c(%rbp),%rax
    ea56:	48 89 85 b8 ef ff ff 	mov    %rax,-0x1048(%rbp)
    ea5d:	48 8d 85 f0 e1 ff ff 	lea    -0x1e10(%rbp),%rax
    ea64:	48 83 c0 08          	add    $0x8,%rax
    ea68:	48 89 85 c0 ef ff ff 	mov    %rax,-0x1040(%rbp)
    ea6f:	48 8d 85 e0 e1 ff ff 	lea    -0x1e20(%rbp),%rax
    ea76:	48 83 c0 04          	add    $0x4,%rax
    ea7a:	48 89 85 c8 ef ff ff 	mov    %rax,-0x1038(%rbp)
    ea81:	48 8d 85 c0 df ff ff 	lea    -0x2040(%rbp),%rax
    ea88:	48 89 85 d0 ef ff ff 	mov    %rax,-0x1030(%rbp)
    ea8f:	48 c7 85 d8 ef ff ff 	movq   $0x0,-0x1028(%rbp)
    ea96:	00 00 00 00 
    ea9a:	48 8d 85 e0 e1 ff ff 	lea    -0x1e20(%rbp),%rax
    eaa1:	48 83 c0 04          	add    $0x4,%rax
    eaa5:	48 89 85 e0 ef ff ff 	mov    %rax,-0x1020(%rbp)
    eaac:	48 8d 05 b9 6d 00 00 	lea    0x6db9(%rip),%rax        # 1586c <g_670+0xc>
    eab3:	48 89 85 e8 ef ff ff 	mov    %rax,-0x1018(%rbp)
    eaba:	48 8d 85 e0 e1 ff ff 	lea    -0x1e20(%rbp),%rax
    eac1:	48 83 c0 04          	add    $0x4,%rax
    eac5:	48 89 85 f0 ef ff ff 	mov    %rax,-0x1010(%rbp)
    eacc:	48 8d 05 61 69 00 00 	lea    0x6961(%rip),%rax        # 15434 <g_36>
    ead3:	48 89 85 f8 ef ff ff 	mov    %rax,-0x1008(%rbp)
    eada:	48 c7 85 00 f0 ff ff 	movq   $0x0,-0x1000(%rbp)
    eae1:	00 00 00 00 
    eae5:	48 8d 05 74 6d 00 00 	lea    0x6d74(%rip),%rax        # 15860 <g_670>
    eaec:	48 89 85 08 f0 ff ff 	mov    %rax,-0xff8(%rbp)
    eaf3:	48 8d 05 66 6d 00 00 	lea    0x6d66(%rip),%rax        # 15860 <g_670>
    eafa:	48 89 85 10 f0 ff ff 	mov    %rax,-0xff0(%rbp)
    eb01:	48 8d 85 e0 e1 ff ff 	lea    -0x1e20(%rbp),%rax
    eb08:	48 83 c0 0c          	add    $0xc,%rax
    eb0c:	48 89 85 18 f0 ff ff 	mov    %rax,-0xfe8(%rbp)
    eb13:	48 8d 05 1a 69 00 00 	lea    0x691a(%rip),%rax        # 15434 <g_36>
    eb1a:	48 89 85 20 f0 ff ff 	mov    %rax,-0xfe0(%rbp)
    eb21:	48 8d 05 48 6d 00 00 	lea    0x6d48(%rip),%rax        # 15870 <g_670+0x10>
    eb28:	48 89 85 28 f0 ff ff 	mov    %rax,-0xfd8(%rbp)
    eb2f:	48 8d 85 e4 df ff ff 	lea    -0x201c(%rbp),%rax
    eb36:	48 89 85 30 f0 ff ff 	mov    %rax,-0xfd0(%rbp)
    eb3d:	48 8d 05 1c 6d 00 00 	lea    0x6d1c(%rip),%rax        # 15860 <g_670>
    eb44:	48 89 85 38 f0 ff ff 	mov    %rax,-0xfc8(%rbp)
    eb4b:	48 8d 05 da 65 00 00 	lea    0x65da(%rip),%rax        # 1512c <g_4+0xec>
    eb52:	48 89 85 40 f0 ff ff 	mov    %rax,-0xfc0(%rbp)
    eb59:	48 8d 05 cc 65 00 00 	lea    0x65cc(%rip),%rax        # 1512c <g_4+0xec>
    eb60:	48 89 85 48 f0 ff ff 	mov    %rax,-0xfb8(%rbp)
    eb67:	48 8d 05 f2 6c 00 00 	lea    0x6cf2(%rip),%rax        # 15860 <g_670>
    eb6e:	48 89 85 50 f0 ff ff 	mov    %rax,-0xfb0(%rbp)
    eb75:	48 8d 85 e4 df ff ff 	lea    -0x201c(%rbp),%rax
    eb7c:	48 89 85 58 f0 ff ff 	mov    %rax,-0xfa8(%rbp)
    eb83:	48 8d 05 e6 6c 00 00 	lea    0x6ce6(%rip),%rax        # 15870 <g_670+0x10>
    eb8a:	48 89 85 60 f0 ff ff 	mov    %rax,-0xfa0(%rbp)
    eb91:	48 c7 85 68 f0 ff ff 	movq   $0x0,-0xf98(%rbp)
    eb98:	00 00 00 00 
    eb9c:	48 c7 85 70 f0 ff ff 	movq   $0x0,-0xf90(%rbp)
    eba3:	00 00 00 00 
    eba7:	48 8d 05 c2 6c 00 00 	lea    0x6cc2(%rip),%rax        # 15870 <g_670+0x10>
    ebae:	48 89 85 78 f0 ff ff 	mov    %rax,-0xf88(%rbp)
    ebb5:	48 8d 05 b0 6c 00 00 	lea    0x6cb0(%rip),%rax        # 1586c <g_670+0xc>
    ebbc:	48 89 85 80 f0 ff ff 	mov    %rax,-0xf80(%rbp)
    ebc3:	48 8d 05 96 6c 00 00 	lea    0x6c96(%rip),%rax        # 15860 <g_670>
    ebca:	48 89 85 88 f0 ff ff 	mov    %rax,-0xf78(%rbp)
    ebd1:	48 8d 05 e4 66 00 00 	lea    0x66e4(%rip),%rax        # 152bc <g_4+0x27c>
    ebd8:	48 89 85 90 f0 ff ff 	mov    %rax,-0xf70(%rbp)
    ebdf:	48 8d 85 e0 e1 ff ff 	lea    -0x1e20(%rbp),%rax
    ebe6:	48 83 c0 04          	add    $0x4,%rax
    ebea:	48 89 85 98 f0 ff ff 	mov    %rax,-0xf68(%rbp)
    ebf1:	48 8d 05 68 6c 00 00 	lea    0x6c68(%rip),%rax        # 15860 <g_670>
    ebf8:	48 89 85 a0 f0 ff ff 	mov    %rax,-0xf60(%rbp)
    ebff:	48 8d 85 e4 df ff ff 	lea    -0x201c(%rbp),%rax
    ec06:	48 89 85 a8 f0 ff ff 	mov    %rax,-0xf58(%rbp)
    ec0d:	48 c7 85 b0 f0 ff ff 	movq   $0x0,-0xf50(%rbp)
    ec14:	00 00 00 00 
    ec18:	48 8d 85 f0 e1 ff ff 	lea    -0x1e10(%rbp),%rax
    ec1f:	48 83 c0 04          	add    $0x4,%rax
    ec23:	48 89 85 b8 f0 ff ff 	mov    %rax,-0xf48(%rbp)
    ec2a:	48 8d 05 37 6c 00 00 	lea    0x6c37(%rip),%rax        # 15868 <g_670+0x8>
    ec31:	48 89 85 c0 f0 ff ff 	mov    %rax,-0xf40(%rbp)
    ec38:	48 8d 85 e4 df ff ff 	lea    -0x201c(%rbp),%rax
    ec3f:	48 89 85 c8 f0 ff ff 	mov    %rax,-0xf38(%rbp)
    ec46:	48 8d 05 e7 67 00 00 	lea    0x67e7(%rip),%rax        # 15434 <g_36>
    ec4d:	48 89 85 d0 f0 ff ff 	mov    %rax,-0xf30(%rbp)
    ec54:	48 8d 05 61 66 00 00 	lea    0x6661(%rip),%rax        # 152bc <g_4+0x27c>
    ec5b:	48 89 85 d8 f0 ff ff 	mov    %rax,-0xf28(%rbp)
    ec62:	48 c7 85 e0 f0 ff ff 	movq   $0x0,-0xf20(%rbp)
    ec69:	00 00 00 00 
    ec6d:	48 8d 05 48 66 00 00 	lea    0x6648(%rip),%rax        # 152bc <g_4+0x27c>
    ec74:	48 89 85 e8 f0 ff ff 	mov    %rax,-0xf18(%rbp)
    ec7b:	48 8d 05 de 6b 00 00 	lea    0x6bde(%rip),%rax        # 15860 <g_670>
    ec82:	48 89 85 f0 f0 ff ff 	mov    %rax,-0xf10(%rbp)
    ec89:	48 8d 05 f8 63 00 00 	lea    0x63f8(%rip),%rax        # 15088 <g_4+0x48>
    ec90:	48 89 85 f8 f0 ff ff 	mov    %rax,-0xf08(%rbp)
    ec97:	48 8d 85 e0 e1 ff ff 	lea    -0x1e20(%rbp),%rax
    ec9e:	48 83 c0 04          	add    $0x4,%rax
    eca2:	48 89 85 00 f1 ff ff 	mov    %rax,-0xf00(%rbp)
    eca9:	48 8d 05 b0 6b 00 00 	lea    0x6bb0(%rip),%rax        # 15860 <g_670>
    ecb0:	48 89 85 08 f1 ff ff 	mov    %rax,-0xef8(%rbp)
    ecb7:	48 c7 85 10 f1 ff ff 	movq   $0x0,-0xef0(%rbp)
    ecbe:	00 00 00 00 
    ecc2:	48 8d 05 a7 6b 00 00 	lea    0x6ba7(%rip),%rax        # 15870 <g_670+0x10>
    ecc9:	48 89 85 18 f1 ff ff 	mov    %rax,-0xee8(%rbp)
    ecd0:	48 8d 85 e0 e1 ff ff 	lea    -0x1e20(%rbp),%rax
    ecd7:	48 89 85 20 f1 ff ff 	mov    %rax,-0xee0(%rbp)
    ecde:	48 8d 85 e0 e1 ff ff 	lea    -0x1e20(%rbp),%rax
    ece5:	48 83 c0 04          	add    $0x4,%rax
    ece9:	48 89 85 28 f1 ff ff 	mov    %rax,-0xed8(%rbp)
    ecf0:	48 8d 85 c0 df ff ff 	lea    -0x2040(%rbp),%rax
    ecf7:	48 89 85 30 f1 ff ff 	mov    %rax,-0xed0(%rbp)
    ecfe:	48 8d 85 e0 e1 ff ff 	lea    -0x1e20(%rbp),%rax
    ed05:	48 83 c0 04          	add    $0x4,%rax
    ed09:	48 89 85 38 f1 ff ff 	mov    %rax,-0xec8(%rbp)
    ed10:	48 8d 05 49 6b 00 00 	lea    0x6b49(%rip),%rax        # 15860 <g_670>
    ed17:	48 89 85 40 f1 ff ff 	mov    %rax,-0xec0(%rbp)
    ed1e:	48 8d 05 97 65 00 00 	lea    0x6597(%rip),%rax        # 152bc <g_4+0x27c>
    ed25:	48 89 85 48 f1 ff ff 	mov    %rax,-0xeb8(%rbp)
    ed2c:	48 8d 05 29 63 00 00 	lea    0x6329(%rip),%rax        # 1505c <g_4+0x1c>
    ed33:	48 89 85 50 f1 ff ff 	mov    %rax,-0xeb0(%rbp)
    ed3a:	48 8d 85 e0 e1 ff ff 	lea    -0x1e20(%rbp),%rax
    ed41:	48 83 c0 04          	add    $0x4,%rax
    ed45:	48 89 85 58 f1 ff ff 	mov    %rax,-0xea8(%rbp)
    ed4c:	48 8d 05 15 98 00 00 	lea    0x9815(%rip),%rax        # 18568 <g_34>
    ed53:	48 89 85 60 f1 ff ff 	mov    %rax,-0xea0(%rbp)
    ed5a:	48 8d 05 0f 6b 00 00 	lea    0x6b0f(%rip),%rax        # 15870 <g_670+0x10>
    ed61:	48 89 85 68 f1 ff ff 	mov    %rax,-0xe98(%rbp)
    ed68:	48 8d 05 f9 97 00 00 	lea    0x97f9(%rip),%rax        # 18568 <g_34>
    ed6f:	48 89 85 70 f1 ff ff 	mov    %rax,-0xe90(%rbp)
    ed76:	48 8d 05 eb 97 00 00 	lea    0x97eb(%rip),%rax        # 18568 <g_34>
    ed7d:	48 89 85 78 f1 ff ff 	mov    %rax,-0xe88(%rbp)
    ed84:	48 8d 05 fd 62 00 00 	lea    0x62fd(%rip),%rax        # 15088 <g_4+0x48>
    ed8b:	48 89 85 80 f1 ff ff 	mov    %rax,-0xe80(%rbp)
    ed92:	48 8d 85 e0 e1 ff ff 	lea    -0x1e20(%rbp),%rax
    ed99:	48 83 c0 08          	add    $0x8,%rax
    ed9d:	48 89 85 88 f1 ff ff 	mov    %rax,-0xe78(%rbp)
    eda4:	48 c7 85 90 f1 ff ff 	movq   $0x0,-0xe70(%rbp)
    edab:	00 00 00 00 
    edaf:	48 8d 85 e0 e1 ff ff 	lea    -0x1e20(%rbp),%rax
    edb6:	48 83 c0 04          	add    $0x4,%rax
    edba:	48 89 85 98 f1 ff ff 	mov    %rax,-0xe68(%rbp)
    edc1:	c7 85 58 e0 ff ff c0 	movl   $0xa5a574c0,-0x1fa8(%rbp)
    edc8:	74 a5 a5 
    edcb:	c7 85 08 e0 ff ff 00 	movl   $0x0,-0x1ff8(%rbp)
    edd2:	00 00 00 
    edd5:	eb 1a                	jmp    edf1 <func_47+0x575f>
    edd7:	8b 85 08 e0 ff ff    	mov    -0x1ff8(%rbp),%eax
    eddd:	48 98                	cltq   
    eddf:	c7 84 85 f0 e1 ff ff 	movl   $0xffffffff,-0x1e10(%rbp,%rax,4)
    ede6:	ff ff ff ff 
    edea:	83 85 08 e0 ff ff 01 	addl   $0x1,-0x1ff8(%rbp)
    edf1:	83 bd 08 e0 ff ff 04 	cmpl   $0x4,-0x1ff8(%rbp)
    edf8:	7e dd                	jle    edd7 <func_47+0x5745>
    edfa:	90                   	nop
    edfb:	8b 85 e4 df ff ff    	mov    -0x201c(%rbp),%eax
    ee01:	98                   	cwtl   
    ee02:	be 0b 00 00 00       	mov    $0xb,%esi
    ee07:	89 c7                	mov    %eax,%edi
    ee09:	e8 84 86 ff ff       	callq  7492 <safe_lshift_func_int16_t_s_s>
    ee0e:	0f bf d0             	movswl %ax,%edx
    ee11:	48 8b 05 30 82 00 00 	mov    0x8230(%rip),%rax        # 17048 <g_414>
    ee18:	8b 00                	mov    (%rax),%eax
    ee1a:	89 d6                	mov    %edx,%esi
    ee1c:	89 c7                	mov    %eax,%edi
    ee1e:	e8 02 91 ff ff       	callq  7f25 <safe_div_func_uint32_t_u_u>
    ee23:	c7 85 54 e0 ff ff ff 	movl   $0xffffffff,-0x1fac(%rbp)
    ee2a:	ff ff ff 
    ee2d:	8b 05 35 97 00 00    	mov    0x9735(%rip),%eax        # 18568 <g_34>
    ee33:	39 85 54 e0 ff ff    	cmp    %eax,-0x1fac(%rbp)
    ee39:	0f 95 c0             	setne  %al
    ee3c:	0f b6 d0             	movzbl %al,%edx
    ee3f:	48 8b 85 28 e1 ff ff 	mov    -0x1ed8(%rbp),%rax
    ee46:	8b 00                	mov    (%rax),%eax
    ee48:	09 c2                	or     %eax,%edx
    ee4a:	48 8b 85 28 e1 ff ff 	mov    -0x1ed8(%rbp),%rax
    ee51:	89 10                	mov    %edx,(%rax)
    ee53:	48 83 85 c8 e0 ff ff 	addq   $0x1,-0x1f38(%rbp)
    ee5a:	01 
    ee5b:	83 bd e8 df ff ff 00 	cmpl   $0x0,-0x2018(%rbp)
    ee62:	75 32                	jne    ee96 <func_47+0x5804>
    ee64:	8b 05 2a 97 00 00    	mov    0x972a(%rip),%eax        # 18594 <g_760>
    ee6a:	85 c0                	test   %eax,%eax
    ee6c:	74 02                	je     ee70 <func_47+0x57de>
    ee6e:	eb 8b                	jmp    edfb <func_47+0x5769>
    ee70:	8b 85 3c e5 ff ff    	mov    -0x1ac4(%rbp),%eax
    ee76:	89 85 50 e0 ff ff    	mov    %eax,-0x1fb0(%rbp)
    ee7c:	8b 8d 50 e0 ff ff    	mov    -0x1fb0(%rbp),%ecx
    ee82:	48 8b 85 b8 e0 ff ff 	mov    -0x1f48(%rbp),%rax
    ee89:	8b 10                	mov    (%rax),%edx
    ee8b:	48 8b 85 b8 e0 ff ff 	mov    -0x1f48(%rbp),%rax
    ee92:	31 ca                	xor    %ecx,%edx
    ee94:	89 10                	mov    %edx,(%rax)
    ee96:	0f b6 85 9e df ff ff 	movzbl -0x2062(%rbp),%eax
    ee9d:	83 e8 01             	sub    $0x1,%eax
    eea0:	88 85 9e df ff ff    	mov    %al,-0x2062(%rbp)
    eea6:	48 8b 05 9b 81 00 00 	mov    0x819b(%rip),%rax        # 17048 <g_414>
    eead:	8b 00                	mov    (%rax),%eax
    eeaf:	89 c2                	mov    %eax,%edx
    eeb1:	8b 85 48 e0 ff ff    	mov    -0x1fb8(%rbp),%eax
    eeb7:	89 d6                	mov    %edx,%esi
    eeb9:	89 c7                	mov    %eax,%edi
    eebb:	e8 3f 88 ff ff       	callq  76ff <safe_div_func_int32_t_s_s>
    eec0:	41 89 c5             	mov    %eax,%r13d
    eec3:	0f b6 45 c1          	movzbl -0x3f(%rbp),%eax
    eec7:	0f be d8             	movsbl %al,%ebx
    eeca:	48 8b 05 ff 81 00 00 	mov    0x81ff(%rip),%rax        # 170d0 <g_1045>
    eed1:	48 8b 00             	mov    (%rax),%rax
    eed4:	48 8b 00             	mov    (%rax),%rax
    eed7:	48 8b 00             	mov    (%rax),%rax
    eeda:	0f b6 00             	movzbl (%rax),%eax
    eedd:	44 0f be e0          	movsbl %al,%r12d
    eee1:	be 08 00 00 00       	mov    $0x8,%esi
    eee6:	bf ff ff ff ff       	mov    $0xffffffff,%edi
    eeeb:	e8 15 87 ff ff       	callq  7605 <safe_sub_func_int32_t_s_s>
    eef0:	0f be c0             	movsbl %al,%eax
    eef3:	44 89 e6             	mov    %r12d,%esi
    eef6:	89 c7                	mov    %eax,%edi
    eef8:	e8 a4 83 ff ff       	callq  72a1 <safe_lshift_func_int8_t_s_s>
    eefd:	48 be 2b 0d b0 ca 69 	movabs $0x300aeb69cab00d2b,%rsi
    ef04:	eb 0a 30 
    ef07:	bf 08 00 00 00       	mov    $0x8,%edi
    ef0c:	e8 9e 91 ff ff       	callq  80af <safe_div_func_uint64_t_u_u>
    ef11:	48 8b 15 c8 81 00 00 	mov    0x81c8(%rip),%rdx        # 170e0 <g_1075>
    ef18:	48 8b 12             	mov    (%rdx),%rdx
    ef1b:	0f b6 12             	movzbl (%rdx),%edx
    ef1e:	0f b6 d2             	movzbl %dl,%edx
    ef21:	48 39 d0             	cmp    %rdx,%rax
    ef24:	0f 95 c0             	setne  %al
    ef27:	0f b6 c0             	movzbl %al,%eax
    ef2a:	be f8 ff ff ff       	mov    $0xfffffff8,%esi
    ef2f:	89 c7                	mov    %eax,%edi
    ef31:	e8 9e 82 ff ff       	callq  71d4 <safe_add_func_int8_t_s_s>
    ef36:	84 c0                	test   %al,%al
    ef38:	74 10                	je     ef4a <func_47+0x58b8>
    ef3a:	80 bd 9f df ff ff 00 	cmpb   $0x0,-0x2061(%rbp)
    ef41:	74 07                	je     ef4a <func_47+0x58b8>
    ef43:	b8 01 00 00 00       	mov    $0x1,%eax
    ef48:	eb 05                	jmp    ef4f <func_47+0x58bd>
    ef4a:	b8 00 00 00 00       	mov    $0x0,%eax
    ef4f:	0f b6 d0             	movzbl %al,%edx
    ef52:	8b 85 1c e0 ff ff    	mov    -0x1fe4(%rbp),%eax
    ef58:	0f b6 c0             	movzbl %al,%eax
    ef5b:	89 d6                	mov    %edx,%esi
    ef5d:	89 c7                	mov    %eax,%edi
    ef5f:	e8 77 8c ff ff       	callq  7bdb <safe_div_func_uint8_t_u_u>
    ef64:	0f b6 d0             	movzbl %al,%edx
    ef67:	48 8b 85 b8 e0 ff ff 	mov    -0x1f48(%rbp),%rax
    ef6e:	8b 00                	mov    (%rax),%eax
    ef70:	0f b7 c0             	movzwl %ax,%eax
    ef73:	89 d6                	mov    %edx,%esi
    ef75:	89 c7                	mov    %eax,%edi
    ef77:	e8 a3 8d ff ff       	callq  7d1f <safe_sub_func_uint16_t_u_u>
    ef7c:	48 8b 05 65 81 00 00 	mov    0x8165(%rip),%rax        # 170e8 <g_1074>
    ef83:	48 8b 00             	mov    (%rax),%rax
    ef86:	48 8b 00             	mov    (%rax),%rax
    ef89:	0f b6 00             	movzbl (%rax),%eax
    ef8c:	0f b6 c0             	movzbl %al,%eax
    ef8f:	89 c6                	mov    %eax,%esi
    ef91:	bf fa ff ff ff       	mov    $0xfffffffa,%edi
    ef96:	e8 7b 84 ff ff       	callq  7416 <safe_mod_func_int16_t_s_s>
    ef9b:	0f be c0             	movsbl %al,%eax
    ef9e:	89 de                	mov    %ebx,%esi
    efa0:	89 c7                	mov    %eax,%edi
    efa2:	e8 4b 82 ff ff       	callq  71f2 <safe_sub_func_int8_t_s_s>
    efa7:	0f be c0             	movsbl %al,%eax
    efaa:	44 89 ea             	mov    %r13d,%edx
    efad:	09 c2                	or     %eax,%edx
    efaf:	0f b6 05 a4 64 00 00 	movzbl 0x64a4(%rip),%eax        # 1545a <g_196>
    efb6:	0f be c0             	movsbl %al,%eax
    efb9:	39 c2                	cmp    %eax,%edx
    efbb:	0f 95 c0             	setne  %al
    efbe:	0f b6 d0             	movzbl %al,%edx
    efc1:	8b 85 70 e3 ff ff    	mov    -0x1c90(%rbp),%eax
    efc7:	21 d0                	and    %edx,%eax
    efc9:	89 85 70 e3 ff ff    	mov    %eax,-0x1c90(%rbp)
    efcf:	eb 12                	jmp    efe3 <func_47+0x5951>
    efd1:	48 8b 05 e0 80 00 00 	mov    0x80e0(%rip),%rax        # 170b8 <g_1014>
    efd8:	48 8b 00             	mov    (%rax),%rax
    efdb:	0f b7 00             	movzwl (%rax),%eax
    efde:	e9 56 01 00 00       	jmpq   f139 <func_47+0x5aa7>
    efe3:	8b 85 e4 e1 ff ff    	mov    -0x1e1c(%rbp),%eax
    efe9:	48 63 d8             	movslq %eax,%rbx
    efec:	44 0f be a5 9c df ff 	movsbl -0x2064(%rbp),%r12d
    eff3:	ff 
    eff4:	48 8b 05 55 80 00 00 	mov    0x8055(%rip),%rax        # 17050 <g_413>
    effb:	48 8b 00             	mov    (%rax),%rax
    effe:	c7 00 f9 ff ff ff    	movl   $0xfffffff9,(%rax)
    f004:	8b 85 0c e0 ff ff    	mov    -0x1ff4(%rbp),%eax
    f00a:	89 85 10 e0 ff ff    	mov    %eax,-0x1ff0(%rbp)
    f010:	8b 85 10 e0 ff ff    	mov    -0x1ff0(%rbp),%eax
    f016:	be f9 ff ff ff       	mov    $0xfffffff9,%esi
    f01b:	89 c7                	mov    %eax,%edi
    f01d:	e8 e3 85 ff ff       	callq  7605 <safe_sub_func_int32_t_s_s>
    f022:	41 89 c5             	mov    %eax,%r13d
    f025:	8b 85 e4 e1 ff ff    	mov    -0x1e1c(%rbp),%eax
    f02b:	48 63 d0             	movslq %eax,%rdx
    f02e:	0f bf 8d ae df ff ff 	movswl -0x2052(%rbp),%ecx
    f035:	0f bf 85 aa df ff ff 	movswl -0x2056(%rbp),%eax
    f03c:	23 85 e8 df ff ff    	and    -0x2018(%rbp),%eax
    f042:	89 c6                	mov    %eax,%esi
    f044:	0f bf 85 a6 df ff ff 	movswl -0x205a(%rbp),%eax
    f04b:	31 c6                	xor    %eax,%esi
    f04d:	0f bf 85 aa df ff ff 	movswl -0x2056(%rbp),%eax
    f054:	39 c6                	cmp    %eax,%esi
    f056:	0f 95 c0             	setne  %al
    f059:	0f b6 c0             	movzbl %al,%eax
    f05c:	31 c8                	xor    %ecx,%eax
    f05e:	48 98                	cltq   
    f060:	48 89 d6             	mov    %rdx,%rsi
    f063:	48 89 c7             	mov    %rax,%rdi
    f066:	e8 3d 88 ff ff       	callq  78a8 <safe_sub_func_int64_t_s_s>
    f06b:	48 89 c2             	mov    %rax,%rdx
    f06e:	48 8b 85 e8 e0 ff ff 	mov    -0x1f18(%rbp),%rax
    f075:	48 89 c6             	mov    %rax,%rsi
    f078:	48 89 d7             	mov    %rdx,%rdi
    f07b:	e8 c1 87 ff ff       	callq  7841 <safe_add_func_int64_t_s_s>
    f080:	0f be c0             	movsbl %al,%eax
    f083:	be 00 00 00 00       	mov    $0x0,%esi
    f088:	89 c7                	mov    %eax,%edi
    f08a:	e8 83 81 ff ff       	callq  7212 <safe_mul_func_int8_t_s_s>
    f08f:	66 0f be d0          	movsbw %al,%dx
    f093:	0f b7 85 a4 df ff ff 	movzwl -0x205c(%rbp),%eax
    f09a:	66 39 c2             	cmp    %ax,%dx
    f09d:	0f 95 c0             	setne  %al
    f0a0:	0f b6 c0             	movzbl %al,%eax
    f0a3:	48 89 85 00 e1 ff ff 	mov    %rax,-0x1f00(%rbp)
    f0aa:	48 83 bd 00 e1 ff ff 	cmpq   $0x0,-0x1f00(%rbp)
    f0b1:	00 
    f0b2:	0f 95 c0             	setne  %al
    f0b5:	0f b6 d0             	movzbl %al,%edx
    f0b8:	8b 85 e4 e1 ff ff    	mov    -0x1e1c(%rbp),%eax
    f0be:	0f b7 c0             	movzwl %ax,%eax
    f0c1:	89 d6                	mov    %edx,%esi
    f0c3:	89 c7                	mov    %eax,%edi
    f0c5:	e8 b0 8d ff ff       	callq  7e7a <safe_rshift_func_uint16_t_u_u>
    f0ca:	0f b7 c0             	movzwl %ax,%eax
    f0cd:	41 39 c5             	cmp    %eax,%r13d
    f0d0:	0f 9d c0             	setge  %al
    f0d3:	0f b6 d0             	movzbl %al,%edx
    f0d6:	48 8b 85 90 e0 ff ff 	mov    -0x1f70(%rbp),%rax
    f0dd:	48 39 c2             	cmp    %rax,%rdx
    f0e0:	0f 9d c0             	setge  %al
    f0e3:	0f b6 c0             	movzbl %al,%eax
    f0e6:	be 00 00 00 00       	mov    $0x0,%esi
    f0eb:	89 c7                	mov    %eax,%edi
    f0ed:	e8 e2 80 ff ff       	callq  71d4 <safe_add_func_int8_t_s_s>
    f0f2:	48 8b 05 7f 7f 00 00 	mov    0x7f7f(%rip),%rax        # 17078 <g_637>
    f0f9:	0f b7 00             	movzwl (%rax),%eax
    f0fc:	98                   	cwtl   
    f0fd:	44 89 e6             	mov    %r12d,%esi
    f100:	89 c7                	mov    %eax,%edi
    f102:	e8 4e 83 ff ff       	callq  7455 <safe_div_func_int16_t_s_s>
    f107:	48 0f bf c0          	movswq %ax,%rax
    f10b:	48 89 de             	mov    %rbx,%rsi
    f10e:	48 89 c7             	mov    %rax,%rdi
    f111:	e8 e1 88 ff ff       	callq  79f7 <safe_div_func_int64_t_s_s>
    f116:	89 c6                	mov    %eax,%esi
    f118:	bf f9 ff ff ff       	mov    $0xfffffff9,%edi
    f11d:	e8 aa 85 ff ff       	callq  76cc <safe_mod_func_int32_t_s_s>
    f122:	48 8b 85 88 df ff ff 	mov    -0x2078(%rbp),%rax
    f129:	48 89 85 88 e0 ff ff 	mov    %rax,-0x1f78(%rbp)
    f130:	48 8b 85 88 e0 ff ff 	mov    -0x1f78(%rbp),%rax
    f137:	8b 00                	mov    (%rax),%eax
    f139:	48 8b 5d c8          	mov    -0x38(%rbp),%rbx
    f13d:	64 48 33 1c 25 28 00 	xor    %fs:0x28,%rbx
    f144:	00 00 
    f146:	74 05                	je     f14d <func_47+0x5abb>
    f148:	e8 23 7f ff ff       	callq  7070 <__stack_chk_fail@plt>
    f14d:	48 81 c4 68 20 00 00 	add    $0x2068,%rsp
    f154:	5b                   	pop    %rbx
    f155:	41 5c                	pop    %r12
    f157:	41 5d                	pop    %r13
    f159:	41 5e                	pop    %r14
    f15b:	41 5f                	pop    %r15
    f15d:	5d                   	pop    %rbp
    f15e:	c3                   	retq   

000000000000f15f <func_50>:
    f15f:	f3 0f 1e fa          	endbr64 
    f163:	55                   	push   %rbp
    f164:	48 89 e5             	mov    %rsp,%rbp
    f167:	48 81 ec 70 02 00 00 	sub    $0x270,%rsp
    f16e:	89 bd ac fd ff ff    	mov    %edi,-0x254(%rbp)
    f174:	48 89 b5 a0 fd ff ff 	mov    %rsi,-0x260(%rbp)
    f17b:	89 95 a8 fd ff ff    	mov    %edx,-0x258(%rbp)
    f181:	89 c8                	mov    %ecx,%eax
    f183:	44 89 c2             	mov    %r8d,%edx
    f186:	66 89 85 9c fd ff ff 	mov    %ax,-0x264(%rbp)
    f18d:	89 d0                	mov    %edx,%eax
    f18f:	88 85 98 fd ff ff    	mov    %al,-0x268(%rbp)
    f195:	64 48 8b 04 25 28 00 	mov    %fs:0x28,%rax
    f19c:	00 00 
    f19e:	48 89 45 f8          	mov    %rax,-0x8(%rbp)
    f1a2:	31 c0                	xor    %eax,%eax
    f1a4:	66 c7 85 be fd ff ff 	movw   $0xd918,-0x242(%rbp)
    f1ab:	18 d9 
    f1ad:	48 8d 05 08 61 00 00 	lea    0x6108(%rip),%rax        # 152bc <g_4+0x27c>
    f1b4:	48 89 85 d0 fd ff ff 	mov    %rax,-0x230(%rbp)
    f1bb:	48 8d 05 98 62 00 00 	lea    0x6298(%rip),%rax        # 1545a <g_196>
    f1c2:	48 89 85 d8 fd ff ff 	mov    %rax,-0x228(%rbp)
    f1c9:	48 8d 85 d8 fd ff ff 	lea    -0x228(%rbp),%rax
    f1d0:	48 89 85 f8 fd ff ff 	mov    %rax,-0x208(%rbp)
    f1d7:	c7 85 cc fd ff ff 01 	movl   $0x1,-0x234(%rbp)
    f1de:	00 00 00 
    f1e1:	c6 85 bb fd ff ff b0 	movb   $0xb0,-0x245(%rbp)
    f1e8:	48 c7 85 00 fe ff ff 	movq   $0x0,-0x200(%rbp)
    f1ef:	00 00 00 00 
    f1f3:	c6 85 bc fd ff ff dc 	movb   $0xdc,-0x244(%rbp)
    f1fa:	c7 85 c4 fd ff ff 00 	movl   $0x0,-0x23c(%rbp)
    f201:	00 00 00 
    f204:	eb 1e                	jmp    f224 <func_50+0xc5>
    f206:	8b 85 c4 fd ff ff    	mov    -0x23c(%rbp),%eax
    f20c:	48 98                	cltq   
    f20e:	48 8d 15 57 93 00 00 	lea    0x9357(%rip),%rdx        # 1856c <g_110>
    f215:	48 89 94 c5 60 fe ff 	mov    %rdx,-0x1a0(%rbp,%rax,8)
    f21c:	ff 
    f21d:	83 85 c4 fd ff ff 01 	addl   $0x1,-0x23c(%rbp)
    f224:	83 bd c4 fd ff ff 04 	cmpl   $0x4,-0x23c(%rbp)
    f22b:	7e d9                	jle    f206 <func_50+0xa7>
    f22d:	c7 85 c4 fd ff ff 00 	movl   $0x0,-0x23c(%rbp)
    f234:	00 00 00 
    f237:	eb 1b                	jmp    f254 <func_50+0xf5>
    f239:	8b 85 c4 fd ff ff    	mov    -0x23c(%rbp),%eax
    f23f:	48 98                	cltq   
    f241:	48 c7 84 c5 48 fe ff 	movq   $0x0,-0x1b8(%rbp,%rax,8)
    f248:	ff 00 00 00 00 
    f24d:	83 85 c4 fd ff ff 01 	addl   $0x1,-0x23c(%rbp)
    f254:	83 bd c4 fd ff ff 00 	cmpl   $0x0,-0x23c(%rbp)
    f25b:	7e dc                	jle    f239 <func_50+0xda>
    f25d:	c7 85 c4 fd ff ff 00 	movl   $0x0,-0x23c(%rbp)
    f264:	00 00 00 
    f267:	eb 1a                	jmp    f283 <func_50+0x124>
    f269:	8b 85 c4 fd ff ff    	mov    -0x23c(%rbp),%eax
    f26f:	48 98                	cltq   
    f271:	c7 84 85 44 fe ff ff 	movl   $0xa60a37b8,-0x1bc(%rbp,%rax,4)
    f278:	b8 37 0a a6 
    f27c:	83 85 c4 fd ff ff 01 	addl   $0x1,-0x23c(%rbp)
    f283:	83 bd c4 fd ff ff 00 	cmpl   $0x0,-0x23c(%rbp)
    f28a:	7e dd                	jle    f269 <func_50+0x10a>
    f28c:	48 c7 85 a0 fd ff ff 	movq   $0x0,-0x260(%rbp)
    f293:	00 00 00 00 
    f297:	e9 55 03 00 00       	jmpq   f5f1 <func_50+0x492>
    f29c:	48 c7 45 80 00 00 00 	movq   $0x0,-0x80(%rbp)
    f2a3:	00 
    f2a4:	48 c7 45 88 f6 ff ff 	movq   $0xfffffffffffffff6,-0x78(%rbp)
    f2ab:	ff 
    f2ac:	48 c7 45 90 00 00 00 	movq   $0x0,-0x70(%rbp)
    f2b3:	00 
    f2b4:	48 c7 45 98 fd ff ff 	movq   $0xfffffffffffffffd,-0x68(%rbp)
    f2bb:	ff 
    f2bc:	48 b8 f9 86 23 12 b6 	movabs $0x857af2b6122386f9,%rax
    f2c3:	f2 7a 85 
    f2c6:	48 89 45 a0          	mov    %rax,-0x60(%rbp)
    f2ca:	48 c7 45 a8 fd ff ff 	movq   $0xfffffffffffffffd,-0x58(%rbp)
    f2d1:	ff 
    f2d2:	48 c7 45 b0 00 00 00 	movq   $0x0,-0x50(%rbp)
    f2d9:	00 
    f2da:	48 c7 45 b8 f6 ff ff 	movq   $0xfffffffffffffff6,-0x48(%rbp)
    f2e1:	ff 
    f2e2:	48 c7 45 c0 00 00 00 	movq   $0x0,-0x40(%rbp)
    f2e9:	00 
    f2ea:	48 c7 45 c8 fd ff ff 	movq   $0xfffffffffffffffd,-0x38(%rbp)
    f2f1:	ff 
    f2f2:	48 89 45 d0          	mov    %rax,-0x30(%rbp)
    f2f6:	48 c7 45 d8 fd ff ff 	movq   $0xfffffffffffffffd,-0x28(%rbp)
    f2fd:	ff 
    f2fe:	48 c7 45 e0 00 00 00 	movq   $0x0,-0x20(%rbp)
    f305:	00 
    f306:	48 c7 45 e8 f6 ff ff 	movq   $0xfffffffffffffff6,-0x18(%rbp)
    f30d:	ff 
    f30e:	48 c7 45 f0 00 00 00 	movq   $0x0,-0x10(%rbp)
    f315:	00 
    f316:	48 8d 05 17 60 00 00 	lea    0x6017(%rip),%rax        # 15334 <g_19+0x74>
    f31d:	48 89 85 08 fe ff ff 	mov    %rax,-0x1f8(%rbp)
    f324:	48 8d 05 e7 60 00 00 	lea    0x60e7(%rip),%rax        # 15412 <g_31+0x92>
    f32b:	48 89 85 e0 fd ff ff 	mov    %rax,-0x220(%rbp)
    f332:	48 8d 05 2f 92 00 00 	lea    0x922f(%rip),%rax        # 18568 <g_34>
    f339:	48 89 85 e8 fd ff ff 	mov    %rax,-0x218(%rbp)
    f340:	48 8d 85 e0 fd ff ff 	lea    -0x220(%rbp),%rax
    f347:	48 89 85 c0 fe ff ff 	mov    %rax,-0x140(%rbp)
    f34e:	48 8d 85 e0 fd ff ff 	lea    -0x220(%rbp),%rax
    f355:	48 89 85 c8 fe ff ff 	mov    %rax,-0x138(%rbp)
    f35c:	48 8d 85 e0 fd ff ff 	lea    -0x220(%rbp),%rax
    f363:	48 89 85 d0 fe ff ff 	mov    %rax,-0x130(%rbp)
    f36a:	48 8d 85 e0 fd ff ff 	lea    -0x220(%rbp),%rax
    f371:	48 89 85 d8 fe ff ff 	mov    %rax,-0x128(%rbp)
    f378:	48 8d 85 e0 fd ff ff 	lea    -0x220(%rbp),%rax
    f37f:	48 89 85 e0 fe ff ff 	mov    %rax,-0x120(%rbp)
    f386:	48 8d 85 e0 fd ff ff 	lea    -0x220(%rbp),%rax
    f38d:	48 89 85 e8 fe ff ff 	mov    %rax,-0x118(%rbp)
    f394:	48 8d 85 e0 fd ff ff 	lea    -0x220(%rbp),%rax
    f39b:	48 89 85 f0 fe ff ff 	mov    %rax,-0x110(%rbp)
    f3a2:	48 8d 85 e0 fd ff ff 	lea    -0x220(%rbp),%rax
    f3a9:	48 89 85 f8 fe ff ff 	mov    %rax,-0x108(%rbp)
    f3b0:	48 8d 85 e0 fd ff ff 	lea    -0x220(%rbp),%rax
    f3b7:	48 89 85 00 ff ff ff 	mov    %rax,-0x100(%rbp)
    f3be:	48 8d 85 e0 fd ff ff 	lea    -0x220(%rbp),%rax
    f3c5:	48 89 85 08 ff ff ff 	mov    %rax,-0xf8(%rbp)
    f3cc:	66 c7 85 c0 fd ff ff 	movw   $0x0,-0x240(%rbp)
    f3d3:	00 00 
    f3d5:	c7 85 10 ff ff ff ff 	movl   $0xffffffff,-0xf0(%rbp)
    f3dc:	ff ff ff 
    f3df:	c7 85 14 ff ff ff af 	movl   $0xab9e2daf,-0xec(%rbp)
    f3e6:	2d 9e ab 
    f3e9:	c7 85 18 ff ff ff ff 	movl   $0xffffffff,-0xe8(%rbp)
    f3f0:	ff ff ff 
    f3f3:	c7 85 1c ff ff ff 3e 	movl   $0x5588a33e,-0xe4(%rbp)
    f3fa:	a3 88 55 
    f3fd:	c7 85 20 ff ff ff 8f 	movl   $0x7b16778f,-0xe0(%rbp)
    f404:	77 16 7b 
    f407:	c7 85 24 ff ff ff cb 	movl   $0x5de4afcb,-0xdc(%rbp)
    f40e:	af e4 5d 
    f411:	c7 85 28 ff ff ff 81 	movl   $0x91a4ad81,-0xd8(%rbp)
    f418:	ad a4 91 
    f41b:	c7 85 2c ff ff ff 06 	movl   $0x5d4bf706,-0xd4(%rbp)
    f422:	f7 4b 5d 
    f425:	c7 85 30 ff ff ff cb 	movl   $0x5de4afcb,-0xd0(%rbp)
    f42c:	af e4 5d 
    f42f:	c7 85 34 ff ff ff 9d 	movl   $0xe33f759d,-0xcc(%rbp)
    f436:	75 3f e3 
    f439:	c7 85 38 ff ff ff 81 	movl   $0x91a4ad81,-0xc8(%rbp)
    f440:	ad a4 91 
    f443:	c7 85 3c ff ff ff ff 	movl   $0xffffffff,-0xc4(%rbp)
    f44a:	ff ff ff 
    f44d:	c7 85 40 ff ff ff 7d 	movl   $0xd204b47d,-0xc0(%rbp)
    f454:	b4 04 d2 
    f457:	c7 85 44 ff ff ff 7d 	movl   $0xd204b47d,-0xbc(%rbp)
    f45e:	b4 04 d2 
    f461:	c7 85 48 ff ff ff 3e 	movl   $0x5588a33e,-0xb8(%rbp)
    f468:	a3 88 55 
    f46b:	c7 85 4c ff ff ff 9d 	movl   $0xe33f759d,-0xb4(%rbp)
    f472:	75 3f e3 
    f475:	c7 85 50 ff ff ff 3e 	movl   $0x5588a33e,-0xb0(%rbp)
    f47c:	a3 88 55 
    f47f:	c7 85 54 ff ff ff 81 	movl   $0x91a4ad81,-0xac(%rbp)
    f486:	ad a4 91 
    f489:	c7 85 58 ff ff ff 81 	movl   $0x91a4ad81,-0xa8(%rbp)
    f490:	ad a4 91 
    f493:	c7 85 5c ff ff ff 3e 	movl   $0x5588a33e,-0xa4(%rbp)
    f49a:	a3 88 55 
    f49d:	c7 85 60 ff ff ff 9d 	movl   $0xe33f759d,-0xa0(%rbp)
    f4a4:	75 3f e3 
    f4a7:	c7 85 64 ff ff ff 3e 	movl   $0x5588a33e,-0x9c(%rbp)
    f4ae:	a3 88 55 
    f4b1:	c7 85 68 ff ff ff 7d 	movl   $0xd204b47d,-0x98(%rbp)
    f4b8:	b4 04 d2 
    f4bb:	c7 85 6c ff ff ff 7d 	movl   $0xd204b47d,-0x94(%rbp)
    f4c2:	b4 04 d2 
    f4c5:	c7 85 70 ff ff ff ff 	movl   $0xffffffff,-0x90(%rbp)
    f4cc:	ff ff ff 
    f4cf:	c7 85 74 ff ff ff 81 	movl   $0x91a4ad81,-0x8c(%rbp)
    f4d6:	ad a4 91 
    f4d9:	c7 85 78 ff ff ff 9d 	movl   $0xe33f759d,-0x88(%rbp)
    f4e0:	75 3f e3 
    f4e3:	48 8d 85 e8 fd ff ff 	lea    -0x218(%rbp),%rax
    f4ea:	48 89 85 10 fe ff ff 	mov    %rax,-0x1f0(%rbp)
    f4f1:	48 c7 85 18 fe ff ff 	movq   $0x0,-0x1e8(%rbp)
    f4f8:	00 00 00 00 
    f4fc:	48 8d 85 d0 fd ff ff 	lea    -0x230(%rbp),%rax
    f503:	48 89 85 20 fe ff ff 	mov    %rax,-0x1e0(%rbp)
    f50a:	66 c7 85 c2 fd ff ff 	movw   $0x8,-0x23e(%rbp)
    f511:	08 00 
    f513:	48 b8 6e 37 23 99 36 	movabs $0x84323e369923376e,%rax
    f51a:	3e 32 84 
    f51d:	48 89 85 28 fe ff ff 	mov    %rax,-0x1d8(%rbp)
    f524:	c7 85 90 fe ff ff 01 	movl   $0x1,-0x170(%rbp)
    f52b:	00 00 00 
    f52e:	c7 85 94 fe ff ff 58 	movl   $0x6cd7c358,-0x16c(%rbp)
    f535:	c3 d7 6c 
    f538:	c7 85 98 fe ff ff 01 	movl   $0x1,-0x168(%rbp)
    f53f:	00 00 00 
    f542:	c7 85 9c fe ff ff 58 	movl   $0x6cd7c358,-0x164(%rbp)
    f549:	c3 d7 6c 
    f54c:	c7 85 a0 fe ff ff 58 	movl   $0x6cd7c358,-0x160(%rbp)
    f553:	c3 d7 6c 
    f556:	c7 85 a4 fe ff ff 01 	movl   $0x1,-0x15c(%rbp)
    f55d:	00 00 00 
    f560:	c7 85 a8 fe ff ff 58 	movl   $0x6cd7c358,-0x158(%rbp)
    f567:	c3 d7 6c 
    f56a:	c7 85 ac fe ff ff 58 	movl   $0x6cd7c358,-0x154(%rbp)
    f571:	c3 d7 6c 
    f574:	c7 85 b0 fe ff ff 01 	movl   $0x1,-0x150(%rbp)
    f57b:	00 00 00 
    f57e:	c7 85 b4 fe ff ff 58 	movl   $0x6cd7c358,-0x14c(%rbp)
    f585:	c3 d7 6c 
    f588:	48 c7 85 30 fe ff ff 	movq   $0xffffffffffffffff,-0x1d0(%rbp)
    f58f:	ff ff ff ff 
    f593:	48 8d 05 b6 7a 00 00 	lea    0x7ab6(%rip),%rax        # 17050 <g_413>
    f59a:	48 89 85 f0 fd ff ff 	mov    %rax,-0x210(%rbp)
    f5a1:	48 8d 85 f0 fd ff ff 	lea    -0x210(%rbp),%rax
    f5a8:	48 89 85 38 fe ff ff 	mov    %rax,-0x1c8(%rbp)
    f5af:	c6 85 bd fd ff ff 63 	movb   $0x63,-0x243(%rbp)
    f5b6:	c7 85 c8 fd ff ff 00 	movl   $0x0,-0x238(%rbp)
    f5bd:	00 00 00 
    f5c0:	eb 1e                	jmp    f5e0 <func_50+0x481>
    f5c2:	8b 85 c8 fd ff ff    	mov    -0x238(%rbp),%eax
    f5c8:	48 98                	cltq   
    f5ca:	48 8d 15 ab 5e 00 00 	lea    0x5eab(%rip),%rdx        # 1547c <g_289+0xc>
    f5d1:	48 89 94 c5 50 fe ff 	mov    %rdx,-0x1b0(%rbp,%rax,8)
    f5d8:	ff 
    f5d9:	83 85 c8 fd ff ff 01 	addl   $0x1,-0x238(%rbp)
    f5e0:	83 bd c8 fd ff ff 01 	cmpl   $0x1,-0x238(%rbp)
    f5e7:	7e d9                	jle    f5c2 <func_50+0x463>
    f5e9:	48 83 85 a0 fd ff ff 	addq   $0x1,-0x260(%rbp)
    f5f0:	01 
    f5f1:	48 83 bd a0 fd ff ff 	cmpq   $0x3a,-0x260(%rbp)
    f5f8:	3a 
    f5f9:	0f 85 9d fc ff ff    	jne    f29c <func_50+0x13d>
    f5ff:	48 8b 85 d0 fd ff ff 	mov    -0x230(%rbp),%rax
    f606:	48 8b 4d f8          	mov    -0x8(%rbp),%rcx
    f60a:	64 48 33 0c 25 28 00 	xor    %fs:0x28,%rcx
    f611:	00 00 
    f613:	74 05                	je     f61a <func_50+0x4bb>
    f615:	e8 56 7a ff ff       	callq  7070 <__stack_chk_fail@plt>
    f61a:	c9                   	leaveq 
    f61b:	c3                   	retq   

000000000000f61c <func_56>:
    f61c:	f3 0f 1e fa          	endbr64 
    f620:	55                   	push   %rbp
    f621:	48 89 e5             	mov    %rsp,%rbp
    f624:	89 7d fc             	mov    %edi,-0x4(%rbp)
    f627:	89 75 f8             	mov    %esi,-0x8(%rbp)
    f62a:	48 89 55 f0          	mov    %rdx,-0x10(%rbp)
    f62e:	48 8b 45 f0          	mov    -0x10(%rbp),%rax
    f632:	5d                   	pop    %rbp
    f633:	c3                   	retq   

000000000000f634 <func_60>:
    f634:	f3 0f 1e fa          	endbr64 
    f638:	55                   	push   %rbp
    f639:	48 89 e5             	mov    %rsp,%rbp
    f63c:	89 7d ec             	mov    %edi,-0x14(%rbp)
    f63f:	48 b8 c5 94 d4 2c 0a 	movabs $0xad02c0a2cd494c5,%rax
    f646:	2c d0 0a 
    f649:	48 89 45 f0          	mov    %rax,-0x10(%rbp)
    f64d:	48 8d 05 f4 5d 00 00 	lea    0x5df4(%rip),%rax        # 15448 <g_164>
    f654:	48 89 45 f8          	mov    %rax,-0x8(%rbp)
    f658:	48 8b 45 f0          	mov    -0x10(%rbp),%rax
    f65c:	89 05 06 8f 00 00    	mov    %eax,0x8f06(%rip)        # 18568 <g_34>
    f662:	8b 15 00 8f 00 00    	mov    0x8f00(%rip),%edx        # 18568 <g_34>
    f668:	48 8b 45 f8          	mov    -0x8(%rbp),%rax
    f66c:	89 10                	mov    %edx,(%rax)
    f66e:	66 c7 05 cb 5d 00 00 	movw   $0xc,0x5dcb(%rip)        # 15442 <g_103>
    f675:	0c 00 
    f677:	90                   	nop
    f678:	0f b7 05 c3 5d 00 00 	movzwl 0x5dc3(%rip),%eax        # 15442 <g_103>
    f67f:	66 83 f8 3b          	cmp    $0x3b,%ax
    f683:	76 08                	jbe    f68d <func_60+0x59>
    f685:	8b 05 a9 5d 00 00    	mov    0x5da9(%rip),%eax        # 15434 <g_36>
    f68b:	eb 07                	jmp    f694 <func_60+0x60>
    f68d:	0f b7 05 ec 8e 00 00 	movzwl 0x8eec(%rip),%eax        # 18580 <g_169>
    f694:	5d                   	pop    %rbp
    f695:	c3                   	retq   

000000000000f696 <func_62>:
    f696:	f3 0f 1e fa          	endbr64 
    f69a:	55                   	push   %rbp
    f69b:	48 89 e5             	mov    %rsp,%rbp
    f69e:	48 81 ec b0 00 00 00 	sub    $0xb0,%rsp
    f6a5:	48 89 bd 78 ff ff ff 	mov    %rdi,-0x88(%rbp)
    f6ac:	48 89 b5 70 ff ff ff 	mov    %rsi,-0x90(%rbp)
    f6b3:	48 89 95 68 ff ff ff 	mov    %rdx,-0x98(%rbp)
    f6ba:	48 89 8d 60 ff ff ff 	mov    %rcx,-0xa0(%rbp)
    f6c1:	4c 89 85 58 ff ff ff 	mov    %r8,-0xa8(%rbp)
    f6c8:	64 48 8b 04 25 28 00 	mov    %fs:0x28,%rax
    f6cf:	00 00 
    f6d1:	48 89 45 f8          	mov    %rax,-0x8(%rbp)
    f6d5:	31 c0                	xor    %eax,%eax
    f6d7:	48 c7 45 80 00 00 00 	movq   $0x0,-0x80(%rbp)
    f6de:	00 
    f6df:	48 c7 45 88 00 00 00 	movq   $0x0,-0x78(%rbp)
    f6e6:	00 
    f6e7:	48 c7 45 90 00 00 00 	movq   $0x0,-0x70(%rbp)
    f6ee:	00 
    f6ef:	48 c7 45 98 00 00 00 	movq   $0x0,-0x68(%rbp)
    f6f6:	00 
    f6f7:	48 c7 45 a0 00 00 00 	movq   $0x0,-0x60(%rbp)
    f6fe:	00 
    f6ff:	48 c7 45 a8 00 00 00 	movq   $0x0,-0x58(%rbp)
    f706:	00 
    f707:	48 8d 45 80          	lea    -0x80(%rbp),%rax
    f70b:	48 83 c0 08          	add    $0x8,%rax
    f70f:	48 89 45 b0          	mov    %rax,-0x50(%rbp)
    f713:	48 8d 45 80          	lea    -0x80(%rbp),%rax
    f717:	48 83 c0 08          	add    $0x8,%rax
    f71b:	48 89 45 b8          	mov    %rax,-0x48(%rbp)
    f71f:	48 8d 45 80          	lea    -0x80(%rbp),%rax
    f723:	48 83 c0 08          	add    $0x8,%rax
    f727:	48 89 45 c0          	mov    %rax,-0x40(%rbp)
    f72b:	48 8d 45 80          	lea    -0x80(%rbp),%rax
    f72f:	48 83 c0 08          	add    $0x8,%rax
    f733:	48 89 45 c8          	mov    %rax,-0x38(%rbp)
    f737:	48 8d 45 80          	lea    -0x80(%rbp),%rax
    f73b:	48 83 c0 08          	add    $0x8,%rax
    f73f:	48 89 45 d0          	mov    %rax,-0x30(%rbp)
    f743:	48 8d 45 80          	lea    -0x80(%rbp),%rax
    f747:	48 83 c0 08          	add    $0x8,%rax
    f74b:	48 89 45 d8          	mov    %rax,-0x28(%rbp)
    f74f:	48 8d 45 80          	lea    -0x80(%rbp),%rax
    f753:	48 83 c0 08          	add    $0x8,%rax
    f757:	48 89 45 e0          	mov    %rax,-0x20(%rbp)
    f75b:	48 8d 45 80          	lea    -0x80(%rbp),%rax
    f75f:	48 83 c0 08          	add    $0x8,%rax
    f763:	48 89 45 e8          	mov    %rax,-0x18(%rbp)
    f767:	48 8d 45 80          	lea    -0x80(%rbp),%rax
    f76b:	48 83 c0 08          	add    $0x8,%rax
    f76f:	48 89 45 f0          	mov    %rax,-0x10(%rbp)
    f773:	8b 05 cf 5c 00 00    	mov    0x5ccf(%rip),%eax        # 15448 <g_164>
    f779:	25 8e 40 15 d3       	and    $0xd315408e,%eax
    f77e:	89 05 c4 5c 00 00    	mov    %eax,0x5cc4(%rip)        # 15448 <g_164>
    f784:	48 8b 45 88          	mov    -0x78(%rbp),%rax
    f788:	48 89 05 e1 8d 00 00 	mov    %rax,0x8de1(%rip)        # 18570 <g_116>
    f78f:	48 8b 05 ba 78 00 00 	mov    0x78ba(%rip),%rax        # 17050 <g_413>
    f796:	48 8b 00             	mov    (%rax),%rax
    f799:	48 8b 55 f8          	mov    -0x8(%rbp),%rdx
    f79d:	64 48 33 14 25 28 00 	xor    %fs:0x28,%rdx
    f7a4:	00 00 
    f7a6:	74 05                	je     f7ad <func_62+0x117>
    f7a8:	e8 c3 78 ff ff       	callq  7070 <__stack_chk_fail@plt>
    f7ad:	c9                   	leaveq 
    f7ae:	c3                   	retq   

000000000000f7af <func_68>:
    f7af:	f3 0f 1e fa          	endbr64 
    f7b3:	55                   	push   %rbp
    f7b4:	48 89 e5             	mov    %rsp,%rbp
    f7b7:	41 56                	push   %r14
    f7b9:	41 55                	push   %r13
    f7bb:	41 54                	push   %r12
    f7bd:	53                   	push   %rbx
    f7be:	48 81 ec f0 04 00 00 	sub    $0x4f0,%rsp
    f7c5:	89 f8                	mov    %edi,%eax
    f7c7:	48 89 b5 00 fb ff ff 	mov    %rsi,-0x500(%rbp)
    f7ce:	89 95 08 fb ff ff    	mov    %edx,-0x4f8(%rbp)
    f7d4:	89 8d fc fa ff ff    	mov    %ecx,-0x504(%rbp)
    f7da:	44 89 c2             	mov    %r8d,%edx
    f7dd:	66 89 85 0c fb ff ff 	mov    %ax,-0x4f4(%rbp)
    f7e4:	89 d0                	mov    %edx,%eax
    f7e6:	88 85 f8 fa ff ff    	mov    %al,-0x508(%rbp)
    f7ec:	64 48 8b 04 25 28 00 	mov    %fs:0x28,%rax
    f7f3:	00 00 
    f7f5:	48 89 45 d8          	mov    %rax,-0x28(%rbp)
    f7f9:	31 c0                	xor    %eax,%eax
    f7fb:	48 8d 05 66 8d 00 00 	lea    0x8d66(%rip),%rax        # 18568 <g_34>
    f802:	48 89 85 38 fb ff ff 	mov    %rax,-0x4c8(%rbp)
    f809:	48 8d 05 24 5c 00 00 	lea    0x5c24(%rip),%rax        # 15434 <g_36>
    f810:	48 89 85 50 fb ff ff 	mov    %rax,-0x4b0(%rbp)
    f817:	48 8d 05 16 5c 00 00 	lea    0x5c16(%rip),%rax        # 15434 <g_36>
    f81e:	48 89 85 58 fb ff ff 	mov    %rax,-0x4a8(%rbp)
    f825:	48 8d 05 08 5c 00 00 	lea    0x5c08(%rip),%rax        # 15434 <g_36>
    f82c:	48 89 85 60 fb ff ff 	mov    %rax,-0x4a0(%rbp)
    f833:	66 c7 85 1a fb ff ff 	movw   $0xffff,-0x4e6(%rbp)
    f83a:	ff ff 
    f83c:	c7 85 f0 fb ff ff f8 	movl   $0xfffffff8,-0x410(%rbp)
    f843:	ff ff ff 
    f846:	c7 85 f4 fb ff ff 01 	movl   $0x1,-0x40c(%rbp)
    f84d:	00 00 00 
    f850:	c7 85 f8 fb ff ff 01 	movl   $0x1,-0x408(%rbp)
    f857:	00 00 00 
    f85a:	c7 85 fc fb ff ff f8 	movl   $0xfffffff8,-0x404(%rbp)
    f861:	ff ff ff 
    f864:	c7 85 00 fc ff ff 01 	movl   $0x1,-0x400(%rbp)
    f86b:	00 00 00 
    f86e:	c7 85 04 fc ff ff 01 	movl   $0x1,-0x3fc(%rbp)
    f875:	00 00 00 
    f878:	c7 85 08 fc ff ff f8 	movl   $0xfffffff8,-0x3f8(%rbp)
    f87f:	ff ff ff 
    f882:	c7 85 0c fc ff ff 01 	movl   $0x1,-0x3f4(%rbp)
    f889:	00 00 00 
    f88c:	48 b8 d9 8e 44 71 5d 	movabs $0xae67165d71448ed9,%rax
    f893:	16 67 ae 
    f896:	48 89 85 68 fb ff ff 	mov    %rax,-0x498(%rbp)
    f89d:	66 c7 85 1c fb ff ff 	movw   $0x4,-0x4e4(%rbp)
    f8a4:	04 00 
    f8a6:	c7 85 2c fb ff ff fd 	movl   $0xfffffffd,-0x4d4(%rbp)
    f8ad:	ff ff ff 
    f8b0:	48 8d 05 b1 5a 00 00 	lea    0x5ab1(%rip),%rax        # 15368 <g_30>
    f8b7:	48 89 85 70 fb ff ff 	mov    %rax,-0x490(%rbp)
    f8be:	48 8d 05 9b 77 00 00 	lea    0x779b(%rip),%rax        # 17060 <g_449>
    f8c5:	48 89 85 78 fb ff ff 	mov    %rax,-0x488(%rbp)
    f8cc:	66 c7 85 1e fb ff ff 	movw   $0xcf95,-0x4e2(%rbp)
    f8d3:	95 cf 
    f8d5:	48 8d 05 58 5b 00 00 	lea    0x5b58(%rip),%rax        # 15434 <g_36>
    f8dc:	48 89 85 80 fb ff ff 	mov    %rax,-0x480(%rbp)
    f8e3:	48 8b 05 4e 5b 00 00 	mov    0x5b4e(%rip),%rax        # 15438 <g_85>
    f8ea:	48 83 c0 01          	add    $0x1,%rax
    f8ee:	48 89 05 43 5b 00 00 	mov    %rax,0x5b43(%rip)        # 15438 <g_85>
    f8f5:	c7 05 35 5b 00 00 19 	movl   $0x19,0x5b35(%rip)        # 15434 <g_36>
    f8fc:	00 00 00 
    f8ff:	e9 23 0c 00 00       	jmpq   10527 <func_68+0xd78>
    f904:	48 c7 85 10 fc ff ff 	movq   $0x0,-0x3f0(%rbp)
    f90b:	00 00 00 00 
    f90f:	48 c7 85 18 fc ff ff 	movq   $0x0,-0x3e8(%rbp)
    f916:	00 00 00 00 
    f91a:	48 c7 85 20 fc ff ff 	movq   $0x0,-0x3e0(%rbp)
    f921:	00 00 00 00 
    f925:	48 c7 85 28 fc ff ff 	movq   $0x0,-0x3d8(%rbp)
    f92c:	00 00 00 00 
    f930:	48 c7 85 30 fc ff ff 	movq   $0x0,-0x3d0(%rbp)
    f937:	00 00 00 00 
    f93b:	48 c7 85 38 fc ff ff 	movq   $0x0,-0x3c8(%rbp)
    f942:	00 00 00 00 
    f946:	48 c7 85 40 fc ff ff 	movq   $0x0,-0x3c0(%rbp)
    f94d:	00 00 00 00 
    f951:	48 8d 05 10 8c 00 00 	lea    0x8c10(%rip),%rax        # 18568 <g_34>
    f958:	48 89 85 88 fb ff ff 	mov    %rax,-0x478(%rbp)
    f95f:	48 8d 85 1a fb ff ff 	lea    -0x4e6(%rbp),%rax
    f966:	48 89 85 40 fb ff ff 	mov    %rax,-0x4c0(%rbp)
    f96d:	48 8d 05 9e 5a 00 00 	lea    0x5a9e(%rip),%rax        # 15412 <g_31+0x92>
    f974:	48 89 85 d0 fc ff ff 	mov    %rax,-0x330(%rbp)
    f97b:	48 8d 05 90 5a 00 00 	lea    0x5a90(%rip),%rax        # 15412 <g_31+0x92>
    f982:	48 89 85 d8 fc ff ff 	mov    %rax,-0x328(%rbp)
    f989:	48 8d 05 9c 5a 00 00 	lea    0x5a9c(%rip),%rax        # 1542c <g_31+0xac>
    f990:	48 89 85 e0 fc ff ff 	mov    %rax,-0x320(%rbp)
    f997:	48 c7 85 e8 fc ff ff 	movq   $0x0,-0x318(%rbp)
    f99e:	00 00 00 00 
    f9a2:	48 8d 05 99 5a 00 00 	lea    0x5a99(%rip),%rax        # 15442 <g_103>
    f9a9:	48 89 85 f0 fc ff ff 	mov    %rax,-0x310(%rbp)
    f9b0:	48 8d 05 63 5a 00 00 	lea    0x5a63(%rip),%rax        # 1541a <g_31+0x9a>
    f9b7:	48 89 85 f8 fc ff ff 	mov    %rax,-0x308(%rbp)
    f9be:	48 8d 05 4d 5a 00 00 	lea    0x5a4d(%rip),%rax        # 15412 <g_31+0x92>
    f9c5:	48 89 85 00 fd ff ff 	mov    %rax,-0x300(%rbp)
    f9cc:	48 8d 05 01 5a 00 00 	lea    0x5a01(%rip),%rax        # 153d4 <g_31+0x54>
    f9d3:	48 89 85 08 fd ff ff 	mov    %rax,-0x2f8(%rbp)
    f9da:	48 8d 05 25 5a 00 00 	lea    0x5a25(%rip),%rax        # 15406 <g_31+0x86>
    f9e1:	48 89 85 10 fd ff ff 	mov    %rax,-0x2f0(%rbp)
    f9e8:	48 8d 05 23 5a 00 00 	lea    0x5a23(%rip),%rax        # 15412 <g_31+0x92>
    f9ef:	48 89 85 18 fd ff ff 	mov    %rax,-0x2e8(%rbp)
    f9f6:	48 c7 85 20 fd ff ff 	movq   $0x0,-0x2e0(%rbp)
    f9fd:	00 00 00 00 
    fa01:	48 8d 05 0a 5a 00 00 	lea    0x5a0a(%rip),%rax        # 15412 <g_31+0x92>
    fa08:	48 89 85 28 fd ff ff 	mov    %rax,-0x2d8(%rbp)
    fa0f:	48 c7 85 30 fd ff ff 	movq   $0x0,-0x2d0(%rbp)
    fa16:	00 00 00 00 
    fa1a:	48 8d 05 f1 59 00 00 	lea    0x59f1(%rip),%rax        # 15412 <g_31+0x92>
    fa21:	48 89 85 38 fd ff ff 	mov    %rax,-0x2c8(%rbp)
    fa28:	48 8d 05 d7 59 00 00 	lea    0x59d7(%rip),%rax        # 15406 <g_31+0x86>
    fa2f:	48 89 85 40 fd ff ff 	mov    %rax,-0x2c0(%rbp)
    fa36:	48 8d 05 97 59 00 00 	lea    0x5997(%rip),%rax        # 153d4 <g_31+0x54>
    fa3d:	48 89 85 48 fd ff ff 	mov    %rax,-0x2b8(%rbp)
    fa44:	48 8d 05 c7 59 00 00 	lea    0x59c7(%rip),%rax        # 15412 <g_31+0x92>
    fa4b:	48 89 85 50 fd ff ff 	mov    %rax,-0x2b0(%rbp)
    fa52:	48 8d 05 c1 59 00 00 	lea    0x59c1(%rip),%rax        # 1541a <g_31+0x9a>
    fa59:	48 89 85 58 fd ff ff 	mov    %rax,-0x2a8(%rbp)
    fa60:	48 8d 05 db 59 00 00 	lea    0x59db(%rip),%rax        # 15442 <g_103>
    fa67:	48 89 85 60 fd ff ff 	mov    %rax,-0x2a0(%rbp)
    fa6e:	48 c7 85 68 fd ff ff 	movq   $0x0,-0x298(%rbp)
    fa75:	00 00 00 00 
    fa79:	48 8d 05 ac 59 00 00 	lea    0x59ac(%rip),%rax        # 1542c <g_31+0xac>
    fa80:	48 89 85 70 fd ff ff 	mov    %rax,-0x290(%rbp)
    fa87:	48 8d 05 84 59 00 00 	lea    0x5984(%rip),%rax        # 15412 <g_31+0x92>
    fa8e:	48 89 85 78 fd ff ff 	mov    %rax,-0x288(%rbp)
    fa95:	48 8d 05 76 59 00 00 	lea    0x5976(%rip),%rax        # 15412 <g_31+0x92>
    fa9c:	48 89 85 80 fd ff ff 	mov    %rax,-0x280(%rbp)
    faa3:	48 8d 05 82 59 00 00 	lea    0x5982(%rip),%rax        # 1542c <g_31+0xac>
    faaa:	48 89 85 88 fd ff ff 	mov    %rax,-0x278(%rbp)
    fab1:	48 8d 05 74 59 00 00 	lea    0x5974(%rip),%rax        # 1542c <g_31+0xac>
    fab8:	48 89 85 90 fd ff ff 	mov    %rax,-0x270(%rbp)
    fabf:	48 8d 05 0e 59 00 00 	lea    0x590e(%rip),%rax        # 153d4 <g_31+0x54>
    fac6:	48 89 85 98 fd ff ff 	mov    %rax,-0x268(%rbp)
    facd:	48 8d 05 6e 59 00 00 	lea    0x596e(%rip),%rax        # 15442 <g_103>
    fad4:	48 89 85 a0 fd ff ff 	mov    %rax,-0x260(%rbp)
    fadb:	48 8d 05 24 59 00 00 	lea    0x5924(%rip),%rax        # 15406 <g_31+0x86>
    fae2:	48 89 85 a8 fd ff ff 	mov    %rax,-0x258(%rbp)
    fae9:	48 8d 05 22 59 00 00 	lea    0x5922(%rip),%rax        # 15412 <g_31+0x92>
    faf0:	48 89 85 b0 fd ff ff 	mov    %rax,-0x250(%rbp)
    faf7:	48 8d 05 2e 59 00 00 	lea    0x592e(%rip),%rax        # 1542c <g_31+0xac>
    fafe:	48 89 85 b8 fd ff ff 	mov    %rax,-0x248(%rbp)
    fb05:	48 8d 05 fa 58 00 00 	lea    0x58fa(%rip),%rax        # 15406 <g_31+0x86>
    fb0c:	48 89 85 c0 fd ff ff 	mov    %rax,-0x240(%rbp)
    fb13:	48 8d 05 f8 58 00 00 	lea    0x58f8(%rip),%rax        # 15412 <g_31+0x92>
    fb1a:	48 89 85 c8 fd ff ff 	mov    %rax,-0x238(%rbp)
    fb21:	48 c7 85 90 fb ff ff 	movq   $0x0,-0x470(%rbp)
    fb28:	00 00 00 00 
    fb2c:	48 c7 85 98 fb ff ff 	movq   $0x0,-0x468(%rbp)
    fb33:	00 00 00 00 
    fb37:	48 8d 05 06 59 00 00 	lea    0x5906(%rip),%rax        # 15444 <g_107>
    fb3e:	48 89 85 a0 fb ff ff 	mov    %rax,-0x460(%rbp)
    fb45:	48 c7 85 a8 fb ff ff 	movq   $0x0,-0x458(%rbp)
    fb4c:	00 00 00 00 
    fb50:	48 8d 05 15 8a 00 00 	lea    0x8a15(%rip),%rax        # 1856c <g_110>
    fb57:	48 89 85 b0 fb ff ff 	mov    %rax,-0x450(%rbp)
    fb5e:	48 8d 05 03 58 00 00 	lea    0x5803(%rip),%rax        # 15368 <g_30>
    fb65:	48 89 85 48 fb ff ff 	mov    %rax,-0x4b8(%rbp)
    fb6c:	48 8d 85 48 fb ff ff 	lea    -0x4b8(%rbp),%rax
    fb73:	48 89 85 b8 fb ff ff 	mov    %rax,-0x448(%rbp)
    fb7a:	c7 85 20 fb ff ff 00 	movl   $0x0,-0x4e0(%rbp)
    fb81:	00 00 00 
    fb84:	eb 22                	jmp    fba8 <func_68+0x3f9>
    fb86:	8b 85 20 fb ff ff    	mov    -0x4e0(%rbp),%eax
    fb8c:	48 98                	cltq   
    fb8e:	48 8d 95 f0 fb ff ff 	lea    -0x410(%rbp),%rdx
    fb95:	48 83 c2 04          	add    $0x4,%rdx
    fb99:	48 89 94 c5 50 fc ff 	mov    %rdx,-0x3b0(%rbp,%rax,8)
    fba0:	ff 
    fba1:	83 85 20 fb ff ff 01 	addl   $0x1,-0x4e0(%rbp)
    fba8:	83 bd 20 fb ff ff 07 	cmpl   $0x7,-0x4e0(%rbp)
    fbaf:	7e d5                	jle    fb86 <func_68+0x3d7>
    fbb1:	80 bd f8 fa ff ff 00 	cmpb   $0x0,-0x508(%rbp)
    fbb8:	0f 85 d5 00 00 00    	jne    fc93 <func_68+0x4e4>
    fbbe:	c6 05 7b 58 00 00 04 	movb   $0x4,0x587b(%rip)        # 15440 <g_91>
    fbc5:	0f b7 85 1a fb ff ff 	movzwl -0x4e6(%rbp),%eax
    fbcc:	0f be d8             	movsbl %al,%ebx
    fbcf:	8b 05 5f 57 00 00    	mov    0x575f(%rip),%eax        # 15334 <g_19+0x74>
    fbd5:	44 0f bf e0          	movswl %ax,%r12d
    fbd9:	48 8b 85 60 fb ff ff 	mov    -0x4a0(%rbp),%rax
    fbe0:	8b 00                	mov    (%rax),%eax
    fbe2:	85 c0                	test   %eax,%eax
    fbe4:	75 22                	jne    fc08 <func_68+0x459>
    fbe6:	8b 85 fc fa ff ff    	mov    -0x504(%rbp),%eax
    fbec:	0f b6 d0             	movzbl %al,%edx
    fbef:	48 83 bd 88 fb ff ff 	cmpq   $0x0,-0x478(%rbp)
    fbf6:	00 
    fbf7:	0f 95 c0             	setne  %al
    fbfa:	0f b6 c0             	movzbl %al,%eax
    fbfd:	89 d6                	mov    %edx,%esi
    fbff:	89 c7                	mov    %eax,%edi
    fc01:	e8 72 7f ff ff       	callq  7b78 <safe_sub_func_uint8_t_u_u>
    fc06:	84 c0                	test   %al,%al
    fc08:	48 8b 85 88 fb ff ff 	mov    -0x478(%rbp),%rax
    fc0f:	8b 00                	mov    (%rax),%eax
    fc11:	98                   	cwtl   
    fc12:	44 89 e6             	mov    %r12d,%esi
    fc15:	89 c7                	mov    %eax,%edi
    fc17:	e8 b7 77 ff ff       	callq  73d3 <safe_sub_func_int16_t_s_s>
    fc1c:	8b 05 46 89 00 00    	mov    0x8946(%rip),%eax        # 18568 <g_34>
    fc22:	98                   	cwtl   
    fc23:	89 c7                	mov    %eax,%edi
    fc25:	e8 73 77 ff ff       	callq  739d <safe_unary_minus_func_int16_t_s>
    fc2a:	89 c2                	mov    %eax,%edx
    fc2c:	8b 85 08 fb ff ff    	mov    -0x4f8(%rbp),%eax
    fc32:	09 d0                	or     %edx,%eax
    fc34:	0f be c0             	movsbl %al,%eax
    fc37:	89 de                	mov    %ebx,%esi
    fc39:	89 c7                	mov    %eax,%edi
    fc3b:	e8 d2 75 ff ff       	callq  7212 <safe_mul_func_int8_t_s_s>
    fc40:	84 c0                	test   %al,%al
    fc42:	74 07                	je     fc4b <func_68+0x49c>
    fc44:	ba 01 00 00 00       	mov    $0x1,%edx
    fc49:	eb 05                	jmp    fc50 <func_68+0x4a1>
    fc4b:	ba 00 00 00 00       	mov    $0x0,%edx
    fc50:	0f b6 85 f8 fa ff ff 	movzbl -0x508(%rbp),%eax
    fc57:	39 c2                	cmp    %eax,%edx
    fc59:	7c 0b                	jl     fc66 <func_68+0x4b7>
    fc5b:	48 8b 85 88 fb ff ff 	mov    -0x478(%rbp),%rax
    fc62:	8b 00                	mov    (%rax),%eax
    fc64:	85 c0                	test   %eax,%eax
    fc66:	48 8b 85 40 fb ff ff 	mov    -0x4c0(%rbp),%rax
    fc6d:	66 c7 00 8e 00       	movw   $0x8e,(%rax)
    fc72:	0f b7 00             	movzwl (%rax),%eax
    fc75:	66 89 05 c6 57 00 00 	mov    %ax,0x57c6(%rip)        # 15442 <g_103>
    fc7c:	0f b7 05 bf 57 00 00 	movzwl 0x57bf(%rip),%eax        # 15442 <g_103>
    fc83:	48 8b 15 ae 57 00 00 	mov    0x57ae(%rip),%rdx        # 15438 <g_85>
    fc8a:	09 d0                	or     %edx,%eax
    fc8c:	66 89 85 0c fb ff ff 	mov    %ax,-0x4f4(%rbp)
    fc93:	ba 01 00 00 00       	mov    $0x1,%edx
    fc98:	48 8b 85 a0 fb ff ff 	mov    -0x460(%rbp),%rax
    fc9f:	8b 00                	mov    (%rax),%eax
    fca1:	31 c2                	xor    %eax,%edx
    fca3:	48 8b 85 a0 fb ff ff 	mov    -0x460(%rbp),%rax
    fcaa:	89 10                	mov    %edx,(%rax)
    fcac:	ba f7 7d 00 00       	mov    $0x7df7,%edx
    fcb1:	48 8b 85 b0 fb ff ff 	mov    -0x450(%rbp),%rax
    fcb8:	0f b7 00             	movzwl (%rax),%eax
    fcbb:	21 c2                	and    %eax,%edx
    fcbd:	48 8b 85 b0 fb ff ff 	mov    -0x450(%rbp),%rax
    fcc4:	66 89 10             	mov    %dx,(%rax)
    fcc7:	0f b7 05 c0 56 00 00 	movzwl 0x56c0(%rip),%eax        # 1538e <g_31+0xe>
    fcce:	0f b7 d0             	movzwl %ax,%edx
    fcd1:	0f b7 05 94 88 00 00 	movzwl 0x8894(%rip),%eax        # 1856c <g_110>
    fcd8:	98                   	cwtl   
    fcd9:	39 c2                	cmp    %eax,%edx
    fcdb:	0f 84 36 04 00 00    	je     10117 <func_68+0x968>
    fce1:	48 8d 85 90 fc ff ff 	lea    -0x370(%rbp),%rax
    fce8:	48 89 85 d0 fb ff ff 	mov    %rax,-0x430(%rbp)
    fcef:	48 8d 85 40 fb ff ff 	lea    -0x4c0(%rbp),%rax
    fcf6:	48 89 85 d0 fd ff ff 	mov    %rax,-0x230(%rbp)
    fcfd:	48 8d 85 d0 fc ff ff 	lea    -0x330(%rbp),%rax
    fd04:	48 83 c0 40          	add    $0x40,%rax
    fd08:	48 89 85 d8 fd ff ff 	mov    %rax,-0x228(%rbp)
    fd0f:	48 8d 85 40 fb ff ff 	lea    -0x4c0(%rbp),%rax
    fd16:	48 89 85 e0 fd ff ff 	mov    %rax,-0x220(%rbp)
    fd1d:	48 8d 85 d0 fc ff ff 	lea    -0x330(%rbp),%rax
    fd24:	48 83 c0 40          	add    $0x40,%rax
    fd28:	48 89 85 e8 fd ff ff 	mov    %rax,-0x218(%rbp)
    fd2f:	48 8d 85 40 fb ff ff 	lea    -0x4c0(%rbp),%rax
    fd36:	48 89 85 f0 fd ff ff 	mov    %rax,-0x210(%rbp)
    fd3d:	48 8d 85 d0 fc ff ff 	lea    -0x330(%rbp),%rax
    fd44:	48 83 c0 40          	add    $0x40,%rax
    fd48:	48 89 85 f8 fd ff ff 	mov    %rax,-0x208(%rbp)
    fd4f:	48 8d 85 d0 fc ff ff 	lea    -0x330(%rbp),%rax
    fd56:	48 83 e8 80          	sub    $0xffffffffffffff80,%rax
    fd5a:	48 89 85 00 fe ff ff 	mov    %rax,-0x200(%rbp)
    fd61:	48 8d 85 40 fb ff ff 	lea    -0x4c0(%rbp),%rax
    fd68:	48 89 85 08 fe ff ff 	mov    %rax,-0x1f8(%rbp)
    fd6f:	48 c7 85 10 fe ff ff 	movq   $0x0,-0x1f0(%rbp)
    fd76:	00 00 00 00 
    fd7a:	48 8d 85 d0 fc ff ff 	lea    -0x330(%rbp),%rax
    fd81:	48 05 f8 00 00 00    	add    $0xf8,%rax
    fd87:	48 89 85 18 fe ff ff 	mov    %rax,-0x1e8(%rbp)
    fd8e:	48 c7 85 20 fe ff ff 	movq   $0x0,-0x1e0(%rbp)
    fd95:	00 00 00 00 
    fd99:	48 8d 85 40 fb ff ff 	lea    -0x4c0(%rbp),%rax
    fda0:	48 89 85 28 fe ff ff 	mov    %rax,-0x1d8(%rbp)
    fda7:	48 8d 85 d0 fc ff ff 	lea    -0x330(%rbp),%rax
    fdae:	48 83 e8 80          	sub    $0xffffffffffffff80,%rax
    fdb2:	48 89 85 30 fe ff ff 	mov    %rax,-0x1d0(%rbp)
    fdb9:	48 8d 85 d0 fc ff ff 	lea    -0x330(%rbp),%rax
    fdc0:	48 83 c0 40          	add    $0x40,%rax
    fdc4:	48 89 85 38 fe ff ff 	mov    %rax,-0x1c8(%rbp)
    fdcb:	48 8d 85 40 fb ff ff 	lea    -0x4c0(%rbp),%rax
    fdd2:	48 89 85 40 fe ff ff 	mov    %rax,-0x1c0(%rbp)
    fdd9:	48 8d 85 d0 fc ff ff 	lea    -0x330(%rbp),%rax
    fde0:	48 83 c0 40          	add    $0x40,%rax
    fde4:	48 89 85 48 fe ff ff 	mov    %rax,-0x1b8(%rbp)
    fdeb:	48 8d 85 40 fb ff ff 	lea    -0x4c0(%rbp),%rax
    fdf2:	48 89 85 50 fe ff ff 	mov    %rax,-0x1b0(%rbp)
    fdf9:	48 8d 85 d0 fc ff ff 	lea    -0x330(%rbp),%rax
    fe00:	48 83 c0 40          	add    $0x40,%rax
    fe04:	48 89 85 58 fe ff ff 	mov    %rax,-0x1a8(%rbp)
    fe0b:	48 8d 85 40 fb ff ff 	lea    -0x4c0(%rbp),%rax
    fe12:	48 89 85 60 fe ff ff 	mov    %rax,-0x1a0(%rbp)
    fe19:	48 8d 85 d0 fc ff ff 	lea    -0x330(%rbp),%rax
    fe20:	48 83 c0 40          	add    $0x40,%rax
    fe24:	48 89 85 68 fe ff ff 	mov    %rax,-0x198(%rbp)
    fe2b:	48 8d 85 d0 fc ff ff 	lea    -0x330(%rbp),%rax
    fe32:	48 83 e8 80          	sub    $0xffffffffffffff80,%rax
    fe36:	48 89 85 70 fe ff ff 	mov    %rax,-0x190(%rbp)
    fe3d:	48 8d 85 40 fb ff ff 	lea    -0x4c0(%rbp),%rax
    fe44:	48 89 85 78 fe ff ff 	mov    %rax,-0x188(%rbp)
    fe4b:	48 c7 85 80 fe ff ff 	movq   $0x0,-0x180(%rbp)
    fe52:	00 00 00 00 
    fe56:	48 8d 85 d0 fc ff ff 	lea    -0x330(%rbp),%rax
    fe5d:	48 05 f8 00 00 00    	add    $0xf8,%rax
    fe63:	48 89 85 88 fe ff ff 	mov    %rax,-0x178(%rbp)
    fe6a:	48 c7 85 90 fe ff ff 	movq   $0x0,-0x170(%rbp)
    fe71:	00 00 00 00 
    fe75:	48 8d 85 40 fb ff ff 	lea    -0x4c0(%rbp),%rax
    fe7c:	48 89 85 98 fe ff ff 	mov    %rax,-0x168(%rbp)
    fe83:	48 8d 85 d0 fc ff ff 	lea    -0x330(%rbp),%rax
    fe8a:	48 83 e8 80          	sub    $0xffffffffffffff80,%rax
    fe8e:	48 89 85 a0 fe ff ff 	mov    %rax,-0x160(%rbp)
    fe95:	48 8d 85 d0 fc ff ff 	lea    -0x330(%rbp),%rax
    fe9c:	48 83 c0 40          	add    $0x40,%rax
    fea0:	48 89 85 a8 fe ff ff 	mov    %rax,-0x158(%rbp)
    fea7:	48 8d 85 40 fb ff ff 	lea    -0x4c0(%rbp),%rax
    feae:	48 89 85 b0 fe ff ff 	mov    %rax,-0x150(%rbp)
    feb5:	48 8d 85 d0 fc ff ff 	lea    -0x330(%rbp),%rax
    febc:	48 83 c0 40          	add    $0x40,%rax
    fec0:	48 89 85 b8 fe ff ff 	mov    %rax,-0x148(%rbp)
    fec7:	48 8d 85 40 fb ff ff 	lea    -0x4c0(%rbp),%rax
    fece:	48 89 85 c0 fe ff ff 	mov    %rax,-0x140(%rbp)
    fed5:	48 8d 85 d0 fc ff ff 	lea    -0x330(%rbp),%rax
    fedc:	48 83 c0 40          	add    $0x40,%rax
    fee0:	48 89 85 c8 fe ff ff 	mov    %rax,-0x138(%rbp)
    fee7:	48 8d 85 40 fb ff ff 	lea    -0x4c0(%rbp),%rax
    feee:	48 89 85 d0 fe ff ff 	mov    %rax,-0x130(%rbp)
    fef5:	48 8d 85 d0 fc ff ff 	lea    -0x330(%rbp),%rax
    fefc:	48 83 c0 40          	add    $0x40,%rax
    ff00:	48 89 85 d8 fe ff ff 	mov    %rax,-0x128(%rbp)
    ff07:	48 8d 85 d0 fc ff ff 	lea    -0x330(%rbp),%rax
    ff0e:	48 83 e8 80          	sub    $0xffffffffffffff80,%rax
    ff12:	48 89 85 e0 fe ff ff 	mov    %rax,-0x120(%rbp)
    ff19:	48 8d 85 40 fb ff ff 	lea    -0x4c0(%rbp),%rax
    ff20:	48 89 85 e8 fe ff ff 	mov    %rax,-0x118(%rbp)
    ff27:	48 c7 85 f0 fe ff ff 	movq   $0x0,-0x110(%rbp)
    ff2e:	00 00 00 00 
    ff32:	48 8d 85 d0 fc ff ff 	lea    -0x330(%rbp),%rax
    ff39:	48 05 f8 00 00 00    	add    $0xf8,%rax
    ff3f:	48 89 85 f8 fe ff ff 	mov    %rax,-0x108(%rbp)
    ff46:	48 c7 85 00 ff ff ff 	movq   $0x0,-0x100(%rbp)
    ff4d:	00 00 00 00 
    ff51:	48 8d 85 40 fb ff ff 	lea    -0x4c0(%rbp),%rax
    ff58:	48 89 85 08 ff ff ff 	mov    %rax,-0xf8(%rbp)
    ff5f:	48 8d 85 d0 fc ff ff 	lea    -0x330(%rbp),%rax
    ff66:	48 83 e8 80          	sub    $0xffffffffffffff80,%rax
    ff6a:	48 89 85 10 ff ff ff 	mov    %rax,-0xf0(%rbp)
    ff71:	48 8d 85 d0 fc ff ff 	lea    -0x330(%rbp),%rax
    ff78:	48 83 c0 40          	add    $0x40,%rax
    ff7c:	48 89 85 18 ff ff ff 	mov    %rax,-0xe8(%rbp)
    ff83:	48 8d 85 40 fb ff ff 	lea    -0x4c0(%rbp),%rax
    ff8a:	48 89 85 20 ff ff ff 	mov    %rax,-0xe0(%rbp)
    ff91:	48 8d 85 d0 fc ff ff 	lea    -0x330(%rbp),%rax
    ff98:	48 83 c0 40          	add    $0x40,%rax
    ff9c:	48 89 85 28 ff ff ff 	mov    %rax,-0xd8(%rbp)
    ffa3:	48 8d 85 40 fb ff ff 	lea    -0x4c0(%rbp),%rax
    ffaa:	48 89 85 30 ff ff ff 	mov    %rax,-0xd0(%rbp)
    ffb1:	48 8d 85 d0 fc ff ff 	lea    -0x330(%rbp),%rax
    ffb8:	48 83 c0 40          	add    $0x40,%rax
    ffbc:	48 89 85 38 ff ff ff 	mov    %rax,-0xc8(%rbp)
    ffc3:	48 8d 85 40 fb ff ff 	lea    -0x4c0(%rbp),%rax
    ffca:	48 89 85 40 ff ff ff 	mov    %rax,-0xc0(%rbp)
    ffd1:	48 8d 85 d0 fc ff ff 	lea    -0x330(%rbp),%rax
    ffd8:	48 83 c0 40          	add    $0x40,%rax
    ffdc:	48 89 85 48 ff ff ff 	mov    %rax,-0xb8(%rbp)
    ffe3:	48 8d 85 d0 fc ff ff 	lea    -0x330(%rbp),%rax
    ffea:	48 83 e8 80          	sub    $0xffffffffffffff80,%rax
    ffee:	48 89 85 50 ff ff ff 	mov    %rax,-0xb0(%rbp)
    fff5:	48 8d 85 40 fb ff ff 	lea    -0x4c0(%rbp),%rax
    fffc:	48 89 85 58 ff ff ff 	mov    %rax,-0xa8(%rbp)
   10003:	48 c7 85 60 ff ff ff 	movq   $0x0,-0xa0(%rbp)
   1000a:	00 00 00 00 
   1000e:	48 8d 85 d0 fc ff ff 	lea    -0x330(%rbp),%rax
   10015:	48 05 f8 00 00 00    	add    $0xf8,%rax
   1001b:	48 89 85 68 ff ff ff 	mov    %rax,-0x98(%rbp)
   10022:	48 c7 85 70 ff ff ff 	movq   $0x0,-0x90(%rbp)
   10029:	00 00 00 00 
   1002d:	48 8d 85 40 fb ff ff 	lea    -0x4c0(%rbp),%rax
   10034:	48 89 85 78 ff ff ff 	mov    %rax,-0x88(%rbp)
   1003b:	48 8d 85 d0 fc ff ff 	lea    -0x330(%rbp),%rax
   10042:	48 83 e8 80          	sub    $0xffffffffffffff80,%rax
   10046:	48 89 45 80          	mov    %rax,-0x80(%rbp)
   1004a:	48 8d 85 d0 fc ff ff 	lea    -0x330(%rbp),%rax
   10051:	48 83 c0 40          	add    $0x40,%rax
   10055:	48 89 45 88          	mov    %rax,-0x78(%rbp)
   10059:	48 8d 85 40 fb ff ff 	lea    -0x4c0(%rbp),%rax
   10060:	48 89 45 90          	mov    %rax,-0x70(%rbp)
   10064:	48 8d 85 d0 fc ff ff 	lea    -0x330(%rbp),%rax
   1006b:	48 83 c0 40          	add    $0x40,%rax
   1006f:	48 89 45 98          	mov    %rax,-0x68(%rbp)
   10073:	48 8d 85 40 fb ff ff 	lea    -0x4c0(%rbp),%rax
   1007a:	48 89 45 a0          	mov    %rax,-0x60(%rbp)
   1007e:	48 8d 85 d0 fc ff ff 	lea    -0x330(%rbp),%rax
   10085:	48 83 c0 40          	add    $0x40,%rax
   10089:	48 89 45 a8          	mov    %rax,-0x58(%rbp)
   1008d:	48 8d 85 40 fb ff ff 	lea    -0x4c0(%rbp),%rax
   10094:	48 89 45 b0          	mov    %rax,-0x50(%rbp)
   10098:	48 8d 85 d0 fc ff ff 	lea    -0x330(%rbp),%rax
   1009f:	48 83 c0 40          	add    $0x40,%rax
   100a3:	48 89 45 b8          	mov    %rax,-0x48(%rbp)
   100a7:	48 8d 85 d0 fc ff ff 	lea    -0x330(%rbp),%rax
   100ae:	48 83 e8 80          	sub    $0xffffffffffffff80,%rax
   100b2:	48 89 45 c0          	mov    %rax,-0x40(%rbp)
   100b6:	48 8d 85 40 fb ff ff 	lea    -0x4c0(%rbp),%rax
   100bd:	48 89 45 c8          	mov    %rax,-0x38(%rbp)
   100c1:	c7 85 24 fb ff ff 00 	movl   $0x0,-0x4dc(%rbp)
   100c8:	00 00 00 
   100cb:	eb 1e                	jmp    100eb <func_68+0x93c>
   100cd:	8b 85 24 fb ff ff    	mov    -0x4dc(%rbp),%eax
   100d3:	48 98                	cltq   
   100d5:	48 8d 15 8c 52 00 00 	lea    0x528c(%rip),%rdx        # 15368 <g_30>
   100dc:	48 89 94 c5 90 fc ff 	mov    %rdx,-0x370(%rbp,%rax,8)
   100e3:	ff 
   100e4:	83 85 24 fb ff ff 01 	addl   $0x1,-0x4dc(%rbp)
   100eb:	83 bd 24 fb ff ff 07 	cmpl   $0x7,-0x4dc(%rbp)
   100f2:	7e d9                	jle    100cd <func_68+0x91e>
   100f4:	0f b6 05 45 53 00 00 	movzbl 0x5345(%rip),%eax        # 15440 <g_91>
   100fb:	83 c8 01             	or     $0x1,%eax
   100fe:	88 05 3c 53 00 00    	mov    %al,0x533c(%rip)        # 15440 <g_91>
   10104:	48 8d 05 b1 51 00 00 	lea    0x51b1(%rip),%rax        # 152bc <g_4+0x27c>
   1010b:	48 89 05 5e 84 00 00 	mov    %rax,0x845e(%rip)        # 18570 <g_116>
   10112:	e9 d8 03 00 00       	jmpq   104ef <func_68+0xd40>
   10117:	c7 85 30 fb ff ff b5 	movl   $0xe8e123b5,-0x4d0(%rbp)
   1011e:	23 e1 e8 
   10121:	48 8d 05 10 53 00 00 	lea    0x5310(%rip),%rax        # 15438 <g_85>
   10128:	48 89 85 c0 fb ff ff 	mov    %rax,-0x440(%rbp)
   1012f:	66 c7 05 0a 53 00 00 	movw   $0xfff4,0x530a(%rip)        # 15442 <g_103>
   10136:	f4 ff 
   10138:	e9 ca 01 00 00       	jmpq   10307 <func_68+0xb58>
   1013d:	c7 85 34 fb ff ff dc 	movl   $0x2663eedc,-0x4cc(%rbp)
   10144:	ee 63 26 
   10147:	c6 05 f2 52 00 00 01 	movb   $0x1,0x52f2(%rip)        # 15440 <g_91>
   1014e:	90                   	nop
   1014f:	0f b6 05 ea 52 00 00 	movzbl 0x52ea(%rip),%eax        # 15440 <g_91>
   10156:	3c 15                	cmp    $0x15,%al
   10158:	0f 86 98 01 00 00    	jbe    102f6 <func_68+0xb47>
   1015e:	48 c7 05 cf 52 00 00 	movq   $0x0,0x52cf(%rip)        # 15438 <g_85>
   10165:	00 00 00 00 
   10169:	e9 6b 01 00 00       	jmpq   102d9 <func_68+0xb2a>
   1016e:	48 8d 85 38 fb ff ff 	lea    -0x4c8(%rbp),%rax
   10175:	48 89 85 c8 fb ff ff 	mov    %rax,-0x438(%rbp)
   1017c:	48 8b 85 88 fb ff ff 	mov    -0x478(%rbp),%rax
   10183:	8b 00                	mov    (%rax),%eax
   10185:	89 c2                	mov    %eax,%edx
   10187:	81 bd fc fa ff ff 66 	cmpl   $0xda66,-0x504(%rbp)
   1018e:	da 00 00 
   10191:	0f 95 c0             	setne  %al
   10194:	0f b6 c0             	movzbl %al,%eax
   10197:	89 d6                	mov    %edx,%esi
   10199:	89 c7                	mov    %eax,%edi
   1019b:	e8 30 7d ff ff       	callq  7ed0 <safe_sub_func_uint32_t_u_u>
   101a0:	8b 85 30 fb ff ff    	mov    -0x4d0(%rbp),%eax
   101a6:	98                   	cwtl   
   101a7:	be 0e 00 00 00       	mov    $0xe,%esi
   101ac:	89 c7                	mov    %eax,%edi
   101ae:	e8 b0 73 ff ff       	callq  7563 <safe_rshift_func_int16_t_s_u>
   101b3:	66 85 c0             	test   %ax,%ax
   101b6:	0f 95 c0             	setne  %al
   101b9:	44 0f b6 e8          	movzbl %al,%r13d
   101bd:	48 8b 85 60 fb ff ff 	mov    -0x4a0(%rbp),%rax
   101c4:	8b 00                	mov    (%rax),%eax
   101c6:	0f b6 d8             	movzbl %al,%ebx
   101c9:	8b 85 34 fb ff ff    	mov    -0x4cc(%rbp),%eax
   101cf:	4c 63 e0             	movslq %eax,%r12
   101d2:	0f b7 85 0c fb ff ff 	movzwl -0x4f4(%rbp),%eax
   101d9:	66 85 c0             	test   %ax,%ax
   101dc:	75 25                	jne    10203 <func_68+0xa54>
   101de:	8b 05 f0 50 00 00    	mov    0x50f0(%rip),%eax        # 152d4 <g_19+0x14>
   101e4:	48 63 d0             	movslq %eax,%rdx
   101e7:	0f b7 05 54 52 00 00 	movzwl 0x5254(%rip),%eax        # 15442 <g_103>
   101ee:	0f b7 c0             	movzwl %ax,%eax
   101f1:	48 89 d6             	mov    %rdx,%rsi
   101f4:	48 89 c7             	mov    %rax,%rdi
   101f7:	e8 32 7e ff ff       	callq  802e <safe_add_func_uint64_t_u_u>
   101fc:	b8 00 00 00 00       	mov    $0x0,%eax
   10201:	eb 05                	jmp    10208 <func_68+0xa59>
   10203:	b8 01 00 00 00       	mov    $0x1,%eax
   10208:	0f b7 c0             	movzwl %ax,%eax
   1020b:	be 0e 00 00 00       	mov    $0xe,%esi
   10210:	89 c7                	mov    %eax,%edi
   10212:	e8 31 7c ff ff       	callq  7e48 <safe_rshift_func_uint16_t_u_s>
   10217:	0f b7 d0             	movzwl %ax,%edx
   1021a:	8b 05 24 52 00 00    	mov    0x5224(%rip),%eax        # 15444 <g_107>
   10220:	0f b7 c0             	movzwl %ax,%eax
   10223:	89 d6                	mov    %edx,%esi
   10225:	89 c7                	mov    %eax,%edi
   10227:	e8 d3 7a ff ff       	callq  7cff <safe_add_func_uint16_t_u_u>
   1022c:	0f b7 c0             	movzwl %ax,%eax
   1022f:	48 be 47 2f 87 dc 9b 	movabs $0x495fcc9bdc872f47,%rsi
   10236:	cc 5f 49 
   10239:	48 89 c7             	mov    %rax,%rdi
   1023c:	e8 0a 7e ff ff       	callq  804b <safe_sub_func_uint64_t_u_u>
   10241:	48 8b 95 88 fb ff ff 	mov    -0x478(%rbp),%rdx
   10248:	8b 12                	mov    (%rdx),%edx
   1024a:	48 63 d2             	movslq %edx,%rdx
   1024d:	48 39 d0             	cmp    %rdx,%rax
   10250:	0f 97 c0             	seta   %al
   10253:	0f b6 d0             	movzbl %al,%edx
   10256:	48 8b 85 88 fb ff ff 	mov    -0x478(%rbp),%rax
   1025d:	8b 00                	mov    (%rax),%eax
   1025f:	31 d0                	xor    %edx,%eax
   10261:	48 98                	cltq   
   10263:	4c 89 e6             	mov    %r12,%rsi
   10266:	48 89 c7             	mov    %rax,%rdi
   10269:	e8 12 7e ff ff       	callq  8080 <safe_mod_func_uint64_t_u_u>
   1026e:	8b 95 08 fb ff ff    	mov    -0x4f8(%rbp),%edx
   10274:	48 39 d0             	cmp    %rdx,%rax
   10277:	0f 92 c0             	setb   %al
   1027a:	0f b6 c0             	movzbl %al,%eax
   1027d:	39 85 34 fb ff ff    	cmp    %eax,-0x4cc(%rbp)
   10283:	0f 9d c0             	setge  %al
   10286:	0f b6 d0             	movzbl %al,%edx
   10289:	8b 05 d9 50 00 00    	mov    0x50d9(%rip),%eax        # 15368 <g_30>
   1028f:	39 c2                	cmp    %eax,%edx
   10291:	0f 95 c0             	setne  %al
   10294:	0f b6 c0             	movzbl %al,%eax
   10297:	89 de                	mov    %ebx,%esi
   10299:	89 c7                	mov    %eax,%edi
   1029b:	e8 ba 78 ff ff       	callq  7b5a <safe_add_func_uint8_t_u_u>
   102a0:	0f b6 c0             	movzbl %al,%eax
   102a3:	41 39 c5             	cmp    %eax,%r13d
   102a6:	0f 9f c0             	setg   %al
   102a9:	0f b6 d0             	movzbl %al,%edx
   102ac:	48 8b 85 b0 fb ff ff 	mov    -0x450(%rbp),%rax
   102b3:	66 89 10             	mov    %dx,(%rax)
   102b6:	48 8b 85 c8 fb ff ff 	mov    -0x438(%rbp),%rax
   102bd:	48 8d 15 a4 82 00 00 	lea    0x82a4(%rip),%rdx        # 18568 <g_34>
   102c4:	48 89 10             	mov    %rdx,(%rax)
   102c7:	48 8b 05 6a 51 00 00 	mov    0x516a(%rip),%rax        # 15438 <g_85>
   102ce:	48 83 c0 01          	add    $0x1,%rax
   102d2:	48 89 05 5f 51 00 00 	mov    %rax,0x515f(%rip)        # 15438 <g_85>
   102d9:	48 8b 05 58 51 00 00 	mov    0x5158(%rip),%rax        # 15438 <g_85>
   102e0:	48 83 f8 38          	cmp    $0x38,%rax
   102e4:	0f 86 84 fe ff ff    	jbe    1016e <func_68+0x9bf>
   102ea:	48 8b 85 00 fb ff ff 	mov    -0x500(%rbp),%rax
   102f1:	e9 46 04 00 00       	jmpq   1073c <func_68+0xf8d>
   102f6:	0f b7 05 45 51 00 00 	movzwl 0x5145(%rip),%eax        # 15442 <g_103>
   102fd:	83 c0 01             	add    $0x1,%eax
   10300:	66 89 05 3b 51 00 00 	mov    %ax,0x513b(%rip)        # 15442 <g_103>
   10307:	0f b7 05 34 51 00 00 	movzwl 0x5134(%rip),%eax        # 15442 <g_103>
   1030e:	66 83 f8 2c          	cmp    $0x2c,%ax
   10312:	0f 86 25 fe ff ff    	jbe    1013d <func_68+0x98e>
   10318:	0f b7 85 0c fb ff ff 	movzwl -0x4f4(%rbp),%eax
   1031f:	66 85 c0             	test   %ax,%ax
   10322:	0f 85 10 02 00 00    	jne    10538 <func_68+0xd89>
   10328:	0f b7 85 0c fb ff ff 	movzwl -0x4f4(%rbp),%eax
   1032f:	66 85 c0             	test   %ax,%ax
   10332:	0f 85 03 02 00 00    	jne    1053b <func_68+0xd8c>
   10338:	48 8b 85 60 fb ff ff 	mov    -0x4a0(%rbp),%rax
   1033f:	8b 00                	mov    (%rax),%eax
   10341:	0f b7 d8             	movzwl %ax,%ebx
   10344:	0f b7 05 c7 50 00 00 	movzwl 0x50c7(%rip),%eax        # 15412 <g_31+0x92>
   1034b:	0f b6 c0             	movzbl %al,%eax
   1034e:	89 c7                	mov    %eax,%edi
   10350:	e8 f0 77 ff ff       	callq  7b45 <safe_unary_minus_func_uint8_t_u>
   10355:	0f b7 05 c0 50 00 00 	movzwl 0x50c0(%rip),%eax        # 1541c <g_31+0x9c>
   1035c:	44 0f b7 e0          	movzwl %ax,%r12d
   10360:	44 8b ad 08 fb ff ff 	mov    -0x4f8(%rbp),%r13d
   10367:	8b 85 fc fa ff ff    	mov    -0x504(%rbp),%eax
   1036d:	4c 63 f0             	movslq %eax,%r14
   10370:	48 8b 85 88 fb ff ff 	mov    -0x478(%rbp),%rax
   10377:	8b 00                	mov    (%rax),%eax
   10379:	f7 d0                	not    %eax
   1037b:	0f b6 c0             	movzbl %al,%eax
   1037e:	be 03 00 00 00       	mov    $0x3,%esi
   10383:	89 c7                	mov    %eax,%edi
   10385:	e8 7b 78 ff ff       	callq  7c05 <safe_lshift_func_uint8_t_u_s>
   1038a:	48 8b 95 c0 fb ff ff 	mov    -0x440(%rbp),%rdx
   10391:	48 8b 12             	mov    (%rdx),%rdx
   10394:	0f b6 c0             	movzbl %al,%eax
   10397:	48 31 c2             	xor    %rax,%rdx
   1039a:	48 8b 85 c0 fb ff ff 	mov    -0x440(%rbp),%rax
   103a1:	48 89 10             	mov    %rdx,(%rax)
   103a4:	48 8b 85 c0 fb ff ff 	mov    -0x440(%rbp),%rax
   103ab:	48 8b 00             	mov    (%rax),%rax
   103ae:	4c 89 f6             	mov    %r14,%rsi
   103b1:	48 89 c7             	mov    %rax,%rdi
   103b4:	e8 c7 7c ff ff       	callq  8080 <safe_mod_func_uint64_t_u_u>
   103b9:	8b 05 c9 4d 00 00    	mov    0x4dc9(%rip),%eax        # 15188 <g_4+0x148>
   103bf:	85 c0                	test   %eax,%eax
   103c1:	74 14                	je     103d7 <func_68+0xc28>
   103c3:	48 8b 85 58 fb ff ff 	mov    -0x4a8(%rbp),%rax
   103ca:	8b 00                	mov    (%rax),%eax
   103cc:	85 c0                	test   %eax,%eax
   103ce:	74 07                	je     103d7 <func_68+0xc28>
   103d0:	ba 01 00 00 00       	mov    $0x1,%edx
   103d5:	eb 05                	jmp    103dc <func_68+0xc2d>
   103d7:	ba 00 00 00 00       	mov    $0x0,%edx
   103dc:	48 8b 85 50 fb ff ff 	mov    -0x4b0(%rbp),%rax
   103e3:	8b 00                	mov    (%rax),%eax
   103e5:	31 c2                	xor    %eax,%edx
   103e7:	0f b6 85 f8 fa ff ff 	movzbl -0x508(%rbp),%eax
   103ee:	31 d0                	xor    %edx,%eax
   103f0:	39 85 30 fb ff ff    	cmp    %eax,-0x4d0(%rbp)
   103f6:	0f 9e c0             	setle  %al
   103f9:	0f b6 c0             	movzbl %al,%eax
   103fc:	44 89 ee             	mov    %r13d,%esi
   103ff:	89 c7                	mov    %eax,%edi
   10401:	e8 f9 72 ff ff       	callq  76ff <safe_div_func_int32_t_s_s>
   10406:	0f be c0             	movsbl %al,%eax
   10409:	44 89 e6             	mov    %r12d,%esi
   1040c:	89 c7                	mov    %eax,%edi
   1040e:	e8 db 6e ff ff       	callq  72ee <safe_lshift_func_int8_t_s_u>
   10413:	0f be d0             	movsbl %al,%edx
   10416:	0f b6 85 f8 fa ff ff 	movzbl -0x508(%rbp),%eax
   1041d:	21 d0                	and    %edx,%eax
   1041f:	85 c0                	test   %eax,%eax
   10421:	74 11                	je     10434 <func_68+0xc85>
   10423:	8b 05 3f 81 00 00    	mov    0x813f(%rip),%eax        # 18568 <g_34>
   10429:	85 c0                	test   %eax,%eax
   1042b:	74 07                	je     10434 <func_68+0xc85>
   1042d:	b8 01 00 00 00       	mov    $0x1,%eax
   10432:	eb 05                	jmp    10439 <func_68+0xc8a>
   10434:	b8 00 00 00 00       	mov    $0x0,%eax
   10439:	3d 55 d5 8c 7a       	cmp    $0x7a8cd555,%eax
   1043e:	0f 95 c0             	setne  %al
   10441:	0f b6 d0             	movzbl %al,%edx
   10444:	0f b7 05 7b 4f 00 00 	movzwl 0x4f7b(%rip),%eax        # 153c6 <g_31+0x46>
   1044b:	0f b7 c0             	movzwl %ax,%eax
   1044e:	39 c2                	cmp    %eax,%edx
   10450:	0f 9f c0             	setg   %al
   10453:	0f b6 c0             	movzbl %al,%eax
   10456:	39 85 fc fa ff ff    	cmp    %eax,-0x504(%rbp)
   1045c:	48 8b 05 15 81 00 00 	mov    0x8115(%rip),%rax        # 18578 <g_150>
   10463:	48 39 85 b8 fb ff ff 	cmp    %rax,-0x448(%rbp)
   1046a:	0f 95 c0             	setne  %al
   1046d:	0f b6 d0             	movzbl %al,%edx
   10470:	0f b7 85 0c fb ff ff 	movzwl -0x4f4(%rbp),%eax
   10477:	0f b7 c0             	movzwl %ax,%eax
   1047a:	39 85 fc fa ff ff    	cmp    %eax,-0x504(%rbp)
   10480:	0f 9d c0             	setge  %al
   10483:	0f b6 c0             	movzbl %al,%eax
   10486:	48 89 d6             	mov    %rdx,%rsi
   10489:	48 89 c7             	mov    %rax,%rdi
   1048c:	e8 b0 73 ff ff       	callq  7841 <safe_add_func_int64_t_s_s>
   10491:	48 8b 95 88 fb ff ff 	mov    -0x478(%rbp),%rdx
   10498:	8b 12                	mov    (%rdx),%edx
   1049a:	48 63 d2             	movslq %edx,%rdx
   1049d:	48 39 d0             	cmp    %rdx,%rax
   104a0:	0f 9d c0             	setge  %al
   104a3:	0f b6 c0             	movzbl %al,%eax
   104a6:	89 de                	mov    %ebx,%esi
   104a8:	89 c7                	mov    %eax,%edi
   104aa:	e8 df 78 ff ff       	callq  7d8e <safe_div_func_uint16_t_u_u>
   104af:	b8 07 00 00 00       	mov    $0x7,%eax
   104b4:	89 c2                	mov    %eax,%edx
   104b6:	8b 05 8c 4f 00 00    	mov    0x4f8c(%rip),%eax        # 15448 <g_164>
   104bc:	21 d0                	and    %edx,%eax
   104be:	89 05 84 4f 00 00    	mov    %eax,0x4f84(%rip)        # 15448 <g_164>
   104c4:	8b 15 7e 4f 00 00    	mov    0x4f7e(%rip),%edx        # 15448 <g_164>
   104ca:	8b 05 54 4e 00 00    	mov    0x4e54(%rip),%eax        # 15324 <g_19+0x64>
   104d0:	39 c2                	cmp    %eax,%edx
   104d2:	0f 95 c0             	setne  %al
   104d5:	0f b6 c0             	movzbl %al,%eax
   104d8:	89 c6                	mov    %eax,%esi
   104da:	bf 44 f6 04 bd       	mov    $0xbd04f644,%edi
   104df:	e8 ec 79 ff ff       	callq  7ed0 <safe_sub_func_uint32_t_u_u>
   104e4:	89 c2                	mov    %eax,%edx
   104e6:	48 8b 85 38 fb ff ff 	mov    -0x4c8(%rbp),%rax
   104ed:	89 10                	mov    %edx,(%rax)
   104ef:	80 bd f8 fa ff ff 00 	cmpb   $0x0,-0x508(%rbp)
   104f6:	74 05                	je     104fd <func_68+0xd4e>
   104f8:	e9 e6 f3 ff ff       	jmpq   f8e3 <func_68+0x134>
   104fd:	8b 05 b9 4d 00 00    	mov    0x4db9(%rip),%eax        # 152bc <g_4+0x27c>
   10503:	85 c0                	test   %eax,%eax
   10505:	75 37                	jne    1053e <func_68+0xd8f>
   10507:	0f b7 05 72 80 00 00 	movzwl 0x8072(%rip),%eax        # 18580 <g_169>
   1050e:	83 c0 01             	add    $0x1,%eax
   10511:	66 89 05 68 80 00 00 	mov    %ax,0x8068(%rip)        # 18580 <g_169>
   10518:	8b 05 16 4f 00 00    	mov    0x4f16(%rip),%eax        # 15434 <g_36>
   1051e:	83 e8 01             	sub    $0x1,%eax
   10521:	89 05 0d 4f 00 00    	mov    %eax,0x4f0d(%rip)        # 15434 <g_36>
   10527:	8b 05 07 4f 00 00    	mov    0x4f07(%rip),%eax        # 15434 <g_36>
   1052d:	83 f8 08             	cmp    $0x8,%eax
   10530:	0f 85 ce f3 ff ff    	jne    f904 <func_68+0x155>
   10536:	eb 07                	jmp    1053f <func_68+0xd90>
   10538:	90                   	nop
   10539:	eb 04                	jmp    1053f <func_68+0xd90>
   1053b:	90                   	nop
   1053c:	eb 01                	jmp    1053f <func_68+0xd90>
   1053e:	90                   	nop
   1053f:	48 8b 05 f2 4e 00 00 	mov    0x4ef2(%rip),%rax        # 15438 <g_85>
   10546:	48 85 c0             	test   %rax,%rax
   10549:	74 1a                	je     10565 <func_68+0xdb6>
   1054b:	48 8d 05 6a 4d 00 00 	lea    0x4d6a(%rip),%rax        # 152bc <g_4+0x27c>
   10552:	48 89 85 e8 fb ff ff 	mov    %rax,-0x418(%rbp)
   10559:	48 8b 85 e8 fb ff ff 	mov    -0x418(%rbp),%rax
   10560:	e9 d7 01 00 00       	jmpq   1073c <func_68+0xf8d>
   10565:	48 8d 85 d0 fd ff ff 	lea    -0x230(%rbp),%rax
   1056c:	48 8d 15 cd 24 00 00 	lea    0x24cd(%rip),%rdx        # 12a40 <g_2875+0x9e4>
   10573:	b9 24 00 00 00       	mov    $0x24,%ecx
   10578:	48 89 c7             	mov    %rax,%rdi
   1057b:	48 89 d6             	mov    %rdx,%rsi
   1057e:	f3 48 a5             	rep movsq %ds:(%rsi),%es:(%rdi)
   10581:	48 c7 85 d8 fb ff ff 	movq   $0x0,-0x428(%rbp)
   10588:	00 00 00 00 
   1058c:	c7 85 d0 fc ff ff 00 	movl   $0x0,-0x330(%rbp)
   10593:	00 00 00 
   10596:	c7 85 d4 fc ff ff ff 	movl   $0xffffffff,-0x32c(%rbp)
   1059d:	ff ff ff 
   105a0:	c7 85 d8 fc ff ff 38 	movl   $0x35f5cb38,-0x328(%rbp)
   105a7:	cb f5 35 
   105aa:	c7 85 dc fc ff ff ff 	movl   $0xffffffff,-0x324(%rbp)
   105b1:	ff ff ff 
   105b4:	c7 85 e0 fc ff ff 00 	movl   $0x0,-0x320(%rbp)
   105bb:	00 00 00 
   105be:	c7 85 e4 fc ff ff 00 	movl   $0x0,-0x31c(%rbp)
   105c5:	00 00 00 
   105c8:	c7 85 e8 fc ff ff ff 	movl   $0xffffffff,-0x318(%rbp)
   105cf:	ff ff ff 
   105d2:	c7 85 ec fc ff ff 38 	movl   $0x35f5cb38,-0x314(%rbp)
   105d9:	cb f5 35 
   105dc:	c7 85 f0 fc ff ff ff 	movl   $0xffffffff,-0x310(%rbp)
   105e3:	ff ff ff 
   105e6:	c7 85 f4 fc ff ff 84 	movl   $0xaeaea284,-0x30c(%rbp)
   105ed:	a2 ae ae 
   105f0:	c7 85 f8 fc ff ff 1a 	movl   $0x71bd91a,-0x308(%rbp)
   105f7:	d9 1b 07 
   105fa:	c7 85 fc fc ff ff f8 	movl   $0x89eb94f8,-0x304(%rbp)
   10601:	94 eb 89 
   10604:	c7 85 00 fd ff ff f8 	movl   $0x89eb94f8,-0x300(%rbp)
   1060b:	94 eb 89 
   1060e:	c7 85 04 fd ff ff 1a 	movl   $0x71bd91a,-0x2fc(%rbp)
   10615:	d9 1b 07 
   10618:	c7 85 08 fd ff ff 84 	movl   $0xaeaea284,-0x2f8(%rbp)
   1061f:	a2 ae ae 
   10622:	c7 85 0c fd ff ff 1a 	movl   $0x71bd91a,-0x2f4(%rbp)
   10629:	d9 1b 07 
   1062c:	c7 85 10 fd ff ff f8 	movl   $0x89eb94f8,-0x2f0(%rbp)
   10633:	94 eb 89 
   10636:	c7 85 14 fd ff ff f8 	movl   $0x89eb94f8,-0x2ec(%rbp)
   1063d:	94 eb 89 
   10640:	c7 85 18 fd ff ff 00 	movl   $0x0,-0x2e8(%rbp)
   10647:	00 00 00 
   1064a:	c7 85 1c fd ff ff 00 	movl   $0x0,-0x2e4(%rbp)
   10651:	00 00 00 
   10654:	c7 85 20 fd ff ff 08 	movl   $0x8,-0x2e0(%rbp)
   1065b:	00 00 00 
   1065e:	c7 85 24 fd ff ff 8f 	movl   $0xa12f7e8f,-0x2dc(%rbp)
   10665:	7e 2f a1 
   10668:	c7 85 28 fd ff ff 08 	movl   $0x8,-0x2d8(%rbp)
   1066f:	00 00 00 
   10672:	c7 85 2c fd ff ff ff 	movl   $0xffffffff,-0x2d4(%rbp)
   10679:	ff ff ff 
   1067c:	c7 85 30 fd ff ff ff 	movl   $0xffffffff,-0x2d0(%rbp)
   10683:	ff ff ff 
   10686:	c7 85 34 fd ff ff 08 	movl   $0x8,-0x2cc(%rbp)
   1068d:	00 00 00 
   10690:	c7 85 38 fd ff ff 8f 	movl   $0xa12f7e8f,-0x2c8(%rbp)
   10697:	7e 2f a1 
   1069a:	c7 85 3c fd ff ff f8 	movl   $0x89eb94f8,-0x2c4(%rbp)
   106a1:	94 eb 89 
   106a4:	c7 85 40 fd ff ff 9a 	movl   $0xeb4f7c9a,-0x2c0(%rbp)
   106ab:	7c 4f eb 
   106ae:	c7 85 44 fd ff ff f8 	movl   $0x89eb94f8,-0x2bc(%rbp)
   106b5:	94 eb 89 
   106b8:	c7 85 48 fd ff ff 9b 	movl   $0x626a049b,-0x2b8(%rbp)
   106bf:	04 6a 62 
   106c2:	c7 85 4c fd ff ff 9b 	movl   $0x626a049b,-0x2b4(%rbp)
   106c9:	04 6a 62 
   106cc:	c7 85 50 fd ff ff f8 	movl   $0x89eb94f8,-0x2b0(%rbp)
   106d3:	94 eb 89 
   106d6:	c7 85 54 fd ff ff 9a 	movl   $0xeb4f7c9a,-0x2ac(%rbp)
   106dd:	7c 4f eb 
   106e0:	c7 85 58 fd ff ff f8 	movl   $0x89eb94f8,-0x2a8(%rbp)
   106e7:	94 eb 89 
   106ea:	c7 85 5c fd ff ff 9b 	movl   $0x626a049b,-0x2a4(%rbp)
   106f1:	04 6a 62 
   106f4:	48 8d 05 95 4d 00 00 	lea    0x4d95(%rip),%rax        # 15490 <g_389>
   106fb:	48 89 85 e0 fb ff ff 	mov    %rax,-0x420(%rbp)
   10702:	c7 85 28 fb ff ff 00 	movl   $0x0,-0x4d8(%rbp)
   10709:	00 00 00 
   1070c:	eb 1e                	jmp    1072c <func_68+0xf7d>
   1070e:	8b 85 28 fb ff ff    	mov    -0x4d8(%rbp),%eax
   10714:	48 98                	cltq   
   10716:	48 8d 15 df 49 00 00 	lea    0x49df(%rip),%rdx        # 150fc <g_4+0xbc>
   1071d:	48 89 94 c5 90 fc ff 	mov    %rdx,-0x370(%rbp,%rax,8)
   10724:	ff 
   10725:	83 85 28 fb ff ff 01 	addl   $0x1,-0x4d8(%rbp)
   1072c:	83 bd 28 fb ff ff 02 	cmpl   $0x2,-0x4d8(%rbp)
   10733:	7e d9                	jle    1070e <func_68+0xf5f>
   10735:	48 8b 85 80 fb ff ff 	mov    -0x480(%rbp),%rax
   1073c:	48 8b 4d d8          	mov    -0x28(%rbp),%rcx
   10740:	64 48 33 0c 25 28 00 	xor    %fs:0x28,%rcx
   10747:	00 00 
   10749:	74 05                	je     10750 <func_68+0xfa1>
   1074b:	e8 20 69 ff ff       	callq  7070 <__stack_chk_fail@plt>
   10750:	48 81 c4 f0 04 00 00 	add    $0x4f0,%rsp
   10757:	5b                   	pop    %rbx
   10758:	41 5c                	pop    %r12
   1075a:	41 5d                	pop    %r13
   1075c:	41 5e                	pop    %r14
   1075e:	5d                   	pop    %rbp
   1075f:	c3                   	retq   

0000000000010760 <main>:
   10760:	f3 0f 1e fa          	endbr64 
   10764:	55                   	push   %rbp
   10765:	48 89 e5             	mov    %rsp,%rbp
   10768:	48 83 ec 20          	sub    $0x20,%rsp
   1076c:	89 7d ec             	mov    %edi,-0x14(%rbp)
   1076f:	48 89 75 e0          	mov    %rsi,-0x20(%rbp)
   10773:	c7 45 fc 00 00 00 00 	movl   $0x0,-0x4(%rbp)
   1077a:	83 7d ec 02          	cmpl   $0x2,-0x14(%rbp)
   1077e:	74 25                	je     107a5 <main+0x45>
   10780:	48 8b 45 e0          	mov    -0x20(%rbp),%rax
   10784:	48 83 c0 08          	add    $0x8,%rax
   10788:	48 8b 00             	mov    (%rax),%rax
   1078b:	48 8d 35 ce 23 00 00 	lea    0x23ce(%rip),%rsi        # 12b60 <g_2875+0xb04>
   10792:	48 89 c7             	mov    %rax,%rdi
   10795:	e8 f6 68 ff ff       	callq  7090 <strcmp@plt>
   1079a:	85 c0                	test   %eax,%eax
   1079c:	74 07                	je     107a5 <main+0x45>
   1079e:	c7 45 fc 01 00 00 00 	movl   $0x1,-0x4(%rbp)
   107a5:	e8 df 69 ff ff       	callq  7189 <platform_main_begin>
   107aa:	e8 e9 7d ff ff       	callq  8598 <crc32_gentab>
   107af:	e8 01 80 ff ff       	callq  87b5 <func_1>
   107b4:	8b 05 6a 48 00 00    	mov    0x486a(%rip),%eax        # 15024 <g_2>
   107ba:	48 98                	cltq   
   107bc:	8b 55 fc             	mov    -0x4(%rbp),%edx
   107bf:	48 8d 35 9c 23 00 00 	lea    0x239c(%rip),%rsi        # 12b62 <g_2875+0xb06>
   107c6:	48 89 c7             	mov    %rax,%rdi
   107c9:	e8 25 7f ff ff       	callq  86f3 <transparent_crc>
   107ce:	c7 45 f0 00 00 00 00 	movl   $0x0,-0x10(%rbp)
   107d5:	eb 4b                	jmp    10822 <main+0xc2>
   107d7:	8b 45 f0             	mov    -0x10(%rbp),%eax
   107da:	48 98                	cltq   
   107dc:	48 8d 14 85 00 00 00 	lea    0x0(,%rax,4),%rdx
   107e3:	00 
   107e4:	48 8d 05 45 48 00 00 	lea    0x4845(%rip),%rax        # 15030 <g_3>
   107eb:	8b 04 02             	mov    (%rdx,%rax,1),%eax
   107ee:	48 98                	cltq   
   107f0:	8b 55 fc             	mov    -0x4(%rbp),%edx
   107f3:	48 8d 35 6c 23 00 00 	lea    0x236c(%rip),%rsi        # 12b66 <g_2875+0xb0a>
   107fa:	48 89 c7             	mov    %rax,%rdi
   107fd:	e8 f1 7e ff ff       	callq  86f3 <transparent_crc>
   10802:	83 7d fc 00          	cmpl   $0x0,-0x4(%rbp)
   10806:	74 16                	je     1081e <main+0xbe>
   10808:	8b 45 f0             	mov    -0x10(%rbp),%eax
   1080b:	89 c6                	mov    %eax,%esi
   1080d:	48 8d 3d 59 23 00 00 	lea    0x2359(%rip),%rdi        # 12b6d <g_2875+0xb11>
   10814:	b8 00 00 00 00       	mov    $0x0,%eax
   10819:	e8 62 68 ff ff       	callq  7080 <printf@plt>
   1081e:	83 45 f0 01          	addl   $0x1,-0x10(%rbp)
   10822:	83 7d f0 03          	cmpl   $0x3,-0x10(%rbp)
   10826:	7e af                	jle    107d7 <main+0x77>
   10828:	c7 45 f0 00 00 00 00 	movl   $0x0,-0x10(%rbp)
   1082f:	e9 95 00 00 00       	jmpq   108c9 <main+0x169>
   10834:	c7 45 f4 00 00 00 00 	movl   $0x0,-0xc(%rbp)
   1083b:	eb 7e                	jmp    108bb <main+0x15b>
   1083d:	c7 45 f8 00 00 00 00 	movl   $0x0,-0x8(%rbp)
   10844:	eb 6b                	jmp    108b1 <main+0x151>
   10846:	8b 45 f8             	mov    -0x8(%rbp),%eax
   10849:	48 98                	cltq   
   1084b:	8b 55 f0             	mov    -0x10(%rbp),%edx
   1084e:	48 63 ca             	movslq %edx,%rcx
   10851:	8b 55 f4             	mov    -0xc(%rbp),%edx
   10854:	48 63 d2             	movslq %edx,%rdx
   10857:	48 c1 e1 03          	shl    $0x3,%rcx
   1085b:	48 01 ca             	add    %rcx,%rdx
   1085e:	48 c1 e2 02          	shl    $0x2,%rdx
   10862:	48 01 d0             	add    %rdx,%rax
   10865:	48 8d 14 85 00 00 00 	lea    0x0(,%rax,4),%rdx
   1086c:	00 
   1086d:	48 8d 05 cc 47 00 00 	lea    0x47cc(%rip),%rax        # 15040 <g_4>
   10874:	8b 04 02             	mov    (%rdx,%rax,1),%eax
   10877:	48 98                	cltq   
   10879:	8b 55 fc             	mov    -0x4(%rbp),%edx
   1087c:	48 8d 35 f8 22 00 00 	lea    0x22f8(%rip),%rsi        # 12b7b <g_2875+0xb1f>
   10883:	48 89 c7             	mov    %rax,%rdi
   10886:	e8 68 7e ff ff       	callq  86f3 <transparent_crc>
   1088b:	83 7d fc 00          	cmpl   $0x0,-0x4(%rbp)
   1088f:	74 1c                	je     108ad <main+0x14d>
   10891:	8b 4d f8             	mov    -0x8(%rbp),%ecx
   10894:	8b 55 f4             	mov    -0xc(%rbp),%edx
   10897:	8b 45 f0             	mov    -0x10(%rbp),%eax
   1089a:	89 c6                	mov    %eax,%esi
   1089c:	48 8d 3d e5 22 00 00 	lea    0x22e5(%rip),%rdi        # 12b88 <g_2875+0xb2c>
   108a3:	b8 00 00 00 00       	mov    $0x0,%eax
   108a8:	e8 d3 67 ff ff       	callq  7080 <printf@plt>
   108ad:	83 45 f8 01          	addl   $0x1,-0x8(%rbp)
   108b1:	83 7d f8 03          	cmpl   $0x3,-0x8(%rbp)
   108b5:	7e 8f                	jle    10846 <main+0xe6>
   108b7:	83 45 f4 01          	addl   $0x1,-0xc(%rbp)
   108bb:	83 7d f4 07          	cmpl   $0x7,-0xc(%rbp)
   108bf:	0f 8e 78 ff ff ff    	jle    1083d <main+0xdd>
   108c5:	83 45 f0 01          	addl   $0x1,-0x10(%rbp)
   108c9:	83 7d f0 04          	cmpl   $0x4,-0x10(%rbp)
   108cd:	0f 8e 61 ff ff ff    	jle    10834 <main+0xd4>
   108d3:	c7 45 f0 00 00 00 00 	movl   $0x0,-0x10(%rbp)
   108da:	eb 75                	jmp    10951 <main+0x1f1>
   108dc:	c7 45 f4 00 00 00 00 	movl   $0x0,-0xc(%rbp)
   108e3:	eb 62                	jmp    10947 <main+0x1e7>
   108e5:	8b 45 f4             	mov    -0xc(%rbp),%eax
   108e8:	48 63 c8             	movslq %eax,%rcx
   108eb:	8b 45 f0             	mov    -0x10(%rbp),%eax
   108ee:	48 63 d0             	movslq %eax,%rdx
   108f1:	48 89 d0             	mov    %rdx,%rax
   108f4:	48 c1 e0 03          	shl    $0x3,%rax
   108f8:	48 29 d0             	sub    %rdx,%rax
   108fb:	48 01 c8             	add    %rcx,%rax
   108fe:	48 8d 14 85 00 00 00 	lea    0x0(,%rax,4),%rdx
   10905:	00 
   10906:	48 8d 05 b3 49 00 00 	lea    0x49b3(%rip),%rax        # 152c0 <g_19>
   1090d:	8b 04 02             	mov    (%rdx,%rax,1),%eax
   10910:	48 98                	cltq   
   10912:	8b 55 fc             	mov    -0x4(%rbp),%edx
   10915:	48 8d 35 82 22 00 00 	lea    0x2282(%rip),%rsi        # 12b9e <g_2875+0xb42>
   1091c:	48 89 c7             	mov    %rax,%rdi
   1091f:	e8 cf 7d ff ff       	callq  86f3 <transparent_crc>
   10924:	83 7d fc 00          	cmpl   $0x0,-0x4(%rbp)
   10928:	74 19                	je     10943 <main+0x1e3>
   1092a:	8b 55 f4             	mov    -0xc(%rbp),%edx
   1092d:	8b 45 f0             	mov    -0x10(%rbp),%eax
   10930:	89 c6                	mov    %eax,%esi
   10932:	48 8d 3d 70 22 00 00 	lea    0x2270(%rip),%rdi        # 12ba9 <g_2875+0xb4d>
   10939:	b8 00 00 00 00       	mov    $0x0,%eax
   1093e:	e8 3d 67 ff ff       	callq  7080 <printf@plt>
   10943:	83 45 f4 01          	addl   $0x1,-0xc(%rbp)
   10947:	83 7d f4 06          	cmpl   $0x6,-0xc(%rbp)
   1094b:	7e 98                	jle    108e5 <main+0x185>
   1094d:	83 45 f0 01          	addl   $0x1,-0x10(%rbp)
   10951:	83 7d f0 05          	cmpl   $0x5,-0x10(%rbp)
   10955:	7e 85                	jle    108dc <main+0x17c>
   10957:	8b 05 0b 4a 00 00    	mov    0x4a0b(%rip),%eax        # 15368 <g_30>
   1095d:	89 c1                	mov    %eax,%ecx
   1095f:	8b 45 fc             	mov    -0x4(%rbp),%eax
   10962:	89 c2                	mov    %eax,%edx
   10964:	48 8d 35 50 22 00 00 	lea    0x2250(%rip),%rsi        # 12bbb <g_2875+0xb5f>
   1096b:	48 89 cf             	mov    %rcx,%rdi
   1096e:	e8 80 7d ff ff       	callq  86f3 <transparent_crc>
   10973:	c7 45 f0 00 00 00 00 	movl   $0x0,-0x10(%rbp)
   1097a:	e9 9f 00 00 00       	jmpq   10a1e <main+0x2be>
   1097f:	c7 45 f4 00 00 00 00 	movl   $0x0,-0xc(%rbp)
   10986:	e9 85 00 00 00       	jmpq   10a10 <main+0x2b0>
   1098b:	c7 45 f8 00 00 00 00 	movl   $0x0,-0x8(%rbp)
   10992:	eb 72                	jmp    10a06 <main+0x2a6>
   10994:	8b 45 f8             	mov    -0x8(%rbp),%eax
   10997:	48 63 c8             	movslq %eax,%rcx
   1099a:	8b 45 f0             	mov    -0x10(%rbp),%eax
   1099d:	48 98                	cltq   
   1099f:	8b 55 f4             	mov    -0xc(%rbp),%edx
   109a2:	48 63 d2             	movslq %edx,%rdx
   109a5:	48 6b f0 5a          	imul   $0x5a,%rax,%rsi
   109a9:	48 89 d0             	mov    %rdx,%rax
   109ac:	48 c1 e0 02          	shl    $0x2,%rax
   109b0:	48 01 d0             	add    %rdx,%rax
   109b3:	48 01 c0             	add    %rax,%rax
   109b6:	48 01 f0             	add    %rsi,%rax
   109b9:	48 01 c8             	add    %rcx,%rax
   109bc:	48 8d 14 00          	lea    (%rax,%rax,1),%rdx
   109c0:	48 8d 05 b9 49 00 00 	lea    0x49b9(%rip),%rax        # 15380 <g_31>
   109c7:	0f b7 04 02          	movzwl (%rdx,%rax,1),%eax
   109cb:	0f b7 c0             	movzwl %ax,%eax
   109ce:	8b 55 fc             	mov    -0x4(%rbp),%edx
   109d1:	48 8d 35 e8 21 00 00 	lea    0x21e8(%rip),%rsi        # 12bc0 <g_2875+0xb64>
   109d8:	48 89 c7             	mov    %rax,%rdi
   109db:	e8 13 7d ff ff       	callq  86f3 <transparent_crc>
   109e0:	83 7d fc 00          	cmpl   $0x0,-0x4(%rbp)
   109e4:	74 1c                	je     10a02 <main+0x2a2>
   109e6:	8b 4d f8             	mov    -0x8(%rbp),%ecx
   109e9:	8b 55 f4             	mov    -0xc(%rbp),%edx
   109ec:	8b 45 f0             	mov    -0x10(%rbp),%eax
   109ef:	89 c6                	mov    %eax,%esi
   109f1:	48 8d 3d 90 21 00 00 	lea    0x2190(%rip),%rdi        # 12b88 <g_2875+0xb2c>
   109f8:	b8 00 00 00 00       	mov    $0x0,%eax
   109fd:	e8 7e 66 ff ff       	callq  7080 <printf@plt>
   10a02:	83 45 f8 01          	addl   $0x1,-0x8(%rbp)
   10a06:	83 7d f8 09          	cmpl   $0x9,-0x8(%rbp)
   10a0a:	7e 88                	jle    10994 <main+0x234>
   10a0c:	83 45 f4 01          	addl   $0x1,-0xc(%rbp)
   10a10:	83 7d f4 08          	cmpl   $0x8,-0xc(%rbp)
   10a14:	0f 8e 71 ff ff ff    	jle    1098b <main+0x22b>
   10a1a:	83 45 f0 01          	addl   $0x1,-0x10(%rbp)
   10a1e:	83 7d f0 00          	cmpl   $0x0,-0x10(%rbp)
   10a22:	0f 8e 57 ff ff ff    	jle    1097f <main+0x21f>
   10a28:	8b 05 3a 7b 00 00    	mov    0x7b3a(%rip),%eax        # 18568 <g_34>
   10a2e:	48 98                	cltq   
   10a30:	8b 55 fc             	mov    -0x4(%rbp),%edx
   10a33:	48 8d 35 94 21 00 00 	lea    0x2194(%rip),%rsi        # 12bce <g_2875+0xb72>
   10a3a:	48 89 c7             	mov    %rax,%rdi
   10a3d:	e8 b1 7c ff ff       	callq  86f3 <transparent_crc>
   10a42:	8b 05 ec 49 00 00    	mov    0x49ec(%rip),%eax        # 15434 <g_36>
   10a48:	48 98                	cltq   
   10a4a:	8b 55 fc             	mov    -0x4(%rbp),%edx
   10a4d:	48 8d 35 7f 21 00 00 	lea    0x217f(%rip),%rsi        # 12bd3 <g_2875+0xb77>
   10a54:	48 89 c7             	mov    %rax,%rdi
   10a57:	e8 97 7c ff ff       	callq  86f3 <transparent_crc>
   10a5c:	48 8b 05 d5 49 00 00 	mov    0x49d5(%rip),%rax        # 15438 <g_85>
   10a63:	8b 55 fc             	mov    -0x4(%rbp),%edx
   10a66:	48 8d 35 6b 21 00 00 	lea    0x216b(%rip),%rsi        # 12bd8 <g_2875+0xb7c>
   10a6d:	48 89 c7             	mov    %rax,%rdi
   10a70:	e8 7e 7c ff ff       	callq  86f3 <transparent_crc>
   10a75:	0f b6 05 c4 49 00 00 	movzbl 0x49c4(%rip),%eax        # 15440 <g_91>
   10a7c:	0f b6 c0             	movzbl %al,%eax
   10a7f:	8b 55 fc             	mov    -0x4(%rbp),%edx
   10a82:	48 8d 35 54 21 00 00 	lea    0x2154(%rip),%rsi        # 12bdd <g_2875+0xb81>
   10a89:	48 89 c7             	mov    %rax,%rdi
   10a8c:	e8 62 7c ff ff       	callq  86f3 <transparent_crc>
   10a91:	0f b7 05 aa 49 00 00 	movzwl 0x49aa(%rip),%eax        # 15442 <g_103>
   10a98:	0f b7 c0             	movzwl %ax,%eax
   10a9b:	8b 55 fc             	mov    -0x4(%rbp),%edx
   10a9e:	48 8d 35 3d 21 00 00 	lea    0x213d(%rip),%rsi        # 12be2 <g_2875+0xb86>
   10aa5:	48 89 c7             	mov    %rax,%rdi
   10aa8:	e8 46 7c ff ff       	callq  86f3 <transparent_crc>
   10aad:	8b 05 91 49 00 00    	mov    0x4991(%rip),%eax        # 15444 <g_107>
   10ab3:	89 c1                	mov    %eax,%ecx
   10ab5:	8b 45 fc             	mov    -0x4(%rbp),%eax
   10ab8:	89 c2                	mov    %eax,%edx
   10aba:	48 8d 35 27 21 00 00 	lea    0x2127(%rip),%rsi        # 12be8 <g_2875+0xb8c>
   10ac1:	48 89 cf             	mov    %rcx,%rdi
   10ac4:	e8 2a 7c ff ff       	callq  86f3 <transparent_crc>
   10ac9:	0f b7 05 9c 7a 00 00 	movzwl 0x7a9c(%rip),%eax        # 1856c <g_110>
   10ad0:	48 0f bf c0          	movswq %ax,%rax
   10ad4:	8b 55 fc             	mov    -0x4(%rbp),%edx
   10ad7:	48 8d 35 10 21 00 00 	lea    0x2110(%rip),%rsi        # 12bee <g_2875+0xb92>
   10ade:	48 89 c7             	mov    %rax,%rdi
   10ae1:	e8 0d 7c ff ff       	callq  86f3 <transparent_crc>
   10ae6:	8b 05 5c 49 00 00    	mov    0x495c(%rip),%eax        # 15448 <g_164>
   10aec:	48 98                	cltq   
   10aee:	8b 55 fc             	mov    -0x4(%rbp),%edx
   10af1:	48 8d 35 fc 20 00 00 	lea    0x20fc(%rip),%rsi        # 12bf4 <g_2875+0xb98>
   10af8:	48 89 c7             	mov    %rax,%rdi
   10afb:	e8 f3 7b ff ff       	callq  86f3 <transparent_crc>
   10b00:	48 8b 05 49 49 00 00 	mov    0x4949(%rip),%rax        # 15450 <g_168>
   10b07:	48 89 c1             	mov    %rax,%rcx
   10b0a:	8b 45 fc             	mov    -0x4(%rbp),%eax
   10b0d:	89 c2                	mov    %eax,%edx
   10b0f:	48 8d 35 e4 20 00 00 	lea    0x20e4(%rip),%rsi        # 12bfa <g_2875+0xb9e>
   10b16:	48 89 cf             	mov    %rcx,%rdi
   10b19:	e8 d5 7b ff ff       	callq  86f3 <transparent_crc>
   10b1e:	0f b7 05 5b 7a 00 00 	movzwl 0x7a5b(%rip),%eax        # 18580 <g_169>
   10b25:	0f b7 c0             	movzwl %ax,%eax
   10b28:	8b 55 fc             	mov    -0x4(%rbp),%edx
   10b2b:	48 8d 35 ce 20 00 00 	lea    0x20ce(%rip),%rsi        # 12c00 <g_2875+0xba4>
   10b32:	48 89 c7             	mov    %rax,%rdi
   10b35:	e8 b9 7b ff ff       	callq  86f3 <transparent_crc>
   10b3a:	0f b7 05 17 49 00 00 	movzwl 0x4917(%rip),%eax        # 15458 <g_181>
   10b41:	0f b7 c0             	movzwl %ax,%eax
   10b44:	8b 55 fc             	mov    -0x4(%rbp),%edx
   10b47:	48 8d 35 b8 20 00 00 	lea    0x20b8(%rip),%rsi        # 12c06 <g_2875+0xbaa>
   10b4e:	48 89 c7             	mov    %rax,%rdi
   10b51:	e8 9d 7b ff ff       	callq  86f3 <transparent_crc>
   10b56:	0f b6 05 fd 48 00 00 	movzbl 0x48fd(%rip),%eax        # 1545a <g_196>
   10b5d:	48 0f be c0          	movsbq %al,%rax
   10b61:	8b 55 fc             	mov    -0x4(%rbp),%edx
   10b64:	48 8d 35 a1 20 00 00 	lea    0x20a1(%rip),%rsi        # 12c0c <g_2875+0xbb0>
   10b6b:	48 89 c7             	mov    %rax,%rdi
   10b6e:	e8 80 7b ff ff       	callq  86f3 <transparent_crc>
   10b73:	48 8b 05 e6 48 00 00 	mov    0x48e6(%rip),%rax        # 15460 <g_287>
   10b7a:	48 89 c1             	mov    %rax,%rcx
   10b7d:	8b 45 fc             	mov    -0x4(%rbp),%eax
   10b80:	89 c2                	mov    %eax,%edx
   10b82:	48 8d 35 89 20 00 00 	lea    0x2089(%rip),%rsi        # 12c12 <g_2875+0xbb6>
   10b89:	48 89 cf             	mov    %rcx,%rdi
   10b8c:	e8 62 7b ff ff       	callq  86f3 <transparent_crc>
   10b91:	c7 45 f0 00 00 00 00 	movl   $0x0,-0x10(%rbp)
   10b98:	eb 4d                	jmp    10be7 <main+0x487>
   10b9a:	8b 45 f0             	mov    -0x10(%rbp),%eax
   10b9d:	48 98                	cltq   
   10b9f:	48 8d 14 85 00 00 00 	lea    0x0(,%rax,4),%rdx
   10ba6:	00 
   10ba7:	48 8d 05 c2 48 00 00 	lea    0x48c2(%rip),%rax        # 15470 <g_289>
   10bae:	8b 04 02             	mov    (%rdx,%rax,1),%eax
   10bb1:	89 c1                	mov    %eax,%ecx
   10bb3:	8b 45 fc             	mov    -0x4(%rbp),%eax
   10bb6:	89 c2                	mov    %eax,%edx
   10bb8:	48 8d 35 59 20 00 00 	lea    0x2059(%rip),%rsi        # 12c18 <g_2875+0xbbc>
   10bbf:	48 89 cf             	mov    %rcx,%rdi
   10bc2:	e8 2c 7b ff ff       	callq  86f3 <transparent_crc>
   10bc7:	83 7d fc 00          	cmpl   $0x0,-0x4(%rbp)
   10bcb:	74 16                	je     10be3 <main+0x483>
   10bcd:	8b 45 f0             	mov    -0x10(%rbp),%eax
   10bd0:	89 c6                	mov    %eax,%esi
   10bd2:	48 8d 3d 94 1f 00 00 	lea    0x1f94(%rip),%rdi        # 12b6d <g_2875+0xb11>
   10bd9:	b8 00 00 00 00       	mov    $0x0,%eax
   10bde:	e8 9d 64 ff ff       	callq  7080 <printf@plt>
   10be3:	83 45 f0 01          	addl   $0x1,-0x10(%rbp)
   10be7:	83 7d f0 04          	cmpl   $0x4,-0x10(%rbp)
   10beb:	7e ad                	jle    10b9a <main+0x43a>
   10bed:	0f b6 05 90 48 00 00 	movzbl 0x4890(%rip),%eax        # 15484 <g_337>
   10bf4:	0f b6 c0             	movzbl %al,%eax
   10bf7:	8b 55 fc             	mov    -0x4(%rbp),%edx
   10bfa:	48 8d 35 20 20 00 00 	lea    0x2020(%rip),%rsi        # 12c21 <g_2875+0xbc5>
   10c01:	48 89 c7             	mov    %rax,%rdi
   10c04:	e8 ea 7a ff ff       	callq  86f3 <transparent_crc>
   10c09:	48 8b 05 78 48 00 00 	mov    0x4878(%rip),%rax        # 15488 <g_379>
   10c10:	8b 55 fc             	mov    -0x4(%rbp),%edx
   10c13:	48 8d 35 0d 20 00 00 	lea    0x200d(%rip),%rsi        # 12c27 <g_2875+0xbcb>
   10c1a:	48 89 c7             	mov    %rax,%rdi
   10c1d:	e8 d1 7a ff ff       	callq  86f3 <transparent_crc>
   10c22:	0f b6 05 67 48 00 00 	movzbl 0x4867(%rip),%eax        # 15490 <g_389>
   10c29:	0f b6 c0             	movzbl %al,%eax
   10c2c:	8b 55 fc             	mov    -0x4(%rbp),%edx
   10c2f:	48 8d 35 f7 1f 00 00 	lea    0x1ff7(%rip),%rsi        # 12c2d <g_2875+0xbd1>
   10c36:	48 89 c7             	mov    %rax,%rdi
   10c39:	e8 b5 7a ff ff       	callq  86f3 <transparent_crc>
   10c3e:	c7 45 f0 00 00 00 00 	movl   $0x0,-0x10(%rbp)
   10c45:	e9 b5 00 00 00       	jmpq   10cff <main+0x59f>
   10c4a:	c7 45 f4 00 00 00 00 	movl   $0x0,-0xc(%rbp)
   10c51:	e9 9b 00 00 00       	jmpq   10cf1 <main+0x591>
   10c56:	c7 45 f8 00 00 00 00 	movl   $0x0,-0x8(%rbp)
   10c5d:	e9 81 00 00 00       	jmpq   10ce3 <main+0x583>
   10c62:	8b 45 f8             	mov    -0x8(%rbp),%eax
   10c65:	48 63 f0             	movslq %eax,%rsi
   10c68:	8b 45 f0             	mov    -0x10(%rbp),%eax
   10c6b:	48 98                	cltq   
   10c6d:	8b 55 f4             	mov    -0xc(%rbp),%edx
   10c70:	48 63 ca             	movslq %edx,%rcx
   10c73:	48 89 c2             	mov    %rax,%rdx
   10c76:	48 c1 e2 04          	shl    $0x4,%rdx
   10c7a:	48 29 c2             	sub    %rax,%rdx
   10c7d:	48 8d 04 95 00 00 00 	lea    0x0(,%rdx,4),%rax
   10c84:	00 
   10c85:	48 89 c2             	mov    %rax,%rdx
   10c88:	48 89 c8             	mov    %rcx,%rax
   10c8b:	48 01 c0             	add    %rax,%rax
   10c8e:	48 01 c8             	add    %rcx,%rax
   10c91:	48 01 c0             	add    %rax,%rax
   10c94:	48 01 d0             	add    %rdx,%rax
   10c97:	48 8d 14 30          	lea    (%rax,%rsi,1),%rdx
   10c9b:	48 8d 05 fe 47 00 00 	lea    0x47fe(%rip),%rax        # 154a0 <g_511>
   10ca2:	48 01 d0             	add    %rdx,%rax
   10ca5:	0f b6 00             	movzbl (%rax),%eax
   10ca8:	0f b6 c0             	movzbl %al,%eax
   10cab:	8b 55 fc             	mov    -0x4(%rbp),%edx
   10cae:	48 8d 35 7e 1f 00 00 	lea    0x1f7e(%rip),%rsi        # 12c33 <g_2875+0xbd7>
   10cb5:	48 89 c7             	mov    %rax,%rdi
   10cb8:	e8 36 7a ff ff       	callq  86f3 <transparent_crc>
   10cbd:	83 7d fc 00          	cmpl   $0x0,-0x4(%rbp)
   10cc1:	74 1c                	je     10cdf <main+0x57f>
   10cc3:	8b 4d f8             	mov    -0x8(%rbp),%ecx
   10cc6:	8b 55 f4             	mov    -0xc(%rbp),%edx
   10cc9:	8b 45 f0             	mov    -0x10(%rbp),%eax
   10ccc:	89 c6                	mov    %eax,%esi
   10cce:	48 8d 3d b3 1e 00 00 	lea    0x1eb3(%rip),%rdi        # 12b88 <g_2875+0xb2c>
   10cd5:	b8 00 00 00 00       	mov    $0x0,%eax
   10cda:	e8 a1 63 ff ff       	callq  7080 <printf@plt>
   10cdf:	83 45 f8 01          	addl   $0x1,-0x8(%rbp)
   10ce3:	83 7d f8 05          	cmpl   $0x5,-0x8(%rbp)
   10ce7:	0f 8e 75 ff ff ff    	jle    10c62 <main+0x502>
   10ced:	83 45 f4 01          	addl   $0x1,-0xc(%rbp)
   10cf1:	83 7d f4 09          	cmpl   $0x9,-0xc(%rbp)
   10cf5:	0f 8e 5b ff ff ff    	jle    10c56 <main+0x4f6>
   10cfb:	83 45 f0 01          	addl   $0x1,-0x10(%rbp)
   10cff:	83 7d f0 03          	cmpl   $0x3,-0x10(%rbp)
   10d03:	0f 8e 41 ff ff ff    	jle    10c4a <main+0x4ea>
   10d09:	c7 45 f0 00 00 00 00 	movl   $0x0,-0x10(%rbp)
   10d10:	e9 af 00 00 00       	jmpq   10dc4 <main+0x664>
   10d15:	c7 45 f4 00 00 00 00 	movl   $0x0,-0xc(%rbp)
   10d1c:	e9 95 00 00 00       	jmpq   10db6 <main+0x656>
   10d21:	c7 45 f8 00 00 00 00 	movl   $0x0,-0x8(%rbp)
   10d28:	eb 7e                	jmp    10da8 <main+0x648>
   10d2a:	8b 45 f8             	mov    -0x8(%rbp),%eax
   10d2d:	48 63 f0             	movslq %eax,%rsi
   10d30:	8b 45 f0             	mov    -0x10(%rbp),%eax
   10d33:	48 63 d0             	movslq %eax,%rdx
   10d36:	8b 45 f4             	mov    -0xc(%rbp),%eax
   10d39:	48 63 c8             	movslq %eax,%rcx
   10d3c:	48 89 d0             	mov    %rdx,%rax
   10d3f:	48 01 c0             	add    %rax,%rax
   10d42:	48 01 d0             	add    %rdx,%rax
   10d45:	48 c1 e0 02          	shl    $0x2,%rax
   10d49:	48 89 ca             	mov    %rcx,%rdx
   10d4c:	48 01 d2             	add    %rdx,%rdx
   10d4f:	48 01 ca             	add    %rcx,%rdx
   10d52:	48 01 d0             	add    %rdx,%rax
   10d55:	48 01 f0             	add    %rsi,%rax
   10d58:	48 8d 14 c5 00 00 00 	lea    0x0(,%rax,8),%rdx
   10d5f:	00 
   10d60:	48 8d 05 39 48 00 00 	lea    0x4839(%rip),%rax        # 155a0 <g_569>
   10d67:	48 8b 04 02          	mov    (%rdx,%rax,1),%rax
   10d6b:	48 89 c1             	mov    %rax,%rcx
   10d6e:	8b 45 fc             	mov    -0x4(%rbp),%eax
   10d71:	89 c2                	mov    %eax,%edx
   10d73:	48 8d 35 c8 1e 00 00 	lea    0x1ec8(%rip),%rsi        # 12c42 <g_2875+0xbe6>
   10d7a:	48 89 cf             	mov    %rcx,%rdi
   10d7d:	e8 71 79 ff ff       	callq  86f3 <transparent_crc>
   10d82:	83 7d fc 00          	cmpl   $0x0,-0x4(%rbp)
   10d86:	74 1c                	je     10da4 <main+0x644>
   10d88:	8b 4d f8             	mov    -0x8(%rbp),%ecx
   10d8b:	8b 55 f4             	mov    -0xc(%rbp),%edx
   10d8e:	8b 45 f0             	mov    -0x10(%rbp),%eax
   10d91:	89 c6                	mov    %eax,%esi
   10d93:	48 8d 3d ee 1d 00 00 	lea    0x1dee(%rip),%rdi        # 12b88 <g_2875+0xb2c>
   10d9a:	b8 00 00 00 00       	mov    $0x0,%eax
   10d9f:	e8 dc 62 ff ff       	callq  7080 <printf@plt>
   10da4:	83 45 f8 01          	addl   $0x1,-0x8(%rbp)
   10da8:	83 7d f8 02          	cmpl   $0x2,-0x8(%rbp)
   10dac:	0f 8e 78 ff ff ff    	jle    10d2a <main+0x5ca>
   10db2:	83 45 f4 01          	addl   $0x1,-0xc(%rbp)
   10db6:	83 7d f4 03          	cmpl   $0x3,-0xc(%rbp)
   10dba:	0f 8e 61 ff ff ff    	jle    10d21 <main+0x5c1>
   10dc0:	83 45 f0 01          	addl   $0x1,-0x10(%rbp)
   10dc4:	83 7d f0 06          	cmpl   $0x6,-0x10(%rbp)
   10dc8:	0f 8e 47 ff ff ff    	jle    10d15 <main+0x5b5>
   10dce:	48 8b 05 6b 4a 00 00 	mov    0x4a6b(%rip),%rax        # 15840 <g_574>
   10dd5:	48 89 c1             	mov    %rax,%rcx
   10dd8:	8b 45 fc             	mov    -0x4(%rbp),%eax
   10ddb:	89 c2                	mov    %eax,%edx
   10ddd:	48 8d 35 6d 1e 00 00 	lea    0x1e6d(%rip),%rsi        # 12c51 <g_2875+0xbf5>
   10de4:	48 89 cf             	mov    %rcx,%rdi
   10de7:	e8 07 79 ff ff       	callq  86f3 <transparent_crc>
   10dec:	c7 45 f0 00 00 00 00 	movl   $0x0,-0x10(%rbp)
   10df3:	eb 6a                	jmp    10e5f <main+0x6ff>
   10df5:	c7 45 f4 00 00 00 00 	movl   $0x0,-0xc(%rbp)
   10dfc:	eb 57                	jmp    10e55 <main+0x6f5>
   10dfe:	8b 45 f4             	mov    -0xc(%rbp),%eax
   10e01:	48 63 d0             	movslq %eax,%rdx
   10e04:	8b 45 f0             	mov    -0x10(%rbp),%eax
   10e07:	48 98                	cltq   
   10e09:	48 01 d0             	add    %rdx,%rax
   10e0c:	48 8d 14 85 00 00 00 	lea    0x0(,%rax,4),%rdx
   10e13:	00 
   10e14:	48 8d 05 45 4a 00 00 	lea    0x4a45(%rip),%rax        # 15860 <g_670>
   10e1b:	8b 04 02             	mov    (%rdx,%rax,1),%eax
   10e1e:	48 98                	cltq   
   10e20:	8b 55 fc             	mov    -0x4(%rbp),%edx
   10e23:	48 8d 35 2d 1e 00 00 	lea    0x1e2d(%rip),%rsi        # 12c57 <g_2875+0xbfb>
   10e2a:	48 89 c7             	mov    %rax,%rdi
   10e2d:	e8 c1 78 ff ff       	callq  86f3 <transparent_crc>
   10e32:	83 7d fc 00          	cmpl   $0x0,-0x4(%rbp)
   10e36:	74 19                	je     10e51 <main+0x6f1>
   10e38:	8b 55 f4             	mov    -0xc(%rbp),%edx
   10e3b:	8b 45 f0             	mov    -0x10(%rbp),%eax
   10e3e:	89 c6                	mov    %eax,%esi
   10e40:	48 8d 3d 62 1d 00 00 	lea    0x1d62(%rip),%rdi        # 12ba9 <g_2875+0xb4d>
   10e47:	b8 00 00 00 00       	mov    $0x0,%eax
   10e4c:	e8 2f 62 ff ff       	callq  7080 <printf@plt>
   10e51:	83 45 f4 01          	addl   $0x1,-0xc(%rbp)
   10e55:	83 7d f4 00          	cmpl   $0x0,-0xc(%rbp)
   10e59:	7e a3                	jle    10dfe <main+0x69e>
   10e5b:	83 45 f0 01          	addl   $0x1,-0x10(%rbp)
   10e5f:	83 7d f0 07          	cmpl   $0x7,-0x10(%rbp)
   10e63:	7e 90                	jle    10df5 <main+0x695>
   10e65:	8b 05 15 4a 00 00    	mov    0x4a15(%rip),%eax        # 15880 <g_694>
   10e6b:	89 c1                	mov    %eax,%ecx
   10e6d:	8b 45 fc             	mov    -0x4(%rbp),%eax
   10e70:	89 c2                	mov    %eax,%edx
   10e72:	48 8d 35 ea 1d 00 00 	lea    0x1dea(%rip),%rsi        # 12c63 <g_2875+0xc07>
   10e79:	48 89 cf             	mov    %rcx,%rdi
   10e7c:	e8 72 78 ff ff       	callq  86f3 <transparent_crc>
   10e81:	8b 05 fd 49 00 00    	mov    0x49fd(%rip),%eax        # 15884 <g_701>
   10e87:	89 c1                	mov    %eax,%ecx
   10e89:	8b 45 fc             	mov    -0x4(%rbp),%eax
   10e8c:	89 c2                	mov    %eax,%edx
   10e8e:	48 8d 35 d4 1d 00 00 	lea    0x1dd4(%rip),%rsi        # 12c69 <g_2875+0xc0d>
   10e95:	48 89 cf             	mov    %rcx,%rdi
   10e98:	e8 56 78 ff ff       	callq  86f3 <transparent_crc>
   10e9d:	0f b6 05 ec 76 00 00 	movzbl 0x76ec(%rip),%eax        # 18590 <g_756>
   10ea4:	0f b6 c0             	movzbl %al,%eax
   10ea7:	8b 55 fc             	mov    -0x4(%rbp),%edx
   10eaa:	48 8d 35 be 1d 00 00 	lea    0x1dbe(%rip),%rsi        # 12c6f <g_2875+0xc13>
   10eb1:	48 89 c7             	mov    %rax,%rdi
   10eb4:	e8 3a 78 ff ff       	callq  86f3 <transparent_crc>
   10eb9:	8b 05 d5 76 00 00    	mov    0x76d5(%rip),%eax        # 18594 <g_760>
   10ebf:	48 98                	cltq   
   10ec1:	8b 55 fc             	mov    -0x4(%rbp),%edx
   10ec4:	48 8d 35 aa 1d 00 00 	lea    0x1daa(%rip),%rsi        # 12c75 <g_2875+0xc19>
   10ecb:	48 89 c7             	mov    %rax,%rdi
   10ece:	e8 20 78 ff ff       	callq  86f3 <transparent_crc>
   10ed3:	c7 45 f0 00 00 00 00 	movl   $0x0,-0x10(%rbp)
   10eda:	eb 45                	jmp    10f21 <main+0x7c1>
   10edc:	8b 45 f0             	mov    -0x10(%rbp),%eax
   10edf:	48 98                	cltq   
   10ee1:	48 8d 15 a0 49 00 00 	lea    0x49a0(%rip),%rdx        # 15888 <g_825>
   10ee8:	0f b6 04 10          	movzbl (%rax,%rdx,1),%eax
   10eec:	0f b6 c0             	movzbl %al,%eax
   10eef:	8b 55 fc             	mov    -0x4(%rbp),%edx
   10ef2:	48 8d 35 82 1d 00 00 	lea    0x1d82(%rip),%rsi        # 12c7b <g_2875+0xc1f>
   10ef9:	48 89 c7             	mov    %rax,%rdi
   10efc:	e8 f2 77 ff ff       	callq  86f3 <transparent_crc>
   10f01:	83 7d fc 00          	cmpl   $0x0,-0x4(%rbp)
   10f05:	74 16                	je     10f1d <main+0x7bd>
   10f07:	8b 45 f0             	mov    -0x10(%rbp),%eax
   10f0a:	89 c6                	mov    %eax,%esi
   10f0c:	48 8d 3d 5a 1c 00 00 	lea    0x1c5a(%rip),%rdi        # 12b6d <g_2875+0xb11>
   10f13:	b8 00 00 00 00       	mov    $0x0,%eax
   10f18:	e8 63 61 ff ff       	callq  7080 <printf@plt>
   10f1d:	83 45 f0 01          	addl   $0x1,-0x10(%rbp)
   10f21:	83 7d f0 08          	cmpl   $0x8,-0x10(%rbp)
   10f25:	7e b5                	jle    10edc <main+0x77c>
   10f27:	8b 05 67 49 00 00    	mov    0x4967(%rip),%eax        # 15894 <g_831>
   10f2d:	48 98                	cltq   
   10f2f:	8b 55 fc             	mov    -0x4(%rbp),%edx
   10f32:	48 8d 35 4b 1d 00 00 	lea    0x1d4b(%rip),%rsi        # 12c84 <g_2875+0xc28>
   10f39:	48 89 c7             	mov    %rax,%rdi
   10f3c:	e8 b2 77 ff ff       	callq  86f3 <transparent_crc>
   10f41:	c7 45 f0 00 00 00 00 	movl   $0x0,-0x10(%rbp)
   10f48:	eb 4d                	jmp    10f97 <main+0x837>
   10f4a:	8b 45 f0             	mov    -0x10(%rbp),%eax
   10f4d:	48 98                	cltq   
   10f4f:	48 8d 14 85 00 00 00 	lea    0x0(,%rax,4),%rdx
   10f56:	00 
   10f57:	48 8d 05 42 49 00 00 	lea    0x4942(%rip),%rax        # 158a0 <g_872>
   10f5e:	8b 04 02             	mov    (%rdx,%rax,1),%eax
   10f61:	89 c1                	mov    %eax,%ecx
   10f63:	8b 45 fc             	mov    -0x4(%rbp),%eax
   10f66:	89 c2                	mov    %eax,%edx
   10f68:	48 8d 35 1b 1d 00 00 	lea    0x1d1b(%rip),%rsi        # 12c8a <g_2875+0xc2e>
   10f6f:	48 89 cf             	mov    %rcx,%rdi
   10f72:	e8 7c 77 ff ff       	callq  86f3 <transparent_crc>
   10f77:	83 7d fc 00          	cmpl   $0x0,-0x4(%rbp)
   10f7b:	74 16                	je     10f93 <main+0x833>
   10f7d:	8b 45 f0             	mov    -0x10(%rbp),%eax
   10f80:	89 c6                	mov    %eax,%esi
   10f82:	48 8d 3d e4 1b 00 00 	lea    0x1be4(%rip),%rdi        # 12b6d <g_2875+0xb11>
   10f89:	b8 00 00 00 00       	mov    $0x0,%eax
   10f8e:	e8 ed 60 ff ff       	callq  7080 <printf@plt>
   10f93:	83 45 f0 01          	addl   $0x1,-0x10(%rbp)
   10f97:	83 7d f0 06          	cmpl   $0x6,-0x10(%rbp)
   10f9b:	7e ad                	jle    10f4a <main+0x7ea>
   10f9d:	b8 99 50 a2 f0       	mov    $0xf0a25099,%eax
   10fa2:	48 98                	cltq   
   10fa4:	8b 55 fc             	mov    -0x4(%rbp),%edx
   10fa7:	48 8d 35 e5 1c 00 00 	lea    0x1ce5(%rip),%rsi        # 12c93 <g_2875+0xc37>
   10fae:	48 89 c7             	mov    %rax,%rdi
   10fb1:	e8 3d 77 ff ff       	callq  86f3 <transparent_crc>
   10fb6:	0f b6 05 ff 48 00 00 	movzbl 0x48ff(%rip),%eax        # 158bc <g_922>
   10fbd:	48 0f be c0          	movsbq %al,%rax
   10fc1:	8b 55 fc             	mov    -0x4(%rbp),%edx
   10fc4:	48 8d 35 ce 1c 00 00 	lea    0x1cce(%rip),%rsi        # 12c99 <g_2875+0xc3d>
   10fcb:	48 89 c7             	mov    %rax,%rdi
   10fce:	e8 20 77 ff ff       	callq  86f3 <transparent_crc>
   10fd3:	0f b6 05 e3 48 00 00 	movzbl 0x48e3(%rip),%eax        # 158bd <g_947>
   10fda:	0f b6 c0             	movzbl %al,%eax
   10fdd:	8b 55 fc             	mov    -0x4(%rbp),%edx
   10fe0:	48 8d 35 b8 1c 00 00 	lea    0x1cb8(%rip),%rsi        # 12c9f <g_2875+0xc43>
   10fe7:	48 89 c7             	mov    %rax,%rdi
   10fea:	e8 04 77 ff ff       	callq  86f3 <transparent_crc>
   10fef:	8b 05 cb 48 00 00    	mov    0x48cb(%rip),%eax        # 158c0 <g_1043>
   10ff5:	89 c1                	mov    %eax,%ecx
   10ff7:	8b 45 fc             	mov    -0x4(%rbp),%eax
   10ffa:	89 c2                	mov    %eax,%edx
   10ffc:	48 8d 35 a2 1c 00 00 	lea    0x1ca2(%rip),%rsi        # 12ca5 <g_2875+0xc49>
   11003:	48 89 cf             	mov    %rcx,%rdi
   11006:	e8 e8 76 ff ff       	callq  86f3 <transparent_crc>
   1100b:	b8 08 00 00 00       	mov    $0x8,%eax
   11010:	0f b6 c0             	movzbl %al,%eax
   11013:	8b 55 fc             	mov    -0x4(%rbp),%edx
   11016:	48 8d 35 8f 1c 00 00 	lea    0x1c8f(%rip),%rsi        # 12cac <g_2875+0xc50>
   1101d:	48 89 c7             	mov    %rax,%rdi
   11020:	e8 ce 76 ff ff       	callq  86f3 <transparent_crc>
   11025:	8b 05 99 48 00 00    	mov    0x4899(%rip),%eax        # 158c4 <g_1161>
   1102b:	89 c1                	mov    %eax,%ecx
   1102d:	8b 45 fc             	mov    -0x4(%rbp),%eax
   11030:	89 c2                	mov    %eax,%edx
   11032:	48 8d 35 7a 1c 00 00 	lea    0x1c7a(%rip),%rsi        # 12cb3 <g_2875+0xc57>
   11039:	48 89 cf             	mov    %rcx,%rdi
   1103c:	e8 b2 76 ff ff       	callq  86f3 <transparent_crc>
   11041:	0f b6 05 80 48 00 00 	movzbl 0x4880(%rip),%eax        # 158c8 <g_1316>
   11048:	48 0f be c0          	movsbq %al,%rax
   1104c:	8b 55 fc             	mov    -0x4(%rbp),%edx
   1104f:	48 8d 35 64 1c 00 00 	lea    0x1c64(%rip),%rsi        # 12cba <g_2875+0xc5e>
   11056:	48 89 c7             	mov    %rax,%rdi
   11059:	e8 95 76 ff ff       	callq  86f3 <transparent_crc>
   1105e:	0f b6 05 64 48 00 00 	movzbl 0x4864(%rip),%eax        # 158c9 <g_1342>
   11065:	48 0f be c0          	movsbq %al,%rax
   11069:	8b 55 fc             	mov    -0x4(%rbp),%edx
   1106c:	48 8d 35 4e 1c 00 00 	lea    0x1c4e(%rip),%rsi        # 12cc1 <g_2875+0xc65>
   11073:	48 89 c7             	mov    %rax,%rdi
   11076:	e8 78 76 ff ff       	callq  86f3 <transparent_crc>
   1107b:	c7 45 f0 00 00 00 00 	movl   $0x0,-0x10(%rbp)
   11082:	eb 4a                	jmp    110ce <main+0x96e>
   11084:	8b 45 f0             	mov    -0x10(%rbp),%eax
   11087:	48 98                	cltq   
   11089:	48 8d 14 00          	lea    (%rax,%rax,1),%rdx
   1108d:	48 8d 05 3c 48 00 00 	lea    0x483c(%rip),%rax        # 158d0 <g_1399>
   11094:	0f b7 04 02          	movzwl (%rdx,%rax,1),%eax
   11098:	48 0f bf c0          	movswq %ax,%rax
   1109c:	8b 55 fc             	mov    -0x4(%rbp),%edx
   1109f:	48 8d 35 22 1c 00 00 	lea    0x1c22(%rip),%rsi        # 12cc8 <g_2875+0xc6c>
   110a6:	48 89 c7             	mov    %rax,%rdi
   110a9:	e8 45 76 ff ff       	callq  86f3 <transparent_crc>
   110ae:	83 7d fc 00          	cmpl   $0x0,-0x4(%rbp)
   110b2:	74 16                	je     110ca <main+0x96a>
   110b4:	8b 45 f0             	mov    -0x10(%rbp),%eax
   110b7:	89 c6                	mov    %eax,%esi
   110b9:	48 8d 3d ad 1a 00 00 	lea    0x1aad(%rip),%rdi        # 12b6d <g_2875+0xb11>
   110c0:	b8 00 00 00 00       	mov    $0x0,%eax
   110c5:	e8 b6 5f ff ff       	callq  7080 <printf@plt>
   110ca:	83 45 f0 01          	addl   $0x1,-0x10(%rbp)
   110ce:	83 7d f0 09          	cmpl   $0x9,-0x10(%rbp)
   110d2:	7e b0                	jle    11084 <main+0x924>
   110d4:	0f b7 05 c5 74 00 00 	movzwl 0x74c5(%rip),%eax        # 185a0 <g_1529>
   110db:	48 0f bf c0          	movswq %ax,%rax
   110df:	8b 55 fc             	mov    -0x4(%rbp),%edx
   110e2:	48 8d 35 e9 1b 00 00 	lea    0x1be9(%rip),%rsi        # 12cd2 <g_2875+0xc76>
   110e9:	48 89 c7             	mov    %rax,%rdi
   110ec:	e8 02 76 ff ff       	callq  86f3 <transparent_crc>
   110f1:	c7 45 f0 00 00 00 00 	movl   $0x0,-0x10(%rbp)
   110f8:	eb 4a                	jmp    11144 <main+0x9e4>
   110fa:	8b 45 f0             	mov    -0x10(%rbp),%eax
   110fd:	48 98                	cltq   
   110ff:	48 8d 14 c5 00 00 00 	lea    0x0(,%rax,8),%rdx
   11106:	00 
   11107:	48 8d 05 da 47 00 00 	lea    0x47da(%rip),%rax        # 158e8 <g_1583>
   1110e:	48 8b 04 02          	mov    (%rdx,%rax,1),%rax
   11112:	8b 55 fc             	mov    -0x4(%rbp),%edx
   11115:	48 8d 35 bd 1b 00 00 	lea    0x1bbd(%rip),%rsi        # 12cd9 <g_2875+0xc7d>
   1111c:	48 89 c7             	mov    %rax,%rdi
   1111f:	e8 cf 75 ff ff       	callq  86f3 <transparent_crc>
   11124:	83 7d fc 00          	cmpl   $0x0,-0x4(%rbp)
   11128:	74 16                	je     11140 <main+0x9e0>
   1112a:	8b 45 f0             	mov    -0x10(%rbp),%eax
   1112d:	89 c6                	mov    %eax,%esi
   1112f:	48 8d 3d 37 1a 00 00 	lea    0x1a37(%rip),%rdi        # 12b6d <g_2875+0xb11>
   11136:	b8 00 00 00 00       	mov    $0x0,%eax
   1113b:	e8 40 5f ff ff       	callq  7080 <printf@plt>
   11140:	83 45 f0 01          	addl   $0x1,-0x10(%rbp)
   11144:	83 7d f0 00          	cmpl   $0x0,-0x10(%rbp)
   11148:	7e b0                	jle    110fa <main+0x99a>
   1114a:	0f b7 05 9f 47 00 00 	movzwl 0x479f(%rip),%eax        # 158f0 <g_1627>
   11151:	48 0f bf c0          	movswq %ax,%rax
   11155:	8b 55 fc             	mov    -0x4(%rbp),%edx
   11158:	48 8d 35 84 1b 00 00 	lea    0x1b84(%rip),%rsi        # 12ce3 <g_2875+0xc87>
   1115f:	48 89 c7             	mov    %rax,%rdi
   11162:	e8 8c 75 ff ff       	callq  86f3 <transparent_crc>
   11167:	8b 05 87 47 00 00    	mov    0x4787(%rip),%eax        # 158f4 <g_1775>
   1116d:	48 98                	cltq   
   1116f:	8b 55 fc             	mov    -0x4(%rbp),%edx
   11172:	48 8d 35 71 1b 00 00 	lea    0x1b71(%rip),%rsi        # 12cea <g_2875+0xc8e>
   11179:	48 89 c7             	mov    %rax,%rdi
   1117c:	e8 72 75 ff ff       	callq  86f3 <transparent_crc>
   11181:	0f b6 05 70 47 00 00 	movzbl 0x4770(%rip),%eax        # 158f8 <g_1842>
   11188:	48 0f be c0          	movsbq %al,%rax
   1118c:	8b 55 fc             	mov    -0x4(%rbp),%edx
   1118f:	48 8d 35 5b 1b 00 00 	lea    0x1b5b(%rip),%rsi        # 12cf1 <g_2875+0xc95>
   11196:	48 89 c7             	mov    %rax,%rdi
   11199:	e8 55 75 ff ff       	callq  86f3 <transparent_crc>
   1119e:	48 8b 05 5b 47 00 00 	mov    0x475b(%rip),%rax        # 15900 <g_1944>
   111a5:	48 89 c1             	mov    %rax,%rcx
   111a8:	8b 45 fc             	mov    -0x4(%rbp),%eax
   111ab:	89 c2                	mov    %eax,%edx
   111ad:	48 8d 35 44 1b 00 00 	lea    0x1b44(%rip),%rsi        # 12cf8 <g_2875+0xc9c>
   111b4:	48 89 cf             	mov    %rcx,%rdi
   111b7:	e8 37 75 ff ff       	callq  86f3 <transparent_crc>
   111bc:	8b 05 46 47 00 00    	mov    0x4746(%rip),%eax        # 15908 <g_1970>
   111c2:	48 98                	cltq   
   111c4:	8b 55 fc             	mov    -0x4(%rbp),%edx
   111c7:	48 8d 35 31 1b 00 00 	lea    0x1b31(%rip),%rsi        # 12cff <g_2875+0xca3>
   111ce:	48 89 c7             	mov    %rax,%rdi
   111d1:	e8 1d 75 ff ff       	callq  86f3 <transparent_crc>
   111d6:	c7 45 f0 00 00 00 00 	movl   $0x0,-0x10(%rbp)
   111dd:	eb 4a                	jmp    11229 <main+0xac9>
   111df:	8b 45 f0             	mov    -0x10(%rbp),%eax
   111e2:	48 98                	cltq   
   111e4:	48 8d 14 c5 00 00 00 	lea    0x0(,%rax,8),%rdx
   111eb:	00 
   111ec:	48 8d 05 1d 47 00 00 	lea    0x471d(%rip),%rax        # 15910 <g_2097>
   111f3:	48 8b 04 02          	mov    (%rdx,%rax,1),%rax
   111f7:	8b 55 fc             	mov    -0x4(%rbp),%edx
   111fa:	48 8d 35 05 1b 00 00 	lea    0x1b05(%rip),%rsi        # 12d06 <g_2875+0xcaa>
   11201:	48 89 c7             	mov    %rax,%rdi
   11204:	e8 ea 74 ff ff       	callq  86f3 <transparent_crc>
   11209:	83 7d fc 00          	cmpl   $0x0,-0x4(%rbp)
   1120d:	74 16                	je     11225 <main+0xac5>
   1120f:	8b 45 f0             	mov    -0x10(%rbp),%eax
   11212:	89 c6                	mov    %eax,%esi
   11214:	48 8d 3d 52 19 00 00 	lea    0x1952(%rip),%rdi        # 12b6d <g_2875+0xb11>
   1121b:	b8 00 00 00 00       	mov    $0x0,%eax
   11220:	e8 5b 5e ff ff       	callq  7080 <printf@plt>
   11225:	83 45 f0 01          	addl   $0x1,-0x10(%rbp)
   11229:	83 7d f0 02          	cmpl   $0x2,-0x10(%rbp)
   1122d:	7e b0                	jle    111df <main+0xa7f>
   1122f:	48 8b 05 fa 46 00 00 	mov    0x46fa(%rip),%rax        # 15930 <g_2439>
   11236:	8b 55 fc             	mov    -0x4(%rbp),%edx
   11239:	48 8d 35 d0 1a 00 00 	lea    0x1ad0(%rip),%rsi        # 12d10 <g_2875+0xcb4>
   11240:	48 89 c7             	mov    %rax,%rdi
   11243:	e8 ab 74 ff ff       	callq  86f3 <transparent_crc>
   11248:	c7 45 f0 00 00 00 00 	movl   $0x0,-0x10(%rbp)
   1124f:	eb 74                	jmp    112c5 <main+0xb65>
   11251:	c7 45 f4 00 00 00 00 	movl   $0x0,-0xc(%rbp)
   11258:	eb 61                	jmp    112bb <main+0xb5b>
   1125a:	8b 45 f4             	mov    -0xc(%rbp),%eax
   1125d:	48 63 c8             	movslq %eax,%rcx
   11260:	8b 45 f0             	mov    -0x10(%rbp),%eax
   11263:	48 63 d0             	movslq %eax,%rdx
   11266:	48 89 d0             	mov    %rdx,%rax
   11269:	48 c1 e0 03          	shl    $0x3,%rax
   1126d:	48 29 d0             	sub    %rdx,%rax
   11270:	48 01 c8             	add    %rcx,%rax
   11273:	48 8d 14 c5 00 00 00 	lea    0x0(,%rax,8),%rdx
   1127a:	00 
   1127b:	48 8d 05 be 46 00 00 	lea    0x46be(%rip),%rax        # 15940 <g_2465>
   11282:	48 8b 04 02          	mov    (%rdx,%rax,1),%rax
   11286:	8b 55 fc             	mov    -0x4(%rbp),%edx
   11289:	48 8d 35 87 1a 00 00 	lea    0x1a87(%rip),%rsi        # 12d17 <g_2875+0xcbb>
   11290:	48 89 c7             	mov    %rax,%rdi
   11293:	e8 5b 74 ff ff       	callq  86f3 <transparent_crc>
   11298:	83 7d fc 00          	cmpl   $0x0,-0x4(%rbp)
   1129c:	74 19                	je     112b7 <main+0xb57>
   1129e:	8b 55 f4             	mov    -0xc(%rbp),%edx
   112a1:	8b 45 f0             	mov    -0x10(%rbp),%eax
   112a4:	89 c6                	mov    %eax,%esi
   112a6:	48 8d 3d fc 18 00 00 	lea    0x18fc(%rip),%rdi        # 12ba9 <g_2875+0xb4d>
   112ad:	b8 00 00 00 00       	mov    $0x0,%eax
   112b2:	e8 c9 5d ff ff       	callq  7080 <printf@plt>
   112b7:	83 45 f4 01          	addl   $0x1,-0xc(%rbp)
   112bb:	83 7d f4 06          	cmpl   $0x6,-0xc(%rbp)
   112bf:	7e 99                	jle    1125a <main+0xafa>
   112c1:	83 45 f0 01          	addl   $0x1,-0x10(%rbp)
   112c5:	83 7d f0 06          	cmpl   $0x6,-0x10(%rbp)
   112c9:	7e 86                	jle    11251 <main+0xaf1>
   112cb:	48 8b 05 f6 47 00 00 	mov    0x47f6(%rip),%rax        # 15ac8 <g_2522>
   112d2:	48 89 c1             	mov    %rax,%rcx
   112d5:	8b 45 fc             	mov    -0x4(%rbp),%eax
   112d8:	89 c2                	mov    %eax,%edx
   112da:	48 8d 35 43 1a 00 00 	lea    0x1a43(%rip),%rsi        # 12d24 <g_2875+0xcc8>
   112e1:	48 89 cf             	mov    %rcx,%rdi
   112e4:	e8 0a 74 ff ff       	callq  86f3 <transparent_crc>
   112e9:	0f b6 05 e0 47 00 00 	movzbl 0x47e0(%rip),%eax        # 15ad0 <g_2680>
   112f0:	48 0f be c0          	movsbq %al,%rax
   112f4:	8b 55 fc             	mov    -0x4(%rbp),%edx
   112f7:	48 8d 35 2d 1a 00 00 	lea    0x1a2d(%rip),%rsi        # 12d2b <g_2875+0xccf>
   112fe:	48 89 c7             	mov    %rax,%rdi
   11301:	e8 ed 73 ff ff       	callq  86f3 <transparent_crc>
   11306:	0f b7 05 c5 47 00 00 	movzwl 0x47c5(%rip),%eax        # 15ad2 <g_2689>
   1130d:	0f b7 c0             	movzwl %ax,%eax
   11310:	8b 55 fc             	mov    -0x4(%rbp),%edx
   11313:	48 8d 35 18 1a 00 00 	lea    0x1a18(%rip),%rsi        # 12d32 <g_2875+0xcd6>
   1131a:	48 89 c7             	mov    %rax,%rdi
   1131d:	e8 d1 73 ff ff       	callq  86f3 <transparent_crc>
   11322:	0f b6 05 ab 47 00 00 	movzbl 0x47ab(%rip),%eax        # 15ad4 <g_2731>
   11329:	0f b6 c0             	movzbl %al,%eax
   1132c:	8b 55 fc             	mov    -0x4(%rbp),%edx
   1132f:	48 8d 35 03 1a 00 00 	lea    0x1a03(%rip),%rsi        # 12d39 <g_2875+0xcdd>
   11336:	48 89 c7             	mov    %rax,%rdi
   11339:	e8 b5 73 ff ff       	callq  86f3 <transparent_crc>
   1133e:	48 8b 05 93 47 00 00 	mov    0x4793(%rip),%rax        # 15ad8 <g_2821>
   11345:	48 89 c1             	mov    %rax,%rcx
   11348:	8b 45 fc             	mov    -0x4(%rbp),%eax
   1134b:	89 c2                	mov    %eax,%edx
   1134d:	48 8d 35 ec 19 00 00 	lea    0x19ec(%rip),%rsi        # 12d40 <g_2875+0xce4>
   11354:	48 89 cf             	mov    %rcx,%rdi
   11357:	e8 97 73 ff ff       	callq  86f3 <transparent_crc>
   1135c:	48 8b 05 7d 47 00 00 	mov    0x477d(%rip),%rax        # 15ae0 <g_2866>
   11363:	48 89 c1             	mov    %rax,%rcx
   11366:	8b 45 fc             	mov    -0x4(%rbp),%eax
   11369:	89 c2                	mov    %eax,%edx
   1136b:	48 8d 35 d5 19 00 00 	lea    0x19d5(%rip),%rsi        # 12d47 <g_2875+0xceb>
   11372:	48 89 cf             	mov    %rcx,%rdi
   11375:	e8 79 73 ff ff       	callq  86f3 <transparent_crc>
   1137a:	b8 3c 1f ec e4       	mov    $0xe4ec1f3c,%eax
   1137f:	48 98                	cltq   
   11381:	8b 55 fc             	mov    -0x4(%rbp),%edx
   11384:	48 8d 35 c3 19 00 00 	lea    0x19c3(%rip),%rsi        # 12d4e <g_2875+0xcf2>
   1138b:	48 89 c7             	mov    %rax,%rdi
   1138e:	e8 60 73 ff ff       	callq  86f3 <transparent_crc>
   11393:	8b 05 87 3c 00 00    	mov    0x3c87(%rip),%eax        # 15020 <crc32_context>
   11399:	f7 d0                	not    %eax
   1139b:	89 c2                	mov    %eax,%edx
   1139d:	8b 45 fc             	mov    -0x4(%rbp),%eax
   113a0:	89 c6                	mov    %eax,%esi
   113a2:	89 d7                	mov    %edx,%edi
   113a4:	e8 eb 5d ff ff       	callq  7194 <platform_main_end>
   113a9:	b8 00 00 00 00       	mov    $0x0,%eax
   113ae:	c9                   	leaveq 
   113af:	c3                   	retq   

00000000000113b0 <__libc_csu_init>:
   113b0:	f3 0f 1e fa          	endbr64 
   113b4:	41 57                	push   %r15
   113b6:	4c 8d 3d e3 39 00 00 	lea    0x39e3(%rip),%r15        # 14da0 <__frame_dummy_init_array_entry>
   113bd:	41 56                	push   %r14
   113bf:	49 89 d6             	mov    %rdx,%r14
   113c2:	41 55                	push   %r13
   113c4:	49 89 f5             	mov    %rsi,%r13
   113c7:	41 54                	push   %r12
   113c9:	41 89 fc             	mov    %edi,%r12d
   113cc:	55                   	push   %rbp
   113cd:	48 8d 2d d4 39 00 00 	lea    0x39d4(%rip),%rbp        # 14da8 <__do_global_dtors_aux_fini_array_entry>
   113d4:	53                   	push   %rbx
   113d5:	4c 29 fd             	sub    %r15,%rbp
   113d8:	48 83 ec 08          	sub    $0x8,%rsp
   113dc:	e8 1f 5c ff ff       	callq  7000 <_init>
   113e1:	48 c1 fd 03          	sar    $0x3,%rbp
   113e5:	74 1f                	je     11406 <__libc_csu_init+0x56>
   113e7:	31 db                	xor    %ebx,%ebx
   113e9:	0f 1f 80 00 00 00 00 	nopl   0x0(%rax)
   113f0:	4c 89 f2             	mov    %r14,%rdx
   113f3:	4c 89 ee             	mov    %r13,%rsi
   113f6:	44 89 e7             	mov    %r12d,%edi
   113f9:	41 ff 14 df          	callq  *(%r15,%rbx,8)
   113fd:	48 83 c3 01          	add    $0x1,%rbx
   11401:	48 39 dd             	cmp    %rbx,%rbp
   11404:	75 ea                	jne    113f0 <__libc_csu_init+0x40>
   11406:	48 83 c4 08          	add    $0x8,%rsp
   1140a:	5b                   	pop    %rbx
   1140b:	5d                   	pop    %rbp
   1140c:	41 5c                	pop    %r12
   1140e:	41 5d                	pop    %r13
   11410:	41 5e                	pop    %r14
   11412:	41 5f                	pop    %r15
   11414:	c3                   	retq   
   11415:	66 66 2e 0f 1f 84 00 	data16 nopw %cs:0x0(%rax,%rax,1)
   1141c:	00 00 00 00 

0000000000011420 <__libc_csu_fini>:
   11420:	f3 0f 1e fa          	endbr64 
   11424:	c3                   	retq   
