


Disassembly of section .text:

00000000000060a0 <_start>:
    60a0:	f3 0f 1e fa          	endbr64 
    60a4:	31 ed                	xor    %ebp,%ebp
    60a6:	49 89 d1             	mov    %rdx,%r9
    60a9:	5e                   	pop    %rsi
    60aa:	48 89 e2             	mov    %rsp,%rdx
    60ad:	48 83 e4 f0          	and    $0xfffffffffffffff0,%rsp
    60b1:	50                   	push   %rax
    60b2:	54                   	push   %rsp
    60b3:	4c 8d 05 f6 3b 01 00 	lea    0x13bf6(%rip),%r8        # 19cb0 <__libc_csu_fini>
    60ba:	48 8d 0d 7f 3b 01 00 	lea    0x13b7f(%rip),%rcx        # 19c40 <__libc_csu_init>
    60c1:	48 8d 3d ea 32 01 00 	lea    0x132ea(%rip),%rdi        # 193b2 <main>
    60c8:	ff 15 02 7f 01 00    	callq  *0x17f02(%rip)        # 1dfd0 <__libc_start_main@GLIBC_2.2.5>
    60ce:	f4                   	hlt    
    60cf:	90                   	nop

00000000000060d0 <deregister_tm_clones>:
    60d0:	48 8d 3d d9 a6 01 00 	lea    0x1a6d9(%rip),%rdi        # 207b0 <__TMC_END__>
    60d7:	48 8d 05 d2 a6 01 00 	lea    0x1a6d2(%rip),%rax        # 207b0 <__TMC_END__>
    60de:	48 39 f8             	cmp    %rdi,%rax
    60e1:	74 15                	je     60f8 <deregister_tm_clones+0x28>
    60e3:	48 8b 05 de 7e 01 00 	mov    0x17ede(%rip),%rax        # 1dfc8 <_ITM_deregisterTMCloneTable>
    60ea:	48 85 c0             	test   %rax,%rax
    60ed:	74 09                	je     60f8 <deregister_tm_clones+0x28>
    60ef:	ff e0                	jmpq   *%rax
    60f1:	0f 1f 80 00 00 00 00 	nopl   0x0(%rax)
    60f8:	c3                   	retq   
    60f9:	0f 1f 80 00 00 00 00 	nopl   0x0(%rax)

0000000000006100 <register_tm_clones>:
    6100:	48 8d 3d a9 a6 01 00 	lea    0x1a6a9(%rip),%rdi        # 207b0 <__TMC_END__>
    6107:	48 8d 35 a2 a6 01 00 	lea    0x1a6a2(%rip),%rsi        # 207b0 <__TMC_END__>
    610e:	48 29 fe             	sub    %rdi,%rsi
    6111:	48 89 f0             	mov    %rsi,%rax
    6114:	48 c1 ee 3f          	shr    $0x3f,%rsi
    6118:	48 c1 f8 03          	sar    $0x3,%rax
    611c:	48 01 c6             	add    %rax,%rsi
    611f:	48 d1 fe             	sar    %rsi
    6122:	74 14                	je     6138 <register_tm_clones+0x38>
    6124:	48 8b 05 b5 7e 01 00 	mov    0x17eb5(%rip),%rax        # 1dfe0 <_ITM_registerTMCloneTable>
    612b:	48 85 c0             	test   %rax,%rax
    612e:	74 08                	je     6138 <register_tm_clones+0x38>
    6130:	ff e0                	jmpq   *%rax
    6132:	66 0f 1f 44 00 00    	nopw   0x0(%rax,%rax,1)
    6138:	c3                   	retq   
    6139:	0f 1f 80 00 00 00 00 	nopl   0x0(%rax)

0000000000006140 <__do_global_dtors_aux>:
    6140:	f3 0f 1e fa          	endbr64 
    6144:	80 3d 75 a6 01 00 00 	cmpb   $0x0,0x1a675(%rip)        # 207c0 <completed.8061>
    614b:	75 2b                	jne    6178 <__do_global_dtors_aux+0x38>
    614d:	55                   	push   %rbp
    614e:	48 83 3d 92 7e 01 00 	cmpq   $0x0,0x17e92(%rip)        # 1dfe8 <__cxa_finalize@GLIBC_2.2.5>
    6155:	00 
    6156:	48 89 e5             	mov    %rsp,%rbp
    6159:	74 0c                	je     6167 <__do_global_dtors_aux+0x27>
    615b:	48 8b 3d a6 7e 01 00 	mov    0x17ea6(%rip),%rdi        # 1e008 <__dso_handle>
    6162:	e8 f9 fe ff ff       	callq  6060 <__cxa_finalize@plt>
    6167:	e8 64 ff ff ff       	callq  60d0 <deregister_tm_clones>
    616c:	c6 05 4d a6 01 00 01 	movb   $0x1,0x1a64d(%rip)        # 207c0 <completed.8061>
    6173:	5d                   	pop    %rbp
    6174:	c3                   	retq   
    6175:	0f 1f 00             	nopl   (%rax)
    6178:	c3                   	retq   
    6179:	0f 1f 80 00 00 00 00 	nopl   0x0(%rax)

0000000000006180 <frame_dummy>:
    6180:	f3 0f 1e fa          	endbr64 
    6184:	e9 77 ff ff ff       	jmpq   6100 <register_tm_clones>

0000000000006189 <platform_main_begin>:
    6189:	f3 0f 1e fa          	endbr64 
    618d:	55                   	push   %rbp
    618e:	48 89 e5             	mov    %rsp,%rbp
    6191:	90                   	nop
    6192:	5d                   	pop    %rbp
    6193:	c3                   	retq   

0000000000006194 <platform_main_end>:
    6194:	f3 0f 1e fa          	endbr64 
    6198:	55                   	push   %rbp
    6199:	48 89 e5             	mov    %rsp,%rbp
    619c:	48 83 ec 10          	sub    $0x10,%rsp
    61a0:	89 7d fc             	mov    %edi,-0x4(%rbp)
    61a3:	89 75 f8             	mov    %esi,-0x8(%rbp)
    61a6:	8b 45 fc             	mov    -0x4(%rbp),%eax
    61a9:	89 c6                	mov    %eax,%esi
    61ab:	48 8d 3d 6e 3e 01 00 	lea    0x13e6e(%rip),%rdi        # 1a020 <_IO_stdin_used+0x20>
    61b2:	b8 00 00 00 00       	mov    $0x0,%eax
    61b7:	e8 c4 fe ff ff       	callq  6080 <printf@plt>
    61bc:	90                   	nop
    61bd:	c9                   	leaveq 
    61be:	c3                   	retq   

00000000000061bf <safe_unary_minus_func_int8_t_s>:
    61bf:	f3 0f 1e fa          	endbr64 
    61c3:	55                   	push   %rbp
    61c4:	48 89 e5             	mov    %rsp,%rbp
    61c7:	89 f8                	mov    %edi,%eax
    61c9:	88 45 fc             	mov    %al,-0x4(%rbp)
    61cc:	0f b6 45 fc          	movzbl -0x4(%rbp),%eax
    61d0:	f7 d8                	neg    %eax
    61d2:	5d                   	pop    %rbp
    61d3:	c3                   	retq   

00000000000061d4 <safe_add_func_int8_t_s_s>:
    61d4:	f3 0f 1e fa          	endbr64 
    61d8:	55                   	push   %rbp
    61d9:	48 89 e5             	mov    %rsp,%rbp
    61dc:	89 fa                	mov    %edi,%edx
    61de:	89 f0                	mov    %esi,%eax
    61e0:	88 55 fc             	mov    %dl,-0x4(%rbp)
    61e3:	88 45 f8             	mov    %al,-0x8(%rbp)
    61e6:	0f b6 55 fc          	movzbl -0x4(%rbp),%edx
    61ea:	0f b6 45 f8          	movzbl -0x8(%rbp),%eax
    61ee:	01 d0                	add    %edx,%eax
    61f0:	5d                   	pop    %rbp
    61f1:	c3                   	retq   

00000000000061f2 <safe_sub_func_int8_t_s_s>:
    61f2:	f3 0f 1e fa          	endbr64 
    61f6:	55                   	push   %rbp
    61f7:	48 89 e5             	mov    %rsp,%rbp
    61fa:	89 fa                	mov    %edi,%edx
    61fc:	89 f0                	mov    %esi,%eax
    61fe:	88 55 fc             	mov    %dl,-0x4(%rbp)
    6201:	88 45 f8             	mov    %al,-0x8(%rbp)
    6204:	0f b6 55 fc          	movzbl -0x4(%rbp),%edx
    6208:	0f b6 45 f8          	movzbl -0x8(%rbp),%eax
    620c:	29 c2                	sub    %eax,%edx
    620e:	89 d0                	mov    %edx,%eax
    6210:	5d                   	pop    %rbp
    6211:	c3                   	retq   

0000000000006212 <safe_mul_func_int8_t_s_s>:
    6212:	f3 0f 1e fa          	endbr64 
    6216:	55                   	push   %rbp
    6217:	48 89 e5             	mov    %rsp,%rbp
    621a:	89 fa                	mov    %edi,%edx
    621c:	89 f0                	mov    %esi,%eax
    621e:	88 55 fc             	mov    %dl,-0x4(%rbp)
    6221:	88 45 f8             	mov    %al,-0x8(%rbp)
    6224:	0f b6 45 fc          	movzbl -0x4(%rbp),%eax
    6228:	0f b6 55 f8          	movzbl -0x8(%rbp),%edx
    622c:	0f af c2             	imul   %edx,%eax
    622f:	5d                   	pop    %rbp
    6230:	c3                   	retq   

0000000000006231 <safe_mod_func_int8_t_s_s>:
    6231:	f3 0f 1e fa          	endbr64 
    6235:	55                   	push   %rbp
    6236:	48 89 e5             	mov    %rsp,%rbp
    6239:	89 fa                	mov    %edi,%edx
    623b:	89 f0                	mov    %esi,%eax
    623d:	88 55 fc             	mov    %dl,-0x4(%rbp)
    6240:	88 45 f8             	mov    %al,-0x8(%rbp)
    6243:	80 7d f8 00          	cmpb   $0x0,-0x8(%rbp)
    6247:	74 1b                	je     6264 <safe_mod_func_int8_t_s_s+0x33>
    6249:	80 7d fc 80          	cmpb   $0x80,-0x4(%rbp)
    624d:	75 06                	jne    6255 <safe_mod_func_int8_t_s_s+0x24>
    624f:	80 7d f8 ff          	cmpb   $0xff,-0x8(%rbp)
    6253:	74 0f                	je     6264 <safe_mod_func_int8_t_s_s+0x33>
    6255:	0f be 45 fc          	movsbl -0x4(%rbp),%eax
    6259:	0f be 4d f8          	movsbl -0x8(%rbp),%ecx
    625d:	99                   	cltd   
    625e:	f7 f9                	idiv   %ecx
    6260:	89 d0                	mov    %edx,%eax
    6262:	eb 04                	jmp    6268 <safe_mod_func_int8_t_s_s+0x37>
    6264:	0f b6 45 fc          	movzbl -0x4(%rbp),%eax
    6268:	5d                   	pop    %rbp
    6269:	c3                   	retq   

000000000000626a <safe_div_func_int8_t_s_s>:
    626a:	f3 0f 1e fa          	endbr64 
    626e:	55                   	push   %rbp
    626f:	48 89 e5             	mov    %rsp,%rbp
    6272:	89 fa                	mov    %edi,%edx
    6274:	89 f0                	mov    %esi,%eax
    6276:	88 55 fc             	mov    %dl,-0x4(%rbp)
    6279:	88 45 f8             	mov    %al,-0x8(%rbp)
    627c:	80 7d f8 00          	cmpb   $0x0,-0x8(%rbp)
    6280:	74 19                	je     629b <safe_div_func_int8_t_s_s+0x31>
    6282:	80 7d fc 80          	cmpb   $0x80,-0x4(%rbp)
    6286:	75 06                	jne    628e <safe_div_func_int8_t_s_s+0x24>
    6288:	80 7d f8 ff          	cmpb   $0xff,-0x8(%rbp)
    628c:	74 0d                	je     629b <safe_div_func_int8_t_s_s+0x31>
    628e:	0f be 45 fc          	movsbl -0x4(%rbp),%eax
    6292:	0f be 4d f8          	movsbl -0x8(%rbp),%ecx
    6296:	99                   	cltd   
    6297:	f7 f9                	idiv   %ecx
    6299:	eb 04                	jmp    629f <safe_div_func_int8_t_s_s+0x35>
    629b:	0f b6 45 fc          	movzbl -0x4(%rbp),%eax
    629f:	5d                   	pop    %rbp
    62a0:	c3                   	retq   

00000000000062a1 <safe_lshift_func_int8_t_s_s>:
    62a1:	f3 0f 1e fa          	endbr64 
    62a5:	55                   	push   %rbp
    62a6:	48 89 e5             	mov    %rsp,%rbp
    62a9:	89 f8                	mov    %edi,%eax
    62ab:	89 75 f8             	mov    %esi,-0x8(%rbp)
    62ae:	88 45 fc             	mov    %al,-0x4(%rbp)
    62b1:	80 7d fc 00          	cmpb   $0x0,-0x4(%rbp)
    62b5:	78 31                	js     62e8 <safe_lshift_func_int8_t_s_s+0x47>
    62b7:	83 7d f8 00          	cmpl   $0x0,-0x8(%rbp)
    62bb:	78 2b                	js     62e8 <safe_lshift_func_int8_t_s_s+0x47>
    62bd:	83 7d f8 1f          	cmpl   $0x1f,-0x8(%rbp)
    62c1:	7f 25                	jg     62e8 <safe_lshift_func_int8_t_s_s+0x47>
    62c3:	0f be 55 fc          	movsbl -0x4(%rbp),%edx
    62c7:	8b 45 f8             	mov    -0x8(%rbp),%eax
    62ca:	be 7f 00 00 00       	mov    $0x7f,%esi
    62cf:	89 c1                	mov    %eax,%ecx
    62d1:	d3 fe                	sar    %cl,%esi
    62d3:	89 f0                	mov    %esi,%eax
    62d5:	39 c2                	cmp    %eax,%edx
    62d7:	7f 0f                	jg     62e8 <safe_lshift_func_int8_t_s_s+0x47>
    62d9:	0f be 55 fc          	movsbl -0x4(%rbp),%edx
    62dd:	8b 45 f8             	mov    -0x8(%rbp),%eax
    62e0:	89 c1                	mov    %eax,%ecx
    62e2:	d3 e2                	shl    %cl,%edx
    62e4:	89 d0                	mov    %edx,%eax
    62e6:	eb 04                	jmp    62ec <safe_lshift_func_int8_t_s_s+0x4b>
    62e8:	0f b6 45 fc          	movzbl -0x4(%rbp),%eax
    62ec:	5d                   	pop    %rbp
    62ed:	c3                   	retq   

00000000000062ee <safe_lshift_func_int8_t_s_u>:
    62ee:	f3 0f 1e fa          	endbr64 
    62f2:	55                   	push   %rbp
    62f3:	48 89 e5             	mov    %rsp,%rbp
    62f6:	89 f8                	mov    %edi,%eax
    62f8:	89 75 f8             	mov    %esi,-0x8(%rbp)
    62fb:	88 45 fc             	mov    %al,-0x4(%rbp)
    62fe:	80 7d fc 00          	cmpb   $0x0,-0x4(%rbp)
    6302:	78 2b                	js     632f <safe_lshift_func_int8_t_s_u+0x41>
    6304:	83 7d f8 1f          	cmpl   $0x1f,-0x8(%rbp)
    6308:	77 25                	ja     632f <safe_lshift_func_int8_t_s_u+0x41>
    630a:	0f be 55 fc          	movsbl -0x4(%rbp),%edx
    630e:	8b 45 f8             	mov    -0x8(%rbp),%eax
    6311:	be 7f 00 00 00       	mov    $0x7f,%esi
    6316:	89 c1                	mov    %eax,%ecx
    6318:	d3 fe                	sar    %cl,%esi
    631a:	89 f0                	mov    %esi,%eax
    631c:	39 c2                	cmp    %eax,%edx
    631e:	7f 0f                	jg     632f <safe_lshift_func_int8_t_s_u+0x41>
    6320:	0f be 55 fc          	movsbl -0x4(%rbp),%edx
    6324:	8b 45 f8             	mov    -0x8(%rbp),%eax
    6327:	89 c1                	mov    %eax,%ecx
    6329:	d3 e2                	shl    %cl,%edx
    632b:	89 d0                	mov    %edx,%eax
    632d:	eb 04                	jmp    6333 <safe_lshift_func_int8_t_s_u+0x45>
    632f:	0f b6 45 fc          	movzbl -0x4(%rbp),%eax
    6333:	5d                   	pop    %rbp
    6334:	c3                   	retq   

0000000000006335 <safe_rshift_func_int8_t_s_s>:
    6335:	f3 0f 1e fa          	endbr64 
    6339:	55                   	push   %rbp
    633a:	48 89 e5             	mov    %rsp,%rbp
    633d:	89 f8                	mov    %edi,%eax
    633f:	89 75 f8             	mov    %esi,-0x8(%rbp)
    6342:	88 45 fc             	mov    %al,-0x4(%rbp)
    6345:	80 7d fc 00          	cmpb   $0x0,-0x4(%rbp)
    6349:	78 1b                	js     6366 <safe_rshift_func_int8_t_s_s+0x31>
    634b:	83 7d f8 00          	cmpl   $0x0,-0x8(%rbp)
    634f:	78 15                	js     6366 <safe_rshift_func_int8_t_s_s+0x31>
    6351:	83 7d f8 1f          	cmpl   $0x1f,-0x8(%rbp)
    6355:	7f 0f                	jg     6366 <safe_rshift_func_int8_t_s_s+0x31>
    6357:	0f be 55 fc          	movsbl -0x4(%rbp),%edx
    635b:	8b 45 f8             	mov    -0x8(%rbp),%eax
    635e:	89 c1                	mov    %eax,%ecx
    6360:	d3 fa                	sar    %cl,%edx
    6362:	89 d0                	mov    %edx,%eax
    6364:	eb 04                	jmp    636a <safe_rshift_func_int8_t_s_s+0x35>
    6366:	0f b6 45 fc          	movzbl -0x4(%rbp),%eax
    636a:	5d                   	pop    %rbp
    636b:	c3                   	retq   

000000000000636c <safe_rshift_func_int8_t_s_u>:
    636c:	f3 0f 1e fa          	endbr64 
    6370:	55                   	push   %rbp
    6371:	48 89 e5             	mov    %rsp,%rbp
    6374:	89 f8                	mov    %edi,%eax
    6376:	89 75 f8             	mov    %esi,-0x8(%rbp)
    6379:	88 45 fc             	mov    %al,-0x4(%rbp)
    637c:	80 7d fc 00          	cmpb   $0x0,-0x4(%rbp)
    6380:	78 15                	js     6397 <safe_rshift_func_int8_t_s_u+0x2b>
    6382:	83 7d f8 1f          	cmpl   $0x1f,-0x8(%rbp)
    6386:	77 0f                	ja     6397 <safe_rshift_func_int8_t_s_u+0x2b>
    6388:	0f be 55 fc          	movsbl -0x4(%rbp),%edx
    638c:	8b 45 f8             	mov    -0x8(%rbp),%eax
    638f:	89 c1                	mov    %eax,%ecx
    6391:	d3 fa                	sar    %cl,%edx
    6393:	89 d0                	mov    %edx,%eax
    6395:	eb 04                	jmp    639b <safe_rshift_func_int8_t_s_u+0x2f>
    6397:	0f b6 45 fc          	movzbl -0x4(%rbp),%eax
    639b:	5d                   	pop    %rbp
    639c:	c3                   	retq   

000000000000639d <safe_unary_minus_func_int16_t_s>:
    639d:	f3 0f 1e fa          	endbr64 
    63a1:	55                   	push   %rbp
    63a2:	48 89 e5             	mov    %rsp,%rbp
    63a5:	89 f8                	mov    %edi,%eax
    63a7:	66 89 45 fc          	mov    %ax,-0x4(%rbp)
    63ab:	0f b7 45 fc          	movzwl -0x4(%rbp),%eax
    63af:	f7 d8                	neg    %eax
    63b1:	5d                   	pop    %rbp
    63b2:	c3                   	retq   

00000000000063b3 <safe_add_func_int16_t_s_s>:
    63b3:	f3 0f 1e fa          	endbr64 
    63b7:	55                   	push   %rbp
    63b8:	48 89 e5             	mov    %rsp,%rbp
    63bb:	89 fa                	mov    %edi,%edx
    63bd:	89 f0                	mov    %esi,%eax
    63bf:	66 89 55 fc          	mov    %dx,-0x4(%rbp)
    63c3:	66 89 45 f8          	mov    %ax,-0x8(%rbp)
    63c7:	0f b7 55 fc          	movzwl -0x4(%rbp),%edx
    63cb:	0f b7 45 f8          	movzwl -0x8(%rbp),%eax
    63cf:	01 d0                	add    %edx,%eax
    63d1:	5d                   	pop    %rbp
    63d2:	c3                   	retq   

00000000000063d3 <safe_sub_func_int16_t_s_s>:
    63d3:	f3 0f 1e fa          	endbr64 
    63d7:	55                   	push   %rbp
    63d8:	48 89 e5             	mov    %rsp,%rbp
    63db:	89 fa                	mov    %edi,%edx
    63dd:	89 f0                	mov    %esi,%eax
    63df:	66 89 55 fc          	mov    %dx,-0x4(%rbp)
    63e3:	66 89 45 f8          	mov    %ax,-0x8(%rbp)
    63e7:	0f b7 55 fc          	movzwl -0x4(%rbp),%edx
    63eb:	0f b7 45 f8          	movzwl -0x8(%rbp),%eax
    63ef:	29 c2                	sub    %eax,%edx
    63f1:	89 d0                	mov    %edx,%eax
    63f3:	5d                   	pop    %rbp
    63f4:	c3                   	retq   

00000000000063f5 <safe_mul_func_int16_t_s_s>:
    63f5:	f3 0f 1e fa          	endbr64 
    63f9:	55                   	push   %rbp
    63fa:	48 89 e5             	mov    %rsp,%rbp
    63fd:	89 fa                	mov    %edi,%edx
    63ff:	89 f0                	mov    %esi,%eax
    6401:	66 89 55 fc          	mov    %dx,-0x4(%rbp)
    6405:	66 89 45 f8          	mov    %ax,-0x8(%rbp)
    6409:	0f b7 55 fc          	movzwl -0x4(%rbp),%edx
    640d:	0f b7 45 f8          	movzwl -0x8(%rbp),%eax
    6411:	0f af c2             	imul   %edx,%eax
    6414:	5d                   	pop    %rbp
    6415:	c3                   	retq   

0000000000006416 <safe_mod_func_int16_t_s_s>:
    6416:	f3 0f 1e fa          	endbr64 
    641a:	55                   	push   %rbp
    641b:	48 89 e5             	mov    %rsp,%rbp
    641e:	89 fa                	mov    %edi,%edx
    6420:	89 f0                	mov    %esi,%eax
    6422:	66 89 55 fc          	mov    %dx,-0x4(%rbp)
    6426:	66 89 45 f8          	mov    %ax,-0x8(%rbp)
    642a:	66 83 7d f8 00       	cmpw   $0x0,-0x8(%rbp)
    642f:	74 1e                	je     644f <safe_mod_func_int16_t_s_s+0x39>
    6431:	66 81 7d fc 00 80    	cmpw   $0x8000,-0x4(%rbp)
    6437:	75 07                	jne    6440 <safe_mod_func_int16_t_s_s+0x2a>
    6439:	66 83 7d f8 ff       	cmpw   $0xffff,-0x8(%rbp)
    643e:	74 0f                	je     644f <safe_mod_func_int16_t_s_s+0x39>
    6440:	0f bf 45 fc          	movswl -0x4(%rbp),%eax
    6444:	0f bf 4d f8          	movswl -0x8(%rbp),%ecx
    6448:	99                   	cltd   
    6449:	f7 f9                	idiv   %ecx
    644b:	89 d0                	mov    %edx,%eax
    644d:	eb 04                	jmp    6453 <safe_mod_func_int16_t_s_s+0x3d>
    644f:	0f b7 45 fc          	movzwl -0x4(%rbp),%eax
    6453:	5d                   	pop    %rbp
    6454:	c3                   	retq   

0000000000006455 <safe_div_func_int16_t_s_s>:
    6455:	f3 0f 1e fa          	endbr64 
    6459:	55                   	push   %rbp
    645a:	48 89 e5             	mov    %rsp,%rbp
    645d:	89 fa                	mov    %edi,%edx
    645f:	89 f0                	mov    %esi,%eax
    6461:	66 89 55 fc          	mov    %dx,-0x4(%rbp)
    6465:	66 89 45 f8          	mov    %ax,-0x8(%rbp)
    6469:	66 83 7d f8 00       	cmpw   $0x0,-0x8(%rbp)
    646e:	74 1c                	je     648c <safe_div_func_int16_t_s_s+0x37>
    6470:	66 81 7d fc 00 80    	cmpw   $0x8000,-0x4(%rbp)
    6476:	75 07                	jne    647f <safe_div_func_int16_t_s_s+0x2a>
    6478:	66 83 7d f8 ff       	cmpw   $0xffff,-0x8(%rbp)
    647d:	74 0d                	je     648c <safe_div_func_int16_t_s_s+0x37>
    647f:	0f bf 45 fc          	movswl -0x4(%rbp),%eax
    6483:	0f bf 4d f8          	movswl -0x8(%rbp),%ecx
    6487:	99                   	cltd   
    6488:	f7 f9                	idiv   %ecx
    648a:	eb 04                	jmp    6490 <safe_div_func_int16_t_s_s+0x3b>
    648c:	0f b7 45 fc          	movzwl -0x4(%rbp),%eax
    6490:	5d                   	pop    %rbp
    6491:	c3                   	retq   

0000000000006492 <safe_lshift_func_int16_t_s_s>:
    6492:	f3 0f 1e fa          	endbr64 
    6496:	55                   	push   %rbp
    6497:	48 89 e5             	mov    %rsp,%rbp
    649a:	89 f8                	mov    %edi,%eax
    649c:	89 75 f8             	mov    %esi,-0x8(%rbp)
    649f:	66 89 45 fc          	mov    %ax,-0x4(%rbp)
    64a3:	66 83 7d fc 00       	cmpw   $0x0,-0x4(%rbp)
    64a8:	78 31                	js     64db <safe_lshift_func_int16_t_s_s+0x49>
    64aa:	83 7d f8 00          	cmpl   $0x0,-0x8(%rbp)
    64ae:	78 2b                	js     64db <safe_lshift_func_int16_t_s_s+0x49>
    64b0:	83 7d f8 1f          	cmpl   $0x1f,-0x8(%rbp)
    64b4:	7f 25                	jg     64db <safe_lshift_func_int16_t_s_s+0x49>
    64b6:	0f bf 55 fc          	movswl -0x4(%rbp),%edx
    64ba:	8b 45 f8             	mov    -0x8(%rbp),%eax
    64bd:	be ff 7f 00 00       	mov    $0x7fff,%esi
    64c2:	89 c1                	mov    %eax,%ecx
    64c4:	d3 fe                	sar    %cl,%esi
    64c6:	89 f0                	mov    %esi,%eax
    64c8:	39 c2                	cmp    %eax,%edx
    64ca:	7f 0f                	jg     64db <safe_lshift_func_int16_t_s_s+0x49>
    64cc:	0f bf 55 fc          	movswl -0x4(%rbp),%edx
    64d0:	8b 45 f8             	mov    -0x8(%rbp),%eax
    64d3:	89 c1                	mov    %eax,%ecx
    64d5:	d3 e2                	shl    %cl,%edx
    64d7:	89 d0                	mov    %edx,%eax
    64d9:	eb 04                	jmp    64df <safe_lshift_func_int16_t_s_s+0x4d>
    64db:	0f b7 45 fc          	movzwl -0x4(%rbp),%eax
    64df:	5d                   	pop    %rbp
    64e0:	c3                   	retq   

00000000000064e1 <safe_lshift_func_int16_t_s_u>:
    64e1:	f3 0f 1e fa          	endbr64 
    64e5:	55                   	push   %rbp
    64e6:	48 89 e5             	mov    %rsp,%rbp
    64e9:	89 f8                	mov    %edi,%eax
    64eb:	89 75 f8             	mov    %esi,-0x8(%rbp)
    64ee:	66 89 45 fc          	mov    %ax,-0x4(%rbp)
    64f2:	66 83 7d fc 00       	cmpw   $0x0,-0x4(%rbp)
    64f7:	78 2b                	js     6524 <safe_lshift_func_int16_t_s_u+0x43>
    64f9:	83 7d f8 1f          	cmpl   $0x1f,-0x8(%rbp)
    64fd:	77 25                	ja     6524 <safe_lshift_func_int16_t_s_u+0x43>
    64ff:	0f bf 55 fc          	movswl -0x4(%rbp),%edx
    6503:	8b 45 f8             	mov    -0x8(%rbp),%eax
    6506:	be ff 7f 00 00       	mov    $0x7fff,%esi
    650b:	89 c1                	mov    %eax,%ecx
    650d:	d3 fe                	sar    %cl,%esi
    650f:	89 f0                	mov    %esi,%eax
    6511:	39 c2                	cmp    %eax,%edx
    6513:	7f 0f                	jg     6524 <safe_lshift_func_int16_t_s_u+0x43>
    6515:	0f bf 55 fc          	movswl -0x4(%rbp),%edx
    6519:	8b 45 f8             	mov    -0x8(%rbp),%eax
    651c:	89 c1                	mov    %eax,%ecx
    651e:	d3 e2                	shl    %cl,%edx
    6520:	89 d0                	mov    %edx,%eax
    6522:	eb 04                	jmp    6528 <safe_lshift_func_int16_t_s_u+0x47>
    6524:	0f b7 45 fc          	movzwl -0x4(%rbp),%eax
    6528:	5d                   	pop    %rbp
    6529:	c3                   	retq   

000000000000652a <safe_rshift_func_int16_t_s_s>:
    652a:	f3 0f 1e fa          	endbr64 
    652e:	55                   	push   %rbp
    652f:	48 89 e5             	mov    %rsp,%rbp
    6532:	89 f8                	mov    %edi,%eax
    6534:	89 75 f8             	mov    %esi,-0x8(%rbp)
    6537:	66 89 45 fc          	mov    %ax,-0x4(%rbp)
    653b:	66 83 7d fc 00       	cmpw   $0x0,-0x4(%rbp)
    6540:	78 1b                	js     655d <safe_rshift_func_int16_t_s_s+0x33>
    6542:	83 7d f8 00          	cmpl   $0x0,-0x8(%rbp)
    6546:	78 15                	js     655d <safe_rshift_func_int16_t_s_s+0x33>
    6548:	83 7d f8 1f          	cmpl   $0x1f,-0x8(%rbp)
    654c:	7f 0f                	jg     655d <safe_rshift_func_int16_t_s_s+0x33>
    654e:	0f bf 55 fc          	movswl -0x4(%rbp),%edx
    6552:	8b 45 f8             	mov    -0x8(%rbp),%eax
    6555:	89 c1                	mov    %eax,%ecx
    6557:	d3 fa                	sar    %cl,%edx
    6559:	89 d0                	mov    %edx,%eax
    655b:	eb 04                	jmp    6561 <safe_rshift_func_int16_t_s_s+0x37>
    655d:	0f b7 45 fc          	movzwl -0x4(%rbp),%eax
    6561:	5d                   	pop    %rbp
    6562:	c3                   	retq   

0000000000006563 <safe_rshift_func_int16_t_s_u>:
    6563:	f3 0f 1e fa          	endbr64 
    6567:	55                   	push   %rbp
    6568:	48 89 e5             	mov    %rsp,%rbp
    656b:	89 f8                	mov    %edi,%eax
    656d:	89 75 f8             	mov    %esi,-0x8(%rbp)
    6570:	66 89 45 fc          	mov    %ax,-0x4(%rbp)
    6574:	66 83 7d fc 00       	cmpw   $0x0,-0x4(%rbp)
    6579:	78 15                	js     6590 <safe_rshift_func_int16_t_s_u+0x2d>
    657b:	83 7d f8 1f          	cmpl   $0x1f,-0x8(%rbp)
    657f:	77 0f                	ja     6590 <safe_rshift_func_int16_t_s_u+0x2d>
    6581:	0f bf 55 fc          	movswl -0x4(%rbp),%edx
    6585:	8b 45 f8             	mov    -0x8(%rbp),%eax
    6588:	89 c1                	mov    %eax,%ecx
    658a:	d3 fa                	sar    %cl,%edx
    658c:	89 d0                	mov    %edx,%eax
    658e:	eb 04                	jmp    6594 <safe_rshift_func_int16_t_s_u+0x31>
    6590:	0f b7 45 fc          	movzwl -0x4(%rbp),%eax
    6594:	5d                   	pop    %rbp
    6595:	c3                   	retq   

0000000000006596 <safe_unary_minus_func_int32_t_s>:
    6596:	f3 0f 1e fa          	endbr64 
    659a:	55                   	push   %rbp
    659b:	48 89 e5             	mov    %rsp,%rbp
    659e:	89 7d fc             	mov    %edi,-0x4(%rbp)
    65a1:	81 7d fc 00 00 00 80 	cmpl   $0x80000000,-0x4(%rbp)
    65a8:	74 07                	je     65b1 <safe_unary_minus_func_int32_t_s+0x1b>
    65aa:	8b 45 fc             	mov    -0x4(%rbp),%eax
    65ad:	f7 d8                	neg    %eax
    65af:	eb 03                	jmp    65b4 <safe_unary_minus_func_int32_t_s+0x1e>
    65b1:	8b 45 fc             	mov    -0x4(%rbp),%eax
    65b4:	5d                   	pop    %rbp
    65b5:	c3                   	retq   

00000000000065b6 <safe_add_func_int32_t_s_s>:
    65b6:	f3 0f 1e fa          	endbr64 
    65ba:	55                   	push   %rbp
    65bb:	48 89 e5             	mov    %rsp,%rbp
    65be:	89 7d fc             	mov    %edi,-0x4(%rbp)
    65c1:	89 75 f8             	mov    %esi,-0x8(%rbp)
    65c4:	83 7d fc 00          	cmpl   $0x0,-0x4(%rbp)
    65c8:	7e 13                	jle    65dd <safe_add_func_int32_t_s_s+0x27>
    65ca:	83 7d f8 00          	cmpl   $0x0,-0x8(%rbp)
    65ce:	7e 0d                	jle    65dd <safe_add_func_int32_t_s_s+0x27>
    65d0:	b8 ff ff ff 7f       	mov    $0x7fffffff,%eax
    65d5:	2b 45 f8             	sub    -0x8(%rbp),%eax
    65d8:	39 45 fc             	cmp    %eax,-0x4(%rbp)
    65db:	7f 23                	jg     6600 <safe_add_func_int32_t_s_s+0x4a>
    65dd:	83 7d fc 00          	cmpl   $0x0,-0x4(%rbp)
    65e1:	79 13                	jns    65f6 <safe_add_func_int32_t_s_s+0x40>
    65e3:	83 7d f8 00          	cmpl   $0x0,-0x8(%rbp)
    65e7:	79 0d                	jns    65f6 <safe_add_func_int32_t_s_s+0x40>
    65e9:	b8 00 00 00 80       	mov    $0x80000000,%eax
    65ee:	2b 45 f8             	sub    -0x8(%rbp),%eax
    65f1:	39 45 fc             	cmp    %eax,-0x4(%rbp)
    65f4:	7c 0a                	jl     6600 <safe_add_func_int32_t_s_s+0x4a>
    65f6:	8b 55 fc             	mov    -0x4(%rbp),%edx
    65f9:	8b 45 f8             	mov    -0x8(%rbp),%eax
    65fc:	01 d0                	add    %edx,%eax
    65fe:	eb 03                	jmp    6603 <safe_add_func_int32_t_s_s+0x4d>
    6600:	8b 45 fc             	mov    -0x4(%rbp),%eax
    6603:	5d                   	pop    %rbp
    6604:	c3                   	retq   

0000000000006605 <safe_sub_func_int32_t_s_s>:
    6605:	f3 0f 1e fa          	endbr64 
    6609:	55                   	push   %rbp
    660a:	48 89 e5             	mov    %rsp,%rbp
    660d:	89 7d fc             	mov    %edi,-0x4(%rbp)
    6610:	89 75 f8             	mov    %esi,-0x8(%rbp)
    6613:	8b 45 fc             	mov    -0x4(%rbp),%eax
    6616:	33 45 f8             	xor    -0x8(%rbp),%eax
    6619:	89 c2                	mov    %eax,%edx
    661b:	8b 45 fc             	mov    -0x4(%rbp),%eax
    661e:	33 45 f8             	xor    -0x8(%rbp),%eax
    6621:	25 00 00 00 80       	and    $0x80000000,%eax
    6626:	33 45 fc             	xor    -0x4(%rbp),%eax
    6629:	2b 45 f8             	sub    -0x8(%rbp),%eax
    662c:	33 45 f8             	xor    -0x8(%rbp),%eax
    662f:	21 d0                	and    %edx,%eax
    6631:	85 c0                	test   %eax,%eax
    6633:	78 08                	js     663d <safe_sub_func_int32_t_s_s+0x38>
    6635:	8b 45 fc             	mov    -0x4(%rbp),%eax
    6638:	2b 45 f8             	sub    -0x8(%rbp),%eax
    663b:	eb 03                	jmp    6640 <safe_sub_func_int32_t_s_s+0x3b>
    663d:	8b 45 fc             	mov    -0x4(%rbp),%eax
    6640:	5d                   	pop    %rbp
    6641:	c3                   	retq   

0000000000006642 <safe_mul_func_int32_t_s_s>:
    6642:	f3 0f 1e fa          	endbr64 
    6646:	55                   	push   %rbp
    6647:	48 89 e5             	mov    %rsp,%rbp
    664a:	89 7d fc             	mov    %edi,-0x4(%rbp)
    664d:	89 75 f8             	mov    %esi,-0x8(%rbp)
    6650:	83 7d fc 00          	cmpl   $0x0,-0x4(%rbp)
    6654:	7e 14                	jle    666a <safe_mul_func_int32_t_s_s+0x28>
    6656:	83 7d f8 00          	cmpl   $0x0,-0x8(%rbp)
    665a:	7e 0e                	jle    666a <safe_mul_func_int32_t_s_s+0x28>
    665c:	b8 ff ff ff 7f       	mov    $0x7fffffff,%eax
    6661:	99                   	cltd   
    6662:	f7 7d f8             	idivl  -0x8(%rbp)
    6665:	39 45 fc             	cmp    %eax,-0x4(%rbp)
    6668:	7f 5d                	jg     66c7 <safe_mul_func_int32_t_s_s+0x85>
    666a:	83 7d fc 00          	cmpl   $0x0,-0x4(%rbp)
    666e:	7e 14                	jle    6684 <safe_mul_func_int32_t_s_s+0x42>
    6670:	83 7d f8 00          	cmpl   $0x0,-0x8(%rbp)
    6674:	7f 0e                	jg     6684 <safe_mul_func_int32_t_s_s+0x42>
    6676:	b8 00 00 00 80       	mov    $0x80000000,%eax
    667b:	99                   	cltd   
    667c:	f7 7d fc             	idivl  -0x4(%rbp)
    667f:	39 45 f8             	cmp    %eax,-0x8(%rbp)
    6682:	7c 43                	jl     66c7 <safe_mul_func_int32_t_s_s+0x85>
    6684:	83 7d fc 00          	cmpl   $0x0,-0x4(%rbp)
    6688:	7f 14                	jg     669e <safe_mul_func_int32_t_s_s+0x5c>
    668a:	83 7d f8 00          	cmpl   $0x0,-0x8(%rbp)
    668e:	7e 0e                	jle    669e <safe_mul_func_int32_t_s_s+0x5c>
    6690:	b8 00 00 00 80       	mov    $0x80000000,%eax
    6695:	99                   	cltd   
    6696:	f7 7d f8             	idivl  -0x8(%rbp)
    6699:	39 45 fc             	cmp    %eax,-0x4(%rbp)
    669c:	7c 29                	jl     66c7 <safe_mul_func_int32_t_s_s+0x85>
    669e:	83 7d fc 00          	cmpl   $0x0,-0x4(%rbp)
    66a2:	7f 1a                	jg     66be <safe_mul_func_int32_t_s_s+0x7c>
    66a4:	83 7d f8 00          	cmpl   $0x0,-0x8(%rbp)
    66a8:	7f 14                	jg     66be <safe_mul_func_int32_t_s_s+0x7c>
    66aa:	83 7d fc 00          	cmpl   $0x0,-0x4(%rbp)
    66ae:	74 0e                	je     66be <safe_mul_func_int32_t_s_s+0x7c>
    66b0:	b8 ff ff ff 7f       	mov    $0x7fffffff,%eax
    66b5:	99                   	cltd   
    66b6:	f7 7d fc             	idivl  -0x4(%rbp)
    66b9:	39 45 f8             	cmp    %eax,-0x8(%rbp)
    66bc:	7c 09                	jl     66c7 <safe_mul_func_int32_t_s_s+0x85>
    66be:	8b 45 fc             	mov    -0x4(%rbp),%eax
    66c1:	0f af 45 f8          	imul   -0x8(%rbp),%eax
    66c5:	eb 03                	jmp    66ca <safe_mul_func_int32_t_s_s+0x88>
    66c7:	8b 45 fc             	mov    -0x4(%rbp),%eax
    66ca:	5d                   	pop    %rbp
    66cb:	c3                   	retq   

00000000000066cc <safe_mod_func_int32_t_s_s>:
    66cc:	f3 0f 1e fa          	endbr64 
    66d0:	55                   	push   %rbp
    66d1:	48 89 e5             	mov    %rsp,%rbp
    66d4:	89 7d fc             	mov    %edi,-0x4(%rbp)
    66d7:	89 75 f8             	mov    %esi,-0x8(%rbp)
    66da:	83 7d f8 00          	cmpl   $0x0,-0x8(%rbp)
    66de:	74 1a                	je     66fa <safe_mod_func_int32_t_s_s+0x2e>
    66e0:	81 7d fc 00 00 00 80 	cmpl   $0x80000000,-0x4(%rbp)
    66e7:	75 06                	jne    66ef <safe_mod_func_int32_t_s_s+0x23>
    66e9:	83 7d f8 ff          	cmpl   $0xffffffff,-0x8(%rbp)
    66ed:	74 0b                	je     66fa <safe_mod_func_int32_t_s_s+0x2e>
    66ef:	8b 45 fc             	mov    -0x4(%rbp),%eax
    66f2:	99                   	cltd   
    66f3:	f7 7d f8             	idivl  -0x8(%rbp)
    66f6:	89 d0                	mov    %edx,%eax
    66f8:	eb 03                	jmp    66fd <safe_mod_func_int32_t_s_s+0x31>
    66fa:	8b 45 fc             	mov    -0x4(%rbp),%eax
    66fd:	5d                   	pop    %rbp
    66fe:	c3                   	retq   

00000000000066ff <safe_div_func_int32_t_s_s>:
    66ff:	f3 0f 1e fa          	endbr64 
    6703:	55                   	push   %rbp
    6704:	48 89 e5             	mov    %rsp,%rbp
    6707:	89 7d fc             	mov    %edi,-0x4(%rbp)
    670a:	89 75 f8             	mov    %esi,-0x8(%rbp)
    670d:	83 7d f8 00          	cmpl   $0x0,-0x8(%rbp)
    6711:	74 18                	je     672b <safe_div_func_int32_t_s_s+0x2c>
    6713:	81 7d fc 00 00 00 80 	cmpl   $0x80000000,-0x4(%rbp)
    671a:	75 06                	jne    6722 <safe_div_func_int32_t_s_s+0x23>
    671c:	83 7d f8 ff          	cmpl   $0xffffffff,-0x8(%rbp)
    6720:	74 09                	je     672b <safe_div_func_int32_t_s_s+0x2c>
    6722:	8b 45 fc             	mov    -0x4(%rbp),%eax
    6725:	99                   	cltd   
    6726:	f7 7d f8             	idivl  -0x8(%rbp)
    6729:	eb 03                	jmp    672e <safe_div_func_int32_t_s_s+0x2f>
    672b:	8b 45 fc             	mov    -0x4(%rbp),%eax
    672e:	5d                   	pop    %rbp
    672f:	c3                   	retq   

0000000000006730 <safe_lshift_func_int32_t_s_s>:
    6730:	f3 0f 1e fa          	endbr64 
    6734:	55                   	push   %rbp
    6735:	48 89 e5             	mov    %rsp,%rbp
    6738:	89 7d fc             	mov    %edi,-0x4(%rbp)
    673b:	89 75 f8             	mov    %esi,-0x8(%rbp)
    673e:	83 7d fc 00          	cmpl   $0x0,-0x4(%rbp)
    6742:	78 2d                	js     6771 <safe_lshift_func_int32_t_s_s+0x41>
    6744:	83 7d f8 00          	cmpl   $0x0,-0x8(%rbp)
    6748:	78 27                	js     6771 <safe_lshift_func_int32_t_s_s+0x41>
    674a:	83 7d f8 1f          	cmpl   $0x1f,-0x8(%rbp)
    674e:	7f 21                	jg     6771 <safe_lshift_func_int32_t_s_s+0x41>
    6750:	8b 45 f8             	mov    -0x8(%rbp),%eax
    6753:	ba ff ff ff 7f       	mov    $0x7fffffff,%edx
    6758:	89 c1                	mov    %eax,%ecx
    675a:	d3 fa                	sar    %cl,%edx
    675c:	89 d0                	mov    %edx,%eax
    675e:	39 45 fc             	cmp    %eax,-0x4(%rbp)
    6761:	7f 0e                	jg     6771 <safe_lshift_func_int32_t_s_s+0x41>
    6763:	8b 45 f8             	mov    -0x8(%rbp),%eax
    6766:	8b 55 fc             	mov    -0x4(%rbp),%edx
    6769:	89 c1                	mov    %eax,%ecx
    676b:	d3 e2                	shl    %cl,%edx
    676d:	89 d0                	mov    %edx,%eax
    676f:	eb 03                	jmp    6774 <safe_lshift_func_int32_t_s_s+0x44>
    6771:	8b 45 fc             	mov    -0x4(%rbp),%eax
    6774:	5d                   	pop    %rbp
    6775:	c3                   	retq   

0000000000006776 <safe_lshift_func_int32_t_s_u>:
    6776:	f3 0f 1e fa          	endbr64 
    677a:	55                   	push   %rbp
    677b:	48 89 e5             	mov    %rsp,%rbp
    677e:	89 7d fc             	mov    %edi,-0x4(%rbp)
    6781:	89 75 f8             	mov    %esi,-0x8(%rbp)
    6784:	83 7d fc 00          	cmpl   $0x0,-0x4(%rbp)
    6788:	78 27                	js     67b1 <safe_lshift_func_int32_t_s_u+0x3b>
    678a:	83 7d f8 1f          	cmpl   $0x1f,-0x8(%rbp)
    678e:	77 21                	ja     67b1 <safe_lshift_func_int32_t_s_u+0x3b>
    6790:	8b 45 f8             	mov    -0x8(%rbp),%eax
    6793:	ba ff ff ff 7f       	mov    $0x7fffffff,%edx
    6798:	89 c1                	mov    %eax,%ecx
    679a:	d3 fa                	sar    %cl,%edx
    679c:	89 d0                	mov    %edx,%eax
    679e:	39 45 fc             	cmp    %eax,-0x4(%rbp)
    67a1:	7f 0e                	jg     67b1 <safe_lshift_func_int32_t_s_u+0x3b>
    67a3:	8b 45 f8             	mov    -0x8(%rbp),%eax
    67a6:	8b 55 fc             	mov    -0x4(%rbp),%edx
    67a9:	89 c1                	mov    %eax,%ecx
    67ab:	d3 e2                	shl    %cl,%edx
    67ad:	89 d0                	mov    %edx,%eax
    67af:	eb 03                	jmp    67b4 <safe_lshift_func_int32_t_s_u+0x3e>
    67b1:	8b 45 fc             	mov    -0x4(%rbp),%eax
    67b4:	5d                   	pop    %rbp
    67b5:	c3                   	retq   

00000000000067b6 <safe_rshift_func_int32_t_s_s>:
    67b6:	f3 0f 1e fa          	endbr64 
    67ba:	55                   	push   %rbp
    67bb:	48 89 e5             	mov    %rsp,%rbp
    67be:	89 7d fc             	mov    %edi,-0x4(%rbp)
    67c1:	89 75 f8             	mov    %esi,-0x8(%rbp)
    67c4:	83 7d fc 00          	cmpl   $0x0,-0x4(%rbp)
    67c8:	78 1a                	js     67e4 <safe_rshift_func_int32_t_s_s+0x2e>
    67ca:	83 7d f8 00          	cmpl   $0x0,-0x8(%rbp)
    67ce:	78 14                	js     67e4 <safe_rshift_func_int32_t_s_s+0x2e>
    67d0:	83 7d f8 1f          	cmpl   $0x1f,-0x8(%rbp)
    67d4:	7f 0e                	jg     67e4 <safe_rshift_func_int32_t_s_s+0x2e>
    67d6:	8b 45 f8             	mov    -0x8(%rbp),%eax
    67d9:	8b 55 fc             	mov    -0x4(%rbp),%edx
    67dc:	89 c1                	mov    %eax,%ecx
    67de:	d3 fa                	sar    %cl,%edx
    67e0:	89 d0                	mov    %edx,%eax
    67e2:	eb 03                	jmp    67e7 <safe_rshift_func_int32_t_s_s+0x31>
    67e4:	8b 45 fc             	mov    -0x4(%rbp),%eax
    67e7:	5d                   	pop    %rbp
    67e8:	c3                   	retq   

00000000000067e9 <safe_rshift_func_int32_t_s_u>:
    67e9:	f3 0f 1e fa          	endbr64 
    67ed:	55                   	push   %rbp
    67ee:	48 89 e5             	mov    %rsp,%rbp
    67f1:	89 7d fc             	mov    %edi,-0x4(%rbp)
    67f4:	89 75 f8             	mov    %esi,-0x8(%rbp)
    67f7:	83 7d fc 00          	cmpl   $0x0,-0x4(%rbp)
    67fb:	78 14                	js     6811 <safe_rshift_func_int32_t_s_u+0x28>
    67fd:	83 7d f8 1f          	cmpl   $0x1f,-0x8(%rbp)
    6801:	77 0e                	ja     6811 <safe_rshift_func_int32_t_s_u+0x28>
    6803:	8b 45 f8             	mov    -0x8(%rbp),%eax
    6806:	8b 55 fc             	mov    -0x4(%rbp),%edx
    6809:	89 c1                	mov    %eax,%ecx
    680b:	d3 fa                	sar    %cl,%edx
    680d:	89 d0                	mov    %edx,%eax
    680f:	eb 03                	jmp    6814 <safe_rshift_func_int32_t_s_u+0x2b>
    6811:	8b 45 fc             	mov    -0x4(%rbp),%eax
    6814:	5d                   	pop    %rbp
    6815:	c3                   	retq   

0000000000006816 <safe_unary_minus_func_int64_t_s>:
    6816:	f3 0f 1e fa          	endbr64 
    681a:	55                   	push   %rbp
    681b:	48 89 e5             	mov    %rsp,%rbp
    681e:	48 89 7d f8          	mov    %rdi,-0x8(%rbp)
    6822:	48 b8 00 00 00 00 00 	movabs $0x8000000000000000,%rax
    6829:	00 00 80 
    682c:	48 39 45 f8          	cmp    %rax,-0x8(%rbp)
    6830:	74 09                	je     683b <safe_unary_minus_func_int64_t_s+0x25>
    6832:	48 8b 45 f8          	mov    -0x8(%rbp),%rax
    6836:	48 f7 d8             	neg    %rax
    6839:	eb 04                	jmp    683f <safe_unary_minus_func_int64_t_s+0x29>
    683b:	48 8b 45 f8          	mov    -0x8(%rbp),%rax
    683f:	5d                   	pop    %rbp
    6840:	c3                   	retq   

0000000000006841 <safe_add_func_int64_t_s_s>:
    6841:	f3 0f 1e fa          	endbr64 
    6845:	55                   	push   %rbp
    6846:	48 89 e5             	mov    %rsp,%rbp
    6849:	48 89 7d f8          	mov    %rdi,-0x8(%rbp)
    684d:	48 89 75 f0          	mov    %rsi,-0x10(%rbp)
    6851:	48 83 7d f8 00       	cmpq   $0x0,-0x8(%rbp)
    6856:	7e 1b                	jle    6873 <safe_add_func_int64_t_s_s+0x32>
    6858:	48 83 7d f0 00       	cmpq   $0x0,-0x10(%rbp)
    685d:	7e 14                	jle    6873 <safe_add_func_int64_t_s_s+0x32>
    685f:	48 b8 ff ff ff ff ff 	movabs $0x7fffffffffffffff,%rax
    6866:	ff ff 7f 
    6869:	48 2b 45 f0          	sub    -0x10(%rbp),%rax
    686d:	48 39 45 f8          	cmp    %rax,-0x8(%rbp)
    6871:	7f 2f                	jg     68a2 <safe_add_func_int64_t_s_s+0x61>
    6873:	48 83 7d f8 00       	cmpq   $0x0,-0x8(%rbp)
    6878:	79 1b                	jns    6895 <safe_add_func_int64_t_s_s+0x54>
    687a:	48 83 7d f0 00       	cmpq   $0x0,-0x10(%rbp)
    687f:	79 14                	jns    6895 <safe_add_func_int64_t_s_s+0x54>
    6881:	48 b8 00 00 00 00 00 	movabs $0x8000000000000000,%rax
    6888:	00 00 80 
    688b:	48 2b 45 f0          	sub    -0x10(%rbp),%rax
    688f:	48 39 45 f8          	cmp    %rax,-0x8(%rbp)
    6893:	7c 0d                	jl     68a2 <safe_add_func_int64_t_s_s+0x61>
    6895:	48 8b 55 f8          	mov    -0x8(%rbp),%rdx
    6899:	48 8b 45 f0          	mov    -0x10(%rbp),%rax
    689d:	48 01 d0             	add    %rdx,%rax
    68a0:	eb 04                	jmp    68a6 <safe_add_func_int64_t_s_s+0x65>
    68a2:	48 8b 45 f8          	mov    -0x8(%rbp),%rax
    68a6:	5d                   	pop    %rbp
    68a7:	c3                   	retq   

00000000000068a8 <safe_sub_func_int64_t_s_s>:
    68a8:	f3 0f 1e fa          	endbr64 
    68ac:	55                   	push   %rbp
    68ad:	48 89 e5             	mov    %rsp,%rbp
    68b0:	48 89 7d f8          	mov    %rdi,-0x8(%rbp)
    68b4:	48 89 75 f0          	mov    %rsi,-0x10(%rbp)
    68b8:	48 8b 45 f8          	mov    -0x8(%rbp),%rax
    68bc:	48 33 45 f0          	xor    -0x10(%rbp),%rax
    68c0:	48 89 c2             	mov    %rax,%rdx
    68c3:	48 8b 45 f8          	mov    -0x8(%rbp),%rax
    68c7:	48 33 45 f0          	xor    -0x10(%rbp),%rax
    68cb:	48 b9 00 00 00 00 00 	movabs $0x8000000000000000,%rcx
    68d2:	00 00 80 
    68d5:	48 21 c8             	and    %rcx,%rax
    68d8:	48 33 45 f8          	xor    -0x8(%rbp),%rax
    68dc:	48 2b 45 f0          	sub    -0x10(%rbp),%rax
    68e0:	48 33 45 f0          	xor    -0x10(%rbp),%rax
    68e4:	48 21 d0             	and    %rdx,%rax
    68e7:	48 85 c0             	test   %rax,%rax
    68ea:	78 0a                	js     68f6 <safe_sub_func_int64_t_s_s+0x4e>
    68ec:	48 8b 45 f8          	mov    -0x8(%rbp),%rax
    68f0:	48 2b 45 f0          	sub    -0x10(%rbp),%rax
    68f4:	eb 04                	jmp    68fa <safe_sub_func_int64_t_s_s+0x52>
    68f6:	48 8b 45 f8          	mov    -0x8(%rbp),%rax
    68fa:	5d                   	pop    %rbp
    68fb:	c3                   	retq   

00000000000068fc <safe_mul_func_int64_t_s_s>:
    68fc:	f3 0f 1e fa          	endbr64 
    6900:	55                   	push   %rbp
    6901:	48 89 e5             	mov    %rsp,%rbp
    6904:	48 89 7d f8          	mov    %rdi,-0x8(%rbp)
    6908:	48 89 75 f0          	mov    %rsi,-0x10(%rbp)
    690c:	48 83 7d f8 00       	cmpq   $0x0,-0x8(%rbp)
    6911:	7e 1d                	jle    6930 <safe_mul_func_int64_t_s_s+0x34>
    6913:	48 83 7d f0 00       	cmpq   $0x0,-0x10(%rbp)
    6918:	7e 16                	jle    6930 <safe_mul_func_int64_t_s_s+0x34>
    691a:	48 b8 ff ff ff ff ff 	movabs $0x7fffffffffffffff,%rax
    6921:	ff ff 7f 
    6924:	48 99                	cqto   
    6926:	48 f7 7d f0          	idivq  -0x10(%rbp)
    692a:	48 39 45 f8          	cmp    %rax,-0x8(%rbp)
    692e:	7f 7e                	jg     69ae <safe_mul_func_int64_t_s_s+0xb2>
    6930:	48 83 7d f8 00       	cmpq   $0x0,-0x8(%rbp)
    6935:	7e 1d                	jle    6954 <safe_mul_func_int64_t_s_s+0x58>
    6937:	48 83 7d f0 00       	cmpq   $0x0,-0x10(%rbp)
    693c:	7f 16                	jg     6954 <safe_mul_func_int64_t_s_s+0x58>
    693e:	48 b8 00 00 00 00 00 	movabs $0x8000000000000000,%rax
    6945:	00 00 80 
    6948:	48 99                	cqto   
    694a:	48 f7 7d f8          	idivq  -0x8(%rbp)
    694e:	48 39 45 f0          	cmp    %rax,-0x10(%rbp)
    6952:	7c 5a                	jl     69ae <safe_mul_func_int64_t_s_s+0xb2>
    6954:	48 83 7d f8 00       	cmpq   $0x0,-0x8(%rbp)
    6959:	7f 1d                	jg     6978 <safe_mul_func_int64_t_s_s+0x7c>
    695b:	48 83 7d f0 00       	cmpq   $0x0,-0x10(%rbp)
    6960:	7e 16                	jle    6978 <safe_mul_func_int64_t_s_s+0x7c>
    6962:	48 b8 00 00 00 00 00 	movabs $0x8000000000000000,%rax
    6969:	00 00 80 
    696c:	48 99                	cqto   
    696e:	48 f7 7d f0          	idivq  -0x10(%rbp)
    6972:	48 39 45 f8          	cmp    %rax,-0x8(%rbp)
    6976:	7c 36                	jl     69ae <safe_mul_func_int64_t_s_s+0xb2>
    6978:	48 83 7d f8 00       	cmpq   $0x0,-0x8(%rbp)
    697d:	7f 24                	jg     69a3 <safe_mul_func_int64_t_s_s+0xa7>
    697f:	48 83 7d f0 00       	cmpq   $0x0,-0x10(%rbp)
    6984:	7f 1d                	jg     69a3 <safe_mul_func_int64_t_s_s+0xa7>
    6986:	48 83 7d f8 00       	cmpq   $0x0,-0x8(%rbp)
    698b:	74 16                	je     69a3 <safe_mul_func_int64_t_s_s+0xa7>
    698d:	48 b8 ff ff ff ff ff 	movabs $0x7fffffffffffffff,%rax
    6994:	ff ff 7f 
    6997:	48 99                	cqto   
    6999:	48 f7 7d f8          	idivq  -0x8(%rbp)
    699d:	48 39 45 f0          	cmp    %rax,-0x10(%rbp)
    69a1:	7c 0b                	jl     69ae <safe_mul_func_int64_t_s_s+0xb2>
    69a3:	48 8b 45 f8          	mov    -0x8(%rbp),%rax
    69a7:	48 0f af 45 f0       	imul   -0x10(%rbp),%rax
    69ac:	eb 04                	jmp    69b2 <safe_mul_func_int64_t_s_s+0xb6>
    69ae:	48 8b 45 f8          	mov    -0x8(%rbp),%rax
    69b2:	5d                   	pop    %rbp
    69b3:	c3                   	retq   

00000000000069b4 <safe_mod_func_int64_t_s_s>:
    69b4:	f3 0f 1e fa          	endbr64 
    69b8:	55                   	push   %rbp
    69b9:	48 89 e5             	mov    %rsp,%rbp
    69bc:	48 89 7d f8          	mov    %rdi,-0x8(%rbp)
    69c0:	48 89 75 f0          	mov    %rsi,-0x10(%rbp)
    69c4:	48 83 7d f0 00       	cmpq   $0x0,-0x10(%rbp)
    69c9:	74 26                	je     69f1 <safe_mod_func_int64_t_s_s+0x3d>
    69cb:	48 b8 00 00 00 00 00 	movabs $0x8000000000000000,%rax
    69d2:	00 00 80 
    69d5:	48 39 45 f8          	cmp    %rax,-0x8(%rbp)
    69d9:	75 07                	jne    69e2 <safe_mod_func_int64_t_s_s+0x2e>
    69db:	48 83 7d f0 ff       	cmpq   $0xffffffffffffffff,-0x10(%rbp)
    69e0:	74 0f                	je     69f1 <safe_mod_func_int64_t_s_s+0x3d>
    69e2:	48 8b 45 f8          	mov    -0x8(%rbp),%rax
    69e6:	48 99                	cqto   
    69e8:	48 f7 7d f0          	idivq  -0x10(%rbp)
    69ec:	48 89 d0             	mov    %rdx,%rax
    69ef:	eb 04                	jmp    69f5 <safe_mod_func_int64_t_s_s+0x41>
    69f1:	48 8b 45 f8          	mov    -0x8(%rbp),%rax
    69f5:	5d                   	pop    %rbp
    69f6:	c3                   	retq   

00000000000069f7 <safe_div_func_int64_t_s_s>:
    69f7:	f3 0f 1e fa          	endbr64 
    69fb:	55                   	push   %rbp
    69fc:	48 89 e5             	mov    %rsp,%rbp
    69ff:	48 89 7d f8          	mov    %rdi,-0x8(%rbp)
    6a03:	48 89 75 f0          	mov    %rsi,-0x10(%rbp)
    6a07:	48 83 7d f0 00       	cmpq   $0x0,-0x10(%rbp)
    6a0c:	74 23                	je     6a31 <safe_div_func_int64_t_s_s+0x3a>
    6a0e:	48 b8 00 00 00 00 00 	movabs $0x8000000000000000,%rax
    6a15:	00 00 80 
    6a18:	48 39 45 f8          	cmp    %rax,-0x8(%rbp)
    6a1c:	75 07                	jne    6a25 <safe_div_func_int64_t_s_s+0x2e>
    6a1e:	48 83 7d f0 ff       	cmpq   $0xffffffffffffffff,-0x10(%rbp)
    6a23:	74 0c                	je     6a31 <safe_div_func_int64_t_s_s+0x3a>
    6a25:	48 8b 45 f8          	mov    -0x8(%rbp),%rax
    6a29:	48 99                	cqto   
    6a2b:	48 f7 7d f0          	idivq  -0x10(%rbp)
    6a2f:	eb 04                	jmp    6a35 <safe_div_func_int64_t_s_s+0x3e>
    6a31:	48 8b 45 f8          	mov    -0x8(%rbp),%rax
    6a35:	5d                   	pop    %rbp
    6a36:	c3                   	retq   

0000000000006a37 <safe_lshift_func_int64_t_s_s>:
    6a37:	f3 0f 1e fa          	endbr64 
    6a3b:	55                   	push   %rbp
    6a3c:	48 89 e5             	mov    %rsp,%rbp
    6a3f:	48 89 7d f8          	mov    %rdi,-0x8(%rbp)
    6a43:	89 75 f4             	mov    %esi,-0xc(%rbp)
    6a46:	48 83 7d f8 00       	cmpq   $0x0,-0x8(%rbp)
    6a4b:	78 38                	js     6a85 <safe_lshift_func_int64_t_s_s+0x4e>
    6a4d:	83 7d f4 00          	cmpl   $0x0,-0xc(%rbp)
    6a51:	78 32                	js     6a85 <safe_lshift_func_int64_t_s_s+0x4e>
    6a53:	83 7d f4 1f          	cmpl   $0x1f,-0xc(%rbp)
    6a57:	7f 2c                	jg     6a85 <safe_lshift_func_int64_t_s_s+0x4e>
    6a59:	8b 45 f4             	mov    -0xc(%rbp),%eax
    6a5c:	48 ba ff ff ff ff ff 	movabs $0x7fffffffffffffff,%rdx
    6a63:	ff ff 7f 
    6a66:	89 c1                	mov    %eax,%ecx
    6a68:	48 d3 fa             	sar    %cl,%rdx
    6a6b:	48 89 d0             	mov    %rdx,%rax
    6a6e:	48 39 45 f8          	cmp    %rax,-0x8(%rbp)
    6a72:	7f 11                	jg     6a85 <safe_lshift_func_int64_t_s_s+0x4e>
    6a74:	8b 45 f4             	mov    -0xc(%rbp),%eax
    6a77:	48 8b 55 f8          	mov    -0x8(%rbp),%rdx
    6a7b:	89 c1                	mov    %eax,%ecx
    6a7d:	48 d3 e2             	shl    %cl,%rdx
    6a80:	48 89 d0             	mov    %rdx,%rax
    6a83:	eb 04                	jmp    6a89 <safe_lshift_func_int64_t_s_s+0x52>
    6a85:	48 8b 45 f8          	mov    -0x8(%rbp),%rax
    6a89:	5d                   	pop    %rbp
    6a8a:	c3                   	retq   

0000000000006a8b <safe_lshift_func_int64_t_s_u>:
    6a8b:	f3 0f 1e fa          	endbr64 
    6a8f:	55                   	push   %rbp
    6a90:	48 89 e5             	mov    %rsp,%rbp
    6a93:	48 89 7d f8          	mov    %rdi,-0x8(%rbp)
    6a97:	89 75 f4             	mov    %esi,-0xc(%rbp)
    6a9a:	48 83 7d f8 00       	cmpq   $0x0,-0x8(%rbp)
    6a9f:	78 32                	js     6ad3 <safe_lshift_func_int64_t_s_u+0x48>
    6aa1:	83 7d f4 1f          	cmpl   $0x1f,-0xc(%rbp)
    6aa5:	77 2c                	ja     6ad3 <safe_lshift_func_int64_t_s_u+0x48>
    6aa7:	8b 45 f4             	mov    -0xc(%rbp),%eax
    6aaa:	48 ba ff ff ff ff ff 	movabs $0x7fffffffffffffff,%rdx
    6ab1:	ff ff 7f 
    6ab4:	89 c1                	mov    %eax,%ecx
    6ab6:	48 d3 fa             	sar    %cl,%rdx
    6ab9:	48 89 d0             	mov    %rdx,%rax
    6abc:	48 39 45 f8          	cmp    %rax,-0x8(%rbp)
    6ac0:	7f 11                	jg     6ad3 <safe_lshift_func_int64_t_s_u+0x48>
    6ac2:	8b 45 f4             	mov    -0xc(%rbp),%eax
    6ac5:	48 8b 55 f8          	mov    -0x8(%rbp),%rdx
    6ac9:	89 c1                	mov    %eax,%ecx
    6acb:	48 d3 e2             	shl    %cl,%rdx
    6ace:	48 89 d0             	mov    %rdx,%rax
    6ad1:	eb 04                	jmp    6ad7 <safe_lshift_func_int64_t_s_u+0x4c>
    6ad3:	48 8b 45 f8          	mov    -0x8(%rbp),%rax
    6ad7:	5d                   	pop    %rbp
    6ad8:	c3                   	retq   

0000000000006ad9 <safe_rshift_func_int64_t_s_s>:
    6ad9:	f3 0f 1e fa          	endbr64 
    6add:	55                   	push   %rbp
    6ade:	48 89 e5             	mov    %rsp,%rbp
    6ae1:	48 89 7d f8          	mov    %rdi,-0x8(%rbp)
    6ae5:	89 75 f4             	mov    %esi,-0xc(%rbp)
    6ae8:	48 83 7d f8 00       	cmpq   $0x0,-0x8(%rbp)
    6aed:	78 1d                	js     6b0c <safe_rshift_func_int64_t_s_s+0x33>
    6aef:	83 7d f4 00          	cmpl   $0x0,-0xc(%rbp)
    6af3:	78 17                	js     6b0c <safe_rshift_func_int64_t_s_s+0x33>
    6af5:	83 7d f4 1f          	cmpl   $0x1f,-0xc(%rbp)
    6af9:	7f 11                	jg     6b0c <safe_rshift_func_int64_t_s_s+0x33>
    6afb:	8b 45 f4             	mov    -0xc(%rbp),%eax
    6afe:	48 8b 55 f8          	mov    -0x8(%rbp),%rdx
    6b02:	89 c1                	mov    %eax,%ecx
    6b04:	48 d3 fa             	sar    %cl,%rdx
    6b07:	48 89 d0             	mov    %rdx,%rax
    6b0a:	eb 04                	jmp    6b10 <safe_rshift_func_int64_t_s_s+0x37>
    6b0c:	48 8b 45 f8          	mov    -0x8(%rbp),%rax
    6b10:	5d                   	pop    %rbp
    6b11:	c3                   	retq   

0000000000006b12 <safe_rshift_func_int64_t_s_u>:
    6b12:	f3 0f 1e fa          	endbr64 
    6b16:	55                   	push   %rbp
    6b17:	48 89 e5             	mov    %rsp,%rbp
    6b1a:	48 89 7d f8          	mov    %rdi,-0x8(%rbp)
    6b1e:	89 75 f4             	mov    %esi,-0xc(%rbp)
    6b21:	48 83 7d f8 00       	cmpq   $0x0,-0x8(%rbp)
    6b26:	78 17                	js     6b3f <safe_rshift_func_int64_t_s_u+0x2d>
    6b28:	83 7d f4 1f          	cmpl   $0x1f,-0xc(%rbp)
    6b2c:	77 11                	ja     6b3f <safe_rshift_func_int64_t_s_u+0x2d>
    6b2e:	8b 45 f4             	mov    -0xc(%rbp),%eax
    6b31:	48 8b 55 f8          	mov    -0x8(%rbp),%rdx
    6b35:	89 c1                	mov    %eax,%ecx
    6b37:	48 d3 fa             	sar    %cl,%rdx
    6b3a:	48 89 d0             	mov    %rdx,%rax
    6b3d:	eb 04                	jmp    6b43 <safe_rshift_func_int64_t_s_u+0x31>
    6b3f:	48 8b 45 f8          	mov    -0x8(%rbp),%rax
    6b43:	5d                   	pop    %rbp
    6b44:	c3                   	retq   

0000000000006b45 <safe_unary_minus_func_uint8_t_u>:
    6b45:	f3 0f 1e fa          	endbr64 
    6b49:	55                   	push   %rbp
    6b4a:	48 89 e5             	mov    %rsp,%rbp
    6b4d:	89 f8                	mov    %edi,%eax
    6b4f:	88 45 fc             	mov    %al,-0x4(%rbp)
    6b52:	0f b6 45 fc          	movzbl -0x4(%rbp),%eax
    6b56:	f7 d8                	neg    %eax
    6b58:	5d                   	pop    %rbp
    6b59:	c3                   	retq   

0000000000006b5a <safe_add_func_uint8_t_u_u>:
    6b5a:	f3 0f 1e fa          	endbr64 
    6b5e:	55                   	push   %rbp
    6b5f:	48 89 e5             	mov    %rsp,%rbp
    6b62:	89 fa                	mov    %edi,%edx
    6b64:	89 f0                	mov    %esi,%eax
    6b66:	88 55 fc             	mov    %dl,-0x4(%rbp)
    6b69:	88 45 f8             	mov    %al,-0x8(%rbp)
    6b6c:	0f b6 55 fc          	movzbl -0x4(%rbp),%edx
    6b70:	0f b6 45 f8          	movzbl -0x8(%rbp),%eax
    6b74:	01 d0                	add    %edx,%eax
    6b76:	5d                   	pop    %rbp
    6b77:	c3                   	retq   

0000000000006b78 <safe_sub_func_uint8_t_u_u>:
    6b78:	f3 0f 1e fa          	endbr64 
    6b7c:	55                   	push   %rbp
    6b7d:	48 89 e5             	mov    %rsp,%rbp
    6b80:	89 fa                	mov    %edi,%edx
    6b82:	89 f0                	mov    %esi,%eax
    6b84:	88 55 fc             	mov    %dl,-0x4(%rbp)
    6b87:	88 45 f8             	mov    %al,-0x8(%rbp)
    6b8a:	0f b6 45 fc          	movzbl -0x4(%rbp),%eax
    6b8e:	2a 45 f8             	sub    -0x8(%rbp),%al
    6b91:	5d                   	pop    %rbp
    6b92:	c3                   	retq   

0000000000006b93 <safe_mul_func_uint8_t_u_u>:
    6b93:	f3 0f 1e fa          	endbr64 
    6b97:	55                   	push   %rbp
    6b98:	48 89 e5             	mov    %rsp,%rbp
    6b9b:	89 fa                	mov    %edi,%edx
    6b9d:	89 f0                	mov    %esi,%eax
    6b9f:	88 55 fc             	mov    %dl,-0x4(%rbp)
    6ba2:	88 45 f8             	mov    %al,-0x8(%rbp)
    6ba5:	0f b6 45 fc          	movzbl -0x4(%rbp),%eax
    6ba9:	f6 65 f8             	mulb   -0x8(%rbp)
    6bac:	5d                   	pop    %rbp
    6bad:	c3                   	retq   

0000000000006bae <safe_mod_func_uint8_t_u_u>:
    6bae:	f3 0f 1e fa          	endbr64 
    6bb2:	55                   	push   %rbp
    6bb3:	48 89 e5             	mov    %rsp,%rbp
    6bb6:	89 fa                	mov    %edi,%edx
    6bb8:	89 f0                	mov    %esi,%eax
    6bba:	88 55 fc             	mov    %dl,-0x4(%rbp)
    6bbd:	88 45 f8             	mov    %al,-0x8(%rbp)
    6bc0:	80 7d f8 00          	cmpb   $0x0,-0x8(%rbp)
    6bc4:	74 0f                	je     6bd5 <safe_mod_func_uint8_t_u_u+0x27>
    6bc6:	0f b6 45 fc          	movzbl -0x4(%rbp),%eax
    6bca:	0f b6 c0             	movzbl %al,%eax
    6bcd:	f6 75 f8             	divb   -0x8(%rbp)
    6bd0:	0f b6 c4             	movzbl %ah,%eax
    6bd3:	eb 04                	jmp    6bd9 <safe_mod_func_uint8_t_u_u+0x2b>
    6bd5:	0f b6 45 fc          	movzbl -0x4(%rbp),%eax
    6bd9:	5d                   	pop    %rbp
    6bda:	c3                   	retq   

0000000000006bdb <safe_div_func_uint8_t_u_u>:
    6bdb:	f3 0f 1e fa          	endbr64 
    6bdf:	55                   	push   %rbp
    6be0:	48 89 e5             	mov    %rsp,%rbp
    6be3:	89 fa                	mov    %edi,%edx
    6be5:	89 f0                	mov    %esi,%eax
    6be7:	88 55 fc             	mov    %dl,-0x4(%rbp)
    6bea:	88 45 f8             	mov    %al,-0x8(%rbp)
    6bed:	80 7d f8 00          	cmpb   $0x0,-0x8(%rbp)
    6bf1:	74 0c                	je     6bff <safe_div_func_uint8_t_u_u+0x24>
    6bf3:	0f b6 45 fc          	movzbl -0x4(%rbp),%eax
    6bf7:	0f b6 c0             	movzbl %al,%eax
    6bfa:	f6 75 f8             	divb   -0x8(%rbp)
    6bfd:	eb 04                	jmp    6c03 <safe_div_func_uint8_t_u_u+0x28>
    6bff:	0f b6 45 fc          	movzbl -0x4(%rbp),%eax
    6c03:	5d                   	pop    %rbp
    6c04:	c3                   	retq   

0000000000006c05 <safe_lshift_func_uint8_t_u_s>:
    6c05:	f3 0f 1e fa          	endbr64 
    6c09:	55                   	push   %rbp
    6c0a:	48 89 e5             	mov    %rsp,%rbp
    6c0d:	89 f8                	mov    %edi,%eax
    6c0f:	89 75 f8             	mov    %esi,-0x8(%rbp)
    6c12:	88 45 fc             	mov    %al,-0x4(%rbp)
    6c15:	83 7d f8 00          	cmpl   $0x0,-0x8(%rbp)
    6c19:	78 2b                	js     6c46 <safe_lshift_func_uint8_t_u_s+0x41>
    6c1b:	83 7d f8 1f          	cmpl   $0x1f,-0x8(%rbp)
    6c1f:	7f 25                	jg     6c46 <safe_lshift_func_uint8_t_u_s+0x41>
    6c21:	0f b6 55 fc          	movzbl -0x4(%rbp),%edx
    6c25:	8b 45 f8             	mov    -0x8(%rbp),%eax
    6c28:	be ff 00 00 00       	mov    $0xff,%esi
    6c2d:	89 c1                	mov    %eax,%ecx
    6c2f:	d3 fe                	sar    %cl,%esi
    6c31:	89 f0                	mov    %esi,%eax
    6c33:	39 c2                	cmp    %eax,%edx
    6c35:	7f 0f                	jg     6c46 <safe_lshift_func_uint8_t_u_s+0x41>
    6c37:	0f b6 55 fc          	movzbl -0x4(%rbp),%edx
    6c3b:	8b 45 f8             	mov    -0x8(%rbp),%eax
    6c3e:	89 c1                	mov    %eax,%ecx
    6c40:	d3 e2                	shl    %cl,%edx
    6c42:	89 d0                	mov    %edx,%eax
    6c44:	eb 04                	jmp    6c4a <safe_lshift_func_uint8_t_u_s+0x45>
    6c46:	0f b6 45 fc          	movzbl -0x4(%rbp),%eax
    6c4a:	5d                   	pop    %rbp
    6c4b:	c3                   	retq   

0000000000006c4c <safe_lshift_func_uint8_t_u_u>:
    6c4c:	f3 0f 1e fa          	endbr64 
    6c50:	55                   	push   %rbp
    6c51:	48 89 e5             	mov    %rsp,%rbp
    6c54:	89 f8                	mov    %edi,%eax
    6c56:	89 75 f8             	mov    %esi,-0x8(%rbp)
    6c59:	88 45 fc             	mov    %al,-0x4(%rbp)
    6c5c:	83 7d f8 1f          	cmpl   $0x1f,-0x8(%rbp)
    6c60:	77 25                	ja     6c87 <safe_lshift_func_uint8_t_u_u+0x3b>
    6c62:	0f b6 55 fc          	movzbl -0x4(%rbp),%edx
    6c66:	8b 45 f8             	mov    -0x8(%rbp),%eax
    6c69:	be ff 00 00 00       	mov    $0xff,%esi
    6c6e:	89 c1                	mov    %eax,%ecx
    6c70:	d3 fe                	sar    %cl,%esi
    6c72:	89 f0                	mov    %esi,%eax
    6c74:	39 c2                	cmp    %eax,%edx
    6c76:	7f 0f                	jg     6c87 <safe_lshift_func_uint8_t_u_u+0x3b>
    6c78:	0f b6 55 fc          	movzbl -0x4(%rbp),%edx
    6c7c:	8b 45 f8             	mov    -0x8(%rbp),%eax
    6c7f:	89 c1                	mov    %eax,%ecx
    6c81:	d3 e2                	shl    %cl,%edx
    6c83:	89 d0                	mov    %edx,%eax
    6c85:	eb 04                	jmp    6c8b <safe_lshift_func_uint8_t_u_u+0x3f>
    6c87:	0f b6 45 fc          	movzbl -0x4(%rbp),%eax
    6c8b:	5d                   	pop    %rbp
    6c8c:	c3                   	retq   

0000000000006c8d <safe_rshift_func_uint8_t_u_s>:
    6c8d:	f3 0f 1e fa          	endbr64 
    6c91:	55                   	push   %rbp
    6c92:	48 89 e5             	mov    %rsp,%rbp
    6c95:	89 f8                	mov    %edi,%eax
    6c97:	89 75 f8             	mov    %esi,-0x8(%rbp)
    6c9a:	88 45 fc             	mov    %al,-0x4(%rbp)
    6c9d:	83 7d f8 00          	cmpl   $0x0,-0x8(%rbp)
    6ca1:	78 15                	js     6cb8 <safe_rshift_func_uint8_t_u_s+0x2b>
    6ca3:	83 7d f8 1f          	cmpl   $0x1f,-0x8(%rbp)
    6ca7:	7f 0f                	jg     6cb8 <safe_rshift_func_uint8_t_u_s+0x2b>
    6ca9:	0f b6 55 fc          	movzbl -0x4(%rbp),%edx
    6cad:	8b 45 f8             	mov    -0x8(%rbp),%eax
    6cb0:	89 c1                	mov    %eax,%ecx
    6cb2:	d3 fa                	sar    %cl,%edx
    6cb4:	89 d0                	mov    %edx,%eax
    6cb6:	eb 04                	jmp    6cbc <safe_rshift_func_uint8_t_u_s+0x2f>
    6cb8:	0f b6 45 fc          	movzbl -0x4(%rbp),%eax
    6cbc:	5d                   	pop    %rbp
    6cbd:	c3                   	retq   

0000000000006cbe <safe_rshift_func_uint8_t_u_u>:
    6cbe:	f3 0f 1e fa          	endbr64 
    6cc2:	55                   	push   %rbp
    6cc3:	48 89 e5             	mov    %rsp,%rbp
    6cc6:	89 f8                	mov    %edi,%eax
    6cc8:	89 75 f8             	mov    %esi,-0x8(%rbp)
    6ccb:	88 45 fc             	mov    %al,-0x4(%rbp)
    6cce:	83 7d f8 1f          	cmpl   $0x1f,-0x8(%rbp)
    6cd2:	77 0f                	ja     6ce3 <safe_rshift_func_uint8_t_u_u+0x25>
    6cd4:	0f b6 55 fc          	movzbl -0x4(%rbp),%edx
    6cd8:	8b 45 f8             	mov    -0x8(%rbp),%eax
    6cdb:	89 c1                	mov    %eax,%ecx
    6cdd:	d3 fa                	sar    %cl,%edx
    6cdf:	89 d0                	mov    %edx,%eax
    6ce1:	eb 04                	jmp    6ce7 <safe_rshift_func_uint8_t_u_u+0x29>
    6ce3:	0f b6 45 fc          	movzbl -0x4(%rbp),%eax
    6ce7:	5d                   	pop    %rbp
    6ce8:	c3                   	retq   

0000000000006ce9 <safe_unary_minus_func_uint16_t_u>:
    6ce9:	f3 0f 1e fa          	endbr64 
    6ced:	55                   	push   %rbp
    6cee:	48 89 e5             	mov    %rsp,%rbp
    6cf1:	89 f8                	mov    %edi,%eax
    6cf3:	66 89 45 fc          	mov    %ax,-0x4(%rbp)
    6cf7:	0f b7 45 fc          	movzwl -0x4(%rbp),%eax
    6cfb:	f7 d8                	neg    %eax
    6cfd:	5d                   	pop    %rbp
    6cfe:	c3                   	retq   

0000000000006cff <safe_add_func_uint16_t_u_u>:
    6cff:	f3 0f 1e fa          	endbr64 
    6d03:	55                   	push   %rbp
    6d04:	48 89 e5             	mov    %rsp,%rbp
    6d07:	89 fa                	mov    %edi,%edx
    6d09:	89 f0                	mov    %esi,%eax
    6d0b:	66 89 55 fc          	mov    %dx,-0x4(%rbp)
    6d0f:	66 89 45 f8          	mov    %ax,-0x8(%rbp)
    6d13:	0f b7 55 fc          	movzwl -0x4(%rbp),%edx
    6d17:	0f b7 45 f8          	movzwl -0x8(%rbp),%eax
    6d1b:	01 d0                	add    %edx,%eax
    6d1d:	5d                   	pop    %rbp
    6d1e:	c3                   	retq   

0000000000006d1f <safe_sub_func_uint16_t_u_u>:
    6d1f:	f3 0f 1e fa          	endbr64 
    6d23:	55                   	push   %rbp
    6d24:	48 89 e5             	mov    %rsp,%rbp
    6d27:	89 fa                	mov    %edi,%edx
    6d29:	89 f0                	mov    %esi,%eax
    6d2b:	66 89 55 fc          	mov    %dx,-0x4(%rbp)
    6d2f:	66 89 45 f8          	mov    %ax,-0x8(%rbp)
    6d33:	0f b7 45 fc          	movzwl -0x4(%rbp),%eax
    6d37:	66 2b 45 f8          	sub    -0x8(%rbp),%ax
    6d3b:	5d                   	pop    %rbp
    6d3c:	c3                   	retq   

0000000000006d3d <safe_mul_func_uint16_t_u_u>:
    6d3d:	f3 0f 1e fa          	endbr64 
    6d41:	55                   	push   %rbp
    6d42:	48 89 e5             	mov    %rsp,%rbp
    6d45:	89 fa                	mov    %edi,%edx
    6d47:	89 f0                	mov    %esi,%eax
    6d49:	66 89 55 fc          	mov    %dx,-0x4(%rbp)
    6d4d:	66 89 45 f8          	mov    %ax,-0x8(%rbp)
    6d51:	0f b7 45 fc          	movzwl -0x4(%rbp),%eax
    6d55:	66 0f af 45 f8       	imul   -0x8(%rbp),%ax
    6d5a:	5d                   	pop    %rbp
    6d5b:	c3                   	retq   

0000000000006d5c <safe_mod_func_uint16_t_u_u>:
    6d5c:	f3 0f 1e fa          	endbr64 
    6d60:	55                   	push   %rbp
    6d61:	48 89 e5             	mov    %rsp,%rbp
    6d64:	89 fa                	mov    %edi,%edx
    6d66:	89 f0                	mov    %esi,%eax
    6d68:	66 89 55 fc          	mov    %dx,-0x4(%rbp)
    6d6c:	66 89 45 f8          	mov    %ax,-0x8(%rbp)
    6d70:	66 83 7d f8 00       	cmpw   $0x0,-0x8(%rbp)
    6d75:	74 11                	je     6d88 <safe_mod_func_uint16_t_u_u+0x2c>
    6d77:	0f b7 45 fc          	movzwl -0x4(%rbp),%eax
    6d7b:	ba 00 00 00 00       	mov    $0x0,%edx
    6d80:	66 f7 75 f8          	divw   -0x8(%rbp)
    6d84:	89 d0                	mov    %edx,%eax
    6d86:	eb 04                	jmp    6d8c <safe_mod_func_uint16_t_u_u+0x30>
    6d88:	0f b7 45 fc          	movzwl -0x4(%rbp),%eax
    6d8c:	5d                   	pop    %rbp
    6d8d:	c3                   	retq   

0000000000006d8e <safe_div_func_uint16_t_u_u>:
    6d8e:	f3 0f 1e fa          	endbr64 
    6d92:	55                   	push   %rbp
    6d93:	48 89 e5             	mov    %rsp,%rbp
    6d96:	89 fa                	mov    %edi,%edx
    6d98:	89 f0                	mov    %esi,%eax
    6d9a:	66 89 55 fc          	mov    %dx,-0x4(%rbp)
    6d9e:	66 89 45 f8          	mov    %ax,-0x8(%rbp)
    6da2:	66 83 7d f8 00       	cmpw   $0x0,-0x8(%rbp)
    6da7:	74 0f                	je     6db8 <safe_div_func_uint16_t_u_u+0x2a>
    6da9:	0f b7 45 fc          	movzwl -0x4(%rbp),%eax
    6dad:	ba 00 00 00 00       	mov    $0x0,%edx
    6db2:	66 f7 75 f8          	divw   -0x8(%rbp)
    6db6:	eb 04                	jmp    6dbc <safe_div_func_uint16_t_u_u+0x2e>
    6db8:	0f b7 45 fc          	movzwl -0x4(%rbp),%eax
    6dbc:	5d                   	pop    %rbp
    6dbd:	c3                   	retq   

0000000000006dbe <safe_lshift_func_uint16_t_u_s>:
    6dbe:	f3 0f 1e fa          	endbr64 
    6dc2:	55                   	push   %rbp
    6dc3:	48 89 e5             	mov    %rsp,%rbp
    6dc6:	89 f8                	mov    %edi,%eax
    6dc8:	89 75 f8             	mov    %esi,-0x8(%rbp)
    6dcb:	66 89 45 fc          	mov    %ax,-0x4(%rbp)
    6dcf:	83 7d f8 00          	cmpl   $0x0,-0x8(%rbp)
    6dd3:	78 2b                	js     6e00 <safe_lshift_func_uint16_t_u_s+0x42>
    6dd5:	83 7d f8 1f          	cmpl   $0x1f,-0x8(%rbp)
    6dd9:	7f 25                	jg     6e00 <safe_lshift_func_uint16_t_u_s+0x42>
    6ddb:	0f b7 55 fc          	movzwl -0x4(%rbp),%edx
    6ddf:	8b 45 f8             	mov    -0x8(%rbp),%eax
    6de2:	be ff ff 00 00       	mov    $0xffff,%esi
    6de7:	89 c1                	mov    %eax,%ecx
    6de9:	d3 fe                	sar    %cl,%esi
    6deb:	89 f0                	mov    %esi,%eax
    6ded:	39 c2                	cmp    %eax,%edx
    6def:	7f 0f                	jg     6e00 <safe_lshift_func_uint16_t_u_s+0x42>
    6df1:	0f b7 55 fc          	movzwl -0x4(%rbp),%edx
    6df5:	8b 45 f8             	mov    -0x8(%rbp),%eax
    6df8:	89 c1                	mov    %eax,%ecx
    6dfa:	d3 e2                	shl    %cl,%edx
    6dfc:	89 d0                	mov    %edx,%eax
    6dfe:	eb 04                	jmp    6e04 <safe_lshift_func_uint16_t_u_s+0x46>
    6e00:	0f b7 45 fc          	movzwl -0x4(%rbp),%eax
    6e04:	5d                   	pop    %rbp
    6e05:	c3                   	retq   

0000000000006e06 <safe_lshift_func_uint16_t_u_u>:
    6e06:	f3 0f 1e fa          	endbr64 
    6e0a:	55                   	push   %rbp
    6e0b:	48 89 e5             	mov    %rsp,%rbp
    6e0e:	89 f8                	mov    %edi,%eax
    6e10:	89 75 f8             	mov    %esi,-0x8(%rbp)
    6e13:	66 89 45 fc          	mov    %ax,-0x4(%rbp)
    6e17:	83 7d f8 1f          	cmpl   $0x1f,-0x8(%rbp)
    6e1b:	77 25                	ja     6e42 <safe_lshift_func_uint16_t_u_u+0x3c>
    6e1d:	0f b7 55 fc          	movzwl -0x4(%rbp),%edx
    6e21:	8b 45 f8             	mov    -0x8(%rbp),%eax
    6e24:	be ff ff 00 00       	mov    $0xffff,%esi
    6e29:	89 c1                	mov    %eax,%ecx
    6e2b:	d3 fe                	sar    %cl,%esi
    6e2d:	89 f0                	mov    %esi,%eax
    6e2f:	39 c2                	cmp    %eax,%edx
    6e31:	7f 0f                	jg     6e42 <safe_lshift_func_uint16_t_u_u+0x3c>
    6e33:	0f b7 55 fc          	movzwl -0x4(%rbp),%edx
    6e37:	8b 45 f8             	mov    -0x8(%rbp),%eax
    6e3a:	89 c1                	mov    %eax,%ecx
    6e3c:	d3 e2                	shl    %cl,%edx
    6e3e:	89 d0                	mov    %edx,%eax
    6e40:	eb 04                	jmp    6e46 <safe_lshift_func_uint16_t_u_u+0x40>
    6e42:	0f b7 45 fc          	movzwl -0x4(%rbp),%eax
    6e46:	5d                   	pop    %rbp
    6e47:	c3                   	retq   

0000000000006e48 <safe_rshift_func_uint16_t_u_s>:
    6e48:	f3 0f 1e fa          	endbr64 
    6e4c:	55                   	push   %rbp
    6e4d:	48 89 e5             	mov    %rsp,%rbp
    6e50:	89 f8                	mov    %edi,%eax
    6e52:	89 75 f8             	mov    %esi,-0x8(%rbp)
    6e55:	66 89 45 fc          	mov    %ax,-0x4(%rbp)
    6e59:	83 7d f8 00          	cmpl   $0x0,-0x8(%rbp)
    6e5d:	78 15                	js     6e74 <safe_rshift_func_uint16_t_u_s+0x2c>
    6e5f:	83 7d f8 1f          	cmpl   $0x1f,-0x8(%rbp)
    6e63:	7f 0f                	jg     6e74 <safe_rshift_func_uint16_t_u_s+0x2c>
    6e65:	0f b7 55 fc          	movzwl -0x4(%rbp),%edx
    6e69:	8b 45 f8             	mov    -0x8(%rbp),%eax
    6e6c:	89 c1                	mov    %eax,%ecx
    6e6e:	d3 fa                	sar    %cl,%edx
    6e70:	89 d0                	mov    %edx,%eax
    6e72:	eb 04                	jmp    6e78 <safe_rshift_func_uint16_t_u_s+0x30>
    6e74:	0f b7 45 fc          	movzwl -0x4(%rbp),%eax
    6e78:	5d                   	pop    %rbp
    6e79:	c3                   	retq   

0000000000006e7a <safe_rshift_func_uint16_t_u_u>:
    6e7a:	f3 0f 1e fa          	endbr64 
    6e7e:	55                   	push   %rbp
    6e7f:	48 89 e5             	mov    %rsp,%rbp
    6e82:	89 f8                	mov    %edi,%eax
    6e84:	89 75 f8             	mov    %esi,-0x8(%rbp)
    6e87:	66 89 45 fc          	mov    %ax,-0x4(%rbp)
    6e8b:	83 7d f8 1f          	cmpl   $0x1f,-0x8(%rbp)
    6e8f:	77 0f                	ja     6ea0 <safe_rshift_func_uint16_t_u_u+0x26>
    6e91:	0f b7 55 fc          	movzwl -0x4(%rbp),%edx
    6e95:	8b 45 f8             	mov    -0x8(%rbp),%eax
    6e98:	89 c1                	mov    %eax,%ecx
    6e9a:	d3 fa                	sar    %cl,%edx
    6e9c:	89 d0                	mov    %edx,%eax
    6e9e:	eb 04                	jmp    6ea4 <safe_rshift_func_uint16_t_u_u+0x2a>
    6ea0:	0f b7 45 fc          	movzwl -0x4(%rbp),%eax
    6ea4:	5d                   	pop    %rbp
    6ea5:	c3                   	retq   

0000000000006ea6 <safe_unary_minus_func_uint32_t_u>:
    6ea6:	f3 0f 1e fa          	endbr64 
    6eaa:	55                   	push   %rbp
    6eab:	48 89 e5             	mov    %rsp,%rbp
    6eae:	89 7d fc             	mov    %edi,-0x4(%rbp)
    6eb1:	8b 45 fc             	mov    -0x4(%rbp),%eax
    6eb4:	f7 d8                	neg    %eax
    6eb6:	5d                   	pop    %rbp
    6eb7:	c3                   	retq   

0000000000006eb8 <safe_add_func_uint32_t_u_u>:
    6eb8:	f3 0f 1e fa          	endbr64 
    6ebc:	55                   	push   %rbp
    6ebd:	48 89 e5             	mov    %rsp,%rbp
    6ec0:	89 7d fc             	mov    %edi,-0x4(%rbp)
    6ec3:	89 75 f8             	mov    %esi,-0x8(%rbp)
    6ec6:	8b 55 fc             	mov    -0x4(%rbp),%edx
    6ec9:	8b 45 f8             	mov    -0x8(%rbp),%eax
    6ecc:	01 d0                	add    %edx,%eax
    6ece:	5d                   	pop    %rbp
    6ecf:	c3                   	retq   

0000000000006ed0 <safe_sub_func_uint32_t_u_u>:
    6ed0:	f3 0f 1e fa          	endbr64 
    6ed4:	55                   	push   %rbp
    6ed5:	48 89 e5             	mov    %rsp,%rbp
    6ed8:	89 7d fc             	mov    %edi,-0x4(%rbp)
    6edb:	89 75 f8             	mov    %esi,-0x8(%rbp)
    6ede:	8b 45 fc             	mov    -0x4(%rbp),%eax
    6ee1:	2b 45 f8             	sub    -0x8(%rbp),%eax
    6ee4:	5d                   	pop    %rbp
    6ee5:	c3                   	retq   

0000000000006ee6 <safe_mul_func_uint32_t_u_u>:
    6ee6:	f3 0f 1e fa          	endbr64 
    6eea:	55                   	push   %rbp
    6eeb:	48 89 e5             	mov    %rsp,%rbp
    6eee:	89 7d fc             	mov    %edi,-0x4(%rbp)
    6ef1:	89 75 f8             	mov    %esi,-0x8(%rbp)
    6ef4:	8b 45 fc             	mov    -0x4(%rbp),%eax
    6ef7:	0f af 45 f8          	imul   -0x8(%rbp),%eax
    6efb:	5d                   	pop    %rbp
    6efc:	c3                   	retq   

0000000000006efd <safe_mod_func_uint32_t_u_u>:
    6efd:	f3 0f 1e fa          	endbr64 
    6f01:	55                   	push   %rbp
    6f02:	48 89 e5             	mov    %rsp,%rbp
    6f05:	89 7d fc             	mov    %edi,-0x4(%rbp)
    6f08:	89 75 f8             	mov    %esi,-0x8(%rbp)
    6f0b:	83 7d f8 00          	cmpl   $0x0,-0x8(%rbp)
    6f0f:	74 0f                	je     6f20 <safe_mod_func_uint32_t_u_u+0x23>
    6f11:	8b 45 fc             	mov    -0x4(%rbp),%eax
    6f14:	ba 00 00 00 00       	mov    $0x0,%edx
    6f19:	f7 75 f8             	divl   -0x8(%rbp)
    6f1c:	89 d0                	mov    %edx,%eax
    6f1e:	eb 03                	jmp    6f23 <safe_mod_func_uint32_t_u_u+0x26>
    6f20:	8b 45 fc             	mov    -0x4(%rbp),%eax
    6f23:	5d                   	pop    %rbp
    6f24:	c3                   	retq   

0000000000006f25 <safe_div_func_uint32_t_u_u>:
    6f25:	f3 0f 1e fa          	endbr64 
    6f29:	55                   	push   %rbp
    6f2a:	48 89 e5             	mov    %rsp,%rbp
    6f2d:	89 7d fc             	mov    %edi,-0x4(%rbp)
    6f30:	89 75 f8             	mov    %esi,-0x8(%rbp)
    6f33:	83 7d f8 00          	cmpl   $0x0,-0x8(%rbp)
    6f37:	74 0d                	je     6f46 <safe_div_func_uint32_t_u_u+0x21>
    6f39:	8b 45 fc             	mov    -0x4(%rbp),%eax
    6f3c:	ba 00 00 00 00       	mov    $0x0,%edx
    6f41:	f7 75 f8             	divl   -0x8(%rbp)
    6f44:	eb 03                	jmp    6f49 <safe_div_func_uint32_t_u_u+0x24>
    6f46:	8b 45 fc             	mov    -0x4(%rbp),%eax
    6f49:	5d                   	pop    %rbp
    6f4a:	c3                   	retq   

0000000000006f4b <safe_lshift_func_uint32_t_u_s>:
    6f4b:	f3 0f 1e fa          	endbr64 
    6f4f:	55                   	push   %rbp
    6f50:	48 89 e5             	mov    %rsp,%rbp
    6f53:	89 7d fc             	mov    %edi,-0x4(%rbp)
    6f56:	89 75 f8             	mov    %esi,-0x8(%rbp)
    6f59:	83 7d f8 00          	cmpl   $0x0,-0x8(%rbp)
    6f5d:	78 27                	js     6f86 <safe_lshift_func_uint32_t_u_s+0x3b>
    6f5f:	83 7d f8 1f          	cmpl   $0x1f,-0x8(%rbp)
    6f63:	7f 21                	jg     6f86 <safe_lshift_func_uint32_t_u_s+0x3b>
    6f65:	8b 45 f8             	mov    -0x8(%rbp),%eax
    6f68:	ba ff ff ff ff       	mov    $0xffffffff,%edx
    6f6d:	89 c1                	mov    %eax,%ecx
    6f6f:	d3 ea                	shr    %cl,%edx
    6f71:	89 d0                	mov    %edx,%eax
    6f73:	39 45 fc             	cmp    %eax,-0x4(%rbp)
    6f76:	77 0e                	ja     6f86 <safe_lshift_func_uint32_t_u_s+0x3b>
    6f78:	8b 45 f8             	mov    -0x8(%rbp),%eax
    6f7b:	8b 55 fc             	mov    -0x4(%rbp),%edx
    6f7e:	89 c1                	mov    %eax,%ecx
    6f80:	d3 e2                	shl    %cl,%edx
    6f82:	89 d0                	mov    %edx,%eax
    6f84:	eb 03                	jmp    6f89 <safe_lshift_func_uint32_t_u_s+0x3e>
    6f86:	8b 45 fc             	mov    -0x4(%rbp),%eax
    6f89:	5d                   	pop    %rbp
    6f8a:	c3                   	retq   

0000000000006f8b <safe_lshift_func_uint32_t_u_u>:
    6f8b:	f3 0f 1e fa          	endbr64 
    6f8f:	55                   	push   %rbp
    6f90:	48 89 e5             	mov    %rsp,%rbp
    6f93:	89 7d fc             	mov    %edi,-0x4(%rbp)
    6f96:	89 75 f8             	mov    %esi,-0x8(%rbp)
    6f99:	83 7d f8 1f          	cmpl   $0x1f,-0x8(%rbp)
    6f9d:	77 21                	ja     6fc0 <safe_lshift_func_uint32_t_u_u+0x35>
    6f9f:	8b 45 f8             	mov    -0x8(%rbp),%eax
    6fa2:	ba ff ff ff ff       	mov    $0xffffffff,%edx
    6fa7:	89 c1                	mov    %eax,%ecx
    6fa9:	d3 ea                	shr    %cl,%edx
    6fab:	89 d0                	mov    %edx,%eax
    6fad:	39 45 fc             	cmp    %eax,-0x4(%rbp)
    6fb0:	77 0e                	ja     6fc0 <safe_lshift_func_uint32_t_u_u+0x35>
    6fb2:	8b 45 f8             	mov    -0x8(%rbp),%eax
    6fb5:	8b 55 fc             	mov    -0x4(%rbp),%edx
    6fb8:	89 c1                	mov    %eax,%ecx
    6fba:	d3 e2                	shl    %cl,%edx
    6fbc:	89 d0                	mov    %edx,%eax
    6fbe:	eb 03                	jmp    6fc3 <safe_lshift_func_uint32_t_u_u+0x38>
    6fc0:	8b 45 fc             	mov    -0x4(%rbp),%eax
    6fc3:	5d                   	pop    %rbp
    6fc4:	c3                   	retq   

0000000000006fc5 <safe_rshift_func_uint32_t_u_s>:
    6fc5:	f3 0f 1e fa          	endbr64 
    6fc9:	55                   	push   %rbp
    6fca:	48 89 e5             	mov    %rsp,%rbp
    6fcd:	89 7d fc             	mov    %edi,-0x4(%rbp)
    6fd0:	89 75 f8             	mov    %esi,-0x8(%rbp)
    6fd3:	83 7d f8 00          	cmpl   $0x0,-0x8(%rbp)
    6fd7:	78 14                	js     6fed <safe_rshift_func_uint32_t_u_s+0x28>
    6fd9:	83 7d f8 1f          	cmpl   $0x1f,-0x8(%rbp)
    6fdd:	7f 0e                	jg     6fed <safe_rshift_func_uint32_t_u_s+0x28>
    6fdf:	8b 45 f8             	mov    -0x8(%rbp),%eax
    6fe2:	8b 55 fc             	mov    -0x4(%rbp),%edx
    6fe5:	89 c1                	mov    %eax,%ecx
    6fe7:	d3 ea                	shr    %cl,%edx
    6fe9:	89 d0                	mov    %edx,%eax
    6feb:	eb 03                	jmp    6ff0 <safe_rshift_func_uint32_t_u_s+0x2b>
    6fed:	8b 45 fc             	mov    -0x4(%rbp),%eax
    6ff0:	5d                   	pop    %rbp
    6ff1:	c3                   	retq   

0000000000006ff2 <safe_rshift_func_uint32_t_u_u>:
    6ff2:	f3 0f 1e fa          	endbr64 
    6ff6:	55                   	push   %rbp
    6ff7:	48 89 e5             	mov    %rsp,%rbp
    6ffa:	89 7d fc             	mov    %edi,-0x4(%rbp)
    6ffd:	89 75 f8             	mov    %esi,-0x8(%rbp)
    7000:	83 7d f8 1f          	cmpl   $0x1f,-0x8(%rbp)
    7004:	77 0e                	ja     7014 <safe_rshift_func_uint32_t_u_u+0x22>
    7006:	8b 45 f8             	mov    -0x8(%rbp),%eax
    7009:	8b 55 fc             	mov    -0x4(%rbp),%edx
    700c:	89 c1                	mov    %eax,%ecx
    700e:	d3 ea                	shr    %cl,%edx
    7010:	89 d0                	mov    %edx,%eax
    7012:	eb 03                	jmp    7017 <safe_rshift_func_uint32_t_u_u+0x25>
    7014:	8b 45 fc             	mov    -0x4(%rbp),%eax
    7017:	5d                   	pop    %rbp
    7018:	c3                   	retq   

0000000000007019 <safe_unary_minus_func_uint64_t_u>:
    7019:	f3 0f 1e fa          	endbr64 
    701d:	55                   	push   %rbp
    701e:	48 89 e5             	mov    %rsp,%rbp
    7021:	48 89 7d f8          	mov    %rdi,-0x8(%rbp)
    7025:	48 8b 45 f8          	mov    -0x8(%rbp),%rax
    7029:	48 f7 d8             	neg    %rax
    702c:	5d                   	pop    %rbp
    702d:	c3                   	retq   

000000000000702e <safe_add_func_uint64_t_u_u>:
    702e:	f3 0f 1e fa          	endbr64 
    7032:	55                   	push   %rbp
    7033:	48 89 e5             	mov    %rsp,%rbp
    7036:	48 89 7d f8          	mov    %rdi,-0x8(%rbp)
    703a:	48 89 75 f0          	mov    %rsi,-0x10(%rbp)
    703e:	48 8b 55 f8          	mov    -0x8(%rbp),%rdx
    7042:	48 8b 45 f0          	mov    -0x10(%rbp),%rax
    7046:	48 01 d0             	add    %rdx,%rax
    7049:	5d                   	pop    %rbp
    704a:	c3                   	retq   

000000000000704b <safe_sub_func_uint64_t_u_u>:
    704b:	f3 0f 1e fa          	endbr64 
    704f:	55                   	push   %rbp
    7050:	48 89 e5             	mov    %rsp,%rbp
    7053:	48 89 7d f8          	mov    %rdi,-0x8(%rbp)
    7057:	48 89 75 f0          	mov    %rsi,-0x10(%rbp)
    705b:	48 8b 45 f8          	mov    -0x8(%rbp),%rax
    705f:	48 2b 45 f0          	sub    -0x10(%rbp),%rax
    7063:	5d                   	pop    %rbp
    7064:	c3                   	retq   

0000000000007065 <safe_mul_func_uint64_t_u_u>:
    7065:	f3 0f 1e fa          	endbr64 
    7069:	55                   	push   %rbp
    706a:	48 89 e5             	mov    %rsp,%rbp
    706d:	48 89 7d f8          	mov    %rdi,-0x8(%rbp)
    7071:	48 89 75 f0          	mov    %rsi,-0x10(%rbp)
    7075:	48 8b 45 f8          	mov    -0x8(%rbp),%rax
    7079:	48 0f af 45 f0       	imul   -0x10(%rbp),%rax
    707e:	5d                   	pop    %rbp
    707f:	c3                   	retq   

0000000000007080 <safe_mod_func_uint64_t_u_u>:
    7080:	f3 0f 1e fa          	endbr64 
    7084:	55                   	push   %rbp
    7085:	48 89 e5             	mov    %rsp,%rbp
    7088:	48 89 7d f8          	mov    %rdi,-0x8(%rbp)
    708c:	48 89 75 f0          	mov    %rsi,-0x10(%rbp)
    7090:	48 83 7d f0 00       	cmpq   $0x0,-0x10(%rbp)
    7095:	74 12                	je     70a9 <safe_mod_func_uint64_t_u_u+0x29>
    7097:	48 8b 45 f8          	mov    -0x8(%rbp),%rax
    709b:	ba 00 00 00 00       	mov    $0x0,%edx
    70a0:	48 f7 75 f0          	divq   -0x10(%rbp)
    70a4:	48 89 d0             	mov    %rdx,%rax
    70a7:	eb 04                	jmp    70ad <safe_mod_func_uint64_t_u_u+0x2d>
    70a9:	48 8b 45 f8          	mov    -0x8(%rbp),%rax
    70ad:	5d                   	pop    %rbp
    70ae:	c3                   	retq   

00000000000070af <safe_div_func_uint64_t_u_u>:
    70af:	f3 0f 1e fa          	endbr64 
    70b3:	55                   	push   %rbp
    70b4:	48 89 e5             	mov    %rsp,%rbp
    70b7:	48 89 7d f8          	mov    %rdi,-0x8(%rbp)
    70bb:	48 89 75 f0          	mov    %rsi,-0x10(%rbp)
    70bf:	48 83 7d f0 00       	cmpq   $0x0,-0x10(%rbp)
    70c4:	74 0f                	je     70d5 <safe_div_func_uint64_t_u_u+0x26>
    70c6:	48 8b 45 f8          	mov    -0x8(%rbp),%rax
    70ca:	ba 00 00 00 00       	mov    $0x0,%edx
    70cf:	48 f7 75 f0          	divq   -0x10(%rbp)
    70d3:	eb 04                	jmp    70d9 <safe_div_func_uint64_t_u_u+0x2a>
    70d5:	48 8b 45 f8          	mov    -0x8(%rbp),%rax
    70d9:	5d                   	pop    %rbp
    70da:	c3                   	retq   

00000000000070db <safe_lshift_func_uint64_t_u_s>:
    70db:	f3 0f 1e fa          	endbr64 
    70df:	55                   	push   %rbp
    70e0:	48 89 e5             	mov    %rsp,%rbp
    70e3:	48 89 7d f8          	mov    %rdi,-0x8(%rbp)
    70e7:	89 75 f4             	mov    %esi,-0xc(%rbp)
    70ea:	83 7d f4 00          	cmpl   $0x0,-0xc(%rbp)
    70ee:	78 2f                	js     711f <safe_lshift_func_uint64_t_u_s+0x44>
    70f0:	83 7d f4 1f          	cmpl   $0x1f,-0xc(%rbp)
    70f4:	7f 29                	jg     711f <safe_lshift_func_uint64_t_u_s+0x44>
    70f6:	8b 45 f4             	mov    -0xc(%rbp),%eax
    70f9:	48 c7 c2 ff ff ff ff 	mov    $0xffffffffffffffff,%rdx
    7100:	89 c1                	mov    %eax,%ecx
    7102:	48 d3 ea             	shr    %cl,%rdx
    7105:	48 89 d0             	mov    %rdx,%rax
    7108:	48 39 45 f8          	cmp    %rax,-0x8(%rbp)
    710c:	77 11                	ja     711f <safe_lshift_func_uint64_t_u_s+0x44>
    710e:	8b 45 f4             	mov    -0xc(%rbp),%eax
    7111:	48 8b 55 f8          	mov    -0x8(%rbp),%rdx
    7115:	89 c1                	mov    %eax,%ecx
    7117:	48 d3 e2             	shl    %cl,%rdx
    711a:	48 89 d0             	mov    %rdx,%rax
    711d:	eb 04                	jmp    7123 <safe_lshift_func_uint64_t_u_s+0x48>
    711f:	48 8b 45 f8          	mov    -0x8(%rbp),%rax
    7123:	5d                   	pop    %rbp
    7124:	c3                   	retq   

0000000000007125 <safe_lshift_func_uint64_t_u_u>:
    7125:	f3 0f 1e fa          	endbr64 
    7129:	55                   	push   %rbp
    712a:	48 89 e5             	mov    %rsp,%rbp
    712d:	48 89 7d f8          	mov    %rdi,-0x8(%rbp)
    7131:	89 75 f4             	mov    %esi,-0xc(%rbp)
    7134:	83 7d f4 1f          	cmpl   $0x1f,-0xc(%rbp)
    7138:	77 29                	ja     7163 <safe_lshift_func_uint64_t_u_u+0x3e>
    713a:	8b 45 f4             	mov    -0xc(%rbp),%eax
    713d:	48 c7 c2 ff ff ff ff 	mov    $0xffffffffffffffff,%rdx
    7144:	89 c1                	mov    %eax,%ecx
    7146:	48 d3 ea             	shr    %cl,%rdx
    7149:	48 89 d0             	mov    %rdx,%rax
    714c:	48 39 45 f8          	cmp    %rax,-0x8(%rbp)
    7150:	77 11                	ja     7163 <safe_lshift_func_uint64_t_u_u+0x3e>
    7152:	8b 45 f4             	mov    -0xc(%rbp),%eax
    7155:	48 8b 55 f8          	mov    -0x8(%rbp),%rdx
    7159:	89 c1                	mov    %eax,%ecx
    715b:	48 d3 e2             	shl    %cl,%rdx
    715e:	48 89 d0             	mov    %rdx,%rax
    7161:	eb 04                	jmp    7167 <safe_lshift_func_uint64_t_u_u+0x42>
    7163:	48 8b 45 f8          	mov    -0x8(%rbp),%rax
    7167:	5d                   	pop    %rbp
    7168:	c3                   	retq   

0000000000007169 <safe_rshift_func_uint64_t_u_s>:
    7169:	f3 0f 1e fa          	endbr64 
    716d:	55                   	push   %rbp
    716e:	48 89 e5             	mov    %rsp,%rbp
    7171:	48 89 7d f8          	mov    %rdi,-0x8(%rbp)
    7175:	89 75 f4             	mov    %esi,-0xc(%rbp)
    7178:	83 7d f4 00          	cmpl   $0x0,-0xc(%rbp)
    717c:	78 17                	js     7195 <safe_rshift_func_uint64_t_u_s+0x2c>
    717e:	83 7d f4 1f          	cmpl   $0x1f,-0xc(%rbp)
    7182:	7f 11                	jg     7195 <safe_rshift_func_uint64_t_u_s+0x2c>
    7184:	8b 45 f4             	mov    -0xc(%rbp),%eax
    7187:	48 8b 55 f8          	mov    -0x8(%rbp),%rdx
    718b:	89 c1                	mov    %eax,%ecx
    718d:	48 d3 ea             	shr    %cl,%rdx
    7190:	48 89 d0             	mov    %rdx,%rax
    7193:	eb 04                	jmp    7199 <safe_rshift_func_uint64_t_u_s+0x30>
    7195:	48 8b 45 f8          	mov    -0x8(%rbp),%rax
    7199:	5d                   	pop    %rbp
    719a:	c3                   	retq   

000000000000719b <safe_rshift_func_uint64_t_u_u>:
    719b:	f3 0f 1e fa          	endbr64 
    719f:	55                   	push   %rbp
    71a0:	48 89 e5             	mov    %rsp,%rbp
    71a3:	48 89 7d f8          	mov    %rdi,-0x8(%rbp)
    71a7:	89 75 f4             	mov    %esi,-0xc(%rbp)
    71aa:	83 7d f4 1f          	cmpl   $0x1f,-0xc(%rbp)
    71ae:	77 11                	ja     71c1 <safe_rshift_func_uint64_t_u_u+0x26>
    71b0:	8b 45 f4             	mov    -0xc(%rbp),%eax
    71b3:	48 8b 55 f8          	mov    -0x8(%rbp),%rdx
    71b7:	89 c1                	mov    %eax,%ecx
    71b9:	48 d3 ea             	shr    %cl,%rdx
    71bc:	48 89 d0             	mov    %rdx,%rax
    71bf:	eb 04                	jmp    71c5 <safe_rshift_func_uint64_t_u_u+0x2a>
    71c1:	48 8b 45 f8          	mov    -0x8(%rbp),%rax
    71c5:	5d                   	pop    %rbp
    71c6:	c3                   	retq   

00000000000071c7 <safe_add_func_float_f_f>:
    71c7:	f3 0f 1e fa          	endbr64 
    71cb:	55                   	push   %rbp
    71cc:	48 89 e5             	mov    %rsp,%rbp
    71cf:	f3 0f 11 45 fc       	movss  %xmm0,-0x4(%rbp)
    71d4:	f3 0f 11 4d f8       	movss  %xmm1,-0x8(%rbp)
    71d9:	f3 0f 10 4d fc       	movss  -0x4(%rbp),%xmm1
    71de:	f3 0f 10 05 06 46 01 	movss  0x14606(%rip),%xmm0        # 1b7ec <l_717.5135+0x6c>
    71e5:	00 
    71e6:	f3 0f 59 c8          	mulss  %xmm0,%xmm1
    71ea:	f3 0f 10 55 f8       	movss  -0x8(%rbp),%xmm2
    71ef:	f3 0f 10 05 f5 45 01 	movss  0x145f5(%rip),%xmm0        # 1b7ec <l_717.5135+0x6c>
    71f6:	00 
    71f7:	f3 0f 59 c2          	mulss  %xmm2,%xmm0
    71fb:	f3 0f 58 c1          	addss  %xmm1,%xmm0
    71ff:	f3 0f 10 0d e9 45 01 	movss  0x145e9(%rip),%xmm1        # 1b7f0 <l_717.5135+0x70>
    7206:	00 
    7207:	0f 54 c1             	andps  %xmm1,%xmm0
    720a:	0f 2f 05 ef 45 01 00 	comiss 0x145ef(%rip),%xmm0        # 1b800 <l_717.5135+0x80>
    7211:	76 07                	jbe    721a <safe_add_func_float_f_f+0x53>
    7213:	f3 0f 10 45 fc       	movss  -0x4(%rbp),%xmm0
    7218:	eb 0a                	jmp    7224 <safe_add_func_float_f_f+0x5d>
    721a:	f3 0f 10 45 fc       	movss  -0x4(%rbp),%xmm0
    721f:	f3 0f 58 45 f8       	addss  -0x8(%rbp),%xmm0
    7224:	5d                   	pop    %rbp
    7225:	c3                   	retq   

0000000000007226 <safe_sub_func_float_f_f>:
    7226:	f3 0f 1e fa          	endbr64 
    722a:	55                   	push   %rbp
    722b:	48 89 e5             	mov    %rsp,%rbp
    722e:	f3 0f 11 45 fc       	movss  %xmm0,-0x4(%rbp)
    7233:	f3 0f 11 4d f8       	movss  %xmm1,-0x8(%rbp)
    7238:	f3 0f 10 4d fc       	movss  -0x4(%rbp),%xmm1
    723d:	f3 0f 10 05 a7 45 01 	movss  0x145a7(%rip),%xmm0        # 1b7ec <l_717.5135+0x6c>
    7244:	00 
    7245:	f3 0f 59 c1          	mulss  %xmm1,%xmm0
    7249:	f3 0f 10 55 f8       	movss  -0x8(%rbp),%xmm2
    724e:	f3 0f 10 0d 96 45 01 	movss  0x14596(%rip),%xmm1        # 1b7ec <l_717.5135+0x6c>
    7255:	00 
    7256:	f3 0f 59 ca          	mulss  %xmm2,%xmm1
    725a:	f3 0f 5c c1          	subss  %xmm1,%xmm0
    725e:	f3 0f 10 0d 8a 45 01 	movss  0x1458a(%rip),%xmm1        # 1b7f0 <l_717.5135+0x70>
    7265:	00 
    7266:	0f 54 c1             	andps  %xmm1,%xmm0
    7269:	0f 2f 05 90 45 01 00 	comiss 0x14590(%rip),%xmm0        # 1b800 <l_717.5135+0x80>
    7270:	76 07                	jbe    7279 <safe_sub_func_float_f_f+0x53>
    7272:	f3 0f 10 45 fc       	movss  -0x4(%rbp),%xmm0
    7277:	eb 0a                	jmp    7283 <safe_sub_func_float_f_f+0x5d>
    7279:	f3 0f 10 45 fc       	movss  -0x4(%rbp),%xmm0
    727e:	f3 0f 5c 45 f8       	subss  -0x8(%rbp),%xmm0
    7283:	5d                   	pop    %rbp
    7284:	c3                   	retq   

0000000000007285 <safe_mul_func_float_f_f>:
    7285:	f3 0f 1e fa          	endbr64 
    7289:	55                   	push   %rbp
    728a:	48 89 e5             	mov    %rsp,%rbp
    728d:	f3 0f 11 45 fc       	movss  %xmm0,-0x4(%rbp)
    7292:	f3 0f 11 4d f8       	movss  %xmm1,-0x8(%rbp)
    7297:	f3 0f 10 4d fc       	movss  -0x4(%rbp),%xmm1
    729c:	f3 0f 10 05 60 45 01 	movss  0x14560(%rip),%xmm0        # 1b804 <l_717.5135+0x84>
    72a3:	00 
    72a4:	f3 0f 59 c8          	mulss  %xmm0,%xmm1
    72a8:	f3 0f 10 55 f8       	movss  -0x8(%rbp),%xmm2
    72ad:	f3 0f 10 05 53 45 01 	movss  0x14553(%rip),%xmm0        # 1b808 <l_717.5135+0x88>
    72b4:	00 
    72b5:	f3 0f 59 c2          	mulss  %xmm2,%xmm0
    72b9:	f3 0f 59 c1          	mulss  %xmm1,%xmm0
    72bd:	f3 0f 10 0d 2b 45 01 	movss  0x1452b(%rip),%xmm1        # 1b7f0 <l_717.5135+0x70>
    72c4:	00 
    72c5:	0f 54 c1             	andps  %xmm1,%xmm0
    72c8:	0f 2f 05 3d 45 01 00 	comiss 0x1453d(%rip),%xmm0        # 1b80c <l_717.5135+0x8c>
    72cf:	76 07                	jbe    72d8 <safe_mul_func_float_f_f+0x53>
    72d1:	f3 0f 10 45 fc       	movss  -0x4(%rbp),%xmm0
    72d6:	eb 0a                	jmp    72e2 <safe_mul_func_float_f_f+0x5d>
    72d8:	f3 0f 10 45 fc       	movss  -0x4(%rbp),%xmm0
    72dd:	f3 0f 59 45 f8       	mulss  -0x8(%rbp),%xmm0
    72e2:	5d                   	pop    %rbp
    72e3:	c3                   	retq   

00000000000072e4 <safe_div_func_float_f_f>:
    72e4:	f3 0f 1e fa          	endbr64 
    72e8:	55                   	push   %rbp
    72e9:	48 89 e5             	mov    %rsp,%rbp
    72ec:	f3 0f 11 45 fc       	movss  %xmm0,-0x4(%rbp)
    72f1:	f3 0f 11 4d f8       	movss  %xmm1,-0x8(%rbp)
    72f6:	f3 0f 10 45 f8       	movss  -0x8(%rbp),%xmm0
    72fb:	f3 0f 10 0d ed 44 01 	movss  0x144ed(%rip),%xmm1        # 1b7f0 <l_717.5135+0x70>
    7302:	00 
    7303:	0f 54 c8             	andps  %xmm0,%xmm1
    7306:	f3 0f 10 05 02 45 01 	movss  0x14502(%rip),%xmm0        # 1b810 <l_717.5135+0x90>
    730d:	00 
    730e:	0f 2f c1             	comiss %xmm1,%xmm0
    7311:	0f 97 c0             	seta   %al
    7314:	83 f0 01             	xor    $0x1,%eax
    7317:	84 c0                	test   %al,%al
    7319:	75 56                	jne    7371 <safe_div_func_float_f_f+0x8d>
    731b:	66 0f ef c0          	pxor   %xmm0,%xmm0
    731f:	0f 2e 45 f8          	ucomiss -0x8(%rbp),%xmm0
    7323:	7a 0a                	jp     732f <safe_div_func_float_f_f+0x4b>
    7325:	66 0f ef c0          	pxor   %xmm0,%xmm0
    7329:	0f 2e 45 f8          	ucomiss -0x8(%rbp),%xmm0
    732d:	74 4e                	je     737d <safe_div_func_float_f_f+0x99>
    732f:	f3 0f 10 4d fc       	movss  -0x4(%rbp),%xmm1
    7334:	f3 0f 10 05 d8 44 01 	movss  0x144d8(%rip),%xmm0        # 1b814 <l_717.5135+0x94>
    733b:	00 
    733c:	f3 0f 59 c1          	mulss  %xmm1,%xmm0
    7340:	f3 0f 10 55 f8       	movss  -0x8(%rbp),%xmm2
    7345:	f3 0f 10 0d cb 44 01 	movss  0x144cb(%rip),%xmm1        # 1b818 <l_717.5135+0x98>
    734c:	00 
    734d:	f3 0f 59 ca          	mulss  %xmm2,%xmm1
    7351:	f3 0f 5e c1          	divss  %xmm1,%xmm0
    7355:	f3 0f 10 0d 93 44 01 	movss  0x14493(%rip),%xmm1        # 1b7f0 <l_717.5135+0x70>
    735c:	00 
    735d:	0f 54 c1             	andps  %xmm1,%xmm0
    7360:	0f 2f 05 b5 44 01 00 	comiss 0x144b5(%rip),%xmm0        # 1b81c <l_717.5135+0x9c>
    7367:	0f 97 c0             	seta   %al
    736a:	83 f0 01             	xor    $0x1,%eax
    736d:	84 c0                	test   %al,%al
    736f:	74 0c                	je     737d <safe_div_func_float_f_f+0x99>
    7371:	f3 0f 10 45 fc       	movss  -0x4(%rbp),%xmm0
    7376:	f3 0f 5e 45 f8       	divss  -0x8(%rbp),%xmm0
    737b:	eb 05                	jmp    7382 <safe_div_func_float_f_f+0x9e>
    737d:	f3 0f 10 45 fc       	movss  -0x4(%rbp),%xmm0
    7382:	5d                   	pop    %rbp
    7383:	c3                   	retq   

0000000000007384 <safe_add_func_double_f_f>:
    7384:	f3 0f 1e fa          	endbr64 
    7388:	55                   	push   %rbp
    7389:	48 89 e5             	mov    %rsp,%rbp
    738c:	f2 0f 11 45 f8       	movsd  %xmm0,-0x8(%rbp)
    7391:	f2 0f 11 4d f0       	movsd  %xmm1,-0x10(%rbp)
    7396:	f2 0f 10 4d f8       	movsd  -0x8(%rbp),%xmm1
    739b:	f2 0f 10 05 7d 44 01 	movsd  0x1447d(%rip),%xmm0        # 1b820 <l_717.5135+0xa0>
    73a2:	00 
    73a3:	f2 0f 59 c8          	mulsd  %xmm0,%xmm1
    73a7:	f2 0f 10 55 f0       	movsd  -0x10(%rbp),%xmm2
    73ac:	f2 0f 10 05 6c 44 01 	movsd  0x1446c(%rip),%xmm0        # 1b820 <l_717.5135+0xa0>
    73b3:	00 
    73b4:	f2 0f 59 c2          	mulsd  %xmm2,%xmm0
    73b8:	f2 0f 58 c1          	addsd  %xmm1,%xmm0
    73bc:	f3 0f 7e 0d 6c 44 01 	movq   0x1446c(%rip),%xmm1        # 1b830 <l_717.5135+0xb0>
    73c3:	00 
    73c4:	66 0f 54 c1          	andpd  %xmm1,%xmm0
    73c8:	66 0f 2f 05 70 44 01 	comisd 0x14470(%rip),%xmm0        # 1b840 <l_717.5135+0xc0>
    73cf:	00 
    73d0:	76 07                	jbe    73d9 <safe_add_func_double_f_f+0x55>
    73d2:	f2 0f 10 45 f8       	movsd  -0x8(%rbp),%xmm0
    73d7:	eb 0a                	jmp    73e3 <safe_add_func_double_f_f+0x5f>
    73d9:	f2 0f 10 45 f8       	movsd  -0x8(%rbp),%xmm0
    73de:	f2 0f 58 45 f0       	addsd  -0x10(%rbp),%xmm0
    73e3:	5d                   	pop    %rbp
    73e4:	c3                   	retq   

00000000000073e5 <safe_sub_func_double_f_f>:
    73e5:	f3 0f 1e fa          	endbr64 
    73e9:	55                   	push   %rbp
    73ea:	48 89 e5             	mov    %rsp,%rbp
    73ed:	f2 0f 11 45 f8       	movsd  %xmm0,-0x8(%rbp)
    73f2:	f2 0f 11 4d f0       	movsd  %xmm1,-0x10(%rbp)
    73f7:	f2 0f 10 4d f8       	movsd  -0x8(%rbp),%xmm1
    73fc:	f2 0f 10 05 1c 44 01 	movsd  0x1441c(%rip),%xmm0        # 1b820 <l_717.5135+0xa0>
    7403:	00 
    7404:	f2 0f 59 c1          	mulsd  %xmm1,%xmm0
    7408:	f2 0f 10 55 f0       	movsd  -0x10(%rbp),%xmm2
    740d:	f2 0f 10 0d 0b 44 01 	movsd  0x1440b(%rip),%xmm1        # 1b820 <l_717.5135+0xa0>
    7414:	00 
    7415:	f2 0f 59 ca          	mulsd  %xmm2,%xmm1
    7419:	f2 0f 5c c1          	subsd  %xmm1,%xmm0
    741d:	f3 0f 7e 0d 0b 44 01 	movq   0x1440b(%rip),%xmm1        # 1b830 <l_717.5135+0xb0>
    7424:	00 
    7425:	66 0f 54 c1          	andpd  %xmm1,%xmm0
    7429:	66 0f 2f 05 0f 44 01 	comisd 0x1440f(%rip),%xmm0        # 1b840 <l_717.5135+0xc0>
    7430:	00 
    7431:	76 07                	jbe    743a <safe_sub_func_double_f_f+0x55>
    7433:	f2 0f 10 45 f8       	movsd  -0x8(%rbp),%xmm0
    7438:	eb 0a                	jmp    7444 <safe_sub_func_double_f_f+0x5f>
    743a:	f2 0f 10 45 f8       	movsd  -0x8(%rbp),%xmm0
    743f:	f2 0f 5c 45 f0       	subsd  -0x10(%rbp),%xmm0
    7444:	5d                   	pop    %rbp
    7445:	c3                   	retq   

0000000000007446 <safe_mul_func_double_f_f>:
    7446:	f3 0f 1e fa          	endbr64 
    744a:	55                   	push   %rbp
    744b:	48 89 e5             	mov    %rsp,%rbp
    744e:	f2 0f 11 45 f8       	movsd  %xmm0,-0x8(%rbp)
    7453:	f2 0f 11 4d f0       	movsd  %xmm1,-0x10(%rbp)
    7458:	f2 0f 10 4d f8       	movsd  -0x8(%rbp),%xmm1
    745d:	f2 0f 10 05 e3 43 01 	movsd  0x143e3(%rip),%xmm0        # 1b848 <l_717.5135+0xc8>
    7464:	00 
    7465:	f2 0f 59 c8          	mulsd  %xmm0,%xmm1
    7469:	f2 0f 10 55 f0       	movsd  -0x10(%rbp),%xmm2
    746e:	f2 0f 10 05 da 43 01 	movsd  0x143da(%rip),%xmm0        # 1b850 <l_717.5135+0xd0>
    7475:	00 
    7476:	f2 0f 59 c2          	mulsd  %xmm2,%xmm0
    747a:	f2 0f 59 c1          	mulsd  %xmm1,%xmm0
    747e:	f3 0f 7e 0d aa 43 01 	movq   0x143aa(%rip),%xmm1        # 1b830 <l_717.5135+0xb0>
    7485:	00 
    7486:	66 0f 54 c1          	andpd  %xmm1,%xmm0
    748a:	66 0f 2f 05 c6 43 01 	comisd 0x143c6(%rip),%xmm0        # 1b858 <l_717.5135+0xd8>
    7491:	00 
    7492:	76 07                	jbe    749b <safe_mul_func_double_f_f+0x55>
    7494:	f2 0f 10 45 f8       	movsd  -0x8(%rbp),%xmm0
    7499:	eb 0a                	jmp    74a5 <safe_mul_func_double_f_f+0x5f>
    749b:	f2 0f 10 45 f8       	movsd  -0x8(%rbp),%xmm0
    74a0:	f2 0f 59 45 f0       	mulsd  -0x10(%rbp),%xmm0
    74a5:	5d                   	pop    %rbp
    74a6:	c3                   	retq   

00000000000074a7 <safe_div_func_double_f_f>:
    74a7:	f3 0f 1e fa          	endbr64 
    74ab:	55                   	push   %rbp
    74ac:	48 89 e5             	mov    %rsp,%rbp
    74af:	f2 0f 11 45 f8       	movsd  %xmm0,-0x8(%rbp)
    74b4:	f2 0f 11 4d f0       	movsd  %xmm1,-0x10(%rbp)
    74b9:	f2 0f 10 45 f0       	movsd  -0x10(%rbp),%xmm0
    74be:	f3 0f 7e 0d 6a 43 01 	movq   0x1436a(%rip),%xmm1        # 1b830 <l_717.5135+0xb0>
    74c5:	00 
    74c6:	66 0f 54 c8          	andpd  %xmm0,%xmm1
    74ca:	f2 0f 10 05 8e 43 01 	movsd  0x1438e(%rip),%xmm0        # 1b860 <l_717.5135+0xe0>
    74d1:	00 
    74d2:	66 0f 2f c1          	comisd %xmm1,%xmm0
    74d6:	0f 97 c0             	seta   %al
    74d9:	83 f0 01             	xor    $0x1,%eax
    74dc:	84 c0                	test   %al,%al
    74de:	75 5a                	jne    753a <safe_div_func_double_f_f+0x93>
    74e0:	66 0f ef c0          	pxor   %xmm0,%xmm0
    74e4:	66 0f 2e 45 f0       	ucomisd -0x10(%rbp),%xmm0
    74e9:	7a 0b                	jp     74f6 <safe_div_func_double_f_f+0x4f>
    74eb:	66 0f ef c0          	pxor   %xmm0,%xmm0
    74ef:	66 0f 2e 45 f0       	ucomisd -0x10(%rbp),%xmm0
    74f4:	74 50                	je     7546 <safe_div_func_double_f_f+0x9f>
    74f6:	f2 0f 10 4d f8       	movsd  -0x8(%rbp),%xmm1
    74fb:	f2 0f 10 05 65 43 01 	movsd  0x14365(%rip),%xmm0        # 1b868 <l_717.5135+0xe8>
    7502:	00 
    7503:	f2 0f 59 c1          	mulsd  %xmm1,%xmm0
    7507:	f2 0f 10 55 f0       	movsd  -0x10(%rbp),%xmm2
    750c:	f2 0f 10 0d 5c 43 01 	movsd  0x1435c(%rip),%xmm1        # 1b870 <l_717.5135+0xf0>
    7513:	00 
    7514:	f2 0f 59 ca          	mulsd  %xmm2,%xmm1
    7518:	f2 0f 5e c1          	divsd  %xmm1,%xmm0
    751c:	f3 0f 7e 0d 0c 43 01 	movq   0x1430c(%rip),%xmm1        # 1b830 <l_717.5135+0xb0>
    7523:	00 
    7524:	66 0f 54 c1          	andpd  %xmm1,%xmm0
    7528:	66 0f 2f 05 48 43 01 	comisd 0x14348(%rip),%xmm0        # 1b878 <l_717.5135+0xf8>
    752f:	00 
    7530:	0f 97 c0             	seta   %al
    7533:	83 f0 01             	xor    $0x1,%eax
    7536:	84 c0                	test   %al,%al
    7538:	74 0c                	je     7546 <safe_div_func_double_f_f+0x9f>
    753a:	f2 0f 10 45 f8       	movsd  -0x8(%rbp),%xmm0
    753f:	f2 0f 5e 45 f0       	divsd  -0x10(%rbp),%xmm0
    7544:	eb 05                	jmp    754b <safe_div_func_double_f_f+0xa4>
    7546:	f2 0f 10 45 f8       	movsd  -0x8(%rbp),%xmm0
    754b:	5d                   	pop    %rbp
    754c:	c3                   	retq   

000000000000754d <safe_convert_func_float_to_int32_t>:
    754d:	f3 0f 1e fa          	endbr64 
    7551:	55                   	push   %rbp
    7552:	48 89 e5             	mov    %rsp,%rbp
    7555:	f3 0f 11 45 fc       	movss  %xmm0,-0x4(%rbp)
    755a:	f3 0f 10 05 1e 43 01 	movss  0x1431e(%rip),%xmm0        # 1b880 <l_717.5135+0x100>
    7561:	00 
    7562:	0f 2f 45 fc          	comiss -0x4(%rbp),%xmm0
    7566:	0f 93 c0             	setae  %al
    7569:	83 f0 01             	xor    $0x1,%eax
    756c:	84 c0                	test   %al,%al
    756e:	74 21                	je     7591 <safe_convert_func_float_to_int32_t+0x44>
    7570:	f3 0f 10 45 fc       	movss  -0x4(%rbp),%xmm0
    7575:	0f 2f 05 08 43 01 00 	comiss 0x14308(%rip),%xmm0        # 1b884 <l_717.5135+0x104>
    757c:	0f 93 c0             	setae  %al
    757f:	83 f0 01             	xor    $0x1,%eax
    7582:	84 c0                	test   %al,%al
    7584:	74 0b                	je     7591 <safe_convert_func_float_to_int32_t+0x44>
    7586:	f3 0f 10 45 fc       	movss  -0x4(%rbp),%xmm0
    758b:	f3 0f 2c c0          	cvttss2si %xmm0,%eax
    758f:	eb 05                	jmp    7596 <safe_convert_func_float_to_int32_t+0x49>
    7591:	b8 ff ff ff 7f       	mov    $0x7fffffff,%eax
    7596:	5d                   	pop    %rbp
    7597:	c3                   	retq   

0000000000007598 <crc32_gentab>:
    7598:	f3 0f 1e fa          	endbr64 
    759c:	55                   	push   %rbp
    759d:	48 89 e5             	mov    %rsp,%rbp
    75a0:	c7 45 fc 20 83 b8 ed 	movl   $0xedb88320,-0x4(%rbp)
    75a7:	c7 45 f4 00 00 00 00 	movl   $0x0,-0xc(%rbp)
    75ae:	eb 51                	jmp    7601 <crc32_gentab+0x69>
    75b0:	8b 45 f4             	mov    -0xc(%rbp),%eax
    75b3:	89 45 f0             	mov    %eax,-0x10(%rbp)
    75b6:	c7 45 f8 08 00 00 00 	movl   $0x8,-0x8(%rbp)
    75bd:	eb 1e                	jmp    75dd <crc32_gentab+0x45>
    75bf:	8b 45 f0             	mov    -0x10(%rbp),%eax
    75c2:	83 e0 01             	and    $0x1,%eax
    75c5:	85 c0                	test   %eax,%eax
    75c7:	74 0d                	je     75d6 <crc32_gentab+0x3e>
    75c9:	8b 45 f0             	mov    -0x10(%rbp),%eax
    75cc:	d1 e8                	shr    %eax
    75ce:	33 45 fc             	xor    -0x4(%rbp),%eax
    75d1:	89 45 f0             	mov    %eax,-0x10(%rbp)
    75d4:	eb 03                	jmp    75d9 <crc32_gentab+0x41>
    75d6:	d1 6d f0             	shrl   -0x10(%rbp)
    75d9:	83 6d f8 01          	subl   $0x1,-0x8(%rbp)
    75dd:	83 7d f8 00          	cmpl   $0x0,-0x8(%rbp)
    75e1:	7f dc                	jg     75bf <crc32_gentab+0x27>
    75e3:	8b 45 f4             	mov    -0xc(%rbp),%eax
    75e6:	48 98                	cltq   
    75e8:	48 8d 0c 85 00 00 00 	lea    0x0(,%rax,4),%rcx
    75ef:	00 
    75f0:	48 8d 15 e9 91 01 00 	lea    0x191e9(%rip),%rdx        # 207e0 <crc32_tab>
    75f7:	8b 45 f0             	mov    -0x10(%rbp),%eax
    75fa:	89 04 11             	mov    %eax,(%rcx,%rdx,1)
    75fd:	83 45 f4 01          	addl   $0x1,-0xc(%rbp)
    7601:	81 7d f4 ff 00 00 00 	cmpl   $0xff,-0xc(%rbp)
    7608:	7e a6                	jle    75b0 <crc32_gentab+0x18>
    760a:	90                   	nop
    760b:	90                   	nop
    760c:	5d                   	pop    %rbp
    760d:	c3                   	retq   

000000000000760e <crc32_byte>:
    760e:	f3 0f 1e fa          	endbr64 
    7612:	55                   	push   %rbp
    7613:	48 89 e5             	mov    %rsp,%rbp
    7616:	89 f8                	mov    %edi,%eax
    7618:	88 45 fc             	mov    %al,-0x4(%rbp)
    761b:	8b 05 ff 69 01 00    	mov    0x169ff(%rip),%eax        # 1e020 <crc32_context>
    7621:	c1 e8 08             	shr    $0x8,%eax
    7624:	89 c1                	mov    %eax,%ecx
    7626:	0f b6 55 fc          	movzbl -0x4(%rbp),%edx
    762a:	8b 05 f0 69 01 00    	mov    0x169f0(%rip),%eax        # 1e020 <crc32_context>
    7630:	31 d0                	xor    %edx,%eax
    7632:	0f b6 c0             	movzbl %al,%eax
    7635:	89 c0                	mov    %eax,%eax
    7637:	48 8d 14 85 00 00 00 	lea    0x0(,%rax,4),%rdx
    763e:	00 
    763f:	48 8d 05 9a 91 01 00 	lea    0x1919a(%rip),%rax        # 207e0 <crc32_tab>
    7646:	8b 04 02             	mov    (%rdx,%rax,1),%eax
    7649:	31 c8                	xor    %ecx,%eax
    764b:	89 05 cf 69 01 00    	mov    %eax,0x169cf(%rip)        # 1e020 <crc32_context>
    7651:	90                   	nop
    7652:	5d                   	pop    %rbp
    7653:	c3                   	retq   

0000000000007654 <crc32_8bytes>:
    7654:	f3 0f 1e fa          	endbr64 
    7658:	55                   	push   %rbp
    7659:	48 89 e5             	mov    %rsp,%rbp
    765c:	48 83 ec 08          	sub    $0x8,%rsp
    7660:	48 89 7d f8          	mov    %rdi,-0x8(%rbp)
    7664:	48 8b 45 f8          	mov    -0x8(%rbp),%rax
    7668:	0f b6 c0             	movzbl %al,%eax
    766b:	89 c7                	mov    %eax,%edi
    766d:	e8 9c ff ff ff       	callq  760e <crc32_byte>
    7672:	48 8b 45 f8          	mov    -0x8(%rbp),%rax
    7676:	48 c1 e8 08          	shr    $0x8,%rax
    767a:	0f b6 c0             	movzbl %al,%eax
    767d:	89 c7                	mov    %eax,%edi
    767f:	e8 8a ff ff ff       	callq  760e <crc32_byte>
    7684:	48 8b 45 f8          	mov    -0x8(%rbp),%rax
    7688:	48 c1 e8 10          	shr    $0x10,%rax
    768c:	0f b6 c0             	movzbl %al,%eax
    768f:	89 c7                	mov    %eax,%edi
    7691:	e8 78 ff ff ff       	callq  760e <crc32_byte>
    7696:	48 8b 45 f8          	mov    -0x8(%rbp),%rax
    769a:	48 c1 e8 18          	shr    $0x18,%rax
    769e:	0f b6 c0             	movzbl %al,%eax
    76a1:	89 c7                	mov    %eax,%edi
    76a3:	e8 66 ff ff ff       	callq  760e <crc32_byte>
    76a8:	48 8b 45 f8          	mov    -0x8(%rbp),%rax
    76ac:	48 c1 e8 20          	shr    $0x20,%rax
    76b0:	0f b6 c0             	movzbl %al,%eax
    76b3:	89 c7                	mov    %eax,%edi
    76b5:	e8 54 ff ff ff       	callq  760e <crc32_byte>
    76ba:	48 8b 45 f8          	mov    -0x8(%rbp),%rax
    76be:	48 c1 e8 28          	shr    $0x28,%rax
    76c2:	0f b6 c0             	movzbl %al,%eax
    76c5:	89 c7                	mov    %eax,%edi
    76c7:	e8 42 ff ff ff       	callq  760e <crc32_byte>
    76cc:	48 8b 45 f8          	mov    -0x8(%rbp),%rax
    76d0:	48 c1 e8 30          	shr    $0x30,%rax
    76d4:	0f b6 c0             	movzbl %al,%eax
    76d7:	89 c7                	mov    %eax,%edi
    76d9:	e8 30 ff ff ff       	callq  760e <crc32_byte>
    76de:	48 8b 45 f8          	mov    -0x8(%rbp),%rax
    76e2:	48 c1 e8 38          	shr    $0x38,%rax
    76e6:	0f b6 c0             	movzbl %al,%eax
    76e9:	89 c7                	mov    %eax,%edi
    76eb:	e8 1e ff ff ff       	callq  760e <crc32_byte>
    76f0:	90                   	nop
    76f1:	c9                   	leaveq 
    76f2:	c3                   	retq   

00000000000076f3 <transparent_crc>:
    76f3:	f3 0f 1e fa          	endbr64 
    76f7:	55                   	push   %rbp
    76f8:	48 89 e5             	mov    %rsp,%rbp
    76fb:	48 83 ec 20          	sub    $0x20,%rsp
    76ff:	48 89 7d f8          	mov    %rdi,-0x8(%rbp)
    7703:	48 89 75 f0          	mov    %rsi,-0x10(%rbp)
    7707:	89 55 ec             	mov    %edx,-0x14(%rbp)
    770a:	48 8b 45 f8          	mov    -0x8(%rbp),%rax
    770e:	48 89 c7             	mov    %rax,%rdi
    7711:	e8 3e ff ff ff       	callq  7654 <crc32_8bytes>
    7716:	83 7d ec 00          	cmpl   $0x0,-0x14(%rbp)
    771a:	74 22                	je     773e <transparent_crc+0x4b>
    771c:	8b 05 fe 68 01 00    	mov    0x168fe(%rip),%eax        # 1e020 <crc32_context>
    7722:	f7 d0                	not    %eax
    7724:	89 c2                	mov    %eax,%edx
    7726:	48 8b 45 f0          	mov    -0x10(%rbp),%rax
    772a:	48 89 c6             	mov    %rax,%rsi
    772d:	48 8d 3d fc 28 01 00 	lea    0x128fc(%rip),%rdi        # 1a030 <_IO_stdin_used+0x30>
    7734:	b8 00 00 00 00       	mov    $0x0,%eax
    7739:	e8 42 e9 ff ff       	callq  6080 <printf@plt>
    773e:	90                   	nop
    773f:	c9                   	leaveq 
    7740:	c3                   	retq   

0000000000007741 <transparent_crc_bytes>:
    7741:	f3 0f 1e fa          	endbr64 
    7745:	55                   	push   %rbp
    7746:	48 89 e5             	mov    %rsp,%rbp
    7749:	48 83 ec 30          	sub    $0x30,%rsp
    774d:	48 89 7d e8          	mov    %rdi,-0x18(%rbp)
    7751:	89 75 e4             	mov    %esi,-0x1c(%rbp)
    7754:	48 89 55 d8          	mov    %rdx,-0x28(%rbp)
    7758:	89 4d e0             	mov    %ecx,-0x20(%rbp)
    775b:	c7 45 fc 00 00 00 00 	movl   $0x0,-0x4(%rbp)
    7762:	eb 1e                	jmp    7782 <transparent_crc_bytes+0x41>
    7764:	8b 45 fc             	mov    -0x4(%rbp),%eax
    7767:	48 63 d0             	movslq %eax,%rdx
    776a:	48 8b 45 e8          	mov    -0x18(%rbp),%rax
    776e:	48 01 d0             	add    %rdx,%rax
    7771:	0f b6 00             	movzbl (%rax),%eax
    7774:	0f b6 c0             	movzbl %al,%eax
    7777:	89 c7                	mov    %eax,%edi
    7779:	e8 90 fe ff ff       	callq  760e <crc32_byte>
    777e:	83 45 fc 01          	addl   $0x1,-0x4(%rbp)
    7782:	8b 45 fc             	mov    -0x4(%rbp),%eax
    7785:	3b 45 e4             	cmp    -0x1c(%rbp),%eax
    7788:	7c da                	jl     7764 <transparent_crc_bytes+0x23>
    778a:	83 7d e0 00          	cmpl   $0x0,-0x20(%rbp)
    778e:	74 22                	je     77b2 <transparent_crc_bytes+0x71>
    7790:	8b 05 8a 68 01 00    	mov    0x1688a(%rip),%eax        # 1e020 <crc32_context>
    7796:	f7 d0                	not    %eax
    7798:	89 c2                	mov    %eax,%edx
    779a:	48 8b 45 d8          	mov    -0x28(%rbp),%rax
    779e:	48 89 c6             	mov    %rax,%rsi
    77a1:	48 8d 3d 88 28 01 00 	lea    0x12888(%rip),%rdi        # 1a030 <_IO_stdin_used+0x30>
    77a8:	b8 00 00 00 00       	mov    $0x0,%eax
    77ad:	e8 ce e8 ff ff       	callq  6080 <printf@plt>
    77b2:	90                   	nop
    77b3:	c9                   	leaveq 
    77b4:	c3                   	retq   

00000000000077b5 <func_1>:
    77b5:	f3 0f 1e fa          	endbr64 
    77b9:	55                   	push   %rbp
    77ba:	48 89 e5             	mov    %rsp,%rbp
    77bd:	41 55                	push   %r13
    77bf:	41 54                	push   %r12
    77c1:	53                   	push   %rbx
    77c2:	48 81 ec 08 01 00 00 	sub    $0x108,%rsp
    77c9:	64 48 8b 04 25 28 00 	mov    %fs:0x28,%rax
    77d0:	00 00 
    77d2:	48 89 45 d8          	mov    %rax,-0x28(%rbp)
    77d6:	31 c0                	xor    %eax,%eax
    77d8:	48 8d 05 45 68 01 00 	lea    0x16845(%rip),%rax        # 1e024 <g_9>
    77df:	48 89 85 10 ff ff ff 	mov    %rax,-0xf0(%rbp)
    77e6:	c7 85 ec fe ff ff 9c 	movl   $0x9d6e719c,-0x114(%rbp)
    77ed:	71 6e 9d 
    77f0:	48 8d 05 51 6b 01 00 	lea    0x16b51(%rip),%rax        # 1e348 <g_2612>
    77f7:	48 89 85 f8 fe ff ff 	mov    %rax,-0x108(%rbp)
    77fe:	48 8d 85 f8 fe ff ff 	lea    -0x108(%rbp),%rax
    7805:	48 89 85 18 ff ff ff 	mov    %rax,-0xe8(%rbp)
    780c:	48 8d 05 2d 6b 01 00 	lea    0x16b2d(%rip),%rax        # 1e340 <g_2397>
    7813:	48 89 85 20 ff ff ff 	mov    %rax,-0xe0(%rbp)
    781a:	48 c7 85 00 ff ff ff 	movq   $0x0,-0x100(%rbp)
    7821:	00 00 00 00 
    7825:	c6 85 00 ff ff ff a7 	movb   $0xa7,-0x100(%rbp)
    782c:	48 c7 85 08 ff ff ff 	movq   $0x0,-0xf8(%rbp)
    7833:	00 00 00 00 
    7837:	c7 85 08 ff ff ff c4 	movl   $0xb05dacc4,-0xf8(%rbp)
    783e:	ac 5d b0 
    7841:	c7 85 f0 fe ff ff f7 	movl   $0xfffffff7,-0x110(%rbp)
    7848:	ff ff ff 
    784b:	48 c7 85 28 ff ff ff 	movq   $0x0,-0xd8(%rbp)
    7852:	00 00 00 00 
    7856:	48 8d 05 df 6a 01 00 	lea    0x16adf(%rip),%rax        # 1e33c <g_1903>
    785d:	48 89 85 30 ff ff ff 	mov    %rax,-0xd0(%rbp)
    7864:	c7 85 f4 fe ff ff f7 	movl   $0xfffffff7,-0x10c(%rbp)
    786b:	ff ff ff 
    786e:	48 b8 39 b7 04 1d 31 	movabs $0x928dd1311d04b739,%rax
    7875:	d1 8d 92 
    7878:	48 89 85 38 ff ff ff 	mov    %rax,-0xc8(%rbp)
    787f:	c7 85 40 ff ff ff 74 	movl   $0xe965e274,-0xc0(%rbp)
    7886:	e2 65 e9 
    7889:	c7 85 44 ff ff ff 74 	movl   $0xe965e274,-0xbc(%rbp)
    7890:	e2 65 e9 
    7893:	c7 85 48 ff ff ff fd 	movl   $0xfffffffd,-0xb8(%rbp)
    789a:	ff ff ff 
    789d:	c7 85 4c ff ff ff 74 	movl   $0xe965e274,-0xb4(%rbp)
    78a4:	e2 65 e9 
    78a7:	c7 85 50 ff ff ff 74 	movl   $0xe965e274,-0xb0(%rbp)
    78ae:	e2 65 e9 
    78b1:	c7 85 54 ff ff ff 09 	movl   $0x5e48cb09,-0xac(%rbp)
    78b8:	cb 48 5e 
    78bb:	c7 85 58 ff ff ff 09 	movl   $0x5e48cb09,-0xa8(%rbp)
    78c2:	cb 48 5e 
    78c5:	c7 85 5c ff ff ff 74 	movl   $0xe965e274,-0xa4(%rbp)
    78cc:	e2 65 e9 
    78cf:	c7 85 60 ff ff ff 09 	movl   $0x5e48cb09,-0xa0(%rbp)
    78d6:	cb 48 5e 
    78d9:	c7 85 64 ff ff ff 74 	movl   $0xe965e274,-0x9c(%rbp)
    78e0:	e2 65 e9 
    78e3:	c7 85 68 ff ff ff 09 	movl   $0x5e48cb09,-0x98(%rbp)
    78ea:	cb 48 5e 
    78ed:	c7 85 6c ff ff ff 09 	movl   $0x5e48cb09,-0x94(%rbp)
    78f4:	cb 48 5e 
    78f7:	c7 85 70 ff ff ff 74 	movl   $0xe965e274,-0x90(%rbp)
    78fe:	e2 65 e9 
    7901:	c7 85 74 ff ff ff 74 	movl   $0xe965e274,-0x8c(%rbp)
    7908:	e2 65 e9 
    790b:	c7 85 78 ff ff ff fd 	movl   $0xfffffffd,-0x88(%rbp)
    7912:	ff ff ff 
    7915:	c7 85 7c ff ff ff 74 	movl   $0xe965e274,-0x84(%rbp)
    791c:	e2 65 e9 
    791f:	c7 45 80 74 e2 65 e9 	movl   $0xe965e274,-0x80(%rbp)
    7926:	c7 45 84 09 cb 48 5e 	movl   $0x5e48cb09,-0x7c(%rbp)
    792d:	c7 45 88 09 cb 48 5e 	movl   $0x5e48cb09,-0x78(%rbp)
    7934:	c7 45 8c 74 e2 65 e9 	movl   $0xe965e274,-0x74(%rbp)
    793b:	c7 45 90 09 cb 48 5e 	movl   $0x5e48cb09,-0x70(%rbp)
    7942:	c7 45 94 74 e2 65 e9 	movl   $0xe965e274,-0x6c(%rbp)
    7949:	c7 45 98 09 cb 48 5e 	movl   $0x5e48cb09,-0x68(%rbp)
    7950:	c7 45 9c 09 cb 48 5e 	movl   $0x5e48cb09,-0x64(%rbp)
    7957:	c7 45 a0 74 e2 65 e9 	movl   $0xe965e274,-0x60(%rbp)
    795e:	c7 45 a4 74 e2 65 e9 	movl   $0xe965e274,-0x5c(%rbp)
    7965:	c7 45 a8 fd ff ff ff 	movl   $0xfffffffd,-0x58(%rbp)
    796c:	c7 45 ac 74 e2 65 e9 	movl   $0xe965e274,-0x54(%rbp)
    7973:	c7 45 b0 74 e2 65 e9 	movl   $0xe965e274,-0x50(%rbp)
    797a:	c7 45 b4 09 cb 48 5e 	movl   $0x5e48cb09,-0x4c(%rbp)
    7981:	c7 45 b8 09 cb 48 5e 	movl   $0x5e48cb09,-0x48(%rbp)
    7988:	c7 45 bc 74 e2 65 e9 	movl   $0xe965e274,-0x44(%rbp)
    798f:	c7 45 c0 09 cb 48 5e 	movl   $0x5e48cb09,-0x40(%rbp)
    7996:	c7 45 c4 74 e2 65 e9 	movl   $0xe965e274,-0x3c(%rbp)
    799d:	c7 45 c8 09 cb 48 5e 	movl   $0x5e48cb09,-0x38(%rbp)
    79a4:	c7 45 cc 09 cb 48 5e 	movl   $0x5e48cb09,-0x34(%rbp)
    79ab:	48 8b 05 3e 7e 01 00 	mov    0x17e3e(%rip),%rax        # 1f7f0 <g_641>
    79b2:	0f b7 00             	movzwl (%rax),%eax
    79b5:	0f b7 d8             	movzwl %ax,%ebx
    79b8:	0f b6 05 65 66 01 00 	movzbl 0x16665(%rip),%eax        # 1e024 <g_9>
    79bf:	0f b6 d0             	movzbl %al,%edx
    79c2:	48 83 bd 10 ff ff ff 	cmpq   $0x0,-0xf0(%rbp)
    79c9:	00 
    79ca:	0f 94 c0             	sete   %al
    79cd:	0f b6 c0             	movzbl %al,%eax
    79d0:	48 8b 8d 10 ff ff ff 	mov    -0xf0(%rbp),%rcx
    79d7:	48 89 ce             	mov    %rcx,%rsi
    79da:	89 c7                	mov    %eax,%edi
    79dc:	e8 a3 02 00 00       	callq  7c84 <func_4>
    79e1:	8b 85 ec fe ff ff    	mov    -0x114(%rbp),%eax
    79e7:	0f b7 c0             	movzwl %ax,%eax
    79ea:	89 de                	mov    %ebx,%esi
    79ec:	89 c7                	mov    %eax,%edi
    79ee:	e8 4a f3 ff ff       	callq  6d3d <safe_mul_func_uint16_t_u_u>
    79f3:	0f b7 d8             	movzwl %ax,%ebx
    79f6:	48 8b 85 18 ff ff ff 	mov    -0xe8(%rbp),%rax
    79fd:	48 c7 00 00 00 00 00 	movq   $0x0,(%rax)
    7a04:	48 8b 85 18 ff ff ff 	mov    -0xe8(%rbp),%rax
    7a0b:	48 8b 00             	mov    (%rax),%rax
    7a0e:	48 39 85 20 ff ff ff 	cmp    %rax,-0xe0(%rbp)
    7a15:	74 10                	je     7a27 <func_1+0x272>
    7a17:	83 bd ec fe ff ff 00 	cmpl   $0x0,-0x114(%rbp)
    7a1e:	74 07                	je     7a27 <func_1+0x272>
    7a20:	b8 01 00 00 00       	mov    $0x1,%eax
    7a25:	eb 05                	jmp    7a2c <func_1+0x277>
    7a27:	b8 00 00 00 00       	mov    $0x0,%eax
    7a2c:	39 85 ec fe ff ff    	cmp    %eax,-0x114(%rbp)
    7a32:	0f 94 c0             	sete   %al
    7a35:	0f b6 c0             	movzbl %al,%eax
    7a38:	89 c6                	mov    %eax,%esi
    7a3a:	bf f7 ff ff ff       	mov    $0xfffffff7,%edi
    7a3f:	e8 72 eb ff ff       	callq  65b6 <safe_add_func_int32_t_s_s>
    7a44:	39 85 ec fe ff ff    	cmp    %eax,-0x114(%rbp)
    7a4a:	74 07                	je     7a53 <func_1+0x29e>
    7a4c:	b8 01 00 00 00       	mov    $0x1,%eax
    7a51:	eb 05                	jmp    7a58 <func_1+0x2a3>
    7a53:	b8 00 00 00 00       	mov    $0x0,%eax
    7a58:	39 d8                	cmp    %ebx,%eax
    7a5a:	0f 95 c2             	setne  %dl
    7a5d:	48 8b 05 34 7d 01 00 	mov    0x17d34(%rip),%rax        # 1f798 <g_553>
    7a64:	48 8b 00             	mov    (%rax),%rax
    7a67:	48 8b 00             	mov    (%rax),%rax
    7a6a:	0f b6 d2             	movzbl %dl,%edx
    7a6d:	89 10                	mov    %edx,(%rax)
    7a6f:	8b 85 ec fe ff ff    	mov    -0x114(%rbp),%eax
    7a75:	0f be d8             	movsbl %al,%ebx
    7a78:	8b 85 08 ff ff ff    	mov    -0xf8(%rbp),%eax
    7a7e:	44 0f b6 e0          	movzbl %al,%r12d
    7a82:	0f b6 85 00 ff ff ff 	movzbl -0x100(%rbp),%eax
    7a89:	44 0f be e8          	movsbl %al,%r13d
    7a8d:	c7 85 f0 fe ff ff 01 	movl   $0x1,-0x110(%rbp)
    7a94:	00 00 00 
    7a97:	8b 95 ec fe ff ff    	mov    -0x114(%rbp),%edx
    7a9d:	48 8b 85 20 ff ff ff 	mov    -0xe0(%rbp),%rax
    7aa4:	89 10                	mov    %edx,(%rax)
    7aa6:	0f b6 85 00 ff ff ff 	movzbl -0x100(%rbp),%eax
    7aad:	89 c2                	mov    %eax,%edx
    7aaf:	8b 85 08 ff ff ff    	mov    -0xf8(%rbp),%eax
    7ab5:	21 d0                	and    %edx,%eax
    7ab7:	0f be c0             	movsbl %al,%eax
    7aba:	be 06 00 00 00       	mov    $0x6,%esi
    7abf:	89 c7                	mov    %eax,%edi
    7ac1:	e8 a6 e8 ff ff       	callq  636c <safe_rshift_func_int8_t_s_u>
    7ac6:	48 0f be d0          	movsbq %al,%rdx
    7aca:	8b 85 ec fe ff ff    	mov    -0x114(%rbp),%eax
    7ad0:	48 89 d6             	mov    %rdx,%rsi
    7ad3:	48 89 c7             	mov    %rax,%rdi
    7ad6:	e8 cd ed ff ff       	callq  68a8 <safe_sub_func_int64_t_s_s>
    7adb:	48 8b 95 30 ff ff ff 	mov    -0xd0(%rbp),%rdx
    7ae2:	8b 12                	mov    (%rdx),%edx
    7ae4:	09 c2                	or     %eax,%edx
    7ae6:	48 8b 85 30 ff ff ff 	mov    -0xd0(%rbp),%rax
    7aed:	89 10                	mov    %edx,(%rax)
    7aef:	c7 85 f4 fe ff ff 01 	movl   $0x1,-0x10c(%rbp)
    7af6:	00 00 00 
    7af9:	8b 85 f4 fe ff ff    	mov    -0x10c(%rbp),%eax
    7aff:	0f b7 d0             	movzwl %ax,%edx
    7b02:	8b 85 ec fe ff ff    	mov    -0x114(%rbp),%eax
    7b08:	0f b7 c0             	movzwl %ax,%eax
    7b0b:	89 d6                	mov    %edx,%esi
    7b0d:	89 c7                	mov    %eax,%edi
    7b0f:	e8 eb f1 ff ff       	callq  6cff <safe_add_func_uint16_t_u_u>
    7b14:	48 8b 85 18 ff ff ff 	mov    -0xe8(%rbp),%rax
    7b1b:	48 8b 00             	mov    (%rax),%rax
    7b1e:	48 85 c0             	test   %rax,%rax
    7b21:	0f 95 c0             	setne  %al
    7b24:	0f b6 c0             	movzbl %al,%eax
    7b27:	48 8b 95 38 ff ff ff 	mov    -0xc8(%rbp),%rdx
    7b2e:	48 89 d6             	mov    %rdx,%rsi
    7b31:	48 89 c7             	mov    %rax,%rdi
    7b34:	e8 be ee ff ff       	callq  69f7 <safe_div_func_int64_t_s_s>
    7b39:	48 8b 05 58 7c 01 00 	mov    0x17c58(%rip),%rax        # 1f798 <g_553>
    7b40:	48 8b 00             	mov    (%rax),%rax
    7b43:	48 8b 00             	mov    (%rax),%rax
    7b46:	8b 00                	mov    (%rax),%eax
    7b48:	89 c2                	mov    %eax,%edx
    7b4a:	8b 85 54 ff ff ff    	mov    -0xac(%rbp),%eax
    7b50:	39 c2                	cmp    %eax,%edx
    7b52:	0f 94 c0             	sete   %al
    7b55:	0f b6 c0             	movzbl %al,%eax
    7b58:	44 89 ee             	mov    %r13d,%esi
    7b5b:	89 c7                	mov    %eax,%edi
    7b5d:	e8 f3 e8 ff ff       	callq  6455 <safe_div_func_int16_t_s_s>
    7b62:	98                   	cwtl   
    7b63:	be fd ae 84 8b       	mov    $0x8b84aefd,%esi
    7b68:	89 c7                	mov    %eax,%edi
    7b6a:	e8 8e f3 ff ff       	callq  6efd <safe_mod_func_uint32_t_u_u>
    7b6f:	44 89 e2             	mov    %r12d,%edx
    7b72:	48 8d 35 b0 67 01 00 	lea    0x167b0(%rip),%rsi        # 1e329 <g_1228>
    7b79:	89 c7                	mov    %eax,%edi
    7b7b:	e8 04 01 00 00       	callq  7c84 <func_4>
    7b80:	8b 85 08 ff ff ff    	mov    -0xf8(%rbp),%eax
    7b86:	89 c1                	mov    %eax,%ecx
    7b88:	8b 95 08 ff ff ff    	mov    -0xf8(%rbp),%edx
    7b8e:	8b 85 f4 fe ff ff    	mov    -0x10c(%rbp),%eax
    7b94:	39 c2                	cmp    %eax,%edx
    7b96:	0f 96 c0             	setbe  %al
    7b99:	89 c2                	mov    %eax,%edx
    7b9b:	0f b7 05 88 67 01 00 	movzwl 0x16788(%rip),%eax        # 1e32a <g_1299>
    7ba2:	21 d0                	and    %edx,%eax
    7ba4:	09 c8                	or     %ecx,%eax
    7ba6:	0f b6 c0             	movzbl %al,%eax
    7ba9:	be 75 00 00 00       	mov    $0x75,%esi
    7bae:	89 c7                	mov    %eax,%edi
    7bb0:	e8 f9 ef ff ff       	callq  6bae <safe_mod_func_uint8_t_u_u>
    7bb5:	0f b6 d0             	movzbl %al,%edx
    7bb8:	8b 05 8a 67 01 00    	mov    0x1678a(%rip),%eax        # 1e348 <g_2612>
    7bbe:	39 c2                	cmp    %eax,%edx
    7bc0:	0f 9c c0             	setl   %al
    7bc3:	0f b6 c0             	movzbl %al,%eax
    7bc6:	48 be ba 75 60 af 1d 	movabs $0xbd58151daf6075ba,%rsi
    7bcd:	15 58 bd 
    7bd0:	48 89 c7             	mov    %rax,%rdi
    7bd3:	e8 73 f4 ff ff       	callq  704b <safe_sub_func_uint64_t_u_u>
    7bd8:	89 c2                	mov    %eax,%edx
    7bda:	8b 85 68 ff ff ff    	mov    -0x98(%rbp),%eax
    7be0:	31 d0                	xor    %edx,%eax
    7be2:	98                   	cwtl   
    7be3:	be c5 48 00 00       	mov    $0x48c5,%esi
    7be8:	89 c7                	mov    %eax,%edi
    7bea:	e8 e4 e7 ff ff       	callq  63d3 <safe_sub_func_int16_t_s_s>
    7bef:	0f be c0             	movsbl %al,%eax
    7bf2:	89 de                	mov    %ebx,%esi
    7bf4:	89 c7                	mov    %eax,%edi
    7bf6:	e8 17 e6 ff ff       	callq  6212 <safe_mul_func_int8_t_s_s>
    7bfb:	66 98                	cbtw   
    7bfd:	0f b7 c0             	movzwl %ax,%eax
    7c00:	be 8b 32 00 00       	mov    $0x328b,%esi
    7c05:	89 c7                	mov    %eax,%edi
    7c07:	e8 f3 f0 ff ff       	callq  6cff <safe_add_func_uint16_t_u_u>
    7c0c:	0f b7 c0             	movzwl %ax,%eax
    7c0f:	39 85 ec fe ff ff    	cmp    %eax,-0x114(%rbp)
    7c15:	0f 94 c0             	sete   %al
    7c18:	0f b6 d0             	movzbl %al,%edx
    7c1b:	0f b6 05 07 67 01 00 	movzbl 0x16707(%rip),%eax        # 1e329 <g_1228>
    7c22:	0f be c0             	movsbl %al,%eax
    7c25:	39 c2                	cmp    %eax,%edx
    7c27:	0f 94 c0             	sete   %al
    7c2a:	0f b6 d0             	movzbl %al,%edx
    7c2d:	8b 45 98             	mov    -0x68(%rbp),%eax
    7c30:	39 c2                	cmp    %eax,%edx
    7c32:	0f 92 c0             	setb   %al
    7c35:	0f b6 d0             	movzbl %al,%edx
    7c38:	0f b6 05 31 91 01 00 	movzbl 0x19131(%rip),%eax        # 20d70 <g_2398>
    7c3f:	0f be c0             	movsbl %al,%eax
    7c42:	89 d1                	mov    %edx,%ecx
    7c44:	21 c1                	and    %eax,%ecx
    7c46:	48 8b 05 db 7b 01 00 	mov    0x17bdb(%rip),%rax        # 1f828 <g_840>
    7c4d:	8b 10                	mov    (%rax),%edx
    7c4f:	48 8b 05 d2 7b 01 00 	mov    0x17bd2(%rip),%rax        # 1f828 <g_840>
    7c56:	31 ca                	xor    %ecx,%edx
    7c58:	89 10                	mov    %edx,(%rax)
    7c5a:	8b 85 54 ff ff ff    	mov    -0xac(%rbp),%eax
    7c60:	89 c0                	mov    %eax,%eax
    7c62:	48 8b 5d d8          	mov    -0x28(%rbp),%rbx
    7c66:	64 48 33 1c 25 28 00 	xor    %fs:0x28,%rbx
    7c6d:	00 00 
    7c6f:	74 05                	je     7c76 <func_1+0x4c1>
    7c71:	e8 fa e3 ff ff       	callq  6070 <__stack_chk_fail@plt>
    7c76:	48 81 c4 08 01 00 00 	add    $0x108,%rsp
    7c7d:	5b                   	pop    %rbx
    7c7e:	41 5c                	pop    %r12
    7c80:	41 5d                	pop    %r13
    7c82:	5d                   	pop    %rbp
    7c83:	c3                   	retq   

0000000000007c84 <func_4>:
    7c84:	f3 0f 1e fa          	endbr64 
    7c88:	55                   	push   %rbp
    7c89:	48 89 e5             	mov    %rsp,%rbp
    7c8c:	48 81 ec 80 01 00 00 	sub    $0x180,%rsp
    7c93:	89 bd 8c fe ff ff    	mov    %edi,-0x174(%rbp)
    7c99:	48 89 b5 80 fe ff ff 	mov    %rsi,-0x180(%rbp)
    7ca0:	89 d0                	mov    %edx,%eax
    7ca2:	88 85 88 fe ff ff    	mov    %al,-0x178(%rbp)
    7ca8:	64 48 8b 04 25 28 00 	mov    %fs:0x28,%rax
    7caf:	00 00 
    7cb1:	48 89 45 f8          	mov    %rax,-0x8(%rbp)
    7cb5:	31 c0                	xor    %eax,%eax
    7cb7:	c7 85 9c fe ff ff f6 	movl   $0xfffffff6,-0x164(%rbp)
    7cbe:	ff ff ff 
    7cc1:	48 c7 85 a8 fe ff ff 	movq   $0x0,-0x158(%rbp)
    7cc8:	00 00 00 00 
    7ccc:	c7 85 a8 fe ff ff fe 	movl   $0xfffffffe,-0x158(%rbp)
    7cd3:	ff ff ff 
    7cd6:	48 c7 85 e0 fe ff ff 	movq   $0x0,-0x120(%rbp)
    7cdd:	00 00 00 00 
    7ce1:	48 8d 05 d0 7b 01 00 	lea    0x17bd0(%rip),%rax        # 1f8b8 <g_1430>
    7ce8:	48 89 85 e8 fe ff ff 	mov    %rax,-0x118(%rbp)
    7cef:	c7 85 a0 fe ff ff 15 	movl   $0x44585215,-0x160(%rbp)
    7cf6:	52 58 44 
    7cf9:	c7 85 a4 fe ff ff 00 	movl   $0x0,-0x15c(%rbp)
    7d00:	00 00 00 
    7d03:	48 c7 85 b0 fe ff ff 	movq   $0x0,-0x150(%rbp)
    7d0a:	00 00 00 00 
    7d0e:	48 8d 85 b0 fe ff ff 	lea    -0x150(%rbp),%rax
    7d15:	48 89 85 f0 fe ff ff 	mov    %rax,-0x110(%rbp)
    7d1c:	48 c7 85 b8 fe ff ff 	movq   $0x0,-0x148(%rbp)
    7d23:	00 00 00 00 
    7d27:	48 8d 85 b8 fe ff ff 	lea    -0x148(%rbp),%rax
    7d2e:	48 89 85 f8 fe ff ff 	mov    %rax,-0x108(%rbp)
    7d35:	48 c7 85 c0 fe ff ff 	movq   $0x0,-0x140(%rbp)
    7d3c:	00 00 00 00 
    7d40:	c6 85 c0 fe ff ff fe 	movb   $0xfe,-0x140(%rbp)
    7d47:	c7 85 94 fe ff ff 00 	movl   $0x0,-0x16c(%rbp)
    7d4e:	00 00 00 
    7d51:	eb 1a                	jmp    7d6d <func_4+0xe9>
    7d53:	8b 85 94 fe ff ff    	mov    -0x16c(%rbp),%eax
    7d59:	48 98                	cltq   
    7d5b:	c7 84 85 50 ff ff ff 	movl   $0x1,-0xb0(%rbp,%rax,4)
    7d62:	01 00 00 00 
    7d66:	83 85 94 fe ff ff 01 	addl   $0x1,-0x16c(%rbp)
    7d6d:	83 bd 94 fe ff ff 05 	cmpl   $0x5,-0x16c(%rbp)
    7d74:	7e dd                	jle    7d53 <func_4+0xcf>
    7d76:	c7 85 8c fe ff ff 00 	movl   $0x0,-0x174(%rbp)
    7d7d:	00 00 00 
    7d80:	e9 74 01 00 00       	jmpq   7ef9 <func_4+0x275>
    7d85:	48 8d 05 58 23 01 00 	lea    0x12358(%rip),%rax        # 1a0e4 <g_19+0x84>
    7d8c:	48 89 85 c8 fe ff ff 	mov    %rax,-0x138(%rbp)
    7d93:	48 8d 85 c8 fe ff ff 	lea    -0x138(%rbp),%rax
    7d9a:	48 89 85 00 ff ff ff 	mov    %rax,-0x100(%rbp)
    7da1:	48 8d 05 40 65 01 00 	lea    0x16540(%rip),%rax        # 1e2e8 <g_809+0x8>
    7da8:	48 89 85 08 ff ff ff 	mov    %rax,-0xf8(%rbp)
    7daf:	48 c7 85 d0 fe ff ff 	movq   $0x0,-0x130(%rbp)
    7db6:	00 00 00 00 
    7dba:	c7 85 d0 fe ff ff 16 	movl   $0x5867b316,-0x130(%rbp)
    7dc1:	b3 67 58 
    7dc4:	48 8d 05 61 65 01 00 	lea    0x16561(%rip),%rax        # 1e32c <g_1493>
    7dcb:	48 89 85 10 ff ff ff 	mov    %rax,-0xf0(%rbp)
    7dd2:	48 8d 05 f7 64 01 00 	lea    0x164f7(%rip),%rax        # 1e2d0 <g_759>
    7dd9:	48 89 85 18 ff ff ff 	mov    %rax,-0xe8(%rbp)
    7de0:	48 8d 05 89 79 01 00 	lea    0x17989(%rip),%rax        # 1f770 <g_370>
    7de7:	48 89 85 70 ff ff ff 	mov    %rax,-0x90(%rbp)
    7dee:	48 8d 05 7b 79 01 00 	lea    0x1797b(%rip),%rax        # 1f770 <g_370>
    7df5:	48 89 85 78 ff ff ff 	mov    %rax,-0x88(%rbp)
    7dfc:	48 8d 05 6d 79 01 00 	lea    0x1796d(%rip),%rax        # 1f770 <g_370>
    7e03:	48 89 45 80          	mov    %rax,-0x80(%rbp)
    7e07:	48 8d 05 62 79 01 00 	lea    0x17962(%rip),%rax        # 1f770 <g_370>
    7e0e:	48 89 45 88          	mov    %rax,-0x78(%rbp)
    7e12:	48 8d 05 57 79 01 00 	lea    0x17957(%rip),%rax        # 1f770 <g_370>
    7e19:	48 89 45 90          	mov    %rax,-0x70(%rbp)
    7e1d:	48 8d 05 4c 79 01 00 	lea    0x1794c(%rip),%rax        # 1f770 <g_370>
    7e24:	48 89 45 98          	mov    %rax,-0x68(%rbp)
    7e28:	48 8d 05 41 79 01 00 	lea    0x17941(%rip),%rax        # 1f770 <g_370>
    7e2f:	48 89 45 a0          	mov    %rax,-0x60(%rbp)
    7e33:	48 c7 85 20 ff ff ff 	movq   $0x0,-0xe0(%rbp)
    7e3a:	00 00 00 00 
    7e3e:	48 8d 05 e9 63 01 00 	lea    0x163e9(%rip),%rax        # 1e22e <g_198+0xe>
    7e45:	48 89 85 28 ff ff ff 	mov    %rax,-0xd8(%rbp)
    7e4c:	48 8d 05 1d 79 01 00 	lea    0x1791d(%rip),%rax        # 1f770 <g_370>
    7e53:	48 89 45 b0          	mov    %rax,-0x50(%rbp)
    7e57:	48 c7 45 b8 00 00 00 	movq   $0x0,-0x48(%rbp)
    7e5e:	00 
    7e5f:	48 8d 05 0a 79 01 00 	lea    0x1790a(%rip),%rax        # 1f770 <g_370>
    7e66:	48 89 45 c0          	mov    %rax,-0x40(%rbp)
    7e6a:	48 c7 45 c8 00 00 00 	movq   $0x0,-0x38(%rbp)
    7e71:	00 
    7e72:	48 8d 05 f7 78 01 00 	lea    0x178f7(%rip),%rax        # 1f770 <g_370>
    7e79:	48 89 45 d0          	mov    %rax,-0x30(%rbp)
    7e7d:	48 c7 45 d8 00 00 00 	movq   $0x0,-0x28(%rbp)
    7e84:	00 
    7e85:	48 8d 05 e4 78 01 00 	lea    0x178e4(%rip),%rax        # 1f770 <g_370>
    7e8c:	48 89 45 e0          	mov    %rax,-0x20(%rbp)
    7e90:	48 c7 45 e8 00 00 00 	movq   $0x0,-0x18(%rbp)
    7e97:	00 
    7e98:	48 8d 05 13 62 01 00 	lea    0x16213(%rip),%rax        # 1e0b2 <g_129+0x52>
    7e9f:	48 89 85 30 ff ff ff 	mov    %rax,-0xd0(%rbp)
    7ea6:	48 8d 05 83 88 01 00 	lea    0x18883(%rip),%rax        # 20730 <g_2331>
    7ead:	48 89 85 d8 fe ff ff 	mov    %rax,-0x128(%rbp)
    7eb4:	48 8d 85 d8 fe ff ff 	lea    -0x128(%rbp),%rax
    7ebb:	48 89 85 38 ff ff ff 	mov    %rax,-0xc8(%rbp)
    7ec2:	c7 85 98 fe ff ff 00 	movl   $0x0,-0x168(%rbp)
    7ec9:	00 00 00 
    7ecc:	eb 1b                	jmp    7ee9 <func_4+0x265>
    7ece:	8b 85 98 fe ff ff    	mov    -0x168(%rbp),%eax
    7ed4:	48 98                	cltq   
    7ed6:	48 c7 84 c5 40 ff ff 	movq   $0x0,-0xc0(%rbp,%rax,8)
    7edd:	ff 00 00 00 00 
    7ee2:	83 85 98 fe ff ff 01 	addl   $0x1,-0x168(%rbp)
    7ee9:	83 bd 98 fe ff ff 01 	cmpl   $0x1,-0x168(%rbp)
    7ef0:	7e dc                	jle    7ece <func_4+0x24a>
    7ef2:	83 85 8c fe ff ff 01 	addl   $0x1,-0x174(%rbp)
    7ef9:	83 bd 8c fe ff ff 02 	cmpl   $0x2,-0x174(%rbp)
    7f00:	0f 8e 7f fe ff ff    	jle    7d85 <func_4+0x101>
    7f06:	48 8b 85 c0 fe ff ff 	mov    -0x140(%rbp),%rax
    7f0d:	48 8b 4d f8          	mov    -0x8(%rbp),%rcx
    7f11:	64 48 33 0c 25 28 00 	xor    %fs:0x28,%rcx
    7f18:	00 00 
    7f1a:	74 05                	je     7f21 <func_4+0x29d>
    7f1c:	e8 4f e1 ff ff       	callq  6070 <__stack_chk_fail@plt>
    7f21:	c9                   	leaveq 
    7f22:	c3                   	retq   

0000000000007f23 <func_12>:
    7f23:	f3 0f 1e fa          	endbr64 
    7f27:	55                   	push   %rbp
    7f28:	48 89 e5             	mov    %rsp,%rbp
    7f2b:	41 57                	push   %r15
    7f2d:	41 56                	push   %r14
    7f2f:	41 55                	push   %r13
    7f31:	41 54                	push   %r12
    7f33:	53                   	push   %rbx
    7f34:	48 81 ec 00 10 00 00 	sub    $0x1000,%rsp
    7f3b:	48 83 0c 24 00       	orq    $0x0,(%rsp)
    7f40:	48 81 ec 88 01 00 00 	sub    $0x188,%rsp
    7f47:	48 89 bd 78 ee ff ff 	mov    %rdi,-0x1188(%rbp)
    7f4e:	89 f0                	mov    %esi,%eax
    7f50:	89 95 70 ee ff ff    	mov    %edx,-0x1190(%rbp)
    7f56:	48 89 8d 68 ee ff ff 	mov    %rcx,-0x1198(%rbp)
    7f5d:	88 85 74 ee ff ff    	mov    %al,-0x118c(%rbp)
    7f63:	64 48 8b 04 25 28 00 	mov    %fs:0x28,%rax
    7f6a:	00 00 
    7f6c:	48 89 45 c8          	mov    %rax,-0x38(%rbp)
    7f70:	31 c0                	xor    %eax,%eax
    7f72:	c6 85 8d ee ff ff 86 	movb   $0x86,-0x1173(%rbp)
    7f79:	48 8d 05 18 79 01 00 	lea    0x17918(%rip),%rax        # 1f898 <g_1103>
    7f80:	48 89 85 f0 ef ff ff 	mov    %rax,-0x1010(%rbp)
    7f87:	48 8d 05 96 60 01 00 	lea    0x16096(%rip),%rax        # 1e024 <g_9>
    7f8e:	48 89 85 78 ef ff ff 	mov    %rax,-0x1088(%rbp)
    7f95:	48 c7 85 80 ef ff ff 	movq   $0x0,-0x1080(%rbp)
    7f9c:	00 00 00 00 
    7fa0:	48 c7 85 50 f6 ff ff 	movq   $0x0,-0x9b0(%rbp)
    7fa7:	00 00 00 00 
    7fab:	48 c7 85 58 f6 ff ff 	movq   $0x0,-0x9a8(%rbp)
    7fb2:	00 00 00 00 
    7fb6:	48 8d 85 80 ef ff ff 	lea    -0x1080(%rbp),%rax
    7fbd:	48 89 85 60 f6 ff ff 	mov    %rax,-0x9a0(%rbp)
    7fc4:	48 8d 85 80 ef ff ff 	lea    -0x1080(%rbp),%rax
    7fcb:	48 89 85 68 f6 ff ff 	mov    %rax,-0x998(%rbp)
    7fd2:	48 8d 85 80 ef ff ff 	lea    -0x1080(%rbp),%rax
    7fd9:	48 89 85 70 f6 ff ff 	mov    %rax,-0x990(%rbp)
    7fe0:	48 8d 85 80 ef ff ff 	lea    -0x1080(%rbp),%rax
    7fe7:	48 89 85 78 f6 ff ff 	mov    %rax,-0x988(%rbp)
    7fee:	48 8d 85 80 ef ff ff 	lea    -0x1080(%rbp),%rax
    7ff5:	48 89 85 80 f6 ff ff 	mov    %rax,-0x980(%rbp)
    7ffc:	48 8d 85 80 ef ff ff 	lea    -0x1080(%rbp),%rax
    8003:	48 89 85 88 f6 ff ff 	mov    %rax,-0x978(%rbp)
    800a:	48 8d 85 80 ef ff ff 	lea    -0x1080(%rbp),%rax
    8011:	48 89 85 90 f6 ff ff 	mov    %rax,-0x970(%rbp)
    8018:	48 c7 85 98 f6 ff ff 	movq   $0x0,-0x968(%rbp)
    801f:	00 00 00 00 
    8023:	48 c7 85 a0 f6 ff ff 	movq   $0x0,-0x960(%rbp)
    802a:	00 00 00 00 
    802e:	48 8d 85 80 ef ff ff 	lea    -0x1080(%rbp),%rax
    8035:	48 89 85 a8 f6 ff ff 	mov    %rax,-0x958(%rbp)
    803c:	48 c7 85 b0 f6 ff ff 	movq   $0x0,-0x950(%rbp)
    8043:	00 00 00 00 
    8047:	48 c7 85 b8 f6 ff ff 	movq   $0x0,-0x948(%rbp)
    804e:	00 00 00 00 
    8052:	48 8d 85 80 ef ff ff 	lea    -0x1080(%rbp),%rax
    8059:	48 89 85 c0 f6 ff ff 	mov    %rax,-0x940(%rbp)
    8060:	48 c7 85 c8 f6 ff ff 	movq   $0x0,-0x938(%rbp)
    8067:	00 00 00 00 
    806b:	48 c7 85 d0 f6 ff ff 	movq   $0x0,-0x930(%rbp)
    8072:	00 00 00 00 
    8076:	48 8d 85 80 ef ff ff 	lea    -0x1080(%rbp),%rax
    807d:	48 89 85 d8 f6 ff ff 	mov    %rax,-0x928(%rbp)
    8084:	48 c7 85 e0 f6 ff ff 	movq   $0x0,-0x920(%rbp)
    808b:	00 00 00 00 
    808f:	48 c7 85 e8 f6 ff ff 	movq   $0x0,-0x918(%rbp)
    8096:	00 00 00 00 
    809a:	48 8d 85 80 ef ff ff 	lea    -0x1080(%rbp),%rax
    80a1:	48 89 85 f0 f6 ff ff 	mov    %rax,-0x910(%rbp)
    80a8:	48 8d 85 80 ef ff ff 	lea    -0x1080(%rbp),%rax
    80af:	48 89 85 f8 f6 ff ff 	mov    %rax,-0x908(%rbp)
    80b6:	48 8d 85 80 ef ff ff 	lea    -0x1080(%rbp),%rax
    80bd:	48 89 85 00 f7 ff ff 	mov    %rax,-0x900(%rbp)
    80c4:	48 8d 85 80 ef ff ff 	lea    -0x1080(%rbp),%rax
    80cb:	48 89 85 08 f7 ff ff 	mov    %rax,-0x8f8(%rbp)
    80d2:	48 8d 85 80 ef ff ff 	lea    -0x1080(%rbp),%rax
    80d9:	48 89 85 10 f7 ff ff 	mov    %rax,-0x8f0(%rbp)
    80e0:	48 8d 85 80 ef ff ff 	lea    -0x1080(%rbp),%rax
    80e7:	48 89 85 18 f7 ff ff 	mov    %rax,-0x8e8(%rbp)
    80ee:	48 8d 85 80 ef ff ff 	lea    -0x1080(%rbp),%rax
    80f5:	48 89 85 20 f7 ff ff 	mov    %rax,-0x8e0(%rbp)
    80fc:	48 c7 85 28 f7 ff ff 	movq   $0x0,-0x8d8(%rbp)
    8103:	00 00 00 00 
    8107:	48 c7 85 30 f7 ff ff 	movq   $0x0,-0x8d0(%rbp)
    810e:	00 00 00 00 
    8112:	48 8d 85 80 ef ff ff 	lea    -0x1080(%rbp),%rax
    8119:	48 89 85 38 f7 ff ff 	mov    %rax,-0x8c8(%rbp)
    8120:	48 c7 85 40 f7 ff ff 	movq   $0x0,-0x8c0(%rbp)
    8127:	00 00 00 00 
    812b:	48 c7 85 48 f7 ff ff 	movq   $0x0,-0x8b8(%rbp)
    8132:	00 00 00 00 
    8136:	48 8d 85 80 ef ff ff 	lea    -0x1080(%rbp),%rax
    813d:	48 89 85 50 f7 ff ff 	mov    %rax,-0x8b0(%rbp)
    8144:	48 c7 85 58 f7 ff ff 	movq   $0x0,-0x8a8(%rbp)
    814b:	00 00 00 00 
    814f:	48 c7 85 60 f7 ff ff 	movq   $0x0,-0x8a0(%rbp)
    8156:	00 00 00 00 
    815a:	48 8d 85 80 ef ff ff 	lea    -0x1080(%rbp),%rax
    8161:	48 89 85 68 f7 ff ff 	mov    %rax,-0x898(%rbp)
    8168:	48 c7 85 70 f7 ff ff 	movq   $0x0,-0x890(%rbp)
    816f:	00 00 00 00 
    8173:	48 c7 85 78 f7 ff ff 	movq   $0x0,-0x888(%rbp)
    817a:	00 00 00 00 
    817e:	48 8d 85 80 ef ff ff 	lea    -0x1080(%rbp),%rax
    8185:	48 89 85 80 f7 ff ff 	mov    %rax,-0x880(%rbp)
    818c:	48 8d 85 80 ef ff ff 	lea    -0x1080(%rbp),%rax
    8193:	48 89 85 88 f7 ff ff 	mov    %rax,-0x878(%rbp)
    819a:	48 8d 85 80 ef ff ff 	lea    -0x1080(%rbp),%rax
    81a1:	48 89 85 90 f7 ff ff 	mov    %rax,-0x870(%rbp)
    81a8:	48 8d 85 80 ef ff ff 	lea    -0x1080(%rbp),%rax
    81af:	48 89 85 98 f7 ff ff 	mov    %rax,-0x868(%rbp)
    81b6:	48 8d 85 80 ef ff ff 	lea    -0x1080(%rbp),%rax
    81bd:	48 89 85 a0 f7 ff ff 	mov    %rax,-0x860(%rbp)
    81c4:	48 8d 85 80 ef ff ff 	lea    -0x1080(%rbp),%rax
    81cb:	48 89 85 a8 f7 ff ff 	mov    %rax,-0x858(%rbp)
    81d2:	48 8d 85 80 ef ff ff 	lea    -0x1080(%rbp),%rax
    81d9:	48 89 85 b0 f7 ff ff 	mov    %rax,-0x850(%rbp)
    81e0:	48 c7 85 b8 f7 ff ff 	movq   $0x0,-0x848(%rbp)
    81e7:	00 00 00 00 
    81eb:	48 c7 85 c0 f7 ff ff 	movq   $0x0,-0x840(%rbp)
    81f2:	00 00 00 00 
    81f6:	48 8d 85 80 ef ff ff 	lea    -0x1080(%rbp),%rax
    81fd:	48 89 85 c8 f7 ff ff 	mov    %rax,-0x838(%rbp)
    8204:	c7 85 c4 ee ff ff da 	movl   $0xf8e8f4da,-0x113c(%rbp)
    820b:	f4 e8 f8 
    820e:	48 8d 85 30 f5 ff ff 	lea    -0xad0(%rbp),%rax
    8215:	48 8d 15 64 21 01 00 	lea    0x12164(%rip),%rdx        # 1a380 <g_2104+0x4>
    821c:	b9 23 00 00 00       	mov    $0x23,%ecx
    8221:	48 89 c7             	mov    %rax,%rdi
    8224:	48 89 d6             	mov    %rdx,%rsi
    8227:	f3 48 a5             	rep movsq %ds:(%rsi),%es:(%rdi)
    822a:	c6 85 90 ee ff ff ff 	movb   $0xff,-0x1170(%rbp)
    8231:	c7 85 f8 ee ff ff 00 	movl   $0x0,-0x1108(%rbp)
    8238:	00 00 00 
    823b:	c7 85 fc ee ff ff 05 	movl   $0x5,-0x1104(%rbp)
    8242:	00 00 00 
    8245:	c7 85 9c ee ff ff 04 	movl   $0x4,-0x1164(%rbp)
    824c:	00 00 00 
    824f:	48 8d 05 ba 84 01 00 	lea    0x184ba(%rip),%rax        # 20710 <g_1644>
    8256:	48 89 85 f8 ef ff ff 	mov    %rax,-0x1008(%rbp)
    825d:	66 c7 85 50 f3 ff ff 	movw   $0x131,-0xcb0(%rbp)
    8264:	31 01 
    8266:	c6 85 52 f3 ff ff 78 	movb   $0x78,-0xcae(%rbp)
    826d:	66 c7 85 53 f3 ff ff 	movw   $0x1a7,-0xcad(%rbp)
    8274:	a7 01 
    8276:	c6 85 55 f3 ff ff bd 	movb   $0xbd,-0xcab(%rbp)
    827d:	66 c7 85 56 f3 ff ff 	movw   $0xfe,-0xcaa(%rbp)
    8284:	fe 00 
    8286:	c6 85 58 f3 ff ff ff 	movb   $0xff,-0xca8(%rbp)
    828d:	66 c7 85 59 f3 ff ff 	movw   $0x3188,-0xca7(%rbp)
    8294:	88 31 
    8296:	c6 85 5b f3 ff ff 97 	movb   $0x97,-0xca5(%rbp)
    829d:	66 c7 85 5c f3 ff ff 	movw   $0x36a,-0xca4(%rbp)
    82a4:	6a 03 
    82a6:	c6 85 5e f3 ff ff 2a 	movb   $0x2a,-0xca2(%rbp)
    82ad:	66 c7 85 5f f3 ff ff 	movw   $0xdefb,-0xca1(%rbp)
    82b4:	fb de 
    82b6:	c6 85 61 f3 ff ff 0a 	movb   $0xa,-0xc9f(%rbp)
    82bd:	66 c7 85 62 f3 ff ff 	movw   $0x6304,-0xc9e(%rbp)
    82c4:	04 63 
    82c6:	c6 85 64 f3 ff ff 0a 	movb   $0xa,-0xc9c(%rbp)
    82cd:	66 c7 85 65 f3 ff ff 	movw   $0x120,-0xc9b(%rbp)
    82d4:	20 01 
    82d6:	c6 85 67 f3 ff ff 00 	movb   $0x0,-0xc99(%rbp)
    82dd:	66 c7 85 68 f3 ff ff 	movw   $0xfea1,-0xc98(%rbp)
    82e4:	a1 fe 
    82e6:	c6 85 6a f3 ff ff fd 	movb   $0xfd,-0xc96(%rbp)
    82ed:	66 c7 85 6b f3 ff ff 	movw   $0xf801,-0xc95(%rbp)
    82f4:	01 f8 
    82f6:	c6 85 6d f3 ff ff 76 	movb   $0x76,-0xc93(%rbp)
    82fd:	66 c7 85 6e f3 ff ff 	movw   $0x9713,-0xc92(%rbp)
    8304:	13 97 
    8306:	c6 85 70 f3 ff ff 25 	movb   $0x25,-0xc90(%rbp)
    830d:	66 c7 85 71 f3 ff ff 	movw   $0xfb9e,-0xc8f(%rbp)
    8314:	9e fb 
    8316:	c6 85 73 f3 ff ff fe 	movb   $0xfe,-0xc8d(%rbp)
    831d:	66 c7 85 74 f3 ff ff 	movw   $0xff01,-0xc8c(%rbp)
    8324:	01 ff 
    8326:	c6 85 76 f3 ff ff ba 	movb   $0xba,-0xc8a(%rbp)
    832d:	66 c7 85 77 f3 ff ff 	movw   $0xa700,-0xc89(%rbp)
    8334:	00 a7 
    8336:	c6 85 79 f3 ff ff 03 	movb   $0x3,-0xc87(%rbp)
    833d:	66 c7 85 7a f3 ff ff 	movw   $0x4bd,-0xc86(%rbp)
    8344:	bd 04 
    8346:	c6 85 7c f3 ff ff a1 	movb   $0xa1,-0xc84(%rbp)
    834d:	66 c7 85 7d f3 ff ff 	movw   $0xa15d,-0xc83(%rbp)
    8354:	5d a1 
    8356:	c6 85 7f f3 ff ff 08 	movb   $0x8,-0xc81(%rbp)
    835d:	66 c7 85 80 f3 ff ff 	movw   $0x5d04,-0xc80(%rbp)
    8364:	04 5d 
    8366:	c6 85 82 f3 ff ff 04 	movb   $0x4,-0xc7e(%rbp)
    836d:	66 c7 85 83 f3 ff ff 	movw   $0x25,-0xc7d(%rbp)
    8374:	25 00 
    8376:	c6 85 85 f3 ff ff 01 	movb   $0x1,-0xc7b(%rbp)
    837d:	66 c7 85 86 f3 ff ff 	movw   $0xdbff,-0xc7a(%rbp)
    8384:	ff db 
    8386:	c6 85 88 f3 ff ff 00 	movb   $0x0,-0xc78(%rbp)
    838d:	66 c7 85 89 f3 ff ff 	movw   $0x3176,-0xc77(%rbp)
    8394:	76 31 
    8396:	c6 85 8b f3 ff ff a8 	movb   $0xa8,-0xc75(%rbp)
    839d:	66 c7 85 8c f3 ff ff 	movw   $0x8815,-0xc74(%rbp)
    83a4:	15 88 
    83a6:	c6 85 8e f3 ff ff de 	movb   $0xde,-0xc72(%rbp)
    83ad:	66 c7 85 8f f3 ff ff 	movw   $0xff76,-0xc71(%rbp)
    83b4:	76 ff 
    83b6:	c6 85 91 f3 ff ff ff 	movb   $0xff,-0xc6f(%rbp)
    83bd:	66 c7 85 92 f3 ff ff 	movw   $0x13ff,-0xc6e(%rbp)
    83c4:	ff 13 
    83c6:	c6 85 94 f3 ff ff 31 	movb   $0x31,-0xc6c(%rbp)
    83cd:	66 c7 85 95 f3 ff ff 	movw   $0xfd25,-0xc6b(%rbp)
    83d4:	25 fd 
    83d6:	c6 85 97 f3 ff ff 78 	movb   $0x78,-0xc69(%rbp)
    83dd:	66 c7 85 98 f3 ff ff 	movw   $0x5404,-0xc68(%rbp)
    83e4:	04 54 
    83e6:	c6 85 9a f3 ff ff 01 	movb   $0x1,-0xc66(%rbp)
    83ed:	66 c7 85 9b f3 ff ff 	movw   $0x85d,-0xc65(%rbp)
    83f4:	5d 08 
    83f6:	c6 85 9d f3 ff ff fe 	movb   $0xfe,-0xc63(%rbp)
    83fd:	66 c7 85 9e f3 ff ff 	movw   $0x8bd,-0xc62(%rbp)
    8404:	bd 08 
    8406:	c6 85 a0 f3 ff ff 9f 	movb   $0x9f,-0xc60(%rbp)
    840d:	66 c7 85 a1 f3 ff ff 	movw   $0xab00,-0xc5f(%rbp)
    8414:	00 ab 
    8416:	c6 85 a3 f3 ff ff bd 	movb   $0xbd,-0xc5d(%rbp)
    841d:	66 c7 85 a4 f3 ff ff 	movw   $0x9e01,-0xc5c(%rbp)
    8424:	01 9e 
    8426:	c6 85 a6 f3 ff ff 00 	movb   $0x0,-0xc5a(%rbp)
    842d:	66 c7 85 a7 f3 ff ff 	movw   $0xf69e,-0xc59(%rbp)
    8434:	9e f6 
    8436:	c6 85 a9 f3 ff ff 00 	movb   $0x0,-0xc57(%rbp)
    843d:	66 c7 85 aa f3 ff ff 	movw   $0xff13,-0xc56(%rbp)
    8444:	13 ff 
    8446:	c6 85 ac f3 ff ff fd 	movb   $0xfd,-0xc54(%rbp)
    844d:	66 c7 85 ad f3 ff ff 	movw   $0x2201,-0xc53(%rbp)
    8454:	01 22 
    8456:	c6 85 af f3 ff ff 54 	movb   $0x54,-0xc51(%rbp)
    845d:	66 c7 85 b0 f3 ff ff 	movw   $0xffa1,-0xc50(%rbp)
    8464:	a1 ff 
    8466:	c6 85 b2 f3 ff ff bc 	movb   $0xbc,-0xc4e(%rbp)
    846d:	66 c7 85 b3 f3 ff ff 	movw   $0x820,-0xc4d(%rbp)
    8474:	20 08 
    8476:	c6 85 b5 f3 ff ff 9e 	movb   $0x9e,-0xc4b(%rbp)
    847d:	66 c7 85 b6 f3 ff ff 	movw   $0x804,-0xc4a(%rbp)
    8484:	04 08 
    8486:	c6 85 b8 f3 ff ff ff 	movb   $0xff,-0xc48(%rbp)
    848d:	66 c7 85 b9 f3 ff ff 	movw   $0xfffb,-0xc47(%rbp)
    8494:	fb ff 
    8496:	c6 85 bb f3 ff ff 44 	movb   $0x44,-0xc45(%rbp)
    849d:	66 c7 85 bc f3 ff ff 	movw   $0x22fd,-0xc44(%rbp)
    84a4:	fd 22 
    84a6:	c6 85 be f3 ff ff 01 	movb   $0x1,-0xc42(%rbp)
    84ad:	66 c7 85 bf f3 ff ff 	movw   $0xff08,-0xc41(%rbp)
    84b4:	08 ff 
    84b6:	c6 85 c1 f3 ff ff bb 	movb   $0xbb,-0xc3f(%rbp)
    84bd:	66 c7 85 c2 f3 ff ff 	movw   $0xf677,-0xc3e(%rbp)
    84c4:	77 f6 
    84c6:	c6 85 c4 f3 ff ff 00 	movb   $0x0,-0xc3c(%rbp)
    84cd:	66 c7 85 c5 f3 ff ff 	movw   $0x9e44,-0xc3b(%rbp)
    84d4:	44 9e 
    84d6:	c6 85 c7 f3 ff ff ff 	movb   $0xff,-0xc39(%rbp)
    84dd:	66 c7 85 c8 f3 ff ff 	movw   $0xabbb,-0xc38(%rbp)
    84e4:	bb ab 
    84e6:	c6 85 ca f3 ff ff 13 	movb   $0x13,-0xc36(%rbp)
    84ed:	66 c7 85 cb f3 ff ff 	movw   $0x801,-0xc35(%rbp)
    84f4:	01 08 
    84f6:	c6 85 cd f3 ff ff ff 	movb   $0xff,-0xc33(%rbp)
    84fd:	66 c7 85 ce f3 ff ff 	movw   $0x801,-0xc32(%rbp)
    8504:	01 08 
    8506:	c6 85 d0 f3 ff ff 09 	movb   $0x9,-0xc30(%rbp)
    850d:	66 c7 85 d1 f3 ff ff 	movw   $0x54ba,-0xc2f(%rbp)
    8514:	ba 54 
    8516:	c6 85 d3 f3 ff ff 88 	movb   $0x88,-0xc2d(%rbp)
    851d:	66 c7 85 d4 f3 ff ff 	movw   $0xfdfd,-0xc2c(%rbp)
    8524:	fd fd 
    8526:	c6 85 d6 f3 ff ff 63 	movb   $0x63,-0xc2a(%rbp)
    852d:	66 c7 85 d7 f3 ff ff 	movw   $0x1300,-0xc29(%rbp)
    8534:	00 13 
    8536:	c6 85 d9 f3 ff ff 01 	movb   $0x1,-0xc27(%rbp)
    853d:	66 c7 85 da f3 ff ff 	movw   $0xff31,-0xc26(%rbp)
    8544:	31 ff 
    8546:	c6 85 dc f3 ff ff 02 	movb   $0x2,-0xc24(%rbp)
    854d:	66 c7 85 dd f3 ff ff 	movw   $0x88fb,-0xc23(%rbp)
    8554:	fb 88 
    8556:	c6 85 df f3 ff ff 08 	movb   $0x8,-0xc21(%rbp)
    855d:	66 c7 85 e0 f3 ff ff 	movw   $0x31fe,-0xc20(%rbp)
    8564:	fe 31 
    8566:	c6 85 e2 f3 ff ff 02 	movb   $0x2,-0xc1e(%rbp)
    856d:	66 c7 85 e3 f3 ff ff 	movw   $0xdbc9,-0xc1d(%rbp)
    8574:	c9 db 
    8576:	c6 85 e5 f3 ff ff 01 	movb   $0x1,-0xc1b(%rbp)
    857d:	66 c7 85 e6 f3 ff ff 	movw   $0xf8,-0xc1a(%rbp)
    8584:	f8 00 
    8586:	c6 85 e8 f3 ff ff 63 	movb   $0x63,-0xc18(%rbp)
    858d:	66 c7 85 e9 f3 ff ff 	movw   $0x5d8c,-0xc17(%rbp)
    8594:	8c 5d 
    8596:	c6 85 eb f3 ff ff 88 	movb   $0x88,-0xc15(%rbp)
    859d:	66 c7 85 ec f3 ff ff 	movw   $0xa1ff,-0xc14(%rbp)
    85a4:	ff a1 
    85a6:	c6 85 ee f3 ff ff 09 	movb   $0x9,-0xc12(%rbp)
    85ad:	66 c7 85 ef f3 ff ff 	movw   $0x4ab,-0xc11(%rbp)
    85b4:	ab 04 
    85b6:	c6 85 f1 f3 ff ff ff 	movb   $0xff,-0xc0f(%rbp)
    85bd:	66 c7 85 f2 f3 ff ff 	movw   $0xa79f,-0xc0e(%rbp)
    85c4:	9f a7 
    85c6:	c6 85 f4 f3 ff ff 13 	movb   $0x13,-0xc0c(%rbp)
    85cd:	66 c7 85 f5 f3 ff ff 	movw   $0xffff,-0xc0b(%rbp)
    85d4:	ff ff 
    85d6:	c6 85 f7 f3 ff ff ff 	movb   $0xff,-0xc09(%rbp)
    85dd:	66 c7 85 f8 f3 ff ff 	movw   $0xfb08,-0xc08(%rbp)
    85e4:	08 fb 
    85e6:	c6 85 fa f3 ff ff 00 	movb   $0x0,-0xc06(%rbp)
    85ed:	66 c7 85 fb f3 ff ff 	movw   $0x97ff,-0xc05(%rbp)
    85f4:	ff 97 
    85f6:	c6 85 fd f3 ff ff bb 	movb   $0xbb,-0xc03(%rbp)
    85fd:	66 c7 85 fe f3 ff ff 	movw   $0xf8de,-0xc02(%rbp)
    8604:	de f8 
    8606:	c6 85 00 f4 ff ff 01 	movb   $0x1,-0xc00(%rbp)
    860d:	66 c7 85 01 f4 ff ff 	movw   $0xfebc,-0xbff(%rbp)
    8614:	bc fe 
    8616:	c6 85 03 f4 ff ff 44 	movb   $0x44,-0xbfd(%rbp)
    861d:	66 c7 85 04 f4 ff ff 	movw   $0x1fc,-0xbfc(%rbp)
    8624:	fc 01 
    8626:	c6 85 06 f4 ff ff ff 	movb   $0xff,-0xbfa(%rbp)
    862d:	66 c7 85 07 f4 ff ff 	movw   $0x637f,-0xbf9(%rbp)
    8634:	7f 63 
    8636:	c6 85 09 f4 ff ff 9e 	movb   $0x9e,-0xbf7(%rbp)
    863d:	66 c7 85 0a f4 ff ff 	movw   $0xde7f,-0xbf6(%rbp)
    8644:	7f de 
    8646:	c6 85 0c f4 ff ff bc 	movb   $0xbc,-0xbf4(%rbp)
    864d:	66 c7 85 0d f4 ff ff 	movw   $0xfdfc,-0xbf3(%rbp)
    8654:	fc fd 
    8656:	c6 85 0f f4 ff ff 54 	movb   $0x54,-0xbf1(%rbp)
    865d:	66 c7 85 10 f4 ff ff 	movw   $0xbbbc,-0xbf0(%rbp)
    8664:	bc bb 
    8666:	c6 85 12 f4 ff ff fd 	movb   $0xfd,-0xbee(%rbp)
    866d:	66 c7 85 13 f4 ff ff 	movw   $0xffde,-0xbed(%rbp)
    8674:	de ff 
    8676:	c6 85 15 f4 ff ff 00 	movb   $0x0,-0xbeb(%rbp)
    867d:	66 c7 85 16 f4 ff ff 	movw   $0xffff,-0xbea(%rbp)
    8684:	ff ff 
    8686:	c6 85 18 f4 ff ff 00 	movb   $0x0,-0xbe8(%rbp)
    868d:	66 c7 85 19 f4 ff ff 	movw   $0xc908,-0xbe7(%rbp)
    8694:	08 c9 
    8696:	c6 85 1b f4 ff ff bd 	movb   $0xbd,-0xbe5(%rbp)
    869d:	66 c7 85 1c f4 ff ff 	movw   $0x8ff,-0xbe4(%rbp)
    86a4:	ff 08 
    86a6:	c6 85 1e f4 ff ff f8 	movb   $0xf8,-0xbe2(%rbp)
    86ad:	66 c7 85 1f f4 ff ff 	movw   $0xf8,-0xbe1(%rbp)
    86b4:	f8 00 
    86b6:	c6 85 21 f4 ff ff ab 	movb   $0xab,-0xbdf(%rbp)
    86bd:	66 c7 85 22 f4 ff ff 	movw   $0xff01,-0xbde(%rbp)
    86c4:	01 ff 
    86c6:	c6 85 24 f4 ff ff 01 	movb   $0x1,-0xbdc(%rbp)
    86cd:	66 c7 85 25 f4 ff ff 	movw   $0xfe76,-0xbdb(%rbp)
    86d4:	76 fe 
    86d6:	c6 85 27 f4 ff ff fe 	movb   $0xfe,-0xbd9(%rbp)
    86dd:	66 c7 85 28 f4 ff ff 	movw   $0x317f,-0xbd8(%rbp)
    86e4:	7f 31 
    86e6:	c6 85 2a f4 ff ff bb 	movb   $0xbb,-0xbd6(%rbp)
    86ed:	66 c7 85 2b f4 ff ff 	movw   $0xfd00,-0xbd5(%rbp)
    86f4:	00 fd 
    86f6:	c6 85 2d f4 ff ff bd 	movb   $0xbd,-0xbd3(%rbp)
    86fd:	66 c7 85 2e f4 ff ff 	movw   $0xff88,-0xbd2(%rbp)
    8704:	88 ff 
    8706:	c6 85 30 f4 ff ff 01 	movb   $0x1,-0xbd0(%rbp)
    870d:	66 c7 85 31 f4 ff ff 	movw   $0x20ab,-0xbcf(%rbp)
    8714:	ab 20 
    8716:	c6 85 33 f4 ff ff a1 	movb   $0xa1,-0xbcd(%rbp)
    871d:	66 c7 85 34 f4 ff ff 	movw   $0xff01,-0xbcc(%rbp)
    8724:	01 ff 
    8726:	c6 85 36 f4 ff ff 03 	movb   $0x3,-0xbca(%rbp)
    872d:	66 c7 85 37 f4 ff ff 	movw   $0xfdbb,-0xbc9(%rbp)
    8734:	bb fd 
    8736:	c6 85 39 f4 ff ff c9 	movb   $0xc9,-0xbc7(%rbp)
    873d:	66 c7 85 3a f4 ff ff 	movw   $0x3113,-0xbc6(%rbp)
    8744:	13 31 
    8746:	c6 85 3c f4 ff ff 0a 	movb   $0xa,-0xbc4(%rbp)
    874d:	66 c7 85 3d f4 ff ff 	movw   $0xfe08,-0xbc3(%rbp)
    8754:	08 fe 
    8756:	c6 85 3f f4 ff ff 02 	movb   $0x2,-0xbc1(%rbp)
    875d:	c7 85 00 ef ff ff 07 	movl   $0x7,-0x1100(%rbp)
    8764:	00 00 00 
    8767:	c7 85 a0 ee ff ff fa 	movl   $0xfffffffa,-0x1160(%rbp)
    876e:	ff ff ff 
    8771:	c6 85 8e ee ff ff a2 	movb   $0xa2,-0x1172(%rbp)
    8778:	48 8d 05 79 70 01 00 	lea    0x17079(%rip),%rax        # 1f7f8 <g_686>
    877f:	48 89 85 f0 f2 ff ff 	mov    %rax,-0xd10(%rbp)
    8786:	48 8d 05 6b 70 01 00 	lea    0x1706b(%rip),%rax        # 1f7f8 <g_686>
    878d:	48 89 85 f8 f2 ff ff 	mov    %rax,-0xd08(%rbp)
    8794:	48 8d 05 5d 70 01 00 	lea    0x1705d(%rip),%rax        # 1f7f8 <g_686>
    879b:	48 89 85 00 f3 ff ff 	mov    %rax,-0xd00(%rbp)
    87a2:	48 8d 05 4f 70 01 00 	lea    0x1704f(%rip),%rax        # 1f7f8 <g_686>
    87a9:	48 89 85 08 f3 ff ff 	mov    %rax,-0xcf8(%rbp)
    87b0:	48 8d 05 41 70 01 00 	lea    0x17041(%rip),%rax        # 1f7f8 <g_686>
    87b7:	48 89 85 10 f3 ff ff 	mov    %rax,-0xcf0(%rbp)
    87be:	48 8d 05 33 70 01 00 	lea    0x17033(%rip),%rax        # 1f7f8 <g_686>
    87c5:	48 89 85 18 f3 ff ff 	mov    %rax,-0xce8(%rbp)
    87cc:	48 8d 05 25 70 01 00 	lea    0x17025(%rip),%rax        # 1f7f8 <g_686>
    87d3:	48 89 85 20 f3 ff ff 	mov    %rax,-0xce0(%rbp)
    87da:	48 8d 05 17 70 01 00 	lea    0x17017(%rip),%rax        # 1f7f8 <g_686>
    87e1:	48 89 85 28 f3 ff ff 	mov    %rax,-0xcd8(%rbp)
    87e8:	48 8d 05 09 70 01 00 	lea    0x17009(%rip),%rax        # 1f7f8 <g_686>
    87ef:	48 89 85 30 f3 ff ff 	mov    %rax,-0xcd0(%rbp)
    87f6:	48 8d 05 fb 6f 01 00 	lea    0x16ffb(%rip),%rax        # 1f7f8 <g_686>
    87fd:	48 89 85 38 f3 ff ff 	mov    %rax,-0xcc8(%rbp)
    8804:	48 8d 05 ed 6f 01 00 	lea    0x16fed(%rip),%rax        # 1f7f8 <g_686>
    880b:	48 89 85 40 f3 ff ff 	mov    %rax,-0xcc0(%rbp)
    8812:	48 8d 05 df 6f 01 00 	lea    0x16fdf(%rip),%rax        # 1f7f8 <g_686>
    8819:	48 89 85 48 f3 ff ff 	mov    %rax,-0xcb8(%rbp)
    8820:	48 8d 05 49 5a 01 00 	lea    0x15a49(%rip),%rax        # 1e270 <g_395+0x10>
    8827:	48 89 85 20 f2 ff ff 	mov    %rax,-0xde0(%rbp)
    882e:	48 8d 05 1b 5a 01 00 	lea    0x15a1b(%rip),%rax        # 1e250 <g_376>
    8835:	48 89 85 28 f2 ff ff 	mov    %rax,-0xdd8(%rbp)
    883c:	48 8d 05 0d 5a 01 00 	lea    0x15a0d(%rip),%rax        # 1e250 <g_376>
    8843:	48 89 85 30 f2 ff ff 	mov    %rax,-0xdd0(%rbp)
    884a:	48 8d 05 1f 5a 01 00 	lea    0x15a1f(%rip),%rax        # 1e270 <g_395+0x10>
    8851:	48 89 85 38 f2 ff ff 	mov    %rax,-0xdc8(%rbp)
    8858:	48 8d 05 f1 59 01 00 	lea    0x159f1(%rip),%rax        # 1e250 <g_376>
    885f:	48 89 85 40 f2 ff ff 	mov    %rax,-0xdc0(%rbp)
    8866:	48 8d 05 e3 59 01 00 	lea    0x159e3(%rip),%rax        # 1e250 <g_376>
    886d:	48 89 85 48 f2 ff ff 	mov    %rax,-0xdb8(%rbp)
    8874:	48 8d 05 f5 59 01 00 	lea    0x159f5(%rip),%rax        # 1e270 <g_395+0x10>
    887b:	48 89 85 50 f2 ff ff 	mov    %rax,-0xdb0(%rbp)
    8882:	48 c7 85 88 ef ff ff 	movq   $0xffffffffffffffff,-0x1078(%rbp)
    8889:	ff ff ff ff 
    888d:	48 8d 05 c4 6e 01 00 	lea    0x16ec4(%rip),%rax        # 1f758 <g_356>
    8894:	48 89 85 00 f0 ff ff 	mov    %rax,-0x1000(%rbp)
    889b:	48 8d 85 8e ee ff ff 	lea    -0x1172(%rbp),%rax
    88a2:	48 89 85 90 ef ff ff 	mov    %rax,-0x1070(%rbp)
    88a9:	c6 85 66 f1 ff ff 08 	movb   $0x8,-0xe9a(%rbp)
    88b0:	c6 85 67 f1 ff ff 16 	movb   $0x16,-0xe99(%rbp)
    88b7:	c6 85 68 f1 ff ff 08 	movb   $0x8,-0xe98(%rbp)
    88be:	c6 85 69 f1 ff ff fe 	movb   $0xfe,-0xe97(%rbp)
    88c5:	c6 85 6a f1 ff ff fe 	movb   $0xfe,-0xe96(%rbp)
    88cc:	c6 85 6b f1 ff ff 08 	movb   $0x8,-0xe95(%rbp)
    88d3:	c6 85 6c f1 ff ff 16 	movb   $0x16,-0xe94(%rbp)
    88da:	c6 85 6d f1 ff ff 08 	movb   $0x8,-0xe93(%rbp)
    88e1:	c6 85 6e f1 ff ff fe 	movb   $0xfe,-0xe92(%rbp)
    88e8:	c6 85 6f f1 ff ff fe 	movb   $0xfe,-0xe91(%rbp)
    88ef:	c6 85 92 ee ff ff 8c 	movb   $0x8c,-0x116e(%rbp)
    88f6:	c7 85 04 ef ff ff 00 	movl   $0x0,-0x10fc(%rbp)
    88fd:	00 00 00 
    8900:	48 c7 85 08 f0 ff ff 	movq   $0x3,-0xff8(%rbp)
    8907:	03 00 00 00 
    890b:	48 b8 4b 8c e1 2c 79 	movabs $0xaf0f91792ce18c4b,%rax
    8912:	91 0f af 
    8915:	48 89 85 10 f0 ff ff 	mov    %rax,-0xff0(%rbp)
    891c:	48 8d 85 88 ef ff ff 	lea    -0x1078(%rbp),%rax
    8923:	48 89 85 d0 f1 ff ff 	mov    %rax,-0xe30(%rbp)
    892a:	48 8d 85 88 ef ff ff 	lea    -0x1078(%rbp),%rax
    8931:	48 89 85 d8 f1 ff ff 	mov    %rax,-0xe28(%rbp)
    8938:	48 8d 85 88 ef ff ff 	lea    -0x1078(%rbp),%rax
    893f:	48 89 85 e0 f1 ff ff 	mov    %rax,-0xe20(%rbp)
    8946:	48 8d 85 88 ef ff ff 	lea    -0x1078(%rbp),%rax
    894d:	48 89 85 e8 f1 ff ff 	mov    %rax,-0xe18(%rbp)
    8954:	48 8d 85 d0 f1 ff ff 	lea    -0xe30(%rbp),%rax
    895b:	48 83 c0 10          	add    $0x10,%rax
    895f:	48 89 85 98 ef ff ff 	mov    %rax,-0x1068(%rbp)
    8966:	c7 85 c8 ee ff ff 00 	movl   $0x0,-0x1138(%rbp)
    896d:	00 00 00 
    8970:	eb 1e                	jmp    8990 <func_12+0xa6d>
    8972:	8b 85 c8 ee ff ff    	mov    -0x1138(%rbp),%eax
    8978:	48 98                	cltq   
    897a:	48 8d 15 c7 58 01 00 	lea    0x158c7(%rip),%rdx        # 1e248 <g_223>
    8981:	48 89 94 c5 60 f2 ff 	mov    %rdx,-0xda0(%rbp,%rax,8)
    8988:	ff 
    8989:	83 85 c8 ee ff ff 01 	addl   $0x1,-0x1138(%rbp)
    8990:	83 bd c8 ee ff ff 07 	cmpl   $0x7,-0x1138(%rbp)
    8997:	7e d9                	jle    8972 <func_12+0xa4f>
    8999:	c7 85 c8 ee ff ff 00 	movl   $0x0,-0x1138(%rbp)
    89a0:	00 00 00 
    89a3:	eb 14                	jmp    89b9 <func_12+0xa96>
    89a5:	8b 85 c8 ee ff ff    	mov    -0x1138(%rbp),%eax
    89ab:	48 98                	cltq   
    89ad:	c6 44 05 bc fc       	movb   $0xfc,-0x44(%rbp,%rax,1)
    89b2:	83 85 c8 ee ff ff 01 	addl   $0x1,-0x1138(%rbp)
    89b9:	83 bd c8 ee ff ff 04 	cmpl   $0x4,-0x1138(%rbp)
    89c0:	7e e3                	jle    89a5 <func_12+0xa82>
    89c2:	c7 85 c8 ee ff ff 00 	movl   $0x0,-0x1138(%rbp)
    89c9:	00 00 00 
    89cc:	eb 51                	jmp    8a1f <func_12+0xafc>
    89ce:	c7 85 cc ee ff ff 00 	movl   $0x0,-0x1134(%rbp)
    89d5:	00 00 00 
    89d8:	eb 35                	jmp    8a0f <func_12+0xaec>
    89da:	8b 85 cc ee ff ff    	mov    -0x1134(%rbp),%eax
    89e0:	48 63 c8             	movslq %eax,%rcx
    89e3:	8b 85 c8 ee ff ff    	mov    -0x1138(%rbp),%eax
    89e9:	48 63 d0             	movslq %eax,%rdx
    89ec:	48 89 d0             	mov    %rdx,%rax
    89ef:	48 01 c0             	add    %rax,%rax
    89f2:	48 01 d0             	add    %rdx,%rax
    89f5:	48 8d 14 08          	lea    (%rax,%rcx,1),%rdx
    89f9:	48 8d 85 98 ef ff ff 	lea    -0x1068(%rbp),%rax
    8a00:	48 89 84 d5 70 f1 ff 	mov    %rax,-0xe90(%rbp,%rdx,8)
    8a07:	ff 
    8a08:	83 85 cc ee ff ff 01 	addl   $0x1,-0x1134(%rbp)
    8a0f:	83 bd cc ee ff ff 02 	cmpl   $0x2,-0x1134(%rbp)
    8a16:	7e c2                	jle    89da <func_12+0xab7>
    8a18:	83 85 c8 ee ff ff 01 	addl   $0x1,-0x1138(%rbp)
    8a1f:	83 bd c8 ee ff ff 00 	cmpl   $0x0,-0x1138(%rbp)
    8a26:	7e a6                	jle    89ce <func_12+0xaab>
    8a28:	0f b6 85 8d ee ff ff 	movzbl -0x1173(%rbp),%eax
    8a2f:	0f b6 d8             	movzbl %al,%ebx
    8a32:	48 83 bd f0 ef ff ff 	cmpq   $0x0,-0x1010(%rbp)
    8a39:	00 
    8a3a:	0f 95 c0             	setne  %al
    8a3d:	0f b6 d0             	movzbl %al,%edx
    8a40:	8b 85 70 ee ff ff    	mov    -0x1190(%rbp),%eax
    8a46:	98                   	cwtl   
    8a47:	89 d6                	mov    %edx,%esi
    8a49:	89 c7                	mov    %eax,%edi
    8a4b:	e8 83 d9 ff ff       	callq  63d3 <safe_sub_func_int16_t_s_s>
    8a50:	0f bf d0             	movswl %ax,%edx
    8a53:	48 8b 85 78 ef ff ff 	mov    -0x1088(%rbp),%rax
    8a5a:	48 89 85 78 ef ff ff 	mov    %rax,-0x1088(%rbp)
    8a61:	48 8b 8d 78 ef ff ff 	mov    -0x1088(%rbp),%rcx
    8a68:	48 8d 05 ba 58 01 00 	lea    0x158ba(%rip),%rax        # 1e329 <g_1228>
    8a6f:	48 89 05 ba 7c 01 00 	mov    %rax,0x17cba(%rip)        # 20730 <g_2331>
    8a76:	48 8b 05 b3 7c 01 00 	mov    0x17cb3(%rip),%rax        # 20730 <g_2331>
    8a7d:	48 39 c1             	cmp    %rax,%rcx
    8a80:	0f 94 c0             	sete   %al
    8a83:	0f b6 c0             	movzbl %al,%eax
    8a86:	39 c2                	cmp    %eax,%edx
    8a88:	7e 15                	jle    8a9f <func_12+0xb7c>
    8a8a:	48 8b 05 9f 7c 01 00 	mov    0x17c9f(%rip),%rax        # 20730 <g_2331>
    8a91:	0f b6 00             	movzbl (%rax),%eax
    8a94:	84 c0                	test   %al,%al
    8a96:	74 07                	je     8a9f <func_12+0xb7c>
    8a98:	b8 01 00 00 00       	mov    $0x1,%eax
    8a9d:	eb 05                	jmp    8aa4 <func_12+0xb81>
    8a9f:	b8 00 00 00 00       	mov    $0x0,%eax
    8aa4:	0f b7 c0             	movzwl %ax,%eax
    8aa7:	89 de                	mov    %ebx,%esi
    8aa9:	89 c7                	mov    %eax,%edi
    8aab:	e8 6f e2 ff ff       	callq  6d1f <safe_sub_func_uint16_t_u_u>
    8ab0:	0f b7 d0             	movzwl %ax,%edx
    8ab3:	8b 85 68 ee ff ff    	mov    -0x1198(%rbp),%eax
    8ab9:	39 c2                	cmp    %eax,%edx
    8abb:	0f 94 c0             	sete   %al
    8abe:	0f b6 c0             	movzbl %al,%eax
    8ac1:	39 85 70 ee ff ff    	cmp    %eax,-0x1190(%rbp)
    8ac7:	0f 9c c0             	setl   %al
    8aca:	0f b6 c0             	movzbl %al,%eax
    8acd:	be 01 00 00 00       	mov    $0x1,%esi
    8ad2:	89 c7                	mov    %eax,%edi
    8ad4:	e8 9f e0 ff ff       	callq  6b78 <safe_sub_func_uint8_t_u_u>
    8ad9:	0f b6 c0             	movzbl %al,%eax
    8adc:	89 85 68 ee ff ff    	mov    %eax,-0x1198(%rbp)
    8ae2:	8b 85 68 ee ff ff    	mov    -0x1198(%rbp),%eax
    8ae8:	85 c0                	test   %eax,%eax
    8aea:	75 0b                	jne    8af7 <func_12+0xbd4>
    8aec:	0f b6 85 8d ee ff ff 	movzbl -0x1173(%rbp),%eax
    8af3:	84 c0                	test   %al,%al
    8af5:	74 07                	je     8afe <func_12+0xbdb>
    8af7:	b8 01 00 00 00       	mov    $0x1,%eax
    8afc:	eb 05                	jmp    8b03 <func_12+0xbe0>
    8afe:	b8 00 00 00 00       	mov    $0x0,%eax
    8b03:	0f be c0             	movsbl %al,%eax
    8b06:	89 c6                	mov    %eax,%esi
    8b08:	bf ff ff ff ff       	mov    $0xffffffff,%edi
    8b0d:	e8 c2 d6 ff ff       	callq  61d4 <safe_add_func_int8_t_s_s>
    8b12:	0f be d0             	movsbl %al,%edx
    8b15:	0f b6 85 8d ee ff ff 	movzbl -0x1173(%rbp),%eax
    8b1c:	0f b6 c0             	movzbl %al,%eax
    8b1f:	89 d6                	mov    %edx,%esi
    8b21:	89 c7                	mov    %eax,%edi
    8b23:	e8 96 e1 ff ff       	callq  6cbe <safe_rshift_func_uint8_t_u_u>
    8b28:	84 c0                	test   %al,%al
    8b2a:	0f 84 86 15 00 00    	je     a0b6 <func_12+0x2193>
    8b30:	c6 85 93 ee ff ff 73 	movb   $0x73,-0x116d(%rbp)
    8b37:	c7 85 d0 ee ff ff d6 	movl   $0x8d8109d6,-0x1130(%rbp)
    8b3e:	09 81 8d 
    8b41:	48 c7 85 a0 f2 ff ff 	movq   $0x0,-0xd60(%rbp)
    8b48:	00 00 00 00 
    8b4c:	48 8d 05 3f 57 01 00 	lea    0x1573f(%rip),%rax        # 1e292 <g_395+0x32>
    8b53:	48 89 85 a8 f2 ff ff 	mov    %rax,-0xd58(%rbp)
    8b5a:	48 8d 05 31 57 01 00 	lea    0x15731(%rip),%rax        # 1e292 <g_395+0x32>
    8b61:	48 89 85 b0 f2 ff ff 	mov    %rax,-0xd50(%rbp)
    8b68:	48 c7 85 b8 f2 ff ff 	movq   $0x0,-0xd48(%rbp)
    8b6f:	00 00 00 00 
    8b73:	48 8d 05 18 57 01 00 	lea    0x15718(%rip),%rax        # 1e292 <g_395+0x32>
    8b7a:	48 89 85 c0 f2 ff ff 	mov    %rax,-0xd40(%rbp)
    8b81:	48 8d 05 0a 57 01 00 	lea    0x1570a(%rip),%rax        # 1e292 <g_395+0x32>
    8b88:	48 89 85 c8 f2 ff ff 	mov    %rax,-0xd38(%rbp)
    8b8f:	48 c7 85 d0 f2 ff ff 	movq   $0x0,-0xd30(%rbp)
    8b96:	00 00 00 00 
    8b9a:	48 8d 05 f1 56 01 00 	lea    0x156f1(%rip),%rax        # 1e292 <g_395+0x32>
    8ba1:	48 89 85 d8 f2 ff ff 	mov    %rax,-0xd28(%rbp)
    8ba8:	48 8d 05 e3 56 01 00 	lea    0x156e3(%rip),%rax        # 1e292 <g_395+0x32>
    8baf:	48 89 85 e0 f2 ff ff 	mov    %rax,-0xd20(%rbp)
    8bb6:	48 c7 85 e8 f2 ff ff 	movq   $0x0,-0xd18(%rbp)
    8bbd:	00 00 00 00 
    8bc1:	c7 85 f0 f1 ff ff 0f 	movl   $0x45b9c40f,-0xe10(%rbp)
    8bc8:	c4 b9 45 
    8bcb:	c7 85 f4 f1 ff ff 0f 	movl   $0x45b9c40f,-0xe0c(%rbp)
    8bd2:	c4 b9 45 
    8bd5:	c7 85 f8 f1 ff ff 0f 	movl   $0x45b9c40f,-0xe08(%rbp)
    8bdc:	c4 b9 45 
    8bdf:	c7 85 fc f1 ff ff 0f 	movl   $0x45b9c40f,-0xe04(%rbp)
    8be6:	c4 b9 45 
    8be9:	c7 85 00 f2 ff ff 0f 	movl   $0x45b9c40f,-0xe00(%rbp)
    8bf0:	c4 b9 45 
    8bf3:	c7 85 04 f2 ff ff 0f 	movl   $0x45b9c40f,-0xdfc(%rbp)
    8bfa:	c4 b9 45 
    8bfd:	c7 85 08 f2 ff ff 0f 	movl   $0x45b9c40f,-0xdf8(%rbp)
    8c04:	c4 b9 45 
    8c07:	c7 85 0c f2 ff ff 0f 	movl   $0x45b9c40f,-0xdf4(%rbp)
    8c0e:	c4 b9 45 
    8c11:	c7 85 10 f2 ff ff 0f 	movl   $0x45b9c40f,-0xdf0(%rbp)
    8c18:	c4 b9 45 
    8c1b:	c7 85 a8 ef ff ff 26 	movl   $0x8f8d4726,-0x1058(%rbp)
    8c22:	47 8d 8f 
    8c25:	48 c7 85 b8 ef ff ff 	movq   $0xfffffffffffffffd,-0x1048(%rbp)
    8c2c:	fd ff ff ff 
    8c30:	48 b8 91 56 f6 f4 de 	movabs $0xae370edef4f65691,%rax
    8c37:	0e 37 ae 
    8c3a:	48 89 85 d8 ef ff ff 	mov    %rax,-0x1028(%rbp)
    8c41:	48 c7 85 e0 ef ff ff 	movq   $0x0,-0x1020(%rbp)
    8c48:	00 00 00 00 
    8c4c:	48 8d 05 c5 56 01 00 	lea    0x156c5(%rip),%rax        # 1e318 <g_1032>
    8c53:	48 89 85 18 f0 ff ff 	mov    %rax,-0xfe8(%rbp)
    8c5a:	48 c7 85 20 f0 ff ff 	movq   $0x0,-0xfe0(%rbp)
    8c61:	00 00 00 00 
    8c65:	c6 85 94 ee ff ff 01 	movb   $0x1,-0x116c(%rbp)
    8c6c:	48 8d 05 65 80 01 00 	lea    0x18065(%rip),%rax        # 20cd8 <g_1643>
    8c73:	48 89 85 28 f0 ff ff 	mov    %rax,-0xfd8(%rbp)
    8c7a:	48 8d 85 90 f1 ff ff 	lea    -0xe70(%rbp),%rax
    8c81:	48 83 c0 08          	add    $0x8,%rax
    8c85:	48 89 85 30 f0 ff ff 	mov    %rax,-0xfd0(%rbp)
    8c8c:	c7 85 d4 ee ff ff 00 	movl   $0x0,-0x112c(%rbp)
    8c93:	00 00 00 
    8c96:	eb 1e                	jmp    8cb6 <func_12+0xd93>
    8c98:	8b 85 d4 ee ff ff    	mov    -0x112c(%rbp),%eax
    8c9e:	48 98                	cltq   
    8ca0:	48 8d 15 b1 69 01 00 	lea    0x169b1(%rip),%rdx        # 1f658 <g_38+0x8>
    8ca7:	48 89 94 c5 90 f1 ff 	mov    %rdx,-0xe70(%rbp,%rax,8)
    8cae:	ff 
    8caf:	83 85 d4 ee ff ff 01 	addl   $0x1,-0x112c(%rbp)
    8cb6:	83 bd d4 ee ff ff 02 	cmpl   $0x2,-0x112c(%rbp)
    8cbd:	7e d9                	jle    8c98 <func_12+0xd75>
    8cbf:	80 bd 74 ee ff ff 00 	cmpb   $0x0,-0x118c(%rbp)
    8cc6:	0f 85 51 02 00 00    	jne    8f1d <func_12+0xffa>
    8ccc:	8b 85 f8 ee ff ff    	mov    -0x1108(%rbp),%eax
    8cd2:	48 63 d8             	movslq %eax,%rbx
    8cd5:	44 8b a5 68 ee ff ff 	mov    -0x1198(%rbp),%r12d
    8cdc:	44 0f b6 ad 93 ee ff 	movzbl -0x116d(%rbp),%r13d
    8ce3:	ff 
    8ce4:	0f b6 85 93 ee ff ff 	movzbl -0x116d(%rbp),%eax
    8ceb:	21 85 c4 ee ff ff    	and    %eax,-0x113c(%rbp)
    8cf1:	0f b6 85 8d ee ff ff 	movzbl -0x1173(%rbp),%eax
    8cf8:	44 0f b6 f0          	movzbl %al,%r14d
    8cfc:	48 8b 05 ed 6a 01 00 	mov    0x16aed(%rip),%rax        # 1f7f0 <g_641>
    8d03:	0f b7 00             	movzwl (%rax),%eax
    8d06:	44 0f b7 f8          	movzwl %ax,%r15d
    8d0a:	0f b6 85 90 ee ff ff 	movzbl -0x1170(%rbp),%eax
    8d11:	0f b6 c0             	movzbl %al,%eax
    8d14:	89 85 64 ee ff ff    	mov    %eax,-0x119c(%rbp)
    8d1a:	8b 8d 70 ee ff ff    	mov    -0x1190(%rbp),%ecx
    8d20:	89 8d 60 ee ff ff    	mov    %ecx,-0x11a0(%rbp)
    8d26:	8b 85 68 ee ff ff    	mov    -0x1198(%rbp),%eax
    8d2c:	89 c0                	mov    %eax,%eax
    8d2e:	48 be 5d 82 5a 8b d2 	movabs $0x6e342ad28b5a825d,%rsi
    8d35:	2a 34 6e 
    8d38:	48 89 c7             	mov    %rax,%rdi
    8d3b:	e8 74 dc ff ff       	callq  69b4 <safe_mod_func_int64_t_s_s>
    8d40:	0f b7 c0             	movzwl %ax,%eax
    8d43:	8b b5 60 ee ff ff    	mov    -0x11a0(%rbp),%esi
    8d49:	89 c7                	mov    %eax,%edi
    8d4b:	e8 b6 e0 ff ff       	callq  6e06 <safe_lshift_func_uint16_t_u_u>
    8d50:	0f b7 c0             	movzwl %ax,%eax
    8d53:	be 2b 8d 7c dc       	mov    $0xdc7c8d2b,%esi
    8d58:	89 c7                	mov    %eax,%edi
    8d5a:	e8 57 d8 ff ff       	callq  65b6 <safe_add_func_int32_t_s_s>
    8d5f:	8b 95 18 f6 ff ff    	mov    -0x9e8(%rbp),%edx
    8d65:	31 d0                	xor    %edx,%eax
    8d67:	89 85 18 f6 ff ff    	mov    %eax,-0x9e8(%rbp)
    8d6d:	8b 85 18 f6 ff ff    	mov    -0x9e8(%rbp),%eax
    8d73:	89 c7                	mov    %eax,%edi
    8d75:	e8 2c e1 ff ff       	callq  6ea6 <safe_unary_minus_func_uint32_t_u>
    8d7a:	85 c0                	test   %eax,%eax
    8d7c:	0f 94 c0             	sete   %al
    8d7f:	0f b6 c0             	movzbl %al,%eax
    8d82:	8b b5 64 ee ff ff    	mov    -0x119c(%rbp),%esi
    8d88:	89 c7                	mov    %eax,%edi
    8d8a:	e8 1f de ff ff       	callq  6bae <safe_mod_func_uint8_t_u_u>
    8d8f:	0f b6 c0             	movzbl %al,%eax
    8d92:	be 03 00 00 00       	mov    $0x3,%esi
    8d97:	89 c7                	mov    %eax,%edi
    8d99:	e8 3d de ff ff       	callq  6bdb <safe_div_func_uint8_t_u_u>
    8d9e:	44 89 fe             	mov    %r15d,%esi
    8da1:	bf 00 00 00 00       	mov    $0x0,%edi
    8da6:	e8 92 df ff ff       	callq  6d3d <safe_mul_func_uint16_t_u_u>
    8dab:	0f b6 15 9a 52 01 00 	movzbl 0x1529a(%rip),%edx        # 1e04c <g_90>
    8db2:	0f b6 d2             	movzbl %dl,%edx
    8db5:	66 39 d0             	cmp    %dx,%ax
    8db8:	0f 93 c0             	setae  %al
    8dbb:	0f b6 c0             	movzbl %al,%eax
    8dbe:	44 89 f6             	mov    %r14d,%esi
    8dc1:	89 c7                	mov    %eax,%edi
    8dc3:	e8 5d e1 ff ff       	callq  6f25 <safe_div_func_uint32_t_u_u>
    8dc8:	0f be c0             	movsbl %al,%eax
    8dcb:	be 01 00 00 00       	mov    $0x1,%esi
    8dd0:	89 c7                	mov    %eax,%edi
    8dd2:	e8 95 d5 ff ff       	callq  636c <safe_rshift_func_int8_t_s_u>
    8dd7:	8b 05 6f 54 01 00    	mov    0x1546f(%rip),%eax        # 1e24c <g_322>
    8ddd:	8b 95 68 ee ff ff    	mov    -0x1198(%rbp),%edx
    8de3:	0f b7 05 66 54 01 00 	movzwl 0x15466(%rip),%eax        # 1e250 <g_376>
    8dea:	98                   	cwtl   
    8deb:	39 c2                	cmp    %eax,%edx
    8ded:	0f 95 c0             	setne  %al
    8df0:	0f b6 c0             	movzbl %al,%eax
    8df3:	89 85 d0 ee ff ff    	mov    %eax,-0x1130(%rbp)
    8df9:	8b 85 d0 ee ff ff    	mov    -0x1130(%rbp),%eax
    8dff:	48 98                	cltq   
    8e01:	48 89 05 b0 54 01 00 	mov    %rax,0x154b0(%rip)        # 1e2b8 <g_583>
    8e08:	48 8b 05 a9 54 01 00 	mov    0x154a9(%rip),%rax        # 1e2b8 <g_583>
    8e0f:	4c 89 ee             	mov    %r13,%rsi
    8e12:	48 89 c7             	mov    %rax,%rdi
    8e15:	e8 8e da ff ff       	callq  68a8 <safe_sub_func_int64_t_s_s>
    8e1a:	48 83 f8 06          	cmp    $0x6,%rax
    8e1e:	0f 94 c0             	sete   %al
    8e21:	0f b6 c0             	movzbl %al,%eax
    8e24:	be 03 00 00 00       	mov    $0x3,%esi
    8e29:	89 c7                	mov    %eax,%edi
    8e2b:	e8 e2 d3 ff ff       	callq  6212 <safe_mul_func_int8_t_s_s>
    8e30:	0f be d0             	movsbl %al,%edx
    8e33:	0f b6 85 74 ee ff ff 	movzbl -0x118c(%rbp),%eax
    8e3a:	39 c2                	cmp    %eax,%edx
    8e3c:	0f 94 c0             	sete   %al
    8e3f:	0f b6 c0             	movzbl %al,%eax
    8e42:	44 89 e6             	mov    %r12d,%esi
    8e45:	89 c7                	mov    %eax,%edi
    8e47:	e8 00 de ff ff       	callq  6c4c <safe_lshift_func_uint8_t_u_u>
    8e4c:	0f b6 d0             	movzbl %al,%edx
    8e4f:	0f b6 05 d2 54 01 00 	movzbl 0x154d2(%rip),%eax        # 1e328 <g_1151>
    8e56:	0f be c0             	movsbl %al,%eax
    8e59:	39 c2                	cmp    %eax,%edx
    8e5b:	0f 95 c0             	setne  %al
    8e5e:	0f b6 d0             	movzbl %al,%edx
    8e61:	8b 85 68 ee ff ff    	mov    -0x1198(%rbp),%eax
    8e67:	39 c2                	cmp    %eax,%edx
    8e69:	0f 96 c0             	setbe  %al
    8e6c:	0f b6 c0             	movzbl %al,%eax
    8e6f:	89 c6                	mov    %eax,%esi
    8e71:	bf 67 2b 00 00       	mov    $0x2b67,%edi
    8e76:	e8 58 d5 ff ff       	callq  63d3 <safe_sub_func_int16_t_s_s>
    8e7b:	44 0f bf e0          	movswl %ax,%r12d
    8e7f:	48 8b 05 aa 78 01 00 	mov    0x178aa(%rip),%rax        # 20730 <g_2331>
    8e86:	0f b6 00             	movzbl (%rax),%eax
    8e89:	0f b6 d0             	movzbl %al,%edx
    8e8c:	0f b6 85 93 ee ff ff 	movzbl -0x116d(%rbp),%eax
    8e93:	89 d6                	mov    %edx,%esi
    8e95:	89 c7                	mov    %eax,%edi
    8e97:	e8 3f dd ff ff       	callq  6bdb <safe_div_func_uint8_t_u_u>
    8e9c:	0f b6 c0             	movzbl %al,%eax
    8e9f:	44 89 e6             	mov    %r12d,%esi
    8ea2:	89 c7                	mov    %eax,%edi
    8ea4:	e8 e9 d5 ff ff       	callq  6492 <safe_lshift_func_int16_t_s_s>
    8ea9:	48 0f bf c0          	movswq %ax,%rax
    8ead:	48 89 de             	mov    %rbx,%rsi
    8eb0:	48 89 c7             	mov    %rax,%rdi
    8eb3:	e8 fc da ff ff       	callq  69b4 <safe_mod_func_int64_t_s_s>
    8eb8:	89 85 fc ee ff ff    	mov    %eax,-0x1104(%rbp)
    8ebe:	8b 95 fc ee ff ff    	mov    -0x1104(%rbp),%edx
    8ec4:	8b 85 fc f1 ff ff    	mov    -0xe04(%rbp),%eax
    8eca:	21 d0                	and    %edx,%eax
    8ecc:	89 85 fc f1 ff ff    	mov    %eax,-0xe04(%rbp)
    8ed2:	8b 85 fc f1 ff ff    	mov    -0xe04(%rbp),%eax
    8ed8:	89 85 a8 ef ff ff    	mov    %eax,-0x1058(%rbp)
    8ede:	8b 85 a8 ef ff ff    	mov    -0x1058(%rbp),%eax
    8ee4:	3d fe ff 00 00       	cmp    $0xfffe,%eax
    8ee9:	77 11                	ja     8efc <func_12+0xfd9>
    8eeb:	83 bd fc ee ff ff 00 	cmpl   $0x0,-0x1104(%rbp)
    8ef2:	74 08                	je     8efc <func_12+0xfd9>
    8ef4:	8b 85 9c ee ff ff    	mov    -0x1164(%rbp),%eax
    8efa:	85 c0                	test   %eax,%eax
    8efc:	b8 01 00 00 00       	mov    $0x1,%eax
    8f01:	66 0d e4 78          	or     $0x78e4,%ax
    8f05:	0f b7 c0             	movzwl %ax,%eax
    8f08:	be 51 8d 00 00       	mov    $0x8d51,%esi
    8f0d:	89 c7                	mov    %eax,%edi
    8f0f:	e8 0b de ff ff       	callq  6d1f <safe_sub_func_uint16_t_u_u>
    8f14:	66 85 c0             	test   %ax,%ax
    8f17:	0f 84 98 0c 00 00    	je     9bb5 <func_12+0x1c92>
    8f1d:	c6 85 95 ee ff ff fc 	movb   $0xfc,-0x116b(%rbp)
    8f24:	c7 85 10 ef ff ff b0 	movl   $0x5b5ebab0,-0x10f0(%rbp)
    8f2b:	ba 5e 5b 
    8f2e:	48 8d 05 e3 7c 01 00 	lea    0x17ce3(%rip),%rax        # 20c18 <g_291>
    8f35:	48 89 85 48 f0 ff ff 	mov    %rax,-0xfb8(%rbp)
    8f3c:	48 8d 85 f0 f1 ff ff 	lea    -0xe10(%rbp),%rax
    8f43:	48 83 c0 0c          	add    $0xc,%rax
    8f47:	48 89 85 d0 f7 ff ff 	mov    %rax,-0x830(%rbp)
    8f4e:	48 8d 05 f3 50 01 00 	lea    0x150f3(%rip),%rax        # 1e048 <g_71+0x18>
    8f55:	48 89 85 d8 f7 ff ff 	mov    %rax,-0x828(%rbp)
    8f5c:	48 8d 05 e5 50 01 00 	lea    0x150e5(%rip),%rax        # 1e048 <g_71+0x18>
    8f63:	48 89 85 e0 f7 ff ff 	mov    %rax,-0x820(%rbp)
    8f6a:	48 8d 85 f0 f1 ff ff 	lea    -0xe10(%rbp),%rax
    8f71:	48 83 c0 0c          	add    $0xc,%rax
    8f75:	48 89 85 e8 f7 ff ff 	mov    %rax,-0x818(%rbp)
    8f7c:	48 8d 05 b1 50 01 00 	lea    0x150b1(%rip),%rax        # 1e034 <g_71+0x4>
    8f83:	48 89 85 f0 f7 ff ff 	mov    %rax,-0x810(%rbp)
    8f8a:	48 8d 85 a8 ef ff ff 	lea    -0x1058(%rbp),%rax
    8f91:	48 89 85 f8 f7 ff ff 	mov    %rax,-0x808(%rbp)
    8f98:	48 8d 85 f0 f1 ff ff 	lea    -0xe10(%rbp),%rax
    8f9f:	48 83 c0 0c          	add    $0xc,%rax
    8fa3:	48 89 85 00 f8 ff ff 	mov    %rax,-0x800(%rbp)
    8faa:	48 8d 85 f0 f1 ff ff 	lea    -0xe10(%rbp),%rax
    8fb1:	48 83 c0 0c          	add    $0xc,%rax
    8fb5:	48 89 85 08 f8 ff ff 	mov    %rax,-0x7f8(%rbp)
    8fbc:	48 8d 85 a8 ef ff ff 	lea    -0x1058(%rbp),%rax
    8fc3:	48 89 85 10 f8 ff ff 	mov    %rax,-0x7f0(%rbp)
    8fca:	48 8d 85 30 f5 ff ff 	lea    -0xad0(%rbp),%rax
    8fd1:	48 05 00 01 00 00    	add    $0x100,%rax
    8fd7:	48 89 85 18 f8 ff ff 	mov    %rax,-0x7e8(%rbp)
    8fde:	48 8d 85 f0 f1 ff ff 	lea    -0xe10(%rbp),%rax
    8fe5:	48 83 c0 0c          	add    $0xc,%rax
    8fe9:	48 89 85 20 f8 ff ff 	mov    %rax,-0x7e0(%rbp)
    8ff0:	48 8d 05 51 50 01 00 	lea    0x15051(%rip),%rax        # 1e048 <g_71+0x18>
    8ff7:	48 89 85 28 f8 ff ff 	mov    %rax,-0x7d8(%rbp)
    8ffe:	48 8d 05 43 50 01 00 	lea    0x15043(%rip),%rax        # 1e048 <g_71+0x18>
    9005:	48 89 85 30 f8 ff ff 	mov    %rax,-0x7d0(%rbp)
    900c:	48 8d 85 f0 f1 ff ff 	lea    -0xe10(%rbp),%rax
    9013:	48 83 c0 0c          	add    $0xc,%rax
    9017:	48 89 85 38 f8 ff ff 	mov    %rax,-0x7c8(%rbp)
    901e:	48 8d 05 0f 50 01 00 	lea    0x1500f(%rip),%rax        # 1e034 <g_71+0x4>
    9025:	48 89 85 40 f8 ff ff 	mov    %rax,-0x7c0(%rbp)
    902c:	48 8d 85 a8 ef ff ff 	lea    -0x1058(%rbp),%rax
    9033:	48 89 85 48 f8 ff ff 	mov    %rax,-0x7b8(%rbp)
    903a:	48 8d 85 f0 f1 ff ff 	lea    -0xe10(%rbp),%rax
    9041:	48 83 c0 0c          	add    $0xc,%rax
    9045:	48 89 85 50 f8 ff ff 	mov    %rax,-0x7b0(%rbp)
    904c:	48 8d 85 f0 f1 ff ff 	lea    -0xe10(%rbp),%rax
    9053:	48 83 c0 0c          	add    $0xc,%rax
    9057:	48 89 85 58 f8 ff ff 	mov    %rax,-0x7a8(%rbp)
    905e:	48 8d 85 a8 ef ff ff 	lea    -0x1058(%rbp),%rax
    9065:	48 89 85 60 f8 ff ff 	mov    %rax,-0x7a0(%rbp)
    906c:	48 8d 85 30 f5 ff ff 	lea    -0xad0(%rbp),%rax
    9073:	48 05 00 01 00 00    	add    $0x100,%rax
    9079:	48 89 85 68 f8 ff ff 	mov    %rax,-0x798(%rbp)
    9080:	48 8d 85 f0 f1 ff ff 	lea    -0xe10(%rbp),%rax
    9087:	48 83 c0 0c          	add    $0xc,%rax
    908b:	48 89 85 70 f8 ff ff 	mov    %rax,-0x790(%rbp)
    9092:	48 8d 05 af 4f 01 00 	lea    0x14faf(%rip),%rax        # 1e048 <g_71+0x18>
    9099:	48 89 85 78 f8 ff ff 	mov    %rax,-0x788(%rbp)
    90a0:	48 8d 05 a1 4f 01 00 	lea    0x14fa1(%rip),%rax        # 1e048 <g_71+0x18>
    90a7:	48 89 85 80 f8 ff ff 	mov    %rax,-0x780(%rbp)
    90ae:	48 8d 85 f0 f1 ff ff 	lea    -0xe10(%rbp),%rax
    90b5:	48 83 c0 0c          	add    $0xc,%rax
    90b9:	48 89 85 88 f8 ff ff 	mov    %rax,-0x778(%rbp)
    90c0:	48 8d 05 6d 4f 01 00 	lea    0x14f6d(%rip),%rax        # 1e034 <g_71+0x4>
    90c7:	48 89 85 90 f8 ff ff 	mov    %rax,-0x770(%rbp)
    90ce:	48 8d 85 a8 ef ff ff 	lea    -0x1058(%rbp),%rax
    90d5:	48 89 85 98 f8 ff ff 	mov    %rax,-0x768(%rbp)
    90dc:	48 8d 85 f0 f1 ff ff 	lea    -0xe10(%rbp),%rax
    90e3:	48 83 c0 0c          	add    $0xc,%rax
    90e7:	48 89 85 a0 f8 ff ff 	mov    %rax,-0x760(%rbp)
    90ee:	48 8d 85 f0 f1 ff ff 	lea    -0xe10(%rbp),%rax
    90f5:	48 83 c0 0c          	add    $0xc,%rax
    90f9:	48 89 85 a8 f8 ff ff 	mov    %rax,-0x758(%rbp)
    9100:	48 8d 85 a8 ef ff ff 	lea    -0x1058(%rbp),%rax
    9107:	48 89 85 b0 f8 ff ff 	mov    %rax,-0x750(%rbp)
    910e:	48 8d 85 30 f5 ff ff 	lea    -0xad0(%rbp),%rax
    9115:	48 05 00 01 00 00    	add    $0x100,%rax
    911b:	48 89 85 b8 f8 ff ff 	mov    %rax,-0x748(%rbp)
    9122:	c7 85 d8 ee ff ff 8d 	movl   $0x425c948d,-0x1128(%rbp)
    9129:	94 5c 42 
    912c:	48 8d 85 78 ef ff ff 	lea    -0x1088(%rbp),%rax
    9133:	48 89 85 50 f0 ff ff 	mov    %rax,-0xfb0(%rbp)
    913a:	48 8b 05 ef 75 01 00 	mov    0x175ef(%rip),%rax        # 20730 <g_2331>
    9141:	8b 95 f8 ee ff ff    	mov    -0x1108(%rbp),%edx
    9147:	88 10                	mov    %dl,(%rax)
    9149:	0f b7 05 b8 50 01 00 	movzwl 0x150b8(%rip),%eax        # 1e208 <g_196+0x8>
    9150:	0f b6 d8             	movzbl %al,%ebx
    9153:	48 be 1e 19 12 2c 50 	movabs $0xc477da502c12191e,%rsi
    915a:	da 77 c4 
    915d:	bf 01 00 00 00       	mov    $0x1,%edi
    9162:	e8 41 d7 ff ff       	callq  68a8 <safe_sub_func_int64_t_s_s>
    9167:	44 8b a5 68 ee ff ff 	mov    -0x1198(%rbp),%r12d
    916e:	8b 85 c4 ee ff ff    	mov    -0x113c(%rbp),%eax
    9174:	88 85 95 ee ff ff    	mov    %al,-0x116b(%rbp)
    917a:	8b 95 68 ee ff ff    	mov    -0x1198(%rbp),%edx
    9180:	48 8b 05 69 66 01 00 	mov    0x16669(%rip),%rax        # 1f7f0 <g_641>
    9187:	0f b7 00             	movzwl (%rax),%eax
    918a:	66 3d 55 2c          	cmp    $0x2c55,%ax
    918e:	0f 97 c0             	seta   %al
    9191:	0f b6 c0             	movzbl %al,%eax
    9194:	39 c2                	cmp    %eax,%edx
    9196:	0f 95 c0             	setne  %al
    9199:	0f b6 c0             	movzbl %al,%eax
    919c:	be 01 00 00 00       	mov    $0x1,%esi
    91a1:	48 89 c7             	mov    %rax,%rdi
    91a4:	e8 98 d6 ff ff       	callq  6841 <safe_add_func_int64_t_s_s>
    91a9:	0f b6 c0             	movzbl %al,%eax
    91ac:	44 89 e6             	mov    %r12d,%esi
    91af:	89 c7                	mov    %eax,%edi
    91b1:	e8 96 da ff ff       	callq  6c4c <safe_lshift_func_uint8_t_u_u>
    91b6:	0f b6 c0             	movzbl %al,%eax
    91b9:	0b 85 10 ef ff ff    	or     -0x10f0(%rbp),%eax
    91bf:	89 c2                	mov    %eax,%edx
    91c1:	8b 85 bc f5 ff ff    	mov    -0xa44(%rbp),%eax
    91c7:	39 c2                	cmp    %eax,%edx
    91c9:	48 83 bd f8 ef ff ff 	cmpq   $0x0,-0x1008(%rbp)
    91d0:	00 
    91d1:	0f 95 c0             	setne  %al
    91d4:	0f b6 d0             	movzbl %al,%edx
    91d7:	48 8b 85 78 ee ff ff 	mov    -0x1188(%rbp),%rax
    91de:	8b 00                	mov    (%rax),%eax
    91e0:	39 c2                	cmp    %eax,%edx
    91e2:	0f 9c c0             	setl   %al
    91e5:	0f b6 d0             	movzbl %al,%edx
    91e8:	0f b6 85 74 ee ff ff 	movzbl -0x118c(%rbp),%eax
    91ef:	39 c2                	cmp    %eax,%edx
    91f1:	0f 95 c0             	setne  %al
    91f4:	0f b6 c0             	movzbl %al,%eax
    91f7:	be 6b 00 00 00       	mov    $0x6b,%esi
    91fc:	89 c7                	mov    %eax,%edi
    91fe:	e8 2e d0 ff ff       	callq  6231 <safe_mod_func_int8_t_s_s>
    9203:	8b 85 68 ee ff ff    	mov    -0x1198(%rbp),%eax
    9209:	0f b6 c0             	movzbl %al,%eax
    920c:	89 de                	mov    %ebx,%esi
    920e:	89 c7                	mov    %eax,%edi
    9210:	e8 c6 d9 ff ff       	callq  6bdb <safe_div_func_uint8_t_u_u>
    9215:	84 c0                	test   %al,%al
    9217:	48 8b 85 b8 ef ff ff 	mov    -0x1048(%rbp),%rax
    921e:	98                   	cwtl   
    921f:	be 89 15 00 00       	mov    $0x1589,%esi
    9224:	89 c7                	mov    %eax,%edi
    9226:	e8 eb d1 ff ff       	callq  6416 <safe_mod_func_int16_t_s_s>
    922b:	0f bf d0             	movswl %ax,%edx
    922e:	48 8b 85 78 ee ff ff 	mov    -0x1188(%rbp),%rax
    9235:	8b 00                	mov    (%rax),%eax
    9237:	39 c2                	cmp    %eax,%edx
    9239:	0f 9c c0             	setl   %al
    923c:	0f b6 d0             	movzbl %al,%edx
    923f:	48 8b 85 b8 ef ff ff 	mov    -0x1048(%rbp),%rax
    9246:	48 09 d0             	or     %rdx,%rax
    9249:	48 85 c0             	test   %rax,%rax
    924c:	74 54                	je     92a2 <func_12+0x137f>
    924e:	48 8d 05 3b 7a 01 00 	lea    0x17a3b(%rip),%rax        # 20c90 <g_1163+0x30>
    9255:	48 89 85 98 f0 ff ff 	mov    %rax,-0xf68(%rbp)
    925c:	8b 1d d6 50 01 00    	mov    0x150d6(%rip),%ebx        # 1e338 <g_1665>
    9262:	8b 05 d8 50 01 00    	mov    0x150d8(%rip),%eax        # 1e340 <g_2397>
    9268:	89 c2                	mov    %eax,%edx
    926a:	8b 85 70 ee ff ff    	mov    -0x1190(%rbp),%eax
    9270:	0f b6 c8             	movzbl %al,%ecx
    9273:	48 8b 85 18 f8 ff ff 	mov    -0x7e8(%rbp),%rax
    927a:	89 ce                	mov    %ecx,%esi
    927c:	48 89 c7             	mov    %rax,%rdi
    927f:	e8 00 54 00 00       	callq  e684 <func_40>
    9284:	89 da                	mov    %ebx,%edx
    9286:	be 63 00 00 00       	mov    $0x63,%esi
    928b:	48 89 c7             	mov    %rax,%rdi
    928e:	e8 f1 53 00 00       	callq  e684 <func_40>
    9293:	48 8b 95 98 f0 ff ff 	mov    -0xf68(%rbp),%rdx
    929a:	48 89 02             	mov    %rax,(%rdx)
    929d:	e9 7a 10 00 00       	jmpq   a31c <func_12+0x23f9>
    92a2:	48 8d 05 7f 50 01 00 	lea    0x1507f(%rip),%rax        # 1e328 <g_1151>
    92a9:	48 89 85 58 f0 ff ff 	mov    %rax,-0xfa8(%rbp)
    92b0:	48 c7 85 60 f0 ff ff 	movq   $0x0,-0xfa0(%rbp)
    92b7:	00 00 00 00 
    92bb:	48 c7 85 c0 ef ff ff 	movq   $0x0,-0x1040(%rbp)
    92c2:	00 00 00 00 
    92c6:	c6 85 c0 ef ff ff fa 	movb   $0xfa,-0x1040(%rbp)
    92cd:	c7 85 b0 ef ff ff a7 	movl   $0x545364a7,-0x1050(%rbp)
    92d4:	64 53 54 
    92d7:	66 c7 85 a0 ef ff ff 	movw   $0xba74,-0x1060(%rbp)
    92de:	74 ba 
    92e0:	48 8d 85 8d ee ff ff 	lea    -0x1173(%rbp),%rax
    92e7:	48 89 85 40 f4 ff ff 	mov    %rax,-0xbc0(%rbp)
    92ee:	48 8d 85 8d ee ff ff 	lea    -0x1173(%rbp),%rax
    92f5:	48 89 85 48 f4 ff ff 	mov    %rax,-0xbb8(%rbp)
    92fc:	48 8d 85 8d ee ff ff 	lea    -0x1173(%rbp),%rax
    9303:	48 89 85 50 f4 ff ff 	mov    %rax,-0xbb0(%rbp)
    930a:	48 8d 85 8d ee ff ff 	lea    -0x1173(%rbp),%rax
    9311:	48 89 85 58 f4 ff ff 	mov    %rax,-0xba8(%rbp)
    9318:	48 8d 85 8d ee ff ff 	lea    -0x1173(%rbp),%rax
    931f:	48 89 85 60 f4 ff ff 	mov    %rax,-0xba0(%rbp)
    9326:	48 8d 85 8d ee ff ff 	lea    -0x1173(%rbp),%rax
    932d:	48 89 85 68 f4 ff ff 	mov    %rax,-0xb98(%rbp)
    9334:	48 8d 85 8d ee ff ff 	lea    -0x1173(%rbp),%rax
    933b:	48 89 85 70 f4 ff ff 	mov    %rax,-0xb90(%rbp)
    9342:	48 8d 85 8d ee ff ff 	lea    -0x1173(%rbp),%rax
    9349:	48 89 85 78 f4 ff ff 	mov    %rax,-0xb88(%rbp)
    9350:	48 8d 85 8d ee ff ff 	lea    -0x1173(%rbp),%rax
    9357:	48 89 85 80 f4 ff ff 	mov    %rax,-0xb80(%rbp)
    935e:	48 8d 85 8d ee ff ff 	lea    -0x1173(%rbp),%rax
    9365:	48 89 85 88 f4 ff ff 	mov    %rax,-0xb78(%rbp)
    936c:	48 8d 85 8d ee ff ff 	lea    -0x1173(%rbp),%rax
    9373:	48 89 85 90 f4 ff ff 	mov    %rax,-0xb70(%rbp)
    937a:	48 8d 85 8d ee ff ff 	lea    -0x1173(%rbp),%rax
    9381:	48 89 85 98 f4 ff ff 	mov    %rax,-0xb68(%rbp)
    9388:	48 8d 85 50 f6 ff ff 	lea    -0x9b0(%rbp),%rax
    938f:	48 05 88 00 00 00    	add    $0x88,%rax
    9395:	48 89 85 68 f0 ff ff 	mov    %rax,-0xf98(%rbp)
    939c:	48 8d 05 95 4e 01 00 	lea    0x14e95(%rip),%rax        # 1e238 <g_198+0x18>
    93a3:	48 89 85 70 f0 ff ff 	mov    %rax,-0xf90(%rbp)
    93aa:	48 8d 85 b8 ef ff ff 	lea    -0x1048(%rbp),%rax
    93b1:	48 89 85 78 f0 ff ff 	mov    %rax,-0xf88(%rbp)
    93b8:	c7 85 dc ee ff ff 00 	movl   $0x0,-0x1124(%rbp)
    93bf:	00 00 00 
    93c2:	eb 1a                	jmp    93de <func_12+0x14bb>
    93c4:	8b 85 dc ee ff ff    	mov    -0x1124(%rbp),%eax
    93ca:	48 98                	cltq   
    93cc:	c7 84 85 b0 f1 ff ff 	movl   $0x1,-0xe50(%rbp,%rax,4)
    93d3:	01 00 00 00 
    93d7:	83 85 dc ee ff ff 01 	addl   $0x1,-0x1124(%rbp)
    93de:	83 bd dc ee ff ff 06 	cmpl   $0x6,-0x1124(%rbp)
    93e5:	7e dd                	jle    93c4 <func_12+0x14a1>
    93e7:	c7 85 a8 ef ff ff 03 	movl   $0x3,-0x1058(%rbp)
    93ee:	00 00 00 
    93f1:	e9 90 03 00 00       	jmpq   9786 <func_12+0x1863>
    93f6:	c7 85 1c ef ff ff d7 	movl   $0x281520d7,-0x10e4(%rbp)
    93fd:	20 15 28 
    9400:	c7 85 e0 ee ff ff 06 	movl   $0x6,-0x1120(%rbp)
    9407:	00 00 00 
    940a:	c7 85 20 ef ff ff 3b 	movl   $0xb066a3b,-0x10e0(%rbp)
    9411:	6a 06 0b 
    9414:	48 c7 85 c8 ef ff ff 	movq   $0x0,-0x1038(%rbp)
    941b:	00 00 00 00 
    941f:	c7 85 c8 ef ff ff 4e 	movl   $0xae5c8d4e,-0x1038(%rbp)
    9426:	8d 5c ae 
    9429:	c7 85 e4 ee ff ff 00 	movl   $0x0,-0x111c(%rbp)
    9430:	00 00 00 
    9433:	eb 1a                	jmp    944f <func_12+0x152c>
    9435:	8b 85 e4 ee ff ff    	mov    -0x111c(%rbp),%eax
    943b:	48 98                	cltq   
    943d:	c7 84 85 60 f1 ff ff 	movl   $0x3e7bea65,-0xea0(%rbp,%rax,4)
    9444:	65 ea 7b 3e 
    9448:	83 85 e4 ee ff ff 01 	addl   $0x1,-0x111c(%rbp)
    944f:	83 bd e4 ee ff ff 00 	cmpl   $0x0,-0x111c(%rbp)
    9456:	7e dd                	jle    9435 <func_12+0x1512>
    9458:	48 8b 85 e0 ef ff ff 	mov    -0x1020(%rbp),%rax
    945f:	48 3b 85 18 f0 ff ff 	cmp    -0xfe8(%rbp),%rax
    9466:	0f 95 c0             	setne  %al
    9469:	0f b6 d0             	movzbl %al,%edx
    946c:	8b 85 68 ee ff ff    	mov    -0x1198(%rbp),%eax
    9472:	39 c2                	cmp    %eax,%edx
    9474:	0f 97 c0             	seta   %al
    9477:	0f b6 c0             	movzbl %al,%eax
    947a:	48 8b 1d a7 63 01 00 	mov    0x163a7(%rip),%rbx        # 1f828 <g_840>
    9481:	be 26 42 d6 32       	mov    $0x32d64226,%esi
    9486:	89 c7                	mov    %eax,%edi
    9488:	e8 78 d1 ff ff       	callq  6605 <safe_sub_func_int32_t_s_s>
    948d:	89 03                	mov    %eax,(%rbx)
    948f:	8b 03                	mov    (%rbx),%eax
    9491:	89 85 fc ee ff ff    	mov    %eax,-0x1104(%rbp)
    9497:	83 ad 20 ef ff ff 01 	subl   $0x1,-0x10e0(%rbp)
    949e:	0f b6 85 74 ee ff ff 	movzbl -0x118c(%rbp),%eax
    94a5:	21 85 e0 ee ff ff    	and    %eax,-0x1120(%rbp)
    94ab:	8b 85 e0 ee ff ff    	mov    -0x1120(%rbp),%eax
    94b1:	98                   	cwtl   
    94b2:	be 07 00 00 00       	mov    $0x7,%esi
    94b7:	89 c7                	mov    %eax,%edi
    94b9:	e8 23 d0 ff ff       	callq  64e1 <safe_lshift_func_int16_t_s_u>
    94be:	66 85 c0             	test   %ax,%ax
    94c1:	0f 84 86 00 00 00    	je     954d <func_12+0x162a>
    94c7:	8b 9d 68 ee ff ff    	mov    -0x1198(%rbp),%ebx
    94cd:	48 8b 85 78 ee ff ff 	mov    -0x1188(%rbp),%rax
    94d4:	8b 10                	mov    (%rax),%edx
    94d6:	48 8b 85 f0 ef ff ff 	mov    -0x1010(%rbp),%rax
    94dd:	48 8b 00             	mov    (%rax),%rax
    94e0:	48 8b 8d 20 f0 ff ff 	mov    -0xfe0(%rbp),%rcx
    94e7:	48 89 08             	mov    %rcx,(%rax)
    94ea:	48 8b 00             	mov    (%rax),%rax
    94ed:	48 39 85 20 f0 ff ff 	cmp    %rax,-0xfe0(%rbp)
    94f4:	0f 95 c0             	setne  %al
    94f7:	0f b6 c0             	movzbl %al,%eax
    94fa:	89 d6                	mov    %edx,%esi
    94fc:	89 c7                	mov    %eax,%edi
    94fe:	e8 b3 d0 ff ff       	callq  65b6 <safe_add_func_int32_t_s_s>
    9503:	48 8b 15 5e 61 01 00 	mov    0x1615e(%rip),%rdx        # 1f668 <g_192>
    950a:	48 8b 12             	mov    (%rdx),%rdx
    950d:	0f b6 12             	movzbl (%rdx),%edx
    9510:	0f b6 ca             	movzbl %dl,%ecx
    9513:	48 8b 15 16 72 01 00 	mov    0x17216(%rip),%rdx        # 20730 <g_2331>
    951a:	0f b6 12             	movzbl (%rdx),%edx
    951d:	0f be d2             	movsbl %dl,%edx
    9520:	31 ca                	xor    %ecx,%edx
    9522:	39 95 70 ee ff ff    	cmp    %edx,-0x1190(%rbp)
    9528:	0f 9f c2             	setg   %dl
    952b:	0f b6 d2             	movzbl %dl,%edx
    952e:	39 d0                	cmp    %edx,%eax
    9530:	7d 12                	jge    9544 <func_12+0x1621>
    9532:	0f b6 05 f0 4d 01 00 	movzbl 0x14df0(%rip),%eax        # 1e329 <g_1228>
    9539:	84 c0                	test   %al,%al
    953b:	74 07                	je     9544 <func_12+0x1621>
    953d:	b8 01 00 00 00       	mov    $0x1,%eax
    9542:	eb 05                	jmp    9549 <func_12+0x1626>
    9544:	b8 00 00 00 00       	mov    $0x0,%eax
    9549:	39 c3                	cmp    %eax,%ebx
    954b:	77 09                	ja     9556 <func_12+0x1633>
    954d:	83 bd 70 ee ff ff 00 	cmpl   $0x0,-0x1190(%rbp)
    9554:	74 07                	je     955d <func_12+0x163a>
    9556:	b8 01 00 00 00       	mov    $0x1,%eax
    955b:	eb 05                	jmp    9562 <func_12+0x163f>
    955d:	b8 00 00 00 00       	mov    $0x0,%eax
    9562:	3d 02 f6 e2 6c       	cmp    $0x6ce2f602,%eax
    9567:	0f 9e c0             	setle  %al
    956a:	0f b6 c8             	movzbl %al,%ecx
    956d:	48 8b 05 b4 62 01 00 	mov    0x162b4(%rip),%rax        # 1f828 <g_840>
    9574:	8b 10                	mov    (%rax),%edx
    9576:	48 8b 05 ab 62 01 00 	mov    0x162ab(%rip),%rax        # 1f828 <g_840>
    957d:	31 ca                	xor    %ecx,%edx
    957f:	89 10                	mov    %edx,(%rax)
    9581:	c7 85 e0 ee ff ff 00 	movl   $0x0,-0x1120(%rbp)
    9588:	00 00 00 
    958b:	e9 b6 01 00 00       	jmpq   9746 <func_12+0x1823>
    9590:	c7 85 24 ef ff ff 00 	movl   $0x0,-0x10dc(%rbp)
    9597:	00 00 00 
    959a:	c7 85 28 ef ff ff ff 	movl   $0xffffffff,-0x10d8(%rbp)
    95a1:	ff ff ff 
    95a4:	c7 85 2c ef ff ff 09 	movl   $0x9,-0x10d4(%rbp)
    95ab:	00 00 00 
    95ae:	c7 85 30 ef ff ff fa 	movl   $0xfffffffa,-0x10d0(%rbp)
    95b5:	ff ff ff 
    95b8:	c7 85 34 ef ff ff 03 	movl   $0x3,-0x10cc(%rbp)
    95bf:	00 00 00 
    95c2:	c7 85 38 ef ff ff 02 	movl   $0x2,-0x10c8(%rbp)
    95c9:	00 00 00 
    95cc:	c7 85 3c ef ff ff 7b 	movl   $0xaeb5ba7b,-0x10c4(%rbp)
    95d3:	ba b5 ae 
    95d6:	48 8d 85 50 fb ff ff 	lea    -0x4b0(%rbp),%rax
    95dd:	48 8d 15 bc 0e 01 00 	lea    0x10ebc(%rip),%rdx        # 1a4a0 <g_2104+0x124>
    95e4:	b9 5a 00 00 00       	mov    $0x5a,%ecx
    95e9:	48 89 c7             	mov    %rax,%rdi
    95ec:	48 89 d6             	mov    %rdx,%rsi
    95ef:	f3 48 a5             	rep movsq %ds:(%rsi),%es:(%rdi)
    95f2:	48 8d 05 2d 4c 01 00 	lea    0x14c2d(%rip),%rax        # 1e226 <g_198+0x6>
    95f9:	48 89 85 90 f0 ff ff 	mov    %rax,-0xf70(%rbp)
    9600:	8b 85 a0 ee ff ff    	mov    -0x1160(%rbp),%eax
    9606:	83 c0 01             	add    $0x1,%eax
    9609:	89 85 a0 ee ff ff    	mov    %eax,-0x1160(%rbp)
    960f:	8b 85 a8 ef ff ff    	mov    -0x1058(%rbp),%eax
    9615:	83 c0 05             	add    $0x5,%eax
    9618:	48 98                	cltq   
    961a:	8b 84 85 f0 f1 ff ff 	mov    -0xe10(%rbp,%rax,4),%eax
    9621:	85 c0                	test   %eax,%eax
    9623:	0f 85 2c 01 00 00    	jne    9755 <func_12+0x1832>
    9629:	48 8b 15 00 71 01 00 	mov    0x17100(%rip),%rdx        # 20730 <g_2331>
    9630:	48 8b 05 f9 70 01 00 	mov    0x170f9(%rip),%rax        # 20730 <g_2331>
    9637:	0f b6 12             	movzbl (%rdx),%edx
    963a:	88 10                	mov    %dl,(%rax)
    963c:	0f b6 00             	movzbl (%rax),%eax
    963f:	0f be c0             	movsbl %al,%eax
    9642:	be 00 00 00 00       	mov    $0x0,%esi
    9647:	89 c7                	mov    %eax,%edi
    9649:	e8 c4 cb ff ff       	callq  6212 <safe_mul_func_int8_t_s_s>
    964e:	0f b6 9d 74 ee ff ff 	movzbl -0x118c(%rbp),%ebx
    9655:	44 0f b6 a5 74 ee ff 	movzbl -0x118c(%rbp),%r12d
    965c:	ff 
    965d:	48 8b 85 90 f0 ff ff 	mov    -0xf70(%rbp),%rax
    9664:	66 c7 00 01 00       	movw   $0x1,(%rax)
    9669:	83 bd 70 ee ff ff 01 	cmpl   $0x1,-0x1190(%rbp)
    9670:	0f 95 c0             	setne  %al
    9673:	0f b6 c0             	movzbl %al,%eax
    9676:	be 01 00 00 00       	mov    $0x1,%esi
    967b:	89 c7                	mov    %eax,%edi
    967d:	e8 f8 d7 ff ff       	callq  6e7a <safe_rshift_func_uint16_t_u_u>
    9682:	0f b7 d0             	movzwl %ax,%edx
    9685:	0f b6 85 74 ee ff ff 	movzbl -0x118c(%rbp),%eax
    968c:	89 d6                	mov    %edx,%esi
    968e:	89 c7                	mov    %eax,%edi
    9690:	e8 ce ce ff ff       	callq  6563 <safe_rshift_func_int16_t_s_u>
    9695:	0f bf d0             	movswl %ax,%edx
    9698:	0f b7 05 69 4b 01 00 	movzwl 0x14b69(%rip),%eax        # 1e208 <g_196+0x8>
    969f:	0f b7 c0             	movzwl %ax,%eax
    96a2:	39 c2                	cmp    %eax,%edx
    96a4:	0f 9e c0             	setle  %al
    96a7:	0f b6 c0             	movzbl %al,%eax
    96aa:	be ff ff ff ff       	mov    $0xffffffff,%esi
    96af:	89 c7                	mov    %eax,%edi
    96b1:	e8 5c cb ff ff       	callq  6212 <safe_mul_func_int8_t_s_s>
    96b6:	48 8b 05 6b 61 01 00 	mov    0x1616b(%rip),%rax        # 1f828 <g_840>
    96bd:	c7 00 00 00 00 00    	movl   $0x0,(%rax)
    96c3:	8b 00                	mov    (%rax),%eax
    96c5:	be f9 ff ff ff       	mov    $0xfffffff9,%esi
    96ca:	89 c7                	mov    %eax,%edi
    96cc:	e8 2e d0 ff ff       	callq  66ff <safe_div_func_int32_t_s_s>
    96d1:	0f b7 c0             	movzwl %ax,%eax
    96d4:	be a0 69 00 00       	mov    $0x69a0,%esi
    96d9:	89 c7                	mov    %eax,%edi
    96db:	e8 1f d6 ff ff       	callq  6cff <safe_add_func_uint16_t_u_u>
    96e0:	66 41 39 c4          	cmp    %ax,%r12w
    96e4:	0f 92 c0             	setb   %al
    96e7:	0f b6 d0             	movzbl %al,%edx
    96ea:	0f b6 85 74 ee ff ff 	movzbl -0x118c(%rbp),%eax
    96f1:	39 c2                	cmp    %eax,%edx
    96f3:	0f 94 c0             	sete   %al
    96f6:	0f b6 d0             	movzbl %al,%edx
    96f9:	8b 85 68 ee ff ff    	mov    -0x1198(%rbp),%eax
    96ff:	39 c2                	cmp    %eax,%edx
    9701:	0f 94 c0             	sete   %al
    9704:	0f b6 c0             	movzbl %al,%eax
    9707:	89 85 fc f1 ff ff    	mov    %eax,-0xe04(%rbp)
    970d:	8b 95 fc f1 ff ff    	mov    -0xe04(%rbp),%edx
    9713:	48 8b 85 78 ee ff ff 	mov    -0x1188(%rbp),%rax
    971a:	8b 00                	mov    (%rax),%eax
    971c:	39 c2                	cmp    %eax,%edx
    971e:	0f 9f c0             	setg   %al
    9721:	0f b6 c0             	movzbl %al,%eax
    9724:	89 de                	mov    %ebx,%esi
    9726:	89 c7                	mov    %eax,%edi
    9728:	e8 65 cd ff ff       	callq  6492 <safe_lshift_func_int16_t_s_s>
    972d:	48 8b 05 14 60 01 00 	mov    0x16014(%rip),%rax        # 1f748 <g_319>
    9734:	b8 00 00 00 00       	mov    $0x0,%eax
    9739:	31 85 d0 ee ff ff    	xor    %eax,-0x1130(%rbp)
    973f:	83 85 e0 ee ff ff 01 	addl   $0x1,-0x1120(%rbp)
    9746:	83 bd e0 ee ff ff 09 	cmpl   $0x9,-0x1120(%rbp)
    974d:	0f 8e 3d fe ff ff    	jle    9590 <func_12+0x166d>
    9753:	eb 01                	jmp    9756 <func_12+0x1833>
    9755:	90                   	nop
    9756:	c7 05 b8 4b 01 00 03 	movl   $0x3,0x14bb8(%rip)        # 1e318 <g_1032>
    975d:	00 00 00 
    9760:	90                   	nop
    9761:	8b 05 b1 4b 01 00    	mov    0x14bb1(%rip),%eax        # 1e318 <g_1032>
    9767:	85 c0                	test   %eax,%eax
    9769:	78 0c                	js     9777 <func_12+0x1854>
    976b:	48 8b 85 78 ee ff ff 	mov    -0x1188(%rbp),%rax
    9772:	e9 4c 20 00 00       	jmpq   b7c3 <func_12+0x38a0>
    9777:	8b 85 a8 ef ff ff    	mov    -0x1058(%rbp),%eax
    977d:	83 e8 01             	sub    $0x1,%eax
    9780:	89 85 a8 ef ff ff    	mov    %eax,-0x1058(%rbp)
    9786:	8b 85 a8 ef ff ff    	mov    -0x1058(%rbp),%eax
    978c:	85 c0                	test   %eax,%eax
    978e:	0f 89 62 fc ff ff    	jns    93f6 <func_12+0x14d3>
    9794:	c6 05 35 4b 01 00 00 	movb   $0x0,0x14b35(%rip)        # 1e2d0 <g_759>
    979b:	eb 46                	jmp    97e3 <func_12+0x18c0>
    979d:	c7 85 e8 ee ff ff 00 	movl   $0x0,-0x1118(%rbp)
    97a4:	00 00 00 
    97a7:	eb 1a                	jmp    97c3 <func_12+0x18a0>
    97a9:	8b 85 e8 ee ff ff    	mov    -0x1118(%rbp),%eax
    97af:	48 98                	cltq   
    97b1:	c7 84 85 50 fb ff ff 	movl   $0x0,-0x4b0(%rbp,%rax,4)
    97b8:	00 00 00 00 
    97bc:	83 85 e8 ee ff ff 01 	addl   $0x1,-0x1118(%rbp)
    97c3:	83 bd e8 ee ff ff 00 	cmpl   $0x0,-0x1118(%rbp)
    97ca:	7e dd                	jle    97a9 <func_12+0x1886>
    97cc:	83 85 d8 ee ff ff 01 	addl   $0x1,-0x1128(%rbp)
    97d3:	0f b6 05 f6 4a 01 00 	movzbl 0x14af6(%rip),%eax        # 1e2d0 <g_759>
    97da:	83 c0 01             	add    $0x1,%eax
    97dd:	88 05 ed 4a 01 00    	mov    %al,0x14aed(%rip)        # 1e2d0 <g_759>
    97e3:	0f b6 05 e6 4a 01 00 	movzbl 0x14ae6(%rip),%eax        # 1e2d0 <g_759>
    97ea:	3c 08                	cmp    $0x8,%al
    97ec:	76 af                	jbe    979d <func_12+0x187a>
    97ee:	48 8b 05 33 60 01 00 	mov    0x16033(%rip),%rax        # 1f828 <g_840>
    97f5:	48 8b 95 78 ee ff ff 	mov    -0x1188(%rbp),%rdx
    97fc:	8b 12                	mov    (%rdx),%edx
    97fe:	89 10                	mov    %edx,(%rax)
    9800:	8b 00                	mov    (%rax),%eax
    9802:	be f7 ff ff ff       	mov    $0xfffffff7,%esi
    9807:	89 c7                	mov    %eax,%edi
    9809:	e8 be ce ff ff       	callq  66cc <safe_mod_func_int32_t_s_s>
    980e:	0f b6 c0             	movzbl %al,%eax
    9811:	be 06 00 00 00       	mov    $0x6,%esi
    9816:	89 c7                	mov    %eax,%edi
    9818:	e8 2f d4 ff ff       	callq  6c4c <safe_lshift_func_uint8_t_u_u>
    981d:	0f b6 d8             	movzbl %al,%ebx
    9820:	48 8b 85 70 f0 ff ff 	mov    -0xf90(%rbp),%rax
    9827:	0f b7 00             	movzwl (%rax),%eax
    982a:	8d 50 01             	lea    0x1(%rax),%edx
    982d:	48 8b 85 70 f0 ff ff 	mov    -0xf90(%rbp),%rax
    9834:	66 89 10             	mov    %dx,(%rax)
    9837:	48 8b 85 70 f0 ff ff 	mov    -0xf90(%rbp),%rax
    983e:	0f b7 00             	movzwl (%rax),%eax
    9841:	0f b7 d0             	movzwl %ax,%edx
    9844:	48 8b 85 68 f0 ff ff 	mov    -0xf98(%rbp),%rax
    984b:	48 8b 8d 50 f0 ff ff 	mov    -0xfb0(%rbp),%rcx
    9852:	48 89 08             	mov    %rcx,(%rax)
    9855:	48 8b 85 68 f0 ff ff 	mov    -0xf98(%rbp),%rax
    985c:	48 8b 08             	mov    (%rax),%rcx
    985f:	48 8d 85 78 ef ff ff 	lea    -0x1088(%rbp),%rax
    9866:	48 39 c1             	cmp    %rax,%rcx
    9869:	0f 95 c0             	setne  %al
    986c:	0f b6 c0             	movzbl %al,%eax
    986f:	89 d6                	mov    %edx,%esi
    9871:	89 c7                	mov    %eax,%edi
    9873:	e8 8e d5 ff ff       	callq  6e06 <safe_lshift_func_uint16_t_u_u>
    9878:	44 0f bf e0          	movswl %ax,%r12d
    987c:	0f b6 85 90 ee ff ff 	movzbl -0x1170(%rbp),%eax
    9883:	0f b6 d0             	movzbl %al,%edx
    9886:	0f b6 05 43 4a 01 00 	movzbl 0x14a43(%rip),%eax        # 1e2d0 <g_759>
    988d:	83 c0 01             	add    $0x1,%eax
    9890:	88 05 3a 4a 01 00    	mov    %al,0x14a3a(%rip)        # 1e2d0 <g_759>
    9896:	0f b6 05 33 4a 01 00 	movzbl 0x14a33(%rip),%eax        # 1e2d0 <g_759>
    989d:	0f b6 c0             	movzbl %al,%eax
    98a0:	89 d6                	mov    %edx,%esi
    98a2:	89 c7                	mov    %eax,%edi
    98a4:	e8 32 d3 ff ff       	callq  6bdb <safe_div_func_uint8_t_u_u>
    98a9:	0f b6 d0             	movzbl %al,%edx
    98ac:	0f b6 85 8e ee ff ff 	movzbl -0x1172(%rbp),%eax
    98b3:	83 c8 44             	or     $0x44,%eax
    98b6:	0f b6 c0             	movzbl %al,%eax
    98b9:	89 d6                	mov    %edx,%esi
    98bb:	89 c7                	mov    %eax,%edi
    98bd:	e8 d1 d2 ff ff       	callq  6b93 <safe_mul_func_uint8_t_u_u>
    98c2:	84 c0                	test   %al,%al
    98c4:	0f 94 c0             	sete   %al
    98c7:	0f b6 c0             	movzbl %al,%eax
    98ca:	44 89 e6             	mov    %r12d,%esi
    98cd:	89 c7                	mov    %eax,%edi
    98cf:	e8 42 cb ff ff       	callq  6416 <safe_mod_func_int16_t_s_s>
    98d4:	0f be d0             	movsbl %al,%edx
    98d7:	48 8b 05 52 6e 01 00 	mov    0x16e52(%rip),%rax        # 20730 <g_2331>
    98de:	0f b6 00             	movzbl (%rax),%eax
    98e1:	0f be c0             	movsbl %al,%eax
    98e4:	89 d6                	mov    %edx,%esi
    98e6:	89 c7                	mov    %eax,%edi
    98e8:	e8 e7 c8 ff ff       	callq  61d4 <safe_add_func_int8_t_s_s>
    98ed:	48 89 de             	mov    %rbx,%rsi
    98f0:	48 bf 2b 96 60 1a 35 	movabs $0x1ad4ee351a60962b,%rdi
    98f7:	ee d4 1a 
    98fa:	e8 b5 d0 ff ff       	callq  69b4 <safe_mod_func_int64_t_s_s>
    98ff:	98                   	cwtl   
    9900:	be 93 2c 00 00       	mov    $0x2c93,%esi
    9905:	89 c7                	mov    %eax,%edi
    9907:	e8 c7 ca ff ff       	callq  63d3 <safe_sub_func_int16_t_s_s>
    990c:	8b 95 0c f2 ff ff    	mov    -0xdf4(%rbp),%edx
    9912:	98                   	cwtl   
    9913:	21 d0                	and    %edx,%eax
    9915:	89 85 0c f2 ff ff    	mov    %eax,-0xdf4(%rbp)
    991b:	8b 85 0c f2 ff ff    	mov    -0xdf4(%rbp),%eax
    9921:	85 c0                	test   %eax,%eax
    9923:	0f 84 62 01 00 00    	je     9a8b <func_12+0x1b68>
    9929:	c7 85 14 ef ff ff 01 	movl   $0x1,-0x10ec(%rbp)
    9930:	00 00 00 
    9933:	be 00 00 00 00       	mov    $0x0,%esi
    9938:	bf 01 00 00 00       	mov    $0x1,%edi
    993d:	e8 7c d4 ff ff       	callq  6dbe <safe_lshift_func_uint16_t_u_s>
    9942:	66 85 c0             	test   %ax,%ax
    9945:	74 0c                	je     9953 <func_12+0x1a30>
    9947:	48 8b 85 78 ee ff ff 	mov    -0x1188(%rbp),%rax
    994e:	e9 70 1e 00 00       	jmpq   b7c3 <func_12+0x38a0>
    9953:	48 8d 85 b8 ef ff ff 	lea    -0x1048(%rbp),%rax
    995a:	48 89 85 50 fb ff ff 	mov    %rax,-0x4b0(%rbp)
    9961:	48 8d 85 b8 ef ff ff 	lea    -0x1048(%rbp),%rax
    9968:	48 89 85 58 fb ff ff 	mov    %rax,-0x4a8(%rbp)
    996f:	48 8d 85 b8 ef ff ff 	lea    -0x1048(%rbp),%rax
    9976:	48 89 85 60 fb ff ff 	mov    %rax,-0x4a0(%rbp)
    997d:	48 8d 85 b8 ef ff ff 	lea    -0x1048(%rbp),%rax
    9984:	48 89 85 68 fb ff ff 	mov    %rax,-0x498(%rbp)
    998b:	48 8d 85 b8 ef ff ff 	lea    -0x1048(%rbp),%rax
    9992:	48 89 85 70 fb ff ff 	mov    %rax,-0x490(%rbp)
    9999:	48 8d 85 b8 ef ff ff 	lea    -0x1048(%rbp),%rax
    99a0:	48 89 85 78 fb ff ff 	mov    %rax,-0x488(%rbp)
    99a7:	48 8d 85 b8 ef ff ff 	lea    -0x1048(%rbp),%rax
    99ae:	48 89 85 80 fb ff ff 	mov    %rax,-0x480(%rbp)
    99b5:	48 8d 85 b8 ef ff ff 	lea    -0x1048(%rbp),%rax
    99bc:	48 89 85 88 fb ff ff 	mov    %rax,-0x478(%rbp)
    99c3:	48 c7 85 88 f0 ff ff 	movq   $0x0,-0xf78(%rbp)
    99ca:	00 00 00 00 
    99ce:	c7 85 18 ef ff ff f0 	movl   $0x9a4d91f0,-0x10e8(%rbp)
    99d5:	91 4d 9a 
    99d8:	48 83 bd 88 f0 ff ff 	cmpq   $0x0,-0xf78(%rbp)
    99df:	00 
    99e0:	0f 95 c0             	setne  %al
    99e3:	0f b6 c0             	movzbl %al,%eax
    99e6:	89 c6                	mov    %eax,%esi
    99e8:	bf 00 00 00 00       	mov    $0x0,%edi
    99ed:	e8 e2 c7 ff ff       	callq  61d4 <safe_add_func_int8_t_s_s>
    99f2:	89 c2                	mov    %eax,%edx
    99f4:	48 8b 05 2d 5e 01 00 	mov    0x15e2d(%rip),%rax        # 1f828 <g_840>
    99fb:	0f be d2             	movsbl %dl,%edx
    99fe:	89 10                	mov    %edx,(%rax)
    9a00:	8b 85 18 ef ff ff    	mov    -0x10e8(%rbp),%eax
    9a06:	0f b7 d0             	movzwl %ax,%edx
    9a09:	8b 85 18 ef ff ff    	mov    -0x10e8(%rbp),%eax
    9a0f:	39 85 14 ef ff ff    	cmp    %eax,-0x10ec(%rbp)
    9a15:	0f 97 c0             	seta   %al
    9a18:	0f b6 c0             	movzbl %al,%eax
    9a1b:	89 d6                	mov    %edx,%esi
    9a1d:	89 c7                	mov    %eax,%edi
    9a1f:	e8 fb d2 ff ff       	callq  6d1f <safe_sub_func_uint16_t_u_u>
    9a24:	0f b6 95 32 f4 ff ff 	movzbl -0xbce(%rbp),%edx
    9a2b:	48 8b 85 58 f0 ff ff 	mov    -0xfa8(%rbp),%rax
    9a32:	88 10                	mov    %dl,(%rax)
    9a34:	48 83 bd 78 ee ff ff 	cmpq   $0x0,-0x1188(%rbp)
    9a3b:	00 
    9a3c:	0f 95 c0             	setne  %al
    9a3f:	0f b6 d0             	movzbl %al,%edx
    9a42:	8b 85 68 ee ff ff    	mov    -0x1198(%rbp),%eax
    9a48:	98                   	cwtl   
    9a49:	89 d6                	mov    %edx,%esi
    9a4b:	89 c7                	mov    %eax,%edi
    9a4d:	e8 11 cb ff ff       	callq  6563 <safe_rshift_func_int16_t_s_u>
    9a52:	66 85 c0             	test   %ax,%ax
    9a55:	74 14                	je     9a6b <func_12+0x1b48>
    9a57:	48 8b 85 78 ee ff ff 	mov    -0x1188(%rbp),%rax
    9a5e:	8b 00                	mov    (%rax),%eax
    9a60:	85 c0                	test   %eax,%eax
    9a62:	74 07                	je     9a6b <func_12+0x1b48>
    9a64:	ba 01 00 00 00       	mov    $0x1,%edx
    9a69:	eb 05                	jmp    9a70 <func_12+0x1b4d>
    9a6b:	ba 00 00 00 00       	mov    $0x0,%edx
    9a70:	48 8b 05 21 5d 01 00 	mov    0x15d21(%rip),%rax        # 1f798 <g_553>
    9a77:	48 8b 00             	mov    (%rax),%rax
    9a7a:	48 8b 00             	mov    (%rax),%rax
    9a7d:	89 10                	mov    %edx,(%rax)
    9a7f:	48 8b 85 78 ee ff ff 	mov    -0x1188(%rbp),%rax
    9a86:	e9 38 1d 00 00       	jmpq   b7c3 <func_12+0x38a0>
    9a8b:	c6 85 91 ee ff ff 1e 	movb   $0x1e,-0x116f(%rbp)
    9a92:	48 c7 85 d8 ef ff ff 	movq   $0x1,-0x1028(%rbp)
    9a99:	01 00 00 00 
    9a9d:	e9 b7 00 00 00       	jmpq   9b59 <func_12+0x1c36>
    9aa2:	c6 85 96 ee ff ff 05 	movb   $0x5,-0x116a(%rbp)
    9aa9:	8b 1d 89 48 01 00    	mov    0x14889(%rip),%ebx        # 1e338 <g_1665>
    9aaf:	44 0f b6 a5 74 ee ff 	movzbl -0x118c(%rbp),%r12d
    9ab6:	ff 
    9ab7:	48 8b 05 fa 47 01 00 	mov    0x147fa(%rip),%rax        # 1e2b8 <g_583>
    9abe:	41 89 c5             	mov    %eax,%r13d
    9ac1:	0f be 85 96 ee ff ff 	movsbl -0x116a(%rbp),%eax
    9ac8:	be 00 00 00 00       	mov    $0x0,%esi
    9acd:	89 c7                	mov    %eax,%edi
    9acf:	e8 12 d4 ff ff       	callq  6ee6 <safe_mul_func_uint32_t_u_u>
    9ad4:	8b 85 c4 ee ff ff    	mov    -0x113c(%rbp),%eax
    9ada:	44 89 ee             	mov    %r13d,%esi
    9add:	89 c7                	mov    %eax,%edi
    9adf:	e8 d2 ca ff ff       	callq  65b6 <safe_add_func_int32_t_s_s>
    9ae4:	8b 85 68 ee ff ff    	mov    -0x1198(%rbp),%eax
    9aea:	0f b6 c0             	movzbl %al,%eax
    9aed:	be 01 00 00 00       	mov    $0x1,%esi
    9af2:	89 c7                	mov    %eax,%edi
    9af4:	e8 61 d0 ff ff       	callq  6b5a <safe_add_func_uint8_t_u_u>
    9af9:	0f b6 c0             	movzbl %al,%eax
    9afc:	be 08 00 00 00       	mov    $0x8,%esi
    9b01:	89 c7                	mov    %eax,%edi
    9b03:	e8 22 ca ff ff       	callq  652a <safe_rshift_func_int16_t_s_s>
    9b08:	66 83 f8 fe          	cmp    $0xfffe,%ax
    9b0c:	0f 9d c0             	setge  %al
    9b0f:	0f b6 c0             	movzbl %al,%eax
    9b12:	41 39 c4             	cmp    %eax,%r12d
    9b15:	74 07                	je     9b1e <func_12+0x1bfb>
    9b17:	b8 f7 00 00 00       	mov    $0xf7,%eax
    9b1c:	eb 05                	jmp    9b23 <func_12+0x1c00>
    9b1e:	b8 f6 00 00 00       	mov    $0xf6,%eax
    9b23:	89 de                	mov    %ebx,%esi
    9b25:	89 c7                	mov    %eax,%edi
    9b27:	e8 f9 d3 ff ff       	callq  6f25 <safe_div_func_uint32_t_u_u>
    9b2c:	89 c2                	mov    %eax,%edx
    9b2e:	48 8b 05 f3 5c 01 00 	mov    0x15cf3(%rip),%rax        # 1f828 <g_840>
    9b35:	89 10                	mov    %edx,(%rax)
    9b37:	80 ad 91 ee ff ff 01 	subb   $0x1,-0x116f(%rbp)
    9b3e:	48 8b 85 d8 ef ff ff 	mov    -0x1028(%rbp),%rax
    9b45:	be 08 00 00 00       	mov    $0x8,%esi
    9b4a:	48 89 c7             	mov    %rax,%rdi
    9b4d:	e8 ef cc ff ff       	callq  6841 <safe_add_func_int64_t_s_s>
    9b52:	48 89 85 d8 ef ff ff 	mov    %rax,-0x1028(%rbp)
    9b59:	48 83 bd d8 ef ff ff 	cmpq   $0x14,-0x1028(%rbp)
    9b60:	14 
    9b61:	0f 87 3b ff ff ff    	ja     9aa2 <func_12+0x1b7f>
    9b67:	c6 05 b6 44 01 00 f8 	movb   $0xf8,0x144b6(%rip)        # 1e024 <g_9>
    9b6e:	eb 35                	jmp    9ba5 <func_12+0x1c82>
    9b70:	48 b8 86 ac df cb 4f 	movabs $0x2a9564fcbdfac86,%rax
    9b77:	56 a9 02 
    9b7a:	48 89 85 80 f0 ff ff 	mov    %rax,-0xf80(%rbp)
    9b81:	48 83 ad 80 f0 ff ff 	subq   $0x1,-0xf80(%rbp)
    9b88:	01 
    9b89:	0f b6 05 94 44 01 00 	movzbl 0x14494(%rip),%eax        # 1e024 <g_9>
    9b90:	0f be c0             	movsbl %al,%eax
    9b93:	be 02 00 00 00       	mov    $0x2,%esi
    9b98:	89 c7                	mov    %eax,%edi
    9b9a:	e8 17 ca ff ff       	callq  65b6 <safe_add_func_int32_t_s_s>
    9b9f:	88 05 7f 44 01 00    	mov    %al,0x1447f(%rip)        # 1e024 <g_9>
    9ba5:	0f b6 05 78 44 01 00 	movzbl 0x14478(%rip),%eax        # 1e024 <g_9>
    9bac:	3c 0b                	cmp    $0xb,%al
    9bae:	74 c0                	je     9b70 <func_12+0x1c4d>
    9bb0:	e9 67 07 00 00       	jmpq   a31c <func_12+0x23f9>
    9bb5:	48 b8 0d f0 d4 51 8a 	movabs $0xcafaca8a51d4f00d,%rax
    9bbc:	ca fa ca 
    9bbf:	48 89 85 e8 ef ff ff 	mov    %rax,-0x1018(%rbp)
    9bc6:	c7 85 50 fb ff ff 34 	movl   $0x3a677434,-0x4b0(%rbp)
    9bcd:	74 67 3a 
    9bd0:	c7 85 54 fb ff ff 34 	movl   $0x3a677434,-0x4ac(%rbp)
    9bd7:	74 67 3a 
    9bda:	c7 85 58 fb ff ff 34 	movl   $0x3a677434,-0x4a8(%rbp)
    9be1:	74 67 3a 
    9be4:	c7 85 5c fb ff ff 34 	movl   $0x3a677434,-0x4a4(%rbp)
    9beb:	74 67 3a 
    9bee:	c7 85 60 fb ff ff 34 	movl   $0x3a677434,-0x4a0(%rbp)
    9bf5:	74 67 3a 
    9bf8:	c7 85 64 fb ff ff 34 	movl   $0x3a677434,-0x49c(%rbp)
    9bff:	74 67 3a 
    9c02:	c7 85 68 fb ff ff 34 	movl   $0x3a677434,-0x498(%rbp)
    9c09:	74 67 3a 
    9c0c:	c7 85 6c fb ff ff 34 	movl   $0x3a677434,-0x494(%rbp)
    9c13:	74 67 3a 
    9c16:	c7 85 70 fb ff ff 34 	movl   $0x3a677434,-0x490(%rbp)
    9c1d:	74 67 3a 
    9c20:	c7 85 74 fb ff ff 34 	movl   $0x3a677434,-0x48c(%rbp)
    9c27:	74 67 3a 
    9c2a:	c7 85 78 fb ff ff 34 	movl   $0x3a677434,-0x488(%rbp)
    9c31:	74 67 3a 
    9c34:	c7 85 7c fb ff ff 34 	movl   $0x3a677434,-0x484(%rbp)
    9c3b:	74 67 3a 
    9c3e:	c7 85 80 fb ff ff 34 	movl   $0x3a677434,-0x480(%rbp)
    9c45:	74 67 3a 
    9c48:	c7 85 84 fb ff ff 34 	movl   $0x3a677434,-0x47c(%rbp)
    9c4f:	74 67 3a 
    9c52:	c7 85 88 fb ff ff 34 	movl   $0x3a677434,-0x478(%rbp)
    9c59:	74 67 3a 
    9c5c:	c7 85 8c fb ff ff 34 	movl   $0x3a677434,-0x474(%rbp)
    9c63:	74 67 3a 
    9c66:	c7 85 90 fb ff ff 34 	movl   $0x3a677434,-0x470(%rbp)
    9c6d:	74 67 3a 
    9c70:	c7 85 94 fb ff ff 34 	movl   $0x3a677434,-0x46c(%rbp)
    9c77:	74 67 3a 
    9c7a:	c7 85 98 fb ff ff 34 	movl   $0x3a677434,-0x468(%rbp)
    9c81:	74 67 3a 
    9c84:	c7 85 9c fb ff ff 34 	movl   $0x3a677434,-0x464(%rbp)
    9c8b:	74 67 3a 
    9c8e:	c7 85 a0 fb ff ff 34 	movl   $0x3a677434,-0x460(%rbp)
    9c95:	74 67 3a 
    9c98:	c7 85 a4 fb ff ff 34 	movl   $0x3a677434,-0x45c(%rbp)
    9c9f:	74 67 3a 
    9ca2:	c7 85 a8 fb ff ff 34 	movl   $0x3a677434,-0x458(%rbp)
    9ca9:	74 67 3a 
    9cac:	c7 85 ac fb ff ff 34 	movl   $0x3a677434,-0x454(%rbp)
    9cb3:	74 67 3a 
    9cb6:	c7 85 b0 fb ff ff 34 	movl   $0x3a677434,-0x450(%rbp)
    9cbd:	74 67 3a 
    9cc0:	c7 85 b4 fb ff ff 34 	movl   $0x3a677434,-0x44c(%rbp)
    9cc7:	74 67 3a 
    9cca:	c7 85 b8 fb ff ff 34 	movl   $0x3a677434,-0x448(%rbp)
    9cd1:	74 67 3a 
    9cd4:	c7 85 bc fb ff ff 34 	movl   $0x3a677434,-0x444(%rbp)
    9cdb:	74 67 3a 
    9cde:	c7 85 c0 fb ff ff 34 	movl   $0x3a677434,-0x440(%rbp)
    9ce5:	74 67 3a 
    9ce8:	c7 85 c4 fb ff ff 34 	movl   $0x3a677434,-0x43c(%rbp)
    9cef:	74 67 3a 
    9cf2:	c7 85 c8 fb ff ff 34 	movl   $0x3a677434,-0x438(%rbp)
    9cf9:	74 67 3a 
    9cfc:	c7 85 cc fb ff ff 34 	movl   $0x3a677434,-0x434(%rbp)
    9d03:	74 67 3a 
    9d06:	c7 85 d0 fb ff ff 34 	movl   $0x3a677434,-0x430(%rbp)
    9d0d:	74 67 3a 
    9d10:	c7 85 d4 fb ff ff 34 	movl   $0x3a677434,-0x42c(%rbp)
    9d17:	74 67 3a 
    9d1a:	c7 85 d8 fb ff ff 34 	movl   $0x3a677434,-0x428(%rbp)
    9d21:	74 67 3a 
    9d24:	c7 85 dc fb ff ff 34 	movl   $0x3a677434,-0x424(%rbp)
    9d2b:	74 67 3a 
    9d2e:	c7 85 e0 fb ff ff 34 	movl   $0x3a677434,-0x420(%rbp)
    9d35:	74 67 3a 
    9d38:	c7 85 e4 fb ff ff 34 	movl   $0x3a677434,-0x41c(%rbp)
    9d3f:	74 67 3a 
    9d42:	c7 85 e8 fb ff ff 34 	movl   $0x3a677434,-0x418(%rbp)
    9d49:	74 67 3a 
    9d4c:	c7 85 ec fb ff ff 34 	movl   $0x3a677434,-0x414(%rbp)
    9d53:	74 67 3a 
    9d56:	c7 85 f0 fb ff ff 34 	movl   $0x3a677434,-0x410(%rbp)
    9d5d:	74 67 3a 
    9d60:	c7 85 f4 fb ff ff 34 	movl   $0x3a677434,-0x40c(%rbp)
    9d67:	74 67 3a 
    9d6a:	c7 85 f8 fb ff ff 34 	movl   $0x3a677434,-0x408(%rbp)
    9d71:	74 67 3a 
    9d74:	c7 85 fc fb ff ff 34 	movl   $0x3a677434,-0x404(%rbp)
    9d7b:	74 67 3a 
    9d7e:	c7 85 00 fc ff ff 34 	movl   $0x3a677434,-0x400(%rbp)
    9d85:	74 67 3a 
    9d88:	c7 85 04 fc ff ff 34 	movl   $0x3a677434,-0x3fc(%rbp)
    9d8f:	74 67 3a 
    9d92:	c7 85 08 fc ff ff 34 	movl   $0x3a677434,-0x3f8(%rbp)
    9d99:	74 67 3a 
    9d9c:	c7 85 0c fc ff ff 34 	movl   $0x3a677434,-0x3f4(%rbp)
    9da3:	74 67 3a 
    9da6:	c7 85 10 fc ff ff 34 	movl   $0x3a677434,-0x3f0(%rbp)
    9dad:	74 67 3a 
    9db0:	c7 85 14 fc ff ff 34 	movl   $0x3a677434,-0x3ec(%rbp)
    9db7:	74 67 3a 
    9dba:	c7 85 18 fc ff ff 34 	movl   $0x3a677434,-0x3e8(%rbp)
    9dc1:	74 67 3a 
    9dc4:	c7 85 1c fc ff ff 34 	movl   $0x3a677434,-0x3e4(%rbp)
    9dcb:	74 67 3a 
    9dce:	c7 85 20 fc ff ff 34 	movl   $0x3a677434,-0x3e0(%rbp)
    9dd5:	74 67 3a 
    9dd8:	c7 85 24 fc ff ff 34 	movl   $0x3a677434,-0x3dc(%rbp)
    9ddf:	74 67 3a 
    9de2:	c7 85 08 ef ff ff de 	movl   $0x74f2ddde,-0x10f8(%rbp)
    9de9:	dd f2 74 
    9dec:	48 8d 05 85 6f 01 00 	lea    0x16f85(%rip),%rax        # 20d78 <g_2565>
    9df3:	48 89 85 d0 f7 ff ff 	mov    %rax,-0x830(%rbp)
    9dfa:	48 8d 05 77 6f 01 00 	lea    0x16f77(%rip),%rax        # 20d78 <g_2565>
    9e01:	48 89 85 d8 f7 ff ff 	mov    %rax,-0x828(%rbp)
    9e08:	48 8d 05 69 6f 01 00 	lea    0x16f69(%rip),%rax        # 20d78 <g_2565>
    9e0f:	48 89 85 e0 f7 ff ff 	mov    %rax,-0x820(%rbp)
    9e16:	48 8d 05 5b 6f 01 00 	lea    0x16f5b(%rip),%rax        # 20d78 <g_2565>
    9e1d:	48 89 85 e8 f7 ff ff 	mov    %rax,-0x818(%rbp)
    9e24:	48 8d 05 4d 6f 01 00 	lea    0x16f4d(%rip),%rax        # 20d78 <g_2565>
    9e2b:	48 89 85 f0 f7 ff ff 	mov    %rax,-0x810(%rbp)
    9e32:	48 8d 05 3f 6f 01 00 	lea    0x16f3f(%rip),%rax        # 20d78 <g_2565>
    9e39:	48 89 85 f8 f7 ff ff 	mov    %rax,-0x808(%rbp)
    9e40:	48 c7 05 9d 43 01 00 	movq   $0x1,0x1439d(%rip)        # 1e1e8 <g_174>
    9e47:	01 00 00 00 
    9e4b:	e9 42 02 00 00       	jmpq   a092 <func_12+0x216f>
    9e50:	c7 85 0c ef ff ff 01 	movl   $0x1,-0x10f4(%rbp)
    9e57:	00 00 00 
    9e5a:	48 8d 05 db 41 01 00 	lea    0x141db(%rip),%rax        # 1e03c <g_71+0xc>
    9e61:	48 89 85 c0 ef ff ff 	mov    %rax,-0x1040(%rbp)
    9e68:	83 85 0c ef ff ff 01 	addl   $0x1,-0x10f4(%rbp)
    9e6f:	c6 85 8e ee ff ff 00 	movb   $0x0,-0x1172(%rbp)
    9e76:	e9 f6 01 00 00       	jmpq   a071 <func_12+0x214e>
    9e7b:	48 c7 85 38 f0 ff ff 	movq   $0x0,-0xfc8(%rbp)
    9e82:	00 00 00 00 
    9e86:	c7 85 ec ee ff ff 00 	movl   $0x0,-0x1114(%rbp)
    9e8d:	00 00 00 
    9e90:	eb 1a                	jmp    9eac <func_12+0x1f89>
    9e92:	8b 85 ec ee ff ff    	mov    -0x1114(%rbp),%eax
    9e98:	48 98                	cltq   
    9e9a:	c7 84 85 40 f4 ff ff 	movl   $0x16d0a58d,-0xbc0(%rbp,%rax,4)
    9ea1:	8d a5 d0 16 
    9ea5:	83 85 ec ee ff ff 01 	addl   $0x1,-0x1114(%rbp)
    9eac:	83 bd ec ee ff ff 05 	cmpl   $0x5,-0x1114(%rbp)
    9eb3:	7e dd                	jle    9e92 <func_12+0x1f6f>
    9eb5:	48 c7 85 d8 ef ff ff 	movq   $0x0,-0x1028(%rbp)
    9ebc:	00 00 00 00 
    9ec0:	eb 2c                	jmp    9eee <func_12+0x1fcb>
    9ec2:	0f b6 85 74 ee ff ff 	movzbl -0x118c(%rbp),%eax
    9ec9:	39 85 0c ef ff ff    	cmp    %eax,-0x10f4(%rbp)
    9ecf:	0f 96 c2             	setbe  %dl
    9ed2:	48 8b 05 4f 59 01 00 	mov    0x1594f(%rip),%rax        # 1f828 <g_840>
    9ed9:	0f b6 d2             	movzbl %dl,%edx
    9edc:	89 10                	mov    %edx,(%rax)
    9ede:	48 83 ad e8 ef ff ff 	subq   $0x1,-0x1018(%rbp)
    9ee5:	01 
    9ee6:	48 83 85 d8 ef ff ff 	addq   $0x1,-0x1028(%rbp)
    9eed:	01 
    9eee:	48 83 bd d8 ef ff ff 	cmpq   $0x0,-0x1028(%rbp)
    9ef5:	00 
    9ef6:	74 ca                	je     9ec2 <func_12+0x1f9f>
    9ef8:	c6 05 4d 41 01 00 00 	movb   $0x0,0x1414d(%rip)        # 1e04c <g_90>
    9eff:	e9 4b 01 00 00       	jmpq   a04f <func_12+0x212c>
    9f04:	48 8d 85 c0 ef ff ff 	lea    -0x1040(%rbp),%rax
    9f0b:	48 89 85 40 f0 ff ff 	mov    %rax,-0xfc0(%rbp)
    9f12:	48 c7 85 c8 ef ff ff 	movq   $0x0,-0x1038(%rbp)
    9f19:	00 00 00 00 
    9f1d:	c7 85 c8 ef ff ff d8 	movl   $0x6ca454d8,-0x1038(%rbp)
    9f24:	54 a4 6c 
    9f27:	48 8b 95 c0 ef ff ff 	mov    -0x1040(%rbp),%rdx
    9f2e:	48 8b 85 40 f0 ff ff 	mov    -0xfc0(%rbp),%rax
    9f35:	48 89 10             	mov    %rdx,(%rax)
    9f38:	80 bd 93 ee ff ff 00 	cmpb   $0x0,-0x116d(%rbp)
    9f3f:	0f 85 1b 01 00 00    	jne    a060 <func_12+0x213d>
    9f45:	c7 85 50 f4 ff ff 00 	movl   $0x0,-0xbb0(%rbp)
    9f4c:	00 00 00 
    9f4f:	0f b6 85 8e ee ff ff 	movzbl -0x1172(%rbp),%eax
    9f56:	0f b6 c0             	movzbl %al,%eax
    9f59:	83 c0 01             	add    $0x1,%eax
    9f5c:	48 98                	cltq   
    9f5e:	48 8d 14 c5 00 00 00 	lea    0x0(,%rax,8),%rdx
    9f65:	00 
    9f66:	48 8d 05 93 58 01 00 	lea    0x15893(%rip),%rax        # 1f800 <g_685>
    9f6d:	48 8b 04 02          	mov    (%rdx,%rax,1),%rax
    9f71:	48 39 85 30 f0 ff ff 	cmp    %rax,-0xfd0(%rbp)
    9f78:	48 8b 9d 38 f0 ff ff 	mov    -0xfc8(%rbp),%rbx
    9f7f:	be cc ad bd d6       	mov    $0xd6bdadcc,%esi
    9f84:	bf 00 00 00 00       	mov    $0x0,%edi
    9f89:	e8 2a cf ff ff       	callq  6eb8 <safe_add_func_uint32_t_u_u>
    9f8e:	8b 95 68 ee ff ff    	mov    -0x1198(%rbp),%edx
    9f94:	39 d0                	cmp    %edx,%eax
    9f96:	0f 94 c0             	sete   %al
    9f99:	0f b6 c0             	movzbl %al,%eax
    9f9c:	48 89 de             	mov    %rbx,%rsi
    9f9f:	48 89 c7             	mov    %rax,%rdi
    9fa2:	e8 d9 d0 ff ff       	callq  7080 <safe_mod_func_uint64_t_u_u>
    9fa7:	0f b6 c0             	movzbl %al,%eax
    9faa:	be 06 00 00 00       	mov    $0x6,%esi
    9faf:	89 c7                	mov    %eax,%edi
    9fb1:	e8 08 cd ff ff       	callq  6cbe <safe_rshift_func_uint8_t_u_u>
    9fb6:	8b 05 f8 42 01 00    	mov    0x142f8(%rip),%eax        # 1e2b4 <g_580>
    9fbc:	89 85 c4 ee ff ff    	mov    %eax,-0x113c(%rbp)
    9fc2:	be 54 4f 00 00       	mov    $0x4f54,%esi
    9fc7:	bf 00 00 00 00       	mov    $0x0,%edi
    9fcc:	e8 4e cd ff ff       	callq  6d1f <safe_sub_func_uint16_t_u_u>
    9fd1:	8b 85 70 ee ff ff    	mov    -0x1190(%rbp),%eax
    9fd7:	35 7e 2d be 67       	xor    $0x67be2d7e,%eax
    9fdc:	89 c2                	mov    %eax,%edx
    9fde:	8b 85 d4 f5 ff ff    	mov    -0xa2c(%rbp),%eax
    9fe4:	89 85 a8 ef ff ff    	mov    %eax,-0x1058(%rbp)
    9fea:	8b 85 a8 ef ff ff    	mov    -0x1058(%rbp),%eax
    9ff0:	89 d6                	mov    %edx,%esi
    9ff2:	89 c7                	mov    %eax,%edi
    9ff4:	e8 0c c6 ff ff       	callq  6605 <safe_sub_func_int32_t_s_s>
    9ff9:	8b 85 68 ee ff ff    	mov    -0x1198(%rbp),%eax
    9fff:	0f b7 d0             	movzwl %ax,%edx
    a002:	48 8b 85 c0 ef ff ff 	mov    -0x1040(%rbp),%rax
    a009:	8b 00                	mov    (%rax),%eax
    a00b:	0f b7 c0             	movzwl %ax,%eax
    a00e:	89 d6                	mov    %edx,%esi
    a010:	89 c7                	mov    %eax,%edi
    a012:	e8 26 cd ff ff       	callq  6d3d <safe_mul_func_uint16_t_u_u>
    a017:	c7 85 e0 fb ff ff 00 	movl   $0x0,-0x420(%rbp)
    a01e:	00 00 00 
    a021:	8b 85 e0 fb ff ff    	mov    -0x420(%rbp),%eax
    a027:	0f be c0             	movsbl %al,%eax
    a02a:	be 06 00 00 00       	mov    $0x6,%esi
    a02f:	89 c7                	mov    %eax,%edi
    a031:	e8 bc c1 ff ff       	callq  61f2 <safe_sub_func_int8_t_s_s>
    a036:	0f be c0             	movsbl %al,%eax
    a039:	89 85 08 ef ff ff    	mov    %eax,-0x10f8(%rbp)
    a03f:	0f b6 05 06 40 01 00 	movzbl 0x14006(%rip),%eax        # 1e04c <g_90>
    a046:	83 c0 01             	add    $0x1,%eax
    a049:	88 05 fd 3f 01 00    	mov    %al,0x13ffd(%rip)        # 1e04c <g_90>
    a04f:	0f b6 05 f6 3f 01 00 	movzbl 0x13ff6(%rip),%eax        # 1e04c <g_90>
    a056:	3c 04                	cmp    $0x4,%al
    a058:	0f 86 a6 fe ff ff    	jbe    9f04 <func_12+0x1fe1>
    a05e:	eb 01                	jmp    a061 <func_12+0x213e>
    a060:	90                   	nop
    a061:	0f b6 85 8e ee ff ff 	movzbl -0x1172(%rbp),%eax
    a068:	83 c0 01             	add    $0x1,%eax
    a06b:	88 85 8e ee ff ff    	mov    %al,-0x1172(%rbp)
    a071:	0f b6 85 8e ee ff ff 	movzbl -0x1172(%rbp),%eax
    a078:	3c 03                	cmp    $0x3,%al
    a07a:	0f 86 fb fd ff ff    	jbe    9e7b <func_12+0x1f58>
    a080:	48 8b 05 61 41 01 00 	mov    0x14161(%rip),%rax        # 1e1e8 <g_174>
    a087:	48 83 c0 01          	add    $0x1,%rax
    a08b:	48 89 05 56 41 01 00 	mov    %rax,0x14156(%rip)        # 1e1e8 <g_174>
    a092:	48 8b 05 4f 41 01 00 	mov    0x1414f(%rip),%rax        # 1e1e8 <g_174>
    a099:	48 83 f8 04          	cmp    $0x4,%rax
    a09d:	0f 86 ad fd ff ff    	jbe    9e50 <func_12+0x1f2d>
    a0a3:	48 8b 05 ce 6c 01 00 	mov    0x16cce(%rip),%rax        # 20d78 <g_2565>
    a0aa:	48 89 05 c7 6c 01 00 	mov    %rax,0x16cc7(%rip)        # 20d78 <g_2565>
    a0b1:	e9 66 02 00 00       	jmpq   a31c <func_12+0x23f9>
    a0b6:	48 8d 05 53 66 01 00 	lea    0x16653(%rip),%rax        # 20710 <g_1644>
    a0bd:	48 89 85 c8 ef ff ff 	mov    %rax,-0x1038(%rbp)
    a0c4:	48 c7 85 50 fb ff ff 	movq   $0x0,-0x4b0(%rbp)
    a0cb:	00 00 00 00 
    a0cf:	48 8d 05 0a 01 01 00 	lea    0x1010a(%rip),%rax        # 1a1e0 <g_19+0x180>
    a0d6:	48 89 85 58 fb ff ff 	mov    %rax,-0x4a8(%rbp)
    a0dd:	48 8d 05 fc 00 01 00 	lea    0x100fc(%rip),%rax        # 1a1e0 <g_19+0x180>
    a0e4:	48 89 85 60 fb ff ff 	mov    %rax,-0x4a0(%rbp)
    a0eb:	48 c7 85 68 fb ff ff 	movq   $0x0,-0x498(%rbp)
    a0f2:	00 00 00 00 
    a0f6:	48 8d 05 e3 00 01 00 	lea    0x100e3(%rip),%rax        # 1a1e0 <g_19+0x180>
    a0fd:	48 89 85 70 fb ff ff 	mov    %rax,-0x490(%rbp)
    a104:	48 8d 05 d5 00 01 00 	lea    0x100d5(%rip),%rax        # 1a1e0 <g_19+0x180>
    a10b:	48 89 85 78 fb ff ff 	mov    %rax,-0x488(%rbp)
    a112:	48 8d 05 c7 00 01 00 	lea    0x100c7(%rip),%rax        # 1a1e0 <g_19+0x180>
    a119:	48 89 85 80 fb ff ff 	mov    %rax,-0x480(%rbp)
    a120:	48 c7 85 88 fb ff ff 	movq   $0x0,-0x478(%rbp)
    a127:	00 00 00 00 
    a12b:	48 8d 05 ae 00 01 00 	lea    0x100ae(%rip),%rax        # 1a1e0 <g_19+0x180>
    a132:	48 89 85 90 fb ff ff 	mov    %rax,-0x470(%rbp)
    a139:	48 8d 05 a0 00 01 00 	lea    0x100a0(%rip),%rax        # 1a1e0 <g_19+0x180>
    a140:	48 89 85 98 fb ff ff 	mov    %rax,-0x468(%rbp)
    a147:	48 8d 05 f6 41 01 00 	lea    0x141f6(%rip),%rax        # 1e344 <g_2441>
    a14e:	48 89 85 a0 fb ff ff 	mov    %rax,-0x460(%rbp)
    a155:	48 8d 05 84 00 01 00 	lea    0x10084(%rip),%rax        # 1a1e0 <g_19+0x180>
    a15c:	48 89 85 a8 fb ff ff 	mov    %rax,-0x458(%rbp)
    a163:	48 8d 05 da 41 01 00 	lea    0x141da(%rip),%rax        # 1e344 <g_2441>
    a16a:	48 89 85 b0 fb ff ff 	mov    %rax,-0x450(%rbp)
    a171:	48 8d 05 cc 41 01 00 	lea    0x141cc(%rip),%rax        # 1e344 <g_2441>
    a178:	48 89 85 b8 fb ff ff 	mov    %rax,-0x448(%rbp)
    a17f:	48 8d 05 5a 00 01 00 	lea    0x1005a(%rip),%rax        # 1a1e0 <g_19+0x180>
    a186:	48 89 85 c0 fb ff ff 	mov    %rax,-0x440(%rbp)
    a18d:	48 8d 05 4c 00 01 00 	lea    0x1004c(%rip),%rax        # 1a1e0 <g_19+0x180>
    a194:	48 89 85 c8 fb ff ff 	mov    %rax,-0x438(%rbp)
    a19b:	48 8d 05 a2 41 01 00 	lea    0x141a2(%rip),%rax        # 1e344 <g_2441>
    a1a2:	48 89 85 d0 fb ff ff 	mov    %rax,-0x430(%rbp)
    a1a9:	48 8d 05 94 41 01 00 	lea    0x14194(%rip),%rax        # 1e344 <g_2441>
    a1b0:	48 89 85 d8 fb ff ff 	mov    %rax,-0x428(%rbp)
    a1b7:	48 8d 05 22 00 01 00 	lea    0x10022(%rip),%rax        # 1a1e0 <g_19+0x180>
    a1be:	48 89 85 e0 fb ff ff 	mov    %rax,-0x420(%rbp)
    a1c5:	48 8d 05 78 41 01 00 	lea    0x14178(%rip),%rax        # 1e344 <g_2441>
    a1cc:	48 89 85 e8 fb ff ff 	mov    %rax,-0x418(%rbp)
    a1d3:	48 8d 05 06 00 01 00 	lea    0x10006(%rip),%rax        # 1a1e0 <g_19+0x180>
    a1da:	48 89 85 f0 fb ff ff 	mov    %rax,-0x410(%rbp)
    a1e1:	48 8d 05 f8 ff 00 00 	lea    0xfff8(%rip),%rax        # 1a1e0 <g_19+0x180>
    a1e8:	48 89 85 f8 fb ff ff 	mov    %rax,-0x408(%rbp)
    a1ef:	48 c7 85 00 fc ff ff 	movq   $0x0,-0x400(%rbp)
    a1f6:	00 00 00 00 
    a1fa:	48 8d 05 df ff 00 00 	lea    0xffdf(%rip),%rax        # 1a1e0 <g_19+0x180>
    a201:	48 89 85 08 fc ff ff 	mov    %rax,-0x3f8(%rbp)
    a208:	48 8d 05 d1 ff 00 00 	lea    0xffd1(%rip),%rax        # 1a1e0 <g_19+0x180>
    a20f:	48 89 85 10 fc ff ff 	mov    %rax,-0x3f0(%rbp)
    a216:	48 8d 05 27 41 01 00 	lea    0x14127(%rip),%rax        # 1e344 <g_2441>
    a21d:	48 89 85 18 fc ff ff 	mov    %rax,-0x3e8(%rbp)
    a224:	48 8d 05 b5 ff 00 00 	lea    0xffb5(%rip),%rax        # 1a1e0 <g_19+0x180>
    a22b:	48 89 85 20 fc ff ff 	mov    %rax,-0x3e0(%rbp)
    a232:	48 8d 05 0b 41 01 00 	lea    0x1410b(%rip),%rax        # 1e344 <g_2441>
    a239:	48 89 85 28 fc ff ff 	mov    %rax,-0x3d8(%rbp)
    a240:	48 8d 05 fd 40 01 00 	lea    0x140fd(%rip),%rax        # 1e344 <g_2441>
    a247:	48 89 85 30 fc ff ff 	mov    %rax,-0x3d0(%rbp)
    a24e:	48 8d 05 8b ff 00 00 	lea    0xff8b(%rip),%rax        # 1a1e0 <g_19+0x180>
    a255:	48 89 85 38 fc ff ff 	mov    %rax,-0x3c8(%rbp)
    a25c:	66 c7 05 7b 3f 01 00 	movw   $0x0,0x13f7b(%rip)        # 1e1e0 <g_131>
    a263:	00 00 
    a265:	e9 95 00 00 00       	jmpq   a2ff <func_12+0x23dc>
    a26a:	c7 85 f0 ee ff ff 00 	movl   $0x0,-0x1110(%rbp)
    a271:	00 00 00 
    a274:	eb 52                	jmp    a2c8 <func_12+0x23a5>
    a276:	c7 85 f4 ee ff ff 00 	movl   $0x0,-0x110c(%rbp)
    a27d:	00 00 00 
    a280:	eb 36                	jmp    a2b8 <func_12+0x2395>
    a282:	8b 85 f4 ee ff ff    	mov    -0x110c(%rbp),%eax
    a288:	48 63 c8             	movslq %eax,%rcx
    a28b:	8b 85 f0 ee ff ff    	mov    -0x1110(%rbp),%eax
    a291:	48 63 d0             	movslq %eax,%rdx
    a294:	48 89 d0             	mov    %rdx,%rax
    a297:	48 c1 e0 03          	shl    $0x3,%rax
    a29b:	48 29 d0             	sub    %rdx,%rax
    a29e:	48 8d 14 08          	lea    (%rax,%rcx,1),%rdx
    a2a2:	48 8d 85 c8 ef ff ff 	lea    -0x1038(%rbp),%rax
    a2a9:	48 89 84 d5 d0 f7 ff 	mov    %rax,-0x830(%rbp,%rdx,8)
    a2b0:	ff 
    a2b1:	83 85 f4 ee ff ff 01 	addl   $0x1,-0x110c(%rbp)
    a2b8:	83 bd f4 ee ff ff 06 	cmpl   $0x6,-0x110c(%rbp)
    a2bf:	7e c1                	jle    a282 <func_12+0x235f>
    a2c1:	83 85 f0 ee ff ff 01 	addl   $0x1,-0x1110(%rbp)
    a2c8:	83 bd f0 ee ff ff 02 	cmpl   $0x2,-0x1110(%rbp)
    a2cf:	7e a5                	jle    a276 <func_12+0x2353>
    a2d1:	48 8b 85 c8 ef ff ff 	mov    -0x1038(%rbp),%rax
    a2d8:	48 89 05 59 64 01 00 	mov    %rax,0x16459(%rip)        # 20738 <g_2572>
    a2df:	0f b7 05 fa 3e 01 00 	movzwl 0x13efa(%rip),%eax        # 1e1e0 <g_131>
    a2e6:	0f b6 c0             	movzbl %al,%eax
    a2e9:	be 04 00 00 00       	mov    $0x4,%esi
    a2ee:	89 c7                	mov    %eax,%edi
    a2f0:	e8 65 c8 ff ff       	callq  6b5a <safe_add_func_uint8_t_u_u>
    a2f5:	0f b6 c0             	movzbl %al,%eax
    a2f8:	66 89 05 e1 3e 01 00 	mov    %ax,0x13ee1(%rip)        # 1e1e0 <g_131>
    a2ff:	0f b7 05 da 3e 01 00 	movzwl 0x13eda(%rip),%eax        # 1e1e0 <g_131>
    a306:	66 83 f8 0b          	cmp    $0xb,%ax
    a30a:	0f 84 5a ff ff ff    	je     a26a <func_12+0x2347>
    a310:	48 8b 85 28 fc ff ff 	mov    -0x3d8(%rbp),%rax
    a317:	e9 a7 14 00 00       	jmpq   b7c3 <func_12+0x38a0>
    a31c:	8b 85 68 ee ff ff    	mov    -0x1198(%rbp),%eax
    a322:	0f b6 d8             	movzbl %al,%ebx
    a325:	48 8b 05 3c 53 01 00 	mov    0x1533c(%rip),%rax        # 1f668 <g_192>
    a32c:	48 8b 00             	mov    (%rax),%rax
    a32f:	0f b6 00             	movzbl (%rax),%eax
    a332:	84 c0                	test   %al,%al
    a334:	75 43                	jne    a379 <func_12+0x2456>
    a336:	48 8b 85 78 ee ff ff 	mov    -0x1188(%rbp),%rax
    a33d:	8b 00                	mov    (%rax),%eax
    a33f:	89 c7                	mov    %eax,%edi
    a341:	e8 50 c2 ff ff       	callq  6596 <safe_unary_minus_func_int32_t_s>
    a346:	48 8b 85 40 f3 ff ff 	mov    -0xcc0(%rbp),%rax
    a34d:	48 85 c0             	test   %rax,%rax
    a350:	0f 94 c0             	sete   %al
    a353:	0f b6 c0             	movzbl %al,%eax
    a356:	be 07 00 00 00       	mov    $0x7,%esi
    a35b:	89 c7                	mov    %eax,%edi
    a35d:	e8 ea c8 ff ff       	callq  6c4c <safe_lshift_func_uint8_t_u_u>
    a362:	0f b6 c0             	movzbl %al,%eax
    a365:	8b 95 70 ee ff ff    	mov    -0x1190(%rbp),%edx
    a36b:	89 d6                	mov    %edx,%esi
    a36d:	89 c7                	mov    %eax,%edi
    a36f:	e8 b6 c1 ff ff       	callq  652a <safe_rshift_func_int16_t_s_s>
    a374:	66 85 c0             	test   %ax,%ax
    a377:	74 07                	je     a380 <func_12+0x245d>
    a379:	b8 01 00 00 00       	mov    $0x1,%eax
    a37e:	eb 05                	jmp    a385 <func_12+0x2462>
    a380:	b8 00 00 00 00       	mov    $0x0,%eax
    a385:	0f b6 c0             	movzbl %al,%eax
    a388:	89 de                	mov    %ebx,%esi
    a38a:	89 c7                	mov    %eax,%edi
    a38c:	e8 e7 c7 ff ff       	callq  6b78 <safe_sub_func_uint8_t_u_u>
    a391:	48 8b 95 40 f3 ff ff 	mov    -0xcc0(%rbp),%rdx
    a398:	48 8b 85 20 f3 ff ff 	mov    -0xce0(%rbp),%rax
    a39f:	48 39 c2             	cmp    %rax,%rdx
    a3a2:	0f 94 c2             	sete   %dl
    a3a5:	48 8b 05 84 63 01 00 	mov    0x16384(%rip),%rax        # 20730 <g_2331>
    a3ac:	88 10                	mov    %dl,(%rax)
    a3ae:	0f b6 45 bf          	movzbl -0x41(%rbp),%eax
    a3b2:	48 0f be c0          	movsbq %al,%rax
    a3b6:	48 89 85 88 ef ff ff 	mov    %rax,-0x1078(%rbp)
    a3bd:	48 8b 85 88 ef ff ff 	mov    -0x1078(%rbp),%rax
    a3c4:	0f b7 d8             	movzwl %ax,%ebx
    a3c7:	48 8b 05 6a 63 01 00 	mov    0x1636a(%rip),%rax        # 20738 <g_2572>
    a3ce:	48 8b 95 f8 ef ff ff 	mov    -0x1008(%rbp),%rdx
    a3d5:	48 8b 12             	mov    (%rdx),%rdx
    a3d8:	48 89 10             	mov    %rdx,(%rax)
    a3db:	48 8b 00             	mov    (%rax),%rax
    a3de:	48 8d 15 23 68 01 00 	lea    0x16823(%rip),%rdx        # 20c08 <g_106>
    a3e5:	48 39 d0             	cmp    %rdx,%rax
    a3e8:	0f 95 c0             	setne  %al
    a3eb:	0f b6 d0             	movzbl %al,%edx
    a3ee:	8b 85 18 f6 ff ff    	mov    -0x9e8(%rbp),%eax
    a3f4:	0f be c0             	movsbl %al,%eax
    a3f7:	89 d6                	mov    %edx,%esi
    a3f9:	89 c7                	mov    %eax,%edi
    a3fb:	e8 12 be ff ff       	callq  6212 <safe_mul_func_int8_t_s_s>
    a400:	48 0f be c0          	movsbq %al,%rax
    a404:	48 89 c6             	mov    %rax,%rsi
    a407:	bf 01 00 00 00       	mov    $0x1,%edi
    a40c:	e8 3a cc ff ff       	callq  704b <safe_sub_func_uint64_t_u_u>
    a411:	0f b7 c0             	movzwl %ax,%eax
    a414:	89 de                	mov    %ebx,%esi
    a416:	89 c7                	mov    %eax,%edi
    a418:	e8 02 c9 ff ff       	callq  6d1f <safe_sub_func_uint16_t_u_u>
    a41d:	0f b7 d0             	movzwl %ax,%edx
    a420:	8b 85 68 ee ff ff    	mov    -0x1198(%rbp),%eax
    a426:	39 c2                	cmp    %eax,%edx
    a428:	73 09                	jae    a433 <func_12+0x2510>
    a42a:	83 bd 70 ee ff ff 00 	cmpl   $0x0,-0x1190(%rbp)
    a431:	74 07                	je     a43a <func_12+0x2517>
    a433:	ba 01 00 00 00       	mov    $0x1,%edx
    a438:	eb 05                	jmp    a43f <func_12+0x251c>
    a43a:	ba 00 00 00 00       	mov    $0x0,%edx
    a43f:	48 8b 05 52 53 01 00 	mov    0x15352(%rip),%rax        # 1f798 <g_553>
    a446:	48 8b 00             	mov    (%rax),%rax
    a449:	48 8b 00             	mov    (%rax),%rax
    a44c:	89 10                	mov    %edx,(%rax)
    a44e:	be 60 89 ff ff       	mov    $0xffff8960,%esi
    a453:	bf 31 5d 00 00       	mov    $0x5d31,%edi
    a458:	e8 56 bf ff ff       	callq  63b3 <safe_add_func_int16_t_s_s>
    a45d:	0f b6 c0             	movzbl %al,%eax
    a460:	be 02 00 00 00       	mov    $0x2,%esi
    a465:	89 c7                	mov    %eax,%edi
    a467:	e8 e0 c7 ff ff       	callq  6c4c <safe_lshift_func_uint8_t_u_u>
    a46c:	0f b6 d0             	movzbl %al,%edx
    a46f:	0f b6 85 6b f1 ff ff 	movzbl -0xe95(%rbp),%eax
    a476:	0f b6 c0             	movzbl %al,%eax
    a479:	89 d6                	mov    %edx,%esi
    a47b:	89 c7                	mov    %eax,%edi
    a47d:	e8 73 bf ff ff       	callq  63f5 <safe_mul_func_int16_t_s_s>
    a482:	80 bd 74 ee ff ff 01 	cmpb   $0x1,-0x118c(%rbp)
    a489:	0f 97 c0             	seta   %al
    a48c:	0f b6 d0             	movzbl %al,%edx
    a48f:	0f b6 85 74 ee ff ff 	movzbl -0x118c(%rbp),%eax
    a496:	09 d0                	or     %edx,%eax
    a498:	0f b7 d0             	movzwl %ax,%edx
    a49b:	48 8b 85 90 ef ff ff 	mov    -0x1070(%rbp),%rax
    a4a2:	c6 00 00             	movb   $0x0,(%rax)
    a4a5:	83 bd 70 ee ff ff 01 	cmpl   $0x1,-0x1190(%rbp)
    a4ac:	0f 95 c0             	setne  %al
    a4af:	0f b6 c0             	movzbl %al,%eax
    a4b2:	23 85 70 ee ff ff    	and    -0x1190(%rbp),%eax
    a4b8:	89 c1                	mov    %eax,%ecx
    a4ba:	0f b6 85 74 ee ff ff 	movzbl -0x118c(%rbp),%eax
    a4c1:	39 c1                	cmp    %eax,%ecx
    a4c3:	0f 94 c0             	sete   %al
    a4c6:	0f b6 c0             	movzbl %al,%eax
    a4c9:	89 d6                	mov    %edx,%esi
    a4cb:	89 c7                	mov    %eax,%edi
    a4cd:	e8 2d c8 ff ff       	callq  6cff <safe_add_func_uint16_t_u_u>
    a4d2:	66 85 c0             	test   %ax,%ax
    a4d5:	0f 95 c0             	setne  %al
    a4d8:	0f b6 d0             	movzbl %al,%edx
    a4db:	0f b6 85 74 ee ff ff 	movzbl -0x118c(%rbp),%eax
    a4e2:	39 c2                	cmp    %eax,%edx
    a4e4:	0f 9d c0             	setge  %al
    a4e7:	0f b6 c0             	movzbl %al,%eax
    a4ea:	be 7b 4e 78 2e       	mov    $0x2e784e7b,%esi
    a4ef:	89 c7                	mov    %eax,%edi
    a4f1:	e8 c0 c0 ff ff       	callq  65b6 <safe_add_func_int32_t_s_s>
    a4f6:	89 05 4c 3e 01 00    	mov    %eax,0x13e4c(%rip)        # 1e348 <g_2612>
    a4fc:	8b 05 46 3e 01 00    	mov    0x13e46(%rip),%eax        # 1e348 <g_2612>
    a502:	85 c0                	test   %eax,%eax
    a504:	0f 84 25 0f 00 00    	je     b42f <func_12+0x350c>
    a50a:	48 8d 05 27 51 01 00 	lea    0x15127(%rip),%rax        # 1f638 <g_39+0x18>
    a511:	48 89 85 b0 f0 ff ff 	mov    %rax,-0xf50(%rbp)
    a518:	48 c7 85 a0 ef ff ff 	movq   $0x0,-0x1060(%rbp)
    a51f:	00 00 00 00 
    a523:	c7 85 a0 ef ff ff 2f 	movl   $0x4fa4222f,-0x1060(%rbp)
    a52a:	22 a4 4f 
    a52d:	48 b8 6e ce aa d6 a1 	movabs $0x212b29a1d6aace6e,%rax
    a534:	29 2b 21 
    a537:	48 89 85 a0 f2 ff ff 	mov    %rax,-0xd60(%rbp)
    a53e:	48 bb 05 e6 dd 29 f3 	movabs $0x424657f329dde605,%rbx
    a545:	57 46 42 
    a548:	48 89 9d a8 f2 ff ff 	mov    %rbx,-0xd58(%rbp)
    a54f:	48 89 85 b0 f2 ff ff 	mov    %rax,-0xd50(%rbp)
    a556:	48 89 9d b8 f2 ff ff 	mov    %rbx,-0xd48(%rbp)
    a55d:	48 89 85 c0 f2 ff ff 	mov    %rax,-0xd40(%rbp)
    a564:	48 89 9d c8 f2 ff ff 	mov    %rbx,-0xd38(%rbp)
    a56b:	48 89 85 d0 f2 ff ff 	mov    %rax,-0xd30(%rbp)
    a572:	48 89 9d d8 f2 ff ff 	mov    %rbx,-0xd28(%rbp)
    a579:	48 89 85 e0 f2 ff ff 	mov    %rax,-0xd20(%rbp)
    a580:	48 c7 85 a8 ef ff ff 	movq   $0x0,-0x1058(%rbp)
    a587:	00 00 00 00 
    a58b:	c6 85 a8 ef ff ff af 	movb   $0xaf,-0x1058(%rbp)
    a592:	c6 85 97 ee ff ff cc 	movb   $0xcc,-0x1169(%rbp)
    a599:	c7 85 4c ef ff ff 01 	movl   $0x1,-0x10b4(%rbp)
    a5a0:	00 00 00 
    a5a3:	c6 85 8f ee ff ff fa 	movb   $0xfa,-0x1171(%rbp)
    a5aa:	48 8d 85 30 f5 ff ff 	lea    -0xad0(%rbp),%rax
    a5b1:	48 05 e8 00 00 00    	add    $0xe8,%rax
    a5b7:	48 89 85 d0 ef ff ff 	mov    %rax,-0x1030(%rbp)
    a5be:	c7 85 50 ef ff ff 01 	movl   $0x1,-0x10b0(%rbp)
    a5c5:	00 00 00 
    a5c8:	c7 85 c0 ee ff ff ff 	movl   $0xffffffff,-0x1140(%rbp)
    a5cf:	ff ff ff 
    a5d2:	c7 85 a4 ee ff ff b0 	movl   $0x21ac7ab0,-0x115c(%rbp)
    a5d9:	7a ac 21 
    a5dc:	c7 85 54 ef ff ff c6 	movl   $0xb51eb5c6,-0x10ac(%rbp)
    a5e3:	b5 1e b5 
    a5e6:	48 8d 05 23 66 01 00 	lea    0x16623(%rip),%rax        # 20c10 <g_272>
    a5ed:	48 89 85 b8 f0 ff ff 	mov    %rax,-0xf48(%rbp)
    a5f4:	48 c7 85 c0 f0 ff ff 	movq   $0x0,-0xf40(%rbp)
    a5fb:	00 00 00 00 
    a5ff:	c7 85 58 ef ff ff f7 	movl   $0xfffffff7,-0x10a8(%rbp)
    a606:	ff ff ff 
    a609:	c7 85 b0 ee ff ff 00 	movl   $0x0,-0x1150(%rbp)
    a610:	00 00 00 
    a613:	eb 1e                	jmp    a633 <func_12+0x2710>
    a615:	8b 85 b0 ee ff ff    	mov    -0x1150(%rbp),%eax
    a61b:	48 98                	cltq   
    a61d:	48 8d 95 90 ef ff ff 	lea    -0x1070(%rbp),%rdx
    a624:	48 89 94 c5 f0 f1 ff 	mov    %rdx,-0xe10(%rbp,%rax,8)
    a62b:	ff 
    a62c:	83 85 b0 ee ff ff 01 	addl   $0x1,-0x1150(%rbp)
    a633:	83 bd b0 ee ff ff 00 	cmpl   $0x0,-0x1150(%rbp)
    a63a:	7e d9                	jle    a615 <func_12+0x26f2>
    a63c:	c6 05 e5 3c 01 00 00 	movb   $0x0,0x13ce5(%rip)        # 1e328 <g_1151>
    a643:	90                   	nop
    a644:	0f b6 05 dd 3c 01 00 	movzbl 0x13cdd(%rip),%eax        # 1e328 <g_1151>
    a64b:	3c 01                	cmp    $0x1,%al
    a64d:	7f 17                	jg     a666 <func_12+0x2743>
    a64f:	48 c7 85 58 f1 ff ff 	movq   $0x0,-0xea8(%rbp)
    a656:	00 00 00 00 
    a65a:	48 8b 85 58 f1 ff ff 	mov    -0xea8(%rbp),%rax
    a661:	e9 5d 11 00 00       	jmpq   b7c3 <func_12+0x38a0>
    a666:	48 8b 85 b0 f0 ff ff 	mov    -0xf50(%rbp),%rax
    a66d:	48 8b 95 78 ee ff ff 	mov    -0x1188(%rbp),%rdx
    a674:	48 89 10             	mov    %rdx,(%rax)
    a677:	c6 85 90 ee ff ff 10 	movb   $0x10,-0x1170(%rbp)
    a67e:	e9 ac 01 00 00       	jmpq   a82f <func_12+0x290c>
    a683:	48 8d 85 9c ee ff ff 	lea    -0x1164(%rbp),%rax
    a68a:	48 89 85 c8 f0 ff ff 	mov    %rax,-0xf38(%rbp)
    a691:	48 8d 05 f8 65 01 00 	lea    0x165f8(%rip),%rax        # 20c90 <g_1163+0x30>
    a698:	48 89 85 d0 f0 ff ff 	mov    %rax,-0xf30(%rbp)
    a69f:	48 8d 05 42 3b 01 00 	lea    0x13b42(%rip),%rax        # 1e1e8 <g_174>
    a6a6:	48 89 85 d8 f0 ff ff 	mov    %rax,-0xf28(%rbp)
    a6ad:	48 8d 05 50 3b 01 00 	lea    0x13b50(%rip),%rax        # 1e204 <g_196+0x4>
    a6b4:	48 89 85 e0 f0 ff ff 	mov    %rax,-0xf20(%rbp)
    a6bb:	48 8d 05 f6 3b 01 00 	lea    0x13bf6(%rip),%rax        # 1e2b8 <g_583>
    a6c2:	48 89 85 e8 f0 ff ff 	mov    %rax,-0xf18(%rbp)
    a6c9:	48 8b 85 d0 f0 ff ff 	mov    -0xf30(%rbp),%rax
    a6d0:	48 8b 95 c8 f0 ff ff 	mov    -0xf38(%rbp),%rdx
    a6d7:	48 89 10             	mov    %rdx,(%rax)
    a6da:	80 bd 92 ee ff ff 00 	cmpb   $0x0,-0x116e(%rbp)
    a6e1:	0f 85 57 01 00 00    	jne    a83e <func_12+0x291b>
    a6e7:	48 8b 85 e0 f0 ff ff 	mov    -0xf20(%rbp),%rax
    a6ee:	0f b7 00             	movzwl (%rax),%eax
    a6f1:	8d 50 ff             	lea    -0x1(%rax),%edx
    a6f4:	48 8b 85 e0 f0 ff ff 	mov    -0xf20(%rbp),%rax
    a6fb:	66 89 10             	mov    %dx,(%rax)
    a6fe:	48 8b 85 e0 f0 ff ff 	mov    -0xf20(%rbp),%rax
    a705:	0f b7 00             	movzwl (%rax),%eax
    a708:	0f bf d0             	movswl %ax,%edx
    a70b:	48 8b 85 c8 f0 ff ff 	mov    -0xf38(%rbp),%rax
    a712:	c7 00 00 00 00 00    	movl   $0x0,(%rax)
    a718:	48 8b 85 d8 f0 ff ff 	mov    -0xf28(%rbp),%rax
    a71f:	48 8b 00             	mov    (%rax),%rax
    a722:	48 8d 70 01          	lea    0x1(%rax),%rsi
    a726:	48 8b 8d d8 f0 ff ff 	mov    -0xf28(%rbp),%rcx
    a72d:	48 89 31             	mov    %rsi,(%rcx)
    a730:	48 85 c0             	test   %rax,%rax
    a733:	0f 94 c0             	sete   %al
    a736:	0f b6 c0             	movzbl %al,%eax
    a739:	89 d6                	mov    %edx,%esi
    a73b:	89 c7                	mov    %eax,%edi
    a73d:	e8 91 bc ff ff       	callq  63d3 <safe_sub_func_int16_t_s_s>
    a742:	48 8b 95 e8 f0 ff ff 	mov    -0xf18(%rbp),%rdx
    a749:	48 8b 12             	mov    (%rdx),%rdx
    a74c:	48 0f bf c0          	movswq %ax,%rax
    a750:	48 31 c2             	xor    %rax,%rdx
    a753:	48 8b 85 e8 f0 ff ff 	mov    -0xf18(%rbp),%rax
    a75a:	48 89 10             	mov    %rdx,(%rax)
    a75d:	48 8b 85 e8 f0 ff ff 	mov    -0xf18(%rbp),%rax
    a764:	48 8b 00             	mov    (%rax),%rax
    a767:	48 89 c2             	mov    %rax,%rdx
    a76a:	0f b6 85 74 ee ff ff 	movzbl -0x118c(%rbp),%eax
    a771:	48 89 d6             	mov    %rdx,%rsi
    a774:	48 89 c7             	mov    %rax,%rdi
    a777:	e8 33 c9 ff ff       	callq  70af <safe_div_func_uint64_t_u_u>
    a77c:	48 85 c0             	test   %rax,%rax
    a77f:	75 0b                	jne    a78c <func_12+0x2869>
    a781:	48 8b 85 c8 f0 ff ff 	mov    -0xf38(%rbp),%rax
    a788:	8b 00                	mov    (%rax),%eax
    a78a:	85 c0                	test   %eax,%eax
    a78c:	90                   	nop
    a78d:	44 8b ad 68 ee ff ff 	mov    -0x1198(%rbp),%r13d
    a794:	48 8b 85 08 f0 ff ff 	mov    -0xff8(%rbp),%rax
    a79b:	0f b7 d8             	movzwl %ax,%ebx
    a79e:	48 8b 85 d0 f2 ff ff 	mov    -0xd30(%rbp),%rax
    a7a5:	44 0f bf e0          	movswl %ax,%r12d
    a7a9:	48 8b 05 b0 4e 01 00 	mov    0x14eb0(%rip),%rax        # 1f660 <g_193>
    a7b0:	0f b6 00             	movzbl (%rax),%eax
    a7b3:	0f b6 d0             	movzbl %al,%edx
    a7b6:	8b 85 04 ef ff ff    	mov    -0x10fc(%rbp),%eax
    a7bc:	0f b6 c0             	movzbl %al,%eax
    a7bf:	89 d6                	mov    %edx,%esi
    a7c1:	89 c7                	mov    %eax,%edi
    a7c3:	e8 13 c4 ff ff       	callq  6bdb <safe_div_func_uint8_t_u_u>
    a7c8:	0f b6 c0             	movzbl %al,%eax
    a7cb:	44 89 e6             	mov    %r12d,%esi
    a7ce:	89 c7                	mov    %eax,%edi
    a7d0:	e8 20 bc ff ff       	callq  63f5 <safe_mul_func_int16_t_s_s>
    a7d5:	0f b7 c0             	movzwl %ax,%eax
    a7d8:	89 de                	mov    %ebx,%esi
    a7da:	89 c7                	mov    %eax,%edi
    a7dc:	e8 1e c5 ff ff       	callq  6cff <safe_add_func_uint16_t_u_u>
    a7e1:	0f b7 c0             	movzwl %ax,%eax
    a7e4:	44 21 e8             	and    %r13d,%eax
    a7e7:	85 c0                	test   %eax,%eax
    a7e9:	75 0b                	jne    a7f6 <func_12+0x28d3>
    a7eb:	48 8b 85 78 ee ff ff 	mov    -0x1188(%rbp),%rax
    a7f2:	8b 00                	mov    (%rax),%eax
    a7f4:	85 c0                	test   %eax,%eax
    a7f6:	be f5 12 b2 90       	mov    $0x90b212f5,%esi
    a7fb:	bf 00 00 00 00       	mov    $0x0,%edi
    a800:	e8 fa be ff ff       	callq  66ff <safe_div_func_int32_t_s_s>
    a805:	85 c0                	test   %eax,%eax
    a807:	0f 94 c2             	sete   %dl
    a80a:	48 8b 05 17 50 01 00 	mov    0x15017(%rip),%rax        # 1f828 <g_840>
    a811:	0f b6 d2             	movzbl %dl,%edx
    a814:	89 10                	mov    %edx,(%rax)
    a816:	0f be 85 90 ee ff ff 	movsbl -0x1170(%rbp),%eax
    a81d:	be 09 00 00 00       	mov    $0x9,%esi
    a822:	89 c7                	mov    %eax,%edi
    a824:	e8 8f c6 ff ff       	callq  6eb8 <safe_add_func_uint32_t_u_u>
    a829:	88 85 90 ee ff ff    	mov    %al,-0x1170(%rbp)
    a82f:	80 bd 90 ee ff ff 1a 	cmpb   $0x1a,-0x1170(%rbp)
    a836:	0f 8f 47 fe ff ff    	jg     a683 <func_12+0x2760>
    a83c:	eb 01                	jmp    a83f <func_12+0x291c>
    a83e:	90                   	nop
    a83f:	48 c7 85 88 ef ff ff 	movq   $0x0,-0x1078(%rbp)
    a846:	00 00 00 00 
    a84a:	90                   	nop
    a84b:	48 8b 85 88 ef ff ff 	mov    -0x1078(%rbp),%rax
    a852:	48 83 f8 35          	cmp    $0x35,%rax
    a856:	0f 87 60 0f 00 00    	ja     b7bc <func_12+0x3899>
    a85c:	48 8d 05 8d 63 01 00 	lea    0x1638d(%rip),%rax        # 20bf0 <g_87>
    a863:	48 89 85 f0 f0 ff ff 	mov    %rax,-0xf10(%rbp)
    a86a:	48 c7 85 f8 f0 ff ff 	movq   $0x0,-0xf08(%rbp)
    a871:	00 00 00 00 
    a875:	48 c7 85 00 f1 ff ff 	movq   $0x0,-0xf00(%rbp)
    a87c:	00 00 00 00 
    a880:	c7 85 b4 ee ff ff cc 	movl   $0xa80779cc,-0x114c(%rbp)
    a887:	79 07 a8 
    a88a:	48 8d 85 30 f5 ff ff 	lea    -0xad0(%rbp),%rax
    a891:	48 05 e8 00 00 00    	add    $0xe8,%rax
    a897:	48 89 85 08 f1 ff ff 	mov    %rax,-0xef8(%rbp)
    a89e:	48 8d 85 d0 f7 ff ff 	lea    -0x830(%rbp),%rax
    a8a5:	48 8d 15 d4 fe 00 00 	lea    0xfed4(%rip),%rdx        # 1a780 <g_2104+0x404>
    a8ac:	b9 70 00 00 00       	mov    $0x70,%ecx
    a8b1:	48 89 c7             	mov    %rax,%rdi
    a8b4:	48 89 d6             	mov    %rdx,%rsi
    a8b7:	f3 48 a5             	rep movsq %ds:(%rsi),%es:(%rdi)
    a8ba:	c7 85 a8 ee ff ff df 	movl   $0xb2d896df,-0x1158(%rbp)
    a8c1:	96 d8 b2 
    a8c4:	48 8d 85 50 fb ff ff 	lea    -0x4b0(%rbp),%rax
    a8cb:	48 8d 15 2e 02 01 00 	lea    0x1022e(%rip),%rdx        # 1ab00 <g_2104+0x784>
    a8d2:	b9 78 00 00 00       	mov    $0x78,%ecx
    a8d7:	48 89 c7             	mov    %rax,%rdi
    a8da:	48 89 d6             	mov    %rdx,%rsi
    a8dd:	f3 48 a5             	rep movsq %ds:(%rsi),%es:(%rdi)
    a8e0:	48 c7 85 b0 ef ff ff 	movq   $0x0,-0x1050(%rbp)
    a8e7:	00 00 00 00 
    a8eb:	c6 85 b0 ef ff ff 01 	movb   $0x1,-0x1050(%rbp)
    a8f2:	48 8d 85 a0 ee ff ff 	lea    -0x1160(%rbp),%rax
    a8f9:	48 89 85 b8 ef ff ff 	mov    %rax,-0x1048(%rbp)
    a900:	48 8d 85 b8 ef ff ff 	lea    -0x1048(%rbp),%rax
    a907:	48 89 85 c0 ef ff ff 	mov    %rax,-0x1040(%rbp)
    a90e:	48 8d 85 c0 ef ff ff 	lea    -0x1040(%rbp),%rax
    a915:	48 89 85 10 f1 ff ff 	mov    %rax,-0xef0(%rbp)
    a91c:	48 8d 05 3d 5e 01 00 	lea    0x15e3d(%rip),%rax        # 20760 <g_2772>
    a923:	48 89 85 18 f1 ff ff 	mov    %rax,-0xee8(%rbp)
    a92a:	c6 85 98 ee ff ff 17 	movb   $0x17,-0x1168(%rbp)
    a931:	8b 85 68 ee ff ff    	mov    -0x1198(%rbp),%eax
    a937:	85 c0                	test   %eax,%eax
    a939:	0f 84 b0 05 00 00    	je     aeef <func_12+0x2fcc>
    a93f:	48 8b 85 f0 f0 ff ff 	mov    -0xf10(%rbp),%rax
    a946:	48 89 05 f3 5d 01 00 	mov    %rax,0x15df3(%rip)        # 20740 <g_2652>
    a94d:	48 8b 05 ec 5d 01 00 	mov    0x15dec(%rip),%rax        # 20740 <g_2652>
    a954:	48 39 85 f8 f0 ff ff 	cmp    %rax,-0xf08(%rbp)
    a95b:	0f 95 c0             	setne  %al
    a95e:	0f b6 d0             	movzbl %al,%edx
    a961:	8b 85 68 ee ff ff    	mov    -0x1198(%rbp),%eax
    a967:	0f b6 c0             	movzbl %al,%eax
    a96a:	89 d6                	mov    %edx,%esi
    a96c:	89 c7                	mov    %eax,%edi
    a96e:	e8 20 c2 ff ff       	callq  6b93 <safe_mul_func_uint8_t_u_u>
    a973:	83 f0 5f             	xor    $0x5f,%eax
    a976:	0f b6 c8             	movzbl %al,%ecx
    a979:	48 8b 85 78 ef ff ff 	mov    -0x1088(%rbp),%rax
    a980:	0f b6 10             	movzbl (%rax),%edx
    a983:	48 8b 85 78 ef ff ff 	mov    -0x1088(%rbp),%rax
    a98a:	21 ca                	and    %ecx,%edx
    a98c:	88 10                	mov    %dl,(%rax)
    a98e:	48 8b 05 b3 4d 01 00 	mov    0x14db3(%rip),%rax        # 1f748 <g_319>
    a995:	48 8b 00             	mov    (%rax),%rax
    a998:	48 39 85 00 f1 ff ff 	cmp    %rax,-0xf00(%rbp)
    a99f:	0f 94 c0             	sete   %al
    a9a2:	0f b6 c0             	movzbl %al,%eax
    a9a5:	48 be 6a f4 d7 60 8c 	movabs $0x5e35c8c60d7f46a,%rsi
    a9ac:	5c e3 05 
    a9af:	48 89 c7             	mov    %rax,%rdi
    a9b2:	e8 fd bf ff ff       	callq  69b4 <safe_mod_func_int64_t_s_s>
    a9b7:	48 85 c0             	test   %rax,%rax
    a9ba:	0f 84 2f 05 00 00    	je     aeef <func_12+0x2fcc>
    a9c0:	c7 85 5c ef ff ff 02 	movl   $0x2,-0x10a4(%rbp)
    a9c7:	00 00 00 
    a9ca:	48 c7 85 20 f1 ff ff 	movq   $0x3,-0xee0(%rbp)
    a9d1:	03 00 00 00 
    a9d5:	48 c7 85 40 f4 ff ff 	movq   $0x0,-0xbc0(%rbp)
    a9dc:	00 00 00 00 
    a9e0:	48 8d 05 89 62 01 00 	lea    0x16289(%rip),%rax        # 20c70 <g_1163+0x10>
    a9e7:	48 89 85 48 f4 ff ff 	mov    %rax,-0xbb8(%rbp)
    a9ee:	48 8d 05 7b 62 01 00 	lea    0x1627b(%rip),%rax        # 20c70 <g_1163+0x10>
    a9f5:	48 89 85 50 f4 ff ff 	mov    %rax,-0xbb0(%rbp)
    a9fc:	48 c7 85 58 f4 ff ff 	movq   $0x0,-0xba8(%rbp)
    aa03:	00 00 00 00 
    aa07:	48 8d 05 1a 4e 01 00 	lea    0x14e1a(%rip),%rax        # 1f828 <g_840>
    aa0e:	48 89 85 60 f4 ff ff 	mov    %rax,-0xba0(%rbp)
    aa15:	48 8d 05 94 62 01 00 	lea    0x16294(%rip),%rax        # 20cb0 <g_1260>
    aa1c:	48 89 85 68 f4 ff ff 	mov    %rax,-0xb98(%rbp)
    aa23:	48 8d 05 5e 63 01 00 	lea    0x1635e(%rip),%rax        # 20d88 <g_2654>
    aa2a:	48 89 85 70 f4 ff ff 	mov    %rax,-0xb90(%rbp)
    aa31:	48 8d 05 50 63 01 00 	lea    0x16350(%rip),%rax        # 20d88 <g_2654>
    aa38:	48 89 85 78 f4 ff ff 	mov    %rax,-0xb88(%rbp)
    aa3f:	48 8d 05 e2 4d 01 00 	lea    0x14de2(%rip),%rax        # 1f828 <g_840>
    aa46:	48 89 85 80 f4 ff ff 	mov    %rax,-0xb80(%rbp)
    aa4d:	48 8d 05 34 63 01 00 	lea    0x16334(%rip),%rax        # 20d88 <g_2654>
    aa54:	48 89 85 88 f4 ff ff 	mov    %rax,-0xb78(%rbp)
    aa5b:	48 8d 05 c6 4d 01 00 	lea    0x14dc6(%rip),%rax        # 1f828 <g_840>
    aa62:	48 89 85 90 f4 ff ff 	mov    %rax,-0xb70(%rbp)
    aa69:	48 c7 85 98 f4 ff ff 	movq   $0x0,-0xb68(%rbp)
    aa70:	00 00 00 00 
    aa74:	48 c7 85 a0 f4 ff ff 	movq   $0x0,-0xb60(%rbp)
    aa7b:	00 00 00 00 
    aa7f:	48 8d 05 a2 4d 01 00 	lea    0x14da2(%rip),%rax        # 1f828 <g_840>
    aa86:	48 89 85 a8 f4 ff ff 	mov    %rax,-0xb58(%rbp)
    aa8d:	48 c7 85 b0 f4 ff ff 	movq   $0x0,-0xb50(%rbp)
    aa94:	00 00 00 00 
    aa98:	48 c7 85 b8 f4 ff ff 	movq   $0x0,-0xb48(%rbp)
    aa9f:	00 00 00 00 
    aaa3:	48 8d 05 7e 4d 01 00 	lea    0x14d7e(%rip),%rax        # 1f828 <g_840>
    aaaa:	48 89 85 c0 f4 ff ff 	mov    %rax,-0xb40(%rbp)
    aab1:	48 8d 05 d0 62 01 00 	lea    0x162d0(%rip),%rax        # 20d88 <g_2654>
    aab8:	48 89 85 c8 f4 ff ff 	mov    %rax,-0xb38(%rbp)
    aabf:	48 8d 05 62 4d 01 00 	lea    0x14d62(%rip),%rax        # 1f828 <g_840>
    aac6:	48 89 85 d0 f4 ff ff 	mov    %rax,-0xb30(%rbp)
    aacd:	48 8d 05 b4 62 01 00 	lea    0x162b4(%rip),%rax        # 20d88 <g_2654>
    aad4:	48 89 85 d8 f4 ff ff 	mov    %rax,-0xb28(%rbp)
    aadb:	48 8d 05 a6 62 01 00 	lea    0x162a6(%rip),%rax        # 20d88 <g_2654>
    aae2:	48 89 85 e0 f4 ff ff 	mov    %rax,-0xb20(%rbp)
    aae9:	48 8d 05 c0 61 01 00 	lea    0x161c0(%rip),%rax        # 20cb0 <g_1260>
    aaf0:	48 89 85 e8 f4 ff ff 	mov    %rax,-0xb18(%rbp)
    aaf7:	48 8d 05 2a 4d 01 00 	lea    0x14d2a(%rip),%rax        # 1f828 <g_840>
    aafe:	48 89 85 f0 f4 ff ff 	mov    %rax,-0xb10(%rbp)
    ab05:	48 c7 85 f8 f4 ff ff 	movq   $0x0,-0xb08(%rbp)
    ab0c:	00 00 00 00 
    ab10:	48 8d 05 59 61 01 00 	lea    0x16159(%rip),%rax        # 20c70 <g_1163+0x10>
    ab17:	48 89 85 00 f5 ff ff 	mov    %rax,-0xb00(%rbp)
    ab1e:	48 8d 05 4b 61 01 00 	lea    0x1614b(%rip),%rax        # 20c70 <g_1163+0x10>
    ab25:	48 89 85 08 f5 ff ff 	mov    %rax,-0xaf8(%rbp)
    ab2c:	48 c7 85 10 f5 ff ff 	movq   $0x0,-0xaf0(%rbp)
    ab33:	00 00 00 00 
    ab37:	48 8d 05 72 61 01 00 	lea    0x16172(%rip),%rax        # 20cb0 <g_1260>
    ab3e:	48 89 85 18 f5 ff ff 	mov    %rax,-0xae8(%rbp)
    ab45:	48 c7 85 20 f5 ff ff 	movq   $0x0,-0xae0(%rbp)
    ab4c:	00 00 00 00 
    ab50:	48 8d 05 d1 4c 01 00 	lea    0x14cd1(%rip),%rax        # 1f828 <g_840>
    ab57:	48 89 85 28 f5 ff ff 	mov    %rax,-0xad8(%rbp)
    ab5e:	48 8d 05 a3 36 01 00 	lea    0x136a3(%rip),%rax        # 1e208 <g_196+0x8>
    ab65:	48 89 85 28 f1 ff ff 	mov    %rax,-0xed8(%rbp)
    ab6c:	44 8b a5 70 ee ff ff 	mov    -0x1190(%rbp),%r12d
    ab73:	8b 85 68 ee ff ff    	mov    -0x1198(%rbp),%eax
    ab79:	0f b6 d8             	movzbl %al,%ebx
    ab7c:	44 8b b5 b4 ee ff ff 	mov    -0x114c(%rbp),%r14d
    ab83:	48 8b 85 20 f1 ff ff 	mov    -0xee0(%rbp),%rax
    ab8a:	44 0f b6 e8          	movzbl %al,%r13d
    ab8e:	48 8b 85 78 ee ff ff 	mov    -0x1188(%rbp),%rax
    ab95:	8b 00                	mov    (%rax),%eax
    ab97:	89 85 64 ee ff ff    	mov    %eax,-0x119c(%rbp)
    ab9d:	48 8b 85 78 ee ff ff 	mov    -0x1188(%rbp),%rax
    aba4:	8b 00                	mov    (%rax),%eax
    aba6:	89 85 60 ee ff ff    	mov    %eax,-0x11a0(%rbp)
    abac:	8b 85 5c ef ff ff    	mov    -0x10a4(%rbp),%eax
    abb2:	89 85 a8 ef ff ff    	mov    %eax,-0x1058(%rbp)
    abb8:	44 8b bd a8 ef ff ff 	mov    -0x1058(%rbp),%r15d
    abbf:	83 bd 70 ee ff ff 00 	cmpl   $0x0,-0x1190(%rbp)
    abc6:	75 59                	jne    ac21 <func_12+0x2cfe>
    abc8:	8b 85 68 ee ff ff    	mov    -0x1198(%rbp),%eax
    abce:	89 c0                	mov    %eax,%eax
    abd0:	48 89 85 58 ee ff ff 	mov    %rax,-0x11a8(%rbp)
    abd7:	bf ec 00 00 00       	mov    $0xec,%edi
    abdc:	e8 64 bf ff ff       	callq  6b45 <safe_unary_minus_func_uint8_t_u>
    abe1:	8b 85 4c ef ff ff    	mov    -0x10b4(%rbp),%eax
    abe7:	22 85 97 ee ff ff    	and    -0x1169(%rbp),%al
    abed:	f7 d0                	not    %eax
    abef:	88 85 8f ee ff ff    	mov    %al,-0x1171(%rbp)
    abf5:	48 0f be 85 8f ee ff 	movsbq -0x1171(%rbp),%rax
    abfc:	ff 
    abfd:	48 8b b5 58 ee ff ff 	mov    -0x11a8(%rbp),%rsi
    ac04:	48 89 c7             	mov    %rax,%rdi
    ac07:	e8 22 c4 ff ff       	callq  702e <safe_add_func_uint64_t_u_u>
    ac0c:	89 c2                	mov    %eax,%edx
    ac0e:	8b 85 68 ee ff ff    	mov    -0x1198(%rbp),%eax
    ac14:	89 d6                	mov    %edx,%esi
    ac16:	89 c7                	mov    %eax,%edi
    ac18:	e8 9b c2 ff ff       	callq  6eb8 <safe_add_func_uint32_t_u_u>
    ac1d:	85 c0                	test   %eax,%eax
    ac1f:	74 07                	je     ac28 <func_12+0x2d05>
    ac21:	b8 01 00 00 00       	mov    $0x1,%eax
    ac26:	eb 05                	jmp    ac2d <func_12+0x2d0a>
    ac28:	b8 00 00 00 00       	mov    $0x0,%eax
    ac2d:	3d fe 00 00 00       	cmp    $0xfe,%eax
    ac32:	0f 97 c0             	seta   %al
    ac35:	0f b6 c0             	movzbl %al,%eax
    ac38:	41 39 c7             	cmp    %eax,%r15d
    ac3b:	0f 9e c0             	setle  %al
    ac3e:	0f b6 d0             	movzbl %al,%edx
    ac41:	0f b6 05 e0 36 01 00 	movzbl 0x136e0(%rip),%eax        # 1e328 <g_1151>
    ac48:	0f be c0             	movsbl %al,%eax
    ac4b:	39 c2                	cmp    %eax,%edx
    ac4d:	0f 9c c0             	setl   %al
    ac50:	0f b6 c0             	movzbl %al,%eax
    ac53:	be 05 00 00 00       	mov    $0x5,%esi
    ac58:	89 c7                	mov    %eax,%edi
    ac5a:	e8 8f b6 ff ff       	callq  62ee <safe_lshift_func_int8_t_s_u>
    ac5f:	89 c2                	mov    %eax,%edx
    ac61:	48 8b 05 c0 4b 01 00 	mov    0x14bc0(%rip),%rax        # 1f828 <g_840>
    ac68:	0f be d2             	movsbl %dl,%edx
    ac6b:	89 10                	mov    %edx,(%rax)
    ac6d:	8b 00                	mov    (%rax),%eax
    ac6f:	85 c0                	test   %eax,%eax
    ac71:	0f 9f c0             	setg   %al
    ac74:	0f b6 c0             	movzbl %al,%eax
    ac77:	8b b5 60 ee ff ff    	mov    -0x11a0(%rbp),%esi
    ac7d:	89 c7                	mov    %eax,%edi
    ac7f:	e8 34 c2 ff ff       	callq  6eb8 <safe_add_func_uint32_t_u_u>
    ac84:	85 c0                	test   %eax,%eax
    ac86:	74 07                	je     ac8f <func_12+0x2d6c>
    ac88:	80 bd 8f ee ff ff 00 	cmpb   $0x0,-0x1171(%rbp)
    ac8f:	8b b5 64 ee ff ff    	mov    -0x119c(%rbp),%esi
    ac95:	bf 01 00 00 00       	mov    $0x1,%edi
    ac9a:	e8 31 c2 ff ff       	callq  6ed0 <safe_sub_func_uint32_t_u_u>
    ac9f:	8b 85 70 ee ff ff    	mov    -0x1190(%rbp),%eax
    aca5:	0f b6 c8             	movzbl %al,%ecx
    aca8:	48 8b 05 69 5a 01 00 	mov    0x15a69(%rip),%rax        # 20718 <g_1881>
    acaf:	48 8b 00             	mov    (%rax),%rax
    acb2:	ba 09 00 00 00       	mov    $0x9,%edx
    acb7:	89 ce                	mov    %ecx,%esi
    acb9:	48 89 c7             	mov    %rax,%rdi
    acbc:	e8 c3 39 00 00       	callq  e684 <func_40>
    acc1:	44 89 f2             	mov    %r14d,%edx
    acc4:	44 89 ee             	mov    %r13d,%esi
    acc7:	48 89 c7             	mov    %rax,%rdi
    acca:	e8 b5 39 00 00       	callq  e684 <func_40>
    accf:	4c 8b 2d 72 5a 01 00 	mov    0x15a72(%rip),%r13        # 20748 <g_2679>
    acd6:	44 89 e2             	mov    %r12d,%edx
    acd9:	89 de                	mov    %ebx,%esi
    acdb:	48 89 c7             	mov    %rax,%rdi
    acde:	e8 a1 39 00 00       	callq  e684 <func_40>
    ace3:	49 89 45 00          	mov    %rax,0x0(%r13)
    ace7:	0f b6 95 74 ee ff ff 	movzbl -0x118c(%rbp),%edx
    acee:	8b 8d a8 ef ff ff    	mov    -0x1058(%rbp),%ecx
    acf4:	0f b6 85 74 ee ff ff 	movzbl -0x118c(%rbp),%eax
    acfb:	21 c8                	and    %ecx,%eax
    acfd:	89 85 a8 ef ff ff    	mov    %eax,-0x1058(%rbp)
    ad03:	8b 85 a8 ef ff ff    	mov    -0x1058(%rbp),%eax
    ad09:	98                   	cwtl   
    ad0a:	89 d6                	mov    %edx,%esi
    ad0c:	89 c7                	mov    %eax,%edi
    ad0e:	e8 c0 b6 ff ff       	callq  63d3 <safe_sub_func_int16_t_s_s>
    ad13:	0f b6 9d 74 ee ff ff 	movzbl -0x118c(%rbp),%ebx
    ad1a:	48 8b 85 90 ef ff ff 	mov    -0x1070(%rbp),%rax
    ad21:	c6 00 00             	movb   $0x0,(%rax)
    ad24:	be fc 00 00 00       	mov    $0xfc,%esi
    ad29:	bf 00 00 00 00       	mov    $0x0,%edi
    ad2e:	e8 7b be ff ff       	callq  6bae <safe_mod_func_uint8_t_u_u>
    ad33:	48 8b 95 28 f1 ff ff 	mov    -0xed8(%rbp),%rdx
    ad3a:	0f b7 12             	movzwl (%rdx),%edx
    ad3d:	0f b6 c0             	movzbl %al,%eax
    ad40:	09 c2                	or     %eax,%edx
    ad42:	48 8b 85 28 f1 ff ff 	mov    -0xed8(%rbp),%rax
    ad49:	66 89 10             	mov    %dx,(%rax)
    ad4c:	48 8b 85 28 f1 ff ff 	mov    -0xed8(%rbp),%rax
    ad53:	0f b7 00             	movzwl (%rax),%eax
    ad56:	0f b7 c0             	movzwl %ax,%eax
    ad59:	89 de                	mov    %ebx,%esi
    ad5b:	89 c7                	mov    %eax,%edi
    ad5d:	e8 db bf ff ff       	callq  6d3d <safe_mul_func_uint16_t_u_u>
    ad62:	48 8b 85 08 f1 ff ff 	mov    -0xef8(%rbp),%rax
    ad69:	48 89 85 d0 ef ff ff 	mov    %rax,-0x1030(%rbp)
    ad70:	48 83 bd d0 ef ff ff 	cmpq   $0x0,-0x1030(%rbp)
    ad77:	00 
    ad78:	0f 95 c2             	setne  %dl
    ad7b:	83 bd 70 ee ff ff 00 	cmpl   $0x0,-0x1190(%rbp)
    ad82:	0f 95 c0             	setne  %al
    ad85:	21 d0                	and    %edx,%eax
    ad87:	0f b6 d0             	movzbl %al,%edx
    ad8a:	8b 85 68 ee ff ff    	mov    -0x1198(%rbp),%eax
    ad90:	31 c2                	xor    %eax,%edx
    ad92:	48 8b 85 08 f1 ff ff 	mov    -0xef8(%rbp),%rax
    ad99:	8b 00                	mov    (%rax),%eax
    ad9b:	39 c2                	cmp    %eax,%edx
    ad9d:	0f 93 c0             	setae  %al
    ada0:	0f b6 d0             	movzbl %al,%edx
    ada3:	0f b6 85 74 ee ff ff 	movzbl -0x118c(%rbp),%eax
    adaa:	39 c2                	cmp    %eax,%edx
    adac:	0f 9c c0             	setl   %al
    adaf:	0f b6 c0             	movzbl %al,%eax
    adb2:	be 00 00 00 00       	mov    $0x0,%esi
    adb7:	89 c7                	mov    %eax,%edi
    adb9:	e8 f8 b7 ff ff       	callq  65b6 <safe_add_func_int32_t_s_s>
    adbe:	35 5e 5e 87 49       	xor    $0x49875e5e,%eax
    adc3:	89 c2                	mov    %eax,%edx
    adc5:	48 8b 85 78 ee ff ff 	mov    -0x1188(%rbp),%rax
    adcc:	8b 00                	mov    (%rax),%eax
    adce:	39 c2                	cmp    %eax,%edx
    add0:	0f 9c c0             	setl   %al
    add3:	0f b6 c0             	movzbl %al,%eax
    add6:	8b 95 70 ee ff ff    	mov    -0x1190(%rbp),%edx
    addc:	89 d6                	mov    %edx,%esi
    adde:	89 c7                	mov    %eax,%edi
    ade0:	e8 45 b7 ff ff       	callq  652a <safe_rshift_func_int16_t_s_s>
    ade5:	0f b6 c0             	movzbl %al,%eax
    ade8:	be 07 00 00 00       	mov    $0x7,%esi
    aded:	89 c7                	mov    %eax,%edi
    adef:	e8 11 be ff ff       	callq  6c05 <safe_lshift_func_uint8_t_u_s>
    adf4:	0f b6 c0             	movzbl %al,%eax
    adf7:	89 85 50 ef ff ff    	mov    %eax,-0x10b0(%rbp)
    adfd:	83 bd 50 ef ff ff 00 	cmpl   $0x0,-0x10b0(%rbp)
    ae04:	0f 84 b8 00 00 00    	je     aec2 <func_12+0x2f9f>
    ae0a:	48 c7 85 30 f1 ff ff 	movq   $0x1,-0xed0(%rbp)
    ae11:	01 00 00 00 
    ae15:	c7 85 64 ef ff ff 87 	movl   $0xcdf4c687,-0x109c(%rbp)
    ae1c:	c6 f4 cd 
    ae1f:	c7 85 68 ef ff ff fc 	movl   $0xfffffffc,-0x1098(%rbp)
    ae26:	ff ff ff 
    ae29:	c7 85 6c ef ff ff 00 	movl   $0x0,-0x1094(%rbp)
    ae30:	00 00 00 
    ae33:	c7 85 70 ef ff ff 06 	movl   $0x6,-0x1090(%rbp)
    ae3a:	00 00 00 
    ae3d:	48 c7 05 70 34 01 00 	movq   $0x0,0x13470(%rip)        # 1e2b8 <g_583>
    ae44:	00 00 00 00 
    ae48:	eb 37                	jmp    ae81 <func_12+0x2f5e>
    ae4a:	48 8b 05 47 49 01 00 	mov    0x14947(%rip),%rax        # 1f798 <g_553>
    ae51:	48 8b 00             	mov    (%rax),%rax
    ae54:	48 8b 00             	mov    (%rax),%rax
    ae57:	8b 10                	mov    (%rax),%edx
    ae59:	89 d1                	mov    %edx,%ecx
    ae5b:	48 8b 95 90 f8 ff ff 	mov    -0x770(%rbp),%rdx
    ae62:	09 ca                	or     %ecx,%edx
    ae64:	89 10                	mov    %edx,(%rax)
    ae66:	48 8b 05 4b 34 01 00 	mov    0x1344b(%rip),%rax        # 1e2b8 <g_583>
    ae6d:	be 01 00 00 00       	mov    $0x1,%esi
    ae72:	48 89 c7             	mov    %rax,%rdi
    ae75:	e8 c7 b9 ff ff       	callq  6841 <safe_add_func_int64_t_s_s>
    ae7a:	48 89 05 37 34 01 00 	mov    %rax,0x13437(%rip)        # 1e2b8 <g_583>
    ae81:	48 8b 05 30 34 01 00 	mov    0x13430(%rip),%rax        # 1e2b8 <g_583>
    ae88:	48 83 f8 0d          	cmp    $0xd,%rax
    ae8c:	7f bc                	jg     ae4a <func_12+0x2f27>
    ae8e:	48 83 85 30 f1 ff ff 	addq   $0x1,-0xed0(%rbp)
    ae95:	01 
    ae96:	c6 05 87 31 01 00 00 	movb   $0x0,0x13187(%rip)        # 1e024 <g_9>
    ae9d:	90                   	nop
    ae9e:	0f b6 05 7f 31 01 00 	movzbl 0x1317f(%rip),%eax        # 1e024 <g_9>
    aea5:	3c 1a                	cmp    $0x1a,%al
    aea7:	7e 0c                	jle    aeb5 <func_12+0x2f92>
    aea9:	48 8b 85 78 ee ff ff 	mov    -0x1188(%rbp),%rax
    aeb0:	e9 0e 09 00 00       	jmpq   b7c3 <func_12+0x38a0>
    aeb5:	48 83 85 10 f0 ff ff 	addq   $0x1,-0xff0(%rbp)
    aebc:	01 
    aebd:	e9 99 01 00 00       	jmpq   b05b <func_12+0x3138>
    aec2:	c7 85 60 ef ff ff 01 	movl   $0x1,-0x10a0(%rbp)
    aec9:	00 00 00 
    aecc:	48 8b 05 dd 49 01 00 	mov    0x149dd(%rip),%rax        # 1f8b0 <g_1423>
    aed3:	48 8b 00             	mov    (%rax),%rax
    aed6:	48 8b 00             	mov    (%rax),%rax
    aed9:	48 8b 95 b8 f0 ff ff 	mov    -0xf48(%rbp),%rdx
    aee0:	48 89 10             	mov    %rdx,(%rax)
    aee3:	83 85 60 ef ff ff 01 	addl   $0x1,-0x10a0(%rbp)
    aeea:	e9 6c 01 00 00       	jmpq   b05b <func_12+0x3138>
    aeef:	48 c7 85 38 f1 ff ff 	movq   $0x0,-0xec8(%rbp)
    aef6:	00 00 00 00 
    aefa:	c7 85 b8 ee ff ff 00 	movl   $0x0,-0x1148(%rbp)
    af01:	00 00 00 
    af04:	eb 1b                	jmp    af21 <func_12+0x2ffe>
    af06:	8b 85 b8 ee ff ff    	mov    -0x1148(%rbp),%eax
    af0c:	48 98                	cltq   
    af0e:	48 c7 84 c5 40 f4 ff 	movq   $0x0,-0xbc0(%rbp,%rax,8)
    af15:	ff 00 00 00 00 
    af1a:	83 85 b8 ee ff ff 01 	addl   $0x1,-0x1148(%rbp)
    af21:	83 bd b8 ee ff ff 04 	cmpl   $0x4,-0x1148(%rbp)
    af28:	7e dc                	jle    af06 <func_12+0x2fe3>
    af2a:	c7 85 b4 ee ff ff 00 	movl   $0x0,-0x114c(%rbp)
    af31:	00 00 00 
    af34:	eb 3d                	jmp    af73 <func_12+0x3050>
    af36:	c7 85 a0 ee ff ff 00 	movl   $0x0,-0x1160(%rbp)
    af3d:	00 00 00 
    af40:	eb 1c                	jmp    af5e <func_12+0x303b>
    af42:	48 8b 85 78 ee ff ff 	mov    -0x1188(%rbp),%rax
    af49:	8b 00                	mov    (%rax),%eax
    af4b:	85 c0                	test   %eax,%eax
    af4d:	75 1c                	jne    af6b <func_12+0x3048>
    af4f:	8b 85 a0 ee ff ff    	mov    -0x1160(%rbp),%eax
    af55:	83 c0 01             	add    $0x1,%eax
    af58:	89 85 a0 ee ff ff    	mov    %eax,-0x1160(%rbp)
    af5e:	8b 85 a0 ee ff ff    	mov    -0x1160(%rbp),%eax
    af64:	83 f8 29             	cmp    $0x29,%eax
    af67:	75 d9                	jne    af42 <func_12+0x301f>
    af69:	eb 01                	jmp    af6c <func_12+0x3049>
    af6b:	90                   	nop
    af6c:	83 ad b4 ee ff ff 01 	subl   $0x1,-0x114c(%rbp)
    af73:	83 bd b4 ee ff ff fb 	cmpl   $0xfffffffb,-0x114c(%rbp)
    af7a:	7d ba                	jge    af36 <func_12+0x3013>
    af7c:	48 8b 05 6d 48 01 00 	mov    0x1486d(%rip),%rax        # 1f7f0 <g_641>
    af83:	0f b7 00             	movzwl (%rax),%eax
    af86:	0f b7 c0             	movzwl %ax,%eax
    af89:	be 0b 00 00 00       	mov    $0xb,%esi
    af8e:	89 c7                	mov    %eax,%edi
    af90:	e8 b3 be ff ff       	callq  6e48 <safe_rshift_func_uint16_t_u_s>
    af95:	0f b7 d8             	movzwl %ax,%ebx
    af98:	48 8b 85 70 f1 ff ff 	mov    -0xe90(%rbp),%rax
    af9f:	48 39 85 38 f1 ff ff 	cmp    %rax,-0xec8(%rbp)
    afa6:	74 7e                	je     b026 <func_12+0x3103>
    afa8:	8b 85 68 ee ff ff    	mov    -0x1198(%rbp),%eax
    afae:	0f bf d0             	movswl %ax,%edx
    afb1:	48 8b 85 08 f1 ff ff 	mov    -0xef8(%rbp),%rax
    afb8:	8b 30                	mov    (%rax),%esi
    afba:	48 8b bd 48 f4 ff ff 	mov    -0xbb8(%rbp),%rdi
    afc1:	48 8b 0d b8 47 01 00 	mov    0x147b8(%rip),%rcx        # 1f780 <g_368>
    afc8:	48 8b 05 e1 48 01 00 	mov    0x148e1(%rip),%rax        # 1f8b0 <g_1423>
    afcf:	48 8b 00             	mov    (%rax),%rax
    afd2:	48 8b 09             	mov    (%rcx),%rcx
    afd5:	48 89 08             	mov    %rcx,(%rax)
    afd8:	48 8b 00             	mov    (%rax),%rax
    afdb:	48 39 c7             	cmp    %rax,%rdi
    afde:	0f 95 c0             	setne  %al
    afe1:	0f b6 c0             	movzbl %al,%eax
    afe4:	f7 d0                	not    %eax
    afe6:	89 c1                	mov    %eax,%ecx
    afe8:	48 8b 85 08 f1 ff ff 	mov    -0xef8(%rbp),%rax
    afef:	8b 00                	mov    (%rax),%eax
    aff1:	f7 d0                	not    %eax
    aff3:	c1 e8 1f             	shr    $0x1f,%eax
    aff6:	0f b6 c0             	movzbl %al,%eax
    aff9:	39 c1                	cmp    %eax,%ecx
    affb:	0f 9d c0             	setge  %al
    affe:	0f b6 c0             	movzbl %al,%eax
    b001:	39 c6                	cmp    %eax,%esi
    b003:	0f 95 c0             	setne  %al
    b006:	0f b6 c0             	movzbl %al,%eax
    b009:	89 d6                	mov    %edx,%esi
    b00b:	89 c7                	mov    %eax,%edi
    b00d:	e8 e3 b3 ff ff       	callq  63f5 <safe_mul_func_int16_t_s_s>
    b012:	0f b7 c0             	movzwl %ax,%eax
    b015:	be 0d 00 00 00       	mov    $0xd,%esi
    b01a:	89 c7                	mov    %eax,%edi
    b01c:	e8 27 be ff ff       	callq  6e48 <safe_rshift_func_uint16_t_u_s>
    b021:	66 85 c0             	test   %ax,%ax
    b024:	74 07                	je     b02d <func_12+0x310a>
    b026:	b8 01 00 00 00       	mov    $0x1,%eax
    b02b:	eb 05                	jmp    b032 <func_12+0x310f>
    b02d:	b8 00 00 00 00       	mov    $0x0,%eax
    b032:	31 d8                	xor    %ebx,%eax
    b034:	89 c2                	mov    %eax,%edx
    b036:	48 8b 85 78 ee ff ff 	mov    -0x1188(%rbp),%rax
    b03d:	8b 00                	mov    (%rax),%eax
    b03f:	39 c2                	cmp    %eax,%edx
    b041:	0f 9e c0             	setle  %al
    b044:	0f b6 c8             	movzbl %al,%ecx
    b047:	48 8b 05 da 47 01 00 	mov    0x147da(%rip),%rax        # 1f828 <g_840>
    b04e:	8b 10                	mov    (%rax),%edx
    b050:	48 8b 05 d1 47 01 00 	mov    0x147d1(%rip),%rax        # 1f828 <g_840>
    b057:	31 ca                	xor    %ecx,%edx
    b059:	89 10                	mov    %edx,(%rax)
    b05b:	8b 85 68 ee ff ff    	mov    -0x1198(%rbp),%eax
    b061:	41 89 c4             	mov    %eax,%r12d
    b064:	8b 05 d6 32 01 00    	mov    0x132d6(%rip),%eax        # 1e340 <g_2397>
    b06a:	85 c0                	test   %eax,%eax
    b06c:	0f 95 c0             	setne  %al
    b06f:	0f b6 c0             	movzbl %al,%eax
    b072:	f7 d0                	not    %eax
    b074:	89 c2                	mov    %eax,%edx
    b076:	48 8d 05 d3 56 01 00 	lea    0x156d3(%rip),%rax        # 20750 <g_2751>
    b07d:	48 39 85 10 f1 ff ff 	cmp    %rax,-0xef0(%rbp)
    b084:	0f 95 c0             	setne  %al
    b087:	0f b6 c0             	movzbl %al,%eax
    b08a:	39 c2                	cmp    %eax,%edx
    b08c:	0f 9d c0             	setge  %al
    b08f:	0f b6 c0             	movzbl %al,%eax
    b092:	be 24 00 00 00       	mov    $0x24,%esi
    b097:	89 c7                	mov    %eax,%edi
    b099:	e8 74 b1 ff ff       	callq  6212 <safe_mul_func_int8_t_s_s>
    b09e:	84 c0                	test   %al,%al
    b0a0:	75 0d                	jne    b0af <func_12+0x318c>
    b0a2:	48 8b 85 78 ee ff ff 	mov    -0x1188(%rbp),%rax
    b0a9:	8b 00                	mov    (%rax),%eax
    b0ab:	85 c0                	test   %eax,%eax
    b0ad:	74 07                	je     b0b6 <func_12+0x3193>
    b0af:	b8 01 00 00 00       	mov    $0x1,%eax
    b0b4:	eb 05                	jmp    b0bb <func_12+0x3198>
    b0b6:	b8 00 00 00 00       	mov    $0x0,%eax
    b0bb:	0f be d8             	movsbl %al,%ebx
    b0be:	48 8b 05 2b 47 01 00 	mov    0x1472b(%rip),%rax        # 1f7f0 <g_641>
    b0c5:	0f b7 00             	movzwl (%rax),%eax
    b0c8:	0f bf d0             	movswl %ax,%edx
    b0cb:	0f b6 85 74 ee ff ff 	movzbl -0x118c(%rbp),%eax
    b0d2:	89 d6                	mov    %edx,%esi
    b0d4:	89 c7                	mov    %eax,%edi
    b0d6:	e8 7a b3 ff ff       	callq  6455 <safe_div_func_int16_t_s_s>
    b0db:	0f be c0             	movsbl %al,%eax
    b0de:	89 de                	mov    %ebx,%esi
    b0e0:	89 c7                	mov    %eax,%edi
    b0e2:	e8 ed b0 ff ff       	callq  61d4 <safe_add_func_int8_t_s_s>
    b0e7:	8b 85 70 ee ff ff    	mov    -0x1190(%rbp),%eax
    b0ed:	0f b6 c0             	movzbl %al,%eax
    b0f0:	be fb 00 00 00       	mov    $0xfb,%esi
    b0f5:	89 c7                	mov    %eax,%edi
    b0f7:	e8 b2 ba ff ff       	callq  6bae <safe_mod_func_uint8_t_u_u>
    b0fc:	0f b6 c0             	movzbl %al,%eax
    b0ff:	44 89 e6             	mov    %r12d,%esi
    b102:	89 c7                	mov    %eax,%edi
    b104:	e8 21 b4 ff ff       	callq  652a <safe_rshift_func_int16_t_s_s>
    b109:	0f b6 05 18 32 01 00 	movzbl 0x13218(%rip),%eax        # 1e328 <g_1151>
    b110:	0f be c0             	movsbl %al,%eax
    b113:	83 e0 01             	and    $0x1,%eax
    b116:	89 c2                	mov    %eax,%edx
    b118:	0f b6 85 74 ee ff ff 	movzbl -0x118c(%rbp),%eax
    b11f:	39 c2                	cmp    %eax,%edx
    b121:	0f 9c c2             	setl   %dl
    b124:	48 8b 05 6d 46 01 00 	mov    0x1466d(%rip),%rax        # 1f798 <g_553>
    b12b:	48 8b 00             	mov    (%rax),%rax
    b12e:	48 8b 00             	mov    (%rax),%rax
    b131:	0f b6 d2             	movzbl %dl,%edx
    b134:	89 10                	mov    %edx,(%rax)
    b136:	48 8b 05 13 46 01 00 	mov    0x14613(%rip),%rax        # 1f750 <g_321>
    b13d:	8b 00                	mov    (%rax),%eax
    b13f:	44 8b b5 68 ee ff ff 	mov    -0x1198(%rbp),%r14d
    b146:	8b 85 68 ee ff ff    	mov    -0x1198(%rbp),%eax
    b14c:	85 c0                	test   %eax,%eax
    b14e:	0f 85 d3 00 00 00    	jne    b227 <func_12+0x3304>
    b154:	0f b6 05 c9 2e 01 00 	movzbl 0x12ec9(%rip),%eax        # 1e024 <g_9>
    b15b:	0f be d8             	movsbl %al,%ebx
    b15e:	be 03 00 00 00       	mov    $0x3,%esi
    b163:	bf 02 00 00 00       	mov    $0x2,%edi
    b168:	e8 df ba ff ff       	callq  6c4c <safe_lshift_func_uint8_t_u_u>
    b16d:	84 c0                	test   %al,%al
    b16f:	0f 84 94 00 00 00    	je     b209 <func_12+0x32e6>
    b175:	0f b7 05 ae 31 01 00 	movzwl 0x131ae(%rip),%eax        # 1e32a <g_1299>
    b17c:	44 0f b7 e0          	movzwl %ax,%r12d
    b180:	48 8b 85 08 f1 ff ff 	mov    -0xef8(%rbp),%rax
    b187:	8b 00                	mov    (%rax),%eax
    b189:	44 0f be e8          	movsbl %al,%r13d
    b18d:	48 8b 15 cc 55 01 00 	mov    0x155cc(%rip),%rdx        # 20760 <g_2772>
    b194:	48 8b 85 18 f1 ff ff 	mov    -0xee8(%rbp),%rax
    b19b:	48 89 10             	mov    %rdx,(%rax)
    b19e:	48 8b 85 18 f1 ff ff 	mov    -0xee8(%rbp),%rax
    b1a5:	48 8b 10             	mov    (%rax),%rdx
    b1a8:	48 8b 85 f0 ef ff ff 	mov    -0x1010(%rbp),%rax
    b1af:	48 8b 00             	mov    (%rax),%rax
    b1b2:	48 39 c2             	cmp    %rax,%rdx
    b1b5:	0f 94 c0             	sete   %al
    b1b8:	0f b6 d0             	movzbl %al,%edx
    b1bb:	48 83 bd c0 f0 ff ff 	cmpq   $0x0,-0xf40(%rbp)
    b1c2:	00 
    b1c3:	0f 95 c0             	setne  %al
    b1c6:	0f b6 c0             	movzbl %al,%eax
    b1c9:	89 d6                	mov    %edx,%esi
    b1cb:	89 c7                	mov    %eax,%edi
    b1cd:	e8 c1 b9 ff ff       	callq  6b93 <safe_mul_func_uint8_t_u_u>
    b1d2:	0f be c0             	movsbl %al,%eax
    b1d5:	44 89 ee             	mov    %r13d,%esi
    b1d8:	89 c7                	mov    %eax,%edi
    b1da:	e8 8b b0 ff ff       	callq  626a <safe_div_func_int8_t_s_s>
    b1df:	66 98                	cbtw   
    b1e1:	0f b7 c0             	movzwl %ax,%eax
    b1e4:	44 89 e6             	mov    %r12d,%esi
    b1e7:	89 c7                	mov    %eax,%edi
    b1e9:	e8 4f bb ff ff       	callq  6d3d <safe_mul_func_uint16_t_u_u>
    b1ee:	be b3 21 00 00       	mov    $0x21b3,%esi
    b1f3:	bf 00 00 00 00       	mov    $0x0,%edi
    b1f8:	e8 b6 b1 ff ff       	callq  63b3 <safe_add_func_int16_t_s_s>
    b1fd:	66 85 c0             	test   %ax,%ax
    b200:	74 07                	je     b209 <func_12+0x32e6>
    b202:	b8 01 00 00 00       	mov    $0x1,%eax
    b207:	eb 05                	jmp    b20e <func_12+0x32eb>
    b209:	b8 00 00 00 00       	mov    $0x0,%eax
    b20e:	98                   	cwtl   
    b20f:	89 de                	mov    %ebx,%esi
    b211:	89 c7                	mov    %eax,%edi
    b213:	e8 fe b1 ff ff       	callq  6416 <safe_mod_func_int16_t_s_s>
    b218:	0f bf d0             	movswl %ax,%edx
    b21b:	8b 85 68 ee ff ff    	mov    -0x1198(%rbp),%eax
    b221:	09 d0                	or     %edx,%eax
    b223:	85 c0                	test   %eax,%eax
    b225:	74 07                	je     b22e <func_12+0x330b>
    b227:	b8 01 00 00 00       	mov    $0x1,%eax
    b22c:	eb 05                	jmp    b233 <func_12+0x3310>
    b22e:	b8 00 00 00 00       	mov    $0x0,%eax
    b233:	41 39 c6             	cmp    %eax,%r14d
    b236:	0f 95 c0             	setne  %al
    b239:	0f b6 c0             	movzbl %al,%eax
    b23c:	be 03 00 00 00       	mov    $0x3,%esi
    b241:	48 89 c7             	mov    %rax,%rdi
    b244:	e8 6b b7 ff ff       	callq  69b4 <safe_mod_func_int64_t_s_s>
    b249:	48 8d 05 58 30 01 00 	lea    0x13058(%rip),%rax        # 1e2a8 <g_452>
    b250:	48 89 85 40 f1 ff ff 	mov    %rax,-0xec0(%rbp)
    b257:	48 8d 85 30 f5 ff ff 	lea    -0xad0(%rbp),%rax
    b25e:	48 05 ac 00 00 00    	add    $0xac,%rax
    b264:	48 89 85 48 f1 ff ff 	mov    %rax,-0xeb8(%rbp)
    b26b:	48 8b 05 96 54 01 00 	mov    0x15496(%rip),%rax        # 20708 <g_1642>
    b272:	48 8b 95 40 f1 ff ff 	mov    -0xec0(%rbp),%rdx
    b279:	48 89 10             	mov    %rdx,(%rax)
    b27c:	c7 85 c0 ee ff ff 00 	movl   $0x0,-0x1140(%rbp)
    b283:	00 00 00 
    b286:	e9 88 01 00 00       	jmpq   b413 <func_12+0x34f0>
    b28b:	48 c7 85 c8 ef ff ff 	movq   $0x0,-0x1038(%rbp)
    b292:	00 00 00 00 
    b296:	c7 85 c8 ef ff ff 3e 	movl   $0x973c63e,-0x1038(%rbp)
    b29d:	c6 73 09 
    b2a0:	c7 85 74 ef ff ff 47 	movl   $0xbf1fa647,-0x108c(%rbp)
    b2a7:	a6 1f bf 
    b2aa:	c6 85 99 ee ff ff ff 	movb   $0xff,-0x1167(%rbp)
    b2b1:	48 8b 85 d0 ef ff ff 	mov    -0x1030(%rbp),%rax
    b2b8:	8b 00                	mov    (%rax),%eax
    b2ba:	41 89 c5             	mov    %eax,%r13d
    b2bd:	8b 85 68 ee ff ff    	mov    -0x1198(%rbp),%eax
    b2c3:	41 89 c6             	mov    %eax,%r14d
    b2c6:	c7 85 74 ef ff ff 00 	movl   $0x0,-0x108c(%rbp)
    b2cd:	00 00 00 
    b2d0:	b8 01 00 00 00       	mov    $0x1,%eax
    b2d5:	be 9a ef 18 90       	mov    $0x9018ef9a,%esi
    b2da:	89 c7                	mov    %eax,%edi
    b2dc:	e8 ef bb ff ff       	callq  6ed0 <safe_sub_func_uint32_t_u_u>
    b2e1:	89 c2                	mov    %eax,%edx
    b2e3:	48 8b 05 46 54 01 00 	mov    0x15446(%rip),%rax        # 20730 <g_2331>
    b2ea:	0f b6 00             	movzbl (%rax),%eax
    b2ed:	66 98                	cbtw   
    b2ef:	21 d0                	and    %edx,%eax
    b2f1:	98                   	cwtl   
    b2f2:	be 01 00 00 00       	mov    $0x1,%esi
    b2f7:	89 c7                	mov    %eax,%edi
    b2f9:	e8 e3 b1 ff ff       	callq  64e1 <safe_lshift_func_int16_t_s_u>
    b2fe:	98                   	cwtl   
    b2ff:	89 c7                	mov    %eax,%edi
    b301:	e8 90 b2 ff ff       	callq  6596 <safe_unary_minus_func_int32_t_s>
    b306:	0f b6 15 1b 30 01 00 	movzbl 0x1301b(%rip),%edx        # 1e328 <g_1151>
    b30d:	0f be d2             	movsbl %dl,%edx
    b310:	39 d0                	cmp    %edx,%eax
    b312:	0f 9f c0             	setg   %al
    b315:	0f b6 d0             	movzbl %al,%edx
    b318:	0f b6 85 99 ee ff ff 	movzbl -0x1167(%rbp),%eax
    b31f:	21 d0                	and    %edx,%eax
    b321:	48 63 d8             	movslq %eax,%rbx
    b324:	48 8b 05 c5 44 01 00 	mov    0x144c5(%rip),%rax        # 1f7f0 <g_641>
    b32b:	0f b7 00             	movzwl (%rax),%eax
    b32e:	44 0f b7 e0          	movzwl %ax,%r12d
    b332:	48 be 2f 2b 35 bf 6e 	movabs $0xb574ce6ebf352b2f,%rsi
    b339:	ce 74 b5 
    b33c:	48 bf bd 70 9d fe a2 	movabs $0xc8b555a2fe9d70bd,%rdi
    b343:	55 b5 c8 
    b346:	e8 64 bd ff ff       	callq  70af <safe_div_func_uint64_t_u_u>
    b34b:	4c 21 e0             	and    %r12,%rax
    b34e:	48 89 de             	mov    %rbx,%rsi
    b351:	48 89 c7             	mov    %rax,%rdi
    b354:	e8 f2 bc ff ff       	callq  704b <safe_sub_func_uint64_t_u_u>
    b359:	be a2 11 6b b7       	mov    $0xb76b11a2,%esi
    b35e:	89 c7                	mov    %eax,%edi
    b360:	e8 98 bb ff ff       	callq  6efd <safe_mod_func_uint32_t_u_u>
    b365:	0f b7 c0             	movzwl %ax,%eax
    b368:	44 89 f6             	mov    %r14d,%esi
    b36b:	89 c7                	mov    %eax,%edi
    b36d:	e8 d6 ba ff ff       	callq  6e48 <safe_rshift_func_uint16_t_u_s>
    b372:	66 85 c0             	test   %ax,%ax
    b375:	0f 95 c0             	setne  %al
    b378:	0f b6 d0             	movzbl %al,%edx
    b37b:	8b 05 97 2f 01 00    	mov    0x12f97(%rip),%eax        # 1e318 <g_1032>
    b381:	39 c2                	cmp    %eax,%edx
    b383:	0f 9d c0             	setge  %al
    b386:	0f b6 c0             	movzbl %al,%eax
    b389:	44 89 ee             	mov    %r13d,%esi
    b38c:	89 c7                	mov    %eax,%edi
    b38e:	e8 d0 b1 ff ff       	callq  6563 <safe_rshift_func_int16_t_s_u>
    b393:	8b 85 c0 ee ff ff    	mov    -0x1140(%rbp),%eax
    b399:	83 c0 03             	add    $0x3,%eax
    b39c:	48 98                	cltq   
    b39e:	0f b6 44 05 bc       	movzbl -0x44(%rbp,%rax,1),%eax
    b3a3:	48 0f be c0          	movsbq %al,%rax
    b3a7:	be 00 00 00 00       	mov    $0x0,%esi
    b3ac:	48 89 c7             	mov    %rax,%rdi
    b3af:	e8 f4 b4 ff ff       	callq  68a8 <safe_sub_func_int64_t_s_s>
    b3b4:	48 8b 85 d0 ef ff ff 	mov    -0x1030(%rbp),%rax
    b3bb:	8b 00                	mov    (%rax),%eax
    b3bd:	85 c0                	test   %eax,%eax
    b3bf:	74 2c                	je     b3ed <func_12+0x34ca>
    b3c1:	48 8b 85 48 f1 ff ff 	mov    -0xeb8(%rbp),%rax
    b3c8:	48 89 85 78 ee ff ff 	mov    %rax,-0x1188(%rbp)
    b3cf:	48 8b 05 aa 42 01 00 	mov    0x142aa(%rip),%rax        # 1f680 <g_298>
    b3d6:	48 8b 00             	mov    (%rax),%rax
    b3d9:	48 c7 00 00 00 00 00 	movq   $0x0,(%rax)
    b3e0:	48 8b 05 69 43 01 00 	mov    0x14369(%rip),%rax        # 1f750 <g_321>
    b3e7:	8b 00                	mov    (%rax),%eax
    b3e9:	85 c0                	test   %eax,%eax
    b3eb:	eb 1f                	jmp    b40c <func_12+0x34e9>
    b3ed:	48 8d 85 a4 ee ff ff 	lea    -0x115c(%rbp),%rax
    b3f4:	48 89 85 50 f1 ff ff 	mov    %rax,-0xeb0(%rbp)
    b3fb:	48 8b 85 b0 f0 ff ff 	mov    -0xf50(%rbp),%rax
    b402:	48 8b 95 50 f1 ff ff 	mov    -0xeb0(%rbp),%rdx
    b409:	48 89 10             	mov    %rdx,(%rax)
    b40c:	83 ad c0 ee ff ff 01 	subl   $0x1,-0x1140(%rbp)
    b413:	83 bd c0 ee ff ff 00 	cmpl   $0x0,-0x1140(%rbp)
    b41a:	0f 89 6b fe ff ff    	jns    b28b <func_12+0x3368>
    b420:	48 8b 05 f1 52 01 00 	mov    0x152f1(%rip),%rax        # 20718 <g_1881>
    b427:	48 8b 00             	mov    (%rax),%rax
    b42a:	e9 94 03 00 00       	jmpq   b7c3 <func_12+0x38a0>
    b42f:	66 c7 85 9a ee ff ff 	movw   $0x1,-0x1166(%rbp)
    b436:	01 00 
    b438:	48 c7 85 c8 ef ff ff 	movq   $0x0,-0x1038(%rbp)
    b43f:	00 00 00 00 
    b443:	c7 85 c8 ef ff ff ff 	movl   $0xffffffff,-0x1038(%rbp)
    b44a:	ff ff ff 
    b44d:	c7 85 bc ee ff ff 00 	movl   $0x0,-0x1144(%rbp)
    b454:	00 00 00 
    b457:	eb 1a                	jmp    b473 <func_12+0x3550>
    b459:	8b 85 bc ee ff ff    	mov    -0x1144(%rbp),%eax
    b45f:	48 98                	cltq   
    b461:	c7 84 85 d0 f7 ff ff 	movl   $0xe292a1e5,-0x830(%rbp,%rax,4)
    b468:	e5 a1 92 e2 
    b46c:	83 85 bc ee ff ff 01 	addl   $0x1,-0x1144(%rbp)
    b473:	83 bd bc ee ff ff 02 	cmpl   $0x2,-0x1144(%rbp)
    b47a:	7e dd                	jle    b459 <func_12+0x3536>
    b47c:	c6 05 4d 2e 01 00 f4 	movb   $0xf4,0x12e4d(%rip)        # 1e2d0 <g_759>
    b483:	e9 25 03 00 00       	jmpq   b7ad <func_12+0x388a>
    b488:	c7 85 40 ef ff ff ff 	movl   $0xffffffff,-0x10c0(%rbp)
    b48f:	ff ff ff 
    b492:	48 8d 05 99 2d 01 00 	lea    0x12d99(%rip),%rax        # 1e232 <g_198+0x12>
    b499:	48 89 85 a0 f0 ff ff 	mov    %rax,-0xf60(%rbp)
    b4a0:	48 8d 85 78 ef ff ff 	lea    -0x1088(%rbp),%rax
    b4a7:	48 89 85 a8 f0 ff ff 	mov    %rax,-0xf58(%rbp)
    b4ae:	48 8d 05 db 57 01 00 	lea    0x157db(%rip),%rax        # 20c90 <g_1163+0x30>
    b4b5:	48 89 85 50 fb ff ff 	mov    %rax,-0x4b0(%rbp)
    b4bc:	48 8d 05 cd 57 01 00 	lea    0x157cd(%rip),%rax        # 20c90 <g_1163+0x30>
    b4c3:	48 89 85 58 fb ff ff 	mov    %rax,-0x4a8(%rbp)
    b4ca:	48 8d 05 bf 57 01 00 	lea    0x157bf(%rip),%rax        # 20c90 <g_1163+0x30>
    b4d1:	48 89 85 60 fb ff ff 	mov    %rax,-0x4a0(%rbp)
    b4d8:	48 8d 05 b1 57 01 00 	lea    0x157b1(%rip),%rax        # 20c90 <g_1163+0x30>
    b4df:	48 89 85 68 fb ff ff 	mov    %rax,-0x498(%rbp)
    b4e6:	48 8d 05 a3 57 01 00 	lea    0x157a3(%rip),%rax        # 20c90 <g_1163+0x30>
    b4ed:	48 89 85 70 fb ff ff 	mov    %rax,-0x490(%rbp)
    b4f4:	48 8d 05 95 57 01 00 	lea    0x15795(%rip),%rax        # 20c90 <g_1163+0x30>
    b4fb:	48 89 85 78 fb ff ff 	mov    %rax,-0x488(%rbp)
    b502:	48 8d 05 87 57 01 00 	lea    0x15787(%rip),%rax        # 20c90 <g_1163+0x30>
    b509:	48 89 85 80 fb ff ff 	mov    %rax,-0x480(%rbp)
    b510:	48 8d 05 79 57 01 00 	lea    0x15779(%rip),%rax        # 20c90 <g_1163+0x30>
    b517:	48 89 85 88 fb ff ff 	mov    %rax,-0x478(%rbp)
    b51e:	48 8d 05 6b 57 01 00 	lea    0x1576b(%rip),%rax        # 20c90 <g_1163+0x30>
    b525:	48 89 85 90 fb ff ff 	mov    %rax,-0x470(%rbp)
    b52c:	0f b7 9d 9a ee ff ff 	movzwl -0x1166(%rbp),%ebx
    b533:	0f b7 95 9a ee ff ff 	movzwl -0x1166(%rbp),%edx
    b53a:	0f b6 05 e4 2a 01 00 	movzbl 0x12ae4(%rip),%eax        # 1e025 <g_66>
    b541:	66 0f be c8          	movsbw %al,%cx
    b545:	48 8b 85 a0 f0 ff ff 	mov    -0xf60(%rbp),%rax
    b54c:	66 89 08             	mov    %cx,(%rax)
    b54f:	8b 85 70 ee ff ff    	mov    -0x1190(%rbp),%eax
    b555:	39 85 40 ef ff ff    	cmp    %eax,-0x10c0(%rbp)
    b55b:	48 8d 85 78 ef ff ff 	lea    -0x1088(%rbp),%rax
    b562:	48 39 85 a8 f0 ff ff 	cmp    %rax,-0xf58(%rbp)
    b569:	0f 95 c0             	setne  %al
    b56c:	0f b6 c8             	movzbl %al,%ecx
    b56f:	0f b7 85 9a ee ff ff 	movzwl -0x1166(%rbp),%eax
    b576:	31 c8                	xor    %ecx,%eax
    b578:	0f b7 c0             	movzwl %ax,%eax
    b57b:	89 d6                	mov    %edx,%esi
    b57d:	89 c7                	mov    %eax,%edi
    b57f:	e8 7b b7 ff ff       	callq  6cff <safe_add_func_uint16_t_u_u>
    b584:	0f b7 c0             	movzwl %ax,%eax
    b587:	48 89 c7             	mov    %rax,%rdi
    b58a:	e8 87 b2 ff ff       	callq  6816 <safe_unary_minus_func_int64_t_s>
    b58f:	0f b7 d0             	movzwl %ax,%edx
    b592:	8b 85 70 ee ff ff    	mov    -0x1190(%rbp),%eax
    b598:	0f b7 c0             	movzwl %ax,%eax
    b59b:	89 d6                	mov    %edx,%esi
    b59d:	89 c7                	mov    %eax,%edi
    b59f:	e8 b8 b7 ff ff       	callq  6d5c <safe_mod_func_uint16_t_u_u>
    b5a4:	0f b7 d0             	movzwl %ax,%edx
    b5a7:	48 8b 05 42 42 01 00 	mov    0x14242(%rip),%rax        # 1f7f0 <g_641>
    b5ae:	0f b7 00             	movzwl (%rax),%eax
    b5b1:	0f b7 c0             	movzwl %ax,%eax
    b5b4:	89 d6                	mov    %edx,%esi
    b5b6:	89 c7                	mov    %eax,%edi
    b5b8:	e8 d1 b7 ff ff       	callq  6d8e <safe_div_func_uint16_t_u_u>
    b5bd:	0f b7 c0             	movzwl %ax,%eax
    b5c0:	89 de                	mov    %ebx,%esi
    b5c2:	89 c7                	mov    %eax,%edi
    b5c4:	e8 c5 b7 ff ff       	callq  6d8e <safe_div_func_uint16_t_u_u>
    b5c9:	66 85 c0             	test   %ax,%ax
    b5cc:	0f 84 81 01 00 00    	je     b753 <func_12+0x3830>
    b5d2:	c7 85 48 ef ff ff 5f 	movl   $0xa175c95f,-0x10b8(%rbp)
    b5d9:	c9 75 a1 
    b5dc:	c7 85 ac ee ff ff 00 	movl   $0x0,-0x1154(%rbp)
    b5e3:	00 00 00 
    b5e6:	eb 14                	jmp    b5fc <func_12+0x36d9>
    b5e8:	8b 85 ac ee ff ff    	mov    -0x1154(%rbp),%eax
    b5ee:	48 98                	cltq   
    b5f0:	c6 44 05 c1 09       	movb   $0x9,-0x3f(%rbp,%rax,1)
    b5f5:	83 85 ac ee ff ff 01 	addl   $0x1,-0x1154(%rbp)
    b5fc:	83 bd ac ee ff ff 06 	cmpl   $0x6,-0x1154(%rbp)
    b603:	7e e3                	jle    b5e8 <func_12+0x36c5>
    b605:	8b 85 c8 ef ff ff    	mov    -0x1038(%rbp),%eax
    b60b:	0f b6 d8             	movzbl %al,%ebx
    b60e:	0f b6 05 93 2c 01 00 	movzbl 0x12c93(%rip),%eax        # 1e2a8 <g_452>
    b615:	44 0f be e0          	movsbl %al,%r12d
    b619:	8b 8d 68 ee ff ff    	mov    -0x1198(%rbp),%ecx
    b61f:	0f b6 45 c7          	movzbl -0x39(%rbp),%eax
    b623:	0f b6 f0             	movzbl %al,%esi
    b626:	48 8b bd 68 fb ff ff 	mov    -0x498(%rbp),%rdi
    b62d:	48 8b 05 c4 41 01 00 	mov    0x141c4(%rip),%rax        # 1f7f8 <g_686>
    b634:	48 8b 95 50 fb ff ff 	mov    -0x4b0(%rbp),%rdx
    b63b:	48 89 10             	mov    %rdx,(%rax)
    b63e:	48 8b 00             	mov    (%rax),%rax
    b641:	48 39 c7             	cmp    %rax,%rdi
    b644:	0f 94 c0             	sete   %al
    b647:	0f b6 c0             	movzbl %al,%eax
    b64a:	21 f0                	and    %esi,%eax
    b64c:	39 c1                	cmp    %eax,%ecx
    b64e:	0f 95 c0             	setne  %al
    b651:	0f b6 c0             	movzbl %al,%eax
    b654:	89 85 d8 f7 ff ff    	mov    %eax,-0x828(%rbp)
    b65a:	8b 85 d8 f7 ff ff    	mov    -0x828(%rbp),%eax
    b660:	89 05 e2 2b 01 00    	mov    %eax,0x12be2(%rip)        # 1e248 <g_223>
    b666:	80 bd 74 ee ff ff 00 	cmpb   $0x0,-0x118c(%rbp)
    b66d:	75 0f                	jne    b67e <func_12+0x375b>
    b66f:	48 8b 05 7a 41 01 00 	mov    0x1417a(%rip),%rax        # 1f7f0 <g_641>
    b676:	0f b7 00             	movzwl (%rax),%eax
    b679:	66 85 c0             	test   %ax,%ax
    b67c:	74 07                	je     b685 <func_12+0x3762>
    b67e:	b8 01 00 00 00       	mov    $0x1,%eax
    b683:	eb 05                	jmp    b68a <func_12+0x3767>
    b685:	b8 00 00 00 00       	mov    $0x0,%eax
    b68a:	3b 85 70 ee ff ff    	cmp    -0x1190(%rbp),%eax
    b690:	0f 9c c0             	setl   %al
    b693:	0f b6 d0             	movzbl %al,%edx
    b696:	8b 85 68 ee ff ff    	mov    -0x1198(%rbp),%eax
    b69c:	31 d0                	xor    %edx,%eax
    b69e:	89 c6                	mov    %eax,%esi
    b6a0:	bf fc ff ff ff       	mov    $0xfffffffc,%edi
    b6a5:	e8 0c af ff ff       	callq  65b6 <safe_add_func_int32_t_s_s>
    b6aa:	b9 00 00 00 00       	mov    $0x0,%ecx
    b6af:	48 8b 85 a8 f0 ff ff 	mov    -0xf58(%rbp),%rax
    b6b6:	48 8b 00             	mov    (%rax),%rax
    b6b9:	0f b6 10             	movzbl (%rax),%edx
    b6bc:	48 8b 85 a8 f0 ff ff 	mov    -0xf58(%rbp),%rax
    b6c3:	48 8b 00             	mov    (%rax),%rax
    b6c6:	09 ca                	or     %ecx,%edx
    b6c8:	88 10                	mov    %dl,(%rax)
    b6ca:	0f b6 38             	movzbl (%rax),%edi
    b6cd:	8b 95 68 ee ff ff    	mov    -0x1198(%rbp),%edx
    b6d3:	0f b6 45 c6          	movzbl -0x3a(%rbp),%eax
    b6d7:	84 c0                	test   %al,%al
    b6d9:	0f 94 c0             	sete   %al
    b6dc:	0f b6 c8             	movzbl %al,%ecx
    b6df:	48 8b 05 4a 50 01 00 	mov    0x1504a(%rip),%rax        # 20730 <g_2331>
    b6e6:	0f b6 30             	movzbl (%rax),%esi
    b6e9:	48 8b 05 40 50 01 00 	mov    0x15040(%rip),%rax        # 20730 <g_2331>
    b6f0:	09 fe                	or     %edi,%esi
    b6f2:	40 88 30             	mov    %sil,(%rax)
    b6f5:	0f b6 00             	movzbl (%rax),%eax
    b6f8:	0f be c0             	movsbl %al,%eax
    b6fb:	39 c1                	cmp    %eax,%ecx
    b6fd:	0f 9d c0             	setge  %al
    b700:	0f b6 c0             	movzbl %al,%eax
    b703:	39 c2                	cmp    %eax,%edx
    b705:	0f 96 c0             	setbe  %al
    b708:	0f b6 c0             	movzbl %al,%eax
    b70b:	44 89 e6             	mov    %r12d,%esi
    b70e:	89 c7                	mov    %eax,%edi
    b710:	e8 65 b7 ff ff       	callq  6e7a <safe_rshift_func_uint16_t_u_u>
    b715:	0f b6 95 74 ee ff ff 	movzbl -0x118c(%rbp),%edx
    b71c:	66 39 d0             	cmp    %dx,%ax
    b71f:	0f 95 c0             	setne  %al
    b722:	0f b6 c0             	movzbl %al,%eax
    b725:	89 de                	mov    %ebx,%esi
    b727:	89 c7                	mov    %eax,%edi
    b729:	e8 80 b4 ff ff       	callq  6bae <safe_mod_func_uint8_t_u_u>
    b72e:	0f b6 c0             	movzbl %al,%eax
    b731:	31 85 48 ef ff ff    	xor    %eax,-0x10b8(%rbp)
    b737:	8b 8d 48 ef ff ff    	mov    -0x10b8(%rbp),%ecx
    b73d:	48 8b 05 e4 40 01 00 	mov    0x140e4(%rip),%rax        # 1f828 <g_840>
    b744:	8b 10                	mov    (%rax),%edx
    b746:	48 8b 05 db 40 01 00 	mov    0x140db(%rip),%rax        # 1f828 <g_840>
    b74d:	21 ca                	and    %ecx,%edx
    b74f:	89 10                	mov    %edx,(%rax)
    b751:	eb 36                	jmp    b789 <func_12+0x3866>
    b753:	c7 85 44 ef ff ff d2 	movl   $0x9a4e89d2,-0x10bc(%rbp)
    b75a:	89 4e 9a 
    b75d:	48 8b 05 dc 4f 01 00 	mov    0x14fdc(%rip),%rax        # 20740 <g_2652>
    b764:	48 8b 10             	mov    (%rax),%rdx
    b767:	48 8b 05 d2 4f 01 00 	mov    0x14fd2(%rip),%rax        # 20740 <g_2652>
    b76e:	48 8b 00             	mov    (%rax),%rax
    b771:	48 8b 12             	mov    (%rdx),%rdx
    b774:	48 89 10             	mov    %rdx,(%rax)
    b777:	48 8b 05 9a 4f 01 00 	mov    0x14f9a(%rip),%rax        # 20718 <g_1881>
    b77e:	48 8b 00             	mov    (%rax),%rax
    b781:	8b 00                	mov    (%rax),%eax
    b783:	09 85 44 ef ff ff    	or     %eax,-0x10bc(%rbp)
    b789:	8b 85 c8 ef ff ff    	mov    -0x1038(%rbp),%eax
    b78f:	85 c0                	test   %eax,%eax
    b791:	0f b6 05 38 2b 01 00 	movzbl 0x12b38(%rip),%eax        # 1e2d0 <g_759>
    b798:	0f be c0             	movsbl %al,%eax
    b79b:	be 08 00 00 00       	mov    $0x8,%esi
    b7a0:	89 c7                	mov    %eax,%edi
    b7a2:	e8 2d aa ff ff       	callq  61d4 <safe_add_func_int8_t_s_s>
    b7a7:	88 05 23 2b 01 00    	mov    %al,0x12b23(%rip)        # 1e2d0 <g_759>
    b7ad:	0f b6 05 1c 2b 01 00 	movzbl 0x12b1c(%rip),%eax        # 1e2d0 <g_759>
    b7b4:	3c 38                	cmp    $0x38,%al
    b7b6:	0f 87 cc fc ff ff    	ja     b488 <func_12+0x3565>
    b7bc:	48 8b 85 78 ee ff ff 	mov    -0x1188(%rbp),%rax
    b7c3:	48 8b 5d c8          	mov    -0x38(%rbp),%rbx
    b7c7:	64 48 33 1c 25 28 00 	xor    %fs:0x28,%rbx
    b7ce:	00 00 
    b7d0:	74 05                	je     b7d7 <func_12+0x38b4>
    b7d2:	e8 99 a8 ff ff       	callq  6070 <__stack_chk_fail@plt>
    b7d7:	48 81 c4 88 11 00 00 	add    $0x1188,%rsp
    b7de:	5b                   	pop    %rbx
    b7df:	41 5c                	pop    %r12
    b7e1:	41 5d                	pop    %r13
    b7e3:	41 5e                	pop    %r14
    b7e5:	41 5f                	pop    %r15
    b7e7:	5d                   	pop    %rbp
    b7e8:	c3                   	retq   

000000000000b7e9 <func_20>:
    b7e9:	f3 0f 1e fa          	endbr64 
    b7ed:	55                   	push   %rbp
    b7ee:	48 89 e5             	mov    %rsp,%rbp
    b7f1:	41 57                	push   %r15
    b7f3:	41 56                	push   %r14
    b7f5:	41 55                	push   %r13
    b7f7:	41 54                	push   %r12
    b7f9:	53                   	push   %rbx
    b7fa:	48 81 ec 28 0d 00 00 	sub    $0xd28,%rsp
    b801:	89 bd dc f2 ff ff    	mov    %edi,-0xd24(%rbp)
    b807:	48 89 b5 d0 f2 ff ff 	mov    %rsi,-0xd30(%rbp)
    b80e:	89 95 d8 f2 ff ff    	mov    %edx,-0xd28(%rbp)
    b814:	89 8d cc f2 ff ff    	mov    %ecx,-0xd34(%rbp)
    b81a:	4c 89 85 c0 f2 ff ff 	mov    %r8,-0xd40(%rbp)
    b821:	64 48 8b 04 25 28 00 	mov    %fs:0x28,%rax
    b828:	00 00 
    b82a:	48 89 45 c8          	mov    %rax,-0x38(%rbp)
    b82e:	31 c0                	xor    %eax,%eax
    b830:	48 c7 85 20 f5 ff ff 	movq   $0x0,-0xae0(%rbp)
    b837:	00 00 00 00 
    b83b:	48 c7 85 28 f5 ff ff 	movq   $0x0,-0xad8(%rbp)
    b842:	00 00 00 00 
    b846:	48 c7 85 30 f5 ff ff 	movq   $0x0,-0xad0(%rbp)
    b84d:	00 00 00 00 
    b851:	c7 85 20 f5 ff ff bd 	movl   $0x9f1e98bd,-0xae0(%rbp)
    b858:	98 1e 9f 
    b85b:	c7 85 28 f5 ff ff bd 	movl   $0x9f1e98bd,-0xad8(%rbp)
    b862:	98 1e 9f 
    b865:	c7 85 30 f5 ff ff bd 	movl   $0x9f1e98bd,-0xad0(%rbp)
    b86c:	98 1e 9f 
    b86f:	48 8d 95 80 f9 ff ff 	lea    -0x680(%rbp),%rdx
    b876:	b8 00 00 00 00       	mov    $0x0,%eax
    b87b:	b9 c8 00 00 00       	mov    $0xc8,%ecx
    b880:	48 89 d7             	mov    %rdx,%rdi
    b883:	f3 48 ab             	rep stos %rax,%es:(%rdi)
    b886:	c6 85 80 f9 ff ff 01 	movb   $0x1,-0x680(%rbp)
    b88d:	c6 85 88 f9 ff ff 01 	movb   $0x1,-0x678(%rbp)
    b894:	c6 85 90 f9 ff ff fd 	movb   $0xfd,-0x670(%rbp)
    b89b:	c6 85 98 f9 ff ff fd 	movb   $0xfd,-0x668(%rbp)
    b8a2:	c6 85 a0 f9 ff ff 02 	movb   $0x2,-0x660(%rbp)
    b8a9:	c6 85 b0 f9 ff ff cb 	movb   $0xcb,-0x650(%rbp)
    b8b0:	c6 85 b8 f9 ff ff 83 	movb   $0x83,-0x648(%rbp)
    b8b7:	c6 85 c0 f9 ff ff 63 	movb   $0x63,-0x640(%rbp)
    b8be:	c6 85 c8 f9 ff ff 02 	movb   $0x2,-0x638(%rbp)
    b8c5:	c6 85 d0 f9 ff ff dc 	movb   $0xdc,-0x630(%rbp)
    b8cc:	c6 85 d8 f9 ff ff 63 	movb   $0x63,-0x628(%rbp)
    b8d3:	c6 85 e0 f9 ff ff 95 	movb   $0x95,-0x620(%rbp)
    b8da:	c6 85 e8 f9 ff ff f6 	movb   $0xf6,-0x618(%rbp)
    b8e1:	c6 85 f0 f9 ff ff 95 	movb   $0x95,-0x610(%rbp)
    b8e8:	c6 85 f8 f9 ff ff 63 	movb   $0x63,-0x608(%rbp)
    b8ef:	c6 85 00 fa ff ff dc 	movb   $0xdc,-0x600(%rbp)
    b8f6:	c6 85 08 fa ff ff 02 	movb   $0x2,-0x5f8(%rbp)
    b8fd:	c6 85 10 fa ff ff 63 	movb   $0x63,-0x5f0(%rbp)
    b904:	c6 85 18 fa ff ff 83 	movb   $0x83,-0x5e8(%rbp)
    b90b:	c6 85 20 fa ff ff cb 	movb   $0xcb,-0x5e0(%rbp)
    b912:	c6 85 30 fa ff ff 02 	movb   $0x2,-0x5d0(%rbp)
    b919:	c6 85 38 fa ff ff 07 	movb   $0x7,-0x5c8(%rbp)
    b920:	c6 85 40 fa ff ff 07 	movb   $0x7,-0x5c0(%rbp)
    b927:	c6 85 48 fa ff ff dc 	movb   $0xdc,-0x5b8(%rbp)
    b92e:	c6 85 50 fa ff ff 98 	movb   $0x98,-0x5b0(%rbp)
    b935:	c6 85 58 fa ff ff b4 	movb   $0xb4,-0x5a8(%rbp)
    b93c:	c6 85 68 fa ff ff 07 	movb   $0x7,-0x598(%rbp)
    b943:	c6 85 70 fa ff ff ff 	movb   $0xff,-0x590(%rbp)
    b94a:	c6 85 78 fa ff ff cc 	movb   $0xcc,-0x588(%rbp)
    b951:	c6 85 80 fa ff ff cb 	movb   $0xcb,-0x580(%rbp)
    b958:	c6 85 88 fa ff ff 01 	movb   $0x1,-0x578(%rbp)
    b95f:	c6 85 90 fa ff ff a7 	movb   $0xa7,-0x570(%rbp)
    b966:	c6 85 98 fa ff ff 02 	movb   $0x2,-0x568(%rbp)
    b96d:	c6 85 a0 fa ff ff b4 	movb   $0xb4,-0x560(%rbp)
    b974:	c6 85 a8 fa ff ff a7 	movb   $0xa7,-0x558(%rbp)
    b97b:	c6 85 b0 fa ff ff 95 	movb   $0x95,-0x550(%rbp)
    b982:	c6 85 b8 fa ff ff 05 	movb   $0x5,-0x548(%rbp)
    b989:	c6 85 c0 fa ff ff 1a 	movb   $0x1a,-0x540(%rbp)
    b990:	c6 85 c8 fa ff ff 63 	movb   $0x63,-0x538(%rbp)
    b997:	c6 85 d0 fa ff ff b4 	movb   $0xb4,-0x530(%rbp)
    b99e:	c6 85 d8 fa ff ff ff 	movb   $0xff,-0x528(%rbp)
    b9a5:	c6 85 e0 fa ff ff 63 	movb   $0x63,-0x520(%rbp)
    b9ac:	c6 85 e8 fa ff ff 01 	movb   $0x1,-0x518(%rbp)
    b9b3:	c6 85 f0 fa ff ff 44 	movb   $0x44,-0x510(%rbp)
    b9ba:	c6 85 00 fb ff ff ff 	movb   $0xff,-0x500(%rbp)
    b9c1:	c6 85 10 fb ff ff 07 	movb   $0x7,-0x4f0(%rbp)
    b9c8:	c6 85 18 fb ff ff b4 	movb   $0xb4,-0x4e8(%rbp)
    b9cf:	c6 85 20 fb ff ff 50 	movb   $0x50,-0x4e0(%rbp)
    b9d6:	c6 85 28 fb ff ff b4 	movb   $0xb4,-0x4d8(%rbp)
    b9dd:	c6 85 30 fb ff ff 07 	movb   $0x7,-0x4d0(%rbp)
    b9e4:	c6 85 40 fb ff ff ff 	movb   $0xff,-0x4c0(%rbp)
    b9eb:	c6 85 50 fb ff ff 44 	movb   $0x44,-0x4b0(%rbp)
    b9f2:	c6 85 58 fb ff ff 01 	movb   $0x1,-0x4a8(%rbp)
    b9f9:	c6 85 60 fb ff ff 63 	movb   $0x63,-0x4a0(%rbp)
    ba00:	c6 85 68 fb ff ff ff 	movb   $0xff,-0x498(%rbp)
    ba07:	c6 85 70 fb ff ff b4 	movb   $0xb4,-0x490(%rbp)
    ba0e:	c6 85 78 fb ff ff 63 	movb   $0x63,-0x488(%rbp)
    ba15:	c6 85 80 fb ff ff 1a 	movb   $0x1a,-0x480(%rbp)
    ba1c:	c6 85 88 fb ff ff 05 	movb   $0x5,-0x478(%rbp)
    ba23:	c6 85 90 fb ff ff 95 	movb   $0x95,-0x470(%rbp)
    ba2a:	c6 85 98 fb ff ff a7 	movb   $0xa7,-0x468(%rbp)
    ba31:	c6 85 a0 fb ff ff b4 	movb   $0xb4,-0x460(%rbp)
    ba38:	c6 85 a8 fb ff ff 02 	movb   $0x2,-0x458(%rbp)
    ba3f:	c6 85 b0 fb ff ff a7 	movb   $0xa7,-0x450(%rbp)
    ba46:	c6 85 b8 fb ff ff 01 	movb   $0x1,-0x448(%rbp)
    ba4d:	c6 85 c0 fb ff ff cb 	movb   $0xcb,-0x440(%rbp)
    ba54:	c6 85 c8 fb ff ff cc 	movb   $0xcc,-0x438(%rbp)
    ba5b:	c6 85 d0 fb ff ff ff 	movb   $0xff,-0x430(%rbp)
    ba62:	c6 85 d8 fb ff ff 07 	movb   $0x7,-0x428(%rbp)
    ba69:	c6 85 e8 fb ff ff b4 	movb   $0xb4,-0x418(%rbp)
    ba70:	c6 85 f0 fb ff ff 98 	movb   $0x98,-0x410(%rbp)
    ba77:	c6 85 f8 fb ff ff dc 	movb   $0xdc,-0x408(%rbp)
    ba7e:	c6 85 00 fc ff ff 07 	movb   $0x7,-0x400(%rbp)
    ba85:	c6 85 08 fc ff ff 07 	movb   $0x7,-0x3f8(%rbp)
    ba8c:	c6 85 10 fc ff ff 02 	movb   $0x2,-0x3f0(%rbp)
    ba93:	c6 85 20 fc ff ff cb 	movb   $0xcb,-0x3e0(%rbp)
    ba9a:	c6 85 28 fc ff ff 83 	movb   $0x83,-0x3d8(%rbp)
    baa1:	c6 85 30 fc ff ff 63 	movb   $0x63,-0x3d0(%rbp)
    baa8:	c6 85 38 fc ff ff 02 	movb   $0x2,-0x3c8(%rbp)
    baaf:	c6 85 40 fc ff ff dc 	movb   $0xdc,-0x3c0(%rbp)
    bab6:	c6 85 48 fc ff ff 63 	movb   $0x63,-0x3b8(%rbp)
    babd:	c6 85 50 fc ff ff 95 	movb   $0x95,-0x3b0(%rbp)
    bac4:	c6 85 58 fc ff ff f6 	movb   $0xf6,-0x3a8(%rbp)
    bacb:	c6 85 60 fc ff ff 95 	movb   $0x95,-0x3a0(%rbp)
    bad2:	c6 85 68 fc ff ff 63 	movb   $0x63,-0x398(%rbp)
    bad9:	c6 85 70 fc ff ff dc 	movb   $0xdc,-0x390(%rbp)
    bae0:	c6 85 78 fc ff ff 02 	movb   $0x2,-0x388(%rbp)
    bae7:	c6 85 80 fc ff ff 63 	movb   $0x63,-0x380(%rbp)
    baee:	c6 85 88 fc ff ff 83 	movb   $0x83,-0x378(%rbp)
    baf5:	c6 85 90 fc ff ff cb 	movb   $0xcb,-0x370(%rbp)
    bafc:	c6 85 a0 fc ff ff 02 	movb   $0x2,-0x360(%rbp)
    bb03:	c6 85 a8 fc ff ff 07 	movb   $0x7,-0x358(%rbp)
    bb0a:	c6 85 b0 fc ff ff 07 	movb   $0x7,-0x350(%rbp)
    bb11:	c6 85 b8 fc ff ff dc 	movb   $0xdc,-0x348(%rbp)
    bb18:	c6 85 c0 fc ff ff 98 	movb   $0x98,-0x340(%rbp)
    bb1f:	c6 85 c8 fc ff ff b4 	movb   $0xb4,-0x338(%rbp)
    bb26:	c6 85 d8 fc ff ff 07 	movb   $0x7,-0x328(%rbp)
    bb2d:	c6 85 e0 fc ff ff ff 	movb   $0xff,-0x320(%rbp)
    bb34:	c6 85 e8 fc ff ff cc 	movb   $0xcc,-0x318(%rbp)
    bb3b:	c6 85 f0 fc ff ff cb 	movb   $0xcb,-0x310(%rbp)
    bb42:	c6 85 f8 fc ff ff 01 	movb   $0x1,-0x308(%rbp)
    bb49:	c6 85 00 fd ff ff a7 	movb   $0xa7,-0x300(%rbp)
    bb50:	c6 85 08 fd ff ff 02 	movb   $0x2,-0x2f8(%rbp)
    bb57:	c6 85 10 fd ff ff b4 	movb   $0xb4,-0x2f0(%rbp)
    bb5e:	c6 85 18 fd ff ff a7 	movb   $0xa7,-0x2e8(%rbp)
    bb65:	c6 85 20 fd ff ff 95 	movb   $0x95,-0x2e0(%rbp)
    bb6c:	c6 85 28 fd ff ff 05 	movb   $0x5,-0x2d8(%rbp)
    bb73:	c6 85 30 fd ff ff 1a 	movb   $0x1a,-0x2d0(%rbp)
    bb7a:	c6 85 38 fd ff ff 63 	movb   $0x63,-0x2c8(%rbp)
    bb81:	c6 85 40 fd ff ff b4 	movb   $0xb4,-0x2c0(%rbp)
    bb88:	c6 85 48 fd ff ff ff 	movb   $0xff,-0x2b8(%rbp)
    bb8f:	c6 85 50 fd ff ff 63 	movb   $0x63,-0x2b0(%rbp)
    bb96:	c6 85 58 fd ff ff 01 	movb   $0x1,-0x2a8(%rbp)
    bb9d:	c6 85 60 fd ff ff 44 	movb   $0x44,-0x2a0(%rbp)
    bba4:	c6 85 70 fd ff ff ff 	movb   $0xff,-0x290(%rbp)
    bbab:	c6 85 80 fd ff ff 07 	movb   $0x7,-0x280(%rbp)
    bbb2:	c6 85 88 fd ff ff b4 	movb   $0xb4,-0x278(%rbp)
    bbb9:	c6 85 90 fd ff ff 50 	movb   $0x50,-0x270(%rbp)
    bbc0:	c6 85 98 fd ff ff b4 	movb   $0xb4,-0x268(%rbp)
    bbc7:	c6 85 a0 fd ff ff 07 	movb   $0x7,-0x260(%rbp)
    bbce:	c6 85 b0 fd ff ff ff 	movb   $0xff,-0x250(%rbp)
    bbd5:	c6 85 c0 fd ff ff 44 	movb   $0x44,-0x240(%rbp)
    bbdc:	c6 85 c8 fd ff ff 01 	movb   $0x1,-0x238(%rbp)
    bbe3:	c6 85 d0 fd ff ff 63 	movb   $0x63,-0x230(%rbp)
    bbea:	c6 85 d8 fd ff ff ff 	movb   $0xff,-0x228(%rbp)
    bbf1:	c6 85 e0 fd ff ff b4 	movb   $0xb4,-0x220(%rbp)
    bbf8:	c6 85 e8 fd ff ff 63 	movb   $0x63,-0x218(%rbp)
    bbff:	c6 85 f0 fd ff ff 1a 	movb   $0x1a,-0x210(%rbp)
    bc06:	c6 85 f8 fd ff ff 05 	movb   $0x5,-0x208(%rbp)
    bc0d:	c6 85 00 fe ff ff 95 	movb   $0x95,-0x200(%rbp)
    bc14:	c6 85 08 fe ff ff a7 	movb   $0xa7,-0x1f8(%rbp)
    bc1b:	c6 85 10 fe ff ff b4 	movb   $0xb4,-0x1f0(%rbp)
    bc22:	c6 85 18 fe ff ff 02 	movb   $0x2,-0x1e8(%rbp)
    bc29:	c6 85 20 fe ff ff a7 	movb   $0xa7,-0x1e0(%rbp)
    bc30:	c6 85 28 fe ff ff 01 	movb   $0x1,-0x1d8(%rbp)
    bc37:	c6 85 30 fe ff ff cb 	movb   $0xcb,-0x1d0(%rbp)
    bc3e:	c6 85 38 fe ff ff cc 	movb   $0xcc,-0x1c8(%rbp)
    bc45:	c6 85 40 fe ff ff ff 	movb   $0xff,-0x1c0(%rbp)
    bc4c:	c6 85 48 fe ff ff 07 	movb   $0x7,-0x1b8(%rbp)
    bc53:	c6 85 58 fe ff ff b4 	movb   $0xb4,-0x1a8(%rbp)
    bc5a:	c6 85 60 fe ff ff 98 	movb   $0x98,-0x1a0(%rbp)
    bc61:	c6 85 68 fe ff ff dc 	movb   $0xdc,-0x198(%rbp)
    bc68:	c6 85 70 fe ff ff 07 	movb   $0x7,-0x190(%rbp)
    bc6f:	c6 85 78 fe ff ff 07 	movb   $0x7,-0x188(%rbp)
    bc76:	c6 85 80 fe ff ff 02 	movb   $0x2,-0x180(%rbp)
    bc7d:	c6 85 90 fe ff ff cb 	movb   $0xcb,-0x170(%rbp)
    bc84:	c6 85 98 fe ff ff 83 	movb   $0x83,-0x168(%rbp)
    bc8b:	c6 85 a0 fe ff ff 63 	movb   $0x63,-0x160(%rbp)
    bc92:	c6 85 a8 fe ff ff 02 	movb   $0x2,-0x158(%rbp)
    bc99:	c6 85 b0 fe ff ff dc 	movb   $0xdc,-0x150(%rbp)
    bca0:	c6 85 b8 fe ff ff 63 	movb   $0x63,-0x148(%rbp)
    bca7:	c6 85 c0 fe ff ff 95 	movb   $0x95,-0x140(%rbp)
    bcae:	c6 85 c8 fe ff ff f6 	movb   $0xf6,-0x138(%rbp)
    bcb5:	c6 85 d0 fe ff ff 95 	movb   $0x95,-0x130(%rbp)
    bcbc:	c6 85 d8 fe ff ff 63 	movb   $0x63,-0x128(%rbp)
    bcc3:	c6 85 e0 fe ff ff dc 	movb   $0xdc,-0x120(%rbp)
    bcca:	c6 85 e8 fe ff ff 02 	movb   $0x2,-0x118(%rbp)
    bcd1:	c6 85 f0 fe ff ff 63 	movb   $0x63,-0x110(%rbp)
    bcd8:	c6 85 f8 fe ff ff 83 	movb   $0x83,-0x108(%rbp)
    bcdf:	c6 85 00 ff ff ff cb 	movb   $0xcb,-0x100(%rbp)
    bce6:	c6 85 10 ff ff ff 02 	movb   $0x2,-0xf0(%rbp)
    bced:	c6 85 18 ff ff ff 07 	movb   $0x7,-0xe8(%rbp)
    bcf4:	c6 85 20 ff ff ff 07 	movb   $0x7,-0xe0(%rbp)
    bcfb:	c6 85 28 ff ff ff dc 	movb   $0xdc,-0xd8(%rbp)
    bd02:	c6 85 30 ff ff ff 98 	movb   $0x98,-0xd0(%rbp)
    bd09:	c6 85 38 ff ff ff b4 	movb   $0xb4,-0xc8(%rbp)
    bd10:	c6 85 48 ff ff ff 07 	movb   $0x7,-0xb8(%rbp)
    bd17:	c6 85 50 ff ff ff ff 	movb   $0xff,-0xb0(%rbp)
    bd1e:	c6 85 58 ff ff ff cc 	movb   $0xcc,-0xa8(%rbp)
    bd25:	c6 85 60 ff ff ff cb 	movb   $0xcb,-0xa0(%rbp)
    bd2c:	c6 85 68 ff ff ff 01 	movb   $0x1,-0x98(%rbp)
    bd33:	c6 85 70 ff ff ff a7 	movb   $0xa7,-0x90(%rbp)
    bd3a:	c6 85 78 ff ff ff 02 	movb   $0x2,-0x88(%rbp)
    bd41:	c6 45 80 b4          	movb   $0xb4,-0x80(%rbp)
    bd45:	c6 45 88 a7          	movb   $0xa7,-0x78(%rbp)
    bd49:	c6 45 90 95          	movb   $0x95,-0x70(%rbp)
    bd4d:	c6 45 98 a7          	movb   $0xa7,-0x68(%rbp)
    bd51:	c6 45 a0 fa          	movb   $0xfa,-0x60(%rbp)
    bd55:	c6 45 a8 02          	movb   $0x2,-0x58(%rbp)
    bd59:	c6 45 b0 50          	movb   $0x50,-0x50(%rbp)
    bd5d:	c6 45 b8 ff          	movb   $0xff,-0x48(%rbp)
    bd61:	48 8d 05 68 25 01 00 	lea    0x12568(%rip),%rax        # 1e2d0 <g_759>
    bd68:	48 89 85 a8 f3 ff ff 	mov    %rax,-0xc58(%rbp)
    bd6f:	48 8d 85 60 f8 ff ff 	lea    -0x7a0(%rbp),%rax
    bd76:	48 8d 15 e3 25 01 00 	lea    0x125e3(%rip),%rdx        # 1e360 <g_2753+0x14>
    bd7d:	b9 23 00 00 00       	mov    $0x23,%ecx
    bd82:	48 89 c7             	mov    %rax,%rdi
    bd85:	48 89 d6             	mov    %rdx,%rsi
    bd88:	f3 48 a5             	rep movsq %ds:(%rsi),%es:(%rdi)
    bd8b:	48 8d 05 a8 24 01 00 	lea    0x124a8(%rip),%rax        # 1e23a <g_198+0x1a>
    bd92:	48 89 85 40 f5 ff ff 	mov    %rax,-0xac0(%rbp)
    bd99:	48 8d 05 9a 24 01 00 	lea    0x1249a(%rip),%rax        # 1e23a <g_198+0x1a>
    bda0:	48 89 85 48 f5 ff ff 	mov    %rax,-0xab8(%rbp)
    bda7:	48 8d 05 8c 24 01 00 	lea    0x1248c(%rip),%rax        # 1e23a <g_198+0x1a>
    bdae:	48 89 85 50 f5 ff ff 	mov    %rax,-0xab0(%rbp)
    bdb5:	48 8d 05 7e 24 01 00 	lea    0x1247e(%rip),%rax        # 1e23a <g_198+0x1a>
    bdbc:	48 89 85 58 f5 ff ff 	mov    %rax,-0xaa8(%rbp)
    bdc3:	48 8d 05 ee 24 01 00 	lea    0x124ee(%rip),%rax        # 1e2b8 <g_583>
    bdca:	48 89 85 60 f7 ff ff 	mov    %rax,-0x8a0(%rbp)
    bdd1:	48 8d 05 e0 24 01 00 	lea    0x124e0(%rip),%rax        # 1e2b8 <g_583>
    bdd8:	48 89 85 68 f7 ff ff 	mov    %rax,-0x898(%rbp)
    bddf:	48 8d 05 d2 24 01 00 	lea    0x124d2(%rip),%rax        # 1e2b8 <g_583>
    bde6:	48 89 85 70 f7 ff ff 	mov    %rax,-0x890(%rbp)
    bded:	48 8d 05 c4 24 01 00 	lea    0x124c4(%rip),%rax        # 1e2b8 <g_583>
    bdf4:	48 89 85 78 f7 ff ff 	mov    %rax,-0x888(%rbp)
    bdfb:	48 8d 05 b6 24 01 00 	lea    0x124b6(%rip),%rax        # 1e2b8 <g_583>
    be02:	48 89 85 80 f7 ff ff 	mov    %rax,-0x880(%rbp)
    be09:	48 8d 05 a8 24 01 00 	lea    0x124a8(%rip),%rax        # 1e2b8 <g_583>
    be10:	48 89 85 88 f7 ff ff 	mov    %rax,-0x878(%rbp)
    be17:	48 8d 05 9a 24 01 00 	lea    0x1249a(%rip),%rax        # 1e2b8 <g_583>
    be1e:	48 89 85 90 f7 ff ff 	mov    %rax,-0x870(%rbp)
    be25:	48 8d 05 8c 24 01 00 	lea    0x1248c(%rip),%rax        # 1e2b8 <g_583>
    be2c:	48 89 85 98 f7 ff ff 	mov    %rax,-0x868(%rbp)
    be33:	48 8d 05 7e 24 01 00 	lea    0x1247e(%rip),%rax        # 1e2b8 <g_583>
    be3a:	48 89 85 a0 f7 ff ff 	mov    %rax,-0x860(%rbp)
    be41:	48 8d 05 70 24 01 00 	lea    0x12470(%rip),%rax        # 1e2b8 <g_583>
    be48:	48 89 85 a8 f7 ff ff 	mov    %rax,-0x858(%rbp)
    be4f:	48 8d 05 62 24 01 00 	lea    0x12462(%rip),%rax        # 1e2b8 <g_583>
    be56:	48 89 85 b0 f7 ff ff 	mov    %rax,-0x850(%rbp)
    be5d:	48 8d 05 54 24 01 00 	lea    0x12454(%rip),%rax        # 1e2b8 <g_583>
    be64:	48 89 85 b8 f7 ff ff 	mov    %rax,-0x848(%rbp)
    be6b:	48 8d 05 46 24 01 00 	lea    0x12446(%rip),%rax        # 1e2b8 <g_583>
    be72:	48 89 85 c0 f7 ff ff 	mov    %rax,-0x840(%rbp)
    be79:	48 8d 05 38 24 01 00 	lea    0x12438(%rip),%rax        # 1e2b8 <g_583>
    be80:	48 89 85 c8 f7 ff ff 	mov    %rax,-0x838(%rbp)
    be87:	48 8d 05 2a 24 01 00 	lea    0x1242a(%rip),%rax        # 1e2b8 <g_583>
    be8e:	48 89 85 d0 f7 ff ff 	mov    %rax,-0x830(%rbp)
    be95:	48 8d 05 1c 24 01 00 	lea    0x1241c(%rip),%rax        # 1e2b8 <g_583>
    be9c:	48 89 85 d8 f7 ff ff 	mov    %rax,-0x828(%rbp)
    bea3:	48 8d 05 0e 24 01 00 	lea    0x1240e(%rip),%rax        # 1e2b8 <g_583>
    beaa:	48 89 85 e0 f7 ff ff 	mov    %rax,-0x820(%rbp)
    beb1:	48 8d 05 00 24 01 00 	lea    0x12400(%rip),%rax        # 1e2b8 <g_583>
    beb8:	48 89 85 e8 f7 ff ff 	mov    %rax,-0x818(%rbp)
    bebf:	48 8d 05 f2 23 01 00 	lea    0x123f2(%rip),%rax        # 1e2b8 <g_583>
    bec6:	48 89 85 f0 f7 ff ff 	mov    %rax,-0x810(%rbp)
    becd:	48 8d 05 e4 23 01 00 	lea    0x123e4(%rip),%rax        # 1e2b8 <g_583>
    bed4:	48 89 85 f8 f7 ff ff 	mov    %rax,-0x808(%rbp)
    bedb:	48 8d 05 d6 23 01 00 	lea    0x123d6(%rip),%rax        # 1e2b8 <g_583>
    bee2:	48 89 85 00 f8 ff ff 	mov    %rax,-0x800(%rbp)
    bee9:	48 8d 05 c8 23 01 00 	lea    0x123c8(%rip),%rax        # 1e2b8 <g_583>
    bef0:	48 89 85 08 f8 ff ff 	mov    %rax,-0x7f8(%rbp)
    bef7:	48 8d 05 ba 23 01 00 	lea    0x123ba(%rip),%rax        # 1e2b8 <g_583>
    befe:	48 89 85 10 f8 ff ff 	mov    %rax,-0x7f0(%rbp)
    bf05:	48 8d 05 ac 23 01 00 	lea    0x123ac(%rip),%rax        # 1e2b8 <g_583>
    bf0c:	48 89 85 18 f8 ff ff 	mov    %rax,-0x7e8(%rbp)
    bf13:	48 8d 05 9e 23 01 00 	lea    0x1239e(%rip),%rax        # 1e2b8 <g_583>
    bf1a:	48 89 85 20 f8 ff ff 	mov    %rax,-0x7e0(%rbp)
    bf21:	48 8d 05 90 23 01 00 	lea    0x12390(%rip),%rax        # 1e2b8 <g_583>
    bf28:	48 89 85 28 f8 ff ff 	mov    %rax,-0x7d8(%rbp)
    bf2f:	48 8d 05 82 23 01 00 	lea    0x12382(%rip),%rax        # 1e2b8 <g_583>
    bf36:	48 89 85 30 f8 ff ff 	mov    %rax,-0x7d0(%rbp)
    bf3d:	48 8d 05 74 23 01 00 	lea    0x12374(%rip),%rax        # 1e2b8 <g_583>
    bf44:	48 89 85 38 f8 ff ff 	mov    %rax,-0x7c8(%rbp)
    bf4b:	48 8d 05 66 23 01 00 	lea    0x12366(%rip),%rax        # 1e2b8 <g_583>
    bf52:	48 89 85 40 f8 ff ff 	mov    %rax,-0x7c0(%rbp)
    bf59:	48 8d 05 58 23 01 00 	lea    0x12358(%rip),%rax        # 1e2b8 <g_583>
    bf60:	48 89 85 48 f8 ff ff 	mov    %rax,-0x7b8(%rbp)
    bf67:	48 8d 05 4a 23 01 00 	lea    0x1234a(%rip),%rax        # 1e2b8 <g_583>
    bf6e:	48 89 85 50 f8 ff ff 	mov    %rax,-0x7b0(%rbp)
    bf75:	48 8d 05 3c 23 01 00 	lea    0x1233c(%rip),%rax        # 1e2b8 <g_583>
    bf7c:	48 89 85 58 f8 ff ff 	mov    %rax,-0x7a8(%rbp)
    bf83:	48 8d 05 fe 37 01 00 	lea    0x137fe(%rip),%rax        # 1f788 <g_531>
    bf8a:	48 89 85 f0 f5 ff ff 	mov    %rax,-0xa10(%rbp)
    bf91:	48 8d 05 f0 37 01 00 	lea    0x137f0(%rip),%rax        # 1f788 <g_531>
    bf98:	48 89 85 f8 f5 ff ff 	mov    %rax,-0xa08(%rbp)
    bf9f:	48 8d 05 e2 37 01 00 	lea    0x137e2(%rip),%rax        # 1f788 <g_531>
    bfa6:	48 89 85 00 f6 ff ff 	mov    %rax,-0xa00(%rbp)
    bfad:	48 8d 05 d4 37 01 00 	lea    0x137d4(%rip),%rax        # 1f788 <g_531>
    bfb4:	48 89 85 08 f6 ff ff 	mov    %rax,-0x9f8(%rbp)
    bfbb:	48 8d 05 c6 37 01 00 	lea    0x137c6(%rip),%rax        # 1f788 <g_531>
    bfc2:	48 89 85 10 f6 ff ff 	mov    %rax,-0x9f0(%rbp)
    bfc9:	48 8d 05 b8 37 01 00 	lea    0x137b8(%rip),%rax        # 1f788 <g_531>
    bfd0:	48 89 85 18 f6 ff ff 	mov    %rax,-0x9e8(%rbp)
    bfd7:	48 8d 05 aa 37 01 00 	lea    0x137aa(%rip),%rax        # 1f788 <g_531>
    bfde:	48 89 85 20 f6 ff ff 	mov    %rax,-0x9e0(%rbp)
    bfe5:	48 8d 05 9c 37 01 00 	lea    0x1379c(%rip),%rax        # 1f788 <g_531>
    bfec:	48 89 85 28 f6 ff ff 	mov    %rax,-0x9d8(%rbp)
    bff3:	48 8d 85 f0 f5 ff ff 	lea    -0xa10(%rbp),%rax
    bffa:	48 83 c0 30          	add    $0x30,%rax
    bffe:	48 89 85 b0 f3 ff ff 	mov    %rax,-0xc50(%rbp)
    c005:	48 8d 85 80 f9 ff ff 	lea    -0x680(%rbp),%rax
    c00c:	48 05 c0 03 00 00    	add    $0x3c0,%rax
    c012:	48 89 85 78 f3 ff ff 	mov    %rax,-0xc88(%rbp)
    c019:	48 8d 85 78 f3 ff ff 	lea    -0xc88(%rbp),%rax
    c020:	48 89 85 b8 f3 ff ff 	mov    %rax,-0xc48(%rbp)
    c027:	48 c7 85 80 f3 ff ff 	movq   $0x0,-0xc80(%rbp)
    c02e:	00 00 00 00 
    c032:	48 8d 85 80 f3 ff ff 	lea    -0xc80(%rbp),%rax
    c039:	48 89 85 c0 f3 ff ff 	mov    %rax,-0xc40(%rbp)
    c040:	48 c7 85 c8 f3 ff ff 	movq   $0x0,-0xc38(%rbp)
    c047:	00 00 00 00 
    c04b:	c7 85 30 f3 ff ff ff 	movl   $0xffffffff,-0xcd0(%rbp)
    c052:	ff ff ff 
    c055:	c7 85 34 f3 ff ff 4a 	movl   $0xcd3f144a,-0xccc(%rbp)
    c05c:	14 3f cd 
    c05f:	c7 85 38 f3 ff ff fd 	movl   $0xfffffffd,-0xcc8(%rbp)
    c066:	ff ff ff 
    c069:	48 8d 05 d0 44 01 00 	lea    0x144d0(%rip),%rax        # 20540 <g_1447+0x5c0>
    c070:	48 89 85 d0 f3 ff ff 	mov    %rax,-0xc30(%rbp)
    c077:	c7 85 fc f2 ff ff 00 	movl   $0x0,-0xd04(%rbp)
    c07e:	00 00 00 
    c081:	eb 1a                	jmp    c09d <func_20+0x8b4>
    c083:	8b 85 fc f2 ff ff    	mov    -0xd04(%rbp),%eax
    c089:	48 98                	cltq   
    c08b:	c7 84 85 00 f5 ff ff 	movl   $0x8952f889,-0xb00(%rbp,%rax,4)
    c092:	89 f8 52 89 
    c096:	83 85 fc f2 ff ff 01 	addl   $0x1,-0xd04(%rbp)
    c09d:	83 bd fc f2 ff ff 01 	cmpl   $0x1,-0xd04(%rbp)
    c0a4:	7e dd                	jle    c083 <func_20+0x89a>
    c0a6:	c7 85 fc f2 ff ff 00 	movl   $0x0,-0xd04(%rbp)
    c0ad:	00 00 00 
    c0b0:	eb 14                	jmp    c0c6 <func_20+0x8dd>
    c0b2:	8b 85 fc f2 ff ff    	mov    -0xd04(%rbp),%eax
    c0b8:	48 98                	cltq   
    c0ba:	c6 44 05 c5 ff       	movb   $0xff,-0x3b(%rbp,%rax,1)
    c0bf:	83 85 fc f2 ff ff 01 	addl   $0x1,-0xd04(%rbp)
    c0c6:	83 bd fc f2 ff ff 02 	cmpl   $0x2,-0xd04(%rbp)
    c0cd:	7e e3                	jle    c0b2 <func_20+0x8c9>
    c0cf:	c6 05 76 1f 01 00 fb 	movb   $0xfb,0x11f76(%rip)        # 1e04c <g_90>
    c0d6:	e9 40 02 00 00       	jmpq   c31b <func_20+0xb32>
    c0db:	48 8d 05 46 22 01 00 	lea    0x12246(%rip),%rax        # 1e328 <g_1151>
    c0e2:	48 89 85 70 f6 ff ff 	mov    %rax,-0x990(%rbp)
    c0e9:	48 8d 05 38 22 01 00 	lea    0x12238(%rip),%rax        # 1e328 <g_1151>
    c0f0:	48 89 85 78 f6 ff ff 	mov    %rax,-0x988(%rbp)
    c0f7:	48 8d 05 2a 22 01 00 	lea    0x1222a(%rip),%rax        # 1e328 <g_1151>
    c0fe:	48 89 85 80 f6 ff ff 	mov    %rax,-0x980(%rbp)
    c105:	48 8d 05 1c 22 01 00 	lea    0x1221c(%rip),%rax        # 1e328 <g_1151>
    c10c:	48 89 85 88 f6 ff ff 	mov    %rax,-0x978(%rbp)
    c113:	48 8d 05 0e 22 01 00 	lea    0x1220e(%rip),%rax        # 1e328 <g_1151>
    c11a:	48 89 85 90 f6 ff ff 	mov    %rax,-0x970(%rbp)
    c121:	48 8d 05 00 22 01 00 	lea    0x12200(%rip),%rax        # 1e328 <g_1151>
    c128:	48 89 85 98 f6 ff ff 	mov    %rax,-0x968(%rbp)
    c12f:	48 8d 05 f2 21 01 00 	lea    0x121f2(%rip),%rax        # 1e328 <g_1151>
    c136:	48 89 85 a0 f6 ff ff 	mov    %rax,-0x960(%rbp)
    c13d:	48 8d 05 e4 21 01 00 	lea    0x121e4(%rip),%rax        # 1e328 <g_1151>
    c144:	48 89 85 a8 f6 ff ff 	mov    %rax,-0x958(%rbp)
    c14b:	48 8d 05 7e 21 01 00 	lea    0x1217e(%rip),%rax        # 1e2d0 <g_759>
    c152:	48 89 85 e8 f4 ff ff 	mov    %rax,-0xb18(%rbp)
    c159:	c7 85 74 f3 ff ff b7 	movl   $0xf3909fb7,-0xc8c(%rbp)
    c160:	9f 90 f3 
    c163:	48 8d 05 28 21 01 00 	lea    0x12128(%rip),%rax        # 1e292 <g_395+0x32>
    c16a:	48 89 85 f0 f4 ff ff 	mov    %rax,-0xb10(%rbp)
    c171:	48 8d 05 78 21 01 00 	lea    0x12178(%rip),%rax        # 1e2f0 <g_809+0x10>
    c178:	48 89 85 f8 f4 ff ff 	mov    %rax,-0xb08(%rbp)
    c17f:	8b 85 dc f2 ff ff    	mov    -0xd24(%rbp),%eax
    c185:	0f b7 d8             	movzwl %ax,%ebx
    c188:	8b 05 b6 f5 00 00    	mov    0xf5b6(%rip),%eax        # 1b744 <l_1902.4582+0x24>
    c18e:	4c 63 e0             	movslq %eax,%r12
    c191:	8b 05 a9 20 01 00    	mov    0x120a9(%rip),%eax        # 1e240 <g_220>
    c197:	89 c0                	mov    %eax,%eax
    c199:	48 39 85 d0 f2 ff ff 	cmp    %rax,-0xd30(%rbp)
    c1a0:	0f 97 c0             	seta   %al
    c1a3:	44 0f b6 f0          	movzbl %al,%r14d
    c1a7:	44 8b ad 30 f5 ff ff 	mov    -0xad0(%rbp),%r13d
    c1ae:	8b 05 88 21 01 00    	mov    0x12188(%rip),%eax        # 1e33c <g_1903>
    c1b4:	85 c0                	test   %eax,%eax
    c1b6:	75 72                	jne    c22a <func_20+0xa41>
    c1b8:	8b 85 30 f5 ff ff    	mov    -0xad0(%rbp),%eax
    c1be:	41 89 c7             	mov    %eax,%r15d
    c1c1:	48 8b 85 e8 f4 ff ff 	mov    -0xb18(%rbp),%rax
    c1c8:	0f b6 00             	movzbl (%rax),%eax
    c1cb:	8d 48 01             	lea    0x1(%rax),%ecx
    c1ce:	48 8b 95 e8 f4 ff ff 	mov    -0xb18(%rbp),%rdx
    c1d5:	88 0a                	mov    %cl,(%rdx)
    c1d7:	0f b6 d0             	movzbl %al,%edx
    c1da:	8b 85 30 f5 ff ff    	mov    -0xad0(%rbp),%eax
    c1e0:	39 c2                	cmp    %eax,%edx
    c1e2:	0f 95 c0             	setne  %al
    c1e5:	0f b6 c0             	movzbl %al,%eax
    c1e8:	be f8 a3 28 4f       	mov    $0x4f28a3f8,%esi
    c1ed:	89 c7                	mov    %eax,%edi
    c1ef:	e8 d8 a4 ff ff       	callq  66cc <safe_mod_func_int32_t_s_s>
    c1f4:	83 f8 24             	cmp    $0x24,%eax
    c1f7:	0f 95 c0             	setne  %al
    c1fa:	0f b6 c0             	movzbl %al,%eax
    c1fd:	4c 89 fe             	mov    %r15,%rsi
    c200:	48 89 c7             	mov    %rax,%rdi
    c203:	e8 39 a6 ff ff       	callq  6841 <safe_add_func_int64_t_s_s>
    c208:	0f b7 15 f5 1f 01 00 	movzwl 0x11ff5(%rip),%edx        # 1e204 <g_196+0x4>
    c20f:	0f b7 d2             	movzwl %dx,%edx
    c212:	48 39 d0             	cmp    %rdx,%rax
    c215:	0f 9f c0             	setg   %al
    c218:	0f b6 c0             	movzbl %al,%eax
    c21b:	89 85 74 f3 ff ff    	mov    %eax,-0xc8c(%rbp)
    c221:	83 bd 74 f3 ff ff 00 	cmpl   $0x0,-0xc8c(%rbp)
    c228:	74 07                	je     c231 <func_20+0xa48>
    c22a:	b8 01 00 00 00       	mov    $0x1,%eax
    c22f:	eb 05                	jmp    c236 <func_20+0xa4d>
    c231:	b8 00 00 00 00       	mov    $0x0,%eax
    c236:	0f be d0             	movsbl %al,%edx
    c239:	8b 05 15 f5 00 00    	mov    0xf515(%rip),%eax        # 1b754 <l_1902.4582+0x34>
    c23f:	0f be c0             	movsbl %al,%eax
    c242:	89 d6                	mov    %edx,%esi
    c244:	89 c7                	mov    %eax,%edi
    c246:	e8 c7 9f ff ff       	callq  6212 <safe_mul_func_int8_t_s_s>
    c24b:	66 0f be d0          	movsbw %al,%dx
    c24f:	48 8b 85 f0 f4 ff ff 	mov    -0xb10(%rbp),%rax
    c256:	66 89 10             	mov    %dx,(%rax)
    c259:	8b 85 cc f2 ff ff    	mov    -0xd34(%rbp),%eax
    c25f:	89 85 00 f5 ff ff    	mov    %eax,-0xb00(%rbp)
    c265:	8b 95 00 f5 ff ff    	mov    -0xb00(%rbp),%edx
    c26b:	0f b6 05 b7 20 01 00 	movzbl 0x120b7(%rip),%eax        # 1e329 <g_1228>
    c272:	f7 d0                	not    %eax
    c274:	88 05 af 20 01 00    	mov    %al,0x120af(%rip)        # 1e329 <g_1228>
    c27a:	0f b6 05 a8 20 01 00 	movzbl 0x120a8(%rip),%eax        # 1e329 <g_1228>
    c281:	0f be c0             	movsbl %al,%eax
    c284:	89 d6                	mov    %edx,%esi
    c286:	89 c7                	mov    %eax,%edi
    c288:	e8 a8 a0 ff ff       	callq  6335 <safe_rshift_func_int8_t_s_s>
    c28d:	0f be c0             	movsbl %al,%eax
    c290:	be 01 00 00 00       	mov    $0x1,%esi
    c295:	89 c7                	mov    %eax,%edi
    c297:	e8 05 a0 ff ff       	callq  62a1 <safe_lshift_func_int8_t_s_s>
    c29c:	0f be c0             	movsbl %al,%eax
    c29f:	44 89 ee             	mov    %r13d,%esi
    c2a2:	89 c7                	mov    %eax,%edi
    c2a4:	e8 54 ac ff ff       	callq  6efd <safe_mod_func_uint32_t_u_u>
    c2a9:	44 89 f2             	mov    %r14d,%edx
    c2ac:	31 c2                	xor    %eax,%edx
    c2ae:	8b 85 30 f5 ff ff    	mov    -0xad0(%rbp),%eax
    c2b4:	39 c2                	cmp    %eax,%edx
    c2b6:	0f 94 c0             	sete   %al
    c2b9:	0f b6 c0             	movzbl %al,%eax
    c2bc:	4c 89 e6             	mov    %r12,%rsi
    c2bf:	48 89 c7             	mov    %rax,%rdi
    c2c2:	e8 ed a6 ff ff       	callq  69b4 <safe_mod_func_int64_t_s_s>
    c2c7:	0f b7 c0             	movzwl %ax,%eax
    c2ca:	89 de                	mov    %ebx,%esi
    c2cc:	89 c7                	mov    %eax,%edi
    c2ce:	e8 bb aa ff ff       	callq  6d8e <safe_div_func_uint16_t_u_u>
    c2d3:	48 8b 85 f8 f4 ff ff 	mov    -0xb08(%rbp),%rax
    c2da:	c7 00 00 00 00 00    	movl   $0x0,(%rax)
    c2e0:	48 8b 85 f8 f4 ff ff 	mov    -0xb08(%rbp),%rax
    c2e7:	8b 00                	mov    (%rax),%eax
    c2e9:	8b 15 65 f4 00 00    	mov    0xf465(%rip),%edx        # 1b754 <l_1902.4582+0x34>
    c2ef:	39 d0                	cmp    %edx,%eax
    c2f1:	0f 96 c0             	setbe  %al
    c2f4:	0f b6 c8             	movzbl %al,%ecx
    c2f7:	48 8b 05 2a 35 01 00 	mov    0x1352a(%rip),%rax        # 1f828 <g_840>
    c2fe:	8b 10                	mov    (%rax),%edx
    c300:	48 8b 05 21 35 01 00 	mov    0x13521(%rip),%rax        # 1f828 <g_840>
    c307:	09 ca                	or     %ecx,%edx
    c309:	89 10                	mov    %edx,(%rax)
    c30b:	0f b6 05 3a 1d 01 00 	movzbl 0x11d3a(%rip),%eax        # 1e04c <g_90>
    c312:	83 c0 01             	add    $0x1,%eax
    c315:	88 05 31 1d 01 00    	mov    %al,0x11d31(%rip)        # 1e04c <g_90>
    c31b:	0f b6 05 2a 1d 01 00 	movzbl 0x11d2a(%rip),%eax        # 1e04c <g_90>
    c322:	3c 08                	cmp    $0x8,%al
    c324:	0f 86 b1 fd ff ff    	jbe    c0db <func_20+0x8f2>
    c32a:	8b 85 30 f5 ff ff    	mov    -0xad0(%rbp),%eax
    c330:	0f be d8             	movsbl %al,%ebx
    c333:	8b 85 30 f5 ff ff    	mov    -0xad0(%rbp),%eax
    c339:	85 c0                	test   %eax,%eax
    c33b:	0f 84 bc 01 00 00    	je     c4fd <func_20+0xd14>
    c341:	8b 85 d8 f2 ff ff    	mov    -0xd28(%rbp),%eax
    c347:	44 0f be e0          	movsbl %al,%r12d
    c34b:	44 8b ad 30 f5 ff ff 	mov    -0xad0(%rbp),%r13d
    c352:	8b 85 d8 f2 ff ff    	mov    -0xd28(%rbp),%eax
    c358:	44 0f be f0          	movsbl %al,%r14d
    c35c:	8b 85 cc f2 ff ff    	mov    -0xd34(%rbp),%eax
    c362:	4c 63 f8             	movslq %eax,%r15
    c365:	8b 85 00 f5 ff ff    	mov    -0xb00(%rbp),%eax
    c36b:	0f b6 c0             	movzbl %al,%eax
    c36e:	89 85 c8 f2 ff ff    	mov    %eax,-0xd38(%rbp)
    c374:	8b 8d 04 f5 ff ff    	mov    -0xafc(%rbp),%ecx
    c37a:	89 8d bc f2 ff ff    	mov    %ecx,-0xd44(%rbp)
    c380:	8b bd 00 f5 ff ff    	mov    -0xb00(%rbp),%edi
    c386:	89 bd b8 f2 ff ff    	mov    %edi,-0xd48(%rbp)
    c38c:	48 8b 85 e8 f8 ff ff 	mov    -0x718(%rbp),%rax
    c393:	48 85 c0             	test   %rax,%rax
    c396:	0f 95 c0             	setne  %al
    c399:	0f b6 d0             	movzbl %al,%edx
    c39c:	8b 85 30 f5 ff ff    	mov    -0xad0(%rbp),%eax
    c3a2:	39 c2                	cmp    %eax,%edx
    c3a4:	0f 92 c0             	setb   %al
    c3a7:	0f b6 c0             	movzbl %al,%eax
    c3aa:	be 07 00 00 00       	mov    $0x7,%esi
    c3af:	89 c7                	mov    %eax,%edi
    c3b1:	e8 ad a1 ff ff       	callq  6563 <safe_rshift_func_int16_t_s_u>
    c3b6:	0f be c0             	movsbl %al,%eax
    c3b9:	8b b5 b8 f2 ff ff    	mov    -0xd48(%rbp),%esi
    c3bf:	89 c7                	mov    %eax,%edi
    c3c1:	e8 6f 9f ff ff       	callq  6335 <safe_rshift_func_int8_t_s_s>
    c3c6:	0f b6 15 5c 1f 01 00 	movzbl 0x11f5c(%rip),%edx        # 1e329 <g_1228>
    c3cd:	38 d0                	cmp    %dl,%al
    c3cf:	0f 9e c0             	setle  %al
    c3d2:	0f b6 c0             	movzbl %al,%eax
    c3d5:	8b b5 bc f2 ff ff    	mov    -0xd44(%rbp),%esi
    c3db:	89 c7                	mov    %eax,%edi
    c3dd:	e8 66 aa ff ff       	callq  6e48 <safe_rshift_func_uint16_t_u_s>
    c3e2:	0f b6 c0             	movzbl %al,%eax
    c3e5:	8b b5 c8 f2 ff ff    	mov    -0xd38(%rbp),%esi
    c3eb:	89 c7                	mov    %eax,%edi
    c3ed:	e8 a1 a7 ff ff       	callq  6b93 <safe_mul_func_uint8_t_u_u>
    c3f2:	0f b6 c0             	movzbl %al,%eax
    c3f5:	4c 89 fe             	mov    %r15,%rsi
    c3f8:	48 89 c7             	mov    %rax,%rdi
    c3fb:	e8 b4 a5 ff ff       	callq  69b4 <safe_mod_func_int64_t_s_s>
    c400:	0f be c0             	movsbl %al,%eax
    c403:	44 89 f6             	mov    %r14d,%esi
    c406:	89 c7                	mov    %eax,%edi
    c408:	e8 05 9e ff ff       	callq  6212 <safe_mul_func_int8_t_s_s>
    c40d:	0f be c0             	movsbl %al,%eax
    c410:	89 85 40 fd ff ff    	mov    %eax,-0x2c0(%rbp)
    c416:	8b 85 40 fd ff ff    	mov    -0x2c0(%rbp),%eax
    c41c:	89 c6                	mov    %eax,%esi
    c41e:	bf ff ff ff ff       	mov    $0xffffffff,%edi
    c423:	e8 90 aa ff ff       	callq  6eb8 <safe_add_func_uint32_t_u_u>
    c428:	48 be 8f b6 93 1d 47 	movabs $0x235884471d93b68f,%rsi
    c42f:	84 58 23 
    c432:	bf 00 00 00 00       	mov    $0x0,%edi
    c437:	e8 6c a4 ff ff       	callq  68a8 <safe_sub_func_int64_t_s_s>
    c43c:	48 8b 85 a8 f3 ff ff 	mov    -0xc58(%rbp),%rax
    c443:	0f b6 00             	movzbl (%rax),%eax
    c446:	8d 50 01             	lea    0x1(%rax),%edx
    c449:	48 8b 85 a8 f3 ff ff 	mov    -0xc58(%rbp),%rax
    c450:	88 10                	mov    %dl,(%rax)
    c452:	48 8b 85 a8 f3 ff ff 	mov    -0xc58(%rbp),%rax
    c459:	0f b6 00             	movzbl (%rax),%eax
    c45c:	84 c0                	test   %al,%al
    c45e:	0f 94 c0             	sete   %al
    c461:	0f b6 d0             	movzbl %al,%edx
    c464:	8b 85 d8 f2 ff ff    	mov    -0xd28(%rbp),%eax
    c46a:	09 c2                	or     %eax,%edx
    c46c:	48 8b 05 f5 31 01 00 	mov    0x131f5(%rip),%rax        # 1f668 <g_192>
    c473:	48 8b 00             	mov    (%rax),%rax
    c476:	0f b6 00             	movzbl (%rax),%eax
    c479:	0f b6 c0             	movzbl %al,%eax
    c47c:	39 c2                	cmp    %eax,%edx
    c47e:	7c 08                	jl     c488 <func_20+0xc9f>
    c480:	8b 85 d8 f2 ff ff    	mov    -0xd28(%rbp),%eax
    c486:	85 c0                	test   %eax,%eax
    c488:	8b 85 04 f5 ff ff    	mov    -0xafc(%rbp),%eax
    c48e:	39 85 cc f2 ff ff    	cmp    %eax,-0xd34(%rbp)
    c494:	0f 9d c0             	setge  %al
    c497:	0f b6 c0             	movzbl %al,%eax
    c49a:	44 89 ee             	mov    %r13d,%esi
    c49d:	89 c7                	mov    %eax,%edi
    c49f:	e8 2c aa ff ff       	callq  6ed0 <safe_sub_func_uint32_t_u_u>
    c4a4:	44 89 e6             	mov    %r12d,%esi
    c4a7:	bf 42 00 00 00       	mov    $0x42,%edi
    c4ac:	e8 61 9d ff ff       	callq  6212 <safe_mul_func_int8_t_s_s>
    c4b1:	66 0f be d0          	movsbw %al,%dx
    c4b5:	0f b7 05 ac 1d 01 00 	movzwl 0x11dac(%rip),%eax        # 1e268 <g_395+0x8>
    c4bc:	66 39 c2             	cmp    %ax,%dx
    c4bf:	0f 9f c0             	setg   %al
    c4c2:	0f b6 d0             	movzbl %al,%edx
    c4c5:	0f b6 45 c7          	movzbl -0x39(%rbp),%eax
    c4c9:	21 d0                	and    %edx,%eax
    c4cb:	88 45 c7             	mov    %al,-0x39(%rbp)
    c4ce:	0f b6 45 c7          	movzbl -0x39(%rbp),%eax
    c4d2:	0f be d0             	movsbl %al,%edx
    c4d5:	8b 85 d8 f2 ff ff    	mov    -0xd28(%rbp),%eax
    c4db:	39 c2                	cmp    %eax,%edx
    c4dd:	0f 9c c0             	setl   %al
    c4e0:	0f b6 c0             	movzbl %al,%eax
    c4e3:	66 89 05 1e 1d 01 00 	mov    %ax,0x11d1e(%rip)        # 1e208 <g_196+0x8>
    c4ea:	0f b7 05 17 1d 01 00 	movzwl 0x11d17(%rip),%eax        # 1e208 <g_196+0x8>
    c4f1:	66 85 c0             	test   %ax,%ax
    c4f4:	74 07                	je     c4fd <func_20+0xd14>
    c4f6:	b8 01 00 00 00       	mov    $0x1,%eax
    c4fb:	eb 05                	jmp    c502 <func_20+0xd19>
    c4fd:	b8 00 00 00 00       	mov    $0x0,%eax
    c502:	48 98                	cltq   
    c504:	48 8b 95 d0 f2 ff ff 	mov    -0xd30(%rbp),%rdx
    c50b:	48 89 d6             	mov    %rdx,%rsi
    c50e:	48 89 c7             	mov    %rax,%rdi
    c511:	e8 35 ab ff ff       	callq  704b <safe_sub_func_uint64_t_u_u>
    c516:	89 c2                	mov    %eax,%edx
    c518:	48 8b 85 c0 f2 ff ff 	mov    -0xd40(%rbp),%rax
    c51f:	89 d6                	mov    %edx,%esi
    c521:	89 c7                	mov    %eax,%edi
    c523:	e8 dd a0 ff ff       	callq  6605 <safe_sub_func_int32_t_s_s>
    c528:	83 f0 6b             	xor    $0x6b,%eax
    c52b:	0f be c0             	movsbl %al,%eax
    c52e:	89 de                	mov    %ebx,%esi
    c530:	89 c7                	mov    %eax,%edi
    c532:	e8 db 9c ff ff       	callq  6212 <safe_mul_func_int8_t_s_s>
    c537:	0f be c0             	movsbl %al,%eax
    c53a:	23 85 dc f2 ff ff    	and    -0xd24(%rbp),%eax
    c540:	85 c0                	test   %eax,%eax
    c542:	0f 84 0f 04 00 00    	je     c957 <func_20+0x116e>
    c548:	48 c7 85 70 f6 ff ff 	movq   $0x0,-0x990(%rbp)
    c54f:	00 00 00 00 
    c553:	48 c7 85 78 f6 ff ff 	movq   $0x0,-0x988(%rbp)
    c55a:	00 00 00 00 
    c55e:	48 c7 85 80 f6 ff ff 	movq   $0x0,-0x980(%rbp)
    c565:	00 00 00 00 
    c569:	48 c7 85 88 f6 ff ff 	movq   $0x0,-0x978(%rbp)
    c570:	00 00 00 00 
    c574:	48 c7 85 90 f6 ff ff 	movq   $0x0,-0x970(%rbp)
    c57b:	00 00 00 00 
    c57f:	48 c7 85 98 f6 ff ff 	movq   $0x0,-0x968(%rbp)
    c586:	00 00 00 00 
    c58a:	c6 85 78 f6 ff ff ff 	movb   $0xff,-0x988(%rbp)
    c591:	c6 85 90 f6 ff ff ff 	movb   $0xff,-0x970(%rbp)
    c598:	48 8d 05 51 1d 01 00 	lea    0x11d51(%rip),%rax        # 1e2f0 <g_809+0x10>
    c59f:	48 89 85 88 f4 ff ff 	mov    %rax,-0xb78(%rbp)
    c5a6:	c7 85 64 f3 ff ff 01 	movl   $0x1,-0xc9c(%rbp)
    c5ad:	00 00 00 
    c5b0:	48 8d 05 91 1c 01 00 	lea    0x11c91(%rip),%rax        # 1e248 <g_223>
    c5b7:	48 89 85 90 f4 ff ff 	mov    %rax,-0xb70(%rbp)
    c5be:	48 8d 05 67 1d 01 00 	lea    0x11d67(%rip),%rax        # 1e32c <g_1493>
    c5c5:	48 89 85 98 f4 ff ff 	mov    %rax,-0xb68(%rbp)
    c5cc:	48 c7 85 90 f3 ff ff 	movq   $0x0,-0xc70(%rbp)
    c5d3:	00 00 00 00 
    c5d7:	48 8d 85 b0 f5 ff ff 	lea    -0xa50(%rbp),%rax
    c5de:	48 89 85 a0 f4 ff ff 	mov    %rax,-0xb60(%rbp)
    c5e5:	48 8d 05 2c 32 01 00 	lea    0x1322c(%rip),%rax        # 1f818 <g_685+0x18>
    c5ec:	48 89 85 a8 f4 ff ff 	mov    %rax,-0xb58(%rbp)
    c5f3:	48 c7 85 b0 f4 ff ff 	movq   $0x0,-0xb50(%rbp)
    c5fa:	00 00 00 00 
    c5fe:	c7 85 30 f6 ff ff 0e 	movl   $0xba97c00e,-0x9d0(%rbp)
    c605:	c0 97 ba 
    c608:	c7 85 34 f6 ff ff 6f 	movl   $0x7fb4f96f,-0x9cc(%rbp)
    c60f:	f9 b4 7f 
    c612:	c7 85 38 f6 ff ff 0e 	movl   $0xba97c00e,-0x9c8(%rbp)
    c619:	c0 97 ba 
    c61c:	c7 85 3c f6 ff ff 6f 	movl   $0x7fb4f96f,-0x9c4(%rbp)
    c623:	f9 b4 7f 
    c626:	c7 85 40 f6 ff ff 0e 	movl   $0xba97c00e,-0x9c0(%rbp)
    c62d:	c0 97 ba 
    c630:	c7 85 44 f6 ff ff 6f 	movl   $0x7fb4f96f,-0x9bc(%rbp)
    c637:	f9 b4 7f 
    c63a:	c7 85 48 f6 ff ff 0e 	movl   $0xba97c00e,-0x9b8(%rbp)
    c641:	c0 97 ba 
    c644:	c7 85 4c f6 ff ff 6f 	movl   $0x7fb4f96f,-0x9b4(%rbp)
    c64b:	f9 b4 7f 
    c64e:	48 8d 05 2b 38 01 00 	lea    0x1382b(%rip),%rax        # 1fe80 <g_1448+0x5a0>
    c655:	48 89 85 b8 f4 ff ff 	mov    %rax,-0xb48(%rbp)
    c65c:	48 8d 05 d9 1c 01 00 	lea    0x11cd9(%rip),%rax        # 1e33c <g_1903>
    c663:	48 89 85 98 f3 ff ff 	mov    %rax,-0xc68(%rbp)
    c66a:	48 8d 85 98 f3 ff ff 	lea    -0xc68(%rbp),%rax
    c671:	48 89 85 c0 f4 ff ff 	mov    %rax,-0xb40(%rbp)
    c678:	c7 85 00 f3 ff ff 00 	movl   $0x0,-0xd00(%rbp)
    c67f:	00 00 00 
    c682:	eb 1e                	jmp    c6a2 <func_20+0xeb9>
    c684:	8b 85 00 f3 ff ff    	mov    -0xd00(%rbp),%eax
    c68a:	48 98                	cltq   
    c68c:	48 8d 95 90 f3 ff ff 	lea    -0xc70(%rbp),%rdx
    c693:	48 89 94 c5 b0 f5 ff 	mov    %rdx,-0xa50(%rbp,%rax,8)
    c69a:	ff 
    c69b:	83 85 00 f3 ff ff 01 	addl   $0x1,-0xd00(%rbp)
    c6a2:	83 bd 00 f3 ff ff 02 	cmpl   $0x2,-0xd00(%rbp)
    c6a9:	7e d9                	jle    c684 <func_20+0xe9b>
    c6ab:	c7 05 77 1c 01 00 e9 	movl   $0xffffffe9,0x11c77(%rip)        # 1e32c <g_1493>
    c6b2:	ff ff ff 
    c6b5:	90                   	nop
    c6b6:	8b 05 70 1c 01 00    	mov    0x11c70(%rip),%eax        # 1e32c <g_1493>
    c6bc:	83 f8 ea             	cmp    $0xffffffea,%eax
    c6bf:	7d 0b                	jge    c6cc <func_20+0xee3>
    c6c1:	8b 85 d8 f2 ff ff    	mov    -0xd28(%rbp),%eax
    c6c7:	e9 50 13 00 00       	jmpq   da1c <func_20+0x2233>
    c6cc:	48 8b 85 d0 f2 ff ff 	mov    -0xd30(%rbp),%rax
    c6d3:	0f bf d8             	movswl %ax,%ebx
    c6d6:	48 8b 05 13 31 01 00 	mov    0x13113(%rip),%rax        # 1f7f0 <g_641>
    c6dd:	0f b7 00             	movzwl (%rax),%eax
    c6e0:	44 0f b7 e0          	movzwl %ax,%r12d
    c6e4:	be 04 00 00 00       	mov    $0x4,%esi
    c6e9:	bf f2 c0 ff ff       	mov    $0xffffc0f2,%edi
    c6ee:	e8 ee 9d ff ff       	callq  64e1 <safe_lshift_func_int16_t_s_u>
    c6f3:	0f b7 c0             	movzwl %ax,%eax
    c6f6:	44 89 e6             	mov    %r12d,%esi
    c6f9:	89 c7                	mov    %eax,%edi
    c6fb:	e8 8e a6 ff ff       	callq  6d8e <safe_div_func_uint16_t_u_u>
    c700:	8b 85 04 f5 ff ff    	mov    -0xafc(%rbp),%eax
    c706:	44 0f be e0          	movsbl %al,%r12d
    c70a:	48 8b 85 c0 f2 ff ff 	mov    -0xd40(%rbp),%rax
    c711:	44 0f bf e8          	movswl %ax,%r13d
    c715:	8b 85 30 f5 ff ff    	mov    -0xad0(%rbp),%eax
    c71b:	41 89 c7             	mov    %eax,%r15d
    c71e:	0f b6 85 98 f6 ff ff 	movzbl -0x968(%rbp),%eax
    c725:	0f be c0             	movsbl %al,%eax
    c728:	89 85 40 fd ff ff    	mov    %eax,-0x2c0(%rbp)
    c72e:	44 8b b5 40 fd ff ff 	mov    -0x2c0(%rbp),%r14d
    c735:	8b 85 cc f2 ff ff    	mov    -0xd34(%rbp),%eax
    c73b:	0f bf d0             	movswl %ax,%edx
    c73e:	0f b6 85 98 f6 ff ff 	movzbl -0x968(%rbp),%eax
    c745:	84 c0                	test   %al,%al
    c747:	0f 95 c0             	setne  %al
    c74a:	0f b6 c0             	movzbl %al,%eax
    c74d:	89 d6                	mov    %edx,%esi
    c74f:	89 c7                	mov    %eax,%edi
    c751:	e8 ff 9c ff ff       	callq  6455 <safe_div_func_int16_t_s_s>
    c756:	0f bf d0             	movswl %ax,%edx
    c759:	48 8b 85 88 f4 ff ff 	mov    -0xb78(%rbp),%rax
    c760:	89 10                	mov    %edx,(%rax)
    c762:	48 8b 85 88 f4 ff ff 	mov    -0xb78(%rbp),%rax
    c769:	8b 10                	mov    (%rax),%edx
    c76b:	0f b6 85 98 f6 ff ff 	movzbl -0x968(%rbp),%eax
    c772:	0f be c0             	movsbl %al,%eax
    c775:	39 c2                	cmp    %eax,%edx
    c777:	0f 94 c0             	sete   %al
    c77a:	0f b6 d0             	movzbl %al,%edx
    c77d:	48 8b 05 6c 30 01 00 	mov    0x1306c(%rip),%rax        # 1f7f0 <g_641>
    c784:	0f b7 00             	movzwl (%rax),%eax
    c787:	0f b7 c0             	movzwl %ax,%eax
    c78a:	31 d0                	xor    %edx,%eax
    c78c:	41 39 c6             	cmp    %eax,%r14d
    c78f:	0f 9c c0             	setl   %al
    c792:	0f b6 c0             	movzbl %al,%eax
    c795:	44 89 fe             	mov    %r15d,%esi
    c798:	89 c7                	mov    %eax,%edi
    c79a:	e8 f3 9c ff ff       	callq  6492 <safe_lshift_func_int16_t_s_s>
    c79f:	4c 0f bf f0          	movswq %ax,%r14
    c7a3:	be 02 00 00 00       	mov    $0x2,%esi
    c7a8:	bf 00 00 00 00       	mov    $0x0,%edi
    c7ad:	e8 96 a6 ff ff       	callq  6e48 <safe_rshift_func_uint16_t_u_s>
    c7b2:	0f b7 c0             	movzwl %ax,%eax
    c7b5:	f7 d0                	not    %eax
    c7b7:	48 98                	cltq   
    c7b9:	4c 89 f6             	mov    %r14,%rsi
    c7bc:	48 89 c7             	mov    %rax,%rdi
    c7bf:	e8 f0 a1 ff ff       	callq  69b4 <safe_mod_func_int64_t_s_s>
    c7c4:	8b 85 cc f2 ff ff    	mov    -0xd34(%rbp),%eax
    c7ca:	89 c2                	mov    %eax,%edx
    c7cc:	8b 85 dc f2 ff ff    	mov    -0xd24(%rbp),%eax
    c7d2:	21 d0                	and    %edx,%eax
    c7d4:	0f b7 c0             	movzwl %ax,%eax
    c7d7:	83 e0 09             	and    $0x9,%eax
    c7da:	89 c2                	mov    %eax,%edx
    c7dc:	0f b6 45 c5          	movzbl -0x3b(%rbp),%eax
    c7e0:	66 98                	cbtw   
    c7e2:	0f b7 c0             	movzwl %ax,%eax
    c7e5:	89 d6                	mov    %edx,%esi
    c7e7:	89 c7                	mov    %eax,%edi
    c7e9:	e8 4f a5 ff ff       	callq  6d3d <safe_mul_func_uint16_t_u_u>
    c7ee:	8b 85 d8 f2 ff ff    	mov    -0xd28(%rbp),%eax
    c7f4:	83 f0 42             	xor    $0x42,%eax
    c7f7:	39 85 64 f3 ff ff    	cmp    %eax,-0xc9c(%rbp)
    c7fd:	0f 9d c0             	setge  %al
    c800:	0f b6 c0             	movzbl %al,%eax
    c803:	44 89 ee             	mov    %r13d,%esi
    c806:	89 c7                	mov    %eax,%edi
    c808:	e8 48 9c ff ff       	callq  6455 <safe_div_func_int16_t_s_s>
    c80d:	89 c2                	mov    %eax,%edx
    c80f:	8b 85 30 f5 ff ff    	mov    -0xad0(%rbp),%eax
    c815:	09 d0                	or     %edx,%eax
    c817:	0f be c0             	movsbl %al,%eax
    c81a:	44 89 e6             	mov    %r12d,%esi
    c81d:	89 c7                	mov    %eax,%edi
    c81f:	e8 b0 99 ff ff       	callq  61d4 <safe_add_func_int8_t_s_s>
    c824:	3c 01                	cmp    $0x1,%al
    c826:	0f 94 c0             	sete   %al
    c829:	0f b6 d0             	movzbl %al,%edx
    c82c:	48 8b 85 90 f4 ff ff 	mov    -0xb70(%rbp),%rax
    c833:	8b 00                	mov    (%rax),%eax
    c835:	31 c2                	xor    %eax,%edx
    c837:	48 8b 85 90 f4 ff ff 	mov    -0xb70(%rbp),%rax
    c83e:	89 10                	mov    %edx,(%rax)
    c840:	89 de                	mov    %ebx,%esi
    c842:	bf 00 00 00 00       	mov    $0x0,%edi
    c847:	e8 87 9b ff ff       	callq  63d3 <safe_sub_func_int16_t_s_s>
    c84c:	98                   	cwtl   
    c84d:	be 5c 37 1d 42       	mov    $0x421d375c,%esi
    c852:	89 c7                	mov    %eax,%edi
    c854:	e8 cc a6 ff ff       	callq  6f25 <safe_div_func_uint32_t_u_u>
    c859:	89 c0                	mov    %eax,%eax
    c85b:	48 39 85 d0 f2 ff ff 	cmp    %rax,-0xd30(%rbp)
    c862:	74 12                	je     c876 <func_20+0x108d>
    c864:	0f b6 85 40 fd ff ff 	movzbl -0x2c0(%rbp),%eax
    c86b:	84 c0                	test   %al,%al
    c86d:	74 07                	je     c876 <func_20+0x108d>
    c86f:	ba 01 00 00 00       	mov    $0x1,%edx
    c874:	eb 05                	jmp    c87b <func_20+0x1092>
    c876:	ba 00 00 00 00       	mov    $0x0,%edx
    c87b:	48 8b 05 a6 2f 01 00 	mov    0x12fa6(%rip),%rax        # 1f828 <g_840>
    c882:	89 10                	mov    %edx,(%rax)
    c884:	8b 10                	mov    (%rax),%edx
    c886:	48 8b 85 98 f4 ff ff 	mov    -0xb68(%rbp),%rax
    c88d:	8b 00                	mov    (%rax),%eax
    c88f:	09 c2                	or     %eax,%edx
    c891:	48 8b 85 98 f4 ff ff 	mov    -0xb68(%rbp),%rax
    c898:	89 10                	mov    %edx,(%rax)
    c89a:	c7 85 d8 f2 ff ff 00 	movl   $0x0,-0xd28(%rbp)
    c8a1:	00 00 00 
    c8a4:	e9 9a 00 00 00       	jmpq   c943 <func_20+0x115a>
    c8a9:	48 8d 05 e0 19 01 00 	lea    0x119e0(%rip),%rax        # 1e290 <g_395+0x30>
    c8b0:	48 89 85 c8 f4 ff ff 	mov    %rax,-0xb38(%rbp)
    c8b7:	c7 85 68 f3 ff ff fb 	movl   $0xfffffffb,-0xc98(%rbp)
    c8be:	ff ff ff 
    c8c1:	c6 85 f1 f2 ff ff 88 	movb   $0x88,-0xd0f(%rbp)
    c8c8:	48 c7 85 a0 f3 ff ff 	movq   $0x0,-0xc60(%rbp)
    c8cf:	00 00 00 00 
    c8d3:	c6 85 a0 f3 ff ff 89 	movb   $0x89,-0xc60(%rbp)
    c8da:	66 c7 85 fa f2 ff ff 	movw   $0xe9c5,-0xd06(%rbp)
    c8e1:	c5 e9 
    c8e3:	c7 85 6c f3 ff ff f8 	movl   $0xfffffff8,-0xc94(%rbp)
    c8ea:	ff ff ff 
    c8ed:	c7 85 70 f3 ff ff 00 	movl   $0x0,-0xc90(%rbp)
    c8f4:	00 00 00 
    c8f7:	48 8d 05 7e da 00 00 	lea    0xda7e(%rip),%rax        # 1a37c <g_2104>
    c8fe:	48 89 85 d0 f4 ff ff 	mov    %rax,-0xb30(%rbp)
    c905:	48 8d 85 70 f6 ff ff 	lea    -0x990(%rbp),%rax
    c90c:	48 83 c0 28          	add    $0x28,%rax
    c910:	48 89 85 d8 f4 ff ff 	mov    %rax,-0xb28(%rbp)
    c917:	48 8d 85 98 f3 ff ff 	lea    -0xc68(%rbp),%rax
    c91e:	48 89 85 e0 f4 ff ff 	mov    %rax,-0xb20(%rbp)
    c925:	8b 85 d8 f2 ff ff    	mov    -0xd28(%rbp),%eax
    c92b:	0f b7 c0             	movzwl %ax,%eax
    c92e:	be 06 00 00 00       	mov    $0x6,%esi
    c933:	89 c7                	mov    %eax,%edi
    c935:	e8 c5 a3 ff ff       	callq  6cff <safe_add_func_uint16_t_u_u>
    c93a:	0f b7 c0             	movzwl %ax,%eax
    c93d:	89 85 d8 f2 ff ff    	mov    %eax,-0xd28(%rbp)
    c943:	8b 85 d8 f2 ff ff    	mov    -0xd28(%rbp),%eax
    c949:	83 f8 10             	cmp    $0x10,%eax
    c94c:	0f 8e 57 ff ff ff    	jle    c8a9 <func_20+0x10c0>
    c952:	e9 bb 10 00 00       	jmpq   da12 <func_20+0x2229>
    c957:	c6 85 ee f2 ff ff ff 	movb   $0xff,-0xd12(%rbp)
    c95e:	48 8d 05 df 16 01 00 	lea    0x116df(%rip),%rax        # 1e044 <g_71+0x14>
    c965:	48 89 85 d8 f3 ff ff 	mov    %rax,-0xc28(%rbp)
    c96c:	48 c7 85 88 f3 ff ff 	movq   $0x0,-0xc78(%rbp)
    c973:	00 00 00 00 
    c977:	c6 85 88 f3 ff ff 41 	movb   $0x41,-0xc78(%rbp)
    c97e:	c7 85 3c f3 ff ff ff 	movl   $0xffffffff,-0xcc4(%rbp)
    c985:	ff ff ff 
    c988:	c7 85 40 f3 ff ff 01 	movl   $0x1,-0xcc0(%rbp)
    c98f:	00 00 00 
    c992:	c7 85 80 f5 ff ff 89 	movl   $0x9df36c89,-0xa80(%rbp)
    c999:	6c f3 9d 
    c99c:	c7 85 84 f5 ff ff 5d 	movl   $0x52634f5d,-0xa7c(%rbp)
    c9a3:	4f 63 52 
    c9a6:	c7 85 88 f5 ff ff 89 	movl   $0x9df36c89,-0xa78(%rbp)
    c9ad:	6c f3 9d 
    c9b0:	c7 85 8c f5 ff ff 5d 	movl   $0x52634f5d,-0xa74(%rbp)
    c9b7:	4f 63 52 
    c9ba:	c7 85 90 f5 ff ff 89 	movl   $0x9df36c89,-0xa70(%rbp)
    c9c1:	6c f3 9d 
    c9c4:	c7 85 94 f5 ff ff 5d 	movl   $0x52634f5d,-0xa6c(%rbp)
    c9cb:	4f 63 52 
    c9ce:	c7 85 98 f5 ff ff 89 	movl   $0x9df36c89,-0xa68(%rbp)
    c9d5:	6c f3 9d 
    c9d8:	c7 85 9c f5 ff ff 5d 	movl   $0x52634f5d,-0xa64(%rbp)
    c9df:	4f 63 52 
    c9e2:	c7 85 a0 f5 ff ff 89 	movl   $0x9df36c89,-0xa60(%rbp)
    c9e9:	6c f3 9d 
    c9ec:	48 c7 85 90 f3 ff ff 	movq   $0x0,-0xc70(%rbp)
    c9f3:	00 00 00 00 
    c9f7:	48 8d 85 90 f3 ff ff 	lea    -0xc70(%rbp),%rax
    c9fe:	48 89 85 e0 f3 ff ff 	mov    %rax,-0xc20(%rbp)
    ca05:	48 8d 85 b0 f5 ff ff 	lea    -0xa50(%rbp),%rax
    ca0c:	48 83 c0 10          	add    $0x10,%rax
    ca10:	48 89 85 e8 f3 ff ff 	mov    %rax,-0xc18(%rbp)
    ca17:	48 c7 85 f0 f3 ff ff 	movq   $0x0,-0xc10(%rbp)
    ca1e:	00 00 00 00 
    ca22:	c7 85 44 f3 ff ff 82 	movl   $0x40f9ec82,-0xcbc(%rbp)
    ca29:	ec f9 40 
    ca2c:	66 c7 85 f2 f2 ff ff 	movw   $0x3,-0xd0e(%rbp)
    ca33:	03 00 
    ca35:	c7 85 04 f3 ff ff 00 	movl   $0x0,-0xcfc(%rbp)
    ca3c:	00 00 00 
    ca3f:	eb 1e                	jmp    ca5f <func_20+0x1276>
    ca41:	8b 85 04 f3 ff ff    	mov    -0xcfc(%rbp),%eax
    ca47:	48 98                	cltq   
    ca49:	48 8d 15 a8 41 01 00 	lea    0x141a8(%rip),%rdx        # 20bf8 <g_87+0x8>
    ca50:	48 89 94 c5 b0 f5 ff 	mov    %rdx,-0xa50(%rbp,%rax,8)
    ca57:	ff 
    ca58:	83 85 04 f3 ff ff 01 	addl   $0x1,-0xcfc(%rbp)
    ca5f:	83 bd 04 f3 ff ff 06 	cmpl   $0x6,-0xcfc(%rbp)
    ca66:	7e d9                	jle    ca41 <func_20+0x1258>
    ca68:	c7 85 04 f3 ff ff 00 	movl   $0x0,-0xcfc(%rbp)
    ca6f:	00 00 00 
    ca72:	eb 72                	jmp    cae6 <func_20+0x12fd>
    ca74:	c7 85 08 f3 ff ff 00 	movl   $0x0,-0xcf8(%rbp)
    ca7b:	00 00 00 
    ca7e:	eb 56                	jmp    cad6 <func_20+0x12ed>
    ca80:	c7 85 0c f3 ff ff 00 	movl   $0x0,-0xcf4(%rbp)
    ca87:	00 00 00 
    ca8a:	eb 3a                	jmp    cac6 <func_20+0x12dd>
    ca8c:	8b 85 0c f3 ff ff    	mov    -0xcf4(%rbp),%eax
    ca92:	48 63 d0             	movslq %eax,%rdx
    ca95:	8b 85 08 f3 ff ff    	mov    -0xcf8(%rbp),%eax
    ca9b:	48 98                	cltq   
    ca9d:	8b 8d 04 f3 ff ff    	mov    -0xcfc(%rbp),%ecx
    caa3:	48 63 c9             	movslq %ecx,%rcx
    caa6:	48 c1 e1 03          	shl    $0x3,%rcx
    caaa:	48 01 ca             	add    %rcx,%rdx
    caad:	48 01 d0             	add    %rdx,%rax
    cab0:	48 8d 15 11 2c 01 00 	lea    0x12c11(%rip),%rdx        # 1f6c8 <g_320+0x28>
    cab7:	48 89 94 c5 30 f6 ff 	mov    %rdx,-0x9d0(%rbp,%rax,8)
    cabe:	ff 
    cabf:	83 85 0c f3 ff ff 01 	addl   $0x1,-0xcf4(%rbp)
    cac6:	83 bd 0c f3 ff ff 00 	cmpl   $0x0,-0xcf4(%rbp)
    cacd:	7e bd                	jle    ca8c <func_20+0x12a3>
    cacf:	83 85 08 f3 ff ff 01 	addl   $0x1,-0xcf8(%rbp)
    cad6:	83 bd 08 f3 ff ff 07 	cmpl   $0x7,-0xcf8(%rbp)
    cadd:	7e a1                	jle    ca80 <func_20+0x1297>
    cadf:	83 85 04 f3 ff ff 01 	addl   $0x1,-0xcfc(%rbp)
    cae6:	83 bd 04 f3 ff ff 00 	cmpl   $0x0,-0xcfc(%rbp)
    caed:	7e 85                	jle    ca74 <func_20+0x128b>
    caef:	80 bd ee f2 ff ff 00 	cmpb   $0x0,-0xd12(%rbp)
    caf6:	0f 84 7d 04 00 00    	je     cf79 <func_20+0x1790>
    cafc:	c7 85 10 f3 ff ff ff 	movl   $0xffffffff,-0xcf0(%rbp)
    cb03:	ff ff ff 
    cb06:	c7 85 60 f3 ff ff 5c 	movl   $0x87068a5c,-0xca0(%rbp)
    cb0d:	8a 06 87 
    cb10:	66 c7 85 f8 f2 ff ff 	movw   $0xb719,-0xd08(%rbp)
    cb17:	19 b7 
    cb19:	c7 85 14 f3 ff ff fb 	movl   $0xb575dfb,-0xcec(%rbp)
    cb20:	5d 57 0b 
    cb23:	c7 85 18 f3 ff ff fc 	movl   $0xfffffffc,-0xce8(%rbp)
    cb2a:	ff ff ff 
    cb2d:	c7 05 fd 17 01 00 11 	movl   $0x11,0x117fd(%rip)        # 1e334 <g_1628>
    cb34:	00 00 00 
    cb37:	eb 3d                	jmp    cb76 <func_20+0x138d>
    cb39:	48 8d 05 50 41 01 00 	lea    0x14150(%rip),%rax        # 20c90 <g_1163+0x30>
    cb40:	48 89 85 80 f4 ff ff 	mov    %rax,-0xb80(%rbp)
    cb47:	48 8b 85 80 f4 ff ff 	mov    -0xb80(%rbp),%rax
    cb4e:	48 8b 95 d8 f3 ff ff 	mov    -0xc28(%rbp),%rdx
    cb55:	48 89 10             	mov    %rdx,(%rax)
    cb58:	8b 05 d6 17 01 00    	mov    0x117d6(%rip),%eax        # 1e334 <g_1628>
    cb5e:	0f b7 c0             	movzwl %ax,%eax
    cb61:	be 01 00 00 00       	mov    $0x1,%esi
    cb66:	89 c7                	mov    %eax,%edi
    cb68:	e8 b2 a1 ff ff       	callq  6d1f <safe_sub_func_uint16_t_u_u>
    cb6d:	0f b7 c0             	movzwl %ax,%eax
    cb70:	89 05 be 17 01 00    	mov    %eax,0x117be(%rip)        # 1e334 <g_1628>
    cb76:	8b 05 b8 17 01 00    	mov    0x117b8(%rip),%eax        # 1e334 <g_1628>
    cb7c:	83 f8 07             	cmp    $0x7,%eax
    cb7f:	76 b8                	jbe    cb39 <func_20+0x1350>
    cb81:	48 c7 05 5c 16 01 00 	movq   $0x0,0x1165c(%rip)        # 1e1e8 <g_174>
    cb88:	00 00 00 00 
    cb8c:	e9 97 03 00 00       	jmpq   cf28 <func_20+0x173f>
    cb91:	48 8d 85 00 f5 ff ff 	lea    -0xb00(%rbp),%rax
    cb98:	48 89 85 70 f4 ff ff 	mov    %rax,-0xb90(%rbp)
    cb9f:	48 c7 85 78 f4 ff ff 	movq   $0x0,-0xb88(%rbp)
    cba6:	00 00 00 00 
    cbaa:	48 c7 85 98 f3 ff ff 	movq   $0x0,-0xc68(%rbp)
    cbb1:	00 00 00 00 
    cbb5:	c7 85 98 f3 ff ff 9e 	movl   $0xdaced29e,-0xc68(%rbp)
    cbbc:	d2 ce da 
    cbbf:	c6 85 f0 f2 ff ff c3 	movb   $0xc3,-0xd10(%rbp)
    cbc6:	c7 85 1c f3 ff ff 00 	movl   $0x0,-0xce4(%rbp)
    cbcd:	00 00 00 
    cbd0:	eb 1b                	jmp    cbed <func_20+0x1404>
    cbd2:	8b 85 1c f3 ff ff    	mov    -0xce4(%rbp),%eax
    cbd8:	48 98                	cltq   
    cbda:	48 c7 84 c5 70 f6 ff 	movq   $0x0,-0x990(%rbp,%rax,8)
    cbe1:	ff 00 00 00 00 
    cbe6:	83 85 1c f3 ff ff 01 	addl   $0x1,-0xce4(%rbp)
    cbed:	83 bd 1c f3 ff ff 08 	cmpl   $0x8,-0xce4(%rbp)
    cbf4:	7e dc                	jle    cbd2 <func_20+0x13e9>
    cbf6:	48 8b 85 70 f4 ff ff 	mov    -0xb90(%rbp),%rax
    cbfd:	48 89 85 c8 f3 ff ff 	mov    %rax,-0xc38(%rbp)
    cc04:	8b 85 d8 f2 ff ff    	mov    -0xd28(%rbp),%eax
    cc0a:	48 63 d8             	movslq %eax,%rbx
    cc0d:	8b 85 cc f2 ff ff    	mov    -0xd34(%rbp),%eax
    cc13:	44 0f b7 e0          	movzwl %ax,%r12d
    cc17:	8b 85 cc f2 ff ff    	mov    -0xd34(%rbp),%eax
    cc1d:	44 0f bf e8          	movswl %ax,%r13d
    cc21:	8b 85 d8 f2 ff ff    	mov    -0xd28(%rbp),%eax
    cc27:	44 0f b7 f0          	movzwl %ax,%r14d
    cc2b:	44 8b bd 60 f3 ff ff 	mov    -0xca0(%rbp),%r15d
    cc32:	48 8b 85 a8 f3 ff ff 	mov    -0xc58(%rbp),%rax
    cc39:	0f b6 00             	movzbl (%rax),%eax
    cc3c:	8d 50 01             	lea    0x1(%rax),%edx
    cc3f:	48 8b 85 a8 f3 ff ff 	mov    -0xc58(%rbp),%rax
    cc46:	88 10                	mov    %dl,(%rax)
    cc48:	48 8b 85 d8 f3 ff ff 	mov    -0xc28(%rbp),%rax
    cc4f:	8b 00                	mov    (%rax),%eax
    cc51:	85 c0                	test   %eax,%eax
    cc53:	74 7e                	je     ccd3 <func_20+0x14ea>
    cc55:	8b 85 d8 f2 ff ff    	mov    -0xd28(%rbp),%eax
    cc5b:	89 85 10 f3 ff ff    	mov    %eax,-0xcf0(%rbp)
    cc61:	83 bd 10 f3 ff ff 00 	cmpl   $0x0,-0xcf0(%rbp)
    cc68:	75 19                	jne    cc83 <func_20+0x149a>
    cc6a:	48 8b 85 d8 f3 ff ff 	mov    -0xc28(%rbp),%rax
    cc71:	8b 00                	mov    (%rax),%eax
    cc73:	85 c0                	test   %eax,%eax
    cc75:	75 0c                	jne    cc83 <func_20+0x149a>
    cc77:	0f b7 05 20 16 01 00 	movzwl 0x11620(%rip),%eax        # 1e29e <g_395+0x3e>
    cc7e:	66 85 c0             	test   %ax,%ax
    cc81:	74 07                	je     cc8a <func_20+0x14a1>
    cc83:	b8 01 00 00 00       	mov    $0x1,%eax
    cc88:	eb 05                	jmp    cc8f <func_20+0x14a6>
    cc8a:	b8 00 00 00 00       	mov    $0x0,%eax
    cc8f:	3d d2 07 00 00       	cmp    $0x7d2,%eax
    cc94:	0f 9f c0             	setg   %al
    cc97:	0f b6 c0             	movzbl %al,%eax
    cc9a:	ba 02 00 00 00       	mov    $0x2,%edx
    cc9f:	39 d0                	cmp    %edx,%eax
    cca1:	0f 9f c0             	setg   %al
    cca4:	0f b6 c0             	movzbl %al,%eax
    cca7:	be 09 61 00 00       	mov    $0x6109,%esi
    ccac:	89 c7                	mov    %eax,%edi
    ccae:	e8 20 97 ff ff       	callq  63d3 <safe_sub_func_int16_t_s_s>
    ccb3:	48 8b 95 c8 f3 ff ff 	mov    -0xc38(%rbp),%rdx
    ccba:	8b 12                	mov    (%rdx),%edx
    ccbc:	98                   	cwtl   
    ccbd:	31 c2                	xor    %eax,%edx
    ccbf:	48 8b 85 c8 f3 ff ff 	mov    -0xc38(%rbp),%rax
    ccc6:	89 10                	mov    %edx,(%rax)
    ccc8:	48 8b 85 c8 f3 ff ff 	mov    -0xc38(%rbp),%rax
    cccf:	8b 00                	mov    (%rax),%eax
    ccd1:	85 c0                	test   %eax,%eax
    ccd3:	48 8b 85 d8 f3 ff ff 	mov    -0xc28(%rbp),%rax
    ccda:	c7 00 f9 ff ff ff    	movl   $0xfffffff9,(%rax)
    cce0:	48 8b 85 d8 f3 ff ff 	mov    -0xc28(%rbp),%rax
    cce7:	8b 00                	mov    (%rax),%eax
    cce9:	44 89 fe             	mov    %r15d,%esi
    ccec:	89 c7                	mov    %eax,%edi
    ccee:	e8 c3 98 ff ff       	callq  65b6 <safe_add_func_int32_t_s_s>
    ccf3:	0f be 95 f0 f2 ff ff 	movsbl -0xd10(%rbp),%edx
    ccfa:	39 d0                	cmp    %edx,%eax
    ccfc:	0f 9f c0             	setg   %al
    ccff:	0f b6 c0             	movzbl %al,%eax
    cd02:	39 85 cc f2 ff ff    	cmp    %eax,-0xd34(%rbp)
    cd08:	0f 95 c0             	setne  %al
    cd0b:	0f b6 c0             	movzbl %al,%eax
    cd0e:	44 89 f6             	mov    %r14d,%esi
    cd11:	89 c7                	mov    %eax,%edi
    cd13:	e8 25 a0 ff ff       	callq  6d3d <safe_mul_func_uint16_t_u_u>
    cd18:	8b 85 dc f2 ff ff    	mov    -0xd24(%rbp),%eax
    cd1e:	98                   	cwtl   
    cd1f:	44 89 ee             	mov    %r13d,%esi
    cd22:	89 c7                	mov    %eax,%edi
    cd24:	e8 aa 96 ff ff       	callq  63d3 <safe_sub_func_int16_t_s_s>
    cd29:	0f b7 c0             	movzwl %ax,%eax
    cd2c:	44 89 e6             	mov    %r12d,%esi
    cd2f:	89 c7                	mov    %eax,%edi
    cd31:	e8 58 a0 ff ff       	callq  6d8e <safe_div_func_uint16_t_u_u>
    cd36:	66 89 05 cb 14 01 00 	mov    %ax,0x114cb(%rip)        # 1e208 <g_196+0x8>
    cd3d:	0f b7 05 c4 14 01 00 	movzwl 0x114c4(%rip),%eax        # 1e208 <g_196+0x8>
    cd44:	66 89 05 e7 14 01 00 	mov    %ax,0x114e7(%rip)        # 1e232 <g_198+0x12>
    cd4b:	83 bd dc f2 ff ff 01 	cmpl   $0x1,-0xd24(%rbp)
    cd52:	0f 95 c0             	setne  %al
    cd55:	0f b6 c0             	movzbl %al,%eax
    cd58:	48 89 de             	mov    %rbx,%rsi
    cd5b:	48 89 c7             	mov    %rax,%rdi
    cd5e:	e8 4c a3 ff ff       	callq  70af <safe_div_func_uint64_t_u_u>
    cd63:	98                   	cwtl   
    cd64:	89 c7                	mov    %eax,%edi
    cd66:	e8 32 96 ff ff       	callq  639d <safe_unary_minus_func_int16_t_s>
    cd6b:	0f b7 c0             	movzwl %ax,%eax
    cd6e:	be 06 00 00 00       	mov    $0x6,%esi
    cd73:	89 c7                	mov    %eax,%edi
    cd75:	e8 85 9f ff ff       	callq  6cff <safe_add_func_uint16_t_u_u>
    cd7a:	8b 9d dc f2 ff ff    	mov    -0xd24(%rbp),%ebx
    cd80:	48 8b 05 69 2a 01 00 	mov    0x12a69(%rip),%rax        # 1f7f0 <g_641>
    cd87:	0f b7 00             	movzwl (%rax),%eax
    cd8a:	0f b7 c0             	movzwl %ax,%eax
    cd8d:	be 0a 00 00 00       	mov    $0xa,%esi
    cd92:	89 c7                	mov    %eax,%edi
    cd94:	e8 e1 a0 ff ff       	callq  6e7a <safe_rshift_func_uint16_t_u_u>
    cd99:	0f b7 c0             	movzwl %ax,%eax
    cd9c:	89 de                	mov    %ebx,%esi
    cd9e:	89 c7                	mov    %eax,%edi
    cda0:	e8 58 a1 ff ff       	callq  6efd <safe_mod_func_uint32_t_u_u>
    cda5:	8b 95 dc f2 ff ff    	mov    -0xd24(%rbp),%edx
    cdab:	39 d0                	cmp    %edx,%eax
    cdad:	0f 97 c0             	seta   %al
    cdb0:	0f b6 c0             	movzbl %al,%eax
    cdb3:	48 39 85 c0 f2 ff ff 	cmp    %rax,-0xd40(%rbp)
    cdba:	0f 94 c0             	sete   %al
    cdbd:	0f b6 c0             	movzbl %al,%eax
    cdc0:	be 00 00 00 00       	mov    $0x0,%esi
    cdc5:	89 c7                	mov    %eax,%edi
    cdc7:	e8 71 9f ff ff       	callq  6d3d <safe_mul_func_uint16_t_u_u>
    cdcc:	66 85 c0             	test   %ax,%ax
    cdcf:	74 66                	je     ce37 <func_20+0x164e>
    cdd1:	48 c7 85 a0 f3 ff ff 	movq   $0x0,-0xc60(%rbp)
    cdd8:	00 00 00 00 
    cddc:	c6 85 a0 f3 ff ff 01 	movb   $0x1,-0xc60(%rbp)
    cde3:	48 8b 05 ae 29 01 00 	mov    0x129ae(%rip),%rax        # 1f798 <g_553>
    cdea:	48 8b 00             	mov    (%rax),%rax
    cded:	48 8b 00             	mov    (%rax),%rax
    cdf0:	8b 10                	mov    (%rax),%edx
    cdf2:	89 10                	mov    %edx,(%rax)
    cdf4:	48 8b 05 85 29 01 00 	mov    0x12985(%rip),%rax        # 1f780 <g_368>
    cdfb:	48 8b 00             	mov    (%rax),%rax
    cdfe:	48 8b 10             	mov    (%rax),%rdx
    ce01:	48 8b 05 80 28 01 00 	mov    0x12880(%rip),%rax        # 1f688 <g_297>
    ce08:	48 8b 00             	mov    (%rax),%rax
    ce0b:	48 8b 00             	mov    (%rax),%rax
    ce0e:	48 8b 12             	mov    (%rdx),%rdx
    ce11:	48 89 10             	mov    %rdx,(%rax)
    ce14:	c6 05 0d 15 01 00 00 	movb   $0x0,0x1150d(%rip)        # 1e328 <g_1151>
    ce1b:	90                   	nop
    ce1c:	0f b6 05 05 15 01 00 	movzbl 0x11505(%rip),%eax        # 1e328 <g_1151>
    ce23:	3c 11                	cmp    $0x11,%al
    ce25:	0f 8e eb 00 00 00    	jle    cf16 <func_20+0x172d>
    ce2b:	48 8b 85 c0 f2 ff ff 	mov    -0xd40(%rbp),%rax
    ce32:	e9 e5 0b 00 00       	jmpq   da1c <func_20+0x2233>
    ce37:	c7 85 20 f3 ff ff 00 	movl   $0x0,-0xce0(%rbp)
    ce3e:	00 00 00 
    ce41:	eb 1e                	jmp    ce61 <func_20+0x1678>
    ce43:	8b 85 20 f3 ff ff    	mov    -0xce0(%rbp),%eax
    ce49:	48 98                	cltq   
    ce4b:	48 8d 15 fe 13 01 00 	lea    0x113fe(%rip),%rdx        # 1e250 <g_376>
    ce52:	48 89 94 c5 60 f5 ff 	mov    %rdx,-0xaa0(%rbp,%rax,8)
    ce59:	ff 
    ce5a:	83 85 20 f3 ff ff 01 	addl   $0x1,-0xce0(%rbp)
    ce61:	83 bd 20 f3 ff ff 01 	cmpl   $0x1,-0xce0(%rbp)
    ce68:	7e d9                	jle    ce43 <func_20+0x165a>
    ce6a:	8b 85 10 f3 ff ff    	mov    -0xcf0(%rbp),%eax
    ce70:	0f be d8             	movsbl %al,%ebx
    ce73:	8b 85 cc f2 ff ff    	mov    -0xd34(%rbp),%eax
    ce79:	44 0f be e0          	movsbl %al,%r12d
    ce7d:	48 8b 85 d8 f3 ff ff 	mov    -0xc28(%rbp),%rax
    ce84:	8b 00                	mov    (%rax),%eax
    ce86:	33 85 10 f3 ff ff    	xor    -0xcf0(%rbp),%eax
    ce8c:	89 c2                	mov    %eax,%edx
    ce8e:	48 8b 85 d8 f3 ff ff 	mov    -0xc28(%rbp),%rax
    ce95:	89 10                	mov    %edx,(%rax)
    ce97:	8b 85 60 f3 ff ff    	mov    -0xca0(%rbp),%eax
    ce9d:	0f bf d0             	movswl %ax,%edx
    cea0:	48 8b 05 b9 27 01 00 	mov    0x127b9(%rip),%rax        # 1f660 <g_193>
    cea7:	0f b6 00             	movzbl (%rax),%eax
    ceaa:	8b 85 30 f3 ff ff    	mov    -0xcd0(%rbp),%eax
    ceb0:	98                   	cwtl   
    ceb1:	89 d6                	mov    %edx,%esi
    ceb3:	89 c7                	mov    %eax,%edi
    ceb5:	e8 3b 95 ff ff       	callq  63f5 <safe_mul_func_int16_t_s_s>
    ceba:	98                   	cwtl   
    cebb:	be 03 00 00 00       	mov    $0x3,%esi
    cec0:	89 c7                	mov    %eax,%edi
    cec2:	e8 cb 95 ff ff       	callq  6492 <safe_lshift_func_int16_t_s_s>
    cec7:	0f bf d0             	movswl %ax,%edx
    ceca:	0f b7 85 f8 f2 ff ff 	movzwl -0xd08(%rbp),%eax
    ced1:	39 c2                	cmp    %eax,%edx
    ced3:	44 89 e6             	mov    %r12d,%esi
    ced6:	bf 00 00 00 00       	mov    $0x0,%edi
    cedb:	e8 32 93 ff ff       	callq  6212 <safe_mul_func_int8_t_s_s>
    cee0:	0f be c0             	movsbl %al,%eax
    cee3:	31 85 14 f3 ff ff    	xor    %eax,-0xcec(%rbp)
    cee9:	8b 85 14 f3 ff ff    	mov    -0xcec(%rbp),%eax
    ceef:	98                   	cwtl   
    cef0:	8b 95 10 f3 ff ff    	mov    -0xcf0(%rbp),%edx
    cef6:	89 d6                	mov    %edx,%esi
    cef8:	89 c7                	mov    %eax,%edi
    cefa:	e8 e2 95 ff ff       	callq  64e1 <safe_lshift_func_int16_t_s_u>
    ceff:	0f be c0             	movsbl %al,%eax
    cf02:	89 de                	mov    %ebx,%esi
    cf04:	89 c7                	mov    %eax,%edi
    cf06:	e8 e7 92 ff ff       	callq  61f2 <safe_sub_func_int8_t_s_s>
    cf0b:	b8 cd 24 8e 60       	mov    $0x608e24cd,%eax
    cf10:	21 85 18 f3 ff ff    	and    %eax,-0xce8(%rbp)
    cf16:	48 8b 05 cb 12 01 00 	mov    0x112cb(%rip),%rax        # 1e1e8 <g_174>
    cf1d:	48 83 c0 01          	add    $0x1,%rax
    cf21:	48 89 05 c0 12 01 00 	mov    %rax,0x112c0(%rip)        # 1e1e8 <g_174>
    cf28:	48 8b 05 b9 12 01 00 	mov    0x112b9(%rip),%rax        # 1e1e8 <g_174>
    cf2f:	48 83 f8 30          	cmp    $0x30,%rax
    cf33:	0f 86 58 fc ff ff    	jbe    cb91 <func_20+0x13a8>
    cf39:	c7 85 dc f2 ff ff 00 	movl   $0x0,-0xd24(%rbp)
    cf40:	00 00 00 
    cf43:	eb 26                	jmp    cf6b <func_20+0x1782>
    cf45:	8b 85 dc f2 ff ff    	mov    -0xd24(%rbp),%eax
    cf4b:	48 98                	cltq   
    cf4d:	48 8d 14 c5 00 00 00 	lea    0x0(,%rax,8),%rdx
    cf54:	00 
    cf55:	48 8d 05 a4 28 01 00 	lea    0x128a4(%rip),%rax        # 1f800 <g_685>
    cf5c:	48 c7 04 02 00 00 00 	movq   $0x0,(%rdx,%rax,1)
    cf63:	00 
    cf64:	83 85 dc f2 ff ff 01 	addl   $0x1,-0xd24(%rbp)
    cf6b:	83 bd dc f2 ff ff 04 	cmpl   $0x4,-0xd24(%rbp)
    cf72:	7e d1                	jle    cf45 <func_20+0x175c>
    cf74:	e9 99 0a 00 00       	jmpq   da12 <func_20+0x2229>
    cf79:	48 8d 05 c0 3c 01 00 	lea    0x13cc0(%rip),%rax        # 20c40 <g_985>
    cf80:	48 89 85 f8 f3 ff ff 	mov    %rax,-0xc08(%rbp)
    cf87:	c7 85 48 f3 ff ff 08 	movl   $0xb12de508,-0xcb8(%rbp)
    cf8e:	e5 2d b1 
    cf91:	48 c7 85 00 f4 ff ff 	movq   $0x0,-0xc00(%rbp)
    cf98:	00 00 00 00 
    cf9c:	83 bd 40 f3 ff ff 00 	cmpl   $0x0,-0xcc0(%rbp)
    cfa3:	0f 84 cb 04 00 00    	je     d474 <func_20+0x1c8b>
    cfa9:	48 8d 05 f8 12 01 00 	lea    0x112f8(%rip),%rax        # 1e2a8 <g_452>
    cfb0:	48 89 85 20 f4 ff ff 	mov    %rax,-0xbe0(%rbp)
    cfb7:	48 8d 05 7e 10 01 00 	lea    0x1107e(%rip),%rax        # 1e03c <g_71+0xc>
    cfbe:	48 89 85 28 f4 ff ff 	mov    %rax,-0xbd8(%rbp)
    cfc5:	48 8d 05 60 13 01 00 	lea    0x11360(%rip),%rax        # 1e32c <g_1493>
    cfcc:	48 89 85 30 f4 ff ff 	mov    %rax,-0xbd0(%rbp)
    cfd3:	48 c7 85 38 f4 ff ff 	movq   $0x0,-0xbc8(%rbp)
    cfda:	00 00 00 00 
    cfde:	48 8d 85 00 f5 ff ff 	lea    -0xb00(%rbp),%rax
    cfe5:	48 83 c0 04          	add    $0x4,%rax
    cfe9:	48 89 85 70 f6 ff ff 	mov    %rax,-0x990(%rbp)
    cff0:	48 8d 85 00 f5 ff ff 	lea    -0xb00(%rbp),%rax
    cff7:	48 83 c0 04          	add    $0x4,%rax
    cffb:	48 89 85 78 f6 ff ff 	mov    %rax,-0x988(%rbp)
    d002:	48 8d 85 00 f5 ff ff 	lea    -0xb00(%rbp),%rax
    d009:	48 89 85 80 f6 ff ff 	mov    %rax,-0x980(%rbp)
    d010:	48 8d 05 15 13 01 00 	lea    0x11315(%rip),%rax        # 1e32c <g_1493>
    d017:	48 89 85 88 f6 ff ff 	mov    %rax,-0x978(%rbp)
    d01e:	48 8d 85 00 f5 ff ff 	lea    -0xb00(%rbp),%rax
    d025:	48 89 85 90 f6 ff ff 	mov    %rax,-0x970(%rbp)
    d02c:	48 8d 85 00 f5 ff ff 	lea    -0xb00(%rbp),%rax
    d033:	48 83 c0 04          	add    $0x4,%rax
    d037:	48 89 85 98 f6 ff ff 	mov    %rax,-0x968(%rbp)
    d03e:	48 8d 85 00 f5 ff ff 	lea    -0xb00(%rbp),%rax
    d045:	48 89 85 a0 f6 ff ff 	mov    %rax,-0x960(%rbp)
    d04c:	48 8d 05 e9 0f 01 00 	lea    0x10fe9(%rip),%rax        # 1e03c <g_71+0xc>
    d053:	48 89 85 a8 f6 ff ff 	mov    %rax,-0x958(%rbp)
    d05a:	48 8d 05 cb 12 01 00 	lea    0x112cb(%rip),%rax        # 1e32c <g_1493>
    d061:	48 89 85 b0 f6 ff ff 	mov    %rax,-0x950(%rbp)
    d068:	48 8d 05 bd 12 01 00 	lea    0x112bd(%rip),%rax        # 1e32c <g_1493>
    d06f:	48 89 85 b8 f6 ff ff 	mov    %rax,-0x948(%rbp)
    d076:	48 8d 05 bf 0f 01 00 	lea    0x10fbf(%rip),%rax        # 1e03c <g_71+0xc>
    d07d:	48 89 85 c0 f6 ff ff 	mov    %rax,-0x940(%rbp)
    d084:	48 8d 85 00 f5 ff ff 	lea    -0xb00(%rbp),%rax
    d08b:	48 89 85 c8 f6 ff ff 	mov    %rax,-0x938(%rbp)
    d092:	48 8d 85 00 f5 ff ff 	lea    -0xb00(%rbp),%rax
    d099:	48 83 c0 04          	add    $0x4,%rax
    d09d:	48 89 85 d0 f6 ff ff 	mov    %rax,-0x930(%rbp)
    d0a4:	48 8d 85 00 f5 ff ff 	lea    -0xb00(%rbp),%rax
    d0ab:	48 89 85 d8 f6 ff ff 	mov    %rax,-0x928(%rbp)
    d0b2:	48 8d 05 73 12 01 00 	lea    0x11273(%rip),%rax        # 1e32c <g_1493>
    d0b9:	48 89 85 e0 f6 ff ff 	mov    %rax,-0x920(%rbp)
    d0c0:	48 8d 85 00 f5 ff ff 	lea    -0xb00(%rbp),%rax
    d0c7:	48 89 85 e8 f6 ff ff 	mov    %rax,-0x918(%rbp)
    d0ce:	48 8d 85 00 f5 ff ff 	lea    -0xb00(%rbp),%rax
    d0d5:	48 83 c0 04          	add    $0x4,%rax
    d0d9:	48 89 85 f0 f6 ff ff 	mov    %rax,-0x910(%rbp)
    d0e0:	48 8d 85 00 f5 ff ff 	lea    -0xb00(%rbp),%rax
    d0e7:	48 83 c0 04          	add    $0x4,%rax
    d0eb:	48 89 85 f8 f6 ff ff 	mov    %rax,-0x908(%rbp)
    d0f2:	48 c7 85 00 f7 ff ff 	movq   $0x0,-0x900(%rbp)
    d0f9:	00 00 00 00 
    d0fd:	48 8d 85 00 f5 ff ff 	lea    -0xb00(%rbp),%rax
    d104:	48 89 85 08 f7 ff ff 	mov    %rax,-0x8f8(%rbp)
    d10b:	48 8d 85 00 f5 ff ff 	lea    -0xb00(%rbp),%rax
    d112:	48 89 85 10 f7 ff ff 	mov    %rax,-0x8f0(%rbp)
    d119:	48 c7 85 18 f7 ff ff 	movq   $0x0,-0x8e8(%rbp)
    d120:	00 00 00 00 
    d124:	48 8d 05 11 0f 01 00 	lea    0x10f11(%rip),%rax        # 1e03c <g_71+0xc>
    d12b:	48 89 85 20 f7 ff ff 	mov    %rax,-0x8e0(%rbp)
    d132:	48 c7 85 28 f7 ff ff 	movq   $0x0,-0x8d8(%rbp)
    d139:	00 00 00 00 
    d13d:	48 c7 85 30 f7 ff ff 	movq   $0x0,-0x8d0(%rbp)
    d144:	00 00 00 00 
    d148:	48 8d 05 ed 0e 01 00 	lea    0x10eed(%rip),%rax        # 1e03c <g_71+0xc>
    d14f:	48 89 85 38 f7 ff ff 	mov    %rax,-0x8c8(%rbp)
    d156:	48 c7 85 40 f7 ff ff 	movq   $0x0,-0x8c0(%rbp)
    d15d:	00 00 00 00 
    d161:	48 8d 85 00 f5 ff ff 	lea    -0xb00(%rbp),%rax
    d168:	48 89 85 48 f7 ff ff 	mov    %rax,-0x8b8(%rbp)
    d16f:	48 8d 85 00 f5 ff ff 	lea    -0xb00(%rbp),%rax
    d176:	48 89 85 50 f7 ff ff 	mov    %rax,-0x8b0(%rbp)
    d17d:	48 c7 85 58 f7 ff ff 	movq   $0x0,-0x8a8(%rbp)
    d184:	00 00 00 00 
    d188:	c7 85 50 f3 ff ff f6 	movl   $0xfffffff6,-0xcb0(%rbp)
    d18f:	ff ff ff 
    d192:	66 c7 85 f4 f2 ff ff 	movw   $0xffff,-0xd0c(%rbp)
    d199:	ff ff 
    d19b:	48 8d 05 c6 26 01 00 	lea    0x126c6(%rip),%rax        # 1f868 <g_990+0x28>
    d1a2:	48 89 85 40 f4 ff ff 	mov    %rax,-0xbc0(%rbp)
    d1a9:	66 83 85 f4 f2 ff ff 	addw   $0x1,-0xd0c(%rbp)
    d1b0:	01 
    d1b1:	c6 05 e8 10 01 00 00 	movb   $0x0,0x110e8(%rip)        # 1e2a0 <g_446>
    d1b8:	e9 a3 02 00 00       	jmpq   d460 <func_20+0x1c77>
    d1bd:	48 c7 85 98 f3 ff ff 	movq   $0x0,-0xc68(%rbp)
    d1c4:	00 00 00 00 
    d1c8:	48 8d 85 98 f3 ff ff 	lea    -0xc68(%rbp),%rax
    d1cf:	48 89 85 a0 f3 ff ff 	mov    %rax,-0xc60(%rbp)
    d1d6:	48 8d 85 a0 f3 ff ff 	lea    -0xc60(%rbp),%rax
    d1dd:	48 89 85 48 f4 ff ff 	mov    %rax,-0xbb8(%rbp)
    d1e4:	48 8d 85 80 f9 ff ff 	lea    -0x680(%rbp),%rax
    d1eb:	48 05 f8 03 00 00    	add    $0x3f8,%rax
    d1f1:	48 89 85 60 f5 ff ff 	mov    %rax,-0xaa0(%rbp)
    d1f8:	48 8d 85 80 f9 ff ff 	lea    -0x680(%rbp),%rax
    d1ff:	48 05 f8 03 00 00    	add    $0x3f8,%rax
    d205:	48 89 85 68 f5 ff ff 	mov    %rax,-0xa98(%rbp)
    d20c:	48 8d 85 80 f9 ff ff 	lea    -0x680(%rbp),%rax
    d213:	48 05 f8 03 00 00    	add    $0x3f8,%rax
    d219:	48 89 85 70 f5 ff ff 	mov    %rax,-0xa90(%rbp)
    d220:	48 8d 85 80 f9 ff ff 	lea    -0x680(%rbp),%rax
    d227:	48 05 f8 03 00 00    	add    $0x3f8,%rax
    d22d:	48 89 85 78 f5 ff ff 	mov    %rax,-0xa88(%rbp)
    d234:	c7 85 24 f3 ff ff 00 	movl   $0x0,-0xcdc(%rbp)
    d23b:	00 00 00 
    d23e:	eb 1e                	jmp    d25e <func_20+0x1a75>
    d240:	8b 85 24 f3 ff ff    	mov    -0xcdc(%rbp),%eax
    d246:	48 98                	cltq   
    d248:	48 8d 15 f1 39 01 00 	lea    0x139f1(%rip),%rdx        # 20c40 <g_985>
    d24f:	48 89 94 c5 10 f5 ff 	mov    %rdx,-0xaf0(%rbp,%rax,8)
    d256:	ff 
    d257:	83 85 24 f3 ff ff 01 	addl   $0x1,-0xcdc(%rbp)
    d25e:	83 bd 24 f3 ff ff 01 	cmpl   $0x1,-0xcdc(%rbp)
    d265:	7e d9                	jle    d240 <func_20+0x1a57>
    d267:	c7 85 24 f3 ff ff 00 	movl   $0x0,-0xcdc(%rbp)
    d26e:	00 00 00 
    d271:	eb 1a                	jmp    d28d <func_20+0x1aa4>
    d273:	8b 85 24 f3 ff ff    	mov    -0xcdc(%rbp),%eax
    d279:	48 98                	cltq   
    d27b:	c7 84 85 08 f5 ff ff 	movl   $0xa92daef6,-0xaf8(%rbp,%rax,4)
    d282:	f6 ae 2d a9 
    d286:	83 85 24 f3 ff ff 01 	addl   $0x1,-0xcdc(%rbp)
    d28d:	83 bd 24 f3 ff ff 01 	cmpl   $0x1,-0xcdc(%rbp)
    d294:	7e dd                	jle    d273 <func_20+0x1a8a>
    d296:	83 bd cc f2 ff ff 00 	cmpl   $0x0,-0xd34(%rbp)
    d29d:	74 05                	je     d2a4 <func_20+0x1abb>
    d29f:	e9 05 ff ff ff       	jmpq   d1a9 <func_20+0x19c0>
    d2a4:	8b 85 48 f3 ff ff    	mov    -0xcb8(%rbp),%eax
    d2aa:	0f b6 d8             	movzbl %al,%ebx
    d2ad:	48 8b 85 e8 f3 ff ff 	mov    -0xc18(%rbp),%rax
    d2b4:	48 3b 85 48 f4 ff ff 	cmp    -0xbb8(%rbp),%rax
    d2bb:	0f 95 c0             	setne  %al
    d2be:	0f b6 c0             	movzbl %al,%eax
    d2c1:	be f8 ff ff ff       	mov    $0xfffffff8,%esi
    d2c6:	89 c7                	mov    %eax,%edi
    d2c8:	e8 eb 9b ff ff       	callq  6eb8 <safe_add_func_uint32_t_u_u>
    d2cd:	89 c0                	mov    %eax,%eax
    d2cf:	48 39 85 d0 f2 ff ff 	cmp    %rax,-0xd30(%rbp)
    d2d6:	0f 93 c0             	setae  %al
    d2d9:	0f b6 c0             	movzbl %al,%eax
    d2dc:	be 00 00 00 00       	mov    $0x0,%esi
    d2e1:	89 c7                	mov    %eax,%edi
    d2e3:	e8 f9 91 ff ff       	callq  64e1 <safe_lshift_func_int16_t_s_u>
    d2e8:	0f b6 c0             	movzbl %al,%eax
    d2eb:	89 de                	mov    %ebx,%esi
    d2ed:	89 c7                	mov    %eax,%edi
    d2ef:	e8 84 98 ff ff       	callq  6b78 <safe_sub_func_uint8_t_u_u>
    d2f4:	0f b6 d0             	movzbl %al,%edx
    d2f7:	48 8b 05 2a 25 01 00 	mov    0x1252a(%rip),%rax        # 1f828 <g_840>
    d2fe:	8b 30                	mov    (%rax),%esi
    d300:	48 8b 85 18 f5 ff ff 	mov    -0xae8(%rbp),%rax
    d307:	48 39 85 f8 f3 ff ff 	cmp    %rax,-0xc08(%rbp)
    d30e:	75 0c                	jne    d31c <func_20+0x1b33>
    d310:	48 b8 e1 a3 4d b2 76 	movabs $0x6d313876b24da3e1,%rax
    d317:	38 31 6d 
    d31a:	eb 0a                	jmp    d326 <func_20+0x1b3d>
    d31c:	48 b8 e0 a3 4d b2 76 	movabs $0x6d313876b24da3e0,%rax
    d323:	38 31 6d 
    d326:	48 8b 8d 40 f4 ff ff 	mov    -0xbc0(%rbp),%rcx
    d32d:	48 3b 8d e0 f3 ff ff 	cmp    -0xc20(%rbp),%rcx
    d334:	0f 94 c1             	sete   %cl
    d337:	0f b6 c9             	movzbl %cl,%ecx
    d33a:	48 39 c8             	cmp    %rcx,%rax
    d33d:	0f 95 c0             	setne  %al
    d340:	0f b6 c0             	movzbl %al,%eax
    d343:	48 39 85 d0 f2 ff ff 	cmp    %rax,-0xd30(%rbp)
    d34a:	0f 94 c0             	sete   %al
    d34d:	0f b6 c0             	movzbl %al,%eax
    d350:	48 39 85 c0 f2 ff ff 	cmp    %rax,-0xd40(%rbp)
    d357:	0f 94 c0             	sete   %al
    d35a:	0f b6 c8             	movzbl %al,%ecx
    d35d:	48 8b 05 c4 24 01 00 	mov    0x124c4(%rip),%rax        # 1f828 <g_840>
    d364:	09 f1                	or     %esi,%ecx
    d366:	89 08                	mov    %ecx,(%rax)
    d368:	8b 00                	mov    (%rax),%eax
    d36a:	f7 d0                	not    %eax
    d36c:	0f b6 c0             	movzbl %al,%eax
    d36f:	89 d6                	mov    %edx,%esi
    d371:	89 c7                	mov    %eax,%edi
    d373:	e8 d4 98 ff ff       	callq  6c4c <safe_lshift_func_uint8_t_u_u>
    d378:	84 c0                	test   %al,%al
    d37a:	75 09                	jne    d385 <func_20+0x1b9c>
    d37c:	83 bd dc f2 ff ff 00 	cmpl   $0x0,-0xd24(%rbp)
    d383:	74 07                	je     d38c <func_20+0x1ba3>
    d385:	b8 01 00 00 00       	mov    $0x1,%eax
    d38a:	eb 05                	jmp    d391 <func_20+0x1ba8>
    d38c:	b8 00 00 00 00       	mov    $0x0,%eax
    d391:	83 f8 ff             	cmp    $0xffffffff,%eax
    d394:	7d 09                	jge    d39f <func_20+0x1bb6>
    d396:	83 bd cc f2 ff ff 00 	cmpl   $0x0,-0xd34(%rbp)
    d39d:	74 07                	je     d3a6 <func_20+0x1bbd>
    d39f:	b8 01 00 00 00       	mov    $0x1,%eax
    d3a4:	eb 05                	jmp    d3ab <func_20+0x1bc2>
    d3a6:	b8 00 00 00 00       	mov    $0x0,%eax
    d3ab:	98                   	cwtl   
    d3ac:	be fe ff ff ff       	mov    $0xfffffffe,%esi
    d3b1:	89 c7                	mov    %eax,%edi
    d3b3:	e8 5e 90 ff ff       	callq  6416 <safe_mod_func_int16_t_s_s>
    d3b8:	98                   	cwtl   
    d3b9:	23 85 cc f2 ff ff    	and    -0xd34(%rbp),%eax
    d3bf:	85 c0                	test   %eax,%eax
    d3c1:	74 10                	je     d3d3 <func_20+0x1bea>
    d3c3:	48 8d 85 d8 f2 ff ff 	lea    -0xd28(%rbp),%rax
    d3ca:	48 89 85 00 f4 ff ff 	mov    %rax,-0xc00(%rbp)
    d3d1:	eb 0a                	jmp    d3dd <func_20+0x1bf4>
    d3d3:	c7 85 08 f5 ff ff 18 	movl   $0x8a5a3618,-0xaf8(%rbp)
    d3da:	36 5a 8a 
    d3dd:	48 8b 05 24 33 01 00 	mov    0x13324(%rip),%rax        # 20708 <g_1642>
    d3e4:	48 8b 95 70 f5 ff ff 	mov    -0xa90(%rbp),%rdx
    d3eb:	48 89 10             	mov    %rdx,(%rax)
    d3ee:	48 8b 10             	mov    (%rax),%rdx
    d3f1:	48 8b 85 b8 f3 ff ff 	mov    -0xc48(%rbp),%rax
    d3f8:	48 89 10             	mov    %rdx,(%rax)
    d3fb:	0f b7 05 de 0d 01 00 	movzwl 0x10dde(%rip),%eax        # 1e1e0 <g_131>
    d402:	0f b7 d0             	movzwl %ax,%edx
    d405:	48 8b 05 e4 23 01 00 	mov    0x123e4(%rip),%rax        # 1f7f0 <g_641>
    d40c:	0f b7 08             	movzwl (%rax),%ecx
    d40f:	0f b7 05 1a 0e 01 00 	movzwl 0x10e1a(%rip),%eax        # 1e230 <g_198+0x10>
    d416:	31 c8                	xor    %ecx,%eax
    d418:	66 89 05 11 0e 01 00 	mov    %ax,0x10e11(%rip)        # 1e230 <g_198+0x10>
    d41f:	0f b7 05 0a 0e 01 00 	movzwl 0x10e0a(%rip),%eax        # 1e230 <g_198+0x10>
    d426:	0f b7 c0             	movzwl %ax,%eax
    d429:	89 d6                	mov    %edx,%esi
    d42b:	89 c7                	mov    %eax,%edi
    d42d:	e8 2a 99 ff ff       	callq  6d5c <safe_mod_func_uint16_t_u_u>
    d432:	0f b7 c0             	movzwl %ax,%eax
    d435:	48 39 85 c0 f2 ff ff 	cmp    %rax,-0xd40(%rbp)
    d43c:	0f 95 c0             	setne  %al
    d43f:	0f b6 d0             	movzbl %al,%edx
    d442:	8b 85 d8 f2 ff ff    	mov    -0xd28(%rbp),%eax
    d448:	21 d0                	and    %edx,%eax
    d44a:	89 85 d8 f2 ff ff    	mov    %eax,-0xd28(%rbp)
    d450:	0f b6 05 49 0e 01 00 	movzbl 0x10e49(%rip),%eax        # 1e2a0 <g_446>
    d457:	83 e8 01             	sub    $0x1,%eax
    d45a:	88 05 40 0e 01 00    	mov    %al,0x10e40(%rip)        # 1e2a0 <g_446>
    d460:	0f b6 05 39 0e 01 00 	movzbl 0x10e39(%rip),%eax        # 1e2a0 <g_446>
    d467:	3c fa                	cmp    $0xfa,%al
    d469:	0f 8d 4e fd ff ff    	jge    d1bd <func_20+0x19d4>
    d46f:	e9 94 01 00 00       	jmpq   d608 <func_20+0x1e1f>
    d474:	48 c7 85 08 f4 ff ff 	movq   $0x0,-0xbf8(%rbp)
    d47b:	00 00 00 00 
    d47f:	48 8d 05 62 0d 01 00 	lea    0x10d62(%rip),%rax        # 1e1e8 <g_174>
    d486:	48 89 85 10 f4 ff ff 	mov    %rax,-0xbf0(%rbp)
    d48d:	c7 85 4c f3 ff ff 01 	movl   $0x1,-0xcb4(%rbp)
    d494:	00 00 00 
    d497:	48 8d 05 b2 0d 01 00 	lea    0x10db2(%rip),%rax        # 1e250 <g_376>
    d49e:	48 89 85 18 f4 ff ff 	mov    %rax,-0xbe8(%rbp)
    d4a5:	0f b6 05 f4 0d 01 00 	movzbl 0x10df4(%rip),%eax        # 1e2a0 <g_446>
    d4ac:	0f be d8             	movsbl %al,%ebx
    d4af:	48 8b 85 10 f4 ff ff 	mov    -0xbf0(%rbp),%rax
    d4b6:	48 8b 00             	mov    (%rax),%rax
    d4b9:	83 e0 01             	and    $0x1,%eax
    d4bc:	48 89 c2             	mov    %rax,%rdx
    d4bf:	48 8b 85 10 f4 ff ff 	mov    -0xbf0(%rbp),%rax
    d4c6:	48 89 10             	mov    %rdx,(%rax)
    d4c9:	48 8b 85 10 f4 ff ff 	mov    -0xbf0(%rbp),%rax
    d4d0:	48 8b 00             	mov    (%rax),%rax
    d4d3:	48 85 c0             	test   %rax,%rax
    d4d6:	75 09                	jne    d4e1 <func_20+0x1cf8>
    d4d8:	83 bd cc f2 ff ff 00 	cmpl   $0x0,-0xd34(%rbp)
    d4df:	74 07                	je     d4e8 <func_20+0x1cff>
    d4e1:	ba 01 00 00 00       	mov    $0x1,%edx
    d4e6:	eb 05                	jmp    d4ed <func_20+0x1d04>
    d4e8:	ba 00 00 00 00       	mov    $0x0,%edx
    d4ed:	8b 85 4c f3 ff ff    	mov    -0xcb4(%rbp),%eax
    d4f3:	89 c6                	mov    %eax,%esi
    d4f5:	89 d7                	mov    %edx,%edi
    d4f7:	e8 09 91 ff ff       	callq  6605 <safe_sub_func_int32_t_s_s>
    d4fc:	85 c0                	test   %eax,%eax
    d4fe:	0f 94 c0             	sete   %al
    d501:	0f b6 c0             	movzbl %al,%eax
    d504:	be f9 ff ff ff       	mov    $0xfffffff9,%esi
    d509:	89 c7                	mov    %eax,%edi
    d50b:	e8 f5 90 ff ff       	callq  6605 <safe_sub_func_int32_t_s_s>
    d510:	89 c2                	mov    %eax,%edx
    d512:	48 8b 85 18 f4 ff ff 	mov    -0xbe8(%rbp),%rax
    d519:	66 89 10             	mov    %dx,(%rax)
    d51c:	48 8b 85 18 f4 ff ff 	mov    -0xbe8(%rbp),%rax
    d523:	0f b7 00             	movzwl (%rax),%eax
    d526:	0f bf d0             	movswl %ax,%edx
    d529:	48 8b 05 c0 22 01 00 	mov    0x122c0(%rip),%rax        # 1f7f0 <g_641>
    d530:	0f b7 00             	movzwl (%rax),%eax
    d533:	0f b7 c0             	movzwl %ax,%eax
    d536:	39 c2                	cmp    %eax,%edx
    d538:	0f 9e c0             	setle  %al
    d53b:	0f b6 c0             	movzbl %al,%eax
    d53e:	48 0b 85 c0 f2 ff ff 	or     -0xd40(%rbp),%rax
    d545:	ba b1 e1 48 fe       	mov    $0xfe48e1b1,%edx
    d54a:	48 39 d0             	cmp    %rdx,%rax
    d54d:	48 8b 05 9c 22 01 00 	mov    0x1229c(%rip),%rax        # 1f7f0 <g_641>
    d554:	0f b7 00             	movzwl (%rax),%eax
    d557:	0f b7 c0             	movzwl %ax,%eax
    d55a:	39 85 38 f3 ff ff    	cmp    %eax,-0xcc8(%rbp)
    d560:	7f 11                	jg     d573 <func_20+0x1d8a>
    d562:	8b 85 d8 f2 ff ff    	mov    -0xd28(%rbp),%eax
    d568:	85 c0                	test   %eax,%eax
    d56a:	74 07                	je     d573 <func_20+0x1d8a>
    d56c:	b8 01 00 00 00       	mov    $0x1,%eax
    d571:	eb 05                	jmp    d578 <func_20+0x1d8f>
    d573:	b8 00 00 00 00       	mov    $0x0,%eax
    d578:	39 d8                	cmp    %ebx,%eax
    d57a:	0f 95 c0             	setne  %al
    d57d:	0f b6 d8             	movzbl %al,%ebx
    d580:	48 83 bd 08 f4 ff ff 	cmpq   $0x0,-0xbf8(%rbp)
    d587:	00 
    d588:	0f 94 c0             	sete   %al
    d58b:	0f b6 c0             	movzbl %al,%eax
    d58e:	be 0f 00 00 00       	mov    $0xf,%esi
    d593:	89 c7                	mov    %eax,%edi
    d595:	e8 ae 98 ff ff       	callq  6e48 <safe_rshift_func_uint16_t_u_s>
    d59a:	0f bf d0             	movswl %ax,%edx
    d59d:	8b 85 cc f2 ff ff    	mov    -0xd34(%rbp),%eax
    d5a3:	83 f8 04             	cmp    $0x4,%eax
    d5a6:	0f 96 c0             	setbe  %al
    d5a9:	0f b6 c0             	movzbl %al,%eax
    d5ac:	89 d6                	mov    %edx,%esi
    d5ae:	89 c7                	mov    %eax,%edi
    d5b0:	e8 61 8e ff ff       	callq  6416 <safe_mod_func_int16_t_s_s>
    d5b5:	0f be c0             	movsbl %al,%eax
    d5b8:	89 de                	mov    %ebx,%esi
    d5ba:	89 c7                	mov    %eax,%edi
    d5bc:	e8 74 8d ff ff       	callq  6335 <safe_rshift_func_int8_t_s_s>
    d5c1:	8b 85 d8 f2 ff ff    	mov    -0xd28(%rbp),%eax
    d5c7:	39 85 34 f3 ff ff    	cmp    %eax,-0xccc(%rbp)
    d5cd:	48 8b 05 ac 22 01 00 	mov    0x122ac(%rip),%rax        # 1f880 <g_1052>
    d5d4:	48 8b 00             	mov    (%rax),%rax
    d5d7:	48 8b 00             	mov    (%rax),%rax
    d5da:	48 8d 85 d8 f2 ff ff 	lea    -0xd28(%rbp),%rax
    d5e1:	48 89 85 c8 f3 ff ff 	mov    %rax,-0xc38(%rbp)
    d5e8:	48 c7 85 d0 f2 ff ff 	movq   $0x0,-0xd30(%rbp)
    d5ef:	00 00 00 00 
    d5f3:	48 83 bd d0 f2 ff ff 	cmpq   $0x37,-0xd30(%rbp)
    d5fa:	37 
    d5fb:	77 0b                	ja     d608 <func_20+0x1e1f>
    d5fd:	8b 85 dc f2 ff ff    	mov    -0xd24(%rbp),%eax
    d603:	e9 14 04 00 00       	jmpq   da1c <func_20+0x2233>
    d608:	c6 05 3d 0a 01 00 00 	movb   $0x0,0x10a3d(%rip)        # 1e04c <g_90>
    d60f:	e9 0a 01 00 00       	jmpq   d71e <func_20+0x1f35>
    d614:	48 c7 85 a0 f3 ff ff 	movq   $0x0,-0xc60(%rbp)
    d61b:	00 00 00 00 
    d61f:	48 8d 85 a0 f3 ff ff 	lea    -0xc60(%rbp),%rax
    d626:	48 89 85 68 f4 ff ff 	mov    %rax,-0xb98(%rbp)
    d62d:	c7 85 5c f3 ff ff 7b 	movl   $0x28d7987b,-0xca4(%rbp)
    d634:	98 d7 28 
    d637:	48 8b 85 d8 f3 ff ff 	mov    -0xc28(%rbp),%rax
    d63e:	8b 00                	mov    (%rax),%eax
    d640:	89 c2                	mov    %eax,%edx
    d642:	48 8b 85 d0 f2 ff ff 	mov    -0xd30(%rbp),%rax
    d649:	31 d0                	xor    %edx,%eax
    d64b:	89 c2                	mov    %eax,%edx
    d64d:	48 8b 85 d8 f3 ff ff 	mov    -0xc28(%rbp),%rax
    d654:	89 10                	mov    %edx,(%rax)
    d656:	8b 85 d8 f2 ff ff    	mov    -0xd28(%rbp),%eax
    d65c:	48 63 d0             	movslq %eax,%rdx
    d65f:	48 c7 85 d0 f3 ff ff 	movq   $0x0,-0xc30(%rbp)
    d666:	00 00 00 00 
    d66a:	48 83 bd d0 f3 ff ff 	cmpq   $0x0,-0xc30(%rbp)
    d671:	00 
    d672:	0f 94 c0             	sete   %al
    d675:	0f b6 c0             	movzbl %al,%eax
    d678:	48 89 d6             	mov    %rdx,%rsi
    d67b:	48 89 c7             	mov    %rax,%rdi
    d67e:	e8 74 93 ff ff       	callq  69f7 <safe_div_func_int64_t_s_s>
    d683:	48 85 c0             	test   %rax,%rax
    d686:	75 6a                	jne    d6f2 <func_20+0x1f09>
    d688:	48 83 bd d0 f2 ff ff 	cmpq   $0x0,-0xd30(%rbp)
    d68f:	00 
    d690:	48 8b 85 68 f4 ff ff 	mov    -0xb98(%rbp),%rax
    d697:	48 8d 15 42 20 01 00 	lea    0x12042(%rip),%rdx        # 1f6e0 <g_320+0x40>
    d69e:	48 89 10             	mov    %rdx,(%rax)
    d6a1:	48 8b 85 68 f4 ff ff 	mov    -0xb98(%rbp),%rax
    d6a8:	48 8b 10             	mov    (%rax),%rdx
    d6ab:	48 8b 85 68 f6 ff ff 	mov    -0x998(%rbp),%rax
    d6b2:	48 39 c2             	cmp    %rax,%rdx
    d6b5:	48 8d 05 c4 2a 01 00 	lea    0x12ac4(%rip),%rax        # 20180 <g_1447+0x200>
    d6bc:	48 39 85 f0 f3 ff ff 	cmp    %rax,-0xc10(%rbp)
    d6c3:	0f 94 c0             	sete   %al
    d6c6:	0f b6 d0             	movzbl %al,%edx
    d6c9:	48 8b 05 b8 21 01 00 	mov    0x121b8(%rip),%rax        # 1f888 <g_1051>
    d6d0:	48 8b 00             	mov    (%rax),%rax
    d6d3:	48 8b 00             	mov    (%rax),%rax
    d6d6:	48 8b 00             	mov    (%rax),%rax
    d6d9:	48 89 d6             	mov    %rdx,%rsi
    d6dc:	48 89 c7             	mov    %rax,%rdi
    d6df:	e8 18 92 ff ff       	callq  68fc <safe_mul_func_int64_t_s_s>
    d6e4:	48 85 c0             	test   %rax,%rax
    d6e7:	75 09                	jne    d6f2 <func_20+0x1f09>
    d6e9:	83 bd dc f2 ff ff 00 	cmpl   $0x0,-0xd24(%rbp)
    d6f0:	74 07                	je     d6f9 <func_20+0x1f10>
    d6f2:	b8 01 00 00 00       	mov    $0x1,%eax
    d6f7:	eb 05                	jmp    d6fe <func_20+0x1f15>
    d6f9:	b8 00 00 00 00       	mov    $0x0,%eax
    d6fe:	83 e0 04             	and    $0x4,%eax
    d701:	89 85 d8 f2 ff ff    	mov    %eax,-0xd28(%rbp)
    d707:	83 bd 5c f3 ff ff 00 	cmpl   $0x0,-0xca4(%rbp)
    d70e:	0f b6 05 37 09 01 00 	movzbl 0x10937(%rip),%eax        # 1e04c <g_90>
    d715:	83 c0 01             	add    $0x1,%eax
    d718:	88 05 2e 09 01 00    	mov    %al,0x1092e(%rip)        # 1e04c <g_90>
    d71e:	0f b6 05 27 09 01 00 	movzbl 0x10927(%rip),%eax        # 1e04c <g_90>
    d725:	3c 1d                	cmp    $0x1d,%al
    d727:	0f 86 e7 fe ff ff    	jbe    d614 <func_20+0x1e2b>
    d72d:	c6 05 6c 0b 01 00 1b 	movb   $0x1b,0x10b6c(%rip)        # 1e2a0 <g_446>
    d734:	e9 ca 02 00 00       	jmpq   da03 <func_20+0x221a>
    d739:	66 c7 85 f6 f2 ff ff 	movw   $0xfffe,-0xd0a(%rbp)
    d740:	fe ff 
    d742:	c7 85 28 f3 ff ff 1d 	movl   $0xdef45b1d,-0xcd8(%rbp)
    d749:	5b f4 de 
    d74c:	c7 85 2c f3 ff ff 02 	movl   $0x2,-0xcd4(%rbp)
    d753:	00 00 00 
    d756:	c7 85 54 f3 ff ff 94 	movl   $0x3fddf94,-0xcac(%rbp)
    d75d:	df fd 03 
    d760:	c7 05 ce 0b 01 00 e4 	movl   $0xffffffe4,0x10bce(%rip)        # 1e338 <g_1665>
    d767:	ff ff ff 
    d76a:	e9 59 02 00 00       	jmpq   d9c8 <func_20+0x21df>
    d76f:	48 c7 85 50 f4 ff ff 	movq   $0x1,-0xbb0(%rbp)
    d776:	01 00 00 00 
    d77a:	c7 85 58 f3 ff ff dd 	movl   $0x27f2f6dd,-0xca8(%rbp)
    d781:	f6 f2 27 
    d784:	c6 05 9a 08 01 00 03 	movb   $0x3,0x1089a(%rip)        # 1e025 <g_66>
    d78b:	e9 11 02 00 00       	jmpq   d9a1 <func_20+0x21b8>
    d790:	48 c7 85 a0 f3 ff ff 	movq   $0x0,-0xc60(%rbp)
    d797:	00 00 00 00 
    d79b:	c6 85 a0 f3 ff ff 3c 	movb   $0x3c,-0xc60(%rbp)
    d7a2:	c6 85 ef f2 ff ff 00 	movb   $0x0,-0xd11(%rbp)
    d7a9:	48 c7 85 58 f4 ff ff 	movq   $0x0,-0xba8(%rbp)
    d7b0:	00 00 00 00 
    d7b4:	48 8d 05 79 0b 01 00 	lea    0x10b79(%rip),%rax        # 1e334 <g_1628>
    d7bb:	48 89 85 60 f4 ff ff 	mov    %rax,-0xba0(%rbp)
    d7c2:	48 8b 85 d0 f2 ff ff 	mov    -0xd30(%rbp),%rax
    d7c9:	41 89 c6             	mov    %eax,%r14d
    d7cc:	48 8b 85 d0 f2 ff ff 	mov    -0xd30(%rbp),%rax
    d7d3:	0f bf d8             	movswl %ax,%ebx
    d7d6:	0f b6 85 a0 f3 ff ff 	movzbl -0xc60(%rbp),%eax
    d7dd:	0f be d0             	movsbl %al,%edx
    d7e0:	66 83 ad f6 f2 ff ff 	subw   $0x1,-0xd0a(%rbp)
    d7e7:	01 
    d7e8:	0f b7 85 f6 f2 ff ff 	movzwl -0xd0a(%rbp),%eax
    d7ef:	89 d6                	mov    %edx,%esi
    d7f1:	89 c7                	mov    %eax,%edi
    d7f3:	e8 50 96 ff ff       	callq  6e48 <safe_rshift_func_uint16_t_u_s>
    d7f8:	0f b7 d0             	movzwl %ax,%edx
    d7fb:	8b 85 dc f2 ff ff    	mov    -0xd24(%rbp),%eax
    d801:	89 d6                	mov    %edx,%esi
    d803:	89 c7                	mov    %eax,%edi
    d805:	e8 f3 96 ff ff       	callq  6efd <safe_mod_func_uint32_t_u_u>
    d80a:	41 89 c5             	mov    %eax,%r13d
    d80d:	8b 85 cc f2 ff ff    	mov    -0xd34(%rbp),%eax
    d813:	44 0f b6 e0          	movzbl %al,%r12d
    d817:	8b 85 cc f2 ff ff    	mov    -0xd34(%rbp),%eax
    d81d:	0f b6 c0             	movzbl %al,%eax
    d820:	be 05 00 00 00       	mov    $0x5,%esi
    d825:	89 c7                	mov    %eax,%edi
    d827:	e8 20 94 ff ff       	callq  6c4c <safe_lshift_func_uint8_t_u_u>
    d82c:	84 c0                	test   %al,%al
    d82e:	44 89 e6             	mov    %r12d,%esi
    d831:	bf f7 00 00 00       	mov    $0xf7,%edi
    d836:	e8 73 93 ff ff       	callq  6bae <safe_mod_func_uint8_t_u_u>
    d83b:	48 8b 85 c0 f2 ff ff 	mov    -0xd40(%rbp),%rax
    d842:	0f be c0             	movsbl %al,%eax
    d845:	8b 95 cc f2 ff ff    	mov    -0xd34(%rbp),%edx
    d84b:	89 d6                	mov    %edx,%esi
    d84d:	89 c7                	mov    %eax,%edi
    d84f:	e8 4d 8a ff ff       	callq  62a1 <safe_lshift_func_int8_t_s_s>
    d854:	0f be c0             	movsbl %al,%eax
    d857:	41 39 c5             	cmp    %eax,%r13d
    d85a:	0f 93 c0             	setae  %al
    d85d:	0f b6 c0             	movzbl %al,%eax
    d860:	48 39 85 50 f4 ff ff 	cmp    %rax,-0xbb0(%rbp)
    d867:	74 10                	je     d879 <func_20+0x2090>
    d869:	83 bd cc f2 ff ff 00 	cmpl   $0x0,-0xd34(%rbp)
    d870:	74 07                	je     d879 <func_20+0x2090>
    d872:	b8 01 00 00 00       	mov    $0x1,%eax
    d877:	eb 05                	jmp    d87e <func_20+0x2095>
    d879:	b8 00 00 00 00       	mov    $0x0,%eax
    d87e:	48 98                	cltq   
    d880:	48 89 c6             	mov    %rax,%rsi
    d883:	bf 02 00 00 00       	mov    $0x2,%edi
    d888:	e8 be 97 ff ff       	callq  704b <safe_sub_func_uint64_t_u_u>
    d88d:	0f b6 c0             	movzbl %al,%eax
    d890:	89 c7                	mov    %eax,%edi
    d892:	e8 ae 92 ff ff       	callq  6b45 <safe_unary_minus_func_uint8_t_u>
    d897:	48 8b 95 60 f4 ff ff 	mov    -0xba0(%rbp),%rdx
    d89e:	8b 12                	mov    (%rdx),%edx
    d8a0:	0f b6 c0             	movzbl %al,%eax
    d8a3:	31 c2                	xor    %eax,%edx
    d8a5:	48 8b 85 60 f4 ff ff 	mov    -0xba0(%rbp),%rax
    d8ac:	89 10                	mov    %edx,(%rax)
    d8ae:	b8 54 9c 00 00       	mov    $0x9c54,%eax
    d8b3:	31 85 28 f3 ff ff    	xor    %eax,-0xcd8(%rbp)
    d8b9:	8b 85 28 f3 ff ff    	mov    -0xcd8(%rbp),%eax
    d8bf:	98                   	cwtl   
    d8c0:	be 42 2e 00 00       	mov    $0x2e42,%esi
    d8c5:	89 c7                	mov    %eax,%edi
    d8c7:	e8 89 8b ff ff       	callq  6455 <safe_div_func_int16_t_s_s>
    d8cc:	48 8b 85 d8 f3 ff ff 	mov    -0xc28(%rbp),%rax
    d8d3:	8b 00                	mov    (%rax),%eax
    d8d5:	39 85 cc f2 ff ff    	cmp    %eax,-0xd34(%rbp)
    d8db:	0f 9e c0             	setle  %al
    d8de:	0f b6 c0             	movzbl %al,%eax
    d8e1:	be 02 00 00 00       	mov    $0x2,%esi
    d8e6:	89 c7                	mov    %eax,%edi
    d8e8:	e8 7f 8a ff ff       	callq  636c <safe_rshift_func_int8_t_s_u>
    d8ed:	0f be c0             	movsbl %al,%eax
    d8f0:	89 85 58 f3 ff ff    	mov    %eax,-0xca8(%rbp)
    d8f6:	8b 85 58 f3 ff ff    	mov    -0xca8(%rbp),%eax
    d8fc:	98                   	cwtl   
    d8fd:	be f8 ff ff ff       	mov    $0xfffffff8,%esi
    d902:	89 c7                	mov    %eax,%edi
    d904:	e8 ec 8a ff ff       	callq  63f5 <safe_mul_func_int16_t_s_s>
    d909:	48 0f bf c0          	movswq %ax,%rax
    d90d:	48 39 85 c0 f2 ff ff 	cmp    %rax,-0xd40(%rbp)
    d914:	0f 95 c0             	setne  %al
    d917:	0f b6 c0             	movzbl %al,%eax
    d91a:	89 de                	mov    %ebx,%esi
    d91c:	89 c7                	mov    %eax,%edi
    d91e:	e8 d2 8a ff ff       	callq  63f5 <safe_mul_func_int16_t_s_s>
    d923:	66 85 c0             	test   %ax,%ax
    d926:	74 07                	je     d92f <func_20+0x2146>
    d928:	b8 01 00 00 00       	mov    $0x1,%eax
    d92d:	eb 05                	jmp    d934 <func_20+0x214b>
    d92f:	b8 00 00 00 00       	mov    $0x0,%eax
    d934:	44 89 f6             	mov    %r14d,%esi
    d937:	89 c7                	mov    %eax,%edi
    d939:	e8 e7 95 ff ff       	callq  6f25 <safe_div_func_uint32_t_u_u>
    d93e:	89 c6                	mov    %eax,%esi
    d940:	bf 01 00 00 00       	mov    $0x1,%edi
    d945:	e8 b5 8d ff ff       	callq  66ff <safe_div_func_int32_t_s_s>
    d94a:	48 c7 85 c0 f2 ff ff 	movq   $0x1,-0xd40(%rbp)
    d951:	01 00 00 00 
    d955:	48 8b 85 c0 f2 ff ff 	mov    -0xd40(%rbp),%rax
    d95c:	48 3b 85 d0 f2 ff ff 	cmp    -0xd30(%rbp),%rax
    d963:	0f 97 c0             	seta   %al
    d966:	0f b6 c8             	movzbl %al,%ecx
    d969:	48 8b 05 28 1e 01 00 	mov    0x11e28(%rip),%rax        # 1f798 <g_553>
    d970:	48 8b 00             	mov    (%rax),%rax
    d973:	48 8b 00             	mov    (%rax),%rax
    d976:	8b 10                	mov    (%rax),%edx
    d978:	09 ca                	or     %ecx,%edx
    d97a:	89 10                	mov    %edx,(%rax)
    d97c:	48 8d 85 d8 f2 ff ff 	lea    -0xd28(%rbp),%rax
    d983:	48 89 85 c8 f3 ff ff 	mov    %rax,-0xc38(%rbp)
    d98a:	83 ad 2c f3 ff ff 01 	subl   $0x1,-0xcd4(%rbp)
    d991:	0f b6 05 8d 06 01 00 	movzbl 0x1068d(%rip),%eax        # 1e025 <g_66>
    d998:	83 e8 01             	sub    $0x1,%eax
    d99b:	88 05 84 06 01 00    	mov    %al,0x10684(%rip)        # 1e025 <g_66>
    d9a1:	0f b6 05 7d 06 01 00 	movzbl 0x1067d(%rip),%eax        # 1e025 <g_66>
    d9a8:	84 c0                	test   %al,%al
    d9aa:	0f 89 e0 fd ff ff    	jns    d790 <func_20+0x1fa7>
    d9b0:	8b 05 82 09 01 00    	mov    0x10982(%rip),%eax        # 1e338 <g_1665>
    d9b6:	be 08 00 00 00       	mov    $0x8,%esi
    d9bb:	89 c7                	mov    %eax,%edi
    d9bd:	e8 f4 8b ff ff       	callq  65b6 <safe_add_func_int32_t_s_s>
    d9c2:	89 05 70 09 01 00    	mov    %eax,0x10970(%rip)        # 1e338 <g_1665>
    d9c8:	8b 05 6a 09 01 00    	mov    0x1096a(%rip),%eax        # 1e338 <g_1665>
    d9ce:	83 f8 18             	cmp    $0x18,%eax
    d9d1:	0f 84 98 fd ff ff    	je     d76f <func_20+0x1f86>
    d9d7:	0f b7 85 f2 f2 ff ff 	movzwl -0xd0e(%rbp),%eax
    d9de:	83 c0 01             	add    $0x1,%eax
    d9e1:	66 89 85 f2 f2 ff ff 	mov    %ax,-0xd0e(%rbp)
    d9e8:	48 c7 85 00 f4 ff ff 	movq   $0x0,-0xc00(%rbp)
    d9ef:	00 00 00 00 
    d9f3:	0f b6 05 a6 08 01 00 	movzbl 0x108a6(%rip),%eax        # 1e2a0 <g_446>
    d9fa:	83 e8 01             	sub    $0x1,%eax
    d9fd:	88 05 9d 08 01 00    	mov    %al,0x1089d(%rip)        # 1e2a0 <g_446>
    da03:	0f b6 05 96 08 01 00 	movzbl 0x10896(%rip),%eax        # 1e2a0 <g_446>
    da0a:	3c 02                	cmp    $0x2,%al
    da0c:	0f 8e 27 fd ff ff    	jle    d739 <func_20+0x1f50>
    da12:	48 8b 05 47 1c 01 00 	mov    0x11c47(%rip),%rax        # 1f660 <g_193>
    da19:	0f b6 00             	movzbl (%rax),%eax
    da1c:	48 8b 5d c8          	mov    -0x38(%rbp),%rbx
    da20:	64 48 33 1c 25 28 00 	xor    %fs:0x28,%rbx
    da27:	00 00 
    da29:	74 05                	je     da30 <func_20+0x2247>
    da2b:	e8 40 86 ff ff       	callq  6070 <__stack_chk_fail@plt>
    da30:	48 81 c4 28 0d 00 00 	add    $0xd28,%rsp
    da37:	5b                   	pop    %rbx
    da38:	41 5c                	pop    %r12
    da3a:	41 5d                	pop    %r13
    da3c:	41 5e                	pop    %r14
    da3e:	41 5f                	pop    %r15
    da40:	5d                   	pop    %rbp
    da41:	c3                   	retq   

000000000000da42 <func_26>:
    da42:	f3 0f 1e fa          	endbr64 
    da46:	55                   	push   %rbp
    da47:	48 89 e5             	mov    %rsp,%rbp
    da4a:	48 81 ec a0 05 00 00 	sub    $0x5a0,%rsp
    da51:	89 f8                	mov    %edi,%eax
    da53:	89 b5 68 fa ff ff    	mov    %esi,-0x598(%rbp)
    da59:	88 85 6c fa ff ff    	mov    %al,-0x594(%rbp)
    da5f:	64 48 8b 04 25 28 00 	mov    %fs:0x28,%rax
    da66:	00 00 
    da68:	48 89 45 f8          	mov    %rax,-0x8(%rbp)
    da6c:	31 c0                	xor    %eax,%eax
    da6e:	48 b8 fb f5 32 70 d5 	movabs $0xa625add57032f5fb,%rax
    da75:	ad 25 a6 
    da78:	48 89 85 e0 fa ff ff 	mov    %rax,-0x520(%rbp)
    da7f:	48 c7 85 f0 fb ff ff 	movq   $0x0,-0x410(%rbp)
    da86:	00 00 00 00 
    da8a:	48 8d 05 9f 31 01 00 	lea    0x1319f(%rip),%rax        # 20c30 <g_532>
    da91:	48 89 85 f8 fb ff ff 	mov    %rax,-0x408(%rbp)
    da98:	48 8d 05 91 31 01 00 	lea    0x13191(%rip),%rax        # 20c30 <g_532>
    da9f:	48 89 85 00 fc ff ff 	mov    %rax,-0x400(%rbp)
    daa6:	48 c7 85 08 fc ff ff 	movq   $0x0,-0x3f8(%rbp)
    daad:	00 00 00 00 
    dab1:	48 8d 05 78 31 01 00 	lea    0x13178(%rip),%rax        # 20c30 <g_532>
    dab8:	48 89 85 10 fc ff ff 	mov    %rax,-0x3f0(%rbp)
    dabf:	48 8d 05 6a 31 01 00 	lea    0x1316a(%rip),%rax        # 20c30 <g_532>
    dac6:	48 89 85 18 fc ff ff 	mov    %rax,-0x3e8(%rbp)
    dacd:	48 c7 85 20 fc ff ff 	movq   $0x0,-0x3e0(%rbp)
    dad4:	00 00 00 00 
    dad8:	48 8d 05 51 31 01 00 	lea    0x13151(%rip),%rax        # 20c30 <g_532>
    dadf:	48 89 85 28 fc ff ff 	mov    %rax,-0x3d8(%rbp)
    dae6:	48 8d 05 43 31 01 00 	lea    0x13143(%rip),%rax        # 20c30 <g_532>
    daed:	48 89 85 30 fc ff ff 	mov    %rax,-0x3d0(%rbp)
    daf4:	48 c7 85 38 fc ff ff 	movq   $0x0,-0x3c8(%rbp)
    dafb:	00 00 00 00 
    daff:	48 8d 05 2a 31 01 00 	lea    0x1312a(%rip),%rax        # 20c30 <g_532>
    db06:	48 89 85 40 fc ff ff 	mov    %rax,-0x3c0(%rbp)
    db0d:	48 8d 05 1c 31 01 00 	lea    0x1311c(%rip),%rax        # 20c30 <g_532>
    db14:	48 89 85 48 fc ff ff 	mov    %rax,-0x3b8(%rbp)
    db1b:	48 c7 85 50 fc ff ff 	movq   $0x0,-0x3b0(%rbp)
    db22:	00 00 00 00 
    db26:	48 8d 05 03 31 01 00 	lea    0x13103(%rip),%rax        # 20c30 <g_532>
    db2d:	48 89 85 58 fc ff ff 	mov    %rax,-0x3a8(%rbp)
    db34:	c7 85 90 fa ff ff 00 	movl   $0x0,-0x570(%rbp)
    db3b:	00 00 00 
    db3e:	c7 85 80 fa ff ff 51 	movl   $0x8535ad51,-0x580(%rbp)
    db45:	ad 35 85 
    db48:	c7 85 94 fa ff ff 20 	movl   $0x74278220,-0x56c(%rbp)
    db4f:	82 27 74 
    db52:	48 c7 85 e8 fa ff ff 	movq   $0x0,-0x518(%rbp)
    db59:	00 00 00 00 
    db5d:	48 8d 85 80 fa ff ff 	lea    -0x580(%rbp),%rax
    db64:	48 89 85 a8 fa ff ff 	mov    %rax,-0x558(%rbp)
    db6b:	c7 85 84 fa ff ff 5c 	movl   $0x3a697c5c,-0x57c(%rbp)
    db72:	7c 69 3a 
    db75:	48 8d 05 9c 30 01 00 	lea    0x1309c(%rip),%rax        # 20c18 <g_291>
    db7c:	48 89 85 b0 fa ff ff 	mov    %rax,-0x550(%rbp)
    db83:	48 b8 3b 48 58 ce 28 	movabs $0xfd244428ce58483b,%rax
    db8a:	44 24 fd 
    db8d:	48 89 85 f0 fa ff ff 	mov    %rax,-0x510(%rbp)
    db94:	48 c7 85 f8 fa ff ff 	movq   $0x0,-0x508(%rbp)
    db9b:	00 00 00 00 
    db9f:	c7 85 98 fa ff ff 07 	movl   $0x7,-0x568(%rbp)
    dba6:	00 00 00 
    dba9:	66 c7 85 78 fa ff ff 	movw   $0x0,-0x588(%rbp)
    dbb0:	00 00 
    dbb2:	c7 85 88 fa ff ff 00 	movl   $0x0,-0x578(%rbp)
    dbb9:	00 00 00 
    dbbc:	eb 1e                	jmp    dbdc <func_26+0x19a>
    dbbe:	8b 85 88 fa ff ff    	mov    -0x578(%rbp),%eax
    dbc4:	48 98                	cltq   
    dbc6:	48 8d 15 73 30 01 00 	lea    0x13073(%rip),%rdx        # 20c40 <g_985>
    dbcd:	48 89 94 c5 80 fb ff 	mov    %rdx,-0x480(%rbp,%rax,8)
    dbd4:	ff 
    dbd5:	83 85 88 fa ff ff 01 	addl   $0x1,-0x578(%rbp)
    dbdc:	83 bd 88 fa ff ff 05 	cmpl   $0x5,-0x578(%rbp)
    dbe3:	7e d9                	jle    dbbe <func_26+0x17c>
    dbe5:	66 c7 05 f2 05 01 00 	movw   $0x0,0x105f2(%rip)        # 1e1e0 <g_131>
    dbec:	00 00 
    dbee:	e9 b5 03 00 00       	jmpq   dfa8 <func_26+0x566>
    dbf3:	48 8d 85 20 fd ff ff 	lea    -0x2e0(%rbp),%rax
    dbfa:	48 8d 15 7f 08 01 00 	lea    0x1087f(%rip),%rdx        # 1e480 <g_2753+0x134>
    dc01:	b9 5a 00 00 00       	mov    $0x5a,%ecx
    dc06:	48 89 c7             	mov    %rax,%rdi
    dc09:	48 89 d6             	mov    %rdx,%rsi
    dc0c:	f3 48 a5             	rep movsq %ds:(%rsi),%es:(%rdi)
    dc0f:	66 c7 85 7a fa ff ff 	movw   $0x7ac2,-0x586(%rbp)
    dc16:	c2 7a 
    dc18:	48 8d 05 b1 06 01 00 	lea    0x106b1(%rip),%rax        # 1e2d0 <g_759>
    dc1f:	48 89 85 b0 fb ff ff 	mov    %rax,-0x450(%rbp)
    dc26:	48 8d 05 1f 04 01 00 	lea    0x1041f(%rip),%rax        # 1e04c <g_90>
    dc2d:	48 89 85 b8 fb ff ff 	mov    %rax,-0x448(%rbp)
    dc34:	48 8d 05 11 04 01 00 	lea    0x10411(%rip),%rax        # 1e04c <g_90>
    dc3b:	48 89 85 c0 fb ff ff 	mov    %rax,-0x440(%rbp)
    dc42:	48 8d 05 87 06 01 00 	lea    0x10687(%rip),%rax        # 1e2d0 <g_759>
    dc49:	48 89 85 c8 fb ff ff 	mov    %rax,-0x438(%rbp)
    dc50:	48 8d 05 f5 03 01 00 	lea    0x103f5(%rip),%rax        # 1e04c <g_90>
    dc57:	48 89 85 d0 fb ff ff 	mov    %rax,-0x430(%rbp)
    dc5e:	48 8d 05 e7 03 01 00 	lea    0x103e7(%rip),%rax        # 1e04c <g_90>
    dc65:	48 89 85 d8 fb ff ff 	mov    %rax,-0x428(%rbp)
    dc6c:	48 8d 05 5d 06 01 00 	lea    0x1065d(%rip),%rax        # 1e2d0 <g_759>
    dc73:	48 89 85 e0 fb ff ff 	mov    %rax,-0x420(%rbp)
    dc7a:	48 8d 85 b0 fb ff ff 	lea    -0x450(%rbp),%rax
    dc81:	48 83 c0 30          	add    $0x30,%rax
    dc85:	48 89 85 00 fb ff ff 	mov    %rax,-0x500(%rbp)
    dc8c:	66 c7 85 7c fa ff ff 	movw   $0x788f,-0x584(%rbp)
    dc93:	8f 78 
    dc95:	48 8d 05 4c 1a 01 00 	lea    0x11a4c(%rip),%rax        # 1f6e8 <g_320+0x48>
    dc9c:	48 89 85 08 fb ff ff 	mov    %rax,-0x4f8(%rbp)
    dca3:	48 8d 05 96 2f 01 00 	lea    0x12f96(%rip),%rax        # 20c40 <g_985>
    dcaa:	48 89 85 10 fb ff ff 	mov    %rax,-0x4f0(%rbp)
    dcb1:	48 8d 05 f0 05 01 00 	lea    0x105f0(%rip),%rax        # 1e2a8 <g_452>
    dcb8:	48 89 85 b8 fa ff ff 	mov    %rax,-0x548(%rbp)
    dcbf:	48 8d 85 b8 fa ff ff 	lea    -0x548(%rbp),%rax
    dcc6:	48 89 85 18 fb ff ff 	mov    %rax,-0x4e8(%rbp)
    dccd:	48 8d 05 44 06 01 00 	lea    0x10644(%rip),%rax        # 1e318 <g_1032>
    dcd4:	48 89 85 60 fc ff ff 	mov    %rax,-0x3a0(%rbp)
    dcdb:	48 8d 05 36 06 01 00 	lea    0x10636(%rip),%rax        # 1e318 <g_1032>
    dce2:	48 89 85 68 fc ff ff 	mov    %rax,-0x398(%rbp)
    dce9:	48 8d 05 28 06 01 00 	lea    0x10628(%rip),%rax        # 1e318 <g_1032>
    dcf0:	48 89 85 70 fc ff ff 	mov    %rax,-0x390(%rbp)
    dcf7:	48 8d 85 84 fa ff ff 	lea    -0x57c(%rbp),%rax
    dcfe:	48 89 85 78 fc ff ff 	mov    %rax,-0x388(%rbp)
    dd05:	48 8d 05 0c 06 01 00 	lea    0x1060c(%rip),%rax        # 1e318 <g_1032>
    dd0c:	48 89 85 80 fc ff ff 	mov    %rax,-0x380(%rbp)
    dd13:	48 c7 85 88 fc ff ff 	movq   $0x0,-0x378(%rbp)
    dd1a:	00 00 00 00 
    dd1e:	48 c7 85 90 fc ff ff 	movq   $0x0,-0x370(%rbp)
    dd25:	00 00 00 00 
    dd29:	48 8d 05 e8 05 01 00 	lea    0x105e8(%rip),%rax        # 1e318 <g_1032>
    dd30:	48 89 85 98 fc ff ff 	mov    %rax,-0x368(%rbp)
    dd37:	48 8d 85 84 fa ff ff 	lea    -0x57c(%rbp),%rax
    dd3e:	48 89 85 a0 fc ff ff 	mov    %rax,-0x360(%rbp)
    dd45:	48 8d 05 cc 05 01 00 	lea    0x105cc(%rip),%rax        # 1e318 <g_1032>
    dd4c:	48 89 85 a8 fc ff ff 	mov    %rax,-0x358(%rbp)
    dd53:	48 8d 05 be 05 01 00 	lea    0x105be(%rip),%rax        # 1e318 <g_1032>
    dd5a:	48 89 85 b0 fc ff ff 	mov    %rax,-0x350(%rbp)
    dd61:	48 8d 05 b0 05 01 00 	lea    0x105b0(%rip),%rax        # 1e318 <g_1032>
    dd68:	48 89 85 b8 fc ff ff 	mov    %rax,-0x348(%rbp)
    dd6f:	48 8d 05 ba 05 01 00 	lea    0x105ba(%rip),%rax        # 1e330 <g_1627>
    dd76:	48 89 85 c0 fc ff ff 	mov    %rax,-0x340(%rbp)
    dd7d:	48 c7 85 c8 fc ff ff 	movq   $0x0,-0x338(%rbp)
    dd84:	00 00 00 00 
    dd88:	48 8d 85 84 fa ff ff 	lea    -0x57c(%rbp),%rax
    dd8f:	48 89 85 d0 fc ff ff 	mov    %rax,-0x330(%rbp)
    dd96:	48 c7 85 d8 fc ff ff 	movq   $0x0,-0x328(%rbp)
    dd9d:	00 00 00 00 
    dda1:	48 8d 85 84 fa ff ff 	lea    -0x57c(%rbp),%rax
    dda8:	48 89 85 e0 fc ff ff 	mov    %rax,-0x320(%rbp)
    ddaf:	48 c7 85 e8 fc ff ff 	movq   $0x0,-0x318(%rbp)
    ddb6:	00 00 00 00 
    ddba:	48 c7 85 f0 fc ff ff 	movq   $0x0,-0x310(%rbp)
    ddc1:	00 00 00 00 
    ddc5:	48 8d 85 84 fa ff ff 	lea    -0x57c(%rbp),%rax
    ddcc:	48 89 85 f8 fc ff ff 	mov    %rax,-0x308(%rbp)
    ddd3:	48 8d 05 3e 05 01 00 	lea    0x1053e(%rip),%rax        # 1e318 <g_1032>
    ddda:	48 89 85 00 fd ff ff 	mov    %rax,-0x300(%rbp)
    dde1:	48 8d 05 48 05 01 00 	lea    0x10548(%rip),%rax        # 1e330 <g_1627>
    dde8:	48 89 85 08 fd ff ff 	mov    %rax,-0x2f8(%rbp)
    ddef:	48 8d 05 3a 05 01 00 	lea    0x1053a(%rip),%rax        # 1e330 <g_1627>
    ddf6:	48 89 85 10 fd ff ff 	mov    %rax,-0x2f0(%rbp)
    ddfd:	48 8d 05 2c 05 01 00 	lea    0x1052c(%rip),%rax        # 1e330 <g_1627>
    de04:	48 89 85 18 fd ff ff 	mov    %rax,-0x2e8(%rbp)
    de0b:	48 8d 85 a8 fa ff ff 	lea    -0x558(%rbp),%rax
    de12:	48 89 85 c0 fa ff ff 	mov    %rax,-0x540(%rbp)
    de19:	48 8d 85 c0 fa ff ff 	lea    -0x540(%rbp),%rax
    de20:	48 89 85 c8 fa ff ff 	mov    %rax,-0x538(%rbp)
    de27:	48 8d 85 c8 fa ff ff 	lea    -0x538(%rbp),%rax
    de2e:	48 89 85 20 fb ff ff 	mov    %rax,-0x4e0(%rbp)
    de35:	c7 85 9c fa ff ff ff 	movl   $0xffffffff,-0x564(%rbp)
    de3c:	ff ff ff 
    de3f:	c7 85 a0 fa ff ff 00 	movl   $0x0,-0x560(%rbp)
    de46:	00 00 00 
    de49:	48 c7 85 d0 fa ff ff 	movq   $0x0,-0x530(%rbp)
    de50:	00 00 00 00 
    de54:	c7 85 d0 fa ff ff 05 	movl   $0x5,-0x530(%rbp)
    de5b:	00 00 00 
    de5e:	0f b7 85 7a fa ff ff 	movzwl -0x586(%rbp),%eax
    de65:	83 e8 01             	sub    $0x1,%eax
    de68:	66 89 85 7a fa ff ff 	mov    %ax,-0x586(%rbp)
    de6f:	48 83 ad e0 fa ff ff 	subq   $0x1,-0x520(%rbp)
    de76:	01 
    de77:	48 83 bd e0 fa ff ff 	cmpq   $0x0,-0x520(%rbp)
    de7e:	00 
    de7f:	0f 85 36 01 00 00    	jne    dfbb <func_26+0x579>
    de85:	c7 05 9d 04 01 00 e9 	movl   $0xffffffe9,0x1049d(%rip)        # 1e32c <g_1493>
    de8c:	ff ff ff 
    de8f:	e9 e6 00 00 00       	jmpq   df7a <func_26+0x538>
    de94:	66 c7 85 7e fa ff ff 	movw   $0xeefa,-0x582(%rbp)
    de9b:	fa ee 
    de9d:	48 c7 85 d8 fa ff ff 	movq   $0x0,-0x528(%rbp)
    dea4:	00 00 00 00 
    dea8:	c7 85 d8 fa ff ff db 	movl   $0x747a2db,-0x528(%rbp)
    deaf:	a2 47 07 
    deb2:	c7 85 a4 fa ff ff 00 	movl   $0x0,-0x55c(%rbp)
    deb9:	00 00 00 
    debc:	48 8d 85 b0 fa ff ff 	lea    -0x550(%rbp),%rax
    dec3:	48 89 85 28 fb ff ff 	mov    %rax,-0x4d8(%rbp)
    deca:	48 c7 85 30 fb ff ff 	movq   $0x6,-0x4d0(%rbp)
    ded1:	06 00 00 00 
    ded5:	48 8d 05 ac 18 01 00 	lea    0x118ac(%rip),%rax        # 1f788 <g_531>
    dedc:	48 89 85 38 fb ff ff 	mov    %rax,-0x4c8(%rbp)
    dee3:	48 8d 85 20 fd ff ff 	lea    -0x2e0(%rbp),%rax
    deea:	48 05 78 02 00 00    	add    $0x278,%rax
    def0:	48 89 85 40 fb ff ff 	mov    %rax,-0x4c0(%rbp)
    def7:	48 c7 85 48 fb ff ff 	movq   $0x0,-0x4b8(%rbp)
    defe:	00 00 00 00 
    df02:	c7 85 8c fa ff ff 00 	movl   $0x0,-0x574(%rbp)
    df09:	00 00 00 
    df0c:	eb 1a                	jmp    df28 <func_26+0x4e6>
    df0e:	8b 85 8c fa ff ff    	mov    -0x574(%rbp),%eax
    df14:	48 98                	cltq   
    df16:	c7 84 85 60 fb ff ff 	movl   $0x1,-0x4a0(%rbp,%rax,4)
    df1d:	01 00 00 00 
    df21:	83 85 8c fa ff ff 01 	addl   $0x1,-0x574(%rbp)
    df28:	83 bd 8c fa ff ff 05 	cmpl   $0x5,-0x574(%rbp)
    df2f:	7e dd                	jle    df0e <func_26+0x4cc>
    df31:	c7 85 8c fa ff ff 00 	movl   $0x0,-0x574(%rbp)
    df38:	00 00 00 
    df3b:	eb 1a                	jmp    df57 <func_26+0x515>
    df3d:	8b 85 8c fa ff ff    	mov    -0x574(%rbp),%eax
    df43:	48 98                	cltq   
    df45:	c7 84 85 54 fb ff ff 	movl   $0xffffffff,-0x4ac(%rbp,%rax,4)
    df4c:	ff ff ff ff 
    df50:	83 85 8c fa ff ff 01 	addl   $0x1,-0x574(%rbp)
    df57:	83 bd 8c fa ff ff 02 	cmpl   $0x2,-0x574(%rbp)
    df5e:	7e dd                	jle    df3d <func_26+0x4fb>
    df60:	8b 05 c6 03 01 00    	mov    0x103c6(%rip),%eax        # 1e32c <g_1493>
    df66:	98                   	cwtl   
    df67:	be 05 00 00 00       	mov    $0x5,%esi
    df6c:	89 c7                	mov    %eax,%edi
    df6e:	e8 40 84 ff ff       	callq  63b3 <safe_add_func_int16_t_s_s>
    df73:	98                   	cwtl   
    df74:	89 05 b2 03 01 00    	mov    %eax,0x103b2(%rip)        # 1e32c <g_1493>
    df7a:	8b 05 ac 03 01 00    	mov    0x103ac(%rip),%eax        # 1e32c <g_1493>
    df80:	83 f8 17             	cmp    $0x17,%eax
    df83:	0f 84 0b ff ff ff    	je     de94 <func_26+0x452>
    df89:	0f b7 05 50 02 01 00 	movzwl 0x10250(%rip),%eax        # 1e1e0 <g_131>
    df90:	48 0f bf c0          	movswq %ax,%rax
    df94:	be 05 00 00 00       	mov    $0x5,%esi
    df99:	48 89 c7             	mov    %rax,%rdi
    df9c:	e8 aa 90 ff ff       	callq  704b <safe_sub_func_uint64_t_u_u>
    dfa1:	66 89 05 38 02 01 00 	mov    %ax,0x10238(%rip)        # 1e1e0 <g_131>
    dfa8:	0f b7 05 31 02 01 00 	movzwl 0x10231(%rip),%eax        # 1e1e0 <g_131>
    dfaf:	66 83 f8 e2          	cmp    $0xffe2,%ax
    dfb3:	0f 85 3a fc ff ff    	jne    dbf3 <func_26+0x1b1>
    dfb9:	eb 01                	jmp    dfbc <func_26+0x57a>
    dfbb:	90                   	nop
    dfbc:	0f b6 85 6c fa ff ff 	movzbl -0x594(%rbp),%eax
    dfc3:	48 8b 4d f8          	mov    -0x8(%rbp),%rcx
    dfc7:	64 48 33 0c 25 28 00 	xor    %fs:0x28,%rcx
    dfce:	00 00 
    dfd0:	74 05                	je     dfd7 <func_26+0x595>
    dfd2:	e8 99 80 ff ff       	callq  6070 <__stack_chk_fail@plt>
    dfd7:	c9                   	leaveq 
    dfd8:	c3                   	retq   

000000000000dfd9 <func_29>:
    dfd9:	f3 0f 1e fa          	endbr64 
    dfdd:	55                   	push   %rbp
    dfde:	48 89 e5             	mov    %rsp,%rbp
    dfe1:	48 81 ec 10 01 00 00 	sub    $0x110,%rsp
    dfe8:	89 bd 0c ff ff ff    	mov    %edi,-0xf4(%rbp)
    dfee:	48 89 b5 00 ff ff ff 	mov    %rsi,-0x100(%rbp)
    dff5:	89 95 08 ff ff ff    	mov    %edx,-0xf8(%rbp)
    dffb:	48 89 8d f8 fe ff ff 	mov    %rcx,-0x108(%rbp)
    e002:	64 48 8b 04 25 28 00 	mov    %fs:0x28,%rax
    e009:	00 00 
    e00b:	48 89 45 f8          	mov    %rax,-0x8(%rbp)
    e00f:	31 c0                	xor    %eax,%eax
    e011:	48 c7 85 18 ff ff ff 	movq   $0x0,-0xe8(%rbp)
    e018:	00 00 00 00 
    e01c:	48 8d 95 30 ff ff ff 	lea    -0xd0(%rbp),%rdx
    e023:	b8 00 00 00 00       	mov    $0x0,%eax
    e028:	b9 18 00 00 00       	mov    $0x18,%ecx
    e02d:	48 89 d7             	mov    %rdx,%rdi
    e030:	f3 48 ab             	rep stos %rax,%es:(%rdi)
    e033:	c6 85 30 ff ff ff 35 	movb   $0x35,-0xd0(%rbp)
    e03a:	c6 85 38 ff ff ff 35 	movb   $0x35,-0xc8(%rbp)
    e041:	c6 85 40 ff ff ff 35 	movb   $0x35,-0xc0(%rbp)
    e048:	c6 85 48 ff ff ff 35 	movb   $0x35,-0xb8(%rbp)
    e04f:	c6 85 50 ff ff ff 35 	movb   $0x35,-0xb0(%rbp)
    e056:	c6 85 58 ff ff ff 35 	movb   $0x35,-0xa8(%rbp)
    e05d:	c6 85 60 ff ff ff 35 	movb   $0x35,-0xa0(%rbp)
    e064:	c6 85 68 ff ff ff 35 	movb   $0x35,-0x98(%rbp)
    e06b:	c6 85 70 ff ff ff 35 	movb   $0x35,-0x90(%rbp)
    e072:	c6 85 78 ff ff ff 35 	movb   $0x35,-0x88(%rbp)
    e079:	c6 45 80 35          	movb   $0x35,-0x80(%rbp)
    e07d:	c6 45 88 35          	movb   $0x35,-0x78(%rbp)
    e081:	c6 45 90 35          	movb   $0x35,-0x70(%rbp)
    e085:	c6 45 98 35          	movb   $0x35,-0x68(%rbp)
    e089:	c6 45 a0 35          	movb   $0x35,-0x60(%rbp)
    e08d:	c6 45 a8 35          	movb   $0x35,-0x58(%rbp)
    e091:	c6 45 b0 35          	movb   $0x35,-0x50(%rbp)
    e095:	c6 45 b8 35          	movb   $0x35,-0x48(%rbp)
    e099:	c6 45 c0 35          	movb   $0x35,-0x40(%rbp)
    e09d:	c6 45 c8 35          	movb   $0x35,-0x38(%rbp)
    e0a1:	c6 45 d0 35          	movb   $0x35,-0x30(%rbp)
    e0a5:	c6 45 d8 35          	movb   $0x35,-0x28(%rbp)
    e0a9:	c6 45 e0 35          	movb   $0x35,-0x20(%rbp)
    e0ad:	c6 45 e8 35          	movb   $0x35,-0x18(%rbp)
    e0b1:	48 8d 05 70 17 01 00 	lea    0x11770(%rip),%rax        # 1f828 <g_840>
    e0b8:	48 89 85 20 ff ff ff 	mov    %rax,-0xe0(%rbp)
    e0bf:	48 8d 05 82 01 01 00 	lea    0x10182(%rip),%rax        # 1e248 <g_223>
    e0c6:	48 89 85 28 ff ff ff 	mov    %rax,-0xd8(%rbp)
    e0cd:	c6 85 17 ff ff ff 21 	movb   $0x21,-0xe9(%rbp)
    e0d4:	48 8b 05 25 26 01 00 	mov    0x12625(%rip),%rax        # 20700 <g_1450>
    e0db:	48 8d 95 08 ff ff ff 	lea    -0xf8(%rbp),%rdx
    e0e2:	48 89 10             	mov    %rdx,(%rax)
    e0e5:	48 8b 05 ac 16 01 00 	mov    0x116ac(%rip),%rax        # 1f798 <g_553>
    e0ec:	48 8b 00             	mov    (%rax),%rax
    e0ef:	48 8b 00             	mov    (%rax),%rax
    e0f2:	c7 00 ff ff ff ff    	movl   $0xffffffff,(%rax)
    e0f8:	48 8b 85 20 ff ff ff 	mov    -0xe0(%rbp),%rax
    e0ff:	48 8b 00             	mov    (%rax),%rax
    e102:	8b 00                	mov    (%rax),%eax
    e104:	48 8b 75 f8          	mov    -0x8(%rbp),%rsi
    e108:	64 48 33 34 25 28 00 	xor    %fs:0x28,%rsi
    e10f:	00 00 
    e111:	74 05                	je     e118 <func_29+0x13f>
    e113:	e8 58 7f ff ff       	callq  6070 <__stack_chk_fail@plt>
    e118:	c9                   	leaveq 
    e119:	c3                   	retq   

000000000000e11a <func_34>:
    e11a:	f3 0f 1e fa          	endbr64 
    e11e:	55                   	push   %rbp
    e11f:	48 89 e5             	mov    %rsp,%rbp
    e122:	41 57                	push   %r15
    e124:	41 56                	push   %r14
    e126:	41 55                	push   %r13
    e128:	41 54                	push   %r12
    e12a:	53                   	push   %rbx
    e12b:	48 81 ec 78 01 00 00 	sub    $0x178,%rsp
    e132:	48 89 bd 88 fe ff ff 	mov    %rdi,-0x178(%rbp)
    e139:	89 f0                	mov    %esi,%eax
    e13b:	48 89 95 78 fe ff ff 	mov    %rdx,-0x188(%rbp)
    e142:	88 85 84 fe ff ff    	mov    %al,-0x17c(%rbp)
    e148:	64 48 8b 04 25 28 00 	mov    %fs:0x28,%rax
    e14f:	00 00 
    e151:	48 89 45 c8          	mov    %rax,-0x38(%rbp)
    e155:	31 c0                	xor    %eax,%eax
    e157:	48 8d 05 c6 fe 00 00 	lea    0xfec6(%rip),%rax        # 1e024 <g_9>
    e15e:	48 89 85 b0 fe ff ff 	mov    %rax,-0x150(%rbp)
    e165:	48 c7 85 40 ff ff ff 	movq   $0x0,-0xc0(%rbp)
    e16c:	00 00 00 00 
    e170:	48 8d 05 ae fe 00 00 	lea    0xfeae(%rip),%rax        # 1e025 <g_66>
    e177:	48 89 85 48 ff ff ff 	mov    %rax,-0xb8(%rbp)
    e17e:	48 c7 85 50 ff ff ff 	movq   $0x0,-0xb0(%rbp)
    e185:	00 00 00 00 
    e189:	48 8d 05 95 fe 00 00 	lea    0xfe95(%rip),%rax        # 1e025 <g_66>
    e190:	48 89 85 58 ff ff ff 	mov    %rax,-0xa8(%rbp)
    e197:	48 c7 85 60 ff ff ff 	movq   $0x0,-0xa0(%rbp)
    e19e:	00 00 00 00 
    e1a2:	48 8d 05 7c fe 00 00 	lea    0xfe7c(%rip),%rax        # 1e025 <g_66>
    e1a9:	48 89 85 68 ff ff ff 	mov    %rax,-0x98(%rbp)
    e1b0:	48 c7 85 70 ff ff ff 	movq   $0x0,-0x90(%rbp)
    e1b7:	00 00 00 00 
    e1bb:	48 8d 05 63 fe 00 00 	lea    0xfe63(%rip),%rax        # 1e025 <g_66>
    e1c2:	48 89 85 78 ff ff ff 	mov    %rax,-0x88(%rbp)
    e1c9:	c7 85 9c fe ff ff 88 	movl   $0xdd30a988,-0x164(%rbp)
    e1d0:	a9 30 dd 
    e1d3:	48 c7 85 b8 fe ff ff 	movq   $0x0,-0x148(%rbp)
    e1da:	00 00 00 00 
    e1de:	48 c7 85 a8 fe ff ff 	movq   $0x0,-0x158(%rbp)
    e1e5:	00 00 00 00 
    e1e9:	c6 85 a8 fe ff ff b9 	movb   $0xb9,-0x158(%rbp)
    e1f0:	66 c7 85 92 fe ff ff 	movw   $0x9,-0x16e(%rbp)
    e1f7:	09 00 
    e1f9:	48 8d 05 f0 00 01 00 	lea    0x100f0(%rip),%rax        # 1e2f0 <g_809+0x10>
    e200:	48 89 85 c0 fe ff ff 	mov    %rax,-0x140(%rbp)
    e207:	c7 85 a0 fe ff ff 07 	movl   $0x7,-0x160(%rbp)
    e20e:	00 00 00 
    e211:	48 8d 05 f8 29 01 00 	lea    0x129f8(%rip),%rax        # 20c10 <g_272>
    e218:	48 89 85 c8 fe ff ff 	mov    %rax,-0x138(%rbp)
    e21f:	c7 85 94 fe ff ff 00 	movl   $0x0,-0x16c(%rbp)
    e226:	00 00 00 
    e229:	eb 18                	jmp    e243 <func_34+0x129>
    e22b:	8b 85 94 fe ff ff    	mov    -0x16c(%rbp),%eax
    e231:	48 98                	cltq   
    e233:	48 c7 44 c5 80 00 00 	movq   $0x0,-0x80(%rbp,%rax,8)
    e23a:	00 00 
    e23c:	83 85 94 fe ff ff 01 	addl   $0x1,-0x16c(%rbp)
    e243:	83 bd 94 fe ff ff 07 	cmpl   $0x7,-0x16c(%rbp)
    e24a:	7e df                	jle    e22b <func_34+0x111>
    e24c:	0f b6 05 55 00 01 00 	movzbl 0x10055(%rip),%eax        # 1e2a8 <g_452>
    e253:	44 0f be e0          	movsbl %al,%r12d
    e257:	0f b6 85 84 fe ff ff 	movzbl -0x17c(%rbp),%eax
    e25e:	0f b6 d8             	movzbl %al,%ebx
    e261:	48 83 bd b0 fe ff ff 	cmpq   $0x0,-0x150(%rbp)
    e268:	00 
    e269:	0f 94 c0             	sete   %al
    e26c:	0f b6 c0             	movzbl %al,%eax
    e26f:	89 85 74 fe ff ff    	mov    %eax,-0x18c(%rbp)
    e275:	8b 85 9c fe ff ff    	mov    -0x164(%rbp),%eax
    e27b:	44 0f bf e8          	movswl %ax,%r13d
    e27f:	b8 ff ff ff ff       	mov    $0xffffffff,%eax
    e284:	48 63 f0             	movslq %eax,%rsi
    e287:	48 89 b5 68 fe ff ff 	mov    %rsi,-0x198(%rbp)
    e28e:	48 8b bd 78 ff ff ff 	mov    -0x88(%rbp),%rdi
    e295:	48 89 bd 60 fe ff ff 	mov    %rdi,-0x1a0(%rbp)
    e29c:	b8 08 74 99 80       	mov    $0x80997408,%eax
    e2a1:	44 0f bf f8          	movswl %ax,%r15d
    e2a5:	0f b6 85 84 fe ff ff 	movzbl -0x17c(%rbp),%eax
    e2ac:	44 0f b6 f0          	movzbl %al,%r14d
    e2b0:	b8 86 c5 81 49       	mov    $0x4981c586,%eax
    e2b5:	88 85 73 fe ff ff    	mov    %al,-0x18d(%rbp)
    e2bb:	48 c7 c6 ff ff ff ff 	mov    $0xffffffffffffffff,%rsi
    e2c2:	bf 01 00 00 00       	mov    $0x1,%edi
    e2c7:	e8 e3 8d ff ff       	callq  70af <safe_div_func_uint64_t_u_u>
    e2cc:	0f be c0             	movsbl %al,%eax
    e2cf:	be 9a ff ff ff       	mov    $0xffffff9a,%esi
    e2d4:	89 c7                	mov    %eax,%edi
    e2d6:	e8 8f 7f ff ff       	callq  626a <safe_div_func_int8_t_s_s>
    e2db:	0f b6 95 73 fe ff ff 	movzbl -0x18d(%rbp),%edx
    e2e2:	31 c2                	xor    %eax,%edx
    e2e4:	48 8b 85 b0 fe ff ff 	mov    -0x150(%rbp),%rax
    e2eb:	88 10                	mov    %dl,(%rax)
    e2ed:	48 8b 85 b0 fe ff ff 	mov    -0x150(%rbp),%rax
    e2f4:	0f b6 00             	movzbl (%rax),%eax
    e2f7:	38 85 84 fe ff ff    	cmp    %al,-0x17c(%rbp)
    e2fd:	0f 9f c0             	setg   %al
    e300:	0f b6 c0             	movzbl %al,%eax
    e303:	4c 8b 85 68 fe ff ff 	mov    -0x198(%rbp),%r8
    e30a:	48 8b 8d 60 fe ff ff 	mov    -0x1a0(%rbp),%rcx
    e311:	44 89 fa             	mov    %r15d,%edx
    e314:	44 89 f6             	mov    %r14d,%esi
    e317:	48 89 c7             	mov    %rax,%rdi
    e31a:	e8 a8 91 00 00       	callq  174c7 <func_55>
    e31f:	98                   	cwtl   
    e320:	44 89 ee             	mov    %r13d,%esi
    e323:	89 c7                	mov    %eax,%edi
    e325:	e8 cb 80 ff ff       	callq  63f5 <safe_mul_func_int16_t_s_s>
    e32a:	0f bf d0             	movswl %ax,%edx
    e32d:	0f b6 85 84 fe ff ff 	movzbl -0x17c(%rbp),%eax
    e334:	0f b6 c0             	movzbl %al,%eax
    e337:	89 d6                	mov    %edx,%esi
    e339:	89 c7                	mov    %eax,%edi
    e33b:	e8 7e 89 ff ff       	callq  6cbe <safe_rshift_func_uint8_t_u_u>
    e340:	0f b6 c0             	movzbl %al,%eax
    e343:	39 85 74 fe ff ff    	cmp    %eax,-0x18c(%rbp)
    e349:	0f 9f c0             	setg   %al
    e34c:	0f b6 f0             	movzbl %al,%esi
    e34f:	48 8b bd a8 fe ff ff 	mov    -0x158(%rbp),%rdi
    e356:	48 8b 8d b8 fe ff ff 	mov    -0x148(%rbp),%rcx
    e35d:	48 8b 95 b8 fe ff ff 	mov    -0x148(%rbp),%rdx
    e364:	48 8b 85 b0 fe ff ff 	mov    -0x150(%rbp),%rax
    e36b:	49 89 f8             	mov    %rdi,%r8
    e36e:	48 89 c7             	mov    %rax,%rdi
    e371:	e8 88 2c 00 00       	callq  10ffe <func_44>
    e376:	4c 8b 2d 83 23 01 00 	mov    0x12383(%rip),%r13        # 20700 <g_1450>
    e37d:	44 89 e2             	mov    %r12d,%edx
    e380:	89 de                	mov    %ebx,%esi
    e382:	48 89 c7             	mov    %rax,%rdi
    e385:	e8 fa 02 00 00       	callq  e684 <func_40>
    e38a:	49 89 45 00          	mov    %rax,0x0(%r13)
    e38e:	c6 05 0b ff 00 00 00 	movb   $0x0,0xff0b(%rip)        # 1e2a0 <g_446>
    e395:	e9 d8 01 00 00       	jmpq   e572 <func_34+0x458>
    e39a:	48 8d 05 89 ff 00 00 	lea    0xff89(%rip),%rax        # 1e32a <g_1299>
    e3a1:	48 89 85 00 ff ff ff 	mov    %rax,-0x100(%rbp)
    e3a8:	48 8d 05 e3 fe 00 00 	lea    0xfee3(%rip),%rax        # 1e292 <g_395+0x32>
    e3af:	48 89 85 08 ff ff ff 	mov    %rax,-0xf8(%rbp)
    e3b6:	48 8d 05 d5 fe 00 00 	lea    0xfed5(%rip),%rax        # 1e292 <g_395+0x32>
    e3bd:	48 89 85 10 ff ff ff 	mov    %rax,-0xf0(%rbp)
    e3c4:	48 8d 05 5f ff 00 00 	lea    0xff5f(%rip),%rax        # 1e32a <g_1299>
    e3cb:	48 89 85 18 ff ff ff 	mov    %rax,-0xe8(%rbp)
    e3d2:	48 8d 05 b9 fe 00 00 	lea    0xfeb9(%rip),%rax        # 1e292 <g_395+0x32>
    e3d9:	48 89 85 20 ff ff ff 	mov    %rax,-0xe0(%rbp)
    e3e0:	48 8d 05 ab fe 00 00 	lea    0xfeab(%rip),%rax        # 1e292 <g_395+0x32>
    e3e7:	48 89 85 28 ff ff ff 	mov    %rax,-0xd8(%rbp)
    e3ee:	48 8d 05 35 ff 00 00 	lea    0xff35(%rip),%rax        # 1e32a <g_1299>
    e3f5:	48 89 85 30 ff ff ff 	mov    %rax,-0xd0(%rbp)
    e3fc:	48 8d 05 33 fe 00 00 	lea    0xfe33(%rip),%rax        # 1e236 <g_198+0x16>
    e403:	48 89 85 d0 fe ff ff 	mov    %rax,-0x130(%rbp)
    e40a:	48 8d 05 df fe 00 00 	lea    0xfedf(%rip),%rax        # 1e2f0 <g_809+0x10>
    e411:	48 89 85 d8 fe ff ff 	mov    %rax,-0x128(%rbp)
    e418:	c7 85 a4 fe ff ff cf 	movl   $0xa5b7c2cf,-0x15c(%rbp)
    e41f:	c2 b7 a5 
    e422:	48 c7 85 e0 fe ff ff 	movq   $0x0,-0x120(%rbp)
    e429:	00 00 00 00 
    e42d:	48 8d 05 18 fc 00 00 	lea    0xfc18(%rip),%rax        # 1e04c <g_90>
    e434:	48 89 85 e8 fe ff ff 	mov    %rax,-0x118(%rbp)
    e43b:	c7 85 98 fe ff ff 00 	movl   $0x0,-0x168(%rbp)
    e442:	00 00 00 
    e445:	eb 1a                	jmp    e461 <func_34+0x347>
    e447:	8b 85 98 fe ff ff    	mov    -0x168(%rbp),%eax
    e44d:	48 98                	cltq   
    e44f:	c7 84 85 f4 fe ff ff 	movl   $0x1,-0x10c(%rbp,%rax,4)
    e456:	01 00 00 00 
    e45a:	83 85 98 fe ff ff 01 	addl   $0x1,-0x168(%rbp)
    e461:	83 bd 98 fe ff ff 02 	cmpl   $0x2,-0x168(%rbp)
    e468:	7e dd                	jle    e447 <func_34+0x32d>
    e46a:	48 8b 05 7f 13 01 00 	mov    0x1137f(%rip),%rax        # 1f7f0 <g_641>
    e471:	0f b7 00             	movzwl (%rax),%eax
    e474:	41 89 c5             	mov    %eax,%r13d
    e477:	48 8b 05 aa 13 01 00 	mov    0x113aa(%rip),%rax        # 1f828 <g_840>
    e47e:	44 8b 20             	mov    (%rax),%r12d
    e481:	8b 85 a4 fe ff ff    	mov    -0x15c(%rbp),%eax
    e487:	0f b7 d8             	movzwl %ax,%ebx
    e48a:	8b 95 f4 fe ff ff    	mov    -0x10c(%rbp),%edx
    e490:	0f be 85 84 fe ff ff 	movsbl -0x17c(%rbp),%eax
    e497:	21 d0                	and    %edx,%eax
    e499:	89 85 f4 fe ff ff    	mov    %eax,-0x10c(%rbp)
    e49f:	8b 85 f4 fe ff ff    	mov    -0x10c(%rbp),%eax
    e4a5:	89 c1                	mov    %eax,%ecx
    e4a7:	0f b6 05 22 fe 00 00 	movzbl 0xfe22(%rip),%eax        # 1e2d0 <g_759>
    e4ae:	0f b6 d0             	movzbl %al,%edx
    e4b1:	48 8b 85 d0 fe ff ff 	mov    -0x130(%rbp),%rax
    e4b8:	66 89 10             	mov    %dx,(%rax)
    e4bb:	48 8b 85 d8 fe ff ff 	mov    -0x128(%rbp),%rax
    e4c2:	c7 00 00 00 00 00    	movl   $0x0,(%rax)
    e4c8:	48 8b 85 d8 fe ff ff 	mov    -0x128(%rbp),%rax
    e4cf:	8b 00                	mov    (%rax),%eax
    e4d1:	89 ce                	mov    %ecx,%esi
    e4d3:	89 c7                	mov    %eax,%edi
    e4d5:	e8 23 8a ff ff       	callq  6efd <safe_mod_func_uint32_t_u_u>
    e4da:	0f bf 95 92 fe ff ff 	movswl -0x16e(%rbp),%edx
    e4e1:	39 d0                	cmp    %edx,%eax
    e4e3:	83 bd a4 fe ff ff 00 	cmpl   $0x0,-0x15c(%rbp)
    e4ea:	74 07                	je     e4f3 <func_34+0x3d9>
    e4ec:	ba 01 00 00 00       	mov    $0x1,%edx
    e4f1:	eb 05                	jmp    e4f8 <func_34+0x3de>
    e4f3:	ba 00 00 00 00       	mov    $0x0,%edx
    e4f8:	0f be 85 84 fe ff ff 	movsbl -0x17c(%rbp),%eax
    e4ff:	39 c2                	cmp    %eax,%edx
    e501:	0f 9e c0             	setle  %al
    e504:	0f b6 c0             	movzbl %al,%eax
    e507:	89 de                	mov    %ebx,%esi
    e509:	89 c7                	mov    %eax,%edi
    e50b:	e8 2d 88 ff ff       	callq  6d3d <safe_mul_func_uint16_t_u_u>
    e510:	0f b7 c0             	movzwl %ax,%eax
    e513:	44 89 e2             	mov    %r12d,%edx
    e516:	09 c2                	or     %eax,%edx
    e518:	0f be 85 84 fe ff ff 	movsbl -0x17c(%rbp),%eax
    e51f:	39 c2                	cmp    %eax,%edx
    e521:	0f 94 c0             	sete   %al
    e524:	44 21 e8             	and    %r13d,%eax
    e527:	89 c2                	mov    %eax,%edx
    e529:	48 8b 85 e8 fe ff ff 	mov    -0x118(%rbp),%rax
    e530:	88 10                	mov    %dl,(%rax)
    e532:	48 8b 85 e8 fe ff ff 	mov    -0x118(%rbp),%rax
    e539:	0f b6 00             	movzbl (%rax),%eax
    e53c:	0f b6 c0             	movzbl %al,%eax
    e53f:	39 85 9c fe ff ff    	cmp    %eax,-0x164(%rbp)
    e545:	0f 9c c2             	setl   %dl
    e548:	48 8b 05 d9 12 01 00 	mov    0x112d9(%rip),%rax        # 1f828 <g_840>
    e54f:	0f b6 d2             	movzbl %dl,%edx
    e552:	89 10                	mov    %edx,(%rax)
    e554:	0f b6 05 45 fd 00 00 	movzbl 0xfd45(%rip),%eax        # 1e2a0 <g_446>
    e55b:	66 98                	cbtw   
    e55d:	0f b7 c0             	movzwl %ax,%eax
    e560:	be 04 00 00 00       	mov    $0x4,%esi
    e565:	89 c7                	mov    %eax,%edi
    e567:	e8 93 87 ff ff       	callq  6cff <safe_add_func_uint16_t_u_u>
    e56c:	88 05 2e fd 00 00    	mov    %al,0xfd2e(%rip)        # 1e2a0 <g_446>
    e572:	0f b6 05 27 fd 00 00 	movzbl 0xfd27(%rip),%eax        # 1e2a0 <g_446>
    e579:	3c 10                	cmp    $0x10,%al
    e57b:	0f 8f 19 fe ff ff    	jg     e39a <func_34+0x280>
    e581:	48 8b 05 d8 10 01 00 	mov    0x110d8(%rip),%rax        # 1f660 <g_193>
    e588:	0f b6 00             	movzbl (%rax),%eax
    e58b:	0f be 9d 84 fe ff ff 	movsbl -0x17c(%rbp),%ebx
    e592:	48 8b 05 57 12 01 00 	mov    0x11257(%rip),%rax        # 1f7f0 <g_641>
    e599:	0f b7 00             	movzwl (%rax),%eax
    e59c:	0f b7 c0             	movzwl %ax,%eax
    e59f:	89 c6                	mov    %eax,%esi
    e5a1:	bf 01 00 00 00       	mov    $0x1,%edi
    e5a6:	e8 74 87 ff ff       	callq  6d1f <safe_sub_func_uint16_t_u_u>
    e5ab:	66 85 c0             	test   %ax,%ax
    e5ae:	75 23                	jne    e5d3 <func_34+0x4b9>
    e5b0:	48 8b 85 c0 fe ff ff 	mov    -0x140(%rbp),%rax
    e5b7:	8b 00                	mov    (%rax),%eax
    e5b9:	8d 48 01             	lea    0x1(%rax),%ecx
    e5bc:	48 8b 95 c0 fe ff ff 	mov    -0x140(%rbp),%rdx
    e5c3:	89 0a                	mov    %ecx,(%rdx)
    e5c5:	0f b7 15 42 fc 00 00 	movzwl 0xfc42(%rip),%edx        # 1e20e <g_196+0xe>
    e5cc:	0f b7 d2             	movzwl %dx,%edx
    e5cf:	39 d0                	cmp    %edx,%eax
    e5d1:	73 07                	jae    e5da <func_34+0x4c0>
    e5d3:	b8 01 00 00 00       	mov    $0x1,%eax
    e5d8:	eb 05                	jmp    e5df <func_34+0x4c5>
    e5da:	b8 00 00 00 00       	mov    $0x0,%eax
    e5df:	85 c0                	test   %eax,%eax
    e5e1:	0f 94 c0             	sete   %al
    e5e4:	0f b6 c0             	movzbl %al,%eax
    e5e7:	39 85 9c fe ff ff    	cmp    %eax,-0x164(%rbp)
    e5ed:	0f 94 c0             	sete   %al
    e5f0:	0f b6 c0             	movzbl %al,%eax
    e5f3:	89 c7                	mov    %eax,%edi
    e5f5:	e8 4b 85 ff ff       	callq  6b45 <safe_unary_minus_func_uint8_t_u>
    e5fa:	0f be c0             	movsbl %al,%eax
    e5fd:	be 04 00 00 00       	mov    $0x4,%esi
    e602:	89 c7                	mov    %eax,%edi
    e604:	e8 e5 7c ff ff       	callq  62ee <safe_lshift_func_int8_t_s_u>
    e609:	0f be d0             	movsbl %al,%edx
    e60c:	8b 05 06 fd 00 00    	mov    0xfd06(%rip),%eax        # 1e318 <g_1032>
    e612:	21 d0                	and    %edx,%eax
    e614:	89 85 a8 fe ff ff    	mov    %eax,-0x158(%rbp)
    e61a:	89 de                	mov    %ebx,%esi
    e61c:	bf fa ff ff ff       	mov    $0xfffffffa,%edi
    e621:	e8 6c 7e ff ff       	callq  6492 <safe_lshift_func_int16_t_s_s>
    e626:	80 bd 84 fe ff ff 69 	cmpb   $0x69,-0x17c(%rbp)
    e62d:	0f 94 c2             	sete   %dl
    e630:	48 8b 05 f1 11 01 00 	mov    0x111f1(%rip),%rax        # 1f828 <g_840>
    e637:	0f b6 d2             	movzbl %dl,%edx
    e63a:	89 10                	mov    %edx,(%rax)
    e63c:	8b 00                	mov    (%rax),%eax
    e63e:	09 85 a0 fe ff ff    	or     %eax,-0x160(%rbp)
    e644:	48 8b 05 35 11 01 00 	mov    0x11135(%rip),%rax        # 1f780 <g_368>
    e64b:	48 8b 00             	mov    (%rax),%rax
    e64e:	48 8b 95 c8 fe ff ff 	mov    -0x138(%rbp),%rdx
    e655:	48 89 10             	mov    %rdx,(%rax)
    e658:	8b 85 a8 fe ff ff    	mov    -0x158(%rbp),%eax
    e65e:	48 8b 5d c8          	mov    -0x38(%rbp),%rbx
    e662:	64 48 33 1c 25 28 00 	xor    %fs:0x28,%rbx
    e669:	00 00 
    e66b:	74 05                	je     e672 <func_34+0x558>
    e66d:	e8 fe 79 ff ff       	callq  6070 <__stack_chk_fail@plt>
    e672:	48 81 c4 78 01 00 00 	add    $0x178,%rsp
    e679:	5b                   	pop    %rbx
    e67a:	41 5c                	pop    %r12
    e67c:	41 5d                	pop    %r13
    e67e:	41 5e                	pop    %r14
    e680:	41 5f                	pop    %r15
    e682:	5d                   	pop    %rbp
    e683:	c3                   	retq   

000000000000e684 <func_40>:
    e684:	f3 0f 1e fa          	endbr64 
    e688:	55                   	push   %rbp
    e689:	48 89 e5             	mov    %rsp,%rbp
    e68c:	41 57                	push   %r15
    e68e:	41 56                	push   %r14
    e690:	41 55                	push   %r13
    e692:	41 54                	push   %r12
    e694:	53                   	push   %rbx
    e695:	48 81 ec 00 10 00 00 	sub    $0x1000,%rsp
    e69c:	48 83 0c 24 00       	orq    $0x0,(%rsp)
    e6a1:	48 81 ec 58 0a 00 00 	sub    $0xa58,%rsp
    e6a8:	48 89 bd 88 e5 ff ff 	mov    %rdi,-0x1a78(%rbp)
    e6af:	89 f0                	mov    %esi,%eax
    e6b1:	89 95 80 e5 ff ff    	mov    %edx,-0x1a80(%rbp)
    e6b7:	88 85 84 e5 ff ff    	mov    %al,-0x1a7c(%rbp)
    e6bd:	64 48 8b 04 25 28 00 	mov    %fs:0x28,%rax
    e6c4:	00 00 
    e6c6:	48 89 45 c8          	mov    %rax,-0x38(%rbp)
    e6ca:	31 c0                	xor    %eax,%eax
    e6cc:	c7 85 bc e5 ff ff 13 	movl   $0x1795be13,-0x1a44(%rbp)
    e6d3:	be 95 17 
    e6d6:	c7 85 9c e5 ff ff 00 	movl   $0x0,-0x1a64(%rbp)
    e6dd:	00 00 00 
    e6e0:	c7 85 30 e7 ff ff 50 	movl   $0xce783750,-0x18d0(%rbp)
    e6e7:	37 78 ce 
    e6ea:	c7 85 34 e7 ff ff 50 	movl   $0xce783750,-0x18cc(%rbp)
    e6f1:	37 78 ce 
    e6f4:	c7 85 38 e7 ff ff 50 	movl   $0xce783750,-0x18c8(%rbp)
    e6fb:	37 78 ce 
    e6fe:	c7 85 3c e7 ff ff 50 	movl   $0xce783750,-0x18c4(%rbp)
    e705:	37 78 ce 
    e708:	48 8d 05 e9 10 01 00 	lea    0x110e9(%rip),%rax        # 1f7f8 <g_686>
    e70f:	48 89 85 40 e6 ff ff 	mov    %rax,-0x19c0(%rbp)
    e716:	c7 85 a0 e5 ff ff f9 	movl   $0xfffffff9,-0x1a60(%rbp)
    e71d:	ff ff ff 
    e720:	48 c7 85 48 e6 ff ff 	movq   $0x0,-0x19b8(%rbp)
    e727:	00 00 00 00 
    e72b:	48 8d 95 c0 f7 ff ff 	lea    -0x840(%rbp),%rdx
    e732:	b8 00 00 00 00       	mov    $0x0,%eax
    e737:	b9 00 01 00 00       	mov    $0x100,%ecx
    e73c:	48 89 d7             	mov    %rdx,%rdi
    e73f:	f3 48 ab             	rep stos %rax,%es:(%rdi)
    e742:	c6 85 c0 f7 ff ff ff 	movb   $0xff,-0x840(%rbp)
    e749:	c6 85 d0 f7 ff ff cf 	movb   $0xcf,-0x830(%rbp)
    e750:	c6 85 e8 f7 ff ff df 	movb   $0xdf,-0x818(%rbp)
    e757:	c6 85 f0 f7 ff ff cf 	movb   $0xcf,-0x810(%rbp)
    e75e:	c6 85 f8 f7 ff ff cf 	movb   $0xcf,-0x808(%rbp)
    e765:	c6 85 00 f8 ff ff ff 	movb   $0xff,-0x800(%rbp)
    e76c:	c6 85 08 f8 ff ff ff 	movb   $0xff,-0x7f8(%rbp)
    e773:	c6 85 18 f8 ff ff cf 	movb   $0xcf,-0x7e8(%rbp)
    e77a:	c6 85 28 f8 ff ff df 	movb   $0xdf,-0x7d8(%rbp)
    e781:	c6 85 60 f8 ff ff ff 	movb   $0xff,-0x7a0(%rbp)
    e788:	c6 85 70 f8 ff ff cf 	movb   $0xcf,-0x790(%rbp)
    e78f:	c6 85 88 f8 ff ff df 	movb   $0xdf,-0x778(%rbp)
    e796:	c6 85 90 f8 ff ff cf 	movb   $0xcf,-0x770(%rbp)
    e79d:	c6 85 98 f8 ff ff cf 	movb   $0xcf,-0x768(%rbp)
    e7a4:	c6 85 a0 f8 ff ff ff 	movb   $0xff,-0x760(%rbp)
    e7ab:	c6 85 a8 f8 ff ff ff 	movb   $0xff,-0x758(%rbp)
    e7b2:	c6 85 b8 f8 ff ff cf 	movb   $0xcf,-0x748(%rbp)
    e7b9:	c6 85 c8 f8 ff ff df 	movb   $0xdf,-0x738(%rbp)
    e7c0:	c6 85 00 f9 ff ff ff 	movb   $0xff,-0x700(%rbp)
    e7c7:	c6 85 10 f9 ff ff df 	movb   $0xdf,-0x6f0(%rbp)
    e7ce:	c6 85 28 f9 ff ff ff 	movb   $0xff,-0x6d8(%rbp)
    e7d5:	c6 85 30 f9 ff ff df 	movb   $0xdf,-0x6d0(%rbp)
    e7dc:	c6 85 38 f9 ff ff df 	movb   $0xdf,-0x6c8(%rbp)
    e7e3:	c6 85 58 f9 ff ff df 	movb   $0xdf,-0x6a8(%rbp)
    e7ea:	c6 85 60 f9 ff ff cf 	movb   $0xcf,-0x6a0(%rbp)
    e7f1:	c6 85 68 f9 ff ff ff 	movb   $0xff,-0x698(%rbp)
    e7f8:	c6 85 70 f9 ff ff cf 	movb   $0xcf,-0x690(%rbp)
    e7ff:	c6 85 80 f9 ff ff cf 	movb   $0xcf,-0x680(%rbp)
    e806:	c6 85 98 f9 ff ff cf 	movb   $0xcf,-0x668(%rbp)
    e80d:	c6 85 b0 f9 ff ff df 	movb   $0xdf,-0x650(%rbp)
    e814:	c6 85 c8 f9 ff ff ff 	movb   $0xff,-0x638(%rbp)
    e81b:	c6 85 d0 f9 ff ff df 	movb   $0xdf,-0x630(%rbp)
    e822:	c6 85 d8 f9 ff ff df 	movb   $0xdf,-0x628(%rbp)
    e829:	c6 85 f8 f9 ff ff df 	movb   $0xdf,-0x608(%rbp)
    e830:	c6 85 00 fa ff ff cf 	movb   $0xcf,-0x600(%rbp)
    e837:	c6 85 08 fa ff ff ff 	movb   $0xff,-0x5f8(%rbp)
    e83e:	c6 85 10 fa ff ff cf 	movb   $0xcf,-0x5f0(%rbp)
    e845:	c6 85 20 fa ff ff cf 	movb   $0xcf,-0x5e0(%rbp)
    e84c:	c6 85 38 fa ff ff cf 	movb   $0xcf,-0x5c8(%rbp)
    e853:	c6 85 50 fa ff ff df 	movb   $0xdf,-0x5b0(%rbp)
    e85a:	c6 85 68 fa ff ff ff 	movb   $0xff,-0x598(%rbp)
    e861:	c6 85 70 fa ff ff df 	movb   $0xdf,-0x590(%rbp)
    e868:	c6 85 78 fa ff ff df 	movb   $0xdf,-0x588(%rbp)
    e86f:	c6 85 98 fa ff ff df 	movb   $0xdf,-0x568(%rbp)
    e876:	c6 85 a0 fa ff ff cf 	movb   $0xcf,-0x560(%rbp)
    e87d:	c6 85 a8 fa ff ff ff 	movb   $0xff,-0x558(%rbp)
    e884:	c6 85 b0 fa ff ff cf 	movb   $0xcf,-0x550(%rbp)
    e88b:	c6 85 c0 fa ff ff cf 	movb   $0xcf,-0x540(%rbp)
    e892:	c6 85 d8 fa ff ff cf 	movb   $0xcf,-0x528(%rbp)
    e899:	c6 85 f0 fa ff ff df 	movb   $0xdf,-0x510(%rbp)
    e8a0:	c6 85 08 fb ff ff ff 	movb   $0xff,-0x4f8(%rbp)
    e8a7:	c6 85 10 fb ff ff df 	movb   $0xdf,-0x4f0(%rbp)
    e8ae:	c6 85 18 fb ff ff df 	movb   $0xdf,-0x4e8(%rbp)
    e8b5:	c6 85 38 fb ff ff df 	movb   $0xdf,-0x4c8(%rbp)
    e8bc:	c6 85 40 fb ff ff cf 	movb   $0xcf,-0x4c0(%rbp)
    e8c3:	c6 85 48 fb ff ff ff 	movb   $0xff,-0x4b8(%rbp)
    e8ca:	c6 85 50 fb ff ff cf 	movb   $0xcf,-0x4b0(%rbp)
    e8d1:	c6 85 60 fb ff ff cf 	movb   $0xcf,-0x4a0(%rbp)
    e8d8:	c6 85 78 fb ff ff cf 	movb   $0xcf,-0x488(%rbp)
    e8df:	c6 85 90 fb ff ff df 	movb   $0xdf,-0x470(%rbp)
    e8e6:	c6 85 a8 fb ff ff ff 	movb   $0xff,-0x458(%rbp)
    e8ed:	c6 85 b0 fb ff ff df 	movb   $0xdf,-0x450(%rbp)
    e8f4:	c6 85 b8 fb ff ff df 	movb   $0xdf,-0x448(%rbp)
    e8fb:	c6 85 d8 fb ff ff df 	movb   $0xdf,-0x428(%rbp)
    e902:	c6 85 e0 fb ff ff cf 	movb   $0xcf,-0x420(%rbp)
    e909:	c6 85 e8 fb ff ff ff 	movb   $0xff,-0x418(%rbp)
    e910:	c6 85 f0 fb ff ff cf 	movb   $0xcf,-0x410(%rbp)
    e917:	c6 85 00 fc ff ff cf 	movb   $0xcf,-0x400(%rbp)
    e91e:	c6 85 18 fc ff ff cf 	movb   $0xcf,-0x3e8(%rbp)
    e925:	c6 85 30 fc ff ff df 	movb   $0xdf,-0x3d0(%rbp)
    e92c:	c6 85 48 fc ff ff ff 	movb   $0xff,-0x3b8(%rbp)
    e933:	c6 85 50 fc ff ff df 	movb   $0xdf,-0x3b0(%rbp)
    e93a:	c6 85 58 fc ff ff df 	movb   $0xdf,-0x3a8(%rbp)
    e941:	c6 85 78 fc ff ff df 	movb   $0xdf,-0x388(%rbp)
    e948:	c6 85 80 fc ff ff cf 	movb   $0xcf,-0x380(%rbp)
    e94f:	c6 85 88 fc ff ff ff 	movb   $0xff,-0x378(%rbp)
    e956:	c6 85 90 fc ff ff cf 	movb   $0xcf,-0x370(%rbp)
    e95d:	c6 85 a0 fc ff ff cf 	movb   $0xcf,-0x360(%rbp)
    e964:	c6 85 b8 fc ff ff cf 	movb   $0xcf,-0x348(%rbp)
    e96b:	c6 85 d0 fc ff ff df 	movb   $0xdf,-0x330(%rbp)
    e972:	c6 85 e8 fc ff ff ff 	movb   $0xff,-0x318(%rbp)
    e979:	c6 85 f0 fc ff ff df 	movb   $0xdf,-0x310(%rbp)
    e980:	c6 85 f8 fc ff ff df 	movb   $0xdf,-0x308(%rbp)
    e987:	c6 85 18 fd ff ff df 	movb   $0xdf,-0x2e8(%rbp)
    e98e:	c6 85 20 fd ff ff cf 	movb   $0xcf,-0x2e0(%rbp)
    e995:	c6 85 28 fd ff ff ff 	movb   $0xff,-0x2d8(%rbp)
    e99c:	c6 85 30 fd ff ff cf 	movb   $0xcf,-0x2d0(%rbp)
    e9a3:	c6 85 40 fd ff ff cf 	movb   $0xcf,-0x2c0(%rbp)
    e9aa:	c6 85 58 fd ff ff cf 	movb   $0xcf,-0x2a8(%rbp)
    e9b1:	c6 85 70 fd ff ff df 	movb   $0xdf,-0x290(%rbp)
    e9b8:	c6 85 88 fd ff ff ff 	movb   $0xff,-0x278(%rbp)
    e9bf:	c6 85 90 fd ff ff df 	movb   $0xdf,-0x270(%rbp)
    e9c6:	c6 85 98 fd ff ff df 	movb   $0xdf,-0x268(%rbp)
    e9cd:	c6 85 b8 fd ff ff df 	movb   $0xdf,-0x248(%rbp)
    e9d4:	c6 85 c0 fd ff ff cf 	movb   $0xcf,-0x240(%rbp)
    e9db:	c6 85 c8 fd ff ff ff 	movb   $0xff,-0x238(%rbp)
    e9e2:	c6 85 d0 fd ff ff cf 	movb   $0xcf,-0x230(%rbp)
    e9e9:	c6 85 e0 fd ff ff cf 	movb   $0xcf,-0x220(%rbp)
    e9f0:	c6 85 f8 fd ff ff cf 	movb   $0xcf,-0x208(%rbp)
    e9f7:	c6 85 10 fe ff ff df 	movb   $0xdf,-0x1f0(%rbp)
    e9fe:	c6 85 28 fe ff ff ff 	movb   $0xff,-0x1d8(%rbp)
    ea05:	c6 85 30 fe ff ff df 	movb   $0xdf,-0x1d0(%rbp)
    ea0c:	c6 85 38 fe ff ff df 	movb   $0xdf,-0x1c8(%rbp)
    ea13:	c6 85 58 fe ff ff df 	movb   $0xdf,-0x1a8(%rbp)
    ea1a:	c6 85 60 fe ff ff cf 	movb   $0xcf,-0x1a0(%rbp)
    ea21:	c6 85 68 fe ff ff ff 	movb   $0xff,-0x198(%rbp)
    ea28:	c6 85 70 fe ff ff cf 	movb   $0xcf,-0x190(%rbp)
    ea2f:	c6 85 80 fe ff ff cf 	movb   $0xcf,-0x180(%rbp)
    ea36:	c6 85 98 fe ff ff cf 	movb   $0xcf,-0x168(%rbp)
    ea3d:	c6 85 b0 fe ff ff df 	movb   $0xdf,-0x150(%rbp)
    ea44:	c6 85 c8 fe ff ff ff 	movb   $0xff,-0x138(%rbp)
    ea4b:	c6 85 d0 fe ff ff df 	movb   $0xdf,-0x130(%rbp)
    ea52:	c6 85 d8 fe ff ff df 	movb   $0xdf,-0x128(%rbp)
    ea59:	c6 85 f8 fe ff ff ff 	movb   $0xff,-0x108(%rbp)
    ea60:	c6 85 00 ff ff ff df 	movb   $0xdf,-0x100(%rbp)
    ea67:	c6 85 10 ff ff ff df 	movb   $0xdf,-0xf0(%rbp)
    ea6e:	c6 85 18 ff ff ff cf 	movb   $0xcf,-0xe8(%rbp)
    ea75:	c6 85 20 ff ff ff df 	movb   $0xdf,-0xe0(%rbp)
    ea7c:	c6 85 28 ff ff ff cf 	movb   $0xcf,-0xd8(%rbp)
    ea83:	c6 85 30 ff ff ff cf 	movb   $0xcf,-0xd0(%rbp)
    ea8a:	c6 85 38 ff ff ff df 	movb   $0xdf,-0xc8(%rbp)
    ea91:	c6 85 48 ff ff ff cf 	movb   $0xcf,-0xb8(%rbp)
    ea98:	c6 85 50 ff ff ff ff 	movb   $0xff,-0xb0(%rbp)
    ea9f:	c6 85 58 ff ff ff cf 	movb   $0xcf,-0xa8(%rbp)
    eaa6:	c6 85 60 ff ff ff cf 	movb   $0xcf,-0xa0(%rbp)
    eaad:	c6 85 70 ff ff ff ff 	movb   $0xff,-0x90(%rbp)
    eab4:	c6 85 78 ff ff ff ff 	movb   $0xff,-0x88(%rbp)
    eabb:	c6 45 90 cf          	movb   $0xcf,-0x70(%rbp)
    eabf:	c6 45 98 ff          	movb   $0xff,-0x68(%rbp)
    eac3:	c6 45 a0 df          	movb   $0xdf,-0x60(%rbp)
    eac7:	c6 45 b0 df          	movb   $0xdf,-0x50(%rbp)
    eacb:	c6 45 b8 cf          	movb   $0xcf,-0x48(%rbp)
    eacf:	48 c7 85 e8 e5 ff ff 	movq   $0x0,-0x1a18(%rbp)
    ead6:	00 00 00 00 
    eada:	48 8d 05 67 0d 01 00 	lea    0x10d67(%rip),%rax        # 1f848 <g_990+0x8>
    eae1:	48 89 85 f0 e5 ff ff 	mov    %rax,-0x1a10(%rbp)
    eae8:	48 8d 05 35 f5 00 00 	lea    0xf535(%rip),%rax        # 1e024 <g_9>
    eaef:	48 89 85 f8 e5 ff ff 	mov    %rax,-0x1a08(%rbp)
    eaf6:	48 8d 05 07 f7 00 00 	lea    0xf707(%rip),%rax        # 1e204 <g_196+0x4>
    eafd:	48 89 85 00 e6 ff ff 	mov    %rax,-0x1a00(%rbp)
    eb04:	48 8d 05 3d f7 00 00 	lea    0xf73d(%rip),%rax        # 1e248 <g_223>
    eb0b:	48 89 85 50 e6 ff ff 	mov    %rax,-0x19b0(%rbp)
    eb12:	48 c7 85 58 e6 ff ff 	movq   $0x0,-0x19a8(%rbp)
    eb19:	00 00 00 00 
    eb1d:	48 8d 05 28 f5 00 00 	lea    0xf528(%rip),%rax        # 1e04c <g_90>
    eb24:	48 89 85 20 e8 ff ff 	mov    %rax,-0x17e0(%rbp)
    eb2b:	48 8d 05 1a f5 00 00 	lea    0xf51a(%rip),%rax        # 1e04c <g_90>
    eb32:	48 89 85 28 e8 ff ff 	mov    %rax,-0x17d8(%rbp)
    eb39:	48 8d 05 0c f5 00 00 	lea    0xf50c(%rip),%rax        # 1e04c <g_90>
    eb40:	48 89 85 30 e8 ff ff 	mov    %rax,-0x17d0(%rbp)
    eb47:	48 8d 05 fe f4 00 00 	lea    0xf4fe(%rip),%rax        # 1e04c <g_90>
    eb4e:	48 89 85 38 e8 ff ff 	mov    %rax,-0x17c8(%rbp)
    eb55:	48 8d 05 f0 f4 00 00 	lea    0xf4f0(%rip),%rax        # 1e04c <g_90>
    eb5c:	48 89 85 40 e8 ff ff 	mov    %rax,-0x17c0(%rbp)
    eb63:	48 8d 05 e2 f4 00 00 	lea    0xf4e2(%rip),%rax        # 1e04c <g_90>
    eb6a:	48 89 85 48 e8 ff ff 	mov    %rax,-0x17b8(%rbp)
    eb71:	48 8d 05 d4 f4 00 00 	lea    0xf4d4(%rip),%rax        # 1e04c <g_90>
    eb78:	48 89 85 50 e8 ff ff 	mov    %rax,-0x17b0(%rbp)
    eb7f:	48 8d 05 c6 f4 00 00 	lea    0xf4c6(%rip),%rax        # 1e04c <g_90>
    eb86:	48 89 85 58 e8 ff ff 	mov    %rax,-0x17a8(%rbp)
    eb8d:	48 8d 05 b8 f4 00 00 	lea    0xf4b8(%rip),%rax        # 1e04c <g_90>
    eb94:	48 89 85 60 e8 ff ff 	mov    %rax,-0x17a0(%rbp)
    eb9b:	48 8d 05 aa f4 00 00 	lea    0xf4aa(%rip),%rax        # 1e04c <g_90>
    eba2:	48 89 85 68 e8 ff ff 	mov    %rax,-0x1798(%rbp)
    eba9:	48 8d 05 9c f4 00 00 	lea    0xf49c(%rip),%rax        # 1e04c <g_90>
    ebb0:	48 89 85 70 e8 ff ff 	mov    %rax,-0x1790(%rbp)
    ebb7:	48 8d 05 8e f4 00 00 	lea    0xf48e(%rip),%rax        # 1e04c <g_90>
    ebbe:	48 89 85 78 e8 ff ff 	mov    %rax,-0x1788(%rbp)
    ebc5:	48 8d 05 80 f4 00 00 	lea    0xf480(%rip),%rax        # 1e04c <g_90>
    ebcc:	48 89 85 80 e8 ff ff 	mov    %rax,-0x1780(%rbp)
    ebd3:	48 8d 05 72 f4 00 00 	lea    0xf472(%rip),%rax        # 1e04c <g_90>
    ebda:	48 89 85 88 e8 ff ff 	mov    %rax,-0x1778(%rbp)
    ebe1:	48 8d 05 64 f4 00 00 	lea    0xf464(%rip),%rax        # 1e04c <g_90>
    ebe8:	48 89 85 90 e8 ff ff 	mov    %rax,-0x1770(%rbp)
    ebef:	48 8d 85 20 e8 ff ff 	lea    -0x17e0(%rbp),%rax
    ebf6:	48 83 c0 70          	add    $0x70,%rax
    ebfa:	48 89 85 60 e6 ff ff 	mov    %rax,-0x19a0(%rbp)
    ec01:	48 8d 85 9c e5 ff ff 	lea    -0x1a64(%rbp),%rax
    ec08:	48 89 85 68 e6 ff ff 	mov    %rax,-0x1998(%rbp)
    ec0f:	c7 85 ac e5 ff ff 00 	movl   $0x0,-0x1a54(%rbp)
    ec16:	00 00 00 
    ec19:	eb 1e                	jmp    ec39 <func_40+0x5b5>
    ec1b:	8b 85 ac e5 ff ff    	mov    -0x1a54(%rbp),%eax
    ec21:	48 98                	cltq   
    ec23:	48 8d 15 22 f6 00 00 	lea    0xf622(%rip),%rdx        # 1e24c <g_322>
    ec2a:	48 89 94 c5 20 e7 ff 	mov    %rdx,-0x18e0(%rbp,%rax,8)
    ec31:	ff 
    ec32:	83 85 ac e5 ff ff 01 	addl   $0x1,-0x1a54(%rbp)
    ec39:	83 bd ac e5 ff ff 00 	cmpl   $0x0,-0x1a54(%rbp)
    ec40:	7e d9                	jle    ec1b <func_40+0x597>
    ec42:	90                   	nop
    ec43:	c6 05 df f6 00 00 e4 	movb   $0xe4,0xf6df(%rip)        # 1e329 <g_1228>
    ec4a:	eb 24                	jmp    ec70 <func_40+0x5ec>
    ec4c:	48 8b 05 3d 0b 01 00 	mov    0x10b3d(%rip),%rax        # 1f790 <g_554>
    ec53:	48 8b 00             	mov    (%rax),%rax
    ec56:	8b 10                	mov    (%rax),%edx
    ec58:	33 95 bc e5 ff ff    	xor    -0x1a44(%rbp),%edx
    ec5e:	89 10                	mov    %edx,(%rax)
    ec60:	0f b6 05 c2 f6 00 00 	movzbl 0xf6c2(%rip),%eax        # 1e329 <g_1228>
    ec67:	83 c0 01             	add    $0x1,%eax
    ec6a:	88 05 b9 f6 00 00    	mov    %al,0xf6b9(%rip)        # 1e329 <g_1228>
    ec70:	0f b6 05 b2 f6 00 00 	movzbl 0xf6b2(%rip),%eax        # 1e329 <g_1228>
    ec77:	3c 05                	cmp    $0x5,%al
    ec79:	75 d1                	jne    ec4c <func_40+0x5c8>
    ec7b:	90                   	nop
    ec7c:	c6 05 c9 f3 00 00 00 	movb   $0x0,0xf3c9(%rip)        # 1e04c <g_90>
    ec83:	e9 bb 02 00 00       	jmpq   ef43 <func_40+0x8bf>
    ec88:	48 c7 85 08 e7 ff ff 	movq   $0x0,-0x18f8(%rbp)
    ec8f:	00 00 00 00 
    ec93:	c7 85 d8 e5 ff ff d4 	movl   $0xfa0a5ad4,-0x1a28(%rbp)
    ec9a:	5a 0a fa 
    ec9d:	48 8d 05 a4 f5 00 00 	lea    0xf5a4(%rip),%rax        # 1e248 <g_223>
    eca4:	48 89 85 10 e7 ff ff 	mov    %rax,-0x18f0(%rbp)
    ecab:	48 c7 85 30 e6 ff ff 	movq   $0x0,-0x19d0(%rbp)
    ecb2:	00 00 00 00 
    ecb6:	c7 85 30 e6 ff ff 1b 	movl   $0x9d72dd1b,-0x19d0(%rbp)
    ecbd:	dd 72 9d 
    ecc0:	c7 85 dc e5 ff ff 01 	movl   $0x1,-0x1a24(%rbp)
    ecc7:	00 00 00 
    ecca:	c6 85 98 e5 ff ff e4 	movb   $0xe4,-0x1a68(%rbp)
    ecd1:	c7 85 a4 e5 ff ff 00 	movl   $0x0,-0x1a5c(%rbp)
    ecd8:	00 00 00 
    ecdb:	eb 1a                	jmp    ecf7 <func_40+0x673>
    ecdd:	8b 85 a4 e5 ff ff    	mov    -0x1a5c(%rbp),%eax
    ece3:	48 98                	cltq   
    ece5:	c7 84 85 e0 ec ff ff 	movl   $0xbf2dd67d,-0x1320(%rbp,%rax,4)
    ecec:	7d d6 2d bf 
    ecf0:	83 85 a4 e5 ff ff 01 	addl   $0x1,-0x1a5c(%rbp)
    ecf7:	83 bd a4 e5 ff ff 01 	cmpl   $0x1,-0x1a5c(%rbp)
    ecfe:	7e dd                	jle    ecdd <func_40+0x659>
    ed00:	c7 85 a4 e5 ff ff 00 	movl   $0x0,-0x1a5c(%rbp)
    ed07:	00 00 00 
    ed0a:	eb 1e                	jmp    ed2a <func_40+0x6a6>
    ed0c:	8b 85 a4 e5 ff ff    	mov    -0x1a5c(%rbp),%eax
    ed12:	48 98                	cltq   
    ed14:	48 8d 15 17 f5 00 00 	lea    0xf517(%rip),%rdx        # 1e232 <g_198+0x12>
    ed1b:	48 89 94 c5 e0 ef ff 	mov    %rdx,-0x1020(%rbp,%rax,8)
    ed22:	ff 
    ed23:	83 85 a4 e5 ff ff 01 	addl   $0x1,-0x1a5c(%rbp)
    ed2a:	83 bd a4 e5 ff ff 06 	cmpl   $0x6,-0x1a5c(%rbp)
    ed31:	7e d9                	jle    ed0c <func_40+0x688>
    ed33:	48 8b 05 56 0a 01 00 	mov    0x10a56(%rip),%rax        # 1f790 <g_554>
    ed3a:	48 8b 00             	mov    (%rax),%rax
    ed3d:	48 89 85 20 e7 ff ff 	mov    %rax,-0x18e0(%rbp)
    ed44:	0f b6 05 de f5 00 00 	movzbl 0xf5de(%rip),%eax        # 1e329 <g_1228>
    ed4b:	84 c0                	test   %al,%al
    ed4d:	74 05                	je     ed54 <func_40+0x6d0>
    ed4f:	e9 ef fe ff ff       	jmpq   ec43 <func_40+0x5bf>
    ed54:	8b 85 30 e6 ff ff    	mov    -0x19d0(%rbp),%eax
    ed5a:	41 89 c5             	mov    %eax,%r13d
    ed5d:	0f b6 85 84 e5 ff ff 	movzbl -0x1a7c(%rbp),%eax
    ed64:	44 0f be e0          	movsbl %al,%r12d
    ed68:	48 8b 85 10 e7 ff ff 	mov    -0x18f0(%rbp),%rax
    ed6f:	8b 18                	mov    (%rax),%ebx
    ed71:	8d 53 ff             	lea    -0x1(%rbx),%edx
    ed74:	48 8b 85 10 e7 ff ff 	mov    -0x18f0(%rbp),%rax
    ed7b:	89 10                	mov    %edx,(%rax)
    ed7d:	8b 85 80 e5 ff ff    	mov    -0x1a80(%rbp),%eax
    ed83:	0f bf d0             	movswl %ax,%edx
    ed86:	0f b7 05 9d f5 00 00 	movzwl 0xf59d(%rip),%eax        # 1e32a <g_1299>
    ed8d:	98                   	cwtl   
    ed8e:	89 d6                	mov    %edx,%esi
    ed90:	89 c7                	mov    %eax,%edi
    ed92:	e8 7f 76 ff ff       	callq  6416 <safe_mod_func_int16_t_s_s>
    ed97:	98                   	cwtl   
    ed98:	39 c3                	cmp    %eax,%ebx
    ed9a:	0f 92 c0             	setb   %al
    ed9d:	0f b6 c0             	movzbl %al,%eax
    eda0:	44 89 e6             	mov    %r12d,%esi
    eda3:	89 c7                	mov    %eax,%edi
    eda5:	e8 2a 74 ff ff       	callq  61d4 <safe_add_func_int8_t_s_s>
    edaa:	84 c0                	test   %al,%al
    edac:	0f 9f c0             	setg   %al
    edaf:	0f b6 c0             	movzbl %al,%eax
    edb2:	be 01 00 00 00       	mov    $0x1,%esi
    edb7:	89 c7                	mov    %eax,%edi
    edb9:	e8 bc 80 ff ff       	callq  6e7a <safe_rshift_func_uint16_t_u_u>
    edbe:	0f b7 c0             	movzwl %ax,%eax
    edc1:	89 85 dc e5 ff ff    	mov    %eax,-0x1a24(%rbp)
    edc7:	4c 89 ee             	mov    %r13,%rsi
    edca:	bf 01 00 00 00       	mov    $0x1,%edi
    edcf:	e8 5a 82 ff ff       	callq  702e <safe_add_func_uint64_t_u_u>
    edd4:	48 83 f8 fa          	cmp    $0xfffffffffffffffa,%rax
    edd8:	0f 95 c0             	setne  %al
    eddb:	0f b6 c0             	movzbl %al,%eax
    edde:	39 85 80 e5 ff ff    	cmp    %eax,-0x1a80(%rbp)
    ede4:	0f 93 c0             	setae  %al
    ede7:	0f b6 d0             	movzbl %al,%edx
    edea:	48 83 bd 40 e6 ff ff 	cmpq   $0x0,-0x19c0(%rbp)
    edf1:	00 
    edf2:	0f 95 c0             	setne  %al
    edf5:	0f b6 c0             	movzbl %al,%eax
    edf8:	89 d6                	mov    %edx,%esi
    edfa:	89 c7                	mov    %eax,%edi
    edfc:	e8 77 7d ff ff       	callq  6b78 <safe_sub_func_uint8_t_u_u>
    ee01:	8b 85 80 e5 ff ff    	mov    -0x1a80(%rbp),%eax
    ee07:	89 c6                	mov    %eax,%esi
    ee09:	bf 6f 00 00 00       	mov    $0x6f,%edi
    ee0e:	e8 39 7e ff ff       	callq  6c4c <safe_lshift_func_uint8_t_u_u>
    ee13:	0f b7 05 ee f3 00 00 	movzwl 0xf3ee(%rip),%eax        # 1e208 <g_196+0x8>
    ee1a:	83 c0 01             	add    $0x1,%eax
    ee1d:	66 89 05 e4 f3 00 00 	mov    %ax,0xf3e4(%rip)        # 1e208 <g_196+0x8>
    ee24:	0f b7 05 dd f3 00 00 	movzwl 0xf3dd(%rip),%eax        # 1e208 <g_196+0x8>
    ee2b:	0f b7 c0             	movzwl %ax,%eax
    ee2e:	be 04 00 00 00       	mov    $0x4,%esi
    ee33:	89 c7                	mov    %eax,%edi
    ee35:	e8 cc 7f ff ff       	callq  6e06 <safe_lshift_func_uint16_t_u_u>
    ee3a:	0f b7 c0             	movzwl %ax,%eax
    ee3d:	89 85 d8 e5 ff ff    	mov    %eax,-0x1a28(%rbp)
    ee43:	8b 85 d8 e5 ff ff    	mov    -0x1a28(%rbp),%eax
    ee49:	0f bf d0             	movswl %ax,%edx
    ee4c:	0f b6 85 84 e5 ff ff 	movzbl -0x1a7c(%rbp),%eax
    ee53:	89 d6                	mov    %edx,%esi
    ee55:	89 c7                	mov    %eax,%edi
    ee57:	e8 99 75 ff ff       	callq  63f5 <safe_mul_func_int16_t_s_s>
    ee5c:	98                   	cwtl   
    ee5d:	be 00 00 00 00       	mov    $0x0,%esi
    ee62:	89 c7                	mov    %eax,%edi
    ee64:	e8 4f 80 ff ff       	callq  6eb8 <safe_add_func_uint32_t_u_u>
    ee69:	8b 95 9c e5 ff ff    	mov    -0x1a64(%rbp),%edx
    ee6f:	31 c2                	xor    %eax,%edx
    ee71:	8b 85 e4 ec ff ff    	mov    -0x131c(%rbp),%eax
    ee77:	31 d0                	xor    %edx,%eax
    ee79:	89 c2                	mov    %eax,%edx
    ee7b:	8b 85 e4 ec ff ff    	mov    -0x131c(%rbp),%eax
    ee81:	48 98                	cltq   
    ee83:	48 89 d6             	mov    %rdx,%rsi
    ee86:	48 89 c7             	mov    %rax,%rdi
    ee89:	e8 f2 81 ff ff       	callq  7080 <safe_mod_func_uint64_t_u_u>
    ee8e:	48 8b 05 03 09 01 00 	mov    0x10903(%rip),%rax        # 1f798 <g_553>
    ee95:	48 8b 00             	mov    (%rax),%rax
    ee98:	48 8b 00             	mov    (%rax),%rax
    ee9b:	8b 10                	mov    (%rax),%edx
    ee9d:	8b 85 a0 e5 ff ff    	mov    -0x1a60(%rbp),%eax
    eea3:	39 c2                	cmp    %eax,%edx
    eea5:	0f 9f c0             	setg   %al
    eea8:	0f b6 c0             	movzbl %al,%eax
    eeab:	89 c2                	mov    %eax,%edx
    eead:	0f b6 85 98 e5 ff ff 	movzbl -0x1a68(%rbp),%eax
    eeb4:	09 d0                	or     %edx,%eax
    eeb6:	88 85 98 e5 ff ff    	mov    %al,-0x1a68(%rbp)
    eebc:	c6 05 dd f3 00 00 01 	movb   $0x1,0xf3dd(%rip)        # 1e2a0 <g_446>
    eec3:	eb 32                	jmp    eef7 <func_40+0x873>
    eec5:	c6 85 99 e5 ff ff 6b 	movb   $0x6b,-0x1a67(%rbp)
    eecc:	c7 85 e0 e5 ff ff ff 	movl   $0xffffffff,-0x1a20(%rbp)
    eed3:	ff ff ff 
    eed6:	c7 85 e4 e5 ff ff 98 	movl   $0x2a5acb98,-0x1a1c(%rbp)
    eedd:	cb 5a 2a 
    eee0:	83 ad e4 e5 ff ff 01 	subl   $0x1,-0x1a1c(%rbp)
    eee7:	0f b6 05 b2 f3 00 00 	movzbl 0xf3b2(%rip),%eax        # 1e2a0 <g_446>
    eeee:	83 e8 01             	sub    $0x1,%eax
    eef1:	88 05 a9 f3 00 00    	mov    %al,0xf3a9(%rip)        # 1e2a0 <g_446>
    eef7:	0f b6 05 a2 f3 00 00 	movzbl 0xf3a2(%rip),%eax        # 1e2a0 <g_446>
    eefe:	84 c0                	test   %al,%al
    ef00:	79 c3                	jns    eec5 <func_40+0x841>
    ef02:	c6 05 20 f4 00 00 00 	movb   $0x0,0xf420(%rip)        # 1e329 <g_1228>
    ef09:	90                   	nop
    ef0a:	0f b6 05 18 f4 00 00 	movzbl 0xf418(%rip),%eax        # 1e329 <g_1228>
    ef11:	3c 01                	cmp    $0x1,%al
    ef13:	7f 1e                	jg     ef33 <func_40+0x8af>
    ef15:	48 8d 85 30 e7 ff ff 	lea    -0x18d0(%rbp),%rax
    ef1c:	48 83 c0 08          	add    $0x8,%rax
    ef20:	48 89 85 18 e7 ff ff 	mov    %rax,-0x18e8(%rbp)
    ef27:	48 8b 85 48 e6 ff ff 	mov    -0x19b8(%rbp),%rax
    ef2e:	e9 a5 20 00 00       	jmpq   10fd8 <func_40+0x2954>
    ef33:	0f b6 05 12 f1 00 00 	movzbl 0xf112(%rip),%eax        # 1e04c <g_90>
    ef3a:	83 c0 01             	add    $0x1,%eax
    ef3d:	88 05 09 f1 00 00    	mov    %al,0xf109(%rip)        # 1e04c <g_90>
    ef43:	0f b6 05 02 f1 00 00 	movzbl 0xf102(%rip),%eax        # 1e04c <g_90>
    ef4a:	3c 01                	cmp    $0x1,%al
    ef4c:	0f 86 36 fd ff ff    	jbe    ec88 <func_40+0x604>
    ef52:	c6 05 f3 f0 00 00 12 	movb   $0x12,0xf0f3(%rip)        # 1e04c <g_90>
    ef59:	e9 5e 20 00 00       	jmpq   10fbc <func_40+0x2938>
    ef5e:	c6 85 97 e5 ff ff f5 	movb   $0xf5,-0x1a69(%rbp)
    ef65:	c7 85 c0 e5 ff ff fe 	movl   $0xfffffffe,-0x1a40(%rbp)
    ef6c:	ff ff ff 
    ef6f:	c7 85 c4 e5 ff ff ef 	movl   $0x3479f9ef,-0x1a3c(%rbp)
    ef76:	f9 79 34 
    ef79:	48 c7 85 08 e6 ff ff 	movq   $0x0,-0x19f8(%rbp)
    ef80:	00 00 00 00 
    ef84:	66 c7 85 50 e7 ff ff 	movw   $0xb5b8,-0x18b0(%rbp)
    ef8b:	b8 b5 
    ef8d:	66 c7 85 52 e7 ff ff 	movw   $0xffff,-0x18ae(%rbp)
    ef94:	ff ff 
    ef96:	66 c7 85 54 e7 ff ff 	movw   $0xb5b8,-0x18ac(%rbp)
    ef9d:	b8 b5 
    ef9f:	66 c7 85 56 e7 ff ff 	movw   $0xffff,-0x18aa(%rbp)
    efa6:	ff ff 
    efa8:	66 c7 85 58 e7 ff ff 	movw   $0xb5b8,-0x18a8(%rbp)
    efaf:	b8 b5 
    efb1:	66 c7 85 5a e7 ff ff 	movw   $0xffff,-0x18a6(%rbp)
    efb8:	ff ff 
    efba:	66 c7 85 5c e7 ff ff 	movw   $0xb5b8,-0x18a4(%rbp)
    efc1:	b8 b5 
    efc3:	66 c7 85 5e e7 ff ff 	movw   $0xffff,-0x18a2(%rbp)
    efca:	ff ff 
    efcc:	66 c7 85 60 e7 ff ff 	movw   $0xb5b8,-0x18a0(%rbp)
    efd3:	b8 b5 
    efd5:	66 c7 85 62 e7 ff ff 	movw   $0xffff,-0x189e(%rbp)
    efdc:	ff ff 
    efde:	48 8d 85 a0 e5 ff ff 	lea    -0x1a60(%rbp),%rax
    efe5:	48 89 85 38 e6 ff ff 	mov    %rax,-0x19c8(%rbp)
    efec:	66 c7 85 9a e5 ff ff 	movw   $0xfffa,-0x1a66(%rbp)
    eff3:	fa ff 
    eff5:	48 8d 05 ec f1 00 00 	lea    0xf1ec(%rip),%rax        # 1e1e8 <g_174>
    effc:	48 89 85 e0 ef ff ff 	mov    %rax,-0x1020(%rbp)
    f003:	48 c7 85 e8 ef ff ff 	movq   $0x0,-0x1018(%rbp)
    f00a:	00 00 00 00 
    f00e:	48 8d 05 d3 f1 00 00 	lea    0xf1d3(%rip),%rax        # 1e1e8 <g_174>
    f015:	48 89 85 f0 ef ff ff 	mov    %rax,-0x1010(%rbp)
    f01c:	48 8d 05 c5 f1 00 00 	lea    0xf1c5(%rip),%rax        # 1e1e8 <g_174>
    f023:	48 89 85 f8 ef ff ff 	mov    %rax,-0x1008(%rbp)
    f02a:	48 c7 85 00 f0 ff ff 	movq   $0x0,-0x1000(%rbp)
    f031:	00 00 00 00 
    f035:	48 8d 05 ac f1 00 00 	lea    0xf1ac(%rip),%rax        # 1e1e8 <g_174>
    f03c:	48 89 85 08 f0 ff ff 	mov    %rax,-0xff8(%rbp)
    f043:	48 8d 05 9e f1 00 00 	lea    0xf19e(%rip),%rax        # 1e1e8 <g_174>
    f04a:	48 89 85 10 f0 ff ff 	mov    %rax,-0xff0(%rbp)
    f051:	48 8d 05 90 f1 00 00 	lea    0xf190(%rip),%rax        # 1e1e8 <g_174>
    f058:	48 89 85 18 f0 ff ff 	mov    %rax,-0xfe8(%rbp)
    f05f:	48 8d 05 82 f1 00 00 	lea    0xf182(%rip),%rax        # 1e1e8 <g_174>
    f066:	48 89 85 20 f0 ff ff 	mov    %rax,-0xfe0(%rbp)
    f06d:	48 8d 85 e8 e5 ff ff 	lea    -0x1a18(%rbp),%rax
    f074:	48 89 85 28 f0 ff ff 	mov    %rax,-0xfd8(%rbp)
    f07b:	48 8d 85 e8 e5 ff ff 	lea    -0x1a18(%rbp),%rax
    f082:	48 89 85 30 f0 ff ff 	mov    %rax,-0xfd0(%rbp)
    f089:	48 c7 85 38 f0 ff ff 	movq   $0x0,-0xfc8(%rbp)
    f090:	00 00 00 00 
    f094:	48 c7 85 40 f0 ff ff 	movq   $0x0,-0xfc0(%rbp)
    f09b:	00 00 00 00 
    f09f:	48 c7 85 48 f0 ff ff 	movq   $0x0,-0xfb8(%rbp)
    f0a6:	00 00 00 00 
    f0aa:	48 8d 05 37 f1 00 00 	lea    0xf137(%rip),%rax        # 1e1e8 <g_174>
    f0b1:	48 89 85 50 f0 ff ff 	mov    %rax,-0xfb0(%rbp)
    f0b8:	48 c7 85 58 f0 ff ff 	movq   $0x0,-0xfa8(%rbp)
    f0bf:	00 00 00 00 
    f0c3:	48 c7 85 60 f0 ff ff 	movq   $0x0,-0xfa0(%rbp)
    f0ca:	00 00 00 00 
    f0ce:	48 8d 05 13 f1 00 00 	lea    0xf113(%rip),%rax        # 1e1e8 <g_174>
    f0d5:	48 89 85 68 f0 ff ff 	mov    %rax,-0xf98(%rbp)
    f0dc:	48 8d 85 e8 e5 ff ff 	lea    -0x1a18(%rbp),%rax
    f0e3:	48 89 85 70 f0 ff ff 	mov    %rax,-0xf90(%rbp)
    f0ea:	48 c7 85 78 f0 ff ff 	movq   $0x0,-0xf88(%rbp)
    f0f1:	00 00 00 00 
    f0f5:	48 c7 85 80 f0 ff ff 	movq   $0x0,-0xf80(%rbp)
    f0fc:	00 00 00 00 
    f100:	48 c7 85 88 f0 ff ff 	movq   $0x0,-0xf78(%rbp)
    f107:	00 00 00 00 
    f10b:	48 8d 05 d6 f0 00 00 	lea    0xf0d6(%rip),%rax        # 1e1e8 <g_174>
    f112:	48 89 85 90 f0 ff ff 	mov    %rax,-0xf70(%rbp)
    f119:	48 8d 85 e8 e5 ff ff 	lea    -0x1a18(%rbp),%rax
    f120:	48 89 85 98 f0 ff ff 	mov    %rax,-0xf68(%rbp)
    f127:	48 8d 05 ba f0 00 00 	lea    0xf0ba(%rip),%rax        # 1e1e8 <g_174>
    f12e:	48 89 85 a0 f0 ff ff 	mov    %rax,-0xf60(%rbp)
    f135:	48 8d 05 ac f0 00 00 	lea    0xf0ac(%rip),%rax        # 1e1e8 <g_174>
    f13c:	48 89 85 a8 f0 ff ff 	mov    %rax,-0xf58(%rbp)
    f143:	48 8d 85 e8 e5 ff ff 	lea    -0x1a18(%rbp),%rax
    f14a:	48 89 85 b0 f0 ff ff 	mov    %rax,-0xf50(%rbp)
    f151:	48 c7 85 b8 f0 ff ff 	movq   $0x0,-0xf48(%rbp)
    f158:	00 00 00 00 
    f15c:	48 c7 85 c0 f0 ff ff 	movq   $0x0,-0xf40(%rbp)
    f163:	00 00 00 00 
    f167:	48 8d 85 e8 e5 ff ff 	lea    -0x1a18(%rbp),%rax
    f16e:	48 89 85 c8 f0 ff ff 	mov    %rax,-0xf38(%rbp)
    f175:	48 8d 05 6c f0 00 00 	lea    0xf06c(%rip),%rax        # 1e1e8 <g_174>
    f17c:	48 89 85 d0 f0 ff ff 	mov    %rax,-0xf30(%rbp)
    f183:	48 8d 05 5e f0 00 00 	lea    0xf05e(%rip),%rax        # 1e1e8 <g_174>
    f18a:	48 89 85 d8 f0 ff ff 	mov    %rax,-0xf28(%rbp)
    f191:	48 c7 85 e0 f0 ff ff 	movq   $0x0,-0xf20(%rbp)
    f198:	00 00 00 00 
    f19c:	48 8d 05 45 f0 00 00 	lea    0xf045(%rip),%rax        # 1e1e8 <g_174>
    f1a3:	48 89 85 e8 f0 ff ff 	mov    %rax,-0xf18(%rbp)
    f1aa:	48 8d 05 37 f0 00 00 	lea    0xf037(%rip),%rax        # 1e1e8 <g_174>
    f1b1:	48 89 85 f0 f0 ff ff 	mov    %rax,-0xf10(%rbp)
    f1b8:	48 8d 05 29 f0 00 00 	lea    0xf029(%rip),%rax        # 1e1e8 <g_174>
    f1bf:	48 89 85 f8 f0 ff ff 	mov    %rax,-0xf08(%rbp)
    f1c6:	48 c7 85 00 f1 ff ff 	movq   $0x0,-0xf00(%rbp)
    f1cd:	00 00 00 00 
    f1d1:	48 8d 05 10 f0 00 00 	lea    0xf010(%rip),%rax        # 1e1e8 <g_174>
    f1d8:	48 89 85 08 f1 ff ff 	mov    %rax,-0xef8(%rbp)
    f1df:	48 8d 05 02 f0 00 00 	lea    0xf002(%rip),%rax        # 1e1e8 <g_174>
    f1e6:	48 89 85 10 f1 ff ff 	mov    %rax,-0xef0(%rbp)
    f1ed:	48 c7 85 18 f1 ff ff 	movq   $0x0,-0xee8(%rbp)
    f1f4:	00 00 00 00 
    f1f8:	48 8d 05 e9 ef 00 00 	lea    0xefe9(%rip),%rax        # 1e1e8 <g_174>
    f1ff:	48 89 85 20 f1 ff ff 	mov    %rax,-0xee0(%rbp)
    f206:	48 c7 85 28 f1 ff ff 	movq   $0x0,-0xed8(%rbp)
    f20d:	00 00 00 00 
    f211:	48 8d 05 d0 ef 00 00 	lea    0xefd0(%rip),%rax        # 1e1e8 <g_174>
    f218:	48 89 85 30 f1 ff ff 	mov    %rax,-0xed0(%rbp)
    f21f:	48 c7 85 38 f1 ff ff 	movq   $0x0,-0xec8(%rbp)
    f226:	00 00 00 00 
    f22a:	48 8d 05 b7 ef 00 00 	lea    0xefb7(%rip),%rax        # 1e1e8 <g_174>
    f231:	48 89 85 40 f1 ff ff 	mov    %rax,-0xec0(%rbp)
    f238:	48 8d 05 a9 ef 00 00 	lea    0xefa9(%rip),%rax        # 1e1e8 <g_174>
    f23f:	48 89 85 48 f1 ff ff 	mov    %rax,-0xeb8(%rbp)
    f246:	48 8d 85 e8 e5 ff ff 	lea    -0x1a18(%rbp),%rax
    f24d:	48 89 85 50 f1 ff ff 	mov    %rax,-0xeb0(%rbp)
    f254:	48 8d 05 8d ef 00 00 	lea    0xef8d(%rip),%rax        # 1e1e8 <g_174>
    f25b:	48 89 85 58 f1 ff ff 	mov    %rax,-0xea8(%rbp)
    f262:	48 c7 85 60 f1 ff ff 	movq   $0x0,-0xea0(%rbp)
    f269:	00 00 00 00 
    f26d:	48 8d 85 e8 e5 ff ff 	lea    -0x1a18(%rbp),%rax
    f274:	48 89 85 68 f1 ff ff 	mov    %rax,-0xe98(%rbp)
    f27b:	48 8d 05 66 ef 00 00 	lea    0xef66(%rip),%rax        # 1e1e8 <g_174>
    f282:	48 89 85 70 f1 ff ff 	mov    %rax,-0xe90(%rbp)
    f289:	48 8d 05 58 ef 00 00 	lea    0xef58(%rip),%rax        # 1e1e8 <g_174>
    f290:	48 89 85 78 f1 ff ff 	mov    %rax,-0xe88(%rbp)
    f297:	48 8d 85 e8 e5 ff ff 	lea    -0x1a18(%rbp),%rax
    f29e:	48 89 85 80 f1 ff ff 	mov    %rax,-0xe80(%rbp)
    f2a5:	48 8d 05 3c ef 00 00 	lea    0xef3c(%rip),%rax        # 1e1e8 <g_174>
    f2ac:	48 89 85 88 f1 ff ff 	mov    %rax,-0xe78(%rbp)
    f2b3:	48 c7 85 90 f1 ff ff 	movq   $0x0,-0xe70(%rbp)
    f2ba:	00 00 00 00 
    f2be:	48 c7 85 98 f1 ff ff 	movq   $0x0,-0xe68(%rbp)
    f2c5:	00 00 00 00 
    f2c9:	48 c7 85 a0 f1 ff ff 	movq   $0x0,-0xe60(%rbp)
    f2d0:	00 00 00 00 
    f2d4:	48 8d 85 e8 e5 ff ff 	lea    -0x1a18(%rbp),%rax
    f2db:	48 89 85 a8 f1 ff ff 	mov    %rax,-0xe58(%rbp)
    f2e2:	48 8d 05 ff ee 00 00 	lea    0xeeff(%rip),%rax        # 1e1e8 <g_174>
    f2e9:	48 89 85 b0 f1 ff ff 	mov    %rax,-0xe50(%rbp)
    f2f0:	48 8d 85 e8 e5 ff ff 	lea    -0x1a18(%rbp),%rax
    f2f7:	48 89 85 b8 f1 ff ff 	mov    %rax,-0xe48(%rbp)
    f2fe:	48 c7 85 c0 f1 ff ff 	movq   $0x0,-0xe40(%rbp)
    f305:	00 00 00 00 
    f309:	48 8d 05 d8 ee 00 00 	lea    0xeed8(%rip),%rax        # 1e1e8 <g_174>
    f310:	48 89 85 c8 f1 ff ff 	mov    %rax,-0xe38(%rbp)
    f317:	48 c7 85 d0 f1 ff ff 	movq   $0x0,-0xe30(%rbp)
    f31e:	00 00 00 00 
    f322:	48 c7 85 d8 f1 ff ff 	movq   $0x0,-0xe28(%rbp)
    f329:	00 00 00 00 
    f32d:	48 8d 05 b4 ee 00 00 	lea    0xeeb4(%rip),%rax        # 1e1e8 <g_174>
    f334:	48 89 85 e0 f1 ff ff 	mov    %rax,-0xe20(%rbp)
    f33b:	48 8d 85 e8 e5 ff ff 	lea    -0x1a18(%rbp),%rax
    f342:	48 89 85 e8 f1 ff ff 	mov    %rax,-0xe18(%rbp)
    f349:	48 8d 85 e8 e5 ff ff 	lea    -0x1a18(%rbp),%rax
    f350:	48 89 85 f0 f1 ff ff 	mov    %rax,-0xe10(%rbp)
    f357:	48 8d 05 8a ee 00 00 	lea    0xee8a(%rip),%rax        # 1e1e8 <g_174>
    f35e:	48 89 85 f8 f1 ff ff 	mov    %rax,-0xe08(%rbp)
    f365:	48 8d 05 7c ee 00 00 	lea    0xee7c(%rip),%rax        # 1e1e8 <g_174>
    f36c:	48 89 85 00 f2 ff ff 	mov    %rax,-0xe00(%rbp)
    f373:	48 8d 05 6e ee 00 00 	lea    0xee6e(%rip),%rax        # 1e1e8 <g_174>
    f37a:	48 89 85 08 f2 ff ff 	mov    %rax,-0xdf8(%rbp)
    f381:	48 c7 85 10 f2 ff ff 	movq   $0x0,-0xdf0(%rbp)
    f388:	00 00 00 00 
    f38c:	48 c7 85 18 f2 ff ff 	movq   $0x0,-0xde8(%rbp)
    f393:	00 00 00 00 
    f397:	48 8d 05 4a ee 00 00 	lea    0xee4a(%rip),%rax        # 1e1e8 <g_174>
    f39e:	48 89 85 20 f2 ff ff 	mov    %rax,-0xde0(%rbp)
    f3a5:	48 8d 05 3c ee 00 00 	lea    0xee3c(%rip),%rax        # 1e1e8 <g_174>
    f3ac:	48 89 85 28 f2 ff ff 	mov    %rax,-0xdd8(%rbp)
    f3b3:	48 c7 85 30 f2 ff ff 	movq   $0x0,-0xdd0(%rbp)
    f3ba:	00 00 00 00 
    f3be:	48 8d 05 23 ee 00 00 	lea    0xee23(%rip),%rax        # 1e1e8 <g_174>
    f3c5:	48 89 85 38 f2 ff ff 	mov    %rax,-0xdc8(%rbp)
    f3cc:	48 8d 05 15 ee 00 00 	lea    0xee15(%rip),%rax        # 1e1e8 <g_174>
    f3d3:	48 89 85 40 f2 ff ff 	mov    %rax,-0xdc0(%rbp)
    f3da:	48 c7 85 48 f2 ff ff 	movq   $0x0,-0xdb8(%rbp)
    f3e1:	00 00 00 00 
    f3e5:	48 8d 85 e8 e5 ff ff 	lea    -0x1a18(%rbp),%rax
    f3ec:	48 89 85 50 f2 ff ff 	mov    %rax,-0xdb0(%rbp)
    f3f3:	48 c7 85 58 f2 ff ff 	movq   $0x0,-0xda8(%rbp)
    f3fa:	00 00 00 00 
    f3fe:	48 8d 05 e3 ed 00 00 	lea    0xede3(%rip),%rax        # 1e1e8 <g_174>
    f405:	48 89 85 60 f2 ff ff 	mov    %rax,-0xda0(%rbp)
    f40c:	48 c7 85 68 f2 ff ff 	movq   $0x0,-0xd98(%rbp)
    f413:	00 00 00 00 
    f417:	48 c7 85 70 f2 ff ff 	movq   $0x0,-0xd90(%rbp)
    f41e:	00 00 00 00 
    f422:	48 8d 05 bf ed 00 00 	lea    0xedbf(%rip),%rax        # 1e1e8 <g_174>
    f429:	48 89 85 78 f2 ff ff 	mov    %rax,-0xd88(%rbp)
    f430:	48 c7 85 80 f2 ff ff 	movq   $0x0,-0xd80(%rbp)
    f437:	00 00 00 00 
    f43b:	48 c7 85 88 f2 ff ff 	movq   $0x0,-0xd78(%rbp)
    f442:	00 00 00 00 
    f446:	48 8d 05 9b ed 00 00 	lea    0xed9b(%rip),%rax        # 1e1e8 <g_174>
    f44d:	48 89 85 90 f2 ff ff 	mov    %rax,-0xd70(%rbp)
    f454:	48 8d 85 e8 e5 ff ff 	lea    -0x1a18(%rbp),%rax
    f45b:	48 89 85 98 f2 ff ff 	mov    %rax,-0xd68(%rbp)
    f462:	48 8d 85 e8 e5 ff ff 	lea    -0x1a18(%rbp),%rax
    f469:	48 89 85 a0 f2 ff ff 	mov    %rax,-0xd60(%rbp)
    f470:	48 8d 05 71 ed 00 00 	lea    0xed71(%rip),%rax        # 1e1e8 <g_174>
    f477:	48 89 85 a8 f2 ff ff 	mov    %rax,-0xd58(%rbp)
    f47e:	48 c7 85 b0 f2 ff ff 	movq   $0x0,-0xd50(%rbp)
    f485:	00 00 00 00 
    f489:	48 8d 05 58 ed 00 00 	lea    0xed58(%rip),%rax        # 1e1e8 <g_174>
    f490:	48 89 85 b8 f2 ff ff 	mov    %rax,-0xd48(%rbp)
    f497:	48 8d 85 e8 e5 ff ff 	lea    -0x1a18(%rbp),%rax
    f49e:	48 89 85 c0 f2 ff ff 	mov    %rax,-0xd40(%rbp)
    f4a5:	48 8d 05 3c ed 00 00 	lea    0xed3c(%rip),%rax        # 1e1e8 <g_174>
    f4ac:	48 89 85 c8 f2 ff ff 	mov    %rax,-0xd38(%rbp)
    f4b3:	48 c7 85 d0 f2 ff ff 	movq   $0x0,-0xd30(%rbp)
    f4ba:	00 00 00 00 
    f4be:	48 8d 05 23 ed 00 00 	lea    0xed23(%rip),%rax        # 1e1e8 <g_174>
    f4c5:	48 89 85 d8 f2 ff ff 	mov    %rax,-0xd28(%rbp)
    f4cc:	48 c7 85 e0 f2 ff ff 	movq   $0x0,-0xd20(%rbp)
    f4d3:	00 00 00 00 
    f4d7:	48 c7 85 e8 f2 ff ff 	movq   $0x0,-0xd18(%rbp)
    f4de:	00 00 00 00 
    f4e2:	48 8d 85 e8 e5 ff ff 	lea    -0x1a18(%rbp),%rax
    f4e9:	48 89 85 f0 f2 ff ff 	mov    %rax,-0xd10(%rbp)
    f4f0:	48 8d 05 f1 ec 00 00 	lea    0xecf1(%rip),%rax        # 1e1e8 <g_174>
    f4f7:	48 89 85 f8 f2 ff ff 	mov    %rax,-0xd08(%rbp)
    f4fe:	48 c7 85 00 f3 ff ff 	movq   $0x0,-0xd00(%rbp)
    f505:	00 00 00 00 
    f509:	48 8d 05 d8 ec 00 00 	lea    0xecd8(%rip),%rax        # 1e1e8 <g_174>
    f510:	48 89 85 08 f3 ff ff 	mov    %rax,-0xcf8(%rbp)
    f517:	48 8d 05 ca ec 00 00 	lea    0xecca(%rip),%rax        # 1e1e8 <g_174>
    f51e:	48 89 85 10 f3 ff ff 	mov    %rax,-0xcf0(%rbp)
    f525:	48 8d 05 bc ec 00 00 	lea    0xecbc(%rip),%rax        # 1e1e8 <g_174>
    f52c:	48 89 85 18 f3 ff ff 	mov    %rax,-0xce8(%rbp)
    f533:	48 8d 05 ae ec 00 00 	lea    0xecae(%rip),%rax        # 1e1e8 <g_174>
    f53a:	48 89 85 20 f3 ff ff 	mov    %rax,-0xce0(%rbp)
    f541:	48 c7 85 28 f3 ff ff 	movq   $0x0,-0xcd8(%rbp)
    f548:	00 00 00 00 
    f54c:	48 8d 05 95 ec 00 00 	lea    0xec95(%rip),%rax        # 1e1e8 <g_174>
    f553:	48 89 85 30 f3 ff ff 	mov    %rax,-0xcd0(%rbp)
    f55a:	48 8d 05 87 ec 00 00 	lea    0xec87(%rip),%rax        # 1e1e8 <g_174>
    f561:	48 89 85 38 f3 ff ff 	mov    %rax,-0xcc8(%rbp)
    f568:	48 c7 85 40 f3 ff ff 	movq   $0x0,-0xcc0(%rbp)
    f56f:	00 00 00 00 
    f573:	48 8d 05 6e ec 00 00 	lea    0xec6e(%rip),%rax        # 1e1e8 <g_174>
    f57a:	48 89 85 48 f3 ff ff 	mov    %rax,-0xcb8(%rbp)
    f581:	48 8d 05 60 ec 00 00 	lea    0xec60(%rip),%rax        # 1e1e8 <g_174>
    f588:	48 89 85 50 f3 ff ff 	mov    %rax,-0xcb0(%rbp)
    f58f:	48 8d 05 52 ec 00 00 	lea    0xec52(%rip),%rax        # 1e1e8 <g_174>
    f596:	48 89 85 58 f3 ff ff 	mov    %rax,-0xca8(%rbp)
    f59d:	48 8d 05 44 ec 00 00 	lea    0xec44(%rip),%rax        # 1e1e8 <g_174>
    f5a4:	48 89 85 60 f3 ff ff 	mov    %rax,-0xca0(%rbp)
    f5ab:	48 c7 85 68 f3 ff ff 	movq   $0x0,-0xc98(%rbp)
    f5b2:	00 00 00 00 
    f5b6:	48 8d 05 2b ec 00 00 	lea    0xec2b(%rip),%rax        # 1e1e8 <g_174>
    f5bd:	48 89 85 70 f3 ff ff 	mov    %rax,-0xc90(%rbp)
    f5c4:	48 8d 85 e8 e5 ff ff 	lea    -0x1a18(%rbp),%rax
    f5cb:	48 89 85 78 f3 ff ff 	mov    %rax,-0xc88(%rbp)
    f5d2:	48 c7 85 80 f3 ff ff 	movq   $0x0,-0xc80(%rbp)
    f5d9:	00 00 00 00 
    f5dd:	48 c7 85 88 f3 ff ff 	movq   $0x0,-0xc78(%rbp)
    f5e4:	00 00 00 00 
    f5e8:	48 8d 05 f9 eb 00 00 	lea    0xebf9(%rip),%rax        # 1e1e8 <g_174>
    f5ef:	48 89 85 90 f3 ff ff 	mov    %rax,-0xc70(%rbp)
    f5f6:	48 c7 85 98 f3 ff ff 	movq   $0x0,-0xc68(%rbp)
    f5fd:	00 00 00 00 
    f601:	48 8d 05 e0 eb 00 00 	lea    0xebe0(%rip),%rax        # 1e1e8 <g_174>
    f608:	48 89 85 a0 f3 ff ff 	mov    %rax,-0xc60(%rbp)
    f60f:	48 8d 85 e8 e5 ff ff 	lea    -0x1a18(%rbp),%rax
    f616:	48 89 85 a8 f3 ff ff 	mov    %rax,-0xc58(%rbp)
    f61d:	48 8d 05 c4 eb 00 00 	lea    0xebc4(%rip),%rax        # 1e1e8 <g_174>
    f624:	48 89 85 b0 f3 ff ff 	mov    %rax,-0xc50(%rbp)
    f62b:	48 c7 85 b8 f3 ff ff 	movq   $0x0,-0xc48(%rbp)
    f632:	00 00 00 00 
    f636:	48 8d 05 ab eb 00 00 	lea    0xebab(%rip),%rax        # 1e1e8 <g_174>
    f63d:	48 89 85 c0 f3 ff ff 	mov    %rax,-0xc40(%rbp)
    f644:	48 8d 85 e8 e5 ff ff 	lea    -0x1a18(%rbp),%rax
    f64b:	48 89 85 c8 f3 ff ff 	mov    %rax,-0xc38(%rbp)
    f652:	48 8d 85 e8 e5 ff ff 	lea    -0x1a18(%rbp),%rax
    f659:	48 89 85 d0 f3 ff ff 	mov    %rax,-0xc30(%rbp)
    f660:	48 8d 05 81 eb 00 00 	lea    0xeb81(%rip),%rax        # 1e1e8 <g_174>
    f667:	48 89 85 d8 f3 ff ff 	mov    %rax,-0xc28(%rbp)
    f66e:	48 c7 85 e0 f3 ff ff 	movq   $0x0,-0xc20(%rbp)
    f675:	00 00 00 00 
    f679:	48 c7 85 e8 f3 ff ff 	movq   $0x0,-0xc18(%rbp)
    f680:	00 00 00 00 
    f684:	48 8d 05 5d eb 00 00 	lea    0xeb5d(%rip),%rax        # 1e1e8 <g_174>
    f68b:	48 89 85 f0 f3 ff ff 	mov    %rax,-0xc10(%rbp)
    f692:	48 8d 85 e8 e5 ff ff 	lea    -0x1a18(%rbp),%rax
    f699:	48 89 85 f8 f3 ff ff 	mov    %rax,-0xc08(%rbp)
    f6a0:	48 c7 85 00 f4 ff ff 	movq   $0x0,-0xc00(%rbp)
    f6a7:	00 00 00 00 
    f6ab:	48 8d 05 36 eb 00 00 	lea    0xeb36(%rip),%rax        # 1e1e8 <g_174>
    f6b2:	48 89 85 08 f4 ff ff 	mov    %rax,-0xbf8(%rbp)
    f6b9:	48 c7 85 10 f4 ff ff 	movq   $0x0,-0xbf0(%rbp)
    f6c0:	00 00 00 00 
    f6c4:	48 8d 85 e8 e5 ff ff 	lea    -0x1a18(%rbp),%rax
    f6cb:	48 89 85 18 f4 ff ff 	mov    %rax,-0xbe8(%rbp)
    f6d2:	48 c7 85 20 f4 ff ff 	movq   $0x0,-0xbe0(%rbp)
    f6d9:	00 00 00 00 
    f6dd:	48 8d 05 04 eb 00 00 	lea    0xeb04(%rip),%rax        # 1e1e8 <g_174>
    f6e4:	48 89 85 28 f4 ff ff 	mov    %rax,-0xbd8(%rbp)
    f6eb:	48 8d 05 f6 ea 00 00 	lea    0xeaf6(%rip),%rax        # 1e1e8 <g_174>
    f6f2:	48 89 85 30 f4 ff ff 	mov    %rax,-0xbd0(%rbp)
    f6f9:	48 c7 85 38 f4 ff ff 	movq   $0x0,-0xbc8(%rbp)
    f700:	00 00 00 00 
    f704:	48 8d 05 dd ea 00 00 	lea    0xeadd(%rip),%rax        # 1e1e8 <g_174>
    f70b:	48 89 85 40 f4 ff ff 	mov    %rax,-0xbc0(%rbp)
    f712:	48 c7 85 48 f4 ff ff 	movq   $0x0,-0xbb8(%rbp)
    f719:	00 00 00 00 
    f71d:	48 8d 05 c4 ea 00 00 	lea    0xeac4(%rip),%rax        # 1e1e8 <g_174>
    f724:	48 89 85 50 f4 ff ff 	mov    %rax,-0xbb0(%rbp)
    f72b:	48 c7 85 58 f4 ff ff 	movq   $0x0,-0xba8(%rbp)
    f732:	00 00 00 00 
    f736:	48 8d 05 ab ea 00 00 	lea    0xeaab(%rip),%rax        # 1e1e8 <g_174>
    f73d:	48 89 85 60 f4 ff ff 	mov    %rax,-0xba0(%rbp)
    f744:	48 c7 85 68 f4 ff ff 	movq   $0x0,-0xb98(%rbp)
    f74b:	00 00 00 00 
    f74f:	48 c7 85 70 f4 ff ff 	movq   $0x0,-0xb90(%rbp)
    f756:	00 00 00 00 
    f75a:	48 c7 85 78 f4 ff ff 	movq   $0x0,-0xb88(%rbp)
    f761:	00 00 00 00 
    f765:	48 8d 85 e8 e5 ff ff 	lea    -0x1a18(%rbp),%rax
    f76c:	48 89 85 80 f4 ff ff 	mov    %rax,-0xb80(%rbp)
    f773:	48 8d 05 6e ea 00 00 	lea    0xea6e(%rip),%rax        # 1e1e8 <g_174>
    f77a:	48 89 85 88 f4 ff ff 	mov    %rax,-0xb78(%rbp)
    f781:	48 8d 05 60 ea 00 00 	lea    0xea60(%rip),%rax        # 1e1e8 <g_174>
    f788:	48 89 85 90 f4 ff ff 	mov    %rax,-0xb70(%rbp)
    f78f:	48 8d 05 52 ea 00 00 	lea    0xea52(%rip),%rax        # 1e1e8 <g_174>
    f796:	48 89 85 98 f4 ff ff 	mov    %rax,-0xb68(%rbp)
    f79d:	48 8d 05 44 ea 00 00 	lea    0xea44(%rip),%rax        # 1e1e8 <g_174>
    f7a4:	48 89 85 a0 f4 ff ff 	mov    %rax,-0xb60(%rbp)
    f7ab:	48 8d 05 36 ea 00 00 	lea    0xea36(%rip),%rax        # 1e1e8 <g_174>
    f7b2:	48 89 85 a8 f4 ff ff 	mov    %rax,-0xb58(%rbp)
    f7b9:	48 8d 05 28 ea 00 00 	lea    0xea28(%rip),%rax        # 1e1e8 <g_174>
    f7c0:	48 89 85 b0 f4 ff ff 	mov    %rax,-0xb50(%rbp)
    f7c7:	48 8d 05 1a ea 00 00 	lea    0xea1a(%rip),%rax        # 1e1e8 <g_174>
    f7ce:	48 89 85 b8 f4 ff ff 	mov    %rax,-0xb48(%rbp)
    f7d5:	48 c7 85 c0 f4 ff ff 	movq   $0x0,-0xb40(%rbp)
    f7dc:	00 00 00 00 
    f7e0:	48 c7 85 c8 f4 ff ff 	movq   $0x0,-0xb38(%rbp)
    f7e7:	00 00 00 00 
    f7eb:	48 8d 05 f6 e9 00 00 	lea    0xe9f6(%rip),%rax        # 1e1e8 <g_174>
    f7f2:	48 89 85 d0 f4 ff ff 	mov    %rax,-0xb30(%rbp)
    f7f9:	48 8d 85 e8 e5 ff ff 	lea    -0x1a18(%rbp),%rax
    f800:	48 89 85 d8 f4 ff ff 	mov    %rax,-0xb28(%rbp)
    f807:	48 c7 85 e0 f4 ff ff 	movq   $0x0,-0xb20(%rbp)
    f80e:	00 00 00 00 
    f812:	48 8d 85 e8 e5 ff ff 	lea    -0x1a18(%rbp),%rax
    f819:	48 89 85 e8 f4 ff ff 	mov    %rax,-0xb18(%rbp)
    f820:	48 8d 05 c1 e9 00 00 	lea    0xe9c1(%rip),%rax        # 1e1e8 <g_174>
    f827:	48 89 85 f0 f4 ff ff 	mov    %rax,-0xb10(%rbp)
    f82e:	48 8d 05 b3 e9 00 00 	lea    0xe9b3(%rip),%rax        # 1e1e8 <g_174>
    f835:	48 89 85 f8 f4 ff ff 	mov    %rax,-0xb08(%rbp)
    f83c:	48 8d 05 a5 e9 00 00 	lea    0xe9a5(%rip),%rax        # 1e1e8 <g_174>
    f843:	48 89 85 00 f5 ff ff 	mov    %rax,-0xb00(%rbp)
    f84a:	48 c7 85 08 f5 ff ff 	movq   $0x0,-0xaf8(%rbp)
    f851:	00 00 00 00 
    f855:	48 8d 85 e8 e5 ff ff 	lea    -0x1a18(%rbp),%rax
    f85c:	48 89 85 10 f5 ff ff 	mov    %rax,-0xaf0(%rbp)
    f863:	48 8d 85 e8 e5 ff ff 	lea    -0x1a18(%rbp),%rax
    f86a:	48 89 85 18 f5 ff ff 	mov    %rax,-0xae8(%rbp)
    f871:	48 8d 05 70 e9 00 00 	lea    0xe970(%rip),%rax        # 1e1e8 <g_174>
    f878:	48 89 85 20 f5 ff ff 	mov    %rax,-0xae0(%rbp)
    f87f:	48 c7 85 28 f5 ff ff 	movq   $0x0,-0xad8(%rbp)
    f886:	00 00 00 00 
    f88a:	48 8d 05 57 e9 00 00 	lea    0xe957(%rip),%rax        # 1e1e8 <g_174>
    f891:	48 89 85 30 f5 ff ff 	mov    %rax,-0xad0(%rbp)
    f898:	48 8d 05 49 e9 00 00 	lea    0xe949(%rip),%rax        # 1e1e8 <g_174>
    f89f:	48 89 85 38 f5 ff ff 	mov    %rax,-0xac8(%rbp)
    f8a6:	48 8d 05 3b e9 00 00 	lea    0xe93b(%rip),%rax        # 1e1e8 <g_174>
    f8ad:	48 89 85 40 f5 ff ff 	mov    %rax,-0xac0(%rbp)
    f8b4:	48 8d 05 2d e9 00 00 	lea    0xe92d(%rip),%rax        # 1e1e8 <g_174>
    f8bb:	48 89 85 48 f5 ff ff 	mov    %rax,-0xab8(%rbp)
    f8c2:	48 8d 85 e8 e5 ff ff 	lea    -0x1a18(%rbp),%rax
    f8c9:	48 89 85 50 f5 ff ff 	mov    %rax,-0xab0(%rbp)
    f8d0:	48 8d 05 11 e9 00 00 	lea    0xe911(%rip),%rax        # 1e1e8 <g_174>
    f8d7:	48 89 85 58 f5 ff ff 	mov    %rax,-0xaa8(%rbp)
    f8de:	48 8d 05 03 e9 00 00 	lea    0xe903(%rip),%rax        # 1e1e8 <g_174>
    f8e5:	48 89 85 60 f5 ff ff 	mov    %rax,-0xaa0(%rbp)
    f8ec:	48 8d 85 e8 e5 ff ff 	lea    -0x1a18(%rbp),%rax
    f8f3:	48 89 85 68 f5 ff ff 	mov    %rax,-0xa98(%rbp)
    f8fa:	48 8d 05 e7 e8 00 00 	lea    0xe8e7(%rip),%rax        # 1e1e8 <g_174>
    f901:	48 89 85 70 f5 ff ff 	mov    %rax,-0xa90(%rbp)
    f908:	48 8d 05 d9 e8 00 00 	lea    0xe8d9(%rip),%rax        # 1e1e8 <g_174>
    f90f:	48 89 85 78 f5 ff ff 	mov    %rax,-0xa88(%rbp)
    f916:	48 8d 05 cb e8 00 00 	lea    0xe8cb(%rip),%rax        # 1e1e8 <g_174>
    f91d:	48 89 85 80 f5 ff ff 	mov    %rax,-0xa80(%rbp)
    f924:	48 8d 05 bd e8 00 00 	lea    0xe8bd(%rip),%rax        # 1e1e8 <g_174>
    f92b:	48 89 85 88 f5 ff ff 	mov    %rax,-0xa78(%rbp)
    f932:	48 c7 85 90 f5 ff ff 	movq   $0x0,-0xa70(%rbp)
    f939:	00 00 00 00 
    f93d:	48 8d 05 a4 e8 00 00 	lea    0xe8a4(%rip),%rax        # 1e1e8 <g_174>
    f944:	48 89 85 98 f5 ff ff 	mov    %rax,-0xa68(%rbp)
    f94b:	48 c7 85 a0 f5 ff ff 	movq   $0x0,-0xa60(%rbp)
    f952:	00 00 00 00 
    f956:	48 c7 85 a8 f5 ff ff 	movq   $0x0,-0xa58(%rbp)
    f95d:	00 00 00 00 
    f961:	48 c7 85 b0 f5 ff ff 	movq   $0x0,-0xa50(%rbp)
    f968:	00 00 00 00 
    f96c:	48 8d 05 75 e8 00 00 	lea    0xe875(%rip),%rax        # 1e1e8 <g_174>
    f973:	48 89 85 b8 f5 ff ff 	mov    %rax,-0xa48(%rbp)
    f97a:	48 8d 05 67 e8 00 00 	lea    0xe867(%rip),%rax        # 1e1e8 <g_174>
    f981:	48 89 85 c0 f5 ff ff 	mov    %rax,-0xa40(%rbp)
    f988:	48 8d 05 59 e8 00 00 	lea    0xe859(%rip),%rax        # 1e1e8 <g_174>
    f98f:	48 89 85 c8 f5 ff ff 	mov    %rax,-0xa38(%rbp)
    f996:	48 c7 85 d0 f5 ff ff 	movq   $0x0,-0xa30(%rbp)
    f99d:	00 00 00 00 
    f9a1:	48 8d 05 40 e8 00 00 	lea    0xe840(%rip),%rax        # 1e1e8 <g_174>
    f9a8:	48 89 85 d8 f5 ff ff 	mov    %rax,-0xa28(%rbp)
    f9af:	48 8d 85 e8 e5 ff ff 	lea    -0x1a18(%rbp),%rax
    f9b6:	48 89 85 e0 f5 ff ff 	mov    %rax,-0xa20(%rbp)
    f9bd:	48 8d 05 24 e8 00 00 	lea    0xe824(%rip),%rax        # 1e1e8 <g_174>
    f9c4:	48 89 85 e8 f5 ff ff 	mov    %rax,-0xa18(%rbp)
    f9cb:	48 c7 85 f0 f5 ff ff 	movq   $0x0,-0xa10(%rbp)
    f9d2:	00 00 00 00 
    f9d6:	48 c7 85 f8 f5 ff ff 	movq   $0x0,-0xa08(%rbp)
    f9dd:	00 00 00 00 
    f9e1:	48 8d 05 00 e8 00 00 	lea    0xe800(%rip),%rax        # 1e1e8 <g_174>
    f9e8:	48 89 85 00 f6 ff ff 	mov    %rax,-0xa00(%rbp)
    f9ef:	48 c7 85 08 f6 ff ff 	movq   $0x0,-0x9f8(%rbp)
    f9f6:	00 00 00 00 
    f9fa:	48 8d 05 e7 e7 00 00 	lea    0xe7e7(%rip),%rax        # 1e1e8 <g_174>
    fa01:	48 89 85 10 f6 ff ff 	mov    %rax,-0x9f0(%rbp)
    fa08:	48 8d 05 d9 e7 00 00 	lea    0xe7d9(%rip),%rax        # 1e1e8 <g_174>
    fa0f:	48 89 85 18 f6 ff ff 	mov    %rax,-0x9e8(%rbp)
    fa16:	48 8d 05 cb e7 00 00 	lea    0xe7cb(%rip),%rax        # 1e1e8 <g_174>
    fa1d:	48 89 85 20 f6 ff ff 	mov    %rax,-0x9e0(%rbp)
    fa24:	48 8d 05 bd e7 00 00 	lea    0xe7bd(%rip),%rax        # 1e1e8 <g_174>
    fa2b:	48 89 85 28 f6 ff ff 	mov    %rax,-0x9d8(%rbp)
    fa32:	48 8d 05 af e7 00 00 	lea    0xe7af(%rip),%rax        # 1e1e8 <g_174>
    fa39:	48 89 85 30 f6 ff ff 	mov    %rax,-0x9d0(%rbp)
    fa40:	48 c7 85 38 f6 ff ff 	movq   $0x0,-0x9c8(%rbp)
    fa47:	00 00 00 00 
    fa4b:	48 c7 85 40 f6 ff ff 	movq   $0x0,-0x9c0(%rbp)
    fa52:	00 00 00 00 
    fa56:	48 c7 85 48 f6 ff ff 	movq   $0x0,-0x9b8(%rbp)
    fa5d:	00 00 00 00 
    fa61:	48 c7 85 50 f6 ff ff 	movq   $0x0,-0x9b0(%rbp)
    fa68:	00 00 00 00 
    fa6c:	48 8d 05 75 e7 00 00 	lea    0xe775(%rip),%rax        # 1e1e8 <g_174>
    fa73:	48 89 85 58 f6 ff ff 	mov    %rax,-0x9a8(%rbp)
    fa7a:	48 8d 85 e8 e5 ff ff 	lea    -0x1a18(%rbp),%rax
    fa81:	48 89 85 60 f6 ff ff 	mov    %rax,-0x9a0(%rbp)
    fa88:	48 8d 05 59 e7 00 00 	lea    0xe759(%rip),%rax        # 1e1e8 <g_174>
    fa8f:	48 89 85 68 f6 ff ff 	mov    %rax,-0x998(%rbp)
    fa96:	48 c7 85 70 f6 ff ff 	movq   $0x0,-0x990(%rbp)
    fa9d:	00 00 00 00 
    faa1:	48 8d 05 40 e7 00 00 	lea    0xe740(%rip),%rax        # 1e1e8 <g_174>
    faa8:	48 89 85 78 f6 ff ff 	mov    %rax,-0x988(%rbp)
    faaf:	48 8d 85 e8 e5 ff ff 	lea    -0x1a18(%rbp),%rax
    fab6:	48 89 85 80 f6 ff ff 	mov    %rax,-0x980(%rbp)
    fabd:	48 8d 05 24 e7 00 00 	lea    0xe724(%rip),%rax        # 1e1e8 <g_174>
    fac4:	48 89 85 88 f6 ff ff 	mov    %rax,-0x978(%rbp)
    facb:	48 c7 85 90 f6 ff ff 	movq   $0x0,-0x970(%rbp)
    fad2:	00 00 00 00 
    fad6:	48 8d 05 0b e7 00 00 	lea    0xe70b(%rip),%rax        # 1e1e8 <g_174>
    fadd:	48 89 85 98 f6 ff ff 	mov    %rax,-0x968(%rbp)
    fae4:	48 c7 85 a0 f6 ff ff 	movq   $0x0,-0x960(%rbp)
    faeb:	00 00 00 00 
    faef:	48 c7 85 a8 f6 ff ff 	movq   $0x0,-0x958(%rbp)
    faf6:	00 00 00 00 
    fafa:	48 8d 05 e7 e6 00 00 	lea    0xe6e7(%rip),%rax        # 1e1e8 <g_174>
    fb01:	48 89 85 b0 f6 ff ff 	mov    %rax,-0x950(%rbp)
    fb08:	48 8d 05 d9 e6 00 00 	lea    0xe6d9(%rip),%rax        # 1e1e8 <g_174>
    fb0f:	48 89 85 b8 f6 ff ff 	mov    %rax,-0x948(%rbp)
    fb16:	48 8d 05 cb e6 00 00 	lea    0xe6cb(%rip),%rax        # 1e1e8 <g_174>
    fb1d:	48 89 85 c0 f6 ff ff 	mov    %rax,-0x940(%rbp)
    fb24:	48 8d 05 bd e6 00 00 	lea    0xe6bd(%rip),%rax        # 1e1e8 <g_174>
    fb2b:	48 89 85 c8 f6 ff ff 	mov    %rax,-0x938(%rbp)
    fb32:	48 8d 05 af e6 00 00 	lea    0xe6af(%rip),%rax        # 1e1e8 <g_174>
    fb39:	48 89 85 d0 f6 ff ff 	mov    %rax,-0x930(%rbp)
    fb40:	48 8d 05 a1 e6 00 00 	lea    0xe6a1(%rip),%rax        # 1e1e8 <g_174>
    fb47:	48 89 85 d8 f6 ff ff 	mov    %rax,-0x928(%rbp)
    fb4e:	48 8d 85 e8 e5 ff ff 	lea    -0x1a18(%rbp),%rax
    fb55:	48 89 85 e0 f6 ff ff 	mov    %rax,-0x920(%rbp)
    fb5c:	48 c7 85 e8 f6 ff ff 	movq   $0x0,-0x918(%rbp)
    fb63:	00 00 00 00 
    fb67:	48 8d 85 e8 e5 ff ff 	lea    -0x1a18(%rbp),%rax
    fb6e:	48 89 85 f0 f6 ff ff 	mov    %rax,-0x910(%rbp)
    fb75:	48 c7 85 f8 f6 ff ff 	movq   $0x0,-0x908(%rbp)
    fb7c:	00 00 00 00 
    fb80:	48 8d 85 e8 e5 ff ff 	lea    -0x1a18(%rbp),%rax
    fb87:	48 89 85 00 f7 ff ff 	mov    %rax,-0x900(%rbp)
    fb8e:	48 c7 85 08 f7 ff ff 	movq   $0x0,-0x8f8(%rbp)
    fb95:	00 00 00 00 
    fb99:	48 8d 85 e8 e5 ff ff 	lea    -0x1a18(%rbp),%rax
    fba0:	48 89 85 10 f7 ff ff 	mov    %rax,-0x8f0(%rbp)
    fba7:	48 8d 05 3a e6 00 00 	lea    0xe63a(%rip),%rax        # 1e1e8 <g_174>
    fbae:	48 89 85 18 f7 ff ff 	mov    %rax,-0x8e8(%rbp)
    fbb5:	48 8d 05 2c e6 00 00 	lea    0xe62c(%rip),%rax        # 1e1e8 <g_174>
    fbbc:	48 89 85 20 f7 ff ff 	mov    %rax,-0x8e0(%rbp)
    fbc3:	48 8d 85 e8 e5 ff ff 	lea    -0x1a18(%rbp),%rax
    fbca:	48 89 85 28 f7 ff ff 	mov    %rax,-0x8d8(%rbp)
    fbd1:	48 c7 85 30 f7 ff ff 	movq   $0x0,-0x8d0(%rbp)
    fbd8:	00 00 00 00 
    fbdc:	48 8d 85 e8 e5 ff ff 	lea    -0x1a18(%rbp),%rax
    fbe3:	48 89 85 38 f7 ff ff 	mov    %rax,-0x8c8(%rbp)
    fbea:	48 8d 85 e8 e5 ff ff 	lea    -0x1a18(%rbp),%rax
    fbf1:	48 89 85 40 f7 ff ff 	mov    %rax,-0x8c0(%rbp)
    fbf8:	48 8d 05 e9 e5 00 00 	lea    0xe5e9(%rip),%rax        # 1e1e8 <g_174>
    fbff:	48 89 85 48 f7 ff ff 	mov    %rax,-0x8b8(%rbp)
    fc06:	48 8d 05 db e5 00 00 	lea    0xe5db(%rip),%rax        # 1e1e8 <g_174>
    fc0d:	48 89 85 50 f7 ff ff 	mov    %rax,-0x8b0(%rbp)
    fc14:	48 c7 85 58 f7 ff ff 	movq   $0x0,-0x8a8(%rbp)
    fc1b:	00 00 00 00 
    fc1f:	48 8d 05 c2 e5 00 00 	lea    0xe5c2(%rip),%rax        # 1e1e8 <g_174>
    fc26:	48 89 85 60 f7 ff ff 	mov    %rax,-0x8a0(%rbp)
    fc2d:	48 8d 05 b4 e5 00 00 	lea    0xe5b4(%rip),%rax        # 1e1e8 <g_174>
    fc34:	48 89 85 68 f7 ff ff 	mov    %rax,-0x898(%rbp)
    fc3b:	48 8d 85 e8 e5 ff ff 	lea    -0x1a18(%rbp),%rax
    fc42:	48 89 85 70 f7 ff ff 	mov    %rax,-0x890(%rbp)
    fc49:	48 8d 85 e8 e5 ff ff 	lea    -0x1a18(%rbp),%rax
    fc50:	48 89 85 78 f7 ff ff 	mov    %rax,-0x888(%rbp)
    fc57:	48 8d 85 e8 e5 ff ff 	lea    -0x1a18(%rbp),%rax
    fc5e:	48 89 85 80 f7 ff ff 	mov    %rax,-0x880(%rbp)
    fc65:	48 8d 05 7c e5 00 00 	lea    0xe57c(%rip),%rax        # 1e1e8 <g_174>
    fc6c:	48 89 85 88 f7 ff ff 	mov    %rax,-0x878(%rbp)
    fc73:	48 8d 85 e8 e5 ff ff 	lea    -0x1a18(%rbp),%rax
    fc7a:	48 89 85 90 f7 ff ff 	mov    %rax,-0x870(%rbp)
    fc81:	48 8d 85 e8 e5 ff ff 	lea    -0x1a18(%rbp),%rax
    fc88:	48 89 85 98 f7 ff ff 	mov    %rax,-0x868(%rbp)
    fc8f:	48 8d 05 52 e5 00 00 	lea    0xe552(%rip),%rax        # 1e1e8 <g_174>
    fc96:	48 89 85 a0 f7 ff ff 	mov    %rax,-0x860(%rbp)
    fc9d:	48 8d 05 44 e5 00 00 	lea    0xe544(%rip),%rax        # 1e1e8 <g_174>
    fca4:	48 89 85 a8 f7 ff ff 	mov    %rax,-0x858(%rbp)
    fcab:	48 c7 85 b0 f7 ff ff 	movq   $0x0,-0x850(%rbp)
    fcb2:	00 00 00 00 
    fcb6:	48 8d 05 2b e5 00 00 	lea    0xe52b(%rip),%rax        # 1e1e8 <g_174>
    fcbd:	48 89 85 b8 f7 ff ff 	mov    %rax,-0x848(%rbp)
    fcc4:	48 8d 85 e0 ef ff ff 	lea    -0x1020(%rbp),%rax
    fccb:	48 05 40 06 00 00    	add    $0x640,%rax
    fcd1:	48 89 85 10 e6 ff ff 	mov    %rax,-0x19f0(%rbp)
    fcd8:	48 8d 85 10 e6 ff ff 	lea    -0x19f0(%rbp),%rax
    fcdf:	48 89 85 70 e6 ff ff 	mov    %rax,-0x1990(%rbp)
    fce6:	c7 85 a8 e5 ff ff 00 	movl   $0x0,-0x1a58(%rbp)
    fced:	00 00 00 
    fcf0:	eb 1e                	jmp    fd10 <func_40+0x168c>
    fcf2:	8b 85 a8 e5 ff ff    	mov    -0x1a58(%rbp),%eax
    fcf8:	48 98                	cltq   
    fcfa:	48 8d 15 07 e5 00 00 	lea    0xe507(%rip),%rdx        # 1e208 <g_196+0x8>
    fd01:	48 89 94 c5 70 e7 ff 	mov    %rdx,-0x1890(%rbp,%rax,8)
    fd08:	ff 
    fd09:	83 85 a8 e5 ff ff 01 	addl   $0x1,-0x1a58(%rbp)
    fd10:	83 bd a8 e5 ff ff 02 	cmpl   $0x2,-0x1a58(%rbp)
    fd17:	7e d9                	jle    fcf2 <func_40+0x166e>
    fd19:	c7 85 a8 e5 ff ff 00 	movl   $0x0,-0x1a58(%rbp)
    fd20:	00 00 00 
    fd23:	eb 1a                	jmp    fd3f <func_40+0x16bb>
    fd25:	8b 85 a8 e5 ff ff    	mov    -0x1a58(%rbp),%eax
    fd2b:	48 98                	cltq   
    fd2d:	c7 84 85 90 e7 ff ff 	movl   $0xfffffff8,-0x1870(%rbp,%rax,4)
    fd34:	f8 ff ff ff 
    fd38:	83 85 a8 e5 ff ff 01 	addl   $0x1,-0x1a58(%rbp)
    fd3f:	83 bd a8 e5 ff ff 05 	cmpl   $0x5,-0x1a58(%rbp)
    fd46:	7e dd                	jle    fd25 <func_40+0x16a1>
    fd48:	80 bd 97 e5 ff ff 00 	cmpb   $0x0,-0x1a69(%rbp)
    fd4f:	74 48                	je     fd99 <func_40+0x1715>
    fd51:	48 8b 05 38 fb 00 00 	mov    0xfb38(%rip),%rax        # 1f890 <g_1050>
    fd58:	48 8b 00             	mov    (%rax),%rax
    fd5b:	48 8b 00             	mov    (%rax),%rax
    fd5e:	48 8b 00             	mov    (%rax),%rax
    fd61:	48 8b 10             	mov    (%rax),%rdx
    fd64:	0f b6 85 84 e5 ff ff 	movzbl -0x1a7c(%rbp),%eax
    fd6b:	48 09 d0             	or     %rdx,%rax
    fd6e:	09 85 c0 e5 ff ff    	or     %eax,-0x1a40(%rbp)
    fd74:	8b 85 c0 e5 ff ff    	mov    -0x1a40(%rbp),%eax
    fd7a:	0f bf d0             	movswl %ax,%edx
    fd7d:	0f b6 85 84 e5 ff ff 	movzbl -0x1a7c(%rbp),%eax
    fd84:	89 d6                	mov    %edx,%esi
    fd86:	89 c7                	mov    %eax,%edi
    fd88:	e8 68 66 ff ff       	callq  63f5 <safe_mul_func_int16_t_s_s>
    fd8d:	66 85 c0             	test   %ax,%ax
    fd90:	74 07                	je     fd99 <func_40+0x1715>
    fd92:	b8 01 00 00 00       	mov    $0x1,%eax
    fd97:	eb 05                	jmp    fd9e <func_40+0x171a>
    fd99:	b8 00 00 00 00       	mov    $0x0,%eax
    fd9e:	89 85 a0 e7 ff ff    	mov    %eax,-0x1860(%rbp)
    fda4:	8b 85 a0 e7 ff ff    	mov    -0x1860(%rbp),%eax
    fdaa:	89 85 c4 e5 ff ff    	mov    %eax,-0x1a3c(%rbp)
    fdb0:	83 bd c4 e5 ff ff 00 	cmpl   $0x0,-0x1a3c(%rbp)
    fdb7:	0f 84 4d 02 00 00    	je     1000a <func_40+0x1986>
    fdbd:	48 8d 05 6c 0e 01 00 	lea    0x10e6c(%rip),%rax        # 20c30 <g_532>
    fdc4:	48 89 85 c8 e6 ff ff 	mov    %rax,-0x1938(%rbp)
    fdcb:	48 8d 05 76 e4 00 00 	lea    0xe476(%rip),%rax        # 1e248 <g_223>
    fdd2:	48 89 85 d0 e6 ff ff 	mov    %rax,-0x1930(%rbp)
    fdd9:	c7 85 d0 e5 ff ff ff 	movl   $0xffffffff,-0x1a30(%rbp)
    fde0:	ff ff ff 
    fde3:	48 c7 85 28 e6 ff ff 	movq   $0x0,-0x19d8(%rbp)
    fdea:	00 00 00 00 
    fdee:	48 8d 85 28 e6 ff ff 	lea    -0x19d8(%rbp),%rax
    fdf5:	48 89 85 d8 e6 ff ff 	mov    %rax,-0x1928(%rbp)
    fdfc:	48 8d 85 f0 e5 ff ff 	lea    -0x1a10(%rbp),%rax
    fe03:	48 89 85 e0 e6 ff ff 	mov    %rax,-0x1920(%rbp)
    fe0a:	48 8d 05 1f fa 00 00 	lea    0xfa1f(%rip),%rax        # 1f830 <g_984>
    fe11:	48 89 85 e8 e6 ff ff 	mov    %rax,-0x1918(%rbp)
    fe18:	0f b6 9d 84 e5 ff ff 	movzbl -0x1a7c(%rbp),%ebx
    fe1f:	48 8b 85 e8 e5 ff ff 	mov    -0x1a18(%rbp),%rax
    fe26:	44 0f be e0          	movsbl %al,%r12d
    fe2a:	0f b7 05 8f e4 00 00 	movzwl 0xe48f(%rip),%eax        # 1e2c0 <g_642>
    fe31:	0f b7 d0             	movzwl %ax,%edx
    fe34:	48 8b 85 d0 e6 ff ff 	mov    -0x1930(%rbp),%rax
    fe3b:	8b 00                	mov    (%rax),%eax
    fe3d:	8d 48 01             	lea    0x1(%rax),%ecx
    fe40:	48 8b 85 d0 e6 ff ff 	mov    -0x1930(%rbp),%rax
    fe47:	89 08                	mov    %ecx,(%rax)
    fe49:	48 8b 85 d0 e6 ff ff 	mov    -0x1930(%rbp),%rax
    fe50:	8b 00                	mov    (%rax),%eax
    fe52:	39 c2                	cmp    %eax,%edx
    fe54:	0f 92 c0             	setb   %al
    fe57:	44 0f b6 f8          	movzbl %al,%r15d
    fe5b:	8b 85 08 e6 ff ff    	mov    -0x19f8(%rbp),%eax
    fe61:	44 0f b6 e8          	movzbl %al,%r13d
    fe65:	8b 85 80 e5 ff ff    	mov    -0x1a80(%rbp),%eax
    fe6b:	44 0f b6 f0          	movzbl %al,%r14d
    fe6f:	0f b6 85 84 e5 ff ff 	movzbl -0x1a7c(%rbp),%eax
    fe76:	0f be d0             	movsbl %al,%edx
    fe79:	8b 85 08 e6 ff ff    	mov    -0x19f8(%rbp),%eax
    fe7f:	85 c0                	test   %eax,%eax
    fe81:	0f 94 c0             	sete   %al
    fe84:	0f b6 c0             	movzbl %al,%eax
    fe87:	89 d6                	mov    %edx,%esi
    fe89:	89 c7                	mov    %eax,%edi
    fe8b:	e8 a1 63 ff ff       	callq  6231 <safe_mod_func_int8_t_s_s>
    fe90:	66 0f be d0          	movsbw %al,%dx
    fe94:	0f b6 85 97 e5 ff ff 	movzbl -0x1a69(%rbp),%eax
    fe9b:	21 d0                	and    %edx,%eax
    fe9d:	98                   	cwtl   
    fe9e:	be 0d 00 00 00       	mov    $0xd,%esi
    fea3:	89 c7                	mov    %eax,%edi
    fea5:	e8 e8 65 ff ff       	callq  6492 <safe_lshift_func_int16_t_s_s>
    feaa:	8b 85 80 e5 ff ff    	mov    -0x1a80(%rbp),%eax
    feb0:	0f b6 c0             	movzbl %al,%eax
    feb3:	44 89 f6             	mov    %r14d,%esi
    feb6:	89 c7                	mov    %eax,%edi
    feb8:	e8 9d 6c ff ff       	callq  6b5a <safe_add_func_uint8_t_u_u>
    febd:	0f b6 c0             	movzbl %al,%eax
    fec0:	8b 95 80 e5 ff ff    	mov    -0x1a80(%rbp),%edx
    fec6:	89 d6                	mov    %edx,%esi
    fec8:	89 c7                	mov    %eax,%edi
    feca:	e8 37 6f ff ff       	callq  6e06 <safe_lshift_func_uint16_t_u_u>
    fecf:	0f b6 c0             	movzbl %al,%eax
    fed2:	44 89 ee             	mov    %r13d,%esi
    fed5:	89 c7                	mov    %eax,%edi
    fed7:	e8 ff 6c ff ff       	callq  6bdb <safe_div_func_uint8_t_u_u>
    fedc:	0f b6 c0             	movzbl %al,%eax
    fedf:	be f9 ff ff ff       	mov    $0xfffffff9,%esi
    fee4:	89 c7                	mov    %eax,%edi
    fee6:	e8 cb 66 ff ff       	callq  65b6 <safe_add_func_int32_t_s_s>
    feeb:	0f b6 c0             	movzbl %al,%eax
    feee:	be 02 00 00 00       	mov    $0x2,%esi
    fef3:	89 c7                	mov    %eax,%edi
    fef5:	e8 93 6d ff ff       	callq  6c8d <safe_rshift_func_uint8_t_u_s>
    fefa:	0f b6 c0             	movzbl %al,%eax
    fefd:	41 39 c7             	cmp    %eax,%r15d
    ff00:	0f 94 c0             	sete   %al
    ff03:	0f b6 c0             	movzbl %al,%eax
    ff06:	be 02 00 00 00       	mov    $0x2,%esi
    ff0b:	89 c7                	mov    %eax,%edi
    ff0d:	e8 3a 6d ff ff       	callq  6c4c <safe_lshift_func_uint8_t_u_u>
    ff12:	0f b6 95 84 e5 ff ff 	movzbl -0x1a7c(%rbp),%edx
    ff19:	8b 85 98 e7 ff ff    	mov    -0x1868(%rbp),%eax
    ff1f:	21 d0                	and    %edx,%eax
    ff21:	89 85 d0 e5 ff ff    	mov    %eax,-0x1a30(%rbp)
    ff27:	44 89 e6             	mov    %r12d,%esi
    ff2a:	bf 01 00 00 00       	mov    $0x1,%edi
    ff2f:	e8 a0 62 ff ff       	callq  61d4 <safe_add_func_int8_t_s_s>
    ff34:	be 01 00 00 00       	mov    $0x1,%esi
    ff39:	bf f6 ff ff ff       	mov    $0xfffffff6,%edi
    ff3e:	e8 e2 6f ff ff       	callq  6f25 <safe_div_func_uint32_t_u_u>
    ff43:	0f b7 c0             	movzwl %ax,%eax
    ff46:	be 09 00 00 00       	mov    $0x9,%esi
    ff4b:	89 c7                	mov    %eax,%edi
    ff4d:	e8 f6 6e ff ff       	callq  6e48 <safe_rshift_func_uint16_t_u_s>
    ff52:	66 89 85 5e e7 ff ff 	mov    %ax,-0x18a2(%rbp)
    ff59:	0f b7 85 5e e7 ff ff 	movzwl -0x18a2(%rbp),%eax
    ff60:	0f b7 c0             	movzwl %ax,%eax
    ff63:	48 89 de             	mov    %rbx,%rsi
    ff66:	48 89 c7             	mov    %rax,%rdi
    ff69:	e8 46 6a ff ff       	callq  69b4 <safe_mod_func_int64_t_s_s>
    ff6e:	48 85 c0             	test   %rax,%rax
    ff71:	74 2f                	je     ffa2 <func_40+0x191e>
    ff73:	48 8d 05 fe f7 00 00 	lea    0xf7fe(%rip),%rax        # 1f778 <g_369>
    ff7a:	48 89 85 30 e6 ff ff 	mov    %rax,-0x19d0(%rbp)
    ff81:	48 8d 85 30 e6 ff ff 	lea    -0x19d0(%rbp),%rax
    ff88:	48 89 85 f0 e6 ff ff 	mov    %rax,-0x1910(%rbp)
    ff8f:	48 8b 95 30 e6 ff ff 	mov    -0x19d0(%rbp),%rdx
    ff96:	48 8b 85 f0 e6 ff ff 	mov    -0x1910(%rbp),%rax
    ff9d:	48 89 10             	mov    %rdx,(%rax)
    ffa0:	eb 0e                	jmp    ffb0 <func_40+0x192c>
    ffa2:	48 8d 85 9c e5 ff ff 	lea    -0x1a64(%rbp),%rax
    ffa9:	48 89 85 38 e6 ff ff 	mov    %rax,-0x19c8(%rbp)
    ffb0:	48 8b 05 d9 f7 00 00 	mov    0xf7d9(%rip),%rax        # 1f790 <g_554>
    ffb7:	48 8b 00             	mov    (%rax),%rax
    ffba:	8b 08                	mov    (%rax),%ecx
    ffbc:	48 8d 15 bd f7 00 00 	lea    0xf7bd(%rip),%rdx        # 1f780 <g_368>
    ffc3:	48 39 95 d8 e6 ff ff 	cmp    %rdx,-0x1928(%rbp)
    ffca:	0f 95 c2             	setne  %dl
    ffcd:	0f b6 d2             	movzbl %dl,%edx
    ffd0:	09 ca                	or     %ecx,%edx
    ffd2:	89 10                	mov    %edx,(%rax)
    ffd4:	48 8b 95 f0 e5 ff ff 	mov    -0x1a10(%rbp),%rdx
    ffdb:	48 8b 85 e0 e6 ff ff 	mov    -0x1920(%rbp),%rax
    ffe2:	48 89 10             	mov    %rdx,(%rax)
    ffe5:	48 8b 85 e0 e6 ff ff 	mov    -0x1920(%rbp),%rax
    ffec:	48 8b 00             	mov    (%rax),%rax
    ffef:	48 39 85 e8 e6 ff ff 	cmp    %rax,-0x1918(%rbp)
    fff6:	0f 95 c0             	setne  %al
    fff9:	0f b6 d0             	movzbl %al,%edx
    fffc:	48 8b 85 38 e6 ff ff 	mov    -0x19c8(%rbp),%rax
   10003:	89 10                	mov    %edx,(%rax)
   10005:	e9 66 0e 00 00       	jmpq   10e70 <func_40+0x27ec>
   1000a:	48 c7 85 78 e6 ff ff 	movq   $0x0,-0x1988(%rbp)
   10011:	00 00 00 00 
   10015:	48 8d 85 e0 ec ff ff 	lea    -0x1320(%rbp),%rax
   1001c:	48 8d 15 9d ae 00 00 	lea    0xae9d(%rip),%rdx        # 1aec0 <g_2104+0xb44>
   10023:	b9 5e 00 00 00       	mov    $0x5e,%ecx
   10028:	48 89 c7             	mov    %rax,%rdi
   1002b:	48 89 d6             	mov    %rdx,%rsi
   1002e:	f3 48 a5             	rep movsq %ds:(%rsi),%es:(%rdi)
   10031:	48 89 f2             	mov    %rsi,%rdx
   10034:	48 89 f8             	mov    %rdi,%rax
   10037:	8b 0a                	mov    (%rdx),%ecx
   10039:	89 08                	mov    %ecx,(%rax)
   1003b:	48 8d 40 04          	lea    0x4(%rax),%rax
   1003f:	48 8d 52 04          	lea    0x4(%rdx),%rdx
   10043:	48 8d 05 ce e2 00 00 	lea    0xe2ce(%rip),%rax        # 1e318 <g_1032>
   1004a:	48 89 85 18 e6 ff ff 	mov    %rax,-0x19e8(%rbp)
   10051:	48 8d 05 98 e2 00 00 	lea    0xe298(%rip),%rax        # 1e2f0 <g_809+0x10>
   10058:	48 89 85 80 e6 ff ff 	mov    %rax,-0x1980(%rbp)
   1005f:	48 8d 85 18 e6 ff ff 	lea    -0x19e8(%rbp),%rax
   10066:	48 89 85 20 e6 ff ff 	mov    %rax,-0x19e0(%rbp)
   1006d:	c7 85 b0 e5 ff ff 00 	movl   $0x0,-0x1a50(%rbp)
   10074:	00 00 00 
   10077:	eb 1b                	jmp    10094 <func_40+0x1a10>
   10079:	8b 85 b0 e5 ff ff    	mov    -0x1a50(%rbp),%eax
   1007f:	48 98                	cltq   
   10081:	48 c7 84 c5 40 e7 ff 	movq   $0x0,-0x18c0(%rbp,%rax,8)
   10088:	ff 00 00 00 00 
   1008d:	83 85 b0 e5 ff ff 01 	addl   $0x1,-0x1a50(%rbp)
   10094:	83 bd b0 e5 ff ff 01 	cmpl   $0x1,-0x1a50(%rbp)
   1009b:	7e dc                	jle    10079 <func_40+0x19f5>
   1009d:	c7 85 b0 e5 ff ff 00 	movl   $0x0,-0x1a50(%rbp)
   100a4:	00 00 00 
   100a7:	eb 1e                	jmp    100c7 <func_40+0x1a43>
   100a9:	8b 85 b0 e5 ff ff    	mov    -0x1a50(%rbp),%eax
   100af:	48 98                	cltq   
   100b1:	48 8d 95 20 e6 ff ff 	lea    -0x19e0(%rbp),%rdx
   100b8:	48 89 94 c5 b0 e7 ff 	mov    %rdx,-0x1850(%rbp,%rax,8)
   100bf:	ff 
   100c0:	83 85 b0 e5 ff ff 01 	addl   $0x1,-0x1a50(%rbp)
   100c7:	83 bd b0 e5 ff ff 03 	cmpl   $0x3,-0x1a50(%rbp)
   100ce:	7e d9                	jle    100a9 <func_40+0x1a25>
   100d0:	c7 85 9c e5 ff ff 09 	movl   $0x9,-0x1a64(%rbp)
   100d7:	00 00 00 
   100da:	e9 82 0d 00 00       	jmpq   10e61 <func_40+0x27dd>
   100df:	48 c7 85 a0 e8 ff ff 	movq   $0x0,-0x1760(%rbp)
   100e6:	00 00 00 00 
   100ea:	48 8d 05 43 e1 00 00 	lea    0xe143(%rip),%rax        # 1e234 <g_198+0x14>
   100f1:	48 89 85 a8 e8 ff ff 	mov    %rax,-0x1758(%rbp)
   100f8:	48 8d 05 2b e1 00 00 	lea    0xe12b(%rip),%rax        # 1e22a <g_198+0xa>
   100ff:	48 89 85 b0 e8 ff ff 	mov    %rax,-0x1750(%rbp)
   10106:	48 8d 85 50 e7 ff ff 	lea    -0x18b0(%rbp),%rax
   1010d:	48 83 c0 0e          	add    $0xe,%rax
   10111:	48 89 85 b8 e8 ff ff 	mov    %rax,-0x1748(%rbp)
   10118:	48 8d 05 ed e0 00 00 	lea    0xe0ed(%rip),%rax        # 1e20c <g_196+0xc>
   1011f:	48 89 85 c0 e8 ff ff 	mov    %rax,-0x1740(%rbp)
   10126:	48 8d 05 07 e1 00 00 	lea    0xe107(%rip),%rax        # 1e234 <g_198+0x14>
   1012d:	48 89 85 c8 e8 ff ff 	mov    %rax,-0x1738(%rbp)
   10134:	48 8d 05 d1 e0 00 00 	lea    0xe0d1(%rip),%rax        # 1e20c <g_196+0xc>
   1013b:	48 89 85 d0 e8 ff ff 	mov    %rax,-0x1730(%rbp)
   10142:	48 8d 05 ef e0 00 00 	lea    0xe0ef(%rip),%rax        # 1e238 <g_198+0x18>
   10149:	48 89 85 d8 e8 ff ff 	mov    %rax,-0x1728(%rbp)
   10150:	48 8d 05 dd e0 00 00 	lea    0xe0dd(%rip),%rax        # 1e234 <g_198+0x14>
   10157:	48 89 85 e0 e8 ff ff 	mov    %rax,-0x1720(%rbp)
   1015e:	48 8d 05 d1 e0 00 00 	lea    0xe0d1(%rip),%rax        # 1e236 <g_198+0x16>
   10165:	48 89 85 e8 e8 ff ff 	mov    %rax,-0x1718(%rbp)
   1016c:	48 c7 85 f0 e8 ff ff 	movq   $0x0,-0x1710(%rbp)
   10173:	00 00 00 00 
   10177:	48 8d 85 50 e7 ff ff 	lea    -0x18b0(%rbp),%rax
   1017e:	48 83 c0 0e          	add    $0xe,%rax
   10182:	48 89 85 f8 e8 ff ff 	mov    %rax,-0x1708(%rbp)
   10189:	48 8d 85 50 e7 ff ff 	lea    -0x18b0(%rbp),%rax
   10190:	48 83 c0 0e          	add    $0xe,%rax
   10194:	48 89 85 00 e9 ff ff 	mov    %rax,-0x1700(%rbp)
   1019b:	48 8d 85 50 e7 ff ff 	lea    -0x18b0(%rbp),%rax
   101a2:	48 83 c0 0e          	add    $0xe,%rax
   101a6:	48 89 85 08 e9 ff ff 	mov    %rax,-0x16f8(%rbp)
   101ad:	48 c7 85 10 e9 ff ff 	movq   $0x0,-0x16f0(%rbp)
   101b4:	00 00 00 00 
   101b8:	48 8d 05 77 e0 00 00 	lea    0xe077(%rip),%rax        # 1e236 <g_198+0x16>
   101bf:	48 89 85 18 e9 ff ff 	mov    %rax,-0x16e8(%rbp)
   101c6:	48 c7 85 20 e9 ff ff 	movq   $0x0,-0x16e0(%rbp)
   101cd:	00 00 00 00 
   101d1:	48 c7 85 28 e9 ff ff 	movq   $0x0,-0x16d8(%rbp)
   101d8:	00 00 00 00 
   101dc:	48 c7 85 30 e9 ff ff 	movq   $0x0,-0x16d0(%rbp)
   101e3:	00 00 00 00 
   101e7:	48 c7 85 38 e9 ff ff 	movq   $0x0,-0x16c8(%rbp)
   101ee:	00 00 00 00 
   101f2:	48 8d 85 50 e7 ff ff 	lea    -0x18b0(%rbp),%rax
   101f9:	48 83 c0 0e          	add    $0xe,%rax
   101fd:	48 89 85 40 e9 ff ff 	mov    %rax,-0x16c0(%rbp)
   10204:	48 8d 05 2d e0 00 00 	lea    0xe02d(%rip),%rax        # 1e238 <g_198+0x18>
   1020b:	48 89 85 48 e9 ff ff 	mov    %rax,-0x16b8(%rbp)
   10212:	48 c7 85 50 e9 ff ff 	movq   $0x0,-0x16b0(%rbp)
   10219:	00 00 00 00 
   1021d:	48 8d 05 e8 df 00 00 	lea    0xdfe8(%rip),%rax        # 1e20c <g_196+0xc>
   10224:	48 89 85 58 e9 ff ff 	mov    %rax,-0x16a8(%rbp)
   1022b:	48 8d 05 02 e0 00 00 	lea    0xe002(%rip),%rax        # 1e234 <g_198+0x14>
   10232:	48 89 85 60 e9 ff ff 	mov    %rax,-0x16a0(%rbp)
   10239:	48 8d 85 50 e7 ff ff 	lea    -0x18b0(%rbp),%rax
   10240:	48 83 c0 04          	add    $0x4,%rax
   10244:	48 89 85 68 e9 ff ff 	mov    %rax,-0x1698(%rbp)
   1024b:	48 8d 05 ba df 00 00 	lea    0xdfba(%rip),%rax        # 1e20c <g_196+0xc>
   10252:	48 89 85 70 e9 ff ff 	mov    %rax,-0x1690(%rbp)
   10259:	48 8d 05 b0 df 00 00 	lea    0xdfb0(%rip),%rax        # 1e210 <g_196+0x10>
   10260:	48 89 85 78 e9 ff ff 	mov    %rax,-0x1688(%rbp)
   10267:	48 8d 05 9e df 00 00 	lea    0xdf9e(%rip),%rax        # 1e20c <g_196+0xc>
   1026e:	48 89 85 80 e9 ff ff 	mov    %rax,-0x1680(%rbp)
   10275:	48 8d 05 94 df 00 00 	lea    0xdf94(%rip),%rax        # 1e210 <g_196+0x10>
   1027c:	48 89 85 88 e9 ff ff 	mov    %rax,-0x1678(%rbp)
   10283:	48 8d 05 a0 df 00 00 	lea    0xdfa0(%rip),%rax        # 1e22a <g_198+0xa>
   1028a:	48 89 85 90 e9 ff ff 	mov    %rax,-0x1670(%rbp)
   10291:	48 8d 05 78 df 00 00 	lea    0xdf78(%rip),%rax        # 1e210 <g_196+0x10>
   10298:	48 89 85 98 e9 ff ff 	mov    %rax,-0x1668(%rbp)
   1029f:	48 c7 85 a0 e9 ff ff 	movq   $0x0,-0x1660(%rbp)
   102a6:	00 00 00 00 
   102aa:	48 8d 85 50 e7 ff ff 	lea    -0x18b0(%rbp),%rax
   102b1:	48 83 c0 04          	add    $0x4,%rax
   102b5:	48 89 85 a8 e9 ff ff 	mov    %rax,-0x1658(%rbp)
   102bc:	48 8d 85 50 e7 ff ff 	lea    -0x18b0(%rbp),%rax
   102c3:	48 83 c0 0e          	add    $0xe,%rax
   102c7:	48 89 85 b0 e9 ff ff 	mov    %rax,-0x1650(%rbp)
   102ce:	48 8d 05 37 df 00 00 	lea    0xdf37(%rip),%rax        # 1e20c <g_196+0xc>
   102d5:	48 89 85 b8 e9 ff ff 	mov    %rax,-0x1648(%rbp)
   102dc:	48 8d 85 50 e7 ff ff 	lea    -0x18b0(%rbp),%rax
   102e3:	48 83 c0 06          	add    $0x6,%rax
   102e7:	48 89 85 c0 e9 ff ff 	mov    %rax,-0x1640(%rbp)
   102ee:	48 8d 05 43 df 00 00 	lea    0xdf43(%rip),%rax        # 1e238 <g_198+0x18>
   102f5:	48 89 85 c8 e9 ff ff 	mov    %rax,-0x1638(%rbp)
   102fc:	48 8d 05 0d df 00 00 	lea    0xdf0d(%rip),%rax        # 1e210 <g_196+0x10>
   10303:	48 89 85 d0 e9 ff ff 	mov    %rax,-0x1630(%rbp)
   1030a:	48 c7 85 d8 e9 ff ff 	movq   $0x0,-0x1628(%rbp)
   10311:	00 00 00 00 
   10315:	48 8d 85 50 e7 ff ff 	lea    -0x18b0(%rbp),%rax
   1031c:	48 83 c0 0e          	add    $0xe,%rax
   10320:	48 89 85 e0 e9 ff ff 	mov    %rax,-0x1620(%rbp)
   10327:	48 c7 85 e8 e9 ff ff 	movq   $0x0,-0x1618(%rbp)
   1032e:	00 00 00 00 
   10332:	48 8d 05 fd de 00 00 	lea    0xdefd(%rip),%rax        # 1e236 <g_198+0x16>
   10339:	48 89 85 f0 e9 ff ff 	mov    %rax,-0x1610(%rbp)
   10340:	48 8d 05 ef de 00 00 	lea    0xdeef(%rip),%rax        # 1e236 <g_198+0x16>
   10347:	48 89 85 f8 e9 ff ff 	mov    %rax,-0x1608(%rbp)
   1034e:	48 8d 85 50 e7 ff ff 	lea    -0x18b0(%rbp),%rax
   10355:	48 83 c0 0e          	add    $0xe,%rax
   10359:	48 89 85 00 ea ff ff 	mov    %rax,-0x1600(%rbp)
   10360:	48 8d 85 50 e7 ff ff 	lea    -0x18b0(%rbp),%rax
   10367:	48 83 c0 0e          	add    $0xe,%rax
   1036b:	48 89 85 08 ea ff ff 	mov    %rax,-0x15f8(%rbp)
   10372:	48 8d 05 97 de 00 00 	lea    0xde97(%rip),%rax        # 1e210 <g_196+0x10>
   10379:	48 89 85 10 ea ff ff 	mov    %rax,-0x15f0(%rbp)
   10380:	48 8d 85 50 e7 ff ff 	lea    -0x18b0(%rbp),%rax
   10387:	48 83 c0 0e          	add    $0xe,%rax
   1038b:	48 89 85 18 ea ff ff 	mov    %rax,-0x15e8(%rbp)
   10392:	48 8d 85 50 e7 ff ff 	lea    -0x18b0(%rbp),%rax
   10399:	48 83 c0 06          	add    $0x6,%rax
   1039d:	48 89 85 20 ea ff ff 	mov    %rax,-0x15e0(%rbp)
   103a4:	48 8d 05 8b de 00 00 	lea    0xde8b(%rip),%rax        # 1e236 <g_198+0x16>
   103ab:	48 89 85 28 ea ff ff 	mov    %rax,-0x15d8(%rbp)
   103b2:	48 8d 85 50 e7 ff ff 	lea    -0x18b0(%rbp),%rax
   103b9:	48 83 c0 0e          	add    $0xe,%rax
   103bd:	48 89 85 30 ea ff ff 	mov    %rax,-0x15d0(%rbp)
   103c4:	48 8d 05 6d de 00 00 	lea    0xde6d(%rip),%rax        # 1e238 <g_198+0x18>
   103cb:	48 89 85 38 ea ff ff 	mov    %rax,-0x15c8(%rbp)
   103d2:	48 c7 85 40 ea ff ff 	movq   $0x0,-0x15c0(%rbp)
   103d9:	00 00 00 00 
   103dd:	48 8d 05 50 de 00 00 	lea    0xde50(%rip),%rax        # 1e234 <g_198+0x14>
   103e4:	48 89 85 48 ea ff ff 	mov    %rax,-0x15b8(%rbp)
   103eb:	48 8d 05 38 de 00 00 	lea    0xde38(%rip),%rax        # 1e22a <g_198+0xa>
   103f2:	48 89 85 50 ea ff ff 	mov    %rax,-0x15b0(%rbp)
   103f9:	48 8d 85 50 e7 ff ff 	lea    -0x18b0(%rbp),%rax
   10400:	48 83 c0 0e          	add    $0xe,%rax
   10404:	48 89 85 58 ea ff ff 	mov    %rax,-0x15a8(%rbp)
   1040b:	48 8d 05 6e f3 00 00 	lea    0xf36e(%rip),%rax        # 1f780 <g_368>
   10412:	48 89 85 d0 e7 ff ff 	mov    %rax,-0x1830(%rbp)
   10419:	48 8d 05 60 f3 00 00 	lea    0xf360(%rip),%rax        # 1f780 <g_368>
   10420:	48 89 85 d8 e7 ff ff 	mov    %rax,-0x1828(%rbp)
   10427:	48 8d 05 52 f3 00 00 	lea    0xf352(%rip),%rax        # 1f780 <g_368>
   1042e:	48 89 85 e0 e7 ff ff 	mov    %rax,-0x1820(%rbp)
   10435:	48 8d 05 44 f3 00 00 	lea    0xf344(%rip),%rax        # 1f780 <g_368>
   1043c:	48 89 85 e8 e7 ff ff 	mov    %rax,-0x1818(%rbp)
   10443:	48 8d 05 36 f3 00 00 	lea    0xf336(%rip),%rax        # 1f780 <g_368>
   1044a:	48 89 85 f0 e7 ff ff 	mov    %rax,-0x1810(%rbp)
   10451:	48 8d 05 28 f3 00 00 	lea    0xf328(%rip),%rax        # 1f780 <g_368>
   10458:	48 89 85 f8 e7 ff ff 	mov    %rax,-0x1808(%rbp)
   1045f:	48 8d 05 1a f3 00 00 	lea    0xf31a(%rip),%rax        # 1f780 <g_368>
   10466:	48 89 85 00 e8 ff ff 	mov    %rax,-0x1800(%rbp)
   1046d:	48 8d 05 0c f3 00 00 	lea    0xf30c(%rip),%rax        # 1f780 <g_368>
   10474:	48 89 85 08 e8 ff ff 	mov    %rax,-0x17f8(%rbp)
   1047b:	48 8d 05 fe f2 00 00 	lea    0xf2fe(%rip),%rax        # 1f780 <g_368>
   10482:	48 89 85 10 e8 ff ff 	mov    %rax,-0x17f0(%rbp)
   10489:	48 8d 05 f0 f2 00 00 	lea    0xf2f0(%rip),%rax        # 1f780 <g_368>
   10490:	48 89 85 18 e8 ff ff 	mov    %rax,-0x17e8(%rbp)
   10497:	48 8d 85 b0 e7 ff ff 	lea    -0x1850(%rbp),%rax
   1049e:	48 83 c0 08          	add    $0x8,%rax
   104a2:	48 89 85 88 e6 ff ff 	mov    %rax,-0x1978(%rbp)
   104a9:	48 8d 85 20 e6 ff ff 	lea    -0x19e0(%rbp),%rax
   104b0:	48 89 85 28 e6 ff ff 	mov    %rax,-0x19d8(%rbp)
   104b7:	48 8d 85 28 e6 ff ff 	lea    -0x19d8(%rbp),%rax
   104be:	48 89 85 90 e6 ff ff 	mov    %rax,-0x1970(%rbp)
   104c5:	c7 85 b4 e5 ff ff 00 	movl   $0x0,-0x1a4c(%rbp)
   104cc:	00 00 00 
   104cf:	eb 45                	jmp    10516 <func_40+0x1e92>
   104d1:	c7 85 b8 e5 ff ff 00 	movl   $0x0,-0x1a48(%rbp)
   104d8:	00 00 00 
   104db:	eb 29                	jmp    10506 <func_40+0x1e82>
   104dd:	8b 85 b8 e5 ff ff    	mov    -0x1a48(%rbp),%eax
   104e3:	48 98                	cltq   
   104e5:	8b 95 b4 e5 ff ff    	mov    -0x1a4c(%rbp),%edx
   104eb:	48 63 d2             	movslq %edx,%rdx
   104ee:	48 01 d2             	add    %rdx,%rdx
   104f1:	48 01 d0             	add    %rdx,%rax
   104f4:	c7 84 85 28 e7 ff ff 	movl   $0x1,-0x18d8(%rbp,%rax,4)
   104fb:	01 00 00 00 
   104ff:	83 85 b8 e5 ff ff 01 	addl   $0x1,-0x1a48(%rbp)
   10506:	83 bd b8 e5 ff ff 01 	cmpl   $0x1,-0x1a48(%rbp)
   1050d:	7e ce                	jle    104dd <func_40+0x1e59>
   1050f:	83 85 b4 e5 ff ff 01 	addl   $0x1,-0x1a4c(%rbp)
   10516:	83 bd b4 e5 ff ff 00 	cmpl   $0x0,-0x1a4c(%rbp)
   1051d:	7e b2                	jle    104d1 <func_40+0x1e4d>
   1051f:	48 8b 05 82 f3 00 00 	mov    0xf382(%rip),%rax        # 1f8a8 <g_1363>
   10526:	48 8b 95 88 e5 ff ff 	mov    -0x1a78(%rbp),%rdx
   1052d:	48 89 10             	mov    %rdx,(%rax)
   10530:	48 c7 85 e8 e5 ff ff 	movq   $0x3,-0x1a18(%rbp)
   10537:	03 00 00 00 
   1053b:	90                   	nop
   1053c:	48 8b 85 e8 e5 ff ff 	mov    -0x1a18(%rbp),%rax
   10543:	48 83 f8 22          	cmp    $0x22,%rax
   10547:	0f 84 b4 00 00 00    	je     10601 <func_40+0x1f7d>
   1054d:	48 c7 05 60 dd 00 00 	movq   $0xfffffffffffffff6,0xdd60(%rip)        # 1e2b8 <g_583>
   10554:	f6 ff ff ff 
   10558:	e9 84 00 00 00       	jmpq   105e1 <func_40+0x1f5d>
   1055d:	48 8d 85 f8 e5 ff ff 	lea    -0x1a08(%rbp),%rax
   10564:	48 89 85 c0 e6 ff ff 	mov    %rax,-0x1940(%rbp)
   1056b:	48 8b 95 f8 e5 ff ff 	mov    -0x1a08(%rbp),%rdx
   10572:	48 8b 85 c0 e6 ff ff 	mov    -0x1940(%rbp),%rax
   10579:	48 89 10             	mov    %rdx,(%rax)
   1057c:	48 8b 85 c0 e6 ff ff 	mov    -0x1940(%rbp),%rax
   10583:	48 8b 10             	mov    (%rax),%rdx
   10586:	48 8d 05 9b dd 00 00 	lea    0xdd9b(%rip),%rax        # 1e328 <g_1151>
   1058d:	48 89 85 40 e7 ff ff 	mov    %rax,-0x18c0(%rbp)
   10594:	48 8b 85 40 e7 ff ff 	mov    -0x18c0(%rbp),%rax
   1059b:	48 39 c2             	cmp    %rax,%rdx
   1059e:	0f 95 c2             	setne  %dl
   105a1:	48 8b 05 f0 f1 00 00 	mov    0xf1f0(%rip),%rax        # 1f798 <g_553>
   105a8:	48 8b 00             	mov    (%rax),%rax
   105ab:	48 8b 00             	mov    (%rax),%rax
   105ae:	0f b6 d2             	movzbl %dl,%edx
   105b1:	89 10                	mov    %edx,(%rax)
   105b3:	48 8b 85 38 e6 ff ff 	mov    -0x19c8(%rbp),%rax
   105ba:	8b 00                	mov    (%rax),%eax
   105bc:	85 c0                	test   %eax,%eax
   105be:	75 34                	jne    105f4 <func_40+0x1f70>
   105c0:	48 8b 05 f1 dc 00 00 	mov    0xdcf1(%rip),%rax        # 1e2b8 <g_583>
   105c7:	0f be c0             	movsbl %al,%eax
   105ca:	be 02 00 00 00       	mov    $0x2,%esi
   105cf:	89 c7                	mov    %eax,%edi
   105d1:	e8 fe 5b ff ff       	callq  61d4 <safe_add_func_int8_t_s_s>
   105d6:	48 0f be c0          	movsbq %al,%rax
   105da:	48 89 05 d7 dc 00 00 	mov    %rax,0xdcd7(%rip)        # 1e2b8 <g_583>
   105e1:	48 8b 05 d0 dc 00 00 	mov    0xdcd0(%rip),%rax        # 1e2b8 <g_583>
   105e8:	48 83 f8 0e          	cmp    $0xe,%rax
   105ec:	0f 8e 6b ff ff ff    	jle    1055d <func_40+0x1ed9>
   105f2:	eb 01                	jmp    105f5 <func_40+0x1f71>
   105f4:	90                   	nop
   105f5:	48 8b 85 88 e5 ff ff 	mov    -0x1a78(%rbp),%rax
   105fc:	e9 d7 09 00 00       	jmpq   10fd8 <func_40+0x2954>
   10601:	48 8b 05 70 f2 00 00 	mov    0xf270(%rip),%rax        # 1f878 <g_1042>
   10608:	8b 05 e2 dc 00 00    	mov    0xdce2(%rip),%eax        # 1e2f0 <g_809+0x10>
   1060e:	83 f8 01             	cmp    $0x1,%eax
   10611:	0f 96 c0             	setbe  %al
   10614:	0f b6 c0             	movzbl %al,%eax
   10617:	89 c6                	mov    %eax,%esi
   10619:	bf d2 25 00 00       	mov    $0x25d2,%edi
   1061e:	e8 be 5e ff ff       	callq  64e1 <safe_lshift_func_int16_t_s_u>
   10623:	66 83 f8 ff          	cmp    $0xffff,%ax
   10627:	7c 12                	jl     1063b <func_40+0x1fb7>
   10629:	80 bd 84 e5 ff ff 00 	cmpb   $0x0,-0x1a7c(%rbp)
   10630:	0f 84 e3 07 00 00    	je     10e19 <func_40+0x2795>
   10636:	e9 35 08 00 00       	jmpq   10e70 <func_40+0x27ec>
   1063b:	48 8d 85 00 e6 ff ff 	lea    -0x1a00(%rbp),%rax
   10642:	48 89 85 98 e6 ff ff 	mov    %rax,-0x1968(%rbp)
   10649:	48 8d 05 80 dc 00 00 	lea    0xdc80(%rip),%rax        # 1e2d0 <g_759>
   10650:	48 89 85 a0 e6 ff ff 	mov    %rax,-0x1960(%rbp)
   10657:	c7 85 c8 e5 ff ff 20 	movl   $0x7df3eb20,-0x1a38(%rbp)
   1065e:	eb f3 7d 
   10661:	c7 85 cc e5 ff ff 2d 	movl   $0x8c25242d,-0x1a34(%rbp)
   10668:	24 25 8c 
   1066b:	48 8d 05 a6 dc 00 00 	lea    0xdca6(%rip),%rax        # 1e318 <g_1032>
   10672:	48 89 85 30 e6 ff ff 	mov    %rax,-0x19d0(%rbp)
   10679:	48 8d 05 e8 9c 00 00 	lea    0x9ce8(%rip),%rax        # 1a368 <g_1412>
   10680:	48 89 85 a8 e6 ff ff 	mov    %rax,-0x1958(%rbp)
   10687:	8b 85 d4 ee ff ff    	mov    -0x112c(%rbp),%eax
   1068d:	0f bf d0             	movswl %ax,%edx
   10690:	48 8d 05 71 db 00 00 	lea    0xdb71(%rip),%rax        # 1e208 <g_196+0x8>
   10697:	48 89 85 80 e9 ff ff 	mov    %rax,-0x1680(%rbp)
   1069e:	48 8b b5 80 e9 ff ff 	mov    -0x1680(%rbp),%rsi
   106a5:	48 8b 8d 00 e6 ff ff 	mov    -0x1a00(%rbp),%rcx
   106ac:	48 8b 85 98 e6 ff ff 	mov    -0x1968(%rbp),%rax
   106b3:	48 89 08             	mov    %rcx,(%rax)
   106b6:	48 8b 85 98 e6 ff ff 	mov    -0x1968(%rbp),%rax
   106bd:	48 8b 00             	mov    (%rax),%rax
   106c0:	48 39 c6             	cmp    %rax,%rsi
   106c3:	0f 95 c0             	setne  %al
   106c6:	0f b6 c8             	movzbl %al,%ecx
   106c9:	48 83 bd 78 e6 ff ff 	cmpq   $0x0,-0x1988(%rbp)
   106d0:	00 
   106d1:	0f 95 c0             	setne  %al
   106d4:	89 c6                	mov    %eax,%esi
   106d6:	48 8b 85 a0 e6 ff ff 	mov    -0x1960(%rbp),%rax
   106dd:	40 88 30             	mov    %sil,(%rax)
   106e0:	48 8b 85 a0 e6 ff ff 	mov    -0x1960(%rbp),%rax
   106e7:	0f b6 00             	movzbl (%rax),%eax
   106ea:	0f b6 f0             	movzbl %al,%esi
   106ed:	8b 85 28 e7 ff ff    	mov    -0x18d8(%rbp),%eax
   106f3:	39 c6                	cmp    %eax,%esi
   106f5:	0f 94 c0             	sete   %al
   106f8:	0f b6 c0             	movzbl %al,%eax
   106fb:	f7 d0                	not    %eax
   106fd:	0b 85 c8 e5 ff ff    	or     -0x1a38(%rbp),%eax
   10703:	39 c1                	cmp    %eax,%ecx
   10705:	0f 9d c0             	setge  %al
   10708:	0f b6 c8             	movzbl %al,%ecx
   1070b:	8b 85 28 e7 ff ff    	mov    -0x18d8(%rbp),%eax
   10711:	39 c1                	cmp    %eax,%ecx
   10713:	0f 9c c1             	setl   %cl
   10716:	48 8b 05 0b f1 00 00 	mov    0xf10b(%rip),%rax        # 1f828 <g_840>
   1071d:	0f b6 c9             	movzbl %cl,%ecx
   10720:	89 08                	mov    %ecx,(%rax)
   10722:	8b 00                	mov    (%rax),%eax
   10724:	85 c0                	test   %eax,%eax
   10726:	0f 95 c0             	setne  %al
   10729:	0f b6 c0             	movzbl %al,%eax
   1072c:	89 d6                	mov    %edx,%esi
   1072e:	89 c7                	mov    %eax,%edi
   10730:	e8 20 5d ff ff       	callq  6455 <safe_div_func_int16_t_s_s>
   10735:	0f bf d0             	movswl %ax,%edx
   10738:	48 8b 85 38 e6 ff ff 	mov    -0x19c8(%rbp),%rax
   1073f:	8b 08                	mov    (%rax),%ecx
   10741:	0f b6 85 84 e5 ff ff 	movzbl -0x1a7c(%rbp),%eax
   10748:	39 c1                	cmp    %eax,%ecx
   1074a:	0f 94 c0             	sete   %al
   1074d:	0f b6 c0             	movzbl %al,%eax
   10750:	89 d6                	mov    %edx,%esi
   10752:	89 c7                	mov    %eax,%edi
   10754:	e8 88 5d ff ff       	callq  64e1 <safe_lshift_func_int16_t_s_u>
   10759:	0f b6 d0             	movzbl %al,%edx
   1075c:	48 8b 05 fd ee 00 00 	mov    0xeefd(%rip),%rax        # 1f660 <g_193>
   10763:	0f b6 00             	movzbl (%rax),%eax
   10766:	0f b6 c0             	movzbl %al,%eax
   10769:	89 d6                	mov    %edx,%esi
   1076b:	89 c7                	mov    %eax,%edi
   1076d:	e8 69 64 ff ff       	callq  6bdb <safe_div_func_uint8_t_u_u>
   10772:	0f b6 c0             	movzbl %al,%eax
   10775:	09 85 cc e5 ff ff    	or     %eax,-0x1a34(%rbp)
   1077b:	0f b6 85 84 e5 ff ff 	movzbl -0x1a7c(%rbp),%eax
   10782:	0b 85 80 e5 ff ff    	or     -0x1a80(%rbp),%eax
   10788:	85 c0                	test   %eax,%eax
   1078a:	0f 84 61 06 00 00    	je     10df1 <func_40+0x276d>
   10790:	48 b8 71 36 ae e9 00 	movabs $0x32e92800e9ae3671,%rax
   10797:	28 e9 32 
   1079a:	48 89 85 b0 e6 ff ff 	mov    %rax,-0x1950(%rbp)
   107a1:	48 8d 85 18 e6 ff ff 	lea    -0x19e8(%rbp),%rax
   107a8:	48 89 85 b8 e6 ff ff 	mov    %rax,-0x1948(%rbp)
   107af:	48 8d 85 30 e6 ff ff 	lea    -0x19d0(%rbp),%rax
   107b6:	48 89 85 60 ea ff ff 	mov    %rax,-0x15a0(%rbp)
   107bd:	48 8d 85 30 e6 ff ff 	lea    -0x19d0(%rbp),%rax
   107c4:	48 89 85 68 ea ff ff 	mov    %rax,-0x1598(%rbp)
   107cb:	48 8d 85 30 e6 ff ff 	lea    -0x19d0(%rbp),%rax
   107d2:	48 89 85 70 ea ff ff 	mov    %rax,-0x1590(%rbp)
   107d9:	48 8d 85 30 e6 ff ff 	lea    -0x19d0(%rbp),%rax
   107e0:	48 89 85 78 ea ff ff 	mov    %rax,-0x1588(%rbp)
   107e7:	48 8d 85 30 e6 ff ff 	lea    -0x19d0(%rbp),%rax
   107ee:	48 89 85 80 ea ff ff 	mov    %rax,-0x1580(%rbp)
   107f5:	48 8d 85 30 e6 ff ff 	lea    -0x19d0(%rbp),%rax
   107fc:	48 89 85 88 ea ff ff 	mov    %rax,-0x1578(%rbp)
   10803:	48 8d 85 30 e6 ff ff 	lea    -0x19d0(%rbp),%rax
   1080a:	48 89 85 90 ea ff ff 	mov    %rax,-0x1570(%rbp)
   10811:	48 8d 85 30 e6 ff ff 	lea    -0x19d0(%rbp),%rax
   10818:	48 89 85 98 ea ff ff 	mov    %rax,-0x1568(%rbp)
   1081f:	48 8d 85 30 e6 ff ff 	lea    -0x19d0(%rbp),%rax
   10826:	48 89 85 a0 ea ff ff 	mov    %rax,-0x1560(%rbp)
   1082d:	48 8d 85 30 e6 ff ff 	lea    -0x19d0(%rbp),%rax
   10834:	48 89 85 a8 ea ff ff 	mov    %rax,-0x1558(%rbp)
   1083b:	48 8d 85 30 e6 ff ff 	lea    -0x19d0(%rbp),%rax
   10842:	48 89 85 b0 ea ff ff 	mov    %rax,-0x1550(%rbp)
   10849:	48 8d 85 30 e6 ff ff 	lea    -0x19d0(%rbp),%rax
   10850:	48 89 85 b8 ea ff ff 	mov    %rax,-0x1548(%rbp)
   10857:	48 8d 85 30 e6 ff ff 	lea    -0x19d0(%rbp),%rax
   1085e:	48 89 85 c0 ea ff ff 	mov    %rax,-0x1540(%rbp)
   10865:	48 8d 85 30 e6 ff ff 	lea    -0x19d0(%rbp),%rax
   1086c:	48 89 85 c8 ea ff ff 	mov    %rax,-0x1538(%rbp)
   10873:	48 8d 85 30 e6 ff ff 	lea    -0x19d0(%rbp),%rax
   1087a:	48 89 85 d0 ea ff ff 	mov    %rax,-0x1530(%rbp)
   10881:	48 8d 85 30 e6 ff ff 	lea    -0x19d0(%rbp),%rax
   10888:	48 89 85 d8 ea ff ff 	mov    %rax,-0x1528(%rbp)
   1088f:	48 8d 85 30 e6 ff ff 	lea    -0x19d0(%rbp),%rax
   10896:	48 89 85 e0 ea ff ff 	mov    %rax,-0x1520(%rbp)
   1089d:	48 8d 85 30 e6 ff ff 	lea    -0x19d0(%rbp),%rax
   108a4:	48 89 85 e8 ea ff ff 	mov    %rax,-0x1518(%rbp)
   108ab:	48 8d 85 30 e6 ff ff 	lea    -0x19d0(%rbp),%rax
   108b2:	48 89 85 f0 ea ff ff 	mov    %rax,-0x1510(%rbp)
   108b9:	48 8d 85 30 e6 ff ff 	lea    -0x19d0(%rbp),%rax
   108c0:	48 89 85 f8 ea ff ff 	mov    %rax,-0x1508(%rbp)
   108c7:	48 8d 85 30 e6 ff ff 	lea    -0x19d0(%rbp),%rax
   108ce:	48 89 85 00 eb ff ff 	mov    %rax,-0x1500(%rbp)
   108d5:	48 8d 85 30 e6 ff ff 	lea    -0x19d0(%rbp),%rax
   108dc:	48 89 85 08 eb ff ff 	mov    %rax,-0x14f8(%rbp)
   108e3:	48 8d 85 30 e6 ff ff 	lea    -0x19d0(%rbp),%rax
   108ea:	48 89 85 10 eb ff ff 	mov    %rax,-0x14f0(%rbp)
   108f1:	48 8d 85 30 e6 ff ff 	lea    -0x19d0(%rbp),%rax
   108f8:	48 89 85 18 eb ff ff 	mov    %rax,-0x14e8(%rbp)
   108ff:	48 8d 85 30 e6 ff ff 	lea    -0x19d0(%rbp),%rax
   10906:	48 89 85 20 eb ff ff 	mov    %rax,-0x14e0(%rbp)
   1090d:	48 8d 85 30 e6 ff ff 	lea    -0x19d0(%rbp),%rax
   10914:	48 89 85 28 eb ff ff 	mov    %rax,-0x14d8(%rbp)
   1091b:	48 8d 85 30 e6 ff ff 	lea    -0x19d0(%rbp),%rax
   10922:	48 89 85 30 eb ff ff 	mov    %rax,-0x14d0(%rbp)
   10929:	48 8d 85 30 e6 ff ff 	lea    -0x19d0(%rbp),%rax
   10930:	48 89 85 38 eb ff ff 	mov    %rax,-0x14c8(%rbp)
   10937:	48 8d 85 30 e6 ff ff 	lea    -0x19d0(%rbp),%rax
   1093e:	48 89 85 40 eb ff ff 	mov    %rax,-0x14c0(%rbp)
   10945:	48 8d 85 30 e6 ff ff 	lea    -0x19d0(%rbp),%rax
   1094c:	48 89 85 48 eb ff ff 	mov    %rax,-0x14b8(%rbp)
   10953:	48 8d 85 30 e6 ff ff 	lea    -0x19d0(%rbp),%rax
   1095a:	48 89 85 50 eb ff ff 	mov    %rax,-0x14b0(%rbp)
   10961:	48 8d 85 30 e6 ff ff 	lea    -0x19d0(%rbp),%rax
   10968:	48 89 85 58 eb ff ff 	mov    %rax,-0x14a8(%rbp)
   1096f:	48 8d 85 30 e6 ff ff 	lea    -0x19d0(%rbp),%rax
   10976:	48 89 85 60 eb ff ff 	mov    %rax,-0x14a0(%rbp)
   1097d:	48 8d 85 30 e6 ff ff 	lea    -0x19d0(%rbp),%rax
   10984:	48 89 85 68 eb ff ff 	mov    %rax,-0x1498(%rbp)
   1098b:	48 8d 85 30 e6 ff ff 	lea    -0x19d0(%rbp),%rax
   10992:	48 89 85 70 eb ff ff 	mov    %rax,-0x1490(%rbp)
   10999:	48 8d 85 30 e6 ff ff 	lea    -0x19d0(%rbp),%rax
   109a0:	48 89 85 78 eb ff ff 	mov    %rax,-0x1488(%rbp)
   109a7:	48 8d 85 30 e6 ff ff 	lea    -0x19d0(%rbp),%rax
   109ae:	48 89 85 80 eb ff ff 	mov    %rax,-0x1480(%rbp)
   109b5:	48 8d 85 30 e6 ff ff 	lea    -0x19d0(%rbp),%rax
   109bc:	48 89 85 88 eb ff ff 	mov    %rax,-0x1478(%rbp)
   109c3:	48 8d 85 30 e6 ff ff 	lea    -0x19d0(%rbp),%rax
   109ca:	48 89 85 90 eb ff ff 	mov    %rax,-0x1470(%rbp)
   109d1:	48 8d 85 30 e6 ff ff 	lea    -0x19d0(%rbp),%rax
   109d8:	48 89 85 98 eb ff ff 	mov    %rax,-0x1468(%rbp)
   109df:	48 8d 85 30 e6 ff ff 	lea    -0x19d0(%rbp),%rax
   109e6:	48 89 85 a0 eb ff ff 	mov    %rax,-0x1460(%rbp)
   109ed:	48 8d 85 30 e6 ff ff 	lea    -0x19d0(%rbp),%rax
   109f4:	48 89 85 a8 eb ff ff 	mov    %rax,-0x1458(%rbp)
   109fb:	48 8d 85 30 e6 ff ff 	lea    -0x19d0(%rbp),%rax
   10a02:	48 89 85 b0 eb ff ff 	mov    %rax,-0x1450(%rbp)
   10a09:	48 8d 85 30 e6 ff ff 	lea    -0x19d0(%rbp),%rax
   10a10:	48 89 85 b8 eb ff ff 	mov    %rax,-0x1448(%rbp)
   10a17:	48 8d 85 30 e6 ff ff 	lea    -0x19d0(%rbp),%rax
   10a1e:	48 89 85 c0 eb ff ff 	mov    %rax,-0x1440(%rbp)
   10a25:	48 8d 85 30 e6 ff ff 	lea    -0x19d0(%rbp),%rax
   10a2c:	48 89 85 c8 eb ff ff 	mov    %rax,-0x1438(%rbp)
   10a33:	48 8d 85 30 e6 ff ff 	lea    -0x19d0(%rbp),%rax
   10a3a:	48 89 85 d0 eb ff ff 	mov    %rax,-0x1430(%rbp)
   10a41:	48 8d 85 30 e6 ff ff 	lea    -0x19d0(%rbp),%rax
   10a48:	48 89 85 d8 eb ff ff 	mov    %rax,-0x1428(%rbp)
   10a4f:	48 8d 85 30 e6 ff ff 	lea    -0x19d0(%rbp),%rax
   10a56:	48 89 85 e0 eb ff ff 	mov    %rax,-0x1420(%rbp)
   10a5d:	48 8d 85 30 e6 ff ff 	lea    -0x19d0(%rbp),%rax
   10a64:	48 89 85 e8 eb ff ff 	mov    %rax,-0x1418(%rbp)
   10a6b:	48 8d 85 30 e6 ff ff 	lea    -0x19d0(%rbp),%rax
   10a72:	48 89 85 f0 eb ff ff 	mov    %rax,-0x1410(%rbp)
   10a79:	48 8d 85 30 e6 ff ff 	lea    -0x19d0(%rbp),%rax
   10a80:	48 89 85 f8 eb ff ff 	mov    %rax,-0x1408(%rbp)
   10a87:	48 8d 85 30 e6 ff ff 	lea    -0x19d0(%rbp),%rax
   10a8e:	48 89 85 00 ec ff ff 	mov    %rax,-0x1400(%rbp)
   10a95:	48 8d 85 30 e6 ff ff 	lea    -0x19d0(%rbp),%rax
   10a9c:	48 89 85 08 ec ff ff 	mov    %rax,-0x13f8(%rbp)
   10aa3:	48 8d 85 30 e6 ff ff 	lea    -0x19d0(%rbp),%rax
   10aaa:	48 89 85 10 ec ff ff 	mov    %rax,-0x13f0(%rbp)
   10ab1:	48 8d 85 30 e6 ff ff 	lea    -0x19d0(%rbp),%rax
   10ab8:	48 89 85 18 ec ff ff 	mov    %rax,-0x13e8(%rbp)
   10abf:	48 8d 85 30 e6 ff ff 	lea    -0x19d0(%rbp),%rax
   10ac6:	48 89 85 20 ec ff ff 	mov    %rax,-0x13e0(%rbp)
   10acd:	48 8d 85 30 e6 ff ff 	lea    -0x19d0(%rbp),%rax
   10ad4:	48 89 85 28 ec ff ff 	mov    %rax,-0x13d8(%rbp)
   10adb:	48 8d 85 30 e6 ff ff 	lea    -0x19d0(%rbp),%rax
   10ae2:	48 89 85 30 ec ff ff 	mov    %rax,-0x13d0(%rbp)
   10ae9:	48 8d 85 30 e6 ff ff 	lea    -0x19d0(%rbp),%rax
   10af0:	48 89 85 38 ec ff ff 	mov    %rax,-0x13c8(%rbp)
   10af7:	48 8d 85 30 e6 ff ff 	lea    -0x19d0(%rbp),%rax
   10afe:	48 89 85 40 ec ff ff 	mov    %rax,-0x13c0(%rbp)
   10b05:	48 8d 85 30 e6 ff ff 	lea    -0x19d0(%rbp),%rax
   10b0c:	48 89 85 48 ec ff ff 	mov    %rax,-0x13b8(%rbp)
   10b13:	48 8d 85 30 e6 ff ff 	lea    -0x19d0(%rbp),%rax
   10b1a:	48 89 85 50 ec ff ff 	mov    %rax,-0x13b0(%rbp)
   10b21:	48 8d 85 30 e6 ff ff 	lea    -0x19d0(%rbp),%rax
   10b28:	48 89 85 58 ec ff ff 	mov    %rax,-0x13a8(%rbp)
   10b2f:	48 8d 85 30 e6 ff ff 	lea    -0x19d0(%rbp),%rax
   10b36:	48 89 85 60 ec ff ff 	mov    %rax,-0x13a0(%rbp)
   10b3d:	48 8d 85 30 e6 ff ff 	lea    -0x19d0(%rbp),%rax
   10b44:	48 89 85 68 ec ff ff 	mov    %rax,-0x1398(%rbp)
   10b4b:	48 8d 85 30 e6 ff ff 	lea    -0x19d0(%rbp),%rax
   10b52:	48 89 85 70 ec ff ff 	mov    %rax,-0x1390(%rbp)
   10b59:	48 8d 85 30 e6 ff ff 	lea    -0x19d0(%rbp),%rax
   10b60:	48 89 85 78 ec ff ff 	mov    %rax,-0x1388(%rbp)
   10b67:	48 8d 85 30 e6 ff ff 	lea    -0x19d0(%rbp),%rax
   10b6e:	48 89 85 80 ec ff ff 	mov    %rax,-0x1380(%rbp)
   10b75:	48 8d 85 30 e6 ff ff 	lea    -0x19d0(%rbp),%rax
   10b7c:	48 89 85 88 ec ff ff 	mov    %rax,-0x1378(%rbp)
   10b83:	48 8d 85 30 e6 ff ff 	lea    -0x19d0(%rbp),%rax
   10b8a:	48 89 85 90 ec ff ff 	mov    %rax,-0x1370(%rbp)
   10b91:	48 8d 85 30 e6 ff ff 	lea    -0x19d0(%rbp),%rax
   10b98:	48 89 85 98 ec ff ff 	mov    %rax,-0x1368(%rbp)
   10b9f:	48 8d 85 30 e6 ff ff 	lea    -0x19d0(%rbp),%rax
   10ba6:	48 89 85 a0 ec ff ff 	mov    %rax,-0x1360(%rbp)
   10bad:	48 8d 85 30 e6 ff ff 	lea    -0x19d0(%rbp),%rax
   10bb4:	48 89 85 a8 ec ff ff 	mov    %rax,-0x1358(%rbp)
   10bbb:	48 8d 85 30 e6 ff ff 	lea    -0x19d0(%rbp),%rax
   10bc2:	48 89 85 b0 ec ff ff 	mov    %rax,-0x1350(%rbp)
   10bc9:	48 8d 85 30 e6 ff ff 	lea    -0x19d0(%rbp),%rax
   10bd0:	48 89 85 b8 ec ff ff 	mov    %rax,-0x1348(%rbp)
   10bd7:	48 8d 85 30 e6 ff ff 	lea    -0x19d0(%rbp),%rax
   10bde:	48 89 85 c0 ec ff ff 	mov    %rax,-0x1340(%rbp)
   10be5:	48 8d 85 30 e6 ff ff 	lea    -0x19d0(%rbp),%rax
   10bec:	48 89 85 c8 ec ff ff 	mov    %rax,-0x1338(%rbp)
   10bf3:	48 8d 85 30 e6 ff ff 	lea    -0x19d0(%rbp),%rax
   10bfa:	48 89 85 d0 ec ff ff 	mov    %rax,-0x1330(%rbp)
   10c01:	48 8d 85 30 e6 ff ff 	lea    -0x19d0(%rbp),%rax
   10c08:	48 89 85 d8 ec ff ff 	mov    %rax,-0x1328(%rbp)
   10c0f:	0f b6 9d 84 e5 ff ff 	movzbl -0x1a7c(%rbp),%ebx
   10c16:	44 0f b6 a5 84 e5 ff 	movzbl -0x1a7c(%rbp),%r12d
   10c1d:	ff 
   10c1e:	48 83 bd b0 e6 ff ff 	cmpq   $0x0,-0x1950(%rbp)
   10c25:	00 
   10c26:	0f 94 c0             	sete   %al
   10c29:	0f b6 c0             	movzbl %al,%eax
   10c2c:	89 c6                	mov    %eax,%esi
   10c2e:	bf 00 00 00 00       	mov    $0x0,%edi
   10c33:	e8 05 61 ff ff       	callq  6d3d <safe_mul_func_uint16_t_u_u>
   10c38:	44 0f b7 f0          	movzwl %ax,%r14d
   10c3c:	0f b7 05 0d d6 00 00 	movzwl 0xd60d(%rip),%eax        # 1e250 <g_376>
   10c43:	44 0f b7 e8          	movzwl %ax,%r13d
   10c47:	48 8b 95 18 e6 ff ff 	mov    -0x19e8(%rbp),%rdx
   10c4e:	48 8b 85 b8 e6 ff ff 	mov    -0x1948(%rbp),%rax
   10c55:	48 89 10             	mov    %rdx,(%rax)
   10c58:	48 8b 85 b8 e6 ff ff 	mov    -0x1948(%rbp),%rax
   10c5f:	48 8b 10             	mov    (%rax),%rdx
   10c62:	48 8b 85 30 e6 ff ff 	mov    -0x19d0(%rbp),%rax
   10c69:	48 89 85 a8 e6 ff ff 	mov    %rax,-0x1958(%rbp)
   10c70:	48 8b 85 a8 e6 ff ff 	mov    -0x1958(%rbp),%rax
   10c77:	48 89 05 42 00 01 00 	mov    %rax,0x10042(%rip)        # 20cc0 <g_1413>
   10c7e:	48 8b 05 3b 00 01 00 	mov    0x1003b(%rip),%rax        # 20cc0 <g_1413>
   10c85:	48 39 c2             	cmp    %rax,%rdx
   10c88:	0f 94 c0             	sete   %al
   10c8b:	44 0f b6 f8          	movzbl %al,%r15d
   10c8f:	0f b6 85 84 e5 ff ff 	movzbl -0x1a7c(%rbp),%eax
   10c96:	8b 95 0c ee ff ff    	mov    -0x11f4(%rbp),%edx
   10c9c:	21 d0                	and    %edx,%eax
   10c9e:	0f b7 c0             	movzwl %ax,%eax
   10ca1:	be 03 00 00 00       	mov    $0x3,%esi
   10ca6:	89 c7                	mov    %eax,%edi
   10ca8:	e8 11 61 ff ff       	callq  6dbe <safe_lshift_func_uint16_t_u_s>
   10cad:	0f b7 d0             	movzwl %ax,%edx
   10cb0:	48 8b 05 39 eb 00 00 	mov    0xeb39(%rip),%rax        # 1f7f0 <g_641>
   10cb7:	0f b7 00             	movzwl (%rax),%eax
   10cba:	0f b7 c0             	movzwl %ax,%eax
   10cbd:	89 d6                	mov    %edx,%esi
   10cbf:	89 c7                	mov    %eax,%edi
   10cc1:	e8 77 60 ff ff       	callq  6d3d <safe_mul_func_uint16_t_u_u>
   10cc6:	44 09 f8             	or     %r15d,%eax
   10cc9:	89 c2                	mov    %eax,%edx
   10ccb:	8b 85 80 e5 ff ff    	mov    -0x1a80(%rbp),%eax
   10cd1:	31 d0                	xor    %edx,%eax
   10cd3:	0f b7 c0             	movzwl %ax,%eax
   10cd6:	44 89 ee             	mov    %r13d,%esi
   10cd9:	89 c7                	mov    %eax,%edi
   10cdb:	e8 ae 60 ff ff       	callq  6d8e <safe_div_func_uint16_t_u_u>
   10ce0:	0f be c0             	movsbl %al,%eax
   10ce3:	be 07 00 00 00       	mov    $0x7,%esi
   10ce8:	89 c7                	mov    %eax,%edi
   10cea:	e8 46 56 ff ff       	callq  6335 <safe_rshift_func_int8_t_s_s>
   10cef:	0f be c0             	movsbl %al,%eax
   10cf2:	41 39 c6             	cmp    %eax,%r14d
   10cf5:	0f 9f c0             	setg   %al
   10cf8:	0f b6 c0             	movzbl %al,%eax
   10cfb:	48 89 c7             	mov    %rax,%rdi
   10cfe:	e8 16 63 ff ff       	callq  7019 <safe_unary_minus_func_uint64_t_u>
   10d03:	48 85 c0             	test   %rax,%rax
   10d06:	74 10                	je     10d18 <func_40+0x2694>
   10d08:	80 bd 84 e5 ff ff 00 	cmpb   $0x0,-0x1a7c(%rbp)
   10d0f:	74 07                	je     10d18 <func_40+0x2694>
   10d11:	b8 01 00 00 00       	mov    $0x1,%eax
   10d16:	eb 05                	jmp    10d1d <func_40+0x2699>
   10d18:	b8 00 00 00 00       	mov    $0x0,%eax
   10d1d:	0f be d0             	movsbl %al,%edx
   10d20:	0f b6 85 84 e5 ff ff 	movzbl -0x1a7c(%rbp),%eax
   10d27:	0f be c0             	movsbl %al,%eax
   10d2a:	89 d6                	mov    %edx,%esi
   10d2c:	89 c7                	mov    %eax,%edi
   10d2e:	e8 fe 54 ff ff       	callq  6231 <safe_mod_func_int8_t_s_s>
   10d33:	48 8b 95 38 e6 ff ff 	mov    -0x19c8(%rbp),%rdx
   10d3a:	8b 12                	mov    (%rdx),%edx
   10d3c:	0f be c0             	movsbl %al,%eax
   10d3f:	09 c2                	or     %eax,%edx
   10d41:	48 8b 85 38 e6 ff ff 	mov    -0x19c8(%rbp),%rax
   10d48:	89 10                	mov    %edx,(%rax)
   10d4a:	48 8b 85 38 e6 ff ff 	mov    -0x19c8(%rbp),%rax
   10d51:	8b 00                	mov    (%rax),%eax
   10d53:	89 c2                	mov    %eax,%edx
   10d55:	8b 05 ed d4 00 00    	mov    0xd4ed(%rip),%eax        # 1e248 <g_223>
   10d5b:	39 c2                	cmp    %eax,%edx
   10d5d:	0f 92 c0             	setb   %al
   10d60:	0f b6 c0             	movzbl %al,%eax
   10d63:	44 89 e6             	mov    %r12d,%esi
   10d66:	89 c7                	mov    %eax,%edi
   10d68:	e8 51 60 ff ff       	callq  6dbe <safe_lshift_func_uint16_t_u_s>
   10d6d:	0f b7 c0             	movzwl %ax,%eax
   10d70:	ba 8e 24 d9 64       	mov    $0x64d9248e,%edx
   10d75:	39 d0                	cmp    %edx,%eax
   10d77:	0f 9f c0             	setg   %al
   10d7a:	0f b6 c0             	movzbl %al,%eax
   10d7d:	89 de                	mov    %ebx,%esi
   10d7f:	89 c7                	mov    %eax,%edi
   10d81:	e8 08 60 ff ff       	callq  6d8e <safe_div_func_uint16_t_u_u>
   10d86:	0f b7 95 9a e5 ff ff 	movzwl -0x1a66(%rbp),%edx
   10d8d:	0f b7 05 96 d5 00 00 	movzwl 0xd596(%rip),%eax        # 1e32a <g_1299>
   10d94:	66 85 c0             	test   %ax,%ax
   10d97:	0f 95 c0             	setne  %al
   10d9a:	0f b6 c0             	movzbl %al,%eax
   10d9d:	39 c2                	cmp    %eax,%edx
   10d9f:	0f 9f c2             	setg   %dl
   10da2:	48 8b 05 ef e9 00 00 	mov    0xe9ef(%rip),%rax        # 1f798 <g_553>
   10da9:	48 8b 00             	mov    (%rax),%rax
   10dac:	48 8b 00             	mov    (%rax),%rax
   10daf:	0f b6 d2             	movzbl %dl,%edx
   10db2:	89 10                	mov    %edx,(%rax)
   10db4:	0f b6 85 84 e5 ff ff 	movzbl -0x1a7c(%rbp),%eax
   10dbb:	48 8d 15 86 d4 00 00 	lea    0xd486(%rip),%rdx        # 1e248 <g_223>
   10dc2:	48 89 95 50 e6 ff ff 	mov    %rdx,-0x19b0(%rbp)
   10dc9:	48 8b 95 50 e6 ff ff 	mov    -0x19b0(%rbp),%rdx
   10dd0:	48 89 95 80 e6 ff ff 	mov    %rdx,-0x1980(%rbp)
   10dd7:	48 8b 15 b2 e9 00 00 	mov    0xe9b2(%rip),%rdx        # 1f790 <g_554>
   10dde:	48 8b 1a             	mov    (%rdx),%rbx
   10de1:	89 c6                	mov    %eax,%esi
   10de3:	bf 11 6a 00 00       	mov    $0x6a11,%edi
   10de8:	e8 18 58 ff ff       	callq  6605 <safe_sub_func_int32_t_s_s>
   10ded:	89 03                	mov    %eax,(%rbx)
   10def:	eb 28                	jmp    10e19 <func_40+0x2795>
   10df1:	48 8b 85 10 e8 ff ff 	mov    -0x17f0(%rbp),%rax
   10df8:	48 89 05 b1 ea 00 00 	mov    %rax,0xeab1(%rip)        # 1f8b0 <g_1423>
   10dff:	48 8b 05 aa ea 00 00 	mov    0xeaaa(%rip),%rax        # 1f8b0 <g_1423>
   10e06:	48 89 85 08 e8 ff ff 	mov    %rax,-0x17f8(%rbp)
   10e0d:	48 8b 85 88 e5 ff ff 	mov    -0x1a78(%rbp),%rax
   10e14:	e9 bf 01 00 00       	jmpq   10fd8 <func_40+0x2954>
   10e19:	48 8b 95 b8 e7 ff ff 	mov    -0x1848(%rbp),%rdx
   10e20:	48 8b 85 88 e6 ff ff 	mov    -0x1978(%rbp),%rax
   10e27:	48 89 10             	mov    %rdx,(%rax)
   10e2a:	48 8b 85 88 e6 ff ff 	mov    -0x1978(%rbp),%rax
   10e31:	48 8b 10             	mov    (%rax),%rdx
   10e34:	48 8b 85 90 e6 ff ff 	mov    -0x1970(%rbp),%rax
   10e3b:	48 89 10             	mov    %rdx,(%rax)
   10e3e:	48 8b 05 7b ea 00 00 	mov    0xea7b(%rip),%rax        # 1f8c0 <g_1429>
   10e45:	48 8b 95 90 e6 ff ff 	mov    -0x1970(%rbp),%rdx
   10e4c:	48 8b 12             	mov    (%rdx),%rdx
   10e4f:	48 89 10             	mov    %rdx,(%rax)
   10e52:	8b 85 9c e5 ff ff    	mov    -0x1a64(%rbp),%eax
   10e58:	83 e8 01             	sub    $0x1,%eax
   10e5b:	89 85 9c e5 ff ff    	mov    %eax,-0x1a64(%rbp)
   10e61:	8b 85 9c e5 ff ff    	mov    -0x1a64(%rbp),%eax
   10e67:	83 f8 eb             	cmp    $0xffffffeb,%eax
   10e6a:	0f 85 6f f2 ff ff    	jne    100df <func_40+0x1a5b>
   10e70:	83 bd 80 e5 ff ff 00 	cmpl   $0x0,-0x1a80(%rbp)
   10e77:	0f 85 50 01 00 00    	jne    10fcd <func_40+0x2949>
   10e7d:	48 8b 05 14 e9 00 00 	mov    0xe914(%rip),%rax        # 1f798 <g_553>
   10e84:	48 8b 00             	mov    (%rax),%rax
   10e87:	48 8b 00             	mov    (%rax),%rax
   10e8a:	48 8b 95 38 e6 ff ff 	mov    -0x19c8(%rbp),%rdx
   10e91:	8b 12                	mov    (%rdx),%edx
   10e93:	89 10                	mov    %edx,(%rax)
   10e95:	48 8b 85 58 e6 ff ff 	mov    -0x19a8(%rbp),%rax
   10e9c:	48 3b 85 60 e6 ff ff 	cmp    -0x19a0(%rbp),%rax
   10ea3:	74 2c                	je     10ed1 <func_40+0x284d>
   10ea5:	48 c7 85 00 e7 ff ff 	movq   $0x0,-0x1900(%rbp)
   10eac:	00 00 00 00 
   10eb0:	48 8b 85 00 e7 ff ff 	mov    -0x1900(%rbp),%rax
   10eb7:	48 89 85 38 e6 ff ff 	mov    %rax,-0x19c8(%rbp)
   10ebe:	48 8b 85 00 e7 ff ff 	mov    -0x1900(%rbp),%rax
   10ec5:	48 89 85 68 e6 ff ff 	mov    %rax,-0x1998(%rbp)
   10ecc:	e9 db 00 00 00       	jmpq   10fac <func_40+0x2928>
   10ed1:	c7 85 d4 e5 ff ff cc 	movl   $0x97ba31cc,-0x1a2c(%rbp)
   10ed8:	31 ba 97 
   10edb:	8b 85 08 e6 ff ff    	mov    -0x19f8(%rbp),%eax
   10ee1:	85 c0                	test   %eax,%eax
   10ee3:	74 05                	je     10eea <func_40+0x2866>
   10ee5:	e9 92 dd ff ff       	jmpq   ec7c <func_40+0x5f8>
   10eea:	48 83 bd 70 e6 ff ff 	cmpq   $0x0,-0x1990(%rbp)
   10ef1:	00 
   10ef2:	74 62                	je     10f56 <func_40+0x28d2>
   10ef4:	48 8b 85 38 e6 ff ff 	mov    -0x19c8(%rbp),%rax
   10efb:	44 8b 20             	mov    (%rax),%r12d
   10efe:	8b 9d 80 e5 ff ff    	mov    -0x1a80(%rbp),%ebx
   10f04:	be 43 00 00 00       	mov    $0x43,%esi
   10f09:	bf 01 00 00 00       	mov    $0x1,%edi
   10f0e:	e8 80 5c ff ff       	callq  6b93 <safe_mul_func_uint8_t_u_u>
   10f13:	84 c0                	test   %al,%al
   10f15:	75 07                	jne    10f1e <func_40+0x289a>
   10f17:	83 bd 80 e5 ff ff ff 	cmpl   $0xffffffff,-0x1a80(%rbp)
   10f1e:	48 8b 05 cb e8 00 00 	mov    0xe8cb(%rip),%rax        # 1f7f0 <g_641>
   10f25:	0f b7 00             	movzwl (%rax),%eax
   10f28:	66 83 f8 01          	cmp    $0x1,%ax
   10f2c:	0f 94 c0             	sete   %al
   10f2f:	0f b6 c0             	movzbl %al,%eax
   10f32:	89 de                	mov    %ebx,%esi
   10f34:	89 c7                	mov    %eax,%edi
   10f36:	e8 83 5e ff ff       	callq  6dbe <safe_lshift_func_uint16_t_u_s>
   10f3b:	0f b7 c0             	movzwl %ax,%eax
   10f3e:	41 39 c4             	cmp    %eax,%r12d
   10f41:	0f 95 c0             	setne  %al
   10f44:	0f b6 c0             	movzbl %al,%eax
   10f47:	89 85 d4 e5 ff ff    	mov    %eax,-0x1a2c(%rbp)
   10f4d:	83 bd d4 e5 ff ff 00 	cmpl   $0x0,-0x1a2c(%rbp)
   10f54:	74 49                	je     10f9f <func_40+0x291b>
   10f56:	48 8d 05 e3 f5 00 00 	lea    0xf5e3(%rip),%rax        # 20540 <g_1447+0x5c0>
   10f5d:	48 89 85 f8 e6 ff ff 	mov    %rax,-0x1908(%rbp)
   10f64:	83 bd 80 e5 ff ff 00 	cmpl   $0x0,-0x1a80(%rbp)
   10f6b:	75 63                	jne    10fd0 <func_40+0x294c>
   10f6d:	48 8b 15 cc f5 00 00 	mov    0xf5cc(%rip),%rdx        # 20540 <g_1447+0x5c0>
   10f74:	48 8b 85 f8 e6 ff ff 	mov    -0x1908(%rbp),%rax
   10f7b:	48 89 10             	mov    %rdx,(%rax)
   10f7e:	48 8b 85 f8 e6 ff ff 	mov    -0x1908(%rbp),%rax
   10f85:	48 8b 00             	mov    (%rax),%rax
   10f88:	48 85 c0             	test   %rax,%rax
   10f8b:	0f 94 c2             	sete   %dl
   10f8e:	48 8b 05 fb e7 00 00 	mov    0xe7fb(%rip),%rax        # 1f790 <g_554>
   10f95:	48 8b 00             	mov    (%rax),%rax
   10f98:	0f b6 d2             	movzbl %dl,%edx
   10f9b:	89 10                	mov    %edx,(%rax)
   10f9d:	eb 0d                	jmp    10fac <func_40+0x2928>
   10f9f:	48 8b 05 82 e8 00 00 	mov    0xe882(%rip),%rax        # 1f828 <g_840>
   10fa6:	c7 00 ce ff 3b 2f    	movl   $0x2f3bffce,(%rax)
   10fac:	0f b6 05 99 d0 00 00 	movzbl 0xd099(%rip),%eax        # 1e04c <g_90>
   10fb3:	83 e8 01             	sub    $0x1,%eax
   10fb6:	88 05 90 d0 00 00    	mov    %al,0xd090(%rip)        # 1e04c <g_90>
   10fbc:	0f b6 05 89 d0 00 00 	movzbl 0xd089(%rip),%eax        # 1e04c <g_90>
   10fc3:	3c 0e                	cmp    $0xe,%al
   10fc5:	0f 86 93 df ff ff    	jbe    ef5e <func_40+0x8da>
   10fcb:	eb 04                	jmp    10fd1 <func_40+0x294d>
   10fcd:	90                   	nop
   10fce:	eb 01                	jmp    10fd1 <func_40+0x294d>
   10fd0:	90                   	nop
   10fd1:	48 8b 85 88 e5 ff ff 	mov    -0x1a78(%rbp),%rax
   10fd8:	48 8b 5d c8          	mov    -0x38(%rbp),%rbx
   10fdc:	64 48 33 1c 25 28 00 	xor    %fs:0x28,%rbx
   10fe3:	00 00 
   10fe5:	74 05                	je     10fec <func_40+0x2968>
   10fe7:	e8 84 50 ff ff       	callq  6070 <__stack_chk_fail@plt>
   10fec:	48 81 c4 58 1a 00 00 	add    $0x1a58,%rsp
   10ff3:	5b                   	pop    %rbx
   10ff4:	41 5c                	pop    %r12
   10ff6:	41 5d                	pop    %r13
   10ff8:	41 5e                	pop    %r14
   10ffa:	41 5f                	pop    %r15
   10ffc:	5d                   	pop    %rbp
   10ffd:	c3                   	retq   

0000000000010ffe <func_44>:
   10ffe:	f3 0f 1e fa          	endbr64 
   11002:	55                   	push   %rbp
   11003:	48 89 e5             	mov    %rsp,%rbp
   11006:	41 57                	push   %r15
   11008:	41 56                	push   %r14
   1100a:	41 55                	push   %r13
   1100c:	41 54                	push   %r12
   1100e:	53                   	push   %rbx
   1100f:	48 81 ec 00 10 00 00 	sub    $0x1000,%rsp
   11016:	48 83 0c 24 00       	orq    $0x0,(%rsp)
   1101b:	48 81 ec 00 10 00 00 	sub    $0x1000,%rsp
   11022:	48 83 0c 24 00       	orq    $0x0,(%rsp)
   11027:	48 81 ec c8 00 00 00 	sub    $0xc8,%rsp
   1102e:	48 89 bd 38 df ff ff 	mov    %rdi,-0x20c8(%rbp)
   11035:	89 b5 34 df ff ff    	mov    %esi,-0x20cc(%rbp)
   1103b:	48 89 95 28 df ff ff 	mov    %rdx,-0x20d8(%rbp)
   11042:	48 89 8d 20 df ff ff 	mov    %rcx,-0x20e0(%rbp)
   11049:	4c 89 85 18 df ff ff 	mov    %r8,-0x20e8(%rbp)
   11050:	64 48 8b 04 25 28 00 	mov    %fs:0x28,%rax
   11057:	00 00 
   11059:	48 89 45 c8          	mov    %rax,-0x38(%rbp)
   1105d:	31 c0                	xor    %eax,%eax
   1105f:	48 c7 85 e8 df ff ff 	movq   $0xfffffffffffffff8,-0x2018(%rbp)
   11066:	f8 ff ff ff 
   1106a:	66 c7 85 4a df ff ff 	movw   $0x5,-0x20b6(%rbp)
   11071:	05 00 
   11073:	48 8d 05 d2 cf 00 00 	lea    0xcfd2(%rip),%rax        # 1e04c <g_90>
   1107a:	48 89 85 f0 df ff ff 	mov    %rax,-0x2010(%rbp)
   11081:	48 8d 85 f0 df ff ff 	lea    -0x2010(%rbp),%rax
   11088:	48 89 85 68 e0 ff ff 	mov    %rax,-0x1f98(%rbp)
   1108f:	c7 85 70 e2 ff ff 94 	movl   $0xe43aaa94,-0x1d90(%rbp)
   11096:	aa 3a e4 
   11099:	c7 85 74 e2 ff ff 1f 	movl   $0x1f13fc1f,-0x1d8c(%rbp)
   110a0:	fc 13 1f 
   110a3:	c7 85 78 e2 ff ff 1f 	movl   $0x1f13fc1f,-0x1d88(%rbp)
   110aa:	fc 13 1f 
   110ad:	c7 85 7c e2 ff ff 94 	movl   $0xe43aaa94,-0x1d84(%rbp)
   110b4:	aa 3a e4 
   110b7:	c7 85 80 e2 ff ff 1f 	movl   $0x1f13fc1f,-0x1d80(%rbp)
   110be:	fc 13 1f 
   110c1:	c7 85 84 e2 ff ff 1f 	movl   $0x1f13fc1f,-0x1d7c(%rbp)
   110c8:	fc 13 1f 
   110cb:	c7 85 88 e2 ff ff 94 	movl   $0xe43aaa94,-0x1d78(%rbp)
   110d2:	aa 3a e4 
   110d5:	c7 85 8c e2 ff ff 1f 	movl   $0x1f13fc1f,-0x1d74(%rbp)
   110dc:	fc 13 1f 
   110df:	48 8d 85 70 e2 ff ff 	lea    -0x1d90(%rbp),%rax
   110e6:	48 83 c0 1c          	add    $0x1c,%rax
   110ea:	48 89 85 b0 e2 ff ff 	mov    %rax,-0x1d50(%rbp)
   110f1:	48 8d 85 70 e2 ff ff 	lea    -0x1d90(%rbp),%rax
   110f8:	48 83 c0 1c          	add    $0x1c,%rax
   110fc:	48 89 85 b8 e2 ff ff 	mov    %rax,-0x1d48(%rbp)
   11103:	48 8d 85 70 e2 ff ff 	lea    -0x1d90(%rbp),%rax
   1110a:	48 83 c0 1c          	add    $0x1c,%rax
   1110e:	48 89 85 c0 e2 ff ff 	mov    %rax,-0x1d40(%rbp)
   11115:	48 8d 85 70 e2 ff ff 	lea    -0x1d90(%rbp),%rax
   1111c:	48 83 c0 1c          	add    $0x1c,%rax
   11120:	48 89 85 c8 e2 ff ff 	mov    %rax,-0x1d38(%rbp)
   11127:	48 8d 85 70 e2 ff ff 	lea    -0x1d90(%rbp),%rax
   1112e:	48 83 c0 1c          	add    $0x1c,%rax
   11132:	48 89 85 d0 e2 ff ff 	mov    %rax,-0x1d30(%rbp)
   11139:	48 8d 85 70 e2 ff ff 	lea    -0x1d90(%rbp),%rax
   11140:	48 83 c0 1c          	add    $0x1c,%rax
   11144:	48 89 85 d8 e2 ff ff 	mov    %rax,-0x1d28(%rbp)
   1114b:	48 8d 85 70 e2 ff ff 	lea    -0x1d90(%rbp),%rax
   11152:	48 83 c0 1c          	add    $0x1c,%rax
   11156:	48 89 85 e0 e2 ff ff 	mov    %rax,-0x1d20(%rbp)
   1115d:	48 c7 85 70 e0 ff ff 	movq   $0x0,-0x1f90(%rbp)
   11164:	00 00 00 00 
   11168:	48 8d 05 11 e6 00 00 	lea    0xe611(%rip),%rax        # 1f780 <g_368>
   1116f:	48 89 85 78 e0 ff ff 	mov    %rax,-0x1f88(%rbp)
   11176:	48 8d 05 9b fa 00 00 	lea    0xfa9b(%rip),%rax        # 20c18 <g_291>
   1117d:	48 89 85 f8 df ff ff 	mov    %rax,-0x2008(%rbp)
   11184:	48 8d 85 f8 df ff ff 	lea    -0x2008(%rbp),%rax
   1118b:	48 89 85 80 e0 ff ff 	mov    %rax,-0x1f80(%rbp)
   11192:	48 8d 05 77 fa 00 00 	lea    0xfa77(%rip),%rax        # 20c10 <g_272>
   11199:	48 89 85 88 e0 ff ff 	mov    %rax,-0x1f78(%rbp)
   111a0:	48 c7 85 00 e0 ff ff 	movq   $0x0,-0x2000(%rbp)
   111a7:	00 00 00 00 
   111ab:	c7 85 00 e0 ff ff 11 	movl   $0x3b9d2711,-0x2000(%rbp)
   111b2:	27 9d 3b 
   111b5:	48 8d 85 30 f1 ff ff 	lea    -0xed0(%rbp),%rax
   111bc:	48 8d 15 9d d5 00 00 	lea    0xd59d(%rip),%rdx        # 1e760 <g_2753+0x414>
   111c3:	b9 d8 00 00 00       	mov    $0xd8,%ecx
   111c8:	48 89 c7             	mov    %rax,%rdi
   111cb:	48 89 d6             	mov    %rdx,%rsi
   111ce:	f3 48 a5             	rep movsq %ds:(%rsi),%es:(%rdi)
   111d1:	48 8d 85 30 f1 ff ff 	lea    -0xed0(%rbp),%rax
   111d8:	48 05 10 03 00 00    	add    $0x310,%rax
   111de:	48 89 85 90 e0 ff ff 	mov    %rax,-0x1f70(%rbp)
   111e5:	c7 85 84 df ff ff 00 	movl   $0xca0f8900,-0x207c(%rbp)
   111ec:	89 0f ca 
   111ef:	48 b8 60 c6 56 34 25 	movabs $0xa86b8f253456c660,%rax
   111f6:	8f 6b a8 
   111f9:	48 89 85 98 e0 ff ff 	mov    %rax,-0x1f68(%rbp)
   11200:	48 8d 85 70 e2 ff ff 	lea    -0x1d90(%rbp),%rax
   11207:	48 83 c0 1c          	add    $0x1c,%rax
   1120b:	48 89 85 a0 e0 ff ff 	mov    %rax,-0x1f60(%rbp)
   11212:	c7 85 88 df ff ff 00 	movl   $0x0,-0x2078(%rbp)
   11219:	00 00 00 
   1121c:	eb 1a                	jmp    11238 <func_44+0x23a>
   1121e:	8b 85 88 df ff ff    	mov    -0x2078(%rbp),%eax
   11224:	48 98                	cltq   
   11226:	c7 84 85 4c e2 ff ff 	movl   $0xe3458302,-0x1db4(%rbp,%rax,4)
   1122d:	02 83 45 e3 
   11231:	83 85 88 df ff ff 01 	addl   $0x1,-0x2078(%rbp)
   11238:	83 bd 88 df ff ff 00 	cmpl   $0x0,-0x2078(%rbp)
   1123f:	7e dd                	jle    1121e <func_44+0x220>
   11241:	c6 05 dd cd 00 00 08 	movb   $0x8,0xcddd(%rip)        # 1e025 <g_66>
   11248:	e9 41 52 00 00       	jmpq   1648e <func_44+0x5490>
   1124d:	48 8d 05 ac e4 00 00 	lea    0xe4ac(%rip),%rax        # 1f700 <g_320+0x60>
   11254:	48 89 85 08 e0 ff ff 	mov    %rax,-0x1ff8(%rbp)
   1125b:	48 8d 85 08 e0 ff ff 	lea    -0x1ff8(%rbp),%rax
   11262:	48 89 85 b8 e0 ff ff 	mov    %rax,-0x1f48(%rbp)
   11269:	c7 85 50 df ff ff 01 	movl   $0x1,-0x20b0(%rbp)
   11270:	00 00 00 
   11273:	48 8d 05 96 f9 00 00 	lea    0xf996(%rip),%rax        # 20c10 <g_272>
   1127a:	48 89 85 10 e0 ff ff 	mov    %rax,-0x1ff0(%rbp)
   11281:	66 c7 85 50 e2 ff ff 	movw   $0xf651,-0x1db0(%rbp)
   11288:	51 f6 
   1128a:	66 c7 85 52 e2 ff ff 	movw   $0x648a,-0x1dae(%rbp)
   11291:	8a 64 
   11293:	66 c7 85 54 e2 ff ff 	movw   $0x648a,-0x1dac(%rbp)
   1129a:	8a 64 
   1129c:	66 c7 85 56 e2 ff ff 	movw   $0xf651,-0x1daa(%rbp)
   112a3:	51 f6 
   112a5:	66 c7 85 58 e2 ff ff 	movw   $0x648a,-0x1da8(%rbp)
   112ac:	8a 64 
   112ae:	66 c7 85 5a e2 ff ff 	movw   $0x648a,-0x1da6(%rbp)
   112b5:	8a 64 
   112b7:	66 c7 85 5c e2 ff ff 	movw   $0xf651,-0x1da4(%rbp)
   112be:	51 f6 
   112c0:	66 c7 85 5e e2 ff ff 	movw   $0x648a,-0x1da2(%rbp)
   112c7:	8a 64 
   112c9:	66 c7 85 60 e2 ff ff 	movw   $0x648a,-0x1da0(%rbp)
   112d0:	8a 64 
   112d2:	66 c7 85 62 e2 ff ff 	movw   $0xf651,-0x1d9e(%rbp)
   112d9:	51 f6 
   112db:	48 8d 05 5a cd 00 00 	lea    0xcd5a(%rip),%rax        # 1e03c <g_71+0xc>
   112e2:	48 89 85 18 e0 ff ff 	mov    %rax,-0x1fe8(%rbp)
   112e9:	48 8d 85 30 e3 ff ff 	lea    -0x1cd0(%rbp),%rax
   112f0:	48 83 c0 10          	add    $0x10,%rax
   112f4:	48 89 85 20 e0 ff ff 	mov    %rax,-0x1fe0(%rbp)
   112fb:	c6 85 42 df ff ff 33 	movb   $0x33,-0x20be(%rbp)
   11302:	48 c7 85 70 e3 ff ff 	movq   $0x0,-0x1c90(%rbp)
   11309:	00 00 00 00 
   1130d:	48 c7 85 78 e3 ff ff 	movq   $0x0,-0x1c88(%rbp)
   11314:	00 00 00 00 
   11318:	48 c7 85 80 e3 ff ff 	movq   $0x0,-0x1c80(%rbp)
   1131f:	00 00 00 00 
   11323:	48 c7 85 88 e3 ff ff 	movq   $0x0,-0x1c78(%rbp)
   1132a:	00 00 00 00 
   1132e:	48 c7 85 90 e3 ff ff 	movq   $0x0,-0x1c70(%rbp)
   11335:	00 00 00 00 
   11339:	48 c7 85 98 e3 ff ff 	movq   $0x0,-0x1c68(%rbp)
   11340:	00 00 00 00 
   11344:	48 c7 85 a0 e3 ff ff 	movq   $0x0,-0x1c60(%rbp)
   1134b:	00 00 00 00 
   1134f:	48 8d 85 70 e3 ff ff 	lea    -0x1c90(%rbp),%rax
   11356:	48 89 85 c0 e0 ff ff 	mov    %rax,-0x1f40(%rbp)
   1135d:	48 8d 05 1c e4 00 00 	lea    0xe41c(%rip),%rax        # 1f780 <g_368>
   11364:	48 89 85 c8 e0 ff ff 	mov    %rax,-0x1f38(%rbp)
   1136b:	48 c7 85 28 e0 ff ff 	movq   $0x0,-0x1fd8(%rbp)
   11372:	00 00 00 00 
   11376:	c7 85 28 e0 ff ff ff 	movl   $0x6cc4d0ff,-0x1fd8(%rbp)
   1137d:	d0 c4 6c 
   11380:	48 c7 85 70 e4 ff ff 	movq   $0x0,-0x1b90(%rbp)
   11387:	00 00 00 00 
   1138b:	48 c7 85 78 e4 ff ff 	movq   $0x0,-0x1b88(%rbp)
   11392:	00 00 00 00 
   11396:	48 8d 85 e8 df ff ff 	lea    -0x2018(%rbp),%rax
   1139d:	48 89 85 80 e4 ff ff 	mov    %rax,-0x1b80(%rbp)
   113a4:	48 8d 85 e8 df ff ff 	lea    -0x2018(%rbp),%rax
   113ab:	48 89 85 88 e4 ff ff 	mov    %rax,-0x1b78(%rbp)
   113b2:	48 8d 85 e8 df ff ff 	lea    -0x2018(%rbp),%rax
   113b9:	48 89 85 90 e4 ff ff 	mov    %rax,-0x1b70(%rbp)
   113c0:	48 8d 85 e8 df ff ff 	lea    -0x2018(%rbp),%rax
   113c7:	48 89 85 98 e4 ff ff 	mov    %rax,-0x1b68(%rbp)
   113ce:	48 8d 85 e8 df ff ff 	lea    -0x2018(%rbp),%rax
   113d5:	48 89 85 a0 e4 ff ff 	mov    %rax,-0x1b60(%rbp)
   113dc:	48 8d 85 e8 df ff ff 	lea    -0x2018(%rbp),%rax
   113e3:	48 89 85 a8 e4 ff ff 	mov    %rax,-0x1b58(%rbp)
   113ea:	48 8d 85 e8 df ff ff 	lea    -0x2018(%rbp),%rax
   113f1:	48 89 85 b0 e4 ff ff 	mov    %rax,-0x1b50(%rbp)
   113f8:	48 8d 85 e8 df ff ff 	lea    -0x2018(%rbp),%rax
   113ff:	48 89 85 b8 e4 ff ff 	mov    %rax,-0x1b48(%rbp)
   11406:	48 8d 85 e8 df ff ff 	lea    -0x2018(%rbp),%rax
   1140d:	48 89 85 c0 e4 ff ff 	mov    %rax,-0x1b40(%rbp)
   11414:	48 8d 85 e8 df ff ff 	lea    -0x2018(%rbp),%rax
   1141b:	48 89 85 c8 e4 ff ff 	mov    %rax,-0x1b38(%rbp)
   11422:	48 c7 85 d0 e4 ff ff 	movq   $0x0,-0x1b30(%rbp)
   11429:	00 00 00 00 
   1142d:	48 c7 85 d8 e4 ff ff 	movq   $0x0,-0x1b28(%rbp)
   11434:	00 00 00 00 
   11438:	48 8d 85 e8 df ff ff 	lea    -0x2018(%rbp),%rax
   1143f:	48 89 85 e0 e4 ff ff 	mov    %rax,-0x1b20(%rbp)
   11446:	48 8d 05 9b cd 00 00 	lea    0xcd9b(%rip),%rax        # 1e1e8 <g_174>
   1144d:	48 89 85 e8 e4 ff ff 	mov    %rax,-0x1b18(%rbp)
   11454:	48 8d 05 8d cd 00 00 	lea    0xcd8d(%rip),%rax        # 1e1e8 <g_174>
   1145b:	48 89 85 f0 e4 ff ff 	mov    %rax,-0x1b10(%rbp)
   11462:	48 8d 85 e8 df ff ff 	lea    -0x2018(%rbp),%rax
   11469:	48 89 85 f8 e4 ff ff 	mov    %rax,-0x1b08(%rbp)
   11470:	48 c7 85 00 e5 ff ff 	movq   $0x0,-0x1b00(%rbp)
   11477:	00 00 00 00 
   1147b:	48 c7 85 08 e5 ff ff 	movq   $0x0,-0x1af8(%rbp)
   11482:	00 00 00 00 
   11486:	48 8d 85 e8 df ff ff 	lea    -0x2018(%rbp),%rax
   1148d:	48 89 85 10 e5 ff ff 	mov    %rax,-0x1af0(%rbp)
   11494:	48 8d 85 e8 df ff ff 	lea    -0x2018(%rbp),%rax
   1149b:	48 89 85 18 e5 ff ff 	mov    %rax,-0x1ae8(%rbp)
   114a2:	48 8d 85 e8 df ff ff 	lea    -0x2018(%rbp),%rax
   114a9:	48 89 85 20 e5 ff ff 	mov    %rax,-0x1ae0(%rbp)
   114b0:	48 8d 85 e8 df ff ff 	lea    -0x2018(%rbp),%rax
   114b7:	48 89 85 28 e5 ff ff 	mov    %rax,-0x1ad8(%rbp)
   114be:	48 8d 85 e8 df ff ff 	lea    -0x2018(%rbp),%rax
   114c5:	48 89 85 30 e5 ff ff 	mov    %rax,-0x1ad0(%rbp)
   114cc:	48 8d 85 e8 df ff ff 	lea    -0x2018(%rbp),%rax
   114d3:	48 89 85 38 e5 ff ff 	mov    %rax,-0x1ac8(%rbp)
   114da:	48 8d 85 e8 df ff ff 	lea    -0x2018(%rbp),%rax
   114e1:	48 89 85 40 e5 ff ff 	mov    %rax,-0x1ac0(%rbp)
   114e8:	48 8d 85 e8 df ff ff 	lea    -0x2018(%rbp),%rax
   114ef:	48 89 85 48 e5 ff ff 	mov    %rax,-0x1ab8(%rbp)
   114f6:	48 8d 85 e8 df ff ff 	lea    -0x2018(%rbp),%rax
   114fd:	48 89 85 50 e5 ff ff 	mov    %rax,-0x1ab0(%rbp)
   11504:	48 8d 85 e8 df ff ff 	lea    -0x2018(%rbp),%rax
   1150b:	48 89 85 58 e5 ff ff 	mov    %rax,-0x1aa8(%rbp)
   11512:	48 c7 85 60 e5 ff ff 	movq   $0x0,-0x1aa0(%rbp)
   11519:	00 00 00 00 
   1151d:	48 c7 85 68 e5 ff ff 	movq   $0x0,-0x1a98(%rbp)
   11524:	00 00 00 00 
   11528:	48 8d 85 e8 df ff ff 	lea    -0x2018(%rbp),%rax
   1152f:	48 89 85 70 e5 ff ff 	mov    %rax,-0x1a90(%rbp)
   11536:	48 8d 05 ab cc 00 00 	lea    0xccab(%rip),%rax        # 1e1e8 <g_174>
   1153d:	48 89 85 78 e5 ff ff 	mov    %rax,-0x1a88(%rbp)
   11544:	48 8d 05 9d cc 00 00 	lea    0xcc9d(%rip),%rax        # 1e1e8 <g_174>
   1154b:	48 89 85 80 e5 ff ff 	mov    %rax,-0x1a80(%rbp)
   11552:	48 8d 85 e8 df ff ff 	lea    -0x2018(%rbp),%rax
   11559:	48 89 85 88 e5 ff ff 	mov    %rax,-0x1a78(%rbp)
   11560:	48 c7 85 30 e0 ff ff 	movq   $0x0,-0x1fd0(%rbp)
   11567:	00 00 00 00 
   1156b:	48 8d 85 30 e0 ff ff 	lea    -0x1fd0(%rbp),%rax
   11572:	48 89 85 d0 e0 ff ff 	mov    %rax,-0x1f30(%rbp)
   11579:	c7 85 54 df ff ff 00 	movl   $0x0,-0x20ac(%rbp)
   11580:	00 00 00 
   11583:	c7 85 58 df ff ff fb 	movl   $0x468066fb,-0x20a8(%rbp)
   1158a:	66 80 46 
   1158d:	c7 85 90 e2 ff ff cd 	movl   $0x48bca8cd,-0x1d70(%rbp)
   11594:	a8 bc 48 
   11597:	c7 85 94 e2 ff ff cd 	movl   $0x48bca8cd,-0x1d6c(%rbp)
   1159e:	a8 bc 48 
   115a1:	c7 85 98 e2 ff ff cd 	movl   $0x48bca8cd,-0x1d68(%rbp)
   115a8:	a8 bc 48 
   115ab:	c7 85 9c e2 ff ff cd 	movl   $0x48bca8cd,-0x1d64(%rbp)
   115b2:	a8 bc 48 
   115b5:	c7 85 a0 e2 ff ff cd 	movl   $0x48bca8cd,-0x1d60(%rbp)
   115bc:	a8 bc 48 
   115bf:	c7 85 a4 e2 ff ff cd 	movl   $0x48bca8cd,-0x1d5c(%rbp)
   115c6:	a8 bc 48 
   115c9:	c7 85 a8 e2 ff ff cd 	movl   $0x48bca8cd,-0x1d58(%rbp)
   115d0:	a8 bc 48 
   115d3:	c7 85 ac e2 ff ff cd 	movl   $0x48bca8cd,-0x1d54(%rbp)
   115da:	a8 bc 48 
   115dd:	c6 85 43 df ff ff 14 	movb   $0x14,-0x20bd(%rbp)
   115e4:	48 8d 05 49 ca 00 00 	lea    0xca49(%rip),%rax        # 1e034 <g_71+0x4>
   115eb:	48 89 85 f0 e3 ff ff 	mov    %rax,-0x1c10(%rbp)
   115f2:	48 8d 85 70 e2 ff ff 	lea    -0x1d90(%rbp),%rax
   115f9:	48 89 85 f8 e3 ff ff 	mov    %rax,-0x1c08(%rbp)
   11600:	48 8d 05 2d ca 00 00 	lea    0xca2d(%rip),%rax        # 1e034 <g_71+0x4>
   11607:	48 89 85 00 e4 ff ff 	mov    %rax,-0x1c00(%rbp)
   1160e:	48 8d 05 1f ca 00 00 	lea    0xca1f(%rip),%rax        # 1e034 <g_71+0x4>
   11615:	48 89 85 08 e4 ff ff 	mov    %rax,-0x1bf8(%rbp)
   1161c:	48 8d 85 70 e2 ff ff 	lea    -0x1d90(%rbp),%rax
   11623:	48 89 85 10 e4 ff ff 	mov    %rax,-0x1bf0(%rbp)
   1162a:	48 8d 85 70 e2 ff ff 	lea    -0x1d90(%rbp),%rax
   11631:	48 89 85 18 e4 ff ff 	mov    %rax,-0x1be8(%rbp)
   11638:	48 8d 05 f5 c9 00 00 	lea    0xc9f5(%rip),%rax        # 1e034 <g_71+0x4>
   1163f:	48 89 85 20 e4 ff ff 	mov    %rax,-0x1be0(%rbp)
   11646:	48 8d 05 e7 c9 00 00 	lea    0xc9e7(%rip),%rax        # 1e034 <g_71+0x4>
   1164d:	48 89 85 28 e4 ff ff 	mov    %rax,-0x1bd8(%rbp)
   11654:	48 8d 85 70 e2 ff ff 	lea    -0x1d90(%rbp),%rax
   1165b:	48 89 85 30 e4 ff ff 	mov    %rax,-0x1bd0(%rbp)
   11662:	48 8d 05 cb c9 00 00 	lea    0xc9cb(%rip),%rax        # 1e034 <g_71+0x4>
   11669:	48 89 85 38 e4 ff ff 	mov    %rax,-0x1bc8(%rbp)
   11670:	48 8d 85 70 e2 ff ff 	lea    -0x1d90(%rbp),%rax
   11677:	48 89 85 40 e4 ff ff 	mov    %rax,-0x1bc0(%rbp)
   1167e:	48 8d 85 70 e2 ff ff 	lea    -0x1d90(%rbp),%rax
   11685:	48 89 85 48 e4 ff ff 	mov    %rax,-0x1bb8(%rbp)
   1168c:	48 8d 85 54 df ff ff 	lea    -0x20ac(%rbp),%rax
   11693:	48 89 85 50 e4 ff ff 	mov    %rax,-0x1bb0(%rbp)
   1169a:	48 8d 85 70 e2 ff ff 	lea    -0x1d90(%rbp),%rax
   116a1:	48 89 85 58 e4 ff ff 	mov    %rax,-0x1ba8(%rbp)
   116a8:	48 8d 85 70 e2 ff ff 	lea    -0x1d90(%rbp),%rax
   116af:	48 89 85 60 e4 ff ff 	mov    %rax,-0x1ba0(%rbp)
   116b6:	c7 85 90 df ff ff ff 	movl   $0xffffffff,-0x2070(%rbp)
   116bd:	ff ff ff 
   116c0:	c7 85 94 df ff ff 21 	movl   $0xf7bcba21,-0x206c(%rbp)
   116c7:	ba bc f7 
   116ca:	c7 85 68 df ff ff 00 	movl   $0x0,-0x2098(%rbp)
   116d1:	00 00 00 
   116d4:	eb 52                	jmp    11728 <func_44+0x72a>
   116d6:	c7 85 6c df ff ff 00 	movl   $0x0,-0x2094(%rbp)
   116dd:	00 00 00 
   116e0:	eb 36                	jmp    11718 <func_44+0x71a>
   116e2:	8b 85 6c df ff ff    	mov    -0x2094(%rbp),%eax
   116e8:	48 63 c8             	movslq %eax,%rcx
   116eb:	8b 85 68 df ff ff    	mov    -0x2098(%rbp),%eax
   116f1:	48 63 d0             	movslq %eax,%rdx
   116f4:	48 89 d0             	mov    %rdx,%rax
   116f7:	48 c1 e0 03          	shl    $0x3,%rax
   116fb:	48 29 d0             	sub    %rdx,%rax
   116fe:	48 8d 14 08          	lea    (%rax,%rcx,1),%rdx
   11702:	48 8d 85 f0 df ff ff 	lea    -0x2010(%rbp),%rax
   11709:	48 89 84 d5 f0 e2 ff 	mov    %rax,-0x1d10(%rbp,%rdx,8)
   11710:	ff 
   11711:	83 85 6c df ff ff 01 	addl   $0x1,-0x2094(%rbp)
   11718:	83 bd 6c df ff ff 06 	cmpl   $0x6,-0x2094(%rbp)
   1171f:	7e c1                	jle    116e2 <func_44+0x6e4>
   11721:	83 85 68 df ff ff 01 	addl   $0x1,-0x2098(%rbp)
   11728:	83 bd 68 df ff ff 00 	cmpl   $0x0,-0x2098(%rbp)
   1172f:	7e a5                	jle    116d6 <func_44+0x6d8>
   11731:	c7 85 68 df ff ff 00 	movl   $0x0,-0x2098(%rbp)
   11738:	00 00 00 
   1173b:	eb 1e                	jmp    1175b <func_44+0x75d>
   1173d:	8b 85 68 df ff ff    	mov    -0x2098(%rbp),%eax
   11743:	48 98                	cltq   
   11745:	48 8d 15 5c cb 00 00 	lea    0xcb5c(%rip),%rdx        # 1e2a8 <g_452>
   1174c:	48 89 94 c5 30 e3 ff 	mov    %rdx,-0x1cd0(%rbp,%rax,8)
   11753:	ff 
   11754:	83 85 68 df ff ff 01 	addl   $0x1,-0x2098(%rbp)
   1175b:	83 bd 68 df ff ff 06 	cmpl   $0x6,-0x2098(%rbp)
   11762:	7e d9                	jle    1173d <func_44+0x73f>
   11764:	48 8b 95 08 e0 ff ff 	mov    -0x1ff8(%rbp),%rdx
   1176b:	48 8b 85 b8 e0 ff ff 	mov    -0x1f48(%rbp),%rax
   11772:	48 89 10             	mov    %rdx,(%rax)
   11775:	c6 05 a8 c8 00 00 f6 	movb   $0xf6,0xc8a8(%rip)        # 1e024 <g_9>
   1177c:	90                   	nop
   1177d:	0f b6 05 a0 c8 00 00 	movzbl 0xc8a0(%rip),%eax        # 1e024 <g_9>
   11784:	3c 15                	cmp    $0x15,%al
   11786:	0f 8e f8 2f 00 00    	jle    14784 <func_44+0x3786>
   1178c:	48 8d 05 bd ca 00 00 	lea    0xcabd(%rip),%rax        # 1e250 <g_376>
   11793:	48 89 85 70 e1 ff ff 	mov    %rax,-0x1e90(%rbp)
   1179a:	48 8d 05 17 cb 00 00 	lea    0xcb17(%rip),%rax        # 1e2b8 <g_583>
   117a1:	48 89 85 78 e1 ff ff 	mov    %rax,-0x1e88(%rbp)
   117a8:	48 c7 85 80 e1 ff ff 	movq   $0x0,-0x1e80(%rbp)
   117af:	00 00 00 00 
   117b3:	48 8d 05 2e ca 00 00 	lea    0xca2e(%rip),%rax        # 1e1e8 <g_174>
   117ba:	48 89 85 88 e1 ff ff 	mov    %rax,-0x1e78(%rbp)
   117c1:	48 8d 05 a8 c8 00 00 	lea    0xc8a8(%rip),%rax        # 1e070 <g_129+0x10>
   117c8:	48 89 85 90 e1 ff ff 	mov    %rax,-0x1e70(%rbp)
   117cf:	48 b8 51 53 a9 ac 16 	movabs $0xcede1f16aca95351,%rax
   117d6:	1f de ce 
   117d9:	48 89 85 98 e1 ff ff 	mov    %rax,-0x1e68(%rbp)
   117e0:	48 8d 85 18 e0 ff ff 	lea    -0x1fe8(%rbp),%rax
   117e7:	48 89 85 38 e0 ff ff 	mov    %rax,-0x1fc8(%rbp)
   117ee:	48 8d 85 38 e0 ff ff 	lea    -0x1fc8(%rbp),%rax
   117f5:	48 89 85 40 e0 ff ff 	mov    %rax,-0x1fc0(%rbp)
   117fc:	48 c7 85 a0 e1 ff ff 	movq   $0x0,-0x1e60(%rbp)
   11803:	00 00 00 00 
   11807:	48 8d 05 2a c8 00 00 	lea    0xc82a(%rip),%rax        # 1e038 <g_71+0x8>
   1180e:	48 89 85 a8 e1 ff ff 	mov    %rax,-0x1e58(%rbp)
   11815:	c7 85 d4 df ff ff cf 	movl   $0xb6d94ccf,-0x202c(%rbp)
   1181c:	4c d9 b6 
   1181f:	48 c7 85 48 e0 ff ff 	movq   $0x0,-0x1fb8(%rbp)
   11826:	00 00 00 00 
   1182a:	c7 85 48 e0 ff ff 09 	movl   $0x9916c09,-0x1fb8(%rbp)
   11831:	6c 91 09 
   11834:	48 8d 95 90 e5 ff ff 	lea    -0x1a70(%rbp),%rdx
   1183b:	b8 00 00 00 00       	mov    $0x0,%eax
   11840:	b9 24 00 00 00       	mov    $0x24,%ecx
   11845:	48 89 d7             	mov    %rdx,%rdi
   11848:	f3 48 ab             	rep stos %rax,%es:(%rdi)
   1184b:	c7 85 90 e5 ff ff 23 	movl   $0xf0d90f23,-0x1a70(%rbp)
   11852:	0f d9 f0 
   11855:	c7 85 98 e5 ff ff 23 	movl   $0xf0d90f23,-0x1a68(%rbp)
   1185c:	0f d9 f0 
   1185f:	c7 85 a0 e5 ff ff f8 	movl   $0xfffffff8,-0x1a60(%rbp)
   11866:	ff ff ff 
   11869:	c7 85 a8 e5 ff ff 45 	movl   $0xa7fc9645,-0x1a58(%rbp)
   11870:	96 fc a7 
   11873:	c7 85 b0 e5 ff ff 45 	movl   $0xa7fc9645,-0x1a50(%rbp)
   1187a:	96 fc a7 
   1187d:	c7 85 b8 e5 ff ff fe 	movl   $0xfffffffe,-0x1a48(%rbp)
   11884:	ff ff ff 
   11887:	c7 85 c0 e5 ff ff f8 	movl   $0xfffffff8,-0x1a40(%rbp)
   1188e:	ff ff ff 
   11891:	c7 85 c8 e5 ff ff fe 	movl   $0xfffffffe,-0x1a38(%rbp)
   11898:	ff ff ff 
   1189b:	c7 85 d0 e5 ff ff 23 	movl   $0xf0d90f23,-0x1a30(%rbp)
   118a2:	0f d9 f0 
   118a5:	c7 85 e0 e5 ff ff f8 	movl   $0xfffffff8,-0x1a20(%rbp)
   118ac:	ff ff ff 
   118af:	c7 85 e8 e5 ff ff 23 	movl   $0xf0d90f23,-0x1a18(%rbp)
   118b6:	0f d9 f0 
   118b9:	c7 85 f8 e5 ff ff 45 	movl   $0xa7fc9645,-0x1a08(%rbp)
   118c0:	96 fc a7 
   118c3:	c7 85 00 e6 ff ff 45 	movl   $0xa7fc9645,-0x1a00(%rbp)
   118ca:	96 fc a7 
   118cd:	c7 85 10 e6 ff ff 45 	movl   $0xa7fc9645,-0x19f0(%rbp)
   118d4:	96 fc a7 
   118d7:	c7 85 20 e6 ff ff 9e 	movl   $0x8338a99e,-0x19e0(%rbp)
   118de:	a9 38 83 
   118e1:	c7 85 28 e6 ff ff f6 	movl   $0xfffffff6,-0x19d8(%rbp)
   118e8:	ff ff ff 
   118eb:	c7 85 30 e6 ff ff 45 	movl   $0xa7fc9645,-0x19d0(%rbp)
   118f2:	96 fc a7 
   118f5:	c7 85 38 e6 ff ff 9e 	movl   $0x8338a99e,-0x19c8(%rbp)
   118fc:	a9 38 83 
   118ff:	c7 85 40 e6 ff ff 45 	movl   $0xa7fc9645,-0x19c0(%rbp)
   11906:	96 fc a7 
   11909:	c7 85 48 e6 ff ff f8 	movl   $0xfffffff8,-0x19b8(%rbp)
   11910:	ff ff ff 
   11913:	c7 85 58 e6 ff ff f6 	movl   $0xfffffff6,-0x19a8(%rbp)
   1191a:	ff ff ff 
   1191d:	c7 85 60 e6 ff ff f8 	movl   $0xfffffff8,-0x19a0(%rbp)
   11924:	ff ff ff 
   11927:	c7 85 68 e6 ff ff f8 	movl   $0xfffffff8,-0x1998(%rbp)
   1192e:	ff ff ff 
   11931:	c7 85 70 e6 ff ff 9e 	movl   $0x8338a99e,-0x1990(%rbp)
   11938:	a9 38 83 
   1193b:	c7 85 78 e6 ff ff 9e 	movl   $0x8338a99e,-0x1988(%rbp)
   11942:	a9 38 83 
   11945:	c7 85 80 e6 ff ff 23 	movl   $0xf0d90f23,-0x1980(%rbp)
   1194c:	0f d9 f0 
   1194f:	c7 85 88 e6 ff ff f6 	movl   $0xfffffff6,-0x1978(%rbp)
   11956:	ff ff ff 
   11959:	c7 85 90 e6 ff ff f6 	movl   $0xfffffff6,-0x1970(%rbp)
   11960:	ff ff ff 
   11963:	c7 85 a0 e6 ff ff 23 	movl   $0xf0d90f23,-0x1960(%rbp)
   1196a:	0f d9 f0 
   1196d:	c7 85 d8 df ff ff 09 	movl   $0x1a2f0609,-0x2028(%rbp)
   11974:	06 2f 1a 
   11977:	48 8d 05 be c6 00 00 	lea    0xc6be(%rip),%rax        # 1e03c <g_71+0xc>
   1197e:	48 89 85 b0 e1 ff ff 	mov    %rax,-0x1e50(%rbp)
   11985:	44 8b a5 50 df ff ff 	mov    -0x20b0(%rbp),%r12d
   1198c:	0f b7 05 a5 c8 00 00 	movzwl 0xc8a5(%rip),%eax        # 1e238 <g_198+0x18>
   11993:	0f b7 d0             	movzwl %ax,%edx
   11996:	8b 05 18 c9 00 00    	mov    0xc918(%rip),%eax        # 1e2b4 <g_580>
   1199c:	09 d0                	or     %edx,%eax
   1199e:	89 c2                	mov    %eax,%edx
   119a0:	8b 85 50 df ff ff    	mov    -0x20b0(%rbp),%eax
   119a6:	0f be c0             	movsbl %al,%eax
   119a9:	89 d6                	mov    %edx,%esi
   119ab:	89 c7                	mov    %eax,%edi
   119ad:	e8 ef 48 ff ff       	callq  62a1 <safe_lshift_func_int8_t_s_s>
   119b2:	66 0f be d0          	movsbw %al,%dx
   119b6:	48 8b 85 70 e1 ff ff 	mov    -0x1e90(%rbp),%rax
   119bd:	66 89 10             	mov    %dx,(%rax)
   119c0:	48 8b 85 70 e1 ff ff 	mov    -0x1e90(%rbp),%rax
   119c7:	0f b7 00             	movzwl (%rax),%eax
   119ca:	0f bf d8             	movswl %ax,%ebx
   119cd:	48 8b 85 38 df ff ff 	mov    -0x20c8(%rbp),%rax
   119d4:	0f b6 00             	movzbl (%rax),%eax
   119d7:	0f be c0             	movsbl %al,%eax
   119da:	89 c7                	mov    %eax,%edi
   119dc:	e8 de 47 ff ff       	callq  61bf <safe_unary_minus_func_int8_t_s>
   119e1:	0f be c0             	movsbl %al,%eax
   119e4:	89 de                	mov    %ebx,%esi
   119e6:	89 c7                	mov    %eax,%edi
   119e8:	e8 29 4a ff ff       	callq  6416 <safe_mod_func_int16_t_s_s>
   119ed:	98                   	cwtl   
   119ee:	f7 d0                	not    %eax
   119f0:	48 63 d0             	movslq %eax,%rdx
   119f3:	48 8b 85 78 e1 ff ff 	mov    -0x1e88(%rbp),%rax
   119fa:	48 89 10             	mov    %rdx,(%rax)
   119fd:	48 8b 85 78 e1 ff ff 	mov    -0x1e88(%rbp),%rax
   11a04:	48 8b 00             	mov    (%rax),%rax
   11a07:	49 89 c6             	mov    %rax,%r14
   11a0a:	48 8b 85 88 e1 ff ff 	mov    -0x1e78(%rbp),%rax
   11a11:	48 8b 18             	mov    (%rax),%rbx
   11a14:	48 8d 53 ff          	lea    -0x1(%rbx),%rdx
   11a18:	48 8b 85 88 e1 ff ff 	mov    -0x1e78(%rbp),%rax
   11a1f:	48 89 10             	mov    %rdx,(%rax)
   11a22:	8b 85 34 df ff ff    	mov    -0x20cc(%rbp),%eax
   11a28:	44 0f b7 e8          	movzwl %ax,%r13d
   11a2c:	8b 95 50 df ff ff    	mov    -0x20b0(%rbp),%edx
   11a32:	8b 85 50 df ff ff    	mov    -0x20b0(%rbp),%eax
   11a38:	0f b7 c0             	movzwl %ax,%eax
   11a3b:	89 d6                	mov    %edx,%esi
   11a3d:	89 c7                	mov    %eax,%edi
   11a3f:	e8 7a 53 ff ff       	callq  6dbe <safe_lshift_func_uint16_t_u_s>
   11a44:	0f b7 c0             	movzwl %ax,%eax
   11a47:	44 89 ee             	mov    %r13d,%esi
   11a4a:	89 c7                	mov    %eax,%edi
   11a4c:	e8 0b 53 ff ff       	callq  6d5c <safe_mod_func_uint16_t_u_u>
   11a51:	0f b6 85 18 df ff ff 	movzbl -0x20e8(%rbp),%eax
   11a58:	0f b6 c0             	movzbl %al,%eax
   11a5b:	be 05 00 00 00       	mov    $0x5,%esi
   11a60:	89 c7                	mov    %eax,%edi
   11a62:	e8 26 52 ff ff       	callq  6c8d <safe_rshift_func_uint8_t_u_s>
   11a67:	0f b6 c0             	movzbl %al,%eax
   11a6a:	48 21 d8             	and    %rbx,%rax
   11a6d:	49 39 c6             	cmp    %rax,%r14
   11a70:	0f 92 c0             	setb   %al
   11a73:	0f b6 c0             	movzbl %al,%eax
   11a76:	be ff ff ff ff       	mov    $0xffffffff,%esi
   11a7b:	89 c7                	mov    %eax,%edi
   11a7d:	e8 73 49 ff ff       	callq  63f5 <safe_mul_func_int16_t_s_s>
   11a82:	48 8b 95 90 e1 ff ff 	mov    -0x1e70(%rbp),%rdx
   11a89:	66 89 02             	mov    %ax,(%rdx)
   11a8c:	48 8b 85 90 e1 ff ff 	mov    -0x1e70(%rbp),%rax
   11a93:	0f b7 00             	movzwl (%rax),%eax
   11a96:	0f bf d0             	movswl %ax,%edx
   11a99:	8b 85 34 df ff ff    	mov    -0x20cc(%rbp),%eax
   11a9f:	98                   	cwtl   
   11aa0:	89 d6                	mov    %edx,%esi
   11aa2:	89 c7                	mov    %eax,%edi
   11aa4:	e8 e9 49 ff ff       	callq  6492 <safe_lshift_func_int16_t_s_s>
   11aa9:	66 39 85 4a df ff ff 	cmp    %ax,-0x20b6(%rbp)
   11ab0:	0f 9f c0             	setg   %al
   11ab3:	0f b6 c0             	movzbl %al,%eax
   11ab6:	44 89 e6             	mov    %r12d,%esi
   11ab9:	89 c7                	mov    %eax,%edi
   11abb:	e8 45 4b ff ff       	callq  6605 <safe_sub_func_int32_t_s_s>
   11ac0:	85 c0                	test   %eax,%eax
   11ac2:	0f 84 48 1a 00 00    	je     13510 <func_44+0x2512>
   11ac8:	48 c7 85 f0 e1 ff ff 	movq   $0x0,-0x1e10(%rbp)
   11acf:	00 00 00 00 
   11ad3:	c7 85 5c df ff ff 08 	movl   $0x8,-0x20a4(%rbp)
   11ada:	00 00 00 
   11add:	48 8d 05 cc c7 00 00 	lea    0xc7cc(%rip),%rax        # 1e2b0 <g_505>
   11ae4:	48 89 85 50 e0 ff ff 	mov    %rax,-0x1fb0(%rbp)
   11aeb:	48 c7 85 f8 e1 ff ff 	movq   $0x0,-0x1e08(%rbp)
   11af2:	00 00 00 00 
   11af6:	48 c7 85 00 e2 ff ff 	movq   $0x0,-0x1e00(%rbp)
   11afd:	00 00 00 00 
   11b01:	66 c7 85 4a df ff ff 	movw   $0x0,-0x20b6(%rbp)
   11b08:	00 00 
   11b0a:	e9 e7 19 00 00       	jmpq   134f6 <func_44+0x24f8>
   11b0f:	48 8d 85 f0 e2 ff ff 	lea    -0x1d10(%rbp),%rax
   11b16:	48 83 c0 10          	add    $0x10,%rax
   11b1a:	48 89 85 70 e8 ff ff 	mov    %rax,-0x1790(%rbp)
   11b21:	48 8d 05 08 f1 00 00 	lea    0xf108(%rip),%rax        # 20c30 <g_532>
   11b28:	48 89 85 78 e8 ff ff 	mov    %rax,-0x1788(%rbp)
   11b2f:	48 8d 85 f0 e2 ff ff 	lea    -0x1d10(%rbp),%rax
   11b36:	48 83 c0 20          	add    $0x20,%rax
   11b3a:	48 89 85 80 e8 ff ff 	mov    %rax,-0x1780(%rbp)
   11b41:	48 8d 05 e8 f0 00 00 	lea    0xf0e8(%rip),%rax        # 20c30 <g_532>
   11b48:	48 89 85 88 e8 ff ff 	mov    %rax,-0x1778(%rbp)
   11b4f:	48 8d 05 da f0 00 00 	lea    0xf0da(%rip),%rax        # 20c30 <g_532>
   11b56:	48 89 85 90 e8 ff ff 	mov    %rax,-0x1770(%rbp)
   11b5d:	48 8d 05 cc f0 00 00 	lea    0xf0cc(%rip),%rax        # 20c30 <g_532>
   11b64:	48 89 85 98 e8 ff ff 	mov    %rax,-0x1768(%rbp)
   11b6b:	48 8d 85 f0 e2 ff ff 	lea    -0x1d10(%rbp),%rax
   11b72:	48 83 c0 20          	add    $0x20,%rax
   11b76:	48 89 85 a0 e8 ff ff 	mov    %rax,-0x1760(%rbp)
   11b7d:	48 8d 05 ac f0 00 00 	lea    0xf0ac(%rip),%rax        # 20c30 <g_532>
   11b84:	48 89 85 a8 e8 ff ff 	mov    %rax,-0x1758(%rbp)
   11b8b:	48 8d 85 f0 e2 ff ff 	lea    -0x1d10(%rbp),%rax
   11b92:	48 83 c0 10          	add    $0x10,%rax
   11b96:	48 89 85 b0 e8 ff ff 	mov    %rax,-0x1750(%rbp)
   11b9d:	48 8d 85 f0 e2 ff ff 	lea    -0x1d10(%rbp),%rax
   11ba4:	48 83 c0 10          	add    $0x10,%rax
   11ba8:	48 89 85 b8 e8 ff ff 	mov    %rax,-0x1748(%rbp)
   11baf:	48 8d 85 f0 e2 ff ff 	lea    -0x1d10(%rbp),%rax
   11bb6:	48 83 c0 10          	add    $0x10,%rax
   11bba:	48 89 85 c0 e8 ff ff 	mov    %rax,-0x1740(%rbp)
   11bc1:	48 8d 05 68 f0 00 00 	lea    0xf068(%rip),%rax        # 20c30 <g_532>
   11bc8:	48 89 85 c8 e8 ff ff 	mov    %rax,-0x1738(%rbp)
   11bcf:	48 8d 85 f0 e2 ff ff 	lea    -0x1d10(%rbp),%rax
   11bd6:	48 83 c0 20          	add    $0x20,%rax
   11bda:	48 89 85 d0 e8 ff ff 	mov    %rax,-0x1730(%rbp)
   11be1:	48 8d 05 48 f0 00 00 	lea    0xf048(%rip),%rax        # 20c30 <g_532>
   11be8:	48 89 85 d8 e8 ff ff 	mov    %rax,-0x1728(%rbp)
   11bef:	48 8d 05 3a f0 00 00 	lea    0xf03a(%rip),%rax        # 20c30 <g_532>
   11bf6:	48 89 85 e0 e8 ff ff 	mov    %rax,-0x1720(%rbp)
   11bfd:	48 8d 05 2c f0 00 00 	lea    0xf02c(%rip),%rax        # 20c30 <g_532>
   11c04:	48 89 85 e8 e8 ff ff 	mov    %rax,-0x1718(%rbp)
   11c0b:	48 8d 85 f0 e2 ff ff 	lea    -0x1d10(%rbp),%rax
   11c12:	48 83 c0 20          	add    $0x20,%rax
   11c16:	48 89 85 f0 e8 ff ff 	mov    %rax,-0x1710(%rbp)
   11c1d:	48 8d 05 0c f0 00 00 	lea    0xf00c(%rip),%rax        # 20c30 <g_532>
   11c24:	48 89 85 f8 e8 ff ff 	mov    %rax,-0x1708(%rbp)
   11c2b:	48 8d 85 f0 e2 ff ff 	lea    -0x1d10(%rbp),%rax
   11c32:	48 83 c0 10          	add    $0x10,%rax
   11c36:	48 89 85 00 e9 ff ff 	mov    %rax,-0x1700(%rbp)
   11c3d:	48 8d 85 f0 e2 ff ff 	lea    -0x1d10(%rbp),%rax
   11c44:	48 83 c0 10          	add    $0x10,%rax
   11c48:	48 89 85 08 e9 ff ff 	mov    %rax,-0x16f8(%rbp)
   11c4f:	48 8d 85 f0 e2 ff ff 	lea    -0x1d10(%rbp),%rax
   11c56:	48 83 c0 10          	add    $0x10,%rax
   11c5a:	48 89 85 10 e9 ff ff 	mov    %rax,-0x16f0(%rbp)
   11c61:	48 8d 05 c8 ef 00 00 	lea    0xefc8(%rip),%rax        # 20c30 <g_532>
   11c68:	48 89 85 18 e9 ff ff 	mov    %rax,-0x16e8(%rbp)
   11c6f:	48 8d 85 f0 e2 ff ff 	lea    -0x1d10(%rbp),%rax
   11c76:	48 83 c0 20          	add    $0x20,%rax
   11c7a:	48 89 85 20 e9 ff ff 	mov    %rax,-0x16e0(%rbp)
   11c81:	48 8d 05 a8 ef 00 00 	lea    0xefa8(%rip),%rax        # 20c30 <g_532>
   11c88:	48 89 85 28 e9 ff ff 	mov    %rax,-0x16d8(%rbp)
   11c8f:	48 8d 05 9a ef 00 00 	lea    0xef9a(%rip),%rax        # 20c30 <g_532>
   11c96:	48 89 85 30 e9 ff ff 	mov    %rax,-0x16d0(%rbp)
   11c9d:	48 8d 05 8c ef 00 00 	lea    0xef8c(%rip),%rax        # 20c30 <g_532>
   11ca4:	48 89 85 38 e9 ff ff 	mov    %rax,-0x16c8(%rbp)
   11cab:	48 8d 85 f0 e2 ff ff 	lea    -0x1d10(%rbp),%rax
   11cb2:	48 83 c0 20          	add    $0x20,%rax
   11cb6:	48 89 85 40 e9 ff ff 	mov    %rax,-0x16c0(%rbp)
   11cbd:	48 8d 05 6c ef 00 00 	lea    0xef6c(%rip),%rax        # 20c30 <g_532>
   11cc4:	48 89 85 48 e9 ff ff 	mov    %rax,-0x16b8(%rbp)
   11ccb:	48 8d 85 f0 e2 ff ff 	lea    -0x1d10(%rbp),%rax
   11cd2:	48 83 c0 10          	add    $0x10,%rax
   11cd6:	48 89 85 50 e9 ff ff 	mov    %rax,-0x16b0(%rbp)
   11cdd:	48 8d 85 f0 e2 ff ff 	lea    -0x1d10(%rbp),%rax
   11ce4:	48 83 c0 10          	add    $0x10,%rax
   11ce8:	48 89 85 58 e9 ff ff 	mov    %rax,-0x16a8(%rbp)
   11cef:	48 8d 85 f0 e2 ff ff 	lea    -0x1d10(%rbp),%rax
   11cf6:	48 83 c0 10          	add    $0x10,%rax
   11cfa:	48 89 85 60 e9 ff ff 	mov    %rax,-0x16a0(%rbp)
   11d01:	48 8d 05 28 ef 00 00 	lea    0xef28(%rip),%rax        # 20c30 <g_532>
   11d08:	48 89 85 68 e9 ff ff 	mov    %rax,-0x1698(%rbp)
   11d0f:	48 8d 85 f0 e2 ff ff 	lea    -0x1d10(%rbp),%rax
   11d16:	48 83 c0 20          	add    $0x20,%rax
   11d1a:	48 89 85 70 e9 ff ff 	mov    %rax,-0x1690(%rbp)
   11d21:	48 8d 05 08 ef 00 00 	lea    0xef08(%rip),%rax        # 20c30 <g_532>
   11d28:	48 89 85 78 e9 ff ff 	mov    %rax,-0x1688(%rbp)
   11d2f:	48 8d 05 fa ee 00 00 	lea    0xeefa(%rip),%rax        # 20c30 <g_532>
   11d36:	48 89 85 80 e9 ff ff 	mov    %rax,-0x1680(%rbp)
   11d3d:	48 8d 05 ec ee 00 00 	lea    0xeeec(%rip),%rax        # 20c30 <g_532>
   11d44:	48 89 85 88 e9 ff ff 	mov    %rax,-0x1678(%rbp)
   11d4b:	48 8d 85 f0 e2 ff ff 	lea    -0x1d10(%rbp),%rax
   11d52:	48 83 c0 20          	add    $0x20,%rax
   11d56:	48 89 85 90 e9 ff ff 	mov    %rax,-0x1670(%rbp)
   11d5d:	48 8d 05 cc ee 00 00 	lea    0xeecc(%rip),%rax        # 20c30 <g_532>
   11d64:	48 89 85 98 e9 ff ff 	mov    %rax,-0x1668(%rbp)
   11d6b:	48 8d 85 f0 e2 ff ff 	lea    -0x1d10(%rbp),%rax
   11d72:	48 83 c0 10          	add    $0x10,%rax
   11d76:	48 89 85 a0 e9 ff ff 	mov    %rax,-0x1660(%rbp)
   11d7d:	48 8d 85 f0 e2 ff ff 	lea    -0x1d10(%rbp),%rax
   11d84:	48 83 c0 10          	add    $0x10,%rax
   11d88:	48 89 85 a8 e9 ff ff 	mov    %rax,-0x1658(%rbp)
   11d8f:	48 8d 85 f0 e2 ff ff 	lea    -0x1d10(%rbp),%rax
   11d96:	48 83 c0 10          	add    $0x10,%rax
   11d9a:	48 89 85 b0 e9 ff ff 	mov    %rax,-0x1650(%rbp)
   11da1:	48 8d 05 88 ee 00 00 	lea    0xee88(%rip),%rax        # 20c30 <g_532>
   11da8:	48 89 85 b8 e9 ff ff 	mov    %rax,-0x1648(%rbp)
   11daf:	48 8d 85 f0 e2 ff ff 	lea    -0x1d10(%rbp),%rax
   11db6:	48 83 c0 20          	add    $0x20,%rax
   11dba:	48 89 85 c0 e9 ff ff 	mov    %rax,-0x1640(%rbp)
   11dc1:	48 8d 05 68 ee 00 00 	lea    0xee68(%rip),%rax        # 20c30 <g_532>
   11dc8:	48 89 85 c8 e9 ff ff 	mov    %rax,-0x1638(%rbp)
   11dcf:	48 8d 05 5a ee 00 00 	lea    0xee5a(%rip),%rax        # 20c30 <g_532>
   11dd6:	48 89 85 d0 e9 ff ff 	mov    %rax,-0x1630(%rbp)
   11ddd:	48 8d 05 4c ee 00 00 	lea    0xee4c(%rip),%rax        # 20c30 <g_532>
   11de4:	48 89 85 d8 e9 ff ff 	mov    %rax,-0x1628(%rbp)
   11deb:	48 8d 85 f0 e2 ff ff 	lea    -0x1d10(%rbp),%rax
   11df2:	48 83 c0 20          	add    $0x20,%rax
   11df6:	48 89 85 e0 e9 ff ff 	mov    %rax,-0x1620(%rbp)
   11dfd:	48 8d 05 2c ee 00 00 	lea    0xee2c(%rip),%rax        # 20c30 <g_532>
   11e04:	48 89 85 e8 e9 ff ff 	mov    %rax,-0x1618(%rbp)
   11e0b:	48 8d 85 f0 e2 ff ff 	lea    -0x1d10(%rbp),%rax
   11e12:	48 83 c0 10          	add    $0x10,%rax
   11e16:	48 89 85 f0 e9 ff ff 	mov    %rax,-0x1610(%rbp)
   11e1d:	48 8d 85 f0 e2 ff ff 	lea    -0x1d10(%rbp),%rax
   11e24:	48 83 c0 10          	add    $0x10,%rax
   11e28:	48 89 85 f8 e9 ff ff 	mov    %rax,-0x1608(%rbp)
   11e2f:	48 8d 85 f0 e2 ff ff 	lea    -0x1d10(%rbp),%rax
   11e36:	48 83 c0 10          	add    $0x10,%rax
   11e3a:	48 89 85 00 ea ff ff 	mov    %rax,-0x1600(%rbp)
   11e41:	48 8d 05 e8 ed 00 00 	lea    0xede8(%rip),%rax        # 20c30 <g_532>
   11e48:	48 89 85 08 ea ff ff 	mov    %rax,-0x15f8(%rbp)
   11e4f:	48 8d 85 f0 e2 ff ff 	lea    -0x1d10(%rbp),%rax
   11e56:	48 83 c0 20          	add    $0x20,%rax
   11e5a:	48 89 85 10 ea ff ff 	mov    %rax,-0x15f0(%rbp)
   11e61:	48 8d 05 c8 ed 00 00 	lea    0xedc8(%rip),%rax        # 20c30 <g_532>
   11e68:	48 89 85 18 ea ff ff 	mov    %rax,-0x15e8(%rbp)
   11e6f:	48 8d 05 ba ed 00 00 	lea    0xedba(%rip),%rax        # 20c30 <g_532>
   11e76:	48 89 85 20 ea ff ff 	mov    %rax,-0x15e0(%rbp)
   11e7d:	48 8d 05 ac ed 00 00 	lea    0xedac(%rip),%rax        # 20c30 <g_532>
   11e84:	48 89 85 28 ea ff ff 	mov    %rax,-0x15d8(%rbp)
   11e8b:	48 8d 85 f0 e2 ff ff 	lea    -0x1d10(%rbp),%rax
   11e92:	48 83 c0 20          	add    $0x20,%rax
   11e96:	48 89 85 30 ea ff ff 	mov    %rax,-0x15d0(%rbp)
   11e9d:	48 8d 05 8c ed 00 00 	lea    0xed8c(%rip),%rax        # 20c30 <g_532>
   11ea4:	48 89 85 38 ea ff ff 	mov    %rax,-0x15c8(%rbp)
   11eab:	48 8d 85 f0 e2 ff ff 	lea    -0x1d10(%rbp),%rax
   11eb2:	48 83 c0 10          	add    $0x10,%rax
   11eb6:	48 89 85 40 ea ff ff 	mov    %rax,-0x15c0(%rbp)
   11ebd:	48 8d 85 f0 e2 ff ff 	lea    -0x1d10(%rbp),%rax
   11ec4:	48 83 c0 10          	add    $0x10,%rax
   11ec8:	48 89 85 48 ea ff ff 	mov    %rax,-0x15b8(%rbp)
   11ecf:	48 8d 85 f0 e2 ff ff 	lea    -0x1d10(%rbp),%rax
   11ed6:	48 83 c0 10          	add    $0x10,%rax
   11eda:	48 89 85 50 ea ff ff 	mov    %rax,-0x15b0(%rbp)
   11ee1:	48 8d 05 48 ed 00 00 	lea    0xed48(%rip),%rax        # 20c30 <g_532>
   11ee8:	48 89 85 58 ea ff ff 	mov    %rax,-0x15a8(%rbp)
   11eef:	48 8d 85 f0 e2 ff ff 	lea    -0x1d10(%rbp),%rax
   11ef6:	48 83 c0 20          	add    $0x20,%rax
   11efa:	48 89 85 60 ea ff ff 	mov    %rax,-0x15a0(%rbp)
   11f01:	48 8d 05 28 ed 00 00 	lea    0xed28(%rip),%rax        # 20c30 <g_532>
   11f08:	48 89 85 68 ea ff ff 	mov    %rax,-0x1598(%rbp)
   11f0f:	48 8d 05 1a ed 00 00 	lea    0xed1a(%rip),%rax        # 20c30 <g_532>
   11f16:	48 89 85 70 ea ff ff 	mov    %rax,-0x1590(%rbp)
   11f1d:	48 8d 05 0c ed 00 00 	lea    0xed0c(%rip),%rax        # 20c30 <g_532>
   11f24:	48 89 85 78 ea ff ff 	mov    %rax,-0x1588(%rbp)
   11f2b:	48 8d 85 f0 e2 ff ff 	lea    -0x1d10(%rbp),%rax
   11f32:	48 83 c0 20          	add    $0x20,%rax
   11f36:	48 89 85 80 ea ff ff 	mov    %rax,-0x1580(%rbp)
   11f3d:	48 8d 05 ec ec 00 00 	lea    0xecec(%rip),%rax        # 20c30 <g_532>
   11f44:	48 89 85 88 ea ff ff 	mov    %rax,-0x1578(%rbp)
   11f4b:	48 8d 85 f0 e2 ff ff 	lea    -0x1d10(%rbp),%rax
   11f52:	48 83 c0 10          	add    $0x10,%rax
   11f56:	48 89 85 90 ea ff ff 	mov    %rax,-0x1570(%rbp)
   11f5d:	48 8d 85 f0 e2 ff ff 	lea    -0x1d10(%rbp),%rax
   11f64:	48 83 c0 10          	add    $0x10,%rax
   11f68:	48 89 85 98 ea ff ff 	mov    %rax,-0x1568(%rbp)
   11f6f:	48 8d 85 f0 e2 ff ff 	lea    -0x1d10(%rbp),%rax
   11f76:	48 83 c0 10          	add    $0x10,%rax
   11f7a:	48 89 85 a0 ea ff ff 	mov    %rax,-0x1560(%rbp)
   11f81:	48 8d 05 a8 ec 00 00 	lea    0xeca8(%rip),%rax        # 20c30 <g_532>
   11f88:	48 89 85 a8 ea ff ff 	mov    %rax,-0x1558(%rbp)
   11f8f:	48 c7 85 08 e2 ff ff 	movq   $0x0,-0x1df8(%rbp)
   11f96:	00 00 00 00 
   11f9a:	48 8d 85 b0 e6 ff ff 	lea    -0x1950(%rbp),%rax
   11fa1:	48 8d 15 78 ce 00 00 	lea    0xce78(%rip),%rdx        # 1ee20 <g_2753+0xad4>
   11fa8:	b9 38 00 00 00       	mov    $0x38,%ecx
   11fad:	48 89 c7             	mov    %rax,%rdi
   11fb0:	48 89 d6             	mov    %rdx,%rsi
   11fb3:	f3 48 a5             	rep movsq %ds:(%rsi),%es:(%rdi)
   11fb6:	c7 85 60 df ff ff d9 	movl   $0x29d120d9,-0x20a0(%rbp)
   11fbd:	20 d1 29 
   11fc0:	c6 85 46 df ff ff 00 	movb   $0x0,-0x20ba(%rbp)
   11fc7:	48 8d 85 50 df ff ff 	lea    -0x20b0(%rbp),%rax
   11fce:	48 89 85 f0 f7 ff ff 	mov    %rax,-0x810(%rbp)
   11fd5:	48 8d 85 60 df ff ff 	lea    -0x20a0(%rbp),%rax
   11fdc:	48 89 85 f8 f7 ff ff 	mov    %rax,-0x808(%rbp)
   11fe3:	48 8d 05 52 c0 00 00 	lea    0xc052(%rip),%rax        # 1e03c <g_71+0xc>
   11fea:	48 89 85 00 f8 ff ff 	mov    %rax,-0x800(%rbp)
   11ff1:	48 8d 05 48 c0 00 00 	lea    0xc048(%rip),%rax        # 1e040 <g_71+0x10>
   11ff8:	48 89 85 08 f8 ff ff 	mov    %rax,-0x7f8(%rbp)
   11fff:	48 8d 05 36 c0 00 00 	lea    0xc036(%rip),%rax        # 1e03c <g_71+0xc>
   12006:	48 89 85 10 f8 ff ff 	mov    %rax,-0x7f0(%rbp)
   1200d:	48 8d 85 60 df ff ff 	lea    -0x20a0(%rbp),%rax
   12014:	48 89 85 18 f8 ff ff 	mov    %rax,-0x7e8(%rbp)
   1201b:	48 8d 85 50 df ff ff 	lea    -0x20b0(%rbp),%rax
   12022:	48 89 85 20 f8 ff ff 	mov    %rax,-0x7e0(%rbp)
   12029:	48 c7 85 28 f8 ff ff 	movq   $0x0,-0x7d8(%rbp)
   12030:	00 00 00 00 
   12034:	48 8d 85 60 df ff ff 	lea    -0x20a0(%rbp),%rax
   1203b:	48 89 85 30 f8 ff ff 	mov    %rax,-0x7d0(%rbp)
   12042:	48 8d 05 f3 bf 00 00 	lea    0xbff3(%rip),%rax        # 1e03c <g_71+0xc>
   12049:	48 89 85 38 f8 ff ff 	mov    %rax,-0x7c8(%rbp)
   12050:	48 8d 85 70 e2 ff ff 	lea    -0x1d90(%rbp),%rax
   12057:	48 89 85 40 f8 ff ff 	mov    %rax,-0x7c0(%rbp)
   1205e:	48 c7 85 48 f8 ff ff 	movq   $0x0,-0x7b8(%rbp)
   12065:	00 00 00 00 
   12069:	48 8d 05 d8 bf 00 00 	lea    0xbfd8(%rip),%rax        # 1e048 <g_71+0x18>
   12070:	48 89 85 50 f8 ff ff 	mov    %rax,-0x7b0(%rbp)
   12077:	48 8d 85 60 df ff ff 	lea    -0x20a0(%rbp),%rax
   1207e:	48 89 85 58 f8 ff ff 	mov    %rax,-0x7a8(%rbp)
   12085:	48 8d 85 60 df ff ff 	lea    -0x20a0(%rbp),%rax
   1208c:	48 89 85 60 f8 ff ff 	mov    %rax,-0x7a0(%rbp)
   12093:	48 8d 85 5c df ff ff 	lea    -0x20a4(%rbp),%rax
   1209a:	48 89 85 68 f8 ff ff 	mov    %rax,-0x798(%rbp)
   120a1:	48 8d 05 94 bf 00 00 	lea    0xbf94(%rip),%rax        # 1e03c <g_71+0xc>
   120a8:	48 89 85 70 f8 ff ff 	mov    %rax,-0x790(%rbp)
   120af:	48 8d 85 70 e2 ff ff 	lea    -0x1d90(%rbp),%rax
   120b6:	48 83 c0 1c          	add    $0x1c,%rax
   120ba:	48 89 85 78 f8 ff ff 	mov    %rax,-0x788(%rbp)
   120c1:	48 8d 85 50 df ff ff 	lea    -0x20b0(%rbp),%rax
   120c8:	48 89 85 80 f8 ff ff 	mov    %rax,-0x780(%rbp)
   120cf:	48 c7 85 88 f8 ff ff 	movq   $0x0,-0x778(%rbp)
   120d6:	00 00 00 00 
   120da:	48 c7 85 90 f8 ff ff 	movq   $0x0,-0x770(%rbp)
   120e1:	00 00 00 00 
   120e5:	48 8d 05 50 bf 00 00 	lea    0xbf50(%rip),%rax        # 1e03c <g_71+0xc>
   120ec:	48 89 85 98 f8 ff ff 	mov    %rax,-0x768(%rbp)
   120f3:	48 c7 85 a0 f8 ff ff 	movq   $0x0,-0x760(%rbp)
   120fa:	00 00 00 00 
   120fe:	48 8d 85 70 e2 ff ff 	lea    -0x1d90(%rbp),%rax
   12105:	48 83 c0 1c          	add    $0x1c,%rax
   12109:	48 89 85 a8 f8 ff ff 	mov    %rax,-0x758(%rbp)
   12110:	48 8d 85 70 e2 ff ff 	lea    -0x1d90(%rbp),%rax
   12117:	48 83 c0 1c          	add    $0x1c,%rax
   1211b:	48 89 85 b0 f8 ff ff 	mov    %rax,-0x750(%rbp)
   12122:	48 c7 85 b8 f8 ff ff 	movq   $0x0,-0x748(%rbp)
   12129:	00 00 00 00 
   1212d:	48 8d 85 50 df ff ff 	lea    -0x20b0(%rbp),%rax
   12134:	48 89 85 c0 f8 ff ff 	mov    %rax,-0x740(%rbp)
   1213b:	48 8d 85 50 df ff ff 	lea    -0x20b0(%rbp),%rax
   12142:	48 89 85 c8 f8 ff ff 	mov    %rax,-0x738(%rbp)
   12149:	48 8d 85 50 df ff ff 	lea    -0x20b0(%rbp),%rax
   12150:	48 89 85 d0 f8 ff ff 	mov    %rax,-0x730(%rbp)
   12157:	48 8d 85 5c df ff ff 	lea    -0x20a4(%rbp),%rax
   1215e:	48 89 85 d8 f8 ff ff 	mov    %rax,-0x728(%rbp)
   12165:	48 8d 85 60 df ff ff 	lea    -0x20a0(%rbp),%rax
   1216c:	48 89 85 e0 f8 ff ff 	mov    %rax,-0x720(%rbp)
   12173:	48 8d 85 70 e2 ff ff 	lea    -0x1d90(%rbp),%rax
   1217a:	48 83 c0 1c          	add    $0x1c,%rax
   1217e:	48 89 85 e8 f8 ff ff 	mov    %rax,-0x718(%rbp)
   12185:	48 8d 05 a8 be 00 00 	lea    0xbea8(%rip),%rax        # 1e034 <g_71+0x4>
   1218c:	48 89 85 f0 f8 ff ff 	mov    %rax,-0x710(%rbp)
   12193:	48 8d 85 70 e2 ff ff 	lea    -0x1d90(%rbp),%rax
   1219a:	48 83 c0 1c          	add    $0x1c,%rax
   1219e:	48 89 85 f8 f8 ff ff 	mov    %rax,-0x708(%rbp)
   121a5:	48 c7 85 00 f9 ff ff 	movq   $0x0,-0x700(%rbp)
   121ac:	00 00 00 00 
   121b0:	48 8d 05 85 be 00 00 	lea    0xbe85(%rip),%rax        # 1e03c <g_71+0xc>
   121b7:	48 89 85 08 f9 ff ff 	mov    %rax,-0x6f8(%rbp)
   121be:	48 8d 05 77 be 00 00 	lea    0xbe77(%rip),%rax        # 1e03c <g_71+0xc>
   121c5:	48 89 85 10 f9 ff ff 	mov    %rax,-0x6f0(%rbp)
   121cc:	48 8d 05 5d be 00 00 	lea    0xbe5d(%rip),%rax        # 1e030 <g_71>
   121d3:	48 89 85 18 f9 ff ff 	mov    %rax,-0x6e8(%rbp)
   121da:	48 8d 05 5b be 00 00 	lea    0xbe5b(%rip),%rax        # 1e03c <g_71+0xc>
   121e1:	48 89 85 20 f9 ff ff 	mov    %rax,-0x6e0(%rbp)
   121e8:	48 8d 85 70 e2 ff ff 	lea    -0x1d90(%rbp),%rax
   121ef:	48 83 c0 1c          	add    $0x1c,%rax
   121f3:	48 89 85 28 f9 ff ff 	mov    %rax,-0x6d8(%rbp)
   121fa:	48 8d 05 3b be 00 00 	lea    0xbe3b(%rip),%rax        # 1e03c <g_71+0xc>
   12201:	48 89 85 30 f9 ff ff 	mov    %rax,-0x6d0(%rbp)
   12208:	48 8d 85 5c df ff ff 	lea    -0x20a4(%rbp),%rax
   1220f:	48 89 85 38 f9 ff ff 	mov    %rax,-0x6c8(%rbp)
   12216:	48 8d 05 13 be 00 00 	lea    0xbe13(%rip),%rax        # 1e030 <g_71>
   1221d:	48 89 85 40 f9 ff ff 	mov    %rax,-0x6c0(%rbp)
   12224:	48 8d 05 11 be 00 00 	lea    0xbe11(%rip),%rax        # 1e03c <g_71+0xc>
   1222b:	48 89 85 48 f9 ff ff 	mov    %rax,-0x6b8(%rbp)
   12232:	48 c7 85 50 f9 ff ff 	movq   $0x0,-0x6b0(%rbp)
   12239:	00 00 00 00 
   1223d:	48 8d 85 70 e2 ff ff 	lea    -0x1d90(%rbp),%rax
   12244:	48 89 85 58 f9 ff ff 	mov    %rax,-0x6a8(%rbp)
   1224b:	48 c7 85 60 f9 ff ff 	movq   $0x0,-0x6a0(%rbp)
   12252:	00 00 00 00 
   12256:	48 8d 85 70 e2 ff ff 	lea    -0x1d90(%rbp),%rax
   1225d:	48 89 85 68 f9 ff ff 	mov    %rax,-0x698(%rbp)
   12264:	48 c7 85 70 f9 ff ff 	movq   $0x0,-0x690(%rbp)
   1226b:	00 00 00 00 
   1226f:	48 8d 05 c6 bd 00 00 	lea    0xbdc6(%rip),%rax        # 1e03c <g_71+0xc>
   12276:	48 89 85 78 f9 ff ff 	mov    %rax,-0x688(%rbp)
   1227d:	48 8d 05 ac bd 00 00 	lea    0xbdac(%rip),%rax        # 1e030 <g_71>
   12284:	48 89 85 80 f9 ff ff 	mov    %rax,-0x680(%rbp)
   1228b:	48 8d 85 5c df ff ff 	lea    -0x20a4(%rbp),%rax
   12292:	48 89 85 88 f9 ff ff 	mov    %rax,-0x678(%rbp)
   12299:	48 8d 05 9c bd 00 00 	lea    0xbd9c(%rip),%rax        # 1e03c <g_71+0xc>
   122a0:	48 89 85 90 f9 ff ff 	mov    %rax,-0x670(%rbp)
   122a7:	48 8d 85 70 e2 ff ff 	lea    -0x1d90(%rbp),%rax
   122ae:	48 83 c0 1c          	add    $0x1c,%rax
   122b2:	48 89 85 98 f9 ff ff 	mov    %rax,-0x668(%rbp)
   122b9:	48 8d 05 7c bd 00 00 	lea    0xbd7c(%rip),%rax        # 1e03c <g_71+0xc>
   122c0:	48 89 85 a0 f9 ff ff 	mov    %rax,-0x660(%rbp)
   122c7:	48 8d 05 62 bd 00 00 	lea    0xbd62(%rip),%rax        # 1e030 <g_71>
   122ce:	48 89 85 a8 f9 ff ff 	mov    %rax,-0x658(%rbp)
   122d5:	48 8d 05 60 bd 00 00 	lea    0xbd60(%rip),%rax        # 1e03c <g_71+0xc>
   122dc:	48 89 85 b0 f9 ff ff 	mov    %rax,-0x650(%rbp)
   122e3:	48 8d 05 52 bd 00 00 	lea    0xbd52(%rip),%rax        # 1e03c <g_71+0xc>
   122ea:	48 89 85 b8 f9 ff ff 	mov    %rax,-0x648(%rbp)
   122f1:	48 c7 85 c0 f9 ff ff 	movq   $0x0,-0x640(%rbp)
   122f8:	00 00 00 00 
   122fc:	48 8d 85 70 e2 ff ff 	lea    -0x1d90(%rbp),%rax
   12303:	48 83 c0 1c          	add    $0x1c,%rax
   12307:	48 89 85 c8 f9 ff ff 	mov    %rax,-0x638(%rbp)
   1230e:	48 8d 05 1f bd 00 00 	lea    0xbd1f(%rip),%rax        # 1e034 <g_71+0x4>
   12315:	48 89 85 d0 f9 ff ff 	mov    %rax,-0x630(%rbp)
   1231c:	48 8d 85 70 e2 ff ff 	lea    -0x1d90(%rbp),%rax
   12323:	48 83 c0 1c          	add    $0x1c,%rax
   12327:	48 89 85 d8 f9 ff ff 	mov    %rax,-0x628(%rbp)
   1232e:	48 8d 85 60 df ff ff 	lea    -0x20a0(%rbp),%rax
   12335:	48 89 85 e0 f9 ff ff 	mov    %rax,-0x620(%rbp)
   1233c:	48 8d 85 5c df ff ff 	lea    -0x20a4(%rbp),%rax
   12343:	48 89 85 e8 f9 ff ff 	mov    %rax,-0x618(%rbp)
   1234a:	48 8d 85 50 df ff ff 	lea    -0x20b0(%rbp),%rax
   12351:	48 89 85 f0 f9 ff ff 	mov    %rax,-0x610(%rbp)
   12358:	48 8d 85 50 df ff ff 	lea    -0x20b0(%rbp),%rax
   1235f:	48 89 85 f8 f9 ff ff 	mov    %rax,-0x608(%rbp)
   12366:	48 8d 05 cf bc 00 00 	lea    0xbccf(%rip),%rax        # 1e03c <g_71+0xc>
   1236d:	48 89 85 00 fa ff ff 	mov    %rax,-0x600(%rbp)
   12374:	48 8d 85 60 df ff ff 	lea    -0x20a0(%rbp),%rax
   1237b:	48 89 85 08 fa ff ff 	mov    %rax,-0x5f8(%rbp)
   12382:	48 8d 05 bf bc 00 00 	lea    0xbcbf(%rip),%rax        # 1e048 <g_71+0x18>
   12389:	48 89 85 10 fa ff ff 	mov    %rax,-0x5f0(%rbp)
   12390:	48 c7 85 18 fa ff ff 	movq   $0x0,-0x5e8(%rbp)
   12397:	00 00 00 00 
   1239b:	48 8d 05 9a bc 00 00 	lea    0xbc9a(%rip),%rax        # 1e03c <g_71+0xc>
   123a2:	48 89 85 20 fa ff ff 	mov    %rax,-0x5e0(%rbp)
   123a9:	48 8d 85 5c df ff ff 	lea    -0x20a4(%rbp),%rax
   123b0:	48 89 85 28 fa ff ff 	mov    %rax,-0x5d8(%rbp)
   123b7:	48 8d 85 70 e2 ff ff 	lea    -0x1d90(%rbp),%rax
   123be:	48 83 c0 1c          	add    $0x1c,%rax
   123c2:	48 89 85 30 fa ff ff 	mov    %rax,-0x5d0(%rbp)
   123c9:	48 8d 85 70 e2 ff ff 	lea    -0x1d90(%rbp),%rax
   123d0:	48 89 85 38 fa ff ff 	mov    %rax,-0x5c8(%rbp)
   123d7:	48 c7 85 40 fa ff ff 	movq   $0x0,-0x5c0(%rbp)
   123de:	00 00 00 00 
   123e2:	48 8d 85 70 e2 ff ff 	lea    -0x1d90(%rbp),%rax
   123e9:	48 83 c0 14          	add    $0x14,%rax
   123ed:	48 89 85 48 fa ff ff 	mov    %rax,-0x5b8(%rbp)
   123f4:	48 c7 85 50 fa ff ff 	movq   $0x0,-0x5b0(%rbp)
   123fb:	00 00 00 00 
   123ff:	48 8d 05 36 bc 00 00 	lea    0xbc36(%rip),%rax        # 1e03c <g_71+0xc>
   12406:	48 89 85 58 fa ff ff 	mov    %rax,-0x5a8(%rbp)
   1240d:	48 c7 85 60 fa ff ff 	movq   $0x0,-0x5a0(%rbp)
   12414:	00 00 00 00 
   12418:	48 c7 85 68 fa ff ff 	movq   $0x0,-0x598(%rbp)
   1241f:	00 00 00 00 
   12423:	48 8d 85 50 df ff ff 	lea    -0x20b0(%rbp),%rax
   1242a:	48 89 85 70 fa ff ff 	mov    %rax,-0x590(%rbp)
   12431:	48 c7 85 78 fa ff ff 	movq   $0x0,-0x588(%rbp)
   12438:	00 00 00 00 
   1243c:	48 8d 85 70 e2 ff ff 	lea    -0x1d90(%rbp),%rax
   12443:	48 83 c0 1c          	add    $0x1c,%rax
   12447:	48 89 85 80 fa ff ff 	mov    %rax,-0x580(%rbp)
   1244e:	48 8d 05 e7 bb 00 00 	lea    0xbbe7(%rip),%rax        # 1e03c <g_71+0xc>
   12455:	48 89 85 88 fa ff ff 	mov    %rax,-0x578(%rbp)
   1245c:	48 8d 85 50 df ff ff 	lea    -0x20b0(%rbp),%rax
   12463:	48 89 85 90 fa ff ff 	mov    %rax,-0x570(%rbp)
   1246a:	48 8d 05 cf bb 00 00 	lea    0xbbcf(%rip),%rax        # 1e040 <g_71+0x10>
   12471:	48 89 85 98 fa ff ff 	mov    %rax,-0x568(%rbp)
   12478:	48 8d 85 5c df ff ff 	lea    -0x20a4(%rbp),%rax
   1247f:	48 89 85 a0 fa ff ff 	mov    %rax,-0x560(%rbp)
   12486:	48 8d 85 50 df ff ff 	lea    -0x20b0(%rbp),%rax
   1248d:	48 89 85 a8 fa ff ff 	mov    %rax,-0x558(%rbp)
   12494:	48 8d 85 5c df ff ff 	lea    -0x20a4(%rbp),%rax
   1249b:	48 89 85 b0 fa ff ff 	mov    %rax,-0x550(%rbp)
   124a2:	48 8d 05 93 bb 00 00 	lea    0xbb93(%rip),%rax        # 1e03c <g_71+0xc>
   124a9:	48 89 85 b8 fa ff ff 	mov    %rax,-0x548(%rbp)
   124b0:	48 8d 85 5c df ff ff 	lea    -0x20a4(%rbp),%rax
   124b7:	48 89 85 c0 fa ff ff 	mov    %rax,-0x540(%rbp)
   124be:	48 8d 85 50 df ff ff 	lea    -0x20b0(%rbp),%rax
   124c5:	48 89 85 c8 fa ff ff 	mov    %rax,-0x538(%rbp)
   124cc:	48 8d 85 5c df ff ff 	lea    -0x20a4(%rbp),%rax
   124d3:	48 89 85 d0 fa ff ff 	mov    %rax,-0x530(%rbp)
   124da:	48 8d 05 5f bb 00 00 	lea    0xbb5f(%rip),%rax        # 1e040 <g_71+0x10>
   124e1:	48 89 85 d8 fa ff ff 	mov    %rax,-0x528(%rbp)
   124e8:	48 8d 85 50 df ff ff 	lea    -0x20b0(%rbp),%rax
   124ef:	48 89 85 e0 fa ff ff 	mov    %rax,-0x520(%rbp)
   124f6:	48 8d 05 3f bb 00 00 	lea    0xbb3f(%rip),%rax        # 1e03c <g_71+0xc>
   124fd:	48 89 85 e8 fa ff ff 	mov    %rax,-0x518(%rbp)
   12504:	48 8d 85 70 e2 ff ff 	lea    -0x1d90(%rbp),%rax
   1250b:	48 83 c0 1c          	add    $0x1c,%rax
   1250f:	48 89 85 f0 fa ff ff 	mov    %rax,-0x510(%rbp)
   12516:	48 c7 85 f8 fa ff ff 	movq   $0x0,-0x508(%rbp)
   1251d:	00 00 00 00 
   12521:	48 8d 85 50 df ff ff 	lea    -0x20b0(%rbp),%rax
   12528:	48 89 85 00 fb ff ff 	mov    %rax,-0x500(%rbp)
   1252f:	48 c7 85 08 fb ff ff 	movq   $0x0,-0x4f8(%rbp)
   12536:	00 00 00 00 
   1253a:	48 c7 85 10 fb ff ff 	movq   $0x0,-0x4f0(%rbp)
   12541:	00 00 00 00 
   12545:	48 8d 05 f0 ba 00 00 	lea    0xbaf0(%rip),%rax        # 1e03c <g_71+0xc>
   1254c:	48 89 85 18 fb ff ff 	mov    %rax,-0x4e8(%rbp)
   12553:	48 c7 85 20 fb ff ff 	movq   $0x0,-0x4e0(%rbp)
   1255a:	00 00 00 00 
   1255e:	48 8d 85 70 e2 ff ff 	lea    -0x1d90(%rbp),%rax
   12565:	48 83 c0 14          	add    $0x14,%rax
   12569:	48 89 85 28 fb ff ff 	mov    %rax,-0x4d8(%rbp)
   12570:	48 c7 85 30 fb ff ff 	movq   $0x0,-0x4d0(%rbp)
   12577:	00 00 00 00 
   1257b:	48 8d 85 70 e2 ff ff 	lea    -0x1d90(%rbp),%rax
   12582:	48 89 85 38 fb ff ff 	mov    %rax,-0x4c8(%rbp)
   12589:	48 8d 85 70 e2 ff ff 	lea    -0x1d90(%rbp),%rax
   12590:	48 83 c0 1c          	add    $0x1c,%rax
   12594:	48 89 85 40 fb ff ff 	mov    %rax,-0x4c0(%rbp)
   1259b:	48 8d 85 5c df ff ff 	lea    -0x20a4(%rbp),%rax
   125a2:	48 89 85 48 fb ff ff 	mov    %rax,-0x4b8(%rbp)
   125a9:	48 8d 05 8c ba 00 00 	lea    0xba8c(%rip),%rax        # 1e03c <g_71+0xc>
   125b0:	48 89 85 50 fb ff ff 	mov    %rax,-0x4b0(%rbp)
   125b7:	48 c7 85 58 fb ff ff 	movq   $0x0,-0x4a8(%rbp)
   125be:	00 00 00 00 
   125c2:	48 8d 05 7f ba 00 00 	lea    0xba7f(%rip),%rax        # 1e048 <g_71+0x18>
   125c9:	48 89 85 60 fb ff ff 	mov    %rax,-0x4a0(%rbp)
   125d0:	48 8d 85 60 df ff ff 	lea    -0x20a0(%rbp),%rax
   125d7:	48 89 85 68 fb ff ff 	mov    %rax,-0x498(%rbp)
   125de:	48 8d 05 57 ba 00 00 	lea    0xba57(%rip),%rax        # 1e03c <g_71+0xc>
   125e5:	48 89 85 70 fb ff ff 	mov    %rax,-0x490(%rbp)
   125ec:	48 8d 85 50 df ff ff 	lea    -0x20b0(%rbp),%rax
   125f3:	48 89 85 78 fb ff ff 	mov    %rax,-0x488(%rbp)
   125fa:	48 8d 85 50 df ff ff 	lea    -0x20b0(%rbp),%rax
   12601:	48 89 85 80 fb ff ff 	mov    %rax,-0x480(%rbp)
   12608:	48 8d 85 5c df ff ff 	lea    -0x20a4(%rbp),%rax
   1260f:	48 89 85 88 fb ff ff 	mov    %rax,-0x478(%rbp)
   12616:	48 8d 85 60 df ff ff 	lea    -0x20a0(%rbp),%rax
   1261d:	48 89 85 90 fb ff ff 	mov    %rax,-0x470(%rbp)
   12624:	48 8d 85 70 e2 ff ff 	lea    -0x1d90(%rbp),%rax
   1262b:	48 83 c0 1c          	add    $0x1c,%rax
   1262f:	48 89 85 98 fb ff ff 	mov    %rax,-0x468(%rbp)
   12636:	48 8d 05 f7 b9 00 00 	lea    0xb9f7(%rip),%rax        # 1e034 <g_71+0x4>
   1263d:	48 89 85 a0 fb ff ff 	mov    %rax,-0x460(%rbp)
   12644:	48 8d 85 70 e2 ff ff 	lea    -0x1d90(%rbp),%rax
   1264b:	48 83 c0 1c          	add    $0x1c,%rax
   1264f:	48 89 85 a8 fb ff ff 	mov    %rax,-0x458(%rbp)
   12656:	48 c7 85 b0 fb ff ff 	movq   $0x0,-0x450(%rbp)
   1265d:	00 00 00 00 
   12661:	48 8d 05 d4 b9 00 00 	lea    0xb9d4(%rip),%rax        # 1e03c <g_71+0xc>
   12668:	48 89 85 b8 fb ff ff 	mov    %rax,-0x448(%rbp)
   1266f:	48 8d 05 c6 b9 00 00 	lea    0xb9c6(%rip),%rax        # 1e03c <g_71+0xc>
   12676:	48 89 85 c0 fb ff ff 	mov    %rax,-0x440(%rbp)
   1267d:	48 8d 05 ac b9 00 00 	lea    0xb9ac(%rip),%rax        # 1e030 <g_71>
   12684:	48 89 85 c8 fb ff ff 	mov    %rax,-0x438(%rbp)
   1268b:	48 8d 05 aa b9 00 00 	lea    0xb9aa(%rip),%rax        # 1e03c <g_71+0xc>
   12692:	48 89 85 d0 fb ff ff 	mov    %rax,-0x430(%rbp)
   12699:	48 8d 85 70 e2 ff ff 	lea    -0x1d90(%rbp),%rax
   126a0:	48 83 c0 1c          	add    $0x1c,%rax
   126a4:	48 89 85 d8 fb ff ff 	mov    %rax,-0x428(%rbp)
   126ab:	48 8d 05 8a b9 00 00 	lea    0xb98a(%rip),%rax        # 1e03c <g_71+0xc>
   126b2:	48 89 85 e0 fb ff ff 	mov    %rax,-0x420(%rbp)
   126b9:	48 8d 85 5c df ff ff 	lea    -0x20a4(%rbp),%rax
   126c0:	48 89 85 e8 fb ff ff 	mov    %rax,-0x418(%rbp)
   126c7:	48 8d 05 62 b9 00 00 	lea    0xb962(%rip),%rax        # 1e030 <g_71>
   126ce:	48 89 85 f0 fb ff ff 	mov    %rax,-0x410(%rbp)
   126d5:	48 8d 05 60 b9 00 00 	lea    0xb960(%rip),%rax        # 1e03c <g_71+0xc>
   126dc:	48 89 85 f8 fb ff ff 	mov    %rax,-0x408(%rbp)
   126e3:	48 c7 85 00 fc ff ff 	movq   $0x0,-0x400(%rbp)
   126ea:	00 00 00 00 
   126ee:	48 8d 85 70 e2 ff ff 	lea    -0x1d90(%rbp),%rax
   126f5:	48 89 85 08 fc ff ff 	mov    %rax,-0x3f8(%rbp)
   126fc:	48 c7 85 10 fc ff ff 	movq   $0x0,-0x3f0(%rbp)
   12703:	00 00 00 00 
   12707:	48 8d 85 70 e2 ff ff 	lea    -0x1d90(%rbp),%rax
   1270e:	48 89 85 18 fc ff ff 	mov    %rax,-0x3e8(%rbp)
   12715:	48 c7 85 20 fc ff ff 	movq   $0x0,-0x3e0(%rbp)
   1271c:	00 00 00 00 
   12720:	48 8d 05 15 b9 00 00 	lea    0xb915(%rip),%rax        # 1e03c <g_71+0xc>
   12727:	48 89 85 28 fc ff ff 	mov    %rax,-0x3d8(%rbp)
   1272e:	48 8d 05 fb b8 00 00 	lea    0xb8fb(%rip),%rax        # 1e030 <g_71>
   12735:	48 89 85 30 fc ff ff 	mov    %rax,-0x3d0(%rbp)
   1273c:	48 8d 85 5c df ff ff 	lea    -0x20a4(%rbp),%rax
   12743:	48 89 85 38 fc ff ff 	mov    %rax,-0x3c8(%rbp)
   1274a:	48 8d 05 eb b8 00 00 	lea    0xb8eb(%rip),%rax        # 1e03c <g_71+0xc>
   12751:	48 89 85 40 fc ff ff 	mov    %rax,-0x3c0(%rbp)
   12758:	48 8d 85 70 e2 ff ff 	lea    -0x1d90(%rbp),%rax
   1275f:	48 83 c0 1c          	add    $0x1c,%rax
   12763:	48 89 85 48 fc ff ff 	mov    %rax,-0x3b8(%rbp)
   1276a:	48 8d 05 cb b8 00 00 	lea    0xb8cb(%rip),%rax        # 1e03c <g_71+0xc>
   12771:	48 89 85 50 fc ff ff 	mov    %rax,-0x3b0(%rbp)
   12778:	48 8d 05 b1 b8 00 00 	lea    0xb8b1(%rip),%rax        # 1e030 <g_71>
   1277f:	48 89 85 58 fc ff ff 	mov    %rax,-0x3a8(%rbp)
   12786:	48 8d 05 af b8 00 00 	lea    0xb8af(%rip),%rax        # 1e03c <g_71+0xc>
   1278d:	48 89 85 60 fc ff ff 	mov    %rax,-0x3a0(%rbp)
   12794:	48 8d 05 a1 b8 00 00 	lea    0xb8a1(%rip),%rax        # 1e03c <g_71+0xc>
   1279b:	48 89 85 68 fc ff ff 	mov    %rax,-0x398(%rbp)
   127a2:	48 c7 85 70 fc ff ff 	movq   $0x0,-0x390(%rbp)
   127a9:	00 00 00 00 
   127ad:	48 8d 85 70 e2 ff ff 	lea    -0x1d90(%rbp),%rax
   127b4:	48 83 c0 1c          	add    $0x1c,%rax
   127b8:	48 89 85 78 fc ff ff 	mov    %rax,-0x388(%rbp)
   127bf:	48 8d 05 6e b8 00 00 	lea    0xb86e(%rip),%rax        # 1e034 <g_71+0x4>
   127c6:	48 89 85 80 fc ff ff 	mov    %rax,-0x380(%rbp)
   127cd:	48 8d 85 70 e2 ff ff 	lea    -0x1d90(%rbp),%rax
   127d4:	48 83 c0 1c          	add    $0x1c,%rax
   127d8:	48 89 85 88 fc ff ff 	mov    %rax,-0x378(%rbp)
   127df:	48 8d 85 60 df ff ff 	lea    -0x20a0(%rbp),%rax
   127e6:	48 89 85 90 fc ff ff 	mov    %rax,-0x370(%rbp)
   127ed:	48 8d 85 5c df ff ff 	lea    -0x20a4(%rbp),%rax
   127f4:	48 89 85 98 fc ff ff 	mov    %rax,-0x368(%rbp)
   127fb:	48 8d 85 50 df ff ff 	lea    -0x20b0(%rbp),%rax
   12802:	48 89 85 a0 fc ff ff 	mov    %rax,-0x360(%rbp)
   12809:	48 8d 85 50 df ff ff 	lea    -0x20b0(%rbp),%rax
   12810:	48 89 85 a8 fc ff ff 	mov    %rax,-0x358(%rbp)
   12817:	48 8d 05 1e b8 00 00 	lea    0xb81e(%rip),%rax        # 1e03c <g_71+0xc>
   1281e:	48 89 85 b0 fc ff ff 	mov    %rax,-0x350(%rbp)
   12825:	48 8d 85 60 df ff ff 	lea    -0x20a0(%rbp),%rax
   1282c:	48 89 85 b8 fc ff ff 	mov    %rax,-0x348(%rbp)
   12833:	48 8d 05 0e b8 00 00 	lea    0xb80e(%rip),%rax        # 1e048 <g_71+0x18>
   1283a:	48 89 85 c0 fc ff ff 	mov    %rax,-0x340(%rbp)
   12841:	48 c7 85 c8 fc ff ff 	movq   $0x0,-0x338(%rbp)
   12848:	00 00 00 00 
   1284c:	48 8d 05 e9 b7 00 00 	lea    0xb7e9(%rip),%rax        # 1e03c <g_71+0xc>
   12853:	48 89 85 d0 fc ff ff 	mov    %rax,-0x330(%rbp)
   1285a:	48 8d 85 5c df ff ff 	lea    -0x20a4(%rbp),%rax
   12861:	48 89 85 d8 fc ff ff 	mov    %rax,-0x328(%rbp)
   12868:	48 8d 85 70 e2 ff ff 	lea    -0x1d90(%rbp),%rax
   1286f:	48 83 c0 1c          	add    $0x1c,%rax
   12873:	48 89 85 e0 fc ff ff 	mov    %rax,-0x320(%rbp)
   1287a:	48 8d 85 70 e2 ff ff 	lea    -0x1d90(%rbp),%rax
   12881:	48 89 85 e8 fc ff ff 	mov    %rax,-0x318(%rbp)
   12888:	48 c7 85 f0 fc ff ff 	movq   $0x0,-0x310(%rbp)
   1288f:	00 00 00 00 
   12893:	48 8d 85 70 e2 ff ff 	lea    -0x1d90(%rbp),%rax
   1289a:	48 83 c0 14          	add    $0x14,%rax
   1289e:	48 89 85 f8 fc ff ff 	mov    %rax,-0x308(%rbp)
   128a5:	48 c7 85 00 fd ff ff 	movq   $0x0,-0x300(%rbp)
   128ac:	00 00 00 00 
   128b0:	48 8d 05 85 b7 00 00 	lea    0xb785(%rip),%rax        # 1e03c <g_71+0xc>
   128b7:	48 89 85 08 fd ff ff 	mov    %rax,-0x2f8(%rbp)
   128be:	48 c7 85 10 fd ff ff 	movq   $0x0,-0x2f0(%rbp)
   128c5:	00 00 00 00 
   128c9:	48 c7 85 18 fd ff ff 	movq   $0x0,-0x2e8(%rbp)
   128d0:	00 00 00 00 
   128d4:	48 8d 85 50 df ff ff 	lea    -0x20b0(%rbp),%rax
   128db:	48 89 85 20 fd ff ff 	mov    %rax,-0x2e0(%rbp)
   128e2:	48 c7 85 28 fd ff ff 	movq   $0x0,-0x2d8(%rbp)
   128e9:	00 00 00 00 
   128ed:	48 8d 85 70 e2 ff ff 	lea    -0x1d90(%rbp),%rax
   128f4:	48 83 c0 1c          	add    $0x1c,%rax
   128f8:	48 89 85 30 fd ff ff 	mov    %rax,-0x2d0(%rbp)
   128ff:	48 8d 05 36 b7 00 00 	lea    0xb736(%rip),%rax        # 1e03c <g_71+0xc>
   12906:	48 89 85 38 fd ff ff 	mov    %rax,-0x2c8(%rbp)
   1290d:	48 8d 85 50 df ff ff 	lea    -0x20b0(%rbp),%rax
   12914:	48 89 85 40 fd ff ff 	mov    %rax,-0x2c0(%rbp)
   1291b:	48 8d 05 1e b7 00 00 	lea    0xb71e(%rip),%rax        # 1e040 <g_71+0x10>
   12922:	48 89 85 48 fd ff ff 	mov    %rax,-0x2b8(%rbp)
   12929:	48 8d 85 5c df ff ff 	lea    -0x20a4(%rbp),%rax
   12930:	48 89 85 50 fd ff ff 	mov    %rax,-0x2b0(%rbp)
   12937:	48 8d 85 50 df ff ff 	lea    -0x20b0(%rbp),%rax
   1293e:	48 89 85 58 fd ff ff 	mov    %rax,-0x2a8(%rbp)
   12945:	48 8d 85 5c df ff ff 	lea    -0x20a4(%rbp),%rax
   1294c:	48 89 85 60 fd ff ff 	mov    %rax,-0x2a0(%rbp)
   12953:	48 8d 05 e2 b6 00 00 	lea    0xb6e2(%rip),%rax        # 1e03c <g_71+0xc>
   1295a:	48 89 85 68 fd ff ff 	mov    %rax,-0x298(%rbp)
   12961:	48 8d 85 5c df ff ff 	lea    -0x20a4(%rbp),%rax
   12968:	48 89 85 70 fd ff ff 	mov    %rax,-0x290(%rbp)
   1296f:	48 8d 85 50 df ff ff 	lea    -0x20b0(%rbp),%rax
   12976:	48 89 85 78 fd ff ff 	mov    %rax,-0x288(%rbp)
   1297d:	48 8d 85 5c df ff ff 	lea    -0x20a4(%rbp),%rax
   12984:	48 89 85 80 fd ff ff 	mov    %rax,-0x280(%rbp)
   1298b:	48 8d 05 ae b6 00 00 	lea    0xb6ae(%rip),%rax        # 1e040 <g_71+0x10>
   12992:	48 89 85 88 fd ff ff 	mov    %rax,-0x278(%rbp)
   12999:	48 8d 05 a4 b6 00 00 	lea    0xb6a4(%rip),%rax        # 1e044 <g_71+0x14>
   129a0:	48 89 85 30 ec ff ff 	mov    %rax,-0x13d0(%rbp)
   129a7:	48 8d 05 96 b6 00 00 	lea    0xb696(%rip),%rax        # 1e044 <g_71+0x14>
   129ae:	48 89 85 38 ec ff ff 	mov    %rax,-0x13c8(%rbp)
   129b5:	48 8d 85 70 e2 ff ff 	lea    -0x1d90(%rbp),%rax
   129bc:	48 83 c0 1c          	add    $0x1c,%rax
   129c0:	48 89 85 40 ec ff ff 	mov    %rax,-0x13c0(%rbp)
   129c7:	48 c7 85 48 ec ff ff 	movq   $0x0,-0x13b8(%rbp)
   129ce:	00 00 00 00 
   129d2:	48 8d 85 70 e2 ff ff 	lea    -0x1d90(%rbp),%rax
   129d9:	48 83 c0 1c          	add    $0x1c,%rax
   129dd:	48 89 85 50 ec ff ff 	mov    %rax,-0x13b0(%rbp)
   129e4:	48 8d 05 59 b6 00 00 	lea    0xb659(%rip),%rax        # 1e044 <g_71+0x14>
   129eb:	48 89 85 58 ec ff ff 	mov    %rax,-0x13a8(%rbp)
   129f2:	48 8d 05 4b b6 00 00 	lea    0xb64b(%rip),%rax        # 1e044 <g_71+0x14>
   129f9:	48 89 85 60 ec ff ff 	mov    %rax,-0x13a0(%rbp)
   12a00:	48 8d 85 70 e2 ff ff 	lea    -0x1d90(%rbp),%rax
   12a07:	48 83 c0 1c          	add    $0x1c,%rax
   12a0b:	48 89 85 68 ec ff ff 	mov    %rax,-0x1398(%rbp)
   12a12:	48 c7 85 70 ec ff ff 	movq   $0x0,-0x1390(%rbp)
   12a19:	00 00 00 00 
   12a1d:	48 8d 85 5c df ff ff 	lea    -0x20a4(%rbp),%rax
   12a24:	48 89 85 78 ec ff ff 	mov    %rax,-0x1388(%rbp)
   12a2b:	48 8d 85 50 df ff ff 	lea    -0x20b0(%rbp),%rax
   12a32:	48 89 85 80 ec ff ff 	mov    %rax,-0x1380(%rbp)
   12a39:	48 8d 85 5c df ff ff 	lea    -0x20a4(%rbp),%rax
   12a40:	48 89 85 88 ec ff ff 	mov    %rax,-0x1378(%rbp)
   12a47:	48 8d 85 70 e2 ff ff 	lea    -0x1d90(%rbp),%rax
   12a4e:	48 83 c0 1c          	add    $0x1c,%rax
   12a52:	48 89 85 90 ec ff ff 	mov    %rax,-0x1370(%rbp)
   12a59:	48 8d 85 70 e2 ff ff 	lea    -0x1d90(%rbp),%rax
   12a60:	48 83 c0 1c          	add    $0x1c,%rax
   12a64:	48 89 85 98 ec ff ff 	mov    %rax,-0x1368(%rbp)
   12a6b:	48 8d 85 5c df ff ff 	lea    -0x20a4(%rbp),%rax
   12a72:	48 89 85 a0 ec ff ff 	mov    %rax,-0x1360(%rbp)
   12a79:	48 8d 85 50 df ff ff 	lea    -0x20b0(%rbp),%rax
   12a80:	48 89 85 a8 ec ff ff 	mov    %rax,-0x1358(%rbp)
   12a87:	48 8d 85 5c df ff ff 	lea    -0x20a4(%rbp),%rax
   12a8e:	48 89 85 b0 ec ff ff 	mov    %rax,-0x1350(%rbp)
   12a95:	48 8d 85 70 e2 ff ff 	lea    -0x1d90(%rbp),%rax
   12a9c:	48 83 c0 1c          	add    $0x1c,%rax
   12aa0:	48 89 85 b8 ec ff ff 	mov    %rax,-0x1348(%rbp)
   12aa7:	48 8d 85 5c df ff ff 	lea    -0x20a4(%rbp),%rax
   12aae:	48 89 85 c0 ec ff ff 	mov    %rax,-0x1340(%rbp)
   12ab5:	48 8d 85 70 e2 ff ff 	lea    -0x1d90(%rbp),%rax
   12abc:	48 83 c0 1c          	add    $0x1c,%rax
   12ac0:	48 89 85 c8 ec ff ff 	mov    %rax,-0x1338(%rbp)
   12ac7:	48 8d 85 70 e2 ff ff 	lea    -0x1d90(%rbp),%rax
   12ace:	48 83 c0 1c          	add    $0x1c,%rax
   12ad2:	48 89 85 d0 ec ff ff 	mov    %rax,-0x1330(%rbp)
   12ad9:	48 8d 85 5c df ff ff 	lea    -0x20a4(%rbp),%rax
   12ae0:	48 89 85 d8 ec ff ff 	mov    %rax,-0x1328(%rbp)
   12ae7:	48 8d 85 50 df ff ff 	lea    -0x20b0(%rbp),%rax
   12aee:	48 89 85 e0 ec ff ff 	mov    %rax,-0x1320(%rbp)
   12af5:	48 8d 85 5c df ff ff 	lea    -0x20a4(%rbp),%rax
   12afc:	48 89 85 e8 ec ff ff 	mov    %rax,-0x1318(%rbp)
   12b03:	48 8d 85 70 e2 ff ff 	lea    -0x1d90(%rbp),%rax
   12b0a:	48 83 c0 1c          	add    $0x1c,%rax
   12b0e:	48 89 85 f0 ec ff ff 	mov    %rax,-0x1310(%rbp)
   12b15:	48 8d 85 70 e2 ff ff 	lea    -0x1d90(%rbp),%rax
   12b1c:	48 83 c0 1c          	add    $0x1c,%rax
   12b20:	48 89 85 f8 ec ff ff 	mov    %rax,-0x1308(%rbp)
   12b27:	48 8d 85 5c df ff ff 	lea    -0x20a4(%rbp),%rax
   12b2e:	48 89 85 00 ed ff ff 	mov    %rax,-0x1300(%rbp)
   12b35:	48 8d 05 08 b5 00 00 	lea    0xb508(%rip),%rax        # 1e044 <g_71+0x14>
   12b3c:	48 89 85 08 ed ff ff 	mov    %rax,-0x12f8(%rbp)
   12b43:	48 8d 85 70 e2 ff ff 	lea    -0x1d90(%rbp),%rax
   12b4a:	48 83 c0 1c          	add    $0x1c,%rax
   12b4e:	48 89 85 10 ed ff ff 	mov    %rax,-0x12f0(%rbp)
   12b55:	48 c7 85 18 ed ff ff 	movq   $0x0,-0x12e8(%rbp)
   12b5c:	00 00 00 00 
   12b60:	48 8d 85 70 e2 ff ff 	lea    -0x1d90(%rbp),%rax
   12b67:	48 83 c0 1c          	add    $0x1c,%rax
   12b6b:	48 89 85 20 ed ff ff 	mov    %rax,-0x12e0(%rbp)
   12b72:	48 8d 05 cb b4 00 00 	lea    0xb4cb(%rip),%rax        # 1e044 <g_71+0x14>
   12b79:	48 89 85 28 ed ff ff 	mov    %rax,-0x12d8(%rbp)
   12b80:	48 8d 05 bd b4 00 00 	lea    0xb4bd(%rip),%rax        # 1e044 <g_71+0x14>
   12b87:	48 89 85 30 ed ff ff 	mov    %rax,-0x12d0(%rbp)
   12b8e:	48 8d 85 70 e2 ff ff 	lea    -0x1d90(%rbp),%rax
   12b95:	48 83 c0 1c          	add    $0x1c,%rax
   12b99:	48 89 85 38 ed ff ff 	mov    %rax,-0x12c8(%rbp)
   12ba0:	48 c7 85 40 ed ff ff 	movq   $0x0,-0x12c0(%rbp)
   12ba7:	00 00 00 00 
   12bab:	48 8d 85 70 e2 ff ff 	lea    -0x1d90(%rbp),%rax
   12bb2:	48 83 c0 1c          	add    $0x1c,%rax
   12bb6:	48 89 85 48 ed ff ff 	mov    %rax,-0x12b8(%rbp)
   12bbd:	48 8d 85 70 e2 ff ff 	lea    -0x1d90(%rbp),%rax
   12bc4:	48 83 c0 1c          	add    $0x1c,%rax
   12bc8:	48 89 85 50 ed ff ff 	mov    %rax,-0x12b0(%rbp)
   12bcf:	48 8d 85 50 df ff ff 	lea    -0x20b0(%rbp),%rax
   12bd6:	48 89 85 58 ed ff ff 	mov    %rax,-0x12a8(%rbp)
   12bdd:	48 8d 85 50 df ff ff 	lea    -0x20b0(%rbp),%rax
   12be4:	48 89 85 60 ed ff ff 	mov    %rax,-0x12a0(%rbp)
   12beb:	48 8d 85 50 df ff ff 	lea    -0x20b0(%rbp),%rax
   12bf2:	48 89 85 68 ed ff ff 	mov    %rax,-0x1298(%rbp)
   12bf9:	48 8d 05 44 b4 00 00 	lea    0xb444(%rip),%rax        # 1e044 <g_71+0x14>
   12c00:	48 89 85 70 ed ff ff 	mov    %rax,-0x1290(%rbp)
   12c07:	48 8d 85 5c df ff ff 	lea    -0x20a4(%rbp),%rax
   12c0e:	48 89 85 78 ed ff ff 	mov    %rax,-0x1288(%rbp)
   12c15:	48 8d 05 28 b4 00 00 	lea    0xb428(%rip),%rax        # 1e044 <g_71+0x14>
   12c1c:	48 89 85 80 ed ff ff 	mov    %rax,-0x1280(%rbp)
   12c23:	48 8d 85 50 df ff ff 	lea    -0x20b0(%rbp),%rax
   12c2a:	48 89 85 88 ed ff ff 	mov    %rax,-0x1278(%rbp)
   12c31:	48 8d 85 50 df ff ff 	lea    -0x20b0(%rbp),%rax
   12c38:	48 89 85 90 ed ff ff 	mov    %rax,-0x1270(%rbp)
   12c3f:	48 8d 85 70 e2 ff ff 	lea    -0x1d90(%rbp),%rax
   12c46:	48 83 c0 1c          	add    $0x1c,%rax
   12c4a:	48 89 85 98 ed ff ff 	mov    %rax,-0x1268(%rbp)
   12c51:	48 8d 85 70 e2 ff ff 	lea    -0x1d90(%rbp),%rax
   12c58:	48 83 c0 1c          	add    $0x1c,%rax
   12c5c:	48 89 85 a0 ed ff ff 	mov    %rax,-0x1260(%rbp)
   12c63:	48 8d 85 5c df ff ff 	lea    -0x20a4(%rbp),%rax
   12c6a:	48 89 85 a8 ed ff ff 	mov    %rax,-0x1258(%rbp)
   12c71:	48 8d 85 50 df ff ff 	lea    -0x20b0(%rbp),%rax
   12c78:	48 89 85 b0 ed ff ff 	mov    %rax,-0x1250(%rbp)
   12c7f:	48 8d 85 5c df ff ff 	lea    -0x20a4(%rbp),%rax
   12c86:	48 89 85 b8 ed ff ff 	mov    %rax,-0x1248(%rbp)
   12c8d:	48 8d 85 70 e2 ff ff 	lea    -0x1d90(%rbp),%rax
   12c94:	48 83 c0 1c          	add    $0x1c,%rax
   12c98:	48 89 85 c0 ed ff ff 	mov    %rax,-0x1240(%rbp)
   12c9f:	48 8d 85 70 e2 ff ff 	lea    -0x1d90(%rbp),%rax
   12ca6:	48 83 c0 1c          	add    $0x1c,%rax
   12caa:	48 89 85 c8 ed ff ff 	mov    %rax,-0x1238(%rbp)
   12cb1:	48 8d 85 5c df ff ff 	lea    -0x20a4(%rbp),%rax
   12cb8:	48 89 85 d0 ed ff ff 	mov    %rax,-0x1230(%rbp)
   12cbf:	48 8d 85 50 df ff ff 	lea    -0x20b0(%rbp),%rax
   12cc6:	48 89 85 d8 ed ff ff 	mov    %rax,-0x1228(%rbp)
   12ccd:	48 c7 85 e0 ed ff ff 	movq   $0x0,-0x1220(%rbp)
   12cd4:	00 00 00 00 
   12cd8:	48 8d 05 65 b3 00 00 	lea    0xb365(%rip),%rax        # 1e044 <g_71+0x14>
   12cdf:	48 89 85 e8 ed ff ff 	mov    %rax,-0x1218(%rbp)
   12ce6:	48 c7 85 f0 ed ff ff 	movq   $0x0,-0x1210(%rbp)
   12ced:	00 00 00 00 
   12cf1:	48 8d 85 5c df ff ff 	lea    -0x20a4(%rbp),%rax
   12cf8:	48 89 85 f8 ed ff ff 	mov    %rax,-0x1208(%rbp)
   12cff:	48 8d 85 5c df ff ff 	lea    -0x20a4(%rbp),%rax
   12d06:	48 89 85 00 ee ff ff 	mov    %rax,-0x1200(%rbp)
   12d0d:	48 c7 85 08 ee ff ff 	movq   $0x0,-0x11f8(%rbp)
   12d14:	00 00 00 00 
   12d18:	48 8d 05 25 b3 00 00 	lea    0xb325(%rip),%rax        # 1e044 <g_71+0x14>
   12d1f:	48 89 85 10 ee ff ff 	mov    %rax,-0x11f0(%rbp)
   12d26:	48 c7 85 18 ee ff ff 	movq   $0x0,-0x11e8(%rbp)
   12d2d:	00 00 00 00 
   12d31:	48 8d 85 5c df ff ff 	lea    -0x20a4(%rbp),%rax
   12d38:	48 89 85 20 ee ff ff 	mov    %rax,-0x11e0(%rbp)
   12d3f:	48 c7 85 28 ee ff ff 	movq   $0x0,-0x11d8(%rbp)
   12d46:	00 00 00 00 
   12d4a:	48 8d 85 5c df ff ff 	lea    -0x20a4(%rbp),%rax
   12d51:	48 89 85 30 ee ff ff 	mov    %rax,-0x11d0(%rbp)
   12d58:	48 8d 85 5c df ff ff 	lea    -0x20a4(%rbp),%rax
   12d5f:	48 89 85 38 ee ff ff 	mov    %rax,-0x11c8(%rbp)
   12d66:	48 c7 85 40 ee ff ff 	movq   $0x0,-0x11c0(%rbp)
   12d6d:	00 00 00 00 
   12d71:	48 8d 05 cc b2 00 00 	lea    0xb2cc(%rip),%rax        # 1e044 <g_71+0x14>
   12d78:	48 89 85 48 ee ff ff 	mov    %rax,-0x11b8(%rbp)
   12d7f:	48 c7 85 50 ee ff ff 	movq   $0x0,-0x11b0(%rbp)
   12d86:	00 00 00 00 
   12d8a:	48 8d 85 5c df ff ff 	lea    -0x20a4(%rbp),%rax
   12d91:	48 89 85 58 ee ff ff 	mov    %rax,-0x11a8(%rbp)
   12d98:	48 8d 85 5c df ff ff 	lea    -0x20a4(%rbp),%rax
   12d9f:	48 89 85 60 ee ff ff 	mov    %rax,-0x11a0(%rbp)
   12da6:	48 c7 85 68 ee ff ff 	movq   $0x0,-0x1198(%rbp)
   12dad:	00 00 00 00 
   12db1:	48 8d 85 70 e2 ff ff 	lea    -0x1d90(%rbp),%rax
   12db8:	48 83 c0 1c          	add    $0x1c,%rax
   12dbc:	48 89 85 70 ee ff ff 	mov    %rax,-0x1190(%rbp)
   12dc3:	48 8d 85 5c df ff ff 	lea    -0x20a4(%rbp),%rax
   12dca:	48 89 85 78 ee ff ff 	mov    %rax,-0x1188(%rbp)
   12dd1:	48 8d 85 50 df ff ff 	lea    -0x20b0(%rbp),%rax
   12dd8:	48 89 85 80 ee ff ff 	mov    %rax,-0x1180(%rbp)
   12ddf:	48 8d 85 5c df ff ff 	lea    -0x20a4(%rbp),%rax
   12de6:	48 89 85 88 ee ff ff 	mov    %rax,-0x1178(%rbp)
   12ded:	48 8d 85 70 e2 ff ff 	lea    -0x1d90(%rbp),%rax
   12df4:	48 83 c0 1c          	add    $0x1c,%rax
   12df8:	48 89 85 90 ee ff ff 	mov    %rax,-0x1170(%rbp)
   12dff:	48 8d 85 70 e2 ff ff 	lea    -0x1d90(%rbp),%rax
   12e06:	48 83 c0 1c          	add    $0x1c,%rax
   12e0a:	48 89 85 98 ee ff ff 	mov    %rax,-0x1168(%rbp)
   12e11:	48 8d 85 5c df ff ff 	lea    -0x20a4(%rbp),%rax
   12e18:	48 89 85 a0 ee ff ff 	mov    %rax,-0x1160(%rbp)
   12e1f:	48 8d 85 50 df ff ff 	lea    -0x20b0(%rbp),%rax
   12e26:	48 89 85 a8 ee ff ff 	mov    %rax,-0x1158(%rbp)
   12e2d:	48 8d 85 5c df ff ff 	lea    -0x20a4(%rbp),%rax
   12e34:	48 89 85 b0 ee ff ff 	mov    %rax,-0x1150(%rbp)
   12e3b:	48 8d 85 5c df ff ff 	lea    -0x20a4(%rbp),%rax
   12e42:	48 89 85 b8 ee ff ff 	mov    %rax,-0x1148(%rbp)
   12e49:	48 8d 05 f4 b1 00 00 	lea    0xb1f4(%rip),%rax        # 1e044 <g_71+0x14>
   12e50:	48 89 85 c0 ee ff ff 	mov    %rax,-0x1140(%rbp)
   12e57:	48 8d 85 50 df ff ff 	lea    -0x20b0(%rbp),%rax
   12e5e:	48 89 85 c8 ee ff ff 	mov    %rax,-0x1138(%rbp)
   12e65:	48 8d 85 50 df ff ff 	lea    -0x20b0(%rbp),%rax
   12e6c:	48 89 85 d0 ee ff ff 	mov    %rax,-0x1130(%rbp)
   12e73:	48 8d 05 ca b1 00 00 	lea    0xb1ca(%rip),%rax        # 1e044 <g_71+0x14>
   12e7a:	48 89 85 d8 ee ff ff 	mov    %rax,-0x1128(%rbp)
   12e81:	48 8d 85 5c df ff ff 	lea    -0x20a4(%rbp),%rax
   12e88:	48 89 85 e0 ee ff ff 	mov    %rax,-0x1120(%rbp)
   12e8f:	48 8d 05 ae b1 00 00 	lea    0xb1ae(%rip),%rax        # 1e044 <g_71+0x14>
   12e96:	48 89 85 e8 ee ff ff 	mov    %rax,-0x1118(%rbp)
   12e9d:	48 8d 85 50 df ff ff 	lea    -0x20b0(%rbp),%rax
   12ea4:	48 89 85 f0 ee ff ff 	mov    %rax,-0x1110(%rbp)
   12eab:	48 8d 85 50 df ff ff 	lea    -0x20b0(%rbp),%rax
   12eb2:	48 89 85 f8 ee ff ff 	mov    %rax,-0x1108(%rbp)
   12eb9:	8b 85 50 df ff ff    	mov    -0x20b0(%rbp),%eax
   12ebf:	4c 63 e8             	movslq %eax,%r13
   12ec2:	0f b6 05 91 88 00 00 	movzbl 0x8891(%rip),%eax        # 1b75a <l_614.5102+0x2>
   12ec9:	66 98                	cbtw   
   12ecb:	0f b7 d8             	movzwl %ax,%ebx
   12ece:	48 8b 85 e8 df ff ff 	mov    -0x2018(%rbp),%rax
   12ed5:	44 0f b7 e0          	movzwl %ax,%r12d
   12ed9:	48 8b 05 a8 c8 00 00 	mov    0xc8a8(%rip),%rax        # 1f788 <g_531>
   12ee0:	48 8b 95 00 e3 ff ff 	mov    -0x1d00(%rbp),%rdx
   12ee7:	48 89 10             	mov    %rdx,(%rax)
   12eea:	48 8b 00             	mov    (%rax),%rax
   12eed:	48 39 85 68 e0 ff ff 	cmp    %rax,-0x1f98(%rbp)
   12ef4:	0f 94 c0             	sete   %al
   12ef7:	0f b6 d0             	movzbl %al,%edx
   12efa:	48 8b 85 e8 df ff ff 	mov    -0x2018(%rbp),%rax
   12f01:	0f b7 c0             	movzwl %ax,%eax
   12f04:	89 d6                	mov    %edx,%esi
   12f06:	89 c7                	mov    %eax,%edi
   12f08:	e8 f2 3d ff ff       	callq  6cff <safe_add_func_uint16_t_u_u>
   12f0d:	66 85 c0             	test   %ax,%ax
   12f10:	0f 95 c0             	setne  %al
   12f13:	0f b6 c0             	movzbl %al,%eax
   12f16:	44 89 e6             	mov    %r12d,%esi
   12f19:	89 c7                	mov    %eax,%edi
   12f1b:	e8 1d 3e ff ff       	callq  6d3d <safe_mul_func_uint16_t_u_u>
   12f20:	0f b7 c0             	movzwl %ax,%eax
   12f23:	be 08 c6 df 7b       	mov    $0x7bdfc608,%esi
   12f28:	89 c7                	mov    %eax,%edi
   12f2a:	e8 d6 36 ff ff       	callq  6605 <safe_sub_func_int32_t_s_s>
   12f2f:	0f b7 c0             	movzwl %ax,%eax
   12f32:	89 de                	mov    %ebx,%esi
   12f34:	89 c7                	mov    %eax,%edi
   12f36:	e8 e4 3d ff ff       	callq  6d1f <safe_sub_func_uint16_t_u_u>
   12f3b:	0f b7 c0             	movzwl %ax,%eax
   12f3e:	48 33 85 98 e1 ff ff 	xor    -0x1e68(%rbp),%rax
   12f45:	48 85 c0             	test   %rax,%rax
   12f48:	7e 07                	jle    12f51 <func_44+0x1f53>
   12f4a:	b8 01 00 00 00       	mov    $0x1,%eax
   12f4f:	eb 05                	jmp    12f56 <func_44+0x1f58>
   12f51:	b8 00 00 00 00       	mov    $0x0,%eax
   12f56:	48 63 d0             	movslq %eax,%rdx
   12f59:	48 8b 05 88 b2 00 00 	mov    0xb288(%rip),%rax        # 1e1e8 <g_174>
   12f60:	48 8d 48 01          	lea    0x1(%rax),%rcx
   12f64:	48 89 0d 7d b2 00 00 	mov    %rcx,0xb27d(%rip)        # 1e1e8 <g_174>
   12f6b:	48 89 d6             	mov    %rdx,%rsi
   12f6e:	48 89 c7             	mov    %rax,%rdi
   12f71:	e8 39 41 ff ff       	callq  70af <safe_div_func_uint64_t_u_u>
   12f76:	4c 31 e8             	xor    %r13,%rax
   12f79:	89 c2                	mov    %eax,%edx
   12f7b:	8b 85 5c df ff ff    	mov    -0x20a4(%rbp),%eax
   12f81:	09 d0                	or     %edx,%eax
   12f83:	89 85 5c df ff ff    	mov    %eax,-0x20a4(%rbp)
   12f89:	8b 8d 5c df ff ff    	mov    -0x20a4(%rbp),%ecx
   12f8f:	48 8b 05 fa c7 00 00 	mov    0xc7fa(%rip),%rax        # 1f790 <g_554>
   12f96:	48 8b 00             	mov    (%rax),%rax
   12f99:	8b 10                	mov    (%rax),%edx
   12f9b:	21 ca                	and    %ecx,%edx
   12f9d:	89 10                	mov    %edx,(%rax)
   12f9f:	48 8b 85 e8 df ff ff 	mov    -0x2018(%rbp),%rax
   12fa6:	48 85 c0             	test   %rax,%rax
   12fa9:	0f 84 43 02 00 00    	je     131f2 <func_44+0x21f4>
   12faf:	48 8d 05 92 b2 00 00 	lea    0xb292(%rip),%rax        # 1e248 <g_223>
   12fb6:	48 89 85 18 e2 ff ff 	mov    %rax,-0x1de8(%rbp)
   12fbd:	c7 85 70 df ff ff 00 	movl   $0x0,-0x2090(%rbp)
   12fc4:	00 00 00 
   12fc7:	eb 1a                	jmp    12fe3 <func_44+0x1fe5>
   12fc9:	8b 85 70 df ff ff    	mov    -0x2090(%rbp),%eax
   12fcf:	48 98                	cltq   
   12fd1:	c7 84 85 b0 e3 ff ff 	movl   $0xf711882d,-0x1c50(%rbp,%rax,4)
   12fd8:	2d 88 11 f7 
   12fdc:	83 85 70 df ff ff 01 	addl   $0x1,-0x2090(%rbp)
   12fe3:	83 bd 70 df ff ff 07 	cmpl   $0x7,-0x2090(%rbp)
   12fea:	7e dd                	jle    12fc9 <func_44+0x1fcb>
   12fec:	48 8b 05 a5 c7 00 00 	mov    0xc7a5(%rip),%rax        # 1f798 <g_553>
   12ff3:	48 8b 00             	mov    (%rax),%rax
   12ff6:	48 8b 00             	mov    (%rax),%rax
   12ff9:	48 89 85 50 e0 ff ff 	mov    %rax,-0x1fb0(%rbp)
   13000:	8b 85 5c df ff ff    	mov    -0x20a4(%rbp),%eax
   13006:	44 0f b7 e0          	movzwl %ax,%r12d
   1300a:	8b 85 34 df ff ff    	mov    -0x20cc(%rbp),%eax
   13010:	44 0f be e8          	movsbl %al,%r13d
   13014:	48 8b 85 18 e2 ff ff 	mov    -0x1de8(%rbp),%rax
   1301b:	8b 18                	mov    (%rax),%ebx
   1301d:	8d 53 01             	lea    0x1(%rbx),%edx
   13020:	48 8b 85 18 e2 ff ff 	mov    -0x1de8(%rbp),%rax
   13027:	89 10                	mov    %edx,(%rax)
   13029:	8b 85 34 df ff ff    	mov    -0x20cc(%rbp),%eax
   1302f:	44 0f b6 f0          	movzbl %al,%r14d
   13033:	8b 85 34 df ff ff    	mov    -0x20cc(%rbp),%eax
   13039:	4c 63 f8             	movslq %eax,%r15
   1303c:	8b 85 c8 e3 ff ff    	mov    -0x1c38(%rbp),%eax
   13042:	0f be c0             	movsbl %al,%eax
   13045:	89 85 14 df ff ff    	mov    %eax,-0x20ec(%rbp)
   1304b:	0f b6 85 18 df ff ff 	movzbl -0x20e8(%rbp),%eax
   13052:	0f be d0             	movsbl %al,%edx
   13055:	48 8b 85 c0 e9 ff ff 	mov    -0x1640(%rbp),%rax
   1305c:	48 85 c0             	test   %rax,%rax
   1305f:	0f 95 c0             	setne  %al
   13062:	0f b6 c0             	movzbl %al,%eax
   13065:	89 d6                	mov    %edx,%esi
   13067:	89 c7                	mov    %eax,%edi
   13069:	e8 84 31 ff ff       	callq  61f2 <safe_sub_func_int8_t_s_s>
   1306e:	66 98                	cbtw   
   13070:	0f b7 c0             	movzwl %ax,%eax
   13073:	be ff ff 00 00       	mov    $0xffff,%esi
   13078:	89 c7                	mov    %eax,%edi
   1307a:	e8 dd 3c ff ff       	callq  6d5c <safe_mod_func_uint16_t_u_u>
   1307f:	8b 85 50 df ff ff    	mov    -0x20b0(%rbp),%eax
   13085:	48 98                	cltq   
   13087:	48 c7 c6 f8 ff ff ff 	mov    $0xfffffffffffffff8,%rsi
   1308e:	48 89 c7             	mov    %rax,%rdi
   13091:	e8 61 39 ff ff       	callq  69f7 <safe_div_func_int64_t_s_s>
   13096:	48 f7 d0             	not    %rax
   13099:	48 c1 e8 3f          	shr    $0x3f,%rax
   1309d:	0f b6 d0             	movzbl %al,%edx
   130a0:	8b 05 a6 b1 00 00    	mov    0xb1a6(%rip),%eax        # 1e24c <g_322>
   130a6:	21 c2                	and    %eax,%edx
   130a8:	0f b6 85 18 df ff ff 	movzbl -0x20e8(%rbp),%eax
   130af:	0f b6 c0             	movzbl %al,%eax
   130b2:	89 d6                	mov    %edx,%esi
   130b4:	89 c7                	mov    %eax,%edi
   130b6:	e8 d2 3b ff ff       	callq  6c8d <safe_rshift_func_uint8_t_u_s>
   130bb:	0f b6 d0             	movzbl %al,%edx
   130be:	48 8b 05 2b c7 00 00 	mov    0xc72b(%rip),%rax        # 1f7f0 <g_641>
   130c5:	48 85 c0             	test   %rax,%rax
   130c8:	0f 95 c0             	setne  %al
   130cb:	0f b6 c0             	movzbl %al,%eax
   130ce:	39 c2                	cmp    %eax,%edx
   130d0:	0f 9d c0             	setge  %al
   130d3:	0f b6 c0             	movzbl %al,%eax
   130d6:	48 39 85 98 e1 ff ff 	cmp    %rax,-0x1e68(%rbp)
   130dd:	0f 9c c0             	setl   %al
   130e0:	0f b6 d0             	movzbl %al,%edx
   130e3:	8b 85 34 df ff ff    	mov    -0x20cc(%rbp),%eax
   130e9:	39 c2                	cmp    %eax,%edx
   130eb:	0f 9f c0             	setg   %al
   130ee:	0f b6 c0             	movzbl %al,%eax
   130f1:	8b b5 14 df ff ff    	mov    -0x20ec(%rbp),%esi
   130f7:	89 c7                	mov    %eax,%edi
   130f9:	e8 f4 30 ff ff       	callq  61f2 <safe_sub_func_int8_t_s_s>
   130fe:	48 8b 85 88 e1 ff ff 	mov    -0x1e78(%rbp),%rax
   13105:	48 c7 00 00 00 00 00 	movq   $0x0,(%rax)
   1310c:	8b 95 c8 e3 ff ff    	mov    -0x1c38(%rbp),%edx
   13112:	8b 85 34 df ff ff    	mov    -0x20cc(%rbp),%eax
   13118:	39 c2                	cmp    %eax,%edx
   1311a:	0f 9d c0             	setge  %al
   1311d:	0f b6 c0             	movzbl %al,%eax
   13120:	4c 89 fe             	mov    %r15,%rsi
   13123:	48 89 c7             	mov    %rax,%rdi
   13126:	e8 84 3f ff ff       	callq  70af <safe_div_func_uint64_t_u_u>
   1312b:	89 c2                	mov    %eax,%edx
   1312d:	48 8b 85 70 e1 ff ff 	mov    -0x1e90(%rbp),%rax
   13134:	66 89 10             	mov    %dx,(%rax)
   13137:	0f b6 05 1a 86 00 00 	movzbl 0x861a(%rip),%eax        # 1b758 <l_614.5102>
   1313e:	84 c0                	test   %al,%al
   13140:	0f 9f c0             	setg   %al
   13143:	0f b6 c0             	movzbl %al,%eax
   13146:	44 89 f6             	mov    %r14d,%esi
   13149:	89 c7                	mov    %eax,%edi
   1314b:	e8 8b 3a ff ff       	callq  6bdb <safe_div_func_uint8_t_u_u>
   13150:	48 8b 05 91 b0 00 00 	mov    0xb091(%rip),%rax        # 1e1e8 <g_174>
   13157:	48 85 c0             	test   %rax,%rax
   1315a:	74 11                	je     1316d <func_44+0x216f>
   1315c:	8b 85 34 df ff ff    	mov    -0x20cc(%rbp),%eax
   13162:	85 c0                	test   %eax,%eax
   13164:	74 07                	je     1316d <func_44+0x216f>
   13166:	b8 01 00 00 00       	mov    $0x1,%eax
   1316b:	eb 05                	jmp    13172 <func_44+0x2174>
   1316d:	b8 00 00 00 00       	mov    $0x0,%eax
   13172:	0f b6 d0             	movzbl %al,%edx
   13175:	48 8b 05 0c c6 00 00 	mov    0xc60c(%rip),%rax        # 1f788 <g_531>
   1317c:	48 8b 00             	mov    (%rax),%rax
   1317f:	48 8b 00             	mov    (%rax),%rax
   13182:	0f b6 08             	movzbl (%rax),%ecx
   13185:	83 c1 01             	add    $0x1,%ecx
   13188:	88 08                	mov    %cl,(%rax)
   1318a:	0f b6 00             	movzbl (%rax),%eax
   1318d:	0f b6 c0             	movzbl %al,%eax
   13190:	89 d6                	mov    %edx,%esi
   13192:	89 c7                	mov    %eax,%edi
   13194:	e8 fa 39 ff ff       	callq  6b93 <safe_mul_func_uint8_t_u_u>
   13199:	0f b6 c0             	movzbl %al,%eax
   1319c:	39 c3                	cmp    %eax,%ebx
   1319e:	0f 95 c0             	setne  %al
   131a1:	0f b6 d0             	movzbl %al,%edx
   131a4:	0f b7 85 62 e2 ff ff 	movzwl -0x1d9e(%rbp),%eax
   131ab:	0f b7 c0             	movzwl %ax,%eax
   131ae:	39 c2                	cmp    %eax,%edx
   131b0:	0f 95 c0             	setne  %al
   131b3:	0f b6 c0             	movzbl %al,%eax
   131b6:	44 89 ee             	mov    %r13d,%esi
   131b9:	89 c7                	mov    %eax,%edi
   131bb:	e8 71 30 ff ff       	callq  6231 <safe_mod_func_int8_t_s_s>
   131c0:	66 98                	cbtw   
   131c2:	0f b7 c0             	movzwl %ax,%eax
   131c5:	44 89 e6             	mov    %r12d,%esi
   131c8:	89 c7                	mov    %eax,%edi
   131ca:	e8 bf 3b ff ff       	callq  6d8e <safe_div_func_uint16_t_u_u>
   131cf:	48 8b 05 ba c5 00 00 	mov    0xc5ba(%rip),%rax        # 1f790 <g_554>
   131d6:	48 8b 00             	mov    (%rax),%rax
   131d9:	c7 00 00 00 00 00    	movl   $0x0,(%rax)
   131df:	8b 85 c8 e3 ff ff    	mov    -0x1c38(%rbp),%eax
   131e5:	85 c0                	test   %eax,%eax
   131e7:	0f 84 a0 00 00 00    	je     1328d <func_44+0x228f>
   131ed:	e9 12 03 00 00       	jmpq   13504 <func_44+0x2506>
   131f2:	48 c7 85 58 e0 ff ff 	movq   $0x0,-0x1fa8(%rbp)
   131f9:	00 00 00 00 
   131fd:	48 8d 85 58 e0 ff ff 	lea    -0x1fa8(%rbp),%rax
   13204:	48 89 85 10 e2 ff ff 	mov    %rax,-0x1df0(%rbp)
   1320b:	48 8b 95 58 e0 ff ff 	mov    -0x1fa8(%rbp),%rdx
   13212:	48 8b 85 10 e2 ff ff 	mov    -0x1df0(%rbp),%rax
   13219:	48 89 10             	mov    %rdx,(%rax)
   1321c:	be 06 00 00 00       	mov    $0x6,%esi
   13221:	bf 21 00 00 00       	mov    $0x21,%edi
   13226:	e8 93 3a ff ff       	callq  6cbe <safe_rshift_func_uint8_t_u_u>
   1322b:	89 c2                	mov    %eax,%edx
   1322d:	48 8b 05 5c c5 00 00 	mov    0xc55c(%rip),%rax        # 1f790 <g_554>
   13234:	48 8b 00             	mov    (%rax),%rax
   13237:	8b 08                	mov    (%rax),%ecx
   13239:	0f b6 d2             	movzbl %dl,%edx
   1323c:	21 ca                	and    %ecx,%edx
   1323e:	89 10                	mov    %edx,(%rax)
   13240:	48 8b 85 88 e1 ff ff 	mov    -0x1e78(%rbp),%rax
   13247:	48 8b 10             	mov    (%rax),%rdx
   1324a:	48 8b 05 df d9 00 00 	mov    0xd9df(%rip),%rax        # 20c30 <g_532>
   13251:	48 8b 00             	mov    (%rax),%rax
   13254:	48 85 c0             	test   %rax,%rax
   13257:	0f 94 c0             	sete   %al
   1325a:	0f b6 c0             	movzbl %al,%eax
   1325d:	48 21 c2             	and    %rax,%rdx
   13260:	48 8b 85 88 e1 ff ff 	mov    -0x1e78(%rbp),%rax
   13267:	48 89 10             	mov    %rdx,(%rax)
   1326a:	b9 00 00 00 00       	mov    $0x0,%ecx
   1326f:	48 8b 05 1a c5 00 00 	mov    0xc51a(%rip),%rax        # 1f790 <g_554>
   13276:	48 8b 00             	mov    (%rax),%rax
   13279:	8b 10                	mov    (%rax),%edx
   1327b:	09 ca                	or     %ecx,%edx
   1327d:	89 10                	mov    %edx,(%rax)
   1327f:	48 8d 85 50 df ff ff 	lea    -0x20b0(%rbp),%rax
   13286:	48 89 85 18 e0 ff ff 	mov    %rax,-0x1fe8(%rbp)
   1328d:	48 8b 05 f4 c4 00 00 	mov    0xc4f4(%rip),%rax        # 1f788 <g_531>
   13294:	48 8b 00             	mov    (%rax),%rax
   13297:	48 8b 00             	mov    (%rax),%rax
   1329a:	0f b6 00             	movzbl (%rax),%eax
   1329d:	0f b6 c0             	movzbl %al,%eax
   132a0:	be 06 00 00 00       	mov    $0x6,%esi
   132a5:	89 c7                	mov    %eax,%edi
   132a7:	e8 12 3a ff ff       	callq  6cbe <safe_rshift_func_uint8_t_u_u>
   132ac:	0f bf 85 4a df ff ff 	movswl -0x20b6(%rbp),%eax
   132b3:	be 0c 00 00 00       	mov    $0xc,%esi
   132b8:	89 c7                	mov    %eax,%edi
   132ba:	e8 a4 32 ff ff       	callq  6563 <safe_rshift_func_int16_t_s_u>
   132bf:	98                   	cwtl   
   132c0:	89 c7                	mov    %eax,%edi
   132c2:	e8 df 3b ff ff       	callq  6ea6 <safe_unary_minus_func_uint32_t_u>
   132c7:	89 c2                	mov    %eax,%edx
   132c9:	48 8b 85 18 e0 ff ff 	mov    -0x1fe8(%rbp),%rax
   132d0:	89 10                	mov    %edx,(%rax)
   132d2:	8b 10                	mov    (%rax),%edx
   132d4:	8b 85 34 df ff ff    	mov    -0x20cc(%rbp),%eax
   132da:	3d 2d 39 00 00       	cmp    $0x392d,%eax
   132df:	0f 9e c0             	setle  %al
   132e2:	0f b6 c0             	movzbl %al,%eax
   132e5:	39 c2                	cmp    %eax,%edx
   132e7:	8b 85 34 df ff ff    	mov    -0x20cc(%rbp),%eax
   132ed:	85 c0                	test   %eax,%eax
   132ef:	0f 94 c0             	sete   %al
   132f2:	0f b6 d0             	movzbl %al,%edx
   132f5:	0f b6 85 18 df ff ff 	movzbl -0x20e8(%rbp),%eax
   132fc:	0f be c0             	movsbl %al,%eax
   132ff:	39 c2                	cmp    %eax,%edx
   13301:	0f 9e c0             	setle  %al
   13304:	0f b6 d0             	movzbl %al,%edx
   13307:	8b 05 3b af 00 00    	mov    0xaf3b(%rip),%eax        # 1e248 <g_223>
   1330d:	09 d0                	or     %edx,%eax
   1330f:	89 05 33 af 00 00    	mov    %eax,0xaf33(%rip)        # 1e248 <g_223>
   13315:	8b 05 2d af 00 00    	mov    0xaf2d(%rip),%eax        # 1e248 <g_223>
   1331b:	85 c0                	test   %eax,%eax
   1331d:	0f 95 c0             	setne  %al
   13320:	0f b6 d0             	movzbl %al,%edx
   13323:	48 8b 85 50 e0 ff ff 	mov    -0x1fb0(%rbp),%rax
   1332a:	8b 00                	mov    (%rax),%eax
   1332c:	39 c2                	cmp    %eax,%edx
   1332e:	0f 84 97 01 00 00    	je     134cb <func_44+0x24cd>
   13334:	48 8d 05 b5 d8 00 00 	lea    0xd8b5(%rip),%rax        # 20bf0 <g_87>
   1333b:	48 89 85 58 e0 ff ff 	mov    %rax,-0x1fa8(%rbp)
   13342:	48 8d 85 58 e0 ff ff 	lea    -0x1fa8(%rbp),%rax
   13349:	48 89 85 28 e2 ff ff 	mov    %rax,-0x1dd8(%rbp)
   13350:	48 8d 85 50 e2 ff ff 	lea    -0x1db0(%rbp),%rax
   13357:	48 83 c0 12          	add    $0x12,%rax
   1335b:	48 89 85 30 e2 ff ff 	mov    %rax,-0x1dd0(%rbp)
   13362:	48 8d 05 9f c4 00 00 	lea    0xc49f(%rip),%rax        # 1f808 <g_685+0x8>
   13369:	48 89 85 38 e2 ff ff 	mov    %rax,-0x1dc8(%rbp)
   13370:	48 c7 85 40 e2 ff ff 	movq   $0x0,-0x1dc0(%rbp)
   13377:	00 00 00 00 
   1337b:	c6 85 47 df ff ff 03 	movb   $0x3,-0x20b9(%rbp)
   13382:	48 8d 85 70 e2 ff ff 	lea    -0x1d90(%rbp),%rax
   13389:	48 83 c0 1c          	add    $0x1c,%rax
   1338d:	48 89 85 b0 e3 ff ff 	mov    %rax,-0x1c50(%rbp)
   13394:	48 8d 85 60 df ff ff 	lea    -0x20a0(%rbp),%rax
   1339b:	48 89 85 b8 e3 ff ff 	mov    %rax,-0x1c48(%rbp)
   133a2:	48 8d 85 60 df ff ff 	lea    -0x20a0(%rbp),%rax
   133a9:	48 89 85 c0 e3 ff ff 	mov    %rax,-0x1c40(%rbp)
   133b0:	48 8d 85 70 e2 ff ff 	lea    -0x1d90(%rbp),%rax
   133b7:	48 83 c0 1c          	add    $0x1c,%rax
   133bb:	48 89 85 c8 e3 ff ff 	mov    %rax,-0x1c38(%rbp)
   133c2:	48 8d 85 60 df ff ff 	lea    -0x20a0(%rbp),%rax
   133c9:	48 89 85 d0 e3 ff ff 	mov    %rax,-0x1c30(%rbp)
   133d0:	48 8d 85 60 df ff ff 	lea    -0x20a0(%rbp),%rax
   133d7:	48 89 85 d8 e3 ff ff 	mov    %rax,-0x1c28(%rbp)
   133de:	48 8d 85 70 e2 ff ff 	lea    -0x1d90(%rbp),%rax
   133e5:	48 83 c0 1c          	add    $0x1c,%rax
   133e9:	48 89 85 e0 e3 ff ff 	mov    %rax,-0x1c20(%rbp)
   133f0:	8b 85 34 df ff ff    	mov    -0x20cc(%rbp),%eax
   133f6:	89 c2                	mov    %eax,%edx
   133f8:	0f b6 85 18 df ff ff 	movzbl -0x20e8(%rbp),%eax
   133ff:	0f b6 c0             	movzbl %al,%eax
   13402:	89 d6                	mov    %edx,%esi
   13404:	89 c7                	mov    %eax,%edi
   13406:	e8 b3 38 ff ff       	callq  6cbe <safe_rshift_func_uint8_t_u_u>
   1340b:	48 8b 85 28 e2 ff ff 	mov    -0x1dd8(%rbp),%rax
   13412:	48 8d 15 df d7 00 00 	lea    0xd7df(%rip),%rdx        # 20bf8 <g_87+0x8>
   13419:	48 89 10             	mov    %rdx,(%rax)
   1341c:	48 8b 85 40 e0 ff ff 	mov    -0x1fc0(%rbp),%rax
   13423:	48 89 85 f8 e1 ff ff 	mov    %rax,-0x1e08(%rbp)
   1342a:	48 8d 05 c7 d7 00 00 	lea    0xd7c7(%rip),%rax        # 20bf8 <g_87+0x8>
   13431:	48 39 85 f8 e1 ff ff 	cmp    %rax,-0x1e08(%rbp)
   13438:	0f 95 c0             	setne  %al
   1343b:	0f b6 d8             	movzbl %al,%ebx
   1343e:	48 8b 05 ab c3 00 00 	mov    0xc3ab(%rip),%rax        # 1f7f0 <g_641>
   13445:	0f b7 00             	movzwl (%rax),%eax
   13448:	0f b7 c0             	movzwl %ax,%eax
   1344b:	be 0a 00 00 00       	mov    $0xa,%esi
   13450:	89 c7                	mov    %eax,%edi
   13452:	e8 af 39 ff ff       	callq  6e06 <safe_lshift_func_uint16_t_u_u>
   13457:	89 c2                	mov    %eax,%edx
   13459:	48 8b 85 68 e0 ff ff 	mov    -0x1f98(%rbp),%rax
   13460:	48 8b 00             	mov    (%rax),%rax
   13463:	0f b6 08             	movzbl (%rax),%ecx
   13466:	48 8b 85 68 e0 ff ff 	mov    -0x1f98(%rbp),%rax
   1346d:	48 8b 00             	mov    (%rax),%rax
   13470:	83 f1 91             	xor    $0xffffff91,%ecx
   13473:	88 08                	mov    %cl,(%rax)
   13475:	0f b6 00             	movzbl (%rax),%eax
   13478:	0f b6 c0             	movzbl %al,%eax
   1347b:	66 39 c2             	cmp    %ax,%dx
   1347e:	0f 94 c0             	sete   %al
   13481:	0f b6 c0             	movzbl %al,%eax
   13484:	89 de                	mov    %ebx,%esi
   13486:	89 c7                	mov    %eax,%edi
   13488:	e8 92 38 ff ff       	callq  6d1f <safe_sub_func_uint16_t_u_u>
   1348d:	66 83 f8 01          	cmp    $0x1,%ax
   13491:	0f 96 c2             	setbe  %dl
   13494:	48 8b 85 38 e0 ff ff 	mov    -0x1fc8(%rbp),%rax
   1349b:	48 8b 00             	mov    (%rax),%rax
   1349e:	0f b6 d2             	movzbl %dl,%edx
   134a1:	89 10                	mov    %edx,(%rax)
   134a3:	48 8d 85 34 df ff ff 	lea    -0x20cc(%rbp),%rax
   134aa:	48 89 85 40 e2 ff ff 	mov    %rax,-0x1dc0(%rbp)
   134b1:	80 85 46 df ff ff 01 	addb   $0x1,-0x20ba(%rbp)
   134b8:	48 8b 85 f8 e1 ff ff 	mov    -0x1e08(%rbp),%rax
   134bf:	48 8b 00             	mov    (%rax),%rax
   134c2:	48 8b 00             	mov    (%rax),%rax
   134c5:	8b 00                	mov    (%rax),%eax
   134c7:	85 c0                	test   %eax,%eax
   134c9:	eb 1a                	jmp    134e5 <func_44+0x24e7>
   134cb:	48 8d 85 5c df ff ff 	lea    -0x20a4(%rbp),%rax
   134d2:	48 89 85 20 e2 ff ff 	mov    %rax,-0x1de0(%rbp)
   134d9:	48 8b 85 a0 e1 ff ff 	mov    -0x1e60(%rbp),%rax
   134e0:	e9 bc 3f 00 00       	jmpq   174a1 <func_44+0x64a3>
   134e5:	0f b7 85 4a df ff ff 	movzwl -0x20b6(%rbp),%eax
   134ec:	83 c0 01             	add    $0x1,%eax
   134ef:	66 89 85 4a df ff ff 	mov    %ax,-0x20b6(%rbp)
   134f6:	66 83 bd 4a df ff ff 	cmpw   $0x1b,-0x20b6(%rbp)
   134fd:	1b 
   134fe:	0f 8e 0b e6 ff ff    	jle    11b0f <func_44+0xb11>
   13504:	48 8b 85 00 e2 ff ff 	mov    -0x1e00(%rbp),%rax
   1350b:	e9 91 3f 00 00       	jmpq   174a1 <func_44+0x64a3>
   13510:	48 8d 05 21 ad 00 00 	lea    0xad21(%rip),%rax        # 1e238 <g_198+0x18>
   13517:	48 89 85 f0 f7 ff ff 	mov    %rax,-0x810(%rbp)
   1351e:	48 c7 85 f8 f7 ff ff 	movq   $0x0,-0x808(%rbp)
   13525:	00 00 00 00 
   13529:	48 c7 85 00 f8 ff ff 	movq   $0x0,-0x800(%rbp)
   13530:	00 00 00 00 
   13534:	48 8d 05 cd ac 00 00 	lea    0xaccd(%rip),%rax        # 1e208 <g_196+0x8>
   1353b:	48 89 85 08 f8 ff ff 	mov    %rax,-0x7f8(%rbp)
   13542:	48 c7 85 10 f8 ff ff 	movq   $0x0,-0x7f0(%rbp)
   13549:	00 00 00 00 
   1354d:	48 8d 85 50 e2 ff ff 	lea    -0x1db0(%rbp),%rax
   13554:	48 83 c0 12          	add    $0x12,%rax
   13558:	48 89 85 18 f8 ff ff 	mov    %rax,-0x7e8(%rbp)
   1355f:	48 8d 85 50 e2 ff ff 	lea    -0x1db0(%rbp),%rax
   13566:	48 83 c0 12          	add    $0x12,%rax
   1356a:	48 89 85 20 f8 ff ff 	mov    %rax,-0x7e0(%rbp)
   13571:	48 8d 85 50 e2 ff ff 	lea    -0x1db0(%rbp),%rax
   13578:	48 83 c0 12          	add    $0x12,%rax
   1357c:	48 89 85 28 f8 ff ff 	mov    %rax,-0x7d8(%rbp)
   13583:	48 8d 05 9a ac 00 00 	lea    0xac9a(%rip),%rax        # 1e224 <g_198+0x4>
   1358a:	48 89 85 30 f8 ff ff 	mov    %rax,-0x7d0(%rbp)
   13591:	48 8d 85 50 e2 ff ff 	lea    -0x1db0(%rbp),%rax
   13598:	48 83 c0 12          	add    $0x12,%rax
   1359c:	48 89 85 38 f8 ff ff 	mov    %rax,-0x7c8(%rbp)
   135a3:	48 8d 05 5e ac 00 00 	lea    0xac5e(%rip),%rax        # 1e208 <g_196+0x8>
   135aa:	48 89 85 40 f8 ff ff 	mov    %rax,-0x7c0(%rbp)
   135b1:	48 8d 05 50 ac 00 00 	lea    0xac50(%rip),%rax        # 1e208 <g_196+0x8>
   135b8:	48 89 85 48 f8 ff ff 	mov    %rax,-0x7b8(%rbp)
   135bf:	48 8d 05 42 ac 00 00 	lea    0xac42(%rip),%rax        # 1e208 <g_196+0x8>
   135c6:	48 89 85 50 f8 ff ff 	mov    %rax,-0x7b0(%rbp)
   135cd:	48 8d 05 50 ac 00 00 	lea    0xac50(%rip),%rax        # 1e224 <g_198+0x4>
   135d4:	48 89 85 58 f8 ff ff 	mov    %rax,-0x7a8(%rbp)
   135db:	48 c7 85 60 f8 ff ff 	movq   $0x0,-0x7a0(%rbp)
   135e2:	00 00 00 00 
   135e6:	48 c7 85 68 f8 ff ff 	movq   $0x0,-0x798(%rbp)
   135ed:	00 00 00 00 
   135f1:	48 c7 85 70 f8 ff ff 	movq   $0x0,-0x790(%rbp)
   135f8:	00 00 00 00 
   135fc:	48 8d 85 50 e2 ff ff 	lea    -0x1db0(%rbp),%rax
   13603:	48 83 c0 12          	add    $0x12,%rax
   13607:	48 89 85 78 f8 ff ff 	mov    %rax,-0x788(%rbp)
   1360e:	48 c7 85 80 f8 ff ff 	movq   $0x0,-0x780(%rbp)
   13615:	00 00 00 00 
   13619:	48 8d 05 18 ac 00 00 	lea    0xac18(%rip),%rax        # 1e238 <g_198+0x18>
   13620:	48 89 85 88 f8 ff ff 	mov    %rax,-0x778(%rbp)
   13627:	48 8d 05 0a ac 00 00 	lea    0xac0a(%rip),%rax        # 1e238 <g_198+0x18>
   1362e:	48 89 85 90 f8 ff ff 	mov    %rax,-0x770(%rbp)
   13635:	48 8d 05 cc ab 00 00 	lea    0xabcc(%rip),%rax        # 1e208 <g_196+0x8>
   1363c:	48 89 85 98 f8 ff ff 	mov    %rax,-0x768(%rbp)
   13643:	48 8d 05 da ab 00 00 	lea    0xabda(%rip),%rax        # 1e224 <g_198+0x4>
   1364a:	48 89 85 a0 f8 ff ff 	mov    %rax,-0x760(%rbp)
   13651:	48 c7 85 a8 f8 ff ff 	movq   $0x0,-0x758(%rbp)
   13658:	00 00 00 00 
   1365c:	48 8d 05 a5 ab 00 00 	lea    0xaba5(%rip),%rax        # 1e208 <g_196+0x8>
   13663:	48 89 85 b0 f8 ff ff 	mov    %rax,-0x750(%rbp)
   1366a:	48 8d 05 c7 ab 00 00 	lea    0xabc7(%rip),%rax        # 1e238 <g_198+0x18>
   13671:	48 89 85 b8 f8 ff ff 	mov    %rax,-0x748(%rbp)
   13678:	48 8d 85 50 e2 ff ff 	lea    -0x1db0(%rbp),%rax
   1367f:	48 83 c0 02          	add    $0x2,%rax
   13683:	48 89 85 c0 f8 ff ff 	mov    %rax,-0x740(%rbp)
   1368a:	48 c7 85 c8 f8 ff ff 	movq   $0x0,-0x738(%rbp)
   13691:	00 00 00 00 
   13695:	48 8d 85 50 e2 ff ff 	lea    -0x1db0(%rbp),%rax
   1369c:	48 83 c0 04          	add    $0x4,%rax
   136a0:	48 89 85 d0 f8 ff ff 	mov    %rax,-0x730(%rbp)
   136a7:	48 8d 05 5a ab 00 00 	lea    0xab5a(%rip),%rax        # 1e208 <g_196+0x8>
   136ae:	48 89 85 d8 f8 ff ff 	mov    %rax,-0x728(%rbp)
   136b5:	48 c7 85 e0 f8 ff ff 	movq   $0x0,-0x720(%rbp)
   136bc:	00 00 00 00 
   136c0:	48 8d 05 3b ab 00 00 	lea    0xab3b(%rip),%rax        # 1e202 <g_196+0x2>
   136c7:	48 89 85 e8 f8 ff ff 	mov    %rax,-0x718(%rbp)
   136ce:	48 8d 85 50 e2 ff ff 	lea    -0x1db0(%rbp),%rax
   136d5:	48 89 85 f0 f8 ff ff 	mov    %rax,-0x710(%rbp)
   136dc:	48 8d 85 50 e2 ff ff 	lea    -0x1db0(%rbp),%rax
   136e3:	48 83 c0 12          	add    $0x12,%rax
   136e7:	48 89 85 f8 f8 ff ff 	mov    %rax,-0x708(%rbp)
   136ee:	48 8d 05 2b ab 00 00 	lea    0xab2b(%rip),%rax        # 1e220 <g_198>
   136f5:	48 89 85 00 f9 ff ff 	mov    %rax,-0x700(%rbp)
   136fc:	48 8d 05 27 ab 00 00 	lea    0xab27(%rip),%rax        # 1e22a <g_198+0xa>
   13703:	48 89 85 08 f9 ff ff 	mov    %rax,-0x6f8(%rbp)
   1370a:	48 8d 85 50 e2 ff ff 	lea    -0x1db0(%rbp),%rax
   13711:	48 83 c0 08          	add    $0x8,%rax
   13715:	48 89 85 10 f9 ff ff 	mov    %rax,-0x6f0(%rbp)
   1371c:	48 8d 05 dd aa 00 00 	lea    0xaadd(%rip),%rax        # 1e200 <g_196>
   13723:	48 89 85 18 f9 ff ff 	mov    %rax,-0x6e8(%rbp)
   1372a:	48 8d 05 07 ab 00 00 	lea    0xab07(%rip),%rax        # 1e238 <g_198+0x18>
   13731:	48 89 85 20 f9 ff ff 	mov    %rax,-0x6e0(%rbp)
   13738:	48 c7 85 28 f9 ff ff 	movq   $0x0,-0x6d8(%rbp)
   1373f:	00 00 00 00 
   13743:	48 8d 05 d6 aa 00 00 	lea    0xaad6(%rip),%rax        # 1e220 <g_198>
   1374a:	48 89 85 30 f9 ff ff 	mov    %rax,-0x6d0(%rbp)
   13751:	48 c7 85 38 f9 ff ff 	movq   $0x0,-0x6c8(%rbp)
   13758:	00 00 00 00 
   1375c:	48 8d 05 d5 aa 00 00 	lea    0xaad5(%rip),%rax        # 1e238 <g_198+0x18>
   13763:	48 89 85 40 f9 ff ff 	mov    %rax,-0x6c0(%rbp)
   1376a:	48 8d 85 50 e2 ff ff 	lea    -0x1db0(%rbp),%rax
   13771:	48 83 c0 12          	add    $0x12,%rax
   13775:	48 89 85 48 f9 ff ff 	mov    %rax,-0x6b8(%rbp)
   1377c:	48 8d 05 85 aa 00 00 	lea    0xaa85(%rip),%rax        # 1e208 <g_196+0x8>
   13783:	48 89 85 50 f9 ff ff 	mov    %rax,-0x6b0(%rbp)
   1378a:	48 8d 85 50 e2 ff ff 	lea    -0x1db0(%rbp),%rax
   13791:	48 83 c0 02          	add    $0x2,%rax
   13795:	48 89 85 58 f9 ff ff 	mov    %rax,-0x6a8(%rbp)
   1379c:	48 8d 05 63 aa 00 00 	lea    0xaa63(%rip),%rax        # 1e206 <g_196+0x6>
   137a3:	48 89 85 60 f9 ff ff 	mov    %rax,-0x6a0(%rbp)
   137aa:	48 c7 85 68 f9 ff ff 	movq   $0x0,-0x698(%rbp)
   137b1:	00 00 00 00 
   137b5:	48 8d 05 7c aa 00 00 	lea    0xaa7c(%rip),%rax        # 1e238 <g_198+0x18>
   137bc:	48 89 85 70 f9 ff ff 	mov    %rax,-0x690(%rbp)
   137c3:	48 8d 05 6e aa 00 00 	lea    0xaa6e(%rip),%rax        # 1e238 <g_198+0x18>
   137ca:	48 89 85 78 f9 ff ff 	mov    %rax,-0x688(%rbp)
   137d1:	48 8d 05 30 aa 00 00 	lea    0xaa30(%rip),%rax        # 1e208 <g_196+0x8>
   137d8:	48 89 85 80 f9 ff ff 	mov    %rax,-0x680(%rbp)
   137df:	48 8d 05 22 aa 00 00 	lea    0xaa22(%rip),%rax        # 1e208 <g_196+0x8>
   137e6:	48 89 85 88 f9 ff ff 	mov    %rax,-0x678(%rbp)
   137ed:	48 8d 85 50 e2 ff ff 	lea    -0x1db0(%rbp),%rax
   137f4:	48 83 c0 0c          	add    $0xc,%rax
   137f8:	48 89 85 90 f9 ff ff 	mov    %rax,-0x670(%rbp)
   137ff:	48 8d 85 50 e2 ff ff 	lea    -0x1db0(%rbp),%rax
   13806:	48 83 c0 0c          	add    $0xc,%rax
   1380a:	48 89 85 98 f9 ff ff 	mov    %rax,-0x668(%rbp)
   13811:	48 8d 05 0e aa 00 00 	lea    0xaa0e(%rip),%rax        # 1e226 <g_198+0x6>
   13818:	48 89 85 a0 f9 ff ff 	mov    %rax,-0x660(%rbp)
   1381f:	48 8d 05 fc a9 00 00 	lea    0xa9fc(%rip),%rax        # 1e222 <g_198+0x2>
   13826:	48 89 85 a8 f9 ff ff 	mov    %rax,-0x658(%rbp)
   1382d:	48 8d 05 d4 a9 00 00 	lea    0xa9d4(%rip),%rax        # 1e208 <g_196+0x8>
   13834:	48 89 85 b0 f9 ff ff 	mov    %rax,-0x650(%rbp)
   1383b:	48 8d 85 50 e2 ff ff 	lea    -0x1db0(%rbp),%rax
   13842:	48 89 85 b8 f9 ff ff 	mov    %rax,-0x648(%rbp)
   13849:	48 8d 05 e8 a9 00 00 	lea    0xa9e8(%rip),%rax        # 1e238 <g_198+0x18>
   13850:	48 89 85 c0 f9 ff ff 	mov    %rax,-0x640(%rbp)
   13857:	48 8d 85 50 e2 ff ff 	lea    -0x1db0(%rbp),%rax
   1385e:	48 83 c0 0e          	add    $0xe,%rax
   13862:	48 89 85 c8 f9 ff ff 	mov    %rax,-0x638(%rbp)
   13869:	48 8d 05 c8 a9 00 00 	lea    0xa9c8(%rip),%rax        # 1e238 <g_198+0x18>
   13870:	48 89 85 d0 f9 ff ff 	mov    %rax,-0x630(%rbp)
   13877:	48 8d 05 84 a9 00 00 	lea    0xa984(%rip),%rax        # 1e202 <g_196+0x2>
   1387e:	48 89 85 d8 f9 ff ff 	mov    %rax,-0x628(%rbp)
   13885:	48 8d 85 50 e2 ff ff 	lea    -0x1db0(%rbp),%rax
   1388c:	48 83 c0 0c          	add    $0xc,%rax
   13890:	48 89 85 e0 f9 ff ff 	mov    %rax,-0x620(%rbp)
   13897:	48 8d 05 9a a9 00 00 	lea    0xa99a(%rip),%rax        # 1e238 <g_198+0x18>
   1389e:	48 89 85 e8 f9 ff ff 	mov    %rax,-0x618(%rbp)
   138a5:	48 8d 85 50 e2 ff ff 	lea    -0x1db0(%rbp),%rax
   138ac:	48 83 c0 12          	add    $0x12,%rax
   138b0:	48 89 85 f0 f9 ff ff 	mov    %rax,-0x610(%rbp)
   138b7:	48 8d 05 44 a9 00 00 	lea    0xa944(%rip),%rax        # 1e202 <g_196+0x2>
   138be:	48 89 85 f8 f9 ff ff 	mov    %rax,-0x608(%rbp)
   138c5:	48 8d 05 6c a9 00 00 	lea    0xa96c(%rip),%rax        # 1e238 <g_198+0x18>
   138cc:	48 89 85 00 fa ff ff 	mov    %rax,-0x600(%rbp)
   138d3:	48 8d 85 50 e2 ff ff 	lea    -0x1db0(%rbp),%rax
   138da:	48 83 c0 0e          	add    $0xe,%rax
   138de:	48 89 85 08 fa ff ff 	mov    %rax,-0x5f8(%rbp)
   138e5:	48 8d 05 16 a9 00 00 	lea    0xa916(%rip),%rax        # 1e202 <g_196+0x2>
   138ec:	48 89 85 10 fa ff ff 	mov    %rax,-0x5f0(%rbp)
   138f3:	48 8d 85 50 e2 ff ff 	lea    -0x1db0(%rbp),%rax
   138fa:	48 89 85 18 fa ff ff 	mov    %rax,-0x5e8(%rbp)
   13901:	48 c7 85 20 fa ff ff 	movq   $0x0,-0x5e0(%rbp)
   13908:	00 00 00 00 
   1390c:	48 8d 05 0f a9 00 00 	lea    0xa90f(%rip),%rax        # 1e222 <g_198+0x2>
   13913:	48 89 85 28 fa ff ff 	mov    %rax,-0x5d8(%rbp)
   1391a:	48 8d 05 05 a9 00 00 	lea    0xa905(%rip),%rax        # 1e226 <g_198+0x6>
   13921:	48 89 85 30 fa ff ff 	mov    %rax,-0x5d0(%rbp)
   13928:	48 8d 85 50 e2 ff ff 	lea    -0x1db0(%rbp),%rax
   1392f:	48 83 c0 0c          	add    $0xc,%rax
   13933:	48 89 85 38 fa ff ff 	mov    %rax,-0x5c8(%rbp)
   1393a:	48 8d 05 c9 a8 00 00 	lea    0xa8c9(%rip),%rax        # 1e20a <g_196+0xa>
   13941:	48 89 85 40 fa ff ff 	mov    %rax,-0x5c0(%rbp)
   13948:	48 8d 05 b9 a8 00 00 	lea    0xa8b9(%rip),%rax        # 1e208 <g_196+0x8>
   1394f:	48 89 85 48 fa ff ff 	mov    %rax,-0x5b8(%rbp)
   13956:	48 8d 05 db a8 00 00 	lea    0xa8db(%rip),%rax        # 1e238 <g_198+0x18>
   1395d:	48 89 85 50 fa ff ff 	mov    %rax,-0x5b0(%rbp)
   13964:	48 8d 05 cd a8 00 00 	lea    0xa8cd(%rip),%rax        # 1e238 <g_198+0x18>
   1396b:	48 89 85 58 fa ff ff 	mov    %rax,-0x5a8(%rbp)
   13972:	48 8d 05 bf a8 00 00 	lea    0xa8bf(%rip),%rax        # 1e238 <g_198+0x18>
   13979:	48 89 85 60 fa ff ff 	mov    %rax,-0x5a0(%rbp)
   13980:	48 c7 85 68 fa ff ff 	movq   $0x0,-0x598(%rbp)
   13987:	00 00 00 00 
   1398b:	48 c7 85 70 fa ff ff 	movq   $0x0,-0x590(%rbp)
   13992:	00 00 00 00 
   13996:	48 8d 85 50 e2 ff ff 	lea    -0x1db0(%rbp),%rax
   1399d:	48 83 c0 02          	add    $0x2,%rax
   139a1:	48 89 85 78 fa ff ff 	mov    %rax,-0x588(%rbp)
   139a8:	48 8d 05 59 a8 00 00 	lea    0xa859(%rip),%rax        # 1e208 <g_196+0x8>
   139af:	48 89 85 80 fa ff ff 	mov    %rax,-0x580(%rbp)
   139b6:	48 8d 85 50 e2 ff ff 	lea    -0x1db0(%rbp),%rax
   139bd:	48 83 c0 12          	add    $0x12,%rax
   139c1:	48 89 85 88 fa ff ff 	mov    %rax,-0x578(%rbp)
   139c8:	48 8d 85 50 e2 ff ff 	lea    -0x1db0(%rbp),%rax
   139cf:	48 83 c0 0e          	add    $0xe,%rax
   139d3:	48 89 85 90 fa ff ff 	mov    %rax,-0x570(%rbp)
   139da:	48 c7 85 98 fa ff ff 	movq   $0x0,-0x568(%rbp)
   139e1:	00 00 00 00 
   139e5:	48 8d 05 4c a8 00 00 	lea    0xa84c(%rip),%rax        # 1e238 <g_198+0x18>
   139ec:	48 89 85 a0 fa ff ff 	mov    %rax,-0x560(%rbp)
   139f3:	48 c7 85 a8 fa ff ff 	movq   $0x0,-0x558(%rbp)
   139fa:	00 00 00 00 
   139fe:	48 8d 05 33 a8 00 00 	lea    0xa833(%rip),%rax        # 1e238 <g_198+0x18>
   13a05:	48 89 85 b0 fa ff ff 	mov    %rax,-0x550(%rbp)
   13a0c:	48 8d 05 ed a7 00 00 	lea    0xa7ed(%rip),%rax        # 1e200 <g_196>
   13a13:	48 89 85 b8 fa ff ff 	mov    %rax,-0x548(%rbp)
   13a1a:	48 8d 05 e7 a7 00 00 	lea    0xa7e7(%rip),%rax        # 1e208 <g_196+0x8>
   13a21:	48 89 85 c0 fa ff ff 	mov    %rax,-0x540(%rbp)
   13a28:	48 8d 05 fb a7 00 00 	lea    0xa7fb(%rip),%rax        # 1e22a <g_198+0xa>
   13a2f:	48 89 85 c8 fa ff ff 	mov    %rax,-0x538(%rbp)
   13a36:	48 8d 05 fb a7 00 00 	lea    0xa7fb(%rip),%rax        # 1e238 <g_198+0x18>
   13a3d:	48 89 85 d0 fa ff ff 	mov    %rax,-0x530(%rbp)
   13a44:	48 8d 85 50 e2 ff ff 	lea    -0x1db0(%rbp),%rax
   13a4b:	48 83 c0 12          	add    $0x12,%rax
   13a4f:	48 89 85 d8 fa ff ff 	mov    %rax,-0x528(%rbp)
   13a56:	48 c7 85 e0 fa ff ff 	movq   $0x0,-0x520(%rbp)
   13a5d:	00 00 00 00 
   13a61:	48 8d 05 9a a7 00 00 	lea    0xa79a(%rip),%rax        # 1e202 <g_196+0x2>
   13a68:	48 89 85 e8 fa ff ff 	mov    %rax,-0x518(%rbp)
   13a6f:	48 8d 85 50 e2 ff ff 	lea    -0x1db0(%rbp),%rax
   13a76:	48 83 c0 12          	add    $0x12,%rax
   13a7a:	48 89 85 f0 fa ff ff 	mov    %rax,-0x510(%rbp)
   13a81:	48 8d 05 80 a7 00 00 	lea    0xa780(%rip),%rax        # 1e208 <g_196+0x8>
   13a88:	48 89 85 f8 fa ff ff 	mov    %rax,-0x508(%rbp)
   13a8f:	48 c7 85 00 fb ff ff 	movq   $0x0,-0x500(%rbp)
   13a96:	00 00 00 00 
   13a9a:	48 c7 85 08 fb ff ff 	movq   $0x0,-0x4f8(%rbp)
   13aa1:	00 00 00 00 
   13aa5:	48 8d 05 78 a7 00 00 	lea    0xa778(%rip),%rax        # 1e224 <g_198+0x4>
   13aac:	48 89 85 10 fb ff ff 	mov    %rax,-0x4f0(%rbp)
   13ab3:	48 8d 05 7e a7 00 00 	lea    0xa77e(%rip),%rax        # 1e238 <g_198+0x18>
   13aba:	48 89 85 18 fb ff ff 	mov    %rax,-0x4e8(%rbp)
   13ac1:	48 8d 05 62 a7 00 00 	lea    0xa762(%rip),%rax        # 1e22a <g_198+0xa>
   13ac8:	48 89 85 20 fb ff ff 	mov    %rax,-0x4e0(%rbp)
   13acf:	48 c7 85 28 fb ff ff 	movq   $0x0,-0x4d8(%rbp)
   13ad6:	00 00 00 00 
   13ada:	48 c7 85 30 fb ff ff 	movq   $0x0,-0x4d0(%rbp)
   13ae1:	00 00 00 00 
   13ae5:	48 8d 05 1c a7 00 00 	lea    0xa71c(%rip),%rax        # 1e208 <g_196+0x8>
   13aec:	48 89 85 38 fb ff ff 	mov    %rax,-0x4c8(%rbp)
   13af3:	48 8d 85 50 e2 ff ff 	lea    -0x1db0(%rbp),%rax
   13afa:	48 83 c0 12          	add    $0x12,%rax
   13afe:	48 89 85 40 fb ff ff 	mov    %rax,-0x4c0(%rbp)
   13b05:	48 8d 05 2c a7 00 00 	lea    0xa72c(%rip),%rax        # 1e238 <g_198+0x18>
   13b0c:	48 89 85 48 fb ff ff 	mov    %rax,-0x4b8(%rbp)
   13b13:	48 c7 85 50 fb ff ff 	movq   $0x0,-0x4b0(%rbp)
   13b1a:	00 00 00 00 
   13b1e:	48 8d 85 50 e2 ff ff 	lea    -0x1db0(%rbp),%rax
   13b25:	48 83 c0 12          	add    $0x12,%rax
   13b29:	48 89 85 58 fb ff ff 	mov    %rax,-0x4a8(%rbp)
   13b30:	48 8d 05 f5 a6 00 00 	lea    0xa6f5(%rip),%rax        # 1e22c <g_198+0xc>
   13b37:	48 89 85 60 fb ff ff 	mov    %rax,-0x4a0(%rbp)
   13b3e:	48 c7 85 68 fb ff ff 	movq   $0x0,-0x498(%rbp)
   13b45:	00 00 00 00 
   13b49:	48 8d 85 50 e2 ff ff 	lea    -0x1db0(%rbp),%rax
   13b50:	48 83 c0 12          	add    $0x12,%rax
   13b54:	48 89 85 70 fb ff ff 	mov    %rax,-0x490(%rbp)
   13b5b:	48 8d 05 c2 a6 00 00 	lea    0xa6c2(%rip),%rax        # 1e224 <g_198+0x4>
   13b62:	48 89 85 78 fb ff ff 	mov    %rax,-0x488(%rbp)
   13b69:	48 8d 85 50 e2 ff ff 	lea    -0x1db0(%rbp),%rax
   13b70:	48 83 c0 02          	add    $0x2,%rax
   13b74:	48 89 85 80 fb ff ff 	mov    %rax,-0x480(%rbp)
   13b7b:	48 8d 05 86 a6 00 00 	lea    0xa686(%rip),%rax        # 1e208 <g_196+0x8>
   13b82:	48 89 85 88 fb ff ff 	mov    %rax,-0x478(%rbp)
   13b89:	48 8d 05 78 a6 00 00 	lea    0xa678(%rip),%rax        # 1e208 <g_196+0x8>
   13b90:	48 89 85 90 fb ff ff 	mov    %rax,-0x470(%rbp)
   13b97:	48 8d 85 50 e2 ff ff 	lea    -0x1db0(%rbp),%rax
   13b9e:	48 83 c0 12          	add    $0x12,%rax
   13ba2:	48 89 85 98 fb ff ff 	mov    %rax,-0x468(%rbp)
   13ba9:	48 8d 05 50 a6 00 00 	lea    0xa650(%rip),%rax        # 1e200 <g_196>
   13bb0:	48 89 85 a0 fb ff ff 	mov    %rax,-0x460(%rbp)
   13bb7:	48 8d 85 50 e2 ff ff 	lea    -0x1db0(%rbp),%rax
   13bbe:	48 83 c0 12          	add    $0x12,%rax
   13bc2:	48 89 85 a8 fb ff ff 	mov    %rax,-0x458(%rbp)
   13bc9:	48 8d 85 50 e2 ff ff 	lea    -0x1db0(%rbp),%rax
   13bd0:	48 83 c0 0c          	add    $0xc,%rax
   13bd4:	48 89 85 b0 fb ff ff 	mov    %rax,-0x450(%rbp)
   13bdb:	48 8d 85 50 e2 ff ff 	lea    -0x1db0(%rbp),%rax
   13be2:	48 83 c0 12          	add    $0x12,%rax
   13be6:	48 89 85 b8 fb ff ff 	mov    %rax,-0x448(%rbp)
   13bed:	48 c7 85 c0 fb ff ff 	movq   $0x0,-0x440(%rbp)
   13bf4:	00 00 00 00 
   13bf8:	48 8d 05 09 a6 00 00 	lea    0xa609(%rip),%rax        # 1e208 <g_196+0x8>
   13bff:	48 89 85 c8 fb ff ff 	mov    %rax,-0x438(%rbp)
   13c06:	48 8d 05 2b a6 00 00 	lea    0xa62b(%rip),%rax        # 1e238 <g_198+0x18>
   13c0d:	48 89 85 d0 fb ff ff 	mov    %rax,-0x430(%rbp)
   13c14:	48 c7 85 d8 fb ff ff 	movq   $0x0,-0x428(%rbp)
   13c1b:	00 00 00 00 
   13c1f:	48 8d 05 e2 a5 00 00 	lea    0xa5e2(%rip),%rax        # 1e208 <g_196+0x8>
   13c26:	48 89 85 e0 fb ff ff 	mov    %rax,-0x420(%rbp)
   13c2d:	48 8d 85 50 e2 ff ff 	lea    -0x1db0(%rbp),%rax
   13c34:	48 89 85 e8 fb ff ff 	mov    %rax,-0x418(%rbp)
   13c3b:	48 c7 85 f0 fb ff ff 	movq   $0x0,-0x410(%rbp)
   13c42:	00 00 00 00 
   13c46:	48 8d 05 bb a5 00 00 	lea    0xa5bb(%rip),%rax        # 1e208 <g_196+0x8>
   13c4d:	48 89 85 f8 fb ff ff 	mov    %rax,-0x408(%rbp)
   13c54:	48 8d 05 c5 a5 00 00 	lea    0xa5c5(%rip),%rax        # 1e220 <g_198>
   13c5b:	48 89 85 00 fc ff ff 	mov    %rax,-0x400(%rbp)
   13c62:	48 c7 85 08 fc ff ff 	movq   $0x0,-0x3f8(%rbp)
   13c69:	00 00 00 00 
   13c6d:	48 8d 05 b0 a5 00 00 	lea    0xa5b0(%rip),%rax        # 1e224 <g_198+0x4>
   13c74:	48 89 85 10 fc ff ff 	mov    %rax,-0x3f0(%rbp)
   13c7b:	48 c7 85 18 fc ff ff 	movq   $0x0,-0x3e8(%rbp)
   13c82:	00 00 00 00 
   13c86:	48 8d 05 a9 a5 00 00 	lea    0xa5a9(%rip),%rax        # 1e236 <g_198+0x16>
   13c8d:	48 89 85 20 fc ff ff 	mov    %rax,-0x3e0(%rbp)
   13c94:	48 8d 05 9d a5 00 00 	lea    0xa59d(%rip),%rax        # 1e238 <g_198+0x18>
   13c9b:	48 89 85 28 fc ff ff 	mov    %rax,-0x3d8(%rbp)
   13ca2:	48 8d 05 59 a5 00 00 	lea    0xa559(%rip),%rax        # 1e202 <g_196+0x2>
   13ca9:	48 89 85 30 fc ff ff 	mov    %rax,-0x3d0(%rbp)
   13cb0:	48 c7 85 38 fc ff ff 	movq   $0x0,-0x3c8(%rbp)
   13cb7:	00 00 00 00 
   13cbb:	48 8d 85 50 e2 ff ff 	lea    -0x1db0(%rbp),%rax
   13cc2:	48 83 c0 08          	add    $0x8,%rax
   13cc6:	48 89 85 40 fc ff ff 	mov    %rax,-0x3c0(%rbp)
   13ccd:	48 8d 85 50 e2 ff ff 	lea    -0x1db0(%rbp),%rax
   13cd4:	48 83 c0 12          	add    $0x12,%rax
   13cd8:	48 89 85 48 fc ff ff 	mov    %rax,-0x3b8(%rbp)
   13cdf:	48 c7 85 50 fc ff ff 	movq   $0x0,-0x3b0(%rbp)
   13ce6:	00 00 00 00 
   13cea:	48 8d 05 17 a5 00 00 	lea    0xa517(%rip),%rax        # 1e208 <g_196+0x8>
   13cf1:	48 89 85 58 fc ff ff 	mov    %rax,-0x3a8(%rbp)
   13cf8:	48 c7 85 60 fc ff ff 	movq   $0x0,-0x3a0(%rbp)
   13cff:	00 00 00 00 
   13d03:	48 8d 05 fe a4 00 00 	lea    0xa4fe(%rip),%rax        # 1e208 <g_196+0x8>
   13d0a:	48 89 85 68 fc ff ff 	mov    %rax,-0x398(%rbp)
   13d11:	48 8d 05 f0 a4 00 00 	lea    0xa4f0(%rip),%rax        # 1e208 <g_196+0x8>
   13d18:	48 89 85 70 fc ff ff 	mov    %rax,-0x390(%rbp)
   13d1f:	48 8d 05 dc a4 00 00 	lea    0xa4dc(%rip),%rax        # 1e202 <g_196+0x2>
   13d26:	48 89 85 78 fc ff ff 	mov    %rax,-0x388(%rbp)
   13d2d:	48 8d 05 d4 a4 00 00 	lea    0xa4d4(%rip),%rax        # 1e208 <g_196+0x8>
   13d34:	48 89 85 80 fc ff ff 	mov    %rax,-0x380(%rbp)
   13d3b:	48 8d 05 c6 a4 00 00 	lea    0xa4c6(%rip),%rax        # 1e208 <g_196+0x8>
   13d42:	48 89 85 88 fc ff ff 	mov    %rax,-0x378(%rbp)
   13d49:	48 c7 85 90 fc ff ff 	movq   $0x0,-0x370(%rbp)
   13d50:	00 00 00 00 
   13d54:	48 8d 05 a5 a4 00 00 	lea    0xa4a5(%rip),%rax        # 1e200 <g_196>
   13d5b:	48 89 85 98 fc ff ff 	mov    %rax,-0x368(%rbp)
   13d62:	48 8d 85 50 e2 ff ff 	lea    -0x1db0(%rbp),%rax
   13d69:	48 83 c0 12          	add    $0x12,%rax
   13d6d:	48 89 85 a0 fc ff ff 	mov    %rax,-0x360(%rbp)
   13d74:	48 8d 05 87 a4 00 00 	lea    0xa487(%rip),%rax        # 1e202 <g_196+0x2>
   13d7b:	48 89 85 a8 fc ff ff 	mov    %rax,-0x358(%rbp)
   13d82:	48 8d 05 99 a4 00 00 	lea    0xa499(%rip),%rax        # 1e222 <g_198+0x2>
   13d89:	48 89 85 b0 fc ff ff 	mov    %rax,-0x350(%rbp)
   13d90:	48 8d 05 6f a4 00 00 	lea    0xa46f(%rip),%rax        # 1e206 <g_196+0x6>
   13d97:	48 89 85 b8 fc ff ff 	mov    %rax,-0x348(%rbp)
   13d9e:	48 8d 85 50 e2 ff ff 	lea    -0x1db0(%rbp),%rax
   13da5:	48 83 c0 12          	add    $0x12,%rax
   13da9:	48 89 85 c0 fc ff ff 	mov    %rax,-0x340(%rbp)
   13db0:	48 8d 05 4b a4 00 00 	lea    0xa44b(%rip),%rax        # 1e202 <g_196+0x2>
   13db7:	48 89 85 c8 fc ff ff 	mov    %rax,-0x338(%rbp)
   13dbe:	48 c7 85 d0 fc ff ff 	movq   $0x0,-0x330(%rbp)
   13dc5:	00 00 00 00 
   13dc9:	48 8d 85 50 e2 ff ff 	lea    -0x1db0(%rbp),%rax
   13dd0:	48 83 c0 12          	add    $0x12,%rax
   13dd4:	48 89 85 d8 fc ff ff 	mov    %rax,-0x328(%rbp)
   13ddb:	48 8d 05 26 a4 00 00 	lea    0xa426(%rip),%rax        # 1e208 <g_196+0x8>
   13de2:	48 89 85 e0 fc ff ff 	mov    %rax,-0x320(%rbp)
   13de9:	48 c7 85 e8 fc ff ff 	movq   $0x0,-0x318(%rbp)
   13df0:	00 00 00 00 
   13df4:	48 8d 05 0d a4 00 00 	lea    0xa40d(%rip),%rax        # 1e208 <g_196+0x8>
   13dfb:	48 89 85 f0 fc ff ff 	mov    %rax,-0x310(%rbp)
   13e02:	48 8d 85 50 e2 ff ff 	lea    -0x1db0(%rbp),%rax
   13e09:	48 89 85 f8 fc ff ff 	mov    %rax,-0x308(%rbp)
   13e10:	48 c7 85 00 fd ff ff 	movq   $0x0,-0x300(%rbp)
   13e17:	00 00 00 00 
   13e1b:	48 8d 05 14 a4 00 00 	lea    0xa414(%rip),%rax        # 1e236 <g_198+0x16>
   13e22:	48 89 85 08 fd ff ff 	mov    %rax,-0x2f8(%rbp)
   13e29:	48 c7 85 10 fd ff ff 	movq   $0x0,-0x2f0(%rbp)
   13e30:	00 00 00 00 
   13e34:	48 8d 05 fb a3 00 00 	lea    0xa3fb(%rip),%rax        # 1e236 <g_198+0x16>
   13e3b:	48 89 85 18 fd ff ff 	mov    %rax,-0x2e8(%rbp)
   13e42:	48 8d 85 50 e2 ff ff 	lea    -0x1db0(%rbp),%rax
   13e49:	48 83 c0 08          	add    $0x8,%rax
   13e4d:	48 89 85 20 fd ff ff 	mov    %rax,-0x2e0(%rbp)
   13e54:	48 8d 85 50 e2 ff ff 	lea    -0x1db0(%rbp),%rax
   13e5b:	48 89 85 28 fd ff ff 	mov    %rax,-0x2d8(%rbp)
   13e62:	48 8d 05 99 a3 00 00 	lea    0xa399(%rip),%rax        # 1e202 <g_196+0x2>
   13e69:	48 89 85 30 fd ff ff 	mov    %rax,-0x2d0(%rbp)
   13e70:	48 8d 85 50 e2 ff ff 	lea    -0x1db0(%rbp),%rax
   13e77:	48 83 c0 12          	add    $0x12,%rax
   13e7b:	48 89 85 38 fd ff ff 	mov    %rax,-0x2c8(%rbp)
   13e82:	48 8d 05 ad a3 00 00 	lea    0xa3ad(%rip),%rax        # 1e236 <g_198+0x16>
   13e89:	48 89 85 40 fd ff ff 	mov    %rax,-0x2c0(%rbp)
   13e90:	48 8d 05 8d a3 00 00 	lea    0xa38d(%rip),%rax        # 1e224 <g_198+0x4>
   13e97:	48 89 85 48 fd ff ff 	mov    %rax,-0x2b8(%rbp)
   13e9e:	48 8d 05 7f a3 00 00 	lea    0xa37f(%rip),%rax        # 1e224 <g_198+0x4>
   13ea5:	48 89 85 50 fd ff ff 	mov    %rax,-0x2b0(%rbp)
   13eac:	48 8d 05 55 a3 00 00 	lea    0xa355(%rip),%rax        # 1e208 <g_196+0x8>
   13eb3:	48 89 85 58 fd ff ff 	mov    %rax,-0x2a8(%rbp)
   13eba:	48 c7 85 60 fd ff ff 	movq   $0x0,-0x2a0(%rbp)
   13ec1:	00 00 00 00 
   13ec5:	48 8d 05 3c a3 00 00 	lea    0xa33c(%rip),%rax        # 1e208 <g_196+0x8>
   13ecc:	48 89 85 68 fd ff ff 	mov    %rax,-0x298(%rbp)
   13ed3:	48 8d 05 4e a3 00 00 	lea    0xa34e(%rip),%rax        # 1e228 <g_198+0x8>
   13eda:	48 89 85 70 fd ff ff 	mov    %rax,-0x290(%rbp)
   13ee1:	48 c7 85 78 fd ff ff 	movq   $0x0,-0x288(%rbp)
   13ee8:	00 00 00 00 
   13eec:	48 8d 05 37 a3 00 00 	lea    0xa337(%rip),%rax        # 1e22a <g_198+0xa>
   13ef3:	48 89 85 80 fd ff ff 	mov    %rax,-0x280(%rbp)
   13efa:	48 8d 05 37 a3 00 00 	lea    0xa337(%rip),%rax        # 1e238 <g_198+0x18>
   13f01:	48 89 85 88 fd ff ff 	mov    %rax,-0x278(%rbp)
   13f08:	48 c7 85 90 fd ff ff 	movq   $0x0,-0x270(%rbp)
   13f0f:	00 00 00 00 
   13f13:	48 8d 05 ee a2 00 00 	lea    0xa2ee(%rip),%rax        # 1e208 <g_196+0x8>
   13f1a:	48 89 85 98 fd ff ff 	mov    %rax,-0x268(%rbp)
   13f21:	48 8d 05 10 a3 00 00 	lea    0xa310(%rip),%rax        # 1e238 <g_198+0x18>
   13f28:	48 89 85 a0 fd ff ff 	mov    %rax,-0x260(%rbp)
   13f2f:	48 8d 85 50 e2 ff ff 	lea    -0x1db0(%rbp),%rax
   13f36:	48 83 c0 0a          	add    $0xa,%rax
   13f3a:	48 89 85 a8 fd ff ff 	mov    %rax,-0x258(%rbp)
   13f41:	48 8d 85 50 e2 ff ff 	lea    -0x1db0(%rbp),%rax
   13f48:	48 83 c0 12          	add    $0x12,%rax
   13f4c:	48 89 85 b0 fd ff ff 	mov    %rax,-0x250(%rbp)
   13f53:	48 8d 05 ce a2 00 00 	lea    0xa2ce(%rip),%rax        # 1e228 <g_198+0x8>
   13f5a:	48 89 85 b8 fd ff ff 	mov    %rax,-0x248(%rbp)
   13f61:	48 8d 85 50 e2 ff ff 	lea    -0x1db0(%rbp),%rax
   13f68:	48 83 c0 12          	add    $0x12,%rax
   13f6c:	48 89 85 c0 fd ff ff 	mov    %rax,-0x240(%rbp)
   13f73:	48 8d 85 50 e2 ff ff 	lea    -0x1db0(%rbp),%rax
   13f7a:	48 83 c0 12          	add    $0x12,%rax
   13f7e:	48 89 85 c8 fd ff ff 	mov    %rax,-0x238(%rbp)
   13f85:	48 8d 05 7c a2 00 00 	lea    0xa27c(%rip),%rax        # 1e208 <g_196+0x8>
   13f8c:	48 89 85 d0 fd ff ff 	mov    %rax,-0x230(%rbp)
   13f93:	48 c7 85 d8 fd ff ff 	movq   $0x0,-0x228(%rbp)
   13f9a:	00 00 00 00 
   13f9e:	48 8d 05 63 a2 00 00 	lea    0xa263(%rip),%rax        # 1e208 <g_196+0x8>
   13fa5:	48 89 85 e0 fd ff ff 	mov    %rax,-0x220(%rbp)
   13fac:	48 8d 85 50 e2 ff ff 	lea    -0x1db0(%rbp),%rax
   13fb3:	48 83 c0 0c          	add    $0xc,%rax
   13fb7:	48 89 85 e8 fd ff ff 	mov    %rax,-0x218(%rbp)
   13fbe:	48 c7 85 f0 fd ff ff 	movq   $0x0,-0x210(%rbp)
   13fc5:	00 00 00 00 
   13fc9:	48 c7 85 f8 fd ff ff 	movq   $0x0,-0x208(%rbp)
   13fd0:	00 00 00 00 
   13fd4:	48 8d 05 5d a2 00 00 	lea    0xa25d(%rip),%rax        # 1e238 <g_198+0x18>
   13fdb:	48 89 85 00 fe ff ff 	mov    %rax,-0x200(%rbp)
   13fe2:	48 c7 85 08 fe ff ff 	movq   $0x0,-0x1f8(%rbp)
   13fe9:	00 00 00 00 
   13fed:	48 c7 85 10 fe ff ff 	movq   $0x0,-0x1f0(%rbp)
   13ff4:	00 00 00 00 
   13ff8:	48 8d 05 01 a2 00 00 	lea    0xa201(%rip),%rax        # 1e200 <g_196>
   13fff:	48 89 85 18 fe ff ff 	mov    %rax,-0x1e8(%rbp)
   14006:	48 8d 85 50 e2 ff ff 	lea    -0x1db0(%rbp),%rax
   1400d:	48 83 c0 04          	add    $0x4,%rax
   14011:	48 89 85 20 fe ff ff 	mov    %rax,-0x1e0(%rbp)
   14018:	48 8d 05 e9 a1 00 00 	lea    0xa1e9(%rip),%rax        # 1e208 <g_196+0x8>
   1401f:	48 89 85 28 fe ff ff 	mov    %rax,-0x1d8(%rbp)
   14026:	48 8d 05 f7 a1 00 00 	lea    0xa1f7(%rip),%rax        # 1e224 <g_198+0x4>
   1402d:	48 89 85 30 fe ff ff 	mov    %rax,-0x1d0(%rbp)
   14034:	48 8d 05 f7 a1 00 00 	lea    0xa1f7(%rip),%rax        # 1e232 <g_198+0x12>
   1403b:	48 89 85 38 fe ff ff 	mov    %rax,-0x1c8(%rbp)
   14042:	48 c7 85 40 fe ff ff 	movq   $0x0,-0x1c0(%rbp)
   14049:	00 00 00 00 
   1404d:	48 8d 05 ce a1 00 00 	lea    0xa1ce(%rip),%rax        # 1e222 <g_198+0x2>
   14054:	48 89 85 48 fe ff ff 	mov    %rax,-0x1b8(%rbp)
   1405b:	48 8d 85 50 e2 ff ff 	lea    -0x1db0(%rbp),%rax
   14062:	48 83 c0 02          	add    $0x2,%rax
   14066:	48 89 85 50 fe ff ff 	mov    %rax,-0x1b0(%rbp)
   1406d:	48 c7 85 58 fe ff ff 	movq   $0x0,-0x1a8(%rbp)
   14074:	00 00 00 00 
   14078:	48 c7 85 60 fe ff ff 	movq   $0x0,-0x1a0(%rbp)
   1407f:	00 00 00 00 
   14083:	48 c7 85 68 fe ff ff 	movq   $0x0,-0x198(%rbp)
   1408a:	00 00 00 00 
   1408e:	48 c7 85 70 fe ff ff 	movq   $0x0,-0x190(%rbp)
   14095:	00 00 00 00 
   14099:	48 8d 85 50 e2 ff ff 	lea    -0x1db0(%rbp),%rax
   140a0:	48 83 c0 12          	add    $0x12,%rax
   140a4:	48 89 85 78 fe ff ff 	mov    %rax,-0x188(%rbp)
   140ab:	48 c7 85 80 fe ff ff 	movq   $0x0,-0x180(%rbp)
   140b2:	00 00 00 00 
   140b6:	48 8d 05 67 a1 00 00 	lea    0xa167(%rip),%rax        # 1e224 <g_198+0x4>
   140bd:	48 89 85 88 fe ff ff 	mov    %rax,-0x178(%rbp)
   140c4:	48 8d 05 55 a1 00 00 	lea    0xa155(%rip),%rax        # 1e220 <g_198>
   140cb:	48 89 85 90 fe ff ff 	mov    %rax,-0x170(%rbp)
   140d2:	48 8d 05 57 a1 00 00 	lea    0xa157(%rip),%rax        # 1e230 <g_198+0x10>
   140d9:	48 89 85 98 fe ff ff 	mov    %rax,-0x168(%rbp)
   140e0:	48 8d 05 21 a1 00 00 	lea    0xa121(%rip),%rax        # 1e208 <g_196+0x8>
   140e7:	48 89 85 a0 fe ff ff 	mov    %rax,-0x160(%rbp)
   140ee:	48 8d 05 37 a1 00 00 	lea    0xa137(%rip),%rax        # 1e22c <g_198+0xc>
   140f5:	48 89 85 a8 fe ff ff 	mov    %rax,-0x158(%rbp)
   140fc:	c7 85 50 e0 ff ff df 	movl   $0x472f60df,-0x1fb0(%rbp)
   14103:	60 2f 47 
   14106:	c7 85 dc df ff ff ff 	movl   $0xffffffff,-0x2024(%rbp)
   1410d:	ff ff ff 
   14110:	48 8d 05 d9 a1 00 00 	lea    0xa1d9(%rip),%rax        # 1e2f0 <g_809+0x10>
   14117:	48 89 85 b8 e1 ff ff 	mov    %rax,-0x1e48(%rbp)
   1411e:	48 8d 05 e3 b6 00 00 	lea    0xb6e3(%rip),%rax        # 1f808 <g_685+0x8>
   14125:	48 89 85 c0 e1 ff ff 	mov    %rax,-0x1e40(%rbp)
   1412c:	48 8d 85 70 e8 ff ff 	lea    -0x1790(%rbp),%rax
   14133:	48 8d 15 86 70 00 00 	lea    0x7086(%rip),%rdx        # 1b1c0 <g_2104+0xe44>
   1413a:	b9 78 00 00 00       	mov    $0x78,%ecx
   1413f:	48 89 c7             	mov    %rax,%rdi
   14142:	48 89 d6             	mov    %rdx,%rsi
   14145:	f3 48 a5             	rep movsq %ds:(%rsi),%es:(%rdi)
   14148:	48 8b 85 a8 e1 ff ff 	mov    -0x1e58(%rbp),%rax
   1414f:	48 89 85 e0 e2 ff ff 	mov    %rax,-0x1d20(%rbp)
   14156:	0f b7 05 db a0 00 00 	movzwl 0xa0db(%rip),%eax        # 1e238 <g_198+0x18>
   1415d:	0f b6 d8             	movzbl %al,%ebx
   14160:	8b 05 e2 a0 00 00    	mov    0xa0e2(%rip),%eax        # 1e248 <g_223>
   14166:	41 89 c4             	mov    %eax,%r12d
   14169:	48 8b 05 28 b6 00 00 	mov    0xb628(%rip),%rax        # 1f798 <g_553>
   14170:	48 8b 00             	mov    (%rax),%rax
   14173:	48 8b 00             	mov    (%rax),%rax
   14176:	8b 00                	mov    (%rax),%eax
   14178:	85 c0                	test   %eax,%eax
   1417a:	75 0a                	jne    14186 <func_44+0x3188>
   1417c:	8b 05 42 76 00 00    	mov    0x7642(%rip),%eax        # 1b7c4 <l_717.5135+0x44>
   14182:	85 c0                	test   %eax,%eax
   14184:	74 07                	je     1418d <func_44+0x318f>
   14186:	b8 01 00 00 00       	mov    $0x1,%eax
   1418b:	eb 05                	jmp    14192 <func_44+0x3194>
   1418d:	b8 00 00 00 00       	mov    $0x0,%eax
   14192:	83 f8 07             	cmp    $0x7,%eax
   14195:	75 32                	jne    141c9 <func_44+0x31cb>
   14197:	0f b6 85 18 df ff ff 	movzbl -0x20e8(%rbp),%eax
   1419e:	0f b6 d0             	movzbl %al,%edx
   141a1:	8b 05 1d 76 00 00    	mov    0x761d(%rip),%eax        # 1b7c4 <l_717.5135+0x44>
   141a7:	0f b6 c0             	movzbl %al,%eax
   141aa:	89 d6                	mov    %edx,%esi
   141ac:	89 c7                	mov    %eax,%edi
   141ae:	e8 e0 29 ff ff       	callq  6b93 <safe_mul_func_uint8_t_u_u>
   141b3:	48 8b 85 18 e0 ff ff 	mov    -0x1fe8(%rbp),%rax
   141ba:	8b 10                	mov    (%rax),%edx
   141bc:	48 8b 85 a8 e1 ff ff 	mov    -0x1e58(%rbp),%rax
   141c3:	8b 00                	mov    (%rax),%eax
   141c5:	21 d0                	and    %edx,%eax
   141c7:	85 c0                	test   %eax,%eax
   141c9:	48 8b 85 18 e0 ff ff 	mov    -0x1fe8(%rbp),%rax
   141d0:	8b 00                	mov    (%rax),%eax
   141d2:	48 98                	cltq   
   141d4:	48 be 48 bc aa a4 de 	movabs $0xa89d0cdea4aabc48,%rsi
   141db:	0c 9d a8 
   141de:	48 89 c7             	mov    %rax,%rdi
   141e1:	e8 ce 27 ff ff       	callq  69b4 <safe_mod_func_int64_t_s_s>
   141e6:	0f b7 15 1b a0 00 00 	movzwl 0xa01b(%rip),%edx        # 1e208 <g_196+0x8>
   141ed:	83 c2 01             	add    $0x1,%edx
   141f0:	66 89 15 11 a0 00 00 	mov    %dx,0xa011(%rip)        # 1e208 <g_196+0x8>
   141f7:	0f b7 15 0a a0 00 00 	movzwl 0xa00a(%rip),%edx        # 1e208 <g_196+0x8>
   141fe:	66 81 fa 50 dd       	cmp    $0xdd50,%dx
   14203:	0f 96 c2             	setbe  %dl
   14206:	0f b6 d2             	movzbl %dl,%edx
   14209:	48 39 d0             	cmp    %rdx,%rax
   1420c:	0f 95 c0             	setne  %al
   1420f:	0f b6 c0             	movzbl %al,%eax
   14212:	be 01 00 00 00       	mov    $0x1,%esi
   14217:	48 89 c7             	mov    %rax,%rdi
   1421a:	e8 22 26 ff ff       	callq  6841 <safe_add_func_int64_t_s_s>
   1421f:	4c 89 e6             	mov    %r12,%rsi
   14222:	bf 01 00 00 00       	mov    $0x1,%edi
   14227:	e8 7c 26 ff ff       	callq  68a8 <safe_sub_func_int64_t_s_s>
   1422c:	0f b6 c0             	movzbl %al,%eax
   1422f:	89 de                	mov    %ebx,%esi
   14231:	89 c7                	mov    %eax,%edi
   14233:	e8 22 29 ff ff       	callq  6b5a <safe_add_func_uint8_t_u_u>
   14238:	b8 3b c7 c1 a9       	mov    $0xa9c1c73b,%eax
   1423d:	f7 d0                	not    %eax
   1423f:	c1 e8 1f             	shr    $0x1f,%eax
   14242:	0f b6 c0             	movzbl %al,%eax
   14245:	89 c6                	mov    %eax,%esi
   14247:	bf 6a b4 00 00       	mov    $0xb46a,%edi
   1424c:	e8 b5 2b ff ff       	callq  6e06 <safe_lshift_func_uint16_t_u_u>
   14251:	66 85 c0             	test   %ax,%ax
   14254:	0f 84 9a 01 00 00    	je     143f4 <func_44+0x33f6>
   1425a:	48 c7 85 58 e0 ff ff 	movq   $0x0,-0x1fa8(%rbp)
   14261:	00 00 00 00 
   14265:	c7 85 58 e0 ff ff eb 	movl   $0x53534aeb,-0x1fa8(%rbp)
   1426c:	4a 53 53 
   1426f:	48 c7 05 6e 9f 00 00 	movq   $0x0,0x9f6e(%rip)        # 1e1e8 <g_174>
   14276:	00 00 00 00 
   1427a:	e9 5f 01 00 00       	jmpq   143de <func_44+0x33e0>
   1427f:	48 8d 85 e8 df ff ff 	lea    -0x2018(%rbp),%rax
   14286:	48 89 85 d0 e1 ff ff 	mov    %rax,-0x1e30(%rbp)
   1428d:	48 8d 85 58 e0 ff ff 	lea    -0x1fa8(%rbp),%rax
   14294:	48 89 85 d8 e1 ff ff 	mov    %rax,-0x1e28(%rbp)
   1429b:	0f b6 85 18 df ff ff 	movzbl -0x20e8(%rbp),%eax
   142a2:	66 98                	cbtw   
   142a4:	0f b7 d8             	movzwl %ax,%ebx
   142a7:	48 8b 85 38 e0 ff ff 	mov    -0x1fc8(%rbp),%rax
   142ae:	48 8b 00             	mov    (%rax),%rax
   142b1:	8b 10                	mov    (%rax),%edx
   142b3:	8b 85 34 df ff ff    	mov    -0x20cc(%rbp),%eax
   142b9:	39 c2                	cmp    %eax,%edx
   142bb:	7e 46                	jle    14303 <func_44+0x3305>
   142bd:	48 8b 85 d0 e1 ff ff 	mov    -0x1e30(%rbp),%rax
   142c4:	48 8b 00             	mov    (%rax),%rax
   142c7:	48 8d 50 01          	lea    0x1(%rax),%rdx
   142cb:	48 8b 85 d0 e1 ff ff 	mov    -0x1e30(%rbp),%rax
   142d2:	48 89 10             	mov    %rdx,(%rax)
   142d5:	48 8b 85 d0 e1 ff ff 	mov    -0x1e30(%rbp),%rax
   142dc:	48 8b 10             	mov    (%rax),%rdx
   142df:	8b 05 f3 74 00 00    	mov    0x74f3(%rip),%eax        # 1b7d8 <l_717.5135+0x58>
   142e5:	48 98                	cltq   
   142e7:	48 39 c2             	cmp    %rax,%rdx
   142ea:	0f 93 c0             	setae  %al
   142ed:	0f b6 c0             	movzbl %al,%eax
   142f0:	66 89 05 11 9f 00 00 	mov    %ax,0x9f11(%rip)        # 1e208 <g_196+0x8>
   142f7:	0f b7 05 0a 9f 00 00 	movzwl 0x9f0a(%rip),%eax        # 1e208 <g_196+0x8>
   142fe:	66 85 c0             	test   %ax,%ax
   14301:	74 07                	je     1430a <func_44+0x330c>
   14303:	b8 01 00 00 00       	mov    $0x1,%eax
   14308:	eb 05                	jmp    1430f <func_44+0x3311>
   1430a:	b8 00 00 00 00       	mov    $0x0,%eax
   1430f:	0f be c0             	movsbl %al,%eax
   14312:	be 06 00 00 00       	mov    $0x6,%esi
   14317:	89 c7                	mov    %eax,%edi
   14319:	e8 d0 1f ff ff       	callq  62ee <safe_lshift_func_int8_t_s_u>
   1431e:	0f be d0             	movsbl %al,%edx
   14321:	8b 85 34 df ff ff    	mov    -0x20cc(%rbp),%eax
   14327:	39 c2                	cmp    %eax,%edx
   14329:	0f 9e c0             	setle  %al
   1432c:	0f b6 c0             	movzbl %al,%eax
   1432f:	89 de                	mov    %ebx,%esi
   14331:	89 c7                	mov    %eax,%edi
   14333:	e8 e7 29 ff ff       	callq  6d1f <safe_sub_func_uint16_t_u_u>
   14338:	0f b6 c0             	movzbl %al,%eax
   1433b:	be 04 00 00 00       	mov    $0x4,%esi
   14340:	89 c7                	mov    %eax,%edi
   14342:	e8 be 28 ff ff       	callq  6c05 <safe_lshift_func_uint8_t_u_s>
   14347:	0f b6 85 18 df ff ff 	movzbl -0x20e8(%rbp),%eax
   1434e:	0f be d8             	movsbl %al,%ebx
   14351:	48 8b 05 90 9e 00 00 	mov    0x9e90(%rip),%rax        # 1e1e8 <g_174>
   14358:	48 83 c0 07          	add    $0x7,%rax
   1435c:	0f b7 84 45 50 e2 ff 	movzwl -0x1db0(%rbp,%rax,2),%eax
   14363:	ff 
   14364:	0f be c0             	movsbl %al,%eax
   14367:	be f7 ff ff ff       	mov    $0xfffffff7,%esi
   1436c:	89 c7                	mov    %eax,%edi
   1436e:	e8 be 1e ff ff       	callq  6231 <safe_mod_func_int8_t_s_s>
   14373:	0f b6 c0             	movzbl %al,%eax
   14376:	be 02 00 00 00       	mov    $0x2,%esi
   1437b:	89 c7                	mov    %eax,%edi
   1437d:	e8 0b 29 ff ff       	callq  6c8d <safe_rshift_func_uint8_t_u_s>
   14382:	0f b6 c0             	movzbl %al,%eax
   14385:	89 85 50 e0 ff ff    	mov    %eax,-0x1fb0(%rbp)
   1438b:	8b 85 50 e0 ff ff    	mov    -0x1fb0(%rbp),%eax
   14391:	98                   	cwtl   
   14392:	89 de                	mov    %ebx,%esi
   14394:	89 c7                	mov    %eax,%edi
   14396:	e8 ba 20 ff ff       	callq  6455 <safe_div_func_int16_t_s_s>
   1439b:	66 83 f8 6e          	cmp    $0x6e,%ax
   1439f:	0f 94 c2             	sete   %dl
   143a2:	48 8b 05 ef b3 00 00 	mov    0xb3ef(%rip),%rax        # 1f798 <g_553>
   143a9:	48 8b 00             	mov    (%rax),%rax
   143ac:	48 8b 00             	mov    (%rax),%rax
   143af:	0f b6 d2             	movzbl %dl,%edx
   143b2:	89 10                	mov    %edx,(%rax)
   143b4:	48 8b 85 a8 e1 ff ff 	mov    -0x1e58(%rbp),%rax
   143bb:	c7 00 01 00 00 00    	movl   $0x1,(%rax)
   143c1:	48 8b 85 a8 e1 ff ff 	mov    -0x1e58(%rbp),%rax
   143c8:	8b 00                	mov    (%rax),%eax
   143ca:	85 c0                	test   %eax,%eax
   143cc:	48 8b 05 15 9e 00 00 	mov    0x9e15(%rip),%rax        # 1e1e8 <g_174>
   143d3:	48 83 c0 01          	add    $0x1,%rax
   143d7:	48 89 05 0a 9e 00 00 	mov    %rax,0x9e0a(%rip)        # 1e1e8 <g_174>
   143de:	48 8b 05 03 9e 00 00 	mov    0x9e03(%rip),%rax        # 1e1e8 <g_174>
   143e5:	48 83 f8 02          	cmp    $0x2,%rax
   143e9:	0f 86 90 fe ff ff    	jbe    1427f <func_44+0x3281>
   143ef:	e9 6a 02 00 00       	jmpq   1465e <func_44+0x3660>
   143f4:	c7 85 e0 df ff ff ff 	movl   $0xffffffff,-0x2020(%rbp)
   143fb:	ff ff ff 
   143fe:	48 8d 85 20 e0 ff ff 	lea    -0x1fe0(%rbp),%rax
   14405:	48 89 85 c8 e1 ff ff 	mov    %rax,-0x1e38(%rbp)
   1440c:	c7 85 e4 df ff ff b9 	movl   $0xba7c4b9,-0x201c(%rbp)
   14413:	c4 a7 0b 
   14416:	48 8d 85 30 ec ff ff 	lea    -0x13d0(%rbp),%rax
   1441d:	48 8d 15 bc ab 00 00 	lea    0xabbc(%rip),%rdx        # 1efe0 <g_2753+0xc94>
   14424:	b9 a0 00 00 00       	mov    $0xa0,%ecx
   14429:	48 89 c7             	mov    %rax,%rdi
   1442c:	48 89 d6             	mov    %rdx,%rsi
   1442f:	f3 48 a5             	rep movsq %ds:(%rsi),%es:(%rdi)
   14432:	c7 85 50 e0 ff ff e2 	movl   $0xffffffe2,-0x1fb0(%rbp)
   14439:	ff ff ff 
   1443c:	eb 57                	jmp    14495 <func_44+0x3497>
   1443e:	48 8b 05 53 b3 00 00 	mov    0xb353(%rip),%rax        # 1f798 <g_553>
   14445:	48 8b 10             	mov    (%rax),%rdx
   14448:	48 8b 05 49 b3 00 00 	mov    0xb349(%rip),%rax        # 1f798 <g_553>
   1444f:	48 8b 00             	mov    (%rax),%rax
   14452:	48 8b 12             	mov    (%rdx),%rdx
   14455:	48 89 10             	mov    %rdx,(%rax)
   14458:	48 8b 85 18 e0 ff ff 	mov    -0x1fe8(%rbp),%rax
   1445f:	8b 95 e0 df ff ff    	mov    -0x2020(%rbp),%edx
   14465:	89 10                	mov    %edx,(%rax)
   14467:	48 8b 85 18 e0 ff ff 	mov    -0x1fe8(%rbp),%rax
   1446e:	8b 10                	mov    (%rax),%edx
   14470:	48 8b 85 18 e0 ff ff 	mov    -0x1fe8(%rbp),%rax
   14477:	83 f2 01             	xor    $0x1,%edx
   1447a:	89 10                	mov    %edx,(%rax)
   1447c:	8b 85 34 df ff ff    	mov    -0x20cc(%rbp),%eax
   14482:	85 c0                	test   %eax,%eax
   14484:	75 1c                	jne    144a2 <func_44+0x34a4>
   14486:	8b 85 50 e0 ff ff    	mov    -0x1fb0(%rbp),%eax
   1448c:	83 c0 01             	add    $0x1,%eax
   1448f:	89 85 50 e0 ff ff    	mov    %eax,-0x1fb0(%rbp)
   14495:	8b 85 50 e0 ff ff    	mov    -0x1fb0(%rbp),%eax
   1449b:	83 f8 e9             	cmp    $0xffffffe9,%eax
   1449e:	75 9e                	jne    1443e <func_44+0x3440>
   144a0:	eb 01                	jmp    144a3 <func_44+0x34a5>
   144a2:	90                   	nop
   144a3:	8b 05 13 73 00 00    	mov    0x7313(%rip),%eax        # 1b7bc <l_717.5135+0x3c>
   144a9:	0f b6 d8             	movzbl %al,%ebx
   144ac:	8b 85 34 df ff ff    	mov    -0x20cc(%rbp),%eax
   144b2:	44 0f b7 e0          	movzwl %ax,%r12d
   144b6:	8b 85 e0 df ff ff    	mov    -0x2020(%rbp),%eax
   144bc:	44 0f bf e8          	movswl %ax,%r13d
   144c0:	0f b7 05 fb 9c 00 00 	movzwl 0x9cfb(%rip),%eax        # 1e1c2 <g_129+0x162>
   144c7:	44 0f bf f0          	movswl %ax,%r14d
   144cb:	c7 85 e4 df ff ff 00 	movl   $0x0,-0x201c(%rbp)
   144d2:	00 00 00 
   144d5:	48 8b 05 14 b3 00 00 	mov    0xb314(%rip),%rax        # 1f7f0 <g_641>
   144dc:	0f b7 00             	movzwl (%rax),%eax
   144df:	0f b7 c0             	movzwl %ax,%eax
   144e2:	89 c6                	mov    %eax,%esi
   144e4:	bf 00 00 00 00       	mov    $0x0,%edi
   144e9:	e8 f3 1f ff ff       	callq  64e1 <safe_lshift_func_int16_t_s_u>
   144ee:	66 85 c0             	test   %ax,%ax
   144f1:	74 07                	je     144fa <func_44+0x34fc>
   144f3:	b8 01 00 00 00       	mov    $0x1,%eax
   144f8:	eb 05                	jmp    144ff <func_44+0x3501>
   144fa:	b8 00 00 00 00       	mov    $0x0,%eax
   144ff:	0f b7 c0             	movzwl %ax,%eax
   14502:	be 0d 00 00 00       	mov    $0xd,%esi
   14507:	89 c7                	mov    %eax,%edi
   14509:	e8 b0 28 ff ff       	callq  6dbe <safe_lshift_func_uint16_t_u_s>
   1450e:	66 85 c0             	test   %ax,%ax
   14511:	0f 94 c0             	sete   %al
   14514:	0f b6 c0             	movzbl %al,%eax
   14517:	be 00 00 00 00       	mov    $0x0,%esi
   1451c:	89 c7                	mov    %eax,%edi
   1451e:	e8 1a 28 ff ff       	callq  6d3d <safe_mul_func_uint16_t_u_u>
   14523:	48 8b 95 20 e0 ff ff 	mov    -0x1fe0(%rbp),%rdx
   1452a:	48 8b 85 c8 e1 ff ff 	mov    -0x1e38(%rbp),%rax
   14531:	48 89 10             	mov    %rdx,(%rax)
   14534:	48 8b 85 c8 e1 ff ff 	mov    -0x1e38(%rbp),%rax
   1453b:	48 8b 00             	mov    (%rax),%rax
   1453e:	48 8d 15 c3 c6 00 00 	lea    0xc6c3(%rip),%rdx        # 20c08 <g_106>
   14545:	48 39 d0             	cmp    %rdx,%rax
   14548:	0f 94 c0             	sete   %al
   1454b:	0f b6 c0             	movzbl %al,%eax
   1454e:	8b 95 34 df ff ff    	mov    -0x20cc(%rbp),%edx
   14554:	48 63 d2             	movslq %edx,%rdx
   14557:	48 b9 a0 c0 c2 0f 36 	movabs $0xf01ea7360fc2c0a0,%rcx
   1455e:	a7 1e f0 
   14561:	48 21 ca             	and    %rcx,%rdx
   14564:	48 39 d0             	cmp    %rdx,%rax
   14567:	77 07                	ja     14570 <func_44+0x3572>
   14569:	b8 01 00 00 00       	mov    $0x1,%eax
   1456e:	eb 05                	jmp    14575 <func_44+0x3577>
   14570:	b8 00 00 00 00       	mov    $0x0,%eax
   14575:	23 85 d4 df ff ff    	and    -0x202c(%rbp),%eax
   1457b:	89 c1                	mov    %eax,%ecx
   1457d:	0f b7 05 aa 9c 00 00 	movzwl 0x9caa(%rip),%eax        # 1e22e <g_198+0xe>
   14584:	83 e8 01             	sub    $0x1,%eax
   14587:	66 89 05 a0 9c 00 00 	mov    %ax,0x9ca0(%rip)        # 1e22e <g_198+0xe>
   1458e:	0f b7 15 99 9c 00 00 	movzwl 0x9c99(%rip),%edx        # 1e22e <g_198+0xe>
   14595:	8b 85 e0 df ff ff    	mov    -0x2020(%rbp),%eax
   1459b:	89 c6                	mov    %eax,%esi
   1459d:	0f b6 05 2c 9d 00 00 	movzbl 0x9d2c(%rip),%eax        # 1e2d0 <g_759>
   145a4:	09 f0                	or     %esi,%eax
   145a6:	88 05 24 9d 00 00    	mov    %al,0x9d24(%rip)        # 1e2d0 <g_759>
   145ac:	0f b6 05 1d 9d 00 00 	movzbl 0x9d1d(%rip),%eax        # 1e2d0 <g_759>
   145b3:	0f b6 c0             	movzbl %al,%eax
   145b6:	66 39 c2             	cmp    %ax,%dx
   145b9:	0f 93 c0             	setae  %al
   145bc:	0f b6 c0             	movzbl %al,%eax
   145bf:	89 ce                	mov    %ecx,%esi
   145c1:	89 c7                	mov    %eax,%edi
   145c3:	e8 3d 26 ff ff       	callq  6c05 <safe_lshift_func_uint8_t_u_s>
   145c8:	48 8b 05 81 b1 00 00 	mov    0xb181(%rip),%rax        # 1f750 <g_321>
   145cf:	8b 00                	mov    (%rax),%eax
   145d1:	44 89 f6             	mov    %r14d,%esi
   145d4:	89 c7                	mov    %eax,%edi
   145d6:	e8 24 21 ff ff       	callq  66ff <safe_div_func_int32_t_s_s>
   145db:	98                   	cwtl   
   145dc:	44 89 ee             	mov    %r13d,%esi
   145df:	89 c7                	mov    %eax,%edi
   145e1:	e8 0f 1e ff ff       	callq  63f5 <safe_mul_func_int16_t_s_s>
   145e6:	0f bf d0             	movswl %ax,%edx
   145e9:	8b 85 50 e0 ff ff    	mov    -0x1fb0(%rbp),%eax
   145ef:	89 d6                	mov    %edx,%esi
   145f1:	89 c7                	mov    %eax,%edi
   145f3:	e8 07 21 ff ff       	callq  66ff <safe_div_func_int32_t_s_s>
   145f8:	0f b7 c0             	movzwl %ax,%eax
   145fb:	44 89 e6             	mov    %r12d,%esi
   145fe:	89 c7                	mov    %eax,%edi
   14600:	e8 89 27 ff ff       	callq  6d8e <safe_div_func_uint16_t_u_u>
   14605:	48 8b 85 c8 ef ff ff 	mov    -0x1038(%rbp),%rax
   1460c:	48 85 c0             	test   %rax,%rax
   1460f:	0f 94 c0             	sete   %al
   14612:	0f b6 d0             	movzbl %al,%edx
   14615:	8b 05 85 71 00 00    	mov    0x7185(%rip),%eax        # 1b7a0 <l_717.5135+0x20>
   1461b:	39 c2                	cmp    %eax,%edx
   1461d:	0f 9c c0             	setl   %al
   14620:	0f b6 c0             	movzbl %al,%eax
   14623:	89 de                	mov    %ebx,%esi
   14625:	89 c7                	mov    %eax,%edi
   14627:	e8 67 25 ff ff       	callq  6b93 <safe_mul_func_uint8_t_u_u>
   1462c:	0f b6 d0             	movzbl %al,%edx
   1462f:	8b 85 4c e2 ff ff    	mov    -0x1db4(%rbp),%eax
   14635:	48 98                	cltq   
   14637:	48 89 d6             	mov    %rdx,%rsi
   1463a:	48 89 c7             	mov    %rax,%rdi
   1463d:	e8 6d 2a ff ff       	callq  70af <safe_div_func_uint64_t_u_u>
   14642:	48 8b 95 18 e0 ff ff 	mov    -0x1fe8(%rbp),%rdx
   14649:	8b 12                	mov    (%rdx),%edx
   1464b:	09 c2                	or     %eax,%edx
   1464d:	48 8b 85 18 e0 ff ff 	mov    -0x1fe8(%rbp),%rax
   14654:	89 10                	mov    %edx,(%rax)
   14656:	8b 00                	mov    (%rax),%eax
   14658:	21 85 dc df ff ff    	and    %eax,-0x2024(%rbp)
   1465e:	48 8b 05 8b b1 00 00 	mov    0xb18b(%rip),%rax        # 1f7f0 <g_641>
   14665:	0f b7 10             	movzwl (%rax),%edx
   14668:	48 8b 85 40 e0 ff ff 	mov    -0x1fc0(%rbp),%rax
   1466f:	48 8b 00             	mov    (%rax),%rax
   14672:	48 8b 00             	mov    (%rax),%rax
   14675:	0f b7 d2             	movzwl %dx,%edx
   14678:	89 10                	mov    %edx,(%rax)
   1467a:	66 c7 85 4e df ff ff 	movw   $0xffff,-0x20b2(%rbp)
   14681:	ff ff 
   14683:	48 8d 85 70 e2 ff ff 	lea    -0x1d90(%rbp),%rax
   1468a:	48 83 c0 1c          	add    $0x1c,%rax
   1468e:	48 89 85 e0 e1 ff ff 	mov    %rax,-0x1e20(%rbp)
   14695:	48 8d 85 50 e0 ff ff 	lea    -0x1fb0(%rbp),%rax
   1469c:	48 89 85 e8 e1 ff ff 	mov    %rax,-0x1e18(%rbp)
   146a3:	48 8b 85 a8 e1 ff ff 	mov    -0x1e58(%rbp),%rax
   146aa:	c7 00 00 00 00 00    	movl   $0x0,(%rax)
   146b0:	48 8b 05 39 b1 00 00 	mov    0xb139(%rip),%rax        # 1f7f0 <g_641>
   146b7:	0f b7 00             	movzwl (%rax),%eax
   146ba:	0f b7 d8             	movzwl %ax,%ebx
   146bd:	48 8d 85 40 e0 ff ff 	lea    -0x1fc0(%rbp),%rax
   146c4:	48 39 85 70 e0 ff ff 	cmp    %rax,-0x1f90(%rbp)
   146cb:	0f 95 c0             	setne  %al
   146ce:	89 c2                	mov    %eax,%edx
   146d0:	0f b6 05 f9 9b 00 00 	movzbl 0x9bf9(%rip),%eax        # 1e2d0 <g_759>
   146d7:	0f b6 c0             	movzbl %al,%eax
   146da:	66 39 85 4e df ff ff 	cmp    %ax,-0x20b2(%rbp)
   146e1:	0f 94 c0             	sete   %al
   146e4:	31 d0                	xor    %edx,%eax
   146e6:	0f b6 c0             	movzbl %al,%eax
   146e9:	be 05 00 00 00       	mov    $0x5,%esi
   146ee:	89 c7                	mov    %eax,%edi
   146f0:	e8 98 25 ff ff       	callq  6c8d <safe_rshift_func_uint8_t_u_s>
   146f5:	0f b6 c0             	movzbl %al,%eax
   146f8:	be 0a 00 00 00       	mov    $0xa,%esi
   146fd:	89 c7                	mov    %eax,%edi
   146ff:	e8 8e 1d ff ff       	callq  6492 <safe_lshift_func_int16_t_s_s>
   14704:	98                   	cwtl   
   14705:	09 d8                	or     %ebx,%eax
   14707:	85 c0                	test   %eax,%eax
   14709:	74 31                	je     1473c <func_44+0x373e>
   1470b:	48 8b 85 38 e0 ff ff 	mov    -0x1fc8(%rbp),%rax
   14712:	48 8b 00             	mov    (%rax),%rax
   14715:	0f b7 95 4e df ff ff 	movzwl -0x20b2(%rbp),%edx
   1471c:	89 10                	mov    %edx,(%rax)
   1471e:	be fe c0 8f 7a       	mov    $0x7a8fc0fe,%esi
   14723:	bf 01 00 00 00       	mov    $0x1,%edi
   14728:	e8 d2 1f ff ff       	callq  66ff <safe_div_func_int32_t_s_s>
   1472d:	89 c2                	mov    %eax,%edx
   1472f:	8b 05 0b 9b 00 00    	mov    0x9b0b(%rip),%eax        # 1e240 <g_220>
   14735:	31 d0                	xor    %edx,%eax
   14737:	3d b1 6f 00 00       	cmp    $0x6fb1,%eax
   1473c:	48 83 bd 78 e0 ff ff 	cmpq   $0x0,-0x1f88(%rbp)
   14743:	00 
   14744:	0f 94 c0             	sete   %al
   14747:	0f b6 d0             	movzbl %al,%edx
   1474a:	8b 85 50 e0 ff ff    	mov    -0x1fb0(%rbp),%eax
   14750:	31 d0                	xor    %edx,%eax
   14752:	89 85 50 e0 ff ff    	mov    %eax,-0x1fb0(%rbp)
   14758:	8b 85 50 e0 ff ff    	mov    -0x1fb0(%rbp),%eax
   1475e:	31 85 d8 df ff ff    	xor    %eax,-0x2028(%rbp)
   14764:	8b 95 d8 df ff ff    	mov    -0x2028(%rbp),%edx
   1476a:	8b 85 90 ea ff ff    	mov    -0x1570(%rbp),%eax
   14770:	09 d0                	or     %edx,%eax
   14772:	89 85 90 ea ff ff    	mov    %eax,-0x1570(%rbp)
   14778:	48 8b 85 b0 e1 ff ff 	mov    -0x1e50(%rbp),%rax
   1477f:	e9 1d 2d 00 00       	jmpq   174a1 <func_44+0x64a3>
   14784:	66 c7 05 53 9a 00 00 	movw   $0x0,0x9a53(%rip)        # 1e1e0 <g_131>
   1478b:	00 00 
   1478d:	e9 cf 1c 00 00       	jmpq   16461 <func_44+0x5463>
   14792:	c6 85 5c df ff ff a8 	movb   $0xa8,-0x20a4(%rbp)
   14799:	48 c7 85 70 e8 ff ff 	movq   $0x0,-0x1790(%rbp)
   147a0:	00 00 00 00 
   147a4:	48 c7 85 78 e8 ff ff 	movq   $0x0,-0x1788(%rbp)
   147ab:	00 00 00 00 
   147af:	48 c7 85 80 e8 ff ff 	movq   $0x0,-0x1780(%rbp)
   147b6:	00 00 00 00 
   147ba:	48 c7 85 88 e8 ff ff 	movq   $0x0,-0x1778(%rbp)
   147c1:	00 00 00 00 
   147c5:	48 c7 85 90 e8 ff ff 	movq   $0x0,-0x1770(%rbp)
   147cc:	00 00 00 00 
   147d0:	48 c7 85 98 e8 ff ff 	movq   $0x0,-0x1768(%rbp)
   147d7:	00 00 00 00 
   147db:	48 c7 85 a0 e8 ff ff 	movq   $0x0,-0x1760(%rbp)
   147e2:	00 00 00 00 
   147e6:	48 c7 85 a8 e8 ff ff 	movq   $0x0,-0x1758(%rbp)
   147ed:	00 00 00 00 
   147f1:	c7 85 70 e8 ff ff c1 	movl   $0x211cf5c1,-0x1790(%rbp)
   147f8:	f5 1c 21 
   147fb:	c7 85 78 e8 ff ff c1 	movl   $0x211cf5c1,-0x1788(%rbp)
   14802:	f5 1c 21 
   14805:	c7 85 80 e8 ff ff c1 	movl   $0x211cf5c1,-0x1780(%rbp)
   1480c:	f5 1c 21 
   1480f:	c7 85 88 e8 ff ff c1 	movl   $0x211cf5c1,-0x1778(%rbp)
   14816:	f5 1c 21 
   14819:	c7 85 90 e8 ff ff c1 	movl   $0x211cf5c1,-0x1770(%rbp)
   14820:	f5 1c 21 
   14823:	c7 85 98 e8 ff ff c1 	movl   $0x211cf5c1,-0x1768(%rbp)
   1482a:	f5 1c 21 
   1482d:	c7 85 a0 e8 ff ff c1 	movl   $0x211cf5c1,-0x1760(%rbp)
   14834:	f5 1c 21 
   14837:	c7 85 a8 e8 ff ff c1 	movl   $0x211cf5c1,-0x1758(%rbp)
   1483e:	f5 1c 21 
   14841:	c7 85 38 e0 ff ff 49 	movl   $0x96f75849,-0x1fc8(%rbp)
   14848:	58 f7 96 
   1484b:	48 8d 05 be c3 00 00 	lea    0xc3be(%rip),%rax        # 20c10 <g_272>
   14852:	48 89 85 d8 e0 ff ff 	mov    %rax,-0x1f28(%rbp)
   14859:	48 8d 05 90 9a 00 00 	lea    0x9a90(%rip),%rax        # 1e2f0 <g_809+0x10>
   14860:	48 89 85 48 e0 ff ff 	mov    %rax,-0x1fb8(%rbp)
   14867:	48 8d 85 48 e0 ff ff 	lea    -0x1fb8(%rbp),%rax
   1486e:	48 89 85 e0 e0 ff ff 	mov    %rax,-0x1f20(%rbp)
   14875:	48 8d 05 9c 9a 00 00 	lea    0x9a9c(%rip),%rax        # 1e318 <g_1032>
   1487c:	48 89 85 e8 e0 ff ff 	mov    %rax,-0x1f18(%rbp)
   14883:	c7 85 98 df ff ff 50 	movl   $0xe0ec8550,-0x2068(%rbp)
   1488a:	85 ec e0 
   1488d:	c7 85 9c df ff ff fe 	movl   $0xfffffffe,-0x2064(%rbp)
   14894:	ff ff ff 
   14897:	c7 85 a0 df ff ff 12 	movl   $0x8a75a812,-0x2060(%rbp)
   1489e:	a8 75 8a 
   148a1:	c7 85 a4 df ff ff b5 	movl   $0x900f3eb5,-0x205c(%rbp)
   148a8:	3e 0f 90 
   148ab:	c7 85 a8 df ff ff 61 	movl   $0x6927ac61,-0x2058(%rbp)
   148b2:	ac 27 69 
   148b5:	48 8d 05 dc af 00 00 	lea    0xafdc(%rip),%rax        # 1f898 <g_1103>
   148bc:	48 89 85 f0 e0 ff ff 	mov    %rax,-0x1f10(%rbp)
   148c3:	c7 85 b0 e3 ff ff ff 	movl   $0xffffffff,-0x1c50(%rbp)
   148ca:	ff ff ff 
   148cd:	c7 85 b4 e3 ff ff ff 	movl   $0xffffffff,-0x1c4c(%rbp)
   148d4:	ff ff ff 
   148d7:	c7 85 b8 e3 ff ff ff 	movl   $0xffffffff,-0x1c48(%rbp)
   148de:	ff ff ff 
   148e1:	c7 85 bc e3 ff ff ff 	movl   $0xffffffff,-0x1c44(%rbp)
   148e8:	ff ff ff 
   148eb:	c7 85 c0 e3 ff ff ff 	movl   $0xffffffff,-0x1c40(%rbp)
   148f2:	ff ff ff 
   148f5:	c7 85 c4 e3 ff ff ff 	movl   $0xffffffff,-0x1c3c(%rbp)
   148fc:	ff ff ff 
   148ff:	48 b8 cc 06 b7 71 de 	movabs $0x80324bde71b706cc,%rax
   14906:	4b 32 80 
   14909:	48 89 85 f8 e0 ff ff 	mov    %rax,-0x1f08(%rbp)
   14910:	c7 85 74 df ff ff 00 	movl   $0x0,-0x208c(%rbp)
   14917:	00 00 00 
   1491a:	eb 1a                	jmp    14936 <func_44+0x3938>
   1491c:	8b 85 74 df ff ff    	mov    -0x208c(%rbp),%eax
   14922:	48 98                	cltq   
   14924:	c7 84 85 90 e5 ff ff 	movl   $0x0,-0x1a70(%rbp,%rax,4)
   1492b:	00 00 00 00 
   1492f:	83 85 74 df ff ff 01 	addl   $0x1,-0x208c(%rbp)
   14936:	83 bd 74 df ff ff 06 	cmpl   $0x6,-0x208c(%rbp)
   1493d:	7e dd                	jle    1491c <func_44+0x391e>
   1493f:	48 8b 85 18 e0 ff ff 	mov    -0x1fe8(%rbp),%rax
   14946:	8b 10                	mov    (%rax),%edx
   14948:	48 8b 85 18 e0 ff ff 	mov    -0x1fe8(%rbp),%rax
   1494f:	83 f2 01             	xor    $0x1,%edx
   14952:	89 10                	mov    %edx,(%rax)
   14954:	66 c7 05 f3 98 00 00 	movw   $0x0,0x98f3(%rip)        # 1e250 <g_376>
   1495b:	00 00 
   1495d:	e9 2e 10 00 00       	jmpq   15990 <func_44+0x4992>
   14962:	48 8d 05 87 99 00 00 	lea    0x9987(%rip),%rax        # 1e2f0 <g_809+0x10>
   14969:	48 89 85 48 e1 ff ff 	mov    %rax,-0x1eb8(%rbp)
   14970:	48 c7 85 30 ec ff ff 	movq   $0x0,-0x13d0(%rbp)
   14977:	00 00 00 00 
   1497b:	48 8d 05 36 99 00 00 	lea    0x9936(%rip),%rax        # 1e2b8 <g_583>
   14982:	48 89 85 38 ec ff ff 	mov    %rax,-0x13c8(%rbp)
   14989:	48 c7 85 40 ec ff ff 	movq   $0x0,-0x13c0(%rbp)
   14990:	00 00 00 00 
   14994:	48 c7 85 48 ec ff ff 	movq   $0x0,-0x13b8(%rbp)
   1499b:	00 00 00 00 
   1499f:	48 8d 05 12 99 00 00 	lea    0x9912(%rip),%rax        # 1e2b8 <g_583>
   149a6:	48 89 85 50 ec ff ff 	mov    %rax,-0x13b0(%rbp)
   149ad:	48 8d 05 04 99 00 00 	lea    0x9904(%rip),%rax        # 1e2b8 <g_583>
   149b4:	48 89 85 58 ec ff ff 	mov    %rax,-0x13a8(%rbp)
   149bb:	48 c7 85 60 ec ff ff 	movq   $0x0,-0x13a0(%rbp)
   149c2:	00 00 00 00 
   149c6:	48 8d 05 eb 98 00 00 	lea    0x98eb(%rip),%rax        # 1e2b8 <g_583>
   149cd:	48 89 85 68 ec ff ff 	mov    %rax,-0x1398(%rbp)
   149d4:	48 8d 05 dd 98 00 00 	lea    0x98dd(%rip),%rax        # 1e2b8 <g_583>
   149db:	48 89 85 70 ec ff ff 	mov    %rax,-0x1390(%rbp)
   149e2:	48 c7 85 78 ec ff ff 	movq   $0x0,-0x1388(%rbp)
   149e9:	00 00 00 00 
   149ed:	48 c7 85 80 ec ff ff 	movq   $0x0,-0x1380(%rbp)
   149f4:	00 00 00 00 
   149f8:	48 8d 05 b9 98 00 00 	lea    0x98b9(%rip),%rax        # 1e2b8 <g_583>
   149ff:	48 89 85 88 ec ff ff 	mov    %rax,-0x1378(%rbp)
   14a06:	48 c7 85 90 ec ff ff 	movq   $0x0,-0x1370(%rbp)
   14a0d:	00 00 00 00 
   14a11:	48 8d 05 a0 98 00 00 	lea    0x98a0(%rip),%rax        # 1e2b8 <g_583>
   14a18:	48 89 85 98 ec ff ff 	mov    %rax,-0x1368(%rbp)
   14a1f:	48 c7 85 a0 ec ff ff 	movq   $0x0,-0x1360(%rbp)
   14a26:	00 00 00 00 
   14a2a:	48 c7 85 a8 ec ff ff 	movq   $0x0,-0x1358(%rbp)
   14a31:	00 00 00 00 
   14a35:	48 8d 05 7c 98 00 00 	lea    0x987c(%rip),%rax        # 1e2b8 <g_583>
   14a3c:	48 89 85 b0 ec ff ff 	mov    %rax,-0x1350(%rbp)
   14a43:	48 8d 05 6e 98 00 00 	lea    0x986e(%rip),%rax        # 1e2b8 <g_583>
   14a4a:	48 89 85 b8 ec ff ff 	mov    %rax,-0x1348(%rbp)
   14a51:	48 c7 85 c0 ec ff ff 	movq   $0x0,-0x1340(%rbp)
   14a58:	00 00 00 00 
   14a5c:	48 8d 05 55 98 00 00 	lea    0x9855(%rip),%rax        # 1e2b8 <g_583>
   14a63:	48 89 85 c8 ec ff ff 	mov    %rax,-0x1338(%rbp)
   14a6a:	48 8d 05 47 98 00 00 	lea    0x9847(%rip),%rax        # 1e2b8 <g_583>
   14a71:	48 89 85 d0 ec ff ff 	mov    %rax,-0x1330(%rbp)
   14a78:	48 c7 85 d8 ec ff ff 	movq   $0x0,-0x1328(%rbp)
   14a7f:	00 00 00 00 
   14a83:	48 c7 85 e0 ec ff ff 	movq   $0x0,-0x1320(%rbp)
   14a8a:	00 00 00 00 
   14a8e:	48 8d 05 23 98 00 00 	lea    0x9823(%rip),%rax        # 1e2b8 <g_583>
   14a95:	48 89 85 e8 ec ff ff 	mov    %rax,-0x1318(%rbp)
   14a9c:	48 c7 85 f0 ec ff ff 	movq   $0x0,-0x1310(%rbp)
   14aa3:	00 00 00 00 
   14aa7:	48 8d 05 0a 98 00 00 	lea    0x980a(%rip),%rax        # 1e2b8 <g_583>
   14aae:	48 89 85 f8 ec ff ff 	mov    %rax,-0x1308(%rbp)
   14ab5:	48 c7 85 00 ed ff ff 	movq   $0x0,-0x1300(%rbp)
   14abc:	00 00 00 00 
   14ac0:	48 c7 85 08 ed ff ff 	movq   $0x0,-0x12f8(%rbp)
   14ac7:	00 00 00 00 
   14acb:	48 8d 05 e6 97 00 00 	lea    0x97e6(%rip),%rax        # 1e2b8 <g_583>
   14ad2:	48 89 85 10 ed ff ff 	mov    %rax,-0x12f0(%rbp)
   14ad9:	48 8d 05 d8 97 00 00 	lea    0x97d8(%rip),%rax        # 1e2b8 <g_583>
   14ae0:	48 89 85 18 ed ff ff 	mov    %rax,-0x12e8(%rbp)
   14ae7:	48 c7 85 20 ed ff ff 	movq   $0x0,-0x12e0(%rbp)
   14aee:	00 00 00 00 
   14af2:	48 8d 05 bf 97 00 00 	lea    0x97bf(%rip),%rax        # 1e2b8 <g_583>
   14af9:	48 89 85 28 ed ff ff 	mov    %rax,-0x12d8(%rbp)
   14b00:	c7 85 c4 df ff ff 00 	movl   $0x0,-0x203c(%rbp)
   14b07:	00 00 00 
   14b0a:	c7 85 40 e0 ff ff ff 	movl   $0xffffffff,-0x1fc0(%rbp)
   14b11:	ff ff ff 
   14b14:	c7 85 c8 df ff ff ac 	movl   $0xf84961ac,-0x2038(%rbp)
   14b1b:	61 49 f8 
   14b1e:	c7 85 cc df ff ff 00 	movl   $0x0,-0x2034(%rbp)
   14b25:	00 00 00 
   14b28:	c6 85 60 df ff ff 08 	movb   $0x8,-0x20a0(%rbp)
   14b2f:	c7 85 d0 df ff ff 0a 	movl   $0x44932d0a,-0x2030(%rbp)
   14b36:	2d 93 44 
   14b39:	48 c7 85 f0 f7 ff ff 	movq   $0x0,-0x810(%rbp)
   14b40:	00 00 00 00 
   14b44:	48 8d 05 85 97 00 00 	lea    0x9785(%rip),%rax        # 1e2d0 <g_759>
   14b4b:	48 89 85 f8 f7 ff ff 	mov    %rax,-0x808(%rbp)
   14b52:	48 8d 05 77 97 00 00 	lea    0x9777(%rip),%rax        # 1e2d0 <g_759>
   14b59:	48 89 85 00 f8 ff ff 	mov    %rax,-0x800(%rbp)
   14b60:	48 c7 85 08 f8 ff ff 	movq   $0x0,-0x7f8(%rbp)
   14b67:	00 00 00 00 
   14b6b:	48 c7 85 10 f8 ff ff 	movq   $0x0,-0x7f0(%rbp)
   14b72:	00 00 00 00 
   14b76:	48 8d 05 53 97 00 00 	lea    0x9753(%rip),%rax        # 1e2d0 <g_759>
   14b7d:	48 89 85 18 f8 ff ff 	mov    %rax,-0x7e8(%rbp)
   14b84:	48 8d 05 c1 94 00 00 	lea    0x94c1(%rip),%rax        # 1e04c <g_90>
   14b8b:	48 89 85 20 f8 ff ff 	mov    %rax,-0x7e0(%rbp)
   14b92:	48 c7 85 28 f8 ff ff 	movq   $0x0,-0x7d8(%rbp)
   14b99:	00 00 00 00 
   14b9d:	48 8d 85 60 df ff ff 	lea    -0x20a0(%rbp),%rax
   14ba4:	48 89 85 30 f8 ff ff 	mov    %rax,-0x7d0(%rbp)
   14bab:	48 8d 05 1e 97 00 00 	lea    0x971e(%rip),%rax        # 1e2d0 <g_759>
   14bb2:	48 89 85 38 f8 ff ff 	mov    %rax,-0x7c8(%rbp)
   14bb9:	48 c7 85 40 f8 ff ff 	movq   $0x0,-0x7c0(%rbp)
   14bc0:	00 00 00 00 
   14bc4:	48 8d 05 05 97 00 00 	lea    0x9705(%rip),%rax        # 1e2d0 <g_759>
   14bcb:	48 89 85 48 f8 ff ff 	mov    %rax,-0x7b8(%rbp)
   14bd2:	48 8d 05 73 94 00 00 	lea    0x9473(%rip),%rax        # 1e04c <g_90>
   14bd9:	48 89 85 50 f8 ff ff 	mov    %rax,-0x7b0(%rbp)
   14be0:	48 8d 05 e9 96 00 00 	lea    0x96e9(%rip),%rax        # 1e2d0 <g_759>
   14be7:	48 89 85 58 f8 ff ff 	mov    %rax,-0x7a8(%rbp)
   14bee:	48 c7 85 60 f8 ff ff 	movq   $0x0,-0x7a0(%rbp)
   14bf5:	00 00 00 00 
   14bf9:	48 8d 05 d0 96 00 00 	lea    0x96d0(%rip),%rax        # 1e2d0 <g_759>
   14c00:	48 89 85 68 f8 ff ff 	mov    %rax,-0x798(%rbp)
   14c07:	48 8d 05 c2 96 00 00 	lea    0x96c2(%rip),%rax        # 1e2d0 <g_759>
   14c0e:	48 89 85 70 f8 ff ff 	mov    %rax,-0x790(%rbp)
   14c15:	48 8d 05 b4 96 00 00 	lea    0x96b4(%rip),%rax        # 1e2d0 <g_759>
   14c1c:	48 89 85 78 f8 ff ff 	mov    %rax,-0x788(%rbp)
   14c23:	48 8d 05 a6 96 00 00 	lea    0x96a6(%rip),%rax        # 1e2d0 <g_759>
   14c2a:	48 89 85 80 f8 ff ff 	mov    %rax,-0x780(%rbp)
   14c31:	48 8d 05 98 96 00 00 	lea    0x9698(%rip),%rax        # 1e2d0 <g_759>
   14c38:	48 89 85 88 f8 ff ff 	mov    %rax,-0x778(%rbp)
   14c3f:	48 8d 05 06 94 00 00 	lea    0x9406(%rip),%rax        # 1e04c <g_90>
   14c46:	48 89 85 90 f8 ff ff 	mov    %rax,-0x770(%rbp)
   14c4d:	48 8d 05 7c 96 00 00 	lea    0x967c(%rip),%rax        # 1e2d0 <g_759>
   14c54:	48 89 85 98 f8 ff ff 	mov    %rax,-0x768(%rbp)
   14c5b:	48 c7 85 a0 f8 ff ff 	movq   $0x0,-0x760(%rbp)
   14c62:	00 00 00 00 
   14c66:	48 8d 05 63 96 00 00 	lea    0x9663(%rip),%rax        # 1e2d0 <g_759>
   14c6d:	48 89 85 a8 f8 ff ff 	mov    %rax,-0x758(%rbp)
   14c74:	48 8d 05 d1 93 00 00 	lea    0x93d1(%rip),%rax        # 1e04c <g_90>
   14c7b:	48 89 85 b0 f8 ff ff 	mov    %rax,-0x750(%rbp)
   14c82:	48 8d 05 47 96 00 00 	lea    0x9647(%rip),%rax        # 1e2d0 <g_759>
   14c89:	48 89 85 b8 f8 ff ff 	mov    %rax,-0x748(%rbp)
   14c90:	48 c7 85 c0 f8 ff ff 	movq   $0x0,-0x740(%rbp)
   14c97:	00 00 00 00 
   14c9b:	48 c7 85 c8 f8 ff ff 	movq   $0x0,-0x738(%rbp)
   14ca2:	00 00 00 00 
   14ca6:	48 8d 85 60 df ff ff 	lea    -0x20a0(%rbp),%rax
   14cad:	48 89 85 d0 f8 ff ff 	mov    %rax,-0x730(%rbp)
   14cb4:	48 c7 85 d8 f8 ff ff 	movq   $0x0,-0x728(%rbp)
   14cbb:	00 00 00 00 
   14cbf:	48 8d 85 60 df ff ff 	lea    -0x20a0(%rbp),%rax
   14cc6:	48 89 85 e0 f8 ff ff 	mov    %rax,-0x720(%rbp)
   14ccd:	48 8d 85 60 df ff ff 	lea    -0x20a0(%rbp),%rax
   14cd4:	48 89 85 e8 f8 ff ff 	mov    %rax,-0x718(%rbp)
   14cdb:	48 c7 85 f0 f8 ff ff 	movq   $0x0,-0x710(%rbp)
   14ce2:	00 00 00 00 
   14ce6:	48 8d 05 5f 93 00 00 	lea    0x935f(%rip),%rax        # 1e04c <g_90>
   14ced:	48 89 85 f8 f8 ff ff 	mov    %rax,-0x708(%rbp)
   14cf4:	48 c7 85 00 f9 ff ff 	movq   $0x0,-0x700(%rbp)
   14cfb:	00 00 00 00 
   14cff:	48 8d 05 ca 95 00 00 	lea    0x95ca(%rip),%rax        # 1e2d0 <g_759>
   14d06:	48 89 85 08 f9 ff ff 	mov    %rax,-0x6f8(%rbp)
   14d0d:	48 8d 05 38 93 00 00 	lea    0x9338(%rip),%rax        # 1e04c <g_90>
   14d14:	48 89 85 10 f9 ff ff 	mov    %rax,-0x6f0(%rbp)
   14d1b:	48 8d 05 ae 95 00 00 	lea    0x95ae(%rip),%rax        # 1e2d0 <g_759>
   14d22:	48 89 85 18 f9 ff ff 	mov    %rax,-0x6e8(%rbp)
   14d29:	48 c7 85 20 f9 ff ff 	movq   $0x0,-0x6e0(%rbp)
   14d30:	00 00 00 00 
   14d34:	48 c7 85 28 f9 ff ff 	movq   $0x0,-0x6d8(%rbp)
   14d3b:	00 00 00 00 
   14d3f:	48 8d 05 8a 95 00 00 	lea    0x958a(%rip),%rax        # 1e2d0 <g_759>
   14d46:	48 89 85 30 f9 ff ff 	mov    %rax,-0x6d0(%rbp)
   14d4d:	48 8d 05 f8 92 00 00 	lea    0x92f8(%rip),%rax        # 1e04c <g_90>
   14d54:	48 89 85 38 f9 ff ff 	mov    %rax,-0x6c8(%rbp)
   14d5b:	48 8d 05 6e 95 00 00 	lea    0x956e(%rip),%rax        # 1e2d0 <g_759>
   14d62:	48 89 85 40 f9 ff ff 	mov    %rax,-0x6c0(%rbp)
   14d69:	48 8d 05 60 95 00 00 	lea    0x9560(%rip),%rax        # 1e2d0 <g_759>
   14d70:	48 89 85 48 f9 ff ff 	mov    %rax,-0x6b8(%rbp)
   14d77:	48 8d 05 ce 92 00 00 	lea    0x92ce(%rip),%rax        # 1e04c <g_90>
   14d7e:	48 89 85 50 f9 ff ff 	mov    %rax,-0x6b0(%rbp)
   14d85:	48 c7 85 58 f9 ff ff 	movq   $0x0,-0x6a8(%rbp)
   14d8c:	00 00 00 00 
   14d90:	48 8d 05 b5 92 00 00 	lea    0x92b5(%rip),%rax        # 1e04c <g_90>
   14d97:	48 89 85 60 f9 ff ff 	mov    %rax,-0x6a0(%rbp)
   14d9e:	48 8d 85 60 df ff ff 	lea    -0x20a0(%rbp),%rax
   14da5:	48 89 85 68 f9 ff ff 	mov    %rax,-0x698(%rbp)
   14dac:	48 8d 85 60 df ff ff 	lea    -0x20a0(%rbp),%rax
   14db3:	48 89 85 70 f9 ff ff 	mov    %rax,-0x690(%rbp)
   14dba:	48 8d 05 0f 95 00 00 	lea    0x950f(%rip),%rax        # 1e2d0 <g_759>
   14dc1:	48 89 85 78 f9 ff ff 	mov    %rax,-0x688(%rbp)
   14dc8:	48 8d 05 01 95 00 00 	lea    0x9501(%rip),%rax        # 1e2d0 <g_759>
   14dcf:	48 89 85 80 f9 ff ff 	mov    %rax,-0x680(%rbp)
   14dd6:	48 8d 85 60 df ff ff 	lea    -0x20a0(%rbp),%rax
   14ddd:	48 89 85 88 f9 ff ff 	mov    %rax,-0x678(%rbp)
   14de4:	48 8d 05 e5 94 00 00 	lea    0x94e5(%rip),%rax        # 1e2d0 <g_759>
   14deb:	48 89 85 90 f9 ff ff 	mov    %rax,-0x670(%rbp)
   14df2:	48 8d 05 d7 94 00 00 	lea    0x94d7(%rip),%rax        # 1e2d0 <g_759>
   14df9:	48 89 85 98 f9 ff ff 	mov    %rax,-0x668(%rbp)
   14e00:	48 c7 85 a0 f9 ff ff 	movq   $0x0,-0x660(%rbp)
   14e07:	00 00 00 00 
   14e0b:	48 c7 85 a8 f9 ff ff 	movq   $0x0,-0x658(%rbp)
   14e12:	00 00 00 00 
   14e16:	48 c7 85 b0 f9 ff ff 	movq   $0x0,-0x650(%rbp)
   14e1d:	00 00 00 00 
   14e21:	48 8d 05 a8 94 00 00 	lea    0x94a8(%rip),%rax        # 1e2d0 <g_759>
   14e28:	48 89 85 b8 f9 ff ff 	mov    %rax,-0x648(%rbp)
   14e2f:	48 c7 85 c0 f9 ff ff 	movq   $0x0,-0x640(%rbp)
   14e36:	00 00 00 00 
   14e3a:	48 c7 85 c8 f9 ff ff 	movq   $0x0,-0x638(%rbp)
   14e41:	00 00 00 00 
   14e45:	48 8d 05 84 94 00 00 	lea    0x9484(%rip),%rax        # 1e2d0 <g_759>
   14e4c:	48 89 85 d0 f9 ff ff 	mov    %rax,-0x630(%rbp)
   14e53:	48 8d 05 76 94 00 00 	lea    0x9476(%rip),%rax        # 1e2d0 <g_759>
   14e5a:	48 89 85 d8 f9 ff ff 	mov    %rax,-0x628(%rbp)
   14e61:	48 8d 85 60 df ff ff 	lea    -0x20a0(%rbp),%rax
   14e68:	48 89 85 e0 f9 ff ff 	mov    %rax,-0x620(%rbp)
   14e6f:	48 8d 05 d6 91 00 00 	lea    0x91d6(%rip),%rax        # 1e04c <g_90>
   14e76:	48 89 85 e8 f9 ff ff 	mov    %rax,-0x618(%rbp)
   14e7d:	48 8d 85 60 df ff ff 	lea    -0x20a0(%rbp),%rax
   14e84:	48 89 85 f0 f9 ff ff 	mov    %rax,-0x610(%rbp)
   14e8b:	48 c7 85 f8 f9 ff ff 	movq   $0x0,-0x608(%rbp)
   14e92:	00 00 00 00 
   14e96:	48 8d 05 33 94 00 00 	lea    0x9433(%rip),%rax        # 1e2d0 <g_759>
   14e9d:	48 89 85 00 fa ff ff 	mov    %rax,-0x600(%rbp)
   14ea4:	48 8d 05 25 94 00 00 	lea    0x9425(%rip),%rax        # 1e2d0 <g_759>
   14eab:	48 89 85 08 fa ff ff 	mov    %rax,-0x5f8(%rbp)
   14eb2:	48 8d 85 60 df ff ff 	lea    -0x20a0(%rbp),%rax
   14eb9:	48 89 85 10 fa ff ff 	mov    %rax,-0x5f0(%rbp)
   14ec0:	48 8d 05 09 94 00 00 	lea    0x9409(%rip),%rax        # 1e2d0 <g_759>
   14ec7:	48 89 85 18 fa ff ff 	mov    %rax,-0x5e8(%rbp)
   14ece:	48 8d 05 fb 93 00 00 	lea    0x93fb(%rip),%rax        # 1e2d0 <g_759>
   14ed5:	48 89 85 20 fa ff ff 	mov    %rax,-0x5e0(%rbp)
   14edc:	48 8d 05 ed 93 00 00 	lea    0x93ed(%rip),%rax        # 1e2d0 <g_759>
   14ee3:	48 89 85 28 fa ff ff 	mov    %rax,-0x5d8(%rbp)
   14eea:	48 8d 05 df 93 00 00 	lea    0x93df(%rip),%rax        # 1e2d0 <g_759>
   14ef1:	48 89 85 30 fa ff ff 	mov    %rax,-0x5d0(%rbp)
   14ef8:	48 8d 05 d1 93 00 00 	lea    0x93d1(%rip),%rax        # 1e2d0 <g_759>
   14eff:	48 89 85 38 fa ff ff 	mov    %rax,-0x5c8(%rbp)
   14f06:	48 8d 85 60 df ff ff 	lea    -0x20a0(%rbp),%rax
   14f0d:	48 89 85 40 fa ff ff 	mov    %rax,-0x5c0(%rbp)
   14f14:	48 8d 05 b5 93 00 00 	lea    0x93b5(%rip),%rax        # 1e2d0 <g_759>
   14f1b:	48 89 85 48 fa ff ff 	mov    %rax,-0x5b8(%rbp)
   14f22:	48 8d 85 60 df ff ff 	lea    -0x20a0(%rbp),%rax
   14f29:	48 89 85 50 fa ff ff 	mov    %rax,-0x5b0(%rbp)
   14f30:	48 8d 85 60 df ff ff 	lea    -0x20a0(%rbp),%rax
   14f37:	48 89 85 58 fa ff ff 	mov    %rax,-0x5a8(%rbp)
   14f3e:	48 8d 05 8b 93 00 00 	lea    0x938b(%rip),%rax        # 1e2d0 <g_759>
   14f45:	48 89 85 60 fa ff ff 	mov    %rax,-0x5a0(%rbp)
   14f4c:	48 c7 85 68 fa ff ff 	movq   $0x0,-0x598(%rbp)
   14f53:	00 00 00 00 
   14f57:	48 8d 85 60 df ff ff 	lea    -0x20a0(%rbp),%rax
   14f5e:	48 89 85 70 fa ff ff 	mov    %rax,-0x590(%rbp)
   14f65:	48 8d 05 64 93 00 00 	lea    0x9364(%rip),%rax        # 1e2d0 <g_759>
   14f6c:	48 89 85 78 fa ff ff 	mov    %rax,-0x588(%rbp)
   14f73:	48 8d 05 56 93 00 00 	lea    0x9356(%rip),%rax        # 1e2d0 <g_759>
   14f7a:	48 89 85 80 fa ff ff 	mov    %rax,-0x580(%rbp)
   14f81:	48 c7 85 88 fa ff ff 	movq   $0x0,-0x578(%rbp)
   14f88:	00 00 00 00 
   14f8c:	48 c7 85 90 fa ff ff 	movq   $0x0,-0x570(%rbp)
   14f93:	00 00 00 00 
   14f97:	48 8d 05 32 93 00 00 	lea    0x9332(%rip),%rax        # 1e2d0 <g_759>
   14f9e:	48 89 85 98 fa ff ff 	mov    %rax,-0x568(%rbp)
   14fa5:	48 8d 05 24 93 00 00 	lea    0x9324(%rip),%rax        # 1e2d0 <g_759>
   14fac:	48 89 85 a0 fa ff ff 	mov    %rax,-0x560(%rbp)
   14fb3:	48 8d 05 16 93 00 00 	lea    0x9316(%rip),%rax        # 1e2d0 <g_759>
   14fba:	48 89 85 a8 fa ff ff 	mov    %rax,-0x558(%rbp)
   14fc1:	48 8d 05 08 93 00 00 	lea    0x9308(%rip),%rax        # 1e2d0 <g_759>
   14fc8:	48 89 85 b0 fa ff ff 	mov    %rax,-0x550(%rbp)
   14fcf:	48 8d 05 fa 92 00 00 	lea    0x92fa(%rip),%rax        # 1e2d0 <g_759>
   14fd6:	48 89 85 b8 fa ff ff 	mov    %rax,-0x548(%rbp)
   14fdd:	48 8d 05 68 90 00 00 	lea    0x9068(%rip),%rax        # 1e04c <g_90>
   14fe4:	48 89 85 c0 fa ff ff 	mov    %rax,-0x540(%rbp)
   14feb:	48 8d 05 de 92 00 00 	lea    0x92de(%rip),%rax        # 1e2d0 <g_759>
   14ff2:	48 89 85 c8 fa ff ff 	mov    %rax,-0x538(%rbp)
   14ff9:	48 c7 85 d0 fa ff ff 	movq   $0x0,-0x530(%rbp)
   15000:	00 00 00 00 
   15004:	48 8d 05 c5 92 00 00 	lea    0x92c5(%rip),%rax        # 1e2d0 <g_759>
   1500b:	48 89 85 d8 fa ff ff 	mov    %rax,-0x528(%rbp)
   15012:	48 8d 05 33 90 00 00 	lea    0x9033(%rip),%rax        # 1e04c <g_90>
   15019:	48 89 85 e0 fa ff ff 	mov    %rax,-0x520(%rbp)
   15020:	48 8d 05 a9 92 00 00 	lea    0x92a9(%rip),%rax        # 1e2d0 <g_759>
   15027:	48 89 85 e8 fa ff ff 	mov    %rax,-0x518(%rbp)
   1502e:	48 c7 85 f0 fa ff ff 	movq   $0x0,-0x510(%rbp)
   15035:	00 00 00 00 
   15039:	48 c7 85 f8 fa ff ff 	movq   $0x0,-0x508(%rbp)
   15040:	00 00 00 00 
   15044:	48 8d 85 60 df ff ff 	lea    -0x20a0(%rbp),%rax
   1504b:	48 89 85 00 fb ff ff 	mov    %rax,-0x500(%rbp)
   15052:	48 c7 85 08 fb ff ff 	movq   $0x0,-0x4f8(%rbp)
   15059:	00 00 00 00 
   1505d:	48 8d 85 60 df ff ff 	lea    -0x20a0(%rbp),%rax
   15064:	48 89 85 10 fb ff ff 	mov    %rax,-0x4f0(%rbp)
   1506b:	48 8d 85 60 df ff ff 	lea    -0x20a0(%rbp),%rax
   15072:	48 89 85 18 fb ff ff 	mov    %rax,-0x4e8(%rbp)
   15079:	48 c7 85 20 fb ff ff 	movq   $0x0,-0x4e0(%rbp)
   15080:	00 00 00 00 
   15084:	48 8d 05 c1 8f 00 00 	lea    0x8fc1(%rip),%rax        # 1e04c <g_90>
   1508b:	48 89 85 28 fb ff ff 	mov    %rax,-0x4d8(%rbp)
   15092:	48 c7 85 30 fb ff ff 	movq   $0x0,-0x4d0(%rbp)
   15099:	00 00 00 00 
   1509d:	48 8d 05 2c 92 00 00 	lea    0x922c(%rip),%rax        # 1e2d0 <g_759>
   150a4:	48 89 85 38 fb ff ff 	mov    %rax,-0x4c8(%rbp)
   150ab:	48 8d 05 9a 8f 00 00 	lea    0x8f9a(%rip),%rax        # 1e04c <g_90>
   150b2:	48 89 85 40 fb ff ff 	mov    %rax,-0x4c0(%rbp)
   150b9:	48 8d 05 10 92 00 00 	lea    0x9210(%rip),%rax        # 1e2d0 <g_759>
   150c0:	48 89 85 48 fb ff ff 	mov    %rax,-0x4b8(%rbp)
   150c7:	48 c7 85 50 fb ff ff 	movq   $0x0,-0x4b0(%rbp)
   150ce:	00 00 00 00 
   150d2:	48 c7 85 58 fb ff ff 	movq   $0x0,-0x4a8(%rbp)
   150d9:	00 00 00 00 
   150dd:	48 8d 05 ec 91 00 00 	lea    0x91ec(%rip),%rax        # 1e2d0 <g_759>
   150e4:	48 89 85 60 fb ff ff 	mov    %rax,-0x4a0(%rbp)
   150eb:	48 8d 05 5a 8f 00 00 	lea    0x8f5a(%rip),%rax        # 1e04c <g_90>
   150f2:	48 89 85 68 fb ff ff 	mov    %rax,-0x498(%rbp)
   150f9:	48 8d 05 d0 91 00 00 	lea    0x91d0(%rip),%rax        # 1e2d0 <g_759>
   15100:	48 89 85 70 fb ff ff 	mov    %rax,-0x490(%rbp)
   15107:	48 8d 05 c2 91 00 00 	lea    0x91c2(%rip),%rax        # 1e2d0 <g_759>
   1510e:	48 89 85 78 fb ff ff 	mov    %rax,-0x488(%rbp)
   15115:	48 8d 05 30 8f 00 00 	lea    0x8f30(%rip),%rax        # 1e04c <g_90>
   1511c:	48 89 85 80 fb ff ff 	mov    %rax,-0x480(%rbp)
   15123:	48 c7 85 88 fb ff ff 	movq   $0x0,-0x478(%rbp)
   1512a:	00 00 00 00 
   1512e:	48 8d 05 17 8f 00 00 	lea    0x8f17(%rip),%rax        # 1e04c <g_90>
   15135:	48 89 85 90 fb ff ff 	mov    %rax,-0x470(%rbp)
   1513c:	48 8d 85 60 df ff ff 	lea    -0x20a0(%rbp),%rax
   15143:	48 89 85 98 fb ff ff 	mov    %rax,-0x468(%rbp)
   1514a:	48 8d 85 60 df ff ff 	lea    -0x20a0(%rbp),%rax
   15151:	48 89 85 a0 fb ff ff 	mov    %rax,-0x460(%rbp)
   15158:	48 8d 05 71 91 00 00 	lea    0x9171(%rip),%rax        # 1e2d0 <g_759>
   1515f:	48 89 85 a8 fb ff ff 	mov    %rax,-0x458(%rbp)
   15166:	48 8d 05 63 91 00 00 	lea    0x9163(%rip),%rax        # 1e2d0 <g_759>
   1516d:	48 89 85 b0 fb ff ff 	mov    %rax,-0x450(%rbp)
   15174:	48 8d 85 60 df ff ff 	lea    -0x20a0(%rbp),%rax
   1517b:	48 89 85 b8 fb ff ff 	mov    %rax,-0x448(%rbp)
   15182:	48 8d 05 47 91 00 00 	lea    0x9147(%rip),%rax        # 1e2d0 <g_759>
   15189:	48 89 85 c0 fb ff ff 	mov    %rax,-0x440(%rbp)
   15190:	48 8d 05 39 91 00 00 	lea    0x9139(%rip),%rax        # 1e2d0 <g_759>
   15197:	48 89 85 c8 fb ff ff 	mov    %rax,-0x438(%rbp)
   1519e:	48 c7 85 d0 fb ff ff 	movq   $0x0,-0x430(%rbp)
   151a5:	00 00 00 00 
   151a9:	48 c7 85 d8 fb ff ff 	movq   $0x0,-0x428(%rbp)
   151b0:	00 00 00 00 
   151b4:	48 c7 85 e0 fb ff ff 	movq   $0x0,-0x420(%rbp)
   151bb:	00 00 00 00 
   151bf:	48 8d 05 0a 91 00 00 	lea    0x910a(%rip),%rax        # 1e2d0 <g_759>
   151c6:	48 89 85 e8 fb ff ff 	mov    %rax,-0x418(%rbp)
   151cd:	48 c7 85 f0 fb ff ff 	movq   $0x0,-0x410(%rbp)
   151d4:	00 00 00 00 
   151d8:	48 c7 85 f8 fb ff ff 	movq   $0x0,-0x408(%rbp)
   151df:	00 00 00 00 
   151e3:	48 8d 05 e6 90 00 00 	lea    0x90e6(%rip),%rax        # 1e2d0 <g_759>
   151ea:	48 89 85 00 fc ff ff 	mov    %rax,-0x400(%rbp)
   151f1:	48 8d 05 d8 90 00 00 	lea    0x90d8(%rip),%rax        # 1e2d0 <g_759>
   151f8:	48 89 85 08 fc ff ff 	mov    %rax,-0x3f8(%rbp)
   151ff:	48 8d 85 60 df ff ff 	lea    -0x20a0(%rbp),%rax
   15206:	48 89 85 10 fc ff ff 	mov    %rax,-0x3f0(%rbp)
   1520d:	48 8d 05 38 8e 00 00 	lea    0x8e38(%rip),%rax        # 1e04c <g_90>
   15214:	48 89 85 18 fc ff ff 	mov    %rax,-0x3e8(%rbp)
   1521b:	48 8d 85 60 df ff ff 	lea    -0x20a0(%rbp),%rax
   15222:	48 89 85 20 fc ff ff 	mov    %rax,-0x3e0(%rbp)
   15229:	48 c7 85 28 fc ff ff 	movq   $0x0,-0x3d8(%rbp)
   15230:	00 00 00 00 
   15234:	48 8d 05 95 90 00 00 	lea    0x9095(%rip),%rax        # 1e2d0 <g_759>
   1523b:	48 89 85 30 fc ff ff 	mov    %rax,-0x3d0(%rbp)
   15242:	48 8d 05 87 90 00 00 	lea    0x9087(%rip),%rax        # 1e2d0 <g_759>
   15249:	48 89 85 38 fc ff ff 	mov    %rax,-0x3c8(%rbp)
   15250:	48 8d 85 60 df ff ff 	lea    -0x20a0(%rbp),%rax
   15257:	48 89 85 40 fc ff ff 	mov    %rax,-0x3c0(%rbp)
   1525e:	48 8d 05 6b 90 00 00 	lea    0x906b(%rip),%rax        # 1e2d0 <g_759>
   15265:	48 89 85 48 fc ff ff 	mov    %rax,-0x3b8(%rbp)
   1526c:	48 8d 05 5d 90 00 00 	lea    0x905d(%rip),%rax        # 1e2d0 <g_759>
   15273:	48 89 85 50 fc ff ff 	mov    %rax,-0x3b0(%rbp)
   1527a:	48 8d 05 4f 90 00 00 	lea    0x904f(%rip),%rax        # 1e2d0 <g_759>
   15281:	48 89 85 58 fc ff ff 	mov    %rax,-0x3a8(%rbp)
   15288:	48 8d 05 41 90 00 00 	lea    0x9041(%rip),%rax        # 1e2d0 <g_759>
   1528f:	48 89 85 60 fc ff ff 	mov    %rax,-0x3a0(%rbp)
   15296:	48 8d 05 33 90 00 00 	lea    0x9033(%rip),%rax        # 1e2d0 <g_759>
   1529d:	48 89 85 68 fc ff ff 	mov    %rax,-0x398(%rbp)
   152a4:	48 8d 85 60 df ff ff 	lea    -0x20a0(%rbp),%rax
   152ab:	48 89 85 70 fc ff ff 	mov    %rax,-0x390(%rbp)
   152b2:	48 8d 05 17 90 00 00 	lea    0x9017(%rip),%rax        # 1e2d0 <g_759>
   152b9:	48 89 85 78 fc ff ff 	mov    %rax,-0x388(%rbp)
   152c0:	48 8d 85 60 df ff ff 	lea    -0x20a0(%rbp),%rax
   152c7:	48 89 85 80 fc ff ff 	mov    %rax,-0x380(%rbp)
   152ce:	48 8d 85 60 df ff ff 	lea    -0x20a0(%rbp),%rax
   152d5:	48 89 85 88 fc ff ff 	mov    %rax,-0x378(%rbp)
   152dc:	48 8d 05 ed 8f 00 00 	lea    0x8fed(%rip),%rax        # 1e2d0 <g_759>
   152e3:	48 89 85 90 fc ff ff 	mov    %rax,-0x370(%rbp)
   152ea:	48 c7 85 98 fc ff ff 	movq   $0x0,-0x368(%rbp)
   152f1:	00 00 00 00 
   152f5:	48 8d 85 60 df ff ff 	lea    -0x20a0(%rbp),%rax
   152fc:	48 89 85 a0 fc ff ff 	mov    %rax,-0x360(%rbp)
   15303:	48 8d 05 c6 8f 00 00 	lea    0x8fc6(%rip),%rax        # 1e2d0 <g_759>
   1530a:	48 89 85 a8 fc ff ff 	mov    %rax,-0x358(%rbp)
   15311:	48 8d 05 b8 8f 00 00 	lea    0x8fb8(%rip),%rax        # 1e2d0 <g_759>
   15318:	48 89 85 b0 fc ff ff 	mov    %rax,-0x350(%rbp)
   1531f:	48 c7 85 b8 fc ff ff 	movq   $0x0,-0x348(%rbp)
   15326:	00 00 00 00 
   1532a:	48 c7 85 c0 fc ff ff 	movq   $0x0,-0x340(%rbp)
   15331:	00 00 00 00 
   15335:	48 8d 05 94 8f 00 00 	lea    0x8f94(%rip),%rax        # 1e2d0 <g_759>
   1533c:	48 89 85 c8 fc ff ff 	mov    %rax,-0x338(%rbp)
   15343:	48 8d 05 86 8f 00 00 	lea    0x8f86(%rip),%rax        # 1e2d0 <g_759>
   1534a:	48 89 85 d0 fc ff ff 	mov    %rax,-0x330(%rbp)
   15351:	48 8d 05 78 8f 00 00 	lea    0x8f78(%rip),%rax        # 1e2d0 <g_759>
   15358:	48 89 85 d8 fc ff ff 	mov    %rax,-0x328(%rbp)
   1535f:	48 8d 05 6a 8f 00 00 	lea    0x8f6a(%rip),%rax        # 1e2d0 <g_759>
   15366:	48 89 85 e0 fc ff ff 	mov    %rax,-0x320(%rbp)
   1536d:	48 8d 05 5c 8f 00 00 	lea    0x8f5c(%rip),%rax        # 1e2d0 <g_759>
   15374:	48 89 85 e8 fc ff ff 	mov    %rax,-0x318(%rbp)
   1537b:	48 8d 05 ca 8c 00 00 	lea    0x8cca(%rip),%rax        # 1e04c <g_90>
   15382:	48 89 85 f0 fc ff ff 	mov    %rax,-0x310(%rbp)
   15389:	48 8d 05 40 8f 00 00 	lea    0x8f40(%rip),%rax        # 1e2d0 <g_759>
   15390:	48 89 85 f8 fc ff ff 	mov    %rax,-0x308(%rbp)
   15397:	48 c7 85 00 fd ff ff 	movq   $0x0,-0x300(%rbp)
   1539e:	00 00 00 00 
   153a2:	48 8d 05 27 8f 00 00 	lea    0x8f27(%rip),%rax        # 1e2d0 <g_759>
   153a9:	48 89 85 08 fd ff ff 	mov    %rax,-0x2f8(%rbp)
   153b0:	48 8d 05 95 8c 00 00 	lea    0x8c95(%rip),%rax        # 1e04c <g_90>
   153b7:	48 89 85 10 fd ff ff 	mov    %rax,-0x2f0(%rbp)
   153be:	48 8d 05 0b 8f 00 00 	lea    0x8f0b(%rip),%rax        # 1e2d0 <g_759>
   153c5:	48 89 85 18 fd ff ff 	mov    %rax,-0x2e8(%rbp)
   153cc:	48 c7 85 20 fd ff ff 	movq   $0x0,-0x2e0(%rbp)
   153d3:	00 00 00 00 
   153d7:	48 c7 85 28 fd ff ff 	movq   $0x0,-0x2d8(%rbp)
   153de:	00 00 00 00 
   153e2:	48 8d 85 60 df ff ff 	lea    -0x20a0(%rbp),%rax
   153e9:	48 89 85 30 fd ff ff 	mov    %rax,-0x2d0(%rbp)
   153f0:	48 c7 85 38 fd ff ff 	movq   $0x0,-0x2c8(%rbp)
   153f7:	00 00 00 00 
   153fb:	48 8d 85 60 df ff ff 	lea    -0x20a0(%rbp),%rax
   15402:	48 89 85 40 fd ff ff 	mov    %rax,-0x2c0(%rbp)
   15409:	48 8d 85 60 df ff ff 	lea    -0x20a0(%rbp),%rax
   15410:	48 89 85 48 fd ff ff 	mov    %rax,-0x2b8(%rbp)
   15417:	48 c7 85 50 fd ff ff 	movq   $0x0,-0x2b0(%rbp)
   1541e:	00 00 00 00 
   15422:	48 8d 05 23 8c 00 00 	lea    0x8c23(%rip),%rax        # 1e04c <g_90>
   15429:	48 89 85 58 fd ff ff 	mov    %rax,-0x2a8(%rbp)
   15430:	48 c7 85 60 fd ff ff 	movq   $0x0,-0x2a0(%rbp)
   15437:	00 00 00 00 
   1543b:	48 8d 05 8e 8e 00 00 	lea    0x8e8e(%rip),%rax        # 1e2d0 <g_759>
   15442:	48 89 85 68 fd ff ff 	mov    %rax,-0x298(%rbp)
   15449:	48 8d 05 fc 8b 00 00 	lea    0x8bfc(%rip),%rax        # 1e04c <g_90>
   15450:	48 89 85 70 fd ff ff 	mov    %rax,-0x290(%rbp)
   15457:	48 8d 05 72 8e 00 00 	lea    0x8e72(%rip),%rax        # 1e2d0 <g_759>
   1545e:	48 89 85 78 fd ff ff 	mov    %rax,-0x288(%rbp)
   15465:	48 c7 85 80 fd ff ff 	movq   $0x0,-0x280(%rbp)
   1546c:	00 00 00 00 
   15470:	48 c7 85 88 fd ff ff 	movq   $0x0,-0x278(%rbp)
   15477:	00 00 00 00 
   1547b:	48 8d 05 4e 8e 00 00 	lea    0x8e4e(%rip),%rax        # 1e2d0 <g_759>
   15482:	48 89 85 90 fd ff ff 	mov    %rax,-0x270(%rbp)
   15489:	48 8d 05 bc 8b 00 00 	lea    0x8bbc(%rip),%rax        # 1e04c <g_90>
   15490:	48 89 85 98 fd ff ff 	mov    %rax,-0x268(%rbp)
   15497:	48 8d 05 32 8e 00 00 	lea    0x8e32(%rip),%rax        # 1e2d0 <g_759>
   1549e:	48 89 85 a0 fd ff ff 	mov    %rax,-0x260(%rbp)
   154a5:	48 8d 05 24 8e 00 00 	lea    0x8e24(%rip),%rax        # 1e2d0 <g_759>
   154ac:	48 89 85 a8 fd ff ff 	mov    %rax,-0x258(%rbp)
   154b3:	48 8d 05 92 8b 00 00 	lea    0x8b92(%rip),%rax        # 1e04c <g_90>
   154ba:	48 89 85 b0 fd ff ff 	mov    %rax,-0x250(%rbp)
   154c1:	48 c7 85 b8 fd ff ff 	movq   $0x0,-0x248(%rbp)
   154c8:	00 00 00 00 
   154cc:	48 8d 05 79 8b 00 00 	lea    0x8b79(%rip),%rax        # 1e04c <g_90>
   154d3:	48 89 85 c0 fd ff ff 	mov    %rax,-0x240(%rbp)
   154da:	48 8d 85 60 df ff ff 	lea    -0x20a0(%rbp),%rax
   154e1:	48 89 85 c8 fd ff ff 	mov    %rax,-0x238(%rbp)
   154e8:	48 8d 85 60 df ff ff 	lea    -0x20a0(%rbp),%rax
   154ef:	48 89 85 d0 fd ff ff 	mov    %rax,-0x230(%rbp)
   154f6:	48 8d 05 d3 8d 00 00 	lea    0x8dd3(%rip),%rax        # 1e2d0 <g_759>
   154fd:	48 89 85 d8 fd ff ff 	mov    %rax,-0x228(%rbp)
   15504:	48 8d 05 c5 8d 00 00 	lea    0x8dc5(%rip),%rax        # 1e2d0 <g_759>
   1550b:	48 89 85 e0 fd ff ff 	mov    %rax,-0x220(%rbp)
   15512:	48 8d 85 60 df ff ff 	lea    -0x20a0(%rbp),%rax
   15519:	48 89 85 e8 fd ff ff 	mov    %rax,-0x218(%rbp)
   15520:	48 8d 05 a9 8d 00 00 	lea    0x8da9(%rip),%rax        # 1e2d0 <g_759>
   15527:	48 89 85 f0 fd ff ff 	mov    %rax,-0x210(%rbp)
   1552e:	48 8d 05 9b 8d 00 00 	lea    0x8d9b(%rip),%rax        # 1e2d0 <g_759>
   15535:	48 89 85 f8 fd ff ff 	mov    %rax,-0x208(%rbp)
   1553c:	48 c7 85 00 fe ff ff 	movq   $0x0,-0x200(%rbp)
   15543:	00 00 00 00 
   15547:	48 c7 85 08 fe ff ff 	movq   $0x0,-0x1f8(%rbp)
   1554e:	00 00 00 00 
   15552:	48 c7 85 10 fe ff ff 	movq   $0x0,-0x1f0(%rbp)
   15559:	00 00 00 00 
   1555d:	48 8d 05 6c 8d 00 00 	lea    0x8d6c(%rip),%rax        # 1e2d0 <g_759>
   15564:	48 89 85 18 fe ff ff 	mov    %rax,-0x1e8(%rbp)
   1556b:	48 c7 85 20 fe ff ff 	movq   $0x0,-0x1e0(%rbp)
   15572:	00 00 00 00 
   15576:	48 c7 85 28 fe ff ff 	movq   $0x0,-0x1d8(%rbp)
   1557d:	00 00 00 00 
   15581:	48 8d 05 48 8d 00 00 	lea    0x8d48(%rip),%rax        # 1e2d0 <g_759>
   15588:	48 89 85 30 fe ff ff 	mov    %rax,-0x1d0(%rbp)
   1558f:	48 8d 05 3a 8d 00 00 	lea    0x8d3a(%rip),%rax        # 1e2d0 <g_759>
   15596:	48 89 85 38 fe ff ff 	mov    %rax,-0x1c8(%rbp)
   1559d:	48 8d 85 60 df ff ff 	lea    -0x20a0(%rbp),%rax
   155a4:	48 89 85 40 fe ff ff 	mov    %rax,-0x1c0(%rbp)
   155ab:	48 8d 05 9a 8a 00 00 	lea    0x8a9a(%rip),%rax        # 1e04c <g_90>
   155b2:	48 89 85 48 fe ff ff 	mov    %rax,-0x1b8(%rbp)
   155b9:	48 8d 85 60 df ff ff 	lea    -0x20a0(%rbp),%rax
   155c0:	48 89 85 50 fe ff ff 	mov    %rax,-0x1b0(%rbp)
   155c7:	48 8d 05 02 8d 00 00 	lea    0x8d02(%rip),%rax        # 1e2d0 <g_759>
   155ce:	48 89 85 58 fe ff ff 	mov    %rax,-0x1a8(%rbp)
   155d5:	48 8d 05 70 8a 00 00 	lea    0x8a70(%rip),%rax        # 1e04c <g_90>
   155dc:	48 89 85 60 fe ff ff 	mov    %rax,-0x1a0(%rbp)
   155e3:	48 c7 85 68 fe ff ff 	movq   $0x0,-0x198(%rbp)
   155ea:	00 00 00 00 
   155ee:	48 8d 05 db 8c 00 00 	lea    0x8cdb(%rip),%rax        # 1e2d0 <g_759>
   155f5:	48 89 85 70 fe ff ff 	mov    %rax,-0x190(%rbp)
   155fc:	48 8d 05 cd 8c 00 00 	lea    0x8ccd(%rip),%rax        # 1e2d0 <g_759>
   15603:	48 89 85 78 fe ff ff 	mov    %rax,-0x188(%rbp)
   1560a:	48 8d 05 bf 8c 00 00 	lea    0x8cbf(%rip),%rax        # 1e2d0 <g_759>
   15611:	48 89 85 80 fe ff ff 	mov    %rax,-0x180(%rbp)
   15618:	48 8d 05 2d 8a 00 00 	lea    0x8a2d(%rip),%rax        # 1e04c <g_90>
   1561f:	48 89 85 88 fe ff ff 	mov    %rax,-0x178(%rbp)
   15626:	48 8d 05 1f 8a 00 00 	lea    0x8a1f(%rip),%rax        # 1e04c <g_90>
   1562d:	48 89 85 90 fe ff ff 	mov    %rax,-0x170(%rbp)
   15634:	48 8d 05 95 8c 00 00 	lea    0x8c95(%rip),%rax        # 1e2d0 <g_759>
   1563b:	48 89 85 98 fe ff ff 	mov    %rax,-0x168(%rbp)
   15642:	48 c7 85 a0 fe ff ff 	movq   $0x0,-0x160(%rbp)
   15649:	00 00 00 00 
   1564d:	48 8d 05 7c 8c 00 00 	lea    0x8c7c(%rip),%rax        # 1e2d0 <g_759>
   15654:	48 89 85 a8 fe ff ff 	mov    %rax,-0x158(%rbp)
   1565b:	48 8d 05 6e 8c 00 00 	lea    0x8c6e(%rip),%rax        # 1e2d0 <g_759>
   15662:	48 89 85 b0 fe ff ff 	mov    %rax,-0x150(%rbp)
   15669:	48 8d 05 60 8c 00 00 	lea    0x8c60(%rip),%rax        # 1e2d0 <g_759>
   15670:	48 89 85 b8 fe ff ff 	mov    %rax,-0x148(%rbp)
   15677:	48 8d 85 60 df ff ff 	lea    -0x20a0(%rbp),%rax
   1567e:	48 89 85 c0 fe ff ff 	mov    %rax,-0x140(%rbp)
   15685:	48 8d 85 60 df ff ff 	lea    -0x20a0(%rbp),%rax
   1568c:	48 89 85 c8 fe ff ff 	mov    %rax,-0x138(%rbp)
   15693:	48 c7 85 d0 fe ff ff 	movq   $0x0,-0x130(%rbp)
   1569a:	00 00 00 00 
   1569e:	48 8d 05 a7 89 00 00 	lea    0x89a7(%rip),%rax        # 1e04c <g_90>
   156a5:	48 89 85 d8 fe ff ff 	mov    %rax,-0x128(%rbp)
   156ac:	48 c7 85 e0 fe ff ff 	movq   $0x0,-0x120(%rbp)
   156b3:	00 00 00 00 
   156b7:	48 8d 85 60 df ff ff 	lea    -0x20a0(%rbp),%rax
   156be:	48 89 85 e8 fe ff ff 	mov    %rax,-0x118(%rbp)
   156c5:	48 8d 85 60 df ff ff 	lea    -0x20a0(%rbp),%rax
   156cc:	48 89 85 f0 fe ff ff 	mov    %rax,-0x110(%rbp)
   156d3:	48 c7 85 f8 fe ff ff 	movq   $0x0,-0x108(%rbp)
   156da:	00 00 00 00 
   156de:	48 8d 05 67 89 00 00 	lea    0x8967(%rip),%rax        # 1e04c <g_90>
   156e5:	48 89 85 00 ff ff ff 	mov    %rax,-0x100(%rbp)
   156ec:	48 c7 85 08 ff ff ff 	movq   $0x0,-0xf8(%rbp)
   156f3:	00 00 00 00 
   156f7:	48 8d 85 60 df ff ff 	lea    -0x20a0(%rbp),%rax
   156fe:	48 89 85 10 ff ff ff 	mov    %rax,-0xf0(%rbp)
   15705:	48 c7 85 18 ff ff ff 	movq   $0x0,-0xe8(%rbp)
   1570c:	00 00 00 00 
   15710:	48 8d 05 b9 8b 00 00 	lea    0x8bb9(%rip),%rax        # 1e2d0 <g_759>
   15717:	48 89 85 20 ff ff ff 	mov    %rax,-0xe0(%rbp)
   1571e:	48 8d 05 ab 8b 00 00 	lea    0x8bab(%rip),%rax        # 1e2d0 <g_759>
   15725:	48 89 85 28 ff ff ff 	mov    %rax,-0xd8(%rbp)
   1572c:	48 8d 85 60 df ff ff 	lea    -0x20a0(%rbp),%rax
   15733:	48 89 85 30 ff ff ff 	mov    %rax,-0xd0(%rbp)
   1573a:	48 8d 05 8f 8b 00 00 	lea    0x8b8f(%rip),%rax        # 1e2d0 <g_759>
   15741:	48 89 85 38 ff ff ff 	mov    %rax,-0xc8(%rbp)
   15748:	48 8d 05 81 8b 00 00 	lea    0x8b81(%rip),%rax        # 1e2d0 <g_759>
   1574f:	48 89 85 40 ff ff ff 	mov    %rax,-0xc0(%rbp)
   15756:	48 c7 85 48 ff ff ff 	movq   $0x0,-0xb8(%rbp)
   1575d:	00 00 00 00 
   15761:	48 8d 05 e4 88 00 00 	lea    0x88e4(%rip),%rax        # 1e04c <g_90>
   15768:	48 89 85 50 ff ff ff 	mov    %rax,-0xb0(%rbp)
   1576f:	48 8d 05 5a 8b 00 00 	lea    0x8b5a(%rip),%rax        # 1e2d0 <g_759>
   15776:	48 89 85 58 ff ff ff 	mov    %rax,-0xa8(%rbp)
   1577d:	48 8d 05 4c 8b 00 00 	lea    0x8b4c(%rip),%rax        # 1e2d0 <g_759>
   15784:	48 89 85 60 ff ff ff 	mov    %rax,-0xa0(%rbp)
   1578b:	48 8d 05 3e 8b 00 00 	lea    0x8b3e(%rip),%rax        # 1e2d0 <g_759>
   15792:	48 89 85 68 ff ff ff 	mov    %rax,-0x98(%rbp)
   15799:	48 c7 85 70 ff ff ff 	movq   $0x0,-0x90(%rbp)
   157a0:	00 00 00 00 
   157a4:	48 c7 85 78 ff ff ff 	movq   $0x0,-0x88(%rbp)
   157ab:	00 00 00 00 
   157af:	48 8d 85 60 df ff ff 	lea    -0x20a0(%rbp),%rax
   157b6:	48 89 45 80          	mov    %rax,-0x80(%rbp)
   157ba:	48 8d 05 0f 8b 00 00 	lea    0x8b0f(%rip),%rax        # 1e2d0 <g_759>
   157c1:	48 89 45 88          	mov    %rax,-0x78(%rbp)
   157c5:	48 8d 05 04 8b 00 00 	lea    0x8b04(%rip),%rax        # 1e2d0 <g_759>
   157cc:	48 89 45 90          	mov    %rax,-0x70(%rbp)
   157d0:	48 8d 05 f9 8a 00 00 	lea    0x8af9(%rip),%rax        # 1e2d0 <g_759>
   157d7:	48 89 45 98          	mov    %rax,-0x68(%rbp)
   157db:	48 8d 85 60 df ff ff 	lea    -0x20a0(%rbp),%rax
   157e2:	48 89 45 a0          	mov    %rax,-0x60(%rbp)
   157e6:	48 c7 45 a8 00 00 00 	movq   $0x0,-0x58(%rbp)
   157ed:	00 
   157ee:	48 8d 05 57 88 00 00 	lea    0x8857(%rip),%rax        # 1e04c <g_90>
   157f5:	48 89 45 b0          	mov    %rax,-0x50(%rbp)
   157f9:	48 8d 05 d0 8a 00 00 	lea    0x8ad0(%rip),%rax        # 1e2d0 <g_759>
   15800:	48 89 45 b8          	mov    %rax,-0x48(%rbp)
   15804:	48 8d 85 f0 f7 ff ff 	lea    -0x810(%rbp),%rax
   1580b:	48 05 48 04 00 00    	add    $0x448,%rax
   15811:	48 89 85 50 e0 ff ff 	mov    %rax,-0x1fb0(%rbp)
   15818:	48 8d 85 50 e0 ff ff 	lea    -0x1fb0(%rbp),%rax
   1581f:	48 89 85 58 e0 ff ff 	mov    %rax,-0x1fa8(%rbp)
   15826:	48 8d 85 58 e0 ff ff 	lea    -0x1fa8(%rbp),%rax
   1582d:	48 89 85 50 e1 ff ff 	mov    %rax,-0x1eb0(%rbp)
   15834:	48 8d 85 40 e0 ff ff 	lea    -0x1fc0(%rbp),%rax
   1583b:	48 89 85 58 e1 ff ff 	mov    %rax,-0x1ea8(%rbp)
   15842:	48 8d 85 f8 df ff ff 	lea    -0x2008(%rbp),%rax
   15849:	48 89 85 60 e1 ff ff 	mov    %rax,-0x1ea0(%rbp)
   15850:	48 c7 85 68 e1 ff ff 	movq   $0x0,-0x1e98(%rbp)
   15857:	00 00 00 00 
   1585b:	44 0f b6 b5 18 df ff 	movzbl -0x20e8(%rbp),%r14d
   15862:	ff 
   15863:	48 8b 85 38 df ff ff 	mov    -0x20c8(%rbp),%rax
   1586a:	0f b6 00             	movzbl (%rax),%eax
   1586d:	0f be d8             	movsbl %al,%ebx
   15870:	48 8b 85 38 df ff ff 	mov    -0x20c8(%rbp),%rax
   15877:	0f b6 00             	movzbl (%rax),%eax
   1587a:	44 0f be e0          	movsbl %al,%r12d
   1587e:	0f b6 85 5c df ff ff 	movzbl -0x20a4(%rbp),%eax
   15885:	0f be c0             	movsbl %al,%eax
   15888:	83 e0 01             	and    $0x1,%eax
   1588b:	89 c2                	mov    %eax,%edx
   1588d:	48 8b 85 c0 e0 ff ff 	mov    -0x1f40(%rbp),%rax
   15894:	48 89 05 9d b3 00 00 	mov    %rax,0xb39d(%rip)        # 20c38 <g_854>
   1589b:	48 8b 05 96 b3 00 00 	mov    0xb396(%rip),%rax        # 20c38 <g_854>
   158a2:	48 39 85 c8 e0 ff ff 	cmp    %rax,-0x1f38(%rbp)
   158a9:	0f 94 c0             	sete   %al
   158ac:	0f b6 c0             	movzbl %al,%eax
   158af:	89 d6                	mov    %edx,%esi
   158b1:	89 c7                	mov    %eax,%edi
   158b3:	e8 d5 13 ff ff       	callq  6c8d <safe_rshift_func_uint8_t_u_s>
   158b8:	0f b6 d0             	movzbl %al,%edx
   158bb:	48 8b 85 48 e1 ff ff 	mov    -0x1eb8(%rbp),%rax
   158c2:	89 10                	mov    %edx,(%rax)
   158c4:	48 8b 85 48 e1 ff ff 	mov    -0x1eb8(%rbp),%rax
   158cb:	8b 00                	mov    (%rax),%eax
   158cd:	89 c0                	mov    %eax,%eax
   158cf:	25 ad 13 6e de       	and    $0xde6e13ad,%eax
   158d4:	49 89 c7             	mov    %rax,%r15
   158d7:	8b 85 40 e0 ff ff    	mov    -0x1fc0(%rbp),%eax
   158dd:	44 0f be e8          	movsbl %al,%r13d
   158e1:	8b 85 40 e0 ff ff    	mov    -0x1fc0(%rbp),%eax
   158e7:	48 98                	cltq   
   158e9:	c7 85 c4 df ff ff 00 	movl   $0x0,-0x203c(%rbp)
   158f0:	00 00 00 
   158f3:	48 89 c6             	mov    %rax,%rsi
   158f6:	bf 00 00 00 00       	mov    $0x0,%edi
   158fb:	e8 a8 0f ff ff       	callq  68a8 <safe_sub_func_int64_t_s_s>
   15900:	89 c2                	mov    %eax,%edx
   15902:	8b 05 38 89 00 00    	mov    0x8938(%rip),%eax        # 1e240 <g_220>
   15908:	31 d0                	xor    %edx,%eax
   1590a:	0f be c0             	movsbl %al,%eax
   1590d:	44 89 ee             	mov    %r13d,%esi
   15910:	89 c7                	mov    %eax,%edi
   15912:	e8 bd 08 ff ff       	callq  61d4 <safe_add_func_int8_t_s_s>
   15917:	84 c0                	test   %al,%al
   15919:	75 0e                	jne    15929 <func_44+0x492b>
   1591b:	48 8b 85 38 df ff ff 	mov    -0x20c8(%rbp),%rax
   15922:	0f b6 00             	movzbl (%rax),%eax
   15925:	84 c0                	test   %al,%al
   15927:	74 07                	je     15930 <func_44+0x4932>
   15929:	b8 01 00 00 00       	mov    $0x1,%eax
   1592e:	eb 05                	jmp    15935 <func_44+0x4937>
   15930:	b8 00 00 00 00       	mov    $0x0,%eax
   15935:	48 98                	cltq   
   15937:	49 39 c7             	cmp    %rax,%r15
   1593a:	0f 9d c0             	setge  %al
   1593d:	0f b6 c0             	movzbl %al,%eax
   15940:	44 89 e6             	mov    %r12d,%esi
   15943:	89 c7                	mov    %eax,%edi
   15945:	e8 57 09 ff ff       	callq  62a1 <safe_lshift_func_int8_t_s_s>
   1594a:	0f be c0             	movsbl %al,%eax
   1594d:	89 de                	mov    %ebx,%esi
   1594f:	89 c7                	mov    %eax,%edi
   15951:	e8 9c 08 ff ff       	callq  61f2 <safe_sub_func_int8_t_s_s>
   15956:	41 38 c6             	cmp    %al,%r14b
   15959:	0f 95 c0             	setne  %al
   1595c:	0f b6 c0             	movzbl %al,%eax
   1595f:	33 85 c8 df ff ff    	xor    -0x2038(%rbp),%eax
   15965:	89 c2                	mov    %eax,%edx
   15967:	8b 85 cc df ff ff    	mov    -0x2034(%rbp),%eax
   1596d:	09 d0                	or     %edx,%eax
   1596f:	89 85 cc df ff ff    	mov    %eax,-0x2034(%rbp)
   15975:	0f b7 05 d4 88 00 00 	movzwl 0x88d4(%rip),%eax        # 1e250 <g_376>
   1597c:	98                   	cwtl   
   1597d:	be 05 00 00 00       	mov    $0x5,%esi
   15982:	89 c7                	mov    %eax,%edi
   15984:	e8 4a 0a ff ff       	callq  63d3 <safe_sub_func_int16_t_s_s>
   15989:	66 89 05 c0 88 00 00 	mov    %ax,0x88c0(%rip)        # 1e250 <g_376>
   15990:	0f b7 05 b9 88 00 00 	movzwl 0x88b9(%rip),%eax        # 1e250 <g_376>
   15997:	66 83 f8 fd          	cmp    $0xfffd,%ax
   1599b:	0f 8c c1 ef ff ff    	jl     14962 <func_44+0x3964>
   159a1:	c6 85 42 df ff ff fc 	movb   $0xfc,-0x20be(%rbp)
   159a8:	e9 ae 03 00 00       	jmpq   15d5b <func_44+0x4d5d>
   159ad:	c6 85 45 df ff ff f6 	movb   $0xf6,-0x20bb(%rbp)
   159b4:	48 8d 05 55 b2 00 00 	lea    0xb255(%rip),%rax        # 20c10 <g_272>
   159bb:	48 89 85 28 e1 ff ff 	mov    %rax,-0x1ed8(%rbp)
   159c2:	48 8d 85 70 e4 ff ff 	lea    -0x1b90(%rbp),%rax
   159c9:	48 05 08 01 00 00    	add    $0x108,%rax
   159cf:	48 89 85 58 e0 ff ff 	mov    %rax,-0x1fa8(%rbp)
   159d6:	48 8d 85 58 e0 ff ff 	lea    -0x1fa8(%rbp),%rax
   159dd:	48 89 85 30 e1 ff ff 	mov    %rax,-0x1ed0(%rbp)
   159e4:	48 c7 85 38 e1 ff ff 	movq   $0x0,-0x1ec8(%rbp)
   159eb:	00 00 00 00 
   159ef:	48 c7 85 30 ec ff ff 	movq   $0x0,-0x13d0(%rbp)
   159f6:	00 00 00 00 
   159fa:	48 c7 85 38 ec ff ff 	movq   $0x0,-0x13c8(%rbp)
   15a01:	00 00 00 00 
   15a05:	48 c7 85 40 ec ff ff 	movq   $0x0,-0x13c0(%rbp)
   15a0c:	00 00 00 00 
   15a10:	48 c7 85 48 ec ff ff 	movq   $0x0,-0x13b8(%rbp)
   15a17:	00 00 00 00 
   15a1b:	48 c7 85 50 ec ff ff 	movq   $0x0,-0x13b0(%rbp)
   15a22:	00 00 00 00 
   15a26:	48 c7 85 58 ec ff ff 	movq   $0x0,-0x13a8(%rbp)
   15a2d:	00 00 00 00 
   15a31:	48 c7 85 60 ec ff ff 	movq   $0x0,-0x13a0(%rbp)
   15a38:	00 00 00 00 
   15a3c:	48 c7 85 68 ec ff ff 	movq   $0x0,-0x1398(%rbp)
   15a43:	00 00 00 00 
   15a47:	48 c7 85 70 ec ff ff 	movq   $0x0,-0x1390(%rbp)
   15a4e:	00 00 00 00 
   15a52:	48 8d 85 50 df ff ff 	lea    -0x20b0(%rbp),%rax
   15a59:	48 89 85 f0 f7 ff ff 	mov    %rax,-0x810(%rbp)
   15a60:	48 8d 85 70 e2 ff ff 	lea    -0x1d90(%rbp),%rax
   15a67:	48 83 c0 14          	add    $0x14,%rax
   15a6b:	48 89 85 f8 f7 ff ff 	mov    %rax,-0x808(%rbp)
   15a72:	48 8d 85 70 e2 ff ff 	lea    -0x1d90(%rbp),%rax
   15a79:	48 83 c0 14          	add    $0x14,%rax
   15a7d:	48 89 85 00 f8 ff ff 	mov    %rax,-0x800(%rbp)
   15a84:	48 8d 85 50 df ff ff 	lea    -0x20b0(%rbp),%rax
   15a8b:	48 89 85 08 f8 ff ff 	mov    %rax,-0x7f8(%rbp)
   15a92:	48 c7 85 10 f8 ff ff 	movq   $0x0,-0x7f0(%rbp)
   15a99:	00 00 00 00 
   15a9d:	48 8d 05 98 85 00 00 	lea    0x8598(%rip),%rax        # 1e03c <g_71+0xc>
   15aa4:	48 89 85 18 f8 ff ff 	mov    %rax,-0x7e8(%rbp)
   15aab:	48 8d 05 8a 85 00 00 	lea    0x858a(%rip),%rax        # 1e03c <g_71+0xc>
   15ab2:	48 89 85 20 f8 ff ff 	mov    %rax,-0x7e0(%rbp)
   15ab9:	48 8d 85 50 df ff ff 	lea    -0x20b0(%rbp),%rax
   15ac0:	48 89 85 28 f8 ff ff 	mov    %rax,-0x7d8(%rbp)
   15ac7:	48 8d 85 50 df ff ff 	lea    -0x20b0(%rbp),%rax
   15ace:	48 89 85 30 f8 ff ff 	mov    %rax,-0x7d0(%rbp)
   15ad5:	48 8d 85 50 df ff ff 	lea    -0x20b0(%rbp),%rax
   15adc:	48 89 85 38 f8 ff ff 	mov    %rax,-0x7c8(%rbp)
   15ae3:	48 8d 05 52 85 00 00 	lea    0x8552(%rip),%rax        # 1e03c <g_71+0xc>
   15aea:	48 89 85 40 f8 ff ff 	mov    %rax,-0x7c0(%rbp)
   15af1:	48 8d 85 70 e2 ff ff 	lea    -0x1d90(%rbp),%rax
   15af8:	48 89 85 48 f8 ff ff 	mov    %rax,-0x7b8(%rbp)
   15aff:	48 8d 85 50 df ff ff 	lea    -0x20b0(%rbp),%rax
   15b06:	48 89 85 50 f8 ff ff 	mov    %rax,-0x7b0(%rbp)
   15b0d:	48 8d 05 28 85 00 00 	lea    0x8528(%rip),%rax        # 1e03c <g_71+0xc>
   15b14:	48 89 85 58 f8 ff ff 	mov    %rax,-0x7a8(%rbp)
   15b1b:	48 8d 85 70 e2 ff ff 	lea    -0x1d90(%rbp),%rax
   15b22:	48 89 85 60 f8 ff ff 	mov    %rax,-0x7a0(%rbp)
   15b29:	48 8d 85 70 e2 ff ff 	lea    -0x1d90(%rbp),%rax
   15b30:	48 89 85 68 f8 ff ff 	mov    %rax,-0x798(%rbp)
   15b37:	48 8d 05 fe 84 00 00 	lea    0x84fe(%rip),%rax        # 1e03c <g_71+0xc>
   15b3e:	48 89 85 70 f8 ff ff 	mov    %rax,-0x790(%rbp)
   15b45:	48 8d 85 50 df ff ff 	lea    -0x20b0(%rbp),%rax
   15b4c:	48 89 85 78 f8 ff ff 	mov    %rax,-0x788(%rbp)
   15b53:	48 8d 85 70 e2 ff ff 	lea    -0x1d90(%rbp),%rax
   15b5a:	48 83 c0 14          	add    $0x14,%rax
   15b5e:	48 89 85 80 f8 ff ff 	mov    %rax,-0x780(%rbp)
   15b65:	48 8d 85 50 df ff ff 	lea    -0x20b0(%rbp),%rax
   15b6c:	48 89 85 88 f8 ff ff 	mov    %rax,-0x778(%rbp)
   15b73:	48 c7 85 90 f8 ff ff 	movq   $0x0,-0x770(%rbp)
   15b7a:	00 00 00 00 
   15b7e:	48 8d 05 b7 84 00 00 	lea    0x84b7(%rip),%rax        # 1e03c <g_71+0xc>
   15b85:	48 89 85 98 f8 ff ff 	mov    %rax,-0x768(%rbp)
   15b8c:	48 c7 85 a0 f8 ff ff 	movq   $0x0,-0x760(%rbp)
   15b93:	00 00 00 00 
   15b97:	48 8d 85 50 df ff ff 	lea    -0x20b0(%rbp),%rax
   15b9e:	48 89 85 a8 f8 ff ff 	mov    %rax,-0x758(%rbp)
   15ba5:	48 c7 85 b0 f8 ff ff 	movq   $0x0,-0x750(%rbp)
   15bac:	00 00 00 00 
   15bb0:	48 8d 85 70 e2 ff ff 	lea    -0x1d90(%rbp),%rax
   15bb7:	48 83 c0 14          	add    $0x14,%rax
   15bbb:	48 89 85 b8 f8 ff ff 	mov    %rax,-0x748(%rbp)
   15bc2:	48 8d 85 70 e2 ff ff 	lea    -0x1d90(%rbp),%rax
   15bc9:	48 89 85 c0 f8 ff ff 	mov    %rax,-0x740(%rbp)
   15bd0:	48 8d 85 50 df ff ff 	lea    -0x20b0(%rbp),%rax
   15bd7:	48 89 85 c8 f8 ff ff 	mov    %rax,-0x738(%rbp)
   15bde:	48 8d 85 50 df ff ff 	lea    -0x20b0(%rbp),%rax
   15be5:	48 89 85 d0 f8 ff ff 	mov    %rax,-0x730(%rbp)
   15bec:	48 8d 85 70 e2 ff ff 	lea    -0x1d90(%rbp),%rax
   15bf3:	48 89 85 d8 f8 ff ff 	mov    %rax,-0x728(%rbp)
   15bfa:	48 c7 85 e0 f8 ff ff 	movq   $0x0,-0x720(%rbp)
   15c01:	00 00 00 00 
   15c05:	48 c7 85 e8 f8 ff ff 	movq   $0x0,-0x718(%rbp)
   15c0c:	00 00 00 00 
   15c10:	48 8d 85 50 df ff ff 	lea    -0x20b0(%rbp),%rax
   15c17:	48 89 85 f0 f8 ff ff 	mov    %rax,-0x710(%rbp)
   15c1e:	48 8d 05 17 84 00 00 	lea    0x8417(%rip),%rax        # 1e03c <g_71+0xc>
   15c25:	48 89 85 f8 f8 ff ff 	mov    %rax,-0x708(%rbp)
   15c2c:	48 8d 85 38 e0 ff ff 	lea    -0x1fc8(%rbp),%rax
   15c33:	48 89 85 00 f9 ff ff 	mov    %rax,-0x700(%rbp)
   15c3a:	48 8d 05 fb 83 00 00 	lea    0x83fb(%rip),%rax        # 1e03c <g_71+0xc>
   15c41:	48 89 85 08 f9 ff ff 	mov    %rax,-0x6f8(%rbp)
   15c48:	48 8d 85 70 e2 ff ff 	lea    -0x1d90(%rbp),%rax
   15c4f:	48 83 c0 14          	add    $0x14,%rax
   15c53:	48 89 85 10 f9 ff ff 	mov    %rax,-0x6f0(%rbp)
   15c5a:	48 c7 85 18 f9 ff ff 	movq   $0x0,-0x6e8(%rbp)
   15c61:	00 00 00 00 
   15c65:	48 8d 85 70 e2 ff ff 	lea    -0x1d90(%rbp),%rax
   15c6c:	48 83 c0 14          	add    $0x14,%rax
   15c70:	48 89 85 20 f9 ff ff 	mov    %rax,-0x6e0(%rbp)
   15c77:	48 8d 85 70 e2 ff ff 	lea    -0x1d90(%rbp),%rax
   15c7e:	48 89 85 28 f9 ff ff 	mov    %rax,-0x6d8(%rbp)
   15c85:	48 8d 85 50 df ff ff 	lea    -0x20b0(%rbp),%rax
   15c8c:	48 89 85 30 f9 ff ff 	mov    %rax,-0x6d0(%rbp)
   15c93:	48 8d 85 50 df ff ff 	lea    -0x20b0(%rbp),%rax
   15c9a:	48 89 85 38 f9 ff ff 	mov    %rax,-0x6c8(%rbp)
   15ca1:	48 8d 85 50 df ff ff 	lea    -0x20b0(%rbp),%rax
   15ca8:	48 89 85 40 f9 ff ff 	mov    %rax,-0x6c0(%rbp)
   15caf:	48 8d 85 70 e2 ff ff 	lea    -0x1d90(%rbp),%rax
   15cb6:	48 83 c0 14          	add    $0x14,%rax
   15cba:	48 89 85 48 f9 ff ff 	mov    %rax,-0x6b8(%rbp)
   15cc1:	48 8d 85 70 e2 ff ff 	lea    -0x1d90(%rbp),%rax
   15cc8:	48 83 c0 14          	add    $0x14,%rax
   15ccc:	48 89 85 50 f9 ff ff 	mov    %rax,-0x6b0(%rbp)
   15cd3:	48 8d 85 50 df ff ff 	lea    -0x20b0(%rbp),%rax
   15cda:	48 89 85 58 f9 ff ff 	mov    %rax,-0x6a8(%rbp)
   15ce1:	48 c7 85 60 f9 ff ff 	movq   $0x0,-0x6a0(%rbp)
   15ce8:	00 00 00 00 
   15cec:	48 8d 05 49 83 00 00 	lea    0x8349(%rip),%rax        # 1e03c <g_71+0xc>
   15cf3:	48 89 85 68 f9 ff ff 	mov    %rax,-0x698(%rbp)
   15cfa:	c7 85 bc df ff ff ba 	movl   $0xc6bb99ba,-0x2044(%rbp)
   15d01:	99 bb c6 
   15d04:	48 8d 05 ad 85 00 00 	lea    0x85ad(%rip),%rax        # 1e2b8 <g_583>
   15d0b:	48 89 85 40 e1 ff ff 	mov    %rax,-0x1ec0(%rbp)
   15d12:	c7 85 c0 df ff ff 00 	movl   $0x0,-0x2040(%rbp)
   15d19:	00 00 00 
   15d1c:	c7 85 78 df ff ff 00 	movl   $0x0,-0x2088(%rbp)
   15d23:	00 00 00 
   15d26:	eb 1a                	jmp    15d42 <func_44+0x4d44>
   15d28:	8b 85 78 df ff ff    	mov    -0x2088(%rbp),%eax
   15d2e:	48 98                	cltq   
   15d30:	c7 84 85 b0 e6 ff ff 	movl   $0x0,-0x1950(%rbp,%rax,4)
   15d37:	00 00 00 00 
   15d3b:	83 85 78 df ff ff 01 	addl   $0x1,-0x2088(%rbp)
   15d42:	83 bd 78 df ff ff 07 	cmpl   $0x7,-0x2088(%rbp)
   15d49:	7e dd                	jle    15d28 <func_44+0x4d2a>
   15d4b:	0f b6 85 42 df ff ff 	movzbl -0x20be(%rbp),%eax
   15d52:	83 c0 01             	add    $0x1,%eax
   15d55:	88 85 42 df ff ff    	mov    %al,-0x20be(%rbp)
   15d5b:	0f b6 85 42 df ff ff 	movzbl -0x20be(%rbp),%eax
   15d62:	3c 1b                	cmp    $0x1b,%al
   15d64:	0f 8f 43 fc ff ff    	jg     159ad <func_44+0x49af>
   15d6a:	c7 85 58 df ff ff f7 	movl   $0xfffffff7,-0x20a8(%rbp)
   15d71:	ff ff ff 
   15d74:	e9 ba 06 00 00       	jmpq   16433 <func_44+0x5435>
   15d79:	48 8d 05 a5 82 00 00 	lea    0x82a5(%rip),%rax        # 1e025 <g_66>
   15d80:	48 89 85 f0 f7 ff ff 	mov    %rax,-0x810(%rbp)
   15d87:	48 8d 85 42 df ff ff 	lea    -0x20be(%rbp),%rax
   15d8e:	48 89 85 f8 f7 ff ff 	mov    %rax,-0x808(%rbp)
   15d95:	48 8d 85 5c df ff ff 	lea    -0x20a4(%rbp),%rax
   15d9c:	48 89 85 00 f8 ff ff 	mov    %rax,-0x800(%rbp)
   15da3:	48 8d 05 f6 84 00 00 	lea    0x84f6(%rip),%rax        # 1e2a0 <g_446>
   15daa:	48 89 85 08 f8 ff ff 	mov    %rax,-0x7f8(%rbp)
   15db1:	48 8d 85 42 df ff ff 	lea    -0x20be(%rbp),%rax
   15db8:	48 89 85 10 f8 ff ff 	mov    %rax,-0x7f0(%rbp)
   15dbf:	48 8d 05 5f 82 00 00 	lea    0x825f(%rip),%rax        # 1e025 <g_66>
   15dc6:	48 89 85 18 f8 ff ff 	mov    %rax,-0x7e8(%rbp)
   15dcd:	48 8d 05 51 82 00 00 	lea    0x8251(%rip),%rax        # 1e025 <g_66>
   15dd4:	48 89 85 20 f8 ff ff 	mov    %rax,-0x7e0(%rbp)
   15ddb:	48 c7 85 28 f8 ff ff 	movq   $0x0,-0x7d8(%rbp)
   15de2:	00 00 00 00 
   15de6:	48 8d 05 38 82 00 00 	lea    0x8238(%rip),%rax        # 1e025 <g_66>
   15ded:	48 89 85 30 f8 ff ff 	mov    %rax,-0x7d0(%rbp)
   15df4:	48 c7 85 38 f8 ff ff 	movq   $0x0,-0x7c8(%rbp)
   15dfb:	00 00 00 00 
   15dff:	48 8d 05 9a 84 00 00 	lea    0x849a(%rip),%rax        # 1e2a0 <g_446>
   15e06:	48 89 85 40 f8 ff ff 	mov    %rax,-0x7c0(%rbp)
   15e0d:	48 8d 05 11 82 00 00 	lea    0x8211(%rip),%rax        # 1e025 <g_66>
   15e14:	48 89 85 48 f8 ff ff 	mov    %rax,-0x7b8(%rbp)
   15e1b:	48 8d 05 03 82 00 00 	lea    0x8203(%rip),%rax        # 1e025 <g_66>
   15e22:	48 89 85 50 f8 ff ff 	mov    %rax,-0x7b0(%rbp)
   15e29:	48 8d 05 70 84 00 00 	lea    0x8470(%rip),%rax        # 1e2a0 <g_446>
   15e30:	48 89 85 58 f8 ff ff 	mov    %rax,-0x7a8(%rbp)
   15e37:	48 8d 85 5c df ff ff 	lea    -0x20a4(%rbp),%rax
   15e3e:	48 89 85 60 f8 ff ff 	mov    %rax,-0x7a0(%rbp)
   15e45:	48 c7 85 68 f8 ff ff 	movq   $0x0,-0x798(%rbp)
   15e4c:	00 00 00 00 
   15e50:	48 8d 05 49 84 00 00 	lea    0x8449(%rip),%rax        # 1e2a0 <g_446>
   15e57:	48 89 85 70 f8 ff ff 	mov    %rax,-0x790(%rbp)
   15e5e:	48 8d 05 3b 84 00 00 	lea    0x843b(%rip),%rax        # 1e2a0 <g_446>
   15e65:	48 89 85 78 f8 ff ff 	mov    %rax,-0x788(%rbp)
   15e6c:	48 8d 85 5c df ff ff 	lea    -0x20a4(%rbp),%rax
   15e73:	48 89 85 80 f8 ff ff 	mov    %rax,-0x780(%rbp)
   15e7a:	48 c7 85 88 f8 ff ff 	movq   $0x0,-0x778(%rbp)
   15e81:	00 00 00 00 
   15e85:	48 8d 05 14 84 00 00 	lea    0x8414(%rip),%rax        # 1e2a0 <g_446>
   15e8c:	48 89 85 90 f8 ff ff 	mov    %rax,-0x770(%rbp)
   15e93:	48 c7 85 98 f8 ff ff 	movq   $0x0,-0x768(%rbp)
   15e9a:	00 00 00 00 
   15e9e:	48 8d 85 42 df ff ff 	lea    -0x20be(%rbp),%rax
   15ea5:	48 89 85 a0 f8 ff ff 	mov    %rax,-0x760(%rbp)
   15eac:	48 c7 85 a8 f8 ff ff 	movq   $0x0,-0x758(%rbp)
   15eb3:	00 00 00 00 
   15eb7:	48 8d 05 67 81 00 00 	lea    0x8167(%rip),%rax        # 1e025 <g_66>
   15ebe:	48 89 85 b0 f8 ff ff 	mov    %rax,-0x750(%rbp)
   15ec5:	48 8d 85 42 df ff ff 	lea    -0x20be(%rbp),%rax
   15ecc:	48 89 85 b8 f8 ff ff 	mov    %rax,-0x748(%rbp)
   15ed3:	48 8d 05 c6 83 00 00 	lea    0x83c6(%rip),%rax        # 1e2a0 <g_446>
   15eda:	48 89 85 c0 f8 ff ff 	mov    %rax,-0x740(%rbp)
   15ee1:	48 c7 85 c8 f8 ff ff 	movq   $0x0,-0x738(%rbp)
   15ee8:	00 00 00 00 
   15eec:	48 c7 85 d0 f8 ff ff 	movq   $0x0,-0x730(%rbp)
   15ef3:	00 00 00 00 
   15ef7:	48 8d 05 a2 83 00 00 	lea    0x83a2(%rip),%rax        # 1e2a0 <g_446>
   15efe:	48 89 85 d8 f8 ff ff 	mov    %rax,-0x728(%rbp)
   15f05:	48 8d 05 19 81 00 00 	lea    0x8119(%rip),%rax        # 1e025 <g_66>
   15f0c:	48 89 85 e0 f8 ff ff 	mov    %rax,-0x720(%rbp)
   15f13:	48 8d 85 42 df ff ff 	lea    -0x20be(%rbp),%rax
   15f1a:	48 89 85 e8 f8 ff ff 	mov    %rax,-0x718(%rbp)
   15f21:	48 8d 85 5c df ff ff 	lea    -0x20a4(%rbp),%rax
   15f28:	48 89 85 f0 f8 ff ff 	mov    %rax,-0x710(%rbp)
   15f2f:	48 8d 05 6a 83 00 00 	lea    0x836a(%rip),%rax        # 1e2a0 <g_446>
   15f36:	48 89 85 f8 f8 ff ff 	mov    %rax,-0x708(%rbp)
   15f3d:	48 8d 85 42 df ff ff 	lea    -0x20be(%rbp),%rax
   15f44:	48 89 85 00 f9 ff ff 	mov    %rax,-0x700(%rbp)
   15f4b:	48 8d 05 d3 80 00 00 	lea    0x80d3(%rip),%rax        # 1e025 <g_66>
   15f52:	48 89 85 08 f9 ff ff 	mov    %rax,-0x6f8(%rbp)
   15f59:	48 8d 05 c5 80 00 00 	lea    0x80c5(%rip),%rax        # 1e025 <g_66>
   15f60:	48 89 85 10 f9 ff ff 	mov    %rax,-0x6f0(%rbp)
   15f67:	48 c7 85 18 f9 ff ff 	movq   $0x0,-0x6e8(%rbp)
   15f6e:	00 00 00 00 
   15f72:	48 8d 05 ac 80 00 00 	lea    0x80ac(%rip),%rax        # 1e025 <g_66>
   15f79:	48 89 85 20 f9 ff ff 	mov    %rax,-0x6e0(%rbp)
   15f80:	48 c7 85 28 f9 ff ff 	movq   $0x0,-0x6d8(%rbp)
   15f87:	00 00 00 00 
   15f8b:	48 8d 05 0e 83 00 00 	lea    0x830e(%rip),%rax        # 1e2a0 <g_446>
   15f92:	48 89 85 30 f9 ff ff 	mov    %rax,-0x6d0(%rbp)
   15f99:	48 8d 05 85 80 00 00 	lea    0x8085(%rip),%rax        # 1e025 <g_66>
   15fa0:	48 89 85 38 f9 ff ff 	mov    %rax,-0x6c8(%rbp)
   15fa7:	48 8d 05 77 80 00 00 	lea    0x8077(%rip),%rax        # 1e025 <g_66>
   15fae:	48 89 85 40 f9 ff ff 	mov    %rax,-0x6c0(%rbp)
   15fb5:	48 8d 05 e4 82 00 00 	lea    0x82e4(%rip),%rax        # 1e2a0 <g_446>
   15fbc:	48 89 85 48 f9 ff ff 	mov    %rax,-0x6b8(%rbp)
   15fc3:	48 8d 85 5c df ff ff 	lea    -0x20a4(%rbp),%rax
   15fca:	48 89 85 50 f9 ff ff 	mov    %rax,-0x6b0(%rbp)
   15fd1:	48 c7 85 58 f9 ff ff 	movq   $0x0,-0x6a8(%rbp)
   15fd8:	00 00 00 00 
   15fdc:	48 8d 05 bd 82 00 00 	lea    0x82bd(%rip),%rax        # 1e2a0 <g_446>
   15fe3:	48 89 85 60 f9 ff ff 	mov    %rax,-0x6a0(%rbp)
   15fea:	48 8d 05 af 82 00 00 	lea    0x82af(%rip),%rax        # 1e2a0 <g_446>
   15ff1:	48 89 85 68 f9 ff ff 	mov    %rax,-0x698(%rbp)
   15ff8:	48 8d 85 5c df ff ff 	lea    -0x20a4(%rbp),%rax
   15fff:	48 89 85 70 f9 ff ff 	mov    %rax,-0x690(%rbp)
   16006:	48 c7 85 78 f9 ff ff 	movq   $0x0,-0x688(%rbp)
   1600d:	00 00 00 00 
   16011:	48 8d 05 88 82 00 00 	lea    0x8288(%rip),%rax        # 1e2a0 <g_446>
   16018:	48 89 85 80 f9 ff ff 	mov    %rax,-0x680(%rbp)
   1601f:	48 c7 85 88 f9 ff ff 	movq   $0x0,-0x678(%rbp)
   16026:	00 00 00 00 
   1602a:	48 8d 85 42 df ff ff 	lea    -0x20be(%rbp),%rax
   16031:	48 89 85 90 f9 ff ff 	mov    %rax,-0x670(%rbp)
   16038:	48 c7 85 98 f9 ff ff 	movq   $0x0,-0x668(%rbp)
   1603f:	00 00 00 00 
   16043:	48 8d 05 db 7f 00 00 	lea    0x7fdb(%rip),%rax        # 1e025 <g_66>
   1604a:	48 89 85 a0 f9 ff ff 	mov    %rax,-0x660(%rbp)
   16051:	48 8d 85 42 df ff ff 	lea    -0x20be(%rbp),%rax
   16058:	48 89 85 a8 f9 ff ff 	mov    %rax,-0x658(%rbp)
   1605f:	48 8d 05 3a 82 00 00 	lea    0x823a(%rip),%rax        # 1e2a0 <g_446>
   16066:	48 89 85 b0 f9 ff ff 	mov    %rax,-0x650(%rbp)
   1606d:	48 c7 85 b8 f9 ff ff 	movq   $0x0,-0x648(%rbp)
   16074:	00 00 00 00 
   16078:	48 c7 85 c0 f9 ff ff 	movq   $0x0,-0x640(%rbp)
   1607f:	00 00 00 00 
   16083:	48 8d 05 16 82 00 00 	lea    0x8216(%rip),%rax        # 1e2a0 <g_446>
   1608a:	48 89 85 c8 f9 ff ff 	mov    %rax,-0x638(%rbp)
   16091:	48 8d 05 8d 7f 00 00 	lea    0x7f8d(%rip),%rax        # 1e025 <g_66>
   16098:	48 89 85 d0 f9 ff ff 	mov    %rax,-0x630(%rbp)
   1609f:	48 8d 85 42 df ff ff 	lea    -0x20be(%rbp),%rax
   160a6:	48 89 85 d8 f9 ff ff 	mov    %rax,-0x628(%rbp)
   160ad:	48 8d 85 5c df ff ff 	lea    -0x20a4(%rbp),%rax
   160b4:	48 89 85 e0 f9 ff ff 	mov    %rax,-0x620(%rbp)
   160bb:	48 8d 05 de 81 00 00 	lea    0x81de(%rip),%rax        # 1e2a0 <g_446>
   160c2:	48 89 85 e8 f9 ff ff 	mov    %rax,-0x618(%rbp)
   160c9:	48 8d 85 42 df ff ff 	lea    -0x20be(%rbp),%rax
   160d0:	48 89 85 f0 f9 ff ff 	mov    %rax,-0x610(%rbp)
   160d7:	48 8d 05 47 7f 00 00 	lea    0x7f47(%rip),%rax        # 1e025 <g_66>
   160de:	48 89 85 f8 f9 ff ff 	mov    %rax,-0x608(%rbp)
   160e5:	48 8d 05 39 7f 00 00 	lea    0x7f39(%rip),%rax        # 1e025 <g_66>
   160ec:	48 89 85 00 fa ff ff 	mov    %rax,-0x600(%rbp)
   160f3:	48 c7 85 08 fa ff ff 	movq   $0x0,-0x5f8(%rbp)
   160fa:	00 00 00 00 
   160fe:	48 8d 05 20 7f 00 00 	lea    0x7f20(%rip),%rax        # 1e025 <g_66>
   16105:	48 89 85 10 fa ff ff 	mov    %rax,-0x5f0(%rbp)
   1610c:	48 c7 85 18 fa ff ff 	movq   $0x0,-0x5e8(%rbp)
   16113:	00 00 00 00 
   16117:	48 8d 05 82 81 00 00 	lea    0x8182(%rip),%rax        # 1e2a0 <g_446>
   1611e:	48 89 85 20 fa ff ff 	mov    %rax,-0x5e0(%rbp)
   16125:	48 8d 05 f9 7e 00 00 	lea    0x7ef9(%rip),%rax        # 1e025 <g_66>
   1612c:	48 89 85 28 fa ff ff 	mov    %rax,-0x5d8(%rbp)
   16133:	48 c7 85 00 e1 ff ff 	movq   $0x0,-0x1f00(%rbp)
   1613a:	00 00 00 00 
   1613e:	48 8d 05 bf 80 00 00 	lea    0x80bf(%rip),%rax        # 1e204 <g_196+0x4>
   16145:	48 89 85 08 e1 ff ff 	mov    %rax,-0x1ef8(%rbp)
   1614c:	c7 85 ac df ff ff fa 	movl   $0xdc40aefa,-0x2054(%rbp)
   16153:	ae 40 dc 
   16156:	48 8d 05 5b 81 00 00 	lea    0x815b(%rip),%rax        # 1e2b8 <g_583>
   1615d:	48 89 85 10 e1 ff ff 	mov    %rax,-0x1ef0(%rbp)
   16164:	48 c7 85 18 e1 ff ff 	movq   $0x1,-0x1ee8(%rbp)
   1616b:	01 00 00 00 
   1616f:	c7 85 b0 df ff ff 5c 	movl   $0x29f1f05c,-0x2050(%rbp)
   16176:	f0 f1 29 
   16179:	c6 85 44 df ff ff c1 	movb   $0xc1,-0x20bc(%rbp)
   16180:	c7 85 b4 df ff ff 01 	movl   $0x1,-0x204c(%rbp)
   16187:	00 00 00 
   1618a:	c7 85 b8 df ff ff 00 	movl   $0x0,-0x2048(%rbp)
   16191:	00 00 00 
   16194:	48 8d 85 58 df ff ff 	lea    -0x20a8(%rbp),%rax
   1619b:	48 89 85 20 e1 ff ff 	mov    %rax,-0x1ee0(%rbp)
   161a2:	66 c7 85 4c df ff ff 	movw   $0x491,-0x20b4(%rbp)
   161a9:	91 04 
   161ab:	c7 85 7c df ff ff 00 	movl   $0x0,-0x2084(%rbp)
   161b2:	00 00 00 
   161b5:	eb 46                	jmp    161fd <func_44+0x51ff>
   161b7:	c7 85 80 df ff ff 00 	movl   $0x0,-0x2080(%rbp)
   161be:	00 00 00 
   161c1:	eb 2a                	jmp    161ed <func_44+0x51ef>
   161c3:	8b 85 80 df ff ff    	mov    -0x2080(%rbp),%eax
   161c9:	48 98                	cltq   
   161cb:	8b 95 7c df ff ff    	mov    -0x2084(%rbp),%edx
   161d1:	48 63 d2             	movslq %edx,%rdx
   161d4:	48 c1 e2 03          	shl    $0x3,%rdx
   161d8:	48 01 d0             	add    %rdx,%rax
   161db:	c7 84 85 30 ec ff ff 	movl   $0x0,-0x13d0(%rbp,%rax,4)
   161e2:	00 00 00 00 
   161e6:	83 85 80 df ff ff 01 	addl   $0x1,-0x2080(%rbp)
   161ed:	83 bd 80 df ff ff 07 	cmpl   $0x7,-0x2080(%rbp)
   161f4:	7e cd                	jle    161c3 <func_44+0x51c5>
   161f6:	83 85 7c df ff ff 01 	addl   $0x1,-0x2084(%rbp)
   161fd:	83 bd 7c df ff ff 00 	cmpl   $0x0,-0x2084(%rbp)
   16204:	7e b1                	jle    161b7 <func_44+0x51b9>
   16206:	0f b7 05 63 7e 00 00 	movzwl 0x7e63(%rip),%eax        # 1e070 <g_129+0x10>
   1620d:	0f bf d8             	movswl %ax,%ebx
   16210:	48 8b 05 d9 95 00 00 	mov    0x95d9(%rip),%rax        # 1f7f0 <g_641>
   16217:	0f b7 10             	movzwl (%rax),%edx
   1621a:	48 8b 85 08 e1 ff ff 	mov    -0x1ef8(%rbp),%rax
   16221:	66 89 10             	mov    %dx,(%rax)
   16224:	48 8b 85 08 e1 ff ff 	mov    -0x1ef8(%rbp),%rax
   1622b:	0f b7 00             	movzwl (%rax),%eax
   1622e:	44 0f b7 f0          	movzwl %ax,%r14d
   16232:	48 8b 85 18 e0 ff ff 	mov    -0x1fe8(%rbp),%rax
   16239:	44 8b 38             	mov    (%rax),%r15d
   1623c:	48 8b 85 18 e0 ff ff 	mov    -0x1fe8(%rbp),%rax
   16243:	8b 00                	mov    (%rax),%eax
   16245:	4c 63 e0             	movslq %eax,%r12
   16248:	48 8b 85 18 e0 ff ff 	mov    -0x1fe8(%rbp),%rax
   1624f:	44 8b 28             	mov    (%rax),%r13d
   16252:	8b 85 ac df ff ff    	mov    -0x2054(%rbp),%eax
   16258:	0f be d0             	movsbl %al,%edx
   1625b:	0f b6 85 18 df ff ff 	movzbl -0x20e8(%rbp),%eax
   16262:	0f be c8             	movsbl %al,%ecx
   16265:	8b 85 34 df ff ff    	mov    -0x20cc(%rbp),%eax
   1626b:	39 c1                	cmp    %eax,%ecx
   1626d:	0f 9c c0             	setl   %al
   16270:	0f b6 c0             	movzbl %al,%eax
   16273:	89 d6                	mov    %edx,%esi
   16275:	89 c7                	mov    %eax,%edi
   16277:	e8 ee ff fe ff       	callq  626a <safe_div_func_int8_t_s_s>
   1627c:	3c f8                	cmp    $0xf8,%al
   1627e:	0f 95 c0             	setne  %al
   16281:	0f b6 c0             	movzbl %al,%eax
   16284:	89 c6                	mov    %eax,%esi
   16286:	bf 00 00 00 00       	mov    $0x0,%edi
   1628b:	e8 ad 0a ff ff       	callq  6d3d <safe_mul_func_uint16_t_u_u>
   16290:	be 01 00 00 00       	mov    $0x1,%esi
   16295:	bf ab ff ff ff       	mov    $0xffffffab,%edi
   1629a:	e8 73 ff fe ff       	callq  6212 <safe_mul_func_int8_t_s_s>
   1629f:	f7 d0                	not    %eax
   162a1:	88 05 f9 7f 00 00    	mov    %al,0x7ff9(%rip)        # 1e2a0 <g_446>
   162a7:	0f b7 05 8a 7f 00 00 	movzwl 0x7f8a(%rip),%eax        # 1e238 <g_198+0x18>
   162ae:	66 83 f8 05          	cmp    $0x5,%ax
   162b2:	74 12                	je     162c6 <func_44+0x52c8>
   162b4:	0f b6 05 e5 7f 00 00 	movzbl 0x7fe5(%rip),%eax        # 1e2a0 <g_446>
   162bb:	84 c0                	test   %al,%al
   162bd:	74 07                	je     162c6 <func_44+0x52c8>
   162bf:	ba 01 00 00 00       	mov    $0x1,%edx
   162c4:	eb 05                	jmp    162cb <func_44+0x52cd>
   162c6:	ba 00 00 00 00       	mov    $0x0,%edx
   162cb:	0f b6 05 fe 7f 00 00 	movzbl 0x7ffe(%rip),%eax        # 1e2d0 <g_759>
   162d2:	0f b6 c0             	movzbl %al,%eax
   162d5:	39 c2                	cmp    %eax,%edx
   162d7:	7e 10                	jle    162e9 <func_44+0x52eb>
   162d9:	83 bd a8 df ff ff 00 	cmpl   $0x0,-0x2058(%rbp)
   162e0:	74 07                	je     162e9 <func_44+0x52eb>
   162e2:	b8 01 00 00 00       	mov    $0x1,%eax
   162e7:	eb 05                	jmp    162ee <func_44+0x52f0>
   162e9:	b8 00 00 00 00       	mov    $0x0,%eax
   162ee:	44 89 ee             	mov    %r13d,%esi
   162f1:	89 c7                	mov    %eax,%edi
   162f3:	e8 0d 03 ff ff       	callq  6605 <safe_sub_func_int32_t_s_s>
   162f8:	48 63 d0             	movslq %eax,%rdx
   162fb:	48 8b 85 10 e1 ff ff 	mov    -0x1ef0(%rbp),%rax
   16302:	48 89 10             	mov    %rdx,(%rax)
   16305:	48 8b 85 10 e1 ff ff 	mov    -0x1ef0(%rbp),%rax
   1630c:	48 8b 00             	mov    (%rax),%rax
   1630f:	4c 89 e6             	mov    %r12,%rsi
   16312:	48 89 c7             	mov    %rax,%rdi
   16315:	e8 dd 06 ff ff       	callq  69f7 <safe_div_func_int64_t_s_s>
   1631a:	48 8b 05 7f 95 00 00 	mov    0x957f(%rip),%rax        # 1f8a0 <g_1102>
   16321:	48 89 05 78 95 00 00 	mov    %rax,0x9578(%rip)        # 1f8a0 <g_1102>
   16328:	48 8b 05 71 95 00 00 	mov    0x9571(%rip),%rax        # 1f8a0 <g_1102>
   1632f:	48 39 85 f0 e0 ff ff 	cmp    %rax,-0x1f10(%rbp)
   16336:	0f 95 c0             	setne  %al
   16339:	0f b6 c0             	movzbl %al,%eax
   1633c:	41 39 c7             	cmp    %eax,%r15d
   1633f:	7e 11                	jle    16352 <func_44+0x5354>
   16341:	48 83 bd 18 e1 ff ff 	cmpq   $0x0,-0x1ee8(%rbp)
   16348:	00 
   16349:	74 07                	je     16352 <func_44+0x5354>
   1634b:	b8 01 00 00 00       	mov    $0x1,%eax
   16350:	eb 05                	jmp    16357 <func_44+0x5359>
   16352:	b8 00 00 00 00       	mov    $0x0,%eax
   16357:	44 39 f0             	cmp    %r14d,%eax
   1635a:	0f 9e c0             	setle  %al
   1635d:	0f b6 d0             	movzbl %al,%edx
   16360:	8b 85 34 df ff ff    	mov    -0x20cc(%rbp),%eax
   16366:	39 c2                	cmp    %eax,%edx
   16368:	0f 95 c0             	setne  %al
   1636b:	0f b6 c0             	movzbl %al,%eax
   1636e:	be 07 00 00 00       	mov    $0x7,%esi
   16373:	89 c7                	mov    %eax,%edi
   16375:	e8 d2 08 ff ff       	callq  6c4c <safe_lshift_func_uint8_t_u_u>
   1637a:	0f b6 c0             	movzbl %al,%eax
   1637d:	be 78 c5 73 5b       	mov    $0x5b73c578,%esi
   16382:	89 c7                	mov    %eax,%edi
   16384:	e8 43 03 ff ff       	callq  66cc <safe_mod_func_int32_t_s_s>
   16389:	89 de                	mov    %ebx,%esi
   1638b:	bf 00 00 00 00       	mov    $0x0,%edi
   16390:	e8 1e 00 ff ff       	callq  63b3 <safe_add_func_int16_t_s_s>
   16395:	0f b7 d8             	movzwl %ax,%ebx
   16398:	48 8b 85 38 df ff ff 	mov    -0x20c8(%rbp),%rax
   1639f:	c6 00 f9             	movb   $0xf9,(%rax)
   163a2:	c7 85 a4 df ff ff f9 	movl   $0xfffffff9,-0x205c(%rbp)
   163a9:	ff ff ff 
   163ac:	8b 85 a4 df ff ff    	mov    -0x205c(%rbp),%eax
   163b2:	0f be d0             	movsbl %al,%edx
   163b5:	48 83 bd 90 e0 ff ff 	cmpq   $0x0,-0x1f70(%rbp)
   163bc:	00 
   163bd:	0f 94 c0             	sete   %al
   163c0:	0f b6 c0             	movzbl %al,%eax
   163c3:	89 d6                	mov    %edx,%esi
   163c5:	89 c7                	mov    %eax,%edi
   163c7:	e8 26 fe fe ff       	callq  61f2 <safe_sub_func_int8_t_s_s>
   163cc:	84 c0                	test   %al,%al
   163ce:	74 11                	je     163e1 <func_44+0x53e3>
   163d0:	8b 85 34 df ff ff    	mov    -0x20cc(%rbp),%eax
   163d6:	85 c0                	test   %eax,%eax
   163d8:	74 07                	je     163e1 <func_44+0x53e3>
   163da:	b8 01 00 00 00       	mov    $0x1,%eax
   163df:	eb 05                	jmp    163e6 <func_44+0x53e8>
   163e1:	b8 00 00 00 00       	mov    $0x0,%eax
   163e6:	0f b7 c0             	movzwl %ax,%eax
   163e9:	89 de                	mov    %ebx,%esi
   163eb:	89 c7                	mov    %eax,%edi
   163ed:	e8 0d 09 ff ff       	callq  6cff <safe_add_func_uint16_t_u_u>
   163f2:	66 85 c0             	test   %ax,%ax
   163f5:	75 0f                	jne    16406 <func_44+0x5408>
   163f7:	48 8b 05 f2 93 00 00 	mov    0x93f2(%rip),%rax        # 1f7f0 <g_641>
   163fe:	0f b7 00             	movzwl (%rax),%eax
   16401:	66 85 c0             	test   %ax,%ax
   16404:	74 07                	je     1640d <func_44+0x540f>
   16406:	b8 01 00 00 00       	mov    $0x1,%eax
   1640b:	eb 05                	jmp    16412 <func_44+0x5414>
   1640d:	b8 00 00 00 00       	mov    $0x0,%eax
   16412:	09 85 b0 df ff ff    	or     %eax,-0x2050(%rbp)
   16418:	8b 85 58 df ff ff    	mov    -0x20a8(%rbp),%eax
   1641e:	48 98                	cltq   
   16420:	be 09 00 00 00       	mov    $0x9,%esi
   16425:	48 89 c7             	mov    %rax,%rdi
   16428:	e8 01 0c ff ff       	callq  702e <safe_add_func_uint64_t_u_u>
   1642d:	89 85 58 df ff ff    	mov    %eax,-0x20a8(%rbp)
   16433:	8b 85 58 df ff ff    	mov    -0x20a8(%rbp),%eax
   16439:	83 f8 fe             	cmp    $0xfffffffe,%eax
   1643c:	0f 84 37 f9 ff ff    	je     15d79 <func_44+0x4d7b>
   16442:	0f b7 05 97 7d 00 00 	movzwl 0x7d97(%rip),%eax        # 1e1e0 <g_131>
   16449:	0f be c0             	movsbl %al,%eax
   1644c:	be 08 00 00 00       	mov    $0x8,%esi
   16451:	89 c7                	mov    %eax,%edi
   16453:	e8 7c fd fe ff       	callq  61d4 <safe_add_func_int8_t_s_s>
   16458:	66 98                	cbtw   
   1645a:	66 89 05 7f 7d 00 00 	mov    %ax,0x7d7f(%rip)        # 1e1e0 <g_131>
   16461:	0f b7 05 78 7d 00 00 	movzwl 0x7d78(%rip),%eax        # 1e1e0 <g_131>
   16468:	66 83 f8 11          	cmp    $0x11,%ax
   1646c:	0f 84 20 e3 ff ff    	je     14792 <func_44+0x3794>
   16472:	0f b6 05 ac 7b 00 00 	movzbl 0x7bac(%rip),%eax        # 1e025 <g_66>
   16479:	0f b6 c0             	movzbl %al,%eax
   1647c:	be 01 00 00 00       	mov    $0x1,%esi
   16481:	89 c7                	mov    %eax,%edi
   16483:	e8 d2 06 ff ff       	callq  6b5a <safe_add_func_uint8_t_u_u>
   16488:	88 05 97 7b 00 00    	mov    %al,0x7b97(%rip)        # 1e025 <g_66>
   1648e:	0f b6 05 90 7b 00 00 	movzbl 0x7b90(%rip),%eax        # 1e025 <g_66>
   16495:	3c 0e                	cmp    $0xe,%al
   16497:	0f 84 b0 ad ff ff    	je     1124d <func_44+0x24f>
   1649d:	c6 05 fc 7d 00 00 00 	movb   $0x0,0x7dfc(%rip)        # 1e2a0 <g_446>
   164a4:	e9 e2 0f 00 00       	jmpq   1748b <func_44+0x648d>
   164a9:	48 c7 85 48 e0 ff ff 	movq   $0xffffffffffffffff,-0x1fb8(%rbp)
   164b0:	ff ff ff ff 
   164b4:	66 c7 85 48 df ff ff 	movw   $0x7476,-0x20b8(%rbp)
   164bb:	76 74 
   164bd:	48 c7 85 50 e0 ff ff 	movq   $0x0,-0x1fb0(%rbp)
   164c4:	00 00 00 00 
   164c8:	c7 85 50 e0 ff ff 7e 	movl   $0x878eff7e,-0x1fb0(%rbp)
   164cf:	ff 8e 87 
   164d2:	c7 85 64 df ff ff 2e 	movl   $0x21b3892e,-0x209c(%rbp)
   164d9:	89 b3 21 
   164dc:	48 c7 85 60 e0 ff ff 	movq   $0x0,-0x1fa0(%rbp)
   164e3:	00 00 00 00 
   164e7:	66 83 85 48 df ff ff 	addw   $0x1,-0x20b8(%rbp)
   164ee:	01 
   164ef:	c6 05 32 7e 00 00 00 	movb   $0x0,0x7e32(%rip)        # 1e328 <g_1151>
   164f6:	e9 71 0f 00 00       	jmpq   1746c <func_44+0x646e>
   164fb:	48 8d 05 b6 7d 00 00 	lea    0x7db6(%rip),%rax        # 1e2b8 <g_583>
   16502:	48 89 85 f0 f7 ff ff 	mov    %rax,-0x810(%rbp)
   16509:	48 c7 85 f8 f7 ff ff 	movq   $0x0,-0x808(%rbp)
   16510:	00 00 00 00 
   16514:	48 8d 85 48 e0 ff ff 	lea    -0x1fb8(%rbp),%rax
   1651b:	48 89 85 00 f8 ff ff 	mov    %rax,-0x800(%rbp)
   16522:	48 8d 85 48 e0 ff ff 	lea    -0x1fb8(%rbp),%rax
   16529:	48 89 85 08 f8 ff ff 	mov    %rax,-0x7f8(%rbp)
   16530:	48 c7 85 10 f8 ff ff 	movq   $0x0,-0x7f0(%rbp)
   16537:	00 00 00 00 
   1653b:	48 8d 05 76 7d 00 00 	lea    0x7d76(%rip),%rax        # 1e2b8 <g_583>
   16542:	48 89 85 18 f8 ff ff 	mov    %rax,-0x7e8(%rbp)
   16549:	48 c7 85 20 f8 ff ff 	movq   $0x0,-0x7e0(%rbp)
   16550:	00 00 00 00 
   16554:	48 c7 85 28 f8 ff ff 	movq   $0x0,-0x7d8(%rbp)
   1655b:	00 00 00 00 
   1655f:	48 8d 85 48 e0 ff ff 	lea    -0x1fb8(%rbp),%rax
   16566:	48 89 85 30 f8 ff ff 	mov    %rax,-0x7d0(%rbp)
   1656d:	48 c7 85 38 f8 ff ff 	movq   $0x0,-0x7c8(%rbp)
   16574:	00 00 00 00 
   16578:	48 8d 85 48 e0 ff ff 	lea    -0x1fb8(%rbp),%rax
   1657f:	48 89 85 40 f8 ff ff 	mov    %rax,-0x7c0(%rbp)
   16586:	48 8d 85 48 e0 ff ff 	lea    -0x1fb8(%rbp),%rax
   1658d:	48 89 85 48 f8 ff ff 	mov    %rax,-0x7b8(%rbp)
   16594:	48 c7 85 50 f8 ff ff 	movq   $0x0,-0x7b0(%rbp)
   1659b:	00 00 00 00 
   1659f:	48 8d 85 48 e0 ff ff 	lea    -0x1fb8(%rbp),%rax
   165a6:	48 89 85 58 f8 ff ff 	mov    %rax,-0x7a8(%rbp)
   165ad:	48 c7 85 60 f8 ff ff 	movq   $0x0,-0x7a0(%rbp)
   165b4:	00 00 00 00 
   165b8:	48 c7 85 68 f8 ff ff 	movq   $0x0,-0x798(%rbp)
   165bf:	00 00 00 00 
   165c3:	48 8d 05 ee 7c 00 00 	lea    0x7cee(%rip),%rax        # 1e2b8 <g_583>
   165ca:	48 89 85 70 f8 ff ff 	mov    %rax,-0x790(%rbp)
   165d1:	48 8d 85 48 e0 ff ff 	lea    -0x1fb8(%rbp),%rax
   165d8:	48 89 85 78 f8 ff ff 	mov    %rax,-0x788(%rbp)
   165df:	48 8d 85 48 e0 ff ff 	lea    -0x1fb8(%rbp),%rax
   165e6:	48 89 85 80 f8 ff ff 	mov    %rax,-0x780(%rbp)
   165ed:	48 8d 85 48 e0 ff ff 	lea    -0x1fb8(%rbp),%rax
   165f4:	48 89 85 88 f8 ff ff 	mov    %rax,-0x778(%rbp)
   165fb:	48 8d 85 48 e0 ff ff 	lea    -0x1fb8(%rbp),%rax
   16602:	48 89 85 90 f8 ff ff 	mov    %rax,-0x770(%rbp)
   16609:	48 8d 85 48 e0 ff ff 	lea    -0x1fb8(%rbp),%rax
   16610:	48 89 85 98 f8 ff ff 	mov    %rax,-0x768(%rbp)
   16617:	48 c7 85 a0 f8 ff ff 	movq   $0x0,-0x760(%rbp)
   1661e:	00 00 00 00 
   16622:	48 8d 85 48 e0 ff ff 	lea    -0x1fb8(%rbp),%rax
   16629:	48 89 85 a8 f8 ff ff 	mov    %rax,-0x758(%rbp)
   16630:	48 8d 85 48 e0 ff ff 	lea    -0x1fb8(%rbp),%rax
   16637:	48 89 85 b0 f8 ff ff 	mov    %rax,-0x750(%rbp)
   1663e:	48 c7 85 b8 f8 ff ff 	movq   $0x0,-0x748(%rbp)
   16645:	00 00 00 00 
   16649:	48 c7 85 c0 f8 ff ff 	movq   $0x0,-0x740(%rbp)
   16650:	00 00 00 00 
   16654:	48 c7 85 c8 f8 ff ff 	movq   $0x0,-0x738(%rbp)
   1665b:	00 00 00 00 
   1665f:	48 c7 85 d0 f8 ff ff 	movq   $0x0,-0x730(%rbp)
   16666:	00 00 00 00 
   1666a:	48 8d 85 48 e0 ff ff 	lea    -0x1fb8(%rbp),%rax
   16671:	48 89 85 d8 f8 ff ff 	mov    %rax,-0x728(%rbp)
   16678:	48 8d 85 48 e0 ff ff 	lea    -0x1fb8(%rbp),%rax
   1667f:	48 89 85 e0 f8 ff ff 	mov    %rax,-0x720(%rbp)
   16686:	48 8d 85 48 e0 ff ff 	lea    -0x1fb8(%rbp),%rax
   1668d:	48 89 85 e8 f8 ff ff 	mov    %rax,-0x718(%rbp)
   16694:	48 c7 85 f0 f8 ff ff 	movq   $0x0,-0x710(%rbp)
   1669b:	00 00 00 00 
   1669f:	48 8d 85 48 e0 ff ff 	lea    -0x1fb8(%rbp),%rax
   166a6:	48 89 85 f8 f8 ff ff 	mov    %rax,-0x708(%rbp)
   166ad:	48 8d 05 04 7c 00 00 	lea    0x7c04(%rip),%rax        # 1e2b8 <g_583>
   166b4:	48 89 85 00 f9 ff ff 	mov    %rax,-0x700(%rbp)
   166bb:	48 8d 05 f6 7b 00 00 	lea    0x7bf6(%rip),%rax        # 1e2b8 <g_583>
   166c2:	48 89 85 08 f9 ff ff 	mov    %rax,-0x6f8(%rbp)
   166c9:	48 c7 85 10 f9 ff ff 	movq   $0x0,-0x6f0(%rbp)
   166d0:	00 00 00 00 
   166d4:	48 8d 85 48 e0 ff ff 	lea    -0x1fb8(%rbp),%rax
   166db:	48 89 85 18 f9 ff ff 	mov    %rax,-0x6e8(%rbp)
   166e2:	48 8d 05 cf 7b 00 00 	lea    0x7bcf(%rip),%rax        # 1e2b8 <g_583>
   166e9:	48 89 85 20 f9 ff ff 	mov    %rax,-0x6e0(%rbp)
   166f0:	48 8d 85 48 e0 ff ff 	lea    -0x1fb8(%rbp),%rax
   166f7:	48 89 85 28 f9 ff ff 	mov    %rax,-0x6d8(%rbp)
   166fe:	48 c7 85 30 f9 ff ff 	movq   $0x0,-0x6d0(%rbp)
   16705:	00 00 00 00 
   16709:	48 8d 05 a8 7b 00 00 	lea    0x7ba8(%rip),%rax        # 1e2b8 <g_583>
   16710:	48 89 85 38 f9 ff ff 	mov    %rax,-0x6c8(%rbp)
   16717:	48 8d 85 48 e0 ff ff 	lea    -0x1fb8(%rbp),%rax
   1671e:	48 89 85 40 f9 ff ff 	mov    %rax,-0x6c0(%rbp)
   16725:	48 8d 05 8c 7b 00 00 	lea    0x7b8c(%rip),%rax        # 1e2b8 <g_583>
   1672c:	48 89 85 48 f9 ff ff 	mov    %rax,-0x6b8(%rbp)
   16733:	48 c7 85 50 f9 ff ff 	movq   $0x0,-0x6b0(%rbp)
   1673a:	00 00 00 00 
   1673e:	48 8d 85 48 e0 ff ff 	lea    -0x1fb8(%rbp),%rax
   16745:	48 89 85 58 f9 ff ff 	mov    %rax,-0x6a8(%rbp)
   1674c:	48 8d 05 65 7b 00 00 	lea    0x7b65(%rip),%rax        # 1e2b8 <g_583>
   16753:	48 89 85 60 f9 ff ff 	mov    %rax,-0x6a0(%rbp)
   1675a:	48 8d 85 48 e0 ff ff 	lea    -0x1fb8(%rbp),%rax
   16761:	48 89 85 68 f9 ff ff 	mov    %rax,-0x698(%rbp)
   16768:	48 c7 85 70 f9 ff ff 	movq   $0x0,-0x690(%rbp)
   1676f:	00 00 00 00 
   16773:	48 8d 05 3e 7b 00 00 	lea    0x7b3e(%rip),%rax        # 1e2b8 <g_583>
   1677a:	48 89 85 78 f9 ff ff 	mov    %rax,-0x688(%rbp)
   16781:	48 8d 05 30 7b 00 00 	lea    0x7b30(%rip),%rax        # 1e2b8 <g_583>
   16788:	48 89 85 80 f9 ff ff 	mov    %rax,-0x680(%rbp)
   1678f:	48 8d 85 48 e0 ff ff 	lea    -0x1fb8(%rbp),%rax
   16796:	48 89 85 88 f9 ff ff 	mov    %rax,-0x678(%rbp)
   1679d:	48 c7 85 90 f9 ff ff 	movq   $0x0,-0x670(%rbp)
   167a4:	00 00 00 00 
   167a8:	48 8d 85 48 e0 ff ff 	lea    -0x1fb8(%rbp),%rax
   167af:	48 89 85 98 f9 ff ff 	mov    %rax,-0x668(%rbp)
   167b6:	48 8d 85 48 e0 ff ff 	lea    -0x1fb8(%rbp),%rax
   167bd:	48 89 85 a0 f9 ff ff 	mov    %rax,-0x660(%rbp)
   167c4:	48 8d 85 48 e0 ff ff 	lea    -0x1fb8(%rbp),%rax
   167cb:	48 89 85 a8 f9 ff ff 	mov    %rax,-0x658(%rbp)
   167d2:	48 c7 85 b0 f9 ff ff 	movq   $0x0,-0x650(%rbp)
   167d9:	00 00 00 00 
   167dd:	48 c7 85 b8 f9 ff ff 	movq   $0x0,-0x648(%rbp)
   167e4:	00 00 00 00 
   167e8:	48 c7 85 c0 f9 ff ff 	movq   $0x0,-0x640(%rbp)
   167ef:	00 00 00 00 
   167f3:	48 c7 85 c8 f9 ff ff 	movq   $0x0,-0x638(%rbp)
   167fa:	00 00 00 00 
   167fe:	48 8d 85 48 e0 ff ff 	lea    -0x1fb8(%rbp),%rax
   16805:	48 89 85 d0 f9 ff ff 	mov    %rax,-0x630(%rbp)
   1680c:	48 8d 85 48 e0 ff ff 	lea    -0x1fb8(%rbp),%rax
   16813:	48 89 85 d8 f9 ff ff 	mov    %rax,-0x628(%rbp)
   1681a:	48 c7 85 e0 f9 ff ff 	movq   $0x0,-0x620(%rbp)
   16821:	00 00 00 00 
   16825:	48 8d 85 48 e0 ff ff 	lea    -0x1fb8(%rbp),%rax
   1682c:	48 89 85 e8 f9 ff ff 	mov    %rax,-0x618(%rbp)
   16833:	48 8d 85 48 e0 ff ff 	lea    -0x1fb8(%rbp),%rax
   1683a:	48 89 85 f0 f9 ff ff 	mov    %rax,-0x610(%rbp)
   16841:	48 8d 85 48 e0 ff ff 	lea    -0x1fb8(%rbp),%rax
   16848:	48 89 85 f8 f9 ff ff 	mov    %rax,-0x608(%rbp)
   1684f:	48 8d 85 48 e0 ff ff 	lea    -0x1fb8(%rbp),%rax
   16856:	48 89 85 00 fa ff ff 	mov    %rax,-0x600(%rbp)
   1685d:	48 8d 85 48 e0 ff ff 	lea    -0x1fb8(%rbp),%rax
   16864:	48 89 85 08 fa ff ff 	mov    %rax,-0x5f8(%rbp)
   1686b:	48 8d 85 48 e0 ff ff 	lea    -0x1fb8(%rbp),%rax
   16872:	48 89 85 10 fa ff ff 	mov    %rax,-0x5f0(%rbp)
   16879:	48 c7 85 18 fa ff ff 	movq   $0x0,-0x5e8(%rbp)
   16880:	00 00 00 00 
   16884:	48 8d 85 48 e0 ff ff 	lea    -0x1fb8(%rbp),%rax
   1688b:	48 89 85 20 fa ff ff 	mov    %rax,-0x5e0(%rbp)
   16892:	48 c7 85 28 fa ff ff 	movq   $0x0,-0x5d8(%rbp)
   16899:	00 00 00 00 
   1689d:	48 8d 85 48 e0 ff ff 	lea    -0x1fb8(%rbp),%rax
   168a4:	48 89 85 30 fa ff ff 	mov    %rax,-0x5d0(%rbp)
   168ab:	48 8d 05 06 7a 00 00 	lea    0x7a06(%rip),%rax        # 1e2b8 <g_583>
   168b2:	48 89 85 38 fa ff ff 	mov    %rax,-0x5c8(%rbp)
   168b9:	48 8d 05 f8 79 00 00 	lea    0x79f8(%rip),%rax        # 1e2b8 <g_583>
   168c0:	48 89 85 40 fa ff ff 	mov    %rax,-0x5c0(%rbp)
   168c7:	48 8d 85 48 e0 ff ff 	lea    -0x1fb8(%rbp),%rax
   168ce:	48 89 85 48 fa ff ff 	mov    %rax,-0x5b8(%rbp)
   168d5:	48 c7 85 50 fa ff ff 	movq   $0x0,-0x5b0(%rbp)
   168dc:	00 00 00 00 
   168e0:	48 8d 85 48 e0 ff ff 	lea    -0x1fb8(%rbp),%rax
   168e7:	48 89 85 58 fa ff ff 	mov    %rax,-0x5a8(%rbp)
   168ee:	48 c7 85 60 fa ff ff 	movq   $0x0,-0x5a0(%rbp)
   168f5:	00 00 00 00 
   168f9:	48 8d 85 48 e0 ff ff 	lea    -0x1fb8(%rbp),%rax
   16900:	48 89 85 68 fa ff ff 	mov    %rax,-0x598(%rbp)
   16907:	48 8d 85 48 e0 ff ff 	lea    -0x1fb8(%rbp),%rax
   1690e:	48 89 85 70 fa ff ff 	mov    %rax,-0x590(%rbp)
   16915:	48 8d 85 48 e0 ff ff 	lea    -0x1fb8(%rbp),%rax
   1691c:	48 89 85 78 fa ff ff 	mov    %rax,-0x588(%rbp)
   16923:	48 8d 85 48 e0 ff ff 	lea    -0x1fb8(%rbp),%rax
   1692a:	48 89 85 80 fa ff ff 	mov    %rax,-0x580(%rbp)
   16931:	48 8d 85 48 e0 ff ff 	lea    -0x1fb8(%rbp),%rax
   16938:	48 89 85 88 fa ff ff 	mov    %rax,-0x578(%rbp)
   1693f:	48 8d 85 48 e0 ff ff 	lea    -0x1fb8(%rbp),%rax
   16946:	48 89 85 90 fa ff ff 	mov    %rax,-0x570(%rbp)
   1694d:	48 c7 85 98 fa ff ff 	movq   $0x0,-0x568(%rbp)
   16954:	00 00 00 00 
   16958:	48 8d 85 48 e0 ff ff 	lea    -0x1fb8(%rbp),%rax
   1695f:	48 89 85 a0 fa ff ff 	mov    %rax,-0x560(%rbp)
   16966:	48 8d 85 48 e0 ff ff 	lea    -0x1fb8(%rbp),%rax
   1696d:	48 89 85 a8 fa ff ff 	mov    %rax,-0x558(%rbp)
   16974:	48 c7 85 b0 fa ff ff 	movq   $0x0,-0x550(%rbp)
   1697b:	00 00 00 00 
   1697f:	48 c7 85 b8 fa ff ff 	movq   $0x0,-0x548(%rbp)
   16986:	00 00 00 00 
   1698a:	48 c7 85 c0 fa ff ff 	movq   $0x0,-0x540(%rbp)
   16991:	00 00 00 00 
   16995:	48 c7 85 c8 fa ff ff 	movq   $0x0,-0x538(%rbp)
   1699c:	00 00 00 00 
   169a0:	48 8d 85 48 e0 ff ff 	lea    -0x1fb8(%rbp),%rax
   169a7:	48 89 85 d0 fa ff ff 	mov    %rax,-0x530(%rbp)
   169ae:	48 8d 85 48 e0 ff ff 	lea    -0x1fb8(%rbp),%rax
   169b5:	48 89 85 d8 fa ff ff 	mov    %rax,-0x528(%rbp)
   169bc:	48 8d 85 48 e0 ff ff 	lea    -0x1fb8(%rbp),%rax
   169c3:	48 89 85 e0 fa ff ff 	mov    %rax,-0x520(%rbp)
   169ca:	48 c7 85 e8 fa ff ff 	movq   $0x0,-0x518(%rbp)
   169d1:	00 00 00 00 
   169d5:	48 8d 85 48 e0 ff ff 	lea    -0x1fb8(%rbp),%rax
   169dc:	48 89 85 f0 fa ff ff 	mov    %rax,-0x510(%rbp)
   169e3:	48 8d 05 ce 78 00 00 	lea    0x78ce(%rip),%rax        # 1e2b8 <g_583>
   169ea:	48 89 85 f8 fa ff ff 	mov    %rax,-0x508(%rbp)
   169f1:	48 8d 05 c0 78 00 00 	lea    0x78c0(%rip),%rax        # 1e2b8 <g_583>
   169f8:	48 89 85 00 fb ff ff 	mov    %rax,-0x500(%rbp)
   169ff:	48 c7 85 08 fb ff ff 	movq   $0x0,-0x4f8(%rbp)
   16a06:	00 00 00 00 
   16a0a:	48 8d 85 48 e0 ff ff 	lea    -0x1fb8(%rbp),%rax
   16a11:	48 89 85 10 fb ff ff 	mov    %rax,-0x4f0(%rbp)
   16a18:	48 8d 05 99 78 00 00 	lea    0x7899(%rip),%rax        # 1e2b8 <g_583>
   16a1f:	48 89 85 18 fb ff ff 	mov    %rax,-0x4e8(%rbp)
   16a26:	48 8d 85 48 e0 ff ff 	lea    -0x1fb8(%rbp),%rax
   16a2d:	48 89 85 20 fb ff ff 	mov    %rax,-0x4e0(%rbp)
   16a34:	48 c7 85 28 fb ff ff 	movq   $0x0,-0x4d8(%rbp)
   16a3b:	00 00 00 00 
   16a3f:	48 8d 05 72 78 00 00 	lea    0x7872(%rip),%rax        # 1e2b8 <g_583>
   16a46:	48 89 85 30 fb ff ff 	mov    %rax,-0x4d0(%rbp)
   16a4d:	48 8d 85 48 e0 ff ff 	lea    -0x1fb8(%rbp),%rax
   16a54:	48 89 85 38 fb ff ff 	mov    %rax,-0x4c8(%rbp)
   16a5b:	48 8d 05 56 78 00 00 	lea    0x7856(%rip),%rax        # 1e2b8 <g_583>
   16a62:	48 89 85 40 fb ff ff 	mov    %rax,-0x4c0(%rbp)
   16a69:	48 c7 85 48 fb ff ff 	movq   $0x0,-0x4b8(%rbp)
   16a70:	00 00 00 00 
   16a74:	48 8d 85 48 e0 ff ff 	lea    -0x1fb8(%rbp),%rax
   16a7b:	48 89 85 50 fb ff ff 	mov    %rax,-0x4b0(%rbp)
   16a82:	48 8d 05 2f 78 00 00 	lea    0x782f(%rip),%rax        # 1e2b8 <g_583>
   16a89:	48 89 85 58 fb ff ff 	mov    %rax,-0x4a8(%rbp)
   16a90:	48 8d 85 48 e0 ff ff 	lea    -0x1fb8(%rbp),%rax
   16a97:	48 89 85 60 fb ff ff 	mov    %rax,-0x4a0(%rbp)
   16a9e:	48 c7 85 68 fb ff ff 	movq   $0x0,-0x498(%rbp)
   16aa5:	00 00 00 00 
   16aa9:	48 8d 05 08 78 00 00 	lea    0x7808(%rip),%rax        # 1e2b8 <g_583>
   16ab0:	48 89 85 70 fb ff ff 	mov    %rax,-0x490(%rbp)
   16ab7:	48 8d 05 fa 77 00 00 	lea    0x77fa(%rip),%rax        # 1e2b8 <g_583>
   16abe:	48 89 85 78 fb ff ff 	mov    %rax,-0x488(%rbp)
   16ac5:	48 8d 85 48 e0 ff ff 	lea    -0x1fb8(%rbp),%rax
   16acc:	48 89 85 80 fb ff ff 	mov    %rax,-0x480(%rbp)
   16ad3:	48 c7 85 88 fb ff ff 	movq   $0x0,-0x478(%rbp)
   16ada:	00 00 00 00 
   16ade:	48 8d 85 48 e0 ff ff 	lea    -0x1fb8(%rbp),%rax
   16ae5:	48 89 85 90 fb ff ff 	mov    %rax,-0x470(%rbp)
   16aec:	48 8d 85 48 e0 ff ff 	lea    -0x1fb8(%rbp),%rax
   16af3:	48 89 85 98 fb ff ff 	mov    %rax,-0x468(%rbp)
   16afa:	48 8d 85 48 e0 ff ff 	lea    -0x1fb8(%rbp),%rax
   16b01:	48 89 85 a0 fb ff ff 	mov    %rax,-0x460(%rbp)
   16b08:	48 c7 85 a8 fb ff ff 	movq   $0x0,-0x458(%rbp)
   16b0f:	00 00 00 00 
   16b13:	48 c7 85 b0 fb ff ff 	movq   $0x0,-0x450(%rbp)
   16b1a:	00 00 00 00 
   16b1e:	48 c7 85 b8 fb ff ff 	movq   $0x0,-0x448(%rbp)
   16b25:	00 00 00 00 
   16b29:	48 c7 85 c0 fb ff ff 	movq   $0x0,-0x440(%rbp)
   16b30:	00 00 00 00 
   16b34:	48 8d 85 48 e0 ff ff 	lea    -0x1fb8(%rbp),%rax
   16b3b:	48 89 85 c8 fb ff ff 	mov    %rax,-0x438(%rbp)
   16b42:	48 8d 85 48 e0 ff ff 	lea    -0x1fb8(%rbp),%rax
   16b49:	48 89 85 d0 fb ff ff 	mov    %rax,-0x430(%rbp)
   16b50:	48 c7 85 d8 fb ff ff 	movq   $0x0,-0x428(%rbp)
   16b57:	00 00 00 00 
   16b5b:	48 8d 85 48 e0 ff ff 	lea    -0x1fb8(%rbp),%rax
   16b62:	48 89 85 e0 fb ff ff 	mov    %rax,-0x420(%rbp)
   16b69:	48 8d 85 48 e0 ff ff 	lea    -0x1fb8(%rbp),%rax
   16b70:	48 89 85 e8 fb ff ff 	mov    %rax,-0x418(%rbp)
   16b77:	48 8d 85 48 e0 ff ff 	lea    -0x1fb8(%rbp),%rax
   16b7e:	48 89 85 f0 fb ff ff 	mov    %rax,-0x410(%rbp)
   16b85:	48 8d 85 48 e0 ff ff 	lea    -0x1fb8(%rbp),%rax
   16b8c:	48 89 85 f8 fb ff ff 	mov    %rax,-0x408(%rbp)
   16b93:	48 8d 85 48 e0 ff ff 	lea    -0x1fb8(%rbp),%rax
   16b9a:	48 89 85 00 fc ff ff 	mov    %rax,-0x400(%rbp)
   16ba1:	48 8d 85 48 e0 ff ff 	lea    -0x1fb8(%rbp),%rax
   16ba8:	48 89 85 08 fc ff ff 	mov    %rax,-0x3f8(%rbp)
   16baf:	48 c7 85 10 fc ff ff 	movq   $0x0,-0x3f0(%rbp)
   16bb6:	00 00 00 00 
   16bba:	48 8d 85 48 e0 ff ff 	lea    -0x1fb8(%rbp),%rax
   16bc1:	48 89 85 18 fc ff ff 	mov    %rax,-0x3e8(%rbp)
   16bc8:	48 c7 85 20 fc ff ff 	movq   $0x0,-0x3e0(%rbp)
   16bcf:	00 00 00 00 
   16bd3:	48 8d 85 48 e0 ff ff 	lea    -0x1fb8(%rbp),%rax
   16bda:	48 89 85 28 fc ff ff 	mov    %rax,-0x3d8(%rbp)
   16be1:	48 8d 05 d0 76 00 00 	lea    0x76d0(%rip),%rax        # 1e2b8 <g_583>
   16be8:	48 89 85 30 fc ff ff 	mov    %rax,-0x3d0(%rbp)
   16bef:	48 8d 05 c2 76 00 00 	lea    0x76c2(%rip),%rax        # 1e2b8 <g_583>
   16bf6:	48 89 85 38 fc ff ff 	mov    %rax,-0x3c8(%rbp)
   16bfd:	48 8d 85 48 e0 ff ff 	lea    -0x1fb8(%rbp),%rax
   16c04:	48 89 85 40 fc ff ff 	mov    %rax,-0x3c0(%rbp)
   16c0b:	48 c7 85 48 fc ff ff 	movq   $0x0,-0x3b8(%rbp)
   16c12:	00 00 00 00 
   16c16:	48 8d 85 48 e0 ff ff 	lea    -0x1fb8(%rbp),%rax
   16c1d:	48 89 85 50 fc ff ff 	mov    %rax,-0x3b0(%rbp)
   16c24:	48 c7 85 58 fc ff ff 	movq   $0x0,-0x3a8(%rbp)
   16c2b:	00 00 00 00 
   16c2f:	48 8d 85 48 e0 ff ff 	lea    -0x1fb8(%rbp),%rax
   16c36:	48 89 85 60 fc ff ff 	mov    %rax,-0x3a0(%rbp)
   16c3d:	48 8d 85 48 e0 ff ff 	lea    -0x1fb8(%rbp),%rax
   16c44:	48 89 85 68 fc ff ff 	mov    %rax,-0x398(%rbp)
   16c4b:	48 8d 85 48 e0 ff ff 	lea    -0x1fb8(%rbp),%rax
   16c52:	48 89 85 70 fc ff ff 	mov    %rax,-0x390(%rbp)
   16c59:	48 8d 85 48 e0 ff ff 	lea    -0x1fb8(%rbp),%rax
   16c60:	48 89 85 78 fc ff ff 	mov    %rax,-0x388(%rbp)
   16c67:	48 8d 85 48 e0 ff ff 	lea    -0x1fb8(%rbp),%rax
   16c6e:	48 89 85 80 fc ff ff 	mov    %rax,-0x380(%rbp)
   16c75:	48 8d 85 48 e0 ff ff 	lea    -0x1fb8(%rbp),%rax
   16c7c:	48 89 85 88 fc ff ff 	mov    %rax,-0x378(%rbp)
   16c83:	48 c7 85 90 fc ff ff 	movq   $0x0,-0x370(%rbp)
   16c8a:	00 00 00 00 
   16c8e:	48 8d 85 48 e0 ff ff 	lea    -0x1fb8(%rbp),%rax
   16c95:	48 89 85 98 fc ff ff 	mov    %rax,-0x368(%rbp)
   16c9c:	48 8d 85 48 e0 ff ff 	lea    -0x1fb8(%rbp),%rax
   16ca3:	48 89 85 a0 fc ff ff 	mov    %rax,-0x360(%rbp)
   16caa:	48 c7 85 a8 fc ff ff 	movq   $0x0,-0x358(%rbp)
   16cb1:	00 00 00 00 
   16cb5:	48 c7 85 b0 fc ff ff 	movq   $0x0,-0x350(%rbp)
   16cbc:	00 00 00 00 
   16cc0:	48 c7 85 b8 fc ff ff 	movq   $0x0,-0x348(%rbp)
   16cc7:	00 00 00 00 
   16ccb:	48 c7 85 c0 fc ff ff 	movq   $0x0,-0x340(%rbp)
   16cd2:	00 00 00 00 
   16cd6:	48 8d 85 48 e0 ff ff 	lea    -0x1fb8(%rbp),%rax
   16cdd:	48 89 85 c8 fc ff ff 	mov    %rax,-0x338(%rbp)
   16ce4:	48 8d 85 48 e0 ff ff 	lea    -0x1fb8(%rbp),%rax
   16ceb:	48 89 85 d0 fc ff ff 	mov    %rax,-0x330(%rbp)
   16cf2:	48 8d 85 48 e0 ff ff 	lea    -0x1fb8(%rbp),%rax
   16cf9:	48 89 85 d8 fc ff ff 	mov    %rax,-0x328(%rbp)
   16d00:	48 c7 85 e0 fc ff ff 	movq   $0x0,-0x320(%rbp)
   16d07:	00 00 00 00 
   16d0b:	48 8d 85 48 e0 ff ff 	lea    -0x1fb8(%rbp),%rax
   16d12:	48 89 85 e8 fc ff ff 	mov    %rax,-0x318(%rbp)
   16d19:	48 8d 05 98 75 00 00 	lea    0x7598(%rip),%rax        # 1e2b8 <g_583>
   16d20:	48 89 85 f0 fc ff ff 	mov    %rax,-0x310(%rbp)
   16d27:	48 8d 05 8a 75 00 00 	lea    0x758a(%rip),%rax        # 1e2b8 <g_583>
   16d2e:	48 89 85 f8 fc ff ff 	mov    %rax,-0x308(%rbp)
   16d35:	48 c7 85 00 fd ff ff 	movq   $0x0,-0x300(%rbp)
   16d3c:	00 00 00 00 
   16d40:	48 8d 85 48 e0 ff ff 	lea    -0x1fb8(%rbp),%rax
   16d47:	48 89 85 08 fd ff ff 	mov    %rax,-0x2f8(%rbp)
   16d4e:	48 8d 05 63 75 00 00 	lea    0x7563(%rip),%rax        # 1e2b8 <g_583>
   16d55:	48 89 85 10 fd ff ff 	mov    %rax,-0x2f0(%rbp)
   16d5c:	48 8d 85 48 e0 ff ff 	lea    -0x1fb8(%rbp),%rax
   16d63:	48 89 85 18 fd ff ff 	mov    %rax,-0x2e8(%rbp)
   16d6a:	48 c7 85 20 fd ff ff 	movq   $0x0,-0x2e0(%rbp)
   16d71:	00 00 00 00 
   16d75:	48 8d 05 3c 75 00 00 	lea    0x753c(%rip),%rax        # 1e2b8 <g_583>
   16d7c:	48 89 85 28 fd ff ff 	mov    %rax,-0x2d8(%rbp)
   16d83:	48 8d 85 48 e0 ff ff 	lea    -0x1fb8(%rbp),%rax
   16d8a:	48 89 85 30 fd ff ff 	mov    %rax,-0x2d0(%rbp)
   16d91:	48 8d 05 20 75 00 00 	lea    0x7520(%rip),%rax        # 1e2b8 <g_583>
   16d98:	48 89 85 38 fd ff ff 	mov    %rax,-0x2c8(%rbp)
   16d9f:	48 c7 85 40 fd ff ff 	movq   $0x0,-0x2c0(%rbp)
   16da6:	00 00 00 00 
   16daa:	48 8d 85 48 e0 ff ff 	lea    -0x1fb8(%rbp),%rax
   16db1:	48 89 85 48 fd ff ff 	mov    %rax,-0x2b8(%rbp)
   16db8:	48 8d 05 f9 74 00 00 	lea    0x74f9(%rip),%rax        # 1e2b8 <g_583>
   16dbf:	48 89 85 50 fd ff ff 	mov    %rax,-0x2b0(%rbp)
   16dc6:	48 8d 85 48 e0 ff ff 	lea    -0x1fb8(%rbp),%rax
   16dcd:	48 89 85 58 fd ff ff 	mov    %rax,-0x2a8(%rbp)
   16dd4:	48 c7 85 60 fd ff ff 	movq   $0x0,-0x2a0(%rbp)
   16ddb:	00 00 00 00 
   16ddf:	48 8d 05 d2 74 00 00 	lea    0x74d2(%rip),%rax        # 1e2b8 <g_583>
   16de6:	48 89 85 68 fd ff ff 	mov    %rax,-0x298(%rbp)
   16ded:	48 8d 05 c4 74 00 00 	lea    0x74c4(%rip),%rax        # 1e2b8 <g_583>
   16df4:	48 89 85 70 fd ff ff 	mov    %rax,-0x290(%rbp)
   16dfb:	48 8d 85 48 e0 ff ff 	lea    -0x1fb8(%rbp),%rax
   16e02:	48 89 85 78 fd ff ff 	mov    %rax,-0x288(%rbp)
   16e09:	48 c7 85 80 fd ff ff 	movq   $0x0,-0x280(%rbp)
   16e10:	00 00 00 00 
   16e14:	48 8d 85 48 e0 ff ff 	lea    -0x1fb8(%rbp),%rax
   16e1b:	48 89 85 88 fd ff ff 	mov    %rax,-0x278(%rbp)
   16e22:	48 8d 85 48 e0 ff ff 	lea    -0x1fb8(%rbp),%rax
   16e29:	48 89 85 90 fd ff ff 	mov    %rax,-0x270(%rbp)
   16e30:	48 8d 85 48 e0 ff ff 	lea    -0x1fb8(%rbp),%rax
   16e37:	48 89 85 98 fd ff ff 	mov    %rax,-0x268(%rbp)
   16e3e:	48 c7 85 a0 fd ff ff 	movq   $0x0,-0x260(%rbp)
   16e45:	00 00 00 00 
   16e49:	48 c7 85 a8 fd ff ff 	movq   $0x0,-0x258(%rbp)
   16e50:	00 00 00 00 
   16e54:	48 c7 85 b0 fd ff ff 	movq   $0x0,-0x250(%rbp)
   16e5b:	00 00 00 00 
   16e5f:	48 c7 85 b8 fd ff ff 	movq   $0x0,-0x248(%rbp)
   16e66:	00 00 00 00 
   16e6a:	48 8d 85 48 e0 ff ff 	lea    -0x1fb8(%rbp),%rax
   16e71:	48 89 85 c0 fd ff ff 	mov    %rax,-0x240(%rbp)
   16e78:	48 8d 85 48 e0 ff ff 	lea    -0x1fb8(%rbp),%rax
   16e7f:	48 89 85 c8 fd ff ff 	mov    %rax,-0x238(%rbp)
   16e86:	48 c7 85 d0 fd ff ff 	movq   $0x0,-0x230(%rbp)
   16e8d:	00 00 00 00 
   16e91:	48 8d 85 48 e0 ff ff 	lea    -0x1fb8(%rbp),%rax
   16e98:	48 89 85 d8 fd ff ff 	mov    %rax,-0x228(%rbp)
   16e9f:	48 8d 85 48 e0 ff ff 	lea    -0x1fb8(%rbp),%rax
   16ea6:	48 89 85 e0 fd ff ff 	mov    %rax,-0x220(%rbp)
   16ead:	48 8d 85 48 e0 ff ff 	lea    -0x1fb8(%rbp),%rax
   16eb4:	48 89 85 e8 fd ff ff 	mov    %rax,-0x218(%rbp)
   16ebb:	48 8d 85 48 e0 ff ff 	lea    -0x1fb8(%rbp),%rax
   16ec2:	48 89 85 f0 fd ff ff 	mov    %rax,-0x210(%rbp)
   16ec9:	48 8d 85 48 e0 ff ff 	lea    -0x1fb8(%rbp),%rax
   16ed0:	48 89 85 f8 fd ff ff 	mov    %rax,-0x208(%rbp)
   16ed7:	48 8d 85 48 e0 ff ff 	lea    -0x1fb8(%rbp),%rax
   16ede:	48 89 85 00 fe ff ff 	mov    %rax,-0x200(%rbp)
   16ee5:	48 c7 85 08 fe ff ff 	movq   $0x0,-0x1f8(%rbp)
   16eec:	00 00 00 00 
   16ef0:	48 8d 85 48 e0 ff ff 	lea    -0x1fb8(%rbp),%rax
   16ef7:	48 89 85 10 fe ff ff 	mov    %rax,-0x1f0(%rbp)
   16efe:	48 c7 85 18 fe ff ff 	movq   $0x0,-0x1e8(%rbp)
   16f05:	00 00 00 00 
   16f09:	48 8d 85 48 e0 ff ff 	lea    -0x1fb8(%rbp),%rax
   16f10:	48 89 85 20 fe ff ff 	mov    %rax,-0x1e0(%rbp)
   16f17:	48 8d 05 9a 73 00 00 	lea    0x739a(%rip),%rax        # 1e2b8 <g_583>
   16f1e:	48 89 85 28 fe ff ff 	mov    %rax,-0x1d8(%rbp)
   16f25:	48 8d 05 8c 73 00 00 	lea    0x738c(%rip),%rax        # 1e2b8 <g_583>
   16f2c:	48 89 85 30 fe ff ff 	mov    %rax,-0x1d0(%rbp)
   16f33:	48 8d 85 48 e0 ff ff 	lea    -0x1fb8(%rbp),%rax
   16f3a:	48 89 85 38 fe ff ff 	mov    %rax,-0x1c8(%rbp)
   16f41:	48 c7 85 40 fe ff ff 	movq   $0x0,-0x1c0(%rbp)
   16f48:	00 00 00 00 
   16f4c:	48 8d 85 48 e0 ff ff 	lea    -0x1fb8(%rbp),%rax
   16f53:	48 89 85 48 fe ff ff 	mov    %rax,-0x1b8(%rbp)
   16f5a:	48 c7 85 50 fe ff ff 	movq   $0x0,-0x1b0(%rbp)
   16f61:	00 00 00 00 
   16f65:	48 8d 85 48 e0 ff ff 	lea    -0x1fb8(%rbp),%rax
   16f6c:	48 89 85 58 fe ff ff 	mov    %rax,-0x1a8(%rbp)
   16f73:	48 8d 85 48 e0 ff ff 	lea    -0x1fb8(%rbp),%rax
   16f7a:	48 89 85 60 fe ff ff 	mov    %rax,-0x1a0(%rbp)
   16f81:	48 8d 85 48 e0 ff ff 	lea    -0x1fb8(%rbp),%rax
   16f88:	48 89 85 68 fe ff ff 	mov    %rax,-0x198(%rbp)
   16f8f:	48 8d 85 48 e0 ff ff 	lea    -0x1fb8(%rbp),%rax
   16f96:	48 89 85 70 fe ff ff 	mov    %rax,-0x190(%rbp)
   16f9d:	48 8d 85 48 e0 ff ff 	lea    -0x1fb8(%rbp),%rax
   16fa4:	48 89 85 78 fe ff ff 	mov    %rax,-0x188(%rbp)
   16fab:	48 c7 85 80 fe ff ff 	movq   $0x0,-0x180(%rbp)
   16fb2:	00 00 00 00 
   16fb6:	48 c7 85 88 fe ff ff 	movq   $0x0,-0x178(%rbp)
   16fbd:	00 00 00 00 
   16fc1:	48 c7 85 90 fe ff ff 	movq   $0x0,-0x170(%rbp)
   16fc8:	00 00 00 00 
   16fcc:	48 8d 85 48 e0 ff ff 	lea    -0x1fb8(%rbp),%rax
   16fd3:	48 89 85 98 fe ff ff 	mov    %rax,-0x168(%rbp)
   16fda:	48 c7 85 a0 fe ff ff 	movq   $0x0,-0x160(%rbp)
   16fe1:	00 00 00 00 
   16fe5:	48 8d 85 48 e0 ff ff 	lea    -0x1fb8(%rbp),%rax
   16fec:	48 89 85 a8 fe ff ff 	mov    %rax,-0x158(%rbp)
   16ff3:	48 8d 85 48 e0 ff ff 	lea    -0x1fb8(%rbp),%rax
   16ffa:	48 89 85 b0 fe ff ff 	mov    %rax,-0x150(%rbp)
   17001:	48 c7 85 b8 fe ff ff 	movq   $0x0,-0x148(%rbp)
   17008:	00 00 00 00 
   1700c:	48 8d 85 48 e0 ff ff 	lea    -0x1fb8(%rbp),%rax
   17013:	48 89 85 c0 fe ff ff 	mov    %rax,-0x140(%rbp)
   1701a:	48 8d 05 97 72 00 00 	lea    0x7297(%rip),%rax        # 1e2b8 <g_583>
   17021:	48 89 85 c8 fe ff ff 	mov    %rax,-0x138(%rbp)
   17028:	48 8d 85 48 e0 ff ff 	lea    -0x1fb8(%rbp),%rax
   1702f:	48 89 85 d0 fe ff ff 	mov    %rax,-0x130(%rbp)
   17036:	48 c7 85 d8 fe ff ff 	movq   $0x0,-0x128(%rbp)
   1703d:	00 00 00 00 
   17041:	48 8d 05 70 72 00 00 	lea    0x7270(%rip),%rax        # 1e2b8 <g_583>
   17048:	48 89 85 e0 fe ff ff 	mov    %rax,-0x120(%rbp)
   1704f:	48 8d 85 48 e0 ff ff 	lea    -0x1fb8(%rbp),%rax
   17056:	48 89 85 e8 fe ff ff 	mov    %rax,-0x118(%rbp)
   1705d:	48 8d 85 48 e0 ff ff 	lea    -0x1fb8(%rbp),%rax
   17064:	48 89 85 f0 fe ff ff 	mov    %rax,-0x110(%rbp)
   1706b:	48 8d 85 48 e0 ff ff 	lea    -0x1fb8(%rbp),%rax
   17072:	48 89 85 f8 fe ff ff 	mov    %rax,-0x108(%rbp)
   17079:	48 8d 85 48 e0 ff ff 	lea    -0x1fb8(%rbp),%rax
   17080:	48 89 85 00 ff ff ff 	mov    %rax,-0x100(%rbp)
   17087:	48 8d 85 48 e0 ff ff 	lea    -0x1fb8(%rbp),%rax
   1708e:	48 89 85 08 ff ff ff 	mov    %rax,-0xf8(%rbp)
   17095:	48 8d 85 48 e0 ff ff 	lea    -0x1fb8(%rbp),%rax
   1709c:	48 89 85 10 ff ff ff 	mov    %rax,-0xf0(%rbp)
   170a3:	48 8d 85 48 e0 ff ff 	lea    -0x1fb8(%rbp),%rax
   170aa:	48 89 85 18 ff ff ff 	mov    %rax,-0xe8(%rbp)
   170b1:	48 8d 85 48 e0 ff ff 	lea    -0x1fb8(%rbp),%rax
   170b8:	48 89 85 20 ff ff ff 	mov    %rax,-0xe0(%rbp)
   170bf:	48 c7 85 28 ff ff ff 	movq   $0x0,-0xd8(%rbp)
   170c6:	00 00 00 00 
   170ca:	48 8d 85 48 e0 ff ff 	lea    -0x1fb8(%rbp),%rax
   170d1:	48 89 85 30 ff ff ff 	mov    %rax,-0xd0(%rbp)
   170d8:	48 8d 85 48 e0 ff ff 	lea    -0x1fb8(%rbp),%rax
   170df:	48 89 85 38 ff ff ff 	mov    %rax,-0xc8(%rbp)
   170e6:	48 8d 85 48 e0 ff ff 	lea    -0x1fb8(%rbp),%rax
   170ed:	48 89 85 40 ff ff ff 	mov    %rax,-0xc0(%rbp)
   170f4:	48 8d 85 48 e0 ff ff 	lea    -0x1fb8(%rbp),%rax
   170fb:	48 89 85 48 ff ff ff 	mov    %rax,-0xb8(%rbp)
   17102:	48 8d 85 48 e0 ff ff 	lea    -0x1fb8(%rbp),%rax
   17109:	48 89 85 50 ff ff ff 	mov    %rax,-0xb0(%rbp)
   17110:	48 8d 85 48 e0 ff ff 	lea    -0x1fb8(%rbp),%rax
   17117:	48 89 85 58 ff ff ff 	mov    %rax,-0xa8(%rbp)
   1711e:	48 8d 85 48 e0 ff ff 	lea    -0x1fb8(%rbp),%rax
   17125:	48 89 85 60 ff ff ff 	mov    %rax,-0xa0(%rbp)
   1712c:	48 8d 85 48 e0 ff ff 	lea    -0x1fb8(%rbp),%rax
   17133:	48 89 85 68 ff ff ff 	mov    %rax,-0x98(%rbp)
   1713a:	48 8d 05 77 71 00 00 	lea    0x7177(%rip),%rax        # 1e2b8 <g_583>
   17141:	48 89 85 70 ff ff ff 	mov    %rax,-0x90(%rbp)
   17148:	48 c7 85 78 ff ff ff 	movq   $0x0,-0x88(%rbp)
   1714f:	00 00 00 00 
   17153:	48 8d 85 48 e0 ff ff 	lea    -0x1fb8(%rbp),%rax
   1715a:	48 89 45 80          	mov    %rax,-0x80(%rbp)
   1715e:	48 8d 05 53 71 00 00 	lea    0x7153(%rip),%rax        # 1e2b8 <g_583>
   17165:	48 89 45 88          	mov    %rax,-0x78(%rbp)
   17169:	48 8d 85 48 e0 ff ff 	lea    -0x1fb8(%rbp),%rax
   17170:	48 89 45 90          	mov    %rax,-0x70(%rbp)
   17174:	48 8d 05 75 71 00 00 	lea    0x7175(%rip),%rax        # 1e2f0 <g_809+0x10>
   1717b:	48 89 85 a8 e0 ff ff 	mov    %rax,-0x1f58(%rbp)
   17182:	48 8d 05 df 86 00 00 	lea    0x86df(%rip),%rax        # 1f868 <g_990+0x28>
   17189:	48 89 85 58 e0 ff ff 	mov    %rax,-0x1fa8(%rbp)
   17190:	48 8d 85 58 e0 ff ff 	lea    -0x1fa8(%rbp),%rax
   17197:	48 89 85 b0 e0 ff ff 	mov    %rax,-0x1f50(%rbp)
   1719e:	c7 85 8c df ff ff ff 	movl   $0xffffffff,-0x2074(%rbp)
   171a5:	ff ff ff 
   171a8:	0f b6 05 79 71 00 00 	movzbl 0x7179(%rip),%eax        # 1e328 <g_1151>
   171af:	0f be c0             	movsbl %al,%eax
   171b2:	48 98                	cltq   
   171b4:	8b 84 85 4c e2 ff ff 	mov    -0x1db4(%rbp,%rax,4),%eax
   171bb:	0f b7 c0             	movzwl %ax,%eax
   171be:	89 c7                	mov    %eax,%edi
   171c0:	e8 24 fb fe ff       	callq  6ce9 <safe_unary_minus_func_uint16_t_u>
   171c5:	0f b6 15 5c 71 00 00 	movzbl 0x715c(%rip),%edx        # 1e328 <g_1151>
   171cc:	0f be ca             	movsbl %dl,%ecx
   171cf:	0f b7 d0             	movzwl %ax,%edx
   171d2:	48 63 c1             	movslq %ecx,%rax
   171d5:	89 94 85 4c e2 ff ff 	mov    %edx,-0x1db4(%rbp,%rax,4)
   171dc:	48 83 85 98 e0 ff ff 	addq   $0x1,-0x1f68(%rbp)
   171e3:	01 
   171e4:	0f b6 85 18 df ff ff 	movzbl -0x20e8(%rbp),%eax
   171eb:	84 c0                	test   %al,%al
   171ed:	0f 85 94 00 00 00    	jne    17287 <func_44+0x6289>
   171f3:	8b 85 50 e0 ff ff    	mov    -0x1fb0(%rbp),%eax
   171f9:	41 89 c4             	mov    %eax,%r12d
   171fc:	48 8b 8d d8 f9 ff ff 	mov    -0x628(%rbp),%rcx
   17203:	48 8b 95 f8 df ff ff 	mov    -0x2008(%rbp),%rdx
   1720a:	48 8b 85 80 e0 ff ff 	mov    -0x1f80(%rbp),%rax
   17211:	48 8b 00             	mov    (%rax),%rax
   17214:	48 8b 12             	mov    (%rdx),%rdx
   17217:	48 89 10             	mov    %rdx,(%rax)
   1721a:	48 8b 00             	mov    (%rax),%rax
   1721d:	48 39 c1             	cmp    %rax,%rcx
   17220:	0f 94 c0             	sete   %al
   17223:	0f b6 d8             	movzbl %al,%ebx
   17226:	48 8b 85 68 e0 ff ff 	mov    -0x1f98(%rbp),%rax
   1722d:	48 8b 00             	mov    (%rax),%rax
   17230:	0f b6 10             	movzbl (%rax),%edx
   17233:	8d 4a 01             	lea    0x1(%rdx),%ecx
   17236:	88 08                	mov    %cl,(%rax)
   17238:	89 d0                	mov    %edx,%eax
   1723a:	0f be c0             	movsbl %al,%eax
   1723d:	48 8b 95 38 df ff ff 	mov    -0x20c8(%rbp),%rdx
   17244:	0f b6 12             	movzbl (%rdx),%edx
   17247:	0f be d2             	movsbl %dl,%edx
   1724a:	83 e2 01             	and    $0x1,%edx
   1724d:	89 c6                	mov    %eax,%esi
   1724f:	89 d7                	mov    %edx,%edi
   17251:	e8 14 f0 fe ff       	callq  626a <safe_div_func_int8_t_s_s>
   17256:	0f be c0             	movsbl %al,%eax
   17259:	39 c3                	cmp    %eax,%ebx
   1725b:	48 8b 85 a8 e0 ff ff 	mov    -0x1f58(%rbp),%rax
   17262:	8b 00                	mov    (%rax),%eax
   17264:	8d 50 ff             	lea    -0x1(%rax),%edx
   17267:	48 8b 85 a8 e0 ff ff 	mov    -0x1f58(%rbp),%rax
   1726e:	89 10                	mov    %edx,(%rax)
   17270:	8b 85 50 e0 ff ff    	mov    -0x1fb0(%rbp),%eax
   17276:	0f be c0             	movsbl %al,%eax
   17279:	44 89 e6             	mov    %r12d,%esi
   1727c:	89 c7                	mov    %eax,%edi
   1727e:	e8 1e f0 fe ff       	callq  62a1 <safe_lshift_func_int8_t_s_s>
   17283:	84 c0                	test   %al,%al
   17285:	74 07                	je     1728e <func_44+0x6290>
   17287:	ba 01 00 00 00       	mov    $0x1,%edx
   1728c:	eb 05                	jmp    17293 <func_44+0x6295>
   1728e:	ba 00 00 00 00       	mov    $0x0,%edx
   17293:	0f b6 05 8e 70 00 00 	movzbl 0x708e(%rip),%eax        # 1e328 <g_1151>
   1729a:	0f be c0             	movsbl %al,%eax
   1729d:	48 98                	cltq   
   1729f:	8b 84 85 4c e2 ff ff 	mov    -0x1db4(%rbp,%rax,4),%eax
   172a6:	39 c2                	cmp    %eax,%edx
   172a8:	0f 9e c0             	setle  %al
   172ab:	0f b6 c0             	movzbl %al,%eax
   172ae:	09 85 64 df ff ff    	or     %eax,-0x209c(%rbp)
   172b4:	0f b6 05 6d 70 00 00 	movzbl 0x706d(%rip),%eax        # 1e328 <g_1151>
   172bb:	0f be c0             	movsbl %al,%eax
   172be:	48 98                	cltq   
   172c0:	8b 84 85 4c e2 ff ff 	mov    -0x1db4(%rbp,%rax,4),%eax
   172c7:	85 c0                	test   %eax,%eax
   172c9:	0f b6 85 18 df ff ff 	movzbl -0x20e8(%rbp),%eax
   172d0:	3c 05                	cmp    $0x5,%al
   172d2:	0f 9e c2             	setle  %dl
   172d5:	48 8b 05 4c 85 00 00 	mov    0x854c(%rip),%rax        # 1f828 <g_840>
   172dc:	0f b6 d2             	movzbl %dl,%edx
   172df:	89 10                	mov    %edx,(%rax)
   172e1:	48 8b 85 a8 e0 ff ff 	mov    -0x1f58(%rbp),%rax
   172e8:	8b 00                	mov    (%rax),%eax
   172ea:	8d 50 ff             	lea    -0x1(%rax),%edx
   172ed:	48 8b 85 a8 e0 ff ff 	mov    -0x1f58(%rbp),%rax
   172f4:	89 10                	mov    %edx,(%rax)
   172f6:	48 8b 85 a8 e0 ff ff 	mov    -0x1f58(%rbp),%rax
   172fd:	8b 18                	mov    (%rax),%ebx
   172ff:	48 8b 85 90 e0 ff ff 	mov    -0x1f70(%rbp),%rax
   17306:	48 8d 15 d3 83 00 00 	lea    0x83d3(%rip),%rdx        # 1f6e0 <g_320+0x40>
   1730d:	48 89 10             	mov    %rdx,(%rax)
   17310:	48 8b 85 90 e0 ff ff 	mov    -0x1f70(%rbp),%rax
   17317:	48 8b 00             	mov    (%rax),%rax
   1731a:	48 8d 15 bf 83 00 00 	lea    0x83bf(%rip),%rdx        # 1f6e0 <g_320+0x40>
   17321:	48 39 d0             	cmp    %rdx,%rax
   17324:	0f 95 c0             	setne  %al
   17327:	0f b6 c0             	movzbl %al,%eax
   1732a:	be 0a 00 00 00       	mov    $0xa,%esi
   1732f:	89 c7                	mov    %eax,%edi
   17331:	e8 5c f1 fe ff       	callq  6492 <safe_lshift_func_int16_t_s_s>
   17336:	0f b6 05 eb 6f 00 00 	movzbl 0x6feb(%rip),%eax        # 1e328 <g_1151>
   1733d:	0f be c0             	movsbl %al,%eax
   17340:	48 63 d0             	movslq %eax,%rdx
   17343:	c7 84 95 4c e2 ff ff 	movl   $0xffffffff,-0x1db4(%rbp,%rdx,4)
   1734a:	ff ff ff ff 
   1734e:	48 98                	cltq   
   17350:	8b 84 85 4c e2 ff ff 	mov    -0x1db4(%rbp,%rax,4),%eax
   17357:	0f be c0             	movsbl %al,%eax
   1735a:	89 c6                	mov    %eax,%esi
   1735c:	bf 71 00 00 00       	mov    $0x71,%edi
   17361:	e8 6e ee fe ff       	callq  61d4 <safe_add_func_int8_t_s_s>
   17366:	0f be c0             	movsbl %al,%eax
   17369:	89 de                	mov    %ebx,%esi
   1736b:	89 c7                	mov    %eax,%edi
   1736d:	e8 8b fb fe ff       	callq  6efd <safe_mod_func_uint32_t_u_u>
   17372:	41 89 c6             	mov    %eax,%r14d
   17375:	8b 85 34 df ff ff    	mov    -0x20cc(%rbp),%eax
   1737b:	0f b7 d8             	movzwl %ax,%ebx
   1737e:	48 8b 85 38 df ff ff 	mov    -0x20c8(%rbp),%rax
   17385:	0f b6 00             	movzbl (%rax),%eax
   17388:	44 0f b6 e0          	movzbl %al,%r12d
   1738c:	0f b6 85 18 df ff ff 	movzbl -0x20e8(%rbp),%eax
   17393:	66 98                	cbtw   
   17395:	44 0f b7 e8          	movzwl %ax,%r13d
   17399:	8b 85 34 df ff ff    	mov    -0x20cc(%rbp),%eax
   1739f:	0f be c0             	movsbl %al,%eax
   173a2:	89 c6                	mov    %eax,%esi
   173a4:	bf 89 ff ff ff       	mov    $0xffffff89,%edi
   173a9:	e8 44 ee fe ff       	callq  61f2 <safe_sub_func_int8_t_s_s>
   173ae:	66 98                	cbtw   
   173b0:	0f b7 c0             	movzwl %ax,%eax
   173b3:	44 89 ee             	mov    %r13d,%esi
   173b6:	89 c7                	mov    %eax,%edi
   173b8:	e8 9f f9 fe ff       	callq  6d5c <safe_mod_func_uint16_t_u_u>
   173bd:	44 89 e6             	mov    %r12d,%esi
   173c0:	bf 01 00 00 00       	mov    $0x1,%edi
   173c5:	e8 c9 f7 fe ff       	callq  6b93 <safe_mul_func_uint8_t_u_u>
   173ca:	48 8b 85 b0 e0 ff ff 	mov    -0x1f50(%rbp),%rax
   173d1:	48 3b 85 60 e0 ff ff 	cmp    -0x1fa0(%rbp),%rax
   173d8:	0f 95 c0             	setne  %al
   173db:	0f b6 c0             	movzbl %al,%eax
   173de:	89 c6                	mov    %eax,%esi
   173e0:	bf d3 64 00 00       	mov    $0x64d3,%edi
   173e5:	e8 79 f1 fe ff       	callq  6563 <safe_rshift_func_int16_t_s_u>
   173ea:	98                   	cwtl   
   173eb:	be fb ff ff ff       	mov    $0xfffffffb,%esi
   173f0:	89 c7                	mov    %eax,%edi
   173f2:	e8 bc ef fe ff       	callq  63b3 <safe_add_func_int16_t_s_s>
   173f7:	66 85 c0             	test   %ax,%ax
   173fa:	78 07                	js     17403 <func_44+0x6405>
   173fc:	b8 01 00 00 00       	mov    $0x1,%eax
   17401:	eb 05                	jmp    17408 <func_44+0x640a>
   17403:	b8 00 00 00 00       	mov    $0x0,%eax
   17408:	89 de                	mov    %ebx,%esi
   1740a:	89 c7                	mov    %eax,%edi
   1740c:	e8 4b f9 fe ff       	callq  6d5c <safe_mod_func_uint16_t_u_u>
   17411:	44 21 f0             	and    %r14d,%eax
   17414:	0f be c0             	movsbl %al,%eax
   17417:	89 c7                	mov    %eax,%edi
   17419:	e8 a1 ed fe ff       	callq  61bf <safe_unary_minus_func_int8_t_s>
   1741e:	66 98                	cbtw   
   17420:	0f b7 c0             	movzwl %ax,%eax
   17423:	be 01 00 00 00       	mov    $0x1,%esi
   17428:	89 c7                	mov    %eax,%edi
   1742a:	e8 f0 f8 fe ff       	callq  6d1f <safe_sub_func_uint16_t_u_u>
   1742f:	48 8b 05 f2 83 00 00 	mov    0x83f2(%rip),%rax        # 1f828 <g_840>
   17436:	c7 00 01 00 00 00    	movl   $0x1,(%rax)
   1743c:	be 00 00 00 00       	mov    $0x0,%esi
   17441:	bf fb 42 00 00       	mov    $0x42fb,%edi
   17446:	e8 88 ef fe ff       	callq  63d3 <safe_sub_func_int16_t_s_s>
   1744b:	89 c2                	mov    %eax,%edx
   1744d:	48 8b 05 3c 83 00 00 	mov    0x833c(%rip),%rax        # 1f790 <g_554>
   17454:	48 8b 00             	mov    (%rax),%rax
   17457:	0f bf d2             	movswl %dx,%edx
   1745a:	89 10                	mov    %edx,(%rax)
   1745c:	0f b6 05 c5 6e 00 00 	movzbl 0x6ec5(%rip),%eax        # 1e328 <g_1151>
   17463:	83 c0 01             	add    $0x1,%eax
   17466:	88 05 bc 6e 00 00    	mov    %al,0x6ebc(%rip)        # 1e328 <g_1151>
   1746c:	0f b6 05 b5 6e 00 00 	movzbl 0x6eb5(%rip),%eax        # 1e328 <g_1151>
   17473:	84 c0                	test   %al,%al
   17475:	0f 8e 80 f0 ff ff    	jle    164fb <func_44+0x54fd>
   1747b:	0f b6 05 1e 6e 00 00 	movzbl 0x6e1e(%rip),%eax        # 1e2a0 <g_446>
   17482:	83 c0 01             	add    $0x1,%eax
   17485:	88 05 15 6e 00 00    	mov    %al,0x6e15(%rip)        # 1e2a0 <g_446>
   1748b:	0f b6 05 0e 6e 00 00 	movzbl 0x6e0e(%rip),%eax        # 1e2a0 <g_446>
   17492:	3c 01                	cmp    $0x1,%al
   17494:	0f 8e 0f f0 ff ff    	jle    164a9 <func_44+0x54ab>
   1749a:	48 8b 05 0f 98 00 00 	mov    0x980f(%rip),%rax        # 20cb0 <g_1260>
   174a1:	48 8b 5d c8          	mov    -0x38(%rbp),%rbx
   174a5:	64 48 33 1c 25 28 00 	xor    %fs:0x28,%rbx
   174ac:	00 00 
   174ae:	74 05                	je     174b5 <func_44+0x64b7>
   174b0:	e8 bb eb fe ff       	callq  6070 <__stack_chk_fail@plt>
   174b5:	48 81 c4 c8 20 00 00 	add    $0x20c8,%rsp
   174bc:	5b                   	pop    %rbx
   174bd:	41 5c                	pop    %r12
   174bf:	41 5d                	pop    %r13
   174c1:	41 5e                	pop    %r14
   174c3:	41 5f                	pop    %r15
   174c5:	5d                   	pop    %rbp
   174c6:	c3                   	retq   

00000000000174c7 <func_55>:
   174c7:	f3 0f 1e fa          	endbr64 
   174cb:	55                   	push   %rbp
   174cc:	48 89 e5             	mov    %rsp,%rbp
   174cf:	41 56                	push   %r14
   174d1:	41 55                	push   %r13
   174d3:	41 54                	push   %r12
   174d5:	53                   	push   %rbx
   174d6:	48 81 ec 20 07 00 00 	sub    $0x720,%rsp
   174dd:	48 89 bd d8 f8 ff ff 	mov    %rdi,-0x728(%rbp)
   174e4:	89 d0                	mov    %edx,%eax
   174e6:	48 89 8d c8 f8 ff ff 	mov    %rcx,-0x738(%rbp)
   174ed:	4c 89 85 c0 f8 ff ff 	mov    %r8,-0x740(%rbp)
   174f4:	89 f2                	mov    %esi,%edx
   174f6:	88 95 d4 f8 ff ff    	mov    %dl,-0x72c(%rbp)
   174fc:	66 89 85 d0 f8 ff ff 	mov    %ax,-0x730(%rbp)
   17503:	64 48 8b 04 25 28 00 	mov    %fs:0x28,%rax
   1750a:	00 00 
   1750c:	48 89 45 d8          	mov    %rax,-0x28(%rbp)
   17510:	31 c0                	xor    %eax,%eax
   17512:	48 8d 05 23 6b 00 00 	lea    0x6b23(%rip),%rax        # 1e03c <g_71+0xc>
   17519:	48 89 85 50 f9 ff ff 	mov    %rax,-0x6b0(%rbp)
   17520:	48 8d 85 50 f9 ff ff 	lea    -0x6b0(%rbp),%rax
   17527:	48 89 85 58 f9 ff ff 	mov    %rax,-0x6a8(%rbp)
   1752e:	48 c7 85 60 f9 ff ff 	movq   $0x0,-0x6a0(%rbp)
   17535:	00 00 00 00 
   17539:	c7 85 60 f9 ff ff fb 	movl   $0xfffffffb,-0x6a0(%rbp)
   17540:	ff ff ff 
   17543:	48 b8 19 cd 8f 21 90 	movabs $0xa473f190218fcd19,%rax
   1754a:	f1 73 a4 
   1754d:	48 89 85 b0 f9 ff ff 	mov    %rax,-0x650(%rbp)
   17554:	c6 85 e8 f8 ff ff 00 	movb   $0x0,-0x718(%rbp)
   1755b:	48 c7 85 b8 f9 ff ff 	movq   $0x9,-0x648(%rbp)
   17562:	09 00 00 00 
   17566:	48 8d 85 e8 f8 ff ff 	lea    -0x718(%rbp),%rax
   1756d:	48 89 85 68 f9 ff ff 	mov    %rax,-0x698(%rbp)
   17574:	48 8d 85 68 f9 ff ff 	lea    -0x698(%rbp),%rax
   1757b:	48 89 85 70 f9 ff ff 	mov    %rax,-0x690(%rbp)
   17582:	48 8d 85 70 f9 ff ff 	lea    -0x690(%rbp),%rax
   17589:	48 89 85 78 f9 ff ff 	mov    %rax,-0x688(%rbp)
   17590:	48 c7 85 10 fb ff ff 	movq   $0x0,-0x4f0(%rbp)
   17597:	00 00 00 00 
   1759b:	48 c7 85 18 fb ff ff 	movq   $0x0,-0x4e8(%rbp)
   175a2:	00 00 00 00 
   175a6:	48 c7 85 20 fb ff ff 	movq   $0x0,-0x4e0(%rbp)
   175ad:	00 00 00 00 
   175b1:	48 c7 85 28 fb ff ff 	movq   $0x0,-0x4d8(%rbp)
   175b8:	00 00 00 00 
   175bc:	48 c7 85 30 fb ff ff 	movq   $0x0,-0x4d0(%rbp)
   175c3:	00 00 00 00 
   175c7:	c6 85 10 fb ff ff 17 	movb   $0x17,-0x4f0(%rbp)
   175ce:	c6 85 18 fb ff ff 17 	movb   $0x17,-0x4e8(%rbp)
   175d5:	c6 85 20 fb ff ff 17 	movb   $0x17,-0x4e0(%rbp)
   175dc:	c6 85 28 fb ff ff 17 	movb   $0x17,-0x4d8(%rbp)
   175e3:	c6 85 30 fb ff ff 17 	movb   $0x17,-0x4d0(%rbp)
   175ea:	48 c7 85 80 f9 ff ff 	movq   $0x0,-0x680(%rbp)
   175f1:	00 00 00 00 
   175f5:	c7 85 80 f9 ff ff ff 	movl   $0xffffffff,-0x680(%rbp)
   175fc:	ff ff ff 
   175ff:	c7 85 1c f9 ff ff 63 	movl   $0x228d5863,-0x6e4(%rbp)
   17606:	58 8d 22 
   17609:	66 c7 85 a0 fb ff ff 	movw   $0xda60,-0x460(%rbp)
   17610:	60 da 
   17612:	66 c7 85 a2 fb ff ff 	movw   $0xda60,-0x45e(%rbp)
   17619:	60 da 
   1761b:	66 c7 85 a4 fb ff ff 	movw   $0x9e6c,-0x45c(%rbp)
   17622:	6c 9e 
   17624:	66 c7 85 a6 fb ff ff 	movw   $0xda60,-0x45a(%rbp)
   1762b:	60 da 
   1762d:	66 c7 85 a8 fb ff ff 	movw   $0xda60,-0x458(%rbp)
   17634:	60 da 
   17636:	66 c7 85 aa fb ff ff 	movw   $0x9e6c,-0x456(%rbp)
   1763d:	6c 9e 
   1763f:	66 c7 85 ac fb ff ff 	movw   $0xda60,-0x454(%rbp)
   17646:	60 da 
   17648:	66 c7 85 ae fb ff ff 	movw   $0xda60,-0x452(%rbp)
   1764f:	60 da 
   17651:	66 c7 85 b0 fb ff ff 	movw   $0x9e6c,-0x450(%rbp)
   17658:	6c 9e 
   1765a:	66 c7 85 b2 fb ff ff 	movw   $0xda60,-0x44e(%rbp)
   17661:	60 da 
   17663:	66 c7 85 b4 fb ff ff 	movw   $0xda60,-0x44c(%rbp)
   1766a:	60 da 
   1766c:	66 c7 85 b6 fb ff ff 	movw   $0x9e6c,-0x44a(%rbp)
   17673:	6c 9e 
   17675:	66 c7 85 b8 fb ff ff 	movw   $0xda60,-0x448(%rbp)
   1767c:	60 da 
   1767e:	66 c7 85 ba fb ff ff 	movw   $0xda60,-0x446(%rbp)
   17685:	60 da 
   17687:	66 c7 85 bc fb ff ff 	movw   $0x9e6c,-0x444(%rbp)
   1768e:	6c 9e 
   17690:	66 c7 85 be fb ff ff 	movw   $0xda60,-0x442(%rbp)
   17697:	60 da 
   17699:	66 c7 85 c0 fb ff ff 	movw   $0xda60,-0x440(%rbp)
   176a0:	60 da 
   176a2:	66 c7 85 c2 fb ff ff 	movw   $0x9e6c,-0x43e(%rbp)
   176a9:	6c 9e 
   176ab:	66 c7 85 c4 fb ff ff 	movw   $0xda60,-0x43c(%rbp)
   176b2:	60 da 
   176b4:	66 c7 85 c6 fb ff ff 	movw   $0xda60,-0x43a(%rbp)
   176bb:	60 da 
   176bd:	66 c7 85 c8 fb ff ff 	movw   $0x9e6c,-0x438(%rbp)
   176c4:	6c 9e 
   176c6:	66 c7 85 ca fb ff ff 	movw   $0xda60,-0x436(%rbp)
   176cd:	60 da 
   176cf:	66 c7 85 cc fb ff ff 	movw   $0xda60,-0x434(%rbp)
   176d6:	60 da 
   176d8:	66 c7 85 ce fb ff ff 	movw   $0x9e6c,-0x432(%rbp)
   176df:	6c 9e 
   176e1:	c7 85 f8 f8 ff ff 66 	movl   $0xe7118666,-0x708(%rbp)
   176e8:	86 11 e7 
   176eb:	c6 85 ea f8 ff ff d0 	movb   $0xd0,-0x716(%rbp)
   176f2:	48 b8 75 e0 86 25 39 	movabs $0x360923392586e075,%rax
   176f9:	23 09 36 
   176fc:	48 89 85 c0 f9 ff ff 	mov    %rax,-0x640(%rbp)
   17703:	c7 85 f4 f8 ff ff ff 	movl   $0xffffffff,-0x70c(%rbp)
   1770a:	ff ff ff 
   1770d:	c7 85 fc f8 ff ff 00 	movl   $0x0,-0x704(%rbp)
   17714:	00 00 00 
   17717:	eb 1a                	jmp    17733 <func_55+0x26c>
   17719:	8b 85 fc f8 ff ff    	mov    -0x704(%rbp),%eax
   1771f:	48 98                	cltq   
   17721:	c7 84 85 f4 fa ff ff 	movl   $0xffffffff,-0x50c(%rbp,%rax,4)
   17728:	ff ff ff ff 
   1772c:	83 85 fc f8 ff ff 01 	addl   $0x1,-0x704(%rbp)
   17733:	83 bd fc f8 ff ff 02 	cmpl   $0x2,-0x704(%rbp)
   1773a:	7e dd                	jle    17719 <func_55+0x252>
   1773c:	c7 85 fc f8 ff ff 00 	movl   $0x0,-0x704(%rbp)
   17743:	00 00 00 
   17746:	eb 4f                	jmp    17797 <func_55+0x2d0>
   17748:	c7 85 00 f9 ff ff 00 	movl   $0x0,-0x700(%rbp)
   1774f:	00 00 00 
   17752:	eb 33                	jmp    17787 <func_55+0x2c0>
   17754:	8b 85 00 f9 ff ff    	mov    -0x700(%rbp),%eax
   1775a:	48 63 c8             	movslq %eax,%rcx
   1775d:	8b 85 fc f8 ff ff    	mov    -0x704(%rbp),%eax
   17763:	48 63 d0             	movslq %eax,%rdx
   17766:	48 89 d0             	mov    %rdx,%rax
   17769:	48 c1 e0 02          	shl    $0x2,%rax
   1776d:	48 01 d0             	add    %rdx,%rax
   17770:	48 01 c0             	add    %rax,%rax
   17773:	48 01 c8             	add    %rcx,%rax
   17776:	66 c7 84 45 40 fb ff 	movw   $0xd04f,-0x4c0(%rbp,%rax,2)
   1777d:	ff 4f d0 
   17780:	83 85 00 f9 ff ff 01 	addl   $0x1,-0x700(%rbp)
   17787:	83 bd 00 f9 ff ff 09 	cmpl   $0x9,-0x700(%rbp)
   1778e:	7e c4                	jle    17754 <func_55+0x28d>
   17790:	83 85 fc f8 ff ff 01 	addl   $0x1,-0x704(%rbp)
   17797:	83 bd fc f8 ff ff 01 	cmpl   $0x1,-0x704(%rbp)
   1779e:	7e a8                	jle    17748 <func_55+0x281>
   177a0:	c7 85 fc f8 ff ff 00 	movl   $0x0,-0x704(%rbp)
   177a7:	00 00 00 
   177aa:	eb 21                	jmp    177cd <func_55+0x306>
   177ac:	8b 85 fc f8 ff ff    	mov    -0x704(%rbp),%eax
   177b2:	48 98                	cltq   
   177b4:	48 bb 27 7f 30 8d 54 	movabs $0xc31135548d307f27,%rbx
   177bb:	35 11 c3 
   177be:	48 89 9c c5 70 fb ff 	mov    %rbx,-0x490(%rbp,%rax,8)
   177c5:	ff 
   177c6:	83 85 fc f8 ff ff 01 	addl   $0x1,-0x704(%rbp)
   177cd:	83 bd fc f8 ff ff 04 	cmpl   $0x4,-0x704(%rbp)
   177d4:	7e d6                	jle    177ac <func_55+0x2e5>
   177d6:	c6 85 d4 f8 ff ff 00 	movb   $0x0,-0x72c(%rbp)
   177dd:	90                   	nop
   177de:	0f b6 85 d4 f8 ff ff 	movzbl -0x72c(%rbp),%eax
   177e5:	3c 20                	cmp    $0x20,%al
   177e7:	0f 84 c1 0a 00 00    	je     182ae <func_55+0xde7>
   177ed:	48 c7 85 88 f9 ff ff 	movq   $0x0,-0x678(%rbp)
   177f4:	00 00 00 00 
   177f8:	c6 85 88 f9 ff ff 08 	movb   $0x8,-0x678(%rbp)
   177ff:	48 8d 85 50 f9 ff ff 	lea    -0x6b0(%rbp),%rax
   17806:	48 89 85 98 fa ff ff 	mov    %rax,-0x568(%rbp)
   1780d:	c6 85 f0 f8 ff ff 70 	movb   $0x70,-0x710(%rbp)
   17814:	48 8d 05 cd 69 00 00 	lea    0x69cd(%rip),%rax        # 1e1e8 <g_174>
   1781b:	48 89 85 a0 fa ff ff 	mov    %rax,-0x560(%rbp)
   17822:	c7 85 48 f9 ff ff cd 	movl   $0xd19084cd,-0x6b8(%rbp)
   17829:	84 90 d1 
   1782c:	48 8b 95 58 f9 ff ff 	mov    -0x6a8(%rbp),%rdx
   17833:	48 8d 85 50 f9 ff ff 	lea    -0x6b0(%rbp),%rax
   1783a:	48 39 c2             	cmp    %rax,%rdx
   1783d:	0f 95 c0             	setne  %al
   17840:	0f b6 d8             	movzbl %al,%ebx
   17843:	41 bd ff ff ff ff    	mov    $0xffffffff,%r13d
   17849:	0f b6 85 d4 f8 ff ff 	movzbl -0x72c(%rbp),%eax
   17850:	44 0f b6 e0          	movzbl %al,%r12d
   17854:	0f bf 95 d0 f8 ff ff 	movswl -0x730(%rbp),%edx
   1785b:	48 8b 85 50 f9 ff ff 	mov    -0x6b0(%rbp),%rax
   17862:	8b 00                	mov    (%rax),%eax
   17864:	0f be c0             	movsbl %al,%eax
   17867:	89 d6                	mov    %edx,%esi
   17869:	89 c7                	mov    %eax,%edi
   1786b:	e8 7e ea fe ff       	callq  62ee <safe_lshift_func_int8_t_s_u>
   17870:	0f be c0             	movsbl %al,%eax
   17873:	41 39 c4             	cmp    %eax,%r12d
   17876:	0f 9f c0             	setg   %al
   17879:	0f b6 c0             	movzbl %al,%eax
   1787c:	44 89 ee             	mov    %r13d,%esi
   1787f:	89 c7                	mov    %eax,%edi
   17881:	e8 38 f5 fe ff       	callq  6dbe <safe_lshift_func_uint16_t_u_s>
   17886:	0f b7 c0             	movzwl %ax,%eax
   17889:	39 c3                	cmp    %eax,%ebx
   1788b:	0f 84 16 08 00 00    	je     180a7 <func_55+0xbe0>
   17891:	c7 85 04 f9 ff ff 0a 	movl   $0x418440a,-0x6fc(%rbp)
   17898:	44 18 04 
   1789b:	c7 85 08 f9 ff ff 00 	movl   $0x0,-0x6f8(%rbp)
   178a2:	00 00 00 
   178a5:	66 c7 85 d0 f8 ff ff 	movw   $0x1,-0x730(%rbp)
   178ac:	01 00 
   178ae:	e9 e1 07 00 00       	jmpq   18094 <func_55+0xbcd>
   178b3:	48 8d 05 7a 67 00 00 	lea    0x677a(%rip),%rax        # 1e034 <g_71+0x4>
   178ba:	48 89 85 20 fc ff ff 	mov    %rax,-0x3e0(%rbp)
   178c1:	48 8d 85 88 f9 ff ff 	lea    -0x678(%rbp),%rax
   178c8:	48 89 85 28 fc ff ff 	mov    %rax,-0x3d8(%rbp)
   178cf:	48 8d 05 5e 67 00 00 	lea    0x675e(%rip),%rax        # 1e034 <g_71+0x4>
   178d6:	48 89 85 30 fc ff ff 	mov    %rax,-0x3d0(%rbp)
   178dd:	48 8d 85 88 f9 ff ff 	lea    -0x678(%rbp),%rax
   178e4:	48 89 85 38 fc ff ff 	mov    %rax,-0x3c8(%rbp)
   178eb:	48 8d 05 42 67 00 00 	lea    0x6742(%rip),%rax        # 1e034 <g_71+0x4>
   178f2:	48 89 85 40 fc ff ff 	mov    %rax,-0x3c0(%rbp)
   178f9:	48 8d 85 88 f9 ff ff 	lea    -0x678(%rbp),%rax
   17900:	48 89 85 48 fc ff ff 	mov    %rax,-0x3b8(%rbp)
   17907:	48 8d 05 26 67 00 00 	lea    0x6726(%rip),%rax        # 1e034 <g_71+0x4>
   1790e:	48 89 85 50 fc ff ff 	mov    %rax,-0x3b0(%rbp)
   17915:	48 8d 85 88 f9 ff ff 	lea    -0x678(%rbp),%rax
   1791c:	48 89 85 58 fc ff ff 	mov    %rax,-0x3a8(%rbp)
   17923:	48 8d 05 0a 67 00 00 	lea    0x670a(%rip),%rax        # 1e034 <g_71+0x4>
   1792a:	48 89 85 60 fc ff ff 	mov    %rax,-0x3a0(%rbp)
   17931:	48 8d 85 88 f9 ff ff 	lea    -0x678(%rbp),%rax
   17938:	48 89 85 68 fc ff ff 	mov    %rax,-0x398(%rbp)
   1793f:	c7 85 4c f9 ff ff 07 	movl   $0x7,-0x6b4(%rbp)
   17946:	00 00 00 
   17949:	48 8b 85 58 f9 ff ff 	mov    -0x6a8(%rbp),%rax
   17950:	48 8b 00             	mov    (%rax),%rax
   17953:	c7 00 17 7d 88 c3    	movl   $0xc3887d17,(%rax)
   17959:	48 8b 85 50 f9 ff ff 	mov    -0x6b0(%rbp),%rax
   17960:	8b 00                	mov    (%rax),%eax
   17962:	85 c0                	test   %eax,%eax
   17964:	0f 84 a8 01 00 00    	je     17b12 <func_55+0x64b>
   1796a:	48 8d 85 50 f9 ff ff 	lea    -0x6b0(%rbp),%rax
   17971:	48 89 85 e0 fa ff ff 	mov    %rax,-0x520(%rbp)
   17978:	48 c7 85 d8 f8 ff ff 	movq   $0x0,-0x728(%rbp)
   1797f:	00 00 00 00 
   17983:	e9 c5 00 00 00       	jmpq   17a4d <func_55+0x586>
   17988:	c7 85 70 fc ff ff fd 	movl   $0xfffffffd,-0x390(%rbp)
   1798f:	ff ff ff 
   17992:	c7 85 74 fc ff ff fd 	movl   $0xfffffffd,-0x38c(%rbp)
   17999:	ff ff ff 
   1799c:	c7 85 78 fc ff ff fd 	movl   $0xfffffffd,-0x388(%rbp)
   179a3:	ff ff ff 
   179a6:	c7 85 7c fc ff ff fd 	movl   $0xfffffffd,-0x384(%rbp)
   179ad:	ff ff ff 
   179b0:	48 8d 05 95 66 00 00 	lea    0x6695(%rip),%rax        # 1e04c <g_90>
   179b7:	48 89 85 e8 fa ff ff 	mov    %rax,-0x518(%rbp)
   179be:	48 8b 85 50 f9 ff ff 	mov    -0x6b0(%rbp),%rax
   179c5:	8b 00                	mov    (%rax),%eax
   179c7:	89 c3                	mov    %eax,%ebx
   179c9:	48 8b 05 28 92 00 00 	mov    0x9228(%rip),%rax        # 20bf8 <g_87+0x8>
   179d0:	48 89 85 e0 fa ff ff 	mov    %rax,-0x520(%rbp)
   179d7:	48 83 bd e0 fa ff ff 	cmpq   $0x0,-0x520(%rbp)
   179de:	00 
   179df:	0f 94 c0             	sete   %al
   179e2:	0f b6 d0             	movzbl %al,%edx
   179e5:	8b 85 04 f9 ff ff    	mov    -0x6fc(%rbp),%eax
   179eb:	89 d6                	mov    %edx,%esi
   179ed:	89 c7                	mov    %eax,%edi
   179ef:	e8 dc f4 fe ff       	callq  6ed0 <safe_sub_func_uint32_t_u_u>
   179f4:	8b 15 42 66 00 00    	mov    0x6642(%rip),%edx        # 1e03c <g_71+0xc>
   179fa:	39 d0                	cmp    %edx,%eax
   179fc:	0f 93 c0             	setae  %al
   179ff:	0f b6 c0             	movzbl %al,%eax
   17a02:	89 de                	mov    %ebx,%esi
   17a04:	89 c7                	mov    %eax,%edi
   17a06:	e8 d6 ea fe ff       	callq  64e1 <safe_lshift_func_int16_t_s_u>
   17a0b:	48 8b 85 e8 fa ff ff 	mov    -0x518(%rbp),%rax
   17a12:	c6 00 49             	movb   $0x49,(%rax)
   17a15:	48 8b 85 e8 fa ff ff 	mov    -0x518(%rbp),%rax
   17a1c:	0f b6 00             	movzbl (%rax),%eax
   17a1f:	0f b6 c0             	movzbl %al,%eax
   17a22:	be 01 00 00 00       	mov    $0x1,%esi
   17a27:	89 c7                	mov    %eax,%edi
   17a29:	e8 4a f1 fe ff       	callq  6b78 <safe_sub_func_uint8_t_u_u>
   17a2e:	66 83 bd d0 f8 ff ff 	cmpw   $0x0,-0x730(%rbp)
   17a35:	00 
   17a36:	0f 95 c2             	setne  %dl
   17a39:	48 8b 85 50 f9 ff ff 	mov    -0x6b0(%rbp),%rax
   17a40:	0f b6 d2             	movzbl %dl,%edx
   17a43:	89 10                	mov    %edx,(%rax)
   17a45:	48 83 85 d8 f8 ff ff 	addq   $0x1,-0x728(%rbp)
   17a4c:	01 
   17a4d:	48 83 bd d8 f8 ff ff 	cmpq   $0x1,-0x728(%rbp)
   17a54:	01 
   17a55:	0f 86 2d ff ff ff    	jbe    17988 <func_55+0x4c1>
   17a5b:	c6 05 ea 65 00 00 00 	movb   $0x0,0x65ea(%rip)        # 1e04c <g_90>
   17a62:	e9 97 00 00 00       	jmpq   17afe <func_55+0x637>
   17a67:	0f b6 05 de 65 00 00 	movzbl 0x65de(%rip),%eax        # 1e04c <g_90>
   17a6e:	0f b6 c0             	movzbl %al,%eax
   17a71:	0f b6 15 d4 65 00 00 	movzbl 0x65d4(%rip),%edx        # 1e04c <g_90>
   17a78:	0f b6 d2             	movzbl %dl,%edx
   17a7b:	83 c2 02             	add    $0x2,%edx
   17a7e:	48 63 ca             	movslq %edx,%rcx
   17a81:	48 63 d0             	movslq %eax,%rdx
   17a84:	48 89 d0             	mov    %rdx,%rax
   17a87:	48 c1 e0 03          	shl    $0x3,%rax
   17a8b:	48 29 d0             	sub    %rdx,%rax
   17a8e:	48 01 c8             	add    %rcx,%rax
   17a91:	48 8d 14 85 00 00 00 	lea    0x0(,%rax,4),%rdx
   17a98:	00 
   17a99:	48 8d 05 90 65 00 00 	lea    0x6590(%rip),%rax        # 1e030 <g_71>
   17aa0:	8b 04 02             	mov    (%rdx,%rax,1),%eax
   17aa3:	85 c0                	test   %eax,%eax
   17aa5:	0f 85 d7 05 00 00    	jne    18082 <func_55+0xbbb>
   17aab:	0f b6 05 9a 65 00 00 	movzbl 0x659a(%rip),%eax        # 1e04c <g_90>
   17ab2:	0f b6 c0             	movzbl %al,%eax
   17ab5:	0f bf 95 d0 f8 ff ff 	movswl -0x730(%rbp),%edx
   17abc:	83 c2 04             	add    $0x4,%edx
   17abf:	48 8b 8d 58 f9 ff ff 	mov    -0x6a8(%rbp),%rcx
   17ac6:	48 63 f2             	movslq %edx,%rsi
   17ac9:	48 63 d0             	movslq %eax,%rdx
   17acc:	48 89 d0             	mov    %rdx,%rax
   17acf:	48 c1 e0 03          	shl    $0x3,%rax
   17ad3:	48 29 d0             	sub    %rdx,%rax
   17ad6:	48 01 f0             	add    %rsi,%rax
   17ad9:	48 8d 14 85 00 00 00 	lea    0x0(,%rax,4),%rdx
   17ae0:	00 
   17ae1:	48 8d 05 48 65 00 00 	lea    0x6548(%rip),%rax        # 1e030 <g_71>
   17ae8:	48 01 d0             	add    %rdx,%rax
   17aeb:	48 89 01             	mov    %rax,(%rcx)
   17aee:	0f b6 05 57 65 00 00 	movzbl 0x6557(%rip),%eax        # 1e04c <g_90>
   17af5:	83 c0 01             	add    $0x1,%eax
   17af8:	88 05 4e 65 00 00    	mov    %al,0x654e(%rip)        # 1e04c <g_90>
   17afe:	0f b6 05 47 65 00 00 	movzbl 0x6547(%rip),%eax        # 1e04c <g_90>
   17b05:	84 c0                	test   %al,%al
   17b07:	0f 84 5a ff ff ff    	je     17a67 <func_55+0x5a0>
   17b0d:	e9 71 05 00 00       	jmpq   18083 <func_55+0xbbc>
   17b12:	48 8d 05 27 65 00 00 	lea    0x6527(%rip),%rax        # 1e040 <g_71+0x10>
   17b19:	48 89 85 90 f9 ff ff 	mov    %rax,-0x670(%rbp)
   17b20:	48 8d 05 d9 90 00 00 	lea    0x90d9(%rip),%rax        # 20c00 <g_87+0x10>
   17b27:	48 89 85 a8 fa ff ff 	mov    %rax,-0x558(%rbp)
   17b2e:	48 8d 85 90 f9 ff ff 	lea    -0x670(%rbp),%rax
   17b35:	48 89 85 98 f9 ff ff 	mov    %rax,-0x668(%rbp)
   17b3c:	48 8d 85 98 f9 ff ff 	lea    -0x668(%rbp),%rax
   17b43:	48 89 85 b0 fa ff ff 	mov    %rax,-0x550(%rbp)
   17b4a:	c7 85 04 f9 ff ff 00 	movl   $0x0,-0x6fc(%rbp)
   17b51:	00 00 00 
   17b54:	eb 11                	jmp    17b67 <func_55+0x6a0>
   17b56:	66 83 bd d0 f8 ff ff 	cmpw   $0x0,-0x730(%rbp)
   17b5d:	00 
   17b5e:	75 12                	jne    17b72 <func_55+0x6ab>
   17b60:	83 85 04 f9 ff ff 01 	addl   $0x1,-0x6fc(%rbp)
   17b67:	83 bd 04 f9 ff ff 01 	cmpl   $0x1,-0x6fc(%rbp)
   17b6e:	76 e6                	jbe    17b56 <func_55+0x68f>
   17b70:	eb 01                	jmp    17b73 <func_55+0x6ac>
   17b72:	90                   	nop
   17b73:	48 8b 85 58 f9 ff ff 	mov    -0x6a8(%rbp),%rax
   17b7a:	48 8b 10             	mov    (%rax),%rdx
   17b7d:	48 8b 85 90 f9 ff ff 	mov    -0x670(%rbp),%rax
   17b84:	48 89 85 48 fc ff ff 	mov    %rax,-0x3b8(%rbp)
   17b8b:	48 8b 85 48 fc ff ff 	mov    -0x3b8(%rbp),%rax
   17b92:	48 39 c2             	cmp    %rax,%rdx
   17b95:	41 0f 94 c4          	sete   %r12b
   17b99:	8b 85 4c f9 ff ff    	mov    -0x6b4(%rbp),%eax
   17b9f:	0f b7 d8             	movzwl %ax,%ebx
   17ba2:	48 8b 15 4f 90 00 00 	mov    0x904f(%rip),%rdx        # 20bf8 <g_87+0x8>
   17ba9:	48 8b 85 a8 fa ff ff 	mov    -0x558(%rbp),%rax
   17bb0:	48 89 10             	mov    %rdx,(%rax)
   17bb3:	48 8b 85 a8 fa ff ff 	mov    -0x558(%rbp),%rax
   17bba:	48 8b 10             	mov    (%rax),%rdx
   17bbd:	48 8b 85 b0 fa ff ff 	mov    -0x550(%rbp),%rax
   17bc4:	48 89 10             	mov    %rdx,(%rax)
   17bc7:	48 8b 85 b0 fa ff ff 	mov    -0x550(%rbp),%rax
   17bce:	48 8b 00             	mov    (%rax),%rax
   17bd1:	48 39 85 98 fa ff ff 	cmp    %rax,-0x568(%rbp)
   17bd8:	0f 94 c0             	sete   %al
   17bdb:	0f b6 c0             	movzbl %al,%eax
   17bde:	be 06 00 00 00       	mov    $0x6,%esi
   17be3:	89 c7                	mov    %eax,%edi
   17be5:	e8 1c f2 fe ff       	callq  6e06 <safe_lshift_func_uint16_t_u_u>
   17bea:	0f b7 c0             	movzwl %ax,%eax
   17bed:	89 de                	mov    %ebx,%esi
   17bef:	89 c7                	mov    %eax,%edi
   17bf1:	e8 29 f1 fe ff       	callq  6d1f <safe_sub_func_uint16_t_u_u>
   17bf6:	66 83 f8 01          	cmp    $0x1,%ax
   17bfa:	0f 96 c0             	setbe  %al
   17bfd:	44 31 e0             	xor    %r12d,%eax
   17c00:	84 c0                	test   %al,%al
   17c02:	74 7d                	je     17c81 <func_55+0x7ba>
   17c04:	c6 85 f1 f8 ff ff 00 	movb   $0x0,-0x70f(%rbp)
   17c0b:	48 8d 85 88 f9 ff ff 	lea    -0x678(%rbp),%rax
   17c12:	48 89 85 d8 fa ff ff 	mov    %rax,-0x528(%rbp)
   17c19:	48 c7 85 70 fc ff ff 	movq   $0x0,-0x390(%rbp)
   17c20:	00 00 00 00 
   17c24:	48 c7 85 78 fc ff ff 	movq   $0x0,-0x388(%rbp)
   17c2b:	00 00 00 00 
   17c2f:	48 c7 85 80 fc ff ff 	movq   $0x0,-0x380(%rbp)
   17c36:	00 00 00 00 
   17c3a:	48 c7 85 88 fc ff ff 	movq   $0x0,-0x378(%rbp)
   17c41:	00 00 00 00 
   17c45:	48 c7 85 90 fc ff ff 	movq   $0x0,-0x370(%rbp)
   17c4c:	00 00 00 00 
   17c50:	48 8b 85 58 f9 ff ff 	mov    -0x6a8(%rbp),%rax
   17c57:	48 8b 00             	mov    (%rax),%rax
   17c5a:	8b 08                	mov    (%rax),%ecx
   17c5c:	0f be 95 f1 f8 ff ff 	movsbl -0x70f(%rbp),%edx
   17c63:	48 8b 85 58 f9 ff ff 	mov    -0x6a8(%rbp),%rax
   17c6a:	48 8b 00             	mov    (%rax),%rax
   17c6d:	09 ca                	or     %ecx,%edx
   17c6f:	89 10                	mov    %edx,(%rax)
   17c71:	48 c7 05 8c 8f 00 00 	movq   $0x0,0x8f8c(%rip)        # 20c08 <g_106>
   17c78:	00 00 00 00 
   17c7c:	e9 c8 02 00 00       	jmpq   17f49 <func_55+0xa82>
   17c81:	48 c7 85 d0 fb ff ff 	movq   $0x0,-0x430(%rbp)
   17c88:	00 00 00 00 
   17c8c:	48 c7 85 d8 fb ff ff 	movq   $0x0,-0x428(%rbp)
   17c93:	00 00 00 00 
   17c97:	48 c7 85 e0 fb ff ff 	movq   $0x0,-0x420(%rbp)
   17c9e:	00 00 00 00 
   17ca2:	48 c7 85 e8 fb ff ff 	movq   $0x0,-0x418(%rbp)
   17ca9:	00 00 00 00 
   17cad:	48 c7 85 f0 fb ff ff 	movq   $0x0,-0x410(%rbp)
   17cb4:	00 00 00 00 
   17cb8:	48 c7 85 f8 fb ff ff 	movq   $0x0,-0x408(%rbp)
   17cbf:	00 00 00 00 
   17cc3:	48 c7 85 00 fc ff ff 	movq   $0x0,-0x400(%rbp)
   17cca:	00 00 00 00 
   17cce:	48 c7 85 08 fc ff ff 	movq   $0x0,-0x3f8(%rbp)
   17cd5:	00 00 00 00 
   17cd9:	48 c7 85 10 fc ff ff 	movq   $0x0,-0x3f0(%rbp)
   17ce0:	00 00 00 00 
   17ce4:	c6 85 d0 fb ff ff 79 	movb   $0x79,-0x430(%rbp)
   17ceb:	c6 85 d8 fb ff ff 79 	movb   $0x79,-0x428(%rbp)
   17cf2:	c6 85 e0 fb ff ff 79 	movb   $0x79,-0x420(%rbp)
   17cf9:	c6 85 e8 fb ff ff 79 	movb   $0x79,-0x418(%rbp)
   17d00:	c6 85 f0 fb ff ff 79 	movb   $0x79,-0x410(%rbp)
   17d07:	c6 85 f8 fb ff ff 79 	movb   $0x79,-0x408(%rbp)
   17d0e:	c6 85 00 fc ff ff 79 	movb   $0x79,-0x400(%rbp)
   17d15:	c6 85 08 fc ff ff 79 	movb   $0x79,-0x3f8(%rbp)
   17d1c:	c6 85 10 fc ff ff 79 	movb   $0x79,-0x3f0(%rbp)
   17d23:	48 8d 05 46 63 00 00 	lea    0x6346(%rip),%rax        # 1e070 <g_129+0x10>
   17d2a:	48 89 85 b8 fa ff ff 	mov    %rax,-0x548(%rbp)
   17d31:	48 8d 05 a8 64 00 00 	lea    0x64a8(%rip),%rax        # 1e1e0 <g_131>
   17d38:	48 89 85 c0 fa ff ff 	mov    %rax,-0x540(%rbp)
   17d3f:	48 c7 85 c8 fa ff ff 	movq   $0x0,-0x538(%rbp)
   17d46:	00 00 00 00 
   17d4a:	48 8d 85 70 fc ff ff 	lea    -0x390(%rbp),%rax
   17d51:	48 8d 15 88 77 00 00 	lea    0x7788(%rip),%rdx        # 1f4e0 <g_2753+0x1194>
   17d58:	b9 28 00 00 00       	mov    $0x28,%ecx
   17d5d:	48 89 c7             	mov    %rax,%rdi
   17d60:	48 89 d6             	mov    %rdx,%rsi
   17d63:	f3 48 a5             	rep movsq %ds:(%rsi),%es:(%rdi)
   17d66:	48 8d 05 df 62 00 00 	lea    0x62df(%rip),%rax        # 1e04c <g_90>
   17d6d:	48 89 85 a0 f9 ff ff 	mov    %rax,-0x660(%rbp)
   17d74:	48 8d 85 a0 f9 ff ff 	lea    -0x660(%rbp),%rax
   17d7b:	48 89 85 a8 f9 ff ff 	mov    %rax,-0x658(%rbp)
   17d82:	48 8d 85 a8 f9 ff ff 	lea    -0x658(%rbp),%rax
   17d89:	48 89 85 d0 fa ff ff 	mov    %rax,-0x530(%rbp)
   17d90:	66 83 bd d0 f8 ff ff 	cmpw   $0x0,-0x730(%rbp)
   17d97:	00 
   17d98:	0f 85 ba 03 00 00    	jne    18158 <func_55+0xc91>
   17d9e:	b8 06 00 00 00       	mov    $0x6,%eax
   17da3:	0f b6 d8             	movzbl %al,%ebx
   17da6:	48 8b 85 50 f9 ff ff 	mov    -0x6b0(%rbp),%rax
   17dad:	44 8b 20             	mov    (%rax),%r12d
   17db0:	8b 85 04 f9 ff ff    	mov    -0x6fc(%rbp),%eax
   17db6:	44 0f be e8          	movsbl %al,%r13d
   17dba:	4c 8b b5 c0 f8 ff ff 	mov    -0x740(%rbp),%r14
   17dc1:	48 8b 95 d8 f8 ff ff 	mov    -0x728(%rbp),%rdx
   17dc8:	0f b6 05 55 62 00 00 	movzbl 0x6255(%rip),%eax        # 1e024 <g_9>
   17dcf:	66 0f be c8          	movsbw %al,%cx
   17dd3:	48 8b 85 b8 fa ff ff 	mov    -0x548(%rbp),%rax
   17dda:	66 89 08             	mov    %cx,(%rax)
   17ddd:	48 8b 85 b8 fa ff ff 	mov    -0x548(%rbp),%rax
   17de4:	0f b7 08             	movzwl (%rax),%ecx
   17de7:	48 8b 85 c0 fa ff ff 	mov    -0x540(%rbp),%rax
   17dee:	66 89 08             	mov    %cx,(%rax)
   17df1:	48 8b 85 c0 fa ff ff 	mov    -0x540(%rbp),%rax
   17df8:	0f b7 00             	movzwl (%rax),%eax
   17dfb:	66 83 f8 01          	cmp    $0x1,%ax
   17dff:	0f 9e c0             	setle  %al
   17e02:	0f b6 c0             	movzbl %al,%eax
   17e05:	48 39 85 c0 f8 ff ff 	cmp    %rax,-0x740(%rbp)
   17e0c:	0f 94 c0             	sete   %al
   17e0f:	0f b6 c8             	movzbl %al,%ecx
   17e12:	0f b6 85 f8 fb ff ff 	movzbl -0x408(%rbp),%eax
   17e19:	0f be c0             	movsbl %al,%eax
   17e1c:	39 c1                	cmp    %eax,%ecx
   17e1e:	0f 9d c0             	setge  %al
   17e21:	0f b6 c0             	movzbl %al,%eax
   17e24:	48 89 d6             	mov    %rdx,%rsi
   17e27:	48 89 c7             	mov    %rax,%rdi
   17e2a:	e8 12 ea fe ff       	callq  6841 <safe_add_func_int64_t_s_s>
   17e2f:	0f b6 c0             	movzbl %al,%eax
   17e32:	be d8 00 00 00       	mov    $0xd8,%esi
   17e37:	89 c7                	mov    %eax,%edi
   17e39:	e8 70 ed fe ff       	callq  6bae <safe_mod_func_uint8_t_u_u>
   17e3e:	84 c0                	test   %al,%al
   17e40:	74 13                	je     17e55 <func_55+0x98e>
   17e42:	0f b7 05 27 62 00 00 	movzwl 0x6227(%rip),%eax        # 1e070 <g_129+0x10>
   17e49:	66 85 c0             	test   %ax,%ax
   17e4c:	74 07                	je     17e55 <func_55+0x98e>
   17e4e:	b8 01 00 00 00       	mov    $0x1,%eax
   17e53:	eb 05                	jmp    17e5a <func_55+0x993>
   17e55:	b8 00 00 00 00       	mov    $0x0,%eax
   17e5a:	89 85 08 f9 ff ff    	mov    %eax,-0x6f8(%rbp)
   17e60:	4c 89 f6             	mov    %r14,%rsi
   17e63:	48 c7 c7 ff ff ff ff 	mov    $0xffffffffffffffff,%rdi
   17e6a:	e8 11 f2 fe ff       	callq  7080 <safe_mod_func_uint64_t_u_u>
   17e6f:	0f be c0             	movsbl %al,%eax
   17e72:	44 89 ee             	mov    %r13d,%esi
   17e75:	89 c7                	mov    %eax,%edi
   17e77:	e8 ee e3 fe ff       	callq  626a <safe_div_func_int8_t_s_s>
   17e7c:	48 0f be c0          	movsbq %al,%rax
   17e80:	83 e0 43             	and    $0x43,%eax
   17e83:	48 89 c6             	mov    %rax,%rsi
   17e86:	8b 15 b0 61 00 00    	mov    0x61b0(%rip),%edx        # 1e03c <g_71+0xc>
   17e8c:	48 8b 85 a0 f9 ff ff 	mov    -0x660(%rbp),%rax
   17e93:	0f b6 00             	movzbl (%rax),%eax
   17e96:	89 c1                	mov    %eax,%ecx
   17e98:	89 f0                	mov    %esi,%eax
   17e9a:	21 c1                	and    %eax,%ecx
   17e9c:	48 8b 85 a0 f9 ff ff 	mov    -0x660(%rbp),%rax
   17ea3:	88 08                	mov    %cl,(%rax)
   17ea5:	0f b6 00             	movzbl (%rax),%eax
   17ea8:	0f b6 c8             	movzbl %al,%ecx
   17eab:	8b 05 97 61 00 00    	mov    0x6197(%rip),%eax        # 1e048 <g_71+0x18>
   17eb1:	39 c1                	cmp    %eax,%ecx
   17eb3:	0f 94 c0             	sete   %al
   17eb6:	0f b6 c0             	movzbl %al,%eax
   17eb9:	39 c2                	cmp    %eax,%edx
   17ebb:	0f 9c c0             	setl   %al
   17ebe:	f7 d0                	not    %eax
   17ec0:	0f b6 c0             	movzbl %al,%eax
   17ec3:	44 89 e6             	mov    %r12d,%esi
   17ec6:	89 c7                	mov    %eax,%edi
   17ec8:	e8 38 ed fe ff       	callq  6c05 <safe_lshift_func_uint8_t_u_s>
   17ecd:	0f b6 c0             	movzbl %al,%eax
   17ed0:	be 01 00 00 00       	mov    $0x1,%esi
   17ed5:	89 c7                	mov    %eax,%edi
   17ed7:	e8 79 e5 fe ff       	callq  6455 <safe_div_func_int16_t_s_s>
   17edc:	0f b6 c0             	movzbl %al,%eax
   17edf:	89 de                	mov    %ebx,%esi
   17ee1:	89 c7                	mov    %eax,%edi
   17ee3:	e8 f3 ec fe ff       	callq  6bdb <safe_div_func_uint8_t_u_u>
   17ee8:	0f b6 d0             	movzbl %al,%edx
   17eeb:	0f b6 05 33 61 00 00 	movzbl 0x6133(%rip),%eax        # 1e025 <g_66>
   17ef2:	48 0f be c0          	movsbq %al,%rax
   17ef6:	48 89 d6             	mov    %rdx,%rsi
   17ef9:	48 89 c7             	mov    %rax,%rdi
   17efc:	e8 f6 ea fe ff       	callq  69f7 <safe_div_func_int64_t_s_s>
   17f01:	0f b6 c0             	movzbl %al,%eax
   17f04:	be 01 00 00 00       	mov    $0x1,%esi
   17f09:	89 c7                	mov    %eax,%edi
   17f0b:	e8 ae ed fe ff       	callq  6cbe <safe_rshift_func_uint8_t_u_u>
   17f10:	0f b6 d0             	movzbl %al,%edx
   17f13:	0f b6 05 0a 61 00 00 	movzbl 0x610a(%rip),%eax        # 1e024 <g_9>
   17f1a:	0f be c0             	movsbl %al,%eax
   17f1d:	39 c2                	cmp    %eax,%edx
   17f1f:	74 07                	je     17f28 <func_55+0xa61>
   17f21:	ba 01 00 00 00       	mov    $0x1,%edx
   17f26:	eb 05                	jmp    17f2d <func_55+0xa66>
   17f28:	ba 00 00 00 00       	mov    $0x0,%edx
   17f2d:	8b 85 fc fa ff ff    	mov    -0x504(%rbp),%eax
   17f33:	31 d0                	xor    %edx,%eax
   17f35:	89 85 fc fa ff ff    	mov    %eax,-0x504(%rbp)
   17f3b:	48 8b 85 d0 fa ff ff 	mov    -0x530(%rbp),%rax
   17f42:	48 c7 00 00 00 00 00 	movq   $0x0,(%rax)
   17f49:	48 8b 85 58 f9 ff ff 	mov    -0x6a8(%rbp),%rax
   17f50:	48 8b 10             	mov    (%rax),%rdx
   17f53:	48 8b 85 98 fa ff ff 	mov    -0x568(%rbp),%rax
   17f5a:	48 89 10             	mov    %rdx,(%rax)
   17f5d:	8b 9d 08 f9 ff ff    	mov    -0x6f8(%rbp),%ebx
   17f63:	48 8b 85 90 f9 ff ff 	mov    -0x670(%rbp),%rax
   17f6a:	44 8b 20             	mov    (%rax),%r12d
   17f6d:	8b 05 cd 60 00 00    	mov    0x60cd(%rip),%eax        # 1e040 <g_71+0x10>
   17f73:	0f bf d0             	movswl %ax,%edx
   17f76:	0f b6 0d a7 60 00 00 	movzbl 0x60a7(%rip),%ecx        # 1e024 <g_9>
   17f7d:	0f b6 05 a1 60 00 00 	movzbl 0x60a1(%rip),%eax        # 1e025 <g_66>
   17f84:	38 c1                	cmp    %al,%cl
   17f86:	0f 95 c0             	setne  %al
   17f89:	0f b6 c0             	movzbl %al,%eax
   17f8c:	48 8b 8d d8 f8 ff ff 	mov    -0x728(%rbp),%rcx
   17f93:	31 c8                	xor    %ecx,%eax
   17f95:	98                   	cwtl   
   17f96:	89 d6                	mov    %edx,%esi
   17f98:	89 c7                	mov    %eax,%edi
   17f9a:	e8 56 e4 fe ff       	callq  63f5 <safe_mul_func_int16_t_s_s>
   17f9f:	48 0f bf d0          	movswq %ax,%rdx
   17fa3:	0f b7 05 c0 61 00 00 	movzwl 0x61c0(%rip),%eax        # 1e16a <g_129+0x10a>
   17faa:	66 85 c0             	test   %ax,%ax
   17fad:	0f 9f c0             	setg   %al
   17fb0:	0f b6 c0             	movzbl %al,%eax
   17fb3:	48 0b 85 c0 f8 ff ff 	or     -0x740(%rbp),%rax
   17fba:	48 89 d6             	mov    %rdx,%rsi
   17fbd:	48 89 c7             	mov    %rax,%rdi
   17fc0:	e8 ef e9 fe ff       	callq  69b4 <safe_mod_func_int64_t_s_s>
   17fc5:	0f b7 c0             	movzwl %ax,%eax
   17fc8:	be 02 00 00 00       	mov    $0x2,%esi
   17fcd:	89 c7                	mov    %eax,%edi
   17fcf:	e8 a6 ee fe ff       	callq  6e7a <safe_rshift_func_uint16_t_u_u>
   17fd4:	48 8b 85 98 fa ff ff 	mov    -0x568(%rbp),%rax
   17fdb:	48 8b 00             	mov    (%rax),%rax
   17fde:	8b 00                	mov    (%rax),%eax
   17fe0:	0f b6 c0             	movzbl %al,%eax
   17fe3:	be c8 00 00 00       	mov    $0xc8,%esi
   17fe8:	89 c7                	mov    %eax,%edi
   17fea:	e8 bf eb fe ff       	callq  6bae <safe_mod_func_uint8_t_u_u>
   17fef:	0f b6 c0             	movzbl %al,%eax
   17ff2:	41 39 c4             	cmp    %eax,%r12d
   17ff5:	0f 9e c2             	setle  %dl
   17ff8:	48 8b 85 98 fa ff ff 	mov    -0x568(%rbp),%rax
   17fff:	48 8b 00             	mov    (%rax),%rax
   18002:	0f b6 d2             	movzbl %dl,%edx
   18005:	89 10                	mov    %edx,(%rax)
   18007:	b8 56 e4 2a 3d       	mov    $0x3d2ae456,%eax
   1800c:	0f b7 d0             	movzwl %ax,%edx
   1800f:	8b 85 04 f9 ff ff    	mov    -0x6fc(%rbp),%eax
   18015:	0f b7 c0             	movzwl %ax,%eax
   18018:	89 d6                	mov    %edx,%esi
   1801a:	89 c7                	mov    %eax,%edi
   1801c:	e8 1c ed fe ff       	callq  6d3d <safe_mul_func_uint16_t_u_u>
   18021:	0f b7 d0             	movzwl %ax,%edx
   18024:	0f b7 05 39 61 00 00 	movzwl 0x6139(%rip),%eax        # 1e164 <g_129+0x104>
   1802b:	48 0f bf c0          	movswq %ax,%rax
   1802f:	48 39 85 c0 f8 ff ff 	cmp    %rax,-0x740(%rbp)
   18036:	0f 9f c0             	setg   %al
   18039:	0f b6 c0             	movzbl %al,%eax
   1803c:	39 c2                	cmp    %eax,%edx
   1803e:	0f 9d c0             	setge  %al
   18041:	0f b6 c0             	movzbl %al,%eax
   18044:	ba 06 00 00 00       	mov    $0x6,%edx
   18049:	39 d0                	cmp    %edx,%eax
   1804b:	0f 9c c0             	setl   %al
   1804e:	0f b6 d0             	movzbl %al,%edx
   18051:	0f b6 05 cc 5f 00 00 	movzbl 0x5fcc(%rip),%eax        # 1e024 <g_9>
   18058:	84 c0                	test   %al,%al
   1805a:	0f 94 c0             	sete   %al
   1805d:	0f b6 c0             	movzbl %al,%eax
   18060:	89 d6                	mov    %edx,%esi
   18062:	89 c7                	mov    %eax,%edi
   18064:	e8 89 e1 fe ff       	callq  61f2 <safe_sub_func_int8_t_s_s>
   18069:	66 98                	cbtw   
   1806b:	0f b7 c0             	movzwl %ax,%eax
   1806e:	89 de                	mov    %ebx,%esi
   18070:	89 c7                	mov    %eax,%edi
   18072:	e8 8f ed fe ff       	callq  6e06 <safe_lshift_func_uint16_t_u_u>
   18077:	0f b7 c0             	movzwl %ax,%eax
   1807a:	89 85 88 f9 ff ff    	mov    %eax,-0x678(%rbp)
   18080:	eb 01                	jmp    18083 <func_55+0xbbc>
   18082:	90                   	nop
   18083:	0f b7 85 d0 f8 ff ff 	movzwl -0x730(%rbp),%eax
   1808a:	83 e8 01             	sub    $0x1,%eax
   1808d:	66 89 85 d0 f8 ff ff 	mov    %ax,-0x730(%rbp)
   18094:	66 83 bd d0 f8 ff ff 	cmpw   $0x0,-0x730(%rbp)
   1809b:	00 
   1809c:	0f 89 11 f8 ff ff    	jns    178b3 <func_55+0x3ec>
   180a2:	e9 b1 00 00 00       	jmpq   18158 <func_55+0xc91>
   180a7:	66 c7 85 d0 f8 ff ff 	movw   $0x2,-0x730(%rbp)
   180ae:	02 00 
   180b0:	e9 92 00 00 00       	jmpq   18147 <func_55+0xc80>
   180b5:	8b 15 81 5f 00 00    	mov    0x5f81(%rip),%edx        # 1e03c <g_71+0xc>
   180bb:	0f bf 85 d0 f8 ff ff 	movswl -0x730(%rbp),%eax
   180c2:	48 98                	cltq   
   180c4:	8b 84 85 f4 fa ff ff 	mov    -0x50c(%rbp,%rax,4),%eax
   180cb:	48 8b 8d 98 fa ff ff 	mov    -0x568(%rbp),%rcx
   180d2:	48 8b 19             	mov    (%rcx),%rbx
   180d5:	89 d6                	mov    %edx,%esi
   180d7:	89 c7                	mov    %eax,%edi
   180d9:	e8 d8 e4 fe ff       	callq  65b6 <safe_add_func_int32_t_s_s>
   180de:	89 03                	mov    %eax,(%rbx)
   180e0:	66 83 bd d0 f8 ff ff 	cmpw   $0x0,-0x730(%rbp)
   180e7:	00 
   180e8:	75 6d                	jne    18157 <func_55+0xc90>
   180ea:	66 c7 05 ed 60 00 00 	movw   $0x0,0x60ed(%rip)        # 1e1e0 <g_131>
   180f1:	00 00 
   180f3:	90                   	nop
   180f4:	0f b7 05 e5 60 00 00 	movzwl 0x60e5(%rip),%eax        # 1e1e0 <g_131>
   180fb:	66 85 c0             	test   %ax,%ax
   180fe:	78 0c                	js     1810c <func_55+0xc45>
   18100:	48 8b 85 c0 f8 ff ff 	mov    -0x740(%rbp),%rax
   18107:	e9 82 12 00 00       	jmpq   1938e <func_55+0x1ec7>
   1810c:	48 c7 85 c0 f8 ff ff 	movq   $0x0,-0x740(%rbp)
   18113:	00 00 00 00 
   18117:	48 83 bd c0 f8 ff ff 	cmpq   $0x0,-0x740(%rbp)
   1811e:	00 
   1811f:	7f 15                	jg     18136 <func_55+0xc6f>
   18121:	0f bf 85 d0 f8 ff ff 	movswl -0x730(%rbp),%eax
   18128:	48 98                	cltq   
   1812a:	8b 84 85 f4 fa ff ff 	mov    -0x50c(%rbp,%rax,4),%eax
   18131:	e9 58 12 00 00       	jmpq   1938e <func_55+0x1ec7>
   18136:	0f b7 85 d0 f8 ff ff 	movzwl -0x730(%rbp),%eax
   1813d:	83 e8 01             	sub    $0x1,%eax
   18140:	66 89 85 d0 f8 ff ff 	mov    %ax,-0x730(%rbp)
   18147:	66 83 bd d0 f8 ff ff 	cmpw   $0x0,-0x730(%rbp)
   1814e:	00 
   1814f:	0f 89 60 ff ff ff    	jns    180b5 <func_55+0xbee>
   18155:	eb 01                	jmp    18158 <func_55+0xc91>
   18157:	90                   	nop
   18158:	0f b6 85 d4 f8 ff ff 	movzbl -0x72c(%rbp),%eax
   1815f:	0f b6 d8             	movzbl %al,%ebx
   18162:	48 8b 85 98 fa ff ff 	mov    -0x568(%rbp),%rax
   18169:	48 8b 00             	mov    (%rax),%rax
   1816c:	8b 00                	mov    (%rax),%eax
   1816e:	85 c0                	test   %eax,%eax
   18170:	0f 85 04 01 00 00    	jne    1827a <func_55+0xdb3>
   18176:	8b 05 c0 5e 00 00    	mov    0x5ec0(%rip),%eax        # 1e03c <g_71+0xc>
   1817c:	44 0f be e0          	movsbl %al,%r12d
   18180:	48 8b 85 50 f9 ff ff 	mov    -0x6b0(%rbp),%rax
   18187:	8b 00                	mov    (%rax),%eax
   18189:	4c 63 e8             	movslq %eax,%r13
   1818c:	0f b6 05 92 5e 00 00 	movzbl 0x5e92(%rip),%eax        # 1e025 <g_66>
   18193:	0f be d0             	movsbl %al,%edx
   18196:	0f be 85 f0 f8 ff ff 	movsbl -0x710(%rbp),%eax
   1819d:	89 d6                	mov    %edx,%esi
   1819f:	89 c7                	mov    %eax,%edi
   181a1:	e8 70 e2 fe ff       	callq  6416 <safe_mod_func_int16_t_s_s>
   181a6:	0f b7 d0             	movzwl %ax,%edx
   181a9:	48 8b 85 98 fa ff ff 	mov    -0x568(%rbp),%rax
   181b0:	48 8b 00             	mov    (%rax),%rax
   181b3:	48 85 c0             	test   %rax,%rax
   181b6:	0f 95 c0             	setne  %al
   181b9:	0f b6 c8             	movzbl %al,%ecx
   181bc:	0f b7 05 ad 5e 00 00 	movzwl 0x5ead(%rip),%eax        # 1e070 <g_129+0x10>
   181c3:	0f bf f0             	movswl %ax,%esi
   181c6:	0f b6 85 e8 f8 ff ff 	movzbl -0x718(%rbp),%eax
   181cd:	0f b6 c0             	movzbl %al,%eax
   181d0:	39 c6                	cmp    %eax,%esi
   181d2:	0f 9c c0             	setl   %al
   181d5:	0f b6 c0             	movzbl %al,%eax
   181d8:	39 c1                	cmp    %eax,%ecx
   181da:	0f 9e c0             	setle  %al
   181dd:	0f b6 c0             	movzbl %al,%eax
   181e0:	89 d6                	mov    %edx,%esi
   181e2:	89 c7                	mov    %eax,%edi
   181e4:	e8 54 eb fe ff       	callq  6d3d <safe_mul_func_uint16_t_u_u>
   181e9:	48 8b 85 50 f9 ff ff 	mov    -0x6b0(%rbp),%rax
   181f0:	8b 00                	mov    (%rax),%eax
   181f2:	ba 06 00 00 00       	mov    $0x6,%edx
   181f7:	39 d0                	cmp    %edx,%eax
   181f9:	7d 0b                	jge    18206 <func_55+0xd3f>
   181fb:	0f b6 85 d4 f8 ff ff 	movzbl -0x72c(%rbp),%eax
   18202:	84 c0                	test   %al,%al
   18204:	74 07                	je     1820d <func_55+0xd46>
   18206:	b8 01 00 00 00       	mov    $0x1,%eax
   1820b:	eb 05                	jmp    18212 <func_55+0xd4b>
   1820d:	b8 00 00 00 00       	mov    $0x0,%eax
   18212:	48 63 d0             	movslq %eax,%rdx
   18215:	48 8b 85 a0 fa ff ff 	mov    -0x560(%rbp),%rax
   1821c:	48 89 10             	mov    %rdx,(%rax)
   1821f:	48 8b 85 a0 fa ff ff 	mov    -0x560(%rbp),%rax
   18226:	48 8b 00             	mov    (%rax),%rax
   18229:	4c 89 ea             	mov    %r13,%rdx
   1822c:	48 21 c2             	and    %rax,%rdx
   1822f:	48 8b 85 b8 f9 ff ff 	mov    -0x648(%rbp),%rax
   18236:	48 39 c2             	cmp    %rax,%rdx
   18239:	0f 97 c0             	seta   %al
   1823c:	0f b6 c0             	movzbl %al,%eax
   1823f:	44 89 e6             	mov    %r12d,%esi
   18242:	89 c7                	mov    %eax,%edi
   18244:	e8 a9 df fe ff       	callq  61f2 <safe_sub_func_int8_t_s_s>
   18249:	be 00 00 00 00       	mov    $0x0,%esi
   1824e:	bf f8 2f 00 00       	mov    $0x2ff8,%edi
   18253:	e8 66 eb fe ff       	callq  6dbe <safe_lshift_func_uint16_t_u_s>
   18258:	0f b7 c0             	movzwl %ax,%eax
   1825b:	be 0f 00 00 00       	mov    $0xf,%esi
   18260:	89 c7                	mov    %eax,%edi
   18262:	e8 9f eb fe ff       	callq  6e06 <safe_lshift_func_uint16_t_u_u>
   18267:	0f b7 c0             	movzwl %ax,%eax
   1826a:	be c3 9f 24 10       	mov    $0x10249fc3,%esi
   1826f:	89 c7                	mov    %eax,%edi
   18271:	e8 56 e4 fe ff       	callq  66cc <safe_mod_func_int32_t_s_s>
   18276:	85 c0                	test   %eax,%eax
   18278:	74 07                	je     18281 <func_55+0xdba>
   1827a:	b8 01 00 00 00       	mov    $0x1,%eax
   1827f:	eb 05                	jmp    18286 <func_55+0xdbf>
   18281:	b8 00 00 00 00       	mov    $0x0,%eax
   18286:	0f b7 c0             	movzwl %ax,%eax
   18289:	89 de                	mov    %ebx,%esi
   1828b:	89 c7                	mov    %eax,%edi
   1828d:	e8 74 eb fe ff       	callq  6e06 <safe_lshift_func_uint16_t_u_u>
   18292:	89 c2                	mov    %eax,%edx
   18294:	48 8b 85 58 f9 ff ff 	mov    -0x6a8(%rbp),%rax
   1829b:	48 8b 00             	mov    (%rax),%rax
   1829e:	0f b7 d2             	movzwl %dx,%edx
   182a1:	89 10                	mov    %edx,(%rax)
   182a3:	8b 85 48 f9 ff ff    	mov    -0x6b8(%rbp),%eax
   182a9:	e9 e0 10 00 00       	jmpq   1938e <func_55+0x1ec7>
   182ae:	66 c7 05 29 5f 00 00 	movw   $0x0,0x5f29(%rip)        # 1e1e0 <g_131>
   182b5:	00 00 
   182b7:	e9 fd 06 00 00       	jmpq   189b9 <func_55+0x14f2>
   182bc:	48 c7 85 90 f9 ff ff 	movq   $0x0,-0x670(%rbp)
   182c3:	00 00 00 00 
   182c7:	c6 85 90 f9 ff ff 02 	movb   $0x2,-0x670(%rbp)
   182ce:	48 8d 05 77 5d 00 00 	lea    0x5d77(%rip),%rax        # 1e04c <g_90>
   182d5:	48 89 85 98 f9 ff ff 	mov    %rax,-0x668(%rbp)
   182dc:	48 8d 85 98 f9 ff ff 	lea    -0x668(%rbp),%rax
   182e3:	48 89 85 a0 f9 ff ff 	mov    %rax,-0x660(%rbp)
   182ea:	48 8d 85 a0 f9 ff ff 	lea    -0x660(%rbp),%rax
   182f1:	48 89 85 40 fa ff ff 	mov    %rax,-0x5c0(%rbp)
   182f8:	48 8d 05 09 5f 00 00 	lea    0x5f09(%rip),%rax        # 1e208 <g_196+0x8>
   182ff:	48 89 85 48 fa ff ff 	mov    %rax,-0x5b8(%rbp)
   18306:	48 8d 05 2b 5f 00 00 	lea    0x5f2b(%rip),%rax        # 1e238 <g_198+0x18>
   1830d:	48 89 85 50 fa ff ff 	mov    %rax,-0x5b0(%rbp)
   18314:	48 c7 85 58 fa ff ff 	movq   $0x0,-0x5a8(%rbp)
   1831b:	00 00 00 00 
   1831f:	48 c7 85 60 fa ff ff 	movq   $0x0,-0x5a0(%rbp)
   18326:	00 00 00 00 
   1832a:	48 8d 05 0b 5d 00 00 	lea    0x5d0b(%rip),%rax        # 1e03c <g_71+0xc>
   18331:	48 89 85 70 fc ff ff 	mov    %rax,-0x390(%rbp)
   18338:	48 8d 85 f4 fa ff ff 	lea    -0x50c(%rbp),%rax
   1833f:	48 89 85 78 fc ff ff 	mov    %rax,-0x388(%rbp)
   18346:	48 8d 05 ef 5c 00 00 	lea    0x5cef(%rip),%rax        # 1e03c <g_71+0xc>
   1834d:	48 89 85 80 fc ff ff 	mov    %rax,-0x380(%rbp)
   18354:	48 8d 85 f4 fa ff ff 	lea    -0x50c(%rbp),%rax
   1835b:	48 89 85 88 fc ff ff 	mov    %rax,-0x378(%rbp)
   18362:	48 8d 05 d3 5c 00 00 	lea    0x5cd3(%rip),%rax        # 1e03c <g_71+0xc>
   18369:	48 89 85 90 fc ff ff 	mov    %rax,-0x370(%rbp)
   18370:	48 8d 85 f4 fa ff ff 	lea    -0x50c(%rbp),%rax
   18377:	48 89 85 98 fc ff ff 	mov    %rax,-0x368(%rbp)
   1837e:	48 8d 05 b7 5c 00 00 	lea    0x5cb7(%rip),%rax        # 1e03c <g_71+0xc>
   18385:	48 89 85 a0 fc ff ff 	mov    %rax,-0x360(%rbp)
   1838c:	48 8d 85 f4 fa ff ff 	lea    -0x50c(%rbp),%rax
   18393:	48 89 85 a8 fc ff ff 	mov    %rax,-0x358(%rbp)
   1839a:	48 8d 05 9b 5c 00 00 	lea    0x5c9b(%rip),%rax        # 1e03c <g_71+0xc>
   183a1:	48 89 85 b0 fc ff ff 	mov    %rax,-0x350(%rbp)
   183a8:	48 8d 85 90 f9 ff ff 	lea    -0x670(%rbp),%rax
   183af:	48 89 85 b8 fc ff ff 	mov    %rax,-0x348(%rbp)
   183b6:	48 8d 85 90 f9 ff ff 	lea    -0x670(%rbp),%rax
   183bd:	48 89 85 c0 fc ff ff 	mov    %rax,-0x340(%rbp)
   183c4:	48 8d 85 90 f9 ff ff 	lea    -0x670(%rbp),%rax
   183cb:	48 89 85 c8 fc ff ff 	mov    %rax,-0x338(%rbp)
   183d2:	48 8d 85 90 f9 ff ff 	lea    -0x670(%rbp),%rax
   183d9:	48 89 85 d0 fc ff ff 	mov    %rax,-0x330(%rbp)
   183e0:	48 8d 85 90 f9 ff ff 	lea    -0x670(%rbp),%rax
   183e7:	48 89 85 d8 fc ff ff 	mov    %rax,-0x328(%rbp)
   183ee:	48 8d 85 90 f9 ff ff 	lea    -0x670(%rbp),%rax
   183f5:	48 89 85 e0 fc ff ff 	mov    %rax,-0x320(%rbp)
   183fc:	48 8d 85 90 f9 ff ff 	lea    -0x670(%rbp),%rax
   18403:	48 89 85 e8 fc ff ff 	mov    %rax,-0x318(%rbp)
   1840a:	48 8d 85 90 f9 ff ff 	lea    -0x670(%rbp),%rax
   18411:	48 89 85 f0 fc ff ff 	mov    %rax,-0x310(%rbp)
   18418:	48 8d 85 90 f9 ff ff 	lea    -0x670(%rbp),%rax
   1841f:	48 89 85 f8 fc ff ff 	mov    %rax,-0x308(%rbp)
   18426:	48 8d 05 0f 5c 00 00 	lea    0x5c0f(%rip),%rax        # 1e03c <g_71+0xc>
   1842d:	48 89 85 00 fd ff ff 	mov    %rax,-0x300(%rbp)
   18434:	48 8d 85 f4 fa ff ff 	lea    -0x50c(%rbp),%rax
   1843b:	48 89 85 08 fd ff ff 	mov    %rax,-0x2f8(%rbp)
   18442:	48 8d 05 f3 5b 00 00 	lea    0x5bf3(%rip),%rax        # 1e03c <g_71+0xc>
   18449:	48 89 85 10 fd ff ff 	mov    %rax,-0x2f0(%rbp)
   18450:	48 8d 85 f4 fa ff ff 	lea    -0x50c(%rbp),%rax
   18457:	48 89 85 18 fd ff ff 	mov    %rax,-0x2e8(%rbp)
   1845e:	48 8d 05 d7 5b 00 00 	lea    0x5bd7(%rip),%rax        # 1e03c <g_71+0xc>
   18465:	48 89 85 20 fd ff ff 	mov    %rax,-0x2e0(%rbp)
   1846c:	48 8d 85 f4 fa ff ff 	lea    -0x50c(%rbp),%rax
   18473:	48 89 85 28 fd ff ff 	mov    %rax,-0x2d8(%rbp)
   1847a:	48 8d 05 bb 5b 00 00 	lea    0x5bbb(%rip),%rax        # 1e03c <g_71+0xc>
   18481:	48 89 85 30 fd ff ff 	mov    %rax,-0x2d0(%rbp)
   18488:	48 8d 85 f4 fa ff ff 	lea    -0x50c(%rbp),%rax
   1848f:	48 89 85 38 fd ff ff 	mov    %rax,-0x2c8(%rbp)
   18496:	48 8d 05 9f 5b 00 00 	lea    0x5b9f(%rip),%rax        # 1e03c <g_71+0xc>
   1849d:	48 89 85 40 fd ff ff 	mov    %rax,-0x2c0(%rbp)
   184a4:	48 8d 85 90 f9 ff ff 	lea    -0x670(%rbp),%rax
   184ab:	48 89 85 48 fd ff ff 	mov    %rax,-0x2b8(%rbp)
   184b2:	48 8d 85 90 f9 ff ff 	lea    -0x670(%rbp),%rax
   184b9:	48 89 85 50 fd ff ff 	mov    %rax,-0x2b0(%rbp)
   184c0:	48 8d 85 90 f9 ff ff 	lea    -0x670(%rbp),%rax
   184c7:	48 89 85 58 fd ff ff 	mov    %rax,-0x2a8(%rbp)
   184ce:	48 8d 85 90 f9 ff ff 	lea    -0x670(%rbp),%rax
   184d5:	48 89 85 60 fd ff ff 	mov    %rax,-0x2a0(%rbp)
   184dc:	48 8d 85 90 f9 ff ff 	lea    -0x670(%rbp),%rax
   184e3:	48 89 85 68 fd ff ff 	mov    %rax,-0x298(%rbp)
   184ea:	48 8d 85 90 f9 ff ff 	lea    -0x670(%rbp),%rax
   184f1:	48 89 85 70 fd ff ff 	mov    %rax,-0x290(%rbp)
   184f8:	48 8d 85 90 f9 ff ff 	lea    -0x670(%rbp),%rax
   184ff:	48 89 85 78 fd ff ff 	mov    %rax,-0x288(%rbp)
   18506:	48 8d 85 90 f9 ff ff 	lea    -0x670(%rbp),%rax
   1850d:	48 89 85 80 fd ff ff 	mov    %rax,-0x280(%rbp)
   18514:	48 8d 85 90 f9 ff ff 	lea    -0x670(%rbp),%rax
   1851b:	48 89 85 88 fd ff ff 	mov    %rax,-0x278(%rbp)
   18522:	48 8d 05 13 5b 00 00 	lea    0x5b13(%rip),%rax        # 1e03c <g_71+0xc>
   18529:	48 89 85 90 fd ff ff 	mov    %rax,-0x270(%rbp)
   18530:	48 8d 85 f4 fa ff ff 	lea    -0x50c(%rbp),%rax
   18537:	48 89 85 98 fd ff ff 	mov    %rax,-0x268(%rbp)
   1853e:	48 8d 05 f7 5a 00 00 	lea    0x5af7(%rip),%rax        # 1e03c <g_71+0xc>
   18545:	48 89 85 a0 fd ff ff 	mov    %rax,-0x260(%rbp)
   1854c:	48 8d 85 f4 fa ff ff 	lea    -0x50c(%rbp),%rax
   18553:	48 89 85 a8 fd ff ff 	mov    %rax,-0x258(%rbp)
   1855a:	48 8d 05 db 5a 00 00 	lea    0x5adb(%rip),%rax        # 1e03c <g_71+0xc>
   18561:	48 89 85 b0 fd ff ff 	mov    %rax,-0x250(%rbp)
   18568:	48 8d 85 f4 fa ff ff 	lea    -0x50c(%rbp),%rax
   1856f:	48 89 85 b8 fd ff ff 	mov    %rax,-0x248(%rbp)
   18576:	48 8d 05 bf 5a 00 00 	lea    0x5abf(%rip),%rax        # 1e03c <g_71+0xc>
   1857d:	48 89 85 c0 fd ff ff 	mov    %rax,-0x240(%rbp)
   18584:	48 8d 85 f4 fa ff ff 	lea    -0x50c(%rbp),%rax
   1858b:	48 89 85 c8 fd ff ff 	mov    %rax,-0x238(%rbp)
   18592:	48 8d 05 a3 5a 00 00 	lea    0x5aa3(%rip),%rax        # 1e03c <g_71+0xc>
   18599:	48 89 85 d0 fd ff ff 	mov    %rax,-0x230(%rbp)
   185a0:	48 8d 85 90 f9 ff ff 	lea    -0x670(%rbp),%rax
   185a7:	48 89 85 d8 fd ff ff 	mov    %rax,-0x228(%rbp)
   185ae:	48 8d 85 90 f9 ff ff 	lea    -0x670(%rbp),%rax
   185b5:	48 89 85 e0 fd ff ff 	mov    %rax,-0x220(%rbp)
   185bc:	48 8d 85 90 f9 ff ff 	lea    -0x670(%rbp),%rax
   185c3:	48 89 85 e8 fd ff ff 	mov    %rax,-0x218(%rbp)
   185ca:	48 8d 85 90 f9 ff ff 	lea    -0x670(%rbp),%rax
   185d1:	48 89 85 f0 fd ff ff 	mov    %rax,-0x210(%rbp)
   185d8:	48 8d 85 90 f9 ff ff 	lea    -0x670(%rbp),%rax
   185df:	48 89 85 f8 fd ff ff 	mov    %rax,-0x208(%rbp)
   185e6:	48 8d 85 90 f9 ff ff 	lea    -0x670(%rbp),%rax
   185ed:	48 89 85 00 fe ff ff 	mov    %rax,-0x200(%rbp)
   185f4:	48 8d 85 90 f9 ff ff 	lea    -0x670(%rbp),%rax
   185fb:	48 89 85 08 fe ff ff 	mov    %rax,-0x1f8(%rbp)
   18602:	48 8d 85 90 f9 ff ff 	lea    -0x670(%rbp),%rax
   18609:	48 89 85 10 fe ff ff 	mov    %rax,-0x1f0(%rbp)
   18610:	48 8d 85 90 f9 ff ff 	lea    -0x670(%rbp),%rax
   18617:	48 89 85 18 fe ff ff 	mov    %rax,-0x1e8(%rbp)
   1861e:	48 8d 05 17 5a 00 00 	lea    0x5a17(%rip),%rax        # 1e03c <g_71+0xc>
   18625:	48 89 85 20 fe ff ff 	mov    %rax,-0x1e0(%rbp)
   1862c:	48 8d 85 f4 fa ff ff 	lea    -0x50c(%rbp),%rax
   18633:	48 89 85 28 fe ff ff 	mov    %rax,-0x1d8(%rbp)
   1863a:	48 8d 05 fb 59 00 00 	lea    0x59fb(%rip),%rax        # 1e03c <g_71+0xc>
   18641:	48 89 85 30 fe ff ff 	mov    %rax,-0x1d0(%rbp)
   18648:	48 8d 85 f4 fa ff ff 	lea    -0x50c(%rbp),%rax
   1864f:	48 89 85 38 fe ff ff 	mov    %rax,-0x1c8(%rbp)
   18656:	48 8d 05 df 59 00 00 	lea    0x59df(%rip),%rax        # 1e03c <g_71+0xc>
   1865d:	48 89 85 40 fe ff ff 	mov    %rax,-0x1c0(%rbp)
   18664:	48 8d 85 f4 fa ff ff 	lea    -0x50c(%rbp),%rax
   1866b:	48 89 85 48 fe ff ff 	mov    %rax,-0x1b8(%rbp)
   18672:	48 8d 05 c3 59 00 00 	lea    0x59c3(%rip),%rax        # 1e03c <g_71+0xc>
   18679:	48 89 85 50 fe ff ff 	mov    %rax,-0x1b0(%rbp)
   18680:	48 8d 85 f4 fa ff ff 	lea    -0x50c(%rbp),%rax
   18687:	48 89 85 58 fe ff ff 	mov    %rax,-0x1a8(%rbp)
   1868e:	48 8d 05 a7 59 00 00 	lea    0x59a7(%rip),%rax        # 1e03c <g_71+0xc>
   18695:	48 89 85 60 fe ff ff 	mov    %rax,-0x1a0(%rbp)
   1869c:	48 8d 85 90 f9 ff ff 	lea    -0x670(%rbp),%rax
   186a3:	48 89 85 68 fe ff ff 	mov    %rax,-0x198(%rbp)
   186aa:	48 8d 85 90 f9 ff ff 	lea    -0x670(%rbp),%rax
   186b1:	48 89 85 70 fe ff ff 	mov    %rax,-0x190(%rbp)
   186b8:	48 8d 85 90 f9 ff ff 	lea    -0x670(%rbp),%rax
   186bf:	48 89 85 78 fe ff ff 	mov    %rax,-0x188(%rbp)
   186c6:	48 8d 85 90 f9 ff ff 	lea    -0x670(%rbp),%rax
   186cd:	48 89 85 80 fe ff ff 	mov    %rax,-0x180(%rbp)
   186d4:	48 8d 85 90 f9 ff ff 	lea    -0x670(%rbp),%rax
   186db:	48 89 85 88 fe ff ff 	mov    %rax,-0x178(%rbp)
   186e2:	48 8d 85 90 f9 ff ff 	lea    -0x670(%rbp),%rax
   186e9:	48 89 85 90 fe ff ff 	mov    %rax,-0x170(%rbp)
   186f0:	48 8d 85 90 f9 ff ff 	lea    -0x670(%rbp),%rax
   186f7:	48 89 85 98 fe ff ff 	mov    %rax,-0x168(%rbp)
   186fe:	48 8d 85 90 f9 ff ff 	lea    -0x670(%rbp),%rax
   18705:	48 89 85 a0 fe ff ff 	mov    %rax,-0x160(%rbp)
   1870c:	48 8d 85 90 f9 ff ff 	lea    -0x670(%rbp),%rax
   18713:	48 89 85 a8 fe ff ff 	mov    %rax,-0x158(%rbp)
   1871a:	48 8d 05 1b 59 00 00 	lea    0x591b(%rip),%rax        # 1e03c <g_71+0xc>
   18721:	48 89 85 b0 fe ff ff 	mov    %rax,-0x150(%rbp)
   18728:	48 8d 85 f4 fa ff ff 	lea    -0x50c(%rbp),%rax
   1872f:	48 89 85 b8 fe ff ff 	mov    %rax,-0x148(%rbp)
   18736:	48 8d 05 ff 58 00 00 	lea    0x58ff(%rip),%rax        # 1e03c <g_71+0xc>
   1873d:	48 89 85 c0 fe ff ff 	mov    %rax,-0x140(%rbp)
   18744:	48 8d 85 f4 fa ff ff 	lea    -0x50c(%rbp),%rax
   1874b:	48 89 85 c8 fe ff ff 	mov    %rax,-0x138(%rbp)
   18752:	48 8d 05 e3 58 00 00 	lea    0x58e3(%rip),%rax        # 1e03c <g_71+0xc>
   18759:	48 89 85 d0 fe ff ff 	mov    %rax,-0x130(%rbp)
   18760:	48 8d 85 f4 fa ff ff 	lea    -0x50c(%rbp),%rax
   18767:	48 89 85 d8 fe ff ff 	mov    %rax,-0x128(%rbp)
   1876e:	48 8d 05 c7 58 00 00 	lea    0x58c7(%rip),%rax        # 1e03c <g_71+0xc>
   18775:	48 89 85 e0 fe ff ff 	mov    %rax,-0x120(%rbp)
   1877c:	48 8d 85 f4 fa ff ff 	lea    -0x50c(%rbp),%rax
   18783:	48 89 85 e8 fe ff ff 	mov    %rax,-0x118(%rbp)
   1878a:	48 8d 05 ab 58 00 00 	lea    0x58ab(%rip),%rax        # 1e03c <g_71+0xc>
   18791:	48 89 85 f0 fe ff ff 	mov    %rax,-0x110(%rbp)
   18798:	48 8d 85 90 f9 ff ff 	lea    -0x670(%rbp),%rax
   1879f:	48 89 85 f8 fe ff ff 	mov    %rax,-0x108(%rbp)
   187a6:	48 8d 85 90 f9 ff ff 	lea    -0x670(%rbp),%rax
   187ad:	48 89 85 00 ff ff ff 	mov    %rax,-0x100(%rbp)
   187b4:	48 8d 85 90 f9 ff ff 	lea    -0x670(%rbp),%rax
   187bb:	48 89 85 08 ff ff ff 	mov    %rax,-0xf8(%rbp)
   187c2:	48 8d 85 90 f9 ff ff 	lea    -0x670(%rbp),%rax
   187c9:	48 89 85 10 ff ff ff 	mov    %rax,-0xf0(%rbp)
   187d0:	48 8d 85 90 f9 ff ff 	lea    -0x670(%rbp),%rax
   187d7:	48 89 85 18 ff ff ff 	mov    %rax,-0xe8(%rbp)
   187de:	48 8d 85 90 f9 ff ff 	lea    -0x670(%rbp),%rax
   187e5:	48 89 85 20 ff ff ff 	mov    %rax,-0xe0(%rbp)
   187ec:	48 8d 85 90 f9 ff ff 	lea    -0x670(%rbp),%rax
   187f3:	48 89 85 28 ff ff ff 	mov    %rax,-0xd8(%rbp)
   187fa:	48 8d 85 90 f9 ff ff 	lea    -0x670(%rbp),%rax
   18801:	48 89 85 30 ff ff ff 	mov    %rax,-0xd0(%rbp)
   18808:	48 8d 85 90 f9 ff ff 	lea    -0x670(%rbp),%rax
   1880f:	48 89 85 38 ff ff ff 	mov    %rax,-0xc8(%rbp)
   18816:	48 8d 05 1f 58 00 00 	lea    0x581f(%rip),%rax        # 1e03c <g_71+0xc>
   1881d:	48 89 85 40 ff ff ff 	mov    %rax,-0xc0(%rbp)
   18824:	48 8d 85 f4 fa ff ff 	lea    -0x50c(%rbp),%rax
   1882b:	48 89 85 48 ff ff ff 	mov    %rax,-0xb8(%rbp)
   18832:	48 8d 05 03 58 00 00 	lea    0x5803(%rip),%rax        # 1e03c <g_71+0xc>
   18839:	48 89 85 50 ff ff ff 	mov    %rax,-0xb0(%rbp)
   18840:	48 8d 85 f4 fa ff ff 	lea    -0x50c(%rbp),%rax
   18847:	48 89 85 58 ff ff ff 	mov    %rax,-0xa8(%rbp)
   1884e:	48 8d 05 e7 57 00 00 	lea    0x57e7(%rip),%rax        # 1e03c <g_71+0xc>
   18855:	48 89 85 60 ff ff ff 	mov    %rax,-0xa0(%rbp)
   1885c:	48 8d 85 f4 fa ff ff 	lea    -0x50c(%rbp),%rax
   18863:	48 89 85 68 ff ff ff 	mov    %rax,-0x98(%rbp)
   1886a:	48 8d 05 cb 57 00 00 	lea    0x57cb(%rip),%rax        # 1e03c <g_71+0xc>
   18871:	48 89 85 70 ff ff ff 	mov    %rax,-0x90(%rbp)
   18878:	48 8d 85 f4 fa ff ff 	lea    -0x50c(%rbp),%rax
   1887f:	48 89 85 78 ff ff ff 	mov    %rax,-0x88(%rbp)
   18886:	48 8d 05 af 57 00 00 	lea    0x57af(%rip),%rax        # 1e03c <g_71+0xc>
   1888d:	48 89 45 80          	mov    %rax,-0x80(%rbp)
   18891:	48 8d 85 90 f9 ff ff 	lea    -0x670(%rbp),%rax
   18898:	48 89 45 88          	mov    %rax,-0x78(%rbp)
   1889c:	48 8d 85 90 f9 ff ff 	lea    -0x670(%rbp),%rax
   188a3:	48 89 45 90          	mov    %rax,-0x70(%rbp)
   188a7:	48 8d 85 90 f9 ff ff 	lea    -0x670(%rbp),%rax
   188ae:	48 89 45 98          	mov    %rax,-0x68(%rbp)
   188b2:	48 8d 85 90 f9 ff ff 	lea    -0x670(%rbp),%rax
   188b9:	48 89 45 a0          	mov    %rax,-0x60(%rbp)
   188bd:	48 8d 85 90 f9 ff ff 	lea    -0x670(%rbp),%rax
   188c4:	48 89 45 a8          	mov    %rax,-0x58(%rbp)
   188c8:	48 8d 85 90 f9 ff ff 	lea    -0x670(%rbp),%rax
   188cf:	48 89 45 b0          	mov    %rax,-0x50(%rbp)
   188d3:	48 8d 85 90 f9 ff ff 	lea    -0x670(%rbp),%rax
   188da:	48 89 45 b8          	mov    %rax,-0x48(%rbp)
   188de:	48 8d 85 90 f9 ff ff 	lea    -0x670(%rbp),%rax
   188e5:	48 89 45 c0          	mov    %rax,-0x40(%rbp)
   188e9:	48 8d 85 90 f9 ff ff 	lea    -0x670(%rbp),%rax
   188f0:	48 89 45 c8          	mov    %rax,-0x38(%rbp)
   188f4:	48 c7 85 a8 f9 ff ff 	movq   $0x0,-0x658(%rbp)
   188fb:	00 00 00 00 
   188ff:	c7 85 a8 f9 ff ff d6 	movl   $0x8dd83bd6,-0x658(%rbp)
   18906:	3b d8 8d 
   18909:	48 8d 85 58 f9 ff ff 	lea    -0x6a8(%rbp),%rax
   18910:	48 89 85 68 fa ff ff 	mov    %rax,-0x598(%rbp)
   18917:	48 8d 85 a0 f9 ff ff 	lea    -0x660(%rbp),%rax
   1891e:	48 89 85 70 fa ff ff 	mov    %rax,-0x590(%rbp)
   18925:	c7 85 88 f9 ff ff 08 	movl   $0x69a84808,-0x678(%rbp)
   1892c:	48 a8 69 
   1892f:	c7 85 40 f9 ff ff ff 	movl   $0xffffffff,-0x6c0(%rbp)
   18936:	ff ff ff 
   18939:	48 c7 85 78 fa ff ff 	movq   $0x9,-0x588(%rbp)
   18940:	09 00 00 00 
   18944:	48 8d 05 95 6d 00 00 	lea    0x6d95(%rip),%rax        # 1f6e0 <g_320+0x40>
   1894b:	48 89 85 80 fa ff ff 	mov    %rax,-0x580(%rbp)
   18952:	48 8d 05 1f 6e 00 00 	lea    0x6e1f(%rip),%rax        # 1f778 <g_369>
   18959:	48 89 85 88 fa ff ff 	mov    %rax,-0x578(%rbp)
   18960:	48 8d 85 88 f9 ff ff 	lea    -0x678(%rbp),%rax
   18967:	48 89 85 90 fa ff ff 	mov    %rax,-0x570(%rbp)
   1896e:	c7 85 44 f9 ff ff fb 	movl   $0xfffffffb,-0x6bc(%rbp)
   18975:	ff ff ff 
   18978:	c7 85 0c f9 ff ff 00 	movl   $0x0,-0x6f4(%rbp)
   1897f:	00 00 00 
   18982:	eb 1b                	jmp    1899f <func_55+0x14d8>
   18984:	8b 85 0c f9 ff ff    	mov    -0x6f4(%rbp),%eax
   1898a:	48 98                	cltq   
   1898c:	48 c7 84 c5 20 fc ff 	movq   $0x1,-0x3e0(%rbp,%rax,8)
   18993:	ff 01 00 00 00 
   18998:	83 85 0c f9 ff ff 01 	addl   $0x1,-0x6f4(%rbp)
   1899f:	83 bd 0c f9 ff ff 08 	cmpl   $0x8,-0x6f4(%rbp)
   189a6:	7e dc                	jle    18984 <func_55+0x14bd>
   189a8:	0f b7 05 31 58 00 00 	movzwl 0x5831(%rip),%eax        # 1e1e0 <g_131>
   189af:	83 c0 01             	add    $0x1,%eax
   189b2:	66 89 05 27 58 00 00 	mov    %ax,0x5827(%rip)        # 1e1e0 <g_131>
   189b9:	0f b7 05 20 58 00 00 	movzwl 0x5820(%rip),%eax        # 1e1e0 <g_131>
   189c0:	66 83 f8 01          	cmp    $0x1,%ax
   189c4:	0f 8e f2 f8 ff ff    	jle    182bc <func_55+0xdf5>
   189ca:	66 c7 05 0d 58 00 00 	movw   $0x0,0x580d(%rip)        # 1e1e0 <g_131>
   189d1:	00 00 
   189d3:	e9 9f 09 00 00       	jmpq   19377 <func_55+0x1eb0>
   189d8:	48 8d 85 f4 fa ff ff 	lea    -0x50c(%rbp),%rax
   189df:	48 83 c0 08          	add    $0x8,%rax
   189e3:	48 89 85 20 fc ff ff 	mov    %rax,-0x3e0(%rbp)
   189ea:	48 8d 05 57 56 00 00 	lea    0x5657(%rip),%rax        # 1e048 <g_71+0x18>
   189f1:	48 89 85 28 fc ff ff 	mov    %rax,-0x3d8(%rbp)
   189f8:	48 8d 85 f4 fa ff ff 	lea    -0x50c(%rbp),%rax
   189ff:	48 83 c0 08          	add    $0x8,%rax
   18a03:	48 89 85 30 fc ff ff 	mov    %rax,-0x3d0(%rbp)
   18a0a:	48 8d 85 f4 fa ff ff 	lea    -0x50c(%rbp),%rax
   18a11:	48 83 c0 08          	add    $0x8,%rax
   18a15:	48 89 85 38 fc ff ff 	mov    %rax,-0x3c8(%rbp)
   18a1c:	48 8d 05 25 56 00 00 	lea    0x5625(%rip),%rax        # 1e048 <g_71+0x18>
   18a23:	48 89 85 40 fc ff ff 	mov    %rax,-0x3c0(%rbp)
   18a2a:	48 8d 85 f4 fa ff ff 	lea    -0x50c(%rbp),%rax
   18a31:	48 83 c0 08          	add    $0x8,%rax
   18a35:	48 89 85 48 fc ff ff 	mov    %rax,-0x3b8(%rbp)
   18a3c:	48 8d 85 f4 fa ff ff 	lea    -0x50c(%rbp),%rax
   18a43:	48 83 c0 08          	add    $0x8,%rax
   18a47:	48 89 85 50 fc ff ff 	mov    %rax,-0x3b0(%rbp)
   18a4e:	48 8d 05 f3 55 00 00 	lea    0x55f3(%rip),%rax        # 1e048 <g_71+0x18>
   18a55:	48 89 85 58 fc ff ff 	mov    %rax,-0x3a8(%rbp)
   18a5c:	48 8d 85 f4 fa ff ff 	lea    -0x50c(%rbp),%rax
   18a63:	48 83 c0 08          	add    $0x8,%rax
   18a67:	48 89 85 60 fc ff ff 	mov    %rax,-0x3a0(%rbp)
   18a6e:	48 8d 85 f4 fa ff ff 	lea    -0x50c(%rbp),%rax
   18a75:	48 83 c0 08          	add    $0x8,%rax
   18a79:	48 89 85 68 fc ff ff 	mov    %rax,-0x398(%rbp)
   18a80:	c6 85 eb f8 ff ff 6f 	movb   $0x6f,-0x715(%rbp)
   18a87:	48 c7 85 c8 f9 ff ff 	movq   $0x1,-0x638(%rbp)
   18a8e:	01 00 00 00 
   18a92:	48 c7 85 d0 f9 ff ff 	movq   $0x0,-0x630(%rbp)
   18a99:	00 00 00 00 
   18a9d:	48 b8 1f 5e ea 07 bf 	movabs $0x4c5f00bf07ea5e1f,%rax
   18aa4:	00 5f 4c 
   18aa7:	48 89 85 d8 f9 ff ff 	mov    %rax,-0x628(%rbp)
   18aae:	66 c7 85 f2 f8 ff ff 	movw   $0xc7d3,-0x70e(%rbp)
   18ab5:	d3 c7 
   18ab7:	48 c7 85 e0 f9 ff ff 	movq   $0x0,-0x620(%rbp)
   18abe:	00 00 00 00 
   18ac2:	48 8b 85 58 f9 ff ff 	mov    -0x6a8(%rbp),%rax
   18ac9:	48 8b 95 50 fc ff ff 	mov    -0x3b0(%rbp),%rdx
   18ad0:	48 89 10             	mov    %rdx,(%rax)
   18ad3:	48 c7 05 0a 57 00 00 	movq   $0x0,0x570a(%rip)        # 1e1e8 <g_174>
   18ada:	00 00 00 00 
   18ade:	e9 73 08 00 00       	jmpq   19356 <func_55+0x1e8f>
   18ae3:	c7 85 20 f9 ff ff 37 	movl   $0xf9c36837,-0x6e0(%rbp)
   18aea:	68 c3 f9 
   18aed:	c7 85 24 f9 ff ff fd 	movl   $0xfffffffd,-0x6dc(%rbp)
   18af4:	ff ff ff 
   18af7:	c7 85 70 fc ff ff fd 	movl   $0xfffffffd,-0x390(%rbp)
   18afe:	ff ff ff 
   18b01:	c7 85 74 fc ff ff 00 	movl   $0x0,-0x38c(%rbp)
   18b08:	00 00 00 
   18b0b:	c7 85 78 fc ff ff 01 	movl   $0x1,-0x388(%rbp)
   18b12:	00 00 00 
   18b15:	c7 85 7c fc ff ff 00 	movl   $0x0,-0x384(%rbp)
   18b1c:	00 00 00 
   18b1f:	c7 85 80 fc ff ff fd 	movl   $0xfffffffd,-0x380(%rbp)
   18b26:	ff ff ff 
   18b29:	c7 85 84 fc ff ff 01 	movl   $0x1,-0x37c(%rbp)
   18b30:	00 00 00 
   18b33:	c7 85 88 fc ff ff 00 	movl   $0x0,-0x378(%rbp)
   18b3a:	00 00 00 
   18b3d:	c7 85 8c fc ff ff 00 	movl   $0x0,-0x374(%rbp)
   18b44:	00 00 00 
   18b47:	c7 85 90 fc ff ff bc 	movl   $0xbfa013bc,-0x370(%rbp)
   18b4e:	13 a0 bf 
   18b51:	c7 85 94 fc ff ff 00 	movl   $0x0,-0x36c(%rbp)
   18b58:	00 00 00 
   18b5b:	c7 85 98 fc ff ff ff 	movl   $0xffffffff,-0x368(%rbp)
   18b62:	ff ff ff 
   18b65:	c7 85 9c fc ff ff ff 	movl   $0xffffffff,-0x364(%rbp)
   18b6c:	ff ff ff 
   18b6f:	c7 85 a0 fc ff ff 00 	movl   $0x0,-0x360(%rbp)
   18b76:	00 00 00 
   18b79:	c7 85 a4 fc ff ff bc 	movl   $0xbfa013bc,-0x35c(%rbp)
   18b80:	13 a0 bf 
   18b83:	c7 85 a8 fc ff ff 00 	movl   $0x0,-0x358(%rbp)
   18b8a:	00 00 00 
   18b8d:	c7 85 ac fc ff ff 00 	movl   $0x0,-0x354(%rbp)
   18b94:	00 00 00 
   18b97:	c7 85 b0 fc ff ff 00 	movl   $0x0,-0x350(%rbp)
   18b9e:	00 00 00 
   18ba1:	c7 85 b4 fc ff ff 00 	movl   $0x0,-0x34c(%rbp)
   18ba8:	00 00 00 
   18bab:	c7 85 b8 fc ff ff ff 	movl   $0xffffffff,-0x348(%rbp)
   18bb2:	ff ff ff 
   18bb5:	c7 85 bc fc ff ff 00 	movl   $0x0,-0x344(%rbp)
   18bbc:	00 00 00 
   18bbf:	c7 85 c0 fc ff ff ff 	movl   $0xffffffff,-0x340(%rbp)
   18bc6:	ff ff ff 
   18bc9:	c7 85 c4 fc ff ff 00 	movl   $0x0,-0x33c(%rbp)
   18bd0:	00 00 00 
   18bd3:	c7 85 c8 fc ff ff 00 	movl   $0x0,-0x338(%rbp)
   18bda:	00 00 00 
   18bdd:	c7 85 cc fc ff ff bc 	movl   $0xbfa013bc,-0x334(%rbp)
   18be4:	13 a0 bf 
   18be7:	c7 85 28 f9 ff ff 30 	movl   $0x3542c730,-0x6d8(%rbp)
   18bee:	c7 42 35 
   18bf1:	48 8d 05 f0 55 00 00 	lea    0x55f0(%rip),%rax        # 1e1e8 <g_174>
   18bf8:	48 89 85 e8 f9 ff ff 	mov    %rax,-0x618(%rbp)
   18bff:	48 8d 05 0a 80 00 00 	lea    0x800a(%rip),%rax        # 20c10 <g_272>
   18c06:	48 89 85 f0 f9 ff ff 	mov    %rax,-0x610(%rbp)
   18c0d:	c6 85 ec f8 ff ff 00 	movb   $0x0,-0x714(%rbp)
   18c14:	c6 85 e9 f8 ff ff 00 	movb   $0x0,-0x717(%rbp)
   18c1b:	48 8d 85 70 fc ff ff 	lea    -0x390(%rbp),%rax
   18c22:	48 83 c0 1c          	add    $0x1c,%rax
   18c26:	48 89 85 f8 f9 ff ff 	mov    %rax,-0x608(%rbp)
   18c2d:	c6 85 ed f8 ff ff b9 	movb   $0xb9,-0x713(%rbp)
   18c34:	48 8b 05 25 6a 00 00 	mov    0x6a25(%rip),%rax        # 1f660 <g_193>
   18c3b:	0f b6 00             	movzbl (%rax),%eax
   18c3e:	0f b6 c8             	movzbl %al,%ecx
   18c41:	48 8b 85 78 f9 ff ff 	mov    -0x688(%rbp),%rax
   18c48:	48 8b 00             	mov    (%rax),%rax
   18c4b:	48 8b 00             	mov    (%rax),%rax
   18c4e:	0f b6 10             	movzbl (%rax),%edx
   18c51:	8d 72 ff             	lea    -0x1(%rdx),%esi
   18c54:	40 88 30             	mov    %sil,(%rax)
   18c57:	0f b6 c2             	movzbl %dl,%eax
   18c5a:	89 ce                	mov    %ecx,%esi
   18c5c:	89 c7                	mov    %eax,%edi
   18c5e:	e8 e9 df fe ff       	callq  6c4c <safe_lshift_func_uint8_t_u_u>
   18c63:	0f b6 c0             	movzbl %al,%eax
   18c66:	89 85 20 f9 ff ff    	mov    %eax,-0x6e0(%rbp)
   18c6c:	8b 85 20 f9 ff ff    	mov    -0x6e0(%rbp),%eax
   18c72:	09 85 24 f9 ff ff    	or     %eax,-0x6dc(%rbp)
   18c78:	48 c7 85 b8 f9 ff ff 	movq   $0x3,-0x648(%rbp)
   18c7f:	03 00 00 00 
   18c83:	48 83 bd b8 f9 ff ff 	cmpq   $0x0,-0x648(%rbp)
   18c8a:	00 
   18c8b:	0f 88 56 03 00 00    	js     18fe7 <func_55+0x1b20>
   18c91:	48 8d 05 b8 69 00 00 	lea    0x69b8(%rip),%rax        # 1f650 <g_38>
   18c98:	48 89 85 a0 f9 ff ff 	mov    %rax,-0x660(%rbp)
   18c9f:	48 8d 85 a0 f9 ff ff 	lea    -0x660(%rbp),%rax
   18ca6:	48 89 85 20 fa ff ff 	mov    %rax,-0x5e0(%rbp)
   18cad:	c7 85 38 f9 ff ff ff 	movl   $0xffffffff,-0x6c8(%rbp)
   18cb4:	ff ff ff 
   18cb7:	c7 85 3c f9 ff ff 36 	movl   $0x58c4f036,-0x6c4(%rbp)
   18cbe:	f0 c4 58 
   18cc1:	c7 85 d0 fb ff ff 07 	movl   $0x7,-0x430(%rbp)
   18cc8:	00 00 00 
   18ccb:	c7 85 d4 fb ff ff 07 	movl   $0x7,-0x42c(%rbp)
   18cd2:	00 00 00 
   18cd5:	c7 85 d8 fb ff ff 07 	movl   $0x7,-0x428(%rbp)
   18cdc:	00 00 00 
   18cdf:	c7 85 dc fb ff ff 07 	movl   $0x7,-0x424(%rbp)
   18ce6:	00 00 00 
   18ce9:	c7 85 e0 fb ff ff 07 	movl   $0x7,-0x420(%rbp)
   18cf0:	00 00 00 
   18cf3:	c7 85 e4 fb ff ff 07 	movl   $0x7,-0x41c(%rbp)
   18cfa:	00 00 00 
   18cfd:	c7 85 e8 fb ff ff 07 	movl   $0x7,-0x418(%rbp)
   18d04:	00 00 00 
   18d07:	c7 85 ec fb ff ff 07 	movl   $0x7,-0x414(%rbp)
   18d0e:	00 00 00 
   18d11:	c7 85 f0 fb ff ff 07 	movl   $0x7,-0x410(%rbp)
   18d18:	00 00 00 
   18d1b:	c7 85 f4 fb ff ff 07 	movl   $0x7,-0x40c(%rbp)
   18d22:	00 00 00 
   18d25:	c7 85 f8 fb ff ff 07 	movl   $0x7,-0x408(%rbp)
   18d2c:	00 00 00 
   18d2f:	c7 85 fc fb ff ff 07 	movl   $0x7,-0x404(%rbp)
   18d36:	00 00 00 
   18d39:	c7 85 00 fc ff ff 07 	movl   $0x7,-0x400(%rbp)
   18d40:	00 00 00 
   18d43:	c7 85 04 fc ff ff 07 	movl   $0x7,-0x3fc(%rbp)
   18d4a:	00 00 00 
   18d4d:	c7 85 08 fc ff ff 07 	movl   $0x7,-0x3f8(%rbp)
   18d54:	00 00 00 
   18d57:	c7 85 0c fc ff ff 07 	movl   $0x7,-0x3f4(%rbp)
   18d5e:	00 00 00 
   18d61:	c7 85 10 fc ff ff 07 	movl   $0x7,-0x3f0(%rbp)
   18d68:	00 00 00 
   18d6b:	c7 85 14 fc ff ff 07 	movl   $0x7,-0x3ec(%rbp)
   18d72:	00 00 00 
   18d75:	48 8d 05 7c 7e 00 00 	lea    0x7e7c(%rip),%rax        # 20bf8 <g_87+0x8>
   18d7c:	48 89 85 28 fa ff ff 	mov    %rax,-0x5d8(%rbp)
   18d83:	c7 85 10 f9 ff ff 00 	movl   $0x0,-0x6f0(%rbp)
   18d8a:	00 00 00 
   18d8d:	eb 1a                	jmp    18da9 <func_55+0x18e2>
   18d8f:	8b 85 10 f9 ff ff    	mov    -0x6f0(%rbp),%eax
   18d95:	48 98                	cltq   
   18d97:	c7 84 85 00 fb ff ff 	movl   $0x2,-0x500(%rbp,%rax,4)
   18d9e:	02 00 00 00 
   18da2:	83 85 10 f9 ff ff 01 	addl   $0x1,-0x6f0(%rbp)
   18da9:	83 bd 10 f9 ff ff 03 	cmpl   $0x3,-0x6f0(%rbp)
   18db0:	7e dd                	jle    18d8f <func_55+0x18c8>
   18db2:	48 8b 85 20 fa ff ff 	mov    -0x5e0(%rbp),%rax
   18db9:	48 8d 15 90 68 00 00 	lea    0x6890(%rip),%rdx        # 1f650 <g_38>
   18dc0:	48 89 10             	mov    %rdx,(%rax)
   18dc3:	48 b8 85 06 5c 4e 39 	movabs $0x7d7bc0394e5c0685,%rax
   18dca:	c0 7b 7d 
   18dcd:	48 89 85 30 fa ff ff 	mov    %rax,-0x5d0(%rbp)
   18dd4:	c6 85 d4 f8 ff ff 00 	movb   $0x0,-0x72c(%rbp)
   18ddb:	e9 84 01 00 00       	jmpq   18f64 <func_55+0x1a9d>
   18de0:	48 c7 85 a8 f9 ff ff 	movq   $0x0,-0x658(%rbp)
   18de7:	00 00 00 00 
   18deb:	48 8d 85 a8 f9 ff ff 	lea    -0x658(%rbp),%rax
   18df2:	48 89 85 38 fa ff ff 	mov    %rax,-0x5c8(%rbp)
   18df9:	48 8b 05 88 68 00 00 	mov    0x6888(%rip),%rax        # 1f688 <g_297>
   18e00:	48 8b 00             	mov    (%rax),%rax
   18e03:	48 8b 00             	mov    (%rax),%rax
   18e06:	0f b7 05 d3 53 00 00 	movzwl 0x53d3(%rip),%eax        # 1e1e0 <g_131>
   18e0d:	83 c8 01             	or     $0x1,%eax
   18e10:	0f be c0             	movsbl %al,%eax
   18e13:	89 c6                	mov    %eax,%esi
   18e15:	bf f7 ff ff ff       	mov    $0xfffffff7,%edi
   18e1a:	e8 f3 d3 fe ff       	callq  6212 <safe_mul_func_int8_t_s_s>
   18e1f:	0f be d0             	movsbl %al,%edx
   18e22:	48 83 bd d8 f8 ff ff 	cmpq   $0x0,-0x728(%rbp)
   18e29:	00 
   18e2a:	0f 95 c0             	setne  %al
   18e2d:	0f b6 c8             	movzbl %al,%ecx
   18e30:	0f bf 85 d0 f8 ff ff 	movswl -0x730(%rbp),%eax
   18e37:	39 c1                	cmp    %eax,%ecx
   18e39:	0f 94 c0             	sete   %al
   18e3c:	0f b6 c0             	movzbl %al,%eax
   18e3f:	39 c2                	cmp    %eax,%edx
   18e41:	0f 9c c0             	setl   %al
   18e44:	0f b6 c0             	movzbl %al,%eax
   18e47:	48 be da 37 a0 35 a4 	movabs $0x55db0ba435a037da,%rsi
   18e4e:	0b db 55 
   18e51:	48 89 c7             	mov    %rax,%rdi
   18e54:	e8 f2 e1 fe ff       	callq  704b <safe_sub_func_uint64_t_u_u>
   18e59:	0f be c0             	movsbl %al,%eax
   18e5c:	be 06 00 00 00       	mov    $0x6,%esi
   18e61:	89 c7                	mov    %eax,%edi
   18e63:	e8 86 d4 fe ff       	callq  62ee <safe_lshift_func_int8_t_s_u>
   18e68:	0f b6 f0             	movzbl %al,%esi
   18e6b:	0f b7 05 6e 53 00 00 	movzwl 0x536e(%rip),%eax        # 1e1e0 <g_131>
   18e72:	98                   	cwtl   
   18e73:	8d 50 05             	lea    0x5(%rax),%edx
   18e76:	48 8b 05 6b 53 00 00 	mov    0x536b(%rip),%rax        # 1e1e8 <g_174>
   18e7d:	48 8d 78 03          	lea    0x3(%rax),%rdi
   18e81:	48 8b 85 b8 f9 ff ff 	mov    -0x648(%rbp),%rax
   18e88:	48 63 ca             	movslq %edx,%rcx
   18e8b:	48 89 c2             	mov    %rax,%rdx
   18e8e:	48 01 d2             	add    %rdx,%rdx
   18e91:	48 01 c2             	add    %rax,%rdx
   18e94:	48 8d 04 12          	lea    (%rdx,%rdx,1),%rax
   18e98:	48 89 c2             	mov    %rax,%rdx
   18e9b:	48 89 c8             	mov    %rcx,%rax
   18e9e:	48 01 c0             	add    %rax,%rax
   18ea1:	48 01 c8             	add    %rcx,%rax
   18ea4:	48 c1 e0 03          	shl    $0x3,%rax
   18ea8:	48 01 d0             	add    %rdx,%rax
   18eab:	48 01 f8             	add    %rdi,%rax
   18eae:	48 8d 14 00          	lea    (%rax,%rax,1),%rdx
   18eb2:	48 8d 05 a7 51 00 00 	lea    0x51a7(%rip),%rax        # 1e060 <g_129>
   18eb9:	0f b7 04 02          	movzwl (%rdx,%rax,1),%eax
   18ebd:	98                   	cwtl   
   18ebe:	8b 95 8c fc ff ff    	mov    -0x374(%rbp),%edx
   18ec4:	f7 d2                	not    %edx
   18ec6:	39 d0                	cmp    %edx,%eax
   18ec8:	0f 9e c0             	setle  %al
   18ecb:	0f b6 c0             	movzbl %al,%eax
   18ece:	89 c7                	mov    %eax,%edi
   18ed0:	e8 be dc fe ff       	callq  6b93 <safe_mul_func_uint8_t_u_u>
   18ed5:	48 8b 85 38 fa ff ff 	mov    -0x5c8(%rbp),%rax
   18edc:	48 8d 15 15 7d 00 00 	lea    0x7d15(%rip),%rdx        # 20bf8 <g_87+0x8>
   18ee3:	48 89 10             	mov    %rdx,(%rax)
   18ee6:	48 8b 85 38 fa ff ff 	mov    -0x5c8(%rbp),%rax
   18eed:	48 8b 00             	mov    (%rax),%rax
   18ef0:	48 89 85 28 fa ff ff 	mov    %rax,-0x5d8(%rbp)
   18ef7:	48 8d 05 52 67 00 00 	lea    0x6752(%rip),%rax        # 1f650 <g_38>
   18efe:	48 39 85 28 fa ff ff 	cmp    %rax,-0x5d8(%rbp)
   18f05:	0f 95 c0             	setne  %al
   18f08:	0f b6 c0             	movzbl %al,%eax
   18f0b:	f7 d0                	not    %eax
   18f0d:	48 98                	cltq   
   18f0f:	48 8b 95 30 fa ff ff 	mov    -0x5d0(%rbp),%rdx
   18f16:	48 89 d6             	mov    %rdx,%rsi
   18f19:	48 89 c7             	mov    %rax,%rdi
   18f1c:	e8 0d e1 fe ff       	callq  702e <safe_add_func_uint64_t_u_u>
   18f21:	48 89 c2             	mov    %rax,%rdx
   18f24:	48 8b 05 25 68 00 00 	mov    0x6825(%rip),%rax        # 1f750 <g_321>
   18f2b:	89 10                	mov    %edx,(%rax)
   18f2d:	8b 95 84 fc ff ff    	mov    -0x37c(%rbp),%edx
   18f33:	0f bf 85 d0 f8 ff ff 	movswl -0x730(%rbp),%eax
   18f3a:	09 d0                	or     %edx,%eax
   18f3c:	89 85 84 fc ff ff    	mov    %eax,-0x37c(%rbp)
   18f42:	48 8b 85 58 f9 ff ff 	mov    -0x6a8(%rbp),%rax
   18f49:	48 8b 00             	mov    (%rax),%rax
   18f4c:	8b 95 84 fc ff ff    	mov    -0x37c(%rbp),%edx
   18f52:	89 10                	mov    %edx,(%rax)
   18f54:	0f b6 85 d4 f8 ff ff 	movzbl -0x72c(%rbp),%eax
   18f5b:	83 c0 01             	add    $0x1,%eax
   18f5e:	88 85 d4 f8 ff ff    	mov    %al,-0x72c(%rbp)
   18f64:	0f b6 85 d4 f8 ff ff 	movzbl -0x72c(%rbp),%eax
   18f6b:	3c 01                	cmp    $0x1,%al
   18f6d:	0f 86 6d fe ff ff    	jbe    18de0 <func_55+0x1919>
   18f73:	48 8b 85 20 fa ff ff 	mov    -0x5e0(%rbp),%rax
   18f7a:	48 8b 00             	mov    (%rax),%rax
   18f7d:	48 8b 00             	mov    (%rax),%rax
   18f80:	48 8b 95 50 fc ff ff 	mov    -0x3b0(%rbp),%rdx
   18f87:	48 89 10             	mov    %rdx,(%rax)
   18f8a:	0f b7 05 4f 52 00 00 	movzwl 0x524f(%rip),%eax        # 1e1e0 <g_131>
   18f91:	98                   	cwtl   
   18f92:	8d 50 02             	lea    0x2(%rax),%edx
   18f95:	0f b7 05 44 52 00 00 	movzwl 0x5244(%rip),%eax        # 1e1e0 <g_131>
   18f9c:	98                   	cwtl   
   18f9d:	83 c0 02             	add    $0x2,%eax
   18fa0:	48 63 f0             	movslq %eax,%rsi
   18fa3:	48 63 c2             	movslq %edx,%rax
   18fa6:	48 8b 8d b8 f9 ff ff 	mov    -0x648(%rbp),%rcx
   18fad:	48 89 c2             	mov    %rax,%rdx
   18fb0:	48 01 d2             	add    %rdx,%rdx
   18fb3:	48 01 c2             	add    %rax,%rdx
   18fb6:	48 8d 04 d5 00 00 00 	lea    0x0(,%rdx,8),%rax
   18fbd:	00 
   18fbe:	48 89 c2             	mov    %rax,%rdx
   18fc1:	48 89 c8             	mov    %rcx,%rax
   18fc4:	48 01 c0             	add    %rax,%rax
   18fc7:	48 01 c8             	add    %rcx,%rax
   18fca:	48 01 c0             	add    %rax,%rax
   18fcd:	48 01 d0             	add    %rdx,%rax
   18fd0:	48 01 f0             	add    %rsi,%rax
   18fd3:	48 8d 14 00          	lea    (%rax,%rax,1),%rdx
   18fd7:	48 8d 05 82 50 00 00 	lea    0x5082(%rip),%rax        # 1e060 <g_129>
   18fde:	0f b7 04 02          	movzwl (%rdx,%rax,1),%eax
   18fe2:	e9 a7 03 00 00       	jmpq   1938e <func_55+0x1ec7>
   18fe7:	c7 85 f8 f8 ff ff 00 	movl   $0x0,-0x708(%rbp)
   18fee:	00 00 00 
   18ff1:	e9 3a 02 00 00       	jmpq   19230 <func_55+0x1d69>
   18ff6:	c6 85 ee f8 ff ff 37 	movb   $0x37,-0x712(%rbp)
   18ffd:	c6 85 ef f8 ff ff 01 	movb   $0x1,-0x711(%rbp)
   19004:	0f b6 05 e5 51 00 00 	movzbl 0x51e5(%rip),%eax        # 1e1f0 <g_194>
   1900b:	44 0f b6 e8          	movzbl %al,%r13d
   1900f:	0f b6 85 d4 f8 ff ff 	movzbl -0x72c(%rbp),%eax
   19016:	44 0f b6 f0          	movzbl %al,%r14d
   1901a:	48 8b 85 c0 f8 ff ff 	mov    -0x740(%rbp),%rax
   19021:	0f bf d8             	movswl %ax,%ebx
   19024:	b8 8e 24 d9 64       	mov    $0x64d9248e,%eax
   19029:	44 0f b7 e0          	movzwl %ax,%r12d
   1902d:	0f b6 85 ee f8 ff ff 	movzbl -0x712(%rbp),%eax
   19034:	48 39 85 d8 f8 ff ff 	cmp    %rax,-0x728(%rbp)
   1903b:	73 4c                	jae    19089 <func_55+0x1bc2>
   1903d:	0f b6 05 5c 52 00 00 	movzbl 0x525c(%rip),%eax        # 1e2a0 <g_446>
   19044:	0f be c0             	movsbl %al,%eax
   19047:	be 0f 00 00 00       	mov    $0xf,%esi
   1904c:	89 c7                	mov    %eax,%edi
   1904e:	e8 8e d4 fe ff       	callq  64e1 <safe_lshift_func_int16_t_s_u>
   19053:	be 07 00 00 00       	mov    $0x7,%esi
   19058:	bf 00 00 00 00       	mov    $0x0,%edi
   1905d:	e8 7f d4 fe ff       	callq  64e1 <safe_lshift_func_int16_t_s_u>
   19062:	0f bf d0             	movswl %ax,%edx
   19065:	48 8b 85 c0 f8 ff ff 	mov    -0x740(%rbp),%rax
   1906c:	0f b6 c0             	movzbl %al,%eax
   1906f:	89 d6                	mov    %edx,%esi
   19071:	89 c7                	mov    %eax,%edi
   19073:	e8 d4 db fe ff       	callq  6c4c <safe_lshift_func_uint8_t_u_u>
   19078:	be 00 00 00 00       	mov    $0x0,%esi
   1907d:	bf 00 00 00 00       	mov    $0x0,%edi
   19082:	e8 67 d2 fe ff       	callq  62ee <safe_lshift_func_int8_t_s_u>
   19087:	84 c0                	test   %al,%al
   19089:	0f b6 85 d4 f8 ff ff 	movzbl -0x72c(%rbp),%eax
   19090:	0f b6 c0             	movzbl %al,%eax
   19093:	ba 08 00 00 00       	mov    $0x8,%edx
   19098:	48 39 d0             	cmp    %rdx,%rax
   1909b:	0f 95 c0             	setne  %al
   1909e:	0f b6 c0             	movzbl %al,%eax
   190a1:	44 89 e6             	mov    %r12d,%esi
   190a4:	89 c7                	mov    %eax,%edi
   190a6:	e8 74 dc fe ff       	callq  6d1f <safe_sub_func_uint16_t_u_u>
   190ab:	98                   	cwtl   
   190ac:	89 de                	mov    %ebx,%esi
   190ae:	89 c7                	mov    %eax,%edi
   190b0:	e8 1e d3 fe ff       	callq  63d3 <safe_sub_func_int16_t_s_s>
   190b5:	8b 85 28 f9 ff ff    	mov    -0x6d8(%rbp),%eax
   190bb:	be 00 00 00 00       	mov    $0x0,%esi
   190c0:	89 c7                	mov    %eax,%edi
   190c2:	e8 1f de fe ff       	callq  6ee6 <safe_mul_func_uint32_t_u_u>
   190c7:	89 c2                	mov    %eax,%edx
   190c9:	48 8b 85 d8 f8 ff ff 	mov    -0x728(%rbp),%rax
   190d0:	09 c2                	or     %eax,%edx
   190d2:	8b 05 64 4f 00 00    	mov    0x4f64(%rip),%eax        # 1e03c <g_71+0xc>
   190d8:	09 d0                	or     %edx,%eax
   190da:	44 89 f2             	mov    %r14d,%edx
   190dd:	09 c2                	or     %eax,%edx
   190df:	48 8b 85 50 f9 ff ff 	mov    -0x6b0(%rbp),%rax
   190e6:	8b 00                	mov    (%rax),%eax
   190e8:	21 d0                	and    %edx,%eax
   190ea:	0f b7 c0             	movzwl %ax,%eax
   190ed:	be 7f 08 00 00       	mov    $0x87f,%esi
   190f2:	89 c7                	mov    %eax,%edi
   190f4:	e8 26 dc fe ff       	callq  6d1f <safe_sub_func_uint16_t_u_u>
   190f9:	be 65 00 00 00       	mov    $0x65,%esi
   190fe:	bf 02 00 00 00       	mov    $0x2,%edi
   19103:	e8 ea d0 fe ff       	callq  61f2 <safe_sub_func_int8_t_s_s>
   19108:	0f be c0             	movsbl %al,%eax
   1910b:	41 39 c5             	cmp    %eax,%r13d
   1910e:	7c 11                	jl     19121 <func_55+0x1c5a>
   19110:	66 83 bd d0 f8 ff ff 	cmpw   $0x0,-0x730(%rbp)
   19117:	00 
   19118:	74 07                	je     19121 <func_55+0x1c5a>
   1911a:	be 01 00 00 00       	mov    $0x1,%esi
   1911f:	eb 05                	jmp    19126 <func_55+0x1c5f>
   19121:	be 00 00 00 00       	mov    $0x0,%esi
   19126:	48 8b 15 bb 50 00 00 	mov    0x50bb(%rip),%rdx        # 1e1e8 <g_174>
   1912d:	0f b7 05 ac 50 00 00 	movzwl 0x50ac(%rip),%eax        # 1e1e0 <g_131>
   19134:	98                   	cwtl   
   19135:	83 c0 05             	add    $0x5,%eax
   19138:	48 63 c8             	movslq %eax,%rcx
   1913b:	48 89 d0             	mov    %rdx,%rax
   1913e:	48 c1 e0 03          	shl    $0x3,%rax
   19142:	48 29 d0             	sub    %rdx,%rax
   19145:	48 01 c8             	add    %rcx,%rax
   19148:	48 8d 14 85 00 00 00 	lea    0x0(,%rax,4),%rdx
   1914f:	00 
   19150:	48 8d 05 d9 4e 00 00 	lea    0x4ed9(%rip),%rax        # 1e030 <g_71>
   19157:	89 34 02             	mov    %esi,(%rdx,%rax,1)
   1915a:	0f b6 85 ef f8 ff ff 	movzbl -0x711(%rbp),%eax
   19161:	83 c0 01             	add    $0x1,%eax
   19164:	88 85 ef f8 ff ff    	mov    %al,-0x711(%rbp)
   1916a:	48 c7 85 c0 f8 ff ff 	movq   $0x0,-0x740(%rbp)
   19171:	00 00 00 00 
   19175:	e9 a1 00 00 00       	jmpq   1921b <func_55+0x1d54>
   1917a:	c7 85 30 f9 ff ff f6 	movl   $0xfffffff6,-0x6d0(%rbp)
   19181:	ff ff ff 
   19184:	48 8d 05 ed 65 00 00 	lea    0x65ed(%rip),%rax        # 1f778 <g_369>
   1918b:	48 89 85 08 fa ff ff 	mov    %rax,-0x5f8(%rbp)
   19192:	c7 85 34 f9 ff ff ff 	movl   $0xffffffff,-0x6cc(%rbp)
   19199:	ff ff ff 
   1919c:	48 8d 05 05 51 00 00 	lea    0x5105(%rip),%rax        # 1e2a8 <g_452>
   191a3:	48 89 85 10 fa ff ff 	mov    %rax,-0x5f0(%rbp)
   191aa:	48 8d 85 78 f9 ff ff 	lea    -0x688(%rbp),%rax
   191b1:	48 89 85 18 fa ff ff 	mov    %rax,-0x5e8(%rbp)
   191b8:	c7 85 14 f9 ff ff 00 	movl   $0x0,-0x6ec(%rbp)
   191bf:	00 00 00 
   191c2:	eb 46                	jmp    1920a <func_55+0x1d43>
   191c4:	c7 85 18 f9 ff ff 00 	movl   $0x0,-0x6e8(%rbp)
   191cb:	00 00 00 
   191ce:	eb 2a                	jmp    191fa <func_55+0x1d33>
   191d0:	8b 85 18 f9 ff ff    	mov    -0x6e8(%rbp),%eax
   191d6:	48 63 d0             	movslq %eax,%rdx
   191d9:	8b 85 14 f9 ff ff    	mov    -0x6ec(%rbp),%eax
   191df:	48 98                	cltq   
   191e1:	48 01 d0             	add    %rdx,%rax
   191e4:	48 8d 15 45 4e 00 00 	lea    0x4e45(%rip),%rdx        # 1e030 <g_71>
   191eb:	48 89 94 c5 d0 fb ff 	mov    %rdx,-0x430(%rbp,%rax,8)
   191f2:	ff 
   191f3:	83 85 18 f9 ff ff 01 	addl   $0x1,-0x6e8(%rbp)
   191fa:	83 bd 18 f9 ff ff 00 	cmpl   $0x0,-0x6e8(%rbp)
   19201:	7e cd                	jle    191d0 <func_55+0x1d09>
   19203:	83 85 14 f9 ff ff 01 	addl   $0x1,-0x6ec(%rbp)
   1920a:	83 bd 14 f9 ff ff 02 	cmpl   $0x2,-0x6ec(%rbp)
   19211:	7e b1                	jle    191c4 <func_55+0x1cfd>
   19213:	48 83 85 c0 f8 ff ff 	addq   $0x1,-0x740(%rbp)
   1921a:	01 
   1921b:	48 83 bd c0 f8 ff ff 	cmpq   $0x1,-0x740(%rbp)
   19222:	01 
   19223:	0f 8e 51 ff ff ff    	jle    1917a <func_55+0x1cb3>
   19229:	83 85 f8 f8 ff ff 01 	addl   $0x1,-0x708(%rbp)
   19230:	83 bd f8 f8 ff ff 00 	cmpl   $0x0,-0x708(%rbp)
   19237:	0f 8e b9 fd ff ff    	jle    18ff6 <func_55+0x1b2f>
   1923d:	c6 85 e9 f8 ff ff 00 	movb   $0x0,-0x717(%rbp)
   19244:	e9 ee 00 00 00       	jmpq   19337 <func_55+0x1e70>
   19249:	c7 85 2c f9 ff ff 03 	movl   $0x3,-0x6d4(%rbp)
   19250:	00 00 00 
   19253:	48 8d 85 f4 f8 ff ff 	lea    -0x70c(%rbp),%rax
   1925a:	48 89 85 00 fa ff ff 	mov    %rax,-0x600(%rbp)
   19261:	48 8b 85 c0 f8 ff ff 	mov    -0x740(%rbp),%rax
   19268:	0f be d0             	movsbl %al,%edx
   1926b:	8b 85 f4 f8 ff ff    	mov    -0x70c(%rbp),%eax
   19271:	0f be c0             	movsbl %al,%eax
   19274:	89 d6                	mov    %edx,%esi
   19276:	89 c7                	mov    %eax,%edi
   19278:	e8 57 cf fe ff       	callq  61d4 <safe_add_func_int8_t_s_s>
   1927d:	0f be c0             	movsbl %al,%eax
   19280:	be 07 00 00 00       	mov    $0x7,%esi
   19285:	89 c7                	mov    %eax,%edi
   19287:	e8 e0 d0 fe ff       	callq  636c <safe_rshift_func_int8_t_s_u>
   1928c:	0f be c0             	movsbl %al,%eax
   1928f:	21 85 2c f9 ff ff    	and    %eax,-0x6d4(%rbp)
   19295:	0f b7 05 9c 4f 00 00 	movzwl 0x4f9c(%rip),%eax        # 1e238 <g_198+0x18>
   1929c:	0f b7 d0             	movzwl %ax,%edx
   1929f:	48 8b 85 00 fa ff ff 	mov    -0x600(%rbp),%rax
   192a6:	89 10                	mov    %edx,(%rax)
   192a8:	0f bf 95 d0 f8 ff ff 	movswl -0x730(%rbp),%edx
   192af:	48 8b 05 0a 65 00 00 	mov    0x650a(%rip),%rax        # 1f7c0 <g_552+0x20>
   192b6:	48 8d 0d db 64 00 00 	lea    0x64db(%rip),%rcx        # 1f798 <g_553>
   192bd:	48 39 c8             	cmp    %rcx,%rax
   192c0:	0f 94 c0             	sete   %al
   192c3:	0f b6 c0             	movzbl %al,%eax
   192c6:	89 d6                	mov    %edx,%esi
   192c8:	89 c7                	mov    %eax,%edi
   192ca:	e8 47 d1 fe ff       	callq  6416 <safe_mod_func_int16_t_s_s>
   192cf:	be 07 00 00 00       	mov    $0x7,%esi
   192d4:	bf 01 00 00 00       	mov    $0x1,%edi
   192d9:	e8 c3 cf fe ff       	callq  62a1 <safe_lshift_func_int8_t_s_s>
   192de:	0f be d8             	movsbl %al,%ebx
   192e1:	48 bf d4 a6 a2 26 28 	movabs $0x2bab2826a2a6d4,%rdi
   192e8:	ab 2b 00 
   192eb:	e8 29 dd fe ff       	callq  7019 <safe_unary_minus_func_uint64_t_u>
   192f0:	44 0f be e0          	movsbl %al,%r12d
   192f4:	8b 85 2c f9 ff ff    	mov    -0x6d4(%rbp),%eax
   192fa:	0f b7 c0             	movzwl %ax,%eax
   192fd:	be 07 00 00 00       	mov    $0x7,%esi
   19302:	89 c7                	mov    %eax,%edi
   19304:	e8 53 da fe ff       	callq  6d5c <safe_mod_func_uint16_t_u_u>
   19309:	0f be c0             	movsbl %al,%eax
   1930c:	44 89 e6             	mov    %r12d,%esi
   1930f:	89 c7                	mov    %eax,%edi
   19311:	e8 be ce fe ff       	callq  61d4 <safe_add_func_int8_t_s_s>
   19316:	0f be c0             	movsbl %al,%eax
   19319:	89 de                	mov    %ebx,%esi
   1931b:	89 c7                	mov    %eax,%edi
   1931d:	e8 91 d0 fe ff       	callq  63b3 <safe_add_func_int16_t_s_s>
   19322:	89 c2                	mov    %eax,%edx
   19324:	48 8b 85 50 f9 ff ff 	mov    -0x6b0(%rbp),%rax
   1932b:	0f bf d2             	movswl %dx,%edx
   1932e:	89 10                	mov    %edx,(%rax)
   19330:	80 85 e9 f8 ff ff 01 	addb   $0x1,-0x717(%rbp)
   19337:	80 bd e9 f8 ff ff 01 	cmpb   $0x1,-0x717(%rbp)
   1933e:	0f 86 05 ff ff ff    	jbe    19249 <func_55+0x1d82>
   19344:	48 8b 05 9d 4e 00 00 	mov    0x4e9d(%rip),%rax        # 1e1e8 <g_174>
   1934b:	48 83 c0 01          	add    $0x1,%rax
   1934f:	48 89 05 92 4e 00 00 	mov    %rax,0x4e92(%rip)        # 1e1e8 <g_174>
   19356:	48 8b 05 8b 4e 00 00 	mov    0x4e8b(%rip),%rax        # 1e1e8 <g_174>
   1935d:	48 85 c0             	test   %rax,%rax
   19360:	0f 84 7d f7 ff ff    	je     18ae3 <func_55+0x161c>
   19366:	0f b7 05 73 4e 00 00 	movzwl 0x4e73(%rip),%eax        # 1e1e0 <g_131>
   1936d:	83 c0 01             	add    $0x1,%eax
   19370:	66 89 05 69 4e 00 00 	mov    %ax,0x4e69(%rip)        # 1e1e0 <g_131>
   19377:	0f b7 05 62 4e 00 00 	movzwl 0x4e62(%rip),%eax        # 1e1e0 <g_131>
   1937e:	66 85 c0             	test   %ax,%ax
   19381:	0f 8e 51 f6 ff ff    	jle    189d8 <func_55+0x1511>
   19387:	48 8b 85 c0 f8 ff ff 	mov    -0x740(%rbp),%rax
   1938e:	48 8b 5d d8          	mov    -0x28(%rbp),%rbx
   19392:	64 48 33 1c 25 28 00 	xor    %fs:0x28,%rbx
   19399:	00 00 
   1939b:	74 05                	je     193a2 <func_55+0x1edb>
   1939d:	e8 ce cc fe ff       	callq  6070 <__stack_chk_fail@plt>
   193a2:	48 81 c4 20 07 00 00 	add    $0x720,%rsp
   193a9:	5b                   	pop    %rbx
   193aa:	41 5c                	pop    %r12
   193ac:	41 5d                	pop    %r13
   193ae:	41 5e                	pop    %r14
   193b0:	5d                   	pop    %rbp
   193b1:	c3                   	retq   

00000000000193b2 <main>:
   193b2:	f3 0f 1e fa          	endbr64 
   193b6:	55                   	push   %rbp
   193b7:	48 89 e5             	mov    %rsp,%rbp
   193ba:	48 83 ec 20          	sub    $0x20,%rsp
   193be:	89 7d ec             	mov    %edi,-0x14(%rbp)
   193c1:	48 89 75 e0          	mov    %rsi,-0x20(%rbp)
   193c5:	c7 45 fc 00 00 00 00 	movl   $0x0,-0x4(%rbp)
   193cc:	83 7d ec 02          	cmpl   $0x2,-0x14(%rbp)
   193d0:	75 25                	jne    193f7 <main+0x45>
   193d2:	48 8b 45 e0          	mov    -0x20(%rbp),%rax
   193d6:	48 83 c0 08          	add    $0x8,%rax
   193da:	48 8b 00             	mov    (%rax),%rax
   193dd:	48 8d 35 9c 21 00 00 	lea    0x219c(%rip),%rsi        # 1b580 <g_2104+0x1204>
   193e4:	48 89 c7             	mov    %rax,%rdi
   193e7:	e8 a4 cc fe ff       	callq  6090 <strcmp@plt>
   193ec:	85 c0                	test   %eax,%eax
   193ee:	75 07                	jne    193f7 <main+0x45>
   193f0:	c7 45 fc 01 00 00 00 	movl   $0x1,-0x4(%rbp)
   193f7:	e8 8d cd fe ff       	callq  6189 <platform_main_begin>
   193fc:	e8 97 e1 fe ff       	callq  7598 <crc32_gentab>
   19401:	e8 af e3 fe ff       	callq  77b5 <func_1>
   19406:	0f b6 05 17 4c 00 00 	movzbl 0x4c17(%rip),%eax        # 1e024 <g_9>
   1940d:	48 0f be c0          	movsbq %al,%rax
   19411:	8b 55 fc             	mov    -0x4(%rbp),%edx
   19414:	48 8d 35 67 21 00 00 	lea    0x2167(%rip),%rsi        # 1b582 <g_2104+0x1206>
   1941b:	48 89 c7             	mov    %rax,%rdi
   1941e:	e8 d0 e2 fe ff       	callq  76f3 <transparent_crc>
   19423:	c7 45 f0 00 00 00 00 	movl   $0x0,-0x10(%rbp)
   1942a:	e9 95 00 00 00       	jmpq   194c4 <main+0x112>
   1942f:	c7 45 f4 00 00 00 00 	movl   $0x0,-0xc(%rbp)
   19436:	eb 7e                	jmp    194b6 <main+0x104>
   19438:	c7 45 f8 00 00 00 00 	movl   $0x0,-0x8(%rbp)
   1943f:	eb 6b                	jmp    194ac <main+0xfa>
   19441:	8b 45 f8             	mov    -0x8(%rbp),%eax
   19444:	48 98                	cltq   
   19446:	8b 55 f0             	mov    -0x10(%rbp),%edx
   19449:	48 63 ca             	movslq %edx,%rcx
   1944c:	8b 55 f4             	mov    -0xc(%rbp),%edx
   1944f:	48 63 d2             	movslq %edx,%rdx
   19452:	48 c1 e1 03          	shl    $0x3,%rcx
   19456:	48 01 ca             	add    %rcx,%rdx
   19459:	48 c1 e2 02          	shl    $0x2,%rdx
   1945d:	48 01 d0             	add    %rdx,%rax
   19460:	48 8d 14 85 00 00 00 	lea    0x0(,%rax,4),%rdx
   19467:	00 
   19468:	48 8d 05 f1 0b 00 00 	lea    0xbf1(%rip),%rax        # 1a060 <g_19>
   1946f:	8b 04 02             	mov    (%rdx,%rax,1),%eax
   19472:	48 98                	cltq   
   19474:	8b 55 fc             	mov    -0x4(%rbp),%edx
   19477:	48 8d 35 08 21 00 00 	lea    0x2108(%rip),%rsi        # 1b586 <g_2104+0x120a>
   1947e:	48 89 c7             	mov    %rax,%rdi
   19481:	e8 6d e2 fe ff       	callq  76f3 <transparent_crc>
   19486:	83 7d fc 00          	cmpl   $0x0,-0x4(%rbp)
   1948a:	74 1c                	je     194a8 <main+0xf6>
   1948c:	8b 4d f8             	mov    -0x8(%rbp),%ecx
   1948f:	8b 55 f4             	mov    -0xc(%rbp),%edx
   19492:	8b 45 f0             	mov    -0x10(%rbp),%eax
   19495:	89 c6                	mov    %eax,%esi
   19497:	48 8d 3d f6 20 00 00 	lea    0x20f6(%rip),%rdi        # 1b594 <g_2104+0x1218>
   1949e:	b8 00 00 00 00       	mov    $0x0,%eax
   194a3:	e8 d8 cb fe ff       	callq  6080 <printf@plt>
   194a8:	83 45 f8 01          	addl   $0x1,-0x8(%rbp)
   194ac:	83 7d f8 03          	cmpl   $0x3,-0x8(%rbp)
   194b0:	7e 8f                	jle    19441 <main+0x8f>
   194b2:	83 45 f4 01          	addl   $0x1,-0xc(%rbp)
   194b6:	83 7d f4 07          	cmpl   $0x7,-0xc(%rbp)
   194ba:	0f 8e 78 ff ff ff    	jle    19438 <main+0x86>
   194c0:	83 45 f0 01          	addl   $0x1,-0x10(%rbp)
   194c4:	83 7d f0 05          	cmpl   $0x5,-0x10(%rbp)
   194c8:	0f 8e 61 ff ff ff    	jle    1942f <main+0x7d>
   194ce:	0f b6 05 50 4b 00 00 	movzbl 0x4b50(%rip),%eax        # 1e025 <g_66>
   194d5:	48 0f be c0          	movsbq %al,%rax
   194d9:	8b 55 fc             	mov    -0x4(%rbp),%edx
   194dc:	48 8d 35 c7 20 00 00 	lea    0x20c7(%rip),%rsi        # 1b5aa <g_2104+0x122e>
   194e3:	48 89 c7             	mov    %rax,%rdi
   194e6:	e8 08 e2 fe ff       	callq  76f3 <transparent_crc>
   194eb:	c7 45 f0 00 00 00 00 	movl   $0x0,-0x10(%rbp)
   194f2:	eb 75                	jmp    19569 <main+0x1b7>
   194f4:	c7 45 f4 00 00 00 00 	movl   $0x0,-0xc(%rbp)
   194fb:	eb 62                	jmp    1955f <main+0x1ad>
   194fd:	8b 45 f4             	mov    -0xc(%rbp),%eax
   19500:	48 63 c8             	movslq %eax,%rcx
   19503:	8b 45 f0             	mov    -0x10(%rbp),%eax
   19506:	48 63 d0             	movslq %eax,%rdx
   19509:	48 89 d0             	mov    %rdx,%rax
   1950c:	48 c1 e0 03          	shl    $0x3,%rax
   19510:	48 29 d0             	sub    %rdx,%rax
   19513:	48 01 c8             	add    %rcx,%rax
   19516:	48 8d 14 85 00 00 00 	lea    0x0(,%rax,4),%rdx
   1951d:	00 
   1951e:	48 8d 05 0b 4b 00 00 	lea    0x4b0b(%rip),%rax        # 1e030 <g_71>
   19525:	8b 04 02             	mov    (%rdx,%rax,1),%eax
   19528:	48 98                	cltq   
   1952a:	8b 55 fc             	mov    -0x4(%rbp),%edx
   1952d:	48 8d 35 7b 20 00 00 	lea    0x207b(%rip),%rsi        # 1b5af <g_2104+0x1233>
   19534:	48 89 c7             	mov    %rax,%rdi
   19537:	e8 b7 e1 fe ff       	callq  76f3 <transparent_crc>
   1953c:	83 7d fc 00          	cmpl   $0x0,-0x4(%rbp)
   19540:	74 19                	je     1955b <main+0x1a9>
   19542:	8b 55 f4             	mov    -0xc(%rbp),%edx
   19545:	8b 45 f0             	mov    -0x10(%rbp),%eax
   19548:	89 c6                	mov    %eax,%esi
   1954a:	48 8d 3d 69 20 00 00 	lea    0x2069(%rip),%rdi        # 1b5ba <g_2104+0x123e>
   19551:	b8 00 00 00 00       	mov    $0x0,%eax
   19556:	e8 25 cb fe ff       	callq  6080 <printf@plt>
   1955b:	83 45 f4 01          	addl   $0x1,-0xc(%rbp)
   1955f:	83 7d f4 06          	cmpl   $0x6,-0xc(%rbp)
   19563:	7e 98                	jle    194fd <main+0x14b>
   19565:	83 45 f0 01          	addl   $0x1,-0x10(%rbp)
   19569:	83 7d f0 00          	cmpl   $0x0,-0x10(%rbp)
   1956d:	7e 85                	jle    194f4 <main+0x142>
   1956f:	0f b6 05 d6 4a 00 00 	movzbl 0x4ad6(%rip),%eax        # 1e04c <g_90>
   19576:	0f b6 c0             	movzbl %al,%eax
   19579:	8b 55 fc             	mov    -0x4(%rbp),%edx
   1957c:	48 8d 35 49 20 00 00 	lea    0x2049(%rip),%rsi        # 1b5cc <g_2104+0x1250>
   19583:	48 89 c7             	mov    %rax,%rdi
   19586:	e8 68 e1 fe ff       	callq  76f3 <transparent_crc>
   1958b:	c7 45 f0 00 00 00 00 	movl   $0x0,-0x10(%rbp)
   19592:	e9 b6 00 00 00       	jmpq   1964d <main+0x29b>
   19597:	c7 45 f4 00 00 00 00 	movl   $0x0,-0xc(%rbp)
   1959e:	e9 9c 00 00 00       	jmpq   1963f <main+0x28d>
   195a3:	c7 45 f8 00 00 00 00 	movl   $0x0,-0x8(%rbp)
   195aa:	e9 82 00 00 00       	jmpq   19631 <main+0x27f>
   195af:	8b 45 f8             	mov    -0x8(%rbp),%eax
   195b2:	48 63 f0             	movslq %eax,%rsi
   195b5:	8b 45 f0             	mov    -0x10(%rbp),%eax
   195b8:	48 98                	cltq   
   195ba:	8b 55 f4             	mov    -0xc(%rbp),%edx
   195bd:	48 63 ca             	movslq %edx,%rcx
   195c0:	48 89 c2             	mov    %rax,%rdx
   195c3:	48 01 d2             	add    %rdx,%rdx
   195c6:	48 01 c2             	add    %rax,%rdx
   195c9:	48 8d 04 d5 00 00 00 	lea    0x0(,%rdx,8),%rax
   195d0:	00 
   195d1:	48 89 c2             	mov    %rax,%rdx
   195d4:	48 89 c8             	mov    %rcx,%rax
   195d7:	48 01 c0             	add    %rax,%rax
   195da:	48 01 c8             	add    %rcx,%rax
   195dd:	48 01 c0             	add    %rax,%rax
   195e0:	48 01 d0             	add    %rdx,%rax
   195e3:	48 01 f0             	add    %rsi,%rax
   195e6:	48 8d 14 00          	lea    (%rax,%rax,1),%rdx
   195ea:	48 8d 05 6f 4a 00 00 	lea    0x4a6f(%rip),%rax        # 1e060 <g_129>
   195f1:	0f b7 04 02          	movzwl (%rdx,%rax,1),%eax
   195f5:	48 0f bf c0          	movswq %ax,%rax
   195f9:	8b 55 fc             	mov    -0x4(%rbp),%edx
   195fc:	48 8d 35 ce 1f 00 00 	lea    0x1fce(%rip),%rsi        # 1b5d1 <g_2104+0x1255>
   19603:	48 89 c7             	mov    %rax,%rdi
   19606:	e8 e8 e0 fe ff       	callq  76f3 <transparent_crc>
   1960b:	83 7d fc 00          	cmpl   $0x0,-0x4(%rbp)
   1960f:	74 1c                	je     1962d <main+0x27b>
   19611:	8b 4d f8             	mov    -0x8(%rbp),%ecx
   19614:	8b 55 f4             	mov    -0xc(%rbp),%edx
   19617:	8b 45 f0             	mov    -0x10(%rbp),%eax
   1961a:	89 c6                	mov    %eax,%esi
   1961c:	48 8d 3d 71 1f 00 00 	lea    0x1f71(%rip),%rdi        # 1b594 <g_2104+0x1218>
   19623:	b8 00 00 00 00       	mov    $0x0,%eax
   19628:	e8 53 ca fe ff       	callq  6080 <printf@plt>
   1962d:	83 45 f8 01          	addl   $0x1,-0x8(%rbp)
   19631:	83 7d f8 05          	cmpl   $0x5,-0x8(%rbp)
   19635:	0f 8e 74 ff ff ff    	jle    195af <main+0x1fd>
   1963b:	83 45 f4 01          	addl   $0x1,-0xc(%rbp)
   1963f:	83 7d f4 03          	cmpl   $0x3,-0xc(%rbp)
   19643:	0f 8e 5a ff ff ff    	jle    195a3 <main+0x1f1>
   19649:	83 45 f0 01          	addl   $0x1,-0x10(%rbp)
   1964d:	83 7d f0 07          	cmpl   $0x7,-0x10(%rbp)
   19651:	0f 8e 40 ff ff ff    	jle    19597 <main+0x1e5>
   19657:	0f b7 05 82 4b 00 00 	movzwl 0x4b82(%rip),%eax        # 1e1e0 <g_131>
   1965e:	48 0f bf c0          	movswq %ax,%rax
   19662:	8b 55 fc             	mov    -0x4(%rbp),%edx
   19665:	48 8d 35 74 1f 00 00 	lea    0x1f74(%rip),%rsi        # 1b5e0 <g_2104+0x1264>
   1966c:	48 89 c7             	mov    %rax,%rdi
   1966f:	e8 7f e0 fe ff       	callq  76f3 <transparent_crc>
   19674:	48 8b 05 6d 4b 00 00 	mov    0x4b6d(%rip),%rax        # 1e1e8 <g_174>
   1967b:	8b 55 fc             	mov    -0x4(%rbp),%edx
   1967e:	48 8d 35 61 1f 00 00 	lea    0x1f61(%rip),%rsi        # 1b5e6 <g_2104+0x126a>
   19685:	48 89 c7             	mov    %rax,%rdi
   19688:	e8 66 e0 fe ff       	callq  76f3 <transparent_crc>
   1968d:	0f b6 05 5c 4b 00 00 	movzbl 0x4b5c(%rip),%eax        # 1e1f0 <g_194>
   19694:	0f b6 c0             	movzbl %al,%eax
   19697:	8b 55 fc             	mov    -0x4(%rbp),%edx
   1969a:	48 8d 35 4b 1f 00 00 	lea    0x1f4b(%rip),%rsi        # 1b5ec <g_2104+0x1270>
   196a1:	48 89 c7             	mov    %rax,%rdi
   196a4:	e8 4a e0 fe ff       	callq  76f3 <transparent_crc>
   196a9:	c7 45 f0 00 00 00 00 	movl   $0x0,-0x10(%rbp)
   196b0:	eb 49                	jmp    196fb <main+0x349>
   196b2:	8b 45 f0             	mov    -0x10(%rbp),%eax
   196b5:	48 98                	cltq   
   196b7:	48 8d 14 00          	lea    (%rax,%rax,1),%rdx
   196bb:	48 8d 05 3e 4b 00 00 	lea    0x4b3e(%rip),%rax        # 1e200 <g_196>
   196c2:	0f b7 04 02          	movzwl (%rdx,%rax,1),%eax
   196c6:	0f b7 c0             	movzwl %ax,%eax
   196c9:	8b 55 fc             	mov    -0x4(%rbp),%edx
   196cc:	48 8d 35 1f 1f 00 00 	lea    0x1f1f(%rip),%rsi        # 1b5f2 <g_2104+0x1276>
   196d3:	48 89 c7             	mov    %rax,%rdi
   196d6:	e8 18 e0 fe ff       	callq  76f3 <transparent_crc>
   196db:	83 7d fc 00          	cmpl   $0x0,-0x4(%rbp)
   196df:	74 16                	je     196f7 <main+0x345>
   196e1:	8b 45 f0             	mov    -0x10(%rbp),%eax
   196e4:	89 c6                	mov    %eax,%esi
   196e6:	48 8d 3d 0e 1f 00 00 	lea    0x1f0e(%rip),%rdi        # 1b5fb <g_2104+0x127f>
   196ed:	b8 00 00 00 00       	mov    $0x0,%eax
   196f2:	e8 89 c9 fe ff       	callq  6080 <printf@plt>
   196f7:	83 45 f0 01          	addl   $0x1,-0x10(%rbp)
   196fb:	83 7d f0 08          	cmpl   $0x8,-0x10(%rbp)
   196ff:	7e b1                	jle    196b2 <main+0x300>
   19701:	c7 45 f0 00 00 00 00 	movl   $0x0,-0x10(%rbp)
   19708:	e9 a6 00 00 00       	jmpq   197b3 <main+0x401>
   1970d:	c7 45 f4 00 00 00 00 	movl   $0x0,-0xc(%rbp)
   19714:	e9 8c 00 00 00       	jmpq   197a5 <main+0x3f3>
   19719:	c7 45 f8 00 00 00 00 	movl   $0x0,-0x8(%rbp)
   19720:	eb 79                	jmp    1979b <main+0x3e9>
   19722:	8b 45 f8             	mov    -0x8(%rbp),%eax
   19725:	48 63 f0             	movslq %eax,%rsi
   19728:	8b 45 f0             	mov    -0x10(%rbp),%eax
   1972b:	48 63 d0             	movslq %eax,%rdx
   1972e:	8b 45 f4             	mov    -0xc(%rbp),%eax
   19731:	48 63 c8             	movslq %eax,%rcx
   19734:	48 89 d0             	mov    %rdx,%rax
   19737:	48 c1 e0 03          	shl    $0x3,%rax
   1973b:	48 29 d0             	sub    %rdx,%rax
   1973e:	48 01 c0             	add    %rax,%rax
   19741:	48 89 ca             	mov    %rcx,%rdx
   19744:	48 c1 e2 03          	shl    $0x3,%rdx
   19748:	48 29 ca             	sub    %rcx,%rdx
   1974b:	48 01 d0             	add    %rdx,%rax
   1974e:	48 01 f0             	add    %rsi,%rax
   19751:	48 8d 14 00          	lea    (%rax,%rax,1),%rdx
   19755:	48 8d 05 c4 4a 00 00 	lea    0x4ac4(%rip),%rax        # 1e220 <g_198>
   1975c:	0f b7 04 02          	movzwl (%rdx,%rax,1),%eax
   19760:	0f b7 c0             	movzwl %ax,%eax
   19763:	8b 55 fc             	mov    -0x4(%rbp),%edx
   19766:	48 8d 35 9c 1e 00 00 	lea    0x1e9c(%rip),%rsi        # 1b609 <g_2104+0x128d>
   1976d:	48 89 c7             	mov    %rax,%rdi
   19770:	e8 7e df fe ff       	callq  76f3 <transparent_crc>
   19775:	83 7d fc 00          	cmpl   $0x0,-0x4(%rbp)
   19779:	74 1c                	je     19797 <main+0x3e5>
   1977b:	8b 4d f8             	mov    -0x8(%rbp),%ecx
   1977e:	8b 55 f4             	mov    -0xc(%rbp),%edx
   19781:	8b 45 f0             	mov    -0x10(%rbp),%eax
   19784:	89 c6                	mov    %eax,%esi
   19786:	48 8d 3d 07 1e 00 00 	lea    0x1e07(%rip),%rdi        # 1b594 <g_2104+0x1218>
   1978d:	b8 00 00 00 00       	mov    $0x0,%eax
   19792:	e8 e9 c8 fe ff       	callq  6080 <printf@plt>
   19797:	83 45 f8 01          	addl   $0x1,-0x8(%rbp)
   1979b:	83 7d f8 06          	cmpl   $0x6,-0x8(%rbp)
   1979f:	7e 81                	jle    19722 <main+0x370>
   197a1:	83 45 f4 01          	addl   $0x1,-0xc(%rbp)
   197a5:	83 7d f4 01          	cmpl   $0x1,-0xc(%rbp)
   197a9:	0f 8e 6a ff ff ff    	jle    19719 <main+0x367>
   197af:	83 45 f0 01          	addl   $0x1,-0x10(%rbp)
   197b3:	83 7d f0 00          	cmpl   $0x0,-0x10(%rbp)
   197b7:	0f 8e 50 ff ff ff    	jle    1970d <main+0x35b>
   197bd:	8b 05 7d 4a 00 00    	mov    0x4a7d(%rip),%eax        # 1e240 <g_220>
   197c3:	89 c1                	mov    %eax,%ecx
   197c5:	8b 45 fc             	mov    -0x4(%rbp),%eax
   197c8:	89 c2                	mov    %eax,%edx
   197ca:	48 8d 35 47 1e 00 00 	lea    0x1e47(%rip),%rsi        # 1b618 <g_2104+0x129c>
   197d1:	48 89 cf             	mov    %rcx,%rdi
   197d4:	e8 1a df fe ff       	callq  76f3 <transparent_crc>
   197d9:	8b 05 61 4a 00 00    	mov    0x4a61(%rip),%eax        # 1e240 <g_220>
   197df:	89 c1                	mov    %eax,%ecx
   197e1:	8b 45 fc             	mov    -0x4(%rbp),%eax
   197e4:	89 c2                	mov    %eax,%edx
   197e6:	48 8d 35 34 1e 00 00 	lea    0x1e34(%rip),%rsi        # 1b621 <g_2104+0x12a5>
   197ed:	48 89 cf             	mov    %rcx,%rdi
   197f0:	e8 fe de fe ff       	callq  76f3 <transparent_crc>
   197f5:	8b 05 4d 4a 00 00    	mov    0x4a4d(%rip),%eax        # 1e248 <g_223>
   197fb:	89 c1                	mov    %eax,%ecx
   197fd:	8b 45 fc             	mov    -0x4(%rbp),%eax
   19800:	89 c2                	mov    %eax,%edx
   19802:	48 8d 35 21 1e 00 00 	lea    0x1e21(%rip),%rsi        # 1b62a <g_2104+0x12ae>
   19809:	48 89 cf             	mov    %rcx,%rdi
   1980c:	e8 e2 de fe ff       	callq  76f3 <transparent_crc>
   19811:	8b 05 35 4a 00 00    	mov    0x4a35(%rip),%eax        # 1e24c <g_322>
   19817:	48 98                	cltq   
   19819:	8b 55 fc             	mov    -0x4(%rbp),%edx
   1981c:	48 8d 35 0d 1e 00 00 	lea    0x1e0d(%rip),%rsi        # 1b630 <g_2104+0x12b4>
   19823:	48 89 c7             	mov    %rax,%rdi
   19826:	e8 c8 de fe ff       	callq  76f3 <transparent_crc>
   1982b:	b8 08 00 00 00       	mov    $0x8,%eax
   19830:	48 89 c1             	mov    %rax,%rcx
   19833:	8b 45 fc             	mov    -0x4(%rbp),%eax
   19836:	89 c2                	mov    %eax,%edx
   19838:	48 8d 35 f7 1d 00 00 	lea    0x1df7(%rip),%rsi        # 1b636 <g_2104+0x12ba>
   1983f:	48 89 cf             	mov    %rcx,%rdi
   19842:	e8 ac de fe ff       	callq  76f3 <transparent_crc>
   19847:	0f b7 05 02 4a 00 00 	movzwl 0x4a02(%rip),%eax        # 1e250 <g_376>
   1984e:	48 0f bf c0          	movswq %ax,%rax
   19852:	8b 55 fc             	mov    -0x4(%rbp),%edx
   19855:	48 8d 35 e0 1d 00 00 	lea    0x1de0(%rip),%rsi        # 1b63c <g_2104+0x12c0>
   1985c:	48 89 c7             	mov    %rax,%rdi
   1985f:	e8 8f de fe ff       	callq  76f3 <transparent_crc>
   19864:	c7 45 f0 00 00 00 00 	movl   $0x0,-0x10(%rbp)
   1986b:	eb 6d                	jmp    198da <main+0x528>
   1986d:	c7 45 f4 00 00 00 00 	movl   $0x0,-0xc(%rbp)
   19874:	eb 5a                	jmp    198d0 <main+0x51e>
   19876:	8b 45 f4             	mov    -0xc(%rbp),%eax
   19879:	48 98                	cltq   
   1987b:	8b 55 f0             	mov    -0x10(%rbp),%edx
   1987e:	48 63 d2             	movslq %edx,%rdx
   19881:	48 c1 e2 02          	shl    $0x2,%rdx
   19885:	48 01 d0             	add    %rdx,%rax
   19888:	48 8d 14 00          	lea    (%rax,%rax,1),%rdx
   1988c:	48 8d 05 cd 49 00 00 	lea    0x49cd(%rip),%rax        # 1e260 <g_395>
   19893:	0f b7 04 02          	movzwl (%rdx,%rax,1),%eax
   19897:	48 0f bf c0          	movswq %ax,%rax
   1989b:	8b 55 fc             	mov    -0x4(%rbp),%edx
   1989e:	48 8d 35 9d 1d 00 00 	lea    0x1d9d(%rip),%rsi        # 1b642 <g_2104+0x12c6>
   198a5:	48 89 c7             	mov    %rax,%rdi
   198a8:	e8 46 de fe ff       	callq  76f3 <transparent_crc>
   198ad:	83 7d fc 00          	cmpl   $0x0,-0x4(%rbp)
   198b1:	74 19                	je     198cc <main+0x51a>
   198b3:	8b 55 f4             	mov    -0xc(%rbp),%edx
   198b6:	8b 45 f0             	mov    -0x10(%rbp),%eax
   198b9:	89 c6                	mov    %eax,%esi
   198bb:	48 8d 3d f8 1c 00 00 	lea    0x1cf8(%rip),%rdi        # 1b5ba <g_2104+0x123e>
   198c2:	b8 00 00 00 00       	mov    $0x0,%eax
   198c7:	e8 b4 c7 fe ff       	callq  6080 <printf@plt>
   198cc:	83 45 f4 01          	addl   $0x1,-0xc(%rbp)
   198d0:	83 7d f4 03          	cmpl   $0x3,-0xc(%rbp)
   198d4:	7e a0                	jle    19876 <main+0x4c4>
   198d6:	83 45 f0 01          	addl   $0x1,-0x10(%rbp)
   198da:	83 7d f0 07          	cmpl   $0x7,-0x10(%rbp)
   198de:	7e 8d                	jle    1986d <main+0x4bb>
   198e0:	0f b6 05 b9 49 00 00 	movzbl 0x49b9(%rip),%eax        # 1e2a0 <g_446>
   198e7:	48 0f be c0          	movsbq %al,%rax
   198eb:	8b 55 fc             	mov    -0x4(%rbp),%edx
   198ee:	48 8d 35 59 1d 00 00 	lea    0x1d59(%rip),%rsi        # 1b64e <g_2104+0x12d2>
   198f5:	48 89 c7             	mov    %rax,%rdi
   198f8:	e8 f6 dd fe ff       	callq  76f3 <transparent_crc>
   198fd:	0f b6 05 a4 49 00 00 	movzbl 0x49a4(%rip),%eax        # 1e2a8 <g_452>
   19904:	48 0f be c0          	movsbq %al,%rax
   19908:	8b 55 fc             	mov    -0x4(%rbp),%edx
   1990b:	48 8d 35 42 1d 00 00 	lea    0x1d42(%rip),%rsi        # 1b654 <g_2104+0x12d8>
   19912:	48 89 c7             	mov    %rax,%rdi
   19915:	e8 d9 dd fe ff       	callq  76f3 <transparent_crc>
   1991a:	8b 05 90 49 00 00    	mov    0x4990(%rip),%eax        # 1e2b0 <g_505>
   19920:	48 98                	cltq   
   19922:	8b 55 fc             	mov    -0x4(%rbp),%edx
   19925:	48 8d 35 31 1d 00 00 	lea    0x1d31(%rip),%rsi        # 1b65d <g_2104+0x12e1>
   1992c:	48 89 c7             	mov    %rax,%rdi
   1992f:	e8 bf dd fe ff       	callq  76f3 <transparent_crc>
   19934:	8b 05 7a 49 00 00    	mov    0x497a(%rip),%eax        # 1e2b4 <g_580>
   1993a:	89 c1                	mov    %eax,%ecx
   1993c:	8b 45 fc             	mov    -0x4(%rbp),%eax
   1993f:	89 c2                	mov    %eax,%edx
   19941:	48 8d 35 1b 1d 00 00 	lea    0x1d1b(%rip),%rsi        # 1b663 <g_2104+0x12e7>
   19948:	48 89 cf             	mov    %rcx,%rdi
   1994b:	e8 a3 dd fe ff       	callq  76f3 <transparent_crc>
   19950:	48 8b 05 61 49 00 00 	mov    0x4961(%rip),%rax        # 1e2b8 <g_583>
   19957:	48 89 c1             	mov    %rax,%rcx
   1995a:	8b 45 fc             	mov    -0x4(%rbp),%eax
   1995d:	89 c2                	mov    %eax,%edx
   1995f:	48 8d 35 03 1d 00 00 	lea    0x1d03(%rip),%rsi        # 1b669 <g_2104+0x12ed>
   19966:	48 89 cf             	mov    %rcx,%rdi
   19969:	e8 85 dd fe ff       	callq  76f3 <transparent_crc>
   1996e:	0f b7 05 4b 49 00 00 	movzwl 0x494b(%rip),%eax        # 1e2c0 <g_642>
   19975:	0f b7 c0             	movzwl %ax,%eax
   19978:	8b 55 fc             	mov    -0x4(%rbp),%edx
   1997b:	48 8d 35 ed 1c 00 00 	lea    0x1ced(%rip),%rsi        # 1b66f <g_2104+0x12f3>
   19982:	48 89 c7             	mov    %rax,%rdi
   19985:	e8 69 dd fe ff       	callq  76f3 <transparent_crc>
   1998a:	0f b6 05 3f 49 00 00 	movzbl 0x493f(%rip),%eax        # 1e2d0 <g_759>
   19991:	0f b6 c0             	movzbl %al,%eax
   19994:	8b 55 fc             	mov    -0x4(%rbp),%edx
   19997:	48 8d 35 d7 1c 00 00 	lea    0x1cd7(%rip),%rsi        # 1b675 <g_2104+0x12f9>
   1999e:	48 89 c7             	mov    %rax,%rdi
   199a1:	e8 4d dd fe ff       	callq  76f3 <transparent_crc>
   199a6:	c7 45 f0 00 00 00 00 	movl   $0x0,-0x10(%rbp)
   199ad:	eb 7a                	jmp    19a29 <main+0x677>
   199af:	8b 45 f0             	mov    -0x10(%rbp),%eax
   199b2:	48 98                	cltq   
   199b4:	48 8d 14 c5 00 00 00 	lea    0x0(,%rax,8),%rdx
   199bb:	00 
   199bc:	48 8d 05 1d 49 00 00 	lea    0x491d(%rip),%rax        # 1e2e0 <g_809>
   199c3:	8b 04 02             	mov    (%rdx,%rax,1),%eax
   199c6:	89 c1                	mov    %eax,%ecx
   199c8:	8b 45 fc             	mov    -0x4(%rbp),%eax
   199cb:	89 c2                	mov    %eax,%edx
   199cd:	48 8d 35 a7 1c 00 00 	lea    0x1ca7(%rip),%rsi        # 1b67b <g_2104+0x12ff>
   199d4:	48 89 cf             	mov    %rcx,%rdi
   199d7:	e8 17 dd fe ff       	callq  76f3 <transparent_crc>
   199dc:	8b 45 f0             	mov    -0x10(%rbp),%eax
   199df:	48 98                	cltq   
   199e1:	48 8d 14 c5 00 00 00 	lea    0x0(,%rax,8),%rdx
   199e8:	00 
   199e9:	48 8d 05 f0 48 00 00 	lea    0x48f0(%rip),%rax        # 1e2e0 <g_809>
   199f0:	8b 04 02             	mov    (%rdx,%rax,1),%eax
   199f3:	89 c1                	mov    %eax,%ecx
   199f5:	8b 45 fc             	mov    -0x4(%rbp),%eax
   199f8:	89 c2                	mov    %eax,%edx
   199fa:	48 8d 35 86 1c 00 00 	lea    0x1c86(%rip),%rsi        # 1b687 <g_2104+0x130b>
   19a01:	48 89 cf             	mov    %rcx,%rdi
   19a04:	e8 ea dc fe ff       	callq  76f3 <transparent_crc>
   19a09:	83 7d fc 00          	cmpl   $0x0,-0x4(%rbp)
   19a0d:	74 16                	je     19a25 <main+0x673>
   19a0f:	8b 45 f0             	mov    -0x10(%rbp),%eax
   19a12:	89 c6                	mov    %eax,%esi
   19a14:	48 8d 3d e0 1b 00 00 	lea    0x1be0(%rip),%rdi        # 1b5fb <g_2104+0x127f>
   19a1b:	b8 00 00 00 00       	mov    $0x0,%eax
   19a20:	e8 5b c6 fe ff       	callq  6080 <printf@plt>
   19a25:	83 45 f0 01          	addl   $0x1,-0x10(%rbp)
   19a29:	83 7d f0 06          	cmpl   $0x6,-0x10(%rbp)
   19a2d:	7e 80                	jle    199af <main+0x5fd>
   19a2f:	8b 05 e3 48 00 00    	mov    0x48e3(%rip),%eax        # 1e318 <g_1032>
   19a35:	48 98                	cltq   
   19a37:	8b 55 fc             	mov    -0x4(%rbp),%edx
   19a3a:	48 8d 35 52 1c 00 00 	lea    0x1c52(%rip),%rsi        # 1b693 <g_2104+0x1317>
   19a41:	48 89 c7             	mov    %rax,%rdi
   19a44:	e8 aa dc fe ff       	callq  76f3 <transparent_crc>
   19a49:	48 8b 05 d0 48 00 00 	mov    0x48d0(%rip),%rax        # 1e320 <g_1054>
   19a50:	48 89 c1             	mov    %rax,%rcx
   19a53:	8b 45 fc             	mov    -0x4(%rbp),%eax
   19a56:	89 c2                	mov    %eax,%edx
   19a58:	48 8d 35 3b 1c 00 00 	lea    0x1c3b(%rip),%rsi        # 1b69a <g_2104+0x131e>
   19a5f:	48 89 cf             	mov    %rcx,%rdi
   19a62:	e8 8c dc fe ff       	callq  76f3 <transparent_crc>
   19a67:	0f b6 05 ba 48 00 00 	movzbl 0x48ba(%rip),%eax        # 1e328 <g_1151>
   19a6e:	48 0f be c0          	movsbq %al,%rax
   19a72:	8b 55 fc             	mov    -0x4(%rbp),%edx
   19a75:	48 8d 35 25 1c 00 00 	lea    0x1c25(%rip),%rsi        # 1b6a1 <g_2104+0x1325>
   19a7c:	48 89 c7             	mov    %rax,%rdi
   19a7f:	e8 6f dc fe ff       	callq  76f3 <transparent_crc>
   19a84:	0f b6 05 9e 48 00 00 	movzbl 0x489e(%rip),%eax        # 1e329 <g_1228>
   19a8b:	48 0f be c0          	movsbq %al,%rax
   19a8f:	8b 55 fc             	mov    -0x4(%rbp),%edx
   19a92:	48 8d 35 0f 1c 00 00 	lea    0x1c0f(%rip),%rsi        # 1b6a8 <g_2104+0x132c>
   19a99:	48 89 c7             	mov    %rax,%rdi
   19a9c:	e8 52 dc fe ff       	callq  76f3 <transparent_crc>
   19aa1:	0f b7 05 82 48 00 00 	movzwl 0x4882(%rip),%eax        # 1e32a <g_1299>
   19aa8:	48 0f bf c0          	movswq %ax,%rax
   19aac:	8b 55 fc             	mov    -0x4(%rbp),%edx
   19aaf:	48 8d 35 f9 1b 00 00 	lea    0x1bf9(%rip),%rsi        # 1b6af <g_2104+0x1333>
   19ab6:	48 89 c7             	mov    %rax,%rdi
   19ab9:	e8 35 dc fe ff       	callq  76f3 <transparent_crc>
   19abe:	b8 66 68 a6 b1       	mov    $0xb1a66866,%eax
   19ac3:	48 98                	cltq   
   19ac5:	8b 55 fc             	mov    -0x4(%rbp),%edx
   19ac8:	48 8d 35 e7 1b 00 00 	lea    0x1be7(%rip),%rsi        # 1b6b6 <g_2104+0x133a>
   19acf:	48 89 c7             	mov    %rax,%rdi
   19ad2:	e8 1c dc fe ff       	callq  76f3 <transparent_crc>
   19ad7:	8b 05 4f 48 00 00    	mov    0x484f(%rip),%eax        # 1e32c <g_1493>
   19add:	48 98                	cltq   
   19adf:	8b 55 fc             	mov    -0x4(%rbp),%edx
   19ae2:	48 8d 35 d4 1b 00 00 	lea    0x1bd4(%rip),%rsi        # 1b6bd <g_2104+0x1341>
   19ae9:	48 89 c7             	mov    %rax,%rdi
   19aec:	e8 02 dc fe ff       	callq  76f3 <transparent_crc>
   19af1:	8b 05 39 48 00 00    	mov    0x4839(%rip),%eax        # 1e330 <g_1627>
   19af7:	48 98                	cltq   
   19af9:	8b 55 fc             	mov    -0x4(%rbp),%edx
   19afc:	48 8d 35 c1 1b 00 00 	lea    0x1bc1(%rip),%rsi        # 1b6c4 <g_2104+0x1348>
   19b03:	48 89 c7             	mov    %rax,%rdi
   19b06:	e8 e8 db fe ff       	callq  76f3 <transparent_crc>
   19b0b:	8b 05 23 48 00 00    	mov    0x4823(%rip),%eax        # 1e334 <g_1628>
   19b11:	89 c1                	mov    %eax,%ecx
   19b13:	8b 45 fc             	mov    -0x4(%rbp),%eax
   19b16:	89 c2                	mov    %eax,%edx
   19b18:	48 8d 35 ac 1b 00 00 	lea    0x1bac(%rip),%rsi        # 1b6cb <g_2104+0x134f>
   19b1f:	48 89 cf             	mov    %rcx,%rdi
   19b22:	e8 cc db fe ff       	callq  76f3 <transparent_crc>
   19b27:	8b 05 0b 48 00 00    	mov    0x480b(%rip),%eax        # 1e338 <g_1665>
   19b2d:	89 c1                	mov    %eax,%ecx
   19b2f:	8b 45 fc             	mov    -0x4(%rbp),%eax
   19b32:	89 c2                	mov    %eax,%edx
   19b34:	48 8d 35 97 1b 00 00 	lea    0x1b97(%rip),%rsi        # 1b6d2 <g_2104+0x1356>
   19b3b:	48 89 cf             	mov    %rcx,%rdi
   19b3e:	e8 b0 db fe ff       	callq  76f3 <transparent_crc>
   19b43:	b8 fd ff ff ff       	mov    $0xfffffffd,%eax
   19b48:	0f b6 c0             	movzbl %al,%eax
   19b4b:	8b 55 fc             	mov    -0x4(%rbp),%edx
   19b4e:	48 8d 35 84 1b 00 00 	lea    0x1b84(%rip),%rsi        # 1b6d9 <g_2104+0x135d>
   19b55:	48 89 c7             	mov    %rax,%rdi
   19b58:	e8 96 db fe ff       	callq  76f3 <transparent_crc>
   19b5d:	8b 05 d9 47 00 00    	mov    0x47d9(%rip),%eax        # 1e33c <g_1903>
   19b63:	48 98                	cltq   
   19b65:	8b 55 fc             	mov    -0x4(%rbp),%edx
   19b68:	48 8d 35 71 1b 00 00 	lea    0x1b71(%rip),%rsi        # 1b6e0 <g_2104+0x1364>
   19b6f:	48 89 c7             	mov    %rax,%rdi
   19b72:	e8 7c db fe ff       	callq  76f3 <transparent_crc>
   19b77:	b8 02 00 00 00       	mov    $0x2,%eax
   19b7c:	48 98                	cltq   
   19b7e:	8b 55 fc             	mov    -0x4(%rbp),%edx
   19b81:	48 8d 35 5f 1b 00 00 	lea    0x1b5f(%rip),%rsi        # 1b6e7 <g_2104+0x136b>
   19b88:	48 89 c7             	mov    %rax,%rdi
   19b8b:	e8 63 db fe ff       	callq  76f3 <transparent_crc>
   19b90:	8b 05 aa 47 00 00    	mov    0x47aa(%rip),%eax        # 1e340 <g_2397>
   19b96:	48 98                	cltq   
   19b98:	8b 55 fc             	mov    -0x4(%rbp),%edx
   19b9b:	48 8d 35 4c 1b 00 00 	lea    0x1b4c(%rip),%rsi        # 1b6ee <g_2104+0x1372>
   19ba2:	48 89 c7             	mov    %rax,%rdi
   19ba5:	e8 49 db fe ff       	callq  76f3 <transparent_crc>
   19baa:	0f b6 05 bf 71 00 00 	movzbl 0x71bf(%rip),%eax        # 20d70 <g_2398>
   19bb1:	48 0f be c0          	movsbq %al,%rax
   19bb5:	8b 55 fc             	mov    -0x4(%rbp),%edx
   19bb8:	48 8d 35 36 1b 00 00 	lea    0x1b36(%rip),%rsi        # 1b6f5 <g_2104+0x1379>
   19bbf:	48 89 c7             	mov    %rax,%rdi
   19bc2:	e8 2c db fe ff       	callq  76f3 <transparent_crc>
   19bc7:	8b 05 77 47 00 00    	mov    0x4777(%rip),%eax        # 1e344 <g_2441>
   19bcd:	48 98                	cltq   
   19bcf:	8b 55 fc             	mov    -0x4(%rbp),%edx
   19bd2:	48 8d 35 26 1b 00 00 	lea    0x1b26(%rip),%rsi        # 1b6ff <g_2104+0x1383>
   19bd9:	48 89 c7             	mov    %rax,%rdi
   19bdc:	e8 12 db fe ff       	callq  76f3 <transparent_crc>
   19be1:	8b 05 61 47 00 00    	mov    0x4761(%rip),%eax        # 1e348 <g_2612>
   19be7:	48 98                	cltq   
   19be9:	8b 55 fc             	mov    -0x4(%rbp),%edx
   19bec:	48 8d 35 13 1b 00 00 	lea    0x1b13(%rip),%rsi        # 1b706 <g_2104+0x138a>
   19bf3:	48 89 c7             	mov    %rax,%rdi
   19bf6:	e8 f8 da fe ff       	callq  76f3 <transparent_crc>
   19bfb:	8b 05 4b 47 00 00    	mov    0x474b(%rip),%eax        # 1e34c <g_2753>
   19c01:	89 c1                	mov    %eax,%ecx
   19c03:	8b 45 fc             	mov    -0x4(%rbp),%eax
   19c06:	89 c2                	mov    %eax,%edx
   19c08:	48 8d 35 fe 1a 00 00 	lea    0x1afe(%rip),%rsi        # 1b70d <g_2104+0x1391>
   19c0f:	48 89 cf             	mov    %rcx,%rdi
   19c12:	e8 dc da fe ff       	callq  76f3 <transparent_crc>
   19c17:	8b 05 03 44 00 00    	mov    0x4403(%rip),%eax        # 1e020 <crc32_context>
   19c1d:	f7 d0                	not    %eax
   19c1f:	89 c2                	mov    %eax,%edx
   19c21:	8b 45 fc             	mov    -0x4(%rbp),%eax
   19c24:	89 c6                	mov    %eax,%esi
   19c26:	89 d7                	mov    %edx,%edi
   19c28:	e8 67 c5 fe ff       	callq  6194 <platform_main_end>
   19c2d:	b8 00 00 00 00       	mov    $0x0,%eax
   19c32:	c9                   	leaveq 
   19c33:	c3                   	retq   
   19c34:	66 2e 0f 1f 84 00 00 	nopw   %cs:0x0(%rax,%rax,1)
   19c3b:	00 00 00 
   19c3e:	66 90                	xchg   %ax,%ax

0000000000019c40 <__libc_csu_init>:
   19c40:	f3 0f 1e fa          	endbr64 
   19c44:	41 57                	push   %r15
   19c46:	4c 8d 3d a3 40 00 00 	lea    0x40a3(%rip),%r15        # 1dcf0 <__frame_dummy_init_array_entry>
   19c4d:	41 56                	push   %r14
   19c4f:	49 89 d6             	mov    %rdx,%r14
   19c52:	41 55                	push   %r13
   19c54:	49 89 f5             	mov    %rsi,%r13
   19c57:	41 54                	push   %r12
   19c59:	41 89 fc             	mov    %edi,%r12d
   19c5c:	55                   	push   %rbp
   19c5d:	48 8d 2d 94 40 00 00 	lea    0x4094(%rip),%rbp        # 1dcf8 <__do_global_dtors_aux_fini_array_entry>
   19c64:	53                   	push   %rbx
   19c65:	4c 29 fd             	sub    %r15,%rbp
   19c68:	48 83 ec 08          	sub    $0x8,%rsp
   19c6c:	e8 8f c3 fe ff       	callq  6000 <_init>
   19c71:	48 c1 fd 03          	sar    $0x3,%rbp
   19c75:	74 1f                	je     19c96 <__libc_csu_init+0x56>
   19c77:	31 db                	xor    %ebx,%ebx
   19c79:	0f 1f 80 00 00 00 00 	nopl   0x0(%rax)
   19c80:	4c 89 f2             	mov    %r14,%rdx
   19c83:	4c 89 ee             	mov    %r13,%rsi
   19c86:	44 89 e7             	mov    %r12d,%edi
   19c89:	41 ff 14 df          	callq  *(%r15,%rbx,8)
   19c8d:	48 83 c3 01          	add    $0x1,%rbx
   19c91:	48 39 dd             	cmp    %rbx,%rbp
   19c94:	75 ea                	jne    19c80 <__libc_csu_init+0x40>
   19c96:	48 83 c4 08          	add    $0x8,%rsp
   19c9a:	5b                   	pop    %rbx
   19c9b:	5d                   	pop    %rbp
   19c9c:	41 5c                	pop    %r12
   19c9e:	41 5d                	pop    %r13
   19ca0:	41 5e                	pop    %r14
   19ca2:	41 5f                	pop    %r15
   19ca4:	c3                   	retq   
   19ca5:	66 66 2e 0f 1f 84 00 	data16 nopw %cs:0x0(%rax,%rax,1)
   19cac:	00 00 00 00 

0000000000019cb0 <__libc_csu_fini>:
   19cb0:	f3 0f 1e fa          	endbr64 
   19cb4:	c3                   	retq   
