


Disassembly of section .text:

00000000000050a0 <_start>:
    50a0:	f3 0f 1e fa          	endbr64 
    50a4:	31 ed                	xor    %ebp,%ebp
    50a6:	49 89 d1             	mov    %rdx,%r9
    50a9:	5e                   	pop    %rsi
    50aa:	48 89 e2             	mov    %rsp,%rdx
    50ad:	48 83 e4 f0          	and    $0xfffffffffffffff0,%rsp
    50b1:	50                   	push   %rax
    50b2:	54                   	push   %rsp
    50b3:	4c 8d 05 e6 0d 01 00 	lea    0x10de6(%rip),%r8        # 15ea0 <__libc_csu_fini>
    50ba:	48 8d 0d 6f 0d 01 00 	lea    0x10d6f(%rip),%rcx        # 15e30 <__libc_csu_init>
    50c1:	48 8d 3d cf f8 00 00 	lea    0xf8cf(%rip),%rdi        # 14997 <main>
    50c8:	ff 15 12 5f 01 00    	callq  *0x15f12(%rip)        # 1afe0 <__libc_start_main@GLIBC_2.2.5>
    50ce:	f4                   	hlt    
    50cf:	90                   	nop

00000000000050d0 <deregister_tm_clones>:
    50d0:	48 8d 3d b9 83 01 00 	lea    0x183b9(%rip),%rdi        # 1d490 <__TMC_END__>
    50d7:	48 8d 05 b2 83 01 00 	lea    0x183b2(%rip),%rax        # 1d490 <__TMC_END__>
    50de:	48 39 f8             	cmp    %rdi,%rax
    50e1:	74 15                	je     50f8 <deregister_tm_clones+0x28>
    50e3:	48 8b 05 ee 5e 01 00 	mov    0x15eee(%rip),%rax        # 1afd8 <_ITM_deregisterTMCloneTable>
    50ea:	48 85 c0             	test   %rax,%rax
    50ed:	74 09                	je     50f8 <deregister_tm_clones+0x28>
    50ef:	ff e0                	jmpq   *%rax
    50f1:	0f 1f 80 00 00 00 00 	nopl   0x0(%rax)
    50f8:	c3                   	retq   
    50f9:	0f 1f 80 00 00 00 00 	nopl   0x0(%rax)

0000000000005100 <register_tm_clones>:
    5100:	48 8d 3d 89 83 01 00 	lea    0x18389(%rip),%rdi        # 1d490 <__TMC_END__>
    5107:	48 8d 35 82 83 01 00 	lea    0x18382(%rip),%rsi        # 1d490 <__TMC_END__>
    510e:	48 29 fe             	sub    %rdi,%rsi
    5111:	48 89 f0             	mov    %rsi,%rax
    5114:	48 c1 ee 3f          	shr    $0x3f,%rsi
    5118:	48 c1 f8 03          	sar    $0x3,%rax
    511c:	48 01 c6             	add    %rax,%rsi
    511f:	48 d1 fe             	sar    %rsi
    5122:	74 14                	je     5138 <register_tm_clones+0x38>
    5124:	48 8b 05 c5 5e 01 00 	mov    0x15ec5(%rip),%rax        # 1aff0 <_ITM_registerTMCloneTable>
    512b:	48 85 c0             	test   %rax,%rax
    512e:	74 08                	je     5138 <register_tm_clones+0x38>
    5130:	ff e0                	jmpq   *%rax
    5132:	66 0f 1f 44 00 00    	nopw   0x0(%rax,%rax,1)
    5138:	c3                   	retq   
    5139:	0f 1f 80 00 00 00 00 	nopl   0x0(%rax)

0000000000005140 <__do_global_dtors_aux>:
    5140:	f3 0f 1e fa          	endbr64 
    5144:	80 3d 55 83 01 00 00 	cmpb   $0x0,0x18355(%rip)        # 1d4a0 <completed.8061>
    514b:	75 2b                	jne    5178 <__do_global_dtors_aux+0x38>
    514d:	55                   	push   %rbp
    514e:	48 83 3d a2 5e 01 00 	cmpq   $0x0,0x15ea2(%rip)        # 1aff8 <__cxa_finalize@GLIBC_2.2.5>
    5155:	00 
    5156:	48 89 e5             	mov    %rsp,%rbp
    5159:	74 0c                	je     5167 <__do_global_dtors_aux+0x27>
    515b:	48 8b 3d a6 5e 01 00 	mov    0x15ea6(%rip),%rdi        # 1b008 <__dso_handle>
    5162:	e8 f9 fe ff ff       	callq  5060 <__cxa_finalize@plt>
    5167:	e8 64 ff ff ff       	callq  50d0 <deregister_tm_clones>
    516c:	c6 05 2d 83 01 00 01 	movb   $0x1,0x1832d(%rip)        # 1d4a0 <completed.8061>
    5173:	5d                   	pop    %rbp
    5174:	c3                   	retq   
    5175:	0f 1f 00             	nopl   (%rax)
    5178:	c3                   	retq   
    5179:	0f 1f 80 00 00 00 00 	nopl   0x0(%rax)

0000000000005180 <frame_dummy>:
    5180:	f3 0f 1e fa          	endbr64 
    5184:	e9 77 ff ff ff       	jmpq   5100 <register_tm_clones>

0000000000005189 <platform_main_begin>:
    5189:	f3 0f 1e fa          	endbr64 
    518d:	55                   	push   %rbp
    518e:	48 89 e5             	mov    %rsp,%rbp
    5191:	90                   	nop
    5192:	5d                   	pop    %rbp
    5193:	c3                   	retq   

0000000000005194 <platform_main_end>:
    5194:	f3 0f 1e fa          	endbr64 
    5198:	55                   	push   %rbp
    5199:	48 89 e5             	mov    %rsp,%rbp
    519c:	48 83 ec 10          	sub    $0x10,%rsp
    51a0:	89 7d fc             	mov    %edi,-0x4(%rbp)
    51a3:	89 75 f8             	mov    %esi,-0x8(%rbp)
    51a6:	8b 45 fc             	mov    -0x4(%rbp),%eax
    51a9:	89 c6                	mov    %eax,%esi
    51ab:	48 8d 3d 6e 0e 01 00 	lea    0x10e6e(%rip),%rdi        # 16020 <_IO_stdin_used+0x20>
    51b2:	b8 00 00 00 00       	mov    $0x0,%eax
    51b7:	e8 c4 fe ff ff       	callq  5080 <printf@plt>
    51bc:	90                   	nop
    51bd:	c9                   	leaveq 
    51be:	c3                   	retq   

00000000000051bf <safe_unary_minus_func_int8_t_s>:
    51bf:	f3 0f 1e fa          	endbr64 
    51c3:	55                   	push   %rbp
    51c4:	48 89 e5             	mov    %rsp,%rbp
    51c7:	89 f8                	mov    %edi,%eax
    51c9:	88 45 fc             	mov    %al,-0x4(%rbp)
    51cc:	0f b6 45 fc          	movzbl -0x4(%rbp),%eax
    51d0:	f7 d8                	neg    %eax
    51d2:	5d                   	pop    %rbp
    51d3:	c3                   	retq   

00000000000051d4 <safe_add_func_int8_t_s_s>:
    51d4:	f3 0f 1e fa          	endbr64 
    51d8:	55                   	push   %rbp
    51d9:	48 89 e5             	mov    %rsp,%rbp
    51dc:	89 fa                	mov    %edi,%edx
    51de:	89 f0                	mov    %esi,%eax
    51e0:	88 55 fc             	mov    %dl,-0x4(%rbp)
    51e3:	88 45 f8             	mov    %al,-0x8(%rbp)
    51e6:	0f b6 55 fc          	movzbl -0x4(%rbp),%edx
    51ea:	0f b6 45 f8          	movzbl -0x8(%rbp),%eax
    51ee:	01 d0                	add    %edx,%eax
    51f0:	5d                   	pop    %rbp
    51f1:	c3                   	retq   

00000000000051f2 <safe_sub_func_int8_t_s_s>:
    51f2:	f3 0f 1e fa          	endbr64 
    51f6:	55                   	push   %rbp
    51f7:	48 89 e5             	mov    %rsp,%rbp
    51fa:	89 fa                	mov    %edi,%edx
    51fc:	89 f0                	mov    %esi,%eax
    51fe:	88 55 fc             	mov    %dl,-0x4(%rbp)
    5201:	88 45 f8             	mov    %al,-0x8(%rbp)
    5204:	0f b6 55 fc          	movzbl -0x4(%rbp),%edx
    5208:	0f b6 45 f8          	movzbl -0x8(%rbp),%eax
    520c:	29 c2                	sub    %eax,%edx
    520e:	89 d0                	mov    %edx,%eax
    5210:	5d                   	pop    %rbp
    5211:	c3                   	retq   

0000000000005212 <safe_mul_func_int8_t_s_s>:
    5212:	f3 0f 1e fa          	endbr64 
    5216:	55                   	push   %rbp
    5217:	48 89 e5             	mov    %rsp,%rbp
    521a:	89 fa                	mov    %edi,%edx
    521c:	89 f0                	mov    %esi,%eax
    521e:	88 55 fc             	mov    %dl,-0x4(%rbp)
    5221:	88 45 f8             	mov    %al,-0x8(%rbp)
    5224:	0f b6 45 fc          	movzbl -0x4(%rbp),%eax
    5228:	0f b6 55 f8          	movzbl -0x8(%rbp),%edx
    522c:	0f af c2             	imul   %edx,%eax
    522f:	5d                   	pop    %rbp
    5230:	c3                   	retq   

0000000000005231 <safe_mod_func_int8_t_s_s>:
    5231:	f3 0f 1e fa          	endbr64 
    5235:	55                   	push   %rbp
    5236:	48 89 e5             	mov    %rsp,%rbp
    5239:	89 fa                	mov    %edi,%edx
    523b:	89 f0                	mov    %esi,%eax
    523d:	88 55 fc             	mov    %dl,-0x4(%rbp)
    5240:	88 45 f8             	mov    %al,-0x8(%rbp)
    5243:	80 7d f8 00          	cmpb   $0x0,-0x8(%rbp)
    5247:	74 1b                	je     5264 <safe_mod_func_int8_t_s_s+0x33>
    5249:	80 7d fc 80          	cmpb   $0x80,-0x4(%rbp)
    524d:	75 06                	jne    5255 <safe_mod_func_int8_t_s_s+0x24>
    524f:	80 7d f8 ff          	cmpb   $0xff,-0x8(%rbp)
    5253:	74 0f                	je     5264 <safe_mod_func_int8_t_s_s+0x33>
    5255:	0f be 45 fc          	movsbl -0x4(%rbp),%eax
    5259:	0f be 4d f8          	movsbl -0x8(%rbp),%ecx
    525d:	99                   	cltd   
    525e:	f7 f9                	idiv   %ecx
    5260:	89 d0                	mov    %edx,%eax
    5262:	eb 04                	jmp    5268 <safe_mod_func_int8_t_s_s+0x37>
    5264:	0f b6 45 fc          	movzbl -0x4(%rbp),%eax
    5268:	5d                   	pop    %rbp
    5269:	c3                   	retq   

000000000000526a <safe_div_func_int8_t_s_s>:
    526a:	f3 0f 1e fa          	endbr64 
    526e:	55                   	push   %rbp
    526f:	48 89 e5             	mov    %rsp,%rbp
    5272:	89 fa                	mov    %edi,%edx
    5274:	89 f0                	mov    %esi,%eax
    5276:	88 55 fc             	mov    %dl,-0x4(%rbp)
    5279:	88 45 f8             	mov    %al,-0x8(%rbp)
    527c:	80 7d f8 00          	cmpb   $0x0,-0x8(%rbp)
    5280:	74 19                	je     529b <safe_div_func_int8_t_s_s+0x31>
    5282:	80 7d fc 80          	cmpb   $0x80,-0x4(%rbp)
    5286:	75 06                	jne    528e <safe_div_func_int8_t_s_s+0x24>
    5288:	80 7d f8 ff          	cmpb   $0xff,-0x8(%rbp)
    528c:	74 0d                	je     529b <safe_div_func_int8_t_s_s+0x31>
    528e:	0f be 45 fc          	movsbl -0x4(%rbp),%eax
    5292:	0f be 4d f8          	movsbl -0x8(%rbp),%ecx
    5296:	99                   	cltd   
    5297:	f7 f9                	idiv   %ecx
    5299:	eb 04                	jmp    529f <safe_div_func_int8_t_s_s+0x35>
    529b:	0f b6 45 fc          	movzbl -0x4(%rbp),%eax
    529f:	5d                   	pop    %rbp
    52a0:	c3                   	retq   

00000000000052a1 <safe_lshift_func_int8_t_s_s>:
    52a1:	f3 0f 1e fa          	endbr64 
    52a5:	55                   	push   %rbp
    52a6:	48 89 e5             	mov    %rsp,%rbp
    52a9:	89 f8                	mov    %edi,%eax
    52ab:	89 75 f8             	mov    %esi,-0x8(%rbp)
    52ae:	88 45 fc             	mov    %al,-0x4(%rbp)
    52b1:	80 7d fc 00          	cmpb   $0x0,-0x4(%rbp)
    52b5:	78 31                	js     52e8 <safe_lshift_func_int8_t_s_s+0x47>
    52b7:	83 7d f8 00          	cmpl   $0x0,-0x8(%rbp)
    52bb:	78 2b                	js     52e8 <safe_lshift_func_int8_t_s_s+0x47>
    52bd:	83 7d f8 1f          	cmpl   $0x1f,-0x8(%rbp)
    52c1:	7f 25                	jg     52e8 <safe_lshift_func_int8_t_s_s+0x47>
    52c3:	0f be 55 fc          	movsbl -0x4(%rbp),%edx
    52c7:	8b 45 f8             	mov    -0x8(%rbp),%eax
    52ca:	be 7f 00 00 00       	mov    $0x7f,%esi
    52cf:	89 c1                	mov    %eax,%ecx
    52d1:	d3 fe                	sar    %cl,%esi
    52d3:	89 f0                	mov    %esi,%eax
    52d5:	39 c2                	cmp    %eax,%edx
    52d7:	7f 0f                	jg     52e8 <safe_lshift_func_int8_t_s_s+0x47>
    52d9:	0f be 55 fc          	movsbl -0x4(%rbp),%edx
    52dd:	8b 45 f8             	mov    -0x8(%rbp),%eax
    52e0:	89 c1                	mov    %eax,%ecx
    52e2:	d3 e2                	shl    %cl,%edx
    52e4:	89 d0                	mov    %edx,%eax
    52e6:	eb 04                	jmp    52ec <safe_lshift_func_int8_t_s_s+0x4b>
    52e8:	0f b6 45 fc          	movzbl -0x4(%rbp),%eax
    52ec:	5d                   	pop    %rbp
    52ed:	c3                   	retq   

00000000000052ee <safe_lshift_func_int8_t_s_u>:
    52ee:	f3 0f 1e fa          	endbr64 
    52f2:	55                   	push   %rbp
    52f3:	48 89 e5             	mov    %rsp,%rbp
    52f6:	89 f8                	mov    %edi,%eax
    52f8:	89 75 f8             	mov    %esi,-0x8(%rbp)
    52fb:	88 45 fc             	mov    %al,-0x4(%rbp)
    52fe:	80 7d fc 00          	cmpb   $0x0,-0x4(%rbp)
    5302:	78 2b                	js     532f <safe_lshift_func_int8_t_s_u+0x41>
    5304:	83 7d f8 1f          	cmpl   $0x1f,-0x8(%rbp)
    5308:	77 25                	ja     532f <safe_lshift_func_int8_t_s_u+0x41>
    530a:	0f be 55 fc          	movsbl -0x4(%rbp),%edx
    530e:	8b 45 f8             	mov    -0x8(%rbp),%eax
    5311:	be 7f 00 00 00       	mov    $0x7f,%esi
    5316:	89 c1                	mov    %eax,%ecx
    5318:	d3 fe                	sar    %cl,%esi
    531a:	89 f0                	mov    %esi,%eax
    531c:	39 c2                	cmp    %eax,%edx
    531e:	7f 0f                	jg     532f <safe_lshift_func_int8_t_s_u+0x41>
    5320:	0f be 55 fc          	movsbl -0x4(%rbp),%edx
    5324:	8b 45 f8             	mov    -0x8(%rbp),%eax
    5327:	89 c1                	mov    %eax,%ecx
    5329:	d3 e2                	shl    %cl,%edx
    532b:	89 d0                	mov    %edx,%eax
    532d:	eb 04                	jmp    5333 <safe_lshift_func_int8_t_s_u+0x45>
    532f:	0f b6 45 fc          	movzbl -0x4(%rbp),%eax
    5333:	5d                   	pop    %rbp
    5334:	c3                   	retq   

0000000000005335 <safe_rshift_func_int8_t_s_s>:
    5335:	f3 0f 1e fa          	endbr64 
    5339:	55                   	push   %rbp
    533a:	48 89 e5             	mov    %rsp,%rbp
    533d:	89 f8                	mov    %edi,%eax
    533f:	89 75 f8             	mov    %esi,-0x8(%rbp)
    5342:	88 45 fc             	mov    %al,-0x4(%rbp)
    5345:	80 7d fc 00          	cmpb   $0x0,-0x4(%rbp)
    5349:	78 1b                	js     5366 <safe_rshift_func_int8_t_s_s+0x31>
    534b:	83 7d f8 00          	cmpl   $0x0,-0x8(%rbp)
    534f:	78 15                	js     5366 <safe_rshift_func_int8_t_s_s+0x31>
    5351:	83 7d f8 1f          	cmpl   $0x1f,-0x8(%rbp)
    5355:	7f 0f                	jg     5366 <safe_rshift_func_int8_t_s_s+0x31>
    5357:	0f be 55 fc          	movsbl -0x4(%rbp),%edx
    535b:	8b 45 f8             	mov    -0x8(%rbp),%eax
    535e:	89 c1                	mov    %eax,%ecx
    5360:	d3 fa                	sar    %cl,%edx
    5362:	89 d0                	mov    %edx,%eax
    5364:	eb 04                	jmp    536a <safe_rshift_func_int8_t_s_s+0x35>
    5366:	0f b6 45 fc          	movzbl -0x4(%rbp),%eax
    536a:	5d                   	pop    %rbp
    536b:	c3                   	retq   

000000000000536c <safe_rshift_func_int8_t_s_u>:
    536c:	f3 0f 1e fa          	endbr64 
    5370:	55                   	push   %rbp
    5371:	48 89 e5             	mov    %rsp,%rbp
    5374:	89 f8                	mov    %edi,%eax
    5376:	89 75 f8             	mov    %esi,-0x8(%rbp)
    5379:	88 45 fc             	mov    %al,-0x4(%rbp)
    537c:	80 7d fc 00          	cmpb   $0x0,-0x4(%rbp)
    5380:	78 15                	js     5397 <safe_rshift_func_int8_t_s_u+0x2b>
    5382:	83 7d f8 1f          	cmpl   $0x1f,-0x8(%rbp)
    5386:	77 0f                	ja     5397 <safe_rshift_func_int8_t_s_u+0x2b>
    5388:	0f be 55 fc          	movsbl -0x4(%rbp),%edx
    538c:	8b 45 f8             	mov    -0x8(%rbp),%eax
    538f:	89 c1                	mov    %eax,%ecx
    5391:	d3 fa                	sar    %cl,%edx
    5393:	89 d0                	mov    %edx,%eax
    5395:	eb 04                	jmp    539b <safe_rshift_func_int8_t_s_u+0x2f>
    5397:	0f b6 45 fc          	movzbl -0x4(%rbp),%eax
    539b:	5d                   	pop    %rbp
    539c:	c3                   	retq   

000000000000539d <safe_unary_minus_func_int16_t_s>:
    539d:	f3 0f 1e fa          	endbr64 
    53a1:	55                   	push   %rbp
    53a2:	48 89 e5             	mov    %rsp,%rbp
    53a5:	89 f8                	mov    %edi,%eax
    53a7:	66 89 45 fc          	mov    %ax,-0x4(%rbp)
    53ab:	0f b7 45 fc          	movzwl -0x4(%rbp),%eax
    53af:	f7 d8                	neg    %eax
    53b1:	5d                   	pop    %rbp
    53b2:	c3                   	retq   

00000000000053b3 <safe_add_func_int16_t_s_s>:
    53b3:	f3 0f 1e fa          	endbr64 
    53b7:	55                   	push   %rbp
    53b8:	48 89 e5             	mov    %rsp,%rbp
    53bb:	89 fa                	mov    %edi,%edx
    53bd:	89 f0                	mov    %esi,%eax
    53bf:	66 89 55 fc          	mov    %dx,-0x4(%rbp)
    53c3:	66 89 45 f8          	mov    %ax,-0x8(%rbp)
    53c7:	0f b7 55 fc          	movzwl -0x4(%rbp),%edx
    53cb:	0f b7 45 f8          	movzwl -0x8(%rbp),%eax
    53cf:	01 d0                	add    %edx,%eax
    53d1:	5d                   	pop    %rbp
    53d2:	c3                   	retq   

00000000000053d3 <safe_sub_func_int16_t_s_s>:
    53d3:	f3 0f 1e fa          	endbr64 
    53d7:	55                   	push   %rbp
    53d8:	48 89 e5             	mov    %rsp,%rbp
    53db:	89 fa                	mov    %edi,%edx
    53dd:	89 f0                	mov    %esi,%eax
    53df:	66 89 55 fc          	mov    %dx,-0x4(%rbp)
    53e3:	66 89 45 f8          	mov    %ax,-0x8(%rbp)
    53e7:	0f b7 55 fc          	movzwl -0x4(%rbp),%edx
    53eb:	0f b7 45 f8          	movzwl -0x8(%rbp),%eax
    53ef:	29 c2                	sub    %eax,%edx
    53f1:	89 d0                	mov    %edx,%eax
    53f3:	5d                   	pop    %rbp
    53f4:	c3                   	retq   

00000000000053f5 <safe_mul_func_int16_t_s_s>:
    53f5:	f3 0f 1e fa          	endbr64 
    53f9:	55                   	push   %rbp
    53fa:	48 89 e5             	mov    %rsp,%rbp
    53fd:	89 fa                	mov    %edi,%edx
    53ff:	89 f0                	mov    %esi,%eax
    5401:	66 89 55 fc          	mov    %dx,-0x4(%rbp)
    5405:	66 89 45 f8          	mov    %ax,-0x8(%rbp)
    5409:	0f b7 55 fc          	movzwl -0x4(%rbp),%edx
    540d:	0f b7 45 f8          	movzwl -0x8(%rbp),%eax
    5411:	0f af c2             	imul   %edx,%eax
    5414:	5d                   	pop    %rbp
    5415:	c3                   	retq   

0000000000005416 <safe_mod_func_int16_t_s_s>:
    5416:	f3 0f 1e fa          	endbr64 
    541a:	55                   	push   %rbp
    541b:	48 89 e5             	mov    %rsp,%rbp
    541e:	89 fa                	mov    %edi,%edx
    5420:	89 f0                	mov    %esi,%eax
    5422:	66 89 55 fc          	mov    %dx,-0x4(%rbp)
    5426:	66 89 45 f8          	mov    %ax,-0x8(%rbp)
    542a:	66 83 7d f8 00       	cmpw   $0x0,-0x8(%rbp)
    542f:	74 1e                	je     544f <safe_mod_func_int16_t_s_s+0x39>
    5431:	66 81 7d fc 00 80    	cmpw   $0x8000,-0x4(%rbp)
    5437:	75 07                	jne    5440 <safe_mod_func_int16_t_s_s+0x2a>
    5439:	66 83 7d f8 ff       	cmpw   $0xffff,-0x8(%rbp)
    543e:	74 0f                	je     544f <safe_mod_func_int16_t_s_s+0x39>
    5440:	0f bf 45 fc          	movswl -0x4(%rbp),%eax
    5444:	0f bf 4d f8          	movswl -0x8(%rbp),%ecx
    5448:	99                   	cltd   
    5449:	f7 f9                	idiv   %ecx
    544b:	89 d0                	mov    %edx,%eax
    544d:	eb 04                	jmp    5453 <safe_mod_func_int16_t_s_s+0x3d>
    544f:	0f b7 45 fc          	movzwl -0x4(%rbp),%eax
    5453:	5d                   	pop    %rbp
    5454:	c3                   	retq   

0000000000005455 <safe_div_func_int16_t_s_s>:
    5455:	f3 0f 1e fa          	endbr64 
    5459:	55                   	push   %rbp
    545a:	48 89 e5             	mov    %rsp,%rbp
    545d:	89 fa                	mov    %edi,%edx
    545f:	89 f0                	mov    %esi,%eax
    5461:	66 89 55 fc          	mov    %dx,-0x4(%rbp)
    5465:	66 89 45 f8          	mov    %ax,-0x8(%rbp)
    5469:	66 83 7d f8 00       	cmpw   $0x0,-0x8(%rbp)
    546e:	74 1c                	je     548c <safe_div_func_int16_t_s_s+0x37>
    5470:	66 81 7d fc 00 80    	cmpw   $0x8000,-0x4(%rbp)
    5476:	75 07                	jne    547f <safe_div_func_int16_t_s_s+0x2a>
    5478:	66 83 7d f8 ff       	cmpw   $0xffff,-0x8(%rbp)
    547d:	74 0d                	je     548c <safe_div_func_int16_t_s_s+0x37>
    547f:	0f bf 45 fc          	movswl -0x4(%rbp),%eax
    5483:	0f bf 4d f8          	movswl -0x8(%rbp),%ecx
    5487:	99                   	cltd   
    5488:	f7 f9                	idiv   %ecx
    548a:	eb 04                	jmp    5490 <safe_div_func_int16_t_s_s+0x3b>
    548c:	0f b7 45 fc          	movzwl -0x4(%rbp),%eax
    5490:	5d                   	pop    %rbp
    5491:	c3                   	retq   

0000000000005492 <safe_lshift_func_int16_t_s_s>:
    5492:	f3 0f 1e fa          	endbr64 
    5496:	55                   	push   %rbp
    5497:	48 89 e5             	mov    %rsp,%rbp
    549a:	89 f8                	mov    %edi,%eax
    549c:	89 75 f8             	mov    %esi,-0x8(%rbp)
    549f:	66 89 45 fc          	mov    %ax,-0x4(%rbp)
    54a3:	66 83 7d fc 00       	cmpw   $0x0,-0x4(%rbp)
    54a8:	78 31                	js     54db <safe_lshift_func_int16_t_s_s+0x49>
    54aa:	83 7d f8 00          	cmpl   $0x0,-0x8(%rbp)
    54ae:	78 2b                	js     54db <safe_lshift_func_int16_t_s_s+0x49>
    54b0:	83 7d f8 1f          	cmpl   $0x1f,-0x8(%rbp)
    54b4:	7f 25                	jg     54db <safe_lshift_func_int16_t_s_s+0x49>
    54b6:	0f bf 55 fc          	movswl -0x4(%rbp),%edx
    54ba:	8b 45 f8             	mov    -0x8(%rbp),%eax
    54bd:	be ff 7f 00 00       	mov    $0x7fff,%esi
    54c2:	89 c1                	mov    %eax,%ecx
    54c4:	d3 fe                	sar    %cl,%esi
    54c6:	89 f0                	mov    %esi,%eax
    54c8:	39 c2                	cmp    %eax,%edx
    54ca:	7f 0f                	jg     54db <safe_lshift_func_int16_t_s_s+0x49>
    54cc:	0f bf 55 fc          	movswl -0x4(%rbp),%edx
    54d0:	8b 45 f8             	mov    -0x8(%rbp),%eax
    54d3:	89 c1                	mov    %eax,%ecx
    54d5:	d3 e2                	shl    %cl,%edx
    54d7:	89 d0                	mov    %edx,%eax
    54d9:	eb 04                	jmp    54df <safe_lshift_func_int16_t_s_s+0x4d>
    54db:	0f b7 45 fc          	movzwl -0x4(%rbp),%eax
    54df:	5d                   	pop    %rbp
    54e0:	c3                   	retq   

00000000000054e1 <safe_lshift_func_int16_t_s_u>:
    54e1:	f3 0f 1e fa          	endbr64 
    54e5:	55                   	push   %rbp
    54e6:	48 89 e5             	mov    %rsp,%rbp
    54e9:	89 f8                	mov    %edi,%eax
    54eb:	89 75 f8             	mov    %esi,-0x8(%rbp)
    54ee:	66 89 45 fc          	mov    %ax,-0x4(%rbp)
    54f2:	66 83 7d fc 00       	cmpw   $0x0,-0x4(%rbp)
    54f7:	78 2b                	js     5524 <safe_lshift_func_int16_t_s_u+0x43>
    54f9:	83 7d f8 1f          	cmpl   $0x1f,-0x8(%rbp)
    54fd:	77 25                	ja     5524 <safe_lshift_func_int16_t_s_u+0x43>
    54ff:	0f bf 55 fc          	movswl -0x4(%rbp),%edx
    5503:	8b 45 f8             	mov    -0x8(%rbp),%eax
    5506:	be ff 7f 00 00       	mov    $0x7fff,%esi
    550b:	89 c1                	mov    %eax,%ecx
    550d:	d3 fe                	sar    %cl,%esi
    550f:	89 f0                	mov    %esi,%eax
    5511:	39 c2                	cmp    %eax,%edx
    5513:	7f 0f                	jg     5524 <safe_lshift_func_int16_t_s_u+0x43>
    5515:	0f bf 55 fc          	movswl -0x4(%rbp),%edx
    5519:	8b 45 f8             	mov    -0x8(%rbp),%eax
    551c:	89 c1                	mov    %eax,%ecx
    551e:	d3 e2                	shl    %cl,%edx
    5520:	89 d0                	mov    %edx,%eax
    5522:	eb 04                	jmp    5528 <safe_lshift_func_int16_t_s_u+0x47>
    5524:	0f b7 45 fc          	movzwl -0x4(%rbp),%eax
    5528:	5d                   	pop    %rbp
    5529:	c3                   	retq   

000000000000552a <safe_rshift_func_int16_t_s_s>:
    552a:	f3 0f 1e fa          	endbr64 
    552e:	55                   	push   %rbp
    552f:	48 89 e5             	mov    %rsp,%rbp
    5532:	89 f8                	mov    %edi,%eax
    5534:	89 75 f8             	mov    %esi,-0x8(%rbp)
    5537:	66 89 45 fc          	mov    %ax,-0x4(%rbp)
    553b:	66 83 7d fc 00       	cmpw   $0x0,-0x4(%rbp)
    5540:	78 1b                	js     555d <safe_rshift_func_int16_t_s_s+0x33>
    5542:	83 7d f8 00          	cmpl   $0x0,-0x8(%rbp)
    5546:	78 15                	js     555d <safe_rshift_func_int16_t_s_s+0x33>
    5548:	83 7d f8 1f          	cmpl   $0x1f,-0x8(%rbp)
    554c:	7f 0f                	jg     555d <safe_rshift_func_int16_t_s_s+0x33>
    554e:	0f bf 55 fc          	movswl -0x4(%rbp),%edx
    5552:	8b 45 f8             	mov    -0x8(%rbp),%eax
    5555:	89 c1                	mov    %eax,%ecx
    5557:	d3 fa                	sar    %cl,%edx
    5559:	89 d0                	mov    %edx,%eax
    555b:	eb 04                	jmp    5561 <safe_rshift_func_int16_t_s_s+0x37>
    555d:	0f b7 45 fc          	movzwl -0x4(%rbp),%eax
    5561:	5d                   	pop    %rbp
    5562:	c3                   	retq   

0000000000005563 <safe_rshift_func_int16_t_s_u>:
    5563:	f3 0f 1e fa          	endbr64 
    5567:	55                   	push   %rbp
    5568:	48 89 e5             	mov    %rsp,%rbp
    556b:	89 f8                	mov    %edi,%eax
    556d:	89 75 f8             	mov    %esi,-0x8(%rbp)
    5570:	66 89 45 fc          	mov    %ax,-0x4(%rbp)
    5574:	66 83 7d fc 00       	cmpw   $0x0,-0x4(%rbp)
    5579:	78 15                	js     5590 <safe_rshift_func_int16_t_s_u+0x2d>
    557b:	83 7d f8 1f          	cmpl   $0x1f,-0x8(%rbp)
    557f:	77 0f                	ja     5590 <safe_rshift_func_int16_t_s_u+0x2d>
    5581:	0f bf 55 fc          	movswl -0x4(%rbp),%edx
    5585:	8b 45 f8             	mov    -0x8(%rbp),%eax
    5588:	89 c1                	mov    %eax,%ecx
    558a:	d3 fa                	sar    %cl,%edx
    558c:	89 d0                	mov    %edx,%eax
    558e:	eb 04                	jmp    5594 <safe_rshift_func_int16_t_s_u+0x31>
    5590:	0f b7 45 fc          	movzwl -0x4(%rbp),%eax
    5594:	5d                   	pop    %rbp
    5595:	c3                   	retq   

0000000000005596 <safe_unary_minus_func_int32_t_s>:
    5596:	f3 0f 1e fa          	endbr64 
    559a:	55                   	push   %rbp
    559b:	48 89 e5             	mov    %rsp,%rbp
    559e:	89 7d fc             	mov    %edi,-0x4(%rbp)
    55a1:	81 7d fc 00 00 00 80 	cmpl   $0x80000000,-0x4(%rbp)
    55a8:	74 07                	je     55b1 <safe_unary_minus_func_int32_t_s+0x1b>
    55aa:	8b 45 fc             	mov    -0x4(%rbp),%eax
    55ad:	f7 d8                	neg    %eax
    55af:	eb 03                	jmp    55b4 <safe_unary_minus_func_int32_t_s+0x1e>
    55b1:	8b 45 fc             	mov    -0x4(%rbp),%eax
    55b4:	5d                   	pop    %rbp
    55b5:	c3                   	retq   

00000000000055b6 <safe_add_func_int32_t_s_s>:
    55b6:	f3 0f 1e fa          	endbr64 
    55ba:	55                   	push   %rbp
    55bb:	48 89 e5             	mov    %rsp,%rbp
    55be:	89 7d fc             	mov    %edi,-0x4(%rbp)
    55c1:	89 75 f8             	mov    %esi,-0x8(%rbp)
    55c4:	83 7d fc 00          	cmpl   $0x0,-0x4(%rbp)
    55c8:	7e 13                	jle    55dd <safe_add_func_int32_t_s_s+0x27>
    55ca:	83 7d f8 00          	cmpl   $0x0,-0x8(%rbp)
    55ce:	7e 0d                	jle    55dd <safe_add_func_int32_t_s_s+0x27>
    55d0:	b8 ff ff ff 7f       	mov    $0x7fffffff,%eax
    55d5:	2b 45 f8             	sub    -0x8(%rbp),%eax
    55d8:	39 45 fc             	cmp    %eax,-0x4(%rbp)
    55db:	7f 23                	jg     5600 <safe_add_func_int32_t_s_s+0x4a>
    55dd:	83 7d fc 00          	cmpl   $0x0,-0x4(%rbp)
    55e1:	79 13                	jns    55f6 <safe_add_func_int32_t_s_s+0x40>
    55e3:	83 7d f8 00          	cmpl   $0x0,-0x8(%rbp)
    55e7:	79 0d                	jns    55f6 <safe_add_func_int32_t_s_s+0x40>
    55e9:	b8 00 00 00 80       	mov    $0x80000000,%eax
    55ee:	2b 45 f8             	sub    -0x8(%rbp),%eax
    55f1:	39 45 fc             	cmp    %eax,-0x4(%rbp)
    55f4:	7c 0a                	jl     5600 <safe_add_func_int32_t_s_s+0x4a>
    55f6:	8b 55 fc             	mov    -0x4(%rbp),%edx
    55f9:	8b 45 f8             	mov    -0x8(%rbp),%eax
    55fc:	01 d0                	add    %edx,%eax
    55fe:	eb 03                	jmp    5603 <safe_add_func_int32_t_s_s+0x4d>
    5600:	8b 45 fc             	mov    -0x4(%rbp),%eax
    5603:	5d                   	pop    %rbp
    5604:	c3                   	retq   

0000000000005605 <safe_sub_func_int32_t_s_s>:
    5605:	f3 0f 1e fa          	endbr64 
    5609:	55                   	push   %rbp
    560a:	48 89 e5             	mov    %rsp,%rbp
    560d:	89 7d fc             	mov    %edi,-0x4(%rbp)
    5610:	89 75 f8             	mov    %esi,-0x8(%rbp)
    5613:	8b 45 fc             	mov    -0x4(%rbp),%eax
    5616:	33 45 f8             	xor    -0x8(%rbp),%eax
    5619:	89 c2                	mov    %eax,%edx
    561b:	8b 45 fc             	mov    -0x4(%rbp),%eax
    561e:	33 45 f8             	xor    -0x8(%rbp),%eax
    5621:	25 00 00 00 80       	and    $0x80000000,%eax
    5626:	33 45 fc             	xor    -0x4(%rbp),%eax
    5629:	2b 45 f8             	sub    -0x8(%rbp),%eax
    562c:	33 45 f8             	xor    -0x8(%rbp),%eax
    562f:	21 d0                	and    %edx,%eax
    5631:	85 c0                	test   %eax,%eax
    5633:	78 08                	js     563d <safe_sub_func_int32_t_s_s+0x38>
    5635:	8b 45 fc             	mov    -0x4(%rbp),%eax
    5638:	2b 45 f8             	sub    -0x8(%rbp),%eax
    563b:	eb 03                	jmp    5640 <safe_sub_func_int32_t_s_s+0x3b>
    563d:	8b 45 fc             	mov    -0x4(%rbp),%eax
    5640:	5d                   	pop    %rbp
    5641:	c3                   	retq   

0000000000005642 <safe_mul_func_int32_t_s_s>:
    5642:	f3 0f 1e fa          	endbr64 
    5646:	55                   	push   %rbp
    5647:	48 89 e5             	mov    %rsp,%rbp
    564a:	89 7d fc             	mov    %edi,-0x4(%rbp)
    564d:	89 75 f8             	mov    %esi,-0x8(%rbp)
    5650:	83 7d fc 00          	cmpl   $0x0,-0x4(%rbp)
    5654:	7e 14                	jle    566a <safe_mul_func_int32_t_s_s+0x28>
    5656:	83 7d f8 00          	cmpl   $0x0,-0x8(%rbp)
    565a:	7e 0e                	jle    566a <safe_mul_func_int32_t_s_s+0x28>
    565c:	b8 ff ff ff 7f       	mov    $0x7fffffff,%eax
    5661:	99                   	cltd   
    5662:	f7 7d f8             	idivl  -0x8(%rbp)
    5665:	39 45 fc             	cmp    %eax,-0x4(%rbp)
    5668:	7f 5d                	jg     56c7 <safe_mul_func_int32_t_s_s+0x85>
    566a:	83 7d fc 00          	cmpl   $0x0,-0x4(%rbp)
    566e:	7e 14                	jle    5684 <safe_mul_func_int32_t_s_s+0x42>
    5670:	83 7d f8 00          	cmpl   $0x0,-0x8(%rbp)
    5674:	7f 0e                	jg     5684 <safe_mul_func_int32_t_s_s+0x42>
    5676:	b8 00 00 00 80       	mov    $0x80000000,%eax
    567b:	99                   	cltd   
    567c:	f7 7d fc             	idivl  -0x4(%rbp)
    567f:	39 45 f8             	cmp    %eax,-0x8(%rbp)
    5682:	7c 43                	jl     56c7 <safe_mul_func_int32_t_s_s+0x85>
    5684:	83 7d fc 00          	cmpl   $0x0,-0x4(%rbp)
    5688:	7f 14                	jg     569e <safe_mul_func_int32_t_s_s+0x5c>
    568a:	83 7d f8 00          	cmpl   $0x0,-0x8(%rbp)
    568e:	7e 0e                	jle    569e <safe_mul_func_int32_t_s_s+0x5c>
    5690:	b8 00 00 00 80       	mov    $0x80000000,%eax
    5695:	99                   	cltd   
    5696:	f7 7d f8             	idivl  -0x8(%rbp)
    5699:	39 45 fc             	cmp    %eax,-0x4(%rbp)
    569c:	7c 29                	jl     56c7 <safe_mul_func_int32_t_s_s+0x85>
    569e:	83 7d fc 00          	cmpl   $0x0,-0x4(%rbp)
    56a2:	7f 1a                	jg     56be <safe_mul_func_int32_t_s_s+0x7c>
    56a4:	83 7d f8 00          	cmpl   $0x0,-0x8(%rbp)
    56a8:	7f 14                	jg     56be <safe_mul_func_int32_t_s_s+0x7c>
    56aa:	83 7d fc 00          	cmpl   $0x0,-0x4(%rbp)
    56ae:	74 0e                	je     56be <safe_mul_func_int32_t_s_s+0x7c>
    56b0:	b8 ff ff ff 7f       	mov    $0x7fffffff,%eax
    56b5:	99                   	cltd   
    56b6:	f7 7d fc             	idivl  -0x4(%rbp)
    56b9:	39 45 f8             	cmp    %eax,-0x8(%rbp)
    56bc:	7c 09                	jl     56c7 <safe_mul_func_int32_t_s_s+0x85>
    56be:	8b 45 fc             	mov    -0x4(%rbp),%eax
    56c1:	0f af 45 f8          	imul   -0x8(%rbp),%eax
    56c5:	eb 03                	jmp    56ca <safe_mul_func_int32_t_s_s+0x88>
    56c7:	8b 45 fc             	mov    -0x4(%rbp),%eax
    56ca:	5d                   	pop    %rbp
    56cb:	c3                   	retq   

00000000000056cc <safe_mod_func_int32_t_s_s>:
    56cc:	f3 0f 1e fa          	endbr64 
    56d0:	55                   	push   %rbp
    56d1:	48 89 e5             	mov    %rsp,%rbp
    56d4:	89 7d fc             	mov    %edi,-0x4(%rbp)
    56d7:	89 75 f8             	mov    %esi,-0x8(%rbp)
    56da:	83 7d f8 00          	cmpl   $0x0,-0x8(%rbp)
    56de:	74 1a                	je     56fa <safe_mod_func_int32_t_s_s+0x2e>
    56e0:	81 7d fc 00 00 00 80 	cmpl   $0x80000000,-0x4(%rbp)
    56e7:	75 06                	jne    56ef <safe_mod_func_int32_t_s_s+0x23>
    56e9:	83 7d f8 ff          	cmpl   $0xffffffff,-0x8(%rbp)
    56ed:	74 0b                	je     56fa <safe_mod_func_int32_t_s_s+0x2e>
    56ef:	8b 45 fc             	mov    -0x4(%rbp),%eax
    56f2:	99                   	cltd   
    56f3:	f7 7d f8             	idivl  -0x8(%rbp)
    56f6:	89 d0                	mov    %edx,%eax
    56f8:	eb 03                	jmp    56fd <safe_mod_func_int32_t_s_s+0x31>
    56fa:	8b 45 fc             	mov    -0x4(%rbp),%eax
    56fd:	5d                   	pop    %rbp
    56fe:	c3                   	retq   

00000000000056ff <safe_div_func_int32_t_s_s>:
    56ff:	f3 0f 1e fa          	endbr64 
    5703:	55                   	push   %rbp
    5704:	48 89 e5             	mov    %rsp,%rbp
    5707:	89 7d fc             	mov    %edi,-0x4(%rbp)
    570a:	89 75 f8             	mov    %esi,-0x8(%rbp)
    570d:	83 7d f8 00          	cmpl   $0x0,-0x8(%rbp)
    5711:	74 18                	je     572b <safe_div_func_int32_t_s_s+0x2c>
    5713:	81 7d fc 00 00 00 80 	cmpl   $0x80000000,-0x4(%rbp)
    571a:	75 06                	jne    5722 <safe_div_func_int32_t_s_s+0x23>
    571c:	83 7d f8 ff          	cmpl   $0xffffffff,-0x8(%rbp)
    5720:	74 09                	je     572b <safe_div_func_int32_t_s_s+0x2c>
    5722:	8b 45 fc             	mov    -0x4(%rbp),%eax
    5725:	99                   	cltd   
    5726:	f7 7d f8             	idivl  -0x8(%rbp)
    5729:	eb 03                	jmp    572e <safe_div_func_int32_t_s_s+0x2f>
    572b:	8b 45 fc             	mov    -0x4(%rbp),%eax
    572e:	5d                   	pop    %rbp
    572f:	c3                   	retq   

0000000000005730 <safe_lshift_func_int32_t_s_s>:
    5730:	f3 0f 1e fa          	endbr64 
    5734:	55                   	push   %rbp
    5735:	48 89 e5             	mov    %rsp,%rbp
    5738:	89 7d fc             	mov    %edi,-0x4(%rbp)
    573b:	89 75 f8             	mov    %esi,-0x8(%rbp)
    573e:	83 7d fc 00          	cmpl   $0x0,-0x4(%rbp)
    5742:	78 2d                	js     5771 <safe_lshift_func_int32_t_s_s+0x41>
    5744:	83 7d f8 00          	cmpl   $0x0,-0x8(%rbp)
    5748:	78 27                	js     5771 <safe_lshift_func_int32_t_s_s+0x41>
    574a:	83 7d f8 1f          	cmpl   $0x1f,-0x8(%rbp)
    574e:	7f 21                	jg     5771 <safe_lshift_func_int32_t_s_s+0x41>
    5750:	8b 45 f8             	mov    -0x8(%rbp),%eax
    5753:	ba ff ff ff 7f       	mov    $0x7fffffff,%edx
    5758:	89 c1                	mov    %eax,%ecx
    575a:	d3 fa                	sar    %cl,%edx
    575c:	89 d0                	mov    %edx,%eax
    575e:	39 45 fc             	cmp    %eax,-0x4(%rbp)
    5761:	7f 0e                	jg     5771 <safe_lshift_func_int32_t_s_s+0x41>
    5763:	8b 45 f8             	mov    -0x8(%rbp),%eax
    5766:	8b 55 fc             	mov    -0x4(%rbp),%edx
    5769:	89 c1                	mov    %eax,%ecx
    576b:	d3 e2                	shl    %cl,%edx
    576d:	89 d0                	mov    %edx,%eax
    576f:	eb 03                	jmp    5774 <safe_lshift_func_int32_t_s_s+0x44>
    5771:	8b 45 fc             	mov    -0x4(%rbp),%eax
    5774:	5d                   	pop    %rbp
    5775:	c3                   	retq   

0000000000005776 <safe_lshift_func_int32_t_s_u>:
    5776:	f3 0f 1e fa          	endbr64 
    577a:	55                   	push   %rbp
    577b:	48 89 e5             	mov    %rsp,%rbp
    577e:	89 7d fc             	mov    %edi,-0x4(%rbp)
    5781:	89 75 f8             	mov    %esi,-0x8(%rbp)
    5784:	83 7d fc 00          	cmpl   $0x0,-0x4(%rbp)
    5788:	78 27                	js     57b1 <safe_lshift_func_int32_t_s_u+0x3b>
    578a:	83 7d f8 1f          	cmpl   $0x1f,-0x8(%rbp)
    578e:	77 21                	ja     57b1 <safe_lshift_func_int32_t_s_u+0x3b>
    5790:	8b 45 f8             	mov    -0x8(%rbp),%eax
    5793:	ba ff ff ff 7f       	mov    $0x7fffffff,%edx
    5798:	89 c1                	mov    %eax,%ecx
    579a:	d3 fa                	sar    %cl,%edx
    579c:	89 d0                	mov    %edx,%eax
    579e:	39 45 fc             	cmp    %eax,-0x4(%rbp)
    57a1:	7f 0e                	jg     57b1 <safe_lshift_func_int32_t_s_u+0x3b>
    57a3:	8b 45 f8             	mov    -0x8(%rbp),%eax
    57a6:	8b 55 fc             	mov    -0x4(%rbp),%edx
    57a9:	89 c1                	mov    %eax,%ecx
    57ab:	d3 e2                	shl    %cl,%edx
    57ad:	89 d0                	mov    %edx,%eax
    57af:	eb 03                	jmp    57b4 <safe_lshift_func_int32_t_s_u+0x3e>
    57b1:	8b 45 fc             	mov    -0x4(%rbp),%eax
    57b4:	5d                   	pop    %rbp
    57b5:	c3                   	retq   

00000000000057b6 <safe_rshift_func_int32_t_s_s>:
    57b6:	f3 0f 1e fa          	endbr64 
    57ba:	55                   	push   %rbp
    57bb:	48 89 e5             	mov    %rsp,%rbp
    57be:	89 7d fc             	mov    %edi,-0x4(%rbp)
    57c1:	89 75 f8             	mov    %esi,-0x8(%rbp)
    57c4:	83 7d fc 00          	cmpl   $0x0,-0x4(%rbp)
    57c8:	78 1a                	js     57e4 <safe_rshift_func_int32_t_s_s+0x2e>
    57ca:	83 7d f8 00          	cmpl   $0x0,-0x8(%rbp)
    57ce:	78 14                	js     57e4 <safe_rshift_func_int32_t_s_s+0x2e>
    57d0:	83 7d f8 1f          	cmpl   $0x1f,-0x8(%rbp)
    57d4:	7f 0e                	jg     57e4 <safe_rshift_func_int32_t_s_s+0x2e>
    57d6:	8b 45 f8             	mov    -0x8(%rbp),%eax
    57d9:	8b 55 fc             	mov    -0x4(%rbp),%edx
    57dc:	89 c1                	mov    %eax,%ecx
    57de:	d3 fa                	sar    %cl,%edx
    57e0:	89 d0                	mov    %edx,%eax
    57e2:	eb 03                	jmp    57e7 <safe_rshift_func_int32_t_s_s+0x31>
    57e4:	8b 45 fc             	mov    -0x4(%rbp),%eax
    57e7:	5d                   	pop    %rbp
    57e8:	c3                   	retq   

00000000000057e9 <safe_rshift_func_int32_t_s_u>:
    57e9:	f3 0f 1e fa          	endbr64 
    57ed:	55                   	push   %rbp
    57ee:	48 89 e5             	mov    %rsp,%rbp
    57f1:	89 7d fc             	mov    %edi,-0x4(%rbp)
    57f4:	89 75 f8             	mov    %esi,-0x8(%rbp)
    57f7:	83 7d fc 00          	cmpl   $0x0,-0x4(%rbp)
    57fb:	78 14                	js     5811 <safe_rshift_func_int32_t_s_u+0x28>
    57fd:	83 7d f8 1f          	cmpl   $0x1f,-0x8(%rbp)
    5801:	77 0e                	ja     5811 <safe_rshift_func_int32_t_s_u+0x28>
    5803:	8b 45 f8             	mov    -0x8(%rbp),%eax
    5806:	8b 55 fc             	mov    -0x4(%rbp),%edx
    5809:	89 c1                	mov    %eax,%ecx
    580b:	d3 fa                	sar    %cl,%edx
    580d:	89 d0                	mov    %edx,%eax
    580f:	eb 03                	jmp    5814 <safe_rshift_func_int32_t_s_u+0x2b>
    5811:	8b 45 fc             	mov    -0x4(%rbp),%eax
    5814:	5d                   	pop    %rbp
    5815:	c3                   	retq   

0000000000005816 <safe_unary_minus_func_int64_t_s>:
    5816:	f3 0f 1e fa          	endbr64 
    581a:	55                   	push   %rbp
    581b:	48 89 e5             	mov    %rsp,%rbp
    581e:	48 89 7d f8          	mov    %rdi,-0x8(%rbp)
    5822:	48 b8 00 00 00 00 00 	movabs $0x8000000000000000,%rax
    5829:	00 00 80 
    582c:	48 39 45 f8          	cmp    %rax,-0x8(%rbp)
    5830:	74 09                	je     583b <safe_unary_minus_func_int64_t_s+0x25>
    5832:	48 8b 45 f8          	mov    -0x8(%rbp),%rax
    5836:	48 f7 d8             	neg    %rax
    5839:	eb 04                	jmp    583f <safe_unary_minus_func_int64_t_s+0x29>
    583b:	48 8b 45 f8          	mov    -0x8(%rbp),%rax
    583f:	5d                   	pop    %rbp
    5840:	c3                   	retq   

0000000000005841 <safe_add_func_int64_t_s_s>:
    5841:	f3 0f 1e fa          	endbr64 
    5845:	55                   	push   %rbp
    5846:	48 89 e5             	mov    %rsp,%rbp
    5849:	48 89 7d f8          	mov    %rdi,-0x8(%rbp)
    584d:	48 89 75 f0          	mov    %rsi,-0x10(%rbp)
    5851:	48 83 7d f8 00       	cmpq   $0x0,-0x8(%rbp)
    5856:	7e 1b                	jle    5873 <safe_add_func_int64_t_s_s+0x32>
    5858:	48 83 7d f0 00       	cmpq   $0x0,-0x10(%rbp)
    585d:	7e 14                	jle    5873 <safe_add_func_int64_t_s_s+0x32>
    585f:	48 b8 ff ff ff ff ff 	movabs $0x7fffffffffffffff,%rax
    5866:	ff ff 7f 
    5869:	48 2b 45 f0          	sub    -0x10(%rbp),%rax
    586d:	48 39 45 f8          	cmp    %rax,-0x8(%rbp)
    5871:	7f 2f                	jg     58a2 <safe_add_func_int64_t_s_s+0x61>
    5873:	48 83 7d f8 00       	cmpq   $0x0,-0x8(%rbp)
    5878:	79 1b                	jns    5895 <safe_add_func_int64_t_s_s+0x54>
    587a:	48 83 7d f0 00       	cmpq   $0x0,-0x10(%rbp)
    587f:	79 14                	jns    5895 <safe_add_func_int64_t_s_s+0x54>
    5881:	48 b8 00 00 00 00 00 	movabs $0x8000000000000000,%rax
    5888:	00 00 80 
    588b:	48 2b 45 f0          	sub    -0x10(%rbp),%rax
    588f:	48 39 45 f8          	cmp    %rax,-0x8(%rbp)
    5893:	7c 0d                	jl     58a2 <safe_add_func_int64_t_s_s+0x61>
    5895:	48 8b 55 f8          	mov    -0x8(%rbp),%rdx
    5899:	48 8b 45 f0          	mov    -0x10(%rbp),%rax
    589d:	48 01 d0             	add    %rdx,%rax
    58a0:	eb 04                	jmp    58a6 <safe_add_func_int64_t_s_s+0x65>
    58a2:	48 8b 45 f8          	mov    -0x8(%rbp),%rax
    58a6:	5d                   	pop    %rbp
    58a7:	c3                   	retq   

00000000000058a8 <safe_sub_func_int64_t_s_s>:
    58a8:	f3 0f 1e fa          	endbr64 
    58ac:	55                   	push   %rbp
    58ad:	48 89 e5             	mov    %rsp,%rbp
    58b0:	48 89 7d f8          	mov    %rdi,-0x8(%rbp)
    58b4:	48 89 75 f0          	mov    %rsi,-0x10(%rbp)
    58b8:	48 8b 45 f8          	mov    -0x8(%rbp),%rax
    58bc:	48 33 45 f0          	xor    -0x10(%rbp),%rax
    58c0:	48 89 c2             	mov    %rax,%rdx
    58c3:	48 8b 45 f8          	mov    -0x8(%rbp),%rax
    58c7:	48 33 45 f0          	xor    -0x10(%rbp),%rax
    58cb:	48 b9 00 00 00 00 00 	movabs $0x8000000000000000,%rcx
    58d2:	00 00 80 
    58d5:	48 21 c8             	and    %rcx,%rax
    58d8:	48 33 45 f8          	xor    -0x8(%rbp),%rax
    58dc:	48 2b 45 f0          	sub    -0x10(%rbp),%rax
    58e0:	48 33 45 f0          	xor    -0x10(%rbp),%rax
    58e4:	48 21 d0             	and    %rdx,%rax
    58e7:	48 85 c0             	test   %rax,%rax
    58ea:	78 0a                	js     58f6 <safe_sub_func_int64_t_s_s+0x4e>
    58ec:	48 8b 45 f8          	mov    -0x8(%rbp),%rax
    58f0:	48 2b 45 f0          	sub    -0x10(%rbp),%rax
    58f4:	eb 04                	jmp    58fa <safe_sub_func_int64_t_s_s+0x52>
    58f6:	48 8b 45 f8          	mov    -0x8(%rbp),%rax
    58fa:	5d                   	pop    %rbp
    58fb:	c3                   	retq   

00000000000058fc <safe_mul_func_int64_t_s_s>:
    58fc:	f3 0f 1e fa          	endbr64 
    5900:	55                   	push   %rbp
    5901:	48 89 e5             	mov    %rsp,%rbp
    5904:	48 89 7d f8          	mov    %rdi,-0x8(%rbp)
    5908:	48 89 75 f0          	mov    %rsi,-0x10(%rbp)
    590c:	48 83 7d f8 00       	cmpq   $0x0,-0x8(%rbp)
    5911:	7e 1d                	jle    5930 <safe_mul_func_int64_t_s_s+0x34>
    5913:	48 83 7d f0 00       	cmpq   $0x0,-0x10(%rbp)
    5918:	7e 16                	jle    5930 <safe_mul_func_int64_t_s_s+0x34>
    591a:	48 b8 ff ff ff ff ff 	movabs $0x7fffffffffffffff,%rax
    5921:	ff ff 7f 
    5924:	48 99                	cqto   
    5926:	48 f7 7d f0          	idivq  -0x10(%rbp)
    592a:	48 39 45 f8          	cmp    %rax,-0x8(%rbp)
    592e:	7f 7e                	jg     59ae <safe_mul_func_int64_t_s_s+0xb2>
    5930:	48 83 7d f8 00       	cmpq   $0x0,-0x8(%rbp)
    5935:	7e 1d                	jle    5954 <safe_mul_func_int64_t_s_s+0x58>
    5937:	48 83 7d f0 00       	cmpq   $0x0,-0x10(%rbp)
    593c:	7f 16                	jg     5954 <safe_mul_func_int64_t_s_s+0x58>
    593e:	48 b8 00 00 00 00 00 	movabs $0x8000000000000000,%rax
    5945:	00 00 80 
    5948:	48 99                	cqto   
    594a:	48 f7 7d f8          	idivq  -0x8(%rbp)
    594e:	48 39 45 f0          	cmp    %rax,-0x10(%rbp)
    5952:	7c 5a                	jl     59ae <safe_mul_func_int64_t_s_s+0xb2>
    5954:	48 83 7d f8 00       	cmpq   $0x0,-0x8(%rbp)
    5959:	7f 1d                	jg     5978 <safe_mul_func_int64_t_s_s+0x7c>
    595b:	48 83 7d f0 00       	cmpq   $0x0,-0x10(%rbp)
    5960:	7e 16                	jle    5978 <safe_mul_func_int64_t_s_s+0x7c>
    5962:	48 b8 00 00 00 00 00 	movabs $0x8000000000000000,%rax
    5969:	00 00 80 
    596c:	48 99                	cqto   
    596e:	48 f7 7d f0          	idivq  -0x10(%rbp)
    5972:	48 39 45 f8          	cmp    %rax,-0x8(%rbp)
    5976:	7c 36                	jl     59ae <safe_mul_func_int64_t_s_s+0xb2>
    5978:	48 83 7d f8 00       	cmpq   $0x0,-0x8(%rbp)
    597d:	7f 24                	jg     59a3 <safe_mul_func_int64_t_s_s+0xa7>
    597f:	48 83 7d f0 00       	cmpq   $0x0,-0x10(%rbp)
    5984:	7f 1d                	jg     59a3 <safe_mul_func_int64_t_s_s+0xa7>
    5986:	48 83 7d f8 00       	cmpq   $0x0,-0x8(%rbp)
    598b:	74 16                	je     59a3 <safe_mul_func_int64_t_s_s+0xa7>
    598d:	48 b8 ff ff ff ff ff 	movabs $0x7fffffffffffffff,%rax
    5994:	ff ff 7f 
    5997:	48 99                	cqto   
    5999:	48 f7 7d f8          	idivq  -0x8(%rbp)
    599d:	48 39 45 f0          	cmp    %rax,-0x10(%rbp)
    59a1:	7c 0b                	jl     59ae <safe_mul_func_int64_t_s_s+0xb2>
    59a3:	48 8b 45 f8          	mov    -0x8(%rbp),%rax
    59a7:	48 0f af 45 f0       	imul   -0x10(%rbp),%rax
    59ac:	eb 04                	jmp    59b2 <safe_mul_func_int64_t_s_s+0xb6>
    59ae:	48 8b 45 f8          	mov    -0x8(%rbp),%rax
    59b2:	5d                   	pop    %rbp
    59b3:	c3                   	retq   

00000000000059b4 <safe_mod_func_int64_t_s_s>:
    59b4:	f3 0f 1e fa          	endbr64 
    59b8:	55                   	push   %rbp
    59b9:	48 89 e5             	mov    %rsp,%rbp
    59bc:	48 89 7d f8          	mov    %rdi,-0x8(%rbp)
    59c0:	48 89 75 f0          	mov    %rsi,-0x10(%rbp)
    59c4:	48 83 7d f0 00       	cmpq   $0x0,-0x10(%rbp)
    59c9:	74 26                	je     59f1 <safe_mod_func_int64_t_s_s+0x3d>
    59cb:	48 b8 00 00 00 00 00 	movabs $0x8000000000000000,%rax
    59d2:	00 00 80 
    59d5:	48 39 45 f8          	cmp    %rax,-0x8(%rbp)
    59d9:	75 07                	jne    59e2 <safe_mod_func_int64_t_s_s+0x2e>
    59db:	48 83 7d f0 ff       	cmpq   $0xffffffffffffffff,-0x10(%rbp)
    59e0:	74 0f                	je     59f1 <safe_mod_func_int64_t_s_s+0x3d>
    59e2:	48 8b 45 f8          	mov    -0x8(%rbp),%rax
    59e6:	48 99                	cqto   
    59e8:	48 f7 7d f0          	idivq  -0x10(%rbp)
    59ec:	48 89 d0             	mov    %rdx,%rax
    59ef:	eb 04                	jmp    59f5 <safe_mod_func_int64_t_s_s+0x41>
    59f1:	48 8b 45 f8          	mov    -0x8(%rbp),%rax
    59f5:	5d                   	pop    %rbp
    59f6:	c3                   	retq   

00000000000059f7 <safe_div_func_int64_t_s_s>:
    59f7:	f3 0f 1e fa          	endbr64 
    59fb:	55                   	push   %rbp
    59fc:	48 89 e5             	mov    %rsp,%rbp
    59ff:	48 89 7d f8          	mov    %rdi,-0x8(%rbp)
    5a03:	48 89 75 f0          	mov    %rsi,-0x10(%rbp)
    5a07:	48 83 7d f0 00       	cmpq   $0x0,-0x10(%rbp)
    5a0c:	74 23                	je     5a31 <safe_div_func_int64_t_s_s+0x3a>
    5a0e:	48 b8 00 00 00 00 00 	movabs $0x8000000000000000,%rax
    5a15:	00 00 80 
    5a18:	48 39 45 f8          	cmp    %rax,-0x8(%rbp)
    5a1c:	75 07                	jne    5a25 <safe_div_func_int64_t_s_s+0x2e>
    5a1e:	48 83 7d f0 ff       	cmpq   $0xffffffffffffffff,-0x10(%rbp)
    5a23:	74 0c                	je     5a31 <safe_div_func_int64_t_s_s+0x3a>
    5a25:	48 8b 45 f8          	mov    -0x8(%rbp),%rax
    5a29:	48 99                	cqto   
    5a2b:	48 f7 7d f0          	idivq  -0x10(%rbp)
    5a2f:	eb 04                	jmp    5a35 <safe_div_func_int64_t_s_s+0x3e>
    5a31:	48 8b 45 f8          	mov    -0x8(%rbp),%rax
    5a35:	5d                   	pop    %rbp
    5a36:	c3                   	retq   

0000000000005a37 <safe_lshift_func_int64_t_s_s>:
    5a37:	f3 0f 1e fa          	endbr64 
    5a3b:	55                   	push   %rbp
    5a3c:	48 89 e5             	mov    %rsp,%rbp
    5a3f:	48 89 7d f8          	mov    %rdi,-0x8(%rbp)
    5a43:	89 75 f4             	mov    %esi,-0xc(%rbp)
    5a46:	48 83 7d f8 00       	cmpq   $0x0,-0x8(%rbp)
    5a4b:	78 38                	js     5a85 <safe_lshift_func_int64_t_s_s+0x4e>
    5a4d:	83 7d f4 00          	cmpl   $0x0,-0xc(%rbp)
    5a51:	78 32                	js     5a85 <safe_lshift_func_int64_t_s_s+0x4e>
    5a53:	83 7d f4 1f          	cmpl   $0x1f,-0xc(%rbp)
    5a57:	7f 2c                	jg     5a85 <safe_lshift_func_int64_t_s_s+0x4e>
    5a59:	8b 45 f4             	mov    -0xc(%rbp),%eax
    5a5c:	48 ba ff ff ff ff ff 	movabs $0x7fffffffffffffff,%rdx
    5a63:	ff ff 7f 
    5a66:	89 c1                	mov    %eax,%ecx
    5a68:	48 d3 fa             	sar    %cl,%rdx
    5a6b:	48 89 d0             	mov    %rdx,%rax
    5a6e:	48 39 45 f8          	cmp    %rax,-0x8(%rbp)
    5a72:	7f 11                	jg     5a85 <safe_lshift_func_int64_t_s_s+0x4e>
    5a74:	8b 45 f4             	mov    -0xc(%rbp),%eax
    5a77:	48 8b 55 f8          	mov    -0x8(%rbp),%rdx
    5a7b:	89 c1                	mov    %eax,%ecx
    5a7d:	48 d3 e2             	shl    %cl,%rdx
    5a80:	48 89 d0             	mov    %rdx,%rax
    5a83:	eb 04                	jmp    5a89 <safe_lshift_func_int64_t_s_s+0x52>
    5a85:	48 8b 45 f8          	mov    -0x8(%rbp),%rax
    5a89:	5d                   	pop    %rbp
    5a8a:	c3                   	retq   

0000000000005a8b <safe_lshift_func_int64_t_s_u>:
    5a8b:	f3 0f 1e fa          	endbr64 
    5a8f:	55                   	push   %rbp
    5a90:	48 89 e5             	mov    %rsp,%rbp
    5a93:	48 89 7d f8          	mov    %rdi,-0x8(%rbp)
    5a97:	89 75 f4             	mov    %esi,-0xc(%rbp)
    5a9a:	48 83 7d f8 00       	cmpq   $0x0,-0x8(%rbp)
    5a9f:	78 32                	js     5ad3 <safe_lshift_func_int64_t_s_u+0x48>
    5aa1:	83 7d f4 1f          	cmpl   $0x1f,-0xc(%rbp)
    5aa5:	77 2c                	ja     5ad3 <safe_lshift_func_int64_t_s_u+0x48>
    5aa7:	8b 45 f4             	mov    -0xc(%rbp),%eax
    5aaa:	48 ba ff ff ff ff ff 	movabs $0x7fffffffffffffff,%rdx
    5ab1:	ff ff 7f 
    5ab4:	89 c1                	mov    %eax,%ecx
    5ab6:	48 d3 fa             	sar    %cl,%rdx
    5ab9:	48 89 d0             	mov    %rdx,%rax
    5abc:	48 39 45 f8          	cmp    %rax,-0x8(%rbp)
    5ac0:	7f 11                	jg     5ad3 <safe_lshift_func_int64_t_s_u+0x48>
    5ac2:	8b 45 f4             	mov    -0xc(%rbp),%eax
    5ac5:	48 8b 55 f8          	mov    -0x8(%rbp),%rdx
    5ac9:	89 c1                	mov    %eax,%ecx
    5acb:	48 d3 e2             	shl    %cl,%rdx
    5ace:	48 89 d0             	mov    %rdx,%rax
    5ad1:	eb 04                	jmp    5ad7 <safe_lshift_func_int64_t_s_u+0x4c>
    5ad3:	48 8b 45 f8          	mov    -0x8(%rbp),%rax
    5ad7:	5d                   	pop    %rbp
    5ad8:	c3                   	retq   

0000000000005ad9 <safe_rshift_func_int64_t_s_s>:
    5ad9:	f3 0f 1e fa          	endbr64 
    5add:	55                   	push   %rbp
    5ade:	48 89 e5             	mov    %rsp,%rbp
    5ae1:	48 89 7d f8          	mov    %rdi,-0x8(%rbp)
    5ae5:	89 75 f4             	mov    %esi,-0xc(%rbp)
    5ae8:	48 83 7d f8 00       	cmpq   $0x0,-0x8(%rbp)
    5aed:	78 1d                	js     5b0c <safe_rshift_func_int64_t_s_s+0x33>
    5aef:	83 7d f4 00          	cmpl   $0x0,-0xc(%rbp)
    5af3:	78 17                	js     5b0c <safe_rshift_func_int64_t_s_s+0x33>
    5af5:	83 7d f4 1f          	cmpl   $0x1f,-0xc(%rbp)
    5af9:	7f 11                	jg     5b0c <safe_rshift_func_int64_t_s_s+0x33>
    5afb:	8b 45 f4             	mov    -0xc(%rbp),%eax
    5afe:	48 8b 55 f8          	mov    -0x8(%rbp),%rdx
    5b02:	89 c1                	mov    %eax,%ecx
    5b04:	48 d3 fa             	sar    %cl,%rdx
    5b07:	48 89 d0             	mov    %rdx,%rax
    5b0a:	eb 04                	jmp    5b10 <safe_rshift_func_int64_t_s_s+0x37>
    5b0c:	48 8b 45 f8          	mov    -0x8(%rbp),%rax
    5b10:	5d                   	pop    %rbp
    5b11:	c3                   	retq   

0000000000005b12 <safe_rshift_func_int64_t_s_u>:
    5b12:	f3 0f 1e fa          	endbr64 
    5b16:	55                   	push   %rbp
    5b17:	48 89 e5             	mov    %rsp,%rbp
    5b1a:	48 89 7d f8          	mov    %rdi,-0x8(%rbp)
    5b1e:	89 75 f4             	mov    %esi,-0xc(%rbp)
    5b21:	48 83 7d f8 00       	cmpq   $0x0,-0x8(%rbp)
    5b26:	78 17                	js     5b3f <safe_rshift_func_int64_t_s_u+0x2d>
    5b28:	83 7d f4 1f          	cmpl   $0x1f,-0xc(%rbp)
    5b2c:	77 11                	ja     5b3f <safe_rshift_func_int64_t_s_u+0x2d>
    5b2e:	8b 45 f4             	mov    -0xc(%rbp),%eax
    5b31:	48 8b 55 f8          	mov    -0x8(%rbp),%rdx
    5b35:	89 c1                	mov    %eax,%ecx
    5b37:	48 d3 fa             	sar    %cl,%rdx
    5b3a:	48 89 d0             	mov    %rdx,%rax
    5b3d:	eb 04                	jmp    5b43 <safe_rshift_func_int64_t_s_u+0x31>
    5b3f:	48 8b 45 f8          	mov    -0x8(%rbp),%rax
    5b43:	5d                   	pop    %rbp
    5b44:	c3                   	retq   

0000000000005b45 <safe_unary_minus_func_uint8_t_u>:
    5b45:	f3 0f 1e fa          	endbr64 
    5b49:	55                   	push   %rbp
    5b4a:	48 89 e5             	mov    %rsp,%rbp
    5b4d:	89 f8                	mov    %edi,%eax
    5b4f:	88 45 fc             	mov    %al,-0x4(%rbp)
    5b52:	0f b6 45 fc          	movzbl -0x4(%rbp),%eax
    5b56:	f7 d8                	neg    %eax
    5b58:	5d                   	pop    %rbp
    5b59:	c3                   	retq   

0000000000005b5a <safe_add_func_uint8_t_u_u>:
    5b5a:	f3 0f 1e fa          	endbr64 
    5b5e:	55                   	push   %rbp
    5b5f:	48 89 e5             	mov    %rsp,%rbp
    5b62:	89 fa                	mov    %edi,%edx
    5b64:	89 f0                	mov    %esi,%eax
    5b66:	88 55 fc             	mov    %dl,-0x4(%rbp)
    5b69:	88 45 f8             	mov    %al,-0x8(%rbp)
    5b6c:	0f b6 55 fc          	movzbl -0x4(%rbp),%edx
    5b70:	0f b6 45 f8          	movzbl -0x8(%rbp),%eax
    5b74:	01 d0                	add    %edx,%eax
    5b76:	5d                   	pop    %rbp
    5b77:	c3                   	retq   

0000000000005b78 <safe_sub_func_uint8_t_u_u>:
    5b78:	f3 0f 1e fa          	endbr64 
    5b7c:	55                   	push   %rbp
    5b7d:	48 89 e5             	mov    %rsp,%rbp
    5b80:	89 fa                	mov    %edi,%edx
    5b82:	89 f0                	mov    %esi,%eax
    5b84:	88 55 fc             	mov    %dl,-0x4(%rbp)
    5b87:	88 45 f8             	mov    %al,-0x8(%rbp)
    5b8a:	0f b6 45 fc          	movzbl -0x4(%rbp),%eax
    5b8e:	2a 45 f8             	sub    -0x8(%rbp),%al
    5b91:	5d                   	pop    %rbp
    5b92:	c3                   	retq   

0000000000005b93 <safe_mul_func_uint8_t_u_u>:
    5b93:	f3 0f 1e fa          	endbr64 
    5b97:	55                   	push   %rbp
    5b98:	48 89 e5             	mov    %rsp,%rbp
    5b9b:	89 fa                	mov    %edi,%edx
    5b9d:	89 f0                	mov    %esi,%eax
    5b9f:	88 55 fc             	mov    %dl,-0x4(%rbp)
    5ba2:	88 45 f8             	mov    %al,-0x8(%rbp)
    5ba5:	0f b6 45 fc          	movzbl -0x4(%rbp),%eax
    5ba9:	f6 65 f8             	mulb   -0x8(%rbp)
    5bac:	5d                   	pop    %rbp
    5bad:	c3                   	retq   

0000000000005bae <safe_mod_func_uint8_t_u_u>:
    5bae:	f3 0f 1e fa          	endbr64 
    5bb2:	55                   	push   %rbp
    5bb3:	48 89 e5             	mov    %rsp,%rbp
    5bb6:	89 fa                	mov    %edi,%edx
    5bb8:	89 f0                	mov    %esi,%eax
    5bba:	88 55 fc             	mov    %dl,-0x4(%rbp)
    5bbd:	88 45 f8             	mov    %al,-0x8(%rbp)
    5bc0:	80 7d f8 00          	cmpb   $0x0,-0x8(%rbp)
    5bc4:	74 0f                	je     5bd5 <safe_mod_func_uint8_t_u_u+0x27>
    5bc6:	0f b6 45 fc          	movzbl -0x4(%rbp),%eax
    5bca:	0f b6 c0             	movzbl %al,%eax
    5bcd:	f6 75 f8             	divb   -0x8(%rbp)
    5bd0:	0f b6 c4             	movzbl %ah,%eax
    5bd3:	eb 04                	jmp    5bd9 <safe_mod_func_uint8_t_u_u+0x2b>
    5bd5:	0f b6 45 fc          	movzbl -0x4(%rbp),%eax
    5bd9:	5d                   	pop    %rbp
    5bda:	c3                   	retq   

0000000000005bdb <safe_div_func_uint8_t_u_u>:
    5bdb:	f3 0f 1e fa          	endbr64 
    5bdf:	55                   	push   %rbp
    5be0:	48 89 e5             	mov    %rsp,%rbp
    5be3:	89 fa                	mov    %edi,%edx
    5be5:	89 f0                	mov    %esi,%eax
    5be7:	88 55 fc             	mov    %dl,-0x4(%rbp)
    5bea:	88 45 f8             	mov    %al,-0x8(%rbp)
    5bed:	80 7d f8 00          	cmpb   $0x0,-0x8(%rbp)
    5bf1:	74 0c                	je     5bff <safe_div_func_uint8_t_u_u+0x24>
    5bf3:	0f b6 45 fc          	movzbl -0x4(%rbp),%eax
    5bf7:	0f b6 c0             	movzbl %al,%eax
    5bfa:	f6 75 f8             	divb   -0x8(%rbp)
    5bfd:	eb 04                	jmp    5c03 <safe_div_func_uint8_t_u_u+0x28>
    5bff:	0f b6 45 fc          	movzbl -0x4(%rbp),%eax
    5c03:	5d                   	pop    %rbp
    5c04:	c3                   	retq   

0000000000005c05 <safe_lshift_func_uint8_t_u_s>:
    5c05:	f3 0f 1e fa          	endbr64 
    5c09:	55                   	push   %rbp
    5c0a:	48 89 e5             	mov    %rsp,%rbp
    5c0d:	89 f8                	mov    %edi,%eax
    5c0f:	89 75 f8             	mov    %esi,-0x8(%rbp)
    5c12:	88 45 fc             	mov    %al,-0x4(%rbp)
    5c15:	83 7d f8 00          	cmpl   $0x0,-0x8(%rbp)
    5c19:	78 2b                	js     5c46 <safe_lshift_func_uint8_t_u_s+0x41>
    5c1b:	83 7d f8 1f          	cmpl   $0x1f,-0x8(%rbp)
    5c1f:	7f 25                	jg     5c46 <safe_lshift_func_uint8_t_u_s+0x41>
    5c21:	0f b6 55 fc          	movzbl -0x4(%rbp),%edx
    5c25:	8b 45 f8             	mov    -0x8(%rbp),%eax
    5c28:	be ff 00 00 00       	mov    $0xff,%esi
    5c2d:	89 c1                	mov    %eax,%ecx
    5c2f:	d3 fe                	sar    %cl,%esi
    5c31:	89 f0                	mov    %esi,%eax
    5c33:	39 c2                	cmp    %eax,%edx
    5c35:	7f 0f                	jg     5c46 <safe_lshift_func_uint8_t_u_s+0x41>
    5c37:	0f b6 55 fc          	movzbl -0x4(%rbp),%edx
    5c3b:	8b 45 f8             	mov    -0x8(%rbp),%eax
    5c3e:	89 c1                	mov    %eax,%ecx
    5c40:	d3 e2                	shl    %cl,%edx
    5c42:	89 d0                	mov    %edx,%eax
    5c44:	eb 04                	jmp    5c4a <safe_lshift_func_uint8_t_u_s+0x45>
    5c46:	0f b6 45 fc          	movzbl -0x4(%rbp),%eax
    5c4a:	5d                   	pop    %rbp
    5c4b:	c3                   	retq   

0000000000005c4c <safe_lshift_func_uint8_t_u_u>:
    5c4c:	f3 0f 1e fa          	endbr64 
    5c50:	55                   	push   %rbp
    5c51:	48 89 e5             	mov    %rsp,%rbp
    5c54:	89 f8                	mov    %edi,%eax
    5c56:	89 75 f8             	mov    %esi,-0x8(%rbp)
    5c59:	88 45 fc             	mov    %al,-0x4(%rbp)
    5c5c:	83 7d f8 1f          	cmpl   $0x1f,-0x8(%rbp)
    5c60:	77 25                	ja     5c87 <safe_lshift_func_uint8_t_u_u+0x3b>
    5c62:	0f b6 55 fc          	movzbl -0x4(%rbp),%edx
    5c66:	8b 45 f8             	mov    -0x8(%rbp),%eax
    5c69:	be ff 00 00 00       	mov    $0xff,%esi
    5c6e:	89 c1                	mov    %eax,%ecx
    5c70:	d3 fe                	sar    %cl,%esi
    5c72:	89 f0                	mov    %esi,%eax
    5c74:	39 c2                	cmp    %eax,%edx
    5c76:	7f 0f                	jg     5c87 <safe_lshift_func_uint8_t_u_u+0x3b>
    5c78:	0f b6 55 fc          	movzbl -0x4(%rbp),%edx
    5c7c:	8b 45 f8             	mov    -0x8(%rbp),%eax
    5c7f:	89 c1                	mov    %eax,%ecx
    5c81:	d3 e2                	shl    %cl,%edx
    5c83:	89 d0                	mov    %edx,%eax
    5c85:	eb 04                	jmp    5c8b <safe_lshift_func_uint8_t_u_u+0x3f>
    5c87:	0f b6 45 fc          	movzbl -0x4(%rbp),%eax
    5c8b:	5d                   	pop    %rbp
    5c8c:	c3                   	retq   

0000000000005c8d <safe_rshift_func_uint8_t_u_s>:
    5c8d:	f3 0f 1e fa          	endbr64 
    5c91:	55                   	push   %rbp
    5c92:	48 89 e5             	mov    %rsp,%rbp
    5c95:	89 f8                	mov    %edi,%eax
    5c97:	89 75 f8             	mov    %esi,-0x8(%rbp)
    5c9a:	88 45 fc             	mov    %al,-0x4(%rbp)
    5c9d:	83 7d f8 00          	cmpl   $0x0,-0x8(%rbp)
    5ca1:	78 15                	js     5cb8 <safe_rshift_func_uint8_t_u_s+0x2b>
    5ca3:	83 7d f8 1f          	cmpl   $0x1f,-0x8(%rbp)
    5ca7:	7f 0f                	jg     5cb8 <safe_rshift_func_uint8_t_u_s+0x2b>
    5ca9:	0f b6 55 fc          	movzbl -0x4(%rbp),%edx
    5cad:	8b 45 f8             	mov    -0x8(%rbp),%eax
    5cb0:	89 c1                	mov    %eax,%ecx
    5cb2:	d3 fa                	sar    %cl,%edx
    5cb4:	89 d0                	mov    %edx,%eax
    5cb6:	eb 04                	jmp    5cbc <safe_rshift_func_uint8_t_u_s+0x2f>
    5cb8:	0f b6 45 fc          	movzbl -0x4(%rbp),%eax
    5cbc:	5d                   	pop    %rbp
    5cbd:	c3                   	retq   

0000000000005cbe <safe_rshift_func_uint8_t_u_u>:
    5cbe:	f3 0f 1e fa          	endbr64 
    5cc2:	55                   	push   %rbp
    5cc3:	48 89 e5             	mov    %rsp,%rbp
    5cc6:	89 f8                	mov    %edi,%eax
    5cc8:	89 75 f8             	mov    %esi,-0x8(%rbp)
    5ccb:	88 45 fc             	mov    %al,-0x4(%rbp)
    5cce:	83 7d f8 1f          	cmpl   $0x1f,-0x8(%rbp)
    5cd2:	77 0f                	ja     5ce3 <safe_rshift_func_uint8_t_u_u+0x25>
    5cd4:	0f b6 55 fc          	movzbl -0x4(%rbp),%edx
    5cd8:	8b 45 f8             	mov    -0x8(%rbp),%eax
    5cdb:	89 c1                	mov    %eax,%ecx
    5cdd:	d3 fa                	sar    %cl,%edx
    5cdf:	89 d0                	mov    %edx,%eax
    5ce1:	eb 04                	jmp    5ce7 <safe_rshift_func_uint8_t_u_u+0x29>
    5ce3:	0f b6 45 fc          	movzbl -0x4(%rbp),%eax
    5ce7:	5d                   	pop    %rbp
    5ce8:	c3                   	retq   

0000000000005ce9 <safe_unary_minus_func_uint16_t_u>:
    5ce9:	f3 0f 1e fa          	endbr64 
    5ced:	55                   	push   %rbp
    5cee:	48 89 e5             	mov    %rsp,%rbp
    5cf1:	89 f8                	mov    %edi,%eax
    5cf3:	66 89 45 fc          	mov    %ax,-0x4(%rbp)
    5cf7:	0f b7 45 fc          	movzwl -0x4(%rbp),%eax
    5cfb:	f7 d8                	neg    %eax
    5cfd:	5d                   	pop    %rbp
    5cfe:	c3                   	retq   

0000000000005cff <safe_add_func_uint16_t_u_u>:
    5cff:	f3 0f 1e fa          	endbr64 
    5d03:	55                   	push   %rbp
    5d04:	48 89 e5             	mov    %rsp,%rbp
    5d07:	89 fa                	mov    %edi,%edx
    5d09:	89 f0                	mov    %esi,%eax
    5d0b:	66 89 55 fc          	mov    %dx,-0x4(%rbp)
    5d0f:	66 89 45 f8          	mov    %ax,-0x8(%rbp)
    5d13:	0f b7 55 fc          	movzwl -0x4(%rbp),%edx
    5d17:	0f b7 45 f8          	movzwl -0x8(%rbp),%eax
    5d1b:	01 d0                	add    %edx,%eax
    5d1d:	5d                   	pop    %rbp
    5d1e:	c3                   	retq   

0000000000005d1f <safe_sub_func_uint16_t_u_u>:
    5d1f:	f3 0f 1e fa          	endbr64 
    5d23:	55                   	push   %rbp
    5d24:	48 89 e5             	mov    %rsp,%rbp
    5d27:	89 fa                	mov    %edi,%edx
    5d29:	89 f0                	mov    %esi,%eax
    5d2b:	66 89 55 fc          	mov    %dx,-0x4(%rbp)
    5d2f:	66 89 45 f8          	mov    %ax,-0x8(%rbp)
    5d33:	0f b7 45 fc          	movzwl -0x4(%rbp),%eax
    5d37:	66 2b 45 f8          	sub    -0x8(%rbp),%ax
    5d3b:	5d                   	pop    %rbp
    5d3c:	c3                   	retq   

0000000000005d3d <safe_mul_func_uint16_t_u_u>:
    5d3d:	f3 0f 1e fa          	endbr64 
    5d41:	55                   	push   %rbp
    5d42:	48 89 e5             	mov    %rsp,%rbp
    5d45:	89 fa                	mov    %edi,%edx
    5d47:	89 f0                	mov    %esi,%eax
    5d49:	66 89 55 fc          	mov    %dx,-0x4(%rbp)
    5d4d:	66 89 45 f8          	mov    %ax,-0x8(%rbp)
    5d51:	0f b7 45 fc          	movzwl -0x4(%rbp),%eax
    5d55:	66 0f af 45 f8       	imul   -0x8(%rbp),%ax
    5d5a:	5d                   	pop    %rbp
    5d5b:	c3                   	retq   

0000000000005d5c <safe_mod_func_uint16_t_u_u>:
    5d5c:	f3 0f 1e fa          	endbr64 
    5d60:	55                   	push   %rbp
    5d61:	48 89 e5             	mov    %rsp,%rbp
    5d64:	89 fa                	mov    %edi,%edx
    5d66:	89 f0                	mov    %esi,%eax
    5d68:	66 89 55 fc          	mov    %dx,-0x4(%rbp)
    5d6c:	66 89 45 f8          	mov    %ax,-0x8(%rbp)
    5d70:	66 83 7d f8 00       	cmpw   $0x0,-0x8(%rbp)
    5d75:	74 11                	je     5d88 <safe_mod_func_uint16_t_u_u+0x2c>
    5d77:	0f b7 45 fc          	movzwl -0x4(%rbp),%eax
    5d7b:	ba 00 00 00 00       	mov    $0x0,%edx
    5d80:	66 f7 75 f8          	divw   -0x8(%rbp)
    5d84:	89 d0                	mov    %edx,%eax
    5d86:	eb 04                	jmp    5d8c <safe_mod_func_uint16_t_u_u+0x30>
    5d88:	0f b7 45 fc          	movzwl -0x4(%rbp),%eax
    5d8c:	5d                   	pop    %rbp
    5d8d:	c3                   	retq   

0000000000005d8e <safe_div_func_uint16_t_u_u>:
    5d8e:	f3 0f 1e fa          	endbr64 
    5d92:	55                   	push   %rbp
    5d93:	48 89 e5             	mov    %rsp,%rbp
    5d96:	89 fa                	mov    %edi,%edx
    5d98:	89 f0                	mov    %esi,%eax
    5d9a:	66 89 55 fc          	mov    %dx,-0x4(%rbp)
    5d9e:	66 89 45 f8          	mov    %ax,-0x8(%rbp)
    5da2:	66 83 7d f8 00       	cmpw   $0x0,-0x8(%rbp)
    5da7:	74 0f                	je     5db8 <safe_div_func_uint16_t_u_u+0x2a>
    5da9:	0f b7 45 fc          	movzwl -0x4(%rbp),%eax
    5dad:	ba 00 00 00 00       	mov    $0x0,%edx
    5db2:	66 f7 75 f8          	divw   -0x8(%rbp)
    5db6:	eb 04                	jmp    5dbc <safe_div_func_uint16_t_u_u+0x2e>
    5db8:	0f b7 45 fc          	movzwl -0x4(%rbp),%eax
    5dbc:	5d                   	pop    %rbp
    5dbd:	c3                   	retq   

0000000000005dbe <safe_lshift_func_uint16_t_u_s>:
    5dbe:	f3 0f 1e fa          	endbr64 
    5dc2:	55                   	push   %rbp
    5dc3:	48 89 e5             	mov    %rsp,%rbp
    5dc6:	89 f8                	mov    %edi,%eax
    5dc8:	89 75 f8             	mov    %esi,-0x8(%rbp)
    5dcb:	66 89 45 fc          	mov    %ax,-0x4(%rbp)
    5dcf:	83 7d f8 00          	cmpl   $0x0,-0x8(%rbp)
    5dd3:	78 2b                	js     5e00 <safe_lshift_func_uint16_t_u_s+0x42>
    5dd5:	83 7d f8 1f          	cmpl   $0x1f,-0x8(%rbp)
    5dd9:	7f 25                	jg     5e00 <safe_lshift_func_uint16_t_u_s+0x42>
    5ddb:	0f b7 55 fc          	movzwl -0x4(%rbp),%edx
    5ddf:	8b 45 f8             	mov    -0x8(%rbp),%eax
    5de2:	be ff ff 00 00       	mov    $0xffff,%esi
    5de7:	89 c1                	mov    %eax,%ecx
    5de9:	d3 fe                	sar    %cl,%esi
    5deb:	89 f0                	mov    %esi,%eax
    5ded:	39 c2                	cmp    %eax,%edx
    5def:	7f 0f                	jg     5e00 <safe_lshift_func_uint16_t_u_s+0x42>
    5df1:	0f b7 55 fc          	movzwl -0x4(%rbp),%edx
    5df5:	8b 45 f8             	mov    -0x8(%rbp),%eax
    5df8:	89 c1                	mov    %eax,%ecx
    5dfa:	d3 e2                	shl    %cl,%edx
    5dfc:	89 d0                	mov    %edx,%eax
    5dfe:	eb 04                	jmp    5e04 <safe_lshift_func_uint16_t_u_s+0x46>
    5e00:	0f b7 45 fc          	movzwl -0x4(%rbp),%eax
    5e04:	5d                   	pop    %rbp
    5e05:	c3                   	retq   

0000000000005e06 <safe_lshift_func_uint16_t_u_u>:
    5e06:	f3 0f 1e fa          	endbr64 
    5e0a:	55                   	push   %rbp
    5e0b:	48 89 e5             	mov    %rsp,%rbp
    5e0e:	89 f8                	mov    %edi,%eax
    5e10:	89 75 f8             	mov    %esi,-0x8(%rbp)
    5e13:	66 89 45 fc          	mov    %ax,-0x4(%rbp)
    5e17:	83 7d f8 1f          	cmpl   $0x1f,-0x8(%rbp)
    5e1b:	77 25                	ja     5e42 <safe_lshift_func_uint16_t_u_u+0x3c>
    5e1d:	0f b7 55 fc          	movzwl -0x4(%rbp),%edx
    5e21:	8b 45 f8             	mov    -0x8(%rbp),%eax
    5e24:	be ff ff 00 00       	mov    $0xffff,%esi
    5e29:	89 c1                	mov    %eax,%ecx
    5e2b:	d3 fe                	sar    %cl,%esi
    5e2d:	89 f0                	mov    %esi,%eax
    5e2f:	39 c2                	cmp    %eax,%edx
    5e31:	7f 0f                	jg     5e42 <safe_lshift_func_uint16_t_u_u+0x3c>
    5e33:	0f b7 55 fc          	movzwl -0x4(%rbp),%edx
    5e37:	8b 45 f8             	mov    -0x8(%rbp),%eax
    5e3a:	89 c1                	mov    %eax,%ecx
    5e3c:	d3 e2                	shl    %cl,%edx
    5e3e:	89 d0                	mov    %edx,%eax
    5e40:	eb 04                	jmp    5e46 <safe_lshift_func_uint16_t_u_u+0x40>
    5e42:	0f b7 45 fc          	movzwl -0x4(%rbp),%eax
    5e46:	5d                   	pop    %rbp
    5e47:	c3                   	retq   

0000000000005e48 <safe_rshift_func_uint16_t_u_s>:
    5e48:	f3 0f 1e fa          	endbr64 
    5e4c:	55                   	push   %rbp
    5e4d:	48 89 e5             	mov    %rsp,%rbp
    5e50:	89 f8                	mov    %edi,%eax
    5e52:	89 75 f8             	mov    %esi,-0x8(%rbp)
    5e55:	66 89 45 fc          	mov    %ax,-0x4(%rbp)
    5e59:	83 7d f8 00          	cmpl   $0x0,-0x8(%rbp)
    5e5d:	78 15                	js     5e74 <safe_rshift_func_uint16_t_u_s+0x2c>
    5e5f:	83 7d f8 1f          	cmpl   $0x1f,-0x8(%rbp)
    5e63:	7f 0f                	jg     5e74 <safe_rshift_func_uint16_t_u_s+0x2c>
    5e65:	0f b7 55 fc          	movzwl -0x4(%rbp),%edx
    5e69:	8b 45 f8             	mov    -0x8(%rbp),%eax
    5e6c:	89 c1                	mov    %eax,%ecx
    5e6e:	d3 fa                	sar    %cl,%edx
    5e70:	89 d0                	mov    %edx,%eax
    5e72:	eb 04                	jmp    5e78 <safe_rshift_func_uint16_t_u_s+0x30>
    5e74:	0f b7 45 fc          	movzwl -0x4(%rbp),%eax
    5e78:	5d                   	pop    %rbp
    5e79:	c3                   	retq   

0000000000005e7a <safe_rshift_func_uint16_t_u_u>:
    5e7a:	f3 0f 1e fa          	endbr64 
    5e7e:	55                   	push   %rbp
    5e7f:	48 89 e5             	mov    %rsp,%rbp
    5e82:	89 f8                	mov    %edi,%eax
    5e84:	89 75 f8             	mov    %esi,-0x8(%rbp)
    5e87:	66 89 45 fc          	mov    %ax,-0x4(%rbp)
    5e8b:	83 7d f8 1f          	cmpl   $0x1f,-0x8(%rbp)
    5e8f:	77 0f                	ja     5ea0 <safe_rshift_func_uint16_t_u_u+0x26>
    5e91:	0f b7 55 fc          	movzwl -0x4(%rbp),%edx
    5e95:	8b 45 f8             	mov    -0x8(%rbp),%eax
    5e98:	89 c1                	mov    %eax,%ecx
    5e9a:	d3 fa                	sar    %cl,%edx
    5e9c:	89 d0                	mov    %edx,%eax
    5e9e:	eb 04                	jmp    5ea4 <safe_rshift_func_uint16_t_u_u+0x2a>
    5ea0:	0f b7 45 fc          	movzwl -0x4(%rbp),%eax
    5ea4:	5d                   	pop    %rbp
    5ea5:	c3                   	retq   

0000000000005ea6 <safe_unary_minus_func_uint32_t_u>:
    5ea6:	f3 0f 1e fa          	endbr64 
    5eaa:	55                   	push   %rbp
    5eab:	48 89 e5             	mov    %rsp,%rbp
    5eae:	89 7d fc             	mov    %edi,-0x4(%rbp)
    5eb1:	8b 45 fc             	mov    -0x4(%rbp),%eax
    5eb4:	f7 d8                	neg    %eax
    5eb6:	5d                   	pop    %rbp
    5eb7:	c3                   	retq   

0000000000005eb8 <safe_add_func_uint32_t_u_u>:
    5eb8:	f3 0f 1e fa          	endbr64 
    5ebc:	55                   	push   %rbp
    5ebd:	48 89 e5             	mov    %rsp,%rbp
    5ec0:	89 7d fc             	mov    %edi,-0x4(%rbp)
    5ec3:	89 75 f8             	mov    %esi,-0x8(%rbp)
    5ec6:	8b 55 fc             	mov    -0x4(%rbp),%edx
    5ec9:	8b 45 f8             	mov    -0x8(%rbp),%eax
    5ecc:	01 d0                	add    %edx,%eax
    5ece:	5d                   	pop    %rbp
    5ecf:	c3                   	retq   

0000000000005ed0 <safe_sub_func_uint32_t_u_u>:
    5ed0:	f3 0f 1e fa          	endbr64 
    5ed4:	55                   	push   %rbp
    5ed5:	48 89 e5             	mov    %rsp,%rbp
    5ed8:	89 7d fc             	mov    %edi,-0x4(%rbp)
    5edb:	89 75 f8             	mov    %esi,-0x8(%rbp)
    5ede:	8b 45 fc             	mov    -0x4(%rbp),%eax
    5ee1:	2b 45 f8             	sub    -0x8(%rbp),%eax
    5ee4:	5d                   	pop    %rbp
    5ee5:	c3                   	retq   

0000000000005ee6 <safe_mul_func_uint32_t_u_u>:
    5ee6:	f3 0f 1e fa          	endbr64 
    5eea:	55                   	push   %rbp
    5eeb:	48 89 e5             	mov    %rsp,%rbp
    5eee:	89 7d fc             	mov    %edi,-0x4(%rbp)
    5ef1:	89 75 f8             	mov    %esi,-0x8(%rbp)
    5ef4:	8b 45 fc             	mov    -0x4(%rbp),%eax
    5ef7:	0f af 45 f8          	imul   -0x8(%rbp),%eax
    5efb:	5d                   	pop    %rbp
    5efc:	c3                   	retq   

0000000000005efd <safe_mod_func_uint32_t_u_u>:
    5efd:	f3 0f 1e fa          	endbr64 
    5f01:	55                   	push   %rbp
    5f02:	48 89 e5             	mov    %rsp,%rbp
    5f05:	89 7d fc             	mov    %edi,-0x4(%rbp)
    5f08:	89 75 f8             	mov    %esi,-0x8(%rbp)
    5f0b:	83 7d f8 00          	cmpl   $0x0,-0x8(%rbp)
    5f0f:	74 0f                	je     5f20 <safe_mod_func_uint32_t_u_u+0x23>
    5f11:	8b 45 fc             	mov    -0x4(%rbp),%eax
    5f14:	ba 00 00 00 00       	mov    $0x0,%edx
    5f19:	f7 75 f8             	divl   -0x8(%rbp)
    5f1c:	89 d0                	mov    %edx,%eax
    5f1e:	eb 03                	jmp    5f23 <safe_mod_func_uint32_t_u_u+0x26>
    5f20:	8b 45 fc             	mov    -0x4(%rbp),%eax
    5f23:	5d                   	pop    %rbp
    5f24:	c3                   	retq   

0000000000005f25 <safe_div_func_uint32_t_u_u>:
    5f25:	f3 0f 1e fa          	endbr64 
    5f29:	55                   	push   %rbp
    5f2a:	48 89 e5             	mov    %rsp,%rbp
    5f2d:	89 7d fc             	mov    %edi,-0x4(%rbp)
    5f30:	89 75 f8             	mov    %esi,-0x8(%rbp)
    5f33:	83 7d f8 00          	cmpl   $0x0,-0x8(%rbp)
    5f37:	74 0d                	je     5f46 <safe_div_func_uint32_t_u_u+0x21>
    5f39:	8b 45 fc             	mov    -0x4(%rbp),%eax
    5f3c:	ba 00 00 00 00       	mov    $0x0,%edx
    5f41:	f7 75 f8             	divl   -0x8(%rbp)
    5f44:	eb 03                	jmp    5f49 <safe_div_func_uint32_t_u_u+0x24>
    5f46:	8b 45 fc             	mov    -0x4(%rbp),%eax
    5f49:	5d                   	pop    %rbp
    5f4a:	c3                   	retq   

0000000000005f4b <safe_lshift_func_uint32_t_u_s>:
    5f4b:	f3 0f 1e fa          	endbr64 
    5f4f:	55                   	push   %rbp
    5f50:	48 89 e5             	mov    %rsp,%rbp
    5f53:	89 7d fc             	mov    %edi,-0x4(%rbp)
    5f56:	89 75 f8             	mov    %esi,-0x8(%rbp)
    5f59:	83 7d f8 00          	cmpl   $0x0,-0x8(%rbp)
    5f5d:	78 27                	js     5f86 <safe_lshift_func_uint32_t_u_s+0x3b>
    5f5f:	83 7d f8 1f          	cmpl   $0x1f,-0x8(%rbp)
    5f63:	7f 21                	jg     5f86 <safe_lshift_func_uint32_t_u_s+0x3b>
    5f65:	8b 45 f8             	mov    -0x8(%rbp),%eax
    5f68:	ba ff ff ff ff       	mov    $0xffffffff,%edx
    5f6d:	89 c1                	mov    %eax,%ecx
    5f6f:	d3 ea                	shr    %cl,%edx
    5f71:	89 d0                	mov    %edx,%eax
    5f73:	39 45 fc             	cmp    %eax,-0x4(%rbp)
    5f76:	77 0e                	ja     5f86 <safe_lshift_func_uint32_t_u_s+0x3b>
    5f78:	8b 45 f8             	mov    -0x8(%rbp),%eax
    5f7b:	8b 55 fc             	mov    -0x4(%rbp),%edx
    5f7e:	89 c1                	mov    %eax,%ecx
    5f80:	d3 e2                	shl    %cl,%edx
    5f82:	89 d0                	mov    %edx,%eax
    5f84:	eb 03                	jmp    5f89 <safe_lshift_func_uint32_t_u_s+0x3e>
    5f86:	8b 45 fc             	mov    -0x4(%rbp),%eax
    5f89:	5d                   	pop    %rbp
    5f8a:	c3                   	retq   

0000000000005f8b <safe_lshift_func_uint32_t_u_u>:
    5f8b:	f3 0f 1e fa          	endbr64 
    5f8f:	55                   	push   %rbp
    5f90:	48 89 e5             	mov    %rsp,%rbp
    5f93:	89 7d fc             	mov    %edi,-0x4(%rbp)
    5f96:	89 75 f8             	mov    %esi,-0x8(%rbp)
    5f99:	83 7d f8 1f          	cmpl   $0x1f,-0x8(%rbp)
    5f9d:	77 21                	ja     5fc0 <safe_lshift_func_uint32_t_u_u+0x35>
    5f9f:	8b 45 f8             	mov    -0x8(%rbp),%eax
    5fa2:	ba ff ff ff ff       	mov    $0xffffffff,%edx
    5fa7:	89 c1                	mov    %eax,%ecx
    5fa9:	d3 ea                	shr    %cl,%edx
    5fab:	89 d0                	mov    %edx,%eax
    5fad:	39 45 fc             	cmp    %eax,-0x4(%rbp)
    5fb0:	77 0e                	ja     5fc0 <safe_lshift_func_uint32_t_u_u+0x35>
    5fb2:	8b 45 f8             	mov    -0x8(%rbp),%eax
    5fb5:	8b 55 fc             	mov    -0x4(%rbp),%edx
    5fb8:	89 c1                	mov    %eax,%ecx
    5fba:	d3 e2                	shl    %cl,%edx
    5fbc:	89 d0                	mov    %edx,%eax
    5fbe:	eb 03                	jmp    5fc3 <safe_lshift_func_uint32_t_u_u+0x38>
    5fc0:	8b 45 fc             	mov    -0x4(%rbp),%eax
    5fc3:	5d                   	pop    %rbp
    5fc4:	c3                   	retq   

0000000000005fc5 <safe_rshift_func_uint32_t_u_s>:
    5fc5:	f3 0f 1e fa          	endbr64 
    5fc9:	55                   	push   %rbp
    5fca:	48 89 e5             	mov    %rsp,%rbp
    5fcd:	89 7d fc             	mov    %edi,-0x4(%rbp)
    5fd0:	89 75 f8             	mov    %esi,-0x8(%rbp)
    5fd3:	83 7d f8 00          	cmpl   $0x0,-0x8(%rbp)
    5fd7:	78 14                	js     5fed <safe_rshift_func_uint32_t_u_s+0x28>
    5fd9:	83 7d f8 1f          	cmpl   $0x1f,-0x8(%rbp)
    5fdd:	7f 0e                	jg     5fed <safe_rshift_func_uint32_t_u_s+0x28>
    5fdf:	8b 45 f8             	mov    -0x8(%rbp),%eax
    5fe2:	8b 55 fc             	mov    -0x4(%rbp),%edx
    5fe5:	89 c1                	mov    %eax,%ecx
    5fe7:	d3 ea                	shr    %cl,%edx
    5fe9:	89 d0                	mov    %edx,%eax
    5feb:	eb 03                	jmp    5ff0 <safe_rshift_func_uint32_t_u_s+0x2b>
    5fed:	8b 45 fc             	mov    -0x4(%rbp),%eax
    5ff0:	5d                   	pop    %rbp
    5ff1:	c3                   	retq   

0000000000005ff2 <safe_rshift_func_uint32_t_u_u>:
    5ff2:	f3 0f 1e fa          	endbr64 
    5ff6:	55                   	push   %rbp
    5ff7:	48 89 e5             	mov    %rsp,%rbp
    5ffa:	89 7d fc             	mov    %edi,-0x4(%rbp)
    5ffd:	89 75 f8             	mov    %esi,-0x8(%rbp)
    6000:	83 7d f8 1f          	cmpl   $0x1f,-0x8(%rbp)
    6004:	77 0e                	ja     6014 <safe_rshift_func_uint32_t_u_u+0x22>
    6006:	8b 45 f8             	mov    -0x8(%rbp),%eax
    6009:	8b 55 fc             	mov    -0x4(%rbp),%edx
    600c:	89 c1                	mov    %eax,%ecx
    600e:	d3 ea                	shr    %cl,%edx
    6010:	89 d0                	mov    %edx,%eax
    6012:	eb 03                	jmp    6017 <safe_rshift_func_uint32_t_u_u+0x25>
    6014:	8b 45 fc             	mov    -0x4(%rbp),%eax
    6017:	5d                   	pop    %rbp
    6018:	c3                   	retq   

0000000000006019 <safe_unary_minus_func_uint64_t_u>:
    6019:	f3 0f 1e fa          	endbr64 
    601d:	55                   	push   %rbp
    601e:	48 89 e5             	mov    %rsp,%rbp
    6021:	48 89 7d f8          	mov    %rdi,-0x8(%rbp)
    6025:	48 8b 45 f8          	mov    -0x8(%rbp),%rax
    6029:	48 f7 d8             	neg    %rax
    602c:	5d                   	pop    %rbp
    602d:	c3                   	retq   

000000000000602e <safe_add_func_uint64_t_u_u>:
    602e:	f3 0f 1e fa          	endbr64 
    6032:	55                   	push   %rbp
    6033:	48 89 e5             	mov    %rsp,%rbp
    6036:	48 89 7d f8          	mov    %rdi,-0x8(%rbp)
    603a:	48 89 75 f0          	mov    %rsi,-0x10(%rbp)
    603e:	48 8b 55 f8          	mov    -0x8(%rbp),%rdx
    6042:	48 8b 45 f0          	mov    -0x10(%rbp),%rax
    6046:	48 01 d0             	add    %rdx,%rax
    6049:	5d                   	pop    %rbp
    604a:	c3                   	retq   

000000000000604b <safe_sub_func_uint64_t_u_u>:
    604b:	f3 0f 1e fa          	endbr64 
    604f:	55                   	push   %rbp
    6050:	48 89 e5             	mov    %rsp,%rbp
    6053:	48 89 7d f8          	mov    %rdi,-0x8(%rbp)
    6057:	48 89 75 f0          	mov    %rsi,-0x10(%rbp)
    605b:	48 8b 45 f8          	mov    -0x8(%rbp),%rax
    605f:	48 2b 45 f0          	sub    -0x10(%rbp),%rax
    6063:	5d                   	pop    %rbp
    6064:	c3                   	retq   

0000000000006065 <safe_mul_func_uint64_t_u_u>:
    6065:	f3 0f 1e fa          	endbr64 
    6069:	55                   	push   %rbp
    606a:	48 89 e5             	mov    %rsp,%rbp
    606d:	48 89 7d f8          	mov    %rdi,-0x8(%rbp)
    6071:	48 89 75 f0          	mov    %rsi,-0x10(%rbp)
    6075:	48 8b 45 f8          	mov    -0x8(%rbp),%rax
    6079:	48 0f af 45 f0       	imul   -0x10(%rbp),%rax
    607e:	5d                   	pop    %rbp
    607f:	c3                   	retq   

0000000000006080 <safe_mod_func_uint64_t_u_u>:
    6080:	f3 0f 1e fa          	endbr64 
    6084:	55                   	push   %rbp
    6085:	48 89 e5             	mov    %rsp,%rbp
    6088:	48 89 7d f8          	mov    %rdi,-0x8(%rbp)
    608c:	48 89 75 f0          	mov    %rsi,-0x10(%rbp)
    6090:	48 83 7d f0 00       	cmpq   $0x0,-0x10(%rbp)
    6095:	74 12                	je     60a9 <safe_mod_func_uint64_t_u_u+0x29>
    6097:	48 8b 45 f8          	mov    -0x8(%rbp),%rax
    609b:	ba 00 00 00 00       	mov    $0x0,%edx
    60a0:	48 f7 75 f0          	divq   -0x10(%rbp)
    60a4:	48 89 d0             	mov    %rdx,%rax
    60a7:	eb 04                	jmp    60ad <safe_mod_func_uint64_t_u_u+0x2d>
    60a9:	48 8b 45 f8          	mov    -0x8(%rbp),%rax
    60ad:	5d                   	pop    %rbp
    60ae:	c3                   	retq   

00000000000060af <safe_div_func_uint64_t_u_u>:
    60af:	f3 0f 1e fa          	endbr64 
    60b3:	55                   	push   %rbp
    60b4:	48 89 e5             	mov    %rsp,%rbp
    60b7:	48 89 7d f8          	mov    %rdi,-0x8(%rbp)
    60bb:	48 89 75 f0          	mov    %rsi,-0x10(%rbp)
    60bf:	48 83 7d f0 00       	cmpq   $0x0,-0x10(%rbp)
    60c4:	74 0f                	je     60d5 <safe_div_func_uint64_t_u_u+0x26>
    60c6:	48 8b 45 f8          	mov    -0x8(%rbp),%rax
    60ca:	ba 00 00 00 00       	mov    $0x0,%edx
    60cf:	48 f7 75 f0          	divq   -0x10(%rbp)
    60d3:	eb 04                	jmp    60d9 <safe_div_func_uint64_t_u_u+0x2a>
    60d5:	48 8b 45 f8          	mov    -0x8(%rbp),%rax
    60d9:	5d                   	pop    %rbp
    60da:	c3                   	retq   

00000000000060db <safe_lshift_func_uint64_t_u_s>:
    60db:	f3 0f 1e fa          	endbr64 
    60df:	55                   	push   %rbp
    60e0:	48 89 e5             	mov    %rsp,%rbp
    60e3:	48 89 7d f8          	mov    %rdi,-0x8(%rbp)
    60e7:	89 75 f4             	mov    %esi,-0xc(%rbp)
    60ea:	83 7d f4 00          	cmpl   $0x0,-0xc(%rbp)
    60ee:	78 2f                	js     611f <safe_lshift_func_uint64_t_u_s+0x44>
    60f0:	83 7d f4 1f          	cmpl   $0x1f,-0xc(%rbp)
    60f4:	7f 29                	jg     611f <safe_lshift_func_uint64_t_u_s+0x44>
    60f6:	8b 45 f4             	mov    -0xc(%rbp),%eax
    60f9:	48 c7 c2 ff ff ff ff 	mov    $0xffffffffffffffff,%rdx
    6100:	89 c1                	mov    %eax,%ecx
    6102:	48 d3 ea             	shr    %cl,%rdx
    6105:	48 89 d0             	mov    %rdx,%rax
    6108:	48 39 45 f8          	cmp    %rax,-0x8(%rbp)
    610c:	77 11                	ja     611f <safe_lshift_func_uint64_t_u_s+0x44>
    610e:	8b 45 f4             	mov    -0xc(%rbp),%eax
    6111:	48 8b 55 f8          	mov    -0x8(%rbp),%rdx
    6115:	89 c1                	mov    %eax,%ecx
    6117:	48 d3 e2             	shl    %cl,%rdx
    611a:	48 89 d0             	mov    %rdx,%rax
    611d:	eb 04                	jmp    6123 <safe_lshift_func_uint64_t_u_s+0x48>
    611f:	48 8b 45 f8          	mov    -0x8(%rbp),%rax
    6123:	5d                   	pop    %rbp
    6124:	c3                   	retq   

0000000000006125 <safe_lshift_func_uint64_t_u_u>:
    6125:	f3 0f 1e fa          	endbr64 
    6129:	55                   	push   %rbp
    612a:	48 89 e5             	mov    %rsp,%rbp
    612d:	48 89 7d f8          	mov    %rdi,-0x8(%rbp)
    6131:	89 75 f4             	mov    %esi,-0xc(%rbp)
    6134:	83 7d f4 1f          	cmpl   $0x1f,-0xc(%rbp)
    6138:	77 29                	ja     6163 <safe_lshift_func_uint64_t_u_u+0x3e>
    613a:	8b 45 f4             	mov    -0xc(%rbp),%eax
    613d:	48 c7 c2 ff ff ff ff 	mov    $0xffffffffffffffff,%rdx
    6144:	89 c1                	mov    %eax,%ecx
    6146:	48 d3 ea             	shr    %cl,%rdx
    6149:	48 89 d0             	mov    %rdx,%rax
    614c:	48 39 45 f8          	cmp    %rax,-0x8(%rbp)
    6150:	77 11                	ja     6163 <safe_lshift_func_uint64_t_u_u+0x3e>
    6152:	8b 45 f4             	mov    -0xc(%rbp),%eax
    6155:	48 8b 55 f8          	mov    -0x8(%rbp),%rdx
    6159:	89 c1                	mov    %eax,%ecx
    615b:	48 d3 e2             	shl    %cl,%rdx
    615e:	48 89 d0             	mov    %rdx,%rax
    6161:	eb 04                	jmp    6167 <safe_lshift_func_uint64_t_u_u+0x42>
    6163:	48 8b 45 f8          	mov    -0x8(%rbp),%rax
    6167:	5d                   	pop    %rbp
    6168:	c3                   	retq   

0000000000006169 <safe_rshift_func_uint64_t_u_s>:
    6169:	f3 0f 1e fa          	endbr64 
    616d:	55                   	push   %rbp
    616e:	48 89 e5             	mov    %rsp,%rbp
    6171:	48 89 7d f8          	mov    %rdi,-0x8(%rbp)
    6175:	89 75 f4             	mov    %esi,-0xc(%rbp)
    6178:	83 7d f4 00          	cmpl   $0x0,-0xc(%rbp)
    617c:	78 17                	js     6195 <safe_rshift_func_uint64_t_u_s+0x2c>
    617e:	83 7d f4 1f          	cmpl   $0x1f,-0xc(%rbp)
    6182:	7f 11                	jg     6195 <safe_rshift_func_uint64_t_u_s+0x2c>
    6184:	8b 45 f4             	mov    -0xc(%rbp),%eax
    6187:	48 8b 55 f8          	mov    -0x8(%rbp),%rdx
    618b:	89 c1                	mov    %eax,%ecx
    618d:	48 d3 ea             	shr    %cl,%rdx
    6190:	48 89 d0             	mov    %rdx,%rax
    6193:	eb 04                	jmp    6199 <safe_rshift_func_uint64_t_u_s+0x30>
    6195:	48 8b 45 f8          	mov    -0x8(%rbp),%rax
    6199:	5d                   	pop    %rbp
    619a:	c3                   	retq   

000000000000619b <safe_rshift_func_uint64_t_u_u>:
    619b:	f3 0f 1e fa          	endbr64 
    619f:	55                   	push   %rbp
    61a0:	48 89 e5             	mov    %rsp,%rbp
    61a3:	48 89 7d f8          	mov    %rdi,-0x8(%rbp)
    61a7:	89 75 f4             	mov    %esi,-0xc(%rbp)
    61aa:	83 7d f4 1f          	cmpl   $0x1f,-0xc(%rbp)
    61ae:	77 11                	ja     61c1 <safe_rshift_func_uint64_t_u_u+0x26>
    61b0:	8b 45 f4             	mov    -0xc(%rbp),%eax
    61b3:	48 8b 55 f8          	mov    -0x8(%rbp),%rdx
    61b7:	89 c1                	mov    %eax,%ecx
    61b9:	48 d3 ea             	shr    %cl,%rdx
    61bc:	48 89 d0             	mov    %rdx,%rax
    61bf:	eb 04                	jmp    61c5 <safe_rshift_func_uint64_t_u_u+0x2a>
    61c1:	48 8b 45 f8          	mov    -0x8(%rbp),%rax
    61c5:	5d                   	pop    %rbp
    61c6:	c3                   	retq   

00000000000061c7 <safe_add_func_float_f_f>:
    61c7:	f3 0f 1e fa          	endbr64 
    61cb:	55                   	push   %rbp
    61cc:	48 89 e5             	mov    %rsp,%rbp
    61cf:	f3 0f 11 45 fc       	movss  %xmm0,-0x4(%rbp)
    61d4:	f3 0f 11 4d f8       	movss  %xmm1,-0x8(%rbp)
    61d9:	f3 0f 10 4d fc       	movss  -0x4(%rbp),%xmm1
    61de:	f3 0f 10 05 c6 1a 01 	movss  0x11ac6(%rip),%xmm0        # 17cac <l_405.5430+0x8c>
    61e5:	00 
    61e6:	f3 0f 59 c8          	mulss  %xmm0,%xmm1
    61ea:	f3 0f 10 55 f8       	movss  -0x8(%rbp),%xmm2
    61ef:	f3 0f 10 05 b5 1a 01 	movss  0x11ab5(%rip),%xmm0        # 17cac <l_405.5430+0x8c>
    61f6:	00 
    61f7:	f3 0f 59 c2          	mulss  %xmm2,%xmm0
    61fb:	f3 0f 58 c1          	addss  %xmm1,%xmm0
    61ff:	f3 0f 10 0d a9 1a 01 	movss  0x11aa9(%rip),%xmm1        # 17cb0 <l_405.5430+0x90>
    6206:	00 
    6207:	0f 54 c1             	andps  %xmm1,%xmm0
    620a:	0f 2f 05 af 1a 01 00 	comiss 0x11aaf(%rip),%xmm0        # 17cc0 <l_405.5430+0xa0>
    6211:	76 07                	jbe    621a <safe_add_func_float_f_f+0x53>
    6213:	f3 0f 10 45 fc       	movss  -0x4(%rbp),%xmm0
    6218:	eb 0a                	jmp    6224 <safe_add_func_float_f_f+0x5d>
    621a:	f3 0f 10 45 fc       	movss  -0x4(%rbp),%xmm0
    621f:	f3 0f 58 45 f8       	addss  -0x8(%rbp),%xmm0
    6224:	5d                   	pop    %rbp
    6225:	c3                   	retq   

0000000000006226 <safe_sub_func_float_f_f>:
    6226:	f3 0f 1e fa          	endbr64 
    622a:	55                   	push   %rbp
    622b:	48 89 e5             	mov    %rsp,%rbp
    622e:	f3 0f 11 45 fc       	movss  %xmm0,-0x4(%rbp)
    6233:	f3 0f 11 4d f8       	movss  %xmm1,-0x8(%rbp)
    6238:	f3 0f 10 4d fc       	movss  -0x4(%rbp),%xmm1
    623d:	f3 0f 10 05 67 1a 01 	movss  0x11a67(%rip),%xmm0        # 17cac <l_405.5430+0x8c>
    6244:	00 
    6245:	f3 0f 59 c1          	mulss  %xmm1,%xmm0
    6249:	f3 0f 10 55 f8       	movss  -0x8(%rbp),%xmm2
    624e:	f3 0f 10 0d 56 1a 01 	movss  0x11a56(%rip),%xmm1        # 17cac <l_405.5430+0x8c>
    6255:	00 
    6256:	f3 0f 59 ca          	mulss  %xmm2,%xmm1
    625a:	f3 0f 5c c1          	subss  %xmm1,%xmm0
    625e:	f3 0f 10 0d 4a 1a 01 	movss  0x11a4a(%rip),%xmm1        # 17cb0 <l_405.5430+0x90>
    6265:	00 
    6266:	0f 54 c1             	andps  %xmm1,%xmm0
    6269:	0f 2f 05 50 1a 01 00 	comiss 0x11a50(%rip),%xmm0        # 17cc0 <l_405.5430+0xa0>
    6270:	76 07                	jbe    6279 <safe_sub_func_float_f_f+0x53>
    6272:	f3 0f 10 45 fc       	movss  -0x4(%rbp),%xmm0
    6277:	eb 0a                	jmp    6283 <safe_sub_func_float_f_f+0x5d>
    6279:	f3 0f 10 45 fc       	movss  -0x4(%rbp),%xmm0
    627e:	f3 0f 5c 45 f8       	subss  -0x8(%rbp),%xmm0
    6283:	5d                   	pop    %rbp
    6284:	c3                   	retq   

0000000000006285 <safe_mul_func_float_f_f>:
    6285:	f3 0f 1e fa          	endbr64 
    6289:	55                   	push   %rbp
    628a:	48 89 e5             	mov    %rsp,%rbp
    628d:	f3 0f 11 45 fc       	movss  %xmm0,-0x4(%rbp)
    6292:	f3 0f 11 4d f8       	movss  %xmm1,-0x8(%rbp)
    6297:	f3 0f 10 4d fc       	movss  -0x4(%rbp),%xmm1
    629c:	f3 0f 10 05 20 1a 01 	movss  0x11a20(%rip),%xmm0        # 17cc4 <l_405.5430+0xa4>
    62a3:	00 
    62a4:	f3 0f 59 c8          	mulss  %xmm0,%xmm1
    62a8:	f3 0f 10 55 f8       	movss  -0x8(%rbp),%xmm2
    62ad:	f3 0f 10 05 13 1a 01 	movss  0x11a13(%rip),%xmm0        # 17cc8 <l_405.5430+0xa8>
    62b4:	00 
    62b5:	f3 0f 59 c2          	mulss  %xmm2,%xmm0
    62b9:	f3 0f 59 c1          	mulss  %xmm1,%xmm0
    62bd:	f3 0f 10 0d eb 19 01 	movss  0x119eb(%rip),%xmm1        # 17cb0 <l_405.5430+0x90>
    62c4:	00 
    62c5:	0f 54 c1             	andps  %xmm1,%xmm0
    62c8:	0f 2f 05 fd 19 01 00 	comiss 0x119fd(%rip),%xmm0        # 17ccc <l_405.5430+0xac>
    62cf:	76 07                	jbe    62d8 <safe_mul_func_float_f_f+0x53>
    62d1:	f3 0f 10 45 fc       	movss  -0x4(%rbp),%xmm0
    62d6:	eb 0a                	jmp    62e2 <safe_mul_func_float_f_f+0x5d>
    62d8:	f3 0f 10 45 fc       	movss  -0x4(%rbp),%xmm0
    62dd:	f3 0f 59 45 f8       	mulss  -0x8(%rbp),%xmm0
    62e2:	5d                   	pop    %rbp
    62e3:	c3                   	retq   

00000000000062e4 <safe_div_func_float_f_f>:
    62e4:	f3 0f 1e fa          	endbr64 
    62e8:	55                   	push   %rbp
    62e9:	48 89 e5             	mov    %rsp,%rbp
    62ec:	f3 0f 11 45 fc       	movss  %xmm0,-0x4(%rbp)
    62f1:	f3 0f 11 4d f8       	movss  %xmm1,-0x8(%rbp)
    62f6:	f3 0f 10 45 f8       	movss  -0x8(%rbp),%xmm0
    62fb:	f3 0f 10 0d ad 19 01 	movss  0x119ad(%rip),%xmm1        # 17cb0 <l_405.5430+0x90>
    6302:	00 
    6303:	0f 54 c8             	andps  %xmm0,%xmm1
    6306:	f3 0f 10 05 c2 19 01 	movss  0x119c2(%rip),%xmm0        # 17cd0 <l_405.5430+0xb0>
    630d:	00 
    630e:	0f 2f c1             	comiss %xmm1,%xmm0
    6311:	0f 97 c0             	seta   %al
    6314:	83 f0 01             	xor    $0x1,%eax
    6317:	84 c0                	test   %al,%al
    6319:	75 56                	jne    6371 <safe_div_func_float_f_f+0x8d>
    631b:	66 0f ef c0          	pxor   %xmm0,%xmm0
    631f:	0f 2e 45 f8          	ucomiss -0x8(%rbp),%xmm0
    6323:	7a 0a                	jp     632f <safe_div_func_float_f_f+0x4b>
    6325:	66 0f ef c0          	pxor   %xmm0,%xmm0
    6329:	0f 2e 45 f8          	ucomiss -0x8(%rbp),%xmm0
    632d:	74 4e                	je     637d <safe_div_func_float_f_f+0x99>
    632f:	f3 0f 10 4d fc       	movss  -0x4(%rbp),%xmm1
    6334:	f3 0f 10 05 98 19 01 	movss  0x11998(%rip),%xmm0        # 17cd4 <l_405.5430+0xb4>
    633b:	00 
    633c:	f3 0f 59 c1          	mulss  %xmm1,%xmm0
    6340:	f3 0f 10 55 f8       	movss  -0x8(%rbp),%xmm2
    6345:	f3 0f 10 0d 8b 19 01 	movss  0x1198b(%rip),%xmm1        # 17cd8 <l_405.5430+0xb8>
    634c:	00 
    634d:	f3 0f 59 ca          	mulss  %xmm2,%xmm1
    6351:	f3 0f 5e c1          	divss  %xmm1,%xmm0
    6355:	f3 0f 10 0d 53 19 01 	movss  0x11953(%rip),%xmm1        # 17cb0 <l_405.5430+0x90>
    635c:	00 
    635d:	0f 54 c1             	andps  %xmm1,%xmm0
    6360:	0f 2f 05 75 19 01 00 	comiss 0x11975(%rip),%xmm0        # 17cdc <l_405.5430+0xbc>
    6367:	0f 97 c0             	seta   %al
    636a:	83 f0 01             	xor    $0x1,%eax
    636d:	84 c0                	test   %al,%al
    636f:	74 0c                	je     637d <safe_div_func_float_f_f+0x99>
    6371:	f3 0f 10 45 fc       	movss  -0x4(%rbp),%xmm0
    6376:	f3 0f 5e 45 f8       	divss  -0x8(%rbp),%xmm0
    637b:	eb 05                	jmp    6382 <safe_div_func_float_f_f+0x9e>
    637d:	f3 0f 10 45 fc       	movss  -0x4(%rbp),%xmm0
    6382:	5d                   	pop    %rbp
    6383:	c3                   	retq   

0000000000006384 <safe_add_func_double_f_f>:
    6384:	f3 0f 1e fa          	endbr64 
    6388:	55                   	push   %rbp
    6389:	48 89 e5             	mov    %rsp,%rbp
    638c:	f2 0f 11 45 f8       	movsd  %xmm0,-0x8(%rbp)
    6391:	f2 0f 11 4d f0       	movsd  %xmm1,-0x10(%rbp)
    6396:	f2 0f 10 4d f8       	movsd  -0x8(%rbp),%xmm1
    639b:	f2 0f 10 05 3d 19 01 	movsd  0x1193d(%rip),%xmm0        # 17ce0 <l_405.5430+0xc0>
    63a2:	00 
    63a3:	f2 0f 59 c8          	mulsd  %xmm0,%xmm1
    63a7:	f2 0f 10 55 f0       	movsd  -0x10(%rbp),%xmm2
    63ac:	f2 0f 10 05 2c 19 01 	movsd  0x1192c(%rip),%xmm0        # 17ce0 <l_405.5430+0xc0>
    63b3:	00 
    63b4:	f2 0f 59 c2          	mulsd  %xmm2,%xmm0
    63b8:	f2 0f 58 c1          	addsd  %xmm1,%xmm0
    63bc:	f3 0f 7e 0d 2c 19 01 	movq   0x1192c(%rip),%xmm1        # 17cf0 <l_405.5430+0xd0>
    63c3:	00 
    63c4:	66 0f 54 c1          	andpd  %xmm1,%xmm0
    63c8:	66 0f 2f 05 30 19 01 	comisd 0x11930(%rip),%xmm0        # 17d00 <l_405.5430+0xe0>
    63cf:	00 
    63d0:	76 07                	jbe    63d9 <safe_add_func_double_f_f+0x55>
    63d2:	f2 0f 10 45 f8       	movsd  -0x8(%rbp),%xmm0
    63d7:	eb 0a                	jmp    63e3 <safe_add_func_double_f_f+0x5f>
    63d9:	f2 0f 10 45 f8       	movsd  -0x8(%rbp),%xmm0
    63de:	f2 0f 58 45 f0       	addsd  -0x10(%rbp),%xmm0
    63e3:	5d                   	pop    %rbp
    63e4:	c3                   	retq   

00000000000063e5 <safe_sub_func_double_f_f>:
    63e5:	f3 0f 1e fa          	endbr64 
    63e9:	55                   	push   %rbp
    63ea:	48 89 e5             	mov    %rsp,%rbp
    63ed:	f2 0f 11 45 f8       	movsd  %xmm0,-0x8(%rbp)
    63f2:	f2 0f 11 4d f0       	movsd  %xmm1,-0x10(%rbp)
    63f7:	f2 0f 10 4d f8       	movsd  -0x8(%rbp),%xmm1
    63fc:	f2 0f 10 05 dc 18 01 	movsd  0x118dc(%rip),%xmm0        # 17ce0 <l_405.5430+0xc0>
    6403:	00 
    6404:	f2 0f 59 c1          	mulsd  %xmm1,%xmm0
    6408:	f2 0f 10 55 f0       	movsd  -0x10(%rbp),%xmm2
    640d:	f2 0f 10 0d cb 18 01 	movsd  0x118cb(%rip),%xmm1        # 17ce0 <l_405.5430+0xc0>
    6414:	00 
    6415:	f2 0f 59 ca          	mulsd  %xmm2,%xmm1
    6419:	f2 0f 5c c1          	subsd  %xmm1,%xmm0
    641d:	f3 0f 7e 0d cb 18 01 	movq   0x118cb(%rip),%xmm1        # 17cf0 <l_405.5430+0xd0>
    6424:	00 
    6425:	66 0f 54 c1          	andpd  %xmm1,%xmm0
    6429:	66 0f 2f 05 cf 18 01 	comisd 0x118cf(%rip),%xmm0        # 17d00 <l_405.5430+0xe0>
    6430:	00 
    6431:	76 07                	jbe    643a <safe_sub_func_double_f_f+0x55>
    6433:	f2 0f 10 45 f8       	movsd  -0x8(%rbp),%xmm0
    6438:	eb 0a                	jmp    6444 <safe_sub_func_double_f_f+0x5f>
    643a:	f2 0f 10 45 f8       	movsd  -0x8(%rbp),%xmm0
    643f:	f2 0f 5c 45 f0       	subsd  -0x10(%rbp),%xmm0
    6444:	5d                   	pop    %rbp
    6445:	c3                   	retq   

0000000000006446 <safe_mul_func_double_f_f>:
    6446:	f3 0f 1e fa          	endbr64 
    644a:	55                   	push   %rbp
    644b:	48 89 e5             	mov    %rsp,%rbp
    644e:	f2 0f 11 45 f8       	movsd  %xmm0,-0x8(%rbp)
    6453:	f2 0f 11 4d f0       	movsd  %xmm1,-0x10(%rbp)
    6458:	f2 0f 10 4d f8       	movsd  -0x8(%rbp),%xmm1
    645d:	f2 0f 10 05 a3 18 01 	movsd  0x118a3(%rip),%xmm0        # 17d08 <l_405.5430+0xe8>
    6464:	00 
    6465:	f2 0f 59 c8          	mulsd  %xmm0,%xmm1
    6469:	f2 0f 10 55 f0       	movsd  -0x10(%rbp),%xmm2
    646e:	f2 0f 10 05 9a 18 01 	movsd  0x1189a(%rip),%xmm0        # 17d10 <l_405.5430+0xf0>
    6475:	00 
    6476:	f2 0f 59 c2          	mulsd  %xmm2,%xmm0
    647a:	f2 0f 59 c1          	mulsd  %xmm1,%xmm0
    647e:	f3 0f 7e 0d 6a 18 01 	movq   0x1186a(%rip),%xmm1        # 17cf0 <l_405.5430+0xd0>
    6485:	00 
    6486:	66 0f 54 c1          	andpd  %xmm1,%xmm0
    648a:	66 0f 2f 05 86 18 01 	comisd 0x11886(%rip),%xmm0        # 17d18 <l_405.5430+0xf8>
    6491:	00 
    6492:	76 07                	jbe    649b <safe_mul_func_double_f_f+0x55>
    6494:	f2 0f 10 45 f8       	movsd  -0x8(%rbp),%xmm0
    6499:	eb 0a                	jmp    64a5 <safe_mul_func_double_f_f+0x5f>
    649b:	f2 0f 10 45 f8       	movsd  -0x8(%rbp),%xmm0
    64a0:	f2 0f 59 45 f0       	mulsd  -0x10(%rbp),%xmm0
    64a5:	5d                   	pop    %rbp
    64a6:	c3                   	retq   

00000000000064a7 <safe_div_func_double_f_f>:
    64a7:	f3 0f 1e fa          	endbr64 
    64ab:	55                   	push   %rbp
    64ac:	48 89 e5             	mov    %rsp,%rbp
    64af:	f2 0f 11 45 f8       	movsd  %xmm0,-0x8(%rbp)
    64b4:	f2 0f 11 4d f0       	movsd  %xmm1,-0x10(%rbp)
    64b9:	f2 0f 10 45 f0       	movsd  -0x10(%rbp),%xmm0
    64be:	f3 0f 7e 0d 2a 18 01 	movq   0x1182a(%rip),%xmm1        # 17cf0 <l_405.5430+0xd0>
    64c5:	00 
    64c6:	66 0f 54 c8          	andpd  %xmm0,%xmm1
    64ca:	f2 0f 10 05 4e 18 01 	movsd  0x1184e(%rip),%xmm0        # 17d20 <l_405.5430+0x100>
    64d1:	00 
    64d2:	66 0f 2f c1          	comisd %xmm1,%xmm0
    64d6:	0f 97 c0             	seta   %al
    64d9:	83 f0 01             	xor    $0x1,%eax
    64dc:	84 c0                	test   %al,%al
    64de:	75 5a                	jne    653a <safe_div_func_double_f_f+0x93>
    64e0:	66 0f ef c0          	pxor   %xmm0,%xmm0
    64e4:	66 0f 2e 45 f0       	ucomisd -0x10(%rbp),%xmm0
    64e9:	7a 0b                	jp     64f6 <safe_div_func_double_f_f+0x4f>
    64eb:	66 0f ef c0          	pxor   %xmm0,%xmm0
    64ef:	66 0f 2e 45 f0       	ucomisd -0x10(%rbp),%xmm0
    64f4:	74 50                	je     6546 <safe_div_func_double_f_f+0x9f>
    64f6:	f2 0f 10 4d f8       	movsd  -0x8(%rbp),%xmm1
    64fb:	f2 0f 10 05 25 18 01 	movsd  0x11825(%rip),%xmm0        # 17d28 <l_405.5430+0x108>
    6502:	00 
    6503:	f2 0f 59 c1          	mulsd  %xmm1,%xmm0
    6507:	f2 0f 10 55 f0       	movsd  -0x10(%rbp),%xmm2
    650c:	f2 0f 10 0d 1c 18 01 	movsd  0x1181c(%rip),%xmm1        # 17d30 <l_405.5430+0x110>
    6513:	00 
    6514:	f2 0f 59 ca          	mulsd  %xmm2,%xmm1
    6518:	f2 0f 5e c1          	divsd  %xmm1,%xmm0
    651c:	f3 0f 7e 0d cc 17 01 	movq   0x117cc(%rip),%xmm1        # 17cf0 <l_405.5430+0xd0>
    6523:	00 
    6524:	66 0f 54 c1          	andpd  %xmm1,%xmm0
    6528:	66 0f 2f 05 08 18 01 	comisd 0x11808(%rip),%xmm0        # 17d38 <l_405.5430+0x118>
    652f:	00 
    6530:	0f 97 c0             	seta   %al
    6533:	83 f0 01             	xor    $0x1,%eax
    6536:	84 c0                	test   %al,%al
    6538:	74 0c                	je     6546 <safe_div_func_double_f_f+0x9f>
    653a:	f2 0f 10 45 f8       	movsd  -0x8(%rbp),%xmm0
    653f:	f2 0f 5e 45 f0       	divsd  -0x10(%rbp),%xmm0
    6544:	eb 05                	jmp    654b <safe_div_func_double_f_f+0xa4>
    6546:	f2 0f 10 45 f8       	movsd  -0x8(%rbp),%xmm0
    654b:	5d                   	pop    %rbp
    654c:	c3                   	retq   

000000000000654d <safe_convert_func_float_to_int32_t>:
    654d:	f3 0f 1e fa          	endbr64 
    6551:	55                   	push   %rbp
    6552:	48 89 e5             	mov    %rsp,%rbp
    6555:	f3 0f 11 45 fc       	movss  %xmm0,-0x4(%rbp)
    655a:	f3 0f 10 05 de 17 01 	movss  0x117de(%rip),%xmm0        # 17d40 <l_405.5430+0x120>
    6561:	00 
    6562:	0f 2f 45 fc          	comiss -0x4(%rbp),%xmm0
    6566:	0f 93 c0             	setae  %al
    6569:	83 f0 01             	xor    $0x1,%eax
    656c:	84 c0                	test   %al,%al
    656e:	74 21                	je     6591 <safe_convert_func_float_to_int32_t+0x44>
    6570:	f3 0f 10 45 fc       	movss  -0x4(%rbp),%xmm0
    6575:	0f 2f 05 c8 17 01 00 	comiss 0x117c8(%rip),%xmm0        # 17d44 <l_405.5430+0x124>
    657c:	0f 93 c0             	setae  %al
    657f:	83 f0 01             	xor    $0x1,%eax
    6582:	84 c0                	test   %al,%al
    6584:	74 0b                	je     6591 <safe_convert_func_float_to_int32_t+0x44>
    6586:	f3 0f 10 45 fc       	movss  -0x4(%rbp),%xmm0
    658b:	f3 0f 2c c0          	cvttss2si %xmm0,%eax
    658f:	eb 05                	jmp    6596 <safe_convert_func_float_to_int32_t+0x49>
    6591:	b8 ff ff ff 7f       	mov    $0x7fffffff,%eax
    6596:	5d                   	pop    %rbp
    6597:	c3                   	retq   

0000000000006598 <crc32_gentab>:
    6598:	f3 0f 1e fa          	endbr64 
    659c:	55                   	push   %rbp
    659d:	48 89 e5             	mov    %rsp,%rbp
    65a0:	c7 45 fc 20 83 b8 ed 	movl   $0xedb88320,-0x4(%rbp)
    65a7:	c7 45 f4 00 00 00 00 	movl   $0x0,-0xc(%rbp)
    65ae:	eb 51                	jmp    6601 <crc32_gentab+0x69>
    65b0:	8b 45 f4             	mov    -0xc(%rbp),%eax
    65b3:	89 45 f0             	mov    %eax,-0x10(%rbp)
    65b6:	c7 45 f8 08 00 00 00 	movl   $0x8,-0x8(%rbp)
    65bd:	eb 1e                	jmp    65dd <crc32_gentab+0x45>
    65bf:	8b 45 f0             	mov    -0x10(%rbp),%eax
    65c2:	83 e0 01             	and    $0x1,%eax
    65c5:	85 c0                	test   %eax,%eax
    65c7:	74 0d                	je     65d6 <crc32_gentab+0x3e>
    65c9:	8b 45 f0             	mov    -0x10(%rbp),%eax
    65cc:	d1 e8                	shr    %eax
    65ce:	33 45 fc             	xor    -0x4(%rbp),%eax
    65d1:	89 45 f0             	mov    %eax,-0x10(%rbp)
    65d4:	eb 03                	jmp    65d9 <crc32_gentab+0x41>
    65d6:	d1 6d f0             	shrl   -0x10(%rbp)
    65d9:	83 6d f8 01          	subl   $0x1,-0x8(%rbp)
    65dd:	83 7d f8 00          	cmpl   $0x0,-0x8(%rbp)
    65e1:	7f dc                	jg     65bf <crc32_gentab+0x27>
    65e3:	8b 45 f4             	mov    -0xc(%rbp),%eax
    65e6:	48 98                	cltq   
    65e8:	48 8d 0c 85 00 00 00 	lea    0x0(,%rax,4),%rcx
    65ef:	00 
    65f0:	48 8d 15 c9 6e 01 00 	lea    0x16ec9(%rip),%rdx        # 1d4c0 <crc32_tab>
    65f7:	8b 45 f0             	mov    -0x10(%rbp),%eax
    65fa:	89 04 11             	mov    %eax,(%rcx,%rdx,1)
    65fd:	83 45 f4 01          	addl   $0x1,-0xc(%rbp)
    6601:	81 7d f4 ff 00 00 00 	cmpl   $0xff,-0xc(%rbp)
    6608:	7e a6                	jle    65b0 <crc32_gentab+0x18>
    660a:	90                   	nop
    660b:	90                   	nop
    660c:	5d                   	pop    %rbp
    660d:	c3                   	retq   

000000000000660e <crc32_byte>:
    660e:	f3 0f 1e fa          	endbr64 
    6612:	55                   	push   %rbp
    6613:	48 89 e5             	mov    %rsp,%rbp
    6616:	89 f8                	mov    %edi,%eax
    6618:	88 45 fc             	mov    %al,-0x4(%rbp)
    661b:	8b 05 ff 49 01 00    	mov    0x149ff(%rip),%eax        # 1b020 <crc32_context>
    6621:	c1 e8 08             	shr    $0x8,%eax
    6624:	89 c1                	mov    %eax,%ecx
    6626:	0f b6 55 fc          	movzbl -0x4(%rbp),%edx
    662a:	8b 05 f0 49 01 00    	mov    0x149f0(%rip),%eax        # 1b020 <crc32_context>
    6630:	31 d0                	xor    %edx,%eax
    6632:	0f b6 c0             	movzbl %al,%eax
    6635:	89 c0                	mov    %eax,%eax
    6637:	48 8d 14 85 00 00 00 	lea    0x0(,%rax,4),%rdx
    663e:	00 
    663f:	48 8d 05 7a 6e 01 00 	lea    0x16e7a(%rip),%rax        # 1d4c0 <crc32_tab>
    6646:	8b 04 02             	mov    (%rdx,%rax,1),%eax
    6649:	31 c8                	xor    %ecx,%eax
    664b:	89 05 cf 49 01 00    	mov    %eax,0x149cf(%rip)        # 1b020 <crc32_context>
    6651:	90                   	nop
    6652:	5d                   	pop    %rbp
    6653:	c3                   	retq   

0000000000006654 <crc32_8bytes>:
    6654:	f3 0f 1e fa          	endbr64 
    6658:	55                   	push   %rbp
    6659:	48 89 e5             	mov    %rsp,%rbp
    665c:	48 83 ec 08          	sub    $0x8,%rsp
    6660:	48 89 7d f8          	mov    %rdi,-0x8(%rbp)
    6664:	48 8b 45 f8          	mov    -0x8(%rbp),%rax
    6668:	0f b6 c0             	movzbl %al,%eax
    666b:	89 c7                	mov    %eax,%edi
    666d:	e8 9c ff ff ff       	callq  660e <crc32_byte>
    6672:	48 8b 45 f8          	mov    -0x8(%rbp),%rax
    6676:	48 c1 e8 08          	shr    $0x8,%rax
    667a:	0f b6 c0             	movzbl %al,%eax
    667d:	89 c7                	mov    %eax,%edi
    667f:	e8 8a ff ff ff       	callq  660e <crc32_byte>
    6684:	48 8b 45 f8          	mov    -0x8(%rbp),%rax
    6688:	48 c1 e8 10          	shr    $0x10,%rax
    668c:	0f b6 c0             	movzbl %al,%eax
    668f:	89 c7                	mov    %eax,%edi
    6691:	e8 78 ff ff ff       	callq  660e <crc32_byte>
    6696:	48 8b 45 f8          	mov    -0x8(%rbp),%rax
    669a:	48 c1 e8 18          	shr    $0x18,%rax
    669e:	0f b6 c0             	movzbl %al,%eax
    66a1:	89 c7                	mov    %eax,%edi
    66a3:	e8 66 ff ff ff       	callq  660e <crc32_byte>
    66a8:	48 8b 45 f8          	mov    -0x8(%rbp),%rax
    66ac:	48 c1 e8 20          	shr    $0x20,%rax
    66b0:	0f b6 c0             	movzbl %al,%eax
    66b3:	89 c7                	mov    %eax,%edi
    66b5:	e8 54 ff ff ff       	callq  660e <crc32_byte>
    66ba:	48 8b 45 f8          	mov    -0x8(%rbp),%rax
    66be:	48 c1 e8 28          	shr    $0x28,%rax
    66c2:	0f b6 c0             	movzbl %al,%eax
    66c5:	89 c7                	mov    %eax,%edi
    66c7:	e8 42 ff ff ff       	callq  660e <crc32_byte>
    66cc:	48 8b 45 f8          	mov    -0x8(%rbp),%rax
    66d0:	48 c1 e8 30          	shr    $0x30,%rax
    66d4:	0f b6 c0             	movzbl %al,%eax
    66d7:	89 c7                	mov    %eax,%edi
    66d9:	e8 30 ff ff ff       	callq  660e <crc32_byte>
    66de:	48 8b 45 f8          	mov    -0x8(%rbp),%rax
    66e2:	48 c1 e8 38          	shr    $0x38,%rax
    66e6:	0f b6 c0             	movzbl %al,%eax
    66e9:	89 c7                	mov    %eax,%edi
    66eb:	e8 1e ff ff ff       	callq  660e <crc32_byte>
    66f0:	90                   	nop
    66f1:	c9                   	leaveq 
    66f2:	c3                   	retq   

00000000000066f3 <transparent_crc>:
    66f3:	f3 0f 1e fa          	endbr64 
    66f7:	55                   	push   %rbp
    66f8:	48 89 e5             	mov    %rsp,%rbp
    66fb:	48 83 ec 20          	sub    $0x20,%rsp
    66ff:	48 89 7d f8          	mov    %rdi,-0x8(%rbp)
    6703:	48 89 75 f0          	mov    %rsi,-0x10(%rbp)
    6707:	89 55 ec             	mov    %edx,-0x14(%rbp)
    670a:	48 8b 45 f8          	mov    -0x8(%rbp),%rax
    670e:	48 89 c7             	mov    %rax,%rdi
    6711:	e8 3e ff ff ff       	callq  6654 <crc32_8bytes>
    6716:	83 7d ec 00          	cmpl   $0x0,-0x14(%rbp)
    671a:	74 22                	je     673e <transparent_crc+0x4b>
    671c:	8b 05 fe 48 01 00    	mov    0x148fe(%rip),%eax        # 1b020 <crc32_context>
    6722:	f7 d0                	not    %eax
    6724:	89 c2                	mov    %eax,%edx
    6726:	48 8b 45 f0          	mov    -0x10(%rbp),%rax
    672a:	48 89 c6             	mov    %rax,%rsi
    672d:	48 8d 3d fc f8 00 00 	lea    0xf8fc(%rip),%rdi        # 16030 <_IO_stdin_used+0x30>
    6734:	b8 00 00 00 00       	mov    $0x0,%eax
    6739:	e8 42 e9 ff ff       	callq  5080 <printf@plt>
    673e:	90                   	nop
    673f:	c9                   	leaveq 
    6740:	c3                   	retq   

0000000000006741 <transparent_crc_bytes>:
    6741:	f3 0f 1e fa          	endbr64 
    6745:	55                   	push   %rbp
    6746:	48 89 e5             	mov    %rsp,%rbp
    6749:	48 83 ec 30          	sub    $0x30,%rsp
    674d:	48 89 7d e8          	mov    %rdi,-0x18(%rbp)
    6751:	89 75 e4             	mov    %esi,-0x1c(%rbp)
    6754:	48 89 55 d8          	mov    %rdx,-0x28(%rbp)
    6758:	89 4d e0             	mov    %ecx,-0x20(%rbp)
    675b:	c7 45 fc 00 00 00 00 	movl   $0x0,-0x4(%rbp)
    6762:	eb 1e                	jmp    6782 <transparent_crc_bytes+0x41>
    6764:	8b 45 fc             	mov    -0x4(%rbp),%eax
    6767:	48 63 d0             	movslq %eax,%rdx
    676a:	48 8b 45 e8          	mov    -0x18(%rbp),%rax
    676e:	48 01 d0             	add    %rdx,%rax
    6771:	0f b6 00             	movzbl (%rax),%eax
    6774:	0f b6 c0             	movzbl %al,%eax
    6777:	89 c7                	mov    %eax,%edi
    6779:	e8 90 fe ff ff       	callq  660e <crc32_byte>
    677e:	83 45 fc 01          	addl   $0x1,-0x4(%rbp)
    6782:	8b 45 fc             	mov    -0x4(%rbp),%eax
    6785:	3b 45 e4             	cmp    -0x1c(%rbp),%eax
    6788:	7c da                	jl     6764 <transparent_crc_bytes+0x23>
    678a:	83 7d e0 00          	cmpl   $0x0,-0x20(%rbp)
    678e:	74 22                	je     67b2 <transparent_crc_bytes+0x71>
    6790:	8b 05 8a 48 01 00    	mov    0x1488a(%rip),%eax        # 1b020 <crc32_context>
    6796:	f7 d0                	not    %eax
    6798:	89 c2                	mov    %eax,%edx
    679a:	48 8b 45 d8          	mov    -0x28(%rbp),%rax
    679e:	48 89 c6             	mov    %rax,%rsi
    67a1:	48 8d 3d 88 f8 00 00 	lea    0xf888(%rip),%rdi        # 16030 <_IO_stdin_used+0x30>
    67a8:	b8 00 00 00 00       	mov    $0x0,%eax
    67ad:	e8 ce e8 ff ff       	callq  5080 <printf@plt>
    67b2:	90                   	nop
    67b3:	c9                   	leaveq 
    67b4:	c3                   	retq   

00000000000067b5 <func_1>:
    67b5:	f3 0f 1e fa          	endbr64 
    67b9:	55                   	push   %rbp
    67ba:	48 89 e5             	mov    %rsp,%rbp
    67bd:	48 81 ec f0 01 00 00 	sub    $0x1f0,%rsp
    67c4:	64 48 8b 04 25 28 00 	mov    %fs:0x28,%rax
    67cb:	00 00 
    67cd:	48 89 45 f8          	mov    %rax,-0x8(%rbp)
    67d1:	31 c0                	xor    %eax,%eax
    67d3:	48 c7 85 28 fe ff ff 	movq   $0x0,-0x1d8(%rbp)
    67da:	00 00 00 00 
    67de:	48 8d 05 50 48 01 00 	lea    0x14850(%rip),%rax        # 1b035 <g_23+0x5>
    67e5:	48 89 85 30 fe ff ff 	mov    %rax,-0x1d0(%rbp)
    67ec:	c7 85 1c fe ff ff ff 	movl   $0xffffffff,-0x1e4(%rbp)
    67f3:	ff ff ff 
    67f6:	48 8d 05 8b 4a 01 00 	lea    0x14a8b(%rip),%rax        # 1b288 <g_370>
    67fd:	48 89 85 38 fe ff ff 	mov    %rax,-0x1c8(%rbp)
    6804:	c7 85 20 fe ff ff ba 	movl   $0x85e7c7ba,-0x1e0(%rbp)
    680b:	c7 e7 85 
    680e:	48 c7 85 40 fe ff ff 	movq   $0x0,-0x1c0(%rbp)
    6815:	00 00 00 00 
    6819:	48 8d 85 60 fe ff ff 	lea    -0x1a0(%rbp),%rax
    6820:	48 8d 15 39 fc 00 00 	lea    0xfc39(%rip),%rdx        # 16460 <g_1383+0xc>
    6827:	b9 32 00 00 00       	mov    $0x32,%ecx
    682c:	48 89 c7             	mov    %rax,%rdi
    682f:	48 89 d6             	mov    %rdx,%rsi
    6832:	f3 48 a5             	rep movsq %ds:(%rsi),%es:(%rdi)
    6835:	48 8d 05 fc 5e 01 00 	lea    0x15efc(%rip),%rax        # 1c738 <g_372+0x8>
    683c:	48 89 85 48 fe ff ff 	mov    %rax,-0x1b8(%rbp)
    6843:	48 8d 05 9e 5e 01 00 	lea    0x15e9e(%rip),%rax        # 1c6e8 <g_135>
    684a:	48 89 85 50 fe ff ff 	mov    %rax,-0x1b0(%rbp)
    6851:	48 8d 05 e0 71 01 00 	lea    0x171e0(%rip),%rax        # 1da38 <g_1587>
    6858:	48 89 85 58 fe ff ff 	mov    %rax,-0x1a8(%rbp)
    685f:	c7 85 24 fe ff ff da 	movl   $0x40cb50da,-0x1dc(%rbp)
    6866:	50 cb 40 
    6869:	48 8b 05 d8 4e 01 00 	mov    0x14ed8(%rip),%rax        # 1b748 <g_3052>
    6870:	48 8b 55 f8          	mov    -0x8(%rbp),%rdx
    6874:	64 48 33 14 25 28 00 	xor    %fs:0x28,%rdx
    687b:	00 00 
    687d:	74 05                	je     6884 <func_1+0xcf>
    687f:	e8 ec e7 ff ff       	callq  5070 <__stack_chk_fail@plt>
    6884:	c9                   	leaveq 
    6885:	c3                   	retq   

0000000000006886 <func_2>:
    6886:	f3 0f 1e fa          	endbr64 
    688a:	55                   	push   %rbp
    688b:	48 89 e5             	mov    %rsp,%rbp
    688e:	41 56                	push   %r14
    6890:	41 55                	push   %r13
    6892:	41 54                	push   %r12
    6894:	53                   	push   %rbx
    6895:	48 81 ec 00 10 00 00 	sub    $0x1000,%rsp
    689c:	48 83 0c 24 00       	orq    $0x0,(%rsp)
    68a1:	48 81 ec f0 05 00 00 	sub    $0x5f0,%rsp
    68a8:	48 89 bd f8 e9 ff ff 	mov    %rdi,-0x1608(%rbp)
    68af:	64 48 8b 04 25 28 00 	mov    %fs:0x28,%rax
    68b6:	00 00 
    68b8:	48 89 45 d8          	mov    %rax,-0x28(%rbp)
    68bc:	31 c0                	xor    %eax,%eax
    68be:	48 8d 05 93 47 01 00 	lea    0x14793(%rip),%rax        # 1b058 <g_84>
    68c5:	48 89 85 08 eb ff ff 	mov    %rax,-0x14f8(%rbp)
    68cc:	c7 85 1c ea ff ff 19 	movl   $0x9e58fa19,-0x15e4(%rbp)
    68d3:	fa 58 9e 
    68d6:	48 8d 85 1c ea ff ff 	lea    -0x15e4(%rbp),%rax
    68dd:	48 89 85 c0 ea ff ff 	mov    %rax,-0x1540(%rbp)
    68e4:	48 c7 85 60 ec ff ff 	movq   $0x0,-0x13a0(%rbp)
    68eb:	00 00 00 00 
    68ef:	48 c7 85 68 ec ff ff 	movq   $0x0,-0x1398(%rbp)
    68f6:	00 00 00 00 
    68fa:	48 c7 85 70 ec ff ff 	movq   $0x0,-0x1390(%rbp)
    6901:	00 00 00 00 
    6905:	48 c7 85 78 ec ff ff 	movq   $0x0,-0x1388(%rbp)
    690c:	00 00 00 00 
    6910:	c7 85 48 ea ff ff 03 	movl   $0x3,-0x15b8(%rbp)
    6917:	00 00 00 
    691a:	c7 85 4c ea ff ff 1c 	movl   $0x2bdc9e1c,-0x15b4(%rbp)
    6921:	9e dc 2b 
    6924:	48 8d 05 dd 70 01 00 	lea    0x170dd(%rip),%rax        # 1da08 <g_1009>
    692b:	48 89 85 90 ed ff ff 	mov    %rax,-0x1270(%rbp)
    6932:	48 8d 05 cf 70 01 00 	lea    0x170cf(%rip),%rax        # 1da08 <g_1009>
    6939:	48 89 85 98 ed ff ff 	mov    %rax,-0x1268(%rbp)
    6940:	48 8d 05 c1 70 01 00 	lea    0x170c1(%rip),%rax        # 1da08 <g_1009>
    6947:	48 89 85 a0 ed ff ff 	mov    %rax,-0x1260(%rbp)
    694e:	48 8d 05 b3 70 01 00 	lea    0x170b3(%rip),%rax        # 1da08 <g_1009>
    6955:	48 89 85 a8 ed ff ff 	mov    %rax,-0x1258(%rbp)
    695c:	48 8d 05 a5 70 01 00 	lea    0x170a5(%rip),%rax        # 1da08 <g_1009>
    6963:	48 89 85 b0 ed ff ff 	mov    %rax,-0x1250(%rbp)
    696a:	48 8d 05 97 70 01 00 	lea    0x17097(%rip),%rax        # 1da08 <g_1009>
    6971:	48 89 85 b8 ed ff ff 	mov    %rax,-0x1248(%rbp)
    6978:	48 8d 05 89 70 01 00 	lea    0x17089(%rip),%rax        # 1da08 <g_1009>
    697f:	48 89 85 c0 ed ff ff 	mov    %rax,-0x1240(%rbp)
    6986:	48 8d 05 7b 70 01 00 	lea    0x1707b(%rip),%rax        # 1da08 <g_1009>
    698d:	48 89 85 c8 ed ff ff 	mov    %rax,-0x1238(%rbp)
    6994:	48 8d 05 6d 70 01 00 	lea    0x1706d(%rip),%rax        # 1da08 <g_1009>
    699b:	48 89 85 d0 ed ff ff 	mov    %rax,-0x1230(%rbp)
    69a2:	48 8d 05 5f 70 01 00 	lea    0x1705f(%rip),%rax        # 1da08 <g_1009>
    69a9:	48 89 85 d8 ed ff ff 	mov    %rax,-0x1228(%rbp)
    69b0:	48 c7 85 10 eb ff ff 	movq   $0x0,-0x14f0(%rbp)
    69b7:	00 00 00 00 
    69bb:	48 c7 85 40 ed ff ff 	movq   $0x0,-0x12c0(%rbp)
    69c2:	00 00 00 00 
    69c6:	48 8d 05 6b 5d 01 00 	lea    0x15d6b(%rip),%rax        # 1c738 <g_372+0x8>
    69cd:	48 89 85 48 ed ff ff 	mov    %rax,-0x12b8(%rbp)
    69d4:	48 c7 85 50 ed ff ff 	movq   $0x0,-0x12b0(%rbp)
    69db:	00 00 00 00 
    69df:	48 8d 05 52 5d 01 00 	lea    0x15d52(%rip),%rax        # 1c738 <g_372+0x8>
    69e6:	48 89 85 58 ed ff ff 	mov    %rax,-0x12a8(%rbp)
    69ed:	48 c7 85 60 ed ff ff 	movq   $0x0,-0x12a0(%rbp)
    69f4:	00 00 00 00 
    69f8:	48 8d 05 39 5d 01 00 	lea    0x15d39(%rip),%rax        # 1c738 <g_372+0x8>
    69ff:	48 89 85 68 ed ff ff 	mov    %rax,-0x1298(%rbp)
    6a06:	48 c7 85 70 ed ff ff 	movq   $0x0,-0x1290(%rbp)
    6a0d:	00 00 00 00 
    6a11:	48 8d 05 20 5d 01 00 	lea    0x15d20(%rip),%rax        # 1c738 <g_372+0x8>
    6a18:	48 89 85 78 ed ff ff 	mov    %rax,-0x1288(%rbp)
    6a1f:	48 c7 85 80 ed ff ff 	movq   $0x0,-0x1280(%rbp)
    6a26:	00 00 00 00 
    6a2a:	48 8d 85 1c ea ff ff 	lea    -0x15e4(%rbp),%rax
    6a31:	48 89 85 18 eb ff ff 	mov    %rax,-0x14e8(%rbp)
    6a38:	48 8d 05 71 49 01 00 	lea    0x14971(%rip),%rax        # 1b3b0 <g_922>
    6a3f:	48 89 85 c8 ea ff ff 	mov    %rax,-0x1538(%rbp)
    6a46:	48 8d 05 cb 46 01 00 	lea    0x146cb(%rip),%rax        # 1b118 <g_88+0x98>
    6a4d:	48 89 85 20 eb ff ff 	mov    %rax,-0x14e0(%rbp)
    6a54:	48 8d 05 35 60 01 00 	lea    0x16035(%rip),%rax        # 1ca90 <g_803>
    6a5b:	48 89 85 28 eb ff ff 	mov    %rax,-0x14d8(%rbp)
    6a62:	48 8d 05 6f 49 01 00 	lea    0x1496f(%rip),%rax        # 1b3d8 <g_1131>
    6a69:	48 89 85 d0 ea ff ff 	mov    %rax,-0x1530(%rbp)
    6a70:	c7 85 70 f0 ff ff 78 	movl   $0xf70cc978,-0xf90(%rbp)
    6a77:	c9 0c f7 
    6a7a:	c7 85 74 f0 ff ff 78 	movl   $0xf70cc978,-0xf8c(%rbp)
    6a81:	c9 0c f7 
    6a84:	c7 85 78 f0 ff ff 78 	movl   $0xf70cc978,-0xf88(%rbp)
    6a8b:	c9 0c f7 
    6a8e:	c7 85 7c f0 ff ff 00 	movl   $0x0,-0xf84(%rbp)
    6a95:	00 00 00 
    6a98:	c7 85 80 f0 ff ff 00 	movl   $0x0,-0xf80(%rbp)
    6a9f:	00 00 00 
    6aa2:	c7 85 84 f0 ff ff 00 	movl   $0x0,-0xf7c(%rbp)
    6aa9:	00 00 00 
    6aac:	c7 85 88 f0 ff ff 78 	movl   $0xf70cc978,-0xf78(%rbp)
    6ab3:	c9 0c f7 
    6ab6:	c7 85 8c f0 ff ff 78 	movl   $0xf70cc978,-0xf74(%rbp)
    6abd:	c9 0c f7 
    6ac0:	c7 85 90 f0 ff ff 78 	movl   $0xf70cc978,-0xf70(%rbp)
    6ac7:	c9 0c f7 
    6aca:	c7 85 94 f0 ff ff 00 	movl   $0x0,-0xf6c(%rbp)
    6ad1:	00 00 00 
    6ad4:	c7 85 98 f0 ff ff 00 	movl   $0x0,-0xf68(%rbp)
    6adb:	00 00 00 
    6ade:	c7 85 9c f0 ff ff 00 	movl   $0x0,-0xf64(%rbp)
    6ae5:	00 00 00 
    6ae8:	c7 85 a0 f0 ff ff 78 	movl   $0xf70cc978,-0xf60(%rbp)
    6aef:	c9 0c f7 
    6af2:	c7 85 a4 f0 ff ff 78 	movl   $0xf70cc978,-0xf5c(%rbp)
    6af9:	c9 0c f7 
    6afc:	c7 85 a8 f0 ff ff 78 	movl   $0xf70cc978,-0xf58(%rbp)
    6b03:	c9 0c f7 
    6b06:	c7 85 ac f0 ff ff 00 	movl   $0x0,-0xf54(%rbp)
    6b0d:	00 00 00 
    6b10:	c7 85 b0 f0 ff ff 00 	movl   $0x0,-0xf50(%rbp)
    6b17:	00 00 00 
    6b1a:	c7 85 b4 f0 ff ff 00 	movl   $0x0,-0xf4c(%rbp)
    6b21:	00 00 00 
    6b24:	c7 85 b8 f0 ff ff 78 	movl   $0xf70cc978,-0xf48(%rbp)
    6b2b:	c9 0c f7 
    6b2e:	c7 85 bc f0 ff ff 78 	movl   $0xf70cc978,-0xf44(%rbp)
    6b35:	c9 0c f7 
    6b38:	c7 85 c0 f0 ff ff 78 	movl   $0xf70cc978,-0xf40(%rbp)
    6b3f:	c9 0c f7 
    6b42:	c7 85 c4 f0 ff ff 00 	movl   $0x0,-0xf3c(%rbp)
    6b49:	00 00 00 
    6b4c:	c7 85 c8 f0 ff ff 00 	movl   $0x0,-0xf38(%rbp)
    6b53:	00 00 00 
    6b56:	c7 85 cc f0 ff ff 00 	movl   $0x0,-0xf34(%rbp)
    6b5d:	00 00 00 
    6b60:	c7 85 d0 f0 ff ff 78 	movl   $0xf70cc978,-0xf30(%rbp)
    6b67:	c9 0c f7 
    6b6a:	c7 85 d4 f0 ff ff 78 	movl   $0xf70cc978,-0xf2c(%rbp)
    6b71:	c9 0c f7 
    6b74:	c7 85 d8 f0 ff ff 78 	movl   $0xf70cc978,-0xf28(%rbp)
    6b7b:	c9 0c f7 
    6b7e:	c7 85 dc f0 ff ff 00 	movl   $0x0,-0xf24(%rbp)
    6b85:	00 00 00 
    6b88:	c7 85 e0 f0 ff ff 00 	movl   $0x0,-0xf20(%rbp)
    6b8f:	00 00 00 
    6b92:	c7 85 e4 f0 ff ff 00 	movl   $0x0,-0xf1c(%rbp)
    6b99:	00 00 00 
    6b9c:	c7 85 e8 f0 ff ff 78 	movl   $0xf70cc978,-0xf18(%rbp)
    6ba3:	c9 0c f7 
    6ba6:	c7 85 ec f0 ff ff 78 	movl   $0xf70cc978,-0xf14(%rbp)
    6bad:	c9 0c f7 
    6bb0:	c7 85 f0 f0 ff ff 78 	movl   $0xf70cc978,-0xf10(%rbp)
    6bb7:	c9 0c f7 
    6bba:	c7 85 f4 f0 ff ff 00 	movl   $0x0,-0xf0c(%rbp)
    6bc1:	00 00 00 
    6bc4:	c7 85 f8 f0 ff ff 00 	movl   $0x0,-0xf08(%rbp)
    6bcb:	00 00 00 
    6bce:	c7 85 fc f0 ff ff 00 	movl   $0x0,-0xf04(%rbp)
    6bd5:	00 00 00 
    6bd8:	c7 85 00 f1 ff ff 78 	movl   $0xf70cc978,-0xf00(%rbp)
    6bdf:	c9 0c f7 
    6be2:	c7 85 04 f1 ff ff 78 	movl   $0xf70cc978,-0xefc(%rbp)
    6be9:	c9 0c f7 
    6bec:	c7 85 08 f1 ff ff 78 	movl   $0xf70cc978,-0xef8(%rbp)
    6bf3:	c9 0c f7 
    6bf6:	c7 85 0c f1 ff ff 00 	movl   $0x0,-0xef4(%rbp)
    6bfd:	00 00 00 
    6c00:	c7 85 10 f1 ff ff 00 	movl   $0x0,-0xef0(%rbp)
    6c07:	00 00 00 
    6c0a:	c7 85 14 f1 ff ff 00 	movl   $0x0,-0xeec(%rbp)
    6c11:	00 00 00 
    6c14:	c7 85 18 f1 ff ff 78 	movl   $0xf70cc978,-0xee8(%rbp)
    6c1b:	c9 0c f7 
    6c1e:	c7 85 1c f1 ff ff 78 	movl   $0xf70cc978,-0xee4(%rbp)
    6c25:	c9 0c f7 
    6c28:	c7 85 20 f1 ff ff 78 	movl   $0xf70cc978,-0xee0(%rbp)
    6c2f:	c9 0c f7 
    6c32:	c7 85 24 f1 ff ff 00 	movl   $0x0,-0xedc(%rbp)
    6c39:	00 00 00 
    6c3c:	c7 85 28 f1 ff ff 00 	movl   $0x0,-0xed8(%rbp)
    6c43:	00 00 00 
    6c46:	c7 85 2c f1 ff ff 00 	movl   $0x0,-0xed4(%rbp)
    6c4d:	00 00 00 
    6c50:	c7 85 30 f1 ff ff 78 	movl   $0xf70cc978,-0xed0(%rbp)
    6c57:	c9 0c f7 
    6c5a:	c7 85 34 f1 ff ff 78 	movl   $0xf70cc978,-0xecc(%rbp)
    6c61:	c9 0c f7 
    6c64:	c7 85 38 f1 ff ff 78 	movl   $0xf70cc978,-0xec8(%rbp)
    6c6b:	c9 0c f7 
    6c6e:	c7 85 3c f1 ff ff 00 	movl   $0x0,-0xec4(%rbp)
    6c75:	00 00 00 
    6c78:	c7 85 40 f1 ff ff 00 	movl   $0x0,-0xec0(%rbp)
    6c7f:	00 00 00 
    6c82:	c7 85 44 f1 ff ff 00 	movl   $0x0,-0xebc(%rbp)
    6c89:	00 00 00 
    6c8c:	c7 85 48 f1 ff ff 78 	movl   $0xf70cc978,-0xeb8(%rbp)
    6c93:	c9 0c f7 
    6c96:	c7 85 4c f1 ff ff 78 	movl   $0xf70cc978,-0xeb4(%rbp)
    6c9d:	c9 0c f7 
    6ca0:	c7 85 50 f1 ff ff 78 	movl   $0xf70cc978,-0xeb0(%rbp)
    6ca7:	c9 0c f7 
    6caa:	c7 85 54 f1 ff ff 00 	movl   $0x0,-0xeac(%rbp)
    6cb1:	00 00 00 
    6cb4:	c7 85 58 f1 ff ff 00 	movl   $0x0,-0xea8(%rbp)
    6cbb:	00 00 00 
    6cbe:	c7 85 5c f1 ff ff 00 	movl   $0x0,-0xea4(%rbp)
    6cc5:	00 00 00 
    6cc8:	c6 85 0c ea ff ff 74 	movb   $0x74,-0x15f4(%rbp)
    6ccf:	c7 85 50 ea ff ff 01 	movl   $0x1,-0x15b0(%rbp)
    6cd6:	00 00 00 
    6cd9:	c7 85 54 ea ff ff 05 	movl   $0xb83bc405,-0x15ac(%rbp)
    6ce0:	c4 3b b8 
    6ce3:	48 8d 85 10 f7 ff ff 	lea    -0x8f0(%rbp),%rax
    6cea:	48 8d 15 6f 4a 01 00 	lea    0x14a6f(%rip),%rdx        # 1b760 <g_3052+0x18>
    6cf1:	b9 38 00 00 00       	mov    $0x38,%ecx
    6cf6:	48 89 c7             	mov    %rax,%rdi
    6cf9:	48 89 d6             	mov    %rdx,%rsi
    6cfc:	f3 48 a5             	rep movsq %ds:(%rsi),%es:(%rdi)
    6cff:	48 8d 85 c0 ea ff ff 	lea    -0x1540(%rbp),%rax
    6d06:	48 89 85 80 ec ff ff 	mov    %rax,-0x1380(%rbp)
    6d0d:	48 8d 85 c0 ea ff ff 	lea    -0x1540(%rbp),%rax
    6d14:	48 89 85 88 ec ff ff 	mov    %rax,-0x1378(%rbp)
    6d1b:	48 8d 85 c0 ea ff ff 	lea    -0x1540(%rbp),%rax
    6d22:	48 89 85 90 ec ff ff 	mov    %rax,-0x1370(%rbp)
    6d29:	48 8d 85 c0 ea ff ff 	lea    -0x1540(%rbp),%rax
    6d30:	48 89 85 98 ec ff ff 	mov    %rax,-0x1368(%rbp)
    6d37:	c7 85 58 ea ff ff cb 	movl   $0x218dbacb,-0x15a8(%rbp)
    6d3e:	ba 8d 21 
    6d41:	c7 85 5c ea ff ff 8e 	movl   $0x83727a8e,-0x15a4(%rbp)
    6d48:	7a 72 83 
    6d4b:	48 8d 05 be 59 01 00 	lea    0x159be(%rip),%rax        # 1c710 <g_267+0x10>
    6d52:	48 89 85 d8 ea ff ff 	mov    %rax,-0x1528(%rbp)
    6d59:	48 8d 85 d8 ea ff ff 	lea    -0x1528(%rbp),%rax
    6d60:	48 89 85 30 eb ff ff 	mov    %rax,-0x14d0(%rbp)
    6d67:	83 ad 4c ea ff ff 01 	subl   $0x1,-0x15b4(%rbp)
    6d6e:	48 8d 85 1c ea ff ff 	lea    -0x15e4(%rbp),%rax
    6d75:	48 89 85 18 eb ff ff 	mov    %rax,-0x14e8(%rbp)
    6d7c:	0f b6 05 15 47 01 00 	movzbl 0x14715(%rip),%eax        # 1b498 <g_2519>
    6d83:	48 0f be d8          	movsbq %al,%rbx
    6d87:	48 8b 85 c0 ea ff ff 	mov    -0x1540(%rbp),%rax
    6d8e:	8b 10                	mov    (%rax),%edx
    6d90:	48 8b 85 c8 ea ff ff 	mov    -0x1538(%rbp),%rax
    6d97:	48 63 d2             	movslq %edx,%rdx
    6d9a:	48 89 10             	mov    %rdx,(%rax)
    6d9d:	4c 8b 20             	mov    (%rax),%r12
    6da0:	48 8b 05 51 5d 01 00 	mov    0x15d51(%rip),%rax        # 1caf8 <g_1259>
    6da7:	48 8b 00             	mov    (%rax),%rax
    6daa:	48 85 c0             	test   %rax,%rax
    6dad:	0f 94 c0             	sete   %al
    6db0:	0f b6 c8             	movzbl %al,%ecx
    6db3:	48 8b 85 20 eb ff ff 	mov    -0x14e0(%rbp),%rax
    6dba:	48 8b 10             	mov    (%rax),%rdx
    6dbd:	48 63 c1             	movslq %ecx,%rax
    6dc0:	48 21 c2             	and    %rax,%rdx
    6dc3:	48 8b 85 20 eb ff ff 	mov    -0x14e0(%rbp),%rax
    6dca:	48 89 10             	mov    %rdx,(%rax)
    6dcd:	48 8b 85 20 eb ff ff 	mov    -0x14e0(%rbp),%rax
    6dd4:	48 8b 08             	mov    (%rax),%rcx
    6dd7:	48 8b 85 28 eb ff ff 	mov    -0x14d8(%rbp),%rax
    6dde:	48 8b 95 10 eb ff ff 	mov    -0x14f0(%rbp),%rdx
    6de5:	48 89 10             	mov    %rdx,(%rax)
    6de8:	48 8b 85 28 eb ff ff 	mov    -0x14d8(%rbp),%rax
    6def:	48 8b 00             	mov    (%rax),%rax
    6df2:	48 39 85 10 eb ff ff 	cmp    %rax,-0x14f0(%rbp)
    6df9:	0f 94 c0             	sete   %al
    6dfc:	0f b6 c0             	movzbl %al,%eax
    6dff:	48 39 c1             	cmp    %rax,%rcx
    6e02:	75 14                	jne    6e18 <func_2+0x592>
    6e04:	48 8b 85 08 eb ff ff 	mov    -0x14f8(%rbp),%rax
    6e0b:	8b 00                	mov    (%rax),%eax
    6e0d:	85 c0                	test   %eax,%eax
    6e0f:	74 07                	je     6e18 <func_2+0x592>
    6e11:	b8 01 00 00 00       	mov    $0x1,%eax
    6e16:	eb 05                	jmp    6e1d <func_2+0x597>
    6e18:	b8 00 00 00 00       	mov    $0x0,%eax
    6e1d:	83 f8 f5             	cmp    $0xfffffff5,%eax
    6e20:	0f 96 c0             	setbe  %al
    6e23:	0f b6 c0             	movzbl %al,%eax
    6e26:	be ff ff ff ff       	mov    $0xffffffff,%esi
    6e2b:	89 c7                	mov    %eax,%edi
    6e2d:	e8 e4 e5 ff ff       	callq  5416 <safe_mod_func_int16_t_s_s>
    6e32:	48 0f bf c0          	movswq %ax,%rax
    6e36:	4c 89 e2             	mov    %r12,%rdx
    6e39:	48 09 c2             	or     %rax,%rdx
    6e3c:	48 8b 85 c0 ea ff ff 	mov    -0x1540(%rbp),%rax
    6e43:	8b 00                	mov    (%rax),%eax
    6e45:	48 98                	cltq   
    6e47:	48 31 d0             	xor    %rdx,%rax
    6e4a:	48 89 de             	mov    %rbx,%rsi
    6e4d:	48 89 c7             	mov    %rax,%rdi
    6e50:	e8 f6 f1 ff ff       	callq  604b <safe_sub_func_uint64_t_u_u>
    6e55:	0f be c0             	movsbl %al,%eax
    6e58:	be 02 00 00 00       	mov    $0x2,%esi
    6e5d:	89 c7                	mov    %eax,%edi
    6e5f:	e8 d1 e4 ff ff       	callq  5335 <safe_rshift_func_int8_t_s_s>
    6e64:	be 00 00 00 00       	mov    $0x0,%esi
    6e69:	48 bf 1b 8d 74 76 c7 	movabs $0x1b1a18c776748d1b,%rdi
    6e70:	18 1a 1b 
    6e73:	e8 b6 f1 ff ff       	callq  602e <safe_add_func_uint64_t_u_u>
    6e78:	48 8b 95 18 eb ff ff 	mov    -0x14e8(%rbp),%rdx
    6e7f:	8b 12                	mov    (%rdx),%edx
    6e81:	48 63 d2             	movslq %edx,%rdx
    6e84:	48 39 d0             	cmp    %rdx,%rax
    6e87:	0f 82 0d 03 00 00    	jb     719a <func_2+0x914>
    6e8d:	48 c7 85 d0 f8 ff ff 	movq   $0x0,-0x730(%rbp)
    6e94:	00 00 00 00 
    6e98:	48 8d 05 39 45 01 00 	lea    0x14539(%rip),%rax        # 1b3d8 <g_1131>
    6e9f:	48 89 85 d8 f8 ff ff 	mov    %rax,-0x728(%rbp)
    6ea6:	48 8d 05 2b 45 01 00 	lea    0x1452b(%rip),%rax        # 1b3d8 <g_1131>
    6ead:	48 89 85 e0 f8 ff ff 	mov    %rax,-0x720(%rbp)
    6eb4:	48 c7 85 e8 f8 ff ff 	movq   $0x0,-0x718(%rbp)
    6ebb:	00 00 00 00 
    6ebf:	48 8d 05 24 45 01 00 	lea    0x14524(%rip),%rax        # 1b3ea <g_1135+0xa>
    6ec6:	48 89 85 f0 f8 ff ff 	mov    %rax,-0x710(%rbp)
    6ecd:	48 c7 85 f8 f8 ff ff 	movq   $0x0,-0x708(%rbp)
    6ed4:	00 00 00 00 
    6ed8:	48 8d 05 f9 44 01 00 	lea    0x144f9(%rip),%rax        # 1b3d8 <g_1131>
    6edf:	48 89 85 00 f9 ff ff 	mov    %rax,-0x700(%rbp)
    6ee6:	48 8d 05 eb 44 01 00 	lea    0x144eb(%rip),%rax        # 1b3d8 <g_1131>
    6eed:	48 89 85 08 f9 ff ff 	mov    %rax,-0x6f8(%rbp)
    6ef4:	48 c7 85 10 f9 ff ff 	movq   $0x0,-0x6f0(%rbp)
    6efb:	00 00 00 00 
    6eff:	48 8d 05 e4 44 01 00 	lea    0x144e4(%rip),%rax        # 1b3ea <g_1135+0xa>
    6f06:	48 89 85 18 f9 ff ff 	mov    %rax,-0x6e8(%rbp)
    6f0d:	48 c7 85 20 f9 ff ff 	movq   $0x0,-0x6e0(%rbp)
    6f14:	00 00 00 00 
    6f18:	48 8d 05 b9 44 01 00 	lea    0x144b9(%rip),%rax        # 1b3d8 <g_1131>
    6f1f:	48 89 85 28 f9 ff ff 	mov    %rax,-0x6d8(%rbp)
    6f26:	48 8d 05 ab 44 01 00 	lea    0x144ab(%rip),%rax        # 1b3d8 <g_1131>
    6f2d:	48 89 85 30 f9 ff ff 	mov    %rax,-0x6d0(%rbp)
    6f34:	48 c7 85 38 f9 ff ff 	movq   $0x0,-0x6c8(%rbp)
    6f3b:	00 00 00 00 
    6f3f:	48 8d 05 a4 44 01 00 	lea    0x144a4(%rip),%rax        # 1b3ea <g_1135+0xa>
    6f46:	48 89 85 40 f9 ff ff 	mov    %rax,-0x6c0(%rbp)
    6f4d:	48 c7 85 48 f9 ff ff 	movq   $0x0,-0x6b8(%rbp)
    6f54:	00 00 00 00 
    6f58:	48 8d 05 79 44 01 00 	lea    0x14479(%rip),%rax        # 1b3d8 <g_1131>
    6f5f:	48 89 85 50 f9 ff ff 	mov    %rax,-0x6b0(%rbp)
    6f66:	48 8d 05 6b 44 01 00 	lea    0x1446b(%rip),%rax        # 1b3d8 <g_1131>
    6f6d:	48 89 85 58 f9 ff ff 	mov    %rax,-0x6a8(%rbp)
    6f74:	48 c7 85 60 f9 ff ff 	movq   $0x0,-0x6a0(%rbp)
    6f7b:	00 00 00 00 
    6f7f:	48 8d 05 64 44 01 00 	lea    0x14464(%rip),%rax        # 1b3ea <g_1135+0xa>
    6f86:	48 89 85 68 f9 ff ff 	mov    %rax,-0x698(%rbp)
    6f8d:	48 c7 85 70 f9 ff ff 	movq   $0x0,-0x690(%rbp)
    6f94:	00 00 00 00 
    6f98:	48 8d 05 39 44 01 00 	lea    0x14439(%rip),%rax        # 1b3d8 <g_1131>
    6f9f:	48 89 85 78 f9 ff ff 	mov    %rax,-0x688(%rbp)
    6fa6:	48 8d 05 2b 44 01 00 	lea    0x1442b(%rip),%rax        # 1b3d8 <g_1131>
    6fad:	48 89 85 80 f9 ff ff 	mov    %rax,-0x680(%rbp)
    6fb4:	48 c7 85 88 f9 ff ff 	movq   $0x0,-0x678(%rbp)
    6fbb:	00 00 00 00 
    6fbf:	48 8d 05 24 44 01 00 	lea    0x14424(%rip),%rax        # 1b3ea <g_1135+0xa>
    6fc6:	48 89 85 90 f9 ff ff 	mov    %rax,-0x670(%rbp)
    6fcd:	c7 85 60 f5 ff ff ff 	movl   $0xffffffff,-0xaa0(%rbp)
    6fd4:	ff ff ff 
    6fd7:	c7 85 64 f5 ff ff ff 	movl   $0xffffffff,-0xa9c(%rbp)
    6fde:	ff ff ff 
    6fe1:	c7 85 68 f5 ff ff ff 	movl   $0xffffffff,-0xa98(%rbp)
    6fe8:	ff ff ff 
    6feb:	c7 85 6c f5 ff ff 09 	movl   $0x9,-0xa94(%rbp)
    6ff2:	00 00 00 
    6ff5:	c7 85 70 f5 ff ff 09 	movl   $0x9,-0xa90(%rbp)
    6ffc:	00 00 00 
    6fff:	c7 85 74 f5 ff ff 09 	movl   $0x9,-0xa8c(%rbp)
    7006:	00 00 00 
    7009:	48 8d 05 d0 5a 01 00 	lea    0x15ad0(%rip),%rax        # 1cae0 <g_1257>
    7010:	48 89 85 30 ec ff ff 	mov    %rax,-0x13d0(%rbp)
    7017:	48 8d 05 02 44 01 00 	lea    0x14402(%rip),%rax        # 1b420 <g_1202>
    701e:	48 89 85 38 ec ff ff 	mov    %rax,-0x13c8(%rbp)
    7025:	c7 85 b4 ea ff ff fe 	movl   $0xfffffffe,-0x154c(%rbp)
    702c:	ff ff ff 
    702f:	c7 85 b8 ea ff ff 73 	movl   $0xb3fb6173,-0x1548(%rbp)
    7036:	61 fb b3 
    7039:	c7 85 bc ea ff ff fa 	movl   $0xfffffffa,-0x1544(%rbp)
    7040:	ff ff ff 
    7043:	8b 9d b4 ea ff ff    	mov    -0x154c(%rbp),%ebx
    7049:	48 83 bd 30 ec ff ff 	cmpq   $0x0,-0x13d0(%rbp)
    7050:	00 
    7051:	0f 95 c0             	setne  %al
    7054:	44 0f b6 e0          	movzbl %al,%r12d
    7058:	48 8b 85 18 eb ff ff 	mov    -0x14e8(%rbp),%rax
    705f:	8b 00                	mov    (%rax),%eax
    7061:	48 63 d0             	movslq %eax,%rdx
    7064:	8b 0d 5e 43 01 00    	mov    0x1435e(%rip),%ecx        # 1b3c8 <g_975>
    706a:	48 8b 85 c8 ea ff ff 	mov    -0x1538(%rbp),%rax
    7071:	48 8b 30             	mov    (%rax),%rsi
    7074:	48 63 c9             	movslq %ecx,%rcx
    7077:	48 8b 85 c8 ea ff ff 	mov    -0x1538(%rbp),%rax
    707e:	48 21 f1             	and    %rsi,%rcx
    7081:	48 89 08             	mov    %rcx,(%rax)
    7084:	48 8b 00             	mov    (%rax),%rax
    7087:	48 89 d6             	mov    %rdx,%rsi
    708a:	48 89 c7             	mov    %rax,%rdi
    708d:	e8 65 e9 ff ff       	callq  59f7 <safe_div_func_int64_t_s_s>
    7092:	8b 85 68 f5 ff ff    	mov    -0xa98(%rbp),%eax
    7098:	34 f2                	xor    $0xf2,%al
    709a:	89 c2                	mov    %eax,%edx
    709c:	8b 85 70 f5 ff ff    	mov    -0xa90(%rbp),%eax
    70a2:	09 c2                	or     %eax,%edx
    70a4:	8b 85 68 f5 ff ff    	mov    -0xa98(%rbp),%eax
    70aa:	39 c2                	cmp    %eax,%edx
    70ac:	0f 9e c0             	setle  %al
    70af:	0f b6 c0             	movzbl %al,%eax
    70b2:	48 be 5e b8 fc 87 08 	movabs $0x5519aa0887fcb85e,%rsi
    70b9:	aa 19 55 
    70bc:	48 89 c7             	mov    %rax,%rdi
    70bf:	e8 7d e7 ff ff       	callq  5841 <safe_add_func_int64_t_s_s>
    70c4:	48 8b 95 18 eb ff ff 	mov    -0x14e8(%rbp),%rdx
    70cb:	8b 12                	mov    (%rdx),%edx
    70cd:	48 63 d2             	movslq %edx,%rdx
    70d0:	48 39 d0             	cmp    %rdx,%rax
    70d3:	0f 9e c0             	setle  %al
    70d6:	89 c2                	mov    %eax,%edx
    70d8:	48 8b 85 38 ec ff ff 	mov    -0x13c8(%rbp),%rax
    70df:	88 10                	mov    %dl,(%rax)
    70e1:	48 8b 85 38 ec ff ff 	mov    -0x13c8(%rbp),%rax
    70e8:	0f b6 00             	movzbl (%rax),%eax
    70eb:	0f b6 c0             	movzbl %al,%eax
    70ee:	41 39 c4             	cmp    %eax,%r12d
    70f1:	0f 9f c0             	setg   %al
    70f4:	0f b6 c0             	movzbl %al,%eax
    70f7:	48 89 de             	mov    %rbx,%rsi
    70fa:	48 89 c7             	mov    %rax,%rdi
    70fd:	e8 49 ef ff ff       	callq  604b <safe_sub_func_uint64_t_u_u>
    7102:	98                   	cwtl   
    7103:	be 41 bf ff ff       	mov    $0xffffbf41,%esi
    7108:	89 c7                	mov    %eax,%edi
    710a:	e8 e6 e2 ff ff       	callq  53f5 <safe_mul_func_int16_t_s_s>
    710f:	89 c2                	mov    %eax,%edx
    7111:	8b 85 68 f5 ff ff    	mov    -0xa98(%rbp),%eax
    7117:	0f bf d2             	movswl %dx,%edx
    711a:	21 95 b8 ea ff ff    	and    %edx,-0x1548(%rbp)
    7120:	39 85 b8 ea ff ff    	cmp    %eax,-0x1548(%rbp)
    7126:	8b 85 50 f1 ff ff    	mov    -0xeb0(%rbp),%eax
    712c:	0f b6 c0             	movzbl %al,%eax
    712f:	be ff 00 00 00       	mov    $0xff,%esi
    7134:	89 c7                	mov    %eax,%edi
    7136:	e8 a0 ea ff ff       	callq  5bdb <safe_div_func_uint8_t_u_u>
    713b:	0f b6 d0             	movzbl %al,%edx
    713e:	48 8b b5 68 f9 ff ff 	mov    -0x698(%rbp),%rsi
    7145:	48 8b 05 94 59 01 00 	mov    0x15994(%rip),%rax        # 1cae0 <g_1257>
    714c:	48 8b 00             	mov    (%rax),%rax
    714f:	48 8b 8d d0 ea ff ff 	mov    -0x1530(%rbp),%rcx
    7156:	48 89 08             	mov    %rcx,(%rax)
    7159:	48 8b 00             	mov    (%rax),%rax
    715c:	48 39 c6             	cmp    %rax,%rsi
    715f:	0f 94 c0             	sete   %al
    7162:	0f b6 c0             	movzbl %al,%eax
    7165:	89 d6                	mov    %edx,%esi
    7167:	89 c7                	mov    %eax,%edi
    7169:	e8 b7 ed ff ff       	callq  5f25 <safe_div_func_uint32_t_u_u>
    716e:	89 c2                	mov    %eax,%edx
    7170:	8b 85 60 f5 ff ff    	mov    -0xaa0(%rbp),%eax
    7176:	31 d0                	xor    %edx,%eax
    7178:	0f b6 c0             	movzbl %al,%eax
    717b:	be 05 00 00 00       	mov    $0x5,%esi
    7180:	89 c7                	mov    %eax,%edi
    7182:	e8 c5 ea ff ff       	callq  5c4c <safe_lshift_func_uint8_t_u_u>
    7187:	84 c0                	test   %al,%al
    7189:	0f 94 c0             	sete   %al
    718c:	0f b6 c0             	movzbl %al,%eax
    718f:	31 85 bc ea ff ff    	xor    %eax,-0x1544(%rbp)
    7195:	e9 a8 15 00 00       	jmpq   8742 <func_2+0x1ebc>
    719a:	66 c7 85 12 ea ff ff 	movw   $0x0,-0x15ee(%rbp)
    71a1:	00 00 
    71a3:	c7 85 20 ea ff ff 20 	movl   $0xb5798c20,-0x15e0(%rbp)
    71aa:	8c 79 b5 
    71ad:	c7 85 60 ea ff ff 00 	movl   $0x0,-0x15a0(%rbp)
    71b4:	00 00 00 
    71b7:	c7 85 24 ea ff ff 01 	movl   $0x1,-0x15dc(%rbp)
    71be:	00 00 00 
    71c1:	c7 85 64 ea ff ff 3e 	movl   $0x32ca5b3e,-0x159c(%rbp)
    71c8:	5b ca 32 
    71cb:	c7 85 68 ea ff ff 00 	movl   $0x0,-0x1598(%rbp)
    71d2:	00 00 00 
    71d5:	c7 85 30 ee ff ff a1 	movl   $0x76faf5a1,-0x11d0(%rbp)
    71dc:	f5 fa 76 
    71df:	c7 85 34 ee ff ff 08 	movl   $0x8,-0x11cc(%rbp)
    71e6:	00 00 00 
    71e9:	c7 85 38 ee ff ff a1 	movl   $0x76faf5a1,-0x11c8(%rbp)
    71f0:	f5 fa 76 
    71f3:	c7 85 3c ee ff ff 00 	movl   $0x0,-0x11c4(%rbp)
    71fa:	00 00 00 
    71fd:	c7 85 40 ee ff ff 00 	movl   $0x0,-0x11c0(%rbp)
    7204:	00 00 00 
    7207:	c7 85 44 ee ff ff a1 	movl   $0x76faf5a1,-0x11bc(%rbp)
    720e:	f5 fa 76 
    7211:	c7 85 48 ee ff ff 08 	movl   $0x8,-0x11b8(%rbp)
    7218:	00 00 00 
    721b:	c7 85 4c ee ff ff a1 	movl   $0x76faf5a1,-0x11b4(%rbp)
    7222:	f5 fa 76 
    7225:	c7 85 50 ee ff ff 00 	movl   $0x0,-0x11b0(%rbp)
    722c:	00 00 00 
    722f:	c7 85 54 ee ff ff 00 	movl   $0x0,-0x11ac(%rbp)
    7236:	00 00 00 
    7239:	c7 85 58 ee ff ff a1 	movl   $0x76faf5a1,-0x11a8(%rbp)
    7240:	f5 fa 76 
    7243:	c7 85 5c ee ff ff 08 	movl   $0x8,-0x11a4(%rbp)
    724a:	00 00 00 
    724d:	c7 85 60 ee ff ff a1 	movl   $0x76faf5a1,-0x11a0(%rbp)
    7254:	f5 fa 76 
    7257:	c7 85 64 ee ff ff 00 	movl   $0x0,-0x119c(%rbp)
    725e:	00 00 00 
    7261:	c7 85 68 ee ff ff 00 	movl   $0x0,-0x1198(%rbp)
    7268:	00 00 00 
    726b:	c7 85 6c ee ff ff a1 	movl   $0x76faf5a1,-0x1194(%rbp)
    7272:	f5 fa 76 
    7275:	c7 85 70 ee ff ff 08 	movl   $0x8,-0x1190(%rbp)
    727c:	00 00 00 
    727f:	c7 85 74 ee ff ff a1 	movl   $0x76faf5a1,-0x118c(%rbp)
    7286:	f5 fa 76 
    7289:	c7 85 78 ee ff ff 00 	movl   $0x0,-0x1188(%rbp)
    7290:	00 00 00 
    7293:	c7 85 7c ee ff ff 00 	movl   $0x0,-0x1184(%rbp)
    729a:	00 00 00 
    729d:	c7 85 80 ee ff ff a1 	movl   $0x76faf5a1,-0x1180(%rbp)
    72a4:	f5 fa 76 
    72a7:	c7 85 84 ee ff ff 08 	movl   $0x8,-0x117c(%rbp)
    72ae:	00 00 00 
    72b1:	c7 85 88 ee ff ff a1 	movl   $0x76faf5a1,-0x1178(%rbp)
    72b8:	f5 fa 76 
    72bb:	c7 85 8c ee ff ff 00 	movl   $0x0,-0x1174(%rbp)
    72c2:	00 00 00 
    72c5:	c7 85 90 ee ff ff 00 	movl   $0x0,-0x1170(%rbp)
    72cc:	00 00 00 
    72cf:	c7 85 94 ee ff ff a1 	movl   $0x76faf5a1,-0x116c(%rbp)
    72d6:	f5 fa 76 
    72d9:	c7 85 98 ee ff ff 08 	movl   $0x8,-0x1168(%rbp)
    72e0:	00 00 00 
    72e3:	c7 85 9c ee ff ff a1 	movl   $0x76faf5a1,-0x1164(%rbp)
    72ea:	f5 fa 76 
    72ed:	c7 85 a0 ee ff ff 00 	movl   $0x0,-0x1160(%rbp)
    72f4:	00 00 00 
    72f7:	c7 85 a4 ee ff ff 00 	movl   $0x0,-0x115c(%rbp)
    72fe:	00 00 00 
    7301:	c7 85 a8 ee ff ff a1 	movl   $0x76faf5a1,-0x1158(%rbp)
    7308:	f5 fa 76 
    730b:	c7 85 ac ee ff ff 08 	movl   $0x8,-0x1154(%rbp)
    7312:	00 00 00 
    7315:	c7 85 b0 ee ff ff a1 	movl   $0x76faf5a1,-0x1150(%rbp)
    731c:	f5 fa 76 
    731f:	c7 85 b4 ee ff ff 00 	movl   $0x0,-0x114c(%rbp)
    7326:	00 00 00 
    7329:	c7 85 b8 ee ff ff 00 	movl   $0x0,-0x1148(%rbp)
    7330:	00 00 00 
    7333:	c7 85 bc ee ff ff a1 	movl   $0x76faf5a1,-0x1144(%rbp)
    733a:	f5 fa 76 
    733d:	c7 85 c0 ee ff ff 08 	movl   $0x8,-0x1140(%rbp)
    7344:	00 00 00 
    7347:	c7 85 c4 ee ff ff a1 	movl   $0x76faf5a1,-0x113c(%rbp)
    734e:	f5 fa 76 
    7351:	c7 85 c8 ee ff ff 00 	movl   $0x0,-0x1138(%rbp)
    7358:	00 00 00 
    735b:	c7 85 cc ee ff ff 00 	movl   $0x0,-0x1134(%rbp)
    7362:	00 00 00 
    7365:	48 c7 85 d0 ec ff ff 	movq   $0x4,-0x1330(%rbp)
    736c:	04 00 00 00 
    7370:	48 c7 85 d8 ec ff ff 	movq   $0x4,-0x1328(%rbp)
    7377:	04 00 00 00 
    737b:	48 c7 85 e0 ec ff ff 	movq   $0x0,-0x1320(%rbp)
    7382:	00 00 00 00 
    7386:	48 c7 85 e8 ec ff ff 	movq   $0x4,-0x1318(%rbp)
    738d:	04 00 00 00 
    7391:	48 c7 85 f0 ec ff ff 	movq   $0x4,-0x1310(%rbp)
    7398:	04 00 00 00 
    739c:	48 c7 85 f8 ec ff ff 	movq   $0x0,-0x1308(%rbp)
    73a3:	00 00 00 00 
    73a7:	48 c7 85 38 eb ff ff 	movq   $0x0,-0x14c8(%rbp)
    73ae:	00 00 00 00 
    73b2:	48 8d 85 30 ee ff ff 	lea    -0x11d0(%rbp),%rax
    73b9:	48 83 c0 70          	add    $0x70,%rax
    73bd:	48 89 85 40 eb ff ff 	mov    %rax,-0x14c0(%rbp)
    73c4:	48 8d 85 40 ed ff ff 	lea    -0x12c0(%rbp),%rax
    73cb:	48 83 c0 18          	add    $0x18,%rax
    73cf:	48 89 85 60 f5 ff ff 	mov    %rax,-0xaa0(%rbp)
    73d6:	48 8d 85 40 ed ff ff 	lea    -0x12c0(%rbp),%rax
    73dd:	48 83 c0 38          	add    $0x38,%rax
    73e1:	48 89 85 68 f5 ff ff 	mov    %rax,-0xa98(%rbp)
    73e8:	48 8d 85 40 ed ff ff 	lea    -0x12c0(%rbp),%rax
    73ef:	48 83 c0 40          	add    $0x40,%rax
    73f3:	48 89 85 70 f5 ff ff 	mov    %rax,-0xa90(%rbp)
    73fa:	48 c7 85 78 f5 ff ff 	movq   $0x0,-0xa88(%rbp)
    7401:	00 00 00 00 
    7405:	48 8d 85 40 ed ff ff 	lea    -0x12c0(%rbp),%rax
    740c:	48 83 c0 08          	add    $0x8,%rax
    7410:	48 89 85 80 f5 ff ff 	mov    %rax,-0xa80(%rbp)
    7417:	48 8d 85 40 ed ff ff 	lea    -0x12c0(%rbp),%rax
    741e:	48 83 c0 08          	add    $0x8,%rax
    7422:	48 89 85 88 f5 ff ff 	mov    %rax,-0xa78(%rbp)
    7429:	48 8d 85 40 ed ff ff 	lea    -0x12c0(%rbp),%rax
    7430:	48 83 c0 40          	add    $0x40,%rax
    7434:	48 89 85 90 f5 ff ff 	mov    %rax,-0xa70(%rbp)
    743b:	48 8d 85 40 ed ff ff 	lea    -0x12c0(%rbp),%rax
    7442:	48 89 85 98 f5 ff ff 	mov    %rax,-0xa68(%rbp)
    7449:	48 8d 85 40 ed ff ff 	lea    -0x12c0(%rbp),%rax
    7450:	48 83 c0 38          	add    $0x38,%rax
    7454:	48 89 85 a0 f5 ff ff 	mov    %rax,-0xa60(%rbp)
    745b:	48 8d 85 40 ed ff ff 	lea    -0x12c0(%rbp),%rax
    7462:	48 83 c0 08          	add    $0x8,%rax
    7466:	48 89 85 a8 f5 ff ff 	mov    %rax,-0xa58(%rbp)
    746d:	48 8d 85 40 ed ff ff 	lea    -0x12c0(%rbp),%rax
    7474:	48 83 c0 08          	add    $0x8,%rax
    7478:	48 89 85 b0 f5 ff ff 	mov    %rax,-0xa50(%rbp)
    747f:	48 8d 85 40 ed ff ff 	lea    -0x12c0(%rbp),%rax
    7486:	48 83 c0 40          	add    $0x40,%rax
    748a:	48 89 85 b8 f5 ff ff 	mov    %rax,-0xa48(%rbp)
    7491:	48 8d 85 40 ed ff ff 	lea    -0x12c0(%rbp),%rax
    7498:	48 83 c0 08          	add    $0x8,%rax
    749c:	48 89 85 c0 f5 ff ff 	mov    %rax,-0xa40(%rbp)
    74a3:	48 8d 85 40 ed ff ff 	lea    -0x12c0(%rbp),%rax
    74aa:	48 83 c0 40          	add    $0x40,%rax
    74ae:	48 89 85 c8 f5 ff ff 	mov    %rax,-0xa38(%rbp)
    74b5:	48 8d 85 40 ed ff ff 	lea    -0x12c0(%rbp),%rax
    74bc:	48 83 c0 38          	add    $0x38,%rax
    74c0:	48 89 85 d0 f5 ff ff 	mov    %rax,-0xa30(%rbp)
    74c7:	48 8d 85 40 ed ff ff 	lea    -0x12c0(%rbp),%rax
    74ce:	48 83 c0 10          	add    $0x10,%rax
    74d2:	48 89 85 d8 f5 ff ff 	mov    %rax,-0xa28(%rbp)
    74d9:	48 8d 85 40 ed ff ff 	lea    -0x12c0(%rbp),%rax
    74e0:	48 83 c0 38          	add    $0x38,%rax
    74e4:	48 89 85 e0 f5 ff ff 	mov    %rax,-0xa20(%rbp)
    74eb:	48 8d 85 40 ed ff ff 	lea    -0x12c0(%rbp),%rax
    74f2:	48 83 c0 08          	add    $0x8,%rax
    74f6:	48 89 85 e8 f5 ff ff 	mov    %rax,-0xa18(%rbp)
    74fd:	48 8d 85 40 ed ff ff 	lea    -0x12c0(%rbp),%rax
    7504:	48 83 c0 08          	add    $0x8,%rax
    7508:	48 89 85 f0 f5 ff ff 	mov    %rax,-0xa10(%rbp)
    750f:	48 8d 85 40 ed ff ff 	lea    -0x12c0(%rbp),%rax
    7516:	48 83 c0 10          	add    $0x10,%rax
    751a:	48 89 85 f8 f5 ff ff 	mov    %rax,-0xa08(%rbp)
    7521:	48 8d 85 40 ed ff ff 	lea    -0x12c0(%rbp),%rax
    7528:	48 83 c0 40          	add    $0x40,%rax
    752c:	48 89 85 00 f6 ff ff 	mov    %rax,-0xa00(%rbp)
    7533:	48 8d 85 40 ed ff ff 	lea    -0x12c0(%rbp),%rax
    753a:	48 83 c0 08          	add    $0x8,%rax
    753e:	48 89 85 08 f6 ff ff 	mov    %rax,-0x9f8(%rbp)
    7545:	48 8d 85 40 ed ff ff 	lea    -0x12c0(%rbp),%rax
    754c:	48 83 c0 18          	add    $0x18,%rax
    7550:	48 89 85 10 f6 ff ff 	mov    %rax,-0x9f0(%rbp)
    7557:	48 8d 85 40 ed ff ff 	lea    -0x12c0(%rbp),%rax
    755e:	48 83 c0 08          	add    $0x8,%rax
    7562:	48 89 85 18 f6 ff ff 	mov    %rax,-0x9e8(%rbp)
    7569:	48 8d 85 40 ed ff ff 	lea    -0x12c0(%rbp),%rax
    7570:	48 83 c0 08          	add    $0x8,%rax
    7574:	48 89 85 20 f6 ff ff 	mov    %rax,-0x9e0(%rbp)
    757b:	48 8d 85 40 ed ff ff 	lea    -0x12c0(%rbp),%rax
    7582:	48 83 c0 18          	add    $0x18,%rax
    7586:	48 89 85 28 f6 ff ff 	mov    %rax,-0x9d8(%rbp)
    758d:	48 8d 85 40 ed ff ff 	lea    -0x12c0(%rbp),%rax
    7594:	48 83 c0 08          	add    $0x8,%rax
    7598:	48 89 85 30 f6 ff ff 	mov    %rax,-0x9d0(%rbp)
    759f:	48 8d 85 40 ed ff ff 	lea    -0x12c0(%rbp),%rax
    75a6:	48 83 c0 40          	add    $0x40,%rax
    75aa:	48 89 85 38 f6 ff ff 	mov    %rax,-0x9c8(%rbp)
    75b1:	48 8d 85 40 ed ff ff 	lea    -0x12c0(%rbp),%rax
    75b8:	48 83 c0 10          	add    $0x10,%rax
    75bc:	48 89 85 40 f6 ff ff 	mov    %rax,-0x9c0(%rbp)
    75c3:	48 8d 85 40 ed ff ff 	lea    -0x12c0(%rbp),%rax
    75ca:	48 83 c0 08          	add    $0x8,%rax
    75ce:	48 89 85 48 f6 ff ff 	mov    %rax,-0x9b8(%rbp)
    75d5:	48 8d 85 40 ed ff ff 	lea    -0x12c0(%rbp),%rax
    75dc:	48 83 c0 08          	add    $0x8,%rax
    75e0:	48 89 85 50 f6 ff ff 	mov    %rax,-0x9b0(%rbp)
    75e7:	48 8d 85 40 ed ff ff 	lea    -0x12c0(%rbp),%rax
    75ee:	48 83 c0 38          	add    $0x38,%rax
    75f2:	48 89 85 58 f6 ff ff 	mov    %rax,-0x9a8(%rbp)
    75f9:	48 8d 85 40 ed ff ff 	lea    -0x12c0(%rbp),%rax
    7600:	48 83 c0 10          	add    $0x10,%rax
    7604:	48 89 85 60 f6 ff ff 	mov    %rax,-0x9a0(%rbp)
    760b:	48 8d 85 40 ed ff ff 	lea    -0x12c0(%rbp),%rax
    7612:	48 83 c0 38          	add    $0x38,%rax
    7616:	48 89 85 68 f6 ff ff 	mov    %rax,-0x998(%rbp)
    761d:	48 8d 85 40 ed ff ff 	lea    -0x12c0(%rbp),%rax
    7624:	48 83 c0 40          	add    $0x40,%rax
    7628:	48 89 85 70 f6 ff ff 	mov    %rax,-0x990(%rbp)
    762f:	48 8d 85 40 ed ff ff 	lea    -0x12c0(%rbp),%rax
    7636:	48 83 c0 08          	add    $0x8,%rax
    763a:	48 89 85 78 f6 ff ff 	mov    %rax,-0x988(%rbp)
    7641:	48 8d 85 40 ed ff ff 	lea    -0x12c0(%rbp),%rax
    7648:	48 83 c0 40          	add    $0x40,%rax
    764c:	48 89 85 80 f6 ff ff 	mov    %rax,-0x980(%rbp)
    7653:	48 8d 85 40 ed ff ff 	lea    -0x12c0(%rbp),%rax
    765a:	48 83 c0 08          	add    $0x8,%rax
    765e:	48 89 85 88 f6 ff ff 	mov    %rax,-0x978(%rbp)
    7665:	48 8d 85 40 ed ff ff 	lea    -0x12c0(%rbp),%rax
    766c:	48 83 c0 08          	add    $0x8,%rax
    7670:	48 89 85 90 f6 ff ff 	mov    %rax,-0x970(%rbp)
    7677:	48 8d 85 40 ed ff ff 	lea    -0x12c0(%rbp),%rax
    767e:	48 83 c0 38          	add    $0x38,%rax
    7682:	48 89 85 98 f6 ff ff 	mov    %rax,-0x968(%rbp)
    7689:	48 8d 85 40 ed ff ff 	lea    -0x12c0(%rbp),%rax
    7690:	48 89 85 a0 f6 ff ff 	mov    %rax,-0x960(%rbp)
    7697:	48 8d 85 40 ed ff ff 	lea    -0x12c0(%rbp),%rax
    769e:	48 83 c0 40          	add    $0x40,%rax
    76a2:	48 89 85 a8 f6 ff ff 	mov    %rax,-0x958(%rbp)
    76a9:	48 8d 85 40 ed ff ff 	lea    -0x12c0(%rbp),%rax
    76b0:	48 83 c0 08          	add    $0x8,%rax
    76b4:	48 89 85 b0 f6 ff ff 	mov    %rax,-0x950(%rbp)
    76bb:	48 8d 85 40 ed ff ff 	lea    -0x12c0(%rbp),%rax
    76c2:	48 83 c0 08          	add    $0x8,%rax
    76c6:	48 89 85 b8 f6 ff ff 	mov    %rax,-0x948(%rbp)
    76cd:	48 c7 85 c0 f6 ff ff 	movq   $0x0,-0x940(%rbp)
    76d4:	00 00 00 00 
    76d8:	48 8d 85 40 ed ff ff 	lea    -0x12c0(%rbp),%rax
    76df:	48 83 c0 40          	add    $0x40,%rax
    76e3:	48 89 85 c8 f6 ff ff 	mov    %rax,-0x938(%rbp)
    76ea:	48 8d 85 40 ed ff ff 	lea    -0x12c0(%rbp),%rax
    76f1:	48 83 c0 38          	add    $0x38,%rax
    76f5:	48 89 85 d0 f6 ff ff 	mov    %rax,-0x930(%rbp)
    76fc:	48 8d 85 40 ed ff ff 	lea    -0x12c0(%rbp),%rax
    7703:	48 83 c0 38          	add    $0x38,%rax
    7707:	48 89 85 d8 f6 ff ff 	mov    %rax,-0x928(%rbp)
    770e:	48 8d 85 40 ed ff ff 	lea    -0x12c0(%rbp),%rax
    7715:	48 83 c0 08          	add    $0x8,%rax
    7719:	48 89 85 e0 f6 ff ff 	mov    %rax,-0x920(%rbp)
    7720:	48 8d 85 40 ed ff ff 	lea    -0x12c0(%rbp),%rax
    7727:	48 83 c0 38          	add    $0x38,%rax
    772b:	48 89 85 e8 f6 ff ff 	mov    %rax,-0x918(%rbp)
    7732:	48 8d 85 40 ed ff ff 	lea    -0x12c0(%rbp),%rax
    7739:	48 83 c0 38          	add    $0x38,%rax
    773d:	48 89 85 f0 f6 ff ff 	mov    %rax,-0x910(%rbp)
    7744:	48 8d 85 40 ed ff ff 	lea    -0x12c0(%rbp),%rax
    774b:	48 83 c0 08          	add    $0x8,%rax
    774f:	48 89 85 f8 f6 ff ff 	mov    %rax,-0x908(%rbp)
    7756:	48 8d 85 40 ed ff ff 	lea    -0x12c0(%rbp),%rax
    775d:	48 83 c0 08          	add    $0x8,%rax
    7761:	48 89 85 00 f7 ff ff 	mov    %rax,-0x900(%rbp)
    7768:	48 8d 85 40 ed ff ff 	lea    -0x12c0(%rbp),%rax
    776f:	48 83 c0 08          	add    $0x8,%rax
    7773:	48 89 85 08 f7 ff ff 	mov    %rax,-0x8f8(%rbp)
    777a:	c6 85 0d ea ff ff ff 	movb   $0xff,-0x15f3(%rbp)
    7781:	48 c7 85 48 eb ff ff 	movq   $0x0,-0x14b8(%rbp)
    7788:	00 00 00 00 
    778c:	c7 85 6c ea ff ff 01 	movl   $0x1,-0x1594(%rbp)
    7793:	00 00 00 
    7796:	66 c7 85 14 ea ff ff 	movw   $0xffff,-0x15ec(%rbp)
    779d:	ff ff 
    779f:	c7 85 70 ea ff ff 02 	movl   $0x2,-0x1590(%rbp)
    77a6:	00 00 00 
    77a9:	c7 85 28 ea ff ff 4c 	movl   $0x550cbd4c,-0x15d8(%rbp)
    77b0:	bd 0c 55 
    77b3:	48 c7 85 f8 ea ff ff 	movq   $0x0,-0x1508(%rbp)
    77ba:	00 00 00 00 
    77be:	48 c7 85 e0 ea ff ff 	movq   $0x0,-0x1520(%rbp)
    77c5:	00 00 00 00 
    77c9:	48 8d 85 e0 ea ff ff 	lea    -0x1520(%rbp),%rax
    77d0:	48 89 85 50 eb ff ff 	mov    %rax,-0x14b0(%rbp)
    77d7:	48 8d 85 c8 ea ff ff 	lea    -0x1538(%rbp),%rax
    77de:	48 89 85 58 eb ff ff 	mov    %rax,-0x14a8(%rbp)
    77e5:	c7 85 34 ea ff ff 00 	movl   $0x0,-0x15cc(%rbp)
    77ec:	00 00 00 
    77ef:	eb 1e                	jmp    780f <func_2+0xf89>
    77f1:	8b 85 34 ea ff ff    	mov    -0x15cc(%rbp),%eax
    77f7:	48 98                	cltq   
    77f9:	48 8d 15 28 5c 01 00 	lea    0x15c28(%rip),%rdx        # 1d428 <g_2184>
    7800:	48 89 94 c5 e0 ed ff 	mov    %rdx,-0x1220(%rbp,%rax,8)
    7807:	ff 
    7808:	83 85 34 ea ff ff 01 	addl   $0x1,-0x15cc(%rbp)
    780f:	83 bd 34 ea ff ff 09 	cmpl   $0x9,-0x15cc(%rbp)
    7816:	7e d9                	jle    77f1 <func_2+0xf6b>
    7818:	c7 85 34 ea ff ff 00 	movl   $0x0,-0x15cc(%rbp)
    781f:	00 00 00 
    7822:	eb 22                	jmp    7846 <func_2+0xfc0>
    7824:	8b 85 34 ea ff ff    	mov    -0x15cc(%rbp),%eax
    782a:	48 98                	cltq   
    782c:	48 8d 95 30 ee ff ff 	lea    -0x11d0(%rbp),%rdx
    7833:	48 83 c2 18          	add    $0x18,%rdx
    7837:	48 89 94 c5 40 ec ff 	mov    %rdx,-0x13c0(%rbp,%rax,8)
    783e:	ff 
    783f:	83 85 34 ea ff ff 01 	addl   $0x1,-0x15cc(%rbp)
    7846:	83 bd 34 ea ff ff 02 	cmpl   $0x2,-0x15cc(%rbp)
    784d:	7e d5                	jle    7824 <func_2+0xf9e>
    784f:	48 8b 85 08 eb ff ff 	mov    -0x14f8(%rbp),%rax
    7856:	8b 10                	mov    (%rax),%edx
    7858:	0f b7 85 12 ea ff ff 	movzwl -0x15ee(%rbp),%eax
    785f:	98                   	cwtl   
    7860:	21 c2                	and    %eax,%edx
    7862:	48 8b 85 08 eb ff ff 	mov    -0x14f8(%rbp),%rax
    7869:	89 10                	mov    %edx,(%rax)
    786b:	66 c7 05 04 3a 01 00 	movw   $0x0,0x13a04(%rip)        # 1b278 <g_314>
    7872:	00 00 
    7874:	e9 a8 03 00 00       	jmpq   7c21 <func_2+0x139b>
    7879:	66 c7 85 1a ea ff ff 	movw   $0x0,-0x15e6(%rbp)
    7880:	00 00 
    7882:	c7 85 ac ea ff ff 92 	movl   $0xde26b792,-0x1554(%rbp)
    7889:	b7 26 de 
    788c:	c7 85 b0 ea ff ff 15 	movl   $0xd3ce6f15,-0x1550(%rbp)
    7893:	6f ce d3 
    7896:	48 c7 85 20 ec ff ff 	movq   $0xfffffffffffffff6,-0x13e0(%rbp)
    789d:	f6 ff ff ff 
    78a1:	c7 85 d0 f3 ff ff d9 	movl   $0x446de5d9,-0xc30(%rbp)
    78a8:	e5 6d 44 
    78ab:	c7 85 d4 f3 ff ff d9 	movl   $0x446de5d9,-0xc2c(%rbp)
    78b2:	e5 6d 44 
    78b5:	c7 85 d8 f3 ff ff d9 	movl   $0x446de5d9,-0xc28(%rbp)
    78bc:	e5 6d 44 
    78bf:	c7 85 dc f3 ff ff d9 	movl   $0x446de5d9,-0xc24(%rbp)
    78c6:	e5 6d 44 
    78c9:	c7 85 e0 f3 ff ff d9 	movl   $0x446de5d9,-0xc20(%rbp)
    78d0:	e5 6d 44 
    78d3:	c7 85 e4 f3 ff ff 67 	movl   $0xa809567,-0xc1c(%rbp)
    78da:	95 80 0a 
    78dd:	c7 85 e8 f3 ff ff 67 	movl   $0xa809567,-0xc18(%rbp)
    78e4:	95 80 0a 
    78e7:	c7 85 ec f3 ff ff 67 	movl   $0xa809567,-0xc14(%rbp)
    78ee:	95 80 0a 
    78f1:	c7 85 f0 f3 ff ff 67 	movl   $0xa809567,-0xc10(%rbp)
    78f8:	95 80 0a 
    78fb:	c7 85 f4 f3 ff ff 67 	movl   $0xa809567,-0xc0c(%rbp)
    7902:	95 80 0a 
    7905:	48 8d 05 3c 37 01 00 	lea    0x1373c(%rip),%rax        # 1b048 <g_23+0x18>
    790c:	48 89 85 28 ec ff ff 	mov    %rax,-0x13d8(%rbp)
    7913:	c7 85 38 ea ff ff 00 	movl   $0x0,-0x15c8(%rbp)
    791a:	00 00 00 
    791d:	eb 1e                	jmp    793d <func_2+0x10b7>
    791f:	8b 85 38 ea ff ff    	mov    -0x15c8(%rbp),%eax
    7925:	48 98                	cltq   
    7927:	48 8d 95 d0 ea ff ff 	lea    -0x1530(%rbp),%rdx
    792e:	48 89 94 c5 d0 f8 ff 	mov    %rdx,-0x730(%rbp,%rax,8)
    7935:	ff 
    7936:	83 85 38 ea ff ff 01 	addl   $0x1,-0x15c8(%rbp)
    793d:	83 bd 38 ea ff ff 05 	cmpl   $0x5,-0x15c8(%rbp)
    7944:	7e d9                	jle    791f <func_2+0x1099>
    7946:	0f b7 85 12 ea ff ff 	movzwl -0x15ee(%rbp),%eax
    794d:	0f bf d8             	movswl %ax,%ebx
    7950:	0f b7 85 12 ea ff ff 	movzwl -0x15ee(%rbp),%eax
    7957:	0f bf d0             	movswl %ax,%edx
    795a:	0f b7 85 12 ea ff ff 	movzwl -0x15ee(%rbp),%eax
    7961:	98                   	cwtl   
    7962:	89 d6                	mov    %edx,%esi
    7964:	89 c7                	mov    %eax,%edi
    7966:	e8 9a dc ff ff       	callq  5605 <safe_sub_func_int32_t_s_s>
    796b:	44 8b a5 ac ea ff ff 	mov    -0x1554(%rbp),%r12d
    7972:	48 8b 05 47 4d 01 00 	mov    0x14d47(%rip),%rax        # 1c6c0 <g_27>
    7979:	0f b6 00             	movzbl (%rax),%eax
    797c:	0f be c0             	movsbl %al,%eax
    797f:	89 c6                	mov    %eax,%esi
    7981:	bf fa ff ff ff       	mov    $0xfffffffa,%edi
    7986:	e8 df d8 ff ff       	callq  526a <safe_div_func_int8_t_s_s>
    798b:	0f b7 85 1a ea ff ff 	movzwl -0x15e6(%rbp),%eax
    7992:	be 00 00 00 00       	mov    $0x0,%esi
    7997:	48 89 c7             	mov    %rax,%rdi
    799a:	e8 8f e6 ff ff       	callq  602e <safe_add_func_uint64_t_u_u>
    799f:	48 85 c0             	test   %rax,%rax
    79a2:	74 07                	je     79ab <func_2+0x1125>
    79a4:	b8 01 00 00 00       	mov    $0x1,%eax
    79a9:	eb 05                	jmp    79b0 <func_2+0x112a>
    79ab:	b8 00 00 00 00       	mov    $0x0,%eax
    79b0:	0f be c0             	movsbl %al,%eax
    79b3:	be 03 00 00 00       	mov    $0x3,%esi
    79b8:	89 c7                	mov    %eax,%edi
    79ba:	e8 ad d9 ff ff       	callq  536c <safe_rshift_func_int8_t_s_u>
    79bf:	44 89 e6             	mov    %r12d,%esi
    79c2:	bf 01 00 00 00       	mov    $0x1,%edi
    79c7:	e8 33 dd ff ff       	callq  56ff <safe_div_func_int32_t_s_s>
    79cc:	c7 85 50 ea ff ff 00 	movl   $0x0,-0x15b0(%rbp)
    79d3:	00 00 00 
    79d6:	48 8b 85 f8 e9 ff ff 	mov    -0x1608(%rbp),%rax
    79dd:	0f b6 00             	movzbl (%rax),%eax
    79e0:	0f be c0             	movsbl %al,%eax
    79e3:	39 85 50 ea ff ff    	cmp    %eax,-0x15b0(%rbp)
    79e9:	0f 93 c0             	setae  %al
    79ec:	0f b6 d0             	movzbl %al,%edx
    79ef:	0f b7 85 12 ea ff ff 	movzwl -0x15ee(%rbp),%eax
    79f6:	09 d0                	or     %edx,%eax
    79f8:	0f b7 c0             	movzwl %ax,%eax
    79fb:	89 de                	mov    %ebx,%esi
    79fd:	89 c7                	mov    %eax,%edi
    79ff:	e8 44 e4 ff ff       	callq  5e48 <safe_rshift_func_uint16_t_u_s>
    7a04:	ba 01 00 00 00       	mov    $0x1,%edx
    7a09:	48 8b 05 c8 4c 01 00 	mov    0x14cc8(%rip),%rax        # 1c6d8 <g_93>
    7a10:	8b 00                	mov    (%rax),%eax
    7a12:	39 c2                	cmp    %eax,%edx
    7a14:	0f 95 c0             	setne  %al
    7a17:	0f b6 d0             	movzbl %al,%edx
    7a1a:	0f b7 85 1a ea ff ff 	movzwl -0x15e6(%rbp),%eax
    7a21:	98                   	cwtl   
    7a22:	89 d6                	mov    %edx,%esi
    7a24:	89 c7                	mov    %eax,%edi
    7a26:	e8 a8 d9 ff ff       	callq  53d3 <safe_sub_func_int16_t_s_s>
    7a2b:	0f b7 85 12 ea ff ff 	movzwl -0x15ee(%rbp),%eax
    7a32:	0f bf d0             	movswl %ax,%edx
    7a35:	48 8b 85 18 eb ff ff 	mov    -0x14e8(%rbp),%rax
    7a3c:	8b 00                	mov    (%rax),%eax
    7a3e:	31 c2                	xor    %eax,%edx
    7a40:	48 8b 85 08 eb ff ff 	mov    -0x14f8(%rbp),%rax
    7a47:	89 10                	mov    %edx,(%rax)
    7a49:	48 8d 05 fc 35 01 00 	lea    0x135fc(%rip),%rax        # 1b04c <g_26>
    7a50:	8b 10                	mov    (%rax),%edx
    7a52:	48 8b 85 18 eb ff ff 	mov    -0x14e8(%rbp),%rax
    7a59:	89 10                	mov    %edx,(%rax)
    7a5b:	8b 05 3b 3a 01 00    	mov    0x13a3b(%rip),%eax        # 1b49c <g_2577>
    7a61:	83 c0 01             	add    $0x1,%eax
    7a64:	89 05 32 3a 01 00    	mov    %eax,0x13a32(%rip)        # 1b49c <g_2577>
    7a6a:	48 8d 05 6f 50 01 00 	lea    0x1506f(%rip),%rax        # 1cae0 <g_1257>
    7a71:	48 8b 00             	mov    (%rax),%rax
    7a74:	48 8d 95 d0 ea ff ff 	lea    -0x1530(%rbp),%rdx
    7a7b:	48 89 10             	mov    %rdx,(%rax)
    7a7e:	48 8b 10             	mov    (%rax),%rdx
    7a81:	48 8b 85 f8 f8 ff ff 	mov    -0x708(%rbp),%rax
    7a88:	48 39 c2             	cmp    %rax,%rdx
    7a8b:	74 07                	je     7a94 <func_2+0x120e>
    7a8d:	ba ff ff ff ff       	mov    $0xffffffff,%edx
    7a92:	eb 05                	jmp    7a99 <func_2+0x1213>
    7a94:	ba fe ff ff ff       	mov    $0xfffffffe,%edx
    7a99:	48 8d 05 ac 35 01 00 	lea    0x135ac(%rip),%rax        # 1b04c <g_26>
    7aa0:	89 10                	mov    %edx,(%rax)
    7aa2:	44 8b 30             	mov    (%rax),%r14d
    7aa5:	48 8b 85 c0 ea ff ff 	mov    -0x1540(%rbp),%rax
    7aac:	8b 00                	mov    (%rax),%eax
    7aae:	0f be d8             	movsbl %al,%ebx
    7ab1:	48 8b 85 c0 ea ff ff 	mov    -0x1540(%rbp),%rax
    7ab8:	8b 00                	mov    (%rax),%eax
    7aba:	44 0f b7 e0          	movzwl %ax,%r12d
    7abe:	48 8b 85 18 eb ff ff 	mov    -0x14e8(%rbp),%rax
    7ac5:	8b 00                	mov    (%rax),%eax
    7ac7:	44 0f bf e8          	movswl %ax,%r13d
    7acb:	48 8b 85 f0 ec ff ff 	mov    -0x1310(%rbp),%rax
    7ad2:	89 85 b0 ea ff ff    	mov    %eax,-0x1550(%rbp)
    7ad8:	83 bd b0 ea ff ff 00 	cmpl   $0x0,-0x1550(%rbp)
    7adf:	0f 95 c0             	setne  %al
    7ae2:	89 c2                	mov    %eax,%edx
    7ae4:	48 8b 85 28 ec ff ff 	mov    -0x13d8(%rbp),%rax
    7aeb:	88 10                	mov    %dl,(%rax)
    7aed:	48 8b 85 28 ec ff ff 	mov    -0x13d8(%rbp),%rax
    7af4:	0f b6 00             	movzbl (%rax),%eax
    7af7:	0f b6 c0             	movzbl %al,%eax
    7afa:	be ff 00 00 00       	mov    $0xff,%esi
    7aff:	89 c7                	mov    %eax,%edi
    7b01:	e8 8d e0 ff ff       	callq  5b93 <safe_mul_func_uint8_t_u_u>
    7b06:	44 89 ee             	mov    %r13d,%esi
    7b09:	bf 01 00 00 00       	mov    $0x1,%edi
    7b0e:	e8 a0 d8 ff ff       	callq  53b3 <safe_add_func_int16_t_s_s>
    7b13:	98                   	cwtl   
    7b14:	89 85 60 ea ff ff    	mov    %eax,-0x15a0(%rbp)
    7b1a:	48 8b 85 c8 ea ff ff 	mov    -0x1538(%rbp),%rax
    7b21:	8b 95 60 ea ff ff    	mov    -0x15a0(%rbp),%edx
    7b27:	48 63 d2             	movslq %edx,%rdx
    7b2a:	48 89 10             	mov    %rdx,(%rax)
    7b2d:	48 8b 00             	mov    (%rax),%rax
    7b30:	48 83 f8 02          	cmp    $0x2,%rax
    7b34:	0f 95 c0             	setne  %al
    7b37:	0f b6 c0             	movzbl %al,%eax
    7b3a:	44 89 e6             	mov    %r12d,%esi
    7b3d:	89 c7                	mov    %eax,%edi
    7b3f:	e8 bb e1 ff ff       	callq  5cff <safe_add_func_uint16_t_u_u>
    7b44:	66 83 f8 03          	cmp    $0x3,%ax
    7b48:	0f 97 c0             	seta   %al
    7b4b:	0f b6 c0             	movzbl %al,%eax
    7b4e:	48 be ad be d5 ce 4b 	movabs $0xcd5bd34bced5bead,%rsi
    7b55:	d3 5b cd 
    7b58:	48 89 c7             	mov    %rax,%rdi
    7b5b:	e8 4f e5 ff ff       	callq  60af <safe_div_func_uint64_t_u_u>
    7b60:	48 83 bd 38 eb ff ff 	cmpq   $0x0,-0x14c8(%rbp)
    7b67:	00 
    7b68:	0f 94 c0             	sete   %al
    7b6b:	0f b6 c0             	movzbl %al,%eax
    7b6e:	8b 95 dc f3 ff ff    	mov    -0xc24(%rbp),%edx
    7b74:	21 d0                	and    %edx,%eax
    7b76:	0f b7 d0             	movzwl %ax,%edx
    7b79:	48 8b 8d f0 ec ff ff 	mov    -0x1310(%rbp),%rcx
    7b80:	48 8b 05 79 52 01 00 	mov    0x15279(%rip),%rax        # 1ce00 <g_1776>
    7b87:	66 89 08             	mov    %cx,(%rax)
    7b8a:	0f b7 00             	movzwl (%rax),%eax
    7b8d:	0f b7 c0             	movzwl %ax,%eax
    7b90:	89 d6                	mov    %edx,%esi
    7b92:	89 c7                	mov    %eax,%edi
    7b94:	e8 66 e1 ff ff       	callq  5cff <safe_add_func_uint16_t_u_u>
    7b99:	0f be c0             	movsbl %al,%eax
    7b9c:	89 de                	mov    %ebx,%esi
    7b9e:	89 c7                	mov    %eax,%edi
    7ba0:	e8 4d d6 ff ff       	callq  51f2 <safe_sub_func_int8_t_s_s>
    7ba5:	be e3 c7 0b 23       	mov    $0x230bc7e3,%esi
    7baa:	bf 00 00 00 00       	mov    $0x0,%edi
    7baf:	e8 71 e3 ff ff       	callq  5f25 <safe_div_func_uint32_t_u_u>
    7bb4:	48 8b 85 c0 ea ff ff 	mov    -0x1540(%rbp),%rax
    7bbb:	8b 95 64 ea ff ff    	mov    -0x159c(%rbp),%edx
    7bc1:	89 10                	mov    %edx,(%rax)
    7bc3:	8b 00                	mov    (%rax),%eax
    7bc5:	44 09 f0             	or     %r14d,%eax
    7bc8:	48 63 d0             	movslq %eax,%rdx
    7bcb:	8b 85 20 ea ff ff    	mov    -0x15e0(%rbp),%eax
    7bd1:	83 f8 ff             	cmp    $0xffffffff,%eax
    7bd4:	0f 9d c0             	setge  %al
    7bd7:	0f b6 c0             	movzbl %al,%eax
    7bda:	48 89 d6             	mov    %rdx,%rsi
    7bdd:	48 89 c7             	mov    %rax,%rdi
    7be0:	e8 66 e4 ff ff       	callq  604b <safe_sub_func_uint64_t_u_u>
    7be5:	48 85 c0             	test   %rax,%rax
    7be8:	74 0b                	je     7bf5 <func_2+0x136f>
    7bea:	48 8b 05 df 4e 01 00 	mov    0x14edf(%rip),%rax        # 1cad0 <g_980>
    7bf1:	8b 00                	mov    (%rax),%eax
    7bf3:	85 c0                	test   %eax,%eax
    7bf5:	48 8b 05 84 55 01 00 	mov    0x15584(%rip),%rax        # 1d180 <g_2073>
    7bfc:	48 c7 00 00 00 00 00 	movq   $0x0,(%rax)
    7c03:	0f b7 05 6e 36 01 00 	movzwl 0x1366e(%rip),%eax        # 1b278 <g_314>
    7c0a:	0f b7 c0             	movzwl %ax,%eax
    7c0d:	be 03 00 00 00       	mov    $0x3,%esi
    7c12:	48 89 c7             	mov    %rax,%rdi
    7c15:	e8 27 dc ff ff       	callq  5841 <safe_add_func_int64_t_s_s>
    7c1a:	66 89 05 57 36 01 00 	mov    %ax,0x13657(%rip)        # 1b278 <g_314>
    7c21:	0f b7 05 50 36 01 00 	movzwl 0x13650(%rip),%eax        # 1b278 <g_314>
    7c28:	66 83 f8 1d          	cmp    $0x1d,%ax
    7c2c:	0f 84 47 fc ff ff    	je     7879 <func_2+0xff3>
    7c32:	48 8d 85 20 ea ff ff 	lea    -0x15e0(%rbp),%rax
    7c39:	48 89 85 40 eb ff ff 	mov    %rax,-0x14c0(%rbp)
    7c40:	48 c7 05 25 36 01 00 	movq   $0x0,0x13625(%rip)        # 1b270 <g_273>
    7c47:	00 00 00 00 
    7c4b:	e9 e1 0a 00 00       	jmpq   8731 <func_2+0x1eab>
    7c50:	48 b8 66 84 8e 22 27 	movabs $0xdb0a6327228e8466,%rax
    7c57:	63 0a db 
    7c5a:	48 89 85 60 eb ff ff 	mov    %rax,-0x14a0(%rbp)
    7c61:	c7 85 2c ea ff ff fc 	movl   $0xfffffffc,-0x15d4(%rbp)
    7c68:	ff ff ff 
    7c6b:	c7 85 90 ef ff ff 04 	movl   $0x6de8ff04,-0x1070(%rbp)
    7c72:	ff e8 6d 
    7c75:	c7 85 94 ef ff ff ff 	movl   $0xffffffff,-0x106c(%rbp)
    7c7c:	ff ff ff 
    7c7f:	c7 85 98 ef ff ff 04 	movl   $0x6de8ff04,-0x1068(%rbp)
    7c86:	ff e8 6d 
    7c89:	c7 85 9c ef ff ff 08 	movl   $0x8,-0x1064(%rbp)
    7c90:	00 00 00 
    7c93:	c7 85 a0 ef ff ff f2 	movl   $0x4eaf2,-0x1060(%rbp)
    7c9a:	ea 04 00 
    7c9d:	c7 85 a4 ef ff ff fd 	movl   $0xfffffffd,-0x105c(%rbp)
    7ca4:	ff ff ff 
    7ca7:	c7 85 a8 ef ff ff 5d 	movl   $0x22b7c55d,-0x1058(%rbp)
    7cae:	c5 b7 22 
    7cb1:	c7 85 ac ef ff ff ff 	movl   $0xffffffff,-0x1054(%rbp)
    7cb8:	ff ff ff 
    7cbb:	c7 85 b0 ef ff ff fe 	movl   $0xfffffffe,-0x1050(%rbp)
    7cc2:	ff ff ff 
    7cc5:	c7 85 b4 ef ff ff e3 	movl   $0x534be0e3,-0x104c(%rbp)
    7ccc:	e0 4b 53 
    7ccf:	c7 85 b8 ef ff ff e3 	movl   $0x534be0e3,-0x1048(%rbp)
    7cd6:	e0 4b 53 
    7cd9:	c7 85 bc ef ff ff fd 	movl   $0xfffffffd,-0x1044(%rbp)
    7ce0:	ff ff ff 
    7ce3:	c7 85 c0 ef ff ff 04 	movl   $0x6de8ff04,-0x1040(%rbp)
    7cea:	ff e8 6d 
    7ced:	c7 85 c4 ef ff ff 00 	movl   $0x0,-0x103c(%rbp)
    7cf4:	00 00 00 
    7cf7:	c7 85 c8 ef ff ff 04 	movl   $0x6de8ff04,-0x1038(%rbp)
    7cfe:	ff e8 6d 
    7d01:	c7 85 cc ef ff ff e3 	movl   $0x534be0e3,-0x1034(%rbp)
    7d08:	e0 4b 53 
    7d0b:	c7 85 d0 ef ff ff f2 	movl   $0x4eaf2,-0x1030(%rbp)
    7d12:	ea 04 00 
    7d15:	c7 85 d4 ef ff ff f2 	movl   $0x4eaf2,-0x102c(%rbp)
    7d1c:	ea 04 00 
    7d1f:	c7 85 d8 ef ff ff 5d 	movl   $0x22b7c55d,-0x1028(%rbp)
    7d26:	c5 b7 22 
    7d29:	c7 85 dc ef ff ff 00 	movl   $0x0,-0x1024(%rbp)
    7d30:	00 00 00 
    7d33:	c7 85 e0 ef ff ff fe 	movl   $0xfffffffe,-0x1020(%rbp)
    7d3a:	ff ff ff 
    7d3d:	c7 85 e4 ef ff ff 08 	movl   $0x8,-0x101c(%rbp)
    7d44:	00 00 00 
    7d47:	c7 85 e8 ef ff ff e3 	movl   $0x534be0e3,-0x1018(%rbp)
    7d4e:	e0 4b 53 
    7d51:	c7 85 ec ef ff ff f2 	movl   $0x4eaf2,-0x1014(%rbp)
    7d58:	ea 04 00 
    7d5b:	c7 85 f0 ef ff ff 04 	movl   $0x6de8ff04,-0x1010(%rbp)
    7d62:	ff e8 6d 
    7d65:	c7 85 f4 ef ff ff ff 	movl   $0xffffffff,-0x100c(%rbp)
    7d6c:	ff ff ff 
    7d6f:	c7 85 f8 ef ff ff 04 	movl   $0x6de8ff04,-0x1008(%rbp)
    7d76:	ff e8 6d 
    7d79:	c7 85 fc ef ff ff 08 	movl   $0x8,-0x1004(%rbp)
    7d80:	00 00 00 
    7d83:	c7 85 00 f0 ff ff f2 	movl   $0x4eaf2,-0x1000(%rbp)
    7d8a:	ea 04 00 
    7d8d:	c7 85 04 f0 ff ff fd 	movl   $0xfffffffd,-0xffc(%rbp)
    7d94:	ff ff ff 
    7d97:	c7 85 08 f0 ff ff 5d 	movl   $0x22b7c55d,-0xff8(%rbp)
    7d9e:	c5 b7 22 
    7da1:	c7 85 0c f0 ff ff ff 	movl   $0xffffffff,-0xff4(%rbp)
    7da8:	ff ff ff 
    7dab:	c7 85 10 f0 ff ff fe 	movl   $0xfffffffe,-0xff0(%rbp)
    7db2:	ff ff ff 
    7db5:	c7 85 14 f0 ff ff e3 	movl   $0x534be0e3,-0xfec(%rbp)
    7dbc:	e0 4b 53 
    7dbf:	c7 85 18 f0 ff ff e3 	movl   $0x534be0e3,-0xfe8(%rbp)
    7dc6:	e0 4b 53 
    7dc9:	c7 85 1c f0 ff ff fd 	movl   $0xfffffffd,-0xfe4(%rbp)
    7dd0:	ff ff ff 
    7dd3:	c7 85 20 f0 ff ff 04 	movl   $0x6de8ff04,-0xfe0(%rbp)
    7dda:	ff e8 6d 
    7ddd:	c7 85 24 f0 ff ff 00 	movl   $0x0,-0xfdc(%rbp)
    7de4:	00 00 00 
    7de7:	c7 85 28 f0 ff ff 04 	movl   $0x6de8ff04,-0xfd8(%rbp)
    7dee:	ff e8 6d 
    7df1:	c7 85 2c f0 ff ff e3 	movl   $0x534be0e3,-0xfd4(%rbp)
    7df8:	e0 4b 53 
    7dfb:	c7 85 30 f0 ff ff f2 	movl   $0x4eaf2,-0xfd0(%rbp)
    7e02:	ea 04 00 
    7e05:	c7 85 34 f0 ff ff f2 	movl   $0x4eaf2,-0xfcc(%rbp)
    7e0c:	ea 04 00 
    7e0f:	c7 85 38 f0 ff ff 5d 	movl   $0x22b7c55d,-0xfc8(%rbp)
    7e16:	c5 b7 22 
    7e19:	c7 85 3c f0 ff ff 00 	movl   $0x0,-0xfc4(%rbp)
    7e20:	00 00 00 
    7e23:	c7 85 40 f0 ff ff fe 	movl   $0xfffffffe,-0xfc0(%rbp)
    7e2a:	ff ff ff 
    7e2d:	c7 85 44 f0 ff ff 08 	movl   $0x8,-0xfbc(%rbp)
    7e34:	00 00 00 
    7e37:	c7 85 48 f0 ff ff e3 	movl   $0x534be0e3,-0xfb8(%rbp)
    7e3e:	e0 4b 53 
    7e41:	c7 85 4c f0 ff ff f2 	movl   $0x4eaf2,-0xfb4(%rbp)
    7e48:	ea 04 00 
    7e4b:	c7 85 50 f0 ff ff 04 	movl   $0x6de8ff04,-0xfb0(%rbp)
    7e52:	ff e8 6d 
    7e55:	c7 85 54 f0 ff ff ff 	movl   $0xffffffff,-0xfac(%rbp)
    7e5c:	ff ff ff 
    7e5f:	c7 85 58 f0 ff ff 04 	movl   $0x6de8ff04,-0xfa8(%rbp)
    7e66:	ff e8 6d 
    7e69:	c7 85 5c f0 ff ff 08 	movl   $0x8,-0xfa4(%rbp)
    7e70:	00 00 00 
    7e73:	c7 85 60 f0 ff ff f2 	movl   $0x4eaf2,-0xfa0(%rbp)
    7e7a:	ea 04 00 
    7e7d:	c7 85 64 f0 ff ff fd 	movl   $0xfffffffd,-0xf9c(%rbp)
    7e84:	ff ff ff 
    7e87:	48 c7 85 68 eb ff ff 	movq   $0xffffffffffffffff,-0x1498(%rbp)
    7e8e:	ff ff ff ff 
    7e92:	c7 85 30 ea ff ff 25 	movl   $0x898f0325,-0x15d0(%rbp)
    7e99:	03 8f 89 
    7e9c:	c7 85 74 ea ff ff 06 	movl   $0x8a7bce06,-0x158c(%rbp)
    7ea3:	ce 7b 8a 
    7ea6:	c7 85 78 ea ff ff 19 	movl   $0x3ed2f719,-0x1588(%rbp)
    7ead:	f7 d2 3e 
    7eb0:	c7 85 7c ea ff ff 01 	movl   $0x1,-0x1584(%rbp)
    7eb7:	00 00 00 
    7eba:	c7 85 d0 ee ff ff 01 	movl   $0x1,-0x1130(%rbp)
    7ec1:	00 00 00 
    7ec4:	c7 85 d4 ee ff ff e6 	movl   $0xd67572e6,-0x112c(%rbp)
    7ecb:	72 75 d6 
    7ece:	c7 85 d8 ee ff ff 98 	movl   $0x740e4398,-0x1128(%rbp)
    7ed5:	43 0e 74 
    7ed8:	c7 85 dc ee ff ff 98 	movl   $0x740e4398,-0x1124(%rbp)
    7edf:	43 0e 74 
    7ee2:	c7 85 e0 ee ff ff e6 	movl   $0xd67572e6,-0x1120(%rbp)
    7ee9:	72 75 d6 
    7eec:	c7 85 e4 ee ff ff c5 	movl   $0xa2c32dc5,-0x111c(%rbp)
    7ef3:	2d c3 a2 
    7ef6:	c7 85 e8 ee ff ff fc 	movl   $0xfffffffc,-0x1118(%rbp)
    7efd:	ff ff ff 
    7f00:	c7 85 ec ee ff ff 98 	movl   $0x740e4398,-0x1114(%rbp)
    7f07:	43 0e 74 
    7f0a:	c7 85 f0 ee ff ff 06 	movl   $0x33bbdb06,-0x1110(%rbp)
    7f11:	db bb 33 
    7f14:	c7 85 f4 ee ff ff 06 	movl   $0x33bbdb06,-0x110c(%rbp)
    7f1b:	db bb 33 
    7f1e:	c7 85 f8 ee ff ff fc 	movl   $0xfffffffc,-0x1108(%rbp)
    7f25:	ff ff ff 
    7f28:	c7 85 fc ee ff ff c5 	movl   $0xa2c32dc5,-0x1104(%rbp)
    7f2f:	2d c3 a2 
    7f32:	c7 85 00 ef ff ff fc 	movl   $0xfffffffc,-0x1100(%rbp)
    7f39:	ff ff ff 
    7f3c:	c7 85 04 ef ff ff 98 	movl   $0x740e4398,-0x10fc(%rbp)
    7f43:	43 0e 74 
    7f46:	c7 85 08 ef ff ff 06 	movl   $0x33bbdb06,-0x10f8(%rbp)
    7f4d:	db bb 33 
    7f50:	c7 85 0c ef ff ff e6 	movl   $0xd67572e6,-0x10f4(%rbp)
    7f57:	72 75 d6 
    7f5a:	c7 85 10 ef ff ff 01 	movl   $0x1,-0x10f0(%rbp)
    7f61:	00 00 00 
    7f64:	c7 85 14 ef ff ff 06 	movl   $0x33bbdb06,-0x10ec(%rbp)
    7f6b:	db bb 33 
    7f6e:	c7 85 18 ef ff ff 01 	movl   $0x1,-0x10e8(%rbp)
    7f75:	00 00 00 
    7f78:	c7 85 1c ef ff ff e6 	movl   $0xd67572e6,-0x10e4(%rbp)
    7f7f:	72 75 d6 
    7f82:	c7 85 20 ef ff ff fc 	movl   $0xfffffffc,-0x10e0(%rbp)
    7f89:	ff ff ff 
    7f8c:	c7 85 24 ef ff ff 01 	movl   $0x1,-0x10dc(%rbp)
    7f93:	00 00 00 
    7f96:	c7 85 28 ef ff ff c5 	movl   $0xa2c32dc5,-0x10d8(%rbp)
    7f9d:	2d c3 a2 
    7fa0:	c7 85 2c ef ff ff e6 	movl   $0xd67572e6,-0x10d4(%rbp)
    7fa7:	72 75 d6 
    7faa:	c7 85 30 ef ff ff c5 	movl   $0xa2c32dc5,-0x10d0(%rbp)
    7fb1:	2d c3 a2 
    7fb4:	c7 85 34 ef ff ff c5 	movl   $0xa2c32dc5,-0x10cc(%rbp)
    7fbb:	2d c3 a2 
    7fbe:	c7 85 38 ef ff ff c5 	movl   $0xa2c32dc5,-0x10c8(%rbp)
    7fc5:	2d c3 a2 
    7fc8:	c7 85 3c ef ff ff 06 	movl   $0x33bbdb06,-0x10c4(%rbp)
    7fcf:	db bb 33 
    7fd2:	c7 85 40 ef ff ff e6 	movl   $0xd67572e6,-0x10c0(%rbp)
    7fd9:	72 75 d6 
    7fdc:	c7 85 44 ef ff ff 8d 	movl   $0x7d919e8d,-0x10bc(%rbp)
    7fe3:	9e 91 7d 
    7fe6:	c7 85 48 ef ff ff 01 	movl   $0x1,-0x10b8(%rbp)
    7fed:	00 00 00 
    7ff0:	c7 85 4c ef ff ff fc 	movl   $0xfffffffc,-0x10b4(%rbp)
    7ff7:	ff ff ff 
    7ffa:	c7 85 50 ef ff ff fc 	movl   $0xfffffffc,-0x10b0(%rbp)
    8001:	ff ff ff 
    8004:	c7 85 54 ef ff ff 01 	movl   $0x1,-0x10ac(%rbp)
    800b:	00 00 00 
    800e:	c7 85 58 ef ff ff c5 	movl   $0xa2c32dc5,-0x10a8(%rbp)
    8015:	2d c3 a2 
    8018:	c7 85 5c ef ff ff 01 	movl   $0x1,-0x10a4(%rbp)
    801f:	00 00 00 
    8022:	c7 85 60 ef ff ff e6 	movl   $0xd67572e6,-0x10a0(%rbp)
    8029:	72 75 d6 
    802c:	c7 85 64 ef ff ff 98 	movl   $0x740e4398,-0x109c(%rbp)
    8033:	43 0e 74 
    8036:	c7 85 68 ef ff ff 98 	movl   $0x740e4398,-0x1098(%rbp)
    803d:	43 0e 74 
    8040:	c7 85 6c ef ff ff e6 	movl   $0xd67572e6,-0x1094(%rbp)
    8047:	72 75 d6 
    804a:	c7 85 70 ef ff ff c5 	movl   $0xa2c32dc5,-0x1090(%rbp)
    8051:	2d c3 a2 
    8054:	c7 85 74 ef ff ff fc 	movl   $0xfffffffc,-0x108c(%rbp)
    805b:	ff ff ff 
    805e:	c7 85 78 ef ff ff 98 	movl   $0x740e4398,-0x1088(%rbp)
    8065:	43 0e 74 
    8068:	c7 85 7c ef ff ff 06 	movl   $0x33bbdb06,-0x1084(%rbp)
    806f:	db bb 33 
    8072:	c7 85 80 ef ff ff 06 	movl   $0x33bbdb06,-0x1080(%rbp)
    8079:	db bb 33 
    807c:	48 8d 05 c9 2f 01 00 	lea    0x12fc9(%rip),%rax        # 1b04c <g_26>
    8083:	48 89 85 70 eb ff ff 	mov    %rax,-0x1490(%rbp)
    808a:	48 8d 85 24 ea ff ff 	lea    -0x15dc(%rbp),%rax
    8091:	48 89 85 78 eb ff ff 	mov    %rax,-0x1488(%rbp)
    8098:	c7 85 80 ea ff ff 01 	movl   $0x1,-0x1580(%rbp)
    809f:	00 00 00 
    80a2:	c7 85 a0 ec ff ff 58 	movl   $0x711a5458,-0x1360(%rbp)
    80a9:	54 1a 71 
    80ac:	c7 85 a4 ec ff ff f7 	movl   $0xfffffff7,-0x135c(%rbp)
    80b3:	ff ff ff 
    80b6:	c7 85 a8 ec ff ff f7 	movl   $0xfffffff7,-0x1358(%rbp)
    80bd:	ff ff ff 
    80c0:	c7 85 ac ec ff ff 58 	movl   $0x711a5458,-0x1354(%rbp)
    80c7:	54 1a 71 
    80ca:	c7 85 b0 ec ff ff 07 	movl   $0x7,-0x1350(%rbp)
    80d1:	00 00 00 
    80d4:	c7 85 b4 ec ff ff 58 	movl   $0x711a5458,-0x134c(%rbp)
    80db:	54 1a 71 
    80de:	c7 85 b8 ec ff ff f7 	movl   $0xfffffff7,-0x1348(%rbp)
    80e5:	ff ff ff 
    80e8:	c7 85 bc ec ff ff f7 	movl   $0xfffffff7,-0x1344(%rbp)
    80ef:	ff ff ff 
    80f2:	c7 85 c0 ec ff ff 58 	movl   $0x711a5458,-0x1340(%rbp)
    80f9:	54 1a 71 
    80fc:	c7 85 c4 ec ff ff 07 	movl   $0x7,-0x133c(%rbp)
    8103:	00 00 00 
    8106:	c7 85 84 ea ff ff 08 	movl   $0x8,-0x157c(%rbp)
    810d:	00 00 00 
    8110:	48 b8 19 9f 2b 45 e3 	movabs $0xaacfb5e3452b9f19,%rax
    8117:	b5 cf aa 
    811a:	48 89 85 80 eb ff ff 	mov    %rax,-0x1480(%rbp)
    8121:	48 8d 05 b8 30 01 00 	lea    0x130b8(%rip),%rax        # 1b1e0 <g_158>
    8128:	48 89 85 88 eb ff ff 	mov    %rax,-0x1478(%rbp)
    812f:	c6 85 0e ea ff ff 04 	movb   $0x4,-0x15f2(%rbp)
    8136:	48 8d 85 d0 f8 ff ff 	lea    -0x730(%rbp),%rax
    813d:	48 8d 15 dc 37 01 00 	lea    0x137dc(%rip),%rdx        # 1b920 <g_3052+0x1d8>
    8144:	b9 e0 00 00 00       	mov    $0xe0,%ecx
    8149:	48 89 c7             	mov    %rax,%rdi
    814c:	48 89 d6             	mov    %rdx,%rsi
    814f:	f3 48 a5             	rep movsq %ds:(%rsi),%es:(%rdi)
    8152:	c7 05 94 32 01 00 00 	movl   $0x0,0x13294(%rip)        # 1b3f0 <g_1166>
    8159:	00 00 00 
    815c:	e9 86 01 00 00       	jmpq   82e7 <func_2+0x1a61>
    8161:	48 c7 85 e0 eb ff ff 	movq   $0xfffffffffffffffb,-0x1420(%rbp)
    8168:	fb ff ff ff 
    816c:	48 c7 85 e8 eb ff ff 	movq   $0x0,-0x1418(%rbp)
    8173:	00 00 00 00 
    8177:	48 8d 05 4a 59 01 00 	lea    0x1594a(%rip),%rax        # 1dac8 <g_2634>
    817e:	48 89 85 f0 eb ff ff 	mov    %rax,-0x1410(%rbp)
    8185:	48 8d 85 c8 ea ff ff 	lea    -0x1538(%rbp),%rax
    818c:	48 89 85 f8 eb ff ff 	mov    %rax,-0x1408(%rbp)
    8193:	48 8d 85 d0 f3 ff ff 	lea    -0xc30(%rbp),%rax
    819a:	48 8d 15 5f e4 00 00 	lea    0xe45f(%rip),%rdx        # 16600 <g_1383+0x1ac>
    81a1:	b9 31 00 00 00       	mov    $0x31,%ecx
    81a6:	48 89 c7             	mov    %rax,%rdi
    81a9:	48 89 d6             	mov    %rdx,%rsi
    81ac:	f3 48 a5             	rep movsq %ds:(%rsi),%es:(%rdi)
    81af:	48 c7 85 00 ec ff ff 	movq   $0x0,-0x1400(%rbp)
    81b6:	00 00 00 00 
    81ba:	c7 85 a4 ea ff ff d8 	movl   $0x80bb43d8,-0x155c(%rbp)
    81c1:	43 bb 80 
    81c4:	c7 85 a8 ea ff ff 33 	movl   $0xd0dde533,-0x1558(%rbp)
    81cb:	e5 dd d0 
    81ce:	48 c7 85 08 ec ff ff 	movq   $0x0,-0x13f8(%rbp)
    81d5:	00 00 00 00 
    81d9:	48 8d 85 60 f2 ff ff 	lea    -0xda0(%rbp),%rax
    81e0:	48 8d 15 b9 e5 00 00 	lea    0xe5b9(%rip),%rdx        # 167a0 <g_1383+0x34c>
    81e7:	b9 2d 00 00 00       	mov    $0x2d,%ecx
    81ec:	48 89 c7             	mov    %rax,%rdi
    81ef:	48 89 d6             	mov    %rdx,%rsi
    81f2:	f3 48 a5             	rep movsq %ds:(%rsi),%es:(%rdi)
    81f5:	c6 85 10 ea ff ff 01 	movb   $0x1,-0x15f0(%rbp)
    81fc:	48 8d 05 ed 2f 01 00 	lea    0x12fed(%rip),%rax        # 1b1f0 <g_219>
    8203:	48 89 85 10 ec ff ff 	mov    %rax,-0x13f0(%rbp)
    820a:	c6 85 11 ea ff ff 37 	movb   $0x37,-0x15ef(%rbp)
    8211:	66 c7 85 18 ea ff ff 	movw   $0x1,-0x15e8(%rbp)
    8218:	01 00 
    821a:	48 8d 85 60 f1 ff ff 	lea    -0xea0(%rbp),%rax
    8221:	48 8d 15 f8 e6 00 00 	lea    0xe6f8(%rip),%rdx        # 16920 <g_1383+0x4cc>
    8228:	b9 1e 00 00 00       	mov    $0x1e,%ecx
    822d:	48 89 c7             	mov    %rax,%rdi
    8230:	48 89 d6             	mov    %rdx,%rsi
    8233:	f3 48 a5             	rep movsq %ds:(%rsi),%es:(%rdi)
    8236:	48 89 f2             	mov    %rsi,%rdx
    8239:	48 89 f8             	mov    %rdi,%rax
    823c:	8b 0a                	mov    (%rdx),%ecx
    823e:	89 08                	mov    %ecx,(%rax)
    8240:	48 8d 40 04          	lea    0x4(%rax),%rax
    8244:	48 8d 52 04          	lea    0x4(%rdx),%rdx
    8248:	0f b6 0a             	movzbl (%rdx),%ecx
    824b:	88 08                	mov    %cl,(%rax)
    824d:	48 8d 40 01          	lea    0x1(%rax),%rax
    8251:	48 8d 52 01          	lea    0x1(%rdx),%rdx
    8255:	48 8d 05 a4 44 01 00 	lea    0x144a4(%rip),%rax        # 1c700 <g_267>
    825c:	48 89 85 00 ed ff ff 	mov    %rax,-0x1300(%rbp)
    8263:	48 8d 05 96 44 01 00 	lea    0x14496(%rip),%rax        # 1c700 <g_267>
    826a:	48 89 85 08 ed ff ff 	mov    %rax,-0x12f8(%rbp)
    8271:	48 8d 05 88 44 01 00 	lea    0x14488(%rip),%rax        # 1c700 <g_267>
    8278:	48 89 85 10 ed ff ff 	mov    %rax,-0x12f0(%rbp)
    827f:	48 8d 05 7a 44 01 00 	lea    0x1447a(%rip),%rax        # 1c700 <g_267>
    8286:	48 89 85 18 ed ff ff 	mov    %rax,-0x12e8(%rbp)
    828d:	48 8d 05 6c 44 01 00 	lea    0x1446c(%rip),%rax        # 1c700 <g_267>
    8294:	48 89 85 20 ed ff ff 	mov    %rax,-0x12e0(%rbp)
    829b:	48 8d 05 5e 44 01 00 	lea    0x1445e(%rip),%rax        # 1c700 <g_267>
    82a2:	48 89 85 28 ed ff ff 	mov    %rax,-0x12d8(%rbp)
    82a9:	48 8d 05 50 44 01 00 	lea    0x14450(%rip),%rax        # 1c700 <g_267>
    82b0:	48 89 85 30 ed ff ff 	mov    %rax,-0x12d0(%rbp)
    82b7:	48 8d 85 00 ed ff ff 	lea    -0x1300(%rbp),%rax
    82be:	48 83 c0 28          	add    $0x28,%rax
    82c2:	48 89 85 18 ec ff ff 	mov    %rax,-0x13e8(%rbp)
    82c9:	8b 05 21 31 01 00    	mov    0x13121(%rip),%eax        # 1b3f0 <g_1166>
    82cf:	0f b6 c0             	movzbl %al,%eax
    82d2:	be 09 00 00 00       	mov    $0x9,%esi
    82d7:	89 c7                	mov    %eax,%edi
    82d9:	e8 7c d8 ff ff       	callq  5b5a <safe_add_func_uint8_t_u_u>
    82de:	0f b6 c0             	movzbl %al,%eax
    82e1:	89 05 09 31 01 00    	mov    %eax,0x13109(%rip)        # 1b3f0 <g_1166>
    82e7:	8b 05 03 31 01 00    	mov    0x13103(%rip),%eax        # 1b3f0 <g_1166>
    82ed:	83 f8 03             	cmp    $0x3,%eax
    82f0:	0f 84 6b fe ff ff    	je     8161 <func_2+0x18db>
    82f6:	48 8b 85 78 eb ff ff 	mov    -0x1488(%rbp),%rax
    82fd:	8b 00                	mov    (%rax),%eax
    82ff:	85 c0                	test   %eax,%eax
    8301:	0f 84 49 01 00 00    	je     8450 <func_2+0x1bca>
    8307:	48 8d 85 30 ea ff ff 	lea    -0x15d0(%rbp),%rax
    830e:	48 89 85 90 eb ff ff 	mov    %rax,-0x1470(%rbp)
    8315:	c7 85 88 ea ff ff 06 	movl   $0x6,-0x1578(%rbp)
    831c:	00 00 00 
    831f:	48 b8 53 c8 df 81 79 	movabs $0x87a7957981dfc853,%rax
    8326:	95 a7 87 
    8329:	48 89 85 00 eb ff ff 	mov    %rax,-0x1500(%rbp)
    8330:	c7 85 3c ea ff ff 00 	movl   $0x0,-0x15c4(%rbp)
    8337:	00 00 00 
    833a:	eb 1a                	jmp    8356 <func_2+0x1ad0>
    833c:	8b 85 3c ea ff ff    	mov    -0x15c4(%rbp),%eax
    8342:	48 98                	cltq   
    8344:	c7 84 85 60 f2 ff ff 	movl   $0xbc258e3c,-0xda0(%rbp,%rax,4)
    834b:	3c 8e 25 bc 
    834f:	83 85 3c ea ff ff 01 	addl   $0x1,-0x15c4(%rbp)
    8356:	83 bd 3c ea ff ff 01 	cmpl   $0x1,-0x15c4(%rbp)
    835d:	7e dd                	jle    833c <func_2+0x1ab6>
    835f:	48 c7 85 90 eb ff ff 	movq   $0x0,-0x1470(%rbp)
    8366:	00 00 00 00 
    836a:	66 c7 05 65 30 01 00 	movw   $0x4,0x13065(%rip)        # 1b3d8 <g_1131>
    8371:	04 00 
    8373:	e9 c5 00 00 00       	jmpq   843d <func_2+0x1bb7>
    8378:	48 8d 05 1d 31 01 00 	lea    0x1311d(%rip),%rax        # 1b49c <g_2577>
    837f:	48 89 85 98 eb ff ff 	mov    %rax,-0x1468(%rbp)
    8386:	c7 85 8c ea ff ff a1 	movl   $0x5f6ecca1,-0x1574(%rbp)
    838d:	cc 6e 5f 
    8390:	c7 85 90 ea ff ff 83 	movl   $0x9f9dc983,-0x1570(%rbp)
    8397:	c9 9d 9f 
    839a:	c7 85 40 ea ff ff 00 	movl   $0x0,-0x15c0(%rbp)
    83a1:	00 00 00 
    83a4:	eb 19                	jmp    83bf <func_2+0x1b39>
    83a6:	8b 85 40 ea ff ff    	mov    -0x15c0(%rbp),%eax
    83ac:	48 98                	cltq   
    83ae:	66 c7 84 45 60 f1 ff 	movw   $0x9ad0,-0xea0(%rbp,%rax,2)
    83b5:	ff d0 9a 
    83b8:	83 85 40 ea ff ff 01 	addl   $0x1,-0x15c0(%rbp)
    83bf:	83 bd 40 ea ff ff 02 	cmpl   $0x2,-0x15c0(%rbp)
    83c6:	7e de                	jle    83a6 <func_2+0x1b20>
    83c8:	c7 85 40 ea ff ff 00 	movl   $0x0,-0x15c0(%rbp)
    83cf:	00 00 00 
    83d2:	eb 1a                	jmp    83ee <func_2+0x1b68>
    83d4:	8b 85 40 ea ff ff    	mov    -0x15c0(%rbp),%eax
    83da:	48 98                	cltq   
    83dc:	c7 84 85 d0 f3 ff ff 	movl   $0x514d9cd5,-0xc30(%rbp,%rax,4)
    83e3:	d5 9c 4d 51 
    83e7:	83 85 40 ea ff ff 01 	addl   $0x1,-0x15c0(%rbp)
    83ee:	83 bd 40 ea ff ff 01 	cmpl   $0x1,-0x15c0(%rbp)
    83f5:	7e dd                	jle    83d4 <func_2+0x1b4e>
    83f7:	48 8b 85 98 eb ff ff 	mov    -0x1468(%rbp),%rax
    83fe:	48 89 85 90 eb ff ff 	mov    %rax,-0x1470(%rbp)
    8405:	48 83 85 00 eb ff ff 	addq   $0x1,-0x1500(%rbp)
    840c:	01 
    840d:	48 83 85 f8 ea ff ff 	addq   $0x1,-0x1508(%rbp)
    8414:	01 
    8415:	48 8b 85 70 eb ff ff 	mov    -0x1490(%rbp),%rax
    841c:	8b 00                	mov    (%rax),%eax
    841e:	85 c0                	test   %eax,%eax
    8420:	75 4c                	jne    846e <func_2+0x1be8>
    8422:	0f b7 05 af 2f 01 00 	movzwl 0x12faf(%rip),%eax        # 1b3d8 <g_1131>
    8429:	98                   	cwtl   
    842a:	be 09 00 00 00       	mov    $0x9,%esi
    842f:	89 c7                	mov    %eax,%edi
    8431:	e8 9d cf ff ff       	callq  53d3 <safe_sub_func_int16_t_s_s>
    8436:	66 89 05 9b 2f 01 00 	mov    %ax,0x12f9b(%rip)        # 1b3d8 <g_1131>
    843d:	0f b7 05 94 2f 01 00 	movzwl 0x12f94(%rip),%eax        # 1b3d8 <g_1131>
    8444:	66 83 f8 e6          	cmp    $0xffe6,%ax
    8448:	0f 8d 2a ff ff ff    	jge    8378 <func_2+0x1af2>
    844e:	eb 1f                	jmp    846f <func_2+0x1be9>
    8450:	48 c7 85 50 eb ff ff 	movq   $0x0,-0x14b0(%rbp)
    8457:	00 00 00 00 
    845b:	48 8b 85 08 eb ff ff 	mov    -0x14f8(%rbp),%rax
    8462:	8b 00                	mov    (%rax),%eax
    8464:	85 c0                	test   %eax,%eax
    8466:	0f 85 b2 02 00 00    	jne    871e <func_2+0x1e98>
    846c:	eb 01                	jmp    846f <func_2+0x1be9>
    846e:	90                   	nop
    846f:	66 c7 05 70 2d 01 00 	movw   $0xffeb,0x12d70(%rip)        # 1b1e8 <g_167>
    8476:	eb ff 
    8478:	e9 8e 02 00 00       	jmpq   870b <func_2+0x1e85>
    847d:	48 8d 05 bc 55 01 00 	lea    0x155bc(%rip),%rax        # 1da40 <g_1609>
    8484:	48 89 85 e8 ea ff ff 	mov    %rax,-0x1518(%rbp)
    848b:	48 8d 85 e8 ea ff ff 	lea    -0x1518(%rbp),%rax
    8492:	48 89 85 a0 eb ff ff 	mov    %rax,-0x1460(%rbp)
    8499:	c7 85 44 ea ff ff 79 	movl   $0x71eefc79,-0x15bc(%rbp)
    84a0:	fc ee 71 
    84a3:	c7 85 94 ea ff ff 01 	movl   $0x1,-0x156c(%rbp)
    84aa:	00 00 00 
    84ad:	66 c7 05 22 2f 01 00 	movw   $0x0,0x12f22(%rip)        # 1b3d8 <g_1131>
    84b4:	00 00 
    84b6:	e9 2e 02 00 00       	jmpq   86e9 <func_2+0x1e63>
    84bb:	c7 85 98 ea ff ff 12 	movl   $0xb93eb912,-0x1568(%rbp)
    84c2:	b9 3e b9 
    84c5:	48 c7 85 a8 eb ff ff 	movq   $0x0,-0x1458(%rbp)
    84cc:	00 00 00 00 
    84d0:	c7 85 9c ea ff ff 00 	movl   $0x0,-0x1564(%rbp)
    84d7:	00 00 00 
    84da:	66 c7 85 16 ea ff ff 	movw   $0x1,-0x15ea(%rbp)
    84e1:	01 00 
    84e3:	48 c7 85 b0 eb ff ff 	movq   $0x0,-0x1450(%rbp)
    84ea:	00 00 00 00 
    84ee:	48 8d 05 f1 2e 01 00 	lea    0x12ef1(%rip),%rax        # 1b3e6 <g_1135+0x6>
    84f5:	48 89 85 b8 eb ff ff 	mov    %rax,-0x1448(%rbp)
    84fc:	48 8d 85 28 ea ff ff 	lea    -0x15d8(%rbp),%rax
    8503:	48 89 85 d0 f3 ff ff 	mov    %rax,-0xc30(%rbp)
    850a:	48 8d 85 28 ea ff ff 	lea    -0x15d8(%rbp),%rax
    8511:	48 89 85 d8 f3 ff ff 	mov    %rax,-0xc28(%rbp)
    8518:	48 8d 85 28 ea ff ff 	lea    -0x15d8(%rbp),%rax
    851f:	48 89 85 e0 f3 ff ff 	mov    %rax,-0xc20(%rbp)
    8526:	48 8d 85 28 ea ff ff 	lea    -0x15d8(%rbp),%rax
    852d:	48 89 85 e8 f3 ff ff 	mov    %rax,-0xc18(%rbp)
    8534:	48 8d 85 28 ea ff ff 	lea    -0x15d8(%rbp),%rax
    853b:	48 89 85 f0 f3 ff ff 	mov    %rax,-0xc10(%rbp)
    8542:	48 8d 85 28 ea ff ff 	lea    -0x15d8(%rbp),%rax
    8549:	48 89 85 f8 f3 ff ff 	mov    %rax,-0xc08(%rbp)
    8550:	48 8d 85 28 ea ff ff 	lea    -0x15d8(%rbp),%rax
    8557:	48 89 85 00 f4 ff ff 	mov    %rax,-0xc00(%rbp)
    855e:	48 8d 85 28 ea ff ff 	lea    -0x15d8(%rbp),%rax
    8565:	48 89 85 08 f4 ff ff 	mov    %rax,-0xbf8(%rbp)
    856c:	48 8d 85 28 ea ff ff 	lea    -0x15d8(%rbp),%rax
    8573:	48 89 85 10 f4 ff ff 	mov    %rax,-0xbf0(%rbp)
    857a:	48 8d 85 28 ea ff ff 	lea    -0x15d8(%rbp),%rax
    8581:	48 89 85 18 f4 ff ff 	mov    %rax,-0xbe8(%rbp)
    8588:	48 8d 05 a9 54 01 00 	lea    0x154a9(%rip),%rax        # 1da38 <g_1587>
    858f:	48 89 85 f0 ea ff ff 	mov    %rax,-0x1510(%rbp)
    8596:	48 8d 85 f0 ea ff ff 	lea    -0x1510(%rbp),%rax
    859d:	48 89 85 c0 eb ff ff 	mov    %rax,-0x1440(%rbp)
    85a4:	c6 85 0f ea ff ff 31 	movb   $0x31,-0x15f1(%rbp)
    85ab:	48 c7 85 c8 eb ff ff 	movq   $0x0,-0x1438(%rbp)
    85b2:	00 00 00 00 
    85b6:	48 8d 85 12 ea ff ff 	lea    -0x15ee(%rbp),%rax
    85bd:	48 89 85 d0 eb ff ff 	mov    %rax,-0x1430(%rbp)
    85c4:	c7 85 a0 ea ff ff 09 	movl   $0x9,-0x1560(%rbp)
    85cb:	00 00 00 
    85ce:	48 c7 85 f8 ea ff ff 	movq   $0x3,-0x1508(%rbp)
    85d5:	03 00 00 00 
    85d9:	e9 ec 00 00 00       	jmpq   86ca <func_2+0x1e44>
    85de:	48 8d 85 2c ea ff ff 	lea    -0x15d4(%rbp),%rax
    85e5:	48 89 85 d8 eb ff ff 	mov    %rax,-0x1428(%rbp)
    85ec:	48 8b 85 f8 ea ff ff 	mov    -0x1508(%rbp),%rax
    85f3:	48 8b 84 c5 90 ed ff 	mov    -0x1270(%rbp,%rax,8),%rax
    85fa:	ff 
    85fb:	48 89 85 48 ec ff ff 	mov    %rax,-0x13b8(%rbp)
    8602:	48 8b 85 48 ec ff ff 	mov    -0x13b8(%rbp),%rax
    8609:	48 89 85 d8 eb ff ff 	mov    %rax,-0x1428(%rbp)
    8610:	48 8b 85 c0 ea ff ff 	mov    -0x1540(%rbp),%rax
    8617:	8b 00                	mov    (%rax),%eax
    8619:	0f bf d8             	movswl %ax,%ebx
    861c:	48 8b 85 70 eb ff ff 	mov    -0x1490(%rbp),%rax
    8623:	44 8b 20             	mov    (%rax),%r12d
    8626:	48 8b 05 d3 47 01 00 	mov    0x147d3(%rip),%rax        # 1ce00 <g_1776>
    862d:	0f b7 00             	movzwl (%rax),%eax
    8630:	89 c2                	mov    %eax,%edx
    8632:	8b 85 44 ea ff ff    	mov    -0x15bc(%rbp),%eax
    8638:	09 c2                	or     %eax,%edx
    863a:	48 8b 05 bf 47 01 00 	mov    0x147bf(%rip),%rax        # 1ce00 <g_1776>
    8641:	66 89 10             	mov    %dx,(%rax)
    8644:	48 8b 85 78 eb ff ff 	mov    -0x1488(%rbp),%rax
    864b:	8b 00                	mov    (%rax),%eax
    864d:	0f be c0             	movsbl %al,%eax
    8650:	89 c6                	mov    %eax,%esi
    8652:	bf 00 00 00 00       	mov    $0x0,%edi
    8657:	e8 d5 cb ff ff       	callq  5231 <safe_mod_func_int8_t_s_s>
    865c:	0f be c0             	movsbl %al,%eax
    865f:	89 85 44 ea ff ff    	mov    %eax,-0x15bc(%rbp)
    8665:	83 bd 98 ea ff ff 01 	cmpl   $0x1,-0x1568(%rbp)
    866c:	0f 97 c0             	seta   %al
    866f:	0f b6 c0             	movzbl %al,%eax
    8672:	be 05 ba 2d 73       	mov    $0x732dba05,%esi
    8677:	89 c7                	mov    %eax,%edi
    8679:	e8 52 d8 ff ff       	callq  5ed0 <safe_sub_func_uint32_t_u_u>
    867e:	98                   	cwtl   
    867f:	44 89 e6             	mov    %r12d,%esi
    8682:	89 c7                	mov    %eax,%edi
    8684:	e8 a1 ce ff ff       	callq  552a <safe_rshift_func_int16_t_s_s>
    8689:	98                   	cwtl   
    868a:	89 de                	mov    %ebx,%esi
    868c:	89 c7                	mov    %eax,%edi
    868e:	e8 62 cd ff ff       	callq  53f5 <safe_mul_func_int16_t_s_s>
    8693:	66 85 c0             	test   %ax,%ax
    8696:	74 11                	je     86a9 <func_2+0x1e23>
    8698:	8b 05 a6 30 01 00    	mov    0x130a6(%rip),%eax        # 1b744 <g_2981>
    869e:	85 c0                	test   %eax,%eax
    86a0:	74 07                	je     86a9 <func_2+0x1e23>
    86a2:	ba 01 00 00 00       	mov    $0x1,%edx
    86a7:	eb 05                	jmp    86ae <func_2+0x1e28>
    86a9:	ba 00 00 00 00       	mov    $0x0,%edx
    86ae:	48 8b 85 08 eb ff ff 	mov    -0x14f8(%rbp),%rax
    86b5:	8b 00                	mov    (%rax),%eax
    86b7:	09 c2                	or     %eax,%edx
    86b9:	48 8b 85 08 eb ff ff 	mov    -0x14f8(%rbp),%rax
    86c0:	89 10                	mov    %edx,(%rax)
    86c2:	48 83 85 f8 ea ff ff 	addq   $0x1,-0x1508(%rbp)
    86c9:	01 
    86ca:	48 83 bd f8 ea ff ff 	cmpq   $0x9,-0x1508(%rbp)
    86d1:	09 
    86d2:	0f 86 06 ff ff ff    	jbe    85de <func_2+0x1d58>
    86d8:	0f b7 05 f9 2c 01 00 	movzwl 0x12cf9(%rip),%eax        # 1b3d8 <g_1131>
    86df:	83 c0 01             	add    $0x1,%eax
    86e2:	66 89 05 ef 2c 01 00 	mov    %ax,0x12cef(%rip)        # 1b3d8 <g_1131>
    86e9:	0f b7 05 e8 2c 01 00 	movzwl 0x12ce8(%rip),%eax        # 1b3d8 <g_1131>
    86f0:	66 83 f8 08          	cmp    $0x8,%ax
    86f4:	0f 8f c1 fd ff ff    	jg     84bb <func_2+0x1c35>
    86fa:	0f b7 05 e7 2a 01 00 	movzwl 0x12ae7(%rip),%eax        # 1b1e8 <g_167>
    8701:	83 c0 01             	add    $0x1,%eax
    8704:	66 89 05 dd 2a 01 00 	mov    %ax,0x12add(%rip)        # 1b1e8 <g_167>
    870b:	0f b7 05 d6 2a 01 00 	movzwl 0x12ad6(%rip),%eax        # 1b1e8 <g_167>
    8712:	66 83 f8 15          	cmp    $0x15,%ax
    8716:	0f 87 61 fd ff ff    	ja     847d <func_2+0x1bf7>
    871c:	eb 01                	jmp    871f <func_2+0x1e99>
    871e:	90                   	nop
    871f:	48 8b 05 4a 2b 01 00 	mov    0x12b4a(%rip),%rax        # 1b270 <g_273>
    8726:	48 83 c0 01          	add    $0x1,%rax
    872a:	48 89 05 3f 2b 01 00 	mov    %rax,0x12b3f(%rip)        # 1b270 <g_273>
    8731:	48 8b 05 38 2b 01 00 	mov    0x12b38(%rip),%rax        # 1b270 <g_273>
    8738:	48 83 f8 31          	cmp    $0x31,%rax
    873c:	0f 86 0e f5 ff ff    	jbe    7c50 <func_2+0x13ca>
    8742:	48 8b 05 0f 4d 01 00 	mov    0x14d0f(%rip),%rax        # 1d458 <g_3017>
    8749:	48 8b 5d d8          	mov    -0x28(%rbp),%rbx
    874d:	64 48 33 1c 25 28 00 	xor    %fs:0x28,%rbx
    8754:	00 00 
    8756:	74 05                	je     875d <func_2+0x1ed7>
    8758:	e8 13 c9 ff ff       	callq  5070 <__stack_chk_fail@plt>
    875d:	48 81 c4 f0 15 00 00 	add    $0x15f0,%rsp
    8764:	5b                   	pop    %rbx
    8765:	41 5c                	pop    %r12
    8767:	41 5d                	pop    %r13
    8769:	41 5e                	pop    %r14
    876b:	5d                   	pop    %rbp
    876c:	c3                   	retq   

000000000000876d <func_4>:
    876d:	f3 0f 1e fa          	endbr64 
    8771:	55                   	push   %rbp
    8772:	48 89 e5             	mov    %rsp,%rbp
    8775:	41 57                	push   %r15
    8777:	41 56                	push   %r14
    8779:	41 55                	push   %r13
    877b:	41 54                	push   %r12
    877d:	53                   	push   %rbx
    877e:	48 81 ec 00 10 00 00 	sub    $0x1000,%rsp
    8785:	48 83 0c 24 00       	orq    $0x0,(%rsp)
    878a:	48 81 ec 88 01 00 00 	sub    $0x188,%rsp
    8791:	48 89 bd 68 ee ff ff 	mov    %rdi,-0x1198(%rbp)
    8798:	89 b5 64 ee ff ff    	mov    %esi,-0x119c(%rbp)
    879e:	89 95 60 ee ff ff    	mov    %edx,-0x11a0(%rbp)
    87a4:	89 8d 5c ee ff ff    	mov    %ecx,-0x11a4(%rbp)
    87aa:	64 48 8b 04 25 28 00 	mov    %fs:0x28,%rax
    87b1:	00 00 
    87b3:	48 89 45 c8          	mov    %rax,-0x38(%rbp)
    87b7:	31 c0                	xor    %eax,%eax
    87b9:	48 c7 85 28 f0 ff ff 	movq   $0xfffffffffffffffa,-0xfd8(%rbp)
    87c0:	fa ff ff ff 
    87c4:	48 8d 05 05 2a 01 00 	lea    0x12a05(%rip),%rax        # 1b1d0 <g_105>
    87cb:	48 89 85 30 f0 ff ff 	mov    %rax,-0xfd0(%rbp)
    87d2:	c7 85 04 ef ff ff 3a 	movl   $0x58f7cd3a,-0x10fc(%rbp)
    87d9:	cd f7 58 
    87dc:	c7 85 9c ee ff ff c5 	movl   $0x61128ec5,-0x1164(%rbp)
    87e3:	8e 12 61 
    87e6:	c7 85 a0 ee ff ff 01 	movl   $0x1,-0x1160(%rbp)
    87ed:	00 00 00 
    87f0:	c7 85 a4 ee ff ff 70 	movl   $0xfa236570,-0x115c(%rbp)
    87f7:	65 23 fa 
    87fa:	c7 85 a8 ee ff ff 00 	movl   $0x0,-0x1158(%rbp)
    8801:	00 00 00 
    8804:	66 c7 85 80 ee ff ff 	movw   $0xfff7,-0x1180(%rbp)
    880b:	f7 ff 
    880d:	48 b8 30 b4 d4 70 af 	movabs $0xefd63faf70d4b430,%rax
    8814:	3f d6 ef 
    8817:	48 89 85 d0 ef ff ff 	mov    %rax,-0x1030(%rbp)
    881e:	48 8d 05 bb 42 01 00 	lea    0x142bb(%rip),%rax        # 1cae0 <g_1257>
    8825:	48 89 85 d8 ef ff ff 	mov    %rax,-0x1028(%rbp)
    882c:	48 8d 85 d8 ef ff ff 	lea    -0x1028(%rbp),%rax
    8833:	48 89 85 38 f0 ff ff 	mov    %rax,-0xfc8(%rbp)
    883a:	48 8d 85 a8 ee ff ff 	lea    -0x1158(%rbp),%rax
    8841:	48 89 85 40 f8 ff ff 	mov    %rax,-0x7c0(%rbp)
    8848:	48 8d 05 09 28 01 00 	lea    0x12809(%rip),%rax        # 1b058 <g_84>
    884f:	48 89 85 48 f8 ff ff 	mov    %rax,-0x7b8(%rbp)
    8856:	48 c7 85 50 f8 ff ff 	movq   $0x0,-0x7b0(%rbp)
    885d:	00 00 00 00 
    8861:	48 8d 05 b0 51 01 00 	lea    0x151b0(%rip),%rax        # 1da18 <g_1247>
    8868:	48 89 85 58 f8 ff ff 	mov    %rax,-0x7a8(%rbp)
    886f:	48 8d 05 d6 27 01 00 	lea    0x127d6(%rip),%rax        # 1b04c <g_26>
    8876:	48 89 85 60 f8 ff ff 	mov    %rax,-0x7a0(%rbp)
    887d:	48 8d 05 44 29 01 00 	lea    0x12944(%rip),%rax        # 1b1c8 <g_94>
    8884:	48 89 85 68 f8 ff ff 	mov    %rax,-0x798(%rbp)
    888b:	48 8d 05 86 51 01 00 	lea    0x15186(%rip),%rax        # 1da18 <g_1247>
    8892:	48 89 85 70 f8 ff ff 	mov    %rax,-0x790(%rbp)
    8899:	48 c7 85 78 f8 ff ff 	movq   $0x0,-0x788(%rbp)
    88a0:	00 00 00 00 
    88a4:	48 8d 85 a4 ee ff ff 	lea    -0x115c(%rbp),%rax
    88ab:	48 89 85 80 f8 ff ff 	mov    %rax,-0x780(%rbp)
    88b2:	48 8d 85 a0 ee ff ff 	lea    -0x1160(%rbp),%rax
    88b9:	48 89 85 88 f8 ff ff 	mov    %rax,-0x778(%rbp)
    88c0:	48 8d 05 85 27 01 00 	lea    0x12785(%rip),%rax        # 1b04c <g_26>
    88c7:	48 89 85 90 f8 ff ff 	mov    %rax,-0x770(%rbp)
    88ce:	48 8d 05 87 27 01 00 	lea    0x12787(%rip),%rax        # 1b05c <g_84+0x4>
    88d5:	48 89 85 98 f8 ff ff 	mov    %rax,-0x768(%rbp)
    88dc:	48 8d 85 a4 ee ff ff 	lea    -0x115c(%rbp),%rax
    88e3:	48 89 85 a0 f8 ff ff 	mov    %rax,-0x760(%rbp)
    88ea:	48 8d 05 27 51 01 00 	lea    0x15127(%rip),%rax        # 1da18 <g_1247>
    88f1:	48 89 85 a8 f8 ff ff 	mov    %rax,-0x758(%rbp)
    88f8:	48 8d 85 a4 ee ff ff 	lea    -0x115c(%rbp),%rax
    88ff:	48 89 85 b0 f8 ff ff 	mov    %rax,-0x750(%rbp)
    8906:	48 8d 05 4f 27 01 00 	lea    0x1274f(%rip),%rax        # 1b05c <g_84+0x4>
    890d:	48 89 85 b8 f8 ff ff 	mov    %rax,-0x748(%rbp)
    8914:	48 8d 05 fd 50 01 00 	lea    0x150fd(%rip),%rax        # 1da18 <g_1247>
    891b:	48 89 85 c0 f8 ff ff 	mov    %rax,-0x740(%rbp)
    8922:	48 c7 85 c8 f8 ff ff 	movq   $0x0,-0x738(%rbp)
    8929:	00 00 00 00 
    892d:	48 8d 05 2c 27 01 00 	lea    0x1272c(%rip),%rax        # 1b060 <g_84+0x8>
    8934:	48 89 85 d0 f8 ff ff 	mov    %rax,-0x730(%rbp)
    893b:	48 8d 05 d6 50 01 00 	lea    0x150d6(%rip),%rax        # 1da18 <g_1247>
    8942:	48 89 85 d8 f8 ff ff 	mov    %rax,-0x728(%rbp)
    8949:	48 8d 85 9c ee ff ff 	lea    -0x1164(%rbp),%rax
    8950:	48 89 85 e0 f8 ff ff 	mov    %rax,-0x720(%rbp)
    8957:	48 8d 85 a8 ee ff ff 	lea    -0x1158(%rbp),%rax
    895e:	48 89 85 e8 f8 ff ff 	mov    %rax,-0x718(%rbp)
    8965:	48 c7 85 f0 f8 ff ff 	movq   $0x0,-0x710(%rbp)
    896c:	00 00 00 00 
    8970:	48 8d 05 51 28 01 00 	lea    0x12851(%rip),%rax        # 1b1c8 <g_94>
    8977:	48 89 85 f8 f8 ff ff 	mov    %rax,-0x708(%rbp)
    897e:	48 8d 85 a8 ee ff ff 	lea    -0x1158(%rbp),%rax
    8985:	48 89 85 00 f9 ff ff 	mov    %rax,-0x700(%rbp)
    898c:	48 8d 85 a0 ee ff ff 	lea    -0x1160(%rbp),%rax
    8993:	48 89 85 08 f9 ff ff 	mov    %rax,-0x6f8(%rbp)
    899a:	48 c7 85 10 f9 ff ff 	movq   $0x0,-0x6f0(%rbp)
    89a1:	00 00 00 00 
    89a5:	48 8d 05 ac 26 01 00 	lea    0x126ac(%rip),%rax        # 1b058 <g_84>
    89ac:	48 89 85 18 f9 ff ff 	mov    %rax,-0x6e8(%rbp)
    89b3:	48 c7 85 20 f9 ff ff 	movq   $0x0,-0x6e0(%rbp)
    89ba:	00 00 00 00 
    89be:	48 8d 05 97 26 01 00 	lea    0x12697(%rip),%rax        # 1b05c <g_84+0x4>
    89c5:	48 89 85 28 f9 ff ff 	mov    %rax,-0x6d8(%rbp)
    89cc:	48 8d 85 9c ee ff ff 	lea    -0x1164(%rbp),%rax
    89d3:	48 89 85 30 f9 ff ff 	mov    %rax,-0x6d0(%rbp)
    89da:	48 8d 85 a8 ee ff ff 	lea    -0x1158(%rbp),%rax
    89e1:	48 89 85 38 f9 ff ff 	mov    %rax,-0x6c8(%rbp)
    89e8:	48 8d 85 a8 ee ff ff 	lea    -0x1158(%rbp),%rax
    89ef:	48 89 85 40 f9 ff ff 	mov    %rax,-0x6c0(%rbp)
    89f6:	48 8d 05 1b 50 01 00 	lea    0x1501b(%rip),%rax        # 1da18 <g_1247>
    89fd:	48 89 85 48 f9 ff ff 	mov    %rax,-0x6b8(%rbp)
    8a04:	48 8d 05 4d 26 01 00 	lea    0x1264d(%rip),%rax        # 1b058 <g_84>
    8a0b:	48 89 85 50 f9 ff ff 	mov    %rax,-0x6b0(%rbp)
    8a12:	48 c7 85 58 f9 ff ff 	movq   $0x0,-0x6a8(%rbp)
    8a19:	00 00 00 00 
    8a1d:	48 8d 85 9c ee ff ff 	lea    -0x1164(%rbp),%rax
    8a24:	48 89 85 60 f9 ff ff 	mov    %rax,-0x6a0(%rbp)
    8a2b:	48 c7 85 68 f9 ff ff 	movq   $0x0,-0x698(%rbp)
    8a32:	00 00 00 00 
    8a36:	48 c7 85 70 f9 ff ff 	movq   $0x0,-0x690(%rbp)
    8a3d:	00 00 00 00 
    8a41:	48 8d 85 a8 ee ff ff 	lea    -0x1158(%rbp),%rax
    8a48:	48 89 85 78 f9 ff ff 	mov    %rax,-0x688(%rbp)
    8a4f:	48 8d 05 0a 26 01 00 	lea    0x1260a(%rip),%rax        # 1b060 <g_84+0x8>
    8a56:	48 89 85 80 f9 ff ff 	mov    %rax,-0x680(%rbp)
    8a5d:	48 c7 85 88 f9 ff ff 	movq   $0x0,-0x678(%rbp)
    8a64:	00 00 00 00 
    8a68:	48 8d 85 a0 ee ff ff 	lea    -0x1160(%rbp),%rax
    8a6f:	48 89 85 90 f9 ff ff 	mov    %rax,-0x670(%rbp)
    8a76:	48 8d 85 9c ee ff ff 	lea    -0x1164(%rbp),%rax
    8a7d:	48 89 85 98 f9 ff ff 	mov    %rax,-0x668(%rbp)
    8a84:	48 8d 05 8d 4f 01 00 	lea    0x14f8d(%rip),%rax        # 1da18 <g_1247>
    8a8b:	48 89 85 a0 f9 ff ff 	mov    %rax,-0x660(%rbp)
    8a92:	48 c7 85 a8 f9 ff ff 	movq   $0x0,-0x658(%rbp)
    8a99:	00 00 00 00 
    8a9d:	48 8d 05 24 27 01 00 	lea    0x12724(%rip),%rax        # 1b1c8 <g_94>
    8aa4:	48 89 85 b0 f9 ff ff 	mov    %rax,-0x650(%rbp)
    8aab:	48 8d 05 a6 25 01 00 	lea    0x125a6(%rip),%rax        # 1b058 <g_84>
    8ab2:	48 89 85 b8 f9 ff ff 	mov    %rax,-0x648(%rbp)
    8ab9:	48 8d 05 58 4f 01 00 	lea    0x14f58(%rip),%rax        # 1da18 <g_1247>
    8ac0:	48 89 85 c0 f9 ff ff 	mov    %rax,-0x640(%rbp)
    8ac7:	48 8d 05 8a 25 01 00 	lea    0x1258a(%rip),%rax        # 1b058 <g_84>
    8ace:	48 89 85 c8 f9 ff ff 	mov    %rax,-0x638(%rbp)
    8ad5:	48 c7 85 d0 f9 ff ff 	movq   $0x0,-0x630(%rbp)
    8adc:	00 00 00 00 
    8ae0:	48 8d 05 65 25 01 00 	lea    0x12565(%rip),%rax        # 1b04c <g_26>
    8ae7:	48 89 85 d8 f9 ff ff 	mov    %rax,-0x628(%rbp)
    8aee:	48 8d 85 a8 ee ff ff 	lea    -0x1158(%rbp),%rax
    8af5:	48 89 85 e0 f9 ff ff 	mov    %rax,-0x620(%rbp)
    8afc:	48 c7 85 e8 f9 ff ff 	movq   $0x0,-0x618(%rbp)
    8b03:	00 00 00 00 
    8b07:	48 8d 85 a4 ee ff ff 	lea    -0x115c(%rbp),%rax
    8b0e:	48 89 85 f0 f9 ff ff 	mov    %rax,-0x610(%rbp)
    8b15:	48 8d 05 3c 25 01 00 	lea    0x1253c(%rip),%rax        # 1b058 <g_84>
    8b1c:	48 89 85 f8 f9 ff ff 	mov    %rax,-0x608(%rbp)
    8b23:	48 8d 85 a8 ee ff ff 	lea    -0x1158(%rbp),%rax
    8b2a:	48 89 85 00 fa ff ff 	mov    %rax,-0x600(%rbp)
    8b31:	48 8d 05 90 26 01 00 	lea    0x12690(%rip),%rax        # 1b1c8 <g_94>
    8b38:	48 89 85 08 fa ff ff 	mov    %rax,-0x5f8(%rbp)
    8b3f:	48 8d 85 a8 ee ff ff 	lea    -0x1158(%rbp),%rax
    8b46:	48 89 85 10 fa ff ff 	mov    %rax,-0x5f0(%rbp)
    8b4d:	48 8d 85 a0 ee ff ff 	lea    -0x1160(%rbp),%rax
    8b54:	48 89 85 18 fa ff ff 	mov    %rax,-0x5e8(%rbp)
    8b5b:	48 c7 85 20 fa ff ff 	movq   $0x0,-0x5e0(%rbp)
    8b62:	00 00 00 00 
    8b66:	48 c7 85 28 fa ff ff 	movq   $0x0,-0x5d8(%rbp)
    8b6d:	00 00 00 00 
    8b71:	48 c7 85 30 fa ff ff 	movq   $0x0,-0x5d0(%rbp)
    8b78:	00 00 00 00 
    8b7c:	48 8d 05 95 4e 01 00 	lea    0x14e95(%rip),%rax        # 1da18 <g_1247>
    8b83:	48 89 85 38 fa ff ff 	mov    %rax,-0x5c8(%rbp)
    8b8a:	48 c7 85 40 fa ff ff 	movq   $0x0,-0x5c0(%rbp)
    8b91:	00 00 00 00 
    8b95:	48 8d 05 c0 24 01 00 	lea    0x124c0(%rip),%rax        # 1b05c <g_84+0x4>
    8b9c:	48 89 85 48 fa ff ff 	mov    %rax,-0x5b8(%rbp)
    8ba3:	48 8d 05 6e 4e 01 00 	lea    0x14e6e(%rip),%rax        # 1da18 <g_1247>
    8baa:	48 89 85 50 fa ff ff 	mov    %rax,-0x5b0(%rbp)
    8bb1:	48 8d 05 a0 24 01 00 	lea    0x124a0(%rip),%rax        # 1b058 <g_84>
    8bb8:	48 89 85 58 fa ff ff 	mov    %rax,-0x5a8(%rbp)
    8bbf:	48 8d 85 a0 ee ff ff 	lea    -0x1160(%rbp),%rax
    8bc6:	48 89 85 60 fa ff ff 	mov    %rax,-0x5a0(%rbp)
    8bcd:	48 8d 05 88 24 01 00 	lea    0x12488(%rip),%rax        # 1b05c <g_84+0x4>
    8bd4:	48 89 85 68 fa ff ff 	mov    %rax,-0x598(%rbp)
    8bdb:	48 c7 85 70 fa ff ff 	movq   $0x0,-0x590(%rbp)
    8be2:	00 00 00 00 
    8be6:	48 8d 85 a4 ee ff ff 	lea    -0x115c(%rbp),%rax
    8bed:	48 89 85 78 fa ff ff 	mov    %rax,-0x588(%rbp)
    8bf4:	48 8d 85 a8 ee ff ff 	lea    -0x1158(%rbp),%rax
    8bfb:	48 89 85 80 fa ff ff 	mov    %rax,-0x580(%rbp)
    8c02:	48 8d 05 0f 4e 01 00 	lea    0x14e0f(%rip),%rax        # 1da18 <g_1247>
    8c09:	48 89 85 88 fa ff ff 	mov    %rax,-0x578(%rbp)
    8c10:	48 c7 85 90 fa ff ff 	movq   $0x0,-0x570(%rbp)
    8c17:	00 00 00 00 
    8c1b:	48 8d 05 f6 4d 01 00 	lea    0x14df6(%rip),%rax        # 1da18 <g_1247>
    8c22:	48 89 85 98 fa ff ff 	mov    %rax,-0x568(%rbp)
    8c29:	48 8d 85 a0 ee ff ff 	lea    -0x1160(%rbp),%rax
    8c30:	48 89 85 a0 fa ff ff 	mov    %rax,-0x560(%rbp)
    8c37:	48 8d 05 1a 24 01 00 	lea    0x1241a(%rip),%rax        # 1b058 <g_84>
    8c3e:	48 89 85 a8 fa ff ff 	mov    %rax,-0x558(%rbp)
    8c45:	48 8d 05 0c 24 01 00 	lea    0x1240c(%rip),%rax        # 1b058 <g_84>
    8c4c:	48 89 85 b0 fa ff ff 	mov    %rax,-0x550(%rbp)
    8c53:	48 8d 05 be 4d 01 00 	lea    0x14dbe(%rip),%rax        # 1da18 <g_1247>
    8c5a:	48 89 85 b8 fa ff ff 	mov    %rax,-0x548(%rbp)
    8c61:	48 8d 85 a0 ee ff ff 	lea    -0x1160(%rbp),%rax
    8c68:	48 89 85 c0 fa ff ff 	mov    %rax,-0x540(%rbp)
    8c6f:	48 8d 05 ea 23 01 00 	lea    0x123ea(%rip),%rax        # 1b060 <g_84+0x8>
    8c76:	48 89 85 c8 fa ff ff 	mov    %rax,-0x538(%rbp)
    8c7d:	48 8d 85 a0 ee ff ff 	lea    -0x1160(%rbp),%rax
    8c84:	48 89 85 d0 fa ff ff 	mov    %rax,-0x530(%rbp)
    8c8b:	48 8d 05 ca 23 01 00 	lea    0x123ca(%rip),%rax        # 1b05c <g_84+0x4>
    8c92:	48 89 85 d8 fa ff ff 	mov    %rax,-0x528(%rbp)
    8c99:	48 8d 05 28 25 01 00 	lea    0x12528(%rip),%rax        # 1b1c8 <g_94>
    8ca0:	48 89 85 e0 fa ff ff 	mov    %rax,-0x520(%rbp)
    8ca7:	48 8d 05 1a 25 01 00 	lea    0x1251a(%rip),%rax        # 1b1c8 <g_94>
    8cae:	48 89 85 e8 fa ff ff 	mov    %rax,-0x518(%rbp)
    8cb5:	48 8d 85 a8 ee ff ff 	lea    -0x1158(%rbp),%rax
    8cbc:	48 89 85 f0 fa ff ff 	mov    %rax,-0x510(%rbp)
    8cc3:	48 8d 05 4e 4d 01 00 	lea    0x14d4e(%rip),%rax        # 1da18 <g_1247>
    8cca:	48 89 85 f8 fa ff ff 	mov    %rax,-0x508(%rbp)
    8cd1:	48 8d 05 74 23 01 00 	lea    0x12374(%rip),%rax        # 1b04c <g_26>
    8cd8:	48 89 85 00 fb ff ff 	mov    %rax,-0x500(%rbp)
    8cdf:	48 c7 85 08 fb ff ff 	movq   $0x0,-0x4f8(%rbp)
    8ce6:	00 00 00 00 
    8cea:	48 c7 85 10 fb ff ff 	movq   $0x0,-0x4f0(%rbp)
    8cf1:	00 00 00 00 
    8cf5:	48 8d 05 5c 23 01 00 	lea    0x1235c(%rip),%rax        # 1b058 <g_84>
    8cfc:	48 89 85 18 fb ff ff 	mov    %rax,-0x4e8(%rbp)
    8d03:	48 8d 05 0e 4d 01 00 	lea    0x14d0e(%rip),%rax        # 1da18 <g_1247>
    8d0a:	48 89 85 20 fb ff ff 	mov    %rax,-0x4e0(%rbp)
    8d11:	48 8d 05 00 4d 01 00 	lea    0x14d00(%rip),%rax        # 1da18 <g_1247>
    8d18:	48 89 85 28 fb ff ff 	mov    %rax,-0x4d8(%rbp)
    8d1f:	48 8d 05 32 23 01 00 	lea    0x12332(%rip),%rax        # 1b058 <g_84>
    8d26:	48 89 85 30 fb ff ff 	mov    %rax,-0x4d0(%rbp)
    8d2d:	48 c7 85 38 fb ff ff 	movq   $0x0,-0x4c8(%rbp)
    8d34:	00 00 00 00 
    8d38:	48 8d 85 a4 ee ff ff 	lea    -0x115c(%rbp),%rax
    8d3f:	48 89 85 40 fb ff ff 	mov    %rax,-0x4c0(%rbp)
    8d46:	48 8d 85 a4 ee ff ff 	lea    -0x115c(%rbp),%rax
    8d4d:	48 89 85 48 fb ff ff 	mov    %rax,-0x4b8(%rbp)
    8d54:	48 8d 05 bd 4c 01 00 	lea    0x14cbd(%rip),%rax        # 1da18 <g_1247>
    8d5b:	48 89 85 50 fb ff ff 	mov    %rax,-0x4b0(%rbp)
    8d62:	48 c7 85 58 fb ff ff 	movq   $0x0,-0x4a8(%rbp)
    8d69:	00 00 00 00 
    8d6d:	48 8d 05 a4 4c 01 00 	lea    0x14ca4(%rip),%rax        # 1da18 <g_1247>
    8d74:	48 89 85 60 fb ff ff 	mov    %rax,-0x4a0(%rbp)
    8d7b:	48 8d 85 a0 ee ff ff 	lea    -0x1160(%rbp),%rax
    8d82:	48 89 85 68 fb ff ff 	mov    %rax,-0x498(%rbp)
    8d89:	48 8d 05 bc 22 01 00 	lea    0x122bc(%rip),%rax        # 1b04c <g_26>
    8d90:	48 89 85 70 fb ff ff 	mov    %rax,-0x490(%rbp)
    8d97:	48 8d 05 be 22 01 00 	lea    0x122be(%rip),%rax        # 1b05c <g_84+0x4>
    8d9e:	48 89 85 78 fb ff ff 	mov    %rax,-0x488(%rbp)
    8da5:	48 8d 05 ac 22 01 00 	lea    0x122ac(%rip),%rax        # 1b058 <g_84>
    8dac:	48 89 85 80 fb ff ff 	mov    %rax,-0x480(%rbp)
    8db3:	48 8d 05 5e 4c 01 00 	lea    0x14c5e(%rip),%rax        # 1da18 <g_1247>
    8dba:	48 89 85 88 fb ff ff 	mov    %rax,-0x478(%rbp)
    8dc1:	48 8d 05 84 22 01 00 	lea    0x12284(%rip),%rax        # 1b04c <g_26>
    8dc8:	48 89 85 90 fb ff ff 	mov    %rax,-0x470(%rbp)
    8dcf:	48 8d 85 a4 ee ff ff 	lea    -0x115c(%rbp),%rax
    8dd6:	48 89 85 98 fb ff ff 	mov    %rax,-0x468(%rbp)
    8ddd:	48 8d 85 a0 ee ff ff 	lea    -0x1160(%rbp),%rax
    8de4:	48 89 85 a0 fb ff ff 	mov    %rax,-0x460(%rbp)
    8deb:	48 8d 85 a0 ee ff ff 	lea    -0x1160(%rbp),%rax
    8df2:	48 89 85 a8 fb ff ff 	mov    %rax,-0x458(%rbp)
    8df9:	48 8d 85 a4 ee ff ff 	lea    -0x115c(%rbp),%rax
    8e00:	48 89 85 b0 fb ff ff 	mov    %rax,-0x450(%rbp)
    8e07:	48 8d 05 4e 22 01 00 	lea    0x1224e(%rip),%rax        # 1b05c <g_84+0x4>
    8e0e:	48 89 85 b8 fb ff ff 	mov    %rax,-0x448(%rbp)
    8e15:	48 8d 05 fc 4b 01 00 	lea    0x14bfc(%rip),%rax        # 1da18 <g_1247>
    8e1c:	48 89 85 c0 fb ff ff 	mov    %rax,-0x440(%rbp)
    8e23:	48 8d 85 9c ee ff ff 	lea    -0x1164(%rbp),%rax
    8e2a:	48 89 85 c8 fb ff ff 	mov    %rax,-0x438(%rbp)
    8e31:	48 c7 85 d0 fb ff ff 	movq   $0x0,-0x430(%rbp)
    8e38:	00 00 00 00 
    8e3c:	48 c7 85 d8 fb ff ff 	movq   $0x0,-0x428(%rbp)
    8e43:	00 00 00 00 
    8e47:	48 c7 85 e0 fb ff ff 	movq   $0x0,-0x420(%rbp)
    8e4e:	00 00 00 00 
    8e52:	48 8d 05 ff 21 01 00 	lea    0x121ff(%rip),%rax        # 1b058 <g_84>
    8e59:	48 89 85 e8 fb ff ff 	mov    %rax,-0x418(%rbp)
    8e60:	48 8d 85 a8 ee ff ff 	lea    -0x1158(%rbp),%rax
    8e67:	48 89 85 f0 fb ff ff 	mov    %rax,-0x410(%rbp)
    8e6e:	48 c7 85 f8 fb ff ff 	movq   $0x0,-0x408(%rbp)
    8e75:	00 00 00 00 
    8e79:	48 8d 05 cc 21 01 00 	lea    0x121cc(%rip),%rax        # 1b04c <g_26>
    8e80:	48 89 85 00 fc ff ff 	mov    %rax,-0x400(%rbp)
    8e87:	48 c7 85 08 fc ff ff 	movq   $0x0,-0x3f8(%rbp)
    8e8e:	00 00 00 00 
    8e92:	48 c7 85 10 fc ff ff 	movq   $0x0,-0x3f0(%rbp)
    8e99:	00 00 00 00 
    8e9d:	48 8d 05 b4 21 01 00 	lea    0x121b4(%rip),%rax        # 1b058 <g_84>
    8ea4:	48 89 85 18 fc ff ff 	mov    %rax,-0x3e8(%rbp)
    8eab:	48 8d 85 a4 ee ff ff 	lea    -0x115c(%rbp),%rax
    8eb2:	48 89 85 20 fc ff ff 	mov    %rax,-0x3e0(%rbp)
    8eb9:	48 c7 85 28 fc ff ff 	movq   $0x0,-0x3d8(%rbp)
    8ec0:	00 00 00 00 
    8ec4:	48 c7 85 30 fc ff ff 	movq   $0x0,-0x3d0(%rbp)
    8ecb:	00 00 00 00 
    8ecf:	48 8d 05 42 4b 01 00 	lea    0x14b42(%rip),%rax        # 1da18 <g_1247>
    8ed6:	48 89 85 38 fc ff ff 	mov    %rax,-0x3c8(%rbp)
    8edd:	48 8d 05 34 4b 01 00 	lea    0x14b34(%rip),%rax        # 1da18 <g_1247>
    8ee4:	48 89 85 40 fc ff ff 	mov    %rax,-0x3c0(%rbp)
    8eeb:	48 8d 05 26 4b 01 00 	lea    0x14b26(%rip),%rax        # 1da18 <g_1247>
    8ef2:	48 89 85 48 fc ff ff 	mov    %rax,-0x3b8(%rbp)
    8ef9:	48 8d 05 58 21 01 00 	lea    0x12158(%rip),%rax        # 1b058 <g_84>
    8f00:	48 89 85 50 fc ff ff 	mov    %rax,-0x3b0(%rbp)
    8f07:	48 8d 05 4e 21 01 00 	lea    0x1214e(%rip),%rax        # 1b05c <g_84+0x4>
    8f0e:	48 89 85 58 fc ff ff 	mov    %rax,-0x3a8(%rbp)
    8f15:	48 8d 05 3c 21 01 00 	lea    0x1213c(%rip),%rax        # 1b058 <g_84>
    8f1c:	48 89 85 60 fc ff ff 	mov    %rax,-0x3a0(%rbp)
    8f23:	48 8d 05 22 21 01 00 	lea    0x12122(%rip),%rax        # 1b04c <g_26>
    8f2a:	48 89 85 68 fc ff ff 	mov    %rax,-0x398(%rbp)
    8f31:	48 8d 85 a8 ee ff ff 	lea    -0x1158(%rbp),%rax
    8f38:	48 89 85 70 fc ff ff 	mov    %rax,-0x390(%rbp)
    8f3f:	48 8d 05 d2 4a 01 00 	lea    0x14ad2(%rip),%rax        # 1da18 <g_1247>
    8f46:	48 89 85 78 fc ff ff 	mov    %rax,-0x388(%rbp)
    8f4d:	48 8d 85 a8 ee ff ff 	lea    -0x1158(%rbp),%rax
    8f54:	48 89 85 80 fc ff ff 	mov    %rax,-0x380(%rbp)
    8f5b:	48 c7 85 88 fc ff ff 	movq   $0x0,-0x378(%rbp)
    8f62:	00 00 00 00 
    8f66:	48 8d 85 9c ee ff ff 	lea    -0x1164(%rbp),%rax
    8f6d:	48 89 85 90 fc ff ff 	mov    %rax,-0x370(%rbp)
    8f74:	48 8d 05 9d 4a 01 00 	lea    0x14a9d(%rip),%rax        # 1da18 <g_1247>
    8f7b:	48 89 85 98 fc ff ff 	mov    %rax,-0x368(%rbp)
    8f82:	48 c7 85 a0 fc ff ff 	movq   $0x0,-0x360(%rbp)
    8f89:	00 00 00 00 
    8f8d:	48 c7 85 a8 fc ff ff 	movq   $0x0,-0x358(%rbp)
    8f94:	00 00 00 00 
    8f98:	48 8d 05 79 4a 01 00 	lea    0x14a79(%rip),%rax        # 1da18 <g_1247>
    8f9f:	48 89 85 b0 fc ff ff 	mov    %rax,-0x350(%rbp)
    8fa6:	48 8d 85 a4 ee ff ff 	lea    -0x115c(%rbp),%rax
    8fad:	48 89 85 b8 fc ff ff 	mov    %rax,-0x348(%rbp)
    8fb4:	48 c7 85 c0 fc ff ff 	movq   $0x0,-0x340(%rbp)
    8fbb:	00 00 00 00 
    8fbf:	48 c7 85 c8 fc ff ff 	movq   $0x0,-0x338(%rbp)
    8fc6:	00 00 00 00 
    8fca:	48 c7 85 d0 fc ff ff 	movq   $0x0,-0x330(%rbp)
    8fd1:	00 00 00 00 
    8fd5:	48 8d 05 7c 20 01 00 	lea    0x1207c(%rip),%rax        # 1b058 <g_84>
    8fdc:	48 89 85 d8 fc ff ff 	mov    %rax,-0x328(%rbp)
    8fe3:	48 c7 85 e0 fc ff ff 	movq   $0x0,-0x320(%rbp)
    8fea:	00 00 00 00 
    8fee:	48 8d 05 d3 21 01 00 	lea    0x121d3(%rip),%rax        # 1b1c8 <g_94>
    8ff5:	48 89 85 e8 fc ff ff 	mov    %rax,-0x318(%rbp)
    8ffc:	48 8d 85 a0 ee ff ff 	lea    -0x1160(%rbp),%rax
    9003:	48 89 85 f0 fc ff ff 	mov    %rax,-0x310(%rbp)
    900a:	48 8d 05 07 4a 01 00 	lea    0x14a07(%rip),%rax        # 1da18 <g_1247>
    9011:	48 89 85 f8 fc ff ff 	mov    %rax,-0x308(%rbp)
    9018:	48 8d 85 a0 ee ff ff 	lea    -0x1160(%rbp),%rax
    901f:	48 89 85 00 fd ff ff 	mov    %rax,-0x300(%rbp)
    9026:	48 8d 05 2b 20 01 00 	lea    0x1202b(%rip),%rax        # 1b058 <g_84>
    902d:	48 89 85 08 fd ff ff 	mov    %rax,-0x2f8(%rbp)
    9034:	48 c7 85 10 fd ff ff 	movq   $0x0,-0x2f0(%rbp)
    903b:	00 00 00 00 
    903f:	48 8d 85 a0 ee ff ff 	lea    -0x1160(%rbp),%rax
    9046:	48 89 85 18 fd ff ff 	mov    %rax,-0x2e8(%rbp)
    904d:	48 c7 85 20 fd ff ff 	movq   $0x0,-0x2e0(%rbp)
    9054:	00 00 00 00 
    9058:	48 8d 85 a0 ee ff ff 	lea    -0x1160(%rbp),%rax
    905f:	48 89 85 28 fd ff ff 	mov    %rax,-0x2d8(%rbp)
    9066:	48 8d 05 ab 49 01 00 	lea    0x149ab(%rip),%rax        # 1da18 <g_1247>
    906d:	48 89 85 30 fd ff ff 	mov    %rax,-0x2d0(%rbp)
    9074:	48 8d 05 dd 1f 01 00 	lea    0x11fdd(%rip),%rax        # 1b058 <g_84>
    907b:	48 89 85 38 fd ff ff 	mov    %rax,-0x2c8(%rbp)
    9082:	48 8d 85 a8 ee ff ff 	lea    -0x1158(%rbp),%rax
    9089:	48 89 85 40 fd ff ff 	mov    %rax,-0x2c0(%rbp)
    9090:	48 c7 85 48 fd ff ff 	movq   $0x0,-0x2b8(%rbp)
    9097:	00 00 00 00 
    909b:	48 8d 05 b6 1f 01 00 	lea    0x11fb6(%rip),%rax        # 1b058 <g_84>
    90a2:	48 89 85 50 fd ff ff 	mov    %rax,-0x2b0(%rbp)
    90a9:	48 8d 05 9c 1f 01 00 	lea    0x11f9c(%rip),%rax        # 1b04c <g_26>
    90b0:	48 89 85 58 fd ff ff 	mov    %rax,-0x2a8(%rbp)
    90b7:	48 c7 85 60 fd ff ff 	movq   $0x0,-0x2a0(%rbp)
    90be:	00 00 00 00 
    90c2:	48 8d 05 93 1f 01 00 	lea    0x11f93(%rip),%rax        # 1b05c <g_84+0x4>
    90c9:	48 89 85 68 fd ff ff 	mov    %rax,-0x298(%rbp)
    90d0:	48 8d 85 a0 ee ff ff 	lea    -0x1160(%rbp),%rax
    90d7:	48 89 85 70 fd ff ff 	mov    %rax,-0x290(%rbp)
    90de:	48 8d 05 73 1f 01 00 	lea    0x11f73(%rip),%rax        # 1b058 <g_84>
    90e5:	48 89 85 78 fd ff ff 	mov    %rax,-0x288(%rbp)
    90ec:	48 c7 85 80 fd ff ff 	movq   $0x0,-0x280(%rbp)
    90f3:	00 00 00 00 
    90f7:	48 8d 85 a8 ee ff ff 	lea    -0x1158(%rbp),%rax
    90fe:	48 89 85 88 fd ff ff 	mov    %rax,-0x278(%rbp)
    9105:	48 8d 85 a4 ee ff ff 	lea    -0x115c(%rbp),%rax
    910c:	48 89 85 90 fd ff ff 	mov    %rax,-0x270(%rbp)
    9113:	48 8d 85 9c ee ff ff 	lea    -0x1164(%rbp),%rax
    911a:	48 89 85 98 fd ff ff 	mov    %rax,-0x268(%rbp)
    9121:	48 8d 85 a4 ee ff ff 	lea    -0x115c(%rbp),%rax
    9128:	48 89 85 a0 fd ff ff 	mov    %rax,-0x260(%rbp)
    912f:	48 8d 85 9c ee ff ff 	lea    -0x1164(%rbp),%rax
    9136:	48 89 85 a8 fd ff ff 	mov    %rax,-0x258(%rbp)
    913d:	48 8d 85 a4 ee ff ff 	lea    -0x115c(%rbp),%rax
    9144:	48 89 85 b0 fd ff ff 	mov    %rax,-0x250(%rbp)
    914b:	48 8d 85 a8 ee ff ff 	lea    -0x1158(%rbp),%rax
    9152:	48 89 85 b8 fd ff ff 	mov    %rax,-0x248(%rbp)
    9159:	48 8d 05 b8 48 01 00 	lea    0x148b8(%rip),%rax        # 1da18 <g_1247>
    9160:	48 89 85 c0 fd ff ff 	mov    %rax,-0x240(%rbp)
    9167:	48 8d 05 de 1e 01 00 	lea    0x11ede(%rip),%rax        # 1b04c <g_26>
    916e:	48 89 85 c8 fd ff ff 	mov    %rax,-0x238(%rbp)
    9175:	48 c7 85 d0 fd ff ff 	movq   $0x0,-0x230(%rbp)
    917c:	00 00 00 00 
    9180:	48 c7 85 d8 fd ff ff 	movq   $0x0,-0x228(%rbp)
    9187:	00 00 00 00 
    918b:	48 8d 05 86 48 01 00 	lea    0x14886(%rip),%rax        # 1da18 <g_1247>
    9192:	48 89 85 e0 fd ff ff 	mov    %rax,-0x220(%rbp)
    9199:	48 8d 05 78 48 01 00 	lea    0x14878(%rip),%rax        # 1da18 <g_1247>
    91a0:	48 89 85 e8 fd ff ff 	mov    %rax,-0x218(%rbp)
    91a7:	48 c7 85 f0 fd ff ff 	movq   $0x0,-0x210(%rbp)
    91ae:	00 00 00 00 
    91b2:	48 8d 85 a8 ee ff ff 	lea    -0x1158(%rbp),%rax
    91b9:	48 89 85 f8 fd ff ff 	mov    %rax,-0x208(%rbp)
    91c0:	48 8d 05 91 1e 01 00 	lea    0x11e91(%rip),%rax        # 1b058 <g_84>
    91c7:	48 89 85 00 fe ff ff 	mov    %rax,-0x200(%rbp)
    91ce:	48 8d 05 f3 1f 01 00 	lea    0x11ff3(%rip),%rax        # 1b1c8 <g_94>
    91d5:	48 89 85 08 fe ff ff 	mov    %rax,-0x1f8(%rbp)
    91dc:	48 8d 85 a8 ee ff ff 	lea    -0x1158(%rbp),%rax
    91e3:	48 89 85 10 fe ff ff 	mov    %rax,-0x1f0(%rbp)
    91ea:	48 8d 05 67 1e 01 00 	lea    0x11e67(%rip),%rax        # 1b058 <g_84>
    91f1:	48 89 85 18 fe ff ff 	mov    %rax,-0x1e8(%rbp)
    91f8:	48 8d 05 19 48 01 00 	lea    0x14819(%rip),%rax        # 1da18 <g_1247>
    91ff:	48 89 85 20 fe ff ff 	mov    %rax,-0x1e0(%rbp)
    9206:	48 8d 85 a4 ee ff ff 	lea    -0x115c(%rbp),%rax
    920d:	48 89 85 28 fe ff ff 	mov    %rax,-0x1d8(%rbp)
    9214:	48 c7 85 30 fe ff ff 	movq   $0x0,-0x1d0(%rbp)
    921b:	00 00 00 00 
    921f:	48 8d 05 a2 1f 01 00 	lea    0x11fa2(%rip),%rax        # 1b1c8 <g_94>
    9226:	48 89 85 38 fe ff ff 	mov    %rax,-0x1c8(%rbp)
    922d:	48 8d 05 e4 47 01 00 	lea    0x147e4(%rip),%rax        # 1da18 <g_1247>
    9234:	48 89 85 40 fe ff ff 	mov    %rax,-0x1c0(%rbp)
    923b:	48 8d 05 16 1e 01 00 	lea    0x11e16(%rip),%rax        # 1b058 <g_84>
    9242:	48 89 85 48 fe ff ff 	mov    %rax,-0x1b8(%rbp)
    9249:	48 c7 85 50 fe ff ff 	movq   $0x0,-0x1b0(%rbp)
    9250:	00 00 00 00 
    9254:	48 8d 05 bd 47 01 00 	lea    0x147bd(%rip),%rax        # 1da18 <g_1247>
    925b:	48 89 85 58 fe ff ff 	mov    %rax,-0x1a8(%rbp)
    9262:	48 8d 05 af 47 01 00 	lea    0x147af(%rip),%rax        # 1da18 <g_1247>
    9269:	48 89 85 60 fe ff ff 	mov    %rax,-0x1a0(%rbp)
    9270:	48 8d 05 e1 1d 01 00 	lea    0x11de1(%rip),%rax        # 1b058 <g_84>
    9277:	48 89 85 68 fe ff ff 	mov    %rax,-0x198(%rbp)
    927e:	48 8d 85 a4 ee ff ff 	lea    -0x115c(%rbp),%rax
    9285:	48 89 85 70 fe ff ff 	mov    %rax,-0x190(%rbp)
    928c:	48 8d 85 a4 ee ff ff 	lea    -0x115c(%rbp),%rax
    9293:	48 89 85 78 fe ff ff 	mov    %rax,-0x188(%rbp)
    929a:	48 8d 05 77 47 01 00 	lea    0x14777(%rip),%rax        # 1da18 <g_1247>
    92a1:	48 89 85 80 fe ff ff 	mov    %rax,-0x180(%rbp)
    92a8:	48 8d 05 a9 1d 01 00 	lea    0x11da9(%rip),%rax        # 1b058 <g_84>
    92af:	48 89 85 88 fe ff ff 	mov    %rax,-0x178(%rbp)
    92b6:	48 8d 85 a4 ee ff ff 	lea    -0x115c(%rbp),%rax
    92bd:	48 89 85 90 fe ff ff 	mov    %rax,-0x170(%rbp)
    92c4:	48 8d 85 a4 ee ff ff 	lea    -0x115c(%rbp),%rax
    92cb:	48 89 85 98 fe ff ff 	mov    %rax,-0x168(%rbp)
    92d2:	48 8d 05 3f 47 01 00 	lea    0x1473f(%rip),%rax        # 1da18 <g_1247>
    92d9:	48 89 85 a0 fe ff ff 	mov    %rax,-0x160(%rbp)
    92e0:	48 8d 05 65 1d 01 00 	lea    0x11d65(%rip),%rax        # 1b04c <g_26>
    92e7:	48 89 85 a8 fe ff ff 	mov    %rax,-0x158(%rbp)
    92ee:	48 8d 85 a0 ee ff ff 	lea    -0x1160(%rbp),%rax
    92f5:	48 89 85 b0 fe ff ff 	mov    %rax,-0x150(%rbp)
    92fc:	48 8d 05 55 1d 01 00 	lea    0x11d55(%rip),%rax        # 1b058 <g_84>
    9303:	48 89 85 b8 fe ff ff 	mov    %rax,-0x148(%rbp)
    930a:	48 c7 85 c0 fe ff ff 	movq   $0x0,-0x140(%rbp)
    9311:	00 00 00 00 
    9315:	48 c7 85 c8 fe ff ff 	movq   $0x0,-0x138(%rbp)
    931c:	00 00 00 00 
    9320:	48 c7 85 d0 fe ff ff 	movq   $0x0,-0x130(%rbp)
    9327:	00 00 00 00 
    932b:	48 8d 05 1a 1d 01 00 	lea    0x11d1a(%rip),%rax        # 1b04c <g_26>
    9332:	48 89 85 d8 fe ff ff 	mov    %rax,-0x128(%rbp)
    9339:	48 8d 05 0c 1d 01 00 	lea    0x11d0c(%rip),%rax        # 1b04c <g_26>
    9340:	48 89 85 e0 fe ff ff 	mov    %rax,-0x120(%rbp)
    9347:	48 c7 85 e8 fe ff ff 	movq   $0x0,-0x118(%rbp)
    934e:	00 00 00 00 
    9352:	48 8d 05 bf 46 01 00 	lea    0x146bf(%rip),%rax        # 1da18 <g_1247>
    9359:	48 89 85 f0 fe ff ff 	mov    %rax,-0x110(%rbp)
    9360:	48 c7 85 f8 fe ff ff 	movq   $0x0,-0x108(%rbp)
    9367:	00 00 00 00 
    936b:	48 8d 85 a4 ee ff ff 	lea    -0x115c(%rbp),%rax
    9372:	48 89 85 00 ff ff ff 	mov    %rax,-0x100(%rbp)
    9379:	48 8d 85 a4 ee ff ff 	lea    -0x115c(%rbp),%rax
    9380:	48 89 85 08 ff ff ff 	mov    %rax,-0xf8(%rbp)
    9387:	48 8d 05 ca 1c 01 00 	lea    0x11cca(%rip),%rax        # 1b058 <g_84>
    938e:	48 89 85 10 ff ff ff 	mov    %rax,-0xf0(%rbp)
    9395:	48 8d 85 9c ee ff ff 	lea    -0x1164(%rbp),%rax
    939c:	48 89 85 18 ff ff ff 	mov    %rax,-0xe8(%rbp)
    93a3:	48 c7 85 20 ff ff ff 	movq   $0x0,-0xe0(%rbp)
    93aa:	00 00 00 00 
    93ae:	48 8d 05 63 46 01 00 	lea    0x14663(%rip),%rax        # 1da18 <g_1247>
    93b5:	48 89 85 28 ff ff ff 	mov    %rax,-0xd8(%rbp)
    93bc:	48 c7 85 30 ff ff ff 	movq   $0x0,-0xd0(%rbp)
    93c3:	00 00 00 00 
    93c7:	48 8d 85 a4 ee ff ff 	lea    -0x115c(%rbp),%rax
    93ce:	48 89 85 38 ff ff ff 	mov    %rax,-0xc8(%rbp)
    93d5:	48 8d 85 a8 ee ff ff 	lea    -0x1158(%rbp),%rax
    93dc:	48 89 85 40 ff ff ff 	mov    %rax,-0xc0(%rbp)
    93e3:	48 8d 05 6e 1c 01 00 	lea    0x11c6e(%rip),%rax        # 1b058 <g_84>
    93ea:	48 89 85 48 ff ff ff 	mov    %rax,-0xb8(%rbp)
    93f1:	48 c7 85 50 ff ff ff 	movq   $0x0,-0xb0(%rbp)
    93f8:	00 00 00 00 
    93fc:	48 c7 85 58 ff ff ff 	movq   $0x0,-0xa8(%rbp)
    9403:	00 00 00 00 
    9407:	48 8d 05 ba 1d 01 00 	lea    0x11dba(%rip),%rax        # 1b1c8 <g_94>
    940e:	48 89 85 60 ff ff ff 	mov    %rax,-0xa0(%rbp)
    9415:	48 8d 05 3c 1c 01 00 	lea    0x11c3c(%rip),%rax        # 1b058 <g_84>
    941c:	48 89 85 68 ff ff ff 	mov    %rax,-0x98(%rbp)
    9423:	48 8d 05 2e 1c 01 00 	lea    0x11c2e(%rip),%rax        # 1b058 <g_84>
    942a:	48 89 85 70 ff ff ff 	mov    %rax,-0x90(%rbp)
    9431:	48 8d 05 e0 45 01 00 	lea    0x145e0(%rip),%rax        # 1da18 <g_1247>
    9438:	48 89 85 78 ff ff ff 	mov    %rax,-0x88(%rbp)
    943f:	48 8d 05 06 1c 01 00 	lea    0x11c06(%rip),%rax        # 1b04c <g_26>
    9446:	48 89 45 80          	mov    %rax,-0x80(%rbp)
    944a:	48 8d 05 0b 1c 01 00 	lea    0x11c0b(%rip),%rax        # 1b05c <g_84+0x4>
    9451:	48 89 45 88          	mov    %rax,-0x78(%rbp)
    9455:	48 8d 85 a4 ee ff ff 	lea    -0x115c(%rbp),%rax
    945c:	48 89 45 90          	mov    %rax,-0x70(%rbp)
    9460:	48 8d 85 a0 ee ff ff 	lea    -0x1160(%rbp),%rax
    9467:	48 89 45 98          	mov    %rax,-0x68(%rbp)
    946b:	48 8d 85 a0 ee ff ff 	lea    -0x1160(%rbp),%rax
    9472:	48 89 45 a0          	mov    %rax,-0x60(%rbp)
    9476:	48 8d 85 a4 ee ff ff 	lea    -0x115c(%rbp),%rax
    947d:	48 89 45 a8          	mov    %rax,-0x58(%rbp)
    9481:	48 8d 05 c4 1b 01 00 	lea    0x11bc4(%rip),%rax        # 1b04c <g_26>
    9488:	48 89 45 b0          	mov    %rax,-0x50(%rbp)
    948c:	48 8d 05 85 45 01 00 	lea    0x14585(%rip),%rax        # 1da18 <g_1247>
    9493:	48 89 45 b8          	mov    %rax,-0x48(%rbp)
    9497:	48 8d 85 40 f8 ff ff 	lea    -0x7c0(%rbp),%rax
    949e:	48 83 c0 40          	add    $0x40,%rax
    94a2:	48 89 85 40 f0 ff ff 	mov    %rax,-0xfc0(%rbp)
    94a9:	48 8d 85 e8 f2 ff ff 	lea    -0xd18(%rbp),%rax
    94b0:	48 89 85 48 f0 ff ff 	mov    %rax,-0xfb8(%rbp)
    94b7:	66 c7 85 82 ee ff ff 	movw   $0x42c0,-0x117e(%rbp)
    94be:	c0 42 
    94c0:	c6 85 73 ee ff ff b2 	movb   $0xb2,-0x118d(%rbp)
    94c7:	48 b8 cd 0a 8f 95 3d 	movabs $0xa6c7693d958f0acd,%rax
    94ce:	69 c7 a6 
    94d1:	48 89 85 e0 ef ff ff 	mov    %rax,-0x1020(%rbp)
    94d8:	c6 85 74 ee ff ff a2 	movb   $0xa2,-0x118c(%rbp)
    94df:	48 8d 05 2a 32 01 00 	lea    0x1322a(%rip),%rax        # 1c710 <g_267+0x10>
    94e6:	48 89 85 e8 ef ff ff 	mov    %rax,-0x1018(%rbp)
    94ed:	48 8d 85 e8 ef ff ff 	lea    -0x1018(%rbp),%rax
    94f4:	48 89 85 50 f0 ff ff 	mov    %rax,-0xfb0(%rbp)
    94fb:	48 c7 85 58 f0 ff ff 	movq   $0xffffffffffffffff,-0xfa8(%rbp)
    9502:	ff ff ff ff 
    9506:	c7 85 08 ef ff ff 01 	movl   $0x1,-0x10f8(%rbp)
    950d:	00 00 00 
    9510:	48 8d 05 f1 35 01 00 	lea    0x135f1(%rip),%rax        # 1cb08 <g_1532>
    9517:	48 89 85 60 f0 ff ff 	mov    %rax,-0xfa0(%rbp)
    951e:	c7 85 0c ef ff ff 00 	movl   $0x0,-0x10f4(%rbp)
    9525:	00 00 00 
    9528:	66 c7 85 84 ee ff ff 	movw   $0x4,-0x117c(%rbp)
    952f:	04 00 
    9531:	c7 85 10 ef ff ff a1 	movl   $0x9e0025a1,-0x10f0(%rbp)
    9538:	25 00 9e 
    953b:	c7 85 14 ef ff ff 00 	movl   $0x0,-0x10ec(%rbp)
    9542:	00 00 00 
    9545:	c6 85 75 ee ff ff 00 	movb   $0x0,-0x118b(%rbp)
    954c:	66 c7 85 86 ee ff ff 	movw   $0x8216,-0x117a(%rbp)
    9553:	16 82 
    9555:	48 8d 05 ac 38 01 00 	lea    0x138ac(%rip),%rax        # 1ce08 <g_1775>
    955c:	48 89 85 30 f4 ff ff 	mov    %rax,-0xbd0(%rbp)
    9563:	48 8d 05 9e 38 01 00 	lea    0x1389e(%rip),%rax        # 1ce08 <g_1775>
    956a:	48 89 85 38 f4 ff ff 	mov    %rax,-0xbc8(%rbp)
    9571:	48 8d 05 90 38 01 00 	lea    0x13890(%rip),%rax        # 1ce08 <g_1775>
    9578:	48 89 85 40 f4 ff ff 	mov    %rax,-0xbc0(%rbp)
    957f:	48 8d 05 82 38 01 00 	lea    0x13882(%rip),%rax        # 1ce08 <g_1775>
    9586:	48 89 85 48 f4 ff ff 	mov    %rax,-0xbb8(%rbp)
    958d:	48 8d 05 74 38 01 00 	lea    0x13874(%rip),%rax        # 1ce08 <g_1775>
    9594:	48 89 85 50 f4 ff ff 	mov    %rax,-0xbb0(%rbp)
    959b:	48 8d 05 66 38 01 00 	lea    0x13866(%rip),%rax        # 1ce08 <g_1775>
    95a2:	48 89 85 58 f4 ff ff 	mov    %rax,-0xba8(%rbp)
    95a9:	48 8d 05 58 38 01 00 	lea    0x13858(%rip),%rax        # 1ce08 <g_1775>
    95b0:	48 89 85 60 f4 ff ff 	mov    %rax,-0xba0(%rbp)
    95b7:	48 8d 05 4a 38 01 00 	lea    0x1384a(%rip),%rax        # 1ce08 <g_1775>
    95be:	48 89 85 68 f4 ff ff 	mov    %rax,-0xb98(%rbp)
    95c5:	c7 85 70 f4 ff ff 8d 	movl   $0xe2b20e8d,-0xb90(%rbp)
    95cc:	0e b2 e2 
    95cf:	c7 85 74 f4 ff ff 8d 	movl   $0xe2b20e8d,-0xb8c(%rbp)
    95d6:	0e b2 e2 
    95d9:	c7 85 78 f4 ff ff 7e 	movl   $0x716e237e,-0xb88(%rbp)
    95e0:	23 6e 71 
    95e3:	c7 85 7c f4 ff ff 07 	movl   $0x7,-0xb84(%rbp)
    95ea:	00 00 00 
    95ed:	c7 85 80 f4 ff ff 00 	movl   $0x0,-0xb80(%rbp)
    95f4:	00 00 00 
    95f7:	c7 85 84 f4 ff ff 7e 	movl   $0x716e237e,-0xb7c(%rbp)
    95fe:	23 6e 71 
    9601:	c7 85 88 f4 ff ff 00 	movl   $0x0,-0xb78(%rbp)
    9608:	00 00 00 
    960b:	c7 85 8c f4 ff ff 63 	movl   $0x2439ee63,-0xb74(%rbp)
    9612:	ee 39 24 
    9615:	c7 85 90 f4 ff ff b2 	movl   $0x36299fb2,-0xb70(%rbp)
    961c:	9f 29 36 
    961f:	c7 85 94 f4 ff ff 07 	movl   $0x7,-0xb6c(%rbp)
    9626:	00 00 00 
    9629:	c7 85 98 f4 ff ff 63 	movl   $0x2439ee63,-0xb68(%rbp)
    9630:	ee 39 24 
    9633:	c7 85 9c f4 ff ff 00 	movl   $0x0,-0xb64(%rbp)
    963a:	00 00 00 
    963d:	c7 85 a0 f4 ff ff 8d 	movl   $0xe2b20e8d,-0xb60(%rbp)
    9644:	0e b2 e2 
    9647:	c7 85 a4 f4 ff ff 00 	movl   $0x0,-0xb5c(%rbp)
    964e:	00 00 00 
    9651:	c7 85 a8 f4 ff ff b2 	movl   $0x36299fb2,-0xb58(%rbp)
    9658:	9f 29 36 
    965b:	c7 85 ac f4 ff ff 8d 	movl   $0xe2b20e8d,-0xb54(%rbp)
    9662:	0e b2 e2 
    9665:	c7 85 b0 f4 ff ff 8d 	movl   $0xe2b20e8d,-0xb50(%rbp)
    966c:	0e b2 e2 
    966f:	c7 85 b4 f4 ff ff 7e 	movl   $0x716e237e,-0xb4c(%rbp)
    9676:	23 6e 71 
    9679:	c7 85 b8 f4 ff ff 07 	movl   $0x7,-0xb48(%rbp)
    9680:	00 00 00 
    9683:	c7 85 bc f4 ff ff 00 	movl   $0x0,-0xb44(%rbp)
    968a:	00 00 00 
    968d:	c7 85 c0 f4 ff ff 7e 	movl   $0x716e237e,-0xb40(%rbp)
    9694:	23 6e 71 
    9697:	c7 85 c4 f4 ff ff 00 	movl   $0x0,-0xb3c(%rbp)
    969e:	00 00 00 
    96a1:	c7 85 c8 f4 ff ff 63 	movl   $0x2439ee63,-0xb38(%rbp)
    96a8:	ee 39 24 
    96ab:	c7 85 cc f4 ff ff b2 	movl   $0x36299fb2,-0xb34(%rbp)
    96b2:	9f 29 36 
    96b5:	c7 85 d0 f4 ff ff 07 	movl   $0x7,-0xb30(%rbp)
    96bc:	00 00 00 
    96bf:	c7 85 d4 f4 ff ff 63 	movl   $0x2439ee63,-0xb2c(%rbp)
    96c6:	ee 39 24 
    96c9:	c7 85 d8 f4 ff ff 00 	movl   $0x0,-0xb28(%rbp)
    96d0:	00 00 00 
    96d3:	c7 85 dc f4 ff ff 8d 	movl   $0xe2b20e8d,-0xb24(%rbp)
    96da:	0e b2 e2 
    96dd:	c7 85 e0 f4 ff ff 00 	movl   $0x0,-0xb20(%rbp)
    96e4:	00 00 00 
    96e7:	c7 85 e4 f4 ff ff b2 	movl   $0x36299fb2,-0xb1c(%rbp)
    96ee:	9f 29 36 
    96f1:	48 b8 71 9e c0 fe b4 	movabs $0x9c9d97b4fec09e71,%rax
    96f8:	97 9d 9c 
    96fb:	48 89 85 68 f0 ff ff 	mov    %rax,-0xf98(%rbp)
    9702:	48 c7 85 70 f0 ff ff 	movq   $0x0,-0xf90(%rbp)
    9709:	00 00 00 00 
    970d:	c7 85 18 ef ff ff ef 	movl   $0xa6bf4def,-0x10e8(%rbp)
    9714:	4d bf a6 
    9717:	48 8d 05 62 3a 01 00 	lea    0x13a62(%rip),%rax        # 1d180 <g_2073>
    971e:	48 89 85 78 f0 ff ff 	mov    %rax,-0xf88(%rbp)
    9725:	48 b8 e2 46 b1 fd b8 	movabs $0xffc807b8fdb146e2,%rax
    972c:	07 c8 ff 
    972f:	48 89 85 80 f0 ff ff 	mov    %rax,-0xf80(%rbp)
    9736:	48 8d 05 63 36 01 00 	lea    0x13663(%rip),%rax        # 1cda0 <g_1629>
    973d:	48 89 85 88 f0 ff ff 	mov    %rax,-0xf78(%rbp)
    9744:	c6 85 76 ee ff ff ff 	movb   $0xff,-0x118a(%rbp)
    974b:	c6 85 77 ee ff ff 20 	movb   $0x20,-0x1189(%rbp)
    9752:	c6 85 78 ee ff ff 00 	movb   $0x0,-0x1188(%rbp)
    9759:	66 c7 85 88 ee ff ff 	movw   $0xffff,-0x1178(%rbp)
    9760:	ff ff 
    9762:	66 c7 85 8a ee ff ff 	movw   $0xd8a1,-0x1176(%rbp)
    9769:	a1 d8 
    976b:	66 c7 85 8c ee ff ff 	movw   $0xfffb,-0x1174(%rbp)
    9772:	fb ff 
    9774:	c7 85 1c ef ff ff c7 	movl   $0xe60942c7,-0x10e4(%rbp)
    977b:	42 09 e6 
    977e:	c7 85 20 ef ff ff ff 	movl   $0xffffffff,-0x10e0(%rbp)
    9785:	ff ff ff 
    9788:	c7 85 bc ee ff ff 00 	movl   $0x0,-0x1144(%rbp)
    978f:	00 00 00 
    9792:	eb 1b                	jmp    97af <func_4+0x1042>
    9794:	8b 85 bc ee ff ff    	mov    -0x1144(%rbp),%eax
    979a:	48 98                	cltq   
    979c:	48 c7 84 c5 e8 f2 ff 	movq   $0x0,-0xd18(%rbp,%rax,8)
    97a3:	ff 00 00 00 00 
    97a8:	83 85 bc ee ff ff 01 	addl   $0x1,-0x1144(%rbp)
    97af:	83 bd bc ee ff ff 00 	cmpl   $0x0,-0x1144(%rbp)
    97b6:	7e dc                	jle    9794 <func_4+0x1027>
    97b8:	c7 85 bc ee ff ff 00 	movl   $0x0,-0x1144(%rbp)
    97bf:	00 00 00 
    97c2:	eb 1b                	jmp    97df <func_4+0x1072>
    97c4:	8b 85 bc ee ff ff    	mov    -0x1144(%rbp),%eax
    97ca:	48 98                	cltq   
    97cc:	48 c7 84 c5 c0 f3 ff 	movq   $0xfffffffffffffff9,-0xc40(%rbp,%rax,8)
    97d3:	ff f9 ff ff ff 
    97d8:	83 85 bc ee ff ff 01 	addl   $0x1,-0x1144(%rbp)
    97df:	83 bd bc ee ff ff 05 	cmpl   $0x5,-0x1144(%rbp)
    97e6:	7e dc                	jle    97c4 <func_4+0x1057>
    97e8:	c7 85 bc ee ff ff 00 	movl   $0x0,-0x1144(%rbp)
    97ef:	00 00 00 
    97f2:	eb 1e                	jmp    9812 <func_4+0x10a5>
    97f4:	8b 85 bc ee ff ff    	mov    -0x1144(%rbp),%eax
    97fa:	48 98                	cltq   
    97fc:	48 8d 15 0d 33 01 00 	lea    0x1330d(%rip),%rdx        # 1cb10 <g_1576>
    9803:	48 89 94 c5 60 f3 ff 	mov    %rdx,-0xca0(%rbp,%rax,8)
    980a:	ff 
    980b:	83 85 bc ee ff ff 01 	addl   $0x1,-0x1144(%rbp)
    9812:	83 bd bc ee ff ff 04 	cmpl   $0x4,-0x1144(%rbp)
    9819:	7e d9                	jle    97f4 <func_4+0x1087>
    981b:	c7 85 bc ee ff ff 00 	movl   $0x0,-0x1144(%rbp)
    9822:	00 00 00 
    9825:	eb 14                	jmp    983b <func_4+0x10ce>
    9827:	8b 85 bc ee ff ff    	mov    -0x1144(%rbp),%eax
    982d:	48 98                	cltq   
    982f:	c6 44 05 c4 04       	movb   $0x4,-0x3c(%rbp,%rax,1)
    9834:	83 85 bc ee ff ff 01 	addl   $0x1,-0x1144(%rbp)
    983b:	83 bd bc ee ff ff 03 	cmpl   $0x3,-0x1144(%rbp)
    9842:	7e e3                	jle    9827 <func_4+0x10ba>
    9844:	48 83 bd 28 f0 ff ff 	cmpq   $0x0,-0xfd8(%rbp)
    984b:	00 
    984c:	0f 84 28 22 00 00    	je     ba7a <func_4+0x330d>
    9852:	c7 85 10 f3 ff ff 00 	movl   $0x0,-0xcf0(%rbp)
    9859:	00 00 00 
    985c:	c7 85 14 f3 ff ff 00 	movl   $0x0,-0xcec(%rbp)
    9863:	00 00 00 
    9866:	c7 85 18 f3 ff ff c6 	movl   $0xc96e06c6,-0xce8(%rbp)
    986d:	06 6e c9 
    9870:	c7 85 1c f3 ff ff 00 	movl   $0x0,-0xce4(%rbp)
    9877:	00 00 00 
    987a:	c7 85 20 f3 ff ff 00 	movl   $0x0,-0xce0(%rbp)
    9881:	00 00 00 
    9884:	c7 85 24 f3 ff ff c6 	movl   $0xc96e06c6,-0xcdc(%rbp)
    988b:	06 6e c9 
    988e:	c7 85 28 f3 ff ff 00 	movl   $0x0,-0xcd8(%rbp)
    9895:	00 00 00 
    9898:	48 8d 05 9b 17 01 00 	lea    0x1179b(%rip),%rax        # 1b03a <g_23+0xa>
    989f:	48 89 85 a0 f0 ff ff 	mov    %rax,-0xf60(%rbp)
    98a6:	c7 85 c0 ee ff ff 07 	movl   $0x7,-0x1140(%rbp)
    98ad:	00 00 00 
    98b0:	c7 85 00 f3 ff ff 7b 	movl   $0xe2805b7b,-0xd00(%rbp)
    98b7:	5b 80 e2 
    98ba:	c7 85 04 f3 ff ff 7b 	movl   $0xe2805b7b,-0xcfc(%rbp)
    98c1:	5b 80 e2 
    98c4:	c7 85 08 f3 ff ff 7b 	movl   $0xe2805b7b,-0xcf8(%rbp)
    98cb:	5b 80 e2 
    98ce:	c7 85 0c f3 ff ff 7b 	movl   $0xe2805b7b,-0xcf4(%rbp)
    98d5:	5b 80 e2 
    98d8:	48 c7 85 a8 f0 ff ff 	movq   $0x0,-0xf58(%rbp)
    98df:	00 00 00 00 
    98e3:	c7 85 f0 ef ff ff f6 	movl   $0xf2e541f6,-0x1010(%rbp)
    98ea:	41 e5 f2 
    98ed:	48 c7 85 b0 f0 ff ff 	movq   $0x0,-0xf50(%rbp)
    98f4:	00 00 00 00 
    98f8:	c7 85 30 f3 ff ff 3c 	movl   $0xcc6ba63c,-0xcd0(%rbp)
    98ff:	a6 6b cc 
    9902:	c7 85 34 f3 ff ff 3c 	movl   $0xcc6ba63c,-0xccc(%rbp)
    9909:	a6 6b cc 
    990c:	c7 85 38 f3 ff ff 3c 	movl   $0xcc6ba63c,-0xcc8(%rbp)
    9913:	a6 6b cc 
    9916:	c7 85 3c f3 ff ff 3c 	movl   $0xcc6ba63c,-0xcc4(%rbp)
    991d:	a6 6b cc 
    9920:	c7 85 40 f3 ff ff 3c 	movl   $0xcc6ba63c,-0xcc0(%rbp)
    9927:	a6 6b cc 
    992a:	c7 85 44 f3 ff ff 3c 	movl   $0xcc6ba63c,-0xcbc(%rbp)
    9931:	a6 6b cc 
    9934:	c7 85 48 f3 ff ff 3c 	movl   $0xcc6ba63c,-0xcb8(%rbp)
    993b:	a6 6b cc 
    993e:	c7 85 4c f3 ff ff 3c 	movl   $0xcc6ba63c,-0xcb4(%rbp)
    9945:	a6 6b cc 
    9948:	c7 85 50 f3 ff ff 3c 	movl   $0xcc6ba63c,-0xcb0(%rbp)
    994f:	a6 6b cc 
    9952:	48 8d 05 87 18 01 00 	lea    0x11887(%rip),%rax        # 1b1e0 <g_158>
    9959:	48 89 85 b8 f0 ff ff 	mov    %rax,-0xf48(%rbp)
    9960:	66 c7 05 0f 19 01 00 	movw   $0x0,0x1190f(%rip)        # 1b278 <g_314>
    9967:	00 00 
    9969:	e9 f1 1b 00 00       	jmpq   b55f <func_4+0x2df2>
    996e:	48 8d 85 f0 f4 ff ff 	lea    -0xb10(%rbp),%rax
    9975:	48 8d 15 a4 d0 00 00 	lea    0xd0a4(%rip),%rdx        # 16a20 <g_1383+0x5cc>
    997c:	b9 23 00 00 00       	mov    $0x23,%ecx
    9981:	48 89 c7             	mov    %rax,%rdi
    9984:	48 89 d6             	mov    %rdx,%rsi
    9987:	f3 48 a5             	rep movsq %ds:(%rsi),%es:(%rdi)
    998a:	c7 85 f8 ef ff ff 09 	movl   $0x9,-0x1008(%rbp)
    9991:	00 00 00 
    9994:	c7 85 24 ef ff ff 00 	movl   $0x0,-0x10dc(%rbp)
    999b:	00 00 00 
    999e:	c7 85 00 f0 ff ff 01 	movl   $0x1,-0x1000(%rbp)
    99a5:	00 00 00 
    99a8:	48 8d 05 31 31 01 00 	lea    0x13131(%rip),%rax        # 1cae0 <g_1257>
    99af:	48 89 85 08 f0 ff ff 	mov    %rax,-0xff8(%rbp)
    99b6:	48 8d 85 08 f0 ff ff 	lea    -0xff8(%rbp),%rax
    99bd:	48 89 85 f8 f0 ff ff 	mov    %rax,-0xf08(%rbp)
    99c4:	48 8d 05 65 2d 01 00 	lea    0x12d65(%rip),%rax        # 1c730 <g_372>
    99cb:	48 89 85 00 f1 ff ff 	mov    %rax,-0xf00(%rbp)
    99d2:	48 c7 85 08 f1 ff ff 	movq   $0xfffffffffffffffc,-0xef8(%rbp)
    99d9:	fc ff ff ff 
    99dd:	48 8d 05 9c 18 01 00 	lea    0x1189c(%rip),%rax        # 1b280 <g_346>
    99e4:	48 89 85 10 f1 ff ff 	mov    %rax,-0xef0(%rbp)
    99eb:	48 8b 9d e8 f2 ff ff 	mov    -0xd18(%rbp),%rbx
    99f2:	83 bd 60 ee ff ff 00 	cmpl   $0x0,-0x11a0(%rbp)
    99f9:	75 31                	jne    9a2c <func_4+0x12bf>
    99fb:	44 8b a5 14 f3 ff ff 	mov    -0xcec(%rbp),%r12d
    9a02:	be 94 ff ff ff       	mov    $0xffffff94,%esi
    9a07:	bf 01 00 00 00       	mov    $0x1,%edi
    9a0c:	e8 c3 b7 ff ff       	callq  51d4 <safe_add_func_int8_t_s_s>
    9a11:	0f be c0             	movsbl %al,%eax
    9a14:	41 39 c4             	cmp    %eax,%r12d
    9a17:	0f 94 c0             	sete   %al
    9a1a:	0f b6 d0             	movzbl %al,%edx
    9a1d:	48 8b 85 68 ee ff ff 	mov    -0x1198(%rbp),%rax
    9a24:	8b 00                	mov    (%rax),%eax
    9a26:	09 d0                	or     %edx,%eax
    9a28:	85 c0                	test   %eax,%eax
    9a2a:	74 07                	je     9a33 <func_4+0x12c6>
    9a2c:	b8 01 00 00 00       	mov    $0x1,%eax
    9a31:	eb 05                	jmp    9a38 <func_4+0x12cb>
    9a33:	b8 00 00 00 00       	mov    $0x0,%eax
    9a38:	0f be c0             	movsbl %al,%eax
    9a3b:	89 c6                	mov    %eax,%esi
    9a3d:	bf 04 00 00 00       	mov    $0x4,%edi
    9a42:	e8 ab b7 ff ff       	callq  51f2 <safe_sub_func_int8_t_s_s>
    9a47:	c0 e8 07             	shr    $0x7,%al
    9a4a:	0f b6 c0             	movzbl %al,%eax
    9a4d:	48 8b 95 a0 f0 ff ff 	mov    -0xf60(%rbp),%rdx
    9a54:	48 89 de             	mov    %rbx,%rsi
    9a57:	89 c7                	mov    %eax,%edi
    9a59:	e8 eb a7 00 00       	callq  14249 <func_57>
    9a5e:	48 8d 15 8b 19 01 00 	lea    0x1198b(%rip),%rdx        # 1b3f0 <g_1166>
    9a65:	48 39 d0             	cmp    %rdx,%rax
    9a68:	0f 95 c0             	setne  %al
    9a6b:	0f b6 d0             	movzbl %al,%edx
    9a6e:	48 8b 85 58 f5 ff ff 	mov    -0xaa8(%rbp),%rax
    9a75:	89 c1                	mov    %eax,%ecx
    9a77:	8b 85 f8 ef ff ff    	mov    -0x1008(%rbp),%eax
    9a7d:	09 c8                	or     %ecx,%eax
    9a7f:	89 85 f8 ef ff ff    	mov    %eax,-0x1008(%rbp)
    9a85:	8b 85 f8 ef ff ff    	mov    -0x1008(%rbp),%eax
    9a8b:	0f b7 c0             	movzwl %ax,%eax
    9a8e:	89 d6                	mov    %edx,%esi
    9a90:	89 c7                	mov    %eax,%edi
    9a92:	e8 68 c2 ff ff       	callq  5cff <safe_add_func_uint16_t_u_u>
    9a97:	98                   	cwtl   
    9a98:	be 0d 00 00 00       	mov    $0xd,%esi
    9a9d:	89 c7                	mov    %eax,%edi
    9a9f:	e8 bf ba ff ff       	callq  5563 <safe_rshift_func_int16_t_s_u>
    9aa4:	c6 85 79 ee ff ff 00 	movb   $0x0,-0x1187(%rbp)
    9aab:	c7 85 c4 ee ff ff f6 	movl   $0xfffffff6,-0x113c(%rbp)
    9ab2:	ff ff ff 
    9ab5:	48 8d 05 e0 18 01 00 	lea    0x118e0(%rip),%rax        # 1b39c <g_623>
    9abc:	48 89 85 10 f0 ff ff 	mov    %rax,-0xff0(%rbp)
    9ac3:	48 8d 85 e8 f2 ff ff 	lea    -0xd18(%rbp),%rax
    9aca:	48 89 85 18 f1 ff ff 	mov    %rax,-0xee8(%rbp)
    9ad1:	48 8d 05 f8 16 01 00 	lea    0x116f8(%rip),%rax        # 1b1d0 <g_105>
    9ad8:	48 89 85 20 f1 ff ff 	mov    %rax,-0xee0(%rbp)
    9adf:	48 8d 05 1a 3f 01 00 	lea    0x13f1a(%rip),%rax        # 1da00 <g_952>
    9ae6:	48 89 85 28 f1 ff ff 	mov    %rax,-0xed8(%rbp)
    9aed:	c7 85 c8 ee ff ff 00 	movl   $0x0,-0x1138(%rbp)
    9af4:	00 00 00 
    9af7:	eb 4e                	jmp    9b47 <func_4+0x13da>
    9af9:	c7 85 cc ee ff ff 00 	movl   $0x0,-0x1134(%rbp)
    9b00:	00 00 00 
    9b03:	eb 32                	jmp    9b37 <func_4+0x13ca>
    9b05:	8b 85 cc ee ff ff    	mov    -0x1134(%rbp),%eax
    9b0b:	48 63 c8             	movslq %eax,%rcx
    9b0e:	8b 85 c8 ee ff ff    	mov    -0x1138(%rbp),%eax
    9b14:	48 63 d0             	movslq %eax,%rdx
    9b17:	48 89 d0             	mov    %rdx,%rax
    9b1a:	48 c1 e0 02          	shl    $0x2,%rax
    9b1e:	48 01 d0             	add    %rdx,%rax
    9b21:	48 01 c8             	add    %rcx,%rax
    9b24:	48 c7 84 c5 90 f3 ff 	movq   $0x0,-0xc70(%rbp,%rax,8)
    9b2b:	ff 00 00 00 00 
    9b30:	83 85 cc ee ff ff 01 	addl   $0x1,-0x1134(%rbp)
    9b37:	83 bd cc ee ff ff 04 	cmpl   $0x4,-0x1134(%rbp)
    9b3e:	7e c5                	jle    9b05 <func_4+0x1398>
    9b40:	83 85 c8 ee ff ff 01 	addl   $0x1,-0x1138(%rbp)
    9b47:	83 bd c8 ee ff ff 00 	cmpl   $0x0,-0x1138(%rbp)
    9b4e:	7e a9                	jle    9af9 <func_4+0x138c>
    9b50:	48 c7 05 45 18 01 00 	movq   $0x0,0x11845(%rip)        # 1b3a0 <g_844>
    9b57:	00 00 00 00 
    9b5b:	e9 60 04 00 00       	jmpq   9fc0 <func_4+0x1853>
    9b60:	c7 85 40 ef ff ff 00 	movl   $0x0,-0x10c0(%rbp)
    9b67:	00 00 00 
    9b6a:	48 c7 05 6b 16 01 00 	movq   $0x0,0x1166b(%rip)        # 1b1e0 <g_158>
    9b71:	00 00 00 00 
    9b75:	e9 02 01 00 00       	jmpq   9c7c <func_4+0x150f>
    9b7a:	0f b7 05 f7 16 01 00 	movzwl 0x116f7(%rip),%eax        # 1b278 <g_314>
    9b81:	0f b7 c0             	movzwl %ax,%eax
    9b84:	48 8b 15 15 18 01 00 	mov    0x11815(%rip),%rdx        # 1b3a0 <g_844>
    9b8b:	48 8d 72 04          	lea    0x4(%rdx),%rsi
    9b8f:	0f b7 15 e2 16 01 00 	movzwl 0x116e2(%rip),%edx        # 1b278 <g_314>
    9b96:	0f b7 d2             	movzwl %dx,%edx
    9b99:	48 63 ca             	movslq %edx,%rcx
    9b9c:	48 63 d0             	movslq %eax,%rdx
    9b9f:	48 89 d0             	mov    %rdx,%rax
    9ba2:	48 c1 e0 03          	shl    $0x3,%rax
    9ba6:	48 01 d0             	add    %rdx,%rax
    9ba9:	48 01 f0             	add    %rsi,%rax
    9bac:	48 01 c0             	add    %rax,%rax
    9baf:	48 01 c8             	add    %rcx,%rax
    9bb2:	48 8d 14 c5 00 00 00 	lea    0x0(,%rax,8),%rdx
    9bb9:	00 
    9bba:	48 8d 05 bf 14 01 00 	lea    0x114bf(%rip),%rax        # 1b080 <g_88>
    9bc1:	48 8b 04 02          	mov    (%rdx,%rax,1),%rax
    9bc5:	98                   	cwtl   
    9bc6:	be 0d 00 00 00       	mov    $0xd,%esi
    9bcb:	89 c7                	mov    %eax,%edi
    9bcd:	e8 91 b9 ff ff       	callq  5563 <safe_rshift_func_int16_t_s_u>
    9bd2:	48 8b 95 68 ee ff ff 	mov    -0x1198(%rbp),%rdx
    9bd9:	8b 12                	mov    (%rdx),%edx
    9bdb:	98                   	cwtl   
    9bdc:	31 c2                	xor    %eax,%edx
    9bde:	48 8b 85 68 ee ff ff 	mov    -0x1198(%rbp),%rax
    9be5:	89 10                	mov    %edx,(%rax)
    9be7:	0f b7 05 8a 16 01 00 	movzwl 0x1168a(%rip),%eax        # 1b278 <g_314>
    9bee:	0f b7 c0             	movzwl %ax,%eax
    9bf1:	48 8b 15 a8 17 01 00 	mov    0x117a8(%rip),%rdx        # 1b3a0 <g_844>
    9bf8:	48 8d 72 04          	lea    0x4(%rdx),%rsi
    9bfc:	0f b7 15 75 16 01 00 	movzwl 0x11675(%rip),%edx        # 1b278 <g_314>
    9c03:	0f b7 d2             	movzwl %dx,%edx
    9c06:	48 63 ca             	movslq %edx,%rcx
    9c09:	48 63 d0             	movslq %eax,%rdx
    9c0c:	48 89 d0             	mov    %rdx,%rax
    9c0f:	48 c1 e0 03          	shl    $0x3,%rax
    9c13:	48 01 d0             	add    %rdx,%rax
    9c16:	48 01 f0             	add    %rsi,%rax
    9c19:	48 01 c0             	add    %rax,%rax
    9c1c:	48 01 c8             	add    %rcx,%rax
    9c1f:	48 8d 14 c5 00 00 00 	lea    0x0(,%rax,8),%rdx
    9c26:	00 
    9c27:	48 8d 05 52 14 01 00 	lea    0x11452(%rip),%rax        # 1b080 <g_88>
    9c2e:	48 8b 04 02          	mov    (%rdx,%rax,1),%rax
    9c32:	48 85 c0             	test   %rax,%rax
    9c35:	75 32                	jne    9c69 <func_4+0x14fc>
    9c37:	48 8b 05 b2 2e 01 00 	mov    0x12eb2(%rip),%rax        # 1caf0 <g_1260>
    9c3e:	0f b7 00             	movzwl (%rax),%eax
    9c41:	0f b7 c0             	movzwl %ax,%eax
    9c44:	be 0a 00 00 00       	mov    $0xa,%esi
    9c49:	89 c7                	mov    %eax,%edi
    9c4b:	e8 b6 c1 ff ff       	callq  5e06 <safe_lshift_func_uint16_t_u_u>
    9c50:	48 8b 95 68 ee ff ff 	mov    -0x1198(%rbp),%rdx
    9c57:	8b 12                	mov    (%rdx),%edx
    9c59:	0f b7 c0             	movzwl %ax,%eax
    9c5c:	09 c2                	or     %eax,%edx
    9c5e:	48 8b 85 68 ee ff ff 	mov    -0x1198(%rbp),%rax
    9c65:	89 10                	mov    %edx,(%rax)
    9c67:	eb 01                	jmp    9c6a <func_4+0x14fd>
    9c69:	90                   	nop
    9c6a:	48 8b 05 6f 15 01 00 	mov    0x1156f(%rip),%rax        # 1b1e0 <g_158>
    9c71:	48 83 c0 01          	add    $0x1,%rax
    9c75:	48 89 05 64 15 01 00 	mov    %rax,0x11564(%rip)        # 1b1e0 <g_158>
    9c7c:	48 8b 05 5d 15 01 00 	mov    0x1155d(%rip),%rax        # 1b1e0 <g_158>
    9c83:	48 83 f8 02          	cmp    $0x2,%rax
    9c87:	0f 8e ed fe ff ff    	jle    9b7a <func_4+0x140d>
    9c8d:	48 8b 05 5c 2e 01 00 	mov    0x12e5c(%rip),%rax        # 1caf0 <g_1260>
    9c94:	0f b7 00             	movzwl (%rax),%eax
    9c97:	0f b7 d8             	movzwl %ax,%ebx
    9c9a:	48 0f be 85 79 ee ff 	movsbq -0x1187(%rbp),%rax
    9ca1:	ff 
    9ca2:	48 be c7 aa 3e 71 32 	movabs $0x734c1632713eaac7,%rsi
    9ca9:	16 4c 73 
    9cac:	48 89 c7             	mov    %rax,%rdi
    9caf:	e8 00 bd ff ff       	callq  59b4 <safe_mod_func_int64_t_s_s>
    9cb4:	ba 01 00 00 00       	mov    $0x1,%edx
    9cb9:	48 8b 05 28 2a 01 00 	mov    0x12a28(%rip),%rax        # 1c6e8 <g_135>
    9cc0:	81 e2 fd 00 00 00    	and    $0xfd,%edx
    9cc6:	89 10                	mov    %edx,(%rax)
    9cc8:	8b 00                	mov    (%rax),%eax
    9cca:	39 85 40 ef ff ff    	cmp    %eax,-0x10c0(%rbp)
    9cd0:	0f 95 c0             	setne  %al
    9cd3:	0f b6 c0             	movzbl %al,%eax
    9cd6:	39 85 60 ee ff ff    	cmp    %eax,-0x11a0(%rbp)
    9cdc:	0f 92 c0             	setb   %al
    9cdf:	0f b6 c0             	movzbl %al,%eax
    9ce2:	be 05 00 00 00       	mov    $0x5,%esi
    9ce7:	89 c7                	mov    %eax,%edi
    9ce9:	e8 47 b6 ff ff       	callq  5335 <safe_rshift_func_int8_t_s_s>
    9cee:	84 c0                	test   %al,%al
    9cf0:	75 0a                	jne    9cfc <func_4+0x158f>
    9cf2:	8b 85 24 f3 ff ff    	mov    -0xcdc(%rbp),%eax
    9cf8:	85 c0                	test   %eax,%eax
    9cfa:	74 07                	je     9d03 <func_4+0x1596>
    9cfc:	b8 01 00 00 00       	mov    $0x1,%eax
    9d01:	eb 05                	jmp    9d08 <func_4+0x159b>
    9d03:	b8 00 00 00 00       	mov    $0x0,%eax
    9d08:	39 d8                	cmp    %ebx,%eax
    9d0a:	0f 94 c0             	sete   %al
    9d0d:	48 8d 15 38 13 01 00 	lea    0x11338(%rip),%rdx        # 1b04c <g_26>
    9d14:	0f b6 c0             	movzbl %al,%eax
    9d17:	89 02                	mov    %eax,(%rdx)
    9d19:	c6 05 b8 14 01 00 00 	movb   $0x0,0x114b8(%rip)        # 1b1d8 <g_120>
    9d20:	e9 7a 02 00 00       	jmpq   9f9f <func_4+0x1832>
    9d25:	c7 85 44 ef ff ff 01 	movl   $0x1,-0x10bc(%rbp)
    9d2c:	00 00 00 
    9d2f:	c7 85 d0 ee ff ff 00 	movl   $0x0,-0x1130(%rbp)
    9d36:	00 00 00 
    9d39:	eb 1b                	jmp    9d56 <func_4+0x15e9>
    9d3b:	8b 85 d0 ee ff ff    	mov    -0x1130(%rbp),%eax
    9d41:	48 98                	cltq   
    9d43:	48 c7 84 c5 10 f6 ff 	movq   $0x0,-0x9f0(%rbp,%rax,8)
    9d4a:	ff 00 00 00 00 
    9d4f:	83 85 d0 ee ff ff 01 	addl   $0x1,-0x1130(%rbp)
    9d56:	83 bd d0 ee ff ff 07 	cmpl   $0x7,-0x1130(%rbp)
    9d5d:	7e dc                	jle    9d3b <func_4+0x15ce>
    9d5f:	48 8b 05 8a 2d 01 00 	mov    0x12d8a(%rip),%rax        # 1caf0 <g_1260>
    9d66:	0f b7 00             	movzwl (%rax),%eax
    9d69:	44 0f bf e0          	movswl %ax,%r12d
    9d6d:	44 8b ad 5c ee ff ff 	mov    -0x11a4(%rbp),%r13d
    9d74:	48 8b 85 58 f5 ff ff 	mov    -0xaa8(%rbp),%rax
    9d7b:	41 89 c6             	mov    %eax,%r14d
    9d7e:	8b 85 5c ee ff ff    	mov    -0x11a4(%rbp),%eax
    9d84:	0f b7 d0             	movzwl %ax,%edx
    9d87:	8b 85 60 ee ff ff    	mov    -0x11a0(%rbp),%eax
    9d8d:	0f b7 c0             	movzwl %ax,%eax
    9d90:	89 d6                	mov    %edx,%esi
    9d92:	89 c7                	mov    %eax,%edi
    9d94:	e8 f5 bf ff ff       	callq  5d8e <safe_div_func_uint16_t_u_u>
    9d99:	0f b7 c0             	movzwl %ax,%eax
    9d9c:	be 05 00 00 00       	mov    $0x5,%esi
    9da1:	89 c7                	mov    %eax,%edi
    9da3:	e8 95 bf ff ff       	callq  5d3d <safe_mul_func_uint16_t_u_u>
    9da8:	0f be c0             	movsbl %al,%eax
    9dab:	be 01 00 00 00       	mov    $0x1,%esi
    9db0:	89 c7                	mov    %eax,%edi
    9db2:	e8 ea b4 ff ff       	callq  52a1 <safe_lshift_func_int8_t_s_s>
    9db7:	8b 95 64 ee ff ff    	mov    -0x119c(%rbp),%edx
    9dbd:	8b 85 5c ee ff ff    	mov    -0x11a4(%rbp),%eax
    9dc3:	0f be c0             	movsbl %al,%eax
    9dc6:	48 8b 1d f3 28 01 00 	mov    0x128f3(%rip),%rbx        # 1c6c0 <g_27>
    9dcd:	89 d6                	mov    %edx,%esi
    9dcf:	89 c7                	mov    %eax,%edi
    9dd1:	e8 5f b5 ff ff       	callq  5335 <safe_rshift_func_int8_t_s_s>
    9dd6:	88 03                	mov    %al,(%rbx)
    9dd8:	0f b6 03             	movzbl (%rbx),%eax
    9ddb:	0f be d0             	movsbl %al,%edx
    9dde:	8b 85 f8 ef ff ff    	mov    -0x1008(%rbp),%eax
    9de4:	21 d0                	and    %edx,%eax
    9de6:	89 85 f8 ef ff ff    	mov    %eax,-0x1008(%rbp)
    9dec:	8b 85 f8 ef ff ff    	mov    -0x1008(%rbp),%eax
    9df2:	0f be c0             	movsbl %al,%eax
    9df5:	44 89 f6             	mov    %r14d,%esi
    9df8:	89 c7                	mov    %eax,%edi
    9dfa:	e8 36 b5 ff ff       	callq  5335 <safe_rshift_func_int8_t_s_s>
    9dff:	66 98                	cbtw   
    9e01:	0f b7 c0             	movzwl %ax,%eax
    9e04:	44 89 ee             	mov    %r13d,%esi
    9e07:	89 c7                	mov    %eax,%edi
    9e09:	e8 3a c0 ff ff       	callq  5e48 <safe_rshift_func_uint16_t_u_s>
    9e0e:	81 bd 5c ee ff ff 95 	cmpl   $0x5195,-0x11a4(%rbp)
    9e15:	51 00 00 
    9e18:	0f 94 c0             	sete   %al
    9e1b:	0f b6 c0             	movzbl %al,%eax
    9e1e:	89 85 44 ef ff ff    	mov    %eax,-0x10bc(%rbp)
    9e24:	0f be 85 79 ee ff ff 	movsbl -0x1187(%rbp),%eax
    9e2b:	39 85 44 ef ff ff    	cmp    %eax,-0x10bc(%rbp)
    9e31:	0f 95 c0             	setne  %al
    9e34:	0f b6 c0             	movzbl %al,%eax
    9e37:	39 85 04 ef ff ff    	cmp    %eax,-0x10fc(%rbp)
    9e3d:	0f 93 c0             	setae  %al
    9e40:	0f b6 c8             	movzbl %al,%ecx
    9e43:	0f b6 05 8e 13 01 00 	movzbl 0x1138e(%rip),%eax        # 1b1d8 <g_120>
    9e4a:	0f b6 d0             	movzbl %al,%edx
    9e4d:	0f b6 05 84 13 01 00 	movzbl 0x11384(%rip),%eax        # 1b1d8 <g_120>
    9e54:	0f b6 c0             	movzbl %al,%eax
    9e57:	0f b7 35 1a 14 01 00 	movzwl 0x1141a(%rip),%esi        # 1b278 <g_314>
    9e5e:	0f b7 f6             	movzwl %si,%esi
    9e61:	48 63 f6             	movslq %esi,%rsi
    9e64:	48 63 d2             	movslq %edx,%rdx
    9e67:	48 63 f8             	movslq %eax,%rdi
    9e6a:	48 89 d0             	mov    %rdx,%rax
    9e6d:	48 c1 e0 03          	shl    $0x3,%rax
    9e71:	48 01 d0             	add    %rdx,%rax
    9e74:	48 01 f8             	add    %rdi,%rax
    9e77:	48 01 c0             	add    %rax,%rax
    9e7a:	48 01 f0             	add    %rsi,%rax
    9e7d:	48 8d 14 c5 00 00 00 	lea    0x0(,%rax,8),%rdx
    9e84:	00 
    9e85:	48 8d 05 f4 11 01 00 	lea    0x111f4(%rip),%rax        # 1b080 <g_88>
    9e8c:	48 8b 04 02          	mov    (%rdx,%rax,1),%rax
    9e90:	31 c8                	xor    %ecx,%eax
    9e92:	0f bf c8             	movswl %ax,%ecx
    9e95:	0f b6 05 3c 13 01 00 	movzbl 0x1133c(%rip),%eax        # 1b1d8 <g_120>
    9e9c:	0f b6 d0             	movzbl %al,%edx
    9e9f:	0f b6 05 32 13 01 00 	movzbl 0x11332(%rip),%eax        # 1b1d8 <g_120>
    9ea6:	0f b6 c0             	movzbl %al,%eax
    9ea9:	0f b7 35 c8 13 01 00 	movzwl 0x113c8(%rip),%esi        # 1b278 <g_314>
    9eb0:	0f b7 f6             	movzwl %si,%esi
    9eb3:	48 63 f6             	movslq %esi,%rsi
    9eb6:	48 63 d2             	movslq %edx,%rdx
    9eb9:	48 63 f8             	movslq %eax,%rdi
    9ebc:	48 89 d0             	mov    %rdx,%rax
    9ebf:	48 c1 e0 03          	shl    $0x3,%rax
    9ec3:	48 01 d0             	add    %rdx,%rax
    9ec6:	48 01 f8             	add    %rdi,%rax
    9ec9:	48 01 c0             	add    %rax,%rax
    9ecc:	48 01 f0             	add    %rsi,%rax
    9ecf:	48 8d 14 c5 00 00 00 	lea    0x0(,%rax,8),%rdx
    9ed6:	00 
    9ed7:	48 8d 05 a2 11 01 00 	lea    0x111a2(%rip),%rax        # 1b080 <g_88>
    9ede:	48 8b 04 02          	mov    (%rdx,%rax,1),%rax
    9ee2:	98                   	cwtl   
    9ee3:	89 ce                	mov    %ecx,%esi
    9ee5:	89 c7                	mov    %eax,%edi
    9ee7:	e8 09 b5 ff ff       	callq  53f5 <safe_mul_func_int16_t_s_s>
    9eec:	98                   	cwtl   
    9eed:	89 85 c0 ee ff ff    	mov    %eax,-0x1140(%rbp)
    9ef3:	0f b6 05 de 12 01 00 	movzbl 0x112de(%rip),%eax        # 1b1d8 <g_120>
    9efa:	0f b6 d0             	movzbl %al,%edx
    9efd:	0f b6 05 d4 12 01 00 	movzbl 0x112d4(%rip),%eax        # 1b1d8 <g_120>
    9f04:	0f b6 c0             	movzbl %al,%eax
    9f07:	0f b7 0d 6a 13 01 00 	movzwl 0x1136a(%rip),%ecx        # 1b278 <g_314>
    9f0e:	0f b7 c9             	movzwl %cx,%ecx
    9f11:	48 63 c9             	movslq %ecx,%rcx
    9f14:	48 63 d2             	movslq %edx,%rdx
    9f17:	48 63 f0             	movslq %eax,%rsi
    9f1a:	48 89 d0             	mov    %rdx,%rax
    9f1d:	48 c1 e0 03          	shl    $0x3,%rax
    9f21:	48 01 d0             	add    %rdx,%rax
    9f24:	48 01 f0             	add    %rsi,%rax
    9f27:	48 01 c0             	add    %rax,%rax
    9f2a:	48 01 c8             	add    %rcx,%rax
    9f2d:	48 8d 14 c5 00 00 00 	lea    0x0(,%rax,8),%rdx
    9f34:	00 
    9f35:	48 8d 05 44 11 01 00 	lea    0x11144(%rip),%rax        # 1b080 <g_88>
    9f3c:	48 8b 04 02          	mov    (%rdx,%rax,1),%rax
    9f40:	98                   	cwtl   
    9f41:	89 c6                	mov    %eax,%esi
    9f43:	bf 00 00 00 00       	mov    $0x0,%edi
    9f48:	e8 66 b4 ff ff       	callq  53b3 <safe_add_func_int16_t_s_s>
    9f4d:	0f be c0             	movsbl %al,%eax
    9f50:	8b 95 c0 ee ff ff    	mov    -0x1140(%rbp),%edx
    9f56:	89 d6                	mov    %edx,%esi
    9f58:	89 c7                	mov    %eax,%edi
    9f5a:	e8 d6 b3 ff ff       	callq  5335 <safe_rshift_func_int8_t_s_s>
    9f5f:	0f be c0             	movsbl %al,%eax
    9f62:	44 89 e6             	mov    %r12d,%esi
    9f65:	89 c7                	mov    %eax,%edi
    9f67:	e8 89 b4 ff ff       	callq  53f5 <safe_mul_func_int16_t_s_s>
    9f6c:	48 8b 05 75 27 01 00 	mov    0x12775(%rip),%rax        # 1c6e8 <g_135>
    9f73:	48 8b 95 68 ee ff ff 	mov    -0x1198(%rbp),%rdx
    9f7a:	8b 12                	mov    (%rdx),%edx
    9f7c:	89 10                	mov    %edx,(%rax)
    9f7e:	48 8b 05 9b 27 01 00 	mov    0x1279b(%rip),%rax        # 1c720 <g_319>
    9f85:	48 8d 95 64 ee ff ff 	lea    -0x119c(%rbp),%rdx
    9f8c:	48 89 10             	mov    %rdx,(%rax)
    9f8f:	0f b6 05 42 12 01 00 	movzbl 0x11242(%rip),%eax        # 1b1d8 <g_120>
    9f96:	83 c0 01             	add    $0x1,%eax
    9f99:	88 05 39 12 01 00    	mov    %al,0x11239(%rip)        # 1b1d8 <g_120>
    9f9f:	0f b6 05 32 12 01 00 	movzbl 0x11232(%rip),%eax        # 1b1d8 <g_120>
    9fa6:	3c 01                	cmp    $0x1,%al
    9fa8:	0f 86 77 fd ff ff    	jbe    9d25 <func_4+0x15b8>
    9fae:	48 8b 05 eb 13 01 00 	mov    0x113eb(%rip),%rax        # 1b3a0 <g_844>
    9fb5:	48 83 c0 01          	add    $0x1,%rax
    9fb9:	48 89 05 e0 13 01 00 	mov    %rax,0x113e0(%rip)        # 1b3a0 <g_844>
    9fc0:	48 8b 05 d9 13 01 00 	mov    0x113d9(%rip),%rax        # 1b3a0 <g_844>
    9fc7:	48 83 f8 02          	cmp    $0x2,%rax
    9fcb:	0f 8e 8f fb ff ff    	jle    9b60 <func_4+0x13f3>
    9fd1:	48 8b 05 10 27 01 00 	mov    0x12710(%rip),%rax        # 1c6e8 <g_135>
    9fd8:	8b 95 5c ee ff ff    	mov    -0x11a4(%rbp),%edx
    9fde:	89 10                	mov    %edx,(%rax)
    9fe0:	48 8d 15 65 10 01 00 	lea    0x11065(%rip),%rdx        # 1b04c <g_26>
    9fe7:	8b 00                	mov    (%rax),%eax
    9fe9:	89 02                	mov    %eax,(%rdx)
    9feb:	48 83 bd 28 f0 ff ff 	cmpq   $0x0,-0xfd8(%rbp)
    9ff2:	00 
    9ff3:	75 3b                	jne    a030 <func_4+0x18c3>
    9ff5:	8b 85 04 ef ff ff    	mov    -0x10fc(%rbp),%eax
    9ffb:	0f b6 d0             	movzbl %al,%edx
    9ffe:	48 8b 05 7b 27 01 00 	mov    0x1277b(%rip),%rax        # 1c780 <g_429>
    a005:	48 8b 00             	mov    (%rax),%rax
    a008:	0f b6 00             	movzbl (%rax),%eax
    a00b:	0f b6 c0             	movzbl %al,%eax
    a00e:	89 d6                	mov    %edx,%esi
    a010:	89 c7                	mov    %eax,%edi
    a012:	e8 7c bb ff ff       	callq  5b93 <safe_mul_func_uint8_t_u_u>
    a017:	0f b6 c0             	movzbl %al,%eax
    a01a:	23 85 5c ee ff ff    	and    -0x11a4(%rbp),%eax
    a020:	8b 95 64 ee ff ff    	mov    -0x119c(%rbp),%edx
    a026:	09 d0                	or     %edx,%eax
    a028:	85 c0                	test   %eax,%eax
    a02a:	0f 84 f6 07 00 00    	je     a826 <func_4+0x20b9>
    a030:	48 c7 85 18 f0 ff ff 	movq   $0xfffffffffffffff7,-0xfe8(%rbp)
    a037:	f7 ff ff ff 
    a03b:	66 c7 85 90 ee ff ff 	movw   $0xffff,-0x1170(%rbp)
    a042:	ff ff 
    a044:	48 8d 85 18 f0 ff ff 	lea    -0xfe8(%rbp),%rax
    a04b:	48 89 85 f0 f3 ff ff 	mov    %rax,-0xc10(%rbp)
    a052:	48 8d 85 18 f0 ff ff 	lea    -0xfe8(%rbp),%rax
    a059:	48 89 85 f8 f3 ff ff 	mov    %rax,-0xc08(%rbp)
    a060:	48 8d 85 18 f0 ff ff 	lea    -0xfe8(%rbp),%rax
    a067:	48 89 85 00 f4 ff ff 	mov    %rax,-0xc00(%rbp)
    a06e:	48 8d 85 18 f0 ff ff 	lea    -0xfe8(%rbp),%rax
    a075:	48 89 85 08 f4 ff ff 	mov    %rax,-0xbf8(%rbp)
    a07c:	48 8d 85 18 f0 ff ff 	lea    -0xfe8(%rbp),%rax
    a083:	48 89 85 10 f4 ff ff 	mov    %rax,-0xbf0(%rbp)
    a08a:	48 8d 85 18 f0 ff ff 	lea    -0xfe8(%rbp),%rax
    a091:	48 89 85 18 f4 ff ff 	mov    %rax,-0xbe8(%rbp)
    a098:	48 c7 05 cd 11 01 00 	movq   $0x0,0x111cd(%rip)        # 1b270 <g_273>
    a09f:	00 00 00 00 
    a0a3:	e9 6a 05 00 00       	jmpq   a612 <func_4+0x1ea5>
    a0a8:	48 8d 85 f8 ef ff ff 	lea    -0x1008(%rbp),%rax
    a0af:	48 89 85 38 f1 ff ff 	mov    %rax,-0xec8(%rbp)
    a0b6:	48 8d 05 0b 11 01 00 	lea    0x1110b(%rip),%rax        # 1b1c8 <g_94>
    a0bd:	48 89 85 10 f6 ff ff 	mov    %rax,-0x9f0(%rbp)
    a0c4:	48 8d 05 8d 0f 01 00 	lea    0x10f8d(%rip),%rax        # 1b058 <g_84>
    a0cb:	48 89 85 18 f6 ff ff 	mov    %rax,-0x9e8(%rbp)
    a0d2:	48 8d 05 7f 0f 01 00 	lea    0x10f7f(%rip),%rax        # 1b058 <g_84>
    a0d9:	48 89 85 20 f6 ff ff 	mov    %rax,-0x9e0(%rbp)
    a0e0:	48 8d 05 e1 10 01 00 	lea    0x110e1(%rip),%rax        # 1b1c8 <g_94>
    a0e7:	48 89 85 28 f6 ff ff 	mov    %rax,-0x9d8(%rbp)
    a0ee:	48 8d 05 63 0f 01 00 	lea    0x10f63(%rip),%rax        # 1b058 <g_84>
    a0f5:	48 89 85 30 f6 ff ff 	mov    %rax,-0x9d0(%rbp)
    a0fc:	48 8d 85 f8 ef ff ff 	lea    -0x1008(%rbp),%rax
    a103:	48 89 85 38 f6 ff ff 	mov    %rax,-0x9c8(%rbp)
    a10a:	48 8d 05 07 39 01 00 	lea    0x13907(%rip),%rax        # 1da18 <g_1247>
    a111:	48 89 85 40 f6 ff ff 	mov    %rax,-0x9c0(%rbp)
    a118:	48 c7 85 48 f6 ff ff 	movq   $0x0,-0x9b8(%rbp)
    a11f:	00 00 00 00 
    a123:	48 8d 05 32 0f 01 00 	lea    0x10f32(%rip),%rax        # 1b05c <g_84+0x4>
    a12a:	48 89 85 50 f6 ff ff 	mov    %rax,-0x9b0(%rbp)
    a131:	48 c7 85 58 f6 ff ff 	movq   $0x0,-0x9a8(%rbp)
    a138:	00 00 00 00 
    a13c:	48 8d 05 d5 38 01 00 	lea    0x138d5(%rip),%rax        # 1da18 <g_1247>
    a143:	48 89 85 60 f6 ff ff 	mov    %rax,-0x9a0(%rbp)
    a14a:	48 8d 85 f8 ef ff ff 	lea    -0x1008(%rbp),%rax
    a151:	48 89 85 68 f6 ff ff 	mov    %rax,-0x998(%rbp)
    a158:	48 8d 05 f9 0e 01 00 	lea    0x10ef9(%rip),%rax        # 1b058 <g_84>
    a15f:	48 89 85 70 f6 ff ff 	mov    %rax,-0x990(%rbp)
    a166:	48 8d 05 5b 10 01 00 	lea    0x1105b(%rip),%rax        # 1b1c8 <g_94>
    a16d:	48 89 85 78 f6 ff ff 	mov    %rax,-0x988(%rbp)
    a174:	48 8d 05 dd 0e 01 00 	lea    0x10edd(%rip),%rax        # 1b058 <g_84>
    a17b:	48 89 85 80 f6 ff ff 	mov    %rax,-0x980(%rbp)
    a182:	48 8d 05 cf 0e 01 00 	lea    0x10ecf(%rip),%rax        # 1b058 <g_84>
    a189:	48 89 85 88 f6 ff ff 	mov    %rax,-0x978(%rbp)
    a190:	48 8d 05 31 10 01 00 	lea    0x11031(%rip),%rax        # 1b1c8 <g_94>
    a197:	48 89 85 90 f6 ff ff 	mov    %rax,-0x970(%rbp)
    a19e:	48 8d 05 b3 0e 01 00 	lea    0x10eb3(%rip),%rax        # 1b058 <g_84>
    a1a5:	48 89 85 98 f6 ff ff 	mov    %rax,-0x968(%rbp)
    a1ac:	48 8d 85 f8 ef ff ff 	lea    -0x1008(%rbp),%rax
    a1b3:	48 89 85 a0 f6 ff ff 	mov    %rax,-0x960(%rbp)
    a1ba:	48 8d 05 57 38 01 00 	lea    0x13857(%rip),%rax        # 1da18 <g_1247>
    a1c1:	48 89 85 a8 f6 ff ff 	mov    %rax,-0x958(%rbp)
    a1c8:	48 c7 85 b0 f6 ff ff 	movq   $0x0,-0x950(%rbp)
    a1cf:	00 00 00 00 
    a1d3:	48 8d 05 82 0e 01 00 	lea    0x10e82(%rip),%rax        # 1b05c <g_84+0x4>
    a1da:	48 89 85 b8 f6 ff ff 	mov    %rax,-0x948(%rbp)
    a1e1:	48 c7 85 c0 f6 ff ff 	movq   $0x0,-0x940(%rbp)
    a1e8:	00 00 00 00 
    a1ec:	48 8d 05 25 38 01 00 	lea    0x13825(%rip),%rax        # 1da18 <g_1247>
    a1f3:	48 89 85 c8 f6 ff ff 	mov    %rax,-0x938(%rbp)
    a1fa:	48 8d 85 f8 ef ff ff 	lea    -0x1008(%rbp),%rax
    a201:	48 89 85 d0 f6 ff ff 	mov    %rax,-0x930(%rbp)
    a208:	48 8d 05 49 0e 01 00 	lea    0x10e49(%rip),%rax        # 1b058 <g_84>
    a20f:	48 89 85 d8 f6 ff ff 	mov    %rax,-0x928(%rbp)
    a216:	48 8d 05 ab 0f 01 00 	lea    0x10fab(%rip),%rax        # 1b1c8 <g_94>
    a21d:	48 89 85 e0 f6 ff ff 	mov    %rax,-0x920(%rbp)
    a224:	48 8d 05 2d 0e 01 00 	lea    0x10e2d(%rip),%rax        # 1b058 <g_84>
    a22b:	48 89 85 e8 f6 ff ff 	mov    %rax,-0x918(%rbp)
    a232:	48 8d 05 1f 0e 01 00 	lea    0x10e1f(%rip),%rax        # 1b058 <g_84>
    a239:	48 89 85 f0 f6 ff ff 	mov    %rax,-0x910(%rbp)
    a240:	48 8d 05 81 0f 01 00 	lea    0x10f81(%rip),%rax        # 1b1c8 <g_94>
    a247:	48 89 85 f8 f6 ff ff 	mov    %rax,-0x908(%rbp)
    a24e:	48 8d 05 03 0e 01 00 	lea    0x10e03(%rip),%rax        # 1b058 <g_84>
    a255:	48 89 85 00 f7 ff ff 	mov    %rax,-0x900(%rbp)
    a25c:	48 8d 85 f8 ef ff ff 	lea    -0x1008(%rbp),%rax
    a263:	48 89 85 08 f7 ff ff 	mov    %rax,-0x8f8(%rbp)
    a26a:	48 8d 05 a7 37 01 00 	lea    0x137a7(%rip),%rax        # 1da18 <g_1247>
    a271:	48 89 85 10 f7 ff ff 	mov    %rax,-0x8f0(%rbp)
    a278:	48 c7 85 18 f7 ff ff 	movq   $0x0,-0x8e8(%rbp)
    a27f:	00 00 00 00 
    a283:	48 8d 05 d2 0d 01 00 	lea    0x10dd2(%rip),%rax        # 1b05c <g_84+0x4>
    a28a:	48 89 85 20 f7 ff ff 	mov    %rax,-0x8e0(%rbp)
    a291:	48 c7 85 28 f7 ff ff 	movq   $0x0,-0x8d8(%rbp)
    a298:	00 00 00 00 
    a29c:	48 8d 05 75 37 01 00 	lea    0x13775(%rip),%rax        # 1da18 <g_1247>
    a2a3:	48 89 85 30 f7 ff ff 	mov    %rax,-0x8d0(%rbp)
    a2aa:	48 8d 85 f8 ef ff ff 	lea    -0x1008(%rbp),%rax
    a2b1:	48 89 85 38 f7 ff ff 	mov    %rax,-0x8c8(%rbp)
    a2b8:	48 8d 05 99 0d 01 00 	lea    0x10d99(%rip),%rax        # 1b058 <g_84>
    a2bf:	48 89 85 40 f7 ff ff 	mov    %rax,-0x8c0(%rbp)
    a2c6:	48 8d 05 fb 0e 01 00 	lea    0x10efb(%rip),%rax        # 1b1c8 <g_94>
    a2cd:	48 89 85 48 f7 ff ff 	mov    %rax,-0x8b8(%rbp)
    a2d4:	48 8d 05 7d 0d 01 00 	lea    0x10d7d(%rip),%rax        # 1b058 <g_84>
    a2db:	48 89 85 50 f7 ff ff 	mov    %rax,-0x8b0(%rbp)
    a2e2:	48 8d 05 6f 0d 01 00 	lea    0x10d6f(%rip),%rax        # 1b058 <g_84>
    a2e9:	48 89 85 58 f7 ff ff 	mov    %rax,-0x8a8(%rbp)
    a2f0:	48 8d 05 d1 0e 01 00 	lea    0x10ed1(%rip),%rax        # 1b1c8 <g_94>
    a2f7:	48 89 85 60 f7 ff ff 	mov    %rax,-0x8a0(%rbp)
    a2fe:	48 8d 05 53 0d 01 00 	lea    0x10d53(%rip),%rax        # 1b058 <g_84>
    a305:	48 89 85 68 f7 ff ff 	mov    %rax,-0x898(%rbp)
    a30c:	48 8d 85 f8 ef ff ff 	lea    -0x1008(%rbp),%rax
    a313:	48 89 85 70 f7 ff ff 	mov    %rax,-0x890(%rbp)
    a31a:	48 8d 05 f7 36 01 00 	lea    0x136f7(%rip),%rax        # 1da18 <g_1247>
    a321:	48 89 85 78 f7 ff ff 	mov    %rax,-0x888(%rbp)
    a328:	48 c7 85 80 f7 ff ff 	movq   $0x0,-0x880(%rbp)
    a32f:	00 00 00 00 
    a333:	48 8d 05 22 0d 01 00 	lea    0x10d22(%rip),%rax        # 1b05c <g_84+0x4>
    a33a:	48 89 85 88 f7 ff ff 	mov    %rax,-0x878(%rbp)
    a341:	48 c7 85 90 f7 ff ff 	movq   $0x0,-0x870(%rbp)
    a348:	00 00 00 00 
    a34c:	48 8d 05 c5 36 01 00 	lea    0x136c5(%rip),%rax        # 1da18 <g_1247>
    a353:	48 89 85 98 f7 ff ff 	mov    %rax,-0x868(%rbp)
    a35a:	48 8d 85 f8 ef ff ff 	lea    -0x1008(%rbp),%rax
    a361:	48 89 85 a0 f7 ff ff 	mov    %rax,-0x860(%rbp)
    a368:	48 8d 05 e9 0c 01 00 	lea    0x10ce9(%rip),%rax        # 1b058 <g_84>
    a36f:	48 89 85 a8 f7 ff ff 	mov    %rax,-0x858(%rbp)
    a376:	48 8d 05 4b 0e 01 00 	lea    0x10e4b(%rip),%rax        # 1b1c8 <g_94>
    a37d:	48 89 85 b0 f7 ff ff 	mov    %rax,-0x850(%rbp)
    a384:	48 8d 05 cd 0c 01 00 	lea    0x10ccd(%rip),%rax        # 1b058 <g_84>
    a38b:	48 89 85 b8 f7 ff ff 	mov    %rax,-0x848(%rbp)
    a392:	48 8d 05 bf 0c 01 00 	lea    0x10cbf(%rip),%rax        # 1b058 <g_84>
    a399:	48 89 85 c0 f7 ff ff 	mov    %rax,-0x840(%rbp)
    a3a0:	48 8d 05 21 0e 01 00 	lea    0x10e21(%rip),%rax        # 1b1c8 <g_94>
    a3a7:	48 89 85 c8 f7 ff ff 	mov    %rax,-0x838(%rbp)
    a3ae:	48 8d 05 a3 0c 01 00 	lea    0x10ca3(%rip),%rax        # 1b058 <g_84>
    a3b5:	48 89 85 d0 f7 ff ff 	mov    %rax,-0x830(%rbp)
    a3bc:	48 8d 85 f8 ef ff ff 	lea    -0x1008(%rbp),%rax
    a3c3:	48 89 85 d8 f7 ff ff 	mov    %rax,-0x828(%rbp)
    a3ca:	48 8d 05 47 36 01 00 	lea    0x13647(%rip),%rax        # 1da18 <g_1247>
    a3d1:	48 89 85 e0 f7 ff ff 	mov    %rax,-0x820(%rbp)
    a3d8:	48 c7 85 e8 f7 ff ff 	movq   $0x0,-0x818(%rbp)
    a3df:	00 00 00 00 
    a3e3:	48 8d 05 2e 36 01 00 	lea    0x1362e(%rip),%rax        # 1da18 <g_1247>
    a3ea:	48 89 85 f0 f7 ff ff 	mov    %rax,-0x810(%rbp)
    a3f1:	48 8d 85 f8 ef ff ff 	lea    -0x1008(%rbp),%rax
    a3f8:	48 89 85 f8 f7 ff ff 	mov    %rax,-0x808(%rbp)
    a3ff:	48 8d 05 12 36 01 00 	lea    0x13612(%rip),%rax        # 1da18 <g_1247>
    a406:	48 89 85 00 f8 ff ff 	mov    %rax,-0x800(%rbp)
    a40d:	48 8d 05 48 0c 01 00 	lea    0x10c48(%rip),%rax        # 1b05c <g_84+0x4>
    a414:	48 89 85 08 f8 ff ff 	mov    %rax,-0x7f8(%rbp)
    a41b:	48 8d 05 36 0c 01 00 	lea    0x10c36(%rip),%rax        # 1b058 <g_84>
    a422:	48 89 85 10 f8 ff ff 	mov    %rax,-0x7f0(%rbp)
    a429:	48 8d 05 28 0c 01 00 	lea    0x10c28(%rip),%rax        # 1b058 <g_84>
    a430:	48 89 85 18 f8 ff ff 	mov    %rax,-0x7e8(%rbp)
    a437:	48 c7 85 20 f8 ff ff 	movq   $0x0,-0x7e0(%rbp)
    a43e:	00 00 00 00 
    a442:	48 c7 85 28 f8 ff ff 	movq   $0x0,-0x7d8(%rbp)
    a449:	00 00 00 00 
    a44d:	48 8d 05 04 0c 01 00 	lea    0x10c04(%rip),%rax        # 1b058 <g_84>
    a454:	48 89 85 30 f8 ff ff 	mov    %rax,-0x7d0(%rbp)
    a45b:	48 8d 05 f6 0b 01 00 	lea    0x10bf6(%rip),%rax        # 1b058 <g_84>
    a462:	48 89 85 38 f8 ff ff 	mov    %rax,-0x7c8(%rbp)
    a469:	66 c7 85 92 ee ff ff 	movw   $0x1,-0x116e(%rbp)
    a470:	01 00 
    a472:	c7 85 28 ef ff ff 31 	movl   $0x8917ac31,-0x10d8(%rbp)
    a479:	ac 17 89 
    a47c:	48 8d 85 10 f0 ff ff 	lea    -0xff0(%rbp),%rax
    a483:	48 89 85 40 f1 ff ff 	mov    %rax,-0xec0(%rbp)
    a48a:	48 8b 85 18 f0 ff ff 	mov    -0xfe8(%rbp),%rax
    a491:	48 83 e8 01          	sub    $0x1,%rax
    a495:	48 89 85 18 f0 ff ff 	mov    %rax,-0xfe8(%rbp)
    a49c:	48 8b 85 18 f0 ff ff 	mov    -0xfe8(%rbp),%rax
    a4a3:	48 85 c0             	test   %rax,%rax
    a4a6:	0f 85 78 01 00 00    	jne    a624 <func_4+0x1eb7>
    a4ac:	48 8b 05 e5 25 01 00 	mov    0x125e5(%rip),%rax        # 1ca98 <g_806>
    a4b3:	48 8b 00             	mov    (%rax),%rax
    a4b6:	8b 00                	mov    (%rax),%eax
    a4b8:	21 85 c4 ee ff ff    	and    %eax,-0x113c(%rbp)
    a4be:	8b 85 64 ee ff ff    	mov    -0x119c(%rbp),%eax
    a4c4:	48 63 d8             	movslq %eax,%rbx
    a4c7:	48 8b 05 12 22 01 00 	mov    0x12212(%rip),%rax        # 1c6e0 <g_117>
    a4ce:	44 8b 20             	mov    (%rax),%r12d
    a4d1:	48 8b 85 18 f0 ff ff 	mov    -0xfe8(%rbp),%rax
    a4d8:	98                   	cwtl   
    a4d9:	be 0d 00 00 00       	mov    $0xd,%esi
    a4de:	89 c7                	mov    %eax,%edi
    a4e0:	e8 45 b0 ff ff       	callq  552a <safe_rshift_func_int16_t_s_s>
    a4e5:	44 0f bf e8          	movswl %ax,%r13d
    a4e9:	48 8b 95 10 f0 ff ff 	mov    -0xff0(%rbp),%rdx
    a4f0:	48 8b 85 40 f1 ff ff 	mov    -0xec0(%rbp),%rax
    a4f7:	48 89 10             	mov    %rdx,(%rax)
    a4fa:	48 8b 85 40 f1 ff ff 	mov    -0xec0(%rbp),%rax
    a501:	48 8b 00             	mov    (%rax),%rax
    a504:	48 85 c0             	test   %rax,%rax
    a507:	74 27                	je     a530 <func_4+0x1dc3>
    a509:	8b 85 64 ee ff ff    	mov    -0x119c(%rbp),%eax
    a50f:	85 c0                	test   %eax,%eax
    a511:	74 10                	je     a523 <func_4+0x1db6>
    a513:	83 bd 5c ee ff ff 00 	cmpl   $0x0,-0x11a4(%rbp)
    a51a:	74 07                	je     a523 <func_4+0x1db6>
    a51c:	b8 01 00 00 00       	mov    $0x1,%eax
    a521:	eb 05                	jmp    a528 <func_4+0x1dbb>
    a523:	b8 00 00 00 00       	mov    $0x0,%eax
    a528:	23 85 60 ee ff ff    	and    -0x11a0(%rbp),%eax
    a52e:	85 c0                	test   %eax,%eax
    a530:	48 8b 85 38 f1 ff ff 	mov    -0xec8(%rbp),%rax
    a537:	8b 00                	mov    (%rax),%eax
    a539:	48 98                	cltq   
    a53b:	be 01 00 00 00       	mov    $0x1,%esi
    a540:	48 89 c7             	mov    %rax,%rdi
    a543:	e8 e6 ba ff ff       	callq  602e <safe_add_func_uint64_t_u_u>
    a548:	48 85 c0             	test   %rax,%rax
    a54b:	74 07                	je     a554 <func_4+0x1de7>
    a54d:	b8 01 00 00 00       	mov    $0x1,%eax
    a552:	eb 05                	jmp    a559 <func_4+0x1dec>
    a554:	b8 00 00 00 00       	mov    $0x0,%eax
    a559:	89 c2                	mov    %eax,%edx
    a55b:	8b 85 28 ef ff ff    	mov    -0x10d8(%rbp),%eax
    a561:	21 c2                	and    %eax,%edx
    a563:	0f b7 85 90 ee ff ff 	movzwl -0x1170(%rbp),%eax
    a56a:	31 d0                	xor    %edx,%eax
    a56c:	0f b6 c0             	movzbl %al,%eax
    a56f:	be 06 00 00 00       	mov    $0x6,%esi
    a574:	89 c7                	mov    %eax,%edi
    a576:	e8 d1 b6 ff ff       	callq  5c4c <safe_lshift_func_uint8_t_u_u>
    a57b:	0f b6 c0             	movzbl %al,%eax
    a57e:	8b 95 60 ee ff ff    	mov    -0x11a0(%rbp),%edx
    a584:	89 d6                	mov    %edx,%esi
    a586:	89 c7                	mov    %eax,%edi
    a588:	e8 79 b8 ff ff       	callq  5e06 <safe_lshift_func_uint16_t_u_u>
    a58d:	0f b7 c0             	movzwl %ax,%eax
    a590:	41 39 c5             	cmp    %eax,%r13d
    a593:	0f 9f c0             	setg   %al
    a596:	0f b6 d0             	movzbl %al,%edx
    a599:	8b 85 00 f0 ff ff    	mov    -0x1000(%rbp),%eax
    a59f:	39 c2                	cmp    %eax,%edx
    a5a1:	0f 94 c0             	sete   %al
    a5a4:	0f b6 c0             	movzbl %al,%eax
    a5a7:	be 16 a7 55 00       	mov    $0x55a716,%esi
    a5ac:	89 c7                	mov    %eax,%edi
    a5ae:	e8 03 b0 ff ff       	callq  55b6 <safe_add_func_int32_t_s_s>
    a5b3:	39 85 5c ee ff ff    	cmp    %eax,-0x11a4(%rbp)
    a5b9:	0f 97 c0             	seta   %al
    a5bc:	0f b6 c0             	movzbl %al,%eax
    a5bf:	be 00 00 00 00       	mov    $0x0,%esi
    a5c4:	89 c7                	mov    %eax,%edi
    a5c6:	e8 8f b5 ff ff       	callq  5b5a <safe_add_func_uint8_t_u_u>
    a5cb:	0f b6 c0             	movzbl %al,%eax
    a5ce:	41 39 c4             	cmp    %eax,%r12d
    a5d1:	0f 9e c0             	setle  %al
    a5d4:	0f b6 c0             	movzbl %al,%eax
    a5d7:	48 89 de             	mov    %rbx,%rsi
    a5da:	48 89 c7             	mov    %rax,%rdi
    a5dd:	e8 cd ba ff ff       	callq  60af <safe_div_func_uint64_t_u_u>
    a5e2:	0f b6 c0             	movzbl %al,%eax
    a5e5:	89 c6                	mov    %eax,%esi
    a5e7:	bf be 00 00 00       	mov    $0xbe,%edi
    a5ec:	e8 bd b5 ff ff       	callq  5bae <safe_mod_func_uint8_t_u_u>
    a5f1:	48 8b 05 f0 20 01 00 	mov    0x120f0(%rip),%rax        # 1c6e8 <g_135>
    a5f8:	8b 95 04 f3 ff ff    	mov    -0xcfc(%rbp),%edx
    a5fe:	89 10                	mov    %edx,(%rax)
    a600:	48 8b 05 69 0c 01 00 	mov    0x10c69(%rip),%rax        # 1b270 <g_273>
    a607:	48 83 c0 01          	add    $0x1,%rax
    a60b:	48 89 05 5e 0c 01 00 	mov    %rax,0x10c5e(%rip)        # 1b270 <g_273>
    a612:	48 8b 05 57 0c 01 00 	mov    0x10c57(%rip),%rax        # 1b270 <g_273>
    a619:	48 85 c0             	test   %rax,%rax
    a61c:	0f 84 86 fa ff ff    	je     a0a8 <func_4+0x193b>
    a622:	eb 01                	jmp    a625 <func_4+0x1eb8>
    a624:	90                   	nop
    a625:	0f bf 85 90 ee ff ff 	movswl -0x1170(%rbp),%eax
    a62c:	be 0f 00 00 00       	mov    $0xf,%esi
    a631:	89 c7                	mov    %eax,%edi
    a633:	e8 a9 ae ff ff       	callq  54e1 <safe_lshift_func_int16_t_s_u>
    a638:	0f bf d8             	movswl %ax,%ebx
    a63b:	48 8b 85 28 f0 ff ff 	mov    -0xfd8(%rbp),%rax
    a642:	41 89 c4             	mov    %eax,%r12d
    a645:	81 bd 60 ee ff ff 5a 	cmpl   $0x6d5a,-0x11a0(%rbp)
    a64c:	6d 00 00 
    a64f:	0f 96 c0             	setbe  %al
    a652:	0f b6 c0             	movzbl %al,%eax
    a655:	89 c6                	mov    %eax,%esi
    a657:	bf d1 e7 00 00       	mov    $0xe7d1,%edi
    a65c:	e8 be b6 ff ff       	callq  5d1f <safe_sub_func_uint16_t_u_u>
    a661:	0f b7 c0             	movzwl %ax,%eax
    a664:	44 89 e6             	mov    %r12d,%esi
    a667:	89 c7                	mov    %eax,%edi
    a669:	e8 8f b8 ff ff       	callq  5efd <safe_mod_func_uint32_t_u_u>
    a66e:	39 c3                	cmp    %eax,%ebx
    a670:	73 1e                	jae    a690 <func_4+0x1f23>
    a672:	48 8b 05 9f 0a 01 00 	mov    0x10a9f(%rip),%rax        # 1b118 <g_88+0x98>
    a679:	48 83 c0 01          	add    $0x1,%rax
    a67d:	48 89 05 94 0a 01 00 	mov    %rax,0x10a94(%rip)        # 1b118 <g_88+0x98>
    a684:	48 8b 05 8d 0a 01 00 	mov    0x10a8d(%rip),%rax        # 1b118 <g_88+0x98>
    a68b:	48 85 c0             	test   %rax,%rax
    a68e:	74 07                	je     a697 <func_4+0x1f2a>
    a690:	ba 01 00 00 00       	mov    $0x1,%edx
    a695:	eb 05                	jmp    a69c <func_4+0x1f2f>
    a697:	ba 00 00 00 00       	mov    $0x0,%edx
    a69c:	48 8b 85 68 ee ff ff 	mov    -0x1198(%rbp),%rax
    a6a3:	8b 00                	mov    (%rax),%eax
    a6a5:	31 c2                	xor    %eax,%edx
    a6a7:	48 8b 85 68 ee ff ff 	mov    -0x1198(%rbp),%rax
    a6ae:	89 10                	mov    %edx,(%rax)
    a6b0:	c6 05 21 0b 01 00 00 	movb   $0x0,0x10b21(%rip)        # 1b1d8 <g_120>
    a6b7:	e9 56 01 00 00       	jmpq   a812 <func_4+0x20a5>
    a6bc:	48 8d 05 75 20 01 00 	lea    0x12075(%rip),%rax        # 1c738 <g_372+0x8>
    a6c3:	48 89 85 48 f1 ff ff 	mov    %rax,-0xeb8(%rbp)
    a6ca:	48 c7 85 50 f1 ff ff 	movq   $0x0,-0xeb0(%rbp)
    a6d1:	00 00 00 00 
    a6d5:	48 8d 05 ac 0b 01 00 	lea    0x10bac(%rip),%rax        # 1b288 <g_370>
    a6dc:	48 89 85 58 f1 ff ff 	mov    %rax,-0xea8(%rbp)
    a6e3:	48 8b 05 3e 20 01 00 	mov    0x1203e(%rip),%rax        # 1c728 <g_343>
    a6ea:	48 8b 10             	mov    (%rax),%rdx
    a6ed:	48 8b 85 48 f1 ff ff 	mov    -0xeb8(%rbp),%rax
    a6f4:	48 89 10             	mov    %rdx,(%rax)
    a6f7:	48 8b 05 02 24 01 00 	mov    0x12402(%rip),%rax        # 1cb00 <g_1370>
    a6fe:	48 8b 95 48 f1 ff ff 	mov    -0xeb8(%rbp),%rdx
    a705:	48 8b 12             	mov    (%rdx),%rdx
    a708:	48 89 10             	mov    %rdx,(%rax)
    a70b:	8b 85 5c ee ff ff    	mov    -0x11a4(%rbp),%eax
    a711:	0f b6 d8             	movzbl %al,%ebx
    a714:	8b 85 60 ee ff ff    	mov    -0x11a0(%rbp),%eax
    a71a:	44 0f b6 e0          	movzbl %al,%r12d
    a71e:	b8 fe ff ff ff       	mov    $0xfffffffe,%eax
    a723:	0f b7 c0             	movzwl %ax,%eax
    a726:	48 8b 95 58 f5 ff ff 	mov    -0xaa8(%rbp),%rdx
    a72d:	89 d6                	mov    %edx,%esi
    a72f:	48 83 bd 28 f0 ff ff 	cmpq   $0x0,-0xfd8(%rbp)
    a736:	00 
    a737:	75 09                	jne    a742 <func_4+0x1fd5>
    a739:	83 bd c4 ee ff ff 00 	cmpl   $0x0,-0x113c(%rbp)
    a740:	74 07                	je     a749 <func_4+0x1fdc>
    a742:	ba 01 00 00 00       	mov    $0x1,%edx
    a747:	eb 05                	jmp    a74e <func_4+0x1fe1>
    a749:	ba 00 00 00 00       	mov    $0x0,%edx
    a74e:	83 fa fa             	cmp    $0xfffffffa,%edx
    a751:	0f 94 c2             	sete   %dl
    a754:	0f b6 ca             	movzbl %dl,%ecx
    a757:	48 8b 15 7a 1f 01 00 	mov    0x11f7a(%rip),%rdx        # 1c6d8 <g_93>
    a75e:	8b 12                	mov    (%rdx),%edx
    a760:	39 d1                	cmp    %edx,%ecx
    a762:	0f 9d c2             	setge  %dl
    a765:	0f b6 d2             	movzbl %dl,%edx
    a768:	09 f2                	or     %esi,%edx
    a76a:	89 c6                	mov    %eax,%esi
    a76c:	89 d7                	mov    %edx,%edi
    a76e:	e8 59 af ff ff       	callq  56cc <safe_mod_func_int32_t_s_s>
    a773:	48 8b 85 50 f1 ff ff 	mov    -0xeb0(%rbp),%rax
    a77a:	48 3b 85 18 f1 ff ff 	cmp    -0xee8(%rbp),%rax
    a781:	0f 95 c0             	setne  %al
    a784:	0f b6 c0             	movzbl %al,%eax
    a787:	be cd 8e 4a 4b       	mov    $0x4b4a8ecd,%esi
    a78c:	89 c7                	mov    %eax,%edi
    a78e:	e8 6c af ff ff       	callq  56ff <safe_div_func_int32_t_s_s>
    a793:	89 c2                	mov    %eax,%edx
    a795:	48 8b 85 58 f1 ff ff 	mov    -0xea8(%rbp),%rax
    a79c:	66 89 10             	mov    %dx,(%rax)
    a79f:	48 8b 85 58 f1 ff ff 	mov    -0xea8(%rbp),%rax
    a7a6:	0f b7 00             	movzwl (%rax),%eax
    a7a9:	66 39 85 90 ee ff ff 	cmp    %ax,-0x1170(%rbp)
    a7b0:	0f 95 c0             	setne  %al
    a7b3:	0f b6 c0             	movzbl %al,%eax
    a7b6:	44 89 e6             	mov    %r12d,%esi
    a7b9:	89 c7                	mov    %eax,%edi
    a7bb:	e8 b8 b3 ff ff       	callq  5b78 <safe_sub_func_uint8_t_u_u>
    a7c0:	84 c0                	test   %al,%al
    a7c2:	be 01 00 00 00       	mov    $0x1,%esi
    a7c7:	bf 00 00 00 00       	mov    $0x0,%edi
    a7cc:	e8 7a b8 ff ff       	callq  604b <safe_sub_func_uint64_t_u_u>
    a7d1:	0f b6 c0             	movzbl %al,%eax
    a7d4:	89 de                	mov    %ebx,%esi
    a7d6:	89 c7                	mov    %eax,%edi
    a7d8:	e8 7d b3 ff ff       	callq  5b5a <safe_add_func_uint8_t_u_u>
    a7dd:	84 c0                	test   %al,%al
    a7df:	74 07                	je     a7e8 <func_4+0x207b>
    a7e1:	83 bd 5c ee ff ff 00 	cmpl   $0x0,-0x11a4(%rbp)
    a7e8:	48 8b 85 68 ee ff ff 	mov    -0x1198(%rbp),%rax
    a7ef:	c7 00 00 00 00 00    	movl   $0x0,(%rax)
    a7f5:	48 8b 05 ec 1e 01 00 	mov    0x11eec(%rip),%rax        # 1c6e8 <g_135>
    a7fc:	c7 00 77 2b 7f ed    	movl   $0xed7f2b77,(%rax)
    a802:	0f b6 05 cf 09 01 00 	movzbl 0x109cf(%rip),%eax        # 1b1d8 <g_120>
    a809:	83 c0 01             	add    $0x1,%eax
    a80c:	88 05 c6 09 01 00    	mov    %al,0x109c6(%rip)        # 1b1d8 <g_120>
    a812:	0f b6 05 bf 09 01 00 	movzbl 0x109bf(%rip),%eax        # 1b1d8 <g_120>
    a819:	3c 02                	cmp    $0x2,%al
    a81b:	0f 86 9b fe ff ff    	jbe    a6bc <func_4+0x1f4f>
    a821:	e9 2e 01 00 00       	jmpq   a954 <func_4+0x21e7>
    a826:	48 8d 05 bf 0b 01 00 	lea    0x10bbf(%rip),%rax        # 1b3ec <g_1135+0xc>
    a82d:	48 89 85 10 f6 ff ff 	mov    %rax,-0x9f0(%rbp)
    a834:	48 8d 05 9d 0b 01 00 	lea    0x10b9d(%rip),%rax        # 1b3d8 <g_1131>
    a83b:	48 89 85 18 f6 ff ff 	mov    %rax,-0x9e8(%rbp)
    a842:	48 8d 05 a3 0b 01 00 	lea    0x10ba3(%rip),%rax        # 1b3ec <g_1135+0xc>
    a849:	48 89 85 20 f6 ff ff 	mov    %rax,-0x9e0(%rbp)
    a850:	48 8d 05 95 0b 01 00 	lea    0x10b95(%rip),%rax        # 1b3ec <g_1135+0xc>
    a857:	48 89 85 28 f6 ff ff 	mov    %rax,-0x9d8(%rbp)
    a85e:	48 8d 05 73 0b 01 00 	lea    0x10b73(%rip),%rax        # 1b3d8 <g_1131>
    a865:	48 89 85 30 f6 ff ff 	mov    %rax,-0x9d0(%rbp)
    a86c:	48 8d 05 79 0b 01 00 	lea    0x10b79(%rip),%rax        # 1b3ec <g_1135+0xc>
    a873:	48 89 85 38 f6 ff ff 	mov    %rax,-0x9c8(%rbp)
    a87a:	48 8d 05 6b 0b 01 00 	lea    0x10b6b(%rip),%rax        # 1b3ec <g_1135+0xc>
    a881:	48 89 85 40 f6 ff ff 	mov    %rax,-0x9c0(%rbp)
    a888:	48 8d 05 49 0b 01 00 	lea    0x10b49(%rip),%rax        # 1b3d8 <g_1131>
    a88f:	48 89 85 48 f6 ff ff 	mov    %rax,-0x9b8(%rbp)
    a896:	48 8d 05 4f 0b 01 00 	lea    0x10b4f(%rip),%rax        # 1b3ec <g_1135+0xc>
    a89d:	48 89 85 50 f6 ff ff 	mov    %rax,-0x9b0(%rbp)
    a8a4:	48 8d 05 41 0b 01 00 	lea    0x10b41(%rip),%rax        # 1b3ec <g_1135+0xc>
    a8ab:	48 89 85 58 f6 ff ff 	mov    %rax,-0x9a8(%rbp)
    a8b2:	48 8d 05 1f 0b 01 00 	lea    0x10b1f(%rip),%rax        # 1b3d8 <g_1131>
    a8b9:	48 89 85 60 f6 ff ff 	mov    %rax,-0x9a0(%rbp)
    a8c0:	48 8d 05 25 0b 01 00 	lea    0x10b25(%rip),%rax        # 1b3ec <g_1135+0xc>
    a8c7:	48 89 85 68 f6 ff ff 	mov    %rax,-0x998(%rbp)
    a8ce:	48 8d 05 17 0b 01 00 	lea    0x10b17(%rip),%rax        # 1b3ec <g_1135+0xc>
    a8d5:	48 89 85 70 f6 ff ff 	mov    %rax,-0x990(%rbp)
    a8dc:	48 8d 05 f5 0a 01 00 	lea    0x10af5(%rip),%rax        # 1b3d8 <g_1131>
    a8e3:	48 89 85 78 f6 ff ff 	mov    %rax,-0x988(%rbp)
    a8ea:	48 8d 05 fb 0a 01 00 	lea    0x10afb(%rip),%rax        # 1b3ec <g_1135+0xc>
    a8f1:	48 89 85 80 f6 ff ff 	mov    %rax,-0x980(%rbp)
    a8f8:	48 8d 05 ed 0a 01 00 	lea    0x10aed(%rip),%rax        # 1b3ec <g_1135+0xc>
    a8ff:	48 89 85 88 f6 ff ff 	mov    %rax,-0x978(%rbp)
    a906:	48 8d 05 cb 0a 01 00 	lea    0x10acb(%rip),%rax        # 1b3d8 <g_1131>
    a90d:	48 89 85 90 f6 ff ff 	mov    %rax,-0x970(%rbp)
    a914:	48 8d 05 d1 0a 01 00 	lea    0x10ad1(%rip),%rax        # 1b3ec <g_1135+0xc>
    a91b:	48 89 85 98 f6 ff ff 	mov    %rax,-0x968(%rbp)
    a922:	48 8d 05 0f 1e 01 00 	lea    0x11e0f(%rip),%rax        # 1c738 <g_372+0x8>
    a929:	48 89 85 30 f1 ff ff 	mov    %rax,-0xed0(%rbp)
    a930:	66 c7 05 b1 0a 01 00 	movw   $0x7,0x10ab1(%rip)        # 1b3ea <g_1135+0xa>
    a937:	07 00 
    a939:	c7 85 24 ef ff ff 07 	movl   $0x7,-0x10dc(%rbp)
    a940:	00 00 00 
    a943:	48 8b 85 30 f1 ff ff 	mov    -0xed0(%rbp),%rax
    a94a:	48 8d 95 64 ee ff ff 	lea    -0x119c(%rbp),%rdx
    a951:	48 89 10             	mov    %rdx,(%rax)
    a954:	48 8b 85 28 f1 ff ff 	mov    -0xed8(%rbp),%rax
    a95b:	48 8b 95 20 f1 ff ff 	mov    -0xee0(%rbp),%rdx
    a962:	48 89 10             	mov    %rdx,(%rax)
    a965:	48 8b 85 00 f1 ff ff 	mov    -0xf00(%rbp),%rax
    a96c:	48 8d 95 9c ee ff ff 	lea    -0x1164(%rbp),%rdx
    a973:	48 89 10             	mov    %rdx,(%rax)
    a976:	8b 85 60 ee ff ff    	mov    -0x11a0(%rbp),%eax
    a97c:	0f b6 d8             	movzbl %al,%ebx
    a97f:	0f b6 05 4a 08 01 00 	movzbl 0x1084a(%rip),%eax        # 1b1d0 <g_105>
    a986:	4c 0f be e0          	movsbq %al,%r12
    a98a:	b8 fb ff ff ff       	mov    $0xfffffffb,%eax
    a98f:	41 89 c5             	mov    %eax,%r13d
    a992:	0f b6 05 e7 08 01 00 	movzbl 0x108e7(%rip),%eax        # 1b280 <g_346>
    a999:	48 0f be d0          	movsbq %al,%rdx
    a99d:	48 8b 85 28 f0 ff ff 	mov    -0xfd8(%rbp),%rax
    a9a4:	48 89 d6             	mov    %rdx,%rsi
    a9a7:	48 89 c7             	mov    %rax,%rdi
    a9aa:	e8 48 b0 ff ff       	callq  59f7 <safe_div_func_int64_t_s_s>
    a9af:	8b 95 04 f3 ff ff    	mov    -0xcfc(%rbp),%edx
    a9b5:	48 63 d2             	movslq %edx,%rdx
    a9b8:	48 39 d0             	cmp    %rdx,%rax
    a9bb:	7e 11                	jle    a9ce <func_4+0x2261>
    a9bd:	48 83 bd 08 f1 ff ff 	cmpq   $0x0,-0xef8(%rbp)
    a9c4:	00 
    a9c5:	74 07                	je     a9ce <func_4+0x2261>
    a9c7:	b8 01 00 00 00       	mov    $0x1,%eax
    a9cc:	eb 05                	jmp    a9d3 <func_4+0x2266>
    a9ce:	b8 00 00 00 00       	mov    $0x0,%eax
    a9d3:	89 c2                	mov    %eax,%edx
    a9d5:	8b 85 5c ee ff ff    	mov    -0x11a4(%rbp),%eax
    a9db:	0f b7 c0             	movzwl %ax,%eax
    a9de:	89 d6                	mov    %edx,%esi
    a9e0:	89 c7                	mov    %eax,%edi
    a9e2:	e8 93 b4 ff ff       	callq  5e7a <safe_rshift_func_uint16_t_u_u>
    a9e7:	0f b6 c0             	movzbl %al,%eax
    a9ea:	be a6 00 00 00       	mov    $0xa6,%esi
    a9ef:	89 c7                	mov    %eax,%edi
    a9f1:	e8 9d b1 ff ff       	callq  5b93 <safe_mul_func_uint8_t_u_u>
    a9f6:	4c 89 ee             	mov    %r13,%rsi
    a9f9:	bf 00 00 00 00       	mov    $0x0,%edi
    a9fe:	e8 f4 af ff ff       	callq  59f7 <safe_div_func_int64_t_s_s>
    aa03:	89 c7                	mov    %eax,%edi
    aa05:	e8 8c ab ff ff       	callq  5596 <safe_unary_minus_func_int32_t_s>
    aa0a:	48 8b 15 a7 06 01 00 	mov    0x106a7(%rip),%rdx        # 1b0b8 <g_88+0x38>
    aa11:	48 98                	cltq   
    aa13:	48 31 d0             	xor    %rdx,%rax
    aa16:	48 89 05 9b 06 01 00 	mov    %rax,0x1069b(%rip)        # 1b0b8 <g_88+0x38>
    aa1d:	48 8b 05 94 06 01 00 	mov    0x10694(%rip),%rax        # 1b0b8 <g_88+0x38>
    aa24:	4c 89 e6             	mov    %r12,%rsi
    aa27:	48 89 c7             	mov    %rax,%rdi
    aa2a:	e8 1c b6 ff ff       	callq  604b <safe_sub_func_uint64_t_u_u>
    aa2f:	48 8b 05 0a 1d 01 00 	mov    0x11d0a(%rip),%rax        # 1c740 <g_392>
    aa36:	48 8b 10             	mov    (%rax),%rdx
    aa39:	8b 85 04 f3 ff ff    	mov    -0xcfc(%rbp),%eax
    aa3f:	39 85 60 ee ff ff    	cmp    %eax,-0x11a0(%rbp)
    aa45:	0f 96 c0             	setbe  %al
    aa48:	0f b6 c8             	movzbl %al,%ecx
    aa4b:	0f b7 85 80 ee ff ff 	movzwl -0x1180(%rbp),%eax
    aa52:	0f b7 c0             	movzwl %ax,%eax
    aa55:	39 c1                	cmp    %eax,%ecx
    aa57:	0f 95 c0             	setne  %al
    aa5a:	0f b6 c8             	movzbl %al,%ecx
    aa5d:	8b 85 14 f3 ff ff    	mov    -0xcec(%rbp),%eax
    aa63:	39 c1                	cmp    %eax,%ecx
    aa65:	0f 95 c0             	setne  %al
    aa68:	0f b6 c0             	movzbl %al,%eax
    aa6b:	48 39 c2             	cmp    %rax,%rdx
    aa6e:	0f 95 c0             	setne  %al
    aa71:	0f b6 c0             	movzbl %al,%eax
    aa74:	89 de                	mov    %ebx,%esi
    aa76:	89 c7                	mov    %eax,%edi
    aa78:	e8 dd b0 ff ff       	callq  5b5a <safe_add_func_uint8_t_u_u>
    aa7d:	8b 85 24 f3 ff ff    	mov    -0xcdc(%rbp),%eax
    aa83:	be 45 74 e7 e9       	mov    $0xe9e77445,%esi
    aa88:	89 c7                	mov    %eax,%edi
    aa8a:	e8 96 b4 ff ff       	callq  5f25 <safe_div_func_uint32_t_u_u>
    aa8f:	39 85 5c ee ff ff    	cmp    %eax,-0x11a4(%rbp)
    aa95:	0f 93 c0             	setae  %al
    aa98:	0f b6 c0             	movzbl %al,%eax
    aa9b:	89 85 9c ee ff ff    	mov    %eax,-0x1164(%rbp)
    aaa1:	8b 95 9c ee ff ff    	mov    -0x1164(%rbp),%edx
    aaa7:	8b 85 64 ee ff ff    	mov    -0x119c(%rbp),%eax
    aaad:	21 d0                	and    %edx,%eax
    aaaf:	39 85 5c ee ff ff    	cmp    %eax,-0x11a4(%rbp)
    aab5:	0f 92 c0             	setb   %al
    aab8:	0f b6 d0             	movzbl %al,%edx
    aabb:	48 8b 85 68 ee ff ff 	mov    -0x1198(%rbp),%rax
    aac2:	89 10                	mov    %edx,(%rax)
    aac4:	c7 85 9c ee ff ff 02 	movl   $0x2,-0x1164(%rbp)
    aacb:	00 00 00 
    aace:	e9 6d 0a 00 00       	jmpq   b540 <func_4+0x2dd3>
    aad3:	48 8d 05 ee 2d 01 00 	lea    0x12dee(%rip),%rax        # 1d8c8 <g_176>
    aada:	48 89 85 60 f1 ff ff 	mov    %rax,-0xea0(%rbp)
    aae1:	c7 85 d4 ee ff ff 00 	movl   $0x0,-0x112c(%rbp)
    aae8:	00 00 00 
    aaeb:	c7 85 f0 f3 ff ff 28 	movl   $0xedaeca28,-0xc10(%rbp)
    aaf2:	ca ae ed 
    aaf5:	c7 85 f4 f3 ff ff 28 	movl   $0xedaeca28,-0xc0c(%rbp)
    aafc:	ca ae ed 
    aaff:	c7 85 f8 f3 ff ff 28 	movl   $0xedaeca28,-0xc08(%rbp)
    ab06:	ca ae ed 
    ab09:	c7 85 fc f3 ff ff 28 	movl   $0xedaeca28,-0xc04(%rbp)
    ab10:	ca ae ed 
    ab13:	c7 85 00 f4 ff ff 28 	movl   $0xedaeca28,-0xc00(%rbp)
    ab1a:	ca ae ed 
    ab1d:	48 8d 85 d8 ef ff ff 	lea    -0x1028(%rbp),%rax
    ab24:	48 89 85 68 f1 ff ff 	mov    %rax,-0xe98(%rbp)
    ab2b:	48 8d 05 9e 08 01 00 	lea    0x1089e(%rip),%rax        # 1b3d0 <g_1087>
    ab32:	48 89 85 70 f1 ff ff 	mov    %rax,-0xe90(%rbp)
    ab39:	66 c7 05 56 08 01 00 	movw   $0x0,0x10856(%rip)        # 1b398 <g_461>
    ab40:	00 00 
    ab42:	e9 d9 09 00 00       	jmpq   b520 <func_4+0x2db3>
    ab47:	48 8d 85 f0 ef ff ff 	lea    -0x1010(%rbp),%rax
    ab4e:	48 89 85 18 f0 ff ff 	mov    %rax,-0xfe8(%rbp)
    ab55:	48 8d 85 18 f0 ff ff 	lea    -0xfe8(%rbp),%rax
    ab5c:	48 89 85 78 f1 ff ff 	mov    %rax,-0xe88(%rbp)
    ab63:	c7 85 2c ef ff ff 01 	movl   $0x1,-0x10d4(%rbp)
    ab6a:	00 00 00 
    ab6d:	c7 85 30 ef ff ff 7b 	movl   $0xf3fad7b,-0x10d0(%rbp)
    ab74:	ad 3f 0f 
    ab77:	c7 85 34 ef ff ff 2b 	movl   $0x3e3c12b,-0x10cc(%rbp)
    ab7e:	c1 e3 03 
    ab81:	66 c7 85 10 f0 ff ff 	movw   $0xffff,-0xff0(%rbp)
    ab88:	ff ff 
    ab8a:	c6 85 7a ee ff ff 01 	movb   $0x1,-0x1186(%rbp)
    ab91:	48 8d 05 f0 06 01 00 	lea    0x106f0(%rip),%rax        # 1b288 <g_370>
    ab98:	48 89 85 80 f1 ff ff 	mov    %rax,-0xe80(%rbp)
    ab9f:	c7 85 a4 ee ff ff 02 	movl   $0x2,-0x115c(%rbp)
    aba6:	00 00 00 
    aba9:	e9 40 03 00 00       	jmpq   aeee <func_4+0x2781>
    abae:	48 8d 85 a0 ee ff ff 	lea    -0x1160(%rbp),%rax
    abb5:	48 89 85 b0 f1 ff ff 	mov    %rax,-0xe50(%rbp)
    abbc:	48 8d 85 00 f0 ff ff 	lea    -0x1000(%rbp),%rax
    abc3:	48 89 85 b8 f1 ff ff 	mov    %rax,-0xe48(%rbp)
    abca:	48 8d 05 47 2e 01 00 	lea    0x12e47(%rip),%rax        # 1da18 <g_1247>
    abd1:	48 89 85 c0 f1 ff ff 	mov    %rax,-0xe40(%rbp)
    abd8:	48 8d 85 00 f3 ff ff 	lea    -0xd00(%rbp),%rax
    abdf:	48 83 c0 04          	add    $0x4,%rax
    abe3:	48 89 85 c8 f1 ff ff 	mov    %rax,-0xe38(%rbp)
    abea:	48 8d 05 27 2e 01 00 	lea    0x12e27(%rip),%rax        # 1da18 <g_1247>
    abf1:	48 89 85 d0 f1 ff ff 	mov    %rax,-0xe30(%rbp)
    abf8:	48 8d 85 f8 ef ff ff 	lea    -0x1008(%rbp),%rax
    abff:	48 89 85 10 f6 ff ff 	mov    %rax,-0x9f0(%rbp)
    ac06:	48 8d 05 3f 04 01 00 	lea    0x1043f(%rip),%rax        # 1b04c <g_26>
    ac0d:	48 89 85 18 f6 ff ff 	mov    %rax,-0x9e8(%rbp)
    ac14:	48 8d 05 31 04 01 00 	lea    0x10431(%rip),%rax        # 1b04c <g_26>
    ac1b:	48 89 85 20 f6 ff ff 	mov    %rax,-0x9e0(%rbp)
    ac22:	48 8d 85 f8 ef ff ff 	lea    -0x1008(%rbp),%rax
    ac29:	48 89 85 28 f6 ff ff 	mov    %rax,-0x9d8(%rbp)
    ac30:	48 8d 85 a8 ee ff ff 	lea    -0x1158(%rbp),%rax
    ac37:	48 89 85 30 f6 ff ff 	mov    %rax,-0x9d0(%rbp)
    ac3e:	48 8d 85 f8 ef ff ff 	lea    -0x1008(%rbp),%rax
    ac45:	48 89 85 38 f6 ff ff 	mov    %rax,-0x9c8(%rbp)
    ac4c:	48 8d 05 f9 03 01 00 	lea    0x103f9(%rip),%rax        # 1b04c <g_26>
    ac53:	48 89 85 40 f6 ff ff 	mov    %rax,-0x9c0(%rbp)
    ac5a:	48 8d 05 eb 03 01 00 	lea    0x103eb(%rip),%rax        # 1b04c <g_26>
    ac61:	48 89 85 48 f6 ff ff 	mov    %rax,-0x9b8(%rbp)
    ac68:	48 8d 05 dd 03 01 00 	lea    0x103dd(%rip),%rax        # 1b04c <g_26>
    ac6f:	48 89 85 50 f6 ff ff 	mov    %rax,-0x9b0(%rbp)
    ac76:	48 8d 85 a8 ee ff ff 	lea    -0x1158(%rbp),%rax
    ac7d:	48 89 85 58 f6 ff ff 	mov    %rax,-0x9a8(%rbp)
    ac84:	48 8d 05 3d 05 01 00 	lea    0x1053d(%rip),%rax        # 1b1c8 <g_94>
    ac8b:	48 89 85 60 f6 ff ff 	mov    %rax,-0x9a0(%rbp)
    ac92:	48 8d 05 2f 05 01 00 	lea    0x1052f(%rip),%rax        # 1b1c8 <g_94>
    ac99:	48 89 85 68 f6 ff ff 	mov    %rax,-0x998(%rbp)
    aca0:	48 8d 85 a8 ee ff ff 	lea    -0x1158(%rbp),%rax
    aca7:	48 89 85 70 f6 ff ff 	mov    %rax,-0x990(%rbp)
    acae:	48 8d 05 97 03 01 00 	lea    0x10397(%rip),%rax        # 1b04c <g_26>
    acb5:	48 89 85 78 f6 ff ff 	mov    %rax,-0x988(%rbp)
    acbc:	48 8d 85 00 f3 ff ff 	lea    -0xd00(%rbp),%rax
    acc3:	48 83 c0 04          	add    $0x4,%rax
    acc7:	48 89 85 80 f6 ff ff 	mov    %rax,-0x980(%rbp)
    acce:	48 8d 85 a8 ee ff ff 	lea    -0x1158(%rbp),%rax
    acd5:	48 89 85 88 f6 ff ff 	mov    %rax,-0x978(%rbp)
    acdc:	48 8d 05 e5 04 01 00 	lea    0x104e5(%rip),%rax        # 1b1c8 <g_94>
    ace3:	48 89 85 90 f6 ff ff 	mov    %rax,-0x970(%rbp)
    acea:	48 8d 85 00 f3 ff ff 	lea    -0xd00(%rbp),%rax
    acf1:	48 83 c0 04          	add    $0x4,%rax
    acf5:	48 89 85 98 f6 ff ff 	mov    %rax,-0x968(%rbp)
    acfc:	48 8d 05 c5 04 01 00 	lea    0x104c5(%rip),%rax        # 1b1c8 <g_94>
    ad03:	48 89 85 a0 f6 ff ff 	mov    %rax,-0x960(%rbp)
    ad0a:	48 8d 85 f8 ef ff ff 	lea    -0x1008(%rbp),%rax
    ad11:	48 89 85 a8 f6 ff ff 	mov    %rax,-0x958(%rbp)
    ad18:	48 8d 85 f8 ef ff ff 	lea    -0x1008(%rbp),%rax
    ad1f:	48 89 85 b0 f6 ff ff 	mov    %rax,-0x950(%rbp)
    ad26:	48 8d 05 9b 04 01 00 	lea    0x1049b(%rip),%rax        # 1b1c8 <g_94>
    ad2d:	48 89 85 b8 f6 ff ff 	mov    %rax,-0x948(%rbp)
    ad34:	48 8d 85 00 f3 ff ff 	lea    -0xd00(%rbp),%rax
    ad3b:	48 83 c0 04          	add    $0x4,%rax
    ad3f:	48 89 85 c0 f6 ff ff 	mov    %rax,-0x940(%rbp)
    ad46:	48 8d 05 7b 04 01 00 	lea    0x1047b(%rip),%rax        # 1b1c8 <g_94>
    ad4d:	48 89 85 c8 f6 ff ff 	mov    %rax,-0x938(%rbp)
    ad54:	48 8d 05 f1 02 01 00 	lea    0x102f1(%rip),%rax        # 1b04c <g_26>
    ad5b:	48 89 85 d0 f6 ff ff 	mov    %rax,-0x930(%rbp)
    ad62:	48 8d 85 f8 ef ff ff 	lea    -0x1008(%rbp),%rax
    ad69:	48 89 85 d8 f6 ff ff 	mov    %rax,-0x928(%rbp)
    ad70:	48 8d 85 a8 ee ff ff 	lea    -0x1158(%rbp),%rax
    ad77:	48 89 85 e0 f6 ff ff 	mov    %rax,-0x920(%rbp)
    ad7e:	48 8d 85 f8 ef ff ff 	lea    -0x1008(%rbp),%rax
    ad85:	48 89 85 e8 f6 ff ff 	mov    %rax,-0x918(%rbp)
    ad8c:	48 8d 05 b9 02 01 00 	lea    0x102b9(%rip),%rax        # 1b04c <g_26>
    ad93:	48 89 85 f0 f6 ff ff 	mov    %rax,-0x910(%rbp)
    ad9a:	48 8d 05 ab 02 01 00 	lea    0x102ab(%rip),%rax        # 1b04c <g_26>
    ada1:	48 89 85 f8 f6 ff ff 	mov    %rax,-0x908(%rbp)
    ada8:	48 8d 85 f8 ef ff ff 	lea    -0x1008(%rbp),%rax
    adaf:	48 89 85 00 f7 ff ff 	mov    %rax,-0x900(%rbp)
    adb6:	48 8d 85 a8 ee ff ff 	lea    -0x1158(%rbp),%rax
    adbd:	48 89 85 08 f7 ff ff 	mov    %rax,-0x8f8(%rbp)
    adc4:	48 8b 85 c8 f3 ff ff 	mov    -0xc38(%rbp),%rax
    adcb:	41 89 c4             	mov    %eax,%r12d
    adce:	8b 85 14 f3 ff ff    	mov    -0xcec(%rbp),%eax
    add4:	85 c0                	test   %eax,%eax
    add6:	0f 84 81 00 00 00    	je     ae5d <func_4+0x26f0>
    addc:	48 83 bd 60 f1 ff ff 	cmpq   $0x0,-0xea0(%rbp)
    ade3:	00 
    ade4:	0f 94 c0             	sete   %al
    ade7:	0f b6 d8             	movzbl %al,%ebx
    adea:	48 83 bd 78 f1 ff ff 	cmpq   $0x0,-0xe88(%rbp)
    adf1:	00 
    adf2:	0f 95 c0             	setne  %al
    adf5:	0f b6 c0             	movzbl %al,%eax
    adf8:	be 00 00 00 00       	mov    $0x0,%esi
    adfd:	89 c7                	mov    %eax,%edi
    adff:	e8 0e a4 ff ff       	callq  5212 <safe_mul_func_int8_t_s_s>
    ae04:	48 0f be c0          	movsbq %al,%rax
    ae08:	48 8b 95 c8 f3 ff ff 	mov    -0xc38(%rbp),%rdx
    ae0f:	48 f7 d2             	not    %rdx
    ae12:	48 89 c6             	mov    %rax,%rsi
    ae15:	48 89 d7             	mov    %rdx,%rdi
    ae18:	e8 8b aa ff ff       	callq  58a8 <safe_sub_func_int64_t_s_s>
    ae1d:	8b 85 60 ee ff ff    	mov    -0x11a0(%rbp),%eax
    ae23:	89 c6                	mov    %eax,%esi
    ae25:	bf 00 00 00 00       	mov    $0x0,%edi
    ae2a:	e8 ce b0 ff ff       	callq  5efd <safe_mod_func_uint32_t_u_u>
    ae2f:	48 8b 95 68 ee ff ff 	mov    -0x1198(%rbp),%rdx
    ae36:	8b 12                	mov    (%rdx),%edx
    ae38:	39 d0                	cmp    %edx,%eax
    ae3a:	76 11                	jbe    ae4d <func_4+0x26e0>
    ae3c:	8b 85 9c ee ff ff    	mov    -0x1164(%rbp),%eax
    ae42:	85 c0                	test   %eax,%eax
    ae44:	74 07                	je     ae4d <func_4+0x26e0>
    ae46:	b8 01 00 00 00       	mov    $0x1,%eax
    ae4b:	eb 05                	jmp    ae52 <func_4+0x26e5>
    ae4d:	b8 00 00 00 00       	mov    $0x0,%eax
    ae52:	39 d8                	cmp    %ebx,%eax
    ae54:	7e 07                	jle    ae5d <func_4+0x26f0>
    ae56:	b8 01 00 00 00       	mov    $0x1,%eax
    ae5b:	eb 05                	jmp    ae62 <func_4+0x26f5>
    ae5d:	b8 00 00 00 00       	mov    $0x0,%eax
    ae62:	44 89 e6             	mov    %r12d,%esi
    ae65:	89 c7                	mov    %eax,%edi
    ae67:	e8 b9 b0 ff ff       	callq  5f25 <safe_div_func_uint32_t_u_u>
    ae6c:	0f bf d0             	movswl %ax,%edx
    ae6f:	8b 85 64 ee ff ff    	mov    -0x119c(%rbp),%eax
    ae75:	98                   	cwtl   
    ae76:	89 d6                	mov    %edx,%esi
    ae78:	89 c7                	mov    %eax,%edi
    ae7a:	e8 97 a5 ff ff       	callq  5416 <safe_mod_func_int16_t_s_s>
    ae7f:	89 c2                	mov    %eax,%edx
    ae81:	48 8b 05 38 18 01 00 	mov    0x11838(%rip),%rax        # 1c6c0 <g_27>
    ae88:	0f b6 08             	movzbl (%rax),%ecx
    ae8b:	48 8b 05 2e 18 01 00 	mov    0x1182e(%rip),%rax        # 1c6c0 <g_27>
    ae92:	31 ca                	xor    %ecx,%edx
    ae94:	88 10                	mov    %dl,(%rax)
    ae96:	8b 85 2c ef ff ff    	mov    -0x10d4(%rbp),%eax
    ae9c:	48 98                	cltq   
    ae9e:	48 89 c6             	mov    %rax,%rsi
    aea1:	48 bf 49 4a 93 76 f6 	movabs $0xc617a2f676934a49,%rdi
    aea8:	a2 17 c6 
    aeab:	e8 04 ab ff ff       	callq  59b4 <safe_mod_func_int64_t_s_s>
    aeb0:	48 8b 15 21 18 01 00 	mov    0x11821(%rip),%rdx        # 1c6d8 <g_93>
    aeb7:	8b 12                	mov    (%rdx),%edx
    aeb9:	48 63 d2             	movslq %edx,%rdx
    aebc:	48 39 d0             	cmp    %rdx,%rax
    aebf:	0f 9c c0             	setl   %al
    aec2:	48 8d 15 83 01 01 00 	lea    0x10183(%rip),%rdx        # 1b04c <g_26>
    aec9:	0f b6 c0             	movzbl %al,%eax
    aecc:	89 02                	mov    %eax,(%rdx)
    aece:	0f b7 85 10 f0 ff ff 	movzwl -0xff0(%rbp),%eax
    aed5:	83 e8 01             	sub    $0x1,%eax
    aed8:	66 89 85 10 f0 ff ff 	mov    %ax,-0xff0(%rbp)
    aedf:	8b 85 a4 ee ff ff    	mov    -0x115c(%rbp),%eax
    aee5:	83 e8 01             	sub    $0x1,%eax
    aee8:	89 85 a4 ee ff ff    	mov    %eax,-0x115c(%rbp)
    aeee:	8b 85 a4 ee ff ff    	mov    -0x115c(%rbp),%eax
    aef4:	85 c0                	test   %eax,%eax
    aef6:	0f 89 b2 fc ff ff    	jns    abae <func_4+0x2441>
    aefc:	c7 85 5c ee ff ff 00 	movl   $0x0,-0x11a4(%rbp)
    af03:	00 00 00 
    af06:	e9 85 02 00 00       	jmpq   b190 <func_4+0x2a23>
    af0b:	c6 85 7b ee ff ff de 	movb   $0xde,-0x1185(%rbp)
    af12:	48 8d 05 67 03 01 00 	lea    0x10367(%rip),%rax        # 1b280 <g_346>
    af19:	48 89 85 98 f1 ff ff 	mov    %rax,-0xe68(%rbp)
    af20:	c7 85 3c ef ff ff 37 	movl   $0x9d87b137,-0x10c4(%rbp)
    af27:	b1 87 9d 
    af2a:	48 8d 05 d7 2a 01 00 	lea    0x12ad7(%rip),%rax        # 1da08 <g_1009>
    af31:	48 89 85 a0 f1 ff ff 	mov    %rax,-0xe60(%rbp)
    af38:	48 8d 05 31 03 01 00 	lea    0x10331(%rip),%rax        # 1b270 <g_273>
    af3f:	48 89 85 a8 f1 ff ff 	mov    %rax,-0xe58(%rbp)
    af46:	c7 85 d8 ee ff ff 00 	movl   $0x0,-0x1128(%rbp)
    af4d:	00 00 00 
    af50:	eb 49                	jmp    af9b <func_4+0x282e>
    af52:	c7 85 dc ee ff ff 00 	movl   $0x0,-0x1124(%rbp)
    af59:	00 00 00 
    af5c:	eb 2d                	jmp    af8b <func_4+0x281e>
    af5e:	8b 85 dc ee ff ff    	mov    -0x1124(%rbp),%eax
    af64:	48 98                	cltq   
    af66:	8b 95 d8 ee ff ff    	mov    -0x1128(%rbp),%edx
    af6c:	48 63 d2             	movslq %edx,%rdx
    af6f:	48 01 d2             	add    %rdx,%rdx
    af72:	48 01 c2             	add    %rax,%rdx
    af75:	48 8d 85 10 f0 ff ff 	lea    -0xff0(%rbp),%rax
    af7c:	48 89 84 d5 10 f6 ff 	mov    %rax,-0x9f0(%rbp,%rdx,8)
    af83:	ff 
    af84:	83 85 dc ee ff ff 01 	addl   $0x1,-0x1124(%rbp)
    af8b:	83 bd dc ee ff ff 01 	cmpl   $0x1,-0x1124(%rbp)
    af92:	7e ca                	jle    af5e <func_4+0x27f1>
    af94:	83 85 d8 ee ff ff 01 	addl   $0x1,-0x1128(%rbp)
    af9b:	83 bd d8 ee ff ff 00 	cmpl   $0x0,-0x1128(%rbp)
    afa2:	7e ae                	jle    af52 <func_4+0x27e5>
    afa4:	8b 85 64 ee ff ff    	mov    -0x119c(%rbp),%eax
    afaa:	3d d6 00 00 00       	cmp    $0xd6,%eax
    afaf:	0f 95 c0             	setne  %al
    afb2:	0f b6 c8             	movzbl %al,%ecx
    afb5:	0f b7 05 14 04 01 00 	movzwl 0x10414(%rip),%eax        # 1b3d0 <g_1087>
    afbc:	8d 50 01             	lea    0x1(%rax),%edx
    afbf:	66 89 15 0a 04 01 00 	mov    %dx,0x1040a(%rip)        # 1b3d0 <g_1087>
    afc6:	0f b7 c0             	movzwl %ax,%eax
    afc9:	39 c1                	cmp    %eax,%ecx
    afcb:	0f 9c c0             	setl   %al
    afce:	0f b6 d0             	movzbl %al,%edx
    afd1:	48 8b 85 98 f1 ff ff 	mov    -0xe68(%rbp),%rax
    afd8:	0f b7 00             	movzwl (%rax),%eax
    afdb:	8d 48 ff             	lea    -0x1(%rax),%ecx
    afde:	48 8b 85 98 f1 ff ff 	mov    -0xe68(%rbp),%rax
    afe5:	66 89 08             	mov    %cx,(%rax)
    afe8:	48 8b 85 98 f1 ff ff 	mov    -0xe68(%rbp),%rax
    afef:	0f b7 00             	movzwl (%rax),%eax
    aff2:	0f b7 c0             	movzwl %ax,%eax
    aff5:	89 d6                	mov    %edx,%esi
    aff7:	89 c7                	mov    %eax,%edi
    aff9:	e8 21 ad ff ff       	callq  5d1f <safe_sub_func_uint16_t_u_u>
    affe:	0f b6 d8             	movzbl %al,%ebx
    b001:	0f b6 95 7b ee ff ff 	movzbl -0x1185(%rbp),%edx
    b008:	81 bd d4 ee ff ff 26 	cmpl   $0x82ab426,-0x112c(%rbp)
    b00f:	b4 2a 08 
    b012:	0f 94 c0             	sete   %al
    b015:	0f b6 c0             	movzbl %al,%eax
    b018:	89 d6                	mov    %edx,%esi
    b01a:	89 c7                	mov    %eax,%edi
    b01c:	e8 57 ab ff ff       	callq  5b78 <safe_sub_func_uint8_t_u_u>
    b021:	0f b6 c0             	movzbl %al,%eax
    b024:	89 de                	mov    %ebx,%esi
    b026:	89 c7                	mov    %eax,%edi
    b028:	e8 2d ab ff ff       	callq  5b5a <safe_add_func_uint8_t_u_u>
    b02d:	0f b6 c0             	movzbl %al,%eax
    b030:	89 c6                	mov    %eax,%esi
    b032:	bf ff 00 00 00       	mov    $0xff,%edi
    b037:	e8 1e ab ff ff       	callq  5b5a <safe_add_func_uint8_t_u_u>
    b03c:	0f b6 d0             	movzbl %al,%edx
    b03f:	48 8d 05 fa 16 01 00 	lea    0x116fa(%rip),%rax        # 1c740 <g_392>
    b046:	48 8b 00             	mov    (%rax),%rax
    b049:	48 85 c0             	test   %rax,%rax
    b04c:	0f 94 c0             	sete   %al
    b04f:	0f b6 c8             	movzbl %al,%ecx
    b052:	48 8b 85 68 ee ff ff 	mov    -0x1198(%rbp),%rax
    b059:	89 08                	mov    %ecx,(%rax)
    b05b:	48 8b 85 68 ee ff ff 	mov    -0x1198(%rbp),%rax
    b062:	8b 00                	mov    (%rax),%eax
    b064:	48 8d 1d e1 ff 00 00 	lea    0xffe1(%rip),%rbx        # 1b04c <g_26>
    b06b:	89 d6                	mov    %edx,%esi
    b06d:	89 c7                	mov    %eax,%edi
    b06f:	e8 8b a6 ff ff       	callq  56ff <safe_div_func_int32_t_s_s>
    b074:	89 03                	mov    %eax,(%rbx)
    b076:	8b 9d 5c ee ff ff    	mov    -0x11a4(%rbp),%ebx
    b07c:	48 8b 85 d0 ef ff ff 	mov    -0x1030(%rbp),%rax
    b083:	0f b7 d0             	movzwl %ax,%edx
    b086:	8b 85 5c ee ff ff    	mov    -0x11a4(%rbp),%eax
    b08c:	0f b7 c0             	movzwl %ax,%eax
    b08f:	89 d6                	mov    %edx,%esi
    b091:	89 c7                	mov    %eax,%edi
    b093:	e8 a5 ac ff ff       	callq  5d3d <safe_mul_func_uint16_t_u_u>
    b098:	48 8b 85 a0 f1 ff ff 	mov    -0xe60(%rbp),%rax
    b09f:	8b 00                	mov    (%rax),%eax
    b0a1:	8b 95 64 ee ff ff    	mov    -0x119c(%rbp),%edx
    b0a7:	21 c2                	and    %eax,%edx
    b0a9:	48 8b 85 a0 f1 ff ff 	mov    -0xe60(%rbp),%rax
    b0b0:	89 10                	mov    %edx,(%rax)
    b0b2:	48 8b 85 a0 f1 ff ff 	mov    -0xe60(%rbp),%rax
    b0b9:	8b 00                	mov    (%rax),%eax
    b0bb:	89 c6                	mov    %eax,%esi
    b0bd:	bf ff ff ff ff       	mov    $0xffffffff,%edi
    b0c2:	e8 ef a4 ff ff       	callq  55b6 <safe_add_func_int32_t_s_s>
    b0c7:	41 89 c5             	mov    %eax,%r13d
    b0ca:	48 8b 05 47 16 01 00 	mov    0x11647(%rip),%rax        # 1c718 <g_290>
    b0d1:	44 8b 20             	mov    (%rax),%r12d
    b0d4:	be 01 00 00 00       	mov    $0x1,%esi
    b0d9:	48 bf 43 5c 60 50 fc 	movabs $0xb74519fc50605c43,%rdi
    b0e0:	19 45 b7 
    b0e3:	e8 59 a7 ff ff       	callq  5841 <safe_add_func_int64_t_s_s>
    b0e8:	48 85 c0             	test   %rax,%rax
    b0eb:	0f 94 c0             	sete   %al
    b0ee:	0f b6 c0             	movzbl %al,%eax
    b0f1:	be 05 00 00 00       	mov    $0x5,%esi
    b0f6:	48 89 c7             	mov    %rax,%rdi
    b0f9:	e8 b6 a8 ff ff       	callq  59b4 <safe_mod_func_int64_t_s_s>
    b0fe:	8b 95 a0 ee ff ff    	mov    -0x1160(%rbp),%edx
    b104:	48 63 d2             	movslq %edx,%rdx
    b107:	48 39 d0             	cmp    %rdx,%rax
    b10a:	0f 9f c0             	setg   %al
    b10d:	89 c2                	mov    %eax,%edx
    b10f:	48 8b 85 a0 f0 ff ff 	mov    -0xf60(%rbp),%rax
    b116:	88 10                	mov    %dl,(%rax)
    b118:	48 8b 85 a8 f1 ff ff 	mov    -0xe58(%rbp),%rax
    b11f:	48 c7 00 01 00 00 00 	movq   $0x1,(%rax)
    b126:	b8 01 00 00 00       	mov    $0x1,%eax
    b12b:	44 89 e6             	mov    %r12d,%esi
    b12e:	89 c7                	mov    %eax,%edi
    b130:	e8 d0 a4 ff ff       	callq  5605 <safe_sub_func_int32_t_s_s>
    b135:	89 c2                	mov    %eax,%edx
    b137:	8b 85 5c ee ff ff    	mov    -0x11a4(%rbp),%eax
    b13d:	21 d0                	and    %edx,%eax
    b13f:	44 09 e8             	or     %r13d,%eax
    b142:	0f be c0             	movsbl %al,%eax
    b145:	be b4 ff ff ff       	mov    $0xffffffb4,%esi
    b14a:	89 c7                	mov    %eax,%edi
    b14c:	e8 19 a1 ff ff       	callq  526a <safe_div_func_int8_t_s_s>
    b151:	b8 00 00 00 00       	mov    $0x0,%eax
    b156:	31 85 d4 ee ff ff    	xor    %eax,-0x112c(%rbp)
    b15c:	48 8b 05 dd 15 01 00 	mov    0x115dd(%rip),%rax        # 1c740 <g_392>
    b163:	48 8b 00             	mov    (%rax),%rax
    b166:	89 de                	mov    %ebx,%esi
    b168:	bf 00 00 00 00       	mov    $0x0,%edi
    b16d:	e8 4c ac ff ff       	callq  5dbe <safe_lshift_func_uint16_t_u_s>
    b172:	48 8d 15 d3 fe 00 00 	lea    0xfed3(%rip),%rdx        # 1b04c <g_26>
    b179:	8b 0a                	mov    (%rdx),%ecx
    b17b:	0f b7 d0             	movzwl %ax,%edx
    b17e:	48 8d 05 c7 fe 00 00 	lea    0xfec7(%rip),%rax        # 1b04c <g_26>
    b185:	21 ca                	and    %ecx,%edx
    b187:	89 10                	mov    %edx,(%rax)
    b189:	83 85 5c ee ff ff 01 	addl   $0x1,-0x11a4(%rbp)
    b190:	83 bd 5c ee ff ff 02 	cmpl   $0x2,-0x11a4(%rbp)
    b197:	0f 86 6e fd ff ff    	jbe    af0b <func_4+0x279e>
    b19d:	c7 85 24 ef ff ff 02 	movl   $0x2,-0x10dc(%rbp)
    b1a4:	00 00 00 
    b1a7:	83 bd 24 ef ff ff 00 	cmpl   $0x0,-0x10dc(%rbp)
    b1ae:	0f 88 5f 02 00 00    	js     b413 <func_4+0x2ca6>
    b1b4:	c7 85 38 ef ff ff 3e 	movl   $0xa14d423e,-0x10c8(%rbp)
    b1bb:	42 4d a1 
    b1be:	48 8d 05 bb 00 01 00 	lea    0x100bb(%rip),%rax        # 1b280 <g_346>
    b1c5:	48 89 85 88 f1 ff ff 	mov    %rax,-0xe78(%rbp)
    b1cc:	48 8d 05 cd 18 01 00 	lea    0x118cd(%rip),%rax        # 1caa0 <g_846>
    b1d3:	48 89 85 90 f1 ff ff 	mov    %rax,-0xe70(%rbp)
    b1da:	c7 85 e0 ee ff ff 00 	movl   $0x0,-0x1120(%rbp)
    b1e1:	00 00 00 
    b1e4:	eb 1e                	jmp    b204 <func_4+0x2a97>
    b1e6:	8b 85 e0 ee ff ff    	mov    -0x1120(%rbp),%eax
    b1ec:	48 98                	cltq   
    b1ee:	48 8d 15 bb 01 01 00 	lea    0x101bb(%rip),%rdx        # 1b3b0 <g_922>
    b1f5:	48 89 94 c5 10 f6 ff 	mov    %rdx,-0x9f0(%rbp,%rax,8)
    b1fc:	ff 
    b1fd:	83 85 e0 ee ff ff 01 	addl   $0x1,-0x1120(%rbp)
    b204:	83 bd e0 ee ff ff 00 	cmpl   $0x0,-0x1120(%rbp)
    b20b:	7e d9                	jle    b1e6 <func_4+0x2a79>
    b20d:	8b 85 f0 ef ff ff    	mov    -0x1010(%rbp),%eax
    b213:	89 c2                	mov    %eax,%edx
    b215:	48 8b 85 68 ee ff ff 	mov    -0x1198(%rbp),%rax
    b21c:	89 10                	mov    %edx,(%rax)
    b21e:	48 8d 05 27 fe 00 00 	lea    0xfe27(%rip),%rax        # 1b04c <g_26>
    b225:	48 8b 95 68 ee ff ff 	mov    -0x1198(%rbp),%rdx
    b22c:	8b 12                	mov    (%rdx),%edx
    b22e:	89 10                	mov    %edx,(%rax)
    b230:	8b 10                	mov    (%rax),%edx
    b232:	8b 85 00 f0 ff ff    	mov    -0x1000(%rbp),%eax
    b238:	09 d0                	or     %edx,%eax
    b23a:	89 85 00 f0 ff ff    	mov    %eax,-0x1000(%rbp)
    b240:	8b 85 38 ef ff ff    	mov    -0x10c8(%rbp),%eax
    b246:	48 63 d8             	movslq %eax,%rbx
    b249:	8b 15 79 01 01 00    	mov    0x10179(%rip),%edx        # 1b3c8 <g_975>
    b24f:	0f b6 05 4a ff 00 00 	movzbl 0xff4a(%rip),%eax        # 1b1a0 <g_91>
    b256:	0f be c0             	movsbl %al,%eax
    b259:	31 c2                	xor    %eax,%edx
    b25b:	41 89 d5             	mov    %edx,%r13d
    b25e:	80 b5 7a ee ff ff 01 	xorb   $0x1,-0x1186(%rbp)
    b265:	44 8b a5 5c ee ff ff 	mov    -0x11a4(%rbp),%r12d
    b26c:	8b 85 60 ee ff ff    	mov    -0x11a0(%rbp),%eax
    b272:	98                   	cwtl   
    b273:	89 c7                	mov    %eax,%edi
    b275:	e8 23 a1 ff ff       	callq  539d <safe_unary_minus_func_int16_t_s>
    b27a:	8b 85 14 f3 ff ff    	mov    -0xcec(%rbp),%eax
    b280:	0f b7 d0             	movzwl %ax,%edx
    b283:	0f b7 05 46 ff 00 00 	movzwl 0xff46(%rip),%eax        # 1b1d0 <g_105>
    b28a:	0f b7 c0             	movzwl %ax,%eax
    b28d:	89 d6                	mov    %edx,%esi
    b28f:	89 c7                	mov    %eax,%edi
    b291:	e8 a7 aa ff ff       	callq  5d3d <safe_mul_func_uint16_t_u_u>
    b296:	89 c2                	mov    %eax,%edx
    b298:	48 8b 85 a0 f0 ff ff 	mov    -0xf60(%rbp),%rax
    b29f:	88 10                	mov    %dl,(%rax)
    b2a1:	48 8b 05 d8 14 01 00 	mov    0x114d8(%rip),%rax        # 1c780 <g_429>
    b2a8:	48 8b 00             	mov    (%rax),%rax
    b2ab:	0f b6 00             	movzbl (%rax),%eax
    b2ae:	84 c0                	test   %al,%al
    b2b0:	75 08                	jne    b2ba <func_4+0x2b4d>
    b2b2:	8b 85 f0 ef ff ff    	mov    -0x1010(%rbp),%eax
    b2b8:	85 c0                	test   %eax,%eax
    b2ba:	83 bd 60 ee ff ff 00 	cmpl   $0x0,-0x11a0(%rbp)
    b2c1:	74 07                	je     b2ca <func_4+0x2b5d>
    b2c3:	b8 01 00 00 00       	mov    $0x1,%eax
    b2c8:	eb 05                	jmp    b2cf <func_4+0x2b62>
    b2ca:	b8 00 00 00 00       	mov    $0x0,%eax
    b2cf:	0f b7 c0             	movzwl %ax,%eax
    b2d2:	44 89 e6             	mov    %r12d,%esi
    b2d5:	89 c7                	mov    %eax,%edi
    b2d7:	e8 e2 aa ff ff       	callq  5dbe <safe_lshift_func_uint16_t_u_s>
    b2dc:	8b 85 64 ee ff ff    	mov    -0x119c(%rbp),%eax
    b2e2:	39 85 38 ef ff ff    	cmp    %eax,-0x10c8(%rbp)
    b2e8:	0f 9d c0             	setge  %al
    b2eb:	0f b6 d0             	movzbl %al,%edx
    b2ee:	8b 85 14 f3 ff ff    	mov    -0xcec(%rbp),%eax
    b2f4:	09 d0                	or     %edx,%eax
    b2f6:	48 63 d0             	movslq %eax,%rdx
    b2f9:	48 8b 85 68 ee ff ff 	mov    -0x1198(%rbp),%rax
    b300:	8b 00                	mov    (%rax),%eax
    b302:	89 c1                	mov    %eax,%ecx
    b304:	89 d0                	mov    %edx,%eax
    b306:	31 c8                	xor    %ecx,%eax
    b308:	89 c2                	mov    %eax,%edx
    b30a:	48 8b 85 68 ee ff ff 	mov    -0x1198(%rbp),%rax
    b311:	89 10                	mov    %edx,(%rax)
    b313:	48 8b 85 68 ee ff ff 	mov    -0x1198(%rbp),%rax
    b31a:	8b 00                	mov    (%rax),%eax
    b31c:	89 c2                	mov    %eax,%edx
    b31e:	8b 85 60 ee ff ff    	mov    -0x11a0(%rbp),%eax
    b324:	21 d0                	and    %edx,%eax
    b326:	89 c2                	mov    %eax,%edx
    b328:	48 8b 85 70 f1 ff ff 	mov    -0xe90(%rbp),%rax
    b32f:	88 10                	mov    %dl,(%rax)
    b331:	48 8b 85 70 f1 ff ff 	mov    -0xe90(%rbp),%rax
    b338:	0f b6 00             	movzbl (%rax),%eax
    b33b:	0f be c0             	movsbl %al,%eax
    b33e:	41 39 c5             	cmp    %eax,%r13d
    b341:	74 0a                	je     b34d <func_4+0x2be0>
    b343:	8b 85 1c f3 ff ff    	mov    -0xce4(%rbp),%eax
    b349:	85 c0                	test   %eax,%eax
    b34b:	74 07                	je     b354 <func_4+0x2be7>
    b34d:	b8 01 00 00 00       	mov    $0x1,%eax
    b352:	eb 05                	jmp    b359 <func_4+0x2bec>
    b354:	b8 00 00 00 00       	mov    $0x0,%eax
    b359:	48 63 d0             	movslq %eax,%rdx
    b35c:	48 8b 85 38 f0 ff ff 	mov    -0xfc8(%rbp),%rax
    b363:	48 3b 85 68 f1 ff ff 	cmp    -0xe98(%rbp),%rax
    b36a:	0f 94 c0             	sete   %al
    b36d:	0f b6 c0             	movzbl %al,%eax
    b370:	f7 d0                	not    %eax
    b372:	48 98                	cltq   
    b374:	48 89 d6             	mov    %rdx,%rsi
    b377:	48 89 c7             	mov    %rax,%rdi
    b37a:	e8 c2 a4 ff ff       	callq  5841 <safe_add_func_int64_t_s_s>
    b37f:	98                   	cwtl   
    b380:	be 73 58 00 00       	mov    $0x5873,%esi
    b385:	89 c7                	mov    %eax,%edi
    b387:	e8 27 a0 ff ff       	callq  53b3 <safe_add_func_int16_t_s_s>
    b38c:	48 0f bf d0          	movswq %ax,%rdx
    b390:	48 8b 05 d1 fc 00 00 	mov    0xfcd1(%rip),%rax        # 1b068 <g_86>
    b397:	48 09 d0             	or     %rdx,%rax
    b39a:	48 89 05 c7 fc 00 00 	mov    %rax,0xfcc7(%rip)        # 1b068 <g_86>
    b3a1:	8b 85 04 ef ff ff    	mov    -0x10fc(%rbp),%eax
    b3a7:	89 c2                	mov    %eax,%edx
    b3a9:	48 8b 85 88 f1 ff ff 	mov    -0xe78(%rbp),%rax
    b3b0:	66 89 10             	mov    %dx,(%rax)
    b3b3:	48 8b 85 88 f1 ff ff 	mov    -0xe78(%rbp),%rax
    b3ba:	0f b7 00             	movzwl (%rax),%eax
    b3bd:	0f b7 c0             	movzwl %ax,%eax
    b3c0:	8b 95 5c ee ff ff    	mov    -0x11a4(%rbp),%edx
    b3c6:	89 d6                	mov    %edx,%esi
    b3c8:	89 c7                	mov    %eax,%edi
    b3ca:	e8 ab aa ff ff       	callq  5e7a <safe_rshift_func_uint16_t_u_u>
    b3cf:	0f b7 95 10 f0 ff ff 	movzwl -0xff0(%rbp),%edx
    b3d6:	21 d0                	and    %edx,%eax
    b3d8:	0f b7 c0             	movzwl %ax,%eax
    b3db:	48 89 de             	mov    %rbx,%rsi
    b3de:	48 89 c7             	mov    %rax,%rdi
    b3e1:	e8 ce a5 ff ff       	callq  59b4 <safe_mod_func_int64_t_s_s>
    b3e6:	48 8d 05 5f fc 00 00 	lea    0xfc5f(%rip),%rax        # 1b04c <g_26>
    b3ed:	c7 00 00 00 00 00    	movl   $0x0,(%rax)
    b3f3:	48 8b 05 ae 16 01 00 	mov    0x116ae(%rip),%rax        # 1caa8 <g_845>
    b3fa:	48 8b 10             	mov    (%rax),%rdx
    b3fd:	48 8b 85 90 f1 ff ff 	mov    -0xe70(%rbp),%rax
    b404:	48 89 10             	mov    %rdx,(%rax)
    b407:	48 8b 85 10 f1 ff ff 	mov    -0xef0(%rbp),%rax
    b40e:	e9 b7 1e 00 00       	jmpq   d2ca <func_4+0x4b5d>
    b413:	48 8b 05 ee 16 01 00 	mov    0x116ee(%rip),%rax        # 1cb08 <g_1532>
    b41a:	48 85 c0             	test   %rax,%rax
    b41d:	0f 95 c0             	setne  %al
    b420:	0f b6 c0             	movzbl %al,%eax
    b423:	89 c7                	mov    %eax,%edi
    b425:	e8 7c aa ff ff       	callq  5ea6 <safe_unary_minus_func_uint32_t_u>
    b42a:	89 c3                	mov    %eax,%ebx
    b42c:	0f b7 85 10 f0 ff ff 	movzwl -0xff0(%rbp),%eax
    b433:	66 85 c0             	test   %ax,%ax
    b436:	0f 85 ab 00 00 00    	jne    b4e7 <func_4+0x2d7a>
    b43c:	be ff ff ff ff       	mov    $0xffffffff,%esi
    b441:	bf 4d 19 13 0a       	mov    $0xa13194d,%edi
    b446:	e8 85 aa ff ff       	callq  5ed0 <safe_sub_func_uint32_t_u_u>
    b44b:	85 c0                	test   %eax,%eax
    b44d:	0f 85 94 00 00 00    	jne    b4e7 <func_4+0x2d7a>
    b453:	8b 85 64 ee ff ff    	mov    -0x119c(%rbp),%eax
    b459:	85 c0                	test   %eax,%eax
    b45b:	74 07                	je     b464 <func_4+0x2cf7>
    b45d:	83 bd 5c ee ff ff 00 	cmpl   $0x0,-0x11a4(%rbp)
    b464:	48 8b 05 8d 16 01 00 	mov    0x1168d(%rip),%rax        # 1caf8 <g_1259>
    b46b:	48 8b 00             	mov    (%rax),%rax
    b46e:	0f b7 00             	movzwl (%rax),%eax
    b471:	48 8b 95 c8 f3 ff ff 	mov    -0xc38(%rbp),%rdx
    b478:	48 8b 85 80 f1 ff ff 	mov    -0xe80(%rbp),%rax
    b47f:	0f b7 00             	movzwl (%rax),%eax
    b482:	89 c1                	mov    %eax,%ecx
    b484:	89 d0                	mov    %edx,%eax
    b486:	31 c8                	xor    %ecx,%eax
    b488:	89 c2                	mov    %eax,%edx
    b48a:	48 8b 85 80 f1 ff ff 	mov    -0xe80(%rbp),%rax
    b491:	66 89 10             	mov    %dx,(%rax)
    b494:	48 8b 85 80 f1 ff ff 	mov    -0xe80(%rbp),%rax
    b49b:	0f b7 00             	movzwl (%rax),%eax
    b49e:	66 85 c0             	test   %ax,%ax
    b4a1:	74 08                	je     b4ab <func_4+0x2d3e>
    b4a3:	8b 85 a0 ee ff ff    	mov    -0x1160(%rbp),%eax
    b4a9:	85 c0                	test   %eax,%eax
    b4ab:	be 01 00 00 00       	mov    $0x1,%esi
    b4b0:	bf 01 00 00 00       	mov    $0x1,%edi
    b4b5:	e8 a2 a8 ff ff       	callq  5d5c <safe_mod_func_uint16_t_u_u>
    b4ba:	0f b7 d0             	movzwl %ax,%edx
    b4bd:	8b 85 04 f3 ff ff    	mov    -0xcfc(%rbp),%eax
    b4c3:	39 c2                	cmp    %eax,%edx
    b4c5:	0f 9e c0             	setle  %al
    b4c8:	0f b6 d0             	movzbl %al,%edx
    b4cb:	8b 85 64 ee ff ff    	mov    -0x119c(%rbp),%eax
    b4d1:	39 c2                	cmp    %eax,%edx
    b4d3:	0f 9e c0             	setle  %al
    b4d6:	0f b6 d0             	movzbl %al,%edx
    b4d9:	0f b7 05 f0 fe 00 00 	movzwl 0xfef0(%rip),%eax        # 1b3d0 <g_1087>
    b4e0:	0f b7 c0             	movzwl %ax,%eax
    b4e3:	09 d0                	or     %edx,%eax
    b4e5:	85 c0                	test   %eax,%eax
    b4e7:	b8 01 00 00 00       	mov    $0x1,%eax
    b4ec:	31 c3                	xor    %eax,%ebx
    b4ee:	89 da                	mov    %ebx,%edx
    b4f0:	48 8d 05 55 fb 00 00 	lea    0xfb55(%rip),%rax        # 1b04c <g_26>
    b4f7:	89 10                	mov    %edx,(%rax)
    b4f9:	8b 10                	mov    (%rax),%edx
    b4fb:	48 8b 85 68 ee ff ff 	mov    -0x1198(%rbp),%rax
    b502:	8b 00                	mov    (%rax),%eax
    b504:	31 c2                	xor    %eax,%edx
    b506:	48 8b 85 68 ee ff ff 	mov    -0x1198(%rbp),%rax
    b50d:	89 10                	mov    %edx,(%rax)
    b50f:	0f b7 05 82 fe 00 00 	movzwl 0xfe82(%rip),%eax        # 1b398 <g_461>
    b516:	83 c0 01             	add    $0x1,%eax
    b519:	66 89 05 78 fe 00 00 	mov    %ax,0xfe78(%rip)        # 1b398 <g_461>
    b520:	0f b7 05 71 fe 00 00 	movzwl 0xfe71(%rip),%eax        # 1b398 <g_461>
    b527:	66 83 f8 02          	cmp    $0x2,%ax
    b52b:	0f 86 16 f6 ff ff    	jbe    ab47 <func_4+0x23da>
    b531:	8b 85 9c ee ff ff    	mov    -0x1164(%rbp),%eax
    b537:	83 e8 01             	sub    $0x1,%eax
    b53a:	89 85 9c ee ff ff    	mov    %eax,-0x1164(%rbp)
    b540:	8b 85 9c ee ff ff    	mov    -0x1164(%rbp),%eax
    b546:	85 c0                	test   %eax,%eax
    b548:	0f 89 85 f5 ff ff    	jns    aad3 <func_4+0x2366>
    b54e:	0f b7 05 23 fd 00 00 	movzwl 0xfd23(%rip),%eax        # 1b278 <g_314>
    b555:	83 c0 01             	add    $0x1,%eax
    b558:	66 89 05 19 fd 00 00 	mov    %ax,0xfd19(%rip)        # 1b278 <g_314>
    b55f:	0f b7 05 12 fd 00 00 	movzwl 0xfd12(%rip),%eax        # 1b278 <g_314>
    b566:	66 83 f8 01          	cmp    $0x1,%ax
    b56a:	0f 86 fe e3 ff ff    	jbe    996e <func_4+0x1201>
    b570:	66 c7 05 ff fc 00 00 	movw   $0x0,0xfcff(%rip)        # 1b278 <g_314>
    b577:	00 00 
    b579:	e9 e6 04 00 00       	jmpq   ba64 <func_4+0x32f7>
    b57e:	48 8d 05 b3 11 01 00 	lea    0x111b3(%rip),%rax        # 1c738 <g_372+0x8>
    b585:	48 89 85 c0 f0 ff ff 	mov    %rax,-0xf40(%rbp)
    b58c:	c7 85 b0 ee ff ff 03 	movl   $0x3,-0x1150(%rbp)
    b593:	00 00 00 
    b596:	48 8d 05 3b 15 01 00 	lea    0x1153b(%rip),%rax        # 1cad8 <g_1181>
    b59d:	48 89 85 c8 f0 ff ff 	mov    %rax,-0xf38(%rbp)
    b5a4:	48 8b 95 70 f9 ff ff 	mov    -0x690(%rbp),%rdx
    b5ab:	48 8b 85 c0 f0 ff ff 	mov    -0xf40(%rbp),%rax
    b5b2:	48 89 10             	mov    %rdx,(%rax)
    b5b5:	c7 85 9c ee ff ff 03 	movl   $0x3,-0x1164(%rbp)
    b5bc:	00 00 00 
    b5bf:	e9 81 04 00 00       	jmpq   ba45 <func_4+0x32d8>
    b5c4:	48 8d 05 6d fa 00 00 	lea    0xfa6d(%rip),%rax        # 1b038 <g_23+0x8>
    b5cb:	48 89 85 d0 f0 ff ff 	mov    %rax,-0xf30(%rbp)
    b5d2:	c7 85 18 f0 ff ff 04 	movl   $0xcb0b6004,-0xfe8(%rbp)
    b5d9:	60 0b cb 
    b5dc:	48 8d 85 d0 ef ff ff 	lea    -0x1030(%rbp),%rax
    b5e3:	48 89 85 d8 f0 ff ff 	mov    %rax,-0xf28(%rbp)
    b5ea:	c7 85 c0 ee ff ff 00 	movl   $0x0,-0x1140(%rbp)
    b5f1:	00 00 00 
    b5f4:	e9 2d 04 00 00       	jmpq   ba26 <func_4+0x32b9>
    b5f9:	66 c7 85 8e ee ff ff 	movw   $0xf793,-0x1172(%rbp)
    b600:	93 f7 
    b602:	48 8d 05 43 fa 00 00 	lea    0xfa43(%rip),%rax        # 1b04c <g_26>
    b609:	8b 00                	mov    (%rax),%eax
    b60b:	85 c0                	test   %eax,%eax
    b60d:	0f 85 22 04 00 00    	jne    ba35 <func_4+0x32c8>
    b613:	48 8b 05 ee 14 01 00 	mov    0x114ee(%rip),%rax        # 1cb08 <g_1532>
    b61a:	48 8b 00             	mov    (%rax),%rax
    b61d:	49 89 c7             	mov    %rax,%r15
    b620:	8b 05 fe fd 00 00    	mov    0xfdfe(%rip),%eax        # 1b424 <g_1564>
    b626:	0f b6 d8             	movzbl %al,%ebx
    b629:	48 8b 05 c0 14 01 00 	mov    0x114c0(%rip),%rax        # 1caf0 <g_1260>
    b630:	0f b7 00             	movzwl (%rax),%eax
    b633:	88 85 5b ee ff ff    	mov    %al,-0x11a5(%rbp)
    b639:	48 8b 85 d0 f0 ff ff 	mov    -0xf30(%rbp),%rax
    b640:	48 3b 85 b0 f0 ff ff 	cmp    -0xf50(%rbp),%rax
    b647:	0f 95 c0             	setne  %al
    b64a:	0f b6 f0             	movzbl %al,%esi
    b64d:	48 8b 85 d0 f0 ff ff 	mov    -0xf30(%rbp),%rax
    b654:	0f b6 00             	movzbl (%rax),%eax
    b657:	8d 48 ff             	lea    -0x1(%rax),%ecx
    b65a:	48 8b 95 d0 f0 ff ff 	mov    -0xf30(%rbp),%rdx
    b661:	88 0a                	mov    %cl,(%rdx)
    b663:	0f b6 c0             	movzbl %al,%eax
    b666:	39 c6                	cmp    %eax,%esi
    b668:	0f 9f c0             	setg   %al
    b66b:	44 0f b6 f0          	movzbl %al,%r14d
    b66f:	48 8b 05 8a fa 00 00 	mov    0xfa8a(%rip),%rax        # 1b100 <g_88+0x80>
    b676:	89 85 54 ee ff ff    	mov    %eax,-0x11ac(%rbp)
    b67c:	44 8b a5 18 f0 ff ff 	mov    -0xfe8(%rbp),%r12d
    b683:	66 83 bd 8e ee ff ff 	cmpw   $0x0,-0x1172(%rbp)
    b68a:	00 
    b68b:	75 4b                	jne    b6d8 <func_4+0x2f6b>
    b68d:	0f b6 05 5c fb 00 00 	movzbl 0xfb5c(%rip),%eax        # 1b1f0 <g_219>
    b694:	4c 0f be e8          	movsbq %al,%r13
    b698:	8b 85 5c ee ff ff    	mov    -0x11a4(%rbp),%eax
    b69e:	0f be d0             	movsbl %al,%edx
    b6a1:	48 8b 05 18 10 01 00 	mov    0x11018(%rip),%rax        # 1c6c0 <g_27>
    b6a8:	0f b6 00             	movzbl (%rax),%eax
    b6ab:	0f be c0             	movsbl %al,%eax
    b6ae:	89 d6                	mov    %edx,%esi
    b6b0:	89 c7                	mov    %eax,%edi
    b6b2:	e8 1d 9b ff ff       	callq  51d4 <safe_add_func_int8_t_s_s>
    b6b7:	4c 89 ee             	mov    %r13,%rsi
    b6ba:	48 bf 09 a4 10 df 2a 	movabs $0xd778992adf10a409,%rdi
    b6c1:	99 78 d7 
    b6c4:	e8 65 a9 ff ff       	callq  602e <safe_add_func_uint64_t_u_u>
    b6c9:	48 85 c0             	test   %rax,%rax
    b6cc:	75 0a                	jne    b6d8 <func_4+0x2f6b>
    b6ce:	8b 85 64 ee ff ff    	mov    -0x119c(%rbp),%eax
    b6d4:	85 c0                	test   %eax,%eax
    b6d6:	74 07                	je     b6df <func_4+0x2f72>
    b6d8:	b8 01 00 00 00       	mov    $0x1,%eax
    b6dd:	eb 05                	jmp    b6e4 <func_4+0x2f77>
    b6df:	b8 00 00 00 00       	mov    $0x0,%eax
    b6e4:	0f b6 c0             	movzbl %al,%eax
    b6e7:	44 89 e6             	mov    %r12d,%esi
    b6ea:	89 c7                	mov    %eax,%edi
    b6ec:	e8 14 a5 ff ff       	callq  5c05 <safe_lshift_func_uint8_t_u_s>
    b6f1:	0f b6 c0             	movzbl %al,%eax
    b6f4:	39 85 5c ee ff ff    	cmp    %eax,-0x11a4(%rbp)
    b6fa:	0f 95 c0             	setne  %al
    b6fd:	0f b6 c0             	movzbl %al,%eax
    b700:	8b b5 54 ee ff ff    	mov    -0x11ac(%rbp),%esi
    b706:	89 c7                	mov    %eax,%edi
    b708:	e8 56 9e ff ff       	callq  5563 <safe_rshift_func_int16_t_s_u>
    b70d:	98                   	cwtl   
    b70e:	41 39 c6             	cmp    %eax,%r14d
    b711:	0f 9f c0             	setg   %al
    b714:	22 85 5b ee ff ff    	and    -0x11a5(%rbp),%al
    b71a:	0f be d0             	movsbl %al,%edx
    b71d:	48 8d 05 28 f9 00 00 	lea    0xf928(%rip),%rax        # 1b04c <g_26>
    b724:	8b 00                	mov    (%rax),%eax
    b726:	83 f8 ff             	cmp    $0xffffffff,%eax
    b729:	0f 94 c0             	sete   %al
    b72c:	0f b6 c0             	movzbl %al,%eax
    b72f:	89 d6                	mov    %edx,%esi
    b731:	89 c7                	mov    %eax,%edi
    b733:	e8 f9 9a ff ff       	callq  5231 <safe_mod_func_int8_t_s_s>
    b738:	89 c2                	mov    %eax,%edx
    b73a:	48 8b 05 a7 0f 01 00 	mov    0x10fa7(%rip),%rax        # 1c6e8 <g_135>
    b741:	0f be d2             	movsbl %dl,%edx
    b744:	89 10                	mov    %edx,(%rax)
    b746:	8b 00                	mov    (%rax),%eax
    b748:	39 85 5c ee ff ff    	cmp    %eax,-0x11a4(%rbp)
    b74e:	0f 93 c0             	setae  %al
    b751:	0f b6 c0             	movzbl %al,%eax
    b754:	89 de                	mov    %ebx,%esi
    b756:	89 c7                	mov    %eax,%edi
    b758:	e8 51 a4 ff ff       	callq  5bae <safe_mod_func_uint8_t_u_u>
    b75d:	0f b6 c0             	movzbl %al,%eax
    b760:	4c 89 fe             	mov    %r15,%rsi
    b763:	48 89 c7             	mov    %rax,%rdi
    b766:	e8 49 a2 ff ff       	callq  59b4 <safe_mod_func_int64_t_s_s>
    b76b:	48 85 c0             	test   %rax,%rax
    b76e:	75 07                	jne    b777 <func_4+0x300a>
    b770:	83 bd 5c ee ff ff 00 	cmpl   $0x0,-0x11a4(%rbp)
    b777:	bf 00 00 00 00       	mov    $0x0,%edi
    b77c:	e8 c4 a3 ff ff       	callq  5b45 <safe_unary_minus_func_uint8_t_u>
    b781:	8b 85 18 f0 ff ff    	mov    -0xfe8(%rbp),%eax
    b787:	48 98                	cltq   
    b789:	25 ba 07 c0 06       	and    $0x6c007ba,%eax
    b78e:	31 85 b0 ee ff ff    	xor    %eax,-0x1150(%rbp)
    b794:	c7 85 a0 ee ff ff 00 	movl   $0x0,-0x1160(%rbp)
    b79b:	00 00 00 
    b79e:	e9 fa 01 00 00       	jmpq   b99d <func_4+0x3230>
    b7a3:	48 8d 05 40 fc 00 00 	lea    0xfc40(%rip),%rax        # 1b3ea <g_1135+0xa>
    b7aa:	48 89 85 e0 f0 ff ff 	mov    %rax,-0xf20(%rbp)
    b7b1:	48 c7 85 e8 f0 ff ff 	movq   $0x0,-0xf18(%rbp)
    b7b8:	00 00 00 00 
    b7bc:	48 c7 85 f0 f0 ff ff 	movq   $0x0,-0xf10(%rbp)
    b7c3:	00 00 00 00 
    b7c7:	66 83 bd 8e ee ff ff 	cmpw   $0x0,-0x1172(%rbp)
    b7ce:	00 
    b7cf:	0f 84 d5 00 00 00    	je     b8aa <func_4+0x313d>
    b7d5:	8b 85 c0 ee ff ff    	mov    -0x1140(%rbp),%eax
    b7db:	0f be d8             	movsbl %al,%ebx
    b7de:	8b 95 60 ee ff ff    	mov    -0x11a0(%rbp),%edx
    b7e4:	83 bd 60 ee ff ff 00 	cmpl   $0x0,-0x11a0(%rbp)
    b7eb:	74 0a                	je     b7f7 <func_4+0x308a>
    b7ed:	66 83 bd 8e ee ff ff 	cmpw   $0x0,-0x1172(%rbp)
    b7f4:	00 
    b7f5:	75 3f                	jne    b836 <func_4+0x30c9>
    b7f7:	48 8b 85 68 ee ff ff 	mov    -0x1198(%rbp),%rax
    b7fe:	c7 00 00 00 00 00    	movl   $0x0,(%rax)
    b804:	48 8b 85 68 ee ff ff 	mov    -0x1198(%rbp),%rax
    b80b:	8b 08                	mov    (%rax),%ecx
    b80d:	0f bf 85 8e ee ff ff 	movswl -0x1172(%rbp),%eax
    b814:	09 c1                	or     %eax,%ecx
    b816:	8b 85 04 f3 ff ff    	mov    -0xcfc(%rbp),%eax
    b81c:	21 c8                	and    %ecx,%eax
    b81e:	83 f8 01             	cmp    $0x1,%eax
    b821:	0f 97 c1             	seta   %cl
    b824:	48 8d 05 21 f8 00 00 	lea    0xf821(%rip),%rax        # 1b04c <g_26>
    b82b:	0f b6 c9             	movzbl %cl,%ecx
    b82e:	89 08                	mov    %ecx,(%rax)
    b830:	8b 00                	mov    (%rax),%eax
    b832:	85 c0                	test   %eax,%eax
    b834:	74 07                	je     b83d <func_4+0x30d0>
    b836:	b9 01 00 00 00       	mov    $0x1,%ecx
    b83b:	eb 05                	jmp    b842 <func_4+0x30d5>
    b83d:	b9 00 00 00 00       	mov    $0x0,%ecx
    b842:	8b 85 64 ee ff ff    	mov    -0x119c(%rbp),%eax
    b848:	39 c1                	cmp    %eax,%ecx
    b84a:	0f 9e c0             	setle  %al
    b84d:	0f b6 c0             	movzbl %al,%eax
    b850:	89 d6                	mov    %edx,%esi
    b852:	89 c7                	mov    %eax,%edi
    b854:	e8 a6 9e ff ff       	callq  56ff <safe_div_func_int32_t_s_s>
    b859:	0f be c0             	movsbl %al,%eax
    b85c:	89 de                	mov    %ebx,%esi
    b85e:	89 c7                	mov    %eax,%edi
    b860:	e8 cc 99 ff ff       	callq  5231 <safe_mod_func_int8_t_s_s>
    b865:	89 c2                	mov    %eax,%edx
    b867:	8b 85 60 ee ff ff    	mov    -0x11a0(%rbp),%eax
    b86d:	09 d0                	or     %edx,%eax
    b86f:	0f be d0             	movsbl %al,%edx
    b872:	8b 85 18 f0 ff ff    	mov    -0xfe8(%rbp),%eax
    b878:	39 85 5c ee ff ff    	cmp    %eax,-0x11a4(%rbp)
    b87e:	0f 97 c0             	seta   %al
    b881:	0f b6 c0             	movzbl %al,%eax
    b884:	48 8b 1d 35 0e 01 00 	mov    0x10e35(%rip),%rbx        # 1c6c0 <g_27>
    b88b:	89 d6                	mov    %edx,%esi
    b88d:	89 c7                	mov    %eax,%edi
    b88f:	e8 7e 99 ff ff       	callq  5212 <safe_mul_func_int8_t_s_s>
    b894:	88 03                	mov    %al,(%rbx)
    b896:	48 8b 85 68 ee ff ff 	mov    -0x1198(%rbp),%rax
    b89d:	8b 00                	mov    (%rax),%eax
    b89f:	85 c0                	test   %eax,%eax
    b8a1:	74 07                	je     b8aa <func_4+0x313d>
    b8a3:	ba 01 00 00 00       	mov    $0x1,%edx
    b8a8:	eb 05                	jmp    b8af <func_4+0x3142>
    b8aa:	ba 00 00 00 00       	mov    $0x0,%edx
    b8af:	8b 85 40 f3 ff ff    	mov    -0xcc0(%rbp),%eax
    b8b5:	09 d0                	or     %edx,%eax
    b8b7:	89 85 40 f3 ff ff    	mov    %eax,-0xcc0(%rbp)
    b8bd:	48 8b 05 8c 14 01 00 	mov    0x1148c(%rip),%rax        # 1cd50 <g_1577>
    b8c4:	48 8d 15 f5 0d 01 00 	lea    0x10df5(%rip),%rdx        # 1c6c0 <g_27>
    b8cb:	48 89 10             	mov    %rdx,(%rax)
    b8ce:	48 8b 85 e0 f0 ff ff 	mov    -0xf20(%rbp),%rax
    b8d5:	66 c7 00 e9 82       	movw   $0x82e9,(%rax)
    b8da:	48 8b 85 68 ee ff ff 	mov    -0x1198(%rbp),%rax
    b8e1:	8b 00                	mov    (%rax),%eax
    b8e3:	89 c6                	mov    %eax,%esi
    b8e5:	bf 8b 00 06 ed       	mov    $0xed06008b,%edi
    b8ea:	e8 e1 a5 ff ff       	callq  5ed0 <safe_sub_func_uint32_t_u_u>
    b8ef:	66 83 bd 8e ee ff ff 	cmpw   $0x0,-0x1172(%rbp)
    b8f6:	00 
    b8f7:	75 36                	jne    b92f <func_4+0x31c2>
    b8f9:	83 ad 5c ee ff ff 01 	subl   $0x1,-0x11a4(%rbp)
    b900:	48 8b 85 d8 f0 ff ff 	mov    -0xf28(%rbp),%rax
    b907:	48 89 05 2a 21 01 00 	mov    %rax,0x1212a(%rip)        # 1da38 <g_1587>
    b90e:	48 8b 05 e3 11 01 00 	mov    0x111e3(%rip),%rax        # 1caf8 <g_1259>
    b915:	48 8b 00             	mov    (%rax),%rax
    b918:	0f b7 00             	movzwl (%rax),%eax
    b91b:	66 3d 9c 3f          	cmp    $0x3f9c,%ax
    b91f:	0f 97 c0             	seta   %al
    b922:	0f b6 d0             	movzbl %al,%edx
    b925:	8b 85 18 f0 ff ff    	mov    -0xfe8(%rbp),%eax
    b92b:	39 c2                	cmp    %eax,%edx
    b92d:	74 07                	je     b936 <func_4+0x31c9>
    b92f:	b8 01 00 00 00       	mov    $0x1,%eax
    b934:	eb 05                	jmp    b93b <func_4+0x31ce>
    b936:	b8 00 00 00 00       	mov    $0x0,%eax
    b93b:	48 98                	cltq   
    b93d:	83 e0 04             	and    $0x4,%eax
    b940:	48 89 c2             	mov    %rax,%rdx
    b943:	8b 85 60 ee ff ff    	mov    -0x11a0(%rbp),%eax
    b949:	48 89 d6             	mov    %rdx,%rsi
    b94c:	48 89 c7             	mov    %rax,%rdi
    b94f:	e8 ed 9e ff ff       	callq  5841 <safe_add_func_int64_t_s_s>
    b954:	8b 85 18 f0 ff ff    	mov    -0xfe8(%rbp),%eax
    b95a:	98                   	cwtl   
    b95b:	48 8b 1d f6 13 01 00 	mov    0x113f6(%rip),%rbx        # 1cd58 <g_1590>
    b962:	48 8b 95 b0 f0 ff ff 	mov    -0xf50(%rbp),%rdx
    b969:	48 8b 8d f0 f0 ff ff 	mov    -0xf10(%rbp),%rcx
    b970:	48 89 ce             	mov    %rcx,%rsi
    b973:	89 c7                	mov    %eax,%edi
    b975:	e8 cf 88 00 00       	callq  14249 <func_57>
    b97a:	48 89 03             	mov    %rax,(%rbx)
    b97d:	48 8b 85 c0 f0 ff ff 	mov    -0xf40(%rbp),%rax
    b984:	48 8d 95 18 f0 ff ff 	lea    -0xfe8(%rbp),%rdx
    b98b:	48 89 10             	mov    %rdx,(%rax)
    b98e:	8b 85 a0 ee ff ff    	mov    -0x1160(%rbp),%eax
    b994:	83 c0 01             	add    $0x1,%eax
    b997:	89 85 a0 ee ff ff    	mov    %eax,-0x1160(%rbp)
    b99d:	8b 85 a0 ee ff ff    	mov    -0x1160(%rbp),%eax
    b9a3:	83 f8 03             	cmp    $0x3,%eax
    b9a6:	0f 8e f7 fd ff ff    	jle    b7a3 <func_4+0x3036>
    b9ac:	c7 85 a8 ee ff ff 02 	movl   $0x2,-0x1158(%rbp)
    b9b3:	00 00 00 
    b9b6:	eb 5d                	jmp    ba15 <func_4+0x32a8>
    b9b8:	48 8b 85 c0 f0 ff ff 	mov    -0xf40(%rbp),%rax
    b9bf:	48 8d 95 00 f3 ff ff 	lea    -0xd00(%rbp),%rdx
    b9c6:	48 83 c2 04          	add    $0x4,%rdx
    b9ca:	48 89 10             	mov    %rdx,(%rax)
    b9cd:	8b 85 a8 ee ff ff    	mov    -0x1158(%rbp),%eax
    b9d3:	48 98                	cltq   
    b9d5:	48 8d 14 85 00 00 00 	lea    0x0(,%rax,4),%rdx
    b9dc:	00 
    b9dd:	48 8d 05 74 f6 00 00 	lea    0xf674(%rip),%rax        # 1b058 <g_84>
    b9e4:	8b 14 02             	mov    (%rdx,%rax,1),%edx
    b9e7:	8b 85 a8 ee ff ff    	mov    -0x1158(%rbp),%eax
    b9ed:	89 d1                	mov    %edx,%ecx
    b9ef:	83 c9 08             	or     $0x8,%ecx
    b9f2:	48 98                	cltq   
    b9f4:	48 8d 14 85 00 00 00 	lea    0x0(,%rax,4),%rdx
    b9fb:	00 
    b9fc:	48 8d 05 55 f6 00 00 	lea    0xf655(%rip),%rax        # 1b058 <g_84>
    ba03:	89 0c 02             	mov    %ecx,(%rdx,%rax,1)
    ba06:	8b 85 a8 ee ff ff    	mov    -0x1158(%rbp),%eax
    ba0c:	83 e8 01             	sub    $0x1,%eax
    ba0f:	89 85 a8 ee ff ff    	mov    %eax,-0x1158(%rbp)
    ba15:	8b 85 a8 ee ff ff    	mov    -0x1158(%rbp),%eax
    ba1b:	85 c0                	test   %eax,%eax
    ba1d:	79 99                	jns    b9b8 <func_4+0x324b>
    ba1f:	83 85 c0 ee ff ff 01 	addl   $0x1,-0x1140(%rbp)
    ba26:	83 bd c0 ee ff ff 03 	cmpl   $0x3,-0x1140(%rbp)
    ba2d:	0f 8e c6 fb ff ff    	jle    b5f9 <func_4+0x2e8c>
    ba33:	eb 01                	jmp    ba36 <func_4+0x32c9>
    ba35:	90                   	nop
    ba36:	8b 85 9c ee ff ff    	mov    -0x1164(%rbp),%eax
    ba3c:	83 e8 01             	sub    $0x1,%eax
    ba3f:	89 85 9c ee ff ff    	mov    %eax,-0x1164(%rbp)
    ba45:	8b 85 9c ee ff ff    	mov    -0x1164(%rbp),%eax
    ba4b:	85 c0                	test   %eax,%eax
    ba4d:	0f 89 71 fb ff ff    	jns    b5c4 <func_4+0x2e57>
    ba53:	0f b7 05 1e f8 00 00 	movzwl 0xf81e(%rip),%eax        # 1b278 <g_314>
    ba5a:	83 c0 01             	add    $0x1,%eax
    ba5d:	66 89 05 14 f8 00 00 	mov    %ax,0xf814(%rip)        # 1b278 <g_314>
    ba64:	0f b7 05 0d f8 00 00 	movzwl 0xf80d(%rip),%eax        # 1b278 <g_314>
    ba6b:	66 83 f8 03          	cmp    $0x3,%ax
    ba6f:	0f 86 09 fb ff ff    	jbe    b57e <func_4+0x2e11>
    ba75:	e9 1d 01 00 00       	jmpq   bb97 <func_4+0x342a>
    ba7a:	48 8d 05 e7 f5 00 00 	lea    0xf5e7(%rip),%rax        # 1b068 <g_86>
    ba81:	48 89 85 90 f0 ff ff 	mov    %rax,-0xf70(%rbp)
    ba88:	48 8d 05 0d f9 00 00 	lea    0xf90d(%rip),%rax        # 1b39c <g_623>
    ba8f:	48 89 85 98 f0 ff ff 	mov    %rax,-0xf68(%rbp)
    ba96:	48 8d 05 bb f5 00 00 	lea    0xf5bb(%rip),%rax        # 1b058 <g_84>
    ba9d:	48 89 85 10 f6 ff ff 	mov    %rax,-0x9f0(%rbp)
    baa4:	48 8d 05 ad f5 00 00 	lea    0xf5ad(%rip),%rax        # 1b058 <g_84>
    baab:	48 89 85 18 f6 ff ff 	mov    %rax,-0x9e8(%rbp)
    bab2:	48 8d 05 9f f5 00 00 	lea    0xf59f(%rip),%rax        # 1b058 <g_84>
    bab9:	48 89 85 20 f6 ff ff 	mov    %rax,-0x9e0(%rbp)
    bac0:	48 8d 05 91 f5 00 00 	lea    0xf591(%rip),%rax        # 1b058 <g_84>
    bac7:	48 89 85 28 f6 ff ff 	mov    %rax,-0x9d8(%rbp)
    bace:	48 8d 05 83 f5 00 00 	lea    0xf583(%rip),%rax        # 1b058 <g_84>
    bad5:	48 89 85 30 f6 ff ff 	mov    %rax,-0x9d0(%rbp)
    badc:	48 8d 05 75 f5 00 00 	lea    0xf575(%rip),%rax        # 1b058 <g_84>
    bae3:	48 89 85 38 f6 ff ff 	mov    %rax,-0x9c8(%rbp)
    baea:	48 8d 05 67 f5 00 00 	lea    0xf567(%rip),%rax        # 1b058 <g_84>
    baf1:	48 89 85 40 f6 ff ff 	mov    %rax,-0x9c0(%rbp)
    baf8:	48 c7 85 28 f0 ff ff 	movq   $0x0,-0xfd8(%rbp)
    baff:	00 00 00 00 
    bb03:	eb 36                	jmp    bb3b <func_4+0x33ce>
    bb05:	48 8b 85 68 ee ff ff 	mov    -0x1198(%rbp),%rax
    bb0c:	8b 00                	mov    (%rax),%eax
    bb0e:	85 c0                	test   %eax,%eax
    bb10:	75 35                	jne    bb47 <func_4+0x33da>
    bb12:	8b 05 f0 1e 01 00    	mov    0x11ef0(%rip),%eax        # 1da08 <g_1009>
    bb18:	85 c0                	test   %eax,%eax
    bb1a:	75 2e                	jne    bb4a <func_4+0x33dd>
    bb1c:	48 8b 85 28 f0 ff ff 	mov    -0xfd8(%rbp),%rax
    bb23:	98                   	cwtl   
    bb24:	be 07 00 00 00       	mov    $0x7,%esi
    bb29:	89 c7                	mov    %eax,%edi
    bb2b:	e8 83 98 ff ff       	callq  53b3 <safe_add_func_int16_t_s_s>
    bb30:	48 0f bf c0          	movswq %ax,%rax
    bb34:	48 89 85 28 f0 ff ff 	mov    %rax,-0xfd8(%rbp)
    bb3b:	48 83 bd 28 f0 ff ff 	cmpq   $0x1,-0xfd8(%rbp)
    bb42:	01 
    bb43:	77 c0                	ja     bb05 <func_4+0x3398>
    bb45:	eb 04                	jmp    bb4b <func_4+0x33de>
    bb47:	90                   	nop
    bb48:	eb 01                	jmp    bb4b <func_4+0x33de>
    bb4a:	90                   	nop
    bb4b:	8b 85 60 ee ff ff    	mov    -0x11a0(%rbp),%eax
    bb51:	0f bf d0             	movswl %ax,%edx
    bb54:	48 8b 85 80 fd ff ff 	mov    -0x280(%rbp),%rax
    bb5b:	48 39 85 98 f0 ff ff 	cmp    %rax,-0xf68(%rbp)
    bb62:	0f 94 c0             	sete   %al
    bb65:	0f b6 c0             	movzbl %al,%eax
    bb68:	48 8b 0d d1 0b 01 00 	mov    0x10bd1(%rip),%rcx        # 1c740 <g_392>
    bb6f:	48 8b 09             	mov    (%rcx),%rcx
    bb72:	48 89 c6             	mov    %rax,%rsi
    bb75:	bf 00 00 00 00       	mov    $0x0,%edi
    bb7a:	e8 fd 40 00 00       	callq  fc7c <func_41>
    bb7f:	48 89 85 18 f6 ff ff 	mov    %rax,-0x9e8(%rbp)
    bb86:	48 8b 05 0b 12 01 00 	mov    0x1120b(%rip),%rax        # 1cd98 <g_1598>
    bb8d:	48 8b 95 30 f0 ff ff 	mov    -0xfd0(%rbp),%rdx
    bb94:	48 89 10             	mov    %rdx,(%rax)
    bb97:	48 8b 85 40 f0 ff ff 	mov    -0xfc0(%rbp),%rax
    bb9e:	48 8d 95 64 ee ff ff 	lea    -0x119c(%rbp),%rdx
    bba5:	48 89 10             	mov    %rdx,(%rax)
    bba8:	48 8b 85 40 f0 ff ff 	mov    -0xfc0(%rbp),%rax
    bbaf:	48 8b 10             	mov    (%rax),%rdx
    bbb2:	48 8d 85 64 ee ff ff 	lea    -0x119c(%rbp),%rax
    bbb9:	48 39 c2             	cmp    %rax,%rdx
    bbbc:	0f 94 c0             	sete   %al
    bbbf:	0f b6 c0             	movzbl %al,%eax
    bbc2:	48 89 c6             	mov    %rax,%rsi
    bbc5:	48 bf 5e 5d 34 9c ee 	movabs $0x8099bbee9c345d5e,%rdi
    bbcc:	bb 99 80 
    bbcf:	e8 5a a4 ff ff       	callq  602e <safe_add_func_uint64_t_u_u>
    bbd4:	48 89 c2             	mov    %rax,%rdx
    bbd7:	48 8d 05 6e f4 00 00 	lea    0xf46e(%rip),%rax        # 1b04c <g_26>
    bbde:	89 10                	mov    %edx,(%rax)
    bbe0:	8b 00                	mov    (%rax),%eax
    bbe2:	85 c0                	test   %eax,%eax
    bbe4:	0f 84 26 11 00 00    	je     cd10 <func_4+0x45a3>
    bbea:	c7 85 b4 ee ff ff ff 	movl   $0xffffffff,-0x114c(%rbp)
    bbf1:	ff ff ff 
    bbf4:	c7 85 4c ef ff ff 08 	movl   $0x8,-0x10b4(%rbp)
    bbfb:	00 00 00 
    bbfe:	48 c7 85 f0 ef ff ff 	movq   $0x0,-0x1010(%rbp)
    bc05:	00 00 00 00 
    bc09:	48 8d 85 f0 ef ff ff 	lea    -0x1010(%rbp),%rax
    bc10:	48 89 85 e8 f1 ff ff 	mov    %rax,-0xe18(%rbp)
    bc17:	c7 85 50 ef ff ff 01 	movl   $0x1,-0x10b0(%rbp)
    bc1e:	00 00 00 
    bc21:	c7 85 54 ef ff ff f6 	movl   $0xfffffff6,-0x10ac(%rbp)
    bc28:	ff ff ff 
    bc2b:	c7 85 58 ef ff ff cb 	movl   $0x2b02cccb,-0x10a8(%rbp)
    bc32:	cc 02 2b 
    bc35:	c7 85 5c ef ff ff 09 	movl   $0x9,-0x10a4(%rbp)
    bc3c:	00 00 00 
    bc3f:	48 8d 05 7a 0a 01 00 	lea    0x10a7a(%rip),%rax        # 1c6c0 <g_27>
    bc46:	48 89 85 20 f0 ff ff 	mov    %rax,-0xfe0(%rbp)
    bc4d:	c7 85 60 ef ff ff 05 	movl   $0x5,-0x10a0(%rbp)
    bc54:	00 00 00 
    bc57:	c7 85 b8 ee ff ff 00 	movl   $0x0,-0x1148(%rbp)
    bc5e:	00 00 00 
    bc61:	eb 1a                	jmp    bc7d <func_4+0x3510>
    bc63:	8b 85 b8 ee ff ff    	mov    -0x1148(%rbp),%eax
    bc69:	48 98                	cltq   
    bc6b:	c7 84 85 00 f3 ff ff 	movl   $0x0,-0xd00(%rbp,%rax,4)
    bc72:	00 00 00 00 
    bc76:	83 85 b8 ee ff ff 01 	addl   $0x1,-0x1148(%rbp)
    bc7d:	83 bd b8 ee ff ff 01 	cmpl   $0x1,-0x1148(%rbp)
    bc84:	7e dd                	jle    bc63 <func_4+0x34f6>
    bc86:	c7 85 b8 ee ff ff 00 	movl   $0x0,-0x1148(%rbp)
    bc8d:	00 00 00 
    bc90:	eb 1a                	jmp    bcac <func_4+0x353f>
    bc92:	8b 85 b8 ee ff ff    	mov    -0x1148(%rbp),%eax
    bc98:	48 98                	cltq   
    bc9a:	c7 84 85 e4 f2 ff ff 	movl   $0x9a7ec6d8,-0xd1c(%rbp,%rax,4)
    bca1:	d8 c6 7e 9a 
    bca5:	83 85 b8 ee ff ff 01 	addl   $0x1,-0x1148(%rbp)
    bcac:	83 bd b8 ee ff ff 00 	cmpl   $0x0,-0x1148(%rbp)
    bcb3:	7e dd                	jle    bc92 <func_4+0x3525>
    bcb5:	c6 05 64 f7 00 00 00 	movb   $0x0,0xf764(%rip)        # 1b420 <g_1202>
    bcbc:	e9 3b 10 00 00       	jmpq   ccfc <func_4+0x458f>
    bcc1:	c7 85 ac ee ff ff ff 	movl   $0xffffffff,-0x1154(%rbp)
    bcc8:	ff ff ff 
    bccb:	c7 85 80 ef ff ff a1 	movl   $0xf7778a1,-0x1080(%rbp)
    bcd2:	78 77 0f 
    bcd5:	48 c7 85 78 f2 ff ff 	movq   $0x0,-0xd88(%rbp)
    bcdc:	00 00 00 00 
    bce0:	c7 85 84 ef ff ff ff 	movl   $0xffffffff,-0x107c(%rbp)
    bce7:	ff ff ff 
    bcea:	c7 85 88 ef ff ff a9 	movl   $0x264fa7a9,-0x1078(%rbp)
    bcf1:	a7 4f 26 
    bcf4:	c7 85 8c ef ff ff 71 	movl   $0x699fde71,-0x1074(%rbp)
    bcfb:	de 9f 69 
    bcfe:	c7 85 10 f3 ff ff 00 	movl   $0x0,-0xcf0(%rbp)
    bd05:	00 00 00 
    bd08:	c7 85 14 f3 ff ff 00 	movl   $0x0,-0xcec(%rbp)
    bd0f:	00 00 00 
    bd12:	c7 85 18 f3 ff ff 00 	movl   $0x0,-0xce8(%rbp)
    bd19:	00 00 00 
    bd1c:	c7 85 1c f3 ff ff 00 	movl   $0x0,-0xce4(%rbp)
    bd23:	00 00 00 
    bd26:	c7 85 20 f3 ff ff 00 	movl   $0x0,-0xce0(%rbp)
    bd2d:	00 00 00 
    bd30:	c7 85 90 ef ff ff 17 	movl   $0xcd1fe317,-0x1070(%rbp)
    bd37:	e3 1f cd 
    bd3a:	48 c7 85 30 f3 ff ff 	movq   $0x0,-0xcd0(%rbp)
    bd41:	00 00 00 00 
    bd45:	48 c7 85 38 f3 ff ff 	movq   $0x0,-0xcc8(%rbp)
    bd4c:	00 00 00 00 
    bd50:	48 c7 85 40 f3 ff ff 	movq   $0x0,-0xcc0(%rbp)
    bd57:	00 00 00 00 
    bd5b:	48 c7 85 48 f3 ff ff 	movq   $0x0,-0xcb8(%rbp)
    bd62:	00 00 00 00 
    bd66:	c7 85 a0 ee ff ff 02 	movl   $0x2,-0x1160(%rbp)
    bd6d:	00 00 00 
    bd70:	e9 68 0f 00 00       	jmpq   ccdd <func_4+0x4570>
    bd75:	48 8d 05 44 09 01 00 	lea    0x10944(%rip),%rax        # 1c6c0 <g_27>
    bd7c:	48 89 85 f8 ef ff ff 	mov    %rax,-0x1008(%rbp)
    bd83:	48 8d 85 f8 ef ff ff 	lea    -0x1008(%rbp),%rax
    bd8a:	48 89 85 00 f0 ff ff 	mov    %rax,-0x1000(%rbp)
    bd91:	48 8d 85 00 f0 ff ff 	lea    -0x1000(%rbp),%rax
    bd98:	48 89 85 80 f2 ff ff 	mov    %rax,-0xd80(%rbp)
    bd9f:	48 8d 85 f8 ef ff ff 	lea    -0x1008(%rbp),%rax
    bda6:	48 89 85 08 f0 ff ff 	mov    %rax,-0xff8(%rbp)
    bdad:	c6 85 7d ee ff ff d4 	movb   $0xd4,-0x1183(%rbp)
    bdb4:	48 8d 05 a5 1c 01 00 	lea    0x11ca5(%rip),%rax        # 1da60 <g_1668>
    bdbb:	48 89 85 88 f2 ff ff 	mov    %rax,-0xd78(%rbp)
    bdc2:	c7 85 94 ef ff ff 00 	movl   $0x0,-0x106c(%rbp)
    bdc9:	00 00 00 
    bdcc:	48 b8 a7 28 38 0d 99 	movabs $0x3b2b1990d3828a7,%rax
    bdd3:	b1 b2 03 
    bdd6:	48 89 85 90 f2 ff ff 	mov    %rax,-0xd70(%rbp)
    bddd:	c7 85 98 ef ff ff 3b 	movl   $0xb8d6633b,-0x1068(%rbp)
    bde4:	63 d6 b8 
    bde7:	c7 85 e4 ee ff ff 00 	movl   $0x0,-0x111c(%rbp)
    bdee:	00 00 00 
    bdf1:	eb 1e                	jmp    be11 <func_4+0x36a4>
    bdf3:	8b 85 e4 ee ff ff    	mov    -0x111c(%rbp),%eax
    bdf9:	48 98                	cltq   
    bdfb:	48 8d 95 08 f0 ff ff 	lea    -0xff8(%rbp),%rdx
    be02:	48 89 94 c5 f0 f2 ff 	mov    %rdx,-0xd10(%rbp,%rax,8)
    be09:	ff 
    be0a:	83 85 e4 ee ff ff 01 	addl   $0x1,-0x111c(%rbp)
    be11:	83 bd e4 ee ff ff 00 	cmpl   $0x0,-0x111c(%rbp)
    be18:	7e d9                	jle    bdf3 <func_4+0x3686>
    be1a:	c7 85 e4 ee ff ff 00 	movl   $0x0,-0x111c(%rbp)
    be21:	00 00 00 
    be24:	eb 4d                	jmp    be73 <func_4+0x3706>
    be26:	c7 85 e8 ee ff ff 00 	movl   $0x0,-0x1118(%rbp)
    be2d:	00 00 00 
    be30:	eb 31                	jmp    be63 <func_4+0x36f6>
    be32:	8b 85 e8 ee ff ff    	mov    -0x1118(%rbp),%eax
    be38:	48 63 c8             	movslq %eax,%rcx
    be3b:	8b 85 e4 ee ff ff    	mov    -0x111c(%rbp),%eax
    be41:	48 63 d0             	movslq %eax,%rdx
    be44:	48 89 d0             	mov    %rdx,%rax
    be47:	48 c1 e0 03          	shl    $0x3,%rax
    be4b:	48 29 d0             	sub    %rdx,%rax
    be4e:	48 01 c8             	add    %rcx,%rax
    be51:	c7 84 85 f0 f3 ff ff 	movl   $0xfffffff9,-0xc10(%rbp,%rax,4)
    be58:	f9 ff ff ff 
    be5c:	83 85 e8 ee ff ff 01 	addl   $0x1,-0x1118(%rbp)
    be63:	83 bd e8 ee ff ff 06 	cmpl   $0x6,-0x1118(%rbp)
    be6a:	7e c6                	jle    be32 <func_4+0x36c5>
    be6c:	83 85 e4 ee ff ff 01 	addl   $0x1,-0x111c(%rbp)
    be73:	83 bd e4 ee ff ff 01 	cmpl   $0x1,-0x111c(%rbp)
    be7a:	7e aa                	jle    be26 <func_4+0x36b9>
    be7c:	c7 85 e4 ee ff ff 00 	movl   $0x0,-0x111c(%rbp)
    be83:	00 00 00 
    be86:	eb 1a                	jmp    bea2 <func_4+0x3735>
    be88:	8b 85 e4 ee ff ff    	mov    -0x111c(%rbp),%eax
    be8e:	48 98                	cltq   
    be90:	c7 84 85 90 f3 ff ff 	movl   $0x43515a3c,-0xc70(%rbp,%rax,4)
    be97:	3c 5a 51 43 
    be9b:	83 85 e4 ee ff ff 01 	addl   $0x1,-0x111c(%rbp)
    bea2:	83 bd e4 ee ff ff 09 	cmpl   $0x9,-0x111c(%rbp)
    bea9:	7e dd                	jle    be88 <func_4+0x371b>
    beab:	48 8b 05 06 0c 01 00 	mov    0x10c06(%rip),%rax        # 1cab8 <g_944>
    beb2:	48 8b 00             	mov    (%rax),%rax
    beb5:	48 8b 00             	mov    (%rax),%rax
    beb8:	0f b6 00             	movzbl (%rax),%eax
    bebb:	0f b6 d8             	movzbl %al,%ebx
    bebe:	48 8b 95 00 f0 ff ff 	mov    -0x1000(%rbp),%rdx
    bec5:	48 8b 85 80 f2 ff ff 	mov    -0xd80(%rbp),%rax
    becc:	48 89 10             	mov    %rdx,(%rax)
    becf:	48 8b 85 80 f2 ff ff 	mov    -0xd80(%rbp),%rax
    bed6:	48 8b 00             	mov    (%rax),%rax
    bed9:	48 89 05 60 1b 01 00 	mov    %rax,0x11b60(%rip)        # 1da40 <g_1609>
    bee0:	48 8b 05 59 1b 01 00 	mov    0x11b59(%rip),%rax        # 1da40 <g_1609>
    bee7:	48 85 c0             	test   %rax,%rax
    beea:	0f 95 c0             	setne  %al
    beed:	0f b6 d0             	movzbl %al,%edx
    bef0:	8b 85 00 f3 ff ff    	mov    -0xd00(%rbp),%eax
    bef6:	09 d0                	or     %edx,%eax
    bef8:	3d 8f 25 00 00       	cmp    $0x258f,%eax
    befd:	0f 84 da 00 00 00    	je     bfdd <func_4+0x3870>
    bf03:	8b 85 00 f3 ff ff    	mov    -0xd00(%rbp),%eax
    bf09:	44 0f b6 e0          	movzbl %al,%r12d
    bf0d:	8b 85 00 f3 ff ff    	mov    -0xd00(%rbp),%eax
    bf13:	0f b6 c0             	movzbl %al,%eax
    bf16:	be 01 00 00 00       	mov    $0x1,%esi
    bf1b:	89 c7                	mov    %eax,%edi
    bf1d:	e8 71 9c ff ff       	callq  5b93 <safe_mul_func_uint8_t_u_u>
    bf22:	0f b6 c0             	movzbl %al,%eax
    bf25:	8b 95 20 f4 ff ff    	mov    -0xbe0(%rbp),%edx
    bf2b:	89 c6                	mov    %eax,%esi
    bf2d:	89 d7                	mov    %edx,%edi
    bf2f:	e8 f1 9f ff ff       	callq  5f25 <safe_div_func_uint32_t_u_u>
    bf34:	85 c0                	test   %eax,%eax
    bf36:	74 10                	je     bf48 <func_4+0x37db>
    bf38:	83 bd 60 ee ff ff 00 	cmpl   $0x0,-0x11a0(%rbp)
    bf3f:	74 07                	je     bf48 <func_4+0x37db>
    bf41:	b8 01 00 00 00       	mov    $0x1,%eax
    bf46:	eb 05                	jmp    bf4d <func_4+0x37e0>
    bf48:	b8 00 00 00 00       	mov    $0x0,%eax
    bf4d:	0f b6 c0             	movzbl %al,%eax
    bf50:	44 89 e6             	mov    %r12d,%esi
    bf53:	89 c7                	mov    %eax,%edi
    bf55:	e8 00 9c ff ff       	callq  5b5a <safe_add_func_uint8_t_u_u>
    bf5a:	0f b6 d0             	movzbl %al,%edx
    bf5d:	8b 85 60 ee ff ff    	mov    -0x11a0(%rbp),%eax
    bf63:	0f b7 c0             	movzwl %ax,%eax
    bf66:	89 d6                	mov    %edx,%esi
    bf68:	89 c7                	mov    %eax,%edi
    bf6a:	e8 ed 9d ff ff       	callq  5d5c <safe_mod_func_uint16_t_u_u>
    bf6f:	0f b7 d0             	movzwl %ax,%edx
    bf72:	8b 85 04 f3 ff ff    	mov    -0xcfc(%rbp),%eax
    bf78:	39 c2                	cmp    %eax,%edx
    bf7a:	0f 96 c0             	setbe  %al
    bf7d:	0f b6 c0             	movzbl %al,%eax
    bf80:	be c8 bb 00 00       	mov    $0xbbc8,%esi
    bf85:	89 c7                	mov    %eax,%edi
    bf87:	e8 93 9d ff ff       	callq  5d1f <safe_sub_func_uint16_t_u_u>
    bf8c:	0f b6 05 8d f4 00 00 	movzbl 0xf48d(%rip),%eax        # 1b420 <g_1202>
    bf93:	0f b6 d0             	movzbl %al,%edx
    bf96:	48 8d 85 e8 f2 ff ff 	lea    -0xd18(%rbp),%rax
    bf9d:	48 63 d2             	movslq %edx,%rdx
    bfa0:	48 c1 e2 03          	shl    $0x3,%rdx
    bfa4:	48 01 d0             	add    %rdx,%rax
    bfa7:	48 39 85 48 f0 ff ff 	cmp    %rax,-0xfb8(%rbp)
    bfae:	0f 95 c0             	setne  %al
    bfb1:	44 0f b6 e0          	movzbl %al,%r12d
    bfb5:	be 02 00 00 00       	mov    $0x2,%esi
    bfba:	bf 00 00 00 00       	mov    $0x0,%edi
    bfbf:	e8 41 9c ff ff       	callq  5c05 <safe_lshift_func_uint8_t_u_s>
    bfc4:	0f b6 c0             	movzbl %al,%eax
    bfc7:	44 89 e6             	mov    %r12d,%esi
    bfca:	89 c7                	mov    %eax,%edi
    bfcc:	e8 6c 9d ff ff       	callq  5d3d <safe_mul_func_uint16_t_u_u>
    bfd1:	66 85 c0             	test   %ax,%ax
    bfd4:	74 07                	je     bfdd <func_4+0x3870>
    bfd6:	b8 01 00 00 00       	mov    $0x1,%eax
    bfdb:	eb 05                	jmp    bfe2 <func_4+0x3875>
    bfdd:	b8 00 00 00 00       	mov    $0x0,%eax
    bfe2:	0f b6 c0             	movzbl %al,%eax
    bfe5:	89 de                	mov    %ebx,%esi
    bfe7:	89 c7                	mov    %eax,%edi
    bfe9:	e8 ed 9b ff ff       	callq  5bdb <safe_div_func_uint8_t_u_u>
    bfee:	84 c0                	test   %al,%al
    bff0:	0f 84 85 05 00 00    	je     c57b <func_4+0x3e0e>
    bff6:	48 8d 85 f0 f3 ff ff 	lea    -0xc10(%rbp),%rax
    bffd:	48 83 c0 30          	add    $0x30,%rax
    c001:	48 89 85 18 f0 ff ff 	mov    %rax,-0xfe8(%rbp)
    c008:	48 c7 85 c0 f2 ff ff 	movq   $0x0,-0xd40(%rbp)
    c00f:	00 00 00 00 
    c013:	48 c7 85 10 f6 ff ff 	movq   $0x0,-0x9f0(%rbp)
    c01a:	00 00 00 00 
    c01e:	48 8d 05 53 f2 00 00 	lea    0xf253(%rip),%rax        # 1b278 <g_314>
    c025:	48 89 85 18 f6 ff ff 	mov    %rax,-0x9e8(%rbp)
    c02c:	48 8d 05 4d f2 00 00 	lea    0xf24d(%rip),%rax        # 1b280 <g_346>
    c033:	48 89 85 20 f6 ff ff 	mov    %rax,-0x9e0(%rbp)
    c03a:	48 8d 05 37 f2 00 00 	lea    0xf237(%rip),%rax        # 1b278 <g_314>
    c041:	48 89 85 28 f6 ff ff 	mov    %rax,-0x9d8(%rbp)
    c048:	48 8d 05 29 f2 00 00 	lea    0xf229(%rip),%rax        # 1b278 <g_314>
    c04f:	48 89 85 30 f6 ff ff 	mov    %rax,-0x9d0(%rbp)
    c056:	48 8d 05 1b f2 00 00 	lea    0xf21b(%rip),%rax        # 1b278 <g_314>
    c05d:	48 89 85 38 f6 ff ff 	mov    %rax,-0x9c8(%rbp)
    c064:	48 8d 05 15 f2 00 00 	lea    0xf215(%rip),%rax        # 1b280 <g_346>
    c06b:	48 89 85 40 f6 ff ff 	mov    %rax,-0x9c0(%rbp)
    c072:	48 8d 05 77 f1 00 00 	lea    0xf177(%rip),%rax        # 1b1f0 <g_219>
    c079:	48 89 85 48 f6 ff ff 	mov    %rax,-0x9b8(%rbp)
    c080:	48 8d 05 69 f1 00 00 	lea    0xf169(%rip),%rax        # 1b1f0 <g_219>
    c087:	48 89 85 50 f6 ff ff 	mov    %rax,-0x9b0(%rbp)
    c08e:	48 8d 05 3b f3 00 00 	lea    0xf33b(%rip),%rax        # 1b3d0 <g_1087>
    c095:	48 89 85 58 f6 ff ff 	mov    %rax,-0x9a8(%rbp)
    c09c:	48 8d 05 dd f1 00 00 	lea    0xf1dd(%rip),%rax        # 1b280 <g_346>
    c0a3:	48 89 85 60 f6 ff ff 	mov    %rax,-0x9a0(%rbp)
    c0aa:	48 8d 85 80 ee ff ff 	lea    -0x1180(%rbp),%rax
    c0b1:	48 89 85 68 f6 ff ff 	mov    %rax,-0x998(%rbp)
    c0b8:	48 8d 05 11 f3 00 00 	lea    0xf311(%rip),%rax        # 1b3d0 <g_1087>
    c0bf:	48 89 85 70 f6 ff ff 	mov    %rax,-0x990(%rbp)
    c0c6:	48 8d 85 80 ee ff ff 	lea    -0x1180(%rbp),%rax
    c0cd:	48 89 85 78 f6 ff ff 	mov    %rax,-0x988(%rbp)
    c0d4:	48 8d 05 f5 f0 00 00 	lea    0xf0f5(%rip),%rax        # 1b1d0 <g_105>
    c0db:	48 89 85 80 f6 ff ff 	mov    %rax,-0x980(%rbp)
    c0e2:	48 8d 05 e7 f0 00 00 	lea    0xf0e7(%rip),%rax        # 1b1d0 <g_105>
    c0e9:	48 89 85 88 f6 ff ff 	mov    %rax,-0x978(%rbp)
    c0f0:	48 8d 05 f1 f0 00 00 	lea    0xf0f1(%rip),%rax        # 1b1e8 <g_167>
    c0f7:	48 89 85 90 f6 ff ff 	mov    %rax,-0x970(%rbp)
    c0fe:	48 8d 05 e3 f0 00 00 	lea    0xf0e3(%rip),%rax        # 1b1e8 <g_167>
    c105:	48 89 85 98 f6 ff ff 	mov    %rax,-0x968(%rbp)
    c10c:	48 8d 05 6d f1 00 00 	lea    0xf16d(%rip),%rax        # 1b280 <g_346>
    c113:	48 89 85 a0 f6 ff ff 	mov    %rax,-0x960(%rbp)
    c11a:	48 8d 05 af f2 00 00 	lea    0xf2af(%rip),%rax        # 1b3d0 <g_1087>
    c121:	48 89 85 a8 f6 ff ff 	mov    %rax,-0x958(%rbp)
    c128:	48 8d 05 a1 f2 00 00 	lea    0xf2a1(%rip),%rax        # 1b3d0 <g_1087>
    c12f:	48 89 85 b0 f6 ff ff 	mov    %rax,-0x950(%rbp)
    c136:	48 8d 85 80 ee ff ff 	lea    -0x1180(%rbp),%rax
    c13d:	48 89 85 b8 f6 ff ff 	mov    %rax,-0x948(%rbp)
    c144:	48 c7 85 c0 f6 ff ff 	movq   $0x0,-0x940(%rbp)
    c14b:	00 00 00 00 
    c14f:	48 8d 05 7a f2 00 00 	lea    0xf27a(%rip),%rax        # 1b3d0 <g_1087>
    c156:	48 89 85 c8 f6 ff ff 	mov    %rax,-0x938(%rbp)
    c15d:	48 c7 85 d0 f6 ff ff 	movq   $0x0,-0x930(%rbp)
    c164:	00 00 00 00 
    c168:	48 8d 85 80 ee ff ff 	lea    -0x1180(%rbp),%rax
    c16f:	48 89 85 d8 f6 ff ff 	mov    %rax,-0x928(%rbp)
    c176:	48 8d 05 73 f0 00 00 	lea    0xf073(%rip),%rax        # 1b1f0 <g_219>
    c17d:	48 89 85 e0 f6 ff ff 	mov    %rax,-0x920(%rbp)
    c184:	48 c7 85 e8 f6 ff ff 	movq   $0x0,-0x918(%rbp)
    c18b:	00 00 00 00 
    c18f:	48 8d 05 3a f2 00 00 	lea    0xf23a(%rip),%rax        # 1b3d0 <g_1087>
    c196:	48 89 85 f0 f6 ff ff 	mov    %rax,-0x910(%rbp)
    c19d:	48 8d 05 4c f0 00 00 	lea    0xf04c(%rip),%rax        # 1b1f0 <g_219>
    c1a4:	48 89 85 f8 f6 ff ff 	mov    %rax,-0x908(%rbp)
    c1ab:	48 c7 85 00 f7 ff ff 	movq   $0x0,-0x900(%rbp)
    c1b2:	00 00 00 00 
    c1b6:	48 8d 05 db f1 00 00 	lea    0xf1db(%rip),%rax        # 1b398 <g_461>
    c1bd:	48 89 85 08 f7 ff ff 	mov    %rax,-0x8f8(%rbp)
    c1c4:	48 8d 05 ad f0 00 00 	lea    0xf0ad(%rip),%rax        # 1b278 <g_314>
    c1cb:	48 89 85 10 f7 ff ff 	mov    %rax,-0x8f0(%rbp)
    c1d2:	48 8d 05 17 f0 00 00 	lea    0xf017(%rip),%rax        # 1b1f0 <g_219>
    c1d9:	48 89 85 18 f7 ff ff 	mov    %rax,-0x8e8(%rbp)
    c1e0:	48 8d 05 91 f0 00 00 	lea    0xf091(%rip),%rax        # 1b278 <g_314>
    c1e7:	48 89 85 20 f7 ff ff 	mov    %rax,-0x8e0(%rbp)
    c1ee:	48 8d 05 f3 ef 00 00 	lea    0xeff3(%rip),%rax        # 1b1e8 <g_167>
    c1f5:	48 89 85 28 f7 ff ff 	mov    %rax,-0x8d8(%rbp)
    c1fc:	48 8d 05 05 18 01 00 	lea    0x11805(%rip),%rax        # 1da08 <g_1009>
    c203:	48 89 85 30 f7 ff ff 	mov    %rax,-0x8d0(%rbp)
    c20a:	48 8d 05 6f f0 00 00 	lea    0xf06f(%rip),%rax        # 1b280 <g_346>
    c211:	48 89 85 38 f7 ff ff 	mov    %rax,-0x8c8(%rbp)
    c218:	48 c7 85 40 f7 ff ff 	movq   $0x0,-0x8c0(%rbp)
    c21f:	00 00 00 00 
    c223:	48 c7 85 48 f7 ff ff 	movq   $0x0,-0x8b8(%rbp)
    c22a:	00 00 00 00 
    c22e:	48 8d 05 4b f0 00 00 	lea    0xf04b(%rip),%rax        # 1b280 <g_346>
    c235:	48 89 85 50 f7 ff ff 	mov    %rax,-0x8b0(%rbp)
    c23c:	48 8d 05 c5 17 01 00 	lea    0x117c5(%rip),%rax        # 1da08 <g_1009>
    c243:	48 89 85 58 f7 ff ff 	mov    %rax,-0x8a8(%rbp)
    c24a:	48 8d 05 7f f1 00 00 	lea    0xf17f(%rip),%rax        # 1b3d0 <g_1087>
    c251:	48 89 85 60 f7 ff ff 	mov    %rax,-0x8a0(%rbp)
    c258:	48 8d 05 39 f1 00 00 	lea    0xf139(%rip),%rax        # 1b398 <g_461>
    c25f:	48 89 85 68 f7 ff ff 	mov    %rax,-0x898(%rbp)
    c266:	48 8d 05 83 ef 00 00 	lea    0xef83(%rip),%rax        # 1b1f0 <g_219>
    c26d:	48 89 85 70 f7 ff ff 	mov    %rax,-0x890(%rbp)
    c274:	48 8d 05 55 ef 00 00 	lea    0xef55(%rip),%rax        # 1b1d0 <g_105>
    c27b:	48 89 85 78 f7 ff ff 	mov    %rax,-0x888(%rbp)
    c282:	48 8d 05 47 ef 00 00 	lea    0xef47(%rip),%rax        # 1b1d0 <g_105>
    c289:	48 89 85 80 f7 ff ff 	mov    %rax,-0x880(%rbp)
    c290:	48 8d 05 51 ef 00 00 	lea    0xef51(%rip),%rax        # 1b1e8 <g_167>
    c297:	48 89 85 88 f7 ff ff 	mov    %rax,-0x878(%rbp)
    c29e:	48 8d 05 43 ef 00 00 	lea    0xef43(%rip),%rax        # 1b1e8 <g_167>
    c2a5:	48 89 85 90 f7 ff ff 	mov    %rax,-0x870(%rbp)
    c2ac:	48 8d 85 80 ee ff ff 	lea    -0x1180(%rbp),%rax
    c2b3:	48 89 85 98 f7 ff ff 	mov    %rax,-0x868(%rbp)
    c2ba:	48 8d 05 0f f1 00 00 	lea    0xf10f(%rip),%rax        # 1b3d0 <g_1087>
    c2c1:	48 89 85 a0 f7 ff ff 	mov    %rax,-0x860(%rbp)
    c2c8:	48 8d 85 80 ee ff ff 	lea    -0x1180(%rbp),%rax
    c2cf:	48 89 85 a8 f7 ff ff 	mov    %rax,-0x858(%rbp)
    c2d6:	48 8d 05 f3 f0 00 00 	lea    0xf0f3(%rip),%rax        # 1b3d0 <g_1087>
    c2dd:	48 89 85 b0 f7 ff ff 	mov    %rax,-0x850(%rbp)
    c2e4:	48 8d 05 05 ef 00 00 	lea    0xef05(%rip),%rax        # 1b1f0 <g_219>
    c2eb:	48 89 85 b8 f7 ff ff 	mov    %rax,-0x848(%rbp)
    c2f2:	48 c7 85 c0 f7 ff ff 	movq   $0x0,-0x840(%rbp)
    c2f9:	00 00 00 00 
    c2fd:	48 8d 05 ec ee 00 00 	lea    0xeeec(%rip),%rax        # 1b1f0 <g_219>
    c304:	48 89 85 c8 f7 ff ff 	mov    %rax,-0x838(%rbp)
    c30b:	48 8d 05 be ee 00 00 	lea    0xeebe(%rip),%rax        # 1b1d0 <g_105>
    c312:	48 89 85 d0 f7 ff ff 	mov    %rax,-0x830(%rbp)
    c319:	48 8d 05 e8 16 01 00 	lea    0x116e8(%rip),%rax        # 1da08 <g_1009>
    c320:	48 89 85 d8 f7 ff ff 	mov    %rax,-0x828(%rbp)
    c327:	48 8d 05 da 16 01 00 	lea    0x116da(%rip),%rax        # 1da08 <g_1009>
    c32e:	48 89 85 e0 f7 ff ff 	mov    %rax,-0x820(%rbp)
    c335:	48 8d 05 94 ee 00 00 	lea    0xee94(%rip),%rax        # 1b1d0 <g_105>
    c33c:	48 89 85 e8 f7 ff ff 	mov    %rax,-0x818(%rbp)
    c343:	48 8d 05 86 f0 00 00 	lea    0xf086(%rip),%rax        # 1b3d0 <g_1087>
    c34a:	48 89 85 f0 f7 ff ff 	mov    %rax,-0x810(%rbp)
    c351:	48 8d 05 90 ee 00 00 	lea    0xee90(%rip),%rax        # 1b1e8 <g_167>
    c358:	48 89 85 f8 f7 ff ff 	mov    %rax,-0x808(%rbp)
    c35f:	48 c7 85 00 f8 ff ff 	movq   $0x0,-0x800(%rbp)
    c366:	00 00 00 00 
    c36a:	48 8d 05 7f ee 00 00 	lea    0xee7f(%rip),%rax        # 1b1f0 <g_219>
    c371:	48 89 85 08 f8 ff ff 	mov    %rax,-0x7f8(%rbp)
    c378:	48 8d 05 71 ee 00 00 	lea    0xee71(%rip),%rax        # 1b1f0 <g_219>
    c37f:	48 89 85 10 f8 ff ff 	mov    %rax,-0x7f0(%rbp)
    c386:	48 8d 85 80 ee ff ff 	lea    -0x1180(%rbp),%rax
    c38d:	48 89 85 18 f8 ff ff 	mov    %rax,-0x7e8(%rbp)
    c394:	48 c7 85 20 f8 ff ff 	movq   $0x0,-0x7e0(%rbp)
    c39b:	00 00 00 00 
    c39f:	48 8d 05 2a f0 00 00 	lea    0xf02a(%rip),%rax        # 1b3d0 <g_1087>
    c3a6:	48 89 85 28 f8 ff ff 	mov    %rax,-0x7d8(%rbp)
    c3ad:	48 c7 85 30 f8 ff ff 	movq   $0x0,-0x7d0(%rbp)
    c3b4:	00 00 00 00 
    c3b8:	48 c7 85 38 f8 ff ff 	movq   $0x0,-0x7c8(%rbp)
    c3bf:	00 00 00 00 
    c3c3:	c7 85 a4 ef ff ff 92 	movl   $0xb28a5592,-0x105c(%rbp)
    c3ca:	55 8a b2 
    c3cd:	c7 85 ec ee ff ff 00 	movl   $0x0,-0x1114(%rbp)
    c3d4:	00 00 00 
    c3d7:	eb 1e                	jmp    c3f7 <func_4+0x3c8a>
    c3d9:	8b 85 ec ee ff ff    	mov    -0x1114(%rbp),%eax
    c3df:	48 98                	cltq   
    c3e1:	48 8d 95 18 f0 ff ff 	lea    -0xfe8(%rbp),%rdx
    c3e8:	48 89 94 c5 f0 f4 ff 	mov    %rdx,-0xb10(%rbp,%rax,8)
    c3ef:	ff 
    c3f0:	83 85 ec ee ff ff 01 	addl   $0x1,-0x1114(%rbp)
    c3f7:	83 bd ec ee ff ff 07 	cmpl   $0x7,-0x1114(%rbp)
    c3fe:	7e d9                	jle    c3d9 <func_4+0x3c6c>
    c400:	48 c7 05 95 09 01 00 	movq   $0x0,0x10995(%rip)        # 1cda0 <g_1629>
    c407:	00 00 00 00 
    c40b:	48 8b 05 8e 09 01 00 	mov    0x1098e(%rip),%rax        # 1cda0 <g_1629>
    c412:	48 85 c0             	test   %rax,%rax
    c415:	0f 94 c0             	sete   %al
    c418:	0f b6 d0             	movzbl %al,%edx
    c41b:	8b 85 00 f3 ff ff    	mov    -0xd00(%rbp),%eax
    c421:	88 85 7d ee ff ff    	mov    %al,-0x1183(%rbp)
    c427:	0f b6 85 7d ee ff ff 	movzbl -0x1183(%rbp),%eax
    c42e:	31 c2                	xor    %eax,%edx
    c430:	48 8b 85 68 ee ff ff 	mov    -0x1198(%rbp),%rax
    c437:	89 10                	mov    %edx,(%rax)
    c439:	48 8d 15 0c ec 00 00 	lea    0xec0c(%rip),%rdx        # 1b04c <g_26>
    c440:	48 8b 85 68 ee ff ff 	mov    -0x1198(%rbp),%rax
    c447:	8b 00                	mov    (%rax),%eax
    c449:	89 02                	mov    %eax,(%rdx)
    c44b:	66 c7 05 9c 15 01 00 	movw   $0x0,0x1159c(%rip)        # 1d9f0 <g_799>
    c452:	00 00 
    c454:	e9 b8 00 00 00       	jmpq   c511 <func_4+0x3da4>
    c459:	66 c7 05 86 ed 00 00 	movw   $0x0,0xed86(%rip)        # 1b1e8 <g_167>
    c460:	00 00 
    c462:	e9 88 00 00 00       	jmpq   c4ef <func_4+0x3d82>
    c467:	48 c7 05 fe ed 00 00 	movq   $0x0,0xedfe(%rip)        # 1b270 <g_273>
    c46e:	00 00 00 00 
    c472:	eb 5d                	jmp    c4d1 <func_4+0x3d64>
    c474:	0f b7 05 75 15 01 00 	movzwl 0x11575(%rip),%eax        # 1d9f0 <g_799>
    c47b:	0f b7 c0             	movzwl %ax,%eax
    c47e:	0f b7 15 63 ed 00 00 	movzwl 0xed63(%rip),%edx        # 1b1e8 <g_167>
    c485:	0f b7 d2             	movzwl %dx,%edx
    c488:	48 8b 0d e1 ed 00 00 	mov    0xede1(%rip),%rcx        # 1b270 <g_273>
    c48f:	48 63 f2             	movslq %edx,%rsi
    c492:	48 63 d0             	movslq %eax,%rdx
    c495:	48 89 d0             	mov    %rdx,%rax
    c498:	48 c1 e0 03          	shl    $0x3,%rax
    c49c:	48 01 d0             	add    %rdx,%rax
    c49f:	48 01 f0             	add    %rsi,%rax
    c4a2:	48 01 c0             	add    %rax,%rax
    c4a5:	48 01 c8             	add    %rcx,%rax
    c4a8:	48 8d 14 c5 00 00 00 	lea    0x0(,%rax,8),%rdx
    c4af:	00 
    c4b0:	48 8d 05 c9 eb 00 00 	lea    0xebc9(%rip),%rax        # 1b080 <g_88>
    c4b7:	48 c7 04 02 00 00 00 	movq   $0x0,(%rdx,%rax,1)
    c4be:	00 
    c4bf:	48 8b 05 aa ed 00 00 	mov    0xedaa(%rip),%rax        # 1b270 <g_273>
    c4c6:	48 83 c0 01          	add    $0x1,%rax
    c4ca:	48 89 05 9f ed 00 00 	mov    %rax,0xed9f(%rip)        # 1b270 <g_273>
    c4d1:	48 8b 05 98 ed 00 00 	mov    0xed98(%rip),%rax        # 1b270 <g_273>
    c4d8:	48 83 f8 01          	cmp    $0x1,%rax
    c4dc:	76 96                	jbe    c474 <func_4+0x3d07>
    c4de:	0f b7 05 03 ed 00 00 	movzwl 0xed03(%rip),%eax        # 1b1e8 <g_167>
    c4e5:	83 c0 01             	add    $0x1,%eax
    c4e8:	66 89 05 f9 ec 00 00 	mov    %ax,0xecf9(%rip)        # 1b1e8 <g_167>
    c4ef:	0f b7 05 f2 ec 00 00 	movzwl 0xecf2(%rip),%eax        # 1b1e8 <g_167>
    c4f6:	66 83 f8 08          	cmp    $0x8,%ax
    c4fa:	0f 86 67 ff ff ff    	jbe    c467 <func_4+0x3cfa>
    c500:	0f b7 05 e9 14 01 00 	movzwl 0x114e9(%rip),%eax        # 1d9f0 <g_799>
    c507:	83 c0 01             	add    $0x1,%eax
    c50a:	66 89 05 df 14 01 00 	mov    %ax,0x114df(%rip)        # 1d9f0 <g_799>
    c511:	0f b7 05 d8 14 01 00 	movzwl 0x114d8(%rip),%eax        # 1d9f0 <g_799>
    c518:	66 83 f8 01          	cmp    $0x1,%ax
    c51c:	0f 86 37 ff ff ff    	jbe    c459 <func_4+0x3cec>
    c522:	0f b7 05 a7 ec 00 00 	movzwl 0xeca7(%rip),%eax        # 1b1d0 <g_105>
    c529:	83 e8 01             	sub    $0x1,%eax
    c52c:	66 89 05 9d ec 00 00 	mov    %ax,0xec9d(%rip)        # 1b1d0 <g_105>
    c533:	0f b7 1d 96 ec 00 00 	movzwl 0xec96(%rip),%ebx        # 1b1d0 <g_105>
    c53a:	8b 85 5c ee ff ff    	mov    -0x11a4(%rbp),%eax
    c540:	89 c6                	mov    %eax,%esi
    c542:	bf 59 b1 00 00       	mov    $0xb159,%edi
    c547:	e8 2e 99 ff ff       	callq  5e7a <safe_rshift_func_uint16_t_u_u>
    c54c:	66 39 c3             	cmp    %ax,%bx
    c54f:	0f 93 c0             	setae  %al
    c552:	0f b6 c8             	movzbl %al,%ecx
    c555:	48 8d 05 f0 ea 00 00 	lea    0xeaf0(%rip),%rax        # 1b04c <g_26>
    c55c:	8b 10                	mov    (%rax),%edx
    c55e:	48 8d 05 e7 ea 00 00 	lea    0xeae7(%rip),%rax        # 1b04c <g_26>
    c565:	21 ca                	and    %ecx,%edx
    c567:	89 10                	mov    %edx,(%rax)
    c569:	83 bd a4 ef ff ff 00 	cmpl   $0x0,-0x105c(%rbp)
    c570:	0f 84 77 02 00 00    	je     c7ed <func_4+0x4080>
    c576:	e9 71 07 00 00       	jmpq   ccec <func_4+0x457f>
    c57b:	c7 85 9c ef ff ff 72 	movl   $0xa6e7fe72,-0x1064(%rbp)
    c582:	fe e7 a6 
    c585:	c7 85 9c ee ff ff 00 	movl   $0x0,-0x1164(%rbp)
    c58c:	00 00 00 
    c58f:	e9 35 02 00 00       	jmpq   c7c9 <func_4+0x405c>
    c594:	48 8d 05 4d ec 00 00 	lea    0xec4d(%rip),%rax        # 1b1e8 <g_167>
    c59b:	48 89 85 98 f2 ff ff 	mov    %rax,-0xd68(%rbp)
    c5a2:	c7 85 a0 ef ff ff 07 	movl   $0x7,-0x1060(%rbp)
    c5a9:	00 00 00 
    c5ac:	48 c7 85 18 f0 ff ff 	movq   $0x0,-0xfe8(%rbp)
    c5b3:	00 00 00 00 
    c5b7:	48 8d 85 18 f0 ff ff 	lea    -0xfe8(%rbp),%rax
    c5be:	48 89 85 a0 f2 ff ff 	mov    %rax,-0xd60(%rbp)
    c5c5:	48 c7 85 a8 f2 ff ff 	movq   $0x0,-0xd58(%rbp)
    c5cc:	00 00 00 00 
    c5d0:	48 8d 85 ac ee ff ff 	lea    -0x1154(%rbp),%rax
    c5d7:	48 89 85 b0 f2 ff ff 	mov    %rax,-0xd50(%rbp)
    c5de:	48 8d 05 83 14 01 00 	lea    0x11483(%rip),%rax        # 1da68 <g_1668+0x8>
    c5e5:	48 89 85 b8 f2 ff ff 	mov    %rax,-0xd48(%rbp)
    c5ec:	48 8b 05 35 ee 00 00 	mov    0xee35(%rip),%rax        # 1b428 <g_1639>
    c5f3:	48 8b 85 08 f0 ff ff 	mov    -0xff8(%rbp),%rax
    c5fa:	48 8b 00             	mov    (%rax),%rax
    c5fd:	48 8b 00             	mov    (%rax),%rax
    c600:	0f b6 10             	movzbl (%rax),%edx
    c603:	8b 85 64 ee ff ff    	mov    -0x119c(%rbp),%eax
    c609:	89 c1                	mov    %eax,%ecx
    c60b:	48 8b 85 08 f0 ff ff 	mov    -0xff8(%rbp),%rax
    c612:	48 8b 00             	mov    (%rax),%rax
    c615:	48 8b 00             	mov    (%rax),%rax
    c618:	21 ca                	and    %ecx,%edx
    c61a:	88 10                	mov    %dl,(%rax)
    c61c:	0f b6 00             	movzbl (%rax),%eax
    c61f:	0f be c0             	movsbl %al,%eax
    c622:	be 01 00 00 00       	mov    $0x1,%esi
    c627:	89 c7                	mov    %eax,%edi
    c629:	e8 c4 8b ff ff       	callq  51f2 <safe_sub_func_int8_t_s_s>
    c62e:	0f be c0             	movsbl %al,%eax
    c631:	f7 d0                	not    %eax
    c633:	89 c2                	mov    %eax,%edx
    c635:	48 8b 85 68 ee ff ff 	mov    -0x1198(%rbp),%rax
    c63c:	8b 00                	mov    (%rax),%eax
    c63e:	09 c2                	or     %eax,%edx
    c640:	48 8b 85 68 ee ff ff 	mov    -0x1198(%rbp),%rax
    c647:	89 10                	mov    %edx,(%rax)
    c649:	48 8b 85 98 f2 ff ff 	mov    -0xd68(%rbp),%rax
    c650:	66 c7 00 00 00       	movw   $0x0,(%rax)
    c655:	8b 95 ac ee ff ff    	mov    -0x1154(%rbp),%edx
    c65b:	8b 85 a0 ef ff ff    	mov    -0x1060(%rbp),%eax
    c661:	09 c2                	or     %eax,%edx
    c663:	8b 85 60 ee ff ff    	mov    -0x11a0(%rbp),%eax
    c669:	89 85 80 ef ff ff    	mov    %eax,-0x1080(%rbp)
    c66f:	8b 85 80 ef ff ff    	mov    -0x1080(%rbp),%eax
    c675:	3b 85 4c ef ff ff    	cmp    -0x10b4(%rbp),%eax
    c67b:	0f 9d c0             	setge  %al
    c67e:	0f b6 c0             	movzbl %al,%eax
    c681:	39 c2                	cmp    %eax,%edx
    c683:	0f 96 c0             	setbe  %al
    c686:	48 8d 15 bf e9 00 00 	lea    0xe9bf(%rip),%rdx        # 1b04c <g_26>
    c68d:	0f b6 c0             	movzbl %al,%eax
    c690:	89 02                	mov    %eax,(%rdx)
    c692:	48 8d 05 b3 e9 00 00 	lea    0xe9b3(%rip),%rax        # 1b04c <g_26>
    c699:	8b 00                	mov    (%rax),%eax
    c69b:	85 c0                	test   %eax,%eax
    c69d:	0f 85 37 01 00 00    	jne    c7da <func_4+0x406d>
    c6a3:	48 8b 05 f6 03 01 00 	mov    0x103f6(%rip),%rax        # 1caa0 <g_846>
    c6aa:	48 8b 00             	mov    (%rax),%rax
    c6ad:	8b 85 64 ee ff ff    	mov    -0x119c(%rbp),%eax
    c6b3:	89 c2                	mov    %eax,%edx
    c6b5:	48 8b 85 b0 f2 ff ff 	mov    -0xd50(%rbp),%rax
    c6bc:	89 10                	mov    %edx,(%rax)
    c6be:	8b 85 00 f3 ff ff    	mov    -0xd00(%rbp),%eax
    c6c4:	98                   	cwtl   
    c6c5:	be 05 00 00 00       	mov    $0x5,%esi
    c6ca:	89 c7                	mov    %eax,%edi
    c6cc:	e8 92 8e ff ff       	callq  5563 <safe_rshift_func_int16_t_s_u>
    c6d1:	8b 85 9c ef ff ff    	mov    -0x1064(%rbp),%eax
    c6d7:	48 63 d8             	movslq %eax,%rbx
    c6da:	8b 85 a0 ef ff ff    	mov    -0x1060(%rbp),%eax
    c6e0:	4c 63 e0             	movslq %eax,%r12
    c6e3:	8b 05 4f ed 00 00    	mov    0xed4f(%rip),%eax        # 1b438 <g_1664+0x8>
    c6e9:	8b 95 a0 ef ff ff    	mov    -0x1060(%rbp),%edx
    c6ef:	48 8b 05 b2 06 01 00 	mov    0x106b2(%rip),%rax        # 1cda8 <g_1667>
    c6f6:	48 89 85 b8 f2 ff ff 	mov    %rax,-0xd48(%rbp)
    c6fd:	48 8b 85 b8 f2 ff ff 	mov    -0xd48(%rbp),%rax
    c704:	48 3b 85 88 f2 ff ff 	cmp    -0xd78(%rbp),%rax
    c70b:	0f 95 c0             	setne  %al
    c70e:	0f b6 c0             	movzbl %al,%eax
    c711:	89 d6                	mov    %edx,%esi
    c713:	89 c7                	mov    %eax,%edi
    c715:	e8 9e 97 ff ff       	callq  5eb8 <safe_add_func_uint32_t_u_u>
    c71a:	48 8d 05 ef 03 01 00 	lea    0x103ef(%rip),%rax        # 1cb10 <g_1576>
    c721:	48 39 85 78 f2 ff ff 	cmp    %rax,-0xd88(%rbp)
    c728:	0f 95 c0             	setne  %al
    c72b:	0f b6 d0             	movzbl %al,%edx
    c72e:	48 8b 05 d3 03 01 00 	mov    0x103d3(%rip),%rax        # 1cb08 <g_1532>
    c735:	48 8b 00             	mov    (%rax),%rax
    c738:	48 39 c2             	cmp    %rax,%rdx
    c73b:	73 07                	jae    c744 <func_4+0x3fd7>
    c73d:	b8 01 00 00 00       	mov    $0x1,%eax
    c742:	eb 05                	jmp    c749 <func_4+0x3fdc>
    c744:	b8 00 00 00 00       	mov    $0x0,%eax
    c749:	48 98                	cltq   
    c74b:	4c 89 e6             	mov    %r12,%rsi
    c74e:	48 89 c7             	mov    %rax,%rdi
    c751:	e8 eb 90 ff ff       	callq  5841 <safe_add_func_int64_t_s_s>
    c756:	48 89 de             	mov    %rbx,%rsi
    c759:	48 89 c7             	mov    %rax,%rdi
    c75c:	e8 1f 99 ff ff       	callq  6080 <safe_mod_func_uint64_t_u_u>
    c761:	be 05 00 00 00       	mov    $0x5,%esi
    c766:	89 c7                	mov    %eax,%edi
    c768:	e8 4b 97 ff ff       	callq  5eb8 <safe_add_func_uint32_t_u_u>
    c76d:	48 8b 85 a0 f2 ff ff 	mov    -0xd60(%rbp),%rax
    c774:	48 89 85 e8 f1 ff ff 	mov    %rax,-0xe18(%rbp)
    c77b:	48 8d 85 18 f0 ff ff 	lea    -0xfe8(%rbp),%rax
    c782:	48 39 85 e8 f1 ff ff 	cmp    %rax,-0xe18(%rbp)
    c789:	0f 94 c0             	sete   %al
    c78c:	0f b6 c0             	movzbl %al,%eax
    c78f:	89 c6                	mov    %eax,%esi
    c791:	bf 43 00 00 00       	mov    $0x43,%edi
    c796:	e8 bf 93 ff ff       	callq  5b5a <safe_add_func_uint8_t_u_u>
    c79b:	48 8d 15 aa e8 00 00 	lea    0xe8aa(%rip),%rdx        # 1b04c <g_26>
    c7a2:	8b 0a                	mov    (%rdx),%ecx
    c7a4:	0f b6 d0             	movzbl %al,%edx
    c7a7:	48 8d 05 9e e8 00 00 	lea    0xe89e(%rip),%rax        # 1b04c <g_26>
    c7ae:	31 ca                	xor    %ecx,%edx
    c7b0:	89 10                	mov    %edx,(%rax)
    c7b2:	8b 85 00 f3 ff ff    	mov    -0xd00(%rbp),%eax
    c7b8:	85 c0                	test   %eax,%eax
    c7ba:	8b 85 9c ee ff ff    	mov    -0x1164(%rbp),%eax
    c7c0:	83 c0 01             	add    $0x1,%eax
    c7c3:	89 85 9c ee ff ff    	mov    %eax,-0x1164(%rbp)
    c7c9:	8b 85 9c ee ff ff    	mov    -0x1164(%rbp),%eax
    c7cf:	83 f8 03             	cmp    $0x3,%eax
    c7d2:	0f 8e bc fd ff ff    	jle    c594 <func_4+0x3e27>
    c7d8:	eb 01                	jmp    c7db <func_4+0x406e>
    c7da:	90                   	nop
    c7db:	48 8b 05 6e 05 01 00 	mov    0x1056e(%rip),%rax        # 1cd50 <g_1577>
    c7e2:	48 8b 00             	mov    (%rax),%rax
    c7e5:	48 8b 00             	mov    (%rax),%rax
    c7e8:	e9 dd 0a 00 00       	jmpq   d2ca <func_4+0x4b5d>
    c7ed:	c7 05 55 e8 00 00 02 	movl   $0x2,0xe855(%rip)        # 1b04c <g_26>
    c7f4:	00 00 00 
    c7f7:	e9 1d 01 00 00       	jmpq   c919 <func_4+0x41ac>
    c7fc:	c6 85 7e ee ff ff 00 	movb   $0x0,-0x1182(%rbp)
    c803:	c7 85 a8 ef ff ff ff 	movl   $0xffffffff,-0x1058(%rbp)
    c80a:	ff ff ff 
    c80d:	c7 85 ac ef ff ff 00 	movl   $0x0,-0x1054(%rbp)
    c814:	00 00 00 
    c817:	c7 85 b0 ef ff ff e0 	movl   $0xd6cfdee0,-0x1050(%rbp)
    c81e:	de cf d6 
    c821:	c7 85 b4 ef ff ff f8 	movl   $0x6e8296f8,-0x104c(%rbp)
    c828:	96 82 6e 
    c82b:	c7 85 b8 ef ff ff 60 	movl   $0x90b8bc60,-0x1048(%rbp)
    c832:	bc b8 90 
    c835:	c7 85 bc ef ff ff fa 	movl   $0xfffffffa,-0x1044(%rbp)
    c83c:	ff ff ff 
    c83f:	c7 85 c0 ef ff ff fe 	movl   $0xfffffffe,-0x1040(%rbp)
    c846:	ff ff ff 
    c849:	c6 85 7f ee ff ff fb 	movb   $0xfb,-0x1181(%rbp)
    c850:	c7 85 c4 ef ff ff fb 	movl   $0xfffffffb,-0x103c(%rbp)
    c857:	ff ff ff 
    c85a:	c7 85 c8 ef ff ff bb 	movl   $0x5eb7b5bb,-0x1038(%rbp)
    c861:	b5 b7 5e 
    c864:	c7 85 10 f6 ff ff ca 	movl   $0x590704ca,-0x9f0(%rbp)
    c86b:	04 07 59 
    c86e:	c7 85 14 f6 ff ff 0e 	movl   $0x5306cd0e,-0x9ec(%rbp)
    c875:	cd 06 53 
    c878:	c7 85 18 f6 ff ff ca 	movl   $0x590704ca,-0x9e8(%rbp)
    c87f:	04 07 59 
    c882:	c7 85 1c f6 ff ff ca 	movl   $0x590704ca,-0x9e4(%rbp)
    c889:	04 07 59 
    c88c:	c7 85 20 f6 ff ff 0e 	movl   $0x5306cd0e,-0x9e0(%rbp)
    c893:	cd 06 53 
    c896:	c7 85 24 f6 ff ff ca 	movl   $0x590704ca,-0x9dc(%rbp)
    c89d:	04 07 59 
    c8a0:	c7 85 28 f6 ff ff ca 	movl   $0x590704ca,-0x9d8(%rbp)
    c8a7:	04 07 59 
    c8aa:	c7 85 2c f6 ff ff 0e 	movl   $0x5306cd0e,-0x9d4(%rbp)
    c8b1:	cd 06 53 
    c8b4:	c7 85 30 f6 ff ff ca 	movl   $0x590704ca,-0x9d0(%rbp)
    c8bb:	04 07 59 
    c8be:	c7 85 34 f6 ff ff ca 	movl   $0x590704ca,-0x9cc(%rbp)
    c8c5:	04 07 59 
    c8c8:	c7 85 cc ef ff ff 05 	movl   $0x5,-0x1034(%rbp)
    c8cf:	00 00 00 
    c8d2:	66 c7 05 bd ea 00 00 	movw   $0x0,0xeabd(%rip)        # 1b398 <g_461>
    c8d9:	00 00 
    c8db:	90                   	nop
    c8dc:	0f b7 05 b5 ea 00 00 	movzwl 0xeab5(%rip),%eax        # 1b398 <g_461>
    c8e3:	66 83 f8 03          	cmp    $0x3,%ax
    c8e7:	77 1a                	ja     c903 <func_4+0x4196>
    c8e9:	48 8d 05 e0 ea 00 00 	lea    0xeae0(%rip),%rax        # 1b3d0 <g_1087>
    c8f0:	48 89 85 d8 f2 ff ff 	mov    %rax,-0xd28(%rbp)
    c8f7:	48 8b 85 d8 f2 ff ff 	mov    -0xd28(%rbp),%rax
    c8fe:	e9 c7 09 00 00       	jmpq   d2ca <func_4+0x4b5d>
    c903:	83 ad cc ef ff ff 01 	subl   $0x1,-0x1034(%rbp)
    c90a:	8b 05 3c e7 00 00    	mov    0xe73c(%rip),%eax        # 1b04c <g_26>
    c910:	83 e8 01             	sub    $0x1,%eax
    c913:	89 05 33 e7 00 00    	mov    %eax,0xe733(%rip)        # 1b04c <g_26>
    c919:	8b 05 2d e7 00 00    	mov    0xe72d(%rip),%eax        # 1b04c <g_26>
    c91f:	85 c0                	test   %eax,%eax
    c921:	0f 89 d5 fe ff ff    	jns    c7fc <func_4+0x408f>
    c927:	48 c7 05 7e ea 00 00 	movq   $0x3,0xea7e(%rip)        # 1b3b0 <g_922>
    c92e:	03 00 00 00 
    c932:	e9 87 03 00 00       	jmpq   ccbe <func_4+0x4551>
    c937:	48 b8 a9 12 1f 77 02 	movabs $0xb2539c02771f12a9,%rax
    c93e:	9c 53 b2 
    c941:	48 89 85 10 f0 ff ff 	mov    %rax,-0xff0(%rbp)
    c948:	48 8d 05 4d ea 00 00 	lea    0xea4d(%rip),%rax        # 1b39c <g_623>
    c94f:	48 89 85 18 f0 ff ff 	mov    %rax,-0xfe8(%rbp)
    c956:	48 8d 05 7b 00 01 00 	lea    0x1007b(%rip),%rax        # 1c9d8 <g_804+0x98>
    c95d:	48 89 85 c8 f2 ff ff 	mov    %rax,-0xd38(%rbp)
    c964:	c7 85 f0 ee ff ff 00 	movl   $0x0,-0x1110(%rbp)
    c96b:	00 00 00 
    c96e:	eb 1e                	jmp    c98e <func_4+0x4221>
    c970:	8b 85 f0 ee ff ff    	mov    -0x1110(%rbp),%eax
    c976:	48 98                	cltq   
    c978:	48 8d 95 18 f0 ff ff 	lea    -0xfe8(%rbp),%rdx
    c97f:	48 89 94 c5 f0 f4 ff 	mov    %rdx,-0xb10(%rbp,%rax,8)
    c986:	ff 
    c987:	83 85 f0 ee ff ff 01 	addl   $0x1,-0x1110(%rbp)
    c98e:	83 bd f0 ee ff ff 06 	cmpl   $0x6,-0x1110(%rbp)
    c995:	7e d9                	jle    c970 <func_4+0x4203>
    c997:	48 8b 85 68 ee ff ff 	mov    -0x1198(%rbp),%rax
    c99e:	8b 95 54 ef ff ff    	mov    -0x10ac(%rbp),%edx
    c9a4:	89 10                	mov    %edx,(%rax)
    c9a6:	c7 85 b0 f3 ff ff 4e 	movl   $0xb4e,-0xc50(%rbp)
    c9ad:	0b 00 00 
    c9b0:	be 00 00 00 00       	mov    $0x0,%esi
    c9b5:	bf 4e 0b 00 00       	mov    $0xb4e,%edi
    c9ba:	e8 22 8b ff ff       	callq  54e1 <safe_lshift_func_int16_t_s_u>
    c9bf:	48 8b 15 22 04 01 00 	mov    0x10422(%rip),%rdx        # 1cde8 <g_1708+0x28>
    c9c6:	48 8b 85 20 f5 ff ff 	mov    -0xae0(%rbp),%rax
    c9cd:	48 39 c2             	cmp    %rax,%rdx
    c9d0:	0f 94 c0             	sete   %al
    c9d3:	0f b6 c0             	movzbl %al,%eax
    c9d6:	89 c7                	mov    %eax,%edi
    c9d8:	e8 c9 94 ff ff       	callq  5ea6 <safe_unary_minus_func_uint32_t_u>
    c9dd:	89 c2                	mov    %eax,%edx
    c9df:	48 8b 85 10 f0 ff ff 	mov    -0xff0(%rbp),%rax
    c9e6:	48 39 c2             	cmp    %rax,%rdx
    c9e9:	8b 05 c9 e9 00 00    	mov    0xe9c9(%rip),%eax        # 1b3b8 <g_940>
    c9ef:	be 01 00 00 00       	mov    $0x1,%esi
    c9f4:	bf 00 00 00 00       	mov    $0x0,%edi
    c9f9:	e8 b5 89 ff ff       	callq  53b3 <safe_add_func_int16_t_s_s>
    c9fe:	0f bf d0             	movswl %ax,%edx
    ca01:	48 8b 85 68 ee ff ff 	mov    -0x1198(%rbp),%rax
    ca08:	89 10                	mov    %edx,(%rax)
    ca0a:	48 8b 85 68 ee ff ff 	mov    -0x1198(%rbp),%rax
    ca11:	8b 08                	mov    (%rax),%ecx
    ca13:	48 8d 05 32 e6 00 00 	lea    0xe632(%rip),%rax        # 1b04c <g_26>
    ca1a:	8b 10                	mov    (%rax),%edx
    ca1c:	48 8d 05 29 e6 00 00 	lea    0xe629(%rip),%rax        # 1b04c <g_26>
    ca23:	21 ca                	and    %ecx,%edx
    ca25:	89 10                	mov    %edx,(%rax)
    ca27:	48 c7 85 28 f0 ff ff 	movq   $0x0,-0xfd8(%rbp)
    ca2e:	00 00 00 00 
    ca32:	e9 67 02 00 00       	jmpq   cc9e <func_4+0x4531>
    ca37:	48 8d 05 92 e9 00 00 	lea    0xe992(%rip),%rax        # 1b3d0 <g_1087>
    ca3e:	48 89 85 d0 f2 ff ff 	mov    %rax,-0xd30(%rbp)
    ca45:	48 8d 85 d0 ef ff ff 	lea    -0x1030(%rbp),%rax
    ca4c:	48 89 85 10 f6 ff ff 	mov    %rax,-0x9f0(%rbp)
    ca53:	48 8d 85 d0 ef ff ff 	lea    -0x1030(%rbp),%rax
    ca5a:	48 89 85 18 f6 ff ff 	mov    %rax,-0x9e8(%rbp)
    ca61:	48 8d 85 10 f0 ff ff 	lea    -0xff0(%rbp),%rax
    ca68:	48 89 85 20 f6 ff ff 	mov    %rax,-0x9e0(%rbp)
    ca6f:	48 8d 85 d0 ef ff ff 	lea    -0x1030(%rbp),%rax
    ca76:	48 89 85 28 f6 ff ff 	mov    %rax,-0x9d8(%rbp)
    ca7d:	48 8d 05 5c e7 00 00 	lea    0xe75c(%rip),%rax        # 1b1e0 <g_158>
    ca84:	48 89 85 30 f6 ff ff 	mov    %rax,-0x9d0(%rbp)
    ca8b:	48 8d 05 4e e7 00 00 	lea    0xe74e(%rip),%rax        # 1b1e0 <g_158>
    ca92:	48 89 85 38 f6 ff ff 	mov    %rax,-0x9c8(%rbp)
    ca99:	48 8d 05 40 e7 00 00 	lea    0xe740(%rip),%rax        # 1b1e0 <g_158>
    caa0:	48 89 85 40 f6 ff ff 	mov    %rax,-0x9c0(%rbp)
    caa7:	48 8d 85 d0 ef ff ff 	lea    -0x1030(%rbp),%rax
    caae:	48 89 85 48 f6 ff ff 	mov    %rax,-0x9b8(%rbp)
    cab5:	48 8d 85 10 f0 ff ff 	lea    -0xff0(%rbp),%rax
    cabc:	48 89 85 50 f6 ff ff 	mov    %rax,-0x9b0(%rbp)
    cac3:	48 8d 85 d0 ef ff ff 	lea    -0x1030(%rbp),%rax
    caca:	48 89 85 58 f6 ff ff 	mov    %rax,-0x9a8(%rbp)
    cad1:	c7 85 f4 ee ff ff 00 	movl   $0x0,-0x110c(%rbp)
    cad8:	00 00 00 
    cadb:	eb 1e                	jmp    cafb <func_4+0x438e>
    cadd:	8b 85 f4 ee ff ff    	mov    -0x110c(%rbp),%eax
    cae3:	48 98                	cltq   
    cae5:	48 8d 15 24 00 01 00 	lea    0x10024(%rip),%rdx        # 1cb10 <g_1576>
    caec:	48 89 94 c5 f8 f2 ff 	mov    %rdx,-0xd08(%rbp,%rax,8)
    caf3:	ff 
    caf4:	83 85 f4 ee ff ff 01 	addl   $0x1,-0x110c(%rbp)
    cafb:	83 bd f4 ee ff ff 00 	cmpl   $0x0,-0x110c(%rbp)
    cb02:	7e d9                	jle    cadd <func_4+0x4370>
    cb04:	8b 85 64 ee ff ff    	mov    -0x119c(%rbp),%eax
    cb0a:	0f be d8             	movsbl %al,%ebx
    cb0d:	8b 85 94 ef ff ff    	mov    -0x106c(%rbp),%eax
    cb13:	4c 63 e0             	movslq %eax,%r12
    cb16:	8b 85 5c ee ff ff    	mov    -0x11a4(%rbp),%eax
    cb1c:	44 0f be e8          	movsbl %al,%r13d
    cb20:	48 8b 05 91 ff 00 00 	mov    0xff91(%rip),%rax        # 1cab8 <g_944>
    cb27:	48 8b 00             	mov    (%rax),%rax
    cb2a:	48 8b 00             	mov    (%rax),%rax
    cb2d:	0f b6 00             	movzbl (%rax),%eax
    cb30:	44 0f b6 f0          	movzbl %al,%r14d
    cb34:	8b 85 e4 f2 ff ff    	mov    -0xd1c(%rbp),%eax
    cb3a:	85 c0                	test   %eax,%eax
    cb3c:	74 71                	je     cbaf <func_4+0x4442>
    cb3e:	48 8b 85 40 f3 ff ff 	mov    -0xcc0(%rbp),%rax
    cb45:	48 89 85 40 f3 ff ff 	mov    %rax,-0xcc0(%rbp)
    cb4c:	48 8b 85 40 f3 ff ff 	mov    -0xcc0(%rbp),%rax
    cb53:	48 39 85 20 f0 ff ff 	cmp    %rax,-0xfe0(%rbp)
    cb5a:	0f 95 c0             	setne  %al
    cb5d:	44 0f b6 f8          	movzbl %al,%r15d
    cb61:	8b 85 b4 ee ff ff    	mov    -0x114c(%rbp),%eax
    cb67:	98                   	cwtl   
    cb68:	be 00 00 00 00       	mov    $0x0,%esi
    cb6d:	89 c7                	mov    %eax,%edi
    cb6f:	e8 b6 89 ff ff       	callq  552a <safe_rshift_func_int16_t_s_s>
    cb74:	98                   	cwtl   
    cb75:	41 39 c7             	cmp    %eax,%r15d
    cb78:	0f 9f c0             	setg   %al
    cb7b:	0f b6 c0             	movzbl %al,%eax
    cb7e:	be 01 00 00 00       	mov    $0x1,%esi
    cb83:	89 c7                	mov    %eax,%edi
    cb85:	e8 46 93 ff ff       	callq  5ed0 <safe_sub_func_uint32_t_u_u>
    cb8a:	85 c0                	test   %eax,%eax
    cb8c:	74 10                	je     cb9e <func_4+0x4431>
    cb8e:	83 bd 60 ef ff ff 00 	cmpl   $0x0,-0x10a0(%rbp)
    cb95:	74 07                	je     cb9e <func_4+0x4431>
    cb97:	b8 01 00 00 00       	mov    $0x1,%eax
    cb9c:	eb 05                	jmp    cba3 <func_4+0x4436>
    cb9e:	b8 00 00 00 00       	mov    $0x0,%eax
    cba3:	83 f8 ff             	cmp    $0xffffffff,%eax
    cba6:	74 07                	je     cbaf <func_4+0x4442>
    cba8:	b8 01 00 00 00       	mov    $0x1,%eax
    cbad:	eb 05                	jmp    cbb4 <func_4+0x4447>
    cbaf:	b8 00 00 00 00       	mov    $0x0,%eax
    cbb4:	85 c0                	test   %eax,%eax
    cbb6:	0f 9e c0             	setle  %al
    cbb9:	0f b6 d0             	movzbl %al,%edx
    cbbc:	48 8b 85 10 f0 ff ff 	mov    -0xff0(%rbp),%rax
    cbc3:	48 39 c2             	cmp    %rax,%rdx
    cbc6:	0f 95 c0             	setne  %al
    cbc9:	89 c2                	mov    %eax,%edx
    cbcb:	8b 85 64 ee ff ff    	mov    -0x119c(%rbp),%eax
    cbd1:	09 d0                	or     %edx,%eax
    cbd3:	0f b6 c0             	movzbl %al,%eax
    cbd6:	44 89 f6             	mov    %r14d,%esi
    cbd9:	89 c7                	mov    %eax,%edi
    cbdb:	e8 6c 90 ff ff       	callq  5c4c <safe_lshift_func_uint8_t_u_u>
    cbe0:	44 89 ee             	mov    %r13d,%esi
    cbe3:	bf 01 00 00 00       	mov    $0x1,%edi
    cbe8:	e8 44 86 ff ff       	callq  5231 <safe_mod_func_int8_t_s_s>
    cbed:	84 c0                	test   %al,%al
    cbef:	8b 85 5c ee ff ff    	mov    -0x11a4(%rbp),%eax
    cbf5:	89 85 b4 ee ff ff    	mov    %eax,-0x114c(%rbp)
    cbfb:	48 83 bd c8 f2 ff ff 	cmpq   $0x0,-0xd38(%rbp)
    cc02:	00 
    cc03:	0f 95 c0             	setne  %al
    cc06:	0f b6 c0             	movzbl %al,%eax
    cc09:	48 63 d0             	movslq %eax,%rdx
    cc0c:	48 8b 05 8d e7 00 00 	mov    0xe78d(%rip),%rax        # 1b3a0 <g_844>
    cc13:	48 09 d0             	or     %rdx,%rax
    cc16:	48 89 05 83 e7 00 00 	mov    %rax,0xe783(%rip)        # 1b3a0 <g_844>
    cc1d:	48 8b 05 7c e7 00 00 	mov    0xe77c(%rip),%rax        # 1b3a0 <g_844>
    cc24:	49 89 c5             	mov    %rax,%r13
    cc27:	48 8b 85 d0 f2 ff ff 	mov    -0xd30(%rbp),%rax
    cc2e:	0f b7 00             	movzwl (%rax),%eax
    cc31:	8d 50 ff             	lea    -0x1(%rax),%edx
    cc34:	48 8b 85 d0 f2 ff ff 	mov    -0xd30(%rbp),%rax
    cc3b:	66 89 10             	mov    %dx,(%rax)
    cc3e:	48 8b 85 d0 f2 ff ff 	mov    -0xd30(%rbp),%rax
    cc45:	0f b7 00             	movzwl (%rax),%eax
    cc48:	0f b7 c0             	movzwl %ax,%eax
    cc4b:	89 c7                	mov    %eax,%edi
    cc4d:	e8 97 90 ff ff       	callq  5ce9 <safe_unary_minus_func_uint16_t_u>
    cc52:	0f b7 c0             	movzwl %ax,%eax
    cc55:	4c 89 ee             	mov    %r13,%rsi
    cc58:	48 89 c7             	mov    %rax,%rdi
    cc5b:	e8 ce 93 ff ff       	callq  602e <safe_add_func_uint64_t_u_u>
    cc60:	4c 89 e6             	mov    %r12,%rsi
    cc63:	48 89 c7             	mov    %rax,%rdi
    cc66:	e8 8c 8d ff ff       	callq  59f7 <safe_div_func_int64_t_s_s>
    cc6b:	0f be c0             	movsbl %al,%eax
    cc6e:	89 de                	mov    %ebx,%esi
    cc70:	89 c7                	mov    %eax,%edi
    cc72:	e8 9b 85 ff ff       	callq  5212 <safe_mul_func_int8_t_s_s>
    cc77:	66 98                	cbtw   
    cc79:	0f b7 c0             	movzwl %ax,%eax
    cc7c:	89 c6                	mov    %eax,%esi
    cc7e:	bf 00 00 00 00       	mov    $0x0,%edi
    cc83:	e8 b5 90 ff ff       	callq  5d3d <safe_mul_func_uint16_t_u_u>
    cc88:	89 c2                	mov    %eax,%edx
    cc8a:	48 8b 05 47 fa 00 00 	mov    0xfa47(%rip),%rax        # 1c6d8 <g_93>
    cc91:	0f b7 d2             	movzwl %dx,%edx
    cc94:	89 10                	mov    %edx,(%rax)
    cc96:	48 83 85 28 f0 ff ff 	addq   $0x1,-0xfd8(%rbp)
    cc9d:	01 
    cc9e:	48 83 bd 28 f0 ff ff 	cmpq   $0x3,-0xfd8(%rbp)
    cca5:	03 
    cca6:	0f 86 8b fd ff ff    	jbe    ca37 <func_4+0x42ca>
    ccac:	48 8b 05 fd e6 00 00 	mov    0xe6fd(%rip),%rax        # 1b3b0 <g_922>
    ccb3:	48 83 e8 01          	sub    $0x1,%rax
    ccb7:	48 89 05 f2 e6 00 00 	mov    %rax,0xe6f2(%rip)        # 1b3b0 <g_922>
    ccbe:	48 8b 05 eb e6 00 00 	mov    0xe6eb(%rip),%rax        # 1b3b0 <g_922>
    ccc5:	48 85 c0             	test   %rax,%rax
    ccc8:	0f 89 69 fc ff ff    	jns    c937 <func_4+0x41ca>
    ccce:	8b 85 a0 ee ff ff    	mov    -0x1160(%rbp),%eax
    ccd4:	83 c0 01             	add    $0x1,%eax
    ccd7:	89 85 a0 ee ff ff    	mov    %eax,-0x1160(%rbp)
    ccdd:	8b 85 a0 ee ff ff    	mov    -0x1160(%rbp),%eax
    cce3:	83 f8 06             	cmp    $0x6,%eax
    cce6:	0f 8e 89 f0 ff ff    	jle    bd75 <func_4+0x3608>
    ccec:	0f b6 05 2d e7 00 00 	movzbl 0xe72d(%rip),%eax        # 1b420 <g_1202>
    ccf3:	83 c0 01             	add    $0x1,%eax
    ccf6:	88 05 24 e7 00 00    	mov    %al,0xe724(%rip)        # 1b420 <g_1202>
    ccfc:	0f b6 05 1d e7 00 00 	movzbl 0xe71d(%rip),%eax        # 1b420 <g_1202>
    cd03:	84 c0                	test   %al,%al
    cd05:	0f 84 b6 ef ff ff    	je     bcc1 <func_4+0x3554>
    cd0b:	e9 5f 02 00 00       	jmpq   cf6f <func_4+0x4802>
    cd10:	48 c7 85 d8 f1 ff ff 	movq   $0xffffffffffffffff,-0xe28(%rbp)
    cd17:	ff ff ff ff 
    cd1b:	48 8d 05 76 e6 00 00 	lea    0xe676(%rip),%rax        # 1b398 <g_461>
    cd22:	48 89 85 f0 f4 ff ff 	mov    %rax,-0xb10(%rbp)
    cd29:	48 8d 05 68 e6 00 00 	lea    0xe668(%rip),%rax        # 1b398 <g_461>
    cd30:	48 89 85 f8 f4 ff ff 	mov    %rax,-0xb08(%rbp)
    cd37:	48 8d 05 5a e6 00 00 	lea    0xe65a(%rip),%rax        # 1b398 <g_461>
    cd3e:	48 89 85 00 f5 ff ff 	mov    %rax,-0xb00(%rbp)
    cd45:	48 8d 05 4c e6 00 00 	lea    0xe64c(%rip),%rax        # 1b398 <g_461>
    cd4c:	48 89 85 08 f5 ff ff 	mov    %rax,-0xaf8(%rbp)
    cd53:	48 8d 05 3e e6 00 00 	lea    0xe63e(%rip),%rax        # 1b398 <g_461>
    cd5a:	48 89 85 10 f5 ff ff 	mov    %rax,-0xaf0(%rbp)
    cd61:	c7 85 48 ef ff ff 00 	movl   $0x0,-0x10b8(%rbp)
    cd68:	00 00 00 
    cd6b:	48 8d 05 9e fd 00 00 	lea    0xfd9e(%rip),%rax        # 1cb10 <g_1576>
    cd72:	48 89 85 18 f0 ff ff 	mov    %rax,-0xfe8(%rbp)
    cd79:	48 8d 85 18 f0 ff ff 	lea    -0xfe8(%rbp),%rax
    cd80:	48 89 85 e0 f1 ff ff 	mov    %rax,-0xe20(%rbp)
    cd87:	c7 85 f8 ee ff ff 00 	movl   $0x0,-0x1108(%rbp)
    cd8e:	00 00 00 
    cd91:	eb 1b                	jmp    cdae <func_4+0x4641>
    cd93:	8b 85 f8 ee ff ff    	mov    -0x1108(%rbp),%eax
    cd99:	48 98                	cltq   
    cd9b:	48 c7 84 c5 10 f6 ff 	movq   $0x0,-0x9f0(%rbp,%rax,8)
    cda2:	ff 00 00 00 00 
    cda7:	83 85 f8 ee ff ff 01 	addl   $0x1,-0x1108(%rbp)
    cdae:	83 bd f8 ee ff ff 04 	cmpl   $0x4,-0x1108(%rbp)
    cdb5:	7e dc                	jle    cd93 <func_4+0x4626>
    cdb7:	8b 85 48 ef ff ff    	mov    -0x10b8(%rbp),%eax
    cdbd:	0c fb                	or     $0xfb,%al
    cdbf:	35 a9 a2 6f a7       	xor    $0xa76fa2a9,%eax
    cdc4:	41 89 c5             	mov    %eax,%r13d
    cdc7:	8b 85 5c ee ff ff    	mov    -0x11a4(%rbp),%eax
    cdcd:	66 89 05 c4 e5 00 00 	mov    %ax,0xe5c4(%rip)        # 1b398 <g_461>
    cdd4:	0f b7 05 bd e5 00 00 	movzwl 0xe5bd(%rip),%eax        # 1b398 <g_461>
    cddb:	0f b7 d8             	movzwl %ax,%ebx
    cdde:	44 8b a5 60 ee ff ff 	mov    -0x11a0(%rbp),%r12d
    cde5:	8b 85 5c ee ff ff    	mov    -0x11a4(%rbp),%eax
    cdeb:	0f be c0             	movsbl %al,%eax
    cdee:	89 c6                	mov    %eax,%esi
    cdf0:	bf 49 00 00 00       	mov    $0x49,%edi
    cdf5:	e8 18 84 ff ff       	callq  5212 <safe_mul_func_int8_t_s_s>
    cdfa:	0f be c0             	movsbl %al,%eax
    cdfd:	44 89 e6             	mov    %r12d,%esi
    ce00:	89 c7                	mov    %eax,%edi
    ce02:	e8 9a 84 ff ff       	callq  52a1 <safe_lshift_func_int8_t_s_s>
    ce07:	66 98                	cbtw   
    ce09:	0f b7 c0             	movzwl %ax,%eax
    ce0c:	48 c7 85 d8 f1 ff ff 	movq   $0xb7c4,-0xe28(%rbp)
    ce13:	c4 b7 00 00 
    ce17:	89 c6                	mov    %eax,%esi
    ce19:	bf c4 b7 00 00       	mov    $0xb7c4,%edi
    ce1e:	e8 1a 8f ff ff       	callq  5d3d <safe_mul_func_uint16_t_u_u>
    ce23:	0f b7 c0             	movzwl %ax,%eax
    ce26:	89 de                	mov    %ebx,%esi
    ce28:	89 c7                	mov    %eax,%edi
    ce2a:	e8 5f 8f ff ff       	callq  5d8e <safe_div_func_uint16_t_u_u>
    ce2f:	66 0b 85 82 ee ff ff 	or     -0x117e(%rbp),%ax
    ce36:	0f b7 c0             	movzwl %ax,%eax
    ce39:	44 89 ee             	mov    %r13d,%esi
    ce3c:	89 c7                	mov    %eax,%edi
    ce3e:	e8 e2 90 ff ff       	callq  5f25 <safe_div_func_uint32_t_u_u>
    ce43:	89 c2                	mov    %eax,%edx
    ce45:	48 8b 85 68 ee ff ff 	mov    -0x1198(%rbp),%rax
    ce4c:	89 10                	mov    %edx,(%rax)
    ce4e:	48 8b 85 e0 f1 ff ff 	mov    -0xe20(%rbp),%rax
    ce55:	48 8d 15 b4 fc 00 00 	lea    0xfcb4(%rip),%rdx        # 1cb10 <g_1576>
    ce5c:	48 89 10             	mov    %rdx,(%rax)
    ce5f:	48 8b 85 e0 f1 ff ff 	mov    -0xe20(%rbp),%rax
    ce66:	48 8b 10             	mov    (%rax),%rdx
    ce69:	48 8b 85 68 f3 ff ff 	mov    -0xc98(%rbp),%rax
    ce70:	48 39 c2             	cmp    %rax,%rdx
    ce73:	0f 94 c0             	sete   %al
    ce76:	0f b6 c0             	movzbl %al,%eax
    ce79:	be 04 00 00 00       	mov    $0x4,%esi
    ce7e:	89 c7                	mov    %eax,%edi
    ce80:	e8 c3 8f ff ff       	callq  5e48 <safe_rshift_func_uint16_t_u_s>
    ce85:	0f b7 15 5c e3 00 00 	movzwl 0xe35c(%rip),%edx        # 1b1e8 <g_167>
    ce8c:	09 d0                	or     %edx,%eax
    ce8e:	66 89 05 53 e3 00 00 	mov    %ax,0xe353(%rip)        # 1b1e8 <g_167>
    ce95:	8b 85 5c ee ff ff    	mov    -0x11a4(%rbp),%eax
    ce9b:	0f be c0             	movsbl %al,%eax
    ce9e:	be 00 00 00 00       	mov    $0x0,%esi
    cea3:	89 c7                	mov    %eax,%edi
    cea5:	e8 68 83 ff ff       	callq  5212 <safe_mul_func_int8_t_s_s>
    ceaa:	0f be c0             	movsbl %al,%eax
    cead:	25 fb 2e 1e 25       	and    $0x251e2efb,%eax
    ceb2:	be 28 50 cf 88       	mov    $0x88cf5028,%esi
    ceb7:	89 c7                	mov    %eax,%edi
    ceb9:	e8 67 90 ff ff       	callq  5f25 <safe_div_func_uint32_t_u_u>
    cebe:	3d 2a e3 b0 ef       	cmp    $0xefb0e32a,%eax
    cec3:	0f 96 c0             	setbe  %al
    cec6:	0f b6 c0             	movzbl %al,%eax
    cec9:	89 c7                	mov    %eax,%edi
    cecb:	e8 75 8c ff ff       	callq  5b45 <safe_unary_minus_func_uint8_t_u>
    ced0:	8b 85 64 ee ff ff    	mov    -0x119c(%rbp),%eax
    ced6:	48 98                	cltq   
    ced8:	48 be 1e 82 55 f3 9b 	movabs $0x5fa26e9bf355821e,%rsi
    cedf:	6e a2 5f 
    cee2:	48 89 c7             	mov    %rax,%rdi
    cee5:	e8 c5 91 ff ff       	callq  60af <safe_div_func_uint64_t_u_u>
    ceea:	8b 95 64 ee ff ff    	mov    -0x119c(%rbp),%edx
    cef0:	48 63 ca             	movslq %edx,%rcx
    cef3:	48 8b 95 10 f6 ff ff 	mov    -0x9f0(%rbp),%rdx
    cefa:	48 39 d1             	cmp    %rdx,%rcx
    cefd:	0f 92 c2             	setb   %dl
    cf00:	0f b6 ca             	movzbl %dl,%ecx
    cf03:	48 8b 95 10 f6 ff ff 	mov    -0x9f0(%rbp),%rdx
    cf0a:	48 21 ca             	and    %rcx,%rdx
    cf0d:	48 39 d0             	cmp    %rdx,%rax
    cf10:	0f 96 c0             	setbe  %al
    cf13:	0f b6 d0             	movzbl %al,%edx
    cf16:	48 8d 05 2f e1 00 00 	lea    0xe12f(%rip),%rax        # 1b04c <g_26>
    cf1d:	48 8b 8d 68 ee ff ff 	mov    -0x1198(%rbp),%rcx
    cf24:	8b 09                	mov    (%rcx),%ecx
    cf26:	89 08                	mov    %ecx,(%rax)
    cf28:	8b 00                	mov    (%rax),%eax
    cf2a:	89 d6                	mov    %edx,%esi
    cf2c:	89 c7                	mov    %eax,%edi
    cf2e:	e8 83 86 ff ff       	callq  55b6 <safe_add_func_int32_t_s_s>
    cf33:	0f b6 95 73 ee ff ff 	movzbl -0x118d(%rbp),%edx
    cf3a:	48 8b 05 ff f7 00 00 	mov    0xf7ff(%rip),%rax        # 1c740 <g_392>
    cf41:	48 8b 00             	mov    (%rax),%rax
    cf44:	48 89 d6             	mov    %rdx,%rsi
    cf47:	48 89 c7             	mov    %rax,%rdi
    cf4a:	e8 31 91 ff ff       	callq  6080 <safe_mod_func_uint64_t_u_u>
    cf4f:	89 c2                	mov    %eax,%edx
    cf51:	48 8b 85 68 ee ff ff 	mov    -0x1198(%rbp),%rax
    cf58:	89 10                	mov    %edx,(%rax)
    cf5a:	48 8b 85 e0 f1 ff ff 	mov    -0xe20(%rbp),%rax
    cf61:	48 8b 00             	mov    (%rax),%rax
    cf64:	48 8b 00             	mov    (%rax),%rax
    cf67:	48 8b 00             	mov    (%rax),%rax
    cf6a:	e9 5b 03 00 00       	jmpq   d2ca <func_4+0x4b5d>
    cf6f:	c7 05 77 e4 00 00 00 	movl   $0x0,0xe477(%rip)        # 1b3f0 <g_1166>
    cf76:	00 00 00 
    cf79:	e9 2d 03 00 00       	jmpq   d2ab <func_4+0x4b3e>
    cf7e:	48 c7 85 f0 f1 ff ff 	movq   $0x0,-0xe10(%rbp)
    cf85:	00 00 00 00 
    cf89:	48 8d 05 f8 e2 00 00 	lea    0xe2f8(%rip),%rax        # 1b288 <g_370>
    cf90:	48 89 85 f8 f1 ff ff 	mov    %rax,-0xe08(%rbp)
    cf97:	48 8d 85 d0 ef ff ff 	lea    -0x1030(%rbp),%rax
    cf9e:	48 89 85 00 f2 ff ff 	mov    %rax,-0xe00(%rbp)
    cfa5:	48 8d 85 e0 ef ff ff 	lea    -0x1020(%rbp),%rax
    cfac:	48 89 85 08 f2 ff ff 	mov    %rax,-0xdf8(%rbp)
    cfb3:	48 8d 05 6a e4 00 00 	lea    0xe46a(%rip),%rax        # 1b424 <g_1564>
    cfba:	48 89 85 10 f2 ff ff 	mov    %rax,-0xdf0(%rbp)
    cfc1:	c7 85 64 ef ff ff 5f 	movl   $0x3b8ec25f,-0x109c(%rbp)
    cfc8:	c2 8e 3b 
    cfcb:	c7 85 68 ef ff ff 01 	movl   $0x1,-0x1098(%rbp)
    cfd2:	00 00 00 
    cfd5:	48 8d 05 2c fb 00 00 	lea    0xfb2c(%rip),%rax        # 1cb08 <g_1532>
    cfdc:	48 89 85 18 f2 ff ff 	mov    %rax,-0xde8(%rbp)
    cfe3:	48 c7 85 20 f2 ff ff 	movq   $0x0,-0xde0(%rbp)
    cfea:	00 00 00 00 
    cfee:	48 8d 05 e3 fa 00 00 	lea    0xfae3(%rip),%rax        # 1cad8 <g_1181>
    cff5:	48 89 85 28 f2 ff ff 	mov    %rax,-0xdd8(%rbp)
    cffc:	48 b8 53 fa d3 6f 9e 	movabs $0x4e0f339e6fd3fa53,%rax
    d003:	33 0f 4e 
    d006:	48 89 85 30 f2 ff ff 	mov    %rax,-0xdd0(%rbp)
    d00d:	c7 85 6c ef ff ff fd 	movl   $0xfffffffd,-0x1094(%rbp)
    d014:	ff ff ff 
    d017:	48 b8 e0 db c7 19 06 	movabs $0x9676860619c7dbe0,%rax
    d01e:	86 76 96 
    d021:	48 89 85 f0 f4 ff ff 	mov    %rax,-0xb10(%rbp)
    d028:	48 c7 85 f8 f4 ff ff 	movq   $0xffffffffffffffff,-0xb08(%rbp)
    d02f:	ff ff ff ff 
    d033:	48 c7 85 00 f5 ff ff 	movq   $0x1,-0xb00(%rbp)
    d03a:	01 00 00 00 
    d03e:	48 c7 85 08 f5 ff ff 	movq   $0xffffffffffffffff,-0xaf8(%rbp)
    d045:	ff ff ff ff 
    d049:	48 c7 85 10 f5 ff ff 	movq   $0xffffffffffffffff,-0xaf0(%rbp)
    d050:	ff ff ff ff 
    d054:	48 bb b6 83 c1 46 a1 	movabs $0x3d991da146c183b6,%rbx
    d05b:	1d 99 3d 
    d05e:	48 89 9d 18 f5 ff ff 	mov    %rbx,-0xae8(%rbp)
    d065:	48 89 85 20 f5 ff ff 	mov    %rax,-0xae0(%rbp)
    d06c:	48 c7 85 28 f5 ff ff 	movq   $0xffffffffffffffff,-0xad8(%rbp)
    d073:	ff ff ff ff 
    d077:	48 c7 85 30 f5 ff ff 	movq   $0x1,-0xad0(%rbp)
    d07e:	01 00 00 00 
    d082:	48 c7 85 38 f5 ff ff 	movq   $0xffffffffffffffff,-0xac8(%rbp)
    d089:	ff ff ff ff 
    d08d:	48 c7 85 40 f5 ff ff 	movq   $0xffffffffffffffff,-0xac0(%rbp)
    d094:	ff ff ff ff 
    d098:	48 89 9d 48 f5 ff ff 	mov    %rbx,-0xab8(%rbp)
    d09f:	48 89 85 50 f5 ff ff 	mov    %rax,-0xab0(%rbp)
    d0a6:	48 c7 85 58 f5 ff ff 	movq   $0xffffffffffffffff,-0xaa8(%rbp)
    d0ad:	ff ff ff ff 
    d0b1:	48 c7 85 60 f5 ff ff 	movq   $0x1,-0xaa0(%rbp)
    d0b8:	01 00 00 00 
    d0bc:	48 c7 85 68 f5 ff ff 	movq   $0xffffffffffffffff,-0xa98(%rbp)
    d0c3:	ff ff ff ff 
    d0c7:	48 c7 85 70 f5 ff ff 	movq   $0xffffffffffffffff,-0xa90(%rbp)
    d0ce:	ff ff ff ff 
    d0d2:	48 89 9d 78 f5 ff ff 	mov    %rbx,-0xa88(%rbp)
    d0d9:	48 89 85 80 f5 ff ff 	mov    %rax,-0xa80(%rbp)
    d0e0:	48 c7 85 88 f5 ff ff 	movq   $0xffffffffffffffff,-0xa78(%rbp)
    d0e7:	ff ff ff ff 
    d0eb:	48 c7 85 90 f5 ff ff 	movq   $0x1,-0xa70(%rbp)
    d0f2:	01 00 00 00 
    d0f6:	48 c7 85 98 f5 ff ff 	movq   $0xffffffffffffffff,-0xa68(%rbp)
    d0fd:	ff ff ff ff 
    d101:	48 c7 85 a0 f5 ff ff 	movq   $0xffffffffffffffff,-0xa60(%rbp)
    d108:	ff ff ff ff 
    d10c:	48 89 9d a8 f5 ff ff 	mov    %rbx,-0xa58(%rbp)
    d113:	48 89 85 b0 f5 ff ff 	mov    %rax,-0xa50(%rbp)
    d11a:	48 c7 85 b8 f5 ff ff 	movq   $0xffffffffffffffff,-0xa48(%rbp)
    d121:	ff ff ff ff 
    d125:	48 c7 85 c0 f5 ff ff 	movq   $0x1,-0xa40(%rbp)
    d12c:	01 00 00 00 
    d130:	c6 85 7c ee ff ff 06 	movb   $0x6,-0x1184(%rbp)
    d137:	c7 85 70 ef ff ff 01 	movl   $0x1,-0x1090(%rbp)
    d13e:	00 00 00 
    d141:	48 8d 85 10 f6 ff ff 	lea    -0x9f0(%rbp),%rax
    d148:	48 8d 15 f1 99 00 00 	lea    0x99f1(%rip),%rdx        # 16b40 <g_1383+0x6ec>
    d14f:	b9 36 00 00 00       	mov    $0x36,%ecx
    d154:	48 89 c7             	mov    %rax,%rdi
    d157:	48 89 d6             	mov    %rdx,%rsi
    d15a:	f3 48 a5             	rep movsq %ds:(%rsi),%es:(%rdi)
    d15d:	66 c7 85 94 ee ff ff 	movw   $0x1,-0x116c(%rbp)
    d164:	01 00 
    d166:	c7 85 74 ef ff ff c6 	movl   $0x6d80f9c6,-0x108c(%rbp)
    d16d:	f9 80 6d 
    d170:	48 8d 05 51 e0 00 00 	lea    0xe051(%rip),%rax        # 1b1c8 <g_94>
    d177:	48 89 85 38 f2 ff ff 	mov    %rax,-0xdc8(%rbp)
    d17e:	48 c7 85 40 f2 ff ff 	movq   $0x0,-0xdc0(%rbp)
    d185:	00 00 00 00 
    d189:	48 8d 05 70 08 01 00 	lea    0x10870(%rip),%rax        # 1da00 <g_952>
    d190:	48 89 85 48 f2 ff ff 	mov    %rax,-0xdb8(%rbp)
    d197:	48 c7 85 50 f2 ff ff 	movq   $0x1,-0xdb0(%rbp)
    d19e:	01 00 00 00 
    d1a2:	48 b8 92 cd fa 7a 89 	movabs $0x9a2e28897afacd92,%rax
    d1a9:	28 2e 9a 
    d1ac:	48 89 85 58 f2 ff ff 	mov    %rax,-0xda8(%rbp)
    d1b3:	48 8d 05 ce ff 00 00 	lea    0xffce(%rip),%rax        # 1d188 <g_2136>
    d1ba:	48 89 85 60 f2 ff ff 	mov    %rax,-0xda0(%rbp)
    d1c1:	c7 85 78 ef ff ff 01 	movl   $0x1,-0x1088(%rbp)
    d1c8:	00 00 00 
    d1cb:	c7 85 7c ef ff ff 4f 	movl   $0x4ef8654f,-0x1084(%rbp)
    d1d2:	65 f8 4e 
    d1d5:	48 8d 85 e8 f2 ff ff 	lea    -0xd18(%rbp),%rax
    d1dc:	48 89 85 18 f0 ff ff 	mov    %rax,-0xfe8(%rbp)
    d1e3:	48 8d 85 18 f0 ff ff 	lea    -0xfe8(%rbp),%rax
    d1ea:	48 89 85 68 f2 ff ff 	mov    %rax,-0xd98(%rbp)
    d1f1:	48 c7 85 70 f2 ff ff 	movq   $0x0,-0xd90(%rbp)
    d1f8:	00 00 00 00 
    d1fc:	66 c7 85 96 ee ff ff 	movw   $0x6a69,-0x116a(%rbp)
    d203:	69 6a 
    d205:	66 c7 85 98 ee ff ff 	movw   $0x1,-0x1168(%rbp)
    d20c:	01 00 
    d20e:	66 c7 85 9a ee ff ff 	movw   $0x0,-0x1166(%rbp)
    d215:	00 00 
    d217:	c7 85 fc ee ff ff 00 	movl   $0x0,-0x1104(%rbp)
    d21e:	00 00 00 
    d221:	eb 42                	jmp    d265 <func_4+0x4af8>
    d223:	c7 85 00 ef ff ff 00 	movl   $0x0,-0x1100(%rbp)
    d22a:	00 00 00 
    d22d:	eb 26                	jmp    d255 <func_4+0x4ae8>
    d22f:	8b 85 00 ef ff ff    	mov    -0x1100(%rbp),%eax
    d235:	48 63 d0             	movslq %eax,%rdx
    d238:	8b 85 fc ee ff ff    	mov    -0x1104(%rbp),%eax
    d23e:	48 98                	cltq   
    d240:	48 01 d0             	add    %rdx,%rax
    d243:	c7 84 85 f0 f3 ff ff 	movl   $0x34770575,-0xc10(%rbp,%rax,4)
    d24a:	75 05 77 34 
    d24e:	83 85 00 ef ff ff 01 	addl   $0x1,-0x1100(%rbp)
    d255:	83 bd 00 ef ff ff 00 	cmpl   $0x0,-0x1100(%rbp)
    d25c:	7e d1                	jle    d22f <func_4+0x4ac2>
    d25e:	83 85 fc ee ff ff 01 	addl   $0x1,-0x1104(%rbp)
    d265:	83 bd fc ee ff ff 03 	cmpl   $0x3,-0x1104(%rbp)
    d26c:	7e b5                	jle    d223 <func_4+0x4ab6>
    d26e:	c7 85 fc ee ff ff 00 	movl   $0x0,-0x1104(%rbp)
    d275:	00 00 00 
    d278:	eb 19                	jmp    d293 <func_4+0x4b26>
    d27a:	8b 85 fc ee ff ff    	mov    -0x1104(%rbp),%eax
    d280:	48 98                	cltq   
    d282:	66 c7 84 45 90 f3 ff 	movw   $0x505e,-0xc70(%rbp,%rax,2)
    d289:	ff 5e 50 
    d28c:	83 85 fc ee ff ff 01 	addl   $0x1,-0x1104(%rbp)
    d293:	83 bd fc ee ff ff 01 	cmpl   $0x1,-0x1104(%rbp)
    d29a:	7e de                	jle    d27a <func_4+0x4b0d>
    d29c:	8b 05 4e e1 00 00    	mov    0xe14e(%rip),%eax        # 1b3f0 <g_1166>
    d2a2:	83 e8 01             	sub    $0x1,%eax
    d2a5:	89 05 45 e1 00 00    	mov    %eax,0xe145(%rip)        # 1b3f0 <g_1166>
    d2ab:	8b 05 3f e1 00 00    	mov    0xe13f(%rip),%eax        # 1b3f0 <g_1166>
    d2b1:	85 c0                	test   %eax,%eax
    d2b3:	0f 89 c5 fc ff ff    	jns    cf7e <func_4+0x4811>
    d2b9:	83 85 20 ef ff ff 01 	addl   $0x1,-0x10e0(%rbp)
    d2c0:	48 8b 05 49 f8 00 00 	mov    0xf849(%rip),%rax        # 1cb10 <g_1576>
    d2c7:	48 8b 00             	mov    (%rax),%rax
    d2ca:	48 8b 5d c8          	mov    -0x38(%rbp),%rbx
    d2ce:	64 48 33 1c 25 28 00 	xor    %fs:0x28,%rbx
    d2d5:	00 00 
    d2d7:	74 05                	je     d2de <func_4+0x4b71>
    d2d9:	e8 92 7d ff ff       	callq  5070 <__stack_chk_fail@plt>
    d2de:	48 81 c4 88 11 00 00 	add    $0x1188,%rsp
    d2e5:	5b                   	pop    %rbx
    d2e6:	41 5c                	pop    %r12
    d2e8:	41 5d                	pop    %r13
    d2ea:	41 5e                	pop    %r14
    d2ec:	41 5f                	pop    %r15
    d2ee:	5d                   	pop    %rbp
    d2ef:	c3                   	retq   

000000000000d2f0 <func_9>:
    d2f0:	f3 0f 1e fa          	endbr64 
    d2f4:	55                   	push   %rbp
    d2f5:	48 89 e5             	mov    %rsp,%rbp
    d2f8:	41 57                	push   %r15
    d2fa:	41 56                	push   %r14
    d2fc:	41 55                	push   %r13
    d2fe:	41 54                	push   %r12
    d300:	53                   	push   %rbx
    d301:	48 81 ec 38 0a 00 00 	sub    $0xa38,%rsp
    d308:	48 89 bd b8 f5 ff ff 	mov    %rdi,-0xa48(%rbp)
    d30f:	89 f0                	mov    %esi,%eax
    d311:	89 d6                	mov    %edx,%esi
    d313:	48 89 8d a8 f5 ff ff 	mov    %rcx,-0xa58(%rbp)
    d31a:	44 89 c2             	mov    %r8d,%edx
    d31d:	66 89 85 b4 f5 ff ff 	mov    %ax,-0xa4c(%rbp)
    d324:	89 f0                	mov    %esi,%eax
    d326:	88 85 b0 f5 ff ff    	mov    %al,-0xa50(%rbp)
    d32c:	89 d0                	mov    %edx,%eax
    d32e:	66 89 85 a4 f5 ff ff 	mov    %ax,-0xa5c(%rbp)
    d335:	64 48 8b 04 25 28 00 	mov    %fs:0x28,%rax
    d33c:	00 00 
    d33e:	48 89 45 c8          	mov    %rax,-0x38(%rbp)
    d342:	31 c0                	xor    %eax,%eax
    d344:	48 b8 72 46 d8 86 88 	movabs $0x75494d8886d84672,%rax
    d34b:	4d 49 75 
    d34e:	48 89 85 58 f6 ff ff 	mov    %rax,-0x9a8(%rbp)
    d355:	c7 85 08 f6 ff ff ff 	movl   $0xffffffff,-0x9f8(%rbp)
    d35c:	ff ff ff 
    d35f:	48 8d 05 2a f7 00 00 	lea    0xf72a(%rip),%rax        # 1ca90 <g_803>
    d366:	48 89 85 a8 f6 ff ff 	mov    %rax,-0x958(%rbp)
    d36d:	48 8d 05 c4 f3 00 00 	lea    0xf3c4(%rip),%rax        # 1c738 <g_372+0x8>
    d374:	48 89 85 60 f6 ff ff 	mov    %rax,-0x9a0(%rbp)
    d37b:	48 8d 05 4e e0 00 00 	lea    0xe04e(%rip),%rax        # 1b3d0 <g_1087>
    d382:	48 89 85 b0 f6 ff ff 	mov    %rax,-0x950(%rbp)
    d389:	c7 85 0c f6 ff ff 01 	movl   $0x1,-0x9f4(%rbp)
    d390:	00 00 00 
    d393:	c7 85 10 f6 ff ff 8c 	movl   $0xe699bb8c,-0x9f0(%rbp)
    d39a:	bb 99 e6 
    d39d:	c7 85 d8 f5 ff ff e2 	movl   $0x22971ee2,-0xa28(%rbp)
    d3a4:	1e 97 22 
    d3a7:	c7 85 80 f9 ff ff b3 	movl   $0x9b20fcb3,-0x680(%rbp)
    d3ae:	fc 20 9b 
    d3b1:	c7 85 84 f9 ff ff b3 	movl   $0x9b20fcb3,-0x67c(%rbp)
    d3b8:	fc 20 9b 
    d3bb:	c7 85 88 f9 ff ff b3 	movl   $0x9b20fcb3,-0x678(%rbp)
    d3c2:	fc 20 9b 
    d3c5:	c7 85 8c f9 ff ff b3 	movl   $0x9b20fcb3,-0x674(%rbp)
    d3cc:	fc 20 9b 
    d3cf:	c7 85 90 f9 ff ff b3 	movl   $0x9b20fcb3,-0x670(%rbp)
    d3d6:	fc 20 9b 
    d3d9:	c7 85 94 f9 ff ff b3 	movl   $0x9b20fcb3,-0x66c(%rbp)
    d3e0:	fc 20 9b 
    d3e3:	c7 85 98 f9 ff ff b3 	movl   $0x9b20fcb3,-0x668(%rbp)
    d3ea:	fc 20 9b 
    d3ed:	c7 85 9c f9 ff ff b3 	movl   $0x9b20fcb3,-0x664(%rbp)
    d3f4:	fc 20 9b 
    d3f7:	c7 85 a0 f9 ff ff b3 	movl   $0x9b20fcb3,-0x660(%rbp)
    d3fe:	fc 20 9b 
    d401:	c7 85 a4 f9 ff ff b3 	movl   $0x9b20fcb3,-0x65c(%rbp)
    d408:	fc 20 9b 
    d40b:	c7 85 a8 f9 ff ff b3 	movl   $0x9b20fcb3,-0x658(%rbp)
    d412:	fc 20 9b 
    d415:	c7 85 ac f9 ff ff b3 	movl   $0x9b20fcb3,-0x654(%rbp)
    d41c:	fc 20 9b 
    d41f:	c7 85 b0 f9 ff ff b3 	movl   $0x9b20fcb3,-0x650(%rbp)
    d426:	fc 20 9b 
    d429:	c7 85 b4 f9 ff ff b3 	movl   $0x9b20fcb3,-0x64c(%rbp)
    d430:	fc 20 9b 
    d433:	c7 85 b8 f9 ff ff b3 	movl   $0x9b20fcb3,-0x648(%rbp)
    d43a:	fc 20 9b 
    d43d:	c7 85 bc f9 ff ff b3 	movl   $0x9b20fcb3,-0x644(%rbp)
    d444:	fc 20 9b 
    d447:	c7 85 c0 f9 ff ff b3 	movl   $0x9b20fcb3,-0x640(%rbp)
    d44e:	fc 20 9b 
    d451:	c7 85 c4 f9 ff ff b3 	movl   $0x9b20fcb3,-0x63c(%rbp)
    d458:	fc 20 9b 
    d45b:	c7 85 c8 f9 ff ff b3 	movl   $0x9b20fcb3,-0x638(%rbp)
    d462:	fc 20 9b 
    d465:	c7 85 cc f9 ff ff b3 	movl   $0x9b20fcb3,-0x634(%rbp)
    d46c:	fc 20 9b 
    d46f:	c7 85 d0 f9 ff ff b3 	movl   $0x9b20fcb3,-0x630(%rbp)
    d476:	fc 20 9b 
    d479:	c7 85 d4 f9 ff ff b3 	movl   $0x9b20fcb3,-0x62c(%rbp)
    d480:	fc 20 9b 
    d483:	c7 85 d8 f9 ff ff b3 	movl   $0x9b20fcb3,-0x628(%rbp)
    d48a:	fc 20 9b 
    d48d:	c7 85 dc f9 ff ff b3 	movl   $0x9b20fcb3,-0x624(%rbp)
    d494:	fc 20 9b 
    d497:	c7 85 e0 f9 ff ff b3 	movl   $0x9b20fcb3,-0x620(%rbp)
    d49e:	fc 20 9b 
    d4a1:	c7 85 e4 f9 ff ff b3 	movl   $0x9b20fcb3,-0x61c(%rbp)
    d4a8:	fc 20 9b 
    d4ab:	c7 85 e8 f9 ff ff b3 	movl   $0x9b20fcb3,-0x618(%rbp)
    d4b2:	fc 20 9b 
    d4b5:	c7 85 ec f9 ff ff b3 	movl   $0x9b20fcb3,-0x614(%rbp)
    d4bc:	fc 20 9b 
    d4bf:	c7 85 f0 f9 ff ff b3 	movl   $0x9b20fcb3,-0x610(%rbp)
    d4c6:	fc 20 9b 
    d4c9:	c7 85 f4 f9 ff ff b3 	movl   $0x9b20fcb3,-0x60c(%rbp)
    d4d0:	fc 20 9b 
    d4d3:	c7 85 e0 f5 ff ff 07 	movl   $0xceddee07,-0xa20(%rbp)
    d4da:	ee dd ce 
    d4dd:	48 8d 05 f4 de 00 00 	lea    0xdef4(%rip),%rax        # 1b3d8 <g_1131>
    d4e4:	48 89 85 68 f6 ff ff 	mov    %rax,-0x998(%rbp)
    d4eb:	48 8d 85 68 f6 ff ff 	lea    -0x998(%rbp),%rax
    d4f2:	48 89 85 70 f6 ff ff 	mov    %rax,-0x990(%rbp)
    d4f9:	48 8d 85 70 f6 ff ff 	lea    -0x990(%rbp),%rax
    d500:	48 89 85 b8 f6 ff ff 	mov    %rax,-0x948(%rbp)
    d507:	48 8d 05 ba 03 01 00 	lea    0x103ba(%rip),%rax        # 1d8c8 <g_176>
    d50e:	48 89 85 78 f6 ff ff 	mov    %rax,-0x988(%rbp)
    d515:	48 8d 85 78 f6 ff ff 	lea    -0x988(%rbp),%rax
    d51c:	48 89 85 c0 f6 ff ff 	mov    %rax,-0x940(%rbp)
    d523:	66 c7 85 d4 f5 ff ff 	movw   $0xffff,-0xa2c(%rbp)
    d52a:	ff ff 
    d52c:	c6 85 d0 f5 ff ff 08 	movb   $0x8,-0xa30(%rbp)
    d533:	48 8d 05 b6 dc 00 00 	lea    0xdcb6(%rip),%rax        # 1b1f0 <g_219>
    d53a:	48 89 85 c8 f6 ff ff 	mov    %rax,-0x938(%rbp)
    d541:	48 8d 05 20 db 00 00 	lea    0xdb20(%rip),%rax        # 1b068 <g_86>
    d548:	48 89 85 80 f6 ff ff 	mov    %rax,-0x980(%rbp)
    d54f:	48 8d 85 80 f6 ff ff 	lea    -0x980(%rbp),%rax
    d556:	48 89 85 d0 f6 ff ff 	mov    %rax,-0x930(%rbp)
    d55d:	48 8d 05 f4 da 00 00 	lea    0xdaf4(%rip),%rax        # 1b058 <g_84>
    d564:	48 89 85 d8 f6 ff ff 	mov    %rax,-0x928(%rbp)
    d56b:	48 8d 05 e6 da 00 00 	lea    0xdae6(%rip),%rax        # 1b058 <g_84>
    d572:	48 89 85 e0 f6 ff ff 	mov    %rax,-0x920(%rbp)
    d579:	48 8d 05 d8 da 00 00 	lea    0xdad8(%rip),%rax        # 1b058 <g_84>
    d580:	48 89 85 e8 f6 ff ff 	mov    %rax,-0x918(%rbp)
    d587:	48 8d 05 be da 00 00 	lea    0xdabe(%rip),%rax        # 1b04c <g_26>
    d58e:	48 89 85 f0 f6 ff ff 	mov    %rax,-0x910(%rbp)
    d595:	c7 85 e4 f5 ff ff 00 	movl   $0x0,-0xa1c(%rbp)
    d59c:	00 00 00 
    d59f:	eb 1b                	jmp    d5bc <func_9+0x2cc>
    d5a1:	8b 85 e4 f5 ff ff    	mov    -0xa1c(%rbp),%eax
    d5a7:	48 98                	cltq   
    d5a9:	48 c7 84 c5 10 f8 ff 	movq   $0x0,-0x7f0(%rbp,%rax,8)
    d5b0:	ff 00 00 00 00 
    d5b5:	83 85 e4 f5 ff ff 01 	addl   $0x1,-0xa1c(%rbp)
    d5bc:	83 bd e4 f5 ff ff 01 	cmpl   $0x1,-0xa1c(%rbp)
    d5c3:	7e dc                	jle    d5a1 <func_9+0x2b1>
    d5c5:	c7 85 e4 f5 ff ff 00 	movl   $0x0,-0xa1c(%rbp)
    d5cc:	00 00 00 
    d5cf:	eb 1e                	jmp    d5ef <func_9+0x2ff>
    d5d1:	8b 85 e4 f5 ff ff    	mov    -0xa1c(%rbp),%eax
    d5d7:	48 98                	cltq   
    d5d9:	48 8d 95 d8 f5 ff ff 	lea    -0xa28(%rbp),%rdx
    d5e0:	48 89 94 c5 90 f8 ff 	mov    %rdx,-0x770(%rbp,%rax,8)
    d5e7:	ff 
    d5e8:	83 85 e4 f5 ff ff 01 	addl   $0x1,-0xa1c(%rbp)
    d5ef:	83 bd e4 f5 ff ff 06 	cmpl   $0x6,-0xa1c(%rbp)
    d5f6:	7e d9                	jle    d5d1 <func_9+0x2e1>
    d5f8:	c7 85 e4 f5 ff ff 00 	movl   $0x0,-0xa1c(%rbp)
    d5ff:	00 00 00 
    d602:	eb 1b                	jmp    d61f <func_9+0x32f>
    d604:	8b 85 e4 f5 ff ff    	mov    -0xa1c(%rbp),%eax
    d60a:	48 98                	cltq   
    d60c:	48 c7 84 c5 20 f8 ff 	movq   $0xfffffffffffffffe,-0x7e0(%rbp,%rax,8)
    d613:	ff fe ff ff ff 
    d618:	83 85 e4 f5 ff ff 01 	addl   $0x1,-0xa1c(%rbp)
    d61f:	83 bd e4 f5 ff ff 01 	cmpl   $0x1,-0xa1c(%rbp)
    d626:	7e dc                	jle    d604 <func_9+0x314>
    d628:	48 8b 05 a9 f0 00 00 	mov    0xf0a9(%rip),%rax        # 1c6d8 <g_93>
    d62f:	8b 00                	mov    (%rax),%eax
    d631:	85 c0                	test   %eax,%eax
    d633:	0f 84 82 02 00 00    	je     d8bb <func_9+0x5cb>
    d639:	48 c7 85 80 f7 ff ff 	movq   $0x0,-0x880(%rbp)
    d640:	00 00 00 00 
    d644:	48 8d 05 0d da 00 00 	lea    0xda0d(%rip),%rax        # 1b058 <g_84>
    d64b:	48 89 85 88 f7 ff ff 	mov    %rax,-0x878(%rbp)
    d652:	c7 05 f0 d9 00 00 00 	movl   $0x0,0xd9f0(%rip)        # 1b04c <g_26>
    d659:	00 00 00 
    d65c:	e9 46 02 00 00       	jmpq   d8a7 <func_9+0x5b7>
    d661:	48 c7 05 74 db 00 00 	movq   $0x1,0xdb74(%rip)        # 1b1e0 <g_158>
    d668:	01 00 00 00 
    d66c:	e9 08 02 00 00       	jmpq   d879 <func_9+0x589>
    d671:	48 8d 05 10 dc 00 00 	lea    0xdc10(%rip),%rax        # 1b288 <g_370>
    d678:	48 89 85 90 f7 ff ff 	mov    %rax,-0x870(%rbp)
    d67f:	0f be 95 b0 f5 ff ff 	movsbl -0xa50(%rbp),%edx
    d686:	0f b6 05 43 db 00 00 	movzbl 0xdb43(%rip),%eax        # 1b1d0 <g_105>
    d68d:	0f be c0             	movsbl %al,%eax
    d690:	89 d6                	mov    %edx,%esi
    d692:	89 c7                	mov    %eax,%edi
    d694:	e8 48 7e ff ff       	callq  54e1 <safe_lshift_func_int16_t_s_u>
    d699:	0f bf d0             	movswl %ax,%edx
    d69c:	48 83 bd 80 f7 ff ff 	cmpq   $0x0,-0x880(%rbp)
    d6a3:	00 
    d6a4:	0f 94 c0             	sete   %al
    d6a7:	0f b6 c0             	movzbl %al,%eax
    d6aa:	09 d0                	or     %edx,%eax
    d6ac:	89 c1                	mov    %eax,%ecx
    d6ae:	48 8b 05 13 dd 00 00 	mov    0xdd13(%rip),%rax        # 1b3c8 <g_975>
    d6b5:	ba 70 75 00 00       	mov    $0x7570,%edx
    d6ba:	48 8b 85 90 f7 ff ff 	mov    -0x870(%rbp),%rax
    d6c1:	0f b7 00             	movzwl (%rax),%eax
    d6c4:	21 c2                	and    %eax,%edx
    d6c6:	48 8b 85 90 f7 ff ff 	mov    -0x870(%rbp),%rax
    d6cd:	66 89 10             	mov    %dx,(%rax)
    d6d0:	48 8b 85 90 f7 ff ff 	mov    -0x870(%rbp),%rax
    d6d7:	0f b7 00             	movzwl (%rax),%eax
    d6da:	98                   	cwtl   
    d6db:	89 ce                	mov    %ecx,%esi
    d6dd:	89 c7                	mov    %eax,%edi
    d6df:	e8 fd 7d ff ff       	callq  54e1 <safe_lshift_func_int16_t_s_u>
    d6e4:	48 83 bd 80 f7 ff ff 	cmpq   $0x0,-0x880(%rbp)
    d6eb:	00 
    d6ec:	0f 94 c0             	sete   %al
    d6ef:	0f b6 c0             	movzbl %al,%eax
    d6f2:	48 8b 95 58 f6 ff ff 	mov    -0x9a8(%rbp),%rdx
    d6f9:	48 89 c6             	mov    %rax,%rsi
    d6fc:	48 89 d7             	mov    %rdx,%rdi
    d6ff:	e8 a4 81 ff ff       	callq  58a8 <safe_sub_func_int64_t_s_s>
    d704:	48 83 f8 40          	cmp    $0x40,%rax
    d708:	0f 9f c2             	setg   %dl
    d70b:	48 8b 05 d6 ef 00 00 	mov    0xefd6(%rip),%rax        # 1c6e8 <g_135>
    d712:	0f b6 d2             	movzbl %dl,%edx
    d715:	89 10                	mov    %edx,(%rax)
    d717:	48 8b 15 b2 f3 00 00 	mov    0xf3b2(%rip),%rdx        # 1cad0 <g_980>
    d71e:	8b 00                	mov    (%rax),%eax
    d720:	89 02                	mov    %eax,(%rdx)
    d722:	66 c7 05 4d db 00 00 	movw   $0x0,0xdb4d(%rip)        # 1b278 <g_314>
    d729:	00 00 
    d72b:	e9 27 01 00 00       	jmpq   d857 <func_9+0x567>
    d730:	c7 85 2c f6 ff ff c4 	movl   $0x3d436ac4,-0x9d4(%rbp)
    d737:	6a 43 3d 
    d73a:	48 c7 85 58 f6 ff ff 	movq   $0x0,-0x9a8(%rbp)
    d741:	00 00 00 00 
    d745:	90                   	nop
    d746:	48 8b 85 58 f6 ff ff 	mov    -0x9a8(%rbp),%rax
    d74d:	48 83 f8 02          	cmp    $0x2,%rax
    d751:	0f 87 9f 00 00 00    	ja     d7f6 <func_9+0x506>
    d757:	48 8d 05 02 d9 00 00 	lea    0xd902(%rip),%rax        # 1b060 <g_84+0x8>
    d75e:	48 89 85 c0 fb ff ff 	mov    %rax,-0x440(%rbp)
    d765:	48 8d 05 f4 d8 00 00 	lea    0xd8f4(%rip),%rax        # 1b060 <g_84+0x8>
    d76c:	48 89 85 c8 fb ff ff 	mov    %rax,-0x438(%rbp)
    d773:	48 8d 05 e6 d8 00 00 	lea    0xd8e6(%rip),%rax        # 1b060 <g_84+0x8>
    d77a:	48 89 85 d0 fb ff ff 	mov    %rax,-0x430(%rbp)
    d781:	48 8d 05 d8 d8 00 00 	lea    0xd8d8(%rip),%rax        # 1b060 <g_84+0x8>
    d788:	48 89 85 d8 fb ff ff 	mov    %rax,-0x428(%rbp)
    d78f:	48 8d 05 ca d8 00 00 	lea    0xd8ca(%rip),%rax        # 1b060 <g_84+0x8>
    d796:	48 89 85 e0 fb ff ff 	mov    %rax,-0x420(%rbp)
    d79d:	48 8d 05 bc d8 00 00 	lea    0xd8bc(%rip),%rax        # 1b060 <g_84+0x8>
    d7a4:	48 89 85 e8 fb ff ff 	mov    %rax,-0x418(%rbp)
    d7ab:	48 8d 05 ae d8 00 00 	lea    0xd8ae(%rip),%rax        # 1b060 <g_84+0x8>
    d7b2:	48 89 85 f0 fb ff ff 	mov    %rax,-0x410(%rbp)
    d7b9:	48 8d 05 a0 d8 00 00 	lea    0xd8a0(%rip),%rax        # 1b060 <g_84+0x8>
    d7c0:	48 89 85 f8 fb ff ff 	mov    %rax,-0x408(%rbp)
    d7c7:	48 8d 05 92 d8 00 00 	lea    0xd892(%rip),%rax        # 1b060 <g_84+0x8>
    d7ce:	48 89 85 00 fc ff ff 	mov    %rax,-0x400(%rbp)
    d7d5:	48 8d 05 84 d8 00 00 	lea    0xd884(%rip),%rax        # 1b060 <g_84+0x8>
    d7dc:	48 89 85 08 fc ff ff 	mov    %rax,-0x3f8(%rbp)
    d7e3:	83 ad 2c f6 ff ff 01 	subl   $0x1,-0x9d4(%rbp)
    d7ea:	48 8b 85 88 f7 ff ff 	mov    -0x878(%rbp),%rax
    d7f1:	e9 64 17 00 00       	jmpq   ef5a <func_9+0x1c6a>
    d7f6:	0f b7 05 7b da 00 00 	movzwl 0xda7b(%rip),%eax        # 1b278 <g_314>
    d7fd:	0f b7 c0             	movzwl %ax,%eax
    d800:	48 8b 35 d9 d9 00 00 	mov    0xd9d9(%rip),%rsi        # 1b1e0 <g_158>
    d807:	0f b7 15 6a da 00 00 	movzwl 0xda6a(%rip),%edx        # 1b278 <g_314>
    d80e:	0f b7 d2             	movzwl %dx,%edx
    d811:	48 63 ca             	movslq %edx,%rcx
    d814:	48 63 d0             	movslq %eax,%rdx
    d817:	48 89 d0             	mov    %rdx,%rax
    d81a:	48 c1 e0 03          	shl    $0x3,%rax
    d81e:	48 01 d0             	add    %rdx,%rax
    d821:	48 01 f0             	add    %rsi,%rax
    d824:	48 01 c0             	add    %rax,%rax
    d827:	48 01 c8             	add    %rcx,%rax
    d82a:	48 8d 14 c5 00 00 00 	lea    0x0(,%rax,8),%rdx
    d831:	00 
    d832:	48 8d 05 47 d8 00 00 	lea    0xd847(%rip),%rax        # 1b080 <g_88>
    d839:	48 8b 14 02          	mov    (%rdx,%rax,1),%rdx
    d83d:	48 8b 05 6c f2 00 00 	mov    0xf26c(%rip),%rax        # 1cab0 <g_861>
    d844:	89 10                	mov    %edx,(%rax)
    d846:	0f b7 05 2b da 00 00 	movzwl 0xda2b(%rip),%eax        # 1b278 <g_314>
    d84d:	83 c0 01             	add    $0x1,%eax
    d850:	66 89 05 21 da 00 00 	mov    %ax,0xda21(%rip)        # 1b278 <g_314>
    d857:	0f b7 05 1a da 00 00 	movzwl 0xda1a(%rip),%eax        # 1b278 <g_314>
    d85e:	66 85 c0             	test   %ax,%ax
    d861:	0f 84 c9 fe ff ff    	je     d730 <func_9+0x440>
    d867:	48 8b 05 72 d9 00 00 	mov    0xd972(%rip),%rax        # 1b1e0 <g_158>
    d86e:	48 83 e8 01          	sub    $0x1,%rax
    d872:	48 89 05 67 d9 00 00 	mov    %rax,0xd967(%rip)        # 1b1e0 <g_158>
    d879:	48 8b 05 60 d9 00 00 	mov    0xd960(%rip),%rax        # 1b1e0 <g_158>
    d880:	48 85 c0             	test   %rax,%rax
    d883:	0f 89 e8 fd ff ff    	jns    d671 <func_9+0x381>
    d889:	8b 05 bd d7 00 00    	mov    0xd7bd(%rip),%eax        # 1b04c <g_26>
    d88f:	0f be c0             	movsbl %al,%eax
    d892:	be 01 00 00 00       	mov    $0x1,%esi
    d897:	89 c7                	mov    %eax,%edi
    d899:	e8 54 79 ff ff       	callq  51f2 <safe_sub_func_int8_t_s_s>
    d89e:	0f be c0             	movsbl %al,%eax
    d8a1:	89 05 a5 d7 00 00    	mov    %eax,0xd7a5(%rip)        # 1b04c <g_26>
    d8a7:	8b 05 9f d7 00 00    	mov    0xd79f(%rip),%eax        # 1b04c <g_26>
    d8ad:	83 f8 e7             	cmp    $0xffffffe7,%eax
    d8b0:	0f 84 ab fd ff ff    	je     d661 <func_9+0x371>
    d8b6:	e9 32 09 00 00       	jmpq   e1ed <func_9+0xefd>
    d8bb:	48 8d 05 ce f1 00 00 	lea    0xf1ce(%rip),%rax        # 1ca90 <g_803>
    d8c2:	48 89 85 f8 f6 ff ff 	mov    %rax,-0x908(%rbp)
    d8c9:	48 8d 85 c0 fb ff ff 	lea    -0x440(%rbp),%rax
    d8d0:	48 8d 15 29 94 00 00 	lea    0x9429(%rip),%rdx        # 16d00 <g_1383+0x8ac>
    d8d7:	b9 80 00 00 00       	mov    $0x80,%ecx
    d8dc:	48 89 c7             	mov    %rax,%rdi
    d8df:	48 89 d6             	mov    %rdx,%rsi
    d8e2:	f3 48 a5             	rep movsq %ds:(%rsi),%es:(%rdi)
    d8e5:	48 8d 05 04 d9 00 00 	lea    0xd904(%rip),%rax        # 1b1f0 <g_219>
    d8ec:	48 89 85 88 f6 ff ff 	mov    %rax,-0x978(%rbp)
    d8f3:	48 8d 85 88 f6 ff ff 	lea    -0x978(%rbp),%rax
    d8fa:	48 89 85 d0 f8 ff ff 	mov    %rax,-0x730(%rbp)
    d901:	48 8d 85 88 f6 ff ff 	lea    -0x978(%rbp),%rax
    d908:	48 89 85 d8 f8 ff ff 	mov    %rax,-0x728(%rbp)
    d90f:	48 8d 85 88 f6 ff ff 	lea    -0x978(%rbp),%rax
    d916:	48 89 85 e0 f8 ff ff 	mov    %rax,-0x720(%rbp)
    d91d:	48 8d 85 88 f6 ff ff 	lea    -0x978(%rbp),%rax
    d924:	48 89 85 e8 f8 ff ff 	mov    %rax,-0x718(%rbp)
    d92b:	48 8d 85 88 f6 ff ff 	lea    -0x978(%rbp),%rax
    d932:	48 89 85 f0 f8 ff ff 	mov    %rax,-0x710(%rbp)
    d939:	48 8d 85 88 f6 ff ff 	lea    -0x978(%rbp),%rax
    d940:	48 89 85 f8 f8 ff ff 	mov    %rax,-0x708(%rbp)
    d947:	48 8d 85 88 f6 ff ff 	lea    -0x978(%rbp),%rax
    d94e:	48 89 85 00 f9 ff ff 	mov    %rax,-0x700(%rbp)
    d955:	48 8d 85 88 f6 ff ff 	lea    -0x978(%rbp),%rax
    d95c:	48 89 85 08 f9 ff ff 	mov    %rax,-0x6f8(%rbp)
    d963:	48 8d 05 46 da 00 00 	lea    0xda46(%rip),%rax        # 1b3b0 <g_922>
    d96a:	48 89 85 00 f7 ff ff 	mov    %rax,-0x900(%rbp)
    d971:	48 8d 85 88 f6 ff ff 	lea    -0x978(%rbp),%rax
    d978:	48 89 85 08 f7 ff ff 	mov    %rax,-0x8f8(%rbp)
    d97f:	c7 85 e8 f5 ff ff 00 	movl   $0x0,-0xa18(%rbp)
    d986:	00 00 00 
    d989:	eb 1e                	jmp    d9a9 <func_9+0x6b9>
    d98b:	8b 85 e8 f5 ff ff    	mov    -0xa18(%rbp),%eax
    d991:	48 98                	cltq   
    d993:	48 8d 15 7e ed 00 00 	lea    0xed7e(%rip),%rdx        # 1c718 <g_290>
    d99a:	48 89 94 c5 60 f8 ff 	mov    %rdx,-0x7a0(%rbp,%rax,8)
    d9a1:	ff 
    d9a2:	83 85 e8 f5 ff ff 01 	addl   $0x1,-0xa18(%rbp)
    d9a9:	83 bd e8 f5 ff ff 01 	cmpl   $0x1,-0xa18(%rbp)
    d9b0:	7e d9                	jle    d98b <func_9+0x69b>
    d9b2:	c6 85 b0 f5 ff ff 00 	movb   $0x0,-0xa50(%rbp)
    d9b9:	e9 22 08 00 00       	jmpq   e1e0 <func_9+0xef0>
    d9be:	c6 85 d1 f5 ff ff ff 	movb   $0xff,-0xa2f(%rbp)
    d9c5:	66 c7 85 10 f9 ff ff 	movw   $0x1f68,-0x6f0(%rbp)
    d9cc:	68 1f 
    d9ce:	66 c7 85 12 f9 ff ff 	movw   $0xfff8,-0x6ee(%rbp)
    d9d5:	f8 ff 
    d9d7:	66 c7 85 14 f9 ff ff 	movw   $0x0,-0x6ec(%rbp)
    d9de:	00 00 
    d9e0:	66 c7 85 16 f9 ff ff 	movw   $0xc451,-0x6ea(%rbp)
    d9e7:	51 c4 
    d9e9:	66 c7 85 18 f9 ff ff 	movw   $0xfff8,-0x6e8(%rbp)
    d9f0:	f8 ff 
    d9f2:	66 c7 85 1a f9 ff ff 	movw   $0xffff,-0x6e6(%rbp)
    d9f9:	ff ff 
    d9fb:	66 c7 85 1c f9 ff ff 	movw   $0x71f2,-0x6e4(%rbp)
    da02:	f2 71 
    da04:	66 c7 85 1e f9 ff ff 	movw   $0x0,-0x6e2(%rbp)
    da0b:	00 00 
    da0d:	66 c7 85 20 f9 ff ff 	movw   $0x0,-0x6e0(%rbp)
    da14:	00 00 
    da16:	66 c7 85 22 f9 ff ff 	movw   $0x71f2,-0x6de(%rbp)
    da1d:	f2 71 
    da1f:	66 c7 85 24 f9 ff ff 	movw   $0xffff,-0x6dc(%rbp)
    da26:	ff ff 
    da28:	66 c7 85 26 f9 ff ff 	movw   $0x71f2,-0x6da(%rbp)
    da2f:	f2 71 
    da31:	66 c7 85 28 f9 ff ff 	movw   $0x0,-0x6d8(%rbp)
    da38:	00 00 
    da3a:	66 c7 85 2a f9 ff ff 	movw   $0x0,-0x6d6(%rbp)
    da41:	00 00 
    da43:	66 c7 85 2c f9 ff ff 	movw   $0x71f2,-0x6d4(%rbp)
    da4a:	f2 71 
    da4c:	66 c7 85 2e f9 ff ff 	movw   $0xffff,-0x6d2(%rbp)
    da53:	ff ff 
    da55:	66 c7 85 30 f9 ff ff 	movw   $0xfff8,-0x6d0(%rbp)
    da5c:	f8 ff 
    da5e:	66 c7 85 32 f9 ff ff 	movw   $0xc451,-0x6ce(%rbp)
    da65:	51 c4 
    da67:	66 c7 85 34 f9 ff ff 	movw   $0x0,-0x6cc(%rbp)
    da6e:	00 00 
    da70:	66 c7 85 36 f9 ff ff 	movw   $0xfff8,-0x6ca(%rbp)
    da77:	f8 ff 
    da79:	66 c7 85 38 f9 ff ff 	movw   $0x1f68,-0x6c8(%rbp)
    da80:	68 1f 
    da82:	66 c7 85 3a f9 ff ff 	movw   $0x71f2,-0x6c6(%rbp)
    da89:	f2 71 
    da8b:	66 c7 85 3c f9 ff ff 	movw   $0xfbdb,-0x6c4(%rbp)
    da92:	db fb 
    da94:	66 c7 85 3e f9 ff ff 	movw   $0xc451,-0x6c2(%rbp)
    da9b:	51 c4 
    da9d:	66 c7 85 40 f9 ff ff 	movw   $0x71f2,-0x6c0(%rbp)
    daa4:	f2 71 
    daa6:	66 c7 85 42 f9 ff ff 	movw   $0xfff8,-0x6be(%rbp)
    daad:	f8 ff 
    daaf:	66 c7 85 44 f9 ff ff 	movw   $0x71f2,-0x6bc(%rbp)
    dab6:	f2 71 
    dab8:	66 c7 85 46 f9 ff ff 	movw   $0xc451,-0x6ba(%rbp)
    dabf:	51 c4 
    dac1:	66 c7 85 48 f9 ff ff 	movw   $0xfbdb,-0x6b8(%rbp)
    dac8:	db fb 
    daca:	66 c7 85 4a f9 ff ff 	movw   $0x71f2,-0x6b6(%rbp)
    dad1:	f2 71 
    dad3:	66 c7 85 4c f9 ff ff 	movw   $0x1f68,-0x6b4(%rbp)
    dada:	68 1f 
    dadc:	66 c7 85 4e f9 ff ff 	movw   $0xfff8,-0x6b2(%rbp)
    dae3:	f8 ff 
    dae5:	66 c7 85 50 f9 ff ff 	movw   $0x0,-0x6b0(%rbp)
    daec:	00 00 
    daee:	66 c7 85 52 f9 ff ff 	movw   $0xc451,-0x6ae(%rbp)
    daf5:	51 c4 
    daf7:	66 c7 85 54 f9 ff ff 	movw   $0xfff8,-0x6ac(%rbp)
    dafe:	f8 ff 
    db00:	66 c7 85 56 f9 ff ff 	movw   $0xffff,-0x6aa(%rbp)
    db07:	ff ff 
    db09:	66 c7 85 58 f9 ff ff 	movw   $0x71f2,-0x6a8(%rbp)
    db10:	f2 71 
    db12:	66 c7 85 5a f9 ff ff 	movw   $0x0,-0x6a6(%rbp)
    db19:	00 00 
    db1b:	66 c7 85 5c f9 ff ff 	movw   $0x0,-0x6a4(%rbp)
    db22:	00 00 
    db24:	66 c7 85 5e f9 ff ff 	movw   $0x71f2,-0x6a2(%rbp)
    db2b:	f2 71 
    db2d:	66 c7 85 60 f9 ff ff 	movw   $0xffff,-0x6a0(%rbp)
    db34:	ff ff 
    db36:	66 c7 85 62 f9 ff ff 	movw   $0x71f2,-0x69e(%rbp)
    db3d:	f2 71 
    db3f:	66 c7 85 64 f9 ff ff 	movw   $0x0,-0x69c(%rbp)
    db46:	00 00 
    db48:	66 c7 85 66 f9 ff ff 	movw   $0x0,-0x69a(%rbp)
    db4f:	00 00 
    db51:	66 c7 85 68 f9 ff ff 	movw   $0x71f2,-0x698(%rbp)
    db58:	f2 71 
    db5a:	66 c7 85 6a f9 ff ff 	movw   $0xffff,-0x696(%rbp)
    db61:	ff ff 
    db63:	66 c7 85 6c f9 ff ff 	movw   $0xfff8,-0x694(%rbp)
    db6a:	f8 ff 
    db6c:	66 c7 85 6e f9 ff ff 	movw   $0xc451,-0x692(%rbp)
    db73:	51 c4 
    db75:	66 c7 85 70 f9 ff ff 	movw   $0x0,-0x690(%rbp)
    db7c:	00 00 
    db7e:	66 c7 85 72 f9 ff ff 	movw   $0xfff8,-0x68e(%rbp)
    db85:	f8 ff 
    db87:	48 c7 85 10 f7 ff ff 	movq   $0x0,-0x8f0(%rbp)
    db8e:	00 00 00 00 
    db92:	48 c7 85 18 f7 ff ff 	movq   $0x0,-0x8e8(%rbp)
    db99:	00 00 00 00 
    db9d:	48 8d 85 60 f8 ff ff 	lea    -0x7a0(%rbp),%rax
    dba4:	48 89 85 20 f7 ff ff 	mov    %rax,-0x8e0(%rbp)
    dbab:	48 8d 05 66 eb 00 00 	lea    0xeb66(%rip),%rax        # 1c718 <g_290>
    dbb2:	48 89 85 90 f6 ff ff 	mov    %rax,-0x970(%rbp)
    dbb9:	48 8d 85 90 f6 ff ff 	lea    -0x970(%rbp),%rax
    dbc0:	48 89 85 28 f7 ff ff 	mov    %rax,-0x8d8(%rbp)
    dbc7:	48 8d 05 ce d7 00 00 	lea    0xd7ce(%rip),%rax        # 1b39c <g_623>
    dbce:	48 89 85 30 f7 ff ff 	mov    %rax,-0x8d0(%rbp)
    dbd5:	48 8b 85 a8 f6 ff ff 	mov    -0x958(%rbp),%rax
    dbdc:	48 89 85 f8 f6 ff ff 	mov    %rax,-0x908(%rbp)
    dbe3:	0f be 9d d1 f5 ff ff 	movsbl -0xa2f(%rbp),%ebx
    dbea:	66 c7 85 3e f9 ff ff 	movw   $0xfff6,-0x6c2(%rbp)
    dbf1:	f6 ff 
    dbf3:	48 8b 85 10 f8 ff ff 	mov    -0x7f0(%rbp),%rax
    dbfa:	48 8d 15 af d7 00 00 	lea    0xd7af(%rip),%rdx        # 1b3b0 <g_922>
    dc01:	48 39 d0             	cmp    %rdx,%rax
    dc04:	0f 95 c0             	setne  %al
    dc07:	0f b6 c0             	movzbl %al,%eax
    dc0a:	be ae 09 00 00       	mov    $0x9ae,%esi
    dc0f:	89 c7                	mov    %eax,%edi
    dc11:	e8 df 77 ff ff       	callq  53f5 <safe_mul_func_int16_t_s_s>
    dc16:	66 85 c0             	test   %ax,%ax
    dc19:	48 8b 05 c8 ea 00 00 	mov    0xeac8(%rip),%rax        # 1c6e8 <g_135>
    dc20:	c7 00 01 00 00 00    	movl   $0x1,(%rax)
    dc26:	8b 00                	mov    (%rax),%eax
    dc28:	be eb 91 e8 53       	mov    $0x53e891eb,%esi
    dc2d:	89 c7                	mov    %eax,%edi
    dc2f:	e8 82 79 ff ff       	callq  55b6 <safe_add_func_int32_t_s_s>
    dc34:	39 c3                	cmp    %eax,%ebx
    dc36:	0f 9f c0             	setg   %al
    dc39:	0f b6 d0             	movzbl %al,%edx
    dc3c:	8b 85 9c fd ff ff    	mov    -0x264(%rbp),%eax
    dc42:	09 d0                	or     %edx,%eax
    dc44:	89 85 9c fd ff ff    	mov    %eax,-0x264(%rbp)
    dc4a:	8b 85 d8 fe ff ff    	mov    -0x128(%rbp),%eax
    dc50:	48 8b 15 39 d5 00 00 	mov    0xd539(%rip),%rdx        # 1b190 <g_88+0x110>
    dc57:	89 d1                	mov    %edx,%ecx
    dc59:	48 8b 95 30 f7 ff ff 	mov    -0x8d0(%rbp),%rdx
    dc60:	89 0a                	mov    %ecx,(%rdx)
    dc62:	48 8b 8d 60 f8 ff ff 	mov    -0x7a0(%rbp),%rcx
    dc69:	48 8b 95 20 f7 ff ff 	mov    -0x8e0(%rbp),%rdx
    dc70:	48 89 0a             	mov    %rcx,(%rdx)
    dc73:	48 8b 95 20 f7 ff ff 	mov    -0x8e0(%rbp),%rdx
    dc7a:	48 8b 0a             	mov    (%rdx),%rcx
    dc7d:	48 8b 95 28 f7 ff ff 	mov    -0x8d8(%rbp),%rdx
    dc84:	48 89 0a             	mov    %rcx,(%rdx)
    dc87:	48 8b 95 28 f7 ff ff 	mov    -0x8d8(%rbp),%rdx
    dc8e:	48 8b 0a             	mov    (%rdx),%rcx
    dc91:	48 8b 95 60 f6 ff ff 	mov    -0x9a0(%rbp),%rdx
    dc98:	48 39 d1             	cmp    %rdx,%rcx
    dc9b:	0f 94 c1             	sete   %cl
    dc9e:	48 8b 95 18 f8 ff ff 	mov    -0x7e8(%rbp),%rdx
    dca5:	48 39 95 00 f7 ff ff 	cmp    %rdx,-0x900(%rbp)
    dcac:	0f 95 c2             	setne  %dl
    dcaf:	21 ca                	and    %ecx,%edx
    dcb1:	84 d2                	test   %dl,%dl
    dcb3:	74 0a                	je     dcbf <func_9+0x9cf>
    dcb5:	48 8b 95 58 f6 ff ff 	mov    -0x9a8(%rbp),%rdx
    dcbc:	48 85 d2             	test   %rdx,%rdx
    dcbf:	48 8b 95 20 f7 ff ff 	mov    -0x8e0(%rbp),%rdx
    dcc6:	48 8b 12             	mov    (%rdx),%rdx
    dcc9:	48 8b 12             	mov    (%rdx),%rdx
    dccc:	8b 0a                	mov    (%rdx),%ecx
    dcce:	8b 95 d4 fe ff ff    	mov    -0x12c(%rbp),%edx
    dcd4:	31 ca                	xor    %ecx,%edx
    dcd6:	89 c6                	mov    %eax,%esi
    dcd8:	89 d7                	mov    %edx,%edi
    dcda:	e8 20 7a ff ff       	callq  56ff <safe_div_func_int32_t_s_s>
    dcdf:	8b 95 a4 fd ff ff    	mov    -0x25c(%rbp),%edx
    dce5:	39 d0                	cmp    %edx,%eax
    dce7:	0f 9f c0             	setg   %al
    dcea:	0f b6 d0             	movzbl %al,%edx
    dced:	0f b7 85 a4 f5 ff ff 	movzwl -0xa5c(%rbp),%eax
    dcf4:	39 c2                	cmp    %eax,%edx
    dcf6:	0f 95 c2             	setne  %dl
    dcf9:	48 8b 05 28 ea 00 00 	mov    0xea28(%rip),%rax        # 1c728 <g_343>
    dd00:	48 8b 00             	mov    (%rax),%rax
    dd03:	0f b6 d2             	movzbl %dl,%edx
    dd06:	89 10                	mov    %edx,(%rax)
    dd08:	48 c7 05 5d d5 00 00 	movq   $0x0,0xd55d(%rip)        # 1b270 <g_273>
    dd0f:	00 00 00 00 
    dd13:	90                   	nop
    dd14:	48 8b 05 55 d5 00 00 	mov    0xd555(%rip),%rax        # 1b270 <g_273>
    dd1b:	48 83 f8 01          	cmp    $0x1,%rax
    dd1f:	0f 87 9e 04 00 00    	ja     e1c3 <func_9+0xed3>
    dd25:	48 c7 85 38 f7 ff ff 	movq   $0x0,-0x8c8(%rbp)
    dd2c:	00 00 00 00 
    dd30:	48 8d 05 31 d3 00 00 	lea    0xd331(%rip),%rax        # 1b068 <g_86>
    dd37:	48 89 85 40 f7 ff ff 	mov    %rax,-0x8c0(%rbp)
    dd3e:	c7 85 14 f6 ff ff 00 	movl   $0x0,-0x9ec(%rbp)
    dd45:	00 00 00 
    dd48:	48 c7 85 98 f6 ff ff 	movq   $0x0,-0x968(%rbp)
    dd4f:	00 00 00 00 
    dd53:	48 8d 85 98 f6 ff ff 	lea    -0x968(%rbp),%rax
    dd5a:	48 89 85 48 f7 ff ff 	mov    %rax,-0x8b8(%rbp)
    dd61:	48 8d 05 cf d2 00 00 	lea    0xd2cf(%rip),%rax        # 1b037 <g_23+0x7>
    dd68:	48 89 85 50 f7 ff ff 	mov    %rax,-0x8b0(%rbp)
    dd6f:	66 c7 85 d2 f5 ff ff 	movw   $0xffff,-0xa2e(%rbp)
    dd76:	ff ff 
    dd78:	48 8b 85 58 f6 ff ff 	mov    -0x9a8(%rbp),%rax
    dd7f:	41 89 c5             	mov    %eax,%r13d
    dd82:	be 00 00 00 00       	mov    $0x0,%esi
    dd87:	bf fc ff ff ff       	mov    $0xfffffffc,%edi
    dd8c:	e8 db 75 ff ff       	callq  536c <safe_rshift_func_int8_t_s_u>
    dd91:	48 0f be 9d b0 f5 ff 	movsbq -0xa50(%rbp),%rbx
    dd98:	ff 
    dd99:	48 8b 85 a8 f5 ff ff 	mov    -0xa58(%rbp),%rax
    dda0:	0f b6 00             	movzbl (%rax),%eax
    dda3:	44 0f be e0          	movsbl %al,%r12d
    dda7:	48 8d 05 92 e9 00 00 	lea    0xe992(%rip),%rax        # 1c740 <g_392>
    ddae:	48 8b 00             	mov    (%rax),%rax
    ddb1:	48 8b 00             	mov    (%rax),%rax
    ddb4:	0f b7 85 b4 f5 ff ff 	movzwl -0xa4c(%rbp),%eax
    ddbb:	0f b7 d0             	movzwl %ax,%edx
    ddbe:	8b 85 14 f6 ff ff    	mov    -0x9ec(%rbp),%eax
    ddc4:	0f b7 c0             	movzwl %ax,%eax
    ddc7:	89 d6                	mov    %edx,%esi
    ddc9:	89 c7                	mov    %eax,%edi
    ddcb:	e8 be 7f ff ff       	callq  5d8e <safe_div_func_uint16_t_u_u>
    ddd0:	0f b7 d0             	movzwl %ax,%edx
    ddd3:	0f be 85 b0 f5 ff ff 	movsbl -0xa50(%rbp),%eax
    ddda:	39 c2                	cmp    %eax,%edx
    dddc:	48 8b 05 c5 ec 00 00 	mov    0xecc5(%rip),%rax        # 1caa8 <g_845>
    dde3:	48 8b 00             	mov    (%rax),%rax
    dde6:	48 8b 00             	mov    (%rax),%rax
    dde9:	48 8b 05 e0 e8 00 00 	mov    0xe8e0(%rip),%rax        # 1c6d0 <g_54>
    ddf0:	48 8b 00             	mov    (%rax),%rax
    ddf3:	0f b6 10             	movzbl (%rax),%edx
    ddf6:	48 8b 85 50 f7 ff ff 	mov    -0x8b0(%rbp),%rax
    ddfd:	88 10                	mov    %dl,(%rax)
    ddff:	48 8b 85 50 f7 ff ff 	mov    -0x8b0(%rbp),%rax
    de06:	0f b6 00             	movzbl (%rax),%eax
    de09:	0f b6 c0             	movzbl %al,%eax
    de0c:	44 89 e6             	mov    %r12d,%esi
    de0f:	89 c7                	mov    %eax,%edi
    de11:	e8 77 7e ff ff       	callq  5c8d <safe_rshift_func_uint8_t_u_s>
    de16:	48 8b 85 40 f7 ff ff 	mov    -0x8c0(%rbp),%rax
    de1d:	48 8b 10             	mov    (%rax),%rdx
    de20:	48 83 bd 08 f7 ff ff 	cmpq   $0x0,-0x8f8(%rbp)
    de27:	00 
    de28:	0f 95 c0             	setne  %al
    de2b:	0f b6 c0             	movzbl %al,%eax
    de2e:	48 21 c2             	and    %rax,%rdx
    de31:	48 8b 85 40 f7 ff ff 	mov    -0x8c0(%rbp),%rax
    de38:	48 89 10             	mov    %rdx,(%rax)
    de3b:	48 8b 85 40 f7 ff ff 	mov    -0x8c0(%rbp),%rax
    de42:	48 8b 10             	mov    (%rax),%rdx
    de45:	0f b7 85 a4 f5 ff ff 	movzwl -0xa5c(%rbp),%eax
    de4c:	48 39 c2             	cmp    %rax,%rdx
    de4f:	0f 93 c0             	setae  %al
    de52:	0f b6 c0             	movzbl %al,%eax
    de55:	48 89 de             	mov    %rbx,%rsi
    de58:	48 89 c7             	mov    %rax,%rdi
    de5b:	e8 e1 79 ff ff       	callq  5841 <safe_add_func_int64_t_s_s>
    de60:	0f be 85 b0 f5 ff ff 	movsbl -0xa50(%rbp),%eax
    de67:	44 89 ee             	mov    %r13d,%esi
    de6a:	89 c7                	mov    %eax,%edi
    de6c:	e8 21 76 ff ff       	callq  5492 <safe_lshift_func_int16_t_s_s>
    de71:	66 85 c0             	test   %ax,%ax
    de74:	0f 84 88 00 00 00    	je     df02 <func_9+0xc12>
    de7a:	66 c7 85 b4 f5 ff ff 	movw   $0x4,-0xa4c(%rbp)
    de81:	04 00 
    de83:	eb 4b                	jmp    ded0 <func_9+0xbe0>
    de85:	48 8b 05 e4 d3 00 00 	mov    0xd3e4(%rip),%rax        # 1b270 <g_273>
    de8c:	48 8d 50 02          	lea    0x2(%rax),%rdx
    de90:	48 8b 05 d9 d3 00 00 	mov    0xd3d9(%rip),%rax        # 1b270 <g_273>
    de97:	48 8d 48 03          	lea    0x3(%rax),%rcx
    de9b:	48 89 d0             	mov    %rdx,%rax
    de9e:	48 c1 e0 02          	shl    $0x2,%rax
    dea2:	48 01 d0             	add    %rdx,%rax
    dea5:	48 01 c0             	add    %rax,%rax
    dea8:	48 01 c8             	add    %rcx,%rax
    deab:	0f b7 94 45 10 f9 ff 	movzwl -0x6f0(%rbp,%rax,2),%edx
    deb2:	ff 
    deb3:	48 8b 05 26 e8 00 00 	mov    0xe826(%rip),%rax        # 1c6e0 <g_117>
    deba:	0f b7 d2             	movzwl %dx,%edx
    debd:	89 10                	mov    %edx,(%rax)
    debf:	0f b7 85 b4 f5 ff ff 	movzwl -0xa4c(%rbp),%eax
    dec6:	83 e8 01             	sub    $0x1,%eax
    dec9:	66 89 85 b4 f5 ff ff 	mov    %ax,-0xa4c(%rbp)
    ded0:	0f b7 85 b4 f5 ff ff 	movzwl -0xa4c(%rbp),%eax
    ded7:	66 85 c0             	test   %ax,%ax
    deda:	79 a9                	jns    de85 <func_9+0xb95>
    dedc:	48 8b 15 45 e8 00 00 	mov    0xe845(%rip),%rdx        # 1c728 <g_343>
    dee3:	48 8b 85 60 f6 ff ff 	mov    -0x9a0(%rbp),%rax
    deea:	48 8b 12             	mov    (%rdx),%rdx
    deed:	48 89 10             	mov    %rdx,(%rax)
    def0:	48 8b 95 90 f6 ff ff 	mov    -0x970(%rbp),%rdx
    def7:	48 8b 00             	mov    (%rax),%rax
    defa:	48 89 02             	mov    %rax,(%rdx)
    defd:	e9 b2 02 00 00       	jmpq   e1b4 <func_9+0xec4>
    df02:	48 c7 85 a0 f6 ff ff 	movq   $0x1,-0x960(%rbp)
    df09:	01 00 00 00 
    df0d:	c7 85 18 f6 ff ff 73 	movl   $0x75831773,-0x9e8(%rbp)
    df14:	17 83 75 
    df17:	c7 85 1c f6 ff ff d8 	movl   $0x7501e3d8,-0x9e4(%rbp)
    df1e:	e3 01 75 
    df21:	c7 85 20 f6 ff ff fd 	movl   $0xfffffffd,-0x9e0(%rbp)
    df28:	ff ff ff 
    df2b:	c7 85 24 f6 ff ff ff 	movl   $0xffffffff,-0x9dc(%rbp)
    df32:	ff ff ff 
    df35:	66 c7 85 a4 f5 ff ff 	movw   $0x0,-0xa5c(%rbp)
    df3c:	00 00 
    df3e:	e9 63 02 00 00       	jmpq   e1a6 <func_9+0xeb6>
    df43:	c7 85 dc f5 ff ff 01 	movl   $0x1,-0xa24(%rbp)
    df4a:	00 00 00 
    df4d:	48 8d 05 04 d1 00 00 	lea    0xd104(%rip),%rax        # 1b058 <g_84>
    df54:	48 89 85 58 f7 ff ff 	mov    %rax,-0x8a8(%rbp)
    df5b:	48 8d 05 ea d0 00 00 	lea    0xd0ea(%rip),%rax        # 1b04c <g_26>
    df62:	48 89 85 60 f7 ff ff 	mov    %rax,-0x8a0(%rbp)
    df69:	48 8d 05 e8 d0 00 00 	lea    0xd0e8(%rip),%rax        # 1b058 <g_84>
    df70:	48 89 85 68 f7 ff ff 	mov    %rax,-0x898(%rbp)
    df77:	48 8d 85 c0 fb ff ff 	lea    -0x440(%rbp),%rax
    df7e:	48 05 dc 01 00 00    	add    $0x1dc,%rax
    df84:	48 89 85 70 f7 ff ff 	mov    %rax,-0x890(%rbp)
    df8b:	48 c7 85 78 f7 ff ff 	movq   $0x0,-0x888(%rbp)
    df92:	00 00 00 00 
    df96:	c7 85 28 f6 ff ff ff 	movl   $0xffffffff,-0x9d8(%rbp)
    df9d:	ff ff ff 
    dfa0:	48 8d 85 dc f5 ff ff 	lea    -0xa24(%rbp),%rax
    dfa7:	48 89 85 00 fa ff ff 	mov    %rax,-0x600(%rbp)
    dfae:	48 8d 85 dc f5 ff ff 	lea    -0xa24(%rbp),%rax
    dfb5:	48 89 85 08 fa ff ff 	mov    %rax,-0x5f8(%rbp)
    dfbc:	48 8d 85 dc f5 ff ff 	lea    -0xa24(%rbp),%rax
    dfc3:	48 89 85 10 fa ff ff 	mov    %rax,-0x5f0(%rbp)
    dfca:	48 8d 05 87 d0 00 00 	lea    0xd087(%rip),%rax        # 1b058 <g_84>
    dfd1:	48 89 85 18 fa ff ff 	mov    %rax,-0x5e8(%rbp)
    dfd8:	48 8d 05 79 d0 00 00 	lea    0xd079(%rip),%rax        # 1b058 <g_84>
    dfdf:	48 89 85 20 fa ff ff 	mov    %rax,-0x5e0(%rbp)
    dfe6:	48 8d 05 6b d0 00 00 	lea    0xd06b(%rip),%rax        # 1b058 <g_84>
    dfed:	48 89 85 28 fa ff ff 	mov    %rax,-0x5d8(%rbp)
    dff4:	48 8d 85 dc f5 ff ff 	lea    -0xa24(%rbp),%rax
    dffb:	48 89 85 30 fa ff ff 	mov    %rax,-0x5d0(%rbp)
    e002:	48 8d 85 dc f5 ff ff 	lea    -0xa24(%rbp),%rax
    e009:	48 89 85 38 fa ff ff 	mov    %rax,-0x5c8(%rbp)
    e010:	48 8d 85 dc f5 ff ff 	lea    -0xa24(%rbp),%rax
    e017:	48 89 85 40 fa ff ff 	mov    %rax,-0x5c0(%rbp)
    e01e:	48 8d 05 33 d0 00 00 	lea    0xd033(%rip),%rax        # 1b058 <g_84>
    e025:	48 89 85 48 fa ff ff 	mov    %rax,-0x5b8(%rbp)
    e02c:	48 8d 05 25 d0 00 00 	lea    0xd025(%rip),%rax        # 1b058 <g_84>
    e033:	48 89 85 50 fa ff ff 	mov    %rax,-0x5b0(%rbp)
    e03a:	48 8d 05 17 d0 00 00 	lea    0xd017(%rip),%rax        # 1b058 <g_84>
    e041:	48 89 85 58 fa ff ff 	mov    %rax,-0x5a8(%rbp)
    e048:	48 8d 85 dc f5 ff ff 	lea    -0xa24(%rbp),%rax
    e04f:	48 89 85 60 fa ff ff 	mov    %rax,-0x5a0(%rbp)
    e056:	48 8d 85 dc f5 ff ff 	lea    -0xa24(%rbp),%rax
    e05d:	48 89 85 68 fa ff ff 	mov    %rax,-0x598(%rbp)
    e064:	48 8d 85 dc f5 ff ff 	lea    -0xa24(%rbp),%rax
    e06b:	48 89 85 70 fa ff ff 	mov    %rax,-0x590(%rbp)
    e072:	48 8d 05 df cf 00 00 	lea    0xcfdf(%rip),%rax        # 1b058 <g_84>
    e079:	48 89 85 78 fa ff ff 	mov    %rax,-0x588(%rbp)
    e080:	48 8d 05 d1 cf 00 00 	lea    0xcfd1(%rip),%rax        # 1b058 <g_84>
    e087:	48 89 85 80 fa ff ff 	mov    %rax,-0x580(%rbp)
    e08e:	48 8d 05 c3 cf 00 00 	lea    0xcfc3(%rip),%rax        # 1b058 <g_84>
    e095:	48 89 85 88 fa ff ff 	mov    %rax,-0x578(%rbp)
    e09c:	48 8d 85 dc f5 ff ff 	lea    -0xa24(%rbp),%rax
    e0a3:	48 89 85 90 fa ff ff 	mov    %rax,-0x570(%rbp)
    e0aa:	48 8d 85 dc f5 ff ff 	lea    -0xa24(%rbp),%rax
    e0b1:	48 89 85 98 fa ff ff 	mov    %rax,-0x568(%rbp)
    e0b8:	48 8d 85 dc f5 ff ff 	lea    -0xa24(%rbp),%rax
    e0bf:	48 89 85 a0 fa ff ff 	mov    %rax,-0x560(%rbp)
    e0c6:	48 8d 05 8b cf 00 00 	lea    0xcf8b(%rip),%rax        # 1b058 <g_84>
    e0cd:	48 89 85 a8 fa ff ff 	mov    %rax,-0x558(%rbp)
    e0d4:	48 8d 05 7d cf 00 00 	lea    0xcf7d(%rip),%rax        # 1b058 <g_84>
    e0db:	48 89 85 b0 fa ff ff 	mov    %rax,-0x550(%rbp)
    e0e2:	48 8d 05 6f cf 00 00 	lea    0xcf6f(%rip),%rax        # 1b058 <g_84>
    e0e9:	48 89 85 b8 fa ff ff 	mov    %rax,-0x548(%rbp)
    e0f0:	c7 85 ec f5 ff ff 00 	movl   $0x0,-0xa14(%rbp)
    e0f7:	00 00 00 
    e0fa:	eb 1e                	jmp    e11a <func_9+0xe2a>
    e0fc:	8b 85 ec f5 ff ff    	mov    -0xa14(%rbp),%eax
    e102:	48 98                	cltq   
    e104:	48 8d 15 7d d1 00 00 	lea    0xd17d(%rip),%rdx        # 1b288 <g_370>
    e10b:	48 89 94 c5 40 f8 ff 	mov    %rdx,-0x7c0(%rbp,%rax,8)
    e112:	ff 
    e113:	83 85 ec f5 ff ff 01 	addl   $0x1,-0xa14(%rbp)
    e11a:	83 bd ec f5 ff ff 00 	cmpl   $0x0,-0xa14(%rbp)
    e121:	7e d9                	jle    e0fc <func_9+0xe0c>
    e123:	48 8b 05 a6 e9 00 00 	mov    0xe9a6(%rip),%rax        # 1cad0 <g_980>
    e12a:	8b 10                	mov    (%rax),%edx
    e12c:	83 f2 fa             	xor    $0xfffffffa,%edx
    e12f:	89 10                	mov    %edx,(%rax)
    e131:	0f b7 95 b4 f5 ff ff 	movzwl -0xa4c(%rbp),%edx
    e138:	48 8b 05 a9 e5 00 00 	mov    0xe5a9(%rip),%rax        # 1c6e8 <g_135>
    e13f:	0f bf d2             	movswl %dx,%edx
    e142:	89 10                	mov    %edx,(%rax)
    e144:	48 8b 85 88 f6 ff ff 	mov    -0x978(%rbp),%rax
    e14b:	8b 10                	mov    (%rax),%edx
    e14d:	83 c2 01             	add    $0x1,%edx
    e150:	89 10                	mov    %edx,(%rax)
    e152:	8b 00                	mov    (%rax),%eax
    e154:	89 c0                	mov    %eax,%eax
    e156:	48 09 85 a0 f6 ff ff 	or     %rax,-0x960(%rbp)
    e15d:	48 8b 85 a0 f6 ff ff 	mov    -0x960(%rbp),%rax
    e164:	89 c2                	mov    %eax,%edx
    e166:	0f b7 85 b4 f5 ff ff 	movzwl -0xa4c(%rbp),%eax
    e16d:	31 d0                	xor    %edx,%eax
    e16f:	66 89 85 b4 f5 ff ff 	mov    %ax,-0xa4c(%rbp)
    e176:	0f b7 85 b4 f5 ff ff 	movzwl -0xa4c(%rbp),%eax
    e17d:	98                   	cwtl   
    e17e:	f7 d0                	not    %eax
    e180:	89 c1                	mov    %eax,%ecx
    e182:	48 8d 05 c3 ce 00 00 	lea    0xcec3(%rip),%rax        # 1b04c <g_26>
    e189:	8b 10                	mov    (%rax),%edx
    e18b:	48 8d 05 ba ce 00 00 	lea    0xceba(%rip),%rax        # 1b04c <g_26>
    e192:	21 ca                	and    %ecx,%edx
    e194:	89 10                	mov    %edx,(%rax)
    e196:	66 83 ad d2 f5 ff ff 	subw   $0x1,-0xa2e(%rbp)
    e19d:	01 
    e19e:	66 83 85 a4 f5 ff ff 	addw   $0x1,-0xa5c(%rbp)
    e1a5:	01 
    e1a6:	66 83 bd a4 f5 ff ff 	cmpw   $0x0,-0xa5c(%rbp)
    e1ad:	00 
    e1ae:	0f 84 8f fd ff ff    	je     df43 <func_9+0xc53>
    e1b4:	48 8b 05 6d e5 00 00 	mov    0xe56d(%rip),%rax        # 1c728 <g_343>
    e1bb:	48 8b 00             	mov    (%rax),%rax
    e1be:	e9 97 0d 00 00       	jmpq   ef5a <func_9+0x1c6a>
    e1c3:	66 0f be 85 b0 f5 ff 	movsbw -0xa50(%rbp),%ax
    e1ca:	ff 
    e1cb:	0f b7 c0             	movzwl %ax,%eax
    e1ce:	be 09 00 00 00       	mov    $0x9,%esi
    e1d3:	89 c7                	mov    %eax,%edi
    e1d5:	e8 45 7b ff ff       	callq  5d1f <safe_sub_func_uint16_t_u_u>
    e1da:	88 85 b0 f5 ff ff    	mov    %al,-0xa50(%rbp)
    e1e0:	80 bd b0 f5 ff ff ee 	cmpb   $0xee,-0xa50(%rbp)
    e1e7:	0f 85 d1 f7 ff ff    	jne    d9be <func_9+0x6ce>
    e1ed:	48 c7 05 b8 d1 00 00 	movq   $0xffffffffffffffe8,0xd1b8(%rip)        # 1b3b0 <g_922>
    e1f4:	e8 ff ff ff 
    e1f8:	e9 30 0d 00 00       	jmpq   ef2d <func_9+0x1c3d>
    e1fd:	48 c7 85 98 f7 ff ff 	movq   $0x0,-0x868(%rbp)
    e204:	00 00 00 00 
    e208:	c7 85 f0 f5 ff ff f8 	movl   $0xfffffff8,-0xa10(%rbp)
    e20f:	ff ff ff 
    e212:	48 8d 85 c0 fb ff ff 	lea    -0x440(%rbp),%rax
    e219:	48 8d 15 e0 8e 00 00 	lea    0x8ee0(%rip),%rdx        # 17100 <g_1383+0xcac>
    e220:	b9 78 00 00 00       	mov    $0x78,%ecx
    e225:	48 89 c7             	mov    %rax,%rdi
    e228:	48 89 d6             	mov    %rdx,%rsi
    e22b:	f3 48 a5             	rep movsq %ds:(%rsi),%es:(%rdi)
    e22e:	48 8d 05 b5 d1 00 00 	lea    0xd1b5(%rip),%rax        # 1b3ea <g_1135+0xa>
    e235:	48 89 85 88 f6 ff ff 	mov    %rax,-0x978(%rbp)
    e23c:	48 8d 85 88 f6 ff ff 	lea    -0x978(%rbp),%rax
    e243:	48 89 85 90 f6 ff ff 	mov    %rax,-0x970(%rbp)
    e24a:	48 8d 85 90 f6 ff ff 	lea    -0x970(%rbp),%rax
    e251:	48 89 85 a0 f7 ff ff 	mov    %rax,-0x860(%rbp)
    e258:	48 c7 85 a8 f7 ff ff 	movq   $0x0,-0x858(%rbp)
    e25f:	00 00 00 00 
    e263:	c6 85 cf f5 ff ff bb 	movb   $0xbb,-0xa31(%rbp)
    e26a:	66 c7 05 25 d1 00 00 	movw   $0x0,0xd125(%rip)        # 1b398 <g_461>
    e271:	00 00 
    e273:	e9 92 0c 00 00       	jmpq   ef0a <func_9+0x1c1a>
    e278:	66 c7 85 d6 f5 ff ff 	movw   $0x0,-0xa2a(%rbp)
    e27f:	00 00 
    e281:	48 8d 05 50 cf 00 00 	lea    0xcf50(%rip),%rax        # 1b1d8 <g_120>
    e288:	48 89 85 b0 f7 ff ff 	mov    %rax,-0x850(%rbp)
    e28f:	48 8d 85 58 f6 ff ff 	lea    -0x9a8(%rbp),%rax
    e296:	48 89 85 b8 f7 ff ff 	mov    %rax,-0x848(%rbp)
    e29d:	66 c7 45 c6 a3 a3    	movw   $0xa3a3,-0x3a(%rbp)
    e2a3:	c7 85 dc f5 ff ff 00 	movl   $0x0,-0xa24(%rbp)
    e2aa:	00 00 00 
    e2ad:	c7 85 30 f6 ff ff 2c 	movl   $0x3150d52c,-0x9d0(%rbp)
    e2b4:	d5 50 31 
    e2b7:	c7 85 34 f6 ff ff fe 	movl   $0xfffffffe,-0x9cc(%rbp)
    e2be:	ff ff ff 
    e2c1:	48 8d 85 78 f6 ff ff 	lea    -0x988(%rbp),%rax
    e2c8:	48 89 85 d0 f8 ff ff 	mov    %rax,-0x730(%rbp)
    e2cf:	48 8d 85 78 f6 ff ff 	lea    -0x988(%rbp),%rax
    e2d6:	48 89 85 d8 f8 ff ff 	mov    %rax,-0x728(%rbp)
    e2dd:	48 8d 85 78 f6 ff ff 	lea    -0x988(%rbp),%rax
    e2e4:	48 89 85 e0 f8 ff ff 	mov    %rax,-0x720(%rbp)
    e2eb:	48 8d 85 78 f6 ff ff 	lea    -0x988(%rbp),%rax
    e2f2:	48 89 85 e8 f8 ff ff 	mov    %rax,-0x718(%rbp)
    e2f9:	48 8d 85 78 f6 ff ff 	lea    -0x988(%rbp),%rax
    e300:	48 89 85 f0 f8 ff ff 	mov    %rax,-0x710(%rbp)
    e307:	48 8d 85 78 f6 ff ff 	lea    -0x988(%rbp),%rax
    e30e:	48 89 85 f8 f8 ff ff 	mov    %rax,-0x708(%rbp)
    e315:	c7 85 60 f8 ff ff fd 	movl   $0xfffffffd,-0x7a0(%rbp)
    e31c:	ff ff ff 
    e31f:	c7 85 64 f8 ff ff ff 	movl   $0xffffffff,-0x79c(%rbp)
    e326:	ff ff ff 
    e329:	c7 85 68 f8 ff ff fd 	movl   $0xfffffffd,-0x798(%rbp)
    e330:	ff ff ff 
    e333:	c7 85 6c f8 ff ff ff 	movl   $0xffffffff,-0x794(%rbp)
    e33a:	ff ff ff 
    e33d:	c7 85 70 f8 ff ff fd 	movl   $0xfffffffd,-0x790(%rbp)
    e344:	ff ff ff 
    e347:	c7 85 74 f8 ff ff ff 	movl   $0xffffffff,-0x78c(%rbp)
    e34e:	ff ff ff 
    e351:	c7 85 78 f8 ff ff fd 	movl   $0xfffffffd,-0x788(%rbp)
    e358:	ff ff ff 
    e35b:	c7 85 7c f8 ff ff ff 	movl   $0xffffffff,-0x784(%rbp)
    e362:	ff ff ff 
    e365:	c7 85 80 f8 ff ff fd 	movl   $0xfffffffd,-0x780(%rbp)
    e36c:	ff ff ff 
    e36f:	c7 85 84 f8 ff ff ff 	movl   $0xffffffff,-0x77c(%rbp)
    e376:	ff ff ff 
    e379:	48 c7 85 40 f8 ff ff 	movq   $0x0,-0x7c0(%rbp)
    e380:	00 00 00 00 
    e384:	48 c7 85 48 f8 ff ff 	movq   $0x0,-0x7b8(%rbp)
    e38b:	00 00 00 00 
    e38f:	48 c7 85 50 f8 ff ff 	movq   $0x0,-0x7b0(%rbp)
    e396:	00 00 00 00 
    e39a:	48 c7 85 58 f8 ff ff 	movq   $0x0,-0x7a8(%rbp)
    e3a1:	00 00 00 00 
    e3a5:	48 b8 5b 39 44 89 7f 	movabs $0xec84957f8944395b,%rax
    e3ac:	95 84 ec 
    e3af:	48 89 85 c0 f7 ff ff 	mov    %rax,-0x840(%rbp)
    e3b6:	48 c7 85 c8 f7 ff ff 	movq   $0xfffffffffffffffe,-0x838(%rbp)
    e3bd:	fe ff ff ff 
    e3c1:	48 c7 85 d0 f7 ff ff 	movq   $0x0,-0x830(%rbp)
    e3c8:	00 00 00 00 
    e3cc:	0f b7 85 d6 f5 ff ff 	movzwl -0xa2a(%rbp),%eax
    e3d3:	0f b6 d8             	movzbl %al,%ebx
    e3d6:	0f b6 05 2b f6 00 00 	movzbl 0xf62b(%rip),%eax        # 1da08 <g_1009>
    e3dd:	44 0f be e0          	movsbl %al,%r12d
    e3e1:	44 8b 2d 20 f6 00 00 	mov    0xf620(%rip),%r13d        # 1da08 <g_1009>
    e3e8:	48 8b 85 a8 f5 ff ff 	mov    -0xa58(%rbp),%rax
    e3ef:	0f b6 00             	movzbl (%rax),%eax
    e3f2:	0f be d0             	movsbl %al,%edx
    e3f5:	48 8b 05 c4 e2 00 00 	mov    0xe2c4(%rip),%rax        # 1c6c0 <g_27>
    e3fc:	0f b6 00             	movzbl (%rax),%eax
    e3ff:	0f b6 8d b0 f5 ff ff 	movzbl -0xa50(%rbp),%ecx
    e406:	83 f1 01             	xor    $0x1,%ecx
    e409:	31 c8                	xor    %ecx,%eax
    e40b:	38 85 b0 f5 ff ff    	cmp    %al,-0xa50(%rbp)
    e411:	0f 9c c0             	setl   %al
    e414:	0f b6 c8             	movzbl %al,%ecx
    e417:	48 8b 85 a8 f5 ff ff 	mov    -0xa58(%rbp),%rax
    e41e:	0f b6 00             	movzbl (%rax),%eax
    e421:	0f be c0             	movsbl %al,%eax
    e424:	39 c1                	cmp    %eax,%ecx
    e426:	0f 9f c0             	setg   %al
    e429:	0f b6 c0             	movzbl %al,%eax
    e42c:	89 d6                	mov    %edx,%esi
    e42e:	89 c7                	mov    %eax,%edi
    e430:	e8 fc 6d ff ff       	callq  5231 <safe_mod_func_int8_t_s_s>
    e435:	48 0f be d0          	movsbq %al,%rdx
    e439:	48 8b 85 b8 f7 ff ff 	mov    -0x848(%rbp),%rax
    e440:	48 89 10             	mov    %rdx,(%rax)
    e443:	44 89 ee             	mov    %r13d,%esi
    e446:	bf 01 00 00 00       	mov    $0x1,%edi
    e44b:	e8 b6 79 ff ff       	callq  5e06 <safe_lshift_func_uint16_t_u_u>
    e450:	66 85 c0             	test   %ax,%ax
    e453:	75 09                	jne    e45e <func_9+0x116e>
    e455:	83 bd f0 f5 ff ff 00 	cmpl   $0x0,-0xa10(%rbp)
    e45c:	74 07                	je     e465 <func_9+0x1175>
    e45e:	ba 01 00 00 00       	mov    $0x1,%edx
    e463:	eb 05                	jmp    e46a <func_9+0x117a>
    e465:	ba 00 00 00 00       	mov    $0x0,%edx
    e46a:	0f b6 05 df cb 00 00 	movzbl 0xcbdf(%rip),%eax        # 1b050 <g_28>
    e471:	0f be c0             	movsbl %al,%eax
    e474:	39 c2                	cmp    %eax,%edx
    e476:	7f 08                	jg     e480 <func_9+0x1190>
    e478:	41 be b1 00 00 00    	mov    $0xb1,%r14d
    e47e:	eb 06                	jmp    e486 <func_9+0x1196>
    e480:	41 be b0 00 00 00    	mov    $0xb0,%r14d
    e486:	48 8b 85 b0 f7 ff ff 	mov    -0x850(%rbp),%rax
    e48d:	c6 00 14             	movb   $0x14,(%rax)
    e490:	44 0f bf ad d6 f5 ff 	movswl -0xa2a(%rbp),%r13d
    e497:	ff 
    e498:	48 8b 85 b8 f5 ff ff 	mov    -0xa48(%rbp),%rax
    e49f:	0f b6 00             	movzbl (%rax),%eax
    e4a2:	0f be d0             	movsbl %al,%edx
    e4a5:	48 83 bd 98 f7 ff ff 	cmpq   $0x0,-0x868(%rbp)
    e4ac:	00 
    e4ad:	0f 95 c0             	setne  %al
    e4b0:	0f b6 c0             	movzbl %al,%eax
    e4b3:	39 c2                	cmp    %eax,%edx
    e4b5:	0f 9c c0             	setl   %al
    e4b8:	0f b6 c0             	movzbl %al,%eax
    e4bb:	48 89 c7             	mov    %rax,%rdi
    e4be:	e8 56 7b ff ff       	callq  6019 <safe_unary_minus_func_uint64_t_u>
    e4c3:	48 83 f8 01          	cmp    $0x1,%rax
    e4c7:	0f 95 c0             	setne  %al
    e4ca:	0f b6 c0             	movzbl %al,%eax
    e4cd:	44 31 e8             	xor    %r13d,%eax
    e4d0:	83 f8 13             	cmp    $0x13,%eax
    e4d3:	0f 9e c0             	setle  %al
    e4d6:	0f b6 c0             	movzbl %al,%eax
    e4d9:	44 89 f6             	mov    %r14d,%esi
    e4dc:	89 c7                	mov    %eax,%edi
    e4de:	e8 d5 79 ff ff       	callq  5eb8 <safe_add_func_uint32_t_u_u>
    e4e3:	98                   	cwtl   
    e4e4:	44 89 e6             	mov    %r12d,%esi
    e4e7:	89 c7                	mov    %eax,%edi
    e4e9:	e8 75 70 ff ff       	callq  5563 <safe_rshift_func_int16_t_s_u>
    e4ee:	89 de                	mov    %ebx,%esi
    e4f0:	bf 01 00 00 00       	mov    $0x1,%edi
    e4f5:	e8 99 76 ff ff       	callq  5b93 <safe_mul_func_uint8_t_u_u>
    e4fa:	84 c0                	test   %al,%al
    e4fc:	0f 84 1d 02 00 00    	je     e71f <func_9+0x142f>
    e502:	66 c7 85 00 fa ff ff 	movw   $0xa367,-0x600(%rbp)
    e509:	67 a3 
    e50b:	66 c7 85 02 fa ff ff 	movw   $0x67a3,-0x5fe(%rbp)
    e512:	a3 67 
    e514:	66 c7 85 04 fa ff ff 	movw   $0xa3a3,-0x5fc(%rbp)
    e51b:	a3 a3 
    e51d:	66 c7 85 06 fa ff ff 	movw   $0xa367,-0x5fa(%rbp)
    e524:	67 a3 
    e526:	66 c7 85 08 fa ff ff 	movw   $0x67a3,-0x5f8(%rbp)
    e52d:	a3 67 
    e52f:	66 c7 85 0a fa ff ff 	movw   $0xa3a3,-0x5f6(%rbp)
    e536:	a3 a3 
    e538:	66 c7 85 0c fa ff ff 	movw   $0xa367,-0x5f4(%rbp)
    e53f:	67 a3 
    e541:	66 c7 85 0e fa ff ff 	movw   $0x67a3,-0x5f2(%rbp)
    e548:	a3 67 
    e54a:	c7 85 48 f6 ff ff 09 	movl   $0x9,-0x9b8(%rbp)
    e551:	00 00 00 
    e554:	0f b6 45 c7          	movzbl -0x39(%rbp),%eax
    e558:	0f b6 d0             	movzbl %al,%edx
    e55b:	0f b6 85 07 fa ff ff 	movzbl -0x5f9(%rbp),%eax
    e562:	0f b6 c0             	movzbl %al,%eax
    e565:	89 85 f0 f5 ff ff    	mov    %eax,-0xa10(%rbp)
    e56b:	8b 85 f0 f5 ff ff    	mov    -0xa10(%rbp),%eax
    e571:	89 d6                	mov    %edx,%esi
    e573:	89 c7                	mov    %eax,%edi
    e575:	e8 3e 79 ff ff       	callq  5eb8 <safe_add_func_uint32_t_u_u>
    e57a:	0f b6 d0             	movzbl %al,%edx
    e57d:	0f b6 85 07 fa ff ff 	movzbl -0x5f9(%rbp),%eax
    e584:	0f b6 c0             	movzbl %al,%eax
    e587:	89 d6                	mov    %edx,%esi
    e589:	89 c7                	mov    %eax,%edi
    e58b:	e8 e8 75 ff ff       	callq  5b78 <safe_sub_func_uint8_t_u_u>
    e590:	89 c2                	mov    %eax,%edx
    e592:	48 8b 05 4f e1 00 00 	mov    0xe14f(%rip),%rax        # 1c6e8 <g_135>
    e599:	0f b6 d2             	movzbl %dl,%edx
    e59c:	89 10                	mov    %edx,(%rax)
    e59e:	48 8d 15 a7 ca 00 00 	lea    0xcaa7(%rip),%rdx        # 1b04c <g_26>
    e5a5:	8b 00                	mov    (%rax),%eax
    e5a7:	89 02                	mov    %eax,(%rdx)
    e5a9:	0f b7 85 b4 f5 ff ff 	movzwl -0xa4c(%rbp),%eax
    e5b0:	66 85 c0             	test   %ax,%ax
    e5b3:	0f 85 40 09 00 00    	jne    eef9 <func_9+0x1c09>
    e5b9:	0f b6 85 b0 f5 ff ff 	movzbl -0xa50(%rbp),%eax
    e5c0:	0f b6 d8             	movzbl %al,%ebx
    e5c3:	48 8b 05 de e4 00 00 	mov    0xe4de(%rip),%rax        # 1caa8 <g_845>
    e5ca:	48 8b 00             	mov    (%rax),%rax
    e5cd:	48 39 85 b0 f6 ff ff 	cmp    %rax,-0x950(%rbp)
    e5d4:	0f 94 c0             	sete   %al
    e5d7:	0f b6 d0             	movzbl %al,%edx
    e5da:	8b 85 48 f6 ff ff    	mov    -0x9b8(%rbp),%eax
    e5e0:	89 85 dc f5 ff ff    	mov    %eax,-0xa24(%rbp)
    e5e6:	8b 85 dc f5 ff ff    	mov    -0xa24(%rbp),%eax
    e5ec:	98                   	cwtl   
    e5ed:	89 d6                	mov    %edx,%esi
    e5ef:	89 c7                	mov    %eax,%edi
    e5f1:	e8 6d 6f ff ff       	callq  5563 <safe_rshift_func_int16_t_s_u>
    e5f6:	98                   	cwtl   
    e5f7:	89 c6                	mov    %eax,%esi
    e5f9:	bf 41 c2 59 e7       	mov    $0xe759c241,%edi
    e5fe:	e8 02 70 ff ff       	callq  5605 <safe_sub_func_int32_t_s_s>
    e603:	41 89 c7             	mov    %eax,%r15d
    e606:	48 8b 05 73 e1 00 00 	mov    0xe173(%rip),%rax        # 1c780 <g_429>
    e60d:	48 8b 00             	mov    (%rax),%rax
    e610:	0f b6 00             	movzbl (%rax),%eax
    e613:	44 0f b6 e0          	movzbl %al,%r12d
    e617:	48 8b 05 92 cd 00 00 	mov    0xcd92(%rip),%rax        # 1b3b0 <g_922>
    e61e:	44 0f b7 e8          	movzwl %ax,%r13d
    e622:	44 0f bf b5 d6 f5 ff 	movswl -0xa2a(%rbp),%r14d
    e629:	ff 
    e62a:	48 8b 05 4f e1 00 00 	mov    0xe14f(%rip),%rax        # 1c780 <g_429>
    e631:	48 8b 00             	mov    (%rax),%rax
    e634:	0f b6 00             	movzbl (%rax),%eax
    e637:	0f be d0             	movsbl %al,%edx
    e63a:	48 8b 85 a8 f5 ff ff 	mov    -0xa58(%rbp),%rax
    e641:	0f b6 00             	movzbl (%rax),%eax
    e644:	0f be c0             	movsbl %al,%eax
    e647:	89 d6                	mov    %edx,%esi
    e649:	89 c7                	mov    %eax,%edi
    e64b:	e8 1a 6c ff ff       	callq  526a <safe_div_func_int8_t_s_s>
    e650:	0f b6 c0             	movzbl %al,%eax
    e653:	be ff 00 00 00       	mov    $0xff,%esi
    e658:	89 c7                	mov    %eax,%edi
    e65a:	e8 4f 75 ff ff       	callq  5bae <safe_mod_func_uint8_t_u_u>
    e65f:	0f b6 c0             	movzbl %al,%eax
    e662:	44 89 f6             	mov    %r14d,%esi
    e665:	89 c7                	mov    %eax,%edi
    e667:	e8 21 76 ff ff       	callq  5c8d <safe_rshift_func_uint8_t_u_s>
    e66c:	48 c7 05 29 cd 00 00 	movq   $0xfc,0xcd29(%rip)        # 1b3a0 <g_844>
    e673:	fc 00 00 00 
    e677:	48 8b 05 22 cd 00 00 	mov    0xcd22(%rip),%rax        # 1b3a0 <g_844>
    e67e:	48 89 05 5b cb 00 00 	mov    %rax,0xcb5b(%rip)        # 1b1e0 <g_158>
    e685:	66 0f be 85 b0 f5 ff 	movsbw -0xa50(%rbp),%ax
    e68c:	ff 
    e68d:	0f b7 c0             	movzwl %ax,%eax
    e690:	44 89 ee             	mov    %r13d,%esi
    e693:	89 c7                	mov    %eax,%edi
    e695:	e8 a3 76 ff ff       	callq  5d3d <safe_mul_func_uint16_t_u_u>
    e69a:	be 06 00 00 00       	mov    $0x6,%esi
    e69f:	bf 05 77 00 00       	mov    $0x7705,%edi
    e6a4:	e8 a2 79 ff ff       	callq  604b <safe_sub_func_uint64_t_u_u>
    e6a9:	0f b6 c0             	movzbl %al,%eax
    e6ac:	44 89 e6             	mov    %r12d,%esi
    e6af:	89 c7                	mov    %eax,%edi
    e6b1:	e8 08 76 ff ff       	callq  5cbe <safe_rshift_func_uint8_t_u_u>
    e6b6:	0f b6 c0             	movzbl %al,%eax
    e6b9:	41 39 c7             	cmp    %eax,%r15d
    e6bc:	0f 9e c0             	setle  %al
    e6bf:	0f b6 c0             	movzbl %al,%eax
    e6c2:	89 de                	mov    %ebx,%esi
    e6c4:	89 c7                	mov    %eax,%edi
    e6c6:	e8 ad 74 ff ff       	callq  5b78 <safe_sub_func_uint8_t_u_u>
    e6cb:	0f b6 c0             	movzbl %al,%eax
    e6ce:	be ee 9b 24 c8       	mov    $0xc8249bee,%esi
    e6d3:	89 c7                	mov    %eax,%edi
    e6d5:	e8 f2 6f ff ff       	callq  56cc <safe_mod_func_int32_t_s_s>
    e6da:	85 c0                	test   %eax,%eax
    e6dc:	75 0c                	jne    e6ea <func_9+0x13fa>
    e6de:	0f b7 85 b4 f5 ff ff 	movzwl -0xa4c(%rbp),%eax
    e6e5:	66 85 c0             	test   %ax,%ax
    e6e8:	74 07                	je     e6f1 <func_9+0x1401>
    e6ea:	ba 01 00 00 00       	mov    $0x1,%edx
    e6ef:	eb 05                	jmp    e6f6 <func_9+0x1406>
    e6f1:	ba 00 00 00 00       	mov    $0x0,%edx
    e6f6:	48 8b 05 2b e0 00 00 	mov    0xe02b(%rip),%rax        # 1c728 <g_343>
    e6fd:	48 8b 00             	mov    (%rax),%rax
    e700:	89 10                	mov    %edx,(%rax)
    e702:	48 8d 15 43 c9 00 00 	lea    0xc943(%rip),%rdx        # 1b04c <g_26>
    e709:	8b 00                	mov    (%rax),%eax
    e70b:	89 02                	mov    %eax,(%rdx)
    e70d:	48 8d 05 38 c9 00 00 	lea    0xc938(%rip),%rax        # 1b04c <g_26>
    e714:	c7 00 bd 79 73 51    	movl   $0x517379bd,(%rax)
    e71a:	e9 58 04 00 00       	jmpq   eb77 <func_9+0x1887>
    e71f:	c7 85 38 f6 ff ff fa 	movl   $0x54bd7ffa,-0x9c8(%rbp)
    e726:	7f bd 54 
    e729:	c7 85 3c f6 ff ff ff 	movl   $0xffffffff,-0x9c4(%rbp)
    e730:	ff ff ff 
    e733:	c7 85 40 f6 ff ff 6b 	movl   $0xe02d7a6b,-0x9c0(%rbp)
    e73a:	7a 2d e0 
    e73d:	c7 85 44 f6 ff ff b7 	movl   $0x174d9ab7,-0x9bc(%rbp)
    e744:	9a 4d 17 
    e747:	48 8d 85 68 f6 ff ff 	lea    -0x998(%rbp),%rax
    e74e:	48 89 85 d8 f7 ff ff 	mov    %rax,-0x828(%rbp)
    e755:	48 c7 85 e0 f7 ff ff 	movq   $0x0,-0x820(%rbp)
    e75c:	00 00 00 00 
    e760:	c7 85 f4 f5 ff ff 00 	movl   $0x0,-0xa0c(%rbp)
    e767:	00 00 00 
    e76a:	eb 1a                	jmp    e786 <func_9+0x1496>
    e76c:	8b 85 f4 f5 ff ff    	mov    -0xa0c(%rbp),%eax
    e772:	48 98                	cltq   
    e774:	c7 84 85 30 f8 ff ff 	movl   $0xe6fd3110,-0x7d0(%rbp,%rax,4)
    e77b:	10 31 fd e6 
    e77f:	83 85 f4 f5 ff ff 01 	addl   $0x1,-0xa0c(%rbp)
    e786:	83 bd f4 f5 ff ff 02 	cmpl   $0x2,-0xa0c(%rbp)
    e78d:	7e dd                	jle    e76c <func_9+0x147c>
    e78f:	c7 85 f4 f5 ff ff 00 	movl   $0x0,-0xa0c(%rbp)
    e796:	00 00 00 
    e799:	eb 1a                	jmp    e7b5 <func_9+0x14c5>
    e79b:	8b 85 f4 f5 ff ff    	mov    -0xa0c(%rbp),%eax
    e7a1:	48 98                	cltq   
    e7a3:	c7 84 85 08 f8 ff ff 	movl   $0x1,-0x7f8(%rbp,%rax,4)
    e7aa:	01 00 00 00 
    e7ae:	83 85 f4 f5 ff ff 01 	addl   $0x1,-0xa0c(%rbp)
    e7b5:	83 bd f4 f5 ff ff 01 	cmpl   $0x1,-0xa0c(%rbp)
    e7bc:	7e dd                	jle    e79b <func_9+0x14ab>
    e7be:	48 c7 05 a7 ca 00 00 	movq   $0x0,0xcaa7(%rip)        # 1b270 <g_273>
    e7c5:	00 00 00 00 
    e7c9:	e9 99 03 00 00       	jmpq   eb67 <func_9+0x1877>
    e7ce:	48 8d 05 83 c8 00 00 	lea    0xc883(%rip),%rax        # 1b058 <g_84>
    e7d5:	48 89 85 e8 f7 ff ff 	mov    %rax,-0x818(%rbp)
    e7dc:	48 8d 85 dc f5 ff ff 	lea    -0xa24(%rbp),%rax
    e7e3:	48 89 85 10 f9 ff ff 	mov    %rax,-0x6f0(%rbp)
    e7ea:	48 8d 85 dc f5 ff ff 	lea    -0xa24(%rbp),%rax
    e7f1:	48 89 85 18 f9 ff ff 	mov    %rax,-0x6e8(%rbp)
    e7f8:	48 8d 85 dc f5 ff ff 	lea    -0xa24(%rbp),%rax
    e7ff:	48 89 85 20 f9 ff ff 	mov    %rax,-0x6e0(%rbp)
    e806:	48 8d 85 dc f5 ff ff 	lea    -0xa24(%rbp),%rax
    e80d:	48 89 85 28 f9 ff ff 	mov    %rax,-0x6d8(%rbp)
    e814:	48 8d 85 dc f5 ff ff 	lea    -0xa24(%rbp),%rax
    e81b:	48 89 85 30 f9 ff ff 	mov    %rax,-0x6d0(%rbp)
    e822:	48 8d 85 dc f5 ff ff 	lea    -0xa24(%rbp),%rax
    e829:	48 89 85 38 f9 ff ff 	mov    %rax,-0x6c8(%rbp)
    e830:	48 8d 85 dc f5 ff ff 	lea    -0xa24(%rbp),%rax
    e837:	48 89 85 40 f9 ff ff 	mov    %rax,-0x6c0(%rbp)
    e83e:	48 8d 85 dc f5 ff ff 	lea    -0xa24(%rbp),%rax
    e845:	48 89 85 48 f9 ff ff 	mov    %rax,-0x6b8(%rbp)
    e84c:	48 8d 85 dc f5 ff ff 	lea    -0xa24(%rbp),%rax
    e853:	48 89 85 50 f9 ff ff 	mov    %rax,-0x6b0(%rbp)
    e85a:	48 c7 85 98 f6 ff ff 	movq   $0x0,-0x968(%rbp)
    e861:	00 00 00 00 
    e865:	48 8d 85 98 f6 ff ff 	lea    -0x968(%rbp),%rax
    e86c:	48 89 85 00 fa ff ff 	mov    %rax,-0x600(%rbp)
    e873:	48 8d 85 98 f6 ff ff 	lea    -0x968(%rbp),%rax
    e87a:	48 89 85 08 fa ff ff 	mov    %rax,-0x5f8(%rbp)
    e881:	48 c7 85 10 fa ff ff 	movq   $0x0,-0x5f0(%rbp)
    e888:	00 00 00 00 
    e88c:	48 8d 85 98 f6 ff ff 	lea    -0x968(%rbp),%rax
    e893:	48 89 85 18 fa ff ff 	mov    %rax,-0x5e8(%rbp)
    e89a:	48 8d 85 98 f6 ff ff 	lea    -0x968(%rbp),%rax
    e8a1:	48 89 85 20 fa ff ff 	mov    %rax,-0x5e0(%rbp)
    e8a8:	48 c7 85 28 fa ff ff 	movq   $0x0,-0x5d8(%rbp)
    e8af:	00 00 00 00 
    e8b3:	48 8d 85 98 f6 ff ff 	lea    -0x968(%rbp),%rax
    e8ba:	48 89 85 30 fa ff ff 	mov    %rax,-0x5d0(%rbp)
    e8c1:	48 8d 85 98 f6 ff ff 	lea    -0x968(%rbp),%rax
    e8c8:	48 89 85 38 fa ff ff 	mov    %rax,-0x5c8(%rbp)
    e8cf:	48 8d 85 98 f6 ff ff 	lea    -0x968(%rbp),%rax
    e8d6:	48 89 85 40 fa ff ff 	mov    %rax,-0x5c0(%rbp)
    e8dd:	48 8d 85 98 f6 ff ff 	lea    -0x968(%rbp),%rax
    e8e4:	48 89 85 48 fa ff ff 	mov    %rax,-0x5b8(%rbp)
    e8eb:	48 8d 85 98 f6 ff ff 	lea    -0x968(%rbp),%rax
    e8f2:	48 89 85 50 fa ff ff 	mov    %rax,-0x5b0(%rbp)
    e8f9:	48 8d 85 98 f6 ff ff 	lea    -0x968(%rbp),%rax
    e900:	48 89 85 58 fa ff ff 	mov    %rax,-0x5a8(%rbp)
    e907:	48 8d 85 98 f6 ff ff 	lea    -0x968(%rbp),%rax
    e90e:	48 89 85 60 fa ff ff 	mov    %rax,-0x5a0(%rbp)
    e915:	48 8d 85 98 f6 ff ff 	lea    -0x968(%rbp),%rax
    e91c:	48 89 85 68 fa ff ff 	mov    %rax,-0x598(%rbp)
    e923:	48 c7 85 70 fa ff ff 	movq   $0x0,-0x590(%rbp)
    e92a:	00 00 00 00 
    e92e:	48 8d 85 98 f6 ff ff 	lea    -0x968(%rbp),%rax
    e935:	48 89 85 78 fa ff ff 	mov    %rax,-0x588(%rbp)
    e93c:	48 c7 85 80 fa ff ff 	movq   $0x0,-0x580(%rbp)
    e943:	00 00 00 00 
    e947:	48 c7 85 88 fa ff ff 	movq   $0x0,-0x578(%rbp)
    e94e:	00 00 00 00 
    e952:	48 8d 85 98 f6 ff ff 	lea    -0x968(%rbp),%rax
    e959:	48 89 85 90 fa ff ff 	mov    %rax,-0x570(%rbp)
    e960:	48 c7 85 98 fa ff ff 	movq   $0x0,-0x568(%rbp)
    e967:	00 00 00 00 
    e96b:	48 c7 85 a0 fa ff ff 	movq   $0x0,-0x560(%rbp)
    e972:	00 00 00 00 
    e976:	48 8d 85 98 f6 ff ff 	lea    -0x968(%rbp),%rax
    e97d:	48 89 85 a8 fa ff ff 	mov    %rax,-0x558(%rbp)
    e984:	48 8d 85 98 f6 ff ff 	lea    -0x968(%rbp),%rax
    e98b:	48 89 85 b0 fa ff ff 	mov    %rax,-0x550(%rbp)
    e992:	48 8d 85 98 f6 ff ff 	lea    -0x968(%rbp),%rax
    e999:	48 89 85 b8 fa ff ff 	mov    %rax,-0x548(%rbp)
    e9a0:	48 8d 85 98 f6 ff ff 	lea    -0x968(%rbp),%rax
    e9a7:	48 89 85 c0 fa ff ff 	mov    %rax,-0x540(%rbp)
    e9ae:	48 8d 85 98 f6 ff ff 	lea    -0x968(%rbp),%rax
    e9b5:	48 89 85 c8 fa ff ff 	mov    %rax,-0x538(%rbp)
    e9bc:	48 8d 85 98 f6 ff ff 	lea    -0x968(%rbp),%rax
    e9c3:	48 89 85 d0 fa ff ff 	mov    %rax,-0x530(%rbp)
    e9ca:	48 8d 85 98 f6 ff ff 	lea    -0x968(%rbp),%rax
    e9d1:	48 89 85 d8 fa ff ff 	mov    %rax,-0x528(%rbp)
    e9d8:	48 8d 85 98 f6 ff ff 	lea    -0x968(%rbp),%rax
    e9df:	48 89 85 e0 fa ff ff 	mov    %rax,-0x520(%rbp)
    e9e6:	48 c7 85 e8 fa ff ff 	movq   $0x0,-0x518(%rbp)
    e9ed:	00 00 00 00 
    e9f1:	48 c7 85 f0 fa ff ff 	movq   $0x0,-0x510(%rbp)
    e9f8:	00 00 00 00 
    e9fc:	48 8d 85 98 f6 ff ff 	lea    -0x968(%rbp),%rax
    ea03:	48 89 85 f8 fa ff ff 	mov    %rax,-0x508(%rbp)
    ea0a:	48 c7 85 00 fb ff ff 	movq   $0x0,-0x500(%rbp)
    ea11:	00 00 00 00 
    ea15:	48 c7 85 08 fb ff ff 	movq   $0x0,-0x4f8(%rbp)
    ea1c:	00 00 00 00 
    ea20:	48 8d 85 98 f6 ff ff 	lea    -0x968(%rbp),%rax
    ea27:	48 89 85 10 fb ff ff 	mov    %rax,-0x4f0(%rbp)
    ea2e:	48 8d 85 98 f6 ff ff 	lea    -0x968(%rbp),%rax
    ea35:	48 89 85 18 fb ff ff 	mov    %rax,-0x4e8(%rbp)
    ea3c:	48 8d 85 98 f6 ff ff 	lea    -0x968(%rbp),%rax
    ea43:	48 89 85 20 fb ff ff 	mov    %rax,-0x4e0(%rbp)
    ea4a:	48 8d 85 98 f6 ff ff 	lea    -0x968(%rbp),%rax
    ea51:	48 89 85 28 fb ff ff 	mov    %rax,-0x4d8(%rbp)
    ea58:	48 8d 85 98 f6 ff ff 	lea    -0x968(%rbp),%rax
    ea5f:	48 89 85 30 fb ff ff 	mov    %rax,-0x4d0(%rbp)
    ea66:	48 8d 85 98 f6 ff ff 	lea    -0x968(%rbp),%rax
    ea6d:	48 89 85 38 fb ff ff 	mov    %rax,-0x4c8(%rbp)
    ea74:	48 8d 85 98 f6 ff ff 	lea    -0x968(%rbp),%rax
    ea7b:	48 89 85 40 fb ff ff 	mov    %rax,-0x4c0(%rbp)
    ea82:	48 8d 85 98 f6 ff ff 	lea    -0x968(%rbp),%rax
    ea89:	48 89 85 48 fb ff ff 	mov    %rax,-0x4b8(%rbp)
    ea90:	48 8d 85 98 f6 ff ff 	lea    -0x968(%rbp),%rax
    ea97:	48 89 85 50 fb ff ff 	mov    %rax,-0x4b0(%rbp)
    ea9e:	48 8d 85 98 f6 ff ff 	lea    -0x968(%rbp),%rax
    eaa5:	48 89 85 58 fb ff ff 	mov    %rax,-0x4a8(%rbp)
    eaac:	48 c7 85 60 fb ff ff 	movq   $0x0,-0x4a0(%rbp)
    eab3:	00 00 00 00 
    eab7:	48 8d 85 98 f6 ff ff 	lea    -0x968(%rbp),%rax
    eabe:	48 89 85 68 fb ff ff 	mov    %rax,-0x498(%rbp)
    eac5:	48 8d 85 98 f6 ff ff 	lea    -0x968(%rbp),%rax
    eacc:	48 89 85 70 fb ff ff 	mov    %rax,-0x490(%rbp)
    ead3:	48 c7 85 78 fb ff ff 	movq   $0x0,-0x488(%rbp)
    eada:	00 00 00 00 
    eade:	48 8d 85 98 f6 ff ff 	lea    -0x968(%rbp),%rax
    eae5:	48 89 85 80 fb ff ff 	mov    %rax,-0x480(%rbp)
    eaec:	48 8d 85 98 f6 ff ff 	lea    -0x968(%rbp),%rax
    eaf3:	48 89 85 88 fb ff ff 	mov    %rax,-0x478(%rbp)
    eafa:	48 8d 85 98 f6 ff ff 	lea    -0x968(%rbp),%rax
    eb01:	48 89 85 90 fb ff ff 	mov    %rax,-0x470(%rbp)
    eb08:	48 8d 85 98 f6 ff ff 	lea    -0x968(%rbp),%rax
    eb0f:	48 89 85 98 fb ff ff 	mov    %rax,-0x468(%rbp)
    eb16:	48 8d 85 98 f6 ff ff 	lea    -0x968(%rbp),%rax
    eb1d:	48 89 85 a0 fb ff ff 	mov    %rax,-0x460(%rbp)
    eb24:	48 8d 85 98 f6 ff ff 	lea    -0x968(%rbp),%rax
    eb2b:	48 89 85 a8 fb ff ff 	mov    %rax,-0x458(%rbp)
    eb32:	48 8d 85 98 f6 ff ff 	lea    -0x968(%rbp),%rax
    eb39:	48 89 85 b0 fb ff ff 	mov    %rax,-0x450(%rbp)
    eb40:	48 8d 85 98 f6 ff ff 	lea    -0x968(%rbp),%rax
    eb47:	48 89 85 b8 fb ff ff 	mov    %rax,-0x448(%rbp)
    eb4e:	83 ad e0 f5 ff ff 01 	subl   $0x1,-0xa20(%rbp)
    eb55:	48 8b 05 14 c7 00 00 	mov    0xc714(%rip),%rax        # 1b270 <g_273>
    eb5c:	48 83 c0 01          	add    $0x1,%rax
    eb60:	48 89 05 09 c7 00 00 	mov    %rax,0xc709(%rip)        # 1b270 <g_273>
    eb67:	48 8b 05 02 c7 00 00 	mov    0xc702(%rip),%rax        # 1b270 <g_273>
    eb6e:	48 85 c0             	test   %rax,%rax
    eb71:	0f 84 57 fc ff ff    	je     e7ce <func_9+0x14de>
    eb77:	c6 85 cf f5 ff ff 00 	movb   $0x0,-0xa31(%rbp)
    eb7e:	e9 69 03 00 00       	jmpq   eeec <func_9+0x1bfc>
    eb83:	c7 85 f8 f5 ff ff ff 	movl   $0xffffffff,-0xa08(%rbp)
    eb8a:	ff ff ff 
    eb8d:	c7 85 4c f6 ff ff ff 	movl   $0xffffffff,-0x9b4(%rbp)
    eb94:	ff ff ff 
    eb97:	c7 85 fc f5 ff ff 04 	movl   $0x32f09204,-0xa04(%rbp)
    eb9e:	92 f0 32 
    eba1:	48 8d 05 e0 c6 00 00 	lea    0xc6e0(%rip),%rax        # 1b288 <g_370>
    eba8:	48 89 85 00 fa ff ff 	mov    %rax,-0x600(%rbp)
    ebaf:	48 8d 05 d2 c6 00 00 	lea    0xc6d2(%rip),%rax        # 1b288 <g_370>
    ebb6:	48 89 85 08 fa ff ff 	mov    %rax,-0x5f8(%rbp)
    ebbd:	48 8d 05 c4 c6 00 00 	lea    0xc6c4(%rip),%rax        # 1b288 <g_370>
    ebc4:	48 89 85 10 fa ff ff 	mov    %rax,-0x5f0(%rbp)
    ebcb:	48 8d 05 b6 c6 00 00 	lea    0xc6b6(%rip),%rax        # 1b288 <g_370>
    ebd2:	48 89 85 18 fa ff ff 	mov    %rax,-0x5e8(%rbp)
    ebd9:	48 8d 05 a8 c6 00 00 	lea    0xc6a8(%rip),%rax        # 1b288 <g_370>
    ebe0:	48 89 85 20 fa ff ff 	mov    %rax,-0x5e0(%rbp)
    ebe7:	48 8d 05 9a c6 00 00 	lea    0xc69a(%rip),%rax        # 1b288 <g_370>
    ebee:	48 89 85 28 fa ff ff 	mov    %rax,-0x5d8(%rbp)
    ebf5:	48 8d 05 8c c6 00 00 	lea    0xc68c(%rip),%rax        # 1b288 <g_370>
    ebfc:	48 89 85 30 fa ff ff 	mov    %rax,-0x5d0(%rbp)
    ec03:	48 8d 05 7e c6 00 00 	lea    0xc67e(%rip),%rax        # 1b288 <g_370>
    ec0a:	48 89 85 38 fa ff ff 	mov    %rax,-0x5c8(%rbp)
    ec11:	48 8d 05 70 c6 00 00 	lea    0xc670(%rip),%rax        # 1b288 <g_370>
    ec18:	48 89 85 40 fa ff ff 	mov    %rax,-0x5c0(%rbp)
    ec1f:	48 c7 05 b6 c5 00 00 	movq   $0x3,0xc5b6(%rip)        # 1b1e0 <g_158>
    ec26:	03 00 00 00 
    ec2a:	e9 a6 02 00 00       	jmpq   eed5 <func_9+0x1be5>
    ec2f:	48 c7 85 f0 f7 ff ff 	movq   $0x0,-0x810(%rbp)
    ec36:	00 00 00 00 
    ec3a:	c7 85 50 f6 ff ff 87 	movl   $0x8d927487,-0x9b0(%rbp)
    ec41:	74 92 8d 
    ec44:	c7 85 54 f6 ff ff 00 	movl   $0x0,-0x9ac(%rbp)
    ec4b:	00 00 00 
    ec4e:	c7 85 00 f6 ff ff 00 	movl   $0x0,-0xa00(%rbp)
    ec55:	00 00 00 
    ec58:	eb 1e                	jmp    ec78 <func_9+0x1988>
    ec5a:	8b 85 00 f6 ff ff    	mov    -0xa00(%rbp),%eax
    ec60:	48 98                	cltq   
    ec62:	48 8d 15 87 c5 00 00 	lea    0xc587(%rip),%rdx        # 1b1f0 <g_219>
    ec69:	48 89 94 c5 30 f8 ff 	mov    %rdx,-0x7d0(%rbp,%rax,8)
    ec70:	ff 
    ec71:	83 85 00 f6 ff ff 01 	addl   $0x1,-0xa00(%rbp)
    ec78:	83 bd 00 f6 ff ff 01 	cmpl   $0x1,-0xa00(%rbp)
    ec7f:	7e d9                	jle    ec5a <func_9+0x196a>
    ec81:	0f b6 85 cf f5 ff ff 	movzbl -0xa31(%rbp),%eax
    ec88:	0f be d8             	movsbl %al,%ebx
    ec8b:	48 8b 05 ee da 00 00 	mov    0xdaee(%rip),%rax        # 1c780 <g_429>
    ec92:	48 8b 00             	mov    (%rax),%rax
    ec95:	0f b6 00             	movzbl (%rax),%eax
    ec98:	44 0f b6 e0          	movzbl %al,%r12d
    ec9c:	0f b7 85 a4 f5 ff ff 	movzwl -0xa5c(%rbp),%eax
    eca3:	8d 50 01             	lea    0x1(%rax),%edx
    eca6:	66 89 95 a4 f5 ff ff 	mov    %dx,-0xa5c(%rbp)
    ecad:	0f b7 c0             	movzwl %ax,%eax
    ecb0:	81 8d f8 f5 ff ff e5 	orl    $0x7ce5,-0xa08(%rbp)
    ecb7:	7c 00 00 
    ecba:	39 85 f8 f5 ff ff    	cmp    %eax,-0xa08(%rbp)
    ecc0:	0f 8f e8 00 00 00    	jg     edae <func_9+0x1abe>
    ecc6:	0f b7 05 03 c7 00 00 	movzwl 0xc703(%rip),%eax        # 1b3d0 <g_1087>
    eccd:	44 0f b7 e8          	movzwl %ax,%r13d
    ecd1:	48 8d 05 74 c3 00 00 	lea    0xc374(%rip),%rax        # 1b04c <g_26>
    ecd8:	c7 00 a4 ee 61 8f    	movl   $0x8f61eea4,(%rax)
    ecde:	8b 05 e4 c6 00 00    	mov    0xc6e4(%rip),%eax        # 1b3c8 <g_975>
    ece4:	48 8b 85 b8 f5 ff ff 	mov    -0xa48(%rbp),%rax
    eceb:	0f b6 00             	movzbl (%rax),%eax
    ecee:	0f be c0             	movsbl %al,%eax
    ecf1:	be f4 ff ff ff       	mov    $0xfffffff4,%esi
    ecf6:	89 c7                	mov    %eax,%edi
    ecf8:	e8 d7 64 ff ff       	callq  51d4 <safe_add_func_int8_t_s_s>
    ecfd:	0f be c0             	movsbl %al,%eax
    ed00:	be 34 00 00 00       	mov    $0x34,%esi
    ed05:	89 c7                	mov    %eax,%edi
    ed07:	e8 06 65 ff ff       	callq  5212 <safe_mul_func_int8_t_s_s>
    ed0c:	3c ff                	cmp    $0xff,%al
    ed0e:	74 13                	je     ed23 <func_9+0x1a33>
    ed10:	0f b7 85 b4 f5 ff ff 	movzwl -0xa4c(%rbp),%eax
    ed17:	66 85 c0             	test   %ax,%ax
    ed1a:	74 07                	je     ed23 <func_9+0x1a33>
    ed1c:	b8 01 00 00 00       	mov    $0x1,%eax
    ed21:	eb 05                	jmp    ed28 <func_9+0x1a38>
    ed23:	b8 00 00 00 00       	mov    $0x0,%eax
    ed28:	98                   	cwtl   
    ed29:	8b 95 f8 f5 ff ff    	mov    -0xa08(%rbp),%edx
    ed2f:	89 d6                	mov    %edx,%esi
    ed31:	89 c7                	mov    %eax,%edi
    ed33:	e8 5a 67 ff ff       	callq  5492 <safe_lshift_func_int16_t_s_s>
    ed38:	8b 85 50 f6 ff ff    	mov    -0x9b0(%rbp),%eax
    ed3e:	0f be c0             	movsbl %al,%eax
    ed41:	be 04 00 00 00       	mov    $0x4,%esi
    ed46:	89 c7                	mov    %eax,%edi
    ed48:	e8 1f 66 ff ff       	callq  536c <safe_rshift_func_int8_t_s_u>
    ed4d:	3c 01                	cmp    $0x1,%al
    ed4f:	7e 07                	jle    ed58 <func_9+0x1a68>
    ed51:	ba 40 7b 00 00       	mov    $0x7b40,%edx
    ed56:	eb 05                	jmp    ed5d <func_9+0x1a6d>
    ed58:	ba 41 7b 00 00       	mov    $0x7b41,%edx
    ed5d:	8b 85 f0 f5 ff ff    	mov    -0xa10(%rbp),%eax
    ed63:	48 98                	cltq   
    ed65:	48 39 c2             	cmp    %rax,%rdx
    ed68:	0f 9c c0             	setl   %al
    ed6b:	0f b6 d0             	movzbl %al,%edx
    ed6e:	0f b6 45 c7          	movzbl -0x39(%rbp),%eax
    ed72:	0f b6 c0             	movzbl %al,%eax
    ed75:	39 c2                	cmp    %eax,%edx
    ed77:	0f 9d c2             	setge  %dl
    ed7a:	48 8d 05 cb c2 00 00 	lea    0xc2cb(%rip),%rax        # 1b04c <g_26>
    ed81:	0f b6 d2             	movzbl %dl,%edx
    ed84:	89 10                	mov    %edx,(%rax)
    ed86:	8b 00                	mov    (%rax),%eax
    ed88:	85 c0                	test   %eax,%eax
    ed8a:	74 07                	je     ed93 <func_9+0x1aa3>
    ed8c:	b8 01 00 00 00       	mov    $0x1,%eax
    ed91:	eb 05                	jmp    ed98 <func_9+0x1aa8>
    ed93:	b8 00 00 00 00       	mov    $0x0,%eax
    ed98:	44 21 e8             	and    %r13d,%eax
    ed9b:	89 c2                	mov    %eax,%edx
    ed9d:	8b 05 75 ec 00 00    	mov    0xec75(%rip),%eax        # 1da18 <g_1247>
    eda3:	39 c2                	cmp    %eax,%edx
    eda5:	74 07                	je     edae <func_9+0x1abe>
    eda7:	b8 01 00 00 00       	mov    $0x1,%eax
    edac:	eb 05                	jmp    edb3 <func_9+0x1ac3>
    edae:	b8 00 00 00 00       	mov    $0x0,%eax
    edb3:	48 98                	cltq   
    edb5:	c7 85 b0 fd ff ff 04 	movl   $0x4,-0x250(%rbp)
    edbc:	00 00 00 
    edbf:	48 89 c6             	mov    %rax,%rsi
    edc2:	bf 04 00 00 00       	mov    $0x4,%edi
    edc7:	e8 2b 6c ff ff       	callq  59f7 <safe_div_func_int64_t_s_s>
    edcc:	0f b7 15 b5 c4 00 00 	movzwl 0xc4b5(%rip),%edx        # 1b288 <g_370>
    edd3:	48 0f bf d2          	movswq %dx,%rdx
    edd7:	48 39 d0             	cmp    %rdx,%rax
    edda:	0f 9d c0             	setge  %al
    eddd:	0f b6 c0             	movzbl %al,%eax
    ede0:	44 89 e6             	mov    %r12d,%esi
    ede3:	89 c7                	mov    %eax,%edi
    ede5:	e8 70 6d ff ff       	callq  5b5a <safe_add_func_uint8_t_u_u>
    edea:	48 8b 05 2f ec 00 00 	mov    0xec2f(%rip),%rax        # 1da20 <g_1248>
    edf1:	48 8d 05 28 db 00 00 	lea    0xdb28(%rip),%rax        # 1c920 <g_427>
    edf8:	48 39 85 f0 f7 ff ff 	cmp    %rax,-0x810(%rbp)
    edff:	0f 95 c0             	setne  %al
    ee02:	0f b6 c0             	movzbl %al,%eax
    ee05:	89 de                	mov    %ebx,%esi
    ee07:	89 c7                	mov    %eax,%edi
    ee09:	e8 e4 63 ff ff       	callq  51f2 <safe_sub_func_int8_t_s_s>
    ee0e:	84 c0                	test   %al,%al
    ee10:	74 5c                	je     ee6e <func_9+0x1b7e>
    ee12:	c7 85 04 f6 ff ff 00 	movl   $0x0,-0x9fc(%rbp)
    ee19:	00 00 00 
    ee1c:	eb 22                	jmp    ee40 <func_9+0x1b50>
    ee1e:	8b 85 04 f6 ff ff    	mov    -0x9fc(%rbp),%eax
    ee24:	48 98                	cltq   
    ee26:	48 8d 95 60 f8 ff ff 	lea    -0x7a0(%rbp),%rdx
    ee2d:	48 83 c2 04          	add    $0x4,%rdx
    ee31:	48 89 94 c5 10 f9 ff 	mov    %rdx,-0x6f0(%rbp,%rax,8)
    ee38:	ff 
    ee39:	83 85 04 f6 ff ff 01 	addl   $0x1,-0x9fc(%rbp)
    ee40:	83 bd 04 f6 ff ff 01 	cmpl   $0x1,-0x9fc(%rbp)
    ee47:	7e d5                	jle    ee1e <func_9+0x1b2e>
    ee49:	83 85 fc f5 ff ff 01 	addl   $0x1,-0xa04(%rbp)
    ee50:	48 8b 05 91 dc 00 00 	mov    0xdc91(%rip),%rax        # 1cae8 <g_1255>
    ee57:	48 89 05 8a dc 00 00 	mov    %rax,0xdc8a(%rip)        # 1cae8 <g_1255>
    ee5e:	48 8b 05 83 dc 00 00 	mov    0xdc83(%rip),%rax        # 1cae8 <g_1255>
    ee65:	48 89 85 d0 f7 ff ff 	mov    %rax,-0x830(%rbp)
    ee6c:	eb 2a                	jmp    ee98 <func_9+0x1ba8>
    ee6e:	48 c7 85 f8 f7 ff ff 	movq   $0x0,-0x808(%rbp)
    ee75:	00 00 00 00 
    ee79:	48 8d 05 78 dc 00 00 	lea    0xdc78(%rip),%rax        # 1caf8 <g_1259>
    ee80:	48 89 85 00 f8 ff ff 	mov    %rax,-0x800(%rbp)
    ee87:	48 8b 15 6a dc 00 00 	mov    0xdc6a(%rip),%rdx        # 1caf8 <g_1259>
    ee8e:	48 8b 85 00 f8 ff ff 	mov    -0x800(%rbp),%rax
    ee95:	48 89 10             	mov    %rdx,(%rax)
    ee98:	48 8b 05 49 d8 00 00 	mov    0xd849(%rip),%rax        # 1c6e8 <g_135>
    ee9f:	8b 08                	mov    (%rax),%ecx
    eea1:	48 8b 95 18 fa ff ff 	mov    -0x5e8(%rbp),%rdx
    eea8:	48 8d 85 b4 f5 ff ff 	lea    -0xa4c(%rbp),%rax
    eeaf:	48 39 c2             	cmp    %rax,%rdx
    eeb2:	0f 94 c0             	sete   %al
    eeb5:	0f b6 d0             	movzbl %al,%edx
    eeb8:	48 8b 05 29 d8 00 00 	mov    0xd829(%rip),%rax        # 1c6e8 <g_135>
    eebf:	31 ca                	xor    %ecx,%edx
    eec1:	89 10                	mov    %edx,(%rax)
    eec3:	48 8b 05 16 c3 00 00 	mov    0xc316(%rip),%rax        # 1b1e0 <g_158>
    eeca:	48 83 e8 01          	sub    $0x1,%rax
    eece:	48 89 05 0b c3 00 00 	mov    %rax,0xc30b(%rip)        # 1b1e0 <g_158>
    eed5:	48 8b 05 04 c3 00 00 	mov    0xc304(%rip),%rax        # 1b1e0 <g_158>
    eedc:	48 85 c0             	test   %rax,%rax
    eedf:	0f 89 4a fd ff ff    	jns    ec2f <func_9+0x193f>
    eee5:	80 85 cf f5 ff ff 01 	addb   $0x1,-0xa31(%rbp)
    eeec:	80 bd cf f5 ff ff 03 	cmpb   $0x3,-0xa31(%rbp)
    eef3:	0f 86 8a fc ff ff    	jbe    eb83 <func_9+0x1893>
    eef9:	0f b7 05 98 c4 00 00 	movzwl 0xc498(%rip),%eax        # 1b398 <g_461>
    ef00:	83 c0 01             	add    $0x1,%eax
    ef03:	66 89 05 8e c4 00 00 	mov    %ax,0xc48e(%rip)        # 1b398 <g_461>
    ef0a:	0f b7 05 87 c4 00 00 	movzwl 0xc487(%rip),%eax        # 1b398 <g_461>
    ef11:	66 83 f8 03          	cmp    $0x3,%ax
    ef15:	0f 86 5d f3 ff ff    	jbe    e278 <func_9+0xf88>
    ef1b:	48 8b 05 8e c4 00 00 	mov    0xc48e(%rip),%rax        # 1b3b0 <g_922>
    ef22:	48 83 c0 01          	add    $0x1,%rax
    ef26:	48 89 05 83 c4 00 00 	mov    %rax,0xc483(%rip)        # 1b3b0 <g_922>
    ef2d:	48 8b 05 7c c4 00 00 	mov    0xc47c(%rip),%rax        # 1b3b0 <g_922>
    ef34:	48 83 f8 06          	cmp    $0x6,%rax
    ef38:	0f 8f bf f2 ff ff    	jg     e1fd <func_9+0xf0d>
    ef3e:	48 8b 85 20 f8 ff ff 	mov    -0x7e0(%rbp),%rax
    ef45:	48 83 c0 01          	add    $0x1,%rax
    ef49:	48 89 85 20 f8 ff ff 	mov    %rax,-0x7e0(%rbp)
    ef50:	48 8b 05 d1 d7 00 00 	mov    0xd7d1(%rip),%rax        # 1c728 <g_343>
    ef57:	48 8b 00             	mov    (%rax),%rax
    ef5a:	48 8b 5d c8          	mov    -0x38(%rbp),%rbx
    ef5e:	64 48 33 1c 25 28 00 	xor    %fs:0x28,%rbx
    ef65:	00 00 
    ef67:	74 05                	je     ef6e <func_9+0x1c7e>
    ef69:	e8 02 61 ff ff       	callq  5070 <__stack_chk_fail@plt>
    ef6e:	48 81 c4 38 0a 00 00 	add    $0xa38,%rsp
    ef75:	5b                   	pop    %rbx
    ef76:	41 5c                	pop    %r12
    ef78:	41 5d                	pop    %r13
    ef7a:	41 5e                	pop    %r14
    ef7c:	41 5f                	pop    %r15
    ef7e:	5d                   	pop    %rbp
    ef7f:	c3                   	retq   

000000000000ef80 <func_16>:
    ef80:	f3 0f 1e fa          	endbr64 
    ef84:	55                   	push   %rbp
    ef85:	48 89 e5             	mov    %rsp,%rbp
    ef88:	53                   	push   %rbx
    ef89:	48 81 ec 08 02 00 00 	sub    $0x208,%rsp
    ef90:	89 f0                	mov    %esi,%eax
    ef92:	48 89 95 00 fe ff ff 	mov    %rdx,-0x200(%rbp)
    ef99:	89 8d fc fd ff ff    	mov    %ecx,-0x204(%rbp)
    ef9f:	89 fa                	mov    %edi,%edx
    efa1:	88 95 0c fe ff ff    	mov    %dl,-0x1f4(%rbp)
    efa7:	66 89 85 08 fe ff ff 	mov    %ax,-0x1f8(%rbp)
    efae:	64 48 8b 04 25 28 00 	mov    %fs:0x28,%rax
    efb5:	00 00 
    efb7:	48 89 45 e8          	mov    %rax,-0x18(%rbp)
    efbb:	31 c0                	xor    %eax,%eax
    efbd:	c7 85 24 fe ff ff d4 	movl   $0xb6bd0d4,-0x1dc(%rbp)
    efc4:	d0 6b 0b 
    efc7:	48 8d 05 6a c0 00 00 	lea    0xc06a(%rip),%rax        # 1b038 <g_23+0x8>
    efce:	48 89 85 28 fe ff ff 	mov    %rax,-0x1d8(%rbp)
    efd5:	48 8d 85 28 fe ff ff 	lea    -0x1d8(%rbp),%rax
    efdc:	48 89 85 38 fe ff ff 	mov    %rax,-0x1c8(%rbp)
    efe3:	48 8d 05 6e c0 00 00 	lea    0xc06e(%rip),%rax        # 1b058 <g_84>
    efea:	48 89 85 20 ff ff ff 	mov    %rax,-0xe0(%rbp)
    eff1:	48 8d 05 60 c0 00 00 	lea    0xc060(%rip),%rax        # 1b058 <g_84>
    eff8:	48 89 85 28 ff ff ff 	mov    %rax,-0xd8(%rbp)
    efff:	48 8d 05 52 c0 00 00 	lea    0xc052(%rip),%rax        # 1b058 <g_84>
    f006:	48 89 85 30 ff ff ff 	mov    %rax,-0xd0(%rbp)
    f00d:	48 8d 05 44 c0 00 00 	lea    0xc044(%rip),%rax        # 1b058 <g_84>
    f014:	48 89 85 38 ff ff ff 	mov    %rax,-0xc8(%rbp)
    f01b:	48 8d 05 36 c0 00 00 	lea    0xc036(%rip),%rax        # 1b058 <g_84>
    f022:	48 89 85 40 ff ff ff 	mov    %rax,-0xc0(%rbp)
    f029:	48 8d 05 28 c0 00 00 	lea    0xc028(%rip),%rax        # 1b058 <g_84>
    f030:	48 89 85 48 ff ff ff 	mov    %rax,-0xb8(%rbp)
    f037:	48 8d 05 1a c0 00 00 	lea    0xc01a(%rip),%rax        # 1b058 <g_84>
    f03e:	48 89 85 50 ff ff ff 	mov    %rax,-0xb0(%rbp)
    f045:	48 8d 05 0c c0 00 00 	lea    0xc00c(%rip),%rax        # 1b058 <g_84>
    f04c:	48 89 85 58 ff ff ff 	mov    %rax,-0xa8(%rbp)
    f053:	48 8d 05 fe bf 00 00 	lea    0xbffe(%rip),%rax        # 1b058 <g_84>
    f05a:	48 89 85 60 ff ff ff 	mov    %rax,-0xa0(%rbp)
    f061:	48 8d 05 f0 bf 00 00 	lea    0xbff0(%rip),%rax        # 1b058 <g_84>
    f068:	48 89 85 68 ff ff ff 	mov    %rax,-0x98(%rbp)
    f06f:	48 8d 05 e2 bf 00 00 	lea    0xbfe2(%rip),%rax        # 1b058 <g_84>
    f076:	48 89 85 70 ff ff ff 	mov    %rax,-0x90(%rbp)
    f07d:	48 8d 05 d4 bf 00 00 	lea    0xbfd4(%rip),%rax        # 1b058 <g_84>
    f084:	48 89 85 78 ff ff ff 	mov    %rax,-0x88(%rbp)
    f08b:	48 8d 05 c6 bf 00 00 	lea    0xbfc6(%rip),%rax        # 1b058 <g_84>
    f092:	48 89 45 80          	mov    %rax,-0x80(%rbp)
    f096:	48 8d 05 bb bf 00 00 	lea    0xbfbb(%rip),%rax        # 1b058 <g_84>
    f09d:	48 89 45 88          	mov    %rax,-0x78(%rbp)
    f0a1:	48 8d 05 b0 bf 00 00 	lea    0xbfb0(%rip),%rax        # 1b058 <g_84>
    f0a8:	48 89 45 90          	mov    %rax,-0x70(%rbp)
    f0ac:	48 8d 05 a5 bf 00 00 	lea    0xbfa5(%rip),%rax        # 1b058 <g_84>
    f0b3:	48 89 45 98          	mov    %rax,-0x68(%rbp)
    f0b7:	48 8d 05 9a bf 00 00 	lea    0xbf9a(%rip),%rax        # 1b058 <g_84>
    f0be:	48 89 45 a0          	mov    %rax,-0x60(%rbp)
    f0c2:	48 8d 05 8f bf 00 00 	lea    0xbf8f(%rip),%rax        # 1b058 <g_84>
    f0c9:	48 89 45 a8          	mov    %rax,-0x58(%rbp)
    f0cd:	48 8d 05 84 bf 00 00 	lea    0xbf84(%rip),%rax        # 1b058 <g_84>
    f0d4:	48 89 45 b0          	mov    %rax,-0x50(%rbp)
    f0d8:	48 8d 05 79 bf 00 00 	lea    0xbf79(%rip),%rax        # 1b058 <g_84>
    f0df:	48 89 45 b8          	mov    %rax,-0x48(%rbp)
    f0e3:	48 8d 05 6e bf 00 00 	lea    0xbf6e(%rip),%rax        # 1b058 <g_84>
    f0ea:	48 89 45 c0          	mov    %rax,-0x40(%rbp)
    f0ee:	48 8d 05 63 bf 00 00 	lea    0xbf63(%rip),%rax        # 1b058 <g_84>
    f0f5:	48 89 45 c8          	mov    %rax,-0x38(%rbp)
    f0f9:	48 8d 05 58 bf 00 00 	lea    0xbf58(%rip),%rax        # 1b058 <g_84>
    f100:	48 89 45 d0          	mov    %rax,-0x30(%rbp)
    f104:	48 8d 05 4d bf 00 00 	lea    0xbf4d(%rip),%rax        # 1b058 <g_84>
    f10b:	48 89 45 d8          	mov    %rax,-0x28(%rbp)
    f10f:	48 8d 05 6a c1 00 00 	lea    0xc16a(%rip),%rax        # 1b280 <g_346>
    f116:	48 89 85 40 fe ff ff 	mov    %rax,-0x1c0(%rbp)
    f11d:	48 c7 85 48 fe ff ff 	movq   $0x0,-0x1b8(%rbp)
    f124:	00 00 00 00 
    f128:	48 8d 05 09 d6 00 00 	lea    0xd609(%rip),%rax        # 1c738 <g_372+0x8>
    f12f:	48 89 85 50 fe ff ff 	mov    %rax,-0x1b0(%rbp)
    f136:	48 c7 85 58 fe ff ff 	movq   $0x0,-0x1a8(%rbp)
    f13d:	00 00 00 00 
    f141:	c7 85 1c fe ff ff 00 	movl   $0x0,-0x1e4(%rbp)
    f148:	00 00 00 
    f14b:	eb 22                	jmp    f16f <func_16+0x1ef>
    f14d:	8b 85 1c fe ff ff    	mov    -0x1e4(%rbp),%eax
    f153:	48 98                	cltq   
    f155:	48 8d 95 20 ff ff ff 	lea    -0xe0(%rbp),%rdx
    f15c:	48 83 c2 10          	add    $0x10,%rdx
    f160:	48 89 94 c5 70 fe ff 	mov    %rdx,-0x190(%rbp,%rax,8)
    f167:	ff 
    f168:	83 85 1c fe ff ff 01 	addl   $0x1,-0x1e4(%rbp)
    f16f:	83 bd 1c fe ff ff 02 	cmpl   $0x2,-0x1e4(%rbp)
    f176:	7e d5                	jle    f14d <func_16+0x1cd>
    f178:	c7 05 ca be 00 00 00 	movl   $0x0,0xbeca(%rip)        # 1b04c <g_26>
    f17f:	00 00 00 
    f182:	e9 f1 00 00 00       	jmpq   f278 <func_16+0x2f8>
    f187:	c6 85 1b fe ff ff d4 	movb   $0xd4,-0x1e5(%rbp)
    f18e:	48 8d 05 bf 6e 00 00 	lea    0x6ebf(%rip),%rax        # 16054 <g_289>
    f195:	48 89 85 30 fe ff ff 	mov    %rax,-0x1d0(%rbp)
    f19c:	48 8d 85 30 fe ff ff 	lea    -0x1d0(%rbp),%rax
    f1a3:	48 89 85 90 fe ff ff 	mov    %rax,-0x170(%rbp)
    f1aa:	48 8d 85 30 fe ff ff 	lea    -0x1d0(%rbp),%rax
    f1b1:	48 89 85 98 fe ff ff 	mov    %rax,-0x168(%rbp)
    f1b8:	48 8d 85 30 fe ff ff 	lea    -0x1d0(%rbp),%rax
    f1bf:	48 89 85 a0 fe ff ff 	mov    %rax,-0x160(%rbp)
    f1c6:	48 8d 85 30 fe ff ff 	lea    -0x1d0(%rbp),%rax
    f1cd:	48 89 85 a8 fe ff ff 	mov    %rax,-0x158(%rbp)
    f1d4:	48 8d 85 30 fe ff ff 	lea    -0x1d0(%rbp),%rax
    f1db:	48 89 85 b0 fe ff ff 	mov    %rax,-0x150(%rbp)
    f1e2:	48 8d 05 ff d4 00 00 	lea    0xd4ff(%rip),%rax        # 1c6e8 <g_135>
    f1e9:	48 89 85 60 fe ff ff 	mov    %rax,-0x1a0(%rbp)
    f1f0:	48 8d 05 a1 c1 00 00 	lea    0xc1a1(%rip),%rax        # 1b398 <g_461>
    f1f7:	48 89 85 68 fe ff ff 	mov    %rax,-0x198(%rbp)
    f1fe:	c7 85 20 fe ff ff 00 	movl   $0x0,-0x1e0(%rbp)
    f205:	00 00 00 
    f208:	eb 1b                	jmp    f225 <func_16+0x2a5>
    f20a:	8b 85 20 fe ff ff    	mov    -0x1e0(%rbp),%eax
    f210:	48 98                	cltq   
    f212:	48 c7 84 c5 f0 fe ff 	movq   $0x0,-0x110(%rbp,%rax,8)
    f219:	ff 00 00 00 00 
    f21e:	83 85 20 fe ff ff 01 	addl   $0x1,-0x1e0(%rbp)
    f225:	83 bd 20 fe ff ff 05 	cmpl   $0x5,-0x1e0(%rbp)
    f22c:	7e dc                	jle    f20a <func_16+0x28a>
    f22e:	c7 85 20 fe ff ff 00 	movl   $0x0,-0x1e0(%rbp)
    f235:	00 00 00 
    f238:	eb 1a                	jmp    f254 <func_16+0x2d4>
    f23a:	8b 85 20 fe ff ff    	mov    -0x1e0(%rbp),%eax
    f240:	48 98                	cltq   
    f242:	c7 84 85 c0 fe ff ff 	movl   $0xfffffffc,-0x140(%rbp,%rax,4)
    f249:	fc ff ff ff 
    f24d:	83 85 20 fe ff ff 01 	addl   $0x1,-0x1e0(%rbp)
    f254:	83 bd 20 fe ff ff 09 	cmpl   $0x9,-0x1e0(%rbp)
    f25b:	7e dd                	jle    f23a <func_16+0x2ba>
    f25d:	8b 05 e9 bd 00 00    	mov    0xbde9(%rip),%eax        # 1b04c <g_26>
    f263:	48 98                	cltq   
    f265:	be 07 00 00 00       	mov    $0x7,%esi
    f26a:	48 89 c7             	mov    %rax,%rdi
    f26d:	e8 36 66 ff ff       	callq  58a8 <safe_sub_func_int64_t_s_s>
    f272:	89 05 d4 bd 00 00    	mov    %eax,0xbdd4(%rip)        # 1b04c <g_26>
    f278:	8b 05 ce bd 00 00    	mov    0xbdce(%rip),%eax        # 1b04c <g_26>
    f27e:	83 f8 f2             	cmp    $0xfffffff2,%eax
    f281:	0f 84 00 ff ff ff    	je     f187 <func_16+0x207>
    f287:	48 8b 85 50 fe ff ff 	mov    -0x1b0(%rbp),%rax
    f28e:	48 8d 95 fc fd ff ff 	lea    -0x204(%rbp),%rdx
    f295:	48 89 10             	mov    %rdx,(%rax)
    f298:	48 8b 15 89 d4 00 00 	mov    0xd489(%rip),%rdx        # 1c728 <g_343>
    f29f:	48 8b 05 82 d4 00 00 	mov    0xd482(%rip),%rax        # 1c728 <g_343>
    f2a6:	48 8b 12             	mov    (%rdx),%rdx
    f2a9:	48 89 10             	mov    %rdx,(%rax)
    f2ac:	48 8b 05 2d d4 00 00 	mov    0xd42d(%rip),%rax        # 1c6e0 <g_117>
    f2b3:	8b 00                	mov    (%rax),%eax
    f2b5:	83 f8 03             	cmp    $0x3,%eax
    f2b8:	0f 9e c0             	setle  %al
    f2bb:	0f b6 d8             	movzbl %al,%ebx
    f2be:	0f b6 85 0c fe ff ff 	movzbl -0x1f4(%rbp),%eax
    f2c5:	be 06 00 00 00       	mov    $0x6,%esi
    f2ca:	89 c7                	mov    %eax,%edi
    f2cc:	e8 7b 69 ff ff       	callq  5c4c <safe_lshift_func_uint8_t_u_u>
    f2d1:	0f b6 c0             	movzbl %al,%eax
    f2d4:	89 de                	mov    %ebx,%esi
    f2d6:	89 c7                	mov    %eax,%edi
    f2d8:	e8 28 63 ff ff       	callq  5605 <safe_sub_func_int32_t_s_s>
    f2dd:	83 f8 01             	cmp    $0x1,%eax
    f2e0:	0f 94 c0             	sete   %al
    f2e3:	48 8d 15 62 bd 00 00 	lea    0xbd62(%rip),%rdx        # 1b04c <g_26>
    f2ea:	0f b6 c0             	movzbl %al,%eax
    f2ed:	89 02                	mov    %eax,(%rdx)
    f2ef:	48 8b 05 e2 d3 00 00 	mov    0xd3e2(%rip),%rax        # 1c6d8 <g_93>
    f2f6:	8b 00                	mov    (%rax),%eax
    f2f8:	48 8b 4d e8          	mov    -0x18(%rbp),%rcx
    f2fc:	64 48 33 0c 25 28 00 	xor    %fs:0x28,%rcx
    f303:	00 00 
    f305:	74 05                	je     f30c <func_16+0x38c>
    f307:	e8 64 5d ff ff       	callq  5070 <__stack_chk_fail@plt>
    f30c:	48 81 c4 08 02 00 00 	add    $0x208,%rsp
    f313:	5b                   	pop    %rbx
    f314:	5d                   	pop    %rbp
    f315:	c3                   	retq   

000000000000f316 <func_31>:
    f316:	f3 0f 1e fa          	endbr64 
    f31a:	55                   	push   %rbp
    f31b:	48 89 e5             	mov    %rsp,%rbp
    f31e:	41 54                	push   %r12
    f320:	53                   	push   %rbx
    f321:	48 81 ec 30 02 00 00 	sub    $0x230,%rsp
    f328:	48 89 b5 d0 fd ff ff 	mov    %rsi,-0x230(%rbp)
    f32f:	89 d0                	mov    %edx,%eax
    f331:	48 89 8d c8 fd ff ff 	mov    %rcx,-0x238(%rbp)
    f338:	44 89 85 c4 fd ff ff 	mov    %r8d,-0x23c(%rbp)
    f33f:	89 fa                	mov    %edi,%edx
    f341:	66 89 95 dc fd ff ff 	mov    %dx,-0x224(%rbp)
    f348:	66 89 85 d8 fd ff ff 	mov    %ax,-0x228(%rbp)
    f34f:	64 48 8b 04 25 28 00 	mov    %fs:0x28,%rax
    f356:	00 00 
    f358:	48 89 45 e8          	mov    %rax,-0x18(%rbp)
    f35c:	31 c0                	xor    %eax,%eax
    f35e:	48 8d 05 2b d7 00 00 	lea    0xd72b(%rip),%rax        # 1ca90 <g_803>
    f365:	48 89 85 10 fe ff ff 	mov    %rax,-0x1f0(%rbp)
    f36c:	48 8d 85 10 fe ff ff 	lea    -0x1f0(%rbp),%rax
    f373:	48 89 85 18 fe ff ff 	mov    %rax,-0x1e8(%rbp)
    f37a:	48 8d 05 67 d3 00 00 	lea    0xd367(%rip),%rax        # 1c6e8 <g_135>
    f381:	48 89 85 28 fe ff ff 	mov    %rax,-0x1d8(%rbp)
    f388:	c7 85 ec fd ff ff 35 	movl   $0x2854ab35,-0x214(%rbp)
    f38f:	ab 54 28 
    f392:	48 c7 85 30 fe ff ff 	movq   $0x0,-0x1d0(%rbp)
    f399:	00 00 00 00 
    f39d:	48 b8 8b 9d 60 aa aa 	movabs $0x5b1a29aaaa609d8b,%rax
    f3a4:	29 1a 5b 
    f3a7:	48 89 85 38 fe ff ff 	mov    %rax,-0x1c8(%rbp)
    f3ae:	c7 85 f0 fd ff ff ef 	movl   $0xfae925ef,-0x210(%rbp)
    f3b5:	25 e9 fa 
    f3b8:	c7 85 00 fe ff ff 07 	movl   $0x7,-0x200(%rbp)
    f3bf:	00 00 00 
    f3c2:	48 8d 05 8f bc 00 00 	lea    0xbc8f(%rip),%rax        # 1b058 <g_84>
    f3c9:	48 89 85 40 fe ff ff 	mov    %rax,-0x1c0(%rbp)
    f3d0:	48 8d 85 f0 fd ff ff 	lea    -0x210(%rbp),%rax
    f3d7:	48 89 85 48 fe ff ff 	mov    %rax,-0x1b8(%rbp)
    f3de:	48 8d 05 73 bc 00 00 	lea    0xbc73(%rip),%rax        # 1b058 <g_84>
    f3e5:	48 89 85 50 fe ff ff 	mov    %rax,-0x1b0(%rbp)
    f3ec:	48 8d 85 f0 fd ff ff 	lea    -0x210(%rbp),%rax
    f3f3:	48 89 85 58 fe ff ff 	mov    %rax,-0x1a8(%rbp)
    f3fa:	48 8d 05 5b bc 00 00 	lea    0xbc5b(%rip),%rax        # 1b05c <g_84+0x4>
    f401:	48 89 85 60 fe ff ff 	mov    %rax,-0x1a0(%rbp)
    f408:	48 8d 05 b9 bd 00 00 	lea    0xbdb9(%rip),%rax        # 1b1c8 <g_94>
    f40f:	48 89 85 68 fe ff ff 	mov    %rax,-0x198(%rbp)
    f416:	48 8d 05 3f bc 00 00 	lea    0xbc3f(%rip),%rax        # 1b05c <g_84+0x4>
    f41d:	48 89 85 40 ff ff ff 	mov    %rax,-0xc0(%rbp)
    f424:	48 8d 85 ec fd ff ff 	lea    -0x214(%rbp),%rax
    f42b:	48 89 85 48 ff ff ff 	mov    %rax,-0xb8(%rbp)
    f432:	48 8d 05 23 bc 00 00 	lea    0xbc23(%rip),%rax        # 1b05c <g_84+0x4>
    f439:	48 89 85 50 ff ff ff 	mov    %rax,-0xb0(%rbp)
    f440:	48 8d 85 ec fd ff ff 	lea    -0x214(%rbp),%rax
    f447:	48 89 85 58 ff ff ff 	mov    %rax,-0xa8(%rbp)
    f44e:	48 8d 05 07 bc 00 00 	lea    0xbc07(%rip),%rax        # 1b05c <g_84+0x4>
    f455:	48 89 85 60 ff ff ff 	mov    %rax,-0xa0(%rbp)
    f45c:	48 8d 85 ec fd ff ff 	lea    -0x214(%rbp),%rax
    f463:	48 89 85 68 ff ff ff 	mov    %rax,-0x98(%rbp)
    f46a:	48 8d 05 eb bb 00 00 	lea    0xbbeb(%rip),%rax        # 1b05c <g_84+0x4>
    f471:	48 89 85 70 ff ff ff 	mov    %rax,-0x90(%rbp)
    f478:	48 8d 85 ec fd ff ff 	lea    -0x214(%rbp),%rax
    f47f:	48 89 85 78 ff ff ff 	mov    %rax,-0x88(%rbp)
    f486:	48 8d 05 cf bb 00 00 	lea    0xbbcf(%rip),%rax        # 1b05c <g_84+0x4>
    f48d:	48 89 45 80          	mov    %rax,-0x80(%rbp)
    f491:	48 c7 85 70 fe ff ff 	movq   $0x0,-0x190(%rbp)
    f498:	00 00 00 00 
    f49c:	c7 85 f4 fd ff ff 00 	movl   $0x0,-0x20c(%rbp)
    f4a3:	00 00 00 
    f4a6:	eb 1b                	jmp    f4c3 <func_31+0x1ad>
    f4a8:	8b 85 f4 fd ff ff    	mov    -0x20c(%rbp),%eax
    f4ae:	48 98                	cltq   
    f4b0:	48 8d 95 18 fe ff ff 	lea    -0x1e8(%rbp),%rdx
    f4b7:	48 89 54 c5 90       	mov    %rdx,-0x70(%rbp,%rax,8)
    f4bc:	83 85 f4 fd ff ff 01 	addl   $0x1,-0x20c(%rbp)
    f4c3:	83 bd f4 fd ff ff 09 	cmpl   $0x9,-0x20c(%rbp)
    f4ca:	7e dc                	jle    f4a8 <func_31+0x192>
    f4cc:	48 8b 05 d5 d5 00 00 	mov    0xd5d5(%rip),%rax        # 1caa8 <g_845>
    f4d3:	48 8d 15 b6 be 00 00 	lea    0xbeb6(%rip),%rdx        # 1b390 <g_437>
    f4da:	48 89 10             	mov    %rdx,(%rax)
    f4dd:	48 8b 05 e4 d1 00 00 	mov    0xd1e4(%rip),%rax        # 1c6c8 <g_55>
    f4e4:	0f b6 00             	movzbl (%rax),%eax
    f4e7:	0f b6 c0             	movzbl %al,%eax
    f4ea:	be 04 00 00 00       	mov    $0x4,%esi
    f4ef:	89 c7                	mov    %eax,%edi
    f4f1:	e8 c8 67 ff ff       	callq  5cbe <safe_rshift_func_uint8_t_u_u>
    f4f6:	84 c0                	test   %al,%al
    f4f8:	0f 84 0c 07 00 00    	je     fc0a <func_31+0x8f4>
    f4fe:	48 8d 85 18 fe ff ff 	lea    -0x1e8(%rbp),%rax
    f505:	48 89 85 80 fe ff ff 	mov    %rax,-0x180(%rbp)
    f50c:	c7 85 04 fe ff ff a1 	movl   $0xb278b4a1,-0x1fc(%rbp)
    f513:	b4 78 b2 
    f516:	48 8d 05 ab bc 00 00 	lea    0xbcab(%rip),%rax        # 1b1c8 <g_94>
    f51d:	48 89 85 88 fe ff ff 	mov    %rax,-0x178(%rbp)
    f524:	c7 85 b0 fe ff ff f6 	movl   $0xf7fafdf6,-0x150(%rbp)
    f52b:	fd fa f7 
    f52e:	c7 85 b4 fe ff ff f6 	movl   $0xf7fafdf6,-0x14c(%rbp)
    f535:	fd fa f7 
    f538:	c7 85 b8 fe ff ff f6 	movl   $0xf7fafdf6,-0x148(%rbp)
    f53f:	fd fa f7 
    f542:	c7 85 bc fe ff ff f6 	movl   $0xf7fafdf6,-0x144(%rbp)
    f549:	fd fa f7 
    f54c:	c7 85 c0 fe ff ff f6 	movl   $0xf7fafdf6,-0x140(%rbp)
    f553:	fd fa f7 
    f556:	c7 85 c4 fe ff ff f6 	movl   $0xf7fafdf6,-0x13c(%rbp)
    f55d:	fd fa f7 
    f560:	c7 85 c8 fe ff ff f6 	movl   $0xf7fafdf6,-0x138(%rbp)
    f567:	fd fa f7 
    f56a:	c7 85 cc fe ff ff f6 	movl   $0xf7fafdf6,-0x134(%rbp)
    f571:	fd fa f7 
    f574:	48 c7 85 90 fe ff ff 	movq   $0x0,-0x170(%rbp)
    f57b:	00 00 00 00 
    f57f:	c7 85 f8 fd ff ff 00 	movl   $0x0,-0x208(%rbp)
    f586:	00 00 00 
    f589:	eb 42                	jmp    f5cd <func_31+0x2b7>
    f58b:	c7 85 fc fd ff ff 00 	movl   $0x0,-0x204(%rbp)
    f592:	00 00 00 
    f595:	eb 26                	jmp    f5bd <func_31+0x2a7>
    f597:	8b 85 fc fd ff ff    	mov    -0x204(%rbp),%eax
    f59d:	48 63 d0             	movslq %eax,%rdx
    f5a0:	8b 85 f8 fd ff ff    	mov    -0x208(%rbp),%eax
    f5a6:	48 98                	cltq   
    f5a8:	48 01 d0             	add    %rdx,%rax
    f5ab:	c7 84 85 ac fe ff ff 	movl   $0x3,-0x154(%rbp,%rax,4)
    f5b2:	03 00 00 00 
    f5b6:	83 85 fc fd ff ff 01 	addl   $0x1,-0x204(%rbp)
    f5bd:	83 bd fc fd ff ff 00 	cmpl   $0x0,-0x204(%rbp)
    f5c4:	7e d1                	jle    f597 <func_31+0x281>
    f5c6:	83 85 f8 fd ff ff 01 	addl   $0x1,-0x208(%rbp)
    f5cd:	83 bd f8 fd ff ff 00 	cmpl   $0x0,-0x208(%rbp)
    f5d4:	7e b5                	jle    f58b <func_31+0x275>
    f5d6:	48 8b 45 d8          	mov    -0x28(%rbp),%rax
    f5da:	48 89 45 d8          	mov    %rax,-0x28(%rbp)
    f5de:	48 8b 45 d8          	mov    -0x28(%rbp),%rax
    f5e2:	48 89 85 80 fe ff ff 	mov    %rax,-0x180(%rbp)
    f5e9:	48 83 bd 80 fe ff ff 	cmpq   $0x0,-0x180(%rbp)
    f5f0:	00 
    f5f1:	75 0d                	jne    f600 <func_31+0x2ea>
    f5f3:	48 8b 85 88 fe ff ff 	mov    -0x178(%rbp),%rax
    f5fa:	c7 00 a2 27 fc 6a    	movl   $0x6afc27a2,(%rax)
    f600:	b8 00 00 00 00       	mov    $0x0,%eax
    f605:	48 63 d0             	movslq %eax,%rdx
    f608:	48 8d 05 31 d1 00 00 	lea    0xd131(%rip),%rax        # 1c740 <g_392>
    f60f:	48 8b 00             	mov    (%rax),%rax
    f612:	48 8b 00             	mov    (%rax),%rax
    f615:	48 39 c2             	cmp    %rax,%rdx
    f618:	0f 95 c0             	setne  %al
    f61b:	0f b6 c0             	movzbl %al,%eax
    f61e:	be 05 00 00 00       	mov    $0x5,%esi
    f623:	89 c7                	mov    %eax,%edi
    f625:	e8 b7 5e ff ff       	callq  54e1 <safe_lshift_func_int16_t_s_u>
    f62a:	48 8b 05 7f d4 00 00 	mov    0xd47f(%rip),%rax        # 1cab0 <g_861>
    f631:	48 8b 95 d0 fd ff ff 	mov    -0x230(%rbp),%rdx
    f638:	8b 12                	mov    (%rdx),%edx
    f63a:	89 10                	mov    %edx,(%rax)
    f63c:	8b 95 bc fe ff ff    	mov    -0x144(%rbp),%edx
    f642:	48 8b 85 88 fe ff ff 	mov    -0x178(%rbp),%rax
    f649:	8b 00                	mov    (%rax),%eax
    f64b:	09 d0                	or     %edx,%eax
    f64d:	89 85 bc fe ff ff    	mov    %eax,-0x144(%rbp)
    f653:	8b 85 bc fe ff ff    	mov    -0x144(%rbp),%eax
    f659:	89 c6                	mov    %eax,%esi
    f65b:	bf 9c 4c 00 00       	mov    $0x4c9c,%edi
    f660:	e8 67 60 ff ff       	callq  56cc <safe_mod_func_int32_t_s_s>
    f665:	8b 95 ac fe ff ff    	mov    -0x154(%rbp),%edx
    f66b:	09 d0                	or     %edx,%eax
    f66d:	89 85 ac fe ff ff    	mov    %eax,-0x154(%rbp)
    f673:	c7 85 c4 fd ff ff 00 	movl   $0x0,-0x23c(%rbp)
    f67a:	00 00 00 
    f67d:	e9 79 05 00 00       	jmpq   fbfb <func_31+0x8e5>
    f682:	48 8d 05 ff bb 00 00 	lea    0xbbff(%rip),%rax        # 1b288 <g_370>
    f689:	48 89 85 00 ff ff ff 	mov    %rax,-0x100(%rbp)
    f690:	48 8d 05 f1 bb 00 00 	lea    0xbbf1(%rip),%rax        # 1b288 <g_370>
    f697:	48 89 85 08 ff ff ff 	mov    %rax,-0xf8(%rbp)
    f69e:	48 8d 05 e3 bb 00 00 	lea    0xbbe3(%rip),%rax        # 1b288 <g_370>
    f6a5:	48 89 85 10 ff ff ff 	mov    %rax,-0xf0(%rbp)
    f6ac:	48 8d 05 d5 bb 00 00 	lea    0xbbd5(%rip),%rax        # 1b288 <g_370>
    f6b3:	48 89 85 18 ff ff ff 	mov    %rax,-0xe8(%rbp)
    f6ba:	48 8d 05 c7 bb 00 00 	lea    0xbbc7(%rip),%rax        # 1b288 <g_370>
    f6c1:	48 89 85 20 ff ff ff 	mov    %rax,-0xe0(%rbp)
    f6c8:	48 8d 05 b9 bb 00 00 	lea    0xbbb9(%rip),%rax        # 1b288 <g_370>
    f6cf:	48 89 85 28 ff ff ff 	mov    %rax,-0xd8(%rbp)
    f6d6:	48 8d 05 ab bb 00 00 	lea    0xbbab(%rip),%rax        # 1b288 <g_370>
    f6dd:	48 89 85 30 ff ff ff 	mov    %rax,-0xd0(%rbp)
    f6e4:	48 8d 05 9d bb 00 00 	lea    0xbb9d(%rip),%rax        # 1b288 <g_370>
    f6eb:	48 89 85 38 ff ff ff 	mov    %rax,-0xc8(%rbp)
    f6f2:	48 8d 05 7f bb 00 00 	lea    0xbb7f(%rip),%rax        # 1b278 <g_314>
    f6f9:	48 89 85 98 fe ff ff 	mov    %rax,-0x168(%rbp)
    f700:	48 8d 85 ac fe ff ff 	lea    -0x154(%rbp),%rax
    f707:	48 89 85 d0 fe ff ff 	mov    %rax,-0x130(%rbp)
    f70e:	48 8d 85 ac fe ff ff 	lea    -0x154(%rbp),%rax
    f715:	48 89 85 d8 fe ff ff 	mov    %rax,-0x128(%rbp)
    f71c:	48 8d 85 ac fe ff ff 	lea    -0x154(%rbp),%rax
    f723:	48 89 85 e0 fe ff ff 	mov    %rax,-0x120(%rbp)
    f72a:	48 8d 85 ac fe ff ff 	lea    -0x154(%rbp),%rax
    f731:	48 89 85 e8 fe ff ff 	mov    %rax,-0x118(%rbp)
    f738:	48 8d 85 ac fe ff ff 	lea    -0x154(%rbp),%rax
    f73f:	48 89 85 f0 fe ff ff 	mov    %rax,-0x110(%rbp)
    f746:	48 8d 85 ac fe ff ff 	lea    -0x154(%rbp),%rax
    f74d:	48 89 85 f8 fe ff ff 	mov    %rax,-0x108(%rbp)
    f754:	0f b6 05 5b ba 00 00 	movzbl 0xba5b(%rip),%eax        # 1b1b6 <g_91+0x16>
    f75b:	0f be d8             	movsbl %al,%ebx
    f75e:	48 83 bd c8 fd ff ff 	cmpq   $0x0,-0x238(%rbp)
    f765:	00 
    f766:	75 65                	jne    f7cd <func_31+0x4b7>
    f768:	8b 85 c4 fd ff ff    	mov    -0x23c(%rbp),%eax
    f76e:	0f be c0             	movsbl %al,%eax
    f771:	be ff ff ff ff       	mov    $0xffffffff,%esi
    f776:	89 c7                	mov    %eax,%edi
    f778:	e8 ed 5a ff ff       	callq  526a <safe_div_func_int8_t_s_s>
    f77d:	48 8b 95 c8 fd ff ff 	mov    -0x238(%rbp),%rdx
    f784:	48 8b 85 c8 fd ff ff 	mov    -0x238(%rbp),%rax
    f78b:	48 89 d6             	mov    %rdx,%rsi
    f78e:	48 89 c7             	mov    %rax,%rdi
    f791:	e8 1e 62 ff ff       	callq  59b4 <safe_mod_func_int64_t_s_s>
    f796:	89 c2                	mov    %eax,%edx
    f798:	0f b7 85 dc fd ff ff 	movzwl -0x224(%rbp),%eax
    f79f:	89 d6                	mov    %edx,%esi
    f7a1:	89 c7                	mov    %eax,%edi
    f7a3:	e8 55 67 ff ff       	callq  5efd <safe_mod_func_uint32_t_u_u>
    f7a8:	48 8d 05 91 cf 00 00 	lea    0xcf91(%rip),%rax        # 1c740 <g_392>
    f7af:	48 8b 00             	mov    (%rax),%rax
    f7b2:	48 8b 00             	mov    (%rax),%rax
    f7b5:	8b 05 0d ba 00 00    	mov    0xba0d(%rip),%eax        # 1b1c8 <g_94>
    f7bb:	98                   	cwtl   
    f7bc:	be 01 00 00 00       	mov    $0x1,%esi
    f7c1:	89 c7                	mov    %eax,%edi
    f7c3:	e8 eb 5b ff ff       	callq  53b3 <safe_add_func_int16_t_s_s>
    f7c8:	66 85 c0             	test   %ax,%ax
    f7cb:	74 07                	je     f7d4 <func_31+0x4be>
    f7cd:	b8 01 00 00 00       	mov    $0x1,%eax
    f7d2:	eb 05                	jmp    f7d9 <func_31+0x4c3>
    f7d4:	b8 00 00 00 00       	mov    $0x0,%eax
    f7d9:	89 85 ec fd ff ff    	mov    %eax,-0x214(%rbp)
    f7df:	8b 85 ec fd ff ff    	mov    -0x214(%rbp),%eax
    f7e5:	89 c6                	mov    %eax,%esi
    f7e7:	bf 04 00 00 00       	mov    $0x4,%edi
    f7ec:	e8 fd 5a ff ff       	callq  52ee <safe_lshift_func_int8_t_s_u>
    f7f1:	66 98                	cbtw   
    f7f3:	66 89 05 8e ba 00 00 	mov    %ax,0xba8e(%rip)        # 1b288 <g_370>
    f7fa:	0f b7 05 87 ba 00 00 	movzwl 0xba87(%rip),%eax        # 1b288 <g_370>
    f801:	98                   	cwtl   
    f802:	89 de                	mov    %ebx,%esi
    f804:	89 c7                	mov    %eax,%edi
    f806:	e8 d6 5c ff ff       	callq  54e1 <safe_lshift_func_int16_t_s_u>
    f80b:	89 c2                	mov    %eax,%edx
    f80d:	48 8b 85 98 fe ff ff 	mov    -0x168(%rbp),%rax
    f814:	66 89 10             	mov    %dx,(%rax)
    f817:	48 8b 85 98 fe ff ff 	mov    -0x168(%rbp),%rax
    f81e:	0f b7 00             	movzwl (%rax),%eax
    f821:	0f b7 c0             	movzwl %ax,%eax
    f824:	be 0b 00 00 00       	mov    $0xb,%esi
    f829:	89 c7                	mov    %eax,%edi
    f82b:	e8 4a 66 ff ff       	callq  5e7a <safe_rshift_func_uint16_t_u_u>
    f830:	8b 95 ac fe ff ff    	mov    -0x154(%rbp),%edx
    f836:	0f b7 c0             	movzwl %ax,%eax
    f839:	31 d0                	xor    %edx,%eax
    f83b:	89 85 ac fe ff ff    	mov    %eax,-0x154(%rbp)
    f841:	48 8b 85 80 fe ff ff 	mov    -0x180(%rbp),%rax
    f848:	48 8b 10             	mov    (%rax),%rdx
    f84b:	48 8b 85 80 fe ff ff 	mov    -0x180(%rbp),%rax
    f852:	48 89 10             	mov    %rdx,(%rax)
    f855:	48 8b 85 80 fe ff ff 	mov    -0x180(%rbp),%rax
    f85c:	48 8b 00             	mov    (%rax),%rax
    f85f:	48 8d 15 3a d0 00 00 	lea    0xd03a(%rip),%rdx        # 1c8a0 <g_428+0x100>
    f866:	48 39 d0             	cmp    %rdx,%rax
    f869:	0f 94 c0             	sete   %al
    f86c:	0f b6 c0             	movzbl %al,%eax
    f86f:	be ff 00 00 00       	mov    $0xff,%esi
    f874:	89 c7                	mov    %eax,%edi
    f876:	e8 fd 62 ff ff       	callq  5b78 <safe_sub_func_uint8_t_u_u>
    f87b:	0f b6 d0             	movzbl %al,%edx
    f87e:	48 8b 85 88 fe ff ff 	mov    -0x178(%rbp),%rax
    f885:	89 10                	mov    %edx,(%rax)
    f887:	48 8b 85 88 fe ff ff 	mov    -0x178(%rbp),%rax
    f88e:	8b 00                	mov    (%rax),%eax
    f890:	4c 63 e0             	movslq %eax,%r12
    f893:	0f b7 9d d8 fd ff ff 	movzwl -0x228(%rbp),%ebx
    f89a:	48 83 bd 30 fe ff ff 	cmpq   $0x0,-0x1d0(%rbp)
    f8a1:	00 
    f8a2:	0f 94 c0             	sete   %al
    f8a5:	0f b6 d0             	movzbl %al,%edx
    f8a8:	48 8b 05 11 ce 00 00 	mov    0xce11(%rip),%rax        # 1c6c0 <g_27>
    f8af:	0f b6 08             	movzbl (%rax),%ecx
    f8b2:	48 8b 05 07 ce 00 00 	mov    0xce07(%rip),%rax        # 1c6c0 <g_27>
    f8b9:	83 f1 f9             	xor    $0xfffffff9,%ecx
    f8bc:	88 08                	mov    %cl,(%rax)
    f8be:	0f b6 00             	movzbl (%rax),%eax
    f8c1:	0f be c0             	movsbl %al,%eax
    f8c4:	89 d6                	mov    %edx,%esi
    f8c6:	89 c7                	mov    %eax,%edi
    f8c8:	e8 45 59 ff ff       	callq  5212 <safe_mul_func_int8_t_s_s>
    f8cd:	48 0f be c0          	movsbq %al,%rax
    f8d1:	48 89 de             	mov    %rbx,%rsi
    f8d4:	48 89 c7             	mov    %rax,%rdi
    f8d7:	e8 65 5f ff ff       	callq  5841 <safe_add_func_int64_t_s_s>
    f8dc:	49 39 c4             	cmp    %rax,%r12
    f8df:	0f 95 c0             	setne  %al
    f8e2:	0f b6 c0             	movzbl %al,%eax
    f8e5:	89 85 ec fd ff ff    	mov    %eax,-0x214(%rbp)
    f8eb:	48 8b 05 be d1 00 00 	mov    0xd1be(%rip),%rax        # 1cab0 <g_861>
    f8f2:	8b 95 ec fd ff ff    	mov    -0x214(%rbp),%edx
    f8f8:	89 10                	mov    %edx,(%rax)
    f8fa:	c7 85 ec fd ff ff 00 	movl   $0x0,-0x214(%rbp)
    f901:	00 00 00 
    f904:	e9 dc 02 00 00       	jmpq   fbe5 <func_31+0x8cf>
    f909:	c7 85 08 fe ff ff 15 	movl   $0x50d7a415,-0x1f8(%rbp)
    f910:	a4 d7 50 
    f913:	48 8d 85 00 ff ff ff 	lea    -0x100(%rbp),%rax
    f91a:	48 83 c0 10          	add    $0x10,%rax
    f91e:	48 89 85 20 fe ff ff 	mov    %rax,-0x1e0(%rbp)
    f925:	48 8d 85 20 fe ff ff 	lea    -0x1e0(%rbp),%rax
    f92c:	48 89 85 a0 fe ff ff 	mov    %rax,-0x160(%rbp)
    f933:	48 8b 85 88 fe ff ff 	mov    -0x178(%rbp),%rax
    f93a:	8b 10                	mov    (%rax),%edx
    f93c:	48 8b 85 88 fe ff ff 	mov    -0x178(%rbp),%rax
    f943:	89 10                	mov    %edx,(%rax)
    f945:	48 8b 85 28 fe ff ff 	mov    -0x1d8(%rbp),%rax
    f94c:	48 8b 95 d0 fd ff ff 	mov    -0x230(%rbp),%rdx
    f953:	48 89 10             	mov    %rdx,(%rax)
    f956:	48 c7 05 7f b8 00 00 	movq   $0x0,0xb87f(%rip)        # 1b1e0 <g_158>
    f95d:	00 00 00 00 
    f961:	e9 3b 02 00 00       	jmpq   fba1 <func_31+0x88b>
    f966:	c7 85 0c fe ff ff 7d 	movl   $0xd6a6df7d,-0x1f4(%rbp)
    f96d:	df a6 d6 
    f970:	83 bd 0c fe ff ff 00 	cmpl   $0x0,-0x1f4(%rbp)
    f977:	0f 85 37 02 00 00    	jne    fbb4 <func_31+0x89e>
    f97d:	66 c7 05 12 ba 00 00 	movw   $0x1,0xba12(%rip)        # 1b398 <g_461>
    f984:	01 00 
    f986:	e9 f3 01 00 00       	jmpq   fb7e <func_31+0x868>
    f98b:	c6 85 eb fd ff ff 4d 	movb   $0x4d,-0x215(%rbp)
    f992:	0f b6 85 eb fd ff ff 	movzbl -0x215(%rbp),%eax
    f999:	89 85 08 fe ff ff    	mov    %eax,-0x1f8(%rbp)
    f99f:	0f b6 95 eb fd ff ff 	movzbl -0x215(%rbp),%edx
    f9a6:	48 8b 85 c8 fd ff ff 	mov    -0x238(%rbp),%rax
    f9ad:	98                   	cwtl   
    f9ae:	89 d6                	mov    %edx,%esi
    f9b0:	89 c7                	mov    %eax,%edi
    f9b2:	e8 2a 5b ff ff       	callq  54e1 <safe_lshift_func_int16_t_s_u>
    f9b7:	83 bd c4 fd ff ff 00 	cmpl   $0x0,-0x23c(%rbp)
    f9be:	0f 95 c0             	setne  %al
    f9c1:	0f b6 c0             	movzbl %al,%eax
    f9c4:	39 85 c4 fd ff ff    	cmp    %eax,-0x23c(%rbp)
    f9ca:	0f 93 c0             	setae  %al
    f9cd:	0f b6 c0             	movzbl %al,%eax
    f9d0:	be 02 00 00 00       	mov    $0x2,%esi
    f9d5:	89 c7                	mov    %eax,%edi
    f9d7:	e8 90 59 ff ff       	callq  536c <safe_rshift_func_int8_t_s_u>
    f9dc:	0f b7 95 dc fd ff ff 	movzwl -0x224(%rbp),%edx
    f9e3:	0f b6 05 cc b7 00 00 	movzbl 0xb7cc(%rip),%eax        # 1b1b6 <g_91+0x16>
    f9ea:	0f be c0             	movsbl %al,%eax
    f9ed:	39 c2                	cmp    %eax,%edx
    f9ef:	0f b7 05 b2 b9 00 00 	movzwl 0xb9b2(%rip),%eax        # 1b3a8 <g_906>
    f9f6:	0f b7 c0             	movzwl %ax,%eax
    f9f9:	89 c7                	mov    %eax,%edi
    f9fb:	e8 a6 64 ff ff       	callq  5ea6 <safe_unary_minus_func_uint32_t_u>
    fa00:	89 c2                	mov    %eax,%edx
    fa02:	48 8b 05 d7 cc 00 00 	mov    0xccd7(%rip),%rax        # 1c6e0 <g_117>
    fa09:	89 10                	mov    %edx,(%rax)
    fa0b:	48 8d 05 2e cd 00 00 	lea    0xcd2e(%rip),%rax        # 1c740 <g_392>
    fa12:	48 8b 00             	mov    (%rax),%rax
    fa15:	48 8b 18             	mov    (%rax),%rbx
    fa18:	48 8b 85 98 fe ff ff 	mov    -0x168(%rbp),%rax
    fa1f:	0f b7 00             	movzwl (%rax),%eax
    fa22:	89 c1                	mov    %eax,%ecx
    fa24:	48 8b 85 90 fe ff ff 	mov    -0x170(%rbp),%rax
    fa2b:	48 3b 85 a0 fe ff ff 	cmp    -0x160(%rbp),%rax
    fa32:	0f 94 c0             	sete   %al
    fa35:	0f b6 d0             	movzbl %al,%edx
    fa38:	48 8b 85 88 fe ff ff 	mov    -0x178(%rbp),%rax
    fa3f:	8b 00                	mov    (%rax),%eax
    fa41:	39 c2                	cmp    %eax,%edx
    fa43:	0f 9c c0             	setl   %al
    fa46:	0f b6 c0             	movzbl %al,%eax
    fa49:	21 c8                	and    %ecx,%eax
    fa4b:	89 c2                	mov    %eax,%edx
    fa4d:	48 8b 85 98 fe ff ff 	mov    -0x168(%rbp),%rax
    fa54:	66 89 10             	mov    %dx,(%rax)
    fa57:	48 8b 85 98 fe ff ff 	mov    -0x168(%rbp),%rax
    fa5e:	0f b7 00             	movzwl (%rax),%eax
    fa61:	0f b7 c0             	movzwl %ax,%eax
    fa64:	48 39 85 c8 fd ff ff 	cmp    %rax,-0x238(%rbp)
    fa6b:	0f 95 c0             	setne  %al
    fa6e:	0f b6 c0             	movzbl %al,%eax
    fa71:	48 be f7 40 2f 34 95 	movabs $0x3be9c695342f40f7,%rsi
    fa78:	c6 e9 3b 
    fa7b:	48 89 c7             	mov    %rax,%rdi
    fa7e:	e8 c8 65 ff ff       	callq  604b <safe_sub_func_uint64_t_u_u>
    fa83:	44 0f bf e0          	movswl %ax,%r12d
    fa87:	48 8b 05 5a cc 00 00 	mov    0xcc5a(%rip),%rax        # 1c6e8 <g_135>
    fa8e:	8b 10                	mov    (%rax),%edx
    fa90:	48 8b 85 88 fe ff ff 	mov    -0x178(%rbp),%rax
    fa97:	8b 00                	mov    (%rax),%eax
    fa99:	89 d6                	mov    %edx,%esi
    fa9b:	89 c7                	mov    %eax,%edi
    fa9d:	e8 2a 5c ff ff       	callq  56cc <safe_mod_func_int32_t_s_s>
    faa2:	89 c2                	mov    %eax,%edx
    faa4:	8b 85 08 fe ff ff    	mov    -0x1f8(%rbp),%eax
    faaa:	98                   	cwtl   
    faab:	89 d6                	mov    %edx,%esi
    faad:	89 c7                	mov    %eax,%edi
    faaf:	e8 af 5a ff ff       	callq  5563 <safe_rshift_func_int16_t_s_u>
    fab4:	0f b7 15 cd b7 00 00 	movzwl 0xb7cd(%rip),%edx        # 1b288 <g_370>
    fabb:	21 d0                	and    %edx,%eax
    fabd:	66 89 05 c4 b7 00 00 	mov    %ax,0xb7c4(%rip)        # 1b288 <g_370>
    fac4:	0f b7 05 bd b7 00 00 	movzwl 0xb7bd(%rip),%eax        # 1b288 <g_370>
    facb:	98                   	cwtl   
    facc:	44 89 e6             	mov    %r12d,%esi
    facf:	89 c7                	mov    %eax,%edi
    fad1:	e8 40 59 ff ff       	callq  5416 <safe_mod_func_int16_t_s_s>
    fad6:	48 0f bf c0          	movswq %ax,%rax
    fada:	48 89 de             	mov    %rbx,%rsi
    fadd:	48 89 c7             	mov    %rax,%rdi
    fae0:	e8 9b 65 ff ff       	callq  6080 <safe_mod_func_uint64_t_u_u>
    fae5:	0f b6 c0             	movzbl %al,%eax
    fae8:	be fd 00 00 00       	mov    $0xfd,%esi
    faed:	89 c7                	mov    %eax,%edi
    faef:	e8 9f 60 ff ff       	callq  5b93 <safe_mul_func_uint8_t_u_u>
    faf4:	0f b6 c0             	movzbl %al,%eax
    faf7:	83 e0 04             	and    $0x4,%eax
    fafa:	48 89 c2             	mov    %rax,%rdx
    fafd:	48 8b 85 38 fe ff ff 	mov    -0x1c8(%rbp),%rax
    fb04:	48 89 d6             	mov    %rdx,%rsi
    fb07:	48 89 c7             	mov    %rax,%rdi
    fb0a:	e8 3c 65 ff ff       	callq  604b <safe_sub_func_uint64_t_u_u>
    fb0f:	89 85 00 fe ff ff    	mov    %eax,-0x200(%rbp)
    fb15:	48 8b 05 24 cc 00 00 	mov    0xcc24(%rip),%rax        # 1c740 <g_392>
    fb1c:	48 8b 00             	mov    (%rax),%rax
    fb1f:	48 ba ee 56 31 88 53 	movabs $0xfaf7a053883156ee,%rdx
    fb26:	a0 f7 fa 
    fb29:	48 39 d0             	cmp    %rdx,%rax
    fb2c:	0f 97 c0             	seta   %al
    fb2f:	0f b6 d0             	movzbl %al,%edx
    fb32:	48 8b 85 98 fe ff ff 	mov    -0x168(%rbp),%rax
    fb39:	0f b7 00             	movzwl (%rax),%eax
    fb3c:	8d 48 ff             	lea    -0x1(%rax),%ecx
    fb3f:	48 8b 85 98 fe ff ff 	mov    -0x168(%rbp),%rax
    fb46:	66 89 08             	mov    %cx,(%rax)
    fb49:	48 8b 85 98 fe ff ff 	mov    -0x168(%rbp),%rax
    fb50:	0f b7 00             	movzwl (%rax),%eax
    fb53:	0f b7 c0             	movzwl %ax,%eax
    fb56:	89 d6                	mov    %edx,%esi
    fb58:	89 c7                	mov    %eax,%edi
    fb5a:	e8 de 61 ff ff       	callq  5d3d <safe_mul_func_uint16_t_u_u>
    fb5f:	89 c2                	mov    %eax,%edx
    fb61:	48 8b 05 48 cf 00 00 	mov    0xcf48(%rip),%rax        # 1cab0 <g_861>
    fb68:	0f b7 d2             	movzwl %dx,%edx
    fb6b:	89 10                	mov    %edx,(%rax)
    fb6d:	0f b7 05 24 b8 00 00 	movzwl 0xb824(%rip),%eax        # 1b398 <g_461>
    fb74:	83 c0 01             	add    $0x1,%eax
    fb77:	66 89 05 1a b8 00 00 	mov    %ax,0xb81a(%rip)        # 1b398 <g_461>
    fb7e:	0f b7 05 13 b8 00 00 	movzwl 0xb813(%rip),%eax        # 1b398 <g_461>
    fb85:	66 83 f8 05          	cmp    $0x5,%ax
    fb89:	0f 86 fc fd ff ff    	jbe    f98b <func_31+0x675>
    fb8f:	48 8b 05 4a b6 00 00 	mov    0xb64a(%rip),%rax        # 1b1e0 <g_158>
    fb96:	48 83 c0 01          	add    $0x1,%rax
    fb9a:	48 89 05 3f b6 00 00 	mov    %rax,0xb63f(%rip)        # 1b1e0 <g_158>
    fba1:	48 8b 05 38 b6 00 00 	mov    0xb638(%rip),%rax        # 1b1e0 <g_158>
    fba8:	48 83 f8 05          	cmp    $0x5,%rax
    fbac:	0f 8e b4 fd ff ff    	jle    f966 <func_31+0x650>
    fbb2:	eb 01                	jmp    fbb5 <func_31+0x89f>
    fbb4:	90                   	nop
    fbb5:	48 8b 05 24 cb 00 00 	mov    0xcb24(%rip),%rax        # 1c6e0 <g_117>
    fbbc:	8b 10                	mov    (%rax),%edx
    fbbe:	48 8b 85 88 fe ff ff 	mov    -0x178(%rbp),%rax
    fbc5:	89 10                	mov    %edx,(%rax)
    fbc7:	8b 85 ec fd ff ff    	mov    -0x214(%rbp),%eax
    fbcd:	0f b6 c0             	movzbl %al,%eax
    fbd0:	be 01 00 00 00       	mov    $0x1,%esi
    fbd5:	89 c7                	mov    %eax,%edi
    fbd7:	e8 9c 5f ff ff       	callq  5b78 <safe_sub_func_uint8_t_u_u>
    fbdc:	0f b6 c0             	movzbl %al,%eax
    fbdf:	89 85 ec fd ff ff    	mov    %eax,-0x214(%rbp)
    fbe5:	8b 85 ec fd ff ff    	mov    -0x214(%rbp),%eax
    fbeb:	83 f8 ec             	cmp    $0xffffffec,%eax
    fbee:	0f 8c 15 fd ff ff    	jl     f909 <func_31+0x5f3>
    fbf4:	83 85 c4 fd ff ff 01 	addl   $0x1,-0x23c(%rbp)
    fbfb:	83 bd c4 fd ff ff 3b 	cmpl   $0x3b,-0x23c(%rbp)
    fc02:	0f 84 7a fa ff ff    	je     f682 <func_31+0x36c>
    fc08:	eb 17                	jmp    fc21 <func_31+0x90b>
    fc0a:	48 8d 05 57 cb 00 00 	lea    0xcb57(%rip),%rax        # 1c768 <g_430+0x8>
    fc11:	48 89 85 78 fe ff ff 	mov    %rax,-0x188(%rbp)
    fc18:	48 8b 85 78 fe ff ff 	mov    -0x188(%rbp),%rax
    fc1f:	eb 16                	jmp    fc37 <func_31+0x921>
    fc21:	8b 05 99 b7 00 00    	mov    0xb799(%rip),%eax        # 1b3c0 <g_940+0x8>
    fc27:	83 e8 01             	sub    $0x1,%eax
    fc2a:	89 05 90 b7 00 00    	mov    %eax,0xb790(%rip)        # 1b3c0 <g_940+0x8>
    fc30:	48 8b 85 70 fe ff ff 	mov    -0x190(%rbp),%rax
    fc37:	48 8b 5d e8          	mov    -0x18(%rbp),%rbx
    fc3b:	64 48 33 1c 25 28 00 	xor    %fs:0x28,%rbx
    fc42:	00 00 
    fc44:	74 05                	je     fc4b <func_31+0x935>
    fc46:	e8 25 54 ff ff       	callq  5070 <__stack_chk_fail@plt>
    fc4b:	48 81 c4 30 02 00 00 	add    $0x230,%rsp
    fc52:	5b                   	pop    %rbx
    fc53:	41 5c                	pop    %r12
    fc55:	5d                   	pop    %rbp
    fc56:	c3                   	retq   

000000000000fc57 <func_37>:
    fc57:	f3 0f 1e fa          	endbr64 
    fc5b:	55                   	push   %rbp
    fc5c:	48 89 e5             	mov    %rsp,%rbp
    fc5f:	48 89 7d e8          	mov    %rdi,-0x18(%rbp)
    fc63:	48 89 75 e0          	mov    %rsi,-0x20(%rbp)
    fc67:	48 89 55 d8          	mov    %rdx,-0x28(%rbp)
    fc6b:	48 8d 05 0e b6 00 00 	lea    0xb60e(%rip),%rax        # 1b280 <g_346>
    fc72:	48 89 45 f8          	mov    %rax,-0x8(%rbp)
    fc76:	48 8b 45 f8          	mov    -0x8(%rbp),%rax
    fc7a:	5d                   	pop    %rbp
    fc7b:	c3                   	retq   

000000000000fc7c <func_41>:
    fc7c:	f3 0f 1e fa          	endbr64 
    fc80:	55                   	push   %rbp
    fc81:	48 89 e5             	mov    %rsp,%rbp
    fc84:	41 57                	push   %r15
    fc86:	41 56                	push   %r14
    fc88:	41 55                	push   %r13
    fc8a:	41 54                	push   %r12
    fc8c:	53                   	push   %rbx
    fc8d:	48 81 ec 00 10 00 00 	sub    $0x1000,%rsp
    fc94:	48 83 0c 24 00       	orq    $0x0,(%rsp)
    fc99:	48 81 ec 08 08 00 00 	sub    $0x808,%rsp
    fca0:	48 89 bd e8 e7 ff ff 	mov    %rdi,-0x1818(%rbp)
    fca7:	48 89 b5 e0 e7 ff ff 	mov    %rsi,-0x1820(%rbp)
    fcae:	89 d0                	mov    %edx,%eax
    fcb0:	66 89 85 dc e7 ff ff 	mov    %ax,-0x1824(%rbp)
    fcb7:	64 48 8b 04 25 28 00 	mov    %fs:0x28,%rax
    fcbe:	00 00 
    fcc0:	48 89 45 c8          	mov    %rax,-0x38(%rbp)
    fcc4:	31 c0                	xor    %eax,%eax
    fcc6:	48 8d 05 8b b3 00 00 	lea    0xb38b(%rip),%rax        # 1b058 <g_84>
    fccd:	48 89 85 b0 ec ff ff 	mov    %rax,-0x1350(%rbp)
    fcd4:	48 c7 85 b8 ec ff ff 	movq   $0x0,-0x1348(%rbp)
    fcdb:	00 00 00 00 
    fcdf:	48 8d 05 72 b3 00 00 	lea    0xb372(%rip),%rax        # 1b058 <g_84>
    fce6:	48 89 85 c0 ec ff ff 	mov    %rax,-0x1340(%rbp)
    fced:	48 8d 05 d4 b4 00 00 	lea    0xb4d4(%rip),%rax        # 1b1c8 <g_94>
    fcf4:	48 89 85 c8 ec ff ff 	mov    %rax,-0x1338(%rbp)
    fcfb:	48 c7 85 d0 ec ff ff 	movq   $0x0,-0x1330(%rbp)
    fd02:	00 00 00 00 
    fd06:	48 8d 05 bb b4 00 00 	lea    0xb4bb(%rip),%rax        # 1b1c8 <g_94>
    fd0d:	48 89 85 d8 ec ff ff 	mov    %rax,-0x1328(%rbp)
    fd14:	48 8d 05 41 b3 00 00 	lea    0xb341(%rip),%rax        # 1b05c <g_84+0x4>
    fd1b:	48 89 85 e0 ec ff ff 	mov    %rax,-0x1320(%rbp)
    fd22:	48 8d 05 2f b3 00 00 	lea    0xb32f(%rip),%rax        # 1b058 <g_84>
    fd29:	48 89 85 e8 ec ff ff 	mov    %rax,-0x1318(%rbp)
    fd30:	48 8d 05 21 b3 00 00 	lea    0xb321(%rip),%rax        # 1b058 <g_84>
    fd37:	48 89 85 f0 ec ff ff 	mov    %rax,-0x1310(%rbp)
    fd3e:	48 8d 05 17 b3 00 00 	lea    0xb317(%rip),%rax        # 1b05c <g_84+0x4>
    fd45:	48 89 85 f8 ec ff ff 	mov    %rax,-0x1308(%rbp)
    fd4c:	48 8d 05 09 b3 00 00 	lea    0xb309(%rip),%rax        # 1b05c <g_84+0x4>
    fd53:	48 89 85 00 ed ff ff 	mov    %rax,-0x1300(%rbp)
    fd5a:	48 8d 05 f7 b2 00 00 	lea    0xb2f7(%rip),%rax        # 1b058 <g_84>
    fd61:	48 89 85 08 ed ff ff 	mov    %rax,-0x12f8(%rbp)
    fd68:	48 8d 05 59 b4 00 00 	lea    0xb459(%rip),%rax        # 1b1c8 <g_94>
    fd6f:	48 89 85 10 ed ff ff 	mov    %rax,-0x12f0(%rbp)
    fd76:	48 8d 05 db b2 00 00 	lea    0xb2db(%rip),%rax        # 1b058 <g_84>
    fd7d:	48 89 85 18 ed ff ff 	mov    %rax,-0x12e8(%rbp)
    fd84:	48 8d 05 cd b2 00 00 	lea    0xb2cd(%rip),%rax        # 1b058 <g_84>
    fd8b:	48 89 85 20 ed ff ff 	mov    %rax,-0x12e0(%rbp)
    fd92:	48 8d 05 bf b2 00 00 	lea    0xb2bf(%rip),%rax        # 1b058 <g_84>
    fd99:	48 89 85 28 ed ff ff 	mov    %rax,-0x12d8(%rbp)
    fda0:	48 c7 85 30 ed ff ff 	movq   $0x0,-0x12d0(%rbp)
    fda7:	00 00 00 00 
    fdab:	48 8d 05 a6 b2 00 00 	lea    0xb2a6(%rip),%rax        # 1b058 <g_84>
    fdb2:	48 89 85 38 ed ff ff 	mov    %rax,-0x12c8(%rbp)
    fdb9:	48 c7 85 70 e9 ff ff 	movq   $0x0,-0x1690(%rbp)
    fdc0:	00 00 00 00 
    fdc4:	48 8d 05 8d b2 00 00 	lea    0xb28d(%rip),%rax        # 1b058 <g_84>
    fdcb:	48 89 85 10 e9 ff ff 	mov    %rax,-0x16f0(%rbp)
    fdd2:	48 8d 85 b0 f1 ff ff 	lea    -0xe50(%rbp),%rax
    fdd9:	48 8d 15 40 c2 00 00 	lea    0xc240(%rip),%rdx        # 1c020 <g_3052+0x8d8>
    fde0:	b9 d2 00 00 00       	mov    $0xd2,%ecx
    fde5:	48 89 c7             	mov    %rax,%rdi
    fde8:	48 89 d6             	mov    %rdx,%rsi
    fdeb:	f3 48 a5             	rep movsq %ds:(%rsi),%es:(%rdi)
    fdee:	48 8d 85 30 ee ff ff 	lea    -0x11d0(%rbp),%rax
    fdf5:	48 8d 15 c4 76 00 00 	lea    0x76c4(%rip),%rdx        # 174c0 <g_1383+0x106c>
    fdfc:	b9 2a 00 00 00       	mov    $0x2a,%ecx
    fe01:	48 89 c7             	mov    %rax,%rdi
    fe04:	48 89 d6             	mov    %rdx,%rsi
    fe07:	f3 48 a5             	rep movsq %ds:(%rsi),%es:(%rdi)
    fe0a:	c7 85 3c e8 ff ff b1 	movl   $0xb08c5ab1,-0x17c4(%rbp)
    fe11:	5a 8c b0 
    fe14:	48 8d 85 b0 ea ff ff 	lea    -0x1550(%rbp),%rax
    fe1b:	48 89 85 18 e9 ff ff 	mov    %rax,-0x16e8(%rbp)
    fe22:	48 8d 05 c7 b3 00 00 	lea    0xb3c7(%rip),%rax        # 1b1f0 <g_219>
    fe29:	48 89 85 20 e9 ff ff 	mov    %rax,-0x16e0(%rbp)
    fe30:	48 8d 85 20 e9 ff ff 	lea    -0x16e0(%rbp),%rax
    fe37:	48 89 85 78 e9 ff ff 	mov    %rax,-0x1688(%rbp)
    fe3e:	c6 85 f6 e7 ff ff 06 	movb   $0x6,-0x180a(%rbp)
    fe45:	c6 85 f7 e7 ff ff 84 	movb   $0x84,-0x1809(%rbp)
    fe4c:	48 8d 05 49 b5 00 00 	lea    0xb549(%rip),%rax        # 1b39c <g_623>
    fe53:	48 89 85 80 e9 ff ff 	mov    %rax,-0x1680(%rbp)
    fe5a:	c7 85 40 e8 ff ff 29 	movl   $0x6696c229,-0x17c0(%rbp)
    fe61:	c2 96 66 
    fe64:	c6 85 f4 e7 ff ff 01 	movb   $0x1,-0x180c(%rbp)
    fe6b:	48 8d 05 ea b1 00 00 	lea    0xb1ea(%rip),%rax        # 1b05c <g_84+0x4>
    fe72:	48 89 85 88 e9 ff ff 	mov    %rax,-0x1678(%rbp)
    fe79:	48 8d 85 18 e9 ff ff 	lea    -0x16e8(%rbp),%rax
    fe80:	48 89 85 28 e9 ff ff 	mov    %rax,-0x16d8(%rbp)
    fe87:	48 c7 85 40 f8 ff ff 	movq   $0x0,-0x7c0(%rbp)
    fe8e:	00 00 00 00 
    fe92:	48 8d 85 28 e9 ff ff 	lea    -0x16d8(%rbp),%rax
    fe99:	48 89 85 48 f8 ff ff 	mov    %rax,-0x7b8(%rbp)
    fea0:	48 8d 85 28 e9 ff ff 	lea    -0x16d8(%rbp),%rax
    fea7:	48 89 85 50 f8 ff ff 	mov    %rax,-0x7b0(%rbp)
    feae:	48 c7 85 58 f8 ff ff 	movq   $0x0,-0x7a8(%rbp)
    feb5:	00 00 00 00 
    feb9:	48 8d 85 28 e9 ff ff 	lea    -0x16d8(%rbp),%rax
    fec0:	48 89 85 60 f8 ff ff 	mov    %rax,-0x7a0(%rbp)
    fec7:	48 8d 85 28 e9 ff ff 	lea    -0x16d8(%rbp),%rax
    fece:	48 89 85 68 f8 ff ff 	mov    %rax,-0x798(%rbp)
    fed5:	48 8d 85 28 e9 ff ff 	lea    -0x16d8(%rbp),%rax
    fedc:	48 89 85 70 f8 ff ff 	mov    %rax,-0x790(%rbp)
    fee3:	48 8d 85 28 e9 ff ff 	lea    -0x16d8(%rbp),%rax
    feea:	48 89 85 78 f8 ff ff 	mov    %rax,-0x788(%rbp)
    fef1:	48 c7 85 80 f8 ff ff 	movq   $0x0,-0x780(%rbp)
    fef8:	00 00 00 00 
    fefc:	48 8d 85 28 e9 ff ff 	lea    -0x16d8(%rbp),%rax
    ff03:	48 89 85 88 f8 ff ff 	mov    %rax,-0x778(%rbp)
    ff0a:	48 8d 85 28 e9 ff ff 	lea    -0x16d8(%rbp),%rax
    ff11:	48 89 85 90 f8 ff ff 	mov    %rax,-0x770(%rbp)
    ff18:	48 8d 85 28 e9 ff ff 	lea    -0x16d8(%rbp),%rax
    ff1f:	48 89 85 98 f8 ff ff 	mov    %rax,-0x768(%rbp)
    ff26:	48 8d 85 28 e9 ff ff 	lea    -0x16d8(%rbp),%rax
    ff2d:	48 89 85 a0 f8 ff ff 	mov    %rax,-0x760(%rbp)
    ff34:	48 c7 85 a8 f8 ff ff 	movq   $0x0,-0x758(%rbp)
    ff3b:	00 00 00 00 
    ff3f:	48 8d 85 28 e9 ff ff 	lea    -0x16d8(%rbp),%rax
    ff46:	48 89 85 b0 f8 ff ff 	mov    %rax,-0x750(%rbp)
    ff4d:	48 8d 85 28 e9 ff ff 	lea    -0x16d8(%rbp),%rax
    ff54:	48 89 85 b8 f8 ff ff 	mov    %rax,-0x748(%rbp)
    ff5b:	48 8d 85 28 e9 ff ff 	lea    -0x16d8(%rbp),%rax
    ff62:	48 89 85 c0 f8 ff ff 	mov    %rax,-0x740(%rbp)
    ff69:	48 8d 85 28 e9 ff ff 	lea    -0x16d8(%rbp),%rax
    ff70:	48 89 85 c8 f8 ff ff 	mov    %rax,-0x738(%rbp)
    ff77:	48 8d 85 28 e9 ff ff 	lea    -0x16d8(%rbp),%rax
    ff7e:	48 89 85 d0 f8 ff ff 	mov    %rax,-0x730(%rbp)
    ff85:	48 c7 85 d8 f8 ff ff 	movq   $0x0,-0x728(%rbp)
    ff8c:	00 00 00 00 
    ff90:	48 c7 85 e0 f8 ff ff 	movq   $0x0,-0x720(%rbp)
    ff97:	00 00 00 00 
    ff9b:	48 c7 85 e8 f8 ff ff 	movq   $0x0,-0x718(%rbp)
    ffa2:	00 00 00 00 
    ffa6:	48 8d 85 28 e9 ff ff 	lea    -0x16d8(%rbp),%rax
    ffad:	48 89 85 f0 f8 ff ff 	mov    %rax,-0x710(%rbp)
    ffb4:	48 8d 85 28 e9 ff ff 	lea    -0x16d8(%rbp),%rax
    ffbb:	48 89 85 f8 f8 ff ff 	mov    %rax,-0x708(%rbp)
    ffc2:	48 8d 85 28 e9 ff ff 	lea    -0x16d8(%rbp),%rax
    ffc9:	48 89 85 00 f9 ff ff 	mov    %rax,-0x700(%rbp)
    ffd0:	48 8d 85 28 e9 ff ff 	lea    -0x16d8(%rbp),%rax
    ffd7:	48 89 85 08 f9 ff ff 	mov    %rax,-0x6f8(%rbp)
    ffde:	48 c7 85 10 f9 ff ff 	movq   $0x0,-0x6f0(%rbp)
    ffe5:	00 00 00 00 
    ffe9:	48 8d 85 28 e9 ff ff 	lea    -0x16d8(%rbp),%rax
    fff0:	48 89 85 18 f9 ff ff 	mov    %rax,-0x6e8(%rbp)
    fff7:	48 8d 85 28 e9 ff ff 	lea    -0x16d8(%rbp),%rax
    fffe:	48 89 85 20 f9 ff ff 	mov    %rax,-0x6e0(%rbp)
   10005:	48 c7 85 28 f9 ff ff 	movq   $0x0,-0x6d8(%rbp)
   1000c:	00 00 00 00 
   10010:	48 8d 85 28 e9 ff ff 	lea    -0x16d8(%rbp),%rax
   10017:	48 89 85 30 f9 ff ff 	mov    %rax,-0x6d0(%rbp)
   1001e:	48 8d 85 28 e9 ff ff 	lea    -0x16d8(%rbp),%rax
   10025:	48 89 85 38 f9 ff ff 	mov    %rax,-0x6c8(%rbp)
   1002c:	48 8d 85 28 e9 ff ff 	lea    -0x16d8(%rbp),%rax
   10033:	48 89 85 40 f9 ff ff 	mov    %rax,-0x6c0(%rbp)
   1003a:	48 8d 85 28 e9 ff ff 	lea    -0x16d8(%rbp),%rax
   10041:	48 89 85 48 f9 ff ff 	mov    %rax,-0x6b8(%rbp)
   10048:	48 c7 85 50 f9 ff ff 	movq   $0x0,-0x6b0(%rbp)
   1004f:	00 00 00 00 
   10053:	48 8d 85 28 e9 ff ff 	lea    -0x16d8(%rbp),%rax
   1005a:	48 89 85 58 f9 ff ff 	mov    %rax,-0x6a8(%rbp)
   10061:	48 8d 85 28 e9 ff ff 	lea    -0x16d8(%rbp),%rax
   10068:	48 89 85 60 f9 ff ff 	mov    %rax,-0x6a0(%rbp)
   1006f:	48 c7 85 68 f9 ff ff 	movq   $0x0,-0x698(%rbp)
   10076:	00 00 00 00 
   1007a:	48 8d 85 28 e9 ff ff 	lea    -0x16d8(%rbp),%rax
   10081:	48 89 85 70 f9 ff ff 	mov    %rax,-0x690(%rbp)
   10088:	48 8d 85 28 e9 ff ff 	lea    -0x16d8(%rbp),%rax
   1008f:	48 89 85 78 f9 ff ff 	mov    %rax,-0x688(%rbp)
   10096:	48 8d 85 28 e9 ff ff 	lea    -0x16d8(%rbp),%rax
   1009d:	48 89 85 80 f9 ff ff 	mov    %rax,-0x680(%rbp)
   100a4:	48 8d 85 28 e9 ff ff 	lea    -0x16d8(%rbp),%rax
   100ab:	48 89 85 88 f9 ff ff 	mov    %rax,-0x678(%rbp)
   100b2:	48 c7 85 90 f9 ff ff 	movq   $0x0,-0x670(%rbp)
   100b9:	00 00 00 00 
   100bd:	48 8d 85 28 e9 ff ff 	lea    -0x16d8(%rbp),%rax
   100c4:	48 89 85 98 f9 ff ff 	mov    %rax,-0x668(%rbp)
   100cb:	48 8d 85 28 e9 ff ff 	lea    -0x16d8(%rbp),%rax
   100d2:	48 89 85 a0 f9 ff ff 	mov    %rax,-0x660(%rbp)
   100d9:	48 8d 85 28 e9 ff ff 	lea    -0x16d8(%rbp),%rax
   100e0:	48 89 85 a8 f9 ff ff 	mov    %rax,-0x658(%rbp)
   100e7:	48 8d 85 28 e9 ff ff 	lea    -0x16d8(%rbp),%rax
   100ee:	48 89 85 b0 f9 ff ff 	mov    %rax,-0x650(%rbp)
   100f5:	48 8d 85 28 e9 ff ff 	lea    -0x16d8(%rbp),%rax
   100fc:	48 89 85 b8 f9 ff ff 	mov    %rax,-0x648(%rbp)
   10103:	48 8d 85 28 e9 ff ff 	lea    -0x16d8(%rbp),%rax
   1010a:	48 89 85 c0 f9 ff ff 	mov    %rax,-0x640(%rbp)
   10111:	48 8d 85 28 e9 ff ff 	lea    -0x16d8(%rbp),%rax
   10118:	48 89 85 c8 f9 ff ff 	mov    %rax,-0x638(%rbp)
   1011f:	48 c7 85 d0 f9 ff ff 	movq   $0x0,-0x630(%rbp)
   10126:	00 00 00 00 
   1012a:	48 8d 85 28 e9 ff ff 	lea    -0x16d8(%rbp),%rax
   10131:	48 89 85 d8 f9 ff ff 	mov    %rax,-0x628(%rbp)
   10138:	48 8d 85 28 e9 ff ff 	lea    -0x16d8(%rbp),%rax
   1013f:	48 89 85 e0 f9 ff ff 	mov    %rax,-0x620(%rbp)
   10146:	48 8d 85 28 e9 ff ff 	lea    -0x16d8(%rbp),%rax
   1014d:	48 89 85 e8 f9 ff ff 	mov    %rax,-0x618(%rbp)
   10154:	48 8d 85 28 e9 ff ff 	lea    -0x16d8(%rbp),%rax
   1015b:	48 89 85 f0 f9 ff ff 	mov    %rax,-0x610(%rbp)
   10162:	48 8d 85 28 e9 ff ff 	lea    -0x16d8(%rbp),%rax
   10169:	48 89 85 f8 f9 ff ff 	mov    %rax,-0x608(%rbp)
   10170:	48 c7 85 00 fa ff ff 	movq   $0x0,-0x600(%rbp)
   10177:	00 00 00 00 
   1017b:	48 8d 85 28 e9 ff ff 	lea    -0x16d8(%rbp),%rax
   10182:	48 89 85 08 fa ff ff 	mov    %rax,-0x5f8(%rbp)
   10189:	48 8d 85 28 e9 ff ff 	lea    -0x16d8(%rbp),%rax
   10190:	48 89 85 10 fa ff ff 	mov    %rax,-0x5f0(%rbp)
   10197:	48 8d 85 28 e9 ff ff 	lea    -0x16d8(%rbp),%rax
   1019e:	48 89 85 18 fa ff ff 	mov    %rax,-0x5e8(%rbp)
   101a5:	48 8d 85 28 e9 ff ff 	lea    -0x16d8(%rbp),%rax
   101ac:	48 89 85 20 fa ff ff 	mov    %rax,-0x5e0(%rbp)
   101b3:	48 8d 85 28 e9 ff ff 	lea    -0x16d8(%rbp),%rax
   101ba:	48 89 85 28 fa ff ff 	mov    %rax,-0x5d8(%rbp)
   101c1:	48 8d 85 28 e9 ff ff 	lea    -0x16d8(%rbp),%rax
   101c8:	48 89 85 30 fa ff ff 	mov    %rax,-0x5d0(%rbp)
   101cf:	48 8d 85 28 e9 ff ff 	lea    -0x16d8(%rbp),%rax
   101d6:	48 89 85 38 fa ff ff 	mov    %rax,-0x5c8(%rbp)
   101dd:	48 8d 85 28 e9 ff ff 	lea    -0x16d8(%rbp),%rax
   101e4:	48 89 85 40 fa ff ff 	mov    %rax,-0x5c0(%rbp)
   101eb:	48 8d 85 28 e9 ff ff 	lea    -0x16d8(%rbp),%rax
   101f2:	48 89 85 48 fa ff ff 	mov    %rax,-0x5b8(%rbp)
   101f9:	48 8d 85 28 e9 ff ff 	lea    -0x16d8(%rbp),%rax
   10200:	48 89 85 50 fa ff ff 	mov    %rax,-0x5b0(%rbp)
   10207:	48 c7 85 58 fa ff ff 	movq   $0x0,-0x5a8(%rbp)
   1020e:	00 00 00 00 
   10212:	48 8d 85 28 e9 ff ff 	lea    -0x16d8(%rbp),%rax
   10219:	48 89 85 60 fa ff ff 	mov    %rax,-0x5a0(%rbp)
   10220:	48 8d 85 28 e9 ff ff 	lea    -0x16d8(%rbp),%rax
   10227:	48 89 85 68 fa ff ff 	mov    %rax,-0x598(%rbp)
   1022e:	48 8d 85 28 e9 ff ff 	lea    -0x16d8(%rbp),%rax
   10235:	48 89 85 70 fa ff ff 	mov    %rax,-0x590(%rbp)
   1023c:	48 8d 85 28 e9 ff ff 	lea    -0x16d8(%rbp),%rax
   10243:	48 89 85 78 fa ff ff 	mov    %rax,-0x588(%rbp)
   1024a:	48 c7 85 80 fa ff ff 	movq   $0x0,-0x580(%rbp)
   10251:	00 00 00 00 
   10255:	48 c7 85 88 fa ff ff 	movq   $0x0,-0x578(%rbp)
   1025c:	00 00 00 00 
   10260:	48 c7 85 90 fa ff ff 	movq   $0x0,-0x570(%rbp)
   10267:	00 00 00 00 
   1026b:	48 c7 85 98 fa ff ff 	movq   $0x0,-0x568(%rbp)
   10272:	00 00 00 00 
   10276:	48 8d 85 28 e9 ff ff 	lea    -0x16d8(%rbp),%rax
   1027d:	48 89 85 a0 fa ff ff 	mov    %rax,-0x560(%rbp)
   10284:	48 8d 85 28 e9 ff ff 	lea    -0x16d8(%rbp),%rax
   1028b:	48 89 85 a8 fa ff ff 	mov    %rax,-0x558(%rbp)
   10292:	48 8d 85 28 e9 ff ff 	lea    -0x16d8(%rbp),%rax
   10299:	48 89 85 b0 fa ff ff 	mov    %rax,-0x550(%rbp)
   102a0:	48 c7 85 b8 fa ff ff 	movq   $0x0,-0x548(%rbp)
   102a7:	00 00 00 00 
   102ab:	48 c7 85 c0 fa ff ff 	movq   $0x0,-0x540(%rbp)
   102b2:	00 00 00 00 
   102b6:	48 8d 85 28 e9 ff ff 	lea    -0x16d8(%rbp),%rax
   102bd:	48 89 85 c8 fa ff ff 	mov    %rax,-0x538(%rbp)
   102c4:	48 8d 85 28 e9 ff ff 	lea    -0x16d8(%rbp),%rax
   102cb:	48 89 85 d0 fa ff ff 	mov    %rax,-0x530(%rbp)
   102d2:	48 8d 85 28 e9 ff ff 	lea    -0x16d8(%rbp),%rax
   102d9:	48 89 85 d8 fa ff ff 	mov    %rax,-0x528(%rbp)
   102e0:	48 8d 85 28 e9 ff ff 	lea    -0x16d8(%rbp),%rax
   102e7:	48 89 85 e0 fa ff ff 	mov    %rax,-0x520(%rbp)
   102ee:	48 8d 85 28 e9 ff ff 	lea    -0x16d8(%rbp),%rax
   102f5:	48 89 85 e8 fa ff ff 	mov    %rax,-0x518(%rbp)
   102fc:	48 8d 85 28 e9 ff ff 	lea    -0x16d8(%rbp),%rax
   10303:	48 89 85 f0 fa ff ff 	mov    %rax,-0x510(%rbp)
   1030a:	48 8d 85 28 e9 ff ff 	lea    -0x16d8(%rbp),%rax
   10311:	48 89 85 f8 fa ff ff 	mov    %rax,-0x508(%rbp)
   10318:	48 8d 85 28 e9 ff ff 	lea    -0x16d8(%rbp),%rax
   1031f:	48 89 85 00 fb ff ff 	mov    %rax,-0x500(%rbp)
   10326:	48 c7 85 08 fb ff ff 	movq   $0x0,-0x4f8(%rbp)
   1032d:	00 00 00 00 
   10331:	48 8d 85 28 e9 ff ff 	lea    -0x16d8(%rbp),%rax
   10338:	48 89 85 10 fb ff ff 	mov    %rax,-0x4f0(%rbp)
   1033f:	48 8d 85 28 e9 ff ff 	lea    -0x16d8(%rbp),%rax
   10346:	48 89 85 18 fb ff ff 	mov    %rax,-0x4e8(%rbp)
   1034d:	48 8d 85 28 e9 ff ff 	lea    -0x16d8(%rbp),%rax
   10354:	48 89 85 20 fb ff ff 	mov    %rax,-0x4e0(%rbp)
   1035b:	48 8d 85 28 e9 ff ff 	lea    -0x16d8(%rbp),%rax
   10362:	48 89 85 28 fb ff ff 	mov    %rax,-0x4d8(%rbp)
   10369:	48 8d 85 28 e9 ff ff 	lea    -0x16d8(%rbp),%rax
   10370:	48 89 85 30 fb ff ff 	mov    %rax,-0x4d0(%rbp)
   10377:	48 8d 85 28 e9 ff ff 	lea    -0x16d8(%rbp),%rax
   1037e:	48 89 85 38 fb ff ff 	mov    %rax,-0x4c8(%rbp)
   10385:	48 8d 85 28 e9 ff ff 	lea    -0x16d8(%rbp),%rax
   1038c:	48 89 85 40 fb ff ff 	mov    %rax,-0x4c0(%rbp)
   10393:	48 8d 85 28 e9 ff ff 	lea    -0x16d8(%rbp),%rax
   1039a:	48 89 85 48 fb ff ff 	mov    %rax,-0x4b8(%rbp)
   103a1:	48 8d 85 28 e9 ff ff 	lea    -0x16d8(%rbp),%rax
   103a8:	48 89 85 50 fb ff ff 	mov    %rax,-0x4b0(%rbp)
   103af:	48 8d 85 28 e9 ff ff 	lea    -0x16d8(%rbp),%rax
   103b6:	48 89 85 58 fb ff ff 	mov    %rax,-0x4a8(%rbp)
   103bd:	48 8d 85 28 e9 ff ff 	lea    -0x16d8(%rbp),%rax
   103c4:	48 89 85 60 fb ff ff 	mov    %rax,-0x4a0(%rbp)
   103cb:	48 8d 85 28 e9 ff ff 	lea    -0x16d8(%rbp),%rax
   103d2:	48 89 85 68 fb ff ff 	mov    %rax,-0x498(%rbp)
   103d9:	48 c7 85 70 fb ff ff 	movq   $0x0,-0x490(%rbp)
   103e0:	00 00 00 00 
   103e4:	48 c7 85 78 fb ff ff 	movq   $0x0,-0x488(%rbp)
   103eb:	00 00 00 00 
   103ef:	48 8d 85 28 e9 ff ff 	lea    -0x16d8(%rbp),%rax
   103f6:	48 89 85 80 fb ff ff 	mov    %rax,-0x480(%rbp)
   103fd:	48 8d 85 28 e9 ff ff 	lea    -0x16d8(%rbp),%rax
   10404:	48 89 85 88 fb ff ff 	mov    %rax,-0x478(%rbp)
   1040b:	48 8d 85 28 e9 ff ff 	lea    -0x16d8(%rbp),%rax
   10412:	48 89 85 90 fb ff ff 	mov    %rax,-0x470(%rbp)
   10419:	48 c7 85 98 fb ff ff 	movq   $0x0,-0x468(%rbp)
   10420:	00 00 00 00 
   10424:	48 c7 85 a0 fb ff ff 	movq   $0x0,-0x460(%rbp)
   1042b:	00 00 00 00 
   1042f:	48 8d 85 28 e9 ff ff 	lea    -0x16d8(%rbp),%rax
   10436:	48 89 85 a8 fb ff ff 	mov    %rax,-0x458(%rbp)
   1043d:	48 c7 85 b0 fb ff ff 	movq   $0x0,-0x450(%rbp)
   10444:	00 00 00 00 
   10448:	48 8d 85 28 e9 ff ff 	lea    -0x16d8(%rbp),%rax
   1044f:	48 89 85 b8 fb ff ff 	mov    %rax,-0x448(%rbp)
   10456:	48 8d 85 28 e9 ff ff 	lea    -0x16d8(%rbp),%rax
   1045d:	48 89 85 c0 fb ff ff 	mov    %rax,-0x440(%rbp)
   10464:	48 8d 85 28 e9 ff ff 	lea    -0x16d8(%rbp),%rax
   1046b:	48 89 85 c8 fb ff ff 	mov    %rax,-0x438(%rbp)
   10472:	48 8d 85 28 e9 ff ff 	lea    -0x16d8(%rbp),%rax
   10479:	48 89 85 d0 fb ff ff 	mov    %rax,-0x430(%rbp)
   10480:	48 8d 85 28 e9 ff ff 	lea    -0x16d8(%rbp),%rax
   10487:	48 89 85 d8 fb ff ff 	mov    %rax,-0x428(%rbp)
   1048e:	48 8d 85 28 e9 ff ff 	lea    -0x16d8(%rbp),%rax
   10495:	48 89 85 e0 fb ff ff 	mov    %rax,-0x420(%rbp)
   1049c:	48 8d 85 28 e9 ff ff 	lea    -0x16d8(%rbp),%rax
   104a3:	48 89 85 e8 fb ff ff 	mov    %rax,-0x418(%rbp)
   104aa:	48 8d 85 28 e9 ff ff 	lea    -0x16d8(%rbp),%rax
   104b1:	48 89 85 f0 fb ff ff 	mov    %rax,-0x410(%rbp)
   104b8:	48 8d 85 28 e9 ff ff 	lea    -0x16d8(%rbp),%rax
   104bf:	48 89 85 f8 fb ff ff 	mov    %rax,-0x408(%rbp)
   104c6:	48 8d 85 28 e9 ff ff 	lea    -0x16d8(%rbp),%rax
   104cd:	48 89 85 00 fc ff ff 	mov    %rax,-0x400(%rbp)
   104d4:	48 8d 85 28 e9 ff ff 	lea    -0x16d8(%rbp),%rax
   104db:	48 89 85 08 fc ff ff 	mov    %rax,-0x3f8(%rbp)
   104e2:	48 8d 85 28 e9 ff ff 	lea    -0x16d8(%rbp),%rax
   104e9:	48 89 85 10 fc ff ff 	mov    %rax,-0x3f0(%rbp)
   104f0:	48 8d 85 28 e9 ff ff 	lea    -0x16d8(%rbp),%rax
   104f7:	48 89 85 18 fc ff ff 	mov    %rax,-0x3e8(%rbp)
   104fe:	48 8d 85 28 e9 ff ff 	lea    -0x16d8(%rbp),%rax
   10505:	48 89 85 20 fc ff ff 	mov    %rax,-0x3e0(%rbp)
   1050c:	48 8d 85 28 e9 ff ff 	lea    -0x16d8(%rbp),%rax
   10513:	48 89 85 28 fc ff ff 	mov    %rax,-0x3d8(%rbp)
   1051a:	48 8d 85 28 e9 ff ff 	lea    -0x16d8(%rbp),%rax
   10521:	48 89 85 30 fc ff ff 	mov    %rax,-0x3d0(%rbp)
   10528:	48 8d 85 28 e9 ff ff 	lea    -0x16d8(%rbp),%rax
   1052f:	48 89 85 38 fc ff ff 	mov    %rax,-0x3c8(%rbp)
   10536:	48 8d 85 28 e9 ff ff 	lea    -0x16d8(%rbp),%rax
   1053d:	48 89 85 40 fc ff ff 	mov    %rax,-0x3c0(%rbp)
   10544:	48 8d 85 28 e9 ff ff 	lea    -0x16d8(%rbp),%rax
   1054b:	48 89 85 48 fc ff ff 	mov    %rax,-0x3b8(%rbp)
   10552:	48 c7 85 50 fc ff ff 	movq   $0x0,-0x3b0(%rbp)
   10559:	00 00 00 00 
   1055d:	48 c7 85 58 fc ff ff 	movq   $0x0,-0x3a8(%rbp)
   10564:	00 00 00 00 
   10568:	48 c7 85 60 fc ff ff 	movq   $0x0,-0x3a0(%rbp)
   1056f:	00 00 00 00 
   10573:	48 8d 85 28 e9 ff ff 	lea    -0x16d8(%rbp),%rax
   1057a:	48 89 85 68 fc ff ff 	mov    %rax,-0x398(%rbp)
   10581:	48 c7 85 70 fc ff ff 	movq   $0x0,-0x390(%rbp)
   10588:	00 00 00 00 
   1058c:	48 8d 85 28 e9 ff ff 	lea    -0x16d8(%rbp),%rax
   10593:	48 89 85 78 fc ff ff 	mov    %rax,-0x388(%rbp)
   1059a:	48 c7 85 80 fc ff ff 	movq   $0x0,-0x380(%rbp)
   105a1:	00 00 00 00 
   105a5:	48 c7 85 88 fc ff ff 	movq   $0x0,-0x378(%rbp)
   105ac:	00 00 00 00 
   105b0:	48 8d 85 28 e9 ff ff 	lea    -0x16d8(%rbp),%rax
   105b7:	48 89 85 90 fc ff ff 	mov    %rax,-0x370(%rbp)
   105be:	48 c7 85 98 fc ff ff 	movq   $0x0,-0x368(%rbp)
   105c5:	00 00 00 00 
   105c9:	48 8d 85 28 e9 ff ff 	lea    -0x16d8(%rbp),%rax
   105d0:	48 89 85 a0 fc ff ff 	mov    %rax,-0x360(%rbp)
   105d7:	48 8d 85 28 e9 ff ff 	lea    -0x16d8(%rbp),%rax
   105de:	48 89 85 a8 fc ff ff 	mov    %rax,-0x358(%rbp)
   105e5:	48 8d 85 28 e9 ff ff 	lea    -0x16d8(%rbp),%rax
   105ec:	48 89 85 b0 fc ff ff 	mov    %rax,-0x350(%rbp)
   105f3:	48 8d 85 28 e9 ff ff 	lea    -0x16d8(%rbp),%rax
   105fa:	48 89 85 b8 fc ff ff 	mov    %rax,-0x348(%rbp)
   10601:	48 8d 85 28 e9 ff ff 	lea    -0x16d8(%rbp),%rax
   10608:	48 89 85 c0 fc ff ff 	mov    %rax,-0x340(%rbp)
   1060f:	48 8d 85 28 e9 ff ff 	lea    -0x16d8(%rbp),%rax
   10616:	48 89 85 c8 fc ff ff 	mov    %rax,-0x338(%rbp)
   1061d:	48 8d 85 28 e9 ff ff 	lea    -0x16d8(%rbp),%rax
   10624:	48 89 85 d0 fc ff ff 	mov    %rax,-0x330(%rbp)
   1062b:	48 8d 85 28 e9 ff ff 	lea    -0x16d8(%rbp),%rax
   10632:	48 89 85 d8 fc ff ff 	mov    %rax,-0x328(%rbp)
   10639:	48 8d 85 28 e9 ff ff 	lea    -0x16d8(%rbp),%rax
   10640:	48 89 85 e0 fc ff ff 	mov    %rax,-0x320(%rbp)
   10647:	48 8d 85 28 e9 ff ff 	lea    -0x16d8(%rbp),%rax
   1064e:	48 89 85 e8 fc ff ff 	mov    %rax,-0x318(%rbp)
   10655:	48 8d 85 28 e9 ff ff 	lea    -0x16d8(%rbp),%rax
   1065c:	48 89 85 f0 fc ff ff 	mov    %rax,-0x310(%rbp)
   10663:	48 8d 85 28 e9 ff ff 	lea    -0x16d8(%rbp),%rax
   1066a:	48 89 85 f8 fc ff ff 	mov    %rax,-0x308(%rbp)
   10671:	48 8d 85 28 e9 ff ff 	lea    -0x16d8(%rbp),%rax
   10678:	48 89 85 00 fd ff ff 	mov    %rax,-0x300(%rbp)
   1067f:	48 8d 85 28 e9 ff ff 	lea    -0x16d8(%rbp),%rax
   10686:	48 89 85 08 fd ff ff 	mov    %rax,-0x2f8(%rbp)
   1068d:	48 8d 85 28 e9 ff ff 	lea    -0x16d8(%rbp),%rax
   10694:	48 89 85 10 fd ff ff 	mov    %rax,-0x2f0(%rbp)
   1069b:	48 8d 85 28 e9 ff ff 	lea    -0x16d8(%rbp),%rax
   106a2:	48 89 85 18 fd ff ff 	mov    %rax,-0x2e8(%rbp)
   106a9:	48 8d 85 28 e9 ff ff 	lea    -0x16d8(%rbp),%rax
   106b0:	48 89 85 20 fd ff ff 	mov    %rax,-0x2e0(%rbp)
   106b7:	48 8d 85 28 e9 ff ff 	lea    -0x16d8(%rbp),%rax
   106be:	48 89 85 28 fd ff ff 	mov    %rax,-0x2d8(%rbp)
   106c5:	48 8d 85 28 e9 ff ff 	lea    -0x16d8(%rbp),%rax
   106cc:	48 89 85 30 fd ff ff 	mov    %rax,-0x2d0(%rbp)
   106d3:	48 8d 85 28 e9 ff ff 	lea    -0x16d8(%rbp),%rax
   106da:	48 89 85 38 fd ff ff 	mov    %rax,-0x2c8(%rbp)
   106e1:	48 c7 85 40 fd ff ff 	movq   $0x0,-0x2c0(%rbp)
   106e8:	00 00 00 00 
   106ec:	48 8d 85 28 e9 ff ff 	lea    -0x16d8(%rbp),%rax
   106f3:	48 89 85 48 fd ff ff 	mov    %rax,-0x2b8(%rbp)
   106fa:	48 8d 85 28 e9 ff ff 	lea    -0x16d8(%rbp),%rax
   10701:	48 89 85 50 fd ff ff 	mov    %rax,-0x2b0(%rbp)
   10708:	48 8d 85 28 e9 ff ff 	lea    -0x16d8(%rbp),%rax
   1070f:	48 89 85 58 fd ff ff 	mov    %rax,-0x2a8(%rbp)
   10716:	48 8d 85 28 e9 ff ff 	lea    -0x16d8(%rbp),%rax
   1071d:	48 89 85 60 fd ff ff 	mov    %rax,-0x2a0(%rbp)
   10724:	48 c7 85 68 fd ff ff 	movq   $0x0,-0x298(%rbp)
   1072b:	00 00 00 00 
   1072f:	48 c7 85 70 fd ff ff 	movq   $0x0,-0x290(%rbp)
   10736:	00 00 00 00 
   1073a:	48 8d 85 28 e9 ff ff 	lea    -0x16d8(%rbp),%rax
   10741:	48 89 85 78 fd ff ff 	mov    %rax,-0x288(%rbp)
   10748:	48 8d 85 28 e9 ff ff 	lea    -0x16d8(%rbp),%rax
   1074f:	48 89 85 80 fd ff ff 	mov    %rax,-0x280(%rbp)
   10756:	48 8d 85 28 e9 ff ff 	lea    -0x16d8(%rbp),%rax
   1075d:	48 89 85 88 fd ff ff 	mov    %rax,-0x278(%rbp)
   10764:	48 8d 85 28 e9 ff ff 	lea    -0x16d8(%rbp),%rax
   1076b:	48 89 85 90 fd ff ff 	mov    %rax,-0x270(%rbp)
   10772:	48 8d 85 28 e9 ff ff 	lea    -0x16d8(%rbp),%rax
   10779:	48 89 85 98 fd ff ff 	mov    %rax,-0x268(%rbp)
   10780:	48 8d 85 28 e9 ff ff 	lea    -0x16d8(%rbp),%rax
   10787:	48 89 85 a0 fd ff ff 	mov    %rax,-0x260(%rbp)
   1078e:	48 8d 85 28 e9 ff ff 	lea    -0x16d8(%rbp),%rax
   10795:	48 89 85 a8 fd ff ff 	mov    %rax,-0x258(%rbp)
   1079c:	48 8d 85 28 e9 ff ff 	lea    -0x16d8(%rbp),%rax
   107a3:	48 89 85 b0 fd ff ff 	mov    %rax,-0x250(%rbp)
   107aa:	48 8d 85 28 e9 ff ff 	lea    -0x16d8(%rbp),%rax
   107b1:	48 89 85 b8 fd ff ff 	mov    %rax,-0x248(%rbp)
   107b8:	48 8d 85 28 e9 ff ff 	lea    -0x16d8(%rbp),%rax
   107bf:	48 89 85 c0 fd ff ff 	mov    %rax,-0x240(%rbp)
   107c6:	48 8d 85 28 e9 ff ff 	lea    -0x16d8(%rbp),%rax
   107cd:	48 89 85 c8 fd ff ff 	mov    %rax,-0x238(%rbp)
   107d4:	48 8d 85 28 e9 ff ff 	lea    -0x16d8(%rbp),%rax
   107db:	48 89 85 d0 fd ff ff 	mov    %rax,-0x230(%rbp)
   107e2:	48 8d 85 28 e9 ff ff 	lea    -0x16d8(%rbp),%rax
   107e9:	48 89 85 d8 fd ff ff 	mov    %rax,-0x228(%rbp)
   107f0:	48 8d 85 28 e9 ff ff 	lea    -0x16d8(%rbp),%rax
   107f7:	48 89 85 e0 fd ff ff 	mov    %rax,-0x220(%rbp)
   107fe:	48 8d 85 28 e9 ff ff 	lea    -0x16d8(%rbp),%rax
   10805:	48 89 85 e8 fd ff ff 	mov    %rax,-0x218(%rbp)
   1080c:	48 8d 85 28 e9 ff ff 	lea    -0x16d8(%rbp),%rax
   10813:	48 89 85 f0 fd ff ff 	mov    %rax,-0x210(%rbp)
   1081a:	48 8d 85 28 e9 ff ff 	lea    -0x16d8(%rbp),%rax
   10821:	48 89 85 f8 fd ff ff 	mov    %rax,-0x208(%rbp)
   10828:	48 c7 85 00 fe ff ff 	movq   $0x0,-0x200(%rbp)
   1082f:	00 00 00 00 
   10833:	48 8d 85 28 e9 ff ff 	lea    -0x16d8(%rbp),%rax
   1083a:	48 89 85 08 fe ff ff 	mov    %rax,-0x1f8(%rbp)
   10841:	48 8d 85 28 e9 ff ff 	lea    -0x16d8(%rbp),%rax
   10848:	48 89 85 10 fe ff ff 	mov    %rax,-0x1f0(%rbp)
   1084f:	48 8d 85 28 e9 ff ff 	lea    -0x16d8(%rbp),%rax
   10856:	48 89 85 18 fe ff ff 	mov    %rax,-0x1e8(%rbp)
   1085d:	48 8d 85 28 e9 ff ff 	lea    -0x16d8(%rbp),%rax
   10864:	48 89 85 20 fe ff ff 	mov    %rax,-0x1e0(%rbp)
   1086b:	48 8d 85 28 e9 ff ff 	lea    -0x16d8(%rbp),%rax
   10872:	48 89 85 28 fe ff ff 	mov    %rax,-0x1d8(%rbp)
   10879:	48 c7 85 30 fe ff ff 	movq   $0x0,-0x1d0(%rbp)
   10880:	00 00 00 00 
   10884:	48 8d 85 28 e9 ff ff 	lea    -0x16d8(%rbp),%rax
   1088b:	48 89 85 38 fe ff ff 	mov    %rax,-0x1c8(%rbp)
   10892:	48 8d 85 28 e9 ff ff 	lea    -0x16d8(%rbp),%rax
   10899:	48 89 85 40 fe ff ff 	mov    %rax,-0x1c0(%rbp)
   108a0:	48 8d 85 28 e9 ff ff 	lea    -0x16d8(%rbp),%rax
   108a7:	48 89 85 48 fe ff ff 	mov    %rax,-0x1b8(%rbp)
   108ae:	48 c7 85 50 fe ff ff 	movq   $0x0,-0x1b0(%rbp)
   108b5:	00 00 00 00 
   108b9:	48 8d 85 28 e9 ff ff 	lea    -0x16d8(%rbp),%rax
   108c0:	48 89 85 58 fe ff ff 	mov    %rax,-0x1a8(%rbp)
   108c7:	48 8d 85 28 e9 ff ff 	lea    -0x16d8(%rbp),%rax
   108ce:	48 89 85 60 fe ff ff 	mov    %rax,-0x1a0(%rbp)
   108d5:	48 8d 85 28 e9 ff ff 	lea    -0x16d8(%rbp),%rax
   108dc:	48 89 85 68 fe ff ff 	mov    %rax,-0x198(%rbp)
   108e3:	48 c7 85 70 fe ff ff 	movq   $0x0,-0x190(%rbp)
   108ea:	00 00 00 00 
   108ee:	48 c7 85 78 fe ff ff 	movq   $0x0,-0x188(%rbp)
   108f5:	00 00 00 00 
   108f9:	48 8d 85 28 e9 ff ff 	lea    -0x16d8(%rbp),%rax
   10900:	48 89 85 80 fe ff ff 	mov    %rax,-0x180(%rbp)
   10907:	48 8d 85 28 e9 ff ff 	lea    -0x16d8(%rbp),%rax
   1090e:	48 89 85 88 fe ff ff 	mov    %rax,-0x178(%rbp)
   10915:	48 8d 85 28 e9 ff ff 	lea    -0x16d8(%rbp),%rax
   1091c:	48 89 85 90 fe ff ff 	mov    %rax,-0x170(%rbp)
   10923:	48 c7 85 98 fe ff ff 	movq   $0x0,-0x168(%rbp)
   1092a:	00 00 00 00 
   1092e:	48 8d 85 28 e9 ff ff 	lea    -0x16d8(%rbp),%rax
   10935:	48 89 85 a0 fe ff ff 	mov    %rax,-0x160(%rbp)
   1093c:	48 8d 85 28 e9 ff ff 	lea    -0x16d8(%rbp),%rax
   10943:	48 89 85 a8 fe ff ff 	mov    %rax,-0x158(%rbp)
   1094a:	48 c7 85 b0 fe ff ff 	movq   $0x0,-0x150(%rbp)
   10951:	00 00 00 00 
   10955:	48 8d 85 28 e9 ff ff 	lea    -0x16d8(%rbp),%rax
   1095c:	48 89 85 b8 fe ff ff 	mov    %rax,-0x148(%rbp)
   10963:	48 8d 85 28 e9 ff ff 	lea    -0x16d8(%rbp),%rax
   1096a:	48 89 85 c0 fe ff ff 	mov    %rax,-0x140(%rbp)
   10971:	48 8d 85 28 e9 ff ff 	lea    -0x16d8(%rbp),%rax
   10978:	48 89 85 c8 fe ff ff 	mov    %rax,-0x138(%rbp)
   1097f:	48 8d 85 28 e9 ff ff 	lea    -0x16d8(%rbp),%rax
   10986:	48 89 85 d0 fe ff ff 	mov    %rax,-0x130(%rbp)
   1098d:	48 8d 85 28 e9 ff ff 	lea    -0x16d8(%rbp),%rax
   10994:	48 89 85 d8 fe ff ff 	mov    %rax,-0x128(%rbp)
   1099b:	48 c7 85 e0 fe ff ff 	movq   $0x0,-0x120(%rbp)
   109a2:	00 00 00 00 
   109a6:	48 c7 85 e8 fe ff ff 	movq   $0x0,-0x118(%rbp)
   109ad:	00 00 00 00 
   109b1:	48 8d 85 28 e9 ff ff 	lea    -0x16d8(%rbp),%rax
   109b8:	48 89 85 f0 fe ff ff 	mov    %rax,-0x110(%rbp)
   109bf:	48 c7 85 f8 fe ff ff 	movq   $0x0,-0x108(%rbp)
   109c6:	00 00 00 00 
   109ca:	48 8d 85 28 e9 ff ff 	lea    -0x16d8(%rbp),%rax
   109d1:	48 89 85 00 ff ff ff 	mov    %rax,-0x100(%rbp)
   109d8:	48 8d 85 28 e9 ff ff 	lea    -0x16d8(%rbp),%rax
   109df:	48 89 85 08 ff ff ff 	mov    %rax,-0xf8(%rbp)
   109e6:	48 c7 85 10 ff ff ff 	movq   $0x0,-0xf0(%rbp)
   109ed:	00 00 00 00 
   109f1:	48 8d 85 28 e9 ff ff 	lea    -0x16d8(%rbp),%rax
   109f8:	48 89 85 18 ff ff ff 	mov    %rax,-0xe8(%rbp)
   109ff:	48 8d 85 28 e9 ff ff 	lea    -0x16d8(%rbp),%rax
   10a06:	48 89 85 20 ff ff ff 	mov    %rax,-0xe0(%rbp)
   10a0d:	48 c7 85 28 ff ff ff 	movq   $0x0,-0xd8(%rbp)
   10a14:	00 00 00 00 
   10a18:	48 c7 85 30 ff ff ff 	movq   $0x0,-0xd0(%rbp)
   10a1f:	00 00 00 00 
   10a23:	48 8d 85 28 e9 ff ff 	lea    -0x16d8(%rbp),%rax
   10a2a:	48 89 85 38 ff ff ff 	mov    %rax,-0xc8(%rbp)
   10a31:	48 8d 85 28 e9 ff ff 	lea    -0x16d8(%rbp),%rax
   10a38:	48 89 85 40 ff ff ff 	mov    %rax,-0xc0(%rbp)
   10a3f:	48 8d 85 28 e9 ff ff 	lea    -0x16d8(%rbp),%rax
   10a46:	48 89 85 48 ff ff ff 	mov    %rax,-0xb8(%rbp)
   10a4d:	48 8d 85 28 e9 ff ff 	lea    -0x16d8(%rbp),%rax
   10a54:	48 89 85 50 ff ff ff 	mov    %rax,-0xb0(%rbp)
   10a5b:	48 8d 85 28 e9 ff ff 	lea    -0x16d8(%rbp),%rax
   10a62:	48 89 85 58 ff ff ff 	mov    %rax,-0xa8(%rbp)
   10a69:	48 8d 85 28 e9 ff ff 	lea    -0x16d8(%rbp),%rax
   10a70:	48 89 85 60 ff ff ff 	mov    %rax,-0xa0(%rbp)
   10a77:	48 8d 85 28 e9 ff ff 	lea    -0x16d8(%rbp),%rax
   10a7e:	48 89 85 68 ff ff ff 	mov    %rax,-0x98(%rbp)
   10a85:	48 8d 85 28 e9 ff ff 	lea    -0x16d8(%rbp),%rax
   10a8c:	48 89 85 70 ff ff ff 	mov    %rax,-0x90(%rbp)
   10a93:	48 8d 85 28 e9 ff ff 	lea    -0x16d8(%rbp),%rax
   10a9a:	48 89 85 78 ff ff ff 	mov    %rax,-0x88(%rbp)
   10aa1:	48 8d 85 28 e9 ff ff 	lea    -0x16d8(%rbp),%rax
   10aa8:	48 89 45 80          	mov    %rax,-0x80(%rbp)
   10aac:	48 8d 85 28 e9 ff ff 	lea    -0x16d8(%rbp),%rax
   10ab3:	48 89 45 88          	mov    %rax,-0x78(%rbp)
   10ab7:	48 8d 85 28 e9 ff ff 	lea    -0x16d8(%rbp),%rax
   10abe:	48 89 45 90          	mov    %rax,-0x70(%rbp)
   10ac2:	48 8d 85 28 e9 ff ff 	lea    -0x16d8(%rbp),%rax
   10ac9:	48 89 45 98          	mov    %rax,-0x68(%rbp)
   10acd:	48 8d 85 28 e9 ff ff 	lea    -0x16d8(%rbp),%rax
   10ad4:	48 89 45 a0          	mov    %rax,-0x60(%rbp)
   10ad8:	48 8d 85 28 e9 ff ff 	lea    -0x16d8(%rbp),%rax
   10adf:	48 89 45 a8          	mov    %rax,-0x58(%rbp)
   10ae3:	48 8d 85 28 e9 ff ff 	lea    -0x16d8(%rbp),%rax
   10aea:	48 89 45 b0          	mov    %rax,-0x50(%rbp)
   10aee:	48 8d 85 28 e9 ff ff 	lea    -0x16d8(%rbp),%rax
   10af5:	48 89 45 b8          	mov    %rax,-0x48(%rbp)
   10af9:	c6 85 f8 e7 ff ff 58 	movb   $0x58,-0x1808(%rbp)
   10b00:	66 c7 85 00 e8 ff ff 	movw   $0x9d9a,-0x1800(%rbp)
   10b07:	9a 9d 
   10b09:	66 c7 85 f0 ea ff ff 	movw   $0xfe19,-0x1510(%rbp)
   10b10:	19 fe 
   10b12:	66 c7 85 f2 ea ff ff 	movw   $0x119,-0x150e(%rbp)
   10b19:	19 01 
   10b1b:	66 c7 85 f4 ea ff ff 	movw   $0x100,-0x150c(%rbp)
   10b22:	00 01 
   10b24:	66 c7 85 f6 ea ff ff 	movw   $0x1,-0x150a(%rbp)
   10b2b:	01 00 
   10b2d:	66 c7 85 f8 ea ff ff 	movw   $0x508,-0x1508(%rbp)
   10b34:	08 05 
   10b36:	66 c7 85 fa ea ff ff 	movw   $0x101,-0x1506(%rbp)
   10b3d:	01 01 
   10b3f:	66 c7 85 fc ea ff ff 	movw   $0x101,-0x1504(%rbp)
   10b46:	01 01 
   10b48:	66 c7 85 fe ea ff ff 	movw   $0x501,-0x1502(%rbp)
   10b4f:	01 05 
   10b51:	66 c7 85 00 eb ff ff 	movw   $0x8,-0x1500(%rbp)
   10b58:	08 00 
   10b5a:	66 c7 85 02 eb ff ff 	movw   $0x101,-0x14fe(%rbp)
   10b61:	01 01 
   10b63:	66 c7 85 04 eb ff ff 	movw   $0x100,-0x14fc(%rbp)
   10b6a:	00 01 
   10b6c:	66 c7 85 06 eb ff ff 	movw   $0xfe19,-0x14fa(%rbp)
   10b73:	19 fe 
   10b75:	c7 85 30 eb ff ff a4 	movl   $0x7fab01a4,-0x14d0(%rbp)
   10b7c:	01 ab 7f 
   10b7f:	c7 85 34 eb ff ff a4 	movl   $0x7fab01a4,-0x14cc(%rbp)
   10b86:	01 ab 7f 
   10b89:	c7 85 38 eb ff ff a4 	movl   $0x7fab01a4,-0x14c8(%rbp)
   10b90:	01 ab 7f 
   10b93:	c7 85 3c eb ff ff a4 	movl   $0x7fab01a4,-0x14c4(%rbp)
   10b9a:	01 ab 7f 
   10b9d:	c7 85 40 eb ff ff a4 	movl   $0x7fab01a4,-0x14c0(%rbp)
   10ba4:	01 ab 7f 
   10ba7:	c7 85 44 eb ff ff a4 	movl   $0x7fab01a4,-0x14bc(%rbp)
   10bae:	01 ab 7f 
   10bb1:	c7 85 48 eb ff ff a4 	movl   $0x7fab01a4,-0x14b8(%rbp)
   10bb8:	01 ab 7f 
   10bbb:	c7 85 4c eb ff ff a4 	movl   $0x7fab01a4,-0x14b4(%rbp)
   10bc2:	01 ab 7f 
   10bc5:	c7 85 50 eb ff ff a4 	movl   $0x7fab01a4,-0x14b0(%rbp)
   10bcc:	01 ab 7f 
   10bcf:	66 c7 85 02 e8 ff ff 	movw   $0x3809,-0x17fe(%rbp)
   10bd6:	09 38 
   10bd8:	48 c7 85 90 e9 ff ff 	movq   $0x1,-0x1670(%rbp)
   10bdf:	01 00 00 00 
   10be3:	c7 85 1c e8 ff ff 00 	movl   $0x0,-0x17e4(%rbp)
   10bea:	00 00 00 
   10bed:	eb 1e                	jmp    10c0d <func_41+0xf91>
   10bef:	8b 85 1c e8 ff ff    	mov    -0x17e4(%rbp),%eax
   10bf5:	48 98                	cltq   
   10bf7:	48 8d 15 34 a4 00 00 	lea    0xa434(%rip),%rdx        # 1b032 <g_23+0x2>
   10bfe:	48 89 94 c5 b0 ea ff 	mov    %rdx,-0x1550(%rbp,%rax,8)
   10c05:	ff 
   10c06:	83 85 1c e8 ff ff 01 	addl   $0x1,-0x17e4(%rbp)
   10c0d:	83 bd 1c e8 ff ff 02 	cmpl   $0x2,-0x17e4(%rbp)
   10c14:	7e d9                	jle    10bef <func_41+0xf73>
   10c16:	c7 85 1c e8 ff ff 00 	movl   $0x0,-0x17e4(%rbp)
   10c1d:	00 00 00 
   10c20:	eb 1e                	jmp    10c40 <func_41+0xfc4>
   10c22:	8b 85 1c e8 ff ff    	mov    -0x17e4(%rbp),%eax
   10c28:	48 98                	cltq   
   10c2a:	48 8d 15 cb 56 00 00 	lea    0x56cb(%rip),%rdx        # 162fc <g_291+0x29c>
   10c31:	48 89 94 c5 d0 ea ff 	mov    %rdx,-0x1530(%rbp,%rax,8)
   10c38:	ff 
   10c39:	83 85 1c e8 ff ff 01 	addl   $0x1,-0x17e4(%rbp)
   10c40:	83 bd 1c e8 ff ff 02 	cmpl   $0x2,-0x17e4(%rbp)
   10c47:	7e d9                	jle    10c22 <func_41+0xfa6>
   10c49:	90                   	nop
   10c4a:	48 8b 85 30 ed ff ff 	mov    -0x12d0(%rbp),%rax
   10c51:	48 89 85 10 e9 ff ff 	mov    %rax,-0x16f0(%rbp)
   10c58:	48 8b 05 e1 ba 00 00 	mov    0xbae1(%rip),%rax        # 1c740 <g_392>
   10c5f:	48 8b 00             	mov    (%rax),%rax
   10c62:	48 85 c0             	test   %rax,%rax
   10c65:	0f 84 a6 00 00 00    	je     10d11 <func_41+0x1095>
   10c6b:	0f b6 05 7e a5 00 00 	movzbl 0xa57e(%rip),%eax        # 1b1f0 <g_219>
   10c72:	48 0f be d8          	movsbq %al,%rbx
   10c76:	48 8b 05 9b a4 00 00 	mov    0xa49b(%rip),%rax        # 1b118 <g_88+0x98>
   10c7d:	44 0f bf e0          	movswl %ax,%r12d
   10c81:	0f b6 05 08 a7 00 00 	movzbl 0xa708(%rip),%eax        # 1b390 <g_437>
   10c88:	48 0f be c0          	movsbq %al,%rax
   10c8c:	25 94 a5 00 00       	and    $0xa594,%eax
   10c91:	48 83 c8 03          	or     $0x3,%rax
   10c95:	48 89 c2             	mov    %rax,%rdx
   10c98:	48 b8 d9 be a2 ef 79 	movabs $0xa2f9c379efa2bed9,%rax
   10c9f:	c3 f9 a2 
   10ca2:	48 89 05 37 a5 00 00 	mov    %rax,0xa537(%rip)        # 1b1e0 <g_158>
   10ca9:	48 8b 05 30 a5 00 00 	mov    0xa530(%rip),%rax        # 1b1e0 <g_158>
   10cb0:	48 89 d6             	mov    %rdx,%rsi
   10cb3:	48 89 c7             	mov    %rax,%rdi
   10cb6:	e8 f9 4c ff ff       	callq  59b4 <safe_mod_func_int64_t_s_s>
   10cbb:	48 89 c2             	mov    %rax,%rdx
   10cbe:	48 8b 85 e0 e7 ff ff 	mov    -0x1820(%rbp),%rax
   10cc5:	48 39 c2             	cmp    %rax,%rdx
   10cc8:	0f 97 c0             	seta   %al
   10ccb:	0f b6 d0             	movzbl %al,%edx
   10cce:	48 8b 85 e0 e7 ff ff 	mov    -0x1820(%rbp),%rax
   10cd5:	48 39 c2             	cmp    %rax,%rdx
   10cd8:	0f 94 c0             	sete   %al
   10cdb:	0f b6 c0             	movzbl %al,%eax
   10cde:	44 89 e6             	mov    %r12d,%esi
   10ce1:	89 c7                	mov    %eax,%edi
   10ce3:	e8 2e 47 ff ff       	callq  5416 <safe_mod_func_int16_t_s_s>
   10ce8:	8b 85 5c ee ff ff    	mov    -0x11a4(%rbp),%eax
   10cee:	48 98                	cltq   
   10cf0:	48 89 de             	mov    %rbx,%rsi
   10cf3:	48 89 c7             	mov    %rax,%rdi
   10cf6:	e8 fc 4c ff ff       	callq  59f7 <safe_div_func_int64_t_s_s>
   10cfb:	0f b7 15 e6 a4 00 00 	movzwl 0xa4e6(%rip),%edx        # 1b1e8 <g_167>
   10d02:	0f b7 d2             	movzwl %dx,%edx
   10d05:	48 39 d0             	cmp    %rdx,%rax
   10d08:	74 07                	je     10d11 <func_41+0x1095>
   10d0a:	b8 01 00 00 00       	mov    $0x1,%eax
   10d0f:	eb 05                	jmp    10d16 <func_41+0x109a>
   10d11:	b8 00 00 00 00       	mov    $0x0,%eax
   10d16:	0f b6 c0             	movzbl %al,%eax
   10d19:	be 02 00 00 00       	mov    $0x2,%esi
   10d1e:	89 c7                	mov    %eax,%edi
   10d20:	e8 99 4f ff ff       	callq  5cbe <safe_rshift_func_uint8_t_u_u>
   10d25:	0f b6 d0             	movzbl %al,%edx
   10d28:	48 8b 85 e8 e7 ff ff 	mov    -0x1818(%rbp),%rax
   10d2f:	48 21 d0             	and    %rdx,%rax
   10d32:	31 85 3c e8 ff ff    	xor    %eax,-0x17c4(%rbp)
   10d38:	66 c7 05 57 a6 00 00 	movw   $0xffe3,0xa657(%rip)        # 1b398 <g_461>
   10d3f:	e3 ff 
   10d41:	90                   	nop
   10d42:	0f b7 05 4f a6 00 00 	movzwl 0xa64f(%rip),%eax        # 1b398 <g_461>
   10d49:	66 83 f8 20          	cmp    $0x20,%ax
   10d4d:	0f 86 3c 1e 00 00    	jbe    12b8f <func_41+0x2f13>
   10d53:	66 c7 85 fe e7 ff ff 	movw   $0xffff,-0x1802(%rbp)
   10d5a:	ff ff 
   10d5c:	c7 85 20 e8 ff ff 05 	movl   $0x5,-0x17e0(%rbp)
   10d63:	00 00 00 
   10d66:	c7 85 0c e8 ff ff 7d 	movl   $0x980af87d,-0x17f4(%rbp)
   10d6d:	f8 0a 98 
   10d70:	c7 85 44 e8 ff ff 9e 	movl   $0xa29a3e9e,-0x17bc(%rbp)
   10d77:	3e 9a a2 
   10d7a:	48 b8 1f 97 df 72 23 	movabs $0xc74d192372df971f,%rax
   10d81:	19 4d c7 
   10d84:	48 89 85 98 e9 ff ff 	mov    %rax,-0x1668(%rbp)
   10d8b:	48 8d 85 0c e8 ff ff 	lea    -0x17f4(%rbp),%rax
   10d92:	48 89 85 30 e9 ff ff 	mov    %rax,-0x16d0(%rbp)
   10d99:	48 8d 05 c8 a2 00 00 	lea    0xa2c8(%rip),%rax        # 1b068 <g_86>
   10da0:	48 89 85 38 e9 ff ff 	mov    %rax,-0x16c8(%rbp)
   10da7:	48 8d 85 18 e9 ff ff 	lea    -0x16e8(%rbp),%rax
   10dae:	48 89 85 40 e9 ff ff 	mov    %rax,-0x16c0(%rbp)
   10db5:	66 c7 85 10 eb ff ff 	movw   $0xffff,-0x14f0(%rbp)
   10dbc:	ff ff 
   10dbe:	66 c7 85 12 eb ff ff 	movw   $0x75c2,-0x14ee(%rbp)
   10dc5:	c2 75 
   10dc7:	66 c7 85 14 eb ff ff 	movw   $0x0,-0x14ec(%rbp)
   10dce:	00 00 
   10dd0:	66 c7 85 16 eb ff ff 	movw   $0x75c2,-0x14ea(%rbp)
   10dd7:	c2 75 
   10dd9:	66 c7 85 18 eb ff ff 	movw   $0xffff,-0x14e8(%rbp)
   10de0:	ff ff 
   10de2:	66 c7 85 1a eb ff ff 	movw   $0x75c2,-0x14e6(%rbp)
   10de9:	c2 75 
   10deb:	66 c7 85 1c eb ff ff 	movw   $0x0,-0x14e4(%rbp)
   10df2:	00 00 
   10df4:	66 c7 85 1e eb ff ff 	movw   $0x75c2,-0x14e2(%rbp)
   10dfb:	c2 75 
   10dfd:	66 c7 85 20 eb ff ff 	movw   $0xffff,-0x14e0(%rbp)
   10e04:	ff ff 
   10e06:	66 c7 85 22 eb ff ff 	movw   $0x75c2,-0x14de(%rbp)
   10e0d:	c2 75 
   10e0f:	66 c7 85 24 eb ff ff 	movw   $0x0,-0x14dc(%rbp)
   10e16:	00 00 
   10e18:	66 c7 85 26 eb ff ff 	movw   $0x75c2,-0x14da(%rbp)
   10e1f:	c2 75 
   10e21:	66 c7 85 28 eb ff ff 	movw   $0xffff,-0x14d8(%rbp)
   10e28:	ff ff 
   10e2a:	66 c7 85 2a eb ff ff 	movw   $0x75c2,-0x14d6(%rbp)
   10e31:	c2 75 
   10e33:	66 c7 85 2c eb ff ff 	movw   $0x0,-0x14d4(%rbp)
   10e3a:	00 00 
   10e3c:	66 c7 85 2e eb ff ff 	movw   $0x75c2,-0x14d2(%rbp)
   10e43:	c2 75 
   10e45:	c7 85 48 e8 ff ff fa 	movl   $0xfffffffa,-0x17b8(%rbp)
   10e4c:	ff ff ff 
   10e4f:	48 8d 85 20 e9 ff ff 	lea    -0x16e0(%rbp),%rax
   10e56:	48 89 85 a0 e9 ff ff 	mov    %rax,-0x1660(%rbp)
   10e5d:	c7 85 4c e8 ff ff ff 	movl   $0xffffffff,-0x17b4(%rbp)
   10e64:	ff ff ff 
   10e67:	c7 85 50 e8 ff ff 12 	movl   $0xfbcfd712,-0x17b0(%rbp)
   10e6e:	d7 cf fb 
   10e71:	48 b8 4c b0 76 d6 a9 	movabs $0x8b709ba9d676b04c,%rax
   10e78:	9b 70 8b 
   10e7b:	48 89 85 68 e9 ff ff 	mov    %rax,-0x1698(%rbp)
   10e82:	48 8d 05 83 54 00 00 	lea    0x5483(%rip),%rax        # 1630c <g_291+0x2ac>
   10e89:	48 89 85 a8 e9 ff ff 	mov    %rax,-0x1658(%rbp)
   10e90:	48 8d 05 31 a3 00 00 	lea    0xa331(%rip),%rax        # 1b1c8 <g_94>
   10e97:	48 89 85 b0 e9 ff ff 	mov    %rax,-0x1650(%rbp)
   10e9e:	c7 85 54 e8 ff ff ff 	movl   $0xffffffff,-0x17ac(%rbp)
   10ea5:	ff ff ff 
   10ea8:	c6 85 f9 e7 ff ff 49 	movb   $0x49,-0x1807(%rbp)
   10eaf:	c7 85 24 e8 ff ff 00 	movl   $0x0,-0x17dc(%rbp)
   10eb6:	00 00 00 
   10eb9:	eb 1a                	jmp    10ed5 <func_41+0x1259>
   10ebb:	8b 85 24 e8 ff ff    	mov    -0x17dc(%rbp),%eax
   10ec1:	48 98                	cltq   
   10ec3:	c7 84 85 60 eb ff ff 	movl   $0xfffffff7,-0x14a0(%rbp,%rax,4)
   10eca:	f7 ff ff ff 
   10ece:	83 85 24 e8 ff ff 01 	addl   $0x1,-0x17dc(%rbp)
   10ed5:	83 bd 24 e8 ff ff 08 	cmpl   $0x8,-0x17dc(%rbp)
   10edc:	7e dd                	jle    10ebb <func_41+0x123f>
   10ede:	c7 85 24 e8 ff ff 00 	movl   $0x0,-0x17dc(%rbp)
   10ee5:	00 00 00 
   10ee8:	eb 45                	jmp    10f2f <func_41+0x12b3>
   10eea:	c7 85 28 e8 ff ff 00 	movl   $0x0,-0x17d8(%rbp)
   10ef1:	00 00 00 
   10ef4:	eb 29                	jmp    10f1f <func_41+0x12a3>
   10ef6:	8b 85 28 e8 ff ff    	mov    -0x17d8(%rbp),%eax
   10efc:	48 98                	cltq   
   10efe:	8b 95 24 e8 ff ff    	mov    -0x17dc(%rbp),%edx
   10f04:	48 63 d2             	movslq %edx,%rdx
   10f07:	48 c1 e2 03          	shl    $0x3,%rdx
   10f0b:	48 01 d0             	add    %rdx,%rax
   10f0e:	66 c7 84 45 40 ec ff 	movw   $0x7,-0x13c0(%rbp,%rax,2)
   10f15:	ff 07 00 
   10f18:	83 85 28 e8 ff ff 01 	addl   $0x1,-0x17d8(%rbp)
   10f1f:	83 bd 28 e8 ff ff 07 	cmpl   $0x7,-0x17d8(%rbp)
   10f26:	7e ce                	jle    10ef6 <func_41+0x127a>
   10f28:	83 85 24 e8 ff ff 01 	addl   $0x1,-0x17dc(%rbp)
   10f2f:	83 bd 24 e8 ff ff 06 	cmpl   $0x6,-0x17dc(%rbp)
   10f36:	7e b2                	jle    10eea <func_41+0x126e>
   10f38:	66 c7 05 37 a3 00 00 	movw   $0xfff6,0xa337(%rip)        # 1b278 <g_314>
   10f3f:	f6 ff 
   10f41:	e9 2f 1c 00 00       	jmpq   12b75 <func_41+0x2ef9>
   10f46:	c6 85 fa e7 ff ff fa 	movb   $0xfa,-0x1806(%rbp)
   10f4d:	c7 85 58 e8 ff ff f8 	movl   $0xfffffff8,-0x17a8(%rbp)
   10f54:	ff ff ff 
   10f57:	c7 85 10 e8 ff ff 14 	movl   $0x9d32b514,-0x17f0(%rbp)
   10f5e:	b5 32 9d 
   10f61:	c7 85 5c e8 ff ff d6 	movl   $0x763258d6,-0x17a4(%rbp)
   10f68:	58 32 76 
   10f6b:	c7 85 60 e8 ff ff fb 	movl   $0xfffffffb,-0x17a0(%rbp)
   10f72:	ff ff ff 
   10f75:	c7 85 64 e8 ff ff f4 	movl   $0xcbc052f4,-0x179c(%rbp)
   10f7c:	52 c0 cb 
   10f7f:	48 c7 85 b8 e9 ff ff 	movq   $0x2,-0x1648(%rbp)
   10f86:	02 00 00 00 
   10f8a:	c7 85 40 ed ff ff 00 	movl   $0x3d07be00,-0x12c0(%rbp)
   10f91:	be 07 3d 
   10f94:	c6 85 44 ed ff ff 01 	movb   $0x1,-0x12bc(%rbp)
   10f9b:	c7 85 45 ed ff ff 2d 	movl   $0x64ffff2d,-0x12bb(%rbp)
   10fa2:	ff ff 64 
   10fa5:	c6 85 49 ed ff ff 01 	movb   $0x1,-0x12b7(%rbp)
   10fac:	c7 85 4a ed ff ff 01 	movl   $0xbed4be01,-0x12b6(%rbp)
   10fb3:	be d4 be 
   10fb6:	c6 85 4e ed ff ff 01 	movb   $0x1,-0x12b2(%rbp)
   10fbd:	c7 85 4f ed ff ff 01 	movl   $0xffff6401,-0x12b1(%rbp)
   10fc4:	64 ff ff 
   10fc7:	c6 85 53 ed ff ff 2d 	movb   $0x2d,-0x12ad(%rbp)
   10fce:	c7 85 54 ed ff ff 01 	movl   $0xbe073d01,-0x12ac(%rbp)
   10fd5:	3d 07 be 
   10fd8:	c6 85 58 ed ff ff 00 	movb   $0x0,-0x12a8(%rbp)
   10fdf:	c7 85 59 ed ff ff 2d 	movl   $0x64eb642d,-0x12a7(%rbp)
   10fe6:	64 eb 64 
   10fe9:	c6 85 5d ed ff ff 2d 	movb   $0x2d,-0x12a3(%rbp)
   10ff0:	c7 85 5e ed ff ff 00 	movl   $0x870ff00,-0x12a2(%rbp)
   10ff7:	ff 70 08 
   10ffa:	c6 85 62 ed ff ff 3d 	movb   $0x3d,-0x129e(%rbp)
   11001:	c7 85 63 ed ff ff ff 	movl   $0xff01feff,-0x129d(%rbp)
   11008:	fe 01 ff 
   1100b:	c6 85 67 ed ff ff 2a 	movb   $0x2a,-0x1299(%rbp)
   11012:	c7 85 68 ed ff ff 3d 	movl   $0xffffff3d,-0x1298(%rbp)
   11019:	ff ff ff 
   1101c:	c6 85 6c ed ff ff 3d 	movb   $0x3d,-0x1294(%rbp)
   11023:	c7 85 6d ed ff ff 2a 	movl   $0xfe01ff2a,-0x1293(%rbp)
   1102a:	ff 01 fe 
   1102d:	c6 85 71 ed ff ff ff 	movb   $0xff,-0x128f(%rbp)
   11034:	c7 85 72 ed ff ff 3d 	movl   $0xff70083d,-0x128e(%rbp)
   1103b:	08 70 ff 
   1103e:	c6 85 76 ed ff ff f8 	movb   $0xf8,-0x128a(%rbp)
   11045:	c7 85 77 ed ff ff ff 	movl   $0xff04ffff,-0x1289(%rbp)
   1104c:	ff 04 ff 
   1104f:	c6 85 7b ed ff ff ff 	movb   $0xff,-0x1285(%rbp)
   11056:	c7 85 7c ed ff ff f8 	movl   $0x870fff8,-0x1284(%rbp)
   1105d:	ff 70 08 
   11060:	c6 85 80 ed ff ff 3d 	movb   $0x3d,-0x1280(%rbp)
   11067:	c7 85 81 ed ff ff ff 	movl   $0xff01feff,-0x127f(%rbp)
   1106e:	fe 01 ff 
   11071:	c6 85 85 ed ff ff 2a 	movb   $0x2a,-0x127b(%rbp)
   11078:	c7 85 86 ed ff ff 3d 	movl   $0xffffff3d,-0x127a(%rbp)
   1107f:	ff ff ff 
   11082:	c6 85 8a ed ff ff 3d 	movb   $0x3d,-0x1276(%rbp)
   11089:	c7 85 8b ed ff ff 2a 	movl   $0xfe01ff2a,-0x1275(%rbp)
   11090:	ff 01 fe 
   11093:	c6 85 8f ed ff ff ff 	movb   $0xff,-0x1271(%rbp)
   1109a:	c7 85 90 ed ff ff 3d 	movl   $0xff70083d,-0x1270(%rbp)
   110a1:	08 70 ff 
   110a4:	c6 85 94 ed ff ff f8 	movb   $0xf8,-0x126c(%rbp)
   110ab:	c7 85 95 ed ff ff ff 	movl   $0xff04ffff,-0x126b(%rbp)
   110b2:	ff 04 ff 
   110b5:	c6 85 99 ed ff ff ff 	movb   $0xff,-0x1267(%rbp)
   110bc:	c7 85 9a ed ff ff f8 	movl   $0x870fff8,-0x1266(%rbp)
   110c3:	ff 70 08 
   110c6:	c6 85 9e ed ff ff 3d 	movb   $0x3d,-0x1262(%rbp)
   110cd:	c7 85 9f ed ff ff ff 	movl   $0xff01feff,-0x1261(%rbp)
   110d4:	fe 01 ff 
   110d7:	c6 85 a3 ed ff ff 2a 	movb   $0x2a,-0x125d(%rbp)
   110de:	c7 85 a4 ed ff ff 3d 	movl   $0xffffff3d,-0x125c(%rbp)
   110e5:	ff ff ff 
   110e8:	c6 85 a8 ed ff ff 3d 	movb   $0x3d,-0x1258(%rbp)
   110ef:	c7 85 a9 ed ff ff 2a 	movl   $0xfe01ff2a,-0x1257(%rbp)
   110f6:	ff 01 fe 
   110f9:	c6 85 ad ed ff ff ff 	movb   $0xff,-0x1253(%rbp)
   11100:	c7 85 ae ed ff ff 3d 	movl   $0xff70083d,-0x1252(%rbp)
   11107:	08 70 ff 
   1110a:	c6 85 b2 ed ff ff f8 	movb   $0xf8,-0x124e(%rbp)
   11111:	c7 85 b3 ed ff ff ff 	movl   $0xff04ffff,-0x124d(%rbp)
   11118:	ff 04 ff 
   1111b:	c6 85 b7 ed ff ff ff 	movb   $0xff,-0x1249(%rbp)
   11122:	c7 85 b8 ed ff ff f8 	movl   $0x870fff8,-0x1248(%rbp)
   11129:	ff 70 08 
   1112c:	c6 85 bc ed ff ff 3d 	movb   $0x3d,-0x1244(%rbp)
   11133:	c7 85 bd ed ff ff ff 	movl   $0xff01feff,-0x1243(%rbp)
   1113a:	fe 01 ff 
   1113d:	c6 85 c1 ed ff ff 2a 	movb   $0x2a,-0x123f(%rbp)
   11144:	c7 85 c2 ed ff ff 3d 	movl   $0xffffff3d,-0x123e(%rbp)
   1114b:	ff ff ff 
   1114e:	c6 85 c6 ed ff ff 3d 	movb   $0x3d,-0x123a(%rbp)
   11155:	c7 85 c7 ed ff ff 2a 	movl   $0xfe01ff2a,-0x1239(%rbp)
   1115c:	ff 01 fe 
   1115f:	c6 85 cb ed ff ff ff 	movb   $0xff,-0x1235(%rbp)
   11166:	c7 85 cc ed ff ff 3d 	movl   $0xff70083d,-0x1234(%rbp)
   1116d:	08 70 ff 
   11170:	c6 85 d0 ed ff ff f8 	movb   $0xf8,-0x1230(%rbp)
   11177:	c7 85 d1 ed ff ff ff 	movl   $0xff04ffff,-0x122f(%rbp)
   1117e:	ff 04 ff 
   11181:	c6 85 d5 ed ff ff ff 	movb   $0xff,-0x122b(%rbp)
   11188:	c7 85 d6 ed ff ff f8 	movl   $0x870fff8,-0x122a(%rbp)
   1118f:	ff 70 08 
   11192:	c6 85 da ed ff ff 3d 	movb   $0x3d,-0x1226(%rbp)
   11199:	c7 85 db ed ff ff ff 	movl   $0xff01feff,-0x1225(%rbp)
   111a0:	fe 01 ff 
   111a3:	c6 85 df ed ff ff 2a 	movb   $0x2a,-0x1221(%rbp)
   111aa:	c7 85 e0 ed ff ff 3d 	movl   $0xffffff3d,-0x1220(%rbp)
   111b1:	ff ff ff 
   111b4:	c6 85 e4 ed ff ff 3d 	movb   $0x3d,-0x121c(%rbp)
   111bb:	c7 85 e5 ed ff ff 2a 	movl   $0xfe01ff2a,-0x121b(%rbp)
   111c2:	ff 01 fe 
   111c5:	c6 85 e9 ed ff ff ff 	movb   $0xff,-0x1217(%rbp)
   111cc:	c7 85 ea ed ff ff 3d 	movl   $0xff70083d,-0x1216(%rbp)
   111d3:	08 70 ff 
   111d6:	c6 85 ee ed ff ff f8 	movb   $0xf8,-0x1212(%rbp)
   111dd:	c7 85 ef ed ff ff ff 	movl   $0xff04ffff,-0x1211(%rbp)
   111e4:	ff 04 ff 
   111e7:	c6 85 f3 ed ff ff ff 	movb   $0xff,-0x120d(%rbp)
   111ee:	c7 85 f4 ed ff ff f8 	movl   $0x870fff8,-0x120c(%rbp)
   111f5:	ff 70 08 
   111f8:	c6 85 f8 ed ff ff 3d 	movb   $0x3d,-0x1208(%rbp)
   111ff:	c7 85 f9 ed ff ff ff 	movl   $0xff01feff,-0x1207(%rbp)
   11206:	fe 01 ff 
   11209:	c6 85 fd ed ff ff 2a 	movb   $0x2a,-0x1203(%rbp)
   11210:	c7 85 fe ed ff ff 3d 	movl   $0xffffff3d,-0x1202(%rbp)
   11217:	ff ff ff 
   1121a:	c6 85 02 ee ff ff 3d 	movb   $0x3d,-0x11fe(%rbp)
   11221:	c7 85 03 ee ff ff 2a 	movl   $0xfe01ff2a,-0x11fd(%rbp)
   11228:	ff 01 fe 
   1122b:	c6 85 07 ee ff ff ff 	movb   $0xff,-0x11f9(%rbp)
   11232:	c7 85 08 ee ff ff 3d 	movl   $0xff70083d,-0x11f8(%rbp)
   11239:	08 70 ff 
   1123c:	c6 85 0c ee ff ff f8 	movb   $0xf8,-0x11f4(%rbp)
   11243:	c7 85 0d ee ff ff ff 	movl   $0xff04ffff,-0x11f3(%rbp)
   1124a:	ff 04 ff 
   1124d:	c6 85 11 ee ff ff ff 	movb   $0xff,-0x11ef(%rbp)
   11254:	c7 85 12 ee ff ff f8 	movl   $0x870fff8,-0x11ee(%rbp)
   1125b:	ff 70 08 
   1125e:	c6 85 16 ee ff ff 3d 	movb   $0x3d,-0x11ea(%rbp)
   11265:	c7 85 17 ee ff ff ff 	movl   $0xff01feff,-0x11e9(%rbp)
   1126c:	fe 01 ff 
   1126f:	c6 85 1b ee ff ff 2a 	movb   $0x2a,-0x11e5(%rbp)
   11276:	c7 85 1c ee ff ff 3d 	movl   $0xd400ff3d,-0x11e4(%rbp)
   1127d:	ff 00 d4 
   11280:	c6 85 20 ee ff ff 08 	movb   $0x8,-0x11e0(%rbp)
   11287:	c7 85 21 ee ff ff 00 	movl   $0xfd2deb00,-0x11df(%rbp)
   1128e:	eb 2d fd 
   11291:	c6 85 25 ee ff ff fe 	movb   $0xfe,-0x11db(%rbp)
   11298:	c7 85 26 ee ff ff 08 	movl   $0xd4019108,-0x11da(%rbp)
   1129f:	91 01 d4 
   112a2:	c6 85 2a ee ff ff 07 	movb   $0x7,-0x11d6(%rbp)
   112a9:	c7 85 2b ee ff ff fe 	movl   $0xeb01ebfe,-0x11d5(%rbp)
   112b0:	eb 01 eb 
   112b3:	c6 85 2f ee ff ff fe 	movb   $0xfe,-0x11d1(%rbp)
   112ba:	48 c7 85 48 e9 ff ff 	movq   $0x1,-0x16b8(%rbp)
   112c1:	01 00 00 00 
   112c5:	c7 85 68 e8 ff ff cf 	movl   $0xd0273acf,-0x1798(%rbp)
   112cc:	3a 27 d0 
   112cf:	c7 85 14 e8 ff ff ac 	movl   $0x29e48aac,-0x17ec(%rbp)
   112d6:	8a e4 29 
   112d9:	48 c7 85 c0 e9 ff ff 	movq   $0x0,-0x1640(%rbp)
   112e0:	00 00 00 00 
   112e4:	48 8d 05 8d 9f 00 00 	lea    0x9f8d(%rip),%rax        # 1b278 <g_314>
   112eb:	48 89 85 c8 e9 ff ff 	mov    %rax,-0x1638(%rbp)
   112f2:	48 c7 85 c0 eb ff ff 	movq   $0x0,-0x1440(%rbp)
   112f9:	00 00 00 00 
   112fd:	48 8d 85 10 eb ff ff 	lea    -0x14f0(%rbp),%rax
   11304:	48 83 c0 18          	add    $0x18,%rax
   11308:	48 89 85 c8 eb ff ff 	mov    %rax,-0x1438(%rbp)
   1130f:	48 c7 85 d0 eb ff ff 	movq   $0x0,-0x1430(%rbp)
   11316:	00 00 00 00 
   1131a:	48 c7 85 d8 eb ff ff 	movq   $0x0,-0x1428(%rbp)
   11321:	00 00 00 00 
   11325:	48 8d 85 10 eb ff ff 	lea    -0x14f0(%rbp),%rax
   1132c:	48 83 c0 18          	add    $0x18,%rax
   11330:	48 89 85 e0 eb ff ff 	mov    %rax,-0x1420(%rbp)
   11337:	48 c7 85 e8 eb ff ff 	movq   $0x0,-0x1418(%rbp)
   1133e:	00 00 00 00 
   11342:	48 c7 85 f0 eb ff ff 	movq   $0x0,-0x1410(%rbp)
   11349:	00 00 00 00 
   1134d:	48 8d 05 7c 9e 00 00 	lea    0x9e7c(%rip),%rax        # 1b1d0 <g_105>
   11354:	48 89 85 d0 e9 ff ff 	mov    %rax,-0x1630(%rbp)
   1135b:	48 c7 85 00 ec ff ff 	movq   $0x0,-0x1400(%rbp)
   11362:	00 00 00 00 
   11366:	48 c7 85 08 ec ff ff 	movq   $0x0,-0x13f8(%rbp)
   1136d:	00 00 00 00 
   11371:	48 8d 05 58 9e 00 00 	lea    0x9e58(%rip),%rax        # 1b1d0 <g_105>
   11378:	48 89 85 10 ec ff ff 	mov    %rax,-0x13f0(%rbp)
   1137f:	48 c7 85 18 ec ff ff 	movq   $0x0,-0x13e8(%rbp)
   11386:	00 00 00 00 
   1138a:	48 c7 85 20 ec ff ff 	movq   $0x0,-0x13e0(%rbp)
   11391:	00 00 00 00 
   11395:	48 8d 05 34 9e 00 00 	lea    0x9e34(%rip),%rax        # 1b1d0 <g_105>
   1139c:	48 89 85 28 ec ff ff 	mov    %rax,-0x13d8(%rbp)
   113a3:	48 c7 85 30 ec ff ff 	movq   $0x0,-0x13d0(%rbp)
   113aa:	00 00 00 00 
   113ae:	48 b8 3c a5 a6 c1 1f 	movabs $0xcbb8621fc1a6a53c,%rax
   113b5:	62 b8 cb 
   113b8:	48 89 85 d8 e9 ff ff 	mov    %rax,-0x1628(%rbp)
   113bf:	48 8d 05 c2 9e 00 00 	lea    0x9ec2(%rip),%rax        # 1b288 <g_370>
   113c6:	48 89 85 80 ef ff ff 	mov    %rax,-0x1080(%rbp)
   113cd:	48 8d 85 fe e7 ff ff 	lea    -0x1802(%rbp),%rax
   113d4:	48 89 85 88 ef ff ff 	mov    %rax,-0x1078(%rbp)
   113db:	48 8d 05 a6 9e 00 00 	lea    0x9ea6(%rip),%rax        # 1b288 <g_370>
   113e2:	48 89 85 90 ef ff ff 	mov    %rax,-0x1070(%rbp)
   113e9:	48 c7 85 98 ef ff ff 	movq   $0x0,-0x1068(%rbp)
   113f0:	00 00 00 00 
   113f4:	48 8d 85 fe e7 ff ff 	lea    -0x1802(%rbp),%rax
   113fb:	48 89 85 a0 ef ff ff 	mov    %rax,-0x1060(%rbp)
   11402:	48 8d 05 7f 9e 00 00 	lea    0x9e7f(%rip),%rax        # 1b288 <g_370>
   11409:	48 89 85 a8 ef ff ff 	mov    %rax,-0x1058(%rbp)
   11410:	48 8d 85 fe e7 ff ff 	lea    -0x1802(%rbp),%rax
   11417:	48 89 85 b0 ef ff ff 	mov    %rax,-0x1050(%rbp)
   1141e:	48 8d 85 fe e7 ff ff 	lea    -0x1802(%rbp),%rax
   11425:	48 89 85 b8 ef ff ff 	mov    %rax,-0x1048(%rbp)
   1142c:	48 c7 85 c0 ef ff ff 	movq   $0x0,-0x1040(%rbp)
   11433:	00 00 00 00 
   11437:	48 c7 85 c8 ef ff ff 	movq   $0x0,-0x1038(%rbp)
   1143e:	00 00 00 00 
   11442:	48 8d 85 fe e7 ff ff 	lea    -0x1802(%rbp),%rax
   11449:	48 89 85 d0 ef ff ff 	mov    %rax,-0x1030(%rbp)
   11450:	48 8d 85 fe e7 ff ff 	lea    -0x1802(%rbp),%rax
   11457:	48 89 85 d8 ef ff ff 	mov    %rax,-0x1028(%rbp)
   1145e:	48 8d 85 fe e7 ff ff 	lea    -0x1802(%rbp),%rax
   11465:	48 89 85 e0 ef ff ff 	mov    %rax,-0x1020(%rbp)
   1146c:	48 c7 85 e8 ef ff ff 	movq   $0x0,-0x1018(%rbp)
   11473:	00 00 00 00 
   11477:	48 8d 05 0a 9e 00 00 	lea    0x9e0a(%rip),%rax        # 1b288 <g_370>
   1147e:	48 89 85 f0 ef ff ff 	mov    %rax,-0x1010(%rbp)
   11485:	48 8d 05 fc 9d 00 00 	lea    0x9dfc(%rip),%rax        # 1b288 <g_370>
   1148c:	48 89 85 f8 ef ff ff 	mov    %rax,-0x1008(%rbp)
   11493:	48 8d 05 ee 9d 00 00 	lea    0x9dee(%rip),%rax        # 1b288 <g_370>
   1149a:	48 89 85 00 f0 ff ff 	mov    %rax,-0x1000(%rbp)
   114a1:	48 c7 85 08 f0 ff ff 	movq   $0x0,-0xff8(%rbp)
   114a8:	00 00 00 00 
   114ac:	48 8d 05 d5 9d 00 00 	lea    0x9dd5(%rip),%rax        # 1b288 <g_370>
   114b3:	48 89 85 10 f0 ff ff 	mov    %rax,-0xff0(%rbp)
   114ba:	48 8d 05 c7 9d 00 00 	lea    0x9dc7(%rip),%rax        # 1b288 <g_370>
   114c1:	48 89 85 18 f0 ff ff 	mov    %rax,-0xfe8(%rbp)
   114c8:	48 8d 05 b9 9d 00 00 	lea    0x9db9(%rip),%rax        # 1b288 <g_370>
   114cf:	48 89 85 20 f0 ff ff 	mov    %rax,-0xfe0(%rbp)
   114d6:	48 8d 05 ab 9d 00 00 	lea    0x9dab(%rip),%rax        # 1b288 <g_370>
   114dd:	48 89 85 28 f0 ff ff 	mov    %rax,-0xfd8(%rbp)
   114e4:	48 c7 85 30 f0 ff ff 	movq   $0x0,-0xfd0(%rbp)
   114eb:	00 00 00 00 
   114ef:	48 8d 85 fe e7 ff ff 	lea    -0x1802(%rbp),%rax
   114f6:	48 89 85 38 f0 ff ff 	mov    %rax,-0xfc8(%rbp)
   114fd:	48 c7 85 40 f0 ff ff 	movq   $0x0,-0xfc0(%rbp)
   11504:	00 00 00 00 
   11508:	48 8d 05 79 9d 00 00 	lea    0x9d79(%rip),%rax        # 1b288 <g_370>
   1150f:	48 89 85 48 f0 ff ff 	mov    %rax,-0xfb8(%rbp)
   11516:	48 8d 05 6b 9d 00 00 	lea    0x9d6b(%rip),%rax        # 1b288 <g_370>
   1151d:	48 89 85 50 f0 ff ff 	mov    %rax,-0xfb0(%rbp)
   11524:	48 c7 85 58 f0 ff ff 	movq   $0x0,-0xfa8(%rbp)
   1152b:	00 00 00 00 
   1152f:	48 8d 85 fe e7 ff ff 	lea    -0x1802(%rbp),%rax
   11536:	48 89 85 60 f0 ff ff 	mov    %rax,-0xfa0(%rbp)
   1153d:	48 8d 85 fe e7 ff ff 	lea    -0x1802(%rbp),%rax
   11544:	48 89 85 68 f0 ff ff 	mov    %rax,-0xf98(%rbp)
   1154b:	48 8d 85 fe e7 ff ff 	lea    -0x1802(%rbp),%rax
   11552:	48 89 85 70 f0 ff ff 	mov    %rax,-0xf90(%rbp)
   11559:	48 8d 05 28 9d 00 00 	lea    0x9d28(%rip),%rax        # 1b288 <g_370>
   11560:	48 89 85 78 f0 ff ff 	mov    %rax,-0xf88(%rbp)
   11567:	48 8d 05 1a 9d 00 00 	lea    0x9d1a(%rip),%rax        # 1b288 <g_370>
   1156e:	48 89 85 80 f0 ff ff 	mov    %rax,-0xf80(%rbp)
   11575:	48 8d 85 fe e7 ff ff 	lea    -0x1802(%rbp),%rax
   1157c:	48 89 85 88 f0 ff ff 	mov    %rax,-0xf78(%rbp)
   11583:	48 8d 85 fe e7 ff ff 	lea    -0x1802(%rbp),%rax
   1158a:	48 89 85 90 f0 ff ff 	mov    %rax,-0xf70(%rbp)
   11591:	48 c7 85 98 f0 ff ff 	movq   $0x0,-0xf68(%rbp)
   11598:	00 00 00 00 
   1159c:	48 8d 85 fe e7 ff ff 	lea    -0x1802(%rbp),%rax
   115a3:	48 89 85 a0 f0 ff ff 	mov    %rax,-0xf60(%rbp)
   115aa:	48 8d 85 fe e7 ff ff 	lea    -0x1802(%rbp),%rax
   115b1:	48 89 85 a8 f0 ff ff 	mov    %rax,-0xf58(%rbp)
   115b8:	48 8d 85 fe e7 ff ff 	lea    -0x1802(%rbp),%rax
   115bf:	48 89 85 b0 f0 ff ff 	mov    %rax,-0xf50(%rbp)
   115c6:	48 8d 85 fe e7 ff ff 	lea    -0x1802(%rbp),%rax
   115cd:	48 89 85 b8 f0 ff ff 	mov    %rax,-0xf48(%rbp)
   115d4:	48 c7 85 c0 f0 ff ff 	movq   $0x0,-0xf40(%rbp)
   115db:	00 00 00 00 
   115df:	48 8d 85 fe e7 ff ff 	lea    -0x1802(%rbp),%rax
   115e6:	48 89 85 c8 f0 ff ff 	mov    %rax,-0xf38(%rbp)
   115ed:	48 8d 85 fe e7 ff ff 	lea    -0x1802(%rbp),%rax
   115f4:	48 89 85 d0 f0 ff ff 	mov    %rax,-0xf30(%rbp)
   115fb:	48 8d 05 86 9c 00 00 	lea    0x9c86(%rip),%rax        # 1b288 <g_370>
   11602:	48 89 85 d8 f0 ff ff 	mov    %rax,-0xf28(%rbp)
   11609:	48 8d 05 78 9c 00 00 	lea    0x9c78(%rip),%rax        # 1b288 <g_370>
   11610:	48 89 85 e0 f0 ff ff 	mov    %rax,-0xf20(%rbp)
   11617:	48 8d 85 fe e7 ff ff 	lea    -0x1802(%rbp),%rax
   1161e:	48 89 85 e8 f0 ff ff 	mov    %rax,-0xf18(%rbp)
   11625:	48 8d 85 fe e7 ff ff 	lea    -0x1802(%rbp),%rax
   1162c:	48 89 85 f0 f0 ff ff 	mov    %rax,-0xf10(%rbp)
   11633:	48 8d 85 fe e7 ff ff 	lea    -0x1802(%rbp),%rax
   1163a:	48 89 85 f8 f0 ff ff 	mov    %rax,-0xf08(%rbp)
   11641:	48 8d 05 40 9c 00 00 	lea    0x9c40(%rip),%rax        # 1b288 <g_370>
   11648:	48 89 85 00 f1 ff ff 	mov    %rax,-0xf00(%rbp)
   1164f:	48 8d 05 32 9c 00 00 	lea    0x9c32(%rip),%rax        # 1b288 <g_370>
   11656:	48 89 85 08 f1 ff ff 	mov    %rax,-0xef8(%rbp)
   1165d:	48 8d 05 24 9c 00 00 	lea    0x9c24(%rip),%rax        # 1b288 <g_370>
   11664:	48 89 85 10 f1 ff ff 	mov    %rax,-0xef0(%rbp)
   1166b:	48 c7 85 18 f1 ff ff 	movq   $0x0,-0xee8(%rbp)
   11672:	00 00 00 00 
   11676:	48 8d 85 fe e7 ff ff 	lea    -0x1802(%rbp),%rax
   1167d:	48 89 85 20 f1 ff ff 	mov    %rax,-0xee0(%rbp)
   11684:	48 c7 85 28 f1 ff ff 	movq   $0x0,-0xed8(%rbp)
   1168b:	00 00 00 00 
   1168f:	48 8d 05 f2 9b 00 00 	lea    0x9bf2(%rip),%rax        # 1b288 <g_370>
   11696:	48 89 85 30 f1 ff ff 	mov    %rax,-0xed0(%rbp)
   1169d:	48 8d 05 e4 9b 00 00 	lea    0x9be4(%rip),%rax        # 1b288 <g_370>
   116a4:	48 89 85 38 f1 ff ff 	mov    %rax,-0xec8(%rbp)
   116ab:	48 8d 05 d6 9b 00 00 	lea    0x9bd6(%rip),%rax        # 1b288 <g_370>
   116b2:	48 89 85 40 f1 ff ff 	mov    %rax,-0xec0(%rbp)
   116b9:	48 8d 05 c8 9b 00 00 	lea    0x9bc8(%rip),%rax        # 1b288 <g_370>
   116c0:	48 89 85 48 f1 ff ff 	mov    %rax,-0xeb8(%rbp)
   116c7:	48 8d 05 ba 9b 00 00 	lea    0x9bba(%rip),%rax        # 1b288 <g_370>
   116ce:	48 89 85 50 f1 ff ff 	mov    %rax,-0xeb0(%rbp)
   116d5:	48 8d 05 ac 9b 00 00 	lea    0x9bac(%rip),%rax        # 1b288 <g_370>
   116dc:	48 89 85 58 f1 ff ff 	mov    %rax,-0xea8(%rbp)
   116e3:	48 8d 05 9e 9b 00 00 	lea    0x9b9e(%rip),%rax        # 1b288 <g_370>
   116ea:	48 89 85 60 f1 ff ff 	mov    %rax,-0xea0(%rbp)
   116f1:	48 8d 05 90 9b 00 00 	lea    0x9b90(%rip),%rax        # 1b288 <g_370>
   116f8:	48 89 85 68 f1 ff ff 	mov    %rax,-0xe98(%rbp)
   116ff:	48 8d 05 82 9b 00 00 	lea    0x9b82(%rip),%rax        # 1b288 <g_370>
   11706:	48 89 85 70 f1 ff ff 	mov    %rax,-0xe90(%rbp)
   1170d:	48 8d 85 fe e7 ff ff 	lea    -0x1802(%rbp),%rax
   11714:	48 89 85 78 f1 ff ff 	mov    %rax,-0xe88(%rbp)
   1171b:	48 8d 85 fe e7 ff ff 	lea    -0x1802(%rbp),%rax
   11722:	48 89 85 80 f1 ff ff 	mov    %rax,-0xe80(%rbp)
   11729:	48 8d 85 fe e7 ff ff 	lea    -0x1802(%rbp),%rax
   11730:	48 89 85 88 f1 ff ff 	mov    %rax,-0xe78(%rbp)
   11737:	48 c7 85 90 f1 ff ff 	movq   $0x0,-0xe70(%rbp)
   1173e:	00 00 00 00 
   11742:	48 c7 85 98 f1 ff ff 	movq   $0x0,-0xe68(%rbp)
   11749:	00 00 00 00 
   1174d:	48 8d 85 fe e7 ff ff 	lea    -0x1802(%rbp),%rax
   11754:	48 89 85 a0 f1 ff ff 	mov    %rax,-0xe60(%rbp)
   1175b:	48 8d 85 fe e7 ff ff 	lea    -0x1802(%rbp),%rax
   11762:	48 89 85 a8 f1 ff ff 	mov    %rax,-0xe58(%rbp)
   11769:	c7 85 6c e8 ff ff 01 	movl   $0x1,-0x1794(%rbp)
   11770:	00 00 00 
   11773:	c7 85 70 e8 ff ff fd 	movl   $0xfffffffd,-0x1790(%rbp)
   1177a:	ff ff ff 
   1177d:	48 8d 85 40 e9 ff ff 	lea    -0x16c0(%rbp),%rax
   11784:	48 89 85 e0 e9 ff ff 	mov    %rax,-0x1620(%rbp)
   1178b:	48 c7 85 50 e9 ff ff 	movq   $0x0,-0x16b0(%rbp)
   11792:	00 00 00 00 
   11796:	48 8d 85 50 e9 ff ff 	lea    -0x16b0(%rbp),%rax
   1179d:	48 89 85 e8 e9 ff ff 	mov    %rax,-0x1618(%rbp)
   117a4:	c7 85 3c e8 ff ff 00 	movl   $0x0,-0x17c4(%rbp)
   117ab:	00 00 00 
   117ae:	e9 f1 07 00 00       	jmpq   11fa4 <func_41+0x2328>
   117b3:	c7 85 2c e8 ff ff 01 	movl   $0x1,-0x17d4(%rbp)
   117ba:	00 00 00 
   117bd:	c7 85 30 e8 ff ff ee 	movl   $0x26ac05ee,-0x17d0(%rbp)
   117c4:	05 ac 26 
   117c7:	c7 85 74 e8 ff ff ff 	movl   $0xffffffff,-0x178c(%rbp)
   117ce:	ff ff ff 
   117d1:	c7 85 60 e9 ff ff 20 	movl   $0x5db8d120,-0x16a0(%rbp)
   117d8:	d1 b8 5d 
   117db:	c7 85 78 e8 ff ff 4d 	movl   $0x55fa594d,-0x1788(%rbp)
   117e2:	59 fa 55 
   117e5:	c7 85 7c e8 ff ff 1e 	movl   $0x6913a91e,-0x1784(%rbp)
   117ec:	a9 13 69 
   117ef:	c7 85 80 e8 ff ff e8 	movl   $0x4901b9e8,-0x1780(%rbp)
   117f6:	b9 01 49 
   117f9:	48 c7 85 f0 e9 ff ff 	movq   $0x0,-0x1610(%rbp)
   11800:	00 00 00 00 
   11804:	48 8d 85 60 e9 ff ff 	lea    -0x16a0(%rbp),%rax
   1180b:	48 89 85 f8 e9 ff ff 	mov    %rax,-0x1608(%rbp)
   11812:	48 8d 05 bf 99 00 00 	lea    0x99bf(%rip),%rax        # 1b1d8 <g_120>
   11819:	48 89 85 00 ea ff ff 	mov    %rax,-0x1600(%rbp)
   11820:	c6 85 f5 e7 ff ff fd 	movb   $0xfd,-0x180b(%rbp)
   11827:	48 8d 85 fe e7 ff ff 	lea    -0x1802(%rbp),%rax
   1182e:	48 89 85 08 ea ff ff 	mov    %rax,-0x15f8(%rbp)
   11835:	c7 85 84 e8 ff ff 7d 	movl   $0x1ff43a7d,-0x177c(%rbp)
   1183c:	3a f4 1f 
   1183f:	48 8b 05 92 ae 00 00 	mov    0xae92(%rip),%rax        # 1c6d8 <g_93>
   11846:	8b 00                	mov    (%rax),%eax
   11848:	88 85 fa e7 ff ff    	mov    %al,-0x1806(%rbp)
   1184e:	c7 85 2c e8 ff ff 78 	movl   $0xb0cac378,-0x17d4(%rbp)
   11855:	c3 ca b0 
   11858:	48 8b 85 e8 e7 ff ff 	mov    -0x1818(%rbp),%rax
   1185f:	48 25 78 c3 ca b0    	and    $0xffffffffb0cac378,%rax
   11865:	48 85 c0             	test   %rax,%rax
   11868:	0f 84 ed 01 00 00    	je     11a5b <func_41+0x1ddf>
   1186e:	c6 85 fb e7 ff ff 41 	movb   $0x41,-0x1805(%rbp)
   11875:	c7 85 88 e8 ff ff 69 	movl   $0x566fa669,-0x1778(%rbp)
   1187c:	a6 6f 56 
   1187f:	c7 85 8c e8 ff ff f7 	movl   $0xfffffff7,-0x1774(%rbp)
   11886:	ff ff ff 
   11889:	c7 85 90 e8 ff ff 09 	movl   $0x9,-0x1770(%rbp)
   11890:	00 00 00 
   11893:	c7 85 94 e8 ff ff ff 	movl   $0xffffffff,-0x176c(%rbp)
   1189a:	ff ff ff 
   1189d:	c7 85 98 e8 ff ff 54 	movl   $0xa7f49254,-0x1768(%rbp)
   118a4:	92 f4 a7 
   118a7:	48 8d 85 18 e9 ff ff 	lea    -0x16e8(%rbp),%rax
   118ae:	48 89 85 28 ea ff ff 	mov    %rax,-0x15d8(%rbp)
   118b5:	48 8d 85 30 e9 ff ff 	lea    -0x16d0(%rbp),%rax
   118bc:	48 89 85 30 ea ff ff 	mov    %rax,-0x15d0(%rbp)
   118c3:	8b 05 f3 62 00 00    	mov    0x62f3(%rip),%eax        # 17bbc <l_507.5250+0xdc>
   118c9:	89 c3                	mov    %eax,%ebx
   118cb:	8b 05 87 97 00 00    	mov    0x9787(%rip),%eax        # 1b058 <g_84>
   118d1:	0f b7 d0             	movzwl %ax,%edx
   118d4:	66 c7 05 f3 98 00 00 	movw   $0x8,0x98f3(%rip)        # 1b1d0 <g_105>
   118db:	08 00 
   118dd:	b8 01 00 00 00       	mov    $0x1,%eax
   118e2:	0f b7 c0             	movzwl %ax,%eax
   118e5:	89 d6                	mov    %edx,%esi
   118e7:	89 c7                	mov    %eax,%edi
   118e9:	e8 6e 44 ff ff       	callq  5d5c <safe_mod_func_uint16_t_u_u>
   118ee:	48 8b 05 4b ae 00 00 	mov    0xae4b(%rip),%rax        # 1c740 <g_392>
   118f5:	48 8b 00             	mov    (%rax),%rax
   118f8:	66 83 bd dc e7 ff ff 	cmpw   $0x0,-0x1824(%rbp)
   118ff:	00 
   11900:	75 07                	jne    11909 <func_41+0x1c8d>
   11902:	ba 01 00 00 00       	mov    $0x1,%edx
   11907:	eb 05                	jmp    1190e <func_41+0x1c92>
   11909:	ba 00 00 00 00       	mov    $0x0,%edx
   1190e:	0f bf 85 dc e7 ff ff 	movswl -0x1824(%rbp),%eax
   11915:	21 d0                	and    %edx,%eax
   11917:	85 c0                	test   %eax,%eax
   11919:	74 10                	je     1192b <func_41+0x1caf>
   1191b:	83 bd 2c e8 ff ff 00 	cmpl   $0x0,-0x17d4(%rbp)
   11922:	74 07                	je     1192b <func_41+0x1caf>
   11924:	b8 01 00 00 00       	mov    $0x1,%eax
   11929:	eb 05                	jmp    11930 <func_41+0x1cb4>
   1192b:	b8 00 00 00 00       	mov    $0x0,%eax
   11930:	83 f8 01             	cmp    $0x1,%eax
   11933:	0f 95 c0             	setne  %al
   11936:	0f b6 d0             	movzbl %al,%edx
   11939:	8b 05 7d 62 00 00    	mov    0x627d(%rip),%eax        # 17bbc <l_507.5250+0xdc>
   1193f:	39 c2                	cmp    %eax,%edx
   11941:	0f 9e c0             	setle  %al
   11944:	0f b6 c0             	movzbl %al,%eax
   11947:	89 de                	mov    %ebx,%esi
   11949:	89 c7                	mov    %eax,%edi
   1194b:	e8 1c 3a ff ff       	callq  536c <safe_rshift_func_int8_t_s_u>
   11950:	be bd 97 00 00       	mov    $0x97bd,%esi
   11955:	bf 8e 9c 00 00       	mov    $0x9c8e,%edi
   1195a:	e8 c0 43 ff ff       	callq  5d1f <safe_sub_func_uint16_t_u_u>
   1195f:	66 85 c0             	test   %ax,%ax
   11962:	74 47                	je     119ab <func_41+0x1d2f>
   11964:	c7 85 b4 e8 ff ff 01 	movl   $0x1,-0x174c(%rbp)
   1196b:	00 00 00 
   1196e:	c7 85 b8 e8 ff ff 08 	movl   $0x8,-0x1748(%rbp)
   11975:	00 00 00 
   11978:	c7 85 bc e8 ff ff 03 	movl   $0x3,-0x1744(%rbp)
   1197f:	00 00 00 
   11982:	c7 85 c0 e8 ff ff 00 	movl   $0x0,-0x1740(%rbp)
   11989:	00 00 00 
   1198c:	0f b6 85 2e ee ff ff 	movzbl -0x11d2(%rbp),%eax
   11993:	83 e8 01             	sub    $0x1,%eax
   11996:	88 85 2e ee ff ff    	mov    %al,-0x11d2(%rbp)
   1199c:	8b 05 1a 62 00 00    	mov    0x621a(%rip),%eax        # 17bbc <l_507.5250+0xdc>
   119a2:	85 c0                	test   %eax,%eax
   119a4:	74 5b                	je     11a01 <func_41+0x1d85>
   119a6:	e9 06 06 00 00       	jmpq   11fb1 <func_41+0x2335>
   119ab:	c6 85 fc e7 ff ff ff 	movb   $0xff,-0x1804(%rbp)
   119b2:	c7 85 9c e8 ff ff ff 	movl   $0xffffffff,-0x1764(%rbp)
   119b9:	ff ff ff 
   119bc:	c7 85 a0 e8 ff ff 08 	movl   $0xf51d9008,-0x1760(%rbp)
   119c3:	90 1d f5 
   119c6:	c7 85 a4 e8 ff ff fd 	movl   $0xfffffffd,-0x175c(%rbp)
   119cd:	ff ff ff 
   119d0:	c7 85 a8 e8 ff ff 00 	movl   $0x0,-0x1758(%rbp)
   119d7:	00 00 00 
   119da:	c7 85 ac e8 ff ff 00 	movl   $0x0,-0x1754(%rbp)
   119e1:	00 00 00 
   119e4:	c7 85 b0 e8 ff ff df 	movl   $0x89fedbdf,-0x1750(%rbp)
   119eb:	db fe 89 
   119ee:	80 ad f6 e7 ff ff 01 	subb   $0x1,-0x180a(%rbp)
   119f5:	48 8b 85 20 e9 ff ff 	mov    -0x16e0(%rbp),%rax
   119fc:	e9 9d 11 00 00       	jmpq   12b9e <func_41+0x2f22>
   11a01:	0f b7 05 e0 97 00 00 	movzwl 0x97e0(%rip),%eax        # 1b1e8 <g_167>
   11a08:	66 85 c0             	test   %ax,%ax
   11a0b:	0f 85 58 11 00 00    	jne    12b69 <func_41+0x2eed>
   11a11:	48 8b 85 28 ea ff ff 	mov    -0x15d8(%rbp),%rax
   11a18:	48 8d 95 b0 ea ff ff 	lea    -0x1550(%rbp),%rdx
   11a1f:	48 83 c2 08          	add    $0x8,%rdx
   11a23:	48 89 10             	mov    %rdx,(%rax)
   11a26:	48 8b 85 28 ea ff ff 	mov    -0x15d8(%rbp),%rax
   11a2d:	48 8b 08             	mov    (%rax),%rcx
   11a30:	0f bf 85 dc e7 ff ff 	movswl -0x1824(%rbp),%eax
   11a37:	48 8d 95 40 ed ff ff 	lea    -0x12c0(%rbp),%rdx
   11a3e:	48 83 c2 66          	add    $0x66,%rdx
   11a42:	48 89 ce             	mov    %rcx,%rsi
   11a45:	89 c7                	mov    %eax,%edi
   11a47:	e8 fd 27 00 00       	callq  14249 <func_57>
   11a4c:	48 8b 95 30 ea ff ff 	mov    -0x15d0(%rbp),%rdx
   11a53:	48 89 02             	mov    %rax,(%rdx)
   11a56:	e9 b8 00 00 00       	jmpq   11b13 <func_41+0x1e97>
   11a5b:	48 c7 85 10 ea ff ff 	movq   $0x1,-0x15f0(%rbp)
   11a62:	01 00 00 00 
   11a66:	48 8d 05 7b 97 00 00 	lea    0x977b(%rip),%rax        # 1b1e8 <g_167>
   11a6d:	48 89 85 18 ea ff ff 	mov    %rax,-0x15e8(%rbp)
   11a74:	48 8d 05 b5 ac 00 00 	lea    0xacb5(%rip),%rax        # 1c730 <g_372>
   11a7b:	48 89 85 20 ea ff ff 	mov    %rax,-0x15e0(%rbp)
   11a82:	48 8b 05 9f ae 00 00 	mov    0xae9f(%rip),%rax        # 1c928 <g_556>
   11a89:	48 8b 95 f0 e9 ff ff 	mov    -0x1610(%rbp),%rdx
   11a90:	48 89 10             	mov    %rdx,(%rax)
   11a93:	48 c7 85 10 ea ff ff 	movq   $0x0,-0x15f0(%rbp)
   11a9a:	00 00 00 00 
   11a9e:	48 8b 85 e8 e7 ff ff 	mov    -0x1818(%rbp),%rax
   11aa5:	be 00 00 00 00       	mov    $0x0,%esi
   11aaa:	89 c7                	mov    %eax,%edi
   11aac:	e8 05 3b ff ff       	callq  55b6 <safe_add_func_int32_t_s_s>
   11ab1:	89 c2                	mov    %eax,%edx
   11ab3:	48 8b 85 e8 e7 ff ff 	mov    -0x1818(%rbp),%rax
   11aba:	21 d0                	and    %edx,%eax
   11abc:	98                   	cwtl   
   11abd:	be 01 00 00 00       	mov    $0x1,%esi
   11ac2:	89 c7                	mov    %eax,%edi
   11ac4:	e8 0a 39 ff ff       	callq  53d3 <safe_sub_func_int16_t_s_s>
   11ac9:	48 8b 85 18 ea ff ff 	mov    -0x15e8(%rbp),%rax
   11ad0:	0f b7 00             	movzwl (%rax),%eax
   11ad3:	8d 50 ff             	lea    -0x1(%rax),%edx
   11ad6:	48 8b 85 18 ea ff ff 	mov    -0x15e8(%rbp),%rax
   11add:	66 89 10             	mov    %dx,(%rax)
   11ae0:	0f b6 05 d6 96 00 00 	movzbl 0x96d6(%rip),%eax        # 1b1bd <g_91+0x1d>
   11ae7:	66 98                	cbtw   
   11ae9:	66 39 85 dc e7 ff ff 	cmp    %ax,-0x1824(%rbp)
   11af0:	0f 95 c0             	setne  %al
   11af3:	0f b6 c0             	movzbl %al,%eax
   11af6:	be 0f 00 00 00       	mov    $0xf,%esi
   11afb:	89 c7                	mov    %eax,%edi
   11afd:	e8 78 43 ff ff       	callq  5e7a <safe_rshift_func_uint16_t_u_u>
   11b02:	48 8b 85 20 ea ff ff 	mov    -0x15e0(%rbp),%rax
   11b09:	48 8b 95 f8 e9 ff ff 	mov    -0x1608(%rbp),%rdx
   11b10:	48 89 10             	mov    %rdx,(%rax)
   11b13:	c7 85 30 e8 ff ff 00 	movl   $0x0,-0x17d0(%rbp)
   11b1a:	00 00 00 
   11b1d:	e9 6e 04 00 00       	jmpq   11f90 <func_41+0x2314>
   11b22:	c7 85 c4 e8 ff ff fa 	movl   $0xfffffffa,-0x173c(%rbp)
   11b29:	ff ff ff 
   11b2c:	c7 85 c8 e8 ff ff ff 	movl   $0xffffffff,-0x1738(%rbp)
   11b33:	ff ff ff 
   11b36:	c7 85 cc e8 ff ff fc 	movl   $0xfffffffc,-0x1734(%rbp)
   11b3d:	ff ff ff 
   11b40:	c7 85 d0 e8 ff ff 06 	movl   $0x6,-0x1730(%rbp)
   11b47:	00 00 00 
   11b4a:	c7 85 d4 e8 ff ff cc 	movl   $0xc54240cc,-0x172c(%rbp)
   11b51:	40 42 c5 
   11b54:	c7 85 d8 e8 ff ff 00 	movl   $0x0,-0x1728(%rbp)
   11b5b:	00 00 00 
   11b5e:	c7 85 dc e8 ff ff 3f 	movl   $0x9c14093f,-0x1724(%rbp)
   11b65:	09 14 9c 
   11b68:	48 8d 05 71 96 00 00 	lea    0x9671(%rip),%rax        # 1b1e0 <g_158>
   11b6f:	48 89 85 38 ea ff ff 	mov    %rax,-0x15c8(%rbp)
   11b76:	c6 85 fd e7 ff ff 3e 	movb   $0x3e,-0x1803(%rbp)
   11b7d:	8b 05 d5 94 00 00    	mov    0x94d5(%rip),%eax        # 1b058 <g_84>
   11b83:	48 63 d8             	movslq %eax,%rbx
   11b86:	44 8b a5 c4 e8 ff ff 	mov    -0x173c(%rbp),%r12d
   11b8d:	8b 85 c4 e8 ff ff    	mov    -0x173c(%rbp),%eax
   11b93:	4c 63 e8             	movslq %eax,%r13
   11b96:	0f b7 85 dc e7 ff ff 	movzwl -0x1824(%rbp),%eax
   11b9d:	44 0f b6 f0          	movzbl %al,%r14d
   11ba1:	48 0f bf 85 dc e7 ff 	movswq -0x1824(%rbp),%rax
   11ba8:	ff 
   11ba9:	48 89 85 d0 e7 ff ff 	mov    %rax,-0x1830(%rbp)
   11bb0:	0f b7 85 24 eb ff ff 	movzwl -0x14dc(%rbp),%eax
   11bb7:	66 85 c0             	test   %ax,%ax
   11bba:	75 51                	jne    11c0d <func_41+0x1f91>
   11bbc:	48 8b 05 bd ab 00 00 	mov    0xabbd(%rip),%rax        # 1c780 <g_429>
   11bc3:	48 8b 00             	mov    (%rax),%rax
   11bc6:	0f b6 00             	movzbl (%rax),%eax
   11bc9:	44 0f b6 f8          	movzbl %al,%r15d
   11bcd:	0f b7 85 dc e7 ff ff 	movzwl -0x1824(%rbp),%eax
   11bd4:	0f be d0             	movsbl %al,%edx
   11bd7:	48 8b 85 e8 e7 ff ff 	mov    -0x1818(%rbp),%rax
   11bde:	0f be c0             	movsbl %al,%eax
   11be1:	89 d6                	mov    %edx,%esi
   11be3:	89 c7                	mov    %eax,%edi
   11be5:	e8 80 36 ff ff       	callq  526a <safe_div_func_int8_t_s_s>
   11bea:	0f b6 c0             	movzbl %al,%eax
   11bed:	44 89 fe             	mov    %r15d,%esi
   11bf0:	89 c7                	mov    %eax,%edi
   11bf2:	e8 c7 40 ff ff       	callq  5cbe <safe_rshift_func_uint8_t_u_u>
   11bf7:	48 c7 c6 f8 ff ff ff 	mov    $0xfffffffffffffff8,%rsi
   11bfe:	bf 01 00 00 00       	mov    $0x1,%edi
   11c03:	e8 ef 3d ff ff       	callq  59f7 <safe_div_func_int64_t_s_s>
   11c08:	48 85 c0             	test   %rax,%rax
   11c0b:	74 07                	je     11c14 <func_41+0x1f98>
   11c0d:	b8 01 00 00 00       	mov    $0x1,%eax
   11c12:	eb 05                	jmp    11c19 <func_41+0x1f9d>
   11c14:	b8 00 00 00 00       	mov    $0x0,%eax
   11c19:	48 98                	cltq   
   11c1b:	48 89 85 e8 e7 ff ff 	mov    %rax,-0x1818(%rbp)
   11c22:	48 8b 85 e8 e7 ff ff 	mov    -0x1818(%rbp),%rax
   11c29:	48 0b 85 d0 e7 ff ff 	or     -0x1830(%rbp),%rax
   11c30:	be 01 00 00 00       	mov    $0x1,%esi
   11c35:	48 89 c7             	mov    %rax,%rdi
   11c38:	e8 72 44 ff ff       	callq  60af <safe_div_func_uint64_t_u_u>
   11c3d:	48 83 f8 09          	cmp    $0x9,%rax
   11c41:	0f 97 c0             	seta   %al
   11c44:	0f b6 d0             	movzbl %al,%edx
   11c47:	48 8b 85 48 e9 ff ff 	mov    -0x16b8(%rbp),%rax
   11c4e:	48 39 c2             	cmp    %rax,%rdx
   11c51:	0f 95 c0             	setne  %al
   11c54:	0f b6 c0             	movzbl %al,%eax
   11c57:	44 89 f6             	mov    %r14d,%esi
   11c5a:	89 c7                	mov    %eax,%edi
   11c5c:	e8 32 3f ff ff       	callq  5b93 <safe_mul_func_uint8_t_u_u>
   11c61:	0f b6 d0             	movzbl %al,%edx
   11c64:	0f bf 85 dc e7 ff ff 	movswl -0x1824(%rbp),%eax
   11c6b:	39 c2                	cmp    %eax,%edx
   11c6d:	0f 94 c0             	sete   %al
   11c70:	0f b6 c0             	movzbl %al,%eax
   11c73:	be f9 7a b7 03       	mov    $0x3b77af9,%esi
   11c78:	89 c7                	mov    %eax,%edi
   11c7a:	e8 39 42 ff ff       	callq  5eb8 <safe_add_func_uint32_t_u_u>
   11c7f:	0f be c0             	movsbl %al,%eax
   11c82:	be 05 00 00 00       	mov    $0x5,%esi
   11c87:	89 c7                	mov    %eax,%edi
   11c89:	e8 60 36 ff ff       	callq  52ee <safe_lshift_func_int8_t_s_u>
   11c8e:	0f be c0             	movsbl %al,%eax
   11c91:	89 c6                	mov    %eax,%esi
   11c93:	bf 4a bf ff ff       	mov    $0xffffbf4a,%edi
   11c98:	e8 36 37 ff ff       	callq  53d3 <safe_sub_func_int16_t_s_s>
   11c9d:	66 85 c0             	test   %ax,%ax
   11ca0:	75 09                	jne    11cab <func_41+0x202f>
   11ca2:	83 bd 64 e8 ff ff 00 	cmpl   $0x0,-0x179c(%rbp)
   11ca9:	74 14                	je     11cbf <func_41+0x2043>
   11cab:	48 8b 85 f8 e9 ff ff 	mov    -0x1608(%rbp),%rax
   11cb2:	8b 00                	mov    (%rax),%eax
   11cb4:	85 c0                	test   %eax,%eax
   11cb6:	74 07                	je     11cbf <func_41+0x2043>
   11cb8:	b8 01 00 00 00       	mov    $0x1,%eax
   11cbd:	eb 05                	jmp    11cc4 <func_41+0x2048>
   11cbf:	b8 00 00 00 00       	mov    $0x0,%eax
   11cc4:	48 98                	cltq   
   11cc6:	4c 89 ee             	mov    %r13,%rsi
   11cc9:	48 89 c7             	mov    %rax,%rdi
   11ccc:	e8 26 3d ff ff       	callq  59f7 <safe_div_func_int64_t_s_s>
   11cd1:	44 89 e6             	mov    %r12d,%esi
   11cd4:	89 c7                	mov    %eax,%edi
   11cd6:	e8 4a 42 ff ff       	callq  5f25 <safe_div_func_uint32_t_u_u>
   11cdb:	48 8b 05 5e aa 00 00 	mov    0xaa5e(%rip),%rax        # 1c740 <g_392>
   11ce2:	48 8b 00             	mov    (%rax),%rax
   11ce5:	48 85 c0             	test   %rax,%rax
   11ce8:	48 89 de             	mov    %rbx,%rsi
   11ceb:	bf 00 00 00 00       	mov    $0x0,%edi
   11cf0:	e8 bf 3c ff ff       	callq  59b4 <safe_mod_func_int64_t_s_s>
   11cf5:	48 ba ed 25 83 f0 c9 	movabs $0xbfc6c8c9f08325ed,%rdx
   11cfc:	c8 c6 bf 
   11cff:	48 39 d0             	cmp    %rdx,%rax
   11d02:	48 8b 85 40 e9 ff ff 	mov    -0x16c0(%rbp),%rax
   11d09:	48 85 c0             	test   %rax,%rax
   11d0c:	0f 94 c0             	sete   %al
   11d0f:	0f b6 c0             	movzbl %al,%eax
   11d12:	09 85 2c e8 ff ff    	or     %eax,-0x17d4(%rbp)
   11d18:	83 bd 2c e8 ff ff 00 	cmpl   $0x0,-0x17d4(%rbp)
   11d1f:	0f 84 9f 00 00 00    	je     11dc4 <func_41+0x2148>
   11d25:	c7 85 e0 e8 ff ff 08 	movl   $0x8,-0x1720(%rbp)
   11d2c:	00 00 00 
   11d2f:	c7 85 90 eb ff ff a8 	movl   $0xce65f8a8,-0x1470(%rbp)
   11d36:	f8 65 ce 
   11d39:	c7 85 94 eb ff ff c4 	movl   $0x449045c4,-0x146c(%rbp)
   11d40:	45 90 44 
   11d43:	c7 85 98 eb ff ff a8 	movl   $0xce65f8a8,-0x1468(%rbp)
   11d4a:	f8 65 ce 
   11d4d:	c7 85 9c eb ff ff a8 	movl   $0xce65f8a8,-0x1464(%rbp)
   11d54:	f8 65 ce 
   11d57:	c7 85 a0 eb ff ff c4 	movl   $0x449045c4,-0x1460(%rbp)
   11d5e:	45 90 44 
   11d61:	c7 85 a4 eb ff ff a8 	movl   $0xce65f8a8,-0x145c(%rbp)
   11d68:	f8 65 ce 
   11d6b:	c7 85 a8 eb ff ff a8 	movl   $0xce65f8a8,-0x1458(%rbp)
   11d72:	f8 65 ce 
   11d75:	c7 85 ac eb ff ff c4 	movl   $0x449045c4,-0x1454(%rbp)
   11d7c:	45 90 44 
   11d7f:	c7 85 b0 eb ff ff a8 	movl   $0xce65f8a8,-0x1450(%rbp)
   11d86:	f8 65 ce 
   11d89:	c7 85 b4 eb ff ff a8 	movl   $0xce65f8a8,-0x144c(%rbp)
   11d90:	f8 65 ce 
   11d93:	c7 85 b8 eb ff ff c4 	movl   $0x449045c4,-0x1448(%rbp)
   11d9a:	45 90 44 
   11d9d:	c7 85 bc eb ff ff a8 	movl   $0xce65f8a8,-0x1444(%rbp)
   11da4:	f8 65 ce 
   11da7:	0f b7 85 a2 ec ff ff 	movzwl -0x135e(%rbp),%eax
   11dae:	83 c0 01             	add    $0x1,%eax
   11db1:	66 89 85 a2 ec ff ff 	mov    %ax,-0x135e(%rbp)
   11db8:	c6 05 91 92 00 00 00 	movb   $0x0,0x9291(%rip)        # 1b050 <g_28>
   11dbf:	e9 6d 01 00 00       	jmpq   11f31 <func_41+0x22b5>
   11dc4:	48 8b 85 20 e9 ff ff 	mov    -0x16e0(%rbp),%rax
   11dcb:	e9 ce 0d 00 00       	jmpq   12b9e <func_41+0x2f22>
   11dd0:	66 c7 85 04 e8 ff ff 	movw   $0xffff,-0x17fc(%rbp)
   11dd7:	ff ff 
   11dd9:	48 8d 85 38 e9 ff ff 	lea    -0x16c8(%rbp),%rax
   11de0:	48 89 85 40 ea ff ff 	mov    %rax,-0x15c0(%rbp)
   11de7:	66 83 85 04 e8 ff ff 	addw   $0x1,-0x17fc(%rbp)
   11dee:	01 
   11def:	be 06 00 00 00       	mov    $0x6,%esi
   11df4:	bf ab 00 00 00       	mov    $0xab,%edi
   11df9:	e8 c0 3e ff ff       	callq  5cbe <safe_rshift_func_uint8_t_u_u>
   11dfe:	0f b6 d8             	movzbl %al,%ebx
   11e01:	48 8b 85 f8 e9 ff ff 	mov    -0x1608(%rbp),%rax
   11e08:	8b 00                	mov    (%rax),%eax
   11e0a:	89 c6                	mov    %eax,%esi
   11e0c:	0f b6 05 3d 92 00 00 	movzbl 0x923d(%rip),%eax        # 1b050 <g_28>
   11e13:	0f be c0             	movsbl %al,%eax
   11e16:	8d 50 02             	lea    0x2(%rax),%edx
   11e19:	0f b6 05 30 92 00 00 	movzbl 0x9230(%rip),%eax        # 1b050 <g_28>
   11e20:	0f be c0             	movsbl %al,%eax
   11e23:	48 63 c8             	movslq %eax,%rcx
   11e26:	48 63 d2             	movslq %edx,%rdx
   11e29:	48 89 d0             	mov    %rdx,%rax
   11e2c:	48 01 c0             	add    %rax,%rax
   11e2f:	48 01 d0             	add    %rdx,%rax
   11e32:	48 01 c8             	add    %rcx,%rax
   11e35:	48 8d 14 c5 00 00 00 	lea    0x0(,%rax,8),%rdx
   11e3c:	00 
   11e3d:	48 8d 05 5c 94 00 00 	lea    0x945c(%rip),%rax        # 1b2a0 <g_393>
   11e44:	48 8b 04 02          	mov    (%rdx,%rax,1),%rax
   11e48:	48 8d 85 e8 e7 ff ff 	lea    -0x1818(%rbp),%rax
   11e4f:	48 39 85 38 ea ff ff 	cmp    %rax,-0x15c8(%rbp)
   11e56:	0f 95 c0             	setne  %al
   11e59:	0f b6 d0             	movzbl %al,%edx
   11e5c:	48 83 bd 80 e9 ff ff 	cmpq   $0x0,-0x1680(%rbp)
   11e63:	00 
   11e64:	0f 94 c0             	sete   %al
   11e67:	0f b6 c8             	movzbl %al,%ecx
   11e6a:	48 8d 05 2b 95 00 00 	lea    0x952b(%rip),%rax        # 1b39c <g_623>
   11e71:	48 39 85 c0 e9 ff ff 	cmp    %rax,-0x1640(%rbp)
   11e78:	0f 95 c0             	setne  %al
   11e7b:	0f b6 c0             	movzbl %al,%eax
   11e7e:	39 c1                	cmp    %eax,%ecx
   11e80:	0f 9f c0             	setg   %al
   11e83:	0f b6 c0             	movzbl %al,%eax
   11e86:	39 c2                	cmp    %eax,%edx
   11e88:	0f 9d c0             	setge  %al
   11e8b:	0f b6 c0             	movzbl %al,%eax
   11e8e:	33 85 c8 e8 ff ff    	xor    -0x1738(%rbp),%eax
   11e94:	0b 85 5c e8 ff ff    	or     -0x17a4(%rbp),%eax
   11e9a:	89 c7                	mov    %eax,%edi
   11e9c:	e8 17 40 ff ff       	callq  5eb8 <safe_add_func_uint32_t_u_u>
   11ea1:	39 c3                	cmp    %eax,%ebx
   11ea3:	0f 97 c0             	seta   %al
   11ea6:	0f b6 c0             	movzbl %al,%eax
   11ea9:	20 85 f5 e7 ff ff    	and    %al,-0x180b(%rbp)
   11eaf:	83 bd 84 e8 ff ff 00 	cmpl   $0x0,-0x177c(%rbp)
   11eb6:	75 4c                	jne    11f04 <func_41+0x2288>
   11eb8:	0f b6 9d fd e7 ff ff 	movzbl -0x1803(%rbp),%ebx
   11ebf:	48 8d 85 10 eb ff ff 	lea    -0x14f0(%rbp),%rax
   11ec6:	48 83 c0 14          	add    $0x14,%rax
   11eca:	48 89 85 e0 eb ff ff 	mov    %rax,-0x1420(%rbp)
   11ed1:	48 8b 85 e0 eb ff ff 	mov    -0x1420(%rbp),%rax
   11ed8:	48 39 85 c8 e9 ff ff 	cmp    %rax,-0x1638(%rbp)
   11edf:	0f 94 c0             	sete   %al
   11ee2:	0f b6 c0             	movzbl %al,%eax
   11ee5:	be 01 00 00 00       	mov    $0x1,%esi
   11eea:	89 c7                	mov    %eax,%edi
   11eec:	e8 4c 3e ff ff       	callq  5d3d <safe_mul_func_uint16_t_u_u>
   11ef1:	0f b6 c0             	movzbl %al,%eax
   11ef4:	89 de                	mov    %ebx,%esi
   11ef6:	89 c7                	mov    %eax,%edi
   11ef8:	e8 de 3c ff ff       	callq  5bdb <safe_div_func_uint8_t_u_u>
   11efd:	b8 00 00 00 00       	mov    $0x0,%eax
   11f02:	eb 05                	jmp    11f09 <func_41+0x228d>
   11f04:	b8 01 00 00 00       	mov    $0x1,%eax
   11f09:	f7 d0                	not    %eax
   11f0b:	89 c2                	mov    %eax,%edx
   11f0d:	48 8b 85 f8 e9 ff ff 	mov    -0x1608(%rbp),%rax
   11f14:	8b 00                	mov    (%rax),%eax
   11f16:	09 c2                	or     %eax,%edx
   11f18:	48 8b 85 f8 e9 ff ff 	mov    -0x1608(%rbp),%rax
   11f1f:	89 10                	mov    %edx,(%rax)
   11f21:	0f b6 05 28 91 00 00 	movzbl 0x9128(%rip),%eax        # 1b050 <g_28>
   11f28:	83 c0 01             	add    $0x1,%eax
   11f2b:	88 05 1f 91 00 00    	mov    %al,0x911f(%rip)        # 1b050 <g_28>
   11f31:	0f b6 05 18 91 00 00 	movzbl 0x9118(%rip),%eax        # 1b050 <g_28>
   11f38:	3c 02                	cmp    $0x2,%al
   11f3a:	0f 8e 90 fe ff ff    	jle    11dd0 <func_41+0x2154>
   11f40:	0f b7 05 51 94 00 00 	movzwl 0x9451(%rip),%eax        # 1b398 <g_461>
   11f47:	66 85 c0             	test   %ax,%ax
   11f4a:	0f 85 1f 0c 00 00    	jne    12b6f <func_41+0x2ef3>
   11f50:	48 8b 85 30 e9 ff ff 	mov    -0x16d0(%rbp),%rax
   11f57:	8b 00                	mov    (%rax),%eax
   11f59:	48 63 d0             	movslq %eax,%rdx
   11f5c:	48 8b 85 e8 e7 ff ff 	mov    -0x1818(%rbp),%rax
   11f63:	48 39 c2             	cmp    %rax,%rdx
   11f66:	0f 9f c0             	setg   %al
   11f69:	0f b6 c0             	movzbl %al,%eax
   11f6c:	31 85 20 e8 ff ff    	xor    %eax,-0x17e0(%rbp)
   11f72:	8b 85 30 e8 ff ff    	mov    -0x17d0(%rbp),%eax
   11f78:	0f b6 c0             	movzbl %al,%eax
   11f7b:	be 04 00 00 00       	mov    $0x4,%esi
   11f80:	89 c7                	mov    %eax,%edi
   11f82:	e8 f1 3b ff ff       	callq  5b78 <safe_sub_func_uint8_t_u_u>
   11f87:	0f b6 c0             	movzbl %al,%eax
   11f8a:	89 85 30 e8 ff ff    	mov    %eax,-0x17d0(%rbp)
   11f90:	83 bd 30 e8 ff ff f1 	cmpl   $0xfffffff1,-0x17d0(%rbp)
   11f97:	0f 8c 85 fb ff ff    	jl     11b22 <func_41+0x1ea6>
   11f9d:	83 ad 3c e8 ff ff 01 	subl   $0x1,-0x17c4(%rbp)
   11fa4:	83 bd 3c e8 ff ff ee 	cmpl   $0xffffffee,-0x17c4(%rbp)
   11fab:	0f 8c 02 f8 ff ff    	jl     117b3 <func_41+0x1b37>
   11fb1:	48 8b 85 d8 e9 ff ff 	mov    -0x1628(%rbp),%rax
   11fb8:	0f b7 d8             	movzwl %ax,%ebx
   11fbb:	48 8b 85 e0 e7 ff ff 	mov    -0x1820(%rbp),%rax
   11fc2:	0f b6 c0             	movzbl %al,%eax
   11fc5:	be d6 00 00 00       	mov    $0xd6,%esi
   11fca:	89 c7                	mov    %eax,%edi
   11fcc:	e8 89 3b ff ff       	callq  5b5a <safe_add_func_uint8_t_u_u>
   11fd1:	0f b6 d0             	movzbl %al,%edx
   11fd4:	48 8b 85 e0 e7 ff ff 	mov    -0x1820(%rbp),%rax
   11fdb:	48 39 c2             	cmp    %rax,%rdx
   11fde:	0f 97 c0             	seta   %al
   11fe1:	0f b6 c0             	movzbl %al,%eax
   11fe4:	89 de                	mov    %ebx,%esi
   11fe6:	89 c7                	mov    %eax,%edi
   11fe8:	e8 32 3d ff ff       	callq  5d1f <safe_sub_func_uint16_t_u_u>
   11fed:	0f b7 c0             	movzwl %ax,%eax
   11ff0:	89 85 68 e8 ff ff    	mov    %eax,-0x1798(%rbp)
   11ff6:	81 bd 68 e8 ff ff 9c 	cmpl   $0xa49c,-0x1798(%rbp)
   11ffd:	a4 00 00 
   12000:	0f 9e c0             	setle  %al
   12003:	0f b6 d8             	movzbl %al,%ebx
   12006:	0f b6 05 e3 91 00 00 	movzbl 0x91e3(%rip),%eax        # 1b1f0 <g_219>
   1200d:	66 98                	cbtw   
   1200f:	0f b7 c0             	movzwl %ax,%eax
   12012:	be 0a 00 00 00       	mov    $0xa,%esi
   12017:	89 c7                	mov    %eax,%edi
   12019:	e8 a0 3d ff ff       	callq  5dbe <safe_lshift_func_uint16_t_u_s>
   1201e:	44 0f b7 e0          	movzwl %ax,%r12d
   12022:	c7 85 0c e8 ff ff 01 	movl   $0x1,-0x17f4(%rbp)
   12029:	00 00 00 
   1202c:	0f bf 85 dc e7 ff ff 	movswl -0x1824(%rbp),%eax
   12033:	39 85 40 e8 ff ff    	cmp    %eax,-0x17c0(%rbp)
   12039:	0f 94 c0             	sete   %al
   1203c:	89 c2                	mov    %eax,%edx
   1203e:	0f b6 85 f4 e7 ff ff 	movzbl -0x180c(%rbp),%eax
   12045:	31 d0                	xor    %edx,%eax
   12047:	88 85 f4 e7 ff ff    	mov    %al,-0x180c(%rbp)
   1204d:	0f b6 95 f4 e7 ff ff 	movzbl -0x180c(%rbp),%edx
   12054:	0f bf 85 dc e7 ff ff 	movswl -0x1824(%rbp),%eax
   1205b:	89 d6                	mov    %edx,%esi
   1205d:	89 c7                	mov    %eax,%edi
   1205f:	e8 c1 3e ff ff       	callq  5f25 <safe_div_func_uint32_t_u_u>
   12064:	83 f8 01             	cmp    $0x1,%eax
   12067:	0f 94 c0             	sete   %al
   1206a:	0f b6 d0             	movzbl %al,%edx
   1206d:	48 8b 85 e0 e7 ff ff 	mov    -0x1820(%rbp),%rax
   12074:	48 89 d6             	mov    %rdx,%rsi
   12077:	48 89 c7             	mov    %rax,%rdi
   1207a:	e8 af 3f ff ff       	callq  602e <safe_add_func_uint64_t_u_u>
   1207f:	49 39 c4             	cmp    %rax,%r12
   12082:	0f 96 c0             	setbe  %al
   12085:	0f b6 c0             	movzbl %al,%eax
   12088:	89 de                	mov    %ebx,%esi
   1208a:	89 c7                	mov    %eax,%edi
   1208c:	e8 81 31 ff ff       	callq  5212 <safe_mul_func_int8_t_s_s>
   12091:	48 8b 85 78 e9 ff ff 	mov    -0x1688(%rbp),%rax
   12098:	48 8b 00             	mov    (%rax),%rax
   1209b:	48 85 c0             	test   %rax,%rax
   1209e:	0f 94 c0             	sete   %al
   120a1:	0f b6 d0             	movzbl %al,%edx
   120a4:	48 8b 05 95 a6 00 00 	mov    0xa695(%rip),%rax        # 1c740 <g_392>
   120ab:	48 8b 00             	mov    (%rax),%rax
   120ae:	48 39 c2             	cmp    %rax,%rdx
   120b1:	0f 93 c0             	setae  %al
   120b4:	0f b6 d0             	movzbl %al,%edx
   120b7:	8b 05 9b 8f 00 00    	mov    0x8f9b(%rip),%eax        # 1b058 <g_84>
   120bd:	39 c2                	cmp    %eax,%edx
   120bf:	75 0a                	jne    120cb <func_41+0x244f>
   120c1:	48 8b 85 e8 e7 ff ff 	mov    -0x1818(%rbp),%rax
   120c8:	48 85 c0             	test   %rax,%rax
   120cb:	0f b6 85 9d ed ff ff 	movzbl -0x1263(%rbp),%eax
   120d2:	f7 d0                	not    %eax
   120d4:	0f be c0             	movsbl %al,%eax
   120d7:	be 07 00 00 00       	mov    $0x7,%esi
   120dc:	89 c7                	mov    %eax,%edi
   120de:	e8 be 31 ff ff       	callq  52a1 <safe_lshift_func_int8_t_s_s>
   120e3:	0f be c0             	movsbl %al,%eax
   120e6:	be 06 00 00 00       	mov    $0x6,%esi
   120eb:	89 c7                	mov    %eax,%edi
   120ed:	e8 fc 31 ff ff       	callq  52ee <safe_lshift_func_int8_t_s_u>
   120f2:	84 c0                	test   %al,%al
   120f4:	0f 84 94 05 00 00    	je     1268e <func_41+0x2a12>
   120fa:	66 c7 85 06 e8 ff ff 	movw   $0x4afb,-0x17fa(%rbp)
   12101:	fb 4a 
   12103:	c7 85 fc e8 ff ff f8 	movl   $0xfffffff8,-0x1704(%rbp)
   1210a:	ff ff ff 
   1210d:	c7 85 00 e9 ff ff 61 	movl   $0x9493f861,-0x1700(%rbp)
   12114:	f8 93 94 
   12117:	c7 85 18 e8 ff ff ff 	movl   $0xffffffff,-0x17e8(%rbp)
   1211e:	ff ff ff 
   12121:	48 8d 85 40 e9 ff ff 	lea    -0x16c0(%rbp),%rax
   12128:	48 89 85 80 ea ff ff 	mov    %rax,-0x1580(%rbp)
   1212f:	48 8d 85 48 e9 ff ff 	lea    -0x16b8(%rbp),%rax
   12136:	48 89 85 88 ea ff ff 	mov    %rax,-0x1578(%rbp)
   1213d:	66 83 bd dc e7 ff ff 	cmpw   $0x0,-0x1824(%rbp)
   12144:	00 
   12145:	0f 84 d6 03 00 00    	je     12521 <func_41+0x28a5>
   1214b:	48 c7 85 98 ea ff ff 	movq   $0xfffffffffffffff9,-0x1568(%rbp)
   12152:	f9 ff ff ff 
   12156:	c7 85 04 e9 ff ff b1 	movl   $0x9e624eb1,-0x16fc(%rbp)
   1215d:	4e 62 9e 
   12160:	c7 85 34 e8 ff ff 00 	movl   $0x0,-0x17cc(%rbp)
   12167:	00 00 00 
   1216a:	eb 14                	jmp    12180 <func_41+0x2504>
   1216c:	8b 85 34 e8 ff ff    	mov    -0x17cc(%rbp),%eax
   12172:	48 98                	cltq   
   12174:	c6 44 05 c5 3e       	movb   $0x3e,-0x3b(%rbp,%rax,1)
   12179:	83 85 34 e8 ff ff 01 	addl   $0x1,-0x17cc(%rbp)
   12180:	83 bd 34 e8 ff ff 02 	cmpl   $0x2,-0x17cc(%rbp)
   12187:	7e e3                	jle    1216c <func_41+0x24f0>
   12189:	48 83 bd 98 ea ff ff 	cmpq   $0x0,-0x1568(%rbp)
   12190:	00 
   12191:	0f 85 ef 09 00 00    	jne    12b86 <func_41+0x2f0a>
   12197:	48 8b 85 e0 e7 ff ff 	mov    -0x1820(%rbp),%rax
   1219e:	48 85 c0             	test   %rax,%rax
   121a1:	74 55                	je     121f8 <func_41+0x257c>
   121a3:	c7 85 08 e9 ff ff 0a 	movl   $0x8b67e00a,-0x16f8(%rbp)
   121aa:	e0 67 8b 
   121ad:	48 8d 05 d4 90 00 00 	lea    0x90d4(%rip),%rax        # 1b288 <g_370>
   121b4:	48 89 85 58 e9 ff ff 	mov    %rax,-0x16a8(%rbp)
   121bb:	48 8d 85 58 e9 ff ff 	lea    -0x16a8(%rbp),%rax
   121c2:	48 89 85 60 e9 ff ff 	mov    %rax,-0x16a0(%rbp)
   121c9:	48 8d 85 60 e9 ff ff 	lea    -0x16a0(%rbp),%rax
   121d0:	48 89 85 a0 ea ff ff 	mov    %rax,-0x1560(%rbp)
   121d7:	83 85 6c e8 ff ff 01 	addl   $0x1,-0x1794(%rbp)
   121de:	83 ad 08 e9 ff ff 01 	subl   $0x1,-0x16f8(%rbp)
   121e5:	48 8b 85 a0 ea ff ff 	mov    -0x1560(%rbp),%rax
   121ec:	48 c7 00 00 00 00 00 	movq   $0x0,(%rax)
   121f3:	e9 f9 00 00 00       	jmpq   122f1 <func_41+0x2675>
   121f8:	66 c7 85 08 e8 ff ff 	movw   $0x0,-0x17f8(%rbp)
   121ff:	00 00 
   12201:	48 83 bd d8 e9 ff ff 	cmpq   $0x0,-0x1628(%rbp)
   12208:	00 
   12209:	74 05                	je     12210 <func_41+0x2594>
   1220b:	e9 3a ea ff ff       	jmpq   10c4a <func_41+0xfce>
   12210:	0f b6 45 c7          	movzbl -0x39(%rbp),%eax
   12214:	83 c0 01             	add    $0x1,%eax
   12217:	88 45 c7             	mov    %al,-0x39(%rbp)
   1221a:	48 8b 85 e0 e7 ff ff 	mov    -0x1820(%rbp),%rax
   12221:	48 85 c0             	test   %rax,%rax
   12224:	0f 95 c0             	setne  %al
   12227:	0f b6 c0             	movzbl %al,%eax
   1222a:	39 85 4c e8 ff ff    	cmp    %eax,-0x17b4(%rbp)
   12230:	0f 95 c0             	setne  %al
   12233:	0f b6 c0             	movzbl %al,%eax
   12236:	be 0f af 00 00       	mov    $0xaf0f,%esi
   1223b:	89 c7                	mov    %eax,%edi
   1223d:	e8 bd 3a ff ff       	callq  5cff <safe_add_func_uint16_t_u_u>
   12242:	66 85 c0             	test   %ax,%ax
   12245:	0f 84 9d 00 00 00    	je     122e8 <func_41+0x266c>
   1224b:	8b 85 70 e8 ff ff    	mov    -0x1790(%rbp),%eax
   12251:	0f bf d8             	movswl %ax,%ebx
   12254:	0f b7 85 06 e8 ff ff 	movzwl -0x17fa(%rbp),%eax
   1225b:	0f b6 d0             	movzbl %al,%edx
   1225e:	0f b6 45 c7          	movzbl -0x39(%rbp),%eax
   12262:	0f b6 c0             	movzbl %al,%eax
   12265:	89 d6                	mov    %edx,%esi
   12267:	89 c7                	mov    %eax,%edi
   12269:	e8 25 39 ff ff       	callq  5b93 <safe_mul_func_uint8_t_u_u>
   1226e:	0f b6 c0             	movzbl %al,%eax
   12271:	be bb e8 d2 87       	mov    $0x87d2e8bb,%esi
   12276:	89 c7                	mov    %eax,%edi
   12278:	e8 53 3c ff ff       	callq  5ed0 <safe_sub_func_uint32_t_u_u>
   1227d:	85 c0                	test   %eax,%eax
   1227f:	48 8b 85 e8 e7 ff ff 	mov    -0x1818(%rbp),%rax
   12286:	83 e0 01             	and    $0x1,%eax
   12289:	48 85 c0             	test   %rax,%rax
   1228c:	74 13                	je     122a1 <func_41+0x2625>
   1228e:	48 8b 85 e8 e7 ff ff 	mov    -0x1818(%rbp),%rax
   12295:	48 85 c0             	test   %rax,%rax
   12298:	74 07                	je     122a1 <func_41+0x2625>
   1229a:	b8 01 00 00 00       	mov    $0x1,%eax
   1229f:	eb 05                	jmp    122a6 <func_41+0x262a>
   122a1:	b8 00 00 00 00       	mov    $0x0,%eax
   122a6:	48 98                	cltq   
   122a8:	48 39 85 98 ea ff ff 	cmp    %rax,-0x1568(%rbp)
   122af:	0f 97 c0             	seta   %al
   122b2:	0f b6 c0             	movzbl %al,%eax
   122b5:	8b 95 64 e8 ff ff    	mov    -0x179c(%rbp),%edx
   122bb:	89 d6                	mov    %edx,%esi
   122bd:	89 c7                	mov    %eax,%edi
   122bf:	e8 41 33 ff ff       	callq  5605 <safe_sub_func_int32_t_s_s>
   122c4:	89 c2                	mov    %eax,%edx
   122c6:	48 8b 85 20 e9 ff ff 	mov    -0x16e0(%rbp),%rax
   122cd:	89 10                	mov    %edx,(%rax)
   122cf:	8b 00                	mov    (%rax),%eax
   122d1:	3d 0d c7 f3 27       	cmp    $0x27f3c70d,%eax
   122d6:	0f 94 c0             	sete   %al
   122d9:	0f b6 c0             	movzbl %al,%eax
   122dc:	89 de                	mov    %ebx,%esi
   122de:	89 c7                	mov    %eax,%edi
   122e0:	e8 70 31 ff ff       	callq  5455 <safe_div_func_int16_t_s_s>
   122e5:	66 85 c0             	test   %ax,%ax
   122e8:	66 c7 85 08 e8 ff ff 	movw   $0x1,-0x17f8(%rbp)
   122ef:	01 00 
   122f1:	48 8b 85 e8 e7 ff ff 	mov    -0x1818(%rbp),%rax
   122f8:	89 c2                	mov    %eax,%edx
   122fa:	8b 85 0c e8 ff ff    	mov    -0x17f4(%rbp),%eax
   12300:	31 d0                	xor    %edx,%eax
   12302:	89 85 0c e8 ff ff    	mov    %eax,-0x17f4(%rbp)
   12308:	8b 85 0c e8 ff ff    	mov    -0x17f4(%rbp),%eax
   1230e:	85 c0                	test   %eax,%eax
   12310:	0f 84 0f 01 00 00    	je     12425 <func_41+0x27a9>
   12316:	48 8d 05 1b a4 00 00 	lea    0xa41b(%rip),%rax        # 1c738 <g_372+0x8>
   1231d:	48 89 85 a8 ea ff ff 	mov    %rax,-0x1558(%rbp)
   12324:	48 8b 85 30 e9 ff ff 	mov    -0x16d0(%rbp),%rax
   1232b:	44 8b 20             	mov    (%rax),%r12d
   1232e:	be 06 00 00 00       	mov    $0x6,%esi
   12333:	bf f6 00 00 00       	mov    $0xf6,%edi
   12338:	e8 9e 38 ff ff       	callq  5bdb <safe_div_func_uint8_t_u_u>
   1233d:	89 c3                	mov    %eax,%ebx
   1233f:	44 8b 2d 12 8d 00 00 	mov    0x8d12(%rip),%r13d        # 1b058 <g_84>
   12346:	48 8b 85 e8 e7 ff ff 	mov    -0x1818(%rbp),%rax
   1234d:	48 85 c0             	test   %rax,%rax
   12350:	0f 95 c0             	setne  %al
   12353:	0f b6 c0             	movzbl %al,%eax
   12356:	48 8b 95 e8 e7 ff ff 	mov    -0x1818(%rbp),%rdx
   1235d:	89 c6                	mov    %eax,%esi
   1235f:	89 d7                	mov    %edx,%edi
   12361:	e8 99 33 ff ff       	callq  56ff <safe_div_func_int32_t_s_s>
   12366:	41 39 c5             	cmp    %eax,%r13d
   12369:	0f 94 c0             	sete   %al
   1236c:	0f b6 c0             	movzbl %al,%eax
   1236f:	be 00 00 00 00       	mov    $0x0,%esi
   12374:	89 c7                	mov    %eax,%edi
   12376:	e8 12 39 ff ff       	callq  5c8d <safe_rshift_func_uint8_t_u_s>
   1237b:	38 c3                	cmp    %al,%bl
   1237d:	0f 95 c0             	setne  %al
   12380:	0f b6 d0             	movzbl %al,%edx
   12383:	48 8b 85 e8 e7 ff ff 	mov    -0x1818(%rbp),%rax
   1238a:	48 39 c2             	cmp    %rax,%rdx
   1238d:	0f 9e c0             	setle  %al
   12390:	0f b6 c0             	movzbl %al,%eax
   12393:	41 39 c4             	cmp    %eax,%r12d
   12396:	0f 9d c0             	setge  %al
   12399:	0f b6 d0             	movzbl %al,%edx
   1239c:	48 8b 05 9d a3 00 00 	mov    0xa39d(%rip),%rax        # 1c740 <g_392>
   123a3:	48 8b 00             	mov    (%rax),%rax
   123a6:	48 39 c2             	cmp    %rax,%rdx
   123a9:	0f 95 c0             	setne  %al
   123ac:	0f b6 d0             	movzbl %al,%edx
   123af:	48 8b 85 e8 e7 ff ff 	mov    -0x1818(%rbp),%rax
   123b6:	48 39 c2             	cmp    %rax,%rdx
   123b9:	be 11 d2 30 e3       	mov    $0xe330d211,%esi
   123be:	bf 01 00 00 00       	mov    $0x1,%edi
   123c3:	e8 04 33 ff ff       	callq  56cc <safe_mod_func_int32_t_s_s>
   123c8:	89 c2                	mov    %eax,%edx
   123ca:	8b 85 fc e8 ff ff    	mov    -0x1704(%rbp),%eax
   123d0:	89 d6                	mov    %edx,%esi
   123d2:	89 c7                	mov    %eax,%edi
   123d4:	e8 f3 32 ff ff       	callq  56cc <safe_mod_func_int32_t_s_s>
   123d9:	0f bf 95 06 e8 ff ff 	movswl -0x17fa(%rbp),%edx
   123e0:	39 d0                	cmp    %edx,%eax
   123e2:	0f 95 c0             	setne  %al
   123e5:	0f b6 c0             	movzbl %al,%eax
   123e8:	39 85 50 e8 ff ff    	cmp    %eax,-0x17b0(%rbp)
   123ee:	0f 96 c0             	setbe  %al
   123f1:	0f b6 d0             	movzbl %al,%edx
   123f4:	8b 85 18 e8 ff ff    	mov    -0x17e8(%rbp),%eax
   123fa:	31 d0                	xor    %edx,%eax
   123fc:	89 85 18 e8 ff ff    	mov    %eax,-0x17e8(%rbp)
   12402:	48 8b 05 1f a3 00 00 	mov    0xa31f(%rip),%rax        # 1c728 <g_343>
   12409:	48 8d 95 14 e8 ff ff 	lea    -0x17ec(%rbp),%rdx
   12410:	48 89 10             	mov    %rdx,(%rax)
   12413:	48 8b 10             	mov    (%rax),%rdx
   12416:	48 8b 85 a8 ea ff ff 	mov    -0x1558(%rbp),%rax
   1241d:	48 89 10             	mov    %rdx,(%rax)
   12420:	e9 d6 00 00 00       	jmpq   124fb <func_41+0x287f>
   12425:	c7 85 0c e9 ff ff fe 	movl   $0xfffffffe,-0x16f4(%rbp)
   1242c:	ff ff ff 
   1242f:	48 8b 05 9a a2 00 00 	mov    0xa29a(%rip),%rax        # 1c6d0 <g_54>
   12436:	48 8b 00             	mov    (%rax),%rax
   12439:	0f b6 00             	movzbl (%rax),%eax
   1243c:	c7 85 0c e9 ff ff 01 	movl   $0x1,-0x16f4(%rbp)
   12443:	00 00 00 
   12446:	8b 85 00 e9 ff ff    	mov    -0x1700(%rbp),%eax
   1244c:	89 c6                	mov    %eax,%esi
   1244e:	bf 00 00 00 00       	mov    $0x0,%edi
   12453:	e8 ad 37 ff ff       	callq  5c05 <safe_lshift_func_uint8_t_u_s>
   12458:	0f b7 85 dc e7 ff ff 	movzwl -0x1824(%rbp),%eax
   1245f:	0f be d8             	movsbl %al,%ebx
   12462:	0f b6 45 c5          	movzbl -0x3b(%rbp),%eax
   12466:	0f b6 c0             	movzbl %al,%eax
   12469:	89 85 04 e9 ff ff    	mov    %eax,-0x16fc(%rbp)
   1246f:	8b 85 04 e9 ff ff    	mov    -0x16fc(%rbp),%eax
   12475:	0f b6 c0             	movzbl %al,%eax
   12478:	89 c6                	mov    %eax,%esi
   1247a:	bf 00 00 00 00       	mov    $0x0,%edi
   1247f:	e8 2a 37 ff ff       	callq  5bae <safe_mod_func_uint8_t_u_u>
   12484:	0f be c0             	movsbl %al,%eax
   12487:	89 de                	mov    %ebx,%esi
   12489:	89 c7                	mov    %eax,%edi
   1248b:	e8 da 2d ff ff       	callq  526a <safe_div_func_int8_t_s_s>
   12490:	0f b7 95 dc e7 ff ff 	movzwl -0x1824(%rbp),%edx
   12497:	31 d0                	xor    %edx,%eax
   12499:	0f b6 c0             	movzbl %al,%eax
   1249c:	be 65 00 00 00       	mov    $0x65,%esi
   124a1:	89 c7                	mov    %eax,%edi
   124a3:	e8 33 37 ff ff       	callq  5bdb <safe_div_func_uint8_t_u_u>
   124a8:	0f b6 d0             	movzbl %al,%edx
   124ab:	48 8b 85 e8 e7 ff ff 	mov    -0x1818(%rbp),%rax
   124b2:	48 39 c2             	cmp    %rax,%rdx
   124b5:	0f 9f c0             	setg   %al
   124b8:	0f b6 c0             	movzbl %al,%eax
   124bb:	be ff ff ff ff       	mov    $0xffffffff,%esi
   124c0:	89 c7                	mov    %eax,%edi
   124c2:	e8 4b 2d ff ff       	callq  5212 <safe_mul_func_int8_t_s_s>
   124c7:	f7 d0                	not    %eax
   124c9:	c0 e8 07             	shr    $0x7,%al
   124cc:	0f b6 c0             	movzbl %al,%eax
   124cf:	89 85 78 eb ff ff    	mov    %eax,-0x1488(%rbp)
   124d5:	0f b6 05 14 8d 00 00 	movzbl 0x8d14(%rip),%eax        # 1b1f0 <g_219>
   124dc:	84 c0                	test   %al,%al
   124de:	0f 85 74 e7 ff ff    	jne    10c58 <func_41+0xfdc>
   124e4:	48 8b 85 80 ea ff ff 	mov    -0x1580(%rbp),%rax
   124eb:	48 8b 10             	mov    (%rax),%rdx
   124ee:	48 8b 85 40 e9 ff ff 	mov    -0x16c0(%rbp),%rax
   124f5:	48 8b 12             	mov    (%rdx),%rdx
   124f8:	48 89 10             	mov    %rdx,(%rax)
   124fb:	0f b6 45 c7          	movzbl -0x39(%rbp),%eax
   124ff:	0f b6 c0             	movzbl %al,%eax
   12502:	31 85 fc e8 ff ff    	xor    %eax,-0x1704(%rbp)
   12508:	8b 95 fc e8 ff ff    	mov    -0x1704(%rbp),%edx
   1250e:	8b 85 14 e8 ff ff    	mov    -0x17ec(%rbp),%eax
   12514:	09 d0                	or     %edx,%eax
   12516:	89 85 14 e8 ff ff    	mov    %eax,-0x17ec(%rbp)
   1251c:	e9 32 01 00 00       	jmpq   12653 <func_41+0x29d7>
   12521:	48 8d 05 28 3f 00 00 	lea    0x3f28(%rip),%rax        # 16450 <g_730>
   12528:	48 89 85 60 e9 ff ff 	mov    %rax,-0x16a0(%rbp)
   1252f:	48 8d 85 60 e9 ff ff 	lea    -0x16a0(%rbp),%rax
   12536:	48 89 85 90 ea ff ff 	mov    %rax,-0x1570(%rbp)
   1253d:	0f bf 9d dc e7 ff ff 	movswl -0x1824(%rbp),%ebx
   12544:	4c 0f bf a5 dc e7 ff 	movswq -0x1824(%rbp),%r12
   1254b:	ff 
   1254c:	8b 95 70 e8 ff ff    	mov    -0x1790(%rbp),%edx
   12552:	48 8b 85 e8 e7 ff ff 	mov    -0x1818(%rbp),%rax
   12559:	48 39 c2             	cmp    %rax,%rdx
   1255c:	0f 94 c0             	sete   %al
   1255f:	44 0f b6 e8          	movzbl %al,%r13d
   12563:	48 8b 85 e0 e7 ff ff 	mov    -0x1820(%rbp),%rax
   1256a:	89 c6                	mov    %eax,%esi
   1256c:	bf 88 84 ff ff       	mov    $0xffff8488,%edi
   12571:	e8 ed 2f ff ff       	callq  5563 <safe_rshift_func_int16_t_s_u>
   12576:	66 85 c0             	test   %ax,%ax
   12579:	0f 94 c0             	sete   %al
   1257c:	0f b6 d0             	movzbl %al,%edx
   1257f:	48 8b 85 e0 e7 ff ff 	mov    -0x1820(%rbp),%rax
   12586:	48 39 c2             	cmp    %rax,%rdx
   12589:	0f 93 c0             	setae  %al
   1258c:	0f b6 c0             	movzbl %al,%eax
   1258f:	44 89 ee             	mov    %r13d,%esi
   12592:	89 c7                	mov    %eax,%edi
   12594:	e8 e1 38 ff ff       	callq  5e7a <safe_rshift_func_uint16_t_u_u>
   12599:	48 8b 85 30 e9 ff ff 	mov    -0x16d0(%rbp),%rax
   125a0:	8b 00                	mov    (%rax),%eax
   125a2:	48 98                	cltq   
   125a4:	4c 89 e6             	mov    %r12,%rsi
   125a7:	48 89 c7             	mov    %rax,%rdi
   125aa:	e8 f9 32 ff ff       	callq  58a8 <safe_sub_func_int64_t_s_s>
   125af:	89 de                	mov    %ebx,%esi
   125b1:	89 c7                	mov    %eax,%edi
   125b3:	e8 14 31 ff ff       	callq  56cc <safe_mod_func_int32_t_s_s>
   125b8:	0f b6 d8             	movzbl %al,%ebx
   125bb:	0f b7 05 26 8c 00 00 	movzwl 0x8c26(%rip),%eax        # 1b1e8 <g_167>
   125c2:	8d 50 ff             	lea    -0x1(%rax),%edx
   125c5:	66 89 15 1c 8c 00 00 	mov    %dx,0x8c1c(%rip)        # 1b1e8 <g_167>
   125cc:	0f b7 d0             	movzwl %ax,%edx
   125cf:	48 8b 85 90 ea ff ff 	mov    -0x1570(%rbp),%rax
   125d6:	48 c7 00 00 00 00 00 	movq   $0x0,(%rax)
   125dd:	48 8d 85 e0 e7 ff ff 	lea    -0x1820(%rbp),%rax
   125e4:	48 39 85 88 ea ff ff 	cmp    %rax,-0x1578(%rbp)
   125eb:	0f 95 c0             	setne  %al
   125ee:	0f b6 f0             	movzbl %al,%esi
   125f1:	48 8b 85 a0 e9 ff ff 	mov    -0x1660(%rbp),%rax
   125f8:	48 8b 08             	mov    (%rax),%rcx
   125fb:	48 8b 85 78 e9 ff ff 	mov    -0x1688(%rbp),%rax
   12602:	48 89 08             	mov    %rcx,(%rax)
   12605:	48 8b 85 78 e9 ff ff 	mov    -0x1688(%rbp),%rax
   1260c:	48 8b 00             	mov    (%rax),%rax
   1260f:	48 85 c0             	test   %rax,%rax
   12612:	0f 95 c0             	setne  %al
   12615:	0f b6 c0             	movzbl %al,%eax
   12618:	39 85 fc e8 ff ff    	cmp    %eax,-0x1704(%rbp)
   1261e:	0f 9d c0             	setge  %al
   12621:	0f b6 c0             	movzbl %al,%eax
   12624:	39 c6                	cmp    %eax,%esi
   12626:	0f 9c c0             	setl   %al
   12629:	0f b6 c0             	movzbl %al,%eax
   1262c:	89 d6                	mov    %edx,%esi
   1262e:	89 c7                	mov    %eax,%edi
   12630:	e8 d1 37 ff ff       	callq  5e06 <safe_lshift_func_uint16_t_u_u>
   12635:	0f b6 c0             	movzbl %al,%eax
   12638:	89 de                	mov    %ebx,%esi
   1263a:	89 c7                	mov    %eax,%edi
   1263c:	e8 52 35 ff ff       	callq  5b93 <safe_mul_func_uint8_t_u_u>
   12641:	89 c2                	mov    %eax,%edx
   12643:	48 8b 05 96 a0 00 00 	mov    0xa096(%rip),%rax        # 1c6e0 <g_117>
   1264a:	8b 08                	mov    (%rax),%ecx
   1264c:	0f b6 d2             	movzbl %dl,%edx
   1264f:	21 ca                	and    %ecx,%edx
   12651:	89 10                	mov    %edx,(%rax)
   12653:	c7 05 6b 8b 00 00 00 	movl   $0x0,0x8b6b(%rip)        # 1b1c8 <g_94>
   1265a:	00 00 00 
   1265d:	eb 20                	jmp    1267f <func_41+0x2a03>
   1265f:	48 8b 05 c2 a2 00 00 	mov    0xa2c2(%rip),%rax        # 1c928 <g_556>
   12666:	48 8d 95 18 e8 ff ff 	lea    -0x17e8(%rbp),%rdx
   1266d:	48 89 10             	mov    %rdx,(%rax)
   12670:	8b 05 52 8b 00 00    	mov    0x8b52(%rip),%eax        # 1b1c8 <g_94>
   12676:	83 c0 01             	add    $0x1,%eax
   12679:	89 05 49 8b 00 00    	mov    %eax,0x8b49(%rip)        # 1b1c8 <g_94>
   1267f:	8b 05 43 8b 00 00    	mov    0x8b43(%rip),%eax        # 1b1c8 <g_94>
   12685:	85 c0                	test   %eax,%eax
   12687:	7e d6                	jle    1265f <func_41+0x29e3>
   12689:	e9 75 03 00 00       	jmpq   12a03 <func_41+0x2d87>
   1268e:	c7 85 e4 e8 ff ff f7 	movl   $0xfffffff7,-0x171c(%rbp)
   12695:	ff ff ff 
   12698:	c7 85 e8 e8 ff ff 22 	movl   $0x1dc05c22,-0x1718(%rbp)
   1269f:	5c c0 1d 
   126a2:	c7 85 ec e8 ff ff e2 	movl   $0x19043ce2,-0x1714(%rbp)
   126a9:	3c 04 19 
   126ac:	c7 85 f0 e8 ff ff dd 	movl   $0x708a0add,-0x1710(%rbp)
   126b3:	0a 8a 70 
   126b6:	c7 85 f4 e8 ff ff 00 	movl   $0x0,-0x170c(%rbp)
   126bd:	00 00 00 
   126c0:	c7 85 f8 e8 ff ff fe 	movl   $0x766d94fe,-0x1708(%rbp)
   126c7:	94 6d 76 
   126ca:	48 8d 85 40 f8 ff ff 	lea    -0x7c0(%rbp),%rax
   126d1:	48 05 88 06 00 00    	add    $0x688,%rax
   126d7:	48 89 85 48 ea ff ff 	mov    %rax,-0x15b8(%rbp)
   126de:	48 8d 05 03 a0 00 00 	lea    0xa003(%rip),%rax        # 1c6e8 <g_135>
   126e5:	48 89 85 50 ea ff ff 	mov    %rax,-0x15b0(%rbp)
   126ec:	48 8d 05 f5 9f 00 00 	lea    0x9ff5(%rip),%rax        # 1c6e8 <g_135>
   126f3:	48 89 85 58 ea ff ff 	mov    %rax,-0x15a8(%rbp)
   126fa:	48 8d 85 10 e9 ff ff 	lea    -0x16f0(%rbp),%rax
   12701:	48 89 85 60 ea ff ff 	mov    %rax,-0x15a0(%rbp)
   12708:	48 c7 85 68 ea ff ff 	movq   $0x0,-0x1598(%rbp)
   1270f:	00 00 00 00 
   12713:	48 c7 85 70 ea ff ff 	movq   $0x0,-0x1590(%rbp)
   1271a:	00 00 00 00 
   1271e:	c7 85 38 e8 ff ff 00 	movl   $0x0,-0x17c8(%rbp)
   12725:	00 00 00 
   12728:	eb 1a                	jmp    12744 <func_41+0x2ac8>
   1272a:	8b 85 38 e8 ff ff    	mov    -0x17c8(%rbp),%eax
   12730:	48 98                	cltq   
   12732:	c7 84 85 90 eb ff ff 	movl   $0x3c182423,-0x1470(%rbp,%rax,4)
   12739:	23 24 18 3c 
   1273d:	83 85 38 e8 ff ff 01 	addl   $0x1,-0x17c8(%rbp)
   12744:	83 bd 38 e8 ff ff 02 	cmpl   $0x2,-0x17c8(%rbp)
   1274b:	7e dd                	jle    1272a <func_41+0x2aae>
   1274d:	48 83 85 68 e9 ff ff 	addq   $0x1,-0x1698(%rbp)
   12754:	01 
   12755:	48 8b 85 a8 e9 ff ff 	mov    -0x1658(%rbp),%rax
   1275c:	48 89 85 88 e9 ff ff 	mov    %rax,-0x1678(%rbp)
   12763:	48 8b 95 38 fd ff ff 	mov    -0x2c8(%rbp),%rdx
   1276a:	48 8b 85 48 ea ff ff 	mov    -0x15b8(%rbp),%rax
   12771:	48 89 10             	mov    %rdx,(%rax)
   12774:	c7 85 7c eb ff ff fb 	movl   $0xfffffffb,-0x1484(%rbp)
   1277b:	ff ff ff 
   1277e:	48 8b 85 88 e9 ff ff 	mov    -0x1678(%rbp),%rax
   12785:	8b 00                	mov    (%rax),%eax
   12787:	0f b6 d8             	movzbl %al,%ebx
   1278a:	48 8b 85 e8 e7 ff ff 	mov    -0x1818(%rbp),%rax
   12791:	0f be d0             	movsbl %al,%edx
   12794:	48 8b 85 e0 e7 ff ff 	mov    -0x1820(%rbp),%rax
   1279b:	48 f7 d0             	not    %rax
   1279e:	48 89 c1             	mov    %rax,%rcx
   127a1:	8b 85 10 e8 ff ff    	mov    -0x17f0(%rbp),%eax
   127a7:	48 98                	cltq   
   127a9:	48 39 c1             	cmp    %rax,%rcx
   127ac:	0f 94 c0             	sete   %al
   127af:	0f b6 c0             	movzbl %al,%eax
   127b2:	89 d6                	mov    %edx,%esi
   127b4:	89 c7                	mov    %eax,%edi
   127b6:	e8 76 2a ff ff       	callq  5231 <safe_mod_func_int8_t_s_s>
   127bb:	0f b6 c0             	movzbl %al,%eax
   127be:	89 de                	mov    %ebx,%esi
   127c0:	89 c7                	mov    %eax,%edi
   127c2:	e8 cc 33 ff ff       	callq  5b93 <safe_mul_func_uint8_t_u_u>
   127c7:	48 8b 95 10 e9 ff ff 	mov    -0x16f0(%rbp),%rdx
   127ce:	48 8b 85 60 ea ff ff 	mov    -0x15a0(%rbp),%rax
   127d5:	48 89 10             	mov    %rdx,(%rax)
   127d8:	48 8b 85 60 ea ff ff 	mov    -0x15a0(%rbp),%rax
   127df:	48 8b 00             	mov    (%rax),%rax
   127e2:	48 89 85 b0 e9 ff ff 	mov    %rax,-0x1650(%rbp)
   127e9:	48 8d 85 10 e8 ff ff 	lea    -0x17f0(%rbp),%rax
   127f0:	48 39 85 b0 e9 ff ff 	cmp    %rax,-0x1650(%rbp)
   127f7:	48 8d 85 e8 e7 ff ff 	lea    -0x1818(%rbp),%rax
   127fe:	48 39 85 68 ea ff ff 	cmp    %rax,-0x1598(%rbp)
   12805:	48 8b 05 d4 9e 00 00 	mov    0x9ed4(%rip),%rax        # 1c6e0 <g_117>
   1280c:	c7 00 00 00 00 00    	movl   $0x0,(%rax)
   12812:	8b 00                	mov    (%rax),%eax
   12814:	89 85 54 e8 ff ff    	mov    %eax,-0x17ac(%rbp)
   1281a:	8b 05 38 88 00 00    	mov    0x8838(%rip),%eax        # 1b058 <g_84>
   12820:	0f bf d8             	movswl %ax,%ebx
   12823:	48 8b 85 e8 e7 ff ff 	mov    -0x1818(%rbp),%rax
   1282a:	49 89 c7             	mov    %rax,%r15
   1282d:	0f b7 05 bc b1 00 00 	movzwl 0xb1bc(%rip),%eax        # 1d9f0 <g_799>
   12834:	44 0f b7 e0          	movzwl %ax,%r12d
   12838:	48 8b 85 e8 e7 ff ff 	mov    -0x1818(%rbp),%rax
   1283f:	48 89 85 d0 e7 ff ff 	mov    %rax,-0x1830(%rbp)
   12846:	44 0f bf ad dc e7 ff 	movswl -0x1824(%rbp),%r13d
   1284d:	ff 
   1284e:	48 8b 85 e8 e7 ff ff 	mov    -0x1818(%rbp),%rax
   12855:	44 0f be f0          	movsbl %al,%r14d
   12859:	48 8b 05 60 9e 00 00 	mov    0x9e60(%rip),%rax        # 1c6c0 <g_27>
   12860:	0f b6 00             	movzbl (%rax),%eax
   12863:	0f be c0             	movsbl %al,%eax
   12866:	89 c6                	mov    %eax,%esi
   12868:	bf ff ff ff ff       	mov    $0xffffffff,%edi
   1286d:	e8 f8 29 ff ff       	callq  526a <safe_div_func_int8_t_s_s>
   12872:	3c 09                	cmp    $0x9,%al
   12874:	0f 95 c0             	setne  %al
   12877:	0f b6 d0             	movzbl %al,%edx
   1287a:	48 8b 85 e8 e7 ff ff 	mov    -0x1818(%rbp),%rax
   12881:	0f b6 c0             	movzbl %al,%eax
   12884:	89 d6                	mov    %edx,%esi
   12886:	89 c7                	mov    %eax,%edi
   12888:	e8 06 33 ff ff       	callq  5b93 <safe_mul_func_uint8_t_u_u>
   1288d:	48 8b 95 38 e9 ff ff 	mov    -0x16c8(%rbp),%rdx
   12894:	48 8b 02             	mov    (%rdx),%rax
   12897:	48 8d 48 01          	lea    0x1(%rax),%rcx
   1289b:	48 89 0a             	mov    %rcx,(%rdx)
   1289e:	48 be 0e 03 82 9d 74 	movabs $0xbf99bc749d82030e,%rsi
   128a5:	bc 99 bf 
   128a8:	48 89 c7             	mov    %rax,%rdi
   128ab:	e8 9b 37 ff ff       	callq  604b <safe_sub_func_uint64_t_u_u>
   128b0:	44 89 f6             	mov    %r14d,%esi
   128b3:	bf 01 00 00 00       	mov    $0x1,%edi
   128b8:	e8 17 29 ff ff       	callq  51d4 <safe_add_func_int8_t_s_s>
   128bd:	0f be d0             	movsbl %al,%edx
   128c0:	48 8b 85 30 e9 ff ff 	mov    -0x16d0(%rbp),%rax
   128c7:	8b 00                	mov    (%rax),%eax
   128c9:	98                   	cwtl   
   128ca:	89 d6                	mov    %edx,%esi
   128cc:	89 c7                	mov    %eax,%edi
   128ce:	e8 90 2c ff ff       	callq  5563 <safe_rshift_func_int16_t_s_u>
   128d3:	98                   	cwtl   
   128d4:	44 89 ee             	mov    %r13d,%esi
   128d7:	89 c7                	mov    %eax,%edi
   128d9:	e8 da 35 ff ff       	callq  5eb8 <safe_add_func_uint32_t_u_u>
   128de:	0f b6 d0             	movzbl %al,%edx
   128e1:	0f b7 85 dc e7 ff ff 	movzwl -0x1824(%rbp),%eax
   128e8:	0f b6 c0             	movzbl %al,%eax
   128eb:	89 d6                	mov    %edx,%esi
   128ed:	89 c7                	mov    %eax,%edi
   128ef:	e8 e7 32 ff ff       	callq  5bdb <safe_div_func_uint8_t_u_u>
   128f4:	0f be 85 f9 e7 ff ff 	movsbl -0x1807(%rbp),%eax
   128fb:	83 e0 01             	and    $0x1,%eax
   128fe:	85 c0                	test   %eax,%eax
   12900:	0f 95 c0             	setne  %al
   12903:	0f b6 c0             	movzbl %al,%eax
   12906:	48 8b b5 d0 e7 ff ff 	mov    -0x1830(%rbp),%rsi
   1290d:	48 89 c7             	mov    %rax,%rdi
   12910:	e8 36 37 ff ff       	callq  604b <safe_sub_func_uint64_t_u_u>
   12915:	48 8b 95 e8 e7 ff ff 	mov    -0x1818(%rbp),%rdx
   1291c:	48 39 d0             	cmp    %rdx,%rax
   1291f:	48 8b 85 e8 e7 ff ff 	mov    -0x1818(%rbp),%rax
   12926:	44 89 e6             	mov    %r12d,%esi
   12929:	89 c7                	mov    %eax,%edi
   1292b:	e8 9c 2d ff ff       	callq  56cc <safe_mod_func_int32_t_s_s>
   12930:	0f be c0             	movsbl %al,%eax
   12933:	be 2b 00 00 00       	mov    $0x2b,%esi
   12938:	89 c7                	mov    %eax,%edi
   1293a:	e8 b3 28 ff ff       	callq  51f2 <safe_sub_func_int8_t_s_s>
   1293f:	0f be c0             	movsbl %al,%eax
   12942:	be ff ff ff ff       	mov    $0xffffffff,%esi
   12947:	89 c7                	mov    %eax,%edi
   12949:	e8 7e 2d ff ff       	callq  56cc <safe_mod_func_int32_t_s_s>
   1294e:	3d 45 b1 00 00       	cmp    $0xb145,%eax
   12953:	0f 9e c0             	setle  %al
   12956:	0f b6 c0             	movzbl %al,%eax
   12959:	4c 89 fe             	mov    %r15,%rsi
   1295c:	48 89 c7             	mov    %rax,%rdi
   1295f:	e8 4b 37 ff ff       	callq  60af <safe_div_func_uint64_t_u_u>
   12964:	48 ba 8d 03 15 82 e0 	movabs $0x296de3e08215038d,%rdx
   1296b:	e3 6d 29 
   1296e:	48 39 d0             	cmp    %rdx,%rax
   12971:	0f 97 c0             	seta   %al
   12974:	0f b6 c0             	movzbl %al,%eax
   12977:	89 de                	mov    %ebx,%esi
   12979:	89 c7                	mov    %eax,%edi
   1297b:	e8 53 2a ff ff       	callq  53d3 <safe_sub_func_int16_t_s_s>
   12980:	0f bf d0             	movswl %ax,%edx
   12983:	48 8b 85 80 e9 ff ff 	mov    -0x1680(%rbp),%rax
   1298a:	89 10                	mov    %edx,(%rax)
   1298c:	48 83 bd 88 e9 ff ff 	cmpq   $0x0,-0x1678(%rbp)
   12993:	00 
   12994:	74 0c                	je     129a2 <func_41+0x2d26>
   12996:	48 8b 85 88 e9 ff ff 	mov    -0x1678(%rbp),%rax
   1299d:	e9 fc 01 00 00       	jmpq   12b9e <func_41+0x2f22>
   129a2:	48 b8 7f ac 9e 6f b6 	movabs $0x2370fab66f9eac7f,%rax
   129a9:	fa 70 23 
   129ac:	48 89 85 78 ea ff ff 	mov    %rax,-0x1588(%rbp)
   129b3:	48 83 85 78 ea ff ff 	addq   $0x1,-0x1588(%rbp)
   129ba:	01 
   129bb:	48 8b 05 ce a0 00 00 	mov    0xa0ce(%rip),%rax        # 1ca90 <g_803>
   129c2:	48 8b 00             	mov    (%rax),%rax
   129c5:	48 89 85 70 ea ff ff 	mov    %rax,-0x1590(%rbp)
   129cc:	48 8b 85 28 e9 ff ff 	mov    -0x16d8(%rbp),%rax
   129d3:	48 8b 15 b6 a0 00 00 	mov    0xa0b6(%rip),%rdx        # 1ca90 <g_803>
   129da:	48 89 10             	mov    %rdx,(%rax)
   129dd:	48 8b 08             	mov    (%rax),%rcx
   129e0:	48 8b 85 e8 e7 ff ff 	mov    -0x1818(%rbp),%rax
   129e7:	98                   	cwtl   
   129e8:	48 8b 1d a9 a0 00 00 	mov    0xa0a9(%rip),%rbx        # 1ca98 <g_806>
   129ef:	48 8b 95 70 ea ff ff 	mov    -0x1590(%rbp),%rdx
   129f6:	48 89 ce             	mov    %rcx,%rsi
   129f9:	89 c7                	mov    %eax,%edi
   129fb:	e8 49 18 00 00       	callq  14249 <func_57>
   12a00:	48 89 03             	mov    %rax,(%rbx)
   12a03:	66 c7 05 dc 87 00 00 	movw   $0x0,0x87dc(%rip)        # 1b1e8 <g_167>
   12a0a:	00 00 
   12a0c:	e9 34 01 00 00       	jmpq   12b45 <func_41+0x2ec9>
   12a11:	66 c7 85 0a e8 ff ff 	movw   $0x8286,-0x17f6(%rbp)
   12a18:	86 82 
   12a1a:	48 8b 85 e0 e7 ff ff 	mov    -0x1820(%rbp),%rax
   12a21:	48 89 85 e8 e7 ff ff 	mov    %rax,-0x1818(%rbp)
   12a28:	0f b7 85 dc e7 ff ff 	movzwl -0x1824(%rbp),%eax
   12a2f:	0f be d8             	movsbl %al,%ebx
   12a32:	44 0f bf a5 dc e7 ff 	movswl -0x1824(%rbp),%r12d
   12a39:	ff 
   12a3a:	48 8b 85 e0 e7 ff ff 	mov    -0x1820(%rbp),%rax
   12a41:	44 0f b7 e8          	movzwl %ax,%r13d
   12a45:	0f b7 85 0a e8 ff ff 	movzwl -0x17f6(%rbp),%eax
   12a4c:	89 c6                	mov    %eax,%esi
   12a4e:	bf 00 00 00 00       	mov    $0x0,%edi
   12a53:	e8 35 32 ff ff       	callq  5c8d <safe_rshift_func_uint8_t_u_s>
   12a58:	0f b6 c0             	movzbl %al,%eax
   12a5b:	8b 15 3b 89 00 00    	mov    0x893b(%rip),%edx        # 1b39c <g_623>
   12a61:	09 d0                	or     %edx,%eax
   12a63:	0f b7 c0             	movzwl %ax,%eax
   12a66:	44 89 ee             	mov    %r13d,%esi
   12a69:	89 c7                	mov    %eax,%edi
   12a6b:	e8 8f 32 ff ff       	callq  5cff <safe_add_func_uint16_t_u_u>
   12a70:	48 8b 15 09 9d 00 00 	mov    0x9d09(%rip),%rdx        # 1c780 <g_429>
   12a77:	48 8b 12             	mov    (%rdx),%rdx
   12a7a:	0f b6 12             	movzbl (%rdx),%edx
   12a7d:	0f b6 d2             	movzbl %dl,%edx
   12a80:	66 39 d0             	cmp    %dx,%ax
   12a83:	0f 93 c0             	setae  %al
   12a86:	0f b6 c0             	movzbl %al,%eax
   12a89:	44 89 e6             	mov    %r12d,%esi
   12a8c:	89 c7                	mov    %eax,%edi
   12a8e:	e8 72 2b ff ff       	callq  5605 <safe_sub_func_int32_t_s_s>
   12a93:	0f be c0             	movsbl %al,%eax
   12a96:	89 de                	mov    %ebx,%esi
   12a98:	89 c7                	mov    %eax,%edi
   12a9a:	e8 cb 27 ff ff       	callq  526a <safe_div_func_int8_t_s_s>
   12a9f:	0f be c0             	movsbl %al,%eax
   12aa2:	be f6 ff ff ff       	mov    $0xfffffff6,%esi
   12aa7:	89 c7                	mov    %eax,%edi
   12aa9:	e8 26 27 ff ff       	callq  51d4 <safe_add_func_int8_t_s_s>
   12aae:	48 8b 85 e8 e7 ff ff 	mov    -0x1818(%rbp),%rax
   12ab5:	48 83 f8 01          	cmp    $0x1,%rax
   12ab9:	0f 94 c0             	sete   %al
   12abc:	0f b6 c0             	movzbl %al,%eax
   12abf:	be 01 00 00 00       	mov    $0x1,%esi
   12ac4:	89 c7                	mov    %eax,%edi
   12ac6:	e8 81 31 ff ff       	callq  5c4c <safe_lshift_func_uint8_t_u_u>
   12acb:	0f b6 c0             	movzbl %al,%eax
   12ace:	be 04 bc 6d 26       	mov    $0x266dbc04,%esi
   12ad3:	89 c7                	mov    %eax,%edi
   12ad5:	e8 dc 2a ff ff       	callq  55b6 <safe_add_func_int32_t_s_s>
   12ada:	0f b6 15 ef 86 00 00 	movzbl 0x86ef(%rip),%edx        # 1b1d0 <g_105>
   12ae1:	0f be d2             	movsbl %dl,%edx
   12ae4:	39 d0                	cmp    %edx,%eax
   12ae6:	0f 9d c0             	setge  %al
   12ae9:	0f b6 d0             	movzbl %al,%edx
   12aec:	48 8b 05 8d 9c 00 00 	mov    0x9c8d(%rip),%rax        # 1c780 <g_429>
   12af3:	48 8b 00             	mov    (%rax),%rax
   12af6:	0f b6 00             	movzbl (%rax),%eax
   12af9:	0f b6 c0             	movzbl %al,%eax
   12afc:	89 85 58 e8 ff ff    	mov    %eax,-0x17a8(%rbp)
   12b02:	8b 85 58 e8 ff ff    	mov    -0x17a8(%rbp),%eax
   12b08:	0f b6 c0             	movzbl %al,%eax
   12b0b:	89 d6                	mov    %edx,%esi
   12b0d:	89 c7                	mov    %eax,%edi
   12b0f:	e8 f1 30 ff ff       	callq  5c05 <safe_lshift_func_uint8_t_u_s>
   12b14:	0f b6 c0             	movzbl %al,%eax
   12b17:	be d1 39 00 00       	mov    $0x39d1,%esi
   12b1c:	89 c7                	mov    %eax,%edi
   12b1e:	e8 90 28 ff ff       	callq  53b3 <safe_add_func_int16_t_s_s>
   12b23:	98                   	cwtl   
   12b24:	89 85 60 e8 ff ff    	mov    %eax,-0x17a0(%rbp)
   12b2a:	c7 85 60 e8 ff ff 7d 	movl   $0x825e1c7d,-0x17a0(%rbp)
   12b31:	1c 5e 82 
   12b34:	0f b7 05 ad 86 00 00 	movzwl 0x86ad(%rip),%eax        # 1b1e8 <g_167>
   12b3b:	83 c0 01             	add    $0x1,%eax
   12b3e:	66 89 05 a3 86 00 00 	mov    %ax,0x86a3(%rip)        # 1b1e8 <g_167>
   12b45:	0f b7 05 9c 86 00 00 	movzwl 0x869c(%rip),%eax        # 1b1e8 <g_167>
   12b4c:	66 83 f8 18          	cmp    $0x18,%ax
   12b50:	0f 87 bb fe ff ff    	ja     12a11 <func_41+0x2d95>
   12b56:	0f b7 05 1b 87 00 00 	movzwl 0x871b(%rip),%eax        # 1b278 <g_314>
   12b5d:	83 c0 01             	add    $0x1,%eax
   12b60:	66 89 05 11 87 00 00 	mov    %ax,0x8711(%rip)        # 1b278 <g_314>
   12b67:	eb 0c                	jmp    12b75 <func_41+0x2ef9>
   12b69:	90                   	nop
   12b6a:	e9 e9 e0 ff ff       	jmpq   10c58 <func_41+0xfdc>
   12b6f:	90                   	nop
   12b70:	e9 e3 e0 ff ff       	jmpq   10c58 <func_41+0xfdc>
   12b75:	0f b7 05 fc 86 00 00 	movzwl 0x86fc(%rip),%eax        # 1b278 <g_314>
   12b7c:	66 83 f8 03          	cmp    $0x3,%ax
   12b80:	0f 87 c0 e3 ff ff    	ja     10f46 <func_41+0x12ca>
   12b86:	48 8b 85 d8 ea ff ff 	mov    -0x1528(%rbp),%rax
   12b8d:	eb 0f                	jmp    12b9e <func_41+0x2f22>
   12b8f:	48 83 ad 90 e9 ff ff 	subq   $0x1,-0x1670(%rbp)
   12b96:	01 
   12b97:	48 8b 85 20 e9 ff ff 	mov    -0x16e0(%rbp),%rax
   12b9e:	48 8b 4d c8          	mov    -0x38(%rbp),%rcx
   12ba2:	64 48 33 0c 25 28 00 	xor    %fs:0x28,%rcx
   12ba9:	00 00 
   12bab:	74 05                	je     12bb2 <func_41+0x2f36>
   12bad:	e8 be 24 ff ff       	callq  5070 <__stack_chk_fail@plt>
   12bb2:	48 81 c4 08 18 00 00 	add    $0x1808,%rsp
   12bb9:	5b                   	pop    %rbx
   12bba:	41 5c                	pop    %r12
   12bbc:	41 5d                	pop    %r13
   12bbe:	41 5e                	pop    %r14
   12bc0:	41 5f                	pop    %r15
   12bc2:	5d                   	pop    %rbp
   12bc3:	c3                   	retq   

0000000000012bc4 <func_46>:
   12bc4:	f3 0f 1e fa          	endbr64 
   12bc8:	55                   	push   %rbp
   12bc9:	48 89 e5             	mov    %rsp,%rbp
   12bcc:	41 56                	push   %r14
   12bce:	41 55                	push   %r13
   12bd0:	41 54                	push   %r12
   12bd2:	53                   	push   %rbx
   12bd3:	48 81 ec f0 07 00 00 	sub    $0x7f0,%rsp
   12bda:	89 bd 0c f8 ff ff    	mov    %edi,-0x7f4(%rbp)
   12be0:	89 b5 08 f8 ff ff    	mov    %esi,-0x7f8(%rbp)
   12be6:	48 89 95 00 f8 ff ff 	mov    %rdx,-0x800(%rbp)
   12bed:	89 ca                	mov    %ecx,%edx
   12bef:	44 89 c0             	mov    %r8d,%eax
   12bf2:	88 95 fc f7 ff ff    	mov    %dl,-0x804(%rbp)
   12bf8:	66 89 85 f8 f7 ff ff 	mov    %ax,-0x808(%rbp)
   12bff:	64 48 8b 04 25 28 00 	mov    %fs:0x28,%rax
   12c06:	00 00 
   12c08:	48 89 45 d8          	mov    %rax,-0x28(%rbp)
   12c0c:	31 c0                	xor    %eax,%eax
   12c0e:	c6 85 1d f8 ff ff 04 	movb   $0x4,-0x7e3(%rbp)
   12c15:	c7 85 20 f8 ff ff e4 	movl   $0x7196cbe4,-0x7e0(%rbp)
   12c1c:	cb 96 71 
   12c1f:	c7 85 40 f8 ff ff ff 	movl   $0xffffffff,-0x7c0(%rbp)
   12c26:	ff ff ff 
   12c29:	c6 85 1e f8 ff ff b3 	movb   $0xb3,-0x7e2(%rbp)
   12c30:	c7 85 44 f8 ff ff ff 	movl   $0xffffffff,-0x7bc(%rbp)
   12c37:	ff ff ff 
   12c3a:	c7 85 48 f8 ff ff 17 	movl   $0xb8a99b17,-0x7b8(%rbp)
   12c41:	9b a9 b8 
   12c44:	c7 85 28 f8 ff ff 01 	movl   $0x1,-0x7d8(%rbp)
   12c4b:	00 00 00 
   12c4e:	c7 85 24 f8 ff ff ad 	movl   $0x648590ad,-0x7dc(%rbp)
   12c55:	90 85 64 
   12c58:	c7 85 40 f9 ff ff f6 	movl   $0xfffffff6,-0x6c0(%rbp)
   12c5f:	ff ff ff 
   12c62:	c7 85 44 f9 ff ff f6 	movl   $0xfffffff6,-0x6bc(%rbp)
   12c69:	ff ff ff 
   12c6c:	c7 85 48 f9 ff ff f6 	movl   $0xfffffff6,-0x6b8(%rbp)
   12c73:	ff ff ff 
   12c76:	c7 85 4c f9 ff ff f6 	movl   $0xfffffff6,-0x6b4(%rbp)
   12c7d:	ff ff ff 
   12c80:	c7 85 50 f9 ff ff f6 	movl   $0xfffffff6,-0x6b0(%rbp)
   12c87:	ff ff ff 
   12c8a:	48 8d 05 ef 85 00 00 	lea    0x85ef(%rip),%rax        # 1b280 <g_346>
   12c91:	48 89 85 98 f8 ff ff 	mov    %rax,-0x768(%rbp)
   12c98:	48 8d 05 79 84 00 00 	lea    0x8479(%rip),%rax        # 1b118 <g_88+0x98>
   12c9f:	48 89 85 a0 f8 ff ff 	mov    %rax,-0x760(%rbp)
   12ca6:	c7 85 2c f8 ff ff 00 	movl   $0x0,-0x7d4(%rbp)
   12cad:	00 00 00 
   12cb0:	eb 1a                	jmp    12ccc <func_46+0x108>
   12cb2:	8b 85 2c f8 ff ff    	mov    -0x7d4(%rbp),%eax
   12cb8:	48 98                	cltq   
   12cba:	c7 84 85 30 f9 ff ff 	movl   $0x941a9637,-0x6d0(%rbp,%rax,4)
   12cc1:	37 96 1a 94 
   12cc5:	83 85 2c f8 ff ff 01 	addl   $0x1,-0x7d4(%rbp)
   12ccc:	83 bd 2c f8 ff ff 00 	cmpl   $0x0,-0x7d4(%rbp)
   12cd3:	7e dd                	jle    12cb2 <func_46+0xee>
   12cd5:	66 c7 05 0a 85 00 00 	movw   $0x0,0x850a(%rip)        # 1b1e8 <g_167>
   12cdc:	00 00 
   12cde:	e9 56 14 00 00       	jmpq   14139 <func_46+0x1575>
   12ce3:	c6 85 1f f8 ff ff fb 	movb   $0xfb,-0x7e1(%rbp)
   12cea:	c7 85 4c f8 ff ff 00 	movl   $0x0,-0x7b4(%rbp)
   12cf1:	00 00 00 
   12cf4:	c7 85 60 f9 ff ff 07 	movl   $0x7,-0x6a0(%rbp)
   12cfb:	00 00 00 
   12cfe:	c7 85 64 f9 ff ff 00 	movl   $0x0,-0x69c(%rbp)
   12d05:	00 00 00 
   12d08:	c7 85 68 f9 ff ff 00 	movl   $0x0,-0x698(%rbp)
   12d0f:	00 00 00 
   12d12:	c7 85 6c f9 ff ff 07 	movl   $0x7,-0x694(%rbp)
   12d19:	00 00 00 
   12d1c:	c7 85 70 f9 ff ff 00 	movl   $0x0,-0x690(%rbp)
   12d23:	00 00 00 
   12d26:	c7 85 74 f9 ff ff 07 	movl   $0x7,-0x68c(%rbp)
   12d2d:	00 00 00 
   12d30:	c7 85 78 f9 ff ff 07 	movl   $0x7,-0x688(%rbp)
   12d37:	00 00 00 
   12d3a:	c7 85 7c f9 ff ff 04 	movl   $0x4,-0x684(%rbp)
   12d41:	00 00 00 
   12d44:	c7 85 80 f9 ff ff 07 	movl   $0x7,-0x680(%rbp)
   12d4b:	00 00 00 
   12d4e:	c7 85 84 f9 ff ff 07 	movl   $0x7,-0x67c(%rbp)
   12d55:	00 00 00 
   12d58:	48 8d 05 71 84 00 00 	lea    0x8471(%rip),%rax        # 1b1d0 <g_105>
   12d5f:	48 89 85 a8 f8 ff ff 	mov    %rax,-0x758(%rbp)
   12d66:	48 8d 05 1b 83 00 00 	lea    0x831b(%rip),%rax        # 1b088 <g_88+0x8>
   12d6d:	48 89 85 80 f8 ff ff 	mov    %rax,-0x780(%rbp)
   12d74:	48 8d 85 80 f8 ff ff 	lea    -0x780(%rbp),%rax
   12d7b:	48 89 85 b0 f8 ff ff 	mov    %rax,-0x750(%rbp)
   12d82:	48 8d 05 bb 82 00 00 	lea    0x82bb(%rip),%rax        # 1b044 <g_23+0x14>
   12d89:	48 89 85 50 fb ff ff 	mov    %rax,-0x4b0(%rbp)
   12d90:	48 c7 85 58 fb ff ff 	movq   $0x0,-0x4a8(%rbp)
   12d97:	00 00 00 00 
   12d9b:	48 c7 85 60 fb ff ff 	movq   $0x0,-0x4a0(%rbp)
   12da2:	00 00 00 00 
   12da6:	48 8d 85 1d f8 ff ff 	lea    -0x7e3(%rbp),%rax
   12dad:	48 89 85 68 fb ff ff 	mov    %rax,-0x498(%rbp)
   12db4:	48 8d 05 78 82 00 00 	lea    0x8278(%rip),%rax        # 1b033 <g_23+0x3>
   12dbb:	48 89 85 70 fb ff ff 	mov    %rax,-0x490(%rbp)
   12dc2:	48 8d 05 7c 82 00 00 	lea    0x827c(%rip),%rax        # 1b045 <g_23+0x15>
   12dc9:	48 89 85 78 fb ff ff 	mov    %rax,-0x488(%rbp)
   12dd0:	48 8d 05 01 84 00 00 	lea    0x8401(%rip),%rax        # 1b1d8 <g_120>
   12dd7:	48 89 85 80 fb ff ff 	mov    %rax,-0x480(%rbp)
   12dde:	48 8d 05 4e 82 00 00 	lea    0x824e(%rip),%rax        # 1b033 <g_23+0x3>
   12de5:	48 89 85 88 fb ff ff 	mov    %rax,-0x478(%rbp)
   12dec:	48 c7 85 90 fb ff ff 	movq   $0x0,-0x470(%rbp)
   12df3:	00 00 00 00 
   12df7:	48 8d 05 da 83 00 00 	lea    0x83da(%rip),%rax        # 1b1d8 <g_120>
   12dfe:	48 89 85 98 fb ff ff 	mov    %rax,-0x468(%rbp)
   12e05:	48 8d 05 37 82 00 00 	lea    0x8237(%rip),%rax        # 1b043 <g_23+0x13>
   12e0c:	48 89 85 a0 fb ff ff 	mov    %rax,-0x460(%rbp)
   12e13:	48 c7 85 a8 fb ff ff 	movq   $0x0,-0x458(%rbp)
   12e1a:	00 00 00 00 
   12e1e:	48 8d 85 1d f8 ff ff 	lea    -0x7e3(%rbp),%rax
   12e25:	48 89 85 b0 fb ff ff 	mov    %rax,-0x450(%rbp)
   12e2c:	48 8d 05 11 82 00 00 	lea    0x8211(%rip),%rax        # 1b044 <g_23+0x14>
   12e33:	48 89 85 b8 fb ff ff 	mov    %rax,-0x448(%rbp)
   12e3a:	48 8d 05 97 83 00 00 	lea    0x8397(%rip),%rax        # 1b1d8 <g_120>
   12e41:	48 89 85 c0 fb ff ff 	mov    %rax,-0x440(%rbp)
   12e48:	48 8d 05 f5 81 00 00 	lea    0x81f5(%rip),%rax        # 1b044 <g_23+0x14>
   12e4f:	48 89 85 c8 fb ff ff 	mov    %rax,-0x438(%rbp)
   12e56:	48 8d 05 7b 83 00 00 	lea    0x837b(%rip),%rax        # 1b1d8 <g_120>
   12e5d:	48 89 85 d0 fb ff ff 	mov    %rax,-0x430(%rbp)
   12e64:	48 8d 05 ca 81 00 00 	lea    0x81ca(%rip),%rax        # 1b035 <g_23+0x5>
   12e6b:	48 89 85 d8 fb ff ff 	mov    %rax,-0x428(%rbp)
   12e72:	48 8d 05 5f 83 00 00 	lea    0x835f(%rip),%rax        # 1b1d8 <g_120>
   12e79:	48 89 85 e0 fb ff ff 	mov    %rax,-0x420(%rbp)
   12e80:	48 8d 05 ae 81 00 00 	lea    0x81ae(%rip),%rax        # 1b035 <g_23+0x5>
   12e87:	48 89 85 e8 fb ff ff 	mov    %rax,-0x418(%rbp)
   12e8e:	48 8d 05 43 83 00 00 	lea    0x8343(%rip),%rax        # 1b1d8 <g_120>
   12e95:	48 89 85 f0 fb ff ff 	mov    %rax,-0x410(%rbp)
   12e9c:	48 8d 85 1d f8 ff ff 	lea    -0x7e3(%rbp),%rax
   12ea3:	48 89 85 f8 fb ff ff 	mov    %rax,-0x408(%rbp)
   12eaa:	48 8d 85 1d f8 ff ff 	lea    -0x7e3(%rbp),%rax
   12eb1:	48 89 85 00 fc ff ff 	mov    %rax,-0x400(%rbp)
   12eb8:	48 c7 85 08 fc ff ff 	movq   $0x0,-0x3f8(%rbp)
   12ebf:	00 00 00 00 
   12ec3:	48 8d 05 7a 81 00 00 	lea    0x817a(%rip),%rax        # 1b044 <g_23+0x14>
   12eca:	48 89 85 10 fc ff ff 	mov    %rax,-0x3f0(%rbp)
   12ed1:	48 c7 85 18 fc ff ff 	movq   $0x0,-0x3e8(%rbp)
   12ed8:	00 00 00 00 
   12edc:	48 c7 85 20 fc ff ff 	movq   $0x0,-0x3e0(%rbp)
   12ee3:	00 00 00 00 
   12ee7:	48 c7 85 28 fc ff ff 	movq   $0x0,-0x3d8(%rbp)
   12eee:	00 00 00 00 
   12ef2:	48 c7 85 30 fc ff ff 	movq   $0x0,-0x3d0(%rbp)
   12ef9:	00 00 00 00 
   12efd:	48 c7 85 38 fc ff ff 	movq   $0x0,-0x3c8(%rbp)
   12f04:	00 00 00 00 
   12f08:	48 8d 05 36 81 00 00 	lea    0x8136(%rip),%rax        # 1b045 <g_23+0x15>
   12f0f:	48 89 85 40 fc ff ff 	mov    %rax,-0x3c0(%rbp)
   12f16:	48 8d 05 18 81 00 00 	lea    0x8118(%rip),%rax        # 1b035 <g_23+0x5>
   12f1d:	48 89 85 48 fc ff ff 	mov    %rax,-0x3b8(%rbp)
   12f24:	48 8d 85 1d f8 ff ff 	lea    -0x7e3(%rbp),%rax
   12f2b:	48 89 85 50 fc ff ff 	mov    %rax,-0x3b0(%rbp)
   12f32:	48 8d 05 9f 82 00 00 	lea    0x829f(%rip),%rax        # 1b1d8 <g_120>
   12f39:	48 89 85 58 fc ff ff 	mov    %rax,-0x3a8(%rbp)
   12f40:	48 c7 85 60 fc ff ff 	movq   $0x0,-0x3a0(%rbp)
   12f47:	00 00 00 00 
   12f4b:	48 8d 85 1d f8 ff ff 	lea    -0x7e3(%rbp),%rax
   12f52:	48 89 85 68 fc ff ff 	mov    %rax,-0x398(%rbp)
   12f59:	48 c7 85 70 fc ff ff 	movq   $0x0,-0x390(%rbp)
   12f60:	00 00 00 00 
   12f64:	48 8d 05 d8 80 00 00 	lea    0x80d8(%rip),%rax        # 1b043 <g_23+0x13>
   12f6b:	48 89 85 78 fc ff ff 	mov    %rax,-0x388(%rbp)
   12f72:	48 8d 85 1d f8 ff ff 	lea    -0x7e3(%rbp),%rax
   12f79:	48 89 85 80 fc ff ff 	mov    %rax,-0x380(%rbp)
   12f80:	48 8d 05 b9 80 00 00 	lea    0x80b9(%rip),%rax        # 1b040 <g_23+0x10>
   12f87:	48 89 85 88 fc ff ff 	mov    %rax,-0x378(%rbp)
   12f8e:	48 c7 85 90 fc ff ff 	movq   $0x0,-0x370(%rbp)
   12f95:	00 00 00 00 
   12f99:	48 8d 05 38 82 00 00 	lea    0x8238(%rip),%rax        # 1b1d8 <g_120>
   12fa0:	48 89 85 98 fc ff ff 	mov    %rax,-0x368(%rbp)
   12fa7:	48 8d 05 2a 82 00 00 	lea    0x822a(%rip),%rax        # 1b1d8 <g_120>
   12fae:	48 89 85 a0 fc ff ff 	mov    %rax,-0x360(%rbp)
   12fb5:	48 c7 85 a8 fc ff ff 	movq   $0x0,-0x358(%rbp)
   12fbc:	00 00 00 00 
   12fc0:	48 c7 85 b0 fc ff ff 	movq   $0x0,-0x350(%rbp)
   12fc7:	00 00 00 00 
   12fcb:	48 8d 05 06 82 00 00 	lea    0x8206(%rip),%rax        # 1b1d8 <g_120>
   12fd2:	48 89 85 b8 fc ff ff 	mov    %rax,-0x348(%rbp)
   12fd9:	48 8d 05 f8 81 00 00 	lea    0x81f8(%rip),%rax        # 1b1d8 <g_120>
   12fe0:	48 89 85 c0 fc ff ff 	mov    %rax,-0x340(%rbp)
   12fe7:	48 c7 85 c8 fc ff ff 	movq   $0x0,-0x338(%rbp)
   12fee:	00 00 00 00 
   12ff2:	48 8d 05 47 80 00 00 	lea    0x8047(%rip),%rax        # 1b040 <g_23+0x10>
   12ff9:	48 89 85 d0 fc ff ff 	mov    %rax,-0x330(%rbp)
   13000:	48 8d 85 1d f8 ff ff 	lea    -0x7e3(%rbp),%rax
   13007:	48 89 85 d8 fc ff ff 	mov    %rax,-0x328(%rbp)
   1300e:	48 8d 05 2e 80 00 00 	lea    0x802e(%rip),%rax        # 1b043 <g_23+0x13>
   13015:	48 89 85 e0 fc ff ff 	mov    %rax,-0x320(%rbp)
   1301c:	48 c7 85 e8 fc ff ff 	movq   $0x0,-0x318(%rbp)
   13023:	00 00 00 00 
   13027:	48 8d 85 1d f8 ff ff 	lea    -0x7e3(%rbp),%rax
   1302e:	48 89 85 f0 fc ff ff 	mov    %rax,-0x310(%rbp)
   13035:	48 c7 85 f8 fc ff ff 	movq   $0x0,-0x308(%rbp)
   1303c:	00 00 00 00 
   13040:	48 8d 05 91 81 00 00 	lea    0x8191(%rip),%rax        # 1b1d8 <g_120>
   13047:	48 89 85 00 fd ff ff 	mov    %rax,-0x300(%rbp)
   1304e:	48 8d 85 1d f8 ff ff 	lea    -0x7e3(%rbp),%rax
   13055:	48 89 85 08 fd ff ff 	mov    %rax,-0x2f8(%rbp)
   1305c:	48 8d 05 d2 7f 00 00 	lea    0x7fd2(%rip),%rax        # 1b035 <g_23+0x5>
   13063:	48 89 85 10 fd ff ff 	mov    %rax,-0x2f0(%rbp)
   1306a:	48 8d 05 d4 7f 00 00 	lea    0x7fd4(%rip),%rax        # 1b045 <g_23+0x15>
   13071:	48 89 85 18 fd ff ff 	mov    %rax,-0x2e8(%rbp)
   13078:	48 c7 85 20 fd ff ff 	movq   $0x0,-0x2e0(%rbp)
   1307f:	00 00 00 00 
   13083:	48 c7 85 28 fd ff ff 	movq   $0x0,-0x2d8(%rbp)
   1308a:	00 00 00 00 
   1308e:	48 c7 85 30 fd ff ff 	movq   $0x0,-0x2d0(%rbp)
   13095:	00 00 00 00 
   13099:	48 8d 05 38 81 00 00 	lea    0x8138(%rip),%rax        # 1b1d8 <g_120>
   130a0:	48 89 85 38 fd ff ff 	mov    %rax,-0x2c8(%rbp)
   130a7:	48 c7 85 40 fd ff ff 	movq   $0x0,-0x2c0(%rbp)
   130ae:	00 00 00 00 
   130b2:	48 8d 05 7c 7f 00 00 	lea    0x7f7c(%rip),%rax        # 1b035 <g_23+0x5>
   130b9:	48 89 85 48 fd ff ff 	mov    %rax,-0x2b8(%rbp)
   130c0:	48 8d 05 79 7f 00 00 	lea    0x7f79(%rip),%rax        # 1b040 <g_23+0x10>
   130c7:	48 89 85 50 fd ff ff 	mov    %rax,-0x2b0(%rbp)
   130ce:	48 8d 05 6f 7f 00 00 	lea    0x7f6f(%rip),%rax        # 1b044 <g_23+0x14>
   130d5:	48 89 85 58 fd ff ff 	mov    %rax,-0x2a8(%rbp)
   130dc:	48 c7 85 60 fd ff ff 	movq   $0x0,-0x2a0(%rbp)
   130e3:	00 00 00 00 
   130e7:	48 8d 05 55 7f 00 00 	lea    0x7f55(%rip),%rax        # 1b043 <g_23+0x13>
   130ee:	48 89 85 68 fd ff ff 	mov    %rax,-0x298(%rbp)
   130f5:	48 c7 85 70 fd ff ff 	movq   $0x0,-0x290(%rbp)
   130fc:	00 00 00 00 
   13100:	48 8d 85 1d f8 ff ff 	lea    -0x7e3(%rbp),%rax
   13107:	48 89 85 78 fd ff ff 	mov    %rax,-0x288(%rbp)
   1310e:	48 c7 85 80 fd ff ff 	movq   $0x0,-0x280(%rbp)
   13115:	00 00 00 00 
   13119:	48 8d 05 23 7f 00 00 	lea    0x7f23(%rip),%rax        # 1b043 <g_23+0x13>
   13120:	48 89 85 88 fd ff ff 	mov    %rax,-0x278(%rbp)
   13127:	48 8d 05 07 7f 00 00 	lea    0x7f07(%rip),%rax        # 1b035 <g_23+0x5>
   1312e:	48 89 85 90 fd ff ff 	mov    %rax,-0x270(%rbp)
   13135:	48 8d 05 07 7f 00 00 	lea    0x7f07(%rip),%rax        # 1b043 <g_23+0x13>
   1313c:	48 89 85 98 fd ff ff 	mov    %rax,-0x268(%rbp)
   13143:	48 8d 05 eb 7e 00 00 	lea    0x7eeb(%rip),%rax        # 1b035 <g_23+0x5>
   1314a:	48 89 85 a0 fd ff ff 	mov    %rax,-0x260(%rbp)
   13151:	48 8d 85 1d f8 ff ff 	lea    -0x7e3(%rbp),%rax
   13158:	48 89 85 a8 fd ff ff 	mov    %rax,-0x258(%rbp)
   1315f:	48 8d 05 72 80 00 00 	lea    0x8072(%rip),%rax        # 1b1d8 <g_120>
   13166:	48 89 85 b0 fd ff ff 	mov    %rax,-0x250(%rbp)
   1316d:	48 8d 85 1d f8 ff ff 	lea    -0x7e3(%rbp),%rax
   13174:	48 89 85 b8 fd ff ff 	mov    %rax,-0x248(%rbp)
   1317b:	48 8d 05 b3 7e 00 00 	lea    0x7eb3(%rip),%rax        # 1b035 <g_23+0x5>
   13182:	48 89 85 c0 fd ff ff 	mov    %rax,-0x240(%rbp)
   13189:	48 8d 05 48 80 00 00 	lea    0x8048(%rip),%rax        # 1b1d8 <g_120>
   13190:	48 89 85 c8 fd ff ff 	mov    %rax,-0x238(%rbp)
   13197:	48 8d 05 a7 7e 00 00 	lea    0x7ea7(%rip),%rax        # 1b045 <g_23+0x15>
   1319e:	48 89 85 d0 fd ff ff 	mov    %rax,-0x230(%rbp)
   131a5:	48 8d 05 89 7e 00 00 	lea    0x7e89(%rip),%rax        # 1b035 <g_23+0x5>
   131ac:	48 89 85 d8 fd ff ff 	mov    %rax,-0x228(%rbp)
   131b3:	48 8d 05 1e 80 00 00 	lea    0x801e(%rip),%rax        # 1b1d8 <g_120>
   131ba:	48 89 85 e0 fd ff ff 	mov    %rax,-0x220(%rbp)
   131c1:	48 8d 05 7d 7e 00 00 	lea    0x7e7d(%rip),%rax        # 1b045 <g_23+0x15>
   131c8:	48 89 85 e8 fd ff ff 	mov    %rax,-0x218(%rbp)
   131cf:	48 8d 85 1d f8 ff ff 	lea    -0x7e3(%rbp),%rax
   131d6:	48 89 85 f0 fd ff ff 	mov    %rax,-0x210(%rbp)
   131dd:	48 8d 85 1d f8 ff ff 	lea    -0x7e3(%rbp),%rax
   131e4:	48 89 85 f8 fd ff ff 	mov    %rax,-0x208(%rbp)
   131eb:	48 8d 05 e6 7f 00 00 	lea    0x7fe6(%rip),%rax        # 1b1d8 <g_120>
   131f2:	48 89 85 00 fe ff ff 	mov    %rax,-0x200(%rbp)
   131f9:	48 8d 05 35 7e 00 00 	lea    0x7e35(%rip),%rax        # 1b035 <g_23+0x5>
   13200:	48 89 85 08 fe ff ff 	mov    %rax,-0x1f8(%rbp)
   13207:	48 8d 05 37 7e 00 00 	lea    0x7e37(%rip),%rax        # 1b045 <g_23+0x15>
   1320e:	48 89 85 10 fe ff ff 	mov    %rax,-0x1f0(%rbp)
   13215:	48 c7 85 18 fe ff ff 	movq   $0x0,-0x1e8(%rbp)
   1321c:	00 00 00 00 
   13220:	48 8d 85 1d f8 ff ff 	lea    -0x7e3(%rbp),%rax
   13227:	48 89 85 20 fe ff ff 	mov    %rax,-0x1e0(%rbp)
   1322e:	48 8d 85 1d f8 ff ff 	lea    -0x7e3(%rbp),%rax
   13235:	48 89 85 28 fe ff ff 	mov    %rax,-0x1d8(%rbp)
   1323c:	48 8d 05 95 7f 00 00 	lea    0x7f95(%rip),%rax        # 1b1d8 <g_120>
   13243:	48 89 85 30 fe ff ff 	mov    %rax,-0x1d0(%rbp)
   1324a:	48 c7 85 38 fe ff ff 	movq   $0x0,-0x1c8(%rbp)
   13251:	00 00 00 00 
   13255:	48 c7 85 40 fe ff ff 	movq   $0x0,-0x1c0(%rbp)
   1325c:	00 00 00 00 
   13260:	48 c7 85 48 fe ff ff 	movq   $0x0,-0x1b8(%rbp)
   13267:	00 00 00 00 
   1326b:	48 8d 05 c3 7d 00 00 	lea    0x7dc3(%rip),%rax        # 1b035 <g_23+0x5>
   13272:	48 89 85 50 fe ff ff 	mov    %rax,-0x1b0(%rbp)
   13279:	48 c7 85 58 fe ff ff 	movq   $0x0,-0x1a8(%rbp)
   13280:	00 00 00 00 
   13284:	48 8d 05 b3 7d 00 00 	lea    0x7db3(%rip),%rax        # 1b03e <g_23+0xe>
   1328b:	48 89 85 60 fe ff ff 	mov    %rax,-0x1a0(%rbp)
   13292:	48 8d 05 a5 7d 00 00 	lea    0x7da5(%rip),%rax        # 1b03e <g_23+0xe>
   13299:	48 89 85 68 fe ff ff 	mov    %rax,-0x198(%rbp)
   132a0:	48 c7 85 70 fe ff ff 	movq   $0x0,-0x190(%rbp)
   132a7:	00 00 00 00 
   132ab:	48 8d 05 83 7d 00 00 	lea    0x7d83(%rip),%rax        # 1b035 <g_23+0x5>
   132b2:	48 89 85 78 fe ff ff 	mov    %rax,-0x188(%rbp)
   132b9:	48 8d 05 18 7f 00 00 	lea    0x7f18(%rip),%rax        # 1b1d8 <g_120>
   132c0:	48 89 85 80 fe ff ff 	mov    %rax,-0x180(%rbp)
   132c7:	48 8d 85 1d f8 ff ff 	lea    -0x7e3(%rbp),%rax
   132ce:	48 89 85 88 fe ff ff 	mov    %rax,-0x178(%rbp)
   132d5:	48 8d 05 64 7d 00 00 	lea    0x7d64(%rip),%rax        # 1b040 <g_23+0x10>
   132dc:	48 89 85 90 fe ff ff 	mov    %rax,-0x170(%rbp)
   132e3:	48 8d 05 4b 7d 00 00 	lea    0x7d4b(%rip),%rax        # 1b035 <g_23+0x5>
   132ea:	48 89 85 98 fe ff ff 	mov    %rax,-0x168(%rbp)
   132f1:	48 8d 85 1d f8 ff ff 	lea    -0x7e3(%rbp),%rax
   132f8:	48 89 85 a0 fe ff ff 	mov    %rax,-0x160(%rbp)
   132ff:	48 8d 05 3e 7d 00 00 	lea    0x7d3e(%rip),%rax        # 1b044 <g_23+0x14>
   13306:	48 89 85 a8 fe ff ff 	mov    %rax,-0x158(%rbp)
   1330d:	48 8d 05 2a 7d 00 00 	lea    0x7d2a(%rip),%rax        # 1b03e <g_23+0xe>
   13314:	48 89 85 b0 fe ff ff 	mov    %rax,-0x150(%rbp)
   1331b:	48 8d 05 b6 7e 00 00 	lea    0x7eb6(%rip),%rax        # 1b1d8 <g_120>
   13322:	48 89 85 b8 fe ff ff 	mov    %rax,-0x148(%rbp)
   13329:	48 8d 05 10 7d 00 00 	lea    0x7d10(%rip),%rax        # 1b040 <g_23+0x10>
   13330:	48 89 85 c0 fe ff ff 	mov    %rax,-0x140(%rbp)
   13337:	48 8d 05 f7 7c 00 00 	lea    0x7cf7(%rip),%rax        # 1b035 <g_23+0x5>
   1333e:	48 89 85 c8 fe ff ff 	mov    %rax,-0x138(%rbp)
   13345:	48 c7 85 d0 fe ff ff 	movq   $0x0,-0x130(%rbp)
   1334c:	00 00 00 00 
   13350:	48 8d 05 81 7e 00 00 	lea    0x7e81(%rip),%rax        # 1b1d8 <g_120>
   13357:	48 89 85 d8 fe ff ff 	mov    %rax,-0x128(%rbp)
   1335e:	48 8d 85 1d f8 ff ff 	lea    -0x7e3(%rbp),%rax
   13365:	48 89 85 e0 fe ff ff 	mov    %rax,-0x120(%rbp)
   1336c:	48 8d 05 d1 7c 00 00 	lea    0x7cd1(%rip),%rax        # 1b044 <g_23+0x14>
   13373:	48 89 85 e8 fe ff ff 	mov    %rax,-0x118(%rbp)
   1337a:	48 c7 85 f0 fe ff ff 	movq   $0x0,-0x110(%rbp)
   13381:	00 00 00 00 
   13385:	48 8d 85 1d f8 ff ff 	lea    -0x7e3(%rbp),%rax
   1338c:	48 89 85 f8 fe ff ff 	mov    %rax,-0x108(%rbp)
   13393:	48 8d 05 ab 7c 00 00 	lea    0x7cab(%rip),%rax        # 1b045 <g_23+0x15>
   1339a:	48 89 85 00 ff ff ff 	mov    %rax,-0x100(%rbp)
   133a1:	48 8d 85 1d f8 ff ff 	lea    -0x7e3(%rbp),%rax
   133a8:	48 89 85 08 ff ff ff 	mov    %rax,-0xf8(%rbp)
   133af:	48 8d 05 7f 7c 00 00 	lea    0x7c7f(%rip),%rax        # 1b035 <g_23+0x5>
   133b6:	48 89 85 10 ff ff ff 	mov    %rax,-0xf0(%rbp)
   133bd:	48 c7 85 18 ff ff ff 	movq   $0x0,-0xe8(%rbp)
   133c4:	00 00 00 00 
   133c8:	48 8d 05 66 7c 00 00 	lea    0x7c66(%rip),%rax        # 1b035 <g_23+0x5>
   133cf:	48 89 85 20 ff ff ff 	mov    %rax,-0xe0(%rbp)
   133d6:	48 8d 05 61 7c 00 00 	lea    0x7c61(%rip),%rax        # 1b03e <g_23+0xe>
   133dd:	48 89 85 28 ff ff ff 	mov    %rax,-0xd8(%rbp)
   133e4:	48 8d 05 55 7c 00 00 	lea    0x7c55(%rip),%rax        # 1b040 <g_23+0x10>
   133eb:	48 89 85 30 ff ff ff 	mov    %rax,-0xd0(%rbp)
   133f2:	48 8d 05 45 7c 00 00 	lea    0x7c45(%rip),%rax        # 1b03e <g_23+0xe>
   133f9:	48 89 85 38 ff ff ff 	mov    %rax,-0xc8(%rbp)
   13400:	48 8d 05 2e 7c 00 00 	lea    0x7c2e(%rip),%rax        # 1b035 <g_23+0x5>
   13407:	48 89 85 40 ff ff ff 	mov    %rax,-0xc0(%rbp)
   1340e:	48 c7 85 48 ff ff ff 	movq   $0x0,-0xb8(%rbp)
   13415:	00 00 00 00 
   13419:	48 c7 85 50 ff ff ff 	movq   $0x0,-0xb0(%rbp)
   13420:	00 00 00 00 
   13424:	48 8d 05 ad 7d 00 00 	lea    0x7dad(%rip),%rax        # 1b1d8 <g_120>
   1342b:	48 89 85 58 ff ff ff 	mov    %rax,-0xa8(%rbp)
   13432:	48 8d 05 fc 7b 00 00 	lea    0x7bfc(%rip),%rax        # 1b035 <g_23+0x5>
   13439:	48 89 85 60 ff ff ff 	mov    %rax,-0xa0(%rbp)
   13440:	48 8d 85 1d f8 ff ff 	lea    -0x7e3(%rbp),%rax
   13447:	48 89 85 68 ff ff ff 	mov    %rax,-0x98(%rbp)
   1344e:	48 8d 05 e9 7b 00 00 	lea    0x7be9(%rip),%rax        # 1b03e <g_23+0xe>
   13455:	48 89 85 70 ff ff ff 	mov    %rax,-0x90(%rbp)
   1345c:	48 8d 85 1d f8 ff ff 	lea    -0x7e3(%rbp),%rax
   13463:	48 89 85 78 ff ff ff 	mov    %rax,-0x88(%rbp)
   1346a:	48 8d 85 1d f8 ff ff 	lea    -0x7e3(%rbp),%rax
   13471:	48 89 45 80          	mov    %rax,-0x80(%rbp)
   13475:	48 8d 05 b9 7b 00 00 	lea    0x7bb9(%rip),%rax        # 1b035 <g_23+0x5>
   1347c:	48 89 45 88          	mov    %rax,-0x78(%rbp)
   13480:	48 8d 05 bd 7b 00 00 	lea    0x7bbd(%rip),%rax        # 1b044 <g_23+0x14>
   13487:	48 89 45 90          	mov    %rax,-0x70(%rbp)
   1348b:	48 8d 05 ae 7b 00 00 	lea    0x7bae(%rip),%rax        # 1b040 <g_23+0x10>
   13492:	48 89 45 98          	mov    %rax,-0x68(%rbp)
   13496:	48 c7 45 a0 00 00 00 	movq   $0x0,-0x60(%rbp)
   1349d:	00 
   1349e:	48 8d 05 a0 7b 00 00 	lea    0x7ba0(%rip),%rax        # 1b045 <g_23+0x15>
   134a5:	48 89 45 a8          	mov    %rax,-0x58(%rbp)
   134a9:	48 c7 45 b0 00 00 00 	movq   $0x0,-0x50(%rbp)
   134b0:	00 
   134b1:	48 8d 85 1d f8 ff ff 	lea    -0x7e3(%rbp),%rax
   134b8:	48 89 45 b8          	mov    %rax,-0x48(%rbp)
   134bc:	48 8d 85 1d f8 ff ff 	lea    -0x7e3(%rbp),%rax
   134c3:	48 89 45 c0          	mov    %rax,-0x40(%rbp)
   134c7:	48 8d 05 0a 7d 00 00 	lea    0x7d0a(%rip),%rax        # 1b1d8 <g_120>
   134ce:	48 89 45 c8          	mov    %rax,-0x38(%rbp)
   134d2:	48 8d 85 50 fb ff ff 	lea    -0x4b0(%rbp),%rax
   134d9:	48 83 c0 40          	add    $0x40,%rax
   134dd:	48 89 85 b8 f8 ff ff 	mov    %rax,-0x748(%rbp)
   134e4:	48 8d 05 25 92 00 00 	lea    0x9225(%rip),%rax        # 1c710 <g_267+0x10>
   134eb:	48 89 85 c0 f8 ff ff 	mov    %rax,-0x740(%rbp)
   134f2:	c6 05 57 7b 00 00 00 	movb   $0x0,0x7b57(%rip)        # 1b050 <g_28>
   134f9:	e9 0f 0c 00 00       	jmpq   1410d <func_46+0x1549>
   134fe:	c7 85 50 f8 ff ff 92 	movl   $0x8ed7a292,-0x7b0(%rbp)
   13505:	a2 d7 8e 
   13508:	c7 85 54 f8 ff ff 90 	movl   $0x5957e190,-0x7ac(%rbp)
   1350f:	e1 57 59 
   13512:	c7 85 58 f8 ff ff 01 	movl   $0x1,-0x7a8(%rbp)
   13519:	00 00 00 
   1351c:	c7 85 5c f8 ff ff 1c 	movl   $0x394f41c,-0x7a4(%rbp)
   13523:	f4 94 03 
   13526:	48 c7 85 c8 f8 ff ff 	movq   $0x0,-0x738(%rbp)
   1352d:	00 00 00 00 
   13531:	48 c7 85 00 fa ff ff 	movq   $0x0,-0x600(%rbp)
   13538:	00 00 00 00 
   1353c:	48 8d 85 24 f8 ff ff 	lea    -0x7dc(%rbp),%rax
   13543:	48 89 85 08 fa ff ff 	mov    %rax,-0x5f8(%rbp)
   1354a:	48 8d 85 24 f8 ff ff 	lea    -0x7dc(%rbp),%rax
   13551:	48 89 85 10 fa ff ff 	mov    %rax,-0x5f0(%rbp)
   13558:	48 c7 85 18 fa ff ff 	movq   $0x0,-0x5e8(%rbp)
   1355f:	00 00 00 00 
   13563:	48 8d 85 24 f8 ff ff 	lea    -0x7dc(%rbp),%rax
   1356a:	48 89 85 20 fa ff ff 	mov    %rax,-0x5e0(%rbp)
   13571:	48 8d 85 24 f8 ff ff 	lea    -0x7dc(%rbp),%rax
   13578:	48 89 85 28 fa ff ff 	mov    %rax,-0x5d8(%rbp)
   1357f:	48 c7 85 30 fa ff ff 	movq   $0x0,-0x5d0(%rbp)
   13586:	00 00 00 00 
   1358a:	48 8d 85 24 f8 ff ff 	lea    -0x7dc(%rbp),%rax
   13591:	48 89 85 38 fa ff ff 	mov    %rax,-0x5c8(%rbp)
   13598:	48 8d 85 24 f8 ff ff 	lea    -0x7dc(%rbp),%rax
   1359f:	48 89 85 40 fa ff ff 	mov    %rax,-0x5c0(%rbp)
   135a6:	48 c7 85 48 fa ff ff 	movq   $0x0,-0x5b8(%rbp)
   135ad:	00 00 00 00 
   135b1:	c7 85 30 f8 ff ff 00 	movl   $0x0,-0x7d0(%rbp)
   135b8:	00 00 00 
   135bb:	eb 1a                	jmp    135d7 <func_46+0xa13>
   135bd:	8b 85 30 f8 ff ff    	mov    -0x7d0(%rbp),%eax
   135c3:	48 98                	cltq   
   135c5:	c7 84 85 34 f9 ff ff 	movl   $0x8c37194e,-0x6cc(%rbp,%rax,4)
   135cc:	4e 19 37 8c 
   135d0:	83 85 30 f8 ff ff 01 	addl   $0x1,-0x7d0(%rbp)
   135d7:	83 bd 30 f8 ff ff 00 	cmpl   $0x0,-0x7d0(%rbp)
   135de:	7e dd                	jle    135bd <func_46+0x9f9>
   135e0:	48 c7 05 7d 7a 00 00 	movq   $0x0,0x7a7d(%rip)        # 1b068 <g_86>
   135e7:	00 00 00 00 
   135eb:	e9 fc 0a 00 00       	jmpq   140ec <func_46+0x1528>
   135f0:	48 8d 05 f9 7b 00 00 	lea    0x7bf9(%rip),%rax        # 1b1f0 <g_219>
   135f7:	48 89 85 d0 f8 ff ff 	mov    %rax,-0x730(%rbp)
   135fe:	c7 85 60 f8 ff ff 01 	movl   $0x1,-0x7a0(%rbp)
   13605:	00 00 00 
   13608:	c7 85 64 f8 ff ff 94 	movl   $0xfd2b1694,-0x79c(%rbp)
   1360f:	16 2b fd 
   13612:	c7 85 68 f8 ff ff b1 	movl   $0xd81ba8b1,-0x798(%rbp)
   13619:	a8 1b d8 
   1361c:	c7 85 6c f8 ff ff 94 	movl   $0xbf78fd94,-0x794(%rbp)
   13623:	fd 78 bf 
   13626:	48 8d 05 53 7c 00 00 	lea    0x7c53(%rip),%rax        # 1b280 <g_346>
   1362d:	48 89 85 88 f8 ff ff 	mov    %rax,-0x778(%rbp)
   13634:	48 8d 05 a5 7b 00 00 	lea    0x7ba5(%rip),%rax        # 1b1e0 <g_158>
   1363b:	48 89 85 d8 f8 ff ff 	mov    %rax,-0x728(%rbp)
   13642:	c7 85 34 f8 ff ff 00 	movl   $0x0,-0x7cc(%rbp)
   13649:	00 00 00 
   1364c:	eb 1b                	jmp    13669 <func_46+0xaa5>
   1364e:	8b 85 34 f8 ff ff    	mov    -0x7cc(%rbp),%eax
   13654:	48 98                	cltq   
   13656:	48 c7 84 c5 38 f9 ff 	movq   $0x0,-0x6c8(%rbp,%rax,8)
   1365d:	ff 00 00 00 00 
   13662:	83 85 34 f8 ff ff 01 	addl   $0x1,-0x7cc(%rbp)
   13669:	83 bd 34 f8 ff ff 00 	cmpl   $0x0,-0x7cc(%rbp)
   13670:	7e dc                	jle    1364e <func_46+0xa8a>
   13672:	83 bd 50 f8 ff ff 00 	cmpl   $0x0,-0x7b0(%rbp)
   13679:	0f 84 7e 01 00 00    	je     137fd <func_46+0xc39>
   1367f:	48 8b 85 00 f8 ff ff 	mov    -0x800(%rbp),%rax
   13686:	48 8b 00             	mov    (%rax),%rax
   13689:	0f b6 00             	movzbl (%rax),%eax
   1368c:	0f be d8             	movsbl %al,%ebx
   1368f:	48 8b 85 00 f8 ff ff 	mov    -0x800(%rbp),%rax
   13696:	48 8b 00             	mov    (%rax),%rax
   13699:	0f b6 00             	movzbl (%rax),%eax
   1369c:	0f b6 d0             	movzbl %al,%edx
   1369f:	48 8b 05 1a 90 00 00 	mov    0x901a(%rip),%rax        # 1c6c0 <g_27>
   136a6:	0f b6 00             	movzbl (%rax),%eax
   136a9:	0f be c0             	movsbl %al,%eax
   136ac:	89 d6                	mov    %edx,%esi
   136ae:	89 c7                	mov    %eax,%edi
   136b0:	e8 b7 1c ff ff       	callq  536c <safe_rshift_func_int8_t_s_u>
   136b5:	44 0f be e0          	movsbl %al,%r12d
   136b9:	8b 85 20 f8 ff ff    	mov    -0x7e0(%rbp),%eax
   136bf:	41 89 c5             	mov    %eax,%r13d
   136c2:	48 8b 85 d0 f8 ff ff 	mov    -0x730(%rbp),%rax
   136c9:	8b 10                	mov    (%rax),%edx
   136cb:	0f bf 85 f8 f7 ff ff 	movswl -0x808(%rbp),%eax
   136d2:	31 c2                	xor    %eax,%edx
   136d4:	48 8b 85 d0 f8 ff ff 	mov    -0x730(%rbp),%rax
   136db:	89 10                	mov    %edx,(%rax)
   136dd:	0f b6 05 6c 79 00 00 	movzbl 0x796c(%rip),%eax        # 1b050 <g_28>
   136e4:	0f be c0             	movsbl %al,%eax
   136e7:	be 0a 00 00 00       	mov    $0xa,%esi
   136ec:	89 c7                	mov    %eax,%edi
   136ee:	e8 37 1e ff ff       	callq  552a <safe_rshift_func_int16_t_s_s>
   136f3:	83 bd 50 f8 ff ff 00 	cmpl   $0x0,-0x7b0(%rbp)
   136fa:	75 0e                	jne    1370a <func_46+0xb46>
   136fc:	48 8b 05 c5 8f 00 00 	mov    0x8fc5(%rip),%rax        # 1c6c8 <g_55>
   13703:	0f b6 00             	movzbl (%rax),%eax
   13706:	84 c0                	test   %al,%al
   13708:	74 07                	je     13711 <func_46+0xb4d>
   1370a:	b9 01 00 00 00       	mov    $0x1,%ecx
   1370f:	eb 05                	jmp    13716 <func_46+0xb52>
   13711:	b9 00 00 00 00       	mov    $0x0,%ecx
   13716:	48 8b 05 4b 79 00 00 	mov    0x794b(%rip),%rax        # 1b068 <g_86>
   1371d:	48 8d 14 85 00 00 00 	lea    0x0(,%rax,4),%rdx
   13724:	00 
   13725:	48 8d 05 2c 79 00 00 	lea    0x792c(%rip),%rax        # 1b058 <g_84>
   1372c:	8b 04 02             	mov    (%rdx,%rax,1),%eax
   1372f:	39 c1                	cmp    %eax,%ecx
   13731:	0f 9e c0             	setle  %al
   13734:	89 c2                	mov    %eax,%edx
   13736:	0f b6 05 f8 78 00 00 	movzbl 0x78f8(%rip),%eax        # 1b035 <g_23+0x5>
   1373d:	31 d0                	xor    %edx,%eax
   1373f:	88 85 1d f8 ff ff    	mov    %al,-0x7e3(%rbp)
   13745:	0f b6 85 1d f8 ff ff 	movzbl -0x7e3(%rbp),%eax
   1374c:	0f b6 d0             	movzbl %al,%edx
   1374f:	48 8b 05 6a 79 00 00 	mov    0x796a(%rip),%rax        # 1b0c0 <g_88+0x40>
   13756:	48 8d 48 ff          	lea    -0x1(%rax),%rcx
   1375a:	48 89 0d 5f 79 00 00 	mov    %rcx,0x795f(%rip)        # 1b0c0 <g_88+0x40>
   13761:	89 85 54 f8 ff ff    	mov    %eax,-0x7ac(%rbp)
   13767:	8b 85 54 f8 ff ff    	mov    -0x7ac(%rbp),%eax
   1376d:	48 98                	cltq   
   1376f:	48 89 d6             	mov    %rdx,%rsi
   13772:	48 89 c7             	mov    %rax,%rdi
   13775:	e8 d1 28 ff ff       	callq  604b <safe_sub_func_uint64_t_u_u>
   1377a:	48 c7 05 eb 7a 00 00 	movq   $0x0,0x7aeb(%rip)        # 1b270 <g_273>
   13781:	00 00 00 00 
   13785:	48 8b 05 e4 7a 00 00 	mov    0x7ae4(%rip),%rax        # 1b270 <g_273>
   1378c:	48 85 c0             	test   %rax,%rax
   1378f:	0f 94 c0             	sete   %al
   13792:	0f b6 c0             	movzbl %al,%eax
   13795:	be ff ff ff ff       	mov    $0xffffffff,%esi
   1379a:	89 c7                	mov    %eax,%edi
   1379c:	e8 32 1c ff ff       	callq  53d3 <safe_sub_func_int16_t_s_s>
   137a1:	48 8b 05 18 8f 00 00 	mov    0x8f18(%rip),%rax        # 1c6c0 <g_27>
   137a8:	0f b6 00             	movzbl (%rax),%eax
   137ab:	84 c0                	test   %al,%al
   137ad:	0f 9f c0             	setg   %al
   137b0:	0f b6 c0             	movzbl %al,%eax
   137b3:	44 89 ee             	mov    %r13d,%esi
   137b6:	89 c7                	mov    %eax,%edi
   137b8:	e8 24 1d ff ff       	callq  54e1 <safe_lshift_func_int16_t_s_u>
   137bd:	0f bf d0             	movswl %ax,%edx
   137c0:	0f b6 85 1f f8 ff ff 	movzbl -0x7e1(%rbp),%eax
   137c7:	21 d0                	and    %edx,%eax
   137c9:	85 c0                	test   %eax,%eax
   137cb:	75 0c                	jne    137d9 <func_46+0xc15>
   137cd:	0f b7 05 fc 79 00 00 	movzwl 0x79fc(%rip),%eax        # 1b1d0 <g_105>
   137d4:	66 85 c0             	test   %ax,%ax
   137d7:	74 07                	je     137e0 <func_46+0xc1c>
   137d9:	b8 01 00 00 00       	mov    $0x1,%eax
   137de:	eb 05                	jmp    137e5 <func_46+0xc21>
   137e0:	b8 00 00 00 00       	mov    $0x0,%eax
   137e5:	44 39 e0             	cmp    %r12d,%eax
   137e8:	0f 94 c0             	sete   %al
   137eb:	0f b6 c0             	movzbl %al,%eax
   137ee:	89 de                	mov    %ebx,%esi
   137f0:	89 c7                	mov    %eax,%edi
   137f2:	e8 dd 19 ff ff       	callq  51d4 <safe_add_func_int8_t_s_s>
   137f7:	38 85 fc f7 ff ff    	cmp    %al,-0x804(%rbp)
   137fd:	48 8b 05 1c 8f 00 00 	mov    0x8f1c(%rip),%rax        # 1c720 <g_319>
   13804:	48 8d 95 20 f8 ff ff 	lea    -0x7e0(%rbp),%rdx
   1380b:	48 89 10             	mov    %rdx,(%rax)
   1380e:	48 c7 05 c7 79 00 00 	movq   $0x0,0x79c7(%rip)        # 1b1e0 <g_158>
   13815:	00 00 00 00 
   13819:	90                   	nop
   1381a:	48 8b 05 bf 79 00 00 	mov    0x79bf(%rip),%rax        # 1b1e0 <g_158>
   13821:	48 83 f8 02          	cmp    $0x2,%rax
   13825:	0f 8f e2 00 00 00    	jg     1390d <func_46+0xd49>
   1382b:	48 8d 05 96 79 00 00 	lea    0x7996(%rip),%rax        # 1b1c8 <g_94>
   13832:	48 89 85 08 f9 ff ff 	mov    %rax,-0x6f8(%rbp)
   13839:	48 8b 05 28 78 00 00 	mov    0x7828(%rip),%rax        # 1b068 <g_86>
   13840:	48 8d 14 85 00 00 00 	lea    0x0(,%rax,4),%rdx
   13847:	00 
   13848:	48 8d 05 09 78 00 00 	lea    0x7809(%rip),%rax        # 1b058 <g_84>
   1384f:	48 01 d0             	add    %rdx,%rax
   13852:	48 89 85 10 f9 ff ff 	mov    %rax,-0x6f0(%rbp)
   13859:	48 c7 85 18 f9 ff ff 	movq   $0x0,-0x6e8(%rbp)
   13860:	00 00 00 00 
   13864:	48 8d 05 f1 77 00 00 	lea    0x77f1(%rip),%rax        # 1b05c <g_84+0x4>
   1386b:	48 89 85 20 f9 ff ff 	mov    %rax,-0x6e0(%rbp)
   13872:	c7 85 38 f8 ff ff 00 	movl   $0x0,-0x7c8(%rbp)
   13879:	00 00 00 
   1387c:	eb 1e                	jmp    1389c <func_46+0xcd8>
   1387e:	8b 85 38 f8 ff ff    	mov    -0x7c8(%rbp),%eax
   13884:	48 98                	cltq   
   13886:	48 8d 15 3b 79 00 00 	lea    0x793b(%rip),%rdx        # 1b1c8 <g_94>
   1388d:	48 89 94 c5 50 fa ff 	mov    %rdx,-0x5b0(%rbp,%rax,8)
   13894:	ff 
   13895:	83 85 38 f8 ff ff 01 	addl   $0x1,-0x7c8(%rbp)
   1389c:	83 bd 38 f8 ff ff 01 	cmpl   $0x1,-0x7c8(%rbp)
   138a3:	7e d9                	jle    1387e <func_46+0xcba>
   138a5:	83 ad 28 f8 ff ff 01 	subl   $0x1,-0x7d8(%rbp)
   138ac:	c7 85 58 f8 ff ff 01 	movl   $0x1,-0x7a8(%rbp)
   138b3:	00 00 00 
   138b6:	48 8d 85 60 f9 ff ff 	lea    -0x6a0(%rbp),%rax
   138bd:	48 83 c0 24          	add    $0x24,%rax
   138c1:	48 89 85 28 f9 ff ff 	mov    %rax,-0x6d8(%rbp)
   138c8:	48 8b 05 59 8e 00 00 	mov    0x8e59(%rip),%rax        # 1c728 <g_343>
   138cf:	48 8b 95 28 f9 ff ff 	mov    -0x6d8(%rbp),%rdx
   138d6:	48 89 10             	mov    %rdx,(%rax)
   138d9:	48 8b 85 a8 f8 ff ff 	mov    -0x758(%rbp),%rax
   138e0:	48 89 85 88 f8 ff ff 	mov    %rax,-0x778(%rbp)
   138e7:	48 8b 85 08 f9 ff ff 	mov    -0x6f8(%rbp),%rax
   138ee:	8b 00                	mov    (%rax),%eax
   138f0:	0b 85 5c f8 ff ff    	or     -0x7a4(%rbp),%eax
   138f6:	89 c2                	mov    %eax,%edx
   138f8:	48 8b 85 08 f9 ff ff 	mov    -0x6f8(%rbp),%rax
   138ff:	89 10                	mov    %edx,(%rax)
   13901:	48 8b 05 30 8e 00 00 	mov    0x8e30(%rip),%rax        # 1c738 <g_372+0x8>
   13908:	e9 18 09 00 00       	jmpq   14225 <func_46+0x1661>
   1390d:	c7 85 44 f9 ff ff 01 	movl   $0x1,-0x6bc(%rbp)
   13914:	00 00 00 
   13917:	8b 85 34 f9 ff ff    	mov    -0x6cc(%rbp),%eax
   1391d:	89 c2                	mov    %eax,%edx
   1391f:	8b 85 64 f8 ff ff    	mov    -0x79c(%rbp),%eax
   13925:	21 d0                	and    %edx,%eax
   13927:	0f bf d0             	movswl %ax,%edx
   1392a:	0f b6 05 9f 78 00 00 	movzbl 0x789f(%rip),%eax        # 1b1d0 <g_105>
   13931:	0f be c0             	movsbl %al,%eax
   13934:	89 d6                	mov    %edx,%esi
   13936:	89 c7                	mov    %eax,%edi
   13938:	e8 18 1b ff ff       	callq  5455 <safe_div_func_int16_t_s_s>
   1393d:	98                   	cwtl   
   1393e:	89 c6                	mov    %eax,%esi
   13940:	bf fd 00 00 00       	mov    $0xfd,%edi
   13945:	e8 74 23 ff ff       	callq  5cbe <safe_rshift_func_uint8_t_u_u>
   1394a:	83 bd 44 f8 ff ff 00 	cmpl   $0x0,-0x7bc(%rbp)
   13951:	74 29                	je     1397c <func_46+0xdb8>
   13953:	48 8b 05 ce 8d 00 00 	mov    0x8dce(%rip),%rax        # 1c728 <g_343>
   1395a:	b8 f7 ff ff ff       	mov    $0xfffffff7,%eax
   1395f:	39 85 64 f8 ff ff    	cmp    %eax,-0x79c(%rbp)
   13965:	0f 94 c0             	sete   %al
   13968:	0f b6 d0             	movzbl %al,%edx
   1396b:	8b 85 0c f8 ff ff    	mov    -0x7f4(%rbp),%eax
   13971:	39 c2                	cmp    %eax,%edx
   13973:	74 07                	je     1397c <func_46+0xdb8>
   13975:	b8 01 00 00 00       	mov    $0x1,%eax
   1397a:	eb 05                	jmp    13981 <func_46+0xdbd>
   1397c:	b8 00 00 00 00       	mov    $0x0,%eax
   13981:	0f be c0             	movsbl %al,%eax
   13984:	be 03 00 00 00       	mov    $0x3,%esi
   13989:	89 c7                	mov    %eax,%edi
   1398b:	e8 11 19 ff ff       	callq  52a1 <safe_lshift_func_int8_t_s_s>
   13990:	be 05 00 00 00       	mov    $0x5,%esi
   13995:	bf e9 ff ff ff       	mov    $0xffffffe9,%edi
   1399a:	e8 96 19 ff ff       	callq  5335 <safe_rshift_func_int8_t_s_s>
   1399f:	84 c0                	test   %al,%al
   139a1:	0f 84 1c 02 00 00    	je     13bc3 <func_46+0xfff>
   139a7:	c7 85 28 f8 ff ff 00 	movl   $0x0,-0x7d8(%rbp)
   139ae:	00 00 00 
   139b1:	e9 fb 01 00 00       	jmpq   13bb1 <func_46+0xfed>
   139b6:	48 8d 85 24 f8 ff ff 	lea    -0x7dc(%rbp),%rax
   139bd:	48 89 85 00 f9 ff ff 	mov    %rax,-0x700(%rbp)
   139c4:	48 8d 05 b5 78 00 00 	lea    0x78b5(%rip),%rax        # 1b280 <g_346>
   139cb:	48 89 85 50 fa ff ff 	mov    %rax,-0x5b0(%rbp)
   139d2:	48 8d 05 a7 78 00 00 	lea    0x78a7(%rip),%rax        # 1b280 <g_346>
   139d9:	48 89 85 58 fa ff ff 	mov    %rax,-0x5a8(%rbp)
   139e0:	48 8d 05 99 78 00 00 	lea    0x7899(%rip),%rax        # 1b280 <g_346>
   139e7:	48 89 85 60 fa ff ff 	mov    %rax,-0x5a0(%rbp)
   139ee:	48 8d 05 8b 78 00 00 	lea    0x788b(%rip),%rax        # 1b280 <g_346>
   139f5:	48 89 85 68 fa ff ff 	mov    %rax,-0x598(%rbp)
   139fc:	48 8d 05 7d 78 00 00 	lea    0x787d(%rip),%rax        # 1b280 <g_346>
   13a03:	48 89 85 70 fa ff ff 	mov    %rax,-0x590(%rbp)
   13a0a:	48 8d 05 6f 78 00 00 	lea    0x786f(%rip),%rax        # 1b280 <g_346>
   13a11:	48 89 85 78 fa ff ff 	mov    %rax,-0x588(%rbp)
   13a18:	48 8d 05 61 78 00 00 	lea    0x7861(%rip),%rax        # 1b280 <g_346>
   13a1f:	48 89 85 80 fa ff ff 	mov    %rax,-0x580(%rbp)
   13a26:	48 8d 05 53 78 00 00 	lea    0x7853(%rip),%rax        # 1b280 <g_346>
   13a2d:	48 89 85 88 fa ff ff 	mov    %rax,-0x578(%rbp)
   13a34:	48 8d 05 45 78 00 00 	lea    0x7845(%rip),%rax        # 1b280 <g_346>
   13a3b:	48 89 85 90 fa ff ff 	mov    %rax,-0x570(%rbp)
   13a42:	8b 85 28 f8 ff ff    	mov    -0x7d8(%rbp),%eax
   13a48:	8d 50 01             	lea    0x1(%rax),%edx
   13a4b:	8b 85 28 f8 ff ff    	mov    -0x7d8(%rbp),%eax
   13a51:	89 d2                	mov    %edx,%edx
   13a53:	48 01 d0             	add    %rdx,%rax
   13a56:	48 8d 14 c5 00 00 00 	lea    0x0(,%rax,8),%rdx
   13a5d:	00 
   13a5e:	48 8d 05 cb 8c 00 00 	lea    0x8ccb(%rip),%rax        # 1c730 <g_372>
   13a65:	48 c7 04 02 00 00 00 	movq   $0x0,(%rdx,%rax,1)
   13a6c:	00 
   13a6d:	8b 9d 08 f8 ff ff    	mov    -0x7f8(%rbp),%ebx
   13a73:	48 8d 05 c6 8c 00 00 	lea    0x8cc6(%rip),%rax        # 1c740 <g_392>
   13a7a:	48 39 85 b0 f8 ff ff 	cmp    %rax,-0x750(%rbp)
   13a81:	0f 94 c0             	sete   %al
   13a84:	0f b6 c0             	movzbl %al,%eax
   13a87:	66 89 05 ea 77 00 00 	mov    %ax,0x77ea(%rip)        # 1b278 <g_314>
   13a8e:	0f b7 05 e3 77 00 00 	movzwl 0x77e3(%rip),%eax        # 1b278 <g_314>
   13a95:	0f b7 d0             	movzwl %ax,%edx
   13a98:	0f b7 05 e9 77 00 00 	movzwl 0x77e9(%rip),%eax        # 1b288 <g_370>
   13a9f:	0f bf c8             	movswl %ax,%ecx
   13aa2:	48 8b 85 00 f9 ff ff 	mov    -0x700(%rbp),%rax
   13aa9:	89 08                	mov    %ecx,(%rax)
   13aab:	0f b6 05 3e 77 00 00 	movzbl 0x773e(%rip),%eax        # 1b1f0 <g_219>
   13ab2:	66 98                	cbtw   
   13ab4:	0f b7 c0             	movzwl %ax,%eax
   13ab7:	89 d6                	mov    %edx,%esi
   13ab9:	89 c7                	mov    %eax,%edi
   13abb:	e8 3f 22 ff ff       	callq  5cff <safe_add_func_uint16_t_u_u>
   13ac0:	44 0f b7 e0          	movzwl %ax,%r12d
   13ac4:	b8 f7 ff ff ff       	mov    $0xfffffff7,%eax
   13ac9:	48 63 d0             	movslq %eax,%rdx
   13acc:	8b 85 28 f8 ff ff    	mov    -0x7d8(%rbp),%eax
   13ad2:	8d 48 01             	lea    0x1(%rax),%ecx
   13ad5:	8b 85 28 f8 ff ff    	mov    -0x7d8(%rbp),%eax
   13adb:	89 c9                	mov    %ecx,%ecx
   13add:	48 01 c8             	add    %rcx,%rax
   13ae0:	48 8d 0c c5 00 00 00 	lea    0x0(,%rax,8),%rcx
   13ae7:	00 
   13ae8:	48 8d 05 41 8c 00 00 	lea    0x8c41(%rip),%rax        # 1c730 <g_372>
   13aef:	48 8b 04 01          	mov    (%rcx,%rax,1),%rax
   13af3:	48 89 85 98 f8 ff ff 	mov    %rax,-0x768(%rbp)
   13afa:	0f bf 8d f8 f7 ff ff 	movswl -0x808(%rbp),%ecx
   13b01:	48 8b 85 00 f8 ff ff 	mov    -0x800(%rbp),%rax
   13b08:	48 8b 00             	mov    (%rax),%rax
   13b0b:	48 8d 35 23 75 00 00 	lea    0x7523(%rip),%rsi        # 1b035 <g_23+0x5>
   13b12:	48 39 f0             	cmp    %rsi,%rax
   13b15:	0f 94 c0             	sete   %al
   13b18:	0f b6 c0             	movzbl %al,%eax
   13b1b:	39 c1                	cmp    %eax,%ecx
   13b1d:	0f 95 c0             	setne  %al
   13b20:	0f b6 c0             	movzbl %al,%eax
   13b23:	48 89 d6             	mov    %rdx,%rsi
   13b26:	48 89 c7             	mov    %rax,%rdi
   13b29:	e8 1d 25 ff ff       	callq  604b <safe_sub_func_uint64_t_u_u>
   13b2e:	48 83 f8 ff          	cmp    $0xffffffffffffffff,%rax
   13b32:	0f 94 c0             	sete   %al
   13b35:	0f b6 c0             	movzbl %al,%eax
   13b38:	44 89 e2             	mov    %r12d,%edx
   13b3b:	31 c2                	xor    %eax,%edx
   13b3d:	0f bf 85 f8 f7 ff ff 	movswl -0x808(%rbp),%eax
   13b44:	39 c2                	cmp    %eax,%edx
   13b46:	0f 9f c0             	setg   %al
   13b49:	0f b6 d0             	movzbl %al,%edx
   13b4c:	0f b7 05 35 77 00 00 	movzwl 0x7735(%rip),%eax        # 1b288 <g_370>
   13b53:	98                   	cwtl   
   13b54:	39 c2                	cmp    %eax,%edx
   13b56:	7f 07                	jg     13b5f <func_46+0xf9b>
   13b58:	ba fc ff 00 00       	mov    $0xfffc,%edx
   13b5d:	eb 05                	jmp    13b64 <func_46+0xfa0>
   13b5f:	ba fd ff 00 00       	mov    $0xfffd,%edx
   13b64:	48 8b 05 fd 74 00 00 	mov    0x74fd(%rip),%rax        # 1b068 <g_86>
   13b6b:	48 21 d0             	and    %rdx,%rax
   13b6e:	48 89 c2             	mov    %rax,%rdx
   13b71:	0f b6 05 80 76 00 00 	movzbl 0x7680(%rip),%eax        # 1b1f8 <g_252>
   13b78:	48 0f be c0          	movsbq %al,%rax
   13b7c:	48 89 d6             	mov    %rdx,%rsi
   13b7f:	48 89 c7             	mov    %rax,%rdi
   13b82:	e8 70 1e ff ff       	callq  59f7 <safe_div_func_int64_t_s_s>
   13b87:	0f b7 c0             	movzwl %ax,%eax
   13b8a:	89 de                	mov    %ebx,%esi
   13b8c:	89 c7                	mov    %eax,%edi
   13b8e:	e8 2b 22 ff ff       	callq  5dbe <safe_lshift_func_uint16_t_u_s>
   13b93:	48 8b 15 4e 8b 00 00 	mov    0x8b4e(%rip),%rdx        # 1c6e8 <g_135>
   13b9a:	8b 0a                	mov    (%rdx),%ecx
   13b9c:	0f b7 d0             	movzwl %ax,%edx
   13b9f:	48 8b 05 42 8b 00 00 	mov    0x8b42(%rip),%rax        # 1c6e8 <g_135>
   13ba6:	09 ca                	or     %ecx,%edx
   13ba8:	89 10                	mov    %edx,(%rax)
   13baa:	83 85 28 f8 ff ff 01 	addl   $0x1,-0x7d8(%rbp)
   13bb1:	83 bd 28 f8 ff ff 00 	cmpl   $0x0,-0x7d8(%rbp)
   13bb8:	0f 84 f8 fd ff ff    	je     139b6 <func_46+0xdf2>
   13bbe:	e9 98 04 00 00       	jmpq   1405b <func_46+0x1497>
   13bc3:	48 8d 05 b6 76 00 00 	lea    0x76b6(%rip),%rax        # 1b280 <g_346>
   13bca:	48 89 85 e0 f8 ff ff 	mov    %rax,-0x720(%rbp)
   13bd1:	c7 85 70 f8 ff ff 3c 	movl   $0xe078da3c,-0x790(%rbp)
   13bd8:	da 78 e0 
   13bdb:	48 c7 85 90 f8 ff ff 	movq   $0x0,-0x770(%rbp)
   13be2:	00 00 00 00 
   13be6:	48 8d 85 90 f8 ff ff 	lea    -0x770(%rbp),%rax
   13bed:	48 89 85 50 fa ff ff 	mov    %rax,-0x5b0(%rbp)
   13bf4:	48 8d 85 90 f8 ff ff 	lea    -0x770(%rbp),%rax
   13bfb:	48 89 85 58 fa ff ff 	mov    %rax,-0x5a8(%rbp)
   13c02:	48 8d 85 90 f8 ff ff 	lea    -0x770(%rbp),%rax
   13c09:	48 89 85 60 fa ff ff 	mov    %rax,-0x5a0(%rbp)
   13c10:	48 8d 85 90 f8 ff ff 	lea    -0x770(%rbp),%rax
   13c17:	48 89 85 68 fa ff ff 	mov    %rax,-0x598(%rbp)
   13c1e:	48 8d 85 90 f8 ff ff 	lea    -0x770(%rbp),%rax
   13c25:	48 89 85 70 fa ff ff 	mov    %rax,-0x590(%rbp)
   13c2c:	48 8d 85 90 f8 ff ff 	lea    -0x770(%rbp),%rax
   13c33:	48 89 85 78 fa ff ff 	mov    %rax,-0x588(%rbp)
   13c3a:	48 8d 85 90 f8 ff ff 	lea    -0x770(%rbp),%rax
   13c41:	48 89 85 80 fa ff ff 	mov    %rax,-0x580(%rbp)
   13c48:	48 8d 85 90 f8 ff ff 	lea    -0x770(%rbp),%rax
   13c4f:	48 89 85 88 fa ff ff 	mov    %rax,-0x578(%rbp)
   13c56:	48 8d 85 90 f8 ff ff 	lea    -0x770(%rbp),%rax
   13c5d:	48 89 85 90 fa ff ff 	mov    %rax,-0x570(%rbp)
   13c64:	48 8d 85 90 f8 ff ff 	lea    -0x770(%rbp),%rax
   13c6b:	48 89 85 98 fa ff ff 	mov    %rax,-0x568(%rbp)
   13c72:	48 8d 85 90 f8 ff ff 	lea    -0x770(%rbp),%rax
   13c79:	48 89 85 a0 fa ff ff 	mov    %rax,-0x560(%rbp)
   13c80:	48 8d 85 90 f8 ff ff 	lea    -0x770(%rbp),%rax
   13c87:	48 89 85 a8 fa ff ff 	mov    %rax,-0x558(%rbp)
   13c8e:	48 8d 85 90 f8 ff ff 	lea    -0x770(%rbp),%rax
   13c95:	48 89 85 b0 fa ff ff 	mov    %rax,-0x550(%rbp)
   13c9c:	48 8d 85 90 f8 ff ff 	lea    -0x770(%rbp),%rax
   13ca3:	48 89 85 b8 fa ff ff 	mov    %rax,-0x548(%rbp)
   13caa:	48 8d 85 90 f8 ff ff 	lea    -0x770(%rbp),%rax
   13cb1:	48 89 85 c0 fa ff ff 	mov    %rax,-0x540(%rbp)
   13cb8:	48 8d 85 90 f8 ff ff 	lea    -0x770(%rbp),%rax
   13cbf:	48 89 85 c8 fa ff ff 	mov    %rax,-0x538(%rbp)
   13cc6:	48 8d 85 90 f8 ff ff 	lea    -0x770(%rbp),%rax
   13ccd:	48 89 85 d0 fa ff ff 	mov    %rax,-0x530(%rbp)
   13cd4:	48 8d 85 90 f8 ff ff 	lea    -0x770(%rbp),%rax
   13cdb:	48 89 85 d8 fa ff ff 	mov    %rax,-0x528(%rbp)
   13ce2:	48 8d 85 90 f8 ff ff 	lea    -0x770(%rbp),%rax
   13ce9:	48 89 85 e0 fa ff ff 	mov    %rax,-0x520(%rbp)
   13cf0:	48 8d 85 90 f8 ff ff 	lea    -0x770(%rbp),%rax
   13cf7:	48 89 85 e8 fa ff ff 	mov    %rax,-0x518(%rbp)
   13cfe:	48 8d 85 90 f8 ff ff 	lea    -0x770(%rbp),%rax
   13d05:	48 89 85 f0 fa ff ff 	mov    %rax,-0x510(%rbp)
   13d0c:	48 8d 85 90 f8 ff ff 	lea    -0x770(%rbp),%rax
   13d13:	48 89 85 f8 fa ff ff 	mov    %rax,-0x508(%rbp)
   13d1a:	48 8d 85 90 f8 ff ff 	lea    -0x770(%rbp),%rax
   13d21:	48 89 85 00 fb ff ff 	mov    %rax,-0x500(%rbp)
   13d28:	48 8d 85 90 f8 ff ff 	lea    -0x770(%rbp),%rax
   13d2f:	48 89 85 08 fb ff ff 	mov    %rax,-0x4f8(%rbp)
   13d36:	48 8d 85 90 f8 ff ff 	lea    -0x770(%rbp),%rax
   13d3d:	48 89 85 10 fb ff ff 	mov    %rax,-0x4f0(%rbp)
   13d44:	48 8d 85 90 f8 ff ff 	lea    -0x770(%rbp),%rax
   13d4b:	48 89 85 18 fb ff ff 	mov    %rax,-0x4e8(%rbp)
   13d52:	48 8d 85 90 f8 ff ff 	lea    -0x770(%rbp),%rax
   13d59:	48 89 85 20 fb ff ff 	mov    %rax,-0x4e0(%rbp)
   13d60:	48 8d 85 90 f8 ff ff 	lea    -0x770(%rbp),%rax
   13d67:	48 89 85 28 fb ff ff 	mov    %rax,-0x4d8(%rbp)
   13d6e:	48 8d 85 90 f8 ff ff 	lea    -0x770(%rbp),%rax
   13d75:	48 89 85 30 fb ff ff 	mov    %rax,-0x4d0(%rbp)
   13d7c:	48 8d 85 90 f8 ff ff 	lea    -0x770(%rbp),%rax
   13d83:	48 89 85 38 fb ff ff 	mov    %rax,-0x4c8(%rbp)
   13d8a:	48 8d 85 90 f8 ff ff 	lea    -0x770(%rbp),%rax
   13d91:	48 89 85 40 fb ff ff 	mov    %rax,-0x4c0(%rbp)
   13d98:	48 8d 85 90 f8 ff ff 	lea    -0x770(%rbp),%rax
   13d9f:	48 89 85 48 fb ff ff 	mov    %rax,-0x4b8(%rbp)
   13da6:	c7 85 74 f8 ff ff 05 	movl   $0x5,-0x78c(%rbp)
   13dad:	00 00 00 
   13db0:	48 8b 85 e0 f8 ff ff 	mov    -0x720(%rbp),%rax
   13db7:	0f b7 00             	movzwl (%rax),%eax
   13dba:	8d 50 01             	lea    0x1(%rax),%edx
   13dbd:	48 8b 85 e0 f8 ff ff 	mov    -0x720(%rbp),%rax
   13dc4:	66 89 10             	mov    %dx,(%rax)
   13dc7:	48 8b 05 5a 89 00 00 	mov    0x895a(%rip),%rax        # 1c728 <g_343>
   13dce:	48 8b 00             	mov    (%rax),%rax
   13dd1:	48 8d 15 74 72 00 00 	lea    0x7274(%rip),%rdx        # 1b04c <g_26>
   13dd8:	48 39 d0             	cmp    %rdx,%rax
   13ddb:	0f 94 c0             	sete   %al
   13dde:	0f b6 d8             	movzbl %al,%ebx
   13de1:	8b 95 70 f8 ff ff    	mov    -0x790(%rbp),%edx
   13de7:	48 8b 05 7a 72 00 00 	mov    0x727a(%rip),%rax        # 1b068 <g_86>
   13dee:	48 39 c2             	cmp    %rax,%rdx
   13df1:	0f 95 c0             	setne  %al
   13df4:	0f b6 c0             	movzbl %al,%eax
   13df7:	be 08 00 00 00       	mov    $0x8,%esi
   13dfc:	89 c7                	mov    %eax,%edi
   13dfe:	e8 bb 1f ff ff       	callq  5dbe <safe_lshift_func_uint16_t_u_s>
   13e03:	0f b7 c0             	movzwl %ax,%eax
   13e06:	39 c3                	cmp    %eax,%ebx
   13e08:	b8 01 00 00 00       	mov    $0x1,%eax
   13e0d:	0f be d0             	movsbl %al,%edx
   13e10:	0f be 85 fc f7 ff ff 	movsbl -0x804(%rbp),%eax
   13e17:	89 d6                	mov    %edx,%esi
   13e19:	89 c7                	mov    %eax,%edi
   13e1b:	e8 b4 13 ff ff       	callq  51d4 <safe_add_func_int8_t_s_s>
   13e20:	84 c0                	test   %al,%al
   13e22:	0f 84 28 01 00 00    	je     13f50 <func_46+0x138c>
   13e28:	c7 85 7c f8 ff ff 00 	movl   $0x0,-0x784(%rbp)
   13e2f:	00 00 00 
   13e32:	48 8d 85 50 fa ff ff 	lea    -0x5b0(%rbp),%rax
   13e39:	48 83 c0 50          	add    $0x50,%rax
   13e3d:	48 89 85 f8 f8 ff ff 	mov    %rax,-0x708(%rbp)
   13e44:	48 8b 05 9d 88 00 00 	mov    0x889d(%rip),%rax        # 1c6e8 <g_135>
   13e4b:	8b 10                	mov    (%rax),%edx
   13e4d:	48 8b 05 94 88 00 00 	mov    0x8894(%rip),%rax        # 1c6e8 <g_135>
   13e54:	83 f2 01             	xor    $0x1,%edx
   13e57:	89 10                	mov    %edx,(%rax)
   13e59:	8b 85 50 f9 ff ff    	mov    -0x6b0(%rbp),%eax
   13e5f:	85 c0                	test   %eax,%eax
   13e61:	0f 85 73 02 00 00    	jne    140da <func_46+0x1516>
   13e67:	48 8b 05 7a 88 00 00 	mov    0x887a(%rip),%rax        # 1c6e8 <g_135>
   13e6e:	8b 95 4c f8 ff ff    	mov    -0x7b4(%rbp),%edx
   13e74:	89 10                	mov    %edx,(%rax)
   13e76:	48 8b 85 38 f9 ff ff 	mov    -0x6c8(%rbp),%rax
   13e7d:	48 85 c0             	test   %rax,%rax
   13e80:	8b 9d 7c f8 ff ff    	mov    -0x784(%rbp),%ebx
   13e86:	48 8b 05 3b 88 00 00 	mov    0x883b(%rip),%rax        # 1c6c8 <g_55>
   13e8d:	0f b6 00             	movzbl (%rax),%eax
   13e90:	44 0f be e0          	movsbl %al,%r12d
   13e94:	48 0f bf 85 f8 f7 ff 	movswq -0x808(%rbp),%rax
   13e9b:	ff 
   13e9c:	be 01 00 00 00       	mov    $0x1,%esi
   13ea1:	48 89 c7             	mov    %rax,%rdi
   13ea4:	e8 85 21 ff ff       	callq  602e <safe_add_func_uint64_t_u_u>
   13ea9:	49 89 c6             	mov    %rax,%r14
   13eac:	44 0f be ad fc f7 ff 	movsbl -0x804(%rbp),%r13d
   13eb3:	ff 
   13eb4:	be ff ff ff ff       	mov    $0xffffffff,%esi
   13eb9:	bf 01 00 00 00       	mov    $0x1,%edi
   13ebe:	e8 32 15 ff ff       	callq  53f5 <safe_mul_func_int16_t_s_s>
   13ec3:	0f bf d0             	movswl %ax,%edx
   13ec6:	0f bf 85 f8 f7 ff ff 	movswl -0x808(%rbp),%eax
   13ecd:	89 d6                	mov    %edx,%esi
   13ecf:	89 c7                	mov    %eax,%edi
   13ed1:	e8 1f 15 ff ff       	callq  53f5 <safe_mul_func_int16_t_s_s>
   13ed6:	98                   	cwtl   
   13ed7:	44 89 ee             	mov    %r13d,%esi
   13eda:	89 c7                	mov    %eax,%edi
   13edc:	e8 74 15 ff ff       	callq  5455 <safe_div_func_int16_t_s_s>
   13ee1:	66 0f be 95 fc f7 ff 	movsbw -0x804(%rbp),%dx
   13ee8:	ff 
   13ee9:	66 39 d0             	cmp    %dx,%ax
   13eec:	0f 9d c0             	setge  %al
   13eef:	0f b6 d0             	movzbl %al,%edx
   13ef2:	8b 85 0c f8 ff ff    	mov    -0x7f4(%rbp),%eax
   13ef8:	39 c2                	cmp    %eax,%edx
   13efa:	0f 96 c0             	setbe  %al
   13efd:	0f b6 c0             	movzbl %al,%eax
   13f00:	49 39 c6             	cmp    %rax,%r14
   13f03:	0f 97 c0             	seta   %al
   13f06:	0f b6 c0             	movzbl %al,%eax
   13f09:	44 89 e6             	mov    %r12d,%esi
   13f0c:	89 c7                	mov    %eax,%edi
   13f0e:	e8 c1 12 ff ff       	callq  51d4 <safe_add_func_int8_t_s_s>
   13f13:	8b 05 d7 72 00 00    	mov    0x72d7(%rip),%eax        # 1b1f0 <g_219>
   13f19:	48 89 de             	mov    %rbx,%rsi
   13f1c:	bf 01 00 00 00       	mov    $0x1,%edi
   13f21:	e8 08 21 ff ff       	callq  602e <safe_add_func_uint64_t_u_u>
   13f26:	48 8b 95 a0 fa ff ff 	mov    -0x560(%rbp),%rdx
   13f2d:	48 8b 85 f8 f8 ff ff 	mov    -0x708(%rbp),%rax
   13f34:	48 89 10             	mov    %rdx,(%rax)
   13f37:	48 8b 05 e2 89 00 00 	mov    0x89e2(%rip),%rax        # 1c920 <g_427>
   13f3e:	48 8b 95 f8 f8 ff ff 	mov    -0x708(%rbp),%rdx
   13f45:	48 8b 12             	mov    (%rdx),%rdx
   13f48:	48 89 10             	mov    %rdx,(%rax)
   13f4b:	e9 0b 01 00 00       	jmpq   1405b <func_46+0x1497>
   13f50:	48 8d 85 1e f8 ff ff 	lea    -0x7e2(%rbp),%rax
   13f57:	48 89 85 e8 f8 ff ff 	mov    %rax,-0x718(%rbp)
   13f5e:	c7 85 78 f8 ff ff 27 	movl   $0xcbe39927,-0x788(%rbp)
   13f65:	99 e3 cb 
   13f68:	48 8d 05 61 72 00 00 	lea    0x7261(%rip),%rax        # 1b1d0 <g_105>
   13f6f:	48 89 85 90 f9 ff ff 	mov    %rax,-0x670(%rbp)
   13f76:	48 8d 05 53 72 00 00 	lea    0x7253(%rip),%rax        # 1b1d0 <g_105>
   13f7d:	48 89 85 98 f9 ff ff 	mov    %rax,-0x668(%rbp)
   13f84:	48 8d 05 45 72 00 00 	lea    0x7245(%rip),%rax        # 1b1d0 <g_105>
   13f8b:	48 89 85 a0 f9 ff ff 	mov    %rax,-0x660(%rbp)
   13f92:	48 8d 05 37 72 00 00 	lea    0x7237(%rip),%rax        # 1b1d0 <g_105>
   13f99:	48 89 85 a8 f9 ff ff 	mov    %rax,-0x658(%rbp)
   13fa0:	48 8d 05 29 72 00 00 	lea    0x7229(%rip),%rax        # 1b1d0 <g_105>
   13fa7:	48 89 85 b0 f9 ff ff 	mov    %rax,-0x650(%rbp)
   13fae:	48 8d 05 1b 72 00 00 	lea    0x721b(%rip),%rax        # 1b1d0 <g_105>
   13fb5:	48 89 85 b8 f9 ff ff 	mov    %rax,-0x648(%rbp)
   13fbc:	48 8d 05 1d 72 00 00 	lea    0x721d(%rip),%rax        # 1b1e0 <g_158>
   13fc3:	48 89 85 f0 f8 ff ff 	mov    %rax,-0x710(%rbp)
   13fca:	c7 85 3c f8 ff ff 00 	movl   $0x0,-0x7c4(%rbp)
   13fd1:	00 00 00 
   13fd4:	eb 1e                	jmp    13ff4 <func_46+0x1430>
   13fd6:	8b 85 3c f8 ff ff    	mov    -0x7c4(%rbp),%eax
   13fdc:	48 98                	cltq   
   13fde:	48 8d 95 88 f8 ff ff 	lea    -0x778(%rbp),%rdx
   13fe5:	48 89 94 c5 c0 f9 ff 	mov    %rdx,-0x640(%rbp,%rax,8)
   13fec:	ff 
   13fed:	83 85 3c f8 ff ff 01 	addl   $0x1,-0x7c4(%rbp)
   13ff4:	83 bd 3c f8 ff ff 06 	cmpl   $0x6,-0x7c4(%rbp)
   13ffb:	7e d9                	jle    13fd6 <func_46+0x1412>
   13ffd:	48 8b 05 bc 86 00 00 	mov    0x86bc(%rip),%rax        # 1c6c0 <g_27>
   14004:	0f b6 10             	movzbl (%rax),%edx
   14007:	48 8b 85 e8 f8 ff ff 	mov    -0x718(%rbp),%rax
   1400e:	88 10                	mov    %dl,(%rax)
   14010:	48 8b 85 e8 f8 ff ff 	mov    -0x718(%rbp),%rax
   14017:	0f b6 00             	movzbl (%rax),%eax
   1401a:	0f be c0             	movsbl %al,%eax
   1401d:	89 85 74 f8 ff ff    	mov    %eax,-0x78c(%rbp)
   14023:	8b 85 74 f8 ff ff    	mov    -0x78c(%rbp),%eax
   14029:	0f be c0             	movsbl %al,%eax
   1402c:	be 01 00 00 00       	mov    $0x1,%esi
   14031:	89 c7                	mov    %eax,%edi
   14033:	e8 f9 11 ff ff       	callq  5231 <safe_mod_func_int8_t_s_s>
   14038:	84 c0                	test   %al,%al
   1403a:	75 0a                	jne    14046 <func_46+0x1482>
   1403c:	8b 05 22 3c 00 00    	mov    0x3c22(%rip),%eax        # 17c64 <l_405.5430+0x44>
   14042:	85 c0                	test   %eax,%eax
   14044:	74 07                	je     1404d <func_46+0x1489>
   14046:	ba 01 00 00 00       	mov    $0x1,%edx
   1404b:	eb 05                	jmp    14052 <func_46+0x148e>
   1404d:	ba 00 00 00 00       	mov    $0x0,%edx
   14052:	48 8b 05 8f 86 00 00 	mov    0x868f(%rip),%rax        # 1c6e8 <g_135>
   14059:	89 10                	mov    %edx,(%rax)
   1405b:	48 8b 05 5e 86 00 00 	mov    0x865e(%rip),%rax        # 1c6c0 <g_27>
   14062:	0f b6 00             	movzbl (%rax),%eax
   14065:	0f b6 d8             	movzbl %al,%ebx
   14068:	8b 95 64 f8 ff ff    	mov    -0x79c(%rbp),%edx
   1406e:	48 8b 85 b0 f8 ff ff 	mov    -0x750(%rbp),%rax
   14075:	48 8b 8d a0 f8 ff ff 	mov    -0x760(%rbp),%rcx
   1407c:	48 89 08             	mov    %rcx,(%rax)
   1407f:	48 8b 85 b0 f8 ff ff 	mov    -0x750(%rbp),%rax
   14086:	48 8b 00             	mov    (%rax),%rax
   14089:	48 85 c0             	test   %rax,%rax
   1408c:	0f 95 c0             	setne  %al
   1408f:	0f b6 c0             	movzbl %al,%eax
   14092:	89 d6                	mov    %edx,%esi
   14094:	89 c7                	mov    %eax,%edi
   14096:	e8 8a 1e ff ff       	callq  5f25 <safe_div_func_uint32_t_u_u>
   1409b:	be ff ff ff ff       	mov    $0xffffffff,%esi
   140a0:	bf 01 00 00 00       	mov    $0x1,%edi
   140a5:	e8 0c 15 ff ff       	callq  55b6 <safe_add_func_int32_t_s_s>
   140aa:	85 c0                	test   %eax,%eax
   140ac:	0f 95 c0             	setne  %al
   140af:	0f b6 d0             	movzbl %al,%edx
   140b2:	48 8b 05 2f 86 00 00 	mov    0x862f(%rip),%rax        # 1c6e8 <g_135>
   140b9:	8b 00                	mov    (%rax),%eax
   140bb:	39 c2                	cmp    %eax,%edx
   140bd:	0f 9d c0             	setge  %al
   140c0:	0f b6 c0             	movzbl %al,%eax
   140c3:	89 de                	mov    %ebx,%esi
   140c5:	89 c7                	mov    %eax,%edi
   140c7:	e8 ac 1a ff ff       	callq  5b78 <safe_sub_func_uint8_t_u_u>
   140cc:	89 c2                	mov    %eax,%edx
   140ce:	48 8b 05 13 86 00 00 	mov    0x8613(%rip),%rax        # 1c6e8 <g_135>
   140d5:	0f b6 d2             	movzbl %dl,%edx
   140d8:	89 10                	mov    %edx,(%rax)
   140da:	48 8b 05 87 6f 00 00 	mov    0x6f87(%rip),%rax        # 1b068 <g_86>
   140e1:	48 83 c0 01          	add    $0x1,%rax
   140e5:	48 89 05 7c 6f 00 00 	mov    %rax,0x6f7c(%rip)        # 1b068 <g_86>
   140ec:	48 8b 05 75 6f 00 00 	mov    0x6f75(%rip),%rax        # 1b068 <g_86>
   140f3:	48 83 f8 02          	cmp    $0x2,%rax
   140f7:	0f 86 f3 f4 ff ff    	jbe    135f0 <func_46+0xa2c>
   140fd:	0f b6 05 4c 6f 00 00 	movzbl 0x6f4c(%rip),%eax        # 1b050 <g_28>
   14104:	83 c0 01             	add    $0x1,%eax
   14107:	88 05 43 6f 00 00    	mov    %al,0x6f43(%rip)        # 1b050 <g_28>
   1410d:	0f b6 05 3c 6f 00 00 	movzbl 0x6f3c(%rip),%eax        # 1b050 <g_28>
   14114:	3c 02                	cmp    $0x2,%al
   14116:	0f 8e e2 f3 ff ff    	jle    134fe <func_46+0x93a>
   1411c:	0f b7 05 c5 70 00 00 	movzwl 0x70c5(%rip),%eax        # 1b1e8 <g_167>
   14123:	0f b7 c0             	movzwl %ax,%eax
   14126:	be 05 00 00 00       	mov    $0x5,%esi
   1412b:	89 c7                	mov    %eax,%edi
   1412d:	e8 86 1d ff ff       	callq  5eb8 <safe_add_func_uint32_t_u_u>
   14132:	66 89 05 af 70 00 00 	mov    %ax,0x70af(%rip)        # 1b1e8 <g_167>
   14139:	0f b7 05 a8 70 00 00 	movzwl 0x70a8(%rip),%eax        # 1b1e8 <g_167>
   14140:	66 83 f8 0d          	cmp    $0xd,%ax
   14144:	0f 84 99 eb ff ff    	je     12ce3 <func_46+0x11f>
   1414a:	c6 05 ff 6e 00 00 00 	movb   $0x0,0x6eff(%rip)        # 1b050 <g_28>
   14151:	e9 b6 00 00 00       	jmpq   1420c <func_46+0x1648>
   14156:	c7 85 40 f8 ff ff 00 	movl   $0x0,-0x7c0(%rbp)
   1415d:	00 00 00 
   14160:	e9 8a 00 00 00       	jmpq   141ef <func_46+0x162b>
   14165:	c6 05 6c 70 00 00 00 	movb   $0x0,0x706c(%rip)        # 1b1d8 <g_120>
   1416c:	eb 6f                	jmp    141dd <func_46+0x1619>
   1416e:	0f b6 05 db 6e 00 00 	movzbl 0x6edb(%rip),%eax        # 1b050 <g_28>
   14175:	0f be c0             	movsbl %al,%eax
   14178:	0f b6 15 59 70 00 00 	movzbl 0x7059(%rip),%edx        # 1b1d8 <g_120>
   1417f:	0f b6 d2             	movzbl %dl,%edx
   14182:	48 63 f2             	movslq %edx,%rsi
   14185:	48 98                	cltq   
   14187:	8b 95 40 f8 ff ff    	mov    -0x7c0(%rbp),%edx
   1418d:	48 63 ca             	movslq %edx,%rcx
   14190:	48 89 c2             	mov    %rax,%rdx
   14193:	48 01 d2             	add    %rdx,%rdx
   14196:	48 01 c2             	add    %rax,%rdx
   14199:	48 8d 04 95 00 00 00 	lea    0x0(,%rdx,4),%rax
   141a0:	00 
   141a1:	48 89 c2             	mov    %rax,%rdx
   141a4:	48 89 c8             	mov    %rcx,%rax
   141a7:	48 01 c0             	add    %rax,%rax
   141aa:	48 01 c8             	add    %rcx,%rax
   141ad:	48 01 c0             	add    %rax,%rax
   141b0:	48 01 d0             	add    %rdx,%rax
   141b3:	48 01 f0             	add    %rsi,%rax
   141b6:	48 8d 14 c5 00 00 00 	lea    0x0(,%rax,8),%rdx
   141bd:	00 
   141be:	48 8d 05 db 85 00 00 	lea    0x85db(%rip),%rax        # 1c7a0 <g_428>
   141c5:	48 c7 04 02 00 00 00 	movq   $0x0,(%rdx,%rax,1)
   141cc:	00 
   141cd:	0f b6 05 04 70 00 00 	movzbl 0x7004(%rip),%eax        # 1b1d8 <g_120>
   141d4:	83 c0 01             	add    $0x1,%eax
   141d7:	88 05 fb 6f 00 00    	mov    %al,0x6ffb(%rip)        # 1b1d8 <g_120>
   141dd:	0f b6 05 f4 6f 00 00 	movzbl 0x6ff4(%rip),%eax        # 1b1d8 <g_120>
   141e4:	3c 05                	cmp    $0x5,%al
   141e6:	76 86                	jbe    1416e <func_46+0x15aa>
   141e8:	83 85 40 f8 ff ff 01 	addl   $0x1,-0x7c0(%rbp)
   141ef:	83 bd 40 f8 ff ff 01 	cmpl   $0x1,-0x7c0(%rbp)
   141f6:	0f 8e 69 ff ff ff    	jle    14165 <func_46+0x15a1>
   141fc:	0f b6 05 4d 6e 00 00 	movzbl 0x6e4d(%rip),%eax        # 1b050 <g_28>
   14203:	83 c0 01             	add    $0x1,%eax
   14206:	88 05 44 6e 00 00    	mov    %al,0x6e44(%rip)        # 1b050 <g_28>
   1420c:	0f b6 05 3d 6e 00 00 	movzbl 0x6e3d(%rip),%eax        # 1b050 <g_28>
   14213:	3c 03                	cmp    $0x3,%al
   14215:	0f 8e 3b ff ff ff    	jle    14156 <func_46+0x1592>
   1421b:	48 8b 05 06 85 00 00 	mov    0x8506(%rip),%rax        # 1c728 <g_343>
   14222:	48 8b 00             	mov    (%rax),%rax
   14225:	48 8b 5d d8          	mov    -0x28(%rbp),%rbx
   14229:	64 48 33 1c 25 28 00 	xor    %fs:0x28,%rbx
   14230:	00 00 
   14232:	74 05                	je     14239 <func_46+0x1675>
   14234:	e8 37 0e ff ff       	callq  5070 <__stack_chk_fail@plt>
   14239:	48 81 c4 f0 07 00 00 	add    $0x7f0,%rsp
   14240:	5b                   	pop    %rbx
   14241:	41 5c                	pop    %r12
   14243:	41 5d                	pop    %r13
   14245:	41 5e                	pop    %r14
   14247:	5d                   	pop    %rbp
   14248:	c3                   	retq   

0000000000014249 <func_57>:
   14249:	f3 0f 1e fa          	endbr64 
   1424d:	55                   	push   %rbp
   1424e:	48 89 e5             	mov    %rsp,%rbp
   14251:	41 56                	push   %r14
   14253:	41 55                	push   %r13
   14255:	41 54                	push   %r12
   14257:	53                   	push   %rbx
   14258:	48 81 ec c0 01 00 00 	sub    $0x1c0,%rsp
   1425f:	89 f8                	mov    %edi,%eax
   14261:	48 89 b5 30 fe ff ff 	mov    %rsi,-0x1d0(%rbp)
   14268:	48 89 95 28 fe ff ff 	mov    %rdx,-0x1d8(%rbp)
   1426f:	66 89 85 3c fe ff ff 	mov    %ax,-0x1c4(%rbp)
   14276:	64 48 8b 04 25 28 00 	mov    %fs:0x28,%rax
   1427d:	00 00 
   1427f:	48 89 45 d8          	mov    %rax,-0x28(%rbp)
   14283:	31 c0                	xor    %eax,%eax
   14285:	c7 85 58 fe ff ff ff 	movl   $0xffffffff,-0x1a8(%rbp)
   1428c:	ff ff ff 
   1428f:	c7 85 4c fe ff ff bf 	movl   $0x33dc28bf,-0x1b4(%rbp)
   14296:	28 dc 33 
   14299:	66 c7 85 48 fe ff ff 	movw   $0x94c6,-0x1b8(%rbp)
   142a0:	c6 94 
   142a2:	48 8d 05 af 6d 00 00 	lea    0x6daf(%rip),%rax        # 1b058 <g_84>
   142a9:	48 89 85 78 fe ff ff 	mov    %rax,-0x188(%rbp)
   142b0:	48 8d 05 b1 6d 00 00 	lea    0x6db1(%rip),%rax        # 1b068 <g_86>
   142b7:	48 89 85 80 fe ff ff 	mov    %rax,-0x180(%rbp)
   142be:	48 c7 85 00 ff ff ff 	movq   $0x0,-0x100(%rbp)
   142c5:	00 00 00 00 
   142c9:	48 8d 05 48 6e 00 00 	lea    0x6e48(%rip),%rax        # 1b118 <g_88+0x98>
   142d0:	48 89 85 08 ff ff ff 	mov    %rax,-0xf8(%rbp)
   142d7:	48 8d 05 3a 6e 00 00 	lea    0x6e3a(%rip),%rax        # 1b118 <g_88+0x98>
   142de:	48 89 85 10 ff ff ff 	mov    %rax,-0xf0(%rbp)
   142e5:	48 c7 85 18 ff ff ff 	movq   $0x0,-0xe8(%rbp)
   142ec:	00 00 00 00 
   142f0:	48 8d 05 21 6e 00 00 	lea    0x6e21(%rip),%rax        # 1b118 <g_88+0x98>
   142f7:	48 89 85 20 ff ff ff 	mov    %rax,-0xe0(%rbp)
   142fe:	48 8d 05 13 6e 00 00 	lea    0x6e13(%rip),%rax        # 1b118 <g_88+0x98>
   14305:	48 89 85 28 ff ff ff 	mov    %rax,-0xd8(%rbp)
   1430c:	c7 85 50 fe ff ff 00 	movl   $0x0,-0x1b0(%rbp)
   14313:	00 00 00 
   14316:	48 c7 85 88 fe ff ff 	movq   $0x0,-0x178(%rbp)
   1431d:	00 00 00 00 
   14321:	48 c7 85 90 fe ff ff 	movq   $0x0,-0x170(%rbp)
   14328:	00 00 00 00 
   1432c:	48 8d 05 01 6d 00 00 	lea    0x6d01(%rip),%rax        # 1b034 <g_23+0x4>
   14333:	48 89 85 60 fe ff ff 	mov    %rax,-0x1a0(%rbp)
   1433a:	48 8d 85 60 fe ff ff 	lea    -0x1a0(%rbp),%rax
   14341:	48 89 85 98 fe ff ff 	mov    %rax,-0x168(%rbp)
   14348:	48 8d 05 e6 6c 00 00 	lea    0x6ce6(%rip),%rax        # 1b035 <g_23+0x5>
   1434f:	48 89 85 a0 fe ff ff 	mov    %rax,-0x160(%rbp)
   14356:	48 8d 85 4c fe ff ff 	lea    -0x1b4(%rbp),%rax
   1435d:	48 89 85 a8 fe ff ff 	mov    %rax,-0x158(%rbp)
   14364:	48 8d 05 65 6e 00 00 	lea    0x6e65(%rip),%rax        # 1b1d0 <g_105>
   1436b:	48 89 85 b0 fe ff ff 	mov    %rax,-0x150(%rbp)
   14372:	48 c7 85 68 fe ff ff 	movq   $0x0,-0x198(%rbp)
   14379:	00 00 00 00 
   1437d:	48 8d 85 50 fe ff ff 	lea    -0x1b0(%rbp),%rax
   14384:	48 89 85 70 fe ff ff 	mov    %rax,-0x190(%rbp)
   1438b:	c7 85 54 fe ff ff 81 	movl   $0xb8878b81,-0x1ac(%rbp)
   14392:	8b 87 b8 
   14395:	66 c7 85 3c fe ff ff 	movw   $0x0,-0x1c4(%rbp)
   1439c:	00 00 
   1439e:	eb 2a                	jmp    143ca <func_57+0x181>
   143a0:	0f b6 05 8e 6c 00 00 	movzbl 0x6c8e(%rip),%eax        # 1b035 <g_23+0x5>
   143a7:	0f b6 c0             	movzbl %al,%eax
   143aa:	89 85 58 fe ff ff    	mov    %eax,-0x1a8(%rbp)
   143b0:	0f bf 85 3c fe ff ff 	movswl -0x1c4(%rbp),%eax
   143b7:	be 05 00 00 00       	mov    $0x5,%esi
   143bc:	89 c7                	mov    %eax,%edi
   143be:	e8 f3 11 ff ff       	callq  55b6 <safe_add_func_int32_t_s_s>
   143c3:	66 89 85 3c fe ff ff 	mov    %ax,-0x1c4(%rbp)
   143ca:	66 83 bd 3c fe ff ff 	cmpw   $0x1b,-0x1c4(%rbp)
   143d1:	1b 
   143d2:	7e cc                	jle    143a0 <func_57+0x157>
   143d4:	0f b6 05 5d 6c 00 00 	movzbl 0x6c5d(%rip),%eax        # 1b038 <g_23+0x8>
   143db:	0f b6 d8             	movzbl %al,%ebx
   143de:	0f b6 05 5e 6c 00 00 	movzbl 0x6c5e(%rip),%eax        # 1b043 <g_23+0x13>
   143e5:	44 0f b6 e0          	movzbl %al,%r12d
   143e9:	0f b6 05 60 6c 00 00 	movzbl 0x6c60(%rip),%eax        # 1b050 <g_28>
   143f0:	66 44 0f be f0       	movsbw %al,%r14w
   143f5:	44 0f bf ad 3c fe ff 	movswl -0x1c4(%rbp),%r13d
   143fc:	ff 
   143fd:	c7 85 4c fe ff ff 01 	movl   $0x1,-0x1b4(%rbp)
   14404:	00 00 00 
   14407:	48 8b 05 c2 82 00 00 	mov    0x82c2(%rip),%rax        # 1c6d0 <g_54>
   1440e:	48 8b 00             	mov    (%rax),%rax
   14411:	0f bf 95 48 fe ff ff 	movswl -0x1b8(%rbp),%edx
   14418:	48 8b 85 78 fe ff ff 	mov    -0x188(%rbp),%rax
   1441f:	89 10                	mov    %edx,(%rax)
   14421:	be df ff ff ff       	mov    $0xffffffdf,%esi
   14426:	bf 00 00 00 00       	mov    $0x0,%edi
   1442b:	e8 e2 0d ff ff       	callq  5212 <safe_mul_func_int8_t_s_s>
   14430:	48 0f be d0          	movsbq %al,%rdx
   14434:	48 8b 85 80 fe ff ff 	mov    -0x180(%rbp),%rax
   1443b:	48 89 10             	mov    %rdx,(%rax)
   1443e:	44 89 ee             	mov    %r13d,%esi
   14441:	bf 01 00 00 00       	mov    $0x1,%edi
   14446:	e8 aa 0f ff ff       	callq  53f5 <safe_mul_func_int16_t_s_s>
   1444b:	66 41 39 c6          	cmp    %ax,%r14w
   1444f:	0f 95 c0             	setne  %al
   14452:	0f b6 c0             	movzbl %al,%eax
   14455:	39 85 58 fe ff ff    	cmp    %eax,-0x1a8(%rbp)
   1445b:	0f 9c c0             	setl   %al
   1445e:	0f b6 c0             	movzbl %al,%eax
   14461:	48 8b 15 b0 6c 00 00 	mov    0x6cb0(%rip),%rdx        # 1b118 <g_88+0x98>
   14468:	48 98                	cltq   
   1446a:	48 21 d0             	and    %rdx,%rax
   1446d:	48 89 05 a4 6c 00 00 	mov    %rax,0x6ca4(%rip)        # 1b118 <g_88+0x98>
   14474:	48 8b 05 9d 6c 00 00 	mov    0x6c9d(%rip),%rax        # 1b118 <g_88+0x98>
   1447b:	89 85 50 fe ff ff    	mov    %eax,-0x1b0(%rbp)
   14481:	8b 85 50 fe ff ff    	mov    -0x1b0(%rbp),%eax
   14487:	48 63 d0             	movslq %eax,%rdx
   1448a:	8b 85 58 fe ff ff    	mov    -0x1a8(%rbp),%eax
   14490:	48 98                	cltq   
   14492:	48 89 d6             	mov    %rdx,%rsi
   14495:	48 89 c7             	mov    %rax,%rdi
   14498:	e8 12 1c ff ff       	callq  60af <safe_div_func_uint64_t_u_u>
   1449d:	be 97 00 00 00       	mov    $0x97,%esi
   144a2:	bf 01 00 00 00       	mov    $0x1,%edi
   144a7:	e8 ae 16 ff ff       	callq  5b5a <safe_add_func_uint8_t_u_u>
   144ac:	88 05 04 6d 00 00    	mov    %al,0x6d04(%rip)        # 1b1b6 <g_91+0x16>
   144b2:	0f b6 05 fd 6c 00 00 	movzbl 0x6cfd(%rip),%eax        # 1b1b6 <g_91+0x16>
   144b9:	0f be c0             	movsbl %al,%eax
   144bc:	44 89 e6             	mov    %r12d,%esi
   144bf:	89 c7                	mov    %eax,%edi
   144c1:	e8 50 0f ff ff       	callq  5416 <safe_mod_func_int16_t_s_s>
   144c6:	0f be c0             	movsbl %al,%eax
   144c9:	89 de                	mov    %ebx,%esi
   144cb:	89 c7                	mov    %eax,%edi
   144cd:	e8 1c 0e ff ff       	callq  52ee <safe_lshift_func_int8_t_s_u>
   144d2:	0f bf 85 3c fe ff ff 	movswl -0x1c4(%rbp),%eax
   144d9:	be ff ff ff ff       	mov    $0xffffffff,%esi
   144de:	89 c7                	mov    %eax,%edi
   144e0:	e8 31 0f ff ff       	callq  5416 <safe_mod_func_int16_t_s_s>
   144e5:	0f bf d0             	movswl %ax,%edx
   144e8:	48 8b 05 e9 81 00 00 	mov    0x81e9(%rip),%rax        # 1c6d8 <g_93>
   144ef:	83 e2 2d             	and    $0x2d,%edx
   144f2:	89 10                	mov    %edx,(%rax)
   144f4:	48 8b 85 78 fe ff ff 	mov    -0x188(%rbp),%rax
   144fb:	c7 00 ff ff ff ff    	movl   $0xffffffff,(%rax)
   14501:	48 8b 85 78 fe ff ff 	mov    -0x188(%rbp),%rax
   14508:	44 8b 28             	mov    (%rax),%r13d
   1450b:	0f b6 05 b5 6c 00 00 	movzbl 0x6cb5(%rip),%eax        # 1b1c7 <g_91+0x27>
   14512:	0f be d8             	movsbl %al,%ebx
   14515:	48 8b 85 80 fe ff ff 	mov    -0x180(%rbp),%rax
   1451c:	48 8b 00             	mov    (%rax),%rax
   1451f:	48 8d 48 01          	lea    0x1(%rax),%rcx
   14523:	48 8b 95 80 fe ff ff 	mov    -0x180(%rbp),%rdx
   1452a:	48 89 0a             	mov    %rcx,(%rdx)
   1452d:	48 89 05 54 6c 00 00 	mov    %rax,0x6c54(%rip)        # 1b188 <g_88+0x108>
   14534:	4c 0f bf a5 3c fe ff 	movswq -0x1c4(%rbp),%r12
   1453b:	ff 
   1453c:	48 8b 05 7d 81 00 00 	mov    0x817d(%rip),%rax        # 1c6c0 <g_27>
   14543:	0f b6 00             	movzbl (%rax),%eax
   14546:	0f b6 d0             	movzbl %al,%edx
   14549:	48 8b 8d 60 fe ff ff 	mov    -0x1a0(%rbp),%rcx
   14550:	48 8b 85 98 fe ff ff 	mov    -0x168(%rbp),%rax
   14557:	48 89 08             	mov    %rcx,(%rax)
   1455a:	48 8b 85 98 fe ff ff 	mov    -0x168(%rbp),%rax
   14561:	48 8b 00             	mov    (%rax),%rax
   14564:	48 39 85 28 fe ff ff 	cmp    %rax,-0x1d8(%rbp)
   1456b:	48 8b 05 66 81 00 00 	mov    0x8166(%rip),%rax        # 1c6d8 <g_93>
   14572:	48 83 bd a0 fe ff ff 	cmpq   $0x0,-0x160(%rbp)
   14579:	00 
   1457a:	0f 95 c0             	setne  %al
   1457d:	89 c1                	mov    %eax,%ecx
   1457f:	48 8b 05 9a 6b 00 00 	mov    0x6b9a(%rip),%rax        # 1b120 <g_88+0xa0>
   14586:	31 c8                	xor    %ecx,%eax
   14588:	0f b6 c0             	movzbl %al,%eax
   1458b:	89 d6                	mov    %edx,%esi
   1458d:	89 c7                	mov    %eax,%edi
   1458f:	e8 ff 15 ff ff       	callq  5b93 <safe_mul_func_uint8_t_u_u>
   14594:	0f b6 c0             	movzbl %al,%eax
   14597:	48 83 f0 f6          	xor    $0xfffffffffffffff6,%rax
   1459b:	4c 89 e6             	mov    %r12,%rsi
   1459e:	48 89 c7             	mov    %rax,%rdi
   145a1:	e8 9b 12 ff ff       	callq  5841 <safe_add_func_int64_t_s_s>
   145a6:	48 0f bf 95 3c fe ff 	movswq -0x1c4(%rbp),%rdx
   145ad:	ff 
   145ae:	48 39 d0             	cmp    %rdx,%rax
   145b1:	74 07                	je     145ba <func_57+0x371>
   145b3:	ba fb 65 00 00       	mov    $0x65fb,%edx
   145b8:	eb 05                	jmp    145bf <func_57+0x376>
   145ba:	ba fa 65 00 00       	mov    $0x65fa,%edx
   145bf:	48 8b 85 a8 fe ff ff 	mov    -0x158(%rbp),%rax
   145c6:	89 10                	mov    %edx,(%rax)
   145c8:	66 83 bd 3c fe ff ff 	cmpw   $0x0,-0x1c4(%rbp)
   145cf:	00 
   145d0:	74 11                	je     145e3 <func_57+0x39a>
   145d2:	66 83 bd 3c fe ff ff 	cmpw   $0x0,-0x1c4(%rbp)
   145d9:	00 
   145da:	74 07                	je     145e3 <func_57+0x39a>
   145dc:	b8 01 00 00 00       	mov    $0x1,%eax
   145e1:	eb 05                	jmp    145e8 <func_57+0x39f>
   145e3:	b8 00 00 00 00       	mov    $0x0,%eax
   145e8:	89 de                	mov    %ebx,%esi
   145ea:	89 c7                	mov    %eax,%edi
   145ec:	e8 db 10 ff ff       	callq  56cc <safe_mod_func_int32_t_s_s>
   145f1:	89 c2                	mov    %eax,%edx
   145f3:	48 8b 05 c6 80 00 00 	mov    0x80c6(%rip),%rax        # 1c6c0 <g_27>
   145fa:	83 ca 85             	or     $0xffffff85,%edx
   145fd:	88 10                	mov    %dl,(%rax)
   145ff:	0f b6 00             	movzbl (%rax),%eax
   14602:	0f be c0             	movsbl %al,%eax
   14605:	be 06 00 00 00       	mov    $0x6,%esi
   1460a:	89 c7                	mov    %eax,%edi
   1460c:	e8 5b 0d ff ff       	callq  536c <safe_rshift_func_int8_t_s_u>
   14611:	66 0f be d0          	movsbw %al,%dx
   14615:	48 8b 85 b0 fe ff ff 	mov    -0x150(%rbp),%rax
   1461c:	66 89 10             	mov    %dx,(%rax)
   1461f:	48 8b 85 70 fe ff ff 	mov    -0x190(%rbp),%rax
   14626:	c7 00 01 00 00 00    	movl   $0x1,(%rax)
   1462c:	0f b6 05 1d 6a 00 00 	movzbl 0x6a1d(%rip),%eax        # 1b050 <g_28>
   14633:	0f be d0             	movsbl %al,%edx
   14636:	0f b6 05 f8 69 00 00 	movzbl 0x69f8(%rip),%eax        # 1b035 <g_23+0x5>
   1463d:	0f b6 c0             	movzbl %al,%eax
   14640:	09 d0                	or     %edx,%eax
   14642:	83 f8 05             	cmp    $0x5,%eax
   14645:	0f 9f c0             	setg   %al
   14648:	0f b6 c0             	movzbl %al,%eax
   1464b:	be ff ff ff ff       	mov    $0xffffffff,%esi
   14650:	89 c7                	mov    %eax,%edi
   14652:	e8 a8 10 ff ff       	callq  56ff <safe_div_func_int32_t_s_s>
   14657:	41 39 c5             	cmp    %eax,%r13d
   1465a:	0f 9f c2             	setg   %dl
   1465d:	48 8b 05 7c 80 00 00 	mov    0x807c(%rip),%rax        # 1c6e0 <g_117>
   14664:	0f b6 d2             	movzbl %dl,%edx
   14667:	89 10                	mov    %edx,(%rax)
   14669:	66 c7 85 3c fe ff ff 	movw   $0x0,-0x1c4(%rbp)
   14670:	00 00 
   14672:	e9 e7 02 00 00       	jmpq   1495e <func_57+0x715>
   14677:	48 8d 85 68 fe ff ff 	lea    -0x198(%rbp),%rax
   1467e:	48 89 85 b8 fe ff ff 	mov    %rax,-0x148(%rbp)
   14685:	c6 85 47 fe ff ff bc 	movb   $0xbc,-0x1b9(%rbp)
   1468c:	66 c7 85 30 ff ff ff 	movw   $0xffff,-0xd0(%rbp)
   14693:	ff ff 
   14695:	66 c7 85 32 ff ff ff 	movw   $0x1729,-0xce(%rbp)
   1469c:	29 17 
   1469e:	66 c7 85 34 ff ff ff 	movw   $0xfa10,-0xcc(%rbp)
   146a5:	10 fa 
   146a7:	66 c7 85 36 ff ff ff 	movw   $0x7,-0xca(%rbp)
   146ae:	07 00 
   146b0:	66 c7 85 38 ff ff ff 	movw   $0xfa10,-0xc8(%rbp)
   146b7:	10 fa 
   146b9:	66 c7 85 3a ff ff ff 	movw   $0x1729,-0xc6(%rbp)
   146c0:	29 17 
   146c2:	66 c7 85 3c ff ff ff 	movw   $0xffff,-0xc4(%rbp)
   146c9:	ff ff 
   146cb:	66 c7 85 3e ff ff ff 	movw   $0x7,-0xc2(%rbp)
   146d2:	07 00 
   146d4:	66 c7 85 40 ff ff ff 	movw   $0xffff,-0xc0(%rbp)
   146db:	ff ff 
   146dd:	66 c7 85 42 ff ff ff 	movw   $0x4,-0xbe(%rbp)
   146e4:	04 00 
   146e6:	66 c7 85 44 ff ff ff 	movw   $0x1b5e,-0xbc(%rbp)
   146ed:	5e 1b 
   146ef:	66 c7 85 46 ff ff ff 	movw   $0x4,-0xba(%rbp)
   146f6:	04 00 
   146f8:	66 c7 85 48 ff ff ff 	movw   $0x4,-0xb8(%rbp)
   146ff:	04 00 
   14701:	66 c7 85 4a ff ff ff 	movw   $0x1b5e,-0xb6(%rbp)
   14708:	5e 1b 
   1470a:	66 c7 85 4c ff ff ff 	movw   $0x4,-0xb4(%rbp)
   14711:	04 00 
   14713:	66 c7 85 4e ff ff ff 	movw   $0x6,-0xb2(%rbp)
   1471a:	06 00 
   1471c:	66 c7 85 50 ff ff ff 	movw   $0x8b72,-0xb0(%rbp)
   14723:	72 8b 
   14725:	66 c7 85 52 ff ff ff 	movw   $0x1c8d,-0xae(%rbp)
   1472c:	8d 1c 
   1472e:	66 c7 85 54 ff ff ff 	movw   $0x8,-0xac(%rbp)
   14735:	08 00 
   14737:	66 c7 85 56 ff ff ff 	movw   $0xffff,-0xaa(%rbp)
   1473e:	ff ff 
   14740:	66 c7 85 58 ff ff ff 	movw   $0xfffd,-0xa8(%rbp)
   14747:	fd ff 
   14749:	66 c7 85 5a ff ff ff 	movw   $0xffff,-0xa6(%rbp)
   14750:	ff ff 
   14752:	66 c7 85 5c ff ff ff 	movw   $0x8,-0xa4(%rbp)
   14759:	08 00 
   1475b:	66 c7 85 5e ff ff ff 	movw   $0x7,-0xa2(%rbp)
   14762:	07 00 
   14764:	66 c7 85 60 ff ff ff 	movw   $0xfffd,-0xa0(%rbp)
   1476b:	fd ff 
   1476d:	66 c7 85 62 ff ff ff 	movw   $0x7,-0x9e(%rbp)
   14774:	07 00 
   14776:	66 c7 85 64 ff ff ff 	movw   $0x8,-0x9c(%rbp)
   1477d:	08 00 
   1477f:	66 c7 85 66 ff ff ff 	movw   $0xb47b,-0x9a(%rbp)
   14786:	7b b4 
   14788:	66 c7 85 68 ff ff ff 	movw   $0xffff,-0x98(%rbp)
   1478f:	ff ff 
   14791:	66 c7 85 6a ff ff ff 	movw   $0xffff,-0x96(%rbp)
   14798:	ff ff 
   1479a:	66 c7 85 6c ff ff ff 	movw   $0xb47b,-0x94(%rbp)
   147a1:	7b b4 
   147a3:	66 c7 85 6e ff ff ff 	movw   $0x1c8d,-0x92(%rbp)
   147aa:	8d 1c 
   147ac:	66 c7 85 70 ff ff ff 	movw   $0x8b72,-0x90(%rbp)
   147b3:	72 8b 
   147b5:	66 c7 85 72 ff ff ff 	movw   $0x6,-0x8e(%rbp)
   147bc:	06 00 
   147be:	66 c7 85 74 ff ff ff 	movw   $0x4,-0x8c(%rbp)
   147c5:	04 00 
   147c7:	66 c7 85 76 ff ff ff 	movw   $0x1b5e,-0x8a(%rbp)
   147ce:	5e 1b 
   147d0:	66 c7 85 78 ff ff ff 	movw   $0xfa10,-0x88(%rbp)
   147d7:	10 fa 
   147d9:	66 c7 85 7a ff ff ff 	movw   $0x7,-0x86(%rbp)
   147e0:	07 00 
   147e2:	66 c7 85 7c ff ff ff 	movw   $0xfa10,-0x84(%rbp)
   147e9:	10 fa 
   147eb:	66 c7 85 7e ff ff ff 	movw   $0x1729,-0x82(%rbp)
   147f2:	29 17 
   147f4:	66 c7 45 80 ff ff    	movw   $0xffff,-0x80(%rbp)
   147fa:	66 c7 45 82 07 00    	movw   $0x7,-0x7e(%rbp)
   14800:	66 c7 45 84 ff ff    	movw   $0xffff,-0x7c(%rbp)
   14806:	66 c7 45 86 29 17    	movw   $0x1729,-0x7a(%rbp)
   1480c:	66 c7 45 88 10 fa    	movw   $0xfa10,-0x78(%rbp)
   14812:	66 c7 45 8a 5e 1b    	movw   $0x1b5e,-0x76(%rbp)
   14818:	66 c7 45 8c 5e 1b    	movw   $0x1b5e,-0x74(%rbp)
   1481e:	66 c7 45 8e 72 8b    	movw   $0x8b72,-0x72(%rbp)
   14824:	66 c7 45 90 ff ff    	movw   $0xffff,-0x70(%rbp)
   1482a:	66 c7 45 92 8d 1c    	movw   $0x1c8d,-0x6e(%rbp)
   14830:	66 c7 45 94 04 00    	movw   $0x4,-0x6c(%rbp)
   14836:	66 c7 45 96 04 00    	movw   $0x4,-0x6a(%rbp)
   1483c:	66 c7 45 98 06 00    	movw   $0x6,-0x68(%rbp)
   14842:	66 c7 45 9a 7b b4    	movw   $0xb47b,-0x66(%rbp)
   14848:	66 c7 45 9c 08 00    	movw   $0x8,-0x64(%rbp)
   1484e:	66 c7 45 9e fc ff    	movw   $0xfffc,-0x62(%rbp)
   14854:	66 c7 45 a0 f6 ff    	movw   $0xfff6,-0x60(%rbp)
   1485a:	66 c7 45 a2 29 17    	movw   $0x1729,-0x5e(%rbp)
   14860:	66 c7 45 a4 08 00    	movw   $0x8,-0x5c(%rbp)
   14866:	66 c7 45 a6 29 17    	movw   $0x1729,-0x5a(%rbp)
   1486c:	66 c7 45 a8 f6 ff    	movw   $0xfff6,-0x58(%rbp)
   14872:	66 c7 45 aa fc ff    	movw   $0xfffc,-0x56(%rbp)
   14878:	66 c7 45 ac 08 00    	movw   $0x8,-0x54(%rbp)
   1487e:	66 c7 45 ae 8d 1c    	movw   $0x1c8d,-0x52(%rbp)
   14884:	66 c7 45 b0 04 00    	movw   $0x4,-0x50(%rbp)
   1488a:	66 c7 45 b2 72 8b    	movw   $0x8b72,-0x4e(%rbp)
   14890:	66 c7 45 b4 7b b4    	movw   $0xb47b,-0x4c(%rbp)
   14896:	66 c7 45 b6 5e 1b    	movw   $0x1b5e,-0x4a(%rbp)
   1489c:	66 c7 45 b8 06 00    	movw   $0x6,-0x48(%rbp)
   148a2:	66 c7 45 ba ff ff    	movw   $0xffff,-0x46(%rbp)
   148a8:	66 c7 45 bc 04 00    	movw   $0x4,-0x44(%rbp)
   148ae:	66 c7 45 be 04 00    	movw   $0x4,-0x42(%rbp)
   148b4:	66 c7 45 c0 ff ff    	movw   $0xffff,-0x40(%rbp)
   148ba:	66 c7 45 c2 fc ff    	movw   $0xfffc,-0x3e(%rbp)
   148c0:	66 c7 45 c4 10 fa    	movw   $0xfa10,-0x3c(%rbp)
   148c6:	66 c7 45 c6 ff ff    	movw   $0xffff,-0x3a(%rbp)
   148cc:	66 c7 45 c8 10 fa    	movw   $0xfa10,-0x38(%rbp)
   148d2:	66 c7 45 ca fc ff    	movw   $0xfffc,-0x36(%rbp)
   148d8:	66 c7 45 cc ff ff    	movw   $0xffff,-0x34(%rbp)
   148de:	66 c7 45 ce ff ff    	movw   $0xffff,-0x32(%rbp)
   148e4:	66 c7 45 d0 ff ff    	movw   $0xffff,-0x30(%rbp)
   148ea:	48 8d 85 54 fe ff ff 	lea    -0x1ac(%rbp),%rax
   148f1:	48 89 85 c0 fe ff ff 	mov    %rax,-0x140(%rbp)
   148f8:	48 8d 85 70 fe ff ff 	lea    -0x190(%rbp),%rax
   148ff:	48 89 85 c8 fe ff ff 	mov    %rax,-0x138(%rbp)
   14906:	66 c7 85 4a fe ff ff 	movw   $0x54ca,-0x1b6(%rbp)
   1490d:	ca 54 
   1490f:	c7 85 5c fe ff ff 00 	movl   $0x0,-0x1a4(%rbp)
   14916:	00 00 00 
   14919:	eb 1e                	jmp    14939 <func_57+0x6f0>
   1491b:	8b 85 5c fe ff ff    	mov    -0x1a4(%rbp),%eax
   14921:	48 98                	cltq   
   14923:	48 8d 95 70 fe ff ff 	lea    -0x190(%rbp),%rdx
   1492a:	48 89 94 c5 d0 fe ff 	mov    %rdx,-0x130(%rbp,%rax,8)
   14931:	ff 
   14932:	83 85 5c fe ff ff 01 	addl   $0x1,-0x1a4(%rbp)
   14939:	83 bd 5c fe ff ff 04 	cmpl   $0x4,-0x1a4(%rbp)
   14940:	7e d9                	jle    1491b <func_57+0x6d2>
   14942:	48 0f bf 85 3c fe ff 	movswq -0x1c4(%rbp),%rax
   14949:	ff 
   1494a:	be 02 00 00 00       	mov    $0x2,%esi
   1494f:	48 89 c7             	mov    %rax,%rdi
   14952:	e8 ea 0e ff ff       	callq  5841 <safe_add_func_int64_t_s_s>
   14957:	66 89 85 3c fe ff ff 	mov    %ax,-0x1c4(%rbp)
   1495e:	66 83 bd 3c fe ff ff 	cmpw   $0xe,-0x1c4(%rbp)
   14965:	0e 
   14966:	0f 85 0b fd ff ff    	jne    14677 <func_57+0x42e>
   1496c:	48 8d 05 d9 66 00 00 	lea    0x66d9(%rip),%rax        # 1b04c <g_26>
   14973:	48 8b 5d d8          	mov    -0x28(%rbp),%rbx
   14977:	64 48 33 1c 25 28 00 	xor    %fs:0x28,%rbx
   1497e:	00 00 
   14980:	74 05                	je     14987 <func_57+0x73e>
   14982:	e8 e9 06 ff ff       	callq  5070 <__stack_chk_fail@plt>
   14987:	48 81 c4 c0 01 00 00 	add    $0x1c0,%rsp
   1498e:	5b                   	pop    %rbx
   1498f:	41 5c                	pop    %r12
   14991:	41 5d                	pop    %r13
   14993:	41 5e                	pop    %r14
   14995:	5d                   	pop    %rbp
   14996:	c3                   	retq   

0000000000014997 <main>:
   14997:	f3 0f 1e fa          	endbr64 
   1499b:	55                   	push   %rbp
   1499c:	48 89 e5             	mov    %rsp,%rbp
   1499f:	48 83 ec 20          	sub    $0x20,%rsp
   149a3:	89 7d ec             	mov    %edi,-0x14(%rbp)
   149a6:	48 89 75 e0          	mov    %rsi,-0x20(%rbp)
   149aa:	c7 45 fc 00 00 00 00 	movl   $0x0,-0x4(%rbp)
   149b1:	83 7d ec 02          	cmpl   $0x2,-0x14(%rbp)
   149b5:	75 25                	jne    149dc <main+0x45>
   149b7:	48 8b 45 e0          	mov    -0x20(%rbp),%rax
   149bb:	48 83 c0 08          	add    $0x8,%rax
   149bf:	48 8b 00             	mov    (%rax),%rax
   149c2:	48 8d 35 47 2c 00 00 	lea    0x2c47(%rip),%rsi        # 17610 <g_1383+0x11bc>
   149c9:	48 89 c7             	mov    %rax,%rdi
   149cc:	e8 bf 06 ff ff       	callq  5090 <strcmp@plt>
   149d1:	85 c0                	test   %eax,%eax
   149d3:	75 07                	jne    149dc <main+0x45>
   149d5:	c7 45 fc 01 00 00 00 	movl   $0x1,-0x4(%rbp)
   149dc:	e8 a8 07 ff ff       	callq  5189 <platform_main_begin>
   149e1:	e8 b2 1b ff ff       	callq  6598 <crc32_gentab>
   149e6:	e8 ca 1d ff ff       	callq  67b5 <func_1>
   149eb:	c7 45 f0 00 00 00 00 	movl   $0x0,-0x10(%rbp)
   149f2:	eb 72                	jmp    14a66 <main+0xcf>
   149f4:	c7 45 f4 00 00 00 00 	movl   $0x0,-0xc(%rbp)
   149fb:	eb 5f                	jmp    14a5c <main+0xc5>
   149fd:	8b 45 f4             	mov    -0xc(%rbp),%eax
   14a00:	48 63 c8             	movslq %eax,%rcx
   14a03:	8b 45 f0             	mov    -0x10(%rbp),%eax
   14a06:	48 63 d0             	movslq %eax,%rdx
   14a09:	48 89 d0             	mov    %rdx,%rax
   14a0c:	48 c1 e0 02          	shl    $0x2,%rax
   14a10:	48 01 d0             	add    %rdx,%rax
   14a13:	48 8d 14 08          	lea    (%rax,%rcx,1),%rdx
   14a17:	48 8d 05 12 66 00 00 	lea    0x6612(%rip),%rax        # 1b030 <g_23>
   14a1e:	48 01 d0             	add    %rdx,%rax
   14a21:	0f b6 00             	movzbl (%rax),%eax
   14a24:	0f b6 c0             	movzbl %al,%eax
   14a27:	8b 55 fc             	mov    -0x4(%rbp),%edx
   14a2a:	48 8d 35 e1 2b 00 00 	lea    0x2be1(%rip),%rsi        # 17612 <g_1383+0x11be>
   14a31:	48 89 c7             	mov    %rax,%rdi
   14a34:	e8 ba 1c ff ff       	callq  66f3 <transparent_crc>
   14a39:	83 7d fc 00          	cmpl   $0x0,-0x4(%rbp)
   14a3d:	74 19                	je     14a58 <main+0xc1>
   14a3f:	8b 55 f4             	mov    -0xc(%rbp),%edx
   14a42:	8b 45 f0             	mov    -0x10(%rbp),%eax
   14a45:	89 c6                	mov    %eax,%esi
   14a47:	48 8d 3d cf 2b 00 00 	lea    0x2bcf(%rip),%rdi        # 1761d <g_1383+0x11c9>
   14a4e:	b8 00 00 00 00       	mov    $0x0,%eax
   14a53:	e8 28 06 ff ff       	callq  5080 <printf@plt>
   14a58:	83 45 f4 01          	addl   $0x1,-0xc(%rbp)
   14a5c:	83 7d f4 04          	cmpl   $0x4,-0xc(%rbp)
   14a60:	7e 9b                	jle    149fd <main+0x66>
   14a62:	83 45 f0 01          	addl   $0x1,-0x10(%rbp)
   14a66:	83 7d f0 04          	cmpl   $0x4,-0x10(%rbp)
   14a6a:	7e 88                	jle    149f4 <main+0x5d>
   14a6c:	8b 05 da 65 00 00    	mov    0x65da(%rip),%eax        # 1b04c <g_26>
   14a72:	48 98                	cltq   
   14a74:	8b 55 fc             	mov    -0x4(%rbp),%edx
   14a77:	48 8d 35 b1 2b 00 00 	lea    0x2bb1(%rip),%rsi        # 1762f <g_1383+0x11db>
   14a7e:	48 89 c7             	mov    %rax,%rdi
   14a81:	e8 6d 1c ff ff       	callq  66f3 <transparent_crc>
   14a86:	0f b6 05 c3 65 00 00 	movzbl 0x65c3(%rip),%eax        # 1b050 <g_28>
   14a8d:	48 0f be c0          	movsbq %al,%rax
   14a91:	8b 55 fc             	mov    -0x4(%rbp),%edx
   14a94:	48 8d 35 99 2b 00 00 	lea    0x2b99(%rip),%rsi        # 17634 <g_1383+0x11e0>
   14a9b:	48 89 c7             	mov    %rax,%rdi
   14a9e:	e8 50 1c ff ff       	callq  66f3 <transparent_crc>
   14aa3:	0f b6 05 a7 65 00 00 	movzbl 0x65a7(%rip),%eax        # 1b051 <g_56>
   14aaa:	0f b6 c0             	movzbl %al,%eax
   14aad:	8b 55 fc             	mov    -0x4(%rbp),%edx
   14ab0:	48 8d 35 82 2b 00 00 	lea    0x2b82(%rip),%rsi        # 17639 <g_1383+0x11e5>
   14ab7:	48 89 c7             	mov    %rax,%rdi
   14aba:	e8 34 1c ff ff       	callq  66f3 <transparent_crc>
   14abf:	c7 45 f0 00 00 00 00 	movl   $0x0,-0x10(%rbp)
   14ac6:	eb 4b                	jmp    14b13 <main+0x17c>
   14ac8:	8b 45 f0             	mov    -0x10(%rbp),%eax
   14acb:	48 98                	cltq   
   14acd:	48 8d 14 85 00 00 00 	lea    0x0(,%rax,4),%rdx
   14ad4:	00 
   14ad5:	48 8d 05 7c 65 00 00 	lea    0x657c(%rip),%rax        # 1b058 <g_84>
   14adc:	8b 04 02             	mov    (%rdx,%rax,1),%eax
   14adf:	48 98                	cltq   
   14ae1:	8b 55 fc             	mov    -0x4(%rbp),%edx
   14ae4:	48 8d 35 53 2b 00 00 	lea    0x2b53(%rip),%rsi        # 1763e <g_1383+0x11ea>
   14aeb:	48 89 c7             	mov    %rax,%rdi
   14aee:	e8 00 1c ff ff       	callq  66f3 <transparent_crc>
   14af3:	83 7d fc 00          	cmpl   $0x0,-0x4(%rbp)
   14af7:	74 16                	je     14b0f <main+0x178>
   14af9:	8b 45 f0             	mov    -0x10(%rbp),%eax
   14afc:	89 c6                	mov    %eax,%esi
   14afe:	48 8d 3d 41 2b 00 00 	lea    0x2b41(%rip),%rdi        # 17646 <g_1383+0x11f2>
   14b05:	b8 00 00 00 00       	mov    $0x0,%eax
   14b0a:	e8 71 05 ff ff       	callq  5080 <printf@plt>
   14b0f:	83 45 f0 01          	addl   $0x1,-0x10(%rbp)
   14b13:	83 7d f0 02          	cmpl   $0x2,-0x10(%rbp)
   14b17:	7e af                	jle    14ac8 <main+0x131>
   14b19:	48 8b 05 48 65 00 00 	mov    0x6548(%rip),%rax        # 1b068 <g_86>
   14b20:	8b 55 fc             	mov    -0x4(%rbp),%edx
   14b23:	48 8d 35 2a 2b 00 00 	lea    0x2b2a(%rip),%rsi        # 17654 <g_1383+0x1200>
   14b2a:	48 89 c7             	mov    %rax,%rdi
   14b2d:	e8 c1 1b ff ff       	callq  66f3 <transparent_crc>
   14b32:	c7 45 f0 00 00 00 00 	movl   $0x0,-0x10(%rbp)
   14b39:	e9 9d 00 00 00       	jmpq   14bdb <main+0x244>
   14b3e:	c7 45 f4 00 00 00 00 	movl   $0x0,-0xc(%rbp)
   14b45:	e9 83 00 00 00       	jmpq   14bcd <main+0x236>
   14b4a:	c7 45 f8 00 00 00 00 	movl   $0x0,-0x8(%rbp)
   14b51:	eb 70                	jmp    14bc3 <main+0x22c>
   14b53:	8b 45 f8             	mov    -0x8(%rbp),%eax
   14b56:	48 63 c8             	movslq %eax,%rcx
   14b59:	8b 45 f0             	mov    -0x10(%rbp),%eax
   14b5c:	48 63 d0             	movslq %eax,%rdx
   14b5f:	8b 45 f4             	mov    -0xc(%rbp),%eax
   14b62:	48 63 f0             	movslq %eax,%rsi
   14b65:	48 89 d0             	mov    %rdx,%rax
   14b68:	48 c1 e0 03          	shl    $0x3,%rax
   14b6c:	48 01 d0             	add    %rdx,%rax
   14b6f:	48 01 f0             	add    %rsi,%rax
   14b72:	48 01 c0             	add    %rax,%rax
   14b75:	48 01 c8             	add    %rcx,%rax
   14b78:	48 8d 14 c5 00 00 00 	lea    0x0(,%rax,8),%rdx
   14b7f:	00 
   14b80:	48 8d 05 f9 64 00 00 	lea    0x64f9(%rip),%rax        # 1b080 <g_88>
   14b87:	48 8b 04 02          	mov    (%rdx,%rax,1),%rax
   14b8b:	8b 55 fc             	mov    -0x4(%rbp),%edx
   14b8e:	48 8d 35 c4 2a 00 00 	lea    0x2ac4(%rip),%rsi        # 17659 <g_1383+0x1205>
   14b95:	48 89 c7             	mov    %rax,%rdi
   14b98:	e8 56 1b ff ff       	callq  66f3 <transparent_crc>
   14b9d:	83 7d fc 00          	cmpl   $0x0,-0x4(%rbp)
   14ba1:	74 1c                	je     14bbf <main+0x228>
   14ba3:	8b 4d f8             	mov    -0x8(%rbp),%ecx
   14ba6:	8b 55 f4             	mov    -0xc(%rbp),%edx
   14ba9:	8b 45 f0             	mov    -0x10(%rbp),%eax
   14bac:	89 c6                	mov    %eax,%esi
   14bae:	48 8d 3d b2 2a 00 00 	lea    0x2ab2(%rip),%rdi        # 17667 <g_1383+0x1213>
   14bb5:	b8 00 00 00 00       	mov    $0x0,%eax
   14bba:	e8 c1 04 ff ff       	callq  5080 <printf@plt>
   14bbf:	83 45 f8 01          	addl   $0x1,-0x8(%rbp)
   14bc3:	83 7d f8 01          	cmpl   $0x1,-0x8(%rbp)
   14bc7:	7e 8a                	jle    14b53 <main+0x1bc>
   14bc9:	83 45 f4 01          	addl   $0x1,-0xc(%rbp)
   14bcd:	83 7d f4 08          	cmpl   $0x8,-0xc(%rbp)
   14bd1:	0f 8e 73 ff ff ff    	jle    14b4a <main+0x1b3>
   14bd7:	83 45 f0 01          	addl   $0x1,-0x10(%rbp)
   14bdb:	83 7d f0 01          	cmpl   $0x1,-0x10(%rbp)
   14bdf:	0f 8e 59 ff ff ff    	jle    14b3e <main+0x1a7>
   14be5:	c7 45 f0 00 00 00 00 	movl   $0x0,-0x10(%rbp)
   14bec:	e9 a0 00 00 00       	jmpq   14c91 <main+0x2fa>
   14bf1:	c7 45 f4 00 00 00 00 	movl   $0x0,-0xc(%rbp)
   14bf8:	e9 86 00 00 00       	jmpq   14c83 <main+0x2ec>
   14bfd:	c7 45 f8 00 00 00 00 	movl   $0x0,-0x8(%rbp)
   14c04:	eb 73                	jmp    14c79 <main+0x2e2>
   14c06:	8b 45 f8             	mov    -0x8(%rbp),%eax
   14c09:	48 63 c8             	movslq %eax,%rcx
   14c0c:	8b 45 f0             	mov    -0x10(%rbp),%eax
   14c0f:	48 63 d0             	movslq %eax,%rdx
   14c12:	8b 45 f4             	mov    -0xc(%rbp),%eax
   14c15:	48 63 f0             	movslq %eax,%rsi
   14c18:	48 89 d0             	mov    %rdx,%rax
   14c1b:	48 c1 e0 02          	shl    $0x2,%rax
   14c1f:	48 01 d0             	add    %rdx,%rax
   14c22:	48 01 c0             	add    %rax,%rax
   14c25:	48 01 f0             	add    %rsi,%rax
   14c28:	48 c1 e0 02          	shl    $0x2,%rax
   14c2c:	48 8d 14 08          	lea    (%rax,%rcx,1),%rdx
   14c30:	48 8d 05 69 65 00 00 	lea    0x6569(%rip),%rax        # 1b1a0 <g_91>
   14c37:	48 01 d0             	add    %rdx,%rax
   14c3a:	0f b6 00             	movzbl (%rax),%eax
   14c3d:	48 0f be c0          	movsbq %al,%rax
   14c41:	8b 55 fc             	mov    -0x4(%rbp),%edx
   14c44:	48 8d 35 32 2a 00 00 	lea    0x2a32(%rip),%rsi        # 1767d <g_1383+0x1229>
   14c4b:	48 89 c7             	mov    %rax,%rdi
   14c4e:	e8 a0 1a ff ff       	callq  66f3 <transparent_crc>
   14c53:	83 7d fc 00          	cmpl   $0x0,-0x4(%rbp)
   14c57:	74 1c                	je     14c75 <main+0x2de>
   14c59:	8b 4d f8             	mov    -0x8(%rbp),%ecx
   14c5c:	8b 55 f4             	mov    -0xc(%rbp),%edx
   14c5f:	8b 45 f0             	mov    -0x10(%rbp),%eax
   14c62:	89 c6                	mov    %eax,%esi
   14c64:	48 8d 3d fc 29 00 00 	lea    0x29fc(%rip),%rdi        # 17667 <g_1383+0x1213>
   14c6b:	b8 00 00 00 00       	mov    $0x0,%eax
   14c70:	e8 0b 04 ff ff       	callq  5080 <printf@plt>
   14c75:	83 45 f8 01          	addl   $0x1,-0x8(%rbp)
   14c79:	83 7d f8 03          	cmpl   $0x3,-0x8(%rbp)
   14c7d:	7e 87                	jle    14c06 <main+0x26f>
   14c7f:	83 45 f4 01          	addl   $0x1,-0xc(%rbp)
   14c83:	83 7d f4 09          	cmpl   $0x9,-0xc(%rbp)
   14c87:	0f 8e 70 ff ff ff    	jle    14bfd <main+0x266>
   14c8d:	83 45 f0 01          	addl   $0x1,-0x10(%rbp)
   14c91:	83 7d f0 00          	cmpl   $0x0,-0x10(%rbp)
   14c95:	0f 8e 56 ff ff ff    	jle    14bf1 <main+0x25a>
   14c9b:	8b 05 27 65 00 00    	mov    0x6527(%rip),%eax        # 1b1c8 <g_94>
   14ca1:	48 98                	cltq   
   14ca3:	8b 55 fc             	mov    -0x4(%rbp),%edx
   14ca6:	48 8d 35 de 29 00 00 	lea    0x29de(%rip),%rsi        # 1768b <g_1383+0x1237>
   14cad:	48 89 c7             	mov    %rax,%rdi
   14cb0:	e8 3e 1a ff ff       	callq  66f3 <transparent_crc>
   14cb5:	8b 05 15 65 00 00    	mov    0x6515(%rip),%eax        # 1b1d0 <g_105>
   14cbb:	89 c1                	mov    %eax,%ecx
   14cbd:	8b 45 fc             	mov    -0x4(%rbp),%eax
   14cc0:	89 c2                	mov    %eax,%edx
   14cc2:	48 8d 35 c7 29 00 00 	lea    0x29c7(%rip),%rsi        # 17690 <g_1383+0x123c>
   14cc9:	48 89 cf             	mov    %rcx,%rdi
   14ccc:	e8 22 1a ff ff       	callq  66f3 <transparent_crc>
   14cd1:	8b 05 f9 64 00 00    	mov    0x64f9(%rip),%eax        # 1b1d0 <g_105>
   14cd7:	48 98                	cltq   
   14cd9:	8b 55 fc             	mov    -0x4(%rbp),%edx
   14cdc:	48 8d 35 b6 29 00 00 	lea    0x29b6(%rip),%rsi        # 17699 <g_1383+0x1245>
   14ce3:	48 89 c7             	mov    %rax,%rdi
   14ce6:	e8 08 1a ff ff       	callq  66f3 <transparent_crc>
   14ceb:	0f b6 05 de 64 00 00 	movzbl 0x64de(%rip),%eax        # 1b1d0 <g_105>
   14cf2:	48 0f be c0          	movsbq %al,%rax
   14cf6:	8b 55 fc             	mov    -0x4(%rbp),%edx
   14cf9:	48 8d 35 a2 29 00 00 	lea    0x29a2(%rip),%rsi        # 176a2 <g_1383+0x124e>
   14d00:	48 89 c7             	mov    %rax,%rdi
   14d03:	e8 eb 19 ff ff       	callq  66f3 <transparent_crc>
   14d08:	0f b7 05 c1 64 00 00 	movzwl 0x64c1(%rip),%eax        # 1b1d0 <g_105>
   14d0f:	0f b7 c0             	movzwl %ax,%eax
   14d12:	8b 55 fc             	mov    -0x4(%rbp),%edx
   14d15:	48 8d 35 8f 29 00 00 	lea    0x298f(%rip),%rsi        # 176ab <g_1383+0x1257>
   14d1c:	48 89 c7             	mov    %rax,%rdi
   14d1f:	e8 cf 19 ff ff       	callq  66f3 <transparent_crc>
   14d24:	0f b6 05 ad 64 00 00 	movzbl 0x64ad(%rip),%eax        # 1b1d8 <g_120>
   14d2b:	0f b6 c0             	movzbl %al,%eax
   14d2e:	8b 55 fc             	mov    -0x4(%rbp),%edx
   14d31:	48 8d 35 7c 29 00 00 	lea    0x297c(%rip),%rsi        # 176b4 <g_1383+0x1260>
   14d38:	48 89 c7             	mov    %rax,%rdi
   14d3b:	e8 b3 19 ff ff       	callq  66f3 <transparent_crc>
   14d40:	48 8b 05 99 64 00 00 	mov    0x6499(%rip),%rax        # 1b1e0 <g_158>
   14d47:	48 89 c1             	mov    %rax,%rcx
   14d4a:	8b 45 fc             	mov    -0x4(%rbp),%eax
   14d4d:	89 c2                	mov    %eax,%edx
   14d4f:	48 8d 35 64 29 00 00 	lea    0x2964(%rip),%rsi        # 176ba <g_1383+0x1266>
   14d56:	48 89 cf             	mov    %rcx,%rdi
   14d59:	e8 95 19 ff ff       	callq  66f3 <transparent_crc>
   14d5e:	0f b7 05 83 64 00 00 	movzwl 0x6483(%rip),%eax        # 1b1e8 <g_167>
   14d65:	0f b7 c0             	movzwl %ax,%eax
   14d68:	8b 55 fc             	mov    -0x4(%rbp),%edx
   14d6b:	48 8d 35 4e 29 00 00 	lea    0x294e(%rip),%rsi        # 176c0 <g_1383+0x126c>
   14d72:	48 89 c7             	mov    %rax,%rdi
   14d75:	e8 79 19 ff ff       	callq  66f3 <transparent_crc>
   14d7a:	8b 05 70 64 00 00    	mov    0x6470(%rip),%eax        # 1b1f0 <g_219>
   14d80:	89 c1                	mov    %eax,%ecx
   14d82:	8b 45 fc             	mov    -0x4(%rbp),%eax
   14d85:	89 c2                	mov    %eax,%edx
   14d87:	48 8d 35 38 29 00 00 	lea    0x2938(%rip),%rsi        # 176c6 <g_1383+0x1272>
   14d8e:	48 89 cf             	mov    %rcx,%rdi
   14d91:	e8 5d 19 ff ff       	callq  66f3 <transparent_crc>
   14d96:	8b 05 54 64 00 00    	mov    0x6454(%rip),%eax        # 1b1f0 <g_219>
   14d9c:	48 98                	cltq   
   14d9e:	8b 55 fc             	mov    -0x4(%rbp),%edx
   14da1:	48 8d 35 27 29 00 00 	lea    0x2927(%rip),%rsi        # 176cf <g_1383+0x127b>
   14da8:	48 89 c7             	mov    %rax,%rdi
   14dab:	e8 43 19 ff ff       	callq  66f3 <transparent_crc>
   14db0:	0f b6 05 39 64 00 00 	movzbl 0x6439(%rip),%eax        # 1b1f0 <g_219>
   14db7:	48 0f be c0          	movsbq %al,%rax
   14dbb:	8b 55 fc             	mov    -0x4(%rbp),%edx
   14dbe:	48 8d 35 13 29 00 00 	lea    0x2913(%rip),%rsi        # 176d8 <g_1383+0x1284>
   14dc5:	48 89 c7             	mov    %rax,%rdi
   14dc8:	e8 26 19 ff ff       	callq  66f3 <transparent_crc>
   14dcd:	0f b7 05 1c 64 00 00 	movzwl 0x641c(%rip),%eax        # 1b1f0 <g_219>
   14dd4:	0f b7 c0             	movzwl %ax,%eax
   14dd7:	8b 55 fc             	mov    -0x4(%rbp),%edx
   14dda:	48 8d 35 00 29 00 00 	lea    0x2900(%rip),%rsi        # 176e1 <g_1383+0x128d>
   14de1:	48 89 c7             	mov    %rax,%rdi
   14de4:	e8 0a 19 ff ff       	callq  66f3 <transparent_crc>
   14de9:	0f b6 05 08 64 00 00 	movzbl 0x6408(%rip),%eax        # 1b1f8 <g_252>
   14df0:	48 0f be c0          	movsbq %al,%rax
   14df4:	8b 55 fc             	mov    -0x4(%rbp),%edx
   14df7:	48 8d 35 ec 28 00 00 	lea    0x28ec(%rip),%rsi        # 176ea <g_1383+0x1296>
   14dfe:	48 89 c7             	mov    %rax,%rdi
   14e01:	e8 ed 18 ff ff       	callq  66f3 <transparent_crc>
   14e06:	c7 45 f0 00 00 00 00 	movl   $0x0,-0x10(%rbp)
   14e0d:	e9 20 01 00 00       	jmpq   14f32 <main+0x59b>
   14e12:	c7 45 f4 00 00 00 00 	movl   $0x0,-0xc(%rbp)
   14e19:	e9 06 01 00 00       	jmpq   14f24 <main+0x58d>
   14e1e:	8b 45 f4             	mov    -0xc(%rbp),%eax
   14e21:	48 98                	cltq   
   14e23:	8b 55 f0             	mov    -0x10(%rbp),%edx
   14e26:	48 63 d2             	movslq %edx,%rdx
   14e29:	48 01 d2             	add    %rdx,%rdx
   14e2c:	48 01 d0             	add    %rdx,%rax
   14e2f:	48 8d 14 c5 00 00 00 	lea    0x0(,%rax,8),%rdx
   14e36:	00 
   14e37:	48 8d 05 c2 63 00 00 	lea    0x63c2(%rip),%rax        # 1b200 <g_271>
   14e3e:	8b 04 02             	mov    (%rdx,%rax,1),%eax
   14e41:	89 c1                	mov    %eax,%ecx
   14e43:	8b 45 fc             	mov    -0x4(%rbp),%eax
   14e46:	89 c2                	mov    %eax,%edx
   14e48:	48 8d 35 a1 28 00 00 	lea    0x28a1(%rip),%rsi        # 176f0 <g_1383+0x129c>
   14e4f:	48 89 cf             	mov    %rcx,%rdi
   14e52:	e8 9c 18 ff ff       	callq  66f3 <transparent_crc>
   14e57:	8b 45 f4             	mov    -0xc(%rbp),%eax
   14e5a:	48 98                	cltq   
   14e5c:	8b 55 f0             	mov    -0x10(%rbp),%edx
   14e5f:	48 63 d2             	movslq %edx,%rdx
   14e62:	48 01 d2             	add    %rdx,%rdx
   14e65:	48 01 d0             	add    %rdx,%rax
   14e68:	48 8d 14 c5 00 00 00 	lea    0x0(,%rax,8),%rdx
   14e6f:	00 
   14e70:	48 8d 05 89 63 00 00 	lea    0x6389(%rip),%rax        # 1b200 <g_271>
   14e77:	8b 04 02             	mov    (%rdx,%rax,1),%eax
   14e7a:	48 98                	cltq   
   14e7c:	8b 55 fc             	mov    -0x4(%rbp),%edx
   14e7f:	48 8d 35 79 28 00 00 	lea    0x2879(%rip),%rsi        # 176ff <g_1383+0x12ab>
   14e86:	48 89 c7             	mov    %rax,%rdi
   14e89:	e8 65 18 ff ff       	callq  66f3 <transparent_crc>
   14e8e:	8b 45 f4             	mov    -0xc(%rbp),%eax
   14e91:	48 98                	cltq   
   14e93:	8b 55 f0             	mov    -0x10(%rbp),%edx
   14e96:	48 63 d2             	movslq %edx,%rdx
   14e99:	48 01 d2             	add    %rdx,%rdx
   14e9c:	48 01 d0             	add    %rdx,%rax
   14e9f:	48 8d 14 c5 00 00 00 	lea    0x0(,%rax,8),%rdx
   14ea6:	00 
   14ea7:	48 8d 05 52 63 00 00 	lea    0x6352(%rip),%rax        # 1b200 <g_271>
   14eae:	0f b6 04 02          	movzbl (%rdx,%rax,1),%eax
   14eb2:	48 0f be c0          	movsbq %al,%rax
   14eb6:	8b 55 fc             	mov    -0x4(%rbp),%edx
   14eb9:	48 8d 35 4e 28 00 00 	lea    0x284e(%rip),%rsi        # 1770e <g_1383+0x12ba>
   14ec0:	48 89 c7             	mov    %rax,%rdi
   14ec3:	e8 2b 18 ff ff       	callq  66f3 <transparent_crc>
   14ec8:	8b 45 f4             	mov    -0xc(%rbp),%eax
   14ecb:	48 98                	cltq   
   14ecd:	8b 55 f0             	mov    -0x10(%rbp),%edx
   14ed0:	48 63 d2             	movslq %edx,%rdx
   14ed3:	48 01 d2             	add    %rdx,%rdx
   14ed6:	48 01 d0             	add    %rdx,%rax
   14ed9:	48 8d 14 c5 00 00 00 	lea    0x0(,%rax,8),%rdx
   14ee0:	00 
   14ee1:	48 8d 05 18 63 00 00 	lea    0x6318(%rip),%rax        # 1b200 <g_271>
   14ee8:	0f b7 04 02          	movzwl (%rdx,%rax,1),%eax
   14eec:	0f b7 c0             	movzwl %ax,%eax
   14eef:	8b 55 fc             	mov    -0x4(%rbp),%edx
   14ef2:	48 8d 35 24 28 00 00 	lea    0x2824(%rip),%rsi        # 1771d <g_1383+0x12c9>
   14ef9:	48 89 c7             	mov    %rax,%rdi
   14efc:	e8 f2 17 ff ff       	callq  66f3 <transparent_crc>
   14f01:	83 7d fc 00          	cmpl   $0x0,-0x4(%rbp)
   14f05:	74 19                	je     14f20 <main+0x589>
   14f07:	8b 55 f4             	mov    -0xc(%rbp),%edx
   14f0a:	8b 45 f0             	mov    -0x10(%rbp),%eax
   14f0d:	89 c6                	mov    %eax,%esi
   14f0f:	48 8d 3d 07 27 00 00 	lea    0x2707(%rip),%rdi        # 1761d <g_1383+0x11c9>
   14f16:	b8 00 00 00 00       	mov    $0x0,%eax
   14f1b:	e8 60 01 ff ff       	callq  5080 <printf@plt>
   14f20:	83 45 f4 01          	addl   $0x1,-0xc(%rbp)
   14f24:	83 7d f4 01          	cmpl   $0x1,-0xc(%rbp)
   14f28:	0f 8e f0 fe ff ff    	jle    14e1e <main+0x487>
   14f2e:	83 45 f0 01          	addl   $0x1,-0x10(%rbp)
   14f32:	83 7d f0 06          	cmpl   $0x6,-0x10(%rbp)
   14f36:	0f 8e d6 fe ff ff    	jle    14e12 <main+0x47b>
   14f3c:	48 8b 05 2d 63 00 00 	mov    0x632d(%rip),%rax        # 1b270 <g_273>
   14f43:	8b 55 fc             	mov    -0x4(%rbp),%edx
   14f46:	48 8d 35 df 27 00 00 	lea    0x27df(%rip),%rsi        # 1772c <g_1383+0x12d8>
   14f4d:	48 89 c7             	mov    %rax,%rdi
   14f50:	e8 9e 17 ff ff       	callq  66f3 <transparent_crc>
   14f55:	b8 f7 ff ff ff       	mov    $0xfffffff7,%eax
   14f5a:	48 98                	cltq   
   14f5c:	8b 55 fc             	mov    -0x4(%rbp),%edx
   14f5f:	48 8d 35 cc 27 00 00 	lea    0x27cc(%rip),%rsi        # 17732 <g_1383+0x12de>
   14f66:	48 89 c7             	mov    %rax,%rdi
   14f69:	e8 85 17 ff ff       	callq  66f3 <transparent_crc>
   14f6e:	c7 45 f0 00 00 00 00 	movl   $0x0,-0x10(%rbp)
   14f75:	e9 9f 00 00 00       	jmpq   15019 <main+0x682>
   14f7a:	c7 45 f4 00 00 00 00 	movl   $0x0,-0xc(%rbp)
   14f81:	e9 85 00 00 00       	jmpq   1500b <main+0x674>
   14f86:	c7 45 f8 00 00 00 00 	movl   $0x0,-0x8(%rbp)
   14f8d:	eb 72                	jmp    15001 <main+0x66a>
   14f8f:	8b 45 f8             	mov    -0x8(%rbp),%eax
   14f92:	48 63 c8             	movslq %eax,%rcx
   14f95:	8b 45 f0             	mov    -0x10(%rbp),%eax
   14f98:	48 63 d0             	movslq %eax,%rdx
   14f9b:	8b 45 f4             	mov    -0xc(%rbp),%eax
   14f9e:	48 63 f0             	movslq %eax,%rsi
   14fa1:	48 89 d0             	mov    %rdx,%rax
   14fa4:	48 c1 e0 03          	shl    $0x3,%rax
   14fa8:	48 01 d0             	add    %rdx,%rax
   14fab:	48 01 f0             	add    %rsi,%rax
   14fae:	48 c1 e0 02          	shl    $0x2,%rax
   14fb2:	48 01 c8             	add    %rcx,%rax
   14fb5:	48 8d 14 85 00 00 00 	lea    0x0(,%rax,4),%rdx
   14fbc:	00 
   14fbd:	48 8d 05 9c 10 00 00 	lea    0x109c(%rip),%rax        # 16060 <g_291>
   14fc4:	8b 04 02             	mov    (%rdx,%rax,1),%eax
   14fc7:	48 98                	cltq   
   14fc9:	8b 55 fc             	mov    -0x4(%rbp),%edx
   14fcc:	48 8d 35 65 27 00 00 	lea    0x2765(%rip),%rsi        # 17738 <g_1383+0x12e4>
   14fd3:	48 89 c7             	mov    %rax,%rdi
   14fd6:	e8 18 17 ff ff       	callq  66f3 <transparent_crc>
   14fdb:	83 7d fc 00          	cmpl   $0x0,-0x4(%rbp)
   14fdf:	74 1c                	je     14ffd <main+0x666>
   14fe1:	8b 4d f8             	mov    -0x8(%rbp),%ecx
   14fe4:	8b 55 f4             	mov    -0xc(%rbp),%edx
   14fe7:	8b 45 f0             	mov    -0x10(%rbp),%eax
   14fea:	89 c6                	mov    %eax,%esi
   14fec:	48 8d 3d 74 26 00 00 	lea    0x2674(%rip),%rdi        # 17667 <g_1383+0x1213>
   14ff3:	b8 00 00 00 00       	mov    $0x0,%eax
   14ff8:	e8 83 00 ff ff       	callq  5080 <printf@plt>
   14ffd:	83 45 f8 01          	addl   $0x1,-0x8(%rbp)
   15001:	83 7d f8 03          	cmpl   $0x3,-0x8(%rbp)
   15005:	7e 88                	jle    14f8f <main+0x5f8>
   15007:	83 45 f4 01          	addl   $0x1,-0xc(%rbp)
   1500b:	83 7d f4 08          	cmpl   $0x8,-0xc(%rbp)
   1500f:	0f 8e 71 ff ff ff    	jle    14f86 <main+0x5ef>
   15015:	83 45 f0 01          	addl   $0x1,-0x10(%rbp)
   15019:	83 7d f0 06          	cmpl   $0x6,-0x10(%rbp)
   1501d:	0f 8e 57 ff ff ff    	jle    14f7a <main+0x5e3>
   15023:	0f b7 05 4e 62 00 00 	movzwl 0x624e(%rip),%eax        # 1b278 <g_314>
   1502a:	0f b7 c0             	movzwl %ax,%eax
   1502d:	8b 55 fc             	mov    -0x4(%rbp),%edx
   15030:	48 8d 35 10 27 00 00 	lea    0x2710(%rip),%rsi        # 17747 <g_1383+0x12f3>
   15037:	48 89 c7             	mov    %rax,%rdi
   1503a:	e8 b4 16 ff ff       	callq  66f3 <transparent_crc>
   1503f:	8b 05 3b 62 00 00    	mov    0x623b(%rip),%eax        # 1b280 <g_346>
   15045:	89 c1                	mov    %eax,%ecx
   15047:	8b 45 fc             	mov    -0x4(%rbp),%eax
   1504a:	89 c2                	mov    %eax,%edx
   1504c:	48 8d 35 fa 26 00 00 	lea    0x26fa(%rip),%rsi        # 1774d <g_1383+0x12f9>
   15053:	48 89 cf             	mov    %rcx,%rdi
   15056:	e8 98 16 ff ff       	callq  66f3 <transparent_crc>
   1505b:	8b 05 1f 62 00 00    	mov    0x621f(%rip),%eax        # 1b280 <g_346>
   15061:	48 98                	cltq   
   15063:	8b 55 fc             	mov    -0x4(%rbp),%edx
   15066:	48 8d 35 e9 26 00 00 	lea    0x26e9(%rip),%rsi        # 17756 <g_1383+0x1302>
   1506d:	48 89 c7             	mov    %rax,%rdi
   15070:	e8 7e 16 ff ff       	callq  66f3 <transparent_crc>
   15075:	0f b6 05 04 62 00 00 	movzbl 0x6204(%rip),%eax        # 1b280 <g_346>
   1507c:	48 0f be c0          	movsbq %al,%rax
   15080:	8b 55 fc             	mov    -0x4(%rbp),%edx
   15083:	48 8d 35 d5 26 00 00 	lea    0x26d5(%rip),%rsi        # 1775f <g_1383+0x130b>
   1508a:	48 89 c7             	mov    %rax,%rdi
   1508d:	e8 61 16 ff ff       	callq  66f3 <transparent_crc>
   15092:	0f b7 05 e7 61 00 00 	movzwl 0x61e7(%rip),%eax        # 1b280 <g_346>
   15099:	0f b7 c0             	movzwl %ax,%eax
   1509c:	8b 55 fc             	mov    -0x4(%rbp),%edx
   1509f:	48 8d 35 c2 26 00 00 	lea    0x26c2(%rip),%rsi        # 17768 <g_1383+0x1314>
   150a6:	48 89 c7             	mov    %rax,%rdi
   150a9:	e8 45 16 ff ff       	callq  66f3 <transparent_crc>
   150ae:	0f b7 05 d3 61 00 00 	movzwl 0x61d3(%rip),%eax        # 1b288 <g_370>
   150b5:	48 0f bf c0          	movswq %ax,%rax
   150b9:	8b 55 fc             	mov    -0x4(%rbp),%edx
   150bc:	48 8d 35 ae 26 00 00 	lea    0x26ae(%rip),%rsi        # 17771 <g_1383+0x131d>
   150c3:	48 89 c7             	mov    %rax,%rdi
   150c6:	e8 28 16 ff ff       	callq  66f3 <transparent_crc>
   150cb:	c7 45 f0 00 00 00 00 	movl   $0x0,-0x10(%rbp)
   150d2:	eb 73                	jmp    15147 <main+0x7b0>
   150d4:	c7 45 f4 00 00 00 00 	movl   $0x0,-0xc(%rbp)
   150db:	eb 60                	jmp    1513d <main+0x7a6>
   150dd:	8b 45 f4             	mov    -0xc(%rbp),%eax
   150e0:	48 63 c8             	movslq %eax,%rcx
   150e3:	8b 45 f0             	mov    -0x10(%rbp),%eax
   150e6:	48 63 d0             	movslq %eax,%rdx
   150e9:	48 89 d0             	mov    %rdx,%rax
   150ec:	48 01 c0             	add    %rax,%rax
   150ef:	48 01 d0             	add    %rdx,%rax
   150f2:	48 01 c8             	add    %rcx,%rax
   150f5:	48 8d 14 c5 00 00 00 	lea    0x0(,%rax,8),%rdx
   150fc:	00 
   150fd:	48 8d 05 9c 61 00 00 	lea    0x619c(%rip),%rax        # 1b2a0 <g_393>
   15104:	48 8b 04 02          	mov    (%rdx,%rax,1),%rax
   15108:	8b 55 fc             	mov    -0x4(%rbp),%edx
   1510b:	48 8d 35 65 26 00 00 	lea    0x2665(%rip),%rsi        # 17777 <g_1383+0x1323>
   15112:	48 89 c7             	mov    %rax,%rdi
   15115:	e8 d9 15 ff ff       	callq  66f3 <transparent_crc>
   1511a:	83 7d fc 00          	cmpl   $0x0,-0x4(%rbp)
   1511e:	74 19                	je     15139 <main+0x7a2>
   15120:	8b 55 f4             	mov    -0xc(%rbp),%edx
   15123:	8b 45 f0             	mov    -0x10(%rbp),%eax
   15126:	89 c6                	mov    %eax,%esi
   15128:	48 8d 3d ee 24 00 00 	lea    0x24ee(%rip),%rdi        # 1761d <g_1383+0x11c9>
   1512f:	b8 00 00 00 00       	mov    $0x0,%eax
   15134:	e8 47 ff fe ff       	callq  5080 <printf@plt>
   15139:	83 45 f4 01          	addl   $0x1,-0xc(%rbp)
   1513d:	83 7d f4 02          	cmpl   $0x2,-0xc(%rbp)
   15141:	7e 9a                	jle    150dd <main+0x746>
   15143:	83 45 f0 01          	addl   $0x1,-0x10(%rbp)
   15147:	83 7d f0 09          	cmpl   $0x9,-0x10(%rbp)
   1514b:	7e 87                	jle    150d4 <main+0x73d>
   1514d:	8b 05 3d 62 00 00    	mov    0x623d(%rip),%eax        # 1b390 <g_437>
   15153:	89 c1                	mov    %eax,%ecx
   15155:	8b 45 fc             	mov    -0x4(%rbp),%eax
   15158:	89 c2                	mov    %eax,%edx
   1515a:	48 8d 35 22 26 00 00 	lea    0x2622(%rip),%rsi        # 17783 <g_1383+0x132f>
   15161:	48 89 cf             	mov    %rcx,%rdi
   15164:	e8 8a 15 ff ff       	callq  66f3 <transparent_crc>
   15169:	8b 05 21 62 00 00    	mov    0x6221(%rip),%eax        # 1b390 <g_437>
   1516f:	48 98                	cltq   
   15171:	8b 55 fc             	mov    -0x4(%rbp),%edx
   15174:	48 8d 35 11 26 00 00 	lea    0x2611(%rip),%rsi        # 1778c <g_1383+0x1338>
   1517b:	48 89 c7             	mov    %rax,%rdi
   1517e:	e8 70 15 ff ff       	callq  66f3 <transparent_crc>
   15183:	0f b6 05 06 62 00 00 	movzbl 0x6206(%rip),%eax        # 1b390 <g_437>
   1518a:	48 0f be c0          	movsbq %al,%rax
   1518e:	8b 55 fc             	mov    -0x4(%rbp),%edx
   15191:	48 8d 35 fd 25 00 00 	lea    0x25fd(%rip),%rsi        # 17795 <g_1383+0x1341>
   15198:	48 89 c7             	mov    %rax,%rdi
   1519b:	e8 53 15 ff ff       	callq  66f3 <transparent_crc>
   151a0:	0f b7 05 e9 61 00 00 	movzwl 0x61e9(%rip),%eax        # 1b390 <g_437>
   151a7:	0f b7 c0             	movzwl %ax,%eax
   151aa:	8b 55 fc             	mov    -0x4(%rbp),%edx
   151ad:	48 8d 35 ea 25 00 00 	lea    0x25ea(%rip),%rsi        # 1779e <g_1383+0x134a>
   151b4:	48 89 c7             	mov    %rax,%rdi
   151b7:	e8 37 15 ff ff       	callq  66f3 <transparent_crc>
   151bc:	0f b7 05 d5 61 00 00 	movzwl 0x61d5(%rip),%eax        # 1b398 <g_461>
   151c3:	0f b7 c0             	movzwl %ax,%eax
   151c6:	8b 55 fc             	mov    -0x4(%rbp),%edx
   151c9:	48 8d 35 d7 25 00 00 	lea    0x25d7(%rip),%rsi        # 177a7 <g_1383+0x1353>
   151d0:	48 89 c7             	mov    %rax,%rdi
   151d3:	e8 1b 15 ff ff       	callq  66f3 <transparent_crc>
   151d8:	8b 05 be 61 00 00    	mov    0x61be(%rip),%eax        # 1b39c <g_623>
   151de:	89 c1                	mov    %eax,%ecx
   151e0:	8b 45 fc             	mov    -0x4(%rbp),%eax
   151e3:	89 c2                	mov    %eax,%edx
   151e5:	48 8d 35 c1 25 00 00 	lea    0x25c1(%rip),%rsi        # 177ad <g_1383+0x1359>
   151ec:	48 89 cf             	mov    %rcx,%rdi
   151ef:	e8 ff 14 ff ff       	callq  66f3 <transparent_crc>
   151f4:	b8 fb ff ff ff       	mov    $0xfffffffb,%eax
   151f9:	89 c1                	mov    %eax,%ecx
   151fb:	8b 45 fc             	mov    -0x4(%rbp),%eax
   151fe:	89 c2                	mov    %eax,%edx
   15200:	48 8d 35 ac 25 00 00 	lea    0x25ac(%rip),%rsi        # 177b3 <g_1383+0x135f>
   15207:	48 89 cf             	mov    %rcx,%rdi
   1520a:	e8 e4 14 ff ff       	callq  66f3 <transparent_crc>
   1520f:	0f b7 05 da 87 00 00 	movzwl 0x87da(%rip),%eax        # 1d9f0 <g_799>
   15216:	0f b7 c0             	movzwl %ax,%eax
   15219:	8b 55 fc             	mov    -0x4(%rbp),%edx
   1521c:	48 8d 35 96 25 00 00 	lea    0x2596(%rip),%rsi        # 177b9 <g_1383+0x1365>
   15223:	48 89 c7             	mov    %rax,%rdi
   15226:	e8 c8 14 ff ff       	callq  66f3 <transparent_crc>
   1522b:	48 8b 05 6e 61 00 00 	mov    0x616e(%rip),%rax        # 1b3a0 <g_844>
   15232:	48 89 c1             	mov    %rax,%rcx
   15235:	8b 45 fc             	mov    -0x4(%rbp),%eax
   15238:	89 c2                	mov    %eax,%edx
   1523a:	48 8d 35 7e 25 00 00 	lea    0x257e(%rip),%rsi        # 177bf <g_1383+0x136b>
   15241:	48 89 cf             	mov    %rcx,%rdi
   15244:	e8 aa 14 ff ff       	callq  66f3 <transparent_crc>
   15249:	0f b7 05 58 61 00 00 	movzwl 0x6158(%rip),%eax        # 1b3a8 <g_906>
   15250:	0f b7 c0             	movzwl %ax,%eax
   15253:	8b 55 fc             	mov    -0x4(%rbp),%edx
   15256:	48 8d 35 68 25 00 00 	lea    0x2568(%rip),%rsi        # 177c5 <g_1383+0x1371>
   1525d:	48 89 c7             	mov    %rax,%rdi
   15260:	e8 8e 14 ff ff       	callq  66f3 <transparent_crc>
   15265:	48 8b 05 44 61 00 00 	mov    0x6144(%rip),%rax        # 1b3b0 <g_922>
   1526c:	48 89 c1             	mov    %rax,%rcx
   1526f:	8b 45 fc             	mov    -0x4(%rbp),%eax
   15272:	89 c2                	mov    %eax,%edx
   15274:	48 8d 35 50 25 00 00 	lea    0x2550(%rip),%rsi        # 177cb <g_1383+0x1377>
   1527b:	48 89 cf             	mov    %rcx,%rdi
   1527e:	e8 70 14 ff ff       	callq  66f3 <transparent_crc>
   15283:	c7 45 f0 00 00 00 00 	movl   $0x0,-0x10(%rbp)
   1528a:	eb 4d                	jmp    152d9 <main+0x942>
   1528c:	8b 45 f0             	mov    -0x10(%rbp),%eax
   1528f:	48 98                	cltq   
   15291:	48 8d 14 85 00 00 00 	lea    0x0(,%rax,4),%rdx
   15298:	00 
   15299:	48 8d 05 18 61 00 00 	lea    0x6118(%rip),%rax        # 1b3b8 <g_940>
   152a0:	8b 04 02             	mov    (%rdx,%rax,1),%eax
   152a3:	89 c1                	mov    %eax,%ecx
   152a5:	8b 45 fc             	mov    -0x4(%rbp),%eax
   152a8:	89 c2                	mov    %eax,%edx
   152aa:	48 8d 35 20 25 00 00 	lea    0x2520(%rip),%rsi        # 177d1 <g_1383+0x137d>
   152b1:	48 89 cf             	mov    %rcx,%rdi
   152b4:	e8 3a 14 ff ff       	callq  66f3 <transparent_crc>
   152b9:	83 7d fc 00          	cmpl   $0x0,-0x4(%rbp)
   152bd:	74 16                	je     152d5 <main+0x93e>
   152bf:	8b 45 f0             	mov    -0x10(%rbp),%eax
   152c2:	89 c6                	mov    %eax,%esi
   152c4:	48 8d 3d 7b 23 00 00 	lea    0x237b(%rip),%rdi        # 17646 <g_1383+0x11f2>
   152cb:	b8 00 00 00 00       	mov    $0x0,%eax
   152d0:	e8 ab fd fe ff       	callq  5080 <printf@plt>
   152d5:	83 45 f0 01          	addl   $0x1,-0x10(%rbp)
   152d9:	83 7d f0 02          	cmpl   $0x2,-0x10(%rbp)
   152dd:	7e ad                	jle    1528c <main+0x8f5>
   152df:	8b 05 e3 60 00 00    	mov    0x60e3(%rip),%eax        # 1b3c8 <g_975>
   152e5:	89 c1                	mov    %eax,%ecx
   152e7:	8b 45 fc             	mov    -0x4(%rbp),%eax
   152ea:	89 c2                	mov    %eax,%edx
   152ec:	48 8d 35 e7 24 00 00 	lea    0x24e7(%rip),%rsi        # 177da <g_1383+0x1386>
   152f3:	48 89 cf             	mov    %rcx,%rdi
   152f6:	e8 f8 13 ff ff       	callq  66f3 <transparent_crc>
   152fb:	8b 05 c7 60 00 00    	mov    0x60c7(%rip),%eax        # 1b3c8 <g_975>
   15301:	48 98                	cltq   
   15303:	8b 55 fc             	mov    -0x4(%rbp),%edx
   15306:	48 8d 35 d6 24 00 00 	lea    0x24d6(%rip),%rsi        # 177e3 <g_1383+0x138f>
   1530d:	48 89 c7             	mov    %rax,%rdi
   15310:	e8 de 13 ff ff       	callq  66f3 <transparent_crc>
   15315:	0f b6 05 ac 60 00 00 	movzbl 0x60ac(%rip),%eax        # 1b3c8 <g_975>
   1531c:	48 0f be c0          	movsbq %al,%rax
   15320:	8b 55 fc             	mov    -0x4(%rbp),%edx
   15323:	48 8d 35 c2 24 00 00 	lea    0x24c2(%rip),%rsi        # 177ec <g_1383+0x1398>
   1532a:	48 89 c7             	mov    %rax,%rdi
   1532d:	e8 c1 13 ff ff       	callq  66f3 <transparent_crc>
   15332:	0f b7 05 8f 60 00 00 	movzwl 0x608f(%rip),%eax        # 1b3c8 <g_975>
   15339:	0f b7 c0             	movzwl %ax,%eax
   1533c:	8b 55 fc             	mov    -0x4(%rbp),%edx
   1533f:	48 8d 35 af 24 00 00 	lea    0x24af(%rip),%rsi        # 177f5 <g_1383+0x13a1>
   15346:	48 89 c7             	mov    %rax,%rdi
   15349:	e8 a5 13 ff ff       	callq  66f3 <transparent_crc>
   1534e:	8b 05 b4 86 00 00    	mov    0x86b4(%rip),%eax        # 1da08 <g_1009>
   15354:	89 c1                	mov    %eax,%ecx
   15356:	8b 45 fc             	mov    -0x4(%rbp),%eax
   15359:	89 c2                	mov    %eax,%edx
   1535b:	48 8d 35 9c 24 00 00 	lea    0x249c(%rip),%rsi        # 177fe <g_1383+0x13aa>
   15362:	48 89 cf             	mov    %rcx,%rdi
   15365:	e8 89 13 ff ff       	callq  66f3 <transparent_crc>
   1536a:	8b 05 98 86 00 00    	mov    0x8698(%rip),%eax        # 1da08 <g_1009>
   15370:	48 98                	cltq   
   15372:	8b 55 fc             	mov    -0x4(%rbp),%edx
   15375:	48 8d 35 8c 24 00 00 	lea    0x248c(%rip),%rsi        # 17808 <g_1383+0x13b4>
   1537c:	48 89 c7             	mov    %rax,%rdi
   1537f:	e8 6f 13 ff ff       	callq  66f3 <transparent_crc>
   15384:	0f b6 05 7d 86 00 00 	movzbl 0x867d(%rip),%eax        # 1da08 <g_1009>
   1538b:	48 0f be c0          	movsbq %al,%rax
   1538f:	8b 55 fc             	mov    -0x4(%rbp),%edx
   15392:	48 8d 35 79 24 00 00 	lea    0x2479(%rip),%rsi        # 17812 <g_1383+0x13be>
   15399:	48 89 c7             	mov    %rax,%rdi
   1539c:	e8 52 13 ff ff       	callq  66f3 <transparent_crc>
   153a1:	0f b7 05 60 86 00 00 	movzwl 0x8660(%rip),%eax        # 1da08 <g_1009>
   153a8:	0f b7 c0             	movzwl %ax,%eax
   153ab:	8b 55 fc             	mov    -0x4(%rbp),%edx
   153ae:	48 8d 35 67 24 00 00 	lea    0x2467(%rip),%rsi        # 1781c <g_1383+0x13c8>
   153b5:	48 89 c7             	mov    %rax,%rdi
   153b8:	e8 36 13 ff ff       	callq  66f3 <transparent_crc>
   153bd:	8b 05 0d 60 00 00    	mov    0x600d(%rip),%eax        # 1b3d0 <g_1087>
   153c3:	89 c1                	mov    %eax,%ecx
   153c5:	8b 45 fc             	mov    -0x4(%rbp),%eax
   153c8:	89 c2                	mov    %eax,%edx
   153ca:	48 8d 35 55 24 00 00 	lea    0x2455(%rip),%rsi        # 17826 <g_1383+0x13d2>
   153d1:	48 89 cf             	mov    %rcx,%rdi
   153d4:	e8 1a 13 ff ff       	callq  66f3 <transparent_crc>
   153d9:	8b 05 f1 5f 00 00    	mov    0x5ff1(%rip),%eax        # 1b3d0 <g_1087>
   153df:	48 98                	cltq   
   153e1:	8b 55 fc             	mov    -0x4(%rbp),%edx
   153e4:	48 8d 35 45 24 00 00 	lea    0x2445(%rip),%rsi        # 17830 <g_1383+0x13dc>
   153eb:	48 89 c7             	mov    %rax,%rdi
   153ee:	e8 00 13 ff ff       	callq  66f3 <transparent_crc>
   153f3:	0f b6 05 d6 5f 00 00 	movzbl 0x5fd6(%rip),%eax        # 1b3d0 <g_1087>
   153fa:	48 0f be c0          	movsbq %al,%rax
   153fe:	8b 55 fc             	mov    -0x4(%rbp),%edx
   15401:	48 8d 35 32 24 00 00 	lea    0x2432(%rip),%rsi        # 1783a <g_1383+0x13e6>
   15408:	48 89 c7             	mov    %rax,%rdi
   1540b:	e8 e3 12 ff ff       	callq  66f3 <transparent_crc>
   15410:	0f b7 05 b9 5f 00 00 	movzwl 0x5fb9(%rip),%eax        # 1b3d0 <g_1087>
   15417:	0f b7 c0             	movzwl %ax,%eax
   1541a:	8b 55 fc             	mov    -0x4(%rbp),%edx
   1541d:	48 8d 35 20 24 00 00 	lea    0x2420(%rip),%rsi        # 17844 <g_1383+0x13f0>
   15424:	48 89 c7             	mov    %rax,%rdi
   15427:	e8 c7 12 ff ff       	callq  66f3 <transparent_crc>
   1542c:	0f b7 05 a5 5f 00 00 	movzwl 0x5fa5(%rip),%eax        # 1b3d8 <g_1131>
   15433:	48 0f bf c0          	movswq %ax,%rax
   15437:	8b 55 fc             	mov    -0x4(%rbp),%edx
   1543a:	48 8d 35 0d 24 00 00 	lea    0x240d(%rip),%rsi        # 1784e <g_1383+0x13fa>
   15441:	48 89 c7             	mov    %rax,%rdi
   15444:	e8 aa 12 ff ff       	callq  66f3 <transparent_crc>
   15449:	c7 45 f0 00 00 00 00 	movl   $0x0,-0x10(%rbp)
   15450:	eb 4a                	jmp    1549c <main+0xb05>
   15452:	8b 45 f0             	mov    -0x10(%rbp),%eax
   15455:	48 98                	cltq   
   15457:	48 8d 14 00          	lea    (%rax,%rax,1),%rdx
   1545b:	48 8d 05 7e 5f 00 00 	lea    0x5f7e(%rip),%rax        # 1b3e0 <g_1135>
   15462:	0f b7 04 02          	movzwl (%rdx,%rax,1),%eax
   15466:	48 0f bf c0          	movswq %ax,%rax
   1546a:	8b 55 fc             	mov    -0x4(%rbp),%edx
   1546d:	48 8d 35 e1 23 00 00 	lea    0x23e1(%rip),%rsi        # 17855 <g_1383+0x1401>
   15474:	48 89 c7             	mov    %rax,%rdi
   15477:	e8 77 12 ff ff       	callq  66f3 <transparent_crc>
   1547c:	83 7d fc 00          	cmpl   $0x0,-0x4(%rbp)
   15480:	74 16                	je     15498 <main+0xb01>
   15482:	8b 45 f0             	mov    -0x10(%rbp),%eax
   15485:	89 c6                	mov    %eax,%esi
   15487:	48 8d 3d b8 21 00 00 	lea    0x21b8(%rip),%rdi        # 17646 <g_1383+0x11f2>
   1548e:	b8 00 00 00 00       	mov    $0x0,%eax
   15493:	e8 e8 fb fe ff       	callq  5080 <printf@plt>
   15498:	83 45 f0 01          	addl   $0x1,-0x10(%rbp)
   1549c:	83 7d f0 07          	cmpl   $0x7,-0x10(%rbp)
   154a0:	7e b0                	jle    15452 <main+0xabb>
   154a2:	8b 05 48 5f 00 00    	mov    0x5f48(%rip),%eax        # 1b3f0 <g_1166>
   154a8:	48 98                	cltq   
   154aa:	8b 55 fc             	mov    -0x4(%rbp),%edx
   154ad:	48 8d 35 ab 23 00 00 	lea    0x23ab(%rip),%rsi        # 1785f <g_1383+0x140b>
   154b4:	48 89 c7             	mov    %rax,%rdi
   154b7:	e8 37 12 ff ff       	callq  66f3 <transparent_crc>
   154bc:	c7 45 f0 00 00 00 00 	movl   $0x0,-0x10(%rbp)
   154c3:	e9 d3 00 00 00       	jmpq   1559b <main+0xc04>
   154c8:	8b 45 f0             	mov    -0x10(%rbp),%eax
   154cb:	48 98                	cltq   
   154cd:	48 8d 14 c5 00 00 00 	lea    0x0(,%rax,8),%rdx
   154d4:	00 
   154d5:	48 8d 05 24 5f 00 00 	lea    0x5f24(%rip),%rax        # 1b400 <g_1194>
   154dc:	8b 04 02             	mov    (%rdx,%rax,1),%eax
   154df:	89 c1                	mov    %eax,%ecx
   154e1:	8b 45 fc             	mov    -0x4(%rbp),%eax
   154e4:	89 c2                	mov    %eax,%edx
   154e6:	48 8d 35 79 23 00 00 	lea    0x2379(%rip),%rsi        # 17866 <g_1383+0x1412>
   154ed:	48 89 cf             	mov    %rcx,%rdi
   154f0:	e8 fe 11 ff ff       	callq  66f3 <transparent_crc>
   154f5:	8b 45 f0             	mov    -0x10(%rbp),%eax
   154f8:	48 98                	cltq   
   154fa:	48 8d 14 c5 00 00 00 	lea    0x0(,%rax,8),%rdx
   15501:	00 
   15502:	48 8d 05 f7 5e 00 00 	lea    0x5ef7(%rip),%rax        # 1b400 <g_1194>
   15509:	8b 04 02             	mov    (%rdx,%rax,1),%eax
   1550c:	48 98                	cltq   
   1550e:	8b 55 fc             	mov    -0x4(%rbp),%edx
   15511:	48 8d 35 5b 23 00 00 	lea    0x235b(%rip),%rsi        # 17873 <g_1383+0x141f>
   15518:	48 89 c7             	mov    %rax,%rdi
   1551b:	e8 d3 11 ff ff       	callq  66f3 <transparent_crc>
   15520:	8b 45 f0             	mov    -0x10(%rbp),%eax
   15523:	48 98                	cltq   
   15525:	48 8d 14 c5 00 00 00 	lea    0x0(,%rax,8),%rdx
   1552c:	00 
   1552d:	48 8d 05 cc 5e 00 00 	lea    0x5ecc(%rip),%rax        # 1b400 <g_1194>
   15534:	0f b6 04 02          	movzbl (%rdx,%rax,1),%eax
   15538:	48 0f be c0          	movsbq %al,%rax
   1553c:	8b 55 fc             	mov    -0x4(%rbp),%edx
   1553f:	48 8d 35 3a 23 00 00 	lea    0x233a(%rip),%rsi        # 17880 <g_1383+0x142c>
   15546:	48 89 c7             	mov    %rax,%rdi
   15549:	e8 a5 11 ff ff       	callq  66f3 <transparent_crc>
   1554e:	8b 45 f0             	mov    -0x10(%rbp),%eax
   15551:	48 98                	cltq   
   15553:	48 8d 14 c5 00 00 00 	lea    0x0(,%rax,8),%rdx
   1555a:	00 
   1555b:	48 8d 05 9e 5e 00 00 	lea    0x5e9e(%rip),%rax        # 1b400 <g_1194>
   15562:	0f b7 04 02          	movzwl (%rdx,%rax,1),%eax
   15566:	0f b7 c0             	movzwl %ax,%eax
   15569:	8b 55 fc             	mov    -0x4(%rbp),%edx
   1556c:	48 8d 35 1a 23 00 00 	lea    0x231a(%rip),%rsi        # 1788d <g_1383+0x1439>
   15573:	48 89 c7             	mov    %rax,%rdi
   15576:	e8 78 11 ff ff       	callq  66f3 <transparent_crc>
   1557b:	83 7d fc 00          	cmpl   $0x0,-0x4(%rbp)
   1557f:	74 16                	je     15597 <main+0xc00>
   15581:	8b 45 f0             	mov    -0x10(%rbp),%eax
   15584:	89 c6                	mov    %eax,%esi
   15586:	48 8d 3d b9 20 00 00 	lea    0x20b9(%rip),%rdi        # 17646 <g_1383+0x11f2>
   1558d:	b8 00 00 00 00       	mov    $0x0,%eax
   15592:	e8 e9 fa fe ff       	callq  5080 <printf@plt>
   15597:	83 45 f0 01          	addl   $0x1,-0x10(%rbp)
   1559b:	83 7d f0 02          	cmpl   $0x2,-0x10(%rbp)
   1559f:	0f 8e 23 ff ff ff    	jle    154c8 <main+0xb31>
   155a5:	8b 05 6d 5e 00 00    	mov    0x5e6d(%rip),%eax        # 1b418 <g_1195>
   155ab:	89 c1                	mov    %eax,%ecx
   155ad:	8b 45 fc             	mov    -0x4(%rbp),%eax
   155b0:	89 c2                	mov    %eax,%edx
   155b2:	48 8d 35 e1 22 00 00 	lea    0x22e1(%rip),%rsi        # 1789a <g_1383+0x1446>
   155b9:	48 89 cf             	mov    %rcx,%rdi
   155bc:	e8 32 11 ff ff       	callq  66f3 <transparent_crc>
   155c1:	8b 05 51 5e 00 00    	mov    0x5e51(%rip),%eax        # 1b418 <g_1195>
   155c7:	48 98                	cltq   
   155c9:	8b 55 fc             	mov    -0x4(%rbp),%edx
   155cc:	48 8d 35 d1 22 00 00 	lea    0x22d1(%rip),%rsi        # 178a4 <g_1383+0x1450>
   155d3:	48 89 c7             	mov    %rax,%rdi
   155d6:	e8 18 11 ff ff       	callq  66f3 <transparent_crc>
   155db:	0f b6 05 36 5e 00 00 	movzbl 0x5e36(%rip),%eax        # 1b418 <g_1195>
   155e2:	48 0f be c0          	movsbq %al,%rax
   155e6:	8b 55 fc             	mov    -0x4(%rbp),%edx
   155e9:	48 8d 35 be 22 00 00 	lea    0x22be(%rip),%rsi        # 178ae <g_1383+0x145a>
   155f0:	48 89 c7             	mov    %rax,%rdi
   155f3:	e8 fb 10 ff ff       	callq  66f3 <transparent_crc>
   155f8:	0f b7 05 19 5e 00 00 	movzwl 0x5e19(%rip),%eax        # 1b418 <g_1195>
   155ff:	0f b7 c0             	movzwl %ax,%eax
   15602:	8b 55 fc             	mov    -0x4(%rbp),%edx
   15605:	48 8d 35 ac 22 00 00 	lea    0x22ac(%rip),%rsi        # 178b8 <g_1383+0x1464>
   1560c:	48 89 c7             	mov    %rax,%rdi
   1560f:	e8 df 10 ff ff       	callq  66f3 <transparent_crc>
   15614:	0f b6 05 05 5e 00 00 	movzbl 0x5e05(%rip),%eax        # 1b420 <g_1202>
   1561b:	0f b6 c0             	movzbl %al,%eax
   1561e:	8b 55 fc             	mov    -0x4(%rbp),%edx
   15621:	48 8d 35 9a 22 00 00 	lea    0x229a(%rip),%rsi        # 178c2 <g_1383+0x146e>
   15628:	48 89 c7             	mov    %rax,%rdi
   1562b:	e8 c3 10 ff ff       	callq  66f3 <transparent_crc>
   15630:	8b 05 e2 83 00 00    	mov    0x83e2(%rip),%eax        # 1da18 <g_1247>
   15636:	48 98                	cltq   
   15638:	8b 55 fc             	mov    -0x4(%rbp),%edx
   1563b:	48 8d 35 87 22 00 00 	lea    0x2287(%rip),%rsi        # 178c9 <g_1383+0x1475>
   15642:	48 89 c7             	mov    %rax,%rdi
   15645:	e8 a9 10 ff ff       	callq  66f3 <transparent_crc>
   1564a:	8b 05 d0 83 00 00    	mov    0x83d0(%rip),%eax        # 1da20 <g_1248>
   15650:	89 c1                	mov    %eax,%ecx
   15652:	8b 45 fc             	mov    -0x4(%rbp),%eax
   15655:	89 c2                	mov    %eax,%edx
   15657:	48 8d 35 72 22 00 00 	lea    0x2272(%rip),%rsi        # 178d0 <g_1383+0x147c>
   1565e:	48 89 cf             	mov    %rcx,%rdi
   15661:	e8 8d 10 ff ff       	callq  66f3 <transparent_crc>
   15666:	8b 05 b4 83 00 00    	mov    0x83b4(%rip),%eax        # 1da20 <g_1248>
   1566c:	48 98                	cltq   
   1566e:	8b 55 fc             	mov    -0x4(%rbp),%edx
   15671:	48 8d 35 62 22 00 00 	lea    0x2262(%rip),%rsi        # 178da <g_1383+0x1486>
   15678:	48 89 c7             	mov    %rax,%rdi
   1567b:	e8 73 10 ff ff       	callq  66f3 <transparent_crc>
   15680:	0f b6 05 99 83 00 00 	movzbl 0x8399(%rip),%eax        # 1da20 <g_1248>
   15687:	48 0f be c0          	movsbq %al,%rax
   1568b:	8b 55 fc             	mov    -0x4(%rbp),%edx
   1568e:	48 8d 35 4f 22 00 00 	lea    0x224f(%rip),%rsi        # 178e4 <g_1383+0x1490>
   15695:	48 89 c7             	mov    %rax,%rdi
   15698:	e8 56 10 ff ff       	callq  66f3 <transparent_crc>
   1569d:	0f b7 05 7c 83 00 00 	movzwl 0x837c(%rip),%eax        # 1da20 <g_1248>
   156a4:	0f b7 c0             	movzwl %ax,%eax
   156a7:	8b 55 fc             	mov    -0x4(%rbp),%edx
   156aa:	48 8d 35 3d 22 00 00 	lea    0x223d(%rip),%rsi        # 178ee <g_1383+0x149a>
   156b1:	48 89 c7             	mov    %rax,%rdi
   156b4:	e8 3a 10 ff ff       	callq  66f3 <transparent_crc>
   156b9:	b8 fe ff ff ff       	mov    $0xfffffffe,%eax
   156be:	0f b7 c0             	movzwl %ax,%eax
   156c1:	8b 55 fc             	mov    -0x4(%rbp),%edx
   156c4:	48 8d 35 2d 22 00 00 	lea    0x222d(%rip),%rsi        # 178f8 <g_1383+0x14a4>
   156cb:	48 89 c7             	mov    %rax,%rdi
   156ce:	e8 20 10 ff ff       	callq  66f3 <transparent_crc>
   156d3:	8b 05 4f 83 00 00    	mov    0x834f(%rip),%eax        # 1da28 <g_1412>
   156d9:	89 c1                	mov    %eax,%ecx
   156db:	8b 45 fc             	mov    -0x4(%rbp),%eax
   156de:	89 c2                	mov    %eax,%edx
   156e0:	48 8d 35 18 22 00 00 	lea    0x2218(%rip),%rsi        # 178ff <g_1383+0x14ab>
   156e7:	48 89 cf             	mov    %rcx,%rdi
   156ea:	e8 04 10 ff ff       	callq  66f3 <transparent_crc>
   156ef:	8b 05 33 83 00 00    	mov    0x8333(%rip),%eax        # 1da28 <g_1412>
   156f5:	48 98                	cltq   
   156f7:	8b 55 fc             	mov    -0x4(%rbp),%edx
   156fa:	48 8d 35 08 22 00 00 	lea    0x2208(%rip),%rsi        # 17909 <g_1383+0x14b5>
   15701:	48 89 c7             	mov    %rax,%rdi
   15704:	e8 ea 0f ff ff       	callq  66f3 <transparent_crc>
   15709:	0f b6 05 18 83 00 00 	movzbl 0x8318(%rip),%eax        # 1da28 <g_1412>
   15710:	48 0f be c0          	movsbq %al,%rax
   15714:	8b 55 fc             	mov    -0x4(%rbp),%edx
   15717:	48 8d 35 f5 21 00 00 	lea    0x21f5(%rip),%rsi        # 17913 <g_1383+0x14bf>
   1571e:	48 89 c7             	mov    %rax,%rdi
   15721:	e8 cd 0f ff ff       	callq  66f3 <transparent_crc>
   15726:	0f b7 05 fb 82 00 00 	movzwl 0x82fb(%rip),%eax        # 1da28 <g_1412>
   1572d:	0f b7 c0             	movzwl %ax,%eax
   15730:	8b 55 fc             	mov    -0x4(%rbp),%edx
   15733:	48 8d 35 e3 21 00 00 	lea    0x21e3(%rip),%rsi        # 1791d <g_1383+0x14c9>
   1573a:	48 89 c7             	mov    %rax,%rdi
   1573d:	e8 b1 0f ff ff       	callq  66f3 <transparent_crc>
   15742:	8b 05 dc 5c 00 00    	mov    0x5cdc(%rip),%eax        # 1b424 <g_1564>
   15748:	89 c1                	mov    %eax,%ecx
   1574a:	8b 45 fc             	mov    -0x4(%rbp),%eax
   1574d:	89 c2                	mov    %eax,%edx
   1574f:	48 8d 35 d1 21 00 00 	lea    0x21d1(%rip),%rsi        # 17927 <g_1383+0x14d3>
   15756:	48 89 cf             	mov    %rcx,%rdi
   15759:	e8 95 0f ff ff       	callq  66f3 <transparent_crc>
   1575e:	8b 05 c4 5c 00 00    	mov    0x5cc4(%rip),%eax        # 1b428 <g_1639>
   15764:	89 c1                	mov    %eax,%ecx
   15766:	8b 45 fc             	mov    -0x4(%rbp),%eax
   15769:	89 c2                	mov    %eax,%edx
   1576b:	48 8d 35 bc 21 00 00 	lea    0x21bc(%rip),%rsi        # 1792e <g_1383+0x14da>
   15772:	48 89 cf             	mov    %rcx,%rdi
   15775:	e8 79 0f ff ff       	callq  66f3 <transparent_crc>
   1577a:	8b 05 a8 5c 00 00    	mov    0x5ca8(%rip),%eax        # 1b428 <g_1639>
   15780:	48 98                	cltq   
   15782:	8b 55 fc             	mov    -0x4(%rbp),%edx
   15785:	48 8d 35 ac 21 00 00 	lea    0x21ac(%rip),%rsi        # 17938 <g_1383+0x14e4>
   1578c:	48 89 c7             	mov    %rax,%rdi
   1578f:	e8 5f 0f ff ff       	callq  66f3 <transparent_crc>
   15794:	0f b6 05 8d 5c 00 00 	movzbl 0x5c8d(%rip),%eax        # 1b428 <g_1639>
   1579b:	48 0f be c0          	movsbq %al,%rax
   1579f:	8b 55 fc             	mov    -0x4(%rbp),%edx
   157a2:	48 8d 35 99 21 00 00 	lea    0x2199(%rip),%rsi        # 17942 <g_1383+0x14ee>
   157a9:	48 89 c7             	mov    %rax,%rdi
   157ac:	e8 42 0f ff ff       	callq  66f3 <transparent_crc>
   157b1:	0f b7 05 70 5c 00 00 	movzwl 0x5c70(%rip),%eax        # 1b428 <g_1639>
   157b8:	0f b7 c0             	movzwl %ax,%eax
   157bb:	8b 55 fc             	mov    -0x4(%rbp),%edx
   157be:	48 8d 35 87 21 00 00 	lea    0x2187(%rip),%rsi        # 1794c <g_1383+0x14f8>
   157c5:	48 89 c7             	mov    %rax,%rdi
   157c8:	e8 26 0f ff ff       	callq  66f3 <transparent_crc>
   157cd:	c7 45 f0 00 00 00 00 	movl   $0x0,-0x10(%rbp)
   157d4:	eb 4d                	jmp    15823 <main+0xe8c>
   157d6:	8b 45 f0             	mov    -0x10(%rbp),%eax
   157d9:	48 98                	cltq   
   157db:	48 8d 14 85 00 00 00 	lea    0x0(,%rax,4),%rdx
   157e2:	00 
   157e3:	48 8d 05 46 5c 00 00 	lea    0x5c46(%rip),%rax        # 1b430 <g_1664>
   157ea:	8b 04 02             	mov    (%rdx,%rax,1),%eax
   157ed:	89 c1                	mov    %eax,%ecx
   157ef:	8b 45 fc             	mov    -0x4(%rbp),%eax
   157f2:	89 c2                	mov    %eax,%edx
   157f4:	48 8d 35 5b 21 00 00 	lea    0x215b(%rip),%rsi        # 17956 <g_1383+0x1502>
   157fb:	48 89 cf             	mov    %rcx,%rdi
   157fe:	e8 f0 0e ff ff       	callq  66f3 <transparent_crc>
   15803:	83 7d fc 00          	cmpl   $0x0,-0x4(%rbp)
   15807:	74 16                	je     1581f <main+0xe88>
   15809:	8b 45 f0             	mov    -0x10(%rbp),%eax
   1580c:	89 c6                	mov    %eax,%esi
   1580e:	48 8d 3d 31 1e 00 00 	lea    0x1e31(%rip),%rdi        # 17646 <g_1383+0x11f2>
   15815:	b8 00 00 00 00       	mov    $0x0,%eax
   1581a:	e8 61 f8 fe ff       	callq  5080 <printf@plt>
   1581f:	83 45 f0 01          	addl   $0x1,-0x10(%rbp)
   15823:	83 7d f0 03          	cmpl   $0x3,-0x10(%rbp)
   15827:	7e ad                	jle    157d6 <main+0xe3f>
   15829:	8b 05 11 5c 00 00    	mov    0x5c11(%rip),%eax        # 1b440 <g_1710>
   1582f:	89 c1                	mov    %eax,%ecx
   15831:	8b 45 fc             	mov    -0x4(%rbp),%eax
   15834:	89 c2                	mov    %eax,%edx
   15836:	48 8d 35 23 21 00 00 	lea    0x2123(%rip),%rsi        # 17960 <g_1383+0x150c>
   1583d:	48 89 cf             	mov    %rcx,%rdi
   15840:	e8 ae 0e ff ff       	callq  66f3 <transparent_crc>
   15845:	0f b7 05 f8 5b 00 00 	movzwl 0x5bf8(%rip),%eax        # 1b444 <g_1787>
   1584c:	0f b7 c0             	movzwl %ax,%eax
   1584f:	8b 55 fc             	mov    -0x4(%rbp),%edx
   15852:	48 8d 35 0e 21 00 00 	lea    0x210e(%rip),%rsi        # 17967 <g_1383+0x1513>
   15859:	48 89 c7             	mov    %rax,%rdi
   1585c:	e8 92 0e ff ff       	callq  66f3 <transparent_crc>
   15861:	0f b6 05 de 5b 00 00 	movzbl 0x5bde(%rip),%eax        # 1b446 <g_1932>
   15868:	0f b6 c0             	movzbl %al,%eax
   1586b:	8b 55 fc             	mov    -0x4(%rbp),%edx
   1586e:	48 8d 35 f9 20 00 00 	lea    0x20f9(%rip),%rsi        # 1796e <g_1383+0x151a>
   15875:	48 89 c7             	mov    %rax,%rdi
   15878:	e8 76 0e ff ff       	callq  66f3 <transparent_crc>
   1587d:	8b 05 c5 5b 00 00    	mov    0x5bc5(%rip),%eax        # 1b448 <g_1972>
   15883:	89 c1                	mov    %eax,%ecx
   15885:	8b 45 fc             	mov    -0x4(%rbp),%eax
   15888:	89 c2                	mov    %eax,%edx
   1588a:	48 8d 35 e4 20 00 00 	lea    0x20e4(%rip),%rsi        # 17975 <g_1383+0x1521>
   15891:	48 89 cf             	mov    %rcx,%rdi
   15894:	e8 5a 0e ff ff       	callq  66f3 <transparent_crc>
   15899:	8b 05 a9 5b 00 00    	mov    0x5ba9(%rip),%eax        # 1b448 <g_1972>
   1589f:	48 98                	cltq   
   158a1:	8b 55 fc             	mov    -0x4(%rbp),%edx
   158a4:	48 8d 35 d4 20 00 00 	lea    0x20d4(%rip),%rsi        # 1797f <g_1383+0x152b>
   158ab:	48 89 c7             	mov    %rax,%rdi
   158ae:	e8 40 0e ff ff       	callq  66f3 <transparent_crc>
   158b3:	0f b6 05 8e 5b 00 00 	movzbl 0x5b8e(%rip),%eax        # 1b448 <g_1972>
   158ba:	48 0f be c0          	movsbq %al,%rax
   158be:	8b 55 fc             	mov    -0x4(%rbp),%edx
   158c1:	48 8d 35 c1 20 00 00 	lea    0x20c1(%rip),%rsi        # 17989 <g_1383+0x1535>
   158c8:	48 89 c7             	mov    %rax,%rdi
   158cb:	e8 23 0e ff ff       	callq  66f3 <transparent_crc>
   158d0:	0f b7 05 71 5b 00 00 	movzwl 0x5b71(%rip),%eax        # 1b448 <g_1972>
   158d7:	0f b7 c0             	movzwl %ax,%eax
   158da:	8b 55 fc             	mov    -0x4(%rbp),%edx
   158dd:	48 8d 35 af 20 00 00 	lea    0x20af(%rip),%rsi        # 17993 <g_1383+0x153f>
   158e4:	48 89 c7             	mov    %rax,%rdi
   158e7:	e8 07 0e ff ff       	callq  66f3 <transparent_crc>
   158ec:	c7 45 f0 00 00 00 00 	movl   $0x0,-0x10(%rbp)
   158f3:	eb 4b                	jmp    15940 <main+0xfa9>
   158f5:	8b 45 f0             	mov    -0x10(%rbp),%eax
   158f8:	48 98                	cltq   
   158fa:	48 8d 14 85 00 00 00 	lea    0x0(,%rax,4),%rdx
   15901:	00 
   15902:	48 8d 05 47 5b 00 00 	lea    0x5b47(%rip),%rax        # 1b450 <g_2155>
   15909:	8b 04 02             	mov    (%rdx,%rax,1),%eax
   1590c:	48 98                	cltq   
   1590e:	8b 55 fc             	mov    -0x4(%rbp),%edx
   15911:	48 8d 35 85 20 00 00 	lea    0x2085(%rip),%rsi        # 1799d <g_1383+0x1549>
   15918:	48 89 c7             	mov    %rax,%rdi
   1591b:	e8 d3 0d ff ff       	callq  66f3 <transparent_crc>
   15920:	83 7d fc 00          	cmpl   $0x0,-0x4(%rbp)
   15924:	74 16                	je     1593c <main+0xfa5>
   15926:	8b 45 f0             	mov    -0x10(%rbp),%eax
   15929:	89 c6                	mov    %eax,%esi
   1592b:	48 8d 3d 14 1d 00 00 	lea    0x1d14(%rip),%rdi        # 17646 <g_1383+0x11f2>
   15932:	b8 00 00 00 00       	mov    $0x0,%eax
   15937:	e8 44 f7 fe ff       	callq  5080 <printf@plt>
   1593c:	83 45 f0 01          	addl   $0x1,-0x10(%rbp)
   15940:	83 7d f0 04          	cmpl   $0x4,-0x10(%rbp)
   15944:	7e af                	jle    158f5 <main+0xf5e>
   15946:	0f b6 05 17 5b 00 00 	movzbl 0x5b17(%rip),%eax        # 1b464 <g_2157>
   1594d:	0f b6 c0             	movzbl %al,%eax
   15950:	8b 55 fc             	mov    -0x4(%rbp),%edx
   15953:	48 8d 35 4d 20 00 00 	lea    0x204d(%rip),%rsi        # 179a7 <g_1383+0x1553>
   1595a:	48 89 c7             	mov    %rax,%rdi
   1595d:	e8 91 0d ff ff       	callq  66f3 <transparent_crc>
   15962:	8b 05 00 5b 00 00    	mov    0x5b00(%rip),%eax        # 1b468 <g_2176>
   15968:	89 c1                	mov    %eax,%ecx
   1596a:	8b 45 fc             	mov    -0x4(%rbp),%eax
   1596d:	89 c2                	mov    %eax,%edx
   1596f:	48 8d 35 38 20 00 00 	lea    0x2038(%rip),%rsi        # 179ae <g_1383+0x155a>
   15976:	48 89 cf             	mov    %rcx,%rdi
   15979:	e8 75 0d ff ff       	callq  66f3 <transparent_crc>
   1597e:	8b 05 e4 5a 00 00    	mov    0x5ae4(%rip),%eax        # 1b468 <g_2176>
   15984:	48 98                	cltq   
   15986:	8b 55 fc             	mov    -0x4(%rbp),%edx
   15989:	48 8d 35 28 20 00 00 	lea    0x2028(%rip),%rsi        # 179b8 <g_1383+0x1564>
   15990:	48 89 c7             	mov    %rax,%rdi
   15993:	e8 5b 0d ff ff       	callq  66f3 <transparent_crc>
   15998:	0f b6 05 c9 5a 00 00 	movzbl 0x5ac9(%rip),%eax        # 1b468 <g_2176>
   1599f:	48 0f be c0          	movsbq %al,%rax
   159a3:	8b 55 fc             	mov    -0x4(%rbp),%edx
   159a6:	48 8d 35 15 20 00 00 	lea    0x2015(%rip),%rsi        # 179c2 <g_1383+0x156e>
   159ad:	48 89 c7             	mov    %rax,%rdi
   159b0:	e8 3e 0d ff ff       	callq  66f3 <transparent_crc>
   159b5:	0f b7 05 ac 5a 00 00 	movzwl 0x5aac(%rip),%eax        # 1b468 <g_2176>
   159bc:	0f b7 c0             	movzwl %ax,%eax
   159bf:	8b 55 fc             	mov    -0x4(%rbp),%edx
   159c2:	48 8d 35 03 20 00 00 	lea    0x2003(%rip),%rsi        # 179cc <g_1383+0x1578>
   159c9:	48 89 c7             	mov    %rax,%rdi
   159cc:	e8 22 0d ff ff       	callq  66f3 <transparent_crc>
   159d1:	8b 05 99 5a 00 00    	mov    0x5a99(%rip),%eax        # 1b470 <g_2249>
   159d7:	89 c1                	mov    %eax,%ecx
   159d9:	8b 45 fc             	mov    -0x4(%rbp),%eax
   159dc:	89 c2                	mov    %eax,%edx
   159de:	48 8d 35 f1 1f 00 00 	lea    0x1ff1(%rip),%rsi        # 179d6 <g_1383+0x1582>
   159e5:	48 89 cf             	mov    %rcx,%rdi
   159e8:	e8 06 0d ff ff       	callq  66f3 <transparent_crc>
   159ed:	8b 05 7d 5a 00 00    	mov    0x5a7d(%rip),%eax        # 1b470 <g_2249>
   159f3:	48 98                	cltq   
   159f5:	8b 55 fc             	mov    -0x4(%rbp),%edx
   159f8:	48 8d 35 e1 1f 00 00 	lea    0x1fe1(%rip),%rsi        # 179e0 <g_1383+0x158c>
   159ff:	48 89 c7             	mov    %rax,%rdi
   15a02:	e8 ec 0c ff ff       	callq  66f3 <transparent_crc>
   15a07:	0f b6 05 62 5a 00 00 	movzbl 0x5a62(%rip),%eax        # 1b470 <g_2249>
   15a0e:	48 0f be c0          	movsbq %al,%rax
   15a12:	8b 55 fc             	mov    -0x4(%rbp),%edx
   15a15:	48 8d 35 ce 1f 00 00 	lea    0x1fce(%rip),%rsi        # 179ea <g_1383+0x1596>
   15a1c:	48 89 c7             	mov    %rax,%rdi
   15a1f:	e8 cf 0c ff ff       	callq  66f3 <transparent_crc>
   15a24:	0f b7 05 45 5a 00 00 	movzwl 0x5a45(%rip),%eax        # 1b470 <g_2249>
   15a2b:	0f b7 c0             	movzwl %ax,%eax
   15a2e:	8b 55 fc             	mov    -0x4(%rbp),%edx
   15a31:	48 8d 35 bc 1f 00 00 	lea    0x1fbc(%rip),%rsi        # 179f4 <g_1383+0x15a0>
   15a38:	48 89 c7             	mov    %rax,%rdi
   15a3b:	e8 b3 0c ff ff       	callq  66f3 <transparent_crc>
   15a40:	0f b7 05 31 5a 00 00 	movzwl 0x5a31(%rip),%eax        # 1b478 <g_2286>
   15a47:	0f b7 c0             	movzwl %ax,%eax
   15a4a:	8b 55 fc             	mov    -0x4(%rbp),%edx
   15a4d:	48 8d 35 aa 1f 00 00 	lea    0x1faa(%rip),%rsi        # 179fe <g_1383+0x15aa>
   15a54:	48 89 c7             	mov    %rax,%rdi
   15a57:	e8 97 0c ff ff       	callq  66f3 <transparent_crc>
   15a5c:	c7 45 f0 00 00 00 00 	movl   $0x0,-0x10(%rbp)
   15a63:	e9 d3 00 00 00       	jmpq   15b3b <main+0x11a4>
   15a68:	8b 45 f0             	mov    -0x10(%rbp),%eax
   15a6b:	48 98                	cltq   
   15a6d:	48 8d 14 c5 00 00 00 	lea    0x0(,%rax,8),%rdx
   15a74:	00 
   15a75:	48 8d 05 04 5a 00 00 	lea    0x5a04(%rip),%rax        # 1b480 <g_2295>
   15a7c:	8b 04 02             	mov    (%rdx,%rax,1),%eax
   15a7f:	89 c1                	mov    %eax,%ecx
   15a81:	8b 45 fc             	mov    -0x4(%rbp),%eax
   15a84:	89 c2                	mov    %eax,%edx
   15a86:	48 8d 35 78 1f 00 00 	lea    0x1f78(%rip),%rsi        # 17a05 <g_1383+0x15b1>
   15a8d:	48 89 cf             	mov    %rcx,%rdi
   15a90:	e8 5e 0c ff ff       	callq  66f3 <transparent_crc>
   15a95:	8b 45 f0             	mov    -0x10(%rbp),%eax
   15a98:	48 98                	cltq   
   15a9a:	48 8d 14 c5 00 00 00 	lea    0x0(,%rax,8),%rdx
   15aa1:	00 
   15aa2:	48 8d 05 d7 59 00 00 	lea    0x59d7(%rip),%rax        # 1b480 <g_2295>
   15aa9:	8b 04 02             	mov    (%rdx,%rax,1),%eax
   15aac:	48 98                	cltq   
   15aae:	8b 55 fc             	mov    -0x4(%rbp),%edx
   15ab1:	48 8d 35 5a 1f 00 00 	lea    0x1f5a(%rip),%rsi        # 17a12 <g_1383+0x15be>
   15ab8:	48 89 c7             	mov    %rax,%rdi
   15abb:	e8 33 0c ff ff       	callq  66f3 <transparent_crc>
   15ac0:	8b 45 f0             	mov    -0x10(%rbp),%eax
   15ac3:	48 98                	cltq   
   15ac5:	48 8d 14 c5 00 00 00 	lea    0x0(,%rax,8),%rdx
   15acc:	00 
   15acd:	48 8d 05 ac 59 00 00 	lea    0x59ac(%rip),%rax        # 1b480 <g_2295>
   15ad4:	0f b6 04 02          	movzbl (%rdx,%rax,1),%eax
   15ad8:	48 0f be c0          	movsbq %al,%rax
   15adc:	8b 55 fc             	mov    -0x4(%rbp),%edx
   15adf:	48 8d 35 39 1f 00 00 	lea    0x1f39(%rip),%rsi        # 17a1f <g_1383+0x15cb>
   15ae6:	48 89 c7             	mov    %rax,%rdi
   15ae9:	e8 05 0c ff ff       	callq  66f3 <transparent_crc>
   15aee:	8b 45 f0             	mov    -0x10(%rbp),%eax
   15af1:	48 98                	cltq   
   15af3:	48 8d 14 c5 00 00 00 	lea    0x0(,%rax,8),%rdx
   15afa:	00 
   15afb:	48 8d 05 7e 59 00 00 	lea    0x597e(%rip),%rax        # 1b480 <g_2295>
   15b02:	0f b7 04 02          	movzwl (%rdx,%rax,1),%eax
   15b06:	0f b7 c0             	movzwl %ax,%eax
   15b09:	8b 55 fc             	mov    -0x4(%rbp),%edx
   15b0c:	48 8d 35 19 1f 00 00 	lea    0x1f19(%rip),%rsi        # 17a2c <g_1383+0x15d8>
   15b13:	48 89 c7             	mov    %rax,%rdi
   15b16:	e8 d8 0b ff ff       	callq  66f3 <transparent_crc>
   15b1b:	83 7d fc 00          	cmpl   $0x0,-0x4(%rbp)
   15b1f:	74 16                	je     15b37 <main+0x11a0>
   15b21:	8b 45 f0             	mov    -0x10(%rbp),%eax
   15b24:	89 c6                	mov    %eax,%esi
   15b26:	48 8d 3d 19 1b 00 00 	lea    0x1b19(%rip),%rdi        # 17646 <g_1383+0x11f2>
   15b2d:	b8 00 00 00 00       	mov    $0x0,%eax
   15b32:	e8 49 f5 fe ff       	callq  5080 <printf@plt>
   15b37:	83 45 f0 01          	addl   $0x1,-0x10(%rbp)
   15b3b:	83 7d f0 02          	cmpl   $0x2,-0x10(%rbp)
   15b3f:	0f 8e 23 ff ff ff    	jle    15a68 <main+0x10d1>
   15b45:	0f b6 05 4c 59 00 00 	movzbl 0x594c(%rip),%eax        # 1b498 <g_2519>
   15b4c:	48 0f be c0          	movsbq %al,%rax
   15b50:	8b 55 fc             	mov    -0x4(%rbp),%edx
   15b53:	48 8d 35 df 1e 00 00 	lea    0x1edf(%rip),%rsi        # 17a39 <g_1383+0x15e5>
   15b5a:	48 89 c7             	mov    %rax,%rdi
   15b5d:	e8 91 0b ff ff       	callq  66f3 <transparent_crc>
   15b62:	8b 05 34 59 00 00    	mov    0x5934(%rip),%eax        # 1b49c <g_2577>
   15b68:	89 c1                	mov    %eax,%ecx
   15b6a:	8b 45 fc             	mov    -0x4(%rbp),%eax
   15b6d:	89 c2                	mov    %eax,%edx
   15b6f:	48 8d 35 ca 1e 00 00 	lea    0x1eca(%rip),%rsi        # 17a40 <g_1383+0x15ec>
   15b76:	48 89 cf             	mov    %rcx,%rdi
   15b79:	e8 75 0b ff ff       	callq  66f3 <transparent_crc>
   15b7e:	0f b6 05 1b 59 00 00 	movzbl 0x591b(%rip),%eax        # 1b4a0 <g_2767>
   15b85:	0f b6 c0             	movzbl %al,%eax
   15b88:	8b 55 fc             	mov    -0x4(%rbp),%edx
   15b8b:	48 8d 35 b5 1e 00 00 	lea    0x1eb5(%rip),%rsi        # 17a47 <g_1383+0x15f3>
   15b92:	48 89 c7             	mov    %rax,%rdi
   15b95:	e8 59 0b ff ff       	callq  66f3 <transparent_crc>
   15b9a:	c7 45 f0 00 00 00 00 	movl   $0x0,-0x10(%rbp)
   15ba1:	e9 b9 01 00 00       	jmpq   15d5f <main+0x13c8>
   15ba6:	c7 45 f4 00 00 00 00 	movl   $0x0,-0xc(%rbp)
   15bad:	e9 9f 01 00 00       	jmpq   15d51 <main+0x13ba>
   15bb2:	c7 45 f8 00 00 00 00 	movl   $0x0,-0x8(%rbp)
   15bb9:	e9 85 01 00 00       	jmpq   15d43 <main+0x13ac>
   15bbe:	8b 45 f8             	mov    -0x8(%rbp),%eax
   15bc1:	48 63 f0             	movslq %eax,%rsi
   15bc4:	8b 45 f0             	mov    -0x10(%rbp),%eax
   15bc7:	48 63 d0             	movslq %eax,%rdx
   15bca:	8b 45 f4             	mov    -0xc(%rbp),%eax
   15bcd:	48 63 c8             	movslq %eax,%rcx
   15bd0:	48 89 d0             	mov    %rdx,%rax
   15bd3:	48 c1 e0 02          	shl    $0x2,%rax
   15bd7:	48 01 d0             	add    %rdx,%rax
   15bda:	48 c1 e0 03          	shl    $0x3,%rax
   15bde:	48 89 ca             	mov    %rcx,%rdx
   15be1:	48 c1 e2 02          	shl    $0x2,%rdx
   15be5:	48 01 ca             	add    %rcx,%rdx
   15be8:	48 01 d0             	add    %rdx,%rax
   15beb:	48 01 f0             	add    %rsi,%rax
   15bee:	48 8d 14 c5 00 00 00 	lea    0x0(,%rax,8),%rdx
   15bf5:	00 
   15bf6:	48 8d 05 c3 58 00 00 	lea    0x58c3(%rip),%rax        # 1b4c0 <g_2847>
   15bfd:	8b 04 02             	mov    (%rdx,%rax,1),%eax
   15c00:	89 c1                	mov    %eax,%ecx
   15c02:	8b 45 fc             	mov    -0x4(%rbp),%eax
   15c05:	89 c2                	mov    %eax,%edx
   15c07:	48 8d 35 40 1e 00 00 	lea    0x1e40(%rip),%rsi        # 17a4e <g_1383+0x15fa>
   15c0e:	48 89 cf             	mov    %rcx,%rdi
   15c11:	e8 dd 0a ff ff       	callq  66f3 <transparent_crc>
   15c16:	8b 45 f8             	mov    -0x8(%rbp),%eax
   15c19:	48 63 f0             	movslq %eax,%rsi
   15c1c:	8b 45 f0             	mov    -0x10(%rbp),%eax
   15c1f:	48 63 d0             	movslq %eax,%rdx
   15c22:	8b 45 f4             	mov    -0xc(%rbp),%eax
   15c25:	48 63 c8             	movslq %eax,%rcx
   15c28:	48 89 d0             	mov    %rdx,%rax
   15c2b:	48 c1 e0 02          	shl    $0x2,%rax
   15c2f:	48 01 d0             	add    %rdx,%rax
   15c32:	48 c1 e0 03          	shl    $0x3,%rax
   15c36:	48 89 ca             	mov    %rcx,%rdx
   15c39:	48 c1 e2 02          	shl    $0x2,%rdx
   15c3d:	48 01 ca             	add    %rcx,%rdx
   15c40:	48 01 d0             	add    %rdx,%rax
   15c43:	48 01 f0             	add    %rsi,%rax
   15c46:	48 8d 14 c5 00 00 00 	lea    0x0(,%rax,8),%rdx
   15c4d:	00 
   15c4e:	48 8d 05 6b 58 00 00 	lea    0x586b(%rip),%rax        # 1b4c0 <g_2847>
   15c55:	8b 04 02             	mov    (%rdx,%rax,1),%eax
   15c58:	48 98                	cltq   
   15c5a:	8b 55 fc             	mov    -0x4(%rbp),%edx
   15c5d:	48 8d 35 fd 1d 00 00 	lea    0x1dfd(%rip),%rsi        # 17a61 <g_1383+0x160d>
   15c64:	48 89 c7             	mov    %rax,%rdi
   15c67:	e8 87 0a ff ff       	callq  66f3 <transparent_crc>
   15c6c:	8b 45 f8             	mov    -0x8(%rbp),%eax
   15c6f:	48 63 f0             	movslq %eax,%rsi
   15c72:	8b 45 f0             	mov    -0x10(%rbp),%eax
   15c75:	48 63 d0             	movslq %eax,%rdx
   15c78:	8b 45 f4             	mov    -0xc(%rbp),%eax
   15c7b:	48 63 c8             	movslq %eax,%rcx
   15c7e:	48 89 d0             	mov    %rdx,%rax
   15c81:	48 c1 e0 02          	shl    $0x2,%rax
   15c85:	48 01 d0             	add    %rdx,%rax
   15c88:	48 c1 e0 03          	shl    $0x3,%rax
   15c8c:	48 89 ca             	mov    %rcx,%rdx
   15c8f:	48 c1 e2 02          	shl    $0x2,%rdx
   15c93:	48 01 ca             	add    %rcx,%rdx
   15c96:	48 01 d0             	add    %rdx,%rax
   15c99:	48 01 f0             	add    %rsi,%rax
   15c9c:	48 8d 14 c5 00 00 00 	lea    0x0(,%rax,8),%rdx
   15ca3:	00 
   15ca4:	48 8d 05 15 58 00 00 	lea    0x5815(%rip),%rax        # 1b4c0 <g_2847>
   15cab:	0f b6 04 02          	movzbl (%rdx,%rax,1),%eax
   15caf:	48 0f be c0          	movsbq %al,%rax
   15cb3:	8b 55 fc             	mov    -0x4(%rbp),%edx
   15cb6:	48 8d 35 b7 1d 00 00 	lea    0x1db7(%rip),%rsi        # 17a74 <g_1383+0x1620>
   15cbd:	48 89 c7             	mov    %rax,%rdi
   15cc0:	e8 2e 0a ff ff       	callq  66f3 <transparent_crc>
   15cc5:	8b 45 f8             	mov    -0x8(%rbp),%eax
   15cc8:	48 63 f0             	movslq %eax,%rsi
   15ccb:	8b 45 f0             	mov    -0x10(%rbp),%eax
   15cce:	48 63 d0             	movslq %eax,%rdx
   15cd1:	8b 45 f4             	mov    -0xc(%rbp),%eax
   15cd4:	48 63 c8             	movslq %eax,%rcx
   15cd7:	48 89 d0             	mov    %rdx,%rax
   15cda:	48 c1 e0 02          	shl    $0x2,%rax
   15cde:	48 01 d0             	add    %rdx,%rax
   15ce1:	48 c1 e0 03          	shl    $0x3,%rax
   15ce5:	48 89 ca             	mov    %rcx,%rdx
   15ce8:	48 c1 e2 02          	shl    $0x2,%rdx
   15cec:	48 01 ca             	add    %rcx,%rdx
   15cef:	48 01 d0             	add    %rdx,%rax
   15cf2:	48 01 f0             	add    %rsi,%rax
   15cf5:	48 8d 14 c5 00 00 00 	lea    0x0(,%rax,8),%rdx
   15cfc:	00 
   15cfd:	48 8d 05 bc 57 00 00 	lea    0x57bc(%rip),%rax        # 1b4c0 <g_2847>
   15d04:	0f b7 04 02          	movzwl (%rdx,%rax,1),%eax
   15d08:	0f b7 c0             	movzwl %ax,%eax
   15d0b:	8b 55 fc             	mov    -0x4(%rbp),%edx
   15d0e:	48 8d 35 72 1d 00 00 	lea    0x1d72(%rip),%rsi        # 17a87 <g_1383+0x1633>
   15d15:	48 89 c7             	mov    %rax,%rdi
   15d18:	e8 d6 09 ff ff       	callq  66f3 <transparent_crc>
   15d1d:	83 7d fc 00          	cmpl   $0x0,-0x4(%rbp)
   15d21:	74 1c                	je     15d3f <main+0x13a8>
   15d23:	8b 4d f8             	mov    -0x8(%rbp),%ecx
   15d26:	8b 55 f4             	mov    -0xc(%rbp),%edx
   15d29:	8b 45 f0             	mov    -0x10(%rbp),%eax
   15d2c:	89 c6                	mov    %eax,%esi
   15d2e:	48 8d 3d 32 19 00 00 	lea    0x1932(%rip),%rdi        # 17667 <g_1383+0x1213>
   15d35:	b8 00 00 00 00       	mov    $0x0,%eax
   15d3a:	e8 41 f3 fe ff       	callq  5080 <printf@plt>
   15d3f:	83 45 f8 01          	addl   $0x1,-0x8(%rbp)
   15d43:	83 7d f8 04          	cmpl   $0x4,-0x8(%rbp)
   15d47:	0f 8e 71 fe ff ff    	jle    15bbe <main+0x1227>
   15d4d:	83 45 f4 01          	addl   $0x1,-0xc(%rbp)
   15d51:	83 7d f4 07          	cmpl   $0x7,-0xc(%rbp)
   15d55:	0f 8e 57 fe ff ff    	jle    15bb2 <main+0x121b>
   15d5b:	83 45 f0 01          	addl   $0x1,-0x10(%rbp)
   15d5f:	83 7d f0 01          	cmpl   $0x1,-0x10(%rbp)
   15d63:	0f 8e 3d fe ff ff    	jle    15ba6 <main+0x120f>
   15d69:	0f b7 05 d0 59 00 00 	movzwl 0x59d0(%rip),%eax        # 1b740 <g_2911>
   15d70:	0f b7 c0             	movzwl %ax,%eax
   15d73:	8b 55 fc             	mov    -0x4(%rbp),%edx
   15d76:	48 8d 35 1d 1d 00 00 	lea    0x1d1d(%rip),%rsi        # 17a9a <g_1383+0x1646>
   15d7d:	48 89 c7             	mov    %rax,%rdi
   15d80:	e8 6e 09 ff ff       	callq  66f3 <transparent_crc>
   15d85:	8b 05 b9 59 00 00    	mov    0x59b9(%rip),%eax        # 1b744 <g_2981>
   15d8b:	48 98                	cltq   
   15d8d:	8b 55 fc             	mov    -0x4(%rbp),%edx
   15d90:	48 8d 35 0a 1d 00 00 	lea    0x1d0a(%rip),%rsi        # 17aa1 <g_1383+0x164d>
   15d97:	48 89 c7             	mov    %rax,%rdi
   15d9a:	e8 54 09 ff ff       	callq  66f3 <transparent_crc>
   15d9f:	8b 05 a3 59 00 00    	mov    0x59a3(%rip),%eax        # 1b748 <g_3052>
   15da5:	89 c1                	mov    %eax,%ecx
   15da7:	8b 45 fc             	mov    -0x4(%rbp),%eax
   15daa:	89 c2                	mov    %eax,%edx
   15dac:	48 8d 35 f5 1c 00 00 	lea    0x1cf5(%rip),%rsi        # 17aa8 <g_1383+0x1654>
   15db3:	48 89 cf             	mov    %rcx,%rdi
   15db6:	e8 38 09 ff ff       	callq  66f3 <transparent_crc>
   15dbb:	8b 05 87 59 00 00    	mov    0x5987(%rip),%eax        # 1b748 <g_3052>
   15dc1:	48 98                	cltq   
   15dc3:	8b 55 fc             	mov    -0x4(%rbp),%edx
   15dc6:	48 8d 35 e5 1c 00 00 	lea    0x1ce5(%rip),%rsi        # 17ab2 <g_1383+0x165e>
   15dcd:	48 89 c7             	mov    %rax,%rdi
   15dd0:	e8 1e 09 ff ff       	callq  66f3 <transparent_crc>
   15dd5:	0f b6 05 6c 59 00 00 	movzbl 0x596c(%rip),%eax        # 1b748 <g_3052>
   15ddc:	48 0f be c0          	movsbq %al,%rax
   15de0:	8b 55 fc             	mov    -0x4(%rbp),%edx
   15de3:	48 8d 35 d2 1c 00 00 	lea    0x1cd2(%rip),%rsi        # 17abc <g_1383+0x1668>
   15dea:	48 89 c7             	mov    %rax,%rdi
   15ded:	e8 01 09 ff ff       	callq  66f3 <transparent_crc>
   15df2:	0f b7 05 4f 59 00 00 	movzwl 0x594f(%rip),%eax        # 1b748 <g_3052>
   15df9:	0f b7 c0             	movzwl %ax,%eax
   15dfc:	8b 55 fc             	mov    -0x4(%rbp),%edx
   15dff:	48 8d 35 c0 1c 00 00 	lea    0x1cc0(%rip),%rsi        # 17ac6 <g_1383+0x1672>
   15e06:	48 89 c7             	mov    %rax,%rdi
   15e09:	e8 e5 08 ff ff       	callq  66f3 <transparent_crc>
   15e0e:	8b 05 0c 52 00 00    	mov    0x520c(%rip),%eax        # 1b020 <crc32_context>
   15e14:	f7 d0                	not    %eax
   15e16:	89 c2                	mov    %eax,%edx
   15e18:	8b 45 fc             	mov    -0x4(%rbp),%eax
   15e1b:	89 c6                	mov    %eax,%esi
   15e1d:	89 d7                	mov    %edx,%edi
   15e1f:	e8 70 f3 fe ff       	callq  5194 <platform_main_end>
   15e24:	b8 00 00 00 00       	mov    $0x0,%eax
   15e29:	c9                   	leaveq 
   15e2a:	c3                   	retq   
   15e2b:	0f 1f 44 00 00       	nopl   0x0(%rax,%rax,1)

0000000000015e30 <__libc_csu_init>:
   15e30:	f3 0f 1e fa          	endbr64 
   15e34:	41 57                	push   %r15
   15e36:	4c 8d 3d 53 4f 00 00 	lea    0x4f53(%rip),%r15        # 1ad90 <__frame_dummy_init_array_entry>
   15e3d:	41 56                	push   %r14
   15e3f:	49 89 d6             	mov    %rdx,%r14
   15e42:	41 55                	push   %r13
   15e44:	49 89 f5             	mov    %rsi,%r13
   15e47:	41 54                	push   %r12
   15e49:	41 89 fc             	mov    %edi,%r12d
   15e4c:	55                   	push   %rbp
   15e4d:	48 8d 2d 44 4f 00 00 	lea    0x4f44(%rip),%rbp        # 1ad98 <__do_global_dtors_aux_fini_array_entry>
   15e54:	53                   	push   %rbx
   15e55:	4c 29 fd             	sub    %r15,%rbp
   15e58:	48 83 ec 08          	sub    $0x8,%rsp
   15e5c:	e8 9f f1 fe ff       	callq  5000 <_init>
   15e61:	48 c1 fd 03          	sar    $0x3,%rbp
   15e65:	74 1f                	je     15e86 <__libc_csu_init+0x56>
   15e67:	31 db                	xor    %ebx,%ebx
   15e69:	0f 1f 80 00 00 00 00 	nopl   0x0(%rax)
   15e70:	4c 89 f2             	mov    %r14,%rdx
   15e73:	4c 89 ee             	mov    %r13,%rsi
   15e76:	44 89 e7             	mov    %r12d,%edi
   15e79:	41 ff 14 df          	callq  *(%r15,%rbx,8)
   15e7d:	48 83 c3 01          	add    $0x1,%rbx
   15e81:	48 39 dd             	cmp    %rbx,%rbp
   15e84:	75 ea                	jne    15e70 <__libc_csu_init+0x40>
   15e86:	48 83 c4 08          	add    $0x8,%rsp
   15e8a:	5b                   	pop    %rbx
   15e8b:	5d                   	pop    %rbp
   15e8c:	41 5c                	pop    %r12
   15e8e:	41 5d                	pop    %r13
   15e90:	41 5e                	pop    %r14
   15e92:	41 5f                	pop    %r15
   15e94:	c3                   	retq   
   15e95:	66 66 2e 0f 1f 84 00 	data16 nopw %cs:0x0(%rax,%rax,1)
   15e9c:	00 00 00 00 

0000000000015ea0 <__libc_csu_fini>:
   15ea0:	f3 0f 1e fa          	endbr64 
   15ea4:	c3                   	retq   
