


Disassembly of section .text:

00000000000040a0 <_start>:
    40a0:	f3 0f 1e fa          	endbr64 
    40a4:	31 ed                	xor    %ebp,%ebp
    40a6:	49 89 d1             	mov    %rdx,%r9
    40a9:	5e                   	pop    %rsi
    40aa:	48 89 e2             	mov    %rsp,%rdx
    40ad:	48 83 e4 f0          	and    $0xfffffffffffffff0,%rsp
    40b1:	50                   	push   %rax
    40b2:	54                   	push   %rsp
    40b3:	4c 8d 05 e6 f5 00 00 	lea    0xf5e6(%rip),%r8        # 136a0 <__libc_csu_fini>
    40ba:	48 8d 0d 6f f5 00 00 	lea    0xf56f(%rip),%rcx        # 13630 <__libc_csu_init>
    40c1:	48 8d 3d 5b ed 00 00 	lea    0xed5b(%rip),%rdi        # 12e23 <main>
    40c8:	ff 15 0a 3f 01 00    	callq  *0x13f0a(%rip)        # 17fd8 <__libc_start_main@GLIBC_2.2.5>
    40ce:	f4                   	hlt    
    40cf:	90                   	nop

00000000000040d0 <deregister_tm_clones>:
    40d0:	48 8d 3d 11 57 01 00 	lea    0x15711(%rip),%rdi        # 197e8 <__TMC_END__>
    40d7:	48 8d 05 0a 57 01 00 	lea    0x1570a(%rip),%rax        # 197e8 <__TMC_END__>
    40de:	48 39 f8             	cmp    %rdi,%rax
    40e1:	74 15                	je     40f8 <deregister_tm_clones+0x28>
    40e3:	48 8b 05 e6 3e 01 00 	mov    0x13ee6(%rip),%rax        # 17fd0 <_ITM_deregisterTMCloneTable>
    40ea:	48 85 c0             	test   %rax,%rax
    40ed:	74 09                	je     40f8 <deregister_tm_clones+0x28>
    40ef:	ff e0                	jmpq   *%rax
    40f1:	0f 1f 80 00 00 00 00 	nopl   0x0(%rax)
    40f8:	c3                   	retq   
    40f9:	0f 1f 80 00 00 00 00 	nopl   0x0(%rax)

0000000000004100 <register_tm_clones>:
    4100:	48 8d 3d e1 56 01 00 	lea    0x156e1(%rip),%rdi        # 197e8 <__TMC_END__>
    4107:	48 8d 35 da 56 01 00 	lea    0x156da(%rip),%rsi        # 197e8 <__TMC_END__>
    410e:	48 29 fe             	sub    %rdi,%rsi
    4111:	48 89 f0             	mov    %rsi,%rax
    4114:	48 c1 ee 3f          	shr    $0x3f,%rsi
    4118:	48 c1 f8 03          	sar    $0x3,%rax
    411c:	48 01 c6             	add    %rax,%rsi
    411f:	48 d1 fe             	sar    %rsi
    4122:	74 14                	je     4138 <register_tm_clones+0x38>
    4124:	48 8b 05 bd 3e 01 00 	mov    0x13ebd(%rip),%rax        # 17fe8 <_ITM_registerTMCloneTable>
    412b:	48 85 c0             	test   %rax,%rax
    412e:	74 08                	je     4138 <register_tm_clones+0x38>
    4130:	ff e0                	jmpq   *%rax
    4132:	66 0f 1f 44 00 00    	nopw   0x0(%rax,%rax,1)
    4138:	c3                   	retq   
    4139:	0f 1f 80 00 00 00 00 	nopl   0x0(%rax)

0000000000004140 <__do_global_dtors_aux>:
    4140:	f3 0f 1e fa          	endbr64 
    4144:	80 3d b5 56 01 00 00 	cmpb   $0x0,0x156b5(%rip)        # 19800 <completed.8061>
    414b:	75 2b                	jne    4178 <__do_global_dtors_aux+0x38>
    414d:	55                   	push   %rbp
    414e:	48 83 3d 9a 3e 01 00 	cmpq   $0x0,0x13e9a(%rip)        # 17ff0 <__cxa_finalize@GLIBC_2.2.5>
    4155:	00 
    4156:	48 89 e5             	mov    %rsp,%rbp
    4159:	74 0c                	je     4167 <__do_global_dtors_aux+0x27>
    415b:	48 8b 3d a6 3e 01 00 	mov    0x13ea6(%rip),%rdi        # 18008 <__dso_handle>
    4162:	e8 f9 fe ff ff       	callq  4060 <__cxa_finalize@plt>
    4167:	e8 64 ff ff ff       	callq  40d0 <deregister_tm_clones>
    416c:	c6 05 8d 56 01 00 01 	movb   $0x1,0x1568d(%rip)        # 19800 <completed.8061>
    4173:	5d                   	pop    %rbp
    4174:	c3                   	retq   
    4175:	0f 1f 00             	nopl   (%rax)
    4178:	c3                   	retq   
    4179:	0f 1f 80 00 00 00 00 	nopl   0x0(%rax)

0000000000004180 <frame_dummy>:
    4180:	f3 0f 1e fa          	endbr64 
    4184:	e9 77 ff ff ff       	jmpq   4100 <register_tm_clones>

0000000000004189 <platform_main_begin>:
    4189:	f3 0f 1e fa          	endbr64 
    418d:	55                   	push   %rbp
    418e:	48 89 e5             	mov    %rsp,%rbp
    4191:	90                   	nop
    4192:	5d                   	pop    %rbp
    4193:	c3                   	retq   

0000000000004194 <platform_main_end>:
    4194:	f3 0f 1e fa          	endbr64 
    4198:	55                   	push   %rbp
    4199:	48 89 e5             	mov    %rsp,%rbp
    419c:	48 83 ec 10          	sub    $0x10,%rsp
    41a0:	89 7d fc             	mov    %edi,-0x4(%rbp)
    41a3:	89 75 f8             	mov    %esi,-0x8(%rbp)
    41a6:	8b 45 fc             	mov    -0x4(%rbp),%eax
    41a9:	89 c6                	mov    %eax,%esi
    41ab:	48 8d 3d 6e fe 00 00 	lea    0xfe6e(%rip),%rdi        # 14020 <_IO_stdin_used+0x20>
    41b2:	b8 00 00 00 00       	mov    $0x0,%eax
    41b7:	e8 c4 fe ff ff       	callq  4080 <printf@plt>
    41bc:	90                   	nop
    41bd:	c9                   	leaveq 
    41be:	c3                   	retq   

00000000000041bf <safe_unary_minus_func_int8_t_s>:
    41bf:	f3 0f 1e fa          	endbr64 
    41c3:	55                   	push   %rbp
    41c4:	48 89 e5             	mov    %rsp,%rbp
    41c7:	89 f8                	mov    %edi,%eax
    41c9:	88 45 fc             	mov    %al,-0x4(%rbp)
    41cc:	0f b6 45 fc          	movzbl -0x4(%rbp),%eax
    41d0:	f7 d8                	neg    %eax
    41d2:	5d                   	pop    %rbp
    41d3:	c3                   	retq   

00000000000041d4 <safe_add_func_int8_t_s_s>:
    41d4:	f3 0f 1e fa          	endbr64 
    41d8:	55                   	push   %rbp
    41d9:	48 89 e5             	mov    %rsp,%rbp
    41dc:	89 fa                	mov    %edi,%edx
    41de:	89 f0                	mov    %esi,%eax
    41e0:	88 55 fc             	mov    %dl,-0x4(%rbp)
    41e3:	88 45 f8             	mov    %al,-0x8(%rbp)
    41e6:	0f b6 55 fc          	movzbl -0x4(%rbp),%edx
    41ea:	0f b6 45 f8          	movzbl -0x8(%rbp),%eax
    41ee:	01 d0                	add    %edx,%eax
    41f0:	5d                   	pop    %rbp
    41f1:	c3                   	retq   

00000000000041f2 <safe_sub_func_int8_t_s_s>:
    41f2:	f3 0f 1e fa          	endbr64 
    41f6:	55                   	push   %rbp
    41f7:	48 89 e5             	mov    %rsp,%rbp
    41fa:	89 fa                	mov    %edi,%edx
    41fc:	89 f0                	mov    %esi,%eax
    41fe:	88 55 fc             	mov    %dl,-0x4(%rbp)
    4201:	88 45 f8             	mov    %al,-0x8(%rbp)
    4204:	0f b6 55 fc          	movzbl -0x4(%rbp),%edx
    4208:	0f b6 45 f8          	movzbl -0x8(%rbp),%eax
    420c:	29 c2                	sub    %eax,%edx
    420e:	89 d0                	mov    %edx,%eax
    4210:	5d                   	pop    %rbp
    4211:	c3                   	retq   

0000000000004212 <safe_mul_func_int8_t_s_s>:
    4212:	f3 0f 1e fa          	endbr64 
    4216:	55                   	push   %rbp
    4217:	48 89 e5             	mov    %rsp,%rbp
    421a:	89 fa                	mov    %edi,%edx
    421c:	89 f0                	mov    %esi,%eax
    421e:	88 55 fc             	mov    %dl,-0x4(%rbp)
    4221:	88 45 f8             	mov    %al,-0x8(%rbp)
    4224:	0f b6 45 fc          	movzbl -0x4(%rbp),%eax
    4228:	0f b6 55 f8          	movzbl -0x8(%rbp),%edx
    422c:	0f af c2             	imul   %edx,%eax
    422f:	5d                   	pop    %rbp
    4230:	c3                   	retq   

0000000000004231 <safe_mod_func_int8_t_s_s>:
    4231:	f3 0f 1e fa          	endbr64 
    4235:	55                   	push   %rbp
    4236:	48 89 e5             	mov    %rsp,%rbp
    4239:	89 fa                	mov    %edi,%edx
    423b:	89 f0                	mov    %esi,%eax
    423d:	88 55 fc             	mov    %dl,-0x4(%rbp)
    4240:	88 45 f8             	mov    %al,-0x8(%rbp)
    4243:	80 7d f8 00          	cmpb   $0x0,-0x8(%rbp)
    4247:	74 1b                	je     4264 <safe_mod_func_int8_t_s_s+0x33>
    4249:	80 7d fc 80          	cmpb   $0x80,-0x4(%rbp)
    424d:	75 06                	jne    4255 <safe_mod_func_int8_t_s_s+0x24>
    424f:	80 7d f8 ff          	cmpb   $0xff,-0x8(%rbp)
    4253:	74 0f                	je     4264 <safe_mod_func_int8_t_s_s+0x33>
    4255:	0f be 45 fc          	movsbl -0x4(%rbp),%eax
    4259:	0f be 4d f8          	movsbl -0x8(%rbp),%ecx
    425d:	99                   	cltd   
    425e:	f7 f9                	idiv   %ecx
    4260:	89 d0                	mov    %edx,%eax
    4262:	eb 04                	jmp    4268 <safe_mod_func_int8_t_s_s+0x37>
    4264:	0f b6 45 fc          	movzbl -0x4(%rbp),%eax
    4268:	5d                   	pop    %rbp
    4269:	c3                   	retq   

000000000000426a <safe_div_func_int8_t_s_s>:
    426a:	f3 0f 1e fa          	endbr64 
    426e:	55                   	push   %rbp
    426f:	48 89 e5             	mov    %rsp,%rbp
    4272:	89 fa                	mov    %edi,%edx
    4274:	89 f0                	mov    %esi,%eax
    4276:	88 55 fc             	mov    %dl,-0x4(%rbp)
    4279:	88 45 f8             	mov    %al,-0x8(%rbp)
    427c:	80 7d f8 00          	cmpb   $0x0,-0x8(%rbp)
    4280:	74 19                	je     429b <safe_div_func_int8_t_s_s+0x31>
    4282:	80 7d fc 80          	cmpb   $0x80,-0x4(%rbp)
    4286:	75 06                	jne    428e <safe_div_func_int8_t_s_s+0x24>
    4288:	80 7d f8 ff          	cmpb   $0xff,-0x8(%rbp)
    428c:	74 0d                	je     429b <safe_div_func_int8_t_s_s+0x31>
    428e:	0f be 45 fc          	movsbl -0x4(%rbp),%eax
    4292:	0f be 4d f8          	movsbl -0x8(%rbp),%ecx
    4296:	99                   	cltd   
    4297:	f7 f9                	idiv   %ecx
    4299:	eb 04                	jmp    429f <safe_div_func_int8_t_s_s+0x35>
    429b:	0f b6 45 fc          	movzbl -0x4(%rbp),%eax
    429f:	5d                   	pop    %rbp
    42a0:	c3                   	retq   

00000000000042a1 <safe_lshift_func_int8_t_s_s>:
    42a1:	f3 0f 1e fa          	endbr64 
    42a5:	55                   	push   %rbp
    42a6:	48 89 e5             	mov    %rsp,%rbp
    42a9:	89 f8                	mov    %edi,%eax
    42ab:	89 75 f8             	mov    %esi,-0x8(%rbp)
    42ae:	88 45 fc             	mov    %al,-0x4(%rbp)
    42b1:	80 7d fc 00          	cmpb   $0x0,-0x4(%rbp)
    42b5:	78 31                	js     42e8 <safe_lshift_func_int8_t_s_s+0x47>
    42b7:	83 7d f8 00          	cmpl   $0x0,-0x8(%rbp)
    42bb:	78 2b                	js     42e8 <safe_lshift_func_int8_t_s_s+0x47>
    42bd:	83 7d f8 1f          	cmpl   $0x1f,-0x8(%rbp)
    42c1:	7f 25                	jg     42e8 <safe_lshift_func_int8_t_s_s+0x47>
    42c3:	0f be 55 fc          	movsbl -0x4(%rbp),%edx
    42c7:	8b 45 f8             	mov    -0x8(%rbp),%eax
    42ca:	be 7f 00 00 00       	mov    $0x7f,%esi
    42cf:	89 c1                	mov    %eax,%ecx
    42d1:	d3 fe                	sar    %cl,%esi
    42d3:	89 f0                	mov    %esi,%eax
    42d5:	39 c2                	cmp    %eax,%edx
    42d7:	7f 0f                	jg     42e8 <safe_lshift_func_int8_t_s_s+0x47>
    42d9:	0f be 55 fc          	movsbl -0x4(%rbp),%edx
    42dd:	8b 45 f8             	mov    -0x8(%rbp),%eax
    42e0:	89 c1                	mov    %eax,%ecx
    42e2:	d3 e2                	shl    %cl,%edx
    42e4:	89 d0                	mov    %edx,%eax
    42e6:	eb 04                	jmp    42ec <safe_lshift_func_int8_t_s_s+0x4b>
    42e8:	0f b6 45 fc          	movzbl -0x4(%rbp),%eax
    42ec:	5d                   	pop    %rbp
    42ed:	c3                   	retq   

00000000000042ee <safe_lshift_func_int8_t_s_u>:
    42ee:	f3 0f 1e fa          	endbr64 
    42f2:	55                   	push   %rbp
    42f3:	48 89 e5             	mov    %rsp,%rbp
    42f6:	89 f8                	mov    %edi,%eax
    42f8:	89 75 f8             	mov    %esi,-0x8(%rbp)
    42fb:	88 45 fc             	mov    %al,-0x4(%rbp)
    42fe:	80 7d fc 00          	cmpb   $0x0,-0x4(%rbp)
    4302:	78 2b                	js     432f <safe_lshift_func_int8_t_s_u+0x41>
    4304:	83 7d f8 1f          	cmpl   $0x1f,-0x8(%rbp)
    4308:	77 25                	ja     432f <safe_lshift_func_int8_t_s_u+0x41>
    430a:	0f be 55 fc          	movsbl -0x4(%rbp),%edx
    430e:	8b 45 f8             	mov    -0x8(%rbp),%eax
    4311:	be 7f 00 00 00       	mov    $0x7f,%esi
    4316:	89 c1                	mov    %eax,%ecx
    4318:	d3 fe                	sar    %cl,%esi
    431a:	89 f0                	mov    %esi,%eax
    431c:	39 c2                	cmp    %eax,%edx
    431e:	7f 0f                	jg     432f <safe_lshift_func_int8_t_s_u+0x41>
    4320:	0f be 55 fc          	movsbl -0x4(%rbp),%edx
    4324:	8b 45 f8             	mov    -0x8(%rbp),%eax
    4327:	89 c1                	mov    %eax,%ecx
    4329:	d3 e2                	shl    %cl,%edx
    432b:	89 d0                	mov    %edx,%eax
    432d:	eb 04                	jmp    4333 <safe_lshift_func_int8_t_s_u+0x45>
    432f:	0f b6 45 fc          	movzbl -0x4(%rbp),%eax
    4333:	5d                   	pop    %rbp
    4334:	c3                   	retq   

0000000000004335 <safe_rshift_func_int8_t_s_s>:
    4335:	f3 0f 1e fa          	endbr64 
    4339:	55                   	push   %rbp
    433a:	48 89 e5             	mov    %rsp,%rbp
    433d:	89 f8                	mov    %edi,%eax
    433f:	89 75 f8             	mov    %esi,-0x8(%rbp)
    4342:	88 45 fc             	mov    %al,-0x4(%rbp)
    4345:	80 7d fc 00          	cmpb   $0x0,-0x4(%rbp)
    4349:	78 1b                	js     4366 <safe_rshift_func_int8_t_s_s+0x31>
    434b:	83 7d f8 00          	cmpl   $0x0,-0x8(%rbp)
    434f:	78 15                	js     4366 <safe_rshift_func_int8_t_s_s+0x31>
    4351:	83 7d f8 1f          	cmpl   $0x1f,-0x8(%rbp)
    4355:	7f 0f                	jg     4366 <safe_rshift_func_int8_t_s_s+0x31>
    4357:	0f be 55 fc          	movsbl -0x4(%rbp),%edx
    435b:	8b 45 f8             	mov    -0x8(%rbp),%eax
    435e:	89 c1                	mov    %eax,%ecx
    4360:	d3 fa                	sar    %cl,%edx
    4362:	89 d0                	mov    %edx,%eax
    4364:	eb 04                	jmp    436a <safe_rshift_func_int8_t_s_s+0x35>
    4366:	0f b6 45 fc          	movzbl -0x4(%rbp),%eax
    436a:	5d                   	pop    %rbp
    436b:	c3                   	retq   

000000000000436c <safe_rshift_func_int8_t_s_u>:
    436c:	f3 0f 1e fa          	endbr64 
    4370:	55                   	push   %rbp
    4371:	48 89 e5             	mov    %rsp,%rbp
    4374:	89 f8                	mov    %edi,%eax
    4376:	89 75 f8             	mov    %esi,-0x8(%rbp)
    4379:	88 45 fc             	mov    %al,-0x4(%rbp)
    437c:	80 7d fc 00          	cmpb   $0x0,-0x4(%rbp)
    4380:	78 15                	js     4397 <safe_rshift_func_int8_t_s_u+0x2b>
    4382:	83 7d f8 1f          	cmpl   $0x1f,-0x8(%rbp)
    4386:	77 0f                	ja     4397 <safe_rshift_func_int8_t_s_u+0x2b>
    4388:	0f be 55 fc          	movsbl -0x4(%rbp),%edx
    438c:	8b 45 f8             	mov    -0x8(%rbp),%eax
    438f:	89 c1                	mov    %eax,%ecx
    4391:	d3 fa                	sar    %cl,%edx
    4393:	89 d0                	mov    %edx,%eax
    4395:	eb 04                	jmp    439b <safe_rshift_func_int8_t_s_u+0x2f>
    4397:	0f b6 45 fc          	movzbl -0x4(%rbp),%eax
    439b:	5d                   	pop    %rbp
    439c:	c3                   	retq   

000000000000439d <safe_unary_minus_func_int16_t_s>:
    439d:	f3 0f 1e fa          	endbr64 
    43a1:	55                   	push   %rbp
    43a2:	48 89 e5             	mov    %rsp,%rbp
    43a5:	89 f8                	mov    %edi,%eax
    43a7:	66 89 45 fc          	mov    %ax,-0x4(%rbp)
    43ab:	0f b7 45 fc          	movzwl -0x4(%rbp),%eax
    43af:	f7 d8                	neg    %eax
    43b1:	5d                   	pop    %rbp
    43b2:	c3                   	retq   

00000000000043b3 <safe_add_func_int16_t_s_s>:
    43b3:	f3 0f 1e fa          	endbr64 
    43b7:	55                   	push   %rbp
    43b8:	48 89 e5             	mov    %rsp,%rbp
    43bb:	89 fa                	mov    %edi,%edx
    43bd:	89 f0                	mov    %esi,%eax
    43bf:	66 89 55 fc          	mov    %dx,-0x4(%rbp)
    43c3:	66 89 45 f8          	mov    %ax,-0x8(%rbp)
    43c7:	0f b7 55 fc          	movzwl -0x4(%rbp),%edx
    43cb:	0f b7 45 f8          	movzwl -0x8(%rbp),%eax
    43cf:	01 d0                	add    %edx,%eax
    43d1:	5d                   	pop    %rbp
    43d2:	c3                   	retq   

00000000000043d3 <safe_sub_func_int16_t_s_s>:
    43d3:	f3 0f 1e fa          	endbr64 
    43d7:	55                   	push   %rbp
    43d8:	48 89 e5             	mov    %rsp,%rbp
    43db:	89 fa                	mov    %edi,%edx
    43dd:	89 f0                	mov    %esi,%eax
    43df:	66 89 55 fc          	mov    %dx,-0x4(%rbp)
    43e3:	66 89 45 f8          	mov    %ax,-0x8(%rbp)
    43e7:	0f b7 55 fc          	movzwl -0x4(%rbp),%edx
    43eb:	0f b7 45 f8          	movzwl -0x8(%rbp),%eax
    43ef:	29 c2                	sub    %eax,%edx
    43f1:	89 d0                	mov    %edx,%eax
    43f3:	5d                   	pop    %rbp
    43f4:	c3                   	retq   

00000000000043f5 <safe_mul_func_int16_t_s_s>:
    43f5:	f3 0f 1e fa          	endbr64 
    43f9:	55                   	push   %rbp
    43fa:	48 89 e5             	mov    %rsp,%rbp
    43fd:	89 fa                	mov    %edi,%edx
    43ff:	89 f0                	mov    %esi,%eax
    4401:	66 89 55 fc          	mov    %dx,-0x4(%rbp)
    4405:	66 89 45 f8          	mov    %ax,-0x8(%rbp)
    4409:	0f b7 55 fc          	movzwl -0x4(%rbp),%edx
    440d:	0f b7 45 f8          	movzwl -0x8(%rbp),%eax
    4411:	0f af c2             	imul   %edx,%eax
    4414:	5d                   	pop    %rbp
    4415:	c3                   	retq   

0000000000004416 <safe_mod_func_int16_t_s_s>:
    4416:	f3 0f 1e fa          	endbr64 
    441a:	55                   	push   %rbp
    441b:	48 89 e5             	mov    %rsp,%rbp
    441e:	89 fa                	mov    %edi,%edx
    4420:	89 f0                	mov    %esi,%eax
    4422:	66 89 55 fc          	mov    %dx,-0x4(%rbp)
    4426:	66 89 45 f8          	mov    %ax,-0x8(%rbp)
    442a:	66 83 7d f8 00       	cmpw   $0x0,-0x8(%rbp)
    442f:	74 1e                	je     444f <safe_mod_func_int16_t_s_s+0x39>
    4431:	66 81 7d fc 00 80    	cmpw   $0x8000,-0x4(%rbp)
    4437:	75 07                	jne    4440 <safe_mod_func_int16_t_s_s+0x2a>
    4439:	66 83 7d f8 ff       	cmpw   $0xffff,-0x8(%rbp)
    443e:	74 0f                	je     444f <safe_mod_func_int16_t_s_s+0x39>
    4440:	0f bf 45 fc          	movswl -0x4(%rbp),%eax
    4444:	0f bf 4d f8          	movswl -0x8(%rbp),%ecx
    4448:	99                   	cltd   
    4449:	f7 f9                	idiv   %ecx
    444b:	89 d0                	mov    %edx,%eax
    444d:	eb 04                	jmp    4453 <safe_mod_func_int16_t_s_s+0x3d>
    444f:	0f b7 45 fc          	movzwl -0x4(%rbp),%eax
    4453:	5d                   	pop    %rbp
    4454:	c3                   	retq   

0000000000004455 <safe_div_func_int16_t_s_s>:
    4455:	f3 0f 1e fa          	endbr64 
    4459:	55                   	push   %rbp
    445a:	48 89 e5             	mov    %rsp,%rbp
    445d:	89 fa                	mov    %edi,%edx
    445f:	89 f0                	mov    %esi,%eax
    4461:	66 89 55 fc          	mov    %dx,-0x4(%rbp)
    4465:	66 89 45 f8          	mov    %ax,-0x8(%rbp)
    4469:	66 83 7d f8 00       	cmpw   $0x0,-0x8(%rbp)
    446e:	74 1c                	je     448c <safe_div_func_int16_t_s_s+0x37>
    4470:	66 81 7d fc 00 80    	cmpw   $0x8000,-0x4(%rbp)
    4476:	75 07                	jne    447f <safe_div_func_int16_t_s_s+0x2a>
    4478:	66 83 7d f8 ff       	cmpw   $0xffff,-0x8(%rbp)
    447d:	74 0d                	je     448c <safe_div_func_int16_t_s_s+0x37>
    447f:	0f bf 45 fc          	movswl -0x4(%rbp),%eax
    4483:	0f bf 4d f8          	movswl -0x8(%rbp),%ecx
    4487:	99                   	cltd   
    4488:	f7 f9                	idiv   %ecx
    448a:	eb 04                	jmp    4490 <safe_div_func_int16_t_s_s+0x3b>
    448c:	0f b7 45 fc          	movzwl -0x4(%rbp),%eax
    4490:	5d                   	pop    %rbp
    4491:	c3                   	retq   

0000000000004492 <safe_lshift_func_int16_t_s_s>:
    4492:	f3 0f 1e fa          	endbr64 
    4496:	55                   	push   %rbp
    4497:	48 89 e5             	mov    %rsp,%rbp
    449a:	89 f8                	mov    %edi,%eax
    449c:	89 75 f8             	mov    %esi,-0x8(%rbp)
    449f:	66 89 45 fc          	mov    %ax,-0x4(%rbp)
    44a3:	66 83 7d fc 00       	cmpw   $0x0,-0x4(%rbp)
    44a8:	78 31                	js     44db <safe_lshift_func_int16_t_s_s+0x49>
    44aa:	83 7d f8 00          	cmpl   $0x0,-0x8(%rbp)
    44ae:	78 2b                	js     44db <safe_lshift_func_int16_t_s_s+0x49>
    44b0:	83 7d f8 1f          	cmpl   $0x1f,-0x8(%rbp)
    44b4:	7f 25                	jg     44db <safe_lshift_func_int16_t_s_s+0x49>
    44b6:	0f bf 55 fc          	movswl -0x4(%rbp),%edx
    44ba:	8b 45 f8             	mov    -0x8(%rbp),%eax
    44bd:	be ff 7f 00 00       	mov    $0x7fff,%esi
    44c2:	89 c1                	mov    %eax,%ecx
    44c4:	d3 fe                	sar    %cl,%esi
    44c6:	89 f0                	mov    %esi,%eax
    44c8:	39 c2                	cmp    %eax,%edx
    44ca:	7f 0f                	jg     44db <safe_lshift_func_int16_t_s_s+0x49>
    44cc:	0f bf 55 fc          	movswl -0x4(%rbp),%edx
    44d0:	8b 45 f8             	mov    -0x8(%rbp),%eax
    44d3:	89 c1                	mov    %eax,%ecx
    44d5:	d3 e2                	shl    %cl,%edx
    44d7:	89 d0                	mov    %edx,%eax
    44d9:	eb 04                	jmp    44df <safe_lshift_func_int16_t_s_s+0x4d>
    44db:	0f b7 45 fc          	movzwl -0x4(%rbp),%eax
    44df:	5d                   	pop    %rbp
    44e0:	c3                   	retq   

00000000000044e1 <safe_lshift_func_int16_t_s_u>:
    44e1:	f3 0f 1e fa          	endbr64 
    44e5:	55                   	push   %rbp
    44e6:	48 89 e5             	mov    %rsp,%rbp
    44e9:	89 f8                	mov    %edi,%eax
    44eb:	89 75 f8             	mov    %esi,-0x8(%rbp)
    44ee:	66 89 45 fc          	mov    %ax,-0x4(%rbp)
    44f2:	66 83 7d fc 00       	cmpw   $0x0,-0x4(%rbp)
    44f7:	78 2b                	js     4524 <safe_lshift_func_int16_t_s_u+0x43>
    44f9:	83 7d f8 1f          	cmpl   $0x1f,-0x8(%rbp)
    44fd:	77 25                	ja     4524 <safe_lshift_func_int16_t_s_u+0x43>
    44ff:	0f bf 55 fc          	movswl -0x4(%rbp),%edx
    4503:	8b 45 f8             	mov    -0x8(%rbp),%eax
    4506:	be ff 7f 00 00       	mov    $0x7fff,%esi
    450b:	89 c1                	mov    %eax,%ecx
    450d:	d3 fe                	sar    %cl,%esi
    450f:	89 f0                	mov    %esi,%eax
    4511:	39 c2                	cmp    %eax,%edx
    4513:	7f 0f                	jg     4524 <safe_lshift_func_int16_t_s_u+0x43>
    4515:	0f bf 55 fc          	movswl -0x4(%rbp),%edx
    4519:	8b 45 f8             	mov    -0x8(%rbp),%eax
    451c:	89 c1                	mov    %eax,%ecx
    451e:	d3 e2                	shl    %cl,%edx
    4520:	89 d0                	mov    %edx,%eax
    4522:	eb 04                	jmp    4528 <safe_lshift_func_int16_t_s_u+0x47>
    4524:	0f b7 45 fc          	movzwl -0x4(%rbp),%eax
    4528:	5d                   	pop    %rbp
    4529:	c3                   	retq   

000000000000452a <safe_rshift_func_int16_t_s_s>:
    452a:	f3 0f 1e fa          	endbr64 
    452e:	55                   	push   %rbp
    452f:	48 89 e5             	mov    %rsp,%rbp
    4532:	89 f8                	mov    %edi,%eax
    4534:	89 75 f8             	mov    %esi,-0x8(%rbp)
    4537:	66 89 45 fc          	mov    %ax,-0x4(%rbp)
    453b:	66 83 7d fc 00       	cmpw   $0x0,-0x4(%rbp)
    4540:	78 1b                	js     455d <safe_rshift_func_int16_t_s_s+0x33>
    4542:	83 7d f8 00          	cmpl   $0x0,-0x8(%rbp)
    4546:	78 15                	js     455d <safe_rshift_func_int16_t_s_s+0x33>
    4548:	83 7d f8 1f          	cmpl   $0x1f,-0x8(%rbp)
    454c:	7f 0f                	jg     455d <safe_rshift_func_int16_t_s_s+0x33>
    454e:	0f bf 55 fc          	movswl -0x4(%rbp),%edx
    4552:	8b 45 f8             	mov    -0x8(%rbp),%eax
    4555:	89 c1                	mov    %eax,%ecx
    4557:	d3 fa                	sar    %cl,%edx
    4559:	89 d0                	mov    %edx,%eax
    455b:	eb 04                	jmp    4561 <safe_rshift_func_int16_t_s_s+0x37>
    455d:	0f b7 45 fc          	movzwl -0x4(%rbp),%eax
    4561:	5d                   	pop    %rbp
    4562:	c3                   	retq   

0000000000004563 <safe_rshift_func_int16_t_s_u>:
    4563:	f3 0f 1e fa          	endbr64 
    4567:	55                   	push   %rbp
    4568:	48 89 e5             	mov    %rsp,%rbp
    456b:	89 f8                	mov    %edi,%eax
    456d:	89 75 f8             	mov    %esi,-0x8(%rbp)
    4570:	66 89 45 fc          	mov    %ax,-0x4(%rbp)
    4574:	66 83 7d fc 00       	cmpw   $0x0,-0x4(%rbp)
    4579:	78 15                	js     4590 <safe_rshift_func_int16_t_s_u+0x2d>
    457b:	83 7d f8 1f          	cmpl   $0x1f,-0x8(%rbp)
    457f:	77 0f                	ja     4590 <safe_rshift_func_int16_t_s_u+0x2d>
    4581:	0f bf 55 fc          	movswl -0x4(%rbp),%edx
    4585:	8b 45 f8             	mov    -0x8(%rbp),%eax
    4588:	89 c1                	mov    %eax,%ecx
    458a:	d3 fa                	sar    %cl,%edx
    458c:	89 d0                	mov    %edx,%eax
    458e:	eb 04                	jmp    4594 <safe_rshift_func_int16_t_s_u+0x31>
    4590:	0f b7 45 fc          	movzwl -0x4(%rbp),%eax
    4594:	5d                   	pop    %rbp
    4595:	c3                   	retq   

0000000000004596 <safe_unary_minus_func_int32_t_s>:
    4596:	f3 0f 1e fa          	endbr64 
    459a:	55                   	push   %rbp
    459b:	48 89 e5             	mov    %rsp,%rbp
    459e:	89 7d fc             	mov    %edi,-0x4(%rbp)
    45a1:	81 7d fc 00 00 00 80 	cmpl   $0x80000000,-0x4(%rbp)
    45a8:	74 07                	je     45b1 <safe_unary_minus_func_int32_t_s+0x1b>
    45aa:	8b 45 fc             	mov    -0x4(%rbp),%eax
    45ad:	f7 d8                	neg    %eax
    45af:	eb 03                	jmp    45b4 <safe_unary_minus_func_int32_t_s+0x1e>
    45b1:	8b 45 fc             	mov    -0x4(%rbp),%eax
    45b4:	5d                   	pop    %rbp
    45b5:	c3                   	retq   

00000000000045b6 <safe_add_func_int32_t_s_s>:
    45b6:	f3 0f 1e fa          	endbr64 
    45ba:	55                   	push   %rbp
    45bb:	48 89 e5             	mov    %rsp,%rbp
    45be:	89 7d fc             	mov    %edi,-0x4(%rbp)
    45c1:	89 75 f8             	mov    %esi,-0x8(%rbp)
    45c4:	83 7d fc 00          	cmpl   $0x0,-0x4(%rbp)
    45c8:	7e 13                	jle    45dd <safe_add_func_int32_t_s_s+0x27>
    45ca:	83 7d f8 00          	cmpl   $0x0,-0x8(%rbp)
    45ce:	7e 0d                	jle    45dd <safe_add_func_int32_t_s_s+0x27>
    45d0:	b8 ff ff ff 7f       	mov    $0x7fffffff,%eax
    45d5:	2b 45 f8             	sub    -0x8(%rbp),%eax
    45d8:	39 45 fc             	cmp    %eax,-0x4(%rbp)
    45db:	7f 23                	jg     4600 <safe_add_func_int32_t_s_s+0x4a>
    45dd:	83 7d fc 00          	cmpl   $0x0,-0x4(%rbp)
    45e1:	79 13                	jns    45f6 <safe_add_func_int32_t_s_s+0x40>
    45e3:	83 7d f8 00          	cmpl   $0x0,-0x8(%rbp)
    45e7:	79 0d                	jns    45f6 <safe_add_func_int32_t_s_s+0x40>
    45e9:	b8 00 00 00 80       	mov    $0x80000000,%eax
    45ee:	2b 45 f8             	sub    -0x8(%rbp),%eax
    45f1:	39 45 fc             	cmp    %eax,-0x4(%rbp)
    45f4:	7c 0a                	jl     4600 <safe_add_func_int32_t_s_s+0x4a>
    45f6:	8b 55 fc             	mov    -0x4(%rbp),%edx
    45f9:	8b 45 f8             	mov    -0x8(%rbp),%eax
    45fc:	01 d0                	add    %edx,%eax
    45fe:	eb 03                	jmp    4603 <safe_add_func_int32_t_s_s+0x4d>
    4600:	8b 45 fc             	mov    -0x4(%rbp),%eax
    4603:	5d                   	pop    %rbp
    4604:	c3                   	retq   

0000000000004605 <safe_sub_func_int32_t_s_s>:
    4605:	f3 0f 1e fa          	endbr64 
    4609:	55                   	push   %rbp
    460a:	48 89 e5             	mov    %rsp,%rbp
    460d:	89 7d fc             	mov    %edi,-0x4(%rbp)
    4610:	89 75 f8             	mov    %esi,-0x8(%rbp)
    4613:	8b 45 fc             	mov    -0x4(%rbp),%eax
    4616:	33 45 f8             	xor    -0x8(%rbp),%eax
    4619:	89 c2                	mov    %eax,%edx
    461b:	8b 45 fc             	mov    -0x4(%rbp),%eax
    461e:	33 45 f8             	xor    -0x8(%rbp),%eax
    4621:	25 00 00 00 80       	and    $0x80000000,%eax
    4626:	33 45 fc             	xor    -0x4(%rbp),%eax
    4629:	2b 45 f8             	sub    -0x8(%rbp),%eax
    462c:	33 45 f8             	xor    -0x8(%rbp),%eax
    462f:	21 d0                	and    %edx,%eax
    4631:	85 c0                	test   %eax,%eax
    4633:	78 08                	js     463d <safe_sub_func_int32_t_s_s+0x38>
    4635:	8b 45 fc             	mov    -0x4(%rbp),%eax
    4638:	2b 45 f8             	sub    -0x8(%rbp),%eax
    463b:	eb 03                	jmp    4640 <safe_sub_func_int32_t_s_s+0x3b>
    463d:	8b 45 fc             	mov    -0x4(%rbp),%eax
    4640:	5d                   	pop    %rbp
    4641:	c3                   	retq   

0000000000004642 <safe_mul_func_int32_t_s_s>:
    4642:	f3 0f 1e fa          	endbr64 
    4646:	55                   	push   %rbp
    4647:	48 89 e5             	mov    %rsp,%rbp
    464a:	89 7d fc             	mov    %edi,-0x4(%rbp)
    464d:	89 75 f8             	mov    %esi,-0x8(%rbp)
    4650:	83 7d fc 00          	cmpl   $0x0,-0x4(%rbp)
    4654:	7e 14                	jle    466a <safe_mul_func_int32_t_s_s+0x28>
    4656:	83 7d f8 00          	cmpl   $0x0,-0x8(%rbp)
    465a:	7e 0e                	jle    466a <safe_mul_func_int32_t_s_s+0x28>
    465c:	b8 ff ff ff 7f       	mov    $0x7fffffff,%eax
    4661:	99                   	cltd   
    4662:	f7 7d f8             	idivl  -0x8(%rbp)
    4665:	39 45 fc             	cmp    %eax,-0x4(%rbp)
    4668:	7f 5d                	jg     46c7 <safe_mul_func_int32_t_s_s+0x85>
    466a:	83 7d fc 00          	cmpl   $0x0,-0x4(%rbp)
    466e:	7e 14                	jle    4684 <safe_mul_func_int32_t_s_s+0x42>
    4670:	83 7d f8 00          	cmpl   $0x0,-0x8(%rbp)
    4674:	7f 0e                	jg     4684 <safe_mul_func_int32_t_s_s+0x42>
    4676:	b8 00 00 00 80       	mov    $0x80000000,%eax
    467b:	99                   	cltd   
    467c:	f7 7d fc             	idivl  -0x4(%rbp)
    467f:	39 45 f8             	cmp    %eax,-0x8(%rbp)
    4682:	7c 43                	jl     46c7 <safe_mul_func_int32_t_s_s+0x85>
    4684:	83 7d fc 00          	cmpl   $0x0,-0x4(%rbp)
    4688:	7f 14                	jg     469e <safe_mul_func_int32_t_s_s+0x5c>
    468a:	83 7d f8 00          	cmpl   $0x0,-0x8(%rbp)
    468e:	7e 0e                	jle    469e <safe_mul_func_int32_t_s_s+0x5c>
    4690:	b8 00 00 00 80       	mov    $0x80000000,%eax
    4695:	99                   	cltd   
    4696:	f7 7d f8             	idivl  -0x8(%rbp)
    4699:	39 45 fc             	cmp    %eax,-0x4(%rbp)
    469c:	7c 29                	jl     46c7 <safe_mul_func_int32_t_s_s+0x85>
    469e:	83 7d fc 00          	cmpl   $0x0,-0x4(%rbp)
    46a2:	7f 1a                	jg     46be <safe_mul_func_int32_t_s_s+0x7c>
    46a4:	83 7d f8 00          	cmpl   $0x0,-0x8(%rbp)
    46a8:	7f 14                	jg     46be <safe_mul_func_int32_t_s_s+0x7c>
    46aa:	83 7d fc 00          	cmpl   $0x0,-0x4(%rbp)
    46ae:	74 0e                	je     46be <safe_mul_func_int32_t_s_s+0x7c>
    46b0:	b8 ff ff ff 7f       	mov    $0x7fffffff,%eax
    46b5:	99                   	cltd   
    46b6:	f7 7d fc             	idivl  -0x4(%rbp)
    46b9:	39 45 f8             	cmp    %eax,-0x8(%rbp)
    46bc:	7c 09                	jl     46c7 <safe_mul_func_int32_t_s_s+0x85>
    46be:	8b 45 fc             	mov    -0x4(%rbp),%eax
    46c1:	0f af 45 f8          	imul   -0x8(%rbp),%eax
    46c5:	eb 03                	jmp    46ca <safe_mul_func_int32_t_s_s+0x88>
    46c7:	8b 45 fc             	mov    -0x4(%rbp),%eax
    46ca:	5d                   	pop    %rbp
    46cb:	c3                   	retq   

00000000000046cc <safe_mod_func_int32_t_s_s>:
    46cc:	f3 0f 1e fa          	endbr64 
    46d0:	55                   	push   %rbp
    46d1:	48 89 e5             	mov    %rsp,%rbp
    46d4:	89 7d fc             	mov    %edi,-0x4(%rbp)
    46d7:	89 75 f8             	mov    %esi,-0x8(%rbp)
    46da:	83 7d f8 00          	cmpl   $0x0,-0x8(%rbp)
    46de:	74 1a                	je     46fa <safe_mod_func_int32_t_s_s+0x2e>
    46e0:	81 7d fc 00 00 00 80 	cmpl   $0x80000000,-0x4(%rbp)
    46e7:	75 06                	jne    46ef <safe_mod_func_int32_t_s_s+0x23>
    46e9:	83 7d f8 ff          	cmpl   $0xffffffff,-0x8(%rbp)
    46ed:	74 0b                	je     46fa <safe_mod_func_int32_t_s_s+0x2e>
    46ef:	8b 45 fc             	mov    -0x4(%rbp),%eax
    46f2:	99                   	cltd   
    46f3:	f7 7d f8             	idivl  -0x8(%rbp)
    46f6:	89 d0                	mov    %edx,%eax
    46f8:	eb 03                	jmp    46fd <safe_mod_func_int32_t_s_s+0x31>
    46fa:	8b 45 fc             	mov    -0x4(%rbp),%eax
    46fd:	5d                   	pop    %rbp
    46fe:	c3                   	retq   

00000000000046ff <safe_div_func_int32_t_s_s>:
    46ff:	f3 0f 1e fa          	endbr64 
    4703:	55                   	push   %rbp
    4704:	48 89 e5             	mov    %rsp,%rbp
    4707:	89 7d fc             	mov    %edi,-0x4(%rbp)
    470a:	89 75 f8             	mov    %esi,-0x8(%rbp)
    470d:	83 7d f8 00          	cmpl   $0x0,-0x8(%rbp)
    4711:	74 18                	je     472b <safe_div_func_int32_t_s_s+0x2c>
    4713:	81 7d fc 00 00 00 80 	cmpl   $0x80000000,-0x4(%rbp)
    471a:	75 06                	jne    4722 <safe_div_func_int32_t_s_s+0x23>
    471c:	83 7d f8 ff          	cmpl   $0xffffffff,-0x8(%rbp)
    4720:	74 09                	je     472b <safe_div_func_int32_t_s_s+0x2c>
    4722:	8b 45 fc             	mov    -0x4(%rbp),%eax
    4725:	99                   	cltd   
    4726:	f7 7d f8             	idivl  -0x8(%rbp)
    4729:	eb 03                	jmp    472e <safe_div_func_int32_t_s_s+0x2f>
    472b:	8b 45 fc             	mov    -0x4(%rbp),%eax
    472e:	5d                   	pop    %rbp
    472f:	c3                   	retq   

0000000000004730 <safe_lshift_func_int32_t_s_s>:
    4730:	f3 0f 1e fa          	endbr64 
    4734:	55                   	push   %rbp
    4735:	48 89 e5             	mov    %rsp,%rbp
    4738:	89 7d fc             	mov    %edi,-0x4(%rbp)
    473b:	89 75 f8             	mov    %esi,-0x8(%rbp)
    473e:	83 7d fc 00          	cmpl   $0x0,-0x4(%rbp)
    4742:	78 2d                	js     4771 <safe_lshift_func_int32_t_s_s+0x41>
    4744:	83 7d f8 00          	cmpl   $0x0,-0x8(%rbp)
    4748:	78 27                	js     4771 <safe_lshift_func_int32_t_s_s+0x41>
    474a:	83 7d f8 1f          	cmpl   $0x1f,-0x8(%rbp)
    474e:	7f 21                	jg     4771 <safe_lshift_func_int32_t_s_s+0x41>
    4750:	8b 45 f8             	mov    -0x8(%rbp),%eax
    4753:	ba ff ff ff 7f       	mov    $0x7fffffff,%edx
    4758:	89 c1                	mov    %eax,%ecx
    475a:	d3 fa                	sar    %cl,%edx
    475c:	89 d0                	mov    %edx,%eax
    475e:	39 45 fc             	cmp    %eax,-0x4(%rbp)
    4761:	7f 0e                	jg     4771 <safe_lshift_func_int32_t_s_s+0x41>
    4763:	8b 45 f8             	mov    -0x8(%rbp),%eax
    4766:	8b 55 fc             	mov    -0x4(%rbp),%edx
    4769:	89 c1                	mov    %eax,%ecx
    476b:	d3 e2                	shl    %cl,%edx
    476d:	89 d0                	mov    %edx,%eax
    476f:	eb 03                	jmp    4774 <safe_lshift_func_int32_t_s_s+0x44>
    4771:	8b 45 fc             	mov    -0x4(%rbp),%eax
    4774:	5d                   	pop    %rbp
    4775:	c3                   	retq   

0000000000004776 <safe_lshift_func_int32_t_s_u>:
    4776:	f3 0f 1e fa          	endbr64 
    477a:	55                   	push   %rbp
    477b:	48 89 e5             	mov    %rsp,%rbp
    477e:	89 7d fc             	mov    %edi,-0x4(%rbp)
    4781:	89 75 f8             	mov    %esi,-0x8(%rbp)
    4784:	83 7d fc 00          	cmpl   $0x0,-0x4(%rbp)
    4788:	78 27                	js     47b1 <safe_lshift_func_int32_t_s_u+0x3b>
    478a:	83 7d f8 1f          	cmpl   $0x1f,-0x8(%rbp)
    478e:	77 21                	ja     47b1 <safe_lshift_func_int32_t_s_u+0x3b>
    4790:	8b 45 f8             	mov    -0x8(%rbp),%eax
    4793:	ba ff ff ff 7f       	mov    $0x7fffffff,%edx
    4798:	89 c1                	mov    %eax,%ecx
    479a:	d3 fa                	sar    %cl,%edx
    479c:	89 d0                	mov    %edx,%eax
    479e:	39 45 fc             	cmp    %eax,-0x4(%rbp)
    47a1:	7f 0e                	jg     47b1 <safe_lshift_func_int32_t_s_u+0x3b>
    47a3:	8b 45 f8             	mov    -0x8(%rbp),%eax
    47a6:	8b 55 fc             	mov    -0x4(%rbp),%edx
    47a9:	89 c1                	mov    %eax,%ecx
    47ab:	d3 e2                	shl    %cl,%edx
    47ad:	89 d0                	mov    %edx,%eax
    47af:	eb 03                	jmp    47b4 <safe_lshift_func_int32_t_s_u+0x3e>
    47b1:	8b 45 fc             	mov    -0x4(%rbp),%eax
    47b4:	5d                   	pop    %rbp
    47b5:	c3                   	retq   

00000000000047b6 <safe_rshift_func_int32_t_s_s>:
    47b6:	f3 0f 1e fa          	endbr64 
    47ba:	55                   	push   %rbp
    47bb:	48 89 e5             	mov    %rsp,%rbp
    47be:	89 7d fc             	mov    %edi,-0x4(%rbp)
    47c1:	89 75 f8             	mov    %esi,-0x8(%rbp)
    47c4:	83 7d fc 00          	cmpl   $0x0,-0x4(%rbp)
    47c8:	78 1a                	js     47e4 <safe_rshift_func_int32_t_s_s+0x2e>
    47ca:	83 7d f8 00          	cmpl   $0x0,-0x8(%rbp)
    47ce:	78 14                	js     47e4 <safe_rshift_func_int32_t_s_s+0x2e>
    47d0:	83 7d f8 1f          	cmpl   $0x1f,-0x8(%rbp)
    47d4:	7f 0e                	jg     47e4 <safe_rshift_func_int32_t_s_s+0x2e>
    47d6:	8b 45 f8             	mov    -0x8(%rbp),%eax
    47d9:	8b 55 fc             	mov    -0x4(%rbp),%edx
    47dc:	89 c1                	mov    %eax,%ecx
    47de:	d3 fa                	sar    %cl,%edx
    47e0:	89 d0                	mov    %edx,%eax
    47e2:	eb 03                	jmp    47e7 <safe_rshift_func_int32_t_s_s+0x31>
    47e4:	8b 45 fc             	mov    -0x4(%rbp),%eax
    47e7:	5d                   	pop    %rbp
    47e8:	c3                   	retq   

00000000000047e9 <safe_rshift_func_int32_t_s_u>:
    47e9:	f3 0f 1e fa          	endbr64 
    47ed:	55                   	push   %rbp
    47ee:	48 89 e5             	mov    %rsp,%rbp
    47f1:	89 7d fc             	mov    %edi,-0x4(%rbp)
    47f4:	89 75 f8             	mov    %esi,-0x8(%rbp)
    47f7:	83 7d fc 00          	cmpl   $0x0,-0x4(%rbp)
    47fb:	78 14                	js     4811 <safe_rshift_func_int32_t_s_u+0x28>
    47fd:	83 7d f8 1f          	cmpl   $0x1f,-0x8(%rbp)
    4801:	77 0e                	ja     4811 <safe_rshift_func_int32_t_s_u+0x28>
    4803:	8b 45 f8             	mov    -0x8(%rbp),%eax
    4806:	8b 55 fc             	mov    -0x4(%rbp),%edx
    4809:	89 c1                	mov    %eax,%ecx
    480b:	d3 fa                	sar    %cl,%edx
    480d:	89 d0                	mov    %edx,%eax
    480f:	eb 03                	jmp    4814 <safe_rshift_func_int32_t_s_u+0x2b>
    4811:	8b 45 fc             	mov    -0x4(%rbp),%eax
    4814:	5d                   	pop    %rbp
    4815:	c3                   	retq   

0000000000004816 <safe_unary_minus_func_int64_t_s>:
    4816:	f3 0f 1e fa          	endbr64 
    481a:	55                   	push   %rbp
    481b:	48 89 e5             	mov    %rsp,%rbp
    481e:	48 89 7d f8          	mov    %rdi,-0x8(%rbp)
    4822:	48 b8 00 00 00 00 00 	movabs $0x8000000000000000,%rax
    4829:	00 00 80 
    482c:	48 39 45 f8          	cmp    %rax,-0x8(%rbp)
    4830:	74 09                	je     483b <safe_unary_minus_func_int64_t_s+0x25>
    4832:	48 8b 45 f8          	mov    -0x8(%rbp),%rax
    4836:	48 f7 d8             	neg    %rax
    4839:	eb 04                	jmp    483f <safe_unary_minus_func_int64_t_s+0x29>
    483b:	48 8b 45 f8          	mov    -0x8(%rbp),%rax
    483f:	5d                   	pop    %rbp
    4840:	c3                   	retq   

0000000000004841 <safe_add_func_int64_t_s_s>:
    4841:	f3 0f 1e fa          	endbr64 
    4845:	55                   	push   %rbp
    4846:	48 89 e5             	mov    %rsp,%rbp
    4849:	48 89 7d f8          	mov    %rdi,-0x8(%rbp)
    484d:	48 89 75 f0          	mov    %rsi,-0x10(%rbp)
    4851:	48 83 7d f8 00       	cmpq   $0x0,-0x8(%rbp)
    4856:	7e 1b                	jle    4873 <safe_add_func_int64_t_s_s+0x32>
    4858:	48 83 7d f0 00       	cmpq   $0x0,-0x10(%rbp)
    485d:	7e 14                	jle    4873 <safe_add_func_int64_t_s_s+0x32>
    485f:	48 b8 ff ff ff ff ff 	movabs $0x7fffffffffffffff,%rax
    4866:	ff ff 7f 
    4869:	48 2b 45 f0          	sub    -0x10(%rbp),%rax
    486d:	48 39 45 f8          	cmp    %rax,-0x8(%rbp)
    4871:	7f 2f                	jg     48a2 <safe_add_func_int64_t_s_s+0x61>
    4873:	48 83 7d f8 00       	cmpq   $0x0,-0x8(%rbp)
    4878:	79 1b                	jns    4895 <safe_add_func_int64_t_s_s+0x54>
    487a:	48 83 7d f0 00       	cmpq   $0x0,-0x10(%rbp)
    487f:	79 14                	jns    4895 <safe_add_func_int64_t_s_s+0x54>
    4881:	48 b8 00 00 00 00 00 	movabs $0x8000000000000000,%rax
    4888:	00 00 80 
    488b:	48 2b 45 f0          	sub    -0x10(%rbp),%rax
    488f:	48 39 45 f8          	cmp    %rax,-0x8(%rbp)
    4893:	7c 0d                	jl     48a2 <safe_add_func_int64_t_s_s+0x61>
    4895:	48 8b 55 f8          	mov    -0x8(%rbp),%rdx
    4899:	48 8b 45 f0          	mov    -0x10(%rbp),%rax
    489d:	48 01 d0             	add    %rdx,%rax
    48a0:	eb 04                	jmp    48a6 <safe_add_func_int64_t_s_s+0x65>
    48a2:	48 8b 45 f8          	mov    -0x8(%rbp),%rax
    48a6:	5d                   	pop    %rbp
    48a7:	c3                   	retq   

00000000000048a8 <safe_sub_func_int64_t_s_s>:
    48a8:	f3 0f 1e fa          	endbr64 
    48ac:	55                   	push   %rbp
    48ad:	48 89 e5             	mov    %rsp,%rbp
    48b0:	48 89 7d f8          	mov    %rdi,-0x8(%rbp)
    48b4:	48 89 75 f0          	mov    %rsi,-0x10(%rbp)
    48b8:	48 8b 45 f8          	mov    -0x8(%rbp),%rax
    48bc:	48 33 45 f0          	xor    -0x10(%rbp),%rax
    48c0:	48 89 c2             	mov    %rax,%rdx
    48c3:	48 8b 45 f8          	mov    -0x8(%rbp),%rax
    48c7:	48 33 45 f0          	xor    -0x10(%rbp),%rax
    48cb:	48 b9 00 00 00 00 00 	movabs $0x8000000000000000,%rcx
    48d2:	00 00 80 
    48d5:	48 21 c8             	and    %rcx,%rax
    48d8:	48 33 45 f8          	xor    -0x8(%rbp),%rax
    48dc:	48 2b 45 f0          	sub    -0x10(%rbp),%rax
    48e0:	48 33 45 f0          	xor    -0x10(%rbp),%rax
    48e4:	48 21 d0             	and    %rdx,%rax
    48e7:	48 85 c0             	test   %rax,%rax
    48ea:	78 0a                	js     48f6 <safe_sub_func_int64_t_s_s+0x4e>
    48ec:	48 8b 45 f8          	mov    -0x8(%rbp),%rax
    48f0:	48 2b 45 f0          	sub    -0x10(%rbp),%rax
    48f4:	eb 04                	jmp    48fa <safe_sub_func_int64_t_s_s+0x52>
    48f6:	48 8b 45 f8          	mov    -0x8(%rbp),%rax
    48fa:	5d                   	pop    %rbp
    48fb:	c3                   	retq   

00000000000048fc <safe_mul_func_int64_t_s_s>:
    48fc:	f3 0f 1e fa          	endbr64 
    4900:	55                   	push   %rbp
    4901:	48 89 e5             	mov    %rsp,%rbp
    4904:	48 89 7d f8          	mov    %rdi,-0x8(%rbp)
    4908:	48 89 75 f0          	mov    %rsi,-0x10(%rbp)
    490c:	48 83 7d f8 00       	cmpq   $0x0,-0x8(%rbp)
    4911:	7e 1d                	jle    4930 <safe_mul_func_int64_t_s_s+0x34>
    4913:	48 83 7d f0 00       	cmpq   $0x0,-0x10(%rbp)
    4918:	7e 16                	jle    4930 <safe_mul_func_int64_t_s_s+0x34>
    491a:	48 b8 ff ff ff ff ff 	movabs $0x7fffffffffffffff,%rax
    4921:	ff ff 7f 
    4924:	48 99                	cqto   
    4926:	48 f7 7d f0          	idivq  -0x10(%rbp)
    492a:	48 39 45 f8          	cmp    %rax,-0x8(%rbp)
    492e:	7f 7e                	jg     49ae <safe_mul_func_int64_t_s_s+0xb2>
    4930:	48 83 7d f8 00       	cmpq   $0x0,-0x8(%rbp)
    4935:	7e 1d                	jle    4954 <safe_mul_func_int64_t_s_s+0x58>
    4937:	48 83 7d f0 00       	cmpq   $0x0,-0x10(%rbp)
    493c:	7f 16                	jg     4954 <safe_mul_func_int64_t_s_s+0x58>
    493e:	48 b8 00 00 00 00 00 	movabs $0x8000000000000000,%rax
    4945:	00 00 80 
    4948:	48 99                	cqto   
    494a:	48 f7 7d f8          	idivq  -0x8(%rbp)
    494e:	48 39 45 f0          	cmp    %rax,-0x10(%rbp)
    4952:	7c 5a                	jl     49ae <safe_mul_func_int64_t_s_s+0xb2>
    4954:	48 83 7d f8 00       	cmpq   $0x0,-0x8(%rbp)
    4959:	7f 1d                	jg     4978 <safe_mul_func_int64_t_s_s+0x7c>
    495b:	48 83 7d f0 00       	cmpq   $0x0,-0x10(%rbp)
    4960:	7e 16                	jle    4978 <safe_mul_func_int64_t_s_s+0x7c>
    4962:	48 b8 00 00 00 00 00 	movabs $0x8000000000000000,%rax
    4969:	00 00 80 
    496c:	48 99                	cqto   
    496e:	48 f7 7d f0          	idivq  -0x10(%rbp)
    4972:	48 39 45 f8          	cmp    %rax,-0x8(%rbp)
    4976:	7c 36                	jl     49ae <safe_mul_func_int64_t_s_s+0xb2>
    4978:	48 83 7d f8 00       	cmpq   $0x0,-0x8(%rbp)
    497d:	7f 24                	jg     49a3 <safe_mul_func_int64_t_s_s+0xa7>
    497f:	48 83 7d f0 00       	cmpq   $0x0,-0x10(%rbp)
    4984:	7f 1d                	jg     49a3 <safe_mul_func_int64_t_s_s+0xa7>
    4986:	48 83 7d f8 00       	cmpq   $0x0,-0x8(%rbp)
    498b:	74 16                	je     49a3 <safe_mul_func_int64_t_s_s+0xa7>
    498d:	48 b8 ff ff ff ff ff 	movabs $0x7fffffffffffffff,%rax
    4994:	ff ff 7f 
    4997:	48 99                	cqto   
    4999:	48 f7 7d f8          	idivq  -0x8(%rbp)
    499d:	48 39 45 f0          	cmp    %rax,-0x10(%rbp)
    49a1:	7c 0b                	jl     49ae <safe_mul_func_int64_t_s_s+0xb2>
    49a3:	48 8b 45 f8          	mov    -0x8(%rbp),%rax
    49a7:	48 0f af 45 f0       	imul   -0x10(%rbp),%rax
    49ac:	eb 04                	jmp    49b2 <safe_mul_func_int64_t_s_s+0xb6>
    49ae:	48 8b 45 f8          	mov    -0x8(%rbp),%rax
    49b2:	5d                   	pop    %rbp
    49b3:	c3                   	retq   

00000000000049b4 <safe_mod_func_int64_t_s_s>:
    49b4:	f3 0f 1e fa          	endbr64 
    49b8:	55                   	push   %rbp
    49b9:	48 89 e5             	mov    %rsp,%rbp
    49bc:	48 89 7d f8          	mov    %rdi,-0x8(%rbp)
    49c0:	48 89 75 f0          	mov    %rsi,-0x10(%rbp)
    49c4:	48 83 7d f0 00       	cmpq   $0x0,-0x10(%rbp)
    49c9:	74 26                	je     49f1 <safe_mod_func_int64_t_s_s+0x3d>
    49cb:	48 b8 00 00 00 00 00 	movabs $0x8000000000000000,%rax
    49d2:	00 00 80 
    49d5:	48 39 45 f8          	cmp    %rax,-0x8(%rbp)
    49d9:	75 07                	jne    49e2 <safe_mod_func_int64_t_s_s+0x2e>
    49db:	48 83 7d f0 ff       	cmpq   $0xffffffffffffffff,-0x10(%rbp)
    49e0:	74 0f                	je     49f1 <safe_mod_func_int64_t_s_s+0x3d>
    49e2:	48 8b 45 f8          	mov    -0x8(%rbp),%rax
    49e6:	48 99                	cqto   
    49e8:	48 f7 7d f0          	idivq  -0x10(%rbp)
    49ec:	48 89 d0             	mov    %rdx,%rax
    49ef:	eb 04                	jmp    49f5 <safe_mod_func_int64_t_s_s+0x41>
    49f1:	48 8b 45 f8          	mov    -0x8(%rbp),%rax
    49f5:	5d                   	pop    %rbp
    49f6:	c3                   	retq   

00000000000049f7 <safe_div_func_int64_t_s_s>:
    49f7:	f3 0f 1e fa          	endbr64 
    49fb:	55                   	push   %rbp
    49fc:	48 89 e5             	mov    %rsp,%rbp
    49ff:	48 89 7d f8          	mov    %rdi,-0x8(%rbp)
    4a03:	48 89 75 f0          	mov    %rsi,-0x10(%rbp)
    4a07:	48 83 7d f0 00       	cmpq   $0x0,-0x10(%rbp)
    4a0c:	74 23                	je     4a31 <safe_div_func_int64_t_s_s+0x3a>
    4a0e:	48 b8 00 00 00 00 00 	movabs $0x8000000000000000,%rax
    4a15:	00 00 80 
    4a18:	48 39 45 f8          	cmp    %rax,-0x8(%rbp)
    4a1c:	75 07                	jne    4a25 <safe_div_func_int64_t_s_s+0x2e>
    4a1e:	48 83 7d f0 ff       	cmpq   $0xffffffffffffffff,-0x10(%rbp)
    4a23:	74 0c                	je     4a31 <safe_div_func_int64_t_s_s+0x3a>
    4a25:	48 8b 45 f8          	mov    -0x8(%rbp),%rax
    4a29:	48 99                	cqto   
    4a2b:	48 f7 7d f0          	idivq  -0x10(%rbp)
    4a2f:	eb 04                	jmp    4a35 <safe_div_func_int64_t_s_s+0x3e>
    4a31:	48 8b 45 f8          	mov    -0x8(%rbp),%rax
    4a35:	5d                   	pop    %rbp
    4a36:	c3                   	retq   

0000000000004a37 <safe_lshift_func_int64_t_s_s>:
    4a37:	f3 0f 1e fa          	endbr64 
    4a3b:	55                   	push   %rbp
    4a3c:	48 89 e5             	mov    %rsp,%rbp
    4a3f:	48 89 7d f8          	mov    %rdi,-0x8(%rbp)
    4a43:	89 75 f4             	mov    %esi,-0xc(%rbp)
    4a46:	48 83 7d f8 00       	cmpq   $0x0,-0x8(%rbp)
    4a4b:	78 38                	js     4a85 <safe_lshift_func_int64_t_s_s+0x4e>
    4a4d:	83 7d f4 00          	cmpl   $0x0,-0xc(%rbp)
    4a51:	78 32                	js     4a85 <safe_lshift_func_int64_t_s_s+0x4e>
    4a53:	83 7d f4 1f          	cmpl   $0x1f,-0xc(%rbp)
    4a57:	7f 2c                	jg     4a85 <safe_lshift_func_int64_t_s_s+0x4e>
    4a59:	8b 45 f4             	mov    -0xc(%rbp),%eax
    4a5c:	48 ba ff ff ff ff ff 	movabs $0x7fffffffffffffff,%rdx
    4a63:	ff ff 7f 
    4a66:	89 c1                	mov    %eax,%ecx
    4a68:	48 d3 fa             	sar    %cl,%rdx
    4a6b:	48 89 d0             	mov    %rdx,%rax
    4a6e:	48 39 45 f8          	cmp    %rax,-0x8(%rbp)
    4a72:	7f 11                	jg     4a85 <safe_lshift_func_int64_t_s_s+0x4e>
    4a74:	8b 45 f4             	mov    -0xc(%rbp),%eax
    4a77:	48 8b 55 f8          	mov    -0x8(%rbp),%rdx
    4a7b:	89 c1                	mov    %eax,%ecx
    4a7d:	48 d3 e2             	shl    %cl,%rdx
    4a80:	48 89 d0             	mov    %rdx,%rax
    4a83:	eb 04                	jmp    4a89 <safe_lshift_func_int64_t_s_s+0x52>
    4a85:	48 8b 45 f8          	mov    -0x8(%rbp),%rax
    4a89:	5d                   	pop    %rbp
    4a8a:	c3                   	retq   

0000000000004a8b <safe_lshift_func_int64_t_s_u>:
    4a8b:	f3 0f 1e fa          	endbr64 
    4a8f:	55                   	push   %rbp
    4a90:	48 89 e5             	mov    %rsp,%rbp
    4a93:	48 89 7d f8          	mov    %rdi,-0x8(%rbp)
    4a97:	89 75 f4             	mov    %esi,-0xc(%rbp)
    4a9a:	48 83 7d f8 00       	cmpq   $0x0,-0x8(%rbp)
    4a9f:	78 32                	js     4ad3 <safe_lshift_func_int64_t_s_u+0x48>
    4aa1:	83 7d f4 1f          	cmpl   $0x1f,-0xc(%rbp)
    4aa5:	77 2c                	ja     4ad3 <safe_lshift_func_int64_t_s_u+0x48>
    4aa7:	8b 45 f4             	mov    -0xc(%rbp),%eax
    4aaa:	48 ba ff ff ff ff ff 	movabs $0x7fffffffffffffff,%rdx
    4ab1:	ff ff 7f 
    4ab4:	89 c1                	mov    %eax,%ecx
    4ab6:	48 d3 fa             	sar    %cl,%rdx
    4ab9:	48 89 d0             	mov    %rdx,%rax
    4abc:	48 39 45 f8          	cmp    %rax,-0x8(%rbp)
    4ac0:	7f 11                	jg     4ad3 <safe_lshift_func_int64_t_s_u+0x48>
    4ac2:	8b 45 f4             	mov    -0xc(%rbp),%eax
    4ac5:	48 8b 55 f8          	mov    -0x8(%rbp),%rdx
    4ac9:	89 c1                	mov    %eax,%ecx
    4acb:	48 d3 e2             	shl    %cl,%rdx
    4ace:	48 89 d0             	mov    %rdx,%rax
    4ad1:	eb 04                	jmp    4ad7 <safe_lshift_func_int64_t_s_u+0x4c>
    4ad3:	48 8b 45 f8          	mov    -0x8(%rbp),%rax
    4ad7:	5d                   	pop    %rbp
    4ad8:	c3                   	retq   

0000000000004ad9 <safe_rshift_func_int64_t_s_s>:
    4ad9:	f3 0f 1e fa          	endbr64 
    4add:	55                   	push   %rbp
    4ade:	48 89 e5             	mov    %rsp,%rbp
    4ae1:	48 89 7d f8          	mov    %rdi,-0x8(%rbp)
    4ae5:	89 75 f4             	mov    %esi,-0xc(%rbp)
    4ae8:	48 83 7d f8 00       	cmpq   $0x0,-0x8(%rbp)
    4aed:	78 1d                	js     4b0c <safe_rshift_func_int64_t_s_s+0x33>
    4aef:	83 7d f4 00          	cmpl   $0x0,-0xc(%rbp)
    4af3:	78 17                	js     4b0c <safe_rshift_func_int64_t_s_s+0x33>
    4af5:	83 7d f4 1f          	cmpl   $0x1f,-0xc(%rbp)
    4af9:	7f 11                	jg     4b0c <safe_rshift_func_int64_t_s_s+0x33>
    4afb:	8b 45 f4             	mov    -0xc(%rbp),%eax
    4afe:	48 8b 55 f8          	mov    -0x8(%rbp),%rdx
    4b02:	89 c1                	mov    %eax,%ecx
    4b04:	48 d3 fa             	sar    %cl,%rdx
    4b07:	48 89 d0             	mov    %rdx,%rax
    4b0a:	eb 04                	jmp    4b10 <safe_rshift_func_int64_t_s_s+0x37>
    4b0c:	48 8b 45 f8          	mov    -0x8(%rbp),%rax
    4b10:	5d                   	pop    %rbp
    4b11:	c3                   	retq   

0000000000004b12 <safe_rshift_func_int64_t_s_u>:
    4b12:	f3 0f 1e fa          	endbr64 
    4b16:	55                   	push   %rbp
    4b17:	48 89 e5             	mov    %rsp,%rbp
    4b1a:	48 89 7d f8          	mov    %rdi,-0x8(%rbp)
    4b1e:	89 75 f4             	mov    %esi,-0xc(%rbp)
    4b21:	48 83 7d f8 00       	cmpq   $0x0,-0x8(%rbp)
    4b26:	78 17                	js     4b3f <safe_rshift_func_int64_t_s_u+0x2d>
    4b28:	83 7d f4 1f          	cmpl   $0x1f,-0xc(%rbp)
    4b2c:	77 11                	ja     4b3f <safe_rshift_func_int64_t_s_u+0x2d>
    4b2e:	8b 45 f4             	mov    -0xc(%rbp),%eax
    4b31:	48 8b 55 f8          	mov    -0x8(%rbp),%rdx
    4b35:	89 c1                	mov    %eax,%ecx
    4b37:	48 d3 fa             	sar    %cl,%rdx
    4b3a:	48 89 d0             	mov    %rdx,%rax
    4b3d:	eb 04                	jmp    4b43 <safe_rshift_func_int64_t_s_u+0x31>
    4b3f:	48 8b 45 f8          	mov    -0x8(%rbp),%rax
    4b43:	5d                   	pop    %rbp
    4b44:	c3                   	retq   

0000000000004b45 <safe_unary_minus_func_uint8_t_u>:
    4b45:	f3 0f 1e fa          	endbr64 
    4b49:	55                   	push   %rbp
    4b4a:	48 89 e5             	mov    %rsp,%rbp
    4b4d:	89 f8                	mov    %edi,%eax
    4b4f:	88 45 fc             	mov    %al,-0x4(%rbp)
    4b52:	0f b6 45 fc          	movzbl -0x4(%rbp),%eax
    4b56:	f7 d8                	neg    %eax
    4b58:	5d                   	pop    %rbp
    4b59:	c3                   	retq   

0000000000004b5a <safe_add_func_uint8_t_u_u>:
    4b5a:	f3 0f 1e fa          	endbr64 
    4b5e:	55                   	push   %rbp
    4b5f:	48 89 e5             	mov    %rsp,%rbp
    4b62:	89 fa                	mov    %edi,%edx
    4b64:	89 f0                	mov    %esi,%eax
    4b66:	88 55 fc             	mov    %dl,-0x4(%rbp)
    4b69:	88 45 f8             	mov    %al,-0x8(%rbp)
    4b6c:	0f b6 55 fc          	movzbl -0x4(%rbp),%edx
    4b70:	0f b6 45 f8          	movzbl -0x8(%rbp),%eax
    4b74:	01 d0                	add    %edx,%eax
    4b76:	5d                   	pop    %rbp
    4b77:	c3                   	retq   

0000000000004b78 <safe_sub_func_uint8_t_u_u>:
    4b78:	f3 0f 1e fa          	endbr64 
    4b7c:	55                   	push   %rbp
    4b7d:	48 89 e5             	mov    %rsp,%rbp
    4b80:	89 fa                	mov    %edi,%edx
    4b82:	89 f0                	mov    %esi,%eax
    4b84:	88 55 fc             	mov    %dl,-0x4(%rbp)
    4b87:	88 45 f8             	mov    %al,-0x8(%rbp)
    4b8a:	0f b6 45 fc          	movzbl -0x4(%rbp),%eax
    4b8e:	2a 45 f8             	sub    -0x8(%rbp),%al
    4b91:	5d                   	pop    %rbp
    4b92:	c3                   	retq   

0000000000004b93 <safe_mul_func_uint8_t_u_u>:
    4b93:	f3 0f 1e fa          	endbr64 
    4b97:	55                   	push   %rbp
    4b98:	48 89 e5             	mov    %rsp,%rbp
    4b9b:	89 fa                	mov    %edi,%edx
    4b9d:	89 f0                	mov    %esi,%eax
    4b9f:	88 55 fc             	mov    %dl,-0x4(%rbp)
    4ba2:	88 45 f8             	mov    %al,-0x8(%rbp)
    4ba5:	0f b6 45 fc          	movzbl -0x4(%rbp),%eax
    4ba9:	f6 65 f8             	mulb   -0x8(%rbp)
    4bac:	5d                   	pop    %rbp
    4bad:	c3                   	retq   

0000000000004bae <safe_mod_func_uint8_t_u_u>:
    4bae:	f3 0f 1e fa          	endbr64 
    4bb2:	55                   	push   %rbp
    4bb3:	48 89 e5             	mov    %rsp,%rbp
    4bb6:	89 fa                	mov    %edi,%edx
    4bb8:	89 f0                	mov    %esi,%eax
    4bba:	88 55 fc             	mov    %dl,-0x4(%rbp)
    4bbd:	88 45 f8             	mov    %al,-0x8(%rbp)
    4bc0:	80 7d f8 00          	cmpb   $0x0,-0x8(%rbp)
    4bc4:	74 0f                	je     4bd5 <safe_mod_func_uint8_t_u_u+0x27>
    4bc6:	0f b6 45 fc          	movzbl -0x4(%rbp),%eax
    4bca:	0f b6 c0             	movzbl %al,%eax
    4bcd:	f6 75 f8             	divb   -0x8(%rbp)
    4bd0:	0f b6 c4             	movzbl %ah,%eax
    4bd3:	eb 04                	jmp    4bd9 <safe_mod_func_uint8_t_u_u+0x2b>
    4bd5:	0f b6 45 fc          	movzbl -0x4(%rbp),%eax
    4bd9:	5d                   	pop    %rbp
    4bda:	c3                   	retq   

0000000000004bdb <safe_div_func_uint8_t_u_u>:
    4bdb:	f3 0f 1e fa          	endbr64 
    4bdf:	55                   	push   %rbp
    4be0:	48 89 e5             	mov    %rsp,%rbp
    4be3:	89 fa                	mov    %edi,%edx
    4be5:	89 f0                	mov    %esi,%eax
    4be7:	88 55 fc             	mov    %dl,-0x4(%rbp)
    4bea:	88 45 f8             	mov    %al,-0x8(%rbp)
    4bed:	80 7d f8 00          	cmpb   $0x0,-0x8(%rbp)
    4bf1:	74 0c                	je     4bff <safe_div_func_uint8_t_u_u+0x24>
    4bf3:	0f b6 45 fc          	movzbl -0x4(%rbp),%eax
    4bf7:	0f b6 c0             	movzbl %al,%eax
    4bfa:	f6 75 f8             	divb   -0x8(%rbp)
    4bfd:	eb 04                	jmp    4c03 <safe_div_func_uint8_t_u_u+0x28>
    4bff:	0f b6 45 fc          	movzbl -0x4(%rbp),%eax
    4c03:	5d                   	pop    %rbp
    4c04:	c3                   	retq   

0000000000004c05 <safe_lshift_func_uint8_t_u_s>:
    4c05:	f3 0f 1e fa          	endbr64 
    4c09:	55                   	push   %rbp
    4c0a:	48 89 e5             	mov    %rsp,%rbp
    4c0d:	89 f8                	mov    %edi,%eax
    4c0f:	89 75 f8             	mov    %esi,-0x8(%rbp)
    4c12:	88 45 fc             	mov    %al,-0x4(%rbp)
    4c15:	83 7d f8 00          	cmpl   $0x0,-0x8(%rbp)
    4c19:	78 2b                	js     4c46 <safe_lshift_func_uint8_t_u_s+0x41>
    4c1b:	83 7d f8 1f          	cmpl   $0x1f,-0x8(%rbp)
    4c1f:	7f 25                	jg     4c46 <safe_lshift_func_uint8_t_u_s+0x41>
    4c21:	0f b6 55 fc          	movzbl -0x4(%rbp),%edx
    4c25:	8b 45 f8             	mov    -0x8(%rbp),%eax
    4c28:	be ff 00 00 00       	mov    $0xff,%esi
    4c2d:	89 c1                	mov    %eax,%ecx
    4c2f:	d3 fe                	sar    %cl,%esi
    4c31:	89 f0                	mov    %esi,%eax
    4c33:	39 c2                	cmp    %eax,%edx
    4c35:	7f 0f                	jg     4c46 <safe_lshift_func_uint8_t_u_s+0x41>
    4c37:	0f b6 55 fc          	movzbl -0x4(%rbp),%edx
    4c3b:	8b 45 f8             	mov    -0x8(%rbp),%eax
    4c3e:	89 c1                	mov    %eax,%ecx
    4c40:	d3 e2                	shl    %cl,%edx
    4c42:	89 d0                	mov    %edx,%eax
    4c44:	eb 04                	jmp    4c4a <safe_lshift_func_uint8_t_u_s+0x45>
    4c46:	0f b6 45 fc          	movzbl -0x4(%rbp),%eax
    4c4a:	5d                   	pop    %rbp
    4c4b:	c3                   	retq   

0000000000004c4c <safe_lshift_func_uint8_t_u_u>:
    4c4c:	f3 0f 1e fa          	endbr64 
    4c50:	55                   	push   %rbp
    4c51:	48 89 e5             	mov    %rsp,%rbp
    4c54:	89 f8                	mov    %edi,%eax
    4c56:	89 75 f8             	mov    %esi,-0x8(%rbp)
    4c59:	88 45 fc             	mov    %al,-0x4(%rbp)
    4c5c:	83 7d f8 1f          	cmpl   $0x1f,-0x8(%rbp)
    4c60:	77 25                	ja     4c87 <safe_lshift_func_uint8_t_u_u+0x3b>
    4c62:	0f b6 55 fc          	movzbl -0x4(%rbp),%edx
    4c66:	8b 45 f8             	mov    -0x8(%rbp),%eax
    4c69:	be ff 00 00 00       	mov    $0xff,%esi
    4c6e:	89 c1                	mov    %eax,%ecx
    4c70:	d3 fe                	sar    %cl,%esi
    4c72:	89 f0                	mov    %esi,%eax
    4c74:	39 c2                	cmp    %eax,%edx
    4c76:	7f 0f                	jg     4c87 <safe_lshift_func_uint8_t_u_u+0x3b>
    4c78:	0f b6 55 fc          	movzbl -0x4(%rbp),%edx
    4c7c:	8b 45 f8             	mov    -0x8(%rbp),%eax
    4c7f:	89 c1                	mov    %eax,%ecx
    4c81:	d3 e2                	shl    %cl,%edx
    4c83:	89 d0                	mov    %edx,%eax
    4c85:	eb 04                	jmp    4c8b <safe_lshift_func_uint8_t_u_u+0x3f>
    4c87:	0f b6 45 fc          	movzbl -0x4(%rbp),%eax
    4c8b:	5d                   	pop    %rbp
    4c8c:	c3                   	retq   

0000000000004c8d <safe_rshift_func_uint8_t_u_s>:
    4c8d:	f3 0f 1e fa          	endbr64 
    4c91:	55                   	push   %rbp
    4c92:	48 89 e5             	mov    %rsp,%rbp
    4c95:	89 f8                	mov    %edi,%eax
    4c97:	89 75 f8             	mov    %esi,-0x8(%rbp)
    4c9a:	88 45 fc             	mov    %al,-0x4(%rbp)
    4c9d:	83 7d f8 00          	cmpl   $0x0,-0x8(%rbp)
    4ca1:	78 15                	js     4cb8 <safe_rshift_func_uint8_t_u_s+0x2b>
    4ca3:	83 7d f8 1f          	cmpl   $0x1f,-0x8(%rbp)
    4ca7:	7f 0f                	jg     4cb8 <safe_rshift_func_uint8_t_u_s+0x2b>
    4ca9:	0f b6 55 fc          	movzbl -0x4(%rbp),%edx
    4cad:	8b 45 f8             	mov    -0x8(%rbp),%eax
    4cb0:	89 c1                	mov    %eax,%ecx
    4cb2:	d3 fa                	sar    %cl,%edx
    4cb4:	89 d0                	mov    %edx,%eax
    4cb6:	eb 04                	jmp    4cbc <safe_rshift_func_uint8_t_u_s+0x2f>
    4cb8:	0f b6 45 fc          	movzbl -0x4(%rbp),%eax
    4cbc:	5d                   	pop    %rbp
    4cbd:	c3                   	retq   

0000000000004cbe <safe_rshift_func_uint8_t_u_u>:
    4cbe:	f3 0f 1e fa          	endbr64 
    4cc2:	55                   	push   %rbp
    4cc3:	48 89 e5             	mov    %rsp,%rbp
    4cc6:	89 f8                	mov    %edi,%eax
    4cc8:	89 75 f8             	mov    %esi,-0x8(%rbp)
    4ccb:	88 45 fc             	mov    %al,-0x4(%rbp)
    4cce:	83 7d f8 1f          	cmpl   $0x1f,-0x8(%rbp)
    4cd2:	77 0f                	ja     4ce3 <safe_rshift_func_uint8_t_u_u+0x25>
    4cd4:	0f b6 55 fc          	movzbl -0x4(%rbp),%edx
    4cd8:	8b 45 f8             	mov    -0x8(%rbp),%eax
    4cdb:	89 c1                	mov    %eax,%ecx
    4cdd:	d3 fa                	sar    %cl,%edx
    4cdf:	89 d0                	mov    %edx,%eax
    4ce1:	eb 04                	jmp    4ce7 <safe_rshift_func_uint8_t_u_u+0x29>
    4ce3:	0f b6 45 fc          	movzbl -0x4(%rbp),%eax
    4ce7:	5d                   	pop    %rbp
    4ce8:	c3                   	retq   

0000000000004ce9 <safe_unary_minus_func_uint16_t_u>:
    4ce9:	f3 0f 1e fa          	endbr64 
    4ced:	55                   	push   %rbp
    4cee:	48 89 e5             	mov    %rsp,%rbp
    4cf1:	89 f8                	mov    %edi,%eax
    4cf3:	66 89 45 fc          	mov    %ax,-0x4(%rbp)
    4cf7:	0f b7 45 fc          	movzwl -0x4(%rbp),%eax
    4cfb:	f7 d8                	neg    %eax
    4cfd:	5d                   	pop    %rbp
    4cfe:	c3                   	retq   

0000000000004cff <safe_add_func_uint16_t_u_u>:
    4cff:	f3 0f 1e fa          	endbr64 
    4d03:	55                   	push   %rbp
    4d04:	48 89 e5             	mov    %rsp,%rbp
    4d07:	89 fa                	mov    %edi,%edx
    4d09:	89 f0                	mov    %esi,%eax
    4d0b:	66 89 55 fc          	mov    %dx,-0x4(%rbp)
    4d0f:	66 89 45 f8          	mov    %ax,-0x8(%rbp)
    4d13:	0f b7 55 fc          	movzwl -0x4(%rbp),%edx
    4d17:	0f b7 45 f8          	movzwl -0x8(%rbp),%eax
    4d1b:	01 d0                	add    %edx,%eax
    4d1d:	5d                   	pop    %rbp
    4d1e:	c3                   	retq   

0000000000004d1f <safe_sub_func_uint16_t_u_u>:
    4d1f:	f3 0f 1e fa          	endbr64 
    4d23:	55                   	push   %rbp
    4d24:	48 89 e5             	mov    %rsp,%rbp
    4d27:	89 fa                	mov    %edi,%edx
    4d29:	89 f0                	mov    %esi,%eax
    4d2b:	66 89 55 fc          	mov    %dx,-0x4(%rbp)
    4d2f:	66 89 45 f8          	mov    %ax,-0x8(%rbp)
    4d33:	0f b7 45 fc          	movzwl -0x4(%rbp),%eax
    4d37:	66 2b 45 f8          	sub    -0x8(%rbp),%ax
    4d3b:	5d                   	pop    %rbp
    4d3c:	c3                   	retq   

0000000000004d3d <safe_mul_func_uint16_t_u_u>:
    4d3d:	f3 0f 1e fa          	endbr64 
    4d41:	55                   	push   %rbp
    4d42:	48 89 e5             	mov    %rsp,%rbp
    4d45:	89 fa                	mov    %edi,%edx
    4d47:	89 f0                	mov    %esi,%eax
    4d49:	66 89 55 fc          	mov    %dx,-0x4(%rbp)
    4d4d:	66 89 45 f8          	mov    %ax,-0x8(%rbp)
    4d51:	0f b7 45 fc          	movzwl -0x4(%rbp),%eax
    4d55:	66 0f af 45 f8       	imul   -0x8(%rbp),%ax
    4d5a:	5d                   	pop    %rbp
    4d5b:	c3                   	retq   

0000000000004d5c <safe_mod_func_uint16_t_u_u>:
    4d5c:	f3 0f 1e fa          	endbr64 
    4d60:	55                   	push   %rbp
    4d61:	48 89 e5             	mov    %rsp,%rbp
    4d64:	89 fa                	mov    %edi,%edx
    4d66:	89 f0                	mov    %esi,%eax
    4d68:	66 89 55 fc          	mov    %dx,-0x4(%rbp)
    4d6c:	66 89 45 f8          	mov    %ax,-0x8(%rbp)
    4d70:	66 83 7d f8 00       	cmpw   $0x0,-0x8(%rbp)
    4d75:	74 11                	je     4d88 <safe_mod_func_uint16_t_u_u+0x2c>
    4d77:	0f b7 45 fc          	movzwl -0x4(%rbp),%eax
    4d7b:	ba 00 00 00 00       	mov    $0x0,%edx
    4d80:	66 f7 75 f8          	divw   -0x8(%rbp)
    4d84:	89 d0                	mov    %edx,%eax
    4d86:	eb 04                	jmp    4d8c <safe_mod_func_uint16_t_u_u+0x30>
    4d88:	0f b7 45 fc          	movzwl -0x4(%rbp),%eax
    4d8c:	5d                   	pop    %rbp
    4d8d:	c3                   	retq   

0000000000004d8e <safe_div_func_uint16_t_u_u>:
    4d8e:	f3 0f 1e fa          	endbr64 
    4d92:	55                   	push   %rbp
    4d93:	48 89 e5             	mov    %rsp,%rbp
    4d96:	89 fa                	mov    %edi,%edx
    4d98:	89 f0                	mov    %esi,%eax
    4d9a:	66 89 55 fc          	mov    %dx,-0x4(%rbp)
    4d9e:	66 89 45 f8          	mov    %ax,-0x8(%rbp)
    4da2:	66 83 7d f8 00       	cmpw   $0x0,-0x8(%rbp)
    4da7:	74 0f                	je     4db8 <safe_div_func_uint16_t_u_u+0x2a>
    4da9:	0f b7 45 fc          	movzwl -0x4(%rbp),%eax
    4dad:	ba 00 00 00 00       	mov    $0x0,%edx
    4db2:	66 f7 75 f8          	divw   -0x8(%rbp)
    4db6:	eb 04                	jmp    4dbc <safe_div_func_uint16_t_u_u+0x2e>
    4db8:	0f b7 45 fc          	movzwl -0x4(%rbp),%eax
    4dbc:	5d                   	pop    %rbp
    4dbd:	c3                   	retq   

0000000000004dbe <safe_lshift_func_uint16_t_u_s>:
    4dbe:	f3 0f 1e fa          	endbr64 
    4dc2:	55                   	push   %rbp
    4dc3:	48 89 e5             	mov    %rsp,%rbp
    4dc6:	89 f8                	mov    %edi,%eax
    4dc8:	89 75 f8             	mov    %esi,-0x8(%rbp)
    4dcb:	66 89 45 fc          	mov    %ax,-0x4(%rbp)
    4dcf:	83 7d f8 00          	cmpl   $0x0,-0x8(%rbp)
    4dd3:	78 2b                	js     4e00 <safe_lshift_func_uint16_t_u_s+0x42>
    4dd5:	83 7d f8 1f          	cmpl   $0x1f,-0x8(%rbp)
    4dd9:	7f 25                	jg     4e00 <safe_lshift_func_uint16_t_u_s+0x42>
    4ddb:	0f b7 55 fc          	movzwl -0x4(%rbp),%edx
    4ddf:	8b 45 f8             	mov    -0x8(%rbp),%eax
    4de2:	be ff ff 00 00       	mov    $0xffff,%esi
    4de7:	89 c1                	mov    %eax,%ecx
    4de9:	d3 fe                	sar    %cl,%esi
    4deb:	89 f0                	mov    %esi,%eax
    4ded:	39 c2                	cmp    %eax,%edx
    4def:	7f 0f                	jg     4e00 <safe_lshift_func_uint16_t_u_s+0x42>
    4df1:	0f b7 55 fc          	movzwl -0x4(%rbp),%edx
    4df5:	8b 45 f8             	mov    -0x8(%rbp),%eax
    4df8:	89 c1                	mov    %eax,%ecx
    4dfa:	d3 e2                	shl    %cl,%edx
    4dfc:	89 d0                	mov    %edx,%eax
    4dfe:	eb 04                	jmp    4e04 <safe_lshift_func_uint16_t_u_s+0x46>
    4e00:	0f b7 45 fc          	movzwl -0x4(%rbp),%eax
    4e04:	5d                   	pop    %rbp
    4e05:	c3                   	retq   

0000000000004e06 <safe_lshift_func_uint16_t_u_u>:
    4e06:	f3 0f 1e fa          	endbr64 
    4e0a:	55                   	push   %rbp
    4e0b:	48 89 e5             	mov    %rsp,%rbp
    4e0e:	89 f8                	mov    %edi,%eax
    4e10:	89 75 f8             	mov    %esi,-0x8(%rbp)
    4e13:	66 89 45 fc          	mov    %ax,-0x4(%rbp)
    4e17:	83 7d f8 1f          	cmpl   $0x1f,-0x8(%rbp)
    4e1b:	77 25                	ja     4e42 <safe_lshift_func_uint16_t_u_u+0x3c>
    4e1d:	0f b7 55 fc          	movzwl -0x4(%rbp),%edx
    4e21:	8b 45 f8             	mov    -0x8(%rbp),%eax
    4e24:	be ff ff 00 00       	mov    $0xffff,%esi
    4e29:	89 c1                	mov    %eax,%ecx
    4e2b:	d3 fe                	sar    %cl,%esi
    4e2d:	89 f0                	mov    %esi,%eax
    4e2f:	39 c2                	cmp    %eax,%edx
    4e31:	7f 0f                	jg     4e42 <safe_lshift_func_uint16_t_u_u+0x3c>
    4e33:	0f b7 55 fc          	movzwl -0x4(%rbp),%edx
    4e37:	8b 45 f8             	mov    -0x8(%rbp),%eax
    4e3a:	89 c1                	mov    %eax,%ecx
    4e3c:	d3 e2                	shl    %cl,%edx
    4e3e:	89 d0                	mov    %edx,%eax
    4e40:	eb 04                	jmp    4e46 <safe_lshift_func_uint16_t_u_u+0x40>
    4e42:	0f b7 45 fc          	movzwl -0x4(%rbp),%eax
    4e46:	5d                   	pop    %rbp
    4e47:	c3                   	retq   

0000000000004e48 <safe_rshift_func_uint16_t_u_s>:
    4e48:	f3 0f 1e fa          	endbr64 
    4e4c:	55                   	push   %rbp
    4e4d:	48 89 e5             	mov    %rsp,%rbp
    4e50:	89 f8                	mov    %edi,%eax
    4e52:	89 75 f8             	mov    %esi,-0x8(%rbp)
    4e55:	66 89 45 fc          	mov    %ax,-0x4(%rbp)
    4e59:	83 7d f8 00          	cmpl   $0x0,-0x8(%rbp)
    4e5d:	78 15                	js     4e74 <safe_rshift_func_uint16_t_u_s+0x2c>
    4e5f:	83 7d f8 1f          	cmpl   $0x1f,-0x8(%rbp)
    4e63:	7f 0f                	jg     4e74 <safe_rshift_func_uint16_t_u_s+0x2c>
    4e65:	0f b7 55 fc          	movzwl -0x4(%rbp),%edx
    4e69:	8b 45 f8             	mov    -0x8(%rbp),%eax
    4e6c:	89 c1                	mov    %eax,%ecx
    4e6e:	d3 fa                	sar    %cl,%edx
    4e70:	89 d0                	mov    %edx,%eax
    4e72:	eb 04                	jmp    4e78 <safe_rshift_func_uint16_t_u_s+0x30>
    4e74:	0f b7 45 fc          	movzwl -0x4(%rbp),%eax
    4e78:	5d                   	pop    %rbp
    4e79:	c3                   	retq   

0000000000004e7a <safe_rshift_func_uint16_t_u_u>:
    4e7a:	f3 0f 1e fa          	endbr64 
    4e7e:	55                   	push   %rbp
    4e7f:	48 89 e5             	mov    %rsp,%rbp
    4e82:	89 f8                	mov    %edi,%eax
    4e84:	89 75 f8             	mov    %esi,-0x8(%rbp)
    4e87:	66 89 45 fc          	mov    %ax,-0x4(%rbp)
    4e8b:	83 7d f8 1f          	cmpl   $0x1f,-0x8(%rbp)
    4e8f:	77 0f                	ja     4ea0 <safe_rshift_func_uint16_t_u_u+0x26>
    4e91:	0f b7 55 fc          	movzwl -0x4(%rbp),%edx
    4e95:	8b 45 f8             	mov    -0x8(%rbp),%eax
    4e98:	89 c1                	mov    %eax,%ecx
    4e9a:	d3 fa                	sar    %cl,%edx
    4e9c:	89 d0                	mov    %edx,%eax
    4e9e:	eb 04                	jmp    4ea4 <safe_rshift_func_uint16_t_u_u+0x2a>
    4ea0:	0f b7 45 fc          	movzwl -0x4(%rbp),%eax
    4ea4:	5d                   	pop    %rbp
    4ea5:	c3                   	retq   

0000000000004ea6 <safe_unary_minus_func_uint32_t_u>:
    4ea6:	f3 0f 1e fa          	endbr64 
    4eaa:	55                   	push   %rbp
    4eab:	48 89 e5             	mov    %rsp,%rbp
    4eae:	89 7d fc             	mov    %edi,-0x4(%rbp)
    4eb1:	8b 45 fc             	mov    -0x4(%rbp),%eax
    4eb4:	f7 d8                	neg    %eax
    4eb6:	5d                   	pop    %rbp
    4eb7:	c3                   	retq   

0000000000004eb8 <safe_add_func_uint32_t_u_u>:
    4eb8:	f3 0f 1e fa          	endbr64 
    4ebc:	55                   	push   %rbp
    4ebd:	48 89 e5             	mov    %rsp,%rbp
    4ec0:	89 7d fc             	mov    %edi,-0x4(%rbp)
    4ec3:	89 75 f8             	mov    %esi,-0x8(%rbp)
    4ec6:	8b 55 fc             	mov    -0x4(%rbp),%edx
    4ec9:	8b 45 f8             	mov    -0x8(%rbp),%eax
    4ecc:	01 d0                	add    %edx,%eax
    4ece:	5d                   	pop    %rbp
    4ecf:	c3                   	retq   

0000000000004ed0 <safe_sub_func_uint32_t_u_u>:
    4ed0:	f3 0f 1e fa          	endbr64 
    4ed4:	55                   	push   %rbp
    4ed5:	48 89 e5             	mov    %rsp,%rbp
    4ed8:	89 7d fc             	mov    %edi,-0x4(%rbp)
    4edb:	89 75 f8             	mov    %esi,-0x8(%rbp)
    4ede:	8b 45 fc             	mov    -0x4(%rbp),%eax
    4ee1:	2b 45 f8             	sub    -0x8(%rbp),%eax
    4ee4:	5d                   	pop    %rbp
    4ee5:	c3                   	retq   

0000000000004ee6 <safe_mul_func_uint32_t_u_u>:
    4ee6:	f3 0f 1e fa          	endbr64 
    4eea:	55                   	push   %rbp
    4eeb:	48 89 e5             	mov    %rsp,%rbp
    4eee:	89 7d fc             	mov    %edi,-0x4(%rbp)
    4ef1:	89 75 f8             	mov    %esi,-0x8(%rbp)
    4ef4:	8b 45 fc             	mov    -0x4(%rbp),%eax
    4ef7:	0f af 45 f8          	imul   -0x8(%rbp),%eax
    4efb:	5d                   	pop    %rbp
    4efc:	c3                   	retq   

0000000000004efd <safe_mod_func_uint32_t_u_u>:
    4efd:	f3 0f 1e fa          	endbr64 
    4f01:	55                   	push   %rbp
    4f02:	48 89 e5             	mov    %rsp,%rbp
    4f05:	89 7d fc             	mov    %edi,-0x4(%rbp)
    4f08:	89 75 f8             	mov    %esi,-0x8(%rbp)
    4f0b:	83 7d f8 00          	cmpl   $0x0,-0x8(%rbp)
    4f0f:	74 0f                	je     4f20 <safe_mod_func_uint32_t_u_u+0x23>
    4f11:	8b 45 fc             	mov    -0x4(%rbp),%eax
    4f14:	ba 00 00 00 00       	mov    $0x0,%edx
    4f19:	f7 75 f8             	divl   -0x8(%rbp)
    4f1c:	89 d0                	mov    %edx,%eax
    4f1e:	eb 03                	jmp    4f23 <safe_mod_func_uint32_t_u_u+0x26>
    4f20:	8b 45 fc             	mov    -0x4(%rbp),%eax
    4f23:	5d                   	pop    %rbp
    4f24:	c3                   	retq   

0000000000004f25 <safe_div_func_uint32_t_u_u>:
    4f25:	f3 0f 1e fa          	endbr64 
    4f29:	55                   	push   %rbp
    4f2a:	48 89 e5             	mov    %rsp,%rbp
    4f2d:	89 7d fc             	mov    %edi,-0x4(%rbp)
    4f30:	89 75 f8             	mov    %esi,-0x8(%rbp)
    4f33:	83 7d f8 00          	cmpl   $0x0,-0x8(%rbp)
    4f37:	74 0d                	je     4f46 <safe_div_func_uint32_t_u_u+0x21>
    4f39:	8b 45 fc             	mov    -0x4(%rbp),%eax
    4f3c:	ba 00 00 00 00       	mov    $0x0,%edx
    4f41:	f7 75 f8             	divl   -0x8(%rbp)
    4f44:	eb 03                	jmp    4f49 <safe_div_func_uint32_t_u_u+0x24>
    4f46:	8b 45 fc             	mov    -0x4(%rbp),%eax
    4f49:	5d                   	pop    %rbp
    4f4a:	c3                   	retq   

0000000000004f4b <safe_lshift_func_uint32_t_u_s>:
    4f4b:	f3 0f 1e fa          	endbr64 
    4f4f:	55                   	push   %rbp
    4f50:	48 89 e5             	mov    %rsp,%rbp
    4f53:	89 7d fc             	mov    %edi,-0x4(%rbp)
    4f56:	89 75 f8             	mov    %esi,-0x8(%rbp)
    4f59:	83 7d f8 00          	cmpl   $0x0,-0x8(%rbp)
    4f5d:	78 27                	js     4f86 <safe_lshift_func_uint32_t_u_s+0x3b>
    4f5f:	83 7d f8 1f          	cmpl   $0x1f,-0x8(%rbp)
    4f63:	7f 21                	jg     4f86 <safe_lshift_func_uint32_t_u_s+0x3b>
    4f65:	8b 45 f8             	mov    -0x8(%rbp),%eax
    4f68:	ba ff ff ff ff       	mov    $0xffffffff,%edx
    4f6d:	89 c1                	mov    %eax,%ecx
    4f6f:	d3 ea                	shr    %cl,%edx
    4f71:	89 d0                	mov    %edx,%eax
    4f73:	39 45 fc             	cmp    %eax,-0x4(%rbp)
    4f76:	77 0e                	ja     4f86 <safe_lshift_func_uint32_t_u_s+0x3b>
    4f78:	8b 45 f8             	mov    -0x8(%rbp),%eax
    4f7b:	8b 55 fc             	mov    -0x4(%rbp),%edx
    4f7e:	89 c1                	mov    %eax,%ecx
    4f80:	d3 e2                	shl    %cl,%edx
    4f82:	89 d0                	mov    %edx,%eax
    4f84:	eb 03                	jmp    4f89 <safe_lshift_func_uint32_t_u_s+0x3e>
    4f86:	8b 45 fc             	mov    -0x4(%rbp),%eax
    4f89:	5d                   	pop    %rbp
    4f8a:	c3                   	retq   

0000000000004f8b <safe_lshift_func_uint32_t_u_u>:
    4f8b:	f3 0f 1e fa          	endbr64 
    4f8f:	55                   	push   %rbp
    4f90:	48 89 e5             	mov    %rsp,%rbp
    4f93:	89 7d fc             	mov    %edi,-0x4(%rbp)
    4f96:	89 75 f8             	mov    %esi,-0x8(%rbp)
    4f99:	83 7d f8 1f          	cmpl   $0x1f,-0x8(%rbp)
    4f9d:	77 21                	ja     4fc0 <safe_lshift_func_uint32_t_u_u+0x35>
    4f9f:	8b 45 f8             	mov    -0x8(%rbp),%eax
    4fa2:	ba ff ff ff ff       	mov    $0xffffffff,%edx
    4fa7:	89 c1                	mov    %eax,%ecx
    4fa9:	d3 ea                	shr    %cl,%edx
    4fab:	89 d0                	mov    %edx,%eax
    4fad:	39 45 fc             	cmp    %eax,-0x4(%rbp)
    4fb0:	77 0e                	ja     4fc0 <safe_lshift_func_uint32_t_u_u+0x35>
    4fb2:	8b 45 f8             	mov    -0x8(%rbp),%eax
    4fb5:	8b 55 fc             	mov    -0x4(%rbp),%edx
    4fb8:	89 c1                	mov    %eax,%ecx
    4fba:	d3 e2                	shl    %cl,%edx
    4fbc:	89 d0                	mov    %edx,%eax
    4fbe:	eb 03                	jmp    4fc3 <safe_lshift_func_uint32_t_u_u+0x38>
    4fc0:	8b 45 fc             	mov    -0x4(%rbp),%eax
    4fc3:	5d                   	pop    %rbp
    4fc4:	c3                   	retq   

0000000000004fc5 <safe_rshift_func_uint32_t_u_s>:
    4fc5:	f3 0f 1e fa          	endbr64 
    4fc9:	55                   	push   %rbp
    4fca:	48 89 e5             	mov    %rsp,%rbp
    4fcd:	89 7d fc             	mov    %edi,-0x4(%rbp)
    4fd0:	89 75 f8             	mov    %esi,-0x8(%rbp)
    4fd3:	83 7d f8 00          	cmpl   $0x0,-0x8(%rbp)
    4fd7:	78 14                	js     4fed <safe_rshift_func_uint32_t_u_s+0x28>
    4fd9:	83 7d f8 1f          	cmpl   $0x1f,-0x8(%rbp)
    4fdd:	7f 0e                	jg     4fed <safe_rshift_func_uint32_t_u_s+0x28>
    4fdf:	8b 45 f8             	mov    -0x8(%rbp),%eax
    4fe2:	8b 55 fc             	mov    -0x4(%rbp),%edx
    4fe5:	89 c1                	mov    %eax,%ecx
    4fe7:	d3 ea                	shr    %cl,%edx
    4fe9:	89 d0                	mov    %edx,%eax
    4feb:	eb 03                	jmp    4ff0 <safe_rshift_func_uint32_t_u_s+0x2b>
    4fed:	8b 45 fc             	mov    -0x4(%rbp),%eax
    4ff0:	5d                   	pop    %rbp
    4ff1:	c3                   	retq   

0000000000004ff2 <safe_rshift_func_uint32_t_u_u>:
    4ff2:	f3 0f 1e fa          	endbr64 
    4ff6:	55                   	push   %rbp
    4ff7:	48 89 e5             	mov    %rsp,%rbp
    4ffa:	89 7d fc             	mov    %edi,-0x4(%rbp)
    4ffd:	89 75 f8             	mov    %esi,-0x8(%rbp)
    5000:	83 7d f8 1f          	cmpl   $0x1f,-0x8(%rbp)
    5004:	77 0e                	ja     5014 <safe_rshift_func_uint32_t_u_u+0x22>
    5006:	8b 45 f8             	mov    -0x8(%rbp),%eax
    5009:	8b 55 fc             	mov    -0x4(%rbp),%edx
    500c:	89 c1                	mov    %eax,%ecx
    500e:	d3 ea                	shr    %cl,%edx
    5010:	89 d0                	mov    %edx,%eax
    5012:	eb 03                	jmp    5017 <safe_rshift_func_uint32_t_u_u+0x25>
    5014:	8b 45 fc             	mov    -0x4(%rbp),%eax
    5017:	5d                   	pop    %rbp
    5018:	c3                   	retq   

0000000000005019 <safe_unary_minus_func_uint64_t_u>:
    5019:	f3 0f 1e fa          	endbr64 
    501d:	55                   	push   %rbp
    501e:	48 89 e5             	mov    %rsp,%rbp
    5021:	48 89 7d f8          	mov    %rdi,-0x8(%rbp)
    5025:	48 8b 45 f8          	mov    -0x8(%rbp),%rax
    5029:	48 f7 d8             	neg    %rax
    502c:	5d                   	pop    %rbp
    502d:	c3                   	retq   

000000000000502e <safe_add_func_uint64_t_u_u>:
    502e:	f3 0f 1e fa          	endbr64 
    5032:	55                   	push   %rbp
    5033:	48 89 e5             	mov    %rsp,%rbp
    5036:	48 89 7d f8          	mov    %rdi,-0x8(%rbp)
    503a:	48 89 75 f0          	mov    %rsi,-0x10(%rbp)
    503e:	48 8b 55 f8          	mov    -0x8(%rbp),%rdx
    5042:	48 8b 45 f0          	mov    -0x10(%rbp),%rax
    5046:	48 01 d0             	add    %rdx,%rax
    5049:	5d                   	pop    %rbp
    504a:	c3                   	retq   

000000000000504b <safe_sub_func_uint64_t_u_u>:
    504b:	f3 0f 1e fa          	endbr64 
    504f:	55                   	push   %rbp
    5050:	48 89 e5             	mov    %rsp,%rbp
    5053:	48 89 7d f8          	mov    %rdi,-0x8(%rbp)
    5057:	48 89 75 f0          	mov    %rsi,-0x10(%rbp)
    505b:	48 8b 45 f8          	mov    -0x8(%rbp),%rax
    505f:	48 2b 45 f0          	sub    -0x10(%rbp),%rax
    5063:	5d                   	pop    %rbp
    5064:	c3                   	retq   

0000000000005065 <safe_mul_func_uint64_t_u_u>:
    5065:	f3 0f 1e fa          	endbr64 
    5069:	55                   	push   %rbp
    506a:	48 89 e5             	mov    %rsp,%rbp
    506d:	48 89 7d f8          	mov    %rdi,-0x8(%rbp)
    5071:	48 89 75 f0          	mov    %rsi,-0x10(%rbp)
    5075:	48 8b 45 f8          	mov    -0x8(%rbp),%rax
    5079:	48 0f af 45 f0       	imul   -0x10(%rbp),%rax
    507e:	5d                   	pop    %rbp
    507f:	c3                   	retq   

0000000000005080 <safe_mod_func_uint64_t_u_u>:
    5080:	f3 0f 1e fa          	endbr64 
    5084:	55                   	push   %rbp
    5085:	48 89 e5             	mov    %rsp,%rbp
    5088:	48 89 7d f8          	mov    %rdi,-0x8(%rbp)
    508c:	48 89 75 f0          	mov    %rsi,-0x10(%rbp)
    5090:	48 83 7d f0 00       	cmpq   $0x0,-0x10(%rbp)
    5095:	74 12                	je     50a9 <safe_mod_func_uint64_t_u_u+0x29>
    5097:	48 8b 45 f8          	mov    -0x8(%rbp),%rax
    509b:	ba 00 00 00 00       	mov    $0x0,%edx
    50a0:	48 f7 75 f0          	divq   -0x10(%rbp)
    50a4:	48 89 d0             	mov    %rdx,%rax
    50a7:	eb 04                	jmp    50ad <safe_mod_func_uint64_t_u_u+0x2d>
    50a9:	48 8b 45 f8          	mov    -0x8(%rbp),%rax
    50ad:	5d                   	pop    %rbp
    50ae:	c3                   	retq   

00000000000050af <safe_div_func_uint64_t_u_u>:
    50af:	f3 0f 1e fa          	endbr64 
    50b3:	55                   	push   %rbp
    50b4:	48 89 e5             	mov    %rsp,%rbp
    50b7:	48 89 7d f8          	mov    %rdi,-0x8(%rbp)
    50bb:	48 89 75 f0          	mov    %rsi,-0x10(%rbp)
    50bf:	48 83 7d f0 00       	cmpq   $0x0,-0x10(%rbp)
    50c4:	74 0f                	je     50d5 <safe_div_func_uint64_t_u_u+0x26>
    50c6:	48 8b 45 f8          	mov    -0x8(%rbp),%rax
    50ca:	ba 00 00 00 00       	mov    $0x0,%edx
    50cf:	48 f7 75 f0          	divq   -0x10(%rbp)
    50d3:	eb 04                	jmp    50d9 <safe_div_func_uint64_t_u_u+0x2a>
    50d5:	48 8b 45 f8          	mov    -0x8(%rbp),%rax
    50d9:	5d                   	pop    %rbp
    50da:	c3                   	retq   

00000000000050db <safe_lshift_func_uint64_t_u_s>:
    50db:	f3 0f 1e fa          	endbr64 
    50df:	55                   	push   %rbp
    50e0:	48 89 e5             	mov    %rsp,%rbp
    50e3:	48 89 7d f8          	mov    %rdi,-0x8(%rbp)
    50e7:	89 75 f4             	mov    %esi,-0xc(%rbp)
    50ea:	83 7d f4 00          	cmpl   $0x0,-0xc(%rbp)
    50ee:	78 2f                	js     511f <safe_lshift_func_uint64_t_u_s+0x44>
    50f0:	83 7d f4 1f          	cmpl   $0x1f,-0xc(%rbp)
    50f4:	7f 29                	jg     511f <safe_lshift_func_uint64_t_u_s+0x44>
    50f6:	8b 45 f4             	mov    -0xc(%rbp),%eax
    50f9:	48 c7 c2 ff ff ff ff 	mov    $0xffffffffffffffff,%rdx
    5100:	89 c1                	mov    %eax,%ecx
    5102:	48 d3 ea             	shr    %cl,%rdx
    5105:	48 89 d0             	mov    %rdx,%rax
    5108:	48 39 45 f8          	cmp    %rax,-0x8(%rbp)
    510c:	77 11                	ja     511f <safe_lshift_func_uint64_t_u_s+0x44>
    510e:	8b 45 f4             	mov    -0xc(%rbp),%eax
    5111:	48 8b 55 f8          	mov    -0x8(%rbp),%rdx
    5115:	89 c1                	mov    %eax,%ecx
    5117:	48 d3 e2             	shl    %cl,%rdx
    511a:	48 89 d0             	mov    %rdx,%rax
    511d:	eb 04                	jmp    5123 <safe_lshift_func_uint64_t_u_s+0x48>
    511f:	48 8b 45 f8          	mov    -0x8(%rbp),%rax
    5123:	5d                   	pop    %rbp
    5124:	c3                   	retq   

0000000000005125 <safe_lshift_func_uint64_t_u_u>:
    5125:	f3 0f 1e fa          	endbr64 
    5129:	55                   	push   %rbp
    512a:	48 89 e5             	mov    %rsp,%rbp
    512d:	48 89 7d f8          	mov    %rdi,-0x8(%rbp)
    5131:	89 75 f4             	mov    %esi,-0xc(%rbp)
    5134:	83 7d f4 1f          	cmpl   $0x1f,-0xc(%rbp)
    5138:	77 29                	ja     5163 <safe_lshift_func_uint64_t_u_u+0x3e>
    513a:	8b 45 f4             	mov    -0xc(%rbp),%eax
    513d:	48 c7 c2 ff ff ff ff 	mov    $0xffffffffffffffff,%rdx
    5144:	89 c1                	mov    %eax,%ecx
    5146:	48 d3 ea             	shr    %cl,%rdx
    5149:	48 89 d0             	mov    %rdx,%rax
    514c:	48 39 45 f8          	cmp    %rax,-0x8(%rbp)
    5150:	77 11                	ja     5163 <safe_lshift_func_uint64_t_u_u+0x3e>
    5152:	8b 45 f4             	mov    -0xc(%rbp),%eax
    5155:	48 8b 55 f8          	mov    -0x8(%rbp),%rdx
    5159:	89 c1                	mov    %eax,%ecx
    515b:	48 d3 e2             	shl    %cl,%rdx
    515e:	48 89 d0             	mov    %rdx,%rax
    5161:	eb 04                	jmp    5167 <safe_lshift_func_uint64_t_u_u+0x42>
    5163:	48 8b 45 f8          	mov    -0x8(%rbp),%rax
    5167:	5d                   	pop    %rbp
    5168:	c3                   	retq   

0000000000005169 <safe_rshift_func_uint64_t_u_s>:
    5169:	f3 0f 1e fa          	endbr64 
    516d:	55                   	push   %rbp
    516e:	48 89 e5             	mov    %rsp,%rbp
    5171:	48 89 7d f8          	mov    %rdi,-0x8(%rbp)
    5175:	89 75 f4             	mov    %esi,-0xc(%rbp)
    5178:	83 7d f4 00          	cmpl   $0x0,-0xc(%rbp)
    517c:	78 17                	js     5195 <safe_rshift_func_uint64_t_u_s+0x2c>
    517e:	83 7d f4 1f          	cmpl   $0x1f,-0xc(%rbp)
    5182:	7f 11                	jg     5195 <safe_rshift_func_uint64_t_u_s+0x2c>
    5184:	8b 45 f4             	mov    -0xc(%rbp),%eax
    5187:	48 8b 55 f8          	mov    -0x8(%rbp),%rdx
    518b:	89 c1                	mov    %eax,%ecx
    518d:	48 d3 ea             	shr    %cl,%rdx
    5190:	48 89 d0             	mov    %rdx,%rax
    5193:	eb 04                	jmp    5199 <safe_rshift_func_uint64_t_u_s+0x30>
    5195:	48 8b 45 f8          	mov    -0x8(%rbp),%rax
    5199:	5d                   	pop    %rbp
    519a:	c3                   	retq   

000000000000519b <safe_rshift_func_uint64_t_u_u>:
    519b:	f3 0f 1e fa          	endbr64 
    519f:	55                   	push   %rbp
    51a0:	48 89 e5             	mov    %rsp,%rbp
    51a3:	48 89 7d f8          	mov    %rdi,-0x8(%rbp)
    51a7:	89 75 f4             	mov    %esi,-0xc(%rbp)
    51aa:	83 7d f4 1f          	cmpl   $0x1f,-0xc(%rbp)
    51ae:	77 11                	ja     51c1 <safe_rshift_func_uint64_t_u_u+0x26>
    51b0:	8b 45 f4             	mov    -0xc(%rbp),%eax
    51b3:	48 8b 55 f8          	mov    -0x8(%rbp),%rdx
    51b7:	89 c1                	mov    %eax,%ecx
    51b9:	48 d3 ea             	shr    %cl,%rdx
    51bc:	48 89 d0             	mov    %rdx,%rax
    51bf:	eb 04                	jmp    51c5 <safe_rshift_func_uint64_t_u_u+0x2a>
    51c1:	48 8b 45 f8          	mov    -0x8(%rbp),%rax
    51c5:	5d                   	pop    %rbp
    51c6:	c3                   	retq   

00000000000051c7 <safe_add_func_float_f_f>:
    51c7:	f3 0f 1e fa          	endbr64 
    51cb:	55                   	push   %rbp
    51cc:	48 89 e5             	mov    %rsp,%rbp
    51cf:	f3 0f 11 45 fc       	movss  %xmm0,-0x4(%rbp)
    51d4:	f3 0f 11 4d f8       	movss  %xmm1,-0x8(%rbp)
    51d9:	f3 0f 10 4d fc       	movss  -0x4(%rbp),%xmm1
    51de:	f3 0f 10 05 12 03 01 	movss  0x10312(%rip),%xmm0        # 154f8 <g_3084+0x1497>
    51e5:	00 
    51e6:	f3 0f 59 c8          	mulss  %xmm0,%xmm1
    51ea:	f3 0f 10 55 f8       	movss  -0x8(%rbp),%xmm2
    51ef:	f3 0f 10 05 01 03 01 	movss  0x10301(%rip),%xmm0        # 154f8 <g_3084+0x1497>
    51f6:	00 
    51f7:	f3 0f 59 c2          	mulss  %xmm2,%xmm0
    51fb:	f3 0f 58 c1          	addss  %xmm1,%xmm0
    51ff:	f3 0f 10 0d f9 02 01 	movss  0x102f9(%rip),%xmm1        # 15500 <g_3084+0x149f>
    5206:	00 
    5207:	0f 54 c1             	andps  %xmm1,%xmm0
    520a:	0f 2f 05 ff 02 01 00 	comiss 0x102ff(%rip),%xmm0        # 15510 <g_3084+0x14af>
    5211:	76 07                	jbe    521a <safe_add_func_float_f_f+0x53>
    5213:	f3 0f 10 45 fc       	movss  -0x4(%rbp),%xmm0
    5218:	eb 0a                	jmp    5224 <safe_add_func_float_f_f+0x5d>
    521a:	f3 0f 10 45 fc       	movss  -0x4(%rbp),%xmm0
    521f:	f3 0f 58 45 f8       	addss  -0x8(%rbp),%xmm0
    5224:	5d                   	pop    %rbp
    5225:	c3                   	retq   

0000000000005226 <safe_sub_func_float_f_f>:
    5226:	f3 0f 1e fa          	endbr64 
    522a:	55                   	push   %rbp
    522b:	48 89 e5             	mov    %rsp,%rbp
    522e:	f3 0f 11 45 fc       	movss  %xmm0,-0x4(%rbp)
    5233:	f3 0f 11 4d f8       	movss  %xmm1,-0x8(%rbp)
    5238:	f3 0f 10 4d fc       	movss  -0x4(%rbp),%xmm1
    523d:	f3 0f 10 05 b3 02 01 	movss  0x102b3(%rip),%xmm0        # 154f8 <g_3084+0x1497>
    5244:	00 
    5245:	f3 0f 59 c1          	mulss  %xmm1,%xmm0
    5249:	f3 0f 10 55 f8       	movss  -0x8(%rbp),%xmm2
    524e:	f3 0f 10 0d a2 02 01 	movss  0x102a2(%rip),%xmm1        # 154f8 <g_3084+0x1497>
    5255:	00 
    5256:	f3 0f 59 ca          	mulss  %xmm2,%xmm1
    525a:	f3 0f 5c c1          	subss  %xmm1,%xmm0
    525e:	f3 0f 10 0d 9a 02 01 	movss  0x1029a(%rip),%xmm1        # 15500 <g_3084+0x149f>
    5265:	00 
    5266:	0f 54 c1             	andps  %xmm1,%xmm0
    5269:	0f 2f 05 a0 02 01 00 	comiss 0x102a0(%rip),%xmm0        # 15510 <g_3084+0x14af>
    5270:	76 07                	jbe    5279 <safe_sub_func_float_f_f+0x53>
    5272:	f3 0f 10 45 fc       	movss  -0x4(%rbp),%xmm0
    5277:	eb 0a                	jmp    5283 <safe_sub_func_float_f_f+0x5d>
    5279:	f3 0f 10 45 fc       	movss  -0x4(%rbp),%xmm0
    527e:	f3 0f 5c 45 f8       	subss  -0x8(%rbp),%xmm0
    5283:	5d                   	pop    %rbp
    5284:	c3                   	retq   

0000000000005285 <safe_mul_func_float_f_f>:
    5285:	f3 0f 1e fa          	endbr64 
    5289:	55                   	push   %rbp
    528a:	48 89 e5             	mov    %rsp,%rbp
    528d:	f3 0f 11 45 fc       	movss  %xmm0,-0x4(%rbp)
    5292:	f3 0f 11 4d f8       	movss  %xmm1,-0x8(%rbp)
    5297:	f3 0f 10 4d fc       	movss  -0x4(%rbp),%xmm1
    529c:	f3 0f 10 05 70 02 01 	movss  0x10270(%rip),%xmm0        # 15514 <g_3084+0x14b3>
    52a3:	00 
    52a4:	f3 0f 59 c8          	mulss  %xmm0,%xmm1
    52a8:	f3 0f 10 55 f8       	movss  -0x8(%rbp),%xmm2
    52ad:	f3 0f 10 05 63 02 01 	movss  0x10263(%rip),%xmm0        # 15518 <g_3084+0x14b7>
    52b4:	00 
    52b5:	f3 0f 59 c2          	mulss  %xmm2,%xmm0
    52b9:	f3 0f 59 c1          	mulss  %xmm1,%xmm0
    52bd:	f3 0f 10 0d 3b 02 01 	movss  0x1023b(%rip),%xmm1        # 15500 <g_3084+0x149f>
    52c4:	00 
    52c5:	0f 54 c1             	andps  %xmm1,%xmm0
    52c8:	0f 2f 05 4d 02 01 00 	comiss 0x1024d(%rip),%xmm0        # 1551c <g_3084+0x14bb>
    52cf:	76 07                	jbe    52d8 <safe_mul_func_float_f_f+0x53>
    52d1:	f3 0f 10 45 fc       	movss  -0x4(%rbp),%xmm0
    52d6:	eb 0a                	jmp    52e2 <safe_mul_func_float_f_f+0x5d>
    52d8:	f3 0f 10 45 fc       	movss  -0x4(%rbp),%xmm0
    52dd:	f3 0f 59 45 f8       	mulss  -0x8(%rbp),%xmm0
    52e2:	5d                   	pop    %rbp
    52e3:	c3                   	retq   

00000000000052e4 <safe_div_func_float_f_f>:
    52e4:	f3 0f 1e fa          	endbr64 
    52e8:	55                   	push   %rbp
    52e9:	48 89 e5             	mov    %rsp,%rbp
    52ec:	f3 0f 11 45 fc       	movss  %xmm0,-0x4(%rbp)
    52f1:	f3 0f 11 4d f8       	movss  %xmm1,-0x8(%rbp)
    52f6:	f3 0f 10 45 f8       	movss  -0x8(%rbp),%xmm0
    52fb:	f3 0f 10 0d fd 01 01 	movss  0x101fd(%rip),%xmm1        # 15500 <g_3084+0x149f>
    5302:	00 
    5303:	0f 54 c8             	andps  %xmm0,%xmm1
    5306:	f3 0f 10 05 12 02 01 	movss  0x10212(%rip),%xmm0        # 15520 <g_3084+0x14bf>
    530d:	00 
    530e:	0f 2f c1             	comiss %xmm1,%xmm0
    5311:	0f 97 c0             	seta   %al
    5314:	83 f0 01             	xor    $0x1,%eax
    5317:	84 c0                	test   %al,%al
    5319:	75 56                	jne    5371 <safe_div_func_float_f_f+0x8d>
    531b:	66 0f ef c0          	pxor   %xmm0,%xmm0
    531f:	0f 2e 45 f8          	ucomiss -0x8(%rbp),%xmm0
    5323:	7a 0a                	jp     532f <safe_div_func_float_f_f+0x4b>
    5325:	66 0f ef c0          	pxor   %xmm0,%xmm0
    5329:	0f 2e 45 f8          	ucomiss -0x8(%rbp),%xmm0
    532d:	74 4e                	je     537d <safe_div_func_float_f_f+0x99>
    532f:	f3 0f 10 4d fc       	movss  -0x4(%rbp),%xmm1
    5334:	f3 0f 10 05 e8 01 01 	movss  0x101e8(%rip),%xmm0        # 15524 <g_3084+0x14c3>
    533b:	00 
    533c:	f3 0f 59 c1          	mulss  %xmm1,%xmm0
    5340:	f3 0f 10 55 f8       	movss  -0x8(%rbp),%xmm2
    5345:	f3 0f 10 0d db 01 01 	movss  0x101db(%rip),%xmm1        # 15528 <g_3084+0x14c7>
    534c:	00 
    534d:	f3 0f 59 ca          	mulss  %xmm2,%xmm1
    5351:	f3 0f 5e c1          	divss  %xmm1,%xmm0
    5355:	f3 0f 10 0d a3 01 01 	movss  0x101a3(%rip),%xmm1        # 15500 <g_3084+0x149f>
    535c:	00 
    535d:	0f 54 c1             	andps  %xmm1,%xmm0
    5360:	0f 2f 05 c5 01 01 00 	comiss 0x101c5(%rip),%xmm0        # 1552c <g_3084+0x14cb>
    5367:	0f 97 c0             	seta   %al
    536a:	83 f0 01             	xor    $0x1,%eax
    536d:	84 c0                	test   %al,%al
    536f:	74 0c                	je     537d <safe_div_func_float_f_f+0x99>
    5371:	f3 0f 10 45 fc       	movss  -0x4(%rbp),%xmm0
    5376:	f3 0f 5e 45 f8       	divss  -0x8(%rbp),%xmm0
    537b:	eb 05                	jmp    5382 <safe_div_func_float_f_f+0x9e>
    537d:	f3 0f 10 45 fc       	movss  -0x4(%rbp),%xmm0
    5382:	5d                   	pop    %rbp
    5383:	c3                   	retq   

0000000000005384 <safe_add_func_double_f_f>:
    5384:	f3 0f 1e fa          	endbr64 
    5388:	55                   	push   %rbp
    5389:	48 89 e5             	mov    %rsp,%rbp
    538c:	f2 0f 11 45 f8       	movsd  %xmm0,-0x8(%rbp)
    5391:	f2 0f 11 4d f0       	movsd  %xmm1,-0x10(%rbp)
    5396:	f2 0f 10 4d f8       	movsd  -0x8(%rbp),%xmm1
    539b:	f2 0f 10 05 8d 01 01 	movsd  0x1018d(%rip),%xmm0        # 15530 <g_3084+0x14cf>
    53a2:	00 
    53a3:	f2 0f 59 c8          	mulsd  %xmm0,%xmm1
    53a7:	f2 0f 10 55 f0       	movsd  -0x10(%rbp),%xmm2
    53ac:	f2 0f 10 05 7c 01 01 	movsd  0x1017c(%rip),%xmm0        # 15530 <g_3084+0x14cf>
    53b3:	00 
    53b4:	f2 0f 59 c2          	mulsd  %xmm2,%xmm0
    53b8:	f2 0f 58 c1          	addsd  %xmm1,%xmm0
    53bc:	f3 0f 7e 0d 7c 01 01 	movq   0x1017c(%rip),%xmm1        # 15540 <g_3084+0x14df>
    53c3:	00 
    53c4:	66 0f 54 c1          	andpd  %xmm1,%xmm0
    53c8:	66 0f 2f 05 80 01 01 	comisd 0x10180(%rip),%xmm0        # 15550 <g_3084+0x14ef>
    53cf:	00 
    53d0:	76 07                	jbe    53d9 <safe_add_func_double_f_f+0x55>
    53d2:	f2 0f 10 45 f8       	movsd  -0x8(%rbp),%xmm0
    53d7:	eb 0a                	jmp    53e3 <safe_add_func_double_f_f+0x5f>
    53d9:	f2 0f 10 45 f8       	movsd  -0x8(%rbp),%xmm0
    53de:	f2 0f 58 45 f0       	addsd  -0x10(%rbp),%xmm0
    53e3:	5d                   	pop    %rbp
    53e4:	c3                   	retq   

00000000000053e5 <safe_sub_func_double_f_f>:
    53e5:	f3 0f 1e fa          	endbr64 
    53e9:	55                   	push   %rbp
    53ea:	48 89 e5             	mov    %rsp,%rbp
    53ed:	f2 0f 11 45 f8       	movsd  %xmm0,-0x8(%rbp)
    53f2:	f2 0f 11 4d f0       	movsd  %xmm1,-0x10(%rbp)
    53f7:	f2 0f 10 4d f8       	movsd  -0x8(%rbp),%xmm1
    53fc:	f2 0f 10 05 2c 01 01 	movsd  0x1012c(%rip),%xmm0        # 15530 <g_3084+0x14cf>
    5403:	00 
    5404:	f2 0f 59 c1          	mulsd  %xmm1,%xmm0
    5408:	f2 0f 10 55 f0       	movsd  -0x10(%rbp),%xmm2
    540d:	f2 0f 10 0d 1b 01 01 	movsd  0x1011b(%rip),%xmm1        # 15530 <g_3084+0x14cf>
    5414:	00 
    5415:	f2 0f 59 ca          	mulsd  %xmm2,%xmm1
    5419:	f2 0f 5c c1          	subsd  %xmm1,%xmm0
    541d:	f3 0f 7e 0d 1b 01 01 	movq   0x1011b(%rip),%xmm1        # 15540 <g_3084+0x14df>
    5424:	00 
    5425:	66 0f 54 c1          	andpd  %xmm1,%xmm0
    5429:	66 0f 2f 05 1f 01 01 	comisd 0x1011f(%rip),%xmm0        # 15550 <g_3084+0x14ef>
    5430:	00 
    5431:	76 07                	jbe    543a <safe_sub_func_double_f_f+0x55>
    5433:	f2 0f 10 45 f8       	movsd  -0x8(%rbp),%xmm0
    5438:	eb 0a                	jmp    5444 <safe_sub_func_double_f_f+0x5f>
    543a:	f2 0f 10 45 f8       	movsd  -0x8(%rbp),%xmm0
    543f:	f2 0f 5c 45 f0       	subsd  -0x10(%rbp),%xmm0
    5444:	5d                   	pop    %rbp
    5445:	c3                   	retq   

0000000000005446 <safe_mul_func_double_f_f>:
    5446:	f3 0f 1e fa          	endbr64 
    544a:	55                   	push   %rbp
    544b:	48 89 e5             	mov    %rsp,%rbp
    544e:	f2 0f 11 45 f8       	movsd  %xmm0,-0x8(%rbp)
    5453:	f2 0f 11 4d f0       	movsd  %xmm1,-0x10(%rbp)
    5458:	f2 0f 10 4d f8       	movsd  -0x8(%rbp),%xmm1
    545d:	f2 0f 10 05 f3 00 01 	movsd  0x100f3(%rip),%xmm0        # 15558 <g_3084+0x14f7>
    5464:	00 
    5465:	f2 0f 59 c8          	mulsd  %xmm0,%xmm1
    5469:	f2 0f 10 55 f0       	movsd  -0x10(%rbp),%xmm2
    546e:	f2 0f 10 05 ea 00 01 	movsd  0x100ea(%rip),%xmm0        # 15560 <g_3084+0x14ff>
    5475:	00 
    5476:	f2 0f 59 c2          	mulsd  %xmm2,%xmm0
    547a:	f2 0f 59 c1          	mulsd  %xmm1,%xmm0
    547e:	f3 0f 7e 0d ba 00 01 	movq   0x100ba(%rip),%xmm1        # 15540 <g_3084+0x14df>
    5485:	00 
    5486:	66 0f 54 c1          	andpd  %xmm1,%xmm0
    548a:	66 0f 2f 05 d6 00 01 	comisd 0x100d6(%rip),%xmm0        # 15568 <g_3084+0x1507>
    5491:	00 
    5492:	76 07                	jbe    549b <safe_mul_func_double_f_f+0x55>
    5494:	f2 0f 10 45 f8       	movsd  -0x8(%rbp),%xmm0
    5499:	eb 0a                	jmp    54a5 <safe_mul_func_double_f_f+0x5f>
    549b:	f2 0f 10 45 f8       	movsd  -0x8(%rbp),%xmm0
    54a0:	f2 0f 59 45 f0       	mulsd  -0x10(%rbp),%xmm0
    54a5:	5d                   	pop    %rbp
    54a6:	c3                   	retq   

00000000000054a7 <safe_div_func_double_f_f>:
    54a7:	f3 0f 1e fa          	endbr64 
    54ab:	55                   	push   %rbp
    54ac:	48 89 e5             	mov    %rsp,%rbp
    54af:	f2 0f 11 45 f8       	movsd  %xmm0,-0x8(%rbp)
    54b4:	f2 0f 11 4d f0       	movsd  %xmm1,-0x10(%rbp)
    54b9:	f2 0f 10 45 f0       	movsd  -0x10(%rbp),%xmm0
    54be:	f3 0f 7e 0d 7a 00 01 	movq   0x1007a(%rip),%xmm1        # 15540 <g_3084+0x14df>
    54c5:	00 
    54c6:	66 0f 54 c8          	andpd  %xmm0,%xmm1
    54ca:	f2 0f 10 05 9e 00 01 	movsd  0x1009e(%rip),%xmm0        # 15570 <g_3084+0x150f>
    54d1:	00 
    54d2:	66 0f 2f c1          	comisd %xmm1,%xmm0
    54d6:	0f 97 c0             	seta   %al
    54d9:	83 f0 01             	xor    $0x1,%eax
    54dc:	84 c0                	test   %al,%al
    54de:	75 5a                	jne    553a <safe_div_func_double_f_f+0x93>
    54e0:	66 0f ef c0          	pxor   %xmm0,%xmm0
    54e4:	66 0f 2e 45 f0       	ucomisd -0x10(%rbp),%xmm0
    54e9:	7a 0b                	jp     54f6 <safe_div_func_double_f_f+0x4f>
    54eb:	66 0f ef c0          	pxor   %xmm0,%xmm0
    54ef:	66 0f 2e 45 f0       	ucomisd -0x10(%rbp),%xmm0
    54f4:	74 50                	je     5546 <safe_div_func_double_f_f+0x9f>
    54f6:	f2 0f 10 4d f8       	movsd  -0x8(%rbp),%xmm1
    54fb:	f2 0f 10 05 75 00 01 	movsd  0x10075(%rip),%xmm0        # 15578 <g_3084+0x1517>
    5502:	00 
    5503:	f2 0f 59 c1          	mulsd  %xmm1,%xmm0
    5507:	f2 0f 10 55 f0       	movsd  -0x10(%rbp),%xmm2
    550c:	f2 0f 10 0d 6c 00 01 	movsd  0x1006c(%rip),%xmm1        # 15580 <g_3084+0x151f>
    5513:	00 
    5514:	f2 0f 59 ca          	mulsd  %xmm2,%xmm1
    5518:	f2 0f 5e c1          	divsd  %xmm1,%xmm0
    551c:	f3 0f 7e 0d 1c 00 01 	movq   0x1001c(%rip),%xmm1        # 15540 <g_3084+0x14df>
    5523:	00 
    5524:	66 0f 54 c1          	andpd  %xmm1,%xmm0
    5528:	66 0f 2f 05 58 00 01 	comisd 0x10058(%rip),%xmm0        # 15588 <g_3084+0x1527>
    552f:	00 
    5530:	0f 97 c0             	seta   %al
    5533:	83 f0 01             	xor    $0x1,%eax
    5536:	84 c0                	test   %al,%al
    5538:	74 0c                	je     5546 <safe_div_func_double_f_f+0x9f>
    553a:	f2 0f 10 45 f8       	movsd  -0x8(%rbp),%xmm0
    553f:	f2 0f 5e 45 f0       	divsd  -0x10(%rbp),%xmm0
    5544:	eb 05                	jmp    554b <safe_div_func_double_f_f+0xa4>
    5546:	f2 0f 10 45 f8       	movsd  -0x8(%rbp),%xmm0
    554b:	5d                   	pop    %rbp
    554c:	c3                   	retq   

000000000000554d <safe_convert_func_float_to_int32_t>:
    554d:	f3 0f 1e fa          	endbr64 
    5551:	55                   	push   %rbp
    5552:	48 89 e5             	mov    %rsp,%rbp
    5555:	f3 0f 11 45 fc       	movss  %xmm0,-0x4(%rbp)
    555a:	f3 0f 10 05 2e 00 01 	movss  0x1002e(%rip),%xmm0        # 15590 <g_3084+0x152f>
    5561:	00 
    5562:	0f 2f 45 fc          	comiss -0x4(%rbp),%xmm0
    5566:	0f 93 c0             	setae  %al
    5569:	83 f0 01             	xor    $0x1,%eax
    556c:	84 c0                	test   %al,%al
    556e:	74 21                	je     5591 <safe_convert_func_float_to_int32_t+0x44>
    5570:	f3 0f 10 45 fc       	movss  -0x4(%rbp),%xmm0
    5575:	0f 2f 05 18 00 01 00 	comiss 0x10018(%rip),%xmm0        # 15594 <g_3084+0x1533>
    557c:	0f 93 c0             	setae  %al
    557f:	83 f0 01             	xor    $0x1,%eax
    5582:	84 c0                	test   %al,%al
    5584:	74 0b                	je     5591 <safe_convert_func_float_to_int32_t+0x44>
    5586:	f3 0f 10 45 fc       	movss  -0x4(%rbp),%xmm0
    558b:	f3 0f 2c c0          	cvttss2si %xmm0,%eax
    558f:	eb 05                	jmp    5596 <safe_convert_func_float_to_int32_t+0x49>
    5591:	b8 ff ff ff 7f       	mov    $0x7fffffff,%eax
    5596:	5d                   	pop    %rbp
    5597:	c3                   	retq   

0000000000005598 <crc32_gentab>:
    5598:	f3 0f 1e fa          	endbr64 
    559c:	55                   	push   %rbp
    559d:	48 89 e5             	mov    %rsp,%rbp
    55a0:	c7 45 fc 20 83 b8 ed 	movl   $0xedb88320,-0x4(%rbp)
    55a7:	c7 45 f4 00 00 00 00 	movl   $0x0,-0xc(%rbp)
    55ae:	eb 51                	jmp    5601 <crc32_gentab+0x69>
    55b0:	8b 45 f4             	mov    -0xc(%rbp),%eax
    55b3:	89 45 f0             	mov    %eax,-0x10(%rbp)
    55b6:	c7 45 f8 08 00 00 00 	movl   $0x8,-0x8(%rbp)
    55bd:	eb 1e                	jmp    55dd <crc32_gentab+0x45>
    55bf:	8b 45 f0             	mov    -0x10(%rbp),%eax
    55c2:	83 e0 01             	and    $0x1,%eax
    55c5:	85 c0                	test   %eax,%eax
    55c7:	74 0d                	je     55d6 <crc32_gentab+0x3e>
    55c9:	8b 45 f0             	mov    -0x10(%rbp),%eax
    55cc:	d1 e8                	shr    %eax
    55ce:	33 45 fc             	xor    -0x4(%rbp),%eax
    55d1:	89 45 f0             	mov    %eax,-0x10(%rbp)
    55d4:	eb 03                	jmp    55d9 <crc32_gentab+0x41>
    55d6:	d1 6d f0             	shrl   -0x10(%rbp)
    55d9:	83 6d f8 01          	subl   $0x1,-0x8(%rbp)
    55dd:	83 7d f8 00          	cmpl   $0x0,-0x8(%rbp)
    55e1:	7f dc                	jg     55bf <crc32_gentab+0x27>
    55e3:	8b 45 f4             	mov    -0xc(%rbp),%eax
    55e6:	48 98                	cltq   
    55e8:	48 8d 0c 85 00 00 00 	lea    0x0(,%rax,4),%rcx
    55ef:	00 
    55f0:	48 8d 15 29 42 01 00 	lea    0x14229(%rip),%rdx        # 19820 <crc32_tab>
    55f7:	8b 45 f0             	mov    -0x10(%rbp),%eax
    55fa:	89 04 11             	mov    %eax,(%rcx,%rdx,1)
    55fd:	83 45 f4 01          	addl   $0x1,-0xc(%rbp)
    5601:	81 7d f4 ff 00 00 00 	cmpl   $0xff,-0xc(%rbp)
    5608:	7e a6                	jle    55b0 <crc32_gentab+0x18>
    560a:	90                   	nop
    560b:	90                   	nop
    560c:	5d                   	pop    %rbp
    560d:	c3                   	retq   

000000000000560e <crc32_byte>:
    560e:	f3 0f 1e fa          	endbr64 
    5612:	55                   	push   %rbp
    5613:	48 89 e5             	mov    %rsp,%rbp
    5616:	89 f8                	mov    %edi,%eax
    5618:	88 45 fc             	mov    %al,-0x4(%rbp)
    561b:	8b 05 ff 29 01 00    	mov    0x129ff(%rip),%eax        # 18020 <crc32_context>
    5621:	c1 e8 08             	shr    $0x8,%eax
    5624:	89 c1                	mov    %eax,%ecx
    5626:	0f b6 55 fc          	movzbl -0x4(%rbp),%edx
    562a:	8b 05 f0 29 01 00    	mov    0x129f0(%rip),%eax        # 18020 <crc32_context>
    5630:	31 d0                	xor    %edx,%eax
    5632:	0f b6 c0             	movzbl %al,%eax
    5635:	89 c0                	mov    %eax,%eax
    5637:	48 8d 14 85 00 00 00 	lea    0x0(,%rax,4),%rdx
    563e:	00 
    563f:	48 8d 05 da 41 01 00 	lea    0x141da(%rip),%rax        # 19820 <crc32_tab>
    5646:	8b 04 02             	mov    (%rdx,%rax,1),%eax
    5649:	31 c8                	xor    %ecx,%eax
    564b:	89 05 cf 29 01 00    	mov    %eax,0x129cf(%rip)        # 18020 <crc32_context>
    5651:	90                   	nop
    5652:	5d                   	pop    %rbp
    5653:	c3                   	retq   

0000000000005654 <crc32_8bytes>:
    5654:	f3 0f 1e fa          	endbr64 
    5658:	55                   	push   %rbp
    5659:	48 89 e5             	mov    %rsp,%rbp
    565c:	48 83 ec 08          	sub    $0x8,%rsp
    5660:	48 89 7d f8          	mov    %rdi,-0x8(%rbp)
    5664:	48 8b 45 f8          	mov    -0x8(%rbp),%rax
    5668:	0f b6 c0             	movzbl %al,%eax
    566b:	89 c7                	mov    %eax,%edi
    566d:	e8 9c ff ff ff       	callq  560e <crc32_byte>
    5672:	48 8b 45 f8          	mov    -0x8(%rbp),%rax
    5676:	48 c1 e8 08          	shr    $0x8,%rax
    567a:	0f b6 c0             	movzbl %al,%eax
    567d:	89 c7                	mov    %eax,%edi
    567f:	e8 8a ff ff ff       	callq  560e <crc32_byte>
    5684:	48 8b 45 f8          	mov    -0x8(%rbp),%rax
    5688:	48 c1 e8 10          	shr    $0x10,%rax
    568c:	0f b6 c0             	movzbl %al,%eax
    568f:	89 c7                	mov    %eax,%edi
    5691:	e8 78 ff ff ff       	callq  560e <crc32_byte>
    5696:	48 8b 45 f8          	mov    -0x8(%rbp),%rax
    569a:	48 c1 e8 18          	shr    $0x18,%rax
    569e:	0f b6 c0             	movzbl %al,%eax
    56a1:	89 c7                	mov    %eax,%edi
    56a3:	e8 66 ff ff ff       	callq  560e <crc32_byte>
    56a8:	48 8b 45 f8          	mov    -0x8(%rbp),%rax
    56ac:	48 c1 e8 20          	shr    $0x20,%rax
    56b0:	0f b6 c0             	movzbl %al,%eax
    56b3:	89 c7                	mov    %eax,%edi
    56b5:	e8 54 ff ff ff       	callq  560e <crc32_byte>
    56ba:	48 8b 45 f8          	mov    -0x8(%rbp),%rax
    56be:	48 c1 e8 28          	shr    $0x28,%rax
    56c2:	0f b6 c0             	movzbl %al,%eax
    56c5:	89 c7                	mov    %eax,%edi
    56c7:	e8 42 ff ff ff       	callq  560e <crc32_byte>
    56cc:	48 8b 45 f8          	mov    -0x8(%rbp),%rax
    56d0:	48 c1 e8 30          	shr    $0x30,%rax
    56d4:	0f b6 c0             	movzbl %al,%eax
    56d7:	89 c7                	mov    %eax,%edi
    56d9:	e8 30 ff ff ff       	callq  560e <crc32_byte>
    56de:	48 8b 45 f8          	mov    -0x8(%rbp),%rax
    56e2:	48 c1 e8 38          	shr    $0x38,%rax
    56e6:	0f b6 c0             	movzbl %al,%eax
    56e9:	89 c7                	mov    %eax,%edi
    56eb:	e8 1e ff ff ff       	callq  560e <crc32_byte>
    56f0:	90                   	nop
    56f1:	c9                   	leaveq 
    56f2:	c3                   	retq   

00000000000056f3 <transparent_crc>:
    56f3:	f3 0f 1e fa          	endbr64 
    56f7:	55                   	push   %rbp
    56f8:	48 89 e5             	mov    %rsp,%rbp
    56fb:	48 83 ec 20          	sub    $0x20,%rsp
    56ff:	48 89 7d f8          	mov    %rdi,-0x8(%rbp)
    5703:	48 89 75 f0          	mov    %rsi,-0x10(%rbp)
    5707:	89 55 ec             	mov    %edx,-0x14(%rbp)
    570a:	48 8b 45 f8          	mov    -0x8(%rbp),%rax
    570e:	48 89 c7             	mov    %rax,%rdi
    5711:	e8 3e ff ff ff       	callq  5654 <crc32_8bytes>
    5716:	83 7d ec 00          	cmpl   $0x0,-0x14(%rbp)
    571a:	74 22                	je     573e <transparent_crc+0x4b>
    571c:	8b 05 fe 28 01 00    	mov    0x128fe(%rip),%eax        # 18020 <crc32_context>
    5722:	f7 d0                	not    %eax
    5724:	89 c2                	mov    %eax,%edx
    5726:	48 8b 45 f0          	mov    -0x10(%rbp),%rax
    572a:	48 89 c6             	mov    %rax,%rsi
    572d:	48 8d 3d fc e8 00 00 	lea    0xe8fc(%rip),%rdi        # 14030 <_IO_stdin_used+0x30>
    5734:	b8 00 00 00 00       	mov    $0x0,%eax
    5739:	e8 42 e9 ff ff       	callq  4080 <printf@plt>
    573e:	90                   	nop
    573f:	c9                   	leaveq 
    5740:	c3                   	retq   

0000000000005741 <transparent_crc_bytes>:
    5741:	f3 0f 1e fa          	endbr64 
    5745:	55                   	push   %rbp
    5746:	48 89 e5             	mov    %rsp,%rbp
    5749:	48 83 ec 30          	sub    $0x30,%rsp
    574d:	48 89 7d e8          	mov    %rdi,-0x18(%rbp)
    5751:	89 75 e4             	mov    %esi,-0x1c(%rbp)
    5754:	48 89 55 d8          	mov    %rdx,-0x28(%rbp)
    5758:	89 4d e0             	mov    %ecx,-0x20(%rbp)
    575b:	c7 45 fc 00 00 00 00 	movl   $0x0,-0x4(%rbp)
    5762:	eb 1e                	jmp    5782 <transparent_crc_bytes+0x41>
    5764:	8b 45 fc             	mov    -0x4(%rbp),%eax
    5767:	48 63 d0             	movslq %eax,%rdx
    576a:	48 8b 45 e8          	mov    -0x18(%rbp),%rax
    576e:	48 01 d0             	add    %rdx,%rax
    5771:	0f b6 00             	movzbl (%rax),%eax
    5774:	0f b6 c0             	movzbl %al,%eax
    5777:	89 c7                	mov    %eax,%edi
    5779:	e8 90 fe ff ff       	callq  560e <crc32_byte>
    577e:	83 45 fc 01          	addl   $0x1,-0x4(%rbp)
    5782:	8b 45 fc             	mov    -0x4(%rbp),%eax
    5785:	3b 45 e4             	cmp    -0x1c(%rbp),%eax
    5788:	7c da                	jl     5764 <transparent_crc_bytes+0x23>
    578a:	83 7d e0 00          	cmpl   $0x0,-0x20(%rbp)
    578e:	74 22                	je     57b2 <transparent_crc_bytes+0x71>
    5790:	8b 05 8a 28 01 00    	mov    0x1288a(%rip),%eax        # 18020 <crc32_context>
    5796:	f7 d0                	not    %eax
    5798:	89 c2                	mov    %eax,%edx
    579a:	48 8b 45 d8          	mov    -0x28(%rbp),%rax
    579e:	48 89 c6             	mov    %rax,%rsi
    57a1:	48 8d 3d 88 e8 00 00 	lea    0xe888(%rip),%rdi        # 14030 <_IO_stdin_used+0x30>
    57a8:	b8 00 00 00 00       	mov    $0x0,%eax
    57ad:	e8 ce e8 ff ff       	callq  4080 <printf@plt>
    57b2:	90                   	nop
    57b3:	c9                   	leaveq 
    57b4:	c3                   	retq   

00000000000057b5 <func_1>:
    57b5:	f3 0f 1e fa          	endbr64 
    57b9:	55                   	push   %rbp
    57ba:	48 89 e5             	mov    %rsp,%rbp
    57bd:	53                   	push   %rbx
    57be:	48 83 ec 48          	sub    $0x48,%rsp
    57c2:	64 48 8b 04 25 28 00 	mov    %fs:0x28,%rax
    57c9:	00 00 
    57cb:	48 89 45 e8          	mov    %rax,-0x18(%rbp)
    57cf:	31 c0                	xor    %eax,%eax
    57d1:	48 8d 05 68 35 01 00 	lea    0x13568(%rip),%rax        # 18d40 <g_125>
    57d8:	48 89 45 b8          	mov    %rax,-0x48(%rbp)
    57dc:	48 8d 05 85 44 01 00 	lea    0x14485(%rip),%rax        # 19c68 <g_2081>
    57e3:	48 89 45 c0          	mov    %rax,-0x40(%rbp)
    57e7:	48 8d 05 56 28 01 00 	lea    0x12856(%rip),%rax        # 18044 <g_96>
    57ee:	48 89 45 c8          	mov    %rax,-0x38(%rbp)
    57f2:	48 8d 05 bb 28 01 00 	lea    0x128bb(%rip),%rax        # 180b4 <g_955>
    57f9:	48 89 45 d0          	mov    %rax,-0x30(%rbp)
    57fd:	c7 45 b4 00 00 00 00 	movl   $0x0,-0x4c(%rbp)
    5804:	eb 10                	jmp    5816 <func_1+0x61>
    5806:	8b 45 b4             	mov    -0x4c(%rbp),%eax
    5809:	48 98                	cltq   
    580b:	66 c7 44 45 dc 40 5b 	movw   $0x5b40,-0x24(%rbp,%rax,2)
    5812:	83 45 b4 01          	addl   $0x1,-0x4c(%rbp)
    5816:	83 7d b4 05          	cmpl   $0x5,-0x4c(%rbp)
    581a:	7e ea                	jle    5806 <func_1+0x51>
    581c:	b8 bd ff ff ff       	mov    $0xffffffbd,%eax
    5821:	0f be d8             	movsbl %al,%ebx
    5824:	48 8b 05 05 28 01 00 	mov    0x12805(%rip),%rax        # 18030 <g_15>
    582b:	89 c7                	mov    %eax,%edi
    582d:	e8 e7 6a 00 00       	callq  c319 <func_16>
    5832:	48 8b 55 b8          	mov    -0x48(%rbp),%rdx
    5836:	48 89 02             	mov    %rax,(%rdx)
    5839:	48 8b 05 d0 3b 01 00 	mov    0x13bd0(%rip),%rax        # 19410 <g_1392>
    5840:	48 8b 00             	mov    (%rax),%rax
    5843:	0f b6 00             	movzbl (%rax),%eax
    5846:	0f be d0             	movsbl %al,%edx
    5849:	48 8b 05 a8 3d 01 00 	mov    0x13da8(%rip),%rax        # 195f8 <g_2126>
    5850:	48 8b 00             	mov    (%rax),%rax
    5853:	48 89 05 46 44 01 00 	mov    %rax,0x14446(%rip)        # 19ca0 <g_2369+0x20>
    585a:	48 8b 0d 3f 44 01 00 	mov    0x1443f(%rip),%rcx        # 19ca0 <g_2369+0x20>
    5861:	48 8b 05 90 3d 01 00 	mov    0x13d90(%rip),%rax        # 195f8 <g_2126>
    5868:	48 8b 00             	mov    (%rax),%rax
    586b:	48 39 c1             	cmp    %rax,%rcx
    586e:	0f 94 c0             	sete   %al
    5871:	0f b6 c8             	movzbl %al,%ecx
    5874:	48 8b 05 85 3b 01 00 	mov    0x13b85(%rip),%rax        # 19400 <g_1292>
    587b:	48 8b 00             	mov    (%rax),%rax
    587e:	48 8b 00             	mov    (%rax),%rax
    5881:	8b 00                	mov    (%rax),%eax
    5883:	39 c1                	cmp    %eax,%ecx
    5885:	0f 93 c0             	setae  %al
    5888:	0f b6 c8             	movzbl %al,%ecx
    588b:	48 8b 05 36 3b 01 00 	mov    0x13b36(%rip),%rax        # 193c8 <g_967>
    5892:	48 8b 00             	mov    (%rax),%rax
    5895:	48 8b 00             	mov    (%rax),%rax
    5898:	48 31 c1             	xor    %rax,%rcx
    589b:	48 8b 45 c0          	mov    -0x40(%rbp),%rax
    589f:	0f b6 00             	movzbl (%rax),%eax
    58a2:	89 c6                	mov    %eax,%esi
    58a4:	89 c8                	mov    %ecx,%eax
    58a6:	31 f0                	xor    %esi,%eax
    58a8:	89 c1                	mov    %eax,%ecx
    58aa:	48 8b 45 c0          	mov    -0x40(%rbp),%rax
    58ae:	88 08                	mov    %cl,(%rax)
    58b0:	48 8b 45 c0          	mov    -0x40(%rbp),%rax
    58b4:	0f b6 00             	movzbl (%rax),%eax
    58b7:	0f b6 c8             	movzbl %al,%ecx
    58ba:	0f b6 05 c0 27 01 00 	movzbl 0x127c0(%rip),%eax        # 18081 <g_279>
    58c1:	0f be c0             	movsbl %al,%eax
    58c4:	39 c1                	cmp    %eax,%ecx
    58c6:	0f 95 c0             	setne  %al
    58c9:	89 c1                	mov    %eax,%ecx
    58cb:	48 8b 45 c8          	mov    -0x38(%rbp),%rax
    58cf:	88 08                	mov    %cl,(%rax)
    58d1:	48 8b 45 c8          	mov    -0x38(%rbp),%rax
    58d5:	0f b6 00             	movzbl (%rax),%eax
    58d8:	88 05 5e 27 01 00    	mov    %al,0x1275e(%rip)        # 1803c <g_93>
    58de:	0f b6 0d 57 27 01 00 	movzbl 0x12757(%rip),%ecx        # 1803c <g_93>
    58e5:	48 8b 05 1c 3b 01 00 	mov    0x13b1c(%rip),%rax        # 19408 <g_1393>
    58ec:	0f b6 00             	movzbl (%rax),%eax
    58ef:	31 c8                	xor    %ecx,%eax
    58f1:	0f be c0             	movsbl %al,%eax
    58f4:	89 d6                	mov    %edx,%esi
    58f6:	89 c7                	mov    %eax,%edi
    58f8:	e8 d7 e8 ff ff       	callq  41d4 <safe_add_func_int8_t_s_s>
    58fd:	84 c0                	test   %al,%al
    58ff:	75 09                	jne    590a <func_1+0x155>
    5901:	0f b7 45 e4          	movzwl -0x1c(%rbp),%eax
    5905:	66 85 c0             	test   %ax,%ax
    5908:	74 07                	je     5911 <func_1+0x15c>
    590a:	b8 01 00 00 00       	mov    $0x1,%eax
    590f:	eb 05                	jmp    5916 <func_1+0x161>
    5911:	b8 00 00 00 00       	mov    $0x0,%eax
    5916:	0f b6 d0             	movzbl %al,%edx
    5919:	0f b7 45 e2          	movzwl -0x1e(%rbp),%eax
    591d:	0f b6 c0             	movzbl %al,%eax
    5920:	89 d6                	mov    %edx,%esi
    5922:	89 c7                	mov    %eax,%edi
    5924:	e8 6a f2 ff ff       	callq  4b93 <safe_mul_func_uint8_t_u_u>
    5929:	48 8b 05 00 27 01 00 	mov    0x12700(%rip),%rax        # 18030 <g_15>
    5930:	0f be c0             	movsbl %al,%eax
    5933:	89 da                	mov    %ebx,%edx
    5935:	be 01 00 00 00       	mov    $0x1,%esi
    593a:	89 c7                	mov    %eax,%edi
    593c:	e8 c2 35 00 00       	callq  8f03 <func_11>
    5941:	48 89 c3             	mov    %rax,%rbx
    5944:	0f b7 45 e6          	movzwl -0x1a(%rbp),%eax
    5948:	0f b7 d0             	movzwl %ax,%edx
    594b:	48 8b 05 d6 26 01 00 	mov    0x126d6(%rip),%rax        # 18028 <g_9>
    5952:	f7 d0                	not    %eax
    5954:	0f be c0             	movsbl %al,%eax
    5957:	89 d6                	mov    %edx,%esi
    5959:	89 c7                	mov    %eax,%edi
    595b:	e8 0c ea ff ff       	callq  436c <safe_rshift_func_int8_t_s_u>
    5960:	0f be c0             	movsbl %al,%eax
    5963:	48 8b 55 d0          	mov    -0x30(%rbp),%rdx
    5967:	48 89 de             	mov    %rbx,%rsi
    596a:	89 c7                	mov    %eax,%edi
    596c:	e8 35 00 00 00       	callq  59a6 <func_2>
    5971:	48 8b 55 b8          	mov    -0x48(%rbp),%rdx
    5975:	48 89 02             	mov    %rax,(%rdx)
    5978:	48 8b 05 e9 3a 01 00 	mov    0x13ae9(%rip),%rax        # 19468 <g_1627>
    597f:	48 8b 00             	mov    (%rax),%rax
    5982:	48 8b 00             	mov    (%rax),%rax
    5985:	48 8b 00             	mov    (%rax),%rax
    5988:	0f b6 00             	movzbl (%rax),%eax
    598b:	48 8b 5d e8          	mov    -0x18(%rbp),%rbx
    598f:	64 48 33 1c 25 28 00 	xor    %fs:0x28,%rbx
    5996:	00 00 
    5998:	74 05                	je     599f <func_1+0x1ea>
    599a:	e8 d1 e6 ff ff       	callq  4070 <__stack_chk_fail@plt>
    599f:	48 83 c4 48          	add    $0x48,%rsp
    59a3:	5b                   	pop    %rbx
    59a4:	5d                   	pop    %rbp
    59a5:	c3                   	retq   

00000000000059a6 <func_2>:
    59a6:	f3 0f 1e fa          	endbr64 
    59aa:	55                   	push   %rbp
    59ab:	48 89 e5             	mov    %rsp,%rbp
    59ae:	41 57                	push   %r15
    59b0:	41 56                	push   %r14
    59b2:	41 55                	push   %r13
    59b4:	41 54                	push   %r12
    59b6:	53                   	push   %rbx
    59b7:	48 81 ec 08 0f 00 00 	sub    $0xf08,%rsp
    59be:	89 bd ec f0 ff ff    	mov    %edi,-0xf14(%rbp)
    59c4:	48 89 b5 e0 f0 ff ff 	mov    %rsi,-0xf20(%rbp)
    59cb:	48 89 95 d8 f0 ff ff 	mov    %rdx,-0xf28(%rbp)
    59d2:	64 48 8b 04 25 28 00 	mov    %fs:0x28,%rax
    59d9:	00 00 
    59db:	48 89 45 c8          	mov    %rax,-0x38(%rbp)
    59df:	31 c0                	xor    %eax,%eax
    59e1:	48 b8 f1 98 5e dd 83 	movabs $0xfb341a83dd5e98f1,%rax
    59e8:	1a 34 fb 
    59eb:	48 89 85 78 f2 ff ff 	mov    %rax,-0xd88(%rbp)
    59f2:	c7 85 10 f1 ff ff 02 	movl   $0x2,-0xef0(%rbp)
    59f9:	00 00 00 
    59fc:	48 8d 85 a0 f8 ff ff 	lea    -0x760(%rbp),%rax
    5a03:	48 8d 15 76 e6 00 00 	lea    0xe676(%rip),%rdx        # 14080 <g_3084+0x1f>
    5a0a:	b9 6c 00 00 00       	mov    $0x6c,%ecx
    5a0f:	48 89 c7             	mov    %rax,%rdi
    5a12:	48 89 d6             	mov    %rdx,%rsi
    5a15:	f3 48 a5             	rep movsq %ds:(%rsi),%es:(%rdi)
    5a18:	c7 85 b0 f4 ff ff 00 	movl   $0x0,-0xb50(%rbp)
    5a1f:	00 00 00 
    5a22:	c7 85 b4 f4 ff ff ec 	movl   $0x5eeb27ec,-0xb4c(%rbp)
    5a29:	27 eb 5e 
    5a2c:	c7 85 b8 f4 ff ff 00 	movl   $0x0,-0xb48(%rbp)
    5a33:	00 00 00 
    5a36:	c7 85 bc f4 ff ff 00 	movl   $0x0,-0xb44(%rbp)
    5a3d:	00 00 00 
    5a40:	c7 85 c0 f4 ff ff ec 	movl   $0x5eeb27ec,-0xb40(%rbp)
    5a47:	27 eb 5e 
    5a4a:	c7 85 c4 f4 ff ff 00 	movl   $0x0,-0xb3c(%rbp)
    5a51:	00 00 00 
    5a54:	c7 85 c8 f4 ff ff 00 	movl   $0x0,-0xb38(%rbp)
    5a5b:	00 00 00 
    5a5e:	48 8d 05 d7 25 01 00 	lea    0x125d7(%rip),%rax        # 1803c <g_93>
    5a65:	48 89 85 e0 f1 ff ff 	mov    %rax,-0xe20(%rbp)
    5a6c:	48 8d 85 e0 f1 ff ff 	lea    -0xe20(%rbp),%rax
    5a73:	48 89 85 e8 f1 ff ff 	mov    %rax,-0xe18(%rbp)
    5a7a:	48 8d 85 e8 f1 ff ff 	lea    -0xe18(%rbp),%rax
    5a81:	48 89 85 f0 f1 ff ff 	mov    %rax,-0xe10(%rbp)
    5a88:	48 8d 85 f0 f1 ff ff 	lea    -0xe10(%rbp),%rax
    5a8f:	48 89 85 80 f2 ff ff 	mov    %rax,-0xd80(%rbp)
    5a96:	48 8d 05 2b 26 01 00 	lea    0x1262b(%rip),%rax        # 180c8 <g_1185>
    5a9d:	48 89 85 f8 f1 ff ff 	mov    %rax,-0xe08(%rbp)
    5aa4:	c6 85 f4 f0 ff ff 86 	movb   $0x86,-0xf0c(%rbp)
    5aab:	c7 85 64 f1 ff ff 06 	movl   $0x6,-0xe9c(%rbp)
    5ab2:	00 00 00 
    5ab5:	48 8d 05 ec 25 01 00 	lea    0x125ec(%rip),%rax        # 180a8 <g_801>
    5abc:	48 89 85 88 f2 ff ff 	mov    %rax,-0xd78(%rbp)
    5ac3:	66 c7 85 fe f0 ff ff 	movw   $0xffff,-0xf02(%rbp)
    5aca:	ff ff 
    5acc:	c7 85 54 f1 ff ff 19 	movl   $0x55c87219,-0xeac(%rbp)
    5ad3:	72 c8 55 
    5ad6:	48 8d 85 b0 f4 ff ff 	lea    -0xb50(%rbp),%rax
    5add:	48 83 c0 18          	add    $0x18,%rax
    5ae1:	48 89 85 90 f2 ff ff 	mov    %rax,-0xd70(%rbp)
    5ae8:	c6 85 f2 f0 ff ff 8a 	movb   $0x8a,-0xf0e(%rbp)
    5aef:	66 c7 85 70 f4 ff ff 	movw   $0x606,-0xb90(%rbp)
    5af6:	06 06 
    5af8:	c6 85 72 f4 ff ff ca 	movb   $0xca,-0xb8e(%rbp)
    5aff:	66 c7 85 73 f4 ff ff 	movw   $0xfb0b,-0xb8d(%rbp)
    5b06:	0b fb 
    5b08:	c6 85 75 f4 ff ff 0b 	movb   $0xb,-0xb8b(%rbp)
    5b0f:	66 c7 85 76 f4 ff ff 	movw   $0xca06,-0xb8a(%rbp)
    5b16:	06 ca 
    5b18:	c6 85 78 f4 ff ff ca 	movb   $0xca,-0xb88(%rbp)
    5b1f:	66 c7 85 79 f4 ff ff 	movw   $0xfb0c,-0xb87(%rbp)
    5b26:	0c fb 
    5b28:	c6 85 7b f4 ff ff 0c 	movb   $0xc,-0xb85(%rbp)
    5b2f:	66 c7 85 7c f4 ff ff 	movw   $0x606,-0xb84(%rbp)
    5b36:	06 06 
    5b38:	c6 85 7e f4 ff ff ca 	movb   $0xca,-0xb82(%rbp)
    5b3f:	66 c7 85 7f f4 ff ff 	movw   $0xfb0b,-0xb81(%rbp)
    5b46:	0b fb 
    5b48:	c6 85 81 f4 ff ff 0b 	movb   $0xb,-0xb7f(%rbp)
    5b4f:	48 8d 05 7a 38 01 00 	lea    0x1387a(%rip),%rax        # 193d0 <g_966>
    5b56:	48 89 85 00 f2 ff ff 	mov    %rax,-0xe00(%rbp)
    5b5d:	48 8d 85 00 f2 ff ff 	lea    -0xe00(%rbp),%rax
    5b64:	48 89 85 70 f2 ff ff 	mov    %rax,-0xd90(%rbp)
    5b6b:	c7 85 14 f1 ff ff fd 	movl   $0xfffffffd,-0xeec(%rbp)
    5b72:	ff ff ff 
    5b75:	48 8d 05 7c 38 01 00 	lea    0x1387c(%rip),%rax        # 193f8 <g_1293>
    5b7c:	48 89 85 08 f2 ff ff 	mov    %rax,-0xdf8(%rbp)
    5b83:	48 c7 85 98 f2 ff ff 	movq   $0x0,-0xd68(%rbp)
    5b8a:	00 00 00 00 
    5b8e:	48 c7 85 a0 f2 ff ff 	movq   $0x0,-0xd60(%rbp)
    5b95:	00 00 00 00 
    5b99:	c7 85 68 f1 ff ff 2c 	movl   $0xe78f392c,-0xe98(%rbp)
    5ba0:	39 8f e7 
    5ba3:	48 c7 85 a8 f2 ff ff 	movq   $0xffffffffffffffff,-0xd58(%rbp)
    5baa:	ff ff ff ff 
    5bae:	48 c7 85 f0 f4 ff ff 	movq   $0x0,-0xb10(%rbp)
    5bb5:	00 00 00 00 
    5bb9:	48 c7 85 f8 f4 ff ff 	movq   $0x0,-0xb08(%rbp)
    5bc0:	00 00 00 00 
    5bc4:	48 c7 85 00 f5 ff ff 	movq   $0x0,-0xb00(%rbp)
    5bcb:	00 00 00 00 
    5bcf:	48 c7 85 08 f5 ff ff 	movq   $0x0,-0xaf8(%rbp)
    5bd6:	00 00 00 00 
    5bda:	48 c7 85 10 f5 ff ff 	movq   $0x0,-0xaf0(%rbp)
    5be1:	00 00 00 00 
    5be5:	48 c7 85 b0 f2 ff ff 	movq   $0x0,-0xd50(%rbp)
    5bec:	00 00 00 00 
    5bf0:	48 c7 85 b8 f2 ff ff 	movq   $0x0,-0xd48(%rbp)
    5bf7:	00 00 00 00 
    5bfb:	c7 85 44 f1 ff ff 00 	movl   $0x0,-0xebc(%rbp)
    5c02:	00 00 00 
    5c05:	eb 44                	jmp    5c4b <func_2+0x2a5>
    5c07:	c7 85 48 f1 ff ff 00 	movl   $0x0,-0xeb8(%rbp)
    5c0e:	00 00 00 
    5c11:	eb 28                	jmp    5c3b <func_2+0x295>
    5c13:	8b 85 48 f1 ff ff    	mov    -0xeb8(%rbp),%eax
    5c19:	48 98                	cltq   
    5c1b:	8b 95 44 f1 ff ff    	mov    -0xebc(%rbp),%edx
    5c21:	48 63 d2             	movslq %edx,%rdx
    5c24:	48 01 d2             	add    %rdx,%rdx
    5c27:	48 01 d0             	add    %rdx,%rax
    5c2a:	66 c7 84 45 44 f4 ff 	movw   $0xffff,-0xbbc(%rbp,%rax,2)
    5c31:	ff ff ff 
    5c34:	83 85 48 f1 ff ff 01 	addl   $0x1,-0xeb8(%rbp)
    5c3b:	83 bd 48 f1 ff ff 01 	cmpl   $0x1,-0xeb8(%rbp)
    5c42:	7e cf                	jle    5c13 <func_2+0x26d>
    5c44:	83 85 44 f1 ff ff 01 	addl   $0x1,-0xebc(%rbp)
    5c4b:	83 bd 44 f1 ff ff 02 	cmpl   $0x2,-0xebc(%rbp)
    5c52:	7e b3                	jle    5c07 <func_2+0x261>
    5c54:	90                   	nop
    5c55:	c7 05 e1 23 01 00 00 	movl   $0x0,0x123e1(%rip)        # 18040 <g_94>
    5c5c:	00 00 00 
    5c5f:	e9 8b 05 00 00       	jmpq   61ef <func_2+0x849>
    5c64:	48 8d 05 65 37 01 00 	lea    0x13765(%rip),%rax        # 193d0 <g_966>
    5c6b:	48 89 85 10 f4 ff ff 	mov    %rax,-0xbf0(%rbp)
    5c72:	c7 85 c0 f1 ff ff 01 	movl   $0x1,-0xe40(%rbp)
    5c79:	00 00 00 
    5c7c:	c6 85 fc f0 ff ff af 	movb   $0xaf,-0xf04(%rbp)
    5c83:	c7 85 c4 f1 ff ff 03 	movl   $0x3,-0xe3c(%rbp)
    5c8a:	00 00 00 
    5c8d:	48 8d 05 8c 36 01 00 	lea    0x1368c(%rip),%rax        # 19320 <g_695>
    5c94:	48 89 85 18 f4 ff ff 	mov    %rax,-0xbe8(%rbp)
    5c9b:	48 c7 85 20 f4 ff ff 	movq   $0x3,-0xbe0(%rbp)
    5ca2:	03 00 00 00 
    5ca6:	c7 85 50 f2 ff ff 05 	movl   $0x5,-0xdb0(%rbp)
    5cad:	00 00 00 
    5cb0:	c7 85 c8 f1 ff ff 50 	movl   $0x6643f250,-0xe38(%rbp)
    5cb7:	f2 43 66 
    5cba:	c7 85 cc f1 ff ff 9e 	movl   $0x7323339e,-0xe34(%rbp)
    5cc1:	33 23 73 
    5cc4:	c7 85 d0 f1 ff ff 00 	movl   $0x0,-0xe30(%rbp)
    5ccb:	00 00 00 
    5cce:	c7 85 d4 f1 ff ff b9 	movl   $0x6bc295b9,-0xe2c(%rbp)
    5cd5:	95 c2 6b 
    5cd8:	c7 85 58 f2 ff ff 09 	movl   $0x3e619009,-0xda8(%rbp)
    5cdf:	90 61 3e 
    5ce2:	c7 85 d8 f1 ff ff ff 	movl   $0xffffffff,-0xe28(%rbp)
    5ce9:	ff ff ff 
    5cec:	48 c7 85 60 f2 ff ff 	movq   $0x0,-0xda0(%rbp)
    5cf3:	00 00 00 00 
    5cf7:	48 8d 85 60 f2 ff ff 	lea    -0xda0(%rbp),%rax
    5cfe:	48 89 85 28 f4 ff ff 	mov    %rax,-0xbd8(%rbp)
    5d05:	66 c7 85 0e f1 ff ff 	movw   $0x0,-0xef2(%rbp)
    5d0c:	00 00 
    5d0e:	c6 85 fd f0 ff ff ff 	movb   $0xff,-0xf03(%rbp)
    5d15:	48 8d 05 e4 36 01 00 	lea    0x136e4(%rip),%rax        # 19400 <g_1292>
    5d1c:	48 89 85 30 f4 ff ff 	mov    %rax,-0xbd0(%rbp)
    5d23:	c7 85 dc f1 ff ff 08 	movl   $0xc6ddac08,-0xe24(%rbp)
    5d2a:	ac dd c6 
    5d2d:	48 8d 05 78 23 01 00 	lea    0x12378(%rip),%rax        # 180ac <g_850>
    5d34:	48 89 85 00 fc ff ff 	mov    %rax,-0x400(%rbp)
    5d3b:	48 c7 85 08 fc ff ff 	movq   $0x0,-0x3f8(%rbp)
    5d42:	00 00 00 00 
    5d46:	48 8d 05 5f 23 01 00 	lea    0x1235f(%rip),%rax        # 180ac <g_850>
    5d4d:	48 89 85 10 fc ff ff 	mov    %rax,-0x3f0(%rbp)
    5d54:	48 8d 85 58 f2 ff ff 	lea    -0xda8(%rbp),%rax
    5d5b:	48 89 85 18 fc ff ff 	mov    %rax,-0x3e8(%rbp)
    5d62:	48 8d 85 50 f2 ff ff 	lea    -0xdb0(%rbp),%rax
    5d69:	48 89 85 20 fc ff ff 	mov    %rax,-0x3e0(%rbp)
    5d70:	48 8d 85 58 f2 ff ff 	lea    -0xda8(%rbp),%rax
    5d77:	48 89 85 28 fc ff ff 	mov    %rax,-0x3d8(%rbp)
    5d7e:	48 8d 05 27 23 01 00 	lea    0x12327(%rip),%rax        # 180ac <g_850>
    5d85:	48 89 85 30 fc ff ff 	mov    %rax,-0x3d0(%rbp)
    5d8c:	48 c7 85 38 fc ff ff 	movq   $0x0,-0x3c8(%rbp)
    5d93:	00 00 00 00 
    5d97:	48 8d 85 50 f2 ff ff 	lea    -0xdb0(%rbp),%rax
    5d9e:	48 89 85 40 fc ff ff 	mov    %rax,-0x3c0(%rbp)
    5da5:	48 8d 85 58 f2 ff ff 	lea    -0xda8(%rbp),%rax
    5dac:	48 89 85 48 fc ff ff 	mov    %rax,-0x3b8(%rbp)
    5db3:	48 8d 05 f2 22 01 00 	lea    0x122f2(%rip),%rax        # 180ac <g_850>
    5dba:	48 89 85 50 fc ff ff 	mov    %rax,-0x3b0(%rbp)
    5dc1:	48 c7 85 58 fc ff ff 	movq   $0x0,-0x3a8(%rbp)
    5dc8:	00 00 00 00 
    5dcc:	48 8d 05 d9 22 01 00 	lea    0x122d9(%rip),%rax        # 180ac <g_850>
    5dd3:	48 89 85 60 fc ff ff 	mov    %rax,-0x3a0(%rbp)
    5dda:	48 8d 85 58 f2 ff ff 	lea    -0xda8(%rbp),%rax
    5de1:	48 89 85 68 fc ff ff 	mov    %rax,-0x398(%rbp)
    5de8:	48 8d 85 50 f2 ff ff 	lea    -0xdb0(%rbp),%rax
    5def:	48 89 85 70 fc ff ff 	mov    %rax,-0x390(%rbp)
    5df6:	48 8d 85 58 f2 ff ff 	lea    -0xda8(%rbp),%rax
    5dfd:	48 89 85 78 fc ff ff 	mov    %rax,-0x388(%rbp)
    5e04:	48 8d 85 50 f2 ff ff 	lea    -0xdb0(%rbp),%rax
    5e0b:	48 89 85 80 fc ff ff 	mov    %rax,-0x380(%rbp)
    5e12:	48 c7 85 88 fc ff ff 	movq   $0x0,-0x378(%rbp)
    5e19:	00 00 00 00 
    5e1d:	48 8d 85 a0 f6 ff ff 	lea    -0x960(%rbp),%rax
    5e24:	48 89 85 90 fc ff ff 	mov    %rax,-0x370(%rbp)
    5e2b:	48 c7 85 98 fc ff ff 	movq   $0x0,-0x368(%rbp)
    5e32:	00 00 00 00 
    5e36:	48 8d 85 50 f2 ff ff 	lea    -0xdb0(%rbp),%rax
    5e3d:	48 89 85 a0 fc ff ff 	mov    %rax,-0x360(%rbp)
    5e44:	48 8d 85 a0 f8 ff ff 	lea    -0x760(%rbp),%rax
    5e4b:	48 05 6c 02 00 00    	add    $0x26c,%rax
    5e51:	48 89 85 a8 fc ff ff 	mov    %rax,-0x358(%rbp)
    5e58:	48 8d 85 50 f2 ff ff 	lea    -0xdb0(%rbp),%rax
    5e5f:	48 89 85 b0 fc ff ff 	mov    %rax,-0x350(%rbp)
    5e66:	48 c7 85 b8 fc ff ff 	movq   $0x0,-0x348(%rbp)
    5e6d:	00 00 00 00 
    5e71:	48 8d 05 34 22 01 00 	lea    0x12234(%rip),%rax        # 180ac <g_850>
    5e78:	48 89 85 c0 fc ff ff 	mov    %rax,-0x340(%rbp)
    5e7f:	48 c7 85 c8 fc ff ff 	movq   $0x0,-0x338(%rbp)
    5e86:	00 00 00 00 
    5e8a:	48 8d 05 1b 22 01 00 	lea    0x1221b(%rip),%rax        # 180ac <g_850>
    5e91:	48 89 85 d0 fc ff ff 	mov    %rax,-0x330(%rbp)
    5e98:	48 8d 85 58 f2 ff ff 	lea    -0xda8(%rbp),%rax
    5e9f:	48 89 85 d8 fc ff ff 	mov    %rax,-0x328(%rbp)
    5ea6:	48 8d 85 50 f2 ff ff 	lea    -0xdb0(%rbp),%rax
    5ead:	48 89 85 e0 fc ff ff 	mov    %rax,-0x320(%rbp)
    5eb4:	48 8d 85 58 f2 ff ff 	lea    -0xda8(%rbp),%rax
    5ebb:	48 89 85 e8 fc ff ff 	mov    %rax,-0x318(%rbp)
    5ec2:	48 8d 05 e3 21 01 00 	lea    0x121e3(%rip),%rax        # 180ac <g_850>
    5ec9:	48 89 85 f0 fc ff ff 	mov    %rax,-0x310(%rbp)
    5ed0:	48 c7 85 f8 fc ff ff 	movq   $0x0,-0x308(%rbp)
    5ed7:	00 00 00 00 
    5edb:	48 8d 85 50 f2 ff ff 	lea    -0xdb0(%rbp),%rax
    5ee2:	48 89 85 00 fd ff ff 	mov    %rax,-0x300(%rbp)
    5ee9:	48 8d 85 a0 f8 ff ff 	lea    -0x760(%rbp),%rax
    5ef0:	48 05 6c 02 00 00    	add    $0x26c,%rax
    5ef6:	48 89 85 08 fd ff ff 	mov    %rax,-0x2f8(%rbp)
    5efd:	48 8d 85 a0 f6 ff ff 	lea    -0x960(%rbp),%rax
    5f04:	48 89 85 10 fd ff ff 	mov    %rax,-0x2f0(%rbp)
    5f0b:	48 8d 85 58 f2 ff ff 	lea    -0xda8(%rbp),%rax
    5f12:	48 89 85 18 fd ff ff 	mov    %rax,-0x2e8(%rbp)
    5f19:	48 8d 85 a0 f6 ff ff 	lea    -0x960(%rbp),%rax
    5f20:	48 89 85 20 fd ff ff 	mov    %rax,-0x2e0(%rbp)
    5f27:	48 8d 85 a0 f8 ff ff 	lea    -0x760(%rbp),%rax
    5f2e:	48 05 6c 02 00 00    	add    $0x26c,%rax
    5f34:	48 89 85 28 fd ff ff 	mov    %rax,-0x2d8(%rbp)
    5f3b:	48 8d 05 6a 21 01 00 	lea    0x1216a(%rip),%rax        # 180ac <g_850>
    5f42:	48 89 85 30 fd ff ff 	mov    %rax,-0x2d0(%rbp)
    5f49:	48 8d 85 a0 f8 ff ff 	lea    -0x760(%rbp),%rax
    5f50:	48 05 6c 02 00 00    	add    $0x26c,%rax
    5f56:	48 89 85 38 fd ff ff 	mov    %rax,-0x2c8(%rbp)
    5f5d:	48 8d 05 48 21 01 00 	lea    0x12148(%rip),%rax        # 180ac <g_850>
    5f64:	48 89 85 40 fd ff ff 	mov    %rax,-0x2c0(%rbp)
    5f6b:	48 8d 85 58 f2 ff ff 	lea    -0xda8(%rbp),%rax
    5f72:	48 89 85 48 fd ff ff 	mov    %rax,-0x2b8(%rbp)
    5f79:	48 8d 85 50 f2 ff ff 	lea    -0xdb0(%rbp),%rax
    5f80:	48 89 85 50 fd ff ff 	mov    %rax,-0x2b0(%rbp)
    5f87:	48 8d 85 58 f2 ff ff 	lea    -0xda8(%rbp),%rax
    5f8e:	48 89 85 58 fd ff ff 	mov    %rax,-0x2a8(%rbp)
    5f95:	48 8d 05 10 21 01 00 	lea    0x12110(%rip),%rax        # 180ac <g_850>
    5f9c:	48 89 85 60 fd ff ff 	mov    %rax,-0x2a0(%rbp)
    5fa3:	48 c7 85 68 fd ff ff 	movq   $0x0,-0x298(%rbp)
    5faa:	00 00 00 00 
    5fae:	48 8d 05 f7 20 01 00 	lea    0x120f7(%rip),%rax        # 180ac <g_850>
    5fb5:	48 89 85 70 fd ff ff 	mov    %rax,-0x290(%rbp)
    5fbc:	48 8d 85 58 f2 ff ff 	lea    -0xda8(%rbp),%rax
    5fc3:	48 89 85 78 fd ff ff 	mov    %rax,-0x288(%rbp)
    5fca:	48 8d 85 a0 f6 ff ff 	lea    -0x960(%rbp),%rax
    5fd1:	48 89 85 80 fd ff ff 	mov    %rax,-0x280(%rbp)
    5fd8:	48 8d 85 58 f2 ff ff 	lea    -0xda8(%rbp),%rax
    5fdf:	48 89 85 88 fd ff ff 	mov    %rax,-0x278(%rbp)
    5fe6:	48 8d 85 a0 f6 ff ff 	lea    -0x960(%rbp),%rax
    5fed:	48 89 85 90 fd ff ff 	mov    %rax,-0x270(%rbp)
    5ff4:	48 8d 85 a0 f8 ff ff 	lea    -0x760(%rbp),%rax
    5ffb:	48 05 6c 02 00 00    	add    $0x26c,%rax
    6001:	48 89 85 98 fd ff ff 	mov    %rax,-0x268(%rbp)
    6008:	48 8d 05 9d 20 01 00 	lea    0x1209d(%rip),%rax        # 180ac <g_850>
    600f:	48 89 85 a0 fd ff ff 	mov    %rax,-0x260(%rbp)
    6016:	48 8d 85 a0 f8 ff ff 	lea    -0x760(%rbp),%rax
    601d:	48 05 6c 02 00 00    	add    $0x26c,%rax
    6023:	48 89 85 a8 fd ff ff 	mov    %rax,-0x258(%rbp)
    602a:	48 8d 85 a0 f6 ff ff 	lea    -0x960(%rbp),%rax
    6031:	48 89 85 b0 fd ff ff 	mov    %rax,-0x250(%rbp)
    6038:	48 8d 85 58 f2 ff ff 	lea    -0xda8(%rbp),%rax
    603f:	48 89 85 b8 fd ff ff 	mov    %rax,-0x248(%rbp)
    6046:	48 8d 05 5f 20 01 00 	lea    0x1205f(%rip),%rax        # 180ac <g_850>
    604d:	48 89 85 c0 fd ff ff 	mov    %rax,-0x240(%rbp)
    6054:	48 8d 85 a0 f8 ff ff 	lea    -0x760(%rbp),%rax
    605b:	48 05 6c 02 00 00    	add    $0x26c,%rax
    6061:	48 89 85 c8 fd ff ff 	mov    %rax,-0x238(%rbp)
    6068:	48 8d 85 a0 f6 ff ff 	lea    -0x960(%rbp),%rax
    606f:	48 89 85 d0 fd ff ff 	mov    %rax,-0x230(%rbp)
    6076:	48 8d 85 58 f2 ff ff 	lea    -0xda8(%rbp),%rax
    607d:	48 89 85 d8 fd ff ff 	mov    %rax,-0x228(%rbp)
    6084:	48 8d 85 a0 f6 ff ff 	lea    -0x960(%rbp),%rax
    608b:	48 89 85 e0 fd ff ff 	mov    %rax,-0x220(%rbp)
    6092:	48 8d 85 a0 f8 ff ff 	lea    -0x760(%rbp),%rax
    6099:	48 05 6c 02 00 00    	add    $0x26c,%rax
    609f:	48 89 85 e8 fd ff ff 	mov    %rax,-0x218(%rbp)
    60a6:	48 8d 05 ff 1f 01 00 	lea    0x11fff(%rip),%rax        # 180ac <g_850>
    60ad:	48 89 85 f0 fd ff ff 	mov    %rax,-0x210(%rbp)
    60b4:	48 8d 85 a0 f8 ff ff 	lea    -0x760(%rbp),%rax
    60bb:	48 05 6c 02 00 00    	add    $0x26c,%rax
    60c1:	48 89 85 f8 fd ff ff 	mov    %rax,-0x208(%rbp)
    60c8:	48 8d 05 dd 1f 01 00 	lea    0x11fdd(%rip),%rax        # 180ac <g_850>
    60cf:	48 89 85 00 fe ff ff 	mov    %rax,-0x200(%rbp)
    60d6:	48 8d 85 58 f2 ff ff 	lea    -0xda8(%rbp),%rax
    60dd:	48 89 85 08 fe ff ff 	mov    %rax,-0x1f8(%rbp)
    60e4:	48 8d 85 50 f2 ff ff 	lea    -0xdb0(%rbp),%rax
    60eb:	48 89 85 10 fe ff ff 	mov    %rax,-0x1f0(%rbp)
    60f2:	48 8d 85 58 f2 ff ff 	lea    -0xda8(%rbp),%rax
    60f9:	48 89 85 18 fe ff ff 	mov    %rax,-0x1e8(%rbp)
    6100:	48 8d 05 a5 1f 01 00 	lea    0x11fa5(%rip),%rax        # 180ac <g_850>
    6107:	48 89 85 20 fe ff ff 	mov    %rax,-0x1e0(%rbp)
    610e:	48 c7 85 28 fe ff ff 	movq   $0x0,-0x1d8(%rbp)
    6115:	00 00 00 00 
    6119:	48 8d 05 8c 1f 01 00 	lea    0x11f8c(%rip),%rax        # 180ac <g_850>
    6120:	48 89 85 30 fe ff ff 	mov    %rax,-0x1d0(%rbp)
    6127:	48 8d 85 58 f2 ff ff 	lea    -0xda8(%rbp),%rax
    612e:	48 89 85 38 fe ff ff 	mov    %rax,-0x1c8(%rbp)
    6135:	48 8d 85 a0 f6 ff ff 	lea    -0x960(%rbp),%rax
    613c:	48 89 85 40 fe ff ff 	mov    %rax,-0x1c0(%rbp)
    6143:	48 8d 85 58 f2 ff ff 	lea    -0xda8(%rbp),%rax
    614a:	48 89 85 48 fe ff ff 	mov    %rax,-0x1b8(%rbp)
    6151:	48 8d 85 a0 f6 ff ff 	lea    -0x960(%rbp),%rax
    6158:	48 89 85 50 fe ff ff 	mov    %rax,-0x1b0(%rbp)
    615f:	48 8d 85 a0 f8 ff ff 	lea    -0x760(%rbp),%rax
    6166:	48 05 6c 02 00 00    	add    $0x26c,%rax
    616c:	48 89 85 58 fe ff ff 	mov    %rax,-0x1a8(%rbp)
    6173:	48 8d 05 32 1f 01 00 	lea    0x11f32(%rip),%rax        # 180ac <g_850>
    617a:	48 89 85 60 fe ff ff 	mov    %rax,-0x1a0(%rbp)
    6181:	48 8d 85 a0 f8 ff ff 	lea    -0x760(%rbp),%rax
    6188:	48 05 6c 02 00 00    	add    $0x26c,%rax
    618e:	48 89 85 68 fe ff ff 	mov    %rax,-0x198(%rbp)
    6195:	48 8d 85 a0 f6 ff ff 	lea    -0x960(%rbp),%rax
    619c:	48 89 85 70 fe ff ff 	mov    %rax,-0x190(%rbp)
    61a3:	48 8d 85 58 f2 ff ff 	lea    -0xda8(%rbp),%rax
    61aa:	48 89 85 78 fe ff ff 	mov    %rax,-0x188(%rbp)
    61b1:	c7 85 4c f1 ff ff 00 	movl   $0x0,-0xeb4(%rbp)
    61b8:	00 00 00 
    61bb:	eb 1a                	jmp    61d7 <func_2+0x831>
    61bd:	8b 85 4c f1 ff ff    	mov    -0xeb4(%rbp),%eax
    61c3:	48 98                	cltq   
    61c5:	c7 84 85 a0 f6 ff ff 	movl   $0xf04b71b5,-0x960(%rbp,%rax,4)
    61cc:	b5 71 4b f0 
    61d0:	83 85 4c f1 ff ff 01 	addl   $0x1,-0xeb4(%rbp)
    61d7:	83 bd 4c f1 ff ff 00 	cmpl   $0x0,-0xeb4(%rbp)
    61de:	7e dd                	jle    61bd <func_2+0x817>
    61e0:	8b 05 5a 1e 01 00    	mov    0x11e5a(%rip),%eax        # 18040 <g_94>
    61e6:	83 c0 01             	add    $0x1,%eax
    61e9:	89 05 51 1e 01 00    	mov    %eax,0x11e51(%rip)        # 18040 <g_94>
    61ef:	8b 05 4b 1e 01 00    	mov    0x11e4b(%rip),%eax        # 18040 <g_94>
    61f5:	83 f8 02             	cmp    $0x2,%eax
    61f8:	0f 86 66 fa ff ff    	jbe    5c64 <func_2+0x2be>
    61fe:	8b 85 c8 f9 ff ff    	mov    -0x638(%rbp),%eax
    6204:	85 c0                	test   %eax,%eax
    6206:	0f 84 8c 25 00 00    	je     8798 <func_2+0x2df2>
    620c:	48 8d 05 15 3a 01 00 	lea    0x13a15(%rip),%rax        # 19c28 <g_99>
    6213:	48 89 85 10 f3 ff ff 	mov    %rax,-0xcf0(%rbp)
    621a:	48 8d 05 57 1e 01 00 	lea    0x11e57(%rip),%rax        # 18078 <g_211+0x18>
    6221:	48 89 85 50 f5 ff ff 	mov    %rax,-0xab0(%rbp)
    6228:	48 8d 05 49 1e 01 00 	lea    0x11e49(%rip),%rax        # 18078 <g_211+0x18>
    622f:	48 89 85 58 f5 ff ff 	mov    %rax,-0xaa8(%rbp)
    6236:	48 8d 05 3b 1e 01 00 	lea    0x11e3b(%rip),%rax        # 18078 <g_211+0x18>
    623d:	48 89 85 60 f5 ff ff 	mov    %rax,-0xaa0(%rbp)
    6244:	48 8d 05 2d 1e 01 00 	lea    0x11e2d(%rip),%rax        # 18078 <g_211+0x18>
    624b:	48 89 85 68 f5 ff ff 	mov    %rax,-0xa98(%rbp)
    6252:	48 8d 05 1f 1e 01 00 	lea    0x11e1f(%rip),%rax        # 18078 <g_211+0x18>
    6259:	48 89 85 70 f5 ff ff 	mov    %rax,-0xa90(%rbp)
    6260:	48 8d 05 11 1e 01 00 	lea    0x11e11(%rip),%rax        # 18078 <g_211+0x18>
    6267:	48 89 85 78 f5 ff ff 	mov    %rax,-0xa88(%rbp)
    626e:	c6 85 f3 f0 ff ff ff 	movb   $0xff,-0xf0d(%rbp)
    6275:	48 8d 05 24 1e 01 00 	lea    0x11e24(%rip),%rax        # 180a0 <g_525>
    627c:	48 89 85 18 f3 ff ff 	mov    %rax,-0xce8(%rbp)
    6283:	48 8d 85 a0 f6 ff ff 	lea    -0x960(%rbp),%rax
    628a:	48 8d 15 6f 1f 01 00 	lea    0x11f6f(%rip),%rdx        # 18200 <g_3304+0x18>
    6291:	b9 40 00 00 00       	mov    $0x40,%ecx
    6296:	48 89 c7             	mov    %rax,%rdi
    6299:	48 89 d6             	mov    %rdx,%rsi
    629c:	f3 48 a5             	rep movsq %ds:(%rsi),%es:(%rdi)
    629f:	48 8d 05 4a 2c 01 00 	lea    0x12c4a(%rip),%rax        # 18ef0 <g_124+0x190>
    62a6:	48 89 85 10 f2 ff ff 	mov    %rax,-0xdf0(%rbp)
    62ad:	48 8d 85 b0 f4 ff ff 	lea    -0xb50(%rbp),%rax
    62b4:	48 83 c0 08          	add    $0x8,%rax
    62b8:	48 89 85 20 f3 ff ff 	mov    %rax,-0xce0(%rbp)
    62bf:	48 c7 85 28 f3 ff ff 	movq   $0x0,-0xcd8(%rbp)
    62c6:	00 00 00 00 
    62ca:	66 c7 85 02 f1 ff ff 	movw   $0x1,-0xefe(%rbp)
    62d1:	01 00 
    62d3:	48 8d 85 10 f2 ff ff 	lea    -0xdf0(%rbp),%rax
    62da:	48 89 85 30 f3 ff ff 	mov    %rax,-0xcd0(%rbp)
    62e1:	48 c7 85 38 f3 ff ff 	movq   $0x0,-0xcc8(%rbp)
    62e8:	00 00 00 00 
    62ec:	48 8d 85 f8 f1 ff ff 	lea    -0xe08(%rbp),%rax
    62f3:	48 89 85 18 f2 ff ff 	mov    %rax,-0xde8(%rbp)
    62fa:	48 8d 85 18 f2 ff ff 	lea    -0xde8(%rbp),%rax
    6301:	48 89 85 20 f2 ff ff 	mov    %rax,-0xde0(%rbp)
    6308:	48 8d 85 20 f2 ff ff 	lea    -0xde0(%rbp),%rax
    630f:	48 89 85 20 f5 ff ff 	mov    %rax,-0xae0(%rbp)
    6316:	48 8d 85 20 f2 ff ff 	lea    -0xde0(%rbp),%rax
    631d:	48 89 85 28 f5 ff ff 	mov    %rax,-0xad8(%rbp)
    6324:	48 8d 85 20 f2 ff ff 	lea    -0xde0(%rbp),%rax
    632b:	48 89 85 30 f5 ff ff 	mov    %rax,-0xad0(%rbp)
    6332:	48 8d 85 20 f2 ff ff 	lea    -0xde0(%rbp),%rax
    6339:	48 89 85 38 f5 ff ff 	mov    %rax,-0xac8(%rbp)
    6340:	48 8d 85 20 f2 ff ff 	lea    -0xde0(%rbp),%rax
    6347:	48 89 85 40 f5 ff ff 	mov    %rax,-0xac0(%rbp)
    634e:	48 8d 85 20 f5 ff ff 	lea    -0xae0(%rbp),%rax
    6355:	48 83 c0 08          	add    $0x8,%rax
    6359:	48 89 85 40 f3 ff ff 	mov    %rax,-0xcc0(%rbp)
    6360:	48 c7 85 48 f3 ff ff 	movq   $0x9,-0xcb8(%rbp)
    6367:	09 00 00 00 
    636b:	48 8b 85 d8 f0 ff ff 	mov    -0xf28(%rbp),%rax
    6372:	8b 00                	mov    (%rax),%eax
    6374:	25 b1 c4 2e a1       	and    $0xa12ec4b1,%eax
    6379:	89 c2                	mov    %eax,%edx
    637b:	48 8b 85 d8 f0 ff ff 	mov    -0xf28(%rbp),%rax
    6382:	89 10                	mov    %edx,(%rax)
    6384:	83 85 54 f1 ff ff 01 	addl   $0x1,-0xeac(%rbp)
    638b:	48 8b 05 86 2f 01 00 	mov    0x12f86(%rip),%rax        # 19318 <g_412>
    6392:	0f b7 00             	movzwl (%rax),%eax
    6395:	44 0f b7 e8          	movzwl %ax,%r13d
    6399:	48 8b 85 80 f2 ff ff 	mov    -0xd80(%rbp),%rax
    63a0:	48 8b 00             	mov    (%rax),%rax
    63a3:	48 8b 10             	mov    (%rax),%rdx
    63a6:	48 8b 85 f0 f1 ff ff 	mov    -0xe10(%rbp),%rax
    63ad:	48 8b 00             	mov    (%rax),%rax
    63b0:	48 39 c2             	cmp    %rax,%rdx
    63b3:	0f 95 c0             	setne  %al
    63b6:	44 0f b6 f0          	movzbl %al,%r14d
    63ba:	48 8b 05 5f 2f 01 00 	mov    0x12f5f(%rip),%rax        # 19320 <g_695>
    63c1:	48 8b 00             	mov    (%rax),%rax
    63c4:	0f b7 00             	movzwl (%rax),%eax
    63c7:	0f bf d8             	movswl %ax,%ebx
    63ca:	8b 85 ec f0 ff ff    	mov    -0xf14(%rbp),%eax
    63d0:	0f b7 c0             	movzwl %ax,%eax
    63d3:	be 00 00 00 00       	mov    $0x0,%esi
    63d8:	89 c7                	mov    %eax,%edi
    63da:	e8 27 ea ff ff       	callq  4e06 <safe_lshift_func_uint16_t_u_u>
    63df:	8b 85 ec f0 ff ff    	mov    -0xf14(%rbp),%eax
    63e5:	85 c0                	test   %eax,%eax
    63e7:	74 70                	je     6459 <func_2+0xab3>
    63e9:	8b 85 ec f0 ff ff    	mov    -0xf14(%rbp),%eax
    63ef:	44 0f be e0          	movsbl %al,%r12d
    63f3:	8b 85 ec f0 ff ff    	mov    -0xf14(%rbp),%eax
    63f9:	89 c2                	mov    %eax,%edx
    63fb:	8b 85 ec f0 ff ff    	mov    -0xf14(%rbp),%eax
    6401:	85 c0                	test   %eax,%eax
    6403:	74 15                	je     641a <func_2+0xa74>
    6405:	48 8b 05 cc 2f 01 00 	mov    0x12fcc(%rip),%rax        # 193d8 <g_970>
    640c:	48 8b 00             	mov    (%rax),%rax
    640f:	48 8b 00             	mov    (%rax),%rax
    6412:	48 8b 00             	mov    (%rax),%rax
    6415:	48 85 c0             	test   %rax,%rax
    6418:	74 07                	je     6421 <func_2+0xa7b>
    641a:	b8 01 00 00 00       	mov    $0x1,%eax
    641f:	eb 05                	jmp    6426 <func_2+0xa80>
    6421:	b8 00 00 00 00       	mov    $0x0,%eax
    6426:	89 d6                	mov    %edx,%esi
    6428:	89 c7                	mov    %eax,%edi
    642a:	e8 87 e1 ff ff       	callq  45b6 <safe_add_func_int32_t_s_s>
    642f:	48 8b 15 e2 2e 01 00 	mov    0x12ee2(%rip),%rdx        # 19318 <g_412>
    6436:	0f b7 12             	movzwl (%rdx),%edx
    6439:	0f b7 d2             	movzwl %dx,%edx
    643c:	39 d0                	cmp    %edx,%eax
    643e:	0f 9c c0             	setl   %al
    6441:	0f b6 c0             	movzbl %al,%eax
    6444:	44 89 e6             	mov    %r12d,%esi
    6447:	89 c7                	mov    %eax,%edi
    6449:	e8 a4 dd ff ff       	callq  41f2 <safe_sub_func_int8_t_s_s>
    644e:	84 c0                	test   %al,%al
    6450:	74 07                	je     6459 <func_2+0xab3>
    6452:	ba 01 00 00 00       	mov    $0x1,%edx
    6457:	eb 05                	jmp    645e <func_2+0xab8>
    6459:	ba 00 00 00 00       	mov    $0x0,%edx
    645e:	8b 85 00 f9 ff ff    	mov    -0x700(%rbp),%eax
    6464:	31 c2                	xor    %eax,%edx
    6466:	48 8b 85 10 f3 ff ff 	mov    -0xcf0(%rbp),%rax
    646d:	89 10                	mov    %edx,(%rax)
    646f:	48 8b 85 10 f3 ff ff 	mov    -0xcf0(%rbp),%rax
    6476:	8b 00                	mov    (%rax),%eax
    6478:	85 c0                	test   %eax,%eax
    647a:	75 10                	jne    648c <func_2+0xae6>
    647c:	48 8b 05 75 2f 01 00 	mov    0x12f75(%rip),%rax        # 193f8 <g_1293>
    6483:	48 8b 00             	mov    (%rax),%rax
    6486:	8b 00                	mov    (%rax),%eax
    6488:	85 c0                	test   %eax,%eax
    648a:	74 07                	je     6493 <func_2+0xaed>
    648c:	b8 01 00 00 00       	mov    $0x1,%eax
    6491:	eb 05                	jmp    6498 <func_2+0xaf2>
    6493:	b8 00 00 00 00       	mov    $0x0,%eax
    6498:	89 c2                	mov    %eax,%edx
    649a:	8b 85 ec f0 ff ff    	mov    -0xf14(%rbp),%eax
    64a0:	39 c2                	cmp    %eax,%edx
    64a2:	0f 95 c0             	setne  %al
    64a5:	0f b6 c0             	movzbl %al,%eax
    64a8:	48 be 5a 81 7c 5e c8 	movabs $0x2b9092c85e7c815a,%rsi
    64af:	92 90 2b 
    64b2:	48 89 c7             	mov    %rax,%rdi
    64b5:	e8 74 eb ff ff       	callq  502e <safe_add_func_uint64_t_u_u>
    64ba:	0f b6 c0             	movzbl %al,%eax
    64bd:	be 02 00 00 00       	mov    $0x2,%esi
    64c2:	89 c7                	mov    %eax,%edi
    64c4:	e8 f5 e7 ff ff       	callq  4cbe <safe_rshift_func_uint8_t_u_u>
    64c9:	84 c0                	test   %al,%al
    64cb:	8b 05 a7 1b 01 00    	mov    0x11ba7(%rip),%eax        # 18078 <g_211+0x18>
    64d1:	34 d1                	xor    $0xd1,%al
    64d3:	98                   	cwtl   
    64d4:	89 de                	mov    %ebx,%esi
    64d6:	89 c7                	mov    %eax,%edi
    64d8:	e8 78 df ff ff       	callq  4455 <safe_div_func_int16_t_s_s>
    64dd:	0f b7 d0             	movzwl %ax,%edx
    64e0:	48 8b 05 31 2e 01 00 	mov    0x12e31(%rip),%rax        # 19318 <g_412>
    64e7:	0f b7 00             	movzwl (%rax),%eax
    64ea:	0f b7 c0             	movzwl %ax,%eax
    64ed:	89 d6                	mov    %edx,%esi
    64ef:	89 c7                	mov    %eax,%edi
    64f1:	e8 47 e8 ff ff       	callq  4d3d <safe_mul_func_uint16_t_u_u>
    64f6:	0f b7 c0             	movzwl %ax,%eax
    64f9:	41 39 c6             	cmp    %eax,%r14d
    64fc:	0f 9e c0             	setle  %al
    64ff:	0f b6 d0             	movzbl %al,%edx
    6502:	48 8b 85 18 f3 ff ff 	mov    -0xce8(%rbp),%rax
    6509:	66 89 10             	mov    %dx,(%rax)
    650c:	48 8b 85 18 f3 ff ff 	mov    -0xce8(%rbp),%rax
    6513:	0f b7 00             	movzwl (%rax),%eax
    6516:	98                   	cwtl   
    6517:	41 39 c5             	cmp    %eax,%r13d
    651a:	0f 9c c0             	setl   %al
    651d:	0f b6 d0             	movzbl %al,%edx
    6520:	8b 85 ec f0 ff ff    	mov    -0xf14(%rbp),%eax
    6526:	39 c2                	cmp    %eax,%edx
    6528:	0f 93 c0             	setae  %al
    652b:	0f b6 d0             	movzbl %al,%edx
    652e:	48 8b 85 d8 f0 ff ff 	mov    -0xf28(%rbp),%rax
    6535:	8b 00                	mov    (%rax),%eax
    6537:	85 c0                	test   %eax,%eax
    6539:	0f 94 c0             	sete   %al
    653c:	0f b6 c0             	movzbl %al,%eax
    653f:	89 d6                	mov    %edx,%esi
    6541:	89 c7                	mov    %eax,%edi
    6543:	e8 6b de ff ff       	callq  43b3 <safe_add_func_int16_t_s_s>
    6548:	0f bf d0             	movswl %ax,%edx
    654b:	8b 85 ec f0 ff ff    	mov    -0xf14(%rbp),%eax
    6551:	39 c2                	cmp    %eax,%edx
    6553:	0f 86 82 01 00 00    	jbe    66db <func_2+0xd35>
    6559:	48 c7 85 58 f2 ff ff 	movq   $0x0,-0xda8(%rbp)
    6560:	00 00 00 00 
    6564:	48 8d 85 58 f2 ff ff 	lea    -0xda8(%rbp),%rax
    656b:	48 89 85 60 f2 ff ff 	mov    %rax,-0xda0(%rbp)
    6572:	48 8d 85 60 f2 ff ff 	lea    -0xda0(%rbp),%rax
    6579:	48 89 85 00 f4 ff ff 	mov    %rax,-0xc00(%rbp)
    6580:	48 8d 05 2b 37 01 00 	lea    0x1372b(%rip),%rax        # 19cb2 <g_2931>
    6587:	48 89 85 08 f4 ff ff 	mov    %rax,-0xbf8(%rbp)
    658e:	c7 85 50 f1 ff ff 00 	movl   $0x0,-0xeb0(%rbp)
    6595:	00 00 00 
    6598:	eb 1b                	jmp    65b5 <func_2+0xc0f>
    659a:	8b 85 50 f1 ff ff    	mov    -0xeb0(%rbp),%eax
    65a0:	48 98                	cltq   
    65a2:	48 c7 84 c5 00 fc ff 	movq   $0xfffffffffffffffa,-0x400(%rbp,%rax,8)
    65a9:	ff fa ff ff ff 
    65ae:	83 85 50 f1 ff ff 01 	addl   $0x1,-0xeb0(%rbp)
    65b5:	83 bd 50 f1 ff ff 00 	cmpl   $0x0,-0xeb0(%rbp)
    65bc:	7e dc                	jle    659a <func_2+0xbf4>
    65be:	c7 05 70 1a 01 00 00 	movl   $0x0,0x11a70(%rip)        # 18038 <g_24>
    65c5:	00 00 00 
    65c8:	90                   	nop
    65c9:	8b 05 69 1a 01 00    	mov    0x11a69(%rip),%eax        # 18038 <g_24>
    65cf:	83 f8 0d             	cmp    $0xd,%eax
    65d2:	7f 2e                	jg     6602 <func_2+0xc5c>
    65d4:	c7 05 ce 1a 01 00 0b 	movl   $0xb,0x11ace(%rip)        # 180ac <g_850>
    65db:	00 00 00 
    65de:	90                   	nop
    65df:	8b 05 c7 1a 01 00    	mov    0x11ac7(%rip),%eax        # 180ac <g_850>
    65e5:	83 f8 e8             	cmp    $0xffffffe8,%eax
    65e8:	74 0c                	je     65f6 <func_2+0xc50>
    65ea:	48 8b 85 d8 f0 ff ff 	mov    -0xf28(%rbp),%rax
    65f1:	e9 e7 28 00 00       	jmpq   8edd <func_2+0x3537>
    65f6:	48 8b 85 e0 f0 ff ff 	mov    -0xf20(%rbp),%rax
    65fd:	e9 db 28 00 00       	jmpq   8edd <func_2+0x3537>
    6602:	48 8b 05 47 30 01 00 	mov    0x13047(%rip),%rax        # 19650 <g_2915>
    6609:	48 8b 00             	mov    (%rax),%rax
    660c:	8b 18                	mov    (%rax),%ebx
    660e:	8b 85 ec f0 ff ff    	mov    -0xf14(%rbp),%eax
    6614:	41 89 c4             	mov    %eax,%r12d
    6617:	48 8b 05 ba 2d 01 00 	mov    0x12dba(%rip),%rax        # 193d8 <g_970>
    661e:	48 8b 00             	mov    (%rax),%rax
    6621:	48 8b 00             	mov    (%rax),%rax
    6624:	48 8b 00             	mov    (%rax),%rax
    6627:	48 ba a2 62 0f f2 13 	movabs $0x7239a613f20f62a2,%rdx
    662e:	a6 39 72 
    6631:	48 39 d0             	cmp    %rdx,%rax
    6634:	0f 95 c0             	setne  %al
    6637:	0f b6 d0             	movzbl %al,%edx
    663a:	48 8b 85 08 f4 ff ff 	mov    -0xbf8(%rbp),%rax
    6641:	0f b6 00             	movzbl (%rax),%eax
    6644:	8d 70 01             	lea    0x1(%rax),%esi
    6647:	48 8b 8d 08 f4 ff ff 	mov    -0xbf8(%rbp),%rcx
    664e:	40 88 31             	mov    %sil,(%rcx)
    6651:	0f b6 c0             	movzbl %al,%eax
    6654:	89 d6                	mov    %edx,%esi
    6656:	89 c7                	mov    %eax,%edi
    6658:	e8 36 e5 ff ff       	callq  4b93 <safe_mul_func_uint8_t_u_u>
    665d:	84 c0                	test   %al,%al
    665f:	75 0b                	jne    666c <func_2+0xcc6>
    6661:	48 8b 85 10 f3 ff ff 	mov    -0xcf0(%rbp),%rax
    6668:	8b 00                	mov    (%rax),%eax
    666a:	85 c0                	test   %eax,%eax
    666c:	4c 89 e6             	mov    %r12,%rsi
    666f:	bf 00 00 00 00       	mov    $0x0,%edi
    6674:	e8 07 ea ff ff       	callq  5080 <safe_mod_func_uint64_t_u_u>
    6679:	33 85 54 f1 ff ff    	xor    -0xeac(%rbp),%eax
    667f:	89 de                	mov    %ebx,%esi
    6681:	89 c7                	mov    %eax,%edi
    6683:	e8 44 e0 ff ff       	callq  46cc <safe_mod_func_int32_t_s_s>
    6688:	89 c6                	mov    %eax,%esi
    668a:	bf d5 d7 a0 69       	mov    $0x69a0d7d5,%edi
    668f:	e8 71 df ff ff       	callq  4605 <safe_sub_func_int32_t_s_s>
    6694:	48 8b 05 ed 2f 01 00 	mov    0x12fed(%rip),%rax        # 19688 <g_3044>
    669b:	48 39 85 00 f4 ff ff 	cmp    %rax,-0xc00(%rbp)
    66a2:	0f 94 c0             	sete   %al
    66a5:	0f b6 c0             	movzbl %al,%eax
    66a8:	3d f6 00 00 00       	cmp    $0xf6,%eax
    66ad:	0f 96 c0             	setbe  %al
    66b0:	0f b6 c0             	movzbl %al,%eax
    66b3:	48 8b 95 00 fc ff ff 	mov    -0x400(%rbp),%rdx
    66ba:	48 98                	cltq   
    66bc:	48 21 d0             	and    %rdx,%rax
    66bf:	48 89 85 00 fc ff ff 	mov    %rax,-0x400(%rbp)
    66c6:	48 8b 95 00 fc ff ff 	mov    -0x400(%rbp),%rdx
    66cd:	48 8b 05 0c 2f 01 00 	mov    0x12f0c(%rip),%rax        # 195e0 <g_1991>
    66d4:	89 10                	mov    %edx,(%rax)
    66d6:	e9 ec 27 00 00       	jmpq   8ec7 <func_2+0x3521>
    66db:	48 8d 05 0e 2d 01 00 	lea    0x12d0e(%rip),%rax        # 193f0 <g_1294>
    66e2:	48 89 85 28 f2 ff ff 	mov    %rax,-0xdd8(%rbp)
    66e9:	48 c7 85 30 f2 ff ff 	movq   $0x0,-0xdd0(%rbp)
    66f0:	00 00 00 00 
    66f4:	48 8d 85 30 f2 ff ff 	lea    -0xdd0(%rbp),%rax
    66fb:	48 89 85 38 f2 ff ff 	mov    %rax,-0xdc8(%rbp)
    6702:	48 8d 85 38 f2 ff ff 	lea    -0xdc8(%rbp),%rax
    6709:	48 89 85 40 f2 ff ff 	mov    %rax,-0xdc0(%rbp)
    6710:	c7 85 18 f1 ff ff 87 	movl   $0xa54bd187,-0xee8(%rbp)
    6717:	d1 4b a5 
    671a:	48 c7 85 50 f3 ff ff 	movq   $0x0,-0xcb0(%rbp)
    6721:	00 00 00 00 
    6725:	c7 85 1c f1 ff ff 00 	movl   $0x0,-0xee4(%rbp)
    672c:	00 00 00 
    672f:	c7 85 74 f1 ff ff 3d 	movl   $0xdddc1d3d,-0xe8c(%rbp)
    6736:	1d dc dd 
    6739:	c7 85 20 f1 ff ff 01 	movl   $0x1,-0xee0(%rbp)
    6740:	00 00 00 
    6743:	c7 85 78 f1 ff ff ff 	movl   $0xffffffff,-0xe88(%rbp)
    674a:	ff ff ff 
    674d:	c7 85 7c f1 ff ff c5 	movl   $0x683670c5,-0xe84(%rbp)
    6754:	70 36 68 
    6757:	c7 85 80 f1 ff ff ff 	movl   $0xffffffff,-0xe80(%rbp)
    675e:	ff ff ff 
    6761:	c7 85 3c f1 ff ff 01 	movl   $0x1,-0xec4(%rbp)
    6768:	00 00 00 
    676b:	48 8d 05 ce 2e 01 00 	lea    0x12ece(%rip),%rax        # 19640 <g_2479+0x10>
    6772:	48 89 85 48 f2 ff ff 	mov    %rax,-0xdb8(%rbp)
    6779:	48 8d 85 48 f2 ff ff 	lea    -0xdb8(%rbp),%rax
    6780:	48 89 85 58 f3 ff ff 	mov    %rax,-0xca8(%rbp)
    6787:	66 c7 85 04 f1 ff ff 	movw   $0x4,-0xefc(%rbp)
    678e:	04 00 
    6790:	48 b8 db e1 b3 d5 51 	movabs $0x60342451d5b3e1db,%rax
    6797:	24 34 60 
    679a:	48 89 85 60 f3 ff ff 	mov    %rax,-0xca0(%rbp)
    67a1:	48 8d 85 20 f5 ff ff 	lea    -0xae0(%rbp),%rax
    67a8:	48 83 c0 08          	add    $0x8,%rax
    67ac:	48 89 85 68 f3 ff ff 	mov    %rax,-0xc98(%rbp)
    67b3:	48 8d 05 6a 19 01 00 	lea    0x1196a(%rip),%rax        # 18124 <g_2443>
    67ba:	48 89 85 50 f2 ff ff 	mov    %rax,-0xdb0(%rbp)
    67c1:	48 8d 85 50 f2 ff ff 	lea    -0xdb0(%rbp),%rax
    67c8:	48 89 85 70 f3 ff ff 	mov    %rax,-0xc90(%rbp)
    67cf:	c7 85 84 f1 ff ff 05 	movl   $0x5,-0xe7c(%rbp)
    67d6:	00 00 00 
    67d9:	c7 85 b0 f5 ff ff d0 	movl   $0x366d9bd0,-0xa50(%rbp)
    67e0:	9b 6d 36 
    67e3:	c7 85 b4 f5 ff ff 04 	movl   $0x4,-0xa4c(%rbp)
    67ea:	00 00 00 
    67ed:	c7 85 b8 f5 ff ff 38 	movl   $0x9a5bc338,-0xa48(%rbp)
    67f4:	c3 5b 9a 
    67f7:	c7 85 bc f5 ff ff 06 	movl   $0x6,-0xa44(%rbp)
    67fe:	00 00 00 
    6801:	c7 85 c0 f5 ff ff f6 	movl   $0xfffffff6,-0xa40(%rbp)
    6808:	ff ff ff 
    680b:	c7 85 c4 f5 ff ff 01 	movl   $0x1,-0xa3c(%rbp)
    6812:	00 00 00 
    6815:	c7 85 c8 f5 ff ff 06 	movl   $0x6,-0xa38(%rbp)
    681c:	00 00 00 
    681f:	c7 85 cc f5 ff ff f9 	movl   $0xfffffff9,-0xa34(%rbp)
    6826:	ff ff ff 
    6829:	c7 85 d0 f5 ff ff f6 	movl   $0xfffffff6,-0xa30(%rbp)
    6830:	ff ff ff 
    6833:	c7 85 d4 f5 ff ff d0 	movl   $0x366d9bd0,-0xa2c(%rbp)
    683a:	9b 6d 36 
    683d:	c7 85 d8 f5 ff ff 01 	movl   $0x1,-0xa28(%rbp)
    6844:	00 00 00 
    6847:	c7 85 dc f5 ff ff 01 	movl   $0x1,-0xa24(%rbp)
    684e:	00 00 00 
    6851:	c7 85 e0 f5 ff ff 81 	movl   $0xc88d281,-0xa20(%rbp)
    6858:	d2 88 0c 
    685b:	c7 85 e4 f5 ff ff 01 	movl   $0x1,-0xa1c(%rbp)
    6862:	00 00 00 
    6865:	c7 85 e8 f5 ff ff 38 	movl   $0x9a5bc338,-0xa18(%rbp)
    686c:	c3 5b 9a 
    686f:	c7 85 ec f5 ff ff 01 	movl   $0x1,-0xa14(%rbp)
    6876:	00 00 00 
    6879:	c7 85 f0 f5 ff ff f9 	movl   $0xfffffff9,-0xa10(%rbp)
    6880:	ff ff ff 
    6883:	c7 85 f4 f5 ff ff 02 	movl   $0x647a2002,-0xa0c(%rbp)
    688a:	20 7a 64 
    688d:	c7 85 f8 f5 ff ff 81 	movl   $0xc88d281,-0xa08(%rbp)
    6894:	d2 88 0c 
    6897:	c7 85 fc f5 ff ff f6 	movl   $0xfffffff6,-0xa04(%rbp)
    689e:	ff ff ff 
    68a1:	c7 85 00 f6 ff ff 02 	movl   $0x647a2002,-0xa00(%rbp)
    68a8:	20 7a 64 
    68ab:	c7 85 04 f6 ff ff d0 	movl   $0x366d9bd0,-0x9fc(%rbp)
    68b2:	9b 6d 36 
    68b5:	c7 85 08 f6 ff ff 04 	movl   $0x4,-0x9f8(%rbp)
    68bc:	00 00 00 
    68bf:	c7 85 0c f6 ff ff 38 	movl   $0x9a5bc338,-0x9f4(%rbp)
    68c6:	c3 5b 9a 
    68c9:	c7 85 10 f6 ff ff 06 	movl   $0x6,-0x9f0(%rbp)
    68d0:	00 00 00 
    68d3:	c7 85 14 f6 ff ff f6 	movl   $0xfffffff6,-0x9ec(%rbp)
    68da:	ff ff ff 
    68dd:	c7 85 18 f6 ff ff 01 	movl   $0x1,-0x9e8(%rbp)
    68e4:	00 00 00 
    68e7:	c7 85 1c f6 ff ff 06 	movl   $0x6,-0x9e4(%rbp)
    68ee:	00 00 00 
    68f1:	c7 85 20 f6 ff ff f9 	movl   $0xfffffff9,-0x9e0(%rbp)
    68f8:	ff ff ff 
    68fb:	c7 85 24 f6 ff ff f6 	movl   $0xfffffff6,-0x9dc(%rbp)
    6902:	ff ff ff 
    6905:	c7 85 28 f6 ff ff d0 	movl   $0x366d9bd0,-0x9d8(%rbp)
    690c:	9b 6d 36 
    690f:	c7 85 2c f6 ff ff 01 	movl   $0x1,-0x9d4(%rbp)
    6916:	00 00 00 
    6919:	c7 85 30 f6 ff ff 01 	movl   $0x1,-0x9d0(%rbp)
    6920:	00 00 00 
    6923:	c7 85 34 f6 ff ff 81 	movl   $0xc88d281,-0x9cc(%rbp)
    692a:	d2 88 0c 
    692d:	c7 85 38 f6 ff ff 01 	movl   $0x1,-0x9c8(%rbp)
    6934:	00 00 00 
    6937:	c7 85 3c f6 ff ff 38 	movl   $0x9a5bc338,-0x9c4(%rbp)
    693e:	c3 5b 9a 
    6941:	c7 85 40 f6 ff ff 01 	movl   $0x1,-0x9c0(%rbp)
    6948:	00 00 00 
    694b:	c7 85 44 f6 ff ff f9 	movl   $0xfffffff9,-0x9bc(%rbp)
    6952:	ff ff ff 
    6955:	c7 85 48 f6 ff ff 02 	movl   $0x647a2002,-0x9b8(%rbp)
    695c:	20 7a 64 
    695f:	c7 85 4c f6 ff ff 81 	movl   $0xc88d281,-0x9b4(%rbp)
    6966:	d2 88 0c 
    6969:	c7 85 50 f6 ff ff f6 	movl   $0xfffffff6,-0x9b0(%rbp)
    6970:	ff ff ff 
    6973:	c7 85 54 f6 ff ff 02 	movl   $0x647a2002,-0x9ac(%rbp)
    697a:	20 7a 64 
    697d:	c7 85 58 f6 ff ff d0 	movl   $0x366d9bd0,-0x9a8(%rbp)
    6984:	9b 6d 36 
    6987:	c7 85 5c f6 ff ff 04 	movl   $0x4,-0x9a4(%rbp)
    698e:	00 00 00 
    6991:	c7 85 60 f6 ff ff 38 	movl   $0x9a5bc338,-0x9a0(%rbp)
    6998:	c3 5b 9a 
    699b:	c7 85 64 f6 ff ff 06 	movl   $0x6,-0x99c(%rbp)
    69a2:	00 00 00 
    69a5:	c7 85 68 f6 ff ff f6 	movl   $0xfffffff6,-0x998(%rbp)
    69ac:	ff ff ff 
    69af:	c7 85 6c f6 ff ff 01 	movl   $0x1,-0x994(%rbp)
    69b6:	00 00 00 
    69b9:	c7 85 70 f6 ff ff 06 	movl   $0x6,-0x990(%rbp)
    69c0:	00 00 00 
    69c3:	c7 85 74 f6 ff ff f9 	movl   $0xfffffff9,-0x98c(%rbp)
    69ca:	ff ff ff 
    69cd:	c7 85 78 f6 ff ff f6 	movl   $0xfffffff6,-0x988(%rbp)
    69d4:	ff ff ff 
    69d7:	c7 85 7c f6 ff ff d0 	movl   $0x366d9bd0,-0x984(%rbp)
    69de:	9b 6d 36 
    69e1:	c7 85 80 f6 ff ff 01 	movl   $0x1,-0x980(%rbp)
    69e8:	00 00 00 
    69eb:	c7 85 84 f6 ff ff 01 	movl   $0x1,-0x97c(%rbp)
    69f2:	00 00 00 
    69f5:	c7 85 88 f6 ff ff 81 	movl   $0xc88d281,-0x978(%rbp)
    69fc:	d2 88 0c 
    69ff:	c7 85 8c f6 ff ff 01 	movl   $0x1,-0x974(%rbp)
    6a06:	00 00 00 
    6a09:	c7 85 90 f6 ff ff 38 	movl   $0x9a5bc338,-0x970(%rbp)
    6a10:	c3 5b 9a 
    6a13:	c7 85 94 f6 ff ff 01 	movl   $0x1,-0x96c(%rbp)
    6a1a:	00 00 00 
    6a1d:	c7 85 98 f6 ff ff f9 	movl   $0xfffffff9,-0x968(%rbp)
    6a24:	ff ff ff 
    6a27:	c7 85 9c f6 ff ff 02 	movl   $0x647a2002,-0x964(%rbp)
    6a2e:	20 7a 64 
    6a31:	c7 85 40 f1 ff ff 00 	movl   $0x0,-0xec0(%rbp)
    6a38:	00 00 00 
    6a3b:	eb 1a                	jmp    6a57 <func_2+0x10b1>
    6a3d:	8b 85 40 f1 ff ff    	mov    -0xec0(%rbp),%eax
    6a43:	48 98                	cltq   
    6a45:	c7 84 85 38 f4 ff ff 	movl   $0x1cbf993e,-0xbc8(%rbp,%rax,4)
    6a4c:	3e 99 bf 1c 
    6a50:	83 85 40 f1 ff ff 01 	addl   $0x1,-0xec0(%rbp)
    6a57:	83 bd 40 f1 ff ff 02 	cmpl   $0x2,-0xec0(%rbp)
    6a5e:	7e dd                	jle    6a3d <func_2+0x1097>
    6a60:	48 8b 85 28 f2 ff ff 	mov    -0xdd8(%rbp),%rax
    6a67:	48 89 85 58 f7 ff ff 	mov    %rax,-0x8a8(%rbp)
    6a6e:	8b 95 00 fb ff ff    	mov    -0x500(%rbp),%edx
    6a74:	48 8b 05 75 2b 01 00 	mov    0x12b75(%rip),%rax        # 195f0 <g_2127>
    6a7b:	48 8b 00             	mov    (%rax),%rax
    6a7e:	48 8b 00             	mov    (%rax),%rax
    6a81:	48 8b 00             	mov    (%rax),%rax
    6a84:	89 10                	mov    %edx,(%rax)
    6a86:	48 8b 85 40 f2 ff ff 	mov    -0xdc0(%rbp),%rax
    6a8d:	48 85 c0             	test   %rax,%rax
    6a90:	0f 94 c0             	sete   %al
    6a93:	0f b6 c0             	movzbl %al,%eax
    6a96:	89 85 18 f1 ff ff    	mov    %eax,-0xee8(%rbp)
    6a9c:	8b 85 18 f1 ff ff    	mov    -0xee8(%rbp),%eax
    6aa2:	85 c0                	test   %eax,%eax
    6aa4:	0f 84 7b 1a 00 00    	je     8525 <func_2+0x2b7f>
    6aaa:	48 8d 05 b0 d5 00 00 	lea    0xd5b0(%rip),%rax        # 14061 <g_3084>
    6ab1:	48 89 85 a8 f3 ff ff 	mov    %rax,-0xc58(%rbp)
    6ab8:	c7 85 24 f1 ff ff 01 	movl   $0x1,-0xedc(%rbp)
    6abf:	00 00 00 
    6ac2:	c6 85 f6 f0 ff ff 05 	movb   $0x5,-0xf0a(%rbp)
    6ac9:	48 8d 05 68 31 01 00 	lea    0x13168(%rip),%rax        # 19c38 <g_220>
    6ad0:	48 89 85 b0 f3 ff ff 	mov    %rax,-0xc50(%rbp)
    6ad7:	48 8d 05 22 28 01 00 	lea    0x12822(%rip),%rax        # 19300 <g_132>
    6ade:	48 89 85 58 f2 ff ff 	mov    %rax,-0xda8(%rbp)
    6ae5:	48 8d 85 58 f2 ff ff 	lea    -0xda8(%rbp),%rax
    6aec:	48 89 85 60 f2 ff ff 	mov    %rax,-0xda0(%rbp)
    6af3:	48 8d 85 60 f2 ff ff 	lea    -0xda0(%rbp),%rax
    6afa:	48 89 85 b8 f3 ff ff 	mov    %rax,-0xc48(%rbp)
    6b01:	c7 85 88 f1 ff ff 07 	movl   $0x7,-0xe78(%rbp)
    6b08:	00 00 00 
    6b0b:	c7 85 8c f1 ff ff 01 	movl   $0x1,-0xe74(%rbp)
    6b12:	00 00 00 
    6b15:	c7 85 90 f1 ff ff b7 	movl   $0x356a79b7,-0xe70(%rbp)
    6b1c:	79 6a 35 
    6b1f:	c7 85 94 f1 ff ff 00 	movl   $0x0,-0xe6c(%rbp)
    6b26:	00 00 00 
    6b29:	48 8d 05 c0 28 01 00 	lea    0x128c0(%rip),%rax        # 193f0 <g_1294>
    6b30:	48 89 85 c0 f3 ff ff 	mov    %rax,-0xc40(%rbp)
    6b37:	c7 85 34 f1 ff ff 00 	movl   $0x0,-0xecc(%rbp)
    6b3e:	00 00 00 
    6b41:	eb 1b                	jmp    6b5e <func_2+0x11b8>
    6b43:	8b 85 34 f1 ff ff    	mov    -0xecc(%rbp),%eax
    6b49:	48 98                	cltq   
    6b4b:	48 c7 84 c5 d0 f4 ff 	movq   $0x0,-0xb30(%rbp,%rax,8)
    6b52:	ff 00 00 00 00 
    6b57:	83 85 34 f1 ff ff 01 	addl   $0x1,-0xecc(%rbp)
    6b5e:	83 bd 34 f1 ff ff 02 	cmpl   $0x2,-0xecc(%rbp)
    6b65:	7e dc                	jle    6b43 <func_2+0x119d>
    6b67:	c7 85 34 f1 ff ff 00 	movl   $0x0,-0xecc(%rbp)
    6b6e:	00 00 00 
    6b71:	eb 1e                	jmp    6b91 <func_2+0x11eb>
    6b73:	8b 85 34 f1 ff ff    	mov    -0xecc(%rbp),%eax
    6b79:	48 98                	cltq   
    6b7b:	48 8d 15 ce 30 01 00 	lea    0x130ce(%rip),%rdx        # 19c50 <g_505+0x10>
    6b82:	48 89 94 c5 50 f4 ff 	mov    %rdx,-0xbb0(%rbp,%rax,8)
    6b89:	ff 
    6b8a:	83 85 34 f1 ff ff 01 	addl   $0x1,-0xecc(%rbp)
    6b91:	83 bd 34 f1 ff ff 01 	cmpl   $0x1,-0xecc(%rbp)
    6b98:	7e d9                	jle    6b73 <func_2+0x11cd>
    6b9a:	c7 85 34 f1 ff ff 00 	movl   $0x0,-0xecc(%rbp)
    6ba1:	00 00 00 
    6ba4:	eb 1a                	jmp    6bc0 <func_2+0x121a>
    6ba6:	8b 85 34 f1 ff ff    	mov    -0xecc(%rbp),%eax
    6bac:	48 98                	cltq   
    6bae:	c7 84 85 90 f4 ff ff 	movl   $0x361c8dfc,-0xb70(%rbp,%rax,4)
    6bb5:	fc 8d 1c 36 
    6bb9:	83 85 34 f1 ff ff 01 	addl   $0x1,-0xecc(%rbp)
    6bc0:	83 bd 34 f1 ff ff 04 	cmpl   $0x4,-0xecc(%rbp)
    6bc7:	7e dd                	jle    6ba6 <func_2+0x1200>
    6bc9:	8b 85 24 f1 ff ff    	mov    -0xedc(%rbp),%eax
    6bcf:	48 63 d8             	movslq %eax,%rbx
    6bd2:	8b 05 dc 14 01 00    	mov    0x114dc(%rip),%eax        # 180b4 <g_955>
    6bd8:	41 89 c4             	mov    %eax,%r12d
    6bdb:	c6 05 c8 14 01 00 01 	movb   $0x1,0x114c8(%rip)        # 180aa <g_843>
    6be2:	48 8b 85 80 f2 ff ff 	mov    -0xd80(%rbp),%rax
    6be9:	48 8b 00             	mov    (%rax),%rax
    6bec:	48 8b 00             	mov    (%rax),%rax
    6bef:	48 8d 95 f3 f0 ff ff 	lea    -0xf0d(%rbp),%rdx
    6bf6:	48 89 10             	mov    %rdx,(%rax)
    6bf9:	48 8b 08             	mov    (%rax),%rcx
    6bfc:	48 8b 05 0d 28 01 00 	mov    0x1280d(%rip),%rax        # 19410 <g_1392>
    6c03:	48 8b 00             	mov    (%rax),%rax
    6c06:	48 89 85 a8 f3 ff ff 	mov    %rax,-0xc58(%rbp)
    6c0d:	48 8b 05 fc 27 01 00 	mov    0x127fc(%rip),%rax        # 19410 <g_1392>
    6c14:	48 8b 95 a8 f3 ff ff 	mov    -0xc58(%rbp),%rdx
    6c1b:	48 89 10             	mov    %rdx,(%rax)
    6c1e:	48 8b 00             	mov    (%rax),%rax
    6c21:	48 39 c1             	cmp    %rax,%rcx
    6c24:	0f 94 c0             	sete   %al
    6c27:	0f b6 d0             	movzbl %al,%edx
    6c2a:	8b 85 24 f1 ff ff    	mov    -0xedc(%rbp),%eax
    6c30:	39 c2                	cmp    %eax,%edx
    6c32:	0f 9e c0             	setle  %al
    6c35:	0f b6 c0             	movzbl %al,%eax
    6c38:	be 01 00 00 00       	mov    $0x1,%esi
    6c3d:	89 c7                	mov    %eax,%edi
    6c3f:	e8 16 df ff ff       	callq  4b5a <safe_add_func_uint8_t_u_u>
    6c44:	8b 95 24 f1 ff ff    	mov    -0xedc(%rbp),%edx
    6c4a:	8b 85 24 f1 ff ff    	mov    -0xedc(%rbp),%eax
    6c50:	89 d6                	mov    %edx,%esi
    6c52:	89 c7                	mov    %eax,%edi
    6c54:	e8 5d d9 ff ff       	callq  45b6 <safe_add_func_int32_t_s_s>
    6c59:	be ca 23 0a 28       	mov    $0x280a23ca,%esi
    6c5e:	bf 01 00 00 00       	mov    $0x1,%edi
    6c63:	e8 50 e2 ff ff       	callq  4eb8 <safe_add_func_uint32_t_u_u>
    6c68:	0f be c0             	movsbl %al,%eax
    6c6b:	44 89 e6             	mov    %r12d,%esi
    6c6e:	89 c7                	mov    %eax,%edi
    6c70:	e8 79 d6 ff ff       	callq  42ee <safe_lshift_func_int8_t_s_u>
    6c75:	0f be c0             	movsbl %al,%eax
    6c78:	ba 06 00 00 00       	mov    $0x6,%edx
    6c7d:	39 d0                	cmp    %edx,%eax
    6c7f:	0f 97 c0             	seta   %al
    6c82:	0f b6 c0             	movzbl %al,%eax
    6c85:	8b 95 ec f0 ff ff    	mov    -0xf14(%rbp),%edx
    6c8b:	31 d0                	xor    %edx,%eax
    6c8d:	0f b7 c0             	movzwl %ax,%eax
    6c90:	be 05 00 00 00       	mov    $0x5,%esi
    6c95:	89 c7                	mov    %eax,%edi
    6c97:	e8 ac e1 ff ff       	callq  4e48 <safe_rshift_func_uint16_t_u_s>
    6c9c:	0f b7 d0             	movzwl %ax,%edx
    6c9f:	8b 85 18 f1 ff ff    	mov    -0xee8(%rbp),%eax
    6ca5:	39 c2                	cmp    %eax,%edx
    6ca7:	7f 08                	jg     6cb1 <func_2+0x130b>
    6ca9:	8b 85 24 f1 ff ff    	mov    -0xedc(%rbp),%eax
    6caf:	85 c0                	test   %eax,%eax
    6cb1:	be 0b 00 00 00       	mov    $0xb,%esi
    6cb6:	bf 00 00 00 00       	mov    $0x0,%edi
    6cbb:	e8 88 e1 ff ff       	callq  4e48 <safe_rshift_func_uint16_t_u_s>
    6cc0:	0f b7 c0             	movzwl %ax,%eax
    6cc3:	48 89 de             	mov    %rbx,%rsi
    6cc6:	48 89 c7             	mov    %rax,%rdi
    6cc9:	e8 e6 dc ff ff       	callq  49b4 <safe_mod_func_int64_t_s_s>
    6cce:	98                   	cwtl   
    6ccf:	be 04 00 00 00       	mov    $0x4,%esi
    6cd4:	89 c7                	mov    %eax,%edi
    6cd6:	e8 06 d8 ff ff       	callq  44e1 <safe_lshift_func_int16_t_s_u>
    6cdb:	66 3d f4 00          	cmp    $0xf4,%ax
    6cdf:	0f 8e d8 0a 00 00    	jle    77bd <func_2+0x1e17>
    6ce5:	c7 85 98 f1 ff ff 3f 	movl   $0x2252ef3f,-0xe68(%rbp)
    6cec:	ef 52 22 
    6cef:	48 8d 85 1c f1 ff ff 	lea    -0xee4(%rbp),%rax
    6cf6:	48 89 85 00 fc ff ff 	mov    %rax,-0x400(%rbp)
    6cfd:	48 8d 05 34 13 01 00 	lea    0x11334(%rip),%rax        # 18038 <g_24>
    6d04:	48 89 85 08 fc ff ff 	mov    %rax,-0x3f8(%rbp)
    6d0b:	48 8d 85 18 f1 ff ff 	lea    -0xee8(%rbp),%rax
    6d12:	48 89 85 10 fc ff ff 	mov    %rax,-0x3f0(%rbp)
    6d19:	48 c7 85 18 fc ff ff 	movq   $0x0,-0x3e8(%rbp)
    6d20:	00 00 00 00 
    6d24:	48 8d 85 a0 f8 ff ff 	lea    -0x760(%rbp),%rax
    6d2b:	48 83 c0 60          	add    $0x60,%rax
    6d2f:	48 89 85 20 fc ff ff 	mov    %rax,-0x3e0(%rbp)
    6d36:	48 c7 85 28 fc ff ff 	movq   $0x0,-0x3d8(%rbp)
    6d3d:	00 00 00 00 
    6d41:	48 c7 85 30 fc ff ff 	movq   $0x0,-0x3d0(%rbp)
    6d48:	00 00 00 00 
    6d4c:	48 8d 85 10 f1 ff ff 	lea    -0xef0(%rbp),%rax
    6d53:	48 89 85 38 fc ff ff 	mov    %rax,-0x3c8(%rbp)
    6d5a:	48 8d 85 24 f1 ff ff 	lea    -0xedc(%rbp),%rax
    6d61:	48 89 85 40 fc ff ff 	mov    %rax,-0x3c0(%rbp)
    6d68:	48 8d 05 45 13 01 00 	lea    0x11345(%rip),%rax        # 180b4 <g_955>
    6d6f:	48 89 85 48 fc ff ff 	mov    %rax,-0x3b8(%rbp)
    6d76:	48 8d 85 18 f1 ff ff 	lea    -0xee8(%rbp),%rax
    6d7d:	48 89 85 50 fc ff ff 	mov    %rax,-0x3b0(%rbp)
    6d84:	48 c7 85 58 fc ff ff 	movq   $0x0,-0x3a8(%rbp)
    6d8b:	00 00 00 00 
    6d8f:	48 8d 85 a0 f8 ff ff 	lea    -0x760(%rbp),%rax
    6d96:	48 05 20 01 00 00    	add    $0x120,%rax
    6d9c:	48 89 85 60 fc ff ff 	mov    %rax,-0x3a0(%rbp)
    6da3:	48 8d 05 0a 13 01 00 	lea    0x1130a(%rip),%rax        # 180b4 <g_955>
    6daa:	48 89 85 68 fc ff ff 	mov    %rax,-0x398(%rbp)
    6db1:	48 8d 05 70 2e 01 00 	lea    0x12e70(%rip),%rax        # 19c28 <g_99>
    6db8:	48 89 85 70 fc ff ff 	mov    %rax,-0x390(%rbp)
    6dbf:	48 8d 85 18 f1 ff ff 	lea    -0xee8(%rbp),%rax
    6dc6:	48 89 85 78 fc ff ff 	mov    %rax,-0x388(%rbp)
    6dcd:	48 8d 85 a0 f8 ff ff 	lea    -0x760(%rbp),%rax
    6dd4:	48 05 c8 00 00 00    	add    $0xc8,%rax
    6dda:	48 89 85 80 fc ff ff 	mov    %rax,-0x380(%rbp)
    6de1:	48 8d 05 50 12 01 00 	lea    0x11250(%rip),%rax        # 18038 <g_24>
    6de8:	48 89 85 88 fc ff ff 	mov    %rax,-0x378(%rbp)
    6def:	48 8d 05 f6 12 01 00 	lea    0x112f6(%rip),%rax        # 180ec <g_1981>
    6df6:	48 89 85 90 fc ff ff 	mov    %rax,-0x370(%rbp)
    6dfd:	48 8d 05 a8 12 01 00 	lea    0x112a8(%rip),%rax        # 180ac <g_850>
    6e04:	48 89 85 98 fc ff ff 	mov    %rax,-0x368(%rbp)
    6e0b:	48 8d 85 24 f1 ff ff 	lea    -0xedc(%rbp),%rax
    6e12:	48 89 85 a0 fc ff ff 	mov    %rax,-0x360(%rbp)
    6e19:	48 c7 85 a8 fc ff ff 	movq   $0x0,-0x358(%rbp)
    6e20:	00 00 00 00 
    6e24:	48 c7 85 b0 fc ff ff 	movq   $0x0,-0x350(%rbp)
    6e2b:	00 00 00 00 
    6e2f:	48 c7 85 b8 fc ff ff 	movq   $0x0,-0x348(%rbp)
    6e36:	00 00 00 00 
    6e3a:	48 8d 85 24 f1 ff ff 	lea    -0xedc(%rbp),%rax
    6e41:	48 89 85 c0 fc ff ff 	mov    %rax,-0x340(%rbp)
    6e48:	48 8d 85 10 f1 ff ff 	lea    -0xef0(%rbp),%rax
    6e4f:	48 89 85 c8 fc ff ff 	mov    %rax,-0x338(%rbp)
    6e56:	48 8d 05 57 12 01 00 	lea    0x11257(%rip),%rax        # 180b4 <g_955>
    6e5d:	48 89 85 d0 fc ff ff 	mov    %rax,-0x330(%rbp)
    6e64:	48 8d 05 49 12 01 00 	lea    0x11249(%rip),%rax        # 180b4 <g_955>
    6e6b:	48 89 85 d8 fc ff ff 	mov    %rax,-0x328(%rbp)
    6e72:	48 8d 85 18 f1 ff ff 	lea    -0xee8(%rbp),%rax
    6e79:	48 89 85 e0 fc ff ff 	mov    %rax,-0x320(%rbp)
    6e80:	48 8d 05 25 12 01 00 	lea    0x11225(%rip),%rax        # 180ac <g_850>
    6e87:	48 89 85 e8 fc ff ff 	mov    %rax,-0x318(%rbp)
    6e8e:	48 c7 85 f0 fc ff ff 	movq   $0x0,-0x310(%rbp)
    6e95:	00 00 00 00 
    6e99:	48 c7 85 f8 fc ff ff 	movq   $0x0,-0x308(%rbp)
    6ea0:	00 00 00 00 
    6ea4:	48 c7 85 00 fd ff ff 	movq   $0x0,-0x300(%rbp)
    6eab:	00 00 00 00 
    6eaf:	48 8d 85 a0 f8 ff ff 	lea    -0x760(%rbp),%rax
    6eb6:	48 83 c0 60          	add    $0x60,%rax
    6eba:	48 89 85 08 fd ff ff 	mov    %rax,-0x2f8(%rbp)
    6ec1:	48 8d 05 e4 11 01 00 	lea    0x111e4(%rip),%rax        # 180ac <g_850>
    6ec8:	48 89 85 10 fd ff ff 	mov    %rax,-0x2f0(%rbp)
    6ecf:	48 8d 85 18 f1 ff ff 	lea    -0xee8(%rbp),%rax
    6ed6:	48 89 85 18 fd ff ff 	mov    %rax,-0x2e8(%rbp)
    6edd:	48 8d 85 24 f1 ff ff 	lea    -0xedc(%rbp),%rax
    6ee4:	48 89 85 20 fd ff ff 	mov    %rax,-0x2e0(%rbp)
    6eeb:	48 c7 85 28 fd ff ff 	movq   $0x0,-0x2d8(%rbp)
    6ef2:	00 00 00 00 
    6ef6:	48 8d 85 a0 f8 ff ff 	lea    -0x760(%rbp),%rax
    6efd:	48 83 c0 60          	add    $0x60,%rax
    6f01:	48 89 85 30 fd ff ff 	mov    %rax,-0x2d0(%rbp)
    6f08:	48 c7 85 38 fd ff ff 	movq   $0x0,-0x2c8(%rbp)
    6f0f:	00 00 00 00 
    6f13:	48 8d 85 18 f1 ff ff 	lea    -0xee8(%rbp),%rax
    6f1a:	48 89 85 40 fd ff ff 	mov    %rax,-0x2c0(%rbp)
    6f21:	48 8d 85 10 f1 ff ff 	lea    -0xef0(%rbp),%rax
    6f28:	48 89 85 48 fd ff ff 	mov    %rax,-0x2b8(%rbp)
    6f2f:	48 8d 05 f2 2c 01 00 	lea    0x12cf2(%rip),%rax        # 19c28 <g_99>
    6f36:	48 89 85 50 fd ff ff 	mov    %rax,-0x2b0(%rbp)
    6f3d:	48 8d 85 10 f1 ff ff 	lea    -0xef0(%rbp),%rax
    6f44:	48 89 85 58 fd ff ff 	mov    %rax,-0x2a8(%rbp)
    6f4b:	48 8d 85 24 f1 ff ff 	lea    -0xedc(%rbp),%rax
    6f52:	48 89 85 60 fd ff ff 	mov    %rax,-0x2a0(%rbp)
    6f59:	48 8d 85 a0 f8 ff ff 	lea    -0x760(%rbp),%rax
    6f60:	48 83 c0 60          	add    $0x60,%rax
    6f64:	48 89 85 68 fd ff ff 	mov    %rax,-0x298(%rbp)
    6f6b:	48 c7 85 70 fd ff ff 	movq   $0x0,-0x290(%rbp)
    6f72:	00 00 00 00 
    6f76:	48 8d 85 a0 f8 ff ff 	lea    -0x760(%rbp),%rax
    6f7d:	48 83 c0 60          	add    $0x60,%rax
    6f81:	48 89 85 78 fd ff ff 	mov    %rax,-0x288(%rbp)
    6f88:	48 8d 85 24 f1 ff ff 	lea    -0xedc(%rbp),%rax
    6f8f:	48 89 85 80 fd ff ff 	mov    %rax,-0x280(%rbp)
    6f96:	48 8d 05 0f 11 01 00 	lea    0x1110f(%rip),%rax        # 180ac <g_850>
    6f9d:	48 89 85 88 fd ff ff 	mov    %rax,-0x278(%rbp)
    6fa4:	48 8d 05 7d 2c 01 00 	lea    0x12c7d(%rip),%rax        # 19c28 <g_99>
    6fab:	48 89 85 90 fd ff ff 	mov    %rax,-0x270(%rbp)
    6fb2:	48 8d 05 bf 10 01 00 	lea    0x110bf(%rip),%rax        # 18078 <g_211+0x18>
    6fb9:	48 89 85 98 fd ff ff 	mov    %rax,-0x268(%rbp)
    6fc0:	48 8d 85 a0 f8 ff ff 	lea    -0x760(%rbp),%rax
    6fc7:	48 05 c8 00 00 00    	add    $0xc8,%rax
    6fcd:	48 89 85 a0 fd ff ff 	mov    %rax,-0x260(%rbp)
    6fd4:	48 c7 85 a8 fd ff ff 	movq   $0x0,-0x258(%rbp)
    6fdb:	00 00 00 00 
    6fdf:	48 8d 05 52 10 01 00 	lea    0x11052(%rip),%rax        # 18038 <g_24>
    6fe6:	48 89 85 b0 fd ff ff 	mov    %rax,-0x250(%rbp)
    6fed:	48 8d 05 c0 10 01 00 	lea    0x110c0(%rip),%rax        # 180b4 <g_955>
    6ff4:	48 89 85 b8 fd ff ff 	mov    %rax,-0x248(%rbp)
    6ffb:	48 8d 85 18 f1 ff ff 	lea    -0xee8(%rbp),%rax
    7002:	48 89 85 c0 fd ff ff 	mov    %rax,-0x240(%rbp)
    7009:	48 8d 85 18 f1 ff ff 	lea    -0xee8(%rbp),%rax
    7010:	48 89 85 c8 fd ff ff 	mov    %rax,-0x238(%rbp)
    7017:	48 8d 85 18 f1 ff ff 	lea    -0xee8(%rbp),%rax
    701e:	48 89 85 d0 fd ff ff 	mov    %rax,-0x230(%rbp)
    7025:	48 8d 05 c0 10 01 00 	lea    0x110c0(%rip),%rax        # 180ec <g_1981>
    702c:	48 89 85 d8 fd ff ff 	mov    %rax,-0x228(%rbp)
    7033:	48 8d 85 1c f1 ff ff 	lea    -0xee4(%rbp),%rax
    703a:	48 89 85 e0 fd ff ff 	mov    %rax,-0x220(%rbp)
    7041:	48 c7 85 e8 fd ff ff 	movq   $0x0,-0x218(%rbp)
    7048:	00 00 00 00 
    704c:	48 8d 85 10 f1 ff ff 	lea    -0xef0(%rbp),%rax
    7053:	48 89 85 f0 fd ff ff 	mov    %rax,-0x210(%rbp)
    705a:	48 c7 85 f8 fd ff ff 	movq   $0x0,-0x208(%rbp)
    7061:	00 00 00 00 
    7065:	48 8d 85 a0 f8 ff ff 	lea    -0x760(%rbp),%rax
    706c:	48 83 c0 60          	add    $0x60,%rax
    7070:	48 89 85 00 fe ff ff 	mov    %rax,-0x200(%rbp)
    7077:	48 8d 85 10 f1 ff ff 	lea    -0xef0(%rbp),%rax
    707e:	48 89 85 08 fe ff ff 	mov    %rax,-0x1f8(%rbp)
    7085:	48 8d 05 20 10 01 00 	lea    0x11020(%rip),%rax        # 180ac <g_850>
    708c:	48 89 85 10 fe ff ff 	mov    %rax,-0x1f0(%rbp)
    7093:	48 c7 85 18 fe ff ff 	movq   $0x0,-0x1e8(%rbp)
    709a:	00 00 00 00 
    709e:	48 8d 05 47 10 01 00 	lea    0x11047(%rip),%rax        # 180ec <g_1981>
    70a5:	48 89 85 20 fe ff ff 	mov    %rax,-0x1e0(%rbp)
    70ac:	48 8d 85 18 f1 ff ff 	lea    -0xee8(%rbp),%rax
    70b3:	48 89 85 28 fe ff ff 	mov    %rax,-0x1d8(%rbp)
    70ba:	48 8d 85 24 f1 ff ff 	lea    -0xedc(%rbp),%rax
    70c1:	48 89 85 30 fe ff ff 	mov    %rax,-0x1d0(%rbp)
    70c8:	48 8d 85 18 f1 ff ff 	lea    -0xee8(%rbp),%rax
    70cf:	48 89 85 38 fe ff ff 	mov    %rax,-0x1c8(%rbp)
    70d6:	48 8d 85 a0 f8 ff ff 	lea    -0x760(%rbp),%rax
    70dd:	48 83 c0 60          	add    $0x60,%rax
    70e1:	48 89 85 40 fe ff ff 	mov    %rax,-0x1c0(%rbp)
    70e8:	48 8d 05 7d 0f 01 00 	lea    0x10f7d(%rip),%rax        # 1806c <g_211+0xc>
    70ef:	48 89 85 48 fe ff ff 	mov    %rax,-0x1b8(%rbp)
    70f6:	48 c7 85 50 fe ff ff 	movq   $0x0,-0x1b0(%rbp)
    70fd:	00 00 00 00 
    7101:	48 c7 85 58 fe ff ff 	movq   $0x0,-0x1a8(%rbp)
    7108:	00 00 00 00 
    710c:	48 c7 85 60 fe ff ff 	movq   $0x0,-0x1a0(%rbp)
    7113:	00 00 00 00 
    7117:	48 8d 05 0a 2b 01 00 	lea    0x12b0a(%rip),%rax        # 19c28 <g_99>
    711e:	48 89 85 68 fe ff ff 	mov    %rax,-0x198(%rbp)
    7125:	48 c7 85 70 fe ff ff 	movq   $0x0,-0x190(%rbp)
    712c:	00 00 00 00 
    7130:	48 8d 05 01 0f 01 00 	lea    0x10f01(%rip),%rax        # 18038 <g_24>
    7137:	48 89 85 78 fe ff ff 	mov    %rax,-0x188(%rbp)
    713e:	48 8d 85 a0 f8 ff ff 	lea    -0x760(%rbp),%rax
    7145:	48 83 c0 60          	add    $0x60,%rax
    7149:	48 89 85 80 fe ff ff 	mov    %rax,-0x180(%rbp)
    7150:	48 8d 85 24 f1 ff ff 	lea    -0xedc(%rbp),%rax
    7157:	48 89 85 88 fe ff ff 	mov    %rax,-0x178(%rbp)
    715e:	48 8d 85 b0 f4 ff ff 	lea    -0xb50(%rbp),%rax
    7165:	48 83 c0 08          	add    $0x8,%rax
    7169:	48 89 85 90 fe ff ff 	mov    %rax,-0x170(%rbp)
    7170:	48 8d 85 24 f1 ff ff 	lea    -0xedc(%rbp),%rax
    7177:	48 89 85 98 fe ff ff 	mov    %rax,-0x168(%rbp)
    717e:	48 8d 85 b0 f4 ff ff 	lea    -0xb50(%rbp),%rax
    7185:	48 83 c0 18          	add    $0x18,%rax
    7189:	48 89 85 a0 fe ff ff 	mov    %rax,-0x160(%rbp)
    7190:	48 8d 85 24 f1 ff ff 	lea    -0xedc(%rbp),%rax
    7197:	48 89 85 a8 fe ff ff 	mov    %rax,-0x158(%rbp)
    719e:	48 8d 85 10 f1 ff ff 	lea    -0xef0(%rbp),%rax
    71a5:	48 89 85 b0 fe ff ff 	mov    %rax,-0x150(%rbp)
    71ac:	48 8d 85 a0 f8 ff ff 	lea    -0x760(%rbp),%rax
    71b3:	48 83 c0 60          	add    $0x60,%rax
    71b7:	48 89 85 b8 fe ff ff 	mov    %rax,-0x148(%rbp)
    71be:	48 8d 05 73 0e 01 00 	lea    0x10e73(%rip),%rax        # 18038 <g_24>
    71c5:	48 89 85 c0 fe ff ff 	mov    %rax,-0x140(%rbp)
    71cc:	48 8d 85 a0 f8 ff ff 	lea    -0x760(%rbp),%rax
    71d3:	48 83 c0 60          	add    $0x60,%rax
    71d7:	48 89 85 c8 fe ff ff 	mov    %rax,-0x138(%rbp)
    71de:	48 c7 85 d0 fe ff ff 	movq   $0x0,-0x130(%rbp)
    71e5:	00 00 00 00 
    71e9:	48 c7 85 d8 fe ff ff 	movq   $0x0,-0x128(%rbp)
    71f0:	00 00 00 00 
    71f4:	48 8d 85 18 f1 ff ff 	lea    -0xee8(%rbp),%rax
    71fb:	48 89 85 e0 fe ff ff 	mov    %rax,-0x120(%rbp)
    7202:	48 8d 05 6f 0e 01 00 	lea    0x10e6f(%rip),%rax        # 18078 <g_211+0x18>
    7209:	48 89 85 e8 fe ff ff 	mov    %rax,-0x118(%rbp)
    7210:	48 8d 85 b0 f4 ff ff 	lea    -0xb50(%rbp),%rax
    7217:	48 83 c0 18          	add    $0x18,%rax
    721b:	48 89 85 f0 fe ff ff 	mov    %rax,-0x110(%rbp)
    7222:	48 c7 85 f8 fe ff ff 	movq   $0x0,-0x108(%rbp)
    7229:	00 00 00 00 
    722d:	48 c7 85 00 ff ff ff 	movq   $0x0,-0x100(%rbp)
    7234:	00 00 00 00 
    7238:	48 8d 85 b0 f4 ff ff 	lea    -0xb50(%rbp),%rax
    723f:	48 83 c0 18          	add    $0x18,%rax
    7243:	48 89 85 08 ff ff ff 	mov    %rax,-0xf8(%rbp)
    724a:	48 8d 05 5b 0e 01 00 	lea    0x10e5b(%rip),%rax        # 180ac <g_850>
    7251:	48 89 85 10 ff ff ff 	mov    %rax,-0xf0(%rbp)
    7258:	48 8d 85 a0 f8 ff ff 	lea    -0x760(%rbp),%rax
    725f:	48 83 c0 60          	add    $0x60,%rax
    7263:	48 89 85 18 ff ff ff 	mov    %rax,-0xe8(%rbp)
    726a:	48 c7 85 20 ff ff ff 	movq   $0x0,-0xe0(%rbp)
    7271:	00 00 00 00 
    7275:	48 8d 05 38 0e 01 00 	lea    0x10e38(%rip),%rax        # 180b4 <g_955>
    727c:	48 89 85 28 ff ff ff 	mov    %rax,-0xd8(%rbp)
    7283:	48 8d 85 b0 f4 ff ff 	lea    -0xb50(%rbp),%rax
    728a:	48 83 c0 18          	add    $0x18,%rax
    728e:	48 89 85 30 ff ff ff 	mov    %rax,-0xd0(%rbp)
    7295:	48 8d 85 a0 f8 ff ff 	lea    -0x760(%rbp),%rax
    729c:	48 83 c0 60          	add    $0x60,%rax
    72a0:	48 89 85 38 ff ff ff 	mov    %rax,-0xc8(%rbp)
    72a7:	48 c7 85 40 ff ff ff 	movq   $0x0,-0xc0(%rbp)
    72ae:	00 00 00 00 
    72b2:	48 8d 85 24 f1 ff ff 	lea    -0xedc(%rbp),%rax
    72b9:	48 89 85 48 ff ff ff 	mov    %rax,-0xb8(%rbp)
    72c0:	48 8d 85 a0 f8 ff ff 	lea    -0x760(%rbp),%rax
    72c7:	48 83 c0 60          	add    $0x60,%rax
    72cb:	48 89 85 50 ff ff ff 	mov    %rax,-0xb0(%rbp)
    72d2:	48 8d 85 24 f1 ff ff 	lea    -0xedc(%rbp),%rax
    72d9:	48 89 85 58 ff ff ff 	mov    %rax,-0xa8(%rbp)
    72e0:	48 c7 85 60 ff ff ff 	movq   $0x0,-0xa0(%rbp)
    72e7:	00 00 00 00 
    72eb:	48 8d 85 24 f1 ff ff 	lea    -0xedc(%rbp),%rax
    72f2:	48 89 85 68 ff ff ff 	mov    %rax,-0x98(%rbp)
    72f9:	48 8d 05 38 0d 01 00 	lea    0x10d38(%rip),%rax        # 18038 <g_24>
    7300:	48 89 85 70 ff ff ff 	mov    %rax,-0x90(%rbp)
    7307:	48 c7 85 78 ff ff ff 	movq   $0x0,-0x88(%rbp)
    730e:	00 00 00 00 
    7312:	48 8d 85 a0 f8 ff ff 	lea    -0x760(%rbp),%rax
    7319:	48 83 c0 60          	add    $0x60,%rax
    731d:	48 89 45 80          	mov    %rax,-0x80(%rbp)
    7321:	48 8d 05 00 29 01 00 	lea    0x12900(%rip),%rax        # 19c28 <g_99>
    7328:	48 89 45 88          	mov    %rax,-0x78(%rbp)
    732c:	48 8d 85 a0 f8 ff ff 	lea    -0x760(%rbp),%rax
    7333:	48 83 c0 60          	add    $0x60,%rax
    7337:	48 89 45 90          	mov    %rax,-0x70(%rbp)
    733b:	48 8d 85 1c f1 ff ff 	lea    -0xee4(%rbp),%rax
    7342:	48 89 45 98          	mov    %rax,-0x68(%rbp)
    7346:	48 c7 45 a0 00 00 00 	movq   $0x0,-0x60(%rbp)
    734d:	00 
    734e:	48 8d 85 18 f1 ff ff 	lea    -0xee8(%rbp),%rax
    7355:	48 89 45 a8          	mov    %rax,-0x58(%rbp)
    7359:	48 8d 85 18 f1 ff ff 	lea    -0xee8(%rbp),%rax
    7360:	48 89 45 b0          	mov    %rax,-0x50(%rbp)
    7364:	48 8d 85 a0 f8 ff ff 	lea    -0x760(%rbp),%rax
    736b:	48 05 20 01 00 00    	add    $0x120,%rax
    7371:	48 89 45 b8          	mov    %rax,-0x48(%rbp)
    7375:	48 8b 85 10 f3 ff ff 	mov    -0xcf0(%rbp),%rax
    737c:	44 8b 20             	mov    (%rax),%r12d
    737f:	8b 85 1c f1 ff ff    	mov    -0xee4(%rbp),%eax
    7385:	0f b6 d8             	movzbl %al,%ebx
    7388:	8b 85 ec f0 ff ff    	mov    -0xf14(%rbp),%eax
    738e:	89 c6                	mov    %eax,%esi
    7390:	bf 75 49 00 00       	mov    $0x4975,%edi
    7395:	e8 c9 d1 ff ff       	callq  4563 <safe_rshift_func_int16_t_s_u>
    739a:	98                   	cwtl   
    739b:	83 e0 01             	and    $0x1,%eax
    739e:	89 85 18 f1 ff ff    	mov    %eax,-0xee8(%rbp)
    73a4:	8b 85 18 f1 ff ff    	mov    -0xee8(%rbp),%eax
    73aa:	48 98                	cltq   
    73ac:	48 89 c6             	mov    %rax,%rsi
    73af:	bf 01 00 00 00       	mov    $0x1,%edi
    73b4:	e8 ef d4 ff ff       	callq  48a8 <safe_sub_func_int64_t_s_s>
    73b9:	83 bd 64 f1 ff ff 05 	cmpl   $0x5,-0xe9c(%rbp)
    73c0:	0f 94 c2             	sete   %dl
    73c3:	48 8b 05 26 20 01 00 	mov    0x12026(%rip),%rax        # 193f0 <g_1294>
    73ca:	0f b6 d2             	movzbl %dl,%edx
    73cd:	89 10                	mov    %edx,(%rax)
    73cf:	8b 10                	mov    (%rax),%edx
    73d1:	48 83 bd 50 f3 ff ff 	cmpq   $0x0,-0xcb0(%rbp)
    73d8:	00 
    73d9:	0f 95 c0             	setne  %al
    73dc:	0f b6 c0             	movzbl %al,%eax
    73df:	39 c2                	cmp    %eax,%edx
    73e1:	0f 92 c0             	setb   %al
    73e4:	0f b6 c0             	movzbl %al,%eax
    73e7:	89 de                	mov    %ebx,%esi
    73e9:	89 c7                	mov    %eax,%edi
    73eb:	e8 eb d7 ff ff       	callq  4bdb <safe_div_func_uint8_t_u_u>
    73f0:	0f b6 c0             	movzbl %al,%eax
    73f3:	44 21 e0             	and    %r12d,%eax
    73f6:	85 c0                	test   %eax,%eax
    73f8:	75 08                	jne    7402 <func_2+0x1a5c>
    73fa:	8b 85 24 f1 ff ff    	mov    -0xedc(%rbp),%eax
    7400:	85 c0                	test   %eax,%eax
    7402:	48 8b 85 10 f3 ff ff 	mov    -0xcf0(%rbp),%rax
    7409:	c7 00 bd e1 c9 12    	movl   $0x12c9e1bd,(%rax)
    740f:	c7 85 9c f1 ff ff 00 	movl   $0x0,-0xe64(%rbp)
    7416:	00 00 00 
    7419:	48 8d 85 50 f4 ff ff 	lea    -0xbb0(%rbp),%rax
    7420:	48 89 85 d0 f3 ff ff 	mov    %rax,-0xc30(%rbp)
    7427:	c7 85 38 f1 ff ff 00 	movl   $0x0,-0xec8(%rbp)
    742e:	00 00 00 
    7431:	eb 1e                	jmp    7451 <func_2+0x1aab>
    7433:	8b 85 38 f1 ff ff    	mov    -0xec8(%rbp),%eax
    7439:	48 98                	cltq   
    743b:	48 8d 15 70 28 01 00 	lea    0x12870(%rip),%rdx        # 19cb2 <g_2931>
    7442:	48 89 94 c5 80 f5 ff 	mov    %rdx,-0xa80(%rbp,%rax,8)
    7449:	ff 
    744a:	83 85 38 f1 ff ff 01 	addl   $0x1,-0xec8(%rbp)
    7451:	83 bd 38 f1 ff ff 03 	cmpl   $0x3,-0xec8(%rbp)
    7458:	7e d9                	jle    7433 <func_2+0x1a8d>
    745a:	48 8d 85 24 f1 ff ff 	lea    -0xedc(%rbp),%rax
    7461:	48 89 85 90 f2 ff ff 	mov    %rax,-0xd70(%rbp)
    7468:	8b 85 ec f0 ff ff    	mov    -0xf14(%rbp),%eax
    746e:	89 c7                	mov    %eax,%edi
    7470:	e8 a4 4e 00 00       	callq  c319 <func_16>
    7475:	48 89 85 90 f2 ff ff 	mov    %rax,-0xd70(%rbp)
    747c:	48 8b 05 85 1f 01 00 	mov    0x11f85(%rip),%rax        # 19408 <g_1393>
    7483:	0f b6 00             	movzbl (%rax),%eax
    7486:	0f b6 d8             	movzbl %al,%ebx
    7489:	8b 85 ec f0 ff ff    	mov    -0xf14(%rbp),%eax
    748f:	44 0f b7 e0          	movzwl %ax,%r12d
    7493:	8b 85 ec f0 ff ff    	mov    -0xf14(%rbp),%eax
    7499:	85 c0                	test   %eax,%eax
    749b:	74 6f                	je     750c <func_2+0x1b66>
    749d:	48 8b 95 50 f4 ff ff 	mov    -0xbb0(%rbp),%rdx
    74a4:	48 8b 85 d0 f3 ff ff 	mov    -0xc30(%rbp),%rax
    74ab:	48 89 10             	mov    %rdx,(%rax)
    74ae:	48 8b 85 d0 f3 ff ff 	mov    -0xc30(%rbp),%rax
    74b5:	48 8b 00             	mov    (%rax),%rax
    74b8:	48 85 c0             	test   %rax,%rax
    74bb:	0f 95 c0             	setne  %al
    74be:	0f b6 c0             	movzbl %al,%eax
    74c1:	89 85 24 f1 ff ff    	mov    %eax,-0xedc(%rbp)
    74c7:	8b 85 24 f1 ff ff    	mov    -0xedc(%rbp),%eax
    74cd:	89 c2                	mov    %eax,%edx
    74cf:	8b 85 ec f0 ff ff    	mov    -0xf14(%rbp),%eax
    74d5:	39 c2                	cmp    %eax,%edx
    74d7:	0f 95 c0             	setne  %al
    74da:	0f b6 c0             	movzbl %al,%eax
    74dd:	48 be a6 20 57 b4 50 	movabs $0x65883450b45720a6,%rsi
    74e4:	34 88 65 
    74e7:	48 89 c7             	mov    %rax,%rdi
    74ea:	e8 c0 db ff ff       	callq  50af <safe_div_func_uint64_t_u_u>
    74ef:	48 8b 05 fa 20 01 00 	mov    0x120fa(%rip),%rax        # 195f0 <g_2127>
    74f6:	48 8b 00             	mov    (%rax),%rax
    74f9:	48 8b 00             	mov    (%rax),%rax
    74fc:	48 8b 00             	mov    (%rax),%rax
    74ff:	c7 00 01 00 00 00    	movl   $0x1,(%rax)
    7505:	b8 01 00 00 00       	mov    $0x1,%eax
    750a:	eb 05                	jmp    7511 <func_2+0x1b6b>
    750c:	b8 00 00 00 00       	mov    $0x0,%eax
    7511:	44 0f b7 e8          	movzwl %ax,%r13d
    7515:	c7 85 9c f1 ff ff 01 	movl   $0x1,-0xe64(%rbp)
    751c:	00 00 00 
    751f:	be 07 00 00 00       	mov    $0x7,%esi
    7524:	bf 01 00 00 00       	mov    $0x1,%edi
    7529:	e8 1e d7 ff ff       	callq  4c4c <safe_lshift_func_uint8_t_u_u>
    752e:	0f b6 c0             	movzbl %al,%eax
    7531:	44 89 ee             	mov    %r13d,%esi
    7534:	89 c7                	mov    %eax,%edi
    7536:	e8 c4 d7 ff ff       	callq  4cff <safe_add_func_uint16_t_u_u>
    753b:	0f b6 85 f2 f0 ff ff 	movzbl -0xf0e(%rbp),%eax
    7542:	44 0f b6 e8          	movzbl %al,%r13d
    7546:	8b 85 ec f0 ff ff    	mov    -0xf14(%rbp),%eax
    754c:	0f b7 c0             	movzwl %ax,%eax
    754f:	be 0f 00 00 00       	mov    $0xf,%esi
    7554:	89 c7                	mov    %eax,%edi
    7556:	e8 1f d9 ff ff       	callq  4e7a <safe_rshift_func_uint16_t_u_u>
    755b:	44 89 ee             	mov    %r13d,%esi
    755e:	bf cd 00 00 00       	mov    $0xcd,%edi
    7563:	e8 10 d6 ff ff       	callq  4b78 <safe_sub_func_uint8_t_u_u>
    7568:	0f b6 c0             	movzbl %al,%eax
    756b:	44 89 e6             	mov    %r12d,%esi
    756e:	89 c7                	mov    %eax,%edi
    7570:	e8 e7 d7 ff ff       	callq  4d5c <safe_mod_func_uint16_t_u_u>
    7575:	89 de                	mov    %ebx,%esi
    7577:	bf 00 00 00 00       	mov    $0x0,%edi
    757c:	e8 5a d6 ff ff       	callq  4bdb <safe_div_func_uint8_t_u_u>
    7581:	8b 15 99 0b 01 00    	mov    0x10b99(%rip),%edx        # 18120 <g_2253>
    7587:	8b 85 ec f0 ff ff    	mov    -0xf14(%rbp),%eax
    758d:	21 c2                	and    %eax,%edx
    758f:	48 8b 05 42 20 01 00 	mov    0x12042(%rip),%rax        # 195d8 <g_1900>
    7596:	89 10                	mov    %edx,(%rax)
    7598:	48 8b 05 59 20 01 00 	mov    0x12059(%rip),%rax        # 195f8 <g_2126>
    759f:	48 8b 00             	mov    (%rax),%rax
    75a2:	48 85 c0             	test   %rax,%rax
    75a5:	0f 95 c0             	setne  %al
    75a8:	0f b6 d0             	movzbl %al,%edx
    75ab:	48 8b 85 d8 f0 ff ff 	mov    -0xf28(%rbp),%rax
    75b2:	89 10                	mov    %edx,(%rax)
    75b4:	48 8b 85 d8 f0 ff ff 	mov    -0xf28(%rbp),%rax
    75bb:	8b 00                	mov    (%rax),%eax
    75bd:	85 c0                	test   %eax,%eax
    75bf:	74 0c                	je     75cd <func_2+0x1c27>
    75c1:	48 8b 85 e0 f0 ff ff 	mov    -0xf20(%rbp),%rax
    75c8:	e9 10 19 00 00       	jmpq   8edd <func_2+0x3537>
    75cd:	c7 85 80 f5 ff ff 41 	movl   $0xc416ea41,-0xa80(%rbp)
    75d4:	ea 16 c4 
    75d7:	c7 85 84 f5 ff ff e7 	movl   $0x80a9b8e7,-0xa7c(%rbp)
    75de:	b8 a9 80 
    75e1:	c7 85 88 f5 ff ff e7 	movl   $0x80a9b8e7,-0xa78(%rbp)
    75e8:	b8 a9 80 
    75eb:	c7 85 8c f5 ff ff 41 	movl   $0xc416ea41,-0xa74(%rbp)
    75f2:	ea 16 c4 
    75f5:	c7 85 90 f5 ff ff e7 	movl   $0x80a9b8e7,-0xa70(%rbp)
    75fc:	b8 a9 80 
    75ff:	c7 85 94 f5 ff ff e7 	movl   $0x80a9b8e7,-0xa6c(%rbp)
    7606:	b8 a9 80 
    7609:	c7 85 98 f5 ff ff 41 	movl   $0xc416ea41,-0xa68(%rbp)
    7610:	ea 16 c4 
    7613:	c7 85 9c f5 ff ff e7 	movl   $0x80a9b8e7,-0xa64(%rbp)
    761a:	b8 a9 80 
    761d:	c7 85 a0 f1 ff ff 00 	movl   $0x0,-0xe60(%rbp)
    7624:	00 00 00 
    7627:	8b 85 ec f0 ff ff    	mov    -0xf14(%rbp),%eax
    762d:	0f b7 d8             	movzwl %ax,%ebx
    7630:	8b 85 ec f0 ff ff    	mov    -0xf14(%rbp),%eax
    7636:	41 89 c6             	mov    %eax,%r14d
    7639:	48 8b 05 90 1d 01 00 	mov    0x11d90(%rip),%rax        # 193d0 <g_966>
    7640:	48 8b 00             	mov    (%rax),%rax
    7643:	48 8b 00             	mov    (%rax),%rax
    7646:	4c 8b 20             	mov    (%rax),%r12
    7649:	8b 85 ec f0 ff ff    	mov    -0xf14(%rbp),%eax
    764f:	0f b7 c0             	movzwl %ax,%eax
    7652:	89 c6                	mov    %eax,%esi
    7654:	bf 00 00 00 00       	mov    $0x0,%edi
    7659:	e8 df d6 ff ff       	callq  4d3d <safe_mul_func_uint16_t_u_u>
    765e:	98                   	cwtl   
    765f:	be 07 00 00 00       	mov    $0x7,%esi
    7664:	89 c7                	mov    %eax,%edi
    7666:	e8 bf ce ff ff       	callq  452a <safe_rshift_func_int16_t_s_s>
    766b:	44 0f be e8          	movsbl %al,%r13d
    766f:	48 8b 05 82 1f 01 00 	mov    0x11f82(%rip),%rax        # 195f8 <g_2126>
    7676:	48 8b 00             	mov    (%rax),%rax
    7679:	48 8b 00             	mov    (%rax),%rax
    767c:	48 8b 00             	mov    (%rax),%rax
    767f:	48 8b 00             	mov    (%rax),%rax
    7682:	8b 10                	mov    (%rax),%edx
    7684:	83 ea 01             	sub    $0x1,%edx
    7687:	89 10                	mov    %edx,(%rax)
    7689:	8b 00                	mov    (%rax),%eax
    768b:	89 c2                	mov    %eax,%edx
    768d:	8b 85 24 f1 ff ff    	mov    -0xedc(%rbp),%eax
    7693:	89 d6                	mov    %edx,%esi
    7695:	89 c7                	mov    %eax,%edi
    7697:	e8 63 d0 ff ff       	callq  46ff <safe_div_func_int32_t_s_s>
    769c:	89 c2                	mov    %eax,%edx
    769e:	48 8b 85 80 f2 ff ff 	mov    -0xd80(%rbp),%rax
    76a5:	48 8b 00             	mov    (%rax),%rax
    76a8:	48 8b 00             	mov    (%rax),%rax
    76ab:	48 8b 00             	mov    (%rax),%rax
    76ae:	88 10                	mov    %dl,(%rax)
    76b0:	0f b6 00             	movzbl (%rax),%eax
    76b3:	0f be c0             	movsbl %al,%eax
    76b6:	44 89 ee             	mov    %r13d,%esi
    76b9:	89 c7                	mov    %eax,%edi
    76bb:	e8 32 cb ff ff       	callq  41f2 <safe_sub_func_int8_t_s_s>
    76c0:	0f be d0             	movsbl %al,%edx
    76c3:	48 8b 85 d8 f0 ff ff 	mov    -0xf28(%rbp),%rax
    76ca:	8b 00                	mov    (%rax),%eax
    76cc:	89 d6                	mov    %edx,%esi
    76ce:	89 c7                	mov    %eax,%edi
    76d0:	e8 2a d0 ff ff       	callq  46ff <safe_div_func_int32_t_s_s>
    76d5:	89 c2                	mov    %eax,%edx
    76d7:	0f b6 05 66 09 01 00 	movzbl 0x10966(%rip),%eax        # 18044 <g_96>
    76de:	31 d0                	xor    %edx,%eax
    76e0:	88 05 5e 09 01 00    	mov    %al,0x1095e(%rip)        # 18044 <g_96>
    76e6:	bf 01 00 00 00       	mov    $0x1,%edi
    76eb:	e8 55 d4 ff ff       	callq  4b45 <safe_unary_minus_func_uint8_t_u>
    76f0:	b8 00 00 00 00       	mov    $0x0,%eax
    76f5:	0f bf d0             	movswl %ax,%edx
    76f8:	8b 85 ec f0 ff ff    	mov    -0xf14(%rbp),%eax
    76fe:	39 c2                	cmp    %eax,%edx
    7700:	76 07                	jbe    7709 <func_2+0x1d63>
    7702:	b8 01 00 00 00       	mov    $0x1,%eax
    7707:	eb 05                	jmp    770e <func_2+0x1d68>
    7709:	b8 00 00 00 00       	mov    $0x0,%eax
    770e:	84 c0                	test   %al,%al
    7710:	75 0a                	jne    771c <func_2+0x1d76>
    7712:	8b 85 ec f0 ff ff    	mov    -0xf14(%rbp),%eax
    7718:	85 c0                	test   %eax,%eax
    771a:	74 07                	je     7723 <func_2+0x1d7d>
    771c:	ba 01 00 00 00       	mov    $0x1,%edx
    7721:	eb 05                	jmp    7728 <func_2+0x1d82>
    7723:	ba 00 00 00 00       	mov    $0x0,%edx
    7728:	8b 05 be 09 01 00    	mov    0x109be(%rip),%eax        # 180ec <g_1981>
    772e:	39 c2                	cmp    %eax,%edx
    7730:	0f 9f c0             	setg   %al
    7733:	0f b6 c0             	movzbl %al,%eax
    7736:	4c 89 e6             	mov    %r12,%rsi
    7739:	48 89 c7             	mov    %rax,%rdi
    773c:	e8 73 d2 ff ff       	callq  49b4 <safe_mod_func_int64_t_s_s>
    7741:	ba 01 00 00 00       	mov    $0x1,%edx
    7746:	48 8b 05 7b 1c 01 00 	mov    0x11c7b(%rip),%rax        # 193c8 <g_967>
    774d:	48 8b 00             	mov    (%rax),%rax
    7750:	48 63 d2             	movslq %edx,%rdx
    7753:	48 89 10             	mov    %rdx,(%rax)
    7756:	48 8b 00             	mov    (%rax),%rax
    7759:	4c 89 f6             	mov    %r14,%rsi
    775c:	48 89 c7             	mov    %rax,%rdi
    775f:	e8 dd d0 ff ff       	callq  4841 <safe_add_func_int64_t_s_s>
    7764:	0f b6 85 f6 f0 ff ff 	movzbl -0xf0a(%rbp),%eax
    776b:	89 de                	mov    %ebx,%esi
    776d:	89 c7                	mov    %eax,%edi
    776f:	e8 c9 d5 ff ff       	callq  4d3d <safe_mul_func_uint16_t_u_u>
    7774:	0f b7 c0             	movzwl %ax,%eax
    7777:	89 85 a0 f1 ff ff    	mov    %eax,-0xe60(%rbp)
    777d:	8b 85 80 f5 ff ff    	mov    -0xa80(%rbp),%eax
    7783:	83 f8 ff             	cmp    $0xffffffff,%eax
    7786:	0f 9d c0             	setge  %al
    7789:	0f b6 d0             	movzbl %al,%edx
    778c:	8b 85 ec f0 ff ff    	mov    -0xf14(%rbp),%eax
    7792:	39 c2                	cmp    %eax,%edx
    7794:	48 8b 05 35 20 01 00 	mov    0x12035(%rip),%rax        # 197d0 <g_3149>
    779b:	48 85 c0             	test   %rax,%rax
    779e:	0f 94 c0             	sete   %al
    77a1:	0f b6 c8             	movzbl %al,%ecx
    77a4:	48 8b 05 35 1e 01 00 	mov    0x11e35(%rip),%rax        # 195e0 <g_1991>
    77ab:	8b 10                	mov    (%rax),%edx
    77ad:	48 8b 05 2c 1e 01 00 	mov    0x11e2c(%rip),%rax        # 195e0 <g_1991>
    77b4:	31 ca                	xor    %ecx,%edx
    77b6:	89 10                	mov    %edx,(%rax)
    77b8:	e9 71 01 00 00       	jmpq   792e <func_2+0x1f88>
    77bd:	66 c7 85 0a f1 ff ff 	movw   $0x1,-0xef6(%rbp)
    77c4:	01 00 
    77c6:	c7 85 00 fc ff ff 86 	movl   $0xe6ddfb86,-0x400(%rbp)
    77cd:	fb dd e6 
    77d0:	c7 85 04 fc ff ff 86 	movl   $0xe6ddfb86,-0x3fc(%rbp)
    77d7:	fb dd e6 
    77da:	c7 85 08 fc ff ff 9f 	movl   $0x7782969f,-0x3f8(%rbp)
    77e1:	96 82 77 
    77e4:	c7 85 0c fc ff ff 86 	movl   $0xe6ddfb86,-0x3f4(%rbp)
    77eb:	fb dd e6 
    77ee:	c7 85 10 fc ff ff 86 	movl   $0xe6ddfb86,-0x3f0(%rbp)
    77f5:	fb dd e6 
    77f8:	c7 85 14 fc ff ff 9f 	movl   $0x7782969f,-0x3ec(%rbp)
    77ff:	96 82 77 
    7802:	c7 85 18 fc ff ff 86 	movl   $0xe6ddfb86,-0x3e8(%rbp)
    7809:	fb dd e6 
    780c:	c7 85 1c fc ff ff 86 	movl   $0xe6ddfb86,-0x3e4(%rbp)
    7813:	fb dd e6 
    7816:	c7 85 20 fc ff ff 9f 	movl   $0x7782969f,-0x3e0(%rbp)
    781d:	96 82 77 
    7820:	c7 85 24 fc ff ff 86 	movl   $0xe6ddfb86,-0x3dc(%rbp)
    7827:	fb dd e6 
    782a:	c7 85 28 fc ff ff 86 	movl   $0xe6ddfb86,-0x3d8(%rbp)
    7831:	fb dd e6 
    7834:	c7 85 2c fc ff ff 9f 	movl   $0x7782969f,-0x3d4(%rbp)
    783b:	96 82 77 
    783e:	c7 85 30 fc ff ff 86 	movl   $0xe6ddfb86,-0x3d0(%rbp)
    7845:	fb dd e6 
    7848:	c7 85 34 fc ff ff 86 	movl   $0xe6ddfb86,-0x3cc(%rbp)
    784f:	fb dd e6 
    7852:	c6 85 f7 f0 ff ff 7e 	movb   $0x7e,-0xf09(%rbp)
    7859:	48 c7 05 34 08 01 00 	movq   $0xfffffffffffffffa,0x10834(%rip)        # 18098 <g_474>
    7860:	fa ff ff ff 
    7864:	eb 3e                	jmp    78a4 <func_2+0x1efe>
    7866:	48 8d 85 50 f5 ff ff 	lea    -0xab0(%rbp),%rax
    786d:	48 83 c0 10          	add    $0x10,%rax
    7871:	48 89 85 c8 f3 ff ff 	mov    %rax,-0xc38(%rbp)
    7878:	48 8b 85 20 f3 ff ff 	mov    -0xce0(%rbp),%rax
    787f:	8b 00                	mov    (%rax),%eax
    7881:	89 c7                	mov    %eax,%edi
    7883:	e8 91 4a 00 00       	callq  c319 <func_16>
    7888:	48 8b 95 c8 f3 ff ff 	mov    -0xc38(%rbp),%rdx
    788f:	48 89 02             	mov    %rax,(%rdx)
    7892:	48 8b 05 ff 07 01 00 	mov    0x107ff(%rip),%rax        # 18098 <g_474>
    7899:	48 83 e8 01          	sub    $0x1,%rax
    789d:	48 89 05 f4 07 01 00 	mov    %rax,0x107f4(%rip)        # 18098 <g_474>
    78a4:	48 8b 05 ed 07 01 00 	mov    0x107ed(%rip),%rax        # 18098 <g_474>
    78ab:	48 83 f8 f5          	cmp    $0xfffffffffffffff5,%rax
    78af:	7d b5                	jge    7866 <func_2+0x1ec0>
    78b1:	48 c7 05 dc 07 01 00 	movq   $0xfffffffffffffff8,0x107dc(%rip)        # 18098 <g_474>
    78b8:	f8 ff ff ff 
    78bc:	eb 2d                	jmp    78eb <func_2+0x1f45>
    78be:	48 8b 85 d8 f0 ff ff 	mov    -0xf28(%rbp),%rax
    78c5:	8b 00                	mov    (%rax),%eax
    78c7:	85 c0                	test   %eax,%eax
    78c9:	75 2f                	jne    78fa <func_2+0x1f54>
    78cb:	48 8b 05 c6 07 01 00 	mov    0x107c6(%rip),%rax        # 18098 <g_474>
    78d2:	0f b6 c0             	movzbl %al,%eax
    78d5:	be 01 00 00 00       	mov    $0x1,%esi
    78da:	89 c7                	mov    %eax,%edi
    78dc:	e8 97 d2 ff ff       	callq  4b78 <safe_sub_func_uint8_t_u_u>
    78e1:	0f b6 c0             	movzbl %al,%eax
    78e4:	48 89 05 ad 07 01 00 	mov    %rax,0x107ad(%rip)        # 18098 <g_474>
    78eb:	48 8b 05 a6 07 01 00 	mov    0x107a6(%rip),%rax        # 18098 <g_474>
    78f2:	48 83 f8 f8          	cmp    $0xfffffffffffffff8,%rax
    78f6:	7c c6                	jl     78be <func_2+0x1f18>
    78f8:	eb 01                	jmp    78fb <func_2+0x1f55>
    78fa:	90                   	nop
    78fb:	66 c7 05 8c 07 01 00 	movw   $0x0,0x1078c(%rip)        # 18090 <g_413>
    7902:	00 00 
    7904:	90                   	nop
    7905:	0f b7 05 84 07 01 00 	movzwl 0x10784(%rip),%eax        # 18090 <g_413>
    790c:	66 83 f8 34          	cmp    $0x34,%ax
    7910:	76 0c                	jbe    791e <func_2+0x1f78>
    7912:	48 8b 85 d8 f0 ff ff 	mov    -0xf28(%rbp),%rax
    7919:	e9 bf 15 00 00       	jmpq   8edd <func_2+0x3537>
    791e:	0f b6 85 f7 f0 ff ff 	movzbl -0xf09(%rbp),%eax
    7925:	83 e8 01             	sub    $0x1,%eax
    7928:	88 85 f7 f0 ff ff    	mov    %al,-0xf09(%rbp)
    792e:	48 8b 05 c3 1a 01 00 	mov    0x11ac3(%rip),%rax        # 193f8 <g_1293>
    7935:	48 8b 00             	mov    (%rax),%rax
    7938:	8b 00                	mov    (%rax),%eax
    793a:	83 f8 ff             	cmp    $0xffffffff,%eax
    793d:	74 25                	je     7964 <func_2+0x1fbe>
    793f:	48 c7 85 f8 f3 ff ff 	movq   $0x0,-0xc08(%rbp)
    7946:	00 00 00 00 
    794a:	48 8b 85 e0 f0 ff ff 	mov    -0xf20(%rbp),%rax
    7951:	48 89 85 f8 f3 ff ff 	mov    %rax,-0xc08(%rbp)
    7958:	48 8b 85 d8 f0 ff ff 	mov    -0xf28(%rbp),%rax
    795f:	e9 79 15 00 00       	jmpq   8edd <func_2+0x3537>
    7964:	48 b8 ce aa e1 31 a8 	movabs $0x49ffd1a831e1aace,%rax
    796b:	d1 ff 49 
    796e:	48 89 85 d8 f3 ff ff 	mov    %rax,-0xc28(%rbp)
    7975:	c6 85 f8 f0 ff ff 13 	movb   $0x13,-0xf08(%rbp)
    797c:	c7 85 a4 f1 ff ff fd 	movl   $0xfffffffd,-0xe5c(%rbp)
    7983:	ff ff ff 
    7986:	c6 85 f9 f0 ff ff ff 	movb   $0xff,-0xf07(%rbp)
    798d:	c7 85 a8 f1 ff ff 7a 	movl   $0xf1b5b7a,-0xe58(%rbp)
    7994:	5b 1b 0f 
    7997:	c7 85 ac f1 ff ff a5 	movl   $0x23f59aa5,-0xe54(%rbp)
    799e:	9a f5 23 
    79a1:	c6 85 fa f0 ff ff ea 	movb   $0xea,-0xf06(%rbp)
    79a8:	48 c7 85 e0 f3 ff ff 	movq   $0x1,-0xc20(%rbp)
    79af:	01 00 00 00 
    79b3:	48 8d 85 00 fc ff ff 	lea    -0x400(%rbp),%rax
    79ba:	48 8d 15 1f ca 00 00 	lea    0xca1f(%rip),%rdx        # 143e0 <g_3084+0x37f>
    79c1:	b9 49 00 00 00       	mov    $0x49,%ecx
    79c6:	48 89 c7             	mov    %rax,%rdi
    79c9:	48 89 d6             	mov    %rdx,%rsi
    79cc:	f3 48 a5             	rep movsq %ds:(%rsi),%es:(%rdi)
    79cf:	48 89 f2             	mov    %rsi,%rdx
    79d2:	48 89 f8             	mov    %rdi,%rax
    79d5:	8b 0a                	mov    (%rdx),%ecx
    79d7:	89 08                	mov    %ecx,(%rax)
    79d9:	48 8d 40 04          	lea    0x4(%rax),%rax
    79dd:	48 8d 52 04          	lea    0x4(%rdx),%rdx
    79e1:	0f b7 9d 02 f1 ff ff 	movzwl -0xefe(%rbp),%ebx
    79e8:	48 8b 05 09 1c 01 00 	mov    0x11c09(%rip),%rax        # 195f8 <g_2126>
    79ef:	48 8b 00             	mov    (%rax),%rax
    79f2:	48 8b 00             	mov    (%rax),%rax
    79f5:	48 8b 00             	mov    (%rax),%rax
    79f8:	48 8b 00             	mov    (%rax),%rax
    79fb:	8b 00                	mov    (%rax),%eax
    79fd:	41 89 c6             	mov    %eax,%r14d
    7a00:	8b 85 ec f0 ff ff    	mov    -0xf14(%rbp),%eax
    7a06:	44 0f be e0          	movsbl %al,%r12d
    7a0a:	8b 85 ec f0 ff ff    	mov    -0xf14(%rbp),%eax
    7a10:	85 c0                	test   %eax,%eax
    7a12:	74 6e                	je     7a82 <func_2+0x20dc>
    7a14:	48 8b 05 c5 19 01 00 	mov    0x119c5(%rip),%rax        # 193e0 <g_1101>
    7a1b:	44 8b 28             	mov    (%rax),%r13d
    7a1e:	8b 85 ec f0 ff ff    	mov    -0xf14(%rbp),%eax
    7a24:	83 e0 01             	and    $0x1,%eax
    7a27:	85 c0                	test   %eax,%eax
    7a29:	0f 94 c0             	sete   %al
    7a2c:	0f b6 d0             	movzbl %al,%edx
    7a2f:	8b 85 ec f0 ff ff    	mov    -0xf14(%rbp),%eax
    7a35:	09 c2                	or     %eax,%edx
    7a37:	8b 85 ec f0 ff ff    	mov    -0xf14(%rbp),%eax
    7a3d:	39 c2                	cmp    %eax,%edx
    7a3f:	0f 96 c0             	setbe  %al
    7a42:	0f b6 c0             	movzbl %al,%eax
    7a45:	8b 95 3c f1 ff ff    	mov    -0xec4(%rbp),%edx
    7a4b:	89 d6                	mov    %edx,%esi
    7a4d:	89 c7                	mov    %eax,%edi
    7a4f:	e8 b1 cb ff ff       	callq  4605 <safe_sub_func_int32_t_s_s>
    7a54:	0f b6 95 f8 f0 ff ff 	movzbl -0xf08(%rbp),%edx
    7a5b:	31 d0                	xor    %edx,%eax
    7a5d:	89 c2                	mov    %eax,%edx
    7a5f:	8b 85 ec f0 ff ff    	mov    -0xf14(%rbp),%eax
    7a65:	39 c2                	cmp    %eax,%edx
    7a67:	0f 96 c0             	setbe  %al
    7a6a:	0f b6 c0             	movzbl %al,%eax
    7a6d:	44 89 ee             	mov    %r13d,%esi
    7a70:	89 c7                	mov    %eax,%edi
    7a72:	e8 86 d4 ff ff       	callq  4efd <safe_mod_func_uint32_t_u_u>
    7a77:	85 c0                	test   %eax,%eax
    7a79:	74 07                	je     7a82 <func_2+0x20dc>
    7a7b:	b8 01 00 00 00       	mov    $0x1,%eax
    7a80:	eb 05                	jmp    7a87 <func_2+0x20e1>
    7a82:	b8 00 00 00 00       	mov    $0x0,%eax
    7a87:	85 c0                	test   %eax,%eax
    7a89:	44 89 e6             	mov    %r12d,%esi
    7a8c:	bf f8 ff ff ff       	mov    $0xfffffff8,%edi
    7a91:	e8 d4 c7 ff ff       	callq  426a <safe_div_func_int8_t_s_s>
    7a96:	83 e0 fa             	and    $0xfffffffa,%eax
    7a99:	0f be c0             	movsbl %al,%eax
    7a9c:	be 89 ff ff ff       	mov    $0xffffff89,%esi
    7aa1:	89 c7                	mov    %eax,%edi
    7aa3:	e8 4a c7 ff ff       	callq  41f2 <safe_sub_func_int8_t_s_s>
    7aa8:	0f be d0             	movsbl %al,%edx
    7aab:	48 8b 05 3e 1b 01 00 	mov    0x11b3e(%rip),%rax        # 195f0 <g_2127>
    7ab2:	48 8b 00             	mov    (%rax),%rax
    7ab5:	48 8b 00             	mov    (%rax),%rax
    7ab8:	48 8b 00             	mov    (%rax),%rax
    7abb:	8b 00                	mov    (%rax),%eax
    7abd:	21 d0                	and    %edx,%eax
    7abf:	44 89 f6             	mov    %r14d,%esi
    7ac2:	89 c7                	mov    %eax,%edi
    7ac4:	e8 3c cb ff ff       	callq  4605 <safe_sub_func_int32_t_s_s>
    7ac9:	0f b7 c0             	movzwl %ax,%eax
    7acc:	89 de                	mov    %ebx,%esi
    7ace:	89 c7                	mov    %eax,%edi
    7ad0:	e8 68 d2 ff ff       	callq  4d3d <safe_mul_func_uint16_t_u_u>
    7ad5:	66 85 c0             	test   %ax,%ax
    7ad8:	0f 84 bd 04 00 00    	je     7f9b <func_2+0x25f5>
    7ade:	66 c7 85 0c f1 ff ff 	movw   $0xfff8,-0xef4(%rbp)
    7ae5:	f8 ff 
    7ae7:	48 8d 05 5a 05 01 00 	lea    0x1055a(%rip),%rax        # 18048 <g_119>
    7aee:	48 89 85 80 f5 ff ff 	mov    %rax,-0xa80(%rbp)
    7af5:	48 8d 05 4c 05 01 00 	lea    0x1054c(%rip),%rax        # 18048 <g_119>
    7afc:	48 89 85 88 f5 ff ff 	mov    %rax,-0xa78(%rbp)
    7b03:	48 8d 05 3e 05 01 00 	lea    0x1053e(%rip),%rax        # 18048 <g_119>
    7b0a:	48 89 85 90 f5 ff ff 	mov    %rax,-0xa70(%rbp)
    7b11:	48 8d 05 30 05 01 00 	lea    0x10530(%rip),%rax        # 18048 <g_119>
    7b18:	48 89 85 98 f5 ff ff 	mov    %rax,-0xa68(%rbp)
    7b1f:	c7 85 b0 f1 ff ff 02 	movl   $0x2,-0xe50(%rbp)
    7b26:	00 00 00 
    7b29:	c7 85 b4 f1 ff ff 5f 	movl   $0x11d2355f,-0xe4c(%rbp)
    7b30:	35 d2 11 
    7b33:	48 8d 85 f2 f0 ff ff 	lea    -0xf0e(%rbp),%rax
    7b3a:	48 89 85 e8 f3 ff ff 	mov    %rax,-0xc18(%rbp)
    7b41:	c7 85 28 f1 ff ff 00 	movl   $0x0,-0xed8(%rbp)
    7b48:	00 00 00 
    7b4b:	eb 42                	jmp    7b8f <func_2+0x21e9>
    7b4d:	c7 85 2c f1 ff ff 00 	movl   $0x0,-0xed4(%rbp)
    7b54:	00 00 00 
    7b57:	eb 26                	jmp    7b7f <func_2+0x21d9>
    7b59:	8b 85 2c f1 ff ff    	mov    -0xed4(%rbp),%eax
    7b5f:	48 63 d0             	movslq %eax,%rdx
    7b62:	8b 85 28 f1 ff ff    	mov    -0xed8(%rbp),%eax
    7b68:	48 98                	cltq   
    7b6a:	48 01 d0             	add    %rdx,%rax
    7b6d:	c7 84 85 60 f4 ff ff 	movl   $0x560692a0,-0xba0(%rbp,%rax,4)
    7b74:	a0 92 06 56 
    7b78:	83 85 2c f1 ff ff 01 	addl   $0x1,-0xed4(%rbp)
    7b7f:	83 bd 2c f1 ff ff 00 	cmpl   $0x0,-0xed4(%rbp)
    7b86:	7e d1                	jle    7b59 <func_2+0x21b3>
    7b88:	83 85 28 f1 ff ff 01 	addl   $0x1,-0xed8(%rbp)
    7b8f:	83 bd 28 f1 ff ff 03 	cmpl   $0x3,-0xed8(%rbp)
    7b96:	7e b5                	jle    7b4d <func_2+0x21a7>
    7b98:	8b 05 0e 05 01 00    	mov    0x1050e(%rip),%eax        # 180ac <g_850>
    7b9e:	0f b6 d8             	movzbl %al,%ebx
    7ba1:	48 8b 05 70 17 01 00 	mov    0x11770(%rip),%rax        # 19318 <g_412>
    7ba8:	0f b7 00             	movzwl (%rax),%eax
    7bab:	44 0f bf e0          	movswl %ax,%r12d
    7baf:	8b 05 6f 05 01 00    	mov    0x1056f(%rip),%eax        # 18124 <g_2443>
    7bb5:	44 0f b6 e8          	movzbl %al,%r13d
    7bb9:	8b 85 40 f4 ff ff    	mov    -0xbc0(%rbp),%eax
    7bbf:	85 c0                	test   %eax,%eax
    7bc1:	75 0a                	jne    7bcd <func_2+0x2227>
    7bc3:	8b 85 ec f0 ff ff    	mov    -0xf14(%rbp),%eax
    7bc9:	85 c0                	test   %eax,%eax
    7bcb:	74 0a                	je     7bd7 <func_2+0x2231>
    7bcd:	66 83 bd 0c f1 ff ff 	cmpw   $0x0,-0xef4(%rbp)
    7bd4:	00 
    7bd5:	75 0a                	jne    7be1 <func_2+0x223b>
    7bd7:	8b 85 ec f0 ff ff    	mov    -0xf14(%rbp),%eax
    7bdd:	85 c0                	test   %eax,%eax
    7bdf:	74 07                	je     7be8 <func_2+0x2242>
    7be1:	ba 01 00 00 00       	mov    $0x1,%edx
    7be6:	eb 05                	jmp    7bed <func_2+0x2247>
    7be8:	ba 00 00 00 00       	mov    $0x0,%edx
    7bed:	0f b6 85 7f f4 ff ff 	movzbl -0xb81(%rbp),%eax
    7bf4:	0f be c0             	movsbl %al,%eax
    7bf7:	21 d0                	and    %edx,%eax
    7bf9:	83 f8 ff             	cmp    $0xffffffff,%eax
    7bfc:	0f 94 c0             	sete   %al
    7bff:	0f b6 c0             	movzbl %al,%eax
    7c02:	09 85 b0 f1 ff ff    	or     %eax,-0xe50(%rbp)
    7c08:	48 8b 05 09 1a 01 00 	mov    0x11a09(%rip),%rax        # 19618 <g_2184>
    7c0f:	48 8b 00             	mov    (%rax),%rax
    7c12:	48 8b 00             	mov    (%rax),%rax
    7c15:	48 85 c0             	test   %rax,%rax
    7c18:	75 08                	jne    7c22 <func_2+0x227c>
    7c1a:	8b 85 ec f0 ff ff    	mov    -0xf14(%rbp),%eax
    7c20:	85 c0                	test   %eax,%eax
    7c22:	8b 85 a0 f4 ff ff    	mov    -0xb60(%rbp),%eax
    7c28:	3d e3 df 00 00       	cmp    $0xdfe3,%eax
    7c2d:	0f 9f c0             	setg   %al
    7c30:	0f b6 d0             	movzbl %al,%edx
    7c33:	8b 85 ec f0 ff ff    	mov    -0xf14(%rbp),%eax
    7c39:	89 85 24 f1 ff ff    	mov    %eax,-0xedc(%rbp)
    7c3f:	8b 85 24 f1 ff ff    	mov    -0xedc(%rbp),%eax
    7c45:	0f b7 c0             	movzwl %ax,%eax
    7c48:	89 d6                	mov    %edx,%esi
    7c4a:	89 c7                	mov    %eax,%edi
    7c4c:	e8 ae d0 ff ff       	callq  4cff <safe_add_func_uint16_t_u_u>
    7c51:	0f b6 c0             	movzbl %al,%eax
    7c54:	44 89 ee             	mov    %r13d,%esi
    7c57:	89 c7                	mov    %eax,%edi
    7c59:	e8 7d cf ff ff       	callq  4bdb <safe_div_func_uint8_t_u_u>
    7c5e:	48 83 bd b0 f3 ff ff 	cmpq   $0x0,-0xc50(%rbp)
    7c65:	00 
    7c66:	0f 94 c0             	sete   %al
    7c69:	0f b6 d0             	movzbl %al,%edx
    7c6c:	8b 85 ec f0 ff ff    	mov    -0xf14(%rbp),%eax
    7c72:	98                   	cwtl   
    7c73:	89 d6                	mov    %edx,%esi
    7c75:	89 c7                	mov    %eax,%edi
    7c77:	e8 79 c7 ff ff       	callq  43f5 <safe_mul_func_int16_t_s_s>
    7c7c:	48 8d 05 e5 19 01 00 	lea    0x119e5(%rip),%rax        # 19668 <g_2978>
    7c83:	48 39 85 58 f3 ff ff 	cmp    %rax,-0xca8(%rbp)
    7c8a:	b8 06 27 00 00       	mov    $0x2706,%eax
    7c8f:	31 85 a4 f1 ff ff    	xor    %eax,-0xe5c(%rbp)
    7c95:	8b 85 a4 f1 ff ff    	mov    -0xe5c(%rbp),%eax
    7c9b:	98                   	cwtl   
    7c9c:	44 89 e6             	mov    %r12d,%esi
    7c9f:	89 c7                	mov    %eax,%edi
    7ca1:	e8 2d c7 ff ff       	callq  43d3 <safe_sub_func_int16_t_s_s>
    7ca6:	0f b6 c0             	movzbl %al,%eax
    7ca9:	89 de                	mov    %ebx,%esi
    7cab:	89 c7                	mov    %eax,%edi
    7cad:	e8 e1 ce ff ff       	callq  4b93 <safe_mul_func_uint8_t_u_u>
    7cb2:	48 8b 85 b8 f3 ff ff 	mov    -0xc48(%rbp),%rax
    7cb9:	48 8b 00             	mov    (%rax),%rax
    7cbc:	48 8b 00             	mov    (%rax),%rax
    7cbf:	48 8b 00             	mov    (%rax),%rax
    7cc2:	8b 00                	mov    (%rax),%eax
    7cc4:	83 f8 03             	cmp    $0x3,%eax
    7cc7:	74 08                	je     7cd1 <func_2+0x232b>
    7cc9:	8b 85 ec f0 ff ff    	mov    -0xf14(%rbp),%eax
    7ccf:	85 c0                	test   %eax,%eax
    7cd1:	48 8b 05 40 16 01 00 	mov    0x11640(%rip),%rax        # 19318 <g_412>
    7cd8:	0f b7 00             	movzwl (%rax),%eax
    7cdb:	66 85 c0             	test   %ax,%ax
    7cde:	0f 95 c0             	setne  %al
    7ce1:	0f b6 d0             	movzbl %al,%edx
    7ce4:	48 83 bd e0 f0 ff ff 	cmpq   $0x0,-0xf20(%rbp)
    7ceb:	00 
    7cec:	0f 95 c0             	setne  %al
    7cef:	0f b6 c0             	movzbl %al,%eax
    7cf2:	89 d6                	mov    %edx,%esi
    7cf4:	89 c7                	mov    %eax,%edi
    7cf6:	e8 f7 c4 ff ff       	callq  41f2 <safe_sub_func_int8_t_s_s>
    7cfb:	84 c0                	test   %al,%al
    7cfd:	75 0a                	jne    7d09 <func_2+0x2363>
    7cff:	8b 85 ec f0 ff ff    	mov    -0xf14(%rbp),%eax
    7d05:	85 c0                	test   %eax,%eax
    7d07:	74 07                	je     7d10 <func_2+0x236a>
    7d09:	ba 01 00 00 00       	mov    $0x1,%edx
    7d0e:	eb 05                	jmp    7d15 <func_2+0x236f>
    7d10:	ba 00 00 00 00       	mov    $0x0,%edx
    7d15:	48 8b 05 c4 18 01 00 	mov    0x118c4(%rip),%rax        # 195e0 <g_1991>
    7d1c:	89 10                	mov    %edx,(%rax)
    7d1e:	8b 00                	mov    (%rax),%eax
    7d20:	35 31 09 9d 66       	xor    $0x669d0931,%eax
    7d25:	89 c2                	mov    %eax,%edx
    7d27:	48 8b 85 10 f3 ff ff 	mov    -0xcf0(%rbp),%rax
    7d2e:	89 10                	mov    %edx,(%rax)
    7d30:	8b 85 ec f0 ff ff    	mov    -0xf14(%rbp),%eax
    7d36:	83 f0 67             	xor    $0x67,%eax
    7d39:	89 85 a4 f1 ff ff    	mov    %eax,-0xe5c(%rbp)
    7d3f:	83 bd a4 f1 ff ff 00 	cmpl   $0x0,-0xe5c(%rbp)
    7d46:	8b 85 ec f0 ff ff    	mov    -0xf14(%rbp),%eax
    7d4c:	0f b7 d8             	movzwl %ax,%ebx
    7d4f:	0f b6 85 f8 f0 ff ff 	movzbl -0xf08(%rbp),%eax
    7d56:	0f be c0             	movsbl %al,%eax
    7d59:	89 c7                	mov    %eax,%edi
    7d5b:	e8 5f c4 ff ff       	callq  41bf <safe_unary_minus_func_int8_t_s>
    7d60:	66 98                	cbtw   
    7d62:	0f b7 c0             	movzwl %ax,%eax
    7d65:	89 de                	mov    %ebx,%esi
    7d67:	89 c7                	mov    %eax,%edi
    7d69:	e8 cf cf ff ff       	callq  4d3d <safe_mul_func_uint16_t_u_u>
    7d6e:	48 83 bd 50 f3 ff ff 	cmpq   $0x0,-0xcb0(%rbp)
    7d75:	00 
    7d76:	0f 94 c0             	sete   %al
    7d79:	0f b6 c0             	movzbl %al,%eax
    7d7c:	be e3 b5 70 a8       	mov    $0xa870b5e3,%esi
    7d81:	48 89 c7             	mov    %rax,%rdi
    7d84:	e8 2b cc ff ff       	callq  49b4 <safe_mod_func_int64_t_s_s>
    7d89:	48 8b 85 58 f2 ff ff 	mov    -0xda8(%rbp),%rax
    7d90:	48 8b 95 d8 f0 ff ff 	mov    -0xf28(%rbp),%rdx
    7d97:	48 89 10             	mov    %rdx,(%rax)
    7d9a:	48 8b 05 6f 16 01 00 	mov    0x1166f(%rip),%rax        # 19410 <g_1392>
    7da1:	48 8b 00             	mov    (%rax),%rax
    7da4:	0f b6 00             	movzbl (%rax),%eax
    7da7:	0f b6 d8             	movzbl %al,%ebx
    7daa:	8b 85 ec f0 ff ff    	mov    -0xf14(%rbp),%eax
    7db0:	44 0f b7 e0          	movzwl %ax,%r12d
    7db4:	44 8b ad ec f0 ff ff 	mov    -0xf14(%rbp),%r13d
    7dbb:	44 0f b6 b5 f8 f0 ff 	movzbl -0xf08(%rbp),%r14d
    7dc2:	ff 
    7dc3:	48 8b 05 c6 18 01 00 	mov    0x118c6(%rip),%rax        # 19690 <g_3153>
    7dca:	0f b7 00             	movzwl (%rax),%eax
    7dcd:	0f b7 d0             	movzwl %ax,%edx
    7dd0:	48 83 bd 70 f2 ff ff 	cmpq   $0x0,-0xd90(%rbp)
    7dd7:	00 
    7dd8:	0f 94 c0             	sete   %al
    7ddb:	0f b6 c0             	movzbl %al,%eax
    7dde:	89 d6                	mov    %edx,%esi
    7de0:	89 c7                	mov    %eax,%edi
    7de2:	e8 1f d0 ff ff       	callq  4e06 <safe_lshift_func_uint16_t_u_u>
    7de7:	66 85 c0             	test   %ax,%ax
    7dea:	74 71                	je     7e5d <func_2+0x24b7>
    7dec:	48 8b 05 d5 17 01 00 	mov    0x117d5(%rip),%rax        # 195c8 <g_1767>
    7df3:	48 8b 10             	mov    (%rax),%rdx
    7df6:	48 8b 85 30 f3 ff ff 	mov    -0xcd0(%rbp),%rax
    7dfd:	48 8b 00             	mov    (%rax),%rax
    7e00:	48 8b 12             	mov    (%rdx),%rdx
    7e03:	48 89 10             	mov    %rdx,(%rax)
    7e06:	48 8b 00             	mov    (%rax),%rax
    7e09:	48 85 c0             	test   %rax,%rax
    7e0c:	0f 95 c0             	setne  %al
    7e0f:	0f b6 c0             	movzbl %al,%eax
    7e12:	89 85 b0 f1 ff ff    	mov    %eax,-0xe50(%rbp)
    7e18:	8b 05 ae 03 01 00    	mov    0x103ae(%rip),%eax        # 181cc <g_2961+0x2c>
    7e1e:	8b 85 ec f0 ff ff    	mov    -0xf14(%rbp),%eax
    7e24:	85 c0                	test   %eax,%eax
    7e26:	0f 95 c0             	setne  %al
    7e29:	0f b6 d0             	movzbl %al,%edx
    7e2c:	8b 85 ec f0 ff ff    	mov    -0xf14(%rbp),%eax
    7e32:	39 c2                	cmp    %eax,%edx
    7e34:	0f 97 c0             	seta   %al
    7e37:	0f b6 d0             	movzbl %al,%edx
    7e3a:	0f b7 05 77 02 01 00 	movzwl 0x10277(%rip),%eax        # 180b8 <g_1048>
    7e41:	0f b7 c0             	movzwl %ax,%eax
    7e44:	39 c2                	cmp    %eax,%edx
    7e46:	0f 94 c0             	sete   %al
    7e49:	0f b6 d0             	movzbl %al,%edx
    7e4c:	8b 85 ec f0 ff ff    	mov    -0xf14(%rbp),%eax
    7e52:	39 c2                	cmp    %eax,%edx
    7e54:	75 07                	jne    7e5d <func_2+0x24b7>
    7e56:	b8 01 00 00 00       	mov    $0x1,%eax
    7e5b:	eb 05                	jmp    7e62 <func_2+0x24bc>
    7e5d:	b8 00 00 00 00       	mov    $0x0,%eax
    7e62:	0f b6 c0             	movzbl %al,%eax
    7e65:	44 89 f6             	mov    %r14d,%esi
    7e68:	89 c7                	mov    %eax,%edi
    7e6a:	e8 09 cd ff ff       	callq  4b78 <safe_sub_func_uint8_t_u_u>
    7e6f:	84 c0                	test   %al,%al
    7e71:	74 0b                	je     7e7e <func_2+0x24d8>
    7e73:	48 8b 85 d8 f0 ff ff 	mov    -0xf28(%rbp),%rax
    7e7a:	8b 00                	mov    (%rax),%eax
    7e7c:	85 c0                	test   %eax,%eax
    7e7e:	48 8b 05 73 17 01 00 	mov    0x11773(%rip),%rax        # 195f8 <g_2126>
    7e85:	48 8b 00             	mov    (%rax),%rax
    7e88:	48 8b 00             	mov    (%rax),%rax
    7e8b:	48 8b 00             	mov    (%rax),%rax
    7e8e:	48 8b 00             	mov    (%rax),%rax
    7e91:	c7 00 f2 00 00 00    	movl   $0xf2,(%rax)
    7e97:	8b 00                	mov    (%rax),%eax
    7e99:	89 85 b4 f1 ff ff    	mov    %eax,-0xe4c(%rbp)
    7e9f:	8b 85 b4 f1 ff ff    	mov    -0xe4c(%rbp),%eax
    7ea5:	44 89 ee             	mov    %r13d,%esi
    7ea8:	89 c7                	mov    %eax,%edi
    7eaa:	e8 09 d0 ff ff       	callq  4eb8 <safe_add_func_uint32_t_u_u>
    7eaf:	98                   	cwtl   
    7eb0:	89 c6                	mov    %eax,%esi
    7eb2:	bf fa ff ff ff       	mov    $0xfffffffa,%edi
    7eb7:	e8 39 c5 ff ff       	callq  43f5 <safe_mul_func_int16_t_s_s>
    7ebc:	0f b7 c0             	movzwl %ax,%eax
    7ebf:	44 89 e6             	mov    %r12d,%esi
    7ec2:	89 c7                	mov    %eax,%edi
    7ec4:	e8 36 ce ff ff       	callq  4cff <safe_add_func_uint16_t_u_u>
    7ec9:	66 83 f8 09          	cmp    $0x9,%ax
    7ecd:	0f 95 c0             	setne  %al
    7ed0:	0f b6 d0             	movzbl %al,%edx
    7ed3:	48 8b 85 e8 f3 ff ff 	mov    -0xc18(%rbp),%rax
    7eda:	0f b6 00             	movzbl (%rax),%eax
    7edd:	89 c1                	mov    %eax,%ecx
    7edf:	89 d0                	mov    %edx,%eax
    7ee1:	09 c8                	or     %ecx,%eax
    7ee3:	89 c2                	mov    %eax,%edx
    7ee5:	48 8b 85 e8 f3 ff ff 	mov    -0xc18(%rbp),%rax
    7eec:	88 10                	mov    %dl,(%rax)
    7eee:	48 8b 85 e8 f3 ff ff 	mov    -0xc18(%rbp),%rax
    7ef5:	0f b6 00             	movzbl (%rax),%eax
    7ef8:	84 c0                	test   %al,%al
    7efa:	74 10                	je     7f0c <func_2+0x2566>
    7efc:	83 bd 88 f1 ff ff 00 	cmpl   $0x0,-0xe78(%rbp)
    7f03:	74 07                	je     7f0c <func_2+0x2566>
    7f05:	b8 01 00 00 00       	mov    $0x1,%eax
    7f0a:	eb 05                	jmp    7f11 <func_2+0x256b>
    7f0c:	b8 00 00 00 00       	mov    $0x0,%eax
    7f11:	89 c2                	mov    %eax,%edx
    7f13:	0f b7 85 0c f1 ff ff 	movzwl -0xef4(%rbp),%eax
    7f1a:	21 d0                	and    %edx,%eax
    7f1c:	0f b6 c0             	movzbl %al,%eax
    7f1f:	89 de                	mov    %ebx,%esi
    7f21:	89 c7                	mov    %eax,%edi
    7f23:	e8 b3 cc ff ff       	callq  4bdb <safe_div_func_uint8_t_u_u>
    7f28:	b8 01 00 00 00       	mov    $0x1,%eax
    7f2d:	89 85 6c f4 ff ff    	mov    %eax,-0xb94(%rbp)
    7f33:	8b 85 6c f4 ff ff    	mov    -0xb94(%rbp),%eax
    7f39:	85 c0                	test   %eax,%eax
    7f3b:	74 1d                	je     7f5a <func_2+0x25b4>
    7f3d:	48 8b 85 b8 f3 ff ff 	mov    -0xc48(%rbp),%rax
    7f44:	48 8b 00             	mov    (%rax),%rax
    7f47:	48 8b 00             	mov    (%rax),%rax
    7f4a:	48 8b 00             	mov    (%rax),%rax
    7f4d:	8b 00                	mov    (%rax),%eax
    7f4f:	85 c0                	test   %eax,%eax
    7f51:	74 07                	je     7f5a <func_2+0x25b4>
    7f53:	ba 01 00 00 00       	mov    $0x1,%edx
    7f58:	eb 05                	jmp    7f5f <func_2+0x25b9>
    7f5a:	ba 00 00 00 00       	mov    $0x0,%edx
    7f5f:	0f be 85 f9 f0 ff ff 	movsbl -0xf07(%rbp),%eax
    7f66:	39 c2                	cmp    %eax,%edx
    7f68:	0f 9e c2             	setle  %dl
    7f6b:	48 8b 05 6e 16 01 00 	mov    0x1166e(%rip),%rax        # 195e0 <g_1991>
    7f72:	0f b6 d2             	movzbl %dl,%edx
    7f75:	89 10                	mov    %edx,(%rax)
    7f77:	8b 85 1c f1 ff ff    	mov    -0xee4(%rbp),%eax
    7f7d:	48 63 d0             	movslq %eax,%rdx
    7f80:	48 8b 05 49 14 01 00 	mov    0x11449(%rip),%rax        # 193d0 <g_966>
    7f87:	48 8b 00             	mov    (%rax),%rax
    7f8a:	48 8b 00             	mov    (%rax),%rax
    7f8d:	48 8b 00             	mov    (%rax),%rax
    7f90:	48 39 c2             	cmp    %rax,%rdx
    7f93:	0f 85 aa 00 00 00    	jne    8043 <func_2+0x269d>
    7f99:	eb 1c                	jmp    7fb7 <func_2+0x2611>
    7f9b:	0f b6 85 fa f0 ff ff 	movzbl -0xf06(%rbp),%eax
    7fa2:	83 c0 01             	add    $0x1,%eax
    7fa5:	88 85 fa f0 ff ff    	mov    %al,-0xf06(%rbp)
    7fab:	48 8b 85 d8 f0 ff ff 	mov    -0xf28(%rbp),%rax
    7fb2:	e9 26 0f 00 00       	jmpq   8edd <func_2+0x3537>
    7fb7:	48 8b 05 52 16 01 00 	mov    0x11652(%rip),%rax        # 19610 <g_2185>
    7fbe:	48 8b 00             	mov    (%rax),%rax
    7fc1:	48 8b 00             	mov    (%rax),%rax
    7fc4:	48 85 c0             	test   %rax,%rax
    7fc7:	0f 94 c0             	sete   %al
    7fca:	0f b6 c0             	movzbl %al,%eax
    7fcd:	48 be 6b 9a 72 98 73 	movabs $0x5364f77398729a6b,%rsi
    7fd4:	f7 64 53 
    7fd7:	48 89 c7             	mov    %rax,%rdi
    7fda:	e8 4f d0 ff ff       	callq  502e <safe_add_func_uint64_t_u_u>
    7fdf:	48 8b 05 fa 15 01 00 	mov    0x115fa(%rip),%rax        # 195e0 <g_1991>
    7fe6:	8b 10                	mov    (%rax),%edx
    7fe8:	8b 8d ec f0 ff ff    	mov    -0xf14(%rbp),%ecx
    7fee:	8b 85 90 f1 ff ff    	mov    -0xe70(%rbp),%eax
    7ff4:	21 c1                	and    %eax,%ecx
    7ff6:	48 8b 85 10 f3 ff ff 	mov    -0xcf0(%rbp),%rax
    7ffd:	8b 00                	mov    (%rax),%eax
    7fff:	39 c1                	cmp    %eax,%ecx
    8001:	0f 94 c0             	sete   %al
    8004:	0f b6 c0             	movzbl %al,%eax
    8007:	39 c2                	cmp    %eax,%edx
    8009:	0f 9c c0             	setl   %al
    800c:	0f b6 d0             	movzbl %al,%edx
    800f:	48 8b 05 02 13 01 00 	mov    0x11302(%rip),%rax        # 19318 <g_412>
    8016:	0f b7 00             	movzwl (%rax),%eax
    8019:	0f b7 c0             	movzwl %ax,%eax
    801c:	89 d6                	mov    %edx,%esi
    801e:	89 c7                	mov    %eax,%edi
    8020:	e8 da cc ff ff       	callq  4cff <safe_add_func_uint16_t_u_u>
    8025:	0f b7 d0             	movzwl %ax,%edx
    8028:	48 8b 05 61 16 01 00 	mov    0x11661(%rip),%rax        # 19690 <g_3153>
    802f:	0f b7 00             	movzwl (%rax),%eax
    8032:	0f b7 c0             	movzwl %ax,%eax
    8035:	89 d6                	mov    %edx,%esi
    8037:	89 c7                	mov    %eax,%edi
    8039:	e8 1e cd ff ff       	callq  4d5c <safe_mod_func_uint16_t_u_u>
    803e:	66 85 c0             	test   %ax,%ax
    8041:	74 07                	je     804a <func_2+0x26a4>
    8043:	b8 01 00 00 00       	mov    $0x1,%eax
    8048:	eb 05                	jmp    804f <func_2+0x26a9>
    804a:	b8 00 00 00 00       	mov    $0x0,%eax
    804f:	3b 85 8c f1 ff ff    	cmp    -0xe74(%rbp),%eax
    8055:	0f 9f c0             	setg   %al
    8058:	0f b6 d0             	movzbl %al,%edx
    805b:	8b 85 ec f0 ff ff    	mov    -0xf14(%rbp),%eax
    8061:	21 d0                	and    %edx,%eax
    8063:	89 85 1c f1 ff ff    	mov    %eax,-0xee4(%rbp)
    8069:	8b 85 1c f1 ff ff    	mov    -0xee4(%rbp),%eax
    806f:	89 c2                	mov    %eax,%edx
    8071:	8b 85 ec f0 ff ff    	mov    -0xf14(%rbp),%eax
    8077:	39 c2                	cmp    %eax,%edx
    8079:	0f 95 c0             	setne  %al
    807c:	0f b6 c0             	movzbl %al,%eax
    807f:	39 85 78 f1 ff ff    	cmp    %eax,-0xe88(%rbp)
    8085:	0f 94 c0             	sete   %al
    8088:	0f b6 d0             	movzbl %al,%edx
    808b:	48 8b 85 d8 f0 ff ff 	mov    -0xf28(%rbp),%rax
    8092:	8b 00                	mov    (%rax),%eax
    8094:	39 c2                	cmp    %eax,%edx
    8096:	7e 07                	jle    809f <func_2+0x26f9>
    8098:	b8 01 00 00 00       	mov    $0x1,%eax
    809d:	eb 05                	jmp    80a4 <func_2+0x26fe>
    809f:	b8 00 00 00 00       	mov    $0x0,%eax
    80a4:	3b 85 78 f1 ff ff    	cmp    -0xe88(%rbp),%eax
    80aa:	0f 9f c0             	setg   %al
    80ad:	0f b6 d0             	movzbl %al,%edx
    80b0:	48 8b 85 f8 f1 ff ff 	mov    -0xe08(%rbp),%rax
    80b7:	48 8b 08             	mov    (%rax),%rcx
    80ba:	48 63 d2             	movslq %edx,%rdx
    80bd:	48 8b 85 f8 f1 ff ff 	mov    -0xe08(%rbp),%rax
    80c4:	48 21 ca             	and    %rcx,%rdx
    80c7:	48 89 10             	mov    %rdx,(%rax)
    80ca:	48 8b 00             	mov    (%rax),%rax
    80cd:	48 85 c0             	test   %rax,%rax
    80d0:	0f 95 c2             	setne  %dl
    80d3:	48 8b 05 06 15 01 00 	mov    0x11506(%rip),%rax        # 195e0 <g_1991>
    80da:	0f b6 d2             	movzbl %dl,%edx
    80dd:	89 10                	mov    %edx,(%rax)
    80df:	83 85 94 f1 ff ff 01 	addl   $0x1,-0xe6c(%rbp)
    80e6:	c6 05 57 ff 00 00 04 	movb   $0x4,0xff57(%rip)        # 18044 <g_96>
    80ed:	90                   	nop
    80ee:	0f b6 05 4f ff 00 00 	movzbl 0xff4f(%rip),%eax        # 18044 <g_96>
    80f5:	3c fc                	cmp    $0xfc,%al
    80f7:	0f 8d 54 02 00 00    	jge    8351 <func_2+0x29ab>
    80fd:	48 8d 85 20 f1 ff ff 	lea    -0xee0(%rbp),%rax
    8104:	48 89 85 f0 f3 ff ff 	mov    %rax,-0xc10(%rbp)
    810b:	c7 85 b8 f1 ff ff db 	movl   $0xf973b2db,-0xe48(%rbp)
    8112:	b2 73 f9 
    8115:	48 8b 05 e4 11 01 00 	mov    0x111e4(%rip),%rax        # 19300 <g_132>
    811c:	8b 00                	mov    (%rax),%eax
    811e:	85 c0                	test   %eax,%eax
    8120:	0f 85 2a 02 00 00    	jne    8350 <func_2+0x29aa>
    8126:	0f b6 05 7d ff 00 00 	movzbl 0xff7d(%rip),%eax        # 180aa <g_843>
    812d:	44 0f be e0          	movsbl %al,%r12d
    8131:	48 8b 85 b8 f3 ff ff 	mov    -0xc48(%rbp),%rax
    8138:	48 8b 00             	mov    (%rax),%rax
    813b:	48 8b 00             	mov    (%rax),%rax
    813e:	48 8b 00             	mov    (%rax),%rax
    8141:	8b 00                	mov    (%rax),%eax
    8143:	0f be d8             	movsbl %al,%ebx
    8146:	8b 85 38 f4 ff ff    	mov    -0xbc8(%rbp),%eax
    814c:	44 0f bf e8          	movswl %ax,%r13d
    8150:	8b 85 ec f0 ff ff    	mov    -0xf14(%rbp),%eax
    8156:	44 0f b6 f0          	movzbl %al,%r14d
    815a:	8b 85 38 f4 ff ff    	mov    -0xbc8(%rbp),%eax
    8160:	44 0f b7 f8          	movzwl %ax,%r15d
    8164:	48 8b 05 e5 14 01 00 	mov    0x114e5(%rip),%rax        # 19650 <g_2915>
    816b:	48 8b 00             	mov    (%rax),%rax
    816e:	48 89 85 f0 f3 ff ff 	mov    %rax,-0xc10(%rbp)
    8175:	48 8d 85 18 f1 ff ff 	lea    -0xee8(%rbp),%rax
    817c:	48 39 85 f0 f3 ff ff 	cmp    %rax,-0xc10(%rbp)
    8183:	0f 94 c2             	sete   %dl
    8186:	48 8d 05 03 12 01 00 	lea    0x11203(%rip),%rax        # 19390 <g_694+0x50>
    818d:	48 39 85 38 f3 ff ff 	cmp    %rax,-0xcc8(%rbp)
    8194:	0f 95 c0             	setne  %al
    8197:	09 c2                	or     %eax,%edx
    8199:	48 8b 05 80 11 01 00 	mov    0x11180(%rip),%rax        # 19320 <g_695>
    81a0:	48 8b 00             	mov    (%rax),%rax
    81a3:	0f b6 d2             	movzbl %dl,%edx
    81a6:	66 89 10             	mov    %dx,(%rax)
    81a9:	0f b7 00             	movzwl (%rax),%eax
    81ac:	0f b7 c0             	movzwl %ax,%eax
    81af:	be 0f 00 00 00       	mov    $0xf,%esi
    81b4:	89 c7                	mov    %eax,%edi
    81b6:	e8 8d cc ff ff       	callq  4e48 <safe_rshift_func_uint16_t_u_s>
    81bb:	66 85 c0             	test   %ax,%ax
    81be:	74 08                	je     81c8 <func_2+0x2822>
    81c0:	8b 85 ec f0 ff ff    	mov    -0xf14(%rbp),%eax
    81c6:	85 c0                	test   %eax,%eax
    81c8:	48 83 bd d8 f3 ff ff 	cmpq   $0x0,-0xc28(%rbp)
    81cf:	00 
    81d0:	0f 95 c0             	setne  %al
    81d3:	0f b6 c0             	movzbl %al,%eax
    81d6:	44 89 fe             	mov    %r15d,%esi
    81d9:	89 c7                	mov    %eax,%edi
    81db:	e8 5d cb ff ff       	callq  4d3d <safe_mul_func_uint16_t_u_u>
    81e0:	0f b6 c0             	movzbl %al,%eax
    81e3:	44 89 f6             	mov    %r14d,%esi
    81e6:	89 c7                	mov    %eax,%edi
    81e8:	e8 a6 c9 ff ff       	callq  4b93 <safe_mul_func_uint8_t_u_u>
    81ed:	0f b6 c0             	movzbl %al,%eax
    81f0:	89 85 3c f1 ff ff    	mov    %eax,-0xec4(%rbp)
    81f6:	8b 85 3c f1 ff ff    	mov    -0xec4(%rbp),%eax
    81fc:	89 85 b8 f1 ff ff    	mov    %eax,-0xe48(%rbp)
    8202:	8b 85 ec f0 ff ff    	mov    -0xf14(%rbp),%eax
    8208:	0f bf d0             	movswl %ax,%edx
    820b:	8b 85 ec f0 ff ff    	mov    -0xf14(%rbp),%eax
    8211:	98                   	cwtl   
    8212:	89 d6                	mov    %edx,%esi
    8214:	89 c7                	mov    %eax,%edi
    8216:	e8 3a c2 ff ff       	callq  4455 <safe_div_func_int16_t_s_s>
    821b:	98                   	cwtl   
    821c:	44 89 ee             	mov    %r13d,%esi
    821f:	89 c7                	mov    %eax,%edi
    8221:	e8 ad c1 ff ff       	callq  43d3 <safe_sub_func_int16_t_s_s>
    8226:	66 85 c0             	test   %ax,%ax
    8229:	74 11                	je     823c <func_2+0x2896>
    822b:	8b 85 ec f0 ff ff    	mov    -0xf14(%rbp),%eax
    8231:	85 c0                	test   %eax,%eax
    8233:	74 07                	je     823c <func_2+0x2896>
    8235:	b8 01 00 00 00       	mov    $0x1,%eax
    823a:	eb 05                	jmp    8241 <func_2+0x289b>
    823c:	b8 00 00 00 00       	mov    $0x0,%eax
    8241:	0f b6 c0             	movzbl %al,%eax
    8244:	be 53 00 00 00       	mov    $0x53,%esi
    8249:	89 c7                	mov    %eax,%edi
    824b:	e8 8b c9 ff ff       	callq  4bdb <safe_div_func_uint8_t_u_u>
    8250:	be 03 00 00 00       	mov    $0x3,%esi
    8255:	bf 01 00 00 00       	mov    $0x1,%edi
    825a:	e8 8f c0 ff ff       	callq  42ee <safe_lshift_func_int8_t_s_u>
    825f:	3c f7                	cmp    $0xf7,%al
    8261:	0f 9d c0             	setge  %al
    8264:	0f b6 c0             	movzbl %al,%eax
    8267:	39 85 80 f1 ff ff    	cmp    %eax,-0xe80(%rbp)
    826d:	7d 0d                	jge    827c <func_2+0x28d6>
    826f:	48 8b 85 d8 f0 ff ff 	mov    -0xf28(%rbp),%rax
    8276:	8b 00                	mov    (%rax),%eax
    8278:	85 c0                	test   %eax,%eax
    827a:	74 07                	je     8283 <func_2+0x28dd>
    827c:	b8 01 00 00 00       	mov    $0x1,%eax
    8281:	eb 05                	jmp    8288 <func_2+0x28e2>
    8283:	b8 00 00 00 00       	mov    $0x0,%eax
    8288:	89 c6                	mov    %eax,%esi
    828a:	bf 01 00 00 00       	mov    $0x1,%edi
    828f:	e8 4d c2 ff ff       	callq  44e1 <safe_lshift_func_int16_t_s_u>
    8294:	66 39 85 fe f0 ff ff 	cmp    %ax,-0xf02(%rbp)
    829b:	0f 9e c0             	setle  %al
    829e:	0f b6 d0             	movzbl %al,%edx
    82a1:	8b 85 ec f0 ff ff    	mov    -0xf14(%rbp),%eax
    82a7:	39 c2                	cmp    %eax,%edx
    82a9:	75 0a                	jne    82b5 <func_2+0x290f>
    82ab:	8b 85 ec f0 ff ff    	mov    -0xf14(%rbp),%eax
    82b1:	85 c0                	test   %eax,%eax
    82b3:	74 07                	je     82bc <func_2+0x2916>
    82b5:	b8 01 00 00 00       	mov    $0x1,%eax
    82ba:	eb 05                	jmp    82c1 <func_2+0x291b>
    82bc:	b8 00 00 00 00       	mov    $0x0,%eax
    82c1:	89 c2                	mov    %eax,%edx
    82c3:	8b 85 ec f0 ff ff    	mov    -0xf14(%rbp),%eax
    82c9:	39 c2                	cmp    %eax,%edx
    82cb:	0f 93 c0             	setae  %al
    82ce:	0f b6 d0             	movzbl %al,%edx
    82d1:	8b 85 3c f4 ff ff    	mov    -0xbc4(%rbp),%eax
    82d7:	09 d0                	or     %edx,%eax
    82d9:	85 c0                	test   %eax,%eax
    82db:	74 12                	je     82ef <func_2+0x2949>
    82dd:	8b 85 ec f0 ff ff    	mov    -0xf14(%rbp),%eax
    82e3:	85 c0                	test   %eax,%eax
    82e5:	74 08                	je     82ef <func_2+0x2949>
    82e7:	48 83 bd 60 f3 ff ff 	cmpq   $0x0,-0xca0(%rbp)
    82ee:	00 
    82ef:	89 de                	mov    %ebx,%esi
    82f1:	bf 00 00 00 00       	mov    $0x0,%edi
    82f6:	e8 17 bf ff ff       	callq  4212 <safe_mul_func_int8_t_s_s>
    82fb:	0f be d8             	movsbl %al,%ebx
    82fe:	8b 85 14 f1 ff ff    	mov    -0xeec(%rbp),%eax
    8304:	48 98                	cltq   
    8306:	8b 95 ec f0 ff ff    	mov    -0xf14(%rbp),%edx
    830c:	89 d2                	mov    %edx,%edx
    830e:	48 89 c6             	mov    %rax,%rsi
    8311:	48 89 d7             	mov    %rdx,%rdi
    8314:	e8 67 cd ff ff       	callq  5080 <safe_mod_func_uint64_t_u_u>
    8319:	0f be c0             	movsbl %al,%eax
    831c:	48 8b 95 60 f2 ff ff 	mov    -0xda0(%rbp),%rdx
    8323:	4c 8b 2a             	mov    (%rdx),%r13
    8326:	44 89 e2             	mov    %r12d,%edx
    8329:	89 de                	mov    %ebx,%esi
    832b:	89 c7                	mov    %eax,%edi
    832d:	e8 d1 0b 00 00       	callq  8f03 <func_11>
    8332:	49 89 45 00          	mov    %rax,0x0(%r13)
    8336:	48 8b 85 58 f2 ff ff 	mov    -0xda8(%rbp),%rax
    833d:	48 c7 00 00 00 00 00 	movq   $0x0,(%rax)
    8344:	48 8b 85 e0 f0 ff ff 	mov    -0xf20(%rbp),%rax
    834b:	e9 8d 0b 00 00       	jmpq   8edd <func_2+0x3537>
    8350:	90                   	nop
    8351:	66 c7 05 46 fd 00 00 	movw   $0x0,0xfd46(%rip)        # 180a0 <g_525>
    8358:	00 00 
    835a:	e9 a9 01 00 00       	jmpq   8508 <func_2+0x2b62>
    835f:	c6 85 fb f0 ff ff c6 	movb   $0xc6,-0xf05(%rbp)
    8366:	48 8b 05 e3 12 01 00 	mov    0x112e3(%rip),%rax        # 19650 <g_2915>
    836d:	48 8b 00             	mov    (%rax),%rax
    8370:	48 89 85 e0 f0 ff ff 	mov    %rax,-0xf20(%rbp)
    8377:	66 c7 05 38 fd 00 00 	movw   $0xffeb,0xfd38(%rip)        # 180b8 <g_1048>
    837e:	eb ff 
    8380:	e9 40 01 00 00       	jmpq   84c5 <func_2+0x2b1f>
    8385:	c7 85 bc f1 ff ff 26 	movl   $0x5ffd6326,-0xe44(%rbp)
    838c:	63 fd 5f 
    838f:	48 8b 85 e0 f0 ff ff 	mov    -0xf20(%rbp),%rax
    8396:	8b 00                	mov    (%rax),%eax
    8398:	85 c0                	test   %eax,%eax
    839a:	0f 84 b2 00 00 00    	je     8452 <func_2+0x2aac>
    83a0:	48 8b 05 41 fe 00 00 	mov    0xfe41(%rip),%rax        # 181e8 <g_3304>
    83a7:	8b 95 ec f0 ff ff    	mov    -0xf14(%rbp),%edx
    83ad:	89 d2                	mov    %edx,%edx
    83af:	48 89 c6             	mov    %rax,%rsi
    83b2:	48 89 d7             	mov    %rdx,%rdi
    83b5:	e8 c6 cc ff ff       	callq  5080 <safe_mod_func_uint64_t_u_u>
    83ba:	48 8b 05 37 12 01 00 	mov    0x11237(%rip),%rax        # 195f8 <g_2126>
    83c1:	48 8b 00             	mov    (%rax),%rax
    83c4:	48 8d 95 28 f2 ff ff 	lea    -0xdd8(%rbp),%rdx
    83cb:	48 89 10             	mov    %rdx,(%rax)
    83ce:	48 8b 85 e0 f0 ff ff 	mov    -0xf20(%rbp),%rax
    83d5:	8b 00                	mov    (%rax),%eax
    83d7:	89 c3                	mov    %eax,%ebx
    83d9:	8b 85 ec f0 ff ff    	mov    -0xf14(%rbp),%eax
    83df:	22 85 fb f0 ff ff    	and    -0xf05(%rbp),%al
    83e5:	0f be c0             	movsbl %al,%eax
    83e8:	be 01 00 00 00       	mov    $0x1,%esi
    83ed:	89 c7                	mov    %eax,%edi
    83ef:	e8 78 bf ff ff       	callq  436c <safe_rshift_func_int8_t_s_u>
    83f4:	48 8b 85 e0 f0 ff ff 	mov    -0xf20(%rbp),%rax
    83fb:	8b 00                	mov    (%rax),%eax
    83fd:	be 10 53 ff fe       	mov    $0xfeff5310,%esi
    8402:	89 c7                	mov    %eax,%edi
    8404:	e8 fc c1 ff ff       	callq  4605 <safe_sub_func_int32_t_s_s>
    8409:	89 c2                	mov    %eax,%edx
    840b:	48 8b 85 08 f2 ff ff 	mov    -0xdf8(%rbp),%rax
    8412:	48 8b 00             	mov    (%rax),%rax
    8415:	48 8b 00             	mov    (%rax),%rax
    8418:	89 10                	mov    %edx,(%rax)
    841a:	8b 00                	mov    (%rax),%eax
    841c:	39 c3                	cmp    %eax,%ebx
    841e:	0f 92 c0             	setb   %al
    8421:	0f b6 c0             	movzbl %al,%eax
    8424:	be fa ff ff ff       	mov    $0xfffffffa,%esi
    8429:	89 c7                	mov    %eax,%edi
    842b:	e8 88 ca ff ff       	callq  4eb8 <safe_add_func_uint32_t_u_u>
    8430:	8b 95 ec f0 ff ff    	mov    -0xf14(%rbp),%edx
    8436:	39 d0                	cmp    %edx,%eax
    8438:	48 8b 05 c1 0f 01 00 	mov    0x10fc1(%rip),%rax        # 19400 <g_1292>
    843f:	48 8b 00             	mov    (%rax),%rax
    8442:	48 39 85 c0 f3 ff ff 	cmp    %rax,-0xc40(%rbp)
    8449:	74 07                	je     8452 <func_2+0x2aac>
    844b:	ba 01 00 00 00       	mov    $0x1,%edx
    8450:	eb 05                	jmp    8457 <func_2+0x2ab1>
    8452:	ba 00 00 00 00       	mov    $0x0,%edx
    8457:	48 8b 85 d8 f0 ff ff 	mov    -0xf28(%rbp),%rax
    845e:	8b 00                	mov    (%rax),%eax
    8460:	09 c2                	or     %eax,%edx
    8462:	48 8b 85 d8 f0 ff ff 	mov    -0xf28(%rbp),%rax
    8469:	89 10                	mov    %edx,(%rax)
    846b:	83 bd bc f1 ff ff 00 	cmpl   $0x0,-0xe44(%rbp)
    8472:	75 33                	jne    84a7 <func_2+0x2b01>
    8474:	48 8b 05 9d 11 01 00 	mov    0x1119d(%rip),%rax        # 19618 <g_2184>
    847b:	48 8b 10             	mov    (%rax),%rdx
    847e:	48 8b 05 8b 11 01 00 	mov    0x1118b(%rip),%rax        # 19610 <g_2185>
    8485:	48 8b 12             	mov    (%rdx),%rdx
    8488:	48 89 10             	mov    %rdx,(%rax)
    848b:	48 8b 15 be 11 01 00 	mov    0x111be(%rip),%rdx        # 19650 <g_2915>
    8492:	48 8b 85 b8 f3 ff ff 	mov    -0xc48(%rbp),%rax
    8499:	48 8b 00             	mov    (%rax),%rax
    849c:	48 8b 00             	mov    (%rax),%rax
    849f:	48 8b 12             	mov    (%rdx),%rdx
    84a2:	48 89 10             	mov    %rdx,(%rax)
    84a5:	eb 01                	jmp    84a8 <func_2+0x2b02>
    84a7:	90                   	nop
    84a8:	0f b7 05 09 fc 00 00 	movzwl 0xfc09(%rip),%eax        # 180b8 <g_1048>
    84af:	0f b7 c0             	movzwl %ax,%eax
    84b2:	be 09 00 00 00       	mov    $0x9,%esi
    84b7:	89 c7                	mov    %eax,%edi
    84b9:	e8 fa c9 ff ff       	callq  4eb8 <safe_add_func_uint32_t_u_u>
    84be:	66 89 05 f3 fb 00 00 	mov    %ax,0xfbf3(%rip)        # 180b8 <g_1048>
    84c5:	0f b7 05 ec fb 00 00 	movzwl 0xfbec(%rip),%eax        # 180b8 <g_1048>
    84cc:	66 83 f8 29          	cmp    $0x29,%ax
    84d0:	0f 87 af fe ff ff    	ja     8385 <func_2+0x29df>
    84d6:	48 8b 15 6b 11 01 00 	mov    0x1116b(%rip),%rdx        # 19648 <g_2799>
    84dd:	48 8b 05 3c 11 01 00 	mov    0x1113c(%rip),%rax        # 19620 <g_2335>
    84e4:	8b 12                	mov    (%rdx),%edx
    84e6:	89 10                	mov    %edx,(%rax)
    84e8:	0f b7 05 b1 fb 00 00 	movzwl 0xfbb1(%rip),%eax        # 180a0 <g_525>
    84ef:	0f b6 c0             	movzbl %al,%eax
    84f2:	be 09 00 00 00       	mov    $0x9,%esi
    84f7:	89 c7                	mov    %eax,%edi
    84f9:	e8 7a c6 ff ff       	callq  4b78 <safe_sub_func_uint8_t_u_u>
    84fe:	0f b6 c0             	movzbl %al,%eax
    8501:	66 89 05 98 fb 00 00 	mov    %ax,0xfb98(%rip)        # 180a0 <g_525>
    8508:	0f b7 05 91 fb 00 00 	movzwl 0xfb91(%rip),%eax        # 180a0 <g_525>
    850f:	66 83 f8 f4          	cmp    $0xfff4,%ax
    8513:	0f 8d 46 fe ff ff    	jge    835f <func_2+0x29b9>
    8519:	48 8b 85 e0 f0 ff ff 	mov    -0xf20(%rbp),%rax
    8520:	e9 b8 09 00 00       	jmpq   8edd <func_2+0x3537>
    8525:	48 b8 0d 99 fb 3d 7b 	movabs $0x469fb7b3dfb990d,%rax
    852c:	fb 69 04 
    852f:	48 89 85 78 f3 ff ff 	mov    %rax,-0xc88(%rbp)
    8536:	66 c7 85 06 f1 ff ff 	movw   $0x80a,-0xefa(%rbp)
    853d:	0a 08 
    853f:	c7 85 d0 f4 ff ff 08 	movl   $0xf0dd4908,-0xb30(%rbp)
    8546:	49 dd f0 
    8549:	c7 85 d4 f4 ff ff ae 	movl   $0xdd0a96ae,-0xb2c(%rbp)
    8550:	96 0a dd 
    8553:	c7 85 d8 f4 ff ff 08 	movl   $0xf0dd4908,-0xb28(%rbp)
    855a:	49 dd f0 
    855d:	c7 85 dc f4 ff ff ae 	movl   $0xdd0a96ae,-0xb24(%rbp)
    8564:	96 0a dd 
    8567:	c7 85 e0 f4 ff ff 08 	movl   $0xf0dd4908,-0xb20(%rbp)
    856e:	49 dd f0 
    8571:	c7 85 e4 f4 ff ff ae 	movl   $0xdd0a96ae,-0xb1c(%rbp)
    8578:	96 0a dd 
    857b:	c7 85 e8 f4 ff ff 08 	movl   $0xf0dd4908,-0xb18(%rbp)
    8582:	49 dd f0 
    8585:	c7 85 ec f4 ff ff ae 	movl   $0xdd0a96ae,-0xb14(%rbp)
    858c:	96 0a dd 
    858f:	48 8d 05 8e fb 00 00 	lea    0xfb8e(%rip),%rax        # 18124 <g_2443>
    8596:	48 89 85 58 f2 ff ff 	mov    %rax,-0xda8(%rbp)
    859d:	48 8d 85 58 f2 ff ff 	lea    -0xda8(%rbp),%rax
    85a4:	48 89 85 60 f2 ff ff 	mov    %rax,-0xda0(%rbp)
    85ab:	48 c7 85 80 f3 ff ff 	movq   $0x8,-0xc80(%rbp)
    85b2:	08 00 00 00 
    85b6:	c7 85 00 fc ff ff 57 	movl   $0x5205ee57,-0x400(%rbp)
    85bd:	ee 05 52 
    85c0:	c7 85 04 fc ff ff 57 	movl   $0x5205ee57,-0x3fc(%rbp)
    85c7:	ee 05 52 
    85ca:	c7 85 08 fc ff ff 03 	movl   $0x3,-0x3f8(%rbp)
    85d1:	00 00 00 
    85d4:	c7 85 0c fc ff ff 7f 	movl   $0x5553217f,-0x3f4(%rbp)
    85db:	21 53 55 
    85de:	c7 85 10 fc ff ff 44 	movl   $0x7090ec44,-0x3f0(%rbp)
    85e5:	ec 90 70 
    85e8:	c7 85 14 fc ff ff 7f 	movl   $0x5553217f,-0x3ec(%rbp)
    85ef:	21 53 55 
    85f2:	c7 85 18 fc ff ff 03 	movl   $0x3,-0x3e8(%rbp)
    85f9:	00 00 00 
    85fc:	c7 85 1c fc ff ff 57 	movl   $0x5205ee57,-0x3e4(%rbp)
    8603:	ee 05 52 
    8606:	c7 85 20 fc ff ff 57 	movl   $0x5205ee57,-0x3e0(%rbp)
    860d:	ee 05 52 
    8610:	c7 85 24 fc ff ff 03 	movl   $0x3,-0x3dc(%rbp)
    8617:	00 00 00 
    861a:	c7 85 28 fc ff ff 7f 	movl   $0x5553217f,-0x3d8(%rbp)
    8621:	21 53 55 
    8624:	c7 85 2c fc ff ff 44 	movl   $0x7090ec44,-0x3d4(%rbp)
    862b:	ec 90 70 
    862e:	c7 85 30 fc ff ff 7f 	movl   $0x5553217f,-0x3d0(%rbp)
    8635:	21 53 55 
    8638:	c7 85 34 fc ff ff 03 	movl   $0x3,-0x3cc(%rbp)
    863f:	00 00 00 
    8642:	48 8d 05 cf 0c 01 00 	lea    0x10ccf(%rip),%rax        # 19318 <g_412>
    8649:	48 89 85 88 f3 ff ff 	mov    %rax,-0xc78(%rbp)
    8650:	48 c7 85 90 f3 ff ff 	movq   $0x0,-0xc70(%rbp)
    8657:	00 00 00 00 
    865b:	c6 85 f5 f0 ff ff 05 	movb   $0x5,-0xf0b(%rbp)
    8662:	c7 85 30 f1 ff ff 00 	movl   $0x0,-0xed0(%rbp)
    8669:	00 00 00 
    866c:	eb 1e                	jmp    868c <func_2+0x2ce6>
    866e:	8b 85 30 f1 ff ff    	mov    -0xed0(%rbp),%eax
    8674:	48 98                	cltq   
    8676:	48 8d 95 00 f2 ff ff 	lea    -0xe00(%rbp),%rdx
    867d:	48 89 94 c5 80 f5 ff 	mov    %rdx,-0xa80(%rbp,%rax,8)
    8684:	ff 
    8685:	83 85 30 f1 ff ff 01 	addl   $0x1,-0xed0(%rbp)
    868c:	83 bd 30 f1 ff ff 05 	cmpl   $0x5,-0xed0(%rbp)
    8693:	7e d9                	jle    866e <func_2+0x2cc8>
    8695:	c7 05 89 15 01 00 11 	movl   $0x11,0x11589(%rip)        # 19c28 <g_99>
    869c:	00 00 00 
    869f:	eb 4d                	jmp    86ee <func_2+0x2d48>
    86a1:	66 c7 85 08 f1 ff ff 	movw   $0x1,-0xef8(%rbp)
    86a8:	01 00 
    86aa:	c7 85 24 f1 ff ff ff 	movl   $0xffffffff,-0xedc(%rbp)
    86b1:	ff ff ff 
    86b4:	48 8d 85 60 f2 ff ff 	lea    -0xda0(%rbp),%rax
    86bb:	48 89 85 98 f3 ff ff 	mov    %rax,-0xc68(%rbp)
    86c2:	48 8d 85 24 f1 ff ff 	lea    -0xedc(%rbp),%rax
    86c9:	48 89 85 a0 f3 ff ff 	mov    %rax,-0xc60(%rbp)
    86d0:	8b 05 52 15 01 00    	mov    0x11552(%rip),%eax        # 19c28 <g_99>
    86d6:	0f b6 c0             	movzbl %al,%eax
    86d9:	be 07 00 00 00       	mov    $0x7,%esi
    86de:	89 c7                	mov    %eax,%edi
    86e0:	e8 75 c4 ff ff       	callq  4b5a <safe_add_func_uint8_t_u_u>
    86e5:	0f b6 c0             	movzbl %al,%eax
    86e8:	89 05 3a 15 01 00    	mov    %eax,0x1153a(%rip)        # 19c28 <g_99>
    86ee:	8b 05 34 15 01 00    	mov    0x11534(%rip),%eax        # 19c28 <g_99>
    86f4:	83 f8 18             	cmp    $0x18,%eax
    86f7:	75 a8                	jne    86a1 <func_2+0x2cfb>
    86f9:	80 85 f5 f0 ff ff 01 	addb   $0x1,-0xf0b(%rbp)
    8700:	48 8b 85 10 f3 ff ff 	mov    -0xcf0(%rbp),%rax
    8707:	8b 00                	mov    (%rax),%eax
    8709:	83 e0 01             	and    $0x1,%eax
    870c:	89 c2                	mov    %eax,%edx
    870e:	48 8b 85 10 f3 ff ff 	mov    -0xcf0(%rbp),%rax
    8715:	89 10                	mov    %edx,(%rax)
    8717:	c7 85 3c f1 ff ff 00 	movl   $0x0,-0xec4(%rbp)
    871e:	00 00 00 
    8721:	eb 67                	jmp    878a <func_2+0x2de4>
    8723:	48 8b 85 d8 f0 ff ff 	mov    -0xf28(%rbp),%rax
    872a:	8b 10                	mov    (%rax),%edx
    872c:	48 8b 85 d8 f0 ff ff 	mov    -0xf28(%rbp),%rax
    8733:	89 10                	mov    %edx,(%rax)
    8735:	48 8d 05 24 f6 00 00 	lea    0xf624(%rip),%rax        # 17d60 <g_2979>
    873c:	48 39 85 b0 f2 ff ff 	cmp    %rax,-0xd50(%rbp)
    8743:	74 1b                	je     8760 <func_2+0x2dba>
    8745:	48 8b 05 84 10 01 00 	mov    0x11084(%rip),%rax        # 197d0 <g_3149>
    874c:	48 8b 00             	mov    (%rax),%rax
    874f:	48 8b 00             	mov    (%rax),%rax
    8752:	48 8b 00             	mov    (%rax),%rax
    8755:	48 8b 00             	mov    (%rax),%rax
    8758:	0f b7 00             	movzwl (%rax),%eax
    875b:	66 85 c0             	test   %ax,%ax
    875e:	74 07                	je     8767 <func_2+0x2dc1>
    8760:	ba 01 00 00 00       	mov    $0x1,%edx
    8765:	eb 05                	jmp    876c <func_2+0x2dc6>
    8767:	ba 00 00 00 00       	mov    $0x0,%edx
    876c:	48 8b 85 90 f2 ff ff 	mov    -0xd70(%rbp),%rax
    8773:	89 10                	mov    %edx,(%rax)
    8775:	83 bd 54 f1 ff ff 00 	cmpl   $0x0,-0xeac(%rbp)
    877c:	74 05                	je     8783 <func_2+0x2ddd>
    877e:	e9 d2 d4 ff ff       	jmpq   5c55 <func_2+0x2af>
    8783:	83 85 3c f1 ff ff 01 	addl   $0x1,-0xec4(%rbp)
    878a:	83 bd 3c f1 ff ff 18 	cmpl   $0x18,-0xec4(%rbp)
    8791:	7f 90                	jg     8723 <func_2+0x2d7d>
    8793:	e9 2f 07 00 00       	jmpq   8ec7 <func_2+0x3521>
    8798:	48 c7 85 c0 f2 ff ff 	movq   $0xfffffffffffffff8,-0xd40(%rbp)
    879f:	f8 ff ff ff 
    87a3:	48 b8 6a cf 08 04 dc 	movabs $0xaf840bdc0408cf6a,%rax
    87aa:	0b 84 af 
    87ad:	48 89 85 c8 f2 ff ff 	mov    %rax,-0xd38(%rbp)
    87b4:	c7 85 6c f1 ff ff 6d 	movl   $0x1716f76d,-0xe94(%rbp)
    87bb:	f7 16 17 
    87be:	c7 85 70 f1 ff ff f7 	movl   $0xfffffff7,-0xe90(%rbp)
    87c5:	ff ff ff 
    87c8:	66 c7 85 00 f1 ff ff 	movw   $0x1558,-0xf00(%rbp)
    87cf:	58 15 
    87d1:	66 c7 05 ce f8 00 00 	movw   $0x0,0xf8ce(%rip)        # 180a8 <g_801>
    87d8:	00 00 
    87da:	e9 e5 05 00 00       	jmpq   8dc4 <func_2+0x341e>
    87df:	48 c7 85 68 f2 ff ff 	movq   $0x0,-0xd98(%rbp)
    87e6:	00 00 00 00 
    87ea:	c7 85 60 f2 ff ff e1 	movl   $0x831bd3e1,-0xda0(%rbp)
    87f1:	d3 1b 83 
    87f4:	c7 85 a0 f6 ff ff 08 	movl   $0x8,-0x960(%rbp)
    87fb:	00 00 00 
    87fe:	c7 85 a4 f6 ff ff ff 	movl   $0xffffffff,-0x95c(%rbp)
    8805:	ff ff ff 
    8808:	c7 85 a8 f6 ff ff 09 	movl   $0x9,-0x958(%rbp)
    880f:	00 00 00 
    8812:	c7 85 ac f6 ff ff ff 	movl   $0xffffffff,-0x954(%rbp)
    8819:	ff ff ff 
    881c:	c7 85 b0 f6 ff ff 08 	movl   $0x8,-0x950(%rbp)
    8823:	00 00 00 
    8826:	c7 85 b4 f6 ff ff 01 	movl   $0x1,-0x94c(%rbp)
    882d:	00 00 00 
    8830:	c7 85 b8 f6 ff ff 09 	movl   $0x9,-0x948(%rbp)
    8837:	00 00 00 
    883a:	c7 85 bc f6 ff ff 01 	movl   $0x1,-0x944(%rbp)
    8841:	00 00 00 
    8844:	c7 85 c0 f6 ff ff 08 	movl   $0x8,-0x940(%rbp)
    884b:	00 00 00 
    884e:	c7 85 c4 f6 ff ff ff 	movl   $0xffffffff,-0x93c(%rbp)
    8855:	ff ff ff 
    8858:	c7 85 c8 f6 ff ff 09 	movl   $0x9,-0x938(%rbp)
    885f:	00 00 00 
    8862:	c7 85 cc f6 ff ff ff 	movl   $0xffffffff,-0x934(%rbp)
    8869:	ff ff ff 
    886c:	c7 85 d0 f6 ff ff 08 	movl   $0x8,-0x930(%rbp)
    8873:	00 00 00 
    8876:	c7 85 d4 f6 ff ff 01 	movl   $0x1,-0x92c(%rbp)
    887d:	00 00 00 
    8880:	c7 85 d8 f6 ff ff 09 	movl   $0x9,-0x928(%rbp)
    8887:	00 00 00 
    888a:	c7 85 dc f6 ff ff 01 	movl   $0x1,-0x924(%rbp)
    8891:	00 00 00 
    8894:	c7 85 e0 f6 ff ff 08 	movl   $0x8,-0x920(%rbp)
    889b:	00 00 00 
    889e:	c7 85 e4 f6 ff ff ff 	movl   $0xffffffff,-0x91c(%rbp)
    88a5:	ff ff ff 
    88a8:	c7 85 e8 f6 ff ff 09 	movl   $0x9,-0x918(%rbp)
    88af:	00 00 00 
    88b2:	c7 85 ec f6 ff ff ff 	movl   $0xffffffff,-0x914(%rbp)
    88b9:	ff ff ff 
    88bc:	c7 85 f0 f6 ff ff 08 	movl   $0x8,-0x910(%rbp)
    88c3:	00 00 00 
    88c6:	c7 85 f4 f6 ff ff 01 	movl   $0x1,-0x90c(%rbp)
    88cd:	00 00 00 
    88d0:	c7 85 f8 f6 ff ff 09 	movl   $0x9,-0x908(%rbp)
    88d7:	00 00 00 
    88da:	c7 85 fc f6 ff ff 01 	movl   $0x1,-0x904(%rbp)
    88e1:	00 00 00 
    88e4:	c7 85 00 f7 ff ff 08 	movl   $0x8,-0x900(%rbp)
    88eb:	00 00 00 
    88ee:	c7 85 04 f7 ff ff ff 	movl   $0xffffffff,-0x8fc(%rbp)
    88f5:	ff ff ff 
    88f8:	c7 85 08 f7 ff ff 09 	movl   $0x9,-0x8f8(%rbp)
    88ff:	00 00 00 
    8902:	c7 85 0c f7 ff ff ff 	movl   $0xffffffff,-0x8f4(%rbp)
    8909:	ff ff ff 
    890c:	c7 85 10 f7 ff ff 08 	movl   $0x8,-0x8f0(%rbp)
    8913:	00 00 00 
    8916:	c7 85 14 f7 ff ff 01 	movl   $0x1,-0x8ec(%rbp)
    891d:	00 00 00 
    8920:	c7 85 18 f7 ff ff 09 	movl   $0x9,-0x8e8(%rbp)
    8927:	00 00 00 
    892a:	c7 85 1c f7 ff ff 01 	movl   $0x1,-0x8e4(%rbp)
    8931:	00 00 00 
    8934:	48 8b 85 90 f2 ff ff 	mov    -0xd70(%rbp),%rax
    893b:	c7 00 80 5f bb 16    	movl   $0x16bb5f80,(%rax)
    8941:	48 8b 05 90 0c 01 00 	mov    0x10c90(%rip),%rax        # 195d8 <g_1900>
    8948:	48 8b 95 90 f2 ff ff 	mov    -0xd70(%rbp),%rdx
    894f:	8b 12                	mov    (%rdx),%edx
    8951:	89 10                	mov    %edx,(%rax)
    8953:	48 c7 05 2a f7 00 00 	movq   $0x17,0xf72a(%rip)        # 18088 <g_409>
    895a:	17 00 00 00 
    895e:	e9 db 01 00 00       	jmpq   8b3e <func_2+0x3198>
    8963:	48 8d 85 b0 f4 ff ff 	lea    -0xb50(%rbp),%rax
    896a:	48 83 c0 18          	add    $0x18,%rax
    896e:	48 89 85 08 f3 ff ff 	mov    %rax,-0xcf8(%rbp)
    8975:	48 8d 05 ac 12 01 00 	lea    0x112ac(%rip),%rax        # 19c28 <g_99>
    897c:	48 89 85 00 fc ff ff 	mov    %rax,-0x400(%rbp)
    8983:	48 c7 85 08 fc ff ff 	movq   $0x0,-0x3f8(%rbp)
    898a:	00 00 00 00 
    898e:	48 8d 85 14 f1 ff ff 	lea    -0xeec(%rbp),%rax
    8995:	48 89 85 10 fc ff ff 	mov    %rax,-0x3f0(%rbp)
    899c:	48 c7 85 18 fc ff ff 	movq   $0x0,-0x3e8(%rbp)
    89a3:	00 00 00 00 
    89a7:	48 8d 05 7a 12 01 00 	lea    0x1127a(%rip),%rax        # 19c28 <g_99>
    89ae:	48 89 85 20 fc ff ff 	mov    %rax,-0x3e0(%rbp)
    89b5:	48 8d 85 a0 f8 ff ff 	lea    -0x760(%rbp),%rax
    89bc:	48 83 c0 50          	add    $0x50,%rax
    89c0:	48 89 85 28 fc ff ff 	mov    %rax,-0x3d8(%rbp)
    89c7:	48 8d 85 a0 f8 ff ff 	lea    -0x760(%rbp),%rax
    89ce:	48 83 c0 50          	add    $0x50,%rax
    89d2:	48 89 85 30 fc ff ff 	mov    %rax,-0x3d0(%rbp)
    89d9:	48 8d 05 48 12 01 00 	lea    0x11248(%rip),%rax        # 19c28 <g_99>
    89e0:	48 89 85 38 fc ff ff 	mov    %rax,-0x3c8(%rbp)
    89e7:	48 c7 85 40 fc ff ff 	movq   $0x0,-0x3c0(%rbp)
    89ee:	00 00 00 00 
    89f2:	48 8d 85 14 f1 ff ff 	lea    -0xeec(%rbp),%rax
    89f9:	48 89 85 48 fc ff ff 	mov    %rax,-0x3b8(%rbp)
    8a00:	48 8d 85 14 f1 ff ff 	lea    -0xeec(%rbp),%rax
    8a07:	48 89 85 50 fc ff ff 	mov    %rax,-0x3b0(%rbp)
    8a0e:	48 8d 85 14 f1 ff ff 	lea    -0xeec(%rbp),%rax
    8a15:	48 89 85 58 fc ff ff 	mov    %rax,-0x3a8(%rbp)
    8a1c:	48 8d 85 14 f1 ff ff 	lea    -0xeec(%rbp),%rax
    8a23:	48 89 85 60 fc ff ff 	mov    %rax,-0x3a0(%rbp)
    8a2a:	48 8d 05 f7 11 01 00 	lea    0x111f7(%rip),%rax        # 19c28 <g_99>
    8a31:	48 89 85 68 fc ff ff 	mov    %rax,-0x398(%rbp)
    8a38:	48 8d 05 6d f6 00 00 	lea    0xf66d(%rip),%rax        # 180ac <g_850>
    8a3f:	48 89 85 70 fc ff ff 	mov    %rax,-0x390(%rbp)
    8a46:	48 8d 05 db 11 01 00 	lea    0x111db(%rip),%rax        # 19c28 <g_99>
    8a4d:	48 89 85 78 fc ff ff 	mov    %rax,-0x388(%rbp)
    8a54:	48 8d 85 14 f1 ff ff 	lea    -0xeec(%rbp),%rax
    8a5b:	48 89 85 80 fc ff ff 	mov    %rax,-0x380(%rbp)
    8a62:	48 8d 85 14 f1 ff ff 	lea    -0xeec(%rbp),%rax
    8a69:	48 89 85 88 fc ff ff 	mov    %rax,-0x378(%rbp)
    8a70:	48 8d 85 14 f1 ff ff 	lea    -0xeec(%rbp),%rax
    8a77:	48 89 85 90 fc ff ff 	mov    %rax,-0x370(%rbp)
    8a7e:	48 8d 85 14 f1 ff ff 	lea    -0xeec(%rbp),%rax
    8a85:	48 89 85 98 fc ff ff 	mov    %rax,-0x368(%rbp)
    8a8c:	48 c7 85 a0 fc ff ff 	movq   $0x0,-0x360(%rbp)
    8a93:	00 00 00 00 
    8a97:	48 8d 05 8a 11 01 00 	lea    0x1118a(%rip),%rax        # 19c28 <g_99>
    8a9e:	48 89 85 a8 fc ff ff 	mov    %rax,-0x358(%rbp)
    8aa5:	48 8d 85 a0 f8 ff ff 	lea    -0x760(%rbp),%rax
    8aac:	48 83 c0 50          	add    $0x50,%rax
    8ab0:	48 89 85 b0 fc ff ff 	mov    %rax,-0x350(%rbp)
    8ab7:	48 8d 85 a0 f8 ff ff 	lea    -0x760(%rbp),%rax
    8abe:	48 83 c0 50          	add    $0x50,%rax
    8ac2:	48 89 85 b8 fc ff ff 	mov    %rax,-0x348(%rbp)
    8ac9:	48 8d 05 58 11 01 00 	lea    0x11158(%rip),%rax        # 19c28 <g_99>
    8ad0:	48 89 85 c0 fc ff ff 	mov    %rax,-0x340(%rbp)
    8ad7:	48 c7 85 c8 fc ff ff 	movq   $0x0,-0x338(%rbp)
    8ade:	00 00 00 00 
    8ae2:	48 8d 85 14 f1 ff ff 	lea    -0xeec(%rbp),%rax
    8ae9:	48 89 85 d0 fc ff ff 	mov    %rax,-0x330(%rbp)
    8af0:	48 c7 85 d8 fc ff ff 	movq   $0x0,-0x328(%rbp)
    8af7:	00 00 00 00 
    8afb:	48 8d 05 26 11 01 00 	lea    0x11126(%rip),%rax        # 19c28 <g_99>
    8b02:	48 89 85 e0 fc ff ff 	mov    %rax,-0x320(%rbp)
    8b09:	48 8d 85 a0 f8 ff ff 	lea    -0x760(%rbp),%rax
    8b10:	48 83 c0 50          	add    $0x50,%rax
    8b14:	48 89 85 e8 fc ff ff 	mov    %rax,-0x318(%rbp)
    8b1b:	48 83 85 68 f2 ff ff 	addq   $0x1,-0xd98(%rbp)
    8b22:	01 
    8b23:	48 8b 05 5e f5 00 00 	mov    0xf55e(%rip),%rax        # 18088 <g_409>
    8b2a:	be 01 00 00 00       	mov    $0x1,%esi
    8b2f:	48 89 c7             	mov    %rax,%rdi
    8b32:	e8 14 c5 ff ff       	callq  504b <safe_sub_func_uint64_t_u_u>
    8b37:	48 89 05 4a f5 00 00 	mov    %rax,0xf54a(%rip)        # 18088 <g_409>
    8b3e:	48 8b 05 43 f5 00 00 	mov    0xf543(%rip),%rax        # 18088 <g_409>
    8b45:	48 83 f8 10          	cmp    $0x10,%rax
    8b49:	0f 87 14 fe ff ff    	ja     8963 <func_2+0x2fbd>
    8b4f:	48 8b 85 d8 f0 ff ff 	mov    -0xf28(%rbp),%rax
    8b56:	8b 00                	mov    (%rax),%eax
    8b58:	41 89 c4             	mov    %eax,%r12d
    8b5b:	48 8b 05 b6 0a 01 00 	mov    0x10ab6(%rip),%rax        # 19618 <g_2184>
    8b62:	48 8b 00             	mov    (%rax),%rax
    8b65:	48 8b 00             	mov    (%rax),%rax
    8b68:	48 8b 00             	mov    (%rax),%rax
    8b6b:	48 8b 00             	mov    (%rax),%rax
    8b6e:	48 8b 05 9b 0a 01 00 	mov    0x10a9b(%rip),%rax        # 19610 <g_2185>
    8b75:	48 8b 00             	mov    (%rax),%rax
    8b78:	48 8b 00             	mov    (%rax),%rax
    8b7b:	48 8b 00             	mov    (%rax),%rax
    8b7e:	48 8b 05 f3 0a 01 00 	mov    0x10af3(%rip),%rax        # 19678 <g_3046>
    8b85:	48 8b 00             	mov    (%rax),%rax
    8b88:	48 8b 05 41 08 01 00 	mov    0x10841(%rip),%rax        # 193d0 <g_966>
    8b8f:	48 8b 00             	mov    (%rax),%rax
    8b92:	48 8b 00             	mov    (%rax),%rax
    8b95:	48 8b 95 c0 f2 ff ff 	mov    -0xd40(%rbp),%rdx
    8b9c:	48 89 10             	mov    %rdx,(%rax)
    8b9f:	48 8b 00             	mov    (%rax),%rax
    8ba2:	48 89 05 1f f5 00 00 	mov    %rax,0xf51f(%rip)        # 180c8 <g_1185>
    8ba9:	48 8b 05 18 f5 00 00 	mov    0xf518(%rip),%rax        # 180c8 <g_1185>
    8bb0:	41 89 c5             	mov    %eax,%r13d
    8bb3:	48 8b 85 d8 f0 ff ff 	mov    -0xf28(%rbp),%rax
    8bba:	8b 00                	mov    (%rax),%eax
    8bbc:	89 c6                	mov    %eax,%esi
    8bbe:	bf f6 d5 5a a6       	mov    $0xa65ad5f6,%edi
    8bc3:	e8 08 c3 ff ff       	callq  4ed0 <safe_sub_func_uint32_t_u_u>
    8bc8:	89 c3                	mov    %eax,%ebx
    8bca:	48 8b 85 c8 f2 ff ff 	mov    -0xd38(%rbp),%rax
    8bd1:	89 c6                	mov    %eax,%esi
    8bd3:	bf 05 00 00 00       	mov    $0x5,%edi
    8bd8:	e8 c4 b6 ff ff       	callq  42a1 <safe_lshift_func_int8_t_s_s>
    8bdd:	0f be c0             	movsbl %al,%eax
    8be0:	31 c3                	xor    %eax,%ebx
    8be2:	89 da                	mov    %ebx,%edx
    8be4:	8b 85 ec f0 ff ff    	mov    -0xf14(%rbp),%eax
    8bea:	39 c2                	cmp    %eax,%edx
    8bec:	0f 92 c0             	setb   %al
    8bef:	0f b6 d0             	movzbl %al,%edx
    8bf2:	48 8b 05 57 0a 01 00 	mov    0x10a57(%rip),%rax        # 19650 <g_2915>
    8bf9:	48 8b 00             	mov    (%rax),%rax
    8bfc:	8b 00                	mov    (%rax),%eax
    8bfe:	31 d0                	xor    %edx,%eax
    8c00:	66 25 5f b3          	and    $0xb35f,%ax
    8c04:	44 09 e8             	or     %r13d,%eax
    8c07:	83 f0 f8             	xor    $0xfffffff8,%eax
    8c0a:	98                   	cwtl   
    8c0b:	be 09 00 00 00       	mov    $0x9,%esi
    8c10:	89 c7                	mov    %eax,%edi
    8c12:	e8 ff b7 ff ff       	callq  4416 <safe_mod_func_int16_t_s_s>
    8c17:	48 8b 05 ca 07 01 00 	mov    0x107ca(%rip),%rax        # 193e8 <g_1100>
    8c1e:	48 8b 00             	mov    (%rax),%rax
    8c21:	8b 00                	mov    (%rax),%eax
    8c23:	44 89 e6             	mov    %r12d,%esi
    8c26:	89 c7                	mov    %eax,%edi
    8c28:	e8 f8 c2 ff ff       	callq  4f25 <safe_div_func_uint32_t_u_u>
    8c2d:	83 c8 07             	or     $0x7,%eax
    8c30:	98                   	cwtl   
    8c31:	be 04 00 00 00       	mov    $0x4,%esi
    8c36:	89 c7                	mov    %eax,%edi
    8c38:	e8 ed b8 ff ff       	callq  452a <safe_rshift_func_int16_t_s_s>
    8c3d:	0f bf d0             	movswl %ax,%edx
    8c40:	8b 85 ec f0 ff ff    	mov    -0xf14(%rbp),%eax
    8c46:	39 c2                	cmp    %eax,%edx
    8c48:	76 7e                	jbe    8cc8 <func_2+0x3322>
    8c4a:	48 83 bd 68 f2 ff ff 	cmpq   $0x0,-0xd98(%rbp)
    8c51:	00 
    8c52:	0f 85 7f 01 00 00    	jne    8dd7 <func_2+0x3431>
    8c58:	c7 85 ec f0 ff ff 00 	movl   $0x0,-0xf14(%rbp)
    8c5f:	00 00 00 
    8c62:	eb 46                	jmp    8caa <func_2+0x3304>
    8c64:	48 8d 05 3d 09 01 00 	lea    0x1093d(%rip),%rax        # 195a8 <g_1768+0x28>
    8c6b:	48 89 85 f8 f2 ff ff 	mov    %rax,-0xd08(%rbp)
    8c72:	48 8d 05 4f 09 01 00 	lea    0x1094f(%rip),%rax        # 195c8 <g_1767>
    8c79:	48 89 85 00 f3 ff ff 	mov    %rax,-0xd00(%rbp)
    8c80:	48 8b 85 00 f3 ff ff 	mov    -0xd00(%rbp),%rax
    8c87:	48 8b 95 f8 f2 ff ff 	mov    -0xd08(%rbp),%rdx
    8c8e:	48 89 10             	mov    %rdx,(%rax)
    8c91:	48 83 bd c0 f2 ff ff 	cmpq   $0x0,-0xd40(%rbp)
    8c98:	00 
    8c99:	75 1c                	jne    8cb7 <func_2+0x3311>
    8c9b:	8b 85 ec f0 ff ff    	mov    -0xf14(%rbp),%eax
    8ca1:	83 c0 01             	add    $0x1,%eax
    8ca4:	89 85 ec f0 ff ff    	mov    %eax,-0xf14(%rbp)
    8caa:	8b 85 ec f0 ff ff    	mov    -0xf14(%rbp),%eax
    8cb0:	83 f8 2a             	cmp    $0x2a,%eax
    8cb3:	77 af                	ja     8c64 <func_2+0x32be>
    8cb5:	eb 01                	jmp    8cb8 <func_2+0x3312>
    8cb7:	90                   	nop
    8cb8:	48 8b 85 d8 f0 ff ff 	mov    -0xf28(%rbp),%rax
    8cbf:	8b 00                	mov    (%rax),%eax
    8cc1:	85 c0                	test   %eax,%eax
    8cc3:	e9 eb 00 00 00       	jmpq   8db3 <func_2+0x340d>
    8cc8:	48 c7 85 d0 f2 ff ff 	movq   $0x0,-0xd30(%rbp)
    8ccf:	00 00 00 00 
    8cd3:	48 8d 05 9e f3 00 00 	lea    0xf39e(%rip),%rax        # 18078 <g_211+0x18>
    8cda:	48 89 85 d8 f2 ff ff 	mov    %rax,-0xd28(%rbp)
    8ce1:	48 c7 85 e0 f2 ff ff 	movq   $0x0,-0xd20(%rbp)
    8ce8:	00 00 00 00 
    8cec:	48 8d 85 60 f2 ff ff 	lea    -0xda0(%rbp),%rax
    8cf3:	48 89 85 e8 f2 ff ff 	mov    %rax,-0xd18(%rbp)
    8cfa:	48 b8 56 67 fb e7 68 	movabs $0x9db84868e7fb6756,%rax
    8d01:	48 b8 9d 
    8d04:	48 89 85 f0 f2 ff ff 	mov    %rax,-0xd10(%rbp)
    8d0b:	c7 85 58 f1 ff ff 00 	movl   $0x0,-0xea8(%rbp)
    8d12:	00 00 00 
    8d15:	eb 6e                	jmp    8d85 <func_2+0x33df>
    8d17:	c7 85 5c f1 ff ff 00 	movl   $0x0,-0xea4(%rbp)
    8d1e:	00 00 00 
    8d21:	eb 52                	jmp    8d75 <func_2+0x33cf>
    8d23:	c7 85 60 f1 ff ff 00 	movl   $0x0,-0xea0(%rbp)
    8d2a:	00 00 00 
    8d2d:	eb 36                	jmp    8d65 <func_2+0x33bf>
    8d2f:	8b 85 60 f1 ff ff    	mov    -0xea0(%rbp),%eax
    8d35:	48 63 c8             	movslq %eax,%rcx
    8d38:	8b 85 5c f1 ff ff    	mov    -0xea4(%rbp),%eax
    8d3e:	48 63 d0             	movslq %eax,%rdx
    8d41:	8b 85 58 f1 ff ff    	mov    -0xea8(%rbp),%eax
    8d47:	48 98                	cltq   
    8d49:	48 01 ca             	add    %rcx,%rdx
    8d4c:	48 01 d0             	add    %rdx,%rax
    8d4f:	48 8d 15 d2 0e 01 00 	lea    0x10ed2(%rip),%rdx        # 19c28 <g_99>
    8d56:	48 89 94 c5 00 fc ff 	mov    %rdx,-0x400(%rbp,%rax,8)
    8d5d:	ff 
    8d5e:	83 85 60 f1 ff ff 01 	addl   $0x1,-0xea0(%rbp)
    8d65:	83 bd 60 f1 ff ff 00 	cmpl   $0x0,-0xea0(%rbp)
    8d6c:	7e c1                	jle    8d2f <func_2+0x3389>
    8d6e:	83 85 5c f1 ff ff 01 	addl   $0x1,-0xea4(%rbp)
    8d75:	83 bd 5c f1 ff ff 00 	cmpl   $0x0,-0xea4(%rbp)
    8d7c:	7e a5                	jle    8d23 <func_2+0x337d>
    8d7e:	83 85 58 f1 ff ff 01 	addl   $0x1,-0xea8(%rbp)
    8d85:	83 bd 58 f1 ff ff 04 	cmpl   $0x4,-0xea8(%rbp)
    8d8c:	7e 89                	jle    8d17 <func_2+0x3371>
    8d8e:	48 83 ad f0 f2 ff ff 	subq   $0x1,-0xd10(%rbp)
    8d95:	01 
    8d96:	48 8b 05 43 08 01 00 	mov    0x10843(%rip),%rax        # 195e0 <g_1991>
    8d9d:	8b 08                	mov    (%rax),%ecx
    8d9f:	48 8b 85 e8 f2 ff ff 	mov    -0xd18(%rbp),%rax
    8da6:	8b 10                	mov    (%rax),%edx
    8da8:	48 8b 05 31 08 01 00 	mov    0x10831(%rip),%rax        # 195e0 <g_1991>
    8daf:	21 ca                	and    %ecx,%edx
    8db1:	89 10                	mov    %edx,(%rax)
    8db3:	0f b7 05 ee f2 00 00 	movzwl 0xf2ee(%rip),%eax        # 180a8 <g_801>
    8dba:	83 c0 01             	add    $0x1,%eax
    8dbd:	66 89 05 e4 f2 00 00 	mov    %ax,0xf2e4(%rip)        # 180a8 <g_801>
    8dc4:	0f b7 05 dd f2 00 00 	movzwl 0xf2dd(%rip),%eax        # 180a8 <g_801>
    8dcb:	66 83 f8 2c          	cmp    $0x2c,%ax
    8dcf:	0f 87 0a fa ff ff    	ja     87df <func_2+0x2e39>
    8dd5:	eb 01                	jmp    8dd8 <func_2+0x3432>
    8dd7:	90                   	nop
    8dd8:	0f b7 9d 00 f1 ff ff 	movzwl -0xf00(%rbp),%ebx
    8ddf:	48 8b 85 c0 f2 ff ff 	mov    -0xd40(%rbp),%rax
    8de6:	41 89 c4             	mov    %eax,%r12d
    8de9:	48 8b 05 f0 07 01 00 	mov    0x107f0(%rip),%rax        # 195e0 <g_1991>
    8df0:	48 8b 95 d8 f0 ff ff 	mov    -0xf28(%rbp),%rdx
    8df7:	8b 12                	mov    (%rdx),%edx
    8df9:	89 10                	mov    %edx,(%rax)
    8dfb:	48 8d 85 00 f2 ff ff 	lea    -0xe00(%rbp),%rax
    8e02:	48 89 85 70 f2 ff ff 	mov    %rax,-0xd90(%rbp)
    8e09:	8b 85 ec f0 ff ff    	mov    -0xf14(%rbp),%eax
    8e0f:	85 c0                	test   %eax,%eax
    8e11:	74 17                	je     8e2a <func_2+0x3484>
    8e13:	8b 85 ec f0 ff ff    	mov    -0xf14(%rbp),%eax
    8e19:	0f be c0             	movsbl %al,%eax
    8e1c:	be 00 00 00 00       	mov    $0x0,%esi
    8e21:	89 c7                	mov    %eax,%edi
    8e23:	e8 ea b3 ff ff       	callq  4212 <safe_mul_func_int8_t_s_s>
    8e28:	3c fa                	cmp    $0xfa,%al
    8e2a:	48 c7 05 ab 09 01 00 	movq   $0x0,0x109ab(%rip)        # 197e0 <g_3449>
    8e31:	00 00 00 00 
    8e35:	48 8b 05 a4 09 01 00 	mov    0x109a4(%rip),%rax        # 197e0 <g_3449>
    8e3c:	48 39 85 70 f2 ff ff 	cmp    %rax,-0xd90(%rbp)
    8e43:	0f 94 c0             	sete   %al
    8e46:	0f b6 c0             	movzbl %al,%eax
    8e49:	be fb b5 6e 80       	mov    $0x806eb5fb,%esi
    8e4e:	89 c7                	mov    %eax,%edi
    8e50:	e8 aa b8 ff ff       	callq  46ff <safe_div_func_int32_t_s_s>
    8e55:	0f be c0             	movsbl %al,%eax
    8e58:	44 89 e6             	mov    %r12d,%esi
    8e5b:	89 c7                	mov    %eax,%edi
    8e5d:	e8 0a b5 ff ff       	callq  436c <safe_rshift_func_int8_t_s_u>
    8e62:	c0 e8 07             	shr    $0x7,%al
    8e65:	0f b6 c0             	movzbl %al,%eax
    8e68:	48 89 de             	mov    %rbx,%rsi
    8e6b:	48 89 c7             	mov    %rax,%rdi
    8e6e:	e8 0d c2 ff ff       	callq  5080 <safe_mod_func_uint64_t_u_u>
    8e73:	48 85 c0             	test   %rax,%rax
    8e76:	74 07                	je     8e7f <func_2+0x34d9>
    8e78:	ba 01 00 00 00       	mov    $0x1,%edx
    8e7d:	eb 05                	jmp    8e84 <func_2+0x34de>
    8e7f:	ba 00 00 00 00       	mov    $0x0,%edx
    8e84:	48 8b 85 90 f2 ff ff 	mov    -0xd70(%rbp),%rax
    8e8b:	8b 00                	mov    (%rax),%eax
    8e8d:	09 c2                	or     %eax,%edx
    8e8f:	48 8b 85 90 f2 ff ff 	mov    -0xd70(%rbp),%rax
    8e96:	89 10                	mov    %edx,(%rax)
    8e98:	48 8b 85 90 f2 ff ff 	mov    -0xd70(%rbp),%rax
    8e9f:	8b 10                	mov    (%rax),%edx
    8ea1:	48 8b 85 d8 f0 ff ff 	mov    -0xf28(%rbp),%rax
    8ea8:	89 10                	mov    %edx,(%rax)
    8eaa:	48 8b 85 d8 f0 ff ff 	mov    -0xf28(%rbp),%rax
    8eb1:	8b 08                	mov    (%rax),%ecx
    8eb3:	48 8b 05 1e 07 01 00 	mov    0x1071e(%rip),%rax        # 195d8 <g_1900>
    8eba:	8b 10                	mov    (%rax),%edx
    8ebc:	48 8b 05 15 07 01 00 	mov    0x10715(%rip),%rax        # 195d8 <g_1900>
    8ec3:	21 ca                	and    %ecx,%edx
    8ec5:	89 10                	mov    %edx,(%rax)
    8ec7:	8b 05 7b f1 00 00    	mov    0xf17b(%rip),%eax        # 18048 <g_119>
    8ecd:	85 c0                	test   %eax,%eax
    8ecf:	74 05                	je     8ed6 <func_2+0x3530>
    8ed1:	e9 7f cd ff ff       	jmpq   5c55 <func_2+0x2af>
    8ed6:	48 8b 85 e0 f0 ff ff 	mov    -0xf20(%rbp),%rax
    8edd:	48 8b 4d c8          	mov    -0x38(%rbp),%rcx
    8ee1:	64 48 33 0c 25 28 00 	xor    %fs:0x28,%rcx
    8ee8:	00 00 
    8eea:	74 05                	je     8ef1 <func_2+0x354b>
    8eec:	e8 7f b1 ff ff       	callq  4070 <__stack_chk_fail@plt>
    8ef1:	48 81 c4 08 0f 00 00 	add    $0xf08,%rsp
    8ef8:	5b                   	pop    %rbx
    8ef9:	41 5c                	pop    %r12
    8efb:	41 5d                	pop    %r13
    8efd:	41 5e                	pop    %r14
    8eff:	41 5f                	pop    %r15
    8f01:	5d                   	pop    %rbp
    8f02:	c3                   	retq   

0000000000008f03 <func_11>:
    8f03:	f3 0f 1e fa          	endbr64 
    8f07:	55                   	push   %rbp
    8f08:	48 89 e5             	mov    %rsp,%rbp
    8f0b:	41 57                	push   %r15
    8f0d:	41 56                	push   %r14
    8f0f:	41 55                	push   %r13
    8f11:	41 54                	push   %r12
    8f13:	53                   	push   %rbx
    8f14:	48 81 ec 48 0d 00 00 	sub    $0xd48,%rsp
    8f1b:	89 f9                	mov    %edi,%ecx
    8f1d:	89 f0                	mov    %esi,%eax
    8f1f:	89 95 a4 f2 ff ff    	mov    %edx,-0xd5c(%rbp)
    8f25:	89 ca                	mov    %ecx,%edx
    8f27:	88 95 ac f2 ff ff    	mov    %dl,-0xd54(%rbp)
    8f2d:	66 89 85 a8 f2 ff ff 	mov    %ax,-0xd58(%rbp)
    8f34:	64 48 8b 04 25 28 00 	mov    %fs:0x28,%rax
    8f3b:	00 00 
    8f3d:	48 89 45 c8          	mov    %rax,-0x38(%rbp)
    8f41:	31 c0                	xor    %eax,%eax
    8f43:	48 8d 05 f6 f0 00 00 	lea    0xf0f6(%rip),%rax        # 18040 <g_94>
    8f4a:	48 89 85 40 f5 ff ff 	mov    %rax,-0xac0(%rbp)
    8f51:	48 8d 05 e8 f0 00 00 	lea    0xf0e8(%rip),%rax        # 18040 <g_94>
    8f58:	48 89 85 48 f5 ff ff 	mov    %rax,-0xab8(%rbp)
    8f5f:	48 8d 05 e2 f0 00 00 	lea    0xf0e2(%rip),%rax        # 18048 <g_119>
    8f66:	48 89 85 50 f5 ff ff 	mov    %rax,-0xab0(%rbp)
    8f6d:	48 8d 05 cc f0 00 00 	lea    0xf0cc(%rip),%rax        # 18040 <g_94>
    8f74:	48 89 85 58 f5 ff ff 	mov    %rax,-0xaa8(%rbp)
    8f7b:	48 8d 05 be f0 00 00 	lea    0xf0be(%rip),%rax        # 18040 <g_94>
    8f82:	48 89 85 60 f5 ff ff 	mov    %rax,-0xaa0(%rbp)
    8f89:	48 8d 05 b8 f0 00 00 	lea    0xf0b8(%rip),%rax        # 18048 <g_119>
    8f90:	48 89 85 68 f5 ff ff 	mov    %rax,-0xa98(%rbp)
    8f97:	48 8d 05 a2 f0 00 00 	lea    0xf0a2(%rip),%rax        # 18040 <g_94>
    8f9e:	48 89 85 70 f5 ff ff 	mov    %rax,-0xa90(%rbp)
    8fa5:	48 8d 05 94 f0 00 00 	lea    0xf094(%rip),%rax        # 18040 <g_94>
    8fac:	48 89 85 78 f5 ff ff 	mov    %rax,-0xa88(%rbp)
    8fb3:	48 8d 05 8e f0 00 00 	lea    0xf08e(%rip),%rax        # 18048 <g_119>
    8fba:	48 89 85 80 f5 ff ff 	mov    %rax,-0xa80(%rbp)
    8fc1:	48 8d 05 78 f0 00 00 	lea    0xf078(%rip),%rax        # 18040 <g_94>
    8fc8:	48 89 85 88 f5 ff ff 	mov    %rax,-0xa78(%rbp)
    8fcf:	48 8d 05 6a f0 00 00 	lea    0xf06a(%rip),%rax        # 18040 <g_94>
    8fd6:	48 89 85 90 f5 ff ff 	mov    %rax,-0xa70(%rbp)
    8fdd:	48 8d 05 64 f0 00 00 	lea    0xf064(%rip),%rax        # 18048 <g_119>
    8fe4:	48 89 85 98 f5 ff ff 	mov    %rax,-0xa68(%rbp)
    8feb:	48 8d 05 4e f0 00 00 	lea    0xf04e(%rip),%rax        # 18040 <g_94>
    8ff2:	48 89 85 a0 f5 ff ff 	mov    %rax,-0xa60(%rbp)
    8ff9:	48 c7 85 a8 f5 ff ff 	movq   $0x0,-0xa58(%rbp)
    9000:	00 00 00 00 
    9004:	48 8d 05 35 f0 00 00 	lea    0xf035(%rip),%rax        # 18040 <g_94>
    900b:	48 89 85 b0 f5 ff ff 	mov    %rax,-0xa50(%rbp)
    9012:	48 c7 85 b8 f5 ff ff 	movq   $0x0,-0xa48(%rbp)
    9019:	00 00 00 00 
    901d:	48 c7 85 c0 f5 ff ff 	movq   $0x0,-0xa40(%rbp)
    9024:	00 00 00 00 
    9028:	48 8d 05 11 f0 00 00 	lea    0xf011(%rip),%rax        # 18040 <g_94>
    902f:	48 89 85 c8 f5 ff ff 	mov    %rax,-0xa38(%rbp)
    9036:	48 8d 85 40 f5 ff ff 	lea    -0xac0(%rbp),%rax
    903d:	48 83 c0 68          	add    $0x68,%rax
    9041:	48 89 85 38 f3 ff ff 	mov    %rax,-0xcc8(%rbp)
    9048:	48 8d 85 38 f3 ff ff 	lea    -0xcc8(%rbp),%rax
    904f:	48 89 85 40 f3 ff ff 	mov    %rax,-0xcc0(%rbp)
    9056:	c7 85 ec f2 ff ff 90 	movl   $0xd2074590,-0xd14(%rbp)
    905d:	45 07 d2 
    9060:	c7 85 f0 f2 ff ff 00 	movl   $0x0,-0xd10(%rbp)
    9067:	00 00 00 
    906a:	48 8d 05 bf 05 01 00 	lea    0x105bf(%rip),%rax        # 19630 <g_2479>
    9071:	48 89 85 90 f3 ff ff 	mov    %rax,-0xc70(%rbp)
    9078:	48 c7 85 80 f3 ff ff 	movq   $0x1,-0xc80(%rbp)
    907f:	01 00 00 00 
    9083:	48 c7 85 48 f3 ff ff 	movq   $0x0,-0xcb8(%rbp)
    908a:	00 00 00 00 
    908e:	48 c7 85 88 f3 ff ff 	movq   $0x1,-0xc78(%rbp)
    9095:	01 00 00 00 
    9099:	48 8d 05 80 02 01 00 	lea    0x10280(%rip),%rax        # 19320 <g_695>
    90a0:	48 89 85 98 f3 ff ff 	mov    %rax,-0xc68(%rbp)
    90a7:	c7 85 52 f4 ff ff ff 	movl   $0xfffaffff,-0xbae(%rbp)
    90ae:	ff fa ff 
    90b1:	66 c7 85 56 f4 ff ff 	movw   $0xfaff,-0xbaa(%rbp)
    90b8:	ff fa 
    90ba:	c6 85 58 f4 ff ff ff 	movb   $0xff,-0xba8(%rbp)
    90c1:	c7 85 59 f4 ff ff 08 	movl   $0x8909008,-0xba7(%rbp)
    90c8:	90 90 08 
    90cb:	66 c7 85 5d f4 ff ff 	movw   $0x9090,-0xba3(%rbp)
    90d2:	90 90 
    90d4:	c6 85 5f f4 ff ff 08 	movb   $0x8,-0xba1(%rbp)
    90db:	48 c7 85 80 f4 ff ff 	movq   $0x0,-0xb80(%rbp)
    90e2:	00 00 00 00 
    90e6:	48 8d 05 93 ef 00 00 	lea    0xef93(%rip),%rax        # 18080 <g_257>
    90ed:	48 89 85 88 f4 ff ff 	mov    %rax,-0xb78(%rbp)
    90f4:	48 c7 85 90 f4 ff ff 	movq   $0x0,-0xb70(%rbp)
    90fb:	00 00 00 00 
    90ff:	48 c7 85 98 f4 ff ff 	movq   $0x0,-0xb68(%rbp)
    9106:	00 00 00 00 
    910a:	48 8d 05 6f ef 00 00 	lea    0xef6f(%rip),%rax        # 18080 <g_257>
    9111:	48 89 85 a0 f4 ff ff 	mov    %rax,-0xb60(%rbp)
    9118:	48 c7 85 a8 f4 ff ff 	movq   $0x0,-0xb58(%rbp)
    911f:	00 00 00 00 
    9123:	48 c7 85 b0 f4 ff ff 	movq   $0x0,-0xb50(%rbp)
    912a:	00 00 00 00 
    912e:	48 8d 05 4b ef 00 00 	lea    0xef4b(%rip),%rax        # 18080 <g_257>
    9135:	48 89 85 b8 f4 ff ff 	mov    %rax,-0xb48(%rbp)
    913c:	48 8d 05 25 0b 01 00 	lea    0x10b25(%rip),%rax        # 19c68 <g_2081>
    9143:	48 89 85 a0 f3 ff ff 	mov    %rax,-0xc60(%rbp)
    914a:	c7 85 d0 f2 ff ff 00 	movl   $0x0,-0xd30(%rbp)
    9151:	00 00 00 
    9154:	eb 72                	jmp    91c8 <func_11+0x2c5>
    9156:	c7 85 d4 f2 ff ff 00 	movl   $0x0,-0xd2c(%rbp)
    915d:	00 00 00 
    9160:	eb 56                	jmp    91b8 <func_11+0x2b5>
    9162:	c7 85 d8 f2 ff ff 00 	movl   $0x0,-0xd28(%rbp)
    9169:	00 00 00 
    916c:	eb 3a                	jmp    91a8 <func_11+0x2a5>
    916e:	8b 85 d8 f2 ff ff    	mov    -0xd28(%rbp),%eax
    9174:	48 98                	cltq   
    9176:	8b 95 d0 f2 ff ff    	mov    -0xd30(%rbp),%edx
    917c:	48 63 ca             	movslq %edx,%rcx
    917f:	8b 95 d4 f2 ff ff    	mov    -0xd2c(%rbp),%edx
    9185:	48 63 d2             	movslq %edx,%rdx
    9188:	48 01 c9             	add    %rcx,%rcx
    918b:	48 01 ca             	add    %rcx,%rdx
    918e:	48 c1 e2 02          	shl    $0x2,%rdx
    9192:	48 01 d0             	add    %rdx,%rax
    9195:	48 c7 84 c5 b0 f7 ff 	movq   $0x0,-0x850(%rbp,%rax,8)
    919c:	ff 00 00 00 00 
    91a1:	83 85 d8 f2 ff ff 01 	addl   $0x1,-0xd28(%rbp)
    91a8:	83 bd d8 f2 ff ff 03 	cmpl   $0x3,-0xd28(%rbp)
    91af:	7e bd                	jle    916e <func_11+0x26b>
    91b1:	83 85 d4 f2 ff ff 01 	addl   $0x1,-0xd2c(%rbp)
    91b8:	83 bd d4 f2 ff ff 01 	cmpl   $0x1,-0xd2c(%rbp)
    91bf:	7e a1                	jle    9162 <func_11+0x25f>
    91c1:	83 85 d0 f2 ff ff 01 	addl   $0x1,-0xd30(%rbp)
    91c8:	83 bd d0 f2 ff ff 05 	cmpl   $0x5,-0xd30(%rbp)
    91cf:	7e 85                	jle    9156 <func_11+0x253>
    91d1:	90                   	nop
    91d2:	8b 85 a4 f2 ff ff    	mov    -0xd5c(%rbp),%eax
    91d8:	89 c7                	mov    %eax,%edi
    91da:	e8 3a 31 00 00       	callq  c319 <func_16>
    91df:	48 89 85 98 f8 ff ff 	mov    %rax,-0x768(%rbp)
    91e6:	80 bd ac f2 ff ff 00 	cmpb   $0x0,-0xd54(%rbp)
    91ed:	0f 84 db 01 00 00    	je     93ce <func_11+0x4cb>
    91f3:	66 c7 85 c8 f2 ff ff 	movw   $0xffff,-0xd38(%rbp)
    91fa:	ff ff 
    91fc:	48 8d 05 c5 ee 00 00 	lea    0xeec5(%rip),%rax        # 180c8 <g_1185>
    9203:	48 89 85 d8 f3 ff ff 	mov    %rax,-0xc28(%rbp)
    920a:	48 8d 05 2f ee 00 00 	lea    0xee2f(%rip),%rax        # 18040 <g_94>
    9211:	48 89 85 e0 f3 ff ff 	mov    %rax,-0xc20(%rbp)
    9218:	c7 85 30 f9 ff ff 05 	movl   $0x5,-0x6d0(%rbp)
    921f:	00 00 00 
    9222:	c7 85 34 f9 ff ff 05 	movl   $0x5,-0x6cc(%rbp)
    9229:	00 00 00 
    922c:	c7 85 38 f9 ff ff 05 	movl   $0x5,-0x6c8(%rbp)
    9233:	00 00 00 
    9236:	c7 85 3c f9 ff ff 05 	movl   $0x5,-0x6c4(%rbp)
    923d:	00 00 00 
    9240:	c7 85 40 f9 ff ff 05 	movl   $0x5,-0x6c0(%rbp)
    9247:	00 00 00 
    924a:	c7 85 44 f9 ff ff 05 	movl   $0x5,-0x6bc(%rbp)
    9251:	00 00 00 
    9254:	c6 85 c1 f2 ff ff a9 	movb   $0xa9,-0xd3f(%rbp)
    925b:	48 8d 85 40 f3 ff ff 	lea    -0xcc0(%rbp),%rax
    9262:	48 89 85 e8 f3 ff ff 	mov    %rax,-0xc18(%rbp)
    9269:	0f b7 85 a8 f2 ff ff 	movzwl -0xd58(%rbp),%eax
    9270:	0f be d8             	movsbl %al,%ebx
    9273:	48 83 bd e0 f3 ff ff 	cmpq   $0x0,-0xc20(%rbp)
    927a:	00 
    927b:	0f 94 c0             	sete   %al
    927e:	0f b6 c0             	movzbl %al,%eax
    9281:	be 00 00 00 00       	mov    $0x0,%esi
    9286:	89 c7                	mov    %eax,%edi
    9288:	e8 54 b2 ff ff       	callq  44e1 <safe_lshift_func_int16_t_s_u>
    928d:	48 8b 05 44 01 01 00 	mov    0x10144(%rip),%rax        # 193d8 <g_970>
    9294:	48 8b 00             	mov    (%rax),%rax
    9297:	48 8b 00             	mov    (%rax),%rax
    929a:	48 b9 b6 06 59 c4 2f 	movabs $0x36b4052fc45906b6,%rcx
    92a1:	05 b4 36 
    92a4:	48 89 08             	mov    %rcx,(%rax)
    92a7:	48 8b 10             	mov    (%rax),%rdx
    92aa:	48 8b 85 d8 f3 ff ff 	mov    -0xc28(%rbp),%rax
    92b1:	48 8b 00             	mov    (%rax),%rax
    92b4:	48 31 c2             	xor    %rax,%rdx
    92b7:	48 8b 85 d8 f3 ff ff 	mov    -0xc28(%rbp),%rax
    92be:	48 89 10             	mov    %rdx,(%rax)
    92c1:	48 8b 85 d8 f3 ff ff 	mov    -0xc28(%rbp),%rax
    92c8:	48 8b 10             	mov    (%rax),%rdx
    92cb:	8b 85 a4 f2 ff ff    	mov    -0xd5c(%rbp),%eax
    92d1:	48 98                	cltq   
    92d3:	48 39 c2             	cmp    %rax,%rdx
    92d6:	0f 9c c2             	setl   %dl
    92d9:	48 8b 05 38 00 01 00 	mov    0x10038(%rip),%rax        # 19318 <g_412>
    92e0:	0f b6 d2             	movzbl %dl,%edx
    92e3:	66 89 10             	mov    %dx,(%rax)
    92e6:	0f b7 00             	movzwl (%rax),%eax
    92e9:	0f b7 c0             	movzwl %ax,%eax
    92ec:	66 83 bd c8 f2 ff ff 	cmpw   $0x0,-0xd38(%rbp)
    92f3:	00 
    92f4:	0f 94 c2             	sete   %dl
    92f7:	0f b6 ca             	movzbl %dl,%ecx
    92fa:	0f b6 95 c1 f2 ff ff 	movzbl -0xd3f(%rbp),%edx
    9301:	31 ca                	xor    %ecx,%edx
    9303:	48 63 d2             	movslq %edx,%rdx
    9306:	81 e2 87 2b 68 07    	and    $0x7682b87,%edx
    930c:	48 39 d0             	cmp    %rdx,%rax
    930f:	0f 9d c0             	setge  %al
    9312:	0f b6 c0             	movzbl %al,%eax
    9315:	89 de                	mov    %ebx,%esi
    9317:	89 c7                	mov    %eax,%edi
    9319:	e8 f4 ae ff ff       	callq  4212 <safe_mul_func_int8_t_s_s>
    931e:	0f be c0             	movsbl %al,%eax
    9321:	39 85 a4 f2 ff ff    	cmp    %eax,-0xd5c(%rbp)
    9327:	0f 95 c0             	setne  %al
    932a:	0f b6 c0             	movzbl %al,%eax
    932d:	be 06 00 00 00       	mov    $0x6,%esi
    9332:	89 c7                	mov    %eax,%edi
    9334:	e8 cc b8 ff ff       	callq  4c05 <safe_lshift_func_uint8_t_u_s>
    9339:	84 c0                	test   %al,%al
    933b:	75 09                	jne    9346 <func_11+0x443>
    933d:	80 bd ac f2 ff ff 00 	cmpb   $0x0,-0xd54(%rbp)
    9344:	74 07                	je     934d <func_11+0x44a>
    9346:	b8 01 00 00 00       	mov    $0x1,%eax
    934b:	eb 05                	jmp    9352 <func_11+0x44f>
    934d:	b8 00 00 00 00       	mov    $0x0,%eax
    9352:	0f b7 c0             	movzwl %ax,%eax
    9355:	be 0f 00 00 00       	mov    $0xf,%esi
    935a:	89 c7                	mov    %eax,%edi
    935c:	e8 a5 ba ff ff       	callq  4e06 <safe_lshift_func_uint16_t_u_u>
    9361:	0f b7 95 c8 f2 ff ff 	movzwl -0xd38(%rbp),%edx
    9368:	0f b7 85 c8 f2 ff ff 	movzwl -0xd38(%rbp),%eax
    936f:	89 d6                	mov    %edx,%esi
    9371:	89 c7                	mov    %eax,%edi
    9373:	e8 c5 b9 ff ff       	callq  4d3d <safe_mul_func_uint16_t_u_u>
    9378:	0f b7 c0             	movzwl %ax,%eax
    937b:	48 be 6c ff e2 9d 9e 	movabs $0xb083bf9e9de2ff6c,%rsi
    9382:	bf 83 b0 
    9385:	48 89 c7             	mov    %rax,%rdi
    9388:	e8 27 b6 ff ff       	callq  49b4 <safe_mod_func_int64_t_s_s>
    938d:	48 8b 95 40 f3 ff ff 	mov    -0xcc0(%rbp),%rdx
    9394:	48 8b 85 e8 f3 ff ff 	mov    -0xc18(%rbp),%rax
    939b:	48 89 10             	mov    %rdx,(%rax)
    939e:	48 8b 85 e8 f3 ff ff 	mov    -0xc18(%rbp),%rax
    93a5:	48 8b 10             	mov    (%rax),%rdx
    93a8:	48 8d 85 38 f3 ff ff 	lea    -0xcc8(%rbp),%rax
    93af:	48 39 c2             	cmp    %rax,%rdx
    93b2:	0f 94 c2             	sete   %dl
    93b5:	48 8b 05 1c 02 01 00 	mov    0x1021c(%rip),%rax        # 195d8 <g_1900>
    93bc:	0f b6 d2             	movzbl %dl,%edx
    93bf:	89 10                	mov    %edx,(%rax)
    93c1:	8b 00                	mov    (%rax),%eax
    93c3:	21 85 ec f2 ff ff    	and    %eax,-0xd14(%rbp)
    93c9:	e9 8a 14 00 00       	jmpq   a858 <func_11+0x1955>
    93ce:	c7 85 dc f2 ff ff fa 	movl   $0xfffffffa,-0xd24(%rbp)
    93d5:	ff ff ff 
    93d8:	c7 85 68 f3 ff ff 80 	movl   $0x6d625280,-0xc98(%rbp)
    93df:	52 62 6d 
    93e2:	c7 85 f4 f2 ff ff f9 	movl   $0xfffffff9,-0xd0c(%rbp)
    93e9:	ff ff ff 
    93ec:	c7 85 e0 f2 ff ff 35 	movl   $0x4076eb35,-0xd20(%rbp)
    93f3:	eb 76 40 
    93f6:	c7 85 e4 f2 ff ff 00 	movl   $0x0,-0xd1c(%rbp)
    93fd:	00 00 00 
    9400:	eb 1e                	jmp    9420 <func_11+0x51d>
    9402:	8b 85 e4 f2 ff ff    	mov    -0xd1c(%rbp),%eax
    9408:	48 98                	cltq   
    940a:	48 8d 15 b7 01 01 00 	lea    0x101b7(%rip),%rdx        # 195c8 <g_1767>
    9411:	48 89 94 c5 60 f4 ff 	mov    %rdx,-0xba0(%rbp,%rax,8)
    9418:	ff 
    9419:	83 85 e4 f2 ff ff 01 	addl   $0x1,-0xd1c(%rbp)
    9420:	83 bd e4 f2 ff ff 02 	cmpl   $0x2,-0xd1c(%rbp)
    9427:	7e d9                	jle    9402 <func_11+0x4ff>
    9429:	83 85 e0 f2 ff ff 01 	addl   $0x1,-0xd20(%rbp)
    9430:	c7 85 e0 f2 ff ff 03 	movl   $0x3,-0xd20(%rbp)
    9437:	00 00 00 
    943a:	e9 0c 14 00 00       	jmpq   a84b <func_11+0x1948>
    943f:	c7 85 70 f3 ff ff 6f 	movl   $0x3f6a4a6f,-0xc90(%rbp)
    9446:	4a 6a 3f 
    9449:	48 c7 85 a8 f3 ff ff 	movq   $0x2,-0xc58(%rbp)
    9450:	02 00 00 00 
    9454:	48 8d 85 70 f6 ff ff 	lea    -0x990(%rbp),%rax
    945b:	48 8d 15 9e ef 00 00 	lea    0xef9e(%rip),%rdx        # 18400 <g_3304+0x218>
    9462:	b9 28 00 00 00       	mov    $0x28,%ecx
    9467:	48 89 c7             	mov    %rax,%rdi
    946a:	48 89 d6             	mov    %rdx,%rsi
    946d:	f3 48 a5             	rep movsq %ds:(%rsi),%es:(%rdi)
    9470:	c7 85 f8 f2 ff ff 01 	movl   $0x1,-0xd08(%rbp)
    9477:	00 00 00 
    947a:	c7 85 fc f2 ff ff ff 	movl   $0xffffffff,-0xd04(%rbp)
    9481:	ff ff ff 
    9484:	c7 85 00 f3 ff ff c1 	movl   $0xcd1663c1,-0xd00(%rbp)
    948b:	63 16 cd 
    948e:	c7 85 04 f3 ff ff 06 	movl   $0x6,-0xcfc(%rbp)
    9495:	00 00 00 
    9498:	c7 85 dc f2 ff ff 0f 	movl   $0xf,-0xd24(%rbp)
    949f:	00 00 00 
    94a2:	e9 5a 13 00 00       	jmpq   a801 <func_11+0x18fe>
    94a7:	c7 85 08 f3 ff ff 1b 	movl   $0x6c74c21b,-0xcf8(%rbp)
    94ae:	c2 74 6c 
    94b1:	c6 85 be f2 ff ff ba 	movb   $0xba,-0xd42(%rbp)
    94b8:	c6 85 bf f2 ff ff fa 	movb   $0xfa,-0xd41(%rbp)
    94bf:	48 8d 05 82 07 01 00 	lea    0x10782(%rip),%rax        # 19c48 <g_505+0x8>
    94c6:	48 89 85 78 f3 ff ff 	mov    %rax,-0xc88(%rbp)
    94cd:	48 8d 85 68 f3 ff ff 	lea    -0xc98(%rbp),%rax
    94d4:	48 89 85 b0 f3 ff ff 	mov    %rax,-0xc50(%rbp)
    94db:	c7 85 0c f3 ff ff 29 	movl   $0x5e73729,-0xcf4(%rbp)
    94e2:	37 e7 05 
    94e5:	c7 85 10 f3 ff ff ff 	movl   $0xffffffff,-0xcf0(%rbp)
    94ec:	ff ff ff 
    94ef:	48 c7 05 56 eb 00 00 	movq   $0x8,0xeb56(%rip)        # 18050 <g_153>
    94f6:	08 00 00 00 
    94fa:	e9 d3 12 00 00       	jmpq   a7d2 <func_11+0x18cf>
    94ff:	c7 85 14 f3 ff ff 00 	movl   $0x0,-0xcec(%rbp)
    9506:	00 00 00 
    9509:	48 c7 85 c0 f4 ff ff 	movq   $0x0,-0xb40(%rbp)
    9510:	00 00 00 00 
    9514:	48 8d 85 70 f3 ff ff 	lea    -0xc90(%rbp),%rax
    951b:	48 89 85 c8 f4 ff ff 	mov    %rax,-0xb38(%rbp)
    9522:	48 c7 85 d0 f4 ff ff 	movq   $0x0,-0xb30(%rbp)
    9529:	00 00 00 00 
    952d:	48 8d 05 ec eb 00 00 	lea    0xebec(%rip),%rax        # 18120 <g_2253>
    9534:	48 89 85 d8 f4 ff ff 	mov    %rax,-0xb28(%rbp)
    953b:	48 8d 05 de eb 00 00 	lea    0xebde(%rip),%rax        # 18120 <g_2253>
    9542:	48 89 85 e0 f4 ff ff 	mov    %rax,-0xb20(%rbp)
    9549:	48 c7 85 e8 f4 ff ff 	movq   $0x0,-0xb18(%rbp)
    9550:	00 00 00 00 
    9554:	48 8d 05 c5 eb 00 00 	lea    0xebc5(%rip),%rax        # 18120 <g_2253>
    955b:	48 89 85 f0 f4 ff ff 	mov    %rax,-0xb10(%rbp)
    9562:	48 8d 05 b7 eb 00 00 	lea    0xebb7(%rip),%rax        # 18120 <g_2253>
    9569:	48 89 85 f8 f4 ff ff 	mov    %rax,-0xb08(%rbp)
    9570:	48 8d 05 a9 eb 00 00 	lea    0xeba9(%rip),%rax        # 18120 <g_2253>
    9577:	48 89 85 00 f5 ff ff 	mov    %rax,-0xb00(%rbp)
    957e:	48 c7 85 08 f5 ff ff 	movq   $0x0,-0xaf8(%rbp)
    9585:	00 00 00 00 
    9589:	48 8d 05 90 eb 00 00 	lea    0xeb90(%rip),%rax        # 18120 <g_2253>
    9590:	48 89 85 10 f5 ff ff 	mov    %rax,-0xaf0(%rbp)
    9597:	48 8d 05 82 eb 00 00 	lea    0xeb82(%rip),%rax        # 18120 <g_2253>
    959e:	48 89 85 18 f5 ff ff 	mov    %rax,-0xae8(%rbp)
    95a5:	48 8d 05 74 eb 00 00 	lea    0xeb74(%rip),%rax        # 18120 <g_2253>
    95ac:	48 89 85 20 f5 ff ff 	mov    %rax,-0xae0(%rbp)
    95b3:	48 8d 85 70 f3 ff ff 	lea    -0xc90(%rbp),%rax
    95ba:	48 89 85 28 f5 ff ff 	mov    %rax,-0xad8(%rbp)
    95c1:	48 c7 85 30 f5 ff ff 	movq   $0x0,-0xad0(%rbp)
    95c8:	00 00 00 00 
    95cc:	c7 85 18 f3 ff ff 36 	movl   $0x6d8aa936,-0xce8(%rbp)
    95d3:	a9 8a 6d 
    95d6:	c7 85 d0 f5 ff ff dc 	movl   $0xed0b3bdc,-0xa30(%rbp)
    95dd:	3b 0b ed 
    95e0:	c7 85 d4 f5 ff ff 01 	movl   $0x1,-0xa2c(%rbp)
    95e7:	00 00 00 
    95ea:	c7 85 d8 f5 ff ff dc 	movl   $0xed0b3bdc,-0xa28(%rbp)
    95f1:	3b 0b ed 
    95f4:	c7 85 dc f5 ff ff 85 	movl   $0x7762e485,-0xa24(%rbp)
    95fb:	e4 62 77 
    95fe:	c7 85 e0 f5 ff ff 85 	movl   $0x7762e485,-0xa20(%rbp)
    9605:	e4 62 77 
    9608:	c7 85 e4 f5 ff ff dc 	movl   $0xed0b3bdc,-0xa1c(%rbp)
    960f:	3b 0b ed 
    9612:	c7 85 e8 f5 ff ff 01 	movl   $0x1,-0xa18(%rbp)
    9619:	00 00 00 
    961c:	c7 85 ec f5 ff ff dc 	movl   $0xed0b3bdc,-0xa14(%rbp)
    9623:	3b 0b ed 
    9626:	c7 85 f0 f5 ff ff 07 	movl   $0x7,-0xa10(%rbp)
    962d:	00 00 00 
    9630:	c7 85 f4 f5 ff ff 85 	movl   $0x7762e485,-0xa0c(%rbp)
    9637:	e4 62 77 
    963a:	c7 85 f8 f5 ff ff 91 	movl   $0xa59f7291,-0xa08(%rbp)
    9641:	72 9f a5 
    9644:	c7 85 fc f5 ff ff 85 	movl   $0x7762e485,-0xa04(%rbp)
    964b:	e4 62 77 
    964e:	c7 85 00 f6 ff ff 07 	movl   $0x7,-0xa00(%rbp)
    9655:	00 00 00 
    9658:	c7 85 04 f6 ff ff 07 	movl   $0x7,-0x9fc(%rbp)
    965f:	00 00 00 
    9662:	c7 85 08 f6 ff ff 85 	movl   $0x7762e485,-0x9f8(%rbp)
    9669:	e4 62 77 
    966c:	c7 85 0c f6 ff ff 91 	movl   $0xa59f7291,-0x9f4(%rbp)
    9673:	72 9f a5 
    9676:	c7 85 10 f6 ff ff 07 	movl   $0x7,-0x9f0(%rbp)
    967d:	00 00 00 
    9680:	c7 85 14 f6 ff ff 07 	movl   $0x7,-0x9ec(%rbp)
    9687:	00 00 00 
    968a:	c7 85 18 f6 ff ff 85 	movl   $0x7762e485,-0x9e8(%rbp)
    9691:	e4 62 77 
    9694:	c7 85 1c f6 ff ff 91 	movl   $0xa59f7291,-0x9e4(%rbp)
    969b:	72 9f a5 
    969e:	c7 85 20 f6 ff ff 85 	movl   $0x7762e485,-0x9e0(%rbp)
    96a5:	e4 62 77 
    96a8:	c7 85 24 f6 ff ff 07 	movl   $0x7,-0x9dc(%rbp)
    96af:	00 00 00 
    96b2:	c7 85 28 f6 ff ff 07 	movl   $0x7,-0x9d8(%rbp)
    96b9:	00 00 00 
    96bc:	c7 85 2c f6 ff ff 85 	movl   $0x7762e485,-0x9d4(%rbp)
    96c3:	e4 62 77 
    96c6:	c7 85 30 f6 ff ff dc 	movl   $0xed0b3bdc,-0x9d0(%rbp)
    96cd:	3b 0b ed 
    96d0:	c7 85 34 f6 ff ff 85 	movl   $0x7762e485,-0x9cc(%rbp)
    96d7:	e4 62 77 
    96da:	c7 85 38 f6 ff ff 85 	movl   $0x7762e485,-0x9c8(%rbp)
    96e1:	e4 62 77 
    96e4:	c7 85 3c f6 ff ff dc 	movl   $0xed0b3bdc,-0x9c4(%rbp)
    96eb:	3b 0b ed 
    96ee:	c7 85 40 f6 ff ff 01 	movl   $0x1,-0x9c0(%rbp)
    96f5:	00 00 00 
    96f8:	c7 85 44 f6 ff ff dc 	movl   $0xed0b3bdc,-0x9bc(%rbp)
    96ff:	3b 0b ed 
    9702:	c7 85 48 f6 ff ff 85 	movl   $0x7762e485,-0x9b8(%rbp)
    9709:	e4 62 77 
    970c:	c7 85 4c f6 ff ff 85 	movl   $0x7762e485,-0x9b4(%rbp)
    9713:	e4 62 77 
    9716:	c7 85 50 f6 ff ff 85 	movl   $0x7762e485,-0x9b0(%rbp)
    971d:	e4 62 77 
    9720:	c7 85 54 f6 ff ff 01 	movl   $0x1,-0x9ac(%rbp)
    9727:	00 00 00 
    972a:	c7 85 58 f6 ff ff 91 	movl   $0xa59f7291,-0x9a8(%rbp)
    9731:	72 9f a5 
    9734:	c7 85 5c f6 ff ff 91 	movl   $0xa59f7291,-0x9a4(%rbp)
    973b:	72 9f a5 
    973e:	c7 85 60 f6 ff ff 01 	movl   $0x1,-0x9a0(%rbp)
    9745:	00 00 00 
    9748:	c7 85 64 f6 ff ff 85 	movl   $0x7762e485,-0x99c(%rbp)
    974f:	e4 62 77 
    9752:	c7 85 68 f6 ff ff 01 	movl   $0x1,-0x998(%rbp)
    9759:	00 00 00 
    975c:	c7 85 6c f6 ff ff 91 	movl   $0xa59f7291,-0x994(%rbp)
    9763:	72 9f a5 
    9766:	83 bd f4 f2 ff ff 00 	cmpl   $0x0,-0xd0c(%rbp)
    976d:	0f 85 72 10 00 00    	jne    a7e5 <func_11+0x18e2>
    9773:	8b 05 ab e9 00 00    	mov    0xe9ab(%rip),%eax        # 18124 <g_2443>
    9779:	89 c3                	mov    %eax,%ebx
    977b:	48 8b 05 4e fc 00 00 	mov    0xfc4e(%rip),%rax        # 193d0 <g_966>
    9782:	48 8b 00             	mov    (%rax),%rax
    9785:	48 8b 00             	mov    (%rax),%rax
    9788:	48 8b 00             	mov    (%rax),%rax
    978b:	41 89 c5             	mov    %eax,%r13d
    978e:	48 8b 85 a8 f3 ff ff 	mov    -0xc58(%rbp),%rax
    9795:	41 89 c4             	mov    %eax,%r12d
    9798:	0f b7 85 a8 f2 ff ff 	movzwl -0xd58(%rbp),%eax
    979f:	0f b7 c0             	movzwl %ax,%eax
    97a2:	be 06 00 00 00       	mov    $0x6,%esi
    97a7:	89 c7                	mov    %eax,%edi
    97a9:	e8 cc b6 ff ff       	callq  4e7a <safe_rshift_func_uint16_t_u_u>
    97ae:	8b 85 14 f3 ff ff    	mov    -0xcec(%rbp),%eax
    97b4:	0f be c0             	movsbl %al,%eax
    97b7:	be 04 00 00 00       	mov    $0x4,%esi
    97bc:	89 c7                	mov    %eax,%edi
    97be:	e8 72 ab ff ff       	callq  4335 <safe_rshift_func_int8_t_s_s>
    97c3:	8b 85 70 f3 ff ff    	mov    -0xc90(%rbp),%eax
    97c9:	89 c1                	mov    %eax,%ecx
    97cb:	0f b6 85 ac f2 ff ff 	movzbl -0xd54(%rbp),%eax
    97d2:	88 85 be f2 ff ff    	mov    %al,-0xd42(%rbp)
    97d8:	48 8b 05 21 fc 00 00 	mov    0xfc21(%rip),%rax        # 19400 <g_1292>
    97df:	48 8b 00             	mov    (%rax),%rax
    97e2:	48 8b 00             	mov    (%rax),%rax
    97e5:	0f be 95 be f2 ff ff 	movsbl -0xd42(%rbp),%edx
    97ec:	89 10                	mov    %edx,(%rax)
    97ee:	89 ce                	mov    %ecx,%esi
    97f0:	bf 01 00 00 00       	mov    $0x1,%edi
    97f5:	e8 a7 aa ff ff       	callq  42a1 <safe_lshift_func_int8_t_s_s>
    97fa:	66 98                	cbtw   
    97fc:	0f b7 d0             	movzwl %ax,%edx
    97ff:	8b 85 e0 f2 ff ff    	mov    -0xd20(%rbp),%eax
    9805:	0f b7 c0             	movzwl %ax,%eax
    9808:	89 d6                	mov    %edx,%esi
    980a:	89 c7                	mov    %eax,%edi
    980c:	e8 2c b5 ff ff       	callq  4d3d <safe_mul_func_uint16_t_u_u>
    9811:	48 c7 c6 ff ff ff ff 	mov    $0xffffffffffffffff,%rsi
    9818:	bf 00 00 00 00       	mov    $0x0,%edi
    981d:	e8 29 b8 ff ff       	callq  504b <safe_sub_func_uint64_t_u_u>
    9822:	be ff ff ff ff       	mov    $0xffffffff,%esi
    9827:	89 c7                	mov    %eax,%edi
    9829:	e8 d7 ad ff ff       	callq  4605 <safe_sub_func_int32_t_s_s>
    982e:	89 85 08 f3 ff ff    	mov    %eax,-0xcf8(%rbp)
    9834:	44 89 e6             	mov    %r12d,%esi
    9837:	bf 01 00 00 00       	mov    $0x1,%edi
    983c:	e8 22 ad ff ff       	callq  4563 <safe_rshift_func_int16_t_s_u>
    9841:	98                   	cwtl   
    9842:	f7 d0                	not    %eax
    9844:	89 c2                	mov    %eax,%edx
    9846:	0f be 85 bf f2 ff ff 	movsbl -0xd41(%rbp),%eax
    984d:	21 c2                	and    %eax,%edx
    984f:	0f bf 85 a8 f2 ff ff 	movswl -0xd58(%rbp),%eax
    9856:	39 c2                	cmp    %eax,%edx
    9858:	0f 9d c0             	setge  %al
    985b:	0f b6 c0             	movzbl %al,%eax
    985e:	89 c6                	mov    %eax,%esi
    9860:	bf 05 00 00 00       	mov    $0x5,%edi
    9865:	e8 9b ad ff ff       	callq  4605 <safe_sub_func_int32_t_s_s>
    986a:	44 09 e8             	or     %r13d,%eax
    986d:	0f b7 c0             	movzwl %ax,%eax
    9870:	89 de                	mov    %ebx,%esi
    9872:	89 c7                	mov    %eax,%edi
    9874:	e8 45 b5 ff ff       	callq  4dbe <safe_lshift_func_uint16_t_u_s>
    9879:	0f be c0             	movsbl %al,%eax
    987c:	be 01 00 00 00       	mov    $0x1,%esi
    9881:	89 c7                	mov    %eax,%edi
    9883:	e8 66 aa ff ff       	callq  42ee <safe_lshift_func_int8_t_s_u>
    9888:	48 0f be c0          	movsbq %al,%rax
    988c:	48 be ba b7 7a 23 da 	movabs $0x2ad75eda237ab7ba,%rsi
    9893:	5e d7 2a 
    9896:	48 89 c7             	mov    %rax,%rdi
    9899:	e8 16 b1 ff ff       	callq  49b4 <safe_mod_func_int64_t_s_s>
    989e:	48 85 c0             	test   %rax,%rax
    98a1:	0f 84 1f 02 00 00    	je     9ac6 <func_11+0xbc3>
    98a7:	66 c7 85 c6 f2 ff ff 	movw   $0xffff,-0xd3a(%rbp)
    98ae:	ff ff 
    98b0:	48 c7 85 b8 f3 ff ff 	movq   $0x0,-0xc48(%rbp)
    98b7:	00 00 00 00 
    98bb:	48 c7 85 c0 f3 ff ff 	movq   $0x0,-0xc40(%rbp)
    98c2:	00 00 00 00 
    98c6:	48 8d 05 b4 e7 00 00 	lea    0xe7b4(%rip),%rax        # 18081 <g_279>
    98cd:	48 89 85 c8 f3 ff ff 	mov    %rax,-0xc38(%rbp)
    98d4:	48 8d 05 51 03 01 00 	lea    0x10351(%rip),%rax        # 19c2c <g_115>
    98db:	48 89 85 d0 f3 ff ff 	mov    %rax,-0xc30(%rbp)
    98e2:	8b 05 3c e8 00 00    	mov    0xe83c(%rip),%eax        # 18124 <g_2443>
    98e8:	85 c0                	test   %eax,%eax
    98ea:	74 05                	je     98f1 <func_11+0x9ee>
    98ec:	e9 e1 f8 ff ff       	jmpq   91d2 <func_11+0x2cf>
    98f1:	83 bd a4 f2 ff ff 00 	cmpl   $0x0,-0xd5c(%rbp)
    98f8:	0f 85 b8 0e 00 00    	jne    a7b6 <func_11+0x18b3>
    98fe:	48 8b 05 2b e7 00 00 	mov    0xe72b(%rip),%rax        # 18030 <g_15>
    9905:	89 85 a0 f2 ff ff    	mov    %eax,-0xd60(%rbp)
    990b:	8b 85 a4 f2 ff ff    	mov    -0xd5c(%rbp),%eax
    9911:	0f bf d8             	movswl %ax,%ebx
    9914:	48 8b 05 35 e7 00 00 	mov    0xe735(%rip),%rax        # 18050 <g_153>
    991b:	48 85 c0             	test   %rax,%rax
    991e:	0f 85 32 01 00 00    	jne    9a56 <func_11+0xb53>
    9924:	66 0f be 85 ac f2 ff 	movsbw -0xd54(%rbp),%ax
    992b:	ff 
    992c:	0f b7 d0             	movzwl %ax,%edx
    992f:	66 0f be 85 bf f2 ff 	movsbw -0xd41(%rbp),%ax
    9936:	ff 
    9937:	0f b7 c0             	movzwl %ax,%eax
    993a:	89 d6                	mov    %edx,%esi
    993c:	89 c7                	mov    %eax,%edi
    993e:	e8 19 b4 ff ff       	callq  4d5c <safe_mod_func_uint16_t_u_u>
    9943:	0f b7 c0             	movzwl %ax,%eax
    9946:	89 85 9c f2 ff ff    	mov    %eax,-0xd64(%rbp)
    994c:	44 0f be a5 ac f2 ff 	movsbl -0xd54(%rbp),%r12d
    9953:	ff 
    9954:	48 8b 85 a8 f3 ff ff 	mov    -0xc58(%rbp),%rax
    995b:	44 0f b6 e8          	movzbl %al,%r13d
    995f:	48 8b 05 62 e7 00 00 	mov    0xe762(%rip),%rax        # 180c8 <g_1185>
    9966:	44 0f be f0          	movsbl %al,%r14d
    996a:	48 8b 05 9f fa 00 00 	mov    0xfa9f(%rip),%rax        # 19410 <g_1392>
    9971:	48 8b 00             	mov    (%rax),%rax
    9974:	0f b6 00             	movzbl (%rax),%eax
    9977:	44 0f be f8          	movsbl %al,%r15d
    997b:	48 8d 85 68 f3 ff ff 	lea    -0xc98(%rbp),%rax
    9982:	48 39 85 b8 f3 ff ff 	cmp    %rax,-0xc48(%rbp)
    9989:	0f 94 c0             	sete   %al
    998c:	0f b6 c0             	movzbl %al,%eax
    998f:	be 01 00 00 00       	mov    $0x1,%esi
    9994:	89 c7                	mov    %eax,%edi
    9996:	e8 bf b1 ff ff       	callq  4b5a <safe_add_func_uint8_t_u_u>
    999b:	0f b6 d0             	movzbl %al,%edx
    999e:	66 0f be 85 bf f2 ff 	movsbw -0xd41(%rbp),%ax
    99a5:	ff 
    99a6:	21 c2                	and    %eax,%edx
    99a8:	48 8b 05 69 f9 00 00 	mov    0xf969(%rip),%rax        # 19318 <g_412>
    99af:	66 89 10             	mov    %dx,(%rax)
    99b2:	0f b7 00             	movzwl (%rax),%eax
    99b5:	66 85 c0             	test   %ax,%ax
    99b8:	75 0a                	jne    99c4 <func_11+0xac1>
    99ba:	66 83 bd a8 f2 ff ff 	cmpw   $0x0,-0xd58(%rbp)
    99c1:	00 
    99c2:	74 07                	je     99cb <func_11+0xac8>
    99c4:	b8 01 00 00 00       	mov    $0x1,%eax
    99c9:	eb 05                	jmp    99d0 <func_11+0xacd>
    99cb:	b8 00 00 00 00       	mov    $0x0,%eax
    99d0:	0f be c0             	movsbl %al,%eax
    99d3:	44 89 fe             	mov    %r15d,%esi
    99d6:	89 c7                	mov    %eax,%edi
    99d8:	e8 58 a9 ff ff       	callq  4335 <safe_rshift_func_int8_t_s_s>
    99dd:	0f be c0             	movsbl %al,%eax
    99e0:	44 89 f6             	mov    %r14d,%esi
    99e3:	89 c7                	mov    %eax,%edi
    99e5:	e8 28 a8 ff ff       	callq  4212 <safe_mul_func_int8_t_s_s>
    99ea:	89 c2                	mov    %eax,%edx
    99ec:	48 8b 85 c8 f3 ff ff 	mov    -0xc38(%rbp),%rax
    99f3:	0f b6 00             	movzbl (%rax),%eax
    99f6:	09 c2                	or     %eax,%edx
    99f8:	48 8b 85 c8 f3 ff ff 	mov    -0xc38(%rbp),%rax
    99ff:	88 10                	mov    %dl,(%rax)
    9a01:	48 8b 85 c8 f3 ff ff 	mov    -0xc38(%rbp),%rax
    9a08:	0f b6 00             	movzbl (%rax),%eax
    9a0b:	84 c0                	test   %al,%al
    9a0d:	74 0a                	je     9a19 <func_11+0xb16>
    9a0f:	0f b7 05 92 e6 00 00 	movzwl 0xe692(%rip),%eax        # 180a8 <g_801>
    9a16:	66 85 c0             	test   %ax,%ax
    9a19:	44 89 ee             	mov    %r13d,%esi
    9a1c:	bf f5 00 00 00       	mov    $0xf5,%edi
    9a21:	e8 52 b1 ff ff       	callq  4b78 <safe_sub_func_uint8_t_u_u>
    9a26:	0f b6 c0             	movzbl %al,%eax
    9a29:	39 85 a4 f2 ff ff    	cmp    %eax,-0xd5c(%rbp)
    9a2f:	0f 95 c0             	setne  %al
    9a32:	0f b6 c0             	movzbl %al,%eax
    9a35:	44 89 e6             	mov    %r12d,%esi
    9a38:	89 c7                	mov    %eax,%edi
    9a3a:	e8 e6 b4 ff ff       	callq  4f25 <safe_div_func_uint32_t_u_u>
    9a3f:	0f bf 95 a8 f2 ff ff 	movswl -0xd58(%rbp),%edx
    9a46:	39 d0                	cmp    %edx,%eax
    9a48:	0f 94 c0             	sete   %al
    9a4b:	0f b6 c0             	movzbl %al,%eax
    9a4e:	39 85 9c f2 ff ff    	cmp    %eax,-0xd64(%rbp)
    9a54:	7c 07                	jl     9a5d <func_11+0xb5a>
    9a56:	b8 01 00 00 00       	mov    $0x1,%eax
    9a5b:	eb 05                	jmp    9a62 <func_11+0xb5f>
    9a5d:	b8 00 00 00 00       	mov    $0x0,%eax
    9a62:	98                   	cwtl   
    9a63:	89 de                	mov    %ebx,%esi
    9a65:	89 c7                	mov    %eax,%edi
    9a67:	e8 47 a9 ff ff       	callq  43b3 <safe_add_func_int16_t_s_s>
    9a6c:	89 c2                	mov    %eax,%edx
    9a6e:	48 8b 85 d0 f3 ff ff 	mov    -0xc30(%rbp),%rax
    9a75:	88 10                	mov    %dl,(%rax)
    9a77:	48 8b 85 d0 f3 ff ff 	mov    -0xc30(%rbp),%rax
    9a7e:	0f b6 00             	movzbl (%rax),%eax
    9a81:	0f b6 c0             	movzbl %al,%eax
    9a84:	8b b5 a0 f2 ff ff    	mov    -0xd60(%rbp),%esi
    9a8a:	89 c7                	mov    %eax,%edi
    9a8c:	e8 2d b2 ff ff       	callq  4cbe <safe_rshift_func_uint8_t_u_u>
    9a91:	0f be d0             	movsbl %al,%edx
    9a94:	48 8b 05 6d f9 00 00 	mov    0xf96d(%rip),%rax        # 19408 <g_1393>
    9a9b:	0f b6 00             	movzbl (%rax),%eax
    9a9e:	0f be c0             	movsbl %al,%eax
    9aa1:	89 d6                	mov    %edx,%esi
    9aa3:	89 c7                	mov    %eax,%edi
    9aa5:	e8 2a a7 ff ff       	callq  41d4 <safe_add_func_int8_t_s_s>
    9aaa:	48 8b 15 2f fb 00 00 	mov    0xfb2f(%rip),%rdx        # 195e0 <g_1991>
    9ab1:	8b 0a                	mov    (%rdx),%ecx
    9ab3:	0f be d0             	movsbl %al,%edx
    9ab6:	48 8b 05 23 fb 00 00 	mov    0xfb23(%rip),%rax        # 195e0 <g_1991>
    9abd:	09 ca                	or     %ecx,%edx
    9abf:	89 10                	mov    %edx,(%rax)
    9ac1:	e9 d6 0c 00 00       	jmpq   a79c <func_11+0x1899>
    9ac6:	48 c7 85 30 f9 ff ff 	movq   $0x0,-0x6d0(%rbp)
    9acd:	00 00 00 00 
    9ad1:	48 8d 85 78 f3 ff ff 	lea    -0xc88(%rbp),%rax
    9ad8:	48 89 85 38 f9 ff ff 	mov    %rax,-0x6c8(%rbp)
    9adf:	48 8d 85 78 f3 ff ff 	lea    -0xc88(%rbp),%rax
    9ae6:	48 89 85 40 f9 ff ff 	mov    %rax,-0x6c0(%rbp)
    9aed:	48 8d 85 78 f3 ff ff 	lea    -0xc88(%rbp),%rax
    9af4:	48 89 85 48 f9 ff ff 	mov    %rax,-0x6b8(%rbp)
    9afb:	48 8d 85 78 f3 ff ff 	lea    -0xc88(%rbp),%rax
    9b02:	48 89 85 50 f9 ff ff 	mov    %rax,-0x6b0(%rbp)
    9b09:	48 8d 85 78 f3 ff ff 	lea    -0xc88(%rbp),%rax
    9b10:	48 89 85 58 f9 ff ff 	mov    %rax,-0x6a8(%rbp)
    9b17:	48 8d 85 78 f3 ff ff 	lea    -0xc88(%rbp),%rax
    9b1e:	48 89 85 60 f9 ff ff 	mov    %rax,-0x6a0(%rbp)
    9b25:	48 8d 85 78 f3 ff ff 	lea    -0xc88(%rbp),%rax
    9b2c:	48 89 85 68 f9 ff ff 	mov    %rax,-0x698(%rbp)
    9b33:	48 8d 85 78 f3 ff ff 	lea    -0xc88(%rbp),%rax
    9b3a:	48 89 85 70 f9 ff ff 	mov    %rax,-0x690(%rbp)
    9b41:	48 8d 85 78 f3 ff ff 	lea    -0xc88(%rbp),%rax
    9b48:	48 89 85 78 f9 ff ff 	mov    %rax,-0x688(%rbp)
    9b4f:	48 8d 85 78 f3 ff ff 	lea    -0xc88(%rbp),%rax
    9b56:	48 89 85 80 f9 ff ff 	mov    %rax,-0x680(%rbp)
    9b5d:	48 c7 85 88 f9 ff ff 	movq   $0x0,-0x678(%rbp)
    9b64:	00 00 00 00 
    9b68:	48 8d 85 78 f3 ff ff 	lea    -0xc88(%rbp),%rax
    9b6f:	48 89 85 90 f9 ff ff 	mov    %rax,-0x670(%rbp)
    9b76:	48 c7 85 98 f9 ff ff 	movq   $0x0,-0x668(%rbp)
    9b7d:	00 00 00 00 
    9b81:	48 8d 85 78 f3 ff ff 	lea    -0xc88(%rbp),%rax
    9b88:	48 89 85 a0 f9 ff ff 	mov    %rax,-0x660(%rbp)
    9b8f:	48 c7 85 a8 f9 ff ff 	movq   $0x0,-0x658(%rbp)
    9b96:	00 00 00 00 
    9b9a:	48 8d 85 78 f3 ff ff 	lea    -0xc88(%rbp),%rax
    9ba1:	48 89 85 b0 f9 ff ff 	mov    %rax,-0x650(%rbp)
    9ba8:	48 8d 85 78 f3 ff ff 	lea    -0xc88(%rbp),%rax
    9baf:	48 89 85 b8 f9 ff ff 	mov    %rax,-0x648(%rbp)
    9bb6:	48 c7 85 c0 f9 ff ff 	movq   $0x0,-0x640(%rbp)
    9bbd:	00 00 00 00 
    9bc1:	48 8d 85 78 f3 ff ff 	lea    -0xc88(%rbp),%rax
    9bc8:	48 89 85 c8 f9 ff ff 	mov    %rax,-0x638(%rbp)
    9bcf:	48 c7 85 d0 f9 ff ff 	movq   $0x0,-0x630(%rbp)
    9bd6:	00 00 00 00 
    9bda:	48 c7 85 d8 f9 ff ff 	movq   $0x0,-0x628(%rbp)
    9be1:	00 00 00 00 
    9be5:	48 8d 85 78 f3 ff ff 	lea    -0xc88(%rbp),%rax
    9bec:	48 89 85 e0 f9 ff ff 	mov    %rax,-0x620(%rbp)
    9bf3:	48 8d 85 78 f3 ff ff 	lea    -0xc88(%rbp),%rax
    9bfa:	48 89 85 e8 f9 ff ff 	mov    %rax,-0x618(%rbp)
    9c01:	48 8d 85 78 f3 ff ff 	lea    -0xc88(%rbp),%rax
    9c08:	48 89 85 f0 f9 ff ff 	mov    %rax,-0x610(%rbp)
    9c0f:	48 8d 85 78 f3 ff ff 	lea    -0xc88(%rbp),%rax
    9c16:	48 89 85 f8 f9 ff ff 	mov    %rax,-0x608(%rbp)
    9c1d:	48 c7 85 00 fa ff ff 	movq   $0x0,-0x600(%rbp)
    9c24:	00 00 00 00 
    9c28:	48 8d 85 78 f3 ff ff 	lea    -0xc88(%rbp),%rax
    9c2f:	48 89 85 08 fa ff ff 	mov    %rax,-0x5f8(%rbp)
    9c36:	48 c7 85 10 fa ff ff 	movq   $0x0,-0x5f0(%rbp)
    9c3d:	00 00 00 00 
    9c41:	48 c7 85 18 fa ff ff 	movq   $0x0,-0x5e8(%rbp)
    9c48:	00 00 00 00 
    9c4c:	48 8d 85 78 f3 ff ff 	lea    -0xc88(%rbp),%rax
    9c53:	48 89 85 20 fa ff ff 	mov    %rax,-0x5e0(%rbp)
    9c5a:	48 c7 85 28 fa ff ff 	movq   $0x0,-0x5d8(%rbp)
    9c61:	00 00 00 00 
    9c65:	48 8d 85 78 f3 ff ff 	lea    -0xc88(%rbp),%rax
    9c6c:	48 89 85 30 fa ff ff 	mov    %rax,-0x5d0(%rbp)
    9c73:	48 8d 85 78 f3 ff ff 	lea    -0xc88(%rbp),%rax
    9c7a:	48 89 85 38 fa ff ff 	mov    %rax,-0x5c8(%rbp)
    9c81:	48 8d 85 78 f3 ff ff 	lea    -0xc88(%rbp),%rax
    9c88:	48 89 85 40 fa ff ff 	mov    %rax,-0x5c0(%rbp)
    9c8f:	48 8d 85 78 f3 ff ff 	lea    -0xc88(%rbp),%rax
    9c96:	48 89 85 48 fa ff ff 	mov    %rax,-0x5b8(%rbp)
    9c9d:	48 8d 85 78 f3 ff ff 	lea    -0xc88(%rbp),%rax
    9ca4:	48 89 85 50 fa ff ff 	mov    %rax,-0x5b0(%rbp)
    9cab:	48 8d 85 78 f3 ff ff 	lea    -0xc88(%rbp),%rax
    9cb2:	48 89 85 58 fa ff ff 	mov    %rax,-0x5a8(%rbp)
    9cb9:	48 8d 85 78 f3 ff ff 	lea    -0xc88(%rbp),%rax
    9cc0:	48 89 85 60 fa ff ff 	mov    %rax,-0x5a0(%rbp)
    9cc7:	48 8d 85 78 f3 ff ff 	lea    -0xc88(%rbp),%rax
    9cce:	48 89 85 68 fa ff ff 	mov    %rax,-0x598(%rbp)
    9cd5:	48 8d 85 78 f3 ff ff 	lea    -0xc88(%rbp),%rax
    9cdc:	48 89 85 70 fa ff ff 	mov    %rax,-0x590(%rbp)
    9ce3:	48 8d 85 78 f3 ff ff 	lea    -0xc88(%rbp),%rax
    9cea:	48 89 85 78 fa ff ff 	mov    %rax,-0x588(%rbp)
    9cf1:	48 8d 85 78 f3 ff ff 	lea    -0xc88(%rbp),%rax
    9cf8:	48 89 85 80 fa ff ff 	mov    %rax,-0x580(%rbp)
    9cff:	48 8d 85 78 f3 ff ff 	lea    -0xc88(%rbp),%rax
    9d06:	48 89 85 88 fa ff ff 	mov    %rax,-0x578(%rbp)
    9d0d:	48 8d 85 78 f3 ff ff 	lea    -0xc88(%rbp),%rax
    9d14:	48 89 85 90 fa ff ff 	mov    %rax,-0x570(%rbp)
    9d1b:	48 8d 85 78 f3 ff ff 	lea    -0xc88(%rbp),%rax
    9d22:	48 89 85 98 fa ff ff 	mov    %rax,-0x568(%rbp)
    9d29:	48 8d 85 78 f3 ff ff 	lea    -0xc88(%rbp),%rax
    9d30:	48 89 85 a0 fa ff ff 	mov    %rax,-0x560(%rbp)
    9d37:	48 8d 85 78 f3 ff ff 	lea    -0xc88(%rbp),%rax
    9d3e:	48 89 85 a8 fa ff ff 	mov    %rax,-0x558(%rbp)
    9d45:	48 8d 85 78 f3 ff ff 	lea    -0xc88(%rbp),%rax
    9d4c:	48 89 85 b0 fa ff ff 	mov    %rax,-0x550(%rbp)
    9d53:	48 8d 85 78 f3 ff ff 	lea    -0xc88(%rbp),%rax
    9d5a:	48 89 85 b8 fa ff ff 	mov    %rax,-0x548(%rbp)
    9d61:	48 8d 85 78 f3 ff ff 	lea    -0xc88(%rbp),%rax
    9d68:	48 89 85 c0 fa ff ff 	mov    %rax,-0x540(%rbp)
    9d6f:	48 8d 85 78 f3 ff ff 	lea    -0xc88(%rbp),%rax
    9d76:	48 89 85 c8 fa ff ff 	mov    %rax,-0x538(%rbp)
    9d7d:	48 8d 85 78 f3 ff ff 	lea    -0xc88(%rbp),%rax
    9d84:	48 89 85 d0 fa ff ff 	mov    %rax,-0x530(%rbp)
    9d8b:	48 8d 85 78 f3 ff ff 	lea    -0xc88(%rbp),%rax
    9d92:	48 89 85 d8 fa ff ff 	mov    %rax,-0x528(%rbp)
    9d99:	48 8d 85 78 f3 ff ff 	lea    -0xc88(%rbp),%rax
    9da0:	48 89 85 e0 fa ff ff 	mov    %rax,-0x520(%rbp)
    9da7:	48 c7 85 e8 fa ff ff 	movq   $0x0,-0x518(%rbp)
    9dae:	00 00 00 00 
    9db2:	48 8d 85 78 f3 ff ff 	lea    -0xc88(%rbp),%rax
    9db9:	48 89 85 f0 fa ff ff 	mov    %rax,-0x510(%rbp)
    9dc0:	48 8d 85 78 f3 ff ff 	lea    -0xc88(%rbp),%rax
    9dc7:	48 89 85 f8 fa ff ff 	mov    %rax,-0x508(%rbp)
    9dce:	48 8d 85 78 f3 ff ff 	lea    -0xc88(%rbp),%rax
    9dd5:	48 89 85 00 fb ff ff 	mov    %rax,-0x500(%rbp)
    9ddc:	48 8d 85 78 f3 ff ff 	lea    -0xc88(%rbp),%rax
    9de3:	48 89 85 08 fb ff ff 	mov    %rax,-0x4f8(%rbp)
    9dea:	48 8d 85 78 f3 ff ff 	lea    -0xc88(%rbp),%rax
    9df1:	48 89 85 10 fb ff ff 	mov    %rax,-0x4f0(%rbp)
    9df8:	48 8d 85 78 f3 ff ff 	lea    -0xc88(%rbp),%rax
    9dff:	48 89 85 18 fb ff ff 	mov    %rax,-0x4e8(%rbp)
    9e06:	48 8d 85 78 f3 ff ff 	lea    -0xc88(%rbp),%rax
    9e0d:	48 89 85 20 fb ff ff 	mov    %rax,-0x4e0(%rbp)
    9e14:	48 8d 85 78 f3 ff ff 	lea    -0xc88(%rbp),%rax
    9e1b:	48 89 85 28 fb ff ff 	mov    %rax,-0x4d8(%rbp)
    9e22:	48 c7 85 30 fb ff ff 	movq   $0x0,-0x4d0(%rbp)
    9e29:	00 00 00 00 
    9e2d:	48 8d 85 78 f3 ff ff 	lea    -0xc88(%rbp),%rax
    9e34:	48 89 85 38 fb ff ff 	mov    %rax,-0x4c8(%rbp)
    9e3b:	48 8d 85 78 f3 ff ff 	lea    -0xc88(%rbp),%rax
    9e42:	48 89 85 40 fb ff ff 	mov    %rax,-0x4c0(%rbp)
    9e49:	48 8d 85 78 f3 ff ff 	lea    -0xc88(%rbp),%rax
    9e50:	48 89 85 48 fb ff ff 	mov    %rax,-0x4b8(%rbp)
    9e57:	48 8d 85 78 f3 ff ff 	lea    -0xc88(%rbp),%rax
    9e5e:	48 89 85 50 fb ff ff 	mov    %rax,-0x4b0(%rbp)
    9e65:	48 8d 85 78 f3 ff ff 	lea    -0xc88(%rbp),%rax
    9e6c:	48 89 85 58 fb ff ff 	mov    %rax,-0x4a8(%rbp)
    9e73:	48 8d 85 78 f3 ff ff 	lea    -0xc88(%rbp),%rax
    9e7a:	48 89 85 60 fb ff ff 	mov    %rax,-0x4a0(%rbp)
    9e81:	48 8d 85 78 f3 ff ff 	lea    -0xc88(%rbp),%rax
    9e88:	48 89 85 68 fb ff ff 	mov    %rax,-0x498(%rbp)
    9e8f:	48 8d 85 78 f3 ff ff 	lea    -0xc88(%rbp),%rax
    9e96:	48 89 85 70 fb ff ff 	mov    %rax,-0x490(%rbp)
    9e9d:	48 c7 85 78 fb ff ff 	movq   $0x0,-0x488(%rbp)
    9ea4:	00 00 00 00 
    9ea8:	48 8d 85 78 f3 ff ff 	lea    -0xc88(%rbp),%rax
    9eaf:	48 89 85 80 fb ff ff 	mov    %rax,-0x480(%rbp)
    9eb6:	48 8d 85 78 f3 ff ff 	lea    -0xc88(%rbp),%rax
    9ebd:	48 89 85 88 fb ff ff 	mov    %rax,-0x478(%rbp)
    9ec4:	48 8d 85 78 f3 ff ff 	lea    -0xc88(%rbp),%rax
    9ecb:	48 89 85 90 fb ff ff 	mov    %rax,-0x470(%rbp)
    9ed2:	48 8d 85 78 f3 ff ff 	lea    -0xc88(%rbp),%rax
    9ed9:	48 89 85 98 fb ff ff 	mov    %rax,-0x468(%rbp)
    9ee0:	48 8d 85 78 f3 ff ff 	lea    -0xc88(%rbp),%rax
    9ee7:	48 89 85 a0 fb ff ff 	mov    %rax,-0x460(%rbp)
    9eee:	48 8d 85 78 f3 ff ff 	lea    -0xc88(%rbp),%rax
    9ef5:	48 89 85 a8 fb ff ff 	mov    %rax,-0x458(%rbp)
    9efc:	48 8d 85 78 f3 ff ff 	lea    -0xc88(%rbp),%rax
    9f03:	48 89 85 b0 fb ff ff 	mov    %rax,-0x450(%rbp)
    9f0a:	48 8d 85 78 f3 ff ff 	lea    -0xc88(%rbp),%rax
    9f11:	48 89 85 b8 fb ff ff 	mov    %rax,-0x448(%rbp)
    9f18:	48 8d 85 78 f3 ff ff 	lea    -0xc88(%rbp),%rax
    9f1f:	48 89 85 c0 fb ff ff 	mov    %rax,-0x440(%rbp)
    9f26:	48 8d 85 78 f3 ff ff 	lea    -0xc88(%rbp),%rax
    9f2d:	48 89 85 c8 fb ff ff 	mov    %rax,-0x438(%rbp)
    9f34:	48 8d 85 78 f3 ff ff 	lea    -0xc88(%rbp),%rax
    9f3b:	48 89 85 d0 fb ff ff 	mov    %rax,-0x430(%rbp)
    9f42:	48 8d 85 78 f3 ff ff 	lea    -0xc88(%rbp),%rax
    9f49:	48 89 85 d8 fb ff ff 	mov    %rax,-0x428(%rbp)
    9f50:	48 8d 85 78 f3 ff ff 	lea    -0xc88(%rbp),%rax
    9f57:	48 89 85 e0 fb ff ff 	mov    %rax,-0x420(%rbp)
    9f5e:	48 8d 85 78 f3 ff ff 	lea    -0xc88(%rbp),%rax
    9f65:	48 89 85 e8 fb ff ff 	mov    %rax,-0x418(%rbp)
    9f6c:	48 8d 85 78 f3 ff ff 	lea    -0xc88(%rbp),%rax
    9f73:	48 89 85 f0 fb ff ff 	mov    %rax,-0x410(%rbp)
    9f7a:	48 8d 85 78 f3 ff ff 	lea    -0xc88(%rbp),%rax
    9f81:	48 89 85 f8 fb ff ff 	mov    %rax,-0x408(%rbp)
    9f88:	48 8d 85 78 f3 ff ff 	lea    -0xc88(%rbp),%rax
    9f8f:	48 89 85 00 fc ff ff 	mov    %rax,-0x400(%rbp)
    9f96:	48 8d 85 78 f3 ff ff 	lea    -0xc88(%rbp),%rax
    9f9d:	48 89 85 08 fc ff ff 	mov    %rax,-0x3f8(%rbp)
    9fa4:	48 8d 85 78 f3 ff ff 	lea    -0xc88(%rbp),%rax
    9fab:	48 89 85 10 fc ff ff 	mov    %rax,-0x3f0(%rbp)
    9fb2:	48 8d 85 78 f3 ff ff 	lea    -0xc88(%rbp),%rax
    9fb9:	48 89 85 18 fc ff ff 	mov    %rax,-0x3e8(%rbp)
    9fc0:	48 8d 85 78 f3 ff ff 	lea    -0xc88(%rbp),%rax
    9fc7:	48 89 85 20 fc ff ff 	mov    %rax,-0x3e0(%rbp)
    9fce:	48 8d 85 78 f3 ff ff 	lea    -0xc88(%rbp),%rax
    9fd5:	48 89 85 28 fc ff ff 	mov    %rax,-0x3d8(%rbp)
    9fdc:	48 8d 85 78 f3 ff ff 	lea    -0xc88(%rbp),%rax
    9fe3:	48 89 85 30 fc ff ff 	mov    %rax,-0x3d0(%rbp)
    9fea:	48 8d 85 78 f3 ff ff 	lea    -0xc88(%rbp),%rax
    9ff1:	48 89 85 38 fc ff ff 	mov    %rax,-0x3c8(%rbp)
    9ff8:	48 8d 85 78 f3 ff ff 	lea    -0xc88(%rbp),%rax
    9fff:	48 89 85 40 fc ff ff 	mov    %rax,-0x3c0(%rbp)
    a006:	48 8d 85 78 f3 ff ff 	lea    -0xc88(%rbp),%rax
    a00d:	48 89 85 48 fc ff ff 	mov    %rax,-0x3b8(%rbp)
    a014:	48 8d 85 78 f3 ff ff 	lea    -0xc88(%rbp),%rax
    a01b:	48 89 85 50 fc ff ff 	mov    %rax,-0x3b0(%rbp)
    a022:	48 8d 85 78 f3 ff ff 	lea    -0xc88(%rbp),%rax
    a029:	48 89 85 58 fc ff ff 	mov    %rax,-0x3a8(%rbp)
    a030:	48 8d 85 78 f3 ff ff 	lea    -0xc88(%rbp),%rax
    a037:	48 89 85 60 fc ff ff 	mov    %rax,-0x3a0(%rbp)
    a03e:	48 c7 85 68 fc ff ff 	movq   $0x0,-0x398(%rbp)
    a045:	00 00 00 00 
    a049:	48 c7 85 70 fc ff ff 	movq   $0x0,-0x390(%rbp)
    a050:	00 00 00 00 
    a054:	48 c7 85 78 fc ff ff 	movq   $0x0,-0x388(%rbp)
    a05b:	00 00 00 00 
    a05f:	48 8d 85 78 f3 ff ff 	lea    -0xc88(%rbp),%rax
    a066:	48 89 85 80 fc ff ff 	mov    %rax,-0x380(%rbp)
    a06d:	48 8d 85 78 f3 ff ff 	lea    -0xc88(%rbp),%rax
    a074:	48 89 85 88 fc ff ff 	mov    %rax,-0x378(%rbp)
    a07b:	48 8d 85 78 f3 ff ff 	lea    -0xc88(%rbp),%rax
    a082:	48 89 85 90 fc ff ff 	mov    %rax,-0x370(%rbp)
    a089:	48 c7 85 98 fc ff ff 	movq   $0x0,-0x368(%rbp)
    a090:	00 00 00 00 
    a094:	48 8d 85 78 f3 ff ff 	lea    -0xc88(%rbp),%rax
    a09b:	48 89 85 a0 fc ff ff 	mov    %rax,-0x360(%rbp)
    a0a2:	48 8d 85 78 f3 ff ff 	lea    -0xc88(%rbp),%rax
    a0a9:	48 89 85 a8 fc ff ff 	mov    %rax,-0x358(%rbp)
    a0b0:	48 c7 85 b0 fc ff ff 	movq   $0x0,-0x350(%rbp)
    a0b7:	00 00 00 00 
    a0bb:	48 8d 85 78 f3 ff ff 	lea    -0xc88(%rbp),%rax
    a0c2:	48 89 85 b8 fc ff ff 	mov    %rax,-0x348(%rbp)
    a0c9:	48 8d 85 78 f3 ff ff 	lea    -0xc88(%rbp),%rax
    a0d0:	48 89 85 c0 fc ff ff 	mov    %rax,-0x340(%rbp)
    a0d7:	48 8d 85 78 f3 ff ff 	lea    -0xc88(%rbp),%rax
    a0de:	48 89 85 c8 fc ff ff 	mov    %rax,-0x338(%rbp)
    a0e5:	48 8d 85 78 f3 ff ff 	lea    -0xc88(%rbp),%rax
    a0ec:	48 89 85 d0 fc ff ff 	mov    %rax,-0x330(%rbp)
    a0f3:	48 8d 85 78 f3 ff ff 	lea    -0xc88(%rbp),%rax
    a0fa:	48 89 85 d8 fc ff ff 	mov    %rax,-0x328(%rbp)
    a101:	48 c7 85 e0 fc ff ff 	movq   $0x0,-0x320(%rbp)
    a108:	00 00 00 00 
    a10c:	48 8d 85 78 f3 ff ff 	lea    -0xc88(%rbp),%rax
    a113:	48 89 85 e8 fc ff ff 	mov    %rax,-0x318(%rbp)
    a11a:	48 8d 85 78 f3 ff ff 	lea    -0xc88(%rbp),%rax
    a121:	48 89 85 f0 fc ff ff 	mov    %rax,-0x310(%rbp)
    a128:	48 c7 85 f8 fc ff ff 	movq   $0x0,-0x308(%rbp)
    a12f:	00 00 00 00 
    a133:	48 8d 85 78 f3 ff ff 	lea    -0xc88(%rbp),%rax
    a13a:	48 89 85 00 fd ff ff 	mov    %rax,-0x300(%rbp)
    a141:	48 8d 85 78 f3 ff ff 	lea    -0xc88(%rbp),%rax
    a148:	48 89 85 08 fd ff ff 	mov    %rax,-0x2f8(%rbp)
    a14f:	48 8d 85 78 f3 ff ff 	lea    -0xc88(%rbp),%rax
    a156:	48 89 85 10 fd ff ff 	mov    %rax,-0x2f0(%rbp)
    a15d:	48 c7 85 18 fd ff ff 	movq   $0x0,-0x2e8(%rbp)
    a164:	00 00 00 00 
    a168:	48 8d 85 78 f3 ff ff 	lea    -0xc88(%rbp),%rax
    a16f:	48 89 85 20 fd ff ff 	mov    %rax,-0x2e0(%rbp)
    a176:	48 8d 85 78 f3 ff ff 	lea    -0xc88(%rbp),%rax
    a17d:	48 89 85 28 fd ff ff 	mov    %rax,-0x2d8(%rbp)
    a184:	48 c7 85 30 fd ff ff 	movq   $0x0,-0x2d0(%rbp)
    a18b:	00 00 00 00 
    a18f:	48 8d 85 78 f3 ff ff 	lea    -0xc88(%rbp),%rax
    a196:	48 89 85 38 fd ff ff 	mov    %rax,-0x2c8(%rbp)
    a19d:	48 c7 85 40 fd ff ff 	movq   $0x0,-0x2c0(%rbp)
    a1a4:	00 00 00 00 
    a1a8:	48 8d 85 78 f3 ff ff 	lea    -0xc88(%rbp),%rax
    a1af:	48 89 85 48 fd ff ff 	mov    %rax,-0x2b8(%rbp)
    a1b6:	48 8d 85 78 f3 ff ff 	lea    -0xc88(%rbp),%rax
    a1bd:	48 89 85 50 fd ff ff 	mov    %rax,-0x2b0(%rbp)
    a1c4:	48 c7 85 58 fd ff ff 	movq   $0x0,-0x2a8(%rbp)
    a1cb:	00 00 00 00 
    a1cf:	48 8d 85 78 f3 ff ff 	lea    -0xc88(%rbp),%rax
    a1d6:	48 89 85 60 fd ff ff 	mov    %rax,-0x2a0(%rbp)
    a1dd:	48 8d 85 78 f3 ff ff 	lea    -0xc88(%rbp),%rax
    a1e4:	48 89 85 68 fd ff ff 	mov    %rax,-0x298(%rbp)
    a1eb:	48 8d 85 78 f3 ff ff 	lea    -0xc88(%rbp),%rax
    a1f2:	48 89 85 70 fd ff ff 	mov    %rax,-0x290(%rbp)
    a1f9:	48 8d 85 78 f3 ff ff 	lea    -0xc88(%rbp),%rax
    a200:	48 89 85 78 fd ff ff 	mov    %rax,-0x288(%rbp)
    a207:	48 c7 85 80 fd ff ff 	movq   $0x0,-0x280(%rbp)
    a20e:	00 00 00 00 
    a212:	48 8d 85 78 f3 ff ff 	lea    -0xc88(%rbp),%rax
    a219:	48 89 85 88 fd ff ff 	mov    %rax,-0x278(%rbp)
    a220:	48 8d 85 78 f3 ff ff 	lea    -0xc88(%rbp),%rax
    a227:	48 89 85 90 fd ff ff 	mov    %rax,-0x270(%rbp)
    a22e:	48 c7 85 98 fd ff ff 	movq   $0x0,-0x268(%rbp)
    a235:	00 00 00 00 
    a239:	48 8d 85 78 f3 ff ff 	lea    -0xc88(%rbp),%rax
    a240:	48 89 85 a0 fd ff ff 	mov    %rax,-0x260(%rbp)
    a247:	48 8d 85 78 f3 ff ff 	lea    -0xc88(%rbp),%rax
    a24e:	48 89 85 a8 fd ff ff 	mov    %rax,-0x258(%rbp)
    a255:	48 8d 85 78 f3 ff ff 	lea    -0xc88(%rbp),%rax
    a25c:	48 89 85 b0 fd ff ff 	mov    %rax,-0x250(%rbp)
    a263:	48 8d 85 78 f3 ff ff 	lea    -0xc88(%rbp),%rax
    a26a:	48 89 85 b8 fd ff ff 	mov    %rax,-0x248(%rbp)
    a271:	48 8d 85 78 f3 ff ff 	lea    -0xc88(%rbp),%rax
    a278:	48 89 85 c0 fd ff ff 	mov    %rax,-0x240(%rbp)
    a27f:	48 8d 85 78 f3 ff ff 	lea    -0xc88(%rbp),%rax
    a286:	48 89 85 c8 fd ff ff 	mov    %rax,-0x238(%rbp)
    a28d:	48 c7 85 d0 fd ff ff 	movq   $0x0,-0x230(%rbp)
    a294:	00 00 00 00 
    a298:	48 8d 85 78 f3 ff ff 	lea    -0xc88(%rbp),%rax
    a29f:	48 89 85 d8 fd ff ff 	mov    %rax,-0x228(%rbp)
    a2a6:	48 c7 85 e0 fd ff ff 	movq   $0x0,-0x220(%rbp)
    a2ad:	00 00 00 00 
    a2b1:	48 8d 85 78 f3 ff ff 	lea    -0xc88(%rbp),%rax
    a2b8:	48 89 85 e8 fd ff ff 	mov    %rax,-0x218(%rbp)
    a2bf:	48 8d 85 78 f3 ff ff 	lea    -0xc88(%rbp),%rax
    a2c6:	48 89 85 f0 fd ff ff 	mov    %rax,-0x210(%rbp)
    a2cd:	48 8d 85 78 f3 ff ff 	lea    -0xc88(%rbp),%rax
    a2d4:	48 89 85 f8 fd ff ff 	mov    %rax,-0x208(%rbp)
    a2db:	48 8d 85 78 f3 ff ff 	lea    -0xc88(%rbp),%rax
    a2e2:	48 89 85 00 fe ff ff 	mov    %rax,-0x200(%rbp)
    a2e9:	48 8d 85 78 f3 ff ff 	lea    -0xc88(%rbp),%rax
    a2f0:	48 89 85 08 fe ff ff 	mov    %rax,-0x1f8(%rbp)
    a2f7:	48 8d 85 78 f3 ff ff 	lea    -0xc88(%rbp),%rax
    a2fe:	48 89 85 10 fe ff ff 	mov    %rax,-0x1f0(%rbp)
    a305:	48 8d 85 78 f3 ff ff 	lea    -0xc88(%rbp),%rax
    a30c:	48 89 85 18 fe ff ff 	mov    %rax,-0x1e8(%rbp)
    a313:	48 8d 85 78 f3 ff ff 	lea    -0xc88(%rbp),%rax
    a31a:	48 89 85 20 fe ff ff 	mov    %rax,-0x1e0(%rbp)
    a321:	48 8d 85 78 f3 ff ff 	lea    -0xc88(%rbp),%rax
    a328:	48 89 85 28 fe ff ff 	mov    %rax,-0x1d8(%rbp)
    a32f:	48 8d 85 78 f3 ff ff 	lea    -0xc88(%rbp),%rax
    a336:	48 89 85 30 fe ff ff 	mov    %rax,-0x1d0(%rbp)
    a33d:	48 8d 85 78 f3 ff ff 	lea    -0xc88(%rbp),%rax
    a344:	48 89 85 38 fe ff ff 	mov    %rax,-0x1c8(%rbp)
    a34b:	48 8d 85 78 f3 ff ff 	lea    -0xc88(%rbp),%rax
    a352:	48 89 85 40 fe ff ff 	mov    %rax,-0x1c0(%rbp)
    a359:	48 8d 85 78 f3 ff ff 	lea    -0xc88(%rbp),%rax
    a360:	48 89 85 48 fe ff ff 	mov    %rax,-0x1b8(%rbp)
    a367:	48 8d 85 78 f3 ff ff 	lea    -0xc88(%rbp),%rax
    a36e:	48 89 85 50 fe ff ff 	mov    %rax,-0x1b0(%rbp)
    a375:	48 8d 85 78 f3 ff ff 	lea    -0xc88(%rbp),%rax
    a37c:	48 89 85 58 fe ff ff 	mov    %rax,-0x1a8(%rbp)
    a383:	48 8d 85 78 f3 ff ff 	lea    -0xc88(%rbp),%rax
    a38a:	48 89 85 60 fe ff ff 	mov    %rax,-0x1a0(%rbp)
    a391:	48 8d 85 78 f3 ff ff 	lea    -0xc88(%rbp),%rax
    a398:	48 89 85 68 fe ff ff 	mov    %rax,-0x198(%rbp)
    a39f:	48 8d 85 78 f3 ff ff 	lea    -0xc88(%rbp),%rax
    a3a6:	48 89 85 70 fe ff ff 	mov    %rax,-0x190(%rbp)
    a3ad:	48 8d 85 78 f3 ff ff 	lea    -0xc88(%rbp),%rax
    a3b4:	48 89 85 78 fe ff ff 	mov    %rax,-0x188(%rbp)
    a3bb:	48 8d 85 78 f3 ff ff 	lea    -0xc88(%rbp),%rax
    a3c2:	48 89 85 80 fe ff ff 	mov    %rax,-0x180(%rbp)
    a3c9:	48 8d 85 78 f3 ff ff 	lea    -0xc88(%rbp),%rax
    a3d0:	48 89 85 88 fe ff ff 	mov    %rax,-0x178(%rbp)
    a3d7:	48 8d 85 78 f3 ff ff 	lea    -0xc88(%rbp),%rax
    a3de:	48 89 85 90 fe ff ff 	mov    %rax,-0x170(%rbp)
    a3e5:	48 c7 85 98 fe ff ff 	movq   $0x0,-0x168(%rbp)
    a3ec:	00 00 00 00 
    a3f0:	48 c7 85 a0 fe ff ff 	movq   $0x0,-0x160(%rbp)
    a3f7:	00 00 00 00 
    a3fb:	48 8d 85 78 f3 ff ff 	lea    -0xc88(%rbp),%rax
    a402:	48 89 85 a8 fe ff ff 	mov    %rax,-0x158(%rbp)
    a409:	48 8d 85 78 f3 ff ff 	lea    -0xc88(%rbp),%rax
    a410:	48 89 85 b0 fe ff ff 	mov    %rax,-0x150(%rbp)
    a417:	48 8d 85 78 f3 ff ff 	lea    -0xc88(%rbp),%rax
    a41e:	48 89 85 b8 fe ff ff 	mov    %rax,-0x148(%rbp)
    a425:	48 8d 85 78 f3 ff ff 	lea    -0xc88(%rbp),%rax
    a42c:	48 89 85 c0 fe ff ff 	mov    %rax,-0x140(%rbp)
    a433:	48 c7 85 c8 fe ff ff 	movq   $0x0,-0x138(%rbp)
    a43a:	00 00 00 00 
    a43e:	48 8d 85 78 f3 ff ff 	lea    -0xc88(%rbp),%rax
    a445:	48 89 85 d0 fe ff ff 	mov    %rax,-0x130(%rbp)
    a44c:	48 8d 85 78 f3 ff ff 	lea    -0xc88(%rbp),%rax
    a453:	48 89 85 d8 fe ff ff 	mov    %rax,-0x128(%rbp)
    a45a:	48 8d 85 78 f3 ff ff 	lea    -0xc88(%rbp),%rax
    a461:	48 89 85 e0 fe ff ff 	mov    %rax,-0x120(%rbp)
    a468:	48 8d 85 78 f3 ff ff 	lea    -0xc88(%rbp),%rax
    a46f:	48 89 85 e8 fe ff ff 	mov    %rax,-0x118(%rbp)
    a476:	48 8d 85 78 f3 ff ff 	lea    -0xc88(%rbp),%rax
    a47d:	48 89 85 f0 fe ff ff 	mov    %rax,-0x110(%rbp)
    a484:	48 8d 85 78 f3 ff ff 	lea    -0xc88(%rbp),%rax
    a48b:	48 89 85 f8 fe ff ff 	mov    %rax,-0x108(%rbp)
    a492:	48 c7 85 00 ff ff ff 	movq   $0x0,-0x100(%rbp)
    a499:	00 00 00 00 
    a49d:	48 8d 85 78 f3 ff ff 	lea    -0xc88(%rbp),%rax
    a4a4:	48 89 85 08 ff ff ff 	mov    %rax,-0xf8(%rbp)
    a4ab:	48 8d 85 78 f3 ff ff 	lea    -0xc88(%rbp),%rax
    a4b2:	48 89 85 10 ff ff ff 	mov    %rax,-0xf0(%rbp)
    a4b9:	48 c7 85 18 ff ff ff 	movq   $0x0,-0xe8(%rbp)
    a4c0:	00 00 00 00 
    a4c4:	48 8d 85 78 f3 ff ff 	lea    -0xc88(%rbp),%rax
    a4cb:	48 89 85 20 ff ff ff 	mov    %rax,-0xe0(%rbp)
    a4d2:	48 8d 85 78 f3 ff ff 	lea    -0xc88(%rbp),%rax
    a4d9:	48 89 85 28 ff ff ff 	mov    %rax,-0xd8(%rbp)
    a4e0:	48 8d 85 78 f3 ff ff 	lea    -0xc88(%rbp),%rax
    a4e7:	48 89 85 30 ff ff ff 	mov    %rax,-0xd0(%rbp)
    a4ee:	48 8d 85 78 f3 ff ff 	lea    -0xc88(%rbp),%rax
    a4f5:	48 89 85 38 ff ff ff 	mov    %rax,-0xc8(%rbp)
    a4fc:	48 8d 85 78 f3 ff ff 	lea    -0xc88(%rbp),%rax
    a503:	48 89 85 40 ff ff ff 	mov    %rax,-0xc0(%rbp)
    a50a:	48 c7 85 48 ff ff ff 	movq   $0x0,-0xb8(%rbp)
    a511:	00 00 00 00 
    a515:	48 8d 85 78 f3 ff ff 	lea    -0xc88(%rbp),%rax
    a51c:	48 89 85 50 ff ff ff 	mov    %rax,-0xb0(%rbp)
    a523:	48 8d 85 78 f3 ff ff 	lea    -0xc88(%rbp),%rax
    a52a:	48 89 85 58 ff ff ff 	mov    %rax,-0xa8(%rbp)
    a531:	48 8d 85 78 f3 ff ff 	lea    -0xc88(%rbp),%rax
    a538:	48 89 85 60 ff ff ff 	mov    %rax,-0xa0(%rbp)
    a53f:	48 c7 85 68 ff ff ff 	movq   $0x0,-0x98(%rbp)
    a546:	00 00 00 00 
    a54a:	48 8d 85 78 f3 ff ff 	lea    -0xc88(%rbp),%rax
    a551:	48 89 85 70 ff ff ff 	mov    %rax,-0x90(%rbp)
    a558:	48 8d 85 78 f3 ff ff 	lea    -0xc88(%rbp),%rax
    a55f:	48 89 85 78 ff ff ff 	mov    %rax,-0x88(%rbp)
    a566:	48 8d 85 78 f3 ff ff 	lea    -0xc88(%rbp),%rax
    a56d:	48 89 45 80          	mov    %rax,-0x80(%rbp)
    a571:	48 8d 85 78 f3 ff ff 	lea    -0xc88(%rbp),%rax
    a578:	48 89 45 88          	mov    %rax,-0x78(%rbp)
    a57c:	48 8d 85 78 f3 ff ff 	lea    -0xc88(%rbp),%rax
    a583:	48 89 45 90          	mov    %rax,-0x70(%rbp)
    a587:	48 8d 85 78 f3 ff ff 	lea    -0xc88(%rbp),%rax
    a58e:	48 89 45 98          	mov    %rax,-0x68(%rbp)
    a592:	48 8d 85 78 f3 ff ff 	lea    -0xc88(%rbp),%rax
    a599:	48 89 45 a0          	mov    %rax,-0x60(%rbp)
    a59d:	48 8d 85 78 f3 ff ff 	lea    -0xc88(%rbp),%rax
    a5a4:	48 89 45 a8          	mov    %rax,-0x58(%rbp)
    a5a8:	48 8d 85 78 f3 ff ff 	lea    -0xc88(%rbp),%rax
    a5af:	48 89 45 b0          	mov    %rax,-0x50(%rbp)
    a5b3:	48 8d 85 78 f3 ff ff 	lea    -0xc88(%rbp),%rax
    a5ba:	48 89 45 b8          	mov    %rax,-0x48(%rbp)
    a5be:	c6 85 c0 f2 ff ff 3f 	movb   $0x3f,-0xd40(%rbp)
    a5c5:	c7 85 1c f3 ff ff fa 	movl   $0xfffffffa,-0xce4(%rbp)
    a5cc:	ff ff ff 
    a5cf:	c7 85 20 f3 ff ff fb 	movl   $0xfffffffb,-0xce0(%rbp)
    a5d6:	ff ff ff 
    a5d9:	c7 85 24 f3 ff ff 54 	movl   $0x29255554,-0xcdc(%rbp)
    a5e0:	55 25 29 
    a5e3:	c7 85 28 f3 ff ff 65 	movl   $0x48464e65,-0xcd8(%rbp)
    a5ea:	4e 46 48 
    a5ed:	8b 05 19 db 00 00    	mov    0xdb19(%rip),%eax        # 1810c <g_2069+0xc>
    a5f3:	89 c1                	mov    %eax,%ecx
    a5f5:	48 8b 85 78 f3 ff ff 	mov    -0xc88(%rbp),%rax
    a5fc:	48 89 05 35 f0 00 00 	mov    %rax,0xf035(%rip)        # 19638 <g_2479+0x8>
    a603:	48 8d 05 3e f6 00 00 	lea    0xf63e(%rip),%rax        # 19c48 <g_505+0x8>
    a60a:	48 89 85 c0 f6 ff ff 	mov    %rax,-0x940(%rbp)
    a611:	48 8b 85 70 f4 ff ff 	mov    -0xb90(%rbp),%rax
    a618:	48 8d 15 a9 ef 00 00 	lea    0xefa9(%rip),%rdx        # 195c8 <g_1767>
    a61f:	48 39 d0             	cmp    %rdx,%rax
    a622:	0f 95 c0             	setne  %al
    a625:	0f b6 c0             	movzbl %al,%eax
    a628:	89 ce                	mov    %ecx,%esi
    a62a:	89 c7                	mov    %eax,%edi
    a62c:	e8 1b a6 ff ff       	callq  4c4c <safe_lshift_func_uint8_t_u_u>
    a631:	0f b6 d8             	movzbl %al,%ebx
    a634:	8b 85 a4 f2 ff ff    	mov    -0xd5c(%rbp),%eax
    a63a:	0f b7 c0             	movzwl %ax,%eax
    a63d:	89 c7                	mov    %eax,%edi
    a63f:	e8 a5 a6 ff ff       	callq  4ce9 <safe_unary_minus_func_uint16_t_u>
    a644:	48 8b 05 c5 ef 00 00 	mov    0xefc5(%rip),%rax        # 19610 <g_2185>
    a64b:	48 8b 10             	mov    (%rax),%rdx
    a64e:	48 8b 05 c3 ef 00 00 	mov    0xefc3(%rip),%rax        # 19618 <g_2184>
    a655:	48 8b 00             	mov    (%rax),%rax
    a658:	48 8b 00             	mov    (%rax),%rax
    a65b:	48 39 c2             	cmp    %rax,%rdx
    a65e:	0f 94 c0             	sete   %al
    a661:	0f b6 c0             	movzbl %al,%eax
    a664:	89 de                	mov    %ebx,%esi
    a666:	89 c7                	mov    %eax,%edi
    a668:	e8 e8 9d ff ff       	callq  4455 <safe_div_func_int16_t_s_s>
    a66d:	0f be 85 ac f2 ff ff 	movsbl -0xd54(%rbp),%eax
    a674:	89 c7                	mov    %eax,%edi
    a676:	e8 9e 1c 00 00       	callq  c319 <func_16>
    a67b:	48 89 85 b0 f3 ff ff 	mov    %rax,-0xc50(%rbp)
    a682:	48 8b 15 67 ed 00 00 	mov    0xed67(%rip),%rdx        # 193f0 <g_1294>
    a689:	8b 02                	mov    (%rdx),%eax
    a68b:	8d 48 01             	lea    0x1(%rax),%ecx
    a68e:	89 0a                	mov    %ecx,(%rdx)
    a690:	85 c0                	test   %eax,%eax
    a692:	0f 85 d3 00 00 00    	jne    a76b <func_11+0x1868>
    a698:	0f bf 9d a8 f2 ff ff 	movswl -0xd58(%rbp),%ebx
    a69f:	4c 0f be a5 ac f2 ff 	movsbq -0xd54(%rbp),%r12
    a6a6:	ff 
    a6a7:	48 83 bd 90 f3 ff ff 	cmpq   $0x0,-0xc70(%rbp)
    a6ae:	00 
    a6af:	41 0f 94 c6          	sete   %r14b
    a6b3:	48 8b 05 16 ed 00 00 	mov    0xed16(%rip),%rax        # 193d0 <g_966>
    a6ba:	48 8b 00             	mov    (%rax),%rax
    a6bd:	48 8b 00             	mov    (%rax),%rax
    a6c0:	48 c7 00 fe ff ff ff 	movq   $0xfffffffffffffffe,(%rax)
    a6c7:	8b 85 a4 f2 ff ff    	mov    -0xd5c(%rbp),%eax
    a6cd:	48 98                	cltq   
    a6cf:	48 c7 c6 fe ff ff ff 	mov    $0xfffffffffffffffe,%rsi
    a6d6:	48 89 c7             	mov    %rax,%rdi
    a6d9:	e8 a2 a9 ff ff       	callq  5080 <safe_mod_func_uint64_t_u_u>
    a6de:	49 89 c5             	mov    %rax,%r13
    a6e1:	8b 85 70 f3 ff ff    	mov    -0xc90(%rbp),%eax
    a6e7:	89 c2                	mov    %eax,%edx
    a6e9:	8b 85 14 f3 ff ff    	mov    -0xcec(%rbp),%eax
    a6ef:	f7 d0                	not    %eax
    a6f1:	66 0b 85 a8 f2 ff ff 	or     -0xd58(%rbp),%ax
    a6f8:	98                   	cwtl   
    a6f9:	89 d6                	mov    %edx,%esi
    a6fb:	89 c7                	mov    %eax,%edi
    a6fd:	e8 90 9d ff ff       	callq  4492 <safe_lshift_func_int16_t_s_s>
    a702:	66 0f be 95 ac f2 ff 	movsbw -0xd54(%rbp),%dx
    a709:	ff 
    a70a:	66 39 d0             	cmp    %dx,%ax
    a70d:	7f 07                	jg     a716 <func_11+0x1813>
    a70f:	b8 01 00 00 00       	mov    $0x1,%eax
    a714:	eb 05                	jmp    a71b <func_11+0x1818>
    a716:	b8 00 00 00 00       	mov    $0x0,%eax
    a71b:	0f be c0             	movsbl %al,%eax
    a71e:	89 c7                	mov    %eax,%edi
    a720:	e8 9a 9a ff ff       	callq  41bf <safe_unary_minus_func_int8_t_s>
    a725:	0f be c0             	movsbl %al,%eax
    a728:	39 85 a4 f2 ff ff    	cmp    %eax,-0xd5c(%rbp)
    a72e:	0f 94 c0             	sete   %al
    a731:	0f b6 c0             	movzbl %al,%eax
    a734:	49 39 c5             	cmp    %rax,%r13
    a737:	0f 97 c0             	seta   %al
    a73a:	44 09 f0             	or     %r14d,%eax
    a73d:	0f b6 c0             	movzbl %al,%eax
    a740:	4c 89 e6             	mov    %r12,%rsi
    a743:	48 89 c7             	mov    %rax,%rdi
    a746:	e8 e3 a8 ff ff       	callq  502e <safe_add_func_uint64_t_u_u>
    a74b:	be 01 00 00 00       	mov    $0x1,%esi
    a750:	48 89 c7             	mov    %rax,%rdi
    a753:	e8 9f a2 ff ff       	callq  49f7 <safe_div_func_int64_t_s_s>
    a758:	98                   	cwtl   
    a759:	89 de                	mov    %ebx,%esi
    a75b:	89 c7                	mov    %eax,%edi
    a75d:	e8 7f 9d ff ff       	callq  44e1 <safe_lshift_func_int16_t_s_u>
    a762:	66 39 85 a8 f2 ff ff 	cmp    %ax,-0xd58(%rbp)
    a769:	7f 07                	jg     a772 <func_11+0x186f>
    a76b:	b8 01 00 00 00       	mov    $0x1,%eax
    a770:	eb 05                	jmp    a777 <func_11+0x1874>
    a772:	b8 00 00 00 00       	mov    $0x0,%eax
    a777:	0f b7 c0             	movzwl %ax,%eax
    a77a:	be 0c 00 00 00       	mov    $0xc,%esi
    a77f:	89 c7                	mov    %eax,%edi
    a781:	e8 c2 a6 ff ff       	callq  4e48 <safe_rshift_func_uint16_t_u_s>
    a786:	89 c2                	mov    %eax,%edx
    a788:	48 8b 05 91 ee 00 00 	mov    0xee91(%rip),%rax        # 19620 <g_2335>
    a78f:	0f b7 d2             	movzwl %dx,%edx
    a792:	89 10                	mov    %edx,(%rax)
    a794:	48 83 ad 80 f3 ff ff 	subq   $0x1,-0xc80(%rbp)
    a79b:	01 
    a79c:	0f b6 05 07 d9 00 00 	movzbl 0xd907(%rip),%eax        # 180aa <g_843>
    a7a3:	0f be c0             	movsbl %al,%eax
    a7a6:	89 c7                	mov    %eax,%edi
    a7a8:	e8 6c 1b 00 00       	callq  c319 <func_16>
    a7ad:	48 89 85 98 f8 ff ff 	mov    %rax,-0x768(%rbp)
    a7b4:	eb 01                	jmp    a7b7 <func_11+0x18b4>
    a7b6:	90                   	nop
    a7b7:	48 8b 05 92 d8 00 00 	mov    0xd892(%rip),%rax        # 18050 <g_153>
    a7be:	be 02 00 00 00       	mov    $0x2,%esi
    a7c3:	48 89 c7             	mov    %rax,%rdi
    a7c6:	e8 76 a0 ff ff       	callq  4841 <safe_add_func_int64_t_s_s>
    a7cb:	48 89 05 7e d8 00 00 	mov    %rax,0xd87e(%rip)        # 18050 <g_153>
    a7d2:	48 8b 05 77 d8 00 00 	mov    0xd877(%rip),%rax        # 18050 <g_153>
    a7d9:	48 83 f8 1c          	cmp    $0x1c,%rax
    a7dd:	0f 87 1c ed ff ff    	ja     94ff <func_11+0x5fc>
    a7e3:	eb 01                	jmp    a7e6 <func_11+0x18e3>
    a7e5:	90                   	nop
    a7e6:	8b 85 dc f2 ff ff    	mov    -0xd24(%rbp),%eax
    a7ec:	48 98                	cltq   
    a7ee:	be 09 00 00 00       	mov    $0x9,%esi
    a7f3:	48 89 c7             	mov    %rax,%rdi
    a7f6:	e8 46 a0 ff ff       	callq  4841 <safe_add_func_int64_t_s_s>
    a7fb:	89 85 dc f2 ff ff    	mov    %eax,-0xd24(%rbp)
    a801:	83 bd dc f2 ff ff 17 	cmpl   $0x17,-0xd24(%rbp)
    a808:	0f 84 99 ec ff ff    	je     94a7 <func_11+0x5a4>
    a80e:	0f be 85 ac f2 ff ff 	movsbl -0xd54(%rbp),%eax
    a815:	8b 95 a4 f2 ff ff    	mov    -0xd5c(%rbp),%edx
    a81b:	89 d6                	mov    %edx,%esi
    a81d:	89 c7                	mov    %eax,%edi
    a81f:	e8 06 9d ff ff       	callq  452a <safe_rshift_func_int16_t_s_s>
    a824:	89 c2                	mov    %eax,%edx
    a826:	48 8b 05 b3 ed 00 00 	mov    0xedb3(%rip),%rax        # 195e0 <g_1991>
    a82d:	0f bf d2             	movswl %dx,%edx
    a830:	89 10                	mov    %edx,(%rax)
    a832:	48 8b 05 ef d8 00 00 	mov    0xd8ef(%rip),%rax        # 18128 <g_2521>
    a839:	48 83 c0 01          	add    $0x1,%rax
    a83d:	48 89 05 e4 d8 00 00 	mov    %rax,0xd8e4(%rip)        # 18128 <g_2521>
    a844:	83 85 e0 f2 ff ff 01 	addl   $0x1,-0xd20(%rbp)
    a84b:	83 bd e0 f2 ff ff 08 	cmpl   $0x8,-0xd20(%rbp)
    a852:	0f 87 e7 eb ff ff    	ja     943f <func_11+0x53c>
    a858:	66 c7 05 47 d8 00 00 	movw   $0x0,0xd847(%rip)        # 180a8 <g_801>
    a85f:	00 00 
    a861:	e9 44 19 00 00       	jmpq   c1aa <func_11+0x32a7>
    a866:	48 c7 85 c0 f4 ff ff 	movq   $0x0,-0xb40(%rbp)
    a86d:	00 00 00 00 
    a871:	48 c7 85 c8 f4 ff ff 	movq   $0x0,-0xb38(%rbp)
    a878:	00 00 00 00 
    a87c:	48 c7 85 d0 f4 ff ff 	movq   $0x0,-0xb30(%rbp)
    a883:	00 00 00 00 
    a887:	48 c7 85 d8 f4 ff ff 	movq   $0x0,-0xb28(%rbp)
    a88e:	00 00 00 00 
    a892:	48 8d 05 9f f3 00 00 	lea    0xf39f(%rip),%rax        # 19c38 <g_220>
    a899:	48 89 85 f0 f3 ff ff 	mov    %rax,-0xc10(%rbp)
    a8a0:	48 8d 05 91 f3 00 00 	lea    0xf391(%rip),%rax        # 19c38 <g_220>
    a8a7:	48 89 85 f8 f3 ff ff 	mov    %rax,-0xc08(%rbp)
    a8ae:	48 8d 05 77 f3 00 00 	lea    0xf377(%rip),%rax        # 19c2c <g_115>
    a8b5:	48 89 85 00 f4 ff ff 	mov    %rax,-0xc00(%rbp)
    a8bc:	48 8d 85 48 f3 ff ff 	lea    -0xcb8(%rbp),%rax
    a8c3:	48 89 85 50 f3 ff ff 	mov    %rax,-0xcb0(%rbp)
    a8ca:	c7 85 2c f3 ff ff 01 	movl   $0x1,-0xcd4(%rbp)
    a8d1:	00 00 00 
    a8d4:	66 c7 85 ca f2 ff ff 	movw   $0xffff,-0xd36(%rbp)
    a8db:	ff ff 
    a8dd:	48 c7 85 58 f3 ff ff 	movq   $0x0,-0xca8(%rbp)
    a8e4:	00 00 00 00 
    a8e8:	48 8d 85 58 f3 ff ff 	lea    -0xca8(%rbp),%rax
    a8ef:	48 89 85 60 f3 ff ff 	mov    %rax,-0xca0(%rbp)
    a8f6:	48 8d 85 60 f3 ff ff 	lea    -0xca0(%rbp),%rax
    a8fd:	48 89 85 70 f6 ff ff 	mov    %rax,-0x990(%rbp)
    a904:	48 c7 85 78 f6 ff ff 	movq   $0x0,-0x988(%rbp)
    a90b:	00 00 00 00 
    a90f:	48 8d 85 60 f3 ff ff 	lea    -0xca0(%rbp),%rax
    a916:	48 89 85 80 f6 ff ff 	mov    %rax,-0x980(%rbp)
    a91d:	48 c7 85 88 f6 ff ff 	movq   $0x0,-0x978(%rbp)
    a924:	00 00 00 00 
    a928:	48 8d 85 60 f3 ff ff 	lea    -0xca0(%rbp),%rax
    a92f:	48 89 85 90 f6 ff ff 	mov    %rax,-0x970(%rbp)
    a936:	48 8d 85 60 f3 ff ff 	lea    -0xca0(%rbp),%rax
    a93d:	48 89 85 98 f6 ff ff 	mov    %rax,-0x968(%rbp)
    a944:	48 8d 85 60 f3 ff ff 	lea    -0xca0(%rbp),%rax
    a94b:	48 89 85 a0 f6 ff ff 	mov    %rax,-0x960(%rbp)
    a952:	48 8d 85 60 f3 ff ff 	lea    -0xca0(%rbp),%rax
    a959:	48 89 85 a8 f6 ff ff 	mov    %rax,-0x958(%rbp)
    a960:	48 c7 85 b0 f6 ff ff 	movq   $0x0,-0x950(%rbp)
    a967:	00 00 00 00 
    a96b:	48 c7 85 b8 f6 ff ff 	movq   $0x0,-0x948(%rbp)
    a972:	00 00 00 00 
    a976:	48 c7 85 c0 f6 ff ff 	movq   $0x0,-0x940(%rbp)
    a97d:	00 00 00 00 
    a981:	48 c7 85 c8 f6 ff ff 	movq   $0x0,-0x938(%rbp)
    a988:	00 00 00 00 
    a98c:	48 8d 85 60 f3 ff ff 	lea    -0xca0(%rbp),%rax
    a993:	48 89 85 d0 f6 ff ff 	mov    %rax,-0x930(%rbp)
    a99a:	48 8d 85 60 f3 ff ff 	lea    -0xca0(%rbp),%rax
    a9a1:	48 89 85 d8 f6 ff ff 	mov    %rax,-0x928(%rbp)
    a9a8:	48 8d 85 60 f3 ff ff 	lea    -0xca0(%rbp),%rax
    a9af:	48 89 85 e0 f6 ff ff 	mov    %rax,-0x920(%rbp)
    a9b6:	48 c7 85 e8 f6 ff ff 	movq   $0x0,-0x918(%rbp)
    a9bd:	00 00 00 00 
    a9c1:	48 c7 85 f0 f6 ff ff 	movq   $0x0,-0x910(%rbp)
    a9c8:	00 00 00 00 
    a9cc:	48 8d 85 60 f3 ff ff 	lea    -0xca0(%rbp),%rax
    a9d3:	48 89 85 f8 f6 ff ff 	mov    %rax,-0x908(%rbp)
    a9da:	48 c7 85 00 f7 ff ff 	movq   $0x0,-0x900(%rbp)
    a9e1:	00 00 00 00 
    a9e5:	48 8d 85 60 f3 ff ff 	lea    -0xca0(%rbp),%rax
    a9ec:	48 89 85 08 f7 ff ff 	mov    %rax,-0x8f8(%rbp)
    a9f3:	48 8d 85 60 f3 ff ff 	lea    -0xca0(%rbp),%rax
    a9fa:	48 89 85 10 f7 ff ff 	mov    %rax,-0x8f0(%rbp)
    aa01:	48 8d 85 60 f3 ff ff 	lea    -0xca0(%rbp),%rax
    aa08:	48 89 85 18 f7 ff ff 	mov    %rax,-0x8e8(%rbp)
    aa0f:	48 8d 85 60 f3 ff ff 	lea    -0xca0(%rbp),%rax
    aa16:	48 89 85 20 f7 ff ff 	mov    %rax,-0x8e0(%rbp)
    aa1d:	48 c7 85 28 f7 ff ff 	movq   $0x0,-0x8d8(%rbp)
    aa24:	00 00 00 00 
    aa28:	48 8d 85 60 f3 ff ff 	lea    -0xca0(%rbp),%rax
    aa2f:	48 89 85 30 f7 ff ff 	mov    %rax,-0x8d0(%rbp)
    aa36:	48 8d 85 60 f3 ff ff 	lea    -0xca0(%rbp),%rax
    aa3d:	48 89 85 38 f7 ff ff 	mov    %rax,-0x8c8(%rbp)
    aa44:	48 8d 85 60 f3 ff ff 	lea    -0xca0(%rbp),%rax
    aa4b:	48 89 85 40 f7 ff ff 	mov    %rax,-0x8c0(%rbp)
    aa52:	48 8d 85 60 f3 ff ff 	lea    -0xca0(%rbp),%rax
    aa59:	48 89 85 48 f7 ff ff 	mov    %rax,-0x8b8(%rbp)
    aa60:	48 c7 85 50 f7 ff ff 	movq   $0x0,-0x8b0(%rbp)
    aa67:	00 00 00 00 
    aa6b:	48 8d 85 60 f3 ff ff 	lea    -0xca0(%rbp),%rax
    aa72:	48 89 85 58 f7 ff ff 	mov    %rax,-0x8a8(%rbp)
    aa79:	48 8d 85 60 f3 ff ff 	lea    -0xca0(%rbp),%rax
    aa80:	48 89 85 60 f7 ff ff 	mov    %rax,-0x8a0(%rbp)
    aa87:	48 8d 85 60 f3 ff ff 	lea    -0xca0(%rbp),%rax
    aa8e:	48 89 85 68 f7 ff ff 	mov    %rax,-0x898(%rbp)
    aa95:	48 8d 85 60 f3 ff ff 	lea    -0xca0(%rbp),%rax
    aa9c:	48 89 85 70 f7 ff ff 	mov    %rax,-0x890(%rbp)
    aaa3:	48 c7 85 78 f7 ff ff 	movq   $0x0,-0x888(%rbp)
    aaaa:	00 00 00 00 
    aaae:	48 8d 85 60 f3 ff ff 	lea    -0xca0(%rbp),%rax
    aab5:	48 89 85 80 f7 ff ff 	mov    %rax,-0x880(%rbp)
    aabc:	48 8d 85 60 f3 ff ff 	lea    -0xca0(%rbp),%rax
    aac3:	48 89 85 88 f7 ff ff 	mov    %rax,-0x878(%rbp)
    aaca:	48 8d 85 60 f3 ff ff 	lea    -0xca0(%rbp),%rax
    aad1:	48 89 85 90 f7 ff ff 	mov    %rax,-0x870(%rbp)
    aad8:	48 8d 85 60 f3 ff ff 	lea    -0xca0(%rbp),%rax
    aadf:	48 89 85 98 f7 ff ff 	mov    %rax,-0x868(%rbp)
    aae6:	48 c7 85 a0 f7 ff ff 	movq   $0x0,-0x860(%rbp)
    aaed:	00 00 00 00 
    aaf1:	48 8d 85 60 f3 ff ff 	lea    -0xca0(%rbp),%rax
    aaf8:	48 89 85 a8 f7 ff ff 	mov    %rax,-0x858(%rbp)
    aaff:	48 8b 05 22 d6 00 00 	mov    0xd622(%rip),%rax        # 18128 <g_2521>
    ab06:	89 05 18 d6 00 00    	mov    %eax,0xd618(%rip)        # 18124 <g_2443>
    ab0c:	48 8b 05 fd e8 00 00 	mov    0xe8fd(%rip),%rax        # 19410 <g_1392>
    ab13:	48 8b 00             	mov    (%rax),%rax
    ab16:	0f b6 00             	movzbl (%rax),%eax
    ab19:	0f be c0             	movsbl %al,%eax
    ab1c:	89 c7                	mov    %eax,%edi
    ab1e:	e8 9c 96 ff ff       	callq  41bf <safe_unary_minus_func_int8_t_s>
    ab23:	0f be c0             	movsbl %al,%eax
    ab26:	89 c6                	mov    %eax,%esi
    ab28:	bf ff ff ff ff       	mov    $0xffffffff,%edi
    ab2d:	e8 e4 98 ff ff       	callq  4416 <safe_mod_func_int16_t_s_s>
    ab32:	98                   	cwtl   
    ab33:	39 85 a4 f2 ff ff    	cmp    %eax,-0xd5c(%rbp)
    ab39:	48 8b 05 d0 e8 00 00 	mov    0xe8d0(%rip),%rax        # 19410 <g_1392>
    ab40:	48 8b 00             	mov    (%rax),%rax
    ab43:	0f b6 00             	movzbl (%rax),%eax
    ab46:	0f be d0             	movsbl %al,%edx
    ab49:	8b 05 f9 d4 00 00    	mov    0xd4f9(%rip),%eax        # 18048 <g_119>
    ab4f:	0f b6 c0             	movzbl %al,%eax
    ab52:	89 d6                	mov    %edx,%esi
    ab54:	89 c7                	mov    %eax,%edi
    ab56:	e8 aa a0 ff ff       	callq  4c05 <safe_lshift_func_uint8_t_u_s>
    ab5b:	48 8b 95 c0 f4 ff ff 	mov    -0xb40(%rbp),%rdx
    ab62:	48 8b 85 d0 f4 ff ff 	mov    -0xb30(%rbp),%rax
    ab69:	48 39 c2             	cmp    %rax,%rdx
    ab6c:	0f 95 c0             	setne  %al
    ab6f:	0f b6 c0             	movzbl %al,%eax
    ab72:	89 c6                	mov    %eax,%esi
    ab74:	bf 59 c3 ff ff       	mov    $0xffffc359,%edi
    ab79:	e8 63 99 ff ff       	callq  44e1 <safe_lshift_func_int16_t_s_u>
    ab7e:	b9 c5 00 00 00       	mov    $0xc5,%ecx
    ab83:	48 8b 05 96 ea 00 00 	mov    0xea96(%rip),%rax        # 19620 <g_2335>
    ab8a:	8b 10                	mov    (%rax),%edx
    ab8c:	48 8b 05 8d ea 00 00 	mov    0xea8d(%rip),%rax        # 19620 <g_2335>
    ab93:	31 ca                	xor    %ecx,%edx
    ab95:	89 10                	mov    %edx,(%rax)
    ab97:	80 bd ac f2 ff ff 00 	cmpb   $0x0,-0xd54(%rbp)
    ab9e:	0f 85 19 16 00 00    	jne    c1bd <func_11+0x32ba>
    aba4:	c7 05 2a d5 00 00 00 	movl   $0x0,0xd52a(%rip)        # 180d8 <g_1618>
    abab:	00 00 00 
    abae:	e9 d7 15 00 00       	jmpq   c18a <func_11+0x3287>
    abb3:	48 8d 05 2e ea 00 00 	lea    0xea2e(%rip),%rax        # 195e8 <g_2106>
    abba:	48 89 85 08 f4 ff ff 	mov    %rax,-0xbf8(%rbp)
    abc1:	c7 85 e8 f2 ff ff f7 	movl   $0xfffffff7,-0xd18(%rbp)
    abc8:	ff ff ff 
    abcb:	c6 85 c2 f2 ff ff fa 	movb   $0xfa,-0xd3e(%rbp)
    abd2:	48 8d 05 d1 d4 00 00 	lea    0xd4d1(%rip),%rax        # 180aa <g_843>
    abd9:	48 89 85 68 f3 ff ff 	mov    %rax,-0xc98(%rbp)
    abe0:	48 8d 85 68 f3 ff ff 	lea    -0xc98(%rbp),%rax
    abe7:	48 89 85 70 f3 ff ff 	mov    %rax,-0xc90(%rbp)
    abee:	48 8d 85 70 f3 ff ff 	lea    -0xc90(%rbp),%rax
    abf5:	48 89 85 10 f4 ff ff 	mov    %rax,-0xbf0(%rbp)
    abfc:	48 8d 05 35 d4 00 00 	lea    0xd435(%rip),%rax        # 18038 <g_24>
    ac03:	48 89 85 18 f4 ff ff 	mov    %rax,-0xbe8(%rbp)
    ac0a:	0f b7 05 9f f0 00 00 	movzwl 0xf09f(%rip),%eax        # 19cb0 <g_2547>
    ac11:	0f b7 d8             	movzwl %ax,%ebx
    ac14:	48 8b 05 ed e7 00 00 	mov    0xe7ed(%rip),%rax        # 19408 <g_1393>
    ac1b:	0f b6 00             	movzbl (%rax),%eax
    ac1e:	44 0f be e0          	movsbl %al,%r12d
    ac22:	44 0f bf ad a8 f2 ff 	movswl -0xd58(%rbp),%r13d
    ac29:	ff 
    ac2a:	48 8b 05 ef e6 00 00 	mov    0xe6ef(%rip),%rax        # 19320 <g_695>
    ac31:	48 8b 00             	mov    (%rax),%rax
    ac34:	0f b7 00             	movzwl (%rax),%eax
    ac37:	0f b7 c0             	movzwl %ax,%eax
    ac3a:	be 05 00 00 00       	mov    $0x5,%esi
    ac3f:	89 c7                	mov    %eax,%edi
    ac41:	e8 c0 a1 ff ff       	callq  4e06 <safe_lshift_func_uint16_t_u_u>
    ac46:	48 8b 05 d3 e9 00 00 	mov    0xe9d3(%rip),%rax        # 19620 <g_2335>
    ac4d:	8b 10                	mov    (%rax),%edx
    ac4f:	48 8b 05 ca e9 00 00 	mov    0xe9ca(%rip),%rax        # 19620 <g_2335>
    ac56:	81 e2 46 7f 62 c2    	and    $0xc2627f46,%edx
    ac5c:	89 10                	mov    %edx,(%rax)
    ac5e:	48 8b 05 83 e9 00 00 	mov    0xe983(%rip),%rax        # 195e8 <g_2106>
    ac65:	48 c7 00 00 00 00 00 	movq   $0x0,(%rax)
    ac6c:	8b 85 e8 f2 ff ff    	mov    -0xd18(%rbp),%eax
    ac72:	89 c6                	mov    %eax,%esi
    ac74:	bf 01 64 35 c2       	mov    $0xc2356401,%edi
    ac79:	e8 4e 9a ff ff       	callq  46cc <safe_mod_func_int32_t_s_s>
    ac7e:	98                   	cwtl   
    ac7f:	44 89 ee             	mov    %r13d,%esi
    ac82:	89 c7                	mov    %eax,%edi
    ac84:	e8 6c 97 ff ff       	callq  43f5 <safe_mul_func_int16_t_s_s>
    ac89:	0f b6 85 ac f2 ff ff 	movzbl -0xd54(%rbp),%eax
    ac90:	83 e0 a2             	and    $0xffffffa2,%eax
    ac93:	83 c8 01             	or     $0x1,%eax
    ac96:	0f be c0             	movsbl %al,%eax
    ac99:	44 89 e6             	mov    %r12d,%esi
    ac9c:	89 c7                	mov    %eax,%edi
    ac9e:	e8 31 95 ff ff       	callq  41d4 <safe_add_func_int8_t_s_s>
    aca3:	48 8b 05 76 e9 00 00 	mov    0xe976(%rip),%rax        # 19620 <g_2335>
    acaa:	8b 00                	mov    (%rax),%eax
    acac:	85 c0                	test   %eax,%eax
    acae:	74 07                	je     acb7 <func_11+0x1db4>
    acb0:	b8 01 00 00 00       	mov    $0x1,%eax
    acb5:	eb 05                	jmp    acbc <func_11+0x1db9>
    acb7:	b8 00 00 00 00       	mov    $0x0,%eax
    acbc:	89 de                	mov    %ebx,%esi
    acbe:	89 c7                	mov    %eax,%edi
    acc0:	e8 38 a2 ff ff       	callq  4efd <safe_mod_func_uint32_t_u_u>
    acc5:	0f b6 95 c2 f2 ff ff 	movzbl -0xd3e(%rbp),%edx
    accc:	09 c2                	or     %eax,%edx
    acce:	48 8b 05 43 e6 00 00 	mov    0xe643(%rip),%rax        # 19318 <g_412>
    acd5:	0f b7 00             	movzwl (%rax),%eax
    acd8:	0f b7 c0             	movzwl %ax,%eax
    acdb:	39 c2                	cmp    %eax,%edx
    acdd:	0f 96 c0             	setbe  %al
    ace0:	0f b6 c0             	movzbl %al,%eax
    ace3:	89 c6                	mov    %eax,%esi
    ace5:	bf 29 00 00 00       	mov    $0x29,%edi
    acea:	e8 a4 9e ff ff       	callq  4b93 <safe_mul_func_uint8_t_u_u>
    acef:	48 8b 15 e2 e8 00 00 	mov    0xe8e2(%rip),%rdx        # 195d8 <g_1900>
    acf6:	8b 0a                	mov    (%rdx),%ecx
    acf8:	0f b6 d0             	movzbl %al,%edx
    acfb:	48 8b 05 d6 e8 00 00 	mov    0xe8d6(%rip),%rax        # 195d8 <g_1900>
    ad02:	21 ca                	and    %ecx,%edx
    ad04:	89 10                	mov    %edx,(%rax)
    ad06:	66 c7 05 81 d3 00 00 	movw   $0x0,0xd381(%rip)        # 18090 <g_413>
    ad0d:	00 00 
    ad0f:	e9 08 0c 00 00       	jmpq   b91c <func_11+0x2a19>
    ad14:	c6 85 c3 f2 ff ff f5 	movb   $0xf5,-0xd3d(%rbp)
    ad1b:	48 8d 05 46 ef 00 00 	lea    0xef46(%rip),%rax        # 19c68 <g_2081>
    ad22:	48 89 85 40 f4 ff ff 	mov    %rax,-0xbc0(%rbp)
    ad29:	48 8d 05 00 d4 00 00 	lea    0xd400(%rip),%rax        # 18130 <g_2572>
    ad30:	48 89 85 78 f3 ff ff 	mov    %rax,-0xc88(%rbp)
    ad37:	48 8d 85 78 f3 ff ff 	lea    -0xc88(%rbp),%rax
    ad3e:	48 89 85 30 f9 ff ff 	mov    %rax,-0x6d0(%rbp)
    ad45:	48 8d 85 78 f3 ff ff 	lea    -0xc88(%rbp),%rax
    ad4c:	48 89 85 38 f9 ff ff 	mov    %rax,-0x6c8(%rbp)
    ad53:	48 c7 85 40 f9 ff ff 	movq   $0x0,-0x6c0(%rbp)
    ad5a:	00 00 00 00 
    ad5e:	48 c7 85 48 f9 ff ff 	movq   $0x0,-0x6b8(%rbp)
    ad65:	00 00 00 00 
    ad69:	48 8d 85 78 f3 ff ff 	lea    -0xc88(%rbp),%rax
    ad70:	48 89 85 50 f9 ff ff 	mov    %rax,-0x6b0(%rbp)
    ad77:	48 8d 85 78 f3 ff ff 	lea    -0xc88(%rbp),%rax
    ad7e:	48 89 85 58 f9 ff ff 	mov    %rax,-0x6a8(%rbp)
    ad85:	48 8d 85 78 f3 ff ff 	lea    -0xc88(%rbp),%rax
    ad8c:	48 89 85 60 f9 ff ff 	mov    %rax,-0x6a0(%rbp)
    ad93:	48 c7 85 68 f9 ff ff 	movq   $0x0,-0x698(%rbp)
    ad9a:	00 00 00 00 
    ad9e:	48 8d 85 78 f3 ff ff 	lea    -0xc88(%rbp),%rax
    ada5:	48 89 85 70 f9 ff ff 	mov    %rax,-0x690(%rbp)
    adac:	48 8d 85 78 f3 ff ff 	lea    -0xc88(%rbp),%rax
    adb3:	48 89 85 78 f9 ff ff 	mov    %rax,-0x688(%rbp)
    adba:	48 c7 85 80 f9 ff ff 	movq   $0x0,-0x680(%rbp)
    adc1:	00 00 00 00 
    adc5:	48 8d 85 78 f3 ff ff 	lea    -0xc88(%rbp),%rax
    adcc:	48 89 85 88 f9 ff ff 	mov    %rax,-0x678(%rbp)
    add3:	48 8d 85 78 f3 ff ff 	lea    -0xc88(%rbp),%rax
    adda:	48 89 85 90 f9 ff ff 	mov    %rax,-0x670(%rbp)
    ade1:	48 8d 85 78 f3 ff ff 	lea    -0xc88(%rbp),%rax
    ade8:	48 89 85 98 f9 ff ff 	mov    %rax,-0x668(%rbp)
    adef:	48 c7 85 a0 f9 ff ff 	movq   $0x0,-0x660(%rbp)
    adf6:	00 00 00 00 
    adfa:	48 8d 85 78 f3 ff ff 	lea    -0xc88(%rbp),%rax
    ae01:	48 89 85 a8 f9 ff ff 	mov    %rax,-0x658(%rbp)
    ae08:	48 8d 85 78 f3 ff ff 	lea    -0xc88(%rbp),%rax
    ae0f:	48 89 85 b0 f9 ff ff 	mov    %rax,-0x650(%rbp)
    ae16:	48 8d 85 78 f3 ff ff 	lea    -0xc88(%rbp),%rax
    ae1d:	48 89 85 b8 f9 ff ff 	mov    %rax,-0x648(%rbp)
    ae24:	48 8d 85 78 f3 ff ff 	lea    -0xc88(%rbp),%rax
    ae2b:	48 89 85 c0 f9 ff ff 	mov    %rax,-0x640(%rbp)
    ae32:	48 c7 85 c8 f9 ff ff 	movq   $0x0,-0x638(%rbp)
    ae39:	00 00 00 00 
    ae3d:	48 8d 85 78 f3 ff ff 	lea    -0xc88(%rbp),%rax
    ae44:	48 89 85 d0 f9 ff ff 	mov    %rax,-0x630(%rbp)
    ae4b:	48 8d 85 78 f3 ff ff 	lea    -0xc88(%rbp),%rax
    ae52:	48 89 85 d8 f9 ff ff 	mov    %rax,-0x628(%rbp)
    ae59:	48 8d 85 78 f3 ff ff 	lea    -0xc88(%rbp),%rax
    ae60:	48 89 85 e0 f9 ff ff 	mov    %rax,-0x620(%rbp)
    ae67:	48 8d 85 78 f3 ff ff 	lea    -0xc88(%rbp),%rax
    ae6e:	48 89 85 e8 f9 ff ff 	mov    %rax,-0x618(%rbp)
    ae75:	48 8d 85 78 f3 ff ff 	lea    -0xc88(%rbp),%rax
    ae7c:	48 89 85 f0 f9 ff ff 	mov    %rax,-0x610(%rbp)
    ae83:	48 8d 85 78 f3 ff ff 	lea    -0xc88(%rbp),%rax
    ae8a:	48 89 85 f8 f9 ff ff 	mov    %rax,-0x608(%rbp)
    ae91:	48 8d 85 78 f3 ff ff 	lea    -0xc88(%rbp),%rax
    ae98:	48 89 85 00 fa ff ff 	mov    %rax,-0x600(%rbp)
    ae9f:	48 8d 85 78 f3 ff ff 	lea    -0xc88(%rbp),%rax
    aea6:	48 89 85 08 fa ff ff 	mov    %rax,-0x5f8(%rbp)
    aead:	48 8d 85 78 f3 ff ff 	lea    -0xc88(%rbp),%rax
    aeb4:	48 89 85 10 fa ff ff 	mov    %rax,-0x5f0(%rbp)
    aebb:	48 8d 85 78 f3 ff ff 	lea    -0xc88(%rbp),%rax
    aec2:	48 89 85 18 fa ff ff 	mov    %rax,-0x5e8(%rbp)
    aec9:	48 8d 85 78 f3 ff ff 	lea    -0xc88(%rbp),%rax
    aed0:	48 89 85 20 fa ff ff 	mov    %rax,-0x5e0(%rbp)
    aed7:	48 c7 85 28 fa ff ff 	movq   $0x0,-0x5d8(%rbp)
    aede:	00 00 00 00 
    aee2:	48 8d 85 78 f3 ff ff 	lea    -0xc88(%rbp),%rax
    aee9:	48 89 85 30 fa ff ff 	mov    %rax,-0x5d0(%rbp)
    aef0:	48 8d 85 78 f3 ff ff 	lea    -0xc88(%rbp),%rax
    aef7:	48 89 85 38 fa ff ff 	mov    %rax,-0x5c8(%rbp)
    aefe:	48 8d 85 78 f3 ff ff 	lea    -0xc88(%rbp),%rax
    af05:	48 89 85 40 fa ff ff 	mov    %rax,-0x5c0(%rbp)
    af0c:	48 8d 85 78 f3 ff ff 	lea    -0xc88(%rbp),%rax
    af13:	48 89 85 48 fa ff ff 	mov    %rax,-0x5b8(%rbp)
    af1a:	48 8d 85 78 f3 ff ff 	lea    -0xc88(%rbp),%rax
    af21:	48 89 85 50 fa ff ff 	mov    %rax,-0x5b0(%rbp)
    af28:	48 8d 85 78 f3 ff ff 	lea    -0xc88(%rbp),%rax
    af2f:	48 89 85 58 fa ff ff 	mov    %rax,-0x5a8(%rbp)
    af36:	48 8d 85 78 f3 ff ff 	lea    -0xc88(%rbp),%rax
    af3d:	48 89 85 60 fa ff ff 	mov    %rax,-0x5a0(%rbp)
    af44:	48 8d 85 78 f3 ff ff 	lea    -0xc88(%rbp),%rax
    af4b:	48 89 85 68 fa ff ff 	mov    %rax,-0x598(%rbp)
    af52:	48 8d 85 78 f3 ff ff 	lea    -0xc88(%rbp),%rax
    af59:	48 89 85 70 fa ff ff 	mov    %rax,-0x590(%rbp)
    af60:	48 8d 85 78 f3 ff ff 	lea    -0xc88(%rbp),%rax
    af67:	48 89 85 78 fa ff ff 	mov    %rax,-0x588(%rbp)
    af6e:	48 c7 85 80 fa ff ff 	movq   $0x0,-0x580(%rbp)
    af75:	00 00 00 00 
    af79:	48 c7 85 88 fa ff ff 	movq   $0x0,-0x578(%rbp)
    af80:	00 00 00 00 
    af84:	48 8d 85 78 f3 ff ff 	lea    -0xc88(%rbp),%rax
    af8b:	48 89 85 90 fa ff ff 	mov    %rax,-0x570(%rbp)
    af92:	48 8d 85 78 f3 ff ff 	lea    -0xc88(%rbp),%rax
    af99:	48 89 85 98 fa ff ff 	mov    %rax,-0x568(%rbp)
    afa0:	48 8d 85 78 f3 ff ff 	lea    -0xc88(%rbp),%rax
    afa7:	48 89 85 a0 fa ff ff 	mov    %rax,-0x560(%rbp)
    afae:	48 c7 85 a8 fa ff ff 	movq   $0x0,-0x558(%rbp)
    afb5:	00 00 00 00 
    afb9:	48 8d 85 78 f3 ff ff 	lea    -0xc88(%rbp),%rax
    afc0:	48 89 85 b0 fa ff ff 	mov    %rax,-0x550(%rbp)
    afc7:	48 8d 85 78 f3 ff ff 	lea    -0xc88(%rbp),%rax
    afce:	48 89 85 b8 fa ff ff 	mov    %rax,-0x548(%rbp)
    afd5:	48 8d 85 78 f3 ff ff 	lea    -0xc88(%rbp),%rax
    afdc:	48 89 85 c0 fa ff ff 	mov    %rax,-0x540(%rbp)
    afe3:	48 c7 85 c8 fa ff ff 	movq   $0x0,-0x538(%rbp)
    afea:	00 00 00 00 
    afee:	48 8d 85 78 f3 ff ff 	lea    -0xc88(%rbp),%rax
    aff5:	48 89 85 d0 fa ff ff 	mov    %rax,-0x530(%rbp)
    affc:	48 8d 85 78 f3 ff ff 	lea    -0xc88(%rbp),%rax
    b003:	48 89 85 d8 fa ff ff 	mov    %rax,-0x528(%rbp)
    b00a:	48 c7 85 e0 fa ff ff 	movq   $0x0,-0x520(%rbp)
    b011:	00 00 00 00 
    b015:	48 c7 85 e8 fa ff ff 	movq   $0x0,-0x518(%rbp)
    b01c:	00 00 00 00 
    b020:	48 c7 85 f0 fa ff ff 	movq   $0x0,-0x510(%rbp)
    b027:	00 00 00 00 
    b02b:	48 8d 85 78 f3 ff ff 	lea    -0xc88(%rbp),%rax
    b032:	48 89 85 f8 fa ff ff 	mov    %rax,-0x508(%rbp)
    b039:	48 8d 85 78 f3 ff ff 	lea    -0xc88(%rbp),%rax
    b040:	48 89 85 00 fb ff ff 	mov    %rax,-0x500(%rbp)
    b047:	48 8d 85 78 f3 ff ff 	lea    -0xc88(%rbp),%rax
    b04e:	48 89 85 08 fb ff ff 	mov    %rax,-0x4f8(%rbp)
    b055:	48 8d 85 78 f3 ff ff 	lea    -0xc88(%rbp),%rax
    b05c:	48 89 85 10 fb ff ff 	mov    %rax,-0x4f0(%rbp)
    b063:	48 8d 85 78 f3 ff ff 	lea    -0xc88(%rbp),%rax
    b06a:	48 89 85 18 fb ff ff 	mov    %rax,-0x4e8(%rbp)
    b071:	48 8d 85 78 f3 ff ff 	lea    -0xc88(%rbp),%rax
    b078:	48 89 85 20 fb ff ff 	mov    %rax,-0x4e0(%rbp)
    b07f:	48 8d 85 78 f3 ff ff 	lea    -0xc88(%rbp),%rax
    b086:	48 89 85 28 fb ff ff 	mov    %rax,-0x4d8(%rbp)
    b08d:	48 c7 85 30 fb ff ff 	movq   $0x0,-0x4d0(%rbp)
    b094:	00 00 00 00 
    b098:	48 8d 85 78 f3 ff ff 	lea    -0xc88(%rbp),%rax
    b09f:	48 89 85 38 fb ff ff 	mov    %rax,-0x4c8(%rbp)
    b0a6:	48 8d 85 78 f3 ff ff 	lea    -0xc88(%rbp),%rax
    b0ad:	48 89 85 40 fb ff ff 	mov    %rax,-0x4c0(%rbp)
    b0b4:	48 c7 85 48 fb ff ff 	movq   $0x0,-0x4b8(%rbp)
    b0bb:	00 00 00 00 
    b0bf:	48 8d 85 78 f3 ff ff 	lea    -0xc88(%rbp),%rax
    b0c6:	48 89 85 50 fb ff ff 	mov    %rax,-0x4b0(%rbp)
    b0cd:	48 8d 85 78 f3 ff ff 	lea    -0xc88(%rbp),%rax
    b0d4:	48 89 85 58 fb ff ff 	mov    %rax,-0x4a8(%rbp)
    b0db:	48 8d 85 78 f3 ff ff 	lea    -0xc88(%rbp),%rax
    b0e2:	48 89 85 60 fb ff ff 	mov    %rax,-0x4a0(%rbp)
    b0e9:	48 8d 85 78 f3 ff ff 	lea    -0xc88(%rbp),%rax
    b0f0:	48 89 85 68 fb ff ff 	mov    %rax,-0x498(%rbp)
    b0f7:	48 8d 85 78 f3 ff ff 	lea    -0xc88(%rbp),%rax
    b0fe:	48 89 85 70 fb ff ff 	mov    %rax,-0x490(%rbp)
    b105:	48 8d 85 78 f3 ff ff 	lea    -0xc88(%rbp),%rax
    b10c:	48 89 85 78 fb ff ff 	mov    %rax,-0x488(%rbp)
    b113:	48 8d 85 78 f3 ff ff 	lea    -0xc88(%rbp),%rax
    b11a:	48 89 85 80 fb ff ff 	mov    %rax,-0x480(%rbp)
    b121:	48 8d 85 78 f3 ff ff 	lea    -0xc88(%rbp),%rax
    b128:	48 89 85 88 fb ff ff 	mov    %rax,-0x478(%rbp)
    b12f:	48 8d 85 78 f3 ff ff 	lea    -0xc88(%rbp),%rax
    b136:	48 89 85 90 fb ff ff 	mov    %rax,-0x470(%rbp)
    b13d:	48 8d 85 78 f3 ff ff 	lea    -0xc88(%rbp),%rax
    b144:	48 89 85 98 fb ff ff 	mov    %rax,-0x468(%rbp)
    b14b:	48 c7 85 a0 fb ff ff 	movq   $0x0,-0x460(%rbp)
    b152:	00 00 00 00 
    b156:	48 8d 85 78 f3 ff ff 	lea    -0xc88(%rbp),%rax
    b15d:	48 89 85 a8 fb ff ff 	mov    %rax,-0x458(%rbp)
    b164:	48 8d 85 78 f3 ff ff 	lea    -0xc88(%rbp),%rax
    b16b:	48 89 85 b0 fb ff ff 	mov    %rax,-0x450(%rbp)
    b172:	48 c7 85 b8 fb ff ff 	movq   $0x0,-0x448(%rbp)
    b179:	00 00 00 00 
    b17d:	48 8d 85 78 f3 ff ff 	lea    -0xc88(%rbp),%rax
    b184:	48 89 85 c0 fb ff ff 	mov    %rax,-0x440(%rbp)
    b18b:	48 8d 85 78 f3 ff ff 	lea    -0xc88(%rbp),%rax
    b192:	48 89 85 c8 fb ff ff 	mov    %rax,-0x438(%rbp)
    b199:	48 8d 85 78 f3 ff ff 	lea    -0xc88(%rbp),%rax
    b1a0:	48 89 85 d0 fb ff ff 	mov    %rax,-0x430(%rbp)
    b1a7:	48 8d 85 78 f3 ff ff 	lea    -0xc88(%rbp),%rax
    b1ae:	48 89 85 d8 fb ff ff 	mov    %rax,-0x428(%rbp)
    b1b5:	48 8d 85 78 f3 ff ff 	lea    -0xc88(%rbp),%rax
    b1bc:	48 89 85 e0 fb ff ff 	mov    %rax,-0x420(%rbp)
    b1c3:	48 8d 85 78 f3 ff ff 	lea    -0xc88(%rbp),%rax
    b1ca:	48 89 85 e8 fb ff ff 	mov    %rax,-0x418(%rbp)
    b1d1:	48 8d 85 78 f3 ff ff 	lea    -0xc88(%rbp),%rax
    b1d8:	48 89 85 f0 fb ff ff 	mov    %rax,-0x410(%rbp)
    b1df:	48 c7 85 f8 fb ff ff 	movq   $0x0,-0x408(%rbp)
    b1e6:	00 00 00 00 
    b1ea:	48 c7 85 00 fc ff ff 	movq   $0x0,-0x400(%rbp)
    b1f1:	00 00 00 00 
    b1f5:	48 8d 85 78 f3 ff ff 	lea    -0xc88(%rbp),%rax
    b1fc:	48 89 85 08 fc ff ff 	mov    %rax,-0x3f8(%rbp)
    b203:	48 8d 85 78 f3 ff ff 	lea    -0xc88(%rbp),%rax
    b20a:	48 89 85 10 fc ff ff 	mov    %rax,-0x3f0(%rbp)
    b211:	48 8d 85 78 f3 ff ff 	lea    -0xc88(%rbp),%rax
    b218:	48 89 85 18 fc ff ff 	mov    %rax,-0x3e8(%rbp)
    b21f:	48 c7 85 20 fc ff ff 	movq   $0x0,-0x3e0(%rbp)
    b226:	00 00 00 00 
    b22a:	48 8d 85 78 f3 ff ff 	lea    -0xc88(%rbp),%rax
    b231:	48 89 85 28 fc ff ff 	mov    %rax,-0x3d8(%rbp)
    b238:	48 8d 85 78 f3 ff ff 	lea    -0xc88(%rbp),%rax
    b23f:	48 89 85 30 fc ff ff 	mov    %rax,-0x3d0(%rbp)
    b246:	48 c7 85 38 fc ff ff 	movq   $0x0,-0x3c8(%rbp)
    b24d:	00 00 00 00 
    b251:	48 8d 85 78 f3 ff ff 	lea    -0xc88(%rbp),%rax
    b258:	48 89 85 40 fc ff ff 	mov    %rax,-0x3c0(%rbp)
    b25f:	48 8d 85 78 f3 ff ff 	lea    -0xc88(%rbp),%rax
    b266:	48 89 85 48 fc ff ff 	mov    %rax,-0x3b8(%rbp)
    b26d:	48 8d 85 78 f3 ff ff 	lea    -0xc88(%rbp),%rax
    b274:	48 89 85 50 fc ff ff 	mov    %rax,-0x3b0(%rbp)
    b27b:	48 c7 85 58 fc ff ff 	movq   $0x0,-0x3a8(%rbp)
    b282:	00 00 00 00 
    b286:	48 8d 85 78 f3 ff ff 	lea    -0xc88(%rbp),%rax
    b28d:	48 89 85 60 fc ff ff 	mov    %rax,-0x3a0(%rbp)
    b294:	48 8d 85 78 f3 ff ff 	lea    -0xc88(%rbp),%rax
    b29b:	48 89 85 68 fc ff ff 	mov    %rax,-0x398(%rbp)
    b2a2:	48 8d 85 78 f3 ff ff 	lea    -0xc88(%rbp),%rax
    b2a9:	48 89 85 70 fc ff ff 	mov    %rax,-0x390(%rbp)
    b2b0:	48 8d 85 78 f3 ff ff 	lea    -0xc88(%rbp),%rax
    b2b7:	48 89 85 78 fc ff ff 	mov    %rax,-0x388(%rbp)
    b2be:	48 c7 85 80 fc ff ff 	movq   $0x0,-0x380(%rbp)
    b2c5:	00 00 00 00 
    b2c9:	48 8d 85 78 f3 ff ff 	lea    -0xc88(%rbp),%rax
    b2d0:	48 89 85 88 fc ff ff 	mov    %rax,-0x378(%rbp)
    b2d7:	48 8d 85 78 f3 ff ff 	lea    -0xc88(%rbp),%rax
    b2de:	48 89 85 90 fc ff ff 	mov    %rax,-0x370(%rbp)
    b2e5:	48 8d 85 78 f3 ff ff 	lea    -0xc88(%rbp),%rax
    b2ec:	48 89 85 98 fc ff ff 	mov    %rax,-0x368(%rbp)
    b2f3:	48 8d 85 78 f3 ff ff 	lea    -0xc88(%rbp),%rax
    b2fa:	48 89 85 a0 fc ff ff 	mov    %rax,-0x360(%rbp)
    b301:	48 8d 85 78 f3 ff ff 	lea    -0xc88(%rbp),%rax
    b308:	48 89 85 a8 fc ff ff 	mov    %rax,-0x358(%rbp)
    b30f:	48 8d 85 78 f3 ff ff 	lea    -0xc88(%rbp),%rax
    b316:	48 89 85 b0 fc ff ff 	mov    %rax,-0x350(%rbp)
    b31d:	48 8d 85 78 f3 ff ff 	lea    -0xc88(%rbp),%rax
    b324:	48 89 85 b8 fc ff ff 	mov    %rax,-0x348(%rbp)
    b32b:	48 8d 85 78 f3 ff ff 	lea    -0xc88(%rbp),%rax
    b332:	48 89 85 c0 fc ff ff 	mov    %rax,-0x340(%rbp)
    b339:	48 8d 85 78 f3 ff ff 	lea    -0xc88(%rbp),%rax
    b340:	48 89 85 c8 fc ff ff 	mov    %rax,-0x338(%rbp)
    b347:	48 8d 85 78 f3 ff ff 	lea    -0xc88(%rbp),%rax
    b34e:	48 89 85 d0 fc ff ff 	mov    %rax,-0x330(%rbp)
    b355:	48 8d 85 78 f3 ff ff 	lea    -0xc88(%rbp),%rax
    b35c:	48 89 85 d8 fc ff ff 	mov    %rax,-0x328(%rbp)
    b363:	48 c7 85 e0 fc ff ff 	movq   $0x0,-0x320(%rbp)
    b36a:	00 00 00 00 
    b36e:	48 8d 85 78 f3 ff ff 	lea    -0xc88(%rbp),%rax
    b375:	48 89 85 e8 fc ff ff 	mov    %rax,-0x318(%rbp)
    b37c:	48 8d 85 78 f3 ff ff 	lea    -0xc88(%rbp),%rax
    b383:	48 89 85 f0 fc ff ff 	mov    %rax,-0x310(%rbp)
    b38a:	48 8d 85 78 f3 ff ff 	lea    -0xc88(%rbp),%rax
    b391:	48 89 85 f8 fc ff ff 	mov    %rax,-0x308(%rbp)
    b398:	48 8d 85 78 f3 ff ff 	lea    -0xc88(%rbp),%rax
    b39f:	48 89 85 00 fd ff ff 	mov    %rax,-0x300(%rbp)
    b3a6:	48 8d 85 78 f3 ff ff 	lea    -0xc88(%rbp),%rax
    b3ad:	48 89 85 08 fd ff ff 	mov    %rax,-0x2f8(%rbp)
    b3b4:	48 8d 85 78 f3 ff ff 	lea    -0xc88(%rbp),%rax
    b3bb:	48 89 85 10 fd ff ff 	mov    %rax,-0x2f0(%rbp)
    b3c2:	48 8d 85 78 f3 ff ff 	lea    -0xc88(%rbp),%rax
    b3c9:	48 89 85 18 fd ff ff 	mov    %rax,-0x2e8(%rbp)
    b3d0:	48 8d 85 78 f3 ff ff 	lea    -0xc88(%rbp),%rax
    b3d7:	48 89 85 20 fd ff ff 	mov    %rax,-0x2e0(%rbp)
    b3de:	48 8d 85 78 f3 ff ff 	lea    -0xc88(%rbp),%rax
    b3e5:	48 89 85 28 fd ff ff 	mov    %rax,-0x2d8(%rbp)
    b3ec:	48 8d 85 78 f3 ff ff 	lea    -0xc88(%rbp),%rax
    b3f3:	48 89 85 30 fd ff ff 	mov    %rax,-0x2d0(%rbp)
    b3fa:	48 c7 85 38 fd ff ff 	movq   $0x0,-0x2c8(%rbp)
    b401:	00 00 00 00 
    b405:	48 c7 85 40 fd ff ff 	movq   $0x0,-0x2c0(%rbp)
    b40c:	00 00 00 00 
    b410:	48 8d 85 78 f3 ff ff 	lea    -0xc88(%rbp),%rax
    b417:	48 89 85 48 fd ff ff 	mov    %rax,-0x2b8(%rbp)
    b41e:	48 8d 85 78 f3 ff ff 	lea    -0xc88(%rbp),%rax
    b425:	48 89 85 50 fd ff ff 	mov    %rax,-0x2b0(%rbp)
    b42c:	48 8d 85 78 f3 ff ff 	lea    -0xc88(%rbp),%rax
    b433:	48 89 85 58 fd ff ff 	mov    %rax,-0x2a8(%rbp)
    b43a:	48 c7 85 60 fd ff ff 	movq   $0x0,-0x2a0(%rbp)
    b441:	00 00 00 00 
    b445:	48 8d 85 78 f3 ff ff 	lea    -0xc88(%rbp),%rax
    b44c:	48 89 85 68 fd ff ff 	mov    %rax,-0x298(%rbp)
    b453:	48 8d 85 78 f3 ff ff 	lea    -0xc88(%rbp),%rax
    b45a:	48 89 85 70 fd ff ff 	mov    %rax,-0x290(%rbp)
    b461:	48 8d 85 78 f3 ff ff 	lea    -0xc88(%rbp),%rax
    b468:	48 89 85 78 fd ff ff 	mov    %rax,-0x288(%rbp)
    b46f:	48 c7 85 80 fd ff ff 	movq   $0x0,-0x280(%rbp)
    b476:	00 00 00 00 
    b47a:	48 8d 85 78 f3 ff ff 	lea    -0xc88(%rbp),%rax
    b481:	48 89 85 88 fd ff ff 	mov    %rax,-0x278(%rbp)
    b488:	48 8d 85 78 f3 ff ff 	lea    -0xc88(%rbp),%rax
    b48f:	48 89 85 90 fd ff ff 	mov    %rax,-0x270(%rbp)
    b496:	48 c7 85 98 fd ff ff 	movq   $0x0,-0x268(%rbp)
    b49d:	00 00 00 00 
    b4a1:	48 c7 85 a0 fd ff ff 	movq   $0x0,-0x260(%rbp)
    b4a8:	00 00 00 00 
    b4ac:	48 c7 85 a8 fd ff ff 	movq   $0x0,-0x258(%rbp)
    b4b3:	00 00 00 00 
    b4b7:	48 8d 85 78 f3 ff ff 	lea    -0xc88(%rbp),%rax
    b4be:	48 89 85 b0 fd ff ff 	mov    %rax,-0x250(%rbp)
    b4c5:	48 8d 85 78 f3 ff ff 	lea    -0xc88(%rbp),%rax
    b4cc:	48 89 85 b8 fd ff ff 	mov    %rax,-0x248(%rbp)
    b4d3:	48 8d 85 78 f3 ff ff 	lea    -0xc88(%rbp),%rax
    b4da:	48 89 85 c0 fd ff ff 	mov    %rax,-0x240(%rbp)
    b4e1:	48 8d 85 78 f3 ff ff 	lea    -0xc88(%rbp),%rax
    b4e8:	48 89 85 c8 fd ff ff 	mov    %rax,-0x238(%rbp)
    b4ef:	48 8d 85 78 f3 ff ff 	lea    -0xc88(%rbp),%rax
    b4f6:	48 89 85 d0 fd ff ff 	mov    %rax,-0x230(%rbp)
    b4fd:	48 8d 85 78 f3 ff ff 	lea    -0xc88(%rbp),%rax
    b504:	48 89 85 d8 fd ff ff 	mov    %rax,-0x228(%rbp)
    b50b:	48 8d 85 78 f3 ff ff 	lea    -0xc88(%rbp),%rax
    b512:	48 89 85 e0 fd ff ff 	mov    %rax,-0x220(%rbp)
    b519:	48 c7 85 e8 fd ff ff 	movq   $0x0,-0x218(%rbp)
    b520:	00 00 00 00 
    b524:	48 8d 85 78 f3 ff ff 	lea    -0xc88(%rbp),%rax
    b52b:	48 89 85 f0 fd ff ff 	mov    %rax,-0x210(%rbp)
    b532:	48 8d 85 78 f3 ff ff 	lea    -0xc88(%rbp),%rax
    b539:	48 89 85 f8 fd ff ff 	mov    %rax,-0x208(%rbp)
    b540:	48 c7 85 00 fe ff ff 	movq   $0x0,-0x200(%rbp)
    b547:	00 00 00 00 
    b54b:	48 8d 85 78 f3 ff ff 	lea    -0xc88(%rbp),%rax
    b552:	48 89 85 08 fe ff ff 	mov    %rax,-0x1f8(%rbp)
    b559:	48 8d 85 78 f3 ff ff 	lea    -0xc88(%rbp),%rax
    b560:	48 89 85 10 fe ff ff 	mov    %rax,-0x1f0(%rbp)
    b567:	48 8d 85 78 f3 ff ff 	lea    -0xc88(%rbp),%rax
    b56e:	48 89 85 18 fe ff ff 	mov    %rax,-0x1e8(%rbp)
    b575:	48 8d 85 78 f3 ff ff 	lea    -0xc88(%rbp),%rax
    b57c:	48 89 85 20 fe ff ff 	mov    %rax,-0x1e0(%rbp)
    b583:	48 8d 85 78 f3 ff ff 	lea    -0xc88(%rbp),%rax
    b58a:	48 89 85 28 fe ff ff 	mov    %rax,-0x1d8(%rbp)
    b591:	48 8d 85 78 f3 ff ff 	lea    -0xc88(%rbp),%rax
    b598:	48 89 85 30 fe ff ff 	mov    %rax,-0x1d0(%rbp)
    b59f:	48 8d 85 78 f3 ff ff 	lea    -0xc88(%rbp),%rax
    b5a6:	48 89 85 38 fe ff ff 	mov    %rax,-0x1c8(%rbp)
    b5ad:	48 8d 85 78 f3 ff ff 	lea    -0xc88(%rbp),%rax
    b5b4:	48 89 85 40 fe ff ff 	mov    %rax,-0x1c0(%rbp)
    b5bb:	48 8d 85 78 f3 ff ff 	lea    -0xc88(%rbp),%rax
    b5c2:	48 89 85 48 fe ff ff 	mov    %rax,-0x1b8(%rbp)
    b5c9:	48 8d 85 78 f3 ff ff 	lea    -0xc88(%rbp),%rax
    b5d0:	48 89 85 50 fe ff ff 	mov    %rax,-0x1b0(%rbp)
    b5d7:	48 c7 85 58 fe ff ff 	movq   $0x0,-0x1a8(%rbp)
    b5de:	00 00 00 00 
    b5e2:	48 8d 85 78 f3 ff ff 	lea    -0xc88(%rbp),%rax
    b5e9:	48 89 85 60 fe ff ff 	mov    %rax,-0x1a0(%rbp)
    b5f0:	48 8d 85 78 f3 ff ff 	lea    -0xc88(%rbp),%rax
    b5f7:	48 89 85 68 fe ff ff 	mov    %rax,-0x198(%rbp)
    b5fe:	48 c7 85 70 fe ff ff 	movq   $0x0,-0x190(%rbp)
    b605:	00 00 00 00 
    b609:	48 8d 85 78 f3 ff ff 	lea    -0xc88(%rbp),%rax
    b610:	48 89 85 78 fe ff ff 	mov    %rax,-0x188(%rbp)
    b617:	48 8d 85 78 f3 ff ff 	lea    -0xc88(%rbp),%rax
    b61e:	48 89 85 80 fe ff ff 	mov    %rax,-0x180(%rbp)
    b625:	48 8d 85 78 f3 ff ff 	lea    -0xc88(%rbp),%rax
    b62c:	48 89 85 88 fe ff ff 	mov    %rax,-0x178(%rbp)
    b633:	48 8d 85 78 f3 ff ff 	lea    -0xc88(%rbp),%rax
    b63a:	48 89 85 90 fe ff ff 	mov    %rax,-0x170(%rbp)
    b641:	48 8d 85 78 f3 ff ff 	lea    -0xc88(%rbp),%rax
    b648:	48 89 85 98 fe ff ff 	mov    %rax,-0x168(%rbp)
    b64f:	48 8d 85 78 f3 ff ff 	lea    -0xc88(%rbp),%rax
    b656:	48 89 85 a0 fe ff ff 	mov    %rax,-0x160(%rbp)
    b65d:	48 8d 85 78 f3 ff ff 	lea    -0xc88(%rbp),%rax
    b664:	48 89 85 a8 fe ff ff 	mov    %rax,-0x158(%rbp)
    b66b:	48 c7 85 b0 fe ff ff 	movq   $0x0,-0x150(%rbp)
    b672:	00 00 00 00 
    b676:	48 c7 85 b8 fe ff ff 	movq   $0x0,-0x148(%rbp)
    b67d:	00 00 00 00 
    b681:	48 8d 85 78 f3 ff ff 	lea    -0xc88(%rbp),%rax
    b688:	48 89 85 c0 fe ff ff 	mov    %rax,-0x140(%rbp)
    b68f:	48 8d 85 78 f3 ff ff 	lea    -0xc88(%rbp),%rax
    b696:	48 89 85 c8 fe ff ff 	mov    %rax,-0x138(%rbp)
    b69d:	0f be 9d ac f2 ff ff 	movsbl -0xd54(%rbp),%ebx
    b6a4:	48 8b 85 90 f3 ff ff 	mov    -0xc70(%rbp),%rax
    b6ab:	48 8b 00             	mov    (%rax),%rax
    b6ae:	48 8b 00             	mov    (%rax),%rax
    b6b1:	48 85 c0             	test   %rax,%rax
    b6b4:	0f 94 c0             	sete   %al
    b6b7:	0f b6 c0             	movzbl %al,%eax
    b6ba:	be fc bc 00 00       	mov    $0xbcfc,%esi
    b6bf:	89 c7                	mov    %eax,%edi
    b6c1:	e8 c8 96 ff ff       	callq  4d8e <safe_div_func_uint16_t_u_u>
    b6c6:	66 85 c0             	test   %ax,%ax
    b6c9:	0f 84 9d 00 00 00    	je     b76c <func_11+0x2869>
    b6cf:	48 8b 05 3a dd 00 00 	mov    0xdd3a(%rip),%rax        # 19410 <g_1392>
    b6d6:	48 8b 00             	mov    (%rax),%rax
    b6d9:	0f b6 00             	movzbl (%rax),%eax
    b6dc:	44 0f be e0          	movsbl %al,%r12d
    b6e0:	44 0f be ad ac f2 ff 	movsbl -0xd54(%rbp),%r13d
    b6e7:	ff 
    b6e8:	48 8b 05 31 dc 00 00 	mov    0xdc31(%rip),%rax        # 19320 <g_695>
    b6ef:	48 8b 00             	mov    (%rax),%rax
    b6f2:	0f b7 00             	movzwl (%rax),%eax
    b6f5:	98                   	cwtl   
    b6f6:	89 c6                	mov    %eax,%esi
    b6f8:	bf c1 be ff ff       	mov    $0xffffbec1,%edi
    b6fd:	e8 b1 8c ff ff       	callq  43b3 <safe_add_func_int16_t_s_s>
    b702:	48 0f be 95 ac f2 ff 	movsbq -0xd54(%rbp),%rdx
    b709:	ff 
    b70a:	48 8b 05 af dc 00 00 	mov    0xdcaf(%rip),%rax        # 193c0 <g_968>
    b711:	48 8b 00             	mov    (%rax),%rax
    b714:	48 39 c2             	cmp    %rax,%rdx
    b717:	0f 9c c0             	setl   %al
    b71a:	0f b6 c0             	movzbl %al,%eax
    b71d:	44 89 ee             	mov    %r13d,%esi
    b720:	89 c7                	mov    %eax,%edi
    b722:	e8 fe 97 ff ff       	callq  4f25 <safe_div_func_uint32_t_u_u>
    b727:	89 c2                	mov    %eax,%edx
    b729:	48 8b 85 10 f4 ff ff 	mov    -0xbf0(%rbp),%rax
    b730:	48 8b 00             	mov    (%rax),%rax
    b733:	48 8b 00             	mov    (%rax),%rax
    b736:	88 10                	mov    %dl,(%rax)
    b738:	0f b6 00             	movzbl (%rax),%eax
    b73b:	0f be c0             	movsbl %al,%eax
    b73e:	44 89 e6             	mov    %r12d,%esi
    b741:	89 c7                	mov    %eax,%edi
    b743:	e8 59 8b ff ff       	callq  42a1 <safe_lshift_func_int8_t_s_s>
    b748:	0f bf 85 a8 f2 ff ff 	movswl -0xd58(%rbp),%eax
    b74f:	be 3e 4f 95 1a       	mov    $0x1a954f3e,%esi
    b754:	89 c7                	mov    %eax,%edi
    b756:	e8 a4 8f ff ff       	callq  46ff <safe_div_func_int32_t_s_s>
    b75b:	48 83 bd 88 f3 ff ff 	cmpq   $0x0,-0xc78(%rbp)
    b762:	00 
    b763:	74 07                	je     b76c <func_11+0x2869>
    b765:	b8 01 00 00 00       	mov    $0x1,%eax
    b76a:	eb 05                	jmp    b771 <func_11+0x286e>
    b76c:	b8 00 00 00 00       	mov    $0x0,%eax
    b771:	89 c2                	mov    %eax,%edx
    b773:	48 8b 85 40 f4 ff ff 	mov    -0xbc0(%rbp),%rax
    b77a:	88 10                	mov    %dl,(%rax)
    b77c:	89 de                	mov    %ebx,%esi
    b77e:	bf 01 00 00 00       	mov    $0x1,%edi
    b783:	e8 30 97 ff ff       	callq  4eb8 <safe_add_func_uint32_t_u_u>
    b788:	be 06 00 00 00       	mov    $0x6,%esi
    b78d:	bf 01 00 00 00       	mov    $0x1,%edi
    b792:	e8 27 96 ff ff       	callq  4dbe <safe_lshift_func_uint16_t_u_s>
    b797:	0f b7 d0             	movzwl %ax,%edx
    b79a:	48 8b 05 2f dc 00 00 	mov    0xdc2f(%rip),%rax        # 193d0 <g_966>
    b7a1:	48 8b 00             	mov    (%rax),%rax
    b7a4:	48 8b 00             	mov    (%rax),%rax
    b7a7:	48 8b 00             	mov    (%rax),%rax
    b7aa:	48 39 c2             	cmp    %rax,%rdx
    b7ad:	0f 95 c2             	setne  %dl
    b7b0:	48 8b 05 69 de 00 00 	mov    0xde69(%rip),%rax        # 19620 <g_2335>
    b7b7:	0f b6 d2             	movzbl %dl,%edx
    b7ba:	89 10                	mov    %edx,(%rax)
    b7bc:	66 c7 05 fb c8 00 00 	movw   $0x1,0xc8fb(%rip)        # 180c0 <g_1113>
    b7c3:	01 00 
    b7c5:	e9 31 01 00 00       	jmpq   b8fb <func_11+0x29f8>
    b7ca:	48 c7 85 48 f4 ff ff 	movq   $0x0,-0xbb8(%rbp)
    b7d1:	00 00 00 00 
    b7d5:	48 c7 85 d0 f5 ff ff 	movq   $0x0,-0xa30(%rbp)
    b7dc:	00 00 00 00 
    b7e0:	48 c7 85 d8 f5 ff ff 	movq   $0x0,-0xa28(%rbp)
    b7e7:	00 00 00 00 
    b7eb:	48 c7 85 e0 f5 ff ff 	movq   $0x0,-0xa20(%rbp)
    b7f2:	00 00 00 00 
    b7f6:	c6 05 ad c8 00 00 00 	movb   $0x0,0xc8ad(%rip)        # 180aa <g_843>
    b7fd:	eb 19                	jmp    b818 <func_11+0x2915>
    b7ff:	83 bd a4 f2 ff ff 00 	cmpl   $0x0,-0xd5c(%rbp)
    b806:	75 1d                	jne    b825 <func_11+0x2922>
    b808:	0f b6 05 9b c8 00 00 	movzbl 0xc89b(%rip),%eax        # 180aa <g_843>
    b80f:	83 c0 01             	add    $0x1,%eax
    b812:	88 05 92 c8 00 00    	mov    %al,0xc892(%rip)        # 180aa <g_843>
    b818:	0f b6 05 8b c8 00 00 	movzbl 0xc88b(%rip),%eax        # 180aa <g_843>
    b81f:	3c 02                	cmp    $0x2,%al
    b821:	7e dc                	jle    b7ff <func_11+0x28fc>
    b823:	eb 01                	jmp    b826 <func_11+0x2923>
    b825:	90                   	nop
    b826:	48 8b 05 eb dd 00 00 	mov    0xddeb(%rip),%rax        # 19618 <g_2184>
    b82d:	48 8b 00             	mov    (%rax),%rax
    b830:	48 85 c0             	test   %rax,%rax
    b833:	0f 95 c0             	setne  %al
    b836:	0f b6 c0             	movzbl %al,%eax
    b839:	be 01 00 00 00       	mov    $0x1,%esi
    b83e:	89 c7                	mov    %eax,%edi
    b840:	e8 b8 96 ff ff       	callq  4efd <safe_mod_func_uint32_t_u_u>
    b845:	85 c0                	test   %eax,%eax
    b847:	75 0d                	jne    b856 <func_11+0x2953>
    b849:	48 8b 05 88 dd 00 00 	mov    0xdd88(%rip),%rax        # 195d8 <g_1900>
    b850:	8b 00                	mov    (%rax),%eax
    b852:	85 c0                	test   %eax,%eax
    b854:	74 10                	je     b866 <func_11+0x2963>
    b856:	83 bd a4 f2 ff ff 00 	cmpl   $0x0,-0xd5c(%rbp)
    b85d:	74 07                	je     b866 <func_11+0x2963>
    b85f:	b8 01 00 00 00       	mov    $0x1,%eax
    b864:	eb 05                	jmp    b86b <func_11+0x2968>
    b866:	b8 00 00 00 00       	mov    $0x0,%eax
    b86b:	48 98                	cltq   
    b86d:	48 be 5b 6a d6 f4 71 	movabs $0xb4dcec71f4d66a5b,%rsi
    b874:	ec dc b4 
    b877:	48 89 c7             	mov    %rax,%rdi
    b87a:	e8 cc 97 ff ff       	callq  504b <safe_sub_func_uint64_t_u_u>
    b87f:	48 8b 85 f0 f3 ff ff 	mov    -0xc10(%rbp),%rax
    b886:	48 89 85 10 fc ff ff 	mov    %rax,-0x3f0(%rbp)
    b88d:	48 8b 85 10 fc ff ff 	mov    -0x3f0(%rbp),%rax
    b894:	48 39 85 f8 f3 ff ff 	cmp    %rax,-0xc08(%rbp)
    b89b:	0f 95 c0             	setne  %al
    b89e:	0f b6 d0             	movzbl %al,%edx
    b8a1:	48 8b 85 d0 f5 ff ff 	mov    -0xa30(%rbp),%rax
    b8a8:	48 39 85 00 f4 ff ff 	cmp    %rax,-0xc00(%rbp)
    b8af:	0f 95 c1             	setne  %cl
    b8b2:	48 8b 05 df c4 00 00 	mov    0xc4df(%rip),%rax        # 17d98 <l_2583.4567+0x18>
    b8b9:	48 85 c0             	test   %rax,%rax
    b8bc:	0f 94 c0             	sete   %al
    b8bf:	0f b6 c0             	movzbl %al,%eax
    b8c2:	48 39 85 48 f4 ff ff 	cmp    %rax,-0xbb8(%rbp)
    b8c9:	0f 95 c0             	setne  %al
    b8cc:	09 c8                	or     %ecx,%eax
    b8ce:	0f b6 c0             	movzbl %al,%eax
    b8d1:	39 c2                	cmp    %eax,%edx
    b8d3:	7e 07                	jle    b8dc <func_11+0x29d9>
    b8d5:	ba 16 7d e8 9a       	mov    $0x9ae87d16,%edx
    b8da:	eb 05                	jmp    b8e1 <func_11+0x29de>
    b8dc:	ba 17 7d e8 9a       	mov    $0x9ae87d17,%edx
    b8e1:	48 8b 05 38 dd 00 00 	mov    0xdd38(%rip),%rax        # 19620 <g_2335>
    b8e8:	89 10                	mov    %edx,(%rax)
    b8ea:	0f b7 05 cf c7 00 00 	movzwl 0xc7cf(%rip),%eax        # 180c0 <g_1113>
    b8f1:	83 e8 01             	sub    $0x1,%eax
    b8f4:	66 89 05 c5 c7 00 00 	mov    %ax,0xc7c5(%rip)        # 180c0 <g_1113>
    b8fb:	0f b7 05 be c7 00 00 	movzwl 0xc7be(%rip),%eax        # 180c0 <g_1113>
    b902:	66 85 c0             	test   %ax,%ax
    b905:	0f 89 bf fe ff ff    	jns    b7ca <func_11+0x28c7>
    b90b:	0f b7 05 7e c7 00 00 	movzwl 0xc77e(%rip),%eax        # 18090 <g_413>
    b912:	83 c0 01             	add    $0x1,%eax
    b915:	66 89 05 74 c7 00 00 	mov    %ax,0xc774(%rip)        # 18090 <g_413>
    b91c:	0f b7 05 6d c7 00 00 	movzwl 0xc76d(%rip),%eax        # 18090 <g_413>
    b923:	66 83 f8 02          	cmp    $0x2,%ax
    b927:	0f 86 e7 f3 ff ff    	jbe    ad14 <func_11+0x1e11>
    b92d:	0f b6 9d c2 f2 ff ff 	movzbl -0xd3e(%rbp),%ebx
    b934:	8b 85 a4 f2 ff ff    	mov    -0xd5c(%rbp),%eax
    b93a:	44 0f bf e0          	movswl %ax,%r12d
    b93e:	0f bf 85 a8 f2 ff ff 	movswl -0xd58(%rbp),%eax
    b945:	31 85 e8 f2 ff ff    	xor    %eax,-0xd18(%rbp)
    b94b:	80 bd ac f2 ff ff 00 	cmpb   $0x0,-0xd54(%rbp)
    b952:	74 1a                	je     b96e <func_11+0x2a6b>
    b954:	48 8b 85 50 f3 ff ff 	mov    -0xcb0(%rbp),%rax
    b95b:	48 8d 15 0e db 00 00 	lea    0xdb0e(%rip),%rdx        # 19470 <g_1641>
    b962:	48 39 d0             	cmp    %rdx,%rax
    b965:	75 07                	jne    b96e <func_11+0x2a6b>
    b967:	b8 01 00 00 00       	mov    $0x1,%eax
    b96c:	eb 05                	jmp    b973 <func_11+0x2a70>
    b96e:	b8 00 00 00 00       	mov    $0x0,%eax
    b973:	39 85 e8 f2 ff ff    	cmp    %eax,-0xd18(%rbp)
    b979:	0f b7 85 a8 f2 ff ff 	movzwl -0xd58(%rbp),%eax
    b980:	44 0f b7 e8          	movzwl %ax,%r13d
    b984:	48 8b 05 65 dc 00 00 	mov    0xdc65(%rip),%rax        # 195f0 <g_2127>
    b98b:	48 8b 00             	mov    (%rax),%rax
    b98e:	48 8b 00             	mov    (%rax),%rax
    b991:	48 8b 00             	mov    (%rax),%rax
    b994:	0f bf 95 a8 f2 ff ff 	movswl -0xd58(%rbp),%edx
    b99b:	89 10                	mov    %edx,(%rax)
    b99d:	48 8b 05 74 d9 00 00 	mov    0xd974(%rip),%rax        # 19318 <g_412>
    b9a4:	0f b7 10             	movzwl (%rax),%edx
    b9a7:	83 ea 01             	sub    $0x1,%edx
    b9aa:	66 89 10             	mov    %dx,(%rax)
    b9ad:	0f b7 00             	movzwl (%rax),%eax
    b9b0:	41 89 c6             	mov    %eax,%r14d
    b9b3:	b8 01 00 00 00       	mov    $0x1,%eax
    b9b8:	66 98                	cbtw   
    b9ba:	0f b7 c0             	movzwl %ax,%eax
    b9bd:	89 c6                	mov    %eax,%esi
    b9bf:	bf 00 00 00 00       	mov    $0x0,%edi
    b9c4:	e8 74 93 ff ff       	callq  4d3d <safe_mul_func_uint16_t_u_u>
    b9c9:	0f b6 95 c2 f2 ff ff 	movzbl -0xd3e(%rbp),%edx
    b9d0:	66 39 d0             	cmp    %dx,%ax
    b9d3:	0f 92 c0             	setb   %al
    b9d6:	0f b6 c0             	movzbl %al,%eax
    b9d9:	44 31 f0             	xor    %r14d,%eax
    b9dc:	0f b7 c0             	movzwl %ax,%eax
    b9df:	44 89 ee             	mov    %r13d,%esi
    b9e2:	89 c7                	mov    %eax,%edi
    b9e4:	e8 54 93 ff ff       	callq  4d3d <safe_mul_func_uint16_t_u_u>
    b9e9:	98                   	cwtl   
    b9ea:	44 89 e6             	mov    %r12d,%esi
    b9ed:	89 c7                	mov    %eax,%edi
    b9ef:	e8 01 8a ff ff       	callq  43f5 <safe_mul_func_int16_t_s_s>
    b9f4:	0f bf d0             	movswl %ax,%edx
    b9f7:	48 c7 05 ce db 00 00 	movq   $0x0,0xdbce(%rip)        # 195d0 <g_1766>
    b9fe:	00 00 00 00 
    ba02:	48 8b 05 c7 db 00 00 	mov    0xdbc7(%rip),%rax        # 195d0 <g_1766>
    ba09:	48 8d 0d b8 db 00 00 	lea    0xdbb8(%rip),%rcx        # 195c8 <g_1767>
    ba10:	48 39 c8             	cmp    %rcx,%rax
    ba13:	0f 95 c0             	setne  %al
    ba16:	0f b6 c0             	movzbl %al,%eax
    ba19:	89 d6                	mov    %edx,%esi
    ba1b:	89 c7                	mov    %eax,%edi
    ba1d:	e8 d3 89 ff ff       	callq  43f5 <safe_mul_func_int16_t_s_s>
    ba22:	48 89 de             	mov    %rbx,%rsi
    ba25:	bf 01 00 00 00       	mov    $0x1,%edi
    ba2a:	e8 ff 95 ff ff       	callq  502e <safe_add_func_uint64_t_u_u>
    ba2f:	48 89 c2             	mov    %rax,%rdx
    ba32:	48 8b 05 9f db 00 00 	mov    0xdb9f(%rip),%rax        # 195d8 <g_1900>
    ba39:	89 10                	mov    %edx,(%rax)
    ba3b:	48 8b 15 de db 00 00 	mov    0xdbde(%rip),%rdx        # 19620 <g_2335>
    ba42:	8b 00                	mov    (%rax),%eax
    ba44:	89 02                	mov    %eax,(%rdx)
    ba46:	48 c7 85 88 f3 ff ff 	movq   $0x0,-0xc78(%rbp)
    ba4d:	00 00 00 00 
    ba51:	e9 17 07 00 00       	jmpq   c16d <func_11+0x326a>
    ba56:	48 c7 85 d0 f5 ff ff 	movq   $0x0,-0xa30(%rbp)
    ba5d:	00 00 00 00 
    ba61:	48 c7 85 d8 f5 ff ff 	movq   $0x0,-0xa28(%rbp)
    ba68:	00 00 00 00 
    ba6c:	48 c7 85 e0 f5 ff ff 	movq   $0x0,-0xa20(%rbp)
    ba73:	00 00 00 00 
    ba77:	48 c7 85 e8 f5 ff ff 	movq   $0x0,-0xa18(%rbp)
    ba7e:	00 00 00 00 
    ba82:	48 c7 85 f0 f5 ff ff 	movq   $0x0,-0xa10(%rbp)
    ba89:	00 00 00 00 
    ba8d:	48 c7 85 f8 f5 ff ff 	movq   $0x0,-0xa08(%rbp)
    ba94:	00 00 00 00 
    ba98:	48 c7 85 00 f6 ff ff 	movq   $0x0,-0xa00(%rbp)
    ba9f:	00 00 00 00 
    baa3:	48 c7 85 08 f6 ff ff 	movq   $0x0,-0x9f8(%rbp)
    baaa:	00 00 00 00 
    baae:	48 c7 85 10 f6 ff ff 	movq   $0x0,-0x9f0(%rbp)
    bab5:	00 00 00 00 
    bab9:	48 c7 85 18 f6 ff ff 	movq   $0x0,-0x9e8(%rbp)
    bac0:	00 00 00 00 
    bac4:	66 c7 85 cc f2 ff ff 	movw   $0x2b94,-0xd34(%rbp)
    bacb:	94 2b 
    bacd:	c7 85 30 f3 ff ff cd 	movl   $0x265c74cd,-0xcd0(%rbp)
    bad4:	74 5c 26 
    bad7:	48 c7 05 6e c5 00 00 	movq   $0x0,0xc56e(%rip)        # 18050 <g_153>
    bade:	00 00 00 00 
    bae2:	e9 8a 04 00 00       	jmpq   bf71 <func_11+0x306e>
    bae7:	66 c7 85 ce f2 ff ff 	movw   $0xffff,-0xd32(%rbp)
    baee:	ff ff 
    baf0:	c7 05 4e c5 00 00 00 	movl   $0x0,0xc54e(%rip)        # 18048 <g_119>
    baf7:	00 00 00 
    bafa:	e9 ea 03 00 00       	jmpq   bee9 <func_11+0x2fe6>
    baff:	48 c7 85 78 f3 ff ff 	movq   $0x0,-0xc88(%rbp)
    bb06:	00 00 00 00 
    bb0a:	48 c7 85 30 f9 ff ff 	movq   $0x0,-0x6d0(%rbp)
    bb11:	00 00 00 00 
    bb15:	48 8d 85 78 f3 ff ff 	lea    -0xc88(%rbp),%rax
    bb1c:	48 89 85 38 f9 ff ff 	mov    %rax,-0x6c8(%rbp)
    bb23:	48 8d 85 78 f3 ff ff 	lea    -0xc88(%rbp),%rax
    bb2a:	48 89 85 40 f9 ff ff 	mov    %rax,-0x6c0(%rbp)
    bb31:	48 8d 85 78 f3 ff ff 	lea    -0xc88(%rbp),%rax
    bb38:	48 89 85 48 f9 ff ff 	mov    %rax,-0x6b8(%rbp)
    bb3f:	48 c7 85 50 f9 ff ff 	movq   $0x0,-0x6b0(%rbp)
    bb46:	00 00 00 00 
    bb4a:	48 c7 85 58 f9 ff ff 	movq   $0x0,-0x6a8(%rbp)
    bb51:	00 00 00 00 
    bb55:	48 c7 85 60 f9 ff ff 	movq   $0x0,-0x6a0(%rbp)
    bb5c:	00 00 00 00 
    bb60:	48 c7 85 68 f9 ff ff 	movq   $0x0,-0x698(%rbp)
    bb67:	00 00 00 00 
    bb6b:	48 8d 85 78 f3 ff ff 	lea    -0xc88(%rbp),%rax
    bb72:	48 89 85 70 f9 ff ff 	mov    %rax,-0x690(%rbp)
    bb79:	48 8d 85 78 f3 ff ff 	lea    -0xc88(%rbp),%rax
    bb80:	48 89 85 78 f9 ff ff 	mov    %rax,-0x688(%rbp)
    bb87:	48 c7 85 80 f9 ff ff 	movq   $0x0,-0x680(%rbp)
    bb8e:	00 00 00 00 
    bb92:	48 c7 85 88 f9 ff ff 	movq   $0x0,-0x678(%rbp)
    bb99:	00 00 00 00 
    bb9d:	48 c7 85 90 f9 ff ff 	movq   $0x0,-0x670(%rbp)
    bba4:	00 00 00 00 
    bba8:	48 c7 85 98 f9 ff ff 	movq   $0x0,-0x668(%rbp)
    bbaf:	00 00 00 00 
    bbb3:	48 8d 85 78 f3 ff ff 	lea    -0xc88(%rbp),%rax
    bbba:	48 89 85 a0 f9 ff ff 	mov    %rax,-0x660(%rbp)
    bbc1:	48 8d 85 78 f3 ff ff 	lea    -0xc88(%rbp),%rax
    bbc8:	48 89 85 a8 f9 ff ff 	mov    %rax,-0x658(%rbp)
    bbcf:	48 8d 85 78 f3 ff ff 	lea    -0xc88(%rbp),%rax
    bbd6:	48 89 85 b0 f9 ff ff 	mov    %rax,-0x650(%rbp)
    bbdd:	48 8d 85 78 f3 ff ff 	lea    -0xc88(%rbp),%rax
    bbe4:	48 89 85 b8 f9 ff ff 	mov    %rax,-0x648(%rbp)
    bbeb:	48 c7 85 c0 f9 ff ff 	movq   $0x0,-0x640(%rbp)
    bbf2:	00 00 00 00 
    bbf6:	48 c7 85 c8 f9 ff ff 	movq   $0x0,-0x638(%rbp)
    bbfd:	00 00 00 00 
    bc01:	48 c7 85 d0 f9 ff ff 	movq   $0x0,-0x630(%rbp)
    bc08:	00 00 00 00 
    bc0c:	48 8d 85 78 f3 ff ff 	lea    -0xc88(%rbp),%rax
    bc13:	48 89 85 d8 f9 ff ff 	mov    %rax,-0x628(%rbp)
    bc1a:	48 c7 85 e0 f9 ff ff 	movq   $0x0,-0x620(%rbp)
    bc21:	00 00 00 00 
    bc25:	48 8d 85 78 f3 ff ff 	lea    -0xc88(%rbp),%rax
    bc2c:	48 89 85 e8 f9 ff ff 	mov    %rax,-0x618(%rbp)
    bc33:	48 8d 85 78 f3 ff ff 	lea    -0xc88(%rbp),%rax
    bc3a:	48 89 85 f0 f9 ff ff 	mov    %rax,-0x610(%rbp)
    bc41:	48 8d 85 78 f3 ff ff 	lea    -0xc88(%rbp),%rax
    bc48:	48 89 85 f8 f9 ff ff 	mov    %rax,-0x608(%rbp)
    bc4f:	48 8d 85 78 f3 ff ff 	lea    -0xc88(%rbp),%rax
    bc56:	48 89 85 00 fa ff ff 	mov    %rax,-0x600(%rbp)
    bc5d:	48 8d 85 78 f3 ff ff 	lea    -0xc88(%rbp),%rax
    bc64:	48 89 85 08 fa ff ff 	mov    %rax,-0x5f8(%rbp)
    bc6b:	48 c7 85 10 fa ff ff 	movq   $0x0,-0x5f0(%rbp)
    bc72:	00 00 00 00 
    bc76:	48 8d 85 78 f3 ff ff 	lea    -0xc88(%rbp),%rax
    bc7d:	48 89 85 18 fa ff ff 	mov    %rax,-0x5e8(%rbp)
    bc84:	48 c7 85 20 fa ff ff 	movq   $0x0,-0x5e0(%rbp)
    bc8b:	00 00 00 00 
    bc8f:	48 c7 85 28 fa ff ff 	movq   $0x0,-0x5d8(%rbp)
    bc96:	00 00 00 00 
    bc9a:	48 8d 85 78 f3 ff ff 	lea    -0xc88(%rbp),%rax
    bca1:	48 89 85 30 fa ff ff 	mov    %rax,-0x5d0(%rbp)
    bca8:	48 c7 85 38 fa ff ff 	movq   $0x0,-0x5c8(%rbp)
    bcaf:	00 00 00 00 
    bcb3:	48 c7 85 40 fa ff ff 	movq   $0x0,-0x5c0(%rbp)
    bcba:	00 00 00 00 
    bcbe:	48 8d 85 78 f3 ff ff 	lea    -0xc88(%rbp),%rax
    bcc5:	48 89 85 48 fa ff ff 	mov    %rax,-0x5b8(%rbp)
    bccc:	48 c7 85 50 fa ff ff 	movq   $0x0,-0x5b0(%rbp)
    bcd3:	00 00 00 00 
    bcd7:	48 8d 85 78 f3 ff ff 	lea    -0xc88(%rbp),%rax
    bcde:	48 89 85 58 fa ff ff 	mov    %rax,-0x5a8(%rbp)
    bce5:	48 c7 85 60 fa ff ff 	movq   $0x0,-0x5a0(%rbp)
    bcec:	00 00 00 00 
    bcf0:	48 8d 85 78 f3 ff ff 	lea    -0xc88(%rbp),%rax
    bcf7:	48 89 85 68 fa ff ff 	mov    %rax,-0x598(%rbp)
    bcfe:	48 8d 85 30 f9 ff ff 	lea    -0x6d0(%rbp),%rax
    bd05:	48 83 c0 18          	add    $0x18,%rax
    bd09:	48 89 85 38 f4 ff ff 	mov    %rax,-0xbc8(%rbp)
    bd10:	c7 85 34 f3 ff ff 00 	movl   $0x0,-0xccc(%rbp)
    bd17:	00 00 00 
    bd1a:	0f bf 9d a8 f2 ff ff 	movswl -0xd58(%rbp),%ebx
    bd21:	44 0f bf ad a8 f2 ff 	movswl -0xd58(%rbp),%r13d
    bd28:	ff 
    bd29:	48 8b 85 10 f4 ff ff 	mov    -0xbf0(%rbp),%rax
    bd30:	48 8b 00             	mov    (%rax),%rax
    bd33:	48 8b 00             	mov    (%rax),%rax
    bd36:	c6 00 fe             	movb   $0xfe,(%rax)
    bd39:	0f b6 00             	movzbl (%rax),%eax
    bd3c:	44 0f be f0          	movsbl %al,%r14d
    bd40:	48 8b 85 e0 f5 ff ff 	mov    -0xa20(%rbp),%rax
    bd47:	48 85 c0             	test   %rax,%rax
    bd4a:	0f 95 c0             	setne  %al
    bd4d:	44 0f b6 e0          	movzbl %al,%r12d
    bd51:	0f b6 85 54 f4 ff ff 	movzbl -0xbac(%rbp),%eax
    bd58:	0f be d0             	movsbl %al,%edx
    bd5b:	48 8b 85 e0 f5 ff ff 	mov    -0xa20(%rbp),%rax
    bd62:	48 83 c8 01          	or     $0x1,%rax
    bd66:	48 89 c6             	mov    %rax,%rsi
    bd69:	48 8b 85 38 f4 ff ff 	mov    -0xbc8(%rbp),%rax
    bd70:	48 c7 00 00 00 00 00 	movq   $0x0,(%rax)
    bd77:	48 83 bd 98 f3 ff ff 	cmpq   $0x0,-0xc68(%rbp)
    bd7e:	00 
    bd7f:	bf fb ff ff ff       	mov    $0xfffffffb,%edi
    bd84:	48 8b 05 6d d8 00 00 	mov    0xd86d(%rip),%rax        # 195f8 <g_2126>
    bd8b:	48 8b 00             	mov    (%rax),%rax
    bd8e:	48 8b 00             	mov    (%rax),%rax
    bd91:	48 8b 00             	mov    (%rax),%rax
    bd94:	48 8b 00             	mov    (%rax),%rax
    bd97:	8b 08                	mov    (%rax),%ecx
    bd99:	48 8b 05 58 d8 00 00 	mov    0xd858(%rip),%rax        # 195f8 <g_2126>
    bda0:	48 8b 00             	mov    (%rax),%rax
    bda3:	48 8b 00             	mov    (%rax),%rax
    bda6:	48 8b 00             	mov    (%rax),%rax
    bda9:	48 8b 00             	mov    (%rax),%rax
    bdac:	21 f9                	and    %edi,%ecx
    bdae:	89 08                	mov    %ecx,(%rax)
    bdb0:	8b 00                	mov    (%rax),%eax
    bdb2:	85 c0                	test   %eax,%eax
    bdb4:	74 10                	je     bdc6 <func_11+0x2ec3>
    bdb6:	83 bd 34 f3 ff ff 00 	cmpl   $0x0,-0xccc(%rbp)
    bdbd:	74 07                	je     bdc6 <func_11+0x2ec3>
    bdbf:	b8 01 00 00 00       	mov    $0x1,%eax
    bdc4:	eb 05                	jmp    bdcb <func_11+0x2ec8>
    bdc6:	b8 00 00 00 00       	mov    $0x0,%eax
    bdcb:	48 63 c8             	movslq %eax,%rcx
    bdce:	48 8b 85 18 f6 ff ff 	mov    -0x9e8(%rbp),%rax
    bdd5:	48 39 c1             	cmp    %rax,%rcx
    bdd8:	0f 94 c0             	sete   %al
    bddb:	0f b6 c8             	movzbl %al,%ecx
    bdde:	48 8b 05 db d5 00 00 	mov    0xd5db(%rip),%rax        # 193c0 <g_968>
    bde5:	48 8b 00             	mov    (%rax),%rax
    bde8:	48 39 c1             	cmp    %rax,%rcx
    bdeb:	0f 9d c0             	setge  %al
    bdee:	0f b6 c0             	movzbl %al,%eax
    bdf1:	48 21 f0             	and    %rsi,%rax
    bdf4:	48 85 c0             	test   %rax,%rax
    bdf7:	74 07                	je     be00 <func_11+0x2efd>
    bdf9:	b8 01 00 00 00       	mov    $0x1,%eax
    bdfe:	eb 05                	jmp    be05 <func_11+0x2f02>
    be00:	b8 00 00 00 00       	mov    $0x0,%eax
    be05:	89 d6                	mov    %edx,%esi
    be07:	89 c7                	mov    %eax,%edi
    be09:	e8 f7 87 ff ff       	callq  4605 <safe_sub_func_int32_t_s_s>
    be0e:	89 85 34 f3 ff ff    	mov    %eax,-0xccc(%rbp)
    be14:	44 39 a5 34 f3 ff ff 	cmp    %r12d,-0xccc(%rbp)
    be1b:	0f 95 c0             	setne  %al
    be1e:	0f b6 c0             	movzbl %al,%eax
    be21:	41 39 c6             	cmp    %eax,%r14d
    be24:	0f 9f c0             	setg   %al
    be27:	0f b6 c0             	movzbl %al,%eax
    be2a:	41 39 c5             	cmp    %eax,%r13d
    be2d:	0f 9f c0             	setg   %al
    be30:	0f b6 d0             	movzbl %al,%edx
    be33:	0f bf 85 a8 f2 ff ff 	movswl -0xd58(%rbp),%eax
    be3a:	39 c2                	cmp    %eax,%edx
    be3c:	0f 95 c0             	setne  %al
    be3f:	0f b6 c0             	movzbl %al,%eax
    be42:	89 de                	mov    %ebx,%esi
    be44:	89 c7                	mov    %eax,%edi
    be46:	e8 cb 85 ff ff       	callq  4416 <safe_mod_func_int16_t_s_s>
    be4b:	b8 01 00 00 00       	mov    $0x1,%eax
    be50:	89 85 e8 f2 ff ff    	mov    %eax,-0xd18(%rbp)
    be56:	83 bd e8 f2 ff ff 00 	cmpl   $0x0,-0xd18(%rbp)
    be5d:	74 1c                	je     be7b <func_11+0x2f78>
    be5f:	48 8b 05 6a d5 00 00 	mov    0xd56a(%rip),%rax        # 193d0 <g_966>
    be66:	48 8b 00             	mov    (%rax),%rax
    be69:	48 8b 00             	mov    (%rax),%rax
    be6c:	48 8b 00             	mov    (%rax),%rax
    be6f:	48 85 c0             	test   %rax,%rax
    be72:	74 07                	je     be7b <func_11+0x2f78>
    be74:	b8 01 00 00 00       	mov    $0x1,%eax
    be79:	eb 05                	jmp    be80 <func_11+0x2f7d>
    be7b:	b8 00 00 00 00       	mov    $0x0,%eax
    be80:	88 05 e2 dd 00 00    	mov    %al,0xdde2(%rip)        # 19c68 <g_2081>
    be86:	0f b6 05 db dd 00 00 	movzbl 0xdddb(%rip),%eax        # 19c68 <g_2081>
    be8d:	0f b6 d0             	movzbl %al,%edx
    be90:	0f bf 85 a8 f2 ff ff 	movswl -0xd58(%rbp),%eax
    be97:	39 c2                	cmp    %eax,%edx
    be99:	7f 10                	jg     beab <func_11+0x2fa8>
    be9b:	80 bd ac f2 ff ff 00 	cmpb   $0x0,-0xd54(%rbp)
    bea2:	74 07                	je     beab <func_11+0x2fa8>
    bea4:	b9 01 00 00 00       	mov    $0x1,%ecx
    bea9:	eb 05                	jmp    beb0 <func_11+0x2fad>
    beab:	b9 00 00 00 00       	mov    $0x0,%ecx
    beb0:	48 8b 05 69 d7 00 00 	mov    0xd769(%rip),%rax        # 19620 <g_2335>
    beb7:	8b 10                	mov    (%rax),%edx
    beb9:	48 8b 05 60 d7 00 00 	mov    0xd760(%rip),%rax        # 19620 <g_2335>
    bec0:	09 ca                	or     %ecx,%edx
    bec2:	89 10                	mov    %edx,(%rax)
    bec4:	83 bd e8 f2 ff ff 00 	cmpl   $0x0,-0xd18(%rbp)
    becb:	75 0c                	jne    bed9 <func_11+0x2fd6>
    becd:	66 83 bd ce f2 ff ff 	cmpw   $0x0,-0xd32(%rbp)
    bed4:	00 
    bed5:	75 23                	jne    befa <func_11+0x2ff7>
    bed7:	eb 01                	jmp    beda <func_11+0x2fd7>
    bed9:	90                   	nop
    beda:	8b 05 68 c1 00 00    	mov    0xc168(%rip),%eax        # 18048 <g_119>
    bee0:	83 c0 01             	add    $0x1,%eax
    bee3:	89 05 5f c1 00 00    	mov    %eax,0xc15f(%rip)        # 18048 <g_119>
    bee9:	8b 05 59 c1 00 00    	mov    0xc159(%rip),%eax        # 18048 <g_119>
    beef:	83 f8 02             	cmp    $0x2,%eax
    bef2:	0f 86 07 fc ff ff    	jbe    baff <func_11+0x2bfc>
    bef8:	eb 01                	jmp    befb <func_11+0x2ff8>
    befa:	90                   	nop
    befb:	c7 85 e8 f2 ff ff 00 	movl   $0x0,-0xd18(%rbp)
    bf02:	00 00 00 
    bf05:	eb 2e                	jmp    bf35 <func_11+0x3032>
    bf07:	bf 01 00 00 00       	mov    $0x1,%edi
    bf0c:	e8 08 04 00 00       	callq  c319 <func_16>
    bf11:	48 89 85 f8 f7 ff ff 	mov    %rax,-0x808(%rbp)
    bf18:	48 8b 05 b9 d6 00 00 	mov    0xd6b9(%rip),%rax        # 195d8 <g_1900>
    bf1f:	8b 00                	mov    (%rax),%eax
    bf21:	85 c0                	test   %eax,%eax
    bf23:	75 1b                	jne    bf40 <func_11+0x303d>
    bf25:	80 bd c2 f2 ff ff 00 	cmpb   $0x0,-0xd3e(%rbp)
    bf2c:	75 15                	jne    bf43 <func_11+0x3040>
    bf2e:	83 85 e8 f2 ff ff 01 	addl   $0x1,-0xd18(%rbp)
    bf35:	83 bd e8 f2 ff ff 02 	cmpl   $0x2,-0xd18(%rbp)
    bf3c:	7e c9                	jle    bf07 <func_11+0x3004>
    bf3e:	eb 04                	jmp    bf44 <func_11+0x3041>
    bf40:	90                   	nop
    bf41:	eb 01                	jmp    bf44 <func_11+0x3041>
    bf43:	90                   	nop
    bf44:	bf 80 14 9e 0e       	mov    $0xe9e1480,%edi
    bf49:	e8 58 8f ff ff       	callq  4ea6 <safe_unary_minus_func_uint32_t_u>
    bf4e:	3d 8b da 49 a3       	cmp    $0xa349da8b,%eax
    bf53:	0f 96 c0             	setbe  %al
    bf56:	0f b6 c0             	movzbl %al,%eax
    bf59:	89 85 e8 f2 ff ff    	mov    %eax,-0xd18(%rbp)
    bf5f:	48 8b 05 ea c0 00 00 	mov    0xc0ea(%rip),%rax        # 18050 <g_153>
    bf66:	48 83 c0 01          	add    $0x1,%rax
    bf6a:	48 89 05 df c0 00 00 	mov    %rax,0xc0df(%rip)        # 18050 <g_153>
    bf71:	48 8b 05 d8 c0 00 00 	mov    0xc0d8(%rip),%rax        # 18050 <g_153>
    bf78:	48 83 f8 02          	cmp    $0x2,%rax
    bf7c:	0f 86 65 fb ff ff    	jbe    bae7 <func_11+0x2be4>
    bf82:	83 bd a4 f2 ff ff 00 	cmpl   $0x0,-0xd5c(%rbp)
    bf89:	0f 95 c0             	setne  %al
    bf8c:	0f b6 c0             	movzbl %al,%eax
    bf8f:	48 be e5 39 54 06 dd 	movabs $0x3b76f7dd065439e5,%rsi
    bf96:	f7 76 3b 
    bf99:	48 89 c7             	mov    %rax,%rdi
    bf9c:	e8 a0 88 ff ff       	callq  4841 <safe_add_func_int64_t_s_s>
    bfa1:	89 c3                	mov    %eax,%ebx
    bfa3:	8b 05 43 c1 00 00    	mov    0xc143(%rip),%eax        # 180ec <g_1981>
    bfa9:	0f be d0             	movsbl %al,%edx
    bfac:	48 8b 05 5d d4 00 00 	mov    0xd45d(%rip),%rax        # 19410 <g_1392>
    bfb3:	48 8b 00             	mov    (%rax),%rax
    bfb6:	0f b6 00             	movzbl (%rax),%eax
    bfb9:	0f be c0             	movsbl %al,%eax
    bfbc:	89 d6                	mov    %edx,%esi
    bfbe:	89 c7                	mov    %eax,%edi
    bfc0:	e8 2d 82 ff ff       	callq  41f2 <safe_sub_func_int8_t_s_s>
    bfc5:	48 8b 15 34 d4 00 00 	mov    0xd434(%rip),%rdx        # 19400 <g_1292>
    bfcc:	48 8b 12             	mov    (%rdx),%rdx
    bfcf:	48 8b 12             	mov    (%rdx),%rdx
    bfd2:	8b 0a                	mov    (%rdx),%ecx
    bfd4:	0f be d0             	movsbl %al,%edx
    bfd7:	48 8b 05 22 d4 00 00 	mov    0xd422(%rip),%rax        # 19400 <g_1292>
    bfde:	48 8b 00             	mov    (%rax),%rax
    bfe1:	48 8b 00             	mov    (%rax),%rax
    bfe4:	21 ca                	and    %ecx,%edx
    bfe6:	89 10                	mov    %edx,(%rax)
    bfe8:	48 8b 05 e9 d5 00 00 	mov    0xd5e9(%rip),%rax        # 195d8 <g_1900>
    bfef:	c7 00 00 00 00 00    	movl   $0x0,(%rax)
    bff5:	8b 00                	mov    (%rax),%eax
    bff7:	66 33 85 cc f2 ff ff 	xor    -0xd34(%rbp),%ax
    bffe:	0f b7 c0             	movzwl %ax,%eax
    c001:	89 de                	mov    %ebx,%esi
    c003:	89 c7                	mov    %eax,%edi
    c005:	e8 70 8e ff ff       	callq  4e7a <safe_rshift_func_uint16_t_u_u>
    c00a:	48 8b 15 0f d6 00 00 	mov    0xd60f(%rip),%rdx        # 19620 <g_2335>
    c011:	8b 0a                	mov    (%rdx),%ecx
    c013:	0f b7 d0             	movzwl %ax,%edx
    c016:	48 8b 05 03 d6 00 00 	mov    0xd603(%rip),%rax        # 19620 <g_2335>
    c01d:	09 ca                	or     %ecx,%edx
    c01f:	89 10                	mov    %edx,(%rax)
    c021:	0f b7 05 c8 c0 00 00 	movzwl 0xc0c8(%rip),%eax        # 180f0 <g_1984>
    c028:	0f bf d8             	movswl %ax,%ebx
    c02b:	0f bf 95 a8 f2 ff ff 	movswl -0xd58(%rbp),%edx
    c032:	8b 05 10 c1 00 00    	mov    0xc110(%rip),%eax        # 18148 <g_2629+0x8>
    c038:	39 c2                	cmp    %eax,%edx
    c03a:	0f 96 c0             	setbe  %al
    c03d:	0f b6 c0             	movzbl %al,%eax
    c040:	be 03 00 00 00       	mov    $0x3,%esi
    c045:	89 c7                	mov    %eax,%edi
    c047:	e8 e9 82 ff ff       	callq  4335 <safe_rshift_func_int8_t_s_s>
    c04c:	89 c2                	mov    %eax,%edx
    c04e:	48 8b 85 00 f4 ff ff 	mov    -0xc00(%rbp),%rax
    c055:	88 10                	mov    %dl,(%rax)
    c057:	48 8b 85 00 f4 ff ff 	mov    -0xc00(%rbp),%rax
    c05e:	0f b6 00             	movzbl (%rax),%eax
    c061:	0f b6 c0             	movzbl %al,%eax
    c064:	39 c3                	cmp    %eax,%ebx
    c066:	0f 84 de 00 00 00    	je     c14a <func_11+0x3247>
    c06c:	66 c7 85 c4 f2 ff ff 	movw   $0xfffa,-0xd3c(%rbp)
    c073:	fa ff 
    c075:	48 8d 05 30 c0 00 00 	lea    0xc030(%rip),%rax        # 180ac <g_850>
    c07c:	48 89 85 28 f4 ff ff 	mov    %rax,-0xbd8(%rbp)
    c083:	48 c7 05 fa bf 00 00 	movq   $0x0,0xbffa(%rip)        # 18088 <g_409>
    c08a:	00 00 00 00 
    c08e:	eb 5f                	jmp    c0ef <func_11+0x31ec>
    c090:	48 b8 24 85 f8 5f db 	movabs $0x75e5ccdb5ff88524,%rax
    c097:	cc e5 75 
    c09a:	48 89 85 30 f4 ff ff 	mov    %rax,-0xbd0(%rbp)
    c0a1:	48 8b 85 10 f7 ff ff 	mov    -0x8f0(%rbp),%rax
    c0a8:	48 85 c0             	test   %rax,%rax
    c0ab:	0f 95 c0             	setne  %al
    c0ae:	0f b6 c0             	movzbl %al,%eax
    c0b1:	89 c6                	mov    %eax,%esi
    c0b3:	bf 79 41 00 00       	mov    $0x4179,%edi
    c0b8:	e8 38 83 ff ff       	callq  43f5 <safe_mul_func_int16_t_s_s>
    c0bd:	98                   	cwtl   
    c0be:	89 c7                	mov    %eax,%edi
    c0c0:	e8 54 02 00 00       	callq  c319 <func_16>
    c0c5:	48 89 85 18 f4 ff ff 	mov    %rax,-0xbe8(%rbp)
    c0cc:	0f b7 85 c4 f2 ff ff 	movzwl -0xd3c(%rbp),%eax
    c0d3:	83 e8 01             	sub    $0x1,%eax
    c0d6:	66 89 85 c4 f2 ff ff 	mov    %ax,-0xd3c(%rbp)
    c0dd:	48 8b 05 a4 bf 00 00 	mov    0xbfa4(%rip),%rax        # 18088 <g_409>
    c0e4:	48 83 c0 01          	add    $0x1,%rax
    c0e8:	48 89 05 99 bf 00 00 	mov    %rax,0xbf99(%rip)        # 18088 <g_409>
    c0ef:	48 8b 05 92 bf 00 00 	mov    0xbf92(%rip),%rax        # 18088 <g_409>
    c0f6:	48 83 f8 02          	cmp    $0x2,%rax
    c0fa:	76 94                	jbe    c090 <func_11+0x318d>
    c0fc:	66 83 bd a8 f2 ff ff 	cmpw   $0x0,-0xd58(%rbp)
    c103:	00 
    c104:	75 5e                	jne    c164 <func_11+0x3261>
    c106:	48 8b 05 13 d5 00 00 	mov    0xd513(%rip),%rax        # 19620 <g_2335>
    c10d:	8b 10                	mov    (%rax),%edx
    c10f:	48 8b 05 0a d5 00 00 	mov    0xd50a(%rip),%rax        # 19620 <g_2335>
    c116:	81 e2 60 8b 7a f9    	and    $0xf97a8b60,%edx
    c11c:	89 10                	mov    %edx,(%rax)
    c11e:	48 8b 85 98 f8 ff ff 	mov    -0x768(%rbp),%rax
    c125:	48 89 85 28 f4 ff ff 	mov    %rax,-0xbd8(%rbp)
    c12c:	48 8b 85 28 f4 ff ff 	mov    -0xbd8(%rbp),%rax
    c133:	48 89 85 a8 f8 ff ff 	mov    %rax,-0x758(%rbp)
    c13a:	48 8b 85 a8 f8 ff ff 	mov    -0x758(%rbp),%rax
    c141:	48 89 85 18 f4 ff ff 	mov    %rax,-0xbe8(%rbp)
    c148:	eb 1b                	jmp    c165 <func_11+0x3262>
    c14a:	48 8d 05 e7 be 00 00 	lea    0xbee7(%rip),%rax        # 18038 <g_24>
    c151:	48 89 85 20 f4 ff ff 	mov    %rax,-0xbe0(%rbp)
    c158:	48 8b 85 20 f4 ff ff 	mov    -0xbe0(%rbp),%rax
    c15f:	e9 8f 01 00 00       	jmpq   c2f3 <func_11+0x33f0>
    c164:	90                   	nop
    c165:	48 83 85 88 f3 ff ff 	addq   $0x1,-0xc78(%rbp)
    c16c:	01 
    c16d:	48 83 bd 88 f3 ff ff 	cmpq   $0x2,-0xc78(%rbp)
    c174:	02 
    c175:	0f 8e db f8 ff ff    	jle    ba56 <func_11+0x2b53>
    c17b:	8b 05 57 bf 00 00    	mov    0xbf57(%rip),%eax        # 180d8 <g_1618>
    c181:	83 c0 01             	add    $0x1,%eax
    c184:	89 05 4e bf 00 00    	mov    %eax,0xbf4e(%rip)        # 180d8 <g_1618>
    c18a:	8b 05 48 bf 00 00    	mov    0xbf48(%rip),%eax        # 180d8 <g_1618>
    c190:	83 f8 02             	cmp    $0x2,%eax
    c193:	0f 8e 1a ea ff ff    	jle    abb3 <func_11+0x1cb0>
    c199:	0f b7 05 08 bf 00 00 	movzwl 0xbf08(%rip),%eax        # 180a8 <g_801>
    c1a0:	83 c0 01             	add    $0x1,%eax
    c1a3:	66 89 05 fe be 00 00 	mov    %ax,0xbefe(%rip)        # 180a8 <g_801>
    c1aa:	0f b7 05 f7 be 00 00 	movzwl 0xbef7(%rip),%eax        # 180a8 <g_801>
    c1b1:	66 83 f8 02          	cmp    $0x2,%ax
    c1b5:	0f 86 ab e6 ff ff    	jbe    a866 <func_11+0x1963>
    c1bb:	eb 01                	jmp    c1be <func_11+0x32bb>
    c1bd:	90                   	nop
    c1be:	48 0f be 9d ac f2 ff 	movsbq -0xd54(%rbp),%rbx
    c1c5:	ff 
    c1c6:	48 8b 85 a0 f3 ff ff 	mov    -0xc60(%rbp),%rax
    c1cd:	0f b6 00             	movzbl (%rax),%eax
    c1d0:	32 85 ac f2 ff ff    	xor    -0xd54(%rbp),%al
    c1d6:	89 c2                	mov    %eax,%edx
    c1d8:	48 8b 85 a0 f3 ff ff 	mov    -0xc60(%rbp),%rax
    c1df:	88 10                	mov    %dl,(%rax)
    c1e1:	48 8b 85 a0 f3 ff ff 	mov    -0xc60(%rbp),%rax
    c1e8:	0f b6 00             	movzbl (%rax),%eax
    c1eb:	0f b6 d0             	movzbl %al,%edx
    c1ee:	48 8b 05 d3 be 00 00 	mov    0xbed3(%rip),%rax        # 180c8 <g_1185>
    c1f5:	48 39 c2             	cmp    %rax,%rdx
    c1f8:	0f 9d c0             	setge  %al
    c1fb:	0f b6 d0             	movzbl %al,%edx
    c1fe:	8b 85 a4 f2 ff ff    	mov    -0xd5c(%rbp),%eax
    c204:	0f be c0             	movsbl %al,%eax
    c207:	89 d6                	mov    %edx,%esi
    c209:	89 c7                	mov    %eax,%edi
    c20b:	e8 c4 7f ff ff       	callq  41d4 <safe_add_func_int8_t_s_s>
    c210:	4c 0f be e0          	movsbq %al,%r12
    c214:	48 8b 05 05 d4 00 00 	mov    0xd405(%rip),%rax        # 19620 <g_2335>
    c21b:	8b 08                	mov    (%rax),%ecx
    c21d:	0f be 95 ac f2 ff ff 	movsbl -0xd54(%rbp),%edx
    c224:	48 8b 05 f5 d3 00 00 	mov    0xd3f5(%rip),%rax        # 19620 <g_2335>
    c22b:	21 ca                	and    %ecx,%edx
    c22d:	89 10                	mov    %edx,(%rax)
    c22f:	8b 00                	mov    (%rax),%eax
    c231:	8b 95 a4 f2 ff ff    	mov    -0xd5c(%rbp),%edx
    c237:	89 d6                	mov    %edx,%esi
    c239:	89 c7                	mov    %eax,%edi
    c23b:	e8 8c 84 ff ff       	callq  46cc <safe_mod_func_int32_t_s_s>
    c240:	88 05 f6 bd 00 00    	mov    %al,0xbdf6(%rip)        # 1803c <g_93>
    c246:	0f b6 05 ef bd 00 00 	movzbl 0xbdef(%rip),%eax        # 1803c <g_93>
    c24d:	0f be c0             	movsbl %al,%eax
    c250:	be 01 00 00 00       	mov    $0x1,%esi
    c255:	89 c7                	mov    %eax,%edi
    c257:	e8 10 81 ff ff       	callq  436c <safe_rshift_func_int8_t_s_u>
    c25c:	48 0f be c0          	movsbq %al,%rax
    c260:	4c 89 e6             	mov    %r12,%rsi
    c263:	48 89 c7             	mov    %rax,%rdi
    c266:	e8 49 87 ff ff       	callq  49b4 <safe_mod_func_int64_t_s_s>
    c26b:	48 89 de             	mov    %rbx,%rsi
    c26e:	48 89 c7             	mov    %rax,%rdi
    c271:	e8 0a 8e ff ff       	callq  5080 <safe_mod_func_uint64_t_u_u>
    c276:	0f b7 c0             	movzwl %ax,%eax
    c279:	be 81 9f 00 00       	mov    $0x9f81,%esi
    c27e:	89 c7                	mov    %eax,%edi
    c280:	e8 9a 8a ff ff       	callq  4d1f <safe_sub_func_uint16_t_u_u>
    c285:	b8 01 00 00 00       	mov    $0x1,%eax
    c28a:	0f b6 c0             	movzbl %al,%eax
    c28d:	89 c6                	mov    %eax,%esi
    c28f:	bf 02 00 00 00       	mov    $0x2,%edi
    c294:	e8 fa 88 ff ff       	callq  4b93 <safe_mul_func_uint8_t_u_u>
    c299:	0f b6 d0             	movzbl %al,%edx
    c29c:	0f bf 85 a8 f2 ff ff 	movswl -0xd58(%rbp),%eax
    c2a3:	39 c2                	cmp    %eax,%edx
    c2a5:	48 8b 05 34 d3 00 00 	mov    0xd334(%rip),%rax        # 195e0 <g_1991>
    c2ac:	8b 00                	mov    (%rax),%eax
    c2ae:	89 c2                	mov    %eax,%edx
    c2b0:	8b 85 a4 f2 ff ff    	mov    -0xd5c(%rbp),%eax
    c2b6:	89 d6                	mov    %edx,%esi
    c2b8:	89 c7                	mov    %eax,%edi
    c2ba:	e8 f9 8b ff ff       	callq  4eb8 <safe_add_func_uint32_t_u_u>
    c2bf:	0f b7 85 a8 f2 ff ff 	movzwl -0xd58(%rbp),%eax
    c2c6:	f7 d0                	not    %eax
    c2c8:	66 c1 e8 0f          	shr    $0xf,%ax
    c2cc:	0f b6 c0             	movzbl %al,%eax
    c2cf:	8b 95 a4 f2 ff ff    	mov    -0xd5c(%rbp),%edx
    c2d5:	89 d6                	mov    %edx,%esi
    c2d7:	89 c7                	mov    %eax,%edi
    c2d9:	e8 57 80 ff ff       	callq  4335 <safe_rshift_func_int8_t_s_s>
    c2de:	89 c2                	mov    %eax,%edx
    c2e0:	48 8b 05 f9 d2 00 00 	mov    0xd2f9(%rip),%rax        # 195e0 <g_1991>
    c2e7:	0f be d2             	movsbl %dl,%edx
    c2ea:	89 10                	mov    %edx,(%rax)
    c2ec:	48 8b 85 98 f8 ff ff 	mov    -0x768(%rbp),%rax
    c2f3:	48 8b 5d c8          	mov    -0x38(%rbp),%rbx
    c2f7:	64 48 33 1c 25 28 00 	xor    %fs:0x28,%rbx
    c2fe:	00 00 
    c300:	74 05                	je     c307 <func_11+0x3404>
    c302:	e8 69 7d ff ff       	callq  4070 <__stack_chk_fail@plt>
    c307:	48 81 c4 48 0d 00 00 	add    $0xd48,%rsp
    c30e:	5b                   	pop    %rbx
    c30f:	41 5c                	pop    %r12
    c311:	41 5d                	pop    %r13
    c313:	41 5e                	pop    %r14
    c315:	41 5f                	pop    %r15
    c317:	5d                   	pop    %rbp
    c318:	c3                   	retq   

000000000000c319 <func_16>:
    c319:	f3 0f 1e fa          	endbr64 
    c31d:	55                   	push   %rbp
    c31e:	48 89 e5             	mov    %rsp,%rbp
    c321:	48 81 ec 40 03 00 00 	sub    $0x340,%rsp
    c328:	89 bd cc fc ff ff    	mov    %edi,-0x334(%rbp)
    c32e:	64 48 8b 04 25 28 00 	mov    %fs:0x28,%rax
    c335:	00 00 
    c337:	48 89 45 f8          	mov    %rax,-0x8(%rbp)
    c33b:	31 c0                	xor    %eax,%eax
    c33d:	c6 85 d3 fc ff ff 01 	movb   $0x1,-0x32d(%rbp)
    c344:	48 8d 05 ed bc 00 00 	lea    0xbced(%rip),%rax        # 18038 <g_24>
    c34b:	48 89 85 08 fd ff ff 	mov    %rax,-0x2f8(%rbp)
    c352:	48 8d 05 d7 bc 00 00 	lea    0xbcd7(%rip),%rax        # 18030 <g_15>
    c359:	48 89 85 c0 fd ff ff 	mov    %rax,-0x240(%rbp)
    c360:	48 8d 05 c9 bc 00 00 	lea    0xbcc9(%rip),%rax        # 18030 <g_15>
    c367:	48 89 85 c8 fd ff ff 	mov    %rax,-0x238(%rbp)
    c36e:	48 8d 05 bb bc 00 00 	lea    0xbcbb(%rip),%rax        # 18030 <g_15>
    c375:	48 89 85 d0 fd ff ff 	mov    %rax,-0x230(%rbp)
    c37c:	48 8d 05 ad bc 00 00 	lea    0xbcad(%rip),%rax        # 18030 <g_15>
    c383:	48 89 85 d8 fd ff ff 	mov    %rax,-0x228(%rbp)
    c38a:	48 8d 05 9f bc 00 00 	lea    0xbc9f(%rip),%rax        # 18030 <g_15>
    c391:	48 89 85 e0 fd ff ff 	mov    %rax,-0x220(%rbp)
    c398:	48 c7 85 10 fd ff ff 	movq   $0x0,-0x2f0(%rbp)
    c39f:	00 00 00 00 
    c3a3:	48 c7 85 18 fd ff ff 	movq   $0xfffffffffffffff7,-0x2e8(%rbp)
    c3aa:	f7 ff ff ff 
    c3ae:	c7 85 e0 fc ff ff ff 	movl   $0xffffffff,-0x320(%rbp)
    c3b5:	ff ff ff 
    c3b8:	48 c7 85 20 fd ff ff 	movq   $0xffffffffffffffff,-0x2e0(%rbp)
    c3bf:	ff ff ff ff 
    c3c3:	c7 85 e8 fc ff ff 00 	movl   $0x0,-0x318(%rbp)
    c3ca:	00 00 00 
    c3cd:	48 8d 05 ec cf 00 00 	lea    0xcfec(%rip),%rax        # 193c0 <g_968>
    c3d4:	48 89 85 28 fd ff ff 	mov    %rax,-0x2d8(%rbp)
    c3db:	c6 85 d4 fc ff ff ff 	movb   $0xff,-0x32c(%rbp)
    c3e2:	48 8d 05 c3 bc 00 00 	lea    0xbcc3(%rip),%rax        # 180ac <g_850>
    c3e9:	48 89 85 30 fd ff ff 	mov    %rax,-0x2d0(%rbp)
    c3f0:	c7 85 ec fc ff ff 01 	movl   $0x1,-0x314(%rbp)
    c3f7:	00 00 00 
    c3fa:	48 8d 05 cf cf 00 00 	lea    0xcfcf(%rip),%rax        # 193d0 <g_966>
    c401:	48 89 85 00 fd ff ff 	mov    %rax,-0x300(%rbp)
    c408:	48 8d 85 00 fd ff ff 	lea    -0x300(%rbp),%rax
    c40f:	48 89 85 38 fd ff ff 	mov    %rax,-0x2c8(%rbp)
    c416:	66 c7 85 d6 fc ff ff 	movw   $0x0,-0x32a(%rbp)
    c41d:	00 00 
    c41f:	48 8d 05 f2 ce 00 00 	lea    0xcef2(%rip),%rax        # 19318 <g_412>
    c426:	48 89 85 40 fd ff ff 	mov    %rax,-0x2c0(%rbp)
    c42d:	66 c7 85 d8 fc ff ff 	movw   $0x0,-0x328(%rbp)
    c434:	00 00 
    c436:	48 8d 05 4b cf 00 00 	lea    0xcf4b(%rip),%rax        # 19388 <g_694+0x48>
    c43d:	48 89 85 48 fd ff ff 	mov    %rax,-0x2b8(%rbp)
    c444:	48 8d 05 b5 cf 00 00 	lea    0xcfb5(%rip),%rax        # 19400 <g_1292>
    c44b:	48 89 85 50 fd ff ff 	mov    %rax,-0x2b0(%rbp)
    c452:	66 c7 85 da fc ff ff 	movw   $0x3,-0x326(%rbp)
    c459:	03 00 
    c45b:	c7 85 f0 fc ff ff 87 	movl   $0xe64fd787,-0x310(%rbp)
    c462:	d7 4f e6 
    c465:	c7 85 f4 fc ff ff 47 	movl   $0x8dd98047,-0x30c(%rbp)
    c46c:	80 d9 8d 
    c46f:	48 8d 85 e0 fc ff ff 	lea    -0x320(%rbp),%rax
    c476:	48 89 85 58 fd ff ff 	mov    %rax,-0x2a8(%rbp)
    c47d:	c6 85 d5 fc ff ff c8 	movb   $0xc8,-0x32b(%rbp)
    c484:	48 b8 e8 6f 08 6f f7 	movabs $0x2f0308f76f086fe8,%rax
    c48b:	08 03 2f 
    c48e:	48 89 85 40 fe ff ff 	mov    %rax,-0x1c0(%rbp)
    c495:	48 89 85 48 fe ff ff 	mov    %rax,-0x1b8(%rbp)
    c49c:	48 be 84 8a 7a 4f ea 	movabs $0x698707ea4f7a8a84,%rsi
    c4a3:	07 87 69 
    c4a6:	48 89 b5 50 fe ff ff 	mov    %rsi,-0x1b0(%rbp)
    c4ad:	48 89 85 58 fe ff ff 	mov    %rax,-0x1a8(%rbp)
    c4b4:	48 89 85 60 fe ff ff 	mov    %rax,-0x1a0(%rbp)
    c4bb:	48 89 b5 68 fe ff ff 	mov    %rsi,-0x198(%rbp)
    c4c2:	48 89 85 70 fe ff ff 	mov    %rax,-0x190(%rbp)
    c4c9:	48 89 85 78 fe ff ff 	mov    %rax,-0x188(%rbp)
    c4d0:	48 89 b5 80 fe ff ff 	mov    %rsi,-0x180(%rbp)
    c4d7:	48 89 85 88 fe ff ff 	mov    %rax,-0x178(%rbp)
    c4de:	48 89 85 90 fe ff ff 	mov    %rax,-0x170(%rbp)
    c4e5:	48 89 b5 98 fe ff ff 	mov    %rsi,-0x168(%rbp)
    c4ec:	48 89 85 a0 fe ff ff 	mov    %rax,-0x160(%rbp)
    c4f3:	48 89 85 a8 fe ff ff 	mov    %rax,-0x158(%rbp)
    c4fa:	48 89 b5 b0 fe ff ff 	mov    %rsi,-0x150(%rbp)
    c501:	48 89 85 b8 fe ff ff 	mov    %rax,-0x148(%rbp)
    c508:	48 b8 3f 61 48 ad 4b 	movabs $0x4cc2574bad48613f,%rax
    c50f:	57 c2 4c 
    c512:	48 89 85 60 fd ff ff 	mov    %rax,-0x2a0(%rbp)
    c519:	48 c7 85 68 fd ff ff 	movq   $0x1,-0x298(%rbp)
    c520:	01 00 00 00 
    c524:	48 8d 05 56 bb 00 00 	lea    0xbb56(%rip),%rax        # 18081 <g_279>
    c52b:	48 89 85 70 fd ff ff 	mov    %rax,-0x290(%rbp)
    c532:	c7 85 f8 fc ff ff 87 	movl   $0x8fbfd487,-0x308(%rbp)
    c539:	d4 bf 8f 
    c53c:	48 c7 85 78 fd ff ff 	movq   $0x0,-0x288(%rbp)
    c543:	00 00 00 00 
    c547:	48 8d 05 8a bb 00 00 	lea    0xbb8a(%rip),%rax        # 180d8 <g_1618>
    c54e:	48 89 85 f0 fd ff ff 	mov    %rax,-0x210(%rbp)
    c555:	48 8d 05 7c bb 00 00 	lea    0xbb7c(%rip),%rax        # 180d8 <g_1618>
    c55c:	48 89 85 f8 fd ff ff 	mov    %rax,-0x208(%rbp)
    c563:	48 8d 05 6e bb 00 00 	lea    0xbb6e(%rip),%rax        # 180d8 <g_1618>
    c56a:	48 89 85 00 fe ff ff 	mov    %rax,-0x200(%rbp)
    c571:	48 8d 05 60 bb 00 00 	lea    0xbb60(%rip),%rax        # 180d8 <g_1618>
    c578:	48 89 85 08 fe ff ff 	mov    %rax,-0x1f8(%rbp)
    c57f:	48 8d 05 52 bb 00 00 	lea    0xbb52(%rip),%rax        # 180d8 <g_1618>
    c586:	48 89 85 10 fe ff ff 	mov    %rax,-0x1f0(%rbp)
    c58d:	48 8d 05 44 bb 00 00 	lea    0xbb44(%rip),%rax        # 180d8 <g_1618>
    c594:	48 89 85 18 fe ff ff 	mov    %rax,-0x1e8(%rbp)
    c59b:	48 8d 05 36 bb 00 00 	lea    0xbb36(%rip),%rax        # 180d8 <g_1618>
    c5a2:	48 89 85 20 fe ff ff 	mov    %rax,-0x1e0(%rbp)
    c5a9:	48 8d 05 28 bb 00 00 	lea    0xbb28(%rip),%rax        # 180d8 <g_1618>
    c5b0:	48 89 85 28 fe ff ff 	mov    %rax,-0x1d8(%rbp)
    c5b7:	48 8d 05 1a bb 00 00 	lea    0xbb1a(%rip),%rax        # 180d8 <g_1618>
    c5be:	48 89 85 30 fe ff ff 	mov    %rax,-0x1d0(%rbp)
    c5c5:	48 8d 05 0c bb 00 00 	lea    0xbb0c(%rip),%rax        # 180d8 <g_1618>
    c5cc:	48 89 85 38 fe ff ff 	mov    %rax,-0x1c8(%rbp)
    c5d3:	c7 85 c0 fe ff ff e5 	movl   $0xf80bf8e5,-0x140(%rbp)
    c5da:	f8 0b f8 
    c5dd:	c7 85 c4 fe ff ff ff 	movl   $0xffffffff,-0x13c(%rbp)
    c5e4:	ff ff ff 
    c5e7:	c7 85 c8 fe ff ff af 	movl   $0x648d94af,-0x138(%rbp)
    c5ee:	94 8d 64 
    c5f1:	c7 85 cc fe ff ff 01 	movl   $0x1,-0x134(%rbp)
    c5f8:	00 00 00 
    c5fb:	c7 85 d0 fe ff ff 08 	movl   $0x8,-0x130(%rbp)
    c602:	00 00 00 
    c605:	c7 85 d4 fe ff ff ff 	movl   $0xffffffff,-0x12c(%rbp)
    c60c:	ff ff ff 
    c60f:	c7 85 d8 fe ff ff b0 	movl   $0x6522b5b0,-0x128(%rbp)
    c616:	b5 22 65 
    c619:	c7 85 dc fe ff ff 99 	movl   $0xb1d2ce99,-0x124(%rbp)
    c620:	ce d2 b1 
    c623:	c7 85 e0 fe ff ff ff 	movl   $0xffffffff,-0x120(%rbp)
    c62a:	ff ff ff 
    c62d:	c7 85 e4 fe ff ff 92 	movl   $0x3cc69c92,-0x11c(%rbp)
    c634:	9c c6 3c 
    c637:	c7 85 e8 fe ff ff 01 	movl   $0x1,-0x118(%rbp)
    c63e:	00 00 00 
    c641:	c7 85 ec fe ff ff ff 	movl   $0xffffffff,-0x114(%rbp)
    c648:	ff ff ff 
    c64b:	c7 85 f0 fe ff ff ff 	movl   $0xffffffff,-0x110(%rbp)
    c652:	ff ff ff 
    c655:	c7 85 f4 fe ff ff af 	movl   $0x648d94af,-0x10c(%rbp)
    c65c:	94 8d 64 
    c65f:	c7 85 f8 fe ff ff af 	movl   $0x648d94af,-0x108(%rbp)
    c666:	94 8d 64 
    c669:	c7 85 fc fe ff ff 32 	movl   $0xe6747c32,-0x104(%rbp)
    c670:	7c 74 e6 
    c673:	c7 85 00 ff ff ff ff 	movl   $0xffffffff,-0x100(%rbp)
    c67a:	ff ff ff 
    c67d:	c7 85 04 ff ff ff 03 	movl   $0x3,-0xfc(%rbp)
    c684:	00 00 00 
    c687:	c7 85 08 ff ff ff 32 	movl   $0xe6747c32,-0xf8(%rbp)
    c68e:	7c 74 e6 
    c691:	c7 85 0c ff ff ff 03 	movl   $0x3,-0xf4(%rbp)
    c698:	00 00 00 
    c69b:	c7 85 10 ff ff ff 92 	movl   $0x3cc69c92,-0xf0(%rbp)
    c6a2:	9c c6 3c 
    c6a5:	c7 85 14 ff ff ff ff 	movl   $0xffffffff,-0xec(%rbp)
    c6ac:	ff ff ff 
    c6af:	c7 85 18 ff ff ff e5 	movl   $0xf80bf8e5,-0xe8(%rbp)
    c6b6:	f8 0b f8 
    c6b9:	c7 85 1c ff ff ff af 	movl   $0x361498af,-0xe4(%rbp)
    c6c0:	98 14 36 
    c6c3:	c7 85 20 ff ff ff 92 	movl   $0x3cc69c92,-0xe0(%rbp)
    c6ca:	9c c6 3c 
    c6cd:	c7 85 24 ff ff ff b0 	movl   $0x6522b5b0,-0xdc(%rbp)
    c6d4:	b5 22 65 
    c6d7:	c7 85 28 ff ff ff 95 	movl   $0xc87c6c95,-0xd8(%rbp)
    c6de:	6c 7c c8 
    c6e1:	c7 85 2c ff ff ff b0 	movl   $0x6522b5b0,-0xd4(%rbp)
    c6e8:	b5 22 65 
    c6eb:	c7 85 30 ff ff ff e5 	movl   $0xf80bf8e5,-0xd0(%rbp)
    c6f2:	f8 0b f8 
    c6f5:	c7 85 34 ff ff ff b3 	movl   $0x6a49d6b3,-0xcc(%rbp)
    c6fc:	d6 49 6a 
    c6ff:	c7 85 38 ff ff ff 01 	movl   $0x1,-0xc8(%rbp)
    c706:	00 00 00 
    c709:	c7 85 3c ff ff ff 03 	movl   $0x3,-0xc4(%rbp)
    c710:	00 00 00 
    c713:	c7 85 40 ff ff ff 01 	movl   $0x1,-0xc0(%rbp)
    c71a:	00 00 00 
    c71d:	c7 85 44 ff ff ff e5 	movl   $0xf80bf8e5,-0xbc(%rbp)
    c724:	f8 0b f8 
    c727:	c7 85 48 ff ff ff ff 	movl   $0xffffffff,-0xb8(%rbp)
    c72e:	ff ff ff 
    c731:	c7 85 4c ff ff ff 01 	movl   $0x1,-0xb4(%rbp)
    c738:	00 00 00 
    c73b:	48 b8 f7 88 08 e7 31 	movabs $0xfe38c431e70888f7,%rax
    c742:	c4 38 fe 
    c745:	48 89 85 80 fd ff ff 	mov    %rax,-0x280(%rbp)
    c74c:	c7 85 fc fc ff ff ff 	movl   $0xffffffff,-0x304(%rbp)
    c753:	ff ff ff 
    c756:	66 c7 85 dc fc ff ff 	movw   $0x29d8,-0x324(%rbp)
    c75d:	d8 29 
    c75f:	66 c7 85 de fc ff ff 	movw   $0x1,-0x322(%rbp)
    c766:	01 00 
    c768:	48 8d 95 50 ff ff ff 	lea    -0xb0(%rbp),%rdx
    c76f:	b8 00 00 00 00       	mov    $0x0,%eax
    c774:	b9 15 00 00 00       	mov    $0x15,%ecx
    c779:	48 89 d7             	mov    %rdx,%rdi
    c77c:	f3 48 ab             	rep stos %rax,%es:(%rdi)
    c77f:	c7 85 e4 fc ff ff 00 	movl   $0x0,-0x31c(%rbp)
    c786:	00 00 00 
    c789:	eb 1a                	jmp    c7a5 <func_16+0x48c>
    c78b:	8b 85 e4 fc ff ff    	mov    -0x31c(%rbp),%eax
    c791:	48 98                	cltq   
    c793:	c7 84 85 8c fd ff ff 	movl   $0x2,-0x274(%rbp,%rax,4)
    c79a:	02 00 00 00 
    c79e:	83 85 e4 fc ff ff 01 	addl   $0x1,-0x31c(%rbp)
    c7a5:	83 bd e4 fc ff ff 00 	cmpl   $0x0,-0x31c(%rbp)
    c7ac:	7e dd                	jle    c78b <func_16+0x472>
    c7ae:	c7 85 e4 fc ff ff 00 	movl   $0x0,-0x31c(%rbp)
    c7b5:	00 00 00 
    c7b8:	eb 1a                	jmp    c7d4 <func_16+0x4bb>
    c7ba:	8b 85 e4 fc ff ff    	mov    -0x31c(%rbp),%eax
    c7c0:	48 98                	cltq   
    c7c2:	c7 84 85 90 fd ff ff 	movl   $0x0,-0x270(%rbp,%rax,4)
    c7c9:	00 00 00 00 
    c7cd:	83 85 e4 fc ff ff 01 	addl   $0x1,-0x31c(%rbp)
    c7d4:	83 bd e4 fc ff ff 08 	cmpl   $0x8,-0x31c(%rbp)
    c7db:	7e dd                	jle    c7ba <func_16+0x4a1>
    c7dd:	48 8b 45 c8          	mov    -0x38(%rbp),%rax
    c7e1:	48 8b 55 f8          	mov    -0x8(%rbp),%rdx
    c7e5:	64 48 33 14 25 28 00 	xor    %fs:0x28,%rdx
    c7ec:	00 00 
    c7ee:	74 05                	je     c7f5 <func_16+0x4dc>
    c7f0:	e8 7b 78 ff ff       	callq  4070 <__stack_chk_fail@plt>
    c7f5:	c9                   	leaveq 
    c7f6:	c3                   	retq   

000000000000c7f7 <func_27>:
    c7f7:	f3 0f 1e fa          	endbr64 
    c7fb:	55                   	push   %rbp
    c7fc:	48 89 e5             	mov    %rsp,%rbp
    c7ff:	89 7d ec             	mov    %edi,-0x14(%rbp)
    c802:	89 75 e8             	mov    %esi,-0x18(%rbp)
    c805:	48 89 55 e0          	mov    %rdx,-0x20(%rbp)
    c809:	89 4d dc             	mov    %ecx,-0x24(%rbp)
    c80c:	44 89 45 d8          	mov    %r8d,-0x28(%rbp)
    c810:	c7 45 fc 01 00 00 00 	movl   $0x1,-0x4(%rbp)
    c817:	c7 45 fc 02 00 00 00 	movl   $0x2,-0x4(%rbp)
    c81e:	8b 45 fc             	mov    -0x4(%rbp),%eax
    c821:	5d                   	pop    %rbp
    c822:	c3                   	retq   

000000000000c823 <func_39>:
    c823:	f3 0f 1e fa          	endbr64 
    c827:	55                   	push   %rbp
    c828:	48 89 e5             	mov    %rsp,%rbp
    c82b:	41 57                	push   %r15
    c82d:	41 56                	push   %r14
    c82f:	41 55                	push   %r13
    c831:	41 54                	push   %r12
    c833:	53                   	push   %rbx
    c834:	48 81 ec 18 0a 00 00 	sub    $0xa18,%rsp
    c83b:	48 89 bd c8 f5 ff ff 	mov    %rdi,-0xa38(%rbp)
    c842:	48 89 b5 c0 f5 ff ff 	mov    %rsi,-0xa40(%rbp)
    c849:	64 48 8b 04 25 28 00 	mov    %fs:0x28,%rax
    c850:	00 00 
    c852:	48 89 45 c8          	mov    %rax,-0x38(%rbp)
    c856:	31 c0                	xor    %eax,%eax
    c858:	c7 85 f8 f5 ff ff 76 	movl   $0xee91b76,-0xa08(%rbp)
    c85f:	1b e9 0e 
    c862:	c7 85 e0 f5 ff ff 16 	movl   $0x7b38eb16,-0xa20(%rbp)
    c869:	eb 38 7b 
    c86c:	c7 85 80 f7 ff ff 00 	movl   $0x0,-0x880(%rbp)
    c873:	00 00 00 
    c876:	c7 85 84 f7 ff ff 00 	movl   $0x0,-0x87c(%rbp)
    c87d:	00 00 00 
    c880:	c7 85 88 f7 ff ff 1e 	movl   $0x1c57511e,-0x878(%rbp)
    c887:	51 57 1c 
    c88a:	c7 85 8c f7 ff ff 04 	movl   $0x4,-0x874(%rbp)
    c891:	00 00 00 
    c894:	c7 85 90 f7 ff ff 1e 	movl   $0x1c57511e,-0x870(%rbp)
    c89b:	51 57 1c 
    c89e:	c7 85 94 f7 ff ff 00 	movl   $0x0,-0x86c(%rbp)
    c8a5:	00 00 00 
    c8a8:	c7 85 98 f7 ff ff 1e 	movl   $0x1c57511e,-0x868(%rbp)
    c8af:	51 57 1c 
    c8b2:	c7 85 9c f7 ff ff 00 	movl   $0x0,-0x864(%rbp)
    c8b9:	00 00 00 
    c8bc:	c7 85 a0 f7 ff ff 04 	movl   $0x4,-0x860(%rbp)
    c8c3:	00 00 00 
    c8c6:	c7 85 a4 f7 ff ff 04 	movl   $0x4,-0x85c(%rbp)
    c8cd:	00 00 00 
    c8d0:	c7 85 a8 f7 ff ff 00 	movl   $0x0,-0x858(%rbp)
    c8d7:	00 00 00 
    c8da:	c7 85 ac f7 ff ff 1e 	movl   $0x1c57511e,-0x854(%rbp)
    c8e1:	51 57 1c 
    c8e4:	48 8d 05 0d c6 00 00 	lea    0xc60d(%rip),%rax        # 18ef8 <g_124+0x198>
    c8eb:	48 89 85 40 f6 ff ff 	mov    %rax,-0x9c0(%rbp)
    c8f2:	48 8d 05 2f d3 00 00 	lea    0xd32f(%rip),%rax        # 19c28 <g_99>
    c8f9:	48 89 85 48 f6 ff ff 	mov    %rax,-0x9b8(%rbp)
    c900:	48 c7 85 30 f6 ff ff 	movq   $0x0,-0x9d0(%rbp)
    c907:	00 00 00 00 
    c90b:	48 8d 85 30 f6 ff ff 	lea    -0x9d0(%rbp),%rax
    c912:	48 89 85 50 f6 ff ff 	mov    %rax,-0x9b0(%rbp)
    c919:	c7 85 fc f5 ff ff 00 	movl   $0x0,-0xa04(%rbp)
    c920:	00 00 00 
    c923:	c7 85 e4 f5 ff ff ad 	movl   $0xac211dad,-0xa1c(%rbp)
    c92a:	1d 21 ac 
    c92d:	c7 85 00 f6 ff ff a3 	movl   $0xcd28f8a3,-0xa00(%rbp)
    c934:	f8 28 cd 
    c937:	c7 85 04 f6 ff ff b5 	movl   $0xb66ed9b5,-0x9fc(%rbp)
    c93e:	d9 6e b6 
    c941:	66 c7 85 da f5 ff ff 	movw   $0x1,-0xa26(%rbp)
    c948:	01 00 
    c94a:	c7 85 e8 f5 ff ff fc 	movl   $0xfffffffc,-0xa18(%rbp)
    c951:	ff ff ff 
    c954:	c7 85 ec f5 ff ff 6d 	movl   $0xea6e16d,-0xa14(%rbp)
    c95b:	e1 a6 0e 
    c95e:	c7 85 08 f6 ff ff 04 	movl   $0x4,-0x9f8(%rbp)
    c965:	00 00 00 
    c968:	c7 85 c0 f6 ff ff 01 	movl   $0x1,-0x940(%rbp)
    c96f:	00 00 00 
    c972:	c7 85 c4 f6 ff ff a7 	movl   $0xab0a66a7,-0x93c(%rbp)
    c979:	66 0a ab 
    c97c:	c7 85 c8 f6 ff ff 01 	movl   $0x1,-0x938(%rbp)
    c983:	00 00 00 
    c986:	c7 85 cc f6 ff ff 01 	movl   $0x1,-0x934(%rbp)
    c98d:	00 00 00 
    c990:	c7 85 d0 f6 ff ff a7 	movl   $0xab0a66a7,-0x930(%rbp)
    c997:	66 0a ab 
    c99a:	c7 85 d4 f6 ff ff 01 	movl   $0x1,-0x92c(%rbp)
    c9a1:	00 00 00 
    c9a4:	c7 85 d8 f6 ff ff 01 	movl   $0x1,-0x928(%rbp)
    c9ab:	00 00 00 
    c9ae:	c7 85 f0 f5 ff ff 4b 	movl   $0x48be694b,-0xa10(%rbp)
    c9b5:	69 be 48 
    c9b8:	48 c7 85 58 f6 ff ff 	movq   $0xffffffffffffffff,-0x9a8(%rbp)
    c9bf:	ff ff ff ff 
    c9c3:	c7 85 0c f6 ff ff 09 	movl   $0x9,-0x9f4(%rbp)
    c9ca:	00 00 00 
    c9cd:	8b 85 e0 f5 ff ff    	mov    -0xa20(%rbp),%eax
    c9d3:	33 85 f8 f5 ff ff    	xor    -0xa08(%rbp),%eax
    c9d9:	89 85 e0 f5 ff ff    	mov    %eax,-0xa20(%rbp)
    c9df:	8b 85 e0 f5 ff ff    	mov    -0xa20(%rbp),%eax
    c9e5:	0f b6 c0             	movzbl %al,%eax
    c9e8:	89 c6                	mov    %eax,%esi
    c9ea:	bf fa 00 00 00       	mov    $0xfa,%edi
    c9ef:	e8 84 81 ff ff       	callq  4b78 <safe_sub_func_uint8_t_u_u>
    c9f4:	0f b6 c0             	movzbl %al,%eax
    c9f7:	23 85 f8 f5 ff ff    	and    -0xa08(%rbp),%eax
    c9fd:	25 7f 68 49 22       	and    $0x2249687f,%eax
    ca02:	89 85 80 f7 ff ff    	mov    %eax,-0x880(%rbp)
    ca08:	48 8b 85 c0 f5 ff ff 	mov    -0xa40(%rbp),%rax
    ca0f:	8b 00                	mov    (%rax),%eax
    ca11:	41 89 c7             	mov    %eax,%r15d
    ca14:	8b 85 a8 f7 ff ff    	mov    -0x858(%rbp),%eax
    ca1a:	0f b7 d8             	movzwl %ax,%ebx
    ca1d:	8b 05 15 b6 00 00    	mov    0xb615(%rip),%eax        # 18038 <g_24>
    ca23:	4c 63 e0             	movslq %eax,%r12
    ca26:	48 8b 05 03 b6 00 00 	mov    0xb603(%rip),%rax        # 18030 <g_15>
    ca2d:	44 0f bf e8          	movswl %ax,%r13d
    ca31:	8b 85 80 f7 ff ff    	mov    -0x880(%rbp),%eax
    ca37:	0f b6 d0             	movzbl %al,%edx
    ca3a:	48 8b 0d af c4 00 00 	mov    0xc4af(%rip),%rcx        # 18ef0 <g_124+0x190>
    ca41:	48 8b 85 40 f6 ff ff 	mov    -0x9c0(%rbp),%rax
    ca48:	48 89 08             	mov    %rcx,(%rax)
    ca4b:	48 8b 85 c0 f5 ff ff 	mov    -0xa40(%rbp),%rax
    ca52:	8b 00                	mov    (%rax),%eax
    ca54:	85 c0                	test   %eax,%eax
    ca56:	0f 95 c0             	setne  %al
    ca59:	0f b6 c8             	movzbl %al,%ecx
    ca5c:	48 8b 05 cd b5 00 00 	mov    0xb5cd(%rip),%rax        # 18030 <g_15>
    ca63:	48 39 c1             	cmp    %rax,%rcx
    ca66:	77 0b                	ja     ca73 <func_39+0x250>
    ca68:	48 8b 85 c8 f5 ff ff 	mov    -0xa38(%rbp),%rax
    ca6f:	8b 00                	mov    (%rax),%eax
    ca71:	85 c0                	test   %eax,%eax
    ca73:	8b 05 bf b5 00 00    	mov    0xb5bf(%rip),%eax        # 18038 <g_24>
    ca79:	0f b6 c0             	movzbl %al,%eax
    ca7c:	89 d6                	mov    %edx,%esi
    ca7e:	89 c7                	mov    %eax,%edi
    ca80:	e8 29 81 ff ff       	callq  4bae <safe_mod_func_uint8_t_u_u>
    ca85:	44 0f b6 f0          	movzbl %al,%r14d
    ca89:	48 8d 85 e0 f5 ff ff 	lea    -0xa20(%rbp),%rax
    ca90:	48 89 c7             	mov    %rax,%rdi
    ca93:	e8 5d 5f 00 00       	callq  129f5 <func_65>
    ca98:	0f b6 c0             	movzbl %al,%eax
    ca9b:	44 89 f6             	mov    %r14d,%esi
    ca9e:	89 c7                	mov    %eax,%edi
    caa0:	e8 d3 80 ff ff       	callq  4b78 <safe_sub_func_uint8_t_u_u>
    caa5:	0f b6 d0             	movzbl %al,%edx
    caa8:	48 8b 05 81 b5 00 00 	mov    0xb581(%rip),%rax        # 18030 <g_15>
    caaf:	48 39 c2             	cmp    %rax,%rdx
    cab2:	0f 92 c0             	setb   %al
    cab5:	0f b6 c0             	movzbl %al,%eax
    cab8:	44 89 ee             	mov    %r13d,%esi
    cabb:	89 c7                	mov    %eax,%edi
    cabd:	e8 33 79 ff ff       	callq  43f5 <safe_mul_func_int16_t_s_s>
    cac2:	be 01 00 00 00       	mov    $0x1,%esi
    cac7:	bf 01 00 00 00       	mov    $0x1,%edi
    cacc:	e8 41 77 ff ff       	callq  4212 <safe_mul_func_int8_t_s_s>
    cad1:	8b 85 8c f7 ff ff    	mov    -0x874(%rbp),%eax
    cad7:	83 f8 01             	cmp    $0x1,%eax
    cada:	0f 97 c0             	seta   %al
    cadd:	0f b6 d0             	movzbl %al,%edx
    cae0:	48 8b 85 48 f6 ff ff 	mov    -0x9b8(%rbp),%rax
    cae7:	89 10                	mov    %edx,(%rax)
    cae9:	48 8b 85 48 f6 ff ff 	mov    -0x9b8(%rbp),%rax
    caf0:	8b 00                	mov    (%rax),%eax
    caf2:	4c 89 e6             	mov    %r12,%rsi
    caf5:	89 c7                	mov    %eax,%edi
    caf7:	e8 ff 19 00 00       	callq  e4fb <func_56>
    cafc:	48 ba 23 c8 cf a1 69 	movabs $0x46fccb69a1cfc823,%rdx
    cb03:	cb fc 46 
    cb06:	48 39 d0             	cmp    %rdx,%rax
    cb09:	48 8b 05 c8 c8 00 00 	mov    0xc8c8(%rip),%rax        # 193d8 <g_970>
    cb10:	48 8b 00             	mov    (%rax),%rax
    cb13:	48 8b 00             	mov    (%rax),%rax
    cb16:	48 8b 00             	mov    (%rax),%rax
    cb19:	8b 95 80 f7 ff ff    	mov    -0x880(%rbp),%edx
    cb1f:	89 d2                	mov    %edx,%edx
    cb21:	48 39 d0             	cmp    %rdx,%rax
    cb24:	0f 9c c0             	setl   %al
    cb27:	0f b6 d0             	movzbl %al,%edx
    cb2a:	48 8b 05 0f c2 00 00 	mov    0xc20f(%rip),%rax        # 18d40 <g_125>
    cb31:	8b 00                	mov    (%rax),%eax
    cb33:	39 c2                	cmp    %eax,%edx
    cb35:	0f 94 c0             	sete   %al
    cb38:	0f b6 c0             	movzbl %al,%eax
    cb3b:	89 de                	mov    %ebx,%esi
    cb3d:	89 c7                	mov    %eax,%edi
    cb3f:	e8 db 81 ff ff       	callq  4d1f <safe_sub_func_uint16_t_u_u>
    cb44:	0f b7 d0             	movzwl %ax,%edx
    cb47:	8b 05 eb b4 00 00    	mov    0xb4eb(%rip),%eax        # 18038 <g_24>
    cb4d:	39 c2                	cmp    %eax,%edx
    cb4f:	0f 9d c0             	setge  %al
    cb52:	0f b6 c0             	movzbl %al,%eax
    cb55:	48 c7 c6 fc ff ff ff 	mov    $0xfffffffffffffffc,%rsi
    cb5c:	48 89 c7             	mov    %rax,%rdi
    cb5f:	e8 44 7d ff ff       	callq  48a8 <safe_sub_func_int64_t_s_s>
    cb64:	44 89 fe             	mov    %r15d,%esi
    cb67:	89 c7                	mov    %eax,%edi
    cb69:	e8 8f 83 ff ff       	callq  4efd <safe_mod_func_uint32_t_u_u>
    cb6e:	48 8b 85 c8 f5 ff ff 	mov    -0xa38(%rbp),%rax
    cb75:	48 3b 85 c0 f5 ff ff 	cmp    -0xa40(%rbp),%rax
    cb7c:	0f 95 c0             	setne  %al
    cb7f:	0f b6 c0             	movzbl %al,%eax
    cb82:	48 89 c7             	mov    %rax,%rdi
    cb85:	e8 4f 10 00 00       	callq  dbd9 <func_47>
    cb8a:	85 c0                	test   %eax,%eax
    cb8c:	0f 84 96 04 00 00    	je     d028 <func_39+0x805>
    cb92:	48 8b 85 c8 f5 ff ff 	mov    -0xa38(%rbp),%rax
    cb99:	8b 00                	mov    (%rax),%eax
    cb9b:	85 c0                	test   %eax,%eax
    cb9d:	0f 84 85 04 00 00    	je     d028 <func_39+0x805>
    cba3:	c6 85 d7 f5 ff ff 00 	movb   $0x0,-0xa29(%rbp)
    cbaa:	c7 85 10 f6 ff ff 1d 	movl   $0x16d5341d,-0x9f0(%rbp)
    cbb1:	34 d5 16 
    cbb4:	48 8d 05 05 c8 00 00 	lea    0xc805(%rip),%rax        # 193c0 <g_968>
    cbbb:	48 89 85 60 f6 ff ff 	mov    %rax,-0x9a0(%rbp)
    cbc2:	48 c7 85 e0 f6 ff ff 	movq   $0x0,-0x920(%rbp)
    cbc9:	00 00 00 00 
    cbcd:	48 c7 85 e8 f6 ff ff 	movq   $0x0,-0x918(%rbp)
    cbd4:	00 00 00 00 
    cbd8:	48 c7 85 f0 f6 ff ff 	movq   $0x0,-0x910(%rbp)
    cbdf:	00 00 00 00 
    cbe3:	48 c7 85 f8 f6 ff ff 	movq   $0x0,-0x908(%rbp)
    cbea:	00 00 00 00 
    cbee:	c7 85 14 f6 ff ff 01 	movl   $0x1,-0x9ec(%rbp)
    cbf5:	00 00 00 
    cbf8:	c7 85 18 f6 ff ff fe 	movl   $0xfffffffe,-0x9e8(%rbp)
    cbff:	ff ff ff 
    cc02:	c7 85 1c f6 ff ff 7d 	movl   $0x58da687d,-0x9e4(%rbp)
    cc09:	68 da 58 
    cc0c:	48 8d 05 25 b4 00 00 	lea    0xb425(%rip),%rax        # 18038 <g_24>
    cc13:	48 89 85 e0 f7 ff ff 	mov    %rax,-0x820(%rbp)
    cc1a:	48 c7 85 e8 f7 ff ff 	movq   $0x0,-0x818(%rbp)
    cc21:	00 00 00 00 
    cc25:	48 c7 85 f0 f7 ff ff 	movq   $0x0,-0x810(%rbp)
    cc2c:	00 00 00 00 
    cc30:	48 8d 05 01 b4 00 00 	lea    0xb401(%rip),%rax        # 18038 <g_24>
    cc37:	48 89 85 f8 f7 ff ff 	mov    %rax,-0x808(%rbp)
    cc3e:	48 c7 85 00 f8 ff ff 	movq   $0x0,-0x800(%rbp)
    cc45:	00 00 00 00 
    cc49:	48 c7 85 08 f8 ff ff 	movq   $0x0,-0x7f8(%rbp)
    cc50:	00 00 00 00 
    cc54:	48 8d 05 dd b3 00 00 	lea    0xb3dd(%rip),%rax        # 18038 <g_24>
    cc5b:	48 89 85 10 f8 ff ff 	mov    %rax,-0x7f0(%rbp)
    cc62:	c7 85 a0 f6 ff ff da 	movl   $0x74cf00da,-0x960(%rbp)
    cc69:	00 cf 74 
    cc6c:	c7 85 a4 f6 ff ff da 	movl   $0x74cf00da,-0x95c(%rbp)
    cc73:	00 cf 74 
    cc76:	c7 85 a8 f6 ff ff da 	movl   $0x74cf00da,-0x958(%rbp)
    cc7d:	00 cf 74 
    cc80:	c7 85 ac f6 ff ff da 	movl   $0x74cf00da,-0x954(%rbp)
    cc87:	00 cf 74 
    cc8a:	c7 85 b0 f6 ff ff da 	movl   $0x74cf00da,-0x950(%rbp)
    cc91:	00 cf 74 
    cc94:	48 8d 85 30 f6 ff ff 	lea    -0x9d0(%rbp),%rax
    cc9b:	48 89 85 68 f6 ff ff 	mov    %rax,-0x998(%rbp)
    cca2:	c7 85 20 f6 ff ff 09 	movl   $0x9,-0x9e0(%rbp)
    cca9:	00 00 00 
    ccac:	66 c7 85 dc f5 ff ff 	movw   $0xa4da,-0xa24(%rbp)
    ccb3:	da a4 
    ccb5:	c7 85 20 f7 ff ff 01 	movl   $0x1,-0x8e0(%rbp)
    ccbc:	00 00 00 
    ccbf:	c7 85 24 f7 ff ff 07 	movl   $0x7,-0x8dc(%rbp)
    ccc6:	00 00 00 
    ccc9:	c7 85 28 f7 ff ff 07 	movl   $0x7,-0x8d8(%rbp)
    ccd0:	00 00 00 
    ccd3:	c7 85 2c f7 ff ff 01 	movl   $0x1,-0x8d4(%rbp)
    ccda:	00 00 00 
    ccdd:	c7 85 30 f7 ff ff 07 	movl   $0x7,-0x8d0(%rbp)
    cce4:	00 00 00 
    cce7:	c7 85 34 f7 ff ff 07 	movl   $0x7,-0x8cc(%rbp)
    ccee:	00 00 00 
    ccf1:	c7 85 38 f7 ff ff 01 	movl   $0x1,-0x8c8(%rbp)
    ccf8:	00 00 00 
    ccfb:	c7 85 3c f7 ff ff 07 	movl   $0x7,-0x8c4(%rbp)
    cd02:	00 00 00 
    cd05:	c7 85 40 f7 ff ff 07 	movl   $0x7,-0x8c0(%rbp)
    cd0c:	00 00 00 
    cd0f:	c7 85 44 f7 ff ff 01 	movl   $0x1,-0x8bc(%rbp)
    cd16:	00 00 00 
    cd19:	48 c7 85 70 f6 ff ff 	movq   $0xfffffffffffffff8,-0x990(%rbp)
    cd20:	f8 ff ff ff 
    cd24:	c7 85 24 f6 ff ff ff 	movl   $0xffffffff,-0x9dc(%rbp)
    cd2b:	ff ff ff 
    cd2e:	c6 85 d8 f5 ff ff ff 	movb   $0xff,-0xa28(%rbp)
    cd35:	48 c7 85 78 f6 ff ff 	movq   $0x0,-0x988(%rbp)
    cd3c:	00 00 00 00 
    cd40:	48 8d 05 e9 ce 00 00 	lea    0xcee9(%rip),%rax        # 19c30 <g_174>
    cd47:	48 89 85 50 f7 ff ff 	mov    %rax,-0x8b0(%rbp)
    cd4e:	48 8d 05 db ce 00 00 	lea    0xcedb(%rip),%rax        # 19c30 <g_174>
    cd55:	48 89 85 58 f7 ff ff 	mov    %rax,-0x8a8(%rbp)
    cd5c:	48 8d 05 cd ce 00 00 	lea    0xcecd(%rip),%rax        # 19c30 <g_174>
    cd63:	48 89 85 60 f7 ff ff 	mov    %rax,-0x8a0(%rbp)
    cd6a:	48 8d 05 bf ce 00 00 	lea    0xcebf(%rip),%rax        # 19c30 <g_174>
    cd71:	48 89 85 68 f7 ff ff 	mov    %rax,-0x898(%rbp)
    cd78:	48 8d 05 b1 ce 00 00 	lea    0xceb1(%rip),%rax        # 19c30 <g_174>
    cd7f:	48 89 85 70 f7 ff ff 	mov    %rax,-0x890(%rbp)
    cd86:	48 8d 85 50 f7 ff ff 	lea    -0x8b0(%rbp),%rax
    cd8d:	48 83 c0 08          	add    $0x8,%rax
    cd91:	48 89 85 80 f6 ff ff 	mov    %rax,-0x980(%rbp)
    cd98:	c6 85 d9 f5 ff ff a8 	movb   $0xa8,-0xa27(%rbp)
    cd9f:	48 c7 85 88 f6 ff ff 	movq   $0x0,-0x978(%rbp)
    cda6:	00 00 00 00 
    cdaa:	48 8d 05 67 c5 00 00 	lea    0xc567(%rip),%rax        # 19318 <g_412>
    cdb1:	48 89 85 90 f6 ff ff 	mov    %rax,-0x970(%rbp)
    cdb8:	48 8d 05 79 ce 00 00 	lea    0xce79(%rip),%rax        # 19c38 <g_220>
    cdbf:	48 89 85 20 fa ff ff 	mov    %rax,-0x5e0(%rbp)
    cdc6:	48 8d 05 6b ce 00 00 	lea    0xce6b(%rip),%rax        # 19c38 <g_220>
    cdcd:	48 89 85 28 fa ff ff 	mov    %rax,-0x5d8(%rbp)
    cdd4:	48 c7 85 30 fa ff ff 	movq   $0x0,-0x5d0(%rbp)
    cddb:	00 00 00 00 
    cddf:	48 c7 85 38 fa ff ff 	movq   $0x0,-0x5c8(%rbp)
    cde6:	00 00 00 00 
    cdea:	48 8d 05 47 ce 00 00 	lea    0xce47(%rip),%rax        # 19c38 <g_220>
    cdf1:	48 89 85 40 fa ff ff 	mov    %rax,-0x5c0(%rbp)
    cdf8:	48 c7 85 48 fa ff ff 	movq   $0x0,-0x5b8(%rbp)
    cdff:	00 00 00 00 
    ce03:	48 c7 85 50 fa ff ff 	movq   $0x0,-0x5b0(%rbp)
    ce0a:	00 00 00 00 
    ce0e:	48 8d 05 23 ce 00 00 	lea    0xce23(%rip),%rax        # 19c38 <g_220>
    ce15:	48 89 85 58 fa ff ff 	mov    %rax,-0x5a8(%rbp)
    ce1c:	48 8d 05 15 ce 00 00 	lea    0xce15(%rip),%rax        # 19c38 <g_220>
    ce23:	48 89 85 60 fa ff ff 	mov    %rax,-0x5a0(%rbp)
    ce2a:	48 c7 85 68 fa ff ff 	movq   $0x0,-0x598(%rbp)
    ce31:	00 00 00 00 
    ce35:	48 8d 05 fc cd 00 00 	lea    0xcdfc(%rip),%rax        # 19c38 <g_220>
    ce3c:	48 89 85 70 fa ff ff 	mov    %rax,-0x590(%rbp)
    ce43:	48 c7 85 78 fa ff ff 	movq   $0x0,-0x588(%rbp)
    ce4a:	00 00 00 00 
    ce4e:	48 8d 05 e3 cd 00 00 	lea    0xcde3(%rip),%rax        # 19c38 <g_220>
    ce55:	48 89 85 80 fa ff ff 	mov    %rax,-0x580(%rbp)
    ce5c:	48 8d 05 d5 cd 00 00 	lea    0xcdd5(%rip),%rax        # 19c38 <g_220>
    ce63:	48 89 85 88 fa ff ff 	mov    %rax,-0x578(%rbp)
    ce6a:	48 c7 85 90 fa ff ff 	movq   $0x0,-0x570(%rbp)
    ce71:	00 00 00 00 
    ce75:	48 8d 05 bc cd 00 00 	lea    0xcdbc(%rip),%rax        # 19c38 <g_220>
    ce7c:	48 89 85 98 fa ff ff 	mov    %rax,-0x568(%rbp)
    ce83:	48 c7 85 a0 fa ff ff 	movq   $0x0,-0x560(%rbp)
    ce8a:	00 00 00 00 
    ce8e:	48 8d 05 a3 cd 00 00 	lea    0xcda3(%rip),%rax        # 19c38 <g_220>
    ce95:	48 89 85 a8 fa ff ff 	mov    %rax,-0x558(%rbp)
    ce9c:	48 c7 85 70 f8 ff ff 	movq   $0x0,-0x790(%rbp)
    cea3:	00 00 00 00 
    cea7:	48 c7 85 78 f8 ff ff 	movq   $0x0,-0x788(%rbp)
    ceae:	00 00 00 00 
    ceb2:	48 c7 85 80 f8 ff ff 	movq   $0x0,-0x780(%rbp)
    ceb9:	00 00 00 00 
    cebd:	48 c7 85 88 f8 ff ff 	movq   $0x0,-0x778(%rbp)
    cec4:	00 00 00 00 
    cec8:	48 c7 85 90 f8 ff ff 	movq   $0x0,-0x770(%rbp)
    cecf:	00 00 00 00 
    ced3:	48 c7 85 98 f8 ff ff 	movq   $0x0,-0x768(%rbp)
    ceda:	00 00 00 00 
    cede:	48 c7 85 a0 f8 ff ff 	movq   $0x0,-0x760(%rbp)
    cee5:	00 00 00 00 
    cee9:	48 c7 85 a8 f8 ff ff 	movq   $0x0,-0x758(%rbp)
    cef0:	00 00 00 00 
    cef4:	48 c7 85 b0 f8 ff ff 	movq   $0x0,-0x750(%rbp)
    cefb:	00 00 00 00 
    ceff:	48 c7 85 38 f6 ff ff 	movq   $0x0,-0x9c8(%rbp)
    cf06:	00 00 00 00 
    cf0a:	48 8d 85 38 f6 ff ff 	lea    -0x9c8(%rbp),%rax
    cf11:	48 89 85 b0 f7 ff ff 	mov    %rax,-0x850(%rbp)
    cf18:	48 8d 85 38 f6 ff ff 	lea    -0x9c8(%rbp),%rax
    cf1f:	48 89 85 b8 f7 ff ff 	mov    %rax,-0x848(%rbp)
    cf26:	48 8d 85 38 f6 ff ff 	lea    -0x9c8(%rbp),%rax
    cf2d:	48 89 85 c0 f7 ff ff 	mov    %rax,-0x840(%rbp)
    cf34:	48 8d 85 38 f6 ff ff 	lea    -0x9c8(%rbp),%rax
    cf3b:	48 89 85 c8 f7 ff ff 	mov    %rax,-0x838(%rbp)
    cf42:	48 8d 85 38 f6 ff ff 	lea    -0x9c8(%rbp),%rax
    cf49:	48 89 85 d0 f7 ff ff 	mov    %rax,-0x830(%rbp)
    cf50:	48 8d 85 38 f6 ff ff 	lea    -0x9c8(%rbp),%rax
    cf57:	48 89 85 d8 f7 ff ff 	mov    %rax,-0x828(%rbp)
    cf5e:	c7 85 20 f8 ff ff 00 	movl   $0x0,-0x7e0(%rbp)
    cf65:	00 00 00 
    cf68:	c7 85 24 f8 ff ff b6 	movl   $0xce31d3b6,-0x7dc(%rbp)
    cf6f:	d3 31 ce 
    cf72:	c7 85 28 f8 ff ff b6 	movl   $0xce31d3b6,-0x7d8(%rbp)
    cf79:	d3 31 ce 
    cf7c:	c7 85 2c f8 ff ff 00 	movl   $0x0,-0x7d4(%rbp)
    cf83:	00 00 00 
    cf86:	c7 85 30 f8 ff ff 72 	movl   $0xd1fa5672,-0x7d0(%rbp)
    cf8d:	56 fa d1 
    cf90:	c7 85 34 f8 ff ff 00 	movl   $0x0,-0x7cc(%rbp)
    cf97:	00 00 00 
    cf9a:	c7 85 38 f8 ff ff b6 	movl   $0xce31d3b6,-0x7c8(%rbp)
    cfa1:	d3 31 ce 
    cfa4:	c7 85 3c f8 ff ff b6 	movl   $0xce31d3b6,-0x7c4(%rbp)
    cfab:	d3 31 ce 
    cfae:	c7 85 40 f8 ff ff 00 	movl   $0x0,-0x7c0(%rbp)
    cfb5:	00 00 00 
    cfb8:	c7 85 44 f8 ff ff 72 	movl   $0xd1fa5672,-0x7bc(%rbp)
    cfbf:	56 fa d1 
    cfc2:	c7 85 48 f8 ff ff 00 	movl   $0x0,-0x7b8(%rbp)
    cfc9:	00 00 00 
    cfcc:	c7 85 4c f8 ff ff b6 	movl   $0xce31d3b6,-0x7b4(%rbp)
    cfd3:	d3 31 ce 
    cfd6:	c7 85 50 f8 ff ff b6 	movl   $0xce31d3b6,-0x7b0(%rbp)
    cfdd:	d3 31 ce 
    cfe0:	c7 85 54 f8 ff ff 00 	movl   $0x0,-0x7ac(%rbp)
    cfe7:	00 00 00 
    cfea:	c7 85 58 f8 ff ff 72 	movl   $0xd1fa5672,-0x7a8(%rbp)
    cff1:	56 fa d1 
    cff4:	c7 85 f4 f5 ff ff 00 	movl   $0x0,-0xa0c(%rbp)
    cffb:	00 00 00 
    cffe:	eb 1a                	jmp    d01a <func_39+0x7f7>
    d000:	8b 85 f4 f5 ff ff    	mov    -0xa0c(%rbp),%eax
    d006:	48 98                	cltq   
    d008:	c7 84 85 00 f7 ff ff 	movl   $0xffffffff,-0x900(%rbp,%rax,4)
    d00f:	ff ff ff ff 
    d013:	83 85 f4 f5 ff ff 01 	addl   $0x1,-0xa0c(%rbp)
    d01a:	83 bd f4 f5 ff ff 07 	cmpl   $0x7,-0xa0c(%rbp)
    d021:	7e dd                	jle    d000 <func_39+0x7dd>
    d023:	e9 82 0b 00 00       	jmpq   dbaa <func_39+0x1387>
    d028:	66 c7 85 de f5 ff ff 	movw   $0x4,-0xa22(%rbp)
    d02f:	04 00 
    d031:	c7 85 28 f6 ff ff 0a 	movl   $0xee4de90a,-0x9d8(%rbp)
    d038:	e9 4d ee 
    d03b:	48 8d 85 70 f8 ff ff 	lea    -0x790(%rbp),%rax
    d042:	48 8d 15 f7 75 00 00 	lea    0x75f7(%rip),%rdx        # 14640 <g_3084+0x5df>
    d049:	b9 34 00 00 00       	mov    $0x34,%ecx
    d04e:	48 89 c7             	mov    %rax,%rdi
    d051:	48 89 d6             	mov    %rdx,%rsi
    d054:	f3 48 a5             	rep movsq %ds:(%rsi),%es:(%rdi)
    d057:	48 89 f2             	mov    %rsi,%rdx
    d05a:	48 89 f8             	mov    %rdi,%rax
    d05d:	8b 0a                	mov    (%rdx),%ecx
    d05f:	89 08                	mov    %ecx,(%rax)
    d061:	48 8d 40 04          	lea    0x4(%rax),%rax
    d065:	48 8d 52 04          	lea    0x4(%rdx),%rdx
    d069:	48 8d 85 e8 f5 ff ff 	lea    -0xa18(%rbp),%rax
    d070:	48 89 85 20 f8 ff ff 	mov    %rax,-0x7e0(%rbp)
    d077:	48 8d 85 e8 f5 ff ff 	lea    -0xa18(%rbp),%rax
    d07e:	48 89 85 28 f8 ff ff 	mov    %rax,-0x7d8(%rbp)
    d085:	48 8d 85 e8 f5 ff ff 	lea    -0xa18(%rbp),%rax
    d08c:	48 89 85 30 f8 ff ff 	mov    %rax,-0x7d0(%rbp)
    d093:	48 8d 85 e8 f5 ff ff 	lea    -0xa18(%rbp),%rax
    d09a:	48 89 85 38 f8 ff ff 	mov    %rax,-0x7c8(%rbp)
    d0a1:	48 8d 85 e8 f5 ff ff 	lea    -0xa18(%rbp),%rax
    d0a8:	48 89 85 40 f8 ff ff 	mov    %rax,-0x7c0(%rbp)
    d0af:	48 8d 85 e8 f5 ff ff 	lea    -0xa18(%rbp),%rax
    d0b6:	48 89 85 48 f8 ff ff 	mov    %rax,-0x7b8(%rbp)
    d0bd:	48 8d 85 e8 f5 ff ff 	lea    -0xa18(%rbp),%rax
    d0c4:	48 89 85 50 f8 ff ff 	mov    %rax,-0x7b0(%rbp)
    d0cb:	48 8d 85 e8 f5 ff ff 	lea    -0xa18(%rbp),%rax
    d0d2:	48 89 85 58 f8 ff ff 	mov    %rax,-0x7a8(%rbp)
    d0d9:	48 8d 85 e8 f5 ff ff 	lea    -0xa18(%rbp),%rax
    d0e0:	48 89 85 60 f8 ff ff 	mov    %rax,-0x7a0(%rbp)
    d0e7:	c7 85 2c f6 ff ff 00 	movl   $0x0,-0x9d4(%rbp)
    d0ee:	00 00 00 
    d0f1:	c7 85 e0 f5 ff ff 09 	movl   $0x9,-0xa20(%rbp)
    d0f8:	00 00 00 
    d0fb:	e9 1a 0a 00 00       	jmpq   db1a <func_39+0x12f7>
    d100:	48 8d 05 71 af 00 00 	lea    0xaf71(%rip),%rax        # 18078 <g_211+0x18>
    d107:	48 89 85 20 fa ff ff 	mov    %rax,-0x5e0(%rbp)
    d10e:	48 8d 85 f0 f5 ff ff 	lea    -0xa10(%rbp),%rax
    d115:	48 89 85 28 fa ff ff 	mov    %rax,-0x5d8(%rbp)
    d11c:	48 8d 05 91 af 00 00 	lea    0xaf91(%rip),%rax        # 180b4 <g_955>
    d123:	48 89 85 30 fa ff ff 	mov    %rax,-0x5d0(%rbp)
    d12a:	48 8d 85 e0 f5 ff ff 	lea    -0xa20(%rbp),%rax
    d131:	48 89 85 38 fa ff ff 	mov    %rax,-0x5c8(%rbp)
    d138:	48 8d 85 c0 f6 ff ff 	lea    -0x940(%rbp),%rax
    d13f:	48 89 85 40 fa ff ff 	mov    %rax,-0x5c0(%rbp)
    d146:	48 8d 05 eb ae 00 00 	lea    0xaeeb(%rip),%rax        # 18038 <g_24>
    d14d:	48 89 85 48 fa ff ff 	mov    %rax,-0x5b8(%rbp)
    d154:	48 8d 85 f0 f5 ff ff 	lea    -0xa10(%rbp),%rax
    d15b:	48 89 85 50 fa ff ff 	mov    %rax,-0x5b0(%rbp)
    d162:	48 8d 05 cf ae 00 00 	lea    0xaecf(%rip),%rax        # 18038 <g_24>
    d169:	48 89 85 58 fa ff ff 	mov    %rax,-0x5a8(%rbp)
    d170:	48 8d 85 e0 f5 ff ff 	lea    -0xa20(%rbp),%rax
    d177:	48 89 85 60 fa ff ff 	mov    %rax,-0x5a0(%rbp)
    d17e:	48 8d 05 2f af 00 00 	lea    0xaf2f(%rip),%rax        # 180b4 <g_955>
    d185:	48 89 85 68 fa ff ff 	mov    %rax,-0x598(%rbp)
    d18c:	48 8d 05 21 af 00 00 	lea    0xaf21(%rip),%rax        # 180b4 <g_955>
    d193:	48 89 85 70 fa ff ff 	mov    %rax,-0x590(%rbp)
    d19a:	48 8d 85 c0 f6 ff ff 	lea    -0x940(%rbp),%rax
    d1a1:	48 83 c0 10          	add    $0x10,%rax
    d1a5:	48 89 85 78 fa ff ff 	mov    %rax,-0x588(%rbp)
    d1ac:	48 8d 05 85 ae 00 00 	lea    0xae85(%rip),%rax        # 18038 <g_24>
    d1b3:	48 89 85 80 fa ff ff 	mov    %rax,-0x580(%rbp)
    d1ba:	48 8d 05 67 ca 00 00 	lea    0xca67(%rip),%rax        # 19c28 <g_99>
    d1c1:	48 89 85 88 fa ff ff 	mov    %rax,-0x578(%rbp)
    d1c8:	48 8d 05 a9 ae 00 00 	lea    0xaea9(%rip),%rax        # 18078 <g_211+0x18>
    d1cf:	48 89 85 90 fa ff ff 	mov    %rax,-0x570(%rbp)
    d1d6:	48 c7 85 98 fa ff ff 	movq   $0x0,-0x568(%rbp)
    d1dd:	00 00 00 00 
    d1e1:	48 8d 05 50 ae 00 00 	lea    0xae50(%rip),%rax        # 18038 <g_24>
    d1e8:	48 89 85 a0 fa ff ff 	mov    %rax,-0x560(%rbp)
    d1ef:	48 c7 85 a8 fa ff ff 	movq   $0x0,-0x558(%rbp)
    d1f6:	00 00 00 00 
    d1fa:	48 8d 05 77 ae 00 00 	lea    0xae77(%rip),%rax        # 18078 <g_211+0x18>
    d201:	48 89 85 b0 fa ff ff 	mov    %rax,-0x550(%rbp)
    d208:	48 8d 05 19 ca 00 00 	lea    0xca19(%rip),%rax        # 19c28 <g_99>
    d20f:	48 89 85 b8 fa ff ff 	mov    %rax,-0x548(%rbp)
    d216:	48 8d 05 1b ae 00 00 	lea    0xae1b(%rip),%rax        # 18038 <g_24>
    d21d:	48 89 85 c0 fa ff ff 	mov    %rax,-0x540(%rbp)
    d224:	48 8d 85 c0 f6 ff ff 	lea    -0x940(%rbp),%rax
    d22b:	48 83 c0 10          	add    $0x10,%rax
    d22f:	48 89 85 c8 fa ff ff 	mov    %rax,-0x538(%rbp)
    d236:	48 8d 05 77 ae 00 00 	lea    0xae77(%rip),%rax        # 180b4 <g_955>
    d23d:	48 89 85 d0 fa ff ff 	mov    %rax,-0x530(%rbp)
    d244:	48 8d 05 69 ae 00 00 	lea    0xae69(%rip),%rax        # 180b4 <g_955>
    d24b:	48 89 85 d8 fa ff ff 	mov    %rax,-0x528(%rbp)
    d252:	48 8d 85 e0 f5 ff ff 	lea    -0xa20(%rbp),%rax
    d259:	48 89 85 e0 fa ff ff 	mov    %rax,-0x520(%rbp)
    d260:	48 8d 05 d1 ad 00 00 	lea    0xadd1(%rip),%rax        # 18038 <g_24>
    d267:	48 89 85 e8 fa ff ff 	mov    %rax,-0x518(%rbp)
    d26e:	48 8d 85 f0 f5 ff ff 	lea    -0xa10(%rbp),%rax
    d275:	48 89 85 f0 fa ff ff 	mov    %rax,-0x510(%rbp)
    d27c:	48 8d 05 b5 ad 00 00 	lea    0xadb5(%rip),%rax        # 18038 <g_24>
    d283:	48 89 85 f8 fa ff ff 	mov    %rax,-0x508(%rbp)
    d28a:	48 8d 85 c0 f6 ff ff 	lea    -0x940(%rbp),%rax
    d291:	48 89 85 00 fb ff ff 	mov    %rax,-0x500(%rbp)
    d298:	48 8d 85 e0 f5 ff ff 	lea    -0xa20(%rbp),%rax
    d29f:	48 89 85 08 fb ff ff 	mov    %rax,-0x4f8(%rbp)
    d2a6:	48 8d 05 07 ae 00 00 	lea    0xae07(%rip),%rax        # 180b4 <g_955>
    d2ad:	48 89 85 10 fb ff ff 	mov    %rax,-0x4f0(%rbp)
    d2b4:	48 8d 85 f0 f5 ff ff 	lea    -0xa10(%rbp),%rax
    d2bb:	48 89 85 18 fb ff ff 	mov    %rax,-0x4e8(%rbp)
    d2c2:	48 8d 05 af ad 00 00 	lea    0xadaf(%rip),%rax        # 18078 <g_211+0x18>
    d2c9:	48 89 85 20 fb ff ff 	mov    %rax,-0x4e0(%rbp)
    d2d0:	48 8d 05 51 c9 00 00 	lea    0xc951(%rip),%rax        # 19c28 <g_99>
    d2d7:	48 89 85 28 fb ff ff 	mov    %rax,-0x4d8(%rbp)
    d2de:	48 8d 85 ec f5 ff ff 	lea    -0xa14(%rbp),%rax
    d2e5:	48 89 85 30 fb ff ff 	mov    %rax,-0x4d0(%rbp)
    d2ec:	48 8d 05 45 ad 00 00 	lea    0xad45(%rip),%rax        # 18038 <g_24>
    d2f3:	48 89 85 38 fb ff ff 	mov    %rax,-0x4c8(%rbp)
    d2fa:	48 8d 85 c0 f6 ff ff 	lea    -0x940(%rbp),%rax
    d301:	48 89 85 40 fb ff ff 	mov    %rax,-0x4c0(%rbp)
    d308:	48 8d 05 29 ad 00 00 	lea    0xad29(%rip),%rax        # 18038 <g_24>
    d30f:	48 89 85 48 fb ff ff 	mov    %rax,-0x4b8(%rbp)
    d316:	48 8d 05 1b ad 00 00 	lea    0xad1b(%rip),%rax        # 18038 <g_24>
    d31d:	48 89 85 50 fb ff ff 	mov    %rax,-0x4b0(%rbp)
    d324:	48 8d 85 c0 f6 ff ff 	lea    -0x940(%rbp),%rax
    d32b:	48 83 c0 10          	add    $0x10,%rax
    d32f:	48 89 85 58 fb ff ff 	mov    %rax,-0x4a8(%rbp)
    d336:	48 8d 85 ec f5 ff ff 	lea    -0xa14(%rbp),%rax
    d33d:	48 89 85 60 fb ff ff 	mov    %rax,-0x4a0(%rbp)
    d344:	48 8d 05 dd c8 00 00 	lea    0xc8dd(%rip),%rax        # 19c28 <g_99>
    d34b:	48 89 85 68 fb ff ff 	mov    %rax,-0x498(%rbp)
    d352:	48 8d 85 c0 f6 ff ff 	lea    -0x940(%rbp),%rax
    d359:	48 83 c0 10          	add    $0x10,%rax
    d35d:	48 89 85 70 fb ff ff 	mov    %rax,-0x490(%rbp)
    d364:	48 c7 85 78 fb ff ff 	movq   $0x0,-0x488(%rbp)
    d36b:	00 00 00 00 
    d36f:	48 8d 85 e0 f5 ff ff 	lea    -0xa20(%rbp),%rax
    d376:	48 89 85 80 fb ff ff 	mov    %rax,-0x480(%rbp)
    d37d:	48 8d 05 b4 ac 00 00 	lea    0xacb4(%rip),%rax        # 18038 <g_24>
    d384:	48 89 85 88 fb ff ff 	mov    %rax,-0x478(%rbp)
    d38b:	48 c7 85 90 fb ff ff 	movq   $0x0,-0x470(%rbp)
    d392:	00 00 00 00 
    d396:	48 8d 85 c0 f6 ff ff 	lea    -0x940(%rbp),%rax
    d39d:	48 83 c0 08          	add    $0x8,%rax
    d3a1:	48 89 85 98 fb ff ff 	mov    %rax,-0x468(%rbp)
    d3a8:	48 8d 05 79 c8 00 00 	lea    0xc879(%rip),%rax        # 19c28 <g_99>
    d3af:	48 89 85 a0 fb ff ff 	mov    %rax,-0x460(%rbp)
    d3b6:	48 8d 85 e4 f5 ff ff 	lea    -0xa1c(%rbp),%rax
    d3bd:	48 89 85 a8 fb ff ff 	mov    %rax,-0x458(%rbp)
    d3c4:	48 8d 85 c0 f6 ff ff 	lea    -0x940(%rbp),%rax
    d3cb:	48 89 85 b0 fb ff ff 	mov    %rax,-0x450(%rbp)
    d3d2:	48 8d 05 db ac 00 00 	lea    0xacdb(%rip),%rax        # 180b4 <g_955>
    d3d9:	48 89 85 b8 fb ff ff 	mov    %rax,-0x448(%rbp)
    d3e0:	48 c7 85 c0 fb ff ff 	movq   $0x0,-0x440(%rbp)
    d3e7:	00 00 00 00 
    d3eb:	48 8d 05 46 ac 00 00 	lea    0xac46(%rip),%rax        # 18038 <g_24>
    d3f2:	48 89 85 c8 fb ff ff 	mov    %rax,-0x438(%rbp)
    d3f9:	48 8d 05 28 c8 00 00 	lea    0xc828(%rip),%rax        # 19c28 <g_99>
    d400:	48 89 85 d0 fb ff ff 	mov    %rax,-0x430(%rbp)
    d407:	48 c7 85 d8 fb ff ff 	movq   $0x0,-0x428(%rbp)
    d40e:	00 00 00 00 
    d412:	48 8d 85 c0 f6 ff ff 	lea    -0x940(%rbp),%rax
    d419:	48 83 c0 10          	add    $0x10,%rax
    d41d:	48 89 85 e0 fb ff ff 	mov    %rax,-0x420(%rbp)
    d424:	48 8d 85 e4 f5 ff ff 	lea    -0xa1c(%rbp),%rax
    d42b:	48 89 85 e8 fb ff ff 	mov    %rax,-0x418(%rbp)
    d432:	48 8d 05 ef c7 00 00 	lea    0xc7ef(%rip),%rax        # 19c28 <g_99>
    d439:	48 89 85 f0 fb ff ff 	mov    %rax,-0x410(%rbp)
    d440:	48 8d 05 f1 ab 00 00 	lea    0xabf1(%rip),%rax        # 18038 <g_24>
    d447:	48 89 85 f8 fb ff ff 	mov    %rax,-0x408(%rbp)
    d44e:	48 8d 85 c0 f6 ff ff 	lea    -0x940(%rbp),%rax
    d455:	48 83 c0 10          	add    $0x10,%rax
    d459:	48 89 85 00 fc ff ff 	mov    %rax,-0x400(%rbp)
    d460:	48 c7 85 08 fc ff ff 	movq   $0x0,-0x3f8(%rbp)
    d467:	00 00 00 00 
    d46b:	48 8d 85 c0 f6 ff ff 	lea    -0x940(%rbp),%rax
    d472:	48 83 c0 08          	add    $0x8,%rax
    d476:	48 89 85 10 fc ff ff 	mov    %rax,-0x3f0(%rbp)
    d47d:	48 8d 85 c0 f6 ff ff 	lea    -0x940(%rbp),%rax
    d484:	48 83 c0 10          	add    $0x10,%rax
    d488:	48 89 85 18 fc ff ff 	mov    %rax,-0x3e8(%rbp)
    d48f:	48 c7 85 20 fc ff ff 	movq   $0x0,-0x3e0(%rbp)
    d496:	00 00 00 00 
    d49a:	48 8d 85 e0 f5 ff ff 	lea    -0xa20(%rbp),%rax
    d4a1:	48 89 85 28 fc ff ff 	mov    %rax,-0x3d8(%rbp)
    d4a8:	48 8d 05 89 ab 00 00 	lea    0xab89(%rip),%rax        # 18038 <g_24>
    d4af:	48 89 85 30 fc ff ff 	mov    %rax,-0x3d0(%rbp)
    d4b6:	48 8d 85 e4 f5 ff ff 	lea    -0xa1c(%rbp),%rax
    d4bd:	48 89 85 38 fc ff ff 	mov    %rax,-0x3c8(%rbp)
    d4c4:	48 8d 05 5d c7 00 00 	lea    0xc75d(%rip),%rax        # 19c28 <g_99>
    d4cb:	48 89 85 40 fc ff ff 	mov    %rax,-0x3c0(%rbp)
    d4d2:	48 8d 05 4f c7 00 00 	lea    0xc74f(%rip),%rax        # 19c28 <g_99>
    d4d9:	48 89 85 48 fc ff ff 	mov    %rax,-0x3b8(%rbp)
    d4e0:	48 c7 85 50 fc ff ff 	movq   $0x0,-0x3b0(%rbp)
    d4e7:	00 00 00 00 
    d4eb:	48 8d 85 c0 f6 ff ff 	lea    -0x940(%rbp),%rax
    d4f2:	48 89 85 58 fc ff ff 	mov    %rax,-0x3a8(%rbp)
    d4f9:	48 8d 05 b4 ab 00 00 	lea    0xabb4(%rip),%rax        # 180b4 <g_955>
    d500:	48 89 85 60 fc ff ff 	mov    %rax,-0x3a0(%rbp)
    d507:	48 c7 85 68 fc ff ff 	movq   $0x0,-0x398(%rbp)
    d50e:	00 00 00 00 
    d512:	48 8d 85 c0 f6 ff ff 	lea    -0x940(%rbp),%rax
    d519:	48 83 c0 10          	add    $0x10,%rax
    d51d:	48 89 85 70 fc ff ff 	mov    %rax,-0x390(%rbp)
    d524:	48 8d 85 c0 f6 ff ff 	lea    -0x940(%rbp),%rax
    d52b:	48 83 c0 08          	add    $0x8,%rax
    d52f:	48 89 85 78 fc ff ff 	mov    %rax,-0x388(%rbp)
    d536:	48 8d 85 ec f5 ff ff 	lea    -0xa14(%rbp),%rax
    d53d:	48 89 85 80 fc ff ff 	mov    %rax,-0x380(%rbp)
    d544:	48 8d 85 c0 f6 ff ff 	lea    -0x940(%rbp),%rax
    d54b:	48 83 c0 10          	add    $0x10,%rax
    d54f:	48 89 85 88 fc ff ff 	mov    %rax,-0x378(%rbp)
    d556:	48 8d 85 e4 f5 ff ff 	lea    -0xa1c(%rbp),%rax
    d55d:	48 89 85 90 fc ff ff 	mov    %rax,-0x370(%rbp)
    d564:	48 8d 05 cd aa 00 00 	lea    0xaacd(%rip),%rax        # 18038 <g_24>
    d56b:	48 89 85 98 fc ff ff 	mov    %rax,-0x368(%rbp)
    d572:	48 8d 85 e4 f5 ff ff 	lea    -0xa1c(%rbp),%rax
    d579:	48 89 85 a0 fc ff ff 	mov    %rax,-0x360(%rbp)
    d580:	48 8d 85 c0 f6 ff ff 	lea    -0x940(%rbp),%rax
    d587:	48 83 c0 10          	add    $0x10,%rax
    d58b:	48 89 85 a8 fc ff ff 	mov    %rax,-0x358(%rbp)
    d592:	48 8d 85 ec f5 ff ff 	lea    -0xa14(%rbp),%rax
    d599:	48 89 85 b0 fc ff ff 	mov    %rax,-0x350(%rbp)
    d5a0:	48 8d 85 c0 f6 ff ff 	lea    -0x940(%rbp),%rax
    d5a7:	48 83 c0 08          	add    $0x8,%rax
    d5ab:	48 89 85 b8 fc ff ff 	mov    %rax,-0x348(%rbp)
    d5b2:	48 8d 85 c0 f6 ff ff 	lea    -0x940(%rbp),%rax
    d5b9:	48 83 c0 10          	add    $0x10,%rax
    d5bd:	48 89 85 c0 fc ff ff 	mov    %rax,-0x340(%rbp)
    d5c4:	48 c7 85 c8 fc ff ff 	movq   $0x0,-0x338(%rbp)
    d5cb:	00 00 00 00 
    d5cf:	48 8d 05 de aa 00 00 	lea    0xaade(%rip),%rax        # 180b4 <g_955>
    d5d6:	48 89 85 d0 fc ff ff 	mov    %rax,-0x330(%rbp)
    d5dd:	48 8d 85 c0 f6 ff ff 	lea    -0x940(%rbp),%rax
    d5e4:	48 89 85 d8 fc ff ff 	mov    %rax,-0x328(%rbp)
    d5eb:	48 c7 85 e0 fc ff ff 	movq   $0x0,-0x320(%rbp)
    d5f2:	00 00 00 00 
    d5f6:	48 8d 05 2b c6 00 00 	lea    0xc62b(%rip),%rax        # 19c28 <g_99>
    d5fd:	48 89 85 e8 fc ff ff 	mov    %rax,-0x318(%rbp)
    d604:	48 8d 05 1d c6 00 00 	lea    0xc61d(%rip),%rax        # 19c28 <g_99>
    d60b:	48 89 85 f0 fc ff ff 	mov    %rax,-0x310(%rbp)
    d612:	48 8d 85 e4 f5 ff ff 	lea    -0xa1c(%rbp),%rax
    d619:	48 89 85 f8 fc ff ff 	mov    %rax,-0x308(%rbp)
    d620:	48 8d 05 11 aa 00 00 	lea    0xaa11(%rip),%rax        # 18038 <g_24>
    d627:	48 89 85 00 fd ff ff 	mov    %rax,-0x300(%rbp)
    d62e:	48 8d 85 e0 f5 ff ff 	lea    -0xa20(%rbp),%rax
    d635:	48 89 85 08 fd ff ff 	mov    %rax,-0x2f8(%rbp)
    d63c:	48 c7 85 10 fd ff ff 	movq   $0x0,-0x2f0(%rbp)
    d643:	00 00 00 00 
    d647:	48 8d 85 c0 f6 ff ff 	lea    -0x940(%rbp),%rax
    d64e:	48 83 c0 10          	add    $0x10,%rax
    d652:	48 89 85 18 fd ff ff 	mov    %rax,-0x2e8(%rbp)
    d659:	48 8d 85 c0 f6 ff ff 	lea    -0x940(%rbp),%rax
    d660:	48 83 c0 08          	add    $0x8,%rax
    d664:	48 89 85 20 fd ff ff 	mov    %rax,-0x2e0(%rbp)
    d66b:	48 c7 85 28 fd ff ff 	movq   $0x0,-0x2d8(%rbp)
    d672:	00 00 00 00 
    d676:	48 8d 85 c0 f6 ff ff 	lea    -0x940(%rbp),%rax
    d67d:	48 83 c0 10          	add    $0x10,%rax
    d681:	48 89 85 30 fd ff ff 	mov    %rax,-0x2d0(%rbp)
    d688:	48 8d 05 a9 a9 00 00 	lea    0xa9a9(%rip),%rax        # 18038 <g_24>
    d68f:	48 89 85 38 fd ff ff 	mov    %rax,-0x2c8(%rbp)
    d696:	48 8d 05 8b c5 00 00 	lea    0xc58b(%rip),%rax        # 19c28 <g_99>
    d69d:	48 89 85 40 fd ff ff 	mov    %rax,-0x2c0(%rbp)
    d6a4:	48 8d 85 e4 f5 ff ff 	lea    -0xa1c(%rbp),%rax
    d6ab:	48 89 85 48 fd ff ff 	mov    %rax,-0x2b8(%rbp)
    d6b2:	48 8d 85 c0 f6 ff ff 	lea    -0x940(%rbp),%rax
    d6b9:	48 83 c0 10          	add    $0x10,%rax
    d6bd:	48 89 85 50 fd ff ff 	mov    %rax,-0x2b0(%rbp)
    d6c4:	48 c7 85 58 fd ff ff 	movq   $0x0,-0x2a8(%rbp)
    d6cb:	00 00 00 00 
    d6cf:	48 8d 05 52 c5 00 00 	lea    0xc552(%rip),%rax        # 19c28 <g_99>
    d6d6:	48 89 85 60 fd ff ff 	mov    %rax,-0x2a0(%rbp)
    d6dd:	48 8d 05 54 a9 00 00 	lea    0xa954(%rip),%rax        # 18038 <g_24>
    d6e4:	48 89 85 68 fd ff ff 	mov    %rax,-0x298(%rbp)
    d6eb:	48 c7 85 70 fd ff ff 	movq   $0x0,-0x290(%rbp)
    d6f2:	00 00 00 00 
    d6f6:	48 8d 05 b7 a9 00 00 	lea    0xa9b7(%rip),%rax        # 180b4 <g_955>
    d6fd:	48 89 85 78 fd ff ff 	mov    %rax,-0x288(%rbp)
    d704:	48 8d 85 c0 f6 ff ff 	lea    -0x940(%rbp),%rax
    d70b:	48 89 85 80 fd ff ff 	mov    %rax,-0x280(%rbp)
    d712:	48 8d 85 e4 f5 ff ff 	lea    -0xa1c(%rbp),%rax
    d719:	48 89 85 88 fd ff ff 	mov    %rax,-0x278(%rbp)
    d720:	48 8d 05 01 c5 00 00 	lea    0xc501(%rip),%rax        # 19c28 <g_99>
    d727:	48 89 85 90 fd ff ff 	mov    %rax,-0x270(%rbp)
    d72e:	48 8d 85 c0 f6 ff ff 	lea    -0x940(%rbp),%rax
    d735:	48 83 c0 08          	add    $0x8,%rax
    d739:	48 89 85 98 fd ff ff 	mov    %rax,-0x268(%rbp)
    d740:	48 c7 85 a0 fd ff ff 	movq   $0x0,-0x260(%rbp)
    d747:	00 00 00 00 
    d74b:	48 8d 05 e6 a8 00 00 	lea    0xa8e6(%rip),%rax        # 18038 <g_24>
    d752:	48 89 85 a8 fd ff ff 	mov    %rax,-0x258(%rbp)
    d759:	48 8d 85 e0 f5 ff ff 	lea    -0xa20(%rbp),%rax
    d760:	48 89 85 b0 fd ff ff 	mov    %rax,-0x250(%rbp)
    d767:	48 c7 85 b8 fd ff ff 	movq   $0x0,-0x248(%rbp)
    d76e:	00 00 00 00 
    d772:	48 8d 85 c0 f6 ff ff 	lea    -0x940(%rbp),%rax
    d779:	48 83 c0 10          	add    $0x10,%rax
    d77d:	48 89 85 c0 fd ff ff 	mov    %rax,-0x240(%rbp)
    d784:	48 8d 05 9d c4 00 00 	lea    0xc49d(%rip),%rax        # 19c28 <g_99>
    d78b:	48 89 85 c8 fd ff ff 	mov    %rax,-0x238(%rbp)
    d792:	48 8d 85 ec f5 ff ff 	lea    -0xa14(%rbp),%rax
    d799:	48 89 85 d0 fd ff ff 	mov    %rax,-0x230(%rbp)
    d7a0:	48 8d 85 c0 f6 ff ff 	lea    -0x940(%rbp),%rax
    d7a7:	48 83 c0 10          	add    $0x10,%rax
    d7ab:	48 89 85 d8 fd ff ff 	mov    %rax,-0x228(%rbp)
    d7b2:	48 8d 05 7f a8 00 00 	lea    0xa87f(%rip),%rax        # 18038 <g_24>
    d7b9:	48 89 85 e0 fd ff ff 	mov    %rax,-0x220(%rbp)
    d7c0:	48 8d 05 71 a8 00 00 	lea    0xa871(%rip),%rax        # 18038 <g_24>
    d7c7:	48 89 85 e8 fd ff ff 	mov    %rax,-0x218(%rbp)
    d7ce:	48 8d 85 c0 f6 ff ff 	lea    -0x940(%rbp),%rax
    d7d5:	48 89 85 f0 fd ff ff 	mov    %rax,-0x210(%rbp)
    d7dc:	48 8d 05 55 a8 00 00 	lea    0xa855(%rip),%rax        # 18038 <g_24>
    d7e3:	48 89 85 f8 fd ff ff 	mov    %rax,-0x208(%rbp)
    d7ea:	48 8d 85 ec f5 ff ff 	lea    -0xa14(%rbp),%rax
    d7f1:	48 89 85 00 fe ff ff 	mov    %rax,-0x200(%rbp)
    d7f8:	48 8d 05 29 c4 00 00 	lea    0xc429(%rip),%rax        # 19c28 <g_99>
    d7ff:	48 89 85 08 fe ff ff 	mov    %rax,-0x1f8(%rbp)
    d806:	48 8d 05 2b a8 00 00 	lea    0xa82b(%rip),%rax        # 18038 <g_24>
    d80d:	48 89 85 10 fe ff ff 	mov    %rax,-0x1f0(%rbp)
    d814:	48 c7 85 18 fe ff ff 	movq   $0x0,-0x1e8(%rbp)
    d81b:	00 00 00 00 
    d81f:	48 c7 85 20 fe ff ff 	movq   $0x0,-0x1e0(%rbp)
    d826:	00 00 00 00 
    d82a:	48 8d 85 e4 f5 ff ff 	lea    -0xa1c(%rbp),%rax
    d831:	48 89 85 28 fe ff ff 	mov    %rax,-0x1d8(%rbp)
    d838:	48 c7 85 30 fe ff ff 	movq   $0x0,-0x1d0(%rbp)
    d83f:	00 00 00 00 
    d843:	48 8d 05 de c3 00 00 	lea    0xc3de(%rip),%rax        # 19c28 <g_99>
    d84a:	48 89 85 38 fe ff ff 	mov    %rax,-0x1c8(%rbp)
    d851:	48 8d 85 c0 f6 ff ff 	lea    -0x940(%rbp),%rax
    d858:	48 83 c0 08          	add    $0x8,%rax
    d85c:	48 89 85 40 fe ff ff 	mov    %rax,-0x1c0(%rbp)
    d863:	48 8d 85 e4 f5 ff ff 	lea    -0xa1c(%rbp),%rax
    d86a:	48 89 85 48 fe ff ff 	mov    %rax,-0x1b8(%rbp)
    d871:	48 8d 85 e4 f5 ff ff 	lea    -0xa1c(%rbp),%rax
    d878:	48 89 85 50 fe ff ff 	mov    %rax,-0x1b0(%rbp)
    d87f:	48 c7 85 58 fe ff ff 	movq   $0x0,-0x1a8(%rbp)
    d886:	00 00 00 00 
    d88a:	48 c7 85 60 fe ff ff 	movq   $0x0,-0x1a0(%rbp)
    d891:	00 00 00 00 
    d895:	48 8d 85 c0 f6 ff ff 	lea    -0x940(%rbp),%rax
    d89c:	48 83 c0 10          	add    $0x10,%rax
    d8a0:	48 89 85 68 fe ff ff 	mov    %rax,-0x198(%rbp)
    d8a7:	48 8d 05 7a c3 00 00 	lea    0xc37a(%rip),%rax        # 19c28 <g_99>
    d8ae:	48 89 85 70 fe ff ff 	mov    %rax,-0x190(%rbp)
    d8b5:	48 c7 85 78 fe ff ff 	movq   $0x0,-0x188(%rbp)
    d8bc:	00 00 00 00 
    d8c0:	48 8d 05 71 a7 00 00 	lea    0xa771(%rip),%rax        # 18038 <g_24>
    d8c7:	48 89 85 80 fe ff ff 	mov    %rax,-0x180(%rbp)
    d8ce:	48 8d 85 c0 f6 ff ff 	lea    -0x940(%rbp),%rax
    d8d5:	48 89 85 88 fe ff ff 	mov    %rax,-0x178(%rbp)
    d8dc:	48 8d 05 45 c3 00 00 	lea    0xc345(%rip),%rax        # 19c28 <g_99>
    d8e3:	48 89 85 90 fe ff ff 	mov    %rax,-0x170(%rbp)
    d8ea:	48 8d 85 c0 f6 ff ff 	lea    -0x940(%rbp),%rax
    d8f1:	48 89 85 98 fe ff ff 	mov    %rax,-0x168(%rbp)
    d8f8:	48 8d 05 39 a7 00 00 	lea    0xa739(%rip),%rax        # 18038 <g_24>
    d8ff:	48 89 85 a0 fe ff ff 	mov    %rax,-0x160(%rbp)
    d906:	48 c7 85 a8 fe ff ff 	movq   $0x0,-0x158(%rbp)
    d90d:	00 00 00 00 
    d911:	48 8d 05 10 c3 00 00 	lea    0xc310(%rip),%rax        # 19c28 <g_99>
    d918:	48 89 85 b0 fe ff ff 	mov    %rax,-0x150(%rbp)
    d91f:	48 8d 85 c0 f6 ff ff 	lea    -0x940(%rbp),%rax
    d926:	48 83 c0 10          	add    $0x10,%rax
    d92a:	48 89 85 b8 fe ff ff 	mov    %rax,-0x148(%rbp)
    d931:	48 c7 85 c0 fe ff ff 	movq   $0x0,-0x140(%rbp)
    d938:	00 00 00 00 
    d93c:	48 c7 85 c8 fe ff ff 	movq   $0x0,-0x138(%rbp)
    d943:	00 00 00 00 
    d947:	48 8d 85 e4 f5 ff ff 	lea    -0xa1c(%rbp),%rax
    d94e:	48 89 85 d0 fe ff ff 	mov    %rax,-0x130(%rbp)
    d955:	48 8d 85 e4 f5 ff ff 	lea    -0xa1c(%rbp),%rax
    d95c:	48 89 85 d8 fe ff ff 	mov    %rax,-0x128(%rbp)
    d963:	48 8d 85 c0 f6 ff ff 	lea    -0x940(%rbp),%rax
    d96a:	48 83 c0 08          	add    $0x8,%rax
    d96e:	48 89 85 e0 fe ff ff 	mov    %rax,-0x120(%rbp)
    d975:	48 8d 05 ac c2 00 00 	lea    0xc2ac(%rip),%rax        # 19c28 <g_99>
    d97c:	48 89 85 e8 fe ff ff 	mov    %rax,-0x118(%rbp)
    d983:	48 c7 85 f0 fe ff ff 	movq   $0x0,-0x110(%rbp)
    d98a:	00 00 00 00 
    d98e:	48 8d 85 e4 f5 ff ff 	lea    -0xa1c(%rbp),%rax
    d995:	48 89 85 f8 fe ff ff 	mov    %rax,-0x108(%rbp)
    d99c:	48 c7 85 00 ff ff ff 	movq   $0x0,-0x100(%rbp)
    d9a3:	00 00 00 00 
    d9a7:	48 c7 85 08 ff ff ff 	movq   $0x0,-0xf8(%rbp)
    d9ae:	00 00 00 00 
    d9b2:	48 8d 05 7f a6 00 00 	lea    0xa67f(%rip),%rax        # 18038 <g_24>
    d9b9:	48 89 85 10 ff ff ff 	mov    %rax,-0xf0(%rbp)
    d9c0:	48 8d 05 61 c2 00 00 	lea    0xc261(%rip),%rax        # 19c28 <g_99>
    d9c7:	48 89 85 18 ff ff ff 	mov    %rax,-0xe8(%rbp)
    d9ce:	48 8d 85 ec f5 ff ff 	lea    -0xa14(%rbp),%rax
    d9d5:	48 89 85 20 ff ff ff 	mov    %rax,-0xe0(%rbp)
    d9dc:	48 8d 05 55 a6 00 00 	lea    0xa655(%rip),%rax        # 18038 <g_24>
    d9e3:	48 89 85 28 ff ff ff 	mov    %rax,-0xd8(%rbp)
    d9ea:	48 8d 85 c0 f6 ff ff 	lea    -0x940(%rbp),%rax
    d9f1:	48 89 85 30 ff ff ff 	mov    %rax,-0xd0(%rbp)
    d9f8:	48 8d 05 39 a6 00 00 	lea    0xa639(%rip),%rax        # 18038 <g_24>
    d9ff:	48 89 85 38 ff ff ff 	mov    %rax,-0xc8(%rbp)
    da06:	48 8d 05 2b a6 00 00 	lea    0xa62b(%rip),%rax        # 18038 <g_24>
    da0d:	48 89 85 40 ff ff ff 	mov    %rax,-0xc0(%rbp)
    da14:	48 8d 85 c0 f6 ff ff 	lea    -0x940(%rbp),%rax
    da1b:	48 83 c0 10          	add    $0x10,%rax
    da1f:	48 89 85 48 ff ff ff 	mov    %rax,-0xb8(%rbp)
    da26:	48 8d 85 ec f5 ff ff 	lea    -0xa14(%rbp),%rax
    da2d:	48 89 85 50 ff ff ff 	mov    %rax,-0xb0(%rbp)
    da34:	48 8d 05 ed c1 00 00 	lea    0xc1ed(%rip),%rax        # 19c28 <g_99>
    da3b:	48 89 85 58 ff ff ff 	mov    %rax,-0xa8(%rbp)
    da42:	48 8d 85 c0 f6 ff ff 	lea    -0x940(%rbp),%rax
    da49:	48 83 c0 10          	add    $0x10,%rax
    da4d:	48 89 85 60 ff ff ff 	mov    %rax,-0xa0(%rbp)
    da54:	48 c7 85 68 ff ff ff 	movq   $0x0,-0x98(%rbp)
    da5b:	00 00 00 00 
    da5f:	48 8d 85 e0 f5 ff ff 	lea    -0xa20(%rbp),%rax
    da66:	48 89 85 70 ff ff ff 	mov    %rax,-0x90(%rbp)
    da6d:	48 8d 05 c4 a5 00 00 	lea    0xa5c4(%rip),%rax        # 18038 <g_24>
    da74:	48 89 85 78 ff ff ff 	mov    %rax,-0x88(%rbp)
    da7b:	48 c7 45 80 00 00 00 	movq   $0x0,-0x80(%rbp)
    da82:	00 
    da83:	48 8d 85 c0 f6 ff ff 	lea    -0x940(%rbp),%rax
    da8a:	48 83 c0 08          	add    $0x8,%rax
    da8e:	48 89 45 88          	mov    %rax,-0x78(%rbp)
    da92:	48 8d 05 8f c1 00 00 	lea    0xc18f(%rip),%rax        # 19c28 <g_99>
    da99:	48 89 45 90          	mov    %rax,-0x70(%rbp)
    da9d:	48 8d 85 e4 f5 ff ff 	lea    -0xa1c(%rbp),%rax
    daa4:	48 89 45 98          	mov    %rax,-0x68(%rbp)
    daa8:	48 8d 85 c0 f6 ff ff 	lea    -0x940(%rbp),%rax
    daaf:	48 89 45 a0          	mov    %rax,-0x60(%rbp)
    dab3:	48 8d 05 fa a5 00 00 	lea    0xa5fa(%rip),%rax        # 180b4 <g_955>
    daba:	48 89 45 a8          	mov    %rax,-0x58(%rbp)
    dabe:	48 c7 45 b0 00 00 00 	movq   $0x0,-0x50(%rbp)
    dac5:	00 
    dac6:	48 8d 05 6b a5 00 00 	lea    0xa56b(%rip),%rax        # 18038 <g_24>
    dacd:	48 89 45 b8          	mov    %rax,-0x48(%rbp)
    dad1:	48 c7 85 98 f6 ff ff 	movq   $0xffffffffffffffff,-0x968(%rbp)
    dad8:	ff ff ff ff 
    dadc:	0f bf 95 de f5 ff ff 	movswl -0xa22(%rbp),%edx
    dae3:	48 8b 85 48 f6 ff ff 	mov    -0x9b8(%rbp),%rax
    daea:	89 10                	mov    %edx,(%rax)
    daec:	48 83 85 98 f6 ff ff 	addq   $0x1,-0x968(%rbp)
    daf3:	01 
    daf4:	48 8b 85 48 f6 ff ff 	mov    -0x9b8(%rbp),%rax
    dafb:	8b 00                	mov    (%rax),%eax
    dafd:	83 e0 fa             	and    $0xfffffffa,%eax
    db00:	89 c2                	mov    %eax,%edx
    db02:	48 8b 85 48 f6 ff ff 	mov    -0x9b8(%rbp),%rax
    db09:	89 10                	mov    %edx,(%rax)
    db0b:	8b 85 e0 f5 ff ff    	mov    -0xa20(%rbp),%eax
    db11:	83 e8 01             	sub    $0x1,%eax
    db14:	89 85 e0 f5 ff ff    	mov    %eax,-0xa20(%rbp)
    db1a:	8b 85 e0 f5 ff ff    	mov    -0xa20(%rbp),%eax
    db20:	83 f8 05             	cmp    $0x5,%eax
    db23:	0f 8f d7 f5 ff ff    	jg     d100 <func_39+0x8dd>
    db29:	48 8b 85 48 f6 ff ff 	mov    -0x9b8(%rbp),%rax
    db30:	8b 00                	mov    (%rax),%eax
    db32:	89 c2                	mov    %eax,%edx
    db34:	8b 85 28 f6 ff ff    	mov    -0x9d8(%rbp),%eax
    db3a:	09 d0                	or     %edx,%eax
    db3c:	0f b6 c0             	movzbl %al,%eax
    db3f:	83 e0 01             	and    $0x1,%eax
    db42:	be 05 00 00 00       	mov    $0x5,%esi
    db47:	89 c7                	mov    %eax,%edi
    db49:	e8 3f 71 ff ff       	callq  4c8d <safe_rshift_func_uint8_t_u_s>
    db4e:	48 8b 05 cb b7 00 00 	mov    0xb7cb(%rip),%rax        # 19320 <g_695>
    db55:	48 8b 00             	mov    (%rax),%rax
    db58:	0f b7 00             	movzwl (%rax),%eax
    db5b:	0f b7 d8             	movzwl %ax,%ebx
    db5e:	8b 85 28 f6 ff ff    	mov    -0x9d8(%rbp),%eax
    db64:	0f bf d0             	movswl %ax,%edx
    db67:	8b 85 e8 f8 ff ff    	mov    -0x718(%rbp),%eax
    db6d:	98                   	cwtl   
    db6e:	89 d6                	mov    %edx,%esi
    db70:	89 c7                	mov    %eax,%edi
    db72:	e8 5c 68 ff ff       	callq  43d3 <safe_sub_func_int16_t_s_s>
    db77:	83 c8 01             	or     $0x1,%eax
    db7a:	98                   	cwtl   
    db7b:	39 c3                	cmp    %eax,%ebx
    db7d:	7c 0b                	jl     db8a <func_39+0x1367>
    db7f:	48 8b 85 48 f6 ff ff 	mov    -0x9b8(%rbp),%rax
    db86:	8b 00                	mov    (%rax),%eax
    db88:	85 c0                	test   %eax,%eax
    db8a:	b9 09 00 00 00       	mov    $0x9,%ecx
    db8f:	48 8b 05 aa b1 00 00 	mov    0xb1aa(%rip),%rax        # 18d40 <g_125>
    db96:	8b 10                	mov    (%rax),%edx
    db98:	48 8b 05 a1 b1 00 00 	mov    0xb1a1(%rip),%rax        # 18d40 <g_125>
    db9f:	21 ca                	and    %ecx,%edx
    dba1:	89 10                	mov    %edx,(%rax)
    dba3:	83 85 0c f6 ff ff 01 	addl   $0x1,-0x9f4(%rbp)
    dbaa:	48 8b 85 48 f6 ff ff 	mov    -0x9b8(%rbp),%rax
    dbb1:	8b 00                	mov    (%rax),%eax
    dbb3:	48 8b 5d c8          	mov    -0x38(%rbp),%rbx
    dbb7:	64 48 33 1c 25 28 00 	xor    %fs:0x28,%rbx
    dbbe:	00 00 
    dbc0:	74 05                	je     dbc7 <func_39+0x13a4>
    dbc2:	e8 a9 64 ff ff       	callq  4070 <__stack_chk_fail@plt>
    dbc7:	48 81 c4 18 0a 00 00 	add    $0xa18,%rsp
    dbce:	5b                   	pop    %rbx
    dbcf:	41 5c                	pop    %r12
    dbd1:	41 5d                	pop    %r13
    dbd3:	41 5e                	pop    %r14
    dbd5:	41 5f                	pop    %r15
    dbd7:	5d                   	pop    %rbp
    dbd8:	c3                   	retq   

000000000000dbd9 <func_47>:
    dbd9:	f3 0f 1e fa          	endbr64 
    dbdd:	55                   	push   %rbp
    dbde:	48 89 e5             	mov    %rsp,%rbp
    dbe1:	41 55                	push   %r13
    dbe3:	41 54                	push   %r12
    dbe5:	53                   	push   %rbx
    dbe6:	48 81 ec 18 03 00 00 	sub    $0x318,%rsp
    dbed:	48 89 bd d8 fc ff ff 	mov    %rdi,-0x328(%rbp)
    dbf4:	64 48 8b 04 25 28 00 	mov    %fs:0x28,%rax
    dbfb:	00 00 
    dbfd:	48 89 45 d8          	mov    %rax,-0x28(%rbp)
    dc01:	31 c0                	xor    %eax,%eax
    dc03:	c7 85 e8 fc ff ff 9e 	movl   $0xddc5919e,-0x318(%rbp)
    dc0a:	91 c5 dd 
    dc0d:	66 c7 85 e0 fc ff ff 	movw   $0x1,-0x320(%rbp)
    dc14:	01 00 
    dc16:	66 c7 85 90 fd ff ff 	movw   $0xc632,-0x270(%rbp)
    dc1d:	32 c6 
    dc1f:	66 c7 85 92 fd ff ff 	movw   $0x1,-0x26e(%rbp)
    dc26:	01 00 
    dc28:	66 c7 85 94 fd ff ff 	movw   $0x1d24,-0x26c(%rbp)
    dc2f:	24 1d 
    dc31:	66 c7 85 96 fd ff ff 	movw   $0x1,-0x26a(%rbp)
    dc38:	01 00 
    dc3a:	66 c7 85 98 fd ff ff 	movw   $0xc632,-0x268(%rbp)
    dc41:	32 c6 
    dc43:	66 c7 85 9a fd ff ff 	movw   $0x447,-0x266(%rbp)
    dc4a:	47 04 
    dc4c:	66 c7 85 9c fd ff ff 	movw   $0x0,-0x264(%rbp)
    dc53:	00 00 
    dc55:	66 c7 85 9e fd ff ff 	movw   $0x4,-0x262(%rbp)
    dc5c:	04 00 
    dc5e:	66 c7 85 a0 fd ff ff 	movw   $0x0,-0x260(%rbp)
    dc65:	00 00 
    dc67:	66 c7 85 a2 fd ff ff 	movw   $0x447,-0x25e(%rbp)
    dc6e:	47 04 
    dc70:	66 c7 85 a4 fd ff ff 	movw   $0xc632,-0x25c(%rbp)
    dc77:	32 c6 
    dc79:	66 c7 85 a6 fd ff ff 	movw   $0x1,-0x25a(%rbp)
    dc80:	01 00 
    dc82:	66 c7 85 a8 fd ff ff 	movw   $0x1d24,-0x258(%rbp)
    dc89:	24 1d 
    dc8b:	66 c7 85 aa fd ff ff 	movw   $0x1,-0x256(%rbp)
    dc92:	01 00 
    dc94:	66 c7 85 ac fd ff ff 	movw   $0xc632,-0x254(%rbp)
    dc9b:	32 c6 
    dc9d:	66 c7 85 ae fd ff ff 	movw   $0x447,-0x252(%rbp)
    dca4:	47 04 
    dca6:	66 c7 85 b0 fd ff ff 	movw   $0x0,-0x250(%rbp)
    dcad:	00 00 
    dcaf:	66 c7 85 b2 fd ff ff 	movw   $0x4,-0x24e(%rbp)
    dcb6:	04 00 
    dcb8:	66 c7 85 b4 fd ff ff 	movw   $0x0,-0x24c(%rbp)
    dcbf:	00 00 
    dcc1:	66 c7 85 b6 fd ff ff 	movw   $0x447,-0x24a(%rbp)
    dcc8:	47 04 
    dcca:	66 c7 85 b8 fd ff ff 	movw   $0xc632,-0x248(%rbp)
    dcd1:	32 c6 
    dcd3:	66 c7 85 ba fd ff ff 	movw   $0x1,-0x246(%rbp)
    dcda:	01 00 
    dcdc:	66 c7 85 bc fd ff ff 	movw   $0x1d24,-0x244(%rbp)
    dce3:	24 1d 
    dce5:	66 c7 85 be fd ff ff 	movw   $0x1,-0x242(%rbp)
    dcec:	01 00 
    dcee:	66 c7 85 c0 fd ff ff 	movw   $0xc632,-0x240(%rbp)
    dcf5:	32 c6 
    dcf7:	66 c7 85 c2 fd ff ff 	movw   $0x447,-0x23e(%rbp)
    dcfe:	47 04 
    dd00:	66 c7 85 c4 fd ff ff 	movw   $0x0,-0x23c(%rbp)
    dd07:	00 00 
    dd09:	66 c7 85 c6 fd ff ff 	movw   $0x4,-0x23a(%rbp)
    dd10:	04 00 
    dd12:	66 c7 85 c8 fd ff ff 	movw   $0x0,-0x238(%rbp)
    dd19:	00 00 
    dd1b:	66 c7 85 ca fd ff ff 	movw   $0x447,-0x236(%rbp)
    dd22:	47 04 
    dd24:	66 c7 85 cc fd ff ff 	movw   $0xc632,-0x234(%rbp)
    dd2b:	32 c6 
    dd2d:	66 c7 85 ce fd ff ff 	movw   $0x1,-0x232(%rbp)
    dd34:	01 00 
    dd36:	66 c7 85 d0 fd ff ff 	movw   $0x1d24,-0x230(%rbp)
    dd3d:	24 1d 
    dd3f:	66 c7 85 d2 fd ff ff 	movw   $0x1,-0x22e(%rbp)
    dd46:	01 00 
    dd48:	66 c7 85 d4 fd ff ff 	movw   $0xc632,-0x22c(%rbp)
    dd4f:	32 c6 
    dd51:	66 c7 85 d6 fd ff ff 	movw   $0x447,-0x22a(%rbp)
    dd58:	47 04 
    dd5a:	66 c7 85 d8 fd ff ff 	movw   $0x0,-0x228(%rbp)
    dd61:	00 00 
    dd63:	66 c7 85 da fd ff ff 	movw   $0x4,-0x226(%rbp)
    dd6a:	04 00 
    dd6c:	66 c7 85 dc fd ff ff 	movw   $0x0,-0x224(%rbp)
    dd73:	00 00 
    dd75:	66 c7 85 de fd ff ff 	movw   $0x447,-0x222(%rbp)
    dd7c:	47 04 
    dd7e:	66 c7 85 e0 fd ff ff 	movw   $0xc632,-0x220(%rbp)
    dd85:	32 c6 
    dd87:	66 c7 85 e2 fd ff ff 	movw   $0x1,-0x21e(%rbp)
    dd8e:	01 00 
    dd90:	66 c7 85 e4 fd ff ff 	movw   $0x1d24,-0x21c(%rbp)
    dd97:	24 1d 
    dd99:	66 c7 85 e6 fd ff ff 	movw   $0xffff,-0x21a(%rbp)
    dda0:	ff ff 
    dda2:	66 c7 85 e8 fd ff ff 	movw   $0x6383,-0x218(%rbp)
    dda9:	83 63 
    ddab:	48 c7 85 f0 fc ff ff 	movq   $0x0,-0x310(%rbp)
    ddb2:	00 00 00 00 
    ddb6:	48 8d 85 f0 fc ff ff 	lea    -0x310(%rbp),%rax
    ddbd:	48 89 85 f8 fc ff ff 	mov    %rax,-0x308(%rbp)
    ddc4:	c7 05 72 a2 00 00 01 	movl   $0x1,0xa272(%rip)        # 18040 <g_94>
    ddcb:	00 00 00 
    ddce:	e9 f1 06 00 00       	jmpq   e4c4 <func_47+0x8eb>
    ddd3:	48 8d 85 30 fd ff ff 	lea    -0x2d0(%rbp),%rax
    ddda:	48 83 c0 10          	add    $0x10,%rax
    ddde:	48 89 85 00 fd ff ff 	mov    %rax,-0x300(%rbp)
    dde5:	48 8d 85 30 fd ff ff 	lea    -0x2d0(%rbp),%rax
    ddec:	48 83 c0 10          	add    $0x10,%rax
    ddf0:	48 89 85 08 fd ff ff 	mov    %rax,-0x2f8(%rbp)
    ddf7:	c7 85 ec fc ff ff ff 	movl   $0xffffffff,-0x314(%rbp)
    ddfe:	ff ff ff 
    de01:	66 c7 85 e2 fc ff ff 	movw   $0xfffe,-0x31e(%rbp)
    de08:	fe ff 
    de0a:	48 8d 05 1b be 00 00 	lea    0xbe1b(%rip),%rax        # 19c2c <g_115>
    de11:	48 89 85 d0 fe ff ff 	mov    %rax,-0x130(%rbp)
    de18:	48 c7 85 d8 fe ff ff 	movq   $0x0,-0x128(%rbp)
    de1f:	00 00 00 00 
    de23:	48 8d 05 02 be 00 00 	lea    0xbe02(%rip),%rax        # 19c2c <g_115>
    de2a:	48 89 85 e0 fe ff ff 	mov    %rax,-0x120(%rbp)
    de31:	48 c7 85 e8 fe ff ff 	movq   $0x0,-0x118(%rbp)
    de38:	00 00 00 00 
    de3c:	48 8d 05 e9 bd 00 00 	lea    0xbde9(%rip),%rax        # 19c2c <g_115>
    de43:	48 89 85 f0 fe ff ff 	mov    %rax,-0x110(%rbp)
    de4a:	48 8d 05 db bd 00 00 	lea    0xbddb(%rip),%rax        # 19c2c <g_115>
    de51:	48 89 85 f8 fe ff ff 	mov    %rax,-0x108(%rbp)
    de58:	48 c7 85 00 ff ff ff 	movq   $0x0,-0x100(%rbp)
    de5f:	00 00 00 00 
    de63:	48 8d 05 c2 bd 00 00 	lea    0xbdc2(%rip),%rax        # 19c2c <g_115>
    de6a:	48 89 85 08 ff ff ff 	mov    %rax,-0xf8(%rbp)
    de71:	48 8d 05 b4 bd 00 00 	lea    0xbdb4(%rip),%rax        # 19c2c <g_115>
    de78:	48 89 85 10 ff ff ff 	mov    %rax,-0xf0(%rbp)
    de7f:	48 8d 05 a6 bd 00 00 	lea    0xbda6(%rip),%rax        # 19c2c <g_115>
    de86:	48 89 85 18 ff ff ff 	mov    %rax,-0xe8(%rbp)
    de8d:	48 c7 85 20 ff ff ff 	movq   $0x0,-0xe0(%rbp)
    de94:	00 00 00 00 
    de98:	48 8d 05 8d bd 00 00 	lea    0xbd8d(%rip),%rax        # 19c2c <g_115>
    de9f:	48 89 85 28 ff ff ff 	mov    %rax,-0xd8(%rbp)
    dea6:	48 c7 85 30 ff ff ff 	movq   $0x0,-0xd0(%rbp)
    dead:	00 00 00 00 
    deb1:	48 8d 05 74 bd 00 00 	lea    0xbd74(%rip),%rax        # 19c2c <g_115>
    deb8:	48 89 85 38 ff ff ff 	mov    %rax,-0xc8(%rbp)
    debf:	48 8d 05 66 bd 00 00 	lea    0xbd66(%rip),%rax        # 19c2c <g_115>
    dec6:	48 89 85 40 ff ff ff 	mov    %rax,-0xc0(%rbp)
    decd:	48 c7 85 48 ff ff ff 	movq   $0x0,-0xb8(%rbp)
    ded4:	00 00 00 00 
    ded8:	48 8d 05 4d bd 00 00 	lea    0xbd4d(%rip),%rax        # 19c2c <g_115>
    dedf:	48 89 85 50 ff ff ff 	mov    %rax,-0xb0(%rbp)
    dee6:	48 c7 85 58 ff ff ff 	movq   $0x0,-0xa8(%rbp)
    deed:	00 00 00 00 
    def1:	48 c7 85 60 ff ff ff 	movq   $0x0,-0xa0(%rbp)
    def8:	00 00 00 00 
    defc:	48 8d 05 29 bd 00 00 	lea    0xbd29(%rip),%rax        # 19c2c <g_115>
    df03:	48 89 85 68 ff ff ff 	mov    %rax,-0x98(%rbp)
    df0a:	48 c7 85 70 ff ff ff 	movq   $0x0,-0x90(%rbp)
    df11:	00 00 00 00 
    df15:	48 8d 05 10 bd 00 00 	lea    0xbd10(%rip),%rax        # 19c2c <g_115>
    df1c:	48 89 85 78 ff ff ff 	mov    %rax,-0x88(%rbp)
    df23:	48 c7 45 80 00 00 00 	movq   $0x0,-0x80(%rbp)
    df2a:	00 
    df2b:	48 c7 45 88 00 00 00 	movq   $0x0,-0x78(%rbp)
    df32:	00 
    df33:	48 c7 45 90 00 00 00 	movq   $0x0,-0x70(%rbp)
    df3a:	00 
    df3b:	48 c7 45 98 00 00 00 	movq   $0x0,-0x68(%rbp)
    df42:	00 
    df43:	48 8d 05 e2 bc 00 00 	lea    0xbce2(%rip),%rax        # 19c2c <g_115>
    df4a:	48 89 45 a0          	mov    %rax,-0x60(%rbp)
    df4e:	48 8d 05 d7 bc 00 00 	lea    0xbcd7(%rip),%rax        # 19c2c <g_115>
    df55:	48 89 45 a8          	mov    %rax,-0x58(%rbp)
    df59:	48 c7 45 b0 00 00 00 	movq   $0x0,-0x50(%rbp)
    df60:	00 
    df61:	48 c7 45 b8 00 00 00 	movq   $0x0,-0x48(%rbp)
    df68:	00 
    df69:	48 c7 45 c0 00 00 00 	movq   $0x0,-0x40(%rbp)
    df70:	00 
    df71:	48 8d 05 b4 bc 00 00 	lea    0xbcb4(%rip),%rax        # 19c2c <g_115>
    df78:	48 89 45 c8          	mov    %rax,-0x38(%rbp)
    df7c:	c7 85 f0 fd ff ff 04 	movl   $0x4,-0x210(%rbp)
    df83:	00 00 00 
    df86:	c7 85 f4 fd ff ff 02 	movl   $0x2,-0x20c(%rbp)
    df8d:	00 00 00 
    df90:	c7 85 f8 fd ff ff 04 	movl   $0x4,-0x208(%rbp)
    df97:	00 00 00 
    df9a:	c7 85 fc fd ff ff 4f 	movl   $0xc34b914f,-0x204(%rbp)
    dfa1:	91 4b c3 
    dfa4:	c7 85 00 fe ff ff 4f 	movl   $0xc34b914f,-0x200(%rbp)
    dfab:	91 4b c3 
    dfae:	c7 85 04 fe ff ff 04 	movl   $0x4,-0x1fc(%rbp)
    dfb5:	00 00 00 
    dfb8:	c7 85 08 fe ff ff 02 	movl   $0x2,-0x1f8(%rbp)
    dfbf:	00 00 00 
    dfc2:	c7 85 0c fe ff ff 4f 	movl   $0xc34b914f,-0x1f4(%rbp)
    dfc9:	91 4b c3 
    dfcc:	c7 85 10 fe ff ff 02 	movl   $0x2,-0x1f0(%rbp)
    dfd3:	00 00 00 
    dfd6:	c7 85 14 fe ff ff 63 	movl   $0xca17d563,-0x1ec(%rbp)
    dfdd:	d5 17 ca 
    dfe0:	c7 85 18 fe ff ff 63 	movl   $0xca17d563,-0x1e8(%rbp)
    dfe7:	d5 17 ca 
    dfea:	c7 85 1c fe ff ff 02 	movl   $0x2,-0x1e4(%rbp)
    dff1:	00 00 00 
    dff4:	c7 85 20 fe ff ff 4f 	movl   $0xc34b914f,-0x1e0(%rbp)
    dffb:	91 4b c3 
    dffe:	c7 85 24 fe ff ff 02 	movl   $0x2,-0x1dc(%rbp)
    e005:	00 00 00 
    e008:	c7 85 28 fe ff ff 04 	movl   $0x4,-0x1d8(%rbp)
    e00f:	00 00 00 
    e012:	c7 85 2c fe ff ff 4f 	movl   $0xc34b914f,-0x1d4(%rbp)
    e019:	91 4b c3 
    e01c:	c7 85 30 fe ff ff 4f 	movl   $0xc34b914f,-0x1d0(%rbp)
    e023:	91 4b c3 
    e026:	c7 85 34 fe ff ff 04 	movl   $0x4,-0x1cc(%rbp)
    e02d:	00 00 00 
    e030:	c7 85 38 fe ff ff 02 	movl   $0x2,-0x1c8(%rbp)
    e037:	00 00 00 
    e03a:	c7 85 3c fe ff ff 04 	movl   $0x4,-0x1c4(%rbp)
    e041:	00 00 00 
    e044:	c7 85 40 fe ff ff 4f 	movl   $0xc34b914f,-0x1c0(%rbp)
    e04b:	91 4b c3 
    e04e:	c7 85 44 fe ff ff 04 	movl   $0x4,-0x1bc(%rbp)
    e055:	00 00 00 
    e058:	c7 85 48 fe ff ff 04 	movl   $0x4,-0x1b8(%rbp)
    e05f:	00 00 00 
    e062:	c7 85 4c fe ff ff 4f 	movl   $0xc34b914f,-0x1b4(%rbp)
    e069:	91 4b c3 
    e06c:	c7 85 50 fe ff ff 63 	movl   $0xca17d563,-0x1b0(%rbp)
    e073:	d5 17 ca 
    e076:	c7 85 54 fe ff ff 4f 	movl   $0xc34b914f,-0x1ac(%rbp)
    e07d:	91 4b c3 
    e080:	c7 85 58 fe ff ff 04 	movl   $0x4,-0x1a8(%rbp)
    e087:	00 00 00 
    e08a:	c7 85 5c fe ff ff 04 	movl   $0x4,-0x1a4(%rbp)
    e091:	00 00 00 
    e094:	c7 85 60 fe ff ff 04 	movl   $0x4,-0x1a0(%rbp)
    e09b:	00 00 00 
    e09e:	c7 85 64 fe ff ff 4f 	movl   $0xc34b914f,-0x19c(%rbp)
    e0a5:	91 4b c3 
    e0a8:	c7 85 68 fe ff ff 63 	movl   $0xca17d563,-0x198(%rbp)
    e0af:	d5 17 ca 
    e0b2:	c7 85 6c fe ff ff 4f 	movl   $0xc34b914f,-0x194(%rbp)
    e0b9:	91 4b c3 
    e0bc:	c7 85 70 fe ff ff 04 	movl   $0x4,-0x190(%rbp)
    e0c3:	00 00 00 
    e0c6:	c7 85 74 fe ff ff 04 	movl   $0x4,-0x18c(%rbp)
    e0cd:	00 00 00 
    e0d0:	c7 85 78 fe ff ff 4f 	movl   $0xc34b914f,-0x188(%rbp)
    e0d7:	91 4b c3 
    e0da:	c7 85 7c fe ff ff 04 	movl   $0x4,-0x184(%rbp)
    e0e1:	00 00 00 
    e0e4:	c7 85 80 fe ff ff 02 	movl   $0x2,-0x180(%rbp)
    e0eb:	00 00 00 
    e0ee:	c7 85 84 fe ff ff 04 	movl   $0x4,-0x17c(%rbp)
    e0f5:	00 00 00 
    e0f8:	c7 85 88 fe ff ff 4f 	movl   $0xc34b914f,-0x178(%rbp)
    e0ff:	91 4b c3 
    e102:	c7 85 8c fe ff ff 4f 	movl   $0xc34b914f,-0x174(%rbp)
    e109:	91 4b c3 
    e10c:	c7 85 90 fe ff ff 04 	movl   $0x4,-0x170(%rbp)
    e113:	00 00 00 
    e116:	c7 85 94 fe ff ff 02 	movl   $0x2,-0x16c(%rbp)
    e11d:	00 00 00 
    e120:	c7 85 98 fe ff ff 4f 	movl   $0xc34b914f,-0x168(%rbp)
    e127:	91 4b c3 
    e12a:	c7 85 9c fe ff ff 02 	movl   $0x2,-0x164(%rbp)
    e131:	00 00 00 
    e134:	c7 85 a0 fe ff ff 63 	movl   $0xca17d563,-0x160(%rbp)
    e13b:	d5 17 ca 
    e13e:	c7 85 a4 fe ff ff 63 	movl   $0xca17d563,-0x15c(%rbp)
    e145:	d5 17 ca 
    e148:	c7 85 a8 fe ff ff 02 	movl   $0x2,-0x158(%rbp)
    e14f:	00 00 00 
    e152:	c7 85 ac fe ff ff 4f 	movl   $0xc34b914f,-0x154(%rbp)
    e159:	91 4b c3 
    e15c:	c7 85 b0 fe ff ff 02 	movl   $0x2,-0x150(%rbp)
    e163:	00 00 00 
    e166:	c7 85 b4 fe ff ff 04 	movl   $0x4,-0x14c(%rbp)
    e16d:	00 00 00 
    e170:	c7 85 b8 fe ff ff 4f 	movl   $0xc34b914f,-0x148(%rbp)
    e177:	91 4b c3 
    e17a:	c7 85 bc fe ff ff 4f 	movl   $0xc34b914f,-0x144(%rbp)
    e181:	91 4b c3 
    e184:	c7 85 c0 fe ff ff 04 	movl   $0x4,-0x140(%rbp)
    e18b:	00 00 00 
    e18e:	c7 85 c4 fe ff ff 02 	movl   $0x2,-0x13c(%rbp)
    e195:	00 00 00 
    e198:	c7 85 c8 fe ff ff 04 	movl   $0x4,-0x138(%rbp)
    e19f:	00 00 00 
    e1a2:	c7 85 cc fe ff ff 4f 	movl   $0xc34b914f,-0x134(%rbp)
    e1a9:	91 4b c3 
    e1ac:	c7 85 e4 fc ff ff 00 	movl   $0x0,-0x31c(%rbp)
    e1b3:	00 00 00 
    e1b6:	eb 1e                	jmp    e1d6 <func_47+0x5fd>
    e1b8:	8b 85 e4 fc ff ff    	mov    -0x31c(%rbp),%eax
    e1be:	48 98                	cltq   
    e1c0:	48 8d 15 e9 9e 00 00 	lea    0x9ee9(%rip),%rdx        # 180b0 <g_867>
    e1c7:	48 89 94 c5 10 fd ff 	mov    %rdx,-0x2f0(%rbp,%rax,8)
    e1ce:	ff 
    e1cf:	83 85 e4 fc ff ff 01 	addl   $0x1,-0x31c(%rbp)
    e1d6:	83 bd e4 fc ff ff 03 	cmpl   $0x3,-0x31c(%rbp)
    e1dd:	7e d9                	jle    e1b8 <func_47+0x5df>
    e1df:	c7 85 e4 fc ff ff 00 	movl   $0x0,-0x31c(%rbp)
    e1e6:	00 00 00 
    e1e9:	eb 22                	jmp    e20d <func_47+0x634>
    e1eb:	8b 85 e4 fc ff ff    	mov    -0x31c(%rbp),%eax
    e1f1:	48 98                	cltq   
    e1f3:	48 8d 95 10 fd ff ff 	lea    -0x2f0(%rbp),%rdx
    e1fa:	48 83 c2 08          	add    $0x8,%rdx
    e1fe:	48 89 94 c5 30 fd ff 	mov    %rdx,-0x2d0(%rbp,%rax,8)
    e205:	ff 
    e206:	83 85 e4 fc ff ff 01 	addl   $0x1,-0x31c(%rbp)
    e20d:	83 bd e4 fc ff ff 03 	cmpl   $0x3,-0x31c(%rbp)
    e214:	7e d5                	jle    e1eb <func_47+0x612>
    e216:	c7 85 e4 fc ff ff 00 	movl   $0x0,-0x31c(%rbp)
    e21d:	00 00 00 
    e220:	eb 1e                	jmp    e240 <func_47+0x667>
    e222:	8b 85 e4 fc ff ff    	mov    -0x31c(%rbp),%eax
    e228:	48 98                	cltq   
    e22a:	48 8d 15 77 9e 00 00 	lea    0x9e77(%rip),%rdx        # 180a8 <g_801>
    e231:	48 89 94 c5 50 fd ff 	mov    %rdx,-0x2b0(%rbp,%rax,8)
    e238:	ff 
    e239:	83 85 e4 fc ff ff 01 	addl   $0x1,-0x31c(%rbp)
    e240:	83 bd e4 fc ff ff 07 	cmpl   $0x7,-0x31c(%rbp)
    e247:	7e d9                	jle    e222 <func_47+0x649>
    e249:	48 8b 85 00 fd ff ff 	mov    -0x300(%rbp),%rax
    e250:	48 89 85 08 fd ff ff 	mov    %rax,-0x2f8(%rbp)
    e257:	b8 06 00 00 00       	mov    $0x6,%eax
    e25c:	0f be d8             	movsbl %al,%ebx
    e25f:	48 8b 85 d8 fc ff ff 	mov    -0x328(%rbp),%rax
    e266:	98                   	cwtl   
    e267:	89 c6                	mov    %eax,%esi
    e269:	bf 00 00 00 00       	mov    $0x0,%edi
    e26e:	e8 60 61 ff ff       	callq  43d3 <safe_sub_func_int16_t_s_s>
    e273:	48 8b 05 46 b1 00 00 	mov    0xb146(%rip),%rax        # 193c0 <g_968>
    e27a:	48 b9 3b e0 fa f3 9e 	movabs $0x8cf1849ef3fae03b,%rcx
    e281:	84 f1 8c 
    e284:	48 89 08             	mov    %rcx,(%rax)
    e287:	48 8b 00             	mov    (%rax),%rax
    e28a:	48 21 85 d8 fc ff ff 	and    %rax,-0x328(%rbp)
    e291:	8b 85 ec fc ff ff    	mov    -0x314(%rbp),%eax
    e297:	44 0f bf e0          	movswl %ax,%r12d
    e29b:	0f b7 85 e0 fc ff ff 	movzwl -0x320(%rbp),%eax
    e2a2:	44 0f be e8          	movsbl %al,%r13d
    e2a6:	8b 85 ec fc ff ff    	mov    -0x314(%rbp),%eax
    e2ac:	48 98                	cltq   
    e2ae:	48 be 1f 60 3c ec 6a 	movabs $0x787e286aec3c601f,%rsi
    e2b5:	28 7e 78 
    e2b8:	48 89 c7             	mov    %rax,%rdi
    e2bb:	e8 f4 66 ff ff       	callq  49b4 <safe_mod_func_int64_t_s_s>
    e2c0:	48 85 c0             	test   %rax,%rax
    e2c3:	74 07                	je     e2cc <func_47+0x6f3>
    e2c5:	83 bd e8 fc ff ff 00 	cmpl   $0x0,-0x318(%rbp)
    e2cc:	8b 85 ec fc ff ff    	mov    -0x314(%rbp),%eax
    e2d2:	0c d0                	or     $0xd0,%al
    e2d4:	89 c2                	mov    %eax,%edx
    e2d6:	0f bf 85 e2 fc ff ff 	movswl -0x31e(%rbp),%eax
    e2dd:	39 c2                	cmp    %eax,%edx
    e2df:	0f 9f c0             	setg   %al
    e2e2:	0f b6 c0             	movzbl %al,%eax
    e2e5:	44 89 ee             	mov    %r13d,%esi
    e2e8:	89 c7                	mov    %eax,%edi
    e2ea:	e8 23 5f ff ff       	callq  4212 <safe_mul_func_int8_t_s_s>
    e2ef:	84 c0                	test   %al,%al
    e2f1:	0f 94 c0             	sete   %al
    e2f4:	0f b6 c0             	movzbl %al,%eax
    e2f7:	44 89 e6             	mov    %r12d,%esi
    e2fa:	89 c7                	mov    %eax,%edi
    e2fc:	e8 d2 60 ff ff       	callq  43d3 <safe_sub_func_int16_t_s_s>
    e301:	66 33 85 e2 fc ff ff 	xor    -0x31e(%rbp),%ax
    e308:	48 0f bf c0          	movswq %ax,%rax
    e30c:	25 ca 64 00 00       	and    $0x64ca,%eax
    e311:	48 85 c0             	test   %rax,%rax
    e314:	74 07                	je     e31d <func_47+0x744>
    e316:	b8 01 00 00 00       	mov    $0x1,%eax
    e31b:	eb 05                	jmp    e322 <func_47+0x749>
    e31d:	b8 00 00 00 00       	mov    $0x0,%eax
    e322:	89 c2                	mov    %eax,%edx
    e324:	8b 05 86 9d 00 00    	mov    0x9d86(%rip),%eax        # 180b0 <g_867>
    e32a:	89 05 80 9d 00 00    	mov    %eax,0x9d80(%rip)        # 180b0 <g_867>
    e330:	8b 05 7a 9d 00 00    	mov    0x9d7a(%rip),%eax        # 180b0 <g_867>
    e336:	89 d6                	mov    %edx,%esi
    e338:	89 c7                	mov    %eax,%edi
    e33a:	e8 91 6b ff ff       	callq  4ed0 <safe_sub_func_uint32_t_u_u>
    e33f:	4c 8b 25 d2 af 00 00 	mov    0xafd2(%rip),%r12        # 19318 <g_412>
    e346:	be 04 00 00 00       	mov    $0x4,%esi
    e34b:	bf 14 7f 00 00       	mov    $0x7f14,%edi
    e350:	e8 f3 6a ff ff       	callq  4e48 <safe_rshift_func_uint16_t_u_s>
    e355:	66 41 89 04 24       	mov    %ax,(%r12)
    e35a:	48 8b 05 5f b0 00 00 	mov    0xb05f(%rip),%rax        # 193c0 <g_968>
    e361:	48 8b 10             	mov    (%rax),%rdx
    e364:	8b 85 ec fc ff ff    	mov    -0x314(%rbp),%eax
    e36a:	48 98                	cltq   
    e36c:	48 39 c2             	cmp    %rax,%rdx
    e36f:	7c 0a                	jl     e37b <func_47+0x7a2>
    e371:	48 83 bd d8 fc ff ff 	cmpq   $0x0,-0x328(%rbp)
    e378:	00 
    e379:	74 07                	je     e382 <func_47+0x7a9>
    e37b:	b8 01 00 00 00       	mov    $0x1,%eax
    e380:	eb 05                	jmp    e387 <func_47+0x7ae>
    e382:	b8 00 00 00 00       	mov    $0x0,%eax
    e387:	89 c2                	mov    %eax,%edx
    e389:	8b 05 b9 9c 00 00    	mov    0x9cb9(%rip),%eax        # 18048 <g_119>
    e38f:	21 d0                	and    %edx,%eax
    e391:	83 f8 13             	cmp    $0x13,%eax
    e394:	0f 97 c0             	seta   %al
    e397:	0f b6 c0             	movzbl %al,%eax
    e39a:	66 89 85 b8 fd ff ff 	mov    %ax,-0x248(%rbp)
    e3a1:	0f b7 85 b8 fd ff ff 	movzwl -0x248(%rbp),%eax
    e3a8:	66 85 c0             	test   %ax,%ax
    e3ab:	74 11                	je     e3be <func_47+0x7e5>
    e3ad:	48 83 bd d8 fc ff ff 	cmpq   $0x0,-0x328(%rbp)
    e3b4:	00 
    e3b5:	74 07                	je     e3be <func_47+0x7e5>
    e3b7:	b8 01 00 00 00       	mov    $0x1,%eax
    e3bc:	eb 05                	jmp    e3c3 <func_47+0x7ea>
    e3be:	b8 00 00 00 00       	mov    $0x0,%eax
    e3c3:	0f be c0             	movsbl %al,%eax
    e3c6:	89 de                	mov    %ebx,%esi
    e3c8:	89 c7                	mov    %eax,%edi
    e3ca:	e8 43 5e ff ff       	callq  4212 <safe_mul_func_int8_t_s_s>
    e3cf:	48 8b 15 6a a9 00 00 	mov    0xa96a(%rip),%rdx        # 18d40 <g_125>
    e3d6:	8b 0a                	mov    (%rdx),%ecx
    e3d8:	0f be d0             	movsbl %al,%edx
    e3db:	48 8b 05 5e a9 00 00 	mov    0xa95e(%rip),%rax        # 18d40 <g_125>
    e3e2:	21 ca                	and    %ecx,%edx
    e3e4:	89 10                	mov    %edx,(%rax)
    e3e6:	0f bf 95 e2 fc ff ff 	movswl -0x31e(%rbp),%edx
    e3ed:	0f b6 05 8d 9c 00 00 	movzbl 0x9c8d(%rip),%eax        # 18081 <g_279>
    e3f4:	88 05 32 b8 00 00    	mov    %al,0xb832(%rip)        # 19c2c <g_115>
    e3fa:	0f b6 05 2b b8 00 00 	movzbl 0xb82b(%rip),%eax        # 19c2c <g_115>
    e401:	0f b6 c0             	movzbl %al,%eax
    e404:	39 c2                	cmp    %eax,%edx
    e406:	0f 9d c0             	setge  %al
    e409:	0f b6 d0             	movzbl %al,%edx
    e40c:	8b 85 00 fe ff ff    	mov    -0x200(%rbp),%eax
    e412:	39 c2                	cmp    %eax,%edx
    e414:	48 8d 85 30 fd ff ff 	lea    -0x2d0(%rbp),%rax
    e41b:	48 83 c0 10          	add    $0x10,%rax
    e41f:	48 39 85 f8 fc ff ff 	cmp    %rax,-0x308(%rbp)
    e426:	0f 94 c0             	sete   %al
    e429:	0f b6 c0             	movzbl %al,%eax
    e42c:	be 01 00 00 00       	mov    $0x1,%esi
    e431:	89 c7                	mov    %eax,%edi
    e433:	e8 bd 5f ff ff       	callq  43f5 <safe_mul_func_int16_t_s_s>
    e438:	98                   	cwtl   
    e439:	48 8b 95 d8 fc ff ff 	mov    -0x328(%rbp),%rdx
    e440:	89 c6                	mov    %eax,%esi
    e442:	89 d7                	mov    %edx,%edi
    e444:	e8 6f 6a ff ff       	callq  4eb8 <safe_add_func_uint32_t_u_u>
    e449:	85 c0                	test   %eax,%eax
    e44b:	74 07                	je     e454 <func_47+0x87b>
    e44d:	b8 01 00 00 00       	mov    $0x1,%eax
    e452:	eb 05                	jmp    e459 <func_47+0x880>
    e454:	b8 00 00 00 00       	mov    $0x0,%eax
    e459:	48 98                	cltq   
    e45b:	48 89 c7             	mov    %rax,%rdi
    e45e:	e8 b3 63 ff ff       	callq  4816 <safe_unary_minus_func_int64_t_s>
    e463:	48 8b 85 d8 fc ff ff 	mov    -0x328(%rbp),%rax
    e46a:	48 83 f8 f7          	cmp    $0xfffffffffffffff7,%rax
    e46e:	0f 96 c0             	setbe  %al
    e471:	0f b6 d0             	movzbl %al,%edx
    e474:	0f b7 85 b8 fd ff ff 	movzwl -0x248(%rbp),%eax
    e47b:	0f b7 c0             	movzwl %ax,%eax
    e47e:	39 c2                	cmp    %eax,%edx
    e480:	be 95 ff ff ff       	mov    $0xffffff95,%esi
    e485:	bf 00 00 00 00       	mov    $0x0,%edi
    e48a:	e8 83 5d ff ff       	callq  4212 <safe_mul_func_int8_t_s_s>
    e48f:	48 8b 15 aa a8 00 00 	mov    0xa8aa(%rip),%rdx        # 18d40 <g_125>
    e496:	8b 0a                	mov    (%rdx),%ecx
    e498:	0f be d0             	movsbl %al,%edx
    e49b:	48 8b 05 9e a8 00 00 	mov    0xa89e(%rip),%rax        # 18d40 <g_125>
    e4a2:	31 ca                	xor    %ecx,%edx
    e4a4:	89 10                	mov    %edx,(%rax)
    e4a6:	8b 05 94 9b 00 00    	mov    0x9b94(%rip),%eax        # 18040 <g_94>
    e4ac:	0f b7 c0             	movzwl %ax,%eax
    e4af:	be 02 00 00 00       	mov    $0x2,%esi
    e4b4:	89 c7                	mov    %eax,%edi
    e4b6:	e8 44 68 ff ff       	callq  4cff <safe_add_func_uint16_t_u_u>
    e4bb:	0f b7 c0             	movzwl %ax,%eax
    e4be:	89 05 7c 9b 00 00    	mov    %eax,0x9b7c(%rip)        # 18040 <g_94>
    e4c4:	8b 05 76 9b 00 00    	mov    0x9b76(%rip),%eax        # 18040 <g_94>
    e4ca:	83 f8 38             	cmp    $0x38,%eax
    e4cd:	0f 87 00 f9 ff ff    	ja     ddd3 <func_47+0x1fa>
    e4d3:	8b 85 e8 fc ff ff    	mov    -0x318(%rbp),%eax
    e4d9:	48 8b 5d d8          	mov    -0x28(%rbp),%rbx
    e4dd:	64 48 33 1c 25 28 00 	xor    %fs:0x28,%rbx
    e4e4:	00 00 
    e4e6:	74 05                	je     e4ed <func_47+0x914>
    e4e8:	e8 83 5b ff ff       	callq  4070 <__stack_chk_fail@plt>
    e4ed:	48 81 c4 18 03 00 00 	add    $0x318,%rsp
    e4f4:	5b                   	pop    %rbx
    e4f5:	41 5c                	pop    %r12
    e4f7:	41 5d                	pop    %r13
    e4f9:	5d                   	pop    %rbp
    e4fa:	c3                   	retq   

000000000000e4fb <func_56>:
    e4fb:	f3 0f 1e fa          	endbr64 
    e4ff:	55                   	push   %rbp
    e500:	48 89 e5             	mov    %rsp,%rbp
    e503:	41 57                	push   %r15
    e505:	41 56                	push   %r14
    e507:	41 55                	push   %r13
    e509:	41 54                	push   %r12
    e50b:	53                   	push   %rbx
    e50c:	48 81 ec 00 10 00 00 	sub    $0x1000,%rsp
    e513:	48 83 0c 24 00       	orq    $0x0,(%rsp)
    e518:	48 81 ec c8 0b 00 00 	sub    $0xbc8,%rsp
    e51f:	89 bd 1c e4 ff ff    	mov    %edi,-0x1be4(%rbp)
    e525:	48 89 b5 10 e4 ff ff 	mov    %rsi,-0x1bf0(%rbp)
    e52c:	64 48 8b 04 25 28 00 	mov    %fs:0x28,%rax
    e533:	00 00 
    e535:	48 89 45 c8          	mov    %rax,-0x38(%rbp)
    e539:	31 c0                	xor    %eax,%eax
    e53b:	66 c7 85 3a e4 ff ff 	movw   $0x6193,-0x1bc6(%rbp)
    e542:	93 61 
    e544:	48 8d 05 dd ac 00 00 	lea    0xacdd(%rip),%rax        # 19228 <g_124+0x4c8>
    e54b:	48 89 85 78 e5 ff ff 	mov    %rax,-0x1a88(%rbp)
    e552:	c7 85 b0 e9 ff ff e5 	movl   $0xd8b8ace5,-0x1650(%rbp)
    e559:	ac b8 d8 
    e55c:	c7 85 b4 e9 ff ff 01 	movl   $0x1,-0x164c(%rbp)
    e563:	00 00 00 
    e566:	c7 85 b8 e9 ff ff 56 	movl   $0x86f3fe56,-0x1648(%rbp)
    e56d:	fe f3 86 
    e570:	c7 85 bc e9 ff ff 00 	movl   $0x0,-0x1644(%rbp)
    e577:	00 00 00 
    e57a:	c7 85 c0 e9 ff ff f8 	movl   $0xfffffff8,-0x1640(%rbp)
    e581:	ff ff ff 
    e584:	c7 85 c4 e9 ff ff ff 	movl   $0xffffffff,-0x163c(%rbp)
    e58b:	ff ff ff 
    e58e:	c7 85 c8 e9 ff ff 7a 	movl   $0x28438d7a,-0x1638(%rbp)
    e595:	8d 43 28 
    e598:	c7 85 cc e9 ff ff f6 	movl   $0xfffffff6,-0x1634(%rbp)
    e59f:	ff ff ff 
    e5a2:	c7 85 d0 e9 ff ff 01 	movl   $0x1,-0x1630(%rbp)
    e5a9:	00 00 00 
    e5ac:	c7 85 d4 e9 ff ff 6a 	movl   $0x109a6a,-0x162c(%rbp)
    e5b3:	9a 10 00 
    e5b6:	c7 85 d8 e9 ff ff fa 	movl   $0xfffffffa,-0x1628(%rbp)
    e5bd:	ff ff ff 
    e5c0:	c7 85 dc e9 ff ff f6 	movl   $0xfffffff6,-0x1624(%rbp)
    e5c7:	ff ff ff 
    e5ca:	c7 85 e0 e9 ff ff 72 	movl   $0xef71ba72,-0x1620(%rbp)
    e5d1:	ba 71 ef 
    e5d4:	c7 85 e4 e9 ff ff ff 	movl   $0xffffffff,-0x161c(%rbp)
    e5db:	ff ff ff 
    e5de:	c7 85 e8 e9 ff ff 08 	movl   $0x8,-0x1618(%rbp)
    e5e5:	00 00 00 
    e5e8:	c7 85 ec e9 ff ff 00 	movl   $0x0,-0x1614(%rbp)
    e5ef:	00 00 00 
    e5f2:	c7 85 f0 e9 ff ff fc 	movl   $0xfffffffc,-0x1610(%rbp)
    e5f9:	ff ff ff 
    e5fc:	c7 85 f4 e9 ff ff 01 	movl   $0x1,-0x160c(%rbp)
    e603:	00 00 00 
    e606:	c7 85 f8 e9 ff ff c1 	movl   $0xfd9c85c1,-0x1608(%rbp)
    e60d:	85 9c fd 
    e610:	c7 85 fc e9 ff ff 00 	movl   $0x0,-0x1604(%rbp)
    e617:	00 00 00 
    e61a:	c7 85 00 ea ff ff f6 	movl   $0xfffffff6,-0x1600(%rbp)
    e621:	ff ff ff 
    e624:	c7 85 04 ea ff ff 77 	movl   $0xaddfb177,-0x15fc(%rbp)
    e62b:	b1 df ad 
    e62e:	c7 85 08 ea ff ff 00 	movl   $0x0,-0x15f8(%rbp)
    e635:	00 00 00 
    e638:	c7 85 0c ea ff ff fc 	movl   $0xfffffffc,-0x15f4(%rbp)
    e63f:	ff ff ff 
    e642:	c7 85 10 ea ff ff 72 	movl   $0xef71ba72,-0x15f0(%rbp)
    e649:	ba 71 ef 
    e64c:	c7 85 14 ea ff ff 00 	movl   $0x0,-0x15ec(%rbp)
    e653:	00 00 00 
    e656:	c7 85 18 ea ff ff 72 	movl   $0xef71ba72,-0x15e8(%rbp)
    e65d:	ba 71 ef 
    e660:	c7 85 1c ea ff ff 08 	movl   $0x8,-0x15e4(%rbp)
    e667:	00 00 00 
    e66a:	c7 85 20 ea ff ff ff 	movl   $0xffffffff,-0x15e0(%rbp)
    e671:	ff ff ff 
    e674:	c7 85 24 ea ff ff 33 	movl   $0xc6e98833,-0x15dc(%rbp)
    e67b:	88 e9 c6 
    e67e:	c7 85 28 ea ff ff 7a 	movl   $0x28438d7a,-0x15d8(%rbp)
    e685:	8d 43 28 
    e688:	c7 85 2c ea ff ff f6 	movl   $0xfffffff6,-0x15d4(%rbp)
    e68f:	ff ff ff 
    e692:	c7 85 30 ea ff ff 33 	movl   $0xc6e98833,-0x15d0(%rbp)
    e699:	88 e9 c6 
    e69c:	c7 85 34 ea ff ff 77 	movl   $0xaddfb177,-0x15cc(%rbp)
    e6a3:	b1 df ad 
    e6a6:	c7 85 38 ea ff ff 6a 	movl   $0x109a6a,-0x15c8(%rbp)
    e6ad:	9a 10 00 
    e6b0:	c7 85 3c ea ff ff 33 	movl   $0xc6e98833,-0x15c4(%rbp)
    e6b7:	88 e9 c6 
    e6ba:	c7 85 40 ea ff ff e5 	movl   $0xd8b8ace5,-0x15c0(%rbp)
    e6c1:	ac b8 d8 
    e6c4:	c7 85 44 ea ff ff fc 	movl   $0xfffffffc,-0x15bc(%rbp)
    e6cb:	ff ff ff 
    e6ce:	c7 85 48 ea ff ff 6a 	movl   $0x109a6a,-0x15b8(%rbp)
    e6d5:	9a 10 00 
    e6d8:	c7 85 4c ea ff ff 00 	movl   $0x0,-0x15b4(%rbp)
    e6df:	00 00 00 
    e6e2:	c7 85 50 ea ff ff 33 	movl   $0xc6e98833,-0x15b0(%rbp)
    e6e9:	88 e9 c6 
    e6ec:	c7 85 54 ea ff ff f6 	movl   $0xfffffff6,-0x15ac(%rbp)
    e6f3:	ff ff ff 
    e6f6:	c7 85 58 ea ff ff 7a 	movl   $0x28438d7a,-0x15a8(%rbp)
    e6fd:	8d 43 28 
    e700:	c7 85 5c ea ff ff ff 	movl   $0xffffffff,-0x15a4(%rbp)
    e707:	ff ff ff 
    e70a:	c7 85 60 ea ff ff ff 	movl   $0xffffffff,-0x15a0(%rbp)
    e711:	ff ff ff 
    e714:	c7 85 64 ea ff ff 6a 	movl   $0x109a6a,-0x159c(%rbp)
    e71b:	9a 10 00 
    e71e:	c7 85 68 ea ff ff 72 	movl   $0xef71ba72,-0x1598(%rbp)
    e725:	ba 71 ef 
    e728:	c7 85 6c ea ff ff 01 	movl   $0x1,-0x1594(%rbp)
    e72f:	00 00 00 
    e732:	c7 85 70 ea ff ff 72 	movl   $0xef71ba72,-0x1590(%rbp)
    e739:	ba 71 ef 
    e73c:	c7 85 74 ea ff ff 01 	movl   $0x1,-0x158c(%rbp)
    e743:	00 00 00 
    e746:	c7 85 78 ea ff ff 00 	movl   $0x0,-0x1588(%rbp)
    e74d:	00 00 00 
    e750:	c7 85 7c ea ff ff 00 	movl   $0x0,-0x1584(%rbp)
    e757:	00 00 00 
    e75a:	c7 85 80 ea ff ff f6 	movl   $0xfffffff6,-0x1580(%rbp)
    e761:	ff ff ff 
    e764:	c7 85 84 ea ff ff f6 	movl   $0xfffffff6,-0x157c(%rbp)
    e76b:	ff ff ff 
    e76e:	c7 85 88 ea ff ff c1 	movl   $0xfd9c85c1,-0x1578(%rbp)
    e775:	85 9c fd 
    e778:	c7 85 8c ea ff ff f8 	movl   $0xfffffff8,-0x1574(%rbp)
    e77f:	ff ff ff 
    e782:	48 8d 05 cb 58 00 00 	lea    0x58cb(%rip),%rax        # 14054 <g_205>
    e789:	48 89 85 38 e5 ff ff 	mov    %rax,-0x1ac8(%rbp)
    e790:	48 8d 85 38 e5 ff ff 	lea    -0x1ac8(%rbp),%rax
    e797:	48 89 85 80 e5 ff ff 	mov    %rax,-0x1a80(%rbp)
    e79e:	48 8d 05 d3 98 00 00 	lea    0x98d3(%rip),%rax        # 18078 <g_211+0x18>
    e7a5:	48 89 85 70 e5 ff ff 	mov    %rax,-0x1a90(%rbp)
    e7ac:	c7 85 a0 e4 ff ff 05 	movl   $0x5,-0x1b60(%rbp)
    e7b3:	00 00 00 
    e7b6:	c7 85 4c e4 ff ff 05 	movl   $0x5,-0x1bb4(%rbp)
    e7bd:	00 00 00 
    e7c0:	c7 85 50 e4 ff ff ff 	movl   $0xffffffff,-0x1bb0(%rbp)
    e7c7:	ff ff ff 
    e7ca:	48 8d 85 a0 f4 ff ff 	lea    -0xb60(%rbp),%rax
    e7d1:	48 8d 15 28 60 00 00 	lea    0x6028(%rip),%rdx        # 14800 <g_3084+0x79f>
    e7d8:	b9 64 00 00 00       	mov    $0x64,%ecx
    e7dd:	48 89 c7             	mov    %rax,%rdi
    e7e0:	48 89 d6             	mov    %rdx,%rsi
    e7e3:	f3 48 a5             	rep movsq %ds:(%rsi),%es:(%rdi)
    e7e6:	48 8d 05 69 58 00 00 	lea    0x5869(%rip),%rax        # 14056 <g_268>
    e7ed:	48 89 85 88 e5 ff ff 	mov    %rax,-0x1a78(%rbp)
    e7f4:	c7 85 54 e4 ff ff c2 	movl   $0x97892cc2,-0x1bac(%rbp)
    e7fb:	2c 89 97 
    e7fe:	48 8d 85 30 ed ff ff 	lea    -0x12d0(%rbp),%rax
    e805:	48 8d 15 14 63 00 00 	lea    0x6314(%rip),%rdx        # 14b20 <g_3084+0xabf>
    e80c:	b9 32 00 00 00       	mov    $0x32,%ecx
    e811:	48 89 c7             	mov    %rax,%rdi
    e814:	48 89 d6             	mov    %rdx,%rsi
    e817:	f3 48 a5             	rep movsq %ds:(%rsi),%es:(%rdi)
    e81a:	48 8d 05 0f 98 00 00 	lea    0x980f(%rip),%rax        # 18030 <g_15>
    e821:	48 89 85 90 e5 ff ff 	mov    %rax,-0x1a70(%rbp)
    e828:	c6 85 2b e4 ff ff f9 	movb   $0xf9,-0x1bd5(%rbp)
    e82f:	66 c7 85 34 e4 ff ff 	movw   $0x6,-0x1bcc(%rbp)
    e836:	06 00 
    e838:	48 b8 49 98 f1 b2 93 	movabs $0xbc517993b2f19849,%rax
    e83f:	79 51 bc 
    e842:	48 89 85 98 e5 ff ff 	mov    %rax,-0x1a68(%rbp)
    e849:	66 c7 85 3c e4 ff ff 	movw   $0x1fe2,-0x1bc4(%rbp)
    e850:	e2 1f 
    e852:	48 c7 85 a0 e5 ff ff 	movq   $0x0,-0x1a60(%rbp)
    e859:	00 00 00 00 
    e85d:	c7 85 a4 e4 ff ff a2 	movl   $0x7a3fc2a2,-0x1b5c(%rbp)
    e864:	c2 3f 7a 
    e867:	48 8d 85 54 e4 ff ff 	lea    -0x1bac(%rbp),%rax
    e86e:	48 89 85 40 e5 ff ff 	mov    %rax,-0x1ac0(%rbp)
    e875:	48 8d 85 40 e5 ff ff 	lea    -0x1ac0(%rbp),%rax
    e87c:	48 89 85 40 e8 ff ff 	mov    %rax,-0x17c0(%rbp)
    e883:	48 8d 85 40 e5 ff ff 	lea    -0x1ac0(%rbp),%rax
    e88a:	48 89 85 48 e8 ff ff 	mov    %rax,-0x17b8(%rbp)
    e891:	48 8d 85 40 e5 ff ff 	lea    -0x1ac0(%rbp),%rax
    e898:	48 89 85 50 e8 ff ff 	mov    %rax,-0x17b0(%rbp)
    e89f:	48 8d 85 40 e5 ff ff 	lea    -0x1ac0(%rbp),%rax
    e8a6:	48 89 85 58 e8 ff ff 	mov    %rax,-0x17a8(%rbp)
    e8ad:	48 8d 85 40 e5 ff ff 	lea    -0x1ac0(%rbp),%rax
    e8b4:	48 89 85 60 e8 ff ff 	mov    %rax,-0x17a0(%rbp)
    e8bb:	48 8d 85 40 e5 ff ff 	lea    -0x1ac0(%rbp),%rax
    e8c2:	48 89 85 68 e8 ff ff 	mov    %rax,-0x1798(%rbp)
    e8c9:	48 8d 85 40 e5 ff ff 	lea    -0x1ac0(%rbp),%rax
    e8d0:	48 89 85 70 e8 ff ff 	mov    %rax,-0x1790(%rbp)
    e8d7:	48 8d 85 40 e5 ff ff 	lea    -0x1ac0(%rbp),%rax
    e8de:	48 89 85 78 e8 ff ff 	mov    %rax,-0x1788(%rbp)
    e8e5:	c7 85 a8 e4 ff ff 1b 	movl   $0x51dc71b,-0x1b58(%rbp)
    e8ec:	c7 1d 05 
    e8ef:	48 c7 85 a8 e5 ff ff 	movq   $0x0,-0x1a58(%rbp)
    e8f6:	00 00 00 00 
    e8fa:	c7 85 84 e4 ff ff 06 	movl   $0x6,-0x1b7c(%rbp)
    e901:	00 00 00 
    e904:	c6 85 2a e4 ff ff 06 	movb   $0x6,-0x1bd6(%rbp)
    e90b:	c6 85 2c e4 ff ff 65 	movb   $0x65,-0x1bd4(%rbp)
    e912:	48 8d 05 ff a9 00 00 	lea    0xa9ff(%rip),%rax        # 19318 <g_412>
    e919:	48 89 85 b0 e5 ff ff 	mov    %rax,-0x1a50(%rbp)
    e920:	48 8d 85 90 ea ff ff 	lea    -0x1570(%rbp),%rax
    e927:	48 8d 15 92 63 00 00 	lea    0x6392(%rip),%rdx        # 14cc0 <g_3084+0xc5f>
    e92e:	b9 23 00 00 00       	mov    $0x23,%ecx
    e933:	48 89 c7             	mov    %rax,%rdi
    e936:	48 89 d6             	mov    %rdx,%rsi
    e939:	f3 48 a5             	rep movsq %ds:(%rsi),%es:(%rdi)
    e93c:	66 c7 85 3e e4 ff ff 	movw   $0x20e8,-0x1bc2(%rbp)
    e943:	e8 20 
    e945:	c7 85 ac e4 ff ff ef 	movl   $0x6a603ef,-0x1b54(%rbp)
    e94c:	03 a6 06 
    e94f:	c7 85 b0 e4 ff ff 5d 	movl   $0xe7178a5d,-0x1b50(%rbp)
    e956:	8a 17 e7 
    e959:	48 c7 85 10 e4 ff ff 	movq   $0x0,-0x1bf0(%rbp)
    e960:	00 00 00 00 
    e964:	e9 09 1a 00 00       	jmpq   10372 <func_56+0x1e77>
    e969:	48 8d 05 b8 b2 00 00 	lea    0xb2b8(%rip),%rax        # 19c28 <g_99>
    e970:	48 89 85 20 e9 ff ff 	mov    %rax,-0x16e0(%rbp)
    e977:	48 8d 05 aa b2 00 00 	lea    0xb2aa(%rip),%rax        # 19c28 <g_99>
    e97e:	48 89 85 28 e9 ff ff 	mov    %rax,-0x16d8(%rbp)
    e985:	48 8d 05 9c b2 00 00 	lea    0xb29c(%rip),%rax        # 19c28 <g_99>
    e98c:	48 89 85 30 e9 ff ff 	mov    %rax,-0x16d0(%rbp)
    e993:	48 8d 05 8e b2 00 00 	lea    0xb28e(%rip),%rax        # 19c28 <g_99>
    e99a:	48 89 85 38 e9 ff ff 	mov    %rax,-0x16c8(%rbp)
    e9a1:	48 8d 05 80 b2 00 00 	lea    0xb280(%rip),%rax        # 19c28 <g_99>
    e9a8:	48 89 85 40 e9 ff ff 	mov    %rax,-0x16c0(%rbp)
    e9af:	48 8d 05 72 b2 00 00 	lea    0xb272(%rip),%rax        # 19c28 <g_99>
    e9b6:	48 89 85 48 e9 ff ff 	mov    %rax,-0x16b8(%rbp)
    e9bd:	48 8d 05 64 b2 00 00 	lea    0xb264(%rip),%rax        # 19c28 <g_99>
    e9c4:	48 89 85 50 e9 ff ff 	mov    %rax,-0x16b0(%rbp)
    e9cb:	48 8d 85 20 e9 ff ff 	lea    -0x16e0(%rbp),%rax
    e9d2:	48 83 c0 18          	add    $0x18,%rax
    e9d6:	48 89 85 b0 eb ff ff 	mov    %rax,-0x1450(%rbp)
    e9dd:	48 8d 85 20 e9 ff ff 	lea    -0x16e0(%rbp),%rax
    e9e4:	48 83 c0 18          	add    $0x18,%rax
    e9e8:	48 89 85 b8 eb ff ff 	mov    %rax,-0x1448(%rbp)
    e9ef:	48 8d 85 20 e9 ff ff 	lea    -0x16e0(%rbp),%rax
    e9f6:	48 83 c0 18          	add    $0x18,%rax
    e9fa:	48 89 85 c0 eb ff ff 	mov    %rax,-0x1440(%rbp)
    ea01:	48 8d 85 20 e9 ff ff 	lea    -0x16e0(%rbp),%rax
    ea08:	48 83 c0 18          	add    $0x18,%rax
    ea0c:	48 89 85 c8 eb ff ff 	mov    %rax,-0x1438(%rbp)
    ea13:	48 8d 85 20 e9 ff ff 	lea    -0x16e0(%rbp),%rax
    ea1a:	48 83 c0 18          	add    $0x18,%rax
    ea1e:	48 89 85 d0 eb ff ff 	mov    %rax,-0x1430(%rbp)
    ea25:	48 8d 85 20 e9 ff ff 	lea    -0x16e0(%rbp),%rax
    ea2c:	48 83 c0 18          	add    $0x18,%rax
    ea30:	48 89 85 d8 eb ff ff 	mov    %rax,-0x1428(%rbp)
    ea37:	48 8d 85 20 e9 ff ff 	lea    -0x16e0(%rbp),%rax
    ea3e:	48 83 c0 18          	add    $0x18,%rax
    ea42:	48 89 85 e0 eb ff ff 	mov    %rax,-0x1420(%rbp)
    ea49:	c7 85 58 e4 ff ff ff 	movl   $0xffffffff,-0x1ba8(%rbp)
    ea50:	ff ff ff 
    ea53:	48 c7 85 50 e5 ff ff 	movq   $0x0,-0x1ab0(%rbp)
    ea5a:	00 00 00 00 
    ea5e:	66 c7 85 60 f2 ff ff 	movw   $0xb01a,-0xda0(%rbp)
    ea65:	1a b0 
    ea67:	c6 85 62 f2 ff ff f2 	movb   $0xf2,-0xd9e(%rbp)
    ea6e:	66 c7 85 63 f2 ff ff 	movw   $0x411,-0xd9d(%rbp)
    ea75:	11 04 
    ea77:	c6 85 65 f2 ff ff 56 	movb   $0x56,-0xd9b(%rbp)
    ea7e:	66 c7 85 66 f2 ff ff 	movw   $0xacac,-0xd9a(%rbp)
    ea85:	ac ac 
    ea87:	c6 85 68 f2 ff ff b0 	movb   $0xb0,-0xd98(%rbp)
    ea8e:	66 c7 85 69 f2 ff ff 	movw   $0x717,-0xd97(%rbp)
    ea95:	17 07 
    ea97:	c6 85 6b f2 ff ff 09 	movb   $0x9,-0xd95(%rbp)
    ea9e:	66 c7 85 6c f2 ff ff 	movw   $0xb9a4,-0xd94(%rbp)
    eaa5:	a4 b9 
    eaa7:	c6 85 6e f2 ff ff 84 	movb   $0x84,-0xd92(%rbp)
    eaae:	66 c7 85 6f f2 ff ff 	movw   $0xff09,-0xd91(%rbp)
    eab5:	09 ff 
    eab7:	c6 85 71 f2 ff ff 11 	movb   $0x11,-0xd8f(%rbp)
    eabe:	66 c7 85 72 f2 ff ff 	movw   $0xa4fa,-0xd8e(%rbp)
    eac5:	fa a4 
    eac7:	c6 85 74 f2 ff ff 84 	movb   $0x84,-0xd8c(%rbp)
    eace:	66 c7 85 75 f2 ff ff 	movw   $0x71,-0xd8b(%rbp)
    ead5:	71 00 
    ead7:	c6 85 77 f2 ff ff 09 	movb   $0x9,-0xd89(%rbp)
    eade:	66 c7 85 78 f2 ff ff 	movw   $0xfeb0,-0xd88(%rbp)
    eae5:	b0 fe 
    eae7:	c6 85 7a f2 ff ff b0 	movb   $0xb0,-0xd86(%rbp)
    eaee:	66 c7 85 7b f2 ff ff 	movw   $0x8b46,-0xd85(%rbp)
    eaf5:	46 8b 
    eaf7:	c6 85 7d f2 ff ff 56 	movb   $0x56,-0xd83(%rbp)
    eafe:	66 c7 85 7e f2 ff ff 	movw   $0x1e8,-0xd82(%rbp)
    eb05:	e8 01 
    eb07:	c6 85 80 f2 ff ff f2 	movb   $0xf2,-0xd80(%rbp)
    eb0e:	66 c7 85 81 f2 ff ff 	movw   $0xfaca,-0xd7f(%rbp)
    eb15:	ca fa 
    eb17:	c6 85 83 f2 ff ff 17 	movb   $0x17,-0xd7d(%rbp)
    eb1e:	66 c7 85 84 f2 ff ff 	movw   $0xf2ed,-0xd7c(%rbp)
    eb25:	ed f2 
    eb27:	c6 85 86 f2 ff ff 07 	movb   $0x7,-0xd7a(%rbp)
    eb2e:	66 c7 85 87 f2 ff ff 	movw   $0x96ca,-0xd79(%rbp)
    eb35:	ca 96 
    eb37:	c6 85 89 f2 ff ff 81 	movb   $0x81,-0xd77(%rbp)
    eb3e:	66 c7 85 8a f2 ff ff 	movw   $0x94e8,-0xd76(%rbp)
    eb45:	e8 94 
    eb47:	c6 85 8c f2 ff ff 94 	movb   $0x94,-0xd74(%rbp)
    eb4e:	66 c7 85 8d f2 ff ff 	movw   $0xfc46,-0xd73(%rbp)
    eb55:	46 fc 
    eb57:	c6 85 8f f2 ff ff 23 	movb   $0x23,-0xd71(%rbp)
    eb5e:	66 c7 85 90 f2 ff ff 	movw   $0xedb0,-0xd70(%rbp)
    eb65:	b0 ed 
    eb67:	c6 85 92 f2 ff ff 00 	movb   $0x0,-0xd6e(%rbp)
    eb6e:	66 c7 85 93 f2 ff ff 	movw   $0x2a71,-0xd6d(%rbp)
    eb75:	71 2a 
    eb77:	c6 85 95 f2 ff ff fd 	movb   $0xfd,-0xd6b(%rbp)
    eb7e:	66 c7 85 96 f2 ff ff 	movw   $0xfa,-0xd6a(%rbp)
    eb85:	fa 00 
    eb87:	c6 85 98 f2 ff ff ac 	movb   $0xac,-0xd68(%rbp)
    eb8e:	66 c7 85 99 f2 ff ff 	movw   $0x2a09,-0xd67(%rbp)
    eb95:	09 2a 
    eb97:	c6 85 9b f2 ff ff f6 	movb   $0xf6,-0xd65(%rbp)
    eb9e:	66 c7 85 9c f2 ff ff 	movw   $0xeda4,-0xd64(%rbp)
    eba5:	a4 ed 
    eba7:	c6 85 9e f2 ff ff e8 	movb   $0xe8,-0xd62(%rbp)
    ebae:	66 c7 85 9f f2 ff ff 	movw   $0xfc17,-0xd61(%rbp)
    ebb5:	17 fc 
    ebb7:	c6 85 a1 f2 ff ff e5 	movb   $0xe5,-0xd5f(%rbp)
    ebbe:	66 c7 85 a2 f2 ff ff 	movw   $0x94ac,-0xd5e(%rbp)
    ebc5:	ac 94 
    ebc7:	c6 85 a4 f2 ff ff 1a 	movb   $0x1a,-0xd5c(%rbp)
    ebce:	66 c7 85 a5 f2 ff ff 	movw   $0x9611,-0xd5b(%rbp)
    ebd5:	11 96 
    ebd7:	c6 85 a7 f2 ff ff 95 	movb   $0x95,-0xd59(%rbp)
    ebde:	66 c7 85 a8 f2 ff ff 	movw   $0xf21a,-0xd58(%rbp)
    ebe5:	1a f2 
    ebe7:	c6 85 aa f2 ff ff a4 	movb   $0xa4,-0xd56(%rbp)
    ebee:	66 c7 85 ab f2 ff ff 	movw   $0xfa01,-0xd55(%rbp)
    ebf5:	01 fa 
    ebf7:	c6 85 ad f2 ff ff 95 	movb   $0x95,-0xd53(%rbp)
    ebfe:	66 c7 85 ae f2 ff ff 	movw   $0x1ff,-0xd52(%rbp)
    ec05:	ff 01 
    ec07:	c6 85 b0 f2 ff ff 1a 	movb   $0x1a,-0xd50(%rbp)
    ec0e:	66 c7 85 b1 f2 ff ff 	movw   $0x8be5,-0xd4f(%rbp)
    ec15:	e5 8b 
    ec17:	c6 85 b3 f2 ff ff e5 	movb   $0xe5,-0xd4d(%rbp)
    ec1e:	66 c7 85 b4 f2 ff ff 	movw   $0xfe06,-0xd4c(%rbp)
    ec25:	06 fe 
    ec27:	c6 85 b6 f2 ff ff e8 	movb   $0xe8,-0xd4a(%rbp)
    ec2e:	66 c7 85 b7 f2 ff ff 	movw   $0x56,-0xd49(%rbp)
    ec35:	56 00 
    ec37:	c6 85 b9 f2 ff ff f6 	movb   $0xf6,-0xd47(%rbp)
    ec3e:	66 c7 85 ba f2 ff ff 	movw   $0xa4fe,-0xd46(%rbp)
    ec45:	fe a4 
    ec47:	c6 85 bc f2 ff ff ac 	movb   $0xac,-0xd44(%rbp)
    ec4e:	66 c7 85 bd f2 ff ff 	movw   $0xffff,-0xd43(%rbp)
    ec55:	ff ff 
    ec57:	c6 85 bf f2 ff ff fd 	movb   $0xfd,-0xd41(%rbp)
    ec5e:	66 c7 85 c0 f2 ff ff 	movw   $0xb9fe,-0xd40(%rbp)
    ec65:	fe b9 
    ec67:	c6 85 c2 f2 ff ff 00 	movb   $0x0,-0xd3e(%rbp)
    ec6e:	66 c7 85 c3 f2 ff ff 	movw   $0x756,-0xd3d(%rbp)
    ec75:	56 07 
    ec77:	c6 85 c5 f2 ff ff 23 	movb   $0x23,-0xd3b(%rbp)
    ec7e:	66 c7 85 c6 f2 ff ff 	movw   $0xac06,-0xd3a(%rbp)
    ec85:	06 ac 
    ec87:	c6 85 c8 f2 ff ff 94 	movb   $0x94,-0xd38(%rbp)
    ec8e:	66 c7 85 c9 f2 ff ff 	movw   $0x4e5,-0xd37(%rbp)
    ec95:	e5 04 
    ec97:	c6 85 cb f2 ff ff 81 	movb   $0x81,-0xd35(%rbp)
    ec9e:	66 c7 85 cc f2 ff ff 	movw   $0xb0ff,-0xd34(%rbp)
    eca5:	ff b0 
    eca7:	c6 85 ce f2 ff ff 07 	movb   $0x7,-0xd32(%rbp)
    ecae:	66 c7 85 cf f2 ff ff 	movw   $0x101,-0xd31(%rbp)
    ecb5:	01 01 
    ecb7:	c6 85 d1 f2 ff ff 17 	movb   $0x17,-0xd2f(%rbp)
    ecbe:	66 c7 85 d2 f2 ff ff 	movw   $0xb01a,-0xd2e(%rbp)
    ecc5:	1a b0 
    ecc7:	c6 85 d4 f2 ff ff f2 	movb   $0xf2,-0xd2c(%rbp)
    ecce:	66 c7 85 d5 f2 ff ff 	movw   $0x411,-0xd2b(%rbp)
    ecd5:	11 04 
    ecd7:	c6 85 d7 f2 ff ff 56 	movb   $0x56,-0xd29(%rbp)
    ecde:	66 c7 85 d8 f2 ff ff 	movw   $0xacac,-0xd28(%rbp)
    ece5:	ac ac 
    ece7:	c6 85 da f2 ff ff b0 	movb   $0xb0,-0xd26(%rbp)
    ecee:	66 c7 85 db f2 ff ff 	movw   $0x717,-0xd25(%rbp)
    ecf5:	17 07 
    ecf7:	c6 85 dd f2 ff ff 56 	movb   $0x56,-0xd23(%rbp)
    ecfe:	66 c7 85 de f2 ff ff 	movw   $0xed,-0xd22(%rbp)
    ed05:	ed 00 
    ed07:	c6 85 e0 f2 ff ff fe 	movb   $0xfe,-0xd20(%rbp)
    ed0e:	66 c7 85 e1 f2 ff ff 	movw   $0x9056,-0xd1f(%rbp)
    ed15:	56 90 
    ed17:	c6 85 e3 f2 ff ff ff 	movb   $0xff,-0xd1d(%rbp)
    ed1e:	66 c7 85 e4 f2 ff ff 	movw   $0xed00,-0xd1c(%rbp)
    ed25:	00 ed 
    ed27:	c6 85 e6 f2 ff ff fe 	movb   $0xfe,-0xd1a(%rbp)
    ed2e:	66 c7 85 e7 f2 ff ff 	movw   $0x1fd,-0xd19(%rbp)
    ed35:	fd 01 
    ed37:	c6 85 e9 f2 ff ff 56 	movb   $0x56,-0xd17(%rbp)
    ed3e:	66 c7 85 ea f2 ff ff 	movw   $0xf206,-0xd16(%rbp)
    ed45:	06 f2 
    ed47:	c6 85 ec f2 ff ff 06 	movb   $0x6,-0xd14(%rbp)
    ed4e:	66 c7 85 ed f2 ff ff 	movw   $0xff01,-0xd13(%rbp)
    ed55:	01 ff 
    ed57:	c6 85 ef f2 ff ff e5 	movb   $0xe5,-0xd11(%rbp)
    ed5e:	66 c7 85 f0 f2 ff ff 	movw   $0xb0,-0xd10(%rbp)
    ed65:	b0 00 
    ed67:	c6 85 f2 f2 ff ff ff 	movb   $0xff,-0xd0e(%rbp)
    ed6e:	66 c7 85 f3 f2 ff ff 	movw   $0x4f6,-0xd0d(%rbp)
    ed75:	f6 04 
    ed77:	c6 85 f5 f2 ff ff 01 	movb   $0x1,-0xd0b(%rbp)
    ed7e:	66 c7 85 f6 f2 ff ff 	movw   $0xff94,-0xd0a(%rbp)
    ed85:	94 ff 
    ed87:	c6 85 f8 f2 ff ff 1a 	movb   $0x1a,-0xd08(%rbp)
    ed8e:	66 c7 85 f9 f2 ff ff 	movw   $0xf3f6,-0xd07(%rbp)
    ed95:	f6 f3 
    ed97:	c6 85 fb f2 ff ff 11 	movb   $0x11,-0xd05(%rbp)
    ed9e:	66 c7 85 fc f2 ff ff 	movw   $0xacb0,-0xd04(%rbp)
    eda5:	b0 ac 
    eda7:	c6 85 fe f2 ff ff ac 	movb   $0xac,-0xd02(%rbp)
    edae:	66 c7 85 ff f2 ff ff 	movw   $0x1,-0xd01(%rbp)
    edb5:	01 00 
    edb7:	c6 85 01 f3 ff ff 17 	movb   $0x17,-0xcff(%rbp)
    edbe:	66 c7 85 02 f3 ff ff 	movw   $0x9406,-0xcfe(%rbp)
    edc5:	06 94 
    edc7:	c6 85 04 f3 ff ff a4 	movb   $0xa4,-0xcfc(%rbp)
    edce:	66 c7 85 05 f3 ff ff 	movw   $0x1fd,-0xcfb(%rbp)
    edd5:	fd 01 
    edd7:	c6 85 07 f3 ff ff 09 	movb   $0x9,-0xcf9(%rbp)
    edde:	66 c7 85 08 f3 ff ff 	movw   $0x8400,-0xcf8(%rbp)
    ede5:	00 84 
    ede7:	c6 85 0a f3 ff ff fa 	movb   $0xfa,-0xcf6(%rbp)
    edee:	66 c7 85 0b f3 ff ff 	movw   $0x156,-0xcf5(%rbp)
    edf5:	56 01 
    edf7:	c6 85 0d f3 ff ff 71 	movb   $0x71,-0xcf3(%rbp)
    edfe:	66 c7 85 0e f3 ff ff 	movw   $0x94ed,-0xcf2(%rbp)
    ee05:	ed 94 
    ee07:	c6 85 10 f3 ff ff b0 	movb   $0xb0,-0xcf0(%rbp)
    ee0e:	66 c7 85 11 f3 ff ff 	movw   $0x1,-0xcef(%rbp)
    ee15:	01 00 
    ee17:	c6 85 13 f3 ff ff 46 	movb   $0x46,-0xced(%rbp)
    ee1e:	66 c7 85 14 f3 ff ff 	movw   $0xacfa,-0xcec(%rbp)
    ee25:	fa ac 
    ee27:	c6 85 16 f3 ff ff e8 	movb   $0xe8,-0xcea(%rbp)
    ee2e:	66 c7 85 17 f3 ff ff 	movw   $0xf3ff,-0xce9(%rbp)
    ee35:	ff f3 
    ee37:	c6 85 19 f3 ff ff ca 	movb   $0xca,-0xce7(%rbp)
    ee3e:	66 c7 85 1a f3 ff ff 	movw   $0xffe8,-0xce6(%rbp)
    ee45:	e8 ff 
    ee47:	c6 85 1c f3 ff ff ed 	movb   $0xed,-0xce4(%rbp)
    ee4e:	66 c7 85 1d f3 ff ff 	movw   $0x401,-0xce3(%rbp)
    ee55:	01 04 
    ee57:	c6 85 1f f3 ff ff ca 	movb   $0xca,-0xce1(%rbp)
    ee5e:	66 c7 85 20 f3 ff ff 	movw   $0x7,-0xce0(%rbp)
    ee65:	07 00 
    ee67:	c6 85 22 f3 ff ff e8 	movb   $0xe8,-0xcde(%rbp)
    ee6e:	66 c7 85 23 f3 ff ff 	movw   $0xff46,-0xcdd(%rbp)
    ee75:	46 ff 
    ee77:	c6 85 25 f3 ff ff 46 	movb   $0x46,-0xcdb(%rbp)
    ee7e:	66 c7 85 26 f3 ff ff 	movw   $0xf2b9,-0xcda(%rbp)
    ee85:	b9 f2 
    ee87:	c6 85 28 f3 ff ff b0 	movb   $0xb0,-0xcd8(%rbp)
    ee8e:	66 c7 85 29 f3 ff ff 	movw   $0x1e5,-0xcd7(%rbp)
    ee95:	e5 01 
    ee97:	c6 85 2b f3 ff ff 71 	movb   $0x71,-0xcd5(%rbp)
    ee9e:	66 c7 85 2c f3 ff ff 	movw   $0xedf2,-0xcd4(%rbp)
    eea5:	f2 ed 
    eea7:	c6 85 2e f3 ff ff fa 	movb   $0xfa,-0xcd2(%rbp)
    eeae:	66 c7 85 2f f3 ff ff 	movw   $0x9023,-0xcd1(%rbp)
    eeb5:	23 90 
    eeb7:	c6 85 31 f3 ff ff 09 	movb   $0x9,-0xccf(%rbp)
    eebe:	66 c7 85 32 f3 ff ff 	movw   $0xf2,-0xcce(%rbp)
    eec5:	f2 00 
    eec7:	c6 85 34 f3 ff ff a4 	movb   $0xa4,-0xccc(%rbp)
    eece:	66 c7 85 35 f3 ff ff 	movw   $0xfce5,-0xccb(%rbp)
    eed5:	e5 fc 
    eed7:	c6 85 37 f3 ff ff 17 	movb   $0x17,-0xcc9(%rbp)
    eede:	66 c7 85 38 f3 ff ff 	movw   $0xfab9,-0xcc8(%rbp)
    eee5:	b9 fa 
    eee7:	c6 85 3a f3 ff ff ac 	movb   $0xac,-0xcc6(%rbp)
    eeee:	66 c7 85 3b f3 ff ff 	movw   $0x746,-0xcc5(%rbp)
    eef5:	46 07 
    eef7:	c6 85 3d f3 ff ff 11 	movb   $0x11,-0xcc3(%rbp)
    eefe:	66 c7 85 3e f3 ff ff 	movw   $0x607,-0xcc2(%rbp)
    ef05:	07 06 
    ef07:	c6 85 40 f3 ff ff 1a 	movb   $0x1a,-0xcc0(%rbp)
    ef0e:	66 c7 85 41 f3 ff ff 	movw   $0xaa01,-0xcbf(%rbp)
    ef15:	01 aa 
    ef17:	c6 85 43 f3 ff ff 01 	movb   $0x1,-0xcbd(%rbp)
    ef1e:	66 c7 85 44 f3 ff ff 	movw   $0x6e8,-0xcbc(%rbp)
    ef25:	e8 06 
    ef27:	c6 85 46 f3 ff ff ff 	movb   $0xff,-0xcba(%rbp)
    ef2e:	66 c7 85 47 f3 ff ff 	movw   $0x7ff,-0xcb9(%rbp)
    ef35:	ff 07 
    ef37:	c6 85 49 f3 ff ff e5 	movb   $0xe5,-0xcb7(%rbp)
    ef3e:	66 c7 85 4a f3 ff ff 	movw   $0xfafa,-0xcb6(%rbp)
    ef45:	fa fa 
    ef47:	c6 85 4c f3 ff ff 06 	movb   $0x6,-0xcb4(%rbp)
    ef4e:	66 c7 85 4d f3 ff ff 	movw   $0xfc01,-0xcb3(%rbp)
    ef55:	01 fc 
    ef57:	c6 85 4f f3 ff ff 56 	movb   $0x56,-0xcb1(%rbp)
    ef5e:	c7 85 5c e4 ff ff 09 	movl   $0x9,-0x1ba4(%rbp)
    ef65:	00 00 00 
    ef68:	c7 85 88 e4 ff ff 01 	movl   $0x1,-0x1b78(%rbp)
    ef6f:	00 00 00 
    ef72:	66 c7 85 36 e4 ff ff 	movw   $0xfff6,-0x1bca(%rbp)
    ef79:	f6 ff 
    ef7b:	c7 85 d0 e8 ff ff 04 	movl   $0x4,-0x1730(%rbp)
    ef82:	00 00 00 
    ef85:	c7 85 d4 e8 ff ff 04 	movl   $0x4,-0x172c(%rbp)
    ef8c:	00 00 00 
    ef8f:	c7 85 d8 e8 ff ff 04 	movl   $0x4,-0x1728(%rbp)
    ef96:	00 00 00 
    ef99:	c7 85 dc e8 ff ff 04 	movl   $0x4,-0x1724(%rbp)
    efa0:	00 00 00 
    efa3:	c7 85 e0 e8 ff ff 04 	movl   $0x4,-0x1720(%rbp)
    efaa:	00 00 00 
    efad:	c7 85 e4 e8 ff ff 04 	movl   $0x4,-0x171c(%rbp)
    efb4:	00 00 00 
    efb7:	c7 85 e8 e8 ff ff 04 	movl   $0x4,-0x1718(%rbp)
    efbe:	00 00 00 
    efc1:	c7 85 ec e8 ff ff 04 	movl   $0x4,-0x1714(%rbp)
    efc8:	00 00 00 
    efcb:	c7 85 f0 e8 ff ff 04 	movl   $0x4,-0x1710(%rbp)
    efd2:	00 00 00 
    efd5:	c7 85 f4 e8 ff ff 04 	movl   $0x4,-0x170c(%rbp)
    efdc:	00 00 00 
    efdf:	48 8d 05 52 ac 00 00 	lea    0xac52(%rip),%rax        # 19c38 <g_220>
    efe6:	48 89 85 38 e7 ff ff 	mov    %rax,-0x18c8(%rbp)
    efed:	c7 85 8c e4 ff ff 00 	movl   $0x0,-0x1b74(%rbp)
    eff4:	00 00 00 
    eff7:	eb 1a                	jmp    f013 <func_56+0xb18>
    eff9:	8b 85 8c e4 ff ff    	mov    -0x1b74(%rbp),%eax
    efff:	48 98                	cltq   
    f001:	c7 84 85 80 e8 ff ff 	movl   $0x80386aee,-0x1780(%rbp,%rax,4)
    f008:	ee 6a 38 80 
    f00c:	83 85 8c e4 ff ff 01 	addl   $0x1,-0x1b74(%rbp)
    f013:	83 bd 8c e4 ff ff 02 	cmpl   $0x2,-0x1b74(%rbp)
    f01a:	7e dd                	jle    eff9 <func_56+0xafe>
    f01c:	48 8d 85 1c e4 ff ff 	lea    -0x1be4(%rbp),%rax
    f023:	48 89 05 d6 a2 00 00 	mov    %rax,0xa2d6(%rip)        # 19300 <g_132>
    f02a:	c7 85 58 e4 ff ff 00 	movl   $0x0,-0x1ba8(%rbp)
    f031:	00 00 00 
    f034:	48 8b 05 05 9d 00 00 	mov    0x9d05(%rip),%rax        # 18d40 <g_125>
    f03b:	8b 00                	mov    (%rax),%eax
    f03d:	85 c0                	test   %eax,%eax
    f03f:	0f 85 21 13 00 00    	jne    10366 <func_56+0x1e6b>
    f045:	c7 05 d9 ab 00 00 02 	movl   $0x2,0xabd9(%rip)        # 19c28 <g_99>
    f04c:	00 00 00 
    f04f:	e9 01 13 00 00       	jmpq   10355 <func_56+0x1e5a>
    f054:	48 8d 85 80 f0 ff ff 	lea    -0xf80(%rbp),%rax
    f05b:	48 83 c0 30          	add    $0x30,%rax
    f05f:	48 89 85 40 e7 ff ff 	mov    %rax,-0x18c0(%rbp)
    f066:	48 8d 05 bf ab 00 00 	lea    0xabbf(%rip),%rax        # 19c2c <g_115>
    f06d:	48 89 85 48 e7 ff ff 	mov    %rax,-0x18b8(%rbp)
    f074:	48 c7 85 58 e5 ff ff 	movq   $0x0,-0x1aa8(%rbp)
    f07b:	00 00 00 00 
    f07f:	48 8d 05 ca 8f 00 00 	lea    0x8fca(%rip),%rax        # 18050 <g_153>
    f086:	48 89 85 50 e7 ff ff 	mov    %rax,-0x18b0(%rbp)
    f08d:	48 8d 05 5c 9e 00 00 	lea    0x9e5c(%rip),%rax        # 18ef0 <g_124+0x190>
    f094:	48 89 85 58 e7 ff ff 	mov    %rax,-0x18a8(%rbp)
    f09b:	48 8d 85 60 f2 ff ff 	lea    -0xda0(%rbp),%rax
    f0a2:	48 83 c0 31          	add    $0x31,%rax
    f0a6:	48 89 85 60 e5 ff ff 	mov    %rax,-0x1aa0(%rbp)
    f0ad:	48 8d 85 60 e5 ff ff 	lea    -0x1aa0(%rbp),%rax
    f0b4:	48 89 85 60 e7 ff ff 	mov    %rax,-0x18a0(%rbp)
    f0bb:	c7 85 90 e4 ff ff 05 	movl   $0x5,-0x1b70(%rbp)
    f0c2:	00 00 00 
    f0c5:	c7 85 60 e4 ff ff 00 	movl   $0x0,-0x1ba0(%rbp)
    f0cc:	00 00 00 
    f0cf:	c7 85 64 e4 ff ff bd 	movl   $0xff72cbd,-0x1b9c(%rbp)
    f0d6:	2c f7 0f 
    f0d9:	48 b8 c9 46 d3 ca 2f 	movabs $0xee7c522fcad346c9,%rax
    f0e0:	52 7c ee 
    f0e3:	48 89 85 68 e7 ff ff 	mov    %rax,-0x1898(%rbp)
    f0ea:	c7 85 94 e4 ff ff 00 	movl   $0x0,-0x1b6c(%rbp)
    f0f1:	00 00 00 
    f0f4:	eb 1e                	jmp    f114 <func_56+0xc19>
    f0f6:	8b 85 94 e4 ff ff    	mov    -0x1b6c(%rbp),%eax
    f0fc:	48 98                	cltq   
    f0fe:	48 8d 15 37 8f 00 00 	lea    0x8f37(%rip),%rdx        # 1803c <g_93>
    f105:	48 89 94 c5 80 f0 ff 	mov    %rdx,-0xf80(%rbp,%rax,8)
    f10c:	ff 
    f10d:	83 85 94 e4 ff ff 01 	addl   $0x1,-0x1b6c(%rbp)
    f114:	83 bd 94 e4 ff ff 09 	cmpl   $0x9,-0x1b6c(%rbp)
    f11b:	7e d9                	jle    f0f6 <func_56+0xbfb>
    f11d:	48 83 bd 10 e4 ff ff 	cmpq   $0x0,-0x1bf0(%rbp)
    f124:	00 
    f125:	0f 84 da 00 00 00    	je     f205 <func_56+0xd0a>
    f12b:	8b 85 1c e4 ff ff    	mov    -0x1be4(%rbp),%eax
    f131:	89 c3                	mov    %eax,%ebx
    f133:	48 8b 95 b0 f0 ff ff 	mov    -0xf50(%rbp),%rdx
    f13a:	48 8b 85 40 e7 ff ff 	mov    -0x18c0(%rbp),%rax
    f141:	48 89 10             	mov    %rdx,(%rax)
    f144:	48 8b 85 40 e7 ff ff 	mov    -0x18c0(%rbp),%rax
    f14b:	48 8b 10             	mov    (%rax),%rdx
    f14e:	48 8b 85 50 e5 ff ff 	mov    -0x1ab0(%rbp),%rax
    f155:	48 39 c2             	cmp    %rax,%rdx
    f158:	74 07                	je     f161 <func_56+0xc66>
    f15a:	ba b8 45 2d 5c       	mov    $0x5c2d45b8,%edx
    f15f:	eb 05                	jmp    f166 <func_56+0xc6b>
    f161:	ba b9 45 2d 5c       	mov    $0x5c2d45b9,%edx
    f166:	0f b7 85 3a e4 ff ff 	movzwl -0x1bc6(%rbp),%eax
    f16d:	89 d6                	mov    %edx,%esi
    f16f:	89 c7                	mov    %eax,%edi
    f171:	e8 48 5c ff ff       	callq  4dbe <safe_lshift_func_uint16_t_u_s>
    f176:	89 c2                	mov    %eax,%edx
    f178:	48 8b 85 48 e7 ff ff 	mov    -0x18b8(%rbp),%rax
    f17f:	88 10                	mov    %dl,(%rax)
    f181:	48 8b 85 48 e7 ff ff 	mov    -0x18b8(%rbp),%rax
    f188:	0f b6 00             	movzbl (%rax),%eax
    f18b:	0f b6 c0             	movzbl %al,%eax
    f18e:	be 04 00 00 00       	mov    $0x4,%esi
    f193:	89 c7                	mov    %eax,%edi
    f195:	e8 b2 5a ff ff       	callq  4c4c <safe_lshift_func_uint8_t_u_u>
    f19a:	0f b6 c0             	movzbl %al,%eax
    f19d:	89 c6                	mov    %eax,%esi
    f19f:	bf 03 00 00 00       	mov    $0x3,%edi
    f1a4:	e8 05 5a ff ff       	callq  4bae <safe_mod_func_uint8_t_u_u>
    f1a9:	0f b6 d0             	movzbl %al,%edx
    f1ac:	48 8b 05 7d 8e 00 00 	mov    0x8e7d(%rip),%rax        # 18030 <g_15>
    f1b3:	48 39 c2             	cmp    %rax,%rdx
    f1b6:	0f 97 c0             	seta   %al
    f1b9:	0f b6 c0             	movzbl %al,%eax
    f1bc:	be 00 00 00 00       	mov    $0x0,%esi
    f1c1:	89 c7                	mov    %eax,%edi
    f1c3:	e8 75 5b ff ff       	callq  4d3d <safe_mul_func_uint16_t_u_u>
    f1c8:	0f b6 c0             	movzbl %al,%eax
    f1cb:	89 de                	mov    %ebx,%esi
    f1cd:	89 c7                	mov    %eax,%edi
    f1cf:	e8 ea 5a ff ff       	callq  4cbe <safe_rshift_func_uint8_t_u_u>
    f1d4:	0f b6 d0             	movzbl %al,%edx
    f1d7:	48 8b 05 22 a1 00 00 	mov    0xa122(%rip),%rax        # 19300 <g_132>
    f1de:	8b 00                	mov    (%rax),%eax
    f1e0:	09 d0                	or     %edx,%eax
    f1e2:	48 63 d0             	movslq %eax,%rdx
    f1e5:	48 8b 85 50 e7 ff ff 	mov    -0x18b0(%rbp),%rax
    f1ec:	48 89 10             	mov    %rdx,(%rax)
    f1ef:	48 8b 85 50 e7 ff ff 	mov    -0x18b0(%rbp),%rax
    f1f6:	48 8b 00             	mov    (%rax),%rax
    f1f9:	48 85 c0             	test   %rax,%rax
    f1fc:	74 07                	je     f205 <func_56+0xd0a>
    f1fe:	b8 01 00 00 00       	mov    $0x1,%eax
    f203:	eb 05                	jmp    f20a <func_56+0xd0f>
    f205:	b8 00 00 00 00       	mov    $0x0,%eax
    f20a:	0f b7 c0             	movzwl %ax,%eax
    f20d:	89 c6                	mov    %eax,%esi
    f20f:	bf fb ff 00 00       	mov    $0xfffb,%edi
    f214:	e8 24 5b ff ff       	callq  4d3d <safe_mul_func_uint16_t_u_u>
    f219:	66 85 c0             	test   %ax,%ax
    f21c:	0f 84 59 06 00 00    	je     f87b <func_56+0x1380>
    f222:	66 c7 85 48 e4 ff ff 	movw   $0x4552,-0x1bb8(%rbp)
    f229:	52 45 
    f22b:	c7 85 48 e5 ff ff 05 	movl   $0x5,-0x1ab8(%rbp)
    f232:	00 00 00 
    f235:	48 8d 05 04 9b 00 00 	lea    0x9b04(%rip),%rax        # 18d40 <g_125>
    f23c:	48 89 85 c0 f7 ff ff 	mov    %rax,-0x840(%rbp)
    f243:	48 c7 85 c8 f7 ff ff 	movq   $0x0,-0x838(%rbp)
    f24a:	00 00 00 00 
    f24e:	48 8d 05 eb 9a 00 00 	lea    0x9aeb(%rip),%rax        # 18d40 <g_125>
    f255:	48 89 85 d0 f7 ff ff 	mov    %rax,-0x830(%rbp)
    f25c:	48 8d 05 dd 9a 00 00 	lea    0x9add(%rip),%rax        # 18d40 <g_125>
    f263:	48 89 85 d8 f7 ff ff 	mov    %rax,-0x828(%rbp)
    f26a:	48 c7 85 e0 f7 ff ff 	movq   $0x0,-0x820(%rbp)
    f271:	00 00 00 00 
    f275:	48 8d 05 c4 9a 00 00 	lea    0x9ac4(%rip),%rax        # 18d40 <g_125>
    f27c:	48 89 85 e8 f7 ff ff 	mov    %rax,-0x818(%rbp)
    f283:	48 8d 05 b6 9a 00 00 	lea    0x9ab6(%rip),%rax        # 18d40 <g_125>
    f28a:	48 89 85 f0 f7 ff ff 	mov    %rax,-0x810(%rbp)
    f291:	48 c7 85 f8 f7 ff ff 	movq   $0x0,-0x808(%rbp)
    f298:	00 00 00 00 
    f29c:	48 8d 05 9d 9a 00 00 	lea    0x9a9d(%rip),%rax        # 18d40 <g_125>
    f2a3:	48 89 85 00 f8 ff ff 	mov    %rax,-0x800(%rbp)
    f2aa:	48 8d 05 8f 9a 00 00 	lea    0x9a8f(%rip),%rax        # 18d40 <g_125>
    f2b1:	48 89 85 08 f8 ff ff 	mov    %rax,-0x7f8(%rbp)
    f2b8:	48 8d 85 c0 f7 ff ff 	lea    -0x840(%rbp),%rax
    f2bf:	48 83 c0 08          	add    $0x8,%rax
    f2c3:	48 89 85 78 e7 ff ff 	mov    %rax,-0x1888(%rbp)
    f2ca:	0f bf 9d 48 e4 ff ff 	movswl -0x1bb8(%rbp),%ebx
    f2d1:	48 8b 05 58 8d 00 00 	mov    0x8d58(%rip),%rax        # 18030 <g_15>
    f2d8:	44 0f be e0          	movsbl %al,%r12d
    f2dc:	4c 0f bf ad 48 e4 ff 	movswq -0x1bb8(%rbp),%r13
    f2e3:	ff 
    f2e4:	8b 05 4e 8d 00 00    	mov    0x8d4e(%rip),%eax        # 18038 <g_24>
    f2ea:	0f b6 c0             	movzbl %al,%eax
    f2ed:	be 06 00 00 00       	mov    $0x6,%esi
    f2f2:	89 c7                	mov    %eax,%edi
    f2f4:	e8 53 59 ff ff       	callq  4c4c <safe_lshift_func_uint8_t_u_u>
    f2f9:	84 c0                	test   %al,%al
    f2fb:	0f 94 c0             	sete   %al
    f2fe:	44 0f b6 f0          	movzbl %al,%r14d
    f302:	8b 05 40 8d 00 00    	mov    0x8d40(%rip),%eax        # 18048 <g_119>
    f308:	41 89 c7             	mov    %eax,%r15d
    f30b:	48 8b 85 10 e4 ff ff 	mov    -0x1bf0(%rbp),%rax
    f312:	89 c6                	mov    %eax,%esi
    f314:	bf 00 00 00 00       	mov    $0x0,%edi
    f319:	e8 b2 5b ff ff       	callq  4ed0 <safe_sub_func_uint32_t_u_u>
    f31e:	be 01 00 00 00       	mov    $0x1,%esi
    f323:	bf 07 00 00 00       	mov    $0x7,%edi
    f328:	e8 91 5a ff ff       	callq  4dbe <safe_lshift_func_uint16_t_u_s>
    f32d:	0f b7 d0             	movzwl %ax,%edx
    f330:	b8 fb f5 18 e0       	mov    $0xe018f5fb,%eax
    f335:	48 39 85 10 e4 ff ff 	cmp    %rax,-0x1bf0(%rbp)
    f33c:	0f 95 c0             	setne  %al
    f33f:	0f b6 c0             	movzbl %al,%eax
    f342:	39 c2                	cmp    %eax,%edx
    f344:	0f 9f c0             	setg   %al
    f347:	0f b6 c0             	movzbl %al,%eax
    f34a:	48 63 d0             	movslq %eax,%rdx
    f34d:	48 8b 05 dc a8 00 00 	mov    0xa8dc(%rip),%rax        # 19c30 <g_174>
    f354:	48 31 d0             	xor    %rdx,%rax
    f357:	48 89 05 d2 a8 00 00 	mov    %rax,0xa8d2(%rip)        # 19c30 <g_174>
    f35e:	48 8b 05 cb a8 00 00 	mov    0xa8cb(%rip),%rax        # 19c30 <g_174>
    f365:	48 85 c0             	test   %rax,%rax
    f368:	0f 95 c0             	setne  %al
    f36b:	0f b6 c0             	movzbl %al,%eax
    f36e:	4c 89 fe             	mov    %r15,%rsi
    f371:	48 89 c7             	mov    %rax,%rdi
    f374:	e8 3b 56 ff ff       	callq  49b4 <safe_mod_func_int64_t_s_s>
    f379:	49 39 c6             	cmp    %rax,%r14
    f37c:	7f 07                	jg     f385 <func_56+0xe8a>
    f37e:	b8 51 da 00 00       	mov    $0xda51,%eax
    f383:	eb 05                	jmp    f38a <func_56+0xe8f>
    f385:	b8 50 da 00 00       	mov    $0xda50,%eax
    f38a:	8b 95 84 ea ff ff    	mov    -0x157c(%rbp),%edx
    f390:	89 d2                	mov    %edx,%edx
    f392:	48 31 c2             	xor    %rax,%rdx
    f395:	8b 85 1c e4 ff ff    	mov    -0x1be4(%rbp),%eax
    f39b:	48 98                	cltq   
    f39d:	48 09 d0             	or     %rdx,%rax
    f3a0:	48 89 c2             	mov    %rax,%rdx
    f3a3:	48 8b 85 50 e7 ff ff 	mov    -0x18b0(%rbp),%rax
    f3aa:	48 89 10             	mov    %rdx,(%rax)
    f3ad:	48 8b 85 50 e7 ff ff 	mov    -0x18b0(%rbp),%rax
    f3b4:	48 8b 00             	mov    (%rax),%rax
    f3b7:	4c 89 ee             	mov    %r13,%rsi
    f3ba:	48 89 c7             	mov    %rax,%rdi
    f3bd:	e8 6c 5c ff ff       	callq  502e <safe_add_func_uint64_t_u_u>
    f3c2:	0f be c0             	movsbl %al,%eax
    f3c5:	44 89 e6             	mov    %r12d,%esi
    f3c8:	89 c7                	mov    %eax,%edi
    f3ca:	e8 23 4e ff ff       	callq  41f2 <safe_sub_func_int8_t_s_s>
    f3cf:	8b 05 6b 8c 00 00    	mov    0x8c6b(%rip),%eax        # 18040 <g_94>
    f3d5:	85 c0                	test   %eax,%eax
    f3d7:	0f 94 c0             	sete   %al
    f3da:	0f b6 c0             	movzbl %al,%eax
    f3dd:	89 de                	mov    %ebx,%esi
    f3df:	89 c7                	mov    %eax,%edi
    f3e1:	e8 86 4f ff ff       	callq  436c <safe_rshift_func_int8_t_s_u>
    f3e6:	0f b6 c0             	movzbl %al,%eax
    f3e9:	89 c6                	mov    %eax,%esi
    f3eb:	bf 05 00 00 00       	mov    $0x5,%edi
    f3f0:	e8 83 57 ff ff       	callq  4b78 <safe_sub_func_uint8_t_u_u>
    f3f5:	0f b6 c0             	movzbl %al,%eax
    f3f8:	48 8b 95 10 e4 ff ff 	mov    -0x1bf0(%rbp),%rdx
    f3ff:	89 c6                	mov    %eax,%esi
    f401:	89 d7                	mov    %edx,%edi
    f403:	e8 f5 5a ff ff       	callq  4efd <safe_mod_func_uint32_t_u_u>
    f408:	89 c2                	mov    %eax,%edx
    f40a:	48 8b 05 1f 8c 00 00 	mov    0x8c1f(%rip),%rax        # 18030 <g_15>
    f411:	48 39 c2             	cmp    %rax,%rdx
    f414:	0f 84 e1 00 00 00    	je     f4fb <func_56+0x1000>
    f41a:	66 83 bd 48 e4 ff ff 	cmpw   $0x0,-0x1bb8(%rbp)
    f421:	00 
    f422:	0f 84 d3 00 00 00    	je     f4fb <func_56+0x1000>
    f428:	0f b6 05 fd a7 00 00 	movzbl 0xa7fd(%rip),%eax        # 19c2c <g_115>
    f42f:	0f b6 d0             	movzbl %al,%edx
    f432:	48 8b 85 50 e7 ff ff 	mov    -0x18b0(%rbp),%rax
    f439:	48 89 10             	mov    %rdx,(%rax)
    f43c:	8b 05 06 8c 00 00    	mov    0x8c06(%rip),%eax        # 18048 <g_119>
    f442:	0f be c0             	movsbl %al,%eax
    f445:	be ff ff ff ff       	mov    $0xffffffff,%esi
    f44a:	89 c7                	mov    %eax,%edi
    f44c:	e8 83 4d ff ff       	callq  41d4 <safe_add_func_int8_t_s_s>
    f451:	66 98                	cbtw   
    f453:	0f b7 c0             	movzwl %ax,%eax
    f456:	be 03 00 00 00       	mov    $0x3,%esi
    f45b:	89 c7                	mov    %eax,%edi
    f45d:	e8 a4 59 ff ff       	callq  4e06 <safe_lshift_func_uint16_t_u_u>
    f462:	89 c3                	mov    %eax,%ebx
    f464:	48 8b 85 10 e4 ff ff 	mov    -0x1bf0(%rbp),%rax
    f46b:	41 89 c4             	mov    %eax,%r12d
    f46e:	48 8b 85 10 e4 ff ff 	mov    -0x1bf0(%rbp),%rax
    f475:	41 89 c5             	mov    %eax,%r13d
    f478:	8b 85 1c e4 ff ff    	mov    -0x1be4(%rbp),%eax
    f47e:	3d ba 55 b3 2b       	cmp    $0x2bb355ba,%eax
    f483:	0f 95 c0             	setne  %al
    f486:	0f b6 d0             	movzbl %al,%edx
    f489:	48 8b 85 10 e4 ff ff 	mov    -0x1bf0(%rbp),%rax
    f490:	0f be c0             	movsbl %al,%eax
    f493:	89 d6                	mov    %edx,%esi
    f495:	89 c7                	mov    %eax,%edi
    f497:	e8 76 4d ff ff       	callq  4212 <safe_mul_func_int8_t_s_s>
    f49c:	3c 08                	cmp    $0x8,%al
    f49e:	0f 97 c0             	seta   %al
    f4a1:	0f b6 c0             	movzbl %al,%eax
    f4a4:	be 1c bd ee 36       	mov    $0x36eebd1c,%esi
    f4a9:	89 c7                	mov    %eax,%edi
    f4ab:	e8 06 51 ff ff       	callq  45b6 <safe_add_func_int32_t_s_s>
    f4b0:	98                   	cwtl   
    f4b1:	44 89 ee             	mov    %r13d,%esi
    f4b4:	89 c7                	mov    %eax,%edi
    f4b6:	e8 6f 50 ff ff       	callq  452a <safe_rshift_func_int16_t_s_s>
    f4bb:	0f bf 95 48 e4 ff ff 	movswl -0x1bb8(%rbp),%edx
    f4c2:	8b 85 1c e4 ff ff    	mov    -0x1be4(%rbp),%eax
    f4c8:	39 c2                	cmp    %eax,%edx
    f4ca:	0f 9f c0             	setg   %al
    f4cd:	0f b6 c0             	movzbl %al,%eax
    f4d0:	44 89 e6             	mov    %r12d,%esi
    f4d3:	89 c7                	mov    %eax,%edi
    f4d5:	e8 72 57 ff ff       	callq  4c4c <safe_lshift_func_uint8_t_u_u>
    f4da:	0f b6 c0             	movzbl %al,%eax
    f4dd:	66 39 c3             	cmp    %ax,%bx
    f4e0:	74 0a                	je     f4ec <func_56+0xff1>
    f4e2:	48 8b 05 47 8b 00 00 	mov    0x8b47(%rip),%rax        # 18030 <g_15>
    f4e9:	48 85 c0             	test   %rax,%rax
    f4ec:	c7 85 48 e5 ff ff 01 	movl   $0x1,-0x1ab8(%rbp)
    f4f3:	00 00 00 
    f4f6:	e9 0e 02 00 00       	jmpq   f709 <func_56+0x120e>
    f4fb:	66 c7 85 38 e4 ff ff 	movw   $0x6,-0x1bc8(%rbp)
    f502:	06 00 
    f504:	c7 85 c0 ee ff ff 01 	movl   $0x1,-0x1140(%rbp)
    f50b:	00 00 00 
    f50e:	c7 85 c4 ee ff ff 01 	movl   $0x1,-0x113c(%rbp)
    f515:	00 00 00 
    f518:	c7 85 c8 ee ff ff 01 	movl   $0x1,-0x1138(%rbp)
    f51f:	00 00 00 
    f522:	c7 85 cc ee ff ff 01 	movl   $0x1,-0x1134(%rbp)
    f529:	00 00 00 
    f52c:	c7 85 d0 ee ff ff 01 	movl   $0x1,-0x1130(%rbp)
    f533:	00 00 00 
    f536:	c7 85 d4 ee ff ff 01 	movl   $0x1,-0x112c(%rbp)
    f53d:	00 00 00 
    f540:	c7 85 d8 ee ff ff 01 	movl   $0x1,-0x1128(%rbp)
    f547:	00 00 00 
    f54a:	c7 85 dc ee ff ff 01 	movl   $0x1,-0x1124(%rbp)
    f551:	00 00 00 
    f554:	c7 85 e0 ee ff ff 01 	movl   $0x1,-0x1120(%rbp)
    f55b:	00 00 00 
    f55e:	c7 85 e4 ee ff ff 01 	movl   $0x1,-0x111c(%rbp)
    f565:	00 00 00 
    f568:	0f bf 95 48 e4 ff ff 	movswl -0x1bb8(%rbp),%edx
    f56f:	48 8b 85 60 e7 ff ff 	mov    -0x18a0(%rbp),%rax
    f576:	48 89 85 80 e5 ff ff 	mov    %rax,-0x1a80(%rbp)
    f57d:	48 8d 85 50 e5 ff ff 	lea    -0x1ab0(%rbp),%rax
    f584:	48 39 85 80 e5 ff ff 	cmp    %rax,-0x1a80(%rbp)
    f58b:	0f 95 c0             	setne  %al
    f58e:	0f b6 c0             	movzbl %al,%eax
    f591:	48 39 85 10 e4 ff ff 	cmp    %rax,-0x1bf0(%rbp)
    f598:	0f 9f c0             	setg   %al
    f59b:	0f b6 c0             	movzbl %al,%eax
    f59e:	39 c2                	cmp    %eax,%edx
    f5a0:	0f 94 c0             	sete   %al
    f5a3:	0f b6 c0             	movzbl %al,%eax
    f5a6:	be 91 ed 40 d1       	mov    $0xd140ed91,%esi
    f5ab:	89 c7                	mov    %eax,%edi
    f5ad:	e8 1a 51 ff ff       	callq  46cc <safe_mod_func_int32_t_s_s>
    f5b2:	89 c6                	mov    %eax,%esi
    f5b4:	0f b7 95 38 e4 ff ff 	movzwl -0x1bc8(%rbp),%edx
    f5bb:	48 8b 85 40 e7 ff ff 	mov    -0x18c0(%rbp),%rax
    f5c2:	48 8b 00             	mov    (%rax),%rax
    f5c5:	88 10                	mov    %dl,(%rax)
    f5c7:	0f b6 00             	movzbl (%rax),%eax
    f5ca:	0f be d0             	movsbl %al,%edx
    f5cd:	0f b6 85 91 f2 ff ff 	movzbl -0xd6f(%rbp),%eax
    f5d4:	48 0f be c8          	movsbq %al,%rcx
    f5d8:	48 8b 05 51 a6 00 00 	mov    0xa651(%rip),%rax        # 19c30 <g_174>
    f5df:	48 39 c1             	cmp    %rax,%rcx
    f5e2:	0f 92 c0             	setb   %al
    f5e5:	0f b6 c8             	movzbl %al,%ecx
    f5e8:	8b 05 52 8a 00 00    	mov    0x8a52(%rip),%eax        # 18040 <g_94>
    f5ee:	39 c1                	cmp    %eax,%ecx
    f5f0:	0f 97 c0             	seta   %al
    f5f3:	0f b6 c0             	movzbl %al,%eax
    f5f6:	09 d0                	or     %edx,%eax
    f5f8:	89 c7                	mov    %eax,%edi
    f5fa:	e8 26 59 ff ff       	callq  4f25 <safe_div_func_uint32_t_u_u>
    f5ff:	0f b7 95 38 e4 ff ff 	movzwl -0x1bc8(%rbp),%edx
    f606:	0f bf d2             	movswl %dx,%edx
    f609:	39 d0                	cmp    %edx,%eax
    f60b:	0f 95 c0             	setne  %al
    f60e:	0f b6 d0             	movzbl %al,%edx
    f611:	8b 05 31 8a 00 00    	mov    0x8a31(%rip),%eax        # 18048 <g_119>
    f617:	89 c1                	mov    %eax,%ecx
    f619:	0f b6 05 24 8a 00 00 	movzbl 0x8a24(%rip),%eax        # 18044 <g_96>
    f620:	21 c8                	and    %ecx,%eax
    f622:	88 05 1c 8a 00 00    	mov    %al,0x8a1c(%rip)        # 18044 <g_96>
    f628:	0f b6 05 15 8a 00 00 	movzbl 0x8a15(%rip),%eax        # 18044 <g_96>
    f62f:	0f be c8             	movsbl %al,%ecx
    f632:	0f b6 05 f3 a5 00 00 	movzbl 0xa5f3(%rip),%eax        # 19c2c <g_115>
    f639:	0f b6 c0             	movzbl %al,%eax
    f63c:	39 c1                	cmp    %eax,%ecx
    f63e:	0f 94 c0             	sete   %al
    f641:	0f b6 c0             	movzbl %al,%eax
    f644:	89 d6                	mov    %edx,%esi
    f646:	89 c7                	mov    %eax,%edi
    f648:	e8 dd 4e ff ff       	callq  452a <safe_rshift_func_int16_t_s_s>
    f64d:	66 39 85 48 e4 ff ff 	cmp    %ax,-0x1bb8(%rbp)
    f654:	0f 9f c0             	setg   %al
    f657:	0f b6 d0             	movzbl %al,%edx
    f65a:	48 8b 85 50 e7 ff ff 	mov    -0x18b0(%rbp),%rax
    f661:	48 89 10             	mov    %rdx,(%rax)
    f664:	48 8b 85 50 e7 ff ff 	mov    -0x18b0(%rbp),%rax
    f66b:	48 8b 10             	mov    (%rax),%rdx
    f66e:	8b 05 c4 89 00 00    	mov    0x89c4(%rip),%eax        # 18038 <g_24>
    f674:	48 98                	cltq   
    f676:	48 39 c2             	cmp    %rax,%rdx
    f679:	0f 96 c0             	setbe  %al
    f67c:	0f b6 d0             	movzbl %al,%edx
    f67f:	8b 05 bb 89 00 00    	mov    0x89bb(%rip),%eax        # 18040 <g_94>
    f685:	39 c2                	cmp    %eax,%edx
    f687:	76 08                	jbe    f691 <func_56+0x1196>
    f689:	8b 85 1c e4 ff ff    	mov    -0x1be4(%rbp),%eax
    f68f:	85 c0                	test   %eax,%eax
    f691:	48 c7 85 80 e7 ff ff 	movq   $0x0,-0x1880(%rbp)
    f698:	00 00 00 00 
    f69c:	48 8d 85 58 e4 ff ff 	lea    -0x1ba8(%rbp),%rax
    f6a3:	48 89 85 88 e7 ff ff 	mov    %rax,-0x1878(%rbp)
    f6aa:	48 8d 85 48 e5 ff ff 	lea    -0x1ab8(%rbp),%rax
    f6b1:	48 89 85 90 e7 ff ff 	mov    %rax,-0x1870(%rbp)
    f6b8:	48 8b 05 81 96 00 00 	mov    0x9681(%rip),%rax        # 18d40 <g_125>
    f6bf:	8b 10                	mov    (%rax),%edx
    f6c1:	48 8b 85 88 e7 ff ff 	mov    -0x1878(%rbp),%rax
    f6c8:	89 10                	mov    %edx,(%rax)
    f6ca:	48 8b 85 88 e7 ff ff 	mov    -0x1878(%rbp),%rax
    f6d1:	8b 10                	mov    (%rax),%edx
    f6d3:	8b 85 1c e4 ff ff    	mov    -0x1be4(%rbp),%eax
    f6d9:	89 c1                	mov    %eax,%ecx
    f6db:	8b 05 5f 89 00 00    	mov    0x895f(%rip),%eax        # 18040 <g_94>
    f6e1:	39 c1                	cmp    %eax,%ecx
    f6e3:	0f 94 c0             	sete   %al
    f6e6:	0f b6 c0             	movzbl %al,%eax
    f6e9:	39 c2                	cmp    %eax,%edx
    f6eb:	0f 9f c0             	setg   %al
    f6ee:	0f b6 c0             	movzbl %al,%eax
    f6f1:	f7 d0                	not    %eax
    f6f3:	89 c2                	mov    %eax,%edx
    f6f5:	48 8b 85 90 e7 ff ff 	mov    -0x1870(%rbp),%rax
    f6fc:	8b 00                	mov    (%rax),%eax
    f6fe:	09 c2                	or     %eax,%edx
    f700:	48 8b 85 90 e7 ff ff 	mov    -0x1870(%rbp),%rax
    f707:	89 10                	mov    %edx,(%rax)
    f709:	c6 05 2c 89 00 00 00 	movb   $0x0,0x892c(%rip)        # 1803c <g_93>
    f710:	90                   	nop
    f711:	0f b6 05 24 89 00 00 	movzbl 0x8924(%rip),%eax        # 1803c <g_93>
    f718:	3c 02                	cmp    $0x2,%al
    f71a:	0f 8f 32 01 00 00    	jg     f852 <func_56+0x1357>
    f720:	66 c7 85 4a e4 ff ff 	movw   $0x3,-0x1bb6(%rbp)
    f727:	03 00 
    f729:	48 8d 85 50 e4 ff ff 	lea    -0x1bb0(%rbp),%rax
    f730:	48 89 85 c0 ee ff ff 	mov    %rax,-0x1140(%rbp)
    f737:	48 8d 85 50 e4 ff ff 	lea    -0x1bb0(%rbp),%rax
    f73e:	48 89 85 c8 ee ff ff 	mov    %rax,-0x1138(%rbp)
    f745:	48 8d 85 50 e4 ff ff 	lea    -0x1bb0(%rbp),%rax
    f74c:	48 89 85 d0 ee ff ff 	mov    %rax,-0x1130(%rbp)
    f753:	48 8d 85 50 e4 ff ff 	lea    -0x1bb0(%rbp),%rax
    f75a:	48 89 85 d8 ee ff ff 	mov    %rax,-0x1128(%rbp)
    f761:	48 8d 85 50 e4 ff ff 	lea    -0x1bb0(%rbp),%rax
    f768:	48 89 85 e0 ee ff ff 	mov    %rax,-0x1120(%rbp)
    f76f:	48 8d 85 50 e4 ff ff 	lea    -0x1bb0(%rbp),%rax
    f776:	48 89 85 e8 ee ff ff 	mov    %rax,-0x1118(%rbp)
    f77d:	48 8d 85 50 e4 ff ff 	lea    -0x1bb0(%rbp),%rax
    f784:	48 89 85 f0 ee ff ff 	mov    %rax,-0x1110(%rbp)
    f78b:	48 8d 85 50 e4 ff ff 	lea    -0x1bb0(%rbp),%rax
    f792:	48 89 85 f8 ee ff ff 	mov    %rax,-0x1108(%rbp)
    f799:	48 8d 85 50 e4 ff ff 	lea    -0x1bb0(%rbp),%rax
    f7a0:	48 89 85 00 ef ff ff 	mov    %rax,-0x1100(%rbp)
    f7a7:	48 8b 85 10 e4 ff ff 	mov    -0x1bf0(%rbp),%rax
    f7ae:	41 89 c4             	mov    %eax,%r12d
    f7b1:	48 8d 05 9e 48 00 00 	lea    0x489e(%rip),%rax        # 14056 <g_268>
    f7b8:	48 39 85 88 e5 ff ff 	cmp    %rax,-0x1a78(%rbp)
    f7bf:	0f 95 c0             	setne  %al
    f7c2:	0f b6 d8             	movzbl %al,%ebx
    f7c5:	8b 05 75 88 00 00    	mov    0x8875(%rip),%eax        # 18040 <g_94>
    f7cb:	0f b6 c0             	movzbl %al,%eax
    f7ce:	be 02 00 00 00       	mov    $0x2,%esi
    f7d3:	89 c7                	mov    %eax,%edi
    f7d5:	e8 e4 54 ff ff       	callq  4cbe <safe_rshift_func_uint8_t_u_u>
    f7da:	0f b6 c0             	movzbl %al,%eax
    f7dd:	39 c3                	cmp    %eax,%ebx
    f7df:	0f 9d c0             	setge  %al
    f7e2:	0f b6 c0             	movzbl %al,%eax
    f7e5:	66 89 85 4a e4 ff ff 	mov    %ax,-0x1bb6(%rbp)
    f7ec:	0f bf 85 4a e4 ff ff 	movswl -0x1bb6(%rbp),%eax
    f7f3:	44 89 e6             	mov    %r12d,%esi
    f7f6:	89 c7                	mov    %eax,%edi
    f7f8:	e8 b9 4d ff ff       	callq  45b6 <safe_add_func_int32_t_s_s>
    f7fd:	85 c0                	test   %eax,%eax
    f7ff:	66 83 bd 4a e4 ff ff 	cmpw   $0x0,-0x1bb6(%rbp)
    f806:	00 
    f807:	74 07                	je     f810 <func_56+0x1315>
    f809:	b8 01 00 00 00       	mov    $0x1,%eax
    f80e:	eb 05                	jmp    f815 <func_56+0x131a>
    f810:	b8 00 00 00 00       	mov    $0x0,%eax
    f815:	f7 d0                	not    %eax
    f817:	98                   	cwtl   
    f818:	be b3 ad ff ff       	mov    $0xffffadb3,%esi
    f81d:	89 c7                	mov    %eax,%edi
    f81f:	e8 31 4c ff ff       	callq  4455 <safe_div_func_int16_t_s_s>
    f824:	48 8d 85 a0 f4 ff ff 	lea    -0xb60(%rbp),%rax
    f82b:	48 05 4c 01 00 00    	add    $0x14c,%rax
    f831:	48 89 85 98 e7 ff ff 	mov    %rax,-0x1868(%rbp)
    f838:	48 8b 85 d8 ee ff ff 	mov    -0x1128(%rbp),%rax
    f83f:	48 89 85 98 e7 ff ff 	mov    %rax,-0x1868(%rbp)
    f846:	48 8b 85 10 e4 ff ff 	mov    -0x1bf0(%rbp),%rax
    f84d:	e9 7d 31 00 00       	jmpq   129cf <func_56+0x44d4>
    f852:	48 c7 05 d3 a3 00 00 	movq   $0x0,0xa3d3(%rip)        # 19c30 <g_174>
    f859:	00 00 00 00 
    f85d:	90                   	nop
    f85e:	48 8b 05 cb a3 00 00 	mov    0xa3cb(%rip),%rax        # 19c30 <g_174>
    f865:	48 83 f8 02          	cmp    $0x2,%rax
    f869:	0f 85 88 03 00 00    	jne    fbf7 <func_56+0x16fc>
    f86f:	48 8b 85 10 e4 ff ff 	mov    -0x1bf0(%rbp),%rax
    f876:	e9 54 31 00 00       	jmpq   129cf <func_56+0x44d4>
    f87b:	48 8d 05 f6 87 00 00 	lea    0x87f6(%rip),%rax        # 18078 <g_211+0x18>
    f882:	48 89 85 70 e7 ff ff 	mov    %rax,-0x1890(%rbp)
    f889:	48 8d 85 64 e4 ff ff 	lea    -0x1b9c(%rbp),%rax
    f890:	48 89 85 c0 f7 ff ff 	mov    %rax,-0x840(%rbp)
    f897:	48 8d 85 80 e8 ff ff 	lea    -0x1780(%rbp),%rax
    f89e:	48 83 c0 04          	add    $0x4,%rax
    f8a2:	48 89 85 c8 f7 ff ff 	mov    %rax,-0x838(%rbp)
    f8a9:	48 8d 85 80 e8 ff ff 	lea    -0x1780(%rbp),%rax
    f8b0:	48 89 85 d0 f7 ff ff 	mov    %rax,-0x830(%rbp)
    f8b7:	48 c7 85 d8 f7 ff ff 	movq   $0x0,-0x828(%rbp)
    f8be:	00 00 00 00 
    f8c2:	48 8d 85 a0 f4 ff ff 	lea    -0xb60(%rbp),%rax
    f8c9:	48 05 4c 01 00 00    	add    $0x14c,%rax
    f8cf:	48 89 85 e0 f7 ff ff 	mov    %rax,-0x820(%rbp)
    f8d6:	48 8d 85 a0 f4 ff ff 	lea    -0xb60(%rbp),%rax
    f8dd:	48 05 4c 01 00 00    	add    $0x14c,%rax
    f8e3:	48 89 85 e8 f7 ff ff 	mov    %rax,-0x818(%rbp)
    f8ea:	48 8d 85 64 e4 ff ff 	lea    -0x1b9c(%rbp),%rax
    f8f1:	48 89 85 f0 f7 ff ff 	mov    %rax,-0x810(%rbp)
    f8f8:	48 8d 85 64 e4 ff ff 	lea    -0x1b9c(%rbp),%rax
    f8ff:	48 89 85 f8 f7 ff ff 	mov    %rax,-0x808(%rbp)
    f906:	48 8d 85 a0 f4 ff ff 	lea    -0xb60(%rbp),%rax
    f90d:	48 05 4c 01 00 00    	add    $0x14c,%rax
    f913:	48 89 85 00 f8 ff ff 	mov    %rax,-0x800(%rbp)
    f91a:	48 8d 85 a0 f4 ff ff 	lea    -0xb60(%rbp),%rax
    f921:	48 05 4c 01 00 00    	add    $0x14c,%rax
    f927:	48 89 85 08 f8 ff ff 	mov    %rax,-0x7f8(%rbp)
    f92e:	48 c7 85 10 f8 ff ff 	movq   $0x0,-0x7f0(%rbp)
    f935:	00 00 00 00 
    f939:	48 8d 85 80 e8 ff ff 	lea    -0x1780(%rbp),%rax
    f940:	48 89 85 18 f8 ff ff 	mov    %rax,-0x7e8(%rbp)
    f947:	48 8d 85 80 e8 ff ff 	lea    -0x1780(%rbp),%rax
    f94e:	48 83 c0 04          	add    $0x4,%rax
    f952:	48 89 85 20 f8 ff ff 	mov    %rax,-0x7e0(%rbp)
    f959:	48 8d 85 64 e4 ff ff 	lea    -0x1b9c(%rbp),%rax
    f960:	48 89 85 28 f8 ff ff 	mov    %rax,-0x7d8(%rbp)
    f967:	48 8d 85 80 e8 ff ff 	lea    -0x1780(%rbp),%rax
    f96e:	48 83 c0 04          	add    $0x4,%rax
    f972:	48 89 85 30 f8 ff ff 	mov    %rax,-0x7d0(%rbp)
    f979:	48 8d 85 80 e8 ff ff 	lea    -0x1780(%rbp),%rax
    f980:	48 83 c0 04          	add    $0x4,%rax
    f984:	48 89 85 38 f8 ff ff 	mov    %rax,-0x7c8(%rbp)
    f98b:	48 8d 85 a0 f4 ff ff 	lea    -0xb60(%rbp),%rax
    f992:	48 05 4c 01 00 00    	add    $0x14c,%rax
    f998:	48 89 85 40 f8 ff ff 	mov    %rax,-0x7c0(%rbp)
    f99f:	48 8d 85 64 e4 ff ff 	lea    -0x1b9c(%rbp),%rax
    f9a6:	48 89 85 48 f8 ff ff 	mov    %rax,-0x7b8(%rbp)
    f9ad:	48 8d 85 a0 f4 ff ff 	lea    -0xb60(%rbp),%rax
    f9b4:	48 05 4c 01 00 00    	add    $0x14c,%rax
    f9ba:	48 89 85 50 f8 ff ff 	mov    %rax,-0x7b0(%rbp)
    f9c1:	48 8d 85 80 e8 ff ff 	lea    -0x1780(%rbp),%rax
    f9c8:	48 83 c0 04          	add    $0x4,%rax
    f9cc:	48 89 85 58 f8 ff ff 	mov    %rax,-0x7a8(%rbp)
    f9d3:	48 8d 85 80 e8 ff ff 	lea    -0x1780(%rbp),%rax
    f9da:	48 83 c0 04          	add    $0x4,%rax
    f9de:	48 89 85 60 f8 ff ff 	mov    %rax,-0x7a0(%rbp)
    f9e5:	48 8d 85 64 e4 ff ff 	lea    -0x1b9c(%rbp),%rax
    f9ec:	48 89 85 68 f8 ff ff 	mov    %rax,-0x798(%rbp)
    f9f3:	48 8d 85 80 e8 ff ff 	lea    -0x1780(%rbp),%rax
    f9fa:	48 83 c0 04          	add    $0x4,%rax
    f9fe:	48 89 85 70 f8 ff ff 	mov    %rax,-0x790(%rbp)
    fa05:	48 8d 85 80 e8 ff ff 	lea    -0x1780(%rbp),%rax
    fa0c:	48 89 85 78 f8 ff ff 	mov    %rax,-0x788(%rbp)
    fa13:	48 c7 85 80 f8 ff ff 	movq   $0x0,-0x780(%rbp)
    fa1a:	00 00 00 00 
    fa1e:	48 8d 85 a0 f4 ff ff 	lea    -0xb60(%rbp),%rax
    fa25:	48 05 4c 01 00 00    	add    $0x14c,%rax
    fa2b:	48 89 85 88 f8 ff ff 	mov    %rax,-0x778(%rbp)
    fa32:	48 8d 85 a0 f4 ff ff 	lea    -0xb60(%rbp),%rax
    fa39:	48 05 4c 01 00 00    	add    $0x14c,%rax
    fa3f:	48 89 85 90 f8 ff ff 	mov    %rax,-0x770(%rbp)
    fa46:	48 8d 85 64 e4 ff ff 	lea    -0x1b9c(%rbp),%rax
    fa4d:	48 89 85 98 f8 ff ff 	mov    %rax,-0x768(%rbp)
    fa54:	48 8d 85 64 e4 ff ff 	lea    -0x1b9c(%rbp),%rax
    fa5b:	48 89 85 a0 f8 ff ff 	mov    %rax,-0x760(%rbp)
    fa62:	48 8d 85 a0 f4 ff ff 	lea    -0xb60(%rbp),%rax
    fa69:	48 05 4c 01 00 00    	add    $0x14c,%rax
    fa6f:	48 89 85 a8 f8 ff ff 	mov    %rax,-0x758(%rbp)
    fa76:	48 8d 85 a0 f4 ff ff 	lea    -0xb60(%rbp),%rax
    fa7d:	48 05 4c 01 00 00    	add    $0x14c,%rax
    fa83:	48 89 85 b0 f8 ff ff 	mov    %rax,-0x750(%rbp)
    fa8a:	48 c7 85 b8 f8 ff ff 	movq   $0x0,-0x748(%rbp)
    fa91:	00 00 00 00 
    fa95:	48 8d 85 80 e8 ff ff 	lea    -0x1780(%rbp),%rax
    fa9c:	48 89 85 c0 f8 ff ff 	mov    %rax,-0x740(%rbp)
    faa3:	48 8d 85 80 e8 ff ff 	lea    -0x1780(%rbp),%rax
    faaa:	48 83 c0 04          	add    $0x4,%rax
    faae:	48 89 85 c8 f8 ff ff 	mov    %rax,-0x738(%rbp)
    fab5:	48 8d 85 64 e4 ff ff 	lea    -0x1b9c(%rbp),%rax
    fabc:	48 89 85 d0 f8 ff ff 	mov    %rax,-0x730(%rbp)
    fac3:	48 8d 85 80 e8 ff ff 	lea    -0x1780(%rbp),%rax
    faca:	48 83 c0 04          	add    $0x4,%rax
    face:	48 89 85 d8 f8 ff ff 	mov    %rax,-0x728(%rbp)
    fad5:	48 8d 85 80 e8 ff ff 	lea    -0x1780(%rbp),%rax
    fadc:	48 83 c0 04          	add    $0x4,%rax
    fae0:	48 89 85 e0 f8 ff ff 	mov    %rax,-0x720(%rbp)
    fae7:	48 8d 85 80 e8 ff ff 	lea    -0x1780(%rbp),%rax
    faee:	48 83 c0 04          	add    $0x4,%rax
    faf2:	48 89 85 e8 f8 ff ff 	mov    %rax,-0x718(%rbp)
    faf9:	48 8d 85 60 e4 ff ff 	lea    -0x1ba0(%rbp),%rax
    fb00:	48 89 85 f0 f8 ff ff 	mov    %rax,-0x710(%rbp)
    fb07:	48 8d 85 80 e8 ff ff 	lea    -0x1780(%rbp),%rax
    fb0e:	48 83 c0 04          	add    $0x4,%rax
    fb12:	48 89 85 f8 f8 ff ff 	mov    %rax,-0x708(%rbp)
    fb19:	48 c7 85 00 f9 ff ff 	movq   $0x0,-0x700(%rbp)
    fb20:	00 00 00 00 
    fb24:	48 c7 85 08 f9 ff ff 	movq   $0x0,-0x6f8(%rbp)
    fb2b:	00 00 00 00 
    fb2f:	8b 85 54 e4 ff ff    	mov    -0x1bac(%rbp),%eax
    fb35:	83 e8 01             	sub    $0x1,%eax
    fb38:	89 85 54 e4 ff ff    	mov    %eax,-0x1bac(%rbp)
    fb3e:	c7 85 88 e4 ff ff 00 	movl   $0x0,-0x1b78(%rbp)
    fb45:	00 00 00 
    fb48:	e9 9d 00 00 00       	jmpq   fbea <func_56+0x16ef>
    fb4d:	48 b8 b5 35 d2 60 41 	movabs $0x4813a64160d235b5,%rax
    fb54:	a6 13 48 
    fb57:	48 89 85 68 e5 ff ff 	mov    %rax,-0x1a98(%rbp)
    fb5e:	48 c7 05 e7 84 00 00 	movq   $0x0,0x84e7(%rip)        # 18050 <g_153>
    fb65:	00 00 00 00 
    fb69:	eb 6b                	jmp    fbd6 <func_56+0x16db>
    fb6b:	c7 85 2c e5 ff ff 07 	movl   $0x7,-0x1ad4(%rbp)
    fb72:	00 00 00 
    fb75:	c7 85 30 e5 ff ff 47 	movl   $0x8a842647,-0x1ad0(%rbp)
    fb7c:	26 84 8a 
    fb7f:	48 8b 85 70 e7 ff ff 	mov    -0x1890(%rbp),%rax
    fb86:	c7 00 f7 ff ff ff    	movl   $0xfffffff7,(%rax)
    fb8c:	48 8b 85 48 e7 ff ff 	mov    -0x18b8(%rbp),%rax
    fb93:	c6 00 08             	movb   $0x8,(%rax)
    fb96:	be 00 00 00 00       	mov    $0x0,%esi
    fb9b:	bf 08 00 00 00       	mov    $0x8,%edi
    fba0:	e8 ee 4f ff ff       	callq  4b93 <safe_mul_func_uint8_t_u_u>
    fba5:	48 8b 95 70 e7 ff ff 	mov    -0x1890(%rbp),%rdx
    fbac:	8b 12                	mov    (%rdx),%edx
    fbae:	0f b6 c0             	movzbl %al,%eax
    fbb1:	31 c2                	xor    %eax,%edx
    fbb3:	48 8b 85 70 e7 ff ff 	mov    -0x1890(%rbp),%rax
    fbba:	89 10                	mov    %edx,(%rax)
    fbbc:	48 83 ad 68 e5 ff ff 	subq   $0x1,-0x1a98(%rbp)
    fbc3:	01 
    fbc4:	48 8b 05 85 84 00 00 	mov    0x8485(%rip),%rax        # 18050 <g_153>
    fbcb:	48 83 c0 01          	add    $0x1,%rax
    fbcf:	48 89 05 7a 84 00 00 	mov    %rax,0x847a(%rip)        # 18050 <g_153>
    fbd6:	48 8b 05 73 84 00 00 	mov    0x8473(%rip),%rax        # 18050 <g_153>
    fbdd:	48 83 f8 02          	cmp    $0x2,%rax
    fbe1:	76 88                	jbe    fb6b <func_56+0x1670>
    fbe3:	83 ad 88 e4 ff ff 01 	subl   $0x1,-0x1b78(%rbp)
    fbea:	83 bd 88 e4 ff ff ef 	cmpl   $0xffffffef,-0x1b78(%rbp)
    fbf1:	0f 85 56 ff ff ff    	jne    fb4d <func_56+0x1652>
    fbf7:	8b 85 1c e4 ff ff    	mov    -0x1be4(%rbp),%eax
    fbfd:	85 c0                	test   %eax,%eax
    fbff:	0f 85 64 07 00 00    	jne    10369 <func_56+0x1e6e>
    fc05:	c6 05 74 84 00 00 1c 	movb   $0x1c,0x8474(%rip)        # 18080 <g_257>
    fc0c:	e9 20 07 00 00       	jmpq   10331 <func_56+0x1e36>
    fc11:	48 c7 85 a0 e7 ff ff 	movq   $0x0,-0x1860(%rbp)
    fc18:	00 00 00 00 
    fc1c:	48 8d 85 5c e4 ff ff 	lea    -0x1ba4(%rbp),%rax
    fc23:	48 89 85 a8 e7 ff ff 	mov    %rax,-0x1858(%rbp)
    fc2a:	48 8d 85 36 e4 ff ff 	lea    -0x1bca(%rbp),%rax
    fc31:	48 89 85 b0 e7 ff ff 	mov    %rax,-0x1850(%rbp)
    fc38:	c7 85 98 e4 ff ff 00 	movl   $0x0,-0x1b68(%rbp)
    fc3f:	00 00 00 
    fc42:	eb 1b                	jmp    fc5f <func_56+0x1764>
    fc44:	8b 85 98 e4 ff ff    	mov    -0x1b68(%rbp),%eax
    fc4a:	48 98                	cltq   
    fc4c:	48 c7 84 c5 c0 f7 ff 	movq   $0x0,-0x840(%rbp,%rax,8)
    fc53:	ff 00 00 00 00 
    fc58:	83 85 98 e4 ff ff 01 	addl   $0x1,-0x1b68(%rbp)
    fc5f:	83 bd 98 e4 ff ff 00 	cmpl   $0x0,-0x1b68(%rbp)
    fc66:	7e dc                	jle    fc44 <func_56+0x1749>
    fc68:	c7 85 50 e4 ff ff f6 	movl   $0xfffffff6,-0x1bb0(%rbp)
    fc6f:	ff ff ff 
    fc72:	eb 2c                	jmp    fca0 <func_56+0x17a5>
    fc74:	c6 85 33 e4 ff ff 00 	movb   $0x0,-0x1bcd(%rbp)
    fc7b:	80 85 33 e4 ff ff 01 	addb   $0x1,-0x1bcd(%rbp)
    fc82:	8b 85 50 e4 ff ff    	mov    -0x1bb0(%rbp),%eax
    fc88:	0f b7 c0             	movzwl %ax,%eax
    fc8b:	be 01 00 00 00       	mov    $0x1,%esi
    fc90:	89 c7                	mov    %eax,%edi
    fc92:	e8 88 50 ff ff       	callq  4d1f <safe_sub_func_uint16_t_u_u>
    fc97:	0f b7 c0             	movzwl %ax,%eax
    fc9a:	89 85 50 e4 ff ff    	mov    %eax,-0x1bb0(%rbp)
    fca0:	8b 85 50 e4 ff ff    	mov    -0x1bb0(%rbp),%eax
    fca6:	83 f8 f1             	cmp    $0xfffffff1,%eax
    fca9:	74 c9                	je     fc74 <func_56+0x1779>
    fcab:	8b 05 8f 83 00 00    	mov    0x838f(%rip),%eax        # 18040 <g_94>
    fcb1:	0f be d8             	movsbl %al,%ebx
    fcb4:	8b 85 1c e4 ff ff    	mov    -0x1be4(%rbp),%eax
    fcba:	44 0f b7 e0          	movzwl %ax,%r12d
    fcbe:	8b 85 1c e4 ff ff    	mov    -0x1be4(%rbp),%eax
    fcc4:	44 0f b6 e8          	movzbl %al,%r13d
    fcc8:	0f b6 05 b1 83 00 00 	movzbl 0x83b1(%rip),%eax        # 18080 <g_257>
    fccf:	0f be c0             	movsbl %al,%eax
    fcd2:	be 01 00 00 00       	mov    $0x1,%esi
    fcd7:	89 c7                	mov    %eax,%edi
    fcd9:	e8 34 45 ff ff       	callq  4212 <safe_mul_func_int8_t_s_s>
    fcde:	0f be c0             	movsbl %al,%eax
    fce1:	89 c6                	mov    %eax,%esi
    fce3:	bf bf ea ff ff       	mov    $0xffffeabf,%edi
    fce8:	e8 08 47 ff ff       	callq  43f5 <safe_mul_func_int16_t_s_s>
    fced:	0f b6 c0             	movzbl %al,%eax
    fcf0:	44 89 ee             	mov    %r13d,%esi
    fcf3:	89 c7                	mov    %eax,%edi
    fcf5:	e8 e1 4e ff ff       	callq  4bdb <safe_div_func_uint8_t_u_u>
    fcfa:	0f b6 c0             	movzbl %al,%eax
    fcfd:	44 89 e6             	mov    %r12d,%esi
    fd00:	89 c7                	mov    %eax,%edi
    fd02:	e8 f8 4f ff ff       	callq  4cff <safe_add_func_uint16_t_u_u>
    fd07:	0f b7 c0             	movzwl %ax,%eax
    fd0a:	48 39 85 10 e4 ff ff 	cmp    %rax,-0x1bf0(%rbp)
    fd11:	0f 94 c0             	sete   %al
    fd14:	0f b6 d0             	movzbl %al,%edx
    fd17:	48 8b 85 a8 e7 ff ff 	mov    -0x1858(%rbp),%rax
    fd1e:	89 10                	mov    %edx,(%rax)
    fd20:	48 8b 85 a8 e7 ff ff 	mov    -0x1858(%rbp),%rax
    fd27:	8b 00                	mov    (%rax),%eax
    fd29:	85 c0                	test   %eax,%eax
    fd2b:	8b 85 1c e4 ff ff    	mov    -0x1be4(%rbp),%eax
    fd31:	83 e0 01             	and    $0x1,%eax
    fd34:	89 c2                	mov    %eax,%edx
    fd36:	48 8b 85 70 e5 ff ff 	mov    -0x1a90(%rbp),%rax
    fd3d:	8b 00                	mov    (%rax),%eax
    fd3f:	39 c2                	cmp    %eax,%edx
    fd41:	0f 9f c0             	setg   %al
    fd44:	0f b6 c0             	movzbl %al,%eax
    fd47:	48 39 85 10 e4 ff ff 	cmp    %rax,-0x1bf0(%rbp)
    fd4e:	0f 95 c0             	setne  %al
    fd51:	0f b6 c0             	movzbl %al,%eax
    fd54:	89 c6                	mov    %eax,%esi
    fd56:	bf 05 00 00 00       	mov    $0x5,%edi
    fd5b:	e8 2d 4f ff ff       	callq  4c8d <safe_rshift_func_uint8_t_u_s>
    fd60:	0f b6 c0             	movzbl %al,%eax
    fd63:	83 f0 fb             	xor    $0xfffffffb,%eax
    fd66:	0f b7 c0             	movzwl %ax,%eax
    fd69:	89 c6                	mov    %eax,%esi
    fd6b:	bf e4 dd 00 00       	mov    $0xdde4,%edi
    fd70:	e8 c8 4f ff ff       	callq  4d3d <safe_mul_func_uint16_t_u_u>
    fd75:	0f be c0             	movsbl %al,%eax
    fd78:	89 de                	mov    %ebx,%esi
    fd7a:	89 c7                	mov    %eax,%edi
    fd7c:	e8 71 44 ff ff       	callq  41f2 <safe_sub_func_int8_t_s_s>
    fd81:	84 c0                	test   %al,%al
    fd83:	0f 84 32 04 00 00    	je     101bb <func_56+0x1cc0>
    fd89:	48 b8 8b ea 59 78 0d 	movabs $0x96d1d10d7859ea8b,%rax
    fd90:	d1 d1 96 
    fd93:	48 89 85 c0 e7 ff ff 	mov    %rax,-0x1840(%rbp)
    fd9a:	48 8d 85 d0 e8 ff ff 	lea    -0x1730(%rbp),%rax
    fda1:	48 83 c0 08          	add    $0x8,%rax
    fda5:	48 89 85 c8 e7 ff ff 	mov    %rax,-0x1838(%rbp)
    fdac:	48 c7 85 d0 e7 ff ff 	movq   $0x0,-0x1830(%rbp)
    fdb3:	00 00 00 00 
    fdb7:	48 8b 05 72 9e 00 00 	mov    0x9e72(%rip),%rax        # 19c30 <g_174>
    fdbe:	88 05 80 82 00 00    	mov    %al,0x8280(%rip)        # 18044 <g_96>
    fdc4:	0f b6 05 79 82 00 00 	movzbl 0x8279(%rip),%eax        # 18044 <g_96>
    fdcb:	44 0f be e8          	movsbl %al,%r13d
    fdcf:	8b 85 d8 e8 ff ff    	mov    -0x1728(%rbp),%eax
    fdd5:	41 89 c6             	mov    %eax,%r14d
    fdd8:	48 8b 05 21 95 00 00 	mov    0x9521(%rip),%rax        # 19300 <g_132>
    fddf:	8b 00                	mov    (%rax),%eax
    fde1:	41 89 c7             	mov    %eax,%r15d
    fde4:	0f b6 05 41 9e 00 00 	movzbl 0x9e41(%rip),%eax        # 19c2c <g_115>
    fdeb:	0f b6 d8             	movzbl %al,%ebx
    fdee:	0f b6 05 37 9e 00 00 	movzbl 0x9e37(%rip),%eax        # 19c2c <g_115>
    fdf5:	44 0f b6 e0          	movzbl %al,%r12d
    fdf9:	8b 85 1c e4 ff ff    	mov    -0x1be4(%rbp),%eax
    fdff:	48 63 d0             	movslq %eax,%rdx
    fe02:	48 8b 85 50 e7 ff ff 	mov    -0x18b0(%rbp),%rax
    fe09:	48 8b 00             	mov    (%rax),%rax
    fe0c:	83 e0 01             	and    $0x1,%eax
    fe0f:	48 89 c1             	mov    %rax,%rcx
    fe12:	48 8b 85 50 e7 ff ff 	mov    -0x18b0(%rbp),%rax
    fe19:	48 89 08             	mov    %rcx,(%rax)
    fe1c:	48 8b 85 50 e7 ff ff 	mov    -0x18b0(%rbp),%rax
    fe23:	48 8b 00             	mov    (%rax),%rax
    fe26:	48 39 c2             	cmp    %rax,%rdx
    fe29:	0f 95 c0             	setne  %al
    fe2c:	0f b6 d0             	movzbl %al,%edx
    fe2f:	0f b7 85 36 e4 ff ff 	movzwl -0x1bca(%rbp),%eax
    fe36:	0f b7 c0             	movzwl %ax,%eax
    fe39:	89 d6                	mov    %edx,%esi
    fe3b:	89 c7                	mov    %eax,%edi
    fe3d:	e8 06 50 ff ff       	callq  4e48 <safe_rshift_func_uint16_t_u_s>
    fe42:	0f b7 c0             	movzwl %ax,%eax
    fe45:	44 89 e6             	mov    %r12d,%esi
    fe48:	89 c7                	mov    %eax,%edi
    fe4a:	e8 b0 4e ff ff       	callq  4cff <safe_add_func_uint16_t_u_u>
    fe4f:	48 8b 85 a8 e7 ff ff 	mov    -0x1858(%rbp),%rax
    fe56:	8b 00                	mov    (%rax),%eax
    fe58:	83 c8 01             	or     $0x1,%eax
    fe5b:	98                   	cwtl   
    fe5c:	89 de                	mov    %ebx,%esi
    fe5e:	89 c7                	mov    %eax,%edi
    fe60:	e8 b1 45 ff ff       	callq  4416 <safe_mod_func_int16_t_s_s>
    fe65:	48 0f bf c0          	movswq %ax,%rax
    fe69:	48 33 85 10 e4 ff ff 	xor    -0x1bf0(%rbp),%rax
    fe70:	48 3d fe 00 00 00    	cmp    $0xfe,%rax
    fe76:	0f 95 c0             	setne  %al
    fe79:	0f b6 c0             	movzbl %al,%eax
    fe7c:	44 89 fe             	mov    %r15d,%esi
    fe7f:	89 c7                	mov    %eax,%edi
    fe81:	e8 4a 50 ff ff       	callq  4ed0 <safe_sub_func_uint32_t_u_u>
    fe86:	48 8b 85 10 e4 ff ff 	mov    -0x1bf0(%rbp),%rax
    fe8d:	48 c1 e8 3f          	shr    $0x3f,%rax
    fe91:	0f b6 d0             	movzbl %al,%edx
    fe94:	8b 85 1c e4 ff ff    	mov    -0x1be4(%rbp),%eax
    fe9a:	39 c2                	cmp    %eax,%edx
    fe9c:	7f 11                	jg     feaf <func_56+0x19b4>
    fe9e:	48 83 bd 10 e4 ff ff 	cmpq   $0x0,-0x1bf0(%rbp)
    fea5:	00 
    fea6:	74 07                	je     feaf <func_56+0x19b4>
    fea8:	ba 01 00 00 00       	mov    $0x1,%edx
    fead:	eb 05                	jmp    feb4 <func_56+0x19b9>
    feaf:	ba 00 00 00 00       	mov    $0x0,%edx
    feb4:	8b 05 6e 9d 00 00    	mov    0x9d6e(%rip),%eax        # 19c28 <g_99>
    feba:	21 d0                	and    %edx,%eax
    febc:	85 c0                	test   %eax,%eax
    febe:	48 8b 85 c0 e7 ff ff 	mov    -0x1840(%rbp),%rax
    fec5:	0f b7 c0             	movzwl %ax,%eax
    fec8:	89 c6                	mov    %eax,%esi
    feca:	bf ff ff 00 00       	mov    $0xffff,%edi
    fecf:	e8 69 4e ff ff       	callq  4d3d <safe_mul_func_uint16_t_u_u>
    fed4:	0f b7 c0             	movzwl %ax,%eax
    fed7:	be 06 00 00 00       	mov    $0x6,%esi
    fedc:	89 c7                	mov    %eax,%edi
    fede:	e8 65 4f ff ff       	callq  4e48 <safe_rshift_func_uint16_t_u_s>
    fee3:	48 8b 15 1e 94 00 00 	mov    0x941e(%rip),%rdx        # 19308 <g_340>
    feea:	48 8d 85 b0 eb ff ff 	lea    -0x1450(%rbp),%rax
    fef1:	48 39 c2             	cmp    %rax,%rdx
    fef4:	0f 94 c0             	sete   %al
    fef7:	0f b6 c0             	movzbl %al,%eax
    fefa:	be 0b 00 00 00       	mov    $0xb,%esi
    feff:	89 c7                	mov    %eax,%edi
    ff01:	e8 5d 46 ff ff       	callq  4563 <safe_rshift_func_int16_t_s_u>
    ff06:	48 8b 85 10 e4 ff ff 	mov    -0x1bf0(%rbp),%rax
    ff0d:	4c 89 f6             	mov    %r14,%rsi
    ff10:	48 89 c7             	mov    %rax,%rdi
    ff13:	e8 90 49 ff ff       	callq  48a8 <safe_sub_func_int64_t_s_s>
    ff18:	b8 bd ff ff ff       	mov    $0xffffffbd,%eax
    ff1d:	66 98                	cbtw   
    ff1f:	0f b7 c0             	movzwl %ax,%eax
    ff22:	be 0d 00 00 00       	mov    $0xd,%esi
    ff27:	89 c7                	mov    %eax,%edi
    ff29:	e8 d8 4e ff ff       	callq  4e06 <safe_lshift_func_uint16_t_u_u>
    ff2e:	0f b7 c0             	movzwl %ax,%eax
    ff31:	44 89 ea             	mov    %r13d,%edx
    ff34:	09 c2                	or     %eax,%edx
    ff36:	0f b6 05 43 81 00 00 	movzbl 0x8143(%rip),%eax        # 18080 <g_257>
    ff3d:	0f be c0             	movsbl %al,%eax
    ff40:	31 d0                	xor    %edx,%eax
    ff42:	48 98                	cltq   
    ff44:	48 39 85 10 e4 ff ff 	cmp    %rax,-0x1bf0(%rbp)
    ff4b:	7e 12                	jle    ff5f <func_56+0x1a64>
    ff4d:	0f b6 05 d8 9c 00 00 	movzbl 0x9cd8(%rip),%eax        # 19c2c <g_115>
    ff54:	84 c0                	test   %al,%al
    ff56:	74 07                	je     ff5f <func_56+0x1a64>
    ff58:	b8 01 00 00 00       	mov    $0x1,%eax
    ff5d:	eb 05                	jmp    ff64 <func_56+0x1a69>
    ff5f:	b8 00 00 00 00       	mov    $0x0,%eax
    ff64:	21 85 90 e4 ff ff    	and    %eax,-0x1b70(%rbp)
    ff6a:	48 8b 85 10 e4 ff ff 	mov    -0x1bf0(%rbp),%rax
    ff71:	41 89 c5             	mov    %eax,%r13d
    ff74:	48 8b 85 c0 e7 ff ff 	mov    -0x1840(%rbp),%rax
    ff7b:	41 89 c6             	mov    %eax,%r14d
    ff7e:	48 8b 85 a8 e7 ff ff 	mov    -0x1858(%rbp),%rax
    ff85:	8b 00                	mov    (%rax),%eax
    ff87:	48 98                	cltq   
    ff89:	48 33 85 10 e4 ff ff 	xor    -0x1bf0(%rbp),%rax
    ff90:	49 89 c4             	mov    %rax,%r12
    ff93:	0f b6 05 e6 80 00 00 	movzbl 0x80e6(%rip),%eax        # 18080 <g_257>
    ff9a:	0f be d8             	movsbl %al,%ebx
    ff9d:	8b 85 1c e4 ff ff    	mov    -0x1be4(%rbp),%eax
    ffa3:	89 c2                	mov    %eax,%edx
    ffa5:	0f b6 05 90 80 00 00 	movzbl 0x8090(%rip),%eax        # 1803c <g_93>
    ffac:	0f be c0             	movsbl %al,%eax
    ffaf:	89 d6                	mov    %edx,%esi
    ffb1:	89 c7                	mov    %eax,%edi
    ffb3:	e8 b4 43 ff ff       	callq  436c <safe_rshift_func_int8_t_s_u>
    ffb8:	0f be c0             	movsbl %al,%eax
    ffbb:	89 de                	mov    %ebx,%esi
    ffbd:	89 c7                	mov    %eax,%edi
    ffbf:	e8 ce 44 ff ff       	callq  4492 <safe_lshift_func_int16_t_s_s>
    ffc4:	0f b6 c0             	movzbl %al,%eax
    ffc7:	be a4 00 00 00       	mov    $0xa4,%esi
    ffcc:	89 c7                	mov    %eax,%edi
    ffce:	e8 db 4b ff ff       	callq  4bae <safe_mod_func_uint8_t_u_u>
    ffd3:	0f b6 c0             	movzbl %al,%eax
    ffd6:	49 39 c4             	cmp    %rax,%r12
    ffd9:	0f 9d c0             	setge  %al
    ffdc:	0f b6 c0             	movzbl %al,%eax
    ffdf:	44 89 f6             	mov    %r14d,%esi
    ffe2:	89 c7                	mov    %eax,%edi
    ffe4:	e8 e7 4e ff ff       	callq  4ed0 <safe_sub_func_uint32_t_u_u>
    ffe9:	8b 95 80 e8 ff ff    	mov    -0x1780(%rbp),%edx
    ffef:	09 d0                	or     %edx,%eax
    fff1:	89 85 80 e8 ff ff    	mov    %eax,-0x1780(%rbp)
    fff7:	8b 85 80 e8 ff ff    	mov    -0x1780(%rbp),%eax
    fffd:	48 98                	cltq   
    ffff:	48 8b 95 c0 e7 ff ff 	mov    -0x1840(%rbp),%rdx
   10006:	48 89 d6             	mov    %rdx,%rsi
   10009:	48 89 c7             	mov    %rax,%rdi
   1000c:	e8 e6 49 ff ff       	callq  49f7 <safe_div_func_int64_t_s_s>
   10011:	48 83 f8 01          	cmp    $0x1,%rax
   10015:	75 0a                	jne    10021 <func_56+0x1b26>
   10017:	48 83 bd c0 e7 ff ff 	cmpq   $0x0,-0x1840(%rbp)
   1001e:	00 
   1001f:	74 07                	je     10028 <func_56+0x1b2d>
   10021:	ba 01 00 00 00       	mov    $0x1,%edx
   10026:	eb 05                	jmp    1002d <func_56+0x1b32>
   10028:	ba 00 00 00 00       	mov    $0x0,%edx
   1002d:	8b 85 1c e4 ff ff    	mov    -0x1be4(%rbp),%eax
   10033:	39 c2                	cmp    %eax,%edx
   10035:	0f 9e c0             	setle  %al
   10038:	0f b6 c0             	movzbl %al,%eax
   1003b:	44 89 ee             	mov    %r13d,%esi
   1003e:	89 c7                	mov    %eax,%edi
   10040:	e8 c0 45 ff ff       	callq  4605 <safe_sub_func_int32_t_s_s>
   10045:	0f b7 d0             	movzwl %ax,%edx
   10048:	48 83 bd c8 e7 ff ff 	cmpq   $0x0,-0x1838(%rbp)
   1004f:	00 
   10050:	0f 95 c0             	setne  %al
   10053:	0f b6 c0             	movzbl %al,%eax
   10056:	89 d6                	mov    %edx,%esi
   10058:	89 c7                	mov    %eax,%edi
   1005a:	e8 2f 4d ff ff       	callq  4d8e <safe_div_func_uint16_t_u_u>
   1005f:	89 c2                	mov    %eax,%edx
   10061:	48 8b 85 10 e4 ff ff 	mov    -0x1bf0(%rbp),%rax
   10068:	09 d0                	or     %edx,%eax
   1006a:	0f b6 c0             	movzbl %al,%eax
   1006d:	be 14 00 00 00       	mov    $0x14,%esi
   10072:	89 c7                	mov    %eax,%edi
   10074:	e8 62 4b ff ff       	callq  4bdb <safe_div_func_uint8_t_u_u>
   10079:	0f b6 d0             	movzbl %al,%edx
   1007c:	48 8b 85 50 e7 ff ff 	mov    -0x18b0(%rbp),%rax
   10083:	48 89 10             	mov    %rdx,(%rax)
   10086:	48 8b 85 50 e7 ff ff 	mov    -0x18b0(%rbp),%rax
   1008d:	48 8b 00             	mov    (%rax),%rax
   10090:	48 85 c0             	test   %rax,%rax
   10093:	75 08                	jne    1009d <func_56+0x1ba2>
   10095:	48 83 bd 10 e4 ff ff 	cmpq   $0x0,-0x1bf0(%rbp)
   1009c:	00 
   1009d:	48 8b 05 5c 92 00 00 	mov    0x925c(%rip),%rax        # 19300 <g_132>
   100a4:	8b 00                	mov    (%rax),%eax
   100a6:	85 c0                	test   %eax,%eax
   100a8:	74 46                	je     100f0 <func_56+0x1bf5>
   100aa:	c7 85 34 e5 ff ff ff 	movl   $0xffffffff,-0x1acc(%rbp)
   100b1:	ff ff ff 
   100b4:	48 83 bd 10 e4 ff ff 	cmpq   $0x0,-0x1bf0(%rbp)
   100bb:	00 
   100bc:	0f 85 80 02 00 00    	jne    10342 <func_56+0x1e47>
   100c2:	48 8d 85 1c e4 ff ff 	lea    -0x1be4(%rbp),%rax
   100c9:	48 89 85 70 e5 ff ff 	mov    %rax,-0x1a90(%rbp)
   100d0:	83 bd 34 e5 ff ff 00 	cmpl   $0x0,-0x1acc(%rbp)
   100d7:	0f 85 68 02 00 00    	jne    10345 <func_56+0x1e4a>
   100dd:	8b 85 1c e4 ff ff    	mov    -0x1be4(%rbp),%eax
   100e3:	85 c0                	test   %eax,%eax
   100e5:	0f 84 16 02 00 00    	je     10301 <func_56+0x1e06>
   100eb:	e9 23 02 00 00       	jmpq   10313 <func_56+0x1e18>
   100f0:	0f b6 05 45 7f 00 00 	movzbl 0x7f45(%rip),%eax        # 1803c <g_93>
   100f7:	44 0f be e0          	movsbl %al,%r12d
   100fb:	48 8b 85 10 e4 ff ff 	mov    -0x1bf0(%rbp),%rax
   10102:	0f b6 d8             	movzbl %al,%ebx
   10105:	48 be ef 09 b7 e7 88 	movabs $0x882e9088e7b709ef,%rsi
   1010c:	90 2e 88 
   1010f:	48 c7 c7 fa ff ff ff 	mov    $0xfffffffffffffffa,%rdi
   10116:	e8 94 4f ff ff       	callq  50af <safe_div_func_uint64_t_u_u>
   1011b:	0f b6 c0             	movzbl %al,%eax
   1011e:	89 de                	mov    %ebx,%esi
   10120:	89 c7                	mov    %eax,%edi
   10122:	e8 33 4a ff ff       	callq  4b5a <safe_add_func_uint8_t_u_u>
   10127:	0f b6 c0             	movzbl %al,%eax
   1012a:	48 39 85 10 e4 ff ff 	cmp    %rax,-0x1bf0(%rbp)
   10131:	0f 9e c0             	setle  %al
   10134:	0f b6 d8             	movzbl %al,%ebx
   10137:	b8 bd ff ff ff       	mov    $0xffffffbd,%eax
   1013c:	44 0f be e8          	movsbl %al,%r13d
   10140:	be ff ff ff ff       	mov    $0xffffffff,%esi
   10145:	bf 00 00 00 00       	mov    $0x0,%edi
   1014a:	e8 c3 40 ff ff       	callq  4212 <safe_mul_func_int8_t_s_s>
   1014f:	48 8b 85 a8 e7 ff ff 	mov    -0x1858(%rbp),%rax
   10156:	c7 00 00 00 00 00    	movl   $0x0,(%rax)
   1015c:	48 8b 85 a8 e7 ff ff 	mov    -0x1858(%rbp),%rax
   10163:	8b 00                	mov    (%rax),%eax
   10165:	44 09 e8             	or     %r13d,%eax
   10168:	48 98                	cltq   
   1016a:	48 89 de             	mov    %rbx,%rsi
   1016d:	48 89 c7             	mov    %rax,%rdi
   10170:	e8 33 47 ff ff       	callq  48a8 <safe_sub_func_int64_t_s_s>
   10175:	48 85 c0             	test   %rax,%rax
   10178:	74 07                	je     10181 <func_56+0x1c86>
   1017a:	b8 01 00 00 00       	mov    $0x1,%eax
   1017f:	eb 05                	jmp    10186 <func_56+0x1c8b>
   10181:	b8 00 00 00 00       	mov    $0x0,%eax
   10186:	44 39 e0             	cmp    %r12d,%eax
   10189:	74 12                	je     1019d <func_56+0x1ca2>
   1018b:	0f b6 05 ee 7e 00 00 	movzbl 0x7eee(%rip),%eax        # 18080 <g_257>
   10192:	84 c0                	test   %al,%al
   10194:	74 07                	je     1019d <func_56+0x1ca2>
   10196:	ba 01 00 00 00       	mov    $0x1,%edx
   1019b:	eb 05                	jmp    101a2 <func_56+0x1ca7>
   1019d:	ba 00 00 00 00       	mov    $0x0,%edx
   101a2:	0f b7 85 34 ee ff ff 	movzwl -0x11cc(%rbp),%eax
   101a9:	89 c1                	mov    %eax,%ecx
   101ab:	89 d0                	mov    %edx,%eax
   101ad:	21 c8                	and    %ecx,%eax
   101af:	66 89 85 34 ee ff ff 	mov    %ax,-0x11cc(%rbp)
   101b6:	e9 46 01 00 00       	jmpq   10301 <func_56+0x1e06>
   101bb:	48 8d 85 30 ed ff ff 	lea    -0x12d0(%rbp),%rax
   101c2:	48 05 04 01 00 00    	add    $0x104,%rax
   101c8:	48 89 85 b8 e7 ff ff 	mov    %rax,-0x1848(%rbp)
   101cf:	c6 85 32 e4 ff ff fc 	movb   $0xfc,-0x1bce(%rbp)
   101d6:	48 83 bd 90 e5 ff ff 	cmpq   $0x0,-0x1a70(%rbp)
   101dd:	00 
   101de:	0f 94 c0             	sete   %al
   101e1:	0f b6 d0             	movzbl %al,%edx
   101e4:	48 8b 85 b8 e7 ff ff 	mov    -0x1848(%rbp),%rax
   101eb:	66 89 10             	mov    %dx,(%rax)
   101ee:	48 8b 85 a8 e7 ff ff 	mov    -0x1858(%rbp),%rax
   101f5:	c7 00 f7 ff ff ff    	movl   $0xfffffff7,(%rax)
   101fb:	b8 bd ff ff ff       	mov    $0xffffffbd,%eax
   10200:	0f be d8             	movsbl %al,%ebx
   10203:	8b 05 73 7e 00 00    	mov    0x7e73(%rip),%eax        # 1807c <g_211+0x1c>
   10209:	44 0f bf e0          	movswl %ax,%r12d
   1020d:	80 bd 32 e4 ff ff 00 	cmpb   $0x0,-0x1bce(%rbp)
   10214:	75 51                	jne    10267 <func_56+0x1d6c>
   10216:	48 8b 85 10 e4 ff ff 	mov    -0x1bf0(%rbp),%rax
   1021d:	0f b7 d0             	movzwl %ax,%edx
   10220:	48 83 bd 10 e4 ff ff 	cmpq   $0x1,-0x1bf0(%rbp)
   10227:	01 
   10228:	0f 94 c0             	sete   %al
   1022b:	0f b6 c0             	movzbl %al,%eax
   1022e:	89 d6                	mov    %edx,%esi
   10230:	89 c7                	mov    %eax,%edi
   10232:	e8 06 4b ff ff       	callq  4d3d <safe_mul_func_uint16_t_u_u>
   10237:	0f b7 c0             	movzwl %ax,%eax
   1023a:	48 be 4e 7b db b3 fb 	movabs $0x8d6dc2fbb3db7b4e,%rsi
   10241:	c2 6d 8d 
   10244:	48 89 c7             	mov    %rax,%rdi
   10247:	e8 63 4e ff ff       	callq  50af <safe_div_func_uint64_t_u_u>
   1024c:	0f be c0             	movsbl %al,%eax
   1024f:	be 03 00 00 00       	mov    $0x3,%esi
   10254:	89 c7                	mov    %eax,%edi
   10256:	e8 79 3f ff ff       	callq  41d4 <safe_add_func_int8_t_s_s>
   1025b:	84 c0                	test   %al,%al
   1025d:	75 08                	jne    10267 <func_56+0x1d6c>
   1025f:	8b 85 1c e4 ff ff    	mov    -0x1be4(%rbp),%eax
   10265:	85 c0                	test   %eax,%eax
   10267:	44 89 e6             	mov    %r12d,%esi
   1026a:	bf 00 00 00 00       	mov    $0x0,%edi
   1026f:	e8 81 41 ff ff       	callq  43f5 <safe_mul_func_int16_t_s_s>
   10274:	98                   	cwtl   
   10275:	be d2 6b 00 00       	mov    $0x6bd2,%esi
   1027a:	89 c7                	mov    %eax,%edi
   1027c:	e8 d4 41 ff ff       	callq  4455 <safe_div_func_int16_t_s_s>
   10281:	0f be c0             	movsbl %al,%eax
   10284:	be 89 ff ff ff       	mov    $0xffffff89,%esi
   10289:	89 c7                	mov    %eax,%edi
   1028b:	e8 44 3f ff ff       	callq  41d4 <safe_add_func_int8_t_s_s>
   10290:	48 0f be c0          	movsbq %al,%rax
   10294:	48 0b 85 10 e4 ff ff 	or     -0x1bf0(%rbp),%rax
   1029b:	48 89 c2             	mov    %rax,%rdx
   1029e:	8b 85 1c e4 ff ff    	mov    -0x1be4(%rbp),%eax
   102a4:	48 98                	cltq   
   102a6:	48 39 c2             	cmp    %rax,%rdx
   102a9:	0f 9d c0             	setge  %al
   102ac:	0f b6 c0             	movzbl %al,%eax
   102af:	89 de                	mov    %ebx,%esi
   102b1:	89 c7                	mov    %eax,%edi
   102b3:	e8 36 40 ff ff       	callq  42ee <safe_lshift_func_int8_t_s_u>
   102b8:	3c 02                	cmp    $0x2,%al
   102ba:	0f 94 c0             	sete   %al
   102bd:	0f b6 d0             	movzbl %al,%edx
   102c0:	8b 85 1c e4 ff ff    	mov    -0x1be4(%rbp),%eax
   102c6:	39 c2                	cmp    %eax,%edx
   102c8:	74 0c                	je     102d6 <func_56+0x1ddb>
   102ca:	48 83 bd 10 e4 ff ff 	cmpq   $0x0,-0x1bf0(%rbp)
   102d1:	00 
   102d2:	74 2d                	je     10301 <func_56+0x1e06>
   102d4:	eb 70                	jmp    10346 <func_56+0x1e4b>
   102d6:	48 8b 85 38 e7 ff ff 	mov    -0x18c8(%rbp),%rax
   102dd:	48 89 05 2c 90 00 00 	mov    %rax,0x902c(%rip)        # 19310 <g_404>
   102e4:	8b 95 1c e4 ff ff    	mov    -0x1be4(%rbp),%edx
   102ea:	48 8b 85 a8 e7 ff ff 	mov    -0x1858(%rbp),%rax
   102f1:	89 10                	mov    %edx,(%rax)
   102f3:	b8 00 00 00 00       	mov    $0x0,%eax
   102f8:	48 0f bf c0          	movswq %ax,%rax
   102fc:	e9 ce 26 00 00       	jmpq   129cf <func_56+0x44d4>
   10301:	48 8b 05 80 7d 00 00 	mov    0x7d80(%rip),%rax        # 18088 <g_409>
   10308:	48 83 e8 01          	sub    $0x1,%rax
   1030c:	48 89 05 75 7d 00 00 	mov    %rax,0x7d75(%rip)        # 18088 <g_409>
   10313:	0f b6 05 66 7d 00 00 	movzbl 0x7d66(%rip),%eax        # 18080 <g_257>
   1031a:	48 0f be c0          	movsbq %al,%rax
   1031e:	be 08 00 00 00       	mov    $0x8,%esi
   10323:	48 89 c7             	mov    %rax,%rdi
   10326:	e8 20 4d ff ff       	callq  504b <safe_sub_func_uint64_t_u_u>
   1032b:	88 05 4f 7d 00 00    	mov    %al,0x7d4f(%rip)        # 18080 <g_257>
   10331:	0f b6 05 48 7d 00 00 	movzbl 0x7d48(%rip),%eax        # 18080 <g_257>
   10338:	3c e9                	cmp    $0xe9,%al
   1033a:	0f 8d d1 f8 ff ff    	jge    fc11 <func_56+0x1716>
   10340:	eb 04                	jmp    10346 <func_56+0x1e4b>
   10342:	90                   	nop
   10343:	eb 01                	jmp    10346 <func_56+0x1e4b>
   10345:	90                   	nop
   10346:	8b 05 dc 98 00 00    	mov    0x98dc(%rip),%eax        # 19c28 <g_99>
   1034c:	83 c0 01             	add    $0x1,%eax
   1034f:	89 05 d3 98 00 00    	mov    %eax,0x98d3(%rip)        # 19c28 <g_99>
   10355:	8b 05 cd 98 00 00    	mov    0x98cd(%rip),%eax        # 19c28 <g_99>
   1035b:	83 f8 06             	cmp    $0x6,%eax
   1035e:	0f 8e f0 ec ff ff    	jle    f054 <func_56+0xb59>
   10364:	eb 04                	jmp    1036a <func_56+0x1e6f>
   10366:	90                   	nop
   10367:	eb 01                	jmp    1036a <func_56+0x1e6f>
   10369:	90                   	nop
   1036a:	48 83 85 10 e4 ff ff 	addq   $0x1,-0x1bf0(%rbp)
   10371:	01 
   10372:	48 83 bd 10 e4 ff ff 	cmpq   $0x10,-0x1bf0(%rbp)
   10379:	10 
   1037a:	0f 85 e9 e5 ff ff    	jne    e969 <func_56+0x46e>
   10380:	c6 05 f9 7c 00 00 03 	movb   $0x3,0x7cf9(%rip)        # 18080 <g_257>
   10387:	e9 40 1a 00 00       	jmpq   11dcc <func_56+0x38d1>
   1038c:	c7 85 64 e4 ff ff 01 	movl   $0x1,-0x1b9c(%rbp)
   10393:	00 00 00 
   10396:	48 8d 85 80 f0 ff ff 	lea    -0xf80(%rbp),%rax
   1039d:	48 8d 15 3c 4a 00 00 	lea    0x4a3c(%rip),%rdx        # 14de0 <g_3084+0xd7f>
   103a4:	b9 3c 00 00 00       	mov    $0x3c,%ecx
   103a9:	48 89 c7             	mov    %rax,%rdi
   103ac:	48 89 d6             	mov    %rdx,%rsi
   103af:	f3 48 a5             	rep movsq %ds:(%rsi),%es:(%rdi)
   103b2:	48 8d 85 a0 f4 ff ff 	lea    -0xb60(%rbp),%rax
   103b9:	48 83 c0 78          	add    $0x78,%rax
   103bd:	48 89 85 20 e9 ff ff 	mov    %rax,-0x16e0(%rbp)
   103c4:	48 8d 85 a0 f4 ff ff 	lea    -0xb60(%rbp),%rax
   103cb:	48 83 c0 78          	add    $0x78,%rax
   103cf:	48 89 85 28 e9 ff ff 	mov    %rax,-0x16d8(%rbp)
   103d6:	48 8d 85 a0 f4 ff ff 	lea    -0xb60(%rbp),%rax
   103dd:	48 83 c0 78          	add    $0x78,%rax
   103e1:	48 89 85 30 e9 ff ff 	mov    %rax,-0x16d0(%rbp)
   103e8:	48 8d 85 a0 f4 ff ff 	lea    -0xb60(%rbp),%rax
   103ef:	48 83 c0 78          	add    $0x78,%rax
   103f3:	48 89 85 38 e9 ff ff 	mov    %rax,-0x16c8(%rbp)
   103fa:	48 8d 85 a0 f4 ff ff 	lea    -0xb60(%rbp),%rax
   10401:	48 83 c0 78          	add    $0x78,%rax
   10405:	48 89 85 40 e9 ff ff 	mov    %rax,-0x16c0(%rbp)
   1040c:	48 8d 85 a0 f4 ff ff 	lea    -0xb60(%rbp),%rax
   10413:	48 83 c0 78          	add    $0x78,%rax
   10417:	48 89 85 48 e9 ff ff 	mov    %rax,-0x16b8(%rbp)
   1041e:	48 8d 85 a0 f4 ff ff 	lea    -0xb60(%rbp),%rax
   10425:	48 83 c0 78          	add    $0x78,%rax
   10429:	48 89 85 50 e9 ff ff 	mov    %rax,-0x16b0(%rbp)
   10430:	48 8d 85 a0 f4 ff ff 	lea    -0xb60(%rbp),%rax
   10437:	48 83 c0 78          	add    $0x78,%rax
   1043b:	48 89 85 58 e9 ff ff 	mov    %rax,-0x16a8(%rbp)
   10442:	48 8d 85 a0 f4 ff ff 	lea    -0xb60(%rbp),%rax
   10449:	48 83 c0 78          	add    $0x78,%rax
   1044d:	48 89 85 60 e9 ff ff 	mov    %rax,-0x16a0(%rbp)
   10454:	48 8d 85 a0 f4 ff ff 	lea    -0xb60(%rbp),%rax
   1045b:	48 83 c0 78          	add    $0x78,%rax
   1045f:	48 89 85 68 e9 ff ff 	mov    %rax,-0x1698(%rbp)
   10466:	48 8d 85 a0 f4 ff ff 	lea    -0xb60(%rbp),%rax
   1046d:	48 83 c0 78          	add    $0x78,%rax
   10471:	48 89 85 70 e9 ff ff 	mov    %rax,-0x1690(%rbp)
   10478:	48 8d 85 a0 f4 ff ff 	lea    -0xb60(%rbp),%rax
   1047f:	48 83 c0 78          	add    $0x78,%rax
   10483:	48 89 85 78 e9 ff ff 	mov    %rax,-0x1688(%rbp)
   1048a:	48 8d 85 a0 f4 ff ff 	lea    -0xb60(%rbp),%rax
   10491:	48 83 c0 78          	add    $0x78,%rax
   10495:	48 89 85 80 e9 ff ff 	mov    %rax,-0x1680(%rbp)
   1049c:	48 8d 85 a0 f4 ff ff 	lea    -0xb60(%rbp),%rax
   104a3:	48 83 c0 78          	add    $0x78,%rax
   104a7:	48 89 85 88 e9 ff ff 	mov    %rax,-0x1678(%rbp)
   104ae:	48 8d 85 a0 f4 ff ff 	lea    -0xb60(%rbp),%rax
   104b5:	48 83 c0 78          	add    $0x78,%rax
   104b9:	48 89 85 90 e9 ff ff 	mov    %rax,-0x1670(%rbp)
   104c0:	48 8d 85 a0 f4 ff ff 	lea    -0xb60(%rbp),%rax
   104c7:	48 83 c0 78          	add    $0x78,%rax
   104cb:	48 89 85 98 e9 ff ff 	mov    %rax,-0x1668(%rbp)
   104d2:	48 8d 85 a0 f4 ff ff 	lea    -0xb60(%rbp),%rax
   104d9:	48 83 c0 78          	add    $0x78,%rax
   104dd:	48 89 85 a0 e9 ff ff 	mov    %rax,-0x1660(%rbp)
   104e4:	48 8d 85 a0 f4 ff ff 	lea    -0xb60(%rbp),%rax
   104eb:	48 83 c0 78          	add    $0x78,%rax
   104ef:	48 89 85 a8 e9 ff ff 	mov    %rax,-0x1658(%rbp)
   104f6:	c6 85 2d e4 ff ff fa 	movb   $0xfa,-0x1bd3(%rbp)
   104fd:	48 8d 05 14 8e 00 00 	lea    0x8e14(%rip),%rax        # 19318 <g_412>
   10504:	48 89 85 48 e5 ff ff 	mov    %rax,-0x1ab8(%rbp)
   1050b:	48 8d 85 48 e5 ff ff 	lea    -0x1ab8(%rbp),%rax
   10512:	48 89 85 b0 eb ff ff 	mov    %rax,-0x1450(%rbp)
   10519:	48 8d 85 48 e5 ff ff 	lea    -0x1ab8(%rbp),%rax
   10520:	48 89 85 b8 eb ff ff 	mov    %rax,-0x1448(%rbp)
   10527:	48 8d 85 48 e5 ff ff 	lea    -0x1ab8(%rbp),%rax
   1052e:	48 89 85 c0 eb ff ff 	mov    %rax,-0x1440(%rbp)
   10535:	48 8d 85 48 e5 ff ff 	lea    -0x1ab8(%rbp),%rax
   1053c:	48 89 85 c8 eb ff ff 	mov    %rax,-0x1438(%rbp)
   10543:	48 8d 85 48 e5 ff ff 	lea    -0x1ab8(%rbp),%rax
   1054a:	48 89 85 d0 eb ff ff 	mov    %rax,-0x1430(%rbp)
   10551:	48 8d 85 48 e5 ff ff 	lea    -0x1ab8(%rbp),%rax
   10558:	48 89 85 d8 eb ff ff 	mov    %rax,-0x1428(%rbp)
   1055f:	48 8d 85 48 e5 ff ff 	lea    -0x1ab8(%rbp),%rax
   10566:	48 89 85 e0 eb ff ff 	mov    %rax,-0x1420(%rbp)
   1056d:	48 8d 85 48 e5 ff ff 	lea    -0x1ab8(%rbp),%rax
   10574:	48 89 85 e8 eb ff ff 	mov    %rax,-0x1418(%rbp)
   1057b:	48 8d 85 48 e5 ff ff 	lea    -0x1ab8(%rbp),%rax
   10582:	48 89 85 f0 eb ff ff 	mov    %rax,-0x1410(%rbp)
   10589:	48 8d 85 48 e5 ff ff 	lea    -0x1ab8(%rbp),%rax
   10590:	48 89 85 f8 eb ff ff 	mov    %rax,-0x1408(%rbp)
   10597:	48 8d 85 48 e5 ff ff 	lea    -0x1ab8(%rbp),%rax
   1059e:	48 89 85 00 ec ff ff 	mov    %rax,-0x1400(%rbp)
   105a5:	48 8d 85 48 e5 ff ff 	lea    -0x1ab8(%rbp),%rax
   105ac:	48 89 85 08 ec ff ff 	mov    %rax,-0x13f8(%rbp)
   105b3:	48 8d 85 48 e5 ff ff 	lea    -0x1ab8(%rbp),%rax
   105ba:	48 89 85 10 ec ff ff 	mov    %rax,-0x13f0(%rbp)
   105c1:	48 8d 85 48 e5 ff ff 	lea    -0x1ab8(%rbp),%rax
   105c8:	48 89 85 18 ec ff ff 	mov    %rax,-0x13e8(%rbp)
   105cf:	48 8d 85 48 e5 ff ff 	lea    -0x1ab8(%rbp),%rax
   105d6:	48 89 85 20 ec ff ff 	mov    %rax,-0x13e0(%rbp)
   105dd:	48 8d 85 48 e5 ff ff 	lea    -0x1ab8(%rbp),%rax
   105e4:	48 89 85 28 ec ff ff 	mov    %rax,-0x13d8(%rbp)
   105eb:	48 8d 85 48 e5 ff ff 	lea    -0x1ab8(%rbp),%rax
   105f2:	48 89 85 30 ec ff ff 	mov    %rax,-0x13d0(%rbp)
   105f9:	48 8d 85 48 e5 ff ff 	lea    -0x1ab8(%rbp),%rax
   10600:	48 89 85 38 ec ff ff 	mov    %rax,-0x13c8(%rbp)
   10607:	48 8d 85 48 e5 ff ff 	lea    -0x1ab8(%rbp),%rax
   1060e:	48 89 85 40 ec ff ff 	mov    %rax,-0x13c0(%rbp)
   10615:	48 8d 85 48 e5 ff ff 	lea    -0x1ab8(%rbp),%rax
   1061c:	48 89 85 48 ec ff ff 	mov    %rax,-0x13b8(%rbp)
   10623:	48 8d 85 48 e5 ff ff 	lea    -0x1ab8(%rbp),%rax
   1062a:	48 89 85 50 ec ff ff 	mov    %rax,-0x13b0(%rbp)
   10631:	48 8d 85 48 e5 ff ff 	lea    -0x1ab8(%rbp),%rax
   10638:	48 89 85 58 ec ff ff 	mov    %rax,-0x13a8(%rbp)
   1063f:	48 8d 85 48 e5 ff ff 	lea    -0x1ab8(%rbp),%rax
   10646:	48 89 85 60 ec ff ff 	mov    %rax,-0x13a0(%rbp)
   1064d:	48 8d 85 48 e5 ff ff 	lea    -0x1ab8(%rbp),%rax
   10654:	48 89 85 68 ec ff ff 	mov    %rax,-0x1398(%rbp)
   1065b:	48 8d 85 48 e5 ff ff 	lea    -0x1ab8(%rbp),%rax
   10662:	48 89 85 70 ec ff ff 	mov    %rax,-0x1390(%rbp)
   10669:	48 8d 85 48 e5 ff ff 	lea    -0x1ab8(%rbp),%rax
   10670:	48 89 85 78 ec ff ff 	mov    %rax,-0x1388(%rbp)
   10677:	48 c7 85 80 ec ff ff 	movq   $0x0,-0x1380(%rbp)
   1067e:	00 00 00 00 
   10682:	48 8d 85 48 e5 ff ff 	lea    -0x1ab8(%rbp),%rax
   10689:	48 89 85 88 ec ff ff 	mov    %rax,-0x1378(%rbp)
   10690:	48 8d 85 48 e5 ff ff 	lea    -0x1ab8(%rbp),%rax
   10697:	48 89 85 90 ec ff ff 	mov    %rax,-0x1370(%rbp)
   1069e:	48 8d 85 48 e5 ff ff 	lea    -0x1ab8(%rbp),%rax
   106a5:	48 89 85 98 ec ff ff 	mov    %rax,-0x1368(%rbp)
   106ac:	48 8d 85 48 e5 ff ff 	lea    -0x1ab8(%rbp),%rax
   106b3:	48 89 85 a0 ec ff ff 	mov    %rax,-0x1360(%rbp)
   106ba:	48 8d 85 48 e5 ff ff 	lea    -0x1ab8(%rbp),%rax
   106c1:	48 89 85 a8 ec ff ff 	mov    %rax,-0x1358(%rbp)
   106c8:	48 8d 85 48 e5 ff ff 	lea    -0x1ab8(%rbp),%rax
   106cf:	48 89 85 b0 ec ff ff 	mov    %rax,-0x1350(%rbp)
   106d6:	48 8d 85 48 e5 ff ff 	lea    -0x1ab8(%rbp),%rax
   106dd:	48 89 85 b8 ec ff ff 	mov    %rax,-0x1348(%rbp)
   106e4:	48 8d 85 48 e5 ff ff 	lea    -0x1ab8(%rbp),%rax
   106eb:	48 89 85 c0 ec ff ff 	mov    %rax,-0x1340(%rbp)
   106f2:	48 8d 85 48 e5 ff ff 	lea    -0x1ab8(%rbp),%rax
   106f9:	48 89 85 c8 ec ff ff 	mov    %rax,-0x1338(%rbp)
   10700:	48 8d 85 48 e5 ff ff 	lea    -0x1ab8(%rbp),%rax
   10707:	48 89 85 d0 ec ff ff 	mov    %rax,-0x1330(%rbp)
   1070e:	48 8d 85 48 e5 ff ff 	lea    -0x1ab8(%rbp),%rax
   10715:	48 89 85 d8 ec ff ff 	mov    %rax,-0x1328(%rbp)
   1071c:	48 8d 85 48 e5 ff ff 	lea    -0x1ab8(%rbp),%rax
   10723:	48 89 85 e0 ec ff ff 	mov    %rax,-0x1320(%rbp)
   1072a:	48 8d 85 48 e5 ff ff 	lea    -0x1ab8(%rbp),%rax
   10731:	48 89 85 e8 ec ff ff 	mov    %rax,-0x1318(%rbp)
   10738:	48 8d 85 48 e5 ff ff 	lea    -0x1ab8(%rbp),%rax
   1073f:	48 89 85 f0 ec ff ff 	mov    %rax,-0x1310(%rbp)
   10746:	48 8d 85 48 e5 ff ff 	lea    -0x1ab8(%rbp),%rax
   1074d:	48 89 85 f8 ec ff ff 	mov    %rax,-0x1308(%rbp)
   10754:	48 8d 85 48 e5 ff ff 	lea    -0x1ab8(%rbp),%rax
   1075b:	48 89 85 00 ed ff ff 	mov    %rax,-0x1300(%rbp)
   10762:	48 8d 85 48 e5 ff ff 	lea    -0x1ab8(%rbp),%rax
   10769:	48 89 85 08 ed ff ff 	mov    %rax,-0x12f8(%rbp)
   10770:	48 8d 85 48 e5 ff ff 	lea    -0x1ab8(%rbp),%rax
   10777:	48 89 85 10 ed ff ff 	mov    %rax,-0x12f0(%rbp)
   1077e:	48 8d 85 48 e5 ff ff 	lea    -0x1ab8(%rbp),%rax
   10785:	48 89 85 18 ed ff ff 	mov    %rax,-0x12e8(%rbp)
   1078c:	48 8d 85 48 e5 ff ff 	lea    -0x1ab8(%rbp),%rax
   10793:	48 89 85 20 ed ff ff 	mov    %rax,-0x12e0(%rbp)
   1079a:	48 8d 85 48 e5 ff ff 	lea    -0x1ab8(%rbp),%rax
   107a1:	48 89 85 28 ed ff ff 	mov    %rax,-0x12d8(%rbp)
   107a8:	c6 85 2e e4 ff ff f7 	movb   $0xf7,-0x1bd2(%rbp)
   107af:	48 8d 85 c0 f7 ff ff 	lea    -0x840(%rbp),%rax
   107b6:	48 8d 15 83 7d 00 00 	lea    0x7d83(%rip),%rdx        # 18540 <g_3304+0x358>
   107bd:	b9 00 01 00 00       	mov    $0x100,%ecx
   107c2:	48 89 c7             	mov    %rax,%rdi
   107c5:	48 89 d6             	mov    %rdx,%rsi
   107c8:	f3 48 a5             	rep movsq %ds:(%rsi),%es:(%rdi)
   107cb:	48 8d 05 1e 87 00 00 	lea    0x871e(%rip),%rax        # 18ef0 <g_124+0x190>
   107d2:	48 89 85 a0 e6 ff ff 	mov    %rax,-0x1960(%rbp)
   107d9:	48 c7 85 10 e4 ff ff 	movq   $0x3,-0x1bf0(%rbp)
   107e0:	03 00 00 00 
   107e4:	e9 b7 12 00 00       	jmpq   11aa0 <func_56+0x35a5>
   107e9:	48 8d 85 30 ed ff ff 	lea    -0x12d0(%rbp),%rax
   107f0:	48 05 04 01 00 00    	add    $0x104,%rax
   107f6:	48 89 85 60 f2 ff ff 	mov    %rax,-0xda0(%rbp)
   107fd:	48 8d 85 30 ed ff ff 	lea    -0x12d0(%rbp),%rax
   10804:	48 05 ea 00 00 00    	add    $0xea,%rax
   1080a:	48 89 85 68 f2 ff ff 	mov    %rax,-0xd98(%rbp)
   10811:	48 8d 85 30 ed ff ff 	lea    -0x12d0(%rbp),%rax
   10818:	48 05 04 01 00 00    	add    $0x104,%rax
   1081e:	48 89 85 70 f2 ff ff 	mov    %rax,-0xd90(%rbp)
   10825:	48 8d 85 30 ed ff ff 	lea    -0x12d0(%rbp),%rax
   1082c:	48 05 04 01 00 00    	add    $0x104,%rax
   10832:	48 89 85 78 f2 ff ff 	mov    %rax,-0xd88(%rbp)
   10839:	48 8d 85 30 ed ff ff 	lea    -0x12d0(%rbp),%rax
   10840:	48 05 ea 00 00 00    	add    $0xea,%rax
   10846:	48 89 85 80 f2 ff ff 	mov    %rax,-0xd80(%rbp)
   1084d:	48 8d 85 30 ed ff ff 	lea    -0x12d0(%rbp),%rax
   10854:	48 05 04 01 00 00    	add    $0x104,%rax
   1085a:	48 89 85 88 f2 ff ff 	mov    %rax,-0xd78(%rbp)
   10861:	48 8d 85 30 ed ff ff 	lea    -0x12d0(%rbp),%rax
   10868:	48 05 04 01 00 00    	add    $0x104,%rax
   1086e:	48 89 85 90 f2 ff ff 	mov    %rax,-0xd70(%rbp)
   10875:	48 8d 85 30 ed ff ff 	lea    -0x12d0(%rbp),%rax
   1087c:	48 05 ea 00 00 00    	add    $0xea,%rax
   10882:	48 89 85 98 f2 ff ff 	mov    %rax,-0xd68(%rbp)
   10889:	48 8d 85 30 ed ff ff 	lea    -0x12d0(%rbp),%rax
   10890:	48 05 04 01 00 00    	add    $0x104,%rax
   10896:	48 89 85 a0 f2 ff ff 	mov    %rax,-0xd60(%rbp)
   1089d:	48 8d 85 30 ed ff ff 	lea    -0x12d0(%rbp),%rax
   108a4:	48 05 04 01 00 00    	add    $0x104,%rax
   108aa:	48 89 85 a8 f2 ff ff 	mov    %rax,-0xd58(%rbp)
   108b1:	48 8d 85 30 ed ff ff 	lea    -0x12d0(%rbp),%rax
   108b8:	48 05 ea 00 00 00    	add    $0xea,%rax
   108be:	48 89 85 b0 f2 ff ff 	mov    %rax,-0xd50(%rbp)
   108c5:	48 8d 85 30 ed ff ff 	lea    -0x12d0(%rbp),%rax
   108cc:	48 05 04 01 00 00    	add    $0x104,%rax
   108d2:	48 89 85 b8 f2 ff ff 	mov    %rax,-0xd48(%rbp)
   108d9:	48 8d 85 30 ed ff ff 	lea    -0x12d0(%rbp),%rax
   108e0:	48 05 04 01 00 00    	add    $0x104,%rax
   108e6:	48 89 85 c0 f2 ff ff 	mov    %rax,-0xd40(%rbp)
   108ed:	48 8d 85 30 ed ff ff 	lea    -0x12d0(%rbp),%rax
   108f4:	48 05 ea 00 00 00    	add    $0xea,%rax
   108fa:	48 89 85 c8 f2 ff ff 	mov    %rax,-0xd38(%rbp)
   10901:	48 8d 85 30 ed ff ff 	lea    -0x12d0(%rbp),%rax
   10908:	48 05 04 01 00 00    	add    $0x104,%rax
   1090e:	48 89 85 d0 f2 ff ff 	mov    %rax,-0xd30(%rbp)
   10915:	48 8d 85 30 ed ff ff 	lea    -0x12d0(%rbp),%rax
   1091c:	48 05 04 01 00 00    	add    $0x104,%rax
   10922:	48 89 85 d8 f2 ff ff 	mov    %rax,-0xd28(%rbp)
   10929:	48 8d 85 30 ed ff ff 	lea    -0x12d0(%rbp),%rax
   10930:	48 05 ea 00 00 00    	add    $0xea,%rax
   10936:	48 89 85 e0 f2 ff ff 	mov    %rax,-0xd20(%rbp)
   1093d:	48 8d 85 30 ed ff ff 	lea    -0x12d0(%rbp),%rax
   10944:	48 05 04 01 00 00    	add    $0x104,%rax
   1094a:	48 89 85 e8 f2 ff ff 	mov    %rax,-0xd18(%rbp)
   10951:	48 8d 85 30 ed ff ff 	lea    -0x12d0(%rbp),%rax
   10958:	48 05 04 01 00 00    	add    $0x104,%rax
   1095e:	48 89 85 f0 f2 ff ff 	mov    %rax,-0xd10(%rbp)
   10965:	48 8d 85 30 ed ff ff 	lea    -0x12d0(%rbp),%rax
   1096c:	48 05 ea 00 00 00    	add    $0xea,%rax
   10972:	48 89 85 f8 f2 ff ff 	mov    %rax,-0xd08(%rbp)
   10979:	48 8d 85 30 ed ff ff 	lea    -0x12d0(%rbp),%rax
   10980:	48 05 04 01 00 00    	add    $0x104,%rax
   10986:	48 89 85 00 f3 ff ff 	mov    %rax,-0xd00(%rbp)
   1098d:	48 8d 85 30 ed ff ff 	lea    -0x12d0(%rbp),%rax
   10994:	48 05 04 01 00 00    	add    $0x104,%rax
   1099a:	48 89 85 08 f3 ff ff 	mov    %rax,-0xcf8(%rbp)
   109a1:	48 8d 85 30 ed ff ff 	lea    -0x12d0(%rbp),%rax
   109a8:	48 05 ea 00 00 00    	add    $0xea,%rax
   109ae:	48 89 85 10 f3 ff ff 	mov    %rax,-0xcf0(%rbp)
   109b5:	48 8d 85 30 ed ff ff 	lea    -0x12d0(%rbp),%rax
   109bc:	48 05 04 01 00 00    	add    $0x104,%rax
   109c2:	48 89 85 18 f3 ff ff 	mov    %rax,-0xce8(%rbp)
   109c9:	48 8d 85 30 ed ff ff 	lea    -0x12d0(%rbp),%rax
   109d0:	48 05 04 01 00 00    	add    $0x104,%rax
   109d6:	48 89 85 20 f3 ff ff 	mov    %rax,-0xce0(%rbp)
   109dd:	48 8d 85 30 ed ff ff 	lea    -0x12d0(%rbp),%rax
   109e4:	48 05 ea 00 00 00    	add    $0xea,%rax
   109ea:	48 89 85 28 f3 ff ff 	mov    %rax,-0xcd8(%rbp)
   109f1:	48 8d 85 30 ed ff ff 	lea    -0x12d0(%rbp),%rax
   109f8:	48 05 04 01 00 00    	add    $0x104,%rax
   109fe:	48 89 85 30 f3 ff ff 	mov    %rax,-0xcd0(%rbp)
   10a05:	48 8d 85 30 ed ff ff 	lea    -0x12d0(%rbp),%rax
   10a0c:	48 05 04 01 00 00    	add    $0x104,%rax
   10a12:	48 89 85 38 f3 ff ff 	mov    %rax,-0xcc8(%rbp)
   10a19:	48 8d 85 30 ed ff ff 	lea    -0x12d0(%rbp),%rax
   10a20:	48 05 ea 00 00 00    	add    $0xea,%rax
   10a26:	48 89 85 40 f3 ff ff 	mov    %rax,-0xcc0(%rbp)
   10a2d:	48 8d 85 30 ed ff ff 	lea    -0x12d0(%rbp),%rax
   10a34:	48 05 04 01 00 00    	add    $0x104,%rax
   10a3a:	48 89 85 48 f3 ff ff 	mov    %rax,-0xcb8(%rbp)
   10a41:	48 8d 85 30 ed ff ff 	lea    -0x12d0(%rbp),%rax
   10a48:	48 05 04 01 00 00    	add    $0x104,%rax
   10a4e:	48 89 85 50 f3 ff ff 	mov    %rax,-0xcb0(%rbp)
   10a55:	48 8d 85 30 ed ff ff 	lea    -0x12d0(%rbp),%rax
   10a5c:	48 05 ea 00 00 00    	add    $0xea,%rax
   10a62:	48 89 85 58 f3 ff ff 	mov    %rax,-0xca8(%rbp)
   10a69:	48 8d 85 30 ed ff ff 	lea    -0x12d0(%rbp),%rax
   10a70:	48 05 04 01 00 00    	add    $0x104,%rax
   10a76:	48 89 85 60 f3 ff ff 	mov    %rax,-0xca0(%rbp)
   10a7d:	48 8d 85 30 ed ff ff 	lea    -0x12d0(%rbp),%rax
   10a84:	48 05 04 01 00 00    	add    $0x104,%rax
   10a8a:	48 89 85 68 f3 ff ff 	mov    %rax,-0xc98(%rbp)
   10a91:	48 8d 85 30 ed ff ff 	lea    -0x12d0(%rbp),%rax
   10a98:	48 05 ea 00 00 00    	add    $0xea,%rax
   10a9e:	48 89 85 70 f3 ff ff 	mov    %rax,-0xc90(%rbp)
   10aa5:	48 8d 85 30 ed ff ff 	lea    -0x12d0(%rbp),%rax
   10aac:	48 05 04 01 00 00    	add    $0x104,%rax
   10ab2:	48 89 85 78 f3 ff ff 	mov    %rax,-0xc88(%rbp)
   10ab9:	48 8d 85 30 ed ff ff 	lea    -0x12d0(%rbp),%rax
   10ac0:	48 05 04 01 00 00    	add    $0x104,%rax
   10ac6:	48 89 85 80 f3 ff ff 	mov    %rax,-0xc80(%rbp)
   10acd:	48 8d 85 30 ed ff ff 	lea    -0x12d0(%rbp),%rax
   10ad4:	48 05 ea 00 00 00    	add    $0xea,%rax
   10ada:	48 89 85 88 f3 ff ff 	mov    %rax,-0xc78(%rbp)
   10ae1:	48 8d 85 30 ed ff ff 	lea    -0x12d0(%rbp),%rax
   10ae8:	48 05 04 01 00 00    	add    $0x104,%rax
   10aee:	48 89 85 90 f3 ff ff 	mov    %rax,-0xc70(%rbp)
   10af5:	48 8d 85 30 ed ff ff 	lea    -0x12d0(%rbp),%rax
   10afc:	48 05 04 01 00 00    	add    $0x104,%rax
   10b02:	48 89 85 98 f3 ff ff 	mov    %rax,-0xc68(%rbp)
   10b09:	48 8d 85 30 ed ff ff 	lea    -0x12d0(%rbp),%rax
   10b10:	48 05 ea 00 00 00    	add    $0xea,%rax
   10b16:	48 89 85 a0 f3 ff ff 	mov    %rax,-0xc60(%rbp)
   10b1d:	48 8d 85 30 ed ff ff 	lea    -0x12d0(%rbp),%rax
   10b24:	48 05 04 01 00 00    	add    $0x104,%rax
   10b2a:	48 89 85 a8 f3 ff ff 	mov    %rax,-0xc58(%rbp)
   10b31:	48 8d 85 30 ed ff ff 	lea    -0x12d0(%rbp),%rax
   10b38:	48 05 04 01 00 00    	add    $0x104,%rax
   10b3e:	48 89 85 b0 f3 ff ff 	mov    %rax,-0xc50(%rbp)
   10b45:	48 8d 85 30 ed ff ff 	lea    -0x12d0(%rbp),%rax
   10b4c:	48 05 ea 00 00 00    	add    $0xea,%rax
   10b52:	48 89 85 b8 f3 ff ff 	mov    %rax,-0xc48(%rbp)
   10b59:	48 8d 85 30 ed ff ff 	lea    -0x12d0(%rbp),%rax
   10b60:	48 05 04 01 00 00    	add    $0x104,%rax
   10b66:	48 89 85 c0 f3 ff ff 	mov    %rax,-0xc40(%rbp)
   10b6d:	48 8d 85 30 ed ff ff 	lea    -0x12d0(%rbp),%rax
   10b74:	48 05 04 01 00 00    	add    $0x104,%rax
   10b7a:	48 89 85 c8 f3 ff ff 	mov    %rax,-0xc38(%rbp)
   10b81:	48 8d 85 30 ed ff ff 	lea    -0x12d0(%rbp),%rax
   10b88:	48 05 ea 00 00 00    	add    $0xea,%rax
   10b8e:	48 89 85 d0 f3 ff ff 	mov    %rax,-0xc30(%rbp)
   10b95:	48 8d 85 30 ed ff ff 	lea    -0x12d0(%rbp),%rax
   10b9c:	48 05 04 01 00 00    	add    $0x104,%rax
   10ba2:	48 89 85 d8 f3 ff ff 	mov    %rax,-0xc28(%rbp)
   10ba9:	48 8d 85 30 ed ff ff 	lea    -0x12d0(%rbp),%rax
   10bb0:	48 05 04 01 00 00    	add    $0x104,%rax
   10bb6:	48 89 85 e0 f3 ff ff 	mov    %rax,-0xc20(%rbp)
   10bbd:	48 8d 85 30 ed ff ff 	lea    -0x12d0(%rbp),%rax
   10bc4:	48 05 ea 00 00 00    	add    $0xea,%rax
   10bca:	48 89 85 e8 f3 ff ff 	mov    %rax,-0xc18(%rbp)
   10bd1:	48 8d 85 30 ed ff ff 	lea    -0x12d0(%rbp),%rax
   10bd8:	48 05 04 01 00 00    	add    $0x104,%rax
   10bde:	48 89 85 f0 f3 ff ff 	mov    %rax,-0xc10(%rbp)
   10be5:	48 8d 85 30 ed ff ff 	lea    -0x12d0(%rbp),%rax
   10bec:	48 05 04 01 00 00    	add    $0x104,%rax
   10bf2:	48 89 85 f8 f3 ff ff 	mov    %rax,-0xc08(%rbp)
   10bf9:	48 8d 85 30 ed ff ff 	lea    -0x12d0(%rbp),%rax
   10c00:	48 05 ea 00 00 00    	add    $0xea,%rax
   10c06:	48 89 85 00 f4 ff ff 	mov    %rax,-0xc00(%rbp)
   10c0d:	48 8d 85 30 ed ff ff 	lea    -0x12d0(%rbp),%rax
   10c14:	48 05 04 01 00 00    	add    $0x104,%rax
   10c1a:	48 89 85 08 f4 ff ff 	mov    %rax,-0xbf8(%rbp)
   10c21:	48 8d 85 30 ed ff ff 	lea    -0x12d0(%rbp),%rax
   10c28:	48 05 04 01 00 00    	add    $0x104,%rax
   10c2e:	48 89 85 10 f4 ff ff 	mov    %rax,-0xbf0(%rbp)
   10c35:	48 8d 85 30 ed ff ff 	lea    -0x12d0(%rbp),%rax
   10c3c:	48 05 ea 00 00 00    	add    $0xea,%rax
   10c42:	48 89 85 18 f4 ff ff 	mov    %rax,-0xbe8(%rbp)
   10c49:	48 8d 85 30 ed ff ff 	lea    -0x12d0(%rbp),%rax
   10c50:	48 05 04 01 00 00    	add    $0x104,%rax
   10c56:	48 89 85 20 f4 ff ff 	mov    %rax,-0xbe0(%rbp)
   10c5d:	48 8d 85 30 ed ff ff 	lea    -0x12d0(%rbp),%rax
   10c64:	48 05 04 01 00 00    	add    $0x104,%rax
   10c6a:	48 89 85 28 f4 ff ff 	mov    %rax,-0xbd8(%rbp)
   10c71:	48 8d 85 30 ed ff ff 	lea    -0x12d0(%rbp),%rax
   10c78:	48 05 ea 00 00 00    	add    $0xea,%rax
   10c7e:	48 89 85 30 f4 ff ff 	mov    %rax,-0xbd0(%rbp)
   10c85:	48 8d 85 30 ed ff ff 	lea    -0x12d0(%rbp),%rax
   10c8c:	48 05 04 01 00 00    	add    $0x104,%rax
   10c92:	48 89 85 38 f4 ff ff 	mov    %rax,-0xbc8(%rbp)
   10c99:	48 8d 85 30 ed ff ff 	lea    -0x12d0(%rbp),%rax
   10ca0:	48 05 04 01 00 00    	add    $0x104,%rax
   10ca6:	48 89 85 40 f4 ff ff 	mov    %rax,-0xbc0(%rbp)
   10cad:	48 8d 85 30 ed ff ff 	lea    -0x12d0(%rbp),%rax
   10cb4:	48 05 ea 00 00 00    	add    $0xea,%rax
   10cba:	48 89 85 48 f4 ff ff 	mov    %rax,-0xbb8(%rbp)
   10cc1:	48 8d 85 30 ed ff ff 	lea    -0x12d0(%rbp),%rax
   10cc8:	48 05 04 01 00 00    	add    $0x104,%rax
   10cce:	48 89 85 50 f4 ff ff 	mov    %rax,-0xbb0(%rbp)
   10cd5:	48 8d 85 30 ed ff ff 	lea    -0x12d0(%rbp),%rax
   10cdc:	48 05 04 01 00 00    	add    $0x104,%rax
   10ce2:	48 89 85 58 f4 ff ff 	mov    %rax,-0xba8(%rbp)
   10ce9:	48 8d 85 30 ed ff ff 	lea    -0x12d0(%rbp),%rax
   10cf0:	48 05 ea 00 00 00    	add    $0xea,%rax
   10cf6:	48 89 85 60 f4 ff ff 	mov    %rax,-0xba0(%rbp)
   10cfd:	48 8d 85 30 ed ff ff 	lea    -0x12d0(%rbp),%rax
   10d04:	48 05 04 01 00 00    	add    $0x104,%rax
   10d0a:	48 89 85 68 f4 ff ff 	mov    %rax,-0xb98(%rbp)
   10d11:	48 8d 85 30 ed ff ff 	lea    -0x12d0(%rbp),%rax
   10d18:	48 05 04 01 00 00    	add    $0x104,%rax
   10d1e:	48 89 85 70 f4 ff ff 	mov    %rax,-0xb90(%rbp)
   10d25:	48 8d 85 30 ed ff ff 	lea    -0x12d0(%rbp),%rax
   10d2c:	48 05 ea 00 00 00    	add    $0xea,%rax
   10d32:	48 89 85 78 f4 ff ff 	mov    %rax,-0xb88(%rbp)
   10d39:	48 8d 85 30 ed ff ff 	lea    -0x12d0(%rbp),%rax
   10d40:	48 05 04 01 00 00    	add    $0x104,%rax
   10d46:	48 89 85 80 f4 ff ff 	mov    %rax,-0xb80(%rbp)
   10d4d:	48 8d 85 30 ed ff ff 	lea    -0x12d0(%rbp),%rax
   10d54:	48 05 04 01 00 00    	add    $0x104,%rax
   10d5a:	48 89 85 88 f4 ff ff 	mov    %rax,-0xb78(%rbp)
   10d61:	48 8d 85 30 ed ff ff 	lea    -0x12d0(%rbp),%rax
   10d68:	48 05 ea 00 00 00    	add    $0xea,%rax
   10d6e:	48 89 85 90 f4 ff ff 	mov    %rax,-0xb70(%rbp)
   10d75:	48 8d 85 30 ed ff ff 	lea    -0x12d0(%rbp),%rax
   10d7c:	48 05 04 01 00 00    	add    $0x104,%rax
   10d82:	48 89 85 98 f4 ff ff 	mov    %rax,-0xb68(%rbp)
   10d89:	48 8d 85 60 f2 ff ff 	lea    -0xda0(%rbp),%rax
   10d90:	48 89 85 50 e5 ff ff 	mov    %rax,-0x1ab0(%rbp)
   10d97:	48 8d 05 ba 84 00 00 	lea    0x84ba(%rip),%rax        # 19258 <g_124+0x4f8>
   10d9e:	48 89 85 d0 e6 ff ff 	mov    %rax,-0x1930(%rbp)
   10da5:	c7 85 04 e5 ff ff 09 	movl   $0x9,-0x1afc(%rbp)
   10dac:	00 00 00 
   10daf:	48 8d 05 92 72 00 00 	lea    0x7292(%rip),%rax        # 18048 <g_119>
   10db6:	48 89 85 d8 e6 ff ff 	mov    %rax,-0x1928(%rbp)
   10dbd:	48 8d 05 2c 81 00 00 	lea    0x812c(%rip),%rax        # 18ef0 <g_124+0x190>
   10dc4:	48 89 85 e0 e6 ff ff 	mov    %rax,-0x1920(%rbp)
   10dcb:	48 8d 05 56 8e 00 00 	lea    0x8e56(%rip),%rax        # 19c28 <g_99>
   10dd2:	48 89 85 e8 e6 ff ff 	mov    %rax,-0x1918(%rbp)
   10dd9:	c7 85 08 e5 ff ff 6b 	movl   $0xbc01726b,-0x1af8(%rbp)
   10de0:	72 01 bc 
   10de3:	c7 85 0c e5 ff ff 35 	movl   $0x8593ef35,-0x1af4(%rbp)
   10dea:	ef 93 85 
   10ded:	c7 85 10 e5 ff ff 8d 	movl   $0x228a0b8d,-0x1af0(%rbp)
   10df4:	0b 8a 22 
   10df7:	c7 85 14 e5 ff ff 00 	movl   $0xf5817b00,-0x1aec(%rbp)
   10dfe:	7b 81 f5 
   10e01:	c7 85 18 e5 ff ff 00 	movl   $0x0,-0x1ae8(%rbp)
   10e08:	00 00 00 
   10e0b:	c7 85 1c e5 ff ff 4f 	movl   $0xf0b8db4f,-0x1ae4(%rbp)
   10e12:	db b8 f0 
   10e15:	c7 85 20 e5 ff ff 01 	movl   $0x1,-0x1ae0(%rbp)
   10e1c:	00 00 00 
   10e1f:	48 8b 05 f2 84 00 00 	mov    0x84f2(%rip),%rax        # 19318 <g_412>
   10e26:	48 89 05 eb 84 00 00 	mov    %rax,0x84eb(%rip)        # 19318 <g_412>
   10e2d:	48 8b 85 50 e5 ff ff 	mov    -0x1ab0(%rbp),%rax
   10e34:	48 8b 95 60 f2 ff ff 	mov    -0xda0(%rbp),%rdx
   10e3b:	48 89 10             	mov    %rdx,(%rax)
   10e3e:	8b 85 1c e4 ff ff    	mov    -0x1be4(%rbp),%eax
   10e44:	85 c0                	test   %eax,%eax
   10e46:	0f 84 d0 00 00 00    	je     10f1c <func_56+0x2a21>
   10e4c:	0f b6 05 2e 72 00 00 	movzbl 0x722e(%rip),%eax        # 18081 <g_279>
   10e53:	0f be d8             	movsbl %al,%ebx
   10e56:	0f b6 05 cf 8d 00 00 	movzbl 0x8dcf(%rip),%eax        # 19c2c <g_115>
   10e5d:	0f b6 d0             	movzbl %al,%edx
   10e60:	0f b7 05 29 72 00 00 	movzwl 0x7229(%rip),%eax        # 18090 <g_413>
   10e67:	0f b7 c8             	movzwl %ax,%ecx
   10e6a:	8b 85 64 e4 ff ff    	mov    -0x1b9c(%rbp),%eax
   10e70:	39 c1                	cmp    %eax,%ecx
   10e72:	0f 93 c0             	setae  %al
   10e75:	0f b6 c8             	movzbl %al,%ecx
   10e78:	8b 85 1c e4 ff ff    	mov    -0x1be4(%rbp),%eax
   10e7e:	39 c1                	cmp    %eax,%ecx
   10e80:	0f 9f c0             	setg   %al
   10e83:	0f b6 c8             	movzbl %al,%ecx
   10e86:	8b 85 64 e4 ff ff    	mov    -0x1b9c(%rbp),%eax
   10e8c:	39 c1                	cmp    %eax,%ecx
   10e8e:	0f 94 c0             	sete   %al
   10e91:	0f b6 c8             	movzbl %al,%ecx
   10e94:	48 8b 85 00 f2 ff ff 	mov    -0xe00(%rbp),%rax
   10e9b:	48 39 c1             	cmp    %rax,%rcx
   10e9e:	0f 95 c0             	setne  %al
   10ea1:	89 c1                	mov    %eax,%ecx
   10ea3:	8b 85 04 e5 ff ff    	mov    -0x1afc(%rbp),%eax
   10ea9:	21 c8                	and    %ecx,%eax
   10eab:	0f b6 c0             	movzbl %al,%eax
   10eae:	89 d6                	mov    %edx,%esi
   10eb0:	89 c7                	mov    %eax,%edi
   10eb2:	e8 c1 3c ff ff       	callq  4b78 <safe_sub_func_uint8_t_u_u>
   10eb7:	0f b6 d0             	movzbl %al,%edx
   10eba:	8b 85 1c e4 ff ff    	mov    -0x1be4(%rbp),%eax
   10ec0:	39 c2                	cmp    %eax,%edx
   10ec2:	0f 95 c0             	setne  %al
   10ec5:	0f b6 c0             	movzbl %al,%eax
   10ec8:	48 39 85 10 e4 ff ff 	cmp    %rax,-0x1bf0(%rbp)
   10ecf:	0f 94 c0             	sete   %al
   10ed2:	0f b6 c0             	movzbl %al,%eax
   10ed5:	39 85 04 e5 ff ff    	cmp    %eax,-0x1afc(%rbp)
   10edb:	0f 9f c0             	setg   %al
   10ede:	0f b6 c0             	movzbl %al,%eax
   10ee1:	39 c3                	cmp    %eax,%ebx
   10ee3:	0f 95 c0             	setne  %al
   10ee6:	0f b6 c0             	movzbl %al,%eax
   10ee9:	89 c2                	mov    %eax,%edx
   10eeb:	48 8b 85 d8 e6 ff ff 	mov    -0x1928(%rbp),%rax
   10ef2:	89 10                	mov    %edx,(%rax)
   10ef4:	be 08 00 00 00       	mov    $0x8,%esi
   10ef9:	bf 49 51 00 00       	mov    $0x5149,%edi
   10efe:	e8 77 3f ff ff       	callq  4e7a <safe_rshift_func_uint16_t_u_u>
   10f03:	0f b7 c0             	movzwl %ax,%eax
   10f06:	8b 95 64 e4 ff ff    	mov    -0x1b9c(%rbp),%edx
   10f0c:	89 d2                	mov    %edx,%edx
   10f0e:	48 89 c6             	mov    %rax,%rsi
   10f11:	48 89 d7             	mov    %rdx,%rdi
   10f14:	e8 67 41 ff ff       	callq  5080 <safe_mod_func_uint64_t_u_u>
   10f19:	48 85 c0             	test   %rax,%rax
   10f1c:	48 83 bd 10 e4 ff ff 	cmpq   $0x0,-0x1bf0(%rbp)
   10f23:	00 
   10f24:	74 07                	je     10f2d <func_56+0x2a32>
   10f26:	ba 01 00 00 00       	mov    $0x1,%edx
   10f2b:	eb 05                	jmp    10f32 <func_56+0x2a37>
   10f2d:	ba 00 00 00 00       	mov    $0x0,%edx
   10f32:	48 8b 85 e8 e6 ff ff 	mov    -0x1918(%rbp),%rax
   10f39:	89 10                	mov    %edx,(%rax)
   10f3b:	c7 05 fb 70 00 00 00 	movl   $0x0,0x70fb(%rip)        # 18040 <g_94>
   10f42:	00 00 00 
   10f45:	e9 3f 0b 00 00       	jmpq   11a89 <func_56+0x358e>
   10f4a:	c7 85 9c e4 ff ff 7e 	movl   $0x28680b7e,-0x1b64(%rbp)
   10f51:	0b 68 28 
   10f54:	48 8d 05 f5 70 00 00 	lea    0x70f5(%rip),%rax        # 18050 <g_153>
   10f5b:	48 89 85 58 e5 ff ff 	mov    %rax,-0x1aa8(%rbp)
   10f62:	48 8d 85 58 e5 ff ff 	lea    -0x1aa8(%rbp),%rax
   10f69:	48 89 85 f0 e6 ff ff 	mov    %rax,-0x1910(%rbp)
   10f70:	48 8d 05 ed 70 00 00 	lea    0x70ed(%rip),%rax        # 18064 <g_211+0x4>
   10f77:	48 89 85 60 e5 ff ff 	mov    %rax,-0x1aa0(%rbp)
   10f7e:	c7 85 80 e4 ff ff 00 	movl   $0x0,-0x1b80(%rbp)
   10f85:	00 00 00 
   10f88:	eb 1a                	jmp    10fa4 <func_56+0x2aa9>
   10f8a:	8b 85 80 e4 ff ff    	mov    -0x1b80(%rbp),%eax
   10f90:	48 98                	cltq   
   10f92:	c7 84 85 e0 e7 ff ff 	movl   $0xfffffffe,-0x1820(%rbp,%rax,4)
   10f99:	fe ff ff ff 
   10f9d:	83 85 80 e4 ff ff 01 	addl   $0x1,-0x1b80(%rbp)
   10fa4:	83 bd 80 e4 ff ff 05 	cmpl   $0x5,-0x1b80(%rbp)
   10fab:	7e dd                	jle    10f8a <func_56+0x2a8f>
   10fad:	c7 85 80 e4 ff ff 00 	movl   $0x0,-0x1b80(%rbp)
   10fb4:	00 00 00 
   10fb7:	eb 1e                	jmp    10fd7 <func_56+0x2adc>
   10fb9:	8b 85 80 e4 ff ff    	mov    -0x1b80(%rbp),%eax
   10fbf:	48 98                	cltq   
   10fc1:	48 8d 95 50 e5 ff ff 	lea    -0x1ab0(%rbp),%rdx
   10fc8:	48 89 94 c5 d0 e8 ff 	mov    %rdx,-0x1730(%rbp,%rax,8)
   10fcf:	ff 
   10fd0:	83 85 80 e4 ff ff 01 	addl   $0x1,-0x1b80(%rbp)
   10fd7:	83 bd 80 e4 ff ff 06 	cmpl   $0x6,-0x1b80(%rbp)
   10fde:	7e d9                	jle    10fb9 <func_56+0x2abe>
   10fe0:	48 8b 85 a8 e9 ff ff 	mov    -0x1658(%rbp),%rax
   10fe7:	48 89 85 e8 e6 ff ff 	mov    %rax,-0x1918(%rbp)
   10fee:	c6 85 2b e4 ff ff 03 	movb   $0x3,-0x1bd5(%rbp)
   10ff5:	e9 95 05 00 00       	jmpq   1158f <func_56+0x3094>
   10ffa:	66 c7 85 c0 ee ff ff 	movw   $0x3005,-0x1140(%rbp)
   11001:	05 30 
   11003:	c6 85 c2 ee ff ff a8 	movb   $0xa8,-0x113e(%rbp)
   1100a:	66 c7 85 c3 ee ff ff 	movw   $0xbca6,-0x113d(%rbp)
   11011:	a6 bc 
   11013:	c6 85 c5 ee ff ff a3 	movb   $0xa3,-0x113b(%rbp)
   1101a:	66 c7 85 c6 ee ff ff 	movw   $0x5705,-0x113a(%rbp)
   11021:	05 57 
   11023:	c6 85 c8 ee ff ff 09 	movb   $0x9,-0x1138(%rbp)
   1102a:	66 c7 85 c9 ee ff ff 	movw   $0xf801,-0x1137(%rbp)
   11031:	01 f8 
   11033:	c6 85 cb ee ff ff f9 	movb   $0xf9,-0x1135(%rbp)
   1103a:	66 c7 85 cc ee ff ff 	movw   $0xaa00,-0x1134(%rbp)
   11041:	00 aa 
   11043:	c6 85 ce ee ff ff 06 	movb   $0x6,-0x1132(%rbp)
   1104a:	66 c7 85 cf ee ff ff 	movw   $0xf5fc,-0x1131(%rbp)
   11051:	fc f5 
   11053:	c6 85 d1 ee ff ff f5 	movb   $0xf5,-0x112f(%rbp)
   1105a:	66 c7 85 d2 ee ff ff 	movw   $0x1,-0x112e(%rbp)
   11061:	01 00 
   11063:	c6 85 d4 ee ff ff a4 	movb   $0xa4,-0x112c(%rbp)
   1106a:	66 c7 85 d5 ee ff ff 	movw   $0xd9,-0x112b(%rbp)
   11071:	d9 00 
   11073:	c6 85 d7 ee ff ff fc 	movb   $0xfc,-0x1129(%rbp)
   1107a:	66 c7 85 d8 ee ff ff 	movw   $0xd200,-0x1128(%rbp)
   11081:	00 d2 
   11083:	c6 85 da ee ff ff fe 	movb   $0xfe,-0x1126(%rbp)
   1108a:	66 c7 85 db ee ff ff 	movw   $0x9111,-0x1125(%rbp)
   11091:	11 91 
   11093:	c6 85 dd ee ff ff f8 	movb   $0xf8,-0x1123(%rbp)
   1109a:	66 c7 85 de ee ff ff 	movw   $0xd211,-0x1122(%rbp)
   110a1:	11 d2 
   110a3:	c6 85 e0 ee ff ff 64 	movb   $0x64,-0x1120(%rbp)
   110aa:	66 c7 85 e1 ee ff ff 	movw   $0xa6,-0x111f(%rbp)
   110b1:	a6 00 
   110b3:	c6 85 e3 ee ff ff d2 	movb   $0xd2,-0x111d(%rbp)
   110ba:	66 c7 85 e4 ee ff ff 	movw   $0xbe,-0x111c(%rbp)
   110c1:	be 00 
   110c3:	c6 85 e6 ee ff ff 09 	movb   $0x9,-0x111a(%rbp)
   110ca:	66 c7 85 e7 ee ff ff 	movw   $0xf591,-0x1119(%rbp)
   110d1:	91 f5 
   110d3:	c6 85 e9 ee ff ff 6b 	movb   $0x6b,-0x1117(%rbp)
   110da:	66 c7 85 ea ee ff ff 	movw   $0xaa01,-0x1116(%rbp)
   110e1:	01 aa 
   110e3:	c6 85 ec ee ff ff 01 	movb   $0x1,-0x1114(%rbp)
   110ea:	66 c7 85 ed ee ff ff 	movw   $0xf8fc,-0x1113(%rbp)
   110f1:	fc f8 
   110f3:	c6 85 ef ee ff ff 84 	movb   $0x84,-0x1111(%rbp)
   110fa:	66 c7 85 f0 ee ff ff 	movw   $0x5701,-0x1110(%rbp)
   11101:	01 57 
   11103:	c6 85 f2 ee ff ff 00 	movb   $0x0,-0x110e(%rbp)
   1110a:	66 c7 85 f3 ee ff ff 	movw   $0xbcd2,-0x110d(%rbp)
   11111:	d2 bc 
   11113:	c6 85 f5 ee ff ff fc 	movb   $0xfc,-0x110b(%rbp)
   1111a:	66 c7 85 f6 ee ff ff 	movw   $0x3000,-0x110a(%rbp)
   11121:	00 30 
   11123:	c6 85 f8 ee ff ff 00 	movb   $0x0,-0x1108(%rbp)
   1112a:	66 c7 85 f9 ee ff ff 	movw   $0x9100,-0x1107(%rbp)
   11131:	00 91 
   11133:	c6 85 fb ee ff ff 84 	movb   $0x84,-0x1105(%rbp)
   1113a:	66 c7 85 fc ee ff ff 	movw   $0x5a00,-0x1104(%rbp)
   11141:	00 5a 
   11143:	c6 85 fe ee ff ff 01 	movb   $0x1,-0x1102(%rbp)
   1114a:	66 c7 85 ff ee ff ff 	movw   $0xffa6,-0x1101(%rbp)
   11151:	a6 ff 
   11153:	c6 85 01 ef ff ff 6b 	movb   $0x6b,-0x10ff(%rbp)
   1115a:	66 c7 85 02 ef ff ff 	movw   $0x4409,-0x10fe(%rbp)
   11161:	09 44 
   11163:	c6 85 04 ef ff ff 09 	movb   $0x9,-0x10fc(%rbp)
   1116a:	66 c7 85 05 ef ff ff 	movw   $0xf0fc,-0x10fb(%rbp)
   11171:	fc f0 
   11173:	c6 85 07 ef ff ff d2 	movb   $0xd2,-0x10f9(%rbp)
   1117a:	66 c7 85 08 ef ff ff 	movw   $0xaa01,-0x10f8(%rbp)
   11181:	01 aa 
   11183:	c6 85 0a ef ff ff 64 	movb   $0x64,-0x10f6(%rbp)
   1118a:	66 c7 85 0b ef ff ff 	movw   $0xa605,-0x10f5(%rbp)
   11191:	05 a6 
   11193:	c6 85 0d ef ff ff f8 	movb   $0xf8,-0x10f3(%rbp)
   1119a:	66 c7 85 0e ef ff ff 	movw   $0xf701,-0x10f2(%rbp)
   111a1:	01 f7 
   111a3:	c6 85 10 ef ff ff fe 	movb   $0xfe,-0x10f0(%rbp)
   111aa:	66 c7 85 11 ef ff ff 	movw   $0xff05,-0x10ef(%rbp)
   111b1:	05 ff 
   111b3:	c6 85 13 ef ff ff fc 	movb   $0xfc,-0x10ed(%rbp)
   111ba:	66 c7 85 14 ef ff ff 	movw   $0x3301,-0x10ec(%rbp)
   111c1:	01 33 
   111c3:	c6 85 16 ef ff ff a4 	movb   $0xa4,-0x10ea(%rbp)
   111ca:	66 c7 85 17 ef ff ff 	movw   $0x91fc,-0x10e9(%rbp)
   111d1:	fc 91 
   111d3:	c6 85 19 ef ff ff f5 	movb   $0xf5,-0x10e7(%rbp)
   111da:	66 c7 85 1a ef ff ff 	movw   $0x309,-0x10e6(%rbp)
   111e1:	09 03 
   111e3:	c6 85 1c ef ff ff 06 	movb   $0x6,-0x10e4(%rbp)
   111ea:	66 c7 85 1d ef ff ff 	movw   $0x6a6,-0x10e3(%rbp)
   111f1:	a6 06 
   111f3:	c6 85 1f ef ff ff f9 	movb   $0xf9,-0x10e1(%rbp)
   111fa:	66 c7 85 20 ef ff ff 	movw   $0xff00,-0x10e0(%rbp)
   11201:	00 ff 
   11203:	c6 85 22 ef ff ff 09 	movb   $0x9,-0x10de(%rbp)
   1120a:	66 c7 85 23 ef ff ff 	movw   $0x8400,-0x10dd(%rbp)
   11211:	00 84 
   11213:	c6 85 25 ef ff ff a3 	movb   $0xa3,-0x10db(%rbp)
   1121a:	66 c7 85 26 ef ff ff 	movw   $0xaa00,-0x10da(%rbp)
   11221:	00 aa 
   11223:	c6 85 28 ef ff ff a8 	movb   $0xa8,-0x10d8(%rbp)
   1122a:	66 c7 85 29 ef ff ff 	movw   $0x84d2,-0x10d7(%rbp)
   11231:	d2 84 
   11233:	c6 85 2b ef ff ff f0 	movb   $0xf0,-0x10d5(%rbp)
   1123a:	66 c7 85 2c ef ff ff 	movw   $0xff01,-0x10d4(%rbp)
   11241:	01 ff 
   11243:	c6 85 2e ef ff ff ff 	movb   $0xff,-0x10d2(%rbp)
   1124a:	66 c7 85 2f ef ff ff 	movw   $0x6fc,-0x10d1(%rbp)
   11251:	fc 06 
   11253:	c6 85 31 ef ff ff a3 	movb   $0xa3,-0x10cf(%rbp)
   1125a:	66 c7 85 32 ef ff ff 	movw   $0x1,-0x10ce(%rbp)
   11261:	01 00 
   11263:	c6 85 34 ef ff ff 05 	movb   $0x5,-0x10cc(%rbp)
   1126a:	66 c7 85 35 ef ff ff 	movw   $0xa6a6,-0x10cb(%rbp)
   11271:	a6 a6 
   11273:	c6 85 37 ef ff ff d2 	movb   $0xd2,-0x10c9(%rbp)
   1127a:	66 c7 85 38 ef ff ff 	movw   $0x5ff,-0x10c8(%rbp)
   11281:	ff 05 
   11283:	c6 85 3a ef ff ff 05 	movb   $0x5,-0x10c6(%rbp)
   1128a:	66 c7 85 3b ef ff ff 	movw   $0xd2,-0x10c5(%rbp)
   11291:	d2 00 
   11293:	c6 85 3d ef ff ff 00 	movb   $0x0,-0x10c3(%rbp)
   1129a:	66 c7 85 3e ef ff ff 	movw   $0xffa4,-0x10c2(%rbp)
   112a1:	a4 ff 
   112a3:	c6 85 40 ef ff ff fe 	movb   $0xfe,-0x10c0(%rbp)
   112aa:	66 c7 85 41 ef ff ff 	movw   $0xd284,-0x10bf(%rbp)
   112b1:	84 d2 
   112b3:	c6 85 43 ef ff ff 00 	movb   $0x0,-0x10bd(%rbp)
   112ba:	66 c7 85 44 ef ff ff 	movw   $0x30a8,-0x10bc(%rbp)
   112c1:	a8 30 
   112c3:	c6 85 46 ef ff ff 05 	movb   $0x5,-0x10ba(%rbp)
   112ca:	66 c7 85 47 ef ff ff 	movw   $0xfc1c,-0x10b9(%rbp)
   112d1:	1c fc 
   112d3:	c6 85 49 ef ff ff d2 	movb   $0xd2,-0x10b7(%rbp)
   112da:	66 c7 85 4a ef ff ff 	movw   $0xaa11,-0x10b6(%rbp)
   112e1:	11 aa 
   112e3:	c6 85 4c ef ff ff 05 	movb   $0x5,-0x10b4(%rbp)
   112ea:	66 c7 85 4d ef ff ff 	movw   $0x91a3,-0x10b3(%rbp)
   112f1:	a3 91 
   112f3:	c6 85 4f ef ff ff a3 	movb   $0xa3,-0x10b1(%rbp)
   112fa:	66 c7 85 50 ef ff ff 	movw   $0x4c64,-0x10b0(%rbp)
   11301:	64 4c 
   11303:	c6 85 52 ef ff ff af 	movb   $0xaf,-0x10ae(%rbp)
   1130a:	66 c7 85 53 ef ff ff 	movw   $0xa6f5,-0x10ad(%rbp)
   11311:	f5 a6 
   11313:	c6 85 55 ef ff ff fc 	movb   $0xfc,-0x10ab(%rbp)
   1131a:	66 c7 85 56 ef ff ff 	movw   $0x1ff,-0x10aa(%rbp)
   11321:	ff 01 
   11323:	c6 85 58 ef ff ff 00 	movb   $0x0,-0x10a8(%rbp)
   1132a:	66 c7 85 59 ef ff ff 	movw   $0x11d2,-0x10a7(%rbp)
   11331:	d2 11 
   11333:	c6 85 5b ef ff ff 06 	movb   $0x6,-0x10a5(%rbp)
   1133a:	66 c7 85 5c ef ff ff 	movw   $0xfdff,-0x10a4(%rbp)
   11341:	ff fd 
   11343:	c6 85 5e ef ff ff fe 	movb   $0xfe,-0x10a2(%rbp)
   1134a:	66 c7 85 5f ef ff ff 	movw   $0xd9f5,-0x10a1(%rbp)
   11351:	f5 d9 
   11353:	c6 85 61 ef ff ff ff 	movb   $0xff,-0x109f(%rbp)
   1135a:	66 c7 85 62 ef ff ff 	movw   $0x3064,-0x109e(%rbp)
   11361:	64 30 
   11363:	c6 85 64 ef ff ff 09 	movb   $0x9,-0x109c(%rbp)
   1136a:	66 c7 85 65 ef ff ff 	movw   $0xfca3,-0x109b(%rbp)
   11371:	a3 fc 
   11373:	c6 85 67 ef ff ff fc 	movb   $0xfc,-0x1099(%rbp)
   1137a:	66 c7 85 68 ef ff ff 	movw   $0x111,-0x1098(%rbp)
   11381:	11 01 
   11383:	c6 85 6a ef ff ff 9b 	movb   $0x9b,-0x1096(%rbp)
   1138a:	66 c7 85 6b ef ff ff 	movw   $0x11c,-0x1095(%rbp)
   11391:	1c 01 
   11393:	c6 85 6d ef ff ff a3 	movb   $0xa3,-0x1093(%rbp)
   1139a:	66 c7 85 6e ef ff ff 	movw   $0xf9a8,-0x1092(%rbp)
   113a1:	a8 f9 
   113a3:	c6 85 70 ef ff ff 28 	movb   $0x28,-0x1090(%rbp)
   113aa:	66 c7 85 71 ef ff ff 	movw   $0xa684,-0x108f(%rbp)
   113b1:	84 a6 
   113b3:	c6 85 73 ef ff ff d9 	movb   $0xd9,-0x108d(%rbp)
   113ba:	66 c7 85 74 ef ff ff 	movw   $0xf9a4,-0x108c(%rbp)
   113c1:	a4 f9 
   113c3:	c6 85 76 ef ff ff be 	movb   $0xbe,-0x108a(%rbp)
   113ca:	66 c7 85 77 ef ff ff 	movw   $0x1d2,-0x1089(%rbp)
   113d1:	d2 01 
   113d3:	c6 85 79 ef ff ff bc 	movb   $0xbc,-0x1087(%rbp)
   113da:	66 c7 85 7a ef ff ff 	movw   $0x1ff,-0x1086(%rbp)
   113e1:	ff 01 
   113e3:	c6 85 7c ef ff ff fe 	movb   $0xfe,-0x1084(%rbp)
   113ea:	66 c7 85 7d ef ff ff 	movw   $0xfca6,-0x1083(%rbp)
   113f1:	a6 fc 
   113f3:	c6 85 7f ef ff ff ff 	movb   $0xff,-0x1081(%rbp)
   113fa:	66 c7 85 80 ef ff ff 	movw   $0x3001,-0x1080(%rbp)
   11401:	01 30 
   11403:	c6 85 82 ef ff ff 11 	movb   $0x11,-0x107e(%rbp)
   1140a:	66 c7 85 83 ef ff ff 	movw   $0xd9d2,-0x107d(%rbp)
   11411:	d2 d9 
   11413:	c6 85 85 ef ff ff 05 	movb   $0x5,-0x107b(%rbp)
   1141a:	66 c7 85 86 ef ff ff 	movw   $0xfd11,-0x107a(%rbp)
   11421:	11 fd 
   11423:	c6 85 88 ef ff ff 79 	movb   $0x79,-0x1078(%rbp)
   1142a:	66 c7 85 89 ef ff ff 	movw   $0x11f9,-0x1077(%rbp)
   11431:	f9 11 
   11433:	c6 85 8b ef ff ff a3 	movb   $0xa3,-0x1075(%rbp)
   1143a:	66 c7 85 8c ef ff ff 	movw   $0x100,-0x1074(%rbp)
   11441:	00 01 
   11443:	c6 85 8e ef ff ff 79 	movb   $0x79,-0x1072(%rbp)
   1144a:	66 c7 85 8f ef ff ff 	movw   $0xa6f8,-0x1071(%rbp)
   11451:	f8 a6 
   11453:	c6 85 91 ef ff ff 05 	movb   $0x5,-0x106f(%rbp)
   1145a:	66 c7 85 92 ef ff ff 	movw   $0x4c00,-0x106e(%rbp)
   11461:	00 4c 
   11463:	c6 85 94 ef ff ff 11 	movb   $0x11,-0x106c(%rbp)
   1146a:	66 c7 85 95 ef ff ff 	movw   $0x91d2,-0x106b(%rbp)
   11471:	d2 91 
   11473:	c6 85 97 ef ff ff ff 	movb   $0xff,-0x1069(%rbp)
   1147a:	48 c7 85 28 e7 ff ff 	movq   $0x0,-0x18d8(%rbp)
   11481:	00 00 00 00 
   11485:	48 8d 05 a0 87 00 00 	lea    0x87a0(%rip),%rax        # 19c2c <g_115>
   1148c:	48 89 85 30 e7 ff ff 	mov    %rax,-0x18d0(%rbp)
   11493:	c7 85 80 e8 ff ff a4 	movl   $0x600a4ea4,-0x1780(%rbp)
   1149a:	4e 0a 60 
   1149d:	c7 85 84 e8 ff ff 09 	movl   $0x9,-0x177c(%rbp)
   114a4:	00 00 00 
   114a7:	c7 85 88 e8 ff ff a4 	movl   $0x600a4ea4,-0x1778(%rbp)
   114ae:	4e 0a 60 
   114b1:	c7 85 8c e8 ff ff 09 	movl   $0x9,-0x1774(%rbp)
   114b8:	00 00 00 
   114bb:	c7 85 90 e8 ff ff a4 	movl   $0x600a4ea4,-0x1770(%rbp)
   114c2:	4e 0a 60 
   114c5:	c7 85 94 e8 ff ff 09 	movl   $0x9,-0x176c(%rbp)
   114cc:	00 00 00 
   114cf:	c7 85 98 e8 ff ff a4 	movl   $0x600a4ea4,-0x1768(%rbp)
   114d6:	4e 0a 60 
   114d9:	c7 85 9c e8 ff ff 09 	movl   $0x9,-0x1764(%rbp)
   114e0:	00 00 00 
   114e3:	c7 85 a0 e8 ff ff a4 	movl   $0x600a4ea4,-0x1760(%rbp)
   114ea:	4e 0a 60 
   114ed:	c7 85 a4 e8 ff ff 09 	movl   $0x9,-0x175c(%rbp)
   114f4:	00 00 00 
   114f7:	c7 85 a8 e8 ff ff a4 	movl   $0x600a4ea4,-0x1758(%rbp)
   114fe:	4e 0a 60 
   11501:	c7 85 ac e8 ff ff 09 	movl   $0x9,-0x1754(%rbp)
   11508:	00 00 00 
   1150b:	c7 85 68 e4 ff ff 00 	movl   $0x0,-0x1b98(%rbp)
   11512:	00 00 00 
   11515:	eb 1e                	jmp    11535 <func_56+0x303a>
   11517:	8b 85 68 e4 ff ff    	mov    -0x1b98(%rbp),%eax
   1151d:	48 98                	cltq   
   1151f:	48 8d 95 34 e4 ff ff 	lea    -0x1bcc(%rbp),%rdx
   11526:	48 89 94 c5 10 e8 ff 	mov    %rdx,-0x17f0(%rbp,%rax,8)
   1152d:	ff 
   1152e:	83 85 68 e4 ff ff 01 	addl   $0x1,-0x1b98(%rbp)
   11535:	83 bd 68 e4 ff ff 05 	cmpl   $0x5,-0x1b98(%rbp)
   1153c:	7e d9                	jle    11517 <func_56+0x301c>
   1153e:	66 c7 85 34 e4 ff ff 	movw   $0x0,-0x1bcc(%rbp)
   11545:	00 00 
   11547:	90                   	nop
   11548:	0f b7 85 34 e4 ff ff 	movzwl -0x1bcc(%rbp),%eax
   1154f:	66 83 f8 03          	cmp    $0x3,%ax
   11553:	7f 15                	jg     1156a <func_56+0x306f>
   11555:	66 c7 85 46 e4 ff ff 	movw   $0x3251,-0x1bba(%rbp)
   1155c:	51 32 
   1155e:	0f b7 85 46 e4 ff ff 	movzwl -0x1bba(%rbp),%eax
   11565:	e9 65 14 00 00       	jmpq   129cf <func_56+0x44d4>
   1156a:	0f b6 85 4d ef ff ff 	movzbl -0x10b3(%rbp),%eax
   11571:	84 c0                	test   %al,%al
   11573:	75 09                	jne    1157e <func_56+0x3083>
   11575:	83 ad 9c e4 ff ff 01 	subl   $0x1,-0x1b64(%rbp)
   1157c:	eb 01                	jmp    1157f <func_56+0x3084>
   1157e:	90                   	nop
   1157f:	0f b6 85 2b e4 ff ff 	movzbl -0x1bd5(%rbp),%eax
   11586:	83 e8 01             	sub    $0x1,%eax
   11589:	88 85 2b e4 ff ff    	mov    %al,-0x1bd5(%rbp)
   1158f:	80 bd 2b e4 ff ff 00 	cmpb   $0x0,-0x1bd5(%rbp)
   11596:	0f 89 5e fa ff ff    	jns    10ffa <func_56+0x2aff>
   1159c:	48 c7 05 e1 6a 00 00 	movq   $0x0,0x6ae1(%rip)        # 18088 <g_409>
   115a3:	00 00 00 00 
   115a7:	90                   	nop
   115a8:	48 8b 05 d9 6a 00 00 	mov    0x6ad9(%rip),%rax        # 18088 <g_409>
   115af:	48 85 c0             	test   %rax,%rax
   115b2:	0f 85 c2 04 00 00    	jne    11a7a <func_56+0x357f>
   115b8:	48 8d 85 60 e5 ff ff 	lea    -0x1aa0(%rbp),%rax
   115bf:	48 89 85 f8 e6 ff ff 	mov    %rax,-0x1908(%rbp)
   115c6:	48 8d 85 64 e4 ff ff 	lea    -0x1b9c(%rbp),%rax
   115cd:	48 89 85 00 e7 ff ff 	mov    %rax,-0x1900(%rbp)
   115d4:	48 8d 05 75 6a 00 00 	lea    0x6a75(%rip),%rax        # 18050 <g_153>
   115db:	48 89 85 08 e7 ff ff 	mov    %rax,-0x18f8(%rbp)
   115e2:	c7 85 24 e5 ff ff cb 	movl   $0xf6d79ecb,-0x1adc(%rbp)
   115e9:	9e d7 f6 
   115ec:	48 8b 85 f8 e6 ff ff 	mov    -0x1908(%rbp),%rax
   115f3:	48 c7 00 00 00 00 00 	movq   $0x0,(%rax)
   115fa:	66 83 bd 3a e4 ff ff 	cmpw   $0x0,-0x1bc6(%rbp)
   11601:	00 
   11602:	0f 85 b8 07 00 00    	jne    11dc0 <func_56+0x38c5>
   11608:	48 8b 05 09 7d 00 00 	mov    0x7d09(%rip),%rax        # 19318 <g_412>
   1160f:	0f b7 00             	movzwl (%rax),%eax
   11612:	0f b7 d8             	movzwl %ax,%ebx
   11615:	8b 85 1c e4 ff ff    	mov    -0x1be4(%rbp),%eax
   1161b:	44 0f b6 e0          	movzbl %al,%r12d
   1161f:	8b 85 1c e4 ff ff    	mov    -0x1be4(%rbp),%eax
   11625:	44 0f bf e8          	movswl %ax,%r13d
   11629:	0f b6 05 14 6a 00 00 	movzbl 0x6a14(%rip),%eax        # 18044 <g_96>
   11630:	44 0f be f0          	movsbl %al,%r14d
   11634:	8b 05 ee 85 00 00    	mov    0x85ee(%rip),%eax        # 19c28 <g_99>
   1163a:	4c 63 f8             	movslq %eax,%r15
   1163d:	8b 05 f5 69 00 00    	mov    0x69f5(%rip),%eax        # 18038 <g_24>
   11643:	89 85 18 e4 ff ff    	mov    %eax,-0x1be8(%rbp)
   11649:	48 8b 05 b0 7c 00 00 	mov    0x7cb0(%rip),%rax        # 19300 <g_132>
   11650:	8b 00                	mov    (%rax),%eax
   11652:	83 f8 01             	cmp    $0x1,%eax
   11655:	0f 9e c0             	setle  %al
   11658:	0f b6 c0             	movzbl %al,%eax
   1165b:	be 02 00 00 00       	mov    $0x2,%esi
   11660:	89 c7                	mov    %eax,%edi
   11662:	e8 26 36 ff ff       	callq  4c8d <safe_rshift_func_uint8_t_u_s>
   11667:	0f b6 d0             	movzbl %al,%edx
   1166a:	0f b6 85 2d e4 ff ff 	movzbl -0x1bd3(%rbp),%eax
   11671:	89 d6                	mov    %edx,%esi
   11673:	89 c7                	mov    %eax,%edi
   11675:	e8 e9 2e ff ff       	callq  4563 <safe_rshift_func_int16_t_s_u>
   1167a:	0f b7 c0             	movzwl %ax,%eax
   1167d:	be c9 78 00 00       	mov    $0x78c9,%esi
   11682:	89 c7                	mov    %eax,%edi
   11684:	e8 d3 36 ff ff       	callq  4d5c <safe_mod_func_uint16_t_u_u>
   11689:	0f b7 d0             	movzwl %ax,%edx
   1168c:	48 8b 85 00 e7 ff ff 	mov    -0x1900(%rbp),%rax
   11693:	89 10                	mov    %edx,(%rax)
   11695:	48 8b 85 00 e7 ff ff 	mov    -0x1900(%rbp),%rax
   1169c:	8b 10                	mov    (%rax),%edx
   1169e:	48 8b 05 9b 76 00 00 	mov    0x769b(%rip),%rax        # 18d40 <g_125>
   116a5:	8b 00                	mov    (%rax),%eax
   116a7:	39 c2                	cmp    %eax,%edx
   116a9:	0f 94 c0             	sete   %al
   116ac:	0f b6 d0             	movzbl %al,%edx
   116af:	8b 85 1c e4 ff ff    	mov    -0x1be4(%rbp),%eax
   116b5:	39 c2                	cmp    %eax,%edx
   116b7:	0f 9d c0             	setge  %al
   116ba:	0f b6 c0             	movzbl %al,%eax
   116bd:	8b b5 18 e4 ff ff    	mov    -0x1be8(%rbp),%esi
   116c3:	89 c7                	mov    %eax,%edi
   116c5:	e8 ee 37 ff ff       	callq  4eb8 <safe_add_func_uint32_t_u_u>
   116ca:	89 c0                	mov    %eax,%eax
   116cc:	49 39 c7             	cmp    %rax,%r15
   116cf:	0f 95 c0             	setne  %al
   116d2:	0f b6 c0             	movzbl %al,%eax
   116d5:	89 c2                	mov    %eax,%edx
   116d7:	0f b7 05 c2 69 00 00 	movzwl 0x69c2(%rip),%eax        # 180a0 <g_525>
   116de:	09 d0                	or     %edx,%eax
   116e0:	66 89 05 b9 69 00 00 	mov    %ax,0x69b9(%rip)        # 180a0 <g_525>
   116e7:	0f b7 05 b2 69 00 00 	movzwl 0x69b2(%rip),%eax        # 180a0 <g_525>
   116ee:	98                   	cwtl   
   116ef:	83 f8 01             	cmp    $0x1,%eax
   116f2:	0f 97 c0             	seta   %al
   116f5:	0f b6 c0             	movzbl %al,%eax
   116f8:	be 04 00 00 00       	mov    $0x4,%esi
   116fd:	89 c7                	mov    %eax,%edi
   116ff:	e8 48 35 ff ff       	callq  4c4c <safe_lshift_func_uint8_t_u_u>
   11704:	0f b6 d0             	movzbl %al,%edx
   11707:	8b 85 1c e4 ff ff    	mov    -0x1be4(%rbp),%eax
   1170d:	39 c2                	cmp    %eax,%edx
   1170f:	0f 94 c0             	sete   %al
   11712:	0f b6 c0             	movzbl %al,%eax
   11715:	44 89 f6             	mov    %r14d,%esi
   11718:	89 c7                	mov    %eax,%edi
   1171a:	e8 12 2b ff ff       	callq  4231 <safe_mod_func_int8_t_s_s>
   1171f:	0f be d0             	movsbl %al,%edx
   11722:	8b 85 1c e4 ff ff    	mov    -0x1be4(%rbp),%eax
   11728:	09 d0                	or     %edx,%eax
   1172a:	89 c7                	mov    %eax,%edi
   1172c:	48 8b 0d 55 69 00 00 	mov    0x6955(%rip),%rcx        # 18088 <g_409>
   11733:	48 8b 05 4e 69 00 00 	mov    0x694e(%rip),%rax        # 18088 <g_409>
   1173a:	48 8d 50 02          	lea    0x2(%rax),%rdx
   1173e:	48 8b 05 43 69 00 00 	mov    0x6943(%rip),%rax        # 18088 <g_409>
   11745:	48 8d 70 02          	lea    0x2(%rax),%rsi
   11749:	48 89 d0             	mov    %rdx,%rax
   1174c:	48 01 c0             	add    %rax,%rax
   1174f:	48 01 d0             	add    %rdx,%rax
   11752:	48 01 c0             	add    %rax,%rax
   11755:	48 89 ca             	mov    %rcx,%rdx
   11758:	48 c1 e2 04          	shl    $0x4,%rdx
   1175c:	48 29 ca             	sub    %rcx,%rdx
   1175f:	48 c1 e2 02          	shl    $0x2,%rdx
   11763:	48 01 d0             	add    %rdx,%rax
   11766:	48 01 f0             	add    %rsi,%rax
   11769:	48 8b 84 c5 80 f0 ff 	mov    -0xf80(%rbp,%rax,8),%rax
   11770:	ff 
   11771:	89 fe                	mov    %edi,%esi
   11773:	89 c7                	mov    %eax,%edi
   11775:	e8 3e 37 ff ff       	callq  4eb8 <safe_add_func_uint32_t_u_u>
   1177a:	be 00 00 00 00       	mov    $0x0,%esi
   1177f:	bf 01 00 00 00       	mov    $0x1,%edi
   11784:	e8 35 35 ff ff       	callq  4cbe <safe_rshift_func_uint8_t_u_u>
   11789:	0f b6 c0             	movzbl %al,%eax
   1178c:	44 89 ee             	mov    %r13d,%esi
   1178f:	89 c7                	mov    %eax,%edi
   11791:	e8 bf 2c ff ff       	callq  4455 <safe_div_func_int16_t_s_s>
   11796:	66 3d 27 22          	cmp    $0x2227,%ax
   1179a:	0f 9e c0             	setle  %al
   1179d:	0f b6 c0             	movzbl %al,%eax
   117a0:	44 89 e6             	mov    %r12d,%esi
   117a3:	89 c7                	mov    %eax,%edi
   117a5:	e8 b0 33 ff ff       	callq  4b5a <safe_add_func_uint8_t_u_u>
   117aa:	48 8b 0d d7 68 00 00 	mov    0x68d7(%rip),%rcx        # 18088 <g_409>
   117b1:	8b 15 89 68 00 00    	mov    0x6889(%rip),%edx        # 18040 <g_94>
   117b7:	44 8d 52 03          	lea    0x3(%rdx),%r10d
   117bb:	0f b6 15 be 68 00 00 	movzbl 0x68be(%rip),%edx        # 18080 <g_257>
   117c2:	0f be d2             	movsbl %dl,%edx
   117c5:	8d 72 02             	lea    0x2(%rdx),%esi
   117c8:	44 0f b6 c0          	movzbl %al,%r8d
   117cc:	4c 63 ce             	movslq %esi,%r9
   117cf:	44 89 d7             	mov    %r10d,%edi
   117d2:	48 89 ca             	mov    %rcx,%rdx
   117d5:	48 89 d0             	mov    %rdx,%rax
   117d8:	48 c1 e0 04          	shl    $0x4,%rax
   117dc:	48 89 c2             	mov    %rax,%rdx
   117df:	48 29 ca             	sub    %rcx,%rdx
   117e2:	48 8d 04 95 00 00 00 	lea    0x0(,%rdx,4),%rax
   117e9:	00 
   117ea:	48 89 c2             	mov    %rax,%rdx
   117ed:	48 89 f8             	mov    %rdi,%rax
   117f0:	48 01 c0             	add    %rax,%rax
   117f3:	48 01 f8             	add    %rdi,%rax
   117f6:	48 01 c0             	add    %rax,%rax
   117f9:	48 01 d0             	add    %rdx,%rax
   117fc:	4c 01 c8             	add    %r9,%rax
   117ff:	4c 89 84 c5 80 f0 ff 	mov    %r8,-0xf80(%rbp,%rax,8)
   11806:	ff 
   11807:	48 63 f6             	movslq %esi,%rsi
   1180a:	44 89 d7             	mov    %r10d,%edi
   1180d:	48 89 ca             	mov    %rcx,%rdx
   11810:	48 89 d0             	mov    %rdx,%rax
   11813:	48 c1 e0 04          	shl    $0x4,%rax
   11817:	48 89 c2             	mov    %rax,%rdx
   1181a:	48 29 ca             	sub    %rcx,%rdx
   1181d:	48 8d 04 95 00 00 00 	lea    0x0(,%rdx,4),%rax
   11824:	00 
   11825:	48 89 c2             	mov    %rax,%rdx
   11828:	48 89 f8             	mov    %rdi,%rax
   1182b:	48 01 c0             	add    %rax,%rax
   1182e:	48 01 f8             	add    %rdi,%rax
   11831:	48 01 c0             	add    %rax,%rax
   11834:	48 01 d0             	add    %rdx,%rax
   11837:	48 01 f0             	add    %rsi,%rax
   1183a:	48 8b 84 c5 80 f0 ff 	mov    -0xf80(%rbp,%rax,8),%rax
   11841:	ff 
   11842:	48 85 c0             	test   %rax,%rax
   11845:	0f 94 c0             	sete   %al
   11848:	0f b6 d0             	movzbl %al,%edx
   1184b:	48 8b 85 08 e7 ff ff 	mov    -0x18f8(%rbp),%rax
   11852:	48 89 10             	mov    %rdx,(%rax)
   11855:	48 8b 85 08 e7 ff ff 	mov    -0x18f8(%rbp),%rax
   1185c:	48 8b 00             	mov    (%rax),%rax
   1185f:	48 c7 c6 f9 ff ff ff 	mov    $0xfffffffffffffff9,%rsi
   11866:	48 89 c7             	mov    %rax,%rdi
   11869:	e8 c0 37 ff ff       	callq  502e <safe_add_func_uint64_t_u_u>
   1186e:	0f b7 c0             	movzwl %ax,%eax
   11871:	89 de                	mov    %ebx,%esi
   11873:	89 c7                	mov    %eax,%edi
   11875:	e8 8c 35 ff ff       	callq  4e06 <safe_lshift_func_uint16_t_u_u>
   1187a:	48 8b 05 bf 74 00 00 	mov    0x74bf(%rip),%rax        # 18d40 <g_125>
   11881:	8b 10                	mov    (%rax),%edx
   11883:	8b 05 df 67 00 00    	mov    0x67df(%rip),%eax        # 18068 <g_211+0x8>
   11889:	39 c2                	cmp    %eax,%edx
   1188b:	0f 8d a0 01 00 00    	jge    11a31 <func_56+0x3536>
   11891:	c7 85 28 e5 ff ff ff 	movl   $0xffffffff,-0x1ad8(%rbp)
   11898:	ff ff ff 
   1189b:	48 c7 85 18 e7 ff ff 	movq   $0x0,-0x18e8(%rbp)
   118a2:	00 00 00 00 
   118a6:	48 8d 05 97 67 00 00 	lea    0x6797(%rip),%rax        # 18044 <g_96>
   118ad:	48 89 85 20 e7 ff ff 	mov    %rax,-0x18e0(%rbp)
   118b4:	8b 9d 28 e5 ff ff    	mov    -0x1ad8(%rbp),%ebx
   118ba:	48 8b 85 e8 e6 ff ff 	mov    -0x1918(%rbp),%rax
   118c1:	8b 00                	mov    (%rax),%eax
   118c3:	3d bf cf 00 00       	cmp    $0xcfbf,%eax
   118c8:	41 0f 9f c7          	setg   %r15b
   118cc:	48 8b 05 45 7a 00 00 	mov    0x7a45(%rip),%rax        # 19318 <g_412>
   118d3:	0f b7 00             	movzwl (%rax),%eax
   118d6:	66 85 c0             	test   %ax,%ax
   118d9:	0f 85 fd 00 00 00    	jne    119dc <func_56+0x34e1>
   118df:	48 8b 05 b2 67 00 00 	mov    0x67b2(%rip),%rax        # 18098 <g_474>
   118e6:	44 0f b6 e0          	movzbl %al,%r12d
   118ea:	48 8b 05 27 7a 00 00 	mov    0x7a27(%rip),%rax        # 19318 <g_412>
   118f1:	0f b7 00             	movzwl (%rax),%eax
   118f4:	0f b7 d0             	movzwl %ax,%edx
   118f7:	8b 85 1c e4 ff ff    	mov    -0x1be4(%rbp),%eax
   118fd:	0f b7 c0             	movzwl %ax,%eax
   11900:	89 d6                	mov    %edx,%esi
   11902:	89 c7                	mov    %eax,%edi
   11904:	e8 53 34 ff ff       	callq  4d5c <safe_mod_func_uint16_t_u_u>
   11909:	66 85 c0             	test   %ax,%ax
   1190c:	0f 85 8d 00 00 00    	jne    1199f <func_56+0x34a4>
   11912:	8b 85 1c e4 ff ff    	mov    -0x1be4(%rbp),%eax
   11918:	44 0f bf e8          	movswl %ax,%r13d
   1191c:	44 8b b5 28 e5 ff ff 	mov    -0x1ad8(%rbp),%r14d
   11923:	8b 85 1c e4 ff ff    	mov    -0x1be4(%rbp),%eax
   11929:	0f b7 c0             	movzwl %ax,%eax
   1192c:	89 c6                	mov    %eax,%esi
   1192e:	bf b6 bf 00 00       	mov    $0xbfb6,%edi
   11933:	e8 24 34 ff ff       	callq  4d5c <safe_mod_func_uint16_t_u_u>
   11938:	be 02 00 00 00       	mov    $0x2,%esi
   1193d:	bf 01 00 00 00       	mov    $0x1,%edi
   11942:	e8 a7 29 ff ff       	callq  42ee <safe_lshift_func_int8_t_s_u>
   11947:	48 0f be c0          	movsbq %al,%rax
   1194b:	48 39 85 10 e4 ff ff 	cmp    %rax,-0x1bf0(%rbp)
   11952:	7d 07                	jge    1195b <func_56+0x3460>
   11954:	b8 09 00 00 00       	mov    $0x9,%eax
   11959:	eb 05                	jmp    11960 <func_56+0x3465>
   1195b:	b8 08 00 00 00       	mov    $0x8,%eax
   11960:	44 89 f6             	mov    %r14d,%esi
   11963:	89 c7                	mov    %eax,%edi
   11965:	e8 10 35 ff ff       	callq  4e7a <safe_rshift_func_uint16_t_u_u>
   1196a:	44 89 ee             	mov    %r13d,%esi
   1196d:	bf d6 30 00 00       	mov    $0x30d6,%edi
   11972:	e8 7e 2a ff ff       	callq  43f5 <safe_mul_func_int16_t_s_s>
   11977:	ba 00 00 00 00       	mov    $0x0,%edx
   1197c:	48 8b 85 20 e7 ff ff 	mov    -0x18e0(%rbp),%rax
   11983:	0f b6 00             	movzbl (%rax),%eax
   11986:	31 c2                	xor    %eax,%edx
   11988:	48 8b 85 20 e7 ff ff 	mov    -0x18e0(%rbp),%rax
   1198f:	88 10                	mov    %dl,(%rax)
   11991:	48 8b 85 20 e7 ff ff 	mov    -0x18e0(%rbp),%rax
   11998:	0f b6 00             	movzbl (%rax),%eax
   1199b:	84 c0                	test   %al,%al
   1199d:	74 07                	je     119a6 <func_56+0x34ab>
   1199f:	b8 01 00 00 00       	mov    $0x1,%eax
   119a4:	eb 05                	jmp    119ab <func_56+0x34b0>
   119a6:	b8 00 00 00 00       	mov    $0x0,%eax
   119ab:	0f b6 c0             	movzbl %al,%eax
   119ae:	44 89 e6             	mov    %r12d,%esi
   119b1:	89 c7                	mov    %eax,%edi
   119b3:	e8 c0 31 ff ff       	callq  4b78 <safe_sub_func_uint8_t_u_u>
   119b8:	0f b6 c0             	movzbl %al,%eax
   119bb:	48 8b 95 10 e4 ff ff 	mov    -0x1bf0(%rbp),%rdx
   119c2:	48 89 d6             	mov    %rdx,%rsi
   119c5:	48 89 c7             	mov    %rax,%rdi
   119c8:	e8 2a 30 ff ff       	callq  49f7 <safe_div_func_int64_t_s_s>
   119cd:	0f b6 15 58 82 00 00 	movzbl 0x8258(%rip),%edx        # 19c2c <g_115>
   119d4:	0f b6 d2             	movzbl %dl,%edx
   119d7:	48 39 d0             	cmp    %rdx,%rax
   119da:	74 07                	je     119e3 <func_56+0x34e8>
   119dc:	b8 01 00 00 00       	mov    $0x1,%eax
   119e1:	eb 05                	jmp    119e8 <func_56+0x34ed>
   119e3:	b8 00 00 00 00       	mov    $0x0,%eax
   119e8:	83 e0 01             	and    $0x1,%eax
   119eb:	44 31 f8             	xor    %r15d,%eax
   119ee:	0f b6 c0             	movzbl %al,%eax
   119f1:	89 de                	mov    %ebx,%esi
   119f3:	89 c7                	mov    %eax,%edi
   119f5:	e8 be 34 ff ff       	callq  4eb8 <safe_add_func_uint32_t_u_u>
   119fa:	48 8b 85 10 e4 ff ff 	mov    -0x1bf0(%rbp),%rax
   11a01:	89 c2                	mov    %eax,%edx
   11a03:	8b 85 1c e4 ff ff    	mov    -0x1be4(%rbp),%eax
   11a09:	31 c2                	xor    %eax,%edx
   11a0b:	48 8b 85 e8 e6 ff ff 	mov    -0x1918(%rbp),%rax
   11a12:	89 10                	mov    %edx,(%rax)
   11a14:	48 8b 05 e5 78 00 00 	mov    0x78e5(%rip),%rax        # 19300 <g_132>
   11a1b:	8b 00                	mov    (%rax),%eax
   11a1d:	85 c0                	test   %eax,%eax
   11a1f:	75 58                	jne    11a79 <func_56+0x357e>
   11a21:	0f b6 05 58 66 00 00 	movzbl 0x6658(%rip),%eax        # 18080 <g_257>
   11a28:	84 c0                	test   %al,%al
   11a2a:	74 41                	je     11a6d <func_56+0x3572>
   11a2c:	e9 28 cf ff ff       	jmpq   e959 <func_56+0x45e>
   11a31:	48 8d 85 d0 e8 ff ff 	lea    -0x1730(%rbp),%rax
   11a38:	48 89 85 10 e7 ff ff 	mov    %rax,-0x18f0(%rbp)
   11a3f:	8b 85 1c e4 ff ff    	mov    -0x1be4(%rbp),%eax
   11a45:	89 85 24 e5 ff ff    	mov    %eax,-0x1adc(%rbp)
   11a4b:	48 8b 95 d0 e8 ff ff 	mov    -0x1730(%rbp),%rdx
   11a52:	48 8b 85 10 e7 ff ff 	mov    -0x18f0(%rbp),%rax
   11a59:	48 89 10             	mov    %rdx,(%rax)
   11a5c:	48 8b 85 10 e7 ff ff 	mov    -0x18f0(%rbp),%rax
   11a63:	48 8b 00             	mov    (%rax),%rax
   11a66:	48 89 85 90 ec ff ff 	mov    %rax,-0x1370(%rbp)
   11a6d:	48 8b 85 10 e4 ff ff 	mov    -0x1bf0(%rbp),%rax
   11a74:	e9 56 0f 00 00       	jmpq   129cf <func_56+0x44d4>
   11a79:	90                   	nop
   11a7a:	8b 05 c0 65 00 00    	mov    0x65c0(%rip),%eax        # 18040 <g_94>
   11a80:	83 c0 01             	add    $0x1,%eax
   11a83:	89 05 b7 65 00 00    	mov    %eax,0x65b7(%rip)        # 18040 <g_94>
   11a89:	8b 05 b1 65 00 00    	mov    0x65b1(%rip),%eax        # 18040 <g_94>
   11a8f:	83 f8 03             	cmp    $0x3,%eax
   11a92:	0f 86 b2 f4 ff ff    	jbe    10f4a <func_56+0x2a4f>
   11a98:	48 83 ad 10 e4 ff ff 	subq   $0x1,-0x1bf0(%rbp)
   11a9f:	01 
   11aa0:	48 83 bd 10 e4 ff ff 	cmpq   $0x0,-0x1bf0(%rbp)
   11aa7:	00 
   11aa8:	0f 89 3b ed ff ff    	jns    107e9 <func_56+0x22ee>
   11aae:	c6 05 77 81 00 00 00 	movb   $0x0,0x8177(%rip)        # 19c2c <g_115>
   11ab5:	e9 d9 02 00 00       	jmpq   11d93 <func_56+0x3898>
   11aba:	c6 85 2f e4 ff ff e5 	movb   $0xe5,-0x1bd1(%rbp)
   11ac1:	48 c7 85 a8 e6 ff ff 	movq   $0x0,-0x1958(%rbp)
   11ac8:	00 00 00 00 
   11acc:	48 c7 85 10 e8 ff ff 	movq   $0x0,-0x17f0(%rbp)
   11ad3:	00 00 00 00 
   11ad7:	48 8d 05 ba 65 00 00 	lea    0x65ba(%rip),%rax        # 18098 <g_474>
   11ade:	48 89 85 18 e8 ff ff 	mov    %rax,-0x17e8(%rbp)
   11ae5:	48 c7 85 20 e8 ff ff 	movq   $0x0,-0x17e0(%rbp)
   11aec:	00 00 00 00 
   11af0:	48 c7 85 28 e8 ff ff 	movq   $0x0,-0x17d8(%rbp)
   11af7:	00 00 00 00 
   11afb:	48 8d 05 96 65 00 00 	lea    0x6596(%rip),%rax        # 18098 <g_474>
   11b02:	48 89 85 30 e8 ff ff 	mov    %rax,-0x17d0(%rbp)
   11b09:	48 c7 85 38 e8 ff ff 	movq   $0x0,-0x17c8(%rbp)
   11b10:	00 00 00 00 
   11b14:	48 8d 85 54 e4 ff ff 	lea    -0x1bac(%rbp),%rax
   11b1b:	48 89 85 b0 e6 ff ff 	mov    %rax,-0x1950(%rbp)
   11b22:	48 8d 85 c0 ee ff ff 	lea    -0x1140(%rbp),%rax
   11b29:	48 8d 15 90 34 00 00 	lea    0x3490(%rip),%rdx        # 14fc0 <g_3084+0xf5f>
   11b30:	b9 38 00 00 00       	mov    $0x38,%ecx
   11b35:	48 89 c7             	mov    %rax,%rdi
   11b38:	48 89 d6             	mov    %rdx,%rsi
   11b3b:	f3 48 a5             	rep movsq %ds:(%rsi),%es:(%rdi)
   11b3e:	48 8d 85 34 e4 ff ff 	lea    -0x1bcc(%rbp),%rax
   11b45:	48 89 85 b8 e6 ff ff 	mov    %rax,-0x1948(%rbp)
   11b4c:	c6 85 30 e4 ff ff ff 	movb   $0xff,-0x1bd0(%rbp)
   11b53:	c7 85 d0 e8 ff ff ff 	movl   $0xffffffff,-0x1730(%rbp)
   11b5a:	ff ff ff 
   11b5d:	c7 85 d4 e8 ff ff fe 	movl   $0xfffffffe,-0x172c(%rbp)
   11b64:	ff ff ff 
   11b67:	c7 85 d8 e8 ff ff ff 	movl   $0xffffffff,-0x1728(%rbp)
   11b6e:	ff ff ff 
   11b71:	c7 85 dc e8 ff ff fe 	movl   $0xfffffffe,-0x1724(%rbp)
   11b78:	ff ff ff 
   11b7b:	c7 85 e0 e8 ff ff ff 	movl   $0xffffffff,-0x1720(%rbp)
   11b82:	ff ff ff 
   11b85:	c7 85 e4 e8 ff ff fe 	movl   $0xfffffffe,-0x171c(%rbp)
   11b8c:	ff ff ff 
   11b8f:	c7 85 e8 e8 ff ff ff 	movl   $0xffffffff,-0x1718(%rbp)
   11b96:	ff ff ff 
   11b99:	c7 85 ec e8 ff ff fe 	movl   $0xfffffffe,-0x1714(%rbp)
   11ba0:	ff ff ff 
   11ba3:	c7 85 f0 e8 ff ff ff 	movl   $0xffffffff,-0x1710(%rbp)
   11baa:	ff ff ff 
   11bad:	c7 85 f4 e8 ff ff fe 	movl   $0xfffffffe,-0x170c(%rbp)
   11bb4:	ff ff ff 
   11bb7:	c7 85 f8 e8 ff ff ff 	movl   $0xffffffff,-0x1708(%rbp)
   11bbe:	ff ff ff 
   11bc1:	c7 85 fc e8 ff ff fe 	movl   $0xfffffffe,-0x1704(%rbp)
   11bc8:	ff ff ff 
   11bcb:	c7 85 00 e9 ff ff ff 	movl   $0xffffffff,-0x1700(%rbp)
   11bd2:	ff ff ff 
   11bd5:	c7 85 04 e9 ff ff fe 	movl   $0xfffffffe,-0x16fc(%rbp)
   11bdc:	ff ff ff 
   11bdf:	c7 85 08 e9 ff ff ff 	movl   $0xffffffff,-0x16f8(%rbp)
   11be6:	ff ff ff 
   11be9:	c7 85 0c e9 ff ff fe 	movl   $0xfffffffe,-0x16f4(%rbp)
   11bf0:	ff ff ff 
   11bf3:	c7 85 10 e9 ff ff ff 	movl   $0xffffffff,-0x16f0(%rbp)
   11bfa:	ff ff ff 
   11bfd:	c7 85 14 e9 ff ff fe 	movl   $0xfffffffe,-0x16ec(%rbp)
   11c04:	ff ff ff 
   11c07:	c7 85 18 e9 ff ff ff 	movl   $0xffffffff,-0x16e8(%rbp)
   11c0e:	ff ff ff 
   11c11:	c7 85 1c e9 ff ff fe 	movl   $0xfffffffe,-0x16e4(%rbp)
   11c18:	ff ff ff 
   11c1b:	c6 85 31 e4 ff ff 08 	movb   $0x8,-0x1bcf(%rbp)
   11c22:	66 c7 85 da e7 ff ff 	movw   $0x8080,-0x1826(%rbp)
   11c29:	80 80 
   11c2b:	c6 85 dc e7 ff ff 80 	movb   $0x80,-0x1824(%rbp)
   11c32:	66 c7 85 dd e7 ff ff 	movw   $0x7a7a,-0x1823(%rbp)
   11c39:	7a 7a 
   11c3b:	c6 85 df e7 ff ff 7a 	movb   $0x7a,-0x1821(%rbp)
   11c42:	48 c7 85 c0 e6 ff ff 	movq   $0x0,-0x1940(%rbp)
   11c49:	00 00 00 00 
   11c4d:	48 c7 85 c8 e6 ff ff 	movq   $0xffffffffffffffff,-0x1938(%rbp)
   11c54:	ff ff ff ff 
   11c58:	48 8d 85 60 f2 ff ff 	lea    -0xda0(%rbp),%rax
   11c5f:	48 8d 15 1a 35 00 00 	lea    0x351a(%rip),%rdx        # 15180 <g_3084+0x111f>
   11c66:	b9 3c 00 00 00       	mov    $0x3c,%ecx
   11c6b:	48 89 c7             	mov    %rax,%rdi
   11c6e:	48 89 d6             	mov    %rdx,%rsi
   11c71:	f3 48 a5             	rep movsq %ds:(%rsi),%es:(%rdi)
   11c74:	48 b8 01 03 03 01 fa 	movabs $0x600201fa01030301,%rax
   11c7b:	01 02 60 
   11c7e:	48 89 85 80 e8 ff ff 	mov    %rax,-0x1780(%rbp)
   11c85:	66 c7 85 88 e8 ff ff 	movw   $0x102,-0x1778(%rbp)
   11c8c:	02 01 
   11c8e:	48 b8 ff f7 fa f7 ff 	movabs $0x20300fff7faf7ff,%rax
   11c95:	00 03 02 
   11c98:	48 89 85 8a e8 ff ff 	mov    %rax,-0x1776(%rbp)
   11c9f:	66 c7 85 92 e8 ff ff 	movw   $0x302,-0x176e(%rbp)
   11ca6:	02 03 
   11ca8:	48 b8 60 00 01 01 00 	movabs $0x308600001010060,%rax
   11caf:	60 08 03 
   11cb2:	48 89 85 94 e8 ff ff 	mov    %rax,-0x176c(%rbp)
   11cb9:	66 c7 85 9c e8 ff ff 	movw   $0x3ff,-0x1764(%rbp)
   11cc0:	ff 03 
   11cc2:	48 b8 f7 01 ff 02 ff 	movabs $0x8f701ff02ff01f7,%rax
   11cc9:	01 f7 08 
   11ccc:	48 89 85 9e e8 ff ff 	mov    %rax,-0x1762(%rbp)
   11cd3:	66 c7 85 a6 e8 ff ff 	movw   $0x101,-0x175a(%rbp)
   11cda:	01 01 
   11cdc:	48 b8 f7 01 60 fa fa 	movabs $0xf70160fafa6001f7,%rax
   11ce3:	60 01 f7 
   11ce6:	48 89 85 a8 e8 ff ff 	mov    %rax,-0x1758(%rbp)
   11ced:	66 c7 85 b0 e8 ff ff 	movw   $0x800,-0x1750(%rbp)
   11cf4:	00 08 
   11cf6:	48 b8 60 01 f7 00 08 	movabs $0x1f7000800f70160,%rax
   11cfd:	00 f7 01 
   11d00:	48 89 85 b2 e8 ff ff 	mov    %rax,-0x174e(%rbp)
   11d07:	66 c7 85 ba e8 ff ff 	movw   $0xfa60,-0x1746(%rbp)
   11d0e:	60 fa 
   11d10:	48 b8 ff 01 f7 08 01 	movabs $0xf708010108f701ff,%rax
   11d17:	01 08 f7 
   11d1a:	48 89 85 bc e8 ff ff 	mov    %rax,-0x1744(%rbp)
   11d21:	66 c7 85 c4 e8 ff ff 	movw   $0xff01,-0x173c(%rbp)
   11d28:	01 ff 
   11d2a:	c7 85 6c e4 ff ff 00 	movl   $0x0,-0x1b94(%rbp)
   11d31:	00 00 00 
   11d34:	eb 1b                	jmp    11d51 <func_56+0x3856>
   11d36:	8b 85 6c e4 ff ff    	mov    -0x1b94(%rbp),%eax
   11d3c:	48 98                	cltq   
   11d3e:	48 c7 84 c5 e0 e7 ff 	movq   $0x0,-0x1820(%rbp,%rax,8)
   11d45:	ff 00 00 00 00 
   11d4a:	83 85 6c e4 ff ff 01 	addl   $0x1,-0x1b94(%rbp)
   11d51:	83 bd 6c e4 ff ff 04 	cmpl   $0x4,-0x1b94(%rbp)
   11d58:	7e dc                	jle    11d36 <func_56+0x383b>
   11d5a:	48 8b 05 b7 75 00 00 	mov    0x75b7(%rip),%rax        # 19318 <g_412>
   11d61:	0f b7 00             	movzwl (%rax),%eax
   11d64:	f7 d0                	not    %eax
   11d66:	0f b7 c0             	movzwl %ax,%eax
   11d69:	25 32 78 00 00       	and    $0x7832,%eax
   11d6e:	be 0f 00 00 00       	mov    $0xf,%esi
   11d73:	89 c7                	mov    %eax,%edi
   11d75:	e8 8c 30 ff ff       	callq  4e06 <safe_lshift_func_uint16_t_u_u>
   11d7a:	0f b7 c0             	movzwl %ax,%eax
   11d7d:	89 85 ec f5 ff ff    	mov    %eax,-0xa14(%rbp)
   11d83:	0f b6 05 a2 7e 00 00 	movzbl 0x7ea2(%rip),%eax        # 19c2c <g_115>
   11d8a:	83 c0 01             	add    $0x1,%eax
   11d8d:	88 05 99 7e 00 00    	mov    %al,0x7e99(%rip)        # 19c2c <g_115>
   11d93:	0f b6 05 92 7e 00 00 	movzbl 0x7e92(%rip),%eax        # 19c2c <g_115>
   11d9a:	3c 01                	cmp    $0x1,%al
   11d9c:	0f 86 18 fd ff ff    	jbe    11aba <func_56+0x35bf>
   11da2:	0f b7 05 e7 62 00 00 	movzwl 0x62e7(%rip),%eax        # 18090 <g_413>
   11da9:	66 85 c0             	test   %ax,%ax
   11dac:	75 18                	jne    11dc6 <func_56+0x38cb>
   11dae:	0f b6 05 cb 62 00 00 	movzbl 0x62cb(%rip),%eax        # 18080 <g_257>
   11db5:	83 e8 01             	sub    $0x1,%eax
   11db8:	88 05 c2 62 00 00    	mov    %al,0x62c2(%rip)        # 18080 <g_257>
   11dbe:	eb 0c                	jmp    11dcc <func_56+0x38d1>
   11dc0:	90                   	nop
   11dc1:	e9 93 cb ff ff       	jmpq   e959 <func_56+0x45e>
   11dc6:	90                   	nop
   11dc7:	e9 8d cb ff ff       	jmpq   e959 <func_56+0x45e>
   11dcc:	0f b6 05 ad 62 00 00 	movzbl 0x62ad(%rip),%eax        # 18080 <g_257>
   11dd3:	84 c0                	test   %al,%al
   11dd5:	0f 89 b1 e5 ff ff    	jns    1038c <func_56+0x1e91>
   11ddb:	c7 85 84 e4 ff ff f3 	movl   $0xfffffff3,-0x1b7c(%rbp)
   11de2:	ff ff ff 
   11de5:	e9 56 08 00 00       	jmpq   12640 <func_56+0x4145>
   11dea:	48 c7 85 e0 e5 ff ff 	movq   $0x1,-0x1a20(%rbp)
   11df1:	01 00 00 00 
   11df5:	c7 85 60 e4 ff ff f9 	movl   $0xfffffff9,-0x1ba0(%rbp)
   11dfc:	ff ff ff 
   11dff:	c7 85 64 e4 ff ff ff 	movl   $0xffffffff,-0x1b9c(%rbp)
   11e06:	ff ff ff 
   11e09:	c7 85 48 e5 ff ff 00 	movl   $0x0,-0x1ab8(%rbp)
   11e10:	00 00 00 
   11e13:	c7 85 b4 e4 ff ff e7 	movl   $0x4f1475e7,-0x1b4c(%rbp)
   11e1a:	75 14 4f 
   11e1d:	c7 85 b8 e4 ff ff fd 	movl   $0xfffffffd,-0x1b48(%rbp)
   11e24:	ff ff ff 
   11e27:	c7 85 bc e4 ff ff 01 	movl   $0x1,-0x1b44(%rbp)
   11e2e:	00 00 00 
   11e31:	c7 85 d0 e8 ff ff 4c 	movl   $0x13ac3f4c,-0x1730(%rbp)
   11e38:	3f ac 13 
   11e3b:	c7 85 d4 e8 ff ff 4c 	movl   $0x13ac3f4c,-0x172c(%rbp)
   11e42:	3f ac 13 
   11e45:	c7 85 d8 e8 ff ff 4c 	movl   $0x13ac3f4c,-0x1728(%rbp)
   11e4c:	3f ac 13 
   11e4f:	c7 85 dc e8 ff ff 4c 	movl   $0x13ac3f4c,-0x1724(%rbp)
   11e56:	3f ac 13 
   11e59:	c6 05 4a 62 00 00 18 	movb   $0x18,0x624a(%rip)        # 180aa <g_843>
   11e60:	e9 af 07 00 00       	jmpq   12614 <func_56+0x4119>
   11e65:	48 c7 85 60 f2 ff ff 	movq   $0x0,-0xda0(%rbp)
   11e6c:	00 00 00 00 
   11e70:	48 8d 85 34 e4 ff ff 	lea    -0x1bcc(%rbp),%rax
   11e77:	48 89 85 68 f2 ff ff 	mov    %rax,-0xd98(%rbp)
   11e7e:	48 c7 85 70 f2 ff ff 	movq   $0x0,-0xd90(%rbp)
   11e85:	00 00 00 00 
   11e89:	48 8d 85 34 e4 ff ff 	lea    -0x1bcc(%rbp),%rax
   11e90:	48 89 85 78 f2 ff ff 	mov    %rax,-0xd88(%rbp)
   11e97:	48 c7 85 80 f2 ff ff 	movq   $0x0,-0xd80(%rbp)
   11e9e:	00 00 00 00 
   11ea2:	48 8d 85 34 e4 ff ff 	lea    -0x1bcc(%rbp),%rax
   11ea9:	48 89 85 88 f2 ff ff 	mov    %rax,-0xd78(%rbp)
   11eb0:	48 c7 85 90 f2 ff ff 	movq   $0x0,-0xd70(%rbp)
   11eb7:	00 00 00 00 
   11ebb:	48 8d 85 34 e4 ff ff 	lea    -0x1bcc(%rbp),%rax
   11ec2:	48 89 85 98 f2 ff ff 	mov    %rax,-0xd68(%rbp)
   11ec9:	c7 85 50 e5 ff ff 29 	movl   $0x3b56e829,-0x1ab0(%rbp)
   11ed0:	e8 56 3b 
   11ed3:	48 c7 85 e8 e5 ff ff 	movq   $0x0,-0x1a18(%rbp)
   11eda:	00 00 00 00 
   11ede:	c7 85 c0 ee ff ff ff 	movl   $0x50e1ffff,-0x1140(%rbp)
   11ee5:	ff e1 50 
   11ee8:	66 c7 85 c4 ee ff ff 	movw   $0xe150,-0x113c(%rbp)
   11eef:	50 e1 
   11ef1:	c6 85 c6 ee ff ff ff 	movb   $0xff,-0x113a(%rbp)
   11ef8:	c7 85 c7 ee ff ff ff 	movl   $0x50e1ffff,-0x1139(%rbp)
   11eff:	ff e1 50 
   11f02:	66 c7 85 cb ee ff ff 	movw   $0xe150,-0x1135(%rbp)
   11f09:	50 e1 
   11f0b:	c6 85 cd ee ff ff ff 	movb   $0xff,-0x1133(%rbp)
   11f12:	c7 85 ce ee ff ff ff 	movl   $0x50e1ffff,-0x1132(%rbp)
   11f19:	ff e1 50 
   11f1c:	66 c7 85 d2 ee ff ff 	movw   $0xe150,-0x112e(%rbp)
   11f23:	50 e1 
   11f25:	c6 85 d4 ee ff ff ff 	movb   $0xff,-0x112c(%rbp)
   11f2c:	48 8d 05 bd 6f 00 00 	lea    0x6fbd(%rip),%rax        # 18ef0 <g_124+0x190>
   11f33:	48 89 85 f0 e5 ff ff 	mov    %rax,-0x1a10(%rbp)
   11f3a:	c7 85 c0 e4 ff ff e5 	movl   $0x4ec963e5,-0x1b40(%rbp)
   11f41:	63 c9 4e 
   11f44:	48 c7 85 f8 e5 ff ff 	movq   $0x0,-0x1a08(%rbp)
   11f4b:	00 00 00 00 
   11f4f:	c7 85 20 e9 ff ff 3a 	movl   $0xf528a43a,-0x16e0(%rbp)
   11f56:	a4 28 f5 
   11f59:	c7 85 24 e9 ff ff 3a 	movl   $0xf528a43a,-0x16dc(%rbp)
   11f60:	a4 28 f5 
   11f63:	c7 85 28 e9 ff ff 3a 	movl   $0xf528a43a,-0x16d8(%rbp)
   11f6a:	a4 28 f5 
   11f6d:	c7 85 2c e9 ff ff 3a 	movl   $0xf528a43a,-0x16d4(%rbp)
   11f74:	a4 28 f5 
   11f77:	48 8d 85 d0 e8 ff ff 	lea    -0x1730(%rbp),%rax
   11f7e:	48 89 85 00 e6 ff ff 	mov    %rax,-0x1a00(%rbp)
   11f85:	c7 85 70 e4 ff ff 00 	movl   $0x0,-0x1b90(%rbp)
   11f8c:	00 00 00 
   11f8f:	eb 1e                	jmp    11faf <func_56+0x3ab4>
   11f91:	8b 85 70 e4 ff ff    	mov    -0x1b90(%rbp),%eax
   11f97:	48 98                	cltq   
   11f99:	48 8d 15 9c 60 00 00 	lea    0x609c(%rip),%rdx        # 1803c <g_93>
   11fa0:	48 89 94 c5 80 f0 ff 	mov    %rdx,-0xf80(%rbp,%rax,8)
   11fa7:	ff 
   11fa8:	83 85 70 e4 ff ff 01 	addl   $0x1,-0x1b90(%rbp)
   11faf:	83 bd 70 e4 ff ff 02 	cmpl   $0x2,-0x1b90(%rbp)
   11fb6:	7e d9                	jle    11f91 <func_56+0x3a96>
   11fb8:	8b 85 50 e5 ff ff    	mov    -0x1ab0(%rbp),%eax
   11fbe:	89 c2                	mov    %eax,%edx
   11fc0:	8b 05 ea 60 00 00    	mov    0x60ea(%rip),%eax        # 180b0 <g_867>
   11fc6:	31 d0                	xor    %edx,%eax
   11fc8:	89 85 50 e5 ff ff    	mov    %eax,-0x1ab0(%rbp)
   11fce:	48 83 bd e8 e5 ff ff 	cmpq   $0x0,-0x1a18(%rbp)
   11fd5:	00 
   11fd6:	0f 94 c0             	sete   %al
   11fd9:	0f b6 d8             	movzbl %al,%ebx
   11fdc:	0f b6 05 61 60 00 00 	movzbl 0x6061(%rip),%eax        # 18044 <g_96>
   11fe3:	88 05 98 60 00 00    	mov    %al,0x6098(%rip)        # 18081 <g_279>
   11fe9:	48 8b 85 10 e4 ff ff 	mov    -0x1bf0(%rbp),%rax
   11ff0:	48 89 c6             	mov    %rax,%rsi
   11ff3:	48 bf 59 38 95 13 af 	movabs $0x66a418af13953859,%rdi
   11ffa:	18 a4 66 
   11ffd:	e8 ad 30 ff ff       	callq  50af <safe_div_func_uint64_t_u_u>
   12002:	48 8b 85 e0 e5 ff ff 	mov    -0x1a20(%rbp),%rax
   12009:	0f b6 c0             	movzbl %al,%eax
   1200c:	89 de                	mov    %ebx,%esi
   1200e:	89 c7                	mov    %eax,%edi
   12010:	e8 7e 2b ff ff       	callq  4b93 <safe_mul_func_uint8_t_u_u>
   12015:	0f b6 d0             	movzbl %al,%edx
   12018:	0f b6 05 25 60 00 00 	movzbl 0x6025(%rip),%eax        # 18044 <g_96>
   1201f:	3c 18                	cmp    $0x18,%al
   12021:	0f 9f c0             	setg   %al
   12024:	0f b6 c0             	movzbl %al,%eax
   12027:	39 c2                	cmp    %eax,%edx
   12029:	0f 94 c0             	sete   %al
   1202c:	0f b6 c0             	movzbl %al,%eax
   1202f:	89 85 60 e4 ff ff    	mov    %eax,-0x1ba0(%rbp)
   12035:	8b 85 60 e4 ff ff    	mov    -0x1ba0(%rbp),%eax
   1203b:	85 c0                	test   %eax,%eax
   1203d:	74 0d                	je     1204c <func_56+0x3b51>
   1203f:	8b 85 1c e4 ff ff    	mov    -0x1be4(%rbp),%eax
   12045:	48 98                	cltq   
   12047:	e9 83 09 00 00       	jmpq   129cf <func_56+0x44d4>
   1204c:	48 c7 85 08 e6 ff ff 	movq   $0x0,-0x19f8(%rbp)
   12053:	00 00 00 00 
   12057:	48 8d 05 a2 72 00 00 	lea    0x72a2(%rip),%rax        # 19300 <g_132>
   1205e:	48 89 85 10 e6 ff ff 	mov    %rax,-0x19f0(%rbp)
   12065:	c7 85 c4 e4 ff ff 02 	movl   $0x2,-0x1b3c(%rbp)
   1206c:	00 00 00 
   1206f:	c7 85 58 e5 ff ff 8a 	movl   $0x2e033c8a,-0x1aa8(%rbp)
   12076:	3c 03 2e 
   12079:	66 c7 85 42 e4 ff ff 	movw   $0x1,-0x1bbe(%rbp)
   12080:	01 00 
   12082:	c7 85 74 e4 ff ff 00 	movl   $0x0,-0x1b8c(%rbp)
   12089:	00 00 00 
   1208c:	eb 1a                	jmp    120a8 <func_56+0x3bad>
   1208e:	8b 85 74 e4 ff ff    	mov    -0x1b8c(%rbp),%eax
   12094:	48 98                	cltq   
   12096:	c7 84 85 b0 eb ff ff 	movl   $0xc6c6b6b1,-0x1450(%rbp,%rax,4)
   1209d:	b1 b6 c6 c6 
   120a1:	83 85 74 e4 ff ff 01 	addl   $0x1,-0x1b8c(%rbp)
   120a8:	83 bd 74 e4 ff ff 04 	cmpl   $0x4,-0x1b8c(%rbp)
   120af:	7e dd                	jle    1208e <func_56+0x3b93>
   120b1:	48 8b 85 10 e6 ff ff 	mov    -0x19f0(%rbp),%rax
   120b8:	48 8d 95 1c e4 ff ff 	lea    -0x1be4(%rbp),%rdx
   120bf:	48 89 10             	mov    %rdx,(%rax)
   120c2:	48 8b 05 37 72 00 00 	mov    0x7237(%rip),%rax        # 19300 <g_132>
   120c9:	8b 18                	mov    (%rax),%ebx
   120cb:	48 8b 05 4e 72 00 00 	mov    0x724e(%rip),%rax        # 19320 <g_695>
   120d2:	48 8b 00             	mov    (%rax),%rax
   120d5:	0f b7 10             	movzwl (%rax),%edx
   120d8:	83 ea 01             	sub    $0x1,%edx
   120db:	66 89 10             	mov    %dx,(%rax)
   120de:	0f b7 00             	movzwl (%rax),%eax
   120e1:	66 85 c0             	test   %ax,%ax
   120e4:	75 0b                	jne    120f1 <func_56+0x3bf6>
   120e6:	0f b6 85 c9 ee ff ff 	movzbl -0x1137(%rbp),%eax
   120ed:	84 c0                	test   %al,%al
   120ef:	74 08                	je     120f9 <func_56+0x3bfe>
   120f1:	41 bc 01 00 00 00    	mov    $0x1,%r12d
   120f7:	eb 06                	jmp    120ff <func_56+0x3c04>
   120f9:	41 bc 00 00 00 00    	mov    $0x0,%r12d
   120ff:	be 02 00 00 00       	mov    $0x2,%esi
   12104:	bf 01 00 00 00       	mov    $0x1,%edi
   12109:	e8 f8 2c ff ff       	callq  4e06 <safe_lshift_func_uint16_t_u_u>
   1210e:	0f be 95 2c e4 ff ff 	movsbl -0x1bd4(%rbp),%edx
   12115:	0f b6 85 cc ee ff ff 	movzbl -0x1134(%rbp),%eax
   1211c:	0f b6 c0             	movzbl %al,%eax
   1211f:	21 d0                	and    %edx,%eax
   12121:	85 c0                	test   %eax,%eax
   12123:	75 0b                	jne    12130 <func_56+0x3c35>
   12125:	0f b6 05 10 5f 00 00 	movzbl 0x5f10(%rip),%eax        # 1803c <g_93>
   1212c:	84 c0                	test   %al,%al
   1212e:	74 07                	je     12137 <func_56+0x3c3c>
   12130:	b8 01 00 00 00       	mov    $0x1,%eax
   12135:	eb 05                	jmp    1213c <func_56+0x3c41>
   12137:	b8 00 00 00 00       	mov    $0x0,%eax
   1213c:	41 39 c4             	cmp    %eax,%r12d
   1213f:	0f 9c c0             	setl   %al
   12142:	0f b6 c0             	movzbl %al,%eax
   12145:	39 c3                	cmp    %eax,%ebx
   12147:	0f 8d 85 04 00 00    	jge    125d2 <func_56+0x40d7>
   1214d:	48 8d 05 c4 71 00 00 	lea    0x71c4(%rip),%rax        # 19318 <g_412>
   12154:	48 89 85 18 e6 ff ff 	mov    %rax,-0x19e8(%rbp)
   1215b:	48 8d 05 be 71 00 00 	lea    0x71be(%rip),%rax        # 19320 <g_695>
   12162:	48 89 85 20 e6 ff ff 	mov    %rax,-0x19e0(%rbp)
   12169:	48 8d 85 c0 ee ff ff 	lea    -0x1140(%rbp),%rax
   12170:	48 83 c0 09          	add    $0x9,%rax
   12174:	48 89 85 28 e6 ff ff 	mov    %rax,-0x19d8(%rbp)
   1217b:	c7 85 60 e5 ff ff b3 	movl   $0xc7724fb3,-0x1aa0(%rbp)
   12182:	4f 72 c7 
   12185:	c7 85 c8 e4 ff ff f6 	movl   $0xfffffff6,-0x1b38(%rbp)
   1218c:	ff ff ff 
   1218f:	c7 85 cc e4 ff ff b8 	movl   $0x59fa4fb8,-0x1b34(%rbp)
   12196:	4f fa 59 
   12199:	c7 85 d0 e4 ff ff c6 	movl   $0x9fc65dc6,-0x1b30(%rbp)
   121a0:	5d c6 9f 
   121a3:	c7 85 d4 e4 ff ff 08 	movl   $0x8,-0x1b2c(%rbp)
   121aa:	00 00 00 
   121ad:	c7 85 d8 e4 ff ff 1b 	movl   $0x26e751b,-0x1b28(%rbp)
   121b4:	75 6e 02 
   121b7:	c7 85 dc e4 ff ff 00 	movl   $0x0,-0x1b24(%rbp)
   121be:	00 00 00 
   121c1:	c7 85 e0 e4 ff ff 01 	movl   $0x1,-0x1b20(%rbp)
   121c8:	00 00 00 
   121cb:	c7 85 e4 e4 ff ff 05 	movl   $0x5,-0x1b1c(%rbp)
   121d2:	00 00 00 
   121d5:	c7 85 e8 e4 ff ff fc 	movl   $0xfffffffc,-0x1b18(%rbp)
   121dc:	ff ff ff 
   121df:	c7 85 ec e4 ff ff 74 	movl   $0x54f30e74,-0x1b14(%rbp)
   121e6:	0e f3 54 
   121e9:	c7 85 f0 e4 ff ff ba 	movl   $0xac09a4ba,-0x1b10(%rbp)
   121f0:	a4 09 ac 
   121f3:	c7 85 f4 e4 ff ff 8f 	movl   $0x74e6238f,-0x1b0c(%rbp)
   121fa:	23 e6 74 
   121fd:	c7 85 f8 e4 ff ff 28 	movl   $0x4f573628,-0x1b08(%rbp)
   12204:	36 57 4f 
   12207:	c7 85 fc e4 ff ff 5c 	movl   $0xf348465c,-0x1b04(%rbp)
   1220e:	46 48 f3 
   12211:	c7 85 00 e5 ff ff 14 	movl   $0xe014bf14,-0x1b00(%rbp)
   12218:	bf 14 e0 
   1221b:	48 8b 85 20 e6 ff ff 	mov    -0x19e0(%rbp),%rax
   12222:	48 8b 95 b0 e5 ff ff 	mov    -0x1a50(%rbp),%rdx
   12229:	48 89 10             	mov    %rdx,(%rax)
   1222c:	48 8b 85 10 e4 ff ff 	mov    -0x1bf0(%rbp),%rax
   12233:	0f b6 d8             	movzbl %al,%ebx
   12236:	8b 85 60 e5 ff ff    	mov    -0x1aa0(%rbp),%eax
   1223c:	44 0f bf e0          	movswl %ax,%r12d
   12240:	48 8b 05 f9 6a 00 00 	mov    0x6af9(%rip),%rax        # 18d40 <g_125>
   12247:	44 8b 28             	mov    (%rax),%r13d
   1224a:	8b 85 c4 e4 ff ff    	mov    -0x1b3c(%rbp),%eax
   12250:	89 c2                	mov    %eax,%edx
   12252:	48 8b 85 10 e4 ff ff 	mov    -0x1bf0(%rbp),%rax
   12259:	31 d0                	xor    %edx,%eax
   1225b:	98                   	cwtl   
   1225c:	be 0d 00 00 00       	mov    $0xd,%esi
   12261:	89 c7                	mov    %eax,%edi
   12263:	e8 2a 22 ff ff       	callq  4492 <safe_lshift_func_int16_t_s_s>
   12268:	48 8b 85 70 e5 ff ff 	mov    -0x1a90(%rbp),%rax
   1226f:	8b 00                	mov    (%rax),%eax
   12271:	0f b7 c0             	movzwl %ax,%eax
   12274:	be 0f 00 00 00       	mov    $0xf,%esi
   12279:	89 c7                	mov    %eax,%edi
   1227b:	e8 c8 2b ff ff       	callq  4e48 <safe_rshift_func_uint16_t_u_s>
   12280:	0f be c0             	movsbl %al,%eax
   12283:	be 06 00 00 00       	mov    $0x6,%esi
   12288:	89 c7                	mov    %eax,%edi
   1228a:	e8 a6 20 ff ff       	callq  4335 <safe_rshift_func_int8_t_s_s>
   1228f:	84 c0                	test   %al,%al
   12291:	74 11                	je     122a4 <func_56+0x3da9>
   12293:	8b 85 1c e4 ff ff    	mov    -0x1be4(%rbp),%eax
   12299:	85 c0                	test   %eax,%eax
   1229b:	74 07                	je     122a4 <func_56+0x3da9>
   1229d:	b8 01 00 00 00       	mov    $0x1,%eax
   122a2:	eb 05                	jmp    122a9 <func_56+0x3dae>
   122a4:	b8 00 00 00 00       	mov    $0x0,%eax
   122a9:	0f b6 d0             	movzbl %al,%edx
   122ac:	48 8d 05 3d 6c 00 00 	lea    0x6c3d(%rip),%rax        # 18ef0 <g_124+0x190>
   122b3:	48 39 85 f0 e5 ff ff 	cmp    %rax,-0x1a10(%rbp)
   122ba:	0f 94 c0             	sete   %al
   122bd:	0f b6 c0             	movzbl %al,%eax
   122c0:	89 d6                	mov    %edx,%esi
   122c2:	89 c7                	mov    %eax,%edi
   122c4:	e8 af 28 ff ff       	callq  4b78 <safe_sub_func_uint8_t_u_u>
   122c9:	48 8b 85 28 e6 ff ff 	mov    -0x19d8(%rbp),%rax
   122d0:	0f b6 00             	movzbl (%rax),%eax
   122d3:	48 8b 15 76 5d 00 00 	mov    0x5d76(%rip),%rdx        # 18050 <g_153>
   122da:	21 c2                	and    %eax,%edx
   122dc:	48 8b 85 28 e6 ff ff 	mov    -0x19d8(%rbp),%rax
   122e3:	88 10                	mov    %dl,(%rax)
   122e5:	48 8b 85 28 e6 ff ff 	mov    -0x19d8(%rbp),%rax
   122ec:	0f b6 00             	movzbl (%rax),%eax
   122ef:	0f b6 c0             	movzbl %al,%eax
   122f2:	be 01 00 00 00       	mov    $0x1,%esi
   122f7:	89 c7                	mov    %eax,%edi
   122f9:	e8 07 29 ff ff       	callq  4c05 <safe_lshift_func_uint8_t_u_s>
   122fe:	0f b6 c0             	movzbl %al,%eax
   12301:	44 89 ee             	mov    %r13d,%esi
   12304:	89 c7                	mov    %eax,%edi
   12306:	e8 fa 22 ff ff       	callq  4605 <safe_sub_func_int32_t_s_s>
   1230b:	98                   	cwtl   
   1230c:	44 89 e6             	mov    %r12d,%esi
   1230f:	89 c7                	mov    %eax,%edi
   12311:	e8 00 21 ff ff       	callq  4416 <safe_mod_func_int16_t_s_s>
   12316:	0f b6 c0             	movzbl %al,%eax
   12319:	89 de                	mov    %ebx,%esi
   1231b:	89 c7                	mov    %eax,%edi
   1231d:	e8 56 28 ff ff       	callq  4b78 <safe_sub_func_uint8_t_u_u>
   12322:	84 c0                	test   %al,%al
   12324:	0f 84 9f 01 00 00    	je     124c9 <func_56+0x3fce>
   1232a:	48 8d 85 4c e4 ff ff 	lea    -0x1bb4(%rbp),%rax
   12331:	48 89 85 78 e6 ff ff 	mov    %rax,-0x1988(%rbp)
   12338:	48 8d 85 50 e4 ff ff 	lea    -0x1bb0(%rbp),%rax
   1233f:	48 89 85 80 e6 ff ff 	mov    %rax,-0x1980(%rbp)
   12346:	48 8d 85 60 e5 ff ff 	lea    -0x1aa0(%rbp),%rax
   1234d:	48 89 85 88 e6 ff ff 	mov    %rax,-0x1978(%rbp)
   12354:	48 8d 05 cd 78 00 00 	lea    0x78cd(%rip),%rax        # 19c28 <g_99>
   1235b:	48 89 85 90 e6 ff ff 	mov    %rax,-0x1970(%rbp)
   12362:	48 8d 85 4c e4 ff ff 	lea    -0x1bb4(%rbp),%rax
   12369:	48 89 85 98 e6 ff ff 	mov    %rax,-0x1968(%rbp)
   12370:	c7 85 c0 f7 ff ff 11 	movl   $0x15932c11,-0x840(%rbp)
   12377:	2c 93 15 
   1237a:	c7 85 c4 f7 ff ff f7 	movl   $0xfffffff7,-0x83c(%rbp)
   12381:	ff ff ff 
   12384:	c7 85 c8 f7 ff ff f7 	movl   $0xfffffff7,-0x838(%rbp)
   1238b:	ff ff ff 
   1238e:	c7 85 cc f7 ff ff 86 	movl   $0x9c8d8986,-0x834(%rbp)
   12395:	89 8d 9c 
   12398:	c7 85 d0 f7 ff ff f7 	movl   $0xfffffff7,-0x830(%rbp)
   1239f:	ff ff ff 
   123a2:	c7 85 d4 f7 ff ff f8 	movl   $0xfffffff8,-0x82c(%rbp)
   123a9:	ff ff ff 
   123ac:	c7 85 d8 f7 ff ff f5 	movl   $0xe6f307f5,-0x828(%rbp)
   123b3:	07 f3 e6 
   123b6:	c7 85 dc f7 ff ff 11 	movl   $0x15932c11,-0x824(%rbp)
   123bd:	2c 93 15 
   123c0:	c7 85 e0 f7 ff ff 86 	movl   $0x8bdeb686,-0x820(%rbp)
   123c7:	b6 de 8b 
   123ca:	c7 85 e4 f7 ff ff 86 	movl   $0x9c8d8986,-0x81c(%rbp)
   123d1:	89 8d 9c 
   123d4:	c7 85 e8 f7 ff ff 86 	movl   $0x9c8d8986,-0x818(%rbp)
   123db:	89 8d 9c 
   123de:	c7 85 ec f7 ff ff 86 	movl   $0x8bdeb686,-0x814(%rbp)
   123e5:	b6 de 8b 
   123e8:	c7 85 f0 f7 ff ff 11 	movl   $0x15932c11,-0x810(%rbp)
   123ef:	2c 93 15 
   123f2:	c7 85 f4 f7 ff ff f5 	movl   $0xe6f307f5,-0x80c(%rbp)
   123f9:	07 f3 e6 
   123fc:	c7 85 f8 f7 ff ff f8 	movl   $0xfffffff8,-0x808(%rbp)
   12403:	ff ff ff 
   12406:	c7 85 fc f7 ff ff f7 	movl   $0xfffffff7,-0x804(%rbp)
   1240d:	ff ff ff 
   12410:	c7 85 00 f8 ff ff 86 	movl   $0x9c8d8986,-0x800(%rbp)
   12417:	89 8d 9c 
   1241a:	c7 85 04 f8 ff ff f7 	movl   $0xfffffff7,-0x7fc(%rbp)
   12421:	ff ff ff 
   12424:	c7 85 08 f8 ff ff f7 	movl   $0xfffffff7,-0x7f8(%rbp)
   1242b:	ff ff ff 
   1242e:	c7 85 0c f8 ff ff 11 	movl   $0x15932c11,-0x7f4(%rbp)
   12435:	2c 93 15 
   12438:	c7 85 10 f8 ff ff 86 	movl   $0x9c8d8986,-0x7f0(%rbp)
   1243f:	89 8d 9c 
   12442:	c7 85 78 e4 ff ff 00 	movl   $0x0,-0x1b88(%rbp)
   12449:	00 00 00 
   1244c:	eb 1e                	jmp    1246c <func_56+0x3f71>
   1244e:	8b 85 78 e4 ff ff    	mov    -0x1b88(%rbp),%eax
   12454:	48 98                	cltq   
   12456:	48 8d 95 64 e4 ff ff 	lea    -0x1b9c(%rbp),%rdx
   1245d:	48 89 94 c5 80 e8 ff 	mov    %rdx,-0x1780(%rbp,%rax,8)
   12464:	ff 
   12465:	83 85 78 e4 ff ff 01 	addl   $0x1,-0x1b88(%rbp)
   1246c:	83 bd 78 e4 ff ff 00 	cmpl   $0x0,-0x1b88(%rbp)
   12473:	7e d9                	jle    1244e <func_56+0x3f53>
   12475:	48 83 85 f8 e5 ff ff 	addq   $0x1,-0x1a08(%rbp)
   1247c:	01 
   1247d:	48 8b 15 04 5c 00 00 	mov    0x5c04(%rip),%rdx        # 18088 <g_409>
   12484:	48 8b 85 10 e4 ff ff 	mov    -0x1bf0(%rbp),%rax
   1248b:	48 09 d0             	or     %rdx,%rax
   1248e:	48 89 05 f3 5b 00 00 	mov    %rax,0x5bf3(%rip)        # 18088 <g_409>
   12495:	48 8b 85 88 e6 ff ff 	mov    -0x1978(%rbp),%rax
   1249c:	c7 00 11 43 7d 47    	movl   $0x477d4311,(%rax)
   124a2:	48 8b 85 10 e6 ff ff 	mov    -0x19f0(%rbp),%rax
   124a9:	48 8d 95 1c e4 ff ff 	lea    -0x1be4(%rbp),%rdx
   124b0:	48 89 10             	mov    %rdx,(%rax)
   124b3:	48 8b 85 98 e6 ff ff 	mov    -0x1968(%rbp),%rax
   124ba:	8b 00                	mov    (%rax),%eax
   124bc:	85 c0                	test   %eax,%eax
   124be:	0f 84 f8 00 00 00    	je     125bc <func_56+0x40c1>
   124c4:	e9 3b 01 00 00       	jmpq   12604 <func_56+0x4109>
   124c9:	48 c7 85 30 e6 ff ff 	movq   $0x0,-0x19d0(%rbp)
   124d0:	00 00 00 00 
   124d4:	48 c7 85 38 e6 ff ff 	movq   $0x0,-0x19c8(%rbp)
   124db:	00 00 00 00 
   124df:	48 8d 85 50 e5 ff ff 	lea    -0x1ab0(%rbp),%rax
   124e6:	48 89 85 40 e6 ff ff 	mov    %rax,-0x19c0(%rbp)
   124ed:	48 c7 85 48 e6 ff ff 	movq   $0x0,-0x19b8(%rbp)
   124f4:	00 00 00 00 
   124f8:	48 8d 05 ad 5b 00 00 	lea    0x5bad(%rip),%rax        # 180ac <g_850>
   124ff:	48 89 85 50 e6 ff ff 	mov    %rax,-0x19b0(%rbp)
   12506:	48 c7 85 58 e6 ff ff 	movq   $0x0,-0x19a8(%rbp)
   1250d:	00 00 00 00 
   12511:	48 c7 85 60 e6 ff ff 	movq   $0x0,-0x19a0(%rbp)
   12518:	00 00 00 00 
   1251c:	48 8d 85 58 e5 ff ff 	lea    -0x1aa8(%rbp),%rax
   12523:	48 89 85 68 e6 ff ff 	mov    %rax,-0x1998(%rbp)
   1252a:	48 c7 85 70 e6 ff ff 	movq   $0x0,-0x1990(%rbp)
   12531:	00 00 00 00 
   12535:	48 8d 05 3c 5b 00 00 	lea    0x5b3c(%rip),%rax        # 18078 <g_211+0x18>
   1253c:	48 89 85 c0 f7 ff ff 	mov    %rax,-0x840(%rbp)
   12543:	48 8d 05 2e 5b 00 00 	lea    0x5b2e(%rip),%rax        # 18078 <g_211+0x18>
   1254a:	48 89 85 c8 f7 ff ff 	mov    %rax,-0x838(%rbp)
   12551:	48 8d 05 20 5b 00 00 	lea    0x5b20(%rip),%rax        # 18078 <g_211+0x18>
   12558:	48 89 85 d0 f7 ff ff 	mov    %rax,-0x830(%rbp)
   1255f:	48 8d 05 12 5b 00 00 	lea    0x5b12(%rip),%rax        # 18078 <g_211+0x18>
   12566:	48 89 85 d8 f7 ff ff 	mov    %rax,-0x828(%rbp)
   1256d:	48 8d 05 04 5b 00 00 	lea    0x5b04(%rip),%rax        # 18078 <g_211+0x18>
   12574:	48 89 85 e0 f7 ff ff 	mov    %rax,-0x820(%rbp)
   1257b:	66 c7 85 44 e4 ff ff 	movw   $0x88ae,-0x1bbc(%rbp)
   12582:	ae 88 
   12584:	0f b7 85 42 e4 ff ff 	movzwl -0x1bbe(%rbp),%eax
   1258b:	83 c0 01             	add    $0x1,%eax
   1258e:	66 89 85 42 e4 ff ff 	mov    %ax,-0x1bbe(%rbp)
   12595:	8b 85 1c e4 ff ff    	mov    -0x1be4(%rbp),%eax
   1259b:	85 c0                	test   %eax,%eax
   1259d:	75 61                	jne    12600 <func_56+0x4105>
   1259f:	48 8b 85 10 e6 ff ff 	mov    -0x19f0(%rbp),%rax
   125a6:	48 8b 00             	mov    (%rax),%rax
   125a9:	8b 00                	mov    (%rax),%eax
   125ab:	85 c0                	test   %eax,%eax
   125ad:	75 54                	jne    12603 <func_56+0x4108>
   125af:	48 8b 85 10 e4 ff ff 	mov    -0x1bf0(%rbp),%rax
   125b6:	89 85 b8 e4 ff ff    	mov    %eax,-0x1b48(%rbp)
   125bc:	8b 95 d8 e8 ff ff    	mov    -0x1728(%rbp),%edx
   125c2:	8b 85 60 e4 ff ff    	mov    -0x1ba0(%rbp),%eax
   125c8:	31 d0                	xor    %edx,%eax
   125ca:	89 85 d8 e8 ff ff    	mov    %eax,-0x1728(%rbp)
   125d0:	eb 11                	jmp    125e3 <func_56+0x40e8>
   125d2:	48 8b 85 10 e6 ff ff 	mov    -0x19f0(%rbp),%rax
   125d9:	48 8d 95 48 e5 ff ff 	lea    -0x1ab8(%rbp),%rdx
   125e0:	48 89 10             	mov    %rdx,(%rax)
   125e3:	48 8b 05 16 6d 00 00 	mov    0x6d16(%rip),%rax        # 19300 <g_132>
   125ea:	8b 00                	mov    (%rax),%eax
   125ec:	85 c0                	test   %eax,%eax
   125ee:	75 35                	jne    12625 <func_56+0x412a>
   125f0:	48 8d 85 60 e4 ff ff 	lea    -0x1ba0(%rbp),%rax
   125f7:	48 89 85 00 e6 ff ff 	mov    %rax,-0x1a00(%rbp)
   125fe:	eb 04                	jmp    12604 <func_56+0x4109>
   12600:	90                   	nop
   12601:	eb 01                	jmp    12604 <func_56+0x4109>
   12603:	90                   	nop
   12604:	0f b6 05 9f 5a 00 00 	movzbl 0x5a9f(%rip),%eax        # 180aa <g_843>
   1260b:	83 e8 01             	sub    $0x1,%eax
   1260e:	88 05 96 5a 00 00    	mov    %al,0x5a96(%rip)        # 180aa <g_843>
   12614:	0f b6 05 8f 5a 00 00 	movzbl 0x5a8f(%rip),%eax        # 180aa <g_843>
   1261b:	3c 05                	cmp    $0x5,%al
   1261d:	0f 85 42 f8 ff ff    	jne    11e65 <func_56+0x396a>
   12623:	eb 01                	jmp    12626 <func_56+0x412b>
   12625:	90                   	nop
   12626:	8b 85 84 e4 ff ff    	mov    -0x1b7c(%rbp),%eax
   1262c:	98                   	cwtl   
   1262d:	be 07 00 00 00       	mov    $0x7,%esi
   12632:	89 c7                	mov    %eax,%edi
   12634:	e8 9a 1d ff ff       	callq  43d3 <safe_sub_func_int16_t_s_s>
   12639:	98                   	cwtl   
   1263a:	89 85 84 e4 ff ff    	mov    %eax,-0x1b7c(%rbp)
   12640:	83 bd 84 e4 ff ff ec 	cmpl   $0xffffffec,-0x1b7c(%rbp)
   12647:	0f 85 9d f7 ff ff    	jne    11dea <func_56+0x38ef>
   1264d:	48 83 bd 10 e4 ff ff 	cmpq   $0x0,-0x1bf0(%rbp)
   12654:	00 
   12655:	0f 84 6a 03 00 00    	je     129c5 <func_56+0x44ca>
   1265b:	66 c7 85 40 e4 ff ff 	movw   $0xffff,-0x1bc0(%rbp)
   12662:	ff ff 
   12664:	48 8d 05 65 6d 00 00 	lea    0x6d65(%rip),%rax        # 193d0 <g_966>
   1266b:	48 89 85 b8 e5 ff ff 	mov    %rax,-0x1a48(%rbp)
   12672:	48 8d 85 2a e4 ff ff 	lea    -0x1bd6(%rbp),%rax
   12679:	48 89 85 c0 e5 ff ff 	mov    %rax,-0x1a40(%rbp)
   12680:	48 8d 85 54 e4 ff ff 	lea    -0x1bac(%rbp),%rax
   12687:	48 89 85 c8 e5 ff ff 	mov    %rax,-0x1a38(%rbp)
   1268e:	48 8d 85 4c e4 ff ff 	lea    -0x1bb4(%rbp),%rax
   12695:	48 89 85 c0 f7 ff ff 	mov    %rax,-0x840(%rbp)
   1269c:	48 8d 85 4c e4 ff ff 	lea    -0x1bb4(%rbp),%rax
   126a3:	48 89 85 c8 f7 ff ff 	mov    %rax,-0x838(%rbp)
   126aa:	48 8d 85 4c e4 ff ff 	lea    -0x1bb4(%rbp),%rax
   126b1:	48 89 85 d0 f7 ff ff 	mov    %rax,-0x830(%rbp)
   126b8:	48 8d 85 4c e4 ff ff 	lea    -0x1bb4(%rbp),%rax
   126bf:	48 89 85 d8 f7 ff ff 	mov    %rax,-0x828(%rbp)
   126c6:	48 8d 05 b3 59 00 00 	lea    0x59b3(%rip),%rax        # 18080 <g_257>
   126cd:	48 89 85 d0 e5 ff ff 	mov    %rax,-0x1a30(%rbp)
   126d4:	48 8d 05 5d 75 00 00 	lea    0x755d(%rip),%rax        # 19c38 <g_220>
   126db:	48 89 85 d8 e5 ff ff 	mov    %rax,-0x1a28(%rbp)
   126e2:	c7 85 7c e4 ff ff 00 	movl   $0x0,-0x1b84(%rbp)
   126e9:	00 00 00 
   126ec:	eb 19                	jmp    12707 <func_56+0x420c>
   126ee:	8b 85 7c e4 ff ff    	mov    -0x1b84(%rbp),%eax
   126f4:	48 98                	cltq   
   126f6:	66 c7 84 45 60 f2 ff 	movw   $0x1,-0xda0(%rbp,%rax,2)
   126fd:	ff 01 00 
   12700:	83 85 7c e4 ff ff 01 	addl   $0x1,-0x1b84(%rbp)
   12707:	83 bd 7c e4 ff ff 04 	cmpl   $0x4,-0x1b84(%rbp)
   1270e:	7e de                	jle    126ee <func_56+0x41f3>
   12710:	66 83 bd 40 e4 ff ff 	cmpw   $0x0,-0x1bc0(%rbp)
   12717:	00 
   12718:	0f 84 22 01 00 00    	je     12840 <func_56+0x4345>
   1271e:	48 8b 15 ab 6c 00 00 	mov    0x6cab(%rip),%rdx        # 193d0 <g_966>
   12725:	48 8b 85 b8 e5 ff ff 	mov    -0x1a48(%rbp),%rax
   1272c:	48 89 10             	mov    %rdx,(%rax)
   1272f:	48 8b 85 b8 e5 ff ff 	mov    -0x1a48(%rbp),%rax
   12736:	48 8b 00             	mov    (%rax),%rax
   12739:	48 89 05 98 6c 00 00 	mov    %rax,0x6c98(%rip)        # 193d8 <g_970>
   12740:	48 8b 15 91 6c 00 00 	mov    0x6c91(%rip),%rdx        # 193d8 <g_970>
   12747:	48 8d 05 7a 6c 00 00 	lea    0x6c7a(%rip),%rax        # 193c8 <g_967>
   1274e:	48 89 05 03 75 00 00 	mov    %rax,0x7503(%rip)        # 19c58 <g_971>
   12755:	48 8b 05 fc 74 00 00 	mov    0x74fc(%rip),%rax        # 19c58 <g_971>
   1275c:	48 39 c2             	cmp    %rax,%rdx
   1275f:	0f 95 c0             	setne  %al
   12762:	44 0f b6 e8          	movzbl %al,%r13d
   12766:	c7 85 48 f5 ff ff 00 	movl   $0x0,-0xab8(%rbp)
   1276d:	00 00 00 
   12770:	48 8b 85 d0 e5 ff ff 	mov    -0x1a30(%rbp),%rax
   12777:	c6 00 06             	movb   $0x6,(%rax)
   1277a:	ba 01 00 00 00       	mov    $0x1,%edx
   1277f:	8b 85 50 e4 ff ff    	mov    -0x1bb0(%rbp),%eax
   12785:	09 d0                	or     %edx,%eax
   12787:	89 85 50 e4 ff ff    	mov    %eax,-0x1bb0(%rbp)
   1278d:	48 8b 85 70 e5 ff ff 	mov    -0x1a90(%rbp),%rax
   12794:	8b 18                	mov    (%rax),%ebx
   12796:	8b 85 1c e4 ff ff    	mov    -0x1be4(%rbp),%eax
   1279c:	41 89 c4             	mov    %eax,%r12d
   1279f:	48 8b 85 10 e4 ff ff 	mov    -0x1bf0(%rbp),%rax
   127a6:	0f be d0             	movsbl %al,%edx
   127a9:	48 8b 85 10 e4 ff ff 	mov    -0x1bf0(%rbp),%rax
   127b0:	0f be c0             	movsbl %al,%eax
   127b3:	89 d6                	mov    %edx,%esi
   127b5:	89 c7                	mov    %eax,%edi
   127b7:	e8 56 1a ff ff       	callq  4212 <safe_mul_func_int8_t_s_s>
   127bc:	0f be d0             	movsbl %al,%edx
   127bf:	0f b7 85 3e e4 ff ff 	movzwl -0x1bc2(%rbp),%eax
   127c6:	39 c2                	cmp    %eax,%edx
   127c8:	0f 9f c0             	setg   %al
   127cb:	0f b6 c0             	movzbl %al,%eax
   127ce:	44 89 e6             	mov    %r12d,%esi
   127d1:	89 c7                	mov    %eax,%edi
   127d3:	e8 09 1d ff ff       	callq  44e1 <safe_lshift_func_int16_t_s_u>
   127d8:	0f b7 c0             	movzwl %ax,%eax
   127db:	89 de                	mov    %ebx,%esi
   127dd:	89 c7                	mov    %eax,%edi
   127df:	e8 64 26 ff ff       	callq  4e48 <safe_rshift_func_uint16_t_u_s>
   127e4:	48 8b 85 c0 e5 ff ff 	mov    -0x1a40(%rbp),%rax
   127eb:	0f b6 00             	movzbl (%rax),%eax
   127ee:	44 89 ea             	mov    %r13d,%edx
   127f1:	21 c2                	and    %eax,%edx
   127f3:	48 8b 85 c0 e5 ff ff 	mov    -0x1a40(%rbp),%rax
   127fa:	88 10                	mov    %dl,(%rax)
   127fc:	48 8b 85 c0 e5 ff ff 	mov    -0x1a40(%rbp),%rax
   12803:	0f b6 00             	movzbl (%rax),%eax
   12806:	0f be d0             	movsbl %al,%edx
   12809:	8b 85 1c e4 ff ff    	mov    -0x1be4(%rbp),%eax
   1280f:	85 c0                	test   %eax,%eax
   12811:	78 07                	js     1281a <func_56+0x431f>
   12813:	b8 01 00 00 00       	mov    $0x1,%eax
   12818:	eb 05                	jmp    1281f <func_56+0x4324>
   1281a:	b8 00 00 00 00       	mov    $0x0,%eax
   1281f:	48 3b 85 10 e4 ff ff 	cmp    -0x1bf0(%rbp),%rax
   12826:	0f 9f c0             	setg   %al
   12829:	0f b6 c0             	movzbl %al,%eax
   1282c:	09 d0                	or     %edx,%eax
   1282e:	48 98                	cltq   
   12830:	48 39 85 10 e4 ff ff 	cmp    %rax,-0x1bf0(%rbp)
   12837:	7c 07                	jl     12840 <func_56+0x4345>
   12839:	ba 01 00 00 00       	mov    $0x1,%edx
   1283e:	eb 05                	jmp    12845 <func_56+0x434a>
   12840:	ba 00 00 00 00       	mov    $0x0,%edx
   12845:	0f b7 85 64 f2 ff ff 	movzwl -0xd9c(%rbp),%eax
   1284c:	09 d0                	or     %edx,%eax
   1284e:	66 89 85 64 f2 ff ff 	mov    %ax,-0xd9c(%rbp)
   12855:	48 8b 85 d8 f7 ff ff 	mov    -0x828(%rbp),%rax
   1285c:	48 89 85 70 e5 ff ff 	mov    %rax,-0x1a90(%rbp)
   12863:	48 8b 85 10 e4 ff ff 	mov    -0x1bf0(%rbp),%rax
   1286a:	0f b7 d8             	movzwl %ax,%ebx
   1286d:	48 8b 85 10 e4 ff ff 	mov    -0x1bf0(%rbp),%rax
   12874:	89 85 18 e4 ff ff    	mov    %eax,-0x1be8(%rbp)
   1287a:	48 8b 05 97 6a 00 00 	mov    0x6a97(%rip),%rax        # 19318 <g_412>
   12881:	0f b7 00             	movzwl (%rax),%eax
   12884:	44 0f b7 e0          	movzwl %ax,%r12d
   12888:	48 83 bd d8 e5 ff ff 	cmpq   $0x0,-0x1a28(%rbp)
   1288f:	00 
   12890:	0f 95 c0             	setne  %al
   12893:	44 0f b6 f8          	movzbl %al,%r15d
   12897:	48 8b 05 ea 57 00 00 	mov    0x57ea(%rip),%rax        # 18088 <g_409>
   1289e:	44 0f be e8          	movsbl %al,%r13d
   128a2:	48 8b 85 10 e4 ff ff 	mov    -0x1bf0(%rbp),%rax
   128a9:	44 0f bf f0          	movswl %ax,%r14d
   128ad:	83 bd ac e4 ff ff 00 	cmpl   $0x0,-0x1b54(%rbp)
   128b4:	74 1a                	je     128d0 <func_56+0x43d5>
   128b6:	8b 85 1c e4 ff ff    	mov    -0x1be4(%rbp),%eax
   128bc:	89 c2                	mov    %eax,%edx
   128be:	8b 85 1c e4 ff ff    	mov    -0x1be4(%rbp),%eax
   128c4:	98                   	cwtl   
   128c5:	89 d6                	mov    %edx,%esi
   128c7:	89 c7                	mov    %eax,%edi
   128c9:	e8 13 1c ff ff       	callq  44e1 <safe_lshift_func_int16_t_s_u>
   128ce:	eb 23                	jmp    128f3 <func_56+0x43f8>
   128d0:	48 8b 95 10 e4 ff ff 	mov    -0x1bf0(%rbp),%rdx
   128d7:	8b 85 1c e4 ff ff    	mov    -0x1be4(%rbp),%eax
   128dd:	48 98                	cltq   
   128df:	48 89 d6             	mov    %rdx,%rsi
   128e2:	48 89 c7             	mov    %rax,%rdi
   128e5:	e8 61 27 ff ff       	callq  504b <safe_sub_func_uint64_t_u_u>
   128ea:	b8 36 d8 6b fd       	mov    $0xfd6bd836,%eax
   128ef:	85 c0                	test   %eax,%eax
   128f1:	74 07                	je     128fa <func_56+0x43ff>
   128f3:	b8 01 00 00 00       	mov    $0x1,%eax
   128f8:	eb 05                	jmp    128ff <func_56+0x4404>
   128fa:	b8 00 00 00 00       	mov    $0x0,%eax
   128ff:	98                   	cwtl   
   12900:	44 89 f6             	mov    %r14d,%esi
   12903:	89 c7                	mov    %eax,%edi
   12905:	e8 eb 1a ff ff       	callq  43f5 <safe_mul_func_int16_t_s_s>
   1290a:	66 85 c0             	test   %ax,%ax
   1290d:	75 0a                	jne    12919 <func_56+0x441e>
   1290f:	8b 85 1c e4 ff ff    	mov    -0x1be4(%rbp),%eax
   12915:	85 c0                	test   %eax,%eax
   12917:	74 07                	je     12920 <func_56+0x4425>
   12919:	b8 01 00 00 00       	mov    $0x1,%eax
   1291e:	eb 05                	jmp    12925 <func_56+0x442a>
   12920:	b8 00 00 00 00       	mov    $0x0,%eax
   12925:	89 c2                	mov    %eax,%edx
   12927:	48 8b 85 c0 e5 ff ff 	mov    -0x1a40(%rbp),%rax
   1292e:	88 10                	mov    %dl,(%rax)
   12930:	48 8b 85 c0 e5 ff ff 	mov    -0x1a40(%rbp),%rax
   12937:	0f b6 00             	movzbl (%rax),%eax
   1293a:	0f be c0             	movsbl %al,%eax
   1293d:	44 89 ee             	mov    %r13d,%esi
   12940:	89 c7                	mov    %eax,%edi
   12942:	e8 ab 18 ff ff       	callq  41f2 <safe_sub_func_int8_t_s_s>
   12947:	66 98                	cbtw   
   12949:	44 09 f8             	or     %r15d,%eax
   1294c:	0f b7 c0             	movzwl %ax,%eax
   1294f:	44 89 e6             	mov    %r12d,%esi
   12952:	89 c7                	mov    %eax,%edi
   12954:	e8 35 24 ff ff       	callq  4d8e <safe_div_func_uint16_t_u_u>
   12959:	98                   	cwtl   
   1295a:	8b b5 18 e4 ff ff    	mov    -0x1be8(%rbp),%esi
   12960:	89 c7                	mov    %eax,%edi
   12962:	e8 c3 1b ff ff       	callq  452a <safe_rshift_func_int16_t_s_s>
   12967:	89 de                	mov    %ebx,%esi
   12969:	bf ff ff 00 00       	mov    $0xffff,%edi
   1296e:	e8 ac 23 ff ff       	callq  4d1f <safe_sub_func_uint16_t_u_u>
   12973:	8b 85 1c e4 ff ff    	mov    -0x1be4(%rbp),%eax
   12979:	48 63 d0             	movslq %eax,%rdx
   1297c:	48 8b 85 70 e5 ff ff 	mov    -0x1a90(%rbp),%rax
   12983:	8b 00                	mov    (%rax),%eax
   12985:	48 98                	cltq   
   12987:	48 89 d6             	mov    %rdx,%rsi
   1298a:	48 89 c7             	mov    %rax,%rdi
   1298d:	e8 ee 26 ff ff       	callq  5080 <safe_mod_func_uint64_t_u_u>
   12992:	48 85 c0             	test   %rax,%rax
   12995:	75 0a                	jne    129a1 <func_56+0x44a6>
   12997:	8b 85 1c e4 ff ff    	mov    -0x1be4(%rbp),%eax
   1299d:	85 c0                	test   %eax,%eax
   1299f:	74 07                	je     129a8 <func_56+0x44ad>
   129a1:	ba 01 00 00 00       	mov    $0x1,%edx
   129a6:	eb 05                	jmp    129ad <func_56+0x44b2>
   129a8:	ba 00 00 00 00       	mov    $0x0,%edx
   129ad:	8b 85 64 f5 ff ff    	mov    -0xa9c(%rbp),%eax
   129b3:	21 d0                	and    %edx,%eax
   129b5:	89 85 64 f5 ff ff    	mov    %eax,-0xa9c(%rbp)
   129bb:	8b 85 b0 e4 ff ff    	mov    -0x1b50(%rbp),%eax
   129c1:	48 98                	cltq   
   129c3:	eb 0a                	jmp    129cf <func_56+0x44d4>
   129c5:	48 8b 05 f4 69 00 00 	mov    0x69f4(%rip),%rax        # 193c0 <g_968>
   129cc:	48 8b 00             	mov    (%rax),%rax
   129cf:	48 8b 5d c8          	mov    -0x38(%rbp),%rbx
   129d3:	64 48 33 1c 25 28 00 	xor    %fs:0x28,%rbx
   129da:	00 00 
   129dc:	74 05                	je     129e3 <func_56+0x44e8>
   129de:	e8 8d 16 ff ff       	callq  4070 <__stack_chk_fail@plt>
   129e3:	48 81 c4 c8 1b 00 00 	add    $0x1bc8,%rsp
   129ea:	5b                   	pop    %rbx
   129eb:	41 5c                	pop    %r12
   129ed:	41 5d                	pop    %r13
   129ef:	41 5e                	pop    %r14
   129f1:	41 5f                	pop    %r15
   129f3:	5d                   	pop    %rbp
   129f4:	c3                   	retq   

00000000000129f5 <func_65>:
   129f5:	f3 0f 1e fa          	endbr64 
   129f9:	55                   	push   %rbp
   129fa:	48 89 e5             	mov    %rsp,%rbp
   129fd:	41 54                	push   %r12
   129ff:	53                   	push   %rbx
   12a00:	48 81 ec a0 00 00 00 	sub    $0xa0,%rsp
   12a07:	48 89 bd 58 ff ff ff 	mov    %rdi,-0xa8(%rbp)
   12a0e:	64 48 8b 04 25 28 00 	mov    %fs:0x28,%rax
   12a15:	00 00 
   12a17:	48 89 45 e8          	mov    %rax,-0x18(%rbp)
   12a1b:	31 c0                	xor    %eax,%eax
   12a1d:	c7 85 68 ff ff ff ff 	movl   $0xffffffff,-0x98(%rbp)
   12a24:	ff ff ff 
   12a27:	48 8d 05 0a 56 00 00 	lea    0x560a(%rip),%rax        # 18038 <g_24>
   12a2e:	48 89 45 a0          	mov    %rax,-0x60(%rbp)
   12a32:	48 8d 05 ff 55 00 00 	lea    0x55ff(%rip),%rax        # 18038 <g_24>
   12a39:	48 89 45 a8          	mov    %rax,-0x58(%rbp)
   12a3d:	48 8d 05 f4 55 00 00 	lea    0x55f4(%rip),%rax        # 18038 <g_24>
   12a44:	48 89 45 b0          	mov    %rax,-0x50(%rbp)
   12a48:	48 8d 05 e9 55 00 00 	lea    0x55e9(%rip),%rax        # 18038 <g_24>
   12a4f:	48 89 45 b8          	mov    %rax,-0x48(%rbp)
   12a53:	48 8d 05 de 55 00 00 	lea    0x55de(%rip),%rax        # 18038 <g_24>
   12a5a:	48 89 45 c0          	mov    %rax,-0x40(%rbp)
   12a5e:	48 8d 05 d3 55 00 00 	lea    0x55d3(%rip),%rax        # 18038 <g_24>
   12a65:	48 89 45 c8          	mov    %rax,-0x38(%rbp)
   12a69:	48 8d 05 c8 55 00 00 	lea    0x55c8(%rip),%rax        # 18038 <g_24>
   12a70:	48 89 45 d0          	mov    %rax,-0x30(%rbp)
   12a74:	48 8d 05 bd 55 00 00 	lea    0x55bd(%rip),%rax        # 18038 <g_24>
   12a7b:	48 89 45 d8          	mov    %rax,-0x28(%rbp)
   12a7f:	48 8d 05 b6 55 00 00 	lea    0x55b6(%rip),%rax        # 1803c <g_93>
   12a86:	48 89 85 70 ff ff ff 	mov    %rax,-0x90(%rbp)
   12a8d:	c7 85 6c ff ff ff fa 	movl   $0xfffffffa,-0x94(%rbp)
   12a94:	ff ff ff 
   12a97:	48 c7 85 78 ff ff ff 	movq   $0x0,-0x88(%rbp)
   12a9e:	00 00 00 00 
   12aa2:	48 8d 05 7f 71 00 00 	lea    0x717f(%rip),%rax        # 19c28 <g_99>
   12aa9:	48 89 45 80          	mov    %rax,-0x80(%rbp)
   12aad:	48 8d 05 78 71 00 00 	lea    0x7178(%rip),%rax        # 19c2c <g_115>
   12ab4:	48 89 45 88          	mov    %rax,-0x78(%rbp)
   12ab8:	c6 85 67 ff ff ff ff 	movb   $0xff,-0x99(%rbp)
   12abf:	48 8d 45 a0          	lea    -0x60(%rbp),%rax
   12ac3:	48 83 c0 20          	add    $0x20,%rax
   12ac7:	48 89 45 90          	mov    %rax,-0x70(%rbp)
   12acb:	48 b8 1f 7d d0 cc 22 	movabs $0x68c86622ccd07d1f,%rax
   12ad2:	66 c8 68 
   12ad5:	48 89 45 98          	mov    %rax,-0x68(%rbp)
   12ad9:	8b 05 59 55 00 00    	mov    0x5559(%rip),%eax        # 18038 <g_24>
   12adf:	0f bf d8             	movswl %ax,%ebx
   12ae2:	48 8b 05 47 55 00 00 	mov    0x5547(%rip),%rax        # 18030 <g_15>
   12ae9:	41 89 c4             	mov    %eax,%r12d
   12aec:	8b 85 68 ff ff ff    	mov    -0x98(%rbp),%eax
   12af2:	48 63 d0             	movslq %eax,%rdx
   12af5:	48 8b 05 34 55 00 00 	mov    0x5534(%rip),%rax        # 18030 <g_15>
   12afc:	48 31 d0             	xor    %rdx,%rax
   12aff:	48 3d f1 d9 00 00    	cmp    $0xd9f1,%rax
   12b05:	75 07                	jne    12b0e <func_65+0x119>
   12b07:	83 bd 68 ff ff ff 00 	cmpl   $0x0,-0x98(%rbp)
   12b0e:	8b 05 24 55 00 00    	mov    0x5524(%rip),%eax        # 18038 <g_24>
   12b14:	3d d3 28 ff ff       	cmp    $0xffff28d3,%eax
   12b19:	0f 9d c0             	setge  %al
   12b1c:	0f b6 c0             	movzbl %al,%eax
   12b1f:	be 14 53 37 a9       	mov    $0xa9375314,%esi
   12b24:	89 c7                	mov    %eax,%edi
   12b26:	e8 da 1a ff ff       	callq  4605 <safe_sub_func_int32_t_s_s>
   12b2b:	8b 85 68 ff ff ff    	mov    -0x98(%rbp),%eax
   12b31:	98                   	cwtl   
   12b32:	be 0d 00 00 00       	mov    $0xd,%esi
   12b37:	89 c7                	mov    %eax,%edi
   12b39:	e8 ec 19 ff ff       	callq  452a <safe_rshift_func_int16_t_s_s>
   12b3e:	bf 00 00 00 00       	mov    $0x0,%edi
   12b43:	e8 77 16 ff ff       	callq  41bf <safe_unary_minus_func_int8_t_s>
   12b48:	0f be c0             	movsbl %al,%eax
   12b4b:	44 89 e6             	mov    %r12d,%esi
   12b4e:	89 c7                	mov    %eax,%edi
   12b50:	e8 77 1b ff ff       	callq  46cc <safe_mod_func_int32_t_s_s>
   12b55:	39 85 68 ff ff ff    	cmp    %eax,-0x98(%rbp)
   12b5b:	0f 9f c0             	setg   %al
   12b5e:	0f b6 c0             	movzbl %al,%eax
   12b61:	39 85 68 ff ff ff    	cmp    %eax,-0x98(%rbp)
   12b67:	48 8b 45 c0          	mov    -0x40(%rbp),%rax
   12b6b:	48 39 85 58 ff ff ff 	cmp    %rax,-0xa8(%rbp)
   12b72:	0f 95 c0             	setne  %al
   12b75:	89 c2                	mov    %eax,%edx
   12b77:	48 8b 85 70 ff ff ff 	mov    -0x90(%rbp),%rax
   12b7e:	88 10                	mov    %dl,(%rax)
   12b80:	48 8b 85 70 ff ff ff 	mov    -0x90(%rbp),%rax
   12b87:	0f b6 00             	movzbl (%rax),%eax
   12b8a:	0f be c0             	movsbl %al,%eax
   12b8d:	89 05 ad 54 00 00    	mov    %eax,0x54ad(%rip)        # 18040 <g_94>
   12b93:	8b 05 a7 54 00 00    	mov    0x54a7(%rip),%eax        # 18040 <g_94>
   12b99:	0f b6 c0             	movzbl %al,%eax
   12b9c:	89 c6                	mov    %eax,%esi
   12b9e:	bf 01 00 00 00       	mov    $0x1,%edi
   12ba3:	e8 b2 1f ff ff       	callq  4b5a <safe_add_func_uint8_t_u_u>
   12ba8:	48 be 4b e5 97 46 60 	movabs $0x683d52604697e54b,%rsi
   12baf:	52 3d 68 
   12bb2:	bf 01 00 00 00       	mov    $0x1,%edi
   12bb7:	e8 72 24 ff ff       	callq  502e <safe_add_func_uint64_t_u_u>
   12bbc:	89 de                	mov    %ebx,%esi
   12bbe:	bf 00 00 00 00       	mov    $0x0,%edi
   12bc3:	e8 eb 17 ff ff       	callq  43b3 <safe_add_func_int16_t_s_s>
   12bc8:	98                   	cwtl   
   12bc9:	48 8b 15 60 54 00 00 	mov    0x5460(%rip),%rdx        # 18030 <g_15>
   12bd0:	89 c6                	mov    %eax,%esi
   12bd2:	89 d7                	mov    %edx,%edi
   12bd4:	e8 f7 22 ff ff       	callq  4ed0 <safe_sub_func_uint32_t_u_u>
   12bd9:	be 01 00 00 00       	mov    $0x1,%esi
   12bde:	bf 01 00 00 00       	mov    $0x1,%edi
   12be3:	e8 84 17 ff ff       	callq  436c <safe_rshift_func_int8_t_s_u>
   12be8:	8b 05 4a 54 00 00    	mov    0x544a(%rip),%eax        # 18038 <g_24>
   12bee:	89 c2                	mov    %eax,%edx
   12bf0:	0f b6 05 4d 54 00 00 	movzbl 0x544d(%rip),%eax        # 18044 <g_96>
   12bf7:	21 d0                	and    %edx,%eax
   12bf9:	88 05 45 54 00 00    	mov    %al,0x5445(%rip)        # 18044 <g_96>
   12bff:	0f b6 05 3e 54 00 00 	movzbl 0x543e(%rip),%eax        # 18044 <g_96>
   12c06:	83 f0 50             	xor    $0x50,%eax
   12c09:	0f b6 c0             	movzbl %al,%eax
   12c0c:	be c2 00 00 00       	mov    $0xc2,%esi
   12c11:	89 c7                	mov    %eax,%edi
   12c13:	e8 7b 1f ff ff       	callq  4b93 <safe_mul_func_uint8_t_u_u>
   12c18:	0f b6 d0             	movzbl %al,%edx
   12c1b:	8b 05 17 54 00 00    	mov    0x5417(%rip),%eax        # 18038 <g_24>
   12c21:	31 c2                	xor    %eax,%edx
   12c23:	48 8b 45 80          	mov    -0x80(%rbp),%rax
   12c27:	89 10                	mov    %edx,(%rax)
   12c29:	48 8b 45 80          	mov    -0x80(%rbp),%rax
   12c2d:	8b 10                	mov    (%rax),%edx
   12c2f:	48 8b 85 58 ff ff ff 	mov    -0xa8(%rbp),%rax
   12c36:	89 10                	mov    %edx,(%rax)
   12c38:	48 8b 85 58 ff ff ff 	mov    -0xa8(%rbp),%rax
   12c3f:	8b 00                	mov    (%rax),%eax
   12c41:	89 c7                	mov    %eax,%edi
   12c43:	e8 65 00 00 00       	callq  12cad <func_67>
   12c48:	89 c2                	mov    %eax,%edx
   12c4a:	48 8b 05 df 53 00 00 	mov    0x53df(%rip),%rax        # 18030 <g_15>
   12c51:	31 c2                	xor    %eax,%edx
   12c53:	48 8b 45 88          	mov    -0x78(%rbp),%rax
   12c57:	88 10                	mov    %dl,(%rax)
   12c59:	48 8b 85 70 ff ff ff 	mov    -0x90(%rbp),%rax
   12c60:	0f b6 95 67 ff ff ff 	movzbl -0x99(%rbp),%edx
   12c67:	88 10                	mov    %dl,(%rax)
   12c69:	48 8b 45 90          	mov    -0x70(%rbp),%rax
   12c6d:	48 8d 15 c4 53 00 00 	lea    0x53c4(%rip),%rdx        # 18038 <g_24>
   12c74:	48 89 10             	mov    %rdx,(%rax)
   12c77:	8b 05 cb 53 00 00    	mov    0x53cb(%rip),%eax        # 18048 <g_119>
   12c7d:	83 e8 01             	sub    $0x1,%eax
   12c80:	89 05 c2 53 00 00    	mov    %eax,0x53c2(%rip)        # 18048 <g_119>
   12c86:	0f b6 05 b7 53 00 00 	movzbl 0x53b7(%rip),%eax        # 18044 <g_96>
   12c8d:	48 8b 4d e8          	mov    -0x18(%rbp),%rcx
   12c91:	64 48 33 0c 25 28 00 	xor    %fs:0x28,%rcx
   12c98:	00 00 
   12c9a:	74 05                	je     12ca1 <func_65+0x2ac>
   12c9c:	e8 cf 13 ff ff       	callq  4070 <__stack_chk_fail@plt>
   12ca1:	48 81 c4 a0 00 00 00 	add    $0xa0,%rsp
   12ca8:	5b                   	pop    %rbx
   12ca9:	41 5c                	pop    %r12
   12cab:	5d                   	pop    %rbp
   12cac:	c3                   	retq   

0000000000012cad <func_67>:
   12cad:	f3 0f 1e fa          	endbr64 
   12cb1:	55                   	push   %rbp
   12cb2:	48 89 e5             	mov    %rsp,%rbp
   12cb5:	48 83 ec 60          	sub    $0x60,%rsp
   12cb9:	89 7d ac             	mov    %edi,-0x54(%rbp)
   12cbc:	64 48 8b 04 25 28 00 	mov    %fs:0x28,%rax
   12cc3:	00 00 
   12cc5:	48 89 45 f8          	mov    %rax,-0x8(%rbp)
   12cc9:	31 c0                	xor    %eax,%eax
   12ccb:	48 8d 05 56 6f 00 00 	lea    0x6f56(%rip),%rax        # 19c28 <g_99>
   12cd2:	48 89 45 d0          	mov    %rax,-0x30(%rbp)
   12cd6:	48 8d 05 4b 6f 00 00 	lea    0x6f4b(%rip),%rax        # 19c28 <g_99>
   12cdd:	48 89 45 d8          	mov    %rax,-0x28(%rbp)
   12ce1:	48 8d 05 40 6f 00 00 	lea    0x6f40(%rip),%rax        # 19c28 <g_99>
   12ce8:	48 89 45 e0          	mov    %rax,-0x20(%rbp)
   12cec:	48 8d 05 35 6f 00 00 	lea    0x6f35(%rip),%rax        # 19c28 <g_99>
   12cf3:	48 89 45 e8          	mov    %rax,-0x18(%rbp)
   12cf7:	48 8d 05 2a 6f 00 00 	lea    0x6f2a(%rip),%rax        # 19c28 <g_99>
   12cfe:	48 89 45 f0          	mov    %rax,-0x10(%rbp)
   12d02:	48 8d 45 d0          	lea    -0x30(%rbp),%rax
   12d06:	48 89 45 c0          	mov    %rax,-0x40(%rbp)
   12d0a:	48 8b 55 e8          	mov    -0x18(%rbp),%rdx
   12d0e:	48 8b 45 c0          	mov    -0x40(%rbp),%rax
   12d12:	48 89 10             	mov    %rdx,(%rax)
   12d15:	c6 05 20 53 00 00 f8 	movb   $0xf8,0x5320(%rip)        # 1803c <g_93>
   12d1c:	eb 3a                	jmp    12d58 <func_67+0xab>
   12d1e:	0f b6 05 17 53 00 00 	movzbl 0x5317(%rip),%eax        # 1803c <g_93>
   12d25:	84 c0                	test   %al,%al
   12d27:	74 02                	je     12d2b <func_67+0x7e>
   12d29:	eb df                	jmp    12d0a <func_67+0x5d>
   12d2b:	0f b6 05 12 53 00 00 	movzbl 0x5312(%rip),%eax        # 18044 <g_96>
   12d32:	0f be c0             	movsbl %al,%eax
   12d35:	89 05 ed 6e 00 00    	mov    %eax,0x6eed(%rip)        # 19c28 <g_99>
   12d3b:	0f b6 05 02 53 00 00 	movzbl 0x5302(%rip),%eax        # 18044 <g_96>
   12d42:	84 c0                	test   %al,%al
   12d44:	74 02                	je     12d48 <func_67+0x9b>
   12d46:	eb c2                	jmp    12d0a <func_67+0x5d>
   12d48:	0f b6 05 ed 52 00 00 	movzbl 0x52ed(%rip),%eax        # 1803c <g_93>
   12d4f:	83 e8 01             	sub    $0x1,%eax
   12d52:	88 05 e4 52 00 00    	mov    %al,0x52e4(%rip)        # 1803c <g_93>
   12d58:	0f b6 05 dd 52 00 00 	movzbl 0x52dd(%rip),%eax        # 1803c <g_93>
   12d5f:	3c f8                	cmp    $0xf8,%al
   12d61:	7c bb                	jl     12d1e <func_67+0x71>
   12d63:	c7 05 bb 6e 00 00 f5 	movl   $0xfffffff5,0x6ebb(%rip)        # 19c28 <g_99>
   12d6a:	ff ff ff 
   12d6d:	e9 89 00 00 00       	jmpq   12dfb <func_67+0x14e>
   12d72:	66 c7 45 ba 93 fa    	movw   $0xfa93,-0x46(%rbp)
   12d78:	48 8d 05 b9 52 00 00 	lea    0x52b9(%rip),%rax        # 18038 <g_24>
   12d7f:	48 89 45 c8          	mov    %rax,-0x38(%rbp)
   12d83:	c7 05 b3 52 00 00 00 	movl   $0x0,0x52b3(%rip)        # 18040 <g_94>
   12d8a:	00 00 00 
   12d8d:	90                   	nop
   12d8e:	8b 05 ac 52 00 00    	mov    0x52ac(%rip),%eax        # 18040 <g_94>
   12d94:	83 f8 01             	cmp    $0x1,%eax
   12d97:	77 0c                	ja     12da5 <func_67+0xf8>
   12d99:	c7 45 bc fa ff ff ff 	movl   $0xfffffffa,-0x44(%rbp)
   12da0:	8b 45 bc             	mov    -0x44(%rbp),%eax
   12da3:	eb 68                	jmp    12e0d <func_67+0x160>
   12da5:	c7 05 91 52 00 00 00 	movl   $0x0,0x5291(%rip)        # 18040 <g_94>
   12dac:	00 00 00 
   12daf:	eb 16                	jmp    12dc7 <func_67+0x11a>
   12db1:	66 83 7d ba 00       	cmpw   $0x0,-0x46(%rbp)
   12db6:	75 1c                	jne    12dd4 <func_67+0x127>
   12db8:	8b 05 82 52 00 00    	mov    0x5282(%rip),%eax        # 18040 <g_94>
   12dbe:	83 c0 01             	add    $0x1,%eax
   12dc1:	89 05 79 52 00 00    	mov    %eax,0x5279(%rip)        # 18040 <g_94>
   12dc7:	8b 05 73 52 00 00    	mov    0x5273(%rip),%eax        # 18040 <g_94>
   12dcd:	83 f8 19             	cmp    $0x19,%eax
   12dd0:	74 df                	je     12db1 <func_67+0x104>
   12dd2:	eb 01                	jmp    12dd5 <func_67+0x128>
   12dd4:	90                   	nop
   12dd5:	48 8b 45 c0          	mov    -0x40(%rbp),%rax
   12dd9:	48 8b 55 c8          	mov    -0x38(%rbp),%rdx
   12ddd:	48 89 10             	mov    %rdx,(%rax)
   12de0:	8b 05 42 6e 00 00    	mov    0x6e42(%rip),%eax        # 19c28 <g_99>
   12de6:	48 98                	cltq   
   12de8:	be 05 00 00 00       	mov    $0x5,%esi
   12ded:	48 89 c7             	mov    %rax,%rdi
   12df0:	e8 39 22 ff ff       	callq  502e <safe_add_func_uint64_t_u_u>
   12df5:	89 05 2d 6e 00 00    	mov    %eax,0x6e2d(%rip)        # 19c28 <g_99>
   12dfb:	8b 05 27 6e 00 00    	mov    0x6e27(%rip),%eax        # 19c28 <g_99>
   12e01:	83 f8 18             	cmp    $0x18,%eax
   12e04:	0f 85 68 ff ff ff    	jne    12d72 <func_67+0xc5>
   12e0a:	8b 45 ac             	mov    -0x54(%rbp),%eax
   12e0d:	48 8b 4d f8          	mov    -0x8(%rbp),%rcx
   12e11:	64 48 33 0c 25 28 00 	xor    %fs:0x28,%rcx
   12e18:	00 00 
   12e1a:	74 05                	je     12e21 <func_67+0x174>
   12e1c:	e8 4f 12 ff ff       	callq  4070 <__stack_chk_fail@plt>
   12e21:	c9                   	leaveq 
   12e22:	c3                   	retq   

0000000000012e23 <main>:
   12e23:	f3 0f 1e fa          	endbr64 
   12e27:	55                   	push   %rbp
   12e28:	48 89 e5             	mov    %rsp,%rbp
   12e2b:	48 83 ec 20          	sub    $0x20,%rsp
   12e2f:	89 7d ec             	mov    %edi,-0x14(%rbp)
   12e32:	48 89 75 e0          	mov    %rsi,-0x20(%rbp)
   12e36:	c7 45 fc 00 00 00 00 	movl   $0x0,-0x4(%rbp)
   12e3d:	83 7d ec 02          	cmpl   $0x2,-0x14(%rbp)
   12e41:	75 25                	jne    12e68 <main+0x45>
   12e43:	48 8b 45 e0          	mov    -0x20(%rbp),%rax
   12e47:	48 83 c0 08          	add    $0x8,%rax
   12e4b:	48 8b 00             	mov    (%rax),%rax
   12e4e:	48 8d 35 0b 25 00 00 	lea    0x250b(%rip),%rsi        # 15360 <g_3084+0x12ff>
   12e55:	48 89 c7             	mov    %rax,%rdi
   12e58:	e8 33 12 ff ff       	callq  4090 <strcmp@plt>
   12e5d:	85 c0                	test   %eax,%eax
   12e5f:	75 07                	jne    12e68 <main+0x45>
   12e61:	c7 45 fc 01 00 00 00 	movl   $0x1,-0x4(%rbp)
   12e68:	e8 1c 13 ff ff       	callq  4189 <platform_main_begin>
   12e6d:	e8 26 27 ff ff       	callq  5598 <crc32_gentab>
   12e72:	e8 3e 29 ff ff       	callq  57b5 <func_1>
   12e77:	48 8b 05 aa 51 00 00 	mov    0x51aa(%rip),%rax        # 18028 <g_9>
   12e7e:	8b 55 fc             	mov    -0x4(%rbp),%edx
   12e81:	48 8d 35 da 24 00 00 	lea    0x24da(%rip),%rsi        # 15362 <g_3084+0x1301>
   12e88:	48 89 c7             	mov    %rax,%rdi
   12e8b:	e8 63 28 ff ff       	callq  56f3 <transparent_crc>
   12e90:	48 8b 05 99 51 00 00 	mov    0x5199(%rip),%rax        # 18030 <g_15>
   12e97:	8b 55 fc             	mov    -0x4(%rbp),%edx
   12e9a:	48 8d 35 c5 24 00 00 	lea    0x24c5(%rip),%rsi        # 15366 <g_3084+0x1305>
   12ea1:	48 89 c7             	mov    %rax,%rdi
   12ea4:	e8 4a 28 ff ff       	callq  56f3 <transparent_crc>
   12ea9:	8b 05 89 51 00 00    	mov    0x5189(%rip),%eax        # 18038 <g_24>
   12eaf:	48 98                	cltq   
   12eb1:	8b 55 fc             	mov    -0x4(%rbp),%edx
   12eb4:	48 8d 35 b0 24 00 00 	lea    0x24b0(%rip),%rsi        # 1536b <g_3084+0x130a>
   12ebb:	48 89 c7             	mov    %rax,%rdi
   12ebe:	e8 30 28 ff ff       	callq  56f3 <transparent_crc>
   12ec3:	0f b6 05 72 51 00 00 	movzbl 0x5172(%rip),%eax        # 1803c <g_93>
   12eca:	48 0f be c0          	movsbq %al,%rax
   12ece:	8b 55 fc             	mov    -0x4(%rbp),%edx
   12ed1:	48 8d 35 98 24 00 00 	lea    0x2498(%rip),%rsi        # 15370 <g_3084+0x130f>
   12ed8:	48 89 c7             	mov    %rax,%rdi
   12edb:	e8 13 28 ff ff       	callq  56f3 <transparent_crc>
   12ee0:	8b 05 5a 51 00 00    	mov    0x515a(%rip),%eax        # 18040 <g_94>
   12ee6:	89 c1                	mov    %eax,%ecx
   12ee8:	8b 45 fc             	mov    -0x4(%rbp),%eax
   12eeb:	89 c2                	mov    %eax,%edx
   12eed:	48 8d 35 81 24 00 00 	lea    0x2481(%rip),%rsi        # 15375 <g_3084+0x1314>
   12ef4:	48 89 cf             	mov    %rcx,%rdi
   12ef7:	e8 f7 27 ff ff       	callq  56f3 <transparent_crc>
   12efc:	0f b6 05 41 51 00 00 	movzbl 0x5141(%rip),%eax        # 18044 <g_96>
   12f03:	48 0f be c0          	movsbq %al,%rax
   12f07:	8b 55 fc             	mov    -0x4(%rbp),%edx
   12f0a:	48 8d 35 69 24 00 00 	lea    0x2469(%rip),%rsi        # 1537a <g_3084+0x1319>
   12f11:	48 89 c7             	mov    %rax,%rdi
   12f14:	e8 da 27 ff ff       	callq  56f3 <transparent_crc>
   12f19:	8b 05 09 6d 00 00    	mov    0x6d09(%rip),%eax        # 19c28 <g_99>
   12f1f:	48 98                	cltq   
   12f21:	8b 55 fc             	mov    -0x4(%rbp),%edx
   12f24:	48 8d 35 54 24 00 00 	lea    0x2454(%rip),%rsi        # 1537f <g_3084+0x131e>
   12f2b:	48 89 c7             	mov    %rax,%rdi
   12f2e:	e8 c0 27 ff ff       	callq  56f3 <transparent_crc>
   12f33:	0f b6 05 f2 6c 00 00 	movzbl 0x6cf2(%rip),%eax        # 19c2c <g_115>
   12f3a:	0f b6 c0             	movzbl %al,%eax
   12f3d:	8b 55 fc             	mov    -0x4(%rbp),%edx
   12f40:	48 8d 35 3d 24 00 00 	lea    0x243d(%rip),%rsi        # 15384 <g_3084+0x1323>
   12f47:	48 89 c7             	mov    %rax,%rdi
   12f4a:	e8 a4 27 ff ff       	callq  56f3 <transparent_crc>
   12f4f:	8b 05 f3 50 00 00    	mov    0x50f3(%rip),%eax        # 18048 <g_119>
   12f55:	89 c1                	mov    %eax,%ecx
   12f57:	8b 45 fc             	mov    -0x4(%rbp),%eax
   12f5a:	89 c2                	mov    %eax,%edx
   12f5c:	48 8d 35 27 24 00 00 	lea    0x2427(%rip),%rsi        # 1538a <g_3084+0x1329>
   12f63:	48 89 cf             	mov    %rcx,%rdi
   12f66:	e8 88 27 ff ff       	callq  56f3 <transparent_crc>
   12f6b:	48 8b 05 de 50 00 00 	mov    0x50de(%rip),%rax        # 18050 <g_153>
   12f72:	8b 55 fc             	mov    -0x4(%rbp),%edx
   12f75:	48 8d 35 14 24 00 00 	lea    0x2414(%rip),%rsi        # 15390 <g_3084+0x132f>
   12f7c:	48 89 c7             	mov    %rax,%rdi
   12f7f:	e8 6f 27 ff ff       	callq  56f3 <transparent_crc>
   12f84:	48 8b 05 a5 6c 00 00 	mov    0x6ca5(%rip),%rax        # 19c30 <g_174>
   12f8b:	8b 55 fc             	mov    -0x4(%rbp),%edx
   12f8e:	48 8d 35 01 24 00 00 	lea    0x2401(%rip),%rsi        # 15396 <g_3084+0x1335>
   12f95:	48 89 c7             	mov    %rax,%rdi
   12f98:	e8 56 27 ff ff       	callq  56f3 <transparent_crc>
   12f9d:	b8 bd ff ff ff       	mov    $0xffffffbd,%eax
   12fa2:	48 0f be c0          	movsbq %al,%rax
   12fa6:	8b 55 fc             	mov    -0x4(%rbp),%edx
   12fa9:	48 8d 35 ec 23 00 00 	lea    0x23ec(%rip),%rsi        # 1539c <g_3084+0x133b>
   12fb0:	48 89 c7             	mov    %rax,%rdi
   12fb3:	e8 3b 27 ff ff       	callq  56f3 <transparent_crc>
   12fb8:	c7 45 f4 00 00 00 00 	movl   $0x0,-0xc(%rbp)
   12fbf:	eb 4b                	jmp    1300c <main+0x1e9>
   12fc1:	8b 45 f4             	mov    -0xc(%rbp),%eax
   12fc4:	48 98                	cltq   
   12fc6:	48 8d 14 85 00 00 00 	lea    0x0(,%rax,4),%rdx
   12fcd:	00 
   12fce:	48 8d 05 8b 50 00 00 	lea    0x508b(%rip),%rax        # 18060 <g_211>
   12fd5:	8b 04 02             	mov    (%rdx,%rax,1),%eax
   12fd8:	48 98                	cltq   
   12fda:	8b 55 fc             	mov    -0x4(%rbp),%edx
   12fdd:	48 8d 35 be 23 00 00 	lea    0x23be(%rip),%rsi        # 153a2 <g_3084+0x1341>
   12fe4:	48 89 c7             	mov    %rax,%rdi
   12fe7:	e8 07 27 ff ff       	callq  56f3 <transparent_crc>
   12fec:	83 7d fc 00          	cmpl   $0x0,-0x4(%rbp)
   12ff0:	74 16                	je     13008 <main+0x1e5>
   12ff2:	8b 45 f4             	mov    -0xc(%rbp),%eax
   12ff5:	89 c6                	mov    %eax,%esi
   12ff7:	48 8d 3d ad 23 00 00 	lea    0x23ad(%rip),%rdi        # 153ab <g_3084+0x134a>
   12ffe:	b8 00 00 00 00       	mov    $0x0,%eax
   13003:	e8 78 10 ff ff       	callq  4080 <printf@plt>
   13008:	83 45 f4 01          	addl   $0x1,-0xc(%rbp)
   1300c:	83 7d f4 07          	cmpl   $0x7,-0xc(%rbp)
   13010:	7e af                	jle    12fc1 <main+0x19e>
   13012:	0f b6 05 67 50 00 00 	movzbl 0x5067(%rip),%eax        # 18080 <g_257>
   13019:	48 0f be c0          	movsbq %al,%rax
   1301d:	8b 55 fc             	mov    -0x4(%rbp),%edx
   13020:	48 8d 35 92 23 00 00 	lea    0x2392(%rip),%rsi        # 153b9 <g_3084+0x1358>
   13027:	48 89 c7             	mov    %rax,%rdi
   1302a:	e8 c4 26 ff ff       	callq  56f3 <transparent_crc>
   1302f:	b8 00 00 00 00       	mov    $0x0,%eax
   13034:	48 0f bf c0          	movswq %ax,%rax
   13038:	8b 55 fc             	mov    -0x4(%rbp),%edx
   1303b:	48 8d 35 7d 23 00 00 	lea    0x237d(%rip),%rsi        # 153bf <g_3084+0x135e>
   13042:	48 89 c7             	mov    %rax,%rdi
   13045:	e8 a9 26 ff ff       	callq  56f3 <transparent_crc>
   1304a:	0f b6 05 30 50 00 00 	movzbl 0x5030(%rip),%eax        # 18081 <g_279>
   13051:	48 0f be c0          	movsbq %al,%rax
   13055:	8b 55 fc             	mov    -0x4(%rbp),%edx
   13058:	48 8d 35 66 23 00 00 	lea    0x2366(%rip),%rsi        # 153c5 <g_3084+0x1364>
   1305f:	48 89 c7             	mov    %rax,%rdi
   13062:	e8 8c 26 ff ff       	callq  56f3 <transparent_crc>
   13067:	48 8b 05 1a 50 00 00 	mov    0x501a(%rip),%rax        # 18088 <g_409>
   1306e:	8b 55 fc             	mov    -0x4(%rbp),%edx
   13071:	48 8d 35 53 23 00 00 	lea    0x2353(%rip),%rsi        # 153cb <g_3084+0x136a>
   13078:	48 89 c7             	mov    %rax,%rdi
   1307b:	e8 73 26 ff ff       	callq  56f3 <transparent_crc>
   13080:	0f b7 05 09 50 00 00 	movzwl 0x5009(%rip),%eax        # 18090 <g_413>
   13087:	0f b7 c0             	movzwl %ax,%eax
   1308a:	8b 55 fc             	mov    -0x4(%rbp),%edx
   1308d:	48 8d 35 3d 23 00 00 	lea    0x233d(%rip),%rsi        # 153d1 <g_3084+0x1370>
   13094:	48 89 c7             	mov    %rax,%rdi
   13097:	e8 57 26 ff ff       	callq  56f3 <transparent_crc>
   1309c:	48 8b 05 f5 4f 00 00 	mov    0x4ff5(%rip),%rax        # 18098 <g_474>
   130a3:	48 89 c1             	mov    %rax,%rcx
   130a6:	8b 45 fc             	mov    -0x4(%rbp),%eax
   130a9:	89 c2                	mov    %eax,%edx
   130ab:	48 8d 35 25 23 00 00 	lea    0x2325(%rip),%rsi        # 153d7 <g_3084+0x1376>
   130b2:	48 89 cf             	mov    %rcx,%rdi
   130b5:	e8 39 26 ff ff       	callq  56f3 <transparent_crc>
   130ba:	0f b7 05 df 4f 00 00 	movzwl 0x4fdf(%rip),%eax        # 180a0 <g_525>
   130c1:	48 0f bf c0          	movswq %ax,%rax
   130c5:	8b 55 fc             	mov    -0x4(%rbp),%edx
   130c8:	48 8d 35 0e 23 00 00 	lea    0x230e(%rip),%rsi        # 153dd <g_3084+0x137c>
   130cf:	48 89 c7             	mov    %rax,%rdi
   130d2:	e8 1c 26 ff ff       	callq  56f3 <transparent_crc>
   130d7:	b8 06 00 00 00       	mov    $0x6,%eax
   130dc:	89 c1                	mov    %eax,%ecx
   130de:	8b 45 fc             	mov    -0x4(%rbp),%eax
   130e1:	89 c2                	mov    %eax,%edx
   130e3:	48 8d 35 f9 22 00 00 	lea    0x22f9(%rip),%rsi        # 153e3 <g_3084+0x1382>
   130ea:	48 89 cf             	mov    %rcx,%rdi
   130ed:	e8 01 26 ff ff       	callq  56f3 <transparent_crc>
   130f2:	b8 36 d8 6b fd       	mov    $0xfd6bd836,%eax
   130f7:	89 c1                	mov    %eax,%ecx
   130f9:	8b 45 fc             	mov    -0x4(%rbp),%eax
   130fc:	89 c2                	mov    %eax,%edx
   130fe:	48 8d 35 e4 22 00 00 	lea    0x22e4(%rip),%rsi        # 153e9 <g_3084+0x1388>
   13105:	48 89 cf             	mov    %rcx,%rdi
   13108:	e8 e6 25 ff ff       	callq  56f3 <transparent_crc>
   1310d:	8b 05 91 4f 00 00    	mov    0x4f91(%rip),%eax        # 180a4 <g_698>
   13113:	48 98                	cltq   
   13115:	8b 55 fc             	mov    -0x4(%rbp),%edx
   13118:	48 8d 35 d0 22 00 00 	lea    0x22d0(%rip),%rsi        # 153ef <g_3084+0x138e>
   1311f:	48 89 c7             	mov    %rax,%rdi
   13122:	e8 cc 25 ff ff       	callq  56f3 <transparent_crc>
   13127:	0f b7 05 7a 4f 00 00 	movzwl 0x4f7a(%rip),%eax        # 180a8 <g_801>
   1312e:	0f b7 c0             	movzwl %ax,%eax
   13131:	8b 55 fc             	mov    -0x4(%rbp),%edx
   13134:	48 8d 35 ba 22 00 00 	lea    0x22ba(%rip),%rsi        # 153f5 <g_3084+0x1394>
   1313b:	48 89 c7             	mov    %rax,%rdi
   1313e:	e8 b0 25 ff ff       	callq  56f3 <transparent_crc>
   13143:	0f b6 05 60 4f 00 00 	movzbl 0x4f60(%rip),%eax        # 180aa <g_843>
   1314a:	48 0f be c0          	movsbq %al,%rax
   1314e:	8b 55 fc             	mov    -0x4(%rbp),%edx
   13151:	48 8d 35 a3 22 00 00 	lea    0x22a3(%rip),%rsi        # 153fb <g_3084+0x139a>
   13158:	48 89 c7             	mov    %rax,%rdi
   1315b:	e8 93 25 ff ff       	callq  56f3 <transparent_crc>
   13160:	8b 05 46 4f 00 00    	mov    0x4f46(%rip),%eax        # 180ac <g_850>
   13166:	48 98                	cltq   
   13168:	8b 55 fc             	mov    -0x4(%rbp),%edx
   1316b:	48 8d 35 8f 22 00 00 	lea    0x228f(%rip),%rsi        # 15401 <g_3084+0x13a0>
   13172:	48 89 c7             	mov    %rax,%rdi
   13175:	e8 79 25 ff ff       	callq  56f3 <transparent_crc>
   1317a:	8b 05 30 4f 00 00    	mov    0x4f30(%rip),%eax        # 180b0 <g_867>
   13180:	89 c1                	mov    %eax,%ecx
   13182:	8b 45 fc             	mov    -0x4(%rbp),%eax
   13185:	89 c2                	mov    %eax,%edx
   13187:	48 8d 35 79 22 00 00 	lea    0x2279(%rip),%rsi        # 15407 <g_3084+0x13a6>
   1318e:	48 89 cf             	mov    %rcx,%rdi
   13191:	e8 5d 25 ff ff       	callq  56f3 <transparent_crc>
   13196:	8b 05 18 4f 00 00    	mov    0x4f18(%rip),%eax        # 180b4 <g_955>
   1319c:	48 98                	cltq   
   1319e:	8b 55 fc             	mov    -0x4(%rbp),%edx
   131a1:	48 8d 35 65 22 00 00 	lea    0x2265(%rip),%rsi        # 1540d <g_3084+0x13ac>
   131a8:	48 89 c7             	mov    %rax,%rdi
   131ab:	e8 43 25 ff ff       	callq  56f3 <transparent_crc>
   131b0:	0f b7 05 01 4f 00 00 	movzwl 0x4f01(%rip),%eax        # 180b8 <g_1048>
   131b7:	0f b7 c0             	movzwl %ax,%eax
   131ba:	8b 55 fc             	mov    -0x4(%rbp),%edx
   131bd:	48 8d 35 4f 22 00 00 	lea    0x224f(%rip),%rsi        # 15413 <g_3084+0x13b2>
   131c4:	48 89 c7             	mov    %rax,%rdi
   131c7:	e8 27 25 ff ff       	callq  56f3 <transparent_crc>
   131cc:	8b 05 ea 4e 00 00    	mov    0x4eea(%rip),%eax        # 180bc <g_1102>
   131d2:	89 c1                	mov    %eax,%ecx
   131d4:	8b 45 fc             	mov    -0x4(%rbp),%eax
   131d7:	89 c2                	mov    %eax,%edx
   131d9:	48 8d 35 3a 22 00 00 	lea    0x223a(%rip),%rsi        # 1541a <g_3084+0x13b9>
   131e0:	48 89 cf             	mov    %rcx,%rdi
   131e3:	e8 0b 25 ff ff       	callq  56f3 <transparent_crc>
   131e8:	0f b7 05 d1 4e 00 00 	movzwl 0x4ed1(%rip),%eax        # 180c0 <g_1113>
   131ef:	48 0f bf c0          	movswq %ax,%rax
   131f3:	8b 55 fc             	mov    -0x4(%rbp),%edx
   131f6:	48 8d 35 24 22 00 00 	lea    0x2224(%rip),%rsi        # 15421 <g_3084+0x13c0>
   131fd:	48 89 c7             	mov    %rax,%rdi
   13200:	e8 ee 24 ff ff       	callq  56f3 <transparent_crc>
   13205:	48 8b 05 bc 4e 00 00 	mov    0x4ebc(%rip),%rax        # 180c8 <g_1185>
   1320c:	48 89 c1             	mov    %rax,%rcx
   1320f:	8b 45 fc             	mov    -0x4(%rbp),%eax
   13212:	89 c2                	mov    %eax,%edx
   13214:	48 8d 35 0d 22 00 00 	lea    0x220d(%rip),%rsi        # 15428 <g_3084+0x13c7>
   1321b:	48 89 cf             	mov    %rcx,%rdi
   1321e:	e8 d0 24 ff ff       	callq  56f3 <transparent_crc>
   13223:	48 8b 05 a6 4e 00 00 	mov    0x4ea6(%rip),%rax        # 180d0 <g_1329>
   1322a:	8b 55 fc             	mov    -0x4(%rbp),%edx
   1322d:	48 8d 35 fb 21 00 00 	lea    0x21fb(%rip),%rsi        # 1542f <g_3084+0x13ce>
   13234:	48 89 c7             	mov    %rax,%rdi
   13237:	e8 b7 24 ff ff       	callq  56f3 <transparent_crc>
   1323c:	8b 05 96 4e 00 00    	mov    0x4e96(%rip),%eax        # 180d8 <g_1618>
   13242:	48 98                	cltq   
   13244:	8b 55 fc             	mov    -0x4(%rbp),%edx
   13247:	48 8d 35 e8 21 00 00 	lea    0x21e8(%rip),%rsi        # 15436 <g_3084+0x13d5>
   1324e:	48 89 c7             	mov    %rax,%rdi
   13251:	e8 9d 24 ff ff       	callq  56f3 <transparent_crc>
   13256:	c7 45 f4 00 00 00 00 	movl   $0x0,-0xc(%rbp)
   1325d:	eb 6b                	jmp    132ca <main+0x4a7>
   1325f:	c7 45 f8 00 00 00 00 	movl   $0x0,-0x8(%rbp)
   13266:	eb 58                	jmp    132c0 <main+0x49d>
   13268:	8b 45 f8             	mov    -0x8(%rbp),%eax
   1326b:	48 98                	cltq   
   1326d:	8b 55 f4             	mov    -0xc(%rbp),%edx
   13270:	48 63 d2             	movslq %edx,%rdx
   13273:	48 c1 e2 02          	shl    $0x2,%rdx
   13277:	48 01 c2             	add    %rax,%rdx
   1327a:	48 8d 05 5f 4e 00 00 	lea    0x4e5f(%rip),%rax        # 180e0 <g_1631>
   13281:	48 01 d0             	add    %rdx,%rax
   13284:	0f b6 00             	movzbl (%rax),%eax
   13287:	48 0f be c0          	movsbq %al,%rax
   1328b:	8b 55 fc             	mov    -0x4(%rbp),%edx
   1328e:	48 8d 35 a8 21 00 00 	lea    0x21a8(%rip),%rsi        # 1543d <g_3084+0x13dc>
   13295:	48 89 c7             	mov    %rax,%rdi
   13298:	e8 56 24 ff ff       	callq  56f3 <transparent_crc>
   1329d:	83 7d fc 00          	cmpl   $0x0,-0x4(%rbp)
   132a1:	74 19                	je     132bc <main+0x499>
   132a3:	8b 55 f8             	mov    -0x8(%rbp),%edx
   132a6:	8b 45 f4             	mov    -0xc(%rbp),%eax
   132a9:	89 c6                	mov    %eax,%esi
   132ab:	48 8d 3d 98 21 00 00 	lea    0x2198(%rip),%rdi        # 1544a <g_3084+0x13e9>
   132b2:	b8 00 00 00 00       	mov    $0x0,%eax
   132b7:	e8 c4 0d ff ff       	callq  4080 <printf@plt>
   132bc:	83 45 f8 01          	addl   $0x1,-0x8(%rbp)
   132c0:	83 7d f8 03          	cmpl   $0x3,-0x8(%rbp)
   132c4:	7e a2                	jle    13268 <main+0x445>
   132c6:	83 45 f4 01          	addl   $0x1,-0xc(%rbp)
   132ca:	83 7d f4 02          	cmpl   $0x2,-0xc(%rbp)
   132ce:	7e 8f                	jle    1325f <main+0x43c>
   132d0:	8b 05 16 4e 00 00    	mov    0x4e16(%rip),%eax        # 180ec <g_1981>
   132d6:	48 98                	cltq   
   132d8:	8b 55 fc             	mov    -0x4(%rbp),%edx
   132db:	48 8d 35 7a 21 00 00 	lea    0x217a(%rip),%rsi        # 1545c <g_3084+0x13fb>
   132e2:	48 89 c7             	mov    %rax,%rdi
   132e5:	e8 09 24 ff ff       	callq  56f3 <transparent_crc>
   132ea:	0f b7 05 ff 4d 00 00 	movzwl 0x4dff(%rip),%eax        # 180f0 <g_1984>
   132f1:	48 0f bf c0          	movswq %ax,%rax
   132f5:	8b 55 fc             	mov    -0x4(%rbp),%edx
   132f8:	48 8d 35 64 21 00 00 	lea    0x2164(%rip),%rsi        # 15463 <g_3084+0x1402>
   132ff:	48 89 c7             	mov    %rax,%rdi
   13302:	e8 ec 23 ff ff       	callq  56f3 <transparent_crc>
   13307:	c7 45 f4 00 00 00 00 	movl   $0x0,-0xc(%rbp)
   1330e:	eb 4b                	jmp    1335b <main+0x538>
   13310:	8b 45 f4             	mov    -0xc(%rbp),%eax
   13313:	48 98                	cltq   
   13315:	48 8d 14 85 00 00 00 	lea    0x0(,%rax,4),%rdx
   1331c:	00 
   1331d:	48 8d 05 dc 4d 00 00 	lea    0x4ddc(%rip),%rax        # 18100 <g_2069>
   13324:	8b 04 02             	mov    (%rdx,%rax,1),%eax
   13327:	48 98                	cltq   
   13329:	8b 55 fc             	mov    -0x4(%rbp),%edx
   1332c:	48 8d 35 37 21 00 00 	lea    0x2137(%rip),%rsi        # 1546a <g_3084+0x1409>
   13333:	48 89 c7             	mov    %rax,%rdi
   13336:	e8 b8 23 ff ff       	callq  56f3 <transparent_crc>
   1333b:	83 7d fc 00          	cmpl   $0x0,-0x4(%rbp)
   1333f:	74 16                	je     13357 <main+0x534>
   13341:	8b 45 f4             	mov    -0xc(%rbp),%eax
   13344:	89 c6                	mov    %eax,%esi
   13346:	48 8d 3d 5e 20 00 00 	lea    0x205e(%rip),%rdi        # 153ab <g_3084+0x134a>
   1334d:	b8 00 00 00 00       	mov    $0x0,%eax
   13352:	e8 29 0d ff ff       	callq  4080 <printf@plt>
   13357:	83 45 f4 01          	addl   $0x1,-0xc(%rbp)
   1335b:	83 7d f4 06          	cmpl   $0x6,-0xc(%rbp)
   1335f:	7e af                	jle    13310 <main+0x4ed>
   13361:	0f b6 05 00 69 00 00 	movzbl 0x6900(%rip),%eax        # 19c68 <g_2081>
   13368:	0f b6 c0             	movzbl %al,%eax
   1336b:	8b 55 fc             	mov    -0x4(%rbp),%edx
   1336e:	48 8d 35 ff 20 00 00 	lea    0x20ff(%rip),%rsi        # 15474 <g_3084+0x1413>
   13375:	48 89 c7             	mov    %rax,%rdi
   13378:	e8 76 23 ff ff       	callq  56f3 <transparent_crc>
   1337d:	0f b7 05 98 4d 00 00 	movzwl 0x4d98(%rip),%eax        # 1811c <g_2228>
   13384:	0f b7 c0             	movzwl %ax,%eax
   13387:	8b 55 fc             	mov    -0x4(%rbp),%edx
   1338a:	48 8d 35 ea 20 00 00 	lea    0x20ea(%rip),%rsi        # 1547b <g_3084+0x141a>
   13391:	48 89 c7             	mov    %rax,%rdi
   13394:	e8 5a 23 ff ff       	callq  56f3 <transparent_crc>
   13399:	8b 05 81 4d 00 00    	mov    0x4d81(%rip),%eax        # 18120 <g_2253>
   1339f:	89 c1                	mov    %eax,%ecx
   133a1:	8b 45 fc             	mov    -0x4(%rbp),%eax
   133a4:	89 c2                	mov    %eax,%edx
   133a6:	48 8d 35 d5 20 00 00 	lea    0x20d5(%rip),%rsi        # 15482 <g_3084+0x1421>
   133ad:	48 89 cf             	mov    %rcx,%rdi
   133b0:	e8 3e 23 ff ff       	callq  56f3 <transparent_crc>
   133b5:	8b 05 69 4d 00 00    	mov    0x4d69(%rip),%eax        # 18124 <g_2443>
   133bb:	89 c1                	mov    %eax,%ecx
   133bd:	8b 45 fc             	mov    -0x4(%rbp),%eax
   133c0:	89 c2                	mov    %eax,%edx
   133c2:	48 8d 35 c0 20 00 00 	lea    0x20c0(%rip),%rsi        # 15489 <g_3084+0x1428>
   133c9:	48 89 cf             	mov    %rcx,%rdi
   133cc:	e8 22 23 ff ff       	callq  56f3 <transparent_crc>
   133d1:	48 8b 05 50 4d 00 00 	mov    0x4d50(%rip),%rax        # 18128 <g_2521>
   133d8:	8b 55 fc             	mov    -0x4(%rbp),%edx
   133db:	48 8d 35 ae 20 00 00 	lea    0x20ae(%rip),%rsi        # 15490 <g_3084+0x142f>
   133e2:	48 89 c7             	mov    %rax,%rdi
   133e5:	e8 09 23 ff ff       	callq  56f3 <transparent_crc>
   133ea:	0f b7 05 bf 68 00 00 	movzwl 0x68bf(%rip),%eax        # 19cb0 <g_2547>
   133f1:	0f b7 c0             	movzwl %ax,%eax
   133f4:	8b 55 fc             	mov    -0x4(%rbp),%edx
   133f7:	48 8d 35 99 20 00 00 	lea    0x2099(%rip),%rsi        # 15497 <g_3084+0x1436>
   133fe:	48 89 c7             	mov    %rax,%rdi
   13401:	e8 ed 22 ff ff       	callq  56f3 <transparent_crc>
   13406:	48 8b 05 23 4d 00 00 	mov    0x4d23(%rip),%rax        # 18130 <g_2572>
   1340d:	8b 55 fc             	mov    -0x4(%rbp),%edx
   13410:	48 8d 35 87 20 00 00 	lea    0x2087(%rip),%rsi        # 1549e <g_3084+0x143d>
   13417:	48 89 c7             	mov    %rax,%rdi
   1341a:	e8 d4 22 ff ff       	callq  56f3 <transparent_crc>
   1341f:	b8 01 00 00 00       	mov    $0x1,%eax
   13424:	48 0f be c0          	movsbq %al,%rax
   13428:	8b 55 fc             	mov    -0x4(%rbp),%edx
   1342b:	48 8d 35 73 20 00 00 	lea    0x2073(%rip),%rsi        # 154a5 <g_3084+0x1444>
   13432:	48 89 c7             	mov    %rax,%rdi
   13435:	e8 b9 22 ff ff       	callq  56f3 <transparent_crc>
   1343a:	c7 45 f4 00 00 00 00 	movl   $0x0,-0xc(%rbp)
   13441:	eb 4d                	jmp    13490 <main+0x66d>
   13443:	8b 45 f4             	mov    -0xc(%rbp),%eax
   13446:	48 98                	cltq   
   13448:	48 8d 14 85 00 00 00 	lea    0x0(,%rax,4),%rdx
   1344f:	00 
   13450:	48 8d 05 e9 4c 00 00 	lea    0x4ce9(%rip),%rax        # 18140 <g_2629>
   13457:	8b 04 02             	mov    (%rdx,%rax,1),%eax
   1345a:	89 c1                	mov    %eax,%ecx
   1345c:	8b 45 fc             	mov    -0x4(%rbp),%eax
   1345f:	89 c2                	mov    %eax,%edx
   13461:	48 8d 35 44 20 00 00 	lea    0x2044(%rip),%rsi        # 154ac <g_3084+0x144b>
   13468:	48 89 cf             	mov    %rcx,%rdi
   1346b:	e8 83 22 ff ff       	callq  56f3 <transparent_crc>
   13470:	83 7d fc 00          	cmpl   $0x0,-0x4(%rbp)
   13474:	74 16                	je     1348c <main+0x669>
   13476:	8b 45 f4             	mov    -0xc(%rbp),%eax
   13479:	89 c6                	mov    %eax,%esi
   1347b:	48 8d 3d 29 1f 00 00 	lea    0x1f29(%rip),%rdi        # 153ab <g_3084+0x134a>
   13482:	b8 00 00 00 00       	mov    $0x0,%eax
   13487:	e8 f4 0b ff ff       	callq  4080 <printf@plt>
   1348c:	83 45 f4 01          	addl   $0x1,-0xc(%rbp)
   13490:	83 7d f4 03          	cmpl   $0x3,-0xc(%rbp)
   13494:	7e ad                	jle    13443 <main+0x620>
   13496:	8b 05 b4 4c 00 00    	mov    0x4cb4(%rip),%eax        # 18150 <g_2746>
   1349c:	48 98                	cltq   
   1349e:	8b 55 fc             	mov    -0x4(%rbp),%edx
   134a1:	48 8d 35 0e 20 00 00 	lea    0x200e(%rip),%rsi        # 154b6 <g_3084+0x1455>
   134a8:	48 89 c7             	mov    %rax,%rdi
   134ab:	e8 43 22 ff ff       	callq  56f3 <transparent_crc>
   134b0:	c7 45 f4 00 00 00 00 	movl   $0x0,-0xc(%rbp)
   134b7:	eb 4a                	jmp    13503 <main+0x6e0>
   134b9:	8b 45 f4             	mov    -0xc(%rbp),%eax
   134bc:	48 98                	cltq   
   134be:	48 8d 14 c5 00 00 00 	lea    0x0(,%rax,8),%rdx
   134c5:	00 
   134c6:	48 8d 05 93 4c 00 00 	lea    0x4c93(%rip),%rax        # 18160 <g_2747>
   134cd:	48 8b 04 02          	mov    (%rdx,%rax,1),%rax
   134d1:	8b 55 fc             	mov    -0x4(%rbp),%edx
   134d4:	48 8d 35 e2 1f 00 00 	lea    0x1fe2(%rip),%rsi        # 154bd <g_3084+0x145c>
   134db:	48 89 c7             	mov    %rax,%rdi
   134de:	e8 10 22 ff ff       	callq  56f3 <transparent_crc>
   134e3:	83 7d fc 00          	cmpl   $0x0,-0x4(%rbp)
   134e7:	74 16                	je     134ff <main+0x6dc>
   134e9:	8b 45 f4             	mov    -0xc(%rbp),%eax
   134ec:	89 c6                	mov    %eax,%esi
   134ee:	48 8d 3d b6 1e 00 00 	lea    0x1eb6(%rip),%rdi        # 153ab <g_3084+0x134a>
   134f5:	b8 00 00 00 00       	mov    $0x0,%eax
   134fa:	e8 81 0b ff ff       	callq  4080 <printf@plt>
   134ff:	83 45 f4 01          	addl   $0x1,-0xc(%rbp)
   13503:	83 7d f4 05          	cmpl   $0x5,-0xc(%rbp)
   13507:	7e b0                	jle    134b9 <main+0x696>
   13509:	8b 05 81 4c 00 00    	mov    0x4c81(%rip),%eax        # 18190 <g_2800>
   1350f:	48 98                	cltq   
   13511:	8b 55 fc             	mov    -0x4(%rbp),%edx
   13514:	48 8d 35 ac 1f 00 00 	lea    0x1fac(%rip),%rsi        # 154c7 <g_3084+0x1466>
   1351b:	48 89 c7             	mov    %rax,%rdi
   1351e:	e8 d0 21 ff ff       	callq  56f3 <transparent_crc>
   13523:	0f b6 05 88 67 00 00 	movzbl 0x6788(%rip),%eax        # 19cb2 <g_2931>
   1352a:	0f b6 c0             	movzbl %al,%eax
   1352d:	8b 55 fc             	mov    -0x4(%rbp),%edx
   13530:	48 8d 35 97 1f 00 00 	lea    0x1f97(%rip),%rsi        # 154ce <g_3084+0x146d>
   13537:	48 89 c7             	mov    %rax,%rdi
   1353a:	e8 b4 21 ff ff       	callq  56f3 <transparent_crc>
   1353f:	c7 45 f4 00 00 00 00 	movl   $0x0,-0xc(%rbp)
   13546:	eb 70                	jmp    135b8 <main+0x795>
   13548:	c7 45 f8 00 00 00 00 	movl   $0x0,-0x8(%rbp)
   1354f:	eb 5d                	jmp    135ae <main+0x78b>
   13551:	8b 45 f8             	mov    -0x8(%rbp),%eax
   13554:	48 98                	cltq   
   13556:	8b 55 f4             	mov    -0xc(%rbp),%edx
   13559:	48 63 d2             	movslq %edx,%rdx
   1355c:	48 c1 e2 03          	shl    $0x3,%rdx
   13560:	48 01 d0             	add    %rdx,%rax
   13563:	48 8d 14 85 00 00 00 	lea    0x0(,%rax,4),%rdx
   1356a:	00 
   1356b:	48 8d 05 2e 4c 00 00 	lea    0x4c2e(%rip),%rax        # 181a0 <g_2961>
   13572:	8b 04 02             	mov    (%rdx,%rax,1),%eax
   13575:	89 c1                	mov    %eax,%ecx
   13577:	8b 45 fc             	mov    -0x4(%rbp),%eax
   1357a:	89 c2                	mov    %eax,%edx
   1357c:	48 8d 35 52 1f 00 00 	lea    0x1f52(%rip),%rsi        # 154d5 <g_3084+0x1474>
   13583:	48 89 cf             	mov    %rcx,%rdi
   13586:	e8 68 21 ff ff       	callq  56f3 <transparent_crc>
   1358b:	83 7d fc 00          	cmpl   $0x0,-0x4(%rbp)
   1358f:	74 19                	je     135aa <main+0x787>
   13591:	8b 55 f8             	mov    -0x8(%rbp),%edx
   13594:	8b 45 f4             	mov    -0xc(%rbp),%eax
   13597:	89 c6                	mov    %eax,%esi
   13599:	48 8d 3d aa 1e 00 00 	lea    0x1eaa(%rip),%rdi        # 1544a <g_3084+0x13e9>
   135a0:	b8 00 00 00 00       	mov    $0x0,%eax
   135a5:	e8 d6 0a ff ff       	callq  4080 <printf@plt>
   135aa:	83 45 f8 01          	addl   $0x1,-0x8(%rbp)
   135ae:	83 7d f8 07          	cmpl   $0x7,-0x8(%rbp)
   135b2:	7e 9d                	jle    13551 <main+0x72e>
   135b4:	83 45 f4 01          	addl   $0x1,-0xc(%rbp)
   135b8:	83 7d f4 01          	cmpl   $0x1,-0xc(%rbp)
   135bc:	7e 8a                	jle    13548 <main+0x725>
   135be:	b8 33 00 00 00       	mov    $0x33,%eax
   135c3:	48 0f be c0          	movsbq %al,%rax
   135c7:	8b 55 fc             	mov    -0x4(%rbp),%edx
   135ca:	48 8d 35 11 1f 00 00 	lea    0x1f11(%rip),%rsi        # 154e2 <g_3084+0x1481>
   135d1:	48 89 c7             	mov    %rax,%rdi
   135d4:	e8 1a 21 ff ff       	callq  56f3 <transparent_crc>
   135d9:	0f b7 05 00 4c 00 00 	movzwl 0x4c00(%rip),%eax        # 181e0 <g_3154>
   135e0:	0f b7 c0             	movzwl %ax,%eax
   135e3:	8b 55 fc             	mov    -0x4(%rbp),%edx
   135e6:	48 8d 35 fc 1e 00 00 	lea    0x1efc(%rip),%rsi        # 154e9 <g_3084+0x1488>
   135ed:	48 89 c7             	mov    %rax,%rdi
   135f0:	e8 fe 20 ff ff       	callq  56f3 <transparent_crc>
   135f5:	48 8b 05 ec 4b 00 00 	mov    0x4bec(%rip),%rax        # 181e8 <g_3304>
   135fc:	8b 55 fc             	mov    -0x4(%rbp),%edx
   135ff:	48 8d 35 ea 1e 00 00 	lea    0x1eea(%rip),%rsi        # 154f0 <g_3084+0x148f>
   13606:	48 89 c7             	mov    %rax,%rdi
   13609:	e8 e5 20 ff ff       	callq  56f3 <transparent_crc>
   1360e:	8b 05 0c 4a 00 00    	mov    0x4a0c(%rip),%eax        # 18020 <crc32_context>
   13614:	f7 d0                	not    %eax
   13616:	89 c2                	mov    %eax,%edx
   13618:	8b 45 fc             	mov    -0x4(%rbp),%eax
   1361b:	89 c6                	mov    %eax,%esi
   1361d:	89 d7                	mov    %edx,%edi
   1361f:	e8 70 0b ff ff       	callq  4194 <platform_main_end>
   13624:	b8 00 00 00 00       	mov    $0x0,%eax
   13629:	c9                   	leaveq 
   1362a:	c3                   	retq   
   1362b:	0f 1f 44 00 00       	nopl   0x0(%rax,%rax,1)

0000000000013630 <__libc_csu_init>:
   13630:	f3 0f 1e fa          	endbr64 
   13634:	41 57                	push   %r15
   13636:	4c 8d 3d 13 47 00 00 	lea    0x4713(%rip),%r15        # 17d50 <__frame_dummy_init_array_entry>
   1363d:	41 56                	push   %r14
   1363f:	49 89 d6             	mov    %rdx,%r14
   13642:	41 55                	push   %r13
   13644:	49 89 f5             	mov    %rsi,%r13
   13647:	41 54                	push   %r12
   13649:	41 89 fc             	mov    %edi,%r12d
   1364c:	55                   	push   %rbp
   1364d:	48 8d 2d 04 47 00 00 	lea    0x4704(%rip),%rbp        # 17d58 <__do_global_dtors_aux_fini_array_entry>
   13654:	53                   	push   %rbx
   13655:	4c 29 fd             	sub    %r15,%rbp
   13658:	48 83 ec 08          	sub    $0x8,%rsp
   1365c:	e8 9f 09 ff ff       	callq  4000 <_init>
   13661:	48 c1 fd 03          	sar    $0x3,%rbp
   13665:	74 1f                	je     13686 <__libc_csu_init+0x56>
   13667:	31 db                	xor    %ebx,%ebx
   13669:	0f 1f 80 00 00 00 00 	nopl   0x0(%rax)
   13670:	4c 89 f2             	mov    %r14,%rdx
   13673:	4c 89 ee             	mov    %r13,%rsi
   13676:	44 89 e7             	mov    %r12d,%edi
   13679:	41 ff 14 df          	callq  *(%r15,%rbx,8)
   1367d:	48 83 c3 01          	add    $0x1,%rbx
   13681:	48 39 dd             	cmp    %rbx,%rbp
   13684:	75 ea                	jne    13670 <__libc_csu_init+0x40>
   13686:	48 83 c4 08          	add    $0x8,%rsp
   1368a:	5b                   	pop    %rbx
   1368b:	5d                   	pop    %rbp
   1368c:	41 5c                	pop    %r12
   1368e:	41 5d                	pop    %r13
   13690:	41 5e                	pop    %r14
   13692:	41 5f                	pop    %r15
   13694:	c3                   	retq   
   13695:	66 66 2e 0f 1f 84 00 	data16 nopw %cs:0x0(%rax,%rax,1)
   1369c:	00 00 00 00 

00000000000136a0 <__libc_csu_fini>:
   136a0:	f3 0f 1e fa          	endbr64 
   136a4:	c3                   	retq   
