


Disassembly of section .text:

00000000000050a0 <_start>:
    50a0:	f3 0f 1e fa          	endbr64 
    50a4:	31 ed                	xor    %ebp,%ebp
    50a6:	49 89 d1             	mov    %rdx,%r9
    50a9:	5e                   	pop    %rsi
    50aa:	48 89 e2             	mov    %rsp,%rdx
    50ad:	48 83 e4 f0          	and    $0xfffffffffffffff0,%rsp
    50b1:	50                   	push   %rax
    50b2:	54                   	push   %rsp
    50b3:	4c 8d 05 b6 a4 00 00 	lea    0xa4b6(%rip),%r8        # f570 <__libc_csu_fini>
    50ba:	48 8d 0d 3f a4 00 00 	lea    0xa43f(%rip),%rcx        # f500 <__libc_csu_init>
    50c1:	48 8d 3d d0 93 00 00 	lea    0x93d0(%rip),%rdi        # e498 <main>
    50c8:	ff 15 12 ef 00 00    	callq  *0xef12(%rip)        # 13fe0 <__libc_start_main@GLIBC_2.2.5>
    50ce:	f4                   	hlt    
    50cf:	90                   	nop

00000000000050d0 <deregister_tm_clones>:
    50d0:	48 8d 3d f1 0f 01 00 	lea    0x10ff1(%rip),%rdi        # 160c8 <__TMC_END__>
    50d7:	48 8d 05 ea 0f 01 00 	lea    0x10fea(%rip),%rax        # 160c8 <__TMC_END__>
    50de:	48 39 f8             	cmp    %rdi,%rax
    50e1:	74 15                	je     50f8 <deregister_tm_clones+0x28>
    50e3:	48 8b 05 ee ee 00 00 	mov    0xeeee(%rip),%rax        # 13fd8 <_ITM_deregisterTMCloneTable>
    50ea:	48 85 c0             	test   %rax,%rax
    50ed:	74 09                	je     50f8 <deregister_tm_clones+0x28>
    50ef:	ff e0                	jmpq   *%rax
    50f1:	0f 1f 80 00 00 00 00 	nopl   0x0(%rax)
    50f8:	c3                   	retq   
    50f9:	0f 1f 80 00 00 00 00 	nopl   0x0(%rax)

0000000000005100 <register_tm_clones>:
    5100:	48 8d 3d c1 0f 01 00 	lea    0x10fc1(%rip),%rdi        # 160c8 <__TMC_END__>
    5107:	48 8d 35 ba 0f 01 00 	lea    0x10fba(%rip),%rsi        # 160c8 <__TMC_END__>
    510e:	48 29 fe             	sub    %rdi,%rsi
    5111:	48 89 f0             	mov    %rsi,%rax
    5114:	48 c1 ee 3f          	shr    $0x3f,%rsi
    5118:	48 c1 f8 03          	sar    $0x3,%rax
    511c:	48 01 c6             	add    %rax,%rsi
    511f:	48 d1 fe             	sar    %rsi
    5122:	74 14                	je     5138 <register_tm_clones+0x38>
    5124:	48 8b 05 c5 ee 00 00 	mov    0xeec5(%rip),%rax        # 13ff0 <_ITM_registerTMCloneTable>
    512b:	48 85 c0             	test   %rax,%rax
    512e:	74 08                	je     5138 <register_tm_clones+0x38>
    5130:	ff e0                	jmpq   *%rax
    5132:	66 0f 1f 44 00 00    	nopw   0x0(%rax,%rax,1)
    5138:	c3                   	retq   
    5139:	0f 1f 80 00 00 00 00 	nopl   0x0(%rax)

0000000000005140 <__do_global_dtors_aux>:
    5140:	f3 0f 1e fa          	endbr64 
    5144:	80 3d 95 0f 01 00 00 	cmpb   $0x0,0x10f95(%rip)        # 160e0 <completed.8061>
    514b:	75 2b                	jne    5178 <__do_global_dtors_aux+0x38>
    514d:	55                   	push   %rbp
    514e:	48 83 3d a2 ee 00 00 	cmpq   $0x0,0xeea2(%rip)        # 13ff8 <__cxa_finalize@GLIBC_2.2.5>
    5155:	00 
    5156:	48 89 e5             	mov    %rsp,%rbp
    5159:	74 0c                	je     5167 <__do_global_dtors_aux+0x27>
    515b:	48 8b 3d a6 ee 00 00 	mov    0xeea6(%rip),%rdi        # 14008 <__dso_handle>
    5162:	e8 f9 fe ff ff       	callq  5060 <__cxa_finalize@plt>
    5167:	e8 64 ff ff ff       	callq  50d0 <deregister_tm_clones>
    516c:	c6 05 6d 0f 01 00 01 	movb   $0x1,0x10f6d(%rip)        # 160e0 <completed.8061>
    5173:	5d                   	pop    %rbp
    5174:	c3                   	retq   
    5175:	0f 1f 00             	nopl   (%rax)
    5178:	c3                   	retq   
    5179:	0f 1f 80 00 00 00 00 	nopl   0x0(%rax)

0000000000005180 <frame_dummy>:
    5180:	f3 0f 1e fa          	endbr64 
    5184:	e9 77 ff ff ff       	jmpq   5100 <register_tm_clones>

0000000000005189 <platform_main_begin>:
    5189:	f3 0f 1e fa          	endbr64 
    518d:	55                   	push   %rbp
    518e:	48 89 e5             	mov    %rsp,%rbp
    5191:	90                   	nop
    5192:	5d                   	pop    %rbp
    5193:	c3                   	retq   

0000000000005194 <platform_main_end>:
    5194:	f3 0f 1e fa          	endbr64 
    5198:	55                   	push   %rbp
    5199:	48 89 e5             	mov    %rsp,%rbp
    519c:	48 83 ec 10          	sub    $0x10,%rsp
    51a0:	89 7d fc             	mov    %edi,-0x4(%rbp)
    51a3:	89 75 f8             	mov    %esi,-0x8(%rbp)
    51a6:	8b 45 fc             	mov    -0x4(%rbp),%eax
    51a9:	89 c6                	mov    %eax,%esi
    51ab:	48 8d 3d 6e ae 00 00 	lea    0xae6e(%rip),%rdi        # 10020 <_IO_stdin_used+0x20>
    51b2:	b8 00 00 00 00       	mov    $0x0,%eax
    51b7:	e8 c4 fe ff ff       	callq  5080 <printf@plt>
    51bc:	90                   	nop
    51bd:	c9                   	leaveq 
    51be:	c3                   	retq   

00000000000051bf <safe_unary_minus_func_int8_t_s>:
    51bf:	f3 0f 1e fa          	endbr64 
    51c3:	55                   	push   %rbp
    51c4:	48 89 e5             	mov    %rsp,%rbp
    51c7:	89 f8                	mov    %edi,%eax
    51c9:	88 45 fc             	mov    %al,-0x4(%rbp)
    51cc:	0f b6 45 fc          	movzbl -0x4(%rbp),%eax
    51d0:	f7 d8                	neg    %eax
    51d2:	5d                   	pop    %rbp
    51d3:	c3                   	retq   

00000000000051d4 <safe_add_func_int8_t_s_s>:
    51d4:	f3 0f 1e fa          	endbr64 
    51d8:	55                   	push   %rbp
    51d9:	48 89 e5             	mov    %rsp,%rbp
    51dc:	89 fa                	mov    %edi,%edx
    51de:	89 f0                	mov    %esi,%eax
    51e0:	88 55 fc             	mov    %dl,-0x4(%rbp)
    51e3:	88 45 f8             	mov    %al,-0x8(%rbp)
    51e6:	0f b6 55 fc          	movzbl -0x4(%rbp),%edx
    51ea:	0f b6 45 f8          	movzbl -0x8(%rbp),%eax
    51ee:	01 d0                	add    %edx,%eax
    51f0:	5d                   	pop    %rbp
    51f1:	c3                   	retq   

00000000000051f2 <safe_sub_func_int8_t_s_s>:
    51f2:	f3 0f 1e fa          	endbr64 
    51f6:	55                   	push   %rbp
    51f7:	48 89 e5             	mov    %rsp,%rbp
    51fa:	89 fa                	mov    %edi,%edx
    51fc:	89 f0                	mov    %esi,%eax
    51fe:	88 55 fc             	mov    %dl,-0x4(%rbp)
    5201:	88 45 f8             	mov    %al,-0x8(%rbp)
    5204:	0f b6 55 fc          	movzbl -0x4(%rbp),%edx
    5208:	0f b6 45 f8          	movzbl -0x8(%rbp),%eax
    520c:	29 c2                	sub    %eax,%edx
    520e:	89 d0                	mov    %edx,%eax
    5210:	5d                   	pop    %rbp
    5211:	c3                   	retq   

0000000000005212 <safe_mul_func_int8_t_s_s>:
    5212:	f3 0f 1e fa          	endbr64 
    5216:	55                   	push   %rbp
    5217:	48 89 e5             	mov    %rsp,%rbp
    521a:	89 fa                	mov    %edi,%edx
    521c:	89 f0                	mov    %esi,%eax
    521e:	88 55 fc             	mov    %dl,-0x4(%rbp)
    5221:	88 45 f8             	mov    %al,-0x8(%rbp)
    5224:	0f b6 45 fc          	movzbl -0x4(%rbp),%eax
    5228:	0f b6 55 f8          	movzbl -0x8(%rbp),%edx
    522c:	0f af c2             	imul   %edx,%eax
    522f:	5d                   	pop    %rbp
    5230:	c3                   	retq   

0000000000005231 <safe_mod_func_int8_t_s_s>:
    5231:	f3 0f 1e fa          	endbr64 
    5235:	55                   	push   %rbp
    5236:	48 89 e5             	mov    %rsp,%rbp
    5239:	89 fa                	mov    %edi,%edx
    523b:	89 f0                	mov    %esi,%eax
    523d:	88 55 fc             	mov    %dl,-0x4(%rbp)
    5240:	88 45 f8             	mov    %al,-0x8(%rbp)
    5243:	80 7d f8 00          	cmpb   $0x0,-0x8(%rbp)
    5247:	74 1b                	je     5264 <safe_mod_func_int8_t_s_s+0x33>
    5249:	80 7d fc 80          	cmpb   $0x80,-0x4(%rbp)
    524d:	75 06                	jne    5255 <safe_mod_func_int8_t_s_s+0x24>
    524f:	80 7d f8 ff          	cmpb   $0xff,-0x8(%rbp)
    5253:	74 0f                	je     5264 <safe_mod_func_int8_t_s_s+0x33>
    5255:	0f be 45 fc          	movsbl -0x4(%rbp),%eax
    5259:	0f be 4d f8          	movsbl -0x8(%rbp),%ecx
    525d:	99                   	cltd   
    525e:	f7 f9                	idiv   %ecx
    5260:	89 d0                	mov    %edx,%eax
    5262:	eb 04                	jmp    5268 <safe_mod_func_int8_t_s_s+0x37>
    5264:	0f b6 45 fc          	movzbl -0x4(%rbp),%eax
    5268:	5d                   	pop    %rbp
    5269:	c3                   	retq   

000000000000526a <safe_div_func_int8_t_s_s>:
    526a:	f3 0f 1e fa          	endbr64 
    526e:	55                   	push   %rbp
    526f:	48 89 e5             	mov    %rsp,%rbp
    5272:	89 fa                	mov    %edi,%edx
    5274:	89 f0                	mov    %esi,%eax
    5276:	88 55 fc             	mov    %dl,-0x4(%rbp)
    5279:	88 45 f8             	mov    %al,-0x8(%rbp)
    527c:	80 7d f8 00          	cmpb   $0x0,-0x8(%rbp)
    5280:	74 19                	je     529b <safe_div_func_int8_t_s_s+0x31>
    5282:	80 7d fc 80          	cmpb   $0x80,-0x4(%rbp)
    5286:	75 06                	jne    528e <safe_div_func_int8_t_s_s+0x24>
    5288:	80 7d f8 ff          	cmpb   $0xff,-0x8(%rbp)
    528c:	74 0d                	je     529b <safe_div_func_int8_t_s_s+0x31>
    528e:	0f be 45 fc          	movsbl -0x4(%rbp),%eax
    5292:	0f be 4d f8          	movsbl -0x8(%rbp),%ecx
    5296:	99                   	cltd   
    5297:	f7 f9                	idiv   %ecx
    5299:	eb 04                	jmp    529f <safe_div_func_int8_t_s_s+0x35>
    529b:	0f b6 45 fc          	movzbl -0x4(%rbp),%eax
    529f:	5d                   	pop    %rbp
    52a0:	c3                   	retq   

00000000000052a1 <safe_lshift_func_int8_t_s_s>:
    52a1:	f3 0f 1e fa          	endbr64 
    52a5:	55                   	push   %rbp
    52a6:	48 89 e5             	mov    %rsp,%rbp
    52a9:	89 f8                	mov    %edi,%eax
    52ab:	89 75 f8             	mov    %esi,-0x8(%rbp)
    52ae:	88 45 fc             	mov    %al,-0x4(%rbp)
    52b1:	80 7d fc 00          	cmpb   $0x0,-0x4(%rbp)
    52b5:	78 31                	js     52e8 <safe_lshift_func_int8_t_s_s+0x47>
    52b7:	83 7d f8 00          	cmpl   $0x0,-0x8(%rbp)
    52bb:	78 2b                	js     52e8 <safe_lshift_func_int8_t_s_s+0x47>
    52bd:	83 7d f8 1f          	cmpl   $0x1f,-0x8(%rbp)
    52c1:	7f 25                	jg     52e8 <safe_lshift_func_int8_t_s_s+0x47>
    52c3:	0f be 55 fc          	movsbl -0x4(%rbp),%edx
    52c7:	8b 45 f8             	mov    -0x8(%rbp),%eax
    52ca:	be 7f 00 00 00       	mov    $0x7f,%esi
    52cf:	89 c1                	mov    %eax,%ecx
    52d1:	d3 fe                	sar    %cl,%esi
    52d3:	89 f0                	mov    %esi,%eax
    52d5:	39 c2                	cmp    %eax,%edx
    52d7:	7f 0f                	jg     52e8 <safe_lshift_func_int8_t_s_s+0x47>
    52d9:	0f be 55 fc          	movsbl -0x4(%rbp),%edx
    52dd:	8b 45 f8             	mov    -0x8(%rbp),%eax
    52e0:	89 c1                	mov    %eax,%ecx
    52e2:	d3 e2                	shl    %cl,%edx
    52e4:	89 d0                	mov    %edx,%eax
    52e6:	eb 04                	jmp    52ec <safe_lshift_func_int8_t_s_s+0x4b>
    52e8:	0f b6 45 fc          	movzbl -0x4(%rbp),%eax
    52ec:	5d                   	pop    %rbp
    52ed:	c3                   	retq   

00000000000052ee <safe_lshift_func_int8_t_s_u>:
    52ee:	f3 0f 1e fa          	endbr64 
    52f2:	55                   	push   %rbp
    52f3:	48 89 e5             	mov    %rsp,%rbp
    52f6:	89 f8                	mov    %edi,%eax
    52f8:	89 75 f8             	mov    %esi,-0x8(%rbp)
    52fb:	88 45 fc             	mov    %al,-0x4(%rbp)
    52fe:	80 7d fc 00          	cmpb   $0x0,-0x4(%rbp)
    5302:	78 2b                	js     532f <safe_lshift_func_int8_t_s_u+0x41>
    5304:	83 7d f8 1f          	cmpl   $0x1f,-0x8(%rbp)
    5308:	77 25                	ja     532f <safe_lshift_func_int8_t_s_u+0x41>
    530a:	0f be 55 fc          	movsbl -0x4(%rbp),%edx
    530e:	8b 45 f8             	mov    -0x8(%rbp),%eax
    5311:	be 7f 00 00 00       	mov    $0x7f,%esi
    5316:	89 c1                	mov    %eax,%ecx
    5318:	d3 fe                	sar    %cl,%esi
    531a:	89 f0                	mov    %esi,%eax
    531c:	39 c2                	cmp    %eax,%edx
    531e:	7f 0f                	jg     532f <safe_lshift_func_int8_t_s_u+0x41>
    5320:	0f be 55 fc          	movsbl -0x4(%rbp),%edx
    5324:	8b 45 f8             	mov    -0x8(%rbp),%eax
    5327:	89 c1                	mov    %eax,%ecx
    5329:	d3 e2                	shl    %cl,%edx
    532b:	89 d0                	mov    %edx,%eax
    532d:	eb 04                	jmp    5333 <safe_lshift_func_int8_t_s_u+0x45>
    532f:	0f b6 45 fc          	movzbl -0x4(%rbp),%eax
    5333:	5d                   	pop    %rbp
    5334:	c3                   	retq   

0000000000005335 <safe_rshift_func_int8_t_s_s>:
    5335:	f3 0f 1e fa          	endbr64 
    5339:	55                   	push   %rbp
    533a:	48 89 e5             	mov    %rsp,%rbp
    533d:	89 f8                	mov    %edi,%eax
    533f:	89 75 f8             	mov    %esi,-0x8(%rbp)
    5342:	88 45 fc             	mov    %al,-0x4(%rbp)
    5345:	80 7d fc 00          	cmpb   $0x0,-0x4(%rbp)
    5349:	78 1b                	js     5366 <safe_rshift_func_int8_t_s_s+0x31>
    534b:	83 7d f8 00          	cmpl   $0x0,-0x8(%rbp)
    534f:	78 15                	js     5366 <safe_rshift_func_int8_t_s_s+0x31>
    5351:	83 7d f8 1f          	cmpl   $0x1f,-0x8(%rbp)
    5355:	7f 0f                	jg     5366 <safe_rshift_func_int8_t_s_s+0x31>
    5357:	0f be 55 fc          	movsbl -0x4(%rbp),%edx
    535b:	8b 45 f8             	mov    -0x8(%rbp),%eax
    535e:	89 c1                	mov    %eax,%ecx
    5360:	d3 fa                	sar    %cl,%edx
    5362:	89 d0                	mov    %edx,%eax
    5364:	eb 04                	jmp    536a <safe_rshift_func_int8_t_s_s+0x35>
    5366:	0f b6 45 fc          	movzbl -0x4(%rbp),%eax
    536a:	5d                   	pop    %rbp
    536b:	c3                   	retq   

000000000000536c <safe_rshift_func_int8_t_s_u>:
    536c:	f3 0f 1e fa          	endbr64 
    5370:	55                   	push   %rbp
    5371:	48 89 e5             	mov    %rsp,%rbp
    5374:	89 f8                	mov    %edi,%eax
    5376:	89 75 f8             	mov    %esi,-0x8(%rbp)
    5379:	88 45 fc             	mov    %al,-0x4(%rbp)
    537c:	80 7d fc 00          	cmpb   $0x0,-0x4(%rbp)
    5380:	78 15                	js     5397 <safe_rshift_func_int8_t_s_u+0x2b>
    5382:	83 7d f8 1f          	cmpl   $0x1f,-0x8(%rbp)
    5386:	77 0f                	ja     5397 <safe_rshift_func_int8_t_s_u+0x2b>
    5388:	0f be 55 fc          	movsbl -0x4(%rbp),%edx
    538c:	8b 45 f8             	mov    -0x8(%rbp),%eax
    538f:	89 c1                	mov    %eax,%ecx
    5391:	d3 fa                	sar    %cl,%edx
    5393:	89 d0                	mov    %edx,%eax
    5395:	eb 04                	jmp    539b <safe_rshift_func_int8_t_s_u+0x2f>
    5397:	0f b6 45 fc          	movzbl -0x4(%rbp),%eax
    539b:	5d                   	pop    %rbp
    539c:	c3                   	retq   

000000000000539d <safe_unary_minus_func_int16_t_s>:
    539d:	f3 0f 1e fa          	endbr64 
    53a1:	55                   	push   %rbp
    53a2:	48 89 e5             	mov    %rsp,%rbp
    53a5:	89 f8                	mov    %edi,%eax
    53a7:	66 89 45 fc          	mov    %ax,-0x4(%rbp)
    53ab:	0f b7 45 fc          	movzwl -0x4(%rbp),%eax
    53af:	f7 d8                	neg    %eax
    53b1:	5d                   	pop    %rbp
    53b2:	c3                   	retq   

00000000000053b3 <safe_add_func_int16_t_s_s>:
    53b3:	f3 0f 1e fa          	endbr64 
    53b7:	55                   	push   %rbp
    53b8:	48 89 e5             	mov    %rsp,%rbp
    53bb:	89 fa                	mov    %edi,%edx
    53bd:	89 f0                	mov    %esi,%eax
    53bf:	66 89 55 fc          	mov    %dx,-0x4(%rbp)
    53c3:	66 89 45 f8          	mov    %ax,-0x8(%rbp)
    53c7:	0f b7 55 fc          	movzwl -0x4(%rbp),%edx
    53cb:	0f b7 45 f8          	movzwl -0x8(%rbp),%eax
    53cf:	01 d0                	add    %edx,%eax
    53d1:	5d                   	pop    %rbp
    53d2:	c3                   	retq   

00000000000053d3 <safe_sub_func_int16_t_s_s>:
    53d3:	f3 0f 1e fa          	endbr64 
    53d7:	55                   	push   %rbp
    53d8:	48 89 e5             	mov    %rsp,%rbp
    53db:	89 fa                	mov    %edi,%edx
    53dd:	89 f0                	mov    %esi,%eax
    53df:	66 89 55 fc          	mov    %dx,-0x4(%rbp)
    53e3:	66 89 45 f8          	mov    %ax,-0x8(%rbp)
    53e7:	0f b7 55 fc          	movzwl -0x4(%rbp),%edx
    53eb:	0f b7 45 f8          	movzwl -0x8(%rbp),%eax
    53ef:	29 c2                	sub    %eax,%edx
    53f1:	89 d0                	mov    %edx,%eax
    53f3:	5d                   	pop    %rbp
    53f4:	c3                   	retq   

00000000000053f5 <safe_mul_func_int16_t_s_s>:
    53f5:	f3 0f 1e fa          	endbr64 
    53f9:	55                   	push   %rbp
    53fa:	48 89 e5             	mov    %rsp,%rbp
    53fd:	89 fa                	mov    %edi,%edx
    53ff:	89 f0                	mov    %esi,%eax
    5401:	66 89 55 fc          	mov    %dx,-0x4(%rbp)
    5405:	66 89 45 f8          	mov    %ax,-0x8(%rbp)
    5409:	0f b7 55 fc          	movzwl -0x4(%rbp),%edx
    540d:	0f b7 45 f8          	movzwl -0x8(%rbp),%eax
    5411:	0f af c2             	imul   %edx,%eax
    5414:	5d                   	pop    %rbp
    5415:	c3                   	retq   

0000000000005416 <safe_mod_func_int16_t_s_s>:
    5416:	f3 0f 1e fa          	endbr64 
    541a:	55                   	push   %rbp
    541b:	48 89 e5             	mov    %rsp,%rbp
    541e:	89 fa                	mov    %edi,%edx
    5420:	89 f0                	mov    %esi,%eax
    5422:	66 89 55 fc          	mov    %dx,-0x4(%rbp)
    5426:	66 89 45 f8          	mov    %ax,-0x8(%rbp)
    542a:	66 83 7d f8 00       	cmpw   $0x0,-0x8(%rbp)
    542f:	74 1e                	je     544f <safe_mod_func_int16_t_s_s+0x39>
    5431:	66 81 7d fc 00 80    	cmpw   $0x8000,-0x4(%rbp)
    5437:	75 07                	jne    5440 <safe_mod_func_int16_t_s_s+0x2a>
    5439:	66 83 7d f8 ff       	cmpw   $0xffff,-0x8(%rbp)
    543e:	74 0f                	je     544f <safe_mod_func_int16_t_s_s+0x39>
    5440:	0f bf 45 fc          	movswl -0x4(%rbp),%eax
    5444:	0f bf 4d f8          	movswl -0x8(%rbp),%ecx
    5448:	99                   	cltd   
    5449:	f7 f9                	idiv   %ecx
    544b:	89 d0                	mov    %edx,%eax
    544d:	eb 04                	jmp    5453 <safe_mod_func_int16_t_s_s+0x3d>
    544f:	0f b7 45 fc          	movzwl -0x4(%rbp),%eax
    5453:	5d                   	pop    %rbp
    5454:	c3                   	retq   

0000000000005455 <safe_div_func_int16_t_s_s>:
    5455:	f3 0f 1e fa          	endbr64 
    5459:	55                   	push   %rbp
    545a:	48 89 e5             	mov    %rsp,%rbp
    545d:	89 fa                	mov    %edi,%edx
    545f:	89 f0                	mov    %esi,%eax
    5461:	66 89 55 fc          	mov    %dx,-0x4(%rbp)
    5465:	66 89 45 f8          	mov    %ax,-0x8(%rbp)
    5469:	66 83 7d f8 00       	cmpw   $0x0,-0x8(%rbp)
    546e:	74 1c                	je     548c <safe_div_func_int16_t_s_s+0x37>
    5470:	66 81 7d fc 00 80    	cmpw   $0x8000,-0x4(%rbp)
    5476:	75 07                	jne    547f <safe_div_func_int16_t_s_s+0x2a>
    5478:	66 83 7d f8 ff       	cmpw   $0xffff,-0x8(%rbp)
    547d:	74 0d                	je     548c <safe_div_func_int16_t_s_s+0x37>
    547f:	0f bf 45 fc          	movswl -0x4(%rbp),%eax
    5483:	0f bf 4d f8          	movswl -0x8(%rbp),%ecx
    5487:	99                   	cltd   
    5488:	f7 f9                	idiv   %ecx
    548a:	eb 04                	jmp    5490 <safe_div_func_int16_t_s_s+0x3b>
    548c:	0f b7 45 fc          	movzwl -0x4(%rbp),%eax
    5490:	5d                   	pop    %rbp
    5491:	c3                   	retq   

0000000000005492 <safe_lshift_func_int16_t_s_s>:
    5492:	f3 0f 1e fa          	endbr64 
    5496:	55                   	push   %rbp
    5497:	48 89 e5             	mov    %rsp,%rbp
    549a:	89 f8                	mov    %edi,%eax
    549c:	89 75 f8             	mov    %esi,-0x8(%rbp)
    549f:	66 89 45 fc          	mov    %ax,-0x4(%rbp)
    54a3:	66 83 7d fc 00       	cmpw   $0x0,-0x4(%rbp)
    54a8:	78 31                	js     54db <safe_lshift_func_int16_t_s_s+0x49>
    54aa:	83 7d f8 00          	cmpl   $0x0,-0x8(%rbp)
    54ae:	78 2b                	js     54db <safe_lshift_func_int16_t_s_s+0x49>
    54b0:	83 7d f8 1f          	cmpl   $0x1f,-0x8(%rbp)
    54b4:	7f 25                	jg     54db <safe_lshift_func_int16_t_s_s+0x49>
    54b6:	0f bf 55 fc          	movswl -0x4(%rbp),%edx
    54ba:	8b 45 f8             	mov    -0x8(%rbp),%eax
    54bd:	be ff 7f 00 00       	mov    $0x7fff,%esi
    54c2:	89 c1                	mov    %eax,%ecx
    54c4:	d3 fe                	sar    %cl,%esi
    54c6:	89 f0                	mov    %esi,%eax
    54c8:	39 c2                	cmp    %eax,%edx
    54ca:	7f 0f                	jg     54db <safe_lshift_func_int16_t_s_s+0x49>
    54cc:	0f bf 55 fc          	movswl -0x4(%rbp),%edx
    54d0:	8b 45 f8             	mov    -0x8(%rbp),%eax
    54d3:	89 c1                	mov    %eax,%ecx
    54d5:	d3 e2                	shl    %cl,%edx
    54d7:	89 d0                	mov    %edx,%eax
    54d9:	eb 04                	jmp    54df <safe_lshift_func_int16_t_s_s+0x4d>
    54db:	0f b7 45 fc          	movzwl -0x4(%rbp),%eax
    54df:	5d                   	pop    %rbp
    54e0:	c3                   	retq   

00000000000054e1 <safe_lshift_func_int16_t_s_u>:
    54e1:	f3 0f 1e fa          	endbr64 
    54e5:	55                   	push   %rbp
    54e6:	48 89 e5             	mov    %rsp,%rbp
    54e9:	89 f8                	mov    %edi,%eax
    54eb:	89 75 f8             	mov    %esi,-0x8(%rbp)
    54ee:	66 89 45 fc          	mov    %ax,-0x4(%rbp)
    54f2:	66 83 7d fc 00       	cmpw   $0x0,-0x4(%rbp)
    54f7:	78 2b                	js     5524 <safe_lshift_func_int16_t_s_u+0x43>
    54f9:	83 7d f8 1f          	cmpl   $0x1f,-0x8(%rbp)
    54fd:	77 25                	ja     5524 <safe_lshift_func_int16_t_s_u+0x43>
    54ff:	0f bf 55 fc          	movswl -0x4(%rbp),%edx
    5503:	8b 45 f8             	mov    -0x8(%rbp),%eax
    5506:	be ff 7f 00 00       	mov    $0x7fff,%esi
    550b:	89 c1                	mov    %eax,%ecx
    550d:	d3 fe                	sar    %cl,%esi
    550f:	89 f0                	mov    %esi,%eax
    5511:	39 c2                	cmp    %eax,%edx
    5513:	7f 0f                	jg     5524 <safe_lshift_func_int16_t_s_u+0x43>
    5515:	0f bf 55 fc          	movswl -0x4(%rbp),%edx
    5519:	8b 45 f8             	mov    -0x8(%rbp),%eax
    551c:	89 c1                	mov    %eax,%ecx
    551e:	d3 e2                	shl    %cl,%edx
    5520:	89 d0                	mov    %edx,%eax
    5522:	eb 04                	jmp    5528 <safe_lshift_func_int16_t_s_u+0x47>
    5524:	0f b7 45 fc          	movzwl -0x4(%rbp),%eax
    5528:	5d                   	pop    %rbp
    5529:	c3                   	retq   

000000000000552a <safe_rshift_func_int16_t_s_s>:
    552a:	f3 0f 1e fa          	endbr64 
    552e:	55                   	push   %rbp
    552f:	48 89 e5             	mov    %rsp,%rbp
    5532:	89 f8                	mov    %edi,%eax
    5534:	89 75 f8             	mov    %esi,-0x8(%rbp)
    5537:	66 89 45 fc          	mov    %ax,-0x4(%rbp)
    553b:	66 83 7d fc 00       	cmpw   $0x0,-0x4(%rbp)
    5540:	78 1b                	js     555d <safe_rshift_func_int16_t_s_s+0x33>
    5542:	83 7d f8 00          	cmpl   $0x0,-0x8(%rbp)
    5546:	78 15                	js     555d <safe_rshift_func_int16_t_s_s+0x33>
    5548:	83 7d f8 1f          	cmpl   $0x1f,-0x8(%rbp)
    554c:	7f 0f                	jg     555d <safe_rshift_func_int16_t_s_s+0x33>
    554e:	0f bf 55 fc          	movswl -0x4(%rbp),%edx
    5552:	8b 45 f8             	mov    -0x8(%rbp),%eax
    5555:	89 c1                	mov    %eax,%ecx
    5557:	d3 fa                	sar    %cl,%edx
    5559:	89 d0                	mov    %edx,%eax
    555b:	eb 04                	jmp    5561 <safe_rshift_func_int16_t_s_s+0x37>
    555d:	0f b7 45 fc          	movzwl -0x4(%rbp),%eax
    5561:	5d                   	pop    %rbp
    5562:	c3                   	retq   

0000000000005563 <safe_rshift_func_int16_t_s_u>:
    5563:	f3 0f 1e fa          	endbr64 
    5567:	55                   	push   %rbp
    5568:	48 89 e5             	mov    %rsp,%rbp
    556b:	89 f8                	mov    %edi,%eax
    556d:	89 75 f8             	mov    %esi,-0x8(%rbp)
    5570:	66 89 45 fc          	mov    %ax,-0x4(%rbp)
    5574:	66 83 7d fc 00       	cmpw   $0x0,-0x4(%rbp)
    5579:	78 15                	js     5590 <safe_rshift_func_int16_t_s_u+0x2d>
    557b:	83 7d f8 1f          	cmpl   $0x1f,-0x8(%rbp)
    557f:	77 0f                	ja     5590 <safe_rshift_func_int16_t_s_u+0x2d>
    5581:	0f bf 55 fc          	movswl -0x4(%rbp),%edx
    5585:	8b 45 f8             	mov    -0x8(%rbp),%eax
    5588:	89 c1                	mov    %eax,%ecx
    558a:	d3 fa                	sar    %cl,%edx
    558c:	89 d0                	mov    %edx,%eax
    558e:	eb 04                	jmp    5594 <safe_rshift_func_int16_t_s_u+0x31>
    5590:	0f b7 45 fc          	movzwl -0x4(%rbp),%eax
    5594:	5d                   	pop    %rbp
    5595:	c3                   	retq   

0000000000005596 <safe_unary_minus_func_int32_t_s>:
    5596:	f3 0f 1e fa          	endbr64 
    559a:	55                   	push   %rbp
    559b:	48 89 e5             	mov    %rsp,%rbp
    559e:	89 7d fc             	mov    %edi,-0x4(%rbp)
    55a1:	81 7d fc 00 00 00 80 	cmpl   $0x80000000,-0x4(%rbp)
    55a8:	74 07                	je     55b1 <safe_unary_minus_func_int32_t_s+0x1b>
    55aa:	8b 45 fc             	mov    -0x4(%rbp),%eax
    55ad:	f7 d8                	neg    %eax
    55af:	eb 03                	jmp    55b4 <safe_unary_minus_func_int32_t_s+0x1e>
    55b1:	8b 45 fc             	mov    -0x4(%rbp),%eax
    55b4:	5d                   	pop    %rbp
    55b5:	c3                   	retq   

00000000000055b6 <safe_add_func_int32_t_s_s>:
    55b6:	f3 0f 1e fa          	endbr64 
    55ba:	55                   	push   %rbp
    55bb:	48 89 e5             	mov    %rsp,%rbp
    55be:	89 7d fc             	mov    %edi,-0x4(%rbp)
    55c1:	89 75 f8             	mov    %esi,-0x8(%rbp)
    55c4:	83 7d fc 00          	cmpl   $0x0,-0x4(%rbp)
    55c8:	7e 13                	jle    55dd <safe_add_func_int32_t_s_s+0x27>
    55ca:	83 7d f8 00          	cmpl   $0x0,-0x8(%rbp)
    55ce:	7e 0d                	jle    55dd <safe_add_func_int32_t_s_s+0x27>
    55d0:	b8 ff ff ff 7f       	mov    $0x7fffffff,%eax
    55d5:	2b 45 f8             	sub    -0x8(%rbp),%eax
    55d8:	39 45 fc             	cmp    %eax,-0x4(%rbp)
    55db:	7f 23                	jg     5600 <safe_add_func_int32_t_s_s+0x4a>
    55dd:	83 7d fc 00          	cmpl   $0x0,-0x4(%rbp)
    55e1:	79 13                	jns    55f6 <safe_add_func_int32_t_s_s+0x40>
    55e3:	83 7d f8 00          	cmpl   $0x0,-0x8(%rbp)
    55e7:	79 0d                	jns    55f6 <safe_add_func_int32_t_s_s+0x40>
    55e9:	b8 00 00 00 80       	mov    $0x80000000,%eax
    55ee:	2b 45 f8             	sub    -0x8(%rbp),%eax
    55f1:	39 45 fc             	cmp    %eax,-0x4(%rbp)
    55f4:	7c 0a                	jl     5600 <safe_add_func_int32_t_s_s+0x4a>
    55f6:	8b 55 fc             	mov    -0x4(%rbp),%edx
    55f9:	8b 45 f8             	mov    -0x8(%rbp),%eax
    55fc:	01 d0                	add    %edx,%eax
    55fe:	eb 03                	jmp    5603 <safe_add_func_int32_t_s_s+0x4d>
    5600:	8b 45 fc             	mov    -0x4(%rbp),%eax
    5603:	5d                   	pop    %rbp
    5604:	c3                   	retq   

0000000000005605 <safe_sub_func_int32_t_s_s>:
    5605:	f3 0f 1e fa          	endbr64 
    5609:	55                   	push   %rbp
    560a:	48 89 e5             	mov    %rsp,%rbp
    560d:	89 7d fc             	mov    %edi,-0x4(%rbp)
    5610:	89 75 f8             	mov    %esi,-0x8(%rbp)
    5613:	8b 45 fc             	mov    -0x4(%rbp),%eax
    5616:	33 45 f8             	xor    -0x8(%rbp),%eax
    5619:	89 c2                	mov    %eax,%edx
    561b:	8b 45 fc             	mov    -0x4(%rbp),%eax
    561e:	33 45 f8             	xor    -0x8(%rbp),%eax
    5621:	25 00 00 00 80       	and    $0x80000000,%eax
    5626:	33 45 fc             	xor    -0x4(%rbp),%eax
    5629:	2b 45 f8             	sub    -0x8(%rbp),%eax
    562c:	33 45 f8             	xor    -0x8(%rbp),%eax
    562f:	21 d0                	and    %edx,%eax
    5631:	85 c0                	test   %eax,%eax
    5633:	78 08                	js     563d <safe_sub_func_int32_t_s_s+0x38>
    5635:	8b 45 fc             	mov    -0x4(%rbp),%eax
    5638:	2b 45 f8             	sub    -0x8(%rbp),%eax
    563b:	eb 03                	jmp    5640 <safe_sub_func_int32_t_s_s+0x3b>
    563d:	8b 45 fc             	mov    -0x4(%rbp),%eax
    5640:	5d                   	pop    %rbp
    5641:	c3                   	retq   

0000000000005642 <safe_mul_func_int32_t_s_s>:
    5642:	f3 0f 1e fa          	endbr64 
    5646:	55                   	push   %rbp
    5647:	48 89 e5             	mov    %rsp,%rbp
    564a:	89 7d fc             	mov    %edi,-0x4(%rbp)
    564d:	89 75 f8             	mov    %esi,-0x8(%rbp)
    5650:	83 7d fc 00          	cmpl   $0x0,-0x4(%rbp)
    5654:	7e 14                	jle    566a <safe_mul_func_int32_t_s_s+0x28>
    5656:	83 7d f8 00          	cmpl   $0x0,-0x8(%rbp)
    565a:	7e 0e                	jle    566a <safe_mul_func_int32_t_s_s+0x28>
    565c:	b8 ff ff ff 7f       	mov    $0x7fffffff,%eax
    5661:	99                   	cltd   
    5662:	f7 7d f8             	idivl  -0x8(%rbp)
    5665:	39 45 fc             	cmp    %eax,-0x4(%rbp)
    5668:	7f 5d                	jg     56c7 <safe_mul_func_int32_t_s_s+0x85>
    566a:	83 7d fc 00          	cmpl   $0x0,-0x4(%rbp)
    566e:	7e 14                	jle    5684 <safe_mul_func_int32_t_s_s+0x42>
    5670:	83 7d f8 00          	cmpl   $0x0,-0x8(%rbp)
    5674:	7f 0e                	jg     5684 <safe_mul_func_int32_t_s_s+0x42>
    5676:	b8 00 00 00 80       	mov    $0x80000000,%eax
    567b:	99                   	cltd   
    567c:	f7 7d fc             	idivl  -0x4(%rbp)
    567f:	39 45 f8             	cmp    %eax,-0x8(%rbp)
    5682:	7c 43                	jl     56c7 <safe_mul_func_int32_t_s_s+0x85>
    5684:	83 7d fc 00          	cmpl   $0x0,-0x4(%rbp)
    5688:	7f 14                	jg     569e <safe_mul_func_int32_t_s_s+0x5c>
    568a:	83 7d f8 00          	cmpl   $0x0,-0x8(%rbp)
    568e:	7e 0e                	jle    569e <safe_mul_func_int32_t_s_s+0x5c>
    5690:	b8 00 00 00 80       	mov    $0x80000000,%eax
    5695:	99                   	cltd   
    5696:	f7 7d f8             	idivl  -0x8(%rbp)
    5699:	39 45 fc             	cmp    %eax,-0x4(%rbp)
    569c:	7c 29                	jl     56c7 <safe_mul_func_int32_t_s_s+0x85>
    569e:	83 7d fc 00          	cmpl   $0x0,-0x4(%rbp)
    56a2:	7f 1a                	jg     56be <safe_mul_func_int32_t_s_s+0x7c>
    56a4:	83 7d f8 00          	cmpl   $0x0,-0x8(%rbp)
    56a8:	7f 14                	jg     56be <safe_mul_func_int32_t_s_s+0x7c>
    56aa:	83 7d fc 00          	cmpl   $0x0,-0x4(%rbp)
    56ae:	74 0e                	je     56be <safe_mul_func_int32_t_s_s+0x7c>
    56b0:	b8 ff ff ff 7f       	mov    $0x7fffffff,%eax
    56b5:	99                   	cltd   
    56b6:	f7 7d fc             	idivl  -0x4(%rbp)
    56b9:	39 45 f8             	cmp    %eax,-0x8(%rbp)
    56bc:	7c 09                	jl     56c7 <safe_mul_func_int32_t_s_s+0x85>
    56be:	8b 45 fc             	mov    -0x4(%rbp),%eax
    56c1:	0f af 45 f8          	imul   -0x8(%rbp),%eax
    56c5:	eb 03                	jmp    56ca <safe_mul_func_int32_t_s_s+0x88>
    56c7:	8b 45 fc             	mov    -0x4(%rbp),%eax
    56ca:	5d                   	pop    %rbp
    56cb:	c3                   	retq   

00000000000056cc <safe_mod_func_int32_t_s_s>:
    56cc:	f3 0f 1e fa          	endbr64 
    56d0:	55                   	push   %rbp
    56d1:	48 89 e5             	mov    %rsp,%rbp
    56d4:	89 7d fc             	mov    %edi,-0x4(%rbp)
    56d7:	89 75 f8             	mov    %esi,-0x8(%rbp)
    56da:	83 7d f8 00          	cmpl   $0x0,-0x8(%rbp)
    56de:	74 1a                	je     56fa <safe_mod_func_int32_t_s_s+0x2e>
    56e0:	81 7d fc 00 00 00 80 	cmpl   $0x80000000,-0x4(%rbp)
    56e7:	75 06                	jne    56ef <safe_mod_func_int32_t_s_s+0x23>
    56e9:	83 7d f8 ff          	cmpl   $0xffffffff,-0x8(%rbp)
    56ed:	74 0b                	je     56fa <safe_mod_func_int32_t_s_s+0x2e>
    56ef:	8b 45 fc             	mov    -0x4(%rbp),%eax
    56f2:	99                   	cltd   
    56f3:	f7 7d f8             	idivl  -0x8(%rbp)
    56f6:	89 d0                	mov    %edx,%eax
    56f8:	eb 03                	jmp    56fd <safe_mod_func_int32_t_s_s+0x31>
    56fa:	8b 45 fc             	mov    -0x4(%rbp),%eax
    56fd:	5d                   	pop    %rbp
    56fe:	c3                   	retq   

00000000000056ff <safe_div_func_int32_t_s_s>:
    56ff:	f3 0f 1e fa          	endbr64 
    5703:	55                   	push   %rbp
    5704:	48 89 e5             	mov    %rsp,%rbp
    5707:	89 7d fc             	mov    %edi,-0x4(%rbp)
    570a:	89 75 f8             	mov    %esi,-0x8(%rbp)
    570d:	83 7d f8 00          	cmpl   $0x0,-0x8(%rbp)
    5711:	74 18                	je     572b <safe_div_func_int32_t_s_s+0x2c>
    5713:	81 7d fc 00 00 00 80 	cmpl   $0x80000000,-0x4(%rbp)
    571a:	75 06                	jne    5722 <safe_div_func_int32_t_s_s+0x23>
    571c:	83 7d f8 ff          	cmpl   $0xffffffff,-0x8(%rbp)
    5720:	74 09                	je     572b <safe_div_func_int32_t_s_s+0x2c>
    5722:	8b 45 fc             	mov    -0x4(%rbp),%eax
    5725:	99                   	cltd   
    5726:	f7 7d f8             	idivl  -0x8(%rbp)
    5729:	eb 03                	jmp    572e <safe_div_func_int32_t_s_s+0x2f>
    572b:	8b 45 fc             	mov    -0x4(%rbp),%eax
    572e:	5d                   	pop    %rbp
    572f:	c3                   	retq   

0000000000005730 <safe_lshift_func_int32_t_s_s>:
    5730:	f3 0f 1e fa          	endbr64 
    5734:	55                   	push   %rbp
    5735:	48 89 e5             	mov    %rsp,%rbp
    5738:	89 7d fc             	mov    %edi,-0x4(%rbp)
    573b:	89 75 f8             	mov    %esi,-0x8(%rbp)
    573e:	83 7d fc 00          	cmpl   $0x0,-0x4(%rbp)
    5742:	78 2d                	js     5771 <safe_lshift_func_int32_t_s_s+0x41>
    5744:	83 7d f8 00          	cmpl   $0x0,-0x8(%rbp)
    5748:	78 27                	js     5771 <safe_lshift_func_int32_t_s_s+0x41>
    574a:	83 7d f8 1f          	cmpl   $0x1f,-0x8(%rbp)
    574e:	7f 21                	jg     5771 <safe_lshift_func_int32_t_s_s+0x41>
    5750:	8b 45 f8             	mov    -0x8(%rbp),%eax
    5753:	ba ff ff ff 7f       	mov    $0x7fffffff,%edx
    5758:	89 c1                	mov    %eax,%ecx
    575a:	d3 fa                	sar    %cl,%edx
    575c:	89 d0                	mov    %edx,%eax
    575e:	39 45 fc             	cmp    %eax,-0x4(%rbp)
    5761:	7f 0e                	jg     5771 <safe_lshift_func_int32_t_s_s+0x41>
    5763:	8b 45 f8             	mov    -0x8(%rbp),%eax
    5766:	8b 55 fc             	mov    -0x4(%rbp),%edx
    5769:	89 c1                	mov    %eax,%ecx
    576b:	d3 e2                	shl    %cl,%edx
    576d:	89 d0                	mov    %edx,%eax
    576f:	eb 03                	jmp    5774 <safe_lshift_func_int32_t_s_s+0x44>
    5771:	8b 45 fc             	mov    -0x4(%rbp),%eax
    5774:	5d                   	pop    %rbp
    5775:	c3                   	retq   

0000000000005776 <safe_lshift_func_int32_t_s_u>:
    5776:	f3 0f 1e fa          	endbr64 
    577a:	55                   	push   %rbp
    577b:	48 89 e5             	mov    %rsp,%rbp
    577e:	89 7d fc             	mov    %edi,-0x4(%rbp)
    5781:	89 75 f8             	mov    %esi,-0x8(%rbp)
    5784:	83 7d fc 00          	cmpl   $0x0,-0x4(%rbp)
    5788:	78 27                	js     57b1 <safe_lshift_func_int32_t_s_u+0x3b>
    578a:	83 7d f8 1f          	cmpl   $0x1f,-0x8(%rbp)
    578e:	77 21                	ja     57b1 <safe_lshift_func_int32_t_s_u+0x3b>
    5790:	8b 45 f8             	mov    -0x8(%rbp),%eax
    5793:	ba ff ff ff 7f       	mov    $0x7fffffff,%edx
    5798:	89 c1                	mov    %eax,%ecx
    579a:	d3 fa                	sar    %cl,%edx
    579c:	89 d0                	mov    %edx,%eax
    579e:	39 45 fc             	cmp    %eax,-0x4(%rbp)
    57a1:	7f 0e                	jg     57b1 <safe_lshift_func_int32_t_s_u+0x3b>
    57a3:	8b 45 f8             	mov    -0x8(%rbp),%eax
    57a6:	8b 55 fc             	mov    -0x4(%rbp),%edx
    57a9:	89 c1                	mov    %eax,%ecx
    57ab:	d3 e2                	shl    %cl,%edx
    57ad:	89 d0                	mov    %edx,%eax
    57af:	eb 03                	jmp    57b4 <safe_lshift_func_int32_t_s_u+0x3e>
    57b1:	8b 45 fc             	mov    -0x4(%rbp),%eax
    57b4:	5d                   	pop    %rbp
    57b5:	c3                   	retq   

00000000000057b6 <safe_rshift_func_int32_t_s_s>:
    57b6:	f3 0f 1e fa          	endbr64 
    57ba:	55                   	push   %rbp
    57bb:	48 89 e5             	mov    %rsp,%rbp
    57be:	89 7d fc             	mov    %edi,-0x4(%rbp)
    57c1:	89 75 f8             	mov    %esi,-0x8(%rbp)
    57c4:	83 7d fc 00          	cmpl   $0x0,-0x4(%rbp)
    57c8:	78 1a                	js     57e4 <safe_rshift_func_int32_t_s_s+0x2e>
    57ca:	83 7d f8 00          	cmpl   $0x0,-0x8(%rbp)
    57ce:	78 14                	js     57e4 <safe_rshift_func_int32_t_s_s+0x2e>
    57d0:	83 7d f8 1f          	cmpl   $0x1f,-0x8(%rbp)
    57d4:	7f 0e                	jg     57e4 <safe_rshift_func_int32_t_s_s+0x2e>
    57d6:	8b 45 f8             	mov    -0x8(%rbp),%eax
    57d9:	8b 55 fc             	mov    -0x4(%rbp),%edx
    57dc:	89 c1                	mov    %eax,%ecx
    57de:	d3 fa                	sar    %cl,%edx
    57e0:	89 d0                	mov    %edx,%eax
    57e2:	eb 03                	jmp    57e7 <safe_rshift_func_int32_t_s_s+0x31>
    57e4:	8b 45 fc             	mov    -0x4(%rbp),%eax
    57e7:	5d                   	pop    %rbp
    57e8:	c3                   	retq   

00000000000057e9 <safe_rshift_func_int32_t_s_u>:
    57e9:	f3 0f 1e fa          	endbr64 
    57ed:	55                   	push   %rbp
    57ee:	48 89 e5             	mov    %rsp,%rbp
    57f1:	89 7d fc             	mov    %edi,-0x4(%rbp)
    57f4:	89 75 f8             	mov    %esi,-0x8(%rbp)
    57f7:	83 7d fc 00          	cmpl   $0x0,-0x4(%rbp)
    57fb:	78 14                	js     5811 <safe_rshift_func_int32_t_s_u+0x28>
    57fd:	83 7d f8 1f          	cmpl   $0x1f,-0x8(%rbp)
    5801:	77 0e                	ja     5811 <safe_rshift_func_int32_t_s_u+0x28>
    5803:	8b 45 f8             	mov    -0x8(%rbp),%eax
    5806:	8b 55 fc             	mov    -0x4(%rbp),%edx
    5809:	89 c1                	mov    %eax,%ecx
    580b:	d3 fa                	sar    %cl,%edx
    580d:	89 d0                	mov    %edx,%eax
    580f:	eb 03                	jmp    5814 <safe_rshift_func_int32_t_s_u+0x2b>
    5811:	8b 45 fc             	mov    -0x4(%rbp),%eax
    5814:	5d                   	pop    %rbp
    5815:	c3                   	retq   

0000000000005816 <safe_unary_minus_func_int64_t_s>:
    5816:	f3 0f 1e fa          	endbr64 
    581a:	55                   	push   %rbp
    581b:	48 89 e5             	mov    %rsp,%rbp
    581e:	48 89 7d f8          	mov    %rdi,-0x8(%rbp)
    5822:	48 b8 00 00 00 00 00 	movabs $0x8000000000000000,%rax
    5829:	00 00 80 
    582c:	48 39 45 f8          	cmp    %rax,-0x8(%rbp)
    5830:	74 09                	je     583b <safe_unary_minus_func_int64_t_s+0x25>
    5832:	48 8b 45 f8          	mov    -0x8(%rbp),%rax
    5836:	48 f7 d8             	neg    %rax
    5839:	eb 04                	jmp    583f <safe_unary_minus_func_int64_t_s+0x29>
    583b:	48 8b 45 f8          	mov    -0x8(%rbp),%rax
    583f:	5d                   	pop    %rbp
    5840:	c3                   	retq   

0000000000005841 <safe_add_func_int64_t_s_s>:
    5841:	f3 0f 1e fa          	endbr64 
    5845:	55                   	push   %rbp
    5846:	48 89 e5             	mov    %rsp,%rbp
    5849:	48 89 7d f8          	mov    %rdi,-0x8(%rbp)
    584d:	48 89 75 f0          	mov    %rsi,-0x10(%rbp)
    5851:	48 83 7d f8 00       	cmpq   $0x0,-0x8(%rbp)
    5856:	7e 1b                	jle    5873 <safe_add_func_int64_t_s_s+0x32>
    5858:	48 83 7d f0 00       	cmpq   $0x0,-0x10(%rbp)
    585d:	7e 14                	jle    5873 <safe_add_func_int64_t_s_s+0x32>
    585f:	48 b8 ff ff ff ff ff 	movabs $0x7fffffffffffffff,%rax
    5866:	ff ff 7f 
    5869:	48 2b 45 f0          	sub    -0x10(%rbp),%rax
    586d:	48 39 45 f8          	cmp    %rax,-0x8(%rbp)
    5871:	7f 2f                	jg     58a2 <safe_add_func_int64_t_s_s+0x61>
    5873:	48 83 7d f8 00       	cmpq   $0x0,-0x8(%rbp)
    5878:	79 1b                	jns    5895 <safe_add_func_int64_t_s_s+0x54>
    587a:	48 83 7d f0 00       	cmpq   $0x0,-0x10(%rbp)
    587f:	79 14                	jns    5895 <safe_add_func_int64_t_s_s+0x54>
    5881:	48 b8 00 00 00 00 00 	movabs $0x8000000000000000,%rax
    5888:	00 00 80 
    588b:	48 2b 45 f0          	sub    -0x10(%rbp),%rax
    588f:	48 39 45 f8          	cmp    %rax,-0x8(%rbp)
    5893:	7c 0d                	jl     58a2 <safe_add_func_int64_t_s_s+0x61>
    5895:	48 8b 55 f8          	mov    -0x8(%rbp),%rdx
    5899:	48 8b 45 f0          	mov    -0x10(%rbp),%rax
    589d:	48 01 d0             	add    %rdx,%rax
    58a0:	eb 04                	jmp    58a6 <safe_add_func_int64_t_s_s+0x65>
    58a2:	48 8b 45 f8          	mov    -0x8(%rbp),%rax
    58a6:	5d                   	pop    %rbp
    58a7:	c3                   	retq   

00000000000058a8 <safe_sub_func_int64_t_s_s>:
    58a8:	f3 0f 1e fa          	endbr64 
    58ac:	55                   	push   %rbp
    58ad:	48 89 e5             	mov    %rsp,%rbp
    58b0:	48 89 7d f8          	mov    %rdi,-0x8(%rbp)
    58b4:	48 89 75 f0          	mov    %rsi,-0x10(%rbp)
    58b8:	48 8b 45 f8          	mov    -0x8(%rbp),%rax
    58bc:	48 33 45 f0          	xor    -0x10(%rbp),%rax
    58c0:	48 89 c2             	mov    %rax,%rdx
    58c3:	48 8b 45 f8          	mov    -0x8(%rbp),%rax
    58c7:	48 33 45 f0          	xor    -0x10(%rbp),%rax
    58cb:	48 b9 00 00 00 00 00 	movabs $0x8000000000000000,%rcx
    58d2:	00 00 80 
    58d5:	48 21 c8             	and    %rcx,%rax
    58d8:	48 33 45 f8          	xor    -0x8(%rbp),%rax
    58dc:	48 2b 45 f0          	sub    -0x10(%rbp),%rax
    58e0:	48 33 45 f0          	xor    -0x10(%rbp),%rax
    58e4:	48 21 d0             	and    %rdx,%rax
    58e7:	48 85 c0             	test   %rax,%rax
    58ea:	78 0a                	js     58f6 <safe_sub_func_int64_t_s_s+0x4e>
    58ec:	48 8b 45 f8          	mov    -0x8(%rbp),%rax
    58f0:	48 2b 45 f0          	sub    -0x10(%rbp),%rax
    58f4:	eb 04                	jmp    58fa <safe_sub_func_int64_t_s_s+0x52>
    58f6:	48 8b 45 f8          	mov    -0x8(%rbp),%rax
    58fa:	5d                   	pop    %rbp
    58fb:	c3                   	retq   

00000000000058fc <safe_mul_func_int64_t_s_s>:
    58fc:	f3 0f 1e fa          	endbr64 
    5900:	55                   	push   %rbp
    5901:	48 89 e5             	mov    %rsp,%rbp
    5904:	48 89 7d f8          	mov    %rdi,-0x8(%rbp)
    5908:	48 89 75 f0          	mov    %rsi,-0x10(%rbp)
    590c:	48 83 7d f8 00       	cmpq   $0x0,-0x8(%rbp)
    5911:	7e 1d                	jle    5930 <safe_mul_func_int64_t_s_s+0x34>
    5913:	48 83 7d f0 00       	cmpq   $0x0,-0x10(%rbp)
    5918:	7e 16                	jle    5930 <safe_mul_func_int64_t_s_s+0x34>
    591a:	48 b8 ff ff ff ff ff 	movabs $0x7fffffffffffffff,%rax
    5921:	ff ff 7f 
    5924:	48 99                	cqto   
    5926:	48 f7 7d f0          	idivq  -0x10(%rbp)
    592a:	48 39 45 f8          	cmp    %rax,-0x8(%rbp)
    592e:	7f 7e                	jg     59ae <safe_mul_func_int64_t_s_s+0xb2>
    5930:	48 83 7d f8 00       	cmpq   $0x0,-0x8(%rbp)
    5935:	7e 1d                	jle    5954 <safe_mul_func_int64_t_s_s+0x58>
    5937:	48 83 7d f0 00       	cmpq   $0x0,-0x10(%rbp)
    593c:	7f 16                	jg     5954 <safe_mul_func_int64_t_s_s+0x58>
    593e:	48 b8 00 00 00 00 00 	movabs $0x8000000000000000,%rax
    5945:	00 00 80 
    5948:	48 99                	cqto   
    594a:	48 f7 7d f8          	idivq  -0x8(%rbp)
    594e:	48 39 45 f0          	cmp    %rax,-0x10(%rbp)
    5952:	7c 5a                	jl     59ae <safe_mul_func_int64_t_s_s+0xb2>
    5954:	48 83 7d f8 00       	cmpq   $0x0,-0x8(%rbp)
    5959:	7f 1d                	jg     5978 <safe_mul_func_int64_t_s_s+0x7c>
    595b:	48 83 7d f0 00       	cmpq   $0x0,-0x10(%rbp)
    5960:	7e 16                	jle    5978 <safe_mul_func_int64_t_s_s+0x7c>
    5962:	48 b8 00 00 00 00 00 	movabs $0x8000000000000000,%rax
    5969:	00 00 80 
    596c:	48 99                	cqto   
    596e:	48 f7 7d f0          	idivq  -0x10(%rbp)
    5972:	48 39 45 f8          	cmp    %rax,-0x8(%rbp)
    5976:	7c 36                	jl     59ae <safe_mul_func_int64_t_s_s+0xb2>
    5978:	48 83 7d f8 00       	cmpq   $0x0,-0x8(%rbp)
    597d:	7f 24                	jg     59a3 <safe_mul_func_int64_t_s_s+0xa7>
    597f:	48 83 7d f0 00       	cmpq   $0x0,-0x10(%rbp)
    5984:	7f 1d                	jg     59a3 <safe_mul_func_int64_t_s_s+0xa7>
    5986:	48 83 7d f8 00       	cmpq   $0x0,-0x8(%rbp)
    598b:	74 16                	je     59a3 <safe_mul_func_int64_t_s_s+0xa7>
    598d:	48 b8 ff ff ff ff ff 	movabs $0x7fffffffffffffff,%rax
    5994:	ff ff 7f 
    5997:	48 99                	cqto   
    5999:	48 f7 7d f8          	idivq  -0x8(%rbp)
    599d:	48 39 45 f0          	cmp    %rax,-0x10(%rbp)
    59a1:	7c 0b                	jl     59ae <safe_mul_func_int64_t_s_s+0xb2>
    59a3:	48 8b 45 f8          	mov    -0x8(%rbp),%rax
    59a7:	48 0f af 45 f0       	imul   -0x10(%rbp),%rax
    59ac:	eb 04                	jmp    59b2 <safe_mul_func_int64_t_s_s+0xb6>
    59ae:	48 8b 45 f8          	mov    -0x8(%rbp),%rax
    59b2:	5d                   	pop    %rbp
    59b3:	c3                   	retq   

00000000000059b4 <safe_mod_func_int64_t_s_s>:
    59b4:	f3 0f 1e fa          	endbr64 
    59b8:	55                   	push   %rbp
    59b9:	48 89 e5             	mov    %rsp,%rbp
    59bc:	48 89 7d f8          	mov    %rdi,-0x8(%rbp)
    59c0:	48 89 75 f0          	mov    %rsi,-0x10(%rbp)
    59c4:	48 83 7d f0 00       	cmpq   $0x0,-0x10(%rbp)
    59c9:	74 26                	je     59f1 <safe_mod_func_int64_t_s_s+0x3d>
    59cb:	48 b8 00 00 00 00 00 	movabs $0x8000000000000000,%rax
    59d2:	00 00 80 
    59d5:	48 39 45 f8          	cmp    %rax,-0x8(%rbp)
    59d9:	75 07                	jne    59e2 <safe_mod_func_int64_t_s_s+0x2e>
    59db:	48 83 7d f0 ff       	cmpq   $0xffffffffffffffff,-0x10(%rbp)
    59e0:	74 0f                	je     59f1 <safe_mod_func_int64_t_s_s+0x3d>
    59e2:	48 8b 45 f8          	mov    -0x8(%rbp),%rax
    59e6:	48 99                	cqto   
    59e8:	48 f7 7d f0          	idivq  -0x10(%rbp)
    59ec:	48 89 d0             	mov    %rdx,%rax
    59ef:	eb 04                	jmp    59f5 <safe_mod_func_int64_t_s_s+0x41>
    59f1:	48 8b 45 f8          	mov    -0x8(%rbp),%rax
    59f5:	5d                   	pop    %rbp
    59f6:	c3                   	retq   

00000000000059f7 <safe_div_func_int64_t_s_s>:
    59f7:	f3 0f 1e fa          	endbr64 
    59fb:	55                   	push   %rbp
    59fc:	48 89 e5             	mov    %rsp,%rbp
    59ff:	48 89 7d f8          	mov    %rdi,-0x8(%rbp)
    5a03:	48 89 75 f0          	mov    %rsi,-0x10(%rbp)
    5a07:	48 83 7d f0 00       	cmpq   $0x0,-0x10(%rbp)
    5a0c:	74 23                	je     5a31 <safe_div_func_int64_t_s_s+0x3a>
    5a0e:	48 b8 00 00 00 00 00 	movabs $0x8000000000000000,%rax
    5a15:	00 00 80 
    5a18:	48 39 45 f8          	cmp    %rax,-0x8(%rbp)
    5a1c:	75 07                	jne    5a25 <safe_div_func_int64_t_s_s+0x2e>
    5a1e:	48 83 7d f0 ff       	cmpq   $0xffffffffffffffff,-0x10(%rbp)
    5a23:	74 0c                	je     5a31 <safe_div_func_int64_t_s_s+0x3a>
    5a25:	48 8b 45 f8          	mov    -0x8(%rbp),%rax
    5a29:	48 99                	cqto   
    5a2b:	48 f7 7d f0          	idivq  -0x10(%rbp)
    5a2f:	eb 04                	jmp    5a35 <safe_div_func_int64_t_s_s+0x3e>
    5a31:	48 8b 45 f8          	mov    -0x8(%rbp),%rax
    5a35:	5d                   	pop    %rbp
    5a36:	c3                   	retq   

0000000000005a37 <safe_lshift_func_int64_t_s_s>:
    5a37:	f3 0f 1e fa          	endbr64 
    5a3b:	55                   	push   %rbp
    5a3c:	48 89 e5             	mov    %rsp,%rbp
    5a3f:	48 89 7d f8          	mov    %rdi,-0x8(%rbp)
    5a43:	89 75 f4             	mov    %esi,-0xc(%rbp)
    5a46:	48 83 7d f8 00       	cmpq   $0x0,-0x8(%rbp)
    5a4b:	78 38                	js     5a85 <safe_lshift_func_int64_t_s_s+0x4e>
    5a4d:	83 7d f4 00          	cmpl   $0x0,-0xc(%rbp)
    5a51:	78 32                	js     5a85 <safe_lshift_func_int64_t_s_s+0x4e>
    5a53:	83 7d f4 1f          	cmpl   $0x1f,-0xc(%rbp)
    5a57:	7f 2c                	jg     5a85 <safe_lshift_func_int64_t_s_s+0x4e>
    5a59:	8b 45 f4             	mov    -0xc(%rbp),%eax
    5a5c:	48 ba ff ff ff ff ff 	movabs $0x7fffffffffffffff,%rdx
    5a63:	ff ff 7f 
    5a66:	89 c1                	mov    %eax,%ecx
    5a68:	48 d3 fa             	sar    %cl,%rdx
    5a6b:	48 89 d0             	mov    %rdx,%rax
    5a6e:	48 39 45 f8          	cmp    %rax,-0x8(%rbp)
    5a72:	7f 11                	jg     5a85 <safe_lshift_func_int64_t_s_s+0x4e>
    5a74:	8b 45 f4             	mov    -0xc(%rbp),%eax
    5a77:	48 8b 55 f8          	mov    -0x8(%rbp),%rdx
    5a7b:	89 c1                	mov    %eax,%ecx
    5a7d:	48 d3 e2             	shl    %cl,%rdx
    5a80:	48 89 d0             	mov    %rdx,%rax
    5a83:	eb 04                	jmp    5a89 <safe_lshift_func_int64_t_s_s+0x52>
    5a85:	48 8b 45 f8          	mov    -0x8(%rbp),%rax
    5a89:	5d                   	pop    %rbp
    5a8a:	c3                   	retq   

0000000000005a8b <safe_lshift_func_int64_t_s_u>:
    5a8b:	f3 0f 1e fa          	endbr64 
    5a8f:	55                   	push   %rbp
    5a90:	48 89 e5             	mov    %rsp,%rbp
    5a93:	48 89 7d f8          	mov    %rdi,-0x8(%rbp)
    5a97:	89 75 f4             	mov    %esi,-0xc(%rbp)
    5a9a:	48 83 7d f8 00       	cmpq   $0x0,-0x8(%rbp)
    5a9f:	78 32                	js     5ad3 <safe_lshift_func_int64_t_s_u+0x48>
    5aa1:	83 7d f4 1f          	cmpl   $0x1f,-0xc(%rbp)
    5aa5:	77 2c                	ja     5ad3 <safe_lshift_func_int64_t_s_u+0x48>
    5aa7:	8b 45 f4             	mov    -0xc(%rbp),%eax
    5aaa:	48 ba ff ff ff ff ff 	movabs $0x7fffffffffffffff,%rdx
    5ab1:	ff ff 7f 
    5ab4:	89 c1                	mov    %eax,%ecx
    5ab6:	48 d3 fa             	sar    %cl,%rdx
    5ab9:	48 89 d0             	mov    %rdx,%rax
    5abc:	48 39 45 f8          	cmp    %rax,-0x8(%rbp)
    5ac0:	7f 11                	jg     5ad3 <safe_lshift_func_int64_t_s_u+0x48>
    5ac2:	8b 45 f4             	mov    -0xc(%rbp),%eax
    5ac5:	48 8b 55 f8          	mov    -0x8(%rbp),%rdx
    5ac9:	89 c1                	mov    %eax,%ecx
    5acb:	48 d3 e2             	shl    %cl,%rdx
    5ace:	48 89 d0             	mov    %rdx,%rax
    5ad1:	eb 04                	jmp    5ad7 <safe_lshift_func_int64_t_s_u+0x4c>
    5ad3:	48 8b 45 f8          	mov    -0x8(%rbp),%rax
    5ad7:	5d                   	pop    %rbp
    5ad8:	c3                   	retq   

0000000000005ad9 <safe_rshift_func_int64_t_s_s>:
    5ad9:	f3 0f 1e fa          	endbr64 
    5add:	55                   	push   %rbp
    5ade:	48 89 e5             	mov    %rsp,%rbp
    5ae1:	48 89 7d f8          	mov    %rdi,-0x8(%rbp)
    5ae5:	89 75 f4             	mov    %esi,-0xc(%rbp)
    5ae8:	48 83 7d f8 00       	cmpq   $0x0,-0x8(%rbp)
    5aed:	78 1d                	js     5b0c <safe_rshift_func_int64_t_s_s+0x33>
    5aef:	83 7d f4 00          	cmpl   $0x0,-0xc(%rbp)
    5af3:	78 17                	js     5b0c <safe_rshift_func_int64_t_s_s+0x33>
    5af5:	83 7d f4 1f          	cmpl   $0x1f,-0xc(%rbp)
    5af9:	7f 11                	jg     5b0c <safe_rshift_func_int64_t_s_s+0x33>
    5afb:	8b 45 f4             	mov    -0xc(%rbp),%eax
    5afe:	48 8b 55 f8          	mov    -0x8(%rbp),%rdx
    5b02:	89 c1                	mov    %eax,%ecx
    5b04:	48 d3 fa             	sar    %cl,%rdx
    5b07:	48 89 d0             	mov    %rdx,%rax
    5b0a:	eb 04                	jmp    5b10 <safe_rshift_func_int64_t_s_s+0x37>
    5b0c:	48 8b 45 f8          	mov    -0x8(%rbp),%rax
    5b10:	5d                   	pop    %rbp
    5b11:	c3                   	retq   

0000000000005b12 <safe_rshift_func_int64_t_s_u>:
    5b12:	f3 0f 1e fa          	endbr64 
    5b16:	55                   	push   %rbp
    5b17:	48 89 e5             	mov    %rsp,%rbp
    5b1a:	48 89 7d f8          	mov    %rdi,-0x8(%rbp)
    5b1e:	89 75 f4             	mov    %esi,-0xc(%rbp)
    5b21:	48 83 7d f8 00       	cmpq   $0x0,-0x8(%rbp)
    5b26:	78 17                	js     5b3f <safe_rshift_func_int64_t_s_u+0x2d>
    5b28:	83 7d f4 1f          	cmpl   $0x1f,-0xc(%rbp)
    5b2c:	77 11                	ja     5b3f <safe_rshift_func_int64_t_s_u+0x2d>
    5b2e:	8b 45 f4             	mov    -0xc(%rbp),%eax
    5b31:	48 8b 55 f8          	mov    -0x8(%rbp),%rdx
    5b35:	89 c1                	mov    %eax,%ecx
    5b37:	48 d3 fa             	sar    %cl,%rdx
    5b3a:	48 89 d0             	mov    %rdx,%rax
    5b3d:	eb 04                	jmp    5b43 <safe_rshift_func_int64_t_s_u+0x31>
    5b3f:	48 8b 45 f8          	mov    -0x8(%rbp),%rax
    5b43:	5d                   	pop    %rbp
    5b44:	c3                   	retq   

0000000000005b45 <safe_unary_minus_func_uint8_t_u>:
    5b45:	f3 0f 1e fa          	endbr64 
    5b49:	55                   	push   %rbp
    5b4a:	48 89 e5             	mov    %rsp,%rbp
    5b4d:	89 f8                	mov    %edi,%eax
    5b4f:	88 45 fc             	mov    %al,-0x4(%rbp)
    5b52:	0f b6 45 fc          	movzbl -0x4(%rbp),%eax
    5b56:	f7 d8                	neg    %eax
    5b58:	5d                   	pop    %rbp
    5b59:	c3                   	retq   

0000000000005b5a <safe_add_func_uint8_t_u_u>:
    5b5a:	f3 0f 1e fa          	endbr64 
    5b5e:	55                   	push   %rbp
    5b5f:	48 89 e5             	mov    %rsp,%rbp
    5b62:	89 fa                	mov    %edi,%edx
    5b64:	89 f0                	mov    %esi,%eax
    5b66:	88 55 fc             	mov    %dl,-0x4(%rbp)
    5b69:	88 45 f8             	mov    %al,-0x8(%rbp)
    5b6c:	0f b6 55 fc          	movzbl -0x4(%rbp),%edx
    5b70:	0f b6 45 f8          	movzbl -0x8(%rbp),%eax
    5b74:	01 d0                	add    %edx,%eax
    5b76:	5d                   	pop    %rbp
    5b77:	c3                   	retq   

0000000000005b78 <safe_sub_func_uint8_t_u_u>:
    5b78:	f3 0f 1e fa          	endbr64 
    5b7c:	55                   	push   %rbp
    5b7d:	48 89 e5             	mov    %rsp,%rbp
    5b80:	89 fa                	mov    %edi,%edx
    5b82:	89 f0                	mov    %esi,%eax
    5b84:	88 55 fc             	mov    %dl,-0x4(%rbp)
    5b87:	88 45 f8             	mov    %al,-0x8(%rbp)
    5b8a:	0f b6 45 fc          	movzbl -0x4(%rbp),%eax
    5b8e:	2a 45 f8             	sub    -0x8(%rbp),%al
    5b91:	5d                   	pop    %rbp
    5b92:	c3                   	retq   

0000000000005b93 <safe_mul_func_uint8_t_u_u>:
    5b93:	f3 0f 1e fa          	endbr64 
    5b97:	55                   	push   %rbp
    5b98:	48 89 e5             	mov    %rsp,%rbp
    5b9b:	89 fa                	mov    %edi,%edx
    5b9d:	89 f0                	mov    %esi,%eax
    5b9f:	88 55 fc             	mov    %dl,-0x4(%rbp)
    5ba2:	88 45 f8             	mov    %al,-0x8(%rbp)
    5ba5:	0f b6 45 fc          	movzbl -0x4(%rbp),%eax
    5ba9:	f6 65 f8             	mulb   -0x8(%rbp)
    5bac:	5d                   	pop    %rbp
    5bad:	c3                   	retq   

0000000000005bae <safe_mod_func_uint8_t_u_u>:
    5bae:	f3 0f 1e fa          	endbr64 
    5bb2:	55                   	push   %rbp
    5bb3:	48 89 e5             	mov    %rsp,%rbp
    5bb6:	89 fa                	mov    %edi,%edx
    5bb8:	89 f0                	mov    %esi,%eax
    5bba:	88 55 fc             	mov    %dl,-0x4(%rbp)
    5bbd:	88 45 f8             	mov    %al,-0x8(%rbp)
    5bc0:	80 7d f8 00          	cmpb   $0x0,-0x8(%rbp)
    5bc4:	74 0f                	je     5bd5 <safe_mod_func_uint8_t_u_u+0x27>
    5bc6:	0f b6 45 fc          	movzbl -0x4(%rbp),%eax
    5bca:	0f b6 c0             	movzbl %al,%eax
    5bcd:	f6 75 f8             	divb   -0x8(%rbp)
    5bd0:	0f b6 c4             	movzbl %ah,%eax
    5bd3:	eb 04                	jmp    5bd9 <safe_mod_func_uint8_t_u_u+0x2b>
    5bd5:	0f b6 45 fc          	movzbl -0x4(%rbp),%eax
    5bd9:	5d                   	pop    %rbp
    5bda:	c3                   	retq   

0000000000005bdb <safe_div_func_uint8_t_u_u>:
    5bdb:	f3 0f 1e fa          	endbr64 
    5bdf:	55                   	push   %rbp
    5be0:	48 89 e5             	mov    %rsp,%rbp
    5be3:	89 fa                	mov    %edi,%edx
    5be5:	89 f0                	mov    %esi,%eax
    5be7:	88 55 fc             	mov    %dl,-0x4(%rbp)
    5bea:	88 45 f8             	mov    %al,-0x8(%rbp)
    5bed:	80 7d f8 00          	cmpb   $0x0,-0x8(%rbp)
    5bf1:	74 0c                	je     5bff <safe_div_func_uint8_t_u_u+0x24>
    5bf3:	0f b6 45 fc          	movzbl -0x4(%rbp),%eax
    5bf7:	0f b6 c0             	movzbl %al,%eax
    5bfa:	f6 75 f8             	divb   -0x8(%rbp)
    5bfd:	eb 04                	jmp    5c03 <safe_div_func_uint8_t_u_u+0x28>
    5bff:	0f b6 45 fc          	movzbl -0x4(%rbp),%eax
    5c03:	5d                   	pop    %rbp
    5c04:	c3                   	retq   

0000000000005c05 <safe_lshift_func_uint8_t_u_s>:
    5c05:	f3 0f 1e fa          	endbr64 
    5c09:	55                   	push   %rbp
    5c0a:	48 89 e5             	mov    %rsp,%rbp
    5c0d:	89 f8                	mov    %edi,%eax
    5c0f:	89 75 f8             	mov    %esi,-0x8(%rbp)
    5c12:	88 45 fc             	mov    %al,-0x4(%rbp)
    5c15:	83 7d f8 00          	cmpl   $0x0,-0x8(%rbp)
    5c19:	78 2b                	js     5c46 <safe_lshift_func_uint8_t_u_s+0x41>
    5c1b:	83 7d f8 1f          	cmpl   $0x1f,-0x8(%rbp)
    5c1f:	7f 25                	jg     5c46 <safe_lshift_func_uint8_t_u_s+0x41>
    5c21:	0f b6 55 fc          	movzbl -0x4(%rbp),%edx
    5c25:	8b 45 f8             	mov    -0x8(%rbp),%eax
    5c28:	be ff 00 00 00       	mov    $0xff,%esi
    5c2d:	89 c1                	mov    %eax,%ecx
    5c2f:	d3 fe                	sar    %cl,%esi
    5c31:	89 f0                	mov    %esi,%eax
    5c33:	39 c2                	cmp    %eax,%edx
    5c35:	7f 0f                	jg     5c46 <safe_lshift_func_uint8_t_u_s+0x41>
    5c37:	0f b6 55 fc          	movzbl -0x4(%rbp),%edx
    5c3b:	8b 45 f8             	mov    -0x8(%rbp),%eax
    5c3e:	89 c1                	mov    %eax,%ecx
    5c40:	d3 e2                	shl    %cl,%edx
    5c42:	89 d0                	mov    %edx,%eax
    5c44:	eb 04                	jmp    5c4a <safe_lshift_func_uint8_t_u_s+0x45>
    5c46:	0f b6 45 fc          	movzbl -0x4(%rbp),%eax
    5c4a:	5d                   	pop    %rbp
    5c4b:	c3                   	retq   

0000000000005c4c <safe_lshift_func_uint8_t_u_u>:
    5c4c:	f3 0f 1e fa          	endbr64 
    5c50:	55                   	push   %rbp
    5c51:	48 89 e5             	mov    %rsp,%rbp
    5c54:	89 f8                	mov    %edi,%eax
    5c56:	89 75 f8             	mov    %esi,-0x8(%rbp)
    5c59:	88 45 fc             	mov    %al,-0x4(%rbp)
    5c5c:	83 7d f8 1f          	cmpl   $0x1f,-0x8(%rbp)
    5c60:	77 25                	ja     5c87 <safe_lshift_func_uint8_t_u_u+0x3b>
    5c62:	0f b6 55 fc          	movzbl -0x4(%rbp),%edx
    5c66:	8b 45 f8             	mov    -0x8(%rbp),%eax
    5c69:	be ff 00 00 00       	mov    $0xff,%esi
    5c6e:	89 c1                	mov    %eax,%ecx
    5c70:	d3 fe                	sar    %cl,%esi
    5c72:	89 f0                	mov    %esi,%eax
    5c74:	39 c2                	cmp    %eax,%edx
    5c76:	7f 0f                	jg     5c87 <safe_lshift_func_uint8_t_u_u+0x3b>
    5c78:	0f b6 55 fc          	movzbl -0x4(%rbp),%edx
    5c7c:	8b 45 f8             	mov    -0x8(%rbp),%eax
    5c7f:	89 c1                	mov    %eax,%ecx
    5c81:	d3 e2                	shl    %cl,%edx
    5c83:	89 d0                	mov    %edx,%eax
    5c85:	eb 04                	jmp    5c8b <safe_lshift_func_uint8_t_u_u+0x3f>
    5c87:	0f b6 45 fc          	movzbl -0x4(%rbp),%eax
    5c8b:	5d                   	pop    %rbp
    5c8c:	c3                   	retq   

0000000000005c8d <safe_rshift_func_uint8_t_u_s>:
    5c8d:	f3 0f 1e fa          	endbr64 
    5c91:	55                   	push   %rbp
    5c92:	48 89 e5             	mov    %rsp,%rbp
    5c95:	89 f8                	mov    %edi,%eax
    5c97:	89 75 f8             	mov    %esi,-0x8(%rbp)
    5c9a:	88 45 fc             	mov    %al,-0x4(%rbp)
    5c9d:	83 7d f8 00          	cmpl   $0x0,-0x8(%rbp)
    5ca1:	78 15                	js     5cb8 <safe_rshift_func_uint8_t_u_s+0x2b>
    5ca3:	83 7d f8 1f          	cmpl   $0x1f,-0x8(%rbp)
    5ca7:	7f 0f                	jg     5cb8 <safe_rshift_func_uint8_t_u_s+0x2b>
    5ca9:	0f b6 55 fc          	movzbl -0x4(%rbp),%edx
    5cad:	8b 45 f8             	mov    -0x8(%rbp),%eax
    5cb0:	89 c1                	mov    %eax,%ecx
    5cb2:	d3 fa                	sar    %cl,%edx
    5cb4:	89 d0                	mov    %edx,%eax
    5cb6:	eb 04                	jmp    5cbc <safe_rshift_func_uint8_t_u_s+0x2f>
    5cb8:	0f b6 45 fc          	movzbl -0x4(%rbp),%eax
    5cbc:	5d                   	pop    %rbp
    5cbd:	c3                   	retq   

0000000000005cbe <safe_rshift_func_uint8_t_u_u>:
    5cbe:	f3 0f 1e fa          	endbr64 
    5cc2:	55                   	push   %rbp
    5cc3:	48 89 e5             	mov    %rsp,%rbp
    5cc6:	89 f8                	mov    %edi,%eax
    5cc8:	89 75 f8             	mov    %esi,-0x8(%rbp)
    5ccb:	88 45 fc             	mov    %al,-0x4(%rbp)
    5cce:	83 7d f8 1f          	cmpl   $0x1f,-0x8(%rbp)
    5cd2:	77 0f                	ja     5ce3 <safe_rshift_func_uint8_t_u_u+0x25>
    5cd4:	0f b6 55 fc          	movzbl -0x4(%rbp),%edx
    5cd8:	8b 45 f8             	mov    -0x8(%rbp),%eax
    5cdb:	89 c1                	mov    %eax,%ecx
    5cdd:	d3 fa                	sar    %cl,%edx
    5cdf:	89 d0                	mov    %edx,%eax
    5ce1:	eb 04                	jmp    5ce7 <safe_rshift_func_uint8_t_u_u+0x29>
    5ce3:	0f b6 45 fc          	movzbl -0x4(%rbp),%eax
    5ce7:	5d                   	pop    %rbp
    5ce8:	c3                   	retq   

0000000000005ce9 <safe_unary_minus_func_uint16_t_u>:
    5ce9:	f3 0f 1e fa          	endbr64 
    5ced:	55                   	push   %rbp
    5cee:	48 89 e5             	mov    %rsp,%rbp
    5cf1:	89 f8                	mov    %edi,%eax
    5cf3:	66 89 45 fc          	mov    %ax,-0x4(%rbp)
    5cf7:	0f b7 45 fc          	movzwl -0x4(%rbp),%eax
    5cfb:	f7 d8                	neg    %eax
    5cfd:	5d                   	pop    %rbp
    5cfe:	c3                   	retq   

0000000000005cff <safe_add_func_uint16_t_u_u>:
    5cff:	f3 0f 1e fa          	endbr64 
    5d03:	55                   	push   %rbp
    5d04:	48 89 e5             	mov    %rsp,%rbp
    5d07:	89 fa                	mov    %edi,%edx
    5d09:	89 f0                	mov    %esi,%eax
    5d0b:	66 89 55 fc          	mov    %dx,-0x4(%rbp)
    5d0f:	66 89 45 f8          	mov    %ax,-0x8(%rbp)
    5d13:	0f b7 55 fc          	movzwl -0x4(%rbp),%edx
    5d17:	0f b7 45 f8          	movzwl -0x8(%rbp),%eax
    5d1b:	01 d0                	add    %edx,%eax
    5d1d:	5d                   	pop    %rbp
    5d1e:	c3                   	retq   

0000000000005d1f <safe_sub_func_uint16_t_u_u>:
    5d1f:	f3 0f 1e fa          	endbr64 
    5d23:	55                   	push   %rbp
    5d24:	48 89 e5             	mov    %rsp,%rbp
    5d27:	89 fa                	mov    %edi,%edx
    5d29:	89 f0                	mov    %esi,%eax
    5d2b:	66 89 55 fc          	mov    %dx,-0x4(%rbp)
    5d2f:	66 89 45 f8          	mov    %ax,-0x8(%rbp)
    5d33:	0f b7 45 fc          	movzwl -0x4(%rbp),%eax
    5d37:	66 2b 45 f8          	sub    -0x8(%rbp),%ax
    5d3b:	5d                   	pop    %rbp
    5d3c:	c3                   	retq   

0000000000005d3d <safe_mul_func_uint16_t_u_u>:
    5d3d:	f3 0f 1e fa          	endbr64 
    5d41:	55                   	push   %rbp
    5d42:	48 89 e5             	mov    %rsp,%rbp
    5d45:	89 fa                	mov    %edi,%edx
    5d47:	89 f0                	mov    %esi,%eax
    5d49:	66 89 55 fc          	mov    %dx,-0x4(%rbp)
    5d4d:	66 89 45 f8          	mov    %ax,-0x8(%rbp)
    5d51:	0f b7 45 fc          	movzwl -0x4(%rbp),%eax
    5d55:	66 0f af 45 f8       	imul   -0x8(%rbp),%ax
    5d5a:	5d                   	pop    %rbp
    5d5b:	c3                   	retq   

0000000000005d5c <safe_mod_func_uint16_t_u_u>:
    5d5c:	f3 0f 1e fa          	endbr64 
    5d60:	55                   	push   %rbp
    5d61:	48 89 e5             	mov    %rsp,%rbp
    5d64:	89 fa                	mov    %edi,%edx
    5d66:	89 f0                	mov    %esi,%eax
    5d68:	66 89 55 fc          	mov    %dx,-0x4(%rbp)
    5d6c:	66 89 45 f8          	mov    %ax,-0x8(%rbp)
    5d70:	66 83 7d f8 00       	cmpw   $0x0,-0x8(%rbp)
    5d75:	74 11                	je     5d88 <safe_mod_func_uint16_t_u_u+0x2c>
    5d77:	0f b7 45 fc          	movzwl -0x4(%rbp),%eax
    5d7b:	ba 00 00 00 00       	mov    $0x0,%edx
    5d80:	66 f7 75 f8          	divw   -0x8(%rbp)
    5d84:	89 d0                	mov    %edx,%eax
    5d86:	eb 04                	jmp    5d8c <safe_mod_func_uint16_t_u_u+0x30>
    5d88:	0f b7 45 fc          	movzwl -0x4(%rbp),%eax
    5d8c:	5d                   	pop    %rbp
    5d8d:	c3                   	retq   

0000000000005d8e <safe_div_func_uint16_t_u_u>:
    5d8e:	f3 0f 1e fa          	endbr64 
    5d92:	55                   	push   %rbp
    5d93:	48 89 e5             	mov    %rsp,%rbp
    5d96:	89 fa                	mov    %edi,%edx
    5d98:	89 f0                	mov    %esi,%eax
    5d9a:	66 89 55 fc          	mov    %dx,-0x4(%rbp)
    5d9e:	66 89 45 f8          	mov    %ax,-0x8(%rbp)
    5da2:	66 83 7d f8 00       	cmpw   $0x0,-0x8(%rbp)
    5da7:	74 0f                	je     5db8 <safe_div_func_uint16_t_u_u+0x2a>
    5da9:	0f b7 45 fc          	movzwl -0x4(%rbp),%eax
    5dad:	ba 00 00 00 00       	mov    $0x0,%edx
    5db2:	66 f7 75 f8          	divw   -0x8(%rbp)
    5db6:	eb 04                	jmp    5dbc <safe_div_func_uint16_t_u_u+0x2e>
    5db8:	0f b7 45 fc          	movzwl -0x4(%rbp),%eax
    5dbc:	5d                   	pop    %rbp
    5dbd:	c3                   	retq   

0000000000005dbe <safe_lshift_func_uint16_t_u_s>:
    5dbe:	f3 0f 1e fa          	endbr64 
    5dc2:	55                   	push   %rbp
    5dc3:	48 89 e5             	mov    %rsp,%rbp
    5dc6:	89 f8                	mov    %edi,%eax
    5dc8:	89 75 f8             	mov    %esi,-0x8(%rbp)
    5dcb:	66 89 45 fc          	mov    %ax,-0x4(%rbp)
    5dcf:	83 7d f8 00          	cmpl   $0x0,-0x8(%rbp)
    5dd3:	78 2b                	js     5e00 <safe_lshift_func_uint16_t_u_s+0x42>
    5dd5:	83 7d f8 1f          	cmpl   $0x1f,-0x8(%rbp)
    5dd9:	7f 25                	jg     5e00 <safe_lshift_func_uint16_t_u_s+0x42>
    5ddb:	0f b7 55 fc          	movzwl -0x4(%rbp),%edx
    5ddf:	8b 45 f8             	mov    -0x8(%rbp),%eax
    5de2:	be ff ff 00 00       	mov    $0xffff,%esi
    5de7:	89 c1                	mov    %eax,%ecx
    5de9:	d3 fe                	sar    %cl,%esi
    5deb:	89 f0                	mov    %esi,%eax
    5ded:	39 c2                	cmp    %eax,%edx
    5def:	7f 0f                	jg     5e00 <safe_lshift_func_uint16_t_u_s+0x42>
    5df1:	0f b7 55 fc          	movzwl -0x4(%rbp),%edx
    5df5:	8b 45 f8             	mov    -0x8(%rbp),%eax
    5df8:	89 c1                	mov    %eax,%ecx
    5dfa:	d3 e2                	shl    %cl,%edx
    5dfc:	89 d0                	mov    %edx,%eax
    5dfe:	eb 04                	jmp    5e04 <safe_lshift_func_uint16_t_u_s+0x46>
    5e00:	0f b7 45 fc          	movzwl -0x4(%rbp),%eax
    5e04:	5d                   	pop    %rbp
    5e05:	c3                   	retq   

0000000000005e06 <safe_lshift_func_uint16_t_u_u>:
    5e06:	f3 0f 1e fa          	endbr64 
    5e0a:	55                   	push   %rbp
    5e0b:	48 89 e5             	mov    %rsp,%rbp
    5e0e:	89 f8                	mov    %edi,%eax
    5e10:	89 75 f8             	mov    %esi,-0x8(%rbp)
    5e13:	66 89 45 fc          	mov    %ax,-0x4(%rbp)
    5e17:	83 7d f8 1f          	cmpl   $0x1f,-0x8(%rbp)
    5e1b:	77 25                	ja     5e42 <safe_lshift_func_uint16_t_u_u+0x3c>
    5e1d:	0f b7 55 fc          	movzwl -0x4(%rbp),%edx
    5e21:	8b 45 f8             	mov    -0x8(%rbp),%eax
    5e24:	be ff ff 00 00       	mov    $0xffff,%esi
    5e29:	89 c1                	mov    %eax,%ecx
    5e2b:	d3 fe                	sar    %cl,%esi
    5e2d:	89 f0                	mov    %esi,%eax
    5e2f:	39 c2                	cmp    %eax,%edx
    5e31:	7f 0f                	jg     5e42 <safe_lshift_func_uint16_t_u_u+0x3c>
    5e33:	0f b7 55 fc          	movzwl -0x4(%rbp),%edx
    5e37:	8b 45 f8             	mov    -0x8(%rbp),%eax
    5e3a:	89 c1                	mov    %eax,%ecx
    5e3c:	d3 e2                	shl    %cl,%edx
    5e3e:	89 d0                	mov    %edx,%eax
    5e40:	eb 04                	jmp    5e46 <safe_lshift_func_uint16_t_u_u+0x40>
    5e42:	0f b7 45 fc          	movzwl -0x4(%rbp),%eax
    5e46:	5d                   	pop    %rbp
    5e47:	c3                   	retq   

0000000000005e48 <safe_rshift_func_uint16_t_u_s>:
    5e48:	f3 0f 1e fa          	endbr64 
    5e4c:	55                   	push   %rbp
    5e4d:	48 89 e5             	mov    %rsp,%rbp
    5e50:	89 f8                	mov    %edi,%eax
    5e52:	89 75 f8             	mov    %esi,-0x8(%rbp)
    5e55:	66 89 45 fc          	mov    %ax,-0x4(%rbp)
    5e59:	83 7d f8 00          	cmpl   $0x0,-0x8(%rbp)
    5e5d:	78 15                	js     5e74 <safe_rshift_func_uint16_t_u_s+0x2c>
    5e5f:	83 7d f8 1f          	cmpl   $0x1f,-0x8(%rbp)
    5e63:	7f 0f                	jg     5e74 <safe_rshift_func_uint16_t_u_s+0x2c>
    5e65:	0f b7 55 fc          	movzwl -0x4(%rbp),%edx
    5e69:	8b 45 f8             	mov    -0x8(%rbp),%eax
    5e6c:	89 c1                	mov    %eax,%ecx
    5e6e:	d3 fa                	sar    %cl,%edx
    5e70:	89 d0                	mov    %edx,%eax
    5e72:	eb 04                	jmp    5e78 <safe_rshift_func_uint16_t_u_s+0x30>
    5e74:	0f b7 45 fc          	movzwl -0x4(%rbp),%eax
    5e78:	5d                   	pop    %rbp
    5e79:	c3                   	retq   

0000000000005e7a <safe_rshift_func_uint16_t_u_u>:
    5e7a:	f3 0f 1e fa          	endbr64 
    5e7e:	55                   	push   %rbp
    5e7f:	48 89 e5             	mov    %rsp,%rbp
    5e82:	89 f8                	mov    %edi,%eax
    5e84:	89 75 f8             	mov    %esi,-0x8(%rbp)
    5e87:	66 89 45 fc          	mov    %ax,-0x4(%rbp)
    5e8b:	83 7d f8 1f          	cmpl   $0x1f,-0x8(%rbp)
    5e8f:	77 0f                	ja     5ea0 <safe_rshift_func_uint16_t_u_u+0x26>
    5e91:	0f b7 55 fc          	movzwl -0x4(%rbp),%edx
    5e95:	8b 45 f8             	mov    -0x8(%rbp),%eax
    5e98:	89 c1                	mov    %eax,%ecx
    5e9a:	d3 fa                	sar    %cl,%edx
    5e9c:	89 d0                	mov    %edx,%eax
    5e9e:	eb 04                	jmp    5ea4 <safe_rshift_func_uint16_t_u_u+0x2a>
    5ea0:	0f b7 45 fc          	movzwl -0x4(%rbp),%eax
    5ea4:	5d                   	pop    %rbp
    5ea5:	c3                   	retq   

0000000000005ea6 <safe_unary_minus_func_uint32_t_u>:
    5ea6:	f3 0f 1e fa          	endbr64 
    5eaa:	55                   	push   %rbp
    5eab:	48 89 e5             	mov    %rsp,%rbp
    5eae:	89 7d fc             	mov    %edi,-0x4(%rbp)
    5eb1:	8b 45 fc             	mov    -0x4(%rbp),%eax
    5eb4:	f7 d8                	neg    %eax
    5eb6:	5d                   	pop    %rbp
    5eb7:	c3                   	retq   

0000000000005eb8 <safe_add_func_uint32_t_u_u>:
    5eb8:	f3 0f 1e fa          	endbr64 
    5ebc:	55                   	push   %rbp
    5ebd:	48 89 e5             	mov    %rsp,%rbp
    5ec0:	89 7d fc             	mov    %edi,-0x4(%rbp)
    5ec3:	89 75 f8             	mov    %esi,-0x8(%rbp)
    5ec6:	8b 55 fc             	mov    -0x4(%rbp),%edx
    5ec9:	8b 45 f8             	mov    -0x8(%rbp),%eax
    5ecc:	01 d0                	add    %edx,%eax
    5ece:	5d                   	pop    %rbp
    5ecf:	c3                   	retq   

0000000000005ed0 <safe_sub_func_uint32_t_u_u>:
    5ed0:	f3 0f 1e fa          	endbr64 
    5ed4:	55                   	push   %rbp
    5ed5:	48 89 e5             	mov    %rsp,%rbp
    5ed8:	89 7d fc             	mov    %edi,-0x4(%rbp)
    5edb:	89 75 f8             	mov    %esi,-0x8(%rbp)
    5ede:	8b 45 fc             	mov    -0x4(%rbp),%eax
    5ee1:	2b 45 f8             	sub    -0x8(%rbp),%eax
    5ee4:	5d                   	pop    %rbp
    5ee5:	c3                   	retq   

0000000000005ee6 <safe_mul_func_uint32_t_u_u>:
    5ee6:	f3 0f 1e fa          	endbr64 
    5eea:	55                   	push   %rbp
    5eeb:	48 89 e5             	mov    %rsp,%rbp
    5eee:	89 7d fc             	mov    %edi,-0x4(%rbp)
    5ef1:	89 75 f8             	mov    %esi,-0x8(%rbp)
    5ef4:	8b 45 fc             	mov    -0x4(%rbp),%eax
    5ef7:	0f af 45 f8          	imul   -0x8(%rbp),%eax
    5efb:	5d                   	pop    %rbp
    5efc:	c3                   	retq   

0000000000005efd <safe_mod_func_uint32_t_u_u>:
    5efd:	f3 0f 1e fa          	endbr64 
    5f01:	55                   	push   %rbp
    5f02:	48 89 e5             	mov    %rsp,%rbp
    5f05:	89 7d fc             	mov    %edi,-0x4(%rbp)
    5f08:	89 75 f8             	mov    %esi,-0x8(%rbp)
    5f0b:	83 7d f8 00          	cmpl   $0x0,-0x8(%rbp)
    5f0f:	74 0f                	je     5f20 <safe_mod_func_uint32_t_u_u+0x23>
    5f11:	8b 45 fc             	mov    -0x4(%rbp),%eax
    5f14:	ba 00 00 00 00       	mov    $0x0,%edx
    5f19:	f7 75 f8             	divl   -0x8(%rbp)
    5f1c:	89 d0                	mov    %edx,%eax
    5f1e:	eb 03                	jmp    5f23 <safe_mod_func_uint32_t_u_u+0x26>
    5f20:	8b 45 fc             	mov    -0x4(%rbp),%eax
    5f23:	5d                   	pop    %rbp
    5f24:	c3                   	retq   

0000000000005f25 <safe_div_func_uint32_t_u_u>:
    5f25:	f3 0f 1e fa          	endbr64 
    5f29:	55                   	push   %rbp
    5f2a:	48 89 e5             	mov    %rsp,%rbp
    5f2d:	89 7d fc             	mov    %edi,-0x4(%rbp)
    5f30:	89 75 f8             	mov    %esi,-0x8(%rbp)
    5f33:	83 7d f8 00          	cmpl   $0x0,-0x8(%rbp)
    5f37:	74 0d                	je     5f46 <safe_div_func_uint32_t_u_u+0x21>
    5f39:	8b 45 fc             	mov    -0x4(%rbp),%eax
    5f3c:	ba 00 00 00 00       	mov    $0x0,%edx
    5f41:	f7 75 f8             	divl   -0x8(%rbp)
    5f44:	eb 03                	jmp    5f49 <safe_div_func_uint32_t_u_u+0x24>
    5f46:	8b 45 fc             	mov    -0x4(%rbp),%eax
    5f49:	5d                   	pop    %rbp
    5f4a:	c3                   	retq   

0000000000005f4b <safe_lshift_func_uint32_t_u_s>:
    5f4b:	f3 0f 1e fa          	endbr64 
    5f4f:	55                   	push   %rbp
    5f50:	48 89 e5             	mov    %rsp,%rbp
    5f53:	89 7d fc             	mov    %edi,-0x4(%rbp)
    5f56:	89 75 f8             	mov    %esi,-0x8(%rbp)
    5f59:	83 7d f8 00          	cmpl   $0x0,-0x8(%rbp)
    5f5d:	78 27                	js     5f86 <safe_lshift_func_uint32_t_u_s+0x3b>
    5f5f:	83 7d f8 1f          	cmpl   $0x1f,-0x8(%rbp)
    5f63:	7f 21                	jg     5f86 <safe_lshift_func_uint32_t_u_s+0x3b>
    5f65:	8b 45 f8             	mov    -0x8(%rbp),%eax
    5f68:	ba ff ff ff ff       	mov    $0xffffffff,%edx
    5f6d:	89 c1                	mov    %eax,%ecx
    5f6f:	d3 ea                	shr    %cl,%edx
    5f71:	89 d0                	mov    %edx,%eax
    5f73:	39 45 fc             	cmp    %eax,-0x4(%rbp)
    5f76:	77 0e                	ja     5f86 <safe_lshift_func_uint32_t_u_s+0x3b>
    5f78:	8b 45 f8             	mov    -0x8(%rbp),%eax
    5f7b:	8b 55 fc             	mov    -0x4(%rbp),%edx
    5f7e:	89 c1                	mov    %eax,%ecx
    5f80:	d3 e2                	shl    %cl,%edx
    5f82:	89 d0                	mov    %edx,%eax
    5f84:	eb 03                	jmp    5f89 <safe_lshift_func_uint32_t_u_s+0x3e>
    5f86:	8b 45 fc             	mov    -0x4(%rbp),%eax
    5f89:	5d                   	pop    %rbp
    5f8a:	c3                   	retq   

0000000000005f8b <safe_lshift_func_uint32_t_u_u>:
    5f8b:	f3 0f 1e fa          	endbr64 
    5f8f:	55                   	push   %rbp
    5f90:	48 89 e5             	mov    %rsp,%rbp
    5f93:	89 7d fc             	mov    %edi,-0x4(%rbp)
    5f96:	89 75 f8             	mov    %esi,-0x8(%rbp)
    5f99:	83 7d f8 1f          	cmpl   $0x1f,-0x8(%rbp)
    5f9d:	77 21                	ja     5fc0 <safe_lshift_func_uint32_t_u_u+0x35>
    5f9f:	8b 45 f8             	mov    -0x8(%rbp),%eax
    5fa2:	ba ff ff ff ff       	mov    $0xffffffff,%edx
    5fa7:	89 c1                	mov    %eax,%ecx
    5fa9:	d3 ea                	shr    %cl,%edx
    5fab:	89 d0                	mov    %edx,%eax
    5fad:	39 45 fc             	cmp    %eax,-0x4(%rbp)
    5fb0:	77 0e                	ja     5fc0 <safe_lshift_func_uint32_t_u_u+0x35>
    5fb2:	8b 45 f8             	mov    -0x8(%rbp),%eax
    5fb5:	8b 55 fc             	mov    -0x4(%rbp),%edx
    5fb8:	89 c1                	mov    %eax,%ecx
    5fba:	d3 e2                	shl    %cl,%edx
    5fbc:	89 d0                	mov    %edx,%eax
    5fbe:	eb 03                	jmp    5fc3 <safe_lshift_func_uint32_t_u_u+0x38>
    5fc0:	8b 45 fc             	mov    -0x4(%rbp),%eax
    5fc3:	5d                   	pop    %rbp
    5fc4:	c3                   	retq   

0000000000005fc5 <safe_rshift_func_uint32_t_u_s>:
    5fc5:	f3 0f 1e fa          	endbr64 
    5fc9:	55                   	push   %rbp
    5fca:	48 89 e5             	mov    %rsp,%rbp
    5fcd:	89 7d fc             	mov    %edi,-0x4(%rbp)
    5fd0:	89 75 f8             	mov    %esi,-0x8(%rbp)
    5fd3:	83 7d f8 00          	cmpl   $0x0,-0x8(%rbp)
    5fd7:	78 14                	js     5fed <safe_rshift_func_uint32_t_u_s+0x28>
    5fd9:	83 7d f8 1f          	cmpl   $0x1f,-0x8(%rbp)
    5fdd:	7f 0e                	jg     5fed <safe_rshift_func_uint32_t_u_s+0x28>
    5fdf:	8b 45 f8             	mov    -0x8(%rbp),%eax
    5fe2:	8b 55 fc             	mov    -0x4(%rbp),%edx
    5fe5:	89 c1                	mov    %eax,%ecx
    5fe7:	d3 ea                	shr    %cl,%edx
    5fe9:	89 d0                	mov    %edx,%eax
    5feb:	eb 03                	jmp    5ff0 <safe_rshift_func_uint32_t_u_s+0x2b>
    5fed:	8b 45 fc             	mov    -0x4(%rbp),%eax
    5ff0:	5d                   	pop    %rbp
    5ff1:	c3                   	retq   

0000000000005ff2 <safe_rshift_func_uint32_t_u_u>:
    5ff2:	f3 0f 1e fa          	endbr64 
    5ff6:	55                   	push   %rbp
    5ff7:	48 89 e5             	mov    %rsp,%rbp
    5ffa:	89 7d fc             	mov    %edi,-0x4(%rbp)
    5ffd:	89 75 f8             	mov    %esi,-0x8(%rbp)
    6000:	83 7d f8 1f          	cmpl   $0x1f,-0x8(%rbp)
    6004:	77 0e                	ja     6014 <safe_rshift_func_uint32_t_u_u+0x22>
    6006:	8b 45 f8             	mov    -0x8(%rbp),%eax
    6009:	8b 55 fc             	mov    -0x4(%rbp),%edx
    600c:	89 c1                	mov    %eax,%ecx
    600e:	d3 ea                	shr    %cl,%edx
    6010:	89 d0                	mov    %edx,%eax
    6012:	eb 03                	jmp    6017 <safe_rshift_func_uint32_t_u_u+0x25>
    6014:	8b 45 fc             	mov    -0x4(%rbp),%eax
    6017:	5d                   	pop    %rbp
    6018:	c3                   	retq   

0000000000006019 <safe_unary_minus_func_uint64_t_u>:
    6019:	f3 0f 1e fa          	endbr64 
    601d:	55                   	push   %rbp
    601e:	48 89 e5             	mov    %rsp,%rbp
    6021:	48 89 7d f8          	mov    %rdi,-0x8(%rbp)
    6025:	48 8b 45 f8          	mov    -0x8(%rbp),%rax
    6029:	48 f7 d8             	neg    %rax
    602c:	5d                   	pop    %rbp
    602d:	c3                   	retq   

000000000000602e <safe_add_func_uint64_t_u_u>:
    602e:	f3 0f 1e fa          	endbr64 
    6032:	55                   	push   %rbp
    6033:	48 89 e5             	mov    %rsp,%rbp
    6036:	48 89 7d f8          	mov    %rdi,-0x8(%rbp)
    603a:	48 89 75 f0          	mov    %rsi,-0x10(%rbp)
    603e:	48 8b 55 f8          	mov    -0x8(%rbp),%rdx
    6042:	48 8b 45 f0          	mov    -0x10(%rbp),%rax
    6046:	48 01 d0             	add    %rdx,%rax
    6049:	5d                   	pop    %rbp
    604a:	c3                   	retq   

000000000000604b <safe_sub_func_uint64_t_u_u>:
    604b:	f3 0f 1e fa          	endbr64 
    604f:	55                   	push   %rbp
    6050:	48 89 e5             	mov    %rsp,%rbp
    6053:	48 89 7d f8          	mov    %rdi,-0x8(%rbp)
    6057:	48 89 75 f0          	mov    %rsi,-0x10(%rbp)
    605b:	48 8b 45 f8          	mov    -0x8(%rbp),%rax
    605f:	48 2b 45 f0          	sub    -0x10(%rbp),%rax
    6063:	5d                   	pop    %rbp
    6064:	c3                   	retq   

0000000000006065 <safe_mul_func_uint64_t_u_u>:
    6065:	f3 0f 1e fa          	endbr64 
    6069:	55                   	push   %rbp
    606a:	48 89 e5             	mov    %rsp,%rbp
    606d:	48 89 7d f8          	mov    %rdi,-0x8(%rbp)
    6071:	48 89 75 f0          	mov    %rsi,-0x10(%rbp)
    6075:	48 8b 45 f8          	mov    -0x8(%rbp),%rax
    6079:	48 0f af 45 f0       	imul   -0x10(%rbp),%rax
    607e:	5d                   	pop    %rbp
    607f:	c3                   	retq   

0000000000006080 <safe_mod_func_uint64_t_u_u>:
    6080:	f3 0f 1e fa          	endbr64 
    6084:	55                   	push   %rbp
    6085:	48 89 e5             	mov    %rsp,%rbp
    6088:	48 89 7d f8          	mov    %rdi,-0x8(%rbp)
    608c:	48 89 75 f0          	mov    %rsi,-0x10(%rbp)
    6090:	48 83 7d f0 00       	cmpq   $0x0,-0x10(%rbp)
    6095:	74 12                	je     60a9 <safe_mod_func_uint64_t_u_u+0x29>
    6097:	48 8b 45 f8          	mov    -0x8(%rbp),%rax
    609b:	ba 00 00 00 00       	mov    $0x0,%edx
    60a0:	48 f7 75 f0          	divq   -0x10(%rbp)
    60a4:	48 89 d0             	mov    %rdx,%rax
    60a7:	eb 04                	jmp    60ad <safe_mod_func_uint64_t_u_u+0x2d>
    60a9:	48 8b 45 f8          	mov    -0x8(%rbp),%rax
    60ad:	5d                   	pop    %rbp
    60ae:	c3                   	retq   

00000000000060af <safe_div_func_uint64_t_u_u>:
    60af:	f3 0f 1e fa          	endbr64 
    60b3:	55                   	push   %rbp
    60b4:	48 89 e5             	mov    %rsp,%rbp
    60b7:	48 89 7d f8          	mov    %rdi,-0x8(%rbp)
    60bb:	48 89 75 f0          	mov    %rsi,-0x10(%rbp)
    60bf:	48 83 7d f0 00       	cmpq   $0x0,-0x10(%rbp)
    60c4:	74 0f                	je     60d5 <safe_div_func_uint64_t_u_u+0x26>
    60c6:	48 8b 45 f8          	mov    -0x8(%rbp),%rax
    60ca:	ba 00 00 00 00       	mov    $0x0,%edx
    60cf:	48 f7 75 f0          	divq   -0x10(%rbp)
    60d3:	eb 04                	jmp    60d9 <safe_div_func_uint64_t_u_u+0x2a>
    60d5:	48 8b 45 f8          	mov    -0x8(%rbp),%rax
    60d9:	5d                   	pop    %rbp
    60da:	c3                   	retq   

00000000000060db <safe_lshift_func_uint64_t_u_s>:
    60db:	f3 0f 1e fa          	endbr64 
    60df:	55                   	push   %rbp
    60e0:	48 89 e5             	mov    %rsp,%rbp
    60e3:	48 89 7d f8          	mov    %rdi,-0x8(%rbp)
    60e7:	89 75 f4             	mov    %esi,-0xc(%rbp)
    60ea:	83 7d f4 00          	cmpl   $0x0,-0xc(%rbp)
    60ee:	78 2f                	js     611f <safe_lshift_func_uint64_t_u_s+0x44>
    60f0:	83 7d f4 1f          	cmpl   $0x1f,-0xc(%rbp)
    60f4:	7f 29                	jg     611f <safe_lshift_func_uint64_t_u_s+0x44>
    60f6:	8b 45 f4             	mov    -0xc(%rbp),%eax
    60f9:	48 c7 c2 ff ff ff ff 	mov    $0xffffffffffffffff,%rdx
    6100:	89 c1                	mov    %eax,%ecx
    6102:	48 d3 ea             	shr    %cl,%rdx
    6105:	48 89 d0             	mov    %rdx,%rax
    6108:	48 39 45 f8          	cmp    %rax,-0x8(%rbp)
    610c:	77 11                	ja     611f <safe_lshift_func_uint64_t_u_s+0x44>
    610e:	8b 45 f4             	mov    -0xc(%rbp),%eax
    6111:	48 8b 55 f8          	mov    -0x8(%rbp),%rdx
    6115:	89 c1                	mov    %eax,%ecx
    6117:	48 d3 e2             	shl    %cl,%rdx
    611a:	48 89 d0             	mov    %rdx,%rax
    611d:	eb 04                	jmp    6123 <safe_lshift_func_uint64_t_u_s+0x48>
    611f:	48 8b 45 f8          	mov    -0x8(%rbp),%rax
    6123:	5d                   	pop    %rbp
    6124:	c3                   	retq   

0000000000006125 <safe_lshift_func_uint64_t_u_u>:
    6125:	f3 0f 1e fa          	endbr64 
    6129:	55                   	push   %rbp
    612a:	48 89 e5             	mov    %rsp,%rbp
    612d:	48 89 7d f8          	mov    %rdi,-0x8(%rbp)
    6131:	89 75 f4             	mov    %esi,-0xc(%rbp)
    6134:	83 7d f4 1f          	cmpl   $0x1f,-0xc(%rbp)
    6138:	77 29                	ja     6163 <safe_lshift_func_uint64_t_u_u+0x3e>
    613a:	8b 45 f4             	mov    -0xc(%rbp),%eax
    613d:	48 c7 c2 ff ff ff ff 	mov    $0xffffffffffffffff,%rdx
    6144:	89 c1                	mov    %eax,%ecx
    6146:	48 d3 ea             	shr    %cl,%rdx
    6149:	48 89 d0             	mov    %rdx,%rax
    614c:	48 39 45 f8          	cmp    %rax,-0x8(%rbp)
    6150:	77 11                	ja     6163 <safe_lshift_func_uint64_t_u_u+0x3e>
    6152:	8b 45 f4             	mov    -0xc(%rbp),%eax
    6155:	48 8b 55 f8          	mov    -0x8(%rbp),%rdx
    6159:	89 c1                	mov    %eax,%ecx
    615b:	48 d3 e2             	shl    %cl,%rdx
    615e:	48 89 d0             	mov    %rdx,%rax
    6161:	eb 04                	jmp    6167 <safe_lshift_func_uint64_t_u_u+0x42>
    6163:	48 8b 45 f8          	mov    -0x8(%rbp),%rax
    6167:	5d                   	pop    %rbp
    6168:	c3                   	retq   

0000000000006169 <safe_rshift_func_uint64_t_u_s>:
    6169:	f3 0f 1e fa          	endbr64 
    616d:	55                   	push   %rbp
    616e:	48 89 e5             	mov    %rsp,%rbp
    6171:	48 89 7d f8          	mov    %rdi,-0x8(%rbp)
    6175:	89 75 f4             	mov    %esi,-0xc(%rbp)
    6178:	83 7d f4 00          	cmpl   $0x0,-0xc(%rbp)
    617c:	78 17                	js     6195 <safe_rshift_func_uint64_t_u_s+0x2c>
    617e:	83 7d f4 1f          	cmpl   $0x1f,-0xc(%rbp)
    6182:	7f 11                	jg     6195 <safe_rshift_func_uint64_t_u_s+0x2c>
    6184:	8b 45 f4             	mov    -0xc(%rbp),%eax
    6187:	48 8b 55 f8          	mov    -0x8(%rbp),%rdx
    618b:	89 c1                	mov    %eax,%ecx
    618d:	48 d3 ea             	shr    %cl,%rdx
    6190:	48 89 d0             	mov    %rdx,%rax
    6193:	eb 04                	jmp    6199 <safe_rshift_func_uint64_t_u_s+0x30>
    6195:	48 8b 45 f8          	mov    -0x8(%rbp),%rax
    6199:	5d                   	pop    %rbp
    619a:	c3                   	retq   

000000000000619b <safe_rshift_func_uint64_t_u_u>:
    619b:	f3 0f 1e fa          	endbr64 
    619f:	55                   	push   %rbp
    61a0:	48 89 e5             	mov    %rsp,%rbp
    61a3:	48 89 7d f8          	mov    %rdi,-0x8(%rbp)
    61a7:	89 75 f4             	mov    %esi,-0xc(%rbp)
    61aa:	83 7d f4 1f          	cmpl   $0x1f,-0xc(%rbp)
    61ae:	77 11                	ja     61c1 <safe_rshift_func_uint64_t_u_u+0x26>
    61b0:	8b 45 f4             	mov    -0xc(%rbp),%eax
    61b3:	48 8b 55 f8          	mov    -0x8(%rbp),%rdx
    61b7:	89 c1                	mov    %eax,%ecx
    61b9:	48 d3 ea             	shr    %cl,%rdx
    61bc:	48 89 d0             	mov    %rdx,%rax
    61bf:	eb 04                	jmp    61c5 <safe_rshift_func_uint64_t_u_u+0x2a>
    61c1:	48 8b 45 f8          	mov    -0x8(%rbp),%rax
    61c5:	5d                   	pop    %rbp
    61c6:	c3                   	retq   

00000000000061c7 <safe_add_func_float_f_f>:
    61c7:	f3 0f 1e fa          	endbr64 
    61cb:	55                   	push   %rbp
    61cc:	48 89 e5             	mov    %rsp,%rbp
    61cf:	f3 0f 11 45 fc       	movss  %xmm0,-0x4(%rbp)
    61d4:	f3 0f 11 4d f8       	movss  %xmm1,-0x8(%rbp)
    61d9:	f3 0f 10 4d fc       	movss  -0x4(%rbp),%xmm1
    61de:	f3 0f 10 05 ea b5 00 	movss  0xb5ea(%rip),%xmm0        # 117d0 <l_1480.4752+0x30>
    61e5:	00 
    61e6:	f3 0f 59 c8          	mulss  %xmm0,%xmm1
    61ea:	f3 0f 10 55 f8       	movss  -0x8(%rbp),%xmm2
    61ef:	f3 0f 10 05 d9 b5 00 	movss  0xb5d9(%rip),%xmm0        # 117d0 <l_1480.4752+0x30>
    61f6:	00 
    61f7:	f3 0f 59 c2          	mulss  %xmm2,%xmm0
    61fb:	f3 0f 58 c1          	addss  %xmm1,%xmm0
    61ff:	f3 0f 10 0d d9 b5 00 	movss  0xb5d9(%rip),%xmm1        # 117e0 <l_1480.4752+0x40>
    6206:	00 
    6207:	0f 54 c1             	andps  %xmm1,%xmm0
    620a:	0f 2f 05 df b5 00 00 	comiss 0xb5df(%rip),%xmm0        # 117f0 <l_1480.4752+0x50>
    6211:	76 07                	jbe    621a <safe_add_func_float_f_f+0x53>
    6213:	f3 0f 10 45 fc       	movss  -0x4(%rbp),%xmm0
    6218:	eb 0a                	jmp    6224 <safe_add_func_float_f_f+0x5d>
    621a:	f3 0f 10 45 fc       	movss  -0x4(%rbp),%xmm0
    621f:	f3 0f 58 45 f8       	addss  -0x8(%rbp),%xmm0
    6224:	5d                   	pop    %rbp
    6225:	c3                   	retq   

0000000000006226 <safe_sub_func_float_f_f>:
    6226:	f3 0f 1e fa          	endbr64 
    622a:	55                   	push   %rbp
    622b:	48 89 e5             	mov    %rsp,%rbp
    622e:	f3 0f 11 45 fc       	movss  %xmm0,-0x4(%rbp)
    6233:	f3 0f 11 4d f8       	movss  %xmm1,-0x8(%rbp)
    6238:	f3 0f 10 4d fc       	movss  -0x4(%rbp),%xmm1
    623d:	f3 0f 10 05 8b b5 00 	movss  0xb58b(%rip),%xmm0        # 117d0 <l_1480.4752+0x30>
    6244:	00 
    6245:	f3 0f 59 c1          	mulss  %xmm1,%xmm0
    6249:	f3 0f 10 55 f8       	movss  -0x8(%rbp),%xmm2
    624e:	f3 0f 10 0d 7a b5 00 	movss  0xb57a(%rip),%xmm1        # 117d0 <l_1480.4752+0x30>
    6255:	00 
    6256:	f3 0f 59 ca          	mulss  %xmm2,%xmm1
    625a:	f3 0f 5c c1          	subss  %xmm1,%xmm0
    625e:	f3 0f 10 0d 7a b5 00 	movss  0xb57a(%rip),%xmm1        # 117e0 <l_1480.4752+0x40>
    6265:	00 
    6266:	0f 54 c1             	andps  %xmm1,%xmm0
    6269:	0f 2f 05 80 b5 00 00 	comiss 0xb580(%rip),%xmm0        # 117f0 <l_1480.4752+0x50>
    6270:	76 07                	jbe    6279 <safe_sub_func_float_f_f+0x53>
    6272:	f3 0f 10 45 fc       	movss  -0x4(%rbp),%xmm0
    6277:	eb 0a                	jmp    6283 <safe_sub_func_float_f_f+0x5d>
    6279:	f3 0f 10 45 fc       	movss  -0x4(%rbp),%xmm0
    627e:	f3 0f 5c 45 f8       	subss  -0x8(%rbp),%xmm0
    6283:	5d                   	pop    %rbp
    6284:	c3                   	retq   

0000000000006285 <safe_mul_func_float_f_f>:
    6285:	f3 0f 1e fa          	endbr64 
    6289:	55                   	push   %rbp
    628a:	48 89 e5             	mov    %rsp,%rbp
    628d:	f3 0f 11 45 fc       	movss  %xmm0,-0x4(%rbp)
    6292:	f3 0f 11 4d f8       	movss  %xmm1,-0x8(%rbp)
    6297:	f3 0f 10 4d fc       	movss  -0x4(%rbp),%xmm1
    629c:	f3 0f 10 05 50 b5 00 	movss  0xb550(%rip),%xmm0        # 117f4 <l_1480.4752+0x54>
    62a3:	00 
    62a4:	f3 0f 59 c8          	mulss  %xmm0,%xmm1
    62a8:	f3 0f 10 55 f8       	movss  -0x8(%rbp),%xmm2
    62ad:	f3 0f 10 05 43 b5 00 	movss  0xb543(%rip),%xmm0        # 117f8 <l_1480.4752+0x58>
    62b4:	00 
    62b5:	f3 0f 59 c2          	mulss  %xmm2,%xmm0
    62b9:	f3 0f 59 c1          	mulss  %xmm1,%xmm0
    62bd:	f3 0f 10 0d 1b b5 00 	movss  0xb51b(%rip),%xmm1        # 117e0 <l_1480.4752+0x40>
    62c4:	00 
    62c5:	0f 54 c1             	andps  %xmm1,%xmm0
    62c8:	0f 2f 05 2d b5 00 00 	comiss 0xb52d(%rip),%xmm0        # 117fc <l_1480.4752+0x5c>
    62cf:	76 07                	jbe    62d8 <safe_mul_func_float_f_f+0x53>
    62d1:	f3 0f 10 45 fc       	movss  -0x4(%rbp),%xmm0
    62d6:	eb 0a                	jmp    62e2 <safe_mul_func_float_f_f+0x5d>
    62d8:	f3 0f 10 45 fc       	movss  -0x4(%rbp),%xmm0
    62dd:	f3 0f 59 45 f8       	mulss  -0x8(%rbp),%xmm0
    62e2:	5d                   	pop    %rbp
    62e3:	c3                   	retq   

00000000000062e4 <safe_div_func_float_f_f>:
    62e4:	f3 0f 1e fa          	endbr64 
    62e8:	55                   	push   %rbp
    62e9:	48 89 e5             	mov    %rsp,%rbp
    62ec:	f3 0f 11 45 fc       	movss  %xmm0,-0x4(%rbp)
    62f1:	f3 0f 11 4d f8       	movss  %xmm1,-0x8(%rbp)
    62f6:	f3 0f 10 45 f8       	movss  -0x8(%rbp),%xmm0
    62fb:	f3 0f 10 0d dd b4 00 	movss  0xb4dd(%rip),%xmm1        # 117e0 <l_1480.4752+0x40>
    6302:	00 
    6303:	0f 54 c8             	andps  %xmm0,%xmm1
    6306:	f3 0f 10 05 f2 b4 00 	movss  0xb4f2(%rip),%xmm0        # 11800 <l_1480.4752+0x60>
    630d:	00 
    630e:	0f 2f c1             	comiss %xmm1,%xmm0
    6311:	0f 97 c0             	seta   %al
    6314:	83 f0 01             	xor    $0x1,%eax
    6317:	84 c0                	test   %al,%al
    6319:	75 56                	jne    6371 <safe_div_func_float_f_f+0x8d>
    631b:	66 0f ef c0          	pxor   %xmm0,%xmm0
    631f:	0f 2e 45 f8          	ucomiss -0x8(%rbp),%xmm0
    6323:	7a 0a                	jp     632f <safe_div_func_float_f_f+0x4b>
    6325:	66 0f ef c0          	pxor   %xmm0,%xmm0
    6329:	0f 2e 45 f8          	ucomiss -0x8(%rbp),%xmm0
    632d:	74 4e                	je     637d <safe_div_func_float_f_f+0x99>
    632f:	f3 0f 10 4d fc       	movss  -0x4(%rbp),%xmm1
    6334:	f3 0f 10 05 c8 b4 00 	movss  0xb4c8(%rip),%xmm0        # 11804 <l_1480.4752+0x64>
    633b:	00 
    633c:	f3 0f 59 c1          	mulss  %xmm1,%xmm0
    6340:	f3 0f 10 55 f8       	movss  -0x8(%rbp),%xmm2
    6345:	f3 0f 10 0d bb b4 00 	movss  0xb4bb(%rip),%xmm1        # 11808 <l_1480.4752+0x68>
    634c:	00 
    634d:	f3 0f 59 ca          	mulss  %xmm2,%xmm1
    6351:	f3 0f 5e c1          	divss  %xmm1,%xmm0
    6355:	f3 0f 10 0d 83 b4 00 	movss  0xb483(%rip),%xmm1        # 117e0 <l_1480.4752+0x40>
    635c:	00 
    635d:	0f 54 c1             	andps  %xmm1,%xmm0
    6360:	0f 2f 05 a5 b4 00 00 	comiss 0xb4a5(%rip),%xmm0        # 1180c <l_1480.4752+0x6c>
    6367:	0f 97 c0             	seta   %al
    636a:	83 f0 01             	xor    $0x1,%eax
    636d:	84 c0                	test   %al,%al
    636f:	74 0c                	je     637d <safe_div_func_float_f_f+0x99>
    6371:	f3 0f 10 45 fc       	movss  -0x4(%rbp),%xmm0
    6376:	f3 0f 5e 45 f8       	divss  -0x8(%rbp),%xmm0
    637b:	eb 05                	jmp    6382 <safe_div_func_float_f_f+0x9e>
    637d:	f3 0f 10 45 fc       	movss  -0x4(%rbp),%xmm0
    6382:	5d                   	pop    %rbp
    6383:	c3                   	retq   

0000000000006384 <safe_add_func_double_f_f>:
    6384:	f3 0f 1e fa          	endbr64 
    6388:	55                   	push   %rbp
    6389:	48 89 e5             	mov    %rsp,%rbp
    638c:	f2 0f 11 45 f8       	movsd  %xmm0,-0x8(%rbp)
    6391:	f2 0f 11 4d f0       	movsd  %xmm1,-0x10(%rbp)
    6396:	f2 0f 10 4d f8       	movsd  -0x8(%rbp),%xmm1
    639b:	f2 0f 10 05 6d b4 00 	movsd  0xb46d(%rip),%xmm0        # 11810 <l_1480.4752+0x70>
    63a2:	00 
    63a3:	f2 0f 59 c8          	mulsd  %xmm0,%xmm1
    63a7:	f2 0f 10 55 f0       	movsd  -0x10(%rbp),%xmm2
    63ac:	f2 0f 10 05 5c b4 00 	movsd  0xb45c(%rip),%xmm0        # 11810 <l_1480.4752+0x70>
    63b3:	00 
    63b4:	f2 0f 59 c2          	mulsd  %xmm2,%xmm0
    63b8:	f2 0f 58 c1          	addsd  %xmm1,%xmm0
    63bc:	f3 0f 7e 0d 5c b4 00 	movq   0xb45c(%rip),%xmm1        # 11820 <l_1480.4752+0x80>
    63c3:	00 
    63c4:	66 0f 54 c1          	andpd  %xmm1,%xmm0
    63c8:	66 0f 2f 05 60 b4 00 	comisd 0xb460(%rip),%xmm0        # 11830 <l_1480.4752+0x90>
    63cf:	00 
    63d0:	76 07                	jbe    63d9 <safe_add_func_double_f_f+0x55>
    63d2:	f2 0f 10 45 f8       	movsd  -0x8(%rbp),%xmm0
    63d7:	eb 0a                	jmp    63e3 <safe_add_func_double_f_f+0x5f>
    63d9:	f2 0f 10 45 f8       	movsd  -0x8(%rbp),%xmm0
    63de:	f2 0f 58 45 f0       	addsd  -0x10(%rbp),%xmm0
    63e3:	5d                   	pop    %rbp
    63e4:	c3                   	retq   

00000000000063e5 <safe_sub_func_double_f_f>:
    63e5:	f3 0f 1e fa          	endbr64 
    63e9:	55                   	push   %rbp
    63ea:	48 89 e5             	mov    %rsp,%rbp
    63ed:	f2 0f 11 45 f8       	movsd  %xmm0,-0x8(%rbp)
    63f2:	f2 0f 11 4d f0       	movsd  %xmm1,-0x10(%rbp)
    63f7:	f2 0f 10 4d f8       	movsd  -0x8(%rbp),%xmm1
    63fc:	f2 0f 10 05 0c b4 00 	movsd  0xb40c(%rip),%xmm0        # 11810 <l_1480.4752+0x70>
    6403:	00 
    6404:	f2 0f 59 c1          	mulsd  %xmm1,%xmm0
    6408:	f2 0f 10 55 f0       	movsd  -0x10(%rbp),%xmm2
    640d:	f2 0f 10 0d fb b3 00 	movsd  0xb3fb(%rip),%xmm1        # 11810 <l_1480.4752+0x70>
    6414:	00 
    6415:	f2 0f 59 ca          	mulsd  %xmm2,%xmm1
    6419:	f2 0f 5c c1          	subsd  %xmm1,%xmm0
    641d:	f3 0f 7e 0d fb b3 00 	movq   0xb3fb(%rip),%xmm1        # 11820 <l_1480.4752+0x80>
    6424:	00 
    6425:	66 0f 54 c1          	andpd  %xmm1,%xmm0
    6429:	66 0f 2f 05 ff b3 00 	comisd 0xb3ff(%rip),%xmm0        # 11830 <l_1480.4752+0x90>
    6430:	00 
    6431:	76 07                	jbe    643a <safe_sub_func_double_f_f+0x55>
    6433:	f2 0f 10 45 f8       	movsd  -0x8(%rbp),%xmm0
    6438:	eb 0a                	jmp    6444 <safe_sub_func_double_f_f+0x5f>
    643a:	f2 0f 10 45 f8       	movsd  -0x8(%rbp),%xmm0
    643f:	f2 0f 5c 45 f0       	subsd  -0x10(%rbp),%xmm0
    6444:	5d                   	pop    %rbp
    6445:	c3                   	retq   

0000000000006446 <safe_mul_func_double_f_f>:
    6446:	f3 0f 1e fa          	endbr64 
    644a:	55                   	push   %rbp
    644b:	48 89 e5             	mov    %rsp,%rbp
    644e:	f2 0f 11 45 f8       	movsd  %xmm0,-0x8(%rbp)
    6453:	f2 0f 11 4d f0       	movsd  %xmm1,-0x10(%rbp)
    6458:	f2 0f 10 4d f8       	movsd  -0x8(%rbp),%xmm1
    645d:	f2 0f 10 05 d3 b3 00 	movsd  0xb3d3(%rip),%xmm0        # 11838 <l_1480.4752+0x98>
    6464:	00 
    6465:	f2 0f 59 c8          	mulsd  %xmm0,%xmm1
    6469:	f2 0f 10 55 f0       	movsd  -0x10(%rbp),%xmm2
    646e:	f2 0f 10 05 ca b3 00 	movsd  0xb3ca(%rip),%xmm0        # 11840 <l_1480.4752+0xa0>
    6475:	00 
    6476:	f2 0f 59 c2          	mulsd  %xmm2,%xmm0
    647a:	f2 0f 59 c1          	mulsd  %xmm1,%xmm0
    647e:	f3 0f 7e 0d 9a b3 00 	movq   0xb39a(%rip),%xmm1        # 11820 <l_1480.4752+0x80>
    6485:	00 
    6486:	66 0f 54 c1          	andpd  %xmm1,%xmm0
    648a:	66 0f 2f 05 b6 b3 00 	comisd 0xb3b6(%rip),%xmm0        # 11848 <l_1480.4752+0xa8>
    6491:	00 
    6492:	76 07                	jbe    649b <safe_mul_func_double_f_f+0x55>
    6494:	f2 0f 10 45 f8       	movsd  -0x8(%rbp),%xmm0
    6499:	eb 0a                	jmp    64a5 <safe_mul_func_double_f_f+0x5f>
    649b:	f2 0f 10 45 f8       	movsd  -0x8(%rbp),%xmm0
    64a0:	f2 0f 59 45 f0       	mulsd  -0x10(%rbp),%xmm0
    64a5:	5d                   	pop    %rbp
    64a6:	c3                   	retq   

00000000000064a7 <safe_div_func_double_f_f>:
    64a7:	f3 0f 1e fa          	endbr64 
    64ab:	55                   	push   %rbp
    64ac:	48 89 e5             	mov    %rsp,%rbp
    64af:	f2 0f 11 45 f8       	movsd  %xmm0,-0x8(%rbp)
    64b4:	f2 0f 11 4d f0       	movsd  %xmm1,-0x10(%rbp)
    64b9:	f2 0f 10 45 f0       	movsd  -0x10(%rbp),%xmm0
    64be:	f3 0f 7e 0d 5a b3 00 	movq   0xb35a(%rip),%xmm1        # 11820 <l_1480.4752+0x80>
    64c5:	00 
    64c6:	66 0f 54 c8          	andpd  %xmm0,%xmm1
    64ca:	f2 0f 10 05 7e b3 00 	movsd  0xb37e(%rip),%xmm0        # 11850 <l_1480.4752+0xb0>
    64d1:	00 
    64d2:	66 0f 2f c1          	comisd %xmm1,%xmm0
    64d6:	0f 97 c0             	seta   %al
    64d9:	83 f0 01             	xor    $0x1,%eax
    64dc:	84 c0                	test   %al,%al
    64de:	75 5a                	jne    653a <safe_div_func_double_f_f+0x93>
    64e0:	66 0f ef c0          	pxor   %xmm0,%xmm0
    64e4:	66 0f 2e 45 f0       	ucomisd -0x10(%rbp),%xmm0
    64e9:	7a 0b                	jp     64f6 <safe_div_func_double_f_f+0x4f>
    64eb:	66 0f ef c0          	pxor   %xmm0,%xmm0
    64ef:	66 0f 2e 45 f0       	ucomisd -0x10(%rbp),%xmm0
    64f4:	74 50                	je     6546 <safe_div_func_double_f_f+0x9f>
    64f6:	f2 0f 10 4d f8       	movsd  -0x8(%rbp),%xmm1
    64fb:	f2 0f 10 05 55 b3 00 	movsd  0xb355(%rip),%xmm0        # 11858 <l_1480.4752+0xb8>
    6502:	00 
    6503:	f2 0f 59 c1          	mulsd  %xmm1,%xmm0
    6507:	f2 0f 10 55 f0       	movsd  -0x10(%rbp),%xmm2
    650c:	f2 0f 10 0d 4c b3 00 	movsd  0xb34c(%rip),%xmm1        # 11860 <l_1480.4752+0xc0>
    6513:	00 
    6514:	f2 0f 59 ca          	mulsd  %xmm2,%xmm1
    6518:	f2 0f 5e c1          	divsd  %xmm1,%xmm0
    651c:	f3 0f 7e 0d fc b2 00 	movq   0xb2fc(%rip),%xmm1        # 11820 <l_1480.4752+0x80>
    6523:	00 
    6524:	66 0f 54 c1          	andpd  %xmm1,%xmm0
    6528:	66 0f 2f 05 38 b3 00 	comisd 0xb338(%rip),%xmm0        # 11868 <l_1480.4752+0xc8>
    652f:	00 
    6530:	0f 97 c0             	seta   %al
    6533:	83 f0 01             	xor    $0x1,%eax
    6536:	84 c0                	test   %al,%al
    6538:	74 0c                	je     6546 <safe_div_func_double_f_f+0x9f>
    653a:	f2 0f 10 45 f8       	movsd  -0x8(%rbp),%xmm0
    653f:	f2 0f 5e 45 f0       	divsd  -0x10(%rbp),%xmm0
    6544:	eb 05                	jmp    654b <safe_div_func_double_f_f+0xa4>
    6546:	f2 0f 10 45 f8       	movsd  -0x8(%rbp),%xmm0
    654b:	5d                   	pop    %rbp
    654c:	c3                   	retq   

000000000000654d <safe_convert_func_float_to_int32_t>:
    654d:	f3 0f 1e fa          	endbr64 
    6551:	55                   	push   %rbp
    6552:	48 89 e5             	mov    %rsp,%rbp
    6555:	f3 0f 11 45 fc       	movss  %xmm0,-0x4(%rbp)
    655a:	f3 0f 10 05 0e b3 00 	movss  0xb30e(%rip),%xmm0        # 11870 <l_1480.4752+0xd0>
    6561:	00 
    6562:	0f 2f 45 fc          	comiss -0x4(%rbp),%xmm0
    6566:	0f 93 c0             	setae  %al
    6569:	83 f0 01             	xor    $0x1,%eax
    656c:	84 c0                	test   %al,%al
    656e:	74 21                	je     6591 <safe_convert_func_float_to_int32_t+0x44>
    6570:	f3 0f 10 45 fc       	movss  -0x4(%rbp),%xmm0
    6575:	0f 2f 05 f8 b2 00 00 	comiss 0xb2f8(%rip),%xmm0        # 11874 <l_1480.4752+0xd4>
    657c:	0f 93 c0             	setae  %al
    657f:	83 f0 01             	xor    $0x1,%eax
    6582:	84 c0                	test   %al,%al
    6584:	74 0b                	je     6591 <safe_convert_func_float_to_int32_t+0x44>
    6586:	f3 0f 10 45 fc       	movss  -0x4(%rbp),%xmm0
    658b:	f3 0f 2c c0          	cvttss2si %xmm0,%eax
    658f:	eb 05                	jmp    6596 <safe_convert_func_float_to_int32_t+0x49>
    6591:	b8 ff ff ff 7f       	mov    $0x7fffffff,%eax
    6596:	5d                   	pop    %rbp
    6597:	c3                   	retq   

0000000000006598 <crc32_gentab>:
    6598:	f3 0f 1e fa          	endbr64 
    659c:	55                   	push   %rbp
    659d:	48 89 e5             	mov    %rsp,%rbp
    65a0:	c7 45 fc 20 83 b8 ed 	movl   $0xedb88320,-0x4(%rbp)
    65a7:	c7 45 f4 00 00 00 00 	movl   $0x0,-0xc(%rbp)
    65ae:	eb 51                	jmp    6601 <crc32_gentab+0x69>
    65b0:	8b 45 f4             	mov    -0xc(%rbp),%eax
    65b3:	89 45 f0             	mov    %eax,-0x10(%rbp)
    65b6:	c7 45 f8 08 00 00 00 	movl   $0x8,-0x8(%rbp)
    65bd:	eb 1e                	jmp    65dd <crc32_gentab+0x45>
    65bf:	8b 45 f0             	mov    -0x10(%rbp),%eax
    65c2:	83 e0 01             	and    $0x1,%eax
    65c5:	85 c0                	test   %eax,%eax
    65c7:	74 0d                	je     65d6 <crc32_gentab+0x3e>
    65c9:	8b 45 f0             	mov    -0x10(%rbp),%eax
    65cc:	d1 e8                	shr    %eax
    65ce:	33 45 fc             	xor    -0x4(%rbp),%eax
    65d1:	89 45 f0             	mov    %eax,-0x10(%rbp)
    65d4:	eb 03                	jmp    65d9 <crc32_gentab+0x41>
    65d6:	d1 6d f0             	shrl   -0x10(%rbp)
    65d9:	83 6d f8 01          	subl   $0x1,-0x8(%rbp)
    65dd:	83 7d f8 00          	cmpl   $0x0,-0x8(%rbp)
    65e1:	7f dc                	jg     65bf <crc32_gentab+0x27>
    65e3:	8b 45 f4             	mov    -0xc(%rbp),%eax
    65e6:	48 98                	cltq   
    65e8:	48 8d 0c 85 00 00 00 	lea    0x0(,%rax,4),%rcx
    65ef:	00 
    65f0:	48 8d 15 09 fb 00 00 	lea    0xfb09(%rip),%rdx        # 16100 <crc32_tab>
    65f7:	8b 45 f0             	mov    -0x10(%rbp),%eax
    65fa:	89 04 11             	mov    %eax,(%rcx,%rdx,1)
    65fd:	83 45 f4 01          	addl   $0x1,-0xc(%rbp)
    6601:	81 7d f4 ff 00 00 00 	cmpl   $0xff,-0xc(%rbp)
    6608:	7e a6                	jle    65b0 <crc32_gentab+0x18>
    660a:	90                   	nop
    660b:	90                   	nop
    660c:	5d                   	pop    %rbp
    660d:	c3                   	retq   

000000000000660e <crc32_byte>:
    660e:	f3 0f 1e fa          	endbr64 
    6612:	55                   	push   %rbp
    6613:	48 89 e5             	mov    %rsp,%rbp
    6616:	89 f8                	mov    %edi,%eax
    6618:	88 45 fc             	mov    %al,-0x4(%rbp)
    661b:	8b 05 ff d9 00 00    	mov    0xd9ff(%rip),%eax        # 14020 <crc32_context>
    6621:	c1 e8 08             	shr    $0x8,%eax
    6624:	89 c1                	mov    %eax,%ecx
    6626:	0f b6 55 fc          	movzbl -0x4(%rbp),%edx
    662a:	8b 05 f0 d9 00 00    	mov    0xd9f0(%rip),%eax        # 14020 <crc32_context>
    6630:	31 d0                	xor    %edx,%eax
    6632:	0f b6 c0             	movzbl %al,%eax
    6635:	89 c0                	mov    %eax,%eax
    6637:	48 8d 14 85 00 00 00 	lea    0x0(,%rax,4),%rdx
    663e:	00 
    663f:	48 8d 05 ba fa 00 00 	lea    0xfaba(%rip),%rax        # 16100 <crc32_tab>
    6646:	8b 04 02             	mov    (%rdx,%rax,1),%eax
    6649:	31 c8                	xor    %ecx,%eax
    664b:	89 05 cf d9 00 00    	mov    %eax,0xd9cf(%rip)        # 14020 <crc32_context>
    6651:	90                   	nop
    6652:	5d                   	pop    %rbp
    6653:	c3                   	retq   

0000000000006654 <crc32_8bytes>:
    6654:	f3 0f 1e fa          	endbr64 
    6658:	55                   	push   %rbp
    6659:	48 89 e5             	mov    %rsp,%rbp
    665c:	48 83 ec 08          	sub    $0x8,%rsp
    6660:	48 89 7d f8          	mov    %rdi,-0x8(%rbp)
    6664:	48 8b 45 f8          	mov    -0x8(%rbp),%rax
    6668:	0f b6 c0             	movzbl %al,%eax
    666b:	89 c7                	mov    %eax,%edi
    666d:	e8 9c ff ff ff       	callq  660e <crc32_byte>
    6672:	48 8b 45 f8          	mov    -0x8(%rbp),%rax
    6676:	48 c1 e8 08          	shr    $0x8,%rax
    667a:	0f b6 c0             	movzbl %al,%eax
    667d:	89 c7                	mov    %eax,%edi
    667f:	e8 8a ff ff ff       	callq  660e <crc32_byte>
    6684:	48 8b 45 f8          	mov    -0x8(%rbp),%rax
    6688:	48 c1 e8 10          	shr    $0x10,%rax
    668c:	0f b6 c0             	movzbl %al,%eax
    668f:	89 c7                	mov    %eax,%edi
    6691:	e8 78 ff ff ff       	callq  660e <crc32_byte>
    6696:	48 8b 45 f8          	mov    -0x8(%rbp),%rax
    669a:	48 c1 e8 18          	shr    $0x18,%rax
    669e:	0f b6 c0             	movzbl %al,%eax
    66a1:	89 c7                	mov    %eax,%edi
    66a3:	e8 66 ff ff ff       	callq  660e <crc32_byte>
    66a8:	48 8b 45 f8          	mov    -0x8(%rbp),%rax
    66ac:	48 c1 e8 20          	shr    $0x20,%rax
    66b0:	0f b6 c0             	movzbl %al,%eax
    66b3:	89 c7                	mov    %eax,%edi
    66b5:	e8 54 ff ff ff       	callq  660e <crc32_byte>
    66ba:	48 8b 45 f8          	mov    -0x8(%rbp),%rax
    66be:	48 c1 e8 28          	shr    $0x28,%rax
    66c2:	0f b6 c0             	movzbl %al,%eax
    66c5:	89 c7                	mov    %eax,%edi
    66c7:	e8 42 ff ff ff       	callq  660e <crc32_byte>
    66cc:	48 8b 45 f8          	mov    -0x8(%rbp),%rax
    66d0:	48 c1 e8 30          	shr    $0x30,%rax
    66d4:	0f b6 c0             	movzbl %al,%eax
    66d7:	89 c7                	mov    %eax,%edi
    66d9:	e8 30 ff ff ff       	callq  660e <crc32_byte>
    66de:	48 8b 45 f8          	mov    -0x8(%rbp),%rax
    66e2:	48 c1 e8 38          	shr    $0x38,%rax
    66e6:	0f b6 c0             	movzbl %al,%eax
    66e9:	89 c7                	mov    %eax,%edi
    66eb:	e8 1e ff ff ff       	callq  660e <crc32_byte>
    66f0:	90                   	nop
    66f1:	c9                   	leaveq 
    66f2:	c3                   	retq   

00000000000066f3 <transparent_crc>:
    66f3:	f3 0f 1e fa          	endbr64 
    66f7:	55                   	push   %rbp
    66f8:	48 89 e5             	mov    %rsp,%rbp
    66fb:	48 83 ec 20          	sub    $0x20,%rsp
    66ff:	48 89 7d f8          	mov    %rdi,-0x8(%rbp)
    6703:	48 89 75 f0          	mov    %rsi,-0x10(%rbp)
    6707:	89 55 ec             	mov    %edx,-0x14(%rbp)
    670a:	48 8b 45 f8          	mov    -0x8(%rbp),%rax
    670e:	48 89 c7             	mov    %rax,%rdi
    6711:	e8 3e ff ff ff       	callq  6654 <crc32_8bytes>
    6716:	83 7d ec 00          	cmpl   $0x0,-0x14(%rbp)
    671a:	74 22                	je     673e <transparent_crc+0x4b>
    671c:	8b 05 fe d8 00 00    	mov    0xd8fe(%rip),%eax        # 14020 <crc32_context>
    6722:	f7 d0                	not    %eax
    6724:	89 c2                	mov    %eax,%edx
    6726:	48 8b 45 f0          	mov    -0x10(%rbp),%rax
    672a:	48 89 c6             	mov    %rax,%rsi
    672d:	48 8d 3d fc 98 00 00 	lea    0x98fc(%rip),%rdi        # 10030 <_IO_stdin_used+0x30>
    6734:	b8 00 00 00 00       	mov    $0x0,%eax
    6739:	e8 42 e9 ff ff       	callq  5080 <printf@plt>
    673e:	90                   	nop
    673f:	c9                   	leaveq 
    6740:	c3                   	retq   

0000000000006741 <transparent_crc_bytes>:
    6741:	f3 0f 1e fa          	endbr64 
    6745:	55                   	push   %rbp
    6746:	48 89 e5             	mov    %rsp,%rbp
    6749:	48 83 ec 30          	sub    $0x30,%rsp
    674d:	48 89 7d e8          	mov    %rdi,-0x18(%rbp)
    6751:	89 75 e4             	mov    %esi,-0x1c(%rbp)
    6754:	48 89 55 d8          	mov    %rdx,-0x28(%rbp)
    6758:	89 4d e0             	mov    %ecx,-0x20(%rbp)
    675b:	c7 45 fc 00 00 00 00 	movl   $0x0,-0x4(%rbp)
    6762:	eb 1e                	jmp    6782 <transparent_crc_bytes+0x41>
    6764:	8b 45 fc             	mov    -0x4(%rbp),%eax
    6767:	48 63 d0             	movslq %eax,%rdx
    676a:	48 8b 45 e8          	mov    -0x18(%rbp),%rax
    676e:	48 01 d0             	add    %rdx,%rax
    6771:	0f b6 00             	movzbl (%rax),%eax
    6774:	0f b6 c0             	movzbl %al,%eax
    6777:	89 c7                	mov    %eax,%edi
    6779:	e8 90 fe ff ff       	callq  660e <crc32_byte>
    677e:	83 45 fc 01          	addl   $0x1,-0x4(%rbp)
    6782:	8b 45 fc             	mov    -0x4(%rbp),%eax
    6785:	3b 45 e4             	cmp    -0x1c(%rbp),%eax
    6788:	7c da                	jl     6764 <transparent_crc_bytes+0x23>
    678a:	83 7d e0 00          	cmpl   $0x0,-0x20(%rbp)
    678e:	74 22                	je     67b2 <transparent_crc_bytes+0x71>
    6790:	8b 05 8a d8 00 00    	mov    0xd88a(%rip),%eax        # 14020 <crc32_context>
    6796:	f7 d0                	not    %eax
    6798:	89 c2                	mov    %eax,%edx
    679a:	48 8b 45 d8          	mov    -0x28(%rbp),%rax
    679e:	48 89 c6             	mov    %rax,%rsi
    67a1:	48 8d 3d 88 98 00 00 	lea    0x9888(%rip),%rdi        # 10030 <_IO_stdin_used+0x30>
    67a8:	b8 00 00 00 00       	mov    $0x0,%eax
    67ad:	e8 ce e8 ff ff       	callq  5080 <printf@plt>
    67b2:	90                   	nop
    67b3:	c9                   	leaveq 
    67b4:	c3                   	retq   

00000000000067b5 <func_1>:
    67b5:	f3 0f 1e fa          	endbr64 
    67b9:	55                   	push   %rbp
    67ba:	48 89 e5             	mov    %rsp,%rbp
    67bd:	48 81 ec f0 02 00 00 	sub    $0x2f0,%rsp
    67c4:	64 48 8b 04 25 28 00 	mov    %fs:0x28,%rax
    67cb:	00 00 
    67cd:	48 89 45 f8          	mov    %rax,-0x8(%rbp)
    67d1:	31 c0                	xor    %eax,%eax
    67d3:	48 8d 05 4e d8 00 00 	lea    0xd84e(%rip),%rax        # 14028 <g_3>
    67da:	48 89 85 40 fd ff ff 	mov    %rax,-0x2c0(%rbp)
    67e1:	48 8d 05 40 d8 00 00 	lea    0xd840(%rip),%rax        # 14028 <g_3>
    67e8:	48 89 85 48 fd ff ff 	mov    %rax,-0x2b8(%rbp)
    67ef:	48 8d 05 3a d8 00 00 	lea    0xd83a(%rip),%rax        # 14030 <g_3+0x8>
    67f6:	48 89 85 50 fd ff ff 	mov    %rax,-0x2b0(%rbp)
    67fd:	48 8d 05 24 d8 00 00 	lea    0xd824(%rip),%rax        # 14028 <g_3>
    6804:	48 89 85 58 fd ff ff 	mov    %rax,-0x2a8(%rbp)
    680b:	48 c7 85 60 fd ff ff 	movq   $0x0,-0x2a0(%rbp)
    6812:	00 00 00 00 
    6816:	48 8d 05 0b d8 00 00 	lea    0xd80b(%rip),%rax        # 14028 <g_3>
    681d:	48 89 85 68 fd ff ff 	mov    %rax,-0x298(%rbp)
    6824:	48 c7 85 70 fd ff ff 	movq   $0x0,-0x290(%rbp)
    682b:	00 00 00 00 
    682f:	48 8d 05 f6 d7 00 00 	lea    0xd7f6(%rip),%rax        # 1402c <g_3+0x4>
    6836:	48 89 85 78 fd ff ff 	mov    %rax,-0x288(%rbp)
    683d:	66 c7 85 60 fe ff ff 	movw   $0x303,-0x1a0(%rbp)
    6844:	03 03 
    6846:	c6 85 62 fe ff ff 03 	movb   $0x3,-0x19e(%rbp)
    684d:	66 c7 85 63 fe ff ff 	movw   $0x2d2d,-0x19d(%rbp)
    6854:	2d 2d 
    6856:	c6 85 65 fe ff ff 2d 	movb   $0x2d,-0x19b(%rbp)
    685d:	66 c7 85 66 fe ff ff 	movw   $0x303,-0x19a(%rbp)
    6864:	03 03 
    6866:	c6 85 68 fe ff ff 03 	movb   $0x3,-0x198(%rbp)
    686d:	66 c7 85 69 fe ff ff 	movw   $0x2d2d,-0x197(%rbp)
    6874:	2d 2d 
    6876:	c6 85 6b fe ff ff 2d 	movb   $0x2d,-0x195(%rbp)
    687d:	66 c7 85 6c fe ff ff 	movw   $0x303,-0x194(%rbp)
    6884:	03 03 
    6886:	c6 85 6e fe ff ff 03 	movb   $0x3,-0x192(%rbp)
    688d:	66 c7 85 6f fe ff ff 	movw   $0x2d2d,-0x191(%rbp)
    6894:	2d 2d 
    6896:	c6 85 71 fe ff ff 2d 	movb   $0x2d,-0x18f(%rbp)
    689d:	66 c7 85 72 fe ff ff 	movw   $0x303,-0x18e(%rbp)
    68a4:	03 03 
    68a6:	c6 85 74 fe ff ff 03 	movb   $0x3,-0x18c(%rbp)
    68ad:	66 c7 85 75 fe ff ff 	movw   $0x2d2d,-0x18b(%rbp)
    68b4:	2d 2d 
    68b6:	c6 85 77 fe ff ff 2d 	movb   $0x2d,-0x189(%rbp)
    68bd:	66 c7 85 78 fe ff ff 	movw   $0x303,-0x188(%rbp)
    68c4:	03 03 
    68c6:	c6 85 7a fe ff ff 03 	movb   $0x3,-0x186(%rbp)
    68cd:	66 c7 85 7b fe ff ff 	movw   $0x2d2d,-0x185(%rbp)
    68d4:	2d 2d 
    68d6:	c6 85 7d fe ff ff 2d 	movb   $0x2d,-0x183(%rbp)
    68dd:	66 c7 85 7e fe ff ff 	movw   $0x303,-0x182(%rbp)
    68e4:	03 03 
    68e6:	c6 85 80 fe ff ff 03 	movb   $0x3,-0x180(%rbp)
    68ed:	66 c7 85 81 fe ff ff 	movw   $0x2d2d,-0x17f(%rbp)
    68f4:	2d 2d 
    68f6:	c6 85 83 fe ff ff 2d 	movb   $0x2d,-0x17d(%rbp)
    68fd:	48 8d 05 24 d7 00 00 	lea    0xd724(%rip),%rax        # 14028 <g_3>
    6904:	48 89 85 80 fd ff ff 	mov    %rax,-0x280(%rbp)
    690b:	48 8d 05 1a d7 00 00 	lea    0xd71a(%rip),%rax        # 1402c <g_3+0x4>
    6912:	48 89 85 88 fd ff ff 	mov    %rax,-0x278(%rbp)
    6919:	48 c7 85 90 fd ff ff 	movq   $0x0,-0x270(%rbp)
    6920:	00 00 00 00 
    6924:	48 8d 05 fd d6 00 00 	lea    0xd6fd(%rip),%rax        # 14028 <g_3>
    692b:	48 89 85 98 fd ff ff 	mov    %rax,-0x268(%rbp)
    6932:	48 8d 05 ef d6 00 00 	lea    0xd6ef(%rip),%rax        # 14028 <g_3>
    6939:	48 89 85 a0 fd ff ff 	mov    %rax,-0x260(%rbp)
    6940:	48 8d 05 e1 d6 00 00 	lea    0xd6e1(%rip),%rax        # 14028 <g_3>
    6947:	48 89 85 a8 fd ff ff 	mov    %rax,-0x258(%rbp)
    694e:	48 8d 05 d3 d6 00 00 	lea    0xd6d3(%rip),%rax        # 14028 <g_3>
    6955:	48 89 85 b0 fd ff ff 	mov    %rax,-0x250(%rbp)
    695c:	48 8d 05 c9 d6 00 00 	lea    0xd6c9(%rip),%rax        # 1402c <g_3+0x4>
    6963:	48 89 85 b8 fd ff ff 	mov    %rax,-0x248(%rbp)
    696a:	48 c7 85 c0 fd ff ff 	movq   $0x0,-0x240(%rbp)
    6971:	00 00 00 00 
    6975:	48 c7 85 c8 fd ff ff 	movq   $0x0,-0x238(%rbp)
    697c:	00 00 00 00 
    6980:	48 8d 05 a1 d6 00 00 	lea    0xd6a1(%rip),%rax        # 14028 <g_3>
    6987:	48 89 85 00 ff ff ff 	mov    %rax,-0x100(%rbp)
    698e:	48 c7 85 08 ff ff ff 	movq   $0x0,-0xf8(%rbp)
    6995:	00 00 00 00 
    6999:	48 8d 05 88 d6 00 00 	lea    0xd688(%rip),%rax        # 14028 <g_3>
    69a0:	48 89 85 10 ff ff ff 	mov    %rax,-0xf0(%rbp)
    69a7:	48 8d 05 7a d6 00 00 	lea    0xd67a(%rip),%rax        # 14028 <g_3>
    69ae:	48 89 85 18 ff ff ff 	mov    %rax,-0xe8(%rbp)
    69b5:	48 c7 85 20 ff ff ff 	movq   $0x0,-0xe0(%rbp)
    69bc:	00 00 00 00 
    69c0:	48 8d 05 61 d6 00 00 	lea    0xd661(%rip),%rax        # 14028 <g_3>
    69c7:	48 89 85 28 ff ff ff 	mov    %rax,-0xd8(%rbp)
    69ce:	48 8d 05 53 d6 00 00 	lea    0xd653(%rip),%rax        # 14028 <g_3>
    69d5:	48 89 85 30 ff ff ff 	mov    %rax,-0xd0(%rbp)
    69dc:	48 c7 85 38 ff ff ff 	movq   $0x0,-0xc8(%rbp)
    69e3:	00 00 00 00 
    69e7:	48 8d 05 3a d6 00 00 	lea    0xd63a(%rip),%rax        # 14028 <g_3>
    69ee:	48 89 85 40 ff ff ff 	mov    %rax,-0xc0(%rbp)
    69f5:	48 8d 05 2c d6 00 00 	lea    0xd62c(%rip),%rax        # 14028 <g_3>
    69fc:	48 89 85 48 ff ff ff 	mov    %rax,-0xb8(%rbp)
    6a03:	48 c7 85 50 ff ff ff 	movq   $0x0,-0xb0(%rbp)
    6a0a:	00 00 00 00 
    6a0e:	48 8d 05 13 d6 00 00 	lea    0xd613(%rip),%rax        # 14028 <g_3>
    6a15:	48 89 85 58 ff ff ff 	mov    %rax,-0xa8(%rbp)
    6a1c:	48 8d 05 05 d6 00 00 	lea    0xd605(%rip),%rax        # 14028 <g_3>
    6a23:	48 89 85 60 ff ff ff 	mov    %rax,-0xa0(%rbp)
    6a2a:	48 c7 85 68 ff ff ff 	movq   $0x0,-0x98(%rbp)
    6a31:	00 00 00 00 
    6a35:	48 8d 05 ec d5 00 00 	lea    0xd5ec(%rip),%rax        # 14028 <g_3>
    6a3c:	48 89 85 70 ff ff ff 	mov    %rax,-0x90(%rbp)
    6a43:	48 8d 05 de d5 00 00 	lea    0xd5de(%rip),%rax        # 14028 <g_3>
    6a4a:	48 89 85 78 ff ff ff 	mov    %rax,-0x88(%rbp)
    6a51:	48 c7 45 80 00 00 00 	movq   $0x0,-0x80(%rbp)
    6a58:	00 
    6a59:	48 8d 05 c8 d5 00 00 	lea    0xd5c8(%rip),%rax        # 14028 <g_3>
    6a60:	48 89 45 88          	mov    %rax,-0x78(%rbp)
    6a64:	48 8d 05 bd d5 00 00 	lea    0xd5bd(%rip),%rax        # 14028 <g_3>
    6a6b:	48 89 45 90          	mov    %rax,-0x70(%rbp)
    6a6f:	48 c7 45 98 00 00 00 	movq   $0x0,-0x68(%rbp)
    6a76:	00 
    6a77:	48 8d 05 aa d5 00 00 	lea    0xd5aa(%rip),%rax        # 14028 <g_3>
    6a7e:	48 89 45 a0          	mov    %rax,-0x60(%rbp)
    6a82:	48 8d 05 9f d5 00 00 	lea    0xd59f(%rip),%rax        # 14028 <g_3>
    6a89:	48 89 45 a8          	mov    %rax,-0x58(%rbp)
    6a8d:	48 c7 45 b0 00 00 00 	movq   $0x0,-0x50(%rbp)
    6a94:	00 
    6a95:	48 8d 05 8c d5 00 00 	lea    0xd58c(%rip),%rax        # 14028 <g_3>
    6a9c:	48 89 45 b8          	mov    %rax,-0x48(%rbp)
    6aa0:	48 8d 05 81 d5 00 00 	lea    0xd581(%rip),%rax        # 14028 <g_3>
    6aa7:	48 89 45 c0          	mov    %rax,-0x40(%rbp)
    6aab:	48 c7 45 c8 00 00 00 	movq   $0x0,-0x38(%rbp)
    6ab2:	00 
    6ab3:	48 8d 05 6e d5 00 00 	lea    0xd56e(%rip),%rax        # 14028 <g_3>
    6aba:	48 89 45 d0          	mov    %rax,-0x30(%rbp)
    6abe:	48 8d 05 63 d5 00 00 	lea    0xd563(%rip),%rax        # 14028 <g_3>
    6ac5:	48 89 45 d8          	mov    %rax,-0x28(%rbp)
    6ac9:	48 c7 45 e0 00 00 00 	movq   $0x0,-0x20(%rbp)
    6ad0:	00 
    6ad1:	48 8d 05 50 d5 00 00 	lea    0xd550(%rip),%rax        # 14028 <g_3>
    6ad8:	48 89 45 e8          	mov    %rax,-0x18(%rbp)
    6adc:	66 c7 85 16 fd ff ff 	movw   $0x5102,-0x2ea(%rbp)
    6ae3:	02 51 
    6ae5:	c7 85 1c fd ff ff 11 	movl   $0x1d621011,-0x2e4(%rbp)
    6aec:	10 62 1d 
    6aef:	48 8d 85 60 fe ff ff 	lea    -0x1a0(%rbp),%rax
    6af6:	48 83 c0 13          	add    $0x13,%rax
    6afa:	48 89 85 c0 fe ff ff 	mov    %rax,-0x140(%rbp)
    6b01:	48 8d 85 60 fe ff ff 	lea    -0x1a0(%rbp),%rax
    6b08:	48 83 c0 02          	add    $0x2,%rax
    6b0c:	48 89 85 c8 fe ff ff 	mov    %rax,-0x138(%rbp)
    6b13:	48 8d 85 60 fe ff ff 	lea    -0x1a0(%rbp),%rax
    6b1a:	48 83 c0 13          	add    $0x13,%rax
    6b1e:	48 89 85 d0 fe ff ff 	mov    %rax,-0x130(%rbp)
    6b25:	48 8d 85 60 fe ff ff 	lea    -0x1a0(%rbp),%rax
    6b2c:	48 83 c0 02          	add    $0x2,%rax
    6b30:	48 89 85 d8 fe ff ff 	mov    %rax,-0x128(%rbp)
    6b37:	48 8d 85 60 fe ff ff 	lea    -0x1a0(%rbp),%rax
    6b3e:	48 83 c0 13          	add    $0x13,%rax
    6b42:	48 89 85 e0 fe ff ff 	mov    %rax,-0x120(%rbp)
    6b49:	48 8d 85 60 fe ff ff 	lea    -0x1a0(%rbp),%rax
    6b50:	48 83 c0 02          	add    $0x2,%rax
    6b54:	48 89 85 e8 fe ff ff 	mov    %rax,-0x118(%rbp)
    6b5b:	48 8d 85 60 fe ff ff 	lea    -0x1a0(%rbp),%rax
    6b62:	48 83 c0 13          	add    $0x13,%rax
    6b66:	48 89 85 f0 fe ff ff 	mov    %rax,-0x110(%rbp)
    6b6d:	48 8d 85 60 fe ff ff 	lea    -0x1a0(%rbp),%rax
    6b74:	48 83 c0 02          	add    $0x2,%rax
    6b78:	48 89 85 f8 fe ff ff 	mov    %rax,-0x108(%rbp)
    6b7f:	48 8d 05 ba f9 00 00 	lea    0xf9ba(%rip),%rax        # 16540 <g_1479>
    6b86:	48 89 85 d0 fd ff ff 	mov    %rax,-0x230(%rbp)
    6b8d:	48 b8 cc f9 0e 45 98 	movabs $0x7032dc98450ef9cc,%rax
    6b94:	dc 32 70 
    6b97:	48 89 85 28 fd ff ff 	mov    %rax,-0x2d8(%rbp)
    6b9e:	48 8d 05 3b e6 00 00 	lea    0xe63b(%rip),%rax        # 151e0 <g_242>
    6ba5:	48 89 85 d8 fd ff ff 	mov    %rax,-0x228(%rbp)
    6bac:	c7 85 90 fe ff ff f6 	movl   $0xfffffff6,-0x170(%rbp)
    6bb3:	ff ff ff 
    6bb6:	c7 85 94 fe ff ff 37 	movl   $0x94737a37,-0x16c(%rbp)
    6bbd:	7a 73 94 
    6bc0:	c7 85 98 fe ff ff 37 	movl   $0x94737a37,-0x168(%rbp)
    6bc7:	7a 73 94 
    6bca:	c7 85 9c fe ff ff f6 	movl   $0xfffffff6,-0x164(%rbp)
    6bd1:	ff ff ff 
    6bd4:	c7 85 a0 fe ff ff 37 	movl   $0x94737a37,-0x160(%rbp)
    6bdb:	7a 73 94 
    6bde:	c7 85 a4 fe ff ff 37 	movl   $0x94737a37,-0x15c(%rbp)
    6be5:	7a 73 94 
    6be8:	c7 85 a8 fe ff ff f6 	movl   $0xfffffff6,-0x158(%rbp)
    6bef:	ff ff ff 
    6bf2:	c7 85 ac fe ff ff 37 	movl   $0x94737a37,-0x154(%rbp)
    6bf9:	7a 73 94 
    6bfc:	c7 85 b0 fe ff ff 37 	movl   $0x94737a37,-0x150(%rbp)
    6c03:	7a 73 94 
    6c06:	c7 85 b4 fe ff ff f6 	movl   $0xfffffff6,-0x14c(%rbp)
    6c0d:	ff ff ff 
    6c10:	48 c7 85 e0 fd ff ff 	movq   $0x0,-0x220(%rbp)
    6c17:	00 00 00 00 
    6c1b:	48 c7 85 30 fd ff ff 	movq   $0x0,-0x2d0(%rbp)
    6c22:	00 00 00 00 
    6c26:	c7 85 20 fd ff ff cc 	movl   $0x96e439cc,-0x2e0(%rbp)
    6c2d:	39 e4 96 
    6c30:	48 8d 05 d9 f8 00 00 	lea    0xf8d9(%rip),%rax        # 16510 <g_663>
    6c37:	48 89 85 e8 fd ff ff 	mov    %rax,-0x218(%rbp)
    6c3e:	48 8d 05 32 d4 00 00 	lea    0xd432(%rip),%rax        # 14077 <g_172+0x3>
    6c45:	48 89 85 38 fd ff ff 	mov    %rax,-0x2c8(%rbp)
    6c4c:	48 8d 85 20 fe ff ff 	lea    -0x1e0(%rbp),%rax
    6c53:	48 83 c0 08          	add    $0x8,%rax
    6c57:	48 89 85 f0 fd ff ff 	mov    %rax,-0x210(%rbp)
    6c5e:	c7 85 24 fd ff ff ff 	movl   $0xffffffff,-0x2dc(%rbp)
    6c65:	ff ff ff 
    6c68:	c7 85 40 fe ff ff b4 	movl   $0xff82ffb4,-0x1c0(%rbp)
    6c6f:	ff 82 ff 
    6c72:	c6 85 44 fe ff ff b4 	movb   $0xb4,-0x1bc(%rbp)
    6c79:	c7 85 45 fe ff ff 6d 	movl   $0x329e326d,-0x1bb(%rbp)
    6c80:	32 9e 32 
    6c83:	c6 85 49 fe ff ff 6d 	movb   $0x6d,-0x1b7(%rbp)
    6c8a:	c7 85 4a fe ff ff b4 	movl   $0xff82ffb4,-0x1b6(%rbp)
    6c91:	ff 82 ff 
    6c94:	c6 85 4e fe ff ff b4 	movb   $0xb4,-0x1b2(%rbp)
    6c9b:	c7 85 4f fe ff ff 6d 	movl   $0x329e326d,-0x1b1(%rbp)
    6ca2:	32 9e 32 
    6ca5:	c6 85 53 fe ff ff 6d 	movb   $0x6d,-0x1ad(%rbp)
    6cac:	c7 85 54 fe ff ff b4 	movl   $0xff82ffb4,-0x1ac(%rbp)
    6cb3:	ff 82 ff 
    6cb6:	c6 85 58 fe ff ff b4 	movb   $0xb4,-0x1a8(%rbp)
    6cbd:	c7 85 59 fe ff ff 6d 	movl   $0x329e326d,-0x1a7(%rbp)
    6cc4:	32 9e 32 
    6cc7:	c6 85 5d fe ff ff 6d 	movb   $0x6d,-0x1a3(%rbp)
    6cce:	48 8d 05 cb d4 00 00 	lea    0xd4cb(%rip),%rax        # 141a0 <g_661>
    6cd5:	48 89 85 f8 fd ff ff 	mov    %rax,-0x208(%rbp)
    6cdc:	48 8d 05 e5 d9 00 00 	lea    0xd9e5(%rip),%rax        # 146c8 <g_2356>
    6ce3:	48 89 85 00 fe ff ff 	mov    %rax,-0x200(%rbp)
    6cea:	c7 85 18 fd ff ff 00 	movl   $0x0,-0x2e8(%rbp)
    6cf1:	00 00 00 
    6cf4:	eb 19                	jmp    6d0f <func_1+0x55a>
    6cf6:	8b 85 18 fd ff ff    	mov    -0x2e8(%rbp),%eax
    6cfc:	48 98                	cltq   
    6cfe:	66 c7 84 45 0e fe ff 	movw   $0xffff,-0x1f2(%rbp,%rax,2)
    6d05:	ff ff ff 
    6d08:	83 85 18 fd ff ff 01 	addl   $0x1,-0x2e8(%rbp)
    6d0f:	83 bd 18 fd ff ff 00 	cmpl   $0x0,-0x2e8(%rbp)
    6d16:	7e de                	jle    6cf6 <func_1+0x541>
    6d18:	c7 85 18 fd ff ff 00 	movl   $0x0,-0x2e8(%rbp)
    6d1f:	00 00 00 
    6d22:	eb 1e                	jmp    6d42 <func_1+0x58d>
    6d24:	8b 85 18 fd ff ff    	mov    -0x2e8(%rbp),%eax
    6d2a:	48 98                	cltq   
    6d2c:	48 8d 95 30 fd ff ff 	lea    -0x2d0(%rbp),%rdx
    6d33:	48 89 94 c5 10 fe ff 	mov    %rdx,-0x1f0(%rbp,%rax,8)
    6d3a:	ff 
    6d3b:	83 85 18 fd ff ff 01 	addl   $0x1,-0x2e8(%rbp)
    6d42:	83 bd 18 fd ff ff 01 	cmpl   $0x1,-0x2e8(%rbp)
    6d49:	7e d9                	jle    6d24 <func_1+0x56f>
    6d4b:	c7 85 18 fd ff ff 00 	movl   $0x0,-0x2e8(%rbp)
    6d52:	00 00 00 
    6d55:	eb 1e                	jmp    6d75 <func_1+0x5c0>
    6d57:	8b 85 18 fd ff ff    	mov    -0x2e8(%rbp),%eax
    6d5d:	48 98                	cltq   
    6d5f:	48 8d 95 38 fd ff ff 	lea    -0x2c8(%rbp),%rdx
    6d66:	48 89 94 c5 20 fe ff 	mov    %rdx,-0x1e0(%rbp,%rax,8)
    6d6d:	ff 
    6d6e:	83 85 18 fd ff ff 01 	addl   $0x1,-0x2e8(%rbp)
    6d75:	83 bd 18 fd ff ff 02 	cmpl   $0x2,-0x2e8(%rbp)
    6d7c:	7e d9                	jle    6d57 <func_1+0x5a2>
    6d7e:	83 ad 1c fd ff ff 01 	subl   $0x1,-0x2e4(%rbp)
    6d85:	48 8b 05 74 ee 00 00 	mov    0xee74(%rip),%rax        # 15c00 <g_2091>
    6d8c:	48 8b 00             	mov    (%rax),%rax
    6d8f:	48 8b 4d f8          	mov    -0x8(%rbp),%rcx
    6d93:	64 48 33 0c 25 28 00 	xor    %fs:0x28,%rcx
    6d9a:	00 00 
    6d9c:	74 05                	je     6da3 <func_1+0x5ee>
    6d9e:	e8 cd e2 ff ff       	callq  5070 <__stack_chk_fail@plt>
    6da3:	c9                   	leaveq 
    6da4:	c3                   	retq   

0000000000006da5 <func_48>:
    6da5:	f3 0f 1e fa          	endbr64 
    6da9:	55                   	push   %rbp
    6daa:	48 89 e5             	mov    %rsp,%rbp
    6dad:	41 56                	push   %r14
    6daf:	41 55                	push   %r13
    6db1:	41 54                	push   %r12
    6db3:	53                   	push   %rbx
    6db4:	48 81 ec 70 01 00 00 	sub    $0x170,%rsp
    6dbb:	89 f8                	mov    %edi,%eax
    6dbd:	48 89 b5 80 fe ff ff 	mov    %rsi,-0x180(%rbp)
    6dc4:	48 89 95 78 fe ff ff 	mov    %rdx,-0x188(%rbp)
    6dcb:	89 8d 88 fe ff ff    	mov    %ecx,-0x178(%rbp)
    6dd1:	66 89 85 8c fe ff ff 	mov    %ax,-0x174(%rbp)
    6dd8:	64 48 8b 04 25 28 00 	mov    %fs:0x28,%rax
    6ddf:	00 00 
    6de1:	48 89 45 d8          	mov    %rax,-0x28(%rbp)
    6de5:	31 c0                	xor    %eax,%eax
    6de7:	48 c7 85 a8 fe ff ff 	movq   $0x0,-0x158(%rbp)
    6dee:	00 00 00 00 
    6df2:	48 8d 05 47 d2 00 00 	lea    0xd247(%rip),%rax        # 14040 <g_71>
    6df9:	48 89 85 b0 fe ff ff 	mov    %rax,-0x150(%rbp)
    6e00:	48 c7 85 b8 fe ff ff 	movq   $0x0,-0x148(%rbp)
    6e07:	00 00 00 00 
    6e0b:	48 8d 05 1a d2 00 00 	lea    0xd21a(%rip),%rax        # 1402c <g_3+0x4>
    6e12:	48 89 85 c0 fe ff ff 	mov    %rax,-0x140(%rbp)
    6e19:	48 8d 05 08 d2 00 00 	lea    0xd208(%rip),%rax        # 14028 <g_3>
    6e20:	48 89 85 c8 fe ff ff 	mov    %rax,-0x138(%rbp)
    6e27:	48 8d 05 2e d2 00 00 	lea    0xd22e(%rip),%rax        # 1405c <g_129>
    6e2e:	48 89 85 d0 fe ff ff 	mov    %rax,-0x130(%rbp)
    6e35:	c7 85 a4 fe ff ff 04 	movl   $0x98cca804,-0x15c(%rbp)
    6e3c:	a8 cc 98 
    6e3f:	48 8d 05 fa d1 00 00 	lea    0xd1fa(%rip),%rax        # 14040 <g_71>
    6e46:	48 89 85 d8 fe ff ff 	mov    %rax,-0x128(%rbp)
    6e4d:	48 8d 05 d4 d1 00 00 	lea    0xd1d4(%rip),%rax        # 14028 <g_3>
    6e54:	48 89 85 00 ff ff ff 	mov    %rax,-0x100(%rbp)
    6e5b:	48 8d 05 c6 d1 00 00 	lea    0xd1c6(%rip),%rax        # 14028 <g_3>
    6e62:	48 89 85 08 ff ff ff 	mov    %rax,-0xf8(%rbp)
    6e69:	48 8d 05 b8 d1 00 00 	lea    0xd1b8(%rip),%rax        # 14028 <g_3>
    6e70:	48 89 85 10 ff ff ff 	mov    %rax,-0xf0(%rbp)
    6e77:	48 8d 05 aa d1 00 00 	lea    0xd1aa(%rip),%rax        # 14028 <g_3>
    6e7e:	48 89 85 18 ff ff ff 	mov    %rax,-0xe8(%rbp)
    6e85:	48 8d 05 9c d1 00 00 	lea    0xd19c(%rip),%rax        # 14028 <g_3>
    6e8c:	48 89 85 20 ff ff ff 	mov    %rax,-0xe0(%rbp)
    6e93:	48 8d 05 8e d1 00 00 	lea    0xd18e(%rip),%rax        # 14028 <g_3>
    6e9a:	48 89 85 28 ff ff ff 	mov    %rax,-0xd8(%rbp)
    6ea1:	48 8d 05 80 d1 00 00 	lea    0xd180(%rip),%rax        # 14028 <g_3>
    6ea8:	48 89 85 30 ff ff ff 	mov    %rax,-0xd0(%rbp)
    6eaf:	48 8d 05 72 d1 00 00 	lea    0xd172(%rip),%rax        # 14028 <g_3>
    6eb6:	48 89 85 38 ff ff ff 	mov    %rax,-0xc8(%rbp)
    6ebd:	48 8d 05 64 d1 00 00 	lea    0xd164(%rip),%rax        # 14028 <g_3>
    6ec4:	48 89 85 40 ff ff ff 	mov    %rax,-0xc0(%rbp)
    6ecb:	48 b8 19 e5 7a ea 76 	movabs $0x7bee5776ea7ae519,%rax
    6ed2:	57 ee 7b 
    6ed5:	48 89 85 e0 fe ff ff 	mov    %rax,-0x120(%rbp)
    6edc:	c6 85 50 ff ff ff df 	movb   $0xdf,-0xb0(%rbp)
    6ee3:	c6 85 51 ff ff ff 28 	movb   $0x28,-0xaf(%rbp)
    6eea:	c6 85 52 ff ff ff ad 	movb   $0xad,-0xae(%rbp)
    6ef1:	c6 85 53 ff ff ff 08 	movb   $0x8,-0xad(%rbp)
    6ef8:	c6 85 54 ff ff ff 28 	movb   $0x28,-0xac(%rbp)
    6eff:	c6 85 55 ff ff ff 08 	movb   $0x8,-0xab(%rbp)
    6f06:	c6 85 56 ff ff ff ad 	movb   $0xad,-0xaa(%rbp)
    6f0d:	c6 85 57 ff ff ff 28 	movb   $0x28,-0xa9(%rbp)
    6f14:	c6 85 58 ff ff ff df 	movb   $0xdf,-0xa8(%rbp)
    6f1b:	c6 85 59 ff ff ff fe 	movb   $0xfe,-0xa7(%rbp)
    6f22:	c6 85 5a ff ff ff ff 	movb   $0xff,-0xa6(%rbp)
    6f29:	c6 85 5b ff ff ff ff 	movb   $0xff,-0xa5(%rbp)
    6f30:	c6 85 5c ff ff ff 82 	movb   $0x82,-0xa4(%rbp)
    6f37:	c6 85 5d ff ff ff ff 	movb   $0xff,-0xa3(%rbp)
    6f3e:	c6 85 5e ff ff ff 82 	movb   $0x82,-0xa2(%rbp)
    6f45:	c6 85 5f ff ff ff ff 	movb   $0xff,-0xa1(%rbp)
    6f4c:	c6 85 60 ff ff ff ff 	movb   $0xff,-0xa0(%rbp)
    6f53:	c6 85 61 ff ff ff fe 	movb   $0xfe,-0x9f(%rbp)
    6f5a:	c6 85 62 ff ff ff df 	movb   $0xdf,-0x9e(%rbp)
    6f61:	c6 85 63 ff ff ff 28 	movb   $0x28,-0x9d(%rbp)
    6f68:	c6 85 64 ff ff ff ad 	movb   $0xad,-0x9c(%rbp)
    6f6f:	c6 85 65 ff ff ff 08 	movb   $0x8,-0x9b(%rbp)
    6f76:	c6 85 66 ff ff ff 28 	movb   $0x28,-0x9a(%rbp)
    6f7d:	c6 85 67 ff ff ff 08 	movb   $0x8,-0x99(%rbp)
    6f84:	c6 85 68 ff ff ff ad 	movb   $0xad,-0x98(%rbp)
    6f8b:	c6 85 69 ff ff ff 28 	movb   $0x28,-0x97(%rbp)
    6f92:	c6 85 6a ff ff ff df 	movb   $0xdf,-0x96(%rbp)
    6f99:	c6 85 6b ff ff ff fe 	movb   $0xfe,-0x95(%rbp)
    6fa0:	c6 85 6c ff ff ff ff 	movb   $0xff,-0x94(%rbp)
    6fa7:	c6 85 6d ff ff ff ff 	movb   $0xff,-0x93(%rbp)
    6fae:	c6 85 6e ff ff ff 82 	movb   $0x82,-0x92(%rbp)
    6fb5:	c6 85 6f ff ff ff ff 	movb   $0xff,-0x91(%rbp)
    6fbc:	c6 85 70 ff ff ff 82 	movb   $0x82,-0x90(%rbp)
    6fc3:	c6 85 71 ff ff ff ff 	movb   $0xff,-0x8f(%rbp)
    6fca:	c6 85 72 ff ff ff ff 	movb   $0xff,-0x8e(%rbp)
    6fd1:	c6 85 73 ff ff ff fe 	movb   $0xfe,-0x8d(%rbp)
    6fd8:	c6 85 74 ff ff ff df 	movb   $0xdf,-0x8c(%rbp)
    6fdf:	c6 85 75 ff ff ff 28 	movb   $0x28,-0x8b(%rbp)
    6fe6:	c6 85 76 ff ff ff ad 	movb   $0xad,-0x8a(%rbp)
    6fed:	c6 85 77 ff ff ff 08 	movb   $0x8,-0x89(%rbp)
    6ff4:	c6 85 78 ff ff ff 28 	movb   $0x28,-0x88(%rbp)
    6ffb:	c6 85 79 ff ff ff 08 	movb   $0x8,-0x87(%rbp)
    7002:	c6 85 7a ff ff ff ad 	movb   $0xad,-0x86(%rbp)
    7009:	c6 85 7b ff ff ff 28 	movb   $0x28,-0x85(%rbp)
    7010:	c6 85 7c ff ff ff df 	movb   $0xdf,-0x84(%rbp)
    7017:	c6 85 7d ff ff ff fe 	movb   $0xfe,-0x83(%rbp)
    701e:	c6 85 7e ff ff ff ff 	movb   $0xff,-0x82(%rbp)
    7025:	c6 85 7f ff ff ff ff 	movb   $0xff,-0x81(%rbp)
    702c:	c6 45 80 82          	movb   $0x82,-0x80(%rbp)
    7030:	c6 45 81 ff          	movb   $0xff,-0x7f(%rbp)
    7034:	c6 45 82 82          	movb   $0x82,-0x7e(%rbp)
    7038:	c6 45 83 ff          	movb   $0xff,-0x7d(%rbp)
    703c:	c6 45 84 ff          	movb   $0xff,-0x7c(%rbp)
    7040:	c6 45 85 fe          	movb   $0xfe,-0x7b(%rbp)
    7044:	c6 45 86 df          	movb   $0xdf,-0x7a(%rbp)
    7048:	c6 45 87 28          	movb   $0x28,-0x79(%rbp)
    704c:	c6 45 88 ad          	movb   $0xad,-0x78(%rbp)
    7050:	c6 45 89 08          	movb   $0x8,-0x77(%rbp)
    7054:	c6 45 8a 28          	movb   $0x28,-0x76(%rbp)
    7058:	c6 45 8b 08          	movb   $0x8,-0x75(%rbp)
    705c:	c6 45 8c ad          	movb   $0xad,-0x74(%rbp)
    7060:	c6 45 8d 28          	movb   $0x28,-0x73(%rbp)
    7064:	c6 45 8e df          	movb   $0xdf,-0x72(%rbp)
    7068:	c6 45 8f fe          	movb   $0xfe,-0x71(%rbp)
    706c:	c6 45 90 ff          	movb   $0xff,-0x70(%rbp)
    7070:	c6 45 91 ff          	movb   $0xff,-0x6f(%rbp)
    7074:	c6 45 92 82          	movb   $0x82,-0x6e(%rbp)
    7078:	c6 45 93 ff          	movb   $0xff,-0x6d(%rbp)
    707c:	c6 45 94 82          	movb   $0x82,-0x6c(%rbp)
    7080:	c6 45 95 ff          	movb   $0xff,-0x6b(%rbp)
    7084:	c6 45 96 ff          	movb   $0xff,-0x6a(%rbp)
    7088:	c6 45 97 fe          	movb   $0xfe,-0x69(%rbp)
    708c:	c6 45 98 df          	movb   $0xdf,-0x68(%rbp)
    7090:	c6 45 99 28          	movb   $0x28,-0x67(%rbp)
    7094:	c6 45 9a ad          	movb   $0xad,-0x66(%rbp)
    7098:	c6 45 9b 08          	movb   $0x8,-0x65(%rbp)
    709c:	c6 45 9c 28          	movb   $0x28,-0x64(%rbp)
    70a0:	c6 45 9d 08          	movb   $0x8,-0x63(%rbp)
    70a4:	c6 45 9e ad          	movb   $0xad,-0x62(%rbp)
    70a8:	c6 45 9f 28          	movb   $0x28,-0x61(%rbp)
    70ac:	c6 45 a0 82          	movb   $0x82,-0x60(%rbp)
    70b0:	c6 45 a1 a1          	movb   $0xa1,-0x5f(%rbp)
    70b4:	c6 45 a2 fe          	movb   $0xfe,-0x5e(%rbp)
    70b8:	c6 45 a3 02          	movb   $0x2,-0x5d(%rbp)
    70bc:	c6 45 a4 34          	movb   $0x34,-0x5c(%rbp)
    70c0:	c6 45 a5 fe          	movb   $0xfe,-0x5b(%rbp)
    70c4:	c6 45 a6 34          	movb   $0x34,-0x5a(%rbp)
    70c8:	c6 45 a7 02          	movb   $0x2,-0x59(%rbp)
    70cc:	c6 45 a8 fe          	movb   $0xfe,-0x58(%rbp)
    70d0:	c6 45 a9 a1          	movb   $0xa1,-0x57(%rbp)
    70d4:	c6 45 aa 82          	movb   $0x82,-0x56(%rbp)
    70d8:	c6 45 ab df          	movb   $0xdf,-0x55(%rbp)
    70dc:	c6 45 ac e4          	movb   $0xe4,-0x54(%rbp)
    70e0:	c6 45 ad 5a          	movb   $0x5a,-0x53(%rbp)
    70e4:	c6 45 ae df          	movb   $0xdf,-0x52(%rbp)
    70e8:	c6 45 af 5a          	movb   $0x5a,-0x51(%rbp)
    70ec:	c6 45 b0 e4          	movb   $0xe4,-0x50(%rbp)
    70f0:	c6 45 b1 df          	movb   $0xdf,-0x4f(%rbp)
    70f4:	c6 45 b2 82          	movb   $0x82,-0x4e(%rbp)
    70f8:	c6 45 b3 a1          	movb   $0xa1,-0x4d(%rbp)
    70fc:	c6 45 b4 fe          	movb   $0xfe,-0x4c(%rbp)
    7100:	c6 45 b5 02          	movb   $0x2,-0x4b(%rbp)
    7104:	c6 45 b6 34          	movb   $0x34,-0x4a(%rbp)
    7108:	c6 45 b7 fe          	movb   $0xfe,-0x49(%rbp)
    710c:	c6 45 b8 34          	movb   $0x34,-0x48(%rbp)
    7110:	c6 45 b9 02          	movb   $0x2,-0x47(%rbp)
    7114:	c6 45 ba fe          	movb   $0xfe,-0x46(%rbp)
    7118:	c6 45 bb a1          	movb   $0xa1,-0x45(%rbp)
    711c:	c6 45 bc 82          	movb   $0x82,-0x44(%rbp)
    7120:	c6 45 bd df          	movb   $0xdf,-0x43(%rbp)
    7124:	c6 45 be e4          	movb   $0xe4,-0x42(%rbp)
    7128:	c6 45 bf 5a          	movb   $0x5a,-0x41(%rbp)
    712c:	c6 45 c0 df          	movb   $0xdf,-0x40(%rbp)
    7130:	c6 45 c1 5a          	movb   $0x5a,-0x3f(%rbp)
    7134:	c6 45 c2 e4          	movb   $0xe4,-0x3e(%rbp)
    7138:	c6 45 c3 df          	movb   $0xdf,-0x3d(%rbp)
    713c:	c6 45 c4 82          	movb   $0x82,-0x3c(%rbp)
    7140:	c6 45 c5 a1          	movb   $0xa1,-0x3b(%rbp)
    7144:	c6 45 c6 fe          	movb   $0xfe,-0x3a(%rbp)
    7148:	c6 45 c7 02          	movb   $0x2,-0x39(%rbp)
    714c:	c6 45 c8 34          	movb   $0x34,-0x38(%rbp)
    7150:	c6 45 c9 fe          	movb   $0xfe,-0x37(%rbp)
    7154:	c6 45 ca 34          	movb   $0x34,-0x36(%rbp)
    7158:	c6 45 cb 02          	movb   $0x2,-0x35(%rbp)
    715c:	c6 45 cc fe          	movb   $0xfe,-0x34(%rbp)
    7160:	c6 45 cd a1          	movb   $0xa1,-0x33(%rbp)
    7164:	48 8d 05 75 d0 00 00 	lea    0xd075(%rip),%rax        # 141e0 <g_1016>
    716b:	48 89 85 e8 fe ff ff 	mov    %rax,-0x118(%rbp)
    7172:	48 8d 05 67 cf 00 00 	lea    0xcf67(%rip),%rax        # 140e0 <g_228>
    7179:	48 89 85 f0 fe ff ff 	mov    %rax,-0x110(%rbp)
    7180:	66 c7 85 9e fe ff ff 	movw   $0x1,-0x162(%rbp)
    7187:	01 00 
    7189:	c7 85 a0 fe ff ff 00 	movl   $0x0,-0x160(%rbp)
    7190:	00 00 00 
    7193:	eb 19                	jmp    71ae <func_48+0x409>
    7195:	8b 85 a0 fe ff ff    	mov    -0x160(%rbp),%eax
    719b:	48 98                	cltq   
    719d:	66 c7 84 45 f8 fe ff 	movw   $0x8257,-0x108(%rbp,%rax,2)
    71a4:	ff 57 82 
    71a7:	83 85 a0 fe ff ff 01 	addl   $0x1,-0x160(%rbp)
    71ae:	83 bd a0 fe ff ff 03 	cmpl   $0x3,-0x160(%rbp)
    71b5:	7e de                	jle    7195 <func_48+0x3f0>
    71b7:	48 83 85 e0 fe ff ff 	addq   $0x1,-0x120(%rbp)
    71be:	01 
    71bf:	be 07 00 00 00       	mov    $0x7,%esi
    71c4:	bf b6 ff ff ff       	mov    $0xffffffb6,%edi
    71c9:	e8 67 e1 ff ff       	callq  5335 <safe_rshift_func_int8_t_s_s>
    71ce:	66 0f be d0          	movsbw %al,%dx
    71d2:	48 8b 05 cf e8 00 00 	mov    0xe8cf(%rip),%rax        # 15aa8 <g_1001>
    71d9:	48 8b 00             	mov    (%rax),%rax
    71dc:	48 8b 00             	mov    (%rax),%rax
    71df:	0f b7 00             	movzwl (%rax),%eax
    71e2:	66 39 c2             	cmp    %ax,%dx
    71e5:	0f 9e c0             	setle  %al
    71e8:	0f b6 c0             	movzbl %al,%eax
    71eb:	be 00 00 00 00       	mov    $0x0,%esi
    71f0:	89 c7                	mov    %eax,%edi
    71f2:	e8 bf e3 ff ff       	callq  55b6 <safe_add_func_int32_t_s_s>
    71f7:	0f bf 95 8c fe ff ff 	movswl -0x174(%rbp),%edx
    71fe:	39 d0                	cmp    %edx,%eax
    7200:	0f 9c c2             	setl   %dl
    7203:	48 8b 05 7e e8 00 00 	mov    0xe87e(%rip),%rax        # 15a88 <g_927>
    720a:	0f b6 d2             	movzbl %dl,%edx
    720d:	66 89 10             	mov    %dx,(%rax)
    7210:	48 8b 85 d0 fe ff ff 	mov    -0x130(%rbp),%rax
    7217:	8b 00                	mov    (%rax),%eax
    7219:	0f b6 d8             	movzbl %al,%ebx
    721c:	8b 05 06 d0 00 00    	mov    0xd006(%rip),%eax        # 14228 <g_1345>
    7222:	41 89 c6             	mov    %eax,%r14d
    7225:	48 8b 05 ac e9 00 00 	mov    0xe9ac(%rip),%rax        # 15bd8 <g_1757>
    722c:	0f b6 00             	movzbl (%rax),%eax
    722f:	44 0f b6 e0          	movzbl %al,%r12d
    7233:	48 8b 85 e8 fe ff ff 	mov    -0x118(%rbp),%rax
    723a:	8b 10                	mov    (%rax),%edx
    723c:	0f bf 85 8c fe ff ff 	movswl -0x174(%rbp),%eax
    7243:	09 c2                	or     %eax,%edx
    7245:	48 8b 85 e8 fe ff ff 	mov    -0x118(%rbp),%rax
    724c:	89 10                	mov    %edx,(%rax)
    724e:	48 8b 85 e8 fe ff ff 	mov    -0x118(%rbp),%rax
    7255:	44 8b 28             	mov    (%rax),%r13d
    7258:	8b 85 88 fe ff ff    	mov    -0x178(%rbp),%eax
    725e:	0f be c0             	movsbl %al,%eax
    7261:	be 69 00 00 00       	mov    $0x69,%esi
    7266:	89 c7                	mov    %eax,%edi
    7268:	e8 a5 df ff ff       	callq  5212 <safe_mul_func_int8_t_s_s>
    726d:	0f be d0             	movsbl %al,%edx
    7270:	48 8b 85 c8 fe ff ff 	mov    -0x138(%rbp),%rax
    7277:	8b 00                	mov    (%rax),%eax
    7279:	39 c2                	cmp    %eax,%edx
    727b:	0f 94 c0             	sete   %al
    727e:	0f b6 c0             	movzbl %al,%eax
    7281:	41 39 c5             	cmp    %eax,%r13d
    7284:	0f 93 c0             	setae  %al
    7287:	0f b6 c0             	movzbl %al,%eax
    728a:	be 02 fc ff ff       	mov    $0xfffffc02,%esi
    728f:	89 c7                	mov    %eax,%edi
    7291:	e8 5f e1 ff ff       	callq  53f5 <safe_mul_func_int16_t_s_s>
    7296:	48 8b 85 d0 fe ff ff 	mov    -0x130(%rbp),%rax
    729d:	8b 00                	mov    (%rax),%eax
    729f:	85 c0                	test   %eax,%eax
    72a1:	74 07                	je     72aa <func_48+0x505>
    72a3:	b8 01 00 00 00       	mov    $0x1,%eax
    72a8:	eb 05                	jmp    72af <func_48+0x50a>
    72aa:	b8 00 00 00 00       	mov    $0x0,%eax
    72af:	0f b6 c0             	movzbl %al,%eax
    72b2:	44 89 e6             	mov    %r12d,%esi
    72b5:	89 c7                	mov    %eax,%edi
    72b7:	e8 1f e9 ff ff       	callq  5bdb <safe_div_func_uint8_t_u_u>
    72bc:	48 8b 85 78 fe ff ff 	mov    -0x188(%rbp),%rax
    72c3:	0f b7 c0             	movzwl %ax,%eax
    72c6:	83 e0 01             	and    $0x1,%eax
    72c9:	89 c2                	mov    %eax,%edx
    72cb:	8b 85 88 fe ff ff    	mov    -0x178(%rbp),%eax
    72d1:	89 c6                	mov    %eax,%esi
    72d3:	89 d7                	mov    %edx,%edi
    72d5:	e8 6e eb ff ff       	callq  5e48 <safe_rshift_func_uint16_t_u_s>
    72da:	44 89 f6             	mov    %r14d,%esi
    72dd:	bf 00 00 00 00       	mov    $0x0,%edi
    72e2:	e8 d1 eb ff ff       	callq  5eb8 <safe_add_func_uint32_t_u_u>
    72e7:	89 c2                	mov    %eax,%edx
    72e9:	48 8b 85 f0 fe ff ff 	mov    -0x110(%rbp),%rax
    72f0:	88 10                	mov    %dl,(%rax)
    72f2:	48 8b 85 f0 fe ff ff 	mov    -0x110(%rbp),%rax
    72f9:	0f b6 00             	movzbl (%rax),%eax
    72fc:	0f b6 c0             	movzbl %al,%eax
    72ff:	89 de                	mov    %ebx,%esi
    7301:	89 c7                	mov    %eax,%edi
    7303:	e8 8b e8 ff ff       	callq  5b93 <safe_mul_func_uint8_t_u_u>
    7308:	b8 01 00 00 00       	mov    $0x1,%eax
    730d:	66 21 85 9e fe ff ff 	and    %ax,-0x162(%rbp)
    7314:	0f b7 85 9e fe ff ff 	movzwl -0x162(%rbp),%eax
    731b:	0f b7 95 fa fe ff ff 	movzwl -0x106(%rbp),%edx
    7322:	09 d0                	or     %edx,%eax
    7324:	66 89 85 fa fe ff ff 	mov    %ax,-0x106(%rbp)
    732b:	8b 85 88 fe ff ff    	mov    -0x178(%rbp),%eax
    7331:	48 98                	cltq   
    7333:	48 8b 4d d8          	mov    -0x28(%rbp),%rcx
    7337:	64 48 33 0c 25 28 00 	xor    %fs:0x28,%rcx
    733e:	00 00 
    7340:	74 05                	je     7347 <func_48+0x5a2>
    7342:	e8 29 dd ff ff       	callq  5070 <__stack_chk_fail@plt>
    7347:	48 81 c4 70 01 00 00 	add    $0x170,%rsp
    734e:	5b                   	pop    %rbx
    734f:	41 5c                	pop    %r12
    7351:	41 5d                	pop    %r13
    7353:	41 5e                	pop    %r14
    7355:	5d                   	pop    %rbp
    7356:	c3                   	retq   

0000000000007357 <func_53>:
    7357:	f3 0f 1e fa          	endbr64 
    735b:	55                   	push   %rbp
    735c:	48 89 e5             	mov    %rsp,%rbp
    735f:	41 57                	push   %r15
    7361:	41 56                	push   %r14
    7363:	41 55                	push   %r13
    7365:	41 54                	push   %r12
    7367:	53                   	push   %rbx
    7368:	48 81 ec 00 10 00 00 	sub    $0x1000,%rsp
    736f:	48 83 0c 24 00       	orq    $0x0,(%rsp)
    7374:	48 81 ec 78 01 00 00 	sub    $0x178,%rsp
    737b:	89 f8                	mov    %edi,%eax
    737d:	48 89 b5 70 ee ff ff 	mov    %rsi,-0x1190(%rbp)
    7384:	48 89 95 68 ee ff ff 	mov    %rdx,-0x1198(%rbp)
    738b:	88 85 7c ee ff ff    	mov    %al,-0x1184(%rbp)
    7391:	64 48 8b 04 25 28 00 	mov    %fs:0x28,%rax
    7398:	00 00 
    739a:	48 89 45 c8          	mov    %rax,-0x38(%rbp)
    739e:	31 c0                	xor    %eax,%eax
    73a0:	c7 85 8c ee ff ff 78 	movl   $0xd8b10578,-0x1174(%rbp)
    73a7:	05 b1 d8 
    73aa:	c7 85 90 ee ff ff d2 	movl   $0x17616bd2,-0x1170(%rbp)
    73b1:	6b 61 17 
    73b4:	c7 85 c0 ee ff ff 98 	movl   $0xd0effc98,-0x1140(%rbp)
    73bb:	fc ef d0 
    73be:	c7 85 c4 ee ff ff 27 	movl   $0xcb4c1927,-0x113c(%rbp)
    73c5:	19 4c cb 
    73c8:	48 c7 85 68 ef ff ff 	movq   $0xfffffffffffffffb,-0x1098(%rbp)
    73cf:	fb ff ff ff 
    73d3:	48 b8 fe 69 9b d5 cd 	movabs $0x1356dfcdd59b69fe,%rax
    73da:	df 56 13 
    73dd:	48 89 85 70 ef ff ff 	mov    %rax,-0x1090(%rbp)
    73e4:	48 c7 85 d0 ef ff ff 	movq   $0x0,-0x1030(%rbp)
    73eb:	00 00 00 00 
    73ef:	c7 85 94 ee ff ff 06 	movl   $0x6,-0x116c(%rbp)
    73f6:	00 00 00 
    73f9:	48 8d 05 98 e7 00 00 	lea    0xe798(%rip),%rax        # 15b98 <g_1515>
    7400:	48 89 85 d8 ef ff ff 	mov    %rax,-0x1028(%rbp)
    7407:	48 8d 05 ca cc 00 00 	lea    0xccca(%rip),%rax        # 140d8 <g_224>
    740e:	48 89 85 78 ef ff ff 	mov    %rax,-0x1088(%rbp)
    7415:	c6 85 82 ee ff ff ce 	movb   $0xce,-0x117e(%rbp)
    741c:	48 8d 85 50 f5 ff ff 	lea    -0xab0(%rbp),%rax
    7423:	48 8d 15 56 8c 00 00 	lea    0x8c56(%rip),%rdx        # 10080 <g_2039+0x20>
    742a:	b9 5a 00 00 00       	mov    $0x5a,%ecx
    742f:	48 89 c7             	mov    %rax,%rdi
    7432:	48 89 d6             	mov    %rdx,%rsi
    7435:	f3 48 a5             	rep movsq %ds:(%rsi),%es:(%rdi)
    7438:	c7 85 10 f3 ff ff fe 	movl   $0x43fffe,-0xcf0(%rbp)
    743f:	ff 43 00 
    7442:	c7 85 14 f3 ff ff 1c 	movl   $0xff01ff1c,-0xcec(%rbp)
    7449:	ff 01 ff 
    744c:	c7 85 18 f3 ff ff ff 	movl   $0xfffe43ff,-0xce8(%rbp)
    7453:	43 fe ff 
    7456:	c7 85 1c f3 ff ff fe 	movl   $0xfffe,-0xce4(%rbp)
    745d:	ff 00 00 
    7460:	c7 85 20 f3 ff ff ff 	movl   $0x1c01ffff,-0xce0(%rbp)
    7467:	ff 01 1c 
    746a:	c7 85 24 f3 ff ff ff 	movl   $0xff0043ff,-0xcdc(%rbp)
    7471:	43 00 ff 
    7474:	c7 85 28 f3 ff ff fe 	movl   $0xfe1cfe,-0xcd8(%rbp)
    747b:	1c fe 00 
    747e:	c7 85 2c f3 ff ff ff 	movl   $0xff011cff,-0xcd4(%rbp)
    7485:	1c 01 ff 
    7488:	c7 85 30 f3 ff ff 1c 	movl   $0x1c43431c,-0xcd0(%rbp)
    748f:	43 43 1c 
    7492:	c7 85 34 f3 ff ff fe 	movl   $0x43fffe,-0xccc(%rbp)
    7499:	ff 43 00 
    749c:	c7 85 38 f3 ff ff 1c 	movl   $0xff01ff1c,-0xcc8(%rbp)
    74a3:	ff 01 ff 
    74a6:	c7 85 3c f3 ff ff ff 	movl   $0xfffe43ff,-0xcc4(%rbp)
    74ad:	43 fe ff 
    74b0:	c7 85 40 f3 ff ff fe 	movl   $0xfffe,-0xcc0(%rbp)
    74b7:	ff 00 00 
    74ba:	c7 85 44 f3 ff ff ff 	movl   $0x4301ffff,-0xcbc(%rbp)
    74c1:	ff 01 43 
    74c4:	c7 85 48 f3 ff ff fe 	movl   $0xfeea01fe,-0xcb8(%rbp)
    74cb:	01 ea fe 
    74ce:	c7 85 4c f3 ff ff cb 	movl   $0xeacb43cb,-0xcb4(%rbp)
    74d5:	43 cb ea 
    74d8:	c7 85 50 f3 ff ff 00 	movl   $0xfeff4300,-0xcb0(%rbp)
    74df:	43 ff fe 
    74e2:	c7 85 54 f3 ff ff 43 	movl   $0x43010143,-0xcac(%rbp)
    74e9:	01 01 43 
    74ec:	c7 85 58 f3 ff ff cb 	movl   $0xea01fecb,-0xca8(%rbp)
    74f3:	fe 01 ea 
    74f6:	c7 85 5c f3 ff ff 43 	movl   $0xff0043,-0xca4(%rbp)
    74fd:	00 ff 00 
    7500:	c7 85 60 f3 ff ff 00 	movl   $0xcb0100,-0xca0(%rbp)
    7507:	01 cb 00 
    750a:	c7 85 64 f3 ff ff cb 	movl   $0xeaea00cb,-0xc9c(%rbp)
    7511:	00 ea ea 
    7514:	c7 85 68 f3 ff ff fe 	movl   $0x43fffefe,-0xc98(%rbp)
    751b:	fe ff 43 
    751e:	c7 85 6c f3 ff ff fe 	movl   $0xfeea01fe,-0xc94(%rbp)
    7525:	01 ea fe 
    7528:	c7 85 70 f3 ff ff cb 	movl   $0xeacb43cb,-0xc90(%rbp)
    752f:	43 cb ea 
    7532:	c7 85 74 f3 ff ff 00 	movl   $0xfeff4300,-0xc8c(%rbp)
    7539:	43 ff fe 
    753c:	c7 85 78 f3 ff ff 43 	movl   $0x43010143,-0xc88(%rbp)
    7543:	01 01 43 
    7546:	c7 85 7c f3 ff ff cb 	movl   $0xea01fecb,-0xc84(%rbp)
    754d:	fe 01 ea 
    7550:	c7 85 80 f3 ff ff 43 	movl   $0xff0043,-0xc80(%rbp)
    7557:	00 ff 00 
    755a:	c7 85 84 f3 ff ff 00 	movl   $0xcb0100,-0xc7c(%rbp)
    7561:	01 cb 00 
    7564:	c7 85 88 f3 ff ff cb 	movl   $0xeaea00cb,-0xc78(%rbp)
    756b:	00 ea ea 
    756e:	c7 85 8c f3 ff ff fe 	movl   $0x43fffefe,-0xc74(%rbp)
    7575:	fe ff 43 
    7578:	c7 85 90 f3 ff ff fe 	movl   $0xfeea01fe,-0xc70(%rbp)
    757f:	01 ea fe 
    7582:	c7 85 94 f3 ff ff cb 	movl   $0xeacb43cb,-0xc6c(%rbp)
    7589:	43 cb ea 
    758c:	c7 85 98 f3 ff ff 00 	movl   $0xfeff4300,-0xc68(%rbp)
    7593:	43 ff fe 
    7596:	48 8d 05 d8 ca 00 00 	lea    0xcad8(%rip),%rax        # 14075 <g_172+0x1>
    759d:	48 89 85 70 f2 ff ff 	mov    %rax,-0xd90(%rbp)
    75a4:	48 8d 05 35 cb 00 00 	lea    0xcb35(%rip),%rax        # 140e0 <g_228>
    75ab:	48 89 85 78 f2 ff ff 	mov    %rax,-0xd88(%rbp)
    75b2:	48 8d 85 10 f3 ff ff 	lea    -0xcf0(%rbp),%rax
    75b9:	48 83 c0 02          	add    $0x2,%rax
    75bd:	48 89 85 80 f2 ff ff 	mov    %rax,-0xd80(%rbp)
    75c4:	48 8d 05 15 cb 00 00 	lea    0xcb15(%rip),%rax        # 140e0 <g_228>
    75cb:	48 89 85 88 f2 ff ff 	mov    %rax,-0xd78(%rbp)
    75d2:	48 8d 05 9c ca 00 00 	lea    0xca9c(%rip),%rax        # 14075 <g_172+0x1>
    75d9:	48 89 85 90 f2 ff ff 	mov    %rax,-0xd70(%rbp)
    75e0:	48 8d 05 8e ca 00 00 	lea    0xca8e(%rip),%rax        # 14075 <g_172+0x1>
    75e7:	48 89 85 98 f2 ff ff 	mov    %rax,-0xd68(%rbp)
    75ee:	48 8d 05 eb ca 00 00 	lea    0xcaeb(%rip),%rax        # 140e0 <g_228>
    75f5:	48 89 85 a0 f2 ff ff 	mov    %rax,-0xd60(%rbp)
    75fc:	48 8d 85 10 f3 ff ff 	lea    -0xcf0(%rbp),%rax
    7603:	48 83 c0 02          	add    $0x2,%rax
    7607:	48 89 85 a8 f2 ff ff 	mov    %rax,-0xd58(%rbp)
    760e:	48 8d 05 cb ca 00 00 	lea    0xcacb(%rip),%rax        # 140e0 <g_228>
    7615:	48 89 85 b0 f2 ff ff 	mov    %rax,-0xd50(%rbp)
    761c:	48 8d 05 52 ca 00 00 	lea    0xca52(%rip),%rax        # 14075 <g_172+0x1>
    7623:	48 89 85 b8 f2 ff ff 	mov    %rax,-0xd48(%rbp)
    762a:	48 8d 85 70 f2 ff ff 	lea    -0xd90(%rbp),%rax
    7631:	48 83 c0 18          	add    $0x18,%rax
    7635:	48 89 85 80 ef ff ff 	mov    %rax,-0x1080(%rbp)
    763c:	48 8d 85 80 ef ff ff 	lea    -0x1080(%rbp),%rax
    7643:	48 89 85 c0 f2 ff ff 	mov    %rax,-0xd40(%rbp)
    764a:	48 8d 85 80 ef ff ff 	lea    -0x1080(%rbp),%rax
    7651:	48 89 85 c8 f2 ff ff 	mov    %rax,-0xd38(%rbp)
    7658:	48 8d 85 80 ef ff ff 	lea    -0x1080(%rbp),%rax
    765f:	48 89 85 d0 f2 ff ff 	mov    %rax,-0xd30(%rbp)
    7666:	48 8d 85 80 ef ff ff 	lea    -0x1080(%rbp),%rax
    766d:	48 89 85 d8 f2 ff ff 	mov    %rax,-0xd28(%rbp)
    7674:	48 8d 85 80 ef ff ff 	lea    -0x1080(%rbp),%rax
    767b:	48 89 85 e0 f2 ff ff 	mov    %rax,-0xd20(%rbp)
    7682:	48 8d 85 80 ef ff ff 	lea    -0x1080(%rbp),%rax
    7689:	48 89 85 e8 f2 ff ff 	mov    %rax,-0xd18(%rbp)
    7690:	48 8d 85 80 ef ff ff 	lea    -0x1080(%rbp),%rax
    7697:	48 89 85 f0 f2 ff ff 	mov    %rax,-0xd10(%rbp)
    769e:	48 8d 85 80 ef ff ff 	lea    -0x1080(%rbp),%rax
    76a5:	48 89 85 f8 f2 ff ff 	mov    %rax,-0xd08(%rbp)
    76ac:	48 8d 85 80 ef ff ff 	lea    -0x1080(%rbp),%rax
    76b3:	48 89 85 00 f3 ff ff 	mov    %rax,-0xd00(%rbp)
    76ba:	48 8d 85 80 ef ff ff 	lea    -0x1080(%rbp),%rax
    76c1:	48 89 85 08 f3 ff ff 	mov    %rax,-0xcf8(%rbp)
    76c8:	c7 85 b8 ee ff ff ff 	movl   $0xffffffff,-0x1148(%rbp)
    76cf:	ff ff ff 
    76d2:	48 c7 85 c8 ef ff ff 	movq   $0x0,-0x1038(%rbp)
    76d9:	00 00 00 00 
    76dd:	c7 85 bc ee ff ff 01 	movl   $0x1,-0x1144(%rbp)
    76e4:	00 00 00 
    76e7:	c7 85 b4 ee ff ff 00 	movl   $0x0,-0x114c(%rbp)
    76ee:	00 00 00 
    76f1:	eb 19                	jmp    770c <func_53+0x3b5>
    76f3:	8b 85 b4 ee ff ff    	mov    -0x114c(%rbp),%eax
    76f9:	48 98                	cltq   
    76fb:	66 c7 84 45 fc f0 ff 	movw   $0x1,-0xf04(%rbp,%rax,2)
    7702:	ff 01 00 
    7705:	83 85 b4 ee ff ff 01 	addl   $0x1,-0x114c(%rbp)
    770c:	83 bd b4 ee ff ff 03 	cmpl   $0x3,-0x114c(%rbp)
    7713:	7e de                	jle    76f3 <func_53+0x39c>
    7715:	c7 85 b4 ee ff ff 00 	movl   $0x0,-0x114c(%rbp)
    771c:	00 00 00 
    771f:	eb 1a                	jmp    773b <func_53+0x3e4>
    7721:	8b 85 b4 ee ff ff    	mov    -0x114c(%rbp),%eax
    7727:	48 98                	cltq   
    7729:	c7 84 85 04 f1 ff ff 	movl   $0xe9e63c08,-0xefc(%rbp,%rax,4)
    7730:	08 3c e6 e9 
    7734:	83 85 b4 ee ff ff 01 	addl   $0x1,-0x114c(%rbp)
    773b:	83 bd b4 ee ff ff 02 	cmpl   $0x2,-0x114c(%rbp)
    7742:	7e dd                	jle    7721 <func_53+0x3ca>
    7744:	c7 85 b4 ee ff ff 00 	movl   $0x0,-0x114c(%rbp)
    774b:	00 00 00 
    774e:	eb 21                	jmp    7771 <func_53+0x41a>
    7750:	8b 85 b4 ee ff ff    	mov    -0x114c(%rbp),%eax
    7756:	48 98                	cltq   
    7758:	48 b9 9f 43 f7 f5 d2 	movabs $0x2a0d80d2f5f7439f,%rcx
    775f:	80 0d 2a 
    7762:	48 89 8c c5 f0 f0 ff 	mov    %rcx,-0xf10(%rbp,%rax,8)
    7769:	ff 
    776a:	83 85 b4 ee ff ff 01 	addl   $0x1,-0x114c(%rbp)
    7771:	83 bd b4 ee ff ff 00 	cmpl   $0x0,-0x114c(%rbp)
    7778:	7e d6                	jle    7750 <func_53+0x3f9>
    777a:	66 c7 05 69 c9 00 00 	movw   $0x0,0xc969(%rip)        # 140ec <g_308>
    7781:	00 00 
    7783:	e9 64 01 00 00       	jmpq   78ec <func_53+0x595>
    7788:	48 b8 82 ac 33 9f 24 	movabs $0x3639e3249f33ac82,%rax
    778f:	e3 39 36 
    7792:	48 89 85 c0 ef ff ff 	mov    %rax,-0x1040(%rbp)
    7799:	48 8d 05 d4 c9 00 00 	lea    0xc9d4(%rip),%rax        # 14174 <g_518+0x4>
    77a0:	48 89 85 20 f8 ff ff 	mov    %rax,-0x7e0(%rbp)
    77a7:	48 8d 05 c6 c9 00 00 	lea    0xc9c6(%rip),%rax        # 14174 <g_518+0x4>
    77ae:	48 89 85 28 f8 ff ff 	mov    %rax,-0x7d8(%rbp)
    77b5:	48 8d 05 b8 c9 00 00 	lea    0xc9b8(%rip),%rax        # 14174 <g_518+0x4>
    77bc:	48 89 85 30 f8 ff ff 	mov    %rax,-0x7d0(%rbp)
    77c3:	48 8d 05 aa c9 00 00 	lea    0xc9aa(%rip),%rax        # 14174 <g_518+0x4>
    77ca:	48 89 85 38 f8 ff ff 	mov    %rax,-0x7c8(%rbp)
    77d1:	48 8d 05 18 c9 00 00 	lea    0xc918(%rip),%rax        # 140f0 <g_385>
    77d8:	48 89 85 b8 ef ff ff 	mov    %rax,-0x1048(%rbp)
    77df:	c6 85 81 ee ff ff 66 	movb   $0x66,-0x117f(%rbp)
    77e6:	66 c7 85 70 f4 ff ff 	movw   $0x6703,-0xb90(%rbp)
    77ed:	03 67 
    77ef:	66 c7 85 72 f4 ff ff 	movw   $0x97b2,-0xb8e(%rbp)
    77f6:	b2 97 
    77f8:	66 c7 85 74 f4 ff ff 	movw   $0x97b2,-0xb8c(%rbp)
    77ff:	b2 97 
    7801:	66 c7 85 76 f4 ff ff 	movw   $0x6703,-0xb8a(%rbp)
    7808:	03 67 
    780a:	66 c7 85 78 f4 ff ff 	movw   $0x97b2,-0xb88(%rbp)
    7811:	b2 97 
    7813:	66 c7 85 7a f4 ff ff 	movw   $0x97b2,-0xb86(%rbp)
    781a:	b2 97 
    781c:	48 8b 05 15 ca 00 00 	mov    0xca15(%rip),%rax        # 14238 <g_1506>
    7823:	48 0f be 85 7c ee ff 	movsbq -0x1184(%rbp),%rax
    782a:	ff 
    782b:	48 89 c6             	mov    %rax,%rsi
    782e:	bf 01 00 00 00       	mov    $0x1,%edi
    7833:	e8 09 e0 ff ff       	callq  5841 <safe_add_func_int64_t_s_s>
    7838:	89 85 8c ee ff ff    	mov    %eax,-0x1174(%rbp)
    783e:	8b 85 8c ee ff ff    	mov    -0x1174(%rbp),%eax
    7844:	85 c0                	test   %eax,%eax
    7846:	74 68                	je     78b0 <func_53+0x559>
    7848:	c7 85 e0 ee ff ff 05 	movl   $0x87593005,-0x1120(%rbp)
    784f:	30 59 87 
    7852:	c7 85 e4 ee ff ff 02 	movl   $0x2,-0x111c(%rbp)
    7859:	00 00 00 
    785c:	c7 85 e8 ee ff ff fc 	movl   $0xfffffffc,-0x1118(%rbp)
    7863:	ff ff ff 
    7866:	c7 85 ec ee ff ff 00 	movl   $0x0,-0x1114(%rbp)
    786d:	00 00 00 
    7870:	c7 85 f0 ee ff ff e4 	movl   $0xaff4d2e4,-0x1110(%rbp)
    7877:	d2 f4 af 
    787a:	48 8b 05 1f e3 00 00 	mov    0xe31f(%rip),%rax        # 15ba0 <g_1514>
    7881:	48 8b 95 b8 ef ff ff 	mov    -0x1048(%rbp),%rdx
    7888:	48 89 10             	mov    %rdx,(%rax)
    788b:	48 8b 85 68 ef ff ff 	mov    -0x1098(%rbp),%rax
    7892:	48 83 c0 01          	add    $0x1,%rax
    7896:	48 89 85 68 ef ff ff 	mov    %rax,-0x1098(%rbp)
    789d:	48 83 bd c0 ef ff ff 	cmpq   $0x0,-0x1040(%rbp)
    78a4:	00 
    78a5:	75 58                	jne    78ff <func_53+0x5a8>
    78a7:	80 85 81 ee ff ff 01 	addb   $0x1,-0x117f(%rbp)
    78ae:	eb 0e                	jmp    78be <func_53+0x567>
    78b0:	48 8b 05 f9 e1 00 00 	mov    0xe1f9(%rip),%rax        # 15ab0 <g_1019>
    78b7:	8b 10                	mov    (%rax),%edx
    78b9:	83 f2 05             	xor    $0x5,%edx
    78bc:	89 10                	mov    %edx,(%rax)
    78be:	0f b7 85 70 f4 ff ff 	movzwl -0xb90(%rbp),%eax
    78c5:	83 c0 01             	add    $0x1,%eax
    78c8:	66 89 85 70 f4 ff ff 	mov    %ax,-0xb90(%rbp)
    78cf:	0f b7 05 16 c8 00 00 	movzwl 0xc816(%rip),%eax        # 140ec <g_308>
    78d6:	0f b7 c0             	movzwl %ax,%eax
    78d9:	be 04 00 00 00       	mov    $0x4,%esi
    78de:	89 c7                	mov    %eax,%edi
    78e0:	e8 d3 e5 ff ff       	callq  5eb8 <safe_add_func_uint32_t_u_u>
    78e5:	66 89 05 00 c8 00 00 	mov    %ax,0xc800(%rip)        # 140ec <g_308>
    78ec:	0f b7 05 f9 c7 00 00 	movzwl 0xc7f9(%rip),%eax        # 140ec <g_308>
    78f3:	66 83 f8 0e          	cmp    $0xe,%ax
    78f7:	0f 86 8b fe ff ff    	jbe    7788 <func_53+0x431>
    78fd:	eb 01                	jmp    7900 <func_53+0x5a9>
    78ff:	90                   	nop
    7900:	48 0f be 95 7c ee ff 	movsbq -0x1184(%rbp),%rdx
    7907:	ff 
    7908:	48 8b 85 68 ef ff ff 	mov    -0x1098(%rbp),%rax
    790f:	48 39 c2             	cmp    %rax,%rdx
    7912:	0f 96 c0             	setbe  %al
    7915:	0f b6 c0             	movzbl %al,%eax
    7918:	be 6a 50 7a 2c       	mov    $0x2c7a506a,%esi
    791d:	89 c7                	mov    %eax,%edi
    791f:	e8 e1 dc ff ff       	callq  5605 <safe_sub_func_int32_t_s_s>
    7924:	89 c2                	mov    %eax,%edx
    7926:	48 8b 05 7b e2 00 00 	mov    0xe27b(%rip),%rax        # 15ba8 <g_1538>
    792d:	8b 08                	mov    (%rax),%ecx
    792f:	09 ca                	or     %ecx,%edx
    7931:	89 10                	mov    %edx,(%rax)
    7933:	c7 05 93 c7 00 00 00 	movl   $0x0,0xc793(%rip)        # 140d0 <g_219>
    793a:	00 00 00 
    793d:	e9 d1 32 00 00       	jmpq   ac13 <func_53+0x38bc>
    7942:	48 c7 85 88 ef ff ff 	movq   $0x1,-0x1078(%rbp)
    7949:	01 00 00 00 
    794d:	66 c7 85 86 ee ff ff 	movw   $0x9775,-0x117a(%rbp)
    7954:	75 97 
    7956:	48 b8 e4 be 3c 47 72 	movabs $0x1fe52a72473cbee4,%rax
    795d:	2a e5 1f 
    7960:	48 89 85 e8 ef ff ff 	mov    %rax,-0x1018(%rbp)
    7967:	c7 85 98 ee ff ff 96 	movl   $0xa65ffd96,-0x1168(%rbp)
    796e:	fd 5f a6 
    7971:	c7 85 9c ee ff ff cc 	movl   $0x63cf17cc,-0x1164(%rbp)
    7978:	17 cf 63 
    797b:	c7 85 a0 ee ff ff b2 	movl   $0xd984f4b2,-0x1160(%rbp)
    7982:	f4 84 d9 
    7985:	66 c7 85 70 f4 ff ff 	movw   $0x9cf9,-0xb90(%rbp)
    798c:	f9 9c 
    798e:	c6 85 72 f4 ff ff 19 	movb   $0x19,-0xb8e(%rbp)
    7995:	66 c7 85 73 f4 ff ff 	movw   $0xf9bc,-0xb8d(%rbp)
    799c:	bc f9 
    799e:	c6 85 75 f4 ff ff bc 	movb   $0xbc,-0xb8b(%rbp)
    79a5:	66 c7 85 76 f4 ff ff 	movw   $0xd986,-0xb8a(%rbp)
    79ac:	86 d9 
    79ae:	c6 85 78 f4 ff ff b7 	movb   $0xb7,-0xb88(%rbp)
    79b5:	66 c7 85 79 f4 ff ff 	movw   $0x4d1a,-0xb87(%rbp)
    79bc:	1a 4d 
    79be:	c6 85 7b f4 ff ff 5f 	movb   $0x5f,-0xb85(%rbp)
    79c5:	66 c7 85 7c f4 ff ff 	movw   $0xf731,-0xb84(%rbp)
    79cc:	31 f7 
    79ce:	c6 85 7e f4 ff ff b7 	movb   $0xb7,-0xb82(%rbp)
    79d5:	66 c7 85 7f f4 ff ff 	movw   $0x3d00,-0xb81(%rbp)
    79dc:	00 3d 
    79de:	c6 85 81 f4 ff ff 50 	movb   $0x50,-0xb7f(%rbp)
    79e5:	66 c7 85 82 f4 ff ff 	movw   $0xfd31,-0xb7e(%rbp)
    79ec:	31 fd 
    79ee:	c6 85 84 f4 ff ff e6 	movb   $0xe6,-0xb7c(%rbp)
    79f5:	66 c7 85 85 f4 ff ff 	movw   $0x1f1a,-0xb7b(%rbp)
    79fc:	1a 1f 
    79fe:	c6 85 87 f4 ff ff a3 	movb   $0xa3,-0xb79(%rbp)
    7a05:	66 c7 85 88 f4 ff ff 	movw   $0xe686,-0xb78(%rbp)
    7a0c:	86 e6 
    7a0e:	c6 85 8a f4 ff ff 9c 	movb   $0x9c,-0xb76(%rbp)
    7a15:	66 c7 85 8b f4 ff ff 	movw   $0xffbc,-0xb75(%rbp)
    7a1c:	bc ff 
    7a1e:	c6 85 8d f4 ff ff 1b 	movb   $0x1b,-0xb73(%rbp)
    7a25:	66 c7 85 8e f4 ff ff 	movw   $0xf9f9,-0xb72(%rbp)
    7a2c:	f9 f9 
    7a2e:	c6 85 90 f4 ff ff 00 	movb   $0x0,-0xb70(%rbp)
    7a35:	66 c7 85 91 f4 ff ff 	movw   $0x1f4a,-0xb6f(%rbp)
    7a3c:	4a 1f 
    7a3e:	c6 85 93 f4 ff ff 75 	movb   $0x75,-0xb6d(%rbp)
    7a45:	66 c7 85 94 f4 ff ff 	movw   $0x179f,-0xb6c(%rbp)
    7a4c:	9f 17 
    7a4e:	c6 85 96 f4 ff ff 43 	movb   $0x43,-0xb6a(%rbp)
    7a55:	66 c7 85 97 f4 ff ff 	movw   $0x3d1a,-0xb69(%rbp)
    7a5c:	1a 3d 
    7a5e:	c6 85 99 f4 ff ff ef 	movb   $0xef,-0xb67(%rbp)
    7a65:	66 c7 85 9a f4 ff ff 	movw   $0x9f33,-0xb66(%rbp)
    7a6c:	33 9f 
    7a6e:	c6 85 9c f4 ff ff 43 	movb   $0x43,-0xb64(%rbp)
    7a75:	66 c7 85 9d f4 ff ff 	movw   $0x4dfe,-0xb63(%rbp)
    7a7c:	fe 4d 
    7a7e:	c6 85 9f f4 ff ff 75 	movb   $0x75,-0xb61(%rbp)
    7a85:	66 c7 85 a0 f4 ff ff 	movw   $0x401,-0xb60(%rbp)
    7a8c:	01 04 
    7a8e:	c6 85 a2 f4 ff ff 00 	movb   $0x0,-0xb5e(%rbp)
    7a95:	66 c7 85 a3 f4 ff ff 	movw   $0xf950,-0xb5d(%rbp)
    7a9c:	50 f9 
    7a9e:	c6 85 a5 f4 ff ff 1b 	movb   $0x1b,-0xb5b(%rbp)
    7aa5:	66 c7 85 a6 f4 ff ff 	movw   $0x3101,-0xb5a(%rbp)
    7aac:	01 31 
    7aae:	c6 85 a8 f4 ff ff 9c 	movb   $0x9c,-0xb58(%rbp)
    7ab5:	66 c7 85 a9 f4 ff ff 	movw   $0x9fe,-0xb57(%rbp)
    7abc:	fe 09 
    7abe:	c6 85 ab f4 ff ff a3 	movb   $0xa3,-0xb55(%rbp)
    7ac5:	66 c7 85 ac f4 ff ff 	movw   $0x1901,-0xb54(%rbp)
    7acc:	01 19 
    7ace:	c6 85 ae f4 ff ff e6 	movb   $0xe6,-0xb52(%rbp)
    7ad5:	66 c7 85 af f4 ff ff 	movw   $0x2,-0xb51(%rbp)
    7adc:	02 00 
    7ade:	c6 85 b1 f4 ff ff 50 	movb   $0x50,-0xb4f(%rbp)
    7ae5:	66 c7 85 b2 f4 ff ff 	movw   $0x133,-0xb4e(%rbp)
    7aec:	33 01 
    7aee:	c6 85 b4 f4 ff ff b7 	movb   $0xb7,-0xb4c(%rbp)
    7af5:	66 c7 85 b5 f4 ff ff 	movw   $0xa3,-0xb4b(%rbp)
    7afc:	a3 00 
    7afe:	c6 85 b7 f4 ff ff 5f 	movb   $0x5f,-0xb49(%rbp)
    7b05:	66 c7 85 b8 f4 ff ff 	movw   $0x199f,-0xb48(%rbp)
    7b0c:	9f 19 
    7b0e:	c6 85 ba f4 ff ff b7 	movb   $0xb7,-0xb46(%rbp)
    7b15:	66 c7 85 bb f4 ff ff 	movw   $0xf301,-0xb45(%rbp)
    7b1c:	01 f3 
    7b1e:	c6 85 bd f4 ff ff ef 	movb   $0xef,-0xb43(%rbp)
    7b25:	66 c7 85 be f4 ff ff 	movw   $0x101,-0xb42(%rbp)
    7b2c:	01 01 
    7b2e:	c6 85 c0 f4 ff ff 9c 	movb   $0x9c,-0xb40(%rbp)
    7b35:	66 c7 85 c1 f4 ff ff 	movw   $0x9a6,-0xb3f(%rbp)
    7b3c:	a6 09 
    7b3e:	c6 85 c3 f4 ff ff a6 	movb   $0xa6,-0xb3d(%rbp)
    7b45:	66 c7 85 c4 f4 ff ff 	movw   $0x17d9,-0xb3c(%rbp)
    7b4c:	d9 17 
    7b4e:	c6 85 c6 f4 ff ff b7 	movb   $0xb7,-0xb3a(%rbp)
    7b55:	66 c7 85 c7 f4 ff ff 	movw   $0x9bc,-0xb39(%rbp)
    7b5c:	bc 09 
    7b5e:	c6 85 c9 f4 ff ff 01 	movb   $0x1,-0xb37(%rbp)
    7b65:	66 c7 85 ca f4 ff ff 	movw   $0x8601,-0xb36(%rbp)
    7b6c:	01 86 
    7b6e:	c6 85 cc f4 ff ff fd 	movb   $0xfd,-0xb34(%rbp)
    7b75:	66 c7 85 cd f4 ff ff 	movw   $0xa3,-0xb33(%rbp)
    7b7c:	a3 00 
    7b7e:	c6 85 cf f4 ff ff ff 	movb   $0xff,-0xb31(%rbp)
    7b85:	66 c7 85 d0 f4 ff ff 	movw   $0xb701,-0xb30(%rbp)
    7b8c:	01 b7 
    7b8e:	c6 85 d2 f4 ff ff 00 	movb   $0x0,-0xb2e(%rbp)
    7b95:	66 c7 85 d3 f4 ff ff 	movw   $0x3dbc,-0xb2d(%rbp)
    7b9c:	bc 3d 
    7b9e:	c6 85 d5 f4 ff ff 01 	movb   $0x1,-0xb2b(%rbp)
    7ba5:	66 c7 85 d6 f4 ff ff 	movw   $0x1d9,-0xb2a(%rbp)
    7bac:	d9 01 
    7bae:	c6 85 d8 f4 ff ff 58 	movb   $0x58,-0xb28(%rbp)
    7bb5:	66 c7 85 d9 f4 ff ff 	movw   $0xf9a6,-0xb27(%rbp)
    7bbc:	a6 f9 
    7bbe:	c6 85 db f4 ff ff 1a 	movb   $0x1a,-0xb25(%rbp)
    7bc5:	66 c7 85 dc f4 ff ff 	movw   $0x1,-0xb24(%rbp)
    7bcc:	01 00 
    7bce:	c6 85 de f4 ff ff f7 	movb   $0xf7,-0xb22(%rbp)
    7bd5:	66 c7 85 df f4 ff ff 	movw   $0x3d02,-0xb21(%rbp)
    7bdc:	02 3d 
    7bde:	c6 85 e1 f4 ff ff 1b 	movb   $0x1b,-0xb1f(%rbp)
    7be5:	66 c7 85 e2 f4 ff ff 	movw   $0x9586,-0xb1e(%rbp)
    7bec:	86 95 
    7bee:	c6 85 e4 f4 ff ff 19 	movb   $0x19,-0xb1c(%rbp)
    7bf5:	66 c7 85 e5 f4 ff ff 	movw   $0x5f,-0xb1b(%rbp)
    7bfc:	5f 00 
    7bfe:	c6 85 e7 f4 ff ff fe 	movb   $0xfe,-0xb19(%rbp)
    7c05:	66 c7 85 e8 f4 ff ff 	movw   $0xf8f9,-0xb18(%rbp)
    7c0c:	f9 f8 
    7c0e:	c6 85 ea f4 ff ff 19 	movb   $0x19,-0xb16(%rbp)
    7c15:	66 c7 85 eb f4 ff ff 	movw   $0x9f8,-0xb15(%rbp)
    7c1c:	f8 09 
    7c1e:	c6 85 ed f4 ff ff 1b 	movb   $0x1b,-0xb13(%rbp)
    7c25:	66 c7 85 ee f4 ff ff 	movw   $0xfd33,-0xb12(%rbp)
    7c2c:	33 fd 
    7c2e:	c6 85 f0 f4 ff ff f7 	movb   $0xf7,-0xb10(%rbp)
    7c35:	66 c7 85 f1 f4 ff ff 	movw   $0x9ff,-0xb0f(%rbp)
    7c3c:	ff 09 
    7c3e:	c6 85 f3 f4 ff ff 1a 	movb   $0x1a,-0xb0d(%rbp)
    7c45:	66 c7 85 f4 f4 ff ff 	movw   $0x58f9,-0xb0c(%rbp)
    7c4c:	f9 58 
    7c4e:	c6 85 f6 f4 ff ff 58 	movb   $0x58,-0xb0a(%rbp)
    7c55:	66 c7 85 f7 f4 ff ff 	movw   $0xf300,-0xb09(%rbp)
    7c5c:	00 f3 
    7c5e:	c6 85 f9 f4 ff ff 01 	movb   $0x1,-0xb07(%rbp)
    7c65:	66 c7 85 fa f4 ff ff 	movw   $0x3133,-0xb06(%rbp)
    7c6c:	33 31 
    7c6e:	c6 85 fc f4 ff ff 00 	movb   $0x0,-0xb04(%rbp)
    7c75:	66 c7 85 fd f4 ff ff 	movw   $0xffe4,-0xb03(%rbp)
    7c7c:	e4 ff 
    7c7e:	c6 85 ff f4 ff ff ff 	movb   $0xff,-0xb01(%rbp)
    7c85:	66 c7 85 00 f5 ff ff 	movw   $0xf7f9,-0xb00(%rbp)
    7c8c:	f9 f7 
    7c8e:	c6 85 02 f5 ff ff fd 	movb   $0xfd,-0xafe(%rbp)
    7c95:	66 c7 85 03 f5 ff ff 	movw   $0xff01,-0xafd(%rbp)
    7c9c:	01 ff 
    7c9e:	c6 85 05 f5 ff ff 01 	movb   $0x1,-0xafb(%rbp)
    7ca5:	66 c7 85 06 f5 ff ff 	movw   $0x3186,-0xafa(%rbp)
    7cac:	86 31 
    7cae:	c6 85 08 f5 ff ff b7 	movb   $0xb7,-0xaf8(%rbp)
    7cb5:	66 c7 85 09 f5 ff ff 	movw   $0xf3fe,-0xaf7(%rbp)
    7cbc:	fe f3 
    7cbe:	c6 85 0b f5 ff ff a6 	movb   $0xa6,-0xaf5(%rbp)
    7cc5:	66 c7 85 0c f5 ff ff 	movw   $0x5801,-0xaf4(%rbp)
    7ccc:	01 58 
    7cce:	c6 85 0e f5 ff ff 9c 	movb   $0x9c,-0xaf2(%rbp)
    7cd5:	66 c7 85 0f f5 ff ff 	movw   $0x9ef,-0xaf1(%rbp)
    7cdc:	ef 09 
    7cde:	c6 85 11 f5 ff ff ef 	movb   $0xef,-0xaef(%rbp)
    7ce5:	66 c7 85 12 f5 ff ff 	movw   $0xfdd9,-0xaee(%rbp)
    7cec:	d9 fd 
    7cee:	c6 85 14 f5 ff ff b7 	movb   $0xb7,-0xaec(%rbp)
    7cf5:	66 c7 85 15 f5 ff ff 	movw   $0x904,-0xaeb(%rbp)
    7cfc:	04 09 
    7cfe:	c6 85 17 f5 ff ff 4a 	movb   $0x4a,-0xae9(%rbp)
    7d05:	66 c7 85 18 f5 ff ff 	movw   $0xf801,-0xae8(%rbp)
    7d0c:	01 f8 
    7d0e:	c6 85 1a f5 ff ff fd 	movb   $0xfd,-0xae6(%rbp)
    7d15:	66 c7 85 1b f5 ff ff 	movw   $0x1a,-0xae5(%rbp)
    7d1c:	1a 00 
    7d1e:	c6 85 1d f5 ff ff 00 	movb   $0x0,-0xae3(%rbp)
    7d25:	66 c7 85 1e f5 ff ff 	movw   $0x9501,-0xae2(%rbp)
    7d2c:	01 95 
    7d2e:	c6 85 20 f5 ff ff 00 	movb   $0x0,-0xae0(%rbp)
    7d35:	66 c7 85 21 f5 ff ff 	movw   $0x3d04,-0xadf(%rbp)
    7d3c:	04 3d 
    7d3e:	c6 85 23 f5 ff ff 5f 	movb   $0x5f,-0xadd(%rbp)
    7d45:	66 c7 85 24 f5 ff ff 	movw   $0xd9,-0xadc(%rbp)
    7d4c:	d9 00 
    7d4e:	c6 85 26 f5 ff ff 58 	movb   $0x58,-0xada(%rbp)
    7d55:	66 c7 85 27 f5 ff ff 	movw   $0xf9ef,-0xad9(%rbp)
    7d5c:	ef f9 
    7d5e:	c6 85 29 f5 ff ff f2 	movb   $0xf2,-0xad7(%rbp)
    7d65:	66 c7 85 2a f5 ff ff 	movw   $0x101,-0xad6(%rbp)
    7d6c:	01 01 
    7d6e:	c6 85 2c f5 ff ff f7 	movb   $0xf7,-0xad4(%rbp)
    7d75:	66 c7 85 2d f5 ff ff 	movw   $0x3dfe,-0xad3(%rbp)
    7d7c:	fe 3d 
    7d7e:	c6 85 2f f5 ff ff 8d 	movb   $0x8d,-0xad1(%rbp)
    7d85:	66 c7 85 30 f5 ff ff 	movw   $0xb786,-0xad0(%rbp)
    7d8c:	86 b7 
    7d8e:	c6 85 32 f5 ff ff 19 	movb   $0x19,-0xace(%rbp)
    7d95:	66 c7 85 33 f5 ff ff 	movw   $0x1,-0xacd(%rbp)
    7d9c:	01 00 
    7d9e:	c6 85 35 f5 ff ff 50 	movb   $0x50,-0xacb(%rbp)
    7da5:	66 c7 85 36 f5 ff ff 	movw   $0x86f9,-0xaca(%rbp)
    7dac:	f9 86 
    7dae:	c6 85 38 f5 ff ff 19 	movb   $0x19,-0xac8(%rbp)
    7db5:	66 c7 85 39 f5 ff ff 	movw   $0x9e4,-0xac7(%rbp)
    7dbc:	e4 09 
    7dbe:	c6 85 3b f5 ff ff 8d 	movb   $0x8d,-0xac5(%rbp)
    7dc5:	66 c7 85 3c f5 ff ff 	movw   $0x1733,-0xac4(%rbp)
    7dcc:	33 17 
    7dce:	c6 85 3e f5 ff ff f7 	movb   $0xf7,-0xac2(%rbp)
    7dd5:	66 c7 85 3f f5 ff ff 	movw   $0x900,-0xac1(%rbp)
    7ddc:	00 09 
    7dde:	c6 85 41 f5 ff ff f2 	movb   $0xf2,-0xabf(%rbp)
    7de5:	48 c7 85 90 ef ff ff 	movq   $0x5,-0x1070(%rbp)
    7dec:	05 00 00 00 
    7df0:	c7 85 f4 ee ff ff fb 	movl   $0xfffffffb,-0x110c(%rbp)
    7df7:	ff ff ff 
    7dfa:	c7 85 f8 ee ff ff 98 	movl   $0x66f45098,-0x1108(%rbp)
    7e01:	50 f4 66 
    7e04:	c7 85 fc ee ff ff fe 	movl   $0xfffffffe,-0x1104(%rbp)
    7e0b:	ff ff ff 
    7e0e:	c6 85 83 ee ff ff fc 	movb   $0xfc,-0x117d(%rbp)
    7e15:	c7 85 00 ef ff ff ff 	movl   $0xffffffff,-0x1100(%rbp)
    7e1c:	ff ff ff 
    7e1f:	c7 85 90 f1 ff ff 86 	movl   $0x931fe686,-0xe70(%rbp)
    7e26:	e6 1f 93 
    7e29:	c7 85 94 f1 ff ff 86 	movl   $0x931fe686,-0xe6c(%rbp)
    7e30:	e6 1f 93 
    7e33:	c7 85 98 f1 ff ff 86 	movl   $0x931fe686,-0xe68(%rbp)
    7e3a:	e6 1f 93 
    7e3d:	c7 85 9c f1 ff ff 86 	movl   $0x931fe686,-0xe64(%rbp)
    7e44:	e6 1f 93 
    7e47:	c7 85 a0 f1 ff ff 86 	movl   $0x931fe686,-0xe60(%rbp)
    7e4e:	e6 1f 93 
    7e51:	c7 85 a4 f1 ff ff 86 	movl   $0x931fe686,-0xe5c(%rbp)
    7e58:	e6 1f 93 
    7e5b:	c7 85 a8 f1 ff ff 86 	movl   $0x931fe686,-0xe58(%rbp)
    7e62:	e6 1f 93 
    7e65:	c7 85 ac f1 ff ff 86 	movl   $0x931fe686,-0xe54(%rbp)
    7e6c:	e6 1f 93 
    7e6f:	c7 85 b0 f1 ff ff 86 	movl   $0x931fe686,-0xe50(%rbp)
    7e76:	e6 1f 93 
    7e79:	c7 85 b4 f1 ff ff 86 	movl   $0x931fe686,-0xe4c(%rbp)
    7e80:	e6 1f 93 
    7e83:	c7 85 b8 f1 ff ff 86 	movl   $0x931fe686,-0xe48(%rbp)
    7e8a:	e6 1f 93 
    7e8d:	c7 85 bc f1 ff ff 86 	movl   $0x931fe686,-0xe44(%rbp)
    7e94:	e6 1f 93 
    7e97:	c7 85 c0 f1 ff ff 86 	movl   $0x931fe686,-0xe40(%rbp)
    7e9e:	e6 1f 93 
    7ea1:	c7 85 c4 f1 ff ff 86 	movl   $0x931fe686,-0xe3c(%rbp)
    7ea8:	e6 1f 93 
    7eab:	c7 85 c8 f1 ff ff 86 	movl   $0x931fe686,-0xe38(%rbp)
    7eb2:	e6 1f 93 
    7eb5:	c7 85 cc f1 ff ff 86 	movl   $0x931fe686,-0xe34(%rbp)
    7ebc:	e6 1f 93 
    7ebf:	48 b8 c3 d1 b7 02 3c 	movabs $0x6360463c02b7d1c3,%rax
    7ec6:	46 60 63 
    7ec9:	48 89 85 d0 f1 ff ff 	mov    %rax,-0xe30(%rbp)
    7ed0:	48 89 85 d8 f1 ff ff 	mov    %rax,-0xe28(%rbp)
    7ed7:	48 89 85 e0 f1 ff ff 	mov    %rax,-0xe20(%rbp)
    7ede:	48 89 85 e8 f1 ff ff 	mov    %rax,-0xe18(%rbp)
    7ee5:	48 89 85 f0 f1 ff ff 	mov    %rax,-0xe10(%rbp)
    7eec:	48 89 85 f8 f1 ff ff 	mov    %rax,-0xe08(%rbp)
    7ef3:	48 89 85 00 f2 ff ff 	mov    %rax,-0xe00(%rbp)
    7efa:	48 89 85 08 f2 ff ff 	mov    %rax,-0xdf8(%rbp)
    7f01:	48 89 85 10 f2 ff ff 	mov    %rax,-0xdf0(%rbp)
    7f08:	48 8d 05 61 c1 00 00 	lea    0xc161(%rip),%rax        # 14070 <g_146>
    7f0f:	48 89 85 f0 ef ff ff 	mov    %rax,-0x1010(%rbp)
    7f16:	c7 45 c4 ff ff ff ff 	movl   $0xffffffff,-0x3c(%rbp)
    7f1d:	48 c7 85 f8 ef ff ff 	movq   $0x0,-0x1008(%rbp)
    7f24:	00 00 00 00 
    7f28:	c7 85 04 ef ff ff fe 	movl   $0x73b39afe,-0x10fc(%rbp)
    7f2f:	9a b3 73 
    7f32:	0f b6 05 03 c1 00 00 	movzbl 0xc103(%rip),%eax        # 1403c <g_70>
    7f39:	0f be d8             	movsbl %al,%ebx
    7f3c:	be fa 00 00 00       	mov    $0xfa,%esi
    7f41:	bf 9a 00 00 00       	mov    $0x9a,%edi
    7f46:	e8 2d dc ff ff       	callq  5b78 <safe_sub_func_uint8_t_u_u>
    7f4b:	0f b6 c0             	movzbl %al,%eax
    7f4e:	89 de                	mov    %ebx,%esi
    7f50:	89 c7                	mov    %eax,%edi
    7f52:	e8 79 df ff ff       	callq  5ed0 <safe_sub_func_uint32_t_u_u>
    7f57:	85 c0                	test   %eax,%eax
    7f59:	48 8b 05 38 db 00 00 	mov    0xdb38(%rip),%rax        # 15a98 <g_1003>
    7f60:	66 c7 00 01 00       	movw   $0x1,(%rax)
    7f65:	0f b7 00             	movzwl (%rax),%eax
    7f68:	83 c8 03             	or     $0x3,%eax
    7f6b:	0f be c0             	movsbl %al,%eax
    7f6e:	89 c6                	mov    %eax,%esi
    7f70:	bf 9a ff ff ff       	mov    $0xffffff9a,%edi
    7f75:	e8 98 d2 ff ff       	callq  5212 <safe_mul_func_int8_t_s_s>
    7f7a:	84 c0                	test   %al,%al
    7f7c:	0f 88 61 08 00 00    	js     87e3 <func_53+0x148c>
    7f82:	48 8d 85 20 f8 ff ff 	lea    -0x7e0(%rbp),%rax
    7f89:	48 8d 15 d0 83 00 00 	lea    0x83d0(%rip),%rdx        # 10360 <g_2039+0x300>
    7f90:	b9 28 00 00 00       	mov    $0x28,%ecx
    7f95:	48 89 c7             	mov    %rax,%rdi
    7f98:	48 89 d6             	mov    %rdx,%rsi
    7f9b:	f3 48 a5             	rep movsq %ds:(%rsi),%es:(%rdi)
    7f9e:	c7 85 a0 f3 ff ff fb 	movl   $0xfffffffb,-0xc60(%rbp)
    7fa5:	ff ff ff 
    7fa8:	c7 85 a4 f3 ff ff fa 	movl   $0xfffffffa,-0xc5c(%rbp)
    7faf:	ff ff ff 
    7fb2:	c7 85 a8 f3 ff ff 03 	movl   $0x3,-0xc58(%rbp)
    7fb9:	00 00 00 
    7fbc:	c7 85 ac f3 ff ff fe 	movl   $0xfffffffe,-0xc54(%rbp)
    7fc3:	ff ff ff 
    7fc6:	c7 85 b0 f3 ff ff 6f 	movl   $0xe26ec6f,-0xc50(%rbp)
    7fcd:	ec 26 0e 
    7fd0:	c7 85 b4 f3 ff ff 00 	movl   $0x0,-0xc4c(%rbp)
    7fd7:	00 00 00 
    7fda:	c7 85 b8 f3 ff ff d9 	movl   $0x8ebd30d9,-0xc48(%rbp)
    7fe1:	30 bd 8e 
    7fe4:	c7 85 bc f3 ff ff 03 	movl   $0x3,-0xc44(%rbp)
    7feb:	00 00 00 
    7fee:	c7 85 c0 f3 ff ff 04 	movl   $0x4,-0xc40(%rbp)
    7ff5:	00 00 00 
    7ff8:	c7 85 c4 f3 ff ff 00 	movl   $0x0,-0xc3c(%rbp)
    7fff:	00 00 00 
    8002:	c7 85 c8 f3 ff ff 00 	movl   $0x0,-0xc38(%rbp)
    8009:	00 00 00 
    800c:	c7 85 cc f3 ff ff fb 	movl   $0xfffffffb,-0xc34(%rbp)
    8013:	ff ff ff 
    8016:	c7 85 d0 f3 ff ff 04 	movl   $0x4,-0xc30(%rbp)
    801d:	00 00 00 
    8020:	c7 85 d4 f3 ff ff d9 	movl   $0x8ebd30d9,-0xc2c(%rbp)
    8027:	30 bd 8e 
    802a:	c7 85 d8 f3 ff ff d9 	movl   $0x8ebd30d9,-0xc28(%rbp)
    8031:	30 bd 8e 
    8034:	c7 85 dc f3 ff ff 04 	movl   $0x4,-0xc24(%rbp)
    803b:	00 00 00 
    803e:	c7 85 e0 f3 ff ff 6f 	movl   $0xe26ec6f,-0xc20(%rbp)
    8045:	ec 26 0e 
    8048:	c7 85 e4 f3 ff ff fb 	movl   $0xfffffffb,-0xc1c(%rbp)
    804f:	ff ff ff 
    8052:	c7 85 e8 f3 ff ff 03 	movl   $0x3,-0xc18(%rbp)
    8059:	00 00 00 
    805c:	c7 85 ec f3 ff ff d9 	movl   $0x8ebd30d9,-0xc14(%rbp)
    8063:	30 bd 8e 
    8066:	c7 85 f0 f3 ff ff fb 	movl   $0xfffffffb,-0xc10(%rbp)
    806d:	ff ff ff 
    8070:	c7 85 f4 f3 ff ff 00 	movl   $0x0,-0xc0c(%rbp)
    8077:	00 00 00 
    807a:	c7 85 f8 f3 ff ff 44 	movl   $0x4960db44,-0xc08(%rbp)
    8081:	db 60 49 
    8084:	c7 85 fc f3 ff ff fe 	movl   $0xfffffffe,-0xc04(%rbp)
    808b:	ff ff ff 
    808e:	c7 85 00 f4 ff ff 00 	movl   $0x0,-0xc00(%rbp)
    8095:	00 00 00 
    8098:	c7 85 04 f4 ff ff 6f 	movl   $0xe26ec6f,-0xbfc(%rbp)
    809f:	ec 26 0e 
    80a2:	c7 85 08 f4 ff ff d9 	movl   $0x8ebd30d9,-0xbf8(%rbp)
    80a9:	30 bd 8e 
    80ac:	c7 85 0c f4 ff ff fe 	movl   $0xfffffffe,-0xbf4(%rbp)
    80b3:	ff ff ff 
    80b6:	c7 85 10 f4 ff ff 01 	movl   $0x1,-0xbf0(%rbp)
    80bd:	00 00 00 
    80c0:	c7 85 14 f4 ff ff 00 	movl   $0x0,-0xbec(%rbp)
    80c7:	00 00 00 
    80ca:	c7 85 18 f4 ff ff 01 	movl   $0x1,-0xbe8(%rbp)
    80d1:	00 00 00 
    80d4:	c7 85 1c f4 ff ff d9 	movl   $0x8ebd30d9,-0xbe4(%rbp)
    80db:	30 bd 8e 
    80de:	c7 85 20 f4 ff ff 04 	movl   $0x4,-0xbe0(%rbp)
    80e5:	00 00 00 
    80e8:	c7 85 24 f4 ff ff fb 	movl   $0xfffffffb,-0xbdc(%rbp)
    80ef:	ff ff ff 
    80f2:	c7 85 28 f4 ff ff 01 	movl   $0x1,-0xbd8(%rbp)
    80f9:	00 00 00 
    80fc:	c7 85 2c f4 ff ff 04 	movl   $0x4,-0xbd4(%rbp)
    8103:	00 00 00 
    8106:	c7 85 30 f4 ff ff 00 	movl   $0x0,-0xbd0(%rbp)
    810d:	00 00 00 
    8110:	c7 85 34 f4 ff ff d9 	movl   $0x8ebd30d9,-0xbcc(%rbp)
    8117:	30 bd 8e 
    811a:	c7 85 38 f4 ff ff 03 	movl   $0x3,-0xbc8(%rbp)
    8121:	00 00 00 
    8124:	c7 85 3c f4 ff ff fb 	movl   $0xfffffffb,-0xbc4(%rbp)
    812b:	ff ff ff 
    812e:	48 8d 05 83 bf 00 00 	lea    0xbf83(%rip),%rax        # 140b8 <g_185>
    8135:	48 89 85 70 f0 ff ff 	mov    %rax,-0xf90(%rbp)
    813c:	48 c7 05 59 c0 00 00 	movq   $0x6,0xc059(%rip)        # 141a0 <g_661>
    8143:	06 00 00 00 
    8147:	e9 6b 06 00 00       	jmpq   87b7 <func_53+0x1460>
    814c:	66 c7 85 8a ee ff ff 	movw   $0xfff6,-0x1176(%rbp)
    8153:	f6 ff 
    8155:	c7 85 d4 ee ff ff 35 	movl   $0xf4d1ae35,-0x112c(%rbp)
    815c:	ae d1 f4 
    815f:	c7 85 5c ef ff ff 70 	movl   $0xc9c9fe70,-0x10a4(%rbp)
    8166:	fe c9 c9 
    8169:	c7 85 30 f1 ff ff 01 	movl   $0x1,-0xed0(%rbp)
    8170:	00 00 00 
    8173:	c7 85 34 f1 ff ff 01 	movl   $0x1,-0xecc(%rbp)
    817a:	00 00 00 
    817d:	c7 85 38 f1 ff ff 01 	movl   $0x1,-0xec8(%rbp)
    8184:	00 00 00 
    8187:	c7 85 3c f1 ff ff 01 	movl   $0x1,-0xec4(%rbp)
    818e:	00 00 00 
    8191:	c7 85 40 f1 ff ff 01 	movl   $0x1,-0xec0(%rbp)
    8198:	00 00 00 
    819b:	48 8d 05 3e c0 00 00 	lea    0xc03e(%rip),%rax        # 141e0 <g_1016>
    81a2:	48 89 85 78 f0 ff ff 	mov    %rax,-0xf88(%rbp)
    81a9:	48 8d 85 90 ee ff ff 	lea    -0x1170(%rbp),%rax
    81b0:	48 89 85 80 f0 ff ff 	mov    %rax,-0xf80(%rbp)
    81b7:	48 8b 85 88 ef ff ff 	mov    -0x1078(%rbp),%rax
    81be:	48 85 c0             	test   %rax,%rax
    81c1:	0f 84 11 02 00 00    	je     83d8 <func_53+0x1081>
    81c7:	48 8d 05 66 be 00 00 	lea    0xbe66(%rip),%rax        # 14034 <g_23>
    81ce:	48 89 85 e0 f0 ff ff 	mov    %rax,-0xf20(%rbp)
    81d5:	c7 05 55 be 00 00 01 	movl   $0x1,0xbe55(%rip)        # 14034 <g_23>
    81dc:	00 00 00 
    81df:	e9 c6 01 00 00       	jmpq   83aa <func_53+0x1053>
    81e4:	48 8d 05 71 be 00 00 	lea    0xbe71(%rip),%rax        # 1405c <g_129>
    81eb:	48 89 85 e8 f0 ff ff 	mov    %rax,-0xf18(%rbp)
    81f2:	c7 85 d8 ee ff ff 00 	movl   $0x0,-0x1128(%rbp)
    81f9:	00 00 00 
    81fc:	eb 19                	jmp    8217 <func_53+0xec0>
    81fe:	8b 85 d8 ee ff ff    	mov    -0x1128(%rbp),%eax
    8204:	48 98                	cltq   
    8206:	66 c7 84 45 20 f2 ff 	movw   $0x8039,-0xde0(%rbp,%rax,2)
    820d:	ff 39 80 
    8210:	83 85 d8 ee ff ff 01 	addl   $0x1,-0x1128(%rbp)
    8217:	83 bd d8 ee ff ff 02 	cmpl   $0x2,-0x1128(%rbp)
    821e:	7e de                	jle    81fe <func_53+0xea7>
    8220:	8b 05 0e be 00 00    	mov    0xbe0e(%rip),%eax        # 14034 <g_23>
    8226:	83 c0 02             	add    $0x2,%eax
    8229:	48 98                	cltq   
    822b:	48 8d 14 c5 00 00 00 	lea    0x0(,%rax,8),%rdx
    8232:	00 
    8233:	48 8d 05 46 be 00 00 	lea    0xbe46(%rip),%rax        # 14080 <g_175>
    823a:	4c 8b 34 02          	mov    (%rdx,%rax,1),%r14
    823e:	44 8b 3d 8b bf 00 00 	mov    0xbf8b(%rip),%r15d        # 141d0 <g_841>
    8245:	0f b7 85 22 f2 ff ff 	movzwl -0xdde(%rbp),%eax
    824c:	0f be d8             	movsbl %al,%ebx
    824f:	44 0f be a5 7c ee ff 	movsbl -0x1184(%rbp),%r12d
    8256:	ff 
    8257:	48 8b 85 88 ef ff ff 	mov    -0x1078(%rbp),%rax
    825e:	48 85 c0             	test   %rax,%rax
    8261:	0f 85 9f 00 00 00    	jne    8306 <func_53+0xfaf>
    8267:	48 8b 05 22 d8 00 00 	mov    0xd822(%rip),%rax        # 15a90 <g_926>
    826e:	48 8b 00             	mov    (%rax),%rax
    8271:	0f b7 00             	movzwl (%rax),%eax
    8274:	44 0f b7 e8          	movzwl %ax,%r13d
    8278:	8b 05 c2 e2 00 00    	mov    0xe2c2(%rip),%eax        # 16540 <g_1479>
    827e:	48 98                	cltq   
    8280:	48 89 c7             	mov    %rax,%rdi
    8283:	e8 91 dd ff ff       	callq  6019 <safe_unary_minus_func_uint64_t_u>
    8288:	80 bd 7c ee ff ff 00 	cmpb   $0x0,-0x1184(%rbp)
    828f:	0f 9e c0             	setle  %al
    8292:	0f b6 c0             	movzbl %al,%eax
    8295:	66 89 85 8a ee ff ff 	mov    %ax,-0x1176(%rbp)
    829c:	0f b7 95 8a ee ff ff 	movzwl -0x1176(%rbp),%edx
    82a3:	0f b6 85 7c ee ff ff 	movzbl -0x1184(%rbp),%eax
    82aa:	0f b6 c0             	movzbl %al,%eax
    82ad:	89 d6                	mov    %edx,%esi
    82af:	89 c7                	mov    %eax,%edi
    82b1:	e8 08 da ff ff       	callq  5cbe <safe_rshift_func_uint8_t_u_u>
    82b6:	0f b6 d0             	movzbl %al,%edx
    82b9:	48 8b 05 e0 d7 00 00 	mov    0xd7e0(%rip),%rax        # 15aa0 <g_1002>
    82c0:	48 8b 00             	mov    (%rax),%rax
    82c3:	0f b7 00             	movzwl (%rax),%eax
    82c6:	98                   	cwtl   
    82c7:	39 c2                	cmp    %eax,%edx
    82c9:	0f 9f c0             	setg   %al
    82cc:	0f b6 c0             	movzbl %al,%eax
    82cf:	be f8 ff ff ff       	mov    $0xfffffff8,%esi
    82d4:	89 c7                	mov    %eax,%edi
    82d6:	e8 2a d3 ff ff       	callq  5605 <safe_sub_func_int32_t_s_s>
    82db:	0f be c0             	movsbl %al,%eax
    82de:	be 00 00 00 00       	mov    $0x0,%esi
    82e3:	89 c7                	mov    %eax,%edi
    82e5:	e8 04 d0 ff ff       	callq  52ee <safe_lshift_func_int8_t_s_u>
    82ea:	66 98                	cbtw   
    82ec:	66 39 85 86 ee ff ff 	cmp    %ax,-0x117a(%rbp)
    82f3:	0f 9e c0             	setle  %al
    82f6:	0f b6 c0             	movzbl %al,%eax
    82f9:	44 89 ee             	mov    %r13d,%esi
    82fc:	89 c7                	mov    %eax,%edi
    82fe:	e8 8b da ff ff       	callq  5d8e <safe_div_func_uint16_t_u_u>
    8303:	66 85 c0             	test   %ax,%ax
    8306:	44 89 e6             	mov    %r12d,%esi
    8309:	bf 79 00 00 00       	mov    $0x79,%edi
    830e:	e8 8e cf ff ff       	callq  52a1 <safe_lshift_func_int8_t_s_s>
    8313:	84 c0                	test   %al,%al
    8315:	74 10                	je     8327 <func_53+0xfd0>
    8317:	80 bd 7c ee ff ff 00 	cmpb   $0x0,-0x1184(%rbp)
    831e:	74 07                	je     8327 <func_53+0xfd0>
    8320:	b8 01 00 00 00       	mov    $0x1,%eax
    8325:	eb 05                	jmp    832c <func_53+0xfd5>
    8327:	b8 00 00 00 00       	mov    $0x0,%eax
    832c:	48 98                	cltq   
    832e:	48 c7 c6 ff ff ff ff 	mov    $0xffffffffffffffff,%rsi
    8335:	48 89 c7             	mov    %rax,%rdi
    8338:	e8 0e dd ff ff       	callq  604b <safe_sub_func_uint64_t_u_u>
    833d:	0f be c0             	movsbl %al,%eax
    8340:	89 de                	mov    %ebx,%esi
    8342:	89 c7                	mov    %eax,%edi
    8344:	e8 c9 ce ff ff       	callq  5212 <safe_mul_func_int8_t_s_s>
    8349:	be 07 00 00 00       	mov    $0x7,%esi
    834e:	bf 01 00 00 00       	mov    $0x1,%edi
    8353:	e8 74 d3 ff ff       	callq  56cc <safe_mod_func_int32_t_s_s>
    8358:	3d 87 00 00 00       	cmp    $0x87,%eax
    835d:	0f 94 c0             	sete   %al
    8360:	0f b6 c0             	movzbl %al,%eax
    8363:	41 39 c7             	cmp    %eax,%r15d
    8366:	0f 94 c0             	sete   %al
    8369:	0f b6 c0             	movzbl %al,%eax
    836c:	49 39 c6             	cmp    %rax,%r14
    836f:	77 11                	ja     8382 <func_53+0x102b>
    8371:	8b 05 a1 e1 00 00    	mov    0xe1a1(%rip),%eax        # 16518 <g_678>
    8377:	85 c0                	test   %eax,%eax
    8379:	74 07                	je     8382 <func_53+0x102b>
    837b:	ba 01 00 00 00       	mov    $0x1,%edx
    8380:	eb 05                	jmp    8387 <func_53+0x1030>
    8382:	ba 00 00 00 00       	mov    $0x0,%edx
    8387:	48 8b 85 e8 f0 ff ff 	mov    -0xf18(%rbp),%rax
    838e:	8b 00                	mov    (%rax),%eax
    8390:	31 c2                	xor    %eax,%edx
    8392:	48 8b 85 e8 f0 ff ff 	mov    -0xf18(%rbp),%rax
    8399:	89 10                	mov    %edx,(%rax)
    839b:	8b 05 93 bc 00 00    	mov    0xbc93(%rip),%eax        # 14034 <g_23>
    83a1:	83 e8 01             	sub    $0x1,%eax
    83a4:	89 05 8a bc 00 00    	mov    %eax,0xbc8a(%rip)        # 14034 <g_23>
    83aa:	8b 05 84 bc 00 00    	mov    0xbc84(%rip),%eax        # 14034 <g_23>
    83b0:	85 c0                	test   %eax,%eax
    83b2:	0f 89 2c fe ff ff    	jns    81e4 <func_53+0xe8d>
    83b8:	48 8b 85 e0 f0 ff ff 	mov    -0xf20(%rbp),%rax
    83bf:	8b 00                	mov    (%rax),%eax
    83c1:	48 8b 95 e8 ef ff ff 	mov    -0x1018(%rbp),%rdx
    83c8:	21 c2                	and    %eax,%edx
    83ca:	48 8b 85 e0 f0 ff ff 	mov    -0xf20(%rbp),%rax
    83d1:	89 10                	mov    %edx,(%rax)
    83d3:	e9 c5 02 00 00       	jmpq   869d <func_53+0x1346>
    83d8:	c7 85 60 ef ff ff 04 	movl   $0x4,-0x10a0(%rbp)
    83df:	00 00 00 
    83e2:	c7 85 b0 ef ff ff a7 	movl   $0x67486ca7,-0x1050(%rbp)
    83e9:	6c 48 67 
    83ec:	c7 85 50 f1 ff ff 5b 	movl   $0x12f9a25b,-0xeb0(%rbp)
    83f3:	a2 f9 12 
    83f6:	c7 85 54 f1 ff ff 02 	movl   $0x2,-0xeac(%rbp)
    83fd:	00 00 00 
    8400:	c7 85 58 f1 ff ff 02 	movl   $0x2,-0xea8(%rbp)
    8407:	00 00 00 
    840a:	c7 85 5c f1 ff ff 5b 	movl   $0x12f9a25b,-0xea4(%rbp)
    8411:	a2 f9 12 
    8414:	c7 85 60 f1 ff ff 02 	movl   $0x2,-0xea0(%rbp)
    841b:	00 00 00 
    841e:	c7 85 64 f1 ff ff 02 	movl   $0x2,-0xe9c(%rbp)
    8425:	00 00 00 
    8428:	c7 85 68 f1 ff ff 5b 	movl   $0x12f9a25b,-0xe98(%rbp)
    842f:	a2 f9 12 
    8432:	c7 85 6c f1 ff ff 02 	movl   $0x2,-0xe94(%rbp)
    8439:	00 00 00 
    843c:	c7 85 8c ee ff ff 00 	movl   $0x0,-0x1174(%rbp)
    8443:	00 00 00 
    8446:	e9 02 01 00 00       	jmpq   854d <func_53+0x11f6>
    844b:	c7 85 64 ef ff ff fc 	movl   $0xfffffffc,-0x109c(%rbp)
    8452:	ff ff ff 
    8455:	48 c7 85 d8 f0 ff ff 	movq   $0x0,-0xf28(%rbp)
    845c:	00 00 00 00 
    8460:	48 8d 85 90 ee ff ff 	lea    -0x1170(%rbp),%rax
    8467:	48 89 85 20 f2 ff ff 	mov    %rax,-0xde0(%rbp)
    846e:	48 8d 85 90 ee ff ff 	lea    -0x1170(%rbp),%rax
    8475:	48 89 85 28 f2 ff ff 	mov    %rax,-0xdd8(%rbp)
    847c:	48 8d 85 90 ee ff ff 	lea    -0x1170(%rbp),%rax
    8483:	48 89 85 30 f2 ff ff 	mov    %rax,-0xdd0(%rbp)
    848a:	48 8d 85 90 ee ff ff 	lea    -0x1170(%rbp),%rax
    8491:	48 89 85 38 f2 ff ff 	mov    %rax,-0xdc8(%rbp)
    8498:	48 8d 85 90 ee ff ff 	lea    -0x1170(%rbp),%rax
    849f:	48 89 85 40 f2 ff ff 	mov    %rax,-0xdc0(%rbp)
    84a6:	48 8d 85 90 ee ff ff 	lea    -0x1170(%rbp),%rax
    84ad:	48 89 85 48 f2 ff ff 	mov    %rax,-0xdb8(%rbp)
    84b4:	48 8d 85 90 ee ff ff 	lea    -0x1170(%rbp),%rax
    84bb:	48 89 85 50 f2 ff ff 	mov    %rax,-0xdb0(%rbp)
    84c2:	48 8d 85 90 ee ff ff 	lea    -0x1170(%rbp),%rax
    84c9:	48 89 85 58 f2 ff ff 	mov    %rax,-0xda8(%rbp)
    84d0:	48 8d 85 90 ee ff ff 	lea    -0x1170(%rbp),%rax
    84d7:	48 89 85 60 f2 ff ff 	mov    %rax,-0xda0(%rbp)
    84de:	83 bd 64 ef ff ff 00 	cmpl   $0x0,-0x109c(%rbp)
    84e5:	74 1a                	je     8501 <func_53+0x11aa>
    84e7:	48 8b 05 5a e0 00 00 	mov    0xe05a(%rip),%rax        # 16548 <g_1579>
    84ee:	ba 01 00 00 00       	mov    $0x1,%edx
    84f3:	48 8d 05 36 e0 00 00 	lea    0xe036(%rip),%rax        # 16530 <g_1132>
    84fa:	88 10                	mov    %dl,(%rax)
    84fc:	0f b6 00             	movzbl (%rax),%eax
    84ff:	84 c0                	test   %al,%al
    8501:	0f be 95 7c ee ff ff 	movsbl -0x1184(%rbp),%edx
    8508:	0f b7 85 8a ee ff ff 	movzwl -0x1176(%rbp),%eax
    850f:	39 c2                	cmp    %eax,%edx
    8511:	0f 9d c0             	setge  %al
    8514:	0f b6 c0             	movzbl %al,%eax
    8517:	be 01 00 00 00       	mov    $0x1,%esi
    851c:	89 c7                	mov    %eax,%edi
    851e:	e8 6b d8 ff ff       	callq  5d8e <safe_div_func_uint16_t_u_u>
    8523:	0f b7 c0             	movzwl %ax,%eax
    8526:	89 85 60 ef ff ff    	mov    %eax,-0x10a0(%rbp)
    852c:	48 8b 85 a0 f8 ff ff 	mov    -0x760(%rbp),%rax
    8533:	48 83 e8 01          	sub    $0x1,%rax
    8537:	48 89 85 a0 f8 ff ff 	mov    %rax,-0x760(%rbp)
    853e:	8b 85 8c ee ff ff    	mov    -0x1174(%rbp),%eax
    8544:	83 c0 01             	add    $0x1,%eax
    8547:	89 85 8c ee ff ff    	mov    %eax,-0x1174(%rbp)
    854d:	8b 85 8c ee ff ff    	mov    -0x1174(%rbp),%eax
    8553:	83 f8 01             	cmp    $0x1,%eax
    8556:	0f 8e ef fe ff ff    	jle    844b <func_53+0x10f4>
    855c:	c7 85 d4 ee ff ff 01 	movl   $0x1,-0x112c(%rbp)
    8563:	00 00 00 
    8566:	e9 0b 01 00 00       	jmpq   8676 <func_53+0x131f>
    856b:	48 c7 85 88 f0 ff ff 	movq   $0x0,-0xf78(%rbp)
    8572:	00 00 00 00 
    8576:	48 8d 05 b7 ba 00 00 	lea    0xbab7(%rip),%rax        # 14034 <g_23>
    857d:	48 89 85 90 f0 ff ff 	mov    %rax,-0xf70(%rbp)
    8584:	48 8d 85 04 f1 ff ff 	lea    -0xefc(%rbp),%rax
    858b:	48 89 85 98 f0 ff ff 	mov    %rax,-0xf68(%rbp)
    8592:	48 8d 85 b0 ef ff ff 	lea    -0x1050(%rbp),%rax
    8599:	48 89 85 a0 f0 ff ff 	mov    %rax,-0xf60(%rbp)
    85a0:	48 8d 85 04 f1 ff ff 	lea    -0xefc(%rbp),%rax
    85a7:	48 89 85 a8 f0 ff ff 	mov    %rax,-0xf58(%rbp)
    85ae:	48 8d 05 7f ba 00 00 	lea    0xba7f(%rip),%rax        # 14034 <g_23>
    85b5:	48 89 85 b0 f0 ff ff 	mov    %rax,-0xf50(%rbp)
    85bc:	48 8d 85 90 ee ff ff 	lea    -0x1170(%rbp),%rax
    85c3:	48 89 85 b8 f0 ff ff 	mov    %rax,-0xf48(%rbp)
    85ca:	48 8d 05 ab bb 00 00 	lea    0xbbab(%rip),%rax        # 1417c <g_518+0xc>
    85d1:	48 89 85 c0 f0 ff ff 	mov    %rax,-0xf40(%rbp)
    85d8:	48 8d 85 b0 ef ff ff 	lea    -0x1050(%rbp),%rax
    85df:	48 89 85 c8 f0 ff ff 	mov    %rax,-0xf38(%rbp)
    85e6:	48 8d 85 b0 ef ff ff 	lea    -0x1050(%rbp),%rax
    85ed:	48 89 85 d0 f0 ff ff 	mov    %rax,-0xf30(%rbp)
    85f4:	48 8d 85 50 f1 ff ff 	lea    -0xeb0(%rbp),%rax
    85fb:	48 83 c0 0c          	add    $0xc,%rax
    85ff:	48 89 85 20 f2 ff ff 	mov    %rax,-0xde0(%rbp)
    8606:	48 8d 85 50 f1 ff ff 	lea    -0xeb0(%rbp),%rax
    860d:	48 83 c0 0c          	add    $0xc,%rax
    8611:	48 89 85 28 f2 ff ff 	mov    %rax,-0xdd8(%rbp)
    8618:	48 8d 85 50 f1 ff ff 	lea    -0xeb0(%rbp),%rax
    861f:	48 83 c0 1c          	add    $0x1c,%rax
    8623:	48 89 85 30 f2 ff ff 	mov    %rax,-0xdd0(%rbp)
    862a:	48 8d 85 50 f1 ff ff 	lea    -0xeb0(%rbp),%rax
    8631:	48 83 c0 0c          	add    $0xc,%rax
    8635:	48 89 85 38 f2 ff ff 	mov    %rax,-0xdc8(%rbp)
    863c:	48 8d 85 50 f1 ff ff 	lea    -0xeb0(%rbp),%rax
    8643:	48 83 c0 0c          	add    $0xc,%rax
    8647:	48 89 85 40 f2 ff ff 	mov    %rax,-0xdc0(%rbp)
    864e:	48 8d 85 50 f1 ff ff 	lea    -0xeb0(%rbp),%rax
    8655:	48 83 c0 1c          	add    $0x1c,%rax
    8659:	48 89 85 48 f2 ff ff 	mov    %rax,-0xdb8(%rbp)
    8660:	8b 05 da bb 00 00    	mov    0xbbda(%rip),%eax        # 14240 <g_1609>
    8666:	83 c0 01             	add    $0x1,%eax
    8669:	89 05 d1 bb 00 00    	mov    %eax,0xbbd1(%rip)        # 14240 <g_1609>
    866f:	83 ad d4 ee ff ff 01 	subl   $0x1,-0x112c(%rbp)
    8676:	83 bd d4 ee ff ff 00 	cmpl   $0x0,-0x112c(%rbp)
    867d:	0f 89 e8 fe ff ff    	jns    856b <func_53+0x1214>
    8683:	8b 85 d8 f3 ff ff    	mov    -0xc28(%rbp),%eax
    8689:	85 c0                	test   %eax,%eax
    868b:	0f 85 36 01 00 00    	jne    87c7 <func_53+0x1470>
    8691:	48 8b 85 70 ee ff ff 	mov    -0x1190(%rbp),%rax
    8698:	e9 8c 25 00 00       	jmpq   ac29 <func_53+0x38d2>
    869d:	48 8b 05 cc d4 00 00 	mov    0xd4cc(%rip),%rax        # 15b70 <g_1221>
    86a4:	48 8b 00             	mov    (%rax),%rax
    86a7:	48 85 c0             	test   %rax,%rax
    86aa:	0f 95 c0             	setne  %al
    86ad:	0f b6 d8             	movzbl %al,%ebx
    86b0:	0f be 95 7c ee ff ff 	movsbl -0x1184(%rbp),%edx
    86b7:	8b 85 a0 ee ff ff    	mov    -0x1160(%rbp),%eax
    86bd:	31 d0                	xor    %edx,%eax
    86bf:	89 c1                	mov    %eax,%ecx
    86c1:	48 8b 85 78 f0 ff ff 	mov    -0xf88(%rbp),%rax
    86c8:	8b 00                	mov    (%rax),%eax
    86ca:	35 7e ee 6a f5       	xor    $0xf56aee7e,%eax
    86cf:	89 c2                	mov    %eax,%edx
    86d1:	48 8b 85 78 f0 ff ff 	mov    -0xf88(%rbp),%rax
    86d8:	89 10                	mov    %edx,(%rax)
    86da:	48 8b 85 78 f0 ff ff 	mov    -0xf88(%rbp),%rax
    86e1:	8b 00                	mov    (%rax),%eax
    86e3:	89 ce                	mov    %ecx,%esi
    86e5:	89 c7                	mov    %eax,%edi
    86e7:	e8 cc d7 ff ff       	callq  5eb8 <safe_add_func_uint32_t_u_u>
    86ec:	89 c0                	mov    %eax,%eax
    86ee:	48 89 de             	mov    %rbx,%rsi
    86f1:	48 89 c7             	mov    %rax,%rdi
    86f4:	e8 35 d9 ff ff       	callq  602e <safe_add_func_uint64_t_u_u>
    86f9:	48 83 f8 36          	cmp    $0x36,%rax
    86fd:	0f be 9d 7c ee ff ff 	movsbl -0x1184(%rbp),%ebx
    8704:	8b 05 36 de 00 00    	mov    0xde36(%rip),%eax        # 16540 <g_1479>
    870a:	89 c2                	mov    %eax,%edx
    870c:	48 8b 05 bd d4 00 00 	mov    0xd4bd(%rip),%rax        # 15bd0 <g_1628>
    8713:	48 85 c0             	test   %rax,%rax
    8716:	0f 94 c0             	sete   %al
    8719:	0f b6 c0             	movzbl %al,%eax
    871c:	89 d6                	mov    %edx,%esi
    871e:	89 c7                	mov    %eax,%edi
    8720:	e8 93 d7 ff ff       	callq  5eb8 <safe_add_func_uint32_t_u_u>
    8725:	89 c2                	mov    %eax,%edx
    8727:	48 8b 05 62 cd 00 00 	mov    0xcd62(%rip),%rax        # 15490 <g_305>
    872e:	48 8b 00             	mov    (%rax),%rax
    8731:	48 39 c2             	cmp    %rax,%rdx
    8734:	0f 9d c0             	setge  %al
    8737:	0f b6 c0             	movzbl %al,%eax
    873a:	48 8b 95 90 ef ff ff 	mov    -0x1070(%rbp),%rdx
    8741:	31 d0                	xor    %edx,%eax
    8743:	89 de                	mov    %ebx,%esi
    8745:	89 c7                	mov    %eax,%edi
    8747:	e8 b9 ce ff ff       	callq  5605 <safe_sub_func_int32_t_s_s>
    874c:	0f be 85 7c ee ff ff 	movsbl -0x1184(%rbp),%eax
    8753:	48 8b 95 70 ef ff ff 	mov    -0x1090(%rbp),%rdx
    875a:	89 c6                	mov    %eax,%esi
    875c:	89 d7                	mov    %edx,%edi
    875e:	e8 9a d7 ff ff       	callq  5efd <safe_mod_func_uint32_t_u_u>
    8763:	48 8b 05 2e d3 00 00 	mov    0xd32e(%rip),%rax        # 15a98 <g_1003>
    876a:	0f b7 00             	movzwl (%rax),%eax
    876d:	0f bf d0             	movswl %ax,%edx
    8770:	8b 85 b0 f3 ff ff    	mov    -0xc50(%rbp),%eax
    8776:	21 c2                	and    %eax,%edx
    8778:	48 8b 05 09 d3 00 00 	mov    0xd309(%rip),%rax        # 15a88 <g_927>
    877f:	0f b7 00             	movzwl (%rax),%eax
    8782:	0f b7 c0             	movzwl %ax,%eax
    8785:	09 c2                	or     %eax,%edx
    8787:	0f b7 05 b2 b8 00 00 	movzwl 0xb8b2(%rip),%eax        # 14040 <g_71>
    878e:	98                   	cwtl   
    878f:	21 c2                	and    %eax,%edx
    8791:	48 8b 85 80 f0 ff ff 	mov    -0xf80(%rbp),%rax
    8798:	8b 00                	mov    (%rax),%eax
    879a:	09 c2                	or     %eax,%edx
    879c:	48 8b 85 80 f0 ff ff 	mov    -0xf80(%rbp),%rax
    87a3:	89 10                	mov    %edx,(%rax)
    87a5:	48 8b 05 f4 b9 00 00 	mov    0xb9f4(%rip),%rax        # 141a0 <g_661>
    87ac:	48 83 e8 01          	sub    $0x1,%rax
    87b0:	48 89 05 e9 b9 00 00 	mov    %rax,0xb9e9(%rip)        # 141a0 <g_661>
    87b7:	48 8b 05 e2 b9 00 00 	mov    0xb9e2(%rip),%rax        # 141a0 <g_661>
    87be:	48 85 c0             	test   %rax,%rax
    87c1:	0f 89 85 f9 ff ff    	jns    814c <func_53+0xdf5>
    87c7:	48 8b 85 a0 f8 ff ff 	mov    -0x760(%rbp),%rax
    87ce:	48 85 c0             	test   %rax,%rax
    87d1:	0f 85 1e 24 00 00    	jne    abf5 <func_53+0x389e>
    87d7:	48 8b 85 70 f0 ff ff 	mov    -0xf90(%rbp),%rax
    87de:	e9 46 24 00 00       	jmpq   ac29 <func_53+0x38d2>
    87e3:	48 b8 92 2c 4d 4c af 	movabs $0xe6ae57af4c4d2c92,%rax
    87ea:	57 ae e6 
    87ed:	48 89 85 a0 f3 ff ff 	mov    %rax,-0xc60(%rbp)
    87f4:	48 89 85 a8 f3 ff ff 	mov    %rax,-0xc58(%rbp)
    87fb:	48 89 85 b0 f3 ff ff 	mov    %rax,-0xc50(%rbp)
    8802:	48 89 85 b8 f3 ff ff 	mov    %rax,-0xc48(%rbp)
    8809:	48 89 85 c0 f3 ff ff 	mov    %rax,-0xc40(%rbp)
    8810:	48 bb 59 67 a6 ed f7 	movabs $0x3913c3f7eda66759,%rbx
    8817:	c3 13 39 
    881a:	48 89 9d c8 f3 ff ff 	mov    %rbx,-0xc38(%rbp)
    8821:	48 89 9d d0 f3 ff ff 	mov    %rbx,-0xc30(%rbp)
    8828:	48 89 9d d8 f3 ff ff 	mov    %rbx,-0xc28(%rbp)
    882f:	48 89 9d e0 f3 ff ff 	mov    %rbx,-0xc20(%rbp)
    8836:	48 89 9d e8 f3 ff ff 	mov    %rbx,-0xc18(%rbp)
    883d:	48 89 85 f0 f3 ff ff 	mov    %rax,-0xc10(%rbp)
    8844:	48 89 85 f8 f3 ff ff 	mov    %rax,-0xc08(%rbp)
    884b:	48 89 85 00 f4 ff ff 	mov    %rax,-0xc00(%rbp)
    8852:	48 89 85 08 f4 ff ff 	mov    %rax,-0xbf8(%rbp)
    8859:	48 89 85 10 f4 ff ff 	mov    %rax,-0xbf0(%rbp)
    8860:	48 89 9d 18 f4 ff ff 	mov    %rbx,-0xbe8(%rbp)
    8867:	48 89 9d 20 f4 ff ff 	mov    %rbx,-0xbe0(%rbp)
    886e:	48 89 9d 28 f4 ff ff 	mov    %rbx,-0xbd8(%rbp)
    8875:	48 89 9d 30 f4 ff ff 	mov    %rbx,-0xbd0(%rbp)
    887c:	48 89 9d 38 f4 ff ff 	mov    %rbx,-0xbc8(%rbp)
    8883:	48 89 85 40 f4 ff ff 	mov    %rax,-0xbc0(%rbp)
    888a:	48 89 85 48 f4 ff ff 	mov    %rax,-0xbb8(%rbp)
    8891:	48 89 85 50 f4 ff ff 	mov    %rax,-0xbb0(%rbp)
    8898:	48 89 85 58 f4 ff ff 	mov    %rax,-0xba8(%rbp)
    889f:	48 89 85 60 f4 ff ff 	mov    %rax,-0xba0(%rbp)
    88a6:	48 8d 05 33 b8 00 00 	lea    0xb833(%rip),%rax        # 140e0 <g_228>
    88ad:	48 89 85 98 ef ff ff 	mov    %rax,-0x1068(%rbp)
    88b4:	48 8d 85 98 ef ff ff 	lea    -0x1068(%rbp),%rax
    88bb:	48 89 85 a0 ef ff ff 	mov    %rax,-0x1060(%rbp)
    88c2:	48 8d 85 a0 ef ff ff 	lea    -0x1060(%rbp),%rax
    88c9:	48 89 85 a8 ef ff ff 	mov    %rax,-0x1058(%rbp)
    88d0:	48 8d 85 50 f1 ff ff 	lea    -0xeb0(%rbp),%rax
    88d7:	48 83 c0 10          	add    $0x10,%rax
    88db:	48 89 85 00 f0 ff ff 	mov    %rax,-0x1000(%rbp)
    88e2:	c7 85 a4 ee ff ff ff 	movl   $0xffffffff,-0x115c(%rbp)
    88e9:	ff ff ff 
    88ec:	c7 85 08 ef ff ff 00 	movl   $0x0,-0x10f8(%rbp)
    88f3:	00 00 00 
    88f6:	c7 85 a8 ee ff ff fc 	movl   $0xfffffffc,-0x1158(%rbp)
    88fd:	ff ff ff 
    8900:	c7 85 0c ef ff ff a6 	movl   $0xd9b8f4a6,-0x10f4(%rbp)
    8907:	f4 b8 d9 
    890a:	c7 85 30 f1 ff ff b3 	movl   $0x260aeb3,-0xed0(%rbp)
    8911:	ae 60 02 
    8914:	c7 85 34 f1 ff ff 01 	movl   $0x1,-0xecc(%rbp)
    891b:	00 00 00 
    891e:	c7 85 38 f1 ff ff 01 	movl   $0x1,-0xec8(%rbp)
    8925:	00 00 00 
    8928:	c7 85 3c f1 ff ff b3 	movl   $0x260aeb3,-0xec4(%rbp)
    892f:	ae 60 02 
    8932:	c7 85 40 f1 ff ff 01 	movl   $0x1,-0xec0(%rbp)
    8939:	00 00 00 
    893c:	c7 85 44 f1 ff ff 01 	movl   $0x1,-0xebc(%rbp)
    8943:	00 00 00 
    8946:	48 b8 1c 84 7b af d7 	movabs $0x371254d7af7b841c,%rax
    894d:	54 12 37 
    8950:	48 89 85 b0 ef ff ff 	mov    %rax,-0x1050(%rbp)
    8957:	c7 85 dc ee ff ff 00 	movl   $0x0,-0x1124(%rbp)
    895e:	00 00 00 
    8961:	eb 1e                	jmp    8981 <func_53+0x162a>
    8963:	8b 85 dc ee ff ff    	mov    -0x1124(%rbp),%eax
    8969:	48 98                	cltq   
    896b:	48 8d 95 a8 ef ff ff 	lea    -0x1058(%rbp),%rdx
    8972:	48 89 94 c5 50 f1 ff 	mov    %rdx,-0xeb0(%rbp,%rax,8)
    8979:	ff 
    897a:	83 85 dc ee ff ff 01 	addl   $0x1,-0x1124(%rbp)
    8981:	83 bd dc ee ff ff 06 	cmpl   $0x6,-0x1124(%rbp)
    8988:	7e d9                	jle    8963 <func_53+0x160c>
    898a:	c7 85 dc ee ff ff 00 	movl   $0x0,-0x1124(%rbp)
    8991:	00 00 00 
    8994:	eb 1b                	jmp    89b1 <func_53+0x165a>
    8996:	8b 85 dc ee ff ff    	mov    -0x1124(%rbp),%eax
    899c:	48 98                	cltq   
    899e:	48 c7 84 c5 10 f1 ff 	movq   $0x0,-0xef0(%rbp,%rax,8)
    89a5:	ff 00 00 00 00 
    89aa:	83 85 dc ee ff ff 01 	addl   $0x1,-0x1124(%rbp)
    89b1:	83 bd dc ee ff ff 02 	cmpl   $0x2,-0x1124(%rbp)
    89b8:	7e dc                	jle    8996 <func_53+0x163f>
    89ba:	c7 05 44 b8 00 00 00 	movl   $0x0,0xb844(%rip)        # 14208 <g_1094>
    89c1:	00 00 00 
    89c4:	90                   	nop
    89c5:	8b 05 3d b8 00 00    	mov    0xb83d(%rip),%eax        # 14208 <g_1094>
    89cb:	83 f8 01             	cmp    $0x1,%eax
    89ce:	0f 87 c0 09 00 00    	ja     9394 <func_53+0x203d>
    89d4:	c7 85 54 ef ff ff 06 	movl   $0x6,-0x10ac(%rbp)
    89db:	00 00 00 
    89de:	48 c7 85 38 f0 ff ff 	movq   $0x0,-0xfc8(%rbp)
    89e5:	00 00 00 00 
    89e9:	c7 85 ac ee ff ff 50 	movl   $0xe4ae6650,-0x1154(%rbp)
    89f0:	66 ae e4 
    89f3:	c7 85 b0 ee ff ff df 	movl   $0x132d76df,-0x1150(%rbp)
    89fa:	76 2d 13 
    89fd:	c7 85 20 f2 ff ff 02 	movl   $0x4c90d302,-0xde0(%rbp)
    8a04:	d3 90 4c 
    8a07:	c7 85 24 f2 ff ff 02 	movl   $0x4c90d302,-0xddc(%rbp)
    8a0e:	d3 90 4c 
    8a11:	c7 85 28 f2 ff ff 02 	movl   $0x4c90d302,-0xdd8(%rbp)
    8a18:	d3 90 4c 
    8a1b:	c7 85 2c f2 ff ff 02 	movl   $0x4c90d302,-0xdd4(%rbp)
    8a22:	d3 90 4c 
    8a25:	c7 85 30 f2 ff ff 02 	movl   $0x4c90d302,-0xdd0(%rbp)
    8a2c:	d3 90 4c 
    8a2f:	c7 85 34 f2 ff ff 02 	movl   $0x4c90d302,-0xdcc(%rbp)
    8a36:	d3 90 4c 
    8a39:	c7 85 38 f2 ff ff 02 	movl   $0x4c90d302,-0xdc8(%rbp)
    8a40:	d3 90 4c 
    8a43:	c7 85 3c f2 ff ff 02 	movl   $0x4c90d302,-0xdc4(%rbp)
    8a4a:	d3 90 4c 
    8a4d:	c7 85 40 f2 ff ff 02 	movl   $0x4c90d302,-0xdc0(%rbp)
    8a54:	d3 90 4c 
    8a57:	48 8d 05 82 b6 00 00 	lea    0xb682(%rip),%rax        # 140e0 <g_228>
    8a5e:	48 89 85 40 f0 ff ff 	mov    %rax,-0xfc0(%rbp)
    8a65:	48 8d 85 70 f4 ff ff 	lea    -0xb90(%rbp),%rax
    8a6c:	48 83 c0 71          	add    $0x71,%rax
    8a70:	48 89 85 20 f8 ff ff 	mov    %rax,-0x7e0(%rbp)
    8a77:	48 8d 85 70 f4 ff ff 	lea    -0xb90(%rbp),%rax
    8a7e:	48 83 c0 3f          	add    $0x3f,%rax
    8a82:	48 89 85 28 f8 ff ff 	mov    %rax,-0x7d8(%rbp)
    8a89:	48 8d 05 b0 b5 00 00 	lea    0xb5b0(%rip),%rax        # 14040 <g_71>
    8a90:	48 89 85 30 f8 ff ff 	mov    %rax,-0x7d0(%rbp)
    8a97:	48 8d 85 70 f4 ff ff 	lea    -0xb90(%rbp),%rax
    8a9e:	48 83 c0 3f          	add    $0x3f,%rax
    8aa2:	48 89 85 38 f8 ff ff 	mov    %rax,-0x7c8(%rbp)
    8aa9:	48 8d 85 70 f4 ff ff 	lea    -0xb90(%rbp),%rax
    8ab0:	48 83 c0 71          	add    $0x71,%rax
    8ab4:	48 89 85 40 f8 ff ff 	mov    %rax,-0x7c0(%rbp)
    8abb:	48 8d 05 b3 b5 00 00 	lea    0xb5b3(%rip),%rax        # 14075 <g_172+0x1>
    8ac2:	48 89 85 48 f8 ff ff 	mov    %rax,-0x7b8(%rbp)
    8ac9:	48 8d 05 10 b6 00 00 	lea    0xb610(%rip),%rax        # 140e0 <g_228>
    8ad0:	48 89 85 50 f8 ff ff 	mov    %rax,-0x7b0(%rbp)
    8ad7:	48 8d 05 62 b5 00 00 	lea    0xb562(%rip),%rax        # 14040 <g_71>
    8ade:	48 89 85 58 f8 ff ff 	mov    %rax,-0x7a8(%rbp)
    8ae5:	48 c7 85 60 f8 ff ff 	movq   $0x0,-0x7a0(%rbp)
    8aec:	00 00 00 00 
    8af0:	48 c7 85 68 f8 ff ff 	movq   $0x0,-0x798(%rbp)
    8af7:	00 00 00 00 
    8afb:	48 8d 05 75 b5 00 00 	lea    0xb575(%rip),%rax        # 14077 <g_172+0x3>
    8b02:	48 89 85 70 f8 ff ff 	mov    %rax,-0x790(%rbp)
    8b09:	48 c7 85 78 f8 ff ff 	movq   $0x0,-0x788(%rbp)
    8b10:	00 00 00 00 
    8b14:	48 c7 85 80 f8 ff ff 	movq   $0x0,-0x780(%rbp)
    8b1b:	00 00 00 00 
    8b1f:	48 8d 85 70 f4 ff ff 	lea    -0xb90(%rbp),%rax
    8b26:	48 83 c0 71          	add    $0x71,%rax
    8b2a:	48 89 85 88 f8 ff ff 	mov    %rax,-0x778(%rbp)
    8b31:	48 8d 05 08 b5 00 00 	lea    0xb508(%rip),%rax        # 14040 <g_71>
    8b38:	48 89 85 90 f8 ff ff 	mov    %rax,-0x770(%rbp)
    8b3f:	48 8d 05 fa b4 00 00 	lea    0xb4fa(%rip),%rax        # 14040 <g_71>
    8b46:	48 89 85 98 f8 ff ff 	mov    %rax,-0x768(%rbp)
    8b4d:	48 8d 05 d0 b6 00 00 	lea    0xb6d0(%rip),%rax        # 14224 <g_1195>
    8b54:	48 89 85 a0 f8 ff ff 	mov    %rax,-0x760(%rbp)
    8b5b:	48 8d 05 7e b5 00 00 	lea    0xb57e(%rip),%rax        # 140e0 <g_228>
    8b62:	48 89 85 a8 f8 ff ff 	mov    %rax,-0x758(%rbp)
    8b69:	48 8d 05 05 b5 00 00 	lea    0xb505(%rip),%rax        # 14075 <g_172+0x1>
    8b70:	48 89 85 b0 f8 ff ff 	mov    %rax,-0x750(%rbp)
    8b77:	48 8d 05 f9 b4 00 00 	lea    0xb4f9(%rip),%rax        # 14077 <g_172+0x3>
    8b7e:	48 89 85 b8 f8 ff ff 	mov    %rax,-0x748(%rbp)
    8b85:	48 8d 05 54 b5 00 00 	lea    0xb554(%rip),%rax        # 140e0 <g_228>
    8b8c:	48 89 85 c0 f8 ff ff 	mov    %rax,-0x740(%rbp)
    8b93:	48 c7 85 c8 f8 ff ff 	movq   $0x0,-0x738(%rbp)
    8b9a:	00 00 00 00 
    8b9e:	48 8d 05 3b b5 00 00 	lea    0xb53b(%rip),%rax        # 140e0 <g_228>
    8ba5:	48 89 85 d0 f8 ff ff 	mov    %rax,-0x730(%rbp)
    8bac:	48 8d 05 2d b5 00 00 	lea    0xb52d(%rip),%rax        # 140e0 <g_228>
    8bb3:	48 89 85 d8 f8 ff ff 	mov    %rax,-0x728(%rbp)
    8bba:	48 c7 85 e0 f8 ff ff 	movq   $0x0,-0x720(%rbp)
    8bc1:	00 00 00 00 
    8bc5:	48 8d 05 a9 b4 00 00 	lea    0xb4a9(%rip),%rax        # 14075 <g_172+0x1>
    8bcc:	48 89 85 e8 f8 ff ff 	mov    %rax,-0x718(%rbp)
    8bd3:	48 c7 85 f0 f8 ff ff 	movq   $0x0,-0x710(%rbp)
    8bda:	00 00 00 00 
    8bde:	48 8d 05 fb b4 00 00 	lea    0xb4fb(%rip),%rax        # 140e0 <g_228>
    8be5:	48 89 85 f8 f8 ff ff 	mov    %rax,-0x708(%rbp)
    8bec:	48 8d 05 ed b4 00 00 	lea    0xb4ed(%rip),%rax        # 140e0 <g_228>
    8bf3:	48 89 85 00 f9 ff ff 	mov    %rax,-0x700(%rbp)
    8bfa:	48 c7 85 08 f9 ff ff 	movq   $0x0,-0x6f8(%rbp)
    8c01:	00 00 00 00 
    8c05:	48 8d 05 d4 b4 00 00 	lea    0xb4d4(%rip),%rax        # 140e0 <g_228>
    8c0c:	48 89 85 10 f9 ff ff 	mov    %rax,-0x6f0(%rbp)
    8c13:	48 8d 05 5d b4 00 00 	lea    0xb45d(%rip),%rax        # 14077 <g_172+0x3>
    8c1a:	48 89 85 18 f9 ff ff 	mov    %rax,-0x6e8(%rbp)
    8c21:	48 8d 05 4d b4 00 00 	lea    0xb44d(%rip),%rax        # 14075 <g_172+0x1>
    8c28:	48 89 85 20 f9 ff ff 	mov    %rax,-0x6e0(%rbp)
    8c2f:	48 8d 05 aa b4 00 00 	lea    0xb4aa(%rip),%rax        # 140e0 <g_228>
    8c36:	48 89 85 28 f9 ff ff 	mov    %rax,-0x6d8(%rbp)
    8c3d:	48 8d 05 e0 b5 00 00 	lea    0xb5e0(%rip),%rax        # 14224 <g_1195>
    8c44:	48 89 85 30 f9 ff ff 	mov    %rax,-0x6d0(%rbp)
    8c4b:	48 8d 05 ee b3 00 00 	lea    0xb3ee(%rip),%rax        # 14040 <g_71>
    8c52:	48 89 85 38 f9 ff ff 	mov    %rax,-0x6c8(%rbp)
    8c59:	48 8d 05 e0 b3 00 00 	lea    0xb3e0(%rip),%rax        # 14040 <g_71>
    8c60:	48 89 85 40 f9 ff ff 	mov    %rax,-0x6c0(%rbp)
    8c67:	48 8d 85 70 f4 ff ff 	lea    -0xb90(%rbp),%rax
    8c6e:	48 83 c0 71          	add    $0x71,%rax
    8c72:	48 89 85 48 f9 ff ff 	mov    %rax,-0x6b8(%rbp)
    8c79:	48 c7 85 50 f9 ff ff 	movq   $0x0,-0x6b0(%rbp)
    8c80:	00 00 00 00 
    8c84:	48 c7 85 58 f9 ff ff 	movq   $0x0,-0x6a8(%rbp)
    8c8b:	00 00 00 00 
    8c8f:	48 8d 05 e1 b3 00 00 	lea    0xb3e1(%rip),%rax        # 14077 <g_172+0x3>
    8c96:	48 89 85 60 f9 ff ff 	mov    %rax,-0x6a0(%rbp)
    8c9d:	48 c7 85 68 f9 ff ff 	movq   $0x0,-0x698(%rbp)
    8ca4:	00 00 00 00 
    8ca8:	48 c7 85 70 f9 ff ff 	movq   $0x0,-0x690(%rbp)
    8caf:	00 00 00 00 
    8cb3:	48 8d 05 86 b3 00 00 	lea    0xb386(%rip),%rax        # 14040 <g_71>
    8cba:	48 89 85 78 f9 ff ff 	mov    %rax,-0x688(%rbp)
    8cc1:	48 8d 05 18 b4 00 00 	lea    0xb418(%rip),%rax        # 140e0 <g_228>
    8cc8:	48 89 85 80 f9 ff ff 	mov    %rax,-0x680(%rbp)
    8ccf:	48 8d 05 9f b3 00 00 	lea    0xb39f(%rip),%rax        # 14075 <g_172+0x1>
    8cd6:	48 89 85 88 f9 ff ff 	mov    %rax,-0x678(%rbp)
    8cdd:	48 8d 85 70 f4 ff ff 	lea    -0xb90(%rbp),%rax
    8ce4:	48 83 c0 71          	add    $0x71,%rax
    8ce8:	48 89 85 90 f9 ff ff 	mov    %rax,-0x670(%rbp)
    8cef:	48 8d 85 70 f4 ff ff 	lea    -0xb90(%rbp),%rax
    8cf6:	48 83 c0 3f          	add    $0x3f,%rax
    8cfa:	48 89 85 98 f9 ff ff 	mov    %rax,-0x668(%rbp)
    8d01:	48 8d 05 38 b3 00 00 	lea    0xb338(%rip),%rax        # 14040 <g_71>
    8d08:	48 89 85 a0 f9 ff ff 	mov    %rax,-0x660(%rbp)
    8d0f:	48 8d 85 70 f4 ff ff 	lea    -0xb90(%rbp),%rax
    8d16:	48 83 c0 3f          	add    $0x3f,%rax
    8d1a:	48 89 85 a8 f9 ff ff 	mov    %rax,-0x658(%rbp)
    8d21:	48 8d 85 70 f4 ff ff 	lea    -0xb90(%rbp),%rax
    8d28:	48 83 c0 71          	add    $0x71,%rax
    8d2c:	48 89 85 b0 f9 ff ff 	mov    %rax,-0x650(%rbp)
    8d33:	48 8d 05 3b b3 00 00 	lea    0xb33b(%rip),%rax        # 14075 <g_172+0x1>
    8d3a:	48 89 85 b8 f9 ff ff 	mov    %rax,-0x648(%rbp)
    8d41:	48 8d 05 98 b3 00 00 	lea    0xb398(%rip),%rax        # 140e0 <g_228>
    8d48:	48 89 85 c0 f9 ff ff 	mov    %rax,-0x640(%rbp)
    8d4f:	48 8d 05 ea b2 00 00 	lea    0xb2ea(%rip),%rax        # 14040 <g_71>
    8d56:	48 89 85 c8 f9 ff ff 	mov    %rax,-0x638(%rbp)
    8d5d:	48 c7 85 d0 f9 ff ff 	movq   $0x0,-0x630(%rbp)
    8d64:	00 00 00 00 
    8d68:	48 c7 85 d8 f9 ff ff 	movq   $0x0,-0x628(%rbp)
    8d6f:	00 00 00 00 
    8d73:	48 8d 05 fd b2 00 00 	lea    0xb2fd(%rip),%rax        # 14077 <g_172+0x3>
    8d7a:	48 89 85 e0 f9 ff ff 	mov    %rax,-0x620(%rbp)
    8d81:	48 c7 85 e8 f9 ff ff 	movq   $0x0,-0x618(%rbp)
    8d88:	00 00 00 00 
    8d8c:	48 c7 85 f0 f9 ff ff 	movq   $0x0,-0x610(%rbp)
    8d93:	00 00 00 00 
    8d97:	48 8d 85 70 f4 ff ff 	lea    -0xb90(%rbp),%rax
    8d9e:	48 83 c0 71          	add    $0x71,%rax
    8da2:	48 89 85 f8 f9 ff ff 	mov    %rax,-0x608(%rbp)
    8da9:	48 8d 05 90 b2 00 00 	lea    0xb290(%rip),%rax        # 14040 <g_71>
    8db0:	48 89 85 00 fa ff ff 	mov    %rax,-0x600(%rbp)
    8db7:	48 8d 05 82 b2 00 00 	lea    0xb282(%rip),%rax        # 14040 <g_71>
    8dbe:	48 89 85 08 fa ff ff 	mov    %rax,-0x5f8(%rbp)
    8dc5:	48 8d 05 58 b4 00 00 	lea    0xb458(%rip),%rax        # 14224 <g_1195>
    8dcc:	48 89 85 10 fa ff ff 	mov    %rax,-0x5f0(%rbp)
    8dd3:	48 8d 05 06 b3 00 00 	lea    0xb306(%rip),%rax        # 140e0 <g_228>
    8dda:	48 89 85 18 fa ff ff 	mov    %rax,-0x5e8(%rbp)
    8de1:	48 8d 05 8d b2 00 00 	lea    0xb28d(%rip),%rax        # 14075 <g_172+0x1>
    8de8:	48 89 85 20 fa ff ff 	mov    %rax,-0x5e0(%rbp)
    8def:	48 8d 05 81 b2 00 00 	lea    0xb281(%rip),%rax        # 14077 <g_172+0x3>
    8df6:	48 89 85 28 fa ff ff 	mov    %rax,-0x5d8(%rbp)
    8dfd:	48 8d 05 dc b2 00 00 	lea    0xb2dc(%rip),%rax        # 140e0 <g_228>
    8e04:	48 89 85 30 fa ff ff 	mov    %rax,-0x5d0(%rbp)
    8e0b:	48 c7 85 38 fa ff ff 	movq   $0x0,-0x5c8(%rbp)
    8e12:	00 00 00 00 
    8e16:	48 8d 05 c3 b2 00 00 	lea    0xb2c3(%rip),%rax        # 140e0 <g_228>
    8e1d:	48 89 85 40 fa ff ff 	mov    %rax,-0x5c0(%rbp)
    8e24:	48 8d 05 b5 b2 00 00 	lea    0xb2b5(%rip),%rax        # 140e0 <g_228>
    8e2b:	48 89 85 48 fa ff ff 	mov    %rax,-0x5b8(%rbp)
    8e32:	48 8d 05 eb b3 00 00 	lea    0xb3eb(%rip),%rax        # 14224 <g_1195>
    8e39:	48 89 85 50 fa ff ff 	mov    %rax,-0x5b0(%rbp)
    8e40:	48 8d 05 99 b2 00 00 	lea    0xb299(%rip),%rax        # 140e0 <g_228>
    8e47:	48 89 85 58 fa ff ff 	mov    %rax,-0x5a8(%rbp)
    8e4e:	48 8d 05 cf b3 00 00 	lea    0xb3cf(%rip),%rax        # 14224 <g_1195>
    8e55:	48 89 85 60 fa ff ff 	mov    %rax,-0x5a0(%rbp)
    8e5c:	48 c7 85 68 fa ff ff 	movq   $0x0,-0x598(%rbp)
    8e63:	00 00 00 00 
    8e67:	48 8d 85 70 f4 ff ff 	lea    -0xb90(%rbp),%rax
    8e6e:	48 83 c0 4d          	add    $0x4d,%rax
    8e72:	48 89 85 70 fa ff ff 	mov    %rax,-0x590(%rbp)
    8e79:	48 8d 05 60 b2 00 00 	lea    0xb260(%rip),%rax        # 140e0 <g_228>
    8e80:	48 89 85 78 fa ff ff 	mov    %rax,-0x588(%rbp)
    8e87:	48 c7 85 80 fa ff ff 	movq   $0x0,-0x580(%rbp)
    8e8e:	00 00 00 00 
    8e92:	48 8d 85 70 f4 ff ff 	lea    -0xb90(%rbp),%rax
    8e99:	48 83 c0 3f          	add    $0x3f,%rax
    8e9d:	48 89 85 88 fa ff ff 	mov    %rax,-0x578(%rbp)
    8ea4:	48 c7 85 90 fa ff ff 	movq   $0x0,-0x570(%rbp)
    8eab:	00 00 00 00 
    8eaf:	48 8d 85 70 f4 ff ff 	lea    -0xb90(%rbp),%rax
    8eb6:	48 83 c0 71          	add    $0x71,%rax
    8eba:	48 89 85 98 fa ff ff 	mov    %rax,-0x568(%rbp)
    8ec1:	48 8d 05 78 b1 00 00 	lea    0xb178(%rip),%rax        # 14040 <g_71>
    8ec8:	48 89 85 a0 fa ff ff 	mov    %rax,-0x560(%rbp)
    8ecf:	48 8d 05 0a b2 00 00 	lea    0xb20a(%rip),%rax        # 140e0 <g_228>
    8ed6:	48 89 85 a8 fa ff ff 	mov    %rax,-0x558(%rbp)
    8edd:	48 8d 05 fc b1 00 00 	lea    0xb1fc(%rip),%rax        # 140e0 <g_228>
    8ee4:	48 89 85 b0 fa ff ff 	mov    %rax,-0x550(%rbp)
    8eeb:	48 8d 85 70 f4 ff ff 	lea    -0xb90(%rbp),%rax
    8ef2:	48 83 c0 54          	add    $0x54,%rax
    8ef6:	48 89 85 b8 fa ff ff 	mov    %rax,-0x548(%rbp)
    8efd:	48 8d 05 71 b1 00 00 	lea    0xb171(%rip),%rax        # 14075 <g_172+0x1>
    8f04:	48 89 85 c0 fa ff ff 	mov    %rax,-0x540(%rbp)
    8f0b:	48 8d 05 63 b1 00 00 	lea    0xb163(%rip),%rax        # 14075 <g_172+0x1>
    8f12:	48 89 85 c8 fa ff ff 	mov    %rax,-0x538(%rbp)
    8f19:	48 8d 05 20 b1 00 00 	lea    0xb120(%rip),%rax        # 14040 <g_71>
    8f20:	48 89 85 d0 fa ff ff 	mov    %rax,-0x530(%rbp)
    8f27:	48 8d 05 f6 b2 00 00 	lea    0xb2f6(%rip),%rax        # 14224 <g_1195>
    8f2e:	48 89 85 d8 fa ff ff 	mov    %rax,-0x528(%rbp)
    8f35:	48 c7 85 e0 fa ff ff 	movq   $0x0,-0x520(%rbp)
    8f3c:	00 00 00 00 
    8f40:	48 8d 05 30 b1 00 00 	lea    0xb130(%rip),%rax        # 14077 <g_172+0x3>
    8f47:	48 89 85 e8 fa ff ff 	mov    %rax,-0x518(%rbp)
    8f4e:	48 8d 85 70 f4 ff ff 	lea    -0xb90(%rbp),%rax
    8f55:	48 83 c0 71          	add    $0x71,%rax
    8f59:	48 89 85 f0 fa ff ff 	mov    %rax,-0x510(%rbp)
    8f60:	48 8d 05 10 b1 00 00 	lea    0xb110(%rip),%rax        # 14077 <g_172+0x3>
    8f67:	48 89 85 f8 fa ff ff 	mov    %rax,-0x508(%rbp)
    8f6e:	48 8d 85 70 f4 ff ff 	lea    -0xb90(%rbp),%rax
    8f75:	48 83 c0 54          	add    $0x54,%rax
    8f79:	48 89 85 00 fb ff ff 	mov    %rax,-0x500(%rbp)
    8f80:	48 c7 85 08 fb ff ff 	movq   $0x0,-0x4f8(%rbp)
    8f87:	00 00 00 00 
    8f8b:	48 8d 05 e5 b0 00 00 	lea    0xb0e5(%rip),%rax        # 14077 <g_172+0x3>
    8f92:	48 89 85 10 fb ff ff 	mov    %rax,-0x4f0(%rbp)
    8f99:	48 c7 85 18 fb ff ff 	movq   $0x0,-0x4e8(%rbp)
    8fa0:	00 00 00 00 
    8fa4:	48 8d 85 70 f4 ff ff 	lea    -0xb90(%rbp),%rax
    8fab:	48 83 c0 54          	add    $0x54,%rax
    8faf:	48 89 85 20 fb ff ff 	mov    %rax,-0x4e0(%rbp)
    8fb6:	48 8d 05 ba b0 00 00 	lea    0xb0ba(%rip),%rax        # 14077 <g_172+0x3>
    8fbd:	48 89 85 28 fb ff ff 	mov    %rax,-0x4d8(%rbp)
    8fc4:	48 8d 85 70 f4 ff ff 	lea    -0xb90(%rbp),%rax
    8fcb:	48 83 c0 71          	add    $0x71,%rax
    8fcf:	48 89 85 30 fb ff ff 	mov    %rax,-0x4d0(%rbp)
    8fd6:	48 8d 05 9a b0 00 00 	lea    0xb09a(%rip),%rax        # 14077 <g_172+0x3>
    8fdd:	48 89 85 38 fb ff ff 	mov    %rax,-0x4c8(%rbp)
    8fe4:	48 c7 85 40 fb ff ff 	movq   $0x0,-0x4c0(%rbp)
    8feb:	00 00 00 00 
    8fef:	48 8d 05 2e b2 00 00 	lea    0xb22e(%rip),%rax        # 14224 <g_1195>
    8ff6:	48 89 85 48 fb ff ff 	mov    %rax,-0x4b8(%rbp)
    8ffd:	48 8d 05 3c b0 00 00 	lea    0xb03c(%rip),%rax        # 14040 <g_71>
    9004:	48 89 85 50 fb ff ff 	mov    %rax,-0x4b0(%rbp)
    900b:	48 8d 05 63 b0 00 00 	lea    0xb063(%rip),%rax        # 14075 <g_172+0x1>
    9012:	48 89 85 58 fb ff ff 	mov    %rax,-0x4a8(%rbp)
    9019:	48 8d 05 55 b0 00 00 	lea    0xb055(%rip),%rax        # 14075 <g_172+0x1>
    9020:	48 89 85 60 fb ff ff 	mov    %rax,-0x4a0(%rbp)
    9027:	48 8d 85 70 f4 ff ff 	lea    -0xb90(%rbp),%rax
    902e:	48 83 c0 54          	add    $0x54,%rax
    9032:	48 89 85 68 fb ff ff 	mov    %rax,-0x498(%rbp)
    9039:	48 8d 05 a0 b0 00 00 	lea    0xb0a0(%rip),%rax        # 140e0 <g_228>
    9040:	48 89 85 70 fb ff ff 	mov    %rax,-0x490(%rbp)
    9047:	48 8d 05 92 b0 00 00 	lea    0xb092(%rip),%rax        # 140e0 <g_228>
    904e:	48 89 85 78 fb ff ff 	mov    %rax,-0x488(%rbp)
    9055:	48 8d 05 e4 af 00 00 	lea    0xafe4(%rip),%rax        # 14040 <g_71>
    905c:	48 89 85 80 fb ff ff 	mov    %rax,-0x480(%rbp)
    9063:	48 8d 85 70 f4 ff ff 	lea    -0xb90(%rbp),%rax
    906a:	48 83 c0 71          	add    $0x71,%rax
    906e:	48 89 85 88 fb ff ff 	mov    %rax,-0x478(%rbp)
    9075:	48 c7 85 90 fb ff ff 	movq   $0x0,-0x470(%rbp)
    907c:	00 00 00 00 
    9080:	48 8d 85 70 f4 ff ff 	lea    -0xb90(%rbp),%rax
    9087:	48 83 c0 3f          	add    $0x3f,%rax
    908b:	48 89 85 98 fb ff ff 	mov    %rax,-0x468(%rbp)
    9092:	48 c7 85 a0 fb ff ff 	movq   $0x0,-0x460(%rbp)
    9099:	00 00 00 00 
    909d:	48 8d 05 3c b0 00 00 	lea    0xb03c(%rip),%rax        # 140e0 <g_228>
    90a4:	48 89 85 a8 fb ff ff 	mov    %rax,-0x458(%rbp)
    90ab:	48 8d 85 70 f4 ff ff 	lea    -0xb90(%rbp),%rax
    90b2:	48 83 c0 4d          	add    $0x4d,%rax
    90b6:	48 89 85 b0 fb ff ff 	mov    %rax,-0x450(%rbp)
    90bd:	48 c7 85 b8 fb ff ff 	movq   $0x0,-0x448(%rbp)
    90c4:	00 00 00 00 
    90c8:	48 8d 05 55 b1 00 00 	lea    0xb155(%rip),%rax        # 14224 <g_1195>
    90cf:	48 89 85 c0 fb ff ff 	mov    %rax,-0x440(%rbp)
    90d6:	48 8d 05 03 b0 00 00 	lea    0xb003(%rip),%rax        # 140e0 <g_228>
    90dd:	48 89 85 c8 fb ff ff 	mov    %rax,-0x438(%rbp)
    90e4:	48 8d 05 39 b1 00 00 	lea    0xb139(%rip),%rax        # 14224 <g_1195>
    90eb:	48 89 85 d0 fb ff ff 	mov    %rax,-0x430(%rbp)
    90f2:	48 c7 85 d8 fb ff ff 	movq   $0x0,-0x428(%rbp)
    90f9:	00 00 00 00 
    90fd:	48 8d 85 70 f4 ff ff 	lea    -0xb90(%rbp),%rax
    9104:	48 83 c0 4d          	add    $0x4d,%rax
    9108:	48 89 85 e0 fb ff ff 	mov    %rax,-0x420(%rbp)
    910f:	48 8d 05 ca af 00 00 	lea    0xafca(%rip),%rax        # 140e0 <g_228>
    9116:	48 89 85 e8 fb ff ff 	mov    %rax,-0x418(%rbp)
    911d:	48 c7 85 f0 fb ff ff 	movq   $0x0,-0x410(%rbp)
    9124:	00 00 00 00 
    9128:	48 8d 85 70 f4 ff ff 	lea    -0xb90(%rbp),%rax
    912f:	48 83 c0 3f          	add    $0x3f,%rax
    9133:	48 89 85 f8 fb ff ff 	mov    %rax,-0x408(%rbp)
    913a:	48 c7 85 00 fc ff ff 	movq   $0x0,-0x400(%rbp)
    9141:	00 00 00 00 
    9145:	48 8d 85 70 f4 ff ff 	lea    -0xb90(%rbp),%rax
    914c:	48 83 c0 71          	add    $0x71,%rax
    9150:	48 89 85 08 fc ff ff 	mov    %rax,-0x3f8(%rbp)
    9157:	48 8d 05 e2 ae 00 00 	lea    0xaee2(%rip),%rax        # 14040 <g_71>
    915e:	48 89 85 10 fc ff ff 	mov    %rax,-0x3f0(%rbp)
    9165:	48 8d 05 74 af 00 00 	lea    0xaf74(%rip),%rax        # 140e0 <g_228>
    916c:	48 89 85 18 fc ff ff 	mov    %rax,-0x3e8(%rbp)
    9173:	48 8d 05 66 af 00 00 	lea    0xaf66(%rip),%rax        # 140e0 <g_228>
    917a:	48 89 85 20 fc ff ff 	mov    %rax,-0x3e0(%rbp)
    9181:	48 8d 85 70 f4 ff ff 	lea    -0xb90(%rbp),%rax
    9188:	48 83 c0 54          	add    $0x54,%rax
    918c:	48 89 85 28 fc ff ff 	mov    %rax,-0x3d8(%rbp)
    9193:	48 8d 05 db ae 00 00 	lea    0xaedb(%rip),%rax        # 14075 <g_172+0x1>
    919a:	48 89 85 30 fc ff ff 	mov    %rax,-0x3d0(%rbp)
    91a1:	48 8d 05 cd ae 00 00 	lea    0xaecd(%rip),%rax        # 14075 <g_172+0x1>
    91a8:	48 89 85 38 fc ff ff 	mov    %rax,-0x3c8(%rbp)
    91af:	48 8d 05 8a ae 00 00 	lea    0xae8a(%rip),%rax        # 14040 <g_71>
    91b6:	48 89 85 40 fc ff ff 	mov    %rax,-0x3c0(%rbp)
    91bd:	48 8d 05 60 b0 00 00 	lea    0xb060(%rip),%rax        # 14224 <g_1195>
    91c4:	48 89 85 48 fc ff ff 	mov    %rax,-0x3b8(%rbp)
    91cb:	48 c7 85 50 fc ff ff 	movq   $0x0,-0x3b0(%rbp)
    91d2:	00 00 00 00 
    91d6:	48 8d 05 9a ae 00 00 	lea    0xae9a(%rip),%rax        # 14077 <g_172+0x3>
    91dd:	48 89 85 58 fc ff ff 	mov    %rax,-0x3a8(%rbp)
    91e4:	48 8d 85 70 f4 ff ff 	lea    -0xb90(%rbp),%rax
    91eb:	48 83 c0 71          	add    $0x71,%rax
    91ef:	48 89 85 60 fc ff ff 	mov    %rax,-0x3a0(%rbp)
    91f6:	48 8d 05 7a ae 00 00 	lea    0xae7a(%rip),%rax        # 14077 <g_172+0x3>
    91fd:	48 89 85 68 fc ff ff 	mov    %rax,-0x398(%rbp)
    9204:	48 8d 85 70 f4 ff ff 	lea    -0xb90(%rbp),%rax
    920b:	48 83 c0 54          	add    $0x54,%rax
    920f:	48 89 85 70 fc ff ff 	mov    %rax,-0x390(%rbp)
    9216:	48 c7 85 78 fc ff ff 	movq   $0x0,-0x388(%rbp)
    921d:	00 00 00 00 
    9221:	48 8d 05 4f ae 00 00 	lea    0xae4f(%rip),%rax        # 14077 <g_172+0x3>
    9228:	48 89 85 80 fc ff ff 	mov    %rax,-0x380(%rbp)
    922f:	48 c7 85 88 fc ff ff 	movq   $0x0,-0x378(%rbp)
    9236:	00 00 00 00 
    923a:	48 8d 85 70 f4 ff ff 	lea    -0xb90(%rbp),%rax
    9241:	48 83 c0 54          	add    $0x54,%rax
    9245:	48 89 85 90 fc ff ff 	mov    %rax,-0x370(%rbp)
    924c:	48 8d 05 24 ae 00 00 	lea    0xae24(%rip),%rax        # 14077 <g_172+0x3>
    9253:	48 89 85 98 fc ff ff 	mov    %rax,-0x368(%rbp)
    925a:	48 8d 05 9f af 00 00 	lea    0xaf9f(%rip),%rax        # 14200 <g_1016+0x20>
    9261:	48 89 85 48 f0 ff ff 	mov    %rax,-0xfb8(%rbp)
    9268:	48 8d 85 ac ee ff ff 	lea    -0x1154(%rbp),%rax
    926f:	48 89 85 50 f0 ff ff 	mov    %rax,-0xfb0(%rbp)
    9276:	0f be 85 7c ee ff ff 	movsbl -0x1184(%rbp),%eax
    927d:	be c0 d2 ff ff       	mov    $0xffffd2c0,%esi
    9282:	89 c7                	mov    %eax,%edi
    9284:	e8 4a c1 ff ff       	callq  53d3 <safe_sub_func_int16_t_s_s>
    9289:	48 8d 05 80 c8 00 00 	lea    0xc880(%rip),%rax        # 15b10 <g_1147>
    9290:	48 39 85 00 f0 ff ff 	cmp    %rax,-0x1000(%rbp)
    9297:	48 8b 05 3a bf 00 00 	mov    0xbf3a(%rip),%rax        # 151d8 <g_239>
    929e:	83 bd 54 ef ff ff 00 	cmpl   $0x0,-0x10ac(%rbp)
    92a5:	75 0c                	jne    92b3 <func_53+0x1f5c>
    92a7:	48 8b 85 18 f4 ff ff 	mov    -0xbe8(%rbp),%rax
    92ae:	48 85 c0             	test   %rax,%rax
    92b1:	74 07                	je     92ba <func_53+0x1f63>
    92b3:	b8 01 00 00 00       	mov    $0x1,%eax
    92b8:	eb 05                	jmp    92bf <func_53+0x1f68>
    92ba:	b8 00 00 00 00       	mov    $0x0,%eax
    92bf:	0f b6 c0             	movzbl %al,%eax
    92c2:	89 c6                	mov    %eax,%esi
    92c4:	bf 4f 00 00 00       	mov    $0x4f,%edi
    92c9:	e8 c5 c8 ff ff       	callq  5b93 <safe_mul_func_uint8_t_u_u>
    92ce:	48 8d 85 94 ee ff ff 	lea    -0x116c(%rbp),%rax
    92d5:	48 89 85 58 f0 ff ff 	mov    %rax,-0xfa8(%rbp)
    92dc:	48 8d 85 78 ef ff ff 	lea    -0x1088(%rbp),%rax
    92e3:	48 89 85 60 f0 ff ff 	mov    %rax,-0xfa0(%rbp)
    92ea:	48 c7 85 68 f0 ff ff 	movq   $0x0,-0xf98(%rbp)
    92f1:	00 00 00 00 
    92f5:	c7 85 58 ef ff ff f8 	movl   $0xfffffff8,-0x10a8(%rbp)
    92fc:	ff ff ff 
    92ff:	48 8d 05 92 c8 00 00 	lea    0xc892(%rip),%rax        # 15b98 <g_1515>
    9306:	48 39 85 d8 ef ff ff 	cmp    %rax,-0x1028(%rbp)
    930d:	0f 94 c1             	sete   %cl
    9310:	48 8b 95 78 ef ff ff 	mov    -0x1088(%rbp),%rdx
    9317:	48 8b 85 60 f0 ff ff 	mov    -0xfa0(%rbp),%rax
    931e:	48 89 10             	mov    %rdx,(%rax)
    9321:	48 8b 05 c0 c7 00 00 	mov    0xc7c0(%rip),%rax        # 15ae8 <g_1116>
    9328:	48 8b 85 18 f4 ff ff 	mov    -0xbe8(%rbp),%rax
    932f:	89 c2                	mov    %eax,%edx
    9331:	48 8b 85 58 f0 ff ff 	mov    -0xfa8(%rbp),%rax
    9338:	89 10                	mov    %edx,(%rax)
    933a:	48 8b 85 58 f0 ff ff 	mov    -0xfa8(%rbp),%rax
    9341:	8b 10                	mov    (%rax),%edx
    9343:	8b 85 54 ef ff ff    	mov    -0x10ac(%rbp),%eax
    9349:	39 c2                	cmp    %eax,%edx
    934b:	48 8d 05 66 c7 00 00 	lea    0xc766(%rip),%rax        # 15ab8 <g_1040>
    9352:	48 39 85 38 f0 ff ff 	cmp    %rax,-0xfc8(%rbp)
    9359:	48 8b 85 18 f4 ff ff 	mov    -0xbe8(%rbp),%rax
    9360:	48 85 c0             	test   %rax,%rax
    9363:	74 10                	je     9375 <func_53+0x201e>
    9365:	80 bd 7c ee ff ff 00 	cmpb   $0x0,-0x1184(%rbp)
    936c:	74 07                	je     9375 <func_53+0x201e>
    936e:	b8 01 00 00 00       	mov    $0x1,%eax
    9373:	eb 05                	jmp    937a <func_53+0x2023>
    9375:	b8 00 00 00 00       	mov    $0x0,%eax
    937a:	83 e0 01             	and    $0x1,%eax
    937d:	09 c8                	or     %ecx,%eax
    937f:	0f b6 c0             	movzbl %al,%eax
    9382:	31 85 58 ef ff ff    	xor    %eax,-0x10a8(%rbp)
    9388:	48 8b 85 70 ee ff ff 	mov    -0x1190(%rbp),%rax
    938f:	e9 95 18 00 00       	jmpq   ac29 <func_53+0x38d2>
    9394:	c7 05 96 ac 00 00 00 	movl   $0x0,0xac96(%rip)        # 14034 <g_23>
    939b:	00 00 00 
    939e:	e9 a0 04 00 00       	jmpq   9843 <func_53+0x24ec>
    93a3:	c7 85 cc ee ff ff 65 	movl   $0x25774565,-0x1134(%rbp)
    93aa:	45 77 25 
    93ad:	48 8d 05 34 c8 00 00 	lea    0xc834(%rip),%rax        # 15be8 <g_1755>
    93b4:	48 89 85 28 f0 ff ff 	mov    %rax,-0xfd8(%rbp)
    93bb:	48 8d 05 1e ae 00 00 	lea    0xae1e(%rip),%rax        # 141e0 <g_1016>
    93c2:	48 89 85 20 f8 ff ff 	mov    %rax,-0x7e0(%rbp)
    93c9:	48 8d 05 10 ae 00 00 	lea    0xae10(%rip),%rax        # 141e0 <g_1016>
    93d0:	48 89 85 28 f8 ff ff 	mov    %rax,-0x7d8(%rbp)
    93d7:	48 8d 85 94 ee ff ff 	lea    -0x116c(%rbp),%rax
    93de:	48 89 85 30 f8 ff ff 	mov    %rax,-0x7d0(%rbp)
    93e5:	48 8d 05 f4 ad 00 00 	lea    0xadf4(%rip),%rax        # 141e0 <g_1016>
    93ec:	48 89 85 38 f8 ff ff 	mov    %rax,-0x7c8(%rbp)
    93f3:	48 8d 05 e6 ad 00 00 	lea    0xade6(%rip),%rax        # 141e0 <g_1016>
    93fa:	48 89 85 40 f8 ff ff 	mov    %rax,-0x7c0(%rbp)
    9401:	48 8d 05 d8 ad 00 00 	lea    0xadd8(%rip),%rax        # 141e0 <g_1016>
    9408:	48 89 85 48 f8 ff ff 	mov    %rax,-0x7b8(%rbp)
    940f:	48 8d 05 ca ad 00 00 	lea    0xadca(%rip),%rax        # 141e0 <g_1016>
    9416:	48 89 85 50 f8 ff ff 	mov    %rax,-0x7b0(%rbp)
    941d:	48 8d 05 bc ad 00 00 	lea    0xadbc(%rip),%rax        # 141e0 <g_1016>
    9424:	48 89 85 58 f8 ff ff 	mov    %rax,-0x7a8(%rbp)
    942b:	48 8d 85 94 ee ff ff 	lea    -0x116c(%rbp),%rax
    9432:	48 89 85 60 f8 ff ff 	mov    %rax,-0x7a0(%rbp)
    9439:	48 8d 05 a0 ad 00 00 	lea    0xada0(%rip),%rax        # 141e0 <g_1016>
    9440:	48 89 85 68 f8 ff ff 	mov    %rax,-0x798(%rbp)
    9447:	48 8d 85 94 ee ff ff 	lea    -0x116c(%rbp),%rax
    944e:	48 89 85 70 f8 ff ff 	mov    %rax,-0x790(%rbp)
    9455:	48 8d 05 84 ad 00 00 	lea    0xad84(%rip),%rax        # 141e0 <g_1016>
    945c:	48 89 85 78 f8 ff ff 	mov    %rax,-0x788(%rbp)
    9463:	48 8d 05 76 ad 00 00 	lea    0xad76(%rip),%rax        # 141e0 <g_1016>
    946a:	48 89 85 80 f8 ff ff 	mov    %rax,-0x780(%rbp)
    9471:	48 8d 05 68 ad 00 00 	lea    0xad68(%rip),%rax        # 141e0 <g_1016>
    9478:	48 89 85 88 f8 ff ff 	mov    %rax,-0x778(%rbp)
    947f:	48 8d 85 94 ee ff ff 	lea    -0x116c(%rbp),%rax
    9486:	48 89 85 90 f8 ff ff 	mov    %rax,-0x770(%rbp)
    948d:	48 8d 05 4c ad 00 00 	lea    0xad4c(%rip),%rax        # 141e0 <g_1016>
    9494:	48 89 85 98 f8 ff ff 	mov    %rax,-0x768(%rbp)
    949b:	48 8d 05 3e ad 00 00 	lea    0xad3e(%rip),%rax        # 141e0 <g_1016>
    94a2:	48 89 85 a0 f8 ff ff 	mov    %rax,-0x760(%rbp)
    94a9:	48 8d 05 30 ad 00 00 	lea    0xad30(%rip),%rax        # 141e0 <g_1016>
    94b0:	48 89 85 a8 f8 ff ff 	mov    %rax,-0x758(%rbp)
    94b7:	48 8d 85 94 ee ff ff 	lea    -0x116c(%rbp),%rax
    94be:	48 89 85 b0 f8 ff ff 	mov    %rax,-0x750(%rbp)
    94c5:	48 8d 05 14 ad 00 00 	lea    0xad14(%rip),%rax        # 141e0 <g_1016>
    94cc:	48 89 85 b8 f8 ff ff 	mov    %rax,-0x748(%rbp)
    94d3:	48 8d 05 06 ad 00 00 	lea    0xad06(%rip),%rax        # 141e0 <g_1016>
    94da:	48 89 85 c0 f8 ff ff 	mov    %rax,-0x740(%rbp)
    94e1:	48 8d 05 f8 ac 00 00 	lea    0xacf8(%rip),%rax        # 141e0 <g_1016>
    94e8:	48 89 85 c8 f8 ff ff 	mov    %rax,-0x738(%rbp)
    94ef:	48 8d 05 ea ac 00 00 	lea    0xacea(%rip),%rax        # 141e0 <g_1016>
    94f6:	48 89 85 d0 f8 ff ff 	mov    %rax,-0x730(%rbp)
    94fd:	48 8d 85 94 ee ff ff 	lea    -0x116c(%rbp),%rax
    9504:	48 89 85 d8 f8 ff ff 	mov    %rax,-0x728(%rbp)
    950b:	48 c7 85 e0 f8 ff ff 	movq   $0x0,-0x720(%rbp)
    9512:	00 00 00 00 
    9516:	48 8d 05 c3 ac 00 00 	lea    0xacc3(%rip),%rax        # 141e0 <g_1016>
    951d:	48 89 85 e8 f8 ff ff 	mov    %rax,-0x718(%rbp)
    9524:	48 8d 05 b5 ac 00 00 	lea    0xacb5(%rip),%rax        # 141e0 <g_1016>
    952b:	48 89 85 f0 f8 ff ff 	mov    %rax,-0x710(%rbp)
    9532:	48 8d 05 a7 ac 00 00 	lea    0xaca7(%rip),%rax        # 141e0 <g_1016>
    9539:	48 89 85 f8 f8 ff ff 	mov    %rax,-0x708(%rbp)
    9540:	48 8d 05 99 ac 00 00 	lea    0xac99(%rip),%rax        # 141e0 <g_1016>
    9547:	48 89 85 00 f9 ff ff 	mov    %rax,-0x700(%rbp)
    954e:	48 8d 05 8b ac 00 00 	lea    0xac8b(%rip),%rax        # 141e0 <g_1016>
    9555:	48 89 85 08 f9 ff ff 	mov    %rax,-0x6f8(%rbp)
    955c:	48 8d 85 20 f8 ff ff 	lea    -0x7e0(%rbp),%rax
    9563:	48 83 c0 08          	add    $0x8,%rax
    9567:	48 89 85 30 f0 ff ff 	mov    %rax,-0xfd0(%rbp)
    956e:	48 c7 85 88 ef ff ff 	movq   $0x0,-0x1078(%rbp)
    9575:	00 00 00 00 
    9579:	e9 88 01 00 00       	jmpq   9706 <func_53+0x23af>
    957e:	c7 85 c4 ee ff ff 02 	movl   $0x2,-0x113c(%rbp)
    9585:	00 00 00 
    9588:	e9 5a 01 00 00       	jmpq   96e7 <func_53+0x2390>
    958d:	48 8d 85 04 f1 ff ff 	lea    -0xefc(%rbp),%rax
    9594:	8b 95 c4 ee ff ff    	mov    -0x113c(%rbp),%edx
    959a:	48 63 d2             	movslq %edx,%rdx
    959d:	48 c1 e2 02          	shl    $0x2,%rdx
    95a1:	48 01 d0             	add    %rdx,%rax
    95a4:	48 89 85 20 f2 ff ff 	mov    %rax,-0xde0(%rbp)
    95ab:	48 8d 85 04 f1 ff ff 	lea    -0xefc(%rbp),%rax
    95b2:	8b 95 c4 ee ff ff    	mov    -0x113c(%rbp),%edx
    95b8:	48 63 d2             	movslq %edx,%rdx
    95bb:	48 c1 e2 02          	shl    $0x2,%rdx
    95bf:	48 01 d0             	add    %rdx,%rax
    95c2:	48 89 85 28 f2 ff ff 	mov    %rax,-0xdd8(%rbp)
    95c9:	48 8d 85 04 f1 ff ff 	lea    -0xefc(%rbp),%rax
    95d0:	8b 95 c4 ee ff ff    	mov    -0x113c(%rbp),%edx
    95d6:	48 63 d2             	movslq %edx,%rdx
    95d9:	48 c1 e2 02          	shl    $0x2,%rdx
    95dd:	48 01 d0             	add    %rdx,%rax
    95e0:	48 89 85 30 f2 ff ff 	mov    %rax,-0xdd0(%rbp)
    95e7:	48 8d 85 04 f1 ff ff 	lea    -0xefc(%rbp),%rax
    95ee:	8b 95 c4 ee ff ff    	mov    -0x113c(%rbp),%edx
    95f4:	48 63 d2             	movslq %edx,%rdx
    95f7:	48 c1 e2 02          	shl    $0x2,%rdx
    95fb:	48 01 d0             	add    %rdx,%rax
    95fe:	48 89 85 38 f2 ff ff 	mov    %rax,-0xdc8(%rbp)
    9605:	48 8d 85 04 f1 ff ff 	lea    -0xefc(%rbp),%rax
    960c:	8b 95 c4 ee ff ff    	mov    -0x113c(%rbp),%edx
    9612:	48 63 d2             	movslq %edx,%rdx
    9615:	48 c1 e2 02          	shl    $0x2,%rdx
    9619:	48 01 d0             	add    %rdx,%rax
    961c:	48 89 85 40 f2 ff ff 	mov    %rax,-0xdc0(%rbp)
    9623:	48 8d 85 04 f1 ff ff 	lea    -0xefc(%rbp),%rax
    962a:	8b 95 c4 ee ff ff    	mov    -0x113c(%rbp),%edx
    9630:	48 63 d2             	movslq %edx,%rdx
    9633:	48 c1 e2 02          	shl    $0x2,%rdx
    9637:	48 01 d0             	add    %rdx,%rax
    963a:	48 89 85 48 f2 ff ff 	mov    %rax,-0xdb8(%rbp)
    9641:	48 8d 85 04 f1 ff ff 	lea    -0xefc(%rbp),%rax
    9648:	8b 95 c4 ee ff ff    	mov    -0x113c(%rbp),%edx
    964e:	48 63 d2             	movslq %edx,%rdx
    9651:	48 c1 e2 02          	shl    $0x2,%rdx
    9655:	48 01 d0             	add    %rdx,%rax
    9658:	48 89 85 50 f2 ff ff 	mov    %rax,-0xdb0(%rbp)
    965f:	be f7 ff ff ff       	mov    $0xfffffff7,%esi
    9664:	bf 3a 00 00 00       	mov    $0x3a,%edi
    9669:	e8 fc bb ff ff       	callq  526a <safe_div_func_int8_t_s_s>
    966e:	0f be d0             	movsbl %al,%edx
    9671:	8b 85 c4 ee ff ff    	mov    -0x113c(%rbp),%eax
    9677:	48 98                	cltq   
    9679:	8b 84 85 04 f1 ff ff 	mov    -0xefc(%rbp,%rax,4),%eax
    9680:	c1 e8 1f             	shr    $0x1f,%eax
    9683:	0f b6 c0             	movzbl %al,%eax
    9686:	39 c2                	cmp    %eax,%edx
    9688:	0f 9f c0             	setg   %al
    968b:	0f b6 d0             	movzbl %al,%edx
    968e:	8b 85 c4 ee ff ff    	mov    -0x113c(%rbp),%eax
    9694:	48 98                	cltq   
    9696:	89 94 85 04 f1 ff ff 	mov    %edx,-0xefc(%rbp,%rax,4)
    969d:	48 8b 8d 88 ef ff ff 	mov    -0x1078(%rbp),%rcx
    96a4:	48 8b 05 35 c4 00 00 	mov    0xc435(%rip),%rax        # 15ae0 <g_1101>
    96ab:	48 8d 95 04 f1 ff ff 	lea    -0xefc(%rbp),%rdx
    96b2:	48 c1 e1 02          	shl    $0x2,%rcx
    96b6:	48 01 ca             	add    %rcx,%rdx
    96b9:	48 89 10             	mov    %rdx,(%rax)
    96bc:	48 8b 05 d5 c3 00 00 	mov    0xc3d5(%rip),%rax        # 15a98 <g_1003>
    96c3:	66 c7 00 69 14       	movw   $0x1469,(%rax)
    96c8:	be 00 00 00 00       	mov    $0x0,%esi
    96cd:	bf 96 ff ff ff       	mov    $0xffffff96,%edi
    96d2:	e8 1b bb ff ff       	callq  51f2 <safe_sub_func_int8_t_s_s>
    96d7:	0f be c0             	movsbl %al,%eax
    96da:	89 85 cc ee ff ff    	mov    %eax,-0x1134(%rbp)
    96e0:	83 ad c4 ee ff ff 01 	subl   $0x1,-0x113c(%rbp)
    96e7:	83 bd c4 ee ff ff 00 	cmpl   $0x0,-0x113c(%rbp)
    96ee:	0f 89 99 fe ff ff    	jns    958d <func_53+0x2236>
    96f4:	48 8b 85 88 ef ff ff 	mov    -0x1078(%rbp),%rax
    96fb:	48 83 c0 01          	add    $0x1,%rax
    96ff:	48 89 85 88 ef ff ff 	mov    %rax,-0x1078(%rbp)
    9706:	48 8b 85 88 ef ff ff 	mov    -0x1078(%rbp),%rax
    970d:	48 83 f8 02          	cmp    $0x2,%rax
    9711:	0f 86 67 fe ff ff    	jbe    957e <func_53+0x2227>
    9717:	8b 85 b8 ee ff ff    	mov    -0x1148(%rbp),%eax
    971d:	0f be d8             	movsbl %al,%ebx
    9720:	48 8b 15 c1 c4 00 00 	mov    0xc4c1(%rip),%rdx        # 15be8 <g_1755>
    9727:	48 8b 85 28 f0 ff ff 	mov    -0xfd8(%rbp),%rax
    972e:	48 89 10             	mov    %rdx,(%rax)
    9731:	8b 05 fd a8 00 00    	mov    0xa8fd(%rip),%eax        # 14034 <g_23>
    9737:	48 98                	cltq   
    9739:	8b 84 85 04 f1 ff ff 	mov    -0xefc(%rbp,%rax,4),%eax
    9740:	85 c0                	test   %eax,%eax
    9742:	0f 85 af 00 00 00    	jne    97f7 <func_53+0x24a0>
    9748:	48 8b 05 41 bd 00 00 	mov    0xbd41(%rip),%rax        # 15490 <g_305>
    974f:	48 8b 00             	mov    (%rax),%rax
    9752:	49 89 c4             	mov    %rax,%r12
    9755:	48 8b 05 34 bd 00 00 	mov    0xbd34(%rip),%rax        # 15490 <g_305>
    975c:	48 8b 00             	mov    (%rax),%rax
    975f:	48 89 c1             	mov    %rax,%rcx
    9762:	48 8b 85 30 f0 ff ff 	mov    -0xfd0(%rbp),%rax
    9769:	48 8b 95 68 ee ff ff 	mov    -0x1198(%rbp),%rdx
    9770:	48 89 10             	mov    %rdx,(%rax)
    9773:	48 8b 85 30 f0 ff ff 	mov    -0xfd0(%rbp),%rax
    977a:	48 8b 00             	mov    (%rax),%rax
    977d:	48 39 85 68 ee ff ff 	cmp    %rax,-0x1198(%rbp)
    9784:	0f 95 c0             	setne  %al
    9787:	0f b6 c0             	movzbl %al,%eax
    978a:	48 39 c1             	cmp    %rax,%rcx
    978d:	0f 96 c0             	setbe  %al
    9790:	0f b6 c0             	movzbl %al,%eax
    9793:	be 03 00 00 00       	mov    $0x3,%esi
    9798:	89 c7                	mov    %eax,%edi
    979a:	e8 60 c5 ff ff       	callq  5cff <safe_add_func_uint16_t_u_u>
    979f:	0f b6 85 7c ee ff ff 	movzbl -0x1184(%rbp),%eax
    97a6:	f7 d0                	not    %eax
    97a8:	c0 e8 07             	shr    $0x7,%al
    97ab:	0f b6 c0             	movzbl %al,%eax
    97ae:	8b 95 cc ee ff ff    	mov    -0x1134(%rbp),%edx
    97b4:	89 d6                	mov    %edx,%esi
    97b6:	89 c7                	mov    %eax,%edi
    97b8:	e8 d5 bc ff ff       	callq  5492 <safe_lshift_func_int16_t_s_s>
    97bd:	48 0f bf c0          	movswq %ax,%rax
    97c1:	4c 89 e6             	mov    %r12,%rsi
    97c4:	48 89 c7             	mov    %rax,%rdi
    97c7:	e8 e3 c8 ff ff       	callq  60af <safe_div_func_uint64_t_u_u>
    97cc:	44 0f bf e0          	movswl %ax,%r12d
    97d0:	48 8b 05 01 ba 00 00 	mov    0xba01(%rip),%rax        # 151d8 <g_239>
    97d7:	0f b7 00             	movzwl (%rax),%eax
    97da:	98                   	cwtl   
    97db:	be 03 00 00 00       	mov    $0x3,%esi
    97e0:	89 c7                	mov    %eax,%edi
    97e2:	e8 ab bc ff ff       	callq  5492 <safe_lshift_func_int16_t_s_s>
    97e7:	98                   	cwtl   
    97e8:	44 89 e6             	mov    %r12d,%esi
    97eb:	89 c7                	mov    %eax,%edi
    97ed:	e8 c1 bb ff ff       	callq  53b3 <safe_add_func_int16_t_s_s>
    97f2:	66 85 c0             	test   %ax,%ax
    97f5:	74 07                	je     97fe <func_53+0x24a7>
    97f7:	b8 01 00 00 00       	mov    $0x1,%eax
    97fc:	eb 05                	jmp    9803 <func_53+0x24ac>
    97fe:	b8 00 00 00 00       	mov    $0x0,%eax
    9803:	0f b6 c0             	movzbl %al,%eax
    9806:	8b 95 cc ee ff ff    	mov    -0x1134(%rbp),%edx
    980c:	89 d6                	mov    %edx,%esi
    980e:	89 c7                	mov    %eax,%edi
    9810:	e8 78 c4 ff ff       	callq  5c8d <safe_rshift_func_uint8_t_u_s>
    9815:	0f be c0             	movsbl %al,%eax
    9818:	89 de                	mov    %ebx,%esi
    981a:	89 c7                	mov    %eax,%edi
    981c:	e8 f1 b9 ff ff       	callq  5212 <safe_mul_func_int8_t_s_s>
    9821:	8b 0d 0d a8 00 00    	mov    0xa80d(%rip),%ecx        # 14034 <g_23>
    9827:	0f be d0             	movsbl %al,%edx
    982a:	48 63 c1             	movslq %ecx,%rax
    982d:	89 94 85 04 f1 ff ff 	mov    %edx,-0xefc(%rbp,%rax,4)
    9834:	8b 05 fa a7 00 00    	mov    0xa7fa(%rip),%eax        # 14034 <g_23>
    983a:	83 c0 01             	add    $0x1,%eax
    983d:	89 05 f1 a7 00 00    	mov    %eax,0xa7f1(%rip)        # 14034 <g_23>
    9843:	8b 05 eb a7 00 00    	mov    0xa7eb(%rip),%eax        # 14034 <g_23>
    9849:	83 f8 02             	cmp    $0x2,%eax
    984c:	0f 8e 51 fb ff ff    	jle    93a3 <func_53+0x204c>
    9852:	48 83 bd f0 ef ff ff 	cmpq   $0x0,-0x1010(%rbp)
    9859:	00 
    985a:	0f 95 c2             	setne  %dl
    985d:	48 8b 05 8c c3 00 00 	mov    0xc38c(%rip),%rax        # 15bf0 <g_1775>
    9864:	0f b6 d2             	movzbl %dl,%edx
    9867:	89 10                	mov    %edx,(%rax)
    9869:	c7 05 cd cc 00 00 00 	movl   $0x0,0xcccd(%rip)        # 16540 <g_1479>
    9870:	00 00 00 
    9873:	e9 6e 13 00 00       	jmpq   abe6 <func_53+0x388f>
    9878:	48 c7 85 08 f0 ff ff 	movq   $0xfffffffffffffff7,-0xff8(%rbp)
    987f:	f7 ff ff ff 
    9883:	c7 85 10 ef ff ff 86 	movl   $0x86db3986,-0x10f0(%rbp)
    988a:	39 db 86 
    988d:	c7 85 14 ef ff ff c6 	movl   $0x1af222c6,-0x10ec(%rbp)
    9894:	22 f2 1a 
    9897:	c7 85 18 ef ff ff aa 	movl   $0xc5d5ebaa,-0x10e8(%rbp)
    989e:	eb d5 c5 
    98a1:	c7 85 1c ef ff ff 33 	movl   $0xa9281c33,-0x10e4(%rbp)
    98a8:	1c 28 a9 
    98ab:	c7 85 20 ef ff ff ef 	movl   $0x872976ef,-0x10e0(%rbp)
    98b2:	76 29 87 
    98b5:	c7 85 24 ef ff ff 7f 	movl   $0x500e8c7f,-0x10dc(%rbp)
    98bc:	8c 0e 50 
    98bf:	c7 85 28 ef ff ff ff 	movl   $0xffffffff,-0x10d8(%rbp)
    98c6:	ff ff ff 
    98c9:	c7 85 2c ef ff ff fb 	movl   $0xfffffffb,-0x10d4(%rbp)
    98d0:	ff ff ff 
    98d3:	c7 85 30 ef ff ff 36 	movl   $0x7f127836,-0x10d0(%rbp)
    98da:	78 12 7f 
    98dd:	c7 85 34 ef ff ff 3c 	movl   $0x8313ee3c,-0x10cc(%rbp)
    98e4:	ee 13 83 
    98e7:	c7 85 20 f2 ff ff 01 	movl   $0x1,-0xde0(%rbp)
    98ee:	00 00 00 
    98f1:	c7 85 24 f2 ff ff 91 	movl   $0x9a256f91,-0xddc(%rbp)
    98f8:	6f 25 9a 
    98fb:	c7 85 28 f2 ff ff 91 	movl   $0x9a256f91,-0xdd8(%rbp)
    9902:	6f 25 9a 
    9905:	c7 85 2c f2 ff ff ff 	movl   $0xffffffff,-0xdd4(%rbp)
    990c:	ff ff ff 
    990f:	c7 85 30 f2 ff ff 03 	movl   $0x3,-0xdd0(%rbp)
    9916:	00 00 00 
    9919:	c7 85 34 f2 ff ff 03 	movl   $0x3,-0xdcc(%rbp)
    9920:	00 00 00 
    9923:	c7 85 38 f2 ff ff 01 	movl   $0x1,-0xdc8(%rbp)
    992a:	00 00 00 
    992d:	c7 85 3c f2 ff ff 91 	movl   $0x9a256f91,-0xdc4(%rbp)
    9934:	6f 25 9a 
    9937:	c7 85 40 f2 ff ff 91 	movl   $0x9a256f91,-0xdc0(%rbp)
    993e:	6f 25 9a 
    9941:	c7 85 44 f2 ff ff ff 	movl   $0xffffffff,-0xdbc(%rbp)
    9948:	ff ff ff 
    994b:	c7 85 48 f2 ff ff 03 	movl   $0x3,-0xdb8(%rbp)
    9952:	00 00 00 
    9955:	c7 85 4c f2 ff ff 03 	movl   $0x3,-0xdb4(%rbp)
    995c:	00 00 00 
    995f:	c7 85 50 f2 ff ff 01 	movl   $0x1,-0xdb0(%rbp)
    9966:	00 00 00 
    9969:	c7 85 54 f2 ff ff 91 	movl   $0x9a256f91,-0xdac(%rbp)
    9970:	6f 25 9a 
    9973:	c7 85 58 f2 ff ff 91 	movl   $0x9a256f91,-0xda8(%rbp)
    997a:	6f 25 9a 
    997d:	c7 85 5c f2 ff ff ff 	movl   $0xffffffff,-0xda4(%rbp)
    9984:	ff ff ff 
    9987:	c7 85 60 f2 ff ff 03 	movl   $0x3,-0xda0(%rbp)
    998e:	00 00 00 
    9991:	c7 85 64 f2 ff ff 03 	movl   $0x3,-0xd9c(%rbp)
    9998:	00 00 00 
    999b:	48 b8 6b da 82 89 d2 	movabs $0xc6f6cfd28982da6b,%rax
    99a2:	cf f6 c6 
    99a5:	48 89 85 a8 ef ff ff 	mov    %rax,-0x1058(%rbp)
    99ac:	48 8d 85 68 ef ff ff 	lea    -0x1098(%rbp),%rax
    99b3:	48 89 85 e0 ef ff ff 	mov    %rax,-0x1020(%rbp)
    99ba:	66 c7 85 84 ee ff ff 	movw   $0x0,-0x117c(%rbp)
    99c1:	00 00 
    99c3:	c7 85 d0 ee ff ff 37 	movl   $0x2c2e4537,-0x1130(%rbp)
    99ca:	45 2e 2c 
    99cd:	c6 85 7c ee ff ff 00 	movb   $0x0,-0x1184(%rbp)
    99d4:	e9 f1 11 00 00       	jmpq   abca <func_53+0x3873>
    99d9:	48 8d 05 7c a6 00 00 	lea    0xa67c(%rip),%rax        # 1405c <g_129>
    99e0:	48 89 85 20 f8 ff ff 	mov    %rax,-0x7e0(%rbp)
    99e7:	48 8d 05 6e a6 00 00 	lea    0xa66e(%rip),%rax        # 1405c <g_129>
    99ee:	48 89 85 28 f8 ff ff 	mov    %rax,-0x7d8(%rbp)
    99f5:	48 8d 05 60 a6 00 00 	lea    0xa660(%rip),%rax        # 1405c <g_129>
    99fc:	48 89 85 30 f8 ff ff 	mov    %rax,-0x7d0(%rbp)
    9a03:	48 8d 05 52 a6 00 00 	lea    0xa652(%rip),%rax        # 1405c <g_129>
    9a0a:	48 89 85 38 f8 ff ff 	mov    %rax,-0x7c8(%rbp)
    9a11:	48 8d 05 44 a6 00 00 	lea    0xa644(%rip),%rax        # 1405c <g_129>
    9a18:	48 89 85 40 f8 ff ff 	mov    %rax,-0x7c0(%rbp)
    9a1f:	48 8d 05 36 a6 00 00 	lea    0xa636(%rip),%rax        # 1405c <g_129>
    9a26:	48 89 85 48 f8 ff ff 	mov    %rax,-0x7b8(%rbp)
    9a2d:	48 8d 05 28 a6 00 00 	lea    0xa628(%rip),%rax        # 1405c <g_129>
    9a34:	48 89 85 50 f8 ff ff 	mov    %rax,-0x7b0(%rbp)
    9a3b:	48 8d 05 1a a6 00 00 	lea    0xa61a(%rip),%rax        # 1405c <g_129>
    9a42:	48 89 85 58 f8 ff ff 	mov    %rax,-0x7a8(%rbp)
    9a49:	48 8d 05 0c a6 00 00 	lea    0xa60c(%rip),%rax        # 1405c <g_129>
    9a50:	48 89 85 60 f8 ff ff 	mov    %rax,-0x7a0(%rbp)
    9a57:	48 8d 85 98 ee ff ff 	lea    -0x1168(%rbp),%rax
    9a5e:	48 89 85 68 f8 ff ff 	mov    %rax,-0x798(%rbp)
    9a65:	48 8d 85 98 ee ff ff 	lea    -0x1168(%rbp),%rax
    9a6c:	48 89 85 70 f8 ff ff 	mov    %rax,-0x790(%rbp)
    9a73:	48 8d 85 98 ee ff ff 	lea    -0x1168(%rbp),%rax
    9a7a:	48 89 85 78 f8 ff ff 	mov    %rax,-0x788(%rbp)
    9a81:	48 8d 85 98 ee ff ff 	lea    -0x1168(%rbp),%rax
    9a88:	48 89 85 80 f8 ff ff 	mov    %rax,-0x780(%rbp)
    9a8f:	48 8d 85 98 ee ff ff 	lea    -0x1168(%rbp),%rax
    9a96:	48 89 85 88 f8 ff ff 	mov    %rax,-0x778(%rbp)
    9a9d:	48 8d 85 98 ee ff ff 	lea    -0x1168(%rbp),%rax
    9aa4:	48 89 85 90 f8 ff ff 	mov    %rax,-0x770(%rbp)
    9aab:	48 8d 85 98 ee ff ff 	lea    -0x1168(%rbp),%rax
    9ab2:	48 89 85 98 f8 ff ff 	mov    %rax,-0x768(%rbp)
    9ab9:	48 8d 85 98 ee ff ff 	lea    -0x1168(%rbp),%rax
    9ac0:	48 89 85 a0 f8 ff ff 	mov    %rax,-0x760(%rbp)
    9ac7:	48 8d 85 98 ee ff ff 	lea    -0x1168(%rbp),%rax
    9ace:	48 89 85 a8 f8 ff ff 	mov    %rax,-0x758(%rbp)
    9ad5:	48 8d 05 80 a5 00 00 	lea    0xa580(%rip),%rax        # 1405c <g_129>
    9adc:	48 89 85 b0 f8 ff ff 	mov    %rax,-0x750(%rbp)
    9ae3:	48 8d 05 72 a5 00 00 	lea    0xa572(%rip),%rax        # 1405c <g_129>
    9aea:	48 89 85 b8 f8 ff ff 	mov    %rax,-0x748(%rbp)
    9af1:	48 8d 05 64 a5 00 00 	lea    0xa564(%rip),%rax        # 1405c <g_129>
    9af8:	48 89 85 c0 f8 ff ff 	mov    %rax,-0x740(%rbp)
    9aff:	48 8d 05 56 a5 00 00 	lea    0xa556(%rip),%rax        # 1405c <g_129>
    9b06:	48 89 85 c8 f8 ff ff 	mov    %rax,-0x738(%rbp)
    9b0d:	48 8d 05 48 a5 00 00 	lea    0xa548(%rip),%rax        # 1405c <g_129>
    9b14:	48 89 85 d0 f8 ff ff 	mov    %rax,-0x730(%rbp)
    9b1b:	48 8d 05 3a a5 00 00 	lea    0xa53a(%rip),%rax        # 1405c <g_129>
    9b22:	48 89 85 d8 f8 ff ff 	mov    %rax,-0x728(%rbp)
    9b29:	48 8d 05 2c a5 00 00 	lea    0xa52c(%rip),%rax        # 1405c <g_129>
    9b30:	48 89 85 e0 f8 ff ff 	mov    %rax,-0x720(%rbp)
    9b37:	48 8d 05 1e a5 00 00 	lea    0xa51e(%rip),%rax        # 1405c <g_129>
    9b3e:	48 89 85 e8 f8 ff ff 	mov    %rax,-0x718(%rbp)
    9b45:	48 8d 05 10 a5 00 00 	lea    0xa510(%rip),%rax        # 1405c <g_129>
    9b4c:	48 89 85 f0 f8 ff ff 	mov    %rax,-0x710(%rbp)
    9b53:	48 8d 85 98 ee ff ff 	lea    -0x1168(%rbp),%rax
    9b5a:	48 89 85 f8 f8 ff ff 	mov    %rax,-0x708(%rbp)
    9b61:	48 8d 85 98 ee ff ff 	lea    -0x1168(%rbp),%rax
    9b68:	48 89 85 00 f9 ff ff 	mov    %rax,-0x700(%rbp)
    9b6f:	48 8d 85 98 ee ff ff 	lea    -0x1168(%rbp),%rax
    9b76:	48 89 85 08 f9 ff ff 	mov    %rax,-0x6f8(%rbp)
    9b7d:	48 8d 85 98 ee ff ff 	lea    -0x1168(%rbp),%rax
    9b84:	48 89 85 10 f9 ff ff 	mov    %rax,-0x6f0(%rbp)
    9b8b:	48 8d 85 98 ee ff ff 	lea    -0x1168(%rbp),%rax
    9b92:	48 89 85 18 f9 ff ff 	mov    %rax,-0x6e8(%rbp)
    9b99:	48 8d 85 98 ee ff ff 	lea    -0x1168(%rbp),%rax
    9ba0:	48 89 85 20 f9 ff ff 	mov    %rax,-0x6e0(%rbp)
    9ba7:	48 8d 85 98 ee ff ff 	lea    -0x1168(%rbp),%rax
    9bae:	48 89 85 28 f9 ff ff 	mov    %rax,-0x6d8(%rbp)
    9bb5:	48 8d 85 98 ee ff ff 	lea    -0x1168(%rbp),%rax
    9bbc:	48 89 85 30 f9 ff ff 	mov    %rax,-0x6d0(%rbp)
    9bc3:	48 8d 85 98 ee ff ff 	lea    -0x1168(%rbp),%rax
    9bca:	48 89 85 38 f9 ff ff 	mov    %rax,-0x6c8(%rbp)
    9bd1:	48 8d 05 84 a4 00 00 	lea    0xa484(%rip),%rax        # 1405c <g_129>
    9bd8:	48 89 85 40 f9 ff ff 	mov    %rax,-0x6c0(%rbp)
    9bdf:	48 8d 05 76 a4 00 00 	lea    0xa476(%rip),%rax        # 1405c <g_129>
    9be6:	48 89 85 48 f9 ff ff 	mov    %rax,-0x6b8(%rbp)
    9bed:	48 8d 05 68 a4 00 00 	lea    0xa468(%rip),%rax        # 1405c <g_129>
    9bf4:	48 89 85 50 f9 ff ff 	mov    %rax,-0x6b0(%rbp)
    9bfb:	48 8d 05 5a a4 00 00 	lea    0xa45a(%rip),%rax        # 1405c <g_129>
    9c02:	48 89 85 58 f9 ff ff 	mov    %rax,-0x6a8(%rbp)
    9c09:	48 8d 05 4c a4 00 00 	lea    0xa44c(%rip),%rax        # 1405c <g_129>
    9c10:	48 89 85 60 f9 ff ff 	mov    %rax,-0x6a0(%rbp)
    9c17:	48 8d 05 3e a4 00 00 	lea    0xa43e(%rip),%rax        # 1405c <g_129>
    9c1e:	48 89 85 68 f9 ff ff 	mov    %rax,-0x698(%rbp)
    9c25:	48 8d 05 30 a4 00 00 	lea    0xa430(%rip),%rax        # 1405c <g_129>
    9c2c:	48 89 85 70 f9 ff ff 	mov    %rax,-0x690(%rbp)
    9c33:	48 8d 05 22 a4 00 00 	lea    0xa422(%rip),%rax        # 1405c <g_129>
    9c3a:	48 89 85 78 f9 ff ff 	mov    %rax,-0x688(%rbp)
    9c41:	48 8d 05 14 a4 00 00 	lea    0xa414(%rip),%rax        # 1405c <g_129>
    9c48:	48 89 85 80 f9 ff ff 	mov    %rax,-0x680(%rbp)
    9c4f:	48 8d 85 98 ee ff ff 	lea    -0x1168(%rbp),%rax
    9c56:	48 89 85 88 f9 ff ff 	mov    %rax,-0x678(%rbp)
    9c5d:	48 8d 85 98 ee ff ff 	lea    -0x1168(%rbp),%rax
    9c64:	48 89 85 90 f9 ff ff 	mov    %rax,-0x670(%rbp)
    9c6b:	48 8d 85 98 ee ff ff 	lea    -0x1168(%rbp),%rax
    9c72:	48 89 85 98 f9 ff ff 	mov    %rax,-0x668(%rbp)
    9c79:	48 8d 85 98 ee ff ff 	lea    -0x1168(%rbp),%rax
    9c80:	48 89 85 a0 f9 ff ff 	mov    %rax,-0x660(%rbp)
    9c87:	48 8d 85 98 ee ff ff 	lea    -0x1168(%rbp),%rax
    9c8e:	48 89 85 a8 f9 ff ff 	mov    %rax,-0x658(%rbp)
    9c95:	48 8d 85 98 ee ff ff 	lea    -0x1168(%rbp),%rax
    9c9c:	48 89 85 b0 f9 ff ff 	mov    %rax,-0x650(%rbp)
    9ca3:	48 8d 85 98 ee ff ff 	lea    -0x1168(%rbp),%rax
    9caa:	48 89 85 b8 f9 ff ff 	mov    %rax,-0x648(%rbp)
    9cb1:	48 8d 85 98 ee ff ff 	lea    -0x1168(%rbp),%rax
    9cb8:	48 89 85 c0 f9 ff ff 	mov    %rax,-0x640(%rbp)
    9cbf:	48 8d 85 98 ee ff ff 	lea    -0x1168(%rbp),%rax
    9cc6:	48 89 85 c8 f9 ff ff 	mov    %rax,-0x638(%rbp)
    9ccd:	48 8d 05 88 a3 00 00 	lea    0xa388(%rip),%rax        # 1405c <g_129>
    9cd4:	48 89 85 d0 f9 ff ff 	mov    %rax,-0x630(%rbp)
    9cdb:	48 8d 05 7a a3 00 00 	lea    0xa37a(%rip),%rax        # 1405c <g_129>
    9ce2:	48 89 85 d8 f9 ff ff 	mov    %rax,-0x628(%rbp)
    9ce9:	48 8d 05 6c a3 00 00 	lea    0xa36c(%rip),%rax        # 1405c <g_129>
    9cf0:	48 89 85 e0 f9 ff ff 	mov    %rax,-0x620(%rbp)
    9cf7:	48 8d 05 5e a3 00 00 	lea    0xa35e(%rip),%rax        # 1405c <g_129>
    9cfe:	48 89 85 e8 f9 ff ff 	mov    %rax,-0x618(%rbp)
    9d05:	48 8d 05 50 a3 00 00 	lea    0xa350(%rip),%rax        # 1405c <g_129>
    9d0c:	48 89 85 f0 f9 ff ff 	mov    %rax,-0x610(%rbp)
    9d13:	48 8d 05 42 a3 00 00 	lea    0xa342(%rip),%rax        # 1405c <g_129>
    9d1a:	48 89 85 f8 f9 ff ff 	mov    %rax,-0x608(%rbp)
    9d21:	48 8d 05 34 a3 00 00 	lea    0xa334(%rip),%rax        # 1405c <g_129>
    9d28:	48 89 85 00 fa ff ff 	mov    %rax,-0x600(%rbp)
    9d2f:	48 8d 05 26 a3 00 00 	lea    0xa326(%rip),%rax        # 1405c <g_129>
    9d36:	48 89 85 08 fa ff ff 	mov    %rax,-0x5f8(%rbp)
    9d3d:	48 8d 05 18 a3 00 00 	lea    0xa318(%rip),%rax        # 1405c <g_129>
    9d44:	48 89 85 10 fa ff ff 	mov    %rax,-0x5f0(%rbp)
    9d4b:	48 8d 85 98 ee ff ff 	lea    -0x1168(%rbp),%rax
    9d52:	48 89 85 18 fa ff ff 	mov    %rax,-0x5e8(%rbp)
    9d59:	48 8d 85 98 ee ff ff 	lea    -0x1168(%rbp),%rax
    9d60:	48 89 85 20 fa ff ff 	mov    %rax,-0x5e0(%rbp)
    9d67:	48 8d 85 98 ee ff ff 	lea    -0x1168(%rbp),%rax
    9d6e:	48 89 85 28 fa ff ff 	mov    %rax,-0x5d8(%rbp)
    9d75:	48 8d 85 98 ee ff ff 	lea    -0x1168(%rbp),%rax
    9d7c:	48 89 85 30 fa ff ff 	mov    %rax,-0x5d0(%rbp)
    9d83:	48 8d 85 98 ee ff ff 	lea    -0x1168(%rbp),%rax
    9d8a:	48 89 85 38 fa ff ff 	mov    %rax,-0x5c8(%rbp)
    9d91:	48 8d 85 98 ee ff ff 	lea    -0x1168(%rbp),%rax
    9d98:	48 89 85 40 fa ff ff 	mov    %rax,-0x5c0(%rbp)
    9d9f:	48 8d 85 98 ee ff ff 	lea    -0x1168(%rbp),%rax
    9da6:	48 89 85 48 fa ff ff 	mov    %rax,-0x5b8(%rbp)
    9dad:	48 8d 85 98 ee ff ff 	lea    -0x1168(%rbp),%rax
    9db4:	48 89 85 50 fa ff ff 	mov    %rax,-0x5b0(%rbp)
    9dbb:	48 8d 85 98 ee ff ff 	lea    -0x1168(%rbp),%rax
    9dc2:	48 89 85 58 fa ff ff 	mov    %rax,-0x5a8(%rbp)
    9dc9:	48 8d 05 8c a2 00 00 	lea    0xa28c(%rip),%rax        # 1405c <g_129>
    9dd0:	48 89 85 60 fa ff ff 	mov    %rax,-0x5a0(%rbp)
    9dd7:	48 8d 05 7e a2 00 00 	lea    0xa27e(%rip),%rax        # 1405c <g_129>
    9dde:	48 89 85 68 fa ff ff 	mov    %rax,-0x598(%rbp)
    9de5:	48 8d 05 70 a2 00 00 	lea    0xa270(%rip),%rax        # 1405c <g_129>
    9dec:	48 89 85 70 fa ff ff 	mov    %rax,-0x590(%rbp)
    9df3:	48 8d 05 62 a2 00 00 	lea    0xa262(%rip),%rax        # 1405c <g_129>
    9dfa:	48 89 85 78 fa ff ff 	mov    %rax,-0x588(%rbp)
    9e01:	48 8d 05 54 a2 00 00 	lea    0xa254(%rip),%rax        # 1405c <g_129>
    9e08:	48 89 85 80 fa ff ff 	mov    %rax,-0x580(%rbp)
    9e0f:	48 8d 05 46 a2 00 00 	lea    0xa246(%rip),%rax        # 1405c <g_129>
    9e16:	48 89 85 88 fa ff ff 	mov    %rax,-0x578(%rbp)
    9e1d:	48 8d 05 38 a2 00 00 	lea    0xa238(%rip),%rax        # 1405c <g_129>
    9e24:	48 89 85 90 fa ff ff 	mov    %rax,-0x570(%rbp)
    9e2b:	48 8d 05 2a a2 00 00 	lea    0xa22a(%rip),%rax        # 1405c <g_129>
    9e32:	48 89 85 98 fa ff ff 	mov    %rax,-0x568(%rbp)
    9e39:	48 8d 05 1c a2 00 00 	lea    0xa21c(%rip),%rax        # 1405c <g_129>
    9e40:	48 89 85 a0 fa ff ff 	mov    %rax,-0x560(%rbp)
    9e47:	48 8d 85 98 ee ff ff 	lea    -0x1168(%rbp),%rax
    9e4e:	48 89 85 a8 fa ff ff 	mov    %rax,-0x558(%rbp)
    9e55:	48 8d 85 98 ee ff ff 	lea    -0x1168(%rbp),%rax
    9e5c:	48 89 85 b0 fa ff ff 	mov    %rax,-0x550(%rbp)
    9e63:	48 8d 85 98 ee ff ff 	lea    -0x1168(%rbp),%rax
    9e6a:	48 89 85 b8 fa ff ff 	mov    %rax,-0x548(%rbp)
    9e71:	48 8d 85 98 ee ff ff 	lea    -0x1168(%rbp),%rax
    9e78:	48 89 85 c0 fa ff ff 	mov    %rax,-0x540(%rbp)
    9e7f:	48 8d 85 98 ee ff ff 	lea    -0x1168(%rbp),%rax
    9e86:	48 89 85 c8 fa ff ff 	mov    %rax,-0x538(%rbp)
    9e8d:	48 8d 85 98 ee ff ff 	lea    -0x1168(%rbp),%rax
    9e94:	48 89 85 d0 fa ff ff 	mov    %rax,-0x530(%rbp)
    9e9b:	48 8d 85 98 ee ff ff 	lea    -0x1168(%rbp),%rax
    9ea2:	48 89 85 d8 fa ff ff 	mov    %rax,-0x528(%rbp)
    9ea9:	48 8d 85 98 ee ff ff 	lea    -0x1168(%rbp),%rax
    9eb0:	48 89 85 e0 fa ff ff 	mov    %rax,-0x520(%rbp)
    9eb7:	48 8d 85 98 ee ff ff 	lea    -0x1168(%rbp),%rax
    9ebe:	48 89 85 e8 fa ff ff 	mov    %rax,-0x518(%rbp)
    9ec5:	48 8d 05 90 a1 00 00 	lea    0xa190(%rip),%rax        # 1405c <g_129>
    9ecc:	48 89 85 f0 fa ff ff 	mov    %rax,-0x510(%rbp)
    9ed3:	48 8d 05 82 a1 00 00 	lea    0xa182(%rip),%rax        # 1405c <g_129>
    9eda:	48 89 85 f8 fa ff ff 	mov    %rax,-0x508(%rbp)
    9ee1:	48 8d 05 74 a1 00 00 	lea    0xa174(%rip),%rax        # 1405c <g_129>
    9ee8:	48 89 85 00 fb ff ff 	mov    %rax,-0x500(%rbp)
    9eef:	48 8d 05 66 a1 00 00 	lea    0xa166(%rip),%rax        # 1405c <g_129>
    9ef6:	48 89 85 08 fb ff ff 	mov    %rax,-0x4f8(%rbp)
    9efd:	48 8d 05 58 a1 00 00 	lea    0xa158(%rip),%rax        # 1405c <g_129>
    9f04:	48 89 85 10 fb ff ff 	mov    %rax,-0x4f0(%rbp)
    9f0b:	48 8d 05 4a a1 00 00 	lea    0xa14a(%rip),%rax        # 1405c <g_129>
    9f12:	48 89 85 18 fb ff ff 	mov    %rax,-0x4e8(%rbp)
    9f19:	48 8d 05 3c a1 00 00 	lea    0xa13c(%rip),%rax        # 1405c <g_129>
    9f20:	48 89 85 20 fb ff ff 	mov    %rax,-0x4e0(%rbp)
    9f27:	48 8d 05 2e a1 00 00 	lea    0xa12e(%rip),%rax        # 1405c <g_129>
    9f2e:	48 89 85 28 fb ff ff 	mov    %rax,-0x4d8(%rbp)
    9f35:	48 8d 05 20 a1 00 00 	lea    0xa120(%rip),%rax        # 1405c <g_129>
    9f3c:	48 89 85 30 fb ff ff 	mov    %rax,-0x4d0(%rbp)
    9f43:	48 8d 85 98 ee ff ff 	lea    -0x1168(%rbp),%rax
    9f4a:	48 89 85 38 fb ff ff 	mov    %rax,-0x4c8(%rbp)
    9f51:	48 8d 85 98 ee ff ff 	lea    -0x1168(%rbp),%rax
    9f58:	48 89 85 40 fb ff ff 	mov    %rax,-0x4c0(%rbp)
    9f5f:	48 8d 85 98 ee ff ff 	lea    -0x1168(%rbp),%rax
    9f66:	48 89 85 48 fb ff ff 	mov    %rax,-0x4b8(%rbp)
    9f6d:	48 8d 85 98 ee ff ff 	lea    -0x1168(%rbp),%rax
    9f74:	48 89 85 50 fb ff ff 	mov    %rax,-0x4b0(%rbp)
    9f7b:	48 8d 85 98 ee ff ff 	lea    -0x1168(%rbp),%rax
    9f82:	48 89 85 58 fb ff ff 	mov    %rax,-0x4a8(%rbp)
    9f89:	48 8d 85 98 ee ff ff 	lea    -0x1168(%rbp),%rax
    9f90:	48 89 85 60 fb ff ff 	mov    %rax,-0x4a0(%rbp)
    9f97:	48 8d 85 98 ee ff ff 	lea    -0x1168(%rbp),%rax
    9f9e:	48 89 85 68 fb ff ff 	mov    %rax,-0x498(%rbp)
    9fa5:	48 8d 85 98 ee ff ff 	lea    -0x1168(%rbp),%rax
    9fac:	48 89 85 70 fb ff ff 	mov    %rax,-0x490(%rbp)
    9fb3:	48 8d 85 98 ee ff ff 	lea    -0x1168(%rbp),%rax
    9fba:	48 89 85 78 fb ff ff 	mov    %rax,-0x488(%rbp)
    9fc1:	48 8d 05 94 a0 00 00 	lea    0xa094(%rip),%rax        # 1405c <g_129>
    9fc8:	48 89 85 80 fb ff ff 	mov    %rax,-0x480(%rbp)
    9fcf:	48 8d 05 86 a0 00 00 	lea    0xa086(%rip),%rax        # 1405c <g_129>
    9fd6:	48 89 85 88 fb ff ff 	mov    %rax,-0x478(%rbp)
    9fdd:	48 8d 05 78 a0 00 00 	lea    0xa078(%rip),%rax        # 1405c <g_129>
    9fe4:	48 89 85 90 fb ff ff 	mov    %rax,-0x470(%rbp)
    9feb:	48 8d 05 6a a0 00 00 	lea    0xa06a(%rip),%rax        # 1405c <g_129>
    9ff2:	48 89 85 98 fb ff ff 	mov    %rax,-0x468(%rbp)
    9ff9:	48 8d 05 5c a0 00 00 	lea    0xa05c(%rip),%rax        # 1405c <g_129>
    a000:	48 89 85 a0 fb ff ff 	mov    %rax,-0x460(%rbp)
    a007:	48 8d 05 4e a0 00 00 	lea    0xa04e(%rip),%rax        # 1405c <g_129>
    a00e:	48 89 85 a8 fb ff ff 	mov    %rax,-0x458(%rbp)
    a015:	48 8d 05 40 a0 00 00 	lea    0xa040(%rip),%rax        # 1405c <g_129>
    a01c:	48 89 85 b0 fb ff ff 	mov    %rax,-0x450(%rbp)
    a023:	48 8d 05 32 a0 00 00 	lea    0xa032(%rip),%rax        # 1405c <g_129>
    a02a:	48 89 85 b8 fb ff ff 	mov    %rax,-0x448(%rbp)
    a031:	48 8d 05 24 a0 00 00 	lea    0xa024(%rip),%rax        # 1405c <g_129>
    a038:	48 89 85 c0 fb ff ff 	mov    %rax,-0x440(%rbp)
    a03f:	48 8d 85 98 ee ff ff 	lea    -0x1168(%rbp),%rax
    a046:	48 89 85 c8 fb ff ff 	mov    %rax,-0x438(%rbp)
    a04d:	48 8d 85 98 ee ff ff 	lea    -0x1168(%rbp),%rax
    a054:	48 89 85 d0 fb ff ff 	mov    %rax,-0x430(%rbp)
    a05b:	48 8d 85 98 ee ff ff 	lea    -0x1168(%rbp),%rax
    a062:	48 89 85 d8 fb ff ff 	mov    %rax,-0x428(%rbp)
    a069:	48 8d 85 98 ee ff ff 	lea    -0x1168(%rbp),%rax
    a070:	48 89 85 e0 fb ff ff 	mov    %rax,-0x420(%rbp)
    a077:	48 8d 85 98 ee ff ff 	lea    -0x1168(%rbp),%rax
    a07e:	48 89 85 e8 fb ff ff 	mov    %rax,-0x418(%rbp)
    a085:	48 8d 85 98 ee ff ff 	lea    -0x1168(%rbp),%rax
    a08c:	48 89 85 f0 fb ff ff 	mov    %rax,-0x410(%rbp)
    a093:	48 8d 85 98 ee ff ff 	lea    -0x1168(%rbp),%rax
    a09a:	48 89 85 f8 fb ff ff 	mov    %rax,-0x408(%rbp)
    a0a1:	48 8d 85 98 ee ff ff 	lea    -0x1168(%rbp),%rax
    a0a8:	48 89 85 00 fc ff ff 	mov    %rax,-0x400(%rbp)
    a0af:	48 8d 85 98 ee ff ff 	lea    -0x1168(%rbp),%rax
    a0b6:	48 89 85 08 fc ff ff 	mov    %rax,-0x3f8(%rbp)
    a0bd:	48 8d 05 98 9f 00 00 	lea    0x9f98(%rip),%rax        # 1405c <g_129>
    a0c4:	48 89 85 10 fc ff ff 	mov    %rax,-0x3f0(%rbp)
    a0cb:	48 8d 05 8a 9f 00 00 	lea    0x9f8a(%rip),%rax        # 1405c <g_129>
    a0d2:	48 89 85 18 fc ff ff 	mov    %rax,-0x3e8(%rbp)
    a0d9:	48 8d 05 7c 9f 00 00 	lea    0x9f7c(%rip),%rax        # 1405c <g_129>
    a0e0:	48 89 85 20 fc ff ff 	mov    %rax,-0x3e0(%rbp)
    a0e7:	48 8d 05 6e 9f 00 00 	lea    0x9f6e(%rip),%rax        # 1405c <g_129>
    a0ee:	48 89 85 28 fc ff ff 	mov    %rax,-0x3d8(%rbp)
    a0f5:	48 8d 05 60 9f 00 00 	lea    0x9f60(%rip),%rax        # 1405c <g_129>
    a0fc:	48 89 85 30 fc ff ff 	mov    %rax,-0x3d0(%rbp)
    a103:	48 8d 05 52 9f 00 00 	lea    0x9f52(%rip),%rax        # 1405c <g_129>
    a10a:	48 89 85 38 fc ff ff 	mov    %rax,-0x3c8(%rbp)
    a111:	48 8d 05 44 9f 00 00 	lea    0x9f44(%rip),%rax        # 1405c <g_129>
    a118:	48 89 85 40 fc ff ff 	mov    %rax,-0x3c0(%rbp)
    a11f:	48 8d 05 36 9f 00 00 	lea    0x9f36(%rip),%rax        # 1405c <g_129>
    a126:	48 89 85 48 fc ff ff 	mov    %rax,-0x3b8(%rbp)
    a12d:	48 8d 05 28 9f 00 00 	lea    0x9f28(%rip),%rax        # 1405c <g_129>
    a134:	48 89 85 50 fc ff ff 	mov    %rax,-0x3b0(%rbp)
    a13b:	48 8d 85 98 ee ff ff 	lea    -0x1168(%rbp),%rax
    a142:	48 89 85 58 fc ff ff 	mov    %rax,-0x3a8(%rbp)
    a149:	48 8d 85 98 ee ff ff 	lea    -0x1168(%rbp),%rax
    a150:	48 89 85 60 fc ff ff 	mov    %rax,-0x3a0(%rbp)
    a157:	48 8d 85 98 ee ff ff 	lea    -0x1168(%rbp),%rax
    a15e:	48 89 85 68 fc ff ff 	mov    %rax,-0x398(%rbp)
    a165:	48 8d 85 98 ee ff ff 	lea    -0x1168(%rbp),%rax
    a16c:	48 89 85 70 fc ff ff 	mov    %rax,-0x390(%rbp)
    a173:	48 8d 85 98 ee ff ff 	lea    -0x1168(%rbp),%rax
    a17a:	48 89 85 78 fc ff ff 	mov    %rax,-0x388(%rbp)
    a181:	48 8d 85 98 ee ff ff 	lea    -0x1168(%rbp),%rax
    a188:	48 89 85 80 fc ff ff 	mov    %rax,-0x380(%rbp)
    a18f:	48 8d 85 98 ee ff ff 	lea    -0x1168(%rbp),%rax
    a196:	48 89 85 88 fc ff ff 	mov    %rax,-0x378(%rbp)
    a19d:	48 8d 85 98 ee ff ff 	lea    -0x1168(%rbp),%rax
    a1a4:	48 89 85 90 fc ff ff 	mov    %rax,-0x370(%rbp)
    a1ab:	48 8d 85 98 ee ff ff 	lea    -0x1168(%rbp),%rax
    a1b2:	48 89 85 98 fc ff ff 	mov    %rax,-0x368(%rbp)
    a1b9:	48 8d 05 9c 9e 00 00 	lea    0x9e9c(%rip),%rax        # 1405c <g_129>
    a1c0:	48 89 85 a0 fc ff ff 	mov    %rax,-0x360(%rbp)
    a1c7:	48 8d 05 8e 9e 00 00 	lea    0x9e8e(%rip),%rax        # 1405c <g_129>
    a1ce:	48 89 85 a8 fc ff ff 	mov    %rax,-0x358(%rbp)
    a1d5:	48 8d 05 80 9e 00 00 	lea    0x9e80(%rip),%rax        # 1405c <g_129>
    a1dc:	48 89 85 b0 fc ff ff 	mov    %rax,-0x350(%rbp)
    a1e3:	48 8d 05 72 9e 00 00 	lea    0x9e72(%rip),%rax        # 1405c <g_129>
    a1ea:	48 89 85 b8 fc ff ff 	mov    %rax,-0x348(%rbp)
    a1f1:	48 8d 05 64 9e 00 00 	lea    0x9e64(%rip),%rax        # 1405c <g_129>
    a1f8:	48 89 85 c0 fc ff ff 	mov    %rax,-0x340(%rbp)
    a1ff:	48 8d 05 56 9e 00 00 	lea    0x9e56(%rip),%rax        # 1405c <g_129>
    a206:	48 89 85 c8 fc ff ff 	mov    %rax,-0x338(%rbp)
    a20d:	48 8d 05 48 9e 00 00 	lea    0x9e48(%rip),%rax        # 1405c <g_129>
    a214:	48 89 85 d0 fc ff ff 	mov    %rax,-0x330(%rbp)
    a21b:	48 8d 05 3a 9e 00 00 	lea    0x9e3a(%rip),%rax        # 1405c <g_129>
    a222:	48 89 85 d8 fc ff ff 	mov    %rax,-0x328(%rbp)
    a229:	48 8d 05 2c 9e 00 00 	lea    0x9e2c(%rip),%rax        # 1405c <g_129>
    a230:	48 89 85 e0 fc ff ff 	mov    %rax,-0x320(%rbp)
    a237:	48 8d 85 98 ee ff ff 	lea    -0x1168(%rbp),%rax
    a23e:	48 89 85 e8 fc ff ff 	mov    %rax,-0x318(%rbp)
    a245:	48 8d 85 98 ee ff ff 	lea    -0x1168(%rbp),%rax
    a24c:	48 89 85 f0 fc ff ff 	mov    %rax,-0x310(%rbp)
    a253:	48 8d 85 98 ee ff ff 	lea    -0x1168(%rbp),%rax
    a25a:	48 89 85 f8 fc ff ff 	mov    %rax,-0x308(%rbp)
    a261:	48 8d 85 98 ee ff ff 	lea    -0x1168(%rbp),%rax
    a268:	48 89 85 00 fd ff ff 	mov    %rax,-0x300(%rbp)
    a26f:	48 8d 85 98 ee ff ff 	lea    -0x1168(%rbp),%rax
    a276:	48 89 85 08 fd ff ff 	mov    %rax,-0x2f8(%rbp)
    a27d:	48 8d 85 98 ee ff ff 	lea    -0x1168(%rbp),%rax
    a284:	48 89 85 10 fd ff ff 	mov    %rax,-0x2f0(%rbp)
    a28b:	48 8d 85 98 ee ff ff 	lea    -0x1168(%rbp),%rax
    a292:	48 89 85 18 fd ff ff 	mov    %rax,-0x2e8(%rbp)
    a299:	48 8d 85 98 ee ff ff 	lea    -0x1168(%rbp),%rax
    a2a0:	48 89 85 20 fd ff ff 	mov    %rax,-0x2e0(%rbp)
    a2a7:	48 8d 85 98 ee ff ff 	lea    -0x1168(%rbp),%rax
    a2ae:	48 89 85 28 fd ff ff 	mov    %rax,-0x2d8(%rbp)
    a2b5:	48 8d 05 a0 9d 00 00 	lea    0x9da0(%rip),%rax        # 1405c <g_129>
    a2bc:	48 89 85 30 fd ff ff 	mov    %rax,-0x2d0(%rbp)
    a2c3:	48 8d 05 92 9d 00 00 	lea    0x9d92(%rip),%rax        # 1405c <g_129>
    a2ca:	48 89 85 38 fd ff ff 	mov    %rax,-0x2c8(%rbp)
    a2d1:	48 8d 05 84 9d 00 00 	lea    0x9d84(%rip),%rax        # 1405c <g_129>
    a2d8:	48 89 85 40 fd ff ff 	mov    %rax,-0x2c0(%rbp)
    a2df:	48 8d 05 76 9d 00 00 	lea    0x9d76(%rip),%rax        # 1405c <g_129>
    a2e6:	48 89 85 48 fd ff ff 	mov    %rax,-0x2b8(%rbp)
    a2ed:	48 8d 05 68 9d 00 00 	lea    0x9d68(%rip),%rax        # 1405c <g_129>
    a2f4:	48 89 85 50 fd ff ff 	mov    %rax,-0x2b0(%rbp)
    a2fb:	48 8d 05 5a 9d 00 00 	lea    0x9d5a(%rip),%rax        # 1405c <g_129>
    a302:	48 89 85 58 fd ff ff 	mov    %rax,-0x2a8(%rbp)
    a309:	48 8d 05 4c 9d 00 00 	lea    0x9d4c(%rip),%rax        # 1405c <g_129>
    a310:	48 89 85 60 fd ff ff 	mov    %rax,-0x2a0(%rbp)
    a317:	48 8d 05 3e 9d 00 00 	lea    0x9d3e(%rip),%rax        # 1405c <g_129>
    a31e:	48 89 85 68 fd ff ff 	mov    %rax,-0x298(%rbp)
    a325:	48 8d 05 30 9d 00 00 	lea    0x9d30(%rip),%rax        # 1405c <g_129>
    a32c:	48 89 85 70 fd ff ff 	mov    %rax,-0x290(%rbp)
    a333:	48 8d 85 98 ee ff ff 	lea    -0x1168(%rbp),%rax
    a33a:	48 89 85 78 fd ff ff 	mov    %rax,-0x288(%rbp)
    a341:	48 8d 85 98 ee ff ff 	lea    -0x1168(%rbp),%rax
    a348:	48 89 85 80 fd ff ff 	mov    %rax,-0x280(%rbp)
    a34f:	48 8d 85 98 ee ff ff 	lea    -0x1168(%rbp),%rax
    a356:	48 89 85 88 fd ff ff 	mov    %rax,-0x278(%rbp)
    a35d:	48 8d 85 98 ee ff ff 	lea    -0x1168(%rbp),%rax
    a364:	48 89 85 90 fd ff ff 	mov    %rax,-0x270(%rbp)
    a36b:	48 8d 85 98 ee ff ff 	lea    -0x1168(%rbp),%rax
    a372:	48 89 85 98 fd ff ff 	mov    %rax,-0x268(%rbp)
    a379:	48 8d 85 98 ee ff ff 	lea    -0x1168(%rbp),%rax
    a380:	48 89 85 a0 fd ff ff 	mov    %rax,-0x260(%rbp)
    a387:	48 8d 85 98 ee ff ff 	lea    -0x1168(%rbp),%rax
    a38e:	48 89 85 a8 fd ff ff 	mov    %rax,-0x258(%rbp)
    a395:	48 8d 85 98 ee ff ff 	lea    -0x1168(%rbp),%rax
    a39c:	48 89 85 b0 fd ff ff 	mov    %rax,-0x250(%rbp)
    a3a3:	48 8d 85 98 ee ff ff 	lea    -0x1168(%rbp),%rax
    a3aa:	48 89 85 b8 fd ff ff 	mov    %rax,-0x248(%rbp)
    a3b1:	48 8d 05 a4 9c 00 00 	lea    0x9ca4(%rip),%rax        # 1405c <g_129>
    a3b8:	48 89 85 c0 fd ff ff 	mov    %rax,-0x240(%rbp)
    a3bf:	48 8d 05 96 9c 00 00 	lea    0x9c96(%rip),%rax        # 1405c <g_129>
    a3c6:	48 89 85 c8 fd ff ff 	mov    %rax,-0x238(%rbp)
    a3cd:	48 8d 05 88 9c 00 00 	lea    0x9c88(%rip),%rax        # 1405c <g_129>
    a3d4:	48 89 85 d0 fd ff ff 	mov    %rax,-0x230(%rbp)
    a3db:	48 8d 05 7a 9c 00 00 	lea    0x9c7a(%rip),%rax        # 1405c <g_129>
    a3e2:	48 89 85 d8 fd ff ff 	mov    %rax,-0x228(%rbp)
    a3e9:	48 8d 05 6c 9c 00 00 	lea    0x9c6c(%rip),%rax        # 1405c <g_129>
    a3f0:	48 89 85 e0 fd ff ff 	mov    %rax,-0x220(%rbp)
    a3f7:	48 8d 05 5e 9c 00 00 	lea    0x9c5e(%rip),%rax        # 1405c <g_129>
    a3fe:	48 89 85 e8 fd ff ff 	mov    %rax,-0x218(%rbp)
    a405:	48 8d 05 50 9c 00 00 	lea    0x9c50(%rip),%rax        # 1405c <g_129>
    a40c:	48 89 85 f0 fd ff ff 	mov    %rax,-0x210(%rbp)
    a413:	48 8d 05 42 9c 00 00 	lea    0x9c42(%rip),%rax        # 1405c <g_129>
    a41a:	48 89 85 f8 fd ff ff 	mov    %rax,-0x208(%rbp)
    a421:	48 8d 05 34 9c 00 00 	lea    0x9c34(%rip),%rax        # 1405c <g_129>
    a428:	48 89 85 00 fe ff ff 	mov    %rax,-0x200(%rbp)
    a42f:	48 8d 85 98 ee ff ff 	lea    -0x1168(%rbp),%rax
    a436:	48 89 85 08 fe ff ff 	mov    %rax,-0x1f8(%rbp)
    a43d:	48 8d 85 98 ee ff ff 	lea    -0x1168(%rbp),%rax
    a444:	48 89 85 10 fe ff ff 	mov    %rax,-0x1f0(%rbp)
    a44b:	48 8d 85 98 ee ff ff 	lea    -0x1168(%rbp),%rax
    a452:	48 89 85 18 fe ff ff 	mov    %rax,-0x1e8(%rbp)
    a459:	48 8d 85 98 ee ff ff 	lea    -0x1168(%rbp),%rax
    a460:	48 89 85 20 fe ff ff 	mov    %rax,-0x1e0(%rbp)
    a467:	48 8d 85 98 ee ff ff 	lea    -0x1168(%rbp),%rax
    a46e:	48 89 85 28 fe ff ff 	mov    %rax,-0x1d8(%rbp)
    a475:	48 8d 85 98 ee ff ff 	lea    -0x1168(%rbp),%rax
    a47c:	48 89 85 30 fe ff ff 	mov    %rax,-0x1d0(%rbp)
    a483:	48 8d 85 98 ee ff ff 	lea    -0x1168(%rbp),%rax
    a48a:	48 89 85 38 fe ff ff 	mov    %rax,-0x1c8(%rbp)
    a491:	48 8d 85 98 ee ff ff 	lea    -0x1168(%rbp),%rax
    a498:	48 89 85 40 fe ff ff 	mov    %rax,-0x1c0(%rbp)
    a49f:	48 8d 85 98 ee ff ff 	lea    -0x1168(%rbp),%rax
    a4a6:	48 89 85 48 fe ff ff 	mov    %rax,-0x1b8(%rbp)
    a4ad:	48 8d 05 a8 9b 00 00 	lea    0x9ba8(%rip),%rax        # 1405c <g_129>
    a4b4:	48 89 85 50 fe ff ff 	mov    %rax,-0x1b0(%rbp)
    a4bb:	48 8d 05 9a 9b 00 00 	lea    0x9b9a(%rip),%rax        # 1405c <g_129>
    a4c2:	48 89 85 58 fe ff ff 	mov    %rax,-0x1a8(%rbp)
    a4c9:	48 8d 05 8c 9b 00 00 	lea    0x9b8c(%rip),%rax        # 1405c <g_129>
    a4d0:	48 89 85 60 fe ff ff 	mov    %rax,-0x1a0(%rbp)
    a4d7:	48 8d 05 7e 9b 00 00 	lea    0x9b7e(%rip),%rax        # 1405c <g_129>
    a4de:	48 89 85 68 fe ff ff 	mov    %rax,-0x198(%rbp)
    a4e5:	48 8d 05 70 9b 00 00 	lea    0x9b70(%rip),%rax        # 1405c <g_129>
    a4ec:	48 89 85 70 fe ff ff 	mov    %rax,-0x190(%rbp)
    a4f3:	48 8d 05 62 9b 00 00 	lea    0x9b62(%rip),%rax        # 1405c <g_129>
    a4fa:	48 89 85 78 fe ff ff 	mov    %rax,-0x188(%rbp)
    a501:	48 8d 05 54 9b 00 00 	lea    0x9b54(%rip),%rax        # 1405c <g_129>
    a508:	48 89 85 80 fe ff ff 	mov    %rax,-0x180(%rbp)
    a50f:	48 8d 05 46 9b 00 00 	lea    0x9b46(%rip),%rax        # 1405c <g_129>
    a516:	48 89 85 88 fe ff ff 	mov    %rax,-0x178(%rbp)
    a51d:	48 8d 05 38 9b 00 00 	lea    0x9b38(%rip),%rax        # 1405c <g_129>
    a524:	48 89 85 90 fe ff ff 	mov    %rax,-0x170(%rbp)
    a52b:	48 8d 85 98 ee ff ff 	lea    -0x1168(%rbp),%rax
    a532:	48 89 85 98 fe ff ff 	mov    %rax,-0x168(%rbp)
    a539:	48 8d 85 98 ee ff ff 	lea    -0x1168(%rbp),%rax
    a540:	48 89 85 a0 fe ff ff 	mov    %rax,-0x160(%rbp)
    a547:	48 8d 85 98 ee ff ff 	lea    -0x1168(%rbp),%rax
    a54e:	48 89 85 a8 fe ff ff 	mov    %rax,-0x158(%rbp)
    a555:	48 8d 85 98 ee ff ff 	lea    -0x1168(%rbp),%rax
    a55c:	48 89 85 b0 fe ff ff 	mov    %rax,-0x150(%rbp)
    a563:	48 8d 85 98 ee ff ff 	lea    -0x1168(%rbp),%rax
    a56a:	48 89 85 b8 fe ff ff 	mov    %rax,-0x148(%rbp)
    a571:	48 8d 85 98 ee ff ff 	lea    -0x1168(%rbp),%rax
    a578:	48 89 85 c0 fe ff ff 	mov    %rax,-0x140(%rbp)
    a57f:	48 8d 85 98 ee ff ff 	lea    -0x1168(%rbp),%rax
    a586:	48 89 85 c8 fe ff ff 	mov    %rax,-0x138(%rbp)
    a58d:	48 8d 85 98 ee ff ff 	lea    -0x1168(%rbp),%rax
    a594:	48 89 85 d0 fe ff ff 	mov    %rax,-0x130(%rbp)
    a59b:	48 8d 85 98 ee ff ff 	lea    -0x1168(%rbp),%rax
    a5a2:	48 89 85 d8 fe ff ff 	mov    %rax,-0x128(%rbp)
    a5a9:	48 8d 05 ac 9a 00 00 	lea    0x9aac(%rip),%rax        # 1405c <g_129>
    a5b0:	48 89 85 e0 fe ff ff 	mov    %rax,-0x120(%rbp)
    a5b7:	48 8d 05 9e 9a 00 00 	lea    0x9a9e(%rip),%rax        # 1405c <g_129>
    a5be:	48 89 85 e8 fe ff ff 	mov    %rax,-0x118(%rbp)
    a5c5:	48 8d 05 90 9a 00 00 	lea    0x9a90(%rip),%rax        # 1405c <g_129>
    a5cc:	48 89 85 f0 fe ff ff 	mov    %rax,-0x110(%rbp)
    a5d3:	48 8d 05 82 9a 00 00 	lea    0x9a82(%rip),%rax        # 1405c <g_129>
    a5da:	48 89 85 f8 fe ff ff 	mov    %rax,-0x108(%rbp)
    a5e1:	48 8d 05 74 9a 00 00 	lea    0x9a74(%rip),%rax        # 1405c <g_129>
    a5e8:	48 89 85 00 ff ff ff 	mov    %rax,-0x100(%rbp)
    a5ef:	48 8d 05 66 9a 00 00 	lea    0x9a66(%rip),%rax        # 1405c <g_129>
    a5f6:	48 89 85 08 ff ff ff 	mov    %rax,-0xf8(%rbp)
    a5fd:	48 8d 05 58 9a 00 00 	lea    0x9a58(%rip),%rax        # 1405c <g_129>
    a604:	48 89 85 10 ff ff ff 	mov    %rax,-0xf0(%rbp)
    a60b:	48 8d 05 4a 9a 00 00 	lea    0x9a4a(%rip),%rax        # 1405c <g_129>
    a612:	48 89 85 18 ff ff ff 	mov    %rax,-0xe8(%rbp)
    a619:	48 8d 05 3c 9a 00 00 	lea    0x9a3c(%rip),%rax        # 1405c <g_129>
    a620:	48 89 85 20 ff ff ff 	mov    %rax,-0xe0(%rbp)
    a627:	48 8d 85 98 ee ff ff 	lea    -0x1168(%rbp),%rax
    a62e:	48 89 85 28 ff ff ff 	mov    %rax,-0xd8(%rbp)
    a635:	48 8d 85 98 ee ff ff 	lea    -0x1168(%rbp),%rax
    a63c:	48 89 85 30 ff ff ff 	mov    %rax,-0xd0(%rbp)
    a643:	48 8d 85 98 ee ff ff 	lea    -0x1168(%rbp),%rax
    a64a:	48 89 85 38 ff ff ff 	mov    %rax,-0xc8(%rbp)
    a651:	48 8d 85 98 ee ff ff 	lea    -0x1168(%rbp),%rax
    a658:	48 89 85 40 ff ff ff 	mov    %rax,-0xc0(%rbp)
    a65f:	48 8d 85 98 ee ff ff 	lea    -0x1168(%rbp),%rax
    a666:	48 89 85 48 ff ff ff 	mov    %rax,-0xb8(%rbp)
    a66d:	48 8d 85 98 ee ff ff 	lea    -0x1168(%rbp),%rax
    a674:	48 89 85 50 ff ff ff 	mov    %rax,-0xb0(%rbp)
    a67b:	48 8d 85 98 ee ff ff 	lea    -0x1168(%rbp),%rax
    a682:	48 89 85 58 ff ff ff 	mov    %rax,-0xa8(%rbp)
    a689:	48 8d 85 98 ee ff ff 	lea    -0x1168(%rbp),%rax
    a690:	48 89 85 60 ff ff ff 	mov    %rax,-0xa0(%rbp)
    a697:	48 8d 85 98 ee ff ff 	lea    -0x1168(%rbp),%rax
    a69e:	48 89 85 68 ff ff ff 	mov    %rax,-0x98(%rbp)
    a6a5:	48 8d 05 b0 99 00 00 	lea    0x99b0(%rip),%rax        # 1405c <g_129>
    a6ac:	48 89 85 70 ff ff ff 	mov    %rax,-0x90(%rbp)
    a6b3:	48 8d 05 a2 99 00 00 	lea    0x99a2(%rip),%rax        # 1405c <g_129>
    a6ba:	48 89 85 78 ff ff ff 	mov    %rax,-0x88(%rbp)
    a6c1:	48 8d 05 94 99 00 00 	lea    0x9994(%rip),%rax        # 1405c <g_129>
    a6c8:	48 89 45 80          	mov    %rax,-0x80(%rbp)
    a6cc:	48 8d 05 89 99 00 00 	lea    0x9989(%rip),%rax        # 1405c <g_129>
    a6d3:	48 89 45 88          	mov    %rax,-0x78(%rbp)
    a6d7:	48 8d 05 7e 99 00 00 	lea    0x997e(%rip),%rax        # 1405c <g_129>
    a6de:	48 89 45 90          	mov    %rax,-0x70(%rbp)
    a6e2:	48 8d 05 73 99 00 00 	lea    0x9973(%rip),%rax        # 1405c <g_129>
    a6e9:	48 89 45 98          	mov    %rax,-0x68(%rbp)
    a6ed:	48 8d 05 68 99 00 00 	lea    0x9968(%rip),%rax        # 1405c <g_129>
    a6f4:	48 89 45 a0          	mov    %rax,-0x60(%rbp)
    a6f8:	48 8d 05 5d 99 00 00 	lea    0x995d(%rip),%rax        # 1405c <g_129>
    a6ff:	48 89 45 a8          	mov    %rax,-0x58(%rbp)
    a703:	48 8d 05 52 99 00 00 	lea    0x9952(%rip),%rax        # 1405c <g_129>
    a70a:	48 89 45 b0          	mov    %rax,-0x50(%rbp)
    a70e:	c7 85 38 ef ff ff 67 	movl   $0x2929e567,-0x10c8(%rbp)
    a715:	e5 29 29 
    a718:	c7 85 3c ef ff ff 00 	movl   $0x0,-0x10c4(%rbp)
    a71f:	00 00 00 
    a722:	66 c7 85 a0 f3 ff ff 	movw   $0x7fac,-0xc60(%rbp)
    a729:	ac 7f 
    a72b:	66 c7 85 a2 f3 ff ff 	movw   $0xe38c,-0xc5e(%rbp)
    a732:	8c e3 
    a734:	66 c7 85 a4 f3 ff ff 	movw   $0xe38c,-0xc5c(%rbp)
    a73b:	8c e3 
    a73d:	66 c7 85 a6 f3 ff ff 	movw   $0x7fac,-0xc5a(%rbp)
    a744:	ac 7f 
    a746:	66 c7 85 a8 f3 ff ff 	movw   $0xffff,-0xc58(%rbp)
    a74d:	ff ff 
    a74f:	66 c7 85 aa f3 ff ff 	movw   $0x7fac,-0xc56(%rbp)
    a756:	ac 7f 
    a758:	66 c7 85 ac f3 ff ff 	movw   $0xffff,-0xc54(%rbp)
    a75f:	ff ff 
    a761:	66 c7 85 ae f3 ff ff 	movw   $0x75bf,-0xc52(%rbp)
    a768:	bf 75 
    a76a:	66 c7 85 b0 f3 ff ff 	movw   $0xffff,-0xc50(%rbp)
    a771:	ff ff 
    a773:	66 c7 85 b2 f3 ff ff 	movw   $0xffff,-0xc4e(%rbp)
    a77a:	ff ff 
    a77c:	66 c7 85 b4 f3 ff ff 	movw   $0xffff,-0xc4c(%rbp)
    a783:	ff ff 
    a785:	66 c7 85 b6 f3 ff ff 	movw   $0xffff,-0xc4a(%rbp)
    a78c:	ff ff 
    a78e:	66 c7 85 b8 f3 ff ff 	movw   $0x8ed,-0xc48(%rbp)
    a795:	ed 08 
    a797:	66 c7 85 ba f3 ff ff 	movw   $0xc880,-0xc46(%rbp)
    a79e:	80 c8 
    a7a0:	66 c7 85 bc f3 ff ff 	movw   $0x2fa7,-0xc44(%rbp)
    a7a7:	a7 2f 
    a7a9:	66 c7 85 be f3 ff ff 	movw   $0xffff,-0xc42(%rbp)
    a7b0:	ff ff 
    a7b2:	66 c7 85 c0 f3 ff ff 	movw   $0xffff,-0xc40(%rbp)
    a7b9:	ff ff 
    a7bb:	66 c7 85 c2 f3 ff ff 	movw   $0xe38c,-0xc3e(%rbp)
    a7c2:	8c e3 
    a7c4:	66 c7 85 c4 f3 ff ff 	movw   $0xffff,-0xc3c(%rbp)
    a7cb:	ff ff 
    a7cd:	66 c7 85 c6 f3 ff ff 	movw   $0xc880,-0xc3a(%rbp)
    a7d4:	80 c8 
    a7d6:	66 c7 85 c8 f3 ff ff 	movw   $0xffff,-0xc38(%rbp)
    a7dd:	ff ff 
    a7df:	66 c7 85 ca f3 ff ff 	movw   $0x7fac,-0xc36(%rbp)
    a7e6:	ac 7f 
    a7e8:	66 c7 85 cc f3 ff ff 	movw   $0x51af,-0xc34(%rbp)
    a7ef:	af 51 
    a7f1:	66 c7 85 ce f3 ff ff 	movw   $0x7fac,-0xc32(%rbp)
    a7f8:	ac 7f 
    a7fa:	66 c7 85 d0 f3 ff ff 	movw   $0xffff,-0xc30(%rbp)
    a801:	ff ff 
    a803:	66 c7 85 d2 f3 ff ff 	movw   $0xe38c,-0xc2e(%rbp)
    a80a:	8c e3 
    a80c:	66 c7 85 d4 f3 ff ff 	movw   $0x7fac,-0xc2c(%rbp)
    a813:	ac 7f 
    a815:	66 c7 85 d6 f3 ff ff 	movw   $0xffff,-0xc2a(%rbp)
    a81c:	ff ff 
    a81e:	66 c7 85 d8 f3 ff ff 	movw   $0x6f0b,-0xc28(%rbp)
    a825:	0b 6f 
    a827:	66 c7 85 da f3 ff ff 	movw   $0x8a3e,-0xc26(%rbp)
    a82e:	3e 8a 
    a830:	66 c7 85 dc f3 ff ff 	movw   $0x8a3e,-0xc24(%rbp)
    a837:	3e 8a 
    a839:	66 c7 85 de f3 ff ff 	movw   $0xffff,-0xc22(%rbp)
    a840:	ff ff 
    a842:	66 c7 85 e0 f3 ff ff 	movw   $0xc880,-0xc20(%rbp)
    a849:	80 c8 
    a84b:	66 c7 85 e2 f3 ff ff 	movw   $0xffff,-0xc1e(%rbp)
    a852:	ff ff 
    a854:	66 c7 85 e4 f3 ff ff 	movw   $0x848d,-0xc1c(%rbp)
    a85b:	8d 84 
    a85d:	66 c7 85 e6 f3 ff ff 	movw   $0x7fac,-0xc1a(%rbp)
    a864:	ac 7f 
    a866:	66 c7 85 e8 f3 ff ff 	movw   $0xffff,-0xc18(%rbp)
    a86d:	ff ff 
    a86f:	66 c7 85 ea f3 ff ff 	movw   $0xfffd,-0xc16(%rbp)
    a876:	fd ff 
    a878:	66 c7 85 ec f3 ff ff 	movw   $0x7fac,-0xc14(%rbp)
    a87f:	ac 7f 
    a881:	66 c7 85 ee f3 ff ff 	movw   $0x8a3e,-0xc12(%rbp)
    a888:	3e 8a 
    a88a:	66 c7 85 f0 f3 ff ff 	movw   $0x90ab,-0xc10(%rbp)
    a891:	ab 90 
    a893:	66 c7 85 f2 f3 ff ff 	movw   $0xffff,-0xc0e(%rbp)
    a89a:	ff ff 
    a89c:	66 c7 85 f4 f3 ff ff 	movw   $0x8ed,-0xc0c(%rbp)
    a8a3:	ed 08 
    a8a5:	66 c7 85 f6 f3 ff ff 	movw   $0x8ed,-0xc0a(%rbp)
    a8ac:	ed 08 
    a8ae:	66 c7 85 f8 f3 ff ff 	movw   $0xffff,-0xc08(%rbp)
    a8b5:	ff ff 
    a8b7:	48 8d 85 80 ef ff ff 	lea    -0x1080(%rbp),%rax
    a8be:	48 89 85 b0 ef ff ff 	mov    %rax,-0x1050(%rbp)
    a8c5:	48 8d 85 b0 ef ff ff 	lea    -0x1050(%rbp),%rax
    a8cc:	48 89 85 10 f0 ff ff 	mov    %rax,-0xff0(%rbp)
    a8d3:	0f b6 45 c7          	movzbl -0x39(%rbp),%eax
    a8d7:	83 c0 01             	add    $0x1,%eax
    a8da:	88 45 c7             	mov    %al,-0x39(%rbp)
    a8dd:	48 8b 85 f0 ef ff ff 	mov    -0x1010(%rbp),%rax
    a8e4:	c7 00 01 00 00 00    	movl   $0x1,(%rax)
    a8ea:	48 8d 05 1f bc 00 00 	lea    0xbc1f(%rip),%rax        # 16510 <g_663>
    a8f1:	48 89 85 18 f0 ff ff 	mov    %rax,-0xfe8(%rbp)
    a8f8:	c7 85 40 ef ff ff 5b 	movl   $0xfed7c85b,-0x10c0(%rbp)
    a8ff:	c8 d7 fe 
    a902:	c7 85 44 ef ff ff fa 	movl   $0xfffffffa,-0x10bc(%rbp)
    a909:	ff ff ff 
    a90c:	c7 85 48 ef ff ff 67 	movl   $0x51b30367,-0x10b8(%rbp)
    a913:	03 b3 51 
    a916:	48 b8 6d a6 60 1b a4 	movabs $0x80d1dda41b60a66d,%rax
    a91d:	dd d1 80 
    a920:	48 89 85 20 f0 ff ff 	mov    %rax,-0xfe0(%rbp)
    a927:	c7 85 c8 ee ff ff 00 	movl   $0x0,-0x1138(%rbp)
    a92e:	00 00 00 
    a931:	eb 1e                	jmp    a951 <func_53+0x35fa>
    a933:	8b 85 c8 ee ff ff    	mov    -0x1138(%rbp),%eax
    a939:	48 98                	cltq   
    a93b:	48 8d 15 0e bc 00 00 	lea    0xbc0e(%rip),%rdx        # 16550 <g_1818>
    a942:	48 89 94 c5 10 f1 ff 	mov    %rdx,-0xef0(%rbp,%rax,8)
    a949:	ff 
    a94a:	83 85 c8 ee ff ff 01 	addl   $0x1,-0x1138(%rbp)
    a951:	83 bd c8 ee ff ff 02 	cmpl   $0x2,-0x1138(%rbp)
    a958:	7e d9                	jle    a933 <func_53+0x35dc>
    a95a:	c7 85 c8 ee ff ff 00 	movl   $0x0,-0x1138(%rbp)
    a961:	00 00 00 
    a964:	eb 1e                	jmp    a984 <func_53+0x362d>
    a966:	8b 85 c8 ee ff ff    	mov    -0x1138(%rbp),%eax
    a96c:	48 98                	cltq   
    a96e:	48 8d 95 68 ef ff ff 	lea    -0x1098(%rbp),%rdx
    a975:	48 89 94 c5 50 f1 ff 	mov    %rdx,-0xeb0(%rbp,%rax,8)
    a97c:	ff 
    a97d:	83 85 c8 ee ff ff 01 	addl   $0x1,-0x1138(%rbp)
    a984:	83 bd c8 ee ff ff 04 	cmpl   $0x4,-0x1138(%rbp)
    a98b:	7e d9                	jle    a966 <func_53+0x360f>
    a98d:	48 8b 05 fc aa 00 00 	mov    0xaafc(%rip),%rax        # 15490 <g_305>
    a994:	48 8b 00             	mov    (%rax),%rax
    a997:	49 89 c4             	mov    %rax,%r12
    a99a:	0f be 9d 7c ee ff ff 	movsbl -0x1184(%rbp),%ebx
    a9a1:	8b 85 98 ee ff ff    	mov    -0x1168(%rbp),%eax
    a9a7:	48 98                	cltq   
    a9a9:	48 be 4d 1f b8 83 41 	movabs $0xcf85704183b81f4d,%rsi
    a9b0:	70 85 cf 
    a9b3:	48 89 c7             	mov    %rax,%rdi
    a9b6:	e8 73 b6 ff ff       	callq  602e <safe_add_func_uint64_t_u_u>
    a9bb:	48 8b 05 8e bb 00 00 	mov    0xbb8e(%rip),%rax        # 16550 <g_1818>
    a9c2:	48 89 85 10 f0 ff ff 	mov    %rax,-0xff0(%rbp)
    a9c9:	48 8b 85 10 f0 ff ff 	mov    -0xff0(%rbp),%rax
    a9d0:	48 3b 85 f8 ef ff ff 	cmp    -0x1008(%rbp),%rax
    a9d7:	0f 94 c0             	sete   %al
    a9da:	0f b6 c0             	movzbl %al,%eax
    a9dd:	f7 d0                	not    %eax
    a9df:	89 85 40 ef ff ff    	mov    %eax,-0x10c0(%rbp)
    a9e5:	8b 85 40 ef ff ff    	mov    -0x10c0(%rbp),%eax
    a9eb:	48 63 d0             	movslq %eax,%rdx
    a9ee:	48 8b 05 73 b0 00 00 	mov    0xb073(%rip),%rax        # 15a68 <g_662>
    a9f5:	48 8b 08             	mov    (%rax),%rcx
    a9f8:	48 8b 85 18 f0 ff ff 	mov    -0xfe8(%rbp),%rax
    a9ff:	48 89 08             	mov    %rcx,(%rax)
    aa02:	48 8b 85 18 f0 ff ff 	mov    -0xfe8(%rbp),%rax
    aa09:	48 8b 00             	mov    (%rax),%rax
    aa0c:	48 8d 0d 45 56 00 00 	lea    0x5645(%rip),%rcx        # 10058 <g_1215>
    aa13:	48 39 c8             	cmp    %rcx,%rax
    aa16:	0f 95 c0             	setne  %al
    aa19:	0f b6 c0             	movzbl %al,%eax
    aa1c:	48 89 d6             	mov    %rdx,%rsi
    aa1f:	48 89 c7             	mov    %rax,%rdi
    aa22:	e8 07 b6 ff ff       	callq  602e <safe_add_func_uint64_t_u_u>
    aa27:	0f b7 c0             	movzwl %ax,%eax
    aa2a:	89 de                	mov    %ebx,%esi
    aa2c:	89 c7                	mov    %eax,%edi
    aa2e:	e8 8b b3 ff ff       	callq  5dbe <safe_lshift_func_uint16_t_u_s>
    aa33:	0f be d0             	movsbl %al,%edx
    aa36:	48 8b 85 f0 ef ff ff 	mov    -0x1010(%rbp),%rax
    aa3d:	8b 00                	mov    (%rax),%eax
    aa3f:	8d 48 01             	lea    0x1(%rax),%ecx
    aa42:	48 8b 85 f0 ef ff ff 	mov    -0x1010(%rbp),%rax
    aa49:	89 08                	mov    %ecx,(%rax)
    aa4b:	48 8d 85 88 ef ff ff 	lea    -0x1078(%rbp),%rax
    aa52:	48 39 85 e0 ef ff ff 	cmp    %rax,-0x1020(%rbp)
    aa59:	0f 95 c0             	setne  %al
    aa5c:	0f b6 c0             	movzbl %al,%eax
    aa5f:	89 d6                	mov    %edx,%esi
    aa61:	89 c7                	mov    %eax,%edi
    aa63:	e8 aa a7 ff ff       	callq  5212 <safe_mul_func_int8_t_s_s>
    aa68:	66 98                	cbtw   
    aa6a:	0f b7 c0             	movzwl %ax,%eax
    aa6d:	89 c6                	mov    %eax,%esi
    aa6f:	bf fc ff 00 00       	mov    $0xfffc,%edi
    aa74:	e8 c4 b2 ff ff       	callq  5d3d <safe_mul_func_uint16_t_u_u>
    aa79:	48 8b 15 00 96 00 00 	mov    0x9600(%rip),%rdx        # 14080 <g_175>
    aa80:	0f b7 c0             	movzwl %ax,%eax
    aa83:	48 31 d0             	xor    %rdx,%rax
    aa86:	48 89 05 f3 95 00 00 	mov    %rax,0x95f3(%rip)        # 14080 <g_175>
    aa8d:	8b 85 40 ef ff ff    	mov    -0x10c0(%rbp),%eax
    aa93:	48 98                	cltq   
    aa95:	4c 89 e6             	mov    %r12,%rsi
    aa98:	48 89 c7             	mov    %rax,%rdi
    aa9b:	e8 e0 b5 ff ff       	callq  6080 <safe_mod_func_uint64_t_u_u>
    aaa0:	48 85 c0             	test   %rax,%rax
    aaa3:	74 11                	je     aab6 <func_53+0x375f>
    aaa5:	48 83 bd 08 f0 ff ff 	cmpq   $0x0,-0xff8(%rbp)
    aaac:	00 
    aaad:	74 07                	je     aab6 <func_53+0x375f>
    aaaf:	b8 01 00 00 00       	mov    $0x1,%eax
    aab4:	eb 05                	jmp    aabb <func_53+0x3764>
    aab6:	b8 00 00 00 00       	mov    $0x0,%eax
    aabb:	83 f8 fc             	cmp    $0xfffffffc,%eax
    aabe:	0f 94 c0             	sete   %al
    aac1:	0f b6 c0             	movzbl %al,%eax
    aac4:	be a8 e8 ea ba       	mov    $0xbaeae8a8,%esi
    aac9:	89 c7                	mov    %eax,%edi
    aacb:	e8 00 b4 ff ff       	callq  5ed0 <safe_sub_func_uint32_t_u_u>
    aad0:	89 c2                	mov    %eax,%edx
    aad2:	48 8b 05 b7 af 00 00 	mov    0xafb7(%rip),%rax        # 15a90 <g_926>
    aad9:	48 8b 00             	mov    (%rax),%rax
    aadc:	66 89 10             	mov    %dx,(%rax)
    aadf:	0f b7 00             	movzwl (%rax),%eax
    aae2:	0f b7 d0             	movzwl %ax,%edx
    aae5:	48 8b 85 a8 ef ff ff 	mov    -0x1058(%rbp),%rax
    aaec:	48 39 c2             	cmp    %rax,%rdx
    aaef:	7c 0c                	jl     aafd <func_53+0x37a6>
    aaf1:	48 8d 05 c0 95 00 00 	lea    0x95c0(%rip),%rax        # 140b8 <g_185>
    aaf8:	e9 2c 01 00 00       	jmpq   ac29 <func_53+0x38d2>
    aafd:	48 8d 05 74 af 00 00 	lea    0xaf74(%rip),%rax        # 15a78 <g_677>
    ab04:	48 89 85 30 f1 ff ff 	mov    %rax,-0xed0(%rbp)
    ab0b:	48 8d 05 66 af 00 00 	lea    0xaf66(%rip),%rax        # 15a78 <g_677>
    ab12:	48 89 85 38 f1 ff ff 	mov    %rax,-0xec8(%rbp)
    ab19:	48 8d 05 58 af 00 00 	lea    0xaf58(%rip),%rax        # 15a78 <g_677>
    ab20:	48 89 85 40 f1 ff ff 	mov    %rax,-0xec0(%rbp)
    ab27:	48 8d 05 4a af 00 00 	lea    0xaf4a(%rip),%rax        # 15a78 <g_677>
    ab2e:	48 89 85 48 f1 ff ff 	mov    %rax,-0xeb8(%rbp)
    ab35:	66 83 ad 84 ee ff ff 	subw   $0x1,-0x117c(%rbp)
    ab3c:	01 
    ab3d:	48 8b 15 a4 af 00 00 	mov    0xafa4(%rip),%rdx        # 15ae8 <g_1116>
    ab44:	48 8b 05 9d af 00 00 	mov    0xaf9d(%rip),%rax        # 15ae8 <g_1116>
    ab4b:	48 8b 12             	mov    (%rdx),%rdx
    ab4e:	48 89 10             	mov    %rdx,(%rax)
    ab51:	c7 05 e5 96 00 00 00 	movl   $0x0,0x96e5(%rip)        # 14240 <g_1609>
    ab58:	00 00 00 
    ab5b:	eb 52                	jmp    abaf <func_53+0x3858>
    ab5d:	66 c7 85 88 ee ff ff 	movw   $0xffff,-0x1178(%rbp)
    ab64:	ff ff 
    ab66:	c7 85 4c ef ff ff 00 	movl   $0x0,-0x10b4(%rbp)
    ab6d:	00 00 00 
    ab70:	c7 85 50 ef ff ff fb 	movl   $0xfffffffb,-0x10b0(%rbp)
    ab77:	ff ff ff 
    ab7a:	0f b7 85 88 ee ff ff 	movzwl -0x1178(%rbp),%eax
    ab81:	83 c0 01             	add    $0x1,%eax
    ab84:	66 89 85 88 ee ff ff 	mov    %ax,-0x1178(%rbp)
    ab8b:	83 85 d0 ee ff ff 01 	addl   $0x1,-0x1130(%rbp)
    ab92:	48 8b 05 4f af 00 00 	mov    0xaf4f(%rip),%rax        # 15ae8 <g_1116>
    ab99:	48 c7 00 00 00 00 00 	movq   $0x0,(%rax)
    aba0:	8b 05 9a 96 00 00    	mov    0x969a(%rip),%eax        # 14240 <g_1609>
    aba6:	83 c0 01             	add    $0x1,%eax
    aba9:	89 05 91 96 00 00    	mov    %eax,0x9691(%rip)        # 14240 <g_1609>
    abaf:	8b 05 8b 96 00 00    	mov    0x968b(%rip),%eax        # 14240 <g_1609>
    abb5:	83 f8 09             	cmp    $0x9,%eax
    abb8:	76 a3                	jbe    ab5d <func_53+0x3806>
    abba:	0f b6 85 7c ee ff ff 	movzbl -0x1184(%rbp),%eax
    abc1:	83 c0 01             	add    $0x1,%eax
    abc4:	88 85 7c ee ff ff    	mov    %al,-0x1184(%rbp)
    abca:	80 bd 7c ee ff ff 09 	cmpb   $0x9,-0x1184(%rbp)
    abd1:	0f 8e 02 ee ff ff    	jle    99d9 <func_53+0x2682>
    abd7:	8b 05 63 b9 00 00    	mov    0xb963(%rip),%eax        # 16540 <g_1479>
    abdd:	83 e8 01             	sub    $0x1,%eax
    abe0:	89 05 5a b9 00 00    	mov    %eax,0xb95a(%rip)        # 16540 <g_1479>
    abe6:	8b 05 54 b9 00 00    	mov    0xb954(%rip),%eax        # 16540 <g_1479>
    abec:	83 f8 e5             	cmp    $0xffffffe5,%eax
    abef:	0f 85 83 ec ff ff    	jne    9878 <func_53+0x2521>
    abf5:	8b 05 d5 94 00 00    	mov    0x94d5(%rip),%eax        # 140d0 <g_219>
    abfb:	0f be c0             	movsbl %al,%eax
    abfe:	be 05 00 00 00       	mov    $0x5,%esi
    ac03:	89 c7                	mov    %eax,%edi
    ac05:	e8 ca a5 ff ff       	callq  51d4 <safe_add_func_int8_t_s_s>
    ac0a:	0f be c0             	movsbl %al,%eax
    ac0d:	89 05 bd 94 00 00    	mov    %eax,0x94bd(%rip)        # 140d0 <g_219>
    ac13:	8b 05 b7 94 00 00    	mov    0x94b7(%rip),%eax        # 140d0 <g_219>
    ac19:	83 f8 2a             	cmp    $0x2a,%eax
    ac1c:	0f 86 20 cd ff ff    	jbe    7942 <func_53+0x5eb>
    ac22:	48 8b 05 2f b9 00 00 	mov    0xb92f(%rip),%rax        # 16558 <g_1846>
    ac29:	48 8b 4d c8          	mov    -0x38(%rbp),%rcx
    ac2d:	64 48 33 0c 25 28 00 	xor    %fs:0x28,%rcx
    ac34:	00 00 
    ac36:	74 05                	je     ac3d <func_53+0x38e6>
    ac38:	e8 33 a4 ff ff       	callq  5070 <__stack_chk_fail@plt>
    ac3d:	48 81 c4 78 11 00 00 	add    $0x1178,%rsp
    ac44:	5b                   	pop    %rbx
    ac45:	41 5c                	pop    %r12
    ac47:	41 5d                	pop    %r13
    ac49:	41 5e                	pop    %r14
    ac4b:	41 5f                	pop    %r15
    ac4d:	5d                   	pop    %rbp
    ac4e:	c3                   	retq   

000000000000ac4f <func_57>:
    ac4f:	f3 0f 1e fa          	endbr64 
    ac53:	55                   	push   %rbp
    ac54:	48 89 e5             	mov    %rsp,%rbp
    ac57:	41 57                	push   %r15
    ac59:	41 56                	push   %r14
    ac5b:	41 55                	push   %r13
    ac5d:	41 54                	push   %r12
    ac5f:	53                   	push   %rbx
    ac60:	48 81 ec 38 0f 00 00 	sub    $0xf38,%rsp
    ac67:	89 f8                	mov    %edi,%eax
    ac69:	48 89 b5 b0 f0 ff ff 	mov    %rsi,-0xf50(%rbp)
    ac70:	48 89 95 a8 f0 ff ff 	mov    %rdx,-0xf58(%rbp)
    ac77:	88 85 bc f0 ff ff    	mov    %al,-0xf44(%rbp)
    ac7d:	64 48 8b 04 25 28 00 	mov    %fs:0x28,%rax
    ac84:	00 00 
    ac86:	48 89 45 c8          	mov    %rax,-0x38(%rbp)
    ac8a:	31 c0                	xor    %eax,%eax
    ac8c:	48 8d 05 c9 93 00 00 	lea    0x93c9(%rip),%rax        # 1405c <g_129>
    ac93:	48 89 85 60 f1 ff ff 	mov    %rax,-0xea0(%rbp)
    ac9a:	48 b8 a9 7e 57 cc e2 	movabs $0x1411b9e2cc577ea9,%rax
    aca1:	b9 11 14 
    aca4:	48 89 85 68 f1 ff ff 	mov    %rax,-0xe98(%rbp)
    acab:	48 8d 05 ee 94 00 00 	lea    0x94ee(%rip),%rax        # 141a0 <g_661>
    acb2:	48 89 85 10 f5 ff ff 	mov    %rax,-0xaf0(%rbp)
    acb9:	48 8d 05 e0 94 00 00 	lea    0x94e0(%rip),%rax        # 141a0 <g_661>
    acc0:	48 89 85 18 f5 ff ff 	mov    %rax,-0xae8(%rbp)
    acc7:	48 8d 05 d2 94 00 00 	lea    0x94d2(%rip),%rax        # 141a0 <g_661>
    acce:	48 89 85 20 f5 ff ff 	mov    %rax,-0xae0(%rbp)
    acd5:	48 8d 05 c4 94 00 00 	lea    0x94c4(%rip),%rax        # 141a0 <g_661>
    acdc:	48 89 85 28 f5 ff ff 	mov    %rax,-0xad8(%rbp)
    ace3:	48 8d 05 b6 94 00 00 	lea    0x94b6(%rip),%rax        # 141a0 <g_661>
    acea:	48 89 85 30 f5 ff ff 	mov    %rax,-0xad0(%rbp)
    acf1:	48 8d 05 a8 94 00 00 	lea    0x94a8(%rip),%rax        # 141a0 <g_661>
    acf8:	48 89 85 38 f5 ff ff 	mov    %rax,-0xac8(%rbp)
    acff:	48 8d 05 9a 94 00 00 	lea    0x949a(%rip),%rax        # 141a0 <g_661>
    ad06:	48 89 85 40 f5 ff ff 	mov    %rax,-0xac0(%rbp)
    ad0d:	48 8d 05 8c 94 00 00 	lea    0x948c(%rip),%rax        # 141a0 <g_661>
    ad14:	48 89 85 48 f5 ff ff 	mov    %rax,-0xab8(%rbp)
    ad1b:	48 8d 05 7e 94 00 00 	lea    0x947e(%rip),%rax        # 141a0 <g_661>
    ad22:	48 89 85 50 f5 ff ff 	mov    %rax,-0xab0(%rbp)
    ad29:	48 8d 05 70 94 00 00 	lea    0x9470(%rip),%rax        # 141a0 <g_661>
    ad30:	48 89 85 58 f5 ff ff 	mov    %rax,-0xaa8(%rbp)
    ad37:	48 8d 05 62 94 00 00 	lea    0x9462(%rip),%rax        # 141a0 <g_661>
    ad3e:	48 89 85 60 f5 ff ff 	mov    %rax,-0xaa0(%rbp)
    ad45:	48 8d 05 54 94 00 00 	lea    0x9454(%rip),%rax        # 141a0 <g_661>
    ad4c:	48 89 85 68 f5 ff ff 	mov    %rax,-0xa98(%rbp)
    ad53:	48 8d 05 46 94 00 00 	lea    0x9446(%rip),%rax        # 141a0 <g_661>
    ad5a:	48 89 85 70 f5 ff ff 	mov    %rax,-0xa90(%rbp)
    ad61:	48 8d 05 38 94 00 00 	lea    0x9438(%rip),%rax        # 141a0 <g_661>
    ad68:	48 89 85 78 f5 ff ff 	mov    %rax,-0xa88(%rbp)
    ad6f:	48 8d 05 2a 94 00 00 	lea    0x942a(%rip),%rax        # 141a0 <g_661>
    ad76:	48 89 85 80 f5 ff ff 	mov    %rax,-0xa80(%rbp)
    ad7d:	48 8d 05 1c 94 00 00 	lea    0x941c(%rip),%rax        # 141a0 <g_661>
    ad84:	48 89 85 88 f5 ff ff 	mov    %rax,-0xa78(%rbp)
    ad8b:	48 8d 05 0e 94 00 00 	lea    0x940e(%rip),%rax        # 141a0 <g_661>
    ad92:	48 89 85 90 f5 ff ff 	mov    %rax,-0xa70(%rbp)
    ad99:	48 8d 05 00 94 00 00 	lea    0x9400(%rip),%rax        # 141a0 <g_661>
    ada0:	48 89 85 98 f5 ff ff 	mov    %rax,-0xa68(%rbp)
    ada7:	48 8d 05 f2 93 00 00 	lea    0x93f2(%rip),%rax        # 141a0 <g_661>
    adae:	48 89 85 a0 f5 ff ff 	mov    %rax,-0xa60(%rbp)
    adb5:	48 8d 05 e4 93 00 00 	lea    0x93e4(%rip),%rax        # 141a0 <g_661>
    adbc:	48 89 85 a8 f5 ff ff 	mov    %rax,-0xa58(%rbp)
    adc3:	48 8d 05 72 92 00 00 	lea    0x9272(%rip),%rax        # 1403c <g_70>
    adca:	48 89 85 a8 f1 ff ff 	mov    %rax,-0xe58(%rbp)
    add1:	48 b8 e6 a7 87 6d 9e 	movabs $0xa963559e6d87a7e6,%rax
    add8:	55 63 a9 
    addb:	48 89 85 50 f6 ff ff 	mov    %rax,-0x9b0(%rbp)
    ade2:	48 c7 85 58 f6 ff ff 	movq   $0x3,-0x9a8(%rbp)
    ade9:	03 00 00 00 
    aded:	48 89 85 60 f6 ff ff 	mov    %rax,-0x9a0(%rbp)
    adf4:	48 c7 85 68 f6 ff ff 	movq   $0xffffffffffffffff,-0x998(%rbp)
    adfb:	ff ff ff ff 
    adff:	48 c7 85 70 f6 ff ff 	movq   $0x1,-0x990(%rbp)
    ae06:	01 00 00 00 
    ae0a:	48 c7 85 78 f6 ff ff 	movq   $0xffffffffffffffff,-0x988(%rbp)
    ae11:	ff ff ff ff 
    ae15:	48 89 85 80 f6 ff ff 	mov    %rax,-0x980(%rbp)
    ae1c:	48 c7 85 88 f6 ff ff 	movq   $0x3,-0x978(%rbp)
    ae23:	03 00 00 00 
    ae27:	48 89 85 90 f6 ff ff 	mov    %rax,-0x970(%rbp)
    ae2e:	48 c7 85 98 f6 ff ff 	movq   $0xffffffffffffffff,-0x968(%rbp)
    ae35:	ff ff ff ff 
    ae39:	48 c7 85 a0 f6 ff ff 	movq   $0x1,-0x960(%rbp)
    ae40:	01 00 00 00 
    ae44:	48 c7 85 a8 f6 ff ff 	movq   $0xffffffffffffffff,-0x958(%rbp)
    ae4b:	ff ff ff ff 
    ae4f:	48 89 85 b0 f6 ff ff 	mov    %rax,-0x950(%rbp)
    ae56:	48 c7 85 b8 f6 ff ff 	movq   $0x3,-0x948(%rbp)
    ae5d:	03 00 00 00 
    ae61:	48 89 85 c0 f6 ff ff 	mov    %rax,-0x940(%rbp)
    ae68:	48 c7 85 c8 f6 ff ff 	movq   $0xffffffffffffffff,-0x938(%rbp)
    ae6f:	ff ff ff ff 
    ae73:	48 c7 85 d0 f6 ff ff 	movq   $0x1,-0x930(%rbp)
    ae7a:	01 00 00 00 
    ae7e:	48 c7 85 d8 f6 ff ff 	movq   $0xffffffffffffffff,-0x928(%rbp)
    ae85:	ff ff ff ff 
    ae89:	48 89 85 e0 f6 ff ff 	mov    %rax,-0x920(%rbp)
    ae90:	48 c7 85 e8 f6 ff ff 	movq   $0x3,-0x918(%rbp)
    ae97:	03 00 00 00 
    ae9b:	48 89 85 f0 f6 ff ff 	mov    %rax,-0x910(%rbp)
    aea2:	48 c7 85 f8 f6 ff ff 	movq   $0xffffffffffffffff,-0x908(%rbp)
    aea9:	ff ff ff ff 
    aead:	48 c7 85 00 f7 ff ff 	movq   $0x1,-0x900(%rbp)
    aeb4:	01 00 00 00 
    aeb8:	48 c7 85 08 f7 ff ff 	movq   $0xffffffffffffffff,-0x8f8(%rbp)
    aebf:	ff ff ff ff 
    aec3:	48 89 85 10 f7 ff ff 	mov    %rax,-0x8f0(%rbp)
    aeca:	48 c7 85 18 f7 ff ff 	movq   $0x3,-0x8e8(%rbp)
    aed1:	03 00 00 00 
    aed5:	48 89 85 20 f7 ff ff 	mov    %rax,-0x8e0(%rbp)
    aedc:	48 c7 85 28 f7 ff ff 	movq   $0xffffffffffffffff,-0x8d8(%rbp)
    aee3:	ff ff ff ff 
    aee7:	48 8d 05 6e 91 00 00 	lea    0x916e(%rip),%rax        # 1405c <g_129>
    aeee:	48 89 85 b0 f1 ff ff 	mov    %rax,-0xe50(%rbp)
    aef5:	48 c7 85 b8 f1 ff ff 	movq   $0x0,-0xe48(%rbp)
    aefc:	00 00 00 00 
    af00:	48 8d 85 90 fa ff ff 	lea    -0x570(%rbp),%rax
    af07:	48 8d 15 92 55 00 00 	lea    0x5592(%rip),%rdx        # 104a0 <g_2039+0x440>
    af0e:	b9 51 00 00 00       	mov    $0x51,%ecx
    af13:	48 89 c7             	mov    %rax,%rdi
    af16:	48 89 d6             	mov    %rdx,%rsi
    af19:	f3 48 a5             	rep movsq %ds:(%rsi),%es:(%rdi)
    af1c:	c6 85 40 f4 ff ff f7 	movb   $0xf7,-0xbc0(%rbp)
    af23:	c6 85 41 f4 ff ff ff 	movb   $0xff,-0xbbf(%rbp)
    af2a:	c6 85 42 f4 ff ff 79 	movb   $0x79,-0xbbe(%rbp)
    af31:	c6 85 43 f4 ff ff 3c 	movb   $0x3c,-0xbbd(%rbp)
    af38:	c6 85 44 f4 ff ff 79 	movb   $0x79,-0xbbc(%rbp)
    af3f:	c6 85 45 f4 ff ff ff 	movb   $0xff,-0xbbb(%rbp)
    af46:	c6 85 46 f4 ff ff f7 	movb   $0xf7,-0xbba(%rbp)
    af4d:	c6 85 47 f4 ff ff c0 	movb   $0xc0,-0xbb9(%rbp)
    af54:	c6 85 48 f4 ff ff 79 	movb   $0x79,-0xbb8(%rbp)
    af5b:	c6 85 49 f4 ff ff fd 	movb   $0xfd,-0xbb7(%rbp)
    af62:	c6 85 4a f4 ff ff 79 	movb   $0x79,-0xbb6(%rbp)
    af69:	c6 85 4b f4 ff ff c0 	movb   $0xc0,-0xbb5(%rbp)
    af70:	c6 85 4c f4 ff ff f7 	movb   $0xf7,-0xbb4(%rbp)
    af77:	c6 85 4d f4 ff ff ff 	movb   $0xff,-0xbb3(%rbp)
    af7e:	c6 85 4e f4 ff ff 79 	movb   $0x79,-0xbb2(%rbp)
    af85:	c6 85 4f f4 ff ff 3c 	movb   $0x3c,-0xbb1(%rbp)
    af8c:	c6 85 50 f4 ff ff 79 	movb   $0x79,-0xbb0(%rbp)
    af93:	c6 85 51 f4 ff ff ff 	movb   $0xff,-0xbaf(%rbp)
    af9a:	c6 85 52 f4 ff ff f7 	movb   $0xf7,-0xbae(%rbp)
    afa1:	c6 85 53 f4 ff ff c0 	movb   $0xc0,-0xbad(%rbp)
    afa8:	c6 85 54 f4 ff ff 79 	movb   $0x79,-0xbac(%rbp)
    afaf:	c6 85 55 f4 ff ff fd 	movb   $0xfd,-0xbab(%rbp)
    afb6:	c6 85 56 f4 ff ff 79 	movb   $0x79,-0xbaa(%rbp)
    afbd:	c6 85 57 f4 ff ff c0 	movb   $0xc0,-0xba9(%rbp)
    afc4:	c6 85 58 f4 ff ff f7 	movb   $0xf7,-0xba8(%rbp)
    afcb:	c6 85 59 f4 ff ff ff 	movb   $0xff,-0xba7(%rbp)
    afd2:	c6 85 5a f4 ff ff 79 	movb   $0x79,-0xba6(%rbp)
    afd9:	c6 85 5b f4 ff ff 3c 	movb   $0x3c,-0xba5(%rbp)
    afe0:	c6 85 5c f4 ff ff 79 	movb   $0x79,-0xba4(%rbp)
    afe7:	c6 85 5d f4 ff ff ff 	movb   $0xff,-0xba3(%rbp)
    afee:	c6 85 5e f4 ff ff f7 	movb   $0xf7,-0xba2(%rbp)
    aff5:	c6 85 5f f4 ff ff c0 	movb   $0xc0,-0xba1(%rbp)
    affc:	c6 85 60 f4 ff ff 79 	movb   $0x79,-0xba0(%rbp)
    b003:	c6 85 61 f4 ff ff fd 	movb   $0xfd,-0xb9f(%rbp)
    b00a:	c6 85 62 f4 ff ff 79 	movb   $0x79,-0xb9e(%rbp)
    b011:	c6 85 63 f4 ff ff c0 	movb   $0xc0,-0xb9d(%rbp)
    b018:	c6 85 64 f4 ff ff f7 	movb   $0xf7,-0xb9c(%rbp)
    b01f:	c6 85 65 f4 ff ff ff 	movb   $0xff,-0xb9b(%rbp)
    b026:	c6 85 66 f4 ff ff 79 	movb   $0x79,-0xb9a(%rbp)
    b02d:	c6 85 67 f4 ff ff 3c 	movb   $0x3c,-0xb99(%rbp)
    b034:	c6 85 68 f4 ff ff 79 	movb   $0x79,-0xb98(%rbp)
    b03b:	c6 85 69 f4 ff ff ff 	movb   $0xff,-0xb97(%rbp)
    b042:	c6 85 6a f4 ff ff f7 	movb   $0xf7,-0xb96(%rbp)
    b049:	c6 85 6b f4 ff ff c0 	movb   $0xc0,-0xb95(%rbp)
    b050:	c6 85 6c f4 ff ff 79 	movb   $0x79,-0xb94(%rbp)
    b057:	c6 85 6d f4 ff ff fd 	movb   $0xfd,-0xb93(%rbp)
    b05e:	c6 85 6e f4 ff ff 79 	movb   $0x79,-0xb92(%rbp)
    b065:	c6 85 6f f4 ff ff c0 	movb   $0xc0,-0xb91(%rbp)
    b06c:	c6 85 70 f4 ff ff f7 	movb   $0xf7,-0xb90(%rbp)
    b073:	c6 85 71 f4 ff ff ff 	movb   $0xff,-0xb8f(%rbp)
    b07a:	c6 85 72 f4 ff ff 79 	movb   $0x79,-0xb8e(%rbp)
    b081:	c6 85 73 f4 ff ff 3c 	movb   $0x3c,-0xb8d(%rbp)
    b088:	c6 85 74 f4 ff ff 79 	movb   $0x79,-0xb8c(%rbp)
    b08f:	c6 85 75 f4 ff ff ff 	movb   $0xff,-0xb8b(%rbp)
    b096:	c6 85 76 f4 ff ff f7 	movb   $0xf7,-0xb8a(%rbp)
    b09d:	c6 85 77 f4 ff ff c0 	movb   $0xc0,-0xb89(%rbp)
    b0a4:	48 c7 85 c0 f1 ff ff 	movq   $0x0,-0xe40(%rbp)
    b0ab:	00 00 00 00 
    b0af:	c7 85 dc f0 ff ff 1a 	movl   $0xeda4541a,-0xf24(%rbp)
    b0b6:	54 a4 ed 
    b0b9:	c7 85 e0 f0 ff ff fa 	movl   $0x14bd46fa,-0xf20(%rbp)
    b0c0:	46 bd 14 
    b0c3:	c7 85 34 f1 ff ff 00 	movl   $0x0,-0xecc(%rbp)
    b0ca:	00 00 00 
    b0cd:	c6 85 cd f0 ff ff 01 	movb   $0x1,-0xf33(%rbp)
    b0d4:	c7 85 fc f0 ff ff 01 	movl   $0x1,-0xf04(%rbp)
    b0db:	00 00 00 
    b0de:	48 8d 85 68 f1 ff ff 	lea    -0xe98(%rbp),%rax
    b0e5:	48 89 85 70 f1 ff ff 	mov    %rax,-0xe90(%rbp)
    b0ec:	48 8d 85 70 f1 ff ff 	lea    -0xe90(%rbp),%rax
    b0f3:	48 89 85 78 f1 ff ff 	mov    %rax,-0xe88(%rbp)
    b0fa:	48 8d 85 78 f1 ff ff 	lea    -0xe88(%rbp),%rax
    b101:	48 89 85 e0 f3 ff ff 	mov    %rax,-0xc20(%rbp)
    b108:	48 8d 85 78 f1 ff ff 	lea    -0xe88(%rbp),%rax
    b10f:	48 89 85 e8 f3 ff ff 	mov    %rax,-0xc18(%rbp)
    b116:	48 8d 85 78 f1 ff ff 	lea    -0xe88(%rbp),%rax
    b11d:	48 89 85 f0 f3 ff ff 	mov    %rax,-0xc10(%rbp)
    b124:	48 8d 85 78 f1 ff ff 	lea    -0xe88(%rbp),%rax
    b12b:	48 89 85 f8 f3 ff ff 	mov    %rax,-0xc08(%rbp)
    b132:	48 8d 85 78 f1 ff ff 	lea    -0xe88(%rbp),%rax
    b139:	48 89 85 00 f4 ff ff 	mov    %rax,-0xc00(%rbp)
    b140:	48 8d 85 e0 f3 ff ff 	lea    -0xc20(%rbp),%rax
    b147:	48 83 c0 08          	add    $0x8,%rax
    b14b:	48 89 85 c8 f1 ff ff 	mov    %rax,-0xe38(%rbp)
    b152:	48 c7 85 80 f1 ff ff 	movq   $0x0,-0xe80(%rbp)
    b159:	00 00 00 00 
    b15d:	48 8d 85 80 f1 ff ff 	lea    -0xe80(%rbp),%rax
    b164:	48 89 85 88 f1 ff ff 	mov    %rax,-0xe78(%rbp)
    b16b:	48 8d 85 88 f1 ff ff 	lea    -0xe78(%rbp),%rax
    b172:	48 89 85 d0 f1 ff ff 	mov    %rax,-0xe30(%rbp)
    b179:	c7 85 00 f1 ff ff ff 	movl   $0xffffffff,-0xf00(%rbp)
    b180:	ff ff ff 
    b183:	c7 85 b0 f5 ff ff 76 	movl   $0xb4fd6576,-0xa50(%rbp)
    b18a:	65 fd b4 
    b18d:	c7 85 b4 f5 ff ff 76 	movl   $0xb4fd6576,-0xa4c(%rbp)
    b194:	65 fd b4 
    b197:	c7 85 b8 f5 ff ff 05 	movl   $0x5,-0xa48(%rbp)
    b19e:	00 00 00 
    b1a1:	c7 85 bc f5 ff ff a6 	movl   $0xa4c276a6,-0xa44(%rbp)
    b1a8:	76 c2 a4 
    b1ab:	c7 85 c0 f5 ff ff 72 	movl   $0x38b2a272,-0xa40(%rbp)
    b1b2:	a2 b2 38 
    b1b5:	c7 85 c4 f5 ff ff f8 	movl   $0xfffffff8,-0xa3c(%rbp)
    b1bc:	ff ff ff 
    b1bf:	c7 85 c8 f5 ff ff 76 	movl   $0xb4fd6576,-0xa38(%rbp)
    b1c6:	65 fd b4 
    b1c9:	c7 85 cc f5 ff ff 72 	movl   $0x38b2a272,-0xa34(%rbp)
    b1d0:	a2 b2 38 
    b1d3:	c7 85 d0 f5 ff ff 03 	movl   $0x3,-0xa30(%rbp)
    b1da:	00 00 00 
    b1dd:	c7 85 d4 f5 ff ff 72 	movl   $0x38b2a272,-0xa2c(%rbp)
    b1e4:	a2 b2 38 
    b1e7:	c7 85 d8 f5 ff ff 76 	movl   $0xb4fd6576,-0xa28(%rbp)
    b1ee:	65 fd b4 
    b1f1:	c7 85 dc f5 ff ff f8 	movl   $0xfffffff8,-0xa24(%rbp)
    b1f8:	ff ff ff 
    b1fb:	c7 85 e0 f5 ff ff 72 	movl   $0x38b2a272,-0xa20(%rbp)
    b202:	a2 b2 38 
    b205:	c7 85 e4 f5 ff ff a6 	movl   $0xa4c276a6,-0xa1c(%rbp)
    b20c:	76 c2 a4 
    b20f:	c7 85 e8 f5 ff ff 05 	movl   $0x5,-0xa18(%rbp)
    b216:	00 00 00 
    b219:	c7 85 ec f5 ff ff 76 	movl   $0xb4fd6576,-0xa14(%rbp)
    b220:	65 fd b4 
    b223:	c7 85 f0 f5 ff ff 76 	movl   $0xb4fd6576,-0xa10(%rbp)
    b22a:	65 fd b4 
    b22d:	c7 85 f4 f5 ff ff 05 	movl   $0x5,-0xa0c(%rbp)
    b234:	00 00 00 
    b237:	c7 85 f8 f5 ff ff a6 	movl   $0xa4c276a6,-0xa08(%rbp)
    b23e:	76 c2 a4 
    b241:	c7 85 fc f5 ff ff 72 	movl   $0x38b2a272,-0xa04(%rbp)
    b248:	a2 b2 38 
    b24b:	c7 85 00 f6 ff ff f8 	movl   $0xfffffff8,-0xa00(%rbp)
    b252:	ff ff ff 
    b255:	c7 85 04 f6 ff ff 76 	movl   $0xb4fd6576,-0x9fc(%rbp)
    b25c:	65 fd b4 
    b25f:	c7 85 08 f6 ff ff 72 	movl   $0x38b2a272,-0x9f8(%rbp)
    b266:	a2 b2 38 
    b269:	c7 85 0c f6 ff ff 03 	movl   $0x3,-0x9f4(%rbp)
    b270:	00 00 00 
    b273:	c7 85 10 f6 ff ff 72 	movl   $0x38b2a272,-0x9f0(%rbp)
    b27a:	a2 b2 38 
    b27d:	c7 85 14 f6 ff ff 76 	movl   $0xb4fd6576,-0x9ec(%rbp)
    b284:	65 fd b4 
    b287:	c7 85 18 f6 ff ff f8 	movl   $0xfffffff8,-0x9e8(%rbp)
    b28e:	ff ff ff 
    b291:	c7 85 1c f6 ff ff 72 	movl   $0x38b2a272,-0x9e4(%rbp)
    b298:	a2 b2 38 
    b29b:	c7 85 20 f6 ff ff a6 	movl   $0xa4c276a6,-0x9e0(%rbp)
    b2a2:	76 c2 a4 
    b2a5:	c7 85 24 f6 ff ff 05 	movl   $0x5,-0x9dc(%rbp)
    b2ac:	00 00 00 
    b2af:	c7 85 28 f6 ff ff 76 	movl   $0xb4fd6576,-0x9d8(%rbp)
    b2b6:	65 fd b4 
    b2b9:	c7 85 2c f6 ff ff 76 	movl   $0xb4fd6576,-0x9d4(%rbp)
    b2c0:	65 fd b4 
    b2c3:	c7 85 30 f6 ff ff 05 	movl   $0x5,-0x9d0(%rbp)
    b2ca:	00 00 00 
    b2cd:	c7 85 34 f6 ff ff a6 	movl   $0xa4c276a6,-0x9cc(%rbp)
    b2d4:	76 c2 a4 
    b2d7:	c7 85 38 f6 ff ff 72 	movl   $0x38b2a272,-0x9c8(%rbp)
    b2de:	a2 b2 38 
    b2e1:	c7 85 3c f6 ff ff f8 	movl   $0xfffffff8,-0x9c4(%rbp)
    b2e8:	ff ff ff 
    b2eb:	c7 85 40 f6 ff ff 76 	movl   $0xb4fd6576,-0x9c0(%rbp)
    b2f2:	65 fd b4 
    b2f5:	c7 85 44 f6 ff ff 72 	movl   $0x38b2a272,-0x9bc(%rbp)
    b2fc:	a2 b2 38 
    b2ff:	c7 85 48 f6 ff ff 03 	movl   $0x3,-0x9b8(%rbp)
    b306:	00 00 00 
    b309:	c7 85 4c f6 ff ff 72 	movl   $0x38b2a272,-0x9b4(%rbp)
    b310:	a2 b2 38 
    b313:	c6 85 ce f0 ff ff f5 	movb   $0xf5,-0xf32(%rbp)
    b31a:	48 8d 05 ef a7 00 00 	lea    0xa7ef(%rip),%rax        # 15b10 <g_1147>
    b321:	48 89 85 d8 f1 ff ff 	mov    %rax,-0xe28(%rbp)
    b328:	48 8d 85 e0 f0 ff ff 	lea    -0xf20(%rbp),%rax
    b32f:	48 89 85 e0 f1 ff ff 	mov    %rax,-0xe20(%rbp)
    b336:	48 c7 85 e8 f1 ff ff 	movq   $0x0,-0xe18(%rbp)
    b33d:	00 00 00 00 
    b341:	c7 85 04 f1 ff ff 00 	movl   $0x0,-0xefc(%rbp)
    b348:	00 00 00 
    b34b:	eb 1a                	jmp    b367 <func_57+0x718>
    b34d:	8b 85 04 f1 ff ff    	mov    -0xefc(%rbp),%eax
    b353:	48 98                	cltq   
    b355:	c7 84 85 c8 f3 ff ff 	movl   $0x1a4dc192,-0xc38(%rbp,%rax,4)
    b35c:	92 c1 4d 1a 
    b360:	83 85 04 f1 ff ff 01 	addl   $0x1,-0xefc(%rbp)
    b367:	83 bd 04 f1 ff ff 01 	cmpl   $0x1,-0xefc(%rbp)
    b36e:	7e dd                	jle    b34d <func_57+0x6fe>
    b370:	48 8b 85 60 f1 ff ff 	mov    -0xea0(%rbp),%rax
    b377:	8b 00                	mov    (%rax),%eax
    b379:	0f be d8             	movsbl %al,%ebx
    b37c:	4c 0f be a5 bc f0 ff 	movsbq -0xf44(%rbp),%r12
    b383:	ff 
    b384:	44 0f be ad bc f0 ff 	movsbl -0xf44(%rbp),%r13d
    b38b:	ff 
    b38c:	0f b6 85 bc f0 ff ff 	movzbl -0xf44(%rbp),%eax
    b393:	0f b6 d0             	movzbl %al,%edx
    b396:	48 8b 85 60 f1 ff ff 	mov    -0xea0(%rbp),%rax
    b39d:	48 89 85 b0 f1 ff ff 	mov    %rax,-0xe50(%rbp)
    b3a4:	48 8b 85 60 f1 ff ff 	mov    -0xea0(%rbp),%rax
    b3ab:	48 39 85 b0 f1 ff ff 	cmp    %rax,-0xe50(%rbp)
    b3b2:	0f 94 c0             	sete   %al
    b3b5:	0f b6 c0             	movzbl %al,%eax
    b3b8:	89 d6                	mov    %edx,%esi
    b3ba:	89 c7                	mov    %eax,%edi
    b3bc:	e8 b7 a7 ff ff       	callq  5b78 <safe_sub_func_uint8_t_u_u>
    b3c1:	0f be c0             	movsbl %al,%eax
    b3c4:	44 89 ee             	mov    %r13d,%esi
    b3c7:	89 c7                	mov    %eax,%edi
    b3c9:	e8 44 9e ff ff       	callq  5212 <safe_mul_func_int8_t_s_s>
    b3ce:	48 0f be c0          	movsbq %al,%rax
    b3d2:	4c 89 e6             	mov    %r12,%rsi
    b3d5:	48 89 c7             	mov    %rax,%rdi
    b3d8:	e8 64 a4 ff ff       	callq  5841 <safe_add_func_int64_t_s_s>
    b3dd:	0f be c0             	movsbl %al,%eax
    b3e0:	89 de                	mov    %ebx,%esi
    b3e2:	89 c7                	mov    %eax,%edi
    b3e4:	e8 48 9e ff ff       	callq  5231 <safe_mod_func_int8_t_s_s>
    b3e9:	84 c0                	test   %al,%al
    b3eb:	0f 84 83 00 00 00    	je     b474 <func_57+0x825>
    b3f1:	48 c7 85 b0 f3 ff ff 	movq   $0x0,-0xc50(%rbp)
    b3f8:	00 00 00 00 
    b3fc:	48 b8 4f 74 64 c5 c0 	movabs $0xdb3a29c0c564744f,%rax
    b403:	29 3a db 
    b406:	48 89 85 98 f1 ff ff 	mov    %rax,-0xe68(%rbp)
    b40d:	48 8d 05 1c b1 00 00 	lea    0xb11c(%rip),%rax        # 16530 <g_1132>
    b414:	48 89 85 b8 f3 ff ff 	mov    %rax,-0xc48(%rbp)
    b41b:	48 8d 05 e6 9f 00 00 	lea    0x9fe6(%rip),%rax        # 15408 <g_248+0x208>
    b422:	48 89 85 c0 f3 ff ff 	mov    %rax,-0xc40(%rbp)
    b429:	48 8b 05 40 a7 00 00 	mov    0xa740(%rip),%rax        # 15b70 <g_1221>
    b430:	48 8b 95 b8 f1 ff ff 	mov    -0xe48(%rbp),%rdx
    b437:	48 89 10             	mov    %rdx,(%rax)
    b43a:	48 8b 0d 1f 8c 00 00 	mov    0x8c1f(%rip),%rcx        # 14060 <g_141>
    b441:	48 8b 95 b8 fc ff ff 	mov    -0x348(%rbp),%rdx
    b448:	48 8b b5 b8 f3 ff ff 	mov    -0xc48(%rbp),%rsi
    b44f:	48 8b 85 98 f1 ff ff 	mov    -0xe68(%rbp),%rax
    b456:	48 89 c7             	mov    %rax,%rdi
    b459:	e8 57 21 00 00       	callq  d5b5 <func_80>
    b45e:	48 8b 95 c0 f3 ff ff 	mov    -0xc40(%rbp),%rdx
    b465:	48 89 02             	mov    %rax,(%rdx)
    b468:	48 8b 85 b0 f1 ff ff 	mov    -0xe50(%rbp),%rax
    b46f:	e9 a1 18 00 00       	jmpq   cd15 <func_57+0x20c6>
    b474:	66 c7 85 d2 f0 ff ff 	movw   $0x4,-0xf2e(%rbp)
    b47b:	04 00 
    b47d:	c7 85 e4 f0 ff ff 28 	movl   $0x86af3b28,-0xf1c(%rbp)
    b484:	3b af 86 
    b487:	c7 85 e8 f0 ff ff 0e 	movl   $0xbbe3d00e,-0xf18(%rbp)
    b48e:	d0 e3 bb 
    b491:	48 8d 85 30 f7 ff ff 	lea    -0x8d0(%rbp),%rax
    b498:	48 8d 15 a1 52 00 00 	lea    0x52a1(%rip),%rdx        # 10740 <g_2039+0x6e0>
    b49f:	b9 36 00 00 00       	mov    $0x36,%ecx
    b4a4:	48 89 c7             	mov    %rax,%rdi
    b4a7:	48 89 d6             	mov    %rdx,%rsi
    b4aa:	f3 48 a5             	rep movsq %ds:(%rsi),%es:(%rdi)
    b4ad:	48 c7 85 a0 f1 ff ff 	movq   $0x1,-0xe60(%rbp)
    b4b4:	01 00 00 00 
    b4b8:	48 8d 05 b5 8c 00 00 	lea    0x8cb5(%rip),%rax        # 14174 <g_518+0x4>
    b4bf:	48 89 85 f0 f1 ff ff 	mov    %rax,-0xe10(%rbp)
    b4c6:	48 8d 05 8f 8b 00 00 	lea    0x8b8f(%rip),%rax        # 1405c <g_129>
    b4cd:	48 89 85 f8 f1 ff ff 	mov    %rax,-0xe08(%rbp)
    b4d4:	48 8d 85 e0 f0 ff ff 	lea    -0xf20(%rbp),%rax
    b4db:	48 89 85 00 f2 ff ff 	mov    %rax,-0xe00(%rbp)
    b4e2:	48 c7 85 08 f2 ff ff 	movq   $0x0,-0xdf8(%rbp)
    b4e9:	00 00 00 00 
    b4ed:	48 8d 05 88 8c 00 00 	lea    0x8c88(%rip),%rax        # 1417c <g_518+0xc>
    b4f4:	48 89 85 10 f2 ff ff 	mov    %rax,-0xdf0(%rbp)
    b4fb:	48 8d 85 e8 f0 ff ff 	lea    -0xf18(%rbp),%rax
    b502:	48 89 85 18 f2 ff ff 	mov    %rax,-0xde8(%rbp)
    b509:	48 c7 85 20 f2 ff ff 	movq   $0x0,-0xde0(%rbp)
    b510:	00 00 00 00 
    b514:	48 8d 05 59 8c 00 00 	lea    0x8c59(%rip),%rax        # 14174 <g_518+0x4>
    b51b:	48 89 85 28 f2 ff ff 	mov    %rax,-0xdd8(%rbp)
    b522:	48 8d 05 4b 8c 00 00 	lea    0x8c4b(%rip),%rax        # 14174 <g_518+0x4>
    b529:	48 89 85 30 f2 ff ff 	mov    %rax,-0xdd0(%rbp)
    b530:	c6 85 cf f0 ff ff 06 	movb   $0x6,-0xf31(%rbp)
    b537:	0f b7 85 d2 f0 ff ff 	movzwl -0xf2e(%rbp),%eax
    b53e:	0f b7 c0             	movzwl %ax,%eax
    b541:	be 0d 00 00 00       	mov    $0xd,%esi
    b546:	89 c7                	mov    %eax,%edi
    b548:	e8 b9 a8 ff ff       	callq  5e06 <safe_lshift_func_uint16_t_u_u>
    b54d:	0f b7 d0             	movzwl %ax,%edx
    b550:	0f bf 85 d2 f0 ff ff 	movswl -0xf2e(%rbp),%eax
    b557:	39 c2                	cmp    %eax,%edx
    b559:	0f 8f a0 09 00 00    	jg     beff <func_57+0x12b0>
    b55f:	66 c7 85 da f0 ff ff 	movw   $0xffff,-0xf26(%rbp)
    b566:	ff ff 
    b568:	c7 85 ec f0 ff ff 84 	movl   $0x9ed3384,-0xf14(%rbp)
    b56f:	33 ed 09 
    b572:	c7 85 40 f1 ff ff 49 	movl   $0xdf72c749,-0xec0(%rbp)
    b579:	c7 72 df 
    b57c:	c7 85 44 f1 ff ff 00 	movl   $0x0,-0xebc(%rbp)
    b583:	00 00 00 
    b586:	c7 85 48 f1 ff ff ca 	movl   $0xcca64cca,-0xeb8(%rbp)
    b58d:	4c a6 cc 
    b590:	66 c7 85 d0 f0 ff ff 	movw   $0xffff,-0xf30(%rbp)
    b597:	ff ff 
    b599:	48 8d 05 bc 8a 00 00 	lea    0x8abc(%rip),%rax        # 1405c <g_129>
    b5a0:	48 89 85 18 f3 ff ff 	mov    %rax,-0xce8(%rbp)
    b5a7:	48 8d 85 ec f0 ff ff 	lea    -0xf14(%rbp),%rax
    b5ae:	48 89 85 20 f3 ff ff 	mov    %rax,-0xce0(%rbp)
    b5b5:	48 8d 85 dc f0 ff ff 	lea    -0xf24(%rbp),%rax
    b5bc:	48 89 85 28 f3 ff ff 	mov    %rax,-0xcd8(%rbp)
    b5c3:	48 8d 85 ec f0 ff ff 	lea    -0xf14(%rbp),%rax
    b5ca:	48 89 85 30 f3 ff ff 	mov    %rax,-0xcd0(%rbp)
    b5d1:	48 8d 85 dc f0 ff ff 	lea    -0xf24(%rbp),%rax
    b5d8:	48 89 85 38 f3 ff ff 	mov    %rax,-0xcc8(%rbp)
    b5df:	48 8d 85 68 f1 ff ff 	lea    -0xe98(%rbp),%rax
    b5e6:	48 89 85 40 f3 ff ff 	mov    %rax,-0xcc0(%rbp)
    b5ed:	48 c7 85 48 f3 ff ff 	movq   $0x0,-0xcb8(%rbp)
    b5f4:	00 00 00 00 
    b5f8:	48 c7 85 50 f3 ff ff 	movq   $0x0,-0xcb0(%rbp)
    b5ff:	00 00 00 00 
    b603:	c7 85 08 f1 ff ff 00 	movl   $0x0,-0xef8(%rbp)
    b60a:	00 00 00 
    b60d:	eb 1e                	jmp    b62d <func_57+0x9de>
    b60f:	8b 85 08 f1 ff ff    	mov    -0xef8(%rbp),%eax
    b615:	48 98                	cltq   
    b617:	48 8d 95 dc f0 ff ff 	lea    -0xf24(%rbp),%rdx
    b61e:	48 89 94 c5 80 f4 ff 	mov    %rdx,-0xb80(%rbp,%rax,8)
    b625:	ff 
    b626:	83 85 08 f1 ff ff 01 	addl   $0x1,-0xef8(%rbp)
    b62d:	83 bd 08 f1 ff ff 07 	cmpl   $0x7,-0xef8(%rbp)
    b634:	7e d9                	jle    b60f <func_57+0x9c0>
    b636:	c7 05 10 8a 00 00 00 	movl   $0x0,0x8a10(%rip)        # 14050 <g_126>
    b63d:	00 00 00 
    b640:	e9 2b 04 00 00       	jmpq   ba70 <func_57+0xe21>
    b645:	48 c7 85 90 f1 ff ff 	movq   $0x0,-0xe70(%rbp)
    b64c:	00 00 00 00 
    b650:	48 8d 85 20 fd ff ff 	lea    -0x2e0(%rbp),%rax
    b657:	48 8d 15 a2 52 00 00 	lea    0x52a2(%rip),%rdx        # 10900 <g_2039+0x8a0>
    b65e:	b9 54 00 00 00       	mov    $0x54,%ecx
    b663:	48 89 c7             	mov    %rax,%rdi
    b666:	48 89 d6             	mov    %rdx,%rsi
    b669:	f3 48 a5             	rep movsq %ds:(%rsi),%es:(%rdi)
    b66c:	c7 85 0c f1 ff ff dc 	movl   $0xc135cbdc,-0xef4(%rbp)
    b673:	cb 35 c1 
    b676:	c7 85 10 f1 ff ff 00 	movl   $0x0,-0xef0(%rbp)
    b67d:	00 00 00 
    b680:	eb 1e                	jmp    b6a0 <func_57+0xa51>
    b682:	8b 85 10 f1 ff ff    	mov    -0xef0(%rbp),%eax
    b688:	48 98                	cltq   
    b68a:	48 8d 15 c7 89 00 00 	lea    0x89c7(%rip),%rdx        # 14058 <g_128>
    b691:	48 89 94 c5 10 f4 ff 	mov    %rdx,-0xbf0(%rbp,%rax,8)
    b698:	ff 
    b699:	83 85 10 f1 ff ff 01 	addl   $0x1,-0xef0(%rbp)
    b6a0:	83 bd 10 f1 ff ff 00 	cmpl   $0x0,-0xef0(%rbp)
    b6a7:	7e d9                	jle    b682 <func_57+0xa33>
    b6a9:	c7 85 10 f1 ff ff 00 	movl   $0x0,-0xef0(%rbp)
    b6b0:	00 00 00 
    b6b3:	eb 1a                	jmp    b6cf <func_57+0xa80>
    b6b5:	8b 85 10 f1 ff ff    	mov    -0xef0(%rbp),%eax
    b6bb:	48 98                	cltq   
    b6bd:	c7 84 85 d0 f3 ff ff 	movl   $0xfffffffd,-0xc30(%rbp,%rax,4)
    b6c4:	fd ff ff ff 
    b6c8:	83 85 10 f1 ff ff 01 	addl   $0x1,-0xef0(%rbp)
    b6cf:	83 bd 10 f1 ff ff 00 	cmpl   $0x0,-0xef0(%rbp)
    b6d6:	7e dd                	jle    b6b5 <func_57+0xa66>
    b6d8:	66 83 bd d2 f0 ff ff 	cmpw   $0x0,-0xf2e(%rbp)
    b6df:	00 
    b6e0:	0f 85 9b 03 00 00    	jne    ba81 <func_57+0xe32>
    b6e6:	48 c7 05 af 8a 00 00 	movq   $0x2,0x8aaf(%rip)        # 141a0 <g_661>
    b6ed:	02 00 00 00 
    b6f1:	e9 5b 03 00 00       	jmpq   ba51 <func_57+0xe02>
    b6f6:	c7 85 4c f1 ff ff fb 	movl   $0xfffffffb,-0xeb4(%rbp)
    b6fd:	ff ff ff 
    b700:	c7 85 f0 f0 ff ff ff 	movl   $0xffffffff,-0xf10(%rbp)
    b707:	ff ff ff 
    b70a:	c7 85 14 f1 ff ff 00 	movl   $0x0,-0xeec(%rbp)
    b711:	00 00 00 
    b714:	eb 54                	jmp    b76a <func_57+0xb1b>
    b716:	c7 85 18 f1 ff ff 00 	movl   $0x0,-0xee8(%rbp)
    b71d:	00 00 00 
    b720:	eb 38                	jmp    b75a <func_57+0xb0b>
    b722:	8b 85 18 f1 ff ff    	mov    -0xee8(%rbp),%eax
    b728:	48 63 c8             	movslq %eax,%rcx
    b72b:	8b 85 14 f1 ff ff    	mov    -0xeec(%rbp),%eax
    b731:	48 63 d0             	movslq %eax,%rdx
    b734:	48 89 d0             	mov    %rdx,%rax
    b737:	48 c1 e0 02          	shl    $0x2,%rax
    b73b:	48 01 d0             	add    %rdx,%rax
    b73e:	48 01 c8             	add    %rcx,%rax
    b741:	48 bb 8e e0 f1 c4 94 	movabs $0xd7560094c4f1e08e,%rbx
    b748:	00 56 d7 
    b74b:	48 89 9c c5 c0 f4 ff 	mov    %rbx,-0xb40(%rbp,%rax,8)
    b752:	ff 
    b753:	83 85 18 f1 ff ff 01 	addl   $0x1,-0xee8(%rbp)
    b75a:	83 bd 18 f1 ff ff 04 	cmpl   $0x4,-0xee8(%rbp)
    b761:	7e bf                	jle    b722 <func_57+0xad3>
    b763:	83 85 14 f1 ff ff 01 	addl   $0x1,-0xeec(%rbp)
    b76a:	83 bd 14 f1 ff ff 01 	cmpl   $0x1,-0xeec(%rbp)
    b771:	7e a3                	jle    b716 <func_57+0xac7>
    b773:	48 8b 95 e8 f4 ff ff 	mov    -0xb18(%rbp),%rdx
    b77a:	0f be 85 bc f0 ff ff 	movsbl -0xf44(%rbp),%eax
    b781:	39 85 4c f1 ff ff    	cmp    %eax,-0xeb4(%rbp)
    b787:	0f 94 c0             	sete   %al
    b78a:	0f b6 c0             	movzbl %al,%eax
    b78d:	48 09 c2             	or     %rax,%rdx
    b790:	48 8b 05 f9 9c 00 00 	mov    0x9cf9(%rip),%rax        # 15490 <g_305>
    b797:	48 8b 00             	mov    (%rax),%rax
    b79a:	48 89 d6             	mov    %rdx,%rsi
    b79d:	48 89 c7             	mov    %rax,%rdi
    b7a0:	e8 52 a2 ff ff       	callq  59f7 <safe_div_func_int64_t_s_s>
    b7a5:	48 85 c0             	test   %rax,%rax
    b7a8:	0f 84 35 01 00 00    	je     b8e3 <func_57+0xc94>
    b7ae:	8b 05 5c 8a 00 00    	mov    0x8a5c(%rip),%eax        # 14210 <g_1096>
    b7b4:	0f be 85 bc f0 ff ff 	movsbl -0xf44(%rbp),%eax
    b7bb:	be 0c 00 00 00       	mov    $0xc,%esi
    b7c0:	89 c7                	mov    %eax,%edi
    b7c2:	e8 1a 9d ff ff       	callq  54e1 <safe_lshift_func_int16_t_s_u>
    b7c7:	66 39 85 da f0 ff ff 	cmp    %ax,-0xf26(%rbp)
    b7ce:	0f 8d 0f 01 00 00    	jge    b8e3 <func_57+0xc94>
    b7d4:	48 c7 85 98 f1 ff ff 	movq   $0x5,-0xe68(%rbp)
    b7db:	05 00 00 00 
    b7df:	48 c7 85 58 f3 ff ff 	movq   $0x0,-0xca8(%rbp)
    b7e6:	00 00 00 00 
    b7ea:	48 c7 85 60 f3 ff ff 	movq   $0x0,-0xca0(%rbp)
    b7f1:	00 00 00 00 
    b7f5:	48 8d 05 74 88 00 00 	lea    0x8874(%rip),%rax        # 14070 <g_146>
    b7fc:	48 89 85 68 f3 ff ff 	mov    %rax,-0xc98(%rbp)
    b803:	c7 85 1c f1 ff ff 00 	movl   $0x0,-0xee4(%rbp)
    b80a:	00 00 00 
    b80d:	eb 22                	jmp    b831 <func_57+0xbe2>
    b80f:	8b 85 1c f1 ff ff    	mov    -0xee4(%rbp),%eax
    b815:	48 98                	cltq   
    b817:	48 8d 95 40 f4 ff ff 	lea    -0xbc0(%rbp),%rdx
    b81e:	48 83 c2 27          	add    $0x27,%rdx
    b822:	48 89 94 c5 e0 f8 ff 	mov    %rdx,-0x720(%rbp,%rax,8)
    b829:	ff 
    b82a:	83 85 1c f1 ff ff 01 	addl   $0x1,-0xee4(%rbp)
    b831:	83 bd 1c f1 ff ff 01 	cmpl   $0x1,-0xee4(%rbp)
    b838:	7e d5                	jle    b80f <func_57+0xbc0>
    b83a:	0f be 9d bc f0 ff ff 	movsbl -0xf44(%rbp),%ebx
    b841:	8b 05 d9 89 00 00    	mov    0x89d9(%rip),%eax        # 14220 <g_1190>
    b847:	0f b6 05 27 88 00 00 	movzbl 0x8827(%rip),%eax        # 14075 <g_172+0x1>
    b84e:	83 c0 01             	add    $0x1,%eax
    b851:	88 05 1e 88 00 00    	mov    %al,0x881e(%rip)        # 14075 <g_172+0x1>
    b857:	8b 05 73 89 00 00    	mov    0x8973(%rip),%eax        # 141d0 <g_841>
    b85d:	41 89 c5             	mov    %eax,%r13d
    b860:	48 8b 85 a8 f0 ff ff 	mov    -0xf58(%rbp),%rax
    b867:	8b 00                	mov    (%rax),%eax
    b869:	89 c6                	mov    %eax,%esi
    b86b:	48 8b 85 68 f3 ff ff 	mov    -0xc98(%rbp),%rax
    b872:	8b 00                	mov    (%rax),%eax
    b874:	8d 48 01             	lea    0x1(%rax),%ecx
    b877:	48 8b 95 68 f3 ff ff 	mov    -0xc98(%rbp),%rdx
    b87e:	89 0a                	mov    %ecx,(%rdx)
    b880:	39 c6                	cmp    %eax,%esi
    b882:	0f 97 c0             	seta   %al
    b885:	44 0f b6 e0          	movzbl %al,%r12d
    b889:	0f be 95 bc f0 ff ff 	movsbl -0xf44(%rbp),%edx
    b890:	0f b7 85 da f0 ff ff 	movzwl -0xf26(%rbp),%eax
    b897:	0f be c0             	movsbl %al,%eax
    b89a:	89 d6                	mov    %edx,%esi
    b89c:	89 c7                	mov    %eax,%edi
    b89e:	e8 c7 99 ff ff       	callq  526a <safe_div_func_int8_t_s_s>
    b8a3:	0f be c0             	movsbl %al,%eax
    b8a6:	44 89 e2             	mov    %r12d,%edx
    b8a9:	21 c2                	and    %eax,%edx
    b8ab:	0f be 85 bc f0 ff ff 	movsbl -0xf44(%rbp),%eax
    b8b2:	39 c2                	cmp    %eax,%edx
    b8b4:	0f 9e c0             	setle  %al
    b8b7:	0f b6 c0             	movzbl %al,%eax
    b8ba:	44 89 ee             	mov    %r13d,%esi
    b8bd:	89 c7                	mov    %eax,%edi
    b8bf:	e8 f2 9c ff ff       	callq  55b6 <safe_add_func_int32_t_s_s>
    b8c4:	3d f9 ff 00 00       	cmp    $0xfff9,%eax
    b8c9:	89 de                	mov    %ebx,%esi
    b8cb:	bf fc ff ff ff       	mov    $0xfffffffc,%edi
    b8d0:	e8 60 9a ff ff       	callq  5335 <safe_rshift_func_int8_t_s_s>
    b8d5:	0f be c0             	movsbl %al,%eax
    b8d8:	89 85 ec f0 ff ff    	mov    %eax,-0xf14(%rbp)
    b8de:	e9 e8 00 00 00       	jmpq   b9cb <func_57+0xd7c>
    b8e3:	c7 85 50 f1 ff ff 1e 	movl   $0x6a35d21e,-0xeb0(%rbp)
    b8ea:	d2 35 6a 
    b8ed:	c7 85 54 f1 ff ff 84 	movl   $0x26924184,-0xeac(%rbp)
    b8f4:	41 92 26 
    b8f7:	48 8d 05 5e 87 00 00 	lea    0x875e(%rip),%rax        # 1405c <g_129>
    b8fe:	48 89 85 70 f3 ff ff 	mov    %rax,-0xc90(%rbp)
    b905:	48 8d 85 f0 f0 ff ff 	lea    -0xf10(%rbp),%rax
    b90c:	48 89 85 78 f3 ff ff 	mov    %rax,-0xc88(%rbp)
    b913:	48 8d 85 d0 f3 ff ff 	lea    -0xc30(%rbp),%rax
    b91a:	48 89 85 80 f3 ff ff 	mov    %rax,-0xc80(%rbp)
    b921:	48 c7 85 e0 f8 ff ff 	movq   $0x0,-0x720(%rbp)
    b928:	00 00 00 00 
    b92c:	48 c7 85 e8 f8 ff ff 	movq   $0x0,-0x718(%rbp)
    b933:	00 00 00 00 
    b937:	48 8d 85 68 f1 ff ff 	lea    -0xe98(%rbp),%rax
    b93e:	48 89 85 f0 f8 ff ff 	mov    %rax,-0x710(%rbp)
    b945:	48 8d 85 f0 f0 ff ff 	lea    -0xf10(%rbp),%rax
    b94c:	48 89 85 f8 f8 ff ff 	mov    %rax,-0x708(%rbp)
    b953:	48 8d 85 68 f1 ff ff 	lea    -0xe98(%rbp),%rax
    b95a:	48 89 85 00 f9 ff ff 	mov    %rax,-0x700(%rbp)
    b961:	48 c7 85 08 f9 ff ff 	movq   $0x0,-0x6f8(%rbp)
    b968:	00 00 00 00 
    b96c:	48 c7 85 10 f9 ff ff 	movq   $0x0,-0x6f0(%rbp)
    b973:	00 00 00 00 
    b977:	48 8d 85 68 f1 ff ff 	lea    -0xe98(%rbp),%rax
    b97e:	48 89 85 18 f9 ff ff 	mov    %rax,-0x6e8(%rbp)
    b985:	48 8d 85 f0 f0 ff ff 	lea    -0xf10(%rbp),%rax
    b98c:	48 89 85 20 f9 ff ff 	mov    %rax,-0x6e0(%rbp)
    b993:	48 8d 85 68 f1 ff ff 	lea    -0xe98(%rbp),%rax
    b99a:	48 89 85 28 f9 ff ff 	mov    %rax,-0x6d8(%rbp)
    b9a1:	48 8b 85 18 ff ff ff 	mov    -0xe8(%rbp),%rax
    b9a8:	48 83 c0 01          	add    $0x1,%rax
    b9ac:	48 89 85 18 ff ff ff 	mov    %rax,-0xe8(%rbp)
    b9b3:	48 8b 05 be a1 00 00 	mov    0xa1be(%rip),%rax        # 15b78 <g_1277>
    b9ba:	48 8d 95 e0 f0 ff ff 	lea    -0xf20(%rbp),%rdx
    b9c1:	48 89 10             	mov    %rdx,(%rax)
    b9c4:	83 85 0c f1 ff ff 01 	addl   $0x1,-0xef4(%rbp)
    b9cb:	48 8b 05 c6 a0 00 00 	mov    0xa0c6(%rip),%rax        # 15a98 <g_1003>
    b9d2:	0f b7 00             	movzwl (%rax),%eax
    b9d5:	98                   	cwtl   
    b9d6:	be 01 00 00 00       	mov    $0x1,%esi
    b9db:	89 c7                	mov    %eax,%edi
    b9dd:	e8 48 9b ff ff       	callq  552a <safe_rshift_func_int16_t_s_s>
    b9e2:	0f bf d0             	movswl %ax,%edx
    b9e5:	48 8b 85 b0 f1 ff ff 	mov    -0xe50(%rbp),%rax
    b9ec:	89 10                	mov    %edx,(%rax)
    b9ee:	c7 85 e0 f0 ff ff 00 	movl   $0x0,-0xf20(%rbp)
    b9f5:	00 00 00 
    b9f8:	eb 3a                	jmp    ba34 <func_57+0xde5>
    b9fa:	0f b7 85 d0 f0 ff ff 	movzwl -0xf30(%rbp),%eax
    ba01:	83 e8 01             	sub    $0x1,%eax
    ba04:	66 89 85 d0 f0 ff ff 	mov    %ax,-0xf30(%rbp)
    ba0b:	48 8b 85 60 f1 ff ff 	mov    -0xea0(%rbp),%rax
    ba12:	8b 00                	mov    (%rax),%eax
    ba14:	23 85 0c f1 ff ff    	and    -0xef4(%rbp),%eax
    ba1a:	89 c2                	mov    %eax,%edx
    ba1c:	48 8b 85 60 f1 ff ff 	mov    -0xea0(%rbp),%rax
    ba23:	89 10                	mov    %edx,(%rax)
    ba25:	8b 85 e0 f0 ff ff    	mov    -0xf20(%rbp),%eax
    ba2b:	83 c0 01             	add    $0x1,%eax
    ba2e:	89 85 e0 f0 ff ff    	mov    %eax,-0xf20(%rbp)
    ba34:	8b 85 e0 f0 ff ff    	mov    -0xf20(%rbp),%eax
    ba3a:	83 f8 02             	cmp    $0x2,%eax
    ba3d:	7e bb                	jle    b9fa <func_57+0xdab>
    ba3f:	48 8b 05 5a 87 00 00 	mov    0x875a(%rip),%rax        # 141a0 <g_661>
    ba46:	48 83 e8 01          	sub    $0x1,%rax
    ba4a:	48 89 05 4f 87 00 00 	mov    %rax,0x874f(%rip)        # 141a0 <g_661>
    ba51:	48 8b 05 48 87 00 00 	mov    0x8748(%rip),%rax        # 141a0 <g_661>
    ba58:	48 85 c0             	test   %rax,%rax
    ba5b:	0f 89 95 fc ff ff    	jns    b6f6 <func_57+0xaa7>
    ba61:	8b 05 e9 85 00 00    	mov    0x85e9(%rip),%eax        # 14050 <g_126>
    ba67:	83 c0 01             	add    $0x1,%eax
    ba6a:	89 05 e0 85 00 00    	mov    %eax,0x85e0(%rip)        # 14050 <g_126>
    ba70:	8b 05 da 85 00 00    	mov    0x85da(%rip),%eax        # 14050 <g_126>
    ba76:	83 f8 02             	cmp    $0x2,%eax
    ba79:	0f 86 c6 fb ff ff    	jbe    b645 <func_57+0x9f6>
    ba7f:	eb 01                	jmp    ba82 <func_57+0xe33>
    ba81:	90                   	nop
    ba82:	80 ad cd f0 ff ff 01 	subb   $0x1,-0xf33(%rbp)
    ba89:	c6 85 bc f0 ff ff e3 	movb   $0xe3,-0xf44(%rbp)
    ba90:	e9 3a 04 00 00       	jmpq   becf <func_57+0x1280>
    ba95:	48 b8 18 99 fc 62 02 	movabs $0xb564650262fc9918,%rax
    ba9c:	65 64 b5 
    ba9f:	48 89 85 88 f3 ff ff 	mov    %rax,-0xc78(%rbp)
    baa6:	48 8d 05 1b 86 00 00 	lea    0x861b(%rip),%rax        # 140c8 <g_216>
    baad:	48 89 85 98 f1 ff ff 	mov    %rax,-0xe68(%rbp)
    bab4:	48 8d 85 98 f1 ff ff 	lea    -0xe68(%rbp),%rax
    babb:	48 89 85 90 f3 ff ff 	mov    %rax,-0xc70(%rbp)
    bac2:	c7 85 20 f1 ff ff 00 	movl   $0x0,-0xee0(%rbp)
    bac9:	00 00 00 
    bacc:	83 ad fc f0 ff ff 01 	subl   $0x1,-0xf04(%rbp)
    bad3:	48 83 bd 88 f3 ff ff 	cmpq   $0x0,-0xc78(%rbp)
    bada:	00 
    badb:	0f 85 fd 03 00 00    	jne    bede <func_57+0x128f>
    bae1:	c6 05 48 aa 00 00 00 	movb   $0x0,0xaa48(%rip)        # 16530 <g_1132>
    bae8:	e9 ba 03 00 00       	jmpq   bea7 <func_57+0x1258>
    baed:	48 c7 85 98 f3 ff ff 	movq   $0x0,-0xc68(%rbp)
    baf4:	00 00 00 00 
    baf8:	c7 85 58 f1 ff ff 00 	movl   $0x0,-0xea8(%rbp)
    baff:	00 00 00 
    bb02:	0f be 85 bc f0 ff ff 	movsbl -0xf44(%rbp),%eax
    bb09:	89 c6                	mov    %eax,%esi
    bb0b:	bf 01 00 00 00       	mov    $0x1,%edi
    bb10:	e8 33 a3 ff ff       	callq  5e48 <safe_rshift_func_uint16_t_u_s>
    bb15:	66 85 c0             	test   %ax,%ax
    bb18:	0f 85 20 02 00 00    	jne    bd3e <func_57+0x10ef>
    bb1e:	c7 85 5c f1 ff ff 83 	movl   $0x6162f583,-0xea4(%rbp)
    bb25:	f5 62 61 
    bb28:	48 c7 85 a0 f3 ff ff 	movq   $0x0,-0xc60(%rbp)
    bb2f:	00 00 00 00 
    bb33:	48 8d 05 8e 85 00 00 	lea    0x858e(%rip),%rax        # 140c8 <g_216>
    bb3a:	48 89 85 a8 f3 ff ff 	mov    %rax,-0xc58(%rbp)
    bb41:	8b 05 f9 84 00 00    	mov    0x84f9(%rip),%eax        # 14040 <g_71>
    bb47:	85 c0                	test   %eax,%eax
    bb49:	74 05                	je     bb50 <func_57+0xf01>
    bb4b:	e9 32 ff ff ff       	jmpq   ba82 <func_57+0xe33>
    bb50:	8b 85 5c f1 ff ff    	mov    -0xea4(%rbp),%eax
    bb56:	0f b6 d8             	movzbl %al,%ebx
    bb59:	48 8b 05 30 99 00 00 	mov    0x9930(%rip),%rax        # 15490 <g_305>
    bb60:	48 8b 00             	mov    (%rax),%rax
    bb63:	48 85 c0             	test   %rax,%rax
    bb66:	0f 84 24 01 00 00    	je     bc90 <func_57+0x1041>
    bb6c:	83 bd 58 f1 ff ff 00 	cmpl   $0x0,-0xea8(%rbp)
    bb73:	0f 85 95 00 00 00    	jne    bc0e <func_57+0xfbf>
    bb79:	48 8b 85 a8 f0 ff ff 	mov    -0xf58(%rbp),%rax
    bb80:	8b 00                	mov    (%rax),%eax
    bb82:	48 98                	cltq   
    bb84:	25 09 a0 00 00       	and    $0xa009,%eax
    bb89:	48 0d 10 09 00 00    	or     $0x910,%rax
    bb8f:	48 89 c2             	mov    %rax,%rdx
    bb92:	48 0f be 85 bc f0 ff 	movsbq -0xf44(%rbp),%rax
    bb99:	ff 
    bb9a:	48 39 c2             	cmp    %rax,%rdx
    bb9d:	0f 9c c0             	setl   %al
    bba0:	0f b6 d0             	movzbl %al,%edx
    bba3:	48 8b 85 a8 f3 ff ff 	mov    -0xc58(%rbp),%rax
    bbaa:	48 8b 00             	mov    (%rax),%rax
    bbad:	48 8d 48 ff          	lea    -0x1(%rax),%rcx
    bbb1:	48 8b 85 a8 f3 ff ff 	mov    -0xc58(%rbp),%rax
    bbb8:	48 89 08             	mov    %rcx,(%rax)
    bbbb:	48 8b 85 a8 f3 ff ff 	mov    -0xc58(%rbp),%rax
    bbc2:	48 8b 08             	mov    (%rax),%rcx
    bbc5:	48 8b 05 b4 84 00 00 	mov    0x84b4(%rip),%rax        # 14080 <g_175>
    bbcc:	48 be b6 84 86 41 a6 	movabs $0xbd583a6418684b6,%rsi
    bbd3:	83 d5 0b 
    bbd6:	48 09 f0             	or     %rsi,%rax
    bbd9:	48 89 05 a0 84 00 00 	mov    %rax,0x84a0(%rip)        # 14080 <g_175>
    bbe0:	48 8b 05 99 84 00 00 	mov    0x8499(%rip),%rax        # 14080 <g_175>
    bbe7:	48 39 c1             	cmp    %rax,%rcx
    bbea:	0f 96 c0             	setbe  %al
    bbed:	0f b6 c0             	movzbl %al,%eax
    bbf0:	89 d6                	mov    %edx,%esi
    bbf2:	89 c7                	mov    %eax,%edi
    bbf4:	e8 94 a0 ff ff       	callq  5c8d <safe_rshift_func_uint8_t_u_s>
    bbf9:	0f b6 d0             	movzbl %al,%edx
    bbfc:	8b 85 58 f1 ff ff    	mov    -0xea8(%rbp),%eax
    bc02:	0f b6 c0             	movzbl %al,%eax
    bc05:	89 d6                	mov    %edx,%esi
    bc07:	89 c7                	mov    %eax,%edi
    bc09:	e8 cd 9f ff ff       	callq  5bdb <safe_div_func_uint8_t_u_u>
    bc0e:	b8 01 00 00 00       	mov    $0x1,%eax
    bc13:	48 63 d0             	movslq %eax,%rdx
    bc16:	48 8b 05 73 98 00 00 	mov    0x9873(%rip),%rax        # 15490 <g_305>
    bc1d:	48 8b 00             	mov    (%rax),%rax
    bc20:	48 21 c2             	and    %rax,%rdx
    bc23:	48 8b 05 5e 9e 00 00 	mov    0x9e5e(%rip),%rax        # 15a88 <g_927>
    bc2a:	0f b7 00             	movzwl (%rax),%eax
    bc2d:	0f b7 c0             	movzwl %ax,%eax
    bc30:	48 39 c2             	cmp    %rax,%rdx
    bc33:	0f 9c c0             	setl   %al
    bc36:	0f b6 d0             	movzbl %al,%edx
    bc39:	8b 05 b1 84 00 00    	mov    0x84b1(%rip),%eax        # 140f0 <g_385>
    bc3f:	39 c2                	cmp    %eax,%edx
    bc41:	0f 95 c0             	setne  %al
    bc44:	0f b6 c0             	movzbl %al,%eax
    bc47:	be 01 00 00 00       	mov    $0x1,%esi
    bc4c:	89 c7                	mov    %eax,%edi
    bc4e:	e8 17 96 ff ff       	callq  526a <safe_div_func_int8_t_s_s>
    bc53:	be 01 00 00 00       	mov    $0x1,%esi
    bc58:	bf 00 00 00 00       	mov    $0x0,%edi
    bc5d:	e8 b0 95 ff ff       	callq  5212 <safe_mul_func_int8_t_s_s>
    bc62:	84 c0                	test   %al,%al
    bc64:	74 10                	je     bc76 <func_57+0x1027>
    bc66:	80 bd bc f0 ff ff 00 	cmpb   $0x0,-0xf44(%rbp)
    bc6d:	74 07                	je     bc76 <func_57+0x1027>
    bc6f:	b8 01 00 00 00       	mov    $0x1,%eax
    bc74:	eb 05                	jmp    bc7b <func_57+0x102c>
    bc76:	b8 00 00 00 00       	mov    $0x0,%eax
    bc7b:	83 f8 ff             	cmp    $0xffffffff,%eax
    bc7e:	75 09                	jne    bc89 <func_57+0x103a>
    bc80:	80 bd bc f0 ff ff 00 	cmpb   $0x0,-0xf44(%rbp)
    bc87:	74 07                	je     bc90 <func_57+0x1041>
    bc89:	ba 01 00 00 00       	mov    $0x1,%edx
    bc8e:	eb 05                	jmp    bc95 <func_57+0x1046>
    bc90:	ba 00 00 00 00       	mov    $0x0,%edx
    bc95:	0f b7 05 a4 83 00 00 	movzwl 0x83a4(%rip),%eax        # 14040 <g_71>
    bc9c:	98                   	cwtl   
    bc9d:	39 c2                	cmp    %eax,%edx
    bc9f:	0f 9d c0             	setge  %al
    bca2:	0f b6 c0             	movzbl %al,%eax
    bca5:	39 85 58 f1 ff ff    	cmp    %eax,-0xea8(%rbp)
    bcab:	0f 96 c0             	setbe  %al
    bcae:	44 0f b6 e0          	movzbl %al,%r12d
    bcb2:	be 07 00 00 00       	mov    $0x7,%esi
    bcb7:	bf 00 00 00 00       	mov    $0x0,%edi
    bcbc:	e8 e0 95 ff ff       	callq  52a1 <safe_lshift_func_int8_t_s_s>
    bcc1:	0f be c0             	movsbl %al,%eax
    bcc4:	44 89 e6             	mov    %r12d,%esi
    bcc7:	89 c7                	mov    %eax,%edi
    bcc9:	e8 27 97 ff ff       	callq  53f5 <safe_mul_func_int16_t_s_s>
    bcce:	0f bf d0             	movswl %ax,%edx
    bcd1:	0f b6 05 89 5a 00 00 	movzbl 0x5a89(%rip),%eax        # 11761 <l_1344.4657+0xc1>
    bcd8:	0f b6 c0             	movzbl %al,%eax
    bcdb:	39 c2                	cmp    %eax,%edx
    bcdd:	0f 95 c0             	setne  %al
    bce0:	0f b6 d0             	movzbl %al,%edx
    bce3:	48 8b 05 a6 97 00 00 	mov    0x97a6(%rip),%rax        # 15490 <g_305>
    bcea:	48 8b 00             	mov    (%rax),%rax
    bced:	48 39 c2             	cmp    %rax,%rdx
    bcf0:	0f 94 c0             	sete   %al
    bcf3:	0f b6 c0             	movzbl %al,%eax
    bcf6:	89 de                	mov    %ebx,%esi
    bcf8:	89 c7                	mov    %eax,%edi
    bcfa:	e8 94 9e ff ff       	callq  5b93 <safe_mul_func_uint8_t_u_u>
    bcff:	0f b6 c0             	movzbl %al,%eax
    bd02:	be 00 00 00 00       	mov    $0x0,%esi
    bd07:	89 c7                	mov    %eax,%edi
    bd09:	e8 85 9e ff ff       	callq  5b93 <safe_mul_func_uint8_t_u_u>
    bd0e:	48 8b 85 a8 f0 ff ff 	mov    -0xf58(%rbp),%rax
    bd15:	8b 00                	mov    (%rax),%eax
    bd17:	83 c8 01             	or     $0x1,%eax
    bd1a:	0f b6 c0             	movzbl %al,%eax
    bd1d:	8b 95 58 f1 ff ff    	mov    -0xea8(%rbp),%edx
    bd23:	89 d6                	mov    %edx,%esi
    bd25:	89 c7                	mov    %eax,%edi
    bd27:	e8 20 9f ff ff       	callq  5c4c <safe_lshift_func_uint8_t_u_u>
    bd2c:	48 8b 85 20 f3 ff ff 	mov    -0xce0(%rbp),%rax
    bd33:	c7 00 07 00 00 00    	movl   $0x7,(%rax)
    bd39:	e9 80 00 00 00       	jmpq   bdbe <func_57+0x116f>
    bd3e:	c7 85 24 f1 ff ff 00 	movl   $0x0,-0xedc(%rbp)
    bd45:	00 00 00 
    bd48:	eb 1b                	jmp    bd65 <func_57+0x1116>
    bd4a:	8b 85 24 f1 ff ff    	mov    -0xedc(%rbp),%eax
    bd50:	48 98                	cltq   
    bd52:	48 c7 84 c5 20 fd ff 	movq   $0x0,-0x2e0(%rbp,%rax,8)
    bd59:	ff 00 00 00 00 
    bd5e:	83 85 24 f1 ff ff 01 	addl   $0x1,-0xedc(%rbp)
    bd65:	83 bd 24 f1 ff ff 03 	cmpl   $0x3,-0xedc(%rbp)
    bd6c:	7e dc                	jle    bd4a <func_57+0x10fb>
    bd6e:	8b 05 b4 84 00 00    	mov    0x84b4(%rip),%eax        # 14228 <g_1345>
    bd74:	48 8b 05 bd a7 00 00 	mov    0xa7bd(%rip),%rax        # 16538 <g_1346>
    bd7b:	48 89 85 90 f3 ff ff 	mov    %rax,-0xc70(%rbp)
    bd82:	48 83 bd 90 f3 ff ff 	cmpq   $0x0,-0xc70(%rbp)
    bd89:	00 
    bd8a:	0f 94 c2             	sete   %dl
    bd8d:	48 8b 85 98 f1 ff ff 	mov    -0xe68(%rbp),%rax
    bd94:	48 85 c0             	test   %rax,%rax
    bd97:	0f 95 c0             	setne  %al
    bd9a:	31 d0                	xor    %edx,%eax
    bd9c:	0f b6 c0             	movzbl %al,%eax
    bd9f:	89 85 20 f1 ff ff    	mov    %eax,-0xee0(%rbp)
    bda5:	48 8b 85 20 f3 ff ff 	mov    -0xce0(%rbp),%rax
    bdac:	8b 00                	mov    (%rax),%eax
    bdae:	25 2b 8f 85 0e       	and    $0xe858f2b,%eax
    bdb3:	89 c2                	mov    %eax,%edx
    bdb5:	48 8b 85 20 f3 ff ff 	mov    -0xce0(%rbp),%rax
    bdbc:	89 10                	mov    %edx,(%rax)
    bdbe:	c7 85 20 f1 ff ff 00 	movl   $0x0,-0xee0(%rbp)
    bdc5:	00 00 00 
    bdc8:	eb 41                	jmp    be0b <func_57+0x11bc>
    bdca:	48 8b 85 d0 f1 ff ff 	mov    -0xe30(%rbp),%rax
    bdd1:	48 89 85 50 f3 ff ff 	mov    %rax,-0xcb0(%rbp)
    bdd8:	8b 85 20 f1 ff ff    	mov    -0xee0(%rbp),%eax
    bdde:	8d 48 01             	lea    0x1(%rax),%ecx
    bde1:	8b 85 20 f1 ff ff    	mov    -0xee0(%rbp),%eax
    bde7:	48 63 d0             	movslq %eax,%rdx
    bdea:	48 63 c1             	movslq %ecx,%rax
    bded:	48 01 d0             	add    %rdx,%rax
    bdf0:	48 8d 14 85 00 00 00 	lea    0x0(,%rax,4),%rdx
    bdf7:	00 
    bdf8:	48 8d 05 e1 83 00 00 	lea    0x83e1(%rip),%rax        # 141e0 <g_1016>
    bdff:	8b 04 02             	mov    (%rdx,%rax,1),%eax
    be02:	85 c0                	test   %eax,%eax
    be04:	83 ad 20 f1 ff ff 01 	subl   $0x1,-0xee0(%rbp)
    be0b:	83 bd 20 f1 ff ff 00 	cmpl   $0x0,-0xee0(%rbp)
    be12:	79 b6                	jns    bdca <func_57+0x117b>
    be14:	83 ad 00 f1 ff ff 01 	subl   $0x1,-0xf00(%rbp)
    be1b:	83 bd 58 f1 ff ff 00 	cmpl   $0x0,-0xea8(%rbp)
    be22:	75 6f                	jne    be93 <func_57+0x1244>
    be24:	c7 05 3a 82 00 00 00 	movl   $0x0,0x823a(%rip)        # 14068 <g_143>
    be2b:	00 00 00 
    be2e:	eb 56                	jmp    be86 <func_57+0x1237>
    be30:	48 8b 05 49 9d 00 00 	mov    0x9d49(%rip),%rax        # 15b80 <g_1358>
    be37:	48 8b 95 a8 f0 ff ff 	mov    -0xf58(%rbp),%rdx
    be3e:	48 89 10             	mov    %rdx,(%rax)
    be41:	48 83 bd 88 f3 ff ff 	cmpq   $0x0,-0xc78(%rbp)
    be48:	00 
    be49:	75 4b                	jne    be96 <func_57+0x1247>
    be4b:	8b 95 88 f7 ff ff    	mov    -0x878(%rbp),%edx
    be51:	48 8b 85 20 f3 ff ff 	mov    -0xce0(%rbp),%rax
    be58:	89 10                	mov    %edx,(%rax)
    be5a:	48 8b 85 20 f3 ff ff 	mov    -0xce0(%rbp),%rax
    be61:	8b 10                	mov    (%rax),%edx
    be63:	48 8b 85 40 f3 ff ff 	mov    -0xcc0(%rbp),%rax
    be6a:	8b 00                	mov    (%rax),%eax
    be6c:	31 c2                	xor    %eax,%edx
    be6e:	48 8b 85 40 f3 ff ff 	mov    -0xcc0(%rbp),%rax
    be75:	89 10                	mov    %edx,(%rax)
    be77:	8b 05 eb 81 00 00    	mov    0x81eb(%rip),%eax        # 14068 <g_143>
    be7d:	83 c0 01             	add    $0x1,%eax
    be80:	89 05 e2 81 00 00    	mov    %eax,0x81e2(%rip)        # 14068 <g_143>
    be86:	8b 05 dc 81 00 00    	mov    0x81dc(%rip),%eax        # 14068 <g_143>
    be8c:	83 f8 01             	cmp    $0x1,%eax
    be8f:	76 9f                	jbe    be30 <func_57+0x11e1>
    be91:	eb 04                	jmp    be97 <func_57+0x1248>
    be93:	90                   	nop
    be94:	eb 01                	jmp    be97 <func_57+0x1248>
    be96:	90                   	nop
    be97:	0f b6 05 92 a6 00 00 	movzbl 0xa692(%rip),%eax        # 16530 <g_1132>
    be9e:	83 c0 01             	add    $0x1,%eax
    bea1:	88 05 89 a6 00 00    	mov    %al,0xa689(%rip)        # 16530 <g_1132>
    bea7:	0f b6 05 82 a6 00 00 	movzbl 0xa682(%rip),%eax        # 16530 <g_1132>
    beae:	3c 01                	cmp    $0x1,%al
    beb0:	0f 8e 37 fc ff ff    	jle    baed <func_57+0xe9e>
    beb6:	0f be 85 bc f0 ff ff 	movsbl -0xf44(%rbp),%eax
    bebd:	be 04 00 00 00       	mov    $0x4,%esi
    bec2:	89 c7                	mov    %eax,%edi
    bec4:	e8 ed 96 ff ff       	callq  55b6 <safe_add_func_int32_t_s_s>
    bec9:	88 85 bc f0 ff ff    	mov    %al,-0xf44(%rbp)
    becf:	80 bd bc f0 ff ff 0b 	cmpb   $0xb,-0xf44(%rbp)
    bed6:	0f 8e b9 fb ff ff    	jle    ba95 <func_57+0xe46>
    bedc:	eb 01                	jmp    bedf <func_57+0x1290>
    bede:	90                   	nop
    bedf:	8b 85 88 f7 ff ff    	mov    -0x878(%rbp),%eax
    bee5:	89 c6                	mov    %eax,%esi
    bee7:	bf 55 6b b3 59       	mov    $0x59b36b55,%edi
    beec:	e8 14 97 ff ff       	callq  5605 <safe_sub_func_int32_t_s_s>
    bef1:	48 8b 95 28 f3 ff ff 	mov    -0xcd8(%rbp),%rdx
    bef8:	89 02                	mov    %eax,(%rdx)
    befa:	e9 fa 0d 00 00       	jmpq   ccf9 <func_57+0x20aa>
    beff:	66 c7 85 90 f1 ff ff 	movw   $0x0,-0xe70(%rbp)
    bf06:	00 00 
    bf08:	66 c7 85 d4 f0 ff ff 	movw   $0xcd89,-0xf2c(%rbp)
    bf0f:	89 cd 
    bf11:	48 8d 85 e0 f8 ff ff 	lea    -0x720(%rbp),%rax
    bf18:	48 8d 15 81 4c 00 00 	lea    0x4c81(%rip),%rdx        # 10ba0 <g_2039+0xb40>
    bf1f:	b9 36 00 00 00       	mov    $0x36,%ecx
    bf24:	48 89 c7             	mov    %rax,%rdi
    bf27:	48 89 d6             	mov    %rdx,%rsi
    bf2a:	f3 48 a5             	rep movsq %ds:(%rsi),%es:(%rdi)
    bf2d:	c7 85 38 f1 ff ff fb 	movl   $0xfffffffb,-0xec8(%rbp)
    bf34:	ff ff ff 
    bf37:	48 c7 85 38 f2 ff ff 	movq   $0x0,-0xdc8(%rbp)
    bf3e:	00 00 00 00 
    bf42:	c7 85 3c f1 ff ff ff 	movl   $0xffffffff,-0xec4(%rbp)
    bf49:	ff ff ff 
    bf4c:	c7 85 28 f1 ff ff 00 	movl   $0x0,-0xed8(%rbp)
    bf53:	00 00 00 
    bf56:	eb 74                	jmp    bfcc <func_57+0x137d>
    bf58:	c7 85 2c f1 ff ff 00 	movl   $0x0,-0xed4(%rbp)
    bf5f:	00 00 00 
    bf62:	eb 58                	jmp    bfbc <func_57+0x136d>
    bf64:	c7 85 30 f1 ff ff 00 	movl   $0x0,-0xed0(%rbp)
    bf6b:	00 00 00 
    bf6e:	eb 3c                	jmp    bfac <func_57+0x135d>
    bf70:	8b 85 30 f1 ff ff    	mov    -0xed0(%rbp),%eax
    bf76:	48 63 c8             	movslq %eax,%rcx
    bf79:	8b 85 28 f1 ff ff    	mov    -0xed8(%rbp),%eax
    bf7f:	48 63 d0             	movslq %eax,%rdx
    bf82:	8b 85 2c f1 ff ff    	mov    -0xed4(%rbp),%eax
    bf88:	48 98                	cltq   
    bf8a:	48 01 c2             	add    %rax,%rdx
    bf8d:	48 89 d0             	mov    %rdx,%rax
    bf90:	48 c1 e0 03          	shl    $0x3,%rax
    bf94:	48 29 d0             	sub    %rdx,%rax
    bf97:	48 01 c8             	add    %rcx,%rax
    bf9a:	c7 84 85 80 f4 ff ff 	movl   $0x4c344066,-0xb80(%rbp,%rax,4)
    bfa1:	66 40 34 4c 
    bfa5:	83 85 30 f1 ff ff 01 	addl   $0x1,-0xed0(%rbp)
    bfac:	83 bd 30 f1 ff ff 06 	cmpl   $0x6,-0xed0(%rbp)
    bfb3:	7e bb                	jle    bf70 <func_57+0x1321>
    bfb5:	83 85 2c f1 ff ff 01 	addl   $0x1,-0xed4(%rbp)
    bfbc:	83 bd 2c f1 ff ff 00 	cmpl   $0x0,-0xed4(%rbp)
    bfc3:	7e 9f                	jle    bf64 <func_57+0x1315>
    bfc5:	83 85 28 f1 ff ff 01 	addl   $0x1,-0xed8(%rbp)
    bfcc:	83 bd 28 f1 ff ff 01 	cmpl   $0x1,-0xed8(%rbp)
    bfd3:	7e 83                	jle    bf58 <func_57+0x1309>
    bfd5:	48 83 bd a0 f1 ff ff 	cmpq   $0x0,-0xe60(%rbp)
    bfdc:	00 
    bfdd:	0f 94 c0             	sete   %al
    bfe0:	0f b6 d0             	movzbl %al,%edx
    bfe3:	48 8b 85 b0 f1 ff ff 	mov    -0xe50(%rbp),%rax
    bfea:	89 10                	mov    %edx,(%rax)
    bfec:	48 8b 85 a8 f0 ff ff 	mov    -0xf58(%rbp),%rax
    bff3:	c7 00 97 54 c9 3d    	movl   $0x3dc95497,(%rax)
    bff9:	8b 85 88 f7 ff ff    	mov    -0x878(%rbp),%eax
    bfff:	83 f8 01             	cmp    $0x1,%eax
    c002:	0f 85 fb 00 00 00    	jne    c103 <func_57+0x14b4>
    c008:	0f be 9d bc f0 ff ff 	movsbl -0xf44(%rbp),%ebx
    c00f:	48 8b 85 60 f1 ff ff 	mov    -0xea0(%rbp),%rax
    c016:	8b 00                	mov    (%rax),%eax
    c018:	89 c2                	mov    %eax,%edx
    c01a:	66 0f be 85 bc f0 ff 	movsbw -0xf44(%rbp),%ax
    c021:	ff 
    c022:	0f b7 c0             	movzwl %ax,%eax
    c025:	89 d6                	mov    %edx,%esi
    c027:	89 c7                	mov    %eax,%edi
    c029:	e8 4c 9e ff ff       	callq  5e7a <safe_rshift_func_uint16_t_u_u>
    c02e:	98                   	cwtl   
    c02f:	89 de                	mov    %ebx,%esi
    c031:	89 c7                	mov    %eax,%edi
    c033:	e8 9b 93 ff ff       	callq  53d3 <safe_sub_func_int16_t_s_s>
    c038:	0f be 95 bc f0 ff ff 	movsbl -0xf44(%rbp),%edx
    c03f:	0f bf 85 d4 f0 ff ff 	movswl -0xf2c(%rbp),%eax
    c046:	39 c2                	cmp    %eax,%edx
    c048:	0f 95 c0             	setne  %al
    c04b:	0f b6 d0             	movzbl %al,%edx
    c04e:	48 8b 05 3b 9a 00 00 	mov    0x9a3b(%rip),%rax        # 15a90 <g_926>
    c055:	48 8b 00             	mov    (%rax),%rax
    c058:	0f b7 08             	movzwl (%rax),%ecx
    c05b:	83 e9 01             	sub    $0x1,%ecx
    c05e:	66 89 08             	mov    %cx,(%rax)
    c061:	0f b7 00             	movzwl (%rax),%eax
    c064:	32 85 bc f0 ff ff    	xor    -0xf44(%rbp),%al
    c06a:	0f b6 c0             	movzbl %al,%eax
    c06d:	89 d6                	mov    %edx,%esi
    c06f:	89 c7                	mov    %eax,%edi
    c071:	e8 48 9c ff ff       	callq  5cbe <safe_rshift_func_uint8_t_u_u>
    c076:	0f b6 d0             	movzbl %al,%edx
    c079:	0f b7 85 90 f1 ff ff 	movzwl -0xe70(%rbp),%eax
    c080:	66 39 c2             	cmp    %ax,%dx
    c083:	0f 95 c0             	setne  %al
    c086:	0f b6 d0             	movzbl %al,%edx
    c089:	0f be 85 bc f0 ff ff 	movsbl -0xf44(%rbp),%eax
    c090:	39 c2                	cmp    %eax,%edx
    c092:	0f 9f c0             	setg   %al
    c095:	0f b6 d0             	movzbl %al,%edx
    c098:	48 8b 85 a8 f0 ff ff 	mov    -0xf58(%rbp),%rax
    c09f:	8b 00                	mov    (%rax),%eax
    c0a1:	21 c2                	and    %eax,%edx
    c0a3:	48 8b 85 a8 f0 ff ff 	mov    -0xf58(%rbp),%rax
    c0aa:	89 10                	mov    %edx,(%rax)
    c0ac:	48 8b 85 a8 f0 ff ff 	mov    -0xf58(%rbp),%rax
    c0b3:	8b 00                	mov    (%rax),%eax
    c0b5:	83 f8 f7             	cmp    $0xfffffff7,%eax
    c0b8:	0f 94 c0             	sete   %al
    c0bb:	0f b6 c0             	movzbl %al,%eax
    c0be:	be 43 69 00 00       	mov    $0x6943,%esi
    c0c3:	89 c7                	mov    %eax,%edi
    c0c5:	e8 73 9c ff ff       	callq  5d3d <safe_mul_func_uint16_t_u_u>
    c0ca:	66 85 c0             	test   %ax,%ax
    c0cd:	74 11                	je     c0e0 <func_57+0x1491>
    c0cf:	8b 05 57 81 00 00    	mov    0x8157(%rip),%eax        # 1422c <g_1376>
    c0d5:	85 c0                	test   %eax,%eax
    c0d7:	74 07                	je     c0e0 <func_57+0x1491>
    c0d9:	ba 01 00 00 00       	mov    $0x1,%edx
    c0de:	eb 05                	jmp    c0e5 <func_57+0x1496>
    c0e0:	ba 00 00 00 00       	mov    $0x0,%edx
    c0e5:	48 8b 05 b4 99 00 00 	mov    0x99b4(%rip),%rax        # 15aa0 <g_1002>
    c0ec:	48 8b 00             	mov    (%rax),%rax
    c0ef:	0f b7 00             	movzwl (%rax),%eax
    c0f2:	98                   	cwtl   
    c0f3:	21 c2                	and    %eax,%edx
    c0f5:	0f b7 85 90 f1 ff ff 	movzwl -0xe70(%rbp),%eax
    c0fc:	0f b7 c0             	movzwl %ax,%eax
    c0ff:	39 c2                	cmp    %eax,%edx
    c101:	7c 07                	jl     c10a <func_57+0x14bb>
    c103:	b8 01 00 00 00       	mov    $0x1,%eax
    c108:	eb 05                	jmp    c10f <func_57+0x14c0>
    c10a:	b8 00 00 00 00       	mov    $0x0,%eax
    c10f:	48 63 d0             	movslq %eax,%rdx
    c112:	48 8b 85 60 f1 ff ff 	mov    -0xea0(%rbp),%rax
    c119:	8b 00                	mov    (%rax),%eax
    c11b:	48 98                	cltq   
    c11d:	48 89 d6             	mov    %rdx,%rsi
    c120:	48 89 c7             	mov    %rax,%rdi
    c123:	e8 8c 98 ff ff       	callq  59b4 <safe_mod_func_int64_t_s_s>
    c128:	89 c2                	mov    %eax,%edx
    c12a:	48 8b 85 b0 f1 ff ff 	mov    -0xe50(%rbp),%rax
    c131:	89 10                	mov    %edx,(%rax)
    c133:	48 8b 85 b0 f1 ff ff 	mov    -0xe50(%rbp),%rax
    c13a:	8b 00                	mov    (%rax),%eax
    c13c:	85 c0                	test   %eax,%eax
    c13e:	0f 84 5a 03 00 00    	je     c49e <func_57+0x184f>
    c144:	48 8d 05 f5 7e 00 00 	lea    0x7ef5(%rip),%rax        # 14040 <g_71>
    c14b:	48 89 85 e8 f2 ff ff 	mov    %rax,-0xd18(%rbp)
    c152:	48 c7 85 f0 f2 ff ff 	movq   $0x7,-0xd10(%rbp)
    c159:	07 00 00 00 
    c15d:	66 c7 85 d6 f0 ff ff 	movw   $0xa8e7,-0xf2a(%rbp)
    c164:	e7 a8 
    c166:	66 c7 85 d8 f0 ff ff 	movw   $0xfffc,-0xf28(%rbp)
    c16d:	fc ff 
    c16f:	c7 85 f4 f0 ff ff 00 	movl   $0x0,-0xf0c(%rbp)
    c176:	00 00 00 
    c179:	eb 22                	jmp    c19d <func_57+0x154e>
    c17b:	8b 85 f4 f0 ff ff    	mov    -0xf0c(%rbp),%eax
    c181:	48 98                	cltq   
    c183:	48 8d 95 80 f4 ff ff 	lea    -0xb80(%rbp),%rdx
    c18a:	48 83 c2 1c          	add    $0x1c,%rdx
    c18e:	48 89 94 c5 c0 f4 ff 	mov    %rdx,-0xb40(%rbp,%rax,8)
    c195:	ff 
    c196:	83 85 f4 f0 ff ff 01 	addl   $0x1,-0xf0c(%rbp)
    c19d:	83 bd f4 f0 ff ff 01 	cmpl   $0x1,-0xf0c(%rbp)
    c1a4:	7e d5                	jle    c17b <func_57+0x152c>
    c1a6:	48 83 85 f0 f2 ff ff 	addq   $0x1,-0xd10(%rbp)
    c1ad:	01 
    c1ae:	48 c7 85 a0 f1 ff ff 	movq   $0x0,-0xe60(%rbp)
    c1b5:	00 00 00 00 
    c1b9:	e9 cd 02 00 00       	jmpq   c48b <func_57+0x183c>
    c1be:	48 b8 4c f0 41 a6 40 	movabs $0x1eab9a40a641f04c,%rax
    c1c5:	9a ab 1e 
    c1c8:	48 89 85 f8 f2 ff ff 	mov    %rax,-0xd08(%rbp)
    c1cf:	48 8d 05 aa 7e 00 00 	lea    0x7eaa(%rip),%rax        # 14080 <g_175>
    c1d6:	48 89 85 00 f3 ff ff 	mov    %rax,-0xd00(%rbp)
    c1dd:	48 b8 2a 9c bd ea 7e 	movabs $0x3a1f147eeabd9c2a,%rax
    c1e4:	14 1f 3a 
    c1e7:	48 89 85 08 f3 ff ff 	mov    %rax,-0xcf8(%rbp)
    c1ee:	48 8b 05 4b 7e 00 00 	mov    0x7e4b(%rip),%rax        # 14040 <g_71>
    c1f5:	f7 d0                	not    %eax
    c1f7:	89 c2                	mov    %eax,%edx
    c1f9:	48 8b 85 a8 f0 ff ff 	mov    -0xf58(%rbp),%rax
    c200:	89 10                	mov    %edx,(%rax)
    c202:	48 8b 05 7f 99 00 00 	mov    0x997f(%rip),%rax        # 15b88 <g_1383>
    c209:	48 8b 95 a8 f0 ff ff 	mov    -0xf58(%rbp),%rdx
    c210:	48 89 10             	mov    %rdx,(%rax)
    c213:	0f b6 85 d8 f9 ff ff 	movzbl -0x628(%rbp),%eax
    c21a:	0f b6 d8             	movzbl %al,%ebx
    c21d:	0f b7 85 90 f1 ff ff 	movzwl -0xe70(%rbp),%eax
    c224:	44 0f bf e0          	movswl %ax,%r12d
    c228:	0f b7 95 d6 f0 ff ff 	movzwl -0xf2a(%rbp),%edx
    c22f:	48 8b 85 b0 f1 ff ff 	mov    -0xe50(%rbp),%rax
    c236:	89 10                	mov    %edx,(%rax)
    c238:	48 8b 85 b0 f1 ff ff 	mov    -0xe50(%rbp),%rax
    c23f:	8b 00                	mov    (%rax),%eax
    c241:	85 c0                	test   %eax,%eax
    c243:	0f 84 10 01 00 00    	je     c359 <func_57+0x170a>
    c249:	48 8b 05 30 98 00 00 	mov    0x9830(%rip),%rax        # 15a80 <g_874>
    c250:	8b 00                	mov    (%rax),%eax
    c252:	41 89 c6             	mov    %eax,%r14d
    c255:	48 8b 85 60 f1 ff ff 	mov    -0xea0(%rbp),%rax
    c25c:	8b 00                	mov    (%rax),%eax
    c25e:	44 0f be e8          	movsbl %al,%r13d
    c262:	48 8b 05 6f 8f 00 00 	mov    0x8f6f(%rip),%rax        # 151d8 <g_239>
    c269:	0f b7 10             	movzwl (%rax),%edx
    c26c:	0f b7 05 a3 7f 00 00 	movzwl 0x7fa3(%rip),%eax        # 14216 <g_1144>
    c273:	31 d0                	xor    %edx,%eax
    c275:	66 89 05 9a 7f 00 00 	mov    %ax,0x7f9a(%rip)        # 14216 <g_1144>
    c27c:	0f b7 05 93 7f 00 00 	movzwl 0x7f93(%rip),%eax        # 14216 <g_1144>
    c283:	0f bf d0             	movswl %ax,%edx
    c286:	48 8b 05 fb 97 00 00 	mov    0x97fb(%rip),%rax        # 15a88 <g_927>
    c28d:	0f b7 00             	movzwl (%rax),%eax
    c290:	0f b7 c0             	movzwl %ax,%eax
    c293:	89 d1                	mov    %edx,%ecx
    c295:	31 c1                	xor    %eax,%ecx
    c297:	48 0f be 95 bc f0 ff 	movsbq -0xf44(%rbp),%rdx
    c29e:	ff 
    c29f:	48 8b 05 ea 91 00 00 	mov    0x91ea(%rip),%rax        # 15490 <g_305>
    c2a6:	48 8b 00             	mov    (%rax),%rax
    c2a9:	48 39 c2             	cmp    %rax,%rdx
    c2ac:	0f 9f c0             	setg   %al
    c2af:	0f b6 c0             	movzbl %al,%eax
    c2b2:	31 c1                	xor    %eax,%ecx
    c2b4:	48 8b 85 00 f3 ff ff 	mov    -0xd00(%rbp),%rax
    c2bb:	48 8b 10             	mov    (%rax),%rdx
    c2be:	48 63 c1             	movslq %ecx,%rax
    c2c1:	48 21 c2             	and    %rax,%rdx
    c2c4:	48 8b 85 00 f3 ff ff 	mov    -0xd00(%rbp),%rax
    c2cb:	48 89 10             	mov    %rdx,(%rax)
    c2ce:	48 8b 85 00 f3 ff ff 	mov    -0xd00(%rbp),%rax
    c2d5:	48 8b 00             	mov    (%rax),%rax
    c2d8:	48 89 c2             	mov    %rax,%rdx
    c2db:	48 8b 85 f8 f2 ff ff 	mov    -0xd08(%rbp),%rax
    c2e2:	48 89 d6             	mov    %rdx,%rsi
    c2e5:	48 89 c7             	mov    %rax,%rdi
    c2e8:	e8 0a 97 ff ff       	callq  59f7 <safe_div_func_int64_t_s_s>
    c2ed:	89 c2                	mov    %eax,%edx
    c2ef:	66 0f be 85 bc f0 ff 	movsbw -0xf44(%rbp),%ax
    c2f6:	ff 
    c2f7:	09 d0                	or     %edx,%eax
    c2f9:	0f bf d0             	movswl %ax,%edx
    c2fc:	0f be 85 bc f0 ff ff 	movsbl -0xf44(%rbp),%eax
    c303:	89 d6                	mov    %edx,%esi
    c305:	89 c7                	mov    %eax,%edi
    c307:	e8 e9 90 ff ff       	callq  53f5 <safe_mul_func_int16_t_s_s>
    c30c:	66 85 c0             	test   %ax,%ax
    c30f:	74 07                	je     c318 <func_57+0x16c9>
    c311:	b8 01 00 00 00       	mov    $0x1,%eax
    c316:	eb 05                	jmp    c31d <func_57+0x16ce>
    c318:	b8 00 00 00 00       	mov    $0x0,%eax
    c31d:	0f be c0             	movsbl %al,%eax
    c320:	44 89 ee             	mov    %r13d,%esi
    c323:	89 c7                	mov    %eax,%edi
    c325:	e8 40 8f ff ff       	callq  526a <safe_div_func_int8_t_s_s>
    c32a:	44 89 f6             	mov    %r14d,%esi
    c32d:	bf 00 00 00 00       	mov    $0x0,%edi
    c332:	e8 ee 9b ff ff       	callq  5f25 <safe_div_func_uint32_t_u_u>
    c337:	0f be 95 bc f0 ff ff 	movsbl -0xf44(%rbp),%edx
    c33e:	39 d0                	cmp    %edx,%eax
    c340:	0f 93 c0             	setae  %al
    c343:	0f b6 d0             	movzbl %al,%edx
    c346:	b8 ff ff ff ff       	mov    $0xffffffff,%eax
    c34b:	0f be c0             	movsbl %al,%eax
    c34e:	39 c2                	cmp    %eax,%edx
    c350:	74 07                	je     c359 <func_57+0x170a>
    c352:	b8 01 00 00 00       	mov    $0x1,%eax
    c357:	eb 05                	jmp    c35e <func_57+0x170f>
    c359:	b8 00 00 00 00       	mov    $0x0,%eax
    c35e:	83 f8 08             	cmp    $0x8,%eax
    c361:	0f 9f c0             	setg   %al
    c364:	0f b6 c0             	movzbl %al,%eax
    c367:	44 89 e6             	mov    %r12d,%esi
    c36a:	89 c7                	mov    %eax,%edi
    c36c:	e8 62 90 ff ff       	callq  53d3 <safe_sub_func_int16_t_s_s>
    c371:	0f b6 c0             	movzbl %al,%eax
    c374:	89 de                	mov    %ebx,%esi
    c376:	89 c7                	mov    %eax,%edi
    c378:	e8 16 98 ff ff       	callq  5b93 <safe_mul_func_uint8_t_u_u>
    c37d:	48 8b 85 a8 f0 ff ff 	mov    -0xf58(%rbp),%rax
    c384:	c7 00 01 00 00 00    	movl   $0x1,(%rax)
    c38a:	c6 85 98 f1 ff ff ab 	movb   $0xab,-0xe68(%rbp)
    c391:	48 8d 05 98 a1 00 00 	lea    0xa198(%rip),%rax        # 16530 <g_1132>
    c398:	48 89 85 20 fd ff ff 	mov    %rax,-0x2e0(%rbp)
    c39f:	48 c7 85 28 fd ff ff 	movq   $0x0,-0x2d8(%rbp)
    c3a6:	00 00 00 00 
    c3aa:	48 8d 05 7f a1 00 00 	lea    0xa17f(%rip),%rax        # 16530 <g_1132>
    c3b1:	48 89 85 30 fd ff ff 	mov    %rax,-0x2d0(%rbp)
    c3b8:	48 c7 85 38 fd ff ff 	movq   $0x0,-0x2c8(%rbp)
    c3bf:	00 00 00 00 
    c3c3:	48 8d 05 66 a1 00 00 	lea    0xa166(%rip),%rax        # 16530 <g_1132>
    c3ca:	48 89 85 40 fd ff ff 	mov    %rax,-0x2c0(%rbp)
    c3d1:	48 c7 85 48 fd ff ff 	movq   $0x0,-0x2b8(%rbp)
    c3d8:	00 00 00 00 
    c3dc:	48 8d 05 4d a1 00 00 	lea    0xa14d(%rip),%rax        # 16530 <g_1132>
    c3e3:	48 89 85 50 fd ff ff 	mov    %rax,-0x2b0(%rbp)
    c3ea:	48 c7 85 58 fd ff ff 	movq   $0x0,-0x2a8(%rbp)
    c3f1:	00 00 00 00 
    c3f5:	48 8d 05 34 a1 00 00 	lea    0xa134(%rip),%rax        # 16530 <g_1132>
    c3fc:	48 89 85 60 fd ff ff 	mov    %rax,-0x2a0(%rbp)
    c403:	48 8d 85 98 f1 ff ff 	lea    -0xe68(%rbp),%rax
    c40a:	48 89 85 10 f3 ff ff 	mov    %rax,-0xcf0(%rbp)
    c411:	0f be 85 bc f0 ff ff 	movsbl -0xf44(%rbp),%eax
    c418:	89 c6                	mov    %eax,%esi
    c41a:	bf 6a 00 00 00       	mov    $0x6a,%edi
    c41f:	e8 69 98 ff ff       	callq  5c8d <safe_rshift_func_uint8_t_u_s>
    c424:	48 8b 95 10 f3 ff ff 	mov    -0xcf0(%rbp),%rdx
    c42b:	88 02                	mov    %al,(%rdx)
    c42d:	48 8b 85 10 f3 ff ff 	mov    -0xcf0(%rbp),%rax
    c434:	0f b6 00             	movzbl (%rax),%eax
    c437:	0f b6 d0             	movzbl %al,%edx
    c43a:	48 8b 85 60 f1 ff ff 	mov    -0xea0(%rbp),%rax
    c441:	8b 00                	mov    (%rax),%eax
    c443:	89 d1                	mov    %edx,%ecx
    c445:	21 c1                	and    %eax,%ecx
    c447:	48 8d 05 e2 a0 00 00 	lea    0xa0e2(%rip),%rax        # 16530 <g_1132>
    c44e:	0f b6 10             	movzbl (%rax),%edx
    c451:	48 8d 05 d8 a0 00 00 	lea    0xa0d8(%rip),%rax        # 16530 <g_1132>
    c458:	31 ca                	xor    %ecx,%edx
    c45a:	88 10                	mov    %dl,(%rax)
    c45c:	0f b6 10             	movzbl (%rax),%edx
    c45f:	48 8b 85 a8 f1 ff ff 	mov    -0xe58(%rbp),%rax
    c466:	88 10                	mov    %dl,(%rax)
    c468:	48 c7 c2 fc ff ff ff 	mov    $0xfffffffffffffffc,%rdx
    c46f:	48 8b 85 a8 f0 ff ff 	mov    -0xf58(%rbp),%rax
    c476:	8b 00                	mov    (%rax),%eax
    c478:	21 c2                	and    %eax,%edx
    c47a:	48 8b 85 a8 f0 ff ff 	mov    -0xf58(%rbp),%rax
    c481:	89 10                	mov    %edx,(%rax)
    c483:	48 83 85 a0 f1 ff ff 	addq   $0x1,-0xe60(%rbp)
    c48a:	01 
    c48b:	48 83 bd a0 f1 ff ff 	cmpq   $0x3,-0xe60(%rbp)
    c492:	03 
    c493:	0f 86 25 fd ff ff    	jbe    c1be <func_57+0x156f>
    c499:	e9 5b 08 00 00       	jmpq   ccf9 <func_57+0x20aa>
    c49e:	48 8d 05 b7 7b 00 00 	lea    0x7bb7(%rip),%rax        # 1405c <g_129>
    c4a5:	48 89 85 40 f2 ff ff 	mov    %rax,-0xdc0(%rbp)
    c4ac:	48 c7 85 48 f2 ff ff 	movq   $0x0,-0xdb8(%rbp)
    c4b3:	00 00 00 00 
    c4b7:	48 8d 85 30 f7 ff ff 	lea    -0x8d0(%rbp),%rax
    c4be:	48 83 c0 58          	add    $0x58,%rax
    c4c2:	48 89 85 50 f2 ff ff 	mov    %rax,-0xdb0(%rbp)
    c4c9:	48 8d 85 e4 f0 ff ff 	lea    -0xf1c(%rbp),%rax
    c4d0:	48 89 85 98 f1 ff ff 	mov    %rax,-0xe68(%rbp)
    c4d7:	48 8d 85 e0 f8 ff ff 	lea    -0x720(%rbp),%rax
    c4de:	48 05 f8 00 00 00    	add    $0xf8,%rax
    c4e4:	48 89 85 58 f2 ff ff 	mov    %rax,-0xda8(%rbp)
    c4eb:	48 8d 05 82 7c 00 00 	lea    0x7c82(%rip),%rax        # 14174 <g_518+0x4>
    c4f2:	48 89 85 60 f2 ff ff 	mov    %rax,-0xda0(%rbp)
    c4f9:	48 8d 85 68 f1 ff ff 	lea    -0xe98(%rbp),%rax
    c500:	48 89 85 68 f2 ff ff 	mov    %rax,-0xd98(%rbp)
    c507:	48 8d 85 30 f7 ff ff 	lea    -0x8d0(%rbp),%rax
    c50e:	48 05 18 01 00 00    	add    $0x118,%rax
    c514:	48 89 85 70 f2 ff ff 	mov    %rax,-0xd90(%rbp)
    c51b:	48 8d 85 80 f4 ff ff 	lea    -0xb80(%rbp),%rax
    c522:	48 83 c0 18          	add    $0x18,%rax
    c526:	48 89 85 78 f2 ff ff 	mov    %rax,-0xd88(%rbp)
    c52d:	48 8d 85 e4 f0 ff ff 	lea    -0xf1c(%rbp),%rax
    c534:	48 89 85 80 f2 ff ff 	mov    %rax,-0xd80(%rbp)
    c53b:	48 8d 85 e4 f0 ff ff 	lea    -0xf1c(%rbp),%rax
    c542:	48 89 85 88 f2 ff ff 	mov    %rax,-0xd78(%rbp)
    c549:	48 c7 85 90 f2 ff ff 	movq   $0x0,-0xd70(%rbp)
    c550:	00 00 00 00 
    c554:	48 8d 05 e5 7a 00 00 	lea    0x7ae5(%rip),%rax        # 14040 <g_71>
    c55b:	48 89 85 98 f2 ff ff 	mov    %rax,-0xd68(%rbp)
    c562:	48 8d 05 cb 7a 00 00 	lea    0x7acb(%rip),%rax        # 14034 <g_23>
    c569:	48 89 85 a0 f2 ff ff 	mov    %rax,-0xd60(%rbp)
    c570:	48 c7 85 a8 f2 ff ff 	movq   $0x0,-0xd58(%rbp)
    c577:	00 00 00 00 
    c57b:	48 c7 85 b0 f2 ff ff 	movq   $0x0,-0xd50(%rbp)
    c582:	00 00 00 00 
    c586:	48 8d 05 cf 7a 00 00 	lea    0x7acf(%rip),%rax        # 1405c <g_129>
    c58d:	48 89 85 b8 f2 ff ff 	mov    %rax,-0xd48(%rbp)
    c594:	48 8d 85 e8 f0 ff ff 	lea    -0xf18(%rbp),%rax
    c59b:	48 89 85 c0 f2 ff ff 	mov    %rax,-0xd40(%rbp)
    c5a2:	48 8d 05 cb 7b 00 00 	lea    0x7bcb(%rip),%rax        # 14174 <g_518+0x4>
    c5a9:	48 89 85 c8 f2 ff ff 	mov    %rax,-0xd38(%rbp)
    c5b0:	48 8d 85 e0 f8 ff ff 	lea    -0x720(%rbp),%rax
    c5b7:	48 05 f8 00 00 00    	add    $0xf8,%rax
    c5bd:	48 89 85 c0 f4 ff ff 	mov    %rax,-0xb40(%rbp)
    c5c4:	48 8d 85 e0 f8 ff ff 	lea    -0x720(%rbp),%rax
    c5cb:	48 05 f8 00 00 00    	add    $0xf8,%rax
    c5d1:	48 89 85 c8 f4 ff ff 	mov    %rax,-0xb38(%rbp)
    c5d8:	48 8d 85 e0 f8 ff ff 	lea    -0x720(%rbp),%rax
    c5df:	48 05 f8 00 00 00    	add    $0xf8,%rax
    c5e5:	48 89 85 d0 f4 ff ff 	mov    %rax,-0xb30(%rbp)
    c5ec:	48 8d 85 e0 f8 ff ff 	lea    -0x720(%rbp),%rax
    c5f3:	48 05 f8 00 00 00    	add    $0xf8,%rax
    c5f9:	48 89 85 d8 f4 ff ff 	mov    %rax,-0xb28(%rbp)
    c600:	48 8d 85 e0 f8 ff ff 	lea    -0x720(%rbp),%rax
    c607:	48 05 f8 00 00 00    	add    $0xf8,%rax
    c60d:	48 89 85 e0 f4 ff ff 	mov    %rax,-0xb20(%rbp)
    c614:	48 8d 85 e0 f8 ff ff 	lea    -0x720(%rbp),%rax
    c61b:	48 05 f8 00 00 00    	add    $0xf8,%rax
    c621:	48 89 85 e8 f4 ff ff 	mov    %rax,-0xb18(%rbp)
    c628:	48 8d 85 e0 f8 ff ff 	lea    -0x720(%rbp),%rax
    c62f:	48 05 f8 00 00 00    	add    $0xf8,%rax
    c635:	48 89 85 f0 f4 ff ff 	mov    %rax,-0xb10(%rbp)
    c63c:	48 8d 85 e0 f8 ff ff 	lea    -0x720(%rbp),%rax
    c643:	48 05 f8 00 00 00    	add    $0xf8,%rax
    c649:	48 89 85 f8 f4 ff ff 	mov    %rax,-0xb08(%rbp)
    c650:	48 8d 85 e0 f8 ff ff 	lea    -0x720(%rbp),%rax
    c657:	48 05 f8 00 00 00    	add    $0xf8,%rax
    c65d:	48 89 85 00 f5 ff ff 	mov    %rax,-0xb00(%rbp)
    c664:	48 8d 05 75 7b 00 00 	lea    0x7b75(%rip),%rax        # 141e0 <g_1016>
    c66b:	48 89 85 d0 f2 ff ff 	mov    %rax,-0xd30(%rbp)
    c672:	48 8d 05 c7 9e 00 00 	lea    0x9ec7(%rip),%rax        # 16540 <g_1479>
    c679:	48 89 85 d8 f2 ff ff 	mov    %rax,-0xd28(%rbp)
    c680:	66 c7 85 d0 f3 ff ff 	movw   $0x1,-0xc30(%rbp)
    c687:	01 00 
    c689:	66 c7 85 d2 f3 ff ff 	movw   $0x3d59,-0xc2e(%rbp)
    c690:	59 3d 
    c692:	66 c7 85 d4 f3 ff ff 	movw   $0x1,-0xc2c(%rbp)
    c699:	01 00 
    c69b:	66 c7 85 d6 f3 ff ff 	movw   $0x1,-0xc2a(%rbp)
    c6a2:	01 00 
    c6a4:	66 c7 85 d8 f3 ff ff 	movw   $0x3d59,-0xc28(%rbp)
    c6ab:	59 3d 
    c6ad:	66 c7 85 da f3 ff ff 	movw   $0x1,-0xc26(%rbp)
    c6b4:	01 00 
    c6b6:	66 c7 85 dc f3 ff ff 	movw   $0x1,-0xc24(%rbp)
    c6bd:	01 00 
    c6bf:	66 c7 85 de f3 ff ff 	movw   $0x3d59,-0xc22(%rbp)
    c6c6:	59 3d 
    c6c8:	48 c7 85 20 fd ff ff 	movq   $0x0,-0x2e0(%rbp)
    c6cf:	00 00 00 00 
    c6d3:	48 8d 05 46 8b 00 00 	lea    0x8b46(%rip),%rax        # 15220 <g_248+0x20>
    c6da:	48 89 85 28 fd ff ff 	mov    %rax,-0x2d8(%rbp)
    c6e1:	48 c7 85 30 fd ff ff 	movq   $0x0,-0x2d0(%rbp)
    c6e8:	00 00 00 00 
    c6ec:	48 8d 05 2d 8b 00 00 	lea    0x8b2d(%rip),%rax        # 15220 <g_248+0x20>
    c6f3:	48 89 85 38 fd ff ff 	mov    %rax,-0x2c8(%rbp)
    c6fa:	48 c7 85 40 fd ff ff 	movq   $0x0,-0x2c0(%rbp)
    c701:	00 00 00 00 
    c705:	48 8d 05 14 8b 00 00 	lea    0x8b14(%rip),%rax        # 15220 <g_248+0x20>
    c70c:	48 89 85 48 fd ff ff 	mov    %rax,-0x2b8(%rbp)
    c713:	48 c7 85 50 fd ff ff 	movq   $0x0,-0x2b0(%rbp)
    c71a:	00 00 00 00 
    c71e:	48 8d 85 c0 f4 ff ff 	lea    -0xb40(%rbp),%rax
    c725:	48 83 c0 28          	add    $0x28,%rax
    c729:	48 89 85 58 fd ff ff 	mov    %rax,-0x2a8(%rbp)
    c730:	48 8d 85 98 f1 ff ff 	lea    -0xe68(%rbp),%rax
    c737:	48 89 85 60 fd ff ff 	mov    %rax,-0x2a0(%rbp)
    c73e:	48 8d 85 98 f1 ff ff 	lea    -0xe68(%rbp),%rax
    c745:	48 89 85 68 fd ff ff 	mov    %rax,-0x298(%rbp)
    c74c:	48 8d 85 c0 f4 ff ff 	lea    -0xb40(%rbp),%rax
    c753:	48 83 c0 28          	add    $0x28,%rax
    c757:	48 89 85 70 fd ff ff 	mov    %rax,-0x290(%rbp)
    c75e:	48 8d 85 c0 f4 ff ff 	lea    -0xb40(%rbp),%rax
    c765:	48 83 c0 28          	add    $0x28,%rax
    c769:	48 89 85 78 fd ff ff 	mov    %rax,-0x288(%rbp)
    c770:	48 8d 85 98 f1 ff ff 	lea    -0xe68(%rbp),%rax
    c777:	48 89 85 80 fd ff ff 	mov    %rax,-0x280(%rbp)
    c77e:	48 8d 85 98 f1 ff ff 	lea    -0xe68(%rbp),%rax
    c785:	48 89 85 88 fd ff ff 	mov    %rax,-0x278(%rbp)
    c78c:	48 8d 85 60 f1 ff ff 	lea    -0xea0(%rbp),%rax
    c793:	48 89 85 90 fd ff ff 	mov    %rax,-0x270(%rbp)
    c79a:	48 8d 05 7f 8a 00 00 	lea    0x8a7f(%rip),%rax        # 15220 <g_248+0x20>
    c7a1:	48 89 85 98 fd ff ff 	mov    %rax,-0x268(%rbp)
    c7a8:	48 8d 85 60 f1 ff ff 	lea    -0xea0(%rbp),%rax
    c7af:	48 89 85 a0 fd ff ff 	mov    %rax,-0x260(%rbp)
    c7b6:	48 8d 05 63 8a 00 00 	lea    0x8a63(%rip),%rax        # 15220 <g_248+0x20>
    c7bd:	48 89 85 a8 fd ff ff 	mov    %rax,-0x258(%rbp)
    c7c4:	48 8d 85 60 f1 ff ff 	lea    -0xea0(%rbp),%rax
    c7cb:	48 89 85 b0 fd ff ff 	mov    %rax,-0x250(%rbp)
    c7d2:	48 8d 05 47 8a 00 00 	lea    0x8a47(%rip),%rax        # 15220 <g_248+0x20>
    c7d9:	48 89 85 b8 fd ff ff 	mov    %rax,-0x248(%rbp)
    c7e0:	48 8d 85 60 f1 ff ff 	lea    -0xea0(%rbp),%rax
    c7e7:	48 89 85 c0 fd ff ff 	mov    %rax,-0x240(%rbp)
    c7ee:	48 8d 85 c0 f4 ff ff 	lea    -0xb40(%rbp),%rax
    c7f5:	48 83 c0 28          	add    $0x28,%rax
    c7f9:	48 89 85 c8 fd ff ff 	mov    %rax,-0x238(%rbp)
    c800:	48 8d 85 c0 f4 ff ff 	lea    -0xb40(%rbp),%rax
    c807:	48 83 c0 28          	add    $0x28,%rax
    c80b:	48 89 85 d0 fd ff ff 	mov    %rax,-0x230(%rbp)
    c812:	48 8d 85 98 f1 ff ff 	lea    -0xe68(%rbp),%rax
    c819:	48 89 85 d8 fd ff ff 	mov    %rax,-0x228(%rbp)
    c820:	48 8d 85 98 f1 ff ff 	lea    -0xe68(%rbp),%rax
    c827:	48 89 85 e0 fd ff ff 	mov    %rax,-0x220(%rbp)
    c82e:	48 8d 85 c0 f4 ff ff 	lea    -0xb40(%rbp),%rax
    c835:	48 83 c0 28          	add    $0x28,%rax
    c839:	48 89 85 e8 fd ff ff 	mov    %rax,-0x218(%rbp)
    c840:	48 8d 85 c0 f4 ff ff 	lea    -0xb40(%rbp),%rax
    c847:	48 83 c0 28          	add    $0x28,%rax
    c84b:	48 89 85 f0 fd ff ff 	mov    %rax,-0x210(%rbp)
    c852:	48 8d 85 98 f1 ff ff 	lea    -0xe68(%rbp),%rax
    c859:	48 89 85 f8 fd ff ff 	mov    %rax,-0x208(%rbp)
    c860:	48 c7 85 00 fe ff ff 	movq   $0x0,-0x200(%rbp)
    c867:	00 00 00 00 
    c86b:	48 8d 05 ae 89 00 00 	lea    0x89ae(%rip),%rax        # 15220 <g_248+0x20>
    c872:	48 89 85 08 fe ff ff 	mov    %rax,-0x1f8(%rbp)
    c879:	48 c7 85 10 fe ff ff 	movq   $0x0,-0x1f0(%rbp)
    c880:	00 00 00 00 
    c884:	48 8d 05 95 89 00 00 	lea    0x8995(%rip),%rax        # 15220 <g_248+0x20>
    c88b:	48 89 85 18 fe ff ff 	mov    %rax,-0x1e8(%rbp)
    c892:	48 c7 85 20 fe ff ff 	movq   $0x0,-0x1e0(%rbp)
    c899:	00 00 00 00 
    c89d:	48 8d 05 7c 89 00 00 	lea    0x897c(%rip),%rax        # 15220 <g_248+0x20>
    c8a4:	48 89 85 28 fe ff ff 	mov    %rax,-0x1d8(%rbp)
    c8ab:	48 c7 85 30 fe ff ff 	movq   $0x0,-0x1d0(%rbp)
    c8b2:	00 00 00 00 
    c8b6:	48 8d 85 c0 f4 ff ff 	lea    -0xb40(%rbp),%rax
    c8bd:	48 83 c0 28          	add    $0x28,%rax
    c8c1:	48 89 85 38 fe ff ff 	mov    %rax,-0x1c8(%rbp)
    c8c8:	48 8d 85 98 f1 ff ff 	lea    -0xe68(%rbp),%rax
    c8cf:	48 89 85 40 fe ff ff 	mov    %rax,-0x1c0(%rbp)
    c8d6:	48 8d 85 98 f1 ff ff 	lea    -0xe68(%rbp),%rax
    c8dd:	48 89 85 48 fe ff ff 	mov    %rax,-0x1b8(%rbp)
    c8e4:	48 8d 85 c0 f4 ff ff 	lea    -0xb40(%rbp),%rax
    c8eb:	48 83 c0 28          	add    $0x28,%rax
    c8ef:	48 89 85 50 fe ff ff 	mov    %rax,-0x1b0(%rbp)
    c8f6:	48 8d 85 c0 f4 ff ff 	lea    -0xb40(%rbp),%rax
    c8fd:	48 83 c0 28          	add    $0x28,%rax
    c901:	48 89 85 58 fe ff ff 	mov    %rax,-0x1a8(%rbp)
    c908:	48 8d 85 98 f1 ff ff 	lea    -0xe68(%rbp),%rax
    c90f:	48 89 85 60 fe ff ff 	mov    %rax,-0x1a0(%rbp)
    c916:	48 8d 85 98 f1 ff ff 	lea    -0xe68(%rbp),%rax
    c91d:	48 89 85 68 fe ff ff 	mov    %rax,-0x198(%rbp)
    c924:	48 8d 85 60 f1 ff ff 	lea    -0xea0(%rbp),%rax
    c92b:	48 89 85 70 fe ff ff 	mov    %rax,-0x190(%rbp)
    c932:	48 8d 05 e7 88 00 00 	lea    0x88e7(%rip),%rax        # 15220 <g_248+0x20>
    c939:	48 89 85 78 fe ff ff 	mov    %rax,-0x188(%rbp)
    c940:	48 8d 85 60 f1 ff ff 	lea    -0xea0(%rbp),%rax
    c947:	48 89 85 80 fe ff ff 	mov    %rax,-0x180(%rbp)
    c94e:	48 8d 05 cb 88 00 00 	lea    0x88cb(%rip),%rax        # 15220 <g_248+0x20>
    c955:	48 89 85 88 fe ff ff 	mov    %rax,-0x178(%rbp)
    c95c:	48 8d 85 60 f1 ff ff 	lea    -0xea0(%rbp),%rax
    c963:	48 89 85 90 fe ff ff 	mov    %rax,-0x170(%rbp)
    c96a:	48 8d 05 af 88 00 00 	lea    0x88af(%rip),%rax        # 15220 <g_248+0x20>
    c971:	48 89 85 98 fe ff ff 	mov    %rax,-0x168(%rbp)
    c978:	48 8d 85 60 f1 ff ff 	lea    -0xea0(%rbp),%rax
    c97f:	48 89 85 a0 fe ff ff 	mov    %rax,-0x160(%rbp)
    c986:	48 8d 85 c0 f4 ff ff 	lea    -0xb40(%rbp),%rax
    c98d:	48 83 c0 28          	add    $0x28,%rax
    c991:	48 89 85 a8 fe ff ff 	mov    %rax,-0x158(%rbp)
    c998:	48 8d 85 c0 f4 ff ff 	lea    -0xb40(%rbp),%rax
    c99f:	48 83 c0 28          	add    $0x28,%rax
    c9a3:	48 89 85 b0 fe ff ff 	mov    %rax,-0x150(%rbp)
    c9aa:	48 8d 85 98 f1 ff ff 	lea    -0xe68(%rbp),%rax
    c9b1:	48 89 85 b8 fe ff ff 	mov    %rax,-0x148(%rbp)
    c9b8:	48 8d 85 98 f1 ff ff 	lea    -0xe68(%rbp),%rax
    c9bf:	48 89 85 c0 fe ff ff 	mov    %rax,-0x140(%rbp)
    c9c6:	48 8d 85 c0 f4 ff ff 	lea    -0xb40(%rbp),%rax
    c9cd:	48 83 c0 28          	add    $0x28,%rax
    c9d1:	48 89 85 c8 fe ff ff 	mov    %rax,-0x138(%rbp)
    c9d8:	48 8d 85 c0 f4 ff ff 	lea    -0xb40(%rbp),%rax
    c9df:	48 83 c0 28          	add    $0x28,%rax
    c9e3:	48 89 85 d0 fe ff ff 	mov    %rax,-0x130(%rbp)
    c9ea:	48 8d 85 98 f1 ff ff 	lea    -0xe68(%rbp),%rax
    c9f1:	48 89 85 d8 fe ff ff 	mov    %rax,-0x128(%rbp)
    c9f8:	48 c7 85 e0 f2 ff ff 	movq   $0x0,-0xd20(%rbp)
    c9ff:	00 00 00 00 
    ca03:	c7 85 f8 f0 ff ff 00 	movl   $0x0,-0xf08(%rbp)
    ca0a:	00 00 00 
    ca0d:	eb 1e                	jmp    ca2d <func_57+0x1dde>
    ca0f:	8b 85 f8 f0 ff ff    	mov    -0xf08(%rbp),%eax
    ca15:	48 98                	cltq   
    ca17:	48 8d 95 90 f1 ff ff 	lea    -0xe70(%rbp),%rdx
    ca1e:	48 89 94 c5 10 f4 ff 	mov    %rdx,-0xbf0(%rbp,%rax,8)
    ca25:	ff 
    ca26:	83 85 f8 f0 ff ff 01 	addl   $0x1,-0xf08(%rbp)
    ca2d:	83 bd f8 f0 ff ff 05 	cmpl   $0x5,-0xf08(%rbp)
    ca34:	7e d9                	jle    ca0f <func_57+0x1dc0>
    ca36:	0f b7 05 f3 77 00 00 	movzwl 0x77f3(%rip),%eax        # 14230 <g_1446>
    ca3d:	83 e8 01             	sub    $0x1,%eax
    ca40:	66 89 05 e9 77 00 00 	mov    %ax,0x77e9(%rip)        # 14230 <g_1446>
    ca47:	48 8b 85 a8 f0 ff ff 	mov    -0xf58(%rbp),%rax
    ca4e:	8b 00                	mov    (%rax),%eax
    ca50:	41 89 c7             	mov    %eax,%r15d
    ca53:	0f be 9d bc f0 ff ff 	movsbl -0xf44(%rbp),%ebx
    ca5a:	0f b7 05 cf 77 00 00 	movzwl 0x77cf(%rip),%eax        # 14230 <g_1446>
    ca61:	8d 50 ff             	lea    -0x1(%rax),%edx
    ca64:	66 89 15 c5 77 00 00 	mov    %dx,0x77c5(%rip)        # 14230 <g_1446>
    ca6b:	66 85 c0             	test   %ax,%ax
    ca6e:	0f 85 c5 01 00 00    	jne    cc39 <func_57+0x1fea>
    ca74:	0f b6 85 bc f0 ff ff 	movzbl -0xf44(%rbp),%eax
    ca7b:	44 0f b6 e0          	movzbl %al,%r12d
    ca7f:	44 0f be ad bc f0 ff 	movsbl -0xf44(%rbp),%r13d
    ca86:	ff 
    ca87:	44 0f be b5 bc f0 ff 	movsbl -0xf44(%rbp),%r14d
    ca8e:	ff 
    ca8f:	48 8b 85 b0 f0 ff ff 	mov    -0xf50(%rbp),%rax
    ca96:	48 8b 00             	mov    (%rax),%rax
    ca99:	83 f0 fb             	xor    $0xfffffffb,%eax
    ca9c:	98                   	cwtl   
    ca9d:	be 0e 00 00 00       	mov    $0xe,%esi
    caa2:	89 c7                	mov    %eax,%edi
    caa4:	e8 e9 89 ff ff       	callq  5492 <safe_lshift_func_int16_t_s_s>
    caa9:	66 85 c0             	test   %ax,%ax
    caac:	75 07                	jne    cab5 <func_57+0x1e66>
    caae:	80 bd bc f0 ff ff 00 	cmpb   $0x0,-0xf44(%rbp)
    cab5:	be 02 00 00 00       	mov    $0x2,%esi
    caba:	bf 01 00 00 00       	mov    $0x1,%edi
    cabf:	e8 2a 88 ff ff       	callq  52ee <safe_lshift_func_int8_t_s_u>
    cac4:	0f be d0             	movsbl %al,%edx
    cac7:	48 8b 85 d0 f2 ff ff 	mov    -0xd30(%rbp),%rax
    cace:	8b 00                	mov    (%rax),%eax
    cad0:	8d 70 01             	lea    0x1(%rax),%esi
    cad3:	48 8b 8d d0 f2 ff ff 	mov    -0xd30(%rbp),%rcx
    cada:	89 31                	mov    %esi,(%rcx)
    cadc:	89 d6                	mov    %edx,%esi
    cade:	89 c7                	mov    %eax,%edi
    cae0:	e8 18 94 ff ff       	callq  5efd <safe_mod_func_uint32_t_u_u>
    cae5:	0f be 95 bc f0 ff ff 	movsbl -0xf44(%rbp),%edx
    caec:	09 c2                	or     %eax,%edx
    caee:	8b 05 24 77 00 00    	mov    0x7724(%rip),%eax        # 14218 <g_1162>
    caf4:	39 c2                	cmp    %eax,%edx
    caf6:	0f 94 c0             	sete   %al
    caf9:	0f b6 c0             	movzbl %al,%eax
    cafc:	89 85 d8 f9 ff ff    	mov    %eax,-0x628(%rbp)
    cb02:	8b 85 d8 f9 ff ff    	mov    -0x628(%rbp),%eax
    cb08:	98                   	cwtl   
    cb09:	44 89 f6             	mov    %r14d,%esi
    cb0c:	89 c7                	mov    %eax,%edi
    cb0e:	e8 e2 88 ff ff       	callq  53f5 <safe_mul_func_int16_t_s_s>
    cb13:	48 8b 95 d8 f2 ff ff 	mov    -0xd28(%rbp),%rdx
    cb1a:	8b 12                	mov    (%rdx),%edx
    cb1c:	98                   	cwtl   
    cb1d:	31 c2                	xor    %eax,%edx
    cb1f:	48 8b 85 d8 f2 ff ff 	mov    -0xd28(%rbp),%rax
    cb26:	89 10                	mov    %edx,(%rax)
    cb28:	80 bd bc f0 ff ff 00 	cmpb   $0x0,-0xf44(%rbp)
    cb2f:	75 0f                	jne    cb40 <func_57+0x1ef1>
    cb31:	48 8b 85 b0 f0 ff ff 	mov    -0xf50(%rbp),%rax
    cb38:	48 8b 00             	mov    (%rax),%rax
    cb3b:	48 85 c0             	test   %rax,%rax
    cb3e:	74 07                	je     cb47 <func_57+0x1ef8>
    cb40:	ba 01 00 00 00       	mov    $0x1,%edx
    cb45:	eb 05                	jmp    cb4c <func_57+0x1efd>
    cb47:	ba 00 00 00 00       	mov    $0x0,%edx
    cb4c:	8b 05 5e 4c 00 00    	mov    0x4c5e(%rip),%eax        # 117b0 <l_1480.4752+0x10>
    cb52:	39 c2                	cmp    %eax,%edx
    cb54:	0f 9f c0             	setg   %al
    cb57:	0f b6 c0             	movzbl %al,%eax
    cb5a:	0b 85 38 f1 ff ff    	or     -0xec8(%rbp),%eax
    cb60:	89 c2                	mov    %eax,%edx
    cb62:	48 8b 05 37 8f 00 00 	mov    0x8f37(%rip),%rax        # 15aa0 <g_1002>
    cb69:	48 8b 00             	mov    (%rax),%rax
    cb6c:	0f b7 00             	movzwl (%rax),%eax
    cb6f:	98                   	cwtl   
    cb70:	39 c2                	cmp    %eax,%edx
    cb72:	74 10                	je     cb84 <func_57+0x1f35>
    cb74:	80 bd bc f0 ff ff 00 	cmpb   $0x0,-0xf44(%rbp)
    cb7b:	74 07                	je     cb84 <func_57+0x1f35>
    cb7d:	b8 01 00 00 00       	mov    $0x1,%eax
    cb82:	eb 05                	jmp    cb89 <func_57+0x1f3a>
    cb84:	b8 00 00 00 00       	mov    $0x0,%eax
    cb89:	be 04 00 00 00       	mov    $0x4,%esi
    cb8e:	89 c7                	mov    %eax,%edi
    cb90:	e8 68 93 ff ff       	callq  5efd <safe_mod_func_uint32_t_u_u>
    cb95:	23 85 38 f1 ff ff    	and    -0xec8(%rbp),%eax
    cb9b:	89 c2                	mov    %eax,%edx
    cb9d:	48 8b 85 78 f2 ff ff 	mov    -0xd88(%rbp),%rax
    cba4:	89 10                	mov    %edx,(%rax)
    cba6:	48 8b 85 78 f2 ff ff 	mov    -0xd88(%rbp),%rax
    cbad:	8b 00                	mov    (%rax),%eax
    cbaf:	48 63 d0             	movslq %eax,%rdx
    cbb2:	48 8b 05 d7 88 00 00 	mov    0x88d7(%rip),%rax        # 15490 <g_305>
    cbb9:	48 8b 00             	mov    (%rax),%rax
    cbbc:	48 89 d6             	mov    %rdx,%rsi
    cbbf:	48 89 c7             	mov    %rax,%rdi
    cbc2:	e8 e1 8c ff ff       	callq  58a8 <safe_sub_func_int64_t_s_s>
    cbc7:	48 85 c0             	test   %rax,%rax
    cbca:	74 13                	je     cbdf <func_57+0x1f90>
    cbcc:	0f b7 85 d4 f3 ff ff 	movzwl -0xc2c(%rbp),%eax
    cbd3:	66 85 c0             	test   %ax,%ax
    cbd6:	74 07                	je     cbdf <func_57+0x1f90>
    cbd8:	b8 01 00 00 00       	mov    $0x1,%eax
    cbdd:	eb 05                	jmp    cbe4 <func_57+0x1f95>
    cbdf:	b8 00 00 00 00       	mov    $0x0,%eax
    cbe4:	44 89 ee             	mov    %r13d,%esi
    cbe7:	89 c7                	mov    %eax,%edi
    cbe9:	e8 e2 92 ff ff       	callq  5ed0 <safe_sub_func_uint32_t_u_u>
    cbee:	0f b7 c0             	movzwl %ax,%eax
    cbf1:	be 0f 00 00 00       	mov    $0xf,%esi
    cbf6:	89 c7                	mov    %eax,%edi
    cbf8:	e8 09 92 ff ff       	callq  5e06 <safe_lshift_func_uint16_t_u_u>
    cbfd:	8b 85 3c f1 ff ff    	mov    -0xec4(%rbp),%eax
    cc03:	0f b6 c0             	movzbl %al,%eax
    cc06:	44 89 e6             	mov    %r12d,%esi
    cc09:	89 c7                	mov    %eax,%edi
    cc0b:	e8 83 8f ff ff       	callq  5b93 <safe_mul_func_uint8_t_u_u>
    cc10:	0f b6 d0             	movzbl %al,%edx
    cc13:	0f be 85 bc f0 ff ff 	movsbl -0xf44(%rbp),%eax
    cc1a:	39 c2                	cmp    %eax,%edx
    cc1c:	0f 94 c0             	sete   %al
    cc1f:	0f b6 d0             	movzbl %al,%edx
    cc22:	48 8b 05 57 8e 00 00 	mov    0x8e57(%rip),%rax        # 15a80 <g_874>
    cc29:	8b 00                	mov    (%rax),%eax
    cc2b:	21 d0                	and    %edx,%eax
    cc2d:	85 c0                	test   %eax,%eax
    cc2f:	75 08                	jne    cc39 <func_57+0x1fea>
    cc31:	8b 85 88 f7 ff ff    	mov    -0x878(%rbp),%eax
    cc37:	85 c0                	test   %eax,%eax
    cc39:	90                   	nop
    cc3a:	48 8b 85 a8 f0 ff ff 	mov    -0xf58(%rbp),%rax
    cc41:	8b 00                	mov    (%rax),%eax
    cc43:	48 98                	cltq   
    cc45:	48 ba 7f 80 e2 64 aa 	movabs $0x7892c5aa64e2807f,%rdx
    cc4c:	c5 92 78 
    cc4f:	48 09 c2             	or     %rax,%rdx
    cc52:	48 0f be 85 bc f0 ff 	movsbq -0xf44(%rbp),%rax
    cc59:	ff 
    cc5a:	48 39 c2             	cmp    %rax,%rdx
    cc5d:	0f 9c c0             	setl   %al
    cc60:	0f b6 d0             	movzbl %al,%edx
    cc63:	0f be 85 bc f0 ff ff 	movsbl -0xf44(%rbp),%eax
    cc6a:	39 c2                	cmp    %eax,%edx
    cc6c:	0f 9f c0             	setg   %al
    cc6f:	0f b6 c0             	movzbl %al,%eax
    cc72:	89 c2                	mov    %eax,%edx
    cc74:	0f b6 85 ce f0 ff ff 	movzbl -0xf32(%rbp),%eax
    cc7b:	31 d0                	xor    %edx,%eax
    cc7d:	88 85 ce f0 ff ff    	mov    %al,-0xf32(%rbp)
    cc83:	0f b6 85 ce f0 ff ff 	movzbl -0xf32(%rbp),%eax
    cc8a:	89 de                	mov    %ebx,%esi
    cc8c:	89 c7                	mov    %eax,%edi
    cc8e:	e8 d0 88 ff ff       	callq  5563 <safe_rshift_func_int16_t_s_u>
    cc93:	98                   	cwtl   
    cc94:	44 89 fe             	mov    %r15d,%esi
    cc97:	89 c7                	mov    %eax,%edi
    cc99:	e8 87 92 ff ff       	callq  5f25 <safe_div_func_uint32_t_u_u>
    cc9e:	8b 85 e4 f5 ff ff    	mov    -0xa1c(%rbp),%eax
    cca4:	89 c2                	mov    %eax,%edx
    cca6:	8b 85 88 f7 ff ff    	mov    -0x878(%rbp),%eax
    ccac:	83 f8 14             	cmp    $0x14,%eax
    ccaf:	0f 9f c0             	setg   %al
    ccb2:	0f b6 c0             	movzbl %al,%eax
    ccb5:	09 c2                	or     %eax,%edx
    ccb7:	48 8b 05 d2 8d 00 00 	mov    0x8dd2(%rip),%rax        # 15a90 <g_926>
    ccbe:	48 8b 00             	mov    (%rax),%rax
    ccc1:	80 f2 97             	xor    $0x97,%dl
    ccc4:	66 89 10             	mov    %dx,(%rax)
    ccc7:	0f b7 00             	movzwl (%rax),%eax
    ccca:	66 83 f8 01          	cmp    $0x1,%ax
    ccce:	0f 97 c0             	seta   %al
    ccd1:	0f b6 d0             	movzbl %al,%edx
    ccd4:	48 8b 85 b0 f1 ff ff 	mov    -0xe50(%rbp),%rax
    ccdb:	8b 00                	mov    (%rax),%eax
    ccdd:	31 c2                	xor    %eax,%edx
    ccdf:	48 8b 85 b0 f1 ff ff 	mov    -0xe50(%rbp),%rax
    cce6:	89 10                	mov    %edx,(%rax)
    cce8:	48 8b 05 a1 8e 00 00 	mov    0x8ea1(%rip),%rax        # 15b90 <g_1488>
    ccef:	48 8b 95 a8 f0 ff ff 	mov    -0xf58(%rbp),%rdx
    ccf6:	48 89 10             	mov    %rdx,(%rax)
    ccf9:	80 85 cf f0 ff ff 01 	addb   $0x1,-0xf31(%rbp)
    cd00:	48 8d 05 09 8e 00 00 	lea    0x8e09(%rip),%rax        # 15b10 <g_1147>
    cd07:	48 89 85 d8 f1 ff ff 	mov    %rax,-0xe28(%rbp)
    cd0e:	48 8b 85 e8 f1 ff ff 	mov    -0xe18(%rbp),%rax
    cd15:	48 8b 5d c8          	mov    -0x38(%rbp),%rbx
    cd19:	64 48 33 1c 25 28 00 	xor    %fs:0x28,%rbx
    cd20:	00 00 
    cd22:	74 05                	je     cd29 <func_57+0x20da>
    cd24:	e8 47 83 ff ff       	callq  5070 <__stack_chk_fail@plt>
    cd29:	48 81 c4 38 0f 00 00 	add    $0xf38,%rsp
    cd30:	5b                   	pop    %rbx
    cd31:	41 5c                	pop    %r12
    cd33:	41 5d                	pop    %r13
    cd35:	41 5e                	pop    %r14
    cd37:	41 5f                	pop    %r15
    cd39:	5d                   	pop    %rbp
    cd3a:	c3                   	retq   

000000000000cd3b <func_61>:
    cd3b:	f3 0f 1e fa          	endbr64 
    cd3f:	55                   	push   %rbp
    cd40:	48 89 e5             	mov    %rsp,%rbp
    cd43:	53                   	push   %rbx
    cd44:	48 81 ec 98 04 00 00 	sub    $0x498,%rsp
    cd4b:	48 89 bd 88 fb ff ff 	mov    %rdi,-0x478(%rbp)
    cd52:	48 89 b5 80 fb ff ff 	mov    %rsi,-0x480(%rbp)
    cd59:	48 89 95 78 fb ff ff 	mov    %rdx,-0x488(%rbp)
    cd60:	48 89 8d 70 fb ff ff 	mov    %rcx,-0x490(%rbp)
    cd67:	44 89 85 6c fb ff ff 	mov    %r8d,-0x494(%rbp)
    cd6e:	64 48 8b 04 25 28 00 	mov    %fs:0x28,%rax
    cd75:	00 00 
    cd77:	48 89 45 e8          	mov    %rax,-0x18(%rbp)
    cd7b:	31 c0                	xor    %eax,%eax
    cd7d:	66 c7 85 94 fb ff ff 	movw   $0x0,-0x46c(%rbp)
    cd84:	00 00 
    cd86:	48 c7 85 c0 fb ff ff 	movq   $0x0,-0x440(%rbp)
    cd8d:	00 00 00 00 
    cd91:	48 8d 85 60 fd ff ff 	lea    -0x2a0(%rbp),%rax
    cd98:	48 8d 15 c1 3f 00 00 	lea    0x3fc1(%rip),%rdx        # 10d60 <g_2039+0xd00>
    cd9f:	b9 50 00 00 00       	mov    $0x50,%ecx
    cda4:	48 89 c7             	mov    %rax,%rdi
    cda7:	48 89 d6             	mov    %rdx,%rsi
    cdaa:	f3 48 a5             	rep movsq %ds:(%rsi),%es:(%rdi)
    cdad:	48 c7 85 c8 fb ff ff 	movq   $0x0,-0x438(%rbp)
    cdb4:	00 00 00 00 
    cdb8:	48 8d 85 40 fc ff ff 	lea    -0x3c0(%rbp),%rax
    cdbf:	48 8d 15 1a 79 00 00 	lea    0x791a(%rip),%rdx        # 146e0 <g_2356+0x18>
    cdc6:	b9 24 00 00 00       	mov    $0x24,%ecx
    cdcb:	48 89 c7             	mov    %rax,%rdi
    cdce:	48 89 d6             	mov    %rdx,%rsi
    cdd1:	f3 48 a5             	rep movsq %ds:(%rsi),%es:(%rdi)
    cdd4:	c7 85 f0 fb ff ff dd 	movl   $0xe5b152dd,-0x410(%rbp)
    cddb:	52 b1 e5 
    cdde:	c7 85 f4 fb ff ff dd 	movl   $0xe5b152dd,-0x40c(%rbp)
    cde5:	52 b1 e5 
    cde8:	c7 85 f8 fb ff ff dd 	movl   $0xe5b152dd,-0x408(%rbp)
    cdef:	52 b1 e5 
    cdf2:	c7 85 fc fb ff ff dd 	movl   $0xe5b152dd,-0x404(%rbp)
    cdf9:	52 b1 e5 
    cdfc:	c6 85 90 fb ff ff fc 	movb   $0xfc,-0x470(%rbp)
    ce03:	c6 85 91 fb ff ff f6 	movb   $0xf6,-0x46f(%rbp)
    ce0a:	c7 85 a4 fb ff ff a2 	movl   $0x5a050ca2,-0x45c(%rbp)
    ce11:	0c 05 5a 
    ce14:	48 c7 85 d0 fb ff ff 	movq   $0x3,-0x430(%rbp)
    ce1b:	03 00 00 00 
    ce1f:	c7 85 9c fb ff ff 00 	movl   $0x0,-0x464(%rbp)
    ce26:	00 00 00 
    ce29:	eb 1e                	jmp    ce49 <func_61+0x10e>
    ce2b:	8b 85 9c fb ff ff    	mov    -0x464(%rbp),%eax
    ce31:	48 98                	cltq   
    ce33:	48 8d 15 5e 8c 00 00 	lea    0x8c5e(%rip),%rdx        # 15a98 <g_1003>
    ce3a:	48 89 94 c5 00 fc ff 	mov    %rdx,-0x400(%rbp,%rax,8)
    ce41:	ff 
    ce42:	83 85 9c fb ff ff 01 	addl   $0x1,-0x464(%rbp)
    ce49:	83 bd 9c fb ff ff 02 	cmpl   $0x2,-0x464(%rbp)
    ce50:	7e d9                	jle    ce2b <func_61+0xf0>
    ce52:	c7 85 9c fb ff ff 00 	movl   $0x0,-0x464(%rbp)
    ce59:	00 00 00 
    ce5c:	eb 1e                	jmp    ce7c <func_61+0x141>
    ce5e:	8b 85 9c fb ff ff    	mov    -0x464(%rbp),%eax
    ce64:	48 98                	cltq   
    ce66:	48 8d 15 cf 71 00 00 	lea    0x71cf(%rip),%rdx        # 1403c <g_70>
    ce6d:	48 89 94 c5 20 fc ff 	mov    %rdx,-0x3e0(%rbp,%rax,8)
    ce74:	ff 
    ce75:	83 85 9c fb ff ff 01 	addl   $0x1,-0x464(%rbp)
    ce7c:	83 bd 9c fb ff ff 03 	cmpl   $0x3,-0x464(%rbp)
    ce83:	7e d9                	jle    ce5e <func_61+0x123>
    ce85:	c7 85 6c fb ff ff 17 	movl   $0x17,-0x494(%rbp)
    ce8c:	00 00 00 
    ce8f:	eb 1c                	jmp    cead <func_61+0x172>
    ce91:	c7 85 bc fb ff ff 11 	movl   $0x80f98811,-0x444(%rbp)
    ce98:	88 f9 80 
    ce9b:	48 c7 85 e8 fb ff ff 	movq   $0x0,-0x418(%rbp)
    cea2:	00 00 00 00 
    cea6:	83 ad 6c fb ff ff 01 	subl   $0x1,-0x494(%rbp)
    cead:	83 bd 6c fb ff ff 12 	cmpl   $0x12,-0x494(%rbp)
    ceb4:	75 db                	jne    ce91 <func_61+0x156>
    ceb6:	c7 85 70 fb ff ff db 	movl   $0x143c41db,-0x490(%rbp)
    cebd:	41 3c 14 
    cec0:	c7 05 c6 72 00 00 02 	movl   $0x2,0x72c6(%rip)        # 14190 <g_568>
    cec7:	00 00 00 
    ceca:	e9 9e 01 00 00       	jmpq   d06d <func_61+0x332>
    cecf:	66 c7 85 92 fb ff ff 	movw   $0x6bf4,-0x46e(%rbp)
    ced6:	f4 6b 
    ced8:	c7 85 a8 fb ff ff 31 	movl   $0x4b73f431,-0x458(%rbp)
    cedf:	f4 73 4b 
    cee2:	c7 85 ac fb ff ff 63 	movl   $0x6b10d163,-0x454(%rbp)
    cee9:	d1 10 6b 
    ceec:	0f b7 85 92 fb ff ff 	movzwl -0x46e(%rbp),%eax
    cef3:	83 e8 01             	sub    $0x1,%eax
    cef6:	66 89 85 92 fb ff ff 	mov    %ax,-0x46e(%rbp)
    cefd:	48 8b 05 14 8c 00 00 	mov    0x8c14(%rip),%rax        # 15b18 <g_1154>
    cf04:	48 8b 95 c8 fb ff ff 	mov    -0x438(%rbp),%rdx
    cf0b:	48 89 10             	mov    %rdx,(%rax)
    cf0e:	66 c7 85 92 fb ff ff 	movw   $0x0,-0x46e(%rbp)
    cf15:	00 00 
    cf17:	e9 31 01 00 00       	jmpq   d04d <func_61+0x312>
    cf1c:	c7 85 98 fb ff ff 01 	movl   $0x1,-0x468(%rbp)
    cf23:	00 00 00 
    cf26:	c7 85 b0 fb ff ff 7f 	movl   $0x9aa6437f,-0x450(%rbp)
    cf2d:	43 a6 9a 
    cf30:	c7 85 b4 fb ff ff f6 	movl   $0xfffffff6,-0x44c(%rbp)
    cf37:	ff ff ff 
    cf3a:	c7 85 a0 fb ff ff fe 	movl   $0xfffffffe,-0x460(%rbp)
    cf41:	ff ff ff 
    cf44:	66 c7 85 96 fb ff ff 	movw   $0x888c,-0x46a(%rbp)
    cf4b:	8c 88 
    cf4d:	8b 05 3d 72 00 00    	mov    0x723d(%rip),%eax        # 14190 <g_568>
    cf53:	89 c0                	mov    %eax,%eax
    cf55:	48 8d 14 c5 00 00 00 	lea    0x0(,%rax,8),%rdx
    cf5c:	00 
    cf5d:	48 8d 05 1c 71 00 00 	lea    0x711c(%rip),%rax        # 14080 <g_175>
    cf64:	48 8b 04 02          	mov    (%rdx,%rax,1),%rax
    cf68:	48 85 c0             	test   %rax,%rax
    cf6b:	74 77                	je     cfe4 <func_61+0x2a9>
    cf6d:	48 8d 05 24 8b 00 00 	lea    0x8b24(%rip),%rax        # 15a98 <g_1003>
    cf74:	48 89 85 e0 fb ff ff 	mov    %rax,-0x420(%rbp)
    cf7b:	c7 85 b8 fb ff ff ff 	movl   $0xffffffff,-0x448(%rbp)
    cf82:	ff ff ff 
    cf85:	8b 85 f0 fb ff ff    	mov    -0x410(%rbp),%eax
    cf8b:	83 c0 01             	add    $0x1,%eax
    cf8e:	89 85 f0 fb ff ff    	mov    %eax,-0x410(%rbp)
    cf94:	0f b6 85 70 fb ff ff 	movzbl -0x490(%rbp),%eax
    cf9b:	0f b6 d8             	movzbl %al,%ebx
    cf9e:	48 8b 85 00 fc ff ff 	mov    -0x400(%rbp),%rax
    cfa5:	48 39 85 e0 fb ff ff 	cmp    %rax,-0x420(%rbp)
    cfac:	0f 94 c0             	sete   %al
    cfaf:	0f b6 c0             	movzbl %al,%eax
    cfb2:	be 08 00 00 00       	mov    $0x8,%esi
    cfb7:	89 c7                	mov    %eax,%edi
    cfb9:	e8 54 82 ff ff       	callq  5212 <safe_mul_func_int8_t_s_s>
    cfbe:	0f be c0             	movsbl %al,%eax
    cfc1:	39 c3                	cmp    %eax,%ebx
    cfc3:	0f 9c c0             	setl   %al
    cfc6:	0f b6 c0             	movzbl %al,%eax
    cfc9:	89 85 a8 fb ff ff    	mov    %eax,-0x458(%rbp)
    cfcf:	8b 05 47 72 00 00    	mov    0x7247(%rip),%eax        # 1421c <g_1164>
    cfd5:	0f b6 85 90 fb ff ff 	movzbl -0x470(%rbp),%eax
    cfdc:	89 85 b8 fb ff ff    	mov    %eax,-0x448(%rbp)
    cfe2:	eb 61                	jmp    d045 <func_61+0x30a>
    cfe4:	48 c7 85 d8 fb ff ff 	movq   $0x6,-0x428(%rbp)
    cfeb:	06 00 00 00 
    cfef:	48 c7 05 a6 71 00 00 	movq   $0x0,0x71a6(%rip)        # 141a0 <g_661>
    cff6:	00 00 00 00 
    cffa:	eb 2a                	jmp    d026 <func_61+0x2eb>
    cffc:	83 85 a0 fb ff ff 01 	addl   $0x1,-0x460(%rbp)
    d003:	48 8b 05 66 8a 00 00 	mov    0x8a66(%rip),%rax        # 15a70 <g_667>
    d00a:	48 8d 95 98 fb ff ff 	lea    -0x468(%rbp),%rdx
    d011:	48 89 10             	mov    %rdx,(%rax)
    d014:	48 8b 05 85 71 00 00 	mov    0x7185(%rip),%rax        # 141a0 <g_661>
    d01b:	48 83 c0 01          	add    $0x1,%rax
    d01f:	48 89 05 7a 71 00 00 	mov    %rax,0x717a(%rip)        # 141a0 <g_661>
    d026:	48 8b 05 73 71 00 00 	mov    0x7173(%rip),%rax        # 141a0 <g_661>
    d02d:	48 83 f8 01          	cmp    $0x1,%rax
    d031:	7e c9                	jle    cffc <func_61+0x2c1>
    d033:	48 83 bd d8 fb ff ff 	cmpq   $0x0,-0x428(%rbp)
    d03a:	00 
    d03b:	75 20                	jne    d05d <func_61+0x322>
    d03d:	66 83 bd 96 fb ff ff 	cmpw   $0x0,-0x46a(%rbp)
    d044:	00 
    d045:	66 83 85 92 fb ff ff 	addw   $0x1,-0x46e(%rbp)
    d04c:	01 
    d04d:	66 83 bd 92 fb ff ff 	cmpw   $0x6,-0x46e(%rbp)
    d054:	06 
    d055:	0f 86 c1 fe ff ff    	jbe    cf1c <func_61+0x1e1>
    d05b:	eb 01                	jmp    d05e <func_61+0x323>
    d05d:	90                   	nop
    d05e:	8b 05 2c 71 00 00    	mov    0x712c(%rip),%eax        # 14190 <g_568>
    d064:	83 c0 01             	add    $0x1,%eax
    d067:	89 05 23 71 00 00    	mov    %eax,0x7123(%rip)        # 14190 <g_568>
    d06d:	8b 05 1d 71 00 00    	mov    0x711d(%rip),%eax        # 14190 <g_568>
    d073:	83 f8 06             	cmp    $0x6,%eax
    d076:	0f 86 53 fe ff ff    	jbe    cecf <func_61+0x194>
    d07c:	8b 85 70 fb ff ff    	mov    -0x490(%rbp),%eax
    d082:	0f b7 d8             	movzwl %ax,%ebx
    d085:	0f b7 85 70 fb ff ff 	movzwl -0x490(%rbp),%eax
    d08c:	98                   	cwtl   
    d08d:	89 c6                	mov    %eax,%esi
    d08f:	bf 08 00 00 00       	mov    $0x8,%edi
    d094:	e8 af 8d ff ff       	callq  5e48 <safe_rshift_func_uint16_t_u_s>
    d099:	0f b7 c0             	movzwl %ax,%eax
    d09c:	be 03 00 00 00       	mov    $0x3,%esi
    d0a1:	89 c7                	mov    %eax,%edi
    d0a3:	e8 28 8e ff ff       	callq  5ed0 <safe_sub_func_uint32_t_u_u>
    d0a8:	83 c8 01             	or     $0x1,%eax
    d0ab:	0f b6 c0             	movzbl %al,%eax
    d0ae:	89 c6                	mov    %eax,%esi
    d0b0:	bf 01 00 00 00       	mov    $0x1,%edi
    d0b5:	e8 d9 8a ff ff       	callq  5b93 <safe_mul_func_uint8_t_u_u>
    d0ba:	0f b6 c0             	movzbl %al,%eax
    d0bd:	89 de                	mov    %ebx,%esi
    d0bf:	89 c7                	mov    %eax,%edi
    d0c1:	e8 39 8c ff ff       	callq  5cff <safe_add_func_uint16_t_u_u>
    d0c6:	89 c2                	mov    %eax,%edx
    d0c8:	48 8b 05 e1 89 00 00 	mov    0x89e1(%rip),%rax        # 15ab0 <g_1019>
    d0cf:	8b 08                	mov    (%rax),%ecx
    d0d1:	0f b7 d2             	movzwl %dx,%edx
    d0d4:	21 ca                	and    %ecx,%edx
    d0d6:	89 10                	mov    %edx,(%rax)
    d0d8:	48 8d 05 d9 6f 00 00 	lea    0x6fd9(%rip),%rax        # 140b8 <g_185>
    d0df:	48 8b 5d e8          	mov    -0x18(%rbp),%rbx
    d0e3:	64 48 33 1c 25 28 00 	xor    %fs:0x28,%rbx
    d0ea:	00 00 
    d0ec:	74 05                	je     d0f3 <func_61+0x3b8>
    d0ee:	e8 7d 7f ff ff       	callq  5070 <__stack_chk_fail@plt>
    d0f3:	48 81 c4 98 04 00 00 	add    $0x498,%rsp
    d0fa:	5b                   	pop    %rbx
    d0fb:	5d                   	pop    %rbp
    d0fc:	c3                   	retq   

000000000000d0fd <func_74>:
    d0fd:	f3 0f 1e fa          	endbr64 
    d101:	55                   	push   %rbp
    d102:	48 89 e5             	mov    %rsp,%rbp
    d105:	41 54                	push   %r12
    d107:	53                   	push   %rbx
    d108:	48 81 ec 60 01 00 00 	sub    $0x160,%rsp
    d10f:	48 89 bd a8 fe ff ff 	mov    %rdi,-0x158(%rbp)
    d116:	89 d0                	mov    %edx,%eax
    d118:	48 89 8d 98 fe ff ff 	mov    %rcx,-0x168(%rbp)
    d11f:	4c 89 85 90 fe ff ff 	mov    %r8,-0x170(%rbp)
    d126:	89 f2                	mov    %esi,%edx
    d128:	66 89 95 a4 fe ff ff 	mov    %dx,-0x15c(%rbp)
    d12f:	66 89 85 a0 fe ff ff 	mov    %ax,-0x160(%rbp)
    d136:	64 48 8b 04 25 28 00 	mov    %fs:0x28,%rax
    d13d:	00 00 
    d13f:	48 89 45 e8          	mov    %rax,-0x18(%rbp)
    d143:	31 c0                	xor    %eax,%eax
    d145:	c7 85 00 ff ff ff 78 	movl   $0xc10078,-0x100(%rbp)
    d14c:	00 c1 00 
    d14f:	c6 85 04 ff ff ff 44 	movb   $0x44,-0xfc(%rbp)
    d156:	c7 85 05 ff ff ff 01 	movl   $0x41ff0201,-0xfb(%rbp)
    d15d:	02 ff 41 
    d160:	c6 85 09 ff ff ff fd 	movb   $0xfd,-0xf7(%rbp)
    d167:	c7 85 0a ff ff ff 44 	movl   $0xf6087c44,-0xf6(%rbp)
    d16e:	7c 08 f6 
    d171:	c6 85 0e ff ff ff 7c 	movb   $0x7c,-0xf2(%rbp)
    d178:	c7 85 0f ff ff ff 9b 	movl   $0xfd11099b,-0xf1(%rbp)
    d17f:	09 11 fd 
    d182:	c6 85 13 ff ff ff df 	movb   $0xdf,-0xed(%rbp)
    d189:	c7 85 14 ff ff ff 4d 	movl   $0x1f0674d,-0xec(%rbp)
    d190:	67 f0 01 
    d193:	c6 85 18 ff ff ff 53 	movb   $0x53,-0xe8(%rbp)
    d19a:	c7 85 19 ff ff ff 62 	movl   $0x62ffff62,-0xe7(%rbp)
    d1a1:	ff ff 62 
    d1a4:	c6 85 1d ff ff ff fb 	movb   $0xfb,-0xe3(%rbp)
    d1ab:	c7 85 1e ff ff ff 00 	movl   $0x8001f600,-0xe2(%rbp)
    d1b2:	f6 01 80 
    d1b5:	c6 85 22 ff ff ff 7c 	movb   $0x7c,-0xde(%rbp)
    d1bc:	c7 85 23 ff ff ff ff 	movl   $0xff7e89ff,-0xdd(%rbp)
    d1c3:	89 7e ff 
    d1c6:	c6 85 27 ff ff ff 01 	movb   $0x1,-0xd9(%rbp)
    d1cd:	c7 85 28 ff ff ff 44 	movl   $0x80010144,-0xd8(%rbp)
    d1d4:	01 01 80 
    d1d7:	c6 85 2c ff ff ff 24 	movb   $0x24,-0xd4(%rbp)
    d1de:	c7 85 2d ff ff ff a4 	movl   $0x62f695a4,-0xd3(%rbp)
    d1e5:	95 f6 62 
    d1e8:	c6 85 31 ff ff ff 9b 	movb   $0x9b,-0xcf(%rbp)
    d1ef:	c7 85 32 ff ff ff f0 	movl   $0x1017cf0,-0xce(%rbp)
    d1f6:	7c 01 01 
    d1f9:	c6 85 36 ff ff ff 78 	movb   $0x78,-0xca(%rbp)
    d200:	c7 85 37 ff ff ff 07 	movl   $0xfd014107,-0xc9(%rbp)
    d207:	41 01 fd 
    d20a:	c6 85 3b ff ff ff ff 	movb   $0xff,-0xc5(%rbp)
    d211:	c7 85 3c ff ff ff 80 	movl   $0xf6ad4480,-0xc4(%rbp)
    d218:	44 ad f6 
    d21b:	c6 85 40 ff ff ff f6 	movb   $0xf6,-0xc0(%rbp)
    d222:	c7 85 41 ff ff ff 00 	movl   $0x41008900,-0xbf(%rbp)
    d229:	89 00 41 
    d22c:	c6 85 45 ff ff ff e3 	movb   $0xe3,-0xbb(%rbp)
    d233:	c7 85 46 ff ff ff c0 	movl   $0x108c0,-0xba(%rbp)
    d23a:	08 01 00 
    d23d:	c6 85 4a ff ff ff f0 	movb   $0xf0,-0xb6(%rbp)
    d244:	c7 85 4b ff ff ff e3 	movl   $0x2a69be3,-0xb5(%rbp)
    d24b:	9b a6 02 
    d24e:	c6 85 4f ff ff ff 9b 	movb   $0x9b,-0xb1(%rbp)
    d255:	c7 85 50 ff ff ff 7c 	movl   $0xfc88677c,-0xb0(%rbp)
    d25c:	67 88 fc 
    d25f:	c6 85 54 ff ff ff 01 	movb   $0x1,-0xac(%rbp)
    d266:	c7 85 55 ff ff ff d1 	movl   $0x2a649d1,-0xab(%rbp)
    d26d:	49 a6 02 
    d270:	c6 85 59 ff ff ff 00 	movb   $0x0,-0xa7(%rbp)
    d277:	c7 85 5a ff ff ff 01 	movl   $0x107fd01,-0xa6(%rbp)
    d27e:	fd 07 01 
    d281:	c6 85 5e ff ff ff 4d 	movb   $0x4d,-0xa2(%rbp)
    d288:	c7 85 5f ff ff ff 01 	movl   $0x3500ff01,-0xa1(%rbp)
    d28f:	ff 00 35 
    d292:	c6 85 63 ff ff ff 02 	movb   $0x2,-0x9d(%rbp)
    d299:	c7 85 64 ff ff ff fd 	movl   $0x10e01fd,-0x9c(%rbp)
    d2a0:	01 0e 01 
    d2a3:	c6 85 68 ff ff ff 0e 	movb   $0xe,-0x98(%rbp)
    d2aa:	c7 85 69 ff ff ff fb 	movl   $0x4189fbfb,-0x97(%rbp)
    d2b1:	fb 89 41 
    d2b4:	c6 85 6d ff ff ff 7e 	movb   $0x7e,-0x93(%rbp)
    d2bb:	c7 85 6e ff ff ff c1 	movl   $0x6c0113c1,-0x92(%rbp)
    d2c2:	13 01 6c 
    d2c5:	c6 85 72 ff ff ff fd 	movb   $0xfd,-0x8e(%rbp)
    d2cc:	c7 85 73 ff ff ff 4f 	movl   $0x200fd4f,-0x8d(%rbp)
    d2d3:	fd 00 02 
    d2d6:	c6 85 77 ff ff ff a6 	movb   $0xa6,-0x89(%rbp)
    d2dd:	c7 85 78 ff ff ff e3 	movl   $0x85313e3,-0x88(%rbp)
    d2e4:	13 53 08 
    d2e7:	c6 85 7c ff ff ff 01 	movb   $0x1,-0x84(%rbp)
    d2ee:	c7 85 7d ff ff ff 35 	movl   $0xf83ffb35,-0x83(%rbp)
    d2f5:	fb 3f f8 
    d2f8:	c6 45 81 ff          	movb   $0xff,-0x7f(%rbp)
    d2fc:	c7 45 82 08 01 fc 13 	movl   $0x13fc0108,-0x7e(%rbp)
    d303:	c6 45 86 88          	movb   $0x88,-0x7a(%rbp)
    d307:	c7 45 87 00 ff 01 23 	movl   $0x2301ff00,-0x79(%rbp)
    d30e:	c6 45 8b 4f          	movb   $0x4f,-0x75(%rbp)
    d312:	c7 45 8c 88 fd ad ad 	movl   $0xadadfd88,-0x74(%rbp)
    d319:	c6 45 90 fd          	movb   $0xfd,-0x70(%rbp)
    d31d:	c7 45 91 b9 49 f6 4f 	movl   $0x4ff649b9,-0x6f(%rbp)
    d324:	c6 45 95 00          	movb   $0x0,-0x6b(%rbp)
    d328:	c7 45 96 f4 24 f6 4d 	movl   $0x4df624f4,-0x6a(%rbp)
    d32f:	c6 45 9a 5c          	movb   $0x5c,-0x66(%rbp)
    d333:	c7 45 9b 11 b9 3f 11 	movl   $0x113fb911,-0x65(%rbp)
    d33a:	c6 45 9f 02          	movb   $0x2,-0x61(%rbp)
    d33e:	c7 45 a0 f4 ad ff e3 	movl   $0xe3ffadf4,-0x60(%rbp)
    d345:	c6 45 a4 01          	movb   $0x1,-0x5c(%rbp)
    d349:	c7 45 a5 b9 d1 a4 fb 	movl   $0xfba4d1b9,-0x5b(%rbp)
    d350:	c6 45 a9 01          	movb   $0x1,-0x57(%rbp)
    d354:	c7 45 aa 88 01 01 6b 	movl   $0x6b010188,-0x56(%rbp)
    d35b:	c6 45 ae 01          	movb   $0x1,-0x52(%rbp)
    d35f:	c7 45 af 00 ed fd ff 	movl   $0xfffded00,-0x51(%rbp)
    d366:	c6 45 b3 3f          	movb   $0x3f,-0x4d(%rbp)
    d36a:	c7 45 b4 08 4d c0 4d 	movl   $0x4dc04d08,-0x4c(%rbp)
    d371:	c6 45 b8 08          	movb   $0x8,-0x48(%rbp)
    d375:	c7 45 b9 35 23 00 a6 	movl   $0xa6002335,-0x47(%rbp)
    d37c:	c6 45 bd fb          	movb   $0xfb,-0x43(%rbp)
    d380:	c7 45 be e3 88 af 7c 	movl   $0x7caf88e3,-0x42(%rbp)
    d387:	c6 45 c2 ad          	movb   $0xad,-0x3e(%rbp)
    d38b:	c7 45 c3 4f d1 02 23 	movl   $0x2302d14f,-0x3d(%rbp)
    d392:	c6 45 c7 fb          	movb   $0xfb,-0x39(%rbp)
    d396:	c7 45 c8 c1 7c 88 ff 	movl   $0xff887cc1,-0x38(%rbp)
    d39d:	c6 45 cc 08          	movb   $0x8,-0x34(%rbp)
    d3a1:	c7 45 cd fb 3f f8 ff 	movl   $0xfff83ffb,-0x33(%rbp)
    d3a8:	c6 45 d1 3f          	movb   $0x3f,-0x2f(%rbp)
    d3ac:	c7 45 d2 fd 24 7c 08 	movl   $0x87c24fd,-0x2e(%rbp)
    d3b3:	c6 45 d6 01          	movb   $0x1,-0x2a(%rbp)
    d3b7:	c7 45 d7 01 01 a6 fd 	movl   $0xfda60101,-0x29(%rbp)
    d3be:	c6 45 db 01          	movb   $0x1,-0x25(%rbp)
    d3c2:	c7 45 dc 01 af af 01 	movl   $0x1afaf01,-0x24(%rbp)
    d3c9:	c6 45 e0 01          	movb   $0x1,-0x20(%rbp)
    d3cd:	48 8d 05 6c 6c 00 00 	lea    0x6c6c(%rip),%rax        # 14040 <g_71>
    d3d4:	48 89 85 c8 fe ff ff 	mov    %rax,-0x138(%rbp)
    d3db:	48 8d 05 06 7d 00 00 	lea    0x7d06(%rip),%rax        # 150e8 <g_69+0x2e8>
    d3e2:	48 89 85 d0 fe ff ff 	mov    %rax,-0x130(%rbp)
    d3e9:	c7 85 b4 fe ff ff 00 	movl   $0x0,-0x14c(%rbp)
    d3f0:	00 00 00 
    d3f3:	48 8d 05 ee 7d 00 00 	lea    0x7dee(%rip),%rax        # 151e8 <g_241>
    d3fa:	48 89 85 b8 fe ff ff 	mov    %rax,-0x148(%rbp)
    d401:	48 8d 85 b8 fe ff ff 	lea    -0x148(%rbp),%rax
    d408:	48 89 85 d8 fe ff ff 	mov    %rax,-0x128(%rbp)
    d40f:	48 8d 05 1e 6c 00 00 	lea    0x6c1e(%rip),%rax        # 14034 <g_23>
    d416:	48 89 85 e0 fe ff ff 	mov    %rax,-0x120(%rbp)
    d41d:	48 8d 05 f0 6d 00 00 	lea    0x6df0(%rip),%rax        # 14214 <g_1142>
    d424:	48 89 85 e8 fe ff ff 	mov    %rax,-0x118(%rbp)
    d42b:	48 8d 05 e4 6d 00 00 	lea    0x6de4(%rip),%rax        # 14216 <g_1144>
    d432:	48 89 85 f0 fe ff ff 	mov    %rax,-0x110(%rbp)
    d439:	48 c7 85 c0 fe ff ff 	movq   $0x0,-0x140(%rbp)
    d440:	00 00 00 00 
    d444:	48 8d 85 c0 fe ff ff 	lea    -0x140(%rbp),%rax
    d44b:	48 89 85 f8 fe ff ff 	mov    %rax,-0x108(%rbp)
    d452:	0f b6 85 56 ff ff ff 	movzbl -0xaa(%rbp),%eax
    d459:	88 85 56 ff ff ff    	mov    %al,-0xaa(%rbp)
    d45f:	44 0f b6 a5 56 ff ff 	movzbl -0xaa(%rbp),%r12d
    d466:	ff 
    d467:	48 8b 05 22 86 00 00 	mov    0x8622(%rip),%rax        # 15a90 <g_926>
    d46e:	48 8b 00             	mov    (%rax),%rax
    d471:	0f b7 00             	movzwl (%rax),%eax
    d474:	0f bf d8             	movswl %ax,%ebx
    d477:	48 8b 05 12 86 00 00 	mov    0x8612(%rip),%rax        # 15a90 <g_926>
    d47e:	48 8b 00             	mov    (%rax),%rax
    d481:	0f b7 00             	movzwl (%rax),%eax
    d484:	0f b7 d0             	movzwl %ax,%edx
    d487:	48 8b 85 d8 fe ff ff 	mov    -0x128(%rbp),%rax
    d48e:	48 8d 0d 53 7d 00 00 	lea    0x7d53(%rip),%rcx        # 151e8 <g_241>
    d495:	48 89 08             	mov    %rcx,(%rax)
    d498:	48 8b 85 d8 fe ff ff 	mov    -0x128(%rbp),%rax
    d49f:	48 8b 00             	mov    (%rax),%rax
    d4a2:	48 8d 0d 3f 7d 00 00 	lea    0x7d3f(%rip),%rcx        # 151e8 <g_241>
    d4a9:	48 39 c8             	cmp    %rcx,%rax
    d4ac:	0f 94 c0             	sete   %al
    d4af:	0f b6 c8             	movzbl %al,%ecx
    d4b2:	48 8b 85 e0 fe ff ff 	mov    -0x120(%rbp),%rax
    d4b9:	89 08                	mov    %ecx,(%rax)
    d4bb:	48 8b 85 e0 fe ff ff 	mov    -0x120(%rbp),%rax
    d4c2:	8b 00                	mov    (%rax),%eax
    d4c4:	85 c0                	test   %eax,%eax
    d4c6:	74 07                	je     d4cf <func_74+0x3d2>
    d4c8:	b8 01 00 00 00       	mov    $0x1,%eax
    d4cd:	eb 05                	jmp    d4d4 <func_74+0x3d7>
    d4cf:	b8 00 00 00 00       	mov    $0x0,%eax
    d4d4:	0f b7 c0             	movzwl %ax,%eax
    d4d7:	89 d6                	mov    %edx,%esi
    d4d9:	89 c7                	mov    %eax,%edi
    d4db:	e8 1f 88 ff ff       	callq  5cff <safe_add_func_uint16_t_u_u>
    d4e0:	0f b7 95 98 fe ff ff 	movzwl -0x168(%rbp),%edx
    d4e7:	48 8b 85 e8 fe ff ff 	mov    -0x118(%rbp),%rax
    d4ee:	66 89 10             	mov    %dx,(%rax)
    d4f1:	48 8b 85 e8 fe ff ff 	mov    -0x118(%rbp),%rax
    d4f8:	0f b7 00             	movzwl (%rax),%eax
    d4fb:	98                   	cwtl   
    d4fc:	89 de                	mov    %ebx,%esi
    d4fe:	89 c7                	mov    %eax,%edi
    d500:	e8 f0 7e ff ff       	callq  53f5 <safe_mul_func_int16_t_s_s>
    d505:	48 8b 85 d0 fe ff ff 	mov    -0x130(%rbp),%rax
    d50c:	48 89 05 dd 85 00 00 	mov    %rax,0x85dd(%rip)        # 15af0 <g_1130>
    d513:	48 8b 85 c8 fe ff ff 	mov    -0x138(%rbp),%rax
    d51a:	8b 10                	mov    (%rax),%edx
    d51c:	41 0f b6 c4          	movzbl %r12b,%eax
    d520:	21 c2                	and    %eax,%edx
    d522:	48 8b 85 c8 fe ff ff 	mov    -0x138(%rbp),%rax
    d529:	89 10                	mov    %edx,(%rax)
    d52b:	48 8b 85 c8 fe ff ff 	mov    -0x138(%rbp),%rax
    d532:	8b 10                	mov    (%rax),%edx
    d534:	8b 05 22 6b 00 00    	mov    0x6b22(%rip),%eax        # 1405c <g_129>
    d53a:	39 c2                	cmp    %eax,%edx
    d53c:	0f 9c c0             	setl   %al
    d53f:	0f b6 d0             	movzbl %al,%edx
    d542:	48 8b 85 f0 fe ff ff 	mov    -0x110(%rbp),%rax
    d549:	66 89 10             	mov    %dx,(%rax)
    d54c:	48 8b 85 f0 fe ff ff 	mov    -0x110(%rbp),%rax
    d553:	0f b7 00             	movzwl (%rax),%eax
    d556:	0f b7 d0             	movzwl %ax,%edx
    d559:	48 8b 85 98 fe ff ff 	mov    -0x168(%rbp),%rax
    d560:	0f b7 c0             	movzwl %ax,%eax
    d563:	89 d6                	mov    %edx,%esi
    d565:	89 c7                	mov    %eax,%edi
    d567:	e8 93 87 ff ff       	callq  5cff <safe_add_func_uint16_t_u_u>
    d56c:	48 8b 85 f8 fe ff ff 	mov    -0x108(%rbp),%rax
    d573:	48 c7 00 00 00 00 00 	movq   $0x0,(%rax)
    d57a:	48 8b 05 8f 85 00 00 	mov    0x858f(%rip),%rax        # 15b10 <g_1147>
    d581:	48 8d 15 28 82 00 00 	lea    0x8228(%rip),%rdx        # 157b0 <g_562+0x1d0>
    d588:	48 89 10             	mov    %rdx,(%rax)
    d58b:	48 8b 05 f6 84 00 00 	mov    0x84f6(%rip),%rax        # 15a88 <g_927>
    d592:	0f b7 00             	movzwl (%rax),%eax
    d595:	48 8b 5d e8          	mov    -0x18(%rbp),%rbx
    d599:	64 48 33 1c 25 28 00 	xor    %fs:0x28,%rbx
    d5a0:	00 00 
    d5a2:	74 05                	je     d5a9 <func_74+0x4ac>
    d5a4:	e8 c7 7a ff ff       	callq  5070 <__stack_chk_fail@plt>
    d5a9:	48 81 c4 60 01 00 00 	add    $0x160,%rsp
    d5b0:	5b                   	pop    %rbx
    d5b1:	41 5c                	pop    %r12
    d5b3:	5d                   	pop    %rbp
    d5b4:	c3                   	retq   

000000000000d5b5 <func_80>:
    d5b5:	f3 0f 1e fa          	endbr64 
    d5b9:	55                   	push   %rbp
    d5ba:	48 89 e5             	mov    %rsp,%rbp
    d5bd:	48 81 ec c0 01 00 00 	sub    $0x1c0,%rsp
    d5c4:	48 89 bd 58 fe ff ff 	mov    %rdi,-0x1a8(%rbp)
    d5cb:	48 89 b5 50 fe ff ff 	mov    %rsi,-0x1b0(%rbp)
    d5d2:	48 89 95 48 fe ff ff 	mov    %rdx,-0x1b8(%rbp)
    d5d9:	48 89 8d 40 fe ff ff 	mov    %rcx,-0x1c0(%rbp)
    d5e0:	64 48 8b 04 25 28 00 	mov    %fs:0x28,%rax
    d5e7:	00 00 
    d5e9:	48 89 45 f8          	mov    %rax,-0x8(%rbp)
    d5ed:	31 c0                	xor    %eax,%eax
    d5ef:	48 8d 05 4a 6a 00 00 	lea    0x6a4a(%rip),%rax        # 14040 <g_71>
    d5f6:	48 89 85 98 fe ff ff 	mov    %rax,-0x168(%rbp)
    d5fd:	c7 85 74 fe ff ff 6d 	movl   $0x38aa0b6d,-0x18c(%rbp)
    d604:	0b aa 38 
    d607:	66 c7 85 66 fe ff ff 	movw   $0x283a,-0x19a(%rbp)
    d60e:	3a 28 
    d610:	48 8d 05 11 6a 00 00 	lea    0x6a11(%rip),%rax        # 14028 <g_3>
    d617:	48 89 85 a0 fe ff ff 	mov    %rax,-0x160(%rbp)
    d61e:	c7 85 68 fe ff ff 00 	movl   $0x0,-0x198(%rbp)
    d625:	00 00 00 
    d628:	eb 1a                	jmp    d644 <func_80+0x8f>
    d62a:	8b 85 68 fe ff ff    	mov    -0x198(%rbp),%eax
    d630:	48 98                	cltq   
    d632:	c7 84 85 d0 fe ff ff 	movl   $0xa8330d72,-0x130(%rbp,%rax,4)
    d639:	72 0d 33 a8 
    d63d:	83 85 68 fe ff ff 01 	addl   $0x1,-0x198(%rbp)
    d644:	83 bd 68 fe ff ff 08 	cmpl   $0x8,-0x198(%rbp)
    d64b:	7e dd                	jle    d62a <func_80+0x75>
    d64d:	48 8b 05 7c 84 00 00 	mov    0x847c(%rip),%rax        # 15ad0 <g_1059>
    d654:	48 8b 95 98 fe ff ff 	mov    -0x168(%rbp),%rdx
    d65b:	48 89 10             	mov    %rdx,(%rax)
    d65e:	c7 05 68 6a 00 00 00 	movl   $0x0,0x6a68(%rip)        # 140d0 <g_219>
    d665:	00 00 00 
    d668:	e9 24 03 00 00       	jmpq   d991 <func_80+0x3dc>
    d66d:	48 c7 85 a8 fe ff ff 	movq   $0x0,-0x158(%rbp)
    d674:	00 00 00 00 
    d678:	48 8d 05 c1 69 00 00 	lea    0x69c1(%rip),%rax        # 14040 <g_71>
    d67f:	48 89 85 50 ff ff ff 	mov    %rax,-0xb0(%rbp)
    d686:	48 8d 05 b3 69 00 00 	lea    0x69b3(%rip),%rax        # 14040 <g_71>
    d68d:	48 89 85 58 ff ff ff 	mov    %rax,-0xa8(%rbp)
    d694:	48 8d 05 a5 69 00 00 	lea    0x69a5(%rip),%rax        # 14040 <g_71>
    d69b:	48 89 85 60 ff ff ff 	mov    %rax,-0xa0(%rbp)
    d6a2:	48 8d 05 97 69 00 00 	lea    0x6997(%rip),%rax        # 14040 <g_71>
    d6a9:	48 89 85 68 ff ff ff 	mov    %rax,-0x98(%rbp)
    d6b0:	48 8d 05 89 69 00 00 	lea    0x6989(%rip),%rax        # 14040 <g_71>
    d6b7:	48 89 85 70 ff ff ff 	mov    %rax,-0x90(%rbp)
    d6be:	48 8d 05 7b 69 00 00 	lea    0x697b(%rip),%rax        # 14040 <g_71>
    d6c5:	48 89 85 78 ff ff ff 	mov    %rax,-0x88(%rbp)
    d6cc:	48 8d 05 6d 69 00 00 	lea    0x696d(%rip),%rax        # 14040 <g_71>
    d6d3:	48 89 45 80          	mov    %rax,-0x80(%rbp)
    d6d7:	48 8d 05 62 69 00 00 	lea    0x6962(%rip),%rax        # 14040 <g_71>
    d6de:	48 89 45 88          	mov    %rax,-0x78(%rbp)
    d6e2:	48 8d 05 57 69 00 00 	lea    0x6957(%rip),%rax        # 14040 <g_71>
    d6e9:	48 89 45 90          	mov    %rax,-0x70(%rbp)
    d6ed:	48 8d 05 4c 69 00 00 	lea    0x694c(%rip),%rax        # 14040 <g_71>
    d6f4:	48 89 45 98          	mov    %rax,-0x68(%rbp)
    d6f8:	48 c7 85 00 ff ff ff 	movq   $0x0,-0x100(%rbp)
    d6ff:	00 00 00 00 
    d703:	48 8d 85 50 ff ff ff 	lea    -0xb0(%rbp),%rax
    d70a:	48 83 c0 20          	add    $0x20,%rax
    d70e:	48 89 85 08 ff ff ff 	mov    %rax,-0xf8(%rbp)
    d715:	48 8d 85 50 ff ff ff 	lea    -0xb0(%rbp),%rax
    d71c:	48 83 c0 20          	add    $0x20,%rax
    d720:	48 89 85 10 ff ff ff 	mov    %rax,-0xf0(%rbp)
    d727:	48 c7 85 18 ff ff ff 	movq   $0x0,-0xe8(%rbp)
    d72e:	00 00 00 00 
    d732:	48 8d 85 50 ff ff ff 	lea    -0xb0(%rbp),%rax
    d739:	48 83 c0 20          	add    $0x20,%rax
    d73d:	48 89 85 20 ff ff ff 	mov    %rax,-0xe0(%rbp)
    d744:	48 8d 85 50 ff ff ff 	lea    -0xb0(%rbp),%rax
    d74b:	48 83 c0 20          	add    $0x20,%rax
    d74f:	48 89 85 28 ff ff ff 	mov    %rax,-0xd8(%rbp)
    d756:	48 c7 85 30 ff ff ff 	movq   $0x0,-0xd0(%rbp)
    d75d:	00 00 00 00 
    d761:	48 8d 85 50 ff ff ff 	lea    -0xb0(%rbp),%rax
    d768:	48 83 c0 20          	add    $0x20,%rax
    d76c:	48 89 85 38 ff ff ff 	mov    %rax,-0xc8(%rbp)
    d773:	48 8d 85 50 ff ff ff 	lea    -0xb0(%rbp),%rax
    d77a:	48 83 c0 20          	add    $0x20,%rax
    d77e:	48 89 85 40 ff ff ff 	mov    %rax,-0xc0(%rbp)
    d785:	48 8d 05 9c 68 00 00 	lea    0x689c(%rip),%rax        # 14028 <g_3>
    d78c:	48 89 85 b0 fe ff ff 	mov    %rax,-0x150(%rbp)
    d793:	c7 85 78 fe ff ff f7 	movl   $0xfffffff7,-0x188(%rbp)
    d79a:	ff ff ff 
    d79d:	c7 85 7c fe ff ff f6 	movl   $0x1b4f04f6,-0x184(%rbp)
    d7a4:	04 4f 1b 
    d7a7:	c7 85 80 fe ff ff 00 	movl   $0x0,-0x180(%rbp)
    d7ae:	00 00 00 
    d7b1:	48 8b 05 20 83 00 00 	mov    0x8320(%rip),%rax        # 15ad8 <g_1061>
    d7b8:	48 8b 95 98 fe ff ff 	mov    -0x168(%rbp),%rdx
    d7bf:	48 89 10             	mov    %rdx,(%rax)
    d7c2:	c7 05 c4 69 00 00 00 	movl   $0x0,0x69c4(%rip)        # 14190 <g_568>
    d7c9:	00 00 00 
    d7cc:	e9 a2 01 00 00       	jmpq   d973 <func_80+0x3be>
    d7d1:	48 8d 05 ac 69 00 00 	lea    0x69ac(%rip),%rax        # 14184 <g_518+0x14>
    d7d8:	48 89 85 b8 fe ff ff 	mov    %rax,-0x148(%rbp)
    d7df:	c7 85 84 fe ff ff 7c 	movl   $0x6fc0c47c,-0x17c(%rbp)
    d7e6:	c4 c0 6f 
    d7e9:	c7 85 88 fe ff ff 02 	movl   $0x2,-0x178(%rbp)
    d7f0:	00 00 00 
    d7f3:	c7 85 8c fe ff ff ff 	movl   $0xffffffff,-0x174(%rbp)
    d7fa:	ff ff ff 
    d7fd:	c7 85 90 fe ff ff cf 	movl   $0xf8e24dcf,-0x170(%rbp)
    d804:	4d e2 f8 
    d807:	c7 85 6c fe ff ff 00 	movl   $0x0,-0x194(%rbp)
    d80e:	00 00 00 
    d811:	eb 1a                	jmp    d82d <func_80+0x278>
    d813:	8b 85 6c fe ff ff    	mov    -0x194(%rbp),%eax
    d819:	48 98                	cltq   
    d81b:	c7 84 85 c0 fe ff ff 	movl   $0x5ad23d9c,-0x140(%rbp,%rax,4)
    d822:	9c 3d d2 5a 
    d826:	83 85 6c fe ff ff 01 	addl   $0x1,-0x194(%rbp)
    d82d:	83 bd 6c fe ff ff 00 	cmpl   $0x0,-0x194(%rbp)
    d834:	7e dd                	jle    d813 <func_80+0x25e>
    d836:	c7 05 28 68 00 00 00 	movl   $0x0,0x6828(%rip)        # 14068 <g_143>
    d83d:	00 00 00 
    d840:	eb 31                	jmp    d873 <func_80+0x2be>
    d842:	c7 05 04 68 00 00 00 	movl   $0x0,0x6804(%rip)        # 14050 <g_126>
    d849:	00 00 00 
    d84c:	90                   	nop
    d84d:	8b 05 fd 67 00 00    	mov    0x67fd(%rip),%eax        # 14050 <g_126>
    d853:	83 f8 02             	cmp    $0x2,%eax
    d856:	77 0c                	ja     d864 <func_80+0x2af>
    d858:	48 8b 85 b8 fe ff ff 	mov    -0x148(%rbp),%rax
    d85f:	e9 43 01 00 00       	jmpq   d9a7 <func_80+0x3f2>
    d864:	8b 05 fe 67 00 00    	mov    0x67fe(%rip),%eax        # 14068 <g_143>
    d86a:	83 c0 01             	add    $0x1,%eax
    d86d:	89 05 f5 67 00 00    	mov    %eax,0x67f5(%rip)        # 14068 <g_143>
    d873:	8b 05 ef 67 00 00    	mov    0x67ef(%rip),%eax        # 14068 <g_143>
    d879:	83 f8 02             	cmp    $0x2,%eax
    d87c:	76 c4                	jbe    d842 <func_80+0x28d>
    d87e:	66 c7 05 d1 67 00 00 	movw   $0x0,0x67d1(%rip)        # 14058 <g_128>
    d885:	00 00 
    d887:	e9 c4 00 00 00       	jmpq   d950 <func_80+0x39b>
    d88c:	c7 85 94 fe ff ff 79 	movl   $0x8fa1e679,-0x16c(%rbp)
    d893:	e6 a1 8f 
    d896:	48 8d 05 7b 8c 00 00 	lea    0x8c7b(%rip),%rax        # 16518 <g_678>
    d89d:	48 89 45 a0          	mov    %rax,-0x60(%rbp)
    d8a1:	48 8d 05 70 8c 00 00 	lea    0x8c70(%rip),%rax        # 16518 <g_678>
    d8a8:	48 89 45 a8          	mov    %rax,-0x58(%rbp)
    d8ac:	48 8d 05 65 8c 00 00 	lea    0x8c65(%rip),%rax        # 16518 <g_678>
    d8b3:	48 89 45 b0          	mov    %rax,-0x50(%rbp)
    d8b7:	48 8d 05 5a 8c 00 00 	lea    0x8c5a(%rip),%rax        # 16518 <g_678>
    d8be:	48 89 45 b8          	mov    %rax,-0x48(%rbp)
    d8c2:	48 8d 05 4f 8c 00 00 	lea    0x8c4f(%rip),%rax        # 16518 <g_678>
    d8c9:	48 89 45 c0          	mov    %rax,-0x40(%rbp)
    d8cd:	48 8d 05 44 8c 00 00 	lea    0x8c44(%rip),%rax        # 16518 <g_678>
    d8d4:	48 89 45 c8          	mov    %rax,-0x38(%rbp)
    d8d8:	48 8d 05 39 8c 00 00 	lea    0x8c39(%rip),%rax        # 16518 <g_678>
    d8df:	48 89 45 d0          	mov    %rax,-0x30(%rbp)
    d8e3:	48 8d 05 2e 8c 00 00 	lea    0x8c2e(%rip),%rax        # 16518 <g_678>
    d8ea:	48 89 45 d8          	mov    %rax,-0x28(%rbp)
    d8ee:	48 8d 05 23 8c 00 00 	lea    0x8c23(%rip),%rax        # 16518 <g_678>
    d8f5:	48 89 45 e0          	mov    %rax,-0x20(%rbp)
    d8f9:	48 8d 05 18 8c 00 00 	lea    0x8c18(%rip),%rax        # 16518 <g_678>
    d900:	48 89 45 e8          	mov    %rax,-0x18(%rbp)
    d904:	c7 85 70 fe ff ff 00 	movl   $0x0,-0x190(%rbp)
    d90b:	00 00 00 
    d90e:	eb 1a                	jmp    d92a <func_80+0x375>
    d910:	8b 85 70 fe ff ff    	mov    -0x190(%rbp),%eax
    d916:	48 98                	cltq   
    d918:	c7 84 85 c4 fe ff ff 	movl   $0xfffffffc,-0x13c(%rbp,%rax,4)
    d91f:	fc ff ff ff 
    d923:	83 85 70 fe ff ff 01 	addl   $0x1,-0x190(%rbp)
    d92a:	83 bd 70 fe ff ff 02 	cmpl   $0x2,-0x190(%rbp)
    d931:	7e dd                	jle    d910 <func_80+0x35b>
    d933:	0f b7 85 58 fe ff ff 	movzwl -0x1a8(%rbp),%eax
    d93a:	66 85 c0             	test   %ax,%ax
    d93d:	75 24                	jne    d963 <func_80+0x3ae>
    d93f:	0f b7 05 12 67 00 00 	movzwl 0x6712(%rip),%eax        # 14058 <g_128>
    d946:	83 c0 01             	add    $0x1,%eax
    d949:	66 89 05 08 67 00 00 	mov    %ax,0x6708(%rip)        # 14058 <g_128>
    d950:	0f b7 05 01 67 00 00 	movzwl 0x6701(%rip),%eax        # 14058 <g_128>
    d957:	66 83 f8 02          	cmp    $0x2,%ax
    d95b:	0f 86 2b ff ff ff    	jbe    d88c <func_80+0x2d7>
    d961:	eb 01                	jmp    d964 <func_80+0x3af>
    d963:	90                   	nop
    d964:	8b 05 26 68 00 00    	mov    0x6826(%rip),%eax        # 14190 <g_568>
    d96a:	83 c0 01             	add    $0x1,%eax
    d96d:	89 05 1d 68 00 00    	mov    %eax,0x681d(%rip)        # 14190 <g_568>
    d973:	8b 05 17 68 00 00    	mov    0x6817(%rip),%eax        # 14190 <g_568>
    d979:	83 f8 02             	cmp    $0x2,%eax
    d97c:	0f 86 4f fe ff ff    	jbe    d7d1 <func_80+0x21c>
    d982:	8b 05 48 67 00 00    	mov    0x6748(%rip),%eax        # 140d0 <g_219>
    d988:	83 c0 01             	add    $0x1,%eax
    d98b:	89 05 3f 67 00 00    	mov    %eax,0x673f(%rip)        # 140d0 <g_219>
    d991:	8b 05 39 67 00 00    	mov    0x6739(%rip),%eax        # 140d0 <g_219>
    d997:	83 f8 02             	cmp    $0x2,%eax
    d99a:	0f 86 cd fc ff ff    	jbe    d66d <func_80+0xb8>
    d9a0:	48 8b 85 a0 fe ff ff 	mov    -0x160(%rbp),%rax
    d9a7:	48 8b 4d f8          	mov    -0x8(%rbp),%rcx
    d9ab:	64 48 33 0c 25 28 00 	xor    %fs:0x28,%rcx
    d9b2:	00 00 
    d9b4:	74 05                	je     d9bb <func_80+0x406>
    d9b6:	e8 b5 76 ff ff       	callq  5070 <__stack_chk_fail@plt>
    d9bb:	c9                   	leaveq 
    d9bc:	c3                   	retq   

000000000000d9bd <func_85>:
    d9bd:	f3 0f 1e fa          	endbr64 
    d9c1:	55                   	push   %rbp
    d9c2:	48 89 e5             	mov    %rsp,%rbp
    d9c5:	41 55                	push   %r13
    d9c7:	41 54                	push   %r12
    d9c9:	53                   	push   %rbx
    d9ca:	48 81 ec f8 00 00 00 	sub    $0xf8,%rsp
    d9d1:	89 f8                	mov    %edi,%eax
    d9d3:	48 89 b5 00 ff ff ff 	mov    %rsi,-0x100(%rbp)
    d9da:	48 89 95 f8 fe ff ff 	mov    %rdx,-0x108(%rbp)
    d9e1:	48 89 8d f0 fe ff ff 	mov    %rcx,-0x110(%rbp)
    d9e8:	66 89 85 0c ff ff ff 	mov    %ax,-0xf4(%rbp)
    d9ef:	64 48 8b 04 25 28 00 	mov    %fs:0x28,%rax
    d9f6:	00 00 
    d9f8:	48 89 45 d8          	mov    %rax,-0x28(%rbp)
    d9fc:	31 c0                	xor    %eax,%eax
    d9fe:	c7 85 24 ff ff ff 14 	movl   $0x55f9fe14,-0xdc(%rbp)
    da05:	fe f9 55 
    da08:	c7 85 70 ff ff ff 70 	movl   $0xd70f0f70,-0x90(%rbp)
    da0f:	0f 0f d7 
    da12:	c7 85 74 ff ff ff 22 	movl   $0x4787e022,-0x8c(%rbp)
    da19:	e0 87 47 
    da1c:	c7 85 78 ff ff ff 70 	movl   $0xd70f0f70,-0x88(%rbp)
    da23:	0f 0f d7 
    da26:	c7 85 7c ff ff ff 70 	movl   $0xd70f0f70,-0x84(%rbp)
    da2d:	0f 0f d7 
    da30:	c7 45 80 22 e0 87 47 	movl   $0x4787e022,-0x80(%rbp)
    da37:	c7 45 84 70 0f 0f d7 	movl   $0xd70f0f70,-0x7c(%rbp)
    da3e:	c7 45 88 70 0f 0f d7 	movl   $0xd70f0f70,-0x78(%rbp)
    da45:	66 c7 85 1e ff ff ff 	movw   $0x4884,-0xe2(%rbp)
    da4c:	84 48 
    da4e:	c7 85 28 ff ff ff ff 	movl   $0xffffffff,-0xd8(%rbp)
    da55:	ff ff ff 
    da58:	48 b8 01 98 53 5d b0 	movabs $0xfd12b3b05d539801,%rax
    da5f:	b3 12 fd 
    da62:	48 89 85 30 ff ff ff 	mov    %rax,-0xd0(%rbp)
    da69:	48 8d 05 f8 65 00 00 	lea    0x65f8(%rip),%rax        # 14068 <g_143>
    da70:	48 89 85 38 ff ff ff 	mov    %rax,-0xc8(%rbp)
    da77:	c7 85 2c ff ff ff 00 	movl   $0x0,-0xd4(%rbp)
    da7e:	00 00 00 
    da81:	48 8d 05 58 77 00 00 	lea    0x7758(%rip),%rax        # 151e0 <g_242>
    da88:	48 89 85 40 ff ff ff 	mov    %rax,-0xc0(%rbp)
    da8f:	48 8d 05 c2 65 00 00 	lea    0x65c2(%rip),%rax        # 14058 <g_128>
    da96:	48 89 45 90          	mov    %rax,-0x70(%rbp)
    da9a:	48 8d 05 b7 65 00 00 	lea    0x65b7(%rip),%rax        # 14058 <g_128>
    daa1:	48 89 45 98          	mov    %rax,-0x68(%rbp)
    daa5:	48 8d 05 ac 65 00 00 	lea    0x65ac(%rip),%rax        # 14058 <g_128>
    daac:	48 89 45 a0          	mov    %rax,-0x60(%rbp)
    dab0:	48 8d 05 a1 65 00 00 	lea    0x65a1(%rip),%rax        # 14058 <g_128>
    dab7:	48 89 45 a8          	mov    %rax,-0x58(%rbp)
    dabb:	48 8d 05 96 65 00 00 	lea    0x6596(%rip),%rax        # 14058 <g_128>
    dac2:	48 89 45 b0          	mov    %rax,-0x50(%rbp)
    dac6:	48 8d 05 8b 65 00 00 	lea    0x658b(%rip),%rax        # 14058 <g_128>
    dacd:	48 89 45 b8          	mov    %rax,-0x48(%rbp)
    dad1:	48 8d 05 80 65 00 00 	lea    0x6580(%rip),%rax        # 14058 <g_128>
    dad8:	48 89 45 c0          	mov    %rax,-0x40(%rbp)
    dadc:	48 8d 05 75 65 00 00 	lea    0x6575(%rip),%rax        # 14058 <g_128>
    dae3:	48 89 45 c8          	mov    %rax,-0x38(%rbp)
    dae7:	48 8d 05 6a 65 00 00 	lea    0x656a(%rip),%rax        # 14058 <g_128>
    daee:	48 89 45 d0          	mov    %rax,-0x30(%rbp)
    daf2:	c7 85 20 ff ff ff 00 	movl   $0x0,-0xe0(%rbp)
    daf9:	00 00 00 
    dafc:	eb 1e                	jmp    db1c <func_85+0x15f>
    dafe:	8b 85 20 ff ff ff    	mov    -0xe0(%rbp),%eax
    db04:	48 98                	cltq   
    db06:	48 8d 15 4f 65 00 00 	lea    0x654f(%rip),%rdx        # 1405c <g_129>
    db0d:	48 89 94 c5 68 ff ff 	mov    %rdx,-0x98(%rbp,%rax,8)
    db14:	ff 
    db15:	83 85 20 ff ff ff 01 	addl   $0x1,-0xe0(%rbp)
    db1c:	83 bd 20 ff ff ff 00 	cmpl   $0x0,-0xe0(%rbp)
    db23:	7e d9                	jle    dafe <func_85+0x141>
    db25:	48 8b 05 84 7f 00 00 	mov    0x7f84(%rip),%rax        # 15ab0 <g_1019>
    db2c:	8b 10                	mov    (%rax),%edx
    db2e:	0b 95 24 ff ff ff    	or     -0xdc(%rbp),%edx
    db34:	89 10                	mov    %edx,(%rax)
    db36:	8b 85 24 ff ff ff    	mov    -0xdc(%rbp),%eax
    db3c:	89 85 78 ff ff ff    	mov    %eax,-0x88(%rbp)
    db42:	8b 85 78 ff ff ff    	mov    -0x88(%rbp),%eax
    db48:	0f b6 c0             	movzbl %al,%eax
    db4b:	89 c6                	mov    %eax,%esi
    db4d:	bf 01 00 00 00       	mov    $0x1,%edi
    db52:	e8 21 80 ff ff       	callq  5b78 <safe_sub_func_uint8_t_u_u>
    db57:	48 8b 05 2a 7f 00 00 	mov    0x7f2a(%rip),%rax        # 15a88 <g_927>
    db5e:	0f b7 00             	movzwl (%rax),%eax
    db61:	44 0f b7 e0          	movzwl %ax,%r12d
    db65:	8b 9d 28 ff ff ff    	mov    -0xd8(%rbp),%ebx
    db6b:	48 8b 85 f8 fe ff ff 	mov    -0x108(%rbp),%rax
    db72:	41 89 c5             	mov    %eax,%r13d
    db75:	0f b7 85 0c ff ff ff 	movzwl -0xf4(%rbp),%eax
    db7c:	0f be d0             	movsbl %al,%edx
    db7f:	48 8b 05 fa 75 00 00 	mov    0x75fa(%rip),%rax        # 15180 <g_114>
    db86:	8b 08                	mov    (%rax),%ecx
    db88:	8b b5 78 ff ff ff    	mov    -0x88(%rbp),%esi
    db8e:	40 80 ce b9          	or     $0xb9,%sil
    db92:	31 f1                	xor    %esi,%ecx
    db94:	89 08                	mov    %ecx,(%rax)
    db96:	89 d6                	mov    %edx,%esi
    db98:	bf 07 00 00 00       	mov    $0x7,%edi
    db9d:	e8 32 76 ff ff       	callq  51d4 <safe_add_func_int8_t_s_s>
    dba2:	0f be c0             	movsbl %al,%eax
    dba5:	44 89 ee             	mov    %r13d,%esi
    dba8:	89 c7                	mov    %eax,%edi
    dbaa:	e8 1d 7b ff ff       	callq  56cc <safe_mod_func_int32_t_s_s>
    dbaf:	48 98                	cltq   
    dbb1:	48 be c0 26 82 fa 24 	movabs $0x1133c924fa8226c0,%rsi
    dbb8:	c9 33 11 
    dbbb:	48 89 c7             	mov    %rax,%rdi
    dbbe:	e8 7e 7c ff ff       	callq  5841 <safe_add_func_int64_t_s_s>
    dbc3:	0f be c0             	movsbl %al,%eax
    dbc6:	89 de                	mov    %ebx,%esi
    dbc8:	89 c7                	mov    %eax,%edi
    dbca:	e8 1f 77 ff ff       	callq  52ee <safe_lshift_func_int8_t_s_u>
    dbcf:	0f be c0             	movsbl %al,%eax
    dbd2:	41 39 c4             	cmp    %eax,%r12d
    dbd5:	0f 9e c0             	setle  %al
    dbd8:	0f b6 c0             	movzbl %al,%eax
    dbdb:	48 98                	cltq   
    dbdd:	48 31 85 30 ff ff ff 	xor    %rax,-0xd0(%rbp)
    dbe4:	48 8b 85 30 ff ff ff 	mov    -0xd0(%rbp),%rax
    dbeb:	89 85 f8 fe ff ff    	mov    %eax,-0x108(%rbp)
    dbf1:	48 c7 05 cc 64 00 00 	movq   $0x0,0x64cc(%rip)        # 140c8 <g_216>
    dbf8:	00 00 00 00 
    dbfc:	e9 80 01 00 00       	jmpq   dd81 <func_85+0x3c4>
    dc01:	48 8d 05 70 7e 00 00 	lea    0x7e70(%rip),%rax        # 15a78 <g_677>
    dc08:	48 89 85 48 ff ff ff 	mov    %rax,-0xb8(%rbp)
    dc0f:	48 c7 85 50 ff ff ff 	movq   $0x0,-0xb0(%rbp)
    dc16:	00 00 00 00 
    dc1a:	48 8d 05 f7 77 00 00 	lea    0x77f7(%rip),%rax        # 15418 <g_248+0x218>
    dc21:	48 89 85 58 ff ff ff 	mov    %rax,-0xa8(%rbp)
    dc28:	48 8d 85 1e ff ff ff 	lea    -0xe2(%rbp),%rax
    dc2f:	48 89 85 60 ff ff ff 	mov    %rax,-0xa0(%rbp)
    dc36:	48 8b 85 48 ff ff ff 	mov    -0xb8(%rbp),%rax
    dc3d:	48 8b 95 38 ff ff ff 	mov    -0xc8(%rbp),%rdx
    dc44:	48 89 10             	mov    %rdx,(%rax)
    dc47:	48 8b 05 6a 7e 00 00 	mov    0x7e6a(%rip),%rax        # 15ab8 <g_1040>
    dc4e:	48 8d 95 70 ff ff ff 	lea    -0x90(%rbp),%rdx
    dc55:	48 83 c2 08          	add    $0x8,%rdx
    dc59:	48 89 10             	mov    %rdx,(%rax)
    dc5c:	83 bd 2c ff ff ff 00 	cmpl   $0x0,-0xd4(%rbp)
    dc63:	0f 85 2b 01 00 00    	jne    dd94 <func_85+0x3d7>
    dc69:	8b 05 ed 63 00 00    	mov    0x63ed(%rip),%eax        # 1405c <g_129>
    dc6f:	41 89 c5             	mov    %eax,%r13d
    dc72:	48 8b 05 17 7e 00 00 	mov    0x7e17(%rip),%rax        # 15a90 <g_926>
    dc79:	48 8b 55 c8          	mov    -0x38(%rbp),%rdx
    dc7d:	48 89 10             	mov    %rdx,(%rax)
    dc80:	48 8b 00             	mov    (%rax),%rax
    dc83:	48 85 c0             	test   %rax,%rax
    dc86:	0f 94 c0             	sete   %al
    dc89:	0f b6 d8             	movzbl %al,%ebx
    dc8c:	48 8b 05 05 7e 00 00 	mov    0x7e05(%rip),%rax        # 15a98 <g_1003>
    dc93:	0f b7 10             	movzwl (%rax),%edx
    dc96:	48 8b 85 60 ff ff ff 	mov    -0xa0(%rbp),%rax
    dc9d:	66 89 10             	mov    %dx,(%rax)
    dca0:	48 8b 85 60 ff ff ff 	mov    -0xa0(%rbp),%rax
    dca7:	44 0f b7 20          	movzwl (%rax),%r12d
    dcab:	48 8b 05 ee 7d 00 00 	mov    0x7dee(%rip),%rax        # 15aa0 <g_1002>
    dcb2:	48 8b 00             	mov    (%rax),%rax
    dcb5:	0f b7 00             	movzwl (%rax),%eax
    dcb8:	98                   	cwtl   
    dcb9:	be 0f 00 00 00       	mov    $0xf,%esi
    dcbe:	89 c7                	mov    %eax,%edi
    dcc0:	e8 9e 78 ff ff       	callq  5563 <safe_rshift_func_int16_t_s_u>
    dcc5:	66 41 39 c4          	cmp    %ax,%r12w
    dcc9:	0f 94 c0             	sete   %al
    dccc:	0f b6 c0             	movzbl %al,%eax
    dccf:	89 de                	mov    %ebx,%esi
    dcd1:	89 c7                	mov    %eax,%edi
    dcd3:	e8 bb 7e ff ff       	callq  5b93 <safe_mul_func_uint8_t_u_u>
    dcd8:	0f b7 05 0d 64 00 00 	movzwl 0x640d(%rip),%eax        # 140ec <g_308>
    dcdf:	0f b7 d0             	movzwl %ax,%edx
    dce2:	48 8b 05 97 7d 00 00 	mov    0x7d97(%rip),%rax        # 15a80 <g_874>
    dce9:	8b 00                	mov    (%rax),%eax
    dceb:	39 c2                	cmp    %eax,%edx
    dced:	0f 94 c0             	sete   %al
    dcf0:	0f b6 d0             	movzbl %al,%edx
    dcf3:	48 83 bd 40 ff ff ff 	cmpq   $0x0,-0xc0(%rbp)
    dcfa:	00 
    dcfb:	0f 95 c0             	setne  %al
    dcfe:	0f b6 c0             	movzbl %al,%eax
    dd01:	89 d6                	mov    %edx,%esi
    dd03:	89 c7                	mov    %eax,%edi
    dd05:	e8 83 7f ff ff       	callq  5c8d <safe_rshift_func_uint8_t_u_s>
    dd0a:	0f b6 d0             	movzbl %al,%edx
    dd0d:	48 8b 05 6c 74 00 00 	mov    0x746c(%rip),%rax        # 15180 <g_114>
    dd14:	8b 00                	mov    (%rax),%eax
    dd16:	89 85 f8 fe ff ff    	mov    %eax,-0x108(%rbp)
    dd1c:	48 8b 05 95 7d 00 00 	mov    0x7d95(%rip),%rax        # 15ab8 <g_1040>
    dd23:	48 8b 08             	mov    (%rax),%rcx
    dd26:	48 8b 85 58 ff ff ff 	mov    -0xa8(%rbp),%rax
    dd2d:	48 89 08             	mov    %rcx,(%rax)
    dd30:	48 8b 85 58 ff ff ff 	mov    -0xa8(%rbp),%rax
    dd37:	48 8b 00             	mov    (%rax),%rax
    dd3a:	48 8d 8d 70 ff ff ff 	lea    -0x90(%rbp),%rcx
    dd41:	48 83 c1 08          	add    $0x8,%rcx
    dd45:	48 39 c8             	cmp    %rcx,%rax
    dd48:	0f 94 c0             	sete   %al
    dd4b:	0f b6 c0             	movzbl %al,%eax
    dd4e:	89 d6                	mov    %edx,%esi
    dd50:	89 c7                	mov    %eax,%edi
    dd52:	e8 3b 77 ff ff       	callq  5492 <safe_lshift_func_int16_t_s_s>
    dd57:	98                   	cwtl   
    dd58:	44 89 ee             	mov    %r13d,%esi
    dd5b:	89 c7                	mov    %eax,%edi
    dd5d:	e8 6e 81 ff ff       	callq  5ed0 <safe_sub_func_uint32_t_u_u>
    dd62:	48 8b 05 17 74 00 00 	mov    0x7417(%rip),%rax        # 15180 <g_114>
    dd69:	c7 00 01 00 00 00    	movl   $0x1,(%rax)
    dd6f:	48 8b 05 52 63 00 00 	mov    0x6352(%rip),%rax        # 140c8 <g_216>
    dd76:	48 83 c0 01          	add    $0x1,%rax
    dd7a:	48 89 05 47 63 00 00 	mov    %rax,0x6347(%rip)        # 140c8 <g_216>
    dd81:	48 8b 05 40 63 00 00 	mov    0x6340(%rip),%rax        # 140c8 <g_216>
    dd88:	48 83 f8 01          	cmp    $0x1,%rax
    dd8c:	0f 84 6f fe ff ff    	je     dc01 <func_85+0x244>
    dd92:	eb 01                	jmp    dd95 <func_85+0x3d8>
    dd94:	90                   	nop
    dd95:	48 8b 85 00 ff ff ff 	mov    -0x100(%rbp),%rax
    dd9c:	48 8b 5d d8          	mov    -0x28(%rbp),%rbx
    dda0:	64 48 33 1c 25 28 00 	xor    %fs:0x28,%rbx
    dda7:	00 00 
    dda9:	74 05                	je     ddb0 <func_85+0x3f3>
    ddab:	e8 c0 72 ff ff       	callq  5070 <__stack_chk_fail@plt>
    ddb0:	48 81 c4 f8 00 00 00 	add    $0xf8,%rsp
    ddb7:	5b                   	pop    %rbx
    ddb8:	41 5c                	pop    %r12
    ddba:	41 5d                	pop    %r13
    ddbc:	5d                   	pop    %rbp
    ddbd:	c3                   	retq   

000000000000ddbe <func_96>:
    ddbe:	f3 0f 1e fa          	endbr64 
    ddc2:	55                   	push   %rbp
    ddc3:	48 89 e5             	mov    %rsp,%rbp
    ddc6:	48 81 ec 90 05 00 00 	sub    $0x590,%rsp
    ddcd:	48 89 bd 78 fa ff ff 	mov    %rdi,-0x588(%rbp)
    ddd4:	48 89 b5 70 fa ff ff 	mov    %rsi,-0x590(%rbp)
    dddb:	64 48 8b 04 25 28 00 	mov    %fs:0x28,%rax
    dde2:	00 00 
    dde4:	48 89 45 f8          	mov    %rax,-0x8(%rbp)
    dde8:	31 c0                	xor    %eax,%eax
    ddea:	66 c7 85 8a fa ff ff 	movw   $0x9c82,-0x576(%rbp)
    ddf1:	82 9c 
    ddf3:	c6 85 87 fa ff ff 01 	movb   $0x1,-0x579(%rbp)
    ddfa:	48 b8 29 cf 13 db c7 	movabs $0x5ce0fbc7db13cf29,%rax
    de01:	fb e0 5c 
    de04:	48 89 85 b8 fa ff ff 	mov    %rax,-0x548(%rbp)
    de0b:	48 8d 05 56 70 00 00 	lea    0x7056(%rip),%rax        # 14e68 <g_69+0x68>
    de12:	48 89 85 e0 fa ff ff 	mov    %rax,-0x520(%rbp)
    de19:	66 c7 85 8c fa ff ff 	movw   $0x0,-0x574(%rbp)
    de20:	00 00 
    de22:	48 8d 05 33 62 00 00 	lea    0x6233(%rip),%rax        # 1405c <g_129>
    de29:	48 89 85 e8 fa ff ff 	mov    %rax,-0x518(%rbp)
    de30:	66 c7 85 8e fa ff ff 	movw   $0xffff,-0x572(%rbp)
    de37:	ff ff 
    de39:	48 8d 05 e8 61 00 00 	lea    0x61e8(%rip),%rax        # 14028 <g_3>
    de40:	48 89 85 d0 fb ff ff 	mov    %rax,-0x430(%rbp)
    de47:	48 8d 05 da 61 00 00 	lea    0x61da(%rip),%rax        # 14028 <g_3>
    de4e:	48 89 85 d8 fb ff ff 	mov    %rax,-0x428(%rbp)
    de55:	48 8d 05 cc 61 00 00 	lea    0x61cc(%rip),%rax        # 14028 <g_3>
    de5c:	48 89 85 e0 fb ff ff 	mov    %rax,-0x420(%rbp)
    de63:	48 8d 05 be 61 00 00 	lea    0x61be(%rip),%rax        # 14028 <g_3>
    de6a:	48 89 85 e8 fb ff ff 	mov    %rax,-0x418(%rbp)
    de71:	48 8d 05 b0 61 00 00 	lea    0x61b0(%rip),%rax        # 14028 <g_3>
    de78:	48 89 85 f0 fb ff ff 	mov    %rax,-0x410(%rbp)
    de7f:	48 8d 05 a2 61 00 00 	lea    0x61a2(%rip),%rax        # 14028 <g_3>
    de86:	48 89 85 f8 fb ff ff 	mov    %rax,-0x408(%rbp)
    de8d:	48 8d 05 94 61 00 00 	lea    0x6194(%rip),%rax        # 14028 <g_3>
    de94:	48 89 85 00 fc ff ff 	mov    %rax,-0x400(%rbp)
    de9b:	48 8d 05 86 61 00 00 	lea    0x6186(%rip),%rax        # 14028 <g_3>
    dea2:	48 89 85 08 fc ff ff 	mov    %rax,-0x3f8(%rbp)
    dea9:	48 8d 05 78 61 00 00 	lea    0x6178(%rip),%rax        # 14028 <g_3>
    deb0:	48 89 85 10 fc ff ff 	mov    %rax,-0x3f0(%rbp)
    deb7:	48 8d 05 6a 61 00 00 	lea    0x616a(%rip),%rax        # 14028 <g_3>
    debe:	48 89 85 18 fc ff ff 	mov    %rax,-0x3e8(%rbp)
    dec5:	c7 85 a4 fa ff ff fb 	movl   $0xfffffffb,-0x55c(%rbp)
    decc:	ff ff ff 
    decf:	66 c7 85 90 fa ff ff 	movw   $0xfffc,-0x570(%rbp)
    ded6:	fc ff 
    ded8:	48 8d 05 a1 61 00 00 	lea    0x61a1(%rip),%rax        # 14080 <g_175>
    dedf:	48 89 85 f0 fa ff ff 	mov    %rax,-0x510(%rbp)
    dee6:	c7 85 a8 fa ff ff fe 	movl   $0xfffffffe,-0x558(%rbp)
    deed:	ff ff ff 
    def0:	48 8d 05 c1 61 00 00 	lea    0x61c1(%rip),%rax        # 140b8 <g_185>
    def7:	48 89 85 f8 fa ff ff 	mov    %rax,-0x508(%rbp)
    defe:	48 8d 05 b3 61 00 00 	lea    0x61b3(%rip),%rax        # 140b8 <g_185>
    df05:	48 89 85 00 fb ff ff 	mov    %rax,-0x500(%rbp)
    df0c:	66 c7 85 92 fa ff ff 	movw   $0xffff,-0x56e(%rbp)
    df13:	ff ff 
    df15:	c7 85 ac fa ff ff 21 	movl   $0x42923421,-0x554(%rbp)
    df1c:	34 92 42 
    df1f:	48 c7 85 08 fb ff ff 	movq   $0x1,-0x4f8(%rbp)
    df26:	01 00 00 00 
    df2a:	48 8d 85 20 fd ff ff 	lea    -0x2e0(%rbp),%rax
    df31:	48 8d 15 a8 30 00 00 	lea    0x30a8(%rip),%rdx        # 10fe0 <g_2039+0xf80>
    df38:	b9 5a 00 00 00       	mov    $0x5a,%ecx
    df3d:	48 89 c7             	mov    %rax,%rdi
    df40:	48 89 d6             	mov    %rdx,%rsi
    df43:	f3 48 a5             	rep movsq %ds:(%rsi),%es:(%rdi)
    df46:	48 8d 85 8a fa ff ff 	lea    -0x576(%rbp),%rax
    df4d:	48 89 85 70 fb ff ff 	mov    %rax,-0x490(%rbp)
    df54:	48 8d 85 8a fa ff ff 	lea    -0x576(%rbp),%rax
    df5b:	48 89 85 78 fb ff ff 	mov    %rax,-0x488(%rbp)
    df62:	48 8d 85 8a fa ff ff 	lea    -0x576(%rbp),%rax
    df69:	48 89 85 80 fb ff ff 	mov    %rax,-0x480(%rbp)
    df70:	48 8d 85 8a fa ff ff 	lea    -0x576(%rbp),%rax
    df77:	48 89 85 88 fb ff ff 	mov    %rax,-0x478(%rbp)
    df7e:	48 c7 85 10 fb ff ff 	movq   $0x0,-0x4f0(%rbp)
    df85:	00 00 00 00 
    df89:	48 8d 05 e0 60 00 00 	lea    0x60e0(%rip),%rax        # 14070 <g_146>
    df90:	48 89 85 18 fb ff ff 	mov    %rax,-0x4e8(%rbp)
    df97:	c7 85 b0 fa ff ff 00 	movl   $0x0,-0x550(%rbp)
    df9e:	00 00 00 
    dfa1:	c6 85 88 fa ff ff d2 	movb   $0xd2,-0x578(%rbp)
    dfa8:	48 b8 d5 4b 21 7d 17 	movabs $0x3055aa177d214bd5,%rax
    dfaf:	aa 55 30 
    dfb2:	48 89 85 20 fb ff ff 	mov    %rax,-0x4e0(%rbp)
    dfb9:	48 8d 05 78 6f 00 00 	lea    0x6f78(%rip),%rax        # 14f38 <g_69+0x138>
    dfc0:	48 89 85 28 fb ff ff 	mov    %rax,-0x4d8(%rbp)
    dfc7:	48 8d 85 87 fa ff ff 	lea    -0x579(%rbp),%rax
    dfce:	48 89 85 c0 fa ff ff 	mov    %rax,-0x540(%rbp)
    dfd5:	48 c7 85 90 fb ff ff 	movq   $0x0,-0x470(%rbp)
    dfdc:	00 00 00 00 
    dfe0:	48 8d 85 c0 fa ff ff 	lea    -0x540(%rbp),%rax
    dfe7:	48 89 85 98 fb ff ff 	mov    %rax,-0x468(%rbp)
    dfee:	48 c7 85 a0 fb ff ff 	movq   $0x0,-0x460(%rbp)
    dff5:	00 00 00 00 
    dff9:	48 c7 85 a8 fb ff ff 	movq   $0x0,-0x458(%rbp)
    e000:	00 00 00 00 
    e004:	48 8d 85 c0 fa ff ff 	lea    -0x540(%rbp),%rax
    e00b:	48 89 85 b0 fb ff ff 	mov    %rax,-0x450(%rbp)
    e012:	48 c7 85 b8 fb ff ff 	movq   $0x0,-0x448(%rbp)
    e019:	00 00 00 00 
    e01d:	48 c7 85 c0 fb ff ff 	movq   $0x0,-0x440(%rbp)
    e024:	00 00 00 00 
    e028:	48 8d 85 c0 fa ff ff 	lea    -0x540(%rbp),%rax
    e02f:	48 89 85 c8 fb ff ff 	mov    %rax,-0x438(%rbp)
    e036:	48 8d 85 90 fb ff ff 	lea    -0x470(%rbp),%rax
    e03d:	48 83 c0 08          	add    $0x8,%rax
    e041:	48 89 85 c8 fa ff ff 	mov    %rax,-0x538(%rbp)
    e048:	48 8d 05 9d 60 00 00 	lea    0x609d(%rip),%rax        # 140ec <g_308>
    e04f:	48 89 85 30 fb ff ff 	mov    %rax,-0x4d0(%rbp)
    e056:	48 8d 05 43 61 00 00 	lea    0x6143(%rip),%rax        # 141a0 <g_661>
    e05d:	48 89 85 38 fb ff ff 	mov    %rax,-0x4c8(%rbp)
    e064:	c7 85 b4 fa ff ff 04 	movl   $0x4,-0x54c(%rbp)
    e06b:	00 00 00 
    e06e:	66 c7 85 94 fa ff ff 	movw   $0xf8d1,-0x56c(%rbp)
    e075:	d1 f8 
    e077:	48 8d 85 87 fa ff ff 	lea    -0x579(%rbp),%rax
    e07e:	48 89 85 40 fb ff ff 	mov    %rax,-0x4c0(%rbp)
    e085:	48 c7 85 48 fb ff ff 	movq   $0x4,-0x4b8(%rbp)
    e08c:	04 00 00 00 
    e090:	48 8d 85 c8 fa ff ff 	lea    -0x538(%rbp),%rax
    e097:	48 89 85 d0 fa ff ff 	mov    %rax,-0x530(%rbp)
    e09e:	48 8d 85 d0 fa ff ff 	lea    -0x530(%rbp),%rax
    e0a5:	48 89 85 50 fb ff ff 	mov    %rax,-0x4b0(%rbp)
    e0ac:	48 8d 05 8d 5f 00 00 	lea    0x5f8d(%rip),%rax        # 14040 <g_71>
    e0b3:	48 89 85 d8 fa ff ff 	mov    %rax,-0x528(%rbp)
    e0ba:	48 8d 85 d8 fa ff ff 	lea    -0x528(%rbp),%rax
    e0c1:	48 89 85 58 fb ff ff 	mov    %rax,-0x4a8(%rbp)
    e0c8:	48 c7 85 60 fb ff ff 	movq   $0x0,-0x4a0(%rbp)
    e0cf:	00 00 00 00 
    e0d3:	66 c7 85 96 fa ff ff 	movw   $0x4edb,-0x56a(%rbp)
    e0da:	db 4e 
    e0dc:	48 8d 05 8d 60 00 00 	lea    0x608d(%rip),%rax        # 14170 <g_518>
    e0e3:	48 89 85 68 fb ff ff 	mov    %rax,-0x498(%rbp)
    e0ea:	c6 85 89 fa ff ff fd 	movb   $0xfd,-0x577(%rbp)
    e0f1:	c7 85 98 fa ff ff 00 	movl   $0x0,-0x568(%rbp)
    e0f8:	00 00 00 
    e0fb:	eb 51                	jmp    e14e <func_96+0x390>
    e0fd:	c7 85 9c fa ff ff 00 	movl   $0x0,-0x564(%rbp)
    e104:	00 00 00 
    e107:	eb 35                	jmp    e13e <func_96+0x380>
    e109:	8b 85 9c fa ff ff    	mov    -0x564(%rbp),%eax
    e10f:	48 63 c8             	movslq %eax,%rcx
    e112:	8b 85 98 fa ff ff    	mov    -0x568(%rbp),%eax
    e118:	48 63 d0             	movslq %eax,%rdx
    e11b:	48 89 d0             	mov    %rdx,%rax
    e11e:	48 c1 e0 03          	shl    $0x3,%rax
    e122:	48 29 d0             	sub    %rdx,%rax
    e125:	48 01 c8             	add    %rcx,%rax
    e128:	48 8d 15 a9 5f 00 00 	lea    0x5fa9(%rip),%rdx        # 140d8 <g_224>
    e12f:	48 89 94 c5 20 fc ff 	mov    %rdx,-0x3e0(%rbp,%rax,8)
    e136:	ff 
    e137:	83 85 9c fa ff ff 01 	addl   $0x1,-0x564(%rbp)
    e13e:	83 bd 9c fa ff ff 06 	cmpl   $0x6,-0x564(%rbp)
    e145:	7e c2                	jle    e109 <func_96+0x34b>
    e147:	83 85 98 fa ff ff 01 	addl   $0x1,-0x568(%rbp)
    e14e:	83 bd 98 fa ff ff 01 	cmpl   $0x1,-0x568(%rbp)
    e155:	7e a6                	jle    e0fd <func_96+0x33f>
    e157:	c7 85 98 fa ff ff 00 	movl   $0x0,-0x568(%rbp)
    e15e:	00 00 00 
    e161:	eb 7e                	jmp    e1e1 <func_96+0x423>
    e163:	c7 85 9c fa ff ff 00 	movl   $0x0,-0x564(%rbp)
    e16a:	00 00 00 
    e16d:	eb 62                	jmp    e1d1 <func_96+0x413>
    e16f:	c7 85 a0 fa ff ff 00 	movl   $0x0,-0x560(%rbp)
    e176:	00 00 00 
    e179:	eb 46                	jmp    e1c1 <func_96+0x403>
    e17b:	8b 85 a0 fa ff ff    	mov    -0x560(%rbp),%eax
    e181:	48 63 c8             	movslq %eax,%rcx
    e184:	8b 85 98 fa ff ff    	mov    -0x568(%rbp),%eax
    e18a:	48 63 d0             	movslq %eax,%rdx
    e18d:	8b 85 9c fa ff ff    	mov    -0x564(%rbp),%eax
    e193:	48 98                	cltq   
    e195:	48 01 c2             	add    %rax,%rdx
    e198:	48 89 d0             	mov    %rdx,%rax
    e19b:	48 01 c0             	add    %rax,%rax
    e19e:	48 01 d0             	add    %rdx,%rax
    e1a1:	48 01 c0             	add    %rax,%rax
    e1a4:	48 01 c8             	add    %rcx,%rax
    e1a7:	48 8d 95 20 fc ff ff 	lea    -0x3e0(%rbp),%rdx
    e1ae:	48 83 c2 58          	add    $0x58,%rdx
    e1b2:	48 89 94 c5 90 fc ff 	mov    %rdx,-0x370(%rbp,%rax,8)
    e1b9:	ff 
    e1ba:	83 85 a0 fa ff ff 01 	addl   $0x1,-0x560(%rbp)
    e1c1:	83 bd a0 fa ff ff 05 	cmpl   $0x5,-0x560(%rbp)
    e1c8:	7e b1                	jle    e17b <func_96+0x3bd>
    e1ca:	83 85 9c fa ff ff 01 	addl   $0x1,-0x564(%rbp)
    e1d1:	83 bd 9c fa ff ff 00 	cmpl   $0x0,-0x564(%rbp)
    e1d8:	7e 95                	jle    e16f <func_96+0x3b1>
    e1da:	83 85 98 fa ff ff 01 	addl   $0x1,-0x568(%rbp)
    e1e1:	83 bd 98 fa ff ff 02 	cmpl   $0x2,-0x568(%rbp)
    e1e8:	0f 8e 75 ff ff ff    	jle    e163 <func_96+0x3a5>
    e1ee:	48 8b 85 68 fb ff ff 	mov    -0x498(%rbp),%rax
    e1f5:	8b 00                	mov    (%rax),%eax
    e1f7:	48 8b 75 f8          	mov    -0x8(%rbp),%rsi
    e1fb:	64 48 33 34 25 28 00 	xor    %fs:0x28,%rsi
    e202:	00 00 
    e204:	74 05                	je     e20b <func_96+0x44d>
    e206:	e8 65 6e ff ff       	callq  5070 <__stack_chk_fail@plt>
    e20b:	c9                   	leaveq 
    e20c:	c3                   	retq   

000000000000e20d <func_99>:
    e20d:	f3 0f 1e fa          	endbr64 
    e211:	55                   	push   %rbp
    e212:	48 89 e5             	mov    %rsp,%rbp
    e215:	53                   	push   %rbx
    e216:	48 81 ec 68 06 00 00 	sub    $0x668,%rsp
    e21d:	89 bd ac f9 ff ff    	mov    %edi,-0x654(%rbp)
    e223:	48 89 b5 a0 f9 ff ff 	mov    %rsi,-0x660(%rbp)
    e22a:	48 89 95 98 f9 ff ff 	mov    %rdx,-0x668(%rbp)
    e231:	64 48 8b 04 25 28 00 	mov    %fs:0x28,%rax
    e238:	00 00 
    e23a:	48 89 45 e8          	mov    %rax,-0x18(%rbp)
    e23e:	31 c0                	xor    %eax,%eax
    e240:	48 8d 85 e0 f9 ff ff 	lea    -0x620(%rbp),%rax
    e247:	48 8d 15 b2 65 00 00 	lea    0x65b2(%rip),%rdx        # 14800 <g_2356+0x138>
    e24e:	b9 c0 00 00 00       	mov    $0xc0,%ecx
    e253:	48 89 c7             	mov    %rax,%rdi
    e256:	48 89 d6             	mov    %rdx,%rsi
    e259:	f3 48 a5             	rep movsq %ds:(%rsi),%es:(%rdi)
    e25c:	48 8d 05 c5 6e 00 00 	lea    0x6ec5(%rip),%rax        # 15128 <g_69+0x328>
    e263:	48 89 85 d0 f9 ff ff 	mov    %rax,-0x630(%rbp)
    e26a:	c7 85 c0 f9 ff ff 81 	movl   $0x1c601181,-0x640(%rbp)
    e271:	11 60 1c 
    e274:	48 b8 55 ce fb 14 f3 	movabs $0xf8de9ef314fbce55,%rax
    e27b:	9e de f8 
    e27e:	48 89 85 c8 f9 ff ff 	mov    %rax,-0x638(%rbp)
    e285:	c7 85 c4 f9 ff ff 06 	movl   $0x6,-0x63c(%rbp)
    e28c:	00 00 00 
    e28f:	c6 85 bf f9 ff ff 50 	movb   $0x50,-0x641(%rbp)
    e296:	48 8b 85 98 f9 ff ff 	mov    -0x668(%rbp),%rax
    e29d:	48 89 85 98 fe ff ff 	mov    %rax,-0x168(%rbp)
    e2a4:	48 8b 85 d0 f9 ff ff 	mov    -0x630(%rbp),%rax
    e2ab:	48 8d 15 8a 5d 00 00 	lea    0x5d8a(%rip),%rdx        # 1403c <g_70>
    e2b2:	48 89 10             	mov    %rdx,(%rax)
    e2b5:	be ff ff ff ff       	mov    $0xffffffff,%esi
    e2ba:	bf 53 00 00 00       	mov    $0x53,%edi
    e2bf:	e8 2e 6f ff ff       	callq  51f2 <safe_sub_func_int8_t_s_s>
    e2c4:	0f be c0             	movsbl %al,%eax
    e2c7:	be 0a 00 00 00       	mov    $0xa,%esi
    e2cc:	89 c7                	mov    %eax,%edi
    e2ce:	e8 90 72 ff ff       	callq  5563 <safe_rshift_func_int16_t_s_u>
    e2d3:	0f bf d8             	movswl %ax,%ebx
    e2d6:	8b 85 c0 f9 ff ff    	mov    -0x640(%rbp),%eax
    e2dc:	0f b6 c0             	movzbl %al,%eax
    e2df:	be 02 00 00 00       	mov    $0x2,%esi
    e2e4:	89 c7                	mov    %eax,%edi
    e2e6:	e8 a2 79 ff ff       	callq  5c8d <safe_rshift_func_uint8_t_u_s>
    e2eb:	0f b6 c0             	movzbl %al,%eax
    e2ee:	39 c3                	cmp    %eax,%ebx
    e2f0:	0f 9d c0             	setge  %al
    e2f3:	0f b6 c8             	movzbl %al,%ecx
    e2f6:	48 8b 05 83 6e 00 00 	mov    0x6e83(%rip),%rax        # 15180 <g_114>
    e2fd:	8b 10                	mov    (%rax),%edx
    e2ff:	21 ca                	and    %ecx,%edx
    e301:	89 10                	mov    %edx,(%rax)
    e303:	48 8b 85 d0 f9 ff ff 	mov    -0x630(%rbp),%rax
    e30a:	48 8b 00             	mov    (%rax),%rax
    e30d:	48 85 c0             	test   %rax,%rax
    e310:	75 0c                	jne    e31e <func_99+0x111>
    e312:	48 8b 85 c8 f9 ff ff 	mov    -0x638(%rbp),%rax
    e319:	e9 5c 01 00 00       	jmpq   e47a <func_99+0x26d>
    e31e:	48 b8 31 68 a3 e7 b0 	movabs $0xaf0014b0e7a36831,%rax
    e325:	14 00 af 
    e328:	48 89 85 d8 f9 ff ff 	mov    %rax,-0x628(%rbp)
    e32f:	c6 85 be f9 ff ff c9 	movb   $0xc9,-0x642(%rbp)
    e336:	0f b6 05 ff 5c 00 00 	movzbl 0x5cff(%rip),%eax        # 1403c <g_70>
    e33d:	84 c0                	test   %al,%al
    e33f:	0f 84 8b 00 00 00    	je     e3d0 <func_99+0x1c3>
    e345:	0f b6 05 fc 5c 00 00 	movzbl 0x5cfc(%rip),%eax        # 14048 <g_123>
    e34c:	0f b6 05 e9 5c 00 00 	movzbl 0x5ce9(%rip),%eax        # 1403c <g_70>
    e353:	0f be d8             	movsbl %al,%ebx
    e356:	8b 85 c8 f9 ff ff    	mov    -0x638(%rbp),%eax
    e35c:	89 c2                	mov    %eax,%edx
    e35e:	0f b7 05 f3 5c 00 00 	movzwl 0x5cf3(%rip),%eax        # 14058 <g_128>
    e365:	21 d0                	and    %edx,%eax
    e367:	66 89 05 ea 5c 00 00 	mov    %ax,0x5cea(%rip)        # 14058 <g_128>
    e36e:	0f b7 05 e3 5c 00 00 	movzwl 0x5ce3(%rip),%eax        # 14058 <g_128>
    e375:	8b 15 e1 5c 00 00    	mov    0x5ce1(%rip),%edx        # 1405c <g_129>
    e37b:	0f b7 c0             	movzwl %ax,%eax
    e37e:	31 d0                	xor    %edx,%eax
    e380:	89 05 d6 5c 00 00    	mov    %eax,0x5cd6(%rip)        # 1405c <g_129>
    e386:	8b 05 d0 5c 00 00    	mov    0x5cd0(%rip),%eax        # 1405c <g_129>
    e38c:	0f b6 c0             	movzbl %al,%eax
    e38f:	be 06 00 00 00       	mov    $0x6,%esi
    e394:	89 c7                	mov    %eax,%edi
    e396:	e8 23 79 ff ff       	callq  5cbe <safe_rshift_func_uint8_t_u_u>
    e39b:	84 c0                	test   %al,%al
    e39d:	74 13                	je     e3b2 <func_99+0x1a5>
    e39f:	48 8b 05 9a 5c 00 00 	mov    0x5c9a(%rip),%rax        # 14040 <g_71>
    e3a6:	48 85 c0             	test   %rax,%rax
    e3a9:	74 07                	je     e3b2 <func_99+0x1a5>
    e3ab:	ba 01 00 00 00       	mov    $0x1,%edx
    e3b0:	eb 05                	jmp    e3b7 <func_99+0x1aa>
    e3b2:	ba 00 00 00 00       	mov    $0x0,%edx
    e3b7:	8b 05 83 5c 00 00    	mov    0x5c83(%rip),%eax        # 14040 <g_71>
    e3bd:	39 c2                	cmp    %eax,%edx
    e3bf:	0f 94 c0             	sete   %al
    e3c2:	0f b6 c0             	movzbl %al,%eax
    e3c5:	39 c3                	cmp    %eax,%ebx
    e3c7:	75 07                	jne    e3d0 <func_99+0x1c3>
    e3c9:	ba 01 00 00 00       	mov    $0x1,%edx
    e3ce:	eb 05                	jmp    e3d5 <func_99+0x1c8>
    e3d0:	ba 00 00 00 00       	mov    $0x0,%edx
    e3d5:	8b 05 4d 5c 00 00    	mov    0x5c4d(%rip),%eax        # 14028 <g_3>
    e3db:	39 c2                	cmp    %eax,%edx
    e3dd:	7c 1b                	jl     e3fa <func_99+0x1ed>
    e3df:	80 bd bf f9 ff ff 00 	cmpb   $0x0,-0x641(%rbp)
    e3e6:	74 12                	je     e3fa <func_99+0x1ed>
    e3e8:	0f b6 05 51 5c 00 00 	movzbl 0x5c51(%rip),%eax        # 14040 <g_71>
    e3ef:	84 c0                	test   %al,%al
    e3f1:	74 07                	je     e3fa <func_99+0x1ed>
    e3f3:	b8 01 00 00 00       	mov    $0x1,%eax
    e3f8:	eb 05                	jmp    e3ff <func_99+0x1f2>
    e3fa:	b8 00 00 00 00       	mov    $0x0,%eax
    e3ff:	85 c0                	test   %eax,%eax
    e401:	0f 94 c0             	sete   %al
    e404:	0f b6 d0             	movzbl %al,%edx
    e407:	0f b6 05 32 5c 00 00 	movzbl 0x5c32(%rip),%eax        # 14040 <g_71>
    e40e:	0f b6 c0             	movzbl %al,%eax
    e411:	39 c2                	cmp    %eax,%edx
    e413:	0f 9d c0             	setge  %al
    e416:	0f b6 d0             	movzbl %al,%edx
    e419:	48 8b 85 98 f9 ff ff 	mov    -0x668(%rbp),%rax
    e420:	0f b6 00             	movzbl (%rax),%eax
    e423:	0f be c0             	movsbl %al,%eax
    e426:	21 d0                	and    %edx,%eax
    e428:	85 c0                	test   %eax,%eax
    e42a:	0f b6 85 bf f9 ff ff 	movzbl -0x641(%rbp),%eax
    e431:	0f b6 d8             	movzbl %al,%ebx
    e434:	8b 05 ee 5b 00 00    	mov    0x5bee(%rip),%eax        # 14028 <g_3>
    e43a:	0f b7 c0             	movzwl %ax,%eax
    e43d:	be 07 00 00 00       	mov    $0x7,%esi
    e442:	89 c7                	mov    %eax,%edi
    e444:	e8 31 7a ff ff       	callq  5e7a <safe_rshift_func_uint16_t_u_u>
    e449:	0f b6 c0             	movzbl %al,%eax
    e44c:	89 de                	mov    %ebx,%esi
    e44e:	89 c7                	mov    %eax,%edi
    e450:	e8 59 77 ff ff       	callq  5bae <safe_mod_func_uint8_t_u_u>
    e455:	0f b6 d0             	movzbl %al,%edx
    e458:	48 8b 85 98 f9 ff ff 	mov    -0x668(%rbp),%rax
    e45f:	0f b6 00             	movzbl (%rax),%eax
    e462:	0f be c0             	movsbl %al,%eax
    e465:	39 c2                	cmp    %eax,%edx
    e467:	0f 9c c0             	setl   %al
    e46a:	0f b6 c0             	movzbl %al,%eax
    e46d:	31 85 ac f9 ff ff    	xor    %eax,-0x654(%rbp)
    e473:	48 8b 05 c6 5b 00 00 	mov    0x5bc6(%rip),%rax        # 14040 <g_71>
    e47a:	48 8b 4d e8          	mov    -0x18(%rbp),%rcx
    e47e:	64 48 33 0c 25 28 00 	xor    %fs:0x28,%rcx
    e485:	00 00 
    e487:	74 05                	je     e48e <func_99+0x281>
    e489:	e8 e2 6b ff ff       	callq  5070 <__stack_chk_fail@plt>
    e48e:	48 81 c4 68 06 00 00 	add    $0x668,%rsp
    e495:	5b                   	pop    %rbx
    e496:	5d                   	pop    %rbp
    e497:	c3                   	retq   

000000000000e498 <main>:
    e498:	f3 0f 1e fa          	endbr64 
    e49c:	55                   	push   %rbp
    e49d:	48 89 e5             	mov    %rsp,%rbp
    e4a0:	48 83 ec 20          	sub    $0x20,%rsp
    e4a4:	89 7d ec             	mov    %edi,-0x14(%rbp)
    e4a7:	48 89 75 e0          	mov    %rsi,-0x20(%rbp)
    e4ab:	c7 45 fc 00 00 00 00 	movl   $0x0,-0x4(%rbp)
    e4b2:	83 7d ec 02          	cmpl   $0x2,-0x14(%rbp)
    e4b6:	75 25                	jne    e4dd <main+0x45>
    e4b8:	48 8b 45 e0          	mov    -0x20(%rbp),%rax
    e4bc:	48 83 c0 08          	add    $0x8,%rax
    e4c0:	48 8b 00             	mov    (%rax),%rax
    e4c3:	48 8d 35 e6 2d 00 00 	lea    0x2de6(%rip),%rsi        # 112b0 <g_2039+0x1250>
    e4ca:	48 89 c7             	mov    %rax,%rdi
    e4cd:	e8 be 6b ff ff       	callq  5090 <strcmp@plt>
    e4d2:	85 c0                	test   %eax,%eax
    e4d4:	75 07                	jne    e4dd <main+0x45>
    e4d6:	c7 45 fc 01 00 00 00 	movl   $0x1,-0x4(%rbp)
    e4dd:	e8 a7 6c ff ff       	callq  5189 <platform_main_begin>
    e4e2:	e8 b1 80 ff ff       	callq  6598 <crc32_gentab>
    e4e7:	e8 c9 82 ff ff       	callq  67b5 <func_1>
    e4ec:	c7 45 f0 00 00 00 00 	movl   $0x0,-0x10(%rbp)
    e4f3:	eb 4b                	jmp    e540 <main+0xa8>
    e4f5:	8b 45 f0             	mov    -0x10(%rbp),%eax
    e4f8:	48 98                	cltq   
    e4fa:	48 8d 14 85 00 00 00 	lea    0x0(,%rax,4),%rdx
    e501:	00 
    e502:	48 8d 05 1f 5b 00 00 	lea    0x5b1f(%rip),%rax        # 14028 <g_3>
    e509:	8b 04 02             	mov    (%rdx,%rax,1),%eax
    e50c:	48 98                	cltq   
    e50e:	8b 55 fc             	mov    -0x4(%rbp),%edx
    e511:	48 8d 35 9a 2d 00 00 	lea    0x2d9a(%rip),%rsi        # 112b2 <g_2039+0x1252>
    e518:	48 89 c7             	mov    %rax,%rdi
    e51b:	e8 d3 81 ff ff       	callq  66f3 <transparent_crc>
    e520:	83 7d fc 00          	cmpl   $0x0,-0x4(%rbp)
    e524:	74 16                	je     e53c <main+0xa4>
    e526:	8b 45 f0             	mov    -0x10(%rbp),%eax
    e529:	89 c6                	mov    %eax,%esi
    e52b:	48 8d 3d 87 2d 00 00 	lea    0x2d87(%rip),%rdi        # 112b9 <g_2039+0x1259>
    e532:	b8 00 00 00 00       	mov    $0x0,%eax
    e537:	e8 44 6b ff ff       	callq  5080 <printf@plt>
    e53c:	83 45 f0 01          	addl   $0x1,-0x10(%rbp)
    e540:	83 7d f0 02          	cmpl   $0x2,-0x10(%rbp)
    e544:	7e af                	jle    e4f5 <main+0x5d>
    e546:	8b 05 e8 5a 00 00    	mov    0x5ae8(%rip),%eax        # 14034 <g_23>
    e54c:	48 98                	cltq   
    e54e:	8b 55 fc             	mov    -0x4(%rbp),%edx
    e551:	48 8d 35 6f 2d 00 00 	lea    0x2d6f(%rip),%rsi        # 112c7 <g_2039+0x1267>
    e558:	48 89 c7             	mov    %rax,%rdi
    e55b:	e8 93 81 ff ff       	callq  66f3 <transparent_crc>
    e560:	8b 05 d2 5a 00 00    	mov    0x5ad2(%rip),%eax        # 14038 <g_40>
    e566:	48 98                	cltq   
    e568:	8b 55 fc             	mov    -0x4(%rbp),%edx
    e56b:	48 8d 35 5a 2d 00 00 	lea    0x2d5a(%rip),%rsi        # 112cc <g_2039+0x126c>
    e572:	48 89 c7             	mov    %rax,%rdi
    e575:	e8 79 81 ff ff       	callq  66f3 <transparent_crc>
    e57a:	0f b6 05 bb 5a 00 00 	movzbl 0x5abb(%rip),%eax        # 1403c <g_70>
    e581:	48 0f be c0          	movsbq %al,%rax
    e585:	8b 55 fc             	mov    -0x4(%rbp),%edx
    e588:	48 8d 35 42 2d 00 00 	lea    0x2d42(%rip),%rsi        # 112d1 <g_2039+0x1271>
    e58f:	48 89 c7             	mov    %rax,%rdi
    e592:	e8 5c 81 ff ff       	callq  66f3 <transparent_crc>
    e597:	48 8b 05 a2 5a 00 00 	mov    0x5aa2(%rip),%rax        # 14040 <g_71>
    e59e:	48 89 c1             	mov    %rax,%rcx
    e5a1:	8b 45 fc             	mov    -0x4(%rbp),%eax
    e5a4:	89 c2                	mov    %eax,%edx
    e5a6:	48 8d 35 29 2d 00 00 	lea    0x2d29(%rip),%rsi        # 112d6 <g_2039+0x1276>
    e5ad:	48 89 cf             	mov    %rcx,%rdi
    e5b0:	e8 3e 81 ff ff       	callq  66f3 <transparent_crc>
    e5b5:	8b 05 85 5a 00 00    	mov    0x5a85(%rip),%eax        # 14040 <g_71>
    e5bb:	48 98                	cltq   
    e5bd:	8b 55 fc             	mov    -0x4(%rbp),%edx
    e5c0:	48 8d 35 17 2d 00 00 	lea    0x2d17(%rip),%rsi        # 112de <g_2039+0x127e>
    e5c7:	48 89 c7             	mov    %rax,%rdi
    e5ca:	e8 24 81 ff ff       	callq  66f3 <transparent_crc>
    e5cf:	0f b7 05 6a 5a 00 00 	movzwl 0x5a6a(%rip),%eax        # 14040 <g_71>
    e5d6:	48 0f bf c0          	movswq %ax,%rax
    e5da:	8b 55 fc             	mov    -0x4(%rbp),%edx
    e5dd:	48 8d 35 02 2d 00 00 	lea    0x2d02(%rip),%rsi        # 112e6 <g_2039+0x1286>
    e5e4:	48 89 c7             	mov    %rax,%rdi
    e5e7:	e8 07 81 ff ff       	callq  66f3 <transparent_crc>
    e5ec:	0f b6 05 4d 5a 00 00 	movzbl 0x5a4d(%rip),%eax        # 14040 <g_71>
    e5f3:	0f b6 c0             	movzbl %al,%eax
    e5f6:	8b 55 fc             	mov    -0x4(%rbp),%edx
    e5f9:	48 8d 35 ee 2c 00 00 	lea    0x2cee(%rip),%rsi        # 112ee <g_2039+0x128e>
    e600:	48 89 c7             	mov    %rax,%rdi
    e603:	e8 eb 80 ff ff       	callq  66f3 <transparent_crc>
    e608:	0f b6 05 39 5a 00 00 	movzbl 0x5a39(%rip),%eax        # 14048 <g_123>
    e60f:	0f b6 c0             	movzbl %al,%eax
    e612:	8b 55 fc             	mov    -0x4(%rbp),%edx
    e615:	48 8d 35 da 2c 00 00 	lea    0x2cda(%rip),%rsi        # 112f6 <g_2039+0x1296>
    e61c:	48 89 c7             	mov    %rax,%rdi
    e61f:	e8 cf 80 ff ff       	callq  66f3 <transparent_crc>
    e624:	48 8b 05 25 5a 00 00 	mov    0x5a25(%rip),%rax        # 14050 <g_126>
    e62b:	48 89 c1             	mov    %rax,%rcx
    e62e:	8b 45 fc             	mov    -0x4(%rbp),%eax
    e631:	89 c2                	mov    %eax,%edx
    e633:	48 8d 35 c5 2c 00 00 	lea    0x2cc5(%rip),%rsi        # 112ff <g_2039+0x129f>
    e63a:	48 89 cf             	mov    %rcx,%rdi
    e63d:	e8 b1 80 ff ff       	callq  66f3 <transparent_crc>
    e642:	8b 05 08 5a 00 00    	mov    0x5a08(%rip),%eax        # 14050 <g_126>
    e648:	89 c1                	mov    %eax,%ecx
    e64a:	8b 45 fc             	mov    -0x4(%rbp),%eax
    e64d:	89 c2                	mov    %eax,%edx
    e64f:	48 8d 35 b2 2c 00 00 	lea    0x2cb2(%rip),%rsi        # 11308 <g_2039+0x12a8>
    e656:	48 89 cf             	mov    %rcx,%rdi
    e659:	e8 95 80 ff ff       	callq  66f3 <transparent_crc>
    e65e:	0f b7 05 f3 59 00 00 	movzwl 0x59f3(%rip),%eax        # 14058 <g_128>
    e665:	0f b7 c0             	movzwl %ax,%eax
    e668:	8b 55 fc             	mov    -0x4(%rbp),%edx
    e66b:	48 8d 35 9f 2c 00 00 	lea    0x2c9f(%rip),%rsi        # 11311 <g_2039+0x12b1>
    e672:	48 89 c7             	mov    %rax,%rdi
    e675:	e8 79 80 ff ff       	callq  66f3 <transparent_crc>
    e67a:	c7 45 f0 00 00 00 00 	movl   $0x0,-0x10(%rbp)
    e681:	eb 4b                	jmp    e6ce <main+0x236>
    e683:	8b 45 f0             	mov    -0x10(%rbp),%eax
    e686:	48 98                	cltq   
    e688:	48 8d 14 85 00 00 00 	lea    0x0(,%rax,4),%rdx
    e68f:	00 
    e690:	48 8d 05 c5 59 00 00 	lea    0x59c5(%rip),%rax        # 1405c <g_129>
    e697:	8b 04 02             	mov    (%rdx,%rax,1),%eax
    e69a:	48 98                	cltq   
    e69c:	8b 55 fc             	mov    -0x4(%rbp),%edx
    e69f:	48 8d 35 71 2c 00 00 	lea    0x2c71(%rip),%rsi        # 11317 <g_2039+0x12b7>
    e6a6:	48 89 c7             	mov    %rax,%rdi
    e6a9:	e8 45 80 ff ff       	callq  66f3 <transparent_crc>
    e6ae:	83 7d fc 00          	cmpl   $0x0,-0x4(%rbp)
    e6b2:	74 16                	je     e6ca <main+0x232>
    e6b4:	8b 45 f0             	mov    -0x10(%rbp),%eax
    e6b7:	89 c6                	mov    %eax,%esi
    e6b9:	48 8d 3d f9 2b 00 00 	lea    0x2bf9(%rip),%rdi        # 112b9 <g_2039+0x1259>
    e6c0:	b8 00 00 00 00       	mov    $0x0,%eax
    e6c5:	e8 b6 69 ff ff       	callq  5080 <printf@plt>
    e6ca:	83 45 f0 01          	addl   $0x1,-0x10(%rbp)
    e6ce:	83 7d f0 00          	cmpl   $0x0,-0x10(%rbp)
    e6d2:	7e af                	jle    e683 <main+0x1eb>
    e6d4:	48 8b 05 85 59 00 00 	mov    0x5985(%rip),%rax        # 14060 <g_141>
    e6db:	48 89 c1             	mov    %rax,%rcx
    e6de:	8b 45 fc             	mov    -0x4(%rbp),%eax
    e6e1:	89 c2                	mov    %eax,%edx
    e6e3:	48 8d 35 36 2c 00 00 	lea    0x2c36(%rip),%rsi        # 11320 <g_2039+0x12c0>
    e6ea:	48 89 cf             	mov    %rcx,%rdi
    e6ed:	e8 01 80 ff ff       	callq  66f3 <transparent_crc>
    e6f2:	48 8b 05 6f 59 00 00 	mov    0x596f(%rip),%rax        # 14068 <g_143>
    e6f9:	48 89 c1             	mov    %rax,%rcx
    e6fc:	8b 45 fc             	mov    -0x4(%rbp),%eax
    e6ff:	89 c2                	mov    %eax,%edx
    e701:	48 8d 35 21 2c 00 00 	lea    0x2c21(%rip),%rsi        # 11329 <g_2039+0x12c9>
    e708:	48 89 cf             	mov    %rcx,%rdi
    e70b:	e8 e3 7f ff ff       	callq  66f3 <transparent_crc>
    e710:	8b 05 52 59 00 00    	mov    0x5952(%rip),%eax        # 14068 <g_143>
    e716:	89 c1                	mov    %eax,%ecx
    e718:	8b 45 fc             	mov    -0x4(%rbp),%eax
    e71b:	89 c2                	mov    %eax,%edx
    e71d:	48 8d 35 0e 2c 00 00 	lea    0x2c0e(%rip),%rsi        # 11332 <g_2039+0x12d2>
    e724:	48 89 cf             	mov    %rcx,%rdi
    e727:	e8 c7 7f ff ff       	callq  66f3 <transparent_crc>
    e72c:	8b 05 3e 59 00 00    	mov    0x593e(%rip),%eax        # 14070 <g_146>
    e732:	89 c1                	mov    %eax,%ecx
    e734:	8b 45 fc             	mov    -0x4(%rbp),%eax
    e737:	89 c2                	mov    %eax,%edx
    e739:	48 8d 35 fb 2b 00 00 	lea    0x2bfb(%rip),%rsi        # 1133b <g_2039+0x12db>
    e740:	48 89 cf             	mov    %rcx,%rdi
    e743:	e8 ab 7f ff ff       	callq  66f3 <transparent_crc>
    e748:	c7 45 f0 00 00 00 00 	movl   $0x0,-0x10(%rbp)
    e74f:	eb 6a                	jmp    e7bb <main+0x323>
    e751:	c7 45 f4 00 00 00 00 	movl   $0x0,-0xc(%rbp)
    e758:	eb 57                	jmp    e7b1 <main+0x319>
    e75a:	8b 45 f4             	mov    -0xc(%rbp),%eax
    e75d:	48 98                	cltq   
    e75f:	8b 55 f0             	mov    -0x10(%rbp),%edx
    e762:	48 63 d2             	movslq %edx,%rdx
    e765:	48 c1 e2 02          	shl    $0x2,%rdx
    e769:	48 01 c2             	add    %rax,%rdx
    e76c:	48 8d 05 01 59 00 00 	lea    0x5901(%rip),%rax        # 14074 <g_172>
    e773:	48 01 d0             	add    %rdx,%rax
    e776:	0f b6 00             	movzbl (%rax),%eax
    e779:	0f b6 c0             	movzbl %al,%eax
    e77c:	8b 55 fc             	mov    -0x4(%rbp),%edx
    e77f:	48 8d 35 bb 2b 00 00 	lea    0x2bbb(%rip),%rsi        # 11341 <g_2039+0x12e1>
    e786:	48 89 c7             	mov    %rax,%rdi
    e789:	e8 65 7f ff ff       	callq  66f3 <transparent_crc>
    e78e:	83 7d fc 00          	cmpl   $0x0,-0x4(%rbp)
    e792:	74 19                	je     e7ad <main+0x315>
    e794:	8b 55 f4             	mov    -0xc(%rbp),%edx
    e797:	8b 45 f0             	mov    -0x10(%rbp),%eax
    e79a:	89 c6                	mov    %eax,%esi
    e79c:	48 8d 3d aa 2b 00 00 	lea    0x2baa(%rip),%rdi        # 1134d <g_2039+0x12ed>
    e7a3:	b8 00 00 00 00       	mov    $0x0,%eax
    e7a8:	e8 d3 68 ff ff       	callq  5080 <printf@plt>
    e7ad:	83 45 f4 01          	addl   $0x1,-0xc(%rbp)
    e7b1:	83 7d f4 03          	cmpl   $0x3,-0xc(%rbp)
    e7b5:	7e a3                	jle    e75a <main+0x2c2>
    e7b7:	83 45 f0 01          	addl   $0x1,-0x10(%rbp)
    e7bb:	83 7d f0 00          	cmpl   $0x0,-0x10(%rbp)
    e7bf:	7e 90                	jle    e751 <main+0x2b9>
    e7c1:	c7 45 f0 00 00 00 00 	movl   $0x0,-0x10(%rbp)
    e7c8:	eb 4a                	jmp    e814 <main+0x37c>
    e7ca:	8b 45 f0             	mov    -0x10(%rbp),%eax
    e7cd:	48 98                	cltq   
    e7cf:	48 8d 14 c5 00 00 00 	lea    0x0(,%rax,8),%rdx
    e7d6:	00 
    e7d7:	48 8d 05 a2 58 00 00 	lea    0x58a2(%rip),%rax        # 14080 <g_175>
    e7de:	48 8b 04 02          	mov    (%rdx,%rax,1),%rax
    e7e2:	8b 55 fc             	mov    -0x4(%rbp),%edx
    e7e5:	48 8d 35 73 2b 00 00 	lea    0x2b73(%rip),%rsi        # 1135f <g_2039+0x12ff>
    e7ec:	48 89 c7             	mov    %rax,%rdi
    e7ef:	e8 ff 7e ff ff       	callq  66f3 <transparent_crc>
    e7f4:	83 7d fc 00          	cmpl   $0x0,-0x4(%rbp)
    e7f8:	74 16                	je     e810 <main+0x378>
    e7fa:	8b 45 f0             	mov    -0x10(%rbp),%eax
    e7fd:	89 c6                	mov    %eax,%esi
    e7ff:	48 8d 3d b3 2a 00 00 	lea    0x2ab3(%rip),%rdi        # 112b9 <g_2039+0x1259>
    e806:	b8 00 00 00 00       	mov    $0x0,%eax
    e80b:	e8 70 68 ff ff       	callq  5080 <printf@plt>
    e810:	83 45 f0 01          	addl   $0x1,-0x10(%rbp)
    e814:	83 7d f0 06          	cmpl   $0x6,-0x10(%rbp)
    e818:	7e b0                	jle    e7ca <main+0x332>
    e81a:	48 8b 05 97 58 00 00 	mov    0x5897(%rip),%rax        # 140b8 <g_185>
    e821:	48 89 c1             	mov    %rax,%rcx
    e824:	8b 45 fc             	mov    -0x4(%rbp),%eax
    e827:	89 c2                	mov    %eax,%edx
    e829:	48 8d 35 38 2b 00 00 	lea    0x2b38(%rip),%rsi        # 11368 <g_2039+0x1308>
    e830:	48 89 cf             	mov    %rcx,%rdi
    e833:	e8 bb 7e ff ff       	callq  66f3 <transparent_crc>
    e838:	48 8b 05 81 58 00 00 	mov    0x5881(%rip),%rax        # 140c0 <g_189>
    e83f:	48 89 c1             	mov    %rax,%rcx
    e842:	8b 45 fc             	mov    -0x4(%rbp),%eax
    e845:	89 c2                	mov    %eax,%edx
    e847:	48 8d 35 20 2b 00 00 	lea    0x2b20(%rip),%rsi        # 1136e <g_2039+0x130e>
    e84e:	48 89 cf             	mov    %rcx,%rdi
    e851:	e8 9d 7e ff ff       	callq  66f3 <transparent_crc>
    e856:	8b 05 64 58 00 00    	mov    0x5864(%rip),%eax        # 140c0 <g_189>
    e85c:	89 c1                	mov    %eax,%ecx
    e85e:	8b 45 fc             	mov    -0x4(%rbp),%eax
    e861:	89 c2                	mov    %eax,%edx
    e863:	48 8d 35 0d 2b 00 00 	lea    0x2b0d(%rip),%rsi        # 11377 <g_2039+0x1317>
    e86a:	48 89 cf             	mov    %rcx,%rdi
    e86d:	e8 81 7e ff ff       	callq  66f3 <transparent_crc>
    e872:	48 8b 05 4f 58 00 00 	mov    0x584f(%rip),%rax        # 140c8 <g_216>
    e879:	8b 55 fc             	mov    -0x4(%rbp),%edx
    e87c:	48 8d 35 fd 2a 00 00 	lea    0x2afd(%rip),%rsi        # 11380 <g_2039+0x1320>
    e883:	48 89 c7             	mov    %rax,%rdi
    e886:	e8 68 7e ff ff       	callq  66f3 <transparent_crc>
    e88b:	8b 05 3f 58 00 00    	mov    0x583f(%rip),%eax        # 140d0 <g_219>
    e891:	89 c1                	mov    %eax,%ecx
    e893:	8b 45 fc             	mov    -0x4(%rbp),%eax
    e896:	89 c2                	mov    %eax,%edx
    e898:	48 8d 35 e7 2a 00 00 	lea    0x2ae7(%rip),%rsi        # 11386 <g_2039+0x1326>
    e89f:	48 89 cf             	mov    %rcx,%rdi
    e8a2:	e8 4c 7e ff ff       	callq  66f3 <transparent_crc>
    e8a7:	48 8b 05 2a 58 00 00 	mov    0x582a(%rip),%rax        # 140d8 <g_224>
    e8ae:	48 89 c1             	mov    %rax,%rcx
    e8b1:	8b 45 fc             	mov    -0x4(%rbp),%eax
    e8b4:	89 c2                	mov    %eax,%edx
    e8b6:	48 8d 35 cf 2a 00 00 	lea    0x2acf(%rip),%rsi        # 1138c <g_2039+0x132c>
    e8bd:	48 89 cf             	mov    %rcx,%rdi
    e8c0:	e8 2e 7e ff ff       	callq  66f3 <transparent_crc>
    e8c5:	8b 05 0d 58 00 00    	mov    0x580d(%rip),%eax        # 140d8 <g_224>
    e8cb:	89 c1                	mov    %eax,%ecx
    e8cd:	8b 45 fc             	mov    -0x4(%rbp),%eax
    e8d0:	89 c2                	mov    %eax,%edx
    e8d2:	48 8d 35 bc 2a 00 00 	lea    0x2abc(%rip),%rsi        # 11395 <g_2039+0x1335>
    e8d9:	48 89 cf             	mov    %rcx,%rdi
    e8dc:	e8 12 7e ff ff       	callq  66f3 <transparent_crc>
    e8e1:	0f b6 05 f8 57 00 00 	movzbl 0x57f8(%rip),%eax        # 140e0 <g_228>
    e8e8:	0f b6 c0             	movzbl %al,%eax
    e8eb:	8b 55 fc             	mov    -0x4(%rbp),%edx
    e8ee:	48 8d 35 a9 2a 00 00 	lea    0x2aa9(%rip),%rsi        # 1139e <g_2039+0x133e>
    e8f5:	48 89 c7             	mov    %rax,%rdi
    e8f8:	e8 f6 7d ff ff       	callq  66f3 <transparent_crc>
    e8fd:	8b 05 e1 57 00 00    	mov    0x57e1(%rip),%eax        # 140e4 <g_245>
    e903:	48 98                	cltq   
    e905:	8b 55 fc             	mov    -0x4(%rbp),%edx
    e908:	48 8d 35 98 2a 00 00 	lea    0x2a98(%rip),%rsi        # 113a7 <g_2039+0x1347>
    e90f:	48 89 c7             	mov    %rax,%rdi
    e912:	e8 dc 7d ff ff       	callq  66f3 <transparent_crc>
    e917:	8b 05 c7 57 00 00    	mov    0x57c7(%rip),%eax        # 140e4 <g_245>
    e91d:	48 98                	cltq   
    e91f:	8b 55 fc             	mov    -0x4(%rbp),%edx
    e922:	48 8d 35 87 2a 00 00 	lea    0x2a87(%rip),%rsi        # 113b0 <g_2039+0x1350>
    e929:	48 89 c7             	mov    %rax,%rdi
    e92c:	e8 c2 7d ff ff       	callq  66f3 <transparent_crc>
    e931:	8b 05 b1 57 00 00    	mov    0x57b1(%rip),%eax        # 140e8 <g_257>
    e937:	48 98                	cltq   
    e939:	8b 55 fc             	mov    -0x4(%rbp),%edx
    e93c:	48 8d 35 76 2a 00 00 	lea    0x2a76(%rip),%rsi        # 113b9 <g_2039+0x1359>
    e943:	48 89 c7             	mov    %rax,%rdi
    e946:	e8 a8 7d ff ff       	callq  66f3 <transparent_crc>
    e94b:	8b 05 97 57 00 00    	mov    0x5797(%rip),%eax        # 140e8 <g_257>
    e951:	48 98                	cltq   
    e953:	8b 55 fc             	mov    -0x4(%rbp),%edx
    e956:	48 8d 35 65 2a 00 00 	lea    0x2a65(%rip),%rsi        # 113c2 <g_2039+0x1362>
    e95d:	48 89 c7             	mov    %rax,%rdi
    e960:	e8 8e 7d ff ff       	callq  66f3 <transparent_crc>
    e965:	0f b7 05 80 57 00 00 	movzwl 0x5780(%rip),%eax        # 140ec <g_308>
    e96c:	0f b7 c0             	movzwl %ax,%eax
    e96f:	8b 55 fc             	mov    -0x4(%rbp),%edx
    e972:	48 8d 35 52 2a 00 00 	lea    0x2a52(%rip),%rsi        # 113cb <g_2039+0x136b>
    e979:	48 89 c7             	mov    %rax,%rdi
    e97c:	e8 72 7d ff ff       	callq  66f3 <transparent_crc>
    e981:	8b 05 81 7b 00 00    	mov    0x7b81(%rip),%eax        # 16508 <g_370>
    e987:	48 98                	cltq   
    e989:	8b 55 fc             	mov    -0x4(%rbp),%edx
    e98c:	48 8d 35 3e 2a 00 00 	lea    0x2a3e(%rip),%rsi        # 113d1 <g_2039+0x1371>
    e993:	48 89 c7             	mov    %rax,%rdi
    e996:	e8 58 7d ff ff       	callq  66f3 <transparent_crc>
    e99b:	8b 05 67 7b 00 00    	mov    0x7b67(%rip),%eax        # 16508 <g_370>
    e9a1:	48 98                	cltq   
    e9a3:	8b 55 fc             	mov    -0x4(%rbp),%edx
    e9a6:	48 8d 35 2d 2a 00 00 	lea    0x2a2d(%rip),%rsi        # 113da <g_2039+0x137a>
    e9ad:	48 89 c7             	mov    %rax,%rdi
    e9b0:	e8 3e 7d ff ff       	callq  66f3 <transparent_crc>
    e9b5:	8b 05 35 57 00 00    	mov    0x5735(%rip),%eax        # 140f0 <g_385>
    e9bb:	48 98                	cltq   
    e9bd:	8b 55 fc             	mov    -0x4(%rbp),%edx
    e9c0:	48 8d 35 1c 2a 00 00 	lea    0x2a1c(%rip),%rsi        # 113e3 <g_2039+0x1383>
    e9c7:	48 89 c7             	mov    %rax,%rdi
    e9ca:	e8 24 7d ff ff       	callq  66f3 <transparent_crc>
    e9cf:	8b 05 1b 57 00 00    	mov    0x571b(%rip),%eax        # 140f0 <g_385>
    e9d5:	48 98                	cltq   
    e9d7:	8b 55 fc             	mov    -0x4(%rbp),%edx
    e9da:	48 8d 35 0b 2a 00 00 	lea    0x2a0b(%rip),%rsi        # 113ec <g_2039+0x138c>
    e9e1:	48 89 c7             	mov    %rax,%rdi
    e9e4:	e8 0a 7d ff ff       	callq  66f3 <transparent_crc>
    e9e9:	c7 45 f0 00 00 00 00 	movl   $0x0,-0x10(%rbp)
    e9f0:	e9 dc 00 00 00       	jmpq   ead1 <main+0x639>
    e9f5:	c7 45 f4 00 00 00 00 	movl   $0x0,-0xc(%rbp)
    e9fc:	e9 c2 00 00 00       	jmpq   eac3 <main+0x62b>
    ea01:	c7 45 f8 00 00 00 00 	movl   $0x0,-0x8(%rbp)
    ea08:	e9 a8 00 00 00       	jmpq   eab5 <main+0x61d>
    ea0d:	8b 45 f8             	mov    -0x8(%rbp),%eax
    ea10:	48 98                	cltq   
    ea12:	8b 55 f0             	mov    -0x10(%rbp),%edx
    ea15:	48 63 ca             	movslq %edx,%rcx
    ea18:	8b 55 f4             	mov    -0xc(%rbp),%edx
    ea1b:	48 63 d2             	movslq %edx,%rdx
    ea1e:	48 01 ca             	add    %rcx,%rdx
    ea21:	48 c1 e2 02          	shl    $0x2,%rdx
    ea25:	48 01 d0             	add    %rdx,%rax
    ea28:	48 8d 14 85 00 00 00 	lea    0x0(,%rax,4),%rdx
    ea2f:	00 
    ea30:	48 8d 05 c9 56 00 00 	lea    0x56c9(%rip),%rax        # 14100 <g_429>
    ea37:	8b 04 02             	mov    (%rdx,%rax,1),%eax
    ea3a:	48 98                	cltq   
    ea3c:	8b 55 fc             	mov    -0x4(%rbp),%edx
    ea3f:	48 8d 35 af 29 00 00 	lea    0x29af(%rip),%rsi        # 113f5 <g_2039+0x1395>
    ea46:	48 89 c7             	mov    %rax,%rdi
    ea49:	e8 a5 7c ff ff       	callq  66f3 <transparent_crc>
    ea4e:	8b 45 f8             	mov    -0x8(%rbp),%eax
    ea51:	48 98                	cltq   
    ea53:	8b 55 f0             	mov    -0x10(%rbp),%edx
    ea56:	48 63 ca             	movslq %edx,%rcx
    ea59:	8b 55 f4             	mov    -0xc(%rbp),%edx
    ea5c:	48 63 d2             	movslq %edx,%rdx
    ea5f:	48 01 ca             	add    %rcx,%rdx
    ea62:	48 c1 e2 02          	shl    $0x2,%rdx
    ea66:	48 01 d0             	add    %rdx,%rax
    ea69:	48 8d 14 85 00 00 00 	lea    0x0(,%rax,4),%rdx
    ea70:	00 
    ea71:	48 8d 05 88 56 00 00 	lea    0x5688(%rip),%rax        # 14100 <g_429>
    ea78:	8b 04 02             	mov    (%rdx,%rax,1),%eax
    ea7b:	48 98                	cltq   
    ea7d:	8b 55 fc             	mov    -0x4(%rbp),%edx
    ea80:	48 8d 35 80 29 00 00 	lea    0x2980(%rip),%rsi        # 11407 <g_2039+0x13a7>
    ea87:	48 89 c7             	mov    %rax,%rdi
    ea8a:	e8 64 7c ff ff       	callq  66f3 <transparent_crc>
    ea8f:	83 7d fc 00          	cmpl   $0x0,-0x4(%rbp)
    ea93:	74 1c                	je     eab1 <main+0x619>
    ea95:	8b 4d f8             	mov    -0x8(%rbp),%ecx
    ea98:	8b 55 f4             	mov    -0xc(%rbp),%edx
    ea9b:	8b 45 f0             	mov    -0x10(%rbp),%eax
    ea9e:	89 c6                	mov    %eax,%esi
    eaa0:	48 8d 3d 72 29 00 00 	lea    0x2972(%rip),%rdi        # 11419 <g_2039+0x13b9>
    eaa7:	b8 00 00 00 00       	mov    $0x0,%eax
    eaac:	e8 cf 65 ff ff       	callq  5080 <printf@plt>
    eab1:	83 45 f8 01          	addl   $0x1,-0x8(%rbp)
    eab5:	83 7d f8 03          	cmpl   $0x3,-0x8(%rbp)
    eab9:	0f 8e 4e ff ff ff    	jle    ea0d <main+0x575>
    eabf:	83 45 f4 01          	addl   $0x1,-0xc(%rbp)
    eac3:	83 7d f4 00          	cmpl   $0x0,-0xc(%rbp)
    eac7:	0f 8e 34 ff ff ff    	jle    ea01 <main+0x569>
    eacd:	83 45 f0 01          	addl   $0x1,-0x10(%rbp)
    ead1:	83 7d f0 06          	cmpl   $0x6,-0x10(%rbp)
    ead5:	0f 8e 1a ff ff ff    	jle    e9f5 <main+0x55d>
    eadb:	c7 45 f0 00 00 00 00 	movl   $0x0,-0x10(%rbp)
    eae2:	eb 4b                	jmp    eb2f <main+0x697>
    eae4:	8b 45 f0             	mov    -0x10(%rbp),%eax
    eae7:	48 98                	cltq   
    eae9:	48 8d 14 85 00 00 00 	lea    0x0(,%rax,4),%rdx
    eaf0:	00 
    eaf1:	48 8d 05 78 56 00 00 	lea    0x5678(%rip),%rax        # 14170 <g_518>
    eaf8:	8b 04 02             	mov    (%rdx,%rax,1),%eax
    eafb:	48 98                	cltq   
    eafd:	8b 55 fc             	mov    -0x4(%rbp),%edx
    eb00:	48 8d 35 28 29 00 00 	lea    0x2928(%rip),%rsi        # 1142f <g_2039+0x13cf>
    eb07:	48 89 c7             	mov    %rax,%rdi
    eb0a:	e8 e4 7b ff ff       	callq  66f3 <transparent_crc>
    eb0f:	83 7d fc 00          	cmpl   $0x0,-0x4(%rbp)
    eb13:	74 16                	je     eb2b <main+0x693>
    eb15:	8b 45 f0             	mov    -0x10(%rbp),%eax
    eb18:	89 c6                	mov    %eax,%esi
    eb1a:	48 8d 3d 98 27 00 00 	lea    0x2798(%rip),%rdi        # 112b9 <g_2039+0x1259>
    eb21:	b8 00 00 00 00       	mov    $0x0,%eax
    eb26:	e8 55 65 ff ff       	callq  5080 <printf@plt>
    eb2b:	83 45 f0 01          	addl   $0x1,-0x10(%rbp)
    eb2f:	83 7d f0 06          	cmpl   $0x6,-0x10(%rbp)
    eb33:	7e af                	jle    eae4 <main+0x64c>
    eb35:	48 8b 05 54 56 00 00 	mov    0x5654(%rip),%rax        # 14190 <g_568>
    eb3c:	48 89 c1             	mov    %rax,%rcx
    eb3f:	8b 45 fc             	mov    -0x4(%rbp),%eax
    eb42:	89 c2                	mov    %eax,%edx
    eb44:	48 8d 35 ed 28 00 00 	lea    0x28ed(%rip),%rsi        # 11438 <g_2039+0x13d8>
    eb4b:	48 89 cf             	mov    %rcx,%rdi
    eb4e:	e8 a0 7b ff ff       	callq  66f3 <transparent_crc>
    eb53:	8b 05 37 56 00 00    	mov    0x5637(%rip),%eax        # 14190 <g_568>
    eb59:	89 c1                	mov    %eax,%ecx
    eb5b:	8b 45 fc             	mov    -0x4(%rbp),%eax
    eb5e:	89 c2                	mov    %eax,%edx
    eb60:	48 8d 35 da 28 00 00 	lea    0x28da(%rip),%rsi        # 11441 <g_2039+0x13e1>
    eb67:	48 89 cf             	mov    %rcx,%rdi
    eb6a:	e8 84 7b ff ff       	callq  66f3 <transparent_crc>
    eb6f:	0f b6 05 22 56 00 00 	movzbl 0x5622(%rip),%eax        # 14198 <g_607>
    eb76:	48 0f be c0          	movsbq %al,%rax
    eb7a:	8b 55 fc             	mov    -0x4(%rbp),%edx
    eb7d:	48 8d 35 c6 28 00 00 	lea    0x28c6(%rip),%rsi        # 1144a <g_2039+0x13ea>
    eb84:	48 89 c7             	mov    %rax,%rdi
    eb87:	e8 67 7b ff ff       	callq  66f3 <transparent_crc>
    eb8c:	8b 05 0a 56 00 00    	mov    0x560a(%rip),%eax        # 1419c <g_617>
    eb92:	89 c1                	mov    %eax,%ecx
    eb94:	8b 45 fc             	mov    -0x4(%rbp),%eax
    eb97:	89 c2                	mov    %eax,%edx
    eb99:	48 8d 35 b0 28 00 00 	lea    0x28b0(%rip),%rsi        # 11450 <g_2039+0x13f0>
    eba0:	48 89 cf             	mov    %rcx,%rdi
    eba3:	e8 4b 7b ff ff       	callq  66f3 <transparent_crc>
    eba8:	48 8b 05 f1 55 00 00 	mov    0x55f1(%rip),%rax        # 141a0 <g_661>
    ebaf:	48 89 c1             	mov    %rax,%rcx
    ebb2:	8b 45 fc             	mov    -0x4(%rbp),%eax
    ebb5:	89 c2                	mov    %eax,%edx
    ebb7:	48 8d 35 98 28 00 00 	lea    0x2898(%rip),%rsi        # 11456 <g_2039+0x13f6>
    ebbe:	48 89 cf             	mov    %rcx,%rdi
    ebc1:	e8 2d 7b ff ff       	callq  66f3 <transparent_crc>
    ebc6:	8b 05 dc 55 00 00    	mov    0x55dc(%rip),%eax        # 141a8 <g_668>
    ebcc:	48 98                	cltq   
    ebce:	8b 55 fc             	mov    -0x4(%rbp),%edx
    ebd1:	48 8d 35 87 28 00 00 	lea    0x2887(%rip),%rsi        # 1145f <g_2039+0x13ff>
    ebd8:	48 89 c7             	mov    %rax,%rdi
    ebdb:	e8 13 7b ff ff       	callq  66f3 <transparent_crc>
    ebe0:	8b 05 c2 55 00 00    	mov    0x55c2(%rip),%eax        # 141a8 <g_668>
    ebe6:	48 98                	cltq   
    ebe8:	8b 55 fc             	mov    -0x4(%rbp),%edx
    ebeb:	48 8d 35 76 28 00 00 	lea    0x2876(%rip),%rsi        # 11468 <g_2039+0x1408>
    ebf2:	48 89 c7             	mov    %rax,%rdi
    ebf5:	e8 f9 7a ff ff       	callq  66f3 <transparent_crc>
    ebfa:	48 8b 05 17 79 00 00 	mov    0x7917(%rip),%rax        # 16518 <g_678>
    ec01:	48 89 c1             	mov    %rax,%rcx
    ec04:	8b 45 fc             	mov    -0x4(%rbp),%eax
    ec07:	89 c2                	mov    %eax,%edx
    ec09:	48 8d 35 61 28 00 00 	lea    0x2861(%rip),%rsi        # 11471 <g_2039+0x1411>
    ec10:	48 89 cf             	mov    %rcx,%rdi
    ec13:	e8 db 7a ff ff       	callq  66f3 <transparent_crc>
    ec18:	8b 05 fa 78 00 00    	mov    0x78fa(%rip),%eax        # 16518 <g_678>
    ec1e:	89 c1                	mov    %eax,%ecx
    ec20:	8b 45 fc             	mov    -0x4(%rbp),%eax
    ec23:	89 c2                	mov    %eax,%edx
    ec25:	48 8d 35 4e 28 00 00 	lea    0x284e(%rip),%rsi        # 1147a <g_2039+0x141a>
    ec2c:	48 89 cf             	mov    %rcx,%rdi
    ec2f:	e8 bf 7a ff ff       	callq  66f3 <transparent_crc>
    ec34:	48 8b 05 75 55 00 00 	mov    0x5575(%rip),%rax        # 141b0 <g_712>
    ec3b:	48 89 c1             	mov    %rax,%rcx
    ec3e:	8b 45 fc             	mov    -0x4(%rbp),%eax
    ec41:	89 c2                	mov    %eax,%edx
    ec43:	48 8d 35 39 28 00 00 	lea    0x2839(%rip),%rsi        # 11483 <g_2039+0x1423>
    ec4a:	48 89 cf             	mov    %rcx,%rdi
    ec4d:	e8 a1 7a ff ff       	callq  66f3 <transparent_crc>
    ec52:	8b 05 58 55 00 00    	mov    0x5558(%rip),%eax        # 141b0 <g_712>
    ec58:	89 c1                	mov    %eax,%ecx
    ec5a:	8b 45 fc             	mov    -0x4(%rbp),%eax
    ec5d:	89 c2                	mov    %eax,%edx
    ec5f:	48 8d 35 26 28 00 00 	lea    0x2826(%rip),%rsi        # 1148c <g_2039+0x142c>
    ec66:	48 89 cf             	mov    %rcx,%rdi
    ec69:	e8 85 7a ff ff       	callq  66f3 <transparent_crc>
    ec6e:	c7 45 f0 00 00 00 00 	movl   $0x0,-0x10(%rbp)
    ec75:	eb 46                	jmp    ecbd <main+0x825>
    ec77:	8b 45 f0             	mov    -0x10(%rbp),%eax
    ec7a:	48 98                	cltq   
    ec7c:	48 8d 15 d1 13 00 00 	lea    0x13d1(%rip),%rdx        # 10054 <g_727>
    ec83:	0f b6 04 10          	movzbl (%rax,%rdx,1),%eax
    ec87:	48 0f be c0          	movsbq %al,%rax
    ec8b:	8b 55 fc             	mov    -0x4(%rbp),%edx
    ec8e:	48 8d 35 00 28 00 00 	lea    0x2800(%rip),%rsi        # 11495 <g_2039+0x1435>
    ec95:	48 89 c7             	mov    %rax,%rdi
    ec98:	e8 56 7a ff ff       	callq  66f3 <transparent_crc>
    ec9d:	83 7d fc 00          	cmpl   $0x0,-0x4(%rbp)
    eca1:	74 16                	je     ecb9 <main+0x821>
    eca3:	8b 45 f0             	mov    -0x10(%rbp),%eax
    eca6:	89 c6                	mov    %eax,%esi
    eca8:	48 8d 3d 0a 26 00 00 	lea    0x260a(%rip),%rdi        # 112b9 <g_2039+0x1259>
    ecaf:	b8 00 00 00 00       	mov    $0x0,%eax
    ecb4:	e8 c7 63 ff ff       	callq  5080 <printf@plt>
    ecb9:	83 45 f0 01          	addl   $0x1,-0x10(%rbp)
    ecbd:	83 7d f0 02          	cmpl   $0x2,-0x10(%rbp)
    ecc1:	7e b4                	jle    ec77 <main+0x7df>
    ecc3:	c7 45 f0 00 00 00 00 	movl   $0x0,-0x10(%rbp)
    ecca:	eb 76                	jmp    ed42 <main+0x8aa>
    eccc:	8b 45 f0             	mov    -0x10(%rbp),%eax
    eccf:	48 98                	cltq   
    ecd1:	48 8d 14 85 00 00 00 	lea    0x0(,%rax,4),%rdx
    ecd8:	00 
    ecd9:	48 8d 05 e0 54 00 00 	lea    0x54e0(%rip),%rax        # 141c0 <g_816>
    ece0:	8b 04 02             	mov    (%rdx,%rax,1),%eax
    ece3:	48 98                	cltq   
    ece5:	8b 55 fc             	mov    -0x4(%rbp),%edx
    ece8:	48 8d 35 af 27 00 00 	lea    0x27af(%rip),%rsi        # 1149e <g_2039+0x143e>
    ecef:	48 89 c7             	mov    %rax,%rdi
    ecf2:	e8 fc 79 ff ff       	callq  66f3 <transparent_crc>
    ecf7:	8b 45 f0             	mov    -0x10(%rbp),%eax
    ecfa:	48 98                	cltq   
    ecfc:	48 8d 14 85 00 00 00 	lea    0x0(,%rax,4),%rdx
    ed03:	00 
    ed04:	48 8d 05 b5 54 00 00 	lea    0x54b5(%rip),%rax        # 141c0 <g_816>
    ed0b:	8b 04 02             	mov    (%rdx,%rax,1),%eax
    ed0e:	48 98                	cltq   
    ed10:	8b 55 fc             	mov    -0x4(%rbp),%edx
    ed13:	48 8d 35 90 27 00 00 	lea    0x2790(%rip),%rsi        # 114aa <g_2039+0x144a>
    ed1a:	48 89 c7             	mov    %rax,%rdi
    ed1d:	e8 d1 79 ff ff       	callq  66f3 <transparent_crc>
    ed22:	83 7d fc 00          	cmpl   $0x0,-0x4(%rbp)
    ed26:	74 16                	je     ed3e <main+0x8a6>
    ed28:	8b 45 f0             	mov    -0x10(%rbp),%eax
    ed2b:	89 c6                	mov    %eax,%esi
    ed2d:	48 8d 3d 85 25 00 00 	lea    0x2585(%rip),%rdi        # 112b9 <g_2039+0x1259>
    ed34:	b8 00 00 00 00       	mov    $0x0,%eax
    ed39:	e8 42 63 ff ff       	callq  5080 <printf@plt>
    ed3e:	83 45 f0 01          	addl   $0x1,-0x10(%rbp)
    ed42:	83 7d f0 03          	cmpl   $0x3,-0x10(%rbp)
    ed46:	7e 84                	jle    eccc <main+0x834>
    ed48:	48 8b 05 81 54 00 00 	mov    0x5481(%rip),%rax        # 141d0 <g_841>
    ed4f:	48 89 c1             	mov    %rax,%rcx
    ed52:	8b 45 fc             	mov    -0x4(%rbp),%eax
    ed55:	89 c2                	mov    %eax,%edx
    ed57:	48 8d 35 58 27 00 00 	lea    0x2758(%rip),%rsi        # 114b6 <g_2039+0x1456>
    ed5e:	48 89 cf             	mov    %rcx,%rdi
    ed61:	e8 8d 79 ff ff       	callq  66f3 <transparent_crc>
    ed66:	8b 05 64 54 00 00    	mov    0x5464(%rip),%eax        # 141d0 <g_841>
    ed6c:	89 c1                	mov    %eax,%ecx
    ed6e:	8b 45 fc             	mov    -0x4(%rbp),%eax
    ed71:	89 c2                	mov    %eax,%edx
    ed73:	48 8d 35 45 27 00 00 	lea    0x2745(%rip),%rsi        # 114bf <g_2039+0x145f>
    ed7a:	48 89 cf             	mov    %rcx,%rdi
    ed7d:	e8 71 79 ff ff       	callq  66f3 <transparent_crc>
    ed82:	c7 45 f0 00 00 00 00 	movl   $0x0,-0x10(%rbp)
    ed89:	eb 6c                	jmp    edf7 <main+0x95f>
    ed8b:	c7 45 f4 00 00 00 00 	movl   $0x0,-0xc(%rbp)
    ed92:	eb 59                	jmp    eded <main+0x955>
    ed94:	8b 45 f4             	mov    -0xc(%rbp),%eax
    ed97:	48 63 d0             	movslq %eax,%rdx
    ed9a:	8b 45 f0             	mov    -0x10(%rbp),%eax
    ed9d:	48 98                	cltq   
    ed9f:	48 01 d0             	add    %rdx,%rax
    eda2:	48 8d 14 85 00 00 00 	lea    0x0(,%rax,4),%rdx
    eda9:	00 
    edaa:	48 8d 05 2f 54 00 00 	lea    0x542f(%rip),%rax        # 141e0 <g_1016>
    edb1:	8b 04 02             	mov    (%rdx,%rax,1),%eax
    edb4:	89 c1                	mov    %eax,%ecx
    edb6:	8b 45 fc             	mov    -0x4(%rbp),%eax
    edb9:	89 c2                	mov    %eax,%edx
    edbb:	48 8d 35 06 27 00 00 	lea    0x2706(%rip),%rsi        # 114c8 <g_2039+0x1468>
    edc2:	48 89 cf             	mov    %rcx,%rdi
    edc5:	e8 29 79 ff ff       	callq  66f3 <transparent_crc>
    edca:	83 7d fc 00          	cmpl   $0x0,-0x4(%rbp)
    edce:	74 19                	je     ede9 <main+0x951>
    edd0:	8b 55 f4             	mov    -0xc(%rbp),%edx
    edd3:	8b 45 f0             	mov    -0x10(%rbp),%eax
    edd6:	89 c6                	mov    %eax,%esi
    edd8:	48 8d 3d 6e 25 00 00 	lea    0x256e(%rip),%rdi        # 1134d <g_2039+0x12ed>
    eddf:	b8 00 00 00 00       	mov    $0x0,%eax
    ede4:	e8 97 62 ff ff       	callq  5080 <printf@plt>
    ede9:	83 45 f4 01          	addl   $0x1,-0xc(%rbp)
    eded:	83 7d f4 00          	cmpl   $0x0,-0xc(%rbp)
    edf1:	7e a1                	jle    ed94 <main+0x8fc>
    edf3:	83 45 f0 01          	addl   $0x1,-0x10(%rbp)
    edf7:	83 7d f0 09          	cmpl   $0x9,-0x10(%rbp)
    edfb:	7e 8e                	jle    ed8b <main+0x8f3>
    edfd:	48 8b 05 04 54 00 00 	mov    0x5404(%rip),%rax        # 14208 <g_1094>
    ee04:	48 89 c1             	mov    %rax,%rcx
    ee07:	8b 45 fc             	mov    -0x4(%rbp),%eax
    ee0a:	89 c2                	mov    %eax,%edx
    ee0c:	48 8d 35 c2 26 00 00 	lea    0x26c2(%rip),%rsi        # 114d5 <g_2039+0x1475>
    ee13:	48 89 cf             	mov    %rcx,%rdi
    ee16:	e8 d8 78 ff ff       	callq  66f3 <transparent_crc>
    ee1b:	8b 05 e7 53 00 00    	mov    0x53e7(%rip),%eax        # 14208 <g_1094>
    ee21:	89 c1                	mov    %eax,%ecx
    ee23:	8b 45 fc             	mov    -0x4(%rbp),%eax
    ee26:	89 c2                	mov    %eax,%edx
    ee28:	48 8d 35 b0 26 00 00 	lea    0x26b0(%rip),%rsi        # 114df <g_2039+0x147f>
    ee2f:	48 89 cf             	mov    %rcx,%rdi
    ee32:	e8 bc 78 ff ff       	callq  66f3 <transparent_crc>
    ee37:	8b 05 d3 53 00 00    	mov    0x53d3(%rip),%eax        # 14210 <g_1096>
    ee3d:	48 98                	cltq   
    ee3f:	8b 55 fc             	mov    -0x4(%rbp),%edx
    ee42:	48 8d 35 a0 26 00 00 	lea    0x26a0(%rip),%rsi        # 114e9 <g_2039+0x1489>
    ee49:	48 89 c7             	mov    %rax,%rdi
    ee4c:	e8 a2 78 ff ff       	callq  66f3 <transparent_crc>
    ee51:	8b 05 b9 53 00 00    	mov    0x53b9(%rip),%eax        # 14210 <g_1096>
    ee57:	48 98                	cltq   
    ee59:	8b 55 fc             	mov    -0x4(%rbp),%edx
    ee5c:	48 8d 35 90 26 00 00 	lea    0x2690(%rip),%rsi        # 114f3 <g_2039+0x1493>
    ee63:	48 89 c7             	mov    %rax,%rdi
    ee66:	e8 88 78 ff ff       	callq  66f3 <transparent_crc>
    ee6b:	0f b6 05 be 76 00 00 	movzbl 0x76be(%rip),%eax        # 16530 <g_1132>
    ee72:	48 0f be c0          	movsbq %al,%rax
    ee76:	8b 55 fc             	mov    -0x4(%rbp),%edx
    ee79:	48 8d 35 7d 26 00 00 	lea    0x267d(%rip),%rsi        # 114fd <g_2039+0x149d>
    ee80:	48 89 c7             	mov    %rax,%rdi
    ee83:	e8 6b 78 ff ff       	callq  66f3 <transparent_crc>
    ee88:	0f b7 05 85 53 00 00 	movzwl 0x5385(%rip),%eax        # 14214 <g_1142>
    ee8f:	48 0f bf c0          	movswq %ax,%rax
    ee93:	8b 55 fc             	mov    -0x4(%rbp),%edx
    ee96:	48 8d 35 67 26 00 00 	lea    0x2667(%rip),%rsi        # 11504 <g_2039+0x14a4>
    ee9d:	48 89 c7             	mov    %rax,%rdi
    eea0:	e8 4e 78 ff ff       	callq  66f3 <transparent_crc>
    eea5:	0f b7 05 6a 53 00 00 	movzwl 0x536a(%rip),%eax        # 14216 <g_1144>
    eeac:	48 0f bf c0          	movswq %ax,%rax
    eeb0:	8b 55 fc             	mov    -0x4(%rbp),%edx
    eeb3:	48 8d 35 51 26 00 00 	lea    0x2651(%rip),%rsi        # 1150b <g_2039+0x14ab>
    eeba:	48 89 c7             	mov    %rax,%rdi
    eebd:	e8 31 78 ff ff       	callq  66f3 <transparent_crc>
    eec2:	8b 05 50 53 00 00    	mov    0x5350(%rip),%eax        # 14218 <g_1162>
    eec8:	48 98                	cltq   
    eeca:	8b 55 fc             	mov    -0x4(%rbp),%edx
    eecd:	48 8d 35 3e 26 00 00 	lea    0x263e(%rip),%rsi        # 11512 <g_2039+0x14b2>
    eed4:	48 89 c7             	mov    %rax,%rdi
    eed7:	e8 17 78 ff ff       	callq  66f3 <transparent_crc>
    eedc:	8b 05 36 53 00 00    	mov    0x5336(%rip),%eax        # 14218 <g_1162>
    eee2:	48 98                	cltq   
    eee4:	8b 55 fc             	mov    -0x4(%rbp),%edx
    eee7:	48 8d 35 2e 26 00 00 	lea    0x262e(%rip),%rsi        # 1151c <g_2039+0x14bc>
    eeee:	48 89 c7             	mov    %rax,%rdi
    eef1:	e8 fd 77 ff ff       	callq  66f3 <transparent_crc>
    eef6:	8b 05 20 53 00 00    	mov    0x5320(%rip),%eax        # 1421c <g_1164>
    eefc:	48 98                	cltq   
    eefe:	8b 55 fc             	mov    -0x4(%rbp),%edx
    ef01:	48 8d 35 1e 26 00 00 	lea    0x261e(%rip),%rsi        # 11526 <g_2039+0x14c6>
    ef08:	48 89 c7             	mov    %rax,%rdi
    ef0b:	e8 e3 77 ff ff       	callq  66f3 <transparent_crc>
    ef10:	8b 05 06 53 00 00    	mov    0x5306(%rip),%eax        # 1421c <g_1164>
    ef16:	48 98                	cltq   
    ef18:	8b 55 fc             	mov    -0x4(%rbp),%edx
    ef1b:	48 8d 35 0e 26 00 00 	lea    0x260e(%rip),%rsi        # 11530 <g_2039+0x14d0>
    ef22:	48 89 c7             	mov    %rax,%rdi
    ef25:	e8 c9 77 ff ff       	callq  66f3 <transparent_crc>
    ef2a:	8b 05 f0 52 00 00    	mov    0x52f0(%rip),%eax        # 14220 <g_1190>
    ef30:	48 98                	cltq   
    ef32:	8b 55 fc             	mov    -0x4(%rbp),%edx
    ef35:	48 8d 35 fe 25 00 00 	lea    0x25fe(%rip),%rsi        # 1153a <g_2039+0x14da>
    ef3c:	48 89 c7             	mov    %rax,%rdi
    ef3f:	e8 af 77 ff ff       	callq  66f3 <transparent_crc>
    ef44:	8b 05 d6 52 00 00    	mov    0x52d6(%rip),%eax        # 14220 <g_1190>
    ef4a:	48 98                	cltq   
    ef4c:	8b 55 fc             	mov    -0x4(%rbp),%edx
    ef4f:	48 8d 35 ee 25 00 00 	lea    0x25ee(%rip),%rsi        # 11544 <g_2039+0x14e4>
    ef56:	48 89 c7             	mov    %rax,%rdi
    ef59:	e8 95 77 ff ff       	callq  66f3 <transparent_crc>
    ef5e:	0f b6 05 bf 52 00 00 	movzbl 0x52bf(%rip),%eax        # 14224 <g_1195>
    ef65:	0f b6 c0             	movzbl %al,%eax
    ef68:	8b 55 fc             	mov    -0x4(%rbp),%edx
    ef6b:	48 8d 35 dc 25 00 00 	lea    0x25dc(%rip),%rsi        # 1154e <g_2039+0x14ee>
    ef72:	48 89 c7             	mov    %rax,%rdi
    ef75:	e8 79 77 ff ff       	callq  66f3 <transparent_crc>
    ef7a:	48 b8 5a 33 f8 b6 bc 	movabs $0x23a0aabcb6f8335a,%rax
    ef81:	aa a0 23 
    ef84:	48 89 c1             	mov    %rax,%rcx
    ef87:	8b 45 fc             	mov    -0x4(%rbp),%eax
    ef8a:	89 c2                	mov    %eax,%edx
    ef8c:	48 8d 35 c2 25 00 00 	lea    0x25c2(%rip),%rsi        # 11555 <g_2039+0x14f5>
    ef93:	48 89 cf             	mov    %rcx,%rdi
    ef96:	e8 58 77 ff ff       	callq  66f3 <transparent_crc>
    ef9b:	8b 05 87 52 00 00    	mov    0x5287(%rip),%eax        # 14228 <g_1345>
    efa1:	48 98                	cltq   
    efa3:	8b 55 fc             	mov    -0x4(%rbp),%edx
    efa6:	48 8d 35 b2 25 00 00 	lea    0x25b2(%rip),%rsi        # 1155f <g_2039+0x14ff>
    efad:	48 89 c7             	mov    %rax,%rdi
    efb0:	e8 3e 77 ff ff       	callq  66f3 <transparent_crc>
    efb5:	8b 05 6d 52 00 00    	mov    0x526d(%rip),%eax        # 14228 <g_1345>
    efbb:	48 98                	cltq   
    efbd:	8b 55 fc             	mov    -0x4(%rbp),%edx
    efc0:	48 8d 35 a2 25 00 00 	lea    0x25a2(%rip),%rsi        # 11569 <g_2039+0x1509>
    efc7:	48 89 c7             	mov    %rax,%rdi
    efca:	e8 24 77 ff ff       	callq  66f3 <transparent_crc>
    efcf:	8b 05 57 52 00 00    	mov    0x5257(%rip),%eax        # 1422c <g_1376>
    efd5:	48 98                	cltq   
    efd7:	8b 55 fc             	mov    -0x4(%rbp),%edx
    efda:	48 8d 35 92 25 00 00 	lea    0x2592(%rip),%rsi        # 11573 <g_2039+0x1513>
    efe1:	48 89 c7             	mov    %rax,%rdi
    efe4:	e8 0a 77 ff ff       	callq  66f3 <transparent_crc>
    efe9:	0f b7 05 40 52 00 00 	movzwl 0x5240(%rip),%eax        # 14230 <g_1446>
    eff0:	0f b7 c0             	movzwl %ax,%eax
    eff3:	8b 55 fc             	mov    -0x4(%rbp),%edx
    eff6:	48 8d 35 7d 25 00 00 	lea    0x257d(%rip),%rsi        # 1157a <g_2039+0x151a>
    effd:	48 89 c7             	mov    %rax,%rdi
    f000:	e8 ee 76 ff ff       	callq  66f3 <transparent_crc>
    f005:	8b 05 35 75 00 00    	mov    0x7535(%rip),%eax        # 16540 <g_1479>
    f00b:	48 98                	cltq   
    f00d:	8b 55 fc             	mov    -0x4(%rbp),%edx
    f010:	48 8d 35 6a 25 00 00 	lea    0x256a(%rip),%rsi        # 11581 <g_2039+0x1521>
    f017:	48 89 c7             	mov    %rax,%rdi
    f01a:	e8 d4 76 ff ff       	callq  66f3 <transparent_crc>
    f01f:	48 8b 05 12 52 00 00 	mov    0x5212(%rip),%rax        # 14238 <g_1506>
    f026:	48 89 c1             	mov    %rax,%rcx
    f029:	8b 45 fc             	mov    -0x4(%rbp),%eax
    f02c:	89 c2                	mov    %eax,%edx
    f02e:	48 8d 35 53 25 00 00 	lea    0x2553(%rip),%rsi        # 11588 <g_2039+0x1528>
    f035:	48 89 cf             	mov    %rcx,%rdi
    f038:	e8 b6 76 ff ff       	callq  66f3 <transparent_crc>
    f03d:	8b 05 f5 51 00 00    	mov    0x51f5(%rip),%eax        # 14238 <g_1506>
    f043:	89 c1                	mov    %eax,%ecx
    f045:	8b 45 fc             	mov    -0x4(%rbp),%eax
    f048:	89 c2                	mov    %eax,%edx
    f04a:	48 8d 35 41 25 00 00 	lea    0x2541(%rip),%rsi        # 11592 <g_2039+0x1532>
    f051:	48 89 cf             	mov    %rcx,%rdi
    f054:	e8 9a 76 ff ff       	callq  66f3 <transparent_crc>
    f059:	48 8b 05 e8 74 00 00 	mov    0x74e8(%rip),%rax        # 16548 <g_1579>
    f060:	48 89 c1             	mov    %rax,%rcx
    f063:	8b 45 fc             	mov    -0x4(%rbp),%eax
    f066:	89 c2                	mov    %eax,%edx
    f068:	48 8d 35 2d 25 00 00 	lea    0x252d(%rip),%rsi        # 1159c <g_2039+0x153c>
    f06f:	48 89 cf             	mov    %rcx,%rdi
    f072:	e8 7c 76 ff ff       	callq  66f3 <transparent_crc>
    f077:	8b 05 cb 74 00 00    	mov    0x74cb(%rip),%eax        # 16548 <g_1579>
    f07d:	89 c1                	mov    %eax,%ecx
    f07f:	8b 45 fc             	mov    -0x4(%rbp),%eax
    f082:	89 c2                	mov    %eax,%edx
    f084:	48 8d 35 1b 25 00 00 	lea    0x251b(%rip),%rsi        # 115a6 <g_2039+0x1546>
    f08b:	48 89 cf             	mov    %rcx,%rdi
    f08e:	e8 60 76 ff ff       	callq  66f3 <transparent_crc>
    f093:	8b 05 a7 51 00 00    	mov    0x51a7(%rip),%eax        # 14240 <g_1609>
    f099:	89 c1                	mov    %eax,%ecx
    f09b:	8b 45 fc             	mov    -0x4(%rbp),%eax
    f09e:	89 c2                	mov    %eax,%edx
    f0a0:	48 8d 35 09 25 00 00 	lea    0x2509(%rip),%rsi        # 115b0 <g_2039+0x1550>
    f0a7:	48 89 cf             	mov    %rcx,%rdi
    f0aa:	e8 44 76 ff ff       	callq  66f3 <transparent_crc>
    f0af:	c7 45 f0 00 00 00 00 	movl   $0x0,-0x10(%rbp)
    f0b6:	eb 45                	jmp    f0fd <main+0xc65>
    f0b8:	8b 45 f0             	mov    -0x10(%rbp),%eax
    f0bb:	48 98                	cltq   
    f0bd:	48 8d 15 80 51 00 00 	lea    0x5180(%rip),%rdx        # 14244 <g_1632>
    f0c4:	0f b6 04 10          	movzbl (%rax,%rdx,1),%eax
    f0c8:	0f b6 c0             	movzbl %al,%eax
    f0cb:	8b 55 fc             	mov    -0x4(%rbp),%edx
    f0ce:	48 8d 35 e2 24 00 00 	lea    0x24e2(%rip),%rsi        # 115b7 <g_2039+0x1557>
    f0d5:	48 89 c7             	mov    %rax,%rdi
    f0d8:	e8 16 76 ff ff       	callq  66f3 <transparent_crc>
    f0dd:	83 7d fc 00          	cmpl   $0x0,-0x4(%rbp)
    f0e1:	74 16                	je     f0f9 <main+0xc61>
    f0e3:	8b 45 f0             	mov    -0x10(%rbp),%eax
    f0e6:	89 c6                	mov    %eax,%esi
    f0e8:	48 8d 3d ca 21 00 00 	lea    0x21ca(%rip),%rdi        # 112b9 <g_2039+0x1259>
    f0ef:	b8 00 00 00 00       	mov    $0x0,%eax
    f0f4:	e8 87 5f ff ff       	callq  5080 <printf@plt>
    f0f9:	83 45 f0 01          	addl   $0x1,-0x10(%rbp)
    f0fd:	83 7d f0 03          	cmpl   $0x3,-0x10(%rbp)
    f101:	7e b5                	jle    f0b8 <main+0xc20>
    f103:	8b 05 3f 51 00 00    	mov    0x513f(%rip),%eax        # 14248 <g_1678>
    f109:	89 c1                	mov    %eax,%ecx
    f10b:	8b 45 fc             	mov    -0x4(%rbp),%eax
    f10e:	89 c2                	mov    %eax,%edx
    f110:	48 8d 35 aa 24 00 00 	lea    0x24aa(%rip),%rsi        # 115c1 <g_2039+0x1561>
    f117:	48 89 cf             	mov    %rcx,%rdi
    f11a:	e8 d4 75 ff ff       	callq  66f3 <transparent_crc>
    f11f:	0f b7 05 26 51 00 00 	movzwl 0x5126(%rip),%eax        # 1424c <g_1740>
    f126:	48 0f bf c0          	movswq %ax,%rax
    f12a:	8b 55 fc             	mov    -0x4(%rbp),%edx
    f12d:	48 8d 35 94 24 00 00 	lea    0x2494(%rip),%rsi        # 115c8 <g_2039+0x1568>
    f134:	48 89 c7             	mov    %rax,%rdi
    f137:	e8 b7 75 ff ff       	callq  66f3 <transparent_crc>
    f13c:	c7 45 f0 00 00 00 00 	movl   $0x0,-0x10(%rbp)
    f143:	eb 4a                	jmp    f18f <main+0xcf7>
    f145:	8b 45 f0             	mov    -0x10(%rbp),%eax
    f148:	48 98                	cltq   
    f14a:	48 8d 14 c5 00 00 00 	lea    0x0(,%rax,8),%rdx
    f151:	00 
    f152:	48 8d 05 f7 50 00 00 	lea    0x50f7(%rip),%rax        # 14250 <g_1885>
    f159:	48 8b 04 02          	mov    (%rdx,%rax,1),%rax
    f15d:	8b 55 fc             	mov    -0x4(%rbp),%edx
    f160:	48 8d 35 68 24 00 00 	lea    0x2468(%rip),%rsi        # 115cf <g_2039+0x156f>
    f167:	48 89 c7             	mov    %rax,%rdi
    f16a:	e8 84 75 ff ff       	callq  66f3 <transparent_crc>
    f16f:	83 7d fc 00          	cmpl   $0x0,-0x4(%rbp)
    f173:	74 16                	je     f18b <main+0xcf3>
    f175:	8b 45 f0             	mov    -0x10(%rbp),%eax
    f178:	89 c6                	mov    %eax,%esi
    f17a:	48 8d 3d 38 21 00 00 	lea    0x2138(%rip),%rdi        # 112b9 <g_2039+0x1259>
    f181:	b8 00 00 00 00       	mov    $0x0,%eax
    f186:	e8 f5 5e ff ff       	callq  5080 <printf@plt>
    f18b:	83 45 f0 01          	addl   $0x1,-0x10(%rbp)
    f18f:	83 7d f0 02          	cmpl   $0x2,-0x10(%rbp)
    f193:	7e b0                	jle    f145 <main+0xcad>
    f195:	c7 45 f0 00 00 00 00 	movl   $0x0,-0x10(%rbp)
    f19c:	e9 9f 00 00 00       	jmpq   f240 <main+0xda8>
    f1a1:	c7 45 f4 00 00 00 00 	movl   $0x0,-0xc(%rbp)
    f1a8:	e9 85 00 00 00       	jmpq   f232 <main+0xd9a>
    f1ad:	c7 45 f8 00 00 00 00 	movl   $0x0,-0x8(%rbp)
    f1b4:	eb 72                	jmp    f228 <main+0xd90>
    f1b6:	8b 45 f8             	mov    -0x8(%rbp),%eax
    f1b9:	48 63 c8             	movslq %eax,%rcx
    f1bc:	8b 45 f0             	mov    -0x10(%rbp),%eax
    f1bf:	48 63 d0             	movslq %eax,%rdx
    f1c2:	8b 45 f4             	mov    -0xc(%rbp),%eax
    f1c5:	48 63 f0             	movslq %eax,%rsi
    f1c8:	48 89 d0             	mov    %rdx,%rax
    f1cb:	48 c1 e0 03          	shl    $0x3,%rax
    f1cf:	48 01 d0             	add    %rdx,%rax
    f1d2:	48 01 f0             	add    %rsi,%rax
    f1d5:	48 c1 e0 03          	shl    $0x3,%rax
    f1d9:	48 01 c8             	add    %rcx,%rax
    f1dc:	48 8d 14 85 00 00 00 	lea    0x0(,%rax,4),%rdx
    f1e3:	00 
    f1e4:	48 8d 05 95 50 00 00 	lea    0x5095(%rip),%rax        # 14280 <g_1915>
    f1eb:	8b 04 02             	mov    (%rdx,%rax,1),%eax
    f1ee:	48 98                	cltq   
    f1f0:	8b 55 fc             	mov    -0x4(%rbp),%edx
    f1f3:	48 8d 35 df 23 00 00 	lea    0x23df(%rip),%rsi        # 115d9 <g_2039+0x1579>
    f1fa:	48 89 c7             	mov    %rax,%rdi
    f1fd:	e8 f1 74 ff ff       	callq  66f3 <transparent_crc>
    f202:	83 7d fc 00          	cmpl   $0x0,-0x4(%rbp)
    f206:	74 1c                	je     f224 <main+0xd8c>
    f208:	8b 4d f8             	mov    -0x8(%rbp),%ecx
    f20b:	8b 55 f4             	mov    -0xc(%rbp),%edx
    f20e:	8b 45 f0             	mov    -0x10(%rbp),%eax
    f211:	89 c6                	mov    %eax,%esi
    f213:	48 8d 3d ff 21 00 00 	lea    0x21ff(%rip),%rdi        # 11419 <g_2039+0x13b9>
    f21a:	b8 00 00 00 00       	mov    $0x0,%eax
    f21f:	e8 5c 5e ff ff       	callq  5080 <printf@plt>
    f224:	83 45 f8 01          	addl   $0x1,-0x8(%rbp)
    f228:	83 7d f8 07          	cmpl   $0x7,-0x8(%rbp)
    f22c:	7e 88                	jle    f1b6 <main+0xd1e>
    f22e:	83 45 f4 01          	addl   $0x1,-0xc(%rbp)
    f232:	83 7d f4 08          	cmpl   $0x8,-0xc(%rbp)
    f236:	0f 8e 71 ff ff ff    	jle    f1ad <main+0xd15>
    f23c:	83 45 f0 01          	addl   $0x1,-0x10(%rbp)
    f240:	83 7d f0 02          	cmpl   $0x2,-0x10(%rbp)
    f244:	0f 8e 57 ff ff ff    	jle    f1a1 <main+0xd09>
    f24a:	8b 05 98 53 00 00    	mov    0x5398(%rip),%eax        # 145e8 <g_2016>
    f250:	48 98                	cltq   
    f252:	8b 55 fc             	mov    -0x4(%rbp),%edx
    f255:	48 8d 35 8d 23 00 00 	lea    0x238d(%rip),%rsi        # 115e9 <g_2039+0x1589>
    f25c:	48 89 c7             	mov    %rax,%rdi
    f25f:	e8 8f 74 ff ff       	callq  66f3 <transparent_crc>
    f264:	8b 05 7e 53 00 00    	mov    0x537e(%rip),%eax        # 145e8 <g_2016>
    f26a:	48 98                	cltq   
    f26c:	8b 55 fc             	mov    -0x4(%rbp),%edx
    f26f:	48 8d 35 7d 23 00 00 	lea    0x237d(%rip),%rsi        # 115f3 <g_2039+0x1593>
    f276:	48 89 c7             	mov    %rax,%rdi
    f279:	e8 75 74 ff ff       	callq  66f3 <transparent_crc>
    f27e:	c7 45 f0 00 00 00 00 	movl   $0x0,-0x10(%rbp)
    f285:	e9 a6 00 00 00       	jmpq   f330 <main+0xe98>
    f28a:	c7 45 f4 00 00 00 00 	movl   $0x0,-0xc(%rbp)
    f291:	e9 8c 00 00 00       	jmpq   f322 <main+0xe8a>
    f296:	c7 45 f8 00 00 00 00 	movl   $0x0,-0x8(%rbp)
    f29d:	eb 79                	jmp    f318 <main+0xe80>
    f29f:	8b 45 f8             	mov    -0x8(%rbp),%eax
    f2a2:	48 63 f0             	movslq %eax,%rsi
    f2a5:	8b 45 f0             	mov    -0x10(%rbp),%eax
    f2a8:	48 63 d0             	movslq %eax,%rdx
    f2ab:	8b 45 f4             	mov    -0xc(%rbp),%eax
    f2ae:	48 63 c8             	movslq %eax,%rcx
    f2b1:	48 89 d0             	mov    %rdx,%rax
    f2b4:	48 c1 e0 03          	shl    $0x3,%rax
    f2b8:	48 01 d0             	add    %rdx,%rax
    f2bb:	48 01 c0             	add    %rax,%rax
    f2be:	48 89 ca             	mov    %rcx,%rdx
    f2c1:	48 c1 e2 03          	shl    $0x3,%rdx
    f2c5:	48 01 ca             	add    %rcx,%rdx
    f2c8:	48 01 d0             	add    %rdx,%rax
    f2cb:	48 8d 14 30          	lea    (%rax,%rsi,1),%rdx
    f2cf:	48 8d 05 2a 53 00 00 	lea    0x532a(%rip),%rax        # 14600 <g_2026>
    f2d6:	48 01 d0             	add    %rdx,%rax
    f2d9:	0f b6 00             	movzbl (%rax),%eax
    f2dc:	48 0f be c0          	movsbq %al,%rax
    f2e0:	8b 55 fc             	mov    -0x4(%rbp),%edx
    f2e3:	48 8d 35 13 23 00 00 	lea    0x2313(%rip),%rsi        # 115fd <g_2039+0x159d>
    f2ea:	48 89 c7             	mov    %rax,%rdi
    f2ed:	e8 01 74 ff ff       	callq  66f3 <transparent_crc>
    f2f2:	83 7d fc 00          	cmpl   $0x0,-0x4(%rbp)
    f2f6:	74 1c                	je     f314 <main+0xe7c>
    f2f8:	8b 4d f8             	mov    -0x8(%rbp),%ecx
    f2fb:	8b 55 f4             	mov    -0xc(%rbp),%edx
    f2fe:	8b 45 f0             	mov    -0x10(%rbp),%eax
    f301:	89 c6                	mov    %eax,%esi
    f303:	48 8d 3d 0f 21 00 00 	lea    0x210f(%rip),%rdi        # 11419 <g_2039+0x13b9>
    f30a:	b8 00 00 00 00       	mov    $0x0,%eax
    f30f:	e8 6c 5d ff ff       	callq  5080 <printf@plt>
    f314:	83 45 f8 01          	addl   $0x1,-0x8(%rbp)
    f318:	83 7d f8 08          	cmpl   $0x8,-0x8(%rbp)
    f31c:	7e 81                	jle    f29f <main+0xe07>
    f31e:	83 45 f4 01          	addl   $0x1,-0xc(%rbp)
    f322:	83 7d f4 01          	cmpl   $0x1,-0xc(%rbp)
    f326:	0f 8e 6a ff ff ff    	jle    f296 <main+0xdfe>
    f32c:	83 45 f0 01          	addl   $0x1,-0x10(%rbp)
    f330:	83 7d f0 08          	cmpl   $0x8,-0x10(%rbp)
    f334:	0f 8e 50 ff ff ff    	jle    f28a <main+0xdf2>
    f33a:	48 8b 05 1f 0d 00 00 	mov    0xd1f(%rip),%rax        # 10060 <g_2039>
    f341:	48 89 c1             	mov    %rax,%rcx
    f344:	8b 45 fc             	mov    -0x4(%rbp),%eax
    f347:	89 c2                	mov    %eax,%edx
    f349:	48 8d 35 bd 22 00 00 	lea    0x22bd(%rip),%rsi        # 1160d <g_2039+0x15ad>
    f350:	48 89 cf             	mov    %rcx,%rdi
    f353:	e8 9b 73 ff ff       	callq  66f3 <transparent_crc>
    f358:	b8 58 fc 27 47       	mov    $0x4727fc58,%eax
    f35d:	89 c1                	mov    %eax,%ecx
    f35f:	8b 45 fc             	mov    -0x4(%rbp),%eax
    f362:	89 c2                	mov    %eax,%edx
    f364:	48 8d 35 ac 22 00 00 	lea    0x22ac(%rip),%rsi        # 11617 <g_2039+0x15b7>
    f36b:	48 89 cf             	mov    %rcx,%rdi
    f36e:	e8 80 73 ff ff       	callq  66f3 <transparent_crc>
    f373:	48 8b 05 2e 53 00 00 	mov    0x532e(%rip),%rax        # 146a8 <g_2092>
    f37a:	48 89 c1             	mov    %rax,%rcx
    f37d:	8b 45 fc             	mov    -0x4(%rbp),%eax
    f380:	89 c2                	mov    %eax,%edx
    f382:	48 8d 35 98 22 00 00 	lea    0x2298(%rip),%rsi        # 11621 <g_2039+0x15c1>
    f389:	48 89 cf             	mov    %rcx,%rdi
    f38c:	e8 62 73 ff ff       	callq  66f3 <transparent_crc>
    f391:	8b 05 11 53 00 00    	mov    0x5311(%rip),%eax        # 146a8 <g_2092>
    f397:	48 98                	cltq   
    f399:	8b 55 fc             	mov    -0x4(%rbp),%edx
    f39c:	48 8d 35 88 22 00 00 	lea    0x2288(%rip),%rsi        # 1162b <g_2039+0x15cb>
    f3a3:	48 89 c7             	mov    %rax,%rdi
    f3a6:	e8 48 73 ff ff       	callq  66f3 <transparent_crc>
    f3ab:	0f b7 05 f6 52 00 00 	movzwl 0x52f6(%rip),%eax        # 146a8 <g_2092>
    f3b2:	48 0f bf c0          	movswq %ax,%rax
    f3b6:	8b 55 fc             	mov    -0x4(%rbp),%edx
    f3b9:	48 8d 35 75 22 00 00 	lea    0x2275(%rip),%rsi        # 11635 <g_2039+0x15d5>
    f3c0:	48 89 c7             	mov    %rax,%rdi
    f3c3:	e8 2b 73 ff ff       	callq  66f3 <transparent_crc>
    f3c8:	0f b6 05 d9 52 00 00 	movzbl 0x52d9(%rip),%eax        # 146a8 <g_2092>
    f3cf:	0f b6 c0             	movzbl %al,%eax
    f3d2:	8b 55 fc             	mov    -0x4(%rbp),%edx
    f3d5:	48 8d 35 63 22 00 00 	lea    0x2263(%rip),%rsi        # 1163f <g_2039+0x15df>
    f3dc:	48 89 c7             	mov    %rax,%rdi
    f3df:	e8 0f 73 ff ff       	callq  66f3 <transparent_crc>
    f3e4:	8b 05 c6 52 00 00    	mov    0x52c6(%rip),%eax        # 146b0 <g_2165>
    f3ea:	89 c1                	mov    %eax,%ecx
    f3ec:	8b 45 fc             	mov    -0x4(%rbp),%eax
    f3ef:	89 c2                	mov    %eax,%edx
    f3f1:	48 8d 35 51 22 00 00 	lea    0x2251(%rip),%rsi        # 11649 <g_2039+0x15e9>
    f3f8:	48 89 cf             	mov    %rcx,%rdi
    f3fb:	e8 f3 72 ff ff       	callq  66f3 <transparent_crc>
    f400:	0f b7 05 ad 52 00 00 	movzwl 0x52ad(%rip),%eax        # 146b4 <g_2200>
    f407:	48 0f bf c0          	movswq %ax,%rax
    f40b:	8b 55 fc             	mov    -0x4(%rbp),%edx
    f40e:	48 8d 35 3b 22 00 00 	lea    0x223b(%rip),%rsi        # 11650 <g_2039+0x15f0>
    f415:	48 89 c7             	mov    %rax,%rdi
    f418:	e8 d6 72 ff ff       	callq  66f3 <transparent_crc>
    f41d:	48 8b 05 94 52 00 00 	mov    0x5294(%rip),%rax        # 146b8 <g_2252>
    f424:	48 89 c1             	mov    %rax,%rcx
    f427:	8b 45 fc             	mov    -0x4(%rbp),%eax
    f42a:	89 c2                	mov    %eax,%edx
    f42c:	48 8d 35 24 22 00 00 	lea    0x2224(%rip),%rsi        # 11657 <g_2039+0x15f7>
    f433:	48 89 cf             	mov    %rcx,%rdi
    f436:	e8 b8 72 ff ff       	callq  66f3 <transparent_crc>
    f43b:	8b 05 77 52 00 00    	mov    0x5277(%rip),%eax        # 146b8 <g_2252>
    f441:	89 c1                	mov    %eax,%ecx
    f443:	8b 45 fc             	mov    -0x4(%rbp),%eax
    f446:	89 c2                	mov    %eax,%edx
    f448:	48 8d 35 12 22 00 00 	lea    0x2212(%rip),%rsi        # 11661 <g_2039+0x1601>
    f44f:	48 89 cf             	mov    %rcx,%rdi
    f452:	e8 9c 72 ff ff       	callq  66f3 <transparent_crc>
    f457:	8b 05 23 71 00 00    	mov    0x7123(%rip),%eax        # 16580 <g_2269>
    f45d:	48 98                	cltq   
    f45f:	8b 55 fc             	mov    -0x4(%rbp),%edx
    f462:	48 8d 35 02 22 00 00 	lea    0x2202(%rip),%rsi        # 1166b <g_2039+0x160b>
    f469:	48 89 c7             	mov    %rax,%rdi
    f46c:	e8 82 72 ff ff       	callq  66f3 <transparent_crc>
    f471:	8b 05 09 71 00 00    	mov    0x7109(%rip),%eax        # 16580 <g_2269>
    f477:	48 98                	cltq   
    f479:	8b 55 fc             	mov    -0x4(%rbp),%edx
    f47c:	48 8d 35 f2 21 00 00 	lea    0x21f2(%rip),%rsi        # 11675 <g_2039+0x1615>
    f483:	48 89 c7             	mov    %rax,%rdi
    f486:	e8 68 72 ff ff       	callq  66f3 <transparent_crc>
    f48b:	48 8b 05 2e 52 00 00 	mov    0x522e(%rip),%rax        # 146c0 <g_2337>
    f492:	48 89 c1             	mov    %rax,%rcx
    f495:	8b 45 fc             	mov    -0x4(%rbp),%eax
    f498:	89 c2                	mov    %eax,%edx
    f49a:	48 8d 35 de 21 00 00 	lea    0x21de(%rip),%rsi        # 1167f <g_2039+0x161f>
    f4a1:	48 89 cf             	mov    %rcx,%rdi
    f4a4:	e8 4a 72 ff ff       	callq  66f3 <transparent_crc>
    f4a9:	8b 05 11 52 00 00    	mov    0x5211(%rip),%eax        # 146c0 <g_2337>
    f4af:	89 c1                	mov    %eax,%ecx
    f4b1:	8b 45 fc             	mov    -0x4(%rbp),%eax
    f4b4:	89 c2                	mov    %eax,%edx
    f4b6:	48 8d 35 cc 21 00 00 	lea    0x21cc(%rip),%rsi        # 11689 <g_2039+0x1629>
    f4bd:	48 89 cf             	mov    %rcx,%rdi
    f4c0:	e8 2e 72 ff ff       	callq  66f3 <transparent_crc>
    f4c5:	48 8b 05 fc 51 00 00 	mov    0x51fc(%rip),%rax        # 146c8 <g_2356>
    f4cc:	48 89 c1             	mov    %rax,%rcx
    f4cf:	8b 45 fc             	mov    -0x4(%rbp),%eax
    f4d2:	89 c2                	mov    %eax,%edx
    f4d4:	48 8d 35 b8 21 00 00 	lea    0x21b8(%rip),%rsi        # 11693 <g_2039+0x1633>
    f4db:	48 89 cf             	mov    %rcx,%rdi
    f4de:	e8 10 72 ff ff       	callq  66f3 <transparent_crc>
    f4e3:	8b 05 37 4b 00 00    	mov    0x4b37(%rip),%eax        # 14020 <crc32_context>
    f4e9:	f7 d0                	not    %eax
    f4eb:	89 c2                	mov    %eax,%edx
    f4ed:	8b 45 fc             	mov    -0x4(%rbp),%eax
    f4f0:	89 c6                	mov    %eax,%esi
    f4f2:	89 d7                	mov    %edx,%edi
    f4f4:	e8 9b 5c ff ff       	callq  5194 <platform_main_end>
    f4f9:	b8 00 00 00 00       	mov    $0x0,%eax
    f4fe:	c9                   	leaveq 
    f4ff:	c3                   	retq   

000000000000f500 <__libc_csu_init>:
    f500:	f3 0f 1e fa          	endbr64 
    f504:	41 57                	push   %r15
    f506:	4c 8d 3d 93 48 00 00 	lea    0x4893(%rip),%r15        # 13da0 <__frame_dummy_init_array_entry>
    f50d:	41 56                	push   %r14
    f50f:	49 89 d6             	mov    %rdx,%r14
    f512:	41 55                	push   %r13
    f514:	49 89 f5             	mov    %rsi,%r13
    f517:	41 54                	push   %r12
    f519:	41 89 fc             	mov    %edi,%r12d
    f51c:	55                   	push   %rbp
    f51d:	48 8d 2d 84 48 00 00 	lea    0x4884(%rip),%rbp        # 13da8 <__do_global_dtors_aux_fini_array_entry>
    f524:	53                   	push   %rbx
    f525:	4c 29 fd             	sub    %r15,%rbp
    f528:	48 83 ec 08          	sub    $0x8,%rsp
    f52c:	e8 cf 5a ff ff       	callq  5000 <_init>
    f531:	48 c1 fd 03          	sar    $0x3,%rbp
    f535:	74 1f                	je     f556 <__libc_csu_init+0x56>
    f537:	31 db                	xor    %ebx,%ebx
    f539:	0f 1f 80 00 00 00 00 	nopl   0x0(%rax)
    f540:	4c 89 f2             	mov    %r14,%rdx
    f543:	4c 89 ee             	mov    %r13,%rsi
    f546:	44 89 e7             	mov    %r12d,%edi
    f549:	41 ff 14 df          	callq  *(%r15,%rbx,8)
    f54d:	48 83 c3 01          	add    $0x1,%rbx
    f551:	48 39 dd             	cmp    %rbx,%rbp
    f554:	75 ea                	jne    f540 <__libc_csu_init+0x40>
    f556:	48 83 c4 08          	add    $0x8,%rsp
    f55a:	5b                   	pop    %rbx
    f55b:	5d                   	pop    %rbp
    f55c:	41 5c                	pop    %r12
    f55e:	41 5d                	pop    %r13
    f560:	41 5e                	pop    %r14
    f562:	41 5f                	pop    %r15
    f564:	c3                   	retq   
    f565:	66 66 2e 0f 1f 84 00 	data16 nopw %cs:0x0(%rax,%rax,1)
    f56c:	00 00 00 00 

000000000000f570 <__libc_csu_fini>:
    f570:	f3 0f 1e fa          	endbr64 
    f574:	c3                   	retq   
