


Disassembly of section .text:

00000000000050a0 <_start>:
    50a0:	f3 0f 1e fa          	endbr64 
    50a4:	31 ed                	xor    %ebp,%ebp
    50a6:	49 89 d1             	mov    %rdx,%r9
    50a9:	5e                   	pop    %rsi
    50aa:	48 89 e2             	mov    %rsp,%rdx
    50ad:	48 83 e4 f0          	and    $0xfffffffffffffff0,%rsp
    50b1:	50                   	push   %rax
    50b2:	54                   	push   %rsp
    50b3:	4c 8d 05 f6 eb 00 00 	lea    0xebf6(%rip),%r8        # 13cb0 <__libc_csu_fini>
    50ba:	48 8d 0d 7f eb 00 00 	lea    0xeb7f(%rip),%rcx        # 13c40 <__libc_csu_init>
    50c1:	48 8d 3d 11 d1 00 00 	lea    0xd111(%rip),%rdi        # 121d9 <main>
    50c8:	ff 15 fa 3e 01 00    	callq  *0x13efa(%rip)        # 18fc8 <__libc_start_main@GLIBC_2.2.5>
    50ce:	f4                   	hlt    
    50cf:	90                   	nop

00000000000050d0 <deregister_tm_clones>:
    50d0:	48 8d 3d 41 6b 01 00 	lea    0x16b41(%rip),%rdi        # 1bc18 <__TMC_END__>
    50d7:	48 8d 05 3a 6b 01 00 	lea    0x16b3a(%rip),%rax        # 1bc18 <__TMC_END__>
    50de:	48 39 f8             	cmp    %rdi,%rax
    50e1:	74 15                	je     50f8 <deregister_tm_clones+0x28>
    50e3:	48 8b 05 d6 3e 01 00 	mov    0x13ed6(%rip),%rax        # 18fc0 <_ITM_deregisterTMCloneTable>
    50ea:	48 85 c0             	test   %rax,%rax
    50ed:	74 09                	je     50f8 <deregister_tm_clones+0x28>
    50ef:	ff e0                	jmpq   *%rax
    50f1:	0f 1f 80 00 00 00 00 	nopl   0x0(%rax)
    50f8:	c3                   	retq   
    50f9:	0f 1f 80 00 00 00 00 	nopl   0x0(%rax)

0000000000005100 <register_tm_clones>:
    5100:	48 8d 3d 11 6b 01 00 	lea    0x16b11(%rip),%rdi        # 1bc18 <__TMC_END__>
    5107:	48 8d 35 0a 6b 01 00 	lea    0x16b0a(%rip),%rsi        # 1bc18 <__TMC_END__>
    510e:	48 29 fe             	sub    %rdi,%rsi
    5111:	48 89 f0             	mov    %rsi,%rax
    5114:	48 c1 ee 3f          	shr    $0x3f,%rsi
    5118:	48 c1 f8 03          	sar    $0x3,%rax
    511c:	48 01 c6             	add    %rax,%rsi
    511f:	48 d1 fe             	sar    %rsi
    5122:	74 14                	je     5138 <register_tm_clones+0x38>
    5124:	48 8b 05 ad 3e 01 00 	mov    0x13ead(%rip),%rax        # 18fd8 <_ITM_registerTMCloneTable>
    512b:	48 85 c0             	test   %rax,%rax
    512e:	74 08                	je     5138 <register_tm_clones+0x38>
    5130:	ff e0                	jmpq   *%rax
    5132:	66 0f 1f 44 00 00    	nopw   0x0(%rax,%rax,1)
    5138:	c3                   	retq   
    5139:	0f 1f 80 00 00 00 00 	nopl   0x0(%rax)

0000000000005140 <__do_global_dtors_aux>:
    5140:	f3 0f 1e fa          	endbr64 
    5144:	80 3d d5 6a 01 00 00 	cmpb   $0x0,0x16ad5(%rip)        # 1bc20 <completed.8061>
    514b:	75 2b                	jne    5178 <__do_global_dtors_aux+0x38>
    514d:	55                   	push   %rbp
    514e:	48 83 3d 8a 3e 01 00 	cmpq   $0x0,0x13e8a(%rip)        # 18fe0 <__cxa_finalize@GLIBC_2.2.5>
    5155:	00 
    5156:	48 89 e5             	mov    %rsp,%rbp
    5159:	74 0c                	je     5167 <__do_global_dtors_aux+0x27>
    515b:	48 8b 3d a6 3e 01 00 	mov    0x13ea6(%rip),%rdi        # 19008 <__dso_handle>
    5162:	e8 f9 fe ff ff       	callq  5060 <__cxa_finalize@plt>
    5167:	e8 64 ff ff ff       	callq  50d0 <deregister_tm_clones>
    516c:	c6 05 ad 6a 01 00 01 	movb   $0x1,0x16aad(%rip)        # 1bc20 <completed.8061>
    5173:	5d                   	pop    %rbp
    5174:	c3                   	retq   
    5175:	0f 1f 00             	nopl   (%rax)
    5178:	c3                   	retq   
    5179:	0f 1f 80 00 00 00 00 	nopl   0x0(%rax)

0000000000005180 <frame_dummy>:
    5180:	f3 0f 1e fa          	endbr64 
    5184:	e9 77 ff ff ff       	jmpq   5100 <register_tm_clones>

0000000000005189 <platform_main_begin>:
    5189:	f3 0f 1e fa          	endbr64 
    518d:	55                   	push   %rbp
    518e:	48 89 e5             	mov    %rsp,%rbp
    5191:	90                   	nop
    5192:	5d                   	pop    %rbp
    5193:	c3                   	retq   

0000000000005194 <platform_main_end>:
    5194:	f3 0f 1e fa          	endbr64 
    5198:	55                   	push   %rbp
    5199:	48 89 e5             	mov    %rsp,%rbp
    519c:	48 83 ec 10          	sub    $0x10,%rsp
    51a0:	89 7d fc             	mov    %edi,-0x4(%rbp)
    51a3:	89 75 f8             	mov    %esi,-0x8(%rbp)
    51a6:	8b 45 fc             	mov    -0x4(%rbp),%eax
    51a9:	89 c6                	mov    %eax,%esi
    51ab:	48 8d 3d 6e ee 00 00 	lea    0xee6e(%rip),%rdi        # 14020 <_IO_stdin_used+0x20>
    51b2:	b8 00 00 00 00       	mov    $0x0,%eax
    51b7:	e8 c4 fe ff ff       	callq  5080 <printf@plt>
    51bc:	90                   	nop
    51bd:	c9                   	leaveq 
    51be:	c3                   	retq   

00000000000051bf <safe_unary_minus_func_int8_t_s>:
    51bf:	f3 0f 1e fa          	endbr64 
    51c3:	55                   	push   %rbp
    51c4:	48 89 e5             	mov    %rsp,%rbp
    51c7:	89 f8                	mov    %edi,%eax
    51c9:	88 45 fc             	mov    %al,-0x4(%rbp)
    51cc:	0f b6 45 fc          	movzbl -0x4(%rbp),%eax
    51d0:	f7 d8                	neg    %eax
    51d2:	5d                   	pop    %rbp
    51d3:	c3                   	retq   

00000000000051d4 <safe_add_func_int8_t_s_s>:
    51d4:	f3 0f 1e fa          	endbr64 
    51d8:	55                   	push   %rbp
    51d9:	48 89 e5             	mov    %rsp,%rbp
    51dc:	89 fa                	mov    %edi,%edx
    51de:	89 f0                	mov    %esi,%eax
    51e0:	88 55 fc             	mov    %dl,-0x4(%rbp)
    51e3:	88 45 f8             	mov    %al,-0x8(%rbp)
    51e6:	0f b6 55 fc          	movzbl -0x4(%rbp),%edx
    51ea:	0f b6 45 f8          	movzbl -0x8(%rbp),%eax
    51ee:	01 d0                	add    %edx,%eax
    51f0:	5d                   	pop    %rbp
    51f1:	c3                   	retq   

00000000000051f2 <safe_sub_func_int8_t_s_s>:
    51f2:	f3 0f 1e fa          	endbr64 
    51f6:	55                   	push   %rbp
    51f7:	48 89 e5             	mov    %rsp,%rbp
    51fa:	89 fa                	mov    %edi,%edx
    51fc:	89 f0                	mov    %esi,%eax
    51fe:	88 55 fc             	mov    %dl,-0x4(%rbp)
    5201:	88 45 f8             	mov    %al,-0x8(%rbp)
    5204:	0f b6 55 fc          	movzbl -0x4(%rbp),%edx
    5208:	0f b6 45 f8          	movzbl -0x8(%rbp),%eax
    520c:	29 c2                	sub    %eax,%edx
    520e:	89 d0                	mov    %edx,%eax
    5210:	5d                   	pop    %rbp
    5211:	c3                   	retq   

0000000000005212 <safe_mul_func_int8_t_s_s>:
    5212:	f3 0f 1e fa          	endbr64 
    5216:	55                   	push   %rbp
    5217:	48 89 e5             	mov    %rsp,%rbp
    521a:	89 fa                	mov    %edi,%edx
    521c:	89 f0                	mov    %esi,%eax
    521e:	88 55 fc             	mov    %dl,-0x4(%rbp)
    5221:	88 45 f8             	mov    %al,-0x8(%rbp)
    5224:	0f b6 45 fc          	movzbl -0x4(%rbp),%eax
    5228:	0f b6 55 f8          	movzbl -0x8(%rbp),%edx
    522c:	0f af c2             	imul   %edx,%eax
    522f:	5d                   	pop    %rbp
    5230:	c3                   	retq   

0000000000005231 <safe_mod_func_int8_t_s_s>:
    5231:	f3 0f 1e fa          	endbr64 
    5235:	55                   	push   %rbp
    5236:	48 89 e5             	mov    %rsp,%rbp
    5239:	89 fa                	mov    %edi,%edx
    523b:	89 f0                	mov    %esi,%eax
    523d:	88 55 fc             	mov    %dl,-0x4(%rbp)
    5240:	88 45 f8             	mov    %al,-0x8(%rbp)
    5243:	80 7d f8 00          	cmpb   $0x0,-0x8(%rbp)
    5247:	74 1b                	je     5264 <safe_mod_func_int8_t_s_s+0x33>
    5249:	80 7d fc 80          	cmpb   $0x80,-0x4(%rbp)
    524d:	75 06                	jne    5255 <safe_mod_func_int8_t_s_s+0x24>
    524f:	80 7d f8 ff          	cmpb   $0xff,-0x8(%rbp)
    5253:	74 0f                	je     5264 <safe_mod_func_int8_t_s_s+0x33>
    5255:	0f be 45 fc          	movsbl -0x4(%rbp),%eax
    5259:	0f be 4d f8          	movsbl -0x8(%rbp),%ecx
    525d:	99                   	cltd   
    525e:	f7 f9                	idiv   %ecx
    5260:	89 d0                	mov    %edx,%eax
    5262:	eb 04                	jmp    5268 <safe_mod_func_int8_t_s_s+0x37>
    5264:	0f b6 45 fc          	movzbl -0x4(%rbp),%eax
    5268:	5d                   	pop    %rbp
    5269:	c3                   	retq   

000000000000526a <safe_div_func_int8_t_s_s>:
    526a:	f3 0f 1e fa          	endbr64 
    526e:	55                   	push   %rbp
    526f:	48 89 e5             	mov    %rsp,%rbp
    5272:	89 fa                	mov    %edi,%edx
    5274:	89 f0                	mov    %esi,%eax
    5276:	88 55 fc             	mov    %dl,-0x4(%rbp)
    5279:	88 45 f8             	mov    %al,-0x8(%rbp)
    527c:	80 7d f8 00          	cmpb   $0x0,-0x8(%rbp)
    5280:	74 19                	je     529b <safe_div_func_int8_t_s_s+0x31>
    5282:	80 7d fc 80          	cmpb   $0x80,-0x4(%rbp)
    5286:	75 06                	jne    528e <safe_div_func_int8_t_s_s+0x24>
    5288:	80 7d f8 ff          	cmpb   $0xff,-0x8(%rbp)
    528c:	74 0d                	je     529b <safe_div_func_int8_t_s_s+0x31>
    528e:	0f be 45 fc          	movsbl -0x4(%rbp),%eax
    5292:	0f be 4d f8          	movsbl -0x8(%rbp),%ecx
    5296:	99                   	cltd   
    5297:	f7 f9                	idiv   %ecx
    5299:	eb 04                	jmp    529f <safe_div_func_int8_t_s_s+0x35>
    529b:	0f b6 45 fc          	movzbl -0x4(%rbp),%eax
    529f:	5d                   	pop    %rbp
    52a0:	c3                   	retq   

00000000000052a1 <safe_lshift_func_int8_t_s_s>:
    52a1:	f3 0f 1e fa          	endbr64 
    52a5:	55                   	push   %rbp
    52a6:	48 89 e5             	mov    %rsp,%rbp
    52a9:	89 f8                	mov    %edi,%eax
    52ab:	89 75 f8             	mov    %esi,-0x8(%rbp)
    52ae:	88 45 fc             	mov    %al,-0x4(%rbp)
    52b1:	80 7d fc 00          	cmpb   $0x0,-0x4(%rbp)
    52b5:	78 31                	js     52e8 <safe_lshift_func_int8_t_s_s+0x47>
    52b7:	83 7d f8 00          	cmpl   $0x0,-0x8(%rbp)
    52bb:	78 2b                	js     52e8 <safe_lshift_func_int8_t_s_s+0x47>
    52bd:	83 7d f8 1f          	cmpl   $0x1f,-0x8(%rbp)
    52c1:	7f 25                	jg     52e8 <safe_lshift_func_int8_t_s_s+0x47>
    52c3:	0f be 55 fc          	movsbl -0x4(%rbp),%edx
    52c7:	8b 45 f8             	mov    -0x8(%rbp),%eax
    52ca:	be 7f 00 00 00       	mov    $0x7f,%esi
    52cf:	89 c1                	mov    %eax,%ecx
    52d1:	d3 fe                	sar    %cl,%esi
    52d3:	89 f0                	mov    %esi,%eax
    52d5:	39 c2                	cmp    %eax,%edx
    52d7:	7f 0f                	jg     52e8 <safe_lshift_func_int8_t_s_s+0x47>
    52d9:	0f be 55 fc          	movsbl -0x4(%rbp),%edx
    52dd:	8b 45 f8             	mov    -0x8(%rbp),%eax
    52e0:	89 c1                	mov    %eax,%ecx
    52e2:	d3 e2                	shl    %cl,%edx
    52e4:	89 d0                	mov    %edx,%eax
    52e6:	eb 04                	jmp    52ec <safe_lshift_func_int8_t_s_s+0x4b>
    52e8:	0f b6 45 fc          	movzbl -0x4(%rbp),%eax
    52ec:	5d                   	pop    %rbp
    52ed:	c3                   	retq   

00000000000052ee <safe_lshift_func_int8_t_s_u>:
    52ee:	f3 0f 1e fa          	endbr64 
    52f2:	55                   	push   %rbp
    52f3:	48 89 e5             	mov    %rsp,%rbp
    52f6:	89 f8                	mov    %edi,%eax
    52f8:	89 75 f8             	mov    %esi,-0x8(%rbp)
    52fb:	88 45 fc             	mov    %al,-0x4(%rbp)
    52fe:	80 7d fc 00          	cmpb   $0x0,-0x4(%rbp)
    5302:	78 2b                	js     532f <safe_lshift_func_int8_t_s_u+0x41>
    5304:	83 7d f8 1f          	cmpl   $0x1f,-0x8(%rbp)
    5308:	77 25                	ja     532f <safe_lshift_func_int8_t_s_u+0x41>
    530a:	0f be 55 fc          	movsbl -0x4(%rbp),%edx
    530e:	8b 45 f8             	mov    -0x8(%rbp),%eax
    5311:	be 7f 00 00 00       	mov    $0x7f,%esi
    5316:	89 c1                	mov    %eax,%ecx
    5318:	d3 fe                	sar    %cl,%esi
    531a:	89 f0                	mov    %esi,%eax
    531c:	39 c2                	cmp    %eax,%edx
    531e:	7f 0f                	jg     532f <safe_lshift_func_int8_t_s_u+0x41>
    5320:	0f be 55 fc          	movsbl -0x4(%rbp),%edx
    5324:	8b 45 f8             	mov    -0x8(%rbp),%eax
    5327:	89 c1                	mov    %eax,%ecx
    5329:	d3 e2                	shl    %cl,%edx
    532b:	89 d0                	mov    %edx,%eax
    532d:	eb 04                	jmp    5333 <safe_lshift_func_int8_t_s_u+0x45>
    532f:	0f b6 45 fc          	movzbl -0x4(%rbp),%eax
    5333:	5d                   	pop    %rbp
    5334:	c3                   	retq   

0000000000005335 <safe_rshift_func_int8_t_s_s>:
    5335:	f3 0f 1e fa          	endbr64 
    5339:	55                   	push   %rbp
    533a:	48 89 e5             	mov    %rsp,%rbp
    533d:	89 f8                	mov    %edi,%eax
    533f:	89 75 f8             	mov    %esi,-0x8(%rbp)
    5342:	88 45 fc             	mov    %al,-0x4(%rbp)
    5345:	80 7d fc 00          	cmpb   $0x0,-0x4(%rbp)
    5349:	78 1b                	js     5366 <safe_rshift_func_int8_t_s_s+0x31>
    534b:	83 7d f8 00          	cmpl   $0x0,-0x8(%rbp)
    534f:	78 15                	js     5366 <safe_rshift_func_int8_t_s_s+0x31>
    5351:	83 7d f8 1f          	cmpl   $0x1f,-0x8(%rbp)
    5355:	7f 0f                	jg     5366 <safe_rshift_func_int8_t_s_s+0x31>
    5357:	0f be 55 fc          	movsbl -0x4(%rbp),%edx
    535b:	8b 45 f8             	mov    -0x8(%rbp),%eax
    535e:	89 c1                	mov    %eax,%ecx
    5360:	d3 fa                	sar    %cl,%edx
    5362:	89 d0                	mov    %edx,%eax
    5364:	eb 04                	jmp    536a <safe_rshift_func_int8_t_s_s+0x35>
    5366:	0f b6 45 fc          	movzbl -0x4(%rbp),%eax
    536a:	5d                   	pop    %rbp
    536b:	c3                   	retq   

000000000000536c <safe_rshift_func_int8_t_s_u>:
    536c:	f3 0f 1e fa          	endbr64 
    5370:	55                   	push   %rbp
    5371:	48 89 e5             	mov    %rsp,%rbp
    5374:	89 f8                	mov    %edi,%eax
    5376:	89 75 f8             	mov    %esi,-0x8(%rbp)
    5379:	88 45 fc             	mov    %al,-0x4(%rbp)
    537c:	80 7d fc 00          	cmpb   $0x0,-0x4(%rbp)
    5380:	78 15                	js     5397 <safe_rshift_func_int8_t_s_u+0x2b>
    5382:	83 7d f8 1f          	cmpl   $0x1f,-0x8(%rbp)
    5386:	77 0f                	ja     5397 <safe_rshift_func_int8_t_s_u+0x2b>
    5388:	0f be 55 fc          	movsbl -0x4(%rbp),%edx
    538c:	8b 45 f8             	mov    -0x8(%rbp),%eax
    538f:	89 c1                	mov    %eax,%ecx
    5391:	d3 fa                	sar    %cl,%edx
    5393:	89 d0                	mov    %edx,%eax
    5395:	eb 04                	jmp    539b <safe_rshift_func_int8_t_s_u+0x2f>
    5397:	0f b6 45 fc          	movzbl -0x4(%rbp),%eax
    539b:	5d                   	pop    %rbp
    539c:	c3                   	retq   

000000000000539d <safe_unary_minus_func_int16_t_s>:
    539d:	f3 0f 1e fa          	endbr64 
    53a1:	55                   	push   %rbp
    53a2:	48 89 e5             	mov    %rsp,%rbp
    53a5:	89 f8                	mov    %edi,%eax
    53a7:	66 89 45 fc          	mov    %ax,-0x4(%rbp)
    53ab:	0f b7 45 fc          	movzwl -0x4(%rbp),%eax
    53af:	f7 d8                	neg    %eax
    53b1:	5d                   	pop    %rbp
    53b2:	c3                   	retq   

00000000000053b3 <safe_add_func_int16_t_s_s>:
    53b3:	f3 0f 1e fa          	endbr64 
    53b7:	55                   	push   %rbp
    53b8:	48 89 e5             	mov    %rsp,%rbp
    53bb:	89 fa                	mov    %edi,%edx
    53bd:	89 f0                	mov    %esi,%eax
    53bf:	66 89 55 fc          	mov    %dx,-0x4(%rbp)
    53c3:	66 89 45 f8          	mov    %ax,-0x8(%rbp)
    53c7:	0f b7 55 fc          	movzwl -0x4(%rbp),%edx
    53cb:	0f b7 45 f8          	movzwl -0x8(%rbp),%eax
    53cf:	01 d0                	add    %edx,%eax
    53d1:	5d                   	pop    %rbp
    53d2:	c3                   	retq   

00000000000053d3 <safe_sub_func_int16_t_s_s>:
    53d3:	f3 0f 1e fa          	endbr64 
    53d7:	55                   	push   %rbp
    53d8:	48 89 e5             	mov    %rsp,%rbp
    53db:	89 fa                	mov    %edi,%edx
    53dd:	89 f0                	mov    %esi,%eax
    53df:	66 89 55 fc          	mov    %dx,-0x4(%rbp)
    53e3:	66 89 45 f8          	mov    %ax,-0x8(%rbp)
    53e7:	0f b7 55 fc          	movzwl -0x4(%rbp),%edx
    53eb:	0f b7 45 f8          	movzwl -0x8(%rbp),%eax
    53ef:	29 c2                	sub    %eax,%edx
    53f1:	89 d0                	mov    %edx,%eax
    53f3:	5d                   	pop    %rbp
    53f4:	c3                   	retq   

00000000000053f5 <safe_mul_func_int16_t_s_s>:
    53f5:	f3 0f 1e fa          	endbr64 
    53f9:	55                   	push   %rbp
    53fa:	48 89 e5             	mov    %rsp,%rbp
    53fd:	89 fa                	mov    %edi,%edx
    53ff:	89 f0                	mov    %esi,%eax
    5401:	66 89 55 fc          	mov    %dx,-0x4(%rbp)
    5405:	66 89 45 f8          	mov    %ax,-0x8(%rbp)
    5409:	0f b7 55 fc          	movzwl -0x4(%rbp),%edx
    540d:	0f b7 45 f8          	movzwl -0x8(%rbp),%eax
    5411:	0f af c2             	imul   %edx,%eax
    5414:	5d                   	pop    %rbp
    5415:	c3                   	retq   

0000000000005416 <safe_mod_func_int16_t_s_s>:
    5416:	f3 0f 1e fa          	endbr64 
    541a:	55                   	push   %rbp
    541b:	48 89 e5             	mov    %rsp,%rbp
    541e:	89 fa                	mov    %edi,%edx
    5420:	89 f0                	mov    %esi,%eax
    5422:	66 89 55 fc          	mov    %dx,-0x4(%rbp)
    5426:	66 89 45 f8          	mov    %ax,-0x8(%rbp)
    542a:	66 83 7d f8 00       	cmpw   $0x0,-0x8(%rbp)
    542f:	74 1e                	je     544f <safe_mod_func_int16_t_s_s+0x39>
    5431:	66 81 7d fc 00 80    	cmpw   $0x8000,-0x4(%rbp)
    5437:	75 07                	jne    5440 <safe_mod_func_int16_t_s_s+0x2a>
    5439:	66 83 7d f8 ff       	cmpw   $0xffff,-0x8(%rbp)
    543e:	74 0f                	je     544f <safe_mod_func_int16_t_s_s+0x39>
    5440:	0f bf 45 fc          	movswl -0x4(%rbp),%eax
    5444:	0f bf 4d f8          	movswl -0x8(%rbp),%ecx
    5448:	99                   	cltd   
    5449:	f7 f9                	idiv   %ecx
    544b:	89 d0                	mov    %edx,%eax
    544d:	eb 04                	jmp    5453 <safe_mod_func_int16_t_s_s+0x3d>
    544f:	0f b7 45 fc          	movzwl -0x4(%rbp),%eax
    5453:	5d                   	pop    %rbp
    5454:	c3                   	retq   

0000000000005455 <safe_div_func_int16_t_s_s>:
    5455:	f3 0f 1e fa          	endbr64 
    5459:	55                   	push   %rbp
    545a:	48 89 e5             	mov    %rsp,%rbp
    545d:	89 fa                	mov    %edi,%edx
    545f:	89 f0                	mov    %esi,%eax
    5461:	66 89 55 fc          	mov    %dx,-0x4(%rbp)
    5465:	66 89 45 f8          	mov    %ax,-0x8(%rbp)
    5469:	66 83 7d f8 00       	cmpw   $0x0,-0x8(%rbp)
    546e:	74 1c                	je     548c <safe_div_func_int16_t_s_s+0x37>
    5470:	66 81 7d fc 00 80    	cmpw   $0x8000,-0x4(%rbp)
    5476:	75 07                	jne    547f <safe_div_func_int16_t_s_s+0x2a>
    5478:	66 83 7d f8 ff       	cmpw   $0xffff,-0x8(%rbp)
    547d:	74 0d                	je     548c <safe_div_func_int16_t_s_s+0x37>
    547f:	0f bf 45 fc          	movswl -0x4(%rbp),%eax
    5483:	0f bf 4d f8          	movswl -0x8(%rbp),%ecx
    5487:	99                   	cltd   
    5488:	f7 f9                	idiv   %ecx
    548a:	eb 04                	jmp    5490 <safe_div_func_int16_t_s_s+0x3b>
    548c:	0f b7 45 fc          	movzwl -0x4(%rbp),%eax
    5490:	5d                   	pop    %rbp
    5491:	c3                   	retq   

0000000000005492 <safe_lshift_func_int16_t_s_s>:
    5492:	f3 0f 1e fa          	endbr64 
    5496:	55                   	push   %rbp
    5497:	48 89 e5             	mov    %rsp,%rbp
    549a:	89 f8                	mov    %edi,%eax
    549c:	89 75 f8             	mov    %esi,-0x8(%rbp)
    549f:	66 89 45 fc          	mov    %ax,-0x4(%rbp)
    54a3:	66 83 7d fc 00       	cmpw   $0x0,-0x4(%rbp)
    54a8:	78 31                	js     54db <safe_lshift_func_int16_t_s_s+0x49>
    54aa:	83 7d f8 00          	cmpl   $0x0,-0x8(%rbp)
    54ae:	78 2b                	js     54db <safe_lshift_func_int16_t_s_s+0x49>
    54b0:	83 7d f8 1f          	cmpl   $0x1f,-0x8(%rbp)
    54b4:	7f 25                	jg     54db <safe_lshift_func_int16_t_s_s+0x49>
    54b6:	0f bf 55 fc          	movswl -0x4(%rbp),%edx
    54ba:	8b 45 f8             	mov    -0x8(%rbp),%eax
    54bd:	be ff 7f 00 00       	mov    $0x7fff,%esi
    54c2:	89 c1                	mov    %eax,%ecx
    54c4:	d3 fe                	sar    %cl,%esi
    54c6:	89 f0                	mov    %esi,%eax
    54c8:	39 c2                	cmp    %eax,%edx
    54ca:	7f 0f                	jg     54db <safe_lshift_func_int16_t_s_s+0x49>
    54cc:	0f bf 55 fc          	movswl -0x4(%rbp),%edx
    54d0:	8b 45 f8             	mov    -0x8(%rbp),%eax
    54d3:	89 c1                	mov    %eax,%ecx
    54d5:	d3 e2                	shl    %cl,%edx
    54d7:	89 d0                	mov    %edx,%eax
    54d9:	eb 04                	jmp    54df <safe_lshift_func_int16_t_s_s+0x4d>
    54db:	0f b7 45 fc          	movzwl -0x4(%rbp),%eax
    54df:	5d                   	pop    %rbp
    54e0:	c3                   	retq   

00000000000054e1 <safe_lshift_func_int16_t_s_u>:
    54e1:	f3 0f 1e fa          	endbr64 
    54e5:	55                   	push   %rbp
    54e6:	48 89 e5             	mov    %rsp,%rbp
    54e9:	89 f8                	mov    %edi,%eax
    54eb:	89 75 f8             	mov    %esi,-0x8(%rbp)
    54ee:	66 89 45 fc          	mov    %ax,-0x4(%rbp)
    54f2:	66 83 7d fc 00       	cmpw   $0x0,-0x4(%rbp)
    54f7:	78 2b                	js     5524 <safe_lshift_func_int16_t_s_u+0x43>
    54f9:	83 7d f8 1f          	cmpl   $0x1f,-0x8(%rbp)
    54fd:	77 25                	ja     5524 <safe_lshift_func_int16_t_s_u+0x43>
    54ff:	0f bf 55 fc          	movswl -0x4(%rbp),%edx
    5503:	8b 45 f8             	mov    -0x8(%rbp),%eax
    5506:	be ff 7f 00 00       	mov    $0x7fff,%esi
    550b:	89 c1                	mov    %eax,%ecx
    550d:	d3 fe                	sar    %cl,%esi
    550f:	89 f0                	mov    %esi,%eax
    5511:	39 c2                	cmp    %eax,%edx
    5513:	7f 0f                	jg     5524 <safe_lshift_func_int16_t_s_u+0x43>
    5515:	0f bf 55 fc          	movswl -0x4(%rbp),%edx
    5519:	8b 45 f8             	mov    -0x8(%rbp),%eax
    551c:	89 c1                	mov    %eax,%ecx
    551e:	d3 e2                	shl    %cl,%edx
    5520:	89 d0                	mov    %edx,%eax
    5522:	eb 04                	jmp    5528 <safe_lshift_func_int16_t_s_u+0x47>
    5524:	0f b7 45 fc          	movzwl -0x4(%rbp),%eax
    5528:	5d                   	pop    %rbp
    5529:	c3                   	retq   

000000000000552a <safe_rshift_func_int16_t_s_s>:
    552a:	f3 0f 1e fa          	endbr64 
    552e:	55                   	push   %rbp
    552f:	48 89 e5             	mov    %rsp,%rbp
    5532:	89 f8                	mov    %edi,%eax
    5534:	89 75 f8             	mov    %esi,-0x8(%rbp)
    5537:	66 89 45 fc          	mov    %ax,-0x4(%rbp)
    553b:	66 83 7d fc 00       	cmpw   $0x0,-0x4(%rbp)
    5540:	78 1b                	js     555d <safe_rshift_func_int16_t_s_s+0x33>
    5542:	83 7d f8 00          	cmpl   $0x0,-0x8(%rbp)
    5546:	78 15                	js     555d <safe_rshift_func_int16_t_s_s+0x33>
    5548:	83 7d f8 1f          	cmpl   $0x1f,-0x8(%rbp)
    554c:	7f 0f                	jg     555d <safe_rshift_func_int16_t_s_s+0x33>
    554e:	0f bf 55 fc          	movswl -0x4(%rbp),%edx
    5552:	8b 45 f8             	mov    -0x8(%rbp),%eax
    5555:	89 c1                	mov    %eax,%ecx
    5557:	d3 fa                	sar    %cl,%edx
    5559:	89 d0                	mov    %edx,%eax
    555b:	eb 04                	jmp    5561 <safe_rshift_func_int16_t_s_s+0x37>
    555d:	0f b7 45 fc          	movzwl -0x4(%rbp),%eax
    5561:	5d                   	pop    %rbp
    5562:	c3                   	retq   

0000000000005563 <safe_rshift_func_int16_t_s_u>:
    5563:	f3 0f 1e fa          	endbr64 
    5567:	55                   	push   %rbp
    5568:	48 89 e5             	mov    %rsp,%rbp
    556b:	89 f8                	mov    %edi,%eax
    556d:	89 75 f8             	mov    %esi,-0x8(%rbp)
    5570:	66 89 45 fc          	mov    %ax,-0x4(%rbp)
    5574:	66 83 7d fc 00       	cmpw   $0x0,-0x4(%rbp)
    5579:	78 15                	js     5590 <safe_rshift_func_int16_t_s_u+0x2d>
    557b:	83 7d f8 1f          	cmpl   $0x1f,-0x8(%rbp)
    557f:	77 0f                	ja     5590 <safe_rshift_func_int16_t_s_u+0x2d>
    5581:	0f bf 55 fc          	movswl -0x4(%rbp),%edx
    5585:	8b 45 f8             	mov    -0x8(%rbp),%eax
    5588:	89 c1                	mov    %eax,%ecx
    558a:	d3 fa                	sar    %cl,%edx
    558c:	89 d0                	mov    %edx,%eax
    558e:	eb 04                	jmp    5594 <safe_rshift_func_int16_t_s_u+0x31>
    5590:	0f b7 45 fc          	movzwl -0x4(%rbp),%eax
    5594:	5d                   	pop    %rbp
    5595:	c3                   	retq   

0000000000005596 <safe_unary_minus_func_int32_t_s>:
    5596:	f3 0f 1e fa          	endbr64 
    559a:	55                   	push   %rbp
    559b:	48 89 e5             	mov    %rsp,%rbp
    559e:	89 7d fc             	mov    %edi,-0x4(%rbp)
    55a1:	81 7d fc 00 00 00 80 	cmpl   $0x80000000,-0x4(%rbp)
    55a8:	74 07                	je     55b1 <safe_unary_minus_func_int32_t_s+0x1b>
    55aa:	8b 45 fc             	mov    -0x4(%rbp),%eax
    55ad:	f7 d8                	neg    %eax
    55af:	eb 03                	jmp    55b4 <safe_unary_minus_func_int32_t_s+0x1e>
    55b1:	8b 45 fc             	mov    -0x4(%rbp),%eax
    55b4:	5d                   	pop    %rbp
    55b5:	c3                   	retq   

00000000000055b6 <safe_add_func_int32_t_s_s>:
    55b6:	f3 0f 1e fa          	endbr64 
    55ba:	55                   	push   %rbp
    55bb:	48 89 e5             	mov    %rsp,%rbp
    55be:	89 7d fc             	mov    %edi,-0x4(%rbp)
    55c1:	89 75 f8             	mov    %esi,-0x8(%rbp)
    55c4:	83 7d fc 00          	cmpl   $0x0,-0x4(%rbp)
    55c8:	7e 13                	jle    55dd <safe_add_func_int32_t_s_s+0x27>
    55ca:	83 7d f8 00          	cmpl   $0x0,-0x8(%rbp)
    55ce:	7e 0d                	jle    55dd <safe_add_func_int32_t_s_s+0x27>
    55d0:	b8 ff ff ff 7f       	mov    $0x7fffffff,%eax
    55d5:	2b 45 f8             	sub    -0x8(%rbp),%eax
    55d8:	39 45 fc             	cmp    %eax,-0x4(%rbp)
    55db:	7f 23                	jg     5600 <safe_add_func_int32_t_s_s+0x4a>
    55dd:	83 7d fc 00          	cmpl   $0x0,-0x4(%rbp)
    55e1:	79 13                	jns    55f6 <safe_add_func_int32_t_s_s+0x40>
    55e3:	83 7d f8 00          	cmpl   $0x0,-0x8(%rbp)
    55e7:	79 0d                	jns    55f6 <safe_add_func_int32_t_s_s+0x40>
    55e9:	b8 00 00 00 80       	mov    $0x80000000,%eax
    55ee:	2b 45 f8             	sub    -0x8(%rbp),%eax
    55f1:	39 45 fc             	cmp    %eax,-0x4(%rbp)
    55f4:	7c 0a                	jl     5600 <safe_add_func_int32_t_s_s+0x4a>
    55f6:	8b 55 fc             	mov    -0x4(%rbp),%edx
    55f9:	8b 45 f8             	mov    -0x8(%rbp),%eax
    55fc:	01 d0                	add    %edx,%eax
    55fe:	eb 03                	jmp    5603 <safe_add_func_int32_t_s_s+0x4d>
    5600:	8b 45 fc             	mov    -0x4(%rbp),%eax
    5603:	5d                   	pop    %rbp
    5604:	c3                   	retq   

0000000000005605 <safe_sub_func_int32_t_s_s>:
    5605:	f3 0f 1e fa          	endbr64 
    5609:	55                   	push   %rbp
    560a:	48 89 e5             	mov    %rsp,%rbp
    560d:	89 7d fc             	mov    %edi,-0x4(%rbp)
    5610:	89 75 f8             	mov    %esi,-0x8(%rbp)
    5613:	8b 45 fc             	mov    -0x4(%rbp),%eax
    5616:	33 45 f8             	xor    -0x8(%rbp),%eax
    5619:	89 c2                	mov    %eax,%edx
    561b:	8b 45 fc             	mov    -0x4(%rbp),%eax
    561e:	33 45 f8             	xor    -0x8(%rbp),%eax
    5621:	25 00 00 00 80       	and    $0x80000000,%eax
    5626:	33 45 fc             	xor    -0x4(%rbp),%eax
    5629:	2b 45 f8             	sub    -0x8(%rbp),%eax
    562c:	33 45 f8             	xor    -0x8(%rbp),%eax
    562f:	21 d0                	and    %edx,%eax
    5631:	85 c0                	test   %eax,%eax
    5633:	78 08                	js     563d <safe_sub_func_int32_t_s_s+0x38>
    5635:	8b 45 fc             	mov    -0x4(%rbp),%eax
    5638:	2b 45 f8             	sub    -0x8(%rbp),%eax
    563b:	eb 03                	jmp    5640 <safe_sub_func_int32_t_s_s+0x3b>
    563d:	8b 45 fc             	mov    -0x4(%rbp),%eax
    5640:	5d                   	pop    %rbp
    5641:	c3                   	retq   

0000000000005642 <safe_mul_func_int32_t_s_s>:
    5642:	f3 0f 1e fa          	endbr64 
    5646:	55                   	push   %rbp
    5647:	48 89 e5             	mov    %rsp,%rbp
    564a:	89 7d fc             	mov    %edi,-0x4(%rbp)
    564d:	89 75 f8             	mov    %esi,-0x8(%rbp)
    5650:	83 7d fc 00          	cmpl   $0x0,-0x4(%rbp)
    5654:	7e 14                	jle    566a <safe_mul_func_int32_t_s_s+0x28>
    5656:	83 7d f8 00          	cmpl   $0x0,-0x8(%rbp)
    565a:	7e 0e                	jle    566a <safe_mul_func_int32_t_s_s+0x28>
    565c:	b8 ff ff ff 7f       	mov    $0x7fffffff,%eax
    5661:	99                   	cltd   
    5662:	f7 7d f8             	idivl  -0x8(%rbp)
    5665:	39 45 fc             	cmp    %eax,-0x4(%rbp)
    5668:	7f 5d                	jg     56c7 <safe_mul_func_int32_t_s_s+0x85>
    566a:	83 7d fc 00          	cmpl   $0x0,-0x4(%rbp)
    566e:	7e 14                	jle    5684 <safe_mul_func_int32_t_s_s+0x42>
    5670:	83 7d f8 00          	cmpl   $0x0,-0x8(%rbp)
    5674:	7f 0e                	jg     5684 <safe_mul_func_int32_t_s_s+0x42>
    5676:	b8 00 00 00 80       	mov    $0x80000000,%eax
    567b:	99                   	cltd   
    567c:	f7 7d fc             	idivl  -0x4(%rbp)
    567f:	39 45 f8             	cmp    %eax,-0x8(%rbp)
    5682:	7c 43                	jl     56c7 <safe_mul_func_int32_t_s_s+0x85>
    5684:	83 7d fc 00          	cmpl   $0x0,-0x4(%rbp)
    5688:	7f 14                	jg     569e <safe_mul_func_int32_t_s_s+0x5c>
    568a:	83 7d f8 00          	cmpl   $0x0,-0x8(%rbp)
    568e:	7e 0e                	jle    569e <safe_mul_func_int32_t_s_s+0x5c>
    5690:	b8 00 00 00 80       	mov    $0x80000000,%eax
    5695:	99                   	cltd   
    5696:	f7 7d f8             	idivl  -0x8(%rbp)
    5699:	39 45 fc             	cmp    %eax,-0x4(%rbp)
    569c:	7c 29                	jl     56c7 <safe_mul_func_int32_t_s_s+0x85>
    569e:	83 7d fc 00          	cmpl   $0x0,-0x4(%rbp)
    56a2:	7f 1a                	jg     56be <safe_mul_func_int32_t_s_s+0x7c>
    56a4:	83 7d f8 00          	cmpl   $0x0,-0x8(%rbp)
    56a8:	7f 14                	jg     56be <safe_mul_func_int32_t_s_s+0x7c>
    56aa:	83 7d fc 00          	cmpl   $0x0,-0x4(%rbp)
    56ae:	74 0e                	je     56be <safe_mul_func_int32_t_s_s+0x7c>
    56b0:	b8 ff ff ff 7f       	mov    $0x7fffffff,%eax
    56b5:	99                   	cltd   
    56b6:	f7 7d fc             	idivl  -0x4(%rbp)
    56b9:	39 45 f8             	cmp    %eax,-0x8(%rbp)
    56bc:	7c 09                	jl     56c7 <safe_mul_func_int32_t_s_s+0x85>
    56be:	8b 45 fc             	mov    -0x4(%rbp),%eax
    56c1:	0f af 45 f8          	imul   -0x8(%rbp),%eax
    56c5:	eb 03                	jmp    56ca <safe_mul_func_int32_t_s_s+0x88>
    56c7:	8b 45 fc             	mov    -0x4(%rbp),%eax
    56ca:	5d                   	pop    %rbp
    56cb:	c3                   	retq   

00000000000056cc <safe_mod_func_int32_t_s_s>:
    56cc:	f3 0f 1e fa          	endbr64 
    56d0:	55                   	push   %rbp
    56d1:	48 89 e5             	mov    %rsp,%rbp
    56d4:	89 7d fc             	mov    %edi,-0x4(%rbp)
    56d7:	89 75 f8             	mov    %esi,-0x8(%rbp)
    56da:	83 7d f8 00          	cmpl   $0x0,-0x8(%rbp)
    56de:	74 1a                	je     56fa <safe_mod_func_int32_t_s_s+0x2e>
    56e0:	81 7d fc 00 00 00 80 	cmpl   $0x80000000,-0x4(%rbp)
    56e7:	75 06                	jne    56ef <safe_mod_func_int32_t_s_s+0x23>
    56e9:	83 7d f8 ff          	cmpl   $0xffffffff,-0x8(%rbp)
    56ed:	74 0b                	je     56fa <safe_mod_func_int32_t_s_s+0x2e>
    56ef:	8b 45 fc             	mov    -0x4(%rbp),%eax
    56f2:	99                   	cltd   
    56f3:	f7 7d f8             	idivl  -0x8(%rbp)
    56f6:	89 d0                	mov    %edx,%eax
    56f8:	eb 03                	jmp    56fd <safe_mod_func_int32_t_s_s+0x31>
    56fa:	8b 45 fc             	mov    -0x4(%rbp),%eax
    56fd:	5d                   	pop    %rbp
    56fe:	c3                   	retq   

00000000000056ff <safe_div_func_int32_t_s_s>:
    56ff:	f3 0f 1e fa          	endbr64 
    5703:	55                   	push   %rbp
    5704:	48 89 e5             	mov    %rsp,%rbp
    5707:	89 7d fc             	mov    %edi,-0x4(%rbp)
    570a:	89 75 f8             	mov    %esi,-0x8(%rbp)
    570d:	83 7d f8 00          	cmpl   $0x0,-0x8(%rbp)
    5711:	74 18                	je     572b <safe_div_func_int32_t_s_s+0x2c>
    5713:	81 7d fc 00 00 00 80 	cmpl   $0x80000000,-0x4(%rbp)
    571a:	75 06                	jne    5722 <safe_div_func_int32_t_s_s+0x23>
    571c:	83 7d f8 ff          	cmpl   $0xffffffff,-0x8(%rbp)
    5720:	74 09                	je     572b <safe_div_func_int32_t_s_s+0x2c>
    5722:	8b 45 fc             	mov    -0x4(%rbp),%eax
    5725:	99                   	cltd   
    5726:	f7 7d f8             	idivl  -0x8(%rbp)
    5729:	eb 03                	jmp    572e <safe_div_func_int32_t_s_s+0x2f>
    572b:	8b 45 fc             	mov    -0x4(%rbp),%eax
    572e:	5d                   	pop    %rbp
    572f:	c3                   	retq   

0000000000005730 <safe_lshift_func_int32_t_s_s>:
    5730:	f3 0f 1e fa          	endbr64 
    5734:	55                   	push   %rbp
    5735:	48 89 e5             	mov    %rsp,%rbp
    5738:	89 7d fc             	mov    %edi,-0x4(%rbp)
    573b:	89 75 f8             	mov    %esi,-0x8(%rbp)
    573e:	83 7d fc 00          	cmpl   $0x0,-0x4(%rbp)
    5742:	78 2d                	js     5771 <safe_lshift_func_int32_t_s_s+0x41>
    5744:	83 7d f8 00          	cmpl   $0x0,-0x8(%rbp)
    5748:	78 27                	js     5771 <safe_lshift_func_int32_t_s_s+0x41>
    574a:	83 7d f8 1f          	cmpl   $0x1f,-0x8(%rbp)
    574e:	7f 21                	jg     5771 <safe_lshift_func_int32_t_s_s+0x41>
    5750:	8b 45 f8             	mov    -0x8(%rbp),%eax
    5753:	ba ff ff ff 7f       	mov    $0x7fffffff,%edx
    5758:	89 c1                	mov    %eax,%ecx
    575a:	d3 fa                	sar    %cl,%edx
    575c:	89 d0                	mov    %edx,%eax
    575e:	39 45 fc             	cmp    %eax,-0x4(%rbp)
    5761:	7f 0e                	jg     5771 <safe_lshift_func_int32_t_s_s+0x41>
    5763:	8b 45 f8             	mov    -0x8(%rbp),%eax
    5766:	8b 55 fc             	mov    -0x4(%rbp),%edx
    5769:	89 c1                	mov    %eax,%ecx
    576b:	d3 e2                	shl    %cl,%edx
    576d:	89 d0                	mov    %edx,%eax
    576f:	eb 03                	jmp    5774 <safe_lshift_func_int32_t_s_s+0x44>
    5771:	8b 45 fc             	mov    -0x4(%rbp),%eax
    5774:	5d                   	pop    %rbp
    5775:	c3                   	retq   

0000000000005776 <safe_lshift_func_int32_t_s_u>:
    5776:	f3 0f 1e fa          	endbr64 
    577a:	55                   	push   %rbp
    577b:	48 89 e5             	mov    %rsp,%rbp
    577e:	89 7d fc             	mov    %edi,-0x4(%rbp)
    5781:	89 75 f8             	mov    %esi,-0x8(%rbp)
    5784:	83 7d fc 00          	cmpl   $0x0,-0x4(%rbp)
    5788:	78 27                	js     57b1 <safe_lshift_func_int32_t_s_u+0x3b>
    578a:	83 7d f8 1f          	cmpl   $0x1f,-0x8(%rbp)
    578e:	77 21                	ja     57b1 <safe_lshift_func_int32_t_s_u+0x3b>
    5790:	8b 45 f8             	mov    -0x8(%rbp),%eax
    5793:	ba ff ff ff 7f       	mov    $0x7fffffff,%edx
    5798:	89 c1                	mov    %eax,%ecx
    579a:	d3 fa                	sar    %cl,%edx
    579c:	89 d0                	mov    %edx,%eax
    579e:	39 45 fc             	cmp    %eax,-0x4(%rbp)
    57a1:	7f 0e                	jg     57b1 <safe_lshift_func_int32_t_s_u+0x3b>
    57a3:	8b 45 f8             	mov    -0x8(%rbp),%eax
    57a6:	8b 55 fc             	mov    -0x4(%rbp),%edx
    57a9:	89 c1                	mov    %eax,%ecx
    57ab:	d3 e2                	shl    %cl,%edx
    57ad:	89 d0                	mov    %edx,%eax
    57af:	eb 03                	jmp    57b4 <safe_lshift_func_int32_t_s_u+0x3e>
    57b1:	8b 45 fc             	mov    -0x4(%rbp),%eax
    57b4:	5d                   	pop    %rbp
    57b5:	c3                   	retq   

00000000000057b6 <safe_rshift_func_int32_t_s_s>:
    57b6:	f3 0f 1e fa          	endbr64 
    57ba:	55                   	push   %rbp
    57bb:	48 89 e5             	mov    %rsp,%rbp
    57be:	89 7d fc             	mov    %edi,-0x4(%rbp)
    57c1:	89 75 f8             	mov    %esi,-0x8(%rbp)
    57c4:	83 7d fc 00          	cmpl   $0x0,-0x4(%rbp)
    57c8:	78 1a                	js     57e4 <safe_rshift_func_int32_t_s_s+0x2e>
    57ca:	83 7d f8 00          	cmpl   $0x0,-0x8(%rbp)
    57ce:	78 14                	js     57e4 <safe_rshift_func_int32_t_s_s+0x2e>
    57d0:	83 7d f8 1f          	cmpl   $0x1f,-0x8(%rbp)
    57d4:	7f 0e                	jg     57e4 <safe_rshift_func_int32_t_s_s+0x2e>
    57d6:	8b 45 f8             	mov    -0x8(%rbp),%eax
    57d9:	8b 55 fc             	mov    -0x4(%rbp),%edx
    57dc:	89 c1                	mov    %eax,%ecx
    57de:	d3 fa                	sar    %cl,%edx
    57e0:	89 d0                	mov    %edx,%eax
    57e2:	eb 03                	jmp    57e7 <safe_rshift_func_int32_t_s_s+0x31>
    57e4:	8b 45 fc             	mov    -0x4(%rbp),%eax
    57e7:	5d                   	pop    %rbp
    57e8:	c3                   	retq   

00000000000057e9 <safe_rshift_func_int32_t_s_u>:
    57e9:	f3 0f 1e fa          	endbr64 
    57ed:	55                   	push   %rbp
    57ee:	48 89 e5             	mov    %rsp,%rbp
    57f1:	89 7d fc             	mov    %edi,-0x4(%rbp)
    57f4:	89 75 f8             	mov    %esi,-0x8(%rbp)
    57f7:	83 7d fc 00          	cmpl   $0x0,-0x4(%rbp)
    57fb:	78 14                	js     5811 <safe_rshift_func_int32_t_s_u+0x28>
    57fd:	83 7d f8 1f          	cmpl   $0x1f,-0x8(%rbp)
    5801:	77 0e                	ja     5811 <safe_rshift_func_int32_t_s_u+0x28>
    5803:	8b 45 f8             	mov    -0x8(%rbp),%eax
    5806:	8b 55 fc             	mov    -0x4(%rbp),%edx
    5809:	89 c1                	mov    %eax,%ecx
    580b:	d3 fa                	sar    %cl,%edx
    580d:	89 d0                	mov    %edx,%eax
    580f:	eb 03                	jmp    5814 <safe_rshift_func_int32_t_s_u+0x2b>
    5811:	8b 45 fc             	mov    -0x4(%rbp),%eax
    5814:	5d                   	pop    %rbp
    5815:	c3                   	retq   

0000000000005816 <safe_unary_minus_func_int64_t_s>:
    5816:	f3 0f 1e fa          	endbr64 
    581a:	55                   	push   %rbp
    581b:	48 89 e5             	mov    %rsp,%rbp
    581e:	48 89 7d f8          	mov    %rdi,-0x8(%rbp)
    5822:	48 b8 00 00 00 00 00 	movabs $0x8000000000000000,%rax
    5829:	00 00 80 
    582c:	48 39 45 f8          	cmp    %rax,-0x8(%rbp)
    5830:	74 09                	je     583b <safe_unary_minus_func_int64_t_s+0x25>
    5832:	48 8b 45 f8          	mov    -0x8(%rbp),%rax
    5836:	48 f7 d8             	neg    %rax
    5839:	eb 04                	jmp    583f <safe_unary_minus_func_int64_t_s+0x29>
    583b:	48 8b 45 f8          	mov    -0x8(%rbp),%rax
    583f:	5d                   	pop    %rbp
    5840:	c3                   	retq   

0000000000005841 <safe_add_func_int64_t_s_s>:
    5841:	f3 0f 1e fa          	endbr64 
    5845:	55                   	push   %rbp
    5846:	48 89 e5             	mov    %rsp,%rbp
    5849:	48 89 7d f8          	mov    %rdi,-0x8(%rbp)
    584d:	48 89 75 f0          	mov    %rsi,-0x10(%rbp)
    5851:	48 83 7d f8 00       	cmpq   $0x0,-0x8(%rbp)
    5856:	7e 1b                	jle    5873 <safe_add_func_int64_t_s_s+0x32>
    5858:	48 83 7d f0 00       	cmpq   $0x0,-0x10(%rbp)
    585d:	7e 14                	jle    5873 <safe_add_func_int64_t_s_s+0x32>
    585f:	48 b8 ff ff ff ff ff 	movabs $0x7fffffffffffffff,%rax
    5866:	ff ff 7f 
    5869:	48 2b 45 f0          	sub    -0x10(%rbp),%rax
    586d:	48 39 45 f8          	cmp    %rax,-0x8(%rbp)
    5871:	7f 2f                	jg     58a2 <safe_add_func_int64_t_s_s+0x61>
    5873:	48 83 7d f8 00       	cmpq   $0x0,-0x8(%rbp)
    5878:	79 1b                	jns    5895 <safe_add_func_int64_t_s_s+0x54>
    587a:	48 83 7d f0 00       	cmpq   $0x0,-0x10(%rbp)
    587f:	79 14                	jns    5895 <safe_add_func_int64_t_s_s+0x54>
    5881:	48 b8 00 00 00 00 00 	movabs $0x8000000000000000,%rax
    5888:	00 00 80 
    588b:	48 2b 45 f0          	sub    -0x10(%rbp),%rax
    588f:	48 39 45 f8          	cmp    %rax,-0x8(%rbp)
    5893:	7c 0d                	jl     58a2 <safe_add_func_int64_t_s_s+0x61>
    5895:	48 8b 55 f8          	mov    -0x8(%rbp),%rdx
    5899:	48 8b 45 f0          	mov    -0x10(%rbp),%rax
    589d:	48 01 d0             	add    %rdx,%rax
    58a0:	eb 04                	jmp    58a6 <safe_add_func_int64_t_s_s+0x65>
    58a2:	48 8b 45 f8          	mov    -0x8(%rbp),%rax
    58a6:	5d                   	pop    %rbp
    58a7:	c3                   	retq   

00000000000058a8 <safe_sub_func_int64_t_s_s>:
    58a8:	f3 0f 1e fa          	endbr64 
    58ac:	55                   	push   %rbp
    58ad:	48 89 e5             	mov    %rsp,%rbp
    58b0:	48 89 7d f8          	mov    %rdi,-0x8(%rbp)
    58b4:	48 89 75 f0          	mov    %rsi,-0x10(%rbp)
    58b8:	48 8b 45 f8          	mov    -0x8(%rbp),%rax
    58bc:	48 33 45 f0          	xor    -0x10(%rbp),%rax
    58c0:	48 89 c2             	mov    %rax,%rdx
    58c3:	48 8b 45 f8          	mov    -0x8(%rbp),%rax
    58c7:	48 33 45 f0          	xor    -0x10(%rbp),%rax
    58cb:	48 b9 00 00 00 00 00 	movabs $0x8000000000000000,%rcx
    58d2:	00 00 80 
    58d5:	48 21 c8             	and    %rcx,%rax
    58d8:	48 33 45 f8          	xor    -0x8(%rbp),%rax
    58dc:	48 2b 45 f0          	sub    -0x10(%rbp),%rax
    58e0:	48 33 45 f0          	xor    -0x10(%rbp),%rax
    58e4:	48 21 d0             	and    %rdx,%rax
    58e7:	48 85 c0             	test   %rax,%rax
    58ea:	78 0a                	js     58f6 <safe_sub_func_int64_t_s_s+0x4e>
    58ec:	48 8b 45 f8          	mov    -0x8(%rbp),%rax
    58f0:	48 2b 45 f0          	sub    -0x10(%rbp),%rax
    58f4:	eb 04                	jmp    58fa <safe_sub_func_int64_t_s_s+0x52>
    58f6:	48 8b 45 f8          	mov    -0x8(%rbp),%rax
    58fa:	5d                   	pop    %rbp
    58fb:	c3                   	retq   

00000000000058fc <safe_mul_func_int64_t_s_s>:
    58fc:	f3 0f 1e fa          	endbr64 
    5900:	55                   	push   %rbp
    5901:	48 89 e5             	mov    %rsp,%rbp
    5904:	48 89 7d f8          	mov    %rdi,-0x8(%rbp)
    5908:	48 89 75 f0          	mov    %rsi,-0x10(%rbp)
    590c:	48 83 7d f8 00       	cmpq   $0x0,-0x8(%rbp)
    5911:	7e 1d                	jle    5930 <safe_mul_func_int64_t_s_s+0x34>
    5913:	48 83 7d f0 00       	cmpq   $0x0,-0x10(%rbp)
    5918:	7e 16                	jle    5930 <safe_mul_func_int64_t_s_s+0x34>
    591a:	48 b8 ff ff ff ff ff 	movabs $0x7fffffffffffffff,%rax
    5921:	ff ff 7f 
    5924:	48 99                	cqto   
    5926:	48 f7 7d f0          	idivq  -0x10(%rbp)
    592a:	48 39 45 f8          	cmp    %rax,-0x8(%rbp)
    592e:	7f 7e                	jg     59ae <safe_mul_func_int64_t_s_s+0xb2>
    5930:	48 83 7d f8 00       	cmpq   $0x0,-0x8(%rbp)
    5935:	7e 1d                	jle    5954 <safe_mul_func_int64_t_s_s+0x58>
    5937:	48 83 7d f0 00       	cmpq   $0x0,-0x10(%rbp)
    593c:	7f 16                	jg     5954 <safe_mul_func_int64_t_s_s+0x58>
    593e:	48 b8 00 00 00 00 00 	movabs $0x8000000000000000,%rax
    5945:	00 00 80 
    5948:	48 99                	cqto   
    594a:	48 f7 7d f8          	idivq  -0x8(%rbp)
    594e:	48 39 45 f0          	cmp    %rax,-0x10(%rbp)
    5952:	7c 5a                	jl     59ae <safe_mul_func_int64_t_s_s+0xb2>
    5954:	48 83 7d f8 00       	cmpq   $0x0,-0x8(%rbp)
    5959:	7f 1d                	jg     5978 <safe_mul_func_int64_t_s_s+0x7c>
    595b:	48 83 7d f0 00       	cmpq   $0x0,-0x10(%rbp)
    5960:	7e 16                	jle    5978 <safe_mul_func_int64_t_s_s+0x7c>
    5962:	48 b8 00 00 00 00 00 	movabs $0x8000000000000000,%rax
    5969:	00 00 80 
    596c:	48 99                	cqto   
    596e:	48 f7 7d f0          	idivq  -0x10(%rbp)
    5972:	48 39 45 f8          	cmp    %rax,-0x8(%rbp)
    5976:	7c 36                	jl     59ae <safe_mul_func_int64_t_s_s+0xb2>
    5978:	48 83 7d f8 00       	cmpq   $0x0,-0x8(%rbp)
    597d:	7f 24                	jg     59a3 <safe_mul_func_int64_t_s_s+0xa7>
    597f:	48 83 7d f0 00       	cmpq   $0x0,-0x10(%rbp)
    5984:	7f 1d                	jg     59a3 <safe_mul_func_int64_t_s_s+0xa7>
    5986:	48 83 7d f8 00       	cmpq   $0x0,-0x8(%rbp)
    598b:	74 16                	je     59a3 <safe_mul_func_int64_t_s_s+0xa7>
    598d:	48 b8 ff ff ff ff ff 	movabs $0x7fffffffffffffff,%rax
    5994:	ff ff 7f 
    5997:	48 99                	cqto   
    5999:	48 f7 7d f8          	idivq  -0x8(%rbp)
    599d:	48 39 45 f0          	cmp    %rax,-0x10(%rbp)
    59a1:	7c 0b                	jl     59ae <safe_mul_func_int64_t_s_s+0xb2>
    59a3:	48 8b 45 f8          	mov    -0x8(%rbp),%rax
    59a7:	48 0f af 45 f0       	imul   -0x10(%rbp),%rax
    59ac:	eb 04                	jmp    59b2 <safe_mul_func_int64_t_s_s+0xb6>
    59ae:	48 8b 45 f8          	mov    -0x8(%rbp),%rax
    59b2:	5d                   	pop    %rbp
    59b3:	c3                   	retq   

00000000000059b4 <safe_mod_func_int64_t_s_s>:
    59b4:	f3 0f 1e fa          	endbr64 
    59b8:	55                   	push   %rbp
    59b9:	48 89 e5             	mov    %rsp,%rbp
    59bc:	48 89 7d f8          	mov    %rdi,-0x8(%rbp)
    59c0:	48 89 75 f0          	mov    %rsi,-0x10(%rbp)
    59c4:	48 83 7d f0 00       	cmpq   $0x0,-0x10(%rbp)
    59c9:	74 26                	je     59f1 <safe_mod_func_int64_t_s_s+0x3d>
    59cb:	48 b8 00 00 00 00 00 	movabs $0x8000000000000000,%rax
    59d2:	00 00 80 
    59d5:	48 39 45 f8          	cmp    %rax,-0x8(%rbp)
    59d9:	75 07                	jne    59e2 <safe_mod_func_int64_t_s_s+0x2e>
    59db:	48 83 7d f0 ff       	cmpq   $0xffffffffffffffff,-0x10(%rbp)
    59e0:	74 0f                	je     59f1 <safe_mod_func_int64_t_s_s+0x3d>
    59e2:	48 8b 45 f8          	mov    -0x8(%rbp),%rax
    59e6:	48 99                	cqto   
    59e8:	48 f7 7d f0          	idivq  -0x10(%rbp)
    59ec:	48 89 d0             	mov    %rdx,%rax
    59ef:	eb 04                	jmp    59f5 <safe_mod_func_int64_t_s_s+0x41>
    59f1:	48 8b 45 f8          	mov    -0x8(%rbp),%rax
    59f5:	5d                   	pop    %rbp
    59f6:	c3                   	retq   

00000000000059f7 <safe_div_func_int64_t_s_s>:
    59f7:	f3 0f 1e fa          	endbr64 
    59fb:	55                   	push   %rbp
    59fc:	48 89 e5             	mov    %rsp,%rbp
    59ff:	48 89 7d f8          	mov    %rdi,-0x8(%rbp)
    5a03:	48 89 75 f0          	mov    %rsi,-0x10(%rbp)
    5a07:	48 83 7d f0 00       	cmpq   $0x0,-0x10(%rbp)
    5a0c:	74 23                	je     5a31 <safe_div_func_int64_t_s_s+0x3a>
    5a0e:	48 b8 00 00 00 00 00 	movabs $0x8000000000000000,%rax
    5a15:	00 00 80 
    5a18:	48 39 45 f8          	cmp    %rax,-0x8(%rbp)
    5a1c:	75 07                	jne    5a25 <safe_div_func_int64_t_s_s+0x2e>
    5a1e:	48 83 7d f0 ff       	cmpq   $0xffffffffffffffff,-0x10(%rbp)
    5a23:	74 0c                	je     5a31 <safe_div_func_int64_t_s_s+0x3a>
    5a25:	48 8b 45 f8          	mov    -0x8(%rbp),%rax
    5a29:	48 99                	cqto   
    5a2b:	48 f7 7d f0          	idivq  -0x10(%rbp)
    5a2f:	eb 04                	jmp    5a35 <safe_div_func_int64_t_s_s+0x3e>
    5a31:	48 8b 45 f8          	mov    -0x8(%rbp),%rax
    5a35:	5d                   	pop    %rbp
    5a36:	c3                   	retq   

0000000000005a37 <safe_lshift_func_int64_t_s_s>:
    5a37:	f3 0f 1e fa          	endbr64 
    5a3b:	55                   	push   %rbp
    5a3c:	48 89 e5             	mov    %rsp,%rbp
    5a3f:	48 89 7d f8          	mov    %rdi,-0x8(%rbp)
    5a43:	89 75 f4             	mov    %esi,-0xc(%rbp)
    5a46:	48 83 7d f8 00       	cmpq   $0x0,-0x8(%rbp)
    5a4b:	78 38                	js     5a85 <safe_lshift_func_int64_t_s_s+0x4e>
    5a4d:	83 7d f4 00          	cmpl   $0x0,-0xc(%rbp)
    5a51:	78 32                	js     5a85 <safe_lshift_func_int64_t_s_s+0x4e>
    5a53:	83 7d f4 1f          	cmpl   $0x1f,-0xc(%rbp)
    5a57:	7f 2c                	jg     5a85 <safe_lshift_func_int64_t_s_s+0x4e>
    5a59:	8b 45 f4             	mov    -0xc(%rbp),%eax
    5a5c:	48 ba ff ff ff ff ff 	movabs $0x7fffffffffffffff,%rdx
    5a63:	ff ff 7f 
    5a66:	89 c1                	mov    %eax,%ecx
    5a68:	48 d3 fa             	sar    %cl,%rdx
    5a6b:	48 89 d0             	mov    %rdx,%rax
    5a6e:	48 39 45 f8          	cmp    %rax,-0x8(%rbp)
    5a72:	7f 11                	jg     5a85 <safe_lshift_func_int64_t_s_s+0x4e>
    5a74:	8b 45 f4             	mov    -0xc(%rbp),%eax
    5a77:	48 8b 55 f8          	mov    -0x8(%rbp),%rdx
    5a7b:	89 c1                	mov    %eax,%ecx
    5a7d:	48 d3 e2             	shl    %cl,%rdx
    5a80:	48 89 d0             	mov    %rdx,%rax
    5a83:	eb 04                	jmp    5a89 <safe_lshift_func_int64_t_s_s+0x52>
    5a85:	48 8b 45 f8          	mov    -0x8(%rbp),%rax
    5a89:	5d                   	pop    %rbp
    5a8a:	c3                   	retq   

0000000000005a8b <safe_lshift_func_int64_t_s_u>:
    5a8b:	f3 0f 1e fa          	endbr64 
    5a8f:	55                   	push   %rbp
    5a90:	48 89 e5             	mov    %rsp,%rbp
    5a93:	48 89 7d f8          	mov    %rdi,-0x8(%rbp)
    5a97:	89 75 f4             	mov    %esi,-0xc(%rbp)
    5a9a:	48 83 7d f8 00       	cmpq   $0x0,-0x8(%rbp)
    5a9f:	78 32                	js     5ad3 <safe_lshift_func_int64_t_s_u+0x48>
    5aa1:	83 7d f4 1f          	cmpl   $0x1f,-0xc(%rbp)
    5aa5:	77 2c                	ja     5ad3 <safe_lshift_func_int64_t_s_u+0x48>
    5aa7:	8b 45 f4             	mov    -0xc(%rbp),%eax
    5aaa:	48 ba ff ff ff ff ff 	movabs $0x7fffffffffffffff,%rdx
    5ab1:	ff ff 7f 
    5ab4:	89 c1                	mov    %eax,%ecx
    5ab6:	48 d3 fa             	sar    %cl,%rdx
    5ab9:	48 89 d0             	mov    %rdx,%rax
    5abc:	48 39 45 f8          	cmp    %rax,-0x8(%rbp)
    5ac0:	7f 11                	jg     5ad3 <safe_lshift_func_int64_t_s_u+0x48>
    5ac2:	8b 45 f4             	mov    -0xc(%rbp),%eax
    5ac5:	48 8b 55 f8          	mov    -0x8(%rbp),%rdx
    5ac9:	89 c1                	mov    %eax,%ecx
    5acb:	48 d3 e2             	shl    %cl,%rdx
    5ace:	48 89 d0             	mov    %rdx,%rax
    5ad1:	eb 04                	jmp    5ad7 <safe_lshift_func_int64_t_s_u+0x4c>
    5ad3:	48 8b 45 f8          	mov    -0x8(%rbp),%rax
    5ad7:	5d                   	pop    %rbp
    5ad8:	c3                   	retq   

0000000000005ad9 <safe_rshift_func_int64_t_s_s>:
    5ad9:	f3 0f 1e fa          	endbr64 
    5add:	55                   	push   %rbp
    5ade:	48 89 e5             	mov    %rsp,%rbp
    5ae1:	48 89 7d f8          	mov    %rdi,-0x8(%rbp)
    5ae5:	89 75 f4             	mov    %esi,-0xc(%rbp)
    5ae8:	48 83 7d f8 00       	cmpq   $0x0,-0x8(%rbp)
    5aed:	78 1d                	js     5b0c <safe_rshift_func_int64_t_s_s+0x33>
    5aef:	83 7d f4 00          	cmpl   $0x0,-0xc(%rbp)
    5af3:	78 17                	js     5b0c <safe_rshift_func_int64_t_s_s+0x33>
    5af5:	83 7d f4 1f          	cmpl   $0x1f,-0xc(%rbp)
    5af9:	7f 11                	jg     5b0c <safe_rshift_func_int64_t_s_s+0x33>
    5afb:	8b 45 f4             	mov    -0xc(%rbp),%eax
    5afe:	48 8b 55 f8          	mov    -0x8(%rbp),%rdx
    5b02:	89 c1                	mov    %eax,%ecx
    5b04:	48 d3 fa             	sar    %cl,%rdx
    5b07:	48 89 d0             	mov    %rdx,%rax
    5b0a:	eb 04                	jmp    5b10 <safe_rshift_func_int64_t_s_s+0x37>
    5b0c:	48 8b 45 f8          	mov    -0x8(%rbp),%rax
    5b10:	5d                   	pop    %rbp
    5b11:	c3                   	retq   

0000000000005b12 <safe_rshift_func_int64_t_s_u>:
    5b12:	f3 0f 1e fa          	endbr64 
    5b16:	55                   	push   %rbp
    5b17:	48 89 e5             	mov    %rsp,%rbp
    5b1a:	48 89 7d f8          	mov    %rdi,-0x8(%rbp)
    5b1e:	89 75 f4             	mov    %esi,-0xc(%rbp)
    5b21:	48 83 7d f8 00       	cmpq   $0x0,-0x8(%rbp)
    5b26:	78 17                	js     5b3f <safe_rshift_func_int64_t_s_u+0x2d>
    5b28:	83 7d f4 1f          	cmpl   $0x1f,-0xc(%rbp)
    5b2c:	77 11                	ja     5b3f <safe_rshift_func_int64_t_s_u+0x2d>
    5b2e:	8b 45 f4             	mov    -0xc(%rbp),%eax
    5b31:	48 8b 55 f8          	mov    -0x8(%rbp),%rdx
    5b35:	89 c1                	mov    %eax,%ecx
    5b37:	48 d3 fa             	sar    %cl,%rdx
    5b3a:	48 89 d0             	mov    %rdx,%rax
    5b3d:	eb 04                	jmp    5b43 <safe_rshift_func_int64_t_s_u+0x31>
    5b3f:	48 8b 45 f8          	mov    -0x8(%rbp),%rax
    5b43:	5d                   	pop    %rbp
    5b44:	c3                   	retq   

0000000000005b45 <safe_unary_minus_func_uint8_t_u>:
    5b45:	f3 0f 1e fa          	endbr64 
    5b49:	55                   	push   %rbp
    5b4a:	48 89 e5             	mov    %rsp,%rbp
    5b4d:	89 f8                	mov    %edi,%eax
    5b4f:	88 45 fc             	mov    %al,-0x4(%rbp)
    5b52:	0f b6 45 fc          	movzbl -0x4(%rbp),%eax
    5b56:	f7 d8                	neg    %eax
    5b58:	5d                   	pop    %rbp
    5b59:	c3                   	retq   

0000000000005b5a <safe_add_func_uint8_t_u_u>:
    5b5a:	f3 0f 1e fa          	endbr64 
    5b5e:	55                   	push   %rbp
    5b5f:	48 89 e5             	mov    %rsp,%rbp
    5b62:	89 fa                	mov    %edi,%edx
    5b64:	89 f0                	mov    %esi,%eax
    5b66:	88 55 fc             	mov    %dl,-0x4(%rbp)
    5b69:	88 45 f8             	mov    %al,-0x8(%rbp)
    5b6c:	0f b6 55 fc          	movzbl -0x4(%rbp),%edx
    5b70:	0f b6 45 f8          	movzbl -0x8(%rbp),%eax
    5b74:	01 d0                	add    %edx,%eax
    5b76:	5d                   	pop    %rbp
    5b77:	c3                   	retq   

0000000000005b78 <safe_sub_func_uint8_t_u_u>:
    5b78:	f3 0f 1e fa          	endbr64 
    5b7c:	55                   	push   %rbp
    5b7d:	48 89 e5             	mov    %rsp,%rbp
    5b80:	89 fa                	mov    %edi,%edx
    5b82:	89 f0                	mov    %esi,%eax
    5b84:	88 55 fc             	mov    %dl,-0x4(%rbp)
    5b87:	88 45 f8             	mov    %al,-0x8(%rbp)
    5b8a:	0f b6 45 fc          	movzbl -0x4(%rbp),%eax
    5b8e:	2a 45 f8             	sub    -0x8(%rbp),%al
    5b91:	5d                   	pop    %rbp
    5b92:	c3                   	retq   

0000000000005b93 <safe_mul_func_uint8_t_u_u>:
    5b93:	f3 0f 1e fa          	endbr64 
    5b97:	55                   	push   %rbp
    5b98:	48 89 e5             	mov    %rsp,%rbp
    5b9b:	89 fa                	mov    %edi,%edx
    5b9d:	89 f0                	mov    %esi,%eax
    5b9f:	88 55 fc             	mov    %dl,-0x4(%rbp)
    5ba2:	88 45 f8             	mov    %al,-0x8(%rbp)
    5ba5:	0f b6 45 fc          	movzbl -0x4(%rbp),%eax
    5ba9:	f6 65 f8             	mulb   -0x8(%rbp)
    5bac:	5d                   	pop    %rbp
    5bad:	c3                   	retq   

0000000000005bae <safe_mod_func_uint8_t_u_u>:
    5bae:	f3 0f 1e fa          	endbr64 
    5bb2:	55                   	push   %rbp
    5bb3:	48 89 e5             	mov    %rsp,%rbp
    5bb6:	89 fa                	mov    %edi,%edx
    5bb8:	89 f0                	mov    %esi,%eax
    5bba:	88 55 fc             	mov    %dl,-0x4(%rbp)
    5bbd:	88 45 f8             	mov    %al,-0x8(%rbp)
    5bc0:	80 7d f8 00          	cmpb   $0x0,-0x8(%rbp)
    5bc4:	74 0f                	je     5bd5 <safe_mod_func_uint8_t_u_u+0x27>
    5bc6:	0f b6 45 fc          	movzbl -0x4(%rbp),%eax
    5bca:	0f b6 c0             	movzbl %al,%eax
    5bcd:	f6 75 f8             	divb   -0x8(%rbp)
    5bd0:	0f b6 c4             	movzbl %ah,%eax
    5bd3:	eb 04                	jmp    5bd9 <safe_mod_func_uint8_t_u_u+0x2b>
    5bd5:	0f b6 45 fc          	movzbl -0x4(%rbp),%eax
    5bd9:	5d                   	pop    %rbp
    5bda:	c3                   	retq   

0000000000005bdb <safe_div_func_uint8_t_u_u>:
    5bdb:	f3 0f 1e fa          	endbr64 
    5bdf:	55                   	push   %rbp
    5be0:	48 89 e5             	mov    %rsp,%rbp
    5be3:	89 fa                	mov    %edi,%edx
    5be5:	89 f0                	mov    %esi,%eax
    5be7:	88 55 fc             	mov    %dl,-0x4(%rbp)
    5bea:	88 45 f8             	mov    %al,-0x8(%rbp)
    5bed:	80 7d f8 00          	cmpb   $0x0,-0x8(%rbp)
    5bf1:	74 0c                	je     5bff <safe_div_func_uint8_t_u_u+0x24>
    5bf3:	0f b6 45 fc          	movzbl -0x4(%rbp),%eax
    5bf7:	0f b6 c0             	movzbl %al,%eax
    5bfa:	f6 75 f8             	divb   -0x8(%rbp)
    5bfd:	eb 04                	jmp    5c03 <safe_div_func_uint8_t_u_u+0x28>
    5bff:	0f b6 45 fc          	movzbl -0x4(%rbp),%eax
    5c03:	5d                   	pop    %rbp
    5c04:	c3                   	retq   

0000000000005c05 <safe_lshift_func_uint8_t_u_s>:
    5c05:	f3 0f 1e fa          	endbr64 
    5c09:	55                   	push   %rbp
    5c0a:	48 89 e5             	mov    %rsp,%rbp
    5c0d:	89 f8                	mov    %edi,%eax
    5c0f:	89 75 f8             	mov    %esi,-0x8(%rbp)
    5c12:	88 45 fc             	mov    %al,-0x4(%rbp)
    5c15:	83 7d f8 00          	cmpl   $0x0,-0x8(%rbp)
    5c19:	78 2b                	js     5c46 <safe_lshift_func_uint8_t_u_s+0x41>
    5c1b:	83 7d f8 1f          	cmpl   $0x1f,-0x8(%rbp)
    5c1f:	7f 25                	jg     5c46 <safe_lshift_func_uint8_t_u_s+0x41>
    5c21:	0f b6 55 fc          	movzbl -0x4(%rbp),%edx
    5c25:	8b 45 f8             	mov    -0x8(%rbp),%eax
    5c28:	be ff 00 00 00       	mov    $0xff,%esi
    5c2d:	89 c1                	mov    %eax,%ecx
    5c2f:	d3 fe                	sar    %cl,%esi
    5c31:	89 f0                	mov    %esi,%eax
    5c33:	39 c2                	cmp    %eax,%edx
    5c35:	7f 0f                	jg     5c46 <safe_lshift_func_uint8_t_u_s+0x41>
    5c37:	0f b6 55 fc          	movzbl -0x4(%rbp),%edx
    5c3b:	8b 45 f8             	mov    -0x8(%rbp),%eax
    5c3e:	89 c1                	mov    %eax,%ecx
    5c40:	d3 e2                	shl    %cl,%edx
    5c42:	89 d0                	mov    %edx,%eax
    5c44:	eb 04                	jmp    5c4a <safe_lshift_func_uint8_t_u_s+0x45>
    5c46:	0f b6 45 fc          	movzbl -0x4(%rbp),%eax
    5c4a:	5d                   	pop    %rbp
    5c4b:	c3                   	retq   

0000000000005c4c <safe_lshift_func_uint8_t_u_u>:
    5c4c:	f3 0f 1e fa          	endbr64 
    5c50:	55                   	push   %rbp
    5c51:	48 89 e5             	mov    %rsp,%rbp
    5c54:	89 f8                	mov    %edi,%eax
    5c56:	89 75 f8             	mov    %esi,-0x8(%rbp)
    5c59:	88 45 fc             	mov    %al,-0x4(%rbp)
    5c5c:	83 7d f8 1f          	cmpl   $0x1f,-0x8(%rbp)
    5c60:	77 25                	ja     5c87 <safe_lshift_func_uint8_t_u_u+0x3b>
    5c62:	0f b6 55 fc          	movzbl -0x4(%rbp),%edx
    5c66:	8b 45 f8             	mov    -0x8(%rbp),%eax
    5c69:	be ff 00 00 00       	mov    $0xff,%esi
    5c6e:	89 c1                	mov    %eax,%ecx
    5c70:	d3 fe                	sar    %cl,%esi
    5c72:	89 f0                	mov    %esi,%eax
    5c74:	39 c2                	cmp    %eax,%edx
    5c76:	7f 0f                	jg     5c87 <safe_lshift_func_uint8_t_u_u+0x3b>
    5c78:	0f b6 55 fc          	movzbl -0x4(%rbp),%edx
    5c7c:	8b 45 f8             	mov    -0x8(%rbp),%eax
    5c7f:	89 c1                	mov    %eax,%ecx
    5c81:	d3 e2                	shl    %cl,%edx
    5c83:	89 d0                	mov    %edx,%eax
    5c85:	eb 04                	jmp    5c8b <safe_lshift_func_uint8_t_u_u+0x3f>
    5c87:	0f b6 45 fc          	movzbl -0x4(%rbp),%eax
    5c8b:	5d                   	pop    %rbp
    5c8c:	c3                   	retq   

0000000000005c8d <safe_rshift_func_uint8_t_u_s>:
    5c8d:	f3 0f 1e fa          	endbr64 
    5c91:	55                   	push   %rbp
    5c92:	48 89 e5             	mov    %rsp,%rbp
    5c95:	89 f8                	mov    %edi,%eax
    5c97:	89 75 f8             	mov    %esi,-0x8(%rbp)
    5c9a:	88 45 fc             	mov    %al,-0x4(%rbp)
    5c9d:	83 7d f8 00          	cmpl   $0x0,-0x8(%rbp)
    5ca1:	78 15                	js     5cb8 <safe_rshift_func_uint8_t_u_s+0x2b>
    5ca3:	83 7d f8 1f          	cmpl   $0x1f,-0x8(%rbp)
    5ca7:	7f 0f                	jg     5cb8 <safe_rshift_func_uint8_t_u_s+0x2b>
    5ca9:	0f b6 55 fc          	movzbl -0x4(%rbp),%edx
    5cad:	8b 45 f8             	mov    -0x8(%rbp),%eax
    5cb0:	89 c1                	mov    %eax,%ecx
    5cb2:	d3 fa                	sar    %cl,%edx
    5cb4:	89 d0                	mov    %edx,%eax
    5cb6:	eb 04                	jmp    5cbc <safe_rshift_func_uint8_t_u_s+0x2f>
    5cb8:	0f b6 45 fc          	movzbl -0x4(%rbp),%eax
    5cbc:	5d                   	pop    %rbp
    5cbd:	c3                   	retq   

0000000000005cbe <safe_rshift_func_uint8_t_u_u>:
    5cbe:	f3 0f 1e fa          	endbr64 
    5cc2:	55                   	push   %rbp
    5cc3:	48 89 e5             	mov    %rsp,%rbp
    5cc6:	89 f8                	mov    %edi,%eax
    5cc8:	89 75 f8             	mov    %esi,-0x8(%rbp)
    5ccb:	88 45 fc             	mov    %al,-0x4(%rbp)
    5cce:	83 7d f8 1f          	cmpl   $0x1f,-0x8(%rbp)
    5cd2:	77 0f                	ja     5ce3 <safe_rshift_func_uint8_t_u_u+0x25>
    5cd4:	0f b6 55 fc          	movzbl -0x4(%rbp),%edx
    5cd8:	8b 45 f8             	mov    -0x8(%rbp),%eax
    5cdb:	89 c1                	mov    %eax,%ecx
    5cdd:	d3 fa                	sar    %cl,%edx
    5cdf:	89 d0                	mov    %edx,%eax
    5ce1:	eb 04                	jmp    5ce7 <safe_rshift_func_uint8_t_u_u+0x29>
    5ce3:	0f b6 45 fc          	movzbl -0x4(%rbp),%eax
    5ce7:	5d                   	pop    %rbp
    5ce8:	c3                   	retq   

0000000000005ce9 <safe_unary_minus_func_uint16_t_u>:
    5ce9:	f3 0f 1e fa          	endbr64 
    5ced:	55                   	push   %rbp
    5cee:	48 89 e5             	mov    %rsp,%rbp
    5cf1:	89 f8                	mov    %edi,%eax
    5cf3:	66 89 45 fc          	mov    %ax,-0x4(%rbp)
    5cf7:	0f b7 45 fc          	movzwl -0x4(%rbp),%eax
    5cfb:	f7 d8                	neg    %eax
    5cfd:	5d                   	pop    %rbp
    5cfe:	c3                   	retq   

0000000000005cff <safe_add_func_uint16_t_u_u>:
    5cff:	f3 0f 1e fa          	endbr64 
    5d03:	55                   	push   %rbp
    5d04:	48 89 e5             	mov    %rsp,%rbp
    5d07:	89 fa                	mov    %edi,%edx
    5d09:	89 f0                	mov    %esi,%eax
    5d0b:	66 89 55 fc          	mov    %dx,-0x4(%rbp)
    5d0f:	66 89 45 f8          	mov    %ax,-0x8(%rbp)
    5d13:	0f b7 55 fc          	movzwl -0x4(%rbp),%edx
    5d17:	0f b7 45 f8          	movzwl -0x8(%rbp),%eax
    5d1b:	01 d0                	add    %edx,%eax
    5d1d:	5d                   	pop    %rbp
    5d1e:	c3                   	retq   

0000000000005d1f <safe_sub_func_uint16_t_u_u>:
    5d1f:	f3 0f 1e fa          	endbr64 
    5d23:	55                   	push   %rbp
    5d24:	48 89 e5             	mov    %rsp,%rbp
    5d27:	89 fa                	mov    %edi,%edx
    5d29:	89 f0                	mov    %esi,%eax
    5d2b:	66 89 55 fc          	mov    %dx,-0x4(%rbp)
    5d2f:	66 89 45 f8          	mov    %ax,-0x8(%rbp)
    5d33:	0f b7 45 fc          	movzwl -0x4(%rbp),%eax
    5d37:	66 2b 45 f8          	sub    -0x8(%rbp),%ax
    5d3b:	5d                   	pop    %rbp
    5d3c:	c3                   	retq   

0000000000005d3d <safe_mul_func_uint16_t_u_u>:
    5d3d:	f3 0f 1e fa          	endbr64 
    5d41:	55                   	push   %rbp
    5d42:	48 89 e5             	mov    %rsp,%rbp
    5d45:	89 fa                	mov    %edi,%edx
    5d47:	89 f0                	mov    %esi,%eax
    5d49:	66 89 55 fc          	mov    %dx,-0x4(%rbp)
    5d4d:	66 89 45 f8          	mov    %ax,-0x8(%rbp)
    5d51:	0f b7 45 fc          	movzwl -0x4(%rbp),%eax
    5d55:	66 0f af 45 f8       	imul   -0x8(%rbp),%ax
    5d5a:	5d                   	pop    %rbp
    5d5b:	c3                   	retq   

0000000000005d5c <safe_mod_func_uint16_t_u_u>:
    5d5c:	f3 0f 1e fa          	endbr64 
    5d60:	55                   	push   %rbp
    5d61:	48 89 e5             	mov    %rsp,%rbp
    5d64:	89 fa                	mov    %edi,%edx
    5d66:	89 f0                	mov    %esi,%eax
    5d68:	66 89 55 fc          	mov    %dx,-0x4(%rbp)
    5d6c:	66 89 45 f8          	mov    %ax,-0x8(%rbp)
    5d70:	66 83 7d f8 00       	cmpw   $0x0,-0x8(%rbp)
    5d75:	74 11                	je     5d88 <safe_mod_func_uint16_t_u_u+0x2c>
    5d77:	0f b7 45 fc          	movzwl -0x4(%rbp),%eax
    5d7b:	ba 00 00 00 00       	mov    $0x0,%edx
    5d80:	66 f7 75 f8          	divw   -0x8(%rbp)
    5d84:	89 d0                	mov    %edx,%eax
    5d86:	eb 04                	jmp    5d8c <safe_mod_func_uint16_t_u_u+0x30>
    5d88:	0f b7 45 fc          	movzwl -0x4(%rbp),%eax
    5d8c:	5d                   	pop    %rbp
    5d8d:	c3                   	retq   

0000000000005d8e <safe_div_func_uint16_t_u_u>:
    5d8e:	f3 0f 1e fa          	endbr64 
    5d92:	55                   	push   %rbp
    5d93:	48 89 e5             	mov    %rsp,%rbp
    5d96:	89 fa                	mov    %edi,%edx
    5d98:	89 f0                	mov    %esi,%eax
    5d9a:	66 89 55 fc          	mov    %dx,-0x4(%rbp)
    5d9e:	66 89 45 f8          	mov    %ax,-0x8(%rbp)
    5da2:	66 83 7d f8 00       	cmpw   $0x0,-0x8(%rbp)
    5da7:	74 0f                	je     5db8 <safe_div_func_uint16_t_u_u+0x2a>
    5da9:	0f b7 45 fc          	movzwl -0x4(%rbp),%eax
    5dad:	ba 00 00 00 00       	mov    $0x0,%edx
    5db2:	66 f7 75 f8          	divw   -0x8(%rbp)
    5db6:	eb 04                	jmp    5dbc <safe_div_func_uint16_t_u_u+0x2e>
    5db8:	0f b7 45 fc          	movzwl -0x4(%rbp),%eax
    5dbc:	5d                   	pop    %rbp
    5dbd:	c3                   	retq   

0000000000005dbe <safe_lshift_func_uint16_t_u_s>:
    5dbe:	f3 0f 1e fa          	endbr64 
    5dc2:	55                   	push   %rbp
    5dc3:	48 89 e5             	mov    %rsp,%rbp
    5dc6:	89 f8                	mov    %edi,%eax
    5dc8:	89 75 f8             	mov    %esi,-0x8(%rbp)
    5dcb:	66 89 45 fc          	mov    %ax,-0x4(%rbp)
    5dcf:	83 7d f8 00          	cmpl   $0x0,-0x8(%rbp)
    5dd3:	78 2b                	js     5e00 <safe_lshift_func_uint16_t_u_s+0x42>
    5dd5:	83 7d f8 1f          	cmpl   $0x1f,-0x8(%rbp)
    5dd9:	7f 25                	jg     5e00 <safe_lshift_func_uint16_t_u_s+0x42>
    5ddb:	0f b7 55 fc          	movzwl -0x4(%rbp),%edx
    5ddf:	8b 45 f8             	mov    -0x8(%rbp),%eax
    5de2:	be ff ff 00 00       	mov    $0xffff,%esi
    5de7:	89 c1                	mov    %eax,%ecx
    5de9:	d3 fe                	sar    %cl,%esi
    5deb:	89 f0                	mov    %esi,%eax
    5ded:	39 c2                	cmp    %eax,%edx
    5def:	7f 0f                	jg     5e00 <safe_lshift_func_uint16_t_u_s+0x42>
    5df1:	0f b7 55 fc          	movzwl -0x4(%rbp),%edx
    5df5:	8b 45 f8             	mov    -0x8(%rbp),%eax
    5df8:	89 c1                	mov    %eax,%ecx
    5dfa:	d3 e2                	shl    %cl,%edx
    5dfc:	89 d0                	mov    %edx,%eax
    5dfe:	eb 04                	jmp    5e04 <safe_lshift_func_uint16_t_u_s+0x46>
    5e00:	0f b7 45 fc          	movzwl -0x4(%rbp),%eax
    5e04:	5d                   	pop    %rbp
    5e05:	c3                   	retq   

0000000000005e06 <safe_lshift_func_uint16_t_u_u>:
    5e06:	f3 0f 1e fa          	endbr64 
    5e0a:	55                   	push   %rbp
    5e0b:	48 89 e5             	mov    %rsp,%rbp
    5e0e:	89 f8                	mov    %edi,%eax
    5e10:	89 75 f8             	mov    %esi,-0x8(%rbp)
    5e13:	66 89 45 fc          	mov    %ax,-0x4(%rbp)
    5e17:	83 7d f8 1f          	cmpl   $0x1f,-0x8(%rbp)
    5e1b:	77 25                	ja     5e42 <safe_lshift_func_uint16_t_u_u+0x3c>
    5e1d:	0f b7 55 fc          	movzwl -0x4(%rbp),%edx
    5e21:	8b 45 f8             	mov    -0x8(%rbp),%eax
    5e24:	be ff ff 00 00       	mov    $0xffff,%esi
    5e29:	89 c1                	mov    %eax,%ecx
    5e2b:	d3 fe                	sar    %cl,%esi
    5e2d:	89 f0                	mov    %esi,%eax
    5e2f:	39 c2                	cmp    %eax,%edx
    5e31:	7f 0f                	jg     5e42 <safe_lshift_func_uint16_t_u_u+0x3c>
    5e33:	0f b7 55 fc          	movzwl -0x4(%rbp),%edx
    5e37:	8b 45 f8             	mov    -0x8(%rbp),%eax
    5e3a:	89 c1                	mov    %eax,%ecx
    5e3c:	d3 e2                	shl    %cl,%edx
    5e3e:	89 d0                	mov    %edx,%eax
    5e40:	eb 04                	jmp    5e46 <safe_lshift_func_uint16_t_u_u+0x40>
    5e42:	0f b7 45 fc          	movzwl -0x4(%rbp),%eax
    5e46:	5d                   	pop    %rbp
    5e47:	c3                   	retq   

0000000000005e48 <safe_rshift_func_uint16_t_u_s>:
    5e48:	f3 0f 1e fa          	endbr64 
    5e4c:	55                   	push   %rbp
    5e4d:	48 89 e5             	mov    %rsp,%rbp
    5e50:	89 f8                	mov    %edi,%eax
    5e52:	89 75 f8             	mov    %esi,-0x8(%rbp)
    5e55:	66 89 45 fc          	mov    %ax,-0x4(%rbp)
    5e59:	83 7d f8 00          	cmpl   $0x0,-0x8(%rbp)
    5e5d:	78 15                	js     5e74 <safe_rshift_func_uint16_t_u_s+0x2c>
    5e5f:	83 7d f8 1f          	cmpl   $0x1f,-0x8(%rbp)
    5e63:	7f 0f                	jg     5e74 <safe_rshift_func_uint16_t_u_s+0x2c>
    5e65:	0f b7 55 fc          	movzwl -0x4(%rbp),%edx
    5e69:	8b 45 f8             	mov    -0x8(%rbp),%eax
    5e6c:	89 c1                	mov    %eax,%ecx
    5e6e:	d3 fa                	sar    %cl,%edx
    5e70:	89 d0                	mov    %edx,%eax
    5e72:	eb 04                	jmp    5e78 <safe_rshift_func_uint16_t_u_s+0x30>
    5e74:	0f b7 45 fc          	movzwl -0x4(%rbp),%eax
    5e78:	5d                   	pop    %rbp
    5e79:	c3                   	retq   

0000000000005e7a <safe_rshift_func_uint16_t_u_u>:
    5e7a:	f3 0f 1e fa          	endbr64 
    5e7e:	55                   	push   %rbp
    5e7f:	48 89 e5             	mov    %rsp,%rbp
    5e82:	89 f8                	mov    %edi,%eax
    5e84:	89 75 f8             	mov    %esi,-0x8(%rbp)
    5e87:	66 89 45 fc          	mov    %ax,-0x4(%rbp)
    5e8b:	83 7d f8 1f          	cmpl   $0x1f,-0x8(%rbp)
    5e8f:	77 0f                	ja     5ea0 <safe_rshift_func_uint16_t_u_u+0x26>
    5e91:	0f b7 55 fc          	movzwl -0x4(%rbp),%edx
    5e95:	8b 45 f8             	mov    -0x8(%rbp),%eax
    5e98:	89 c1                	mov    %eax,%ecx
    5e9a:	d3 fa                	sar    %cl,%edx
    5e9c:	89 d0                	mov    %edx,%eax
    5e9e:	eb 04                	jmp    5ea4 <safe_rshift_func_uint16_t_u_u+0x2a>
    5ea0:	0f b7 45 fc          	movzwl -0x4(%rbp),%eax
    5ea4:	5d                   	pop    %rbp
    5ea5:	c3                   	retq   

0000000000005ea6 <safe_unary_minus_func_uint32_t_u>:
    5ea6:	f3 0f 1e fa          	endbr64 
    5eaa:	55                   	push   %rbp
    5eab:	48 89 e5             	mov    %rsp,%rbp
    5eae:	89 7d fc             	mov    %edi,-0x4(%rbp)
    5eb1:	8b 45 fc             	mov    -0x4(%rbp),%eax
    5eb4:	f7 d8                	neg    %eax
    5eb6:	5d                   	pop    %rbp
    5eb7:	c3                   	retq   

0000000000005eb8 <safe_add_func_uint32_t_u_u>:
    5eb8:	f3 0f 1e fa          	endbr64 
    5ebc:	55                   	push   %rbp
    5ebd:	48 89 e5             	mov    %rsp,%rbp
    5ec0:	89 7d fc             	mov    %edi,-0x4(%rbp)
    5ec3:	89 75 f8             	mov    %esi,-0x8(%rbp)
    5ec6:	8b 55 fc             	mov    -0x4(%rbp),%edx
    5ec9:	8b 45 f8             	mov    -0x8(%rbp),%eax
    5ecc:	01 d0                	add    %edx,%eax
    5ece:	5d                   	pop    %rbp
    5ecf:	c3                   	retq   

0000000000005ed0 <safe_sub_func_uint32_t_u_u>:
    5ed0:	f3 0f 1e fa          	endbr64 
    5ed4:	55                   	push   %rbp
    5ed5:	48 89 e5             	mov    %rsp,%rbp
    5ed8:	89 7d fc             	mov    %edi,-0x4(%rbp)
    5edb:	89 75 f8             	mov    %esi,-0x8(%rbp)
    5ede:	8b 45 fc             	mov    -0x4(%rbp),%eax
    5ee1:	2b 45 f8             	sub    -0x8(%rbp),%eax
    5ee4:	5d                   	pop    %rbp
    5ee5:	c3                   	retq   

0000000000005ee6 <safe_mul_func_uint32_t_u_u>:
    5ee6:	f3 0f 1e fa          	endbr64 
    5eea:	55                   	push   %rbp
    5eeb:	48 89 e5             	mov    %rsp,%rbp
    5eee:	89 7d fc             	mov    %edi,-0x4(%rbp)
    5ef1:	89 75 f8             	mov    %esi,-0x8(%rbp)
    5ef4:	8b 45 fc             	mov    -0x4(%rbp),%eax
    5ef7:	0f af 45 f8          	imul   -0x8(%rbp),%eax
    5efb:	5d                   	pop    %rbp
    5efc:	c3                   	retq   

0000000000005efd <safe_mod_func_uint32_t_u_u>:
    5efd:	f3 0f 1e fa          	endbr64 
    5f01:	55                   	push   %rbp
    5f02:	48 89 e5             	mov    %rsp,%rbp
    5f05:	89 7d fc             	mov    %edi,-0x4(%rbp)
    5f08:	89 75 f8             	mov    %esi,-0x8(%rbp)
    5f0b:	83 7d f8 00          	cmpl   $0x0,-0x8(%rbp)
    5f0f:	74 0f                	je     5f20 <safe_mod_func_uint32_t_u_u+0x23>
    5f11:	8b 45 fc             	mov    -0x4(%rbp),%eax
    5f14:	ba 00 00 00 00       	mov    $0x0,%edx
    5f19:	f7 75 f8             	divl   -0x8(%rbp)
    5f1c:	89 d0                	mov    %edx,%eax
    5f1e:	eb 03                	jmp    5f23 <safe_mod_func_uint32_t_u_u+0x26>
    5f20:	8b 45 fc             	mov    -0x4(%rbp),%eax
    5f23:	5d                   	pop    %rbp
    5f24:	c3                   	retq   

0000000000005f25 <safe_div_func_uint32_t_u_u>:
    5f25:	f3 0f 1e fa          	endbr64 
    5f29:	55                   	push   %rbp
    5f2a:	48 89 e5             	mov    %rsp,%rbp
    5f2d:	89 7d fc             	mov    %edi,-0x4(%rbp)
    5f30:	89 75 f8             	mov    %esi,-0x8(%rbp)
    5f33:	83 7d f8 00          	cmpl   $0x0,-0x8(%rbp)
    5f37:	74 0d                	je     5f46 <safe_div_func_uint32_t_u_u+0x21>
    5f39:	8b 45 fc             	mov    -0x4(%rbp),%eax
    5f3c:	ba 00 00 00 00       	mov    $0x0,%edx
    5f41:	f7 75 f8             	divl   -0x8(%rbp)
    5f44:	eb 03                	jmp    5f49 <safe_div_func_uint32_t_u_u+0x24>
    5f46:	8b 45 fc             	mov    -0x4(%rbp),%eax
    5f49:	5d                   	pop    %rbp
    5f4a:	c3                   	retq   

0000000000005f4b <safe_lshift_func_uint32_t_u_s>:
    5f4b:	f3 0f 1e fa          	endbr64 
    5f4f:	55                   	push   %rbp
    5f50:	48 89 e5             	mov    %rsp,%rbp
    5f53:	89 7d fc             	mov    %edi,-0x4(%rbp)
    5f56:	89 75 f8             	mov    %esi,-0x8(%rbp)
    5f59:	83 7d f8 00          	cmpl   $0x0,-0x8(%rbp)
    5f5d:	78 27                	js     5f86 <safe_lshift_func_uint32_t_u_s+0x3b>
    5f5f:	83 7d f8 1f          	cmpl   $0x1f,-0x8(%rbp)
    5f63:	7f 21                	jg     5f86 <safe_lshift_func_uint32_t_u_s+0x3b>
    5f65:	8b 45 f8             	mov    -0x8(%rbp),%eax
    5f68:	ba ff ff ff ff       	mov    $0xffffffff,%edx
    5f6d:	89 c1                	mov    %eax,%ecx
    5f6f:	d3 ea                	shr    %cl,%edx
    5f71:	89 d0                	mov    %edx,%eax
    5f73:	39 45 fc             	cmp    %eax,-0x4(%rbp)
    5f76:	77 0e                	ja     5f86 <safe_lshift_func_uint32_t_u_s+0x3b>
    5f78:	8b 45 f8             	mov    -0x8(%rbp),%eax
    5f7b:	8b 55 fc             	mov    -0x4(%rbp),%edx
    5f7e:	89 c1                	mov    %eax,%ecx
    5f80:	d3 e2                	shl    %cl,%edx
    5f82:	89 d0                	mov    %edx,%eax
    5f84:	eb 03                	jmp    5f89 <safe_lshift_func_uint32_t_u_s+0x3e>
    5f86:	8b 45 fc             	mov    -0x4(%rbp),%eax
    5f89:	5d                   	pop    %rbp
    5f8a:	c3                   	retq   

0000000000005f8b <safe_lshift_func_uint32_t_u_u>:
    5f8b:	f3 0f 1e fa          	endbr64 
    5f8f:	55                   	push   %rbp
    5f90:	48 89 e5             	mov    %rsp,%rbp
    5f93:	89 7d fc             	mov    %edi,-0x4(%rbp)
    5f96:	89 75 f8             	mov    %esi,-0x8(%rbp)
    5f99:	83 7d f8 1f          	cmpl   $0x1f,-0x8(%rbp)
    5f9d:	77 21                	ja     5fc0 <safe_lshift_func_uint32_t_u_u+0x35>
    5f9f:	8b 45 f8             	mov    -0x8(%rbp),%eax
    5fa2:	ba ff ff ff ff       	mov    $0xffffffff,%edx
    5fa7:	89 c1                	mov    %eax,%ecx
    5fa9:	d3 ea                	shr    %cl,%edx
    5fab:	89 d0                	mov    %edx,%eax
    5fad:	39 45 fc             	cmp    %eax,-0x4(%rbp)
    5fb0:	77 0e                	ja     5fc0 <safe_lshift_func_uint32_t_u_u+0x35>
    5fb2:	8b 45 f8             	mov    -0x8(%rbp),%eax
    5fb5:	8b 55 fc             	mov    -0x4(%rbp),%edx
    5fb8:	89 c1                	mov    %eax,%ecx
    5fba:	d3 e2                	shl    %cl,%edx
    5fbc:	89 d0                	mov    %edx,%eax
    5fbe:	eb 03                	jmp    5fc3 <safe_lshift_func_uint32_t_u_u+0x38>
    5fc0:	8b 45 fc             	mov    -0x4(%rbp),%eax
    5fc3:	5d                   	pop    %rbp
    5fc4:	c3                   	retq   

0000000000005fc5 <safe_rshift_func_uint32_t_u_s>:
    5fc5:	f3 0f 1e fa          	endbr64 
    5fc9:	55                   	push   %rbp
    5fca:	48 89 e5             	mov    %rsp,%rbp
    5fcd:	89 7d fc             	mov    %edi,-0x4(%rbp)
    5fd0:	89 75 f8             	mov    %esi,-0x8(%rbp)
    5fd3:	83 7d f8 00          	cmpl   $0x0,-0x8(%rbp)
    5fd7:	78 14                	js     5fed <safe_rshift_func_uint32_t_u_s+0x28>
    5fd9:	83 7d f8 1f          	cmpl   $0x1f,-0x8(%rbp)
    5fdd:	7f 0e                	jg     5fed <safe_rshift_func_uint32_t_u_s+0x28>
    5fdf:	8b 45 f8             	mov    -0x8(%rbp),%eax
    5fe2:	8b 55 fc             	mov    -0x4(%rbp),%edx
    5fe5:	89 c1                	mov    %eax,%ecx
    5fe7:	d3 ea                	shr    %cl,%edx
    5fe9:	89 d0                	mov    %edx,%eax
    5feb:	eb 03                	jmp    5ff0 <safe_rshift_func_uint32_t_u_s+0x2b>
    5fed:	8b 45 fc             	mov    -0x4(%rbp),%eax
    5ff0:	5d                   	pop    %rbp
    5ff1:	c3                   	retq   

0000000000005ff2 <safe_rshift_func_uint32_t_u_u>:
    5ff2:	f3 0f 1e fa          	endbr64 
    5ff6:	55                   	push   %rbp
    5ff7:	48 89 e5             	mov    %rsp,%rbp
    5ffa:	89 7d fc             	mov    %edi,-0x4(%rbp)
    5ffd:	89 75 f8             	mov    %esi,-0x8(%rbp)
    6000:	83 7d f8 1f          	cmpl   $0x1f,-0x8(%rbp)
    6004:	77 0e                	ja     6014 <safe_rshift_func_uint32_t_u_u+0x22>
    6006:	8b 45 f8             	mov    -0x8(%rbp),%eax
    6009:	8b 55 fc             	mov    -0x4(%rbp),%edx
    600c:	89 c1                	mov    %eax,%ecx
    600e:	d3 ea                	shr    %cl,%edx
    6010:	89 d0                	mov    %edx,%eax
    6012:	eb 03                	jmp    6017 <safe_rshift_func_uint32_t_u_u+0x25>
    6014:	8b 45 fc             	mov    -0x4(%rbp),%eax
    6017:	5d                   	pop    %rbp
    6018:	c3                   	retq   

0000000000006019 <safe_unary_minus_func_uint64_t_u>:
    6019:	f3 0f 1e fa          	endbr64 
    601d:	55                   	push   %rbp
    601e:	48 89 e5             	mov    %rsp,%rbp
    6021:	48 89 7d f8          	mov    %rdi,-0x8(%rbp)
    6025:	48 8b 45 f8          	mov    -0x8(%rbp),%rax
    6029:	48 f7 d8             	neg    %rax
    602c:	5d                   	pop    %rbp
    602d:	c3                   	retq   

000000000000602e <safe_add_func_uint64_t_u_u>:
    602e:	f3 0f 1e fa          	endbr64 
    6032:	55                   	push   %rbp
    6033:	48 89 e5             	mov    %rsp,%rbp
    6036:	48 89 7d f8          	mov    %rdi,-0x8(%rbp)
    603a:	48 89 75 f0          	mov    %rsi,-0x10(%rbp)
    603e:	48 8b 55 f8          	mov    -0x8(%rbp),%rdx
    6042:	48 8b 45 f0          	mov    -0x10(%rbp),%rax
    6046:	48 01 d0             	add    %rdx,%rax
    6049:	5d                   	pop    %rbp
    604a:	c3                   	retq   

000000000000604b <safe_sub_func_uint64_t_u_u>:
    604b:	f3 0f 1e fa          	endbr64 
    604f:	55                   	push   %rbp
    6050:	48 89 e5             	mov    %rsp,%rbp
    6053:	48 89 7d f8          	mov    %rdi,-0x8(%rbp)
    6057:	48 89 75 f0          	mov    %rsi,-0x10(%rbp)
    605b:	48 8b 45 f8          	mov    -0x8(%rbp),%rax
    605f:	48 2b 45 f0          	sub    -0x10(%rbp),%rax
    6063:	5d                   	pop    %rbp
    6064:	c3                   	retq   

0000000000006065 <safe_mul_func_uint64_t_u_u>:
    6065:	f3 0f 1e fa          	endbr64 
    6069:	55                   	push   %rbp
    606a:	48 89 e5             	mov    %rsp,%rbp
    606d:	48 89 7d f8          	mov    %rdi,-0x8(%rbp)
    6071:	48 89 75 f0          	mov    %rsi,-0x10(%rbp)
    6075:	48 8b 45 f8          	mov    -0x8(%rbp),%rax
    6079:	48 0f af 45 f0       	imul   -0x10(%rbp),%rax
    607e:	5d                   	pop    %rbp
    607f:	c3                   	retq   

0000000000006080 <safe_mod_func_uint64_t_u_u>:
    6080:	f3 0f 1e fa          	endbr64 
    6084:	55                   	push   %rbp
    6085:	48 89 e5             	mov    %rsp,%rbp
    6088:	48 89 7d f8          	mov    %rdi,-0x8(%rbp)
    608c:	48 89 75 f0          	mov    %rsi,-0x10(%rbp)
    6090:	48 83 7d f0 00       	cmpq   $0x0,-0x10(%rbp)
    6095:	74 12                	je     60a9 <safe_mod_func_uint64_t_u_u+0x29>
    6097:	48 8b 45 f8          	mov    -0x8(%rbp),%rax
    609b:	ba 00 00 00 00       	mov    $0x0,%edx
    60a0:	48 f7 75 f0          	divq   -0x10(%rbp)
    60a4:	48 89 d0             	mov    %rdx,%rax
    60a7:	eb 04                	jmp    60ad <safe_mod_func_uint64_t_u_u+0x2d>
    60a9:	48 8b 45 f8          	mov    -0x8(%rbp),%rax
    60ad:	5d                   	pop    %rbp
    60ae:	c3                   	retq   

00000000000060af <safe_div_func_uint64_t_u_u>:
    60af:	f3 0f 1e fa          	endbr64 
    60b3:	55                   	push   %rbp
    60b4:	48 89 e5             	mov    %rsp,%rbp
    60b7:	48 89 7d f8          	mov    %rdi,-0x8(%rbp)
    60bb:	48 89 75 f0          	mov    %rsi,-0x10(%rbp)
    60bf:	48 83 7d f0 00       	cmpq   $0x0,-0x10(%rbp)
    60c4:	74 0f                	je     60d5 <safe_div_func_uint64_t_u_u+0x26>
    60c6:	48 8b 45 f8          	mov    -0x8(%rbp),%rax
    60ca:	ba 00 00 00 00       	mov    $0x0,%edx
    60cf:	48 f7 75 f0          	divq   -0x10(%rbp)
    60d3:	eb 04                	jmp    60d9 <safe_div_func_uint64_t_u_u+0x2a>
    60d5:	48 8b 45 f8          	mov    -0x8(%rbp),%rax
    60d9:	5d                   	pop    %rbp
    60da:	c3                   	retq   

00000000000060db <safe_lshift_func_uint64_t_u_s>:
    60db:	f3 0f 1e fa          	endbr64 
    60df:	55                   	push   %rbp
    60e0:	48 89 e5             	mov    %rsp,%rbp
    60e3:	48 89 7d f8          	mov    %rdi,-0x8(%rbp)
    60e7:	89 75 f4             	mov    %esi,-0xc(%rbp)
    60ea:	83 7d f4 00          	cmpl   $0x0,-0xc(%rbp)
    60ee:	78 2f                	js     611f <safe_lshift_func_uint64_t_u_s+0x44>
    60f0:	83 7d f4 1f          	cmpl   $0x1f,-0xc(%rbp)
    60f4:	7f 29                	jg     611f <safe_lshift_func_uint64_t_u_s+0x44>
    60f6:	8b 45 f4             	mov    -0xc(%rbp),%eax
    60f9:	48 c7 c2 ff ff ff ff 	mov    $0xffffffffffffffff,%rdx
    6100:	89 c1                	mov    %eax,%ecx
    6102:	48 d3 ea             	shr    %cl,%rdx
    6105:	48 89 d0             	mov    %rdx,%rax
    6108:	48 39 45 f8          	cmp    %rax,-0x8(%rbp)
    610c:	77 11                	ja     611f <safe_lshift_func_uint64_t_u_s+0x44>
    610e:	8b 45 f4             	mov    -0xc(%rbp),%eax
    6111:	48 8b 55 f8          	mov    -0x8(%rbp),%rdx
    6115:	89 c1                	mov    %eax,%ecx
    6117:	48 d3 e2             	shl    %cl,%rdx
    611a:	48 89 d0             	mov    %rdx,%rax
    611d:	eb 04                	jmp    6123 <safe_lshift_func_uint64_t_u_s+0x48>
    611f:	48 8b 45 f8          	mov    -0x8(%rbp),%rax
    6123:	5d                   	pop    %rbp
    6124:	c3                   	retq   

0000000000006125 <safe_lshift_func_uint64_t_u_u>:
    6125:	f3 0f 1e fa          	endbr64 
    6129:	55                   	push   %rbp
    612a:	48 89 e5             	mov    %rsp,%rbp
    612d:	48 89 7d f8          	mov    %rdi,-0x8(%rbp)
    6131:	89 75 f4             	mov    %esi,-0xc(%rbp)
    6134:	83 7d f4 1f          	cmpl   $0x1f,-0xc(%rbp)
    6138:	77 29                	ja     6163 <safe_lshift_func_uint64_t_u_u+0x3e>
    613a:	8b 45 f4             	mov    -0xc(%rbp),%eax
    613d:	48 c7 c2 ff ff ff ff 	mov    $0xffffffffffffffff,%rdx
    6144:	89 c1                	mov    %eax,%ecx
    6146:	48 d3 ea             	shr    %cl,%rdx
    6149:	48 89 d0             	mov    %rdx,%rax
    614c:	48 39 45 f8          	cmp    %rax,-0x8(%rbp)
    6150:	77 11                	ja     6163 <safe_lshift_func_uint64_t_u_u+0x3e>
    6152:	8b 45 f4             	mov    -0xc(%rbp),%eax
    6155:	48 8b 55 f8          	mov    -0x8(%rbp),%rdx
    6159:	89 c1                	mov    %eax,%ecx
    615b:	48 d3 e2             	shl    %cl,%rdx
    615e:	48 89 d0             	mov    %rdx,%rax
    6161:	eb 04                	jmp    6167 <safe_lshift_func_uint64_t_u_u+0x42>
    6163:	48 8b 45 f8          	mov    -0x8(%rbp),%rax
    6167:	5d                   	pop    %rbp
    6168:	c3                   	retq   

0000000000006169 <safe_rshift_func_uint64_t_u_s>:
    6169:	f3 0f 1e fa          	endbr64 
    616d:	55                   	push   %rbp
    616e:	48 89 e5             	mov    %rsp,%rbp
    6171:	48 89 7d f8          	mov    %rdi,-0x8(%rbp)
    6175:	89 75 f4             	mov    %esi,-0xc(%rbp)
    6178:	83 7d f4 00          	cmpl   $0x0,-0xc(%rbp)
    617c:	78 17                	js     6195 <safe_rshift_func_uint64_t_u_s+0x2c>
    617e:	83 7d f4 1f          	cmpl   $0x1f,-0xc(%rbp)
    6182:	7f 11                	jg     6195 <safe_rshift_func_uint64_t_u_s+0x2c>
    6184:	8b 45 f4             	mov    -0xc(%rbp),%eax
    6187:	48 8b 55 f8          	mov    -0x8(%rbp),%rdx
    618b:	89 c1                	mov    %eax,%ecx
    618d:	48 d3 ea             	shr    %cl,%rdx
    6190:	48 89 d0             	mov    %rdx,%rax
    6193:	eb 04                	jmp    6199 <safe_rshift_func_uint64_t_u_s+0x30>
    6195:	48 8b 45 f8          	mov    -0x8(%rbp),%rax
    6199:	5d                   	pop    %rbp
    619a:	c3                   	retq   

000000000000619b <safe_rshift_func_uint64_t_u_u>:
    619b:	f3 0f 1e fa          	endbr64 
    619f:	55                   	push   %rbp
    61a0:	48 89 e5             	mov    %rsp,%rbp
    61a3:	48 89 7d f8          	mov    %rdi,-0x8(%rbp)
    61a7:	89 75 f4             	mov    %esi,-0xc(%rbp)
    61aa:	83 7d f4 1f          	cmpl   $0x1f,-0xc(%rbp)
    61ae:	77 11                	ja     61c1 <safe_rshift_func_uint64_t_u_u+0x26>
    61b0:	8b 45 f4             	mov    -0xc(%rbp),%eax
    61b3:	48 8b 55 f8          	mov    -0x8(%rbp),%rdx
    61b7:	89 c1                	mov    %eax,%ecx
    61b9:	48 d3 ea             	shr    %cl,%rdx
    61bc:	48 89 d0             	mov    %rdx,%rax
    61bf:	eb 04                	jmp    61c5 <safe_rshift_func_uint64_t_u_u+0x2a>
    61c1:	48 8b 45 f8          	mov    -0x8(%rbp),%rax
    61c5:	5d                   	pop    %rbp
    61c6:	c3                   	retq   

00000000000061c7 <safe_add_func_float_f_f>:
    61c7:	f3 0f 1e fa          	endbr64 
    61cb:	55                   	push   %rbp
    61cc:	48 89 e5             	mov    %rsp,%rbp
    61cf:	f3 0f 11 45 fc       	movss  %xmm0,-0x4(%rbp)
    61d4:	f3 0f 11 4d f8       	movss  %xmm1,-0x8(%rbp)
    61d9:	f3 0f 10 4d fc       	movss  -0x4(%rbp),%xmm1
    61de:	f3 0f 10 05 fa 02 01 	movss  0x102fa(%rip),%xmm0        # 164e0 <l_171.5294+0x400>
    61e5:	00 
    61e6:	f3 0f 59 c8          	mulss  %xmm0,%xmm1
    61ea:	f3 0f 10 55 f8       	movss  -0x8(%rbp),%xmm2
    61ef:	f3 0f 10 05 e9 02 01 	movss  0x102e9(%rip),%xmm0        # 164e0 <l_171.5294+0x400>
    61f6:	00 
    61f7:	f3 0f 59 c2          	mulss  %xmm2,%xmm0
    61fb:	f3 0f 58 c1          	addss  %xmm1,%xmm0
    61ff:	f3 0f 10 0d e9 02 01 	movss  0x102e9(%rip),%xmm1        # 164f0 <l_171.5294+0x410>
    6206:	00 
    6207:	0f 54 c1             	andps  %xmm1,%xmm0
    620a:	0f 2f 05 ef 02 01 00 	comiss 0x102ef(%rip),%xmm0        # 16500 <l_171.5294+0x420>
    6211:	76 07                	jbe    621a <safe_add_func_float_f_f+0x53>
    6213:	f3 0f 10 45 fc       	movss  -0x4(%rbp),%xmm0
    6218:	eb 0a                	jmp    6224 <safe_add_func_float_f_f+0x5d>
    621a:	f3 0f 10 45 fc       	movss  -0x4(%rbp),%xmm0
    621f:	f3 0f 58 45 f8       	addss  -0x8(%rbp),%xmm0
    6224:	5d                   	pop    %rbp
    6225:	c3                   	retq   

0000000000006226 <safe_sub_func_float_f_f>:
    6226:	f3 0f 1e fa          	endbr64 
    622a:	55                   	push   %rbp
    622b:	48 89 e5             	mov    %rsp,%rbp
    622e:	f3 0f 11 45 fc       	movss  %xmm0,-0x4(%rbp)
    6233:	f3 0f 11 4d f8       	movss  %xmm1,-0x8(%rbp)
    6238:	f3 0f 10 4d fc       	movss  -0x4(%rbp),%xmm1
    623d:	f3 0f 10 05 9b 02 01 	movss  0x1029b(%rip),%xmm0        # 164e0 <l_171.5294+0x400>
    6244:	00 
    6245:	f3 0f 59 c1          	mulss  %xmm1,%xmm0
    6249:	f3 0f 10 55 f8       	movss  -0x8(%rbp),%xmm2
    624e:	f3 0f 10 0d 8a 02 01 	movss  0x1028a(%rip),%xmm1        # 164e0 <l_171.5294+0x400>
    6255:	00 
    6256:	f3 0f 59 ca          	mulss  %xmm2,%xmm1
    625a:	f3 0f 5c c1          	subss  %xmm1,%xmm0
    625e:	f3 0f 10 0d 8a 02 01 	movss  0x1028a(%rip),%xmm1        # 164f0 <l_171.5294+0x410>
    6265:	00 
    6266:	0f 54 c1             	andps  %xmm1,%xmm0
    6269:	0f 2f 05 90 02 01 00 	comiss 0x10290(%rip),%xmm0        # 16500 <l_171.5294+0x420>
    6270:	76 07                	jbe    6279 <safe_sub_func_float_f_f+0x53>
    6272:	f3 0f 10 45 fc       	movss  -0x4(%rbp),%xmm0
    6277:	eb 0a                	jmp    6283 <safe_sub_func_float_f_f+0x5d>
    6279:	f3 0f 10 45 fc       	movss  -0x4(%rbp),%xmm0
    627e:	f3 0f 5c 45 f8       	subss  -0x8(%rbp),%xmm0
    6283:	5d                   	pop    %rbp
    6284:	c3                   	retq   

0000000000006285 <safe_mul_func_float_f_f>:
    6285:	f3 0f 1e fa          	endbr64 
    6289:	55                   	push   %rbp
    628a:	48 89 e5             	mov    %rsp,%rbp
    628d:	f3 0f 11 45 fc       	movss  %xmm0,-0x4(%rbp)
    6292:	f3 0f 11 4d f8       	movss  %xmm1,-0x8(%rbp)
    6297:	f3 0f 10 4d fc       	movss  -0x4(%rbp),%xmm1
    629c:	f3 0f 10 05 60 02 01 	movss  0x10260(%rip),%xmm0        # 16504 <l_171.5294+0x424>
    62a3:	00 
    62a4:	f3 0f 59 c8          	mulss  %xmm0,%xmm1
    62a8:	f3 0f 10 55 f8       	movss  -0x8(%rbp),%xmm2
    62ad:	f3 0f 10 05 53 02 01 	movss  0x10253(%rip),%xmm0        # 16508 <l_171.5294+0x428>
    62b4:	00 
    62b5:	f3 0f 59 c2          	mulss  %xmm2,%xmm0
    62b9:	f3 0f 59 c1          	mulss  %xmm1,%xmm0
    62bd:	f3 0f 10 0d 2b 02 01 	movss  0x1022b(%rip),%xmm1        # 164f0 <l_171.5294+0x410>
    62c4:	00 
    62c5:	0f 54 c1             	andps  %xmm1,%xmm0
    62c8:	0f 2f 05 3d 02 01 00 	comiss 0x1023d(%rip),%xmm0        # 1650c <l_171.5294+0x42c>
    62cf:	76 07                	jbe    62d8 <safe_mul_func_float_f_f+0x53>
    62d1:	f3 0f 10 45 fc       	movss  -0x4(%rbp),%xmm0
    62d6:	eb 0a                	jmp    62e2 <safe_mul_func_float_f_f+0x5d>
    62d8:	f3 0f 10 45 fc       	movss  -0x4(%rbp),%xmm0
    62dd:	f3 0f 59 45 f8       	mulss  -0x8(%rbp),%xmm0
    62e2:	5d                   	pop    %rbp
    62e3:	c3                   	retq   

00000000000062e4 <safe_div_func_float_f_f>:
    62e4:	f3 0f 1e fa          	endbr64 
    62e8:	55                   	push   %rbp
    62e9:	48 89 e5             	mov    %rsp,%rbp
    62ec:	f3 0f 11 45 fc       	movss  %xmm0,-0x4(%rbp)
    62f1:	f3 0f 11 4d f8       	movss  %xmm1,-0x8(%rbp)
    62f6:	f3 0f 10 45 f8       	movss  -0x8(%rbp),%xmm0
    62fb:	f3 0f 10 0d ed 01 01 	movss  0x101ed(%rip),%xmm1        # 164f0 <l_171.5294+0x410>
    6302:	00 
    6303:	0f 54 c8             	andps  %xmm0,%xmm1
    6306:	f3 0f 10 05 02 02 01 	movss  0x10202(%rip),%xmm0        # 16510 <l_171.5294+0x430>
    630d:	00 
    630e:	0f 2f c1             	comiss %xmm1,%xmm0
    6311:	0f 97 c0             	seta   %al
    6314:	83 f0 01             	xor    $0x1,%eax
    6317:	84 c0                	test   %al,%al
    6319:	75 56                	jne    6371 <safe_div_func_float_f_f+0x8d>
    631b:	66 0f ef c0          	pxor   %xmm0,%xmm0
    631f:	0f 2e 45 f8          	ucomiss -0x8(%rbp),%xmm0
    6323:	7a 0a                	jp     632f <safe_div_func_float_f_f+0x4b>
    6325:	66 0f ef c0          	pxor   %xmm0,%xmm0
    6329:	0f 2e 45 f8          	ucomiss -0x8(%rbp),%xmm0
    632d:	74 4e                	je     637d <safe_div_func_float_f_f+0x99>
    632f:	f3 0f 10 4d fc       	movss  -0x4(%rbp),%xmm1
    6334:	f3 0f 10 05 d8 01 01 	movss  0x101d8(%rip),%xmm0        # 16514 <l_171.5294+0x434>
    633b:	00 
    633c:	f3 0f 59 c1          	mulss  %xmm1,%xmm0
    6340:	f3 0f 10 55 f8       	movss  -0x8(%rbp),%xmm2
    6345:	f3 0f 10 0d cb 01 01 	movss  0x101cb(%rip),%xmm1        # 16518 <l_171.5294+0x438>
    634c:	00 
    634d:	f3 0f 59 ca          	mulss  %xmm2,%xmm1
    6351:	f3 0f 5e c1          	divss  %xmm1,%xmm0
    6355:	f3 0f 10 0d 93 01 01 	movss  0x10193(%rip),%xmm1        # 164f0 <l_171.5294+0x410>
    635c:	00 
    635d:	0f 54 c1             	andps  %xmm1,%xmm0
    6360:	0f 2f 05 b5 01 01 00 	comiss 0x101b5(%rip),%xmm0        # 1651c <l_171.5294+0x43c>
    6367:	0f 97 c0             	seta   %al
    636a:	83 f0 01             	xor    $0x1,%eax
    636d:	84 c0                	test   %al,%al
    636f:	74 0c                	je     637d <safe_div_func_float_f_f+0x99>
    6371:	f3 0f 10 45 fc       	movss  -0x4(%rbp),%xmm0
    6376:	f3 0f 5e 45 f8       	divss  -0x8(%rbp),%xmm0
    637b:	eb 05                	jmp    6382 <safe_div_func_float_f_f+0x9e>
    637d:	f3 0f 10 45 fc       	movss  -0x4(%rbp),%xmm0
    6382:	5d                   	pop    %rbp
    6383:	c3                   	retq   

0000000000006384 <safe_add_func_double_f_f>:
    6384:	f3 0f 1e fa          	endbr64 
    6388:	55                   	push   %rbp
    6389:	48 89 e5             	mov    %rsp,%rbp
    638c:	f2 0f 11 45 f8       	movsd  %xmm0,-0x8(%rbp)
    6391:	f2 0f 11 4d f0       	movsd  %xmm1,-0x10(%rbp)
    6396:	f2 0f 10 4d f8       	movsd  -0x8(%rbp),%xmm1
    639b:	f2 0f 10 05 7d 01 01 	movsd  0x1017d(%rip),%xmm0        # 16520 <l_171.5294+0x440>
    63a2:	00 
    63a3:	f2 0f 59 c8          	mulsd  %xmm0,%xmm1
    63a7:	f2 0f 10 55 f0       	movsd  -0x10(%rbp),%xmm2
    63ac:	f2 0f 10 05 6c 01 01 	movsd  0x1016c(%rip),%xmm0        # 16520 <l_171.5294+0x440>
    63b3:	00 
    63b4:	f2 0f 59 c2          	mulsd  %xmm2,%xmm0
    63b8:	f2 0f 58 c1          	addsd  %xmm1,%xmm0
    63bc:	f3 0f 7e 0d 6c 01 01 	movq   0x1016c(%rip),%xmm1        # 16530 <l_171.5294+0x450>
    63c3:	00 
    63c4:	66 0f 54 c1          	andpd  %xmm1,%xmm0
    63c8:	66 0f 2f 05 70 01 01 	comisd 0x10170(%rip),%xmm0        # 16540 <l_171.5294+0x460>
    63cf:	00 
    63d0:	76 07                	jbe    63d9 <safe_add_func_double_f_f+0x55>
    63d2:	f2 0f 10 45 f8       	movsd  -0x8(%rbp),%xmm0
    63d7:	eb 0a                	jmp    63e3 <safe_add_func_double_f_f+0x5f>
    63d9:	f2 0f 10 45 f8       	movsd  -0x8(%rbp),%xmm0
    63de:	f2 0f 58 45 f0       	addsd  -0x10(%rbp),%xmm0
    63e3:	5d                   	pop    %rbp
    63e4:	c3                   	retq   

00000000000063e5 <safe_sub_func_double_f_f>:
    63e5:	f3 0f 1e fa          	endbr64 
    63e9:	55                   	push   %rbp
    63ea:	48 89 e5             	mov    %rsp,%rbp
    63ed:	f2 0f 11 45 f8       	movsd  %xmm0,-0x8(%rbp)
    63f2:	f2 0f 11 4d f0       	movsd  %xmm1,-0x10(%rbp)
    63f7:	f2 0f 10 4d f8       	movsd  -0x8(%rbp),%xmm1
    63fc:	f2 0f 10 05 1c 01 01 	movsd  0x1011c(%rip),%xmm0        # 16520 <l_171.5294+0x440>
    6403:	00 
    6404:	f2 0f 59 c1          	mulsd  %xmm1,%xmm0
    6408:	f2 0f 10 55 f0       	movsd  -0x10(%rbp),%xmm2
    640d:	f2 0f 10 0d 0b 01 01 	movsd  0x1010b(%rip),%xmm1        # 16520 <l_171.5294+0x440>
    6414:	00 
    6415:	f2 0f 59 ca          	mulsd  %xmm2,%xmm1
    6419:	f2 0f 5c c1          	subsd  %xmm1,%xmm0
    641d:	f3 0f 7e 0d 0b 01 01 	movq   0x1010b(%rip),%xmm1        # 16530 <l_171.5294+0x450>
    6424:	00 
    6425:	66 0f 54 c1          	andpd  %xmm1,%xmm0
    6429:	66 0f 2f 05 0f 01 01 	comisd 0x1010f(%rip),%xmm0        # 16540 <l_171.5294+0x460>
    6430:	00 
    6431:	76 07                	jbe    643a <safe_sub_func_double_f_f+0x55>
    6433:	f2 0f 10 45 f8       	movsd  -0x8(%rbp),%xmm0
    6438:	eb 0a                	jmp    6444 <safe_sub_func_double_f_f+0x5f>
    643a:	f2 0f 10 45 f8       	movsd  -0x8(%rbp),%xmm0
    643f:	f2 0f 5c 45 f0       	subsd  -0x10(%rbp),%xmm0
    6444:	5d                   	pop    %rbp
    6445:	c3                   	retq   

0000000000006446 <safe_mul_func_double_f_f>:
    6446:	f3 0f 1e fa          	endbr64 
    644a:	55                   	push   %rbp
    644b:	48 89 e5             	mov    %rsp,%rbp
    644e:	f2 0f 11 45 f8       	movsd  %xmm0,-0x8(%rbp)
    6453:	f2 0f 11 4d f0       	movsd  %xmm1,-0x10(%rbp)
    6458:	f2 0f 10 4d f8       	movsd  -0x8(%rbp),%xmm1
    645d:	f2 0f 10 05 e3 00 01 	movsd  0x100e3(%rip),%xmm0        # 16548 <l_171.5294+0x468>
    6464:	00 
    6465:	f2 0f 59 c8          	mulsd  %xmm0,%xmm1
    6469:	f2 0f 10 55 f0       	movsd  -0x10(%rbp),%xmm2
    646e:	f2 0f 10 05 da 00 01 	movsd  0x100da(%rip),%xmm0        # 16550 <l_171.5294+0x470>
    6475:	00 
    6476:	f2 0f 59 c2          	mulsd  %xmm2,%xmm0
    647a:	f2 0f 59 c1          	mulsd  %xmm1,%xmm0
    647e:	f3 0f 7e 0d aa 00 01 	movq   0x100aa(%rip),%xmm1        # 16530 <l_171.5294+0x450>
    6485:	00 
    6486:	66 0f 54 c1          	andpd  %xmm1,%xmm0
    648a:	66 0f 2f 05 c6 00 01 	comisd 0x100c6(%rip),%xmm0        # 16558 <l_171.5294+0x478>
    6491:	00 
    6492:	76 07                	jbe    649b <safe_mul_func_double_f_f+0x55>
    6494:	f2 0f 10 45 f8       	movsd  -0x8(%rbp),%xmm0
    6499:	eb 0a                	jmp    64a5 <safe_mul_func_double_f_f+0x5f>
    649b:	f2 0f 10 45 f8       	movsd  -0x8(%rbp),%xmm0
    64a0:	f2 0f 59 45 f0       	mulsd  -0x10(%rbp),%xmm0
    64a5:	5d                   	pop    %rbp
    64a6:	c3                   	retq   

00000000000064a7 <safe_div_func_double_f_f>:
    64a7:	f3 0f 1e fa          	endbr64 
    64ab:	55                   	push   %rbp
    64ac:	48 89 e5             	mov    %rsp,%rbp
    64af:	f2 0f 11 45 f8       	movsd  %xmm0,-0x8(%rbp)
    64b4:	f2 0f 11 4d f0       	movsd  %xmm1,-0x10(%rbp)
    64b9:	f2 0f 10 45 f0       	movsd  -0x10(%rbp),%xmm0
    64be:	f3 0f 7e 0d 6a 00 01 	movq   0x1006a(%rip),%xmm1        # 16530 <l_171.5294+0x450>
    64c5:	00 
    64c6:	66 0f 54 c8          	andpd  %xmm0,%xmm1
    64ca:	f2 0f 10 05 8e 00 01 	movsd  0x1008e(%rip),%xmm0        # 16560 <l_171.5294+0x480>
    64d1:	00 
    64d2:	66 0f 2f c1          	comisd %xmm1,%xmm0
    64d6:	0f 97 c0             	seta   %al
    64d9:	83 f0 01             	xor    $0x1,%eax
    64dc:	84 c0                	test   %al,%al
    64de:	75 5a                	jne    653a <safe_div_func_double_f_f+0x93>
    64e0:	66 0f ef c0          	pxor   %xmm0,%xmm0
    64e4:	66 0f 2e 45 f0       	ucomisd -0x10(%rbp),%xmm0
    64e9:	7a 0b                	jp     64f6 <safe_div_func_double_f_f+0x4f>
    64eb:	66 0f ef c0          	pxor   %xmm0,%xmm0
    64ef:	66 0f 2e 45 f0       	ucomisd -0x10(%rbp),%xmm0
    64f4:	74 50                	je     6546 <safe_div_func_double_f_f+0x9f>
    64f6:	f2 0f 10 4d f8       	movsd  -0x8(%rbp),%xmm1
    64fb:	f2 0f 10 05 65 00 01 	movsd  0x10065(%rip),%xmm0        # 16568 <l_171.5294+0x488>
    6502:	00 
    6503:	f2 0f 59 c1          	mulsd  %xmm1,%xmm0
    6507:	f2 0f 10 55 f0       	movsd  -0x10(%rbp),%xmm2
    650c:	f2 0f 10 0d 5c 00 01 	movsd  0x1005c(%rip),%xmm1        # 16570 <l_171.5294+0x490>
    6513:	00 
    6514:	f2 0f 59 ca          	mulsd  %xmm2,%xmm1
    6518:	f2 0f 5e c1          	divsd  %xmm1,%xmm0
    651c:	f3 0f 7e 0d 0c 00 01 	movq   0x1000c(%rip),%xmm1        # 16530 <l_171.5294+0x450>
    6523:	00 
    6524:	66 0f 54 c1          	andpd  %xmm1,%xmm0
    6528:	66 0f 2f 05 48 00 01 	comisd 0x10048(%rip),%xmm0        # 16578 <l_171.5294+0x498>
    652f:	00 
    6530:	0f 97 c0             	seta   %al
    6533:	83 f0 01             	xor    $0x1,%eax
    6536:	84 c0                	test   %al,%al
    6538:	74 0c                	je     6546 <safe_div_func_double_f_f+0x9f>
    653a:	f2 0f 10 45 f8       	movsd  -0x8(%rbp),%xmm0
    653f:	f2 0f 5e 45 f0       	divsd  -0x10(%rbp),%xmm0
    6544:	eb 05                	jmp    654b <safe_div_func_double_f_f+0xa4>
    6546:	f2 0f 10 45 f8       	movsd  -0x8(%rbp),%xmm0
    654b:	5d                   	pop    %rbp
    654c:	c3                   	retq   

000000000000654d <safe_convert_func_float_to_int32_t>:
    654d:	f3 0f 1e fa          	endbr64 
    6551:	55                   	push   %rbp
    6552:	48 89 e5             	mov    %rsp,%rbp
    6555:	f3 0f 11 45 fc       	movss  %xmm0,-0x4(%rbp)
    655a:	f3 0f 10 05 1e 00 01 	movss  0x1001e(%rip),%xmm0        # 16580 <l_171.5294+0x4a0>
    6561:	00 
    6562:	0f 2f 45 fc          	comiss -0x4(%rbp),%xmm0
    6566:	0f 93 c0             	setae  %al
    6569:	83 f0 01             	xor    $0x1,%eax
    656c:	84 c0                	test   %al,%al
    656e:	74 21                	je     6591 <safe_convert_func_float_to_int32_t+0x44>
    6570:	f3 0f 10 45 fc       	movss  -0x4(%rbp),%xmm0
    6575:	0f 2f 05 08 00 01 00 	comiss 0x10008(%rip),%xmm0        # 16584 <l_171.5294+0x4a4>
    657c:	0f 93 c0             	setae  %al
    657f:	83 f0 01             	xor    $0x1,%eax
    6582:	84 c0                	test   %al,%al
    6584:	74 0b                	je     6591 <safe_convert_func_float_to_int32_t+0x44>
    6586:	f3 0f 10 45 fc       	movss  -0x4(%rbp),%xmm0
    658b:	f3 0f 2c c0          	cvttss2si %xmm0,%eax
    658f:	eb 05                	jmp    6596 <safe_convert_func_float_to_int32_t+0x49>
    6591:	b8 ff ff ff 7f       	mov    $0x7fffffff,%eax
    6596:	5d                   	pop    %rbp
    6597:	c3                   	retq   

0000000000006598 <crc32_gentab>:
    6598:	f3 0f 1e fa          	endbr64 
    659c:	55                   	push   %rbp
    659d:	48 89 e5             	mov    %rsp,%rbp
    65a0:	c7 45 fc 20 83 b8 ed 	movl   $0xedb88320,-0x4(%rbp)
    65a7:	c7 45 f4 00 00 00 00 	movl   $0x0,-0xc(%rbp)
    65ae:	eb 51                	jmp    6601 <crc32_gentab+0x69>
    65b0:	8b 45 f4             	mov    -0xc(%rbp),%eax
    65b3:	89 45 f0             	mov    %eax,-0x10(%rbp)
    65b6:	c7 45 f8 08 00 00 00 	movl   $0x8,-0x8(%rbp)
    65bd:	eb 1e                	jmp    65dd <crc32_gentab+0x45>
    65bf:	8b 45 f0             	mov    -0x10(%rbp),%eax
    65c2:	83 e0 01             	and    $0x1,%eax
    65c5:	85 c0                	test   %eax,%eax
    65c7:	74 0d                	je     65d6 <crc32_gentab+0x3e>
    65c9:	8b 45 f0             	mov    -0x10(%rbp),%eax
    65cc:	d1 e8                	shr    %eax
    65ce:	33 45 fc             	xor    -0x4(%rbp),%eax
    65d1:	89 45 f0             	mov    %eax,-0x10(%rbp)
    65d4:	eb 03                	jmp    65d9 <crc32_gentab+0x41>
    65d6:	d1 6d f0             	shrl   -0x10(%rbp)
    65d9:	83 6d f8 01          	subl   $0x1,-0x8(%rbp)
    65dd:	83 7d f8 00          	cmpl   $0x0,-0x8(%rbp)
    65e1:	7f dc                	jg     65bf <crc32_gentab+0x27>
    65e3:	8b 45 f4             	mov    -0xc(%rbp),%eax
    65e6:	48 98                	cltq   
    65e8:	48 8d 0c 85 00 00 00 	lea    0x0(,%rax,4),%rcx
    65ef:	00 
    65f0:	48 8d 15 49 56 01 00 	lea    0x15649(%rip),%rdx        # 1bc40 <crc32_tab>
    65f7:	8b 45 f0             	mov    -0x10(%rbp),%eax
    65fa:	89 04 11             	mov    %eax,(%rcx,%rdx,1)
    65fd:	83 45 f4 01          	addl   $0x1,-0xc(%rbp)
    6601:	81 7d f4 ff 00 00 00 	cmpl   $0xff,-0xc(%rbp)
    6608:	7e a6                	jle    65b0 <crc32_gentab+0x18>
    660a:	90                   	nop
    660b:	90                   	nop
    660c:	5d                   	pop    %rbp
    660d:	c3                   	retq   

000000000000660e <crc32_byte>:
    660e:	f3 0f 1e fa          	endbr64 
    6612:	55                   	push   %rbp
    6613:	48 89 e5             	mov    %rsp,%rbp
    6616:	89 f8                	mov    %edi,%eax
    6618:	88 45 fc             	mov    %al,-0x4(%rbp)
    661b:	8b 05 ff 29 01 00    	mov    0x129ff(%rip),%eax        # 19020 <crc32_context>
    6621:	c1 e8 08             	shr    $0x8,%eax
    6624:	89 c1                	mov    %eax,%ecx
    6626:	0f b6 55 fc          	movzbl -0x4(%rbp),%edx
    662a:	8b 05 f0 29 01 00    	mov    0x129f0(%rip),%eax        # 19020 <crc32_context>
    6630:	31 d0                	xor    %edx,%eax
    6632:	0f b6 c0             	movzbl %al,%eax
    6635:	89 c0                	mov    %eax,%eax
    6637:	48 8d 14 85 00 00 00 	lea    0x0(,%rax,4),%rdx
    663e:	00 
    663f:	48 8d 05 fa 55 01 00 	lea    0x155fa(%rip),%rax        # 1bc40 <crc32_tab>
    6646:	8b 04 02             	mov    (%rdx,%rax,1),%eax
    6649:	31 c8                	xor    %ecx,%eax
    664b:	89 05 cf 29 01 00    	mov    %eax,0x129cf(%rip)        # 19020 <crc32_context>
    6651:	90                   	nop
    6652:	5d                   	pop    %rbp
    6653:	c3                   	retq   

0000000000006654 <crc32_8bytes>:
    6654:	f3 0f 1e fa          	endbr64 
    6658:	55                   	push   %rbp
    6659:	48 89 e5             	mov    %rsp,%rbp
    665c:	48 83 ec 08          	sub    $0x8,%rsp
    6660:	48 89 7d f8          	mov    %rdi,-0x8(%rbp)
    6664:	48 8b 45 f8          	mov    -0x8(%rbp),%rax
    6668:	0f b6 c0             	movzbl %al,%eax
    666b:	89 c7                	mov    %eax,%edi
    666d:	e8 9c ff ff ff       	callq  660e <crc32_byte>
    6672:	48 8b 45 f8          	mov    -0x8(%rbp),%rax
    6676:	48 c1 e8 08          	shr    $0x8,%rax
    667a:	0f b6 c0             	movzbl %al,%eax
    667d:	89 c7                	mov    %eax,%edi
    667f:	e8 8a ff ff ff       	callq  660e <crc32_byte>
    6684:	48 8b 45 f8          	mov    -0x8(%rbp),%rax
    6688:	48 c1 e8 10          	shr    $0x10,%rax
    668c:	0f b6 c0             	movzbl %al,%eax
    668f:	89 c7                	mov    %eax,%edi
    6691:	e8 78 ff ff ff       	callq  660e <crc32_byte>
    6696:	48 8b 45 f8          	mov    -0x8(%rbp),%rax
    669a:	48 c1 e8 18          	shr    $0x18,%rax
    669e:	0f b6 c0             	movzbl %al,%eax
    66a1:	89 c7                	mov    %eax,%edi
    66a3:	e8 66 ff ff ff       	callq  660e <crc32_byte>
    66a8:	48 8b 45 f8          	mov    -0x8(%rbp),%rax
    66ac:	48 c1 e8 20          	shr    $0x20,%rax
    66b0:	0f b6 c0             	movzbl %al,%eax
    66b3:	89 c7                	mov    %eax,%edi
    66b5:	e8 54 ff ff ff       	callq  660e <crc32_byte>
    66ba:	48 8b 45 f8          	mov    -0x8(%rbp),%rax
    66be:	48 c1 e8 28          	shr    $0x28,%rax
    66c2:	0f b6 c0             	movzbl %al,%eax
    66c5:	89 c7                	mov    %eax,%edi
    66c7:	e8 42 ff ff ff       	callq  660e <crc32_byte>
    66cc:	48 8b 45 f8          	mov    -0x8(%rbp),%rax
    66d0:	48 c1 e8 30          	shr    $0x30,%rax
    66d4:	0f b6 c0             	movzbl %al,%eax
    66d7:	89 c7                	mov    %eax,%edi
    66d9:	e8 30 ff ff ff       	callq  660e <crc32_byte>
    66de:	48 8b 45 f8          	mov    -0x8(%rbp),%rax
    66e2:	48 c1 e8 38          	shr    $0x38,%rax
    66e6:	0f b6 c0             	movzbl %al,%eax
    66e9:	89 c7                	mov    %eax,%edi
    66eb:	e8 1e ff ff ff       	callq  660e <crc32_byte>
    66f0:	90                   	nop
    66f1:	c9                   	leaveq 
    66f2:	c3                   	retq   

00000000000066f3 <transparent_crc>:
    66f3:	f3 0f 1e fa          	endbr64 
    66f7:	55                   	push   %rbp
    66f8:	48 89 e5             	mov    %rsp,%rbp
    66fb:	48 83 ec 20          	sub    $0x20,%rsp
    66ff:	48 89 7d f8          	mov    %rdi,-0x8(%rbp)
    6703:	48 89 75 f0          	mov    %rsi,-0x10(%rbp)
    6707:	89 55 ec             	mov    %edx,-0x14(%rbp)
    670a:	48 8b 45 f8          	mov    -0x8(%rbp),%rax
    670e:	48 89 c7             	mov    %rax,%rdi
    6711:	e8 3e ff ff ff       	callq  6654 <crc32_8bytes>
    6716:	83 7d ec 00          	cmpl   $0x0,-0x14(%rbp)
    671a:	74 22                	je     673e <transparent_crc+0x4b>
    671c:	8b 05 fe 28 01 00    	mov    0x128fe(%rip),%eax        # 19020 <crc32_context>
    6722:	f7 d0                	not    %eax
    6724:	89 c2                	mov    %eax,%edx
    6726:	48 8b 45 f0          	mov    -0x10(%rbp),%rax
    672a:	48 89 c6             	mov    %rax,%rsi
    672d:	48 8d 3d fc d8 00 00 	lea    0xd8fc(%rip),%rdi        # 14030 <_IO_stdin_used+0x30>
    6734:	b8 00 00 00 00       	mov    $0x0,%eax
    6739:	e8 42 e9 ff ff       	callq  5080 <printf@plt>
    673e:	90                   	nop
    673f:	c9                   	leaveq 
    6740:	c3                   	retq   

0000000000006741 <transparent_crc_bytes>:
    6741:	f3 0f 1e fa          	endbr64 
    6745:	55                   	push   %rbp
    6746:	48 89 e5             	mov    %rsp,%rbp
    6749:	48 83 ec 30          	sub    $0x30,%rsp
    674d:	48 89 7d e8          	mov    %rdi,-0x18(%rbp)
    6751:	89 75 e4             	mov    %esi,-0x1c(%rbp)
    6754:	48 89 55 d8          	mov    %rdx,-0x28(%rbp)
    6758:	89 4d e0             	mov    %ecx,-0x20(%rbp)
    675b:	c7 45 fc 00 00 00 00 	movl   $0x0,-0x4(%rbp)
    6762:	eb 1e                	jmp    6782 <transparent_crc_bytes+0x41>
    6764:	8b 45 fc             	mov    -0x4(%rbp),%eax
    6767:	48 63 d0             	movslq %eax,%rdx
    676a:	48 8b 45 e8          	mov    -0x18(%rbp),%rax
    676e:	48 01 d0             	add    %rdx,%rax
    6771:	0f b6 00             	movzbl (%rax),%eax
    6774:	0f b6 c0             	movzbl %al,%eax
    6777:	89 c7                	mov    %eax,%edi
    6779:	e8 90 fe ff ff       	callq  660e <crc32_byte>
    677e:	83 45 fc 01          	addl   $0x1,-0x4(%rbp)
    6782:	8b 45 fc             	mov    -0x4(%rbp),%eax
    6785:	3b 45 e4             	cmp    -0x1c(%rbp),%eax
    6788:	7c da                	jl     6764 <transparent_crc_bytes+0x23>
    678a:	83 7d e0 00          	cmpl   $0x0,-0x20(%rbp)
    678e:	74 22                	je     67b2 <transparent_crc_bytes+0x71>
    6790:	8b 05 8a 28 01 00    	mov    0x1288a(%rip),%eax        # 19020 <crc32_context>
    6796:	f7 d0                	not    %eax
    6798:	89 c2                	mov    %eax,%edx
    679a:	48 8b 45 d8          	mov    -0x28(%rbp),%rax
    679e:	48 89 c6             	mov    %rax,%rsi
    67a1:	48 8d 3d 88 d8 00 00 	lea    0xd888(%rip),%rdi        # 14030 <_IO_stdin_used+0x30>
    67a8:	b8 00 00 00 00       	mov    $0x0,%eax
    67ad:	e8 ce e8 ff ff       	callq  5080 <printf@plt>
    67b2:	90                   	nop
    67b3:	c9                   	leaveq 
    67b4:	c3                   	retq   

00000000000067b5 <func_1>:
    67b5:	f3 0f 1e fa          	endbr64 
    67b9:	55                   	push   %rbp
    67ba:	48 89 e5             	mov    %rsp,%rbp
    67bd:	41 57                	push   %r15
    67bf:	41 56                	push   %r14
    67c1:	41 55                	push   %r13
    67c3:	41 54                	push   %r12
    67c5:	53                   	push   %rbx
    67c6:	48 81 ec 88 00 00 00 	sub    $0x88,%rsp
    67cd:	64 48 8b 04 25 28 00 	mov    %fs:0x28,%rax
    67d4:	00 00 
    67d6:	48 89 45 c8          	mov    %rax,-0x38(%rbp)
    67da:	31 c0                	xor    %eax,%eax
    67dc:	c6 85 7f ff ff ff ec 	movb   $0xec,-0x81(%rbp)
    67e3:	48 c7 45 90 00 00 00 	movq   $0x0,-0x70(%rbp)
    67ea:	00 
    67eb:	48 8d 45 90          	lea    -0x70(%rbp),%rax
    67ef:	48 89 45 a0          	mov    %rax,-0x60(%rbp)
    67f3:	48 8d 05 67 28 01 00 	lea    0x12867(%rip),%rax        # 19061 <g_43+0x1>
    67fa:	48 89 45 a8          	mov    %rax,-0x58(%rbp)
    67fe:	c7 45 84 82 5c 88 ea 	movl   $0xea885c82,-0x7c(%rbp)
    6805:	c7 45 88 09 00 00 00 	movl   $0x9,-0x78(%rbp)
    680c:	48 8d 05 d5 58 01 00 	lea    0x158d5(%rip),%rax        # 1c0e8 <g_1662>
    6813:	48 89 45 98          	mov    %rax,-0x68(%rbp)
    6817:	48 8d 45 98          	lea    -0x68(%rbp),%rax
    681b:	48 89 45 b0          	mov    %rax,-0x50(%rbp)
    681f:	c7 45 8c 55 dc 69 4b 	movl   $0x4b69dc55,-0x74(%rbp)
    6826:	48 8d 45 c0          	lea    -0x40(%rbp),%rax
    682a:	48 89 45 b8          	mov    %rax,-0x48(%rbp)
    682e:	c7 45 80 00 00 00 00 	movl   $0x0,-0x80(%rbp)
    6835:	eb 15                	jmp    684c <func_1+0x97>
    6837:	8b 45 80             	mov    -0x80(%rbp),%eax
    683a:	48 98                	cltq   
    683c:	48 8d 15 9d 42 01 00 	lea    0x1429d(%rip),%rdx        # 1aae0 <g_42>
    6843:	48 89 54 c5 c0       	mov    %rdx,-0x40(%rbp,%rax,8)
    6848:	83 45 80 01          	addl   $0x1,-0x80(%rbp)
    684c:	83 7d 80 00          	cmpl   $0x0,-0x80(%rbp)
    6850:	7e e5                	jle    6837 <func_1+0x82>
    6852:	48 8b 05 e7 46 01 00 	mov    0x146e7(%rip),%rax        # 1af40 <g_810>
    6859:	4c 8b 20             	mov    (%rax),%r12
    685c:	0f b6 9d 7f ff ff ff 	movzbl -0x81(%rbp),%ebx
    6863:	c7 85 6c ff ff ff cd 	movl   $0x74209ecd,-0x94(%rbp)
    686a:	9e 20 74 
    686d:	48 8b 05 cc 46 01 00 	mov    0x146cc(%rip),%rax        # 1af40 <g_810>
    6874:	4c 8b 30             	mov    (%rax),%r14
    6877:	44 0f b6 ad 7f ff ff 	movzbl -0x81(%rbp),%r13d
    687e:	ff 
    687f:	48 8b 05 d2 32 01 00 	mov    0x132d2(%rip),%rax        # 19b58 <g_1319>
    6886:	48 89 85 60 ff ff ff 	mov    %rax,-0xa0(%rbp)
    688d:	44 0f b6 bd 7f ff ff 	movzbl -0x81(%rbp),%r15d
    6894:	ff 
    6895:	48 8b 0d 44 42 01 00 	mov    0x14244(%rip),%rcx        # 1aae0 <g_42>
    689c:	48 89 8d 58 ff ff ff 	mov    %rcx,-0xa8(%rbp)
    68a3:	48 8b 05 36 42 01 00 	mov    0x14236(%rip),%rax        # 1aae0 <g_42>
    68aa:	0f b6 00             	movzbl (%rax),%eax
    68ad:	0f be c0             	movsbl %al,%eax
    68b0:	be 07 00 00 00       	mov    $0x7,%esi
    68b5:	89 c7                	mov    %eax,%edi
    68b7:	e8 32 ea ff ff       	callq  52ee <safe_lshift_func_int8_t_s_u>
    68bc:	48 0f be f8          	movsbq %al,%rdi
    68c0:	48 89 bd 50 ff ff ff 	mov    %rdi,-0xb0(%rbp)
    68c7:	48 8b 05 12 42 01 00 	mov    0x14212(%rip),%rax        # 1aae0 <g_42>
    68ce:	48 8d 35 8b 27 01 00 	lea    0x1278b(%rip),%rsi        # 19060 <g_43>
    68d5:	48 89 c7             	mov    %rax,%rdi
    68d8:	e8 db b8 00 00       	callq  121b8 <func_39>
    68dd:	48 8b 55 a0          	mov    -0x60(%rbp),%rdx
    68e1:	48 89 02             	mov    %rax,(%rdx)
    68e4:	48 8b 45 a0          	mov    -0x60(%rbp),%rax
    68e8:	48 8b 00             	mov    (%rax),%rax
    68eb:	48 8b 55 a8          	mov    -0x58(%rbp),%rdx
    68ef:	49 89 d0             	mov    %rdx,%r8
    68f2:	48 8b 8d 50 ff ff ff 	mov    -0xb0(%rbp),%rcx
    68f9:	48 8d 15 60 27 01 00 	lea    0x12760(%rip),%rdx        # 19060 <g_43>
    6900:	48 8d 35 d9 41 01 00 	lea    0x141d9(%rip),%rsi        # 1aae0 <g_42>
    6907:	48 89 c7             	mov    %rax,%rdi
    690a:	e8 29 a2 00 00       	callq  10b38 <func_33>
    690f:	48 89 c6             	mov    %rax,%rsi
    6912:	8b 05 30 27 01 00    	mov    0x12730(%rip),%eax        # 19048 <g_32+0x8>
    6918:	0f b6 c0             	movzbl %al,%eax
    691b:	48 8b 55 a8          	mov    -0x58(%rbp),%rdx
    691f:	48 8b 8d 58 ff ff ff 	mov    -0xa8(%rbp),%rcx
    6926:	89 c7                	mov    %eax,%edi
    6928:	e8 ed 23 00 00       	callq  8d1a <func_27>
    692d:	0f b7 c0             	movzwl %ax,%eax
    6930:	89 45 84             	mov    %eax,-0x7c(%rbp)
    6933:	8b 45 84             	mov    -0x7c(%rbp),%eax
    6936:	0f b7 c0             	movzwl %ax,%eax
    6939:	be ff ff 00 00       	mov    $0xffff,%esi
    693e:	89 c7                	mov    %eax,%edi
    6940:	e8 49 f4 ff ff       	callq  5d8e <safe_div_func_uint16_t_u_u>
    6945:	0f b7 c0             	movzwl %ax,%eax
    6948:	ba ff ff ff ff       	mov    $0xffffffff,%edx
    694d:	48 31 c2             	xor    %rax,%rdx
    6950:	b8 fc ff ff ff       	mov    $0xfffffffc,%eax
    6955:	48 39 c2             	cmp    %rax,%rdx
    6958:	0f 97 c0             	seta   %al
    695b:	0f b6 c0             	movzbl %al,%eax
    695e:	48 8b 95 60 ff ff ff 	mov    -0xa0(%rbp),%rdx
    6965:	4c 89 fe             	mov    %r15,%rsi
    6968:	89 c7                	mov    %eax,%edi
    696a:	e8 be 1e 00 00       	callq  882d <func_21>
    696f:	8b 05 83 27 01 00    	mov    0x12783(%rip),%eax        # 190f8 <g_275>
    6975:	8b 45 88             	mov    -0x78(%rbp),%eax
    6978:	0f be d0             	movsbl %al,%edx
    697b:	0f b6 85 7f ff ff ff 	movzbl -0x81(%rbp),%eax
    6982:	89 d6                	mov    %edx,%esi
    6984:	89 c7                	mov    %eax,%edi
    6986:	e8 62 14 00 00       	callq  7ded <func_18>
    698b:	48 89 c2             	mov    %rax,%rdx
    698e:	48 8b 45 a8          	mov    -0x58(%rbp),%rax
    6992:	48 89 c6             	mov    %rax,%rsi
    6995:	48 89 d7             	mov    %rdx,%rdi
    6998:	e8 4c 11 00 00       	callq  7ae9 <func_15>
    699d:	0f be c0             	movsbl %al,%eax
    69a0:	48 8b 55 b0          	mov    -0x50(%rbp),%rdx
    69a4:	4c 89 f1             	mov    %r14,%rcx
    69a7:	4c 89 ee             	mov    %r13,%rsi
    69aa:	89 c7                	mov    %eax,%edi
    69ac:	e8 fc 0d 00 00       	callq  77ad <func_9>
    69b1:	89 45 8c             	mov    %eax,-0x74(%rbp)
    69b4:	0f b6 85 7f ff ff ff 	movzbl -0x81(%rbp),%eax
    69bb:	39 45 8c             	cmp    %eax,-0x74(%rbp)
    69be:	0f 95 c0             	setne  %al
    69c1:	0f b6 c0             	movzbl %al,%eax
    69c4:	4c 89 e1             	mov    %r12,%rcx
    69c7:	89 da                	mov    %ebx,%edx
    69c9:	8b b5 6c ff ff ff    	mov    -0x94(%rbp),%esi
    69cf:	89 c7                	mov    %eax,%edi
    69d1:	e8 86 0d 00 00       	callq  775c <func_4>
    69d6:	48 8b 05 5b 45 01 00 	mov    0x1455b(%rip),%rax        # 1af38 <g_811>
    69dd:	48 8b 00             	mov    (%rax),%rax
    69e0:	48 89 c7             	mov    %rax,%rdi
    69e3:	e8 30 00 00 00       	callq  6a18 <func_2>
    69e8:	48 8b 55 b8          	mov    -0x48(%rbp),%rdx
    69ec:	48 89 02             	mov    %rax,(%rdx)
    69ef:	8b 45 8c             	mov    -0x74(%rbp),%eax
    69f2:	48 8b 5d c8          	mov    -0x38(%rbp),%rbx
    69f6:	64 48 33 1c 25 28 00 	xor    %fs:0x28,%rbx
    69fd:	00 00 
    69ff:	74 05                	je     6a06 <func_1+0x251>
    6a01:	e8 6a e6 ff ff       	callq  5070 <__stack_chk_fail@plt>
    6a06:	48 81 c4 88 00 00 00 	add    $0x88,%rsp
    6a0d:	5b                   	pop    %rbx
    6a0e:	41 5c                	pop    %r12
    6a10:	41 5d                	pop    %r13
    6a12:	41 5e                	pop    %r14
    6a14:	41 5f                	pop    %r15
    6a16:	5d                   	pop    %rbp
    6a17:	c3                   	retq   

0000000000006a18 <func_2>:
    6a18:	f3 0f 1e fa          	endbr64 
    6a1c:	55                   	push   %rbp
    6a1d:	48 89 e5             	mov    %rsp,%rbp
    6a20:	41 56                	push   %r14
    6a22:	41 55                	push   %r13
    6a24:	41 54                	push   %r12
    6a26:	53                   	push   %rbx
    6a27:	48 81 ec e0 05 00 00 	sub    $0x5e0,%rsp
    6a2e:	48 89 bd 08 fa ff ff 	mov    %rdi,-0x5f8(%rbp)
    6a35:	64 48 8b 04 25 28 00 	mov    %fs:0x28,%rax
    6a3c:	00 00 
    6a3e:	48 89 45 d8          	mov    %rax,-0x28(%rbp)
    6a42:	31 c0                	xor    %eax,%eax
    6a44:	48 8d 05 2d 26 01 00 	lea    0x1262d(%rip),%rax        # 19078 <g_108>
    6a4b:	48 89 85 50 fa ff ff 	mov    %rax,-0x5b0(%rbp)
    6a52:	48 8d 85 50 fa ff ff 	lea    -0x5b0(%rbp),%rax
    6a59:	48 89 85 58 fa ff ff 	mov    %rax,-0x5a8(%rbp)
    6a60:	48 8d 85 58 fa ff ff 	lea    -0x5a8(%rbp),%rax
    6a67:	48 89 85 60 fa ff ff 	mov    %rax,-0x5a0(%rbp)
    6a6e:	48 8d 85 60 fa ff ff 	lea    -0x5a0(%rbp),%rax
    6a75:	48 89 85 68 fa ff ff 	mov    %rax,-0x598(%rbp)
    6a7c:	48 8d 85 68 fa ff ff 	lea    -0x598(%rbp),%rax
    6a83:	48 89 85 a8 fa ff ff 	mov    %rax,-0x558(%rbp)
    6a8a:	48 c7 85 70 fa ff ff 	movq   $0x0,-0x590(%rbp)
    6a91:	00 00 00 00 
    6a95:	48 c7 85 78 fa ff ff 	movq   $0x0,-0x588(%rbp)
    6a9c:	00 00 00 00 
    6aa0:	48 8d 85 78 fa ff ff 	lea    -0x588(%rbp),%rax
    6aa7:	48 89 85 80 fa ff ff 	mov    %rax,-0x580(%rbp)
    6aae:	48 8d 85 80 fa ff ff 	lea    -0x580(%rbp),%rax
    6ab5:	48 89 85 b0 fb ff ff 	mov    %rax,-0x450(%rbp)
    6abc:	48 8d 85 80 fa ff ff 	lea    -0x580(%rbp),%rax
    6ac3:	48 89 85 b8 fb ff ff 	mov    %rax,-0x448(%rbp)
    6aca:	48 8d 85 80 fa ff ff 	lea    -0x580(%rbp),%rax
    6ad1:	48 89 85 c0 fb ff ff 	mov    %rax,-0x440(%rbp)
    6ad8:	48 8d 85 80 fa ff ff 	lea    -0x580(%rbp),%rax
    6adf:	48 89 85 c8 fb ff ff 	mov    %rax,-0x438(%rbp)
    6ae6:	48 8d 85 80 fa ff ff 	lea    -0x580(%rbp),%rax
    6aed:	48 89 85 d0 fb ff ff 	mov    %rax,-0x430(%rbp)
    6af4:	48 8d 85 80 fa ff ff 	lea    -0x580(%rbp),%rax
    6afb:	48 89 85 d8 fb ff ff 	mov    %rax,-0x428(%rbp)
    6b02:	48 8d 85 80 fa ff ff 	lea    -0x580(%rbp),%rax
    6b09:	48 89 85 e0 fb ff ff 	mov    %rax,-0x420(%rbp)
    6b10:	48 8d 85 80 fa ff ff 	lea    -0x580(%rbp),%rax
    6b17:	48 89 85 e8 fb ff ff 	mov    %rax,-0x418(%rbp)
    6b1e:	48 8d 85 80 fa ff ff 	lea    -0x580(%rbp),%rax
    6b25:	48 89 85 f0 fb ff ff 	mov    %rax,-0x410(%rbp)
    6b2c:	c7 85 28 fa ff ff 03 	movl   $0x3,-0x5d8(%rbp)
    6b33:	00 00 00 
    6b36:	66 c7 85 1a fa ff ff 	movw   $0xffff,-0x5e6(%rbp)
    6b3d:	ff ff 
    6b3f:	c7 85 20 fa ff ff b0 	movl   $0x96ef45b0,-0x5e0(%rbp)
    6b46:	45 ef 96 
    6b49:	66 c7 85 50 fb ff ff 	movw   $0x62bd,-0x4b0(%rbp)
    6b50:	bd 62 
    6b52:	66 c7 85 52 fb ff ff 	movw   $0xffff,-0x4ae(%rbp)
    6b59:	ff ff 
    6b5b:	66 c7 85 54 fb ff ff 	movw   $0x62bd,-0x4ac(%rbp)
    6b62:	bd 62 
    6b64:	66 c7 85 56 fb ff ff 	movw   $0x62bd,-0x4aa(%rbp)
    6b6b:	bd 62 
    6b6d:	66 c7 85 58 fb ff ff 	movw   $0xffff,-0x4a8(%rbp)
    6b74:	ff ff 
    6b76:	66 c7 85 5a fb ff ff 	movw   $0x62bd,-0x4a6(%rbp)
    6b7d:	bd 62 
    6b7f:	66 c7 85 5c fb ff ff 	movw   $0x62bd,-0x4a4(%rbp)
    6b86:	bd 62 
    6b88:	66 c7 85 5e fb ff ff 	movw   $0xffff,-0x4a2(%rbp)
    6b8f:	ff ff 
    6b91:	66 c7 85 60 fb ff ff 	movw   $0x62bd,-0x4a0(%rbp)
    6b98:	bd 62 
    6b9a:	48 8d 05 a7 30 01 00 	lea    0x130a7(%rip),%rax        # 19c48 <g_2148>
    6ba1:	48 89 85 b0 fa ff ff 	mov    %rax,-0x550(%rbp)
    6ba8:	c7 85 3c fa ff ff 01 	movl   $0x1,-0x5c4(%rbp)
    6baf:	00 00 00 
    6bb2:	c7 85 40 fa ff ff ea 	movl   $0x231b38ea,-0x5c0(%rbp)
    6bb9:	38 1b 23 
    6bbc:	c7 85 90 fb ff ff 01 	movl   $0x1,-0x470(%rbp)
    6bc3:	00 00 00 
    6bc6:	c7 85 94 fb ff ff 01 	movl   $0x1,-0x46c(%rbp)
    6bcd:	00 00 00 
    6bd0:	c7 85 98 fb ff ff 01 	movl   $0x1,-0x468(%rbp)
    6bd7:	00 00 00 
    6bda:	c7 85 9c fb ff ff 01 	movl   $0x1,-0x464(%rbp)
    6be1:	00 00 00 
    6be4:	c7 85 a0 fb ff ff 01 	movl   $0x1,-0x460(%rbp)
    6beb:	00 00 00 
    6bee:	c7 85 a4 fb ff ff 01 	movl   $0x1,-0x45c(%rbp)
    6bf5:	00 00 00 
    6bf8:	c7 85 a8 fb ff ff 01 	movl   $0x1,-0x458(%rbp)
    6bff:	00 00 00 
    6c02:	48 b8 08 4c c6 f8 5e 	movabs $0x3891c05ef8c64c08,%rax
    6c09:	c0 91 38 
    6c0c:	48 89 85 b8 fa ff ff 	mov    %rax,-0x548(%rbp)
    6c13:	48 b8 ff 01 ff 01 ff 	movabs $0x1ff01ff01ff01ff,%rax
    6c1a:	01 ff 01 
    6c1d:	48 89 45 cf          	mov    %rax,-0x31(%rbp)
    6c21:	c6 45 d7 ff          	movb   $0xff,-0x29(%rbp)
    6c25:	c7 85 2c fa ff ff 00 	movl   $0x0,-0x5d4(%rbp)
    6c2c:	00 00 00 
    6c2f:	48 c7 85 c0 fa ff ff 	movq   $0x7,-0x540(%rbp)
    6c36:	07 00 00 00 
    6c3a:	48 8d 05 b7 54 01 00 	lea    0x154b7(%rip),%rax        # 1c0f8 <g_1959>
    6c41:	48 89 85 e0 fc ff ff 	mov    %rax,-0x320(%rbp)
    6c48:	48 8d 05 a9 54 01 00 	lea    0x154a9(%rip),%rax        # 1c0f8 <g_1959>
    6c4f:	48 89 85 e8 fc ff ff 	mov    %rax,-0x318(%rbp)
    6c56:	48 8d 05 9b 54 01 00 	lea    0x1549b(%rip),%rax        # 1c0f8 <g_1959>
    6c5d:	48 89 85 f0 fc ff ff 	mov    %rax,-0x310(%rbp)
    6c64:	48 8d 05 8d 54 01 00 	lea    0x1548d(%rip),%rax        # 1c0f8 <g_1959>
    6c6b:	48 89 85 f8 fc ff ff 	mov    %rax,-0x308(%rbp)
    6c72:	48 8d 05 7f 54 01 00 	lea    0x1547f(%rip),%rax        # 1c0f8 <g_1959>
    6c79:	48 89 85 00 fd ff ff 	mov    %rax,-0x300(%rbp)
    6c80:	48 8d 05 71 54 01 00 	lea    0x15471(%rip),%rax        # 1c0f8 <g_1959>
    6c87:	48 89 85 08 fd ff ff 	mov    %rax,-0x2f8(%rbp)
    6c8e:	48 8d 05 63 54 01 00 	lea    0x15463(%rip),%rax        # 1c0f8 <g_1959>
    6c95:	48 89 85 10 fd ff ff 	mov    %rax,-0x2f0(%rbp)
    6c9c:	48 8d 05 55 54 01 00 	lea    0x15455(%rip),%rax        # 1c0f8 <g_1959>
    6ca3:	48 89 85 18 fd ff ff 	mov    %rax,-0x2e8(%rbp)
    6caa:	48 8d 05 47 54 01 00 	lea    0x15447(%rip),%rax        # 1c0f8 <g_1959>
    6cb1:	48 89 85 20 fd ff ff 	mov    %rax,-0x2e0(%rbp)
    6cb8:	48 8d 05 39 54 01 00 	lea    0x15439(%rip),%rax        # 1c0f8 <g_1959>
    6cbf:	48 89 85 28 fd ff ff 	mov    %rax,-0x2d8(%rbp)
    6cc6:	48 8d 05 2b 54 01 00 	lea    0x1542b(%rip),%rax        # 1c0f8 <g_1959>
    6ccd:	48 89 85 30 fd ff ff 	mov    %rax,-0x2d0(%rbp)
    6cd4:	48 8d 05 1d 54 01 00 	lea    0x1541d(%rip),%rax        # 1c0f8 <g_1959>
    6cdb:	48 89 85 38 fd ff ff 	mov    %rax,-0x2c8(%rbp)
    6ce2:	48 8d 05 0f 54 01 00 	lea    0x1540f(%rip),%rax        # 1c0f8 <g_1959>
    6ce9:	48 89 85 40 fd ff ff 	mov    %rax,-0x2c0(%rbp)
    6cf0:	48 8d 05 01 54 01 00 	lea    0x15401(%rip),%rax        # 1c0f8 <g_1959>
    6cf7:	48 89 85 48 fd ff ff 	mov    %rax,-0x2b8(%rbp)
    6cfe:	48 8d 05 f3 53 01 00 	lea    0x153f3(%rip),%rax        # 1c0f8 <g_1959>
    6d05:	48 89 85 50 fd ff ff 	mov    %rax,-0x2b0(%rbp)
    6d0c:	48 8d 05 e5 53 01 00 	lea    0x153e5(%rip),%rax        # 1c0f8 <g_1959>
    6d13:	48 89 85 58 fd ff ff 	mov    %rax,-0x2a8(%rbp)
    6d1a:	48 8d 05 d7 53 01 00 	lea    0x153d7(%rip),%rax        # 1c0f8 <g_1959>
    6d21:	48 89 85 60 fd ff ff 	mov    %rax,-0x2a0(%rbp)
    6d28:	48 8d 05 c9 53 01 00 	lea    0x153c9(%rip),%rax        # 1c0f8 <g_1959>
    6d2f:	48 89 85 68 fd ff ff 	mov    %rax,-0x298(%rbp)
    6d36:	48 8d 05 bb 53 01 00 	lea    0x153bb(%rip),%rax        # 1c0f8 <g_1959>
    6d3d:	48 89 85 70 fd ff ff 	mov    %rax,-0x290(%rbp)
    6d44:	48 8d 05 ad 53 01 00 	lea    0x153ad(%rip),%rax        # 1c0f8 <g_1959>
    6d4b:	48 89 85 78 fd ff ff 	mov    %rax,-0x288(%rbp)
    6d52:	48 8d 05 f7 52 01 00 	lea    0x152f7(%rip),%rax        # 1c050 <g_369>
    6d59:	48 89 85 c8 fa ff ff 	mov    %rax,-0x538(%rbp)
    6d60:	48 c7 85 88 fa ff ff 	movq   $0x0,-0x578(%rbp)
    6d67:	00 00 00 00 
    6d6b:	48 8d 85 88 fa ff ff 	lea    -0x578(%rbp),%rax
    6d72:	48 89 85 90 fa ff ff 	mov    %rax,-0x570(%rbp)
    6d79:	48 8d 85 90 fa ff ff 	lea    -0x570(%rbp),%rax
    6d80:	48 89 85 d0 fa ff ff 	mov    %rax,-0x530(%rbp)
    6d87:	66 c7 85 1c fa ff ff 	movw   $0x1,-0x5e4(%rbp)
    6d8e:	01 00 
    6d90:	48 8d 05 49 3d 01 00 	lea    0x13d49(%rip),%rax        # 1aae0 <g_42>
    6d97:	48 89 85 d8 fa ff ff 	mov    %rax,-0x528(%rbp)
    6d9e:	c7 85 30 fa ff ff 00 	movl   $0x0,-0x5d0(%rbp)
    6da5:	00 00 00 
    6da8:	eb 46                	jmp    6df0 <func_2+0x3d8>
    6daa:	c7 85 34 fa ff ff 00 	movl   $0x0,-0x5cc(%rbp)
    6db1:	00 00 00 
    6db4:	eb 2a                	jmp    6de0 <func_2+0x3c8>
    6db6:	8b 85 34 fa ff ff    	mov    -0x5cc(%rbp),%eax
    6dbc:	48 63 d0             	movslq %eax,%rdx
    6dbf:	8b 85 30 fa ff ff    	mov    -0x5d0(%rbp),%eax
    6dc5:	48 98                	cltq   
    6dc7:	48 01 c2             	add    %rax,%rdx
    6dca:	48 8d 85 70 fa ff ff 	lea    -0x590(%rbp),%rax
    6dd1:	48 89 84 d5 70 fb ff 	mov    %rax,-0x490(%rbp,%rdx,8)
    6dd8:	ff 
    6dd9:	83 85 34 fa ff ff 01 	addl   $0x1,-0x5cc(%rbp)
    6de0:	83 bd 34 fa ff ff 00 	cmpl   $0x0,-0x5cc(%rbp)
    6de7:	7e cd                	jle    6db6 <func_2+0x39e>
    6de9:	83 85 30 fa ff ff 01 	addl   $0x1,-0x5d0(%rbp)
    6df0:	83 bd 30 fa ff ff 02 	cmpl   $0x2,-0x5d0(%rbp)
    6df7:	7e b1                	jle    6daa <func_2+0x392>
    6df9:	48 8d 05 f0 40 01 00 	lea    0x140f0(%rip),%rax        # 1aef0 <g_763>
    6e00:	48 39 85 a8 fa ff ff 	cmp    %rax,-0x558(%rbp)
    6e07:	0f 94 c0             	sete   %al
    6e0a:	0f b6 d0             	movzbl %al,%edx
    6e0d:	48 8b 85 70 fa ff ff 	mov    -0x590(%rbp),%rax
    6e14:	48 89 85 e0 fb ff ff 	mov    %rax,-0x420(%rbp)
    6e1b:	48 8b 85 e0 fb ff ff 	mov    -0x420(%rbp),%rax
    6e22:	48 8d 0d 67 46 01 00 	lea    0x14667(%rip),%rcx        # 1b490 <g_1958>
    6e29:	48 39 c8             	cmp    %rcx,%rax
    6e2c:	0f 94 c0             	sete   %al
    6e2f:	0f b6 c0             	movzbl %al,%eax
    6e32:	39 c2                	cmp    %eax,%edx
    6e34:	0f b7 85 1a fa ff ff 	movzwl -0x5e6(%rbp),%eax
    6e3b:	0f b6 c0             	movzbl %al,%eax
    6e3e:	8b 95 28 fa ff ff    	mov    -0x5d8(%rbp),%edx
    6e44:	89 d6                	mov    %edx,%esi
    6e46:	89 c7                	mov    %eax,%edi
    6e48:	e8 b8 ed ff ff       	callq  5c05 <safe_lshift_func_uint8_t_u_s>
    6e4d:	83 bd 28 fa ff ff 00 	cmpl   $0x0,-0x5d8(%rbp)
    6e54:	0f 94 c0             	sete   %al
    6e57:	0f b6 c0             	movzbl %al,%eax
    6e5a:	0b 85 28 fa ff ff    	or     -0x5d8(%rbp),%eax
    6e60:	48 98                	cltq   
    6e62:	25 04 57 00 00       	and    $0x5704,%eax
    6e67:	48 89 c2             	mov    %rax,%rdx
    6e6a:	48 0f bf 85 1a fa ff 	movswq -0x5e6(%rbp),%rax
    6e71:	ff 
    6e72:	48 39 c2             	cmp    %rax,%rdx
    6e75:	0f 94 c0             	sete   %al
    6e78:	0f b6 c0             	movzbl %al,%eax
    6e7b:	39 85 28 fa ff ff    	cmp    %eax,-0x5d8(%rbp)
    6e81:	0f 9f c0             	setg   %al
    6e84:	0f b6 d8             	movzbl %al,%ebx
    6e87:	8b 85 28 fa ff ff    	mov    -0x5d8(%rbp),%eax
    6e8d:	48 98                	cltq   
    6e8f:	48 89 c7             	mov    %rax,%rdi
    6e92:	e8 7f e9 ff ff       	callq  5816 <safe_unary_minus_func_int64_t_s>
    6e97:	8b 95 28 fa ff ff    	mov    -0x5d8(%rbp),%edx
    6e9d:	48 63 d2             	movslq %edx,%rdx
    6ea0:	48 39 d0             	cmp    %rdx,%rax
    6ea3:	0f 9e c0             	setle  %al
    6ea6:	0f b6 c0             	movzbl %al,%eax
    6ea9:	39 85 28 fa ff ff    	cmp    %eax,-0x5d8(%rbp)
    6eaf:	0f 95 c0             	setne  %al
    6eb2:	0f b6 c0             	movzbl %al,%eax
    6eb5:	89 de                	mov    %ebx,%esi
    6eb7:	89 c7                	mov    %eax,%edi
    6eb9:	e8 ba ec ff ff       	callq  5b78 <safe_sub_func_uint8_t_u_u>
    6ebe:	0f b6 d0             	movzbl %al,%edx
    6ec1:	0f bf 85 1a fa ff ff 	movswl -0x5e6(%rbp),%eax
    6ec8:	39 c2                	cmp    %eax,%edx
    6eca:	7d 13                	jge    6edf <func_2+0x4c7>
    6ecc:	48 8b 05 45 28 01 00 	mov    0x12845(%rip),%rax        # 19718 <g_1090>
    6ed3:	48 85 c0             	test   %rax,%rax
    6ed6:	74 07                	je     6edf <func_2+0x4c7>
    6ed8:	b8 01 00 00 00       	mov    $0x1,%eax
    6edd:	eb 05                	jmp    6ee4 <func_2+0x4cc>
    6edf:	b8 00 00 00 00       	mov    $0x0,%eax
    6ee4:	89 85 28 fa ff ff    	mov    %eax,-0x5d8(%rbp)
    6eea:	0f bf 85 1a fa ff ff 	movswl -0x5e6(%rbp),%eax
    6ef1:	39 85 28 fa ff ff    	cmp    %eax,-0x5d8(%rbp)
    6ef7:	c7 85 20 fa ff ff ad 	movl   $0xb1e22bad,-0x5e0(%rbp)
    6efe:	2b e2 b1 
    6f01:	c7 05 15 22 01 00 00 	movl   $0x0,0x12215(%rip)        # 19120 <g_371>
    6f08:	00 00 00 
    6f0b:	e9 0f 08 00 00       	jmpq   771f <func_2+0xd07>
    6f10:	c6 85 17 fa ff ff aa 	movb   $0xaa,-0x5e9(%rbp)
    6f17:	48 8d 85 20 fa ff ff 	lea    -0x5e0(%rbp),%rax
    6f1e:	48 89 85 e0 fa ff ff 	mov    %rax,-0x520(%rbp)
    6f25:	48 c7 85 98 fa ff ff 	movq   $0x0,-0x568(%rbp)
    6f2c:	00 00 00 00 
    6f30:	48 c7 85 50 fc ff ff 	movq   $0x0,-0x3b0(%rbp)
    6f37:	00 00 00 00 
    6f3b:	48 8d 85 98 fa ff ff 	lea    -0x568(%rbp),%rax
    6f42:	48 89 85 58 fc ff ff 	mov    %rax,-0x3a8(%rbp)
    6f49:	48 8d 85 98 fa ff ff 	lea    -0x568(%rbp),%rax
    6f50:	48 89 85 60 fc ff ff 	mov    %rax,-0x3a0(%rbp)
    6f57:	48 c7 85 68 fc ff ff 	movq   $0x0,-0x398(%rbp)
    6f5e:	00 00 00 00 
    6f62:	48 8d 85 98 fa ff ff 	lea    -0x568(%rbp),%rax
    6f69:	48 89 85 70 fc ff ff 	mov    %rax,-0x390(%rbp)
    6f70:	48 8d 85 98 fa ff ff 	lea    -0x568(%rbp),%rax
    6f77:	48 89 85 78 fc ff ff 	mov    %rax,-0x388(%rbp)
    6f7e:	48 c7 85 80 fc ff ff 	movq   $0x0,-0x380(%rbp)
    6f85:	00 00 00 00 
    6f89:	48 8d 85 98 fa ff ff 	lea    -0x568(%rbp),%rax
    6f90:	48 89 85 88 fc ff ff 	mov    %rax,-0x378(%rbp)
    6f97:	48 8d 85 98 fa ff ff 	lea    -0x568(%rbp),%rax
    6f9e:	48 89 85 90 fc ff ff 	mov    %rax,-0x370(%rbp)
    6fa5:	48 c7 85 98 fc ff ff 	movq   $0x0,-0x368(%rbp)
    6fac:	00 00 00 00 
    6fb0:	48 8d 85 98 fa ff ff 	lea    -0x568(%rbp),%rax
    6fb7:	48 89 85 a0 fc ff ff 	mov    %rax,-0x360(%rbp)
    6fbe:	48 8d 85 98 fa ff ff 	lea    -0x568(%rbp),%rax
    6fc5:	48 89 85 a8 fc ff ff 	mov    %rax,-0x358(%rbp)
    6fcc:	48 c7 85 b0 fc ff ff 	movq   $0x0,-0x350(%rbp)
    6fd3:	00 00 00 00 
    6fd7:	48 8d 85 98 fa ff ff 	lea    -0x568(%rbp),%rax
    6fde:	48 89 85 b8 fc ff ff 	mov    %rax,-0x348(%rbp)
    6fe5:	48 8d 85 98 fa ff ff 	lea    -0x568(%rbp),%rax
    6fec:	48 89 85 c0 fc ff ff 	mov    %rax,-0x340(%rbp)
    6ff3:	48 c7 85 c8 fc ff ff 	movq   $0x0,-0x338(%rbp)
    6ffa:	00 00 00 00 
    6ffe:	48 8d 85 98 fa ff ff 	lea    -0x568(%rbp),%rax
    7005:	48 89 85 d0 fc ff ff 	mov    %rax,-0x330(%rbp)
    700c:	48 8d 85 98 fa ff ff 	lea    -0x568(%rbp),%rax
    7013:	48 89 85 d8 fc ff ff 	mov    %rax,-0x328(%rbp)
    701a:	48 c7 85 a0 fa ff ff 	movq   $0x0,-0x560(%rbp)
    7021:	00 00 00 00 
    7025:	c7 85 44 fa ff ff c0 	movl   $0xdf5ac9c0,-0x5bc(%rbp)
    702c:	c9 5a df 
    702f:	c7 85 48 fa ff ff 41 	movl   $0x44ebc241,-0x5b8(%rbp)
    7036:	c2 eb 44 
    7039:	48 c7 85 e8 fa ff ff 	movq   $0x0,-0x518(%rbp)
    7040:	00 00 00 00 
    7044:	48 8d 05 fd 2b 01 00 	lea    0x12bfd(%rip),%rax        # 19c48 <g_2148>
    704b:	48 89 85 f0 fa ff ff 	mov    %rax,-0x510(%rbp)
    7052:	48 c7 85 00 fc ff ff 	movq   $0x0,-0x400(%rbp)
    7059:	00 00 00 00 
    705d:	48 c7 85 08 fc ff ff 	movq   $0x0,-0x3f8(%rbp)
    7064:	00 00 00 00 
    7068:	48 c7 85 10 fc ff ff 	movq   $0x0,-0x3f0(%rbp)
    706f:	00 00 00 00 
    7073:	48 c7 85 18 fc ff ff 	movq   $0x0,-0x3e8(%rbp)
    707a:	00 00 00 00 
    707e:	48 c7 85 20 fc ff ff 	movq   $0x0,-0x3e0(%rbp)
    7085:	00 00 00 00 
    7089:	48 c7 85 28 fc ff ff 	movq   $0x0,-0x3d8(%rbp)
    7090:	00 00 00 00 
    7094:	48 c7 85 30 fc ff ff 	movq   $0x0,-0x3d0(%rbp)
    709b:	00 00 00 00 
    709f:	48 c7 85 38 fc ff ff 	movq   $0x0,-0x3c8(%rbp)
    70a6:	00 00 00 00 
    70aa:	48 c7 85 40 fc ff ff 	movq   $0x0,-0x3c0(%rbp)
    70b1:	00 00 00 00 
    70b5:	48 c7 85 f8 fa ff ff 	movq   $0xfffffffffffffffb,-0x508(%rbp)
    70bc:	fb ff ff ff 
    70c0:	48 c7 85 00 fb ff ff 	movq   $0xffffffffffffffff,-0x500(%rbp)
    70c7:	ff ff ff ff 
    70cb:	48 8d 05 26 50 01 00 	lea    0x15026(%rip),%rax        # 1c0f8 <g_1959>
    70d2:	48 89 85 08 fb ff ff 	mov    %rax,-0x4f8(%rbp)
    70d9:	c6 85 18 fa ff ff 8b 	movb   $0x8b,-0x5e8(%rbp)
    70e0:	48 8d 05 51 3e 01 00 	lea    0x13e51(%rip),%rax        # 1af38 <g_811>
    70e7:	48 89 85 10 fb ff ff 	mov    %rax,-0x4f0(%rbp)
    70ee:	48 8d 85 80 fe ff ff 	lea    -0x180(%rbp),%rax
    70f5:	48 8d 15 84 cf 00 00 	lea    0xcf84(%rip),%rdx        # 14080 <g_2569+0x16>
    70fc:	b9 28 00 00 00       	mov    $0x28,%ecx
    7101:	48 89 c7             	mov    %rax,%rdi
    7104:	48 89 d6             	mov    %rdx,%rsi
    7107:	f3 48 a5             	rep movsq %ds:(%rsi),%es:(%rdi)
    710a:	48 89 f2             	mov    %rsi,%rdx
    710d:	48 89 f8             	mov    %rdi,%rax
    7110:	8b 0a                	mov    (%rdx),%ecx
    7112:	89 08                	mov    %ecx,(%rax)
    7114:	48 8d 40 04          	lea    0x4(%rax),%rax
    7118:	48 8d 52 04          	lea    0x4(%rdx),%rdx
    711c:	c6 85 19 fa ff ff d9 	movb   $0xd9,-0x5e7(%rbp)
    7123:	c7 85 24 fa ff ff 08 	movl   $0x8,-0x5dc(%rbp)
    712a:	00 00 00 
    712d:	48 8d 85 24 fa ff ff 	lea    -0x5dc(%rbp),%rax
    7134:	48 89 85 18 fb ff ff 	mov    %rax,-0x4e8(%rbp)
    713b:	48 8d 05 b6 4f 01 00 	lea    0x14fb6(%rip),%rax        # 1c0f8 <g_1959>
    7142:	48 89 85 20 fb ff ff 	mov    %rax,-0x4e0(%rbp)
    7149:	48 c7 85 28 fb ff ff 	movq   $0x0,-0x4d8(%rbp)
    7150:	00 00 00 00 
    7154:	48 8b 05 75 43 01 00 	mov    0x14375(%rip),%rax        # 1b4d0 <g_2129>
    715b:	0f b7 08             	movzwl (%rax),%ecx
    715e:	0f b7 95 5c fb ff ff 	movzwl -0x4a4(%rbp),%edx
    7165:	48 8b 05 64 43 01 00 	mov    0x14364(%rip),%rax        # 1b4d0 <g_2129>
    716c:	09 ca                	or     %ecx,%edx
    716e:	66 89 10             	mov    %dx,(%rax)
    7171:	0f b7 00             	movzwl (%rax),%eax
    7174:	0f b7 d0             	movzwl %ax,%edx
    7177:	0f be 85 17 fa ff ff 	movsbl -0x5e9(%rbp),%eax
    717e:	39 c2                	cmp    %eax,%edx
    7180:	48 8b 05 81 40 01 00 	mov    0x14081(%rip),%rax        # 1b208 <g_1023>
    7187:	48 8b 95 e0 fa ff ff 	mov    -0x520(%rbp),%rdx
    718e:	48 89 10             	mov    %rdx,(%rax)
    7191:	c7 05 b5 22 01 00 00 	movl   $0x0,0x122b5(%rip)        # 19450 <g_874>
    7198:	00 00 00 
    719b:	e9 50 05 00 00       	jmpq   76f0 <func_2+0xcd8>
    71a0:	48 8d 85 98 fa ff ff 	lea    -0x568(%rbp),%rax
    71a7:	48 89 85 30 fb ff ff 	mov    %rax,-0x4d0(%rbp)
    71ae:	c7 85 38 fa ff ff cf 	movl   $0x55108cf,-0x5c8(%rbp)
    71b5:	08 51 05 
    71b8:	48 8b 85 e0 fa ff ff 	mov    -0x520(%rbp),%rax
    71bf:	c7 00 01 00 00 00    	movl   $0x1,(%rax)
    71c5:	48 8b 85 e0 fa ff ff 	mov    -0x520(%rbp),%rax
    71cc:	c7 00 ce 40 a8 84    	movl   $0x84a840ce,(%rax)
    71d2:	48 c7 05 4b 27 01 00 	movq   $0x0,0x1274b(%rip)        # 19928 <g_1100>
    71d9:	00 00 00 00 
    71dd:	90                   	nop
    71de:	48 8b 05 43 27 01 00 	mov    0x12743(%rip),%rax        # 19928 <g_1100>
    71e5:	48 85 c0             	test   %rax,%rax
    71e8:	0f 88 f3 04 00 00    	js     76e1 <func_2+0xcc9>
    71ee:	48 8d 85 20 fa ff ff 	lea    -0x5e0(%rbp),%rax
    71f5:	48 89 85 38 fb ff ff 	mov    %rax,-0x4c8(%rbp)
    71fc:	c7 85 80 fd ff ff f6 	movl   $0xfffffff6,-0x280(%rbp)
    7203:	ff ff ff 
    7206:	c7 85 84 fd ff ff 00 	movl   $0x0,-0x27c(%rbp)
    720d:	00 00 00 
    7210:	c7 85 88 fd ff ff 02 	movl   $0x2,-0x278(%rbp)
    7217:	00 00 00 
    721a:	c7 85 8c fd ff ff cf 	movl   $0x9cf1b3cf,-0x274(%rbp)
    7221:	b3 f1 9c 
    7224:	c7 85 90 fd ff ff 89 	movl   $0x3df6af89,-0x270(%rbp)
    722b:	af f6 3d 
    722e:	c7 85 94 fd ff ff 51 	movl   $0xbd8b6551,-0x26c(%rbp)
    7235:	65 8b bd 
    7238:	c7 85 98 fd ff ff fe 	movl   $0xe1739efe,-0x268(%rbp)
    723f:	9e 73 e1 
    7242:	c7 85 9c fd ff ff f6 	movl   $0xfffffff6,-0x264(%rbp)
    7249:	ff ff ff 
    724c:	c7 85 a0 fd ff ff 00 	movl   $0x0,-0x260(%rbp)
    7253:	00 00 00 
    7256:	c7 85 a4 fd ff ff fd 	movl   $0xfffffffd,-0x25c(%rbp)
    725d:	ff ff ff 
    7260:	c7 85 a8 fd ff ff 01 	movl   $0x1,-0x258(%rbp)
    7267:	00 00 00 
    726a:	c7 85 ac fd ff ff f0 	movl   $0xc9181af0,-0x254(%rbp)
    7271:	1a 18 c9 
    7274:	c7 85 b0 fd ff ff 17 	movl   $0x6c667717,-0x250(%rbp)
    727b:	77 66 6c 
    727e:	c7 85 b4 fd ff ff 00 	movl   $0x0,-0x24c(%rbp)
    7285:	00 00 00 
    7288:	c7 85 b8 fd ff ff 17 	movl   $0x6c667717,-0x248(%rbp)
    728f:	77 66 6c 
    7292:	c7 85 bc fd ff ff f0 	movl   $0xc9181af0,-0x244(%rbp)
    7299:	1a 18 c9 
    729c:	c7 85 c0 fd ff ff cf 	movl   $0x9cf1b3cf,-0x240(%rbp)
    72a3:	b3 f1 9c 
    72a6:	c7 85 c4 fd ff ff b4 	movl   $0xa542f5b4,-0x23c(%rbp)
    72ad:	f5 42 a5 
    72b0:	c7 85 c8 fd ff ff cf 	movl   $0x9cf1b3cf,-0x238(%rbp)
    72b7:	b3 f1 9c 
    72ba:	c7 85 cc fd ff ff 00 	movl   $0x0,-0x234(%rbp)
    72c1:	00 00 00 
    72c4:	c7 85 d0 fd ff ff a3 	movl   $0x8f932ca3,-0x230(%rbp)
    72cb:	2c 93 8f 
    72ce:	c7 85 d4 fd ff ff 97 	movl   $0xefa7a597,-0x22c(%rbp)
    72d5:	a5 a7 ef 
    72d8:	c7 85 d8 fd ff ff b4 	movl   $0xa542f5b4,-0x228(%rbp)
    72df:	f5 42 a5 
    72e2:	c7 85 dc fd ff ff 80 	movl   $0xdb572780,-0x224(%rbp)
    72e9:	27 57 db 
    72ec:	c7 85 e0 fd ff ff 32 	movl   $0xee99db32,-0x220(%rbp)
    72f3:	db 99 ee 
    72f6:	c7 85 e4 fd ff ff f6 	movl   $0xfffffff6,-0x21c(%rbp)
    72fd:	ff ff ff 
    7300:	c7 85 e8 fd ff ff 11 	movl   $0x1edec011,-0x218(%rbp)
    7307:	c0 de 1e 
    730a:	c7 85 ec fd ff ff 02 	movl   $0x2,-0x214(%rbp)
    7311:	00 00 00 
    7314:	c7 85 f0 fd ff ff f4 	movl   $0x578884f4,-0x210(%rbp)
    731b:	84 88 57 
    731e:	c7 85 f4 fd ff ff 01 	movl   $0x1,-0x20c(%rbp)
    7325:	00 00 00 
    7328:	c7 85 f8 fd ff ff a3 	movl   $0x8f932ca3,-0x208(%rbp)
    732f:	2c 93 8f 
    7332:	c7 85 fc fd ff ff 11 	movl   $0x1edec011,-0x204(%rbp)
    7339:	c0 de 1e 
    733c:	c7 85 00 fe ff ff 32 	movl   $0xee99db32,-0x200(%rbp)
    7343:	db 99 ee 
    7346:	c7 85 04 fe ff ff f4 	movl   $0x578884f4,-0x1fc(%rbp)
    734d:	84 88 57 
    7350:	c7 85 08 fe ff ff f6 	movl   $0xfffffff6,-0x1f8(%rbp)
    7357:	ff ff ff 
    735a:	c7 85 0c fe ff ff 01 	movl   $0x1,-0x1f4(%rbp)
    7361:	00 00 00 
    7364:	c7 85 10 fe ff ff a3 	movl   $0x8f932ca3,-0x1f0(%rbp)
    736b:	2c 93 8f 
    736e:	c7 85 14 fe ff ff 00 	movl   $0x0,-0x1ec(%rbp)
    7375:	00 00 00 
    7378:	c7 85 18 fe ff ff 00 	movl   $0x0,-0x1e8(%rbp)
    737f:	00 00 00 
    7382:	c7 85 1c fe ff ff a3 	movl   $0x8f932ca3,-0x1e4(%rbp)
    7389:	2c 93 8f 
    738c:	c7 85 20 fe ff ff cf 	movl   $0x9cf1b3cf,-0x1e0(%rbp)
    7393:	b3 f1 9c 
    7396:	c7 85 24 fe ff ff fe 	movl   $0xe1739efe,-0x1dc(%rbp)
    739d:	9e 73 e1 
    73a0:	c7 85 28 fe ff ff fe 	movl   $0xe1739efe,-0x1d8(%rbp)
    73a7:	9e 73 e1 
    73aa:	c7 85 2c fe ff ff cf 	movl   $0x9cf1b3cf,-0x1d4(%rbp)
    73b1:	b3 f1 9c 
    73b4:	c7 85 30 fe ff ff 17 	movl   $0x6c667717,-0x1d0(%rbp)
    73bb:	77 66 6c 
    73be:	c7 85 34 fe ff ff 80 	movl   $0xdb572780,-0x1cc(%rbp)
    73c5:	27 57 db 
    73c8:	c7 85 38 fe ff ff f6 	movl   $0xfffffff6,-0x1c8(%rbp)
    73cf:	ff ff ff 
    73d2:	c7 85 3c fe ff ff 00 	movl   $0x0,-0x1c4(%rbp)
    73d9:	00 00 00 
    73dc:	c7 85 40 fe ff ff 00 	movl   $0x0,-0x1c0(%rbp)
    73e3:	00 00 00 
    73e6:	c7 85 44 fe ff ff fb 	movl   $0xfffffffb,-0x1bc(%rbp)
    73ed:	ff ff ff 
    73f0:	c7 85 48 fe ff ff 79 	movl   $0xec5ea079,-0x1b8(%rbp)
    73f7:	a0 5e ec 
    73fa:	c7 85 4c fe ff ff 11 	movl   $0x1edec011,-0x1b4(%rbp)
    7401:	c0 de 1e 
    7404:	c7 85 50 fe ff ff 89 	movl   $0x3df6af89,-0x1b0(%rbp)
    740b:	af f6 3d 
    740e:	c7 85 54 fe ff ff 00 	movl   $0x0,-0x1ac(%rbp)
    7415:	00 00 00 
    7418:	c7 85 58 fe ff ff fd 	movl   $0xfffffffd,-0x1a8(%rbp)
    741f:	ff ff ff 
    7422:	c7 85 5c fe ff ff 01 	movl   $0x1,-0x1a4(%rbp)
    7429:	00 00 00 
    742c:	c7 85 60 fe ff ff f6 	movl   $0xfffffff6,-0x1a0(%rbp)
    7433:	ff ff ff 
    7436:	c7 85 64 fe ff ff fb 	movl   $0xfffffffb,-0x19c(%rbp)
    743d:	ff ff ff 
    7440:	c7 85 68 fe ff ff cf 	movl   $0x9cf1b3cf,-0x198(%rbp)
    7447:	b3 f1 9c 
    744a:	c7 85 6c fe ff ff f6 	movl   $0xfffffff6,-0x194(%rbp)
    7451:	ff ff ff 
    7454:	c7 85 70 fe ff ff 02 	movl   $0x2,-0x190(%rbp)
    745b:	00 00 00 
    745e:	c7 85 74 fe ff ff 80 	movl   $0xdb572780,-0x18c(%rbp)
    7465:	27 57 db 
    7468:	c7 85 78 fe ff ff fb 	movl   $0xfffffffb,-0x188(%rbp)
    746f:	ff ff ff 
    7472:	c7 85 7c fe ff ff 80 	movl   $0xdb572780,-0x184(%rbp)
    7479:	27 57 db 
    747c:	48 8b 85 e0 fa ff ff 	mov    -0x520(%rbp),%rax
    7483:	48 89 85 38 fb ff ff 	mov    %rax,-0x4c8(%rbp)
    748a:	48 c7 05 1b 25 01 00 	movq   $0x0,0x1251b(%rip)        # 199b0 <g_1104>
    7491:	00 00 00 00 
    7495:	e9 17 02 00 00       	jmpq   76b1 <func_2+0xc99>
    749a:	48 8d 05 af 39 01 00 	lea    0x139af(%rip),%rax        # 1ae50 <g_529+0x110>
    74a1:	48 89 85 40 fb ff ff 	mov    %rax,-0x4c0(%rbp)
    74a8:	66 c7 85 1e fa ff ff 	movw   $0x483e,-0x5e2(%rbp)
    74af:	3e 48 
    74b1:	c7 85 28 fa ff ff 08 	movl   $0x8,-0x5d8(%rbp)
    74b8:	00 00 00 
    74bb:	eb 15                	jmp    74d2 <func_2+0xaba>
    74bd:	48 8b 85 a0 fc ff ff 	mov    -0x360(%rbp),%rax
    74c4:	48 89 85 30 fb ff ff 	mov    %rax,-0x4d0(%rbp)
    74cb:	83 ad 28 fa ff ff 01 	subl   $0x1,-0x5d8(%rbp)
    74d2:	83 bd 28 fa ff ff 00 	cmpl   $0x0,-0x5d8(%rbp)
    74d9:	79 e2                	jns    74bd <func_2+0xaa5>
    74db:	8b 85 58 fe ff ff    	mov    -0x1a8(%rbp),%eax
    74e1:	85 c0                	test   %eax,%eax
    74e3:	0f 85 b5 01 00 00    	jne    769e <func_2+0xc86>
    74e9:	48 8b 85 e0 fa ff ff 	mov    -0x520(%rbp),%rax
    74f0:	8b 10                	mov    (%rax),%edx
    74f2:	8b 85 20 fa ff ff    	mov    -0x5e0(%rbp),%eax
    74f8:	98                   	cwtl   
    74f9:	89 d6                	mov    %edx,%esi
    74fb:	89 c7                	mov    %eax,%edi
    74fd:	e8 28 e0 ff ff       	callq  552a <safe_rshift_func_int16_t_s_s>
    7502:	66 85 c0             	test   %ax,%ax
    7505:	74 37                	je     753e <func_2+0xb26>
    7507:	c7 85 38 fa ff ff 80 	movl   $0x2b7fe280,-0x5c8(%rbp)
    750e:	e2 7f 2b 
    7511:	48 8b 85 38 fb ff ff 	mov    -0x4c8(%rbp),%rax
    7518:	8b 95 38 fa ff ff    	mov    -0x5c8(%rbp),%edx
    751e:	89 10                	mov    %edx,(%rax)
    7520:	48 8b 85 e0 fa ff ff 	mov    -0x520(%rbp),%rax
    7527:	8b 00                	mov    (%rax),%eax
    7529:	85 c0                	test   %eax,%eax
    752b:	0f 85 92 01 00 00    	jne    76c3 <func_2+0xcab>
    7531:	8b 85 20 fa ff ff    	mov    -0x5e0(%rbp),%eax
    7537:	85 c0                	test   %eax,%eax
    7539:	e9 61 01 00 00       	jmpq   769f <func_2+0xc87>
    753e:	c7 85 4c fa ff ff 00 	movl   $0x0,-0x5b4(%rbp)
    7545:	00 00 00 
    7548:	48 8d 05 91 1b 01 00 	lea    0x11b91(%rip),%rax        # 190e0 <g_195>
    754f:	48 89 85 48 fb ff ff 	mov    %rax,-0x4b8(%rbp)
    7556:	48 8b 85 38 fb ff ff 	mov    -0x4c8(%rbp),%rax
    755d:	8b 00                	mov    (%rax),%eax
    755f:	89 85 4c fa ff ff    	mov    %eax,-0x5b4(%rbp)
    7565:	48 8b 85 e0 fa ff ff 	mov    -0x520(%rbp),%rax
    756c:	8b 00                	mov    (%rax),%eax
    756e:	89 c6                	mov    %eax,%esi
    7570:	bf 4b fb ff ff       	mov    $0xfffffb4b,%edi
    7575:	e8 67 df ff ff       	callq  54e1 <safe_lshift_func_int16_t_s_u>
    757a:	44 0f bf e0          	movswl %ax,%r12d
    757e:	8b 05 c4 26 01 00    	mov    0x126c4(%rip),%eax        # 19c48 <g_2148>
    7584:	0f be d8             	movsbl %al,%ebx
    7587:	48 8b 85 a0 fa ff ff 	mov    -0x560(%rbp),%rax
    758e:	48 89 85 40 fb ff ff 	mov    %rax,-0x4c0(%rbp)
    7595:	48 8b 85 40 fb ff ff 	mov    -0x4c0(%rbp),%rax
    759c:	48 89 85 a0 fa ff ff 	mov    %rax,-0x560(%rbp)
    75a3:	48 83 bd a0 fa ff ff 	cmpq   $0x0,-0x560(%rbp)
    75aa:	00 
    75ab:	0f 94 c0             	sete   %al
    75ae:	0f b6 d0             	movzbl %al,%edx
    75b1:	48 8b 85 48 fb ff ff 	mov    -0x4b8(%rbp),%rax
    75b8:	0f b6 00             	movzbl (%rax),%eax
    75bb:	8d 48 ff             	lea    -0x1(%rax),%ecx
    75be:	48 8b 85 48 fb ff ff 	mov    -0x4b8(%rbp),%rax
    75c5:	88 08                	mov    %cl,(%rax)
    75c7:	48 8b 85 48 fb ff ff 	mov    -0x4b8(%rbp),%rax
    75ce:	0f b6 00             	movzbl (%rax),%eax
    75d1:	0f b6 c0             	movzbl %al,%eax
    75d4:	89 d6                	mov    %edx,%esi
    75d6:	89 c7                	mov    %eax,%edi
    75d8:	e8 7d e5 ff ff       	callq  5b5a <safe_add_func_uint8_t_u_u>
    75dd:	0f b6 d0             	movzbl %al,%edx
    75e0:	8b 85 38 fa ff ff    	mov    -0x5c8(%rbp),%eax
    75e6:	0f b6 c0             	movzbl %al,%eax
    75e9:	89 d6                	mov    %edx,%esi
    75eb:	89 c7                	mov    %eax,%edi
    75ed:	e8 68 e5 ff ff       	callq  5b5a <safe_add_func_uint8_t_u_u>
    75f2:	44 0f b6 e8          	movzbl %al,%r13d
    75f6:	48 8b 05 1b 36 01 00 	mov    0x1361b(%rip),%rax        # 1ac18 <g_212>
    75fd:	48 8b 00             	mov    (%rax),%rax
    7600:	48 8b 00             	mov    (%rax),%rax
    7603:	49 89 c6             	mov    %rax,%r14
    7606:	48 8b 85 08 fa ff ff 	mov    -0x5f8(%rbp),%rax
    760d:	0f b6 00             	movzbl (%rax),%eax
    7610:	66 98                	cbtw   
    7612:	66 39 85 1a fa ff ff 	cmp    %ax,-0x5e6(%rbp)
    7619:	0f 9f c0             	setg   %al
    761c:	0f b6 d0             	movzbl %al,%edx
    761f:	8b 85 4c fa ff ff    	mov    -0x5b4(%rbp),%eax
    7625:	83 f8 01             	cmp    $0x1,%eax
    7628:	0f 97 c0             	seta   %al
    762b:	0f b6 c0             	movzbl %al,%eax
    762e:	39 c2                	cmp    %eax,%edx
    7630:	0f 9f c0             	setg   %al
    7633:	0f b6 c0             	movzbl %al,%eax
    7636:	48 c7 c6 fe ff ff ff 	mov    $0xfffffffffffffffe,%rsi
    763d:	48 89 c7             	mov    %rax,%rdi
    7640:	e8 fc e1 ff ff       	callq  5841 <safe_add_func_int64_t_s_s>
    7645:	4c 89 f6             	mov    %r14,%rsi
    7648:	48 89 c7             	mov    %rax,%rdi
    764b:	e8 de e9 ff ff       	callq  602e <safe_add_func_uint64_t_u_u>
    7650:	49 39 c5             	cmp    %rax,%r13
    7653:	0f 96 c2             	setbe  %dl
    7656:	48 8b 05 db 38 01 00 	mov    0x138db(%rip),%rax        # 1af38 <g_811>
    765d:	48 8b 00             	mov    (%rax),%rax
    7660:	88 10                	mov    %dl,(%rax)
    7662:	0f b6 00             	movzbl (%rax),%eax
    7665:	0f be c0             	movsbl %al,%eax
    7668:	89 de                	mov    %ebx,%esi
    766a:	89 c7                	mov    %eax,%edi
    766c:	e8 a1 db ff ff       	callq  5212 <safe_mul_func_int8_t_s_s>
    7671:	0f be d0             	movsbl %al,%edx
    7674:	48 8b 85 e0 fa ff ff 	mov    -0x520(%rbp),%rax
    767b:	8b 00                	mov    (%rax),%eax
    767d:	21 c2                	and    %eax,%edx
    767f:	0f bf 85 1e fa ff ff 	movswl -0x5e2(%rbp),%eax
    7686:	39 c2                	cmp    %eax,%edx
    7688:	0f 9f c0             	setg   %al
    768b:	0f b6 c0             	movzbl %al,%eax
    768e:	44 89 e2             	mov    %r12d,%edx
    7691:	31 c2                	xor    %eax,%edx
    7693:	48 8b 85 e0 fa ff ff 	mov    -0x520(%rbp),%rax
    769a:	89 10                	mov    %edx,(%rax)
    769c:	eb 01                	jmp    769f <func_2+0xc87>
    769e:	90                   	nop
    769f:	48 8b 05 0a 23 01 00 	mov    0x1230a(%rip),%rax        # 199b0 <g_1104>
    76a6:	48 83 e8 01          	sub    $0x1,%rax
    76aa:	48 89 05 ff 22 01 00 	mov    %rax,0x122ff(%rip)        # 199b0 <g_1104>
    76b1:	48 8b 05 f8 22 01 00 	mov    0x122f8(%rip),%rax        # 199b0 <g_1104>
    76b8:	48 85 c0             	test   %rax,%rax
    76bb:	0f 89 d9 fd ff ff    	jns    749a <func_2+0xa82>
    76c1:	eb 01                	jmp    76c4 <func_2+0xcac>
    76c3:	90                   	nop
    76c4:	48 8b 05 6d 3e 01 00 	mov    0x13e6d(%rip),%rax        # 1b538 <g_2518>
    76cb:	48 8b 95 b0 fa ff ff 	mov    -0x550(%rbp),%rdx
    76d2:	48 89 10             	mov    %rdx,(%rax)
    76d5:	48 8b 05 64 38 01 00 	mov    0x13864(%rip),%rax        # 1af40 <g_810>
    76dc:	48 8b 00             	mov    (%rax),%rax
    76df:	eb 57                	jmp    7738 <func_2+0xd20>
    76e1:	8b 05 69 1d 01 00    	mov    0x11d69(%rip),%eax        # 19450 <g_874>
    76e7:	83 c0 01             	add    $0x1,%eax
    76ea:	89 05 60 1d 01 00    	mov    %eax,0x11d60(%rip)        # 19450 <g_874>
    76f0:	8b 05 5a 1d 01 00    	mov    0x11d5a(%rip),%eax        # 19450 <g_874>
    76f6:	85 c0                	test   %eax,%eax
    76f8:	0f 84 a2 fa ff ff    	je     71a0 <func_2+0x788>
    76fe:	83 85 2c fa ff ff 01 	addl   $0x1,-0x5d4(%rbp)
    7705:	8b 05 15 1a 01 00    	mov    0x11a15(%rip),%eax        # 19120 <g_371>
    770b:	98                   	cwtl   
    770c:	be 07 00 00 00       	mov    $0x7,%esi
    7711:	89 c7                	mov    %eax,%edi
    7713:	e8 9b dc ff ff       	callq  53b3 <safe_add_func_int16_t_s_s>
    7718:	98                   	cwtl   
    7719:	89 05 01 1a 01 00    	mov    %eax,0x11a01(%rip)        # 19120 <g_371>
    771f:	8b 05 fb 19 01 00    	mov    0x119fb(%rip),%eax        # 19120 <g_371>
    7725:	83 f8 07             	cmp    $0x7,%eax
    7728:	0f 85 e2 f7 ff ff    	jne    6f10 <func_2+0x4f8>
    772e:	48 8b 05 0b 38 01 00 	mov    0x1380b(%rip),%rax        # 1af40 <g_810>
    7735:	48 8b 00             	mov    (%rax),%rax
    7738:	48 8b 5d d8          	mov    -0x28(%rbp),%rbx
    773c:	64 48 33 1c 25 28 00 	xor    %fs:0x28,%rbx
    7743:	00 00 
    7745:	74 05                	je     774c <func_2+0xd34>
    7747:	e8 24 d9 ff ff       	callq  5070 <__stack_chk_fail@plt>
    774c:	48 81 c4 e0 05 00 00 	add    $0x5e0,%rsp
    7753:	5b                   	pop    %rbx
    7754:	41 5c                	pop    %r12
    7756:	41 5d                	pop    %r13
    7758:	41 5e                	pop    %r14
    775a:	5d                   	pop    %rbp
    775b:	c3                   	retq   

000000000000775c <func_4>:
    775c:	f3 0f 1e fa          	endbr64 
    7760:	55                   	push   %rbp
    7761:	48 89 e5             	mov    %rsp,%rbp
    7764:	89 f8                	mov    %edi,%eax
    7766:	89 75 e8             	mov    %esi,-0x18(%rbp)
    7769:	89 55 e4             	mov    %edx,-0x1c(%rbp)
    776c:	48 89 4d d8          	mov    %rcx,-0x28(%rbp)
    7770:	88 45 ec             	mov    %al,-0x14(%rbp)
    7773:	48 c7 45 f8 00 00 00 	movq   $0x0,-0x8(%rbp)
    777a:	00 
    777b:	0f b6 55 ec          	movzbl -0x14(%rbp),%edx
    777f:	48 8b 45 d8          	mov    -0x28(%rbp),%rax
    7783:	48 8b 00             	mov    (%rax),%rax
    7786:	0f b6 00             	movzbl (%rax),%eax
    7789:	0f be c0             	movsbl %al,%eax
    778c:	39 c2                	cmp    %eax,%edx
    778e:	0f 9d c0             	setge  %al
    7791:	0f b6 d0             	movzbl %al,%edx
    7794:	48 8b 05 95 3d 01 00 	mov    0x13d95(%rip),%rax        # 1b530 <g_2461>
    779b:	f7 d2                	not    %edx
    779d:	89 10                	mov    %edx,(%rax)
    779f:	48 8b 05 3a 37 01 00 	mov    0x1373a(%rip),%rax        # 1aee0 <g_765>
    77a6:	48 8b 00             	mov    (%rax),%rax
    77a9:	8b 00                	mov    (%rax),%eax
    77ab:	5d                   	pop    %rbp
    77ac:	c3                   	retq   

00000000000077ad <func_9>:
    77ad:	f3 0f 1e fa          	endbr64 
    77b1:	55                   	push   %rbp
    77b2:	48 89 e5             	mov    %rsp,%rbp
    77b5:	48 81 ec 40 02 00 00 	sub    $0x240,%rsp
    77bc:	89 f8                	mov    %edi,%eax
    77be:	48 89 b5 d0 fd ff ff 	mov    %rsi,-0x230(%rbp)
    77c5:	48 89 95 c8 fd ff ff 	mov    %rdx,-0x238(%rbp)
    77cc:	48 89 8d c0 fd ff ff 	mov    %rcx,-0x240(%rbp)
    77d3:	88 85 dc fd ff ff    	mov    %al,-0x224(%rbp)
    77d9:	64 48 8b 04 25 28 00 	mov    %fs:0x28,%rax
    77e0:	00 00 
    77e2:	48 89 45 f8          	mov    %rax,-0x8(%rbp)
    77e6:	31 c0                	xor    %eax,%eax
    77e8:	48 8d 85 f0 fe ff ff 	lea    -0x110(%rbp),%rax
    77ef:	48 8d 15 ea c9 00 00 	lea    0xc9ea(%rip),%rdx        # 141e0 <g_2569+0x176>
    77f6:	b9 1f 00 00 00       	mov    $0x1f,%ecx
    77fb:	48 89 c7             	mov    %rax,%rdi
    77fe:	48 89 d6             	mov    %rdx,%rsi
    7801:	f3 48 a5             	rep movsq %ds:(%rsi),%es:(%rdi)
    7804:	48 89 f2             	mov    %rsi,%rdx
    7807:	48 89 f8             	mov    %rdi,%rax
    780a:	8b 0a                	mov    (%rdx),%ecx
    780c:	89 08                	mov    %ecx,(%rax)
    780e:	48 8d 40 04          	lea    0x4(%rax),%rax
    7812:	48 8d 52 04          	lea    0x4(%rdx),%rdx
    7816:	c7 85 f0 fd ff ff 05 	movl   $0x5,-0x210(%rbp)
    781d:	00 00 00 
    7820:	48 c7 85 f8 fd ff ff 	movq   $0x0,-0x208(%rbp)
    7827:	00 00 00 00 
    782b:	48 c7 85 00 fe ff ff 	movq   $0x0,-0x200(%rbp)
    7832:	00 00 00 00 
    7836:	c7 85 e4 fd ff ff 04 	movl   $0x4,-0x21c(%rbp)
    783d:	00 00 00 
    7840:	48 8d 85 e4 fd ff ff 	lea    -0x21c(%rbp),%rax
    7847:	48 89 85 08 fe ff ff 	mov    %rax,-0x1f8(%rbp)
    784e:	48 8d 85 e4 fd ff ff 	lea    -0x21c(%rbp),%rax
    7855:	48 89 85 10 fe ff ff 	mov    %rax,-0x1f0(%rbp)
    785c:	48 8d 05 f5 1b 01 00 	lea    0x11bf5(%rip),%rax        # 19458 <g_929>
    7863:	48 89 85 18 fe ff ff 	mov    %rax,-0x1e8(%rbp)
    786a:	48 8d 05 e7 1b 01 00 	lea    0x11be7(%rip),%rax        # 19458 <g_929>
    7871:	48 89 85 20 fe ff ff 	mov    %rax,-0x1e0(%rbp)
    7878:	c6 85 42 fe ff ff 89 	movb   $0x89,-0x1be(%rbp)
    787f:	c6 85 43 fe ff ff 01 	movb   $0x1,-0x1bd(%rbp)
    7886:	c6 85 44 fe ff ff 89 	movb   $0x89,-0x1bc(%rbp)
    788d:	c6 85 45 fe ff ff 01 	movb   $0x1,-0x1bb(%rbp)
    7894:	c6 85 46 fe ff ff 89 	movb   $0x89,-0x1ba(%rbp)
    789b:	c6 85 47 fe ff ff 01 	movb   $0x1,-0x1b9(%rbp)
    78a2:	c6 85 48 fe ff ff 89 	movb   $0x89,-0x1b8(%rbp)
    78a9:	c6 85 49 fe ff ff 01 	movb   $0x1,-0x1b7(%rbp)
    78b0:	c6 85 4a fe ff ff 89 	movb   $0x89,-0x1b6(%rbp)
    78b7:	c6 85 4b fe ff ff 01 	movb   $0x1,-0x1b5(%rbp)
    78be:	c6 85 4c fe ff ff 89 	movb   $0x89,-0x1b4(%rbp)
    78c5:	c6 85 4d fe ff ff 01 	movb   $0x1,-0x1b3(%rbp)
    78cc:	c6 85 4e fe ff ff 89 	movb   $0x89,-0x1b2(%rbp)
    78d3:	c6 85 4f fe ff ff 01 	movb   $0x1,-0x1b1(%rbp)
    78da:	c7 85 f4 fd ff ff 35 	movl   $0xeb725935,-0x20c(%rbp)
    78e1:	59 72 eb 
    78e4:	48 8d 05 45 34 01 00 	lea    0x13445(%rip),%rax        # 1ad30 <g_530>
    78eb:	48 89 85 28 fe ff ff 	mov    %rax,-0x1d8(%rbp)
    78f2:	48 8d 05 a9 19 01 00 	lea    0x119a9(%rip),%rax        # 192a2 <g_518+0x142>
    78f9:	48 89 85 30 fe ff ff 	mov    %rax,-0x1d0(%rbp)
    7900:	c7 85 e8 fd ff ff 00 	movl   $0x0,-0x218(%rbp)
    7907:	00 00 00 
    790a:	eb 49                	jmp    7955 <func_9+0x1a8>
    790c:	c7 85 ec fd ff ff 00 	movl   $0x0,-0x214(%rbp)
    7913:	00 00 00 
    7916:	eb 2d                	jmp    7945 <func_9+0x198>
    7918:	8b 85 ec fd ff ff    	mov    -0x214(%rbp),%eax
    791e:	48 98                	cltq   
    7920:	8b 95 e8 fd ff ff    	mov    -0x218(%rbp),%edx
    7926:	48 63 d2             	movslq %edx,%rdx
    7929:	48 01 d2             	add    %rdx,%rdx
    792c:	48 01 d0             	add    %rdx,%rax
    792f:	48 8d 15 12 47 01 00 	lea    0x14712(%rip),%rdx        # 1c048 <g_53>
    7936:	48 89 94 c5 60 fe ff 	mov    %rdx,-0x1a0(%rbp,%rax,8)
    793d:	ff 
    793e:	83 85 ec fd ff ff 01 	addl   $0x1,-0x214(%rbp)
    7945:	83 bd ec fd ff ff 01 	cmpl   $0x1,-0x214(%rbp)
    794c:	7e ca                	jle    7918 <func_9+0x16b>
    794e:	83 85 e8 fd ff ff 01 	addl   $0x1,-0x218(%rbp)
    7955:	83 bd e8 fd ff ff 08 	cmpl   $0x8,-0x218(%rbp)
    795c:	7e ae                	jle    790c <func_9+0x15f>
    795e:	c7 85 e8 fd ff ff 00 	movl   $0x0,-0x218(%rbp)
    7965:	00 00 00 
    7968:	eb 1b                	jmp    7985 <func_9+0x1d8>
    796a:	8b 85 e8 fd ff ff    	mov    -0x218(%rbp),%eax
    7970:	48 98                	cltq   
    7972:	48 c7 84 c5 50 fe ff 	movq   $0x1,-0x1b0(%rbp,%rax,8)
    7979:	ff 01 00 00 00 
    797e:	83 85 e8 fd ff ff 01 	addl   $0x1,-0x218(%rbp)
    7985:	83 bd e8 fd ff ff 01 	cmpl   $0x1,-0x218(%rbp)
    798c:	7e dc                	jle    796a <func_9+0x1bd>
    798e:	0f b6 85 48 fe ff ff 	movzbl -0x1b8(%rbp),%eax
    7995:	83 c0 01             	add    $0x1,%eax
    7998:	88 85 48 fe ff ff    	mov    %al,-0x1b8(%rbp)
    799e:	66 c7 05 69 17 01 00 	movw   $0x0,0x11769(%rip)        # 19110 <g_298>
    79a5:	00 00 
    79a7:	eb 5f                	jmp    7a08 <func_9+0x25b>
    79a9:	48 c7 85 38 fe ff ff 	movq   $0x1,-0x1c8(%rbp)
    79b0:	01 00 00 00 
    79b4:	8b 85 f4 fd ff ff    	mov    -0x20c(%rbp),%eax
    79ba:	48 63 d0             	movslq %eax,%rdx
    79bd:	48 8b 85 08 fe ff ff 	mov    -0x1f8(%rbp),%rax
    79c4:	8b 00                	mov    (%rax),%eax
    79c6:	48 98                	cltq   
    79c8:	48 89 d6             	mov    %rdx,%rsi
    79cb:	48 89 c7             	mov    %rax,%rdi
    79ce:	e8 ad e6 ff ff       	callq  6080 <safe_mod_func_uint64_t_u_u>
    79d3:	48 89 85 38 fe ff ff 	mov    %rax,-0x1c8(%rbp)
    79da:	48 8b 05 e7 3a 01 00 	mov    0x13ae7(%rip),%rax        # 1b4c8 <g_1978>
    79e1:	48 c7 00 00 00 00 00 	movq   $0x0,(%rax)
    79e8:	0f b7 05 21 17 01 00 	movzwl 0x11721(%rip),%eax        # 19110 <g_298>
    79ef:	0f b6 c0             	movzbl %al,%eax
    79f2:	be 07 00 00 00       	mov    $0x7,%esi
    79f7:	89 c7                	mov    %eax,%edi
    79f9:	e8 5c e1 ff ff       	callq  5b5a <safe_add_func_uint8_t_u_u>
    79fe:	0f b6 c0             	movzbl %al,%eax
    7a01:	66 89 05 08 17 01 00 	mov    %ax,0x11708(%rip)        # 19110 <g_298>
    7a08:	0f b7 05 01 17 01 00 	movzwl 0x11701(%rip),%eax        # 19110 <g_298>
    7a0f:	66 83 f8 03          	cmp    $0x3,%ax
    7a13:	7e 94                	jle    79a9 <func_9+0x1fc>
    7a15:	48 8b 85 c0 fd ff ff 	mov    -0x240(%rbp),%rax
    7a1c:	48 8b 00             	mov    (%rax),%rax
    7a1f:	0f b6 00             	movzbl (%rax),%eax
    7a22:	84 c0                	test   %al,%al
    7a24:	0f 84 89 00 00 00    	je     7ab3 <func_9+0x306>
    7a2a:	80 bd dc fd ff ff 08 	cmpb   $0x8,-0x224(%rbp)
    7a31:	0f 9e c0             	setle  %al
    7a34:	0f b6 d0             	movzbl %al,%edx
    7a37:	48 8b 85 20 fe ff ff 	mov    -0x1e0(%rbp),%rax
    7a3e:	8b 00                	mov    (%rax),%eax
    7a40:	89 c1                	mov    %eax,%ecx
    7a42:	48 8b 85 30 fe ff ff 	mov    -0x1d0(%rbp),%rax
    7a49:	66 89 08             	mov    %cx,(%rax)
    7a4c:	48 8b 85 28 fe ff ff 	mov    -0x1d8(%rbp),%rax
    7a53:	48 8b 00             	mov    (%rax),%rax
    7a56:	48 8b 08             	mov    (%rax),%rcx
    7a59:	48 8d 05 f0 45 01 00 	lea    0x145f0(%rip),%rax        # 1c050 <g_369>
    7a60:	48 8b 00             	mov    (%rax),%rax
    7a63:	48 39 c1             	cmp    %rax,%rcx
    7a66:	0f 94 c0             	sete   %al
    7a69:	0f b6 c0             	movzbl %al,%eax
    7a6c:	89 d6                	mov    %edx,%esi
    7a6e:	89 c7                	mov    %eax,%edi
    7a70:	e8 c0 d8 ff ff       	callq  5335 <safe_rshift_func_int8_t_s_s>
    7a75:	80 bd dc fd ff ff 00 	cmpb   $0x0,-0x224(%rbp)
    7a7c:	48 83 bd 28 fe ff ff 	cmpq   $0x0,-0x1d8(%rbp)
    7a83:	00 
    7a84:	0f 94 c0             	sete   %al
    7a87:	0f b6 d0             	movzbl %al,%edx
    7a8a:	48 8b 85 18 fe ff ff 	mov    -0x1e8(%rbp),%rax
    7a91:	8b 00                	mov    (%rax),%eax
    7a93:	0f be c0             	movsbl %al,%eax
    7a96:	89 d6                	mov    %edx,%esi
    7a98:	89 c7                	mov    %eax,%edi
    7a9a:	e8 73 d7 ff ff       	callq  5212 <safe_mul_func_int8_t_s_s>
    7a9f:	48 0f be c0          	movsbq %al,%rax
    7aa3:	48 39 85 d0 fd ff ff 	cmp    %rax,-0x230(%rbp)
    7aaa:	74 07                	je     7ab3 <func_9+0x306>
    7aac:	ba 01 00 00 00       	mov    $0x1,%edx
    7ab1:	eb 05                	jmp    7ab8 <func_9+0x30b>
    7ab3:	ba 00 00 00 00       	mov    $0x0,%edx
    7ab8:	48 8b 85 10 fe ff ff 	mov    -0x1f0(%rbp),%rax
    7abf:	8b 00                	mov    (%rax),%eax
    7ac1:	09 c2                	or     %eax,%edx
    7ac3:	48 8b 85 10 fe ff ff 	mov    -0x1f0(%rbp),%rax
    7aca:	89 10                	mov    %edx,(%rax)
    7acc:	0f be 85 dc fd ff ff 	movsbl -0x224(%rbp),%eax
    7ad3:	48 8b 75 f8          	mov    -0x8(%rbp),%rsi
    7ad7:	64 48 33 34 25 28 00 	xor    %fs:0x28,%rsi
    7ade:	00 00 
    7ae0:	74 05                	je     7ae7 <func_9+0x33a>
    7ae2:	e8 89 d5 ff ff       	callq  5070 <__stack_chk_fail@plt>
    7ae7:	c9                   	leaveq 
    7ae8:	c3                   	retq   

0000000000007ae9 <func_15>:
    7ae9:	f3 0f 1e fa          	endbr64 
    7aed:	55                   	push   %rbp
    7aee:	48 89 e5             	mov    %rsp,%rbp
    7af1:	48 81 ec 60 02 00 00 	sub    $0x260,%rsp
    7af8:	48 89 bd a8 fd ff ff 	mov    %rdi,-0x258(%rbp)
    7aff:	48 89 b5 a0 fd ff ff 	mov    %rsi,-0x260(%rbp)
    7b06:	64 48 8b 04 25 28 00 	mov    %fs:0x28,%rax
    7b0d:	00 00 
    7b0f:	48 89 45 f8          	mov    %rax,-0x8(%rbp)
    7b13:	31 c0                	xor    %eax,%eax
    7b15:	48 8d 05 04 16 01 00 	lea    0x11604(%rip),%rax        # 19120 <g_371>
    7b1c:	48 89 85 d0 fd ff ff 	mov    %rax,-0x230(%rbp)
    7b23:	48 8d 85 a0 fe ff ff 	lea    -0x160(%rbp),%rax
    7b2a:	48 8d 15 ef 21 01 00 	lea    0x121ef(%rip),%rdx        # 19d20 <g_2930+0x10>
    7b31:	b9 2a 00 00 00       	mov    $0x2a,%ecx
    7b36:	48 89 c7             	mov    %rax,%rdi
    7b39:	48 89 d6             	mov    %rdx,%rsi
    7b3c:	f3 48 a5             	rep movsq %ds:(%rsi),%es:(%rdi)
    7b3f:	48 8d 85 a0 fe ff ff 	lea    -0x160(%rbp),%rax
    7b46:	48 05 40 01 00 00    	add    $0x140,%rax
    7b4c:	48 89 85 c0 fd ff ff 	mov    %rax,-0x240(%rbp)
    7b53:	48 c7 85 d8 fd ff ff 	movq   $0x0,-0x228(%rbp)
    7b5a:	00 00 00 00 
    7b5e:	48 b8 ed ec d6 17 3c 	movabs $0x22307a3c17d6eced,%rax
    7b65:	7a 30 22 
    7b68:	48 89 85 e0 fd ff ff 	mov    %rax,-0x220(%rbp)
    7b6f:	c6 85 b6 fd ff ff 79 	movb   $0x79,-0x24a(%rbp)
    7b76:	48 8d 05 5b 33 01 00 	lea    0x1335b(%rip),%rax        # 1aed8 <g_766>
    7b7d:	48 89 85 e8 fd ff ff 	mov    %rax,-0x218(%rbp)
    7b84:	48 8d 85 c0 fd ff ff 	lea    -0x240(%rbp),%rax
    7b8b:	48 89 85 c8 fd ff ff 	mov    %rax,-0x238(%rbp)
    7b92:	48 8d 85 c8 fd ff ff 	lea    -0x238(%rbp),%rax
    7b99:	48 89 85 f0 fd ff ff 	mov    %rax,-0x210(%rbp)
    7ba0:	48 c7 85 f8 fd ff ff 	movq   $0x0,-0x208(%rbp)
    7ba7:	00 00 00 00 
    7bab:	48 b8 ba b8 90 7f 59 	movabs $0x5a8e8f597f90b8ba,%rax
    7bb2:	8f 8e 5a 
    7bb5:	48 89 85 00 fe ff ff 	mov    %rax,-0x200(%rbp)
    7bbc:	48 8d 05 8d 44 01 00 	lea    0x1448d(%rip),%rax        # 1c050 <g_369>
    7bc3:	48 89 85 08 fe ff ff 	mov    %rax,-0x1f8(%rbp)
    7bca:	48 8d 05 6f 33 01 00 	lea    0x1336f(%rip),%rax        # 1af40 <g_810>
    7bd1:	48 89 85 10 fe ff ff 	mov    %rax,-0x1f0(%rbp)
    7bd8:	c6 85 b7 fd ff ff 0e 	movb   $0xe,-0x249(%rbp)
    7bdf:	48 c7 05 6e 1f 01 00 	movq   $0xfffffffffffffff8,0x11f6e(%rip)        # 19b58 <g_1319>
    7be6:	f8 ff ff ff 
    7bea:	e9 d0 01 00 00       	jmpq   7dbf <func_15+0x2d6>
    7bef:	c7 85 bc fd ff ff f9 	movl   $0xfffffff9,-0x244(%rbp)
    7bf6:	ff ff ff 
    7bf9:	48 c7 85 18 fe ff ff 	movq   $0x0,-0x1e8(%rbp)
    7c00:	00 00 00 00 
    7c04:	c7 85 b8 fd ff ff 01 	movl   $0x1,-0x248(%rbp)
    7c0b:	00 00 00 
    7c0e:	48 8d 05 c3 32 01 00 	lea    0x132c3(%rip),%rax        # 1aed8 <g_766>
    7c15:	48 89 85 20 fe ff ff 	mov    %rax,-0x1e0(%rbp)
    7c1c:	48 8d 85 b6 fd ff ff 	lea    -0x24a(%rbp),%rax
    7c23:	48 89 85 28 fe ff ff 	mov    %rax,-0x1d8(%rbp)
    7c2a:	48 8d 05 df 1f 01 00 	lea    0x11fdf(%rip),%rax        # 19c10 <g_1728>
    7c31:	48 89 85 30 fe ff ff 	mov    %rax,-0x1d0(%rbp)
    7c38:	66 c7 85 50 fe ff ff 	movw   $0x1,-0x1b0(%rbp)
    7c3f:	01 00 
    7c41:	66 c7 85 52 fe ff ff 	movw   $0x1c5c,-0x1ae(%rbp)
    7c48:	5c 1c 
    7c4a:	66 c7 85 54 fe ff ff 	movw   $0x3ecf,-0x1ac(%rbp)
    7c51:	cf 3e 
    7c53:	66 c7 85 56 fe ff ff 	movw   $0x0,-0x1aa(%rbp)
    7c5a:	00 00 
    7c5c:	66 c7 85 58 fe ff ff 	movw   $0xab26,-0x1a8(%rbp)
    7c63:	26 ab 
    7c65:	66 c7 85 5a fe ff ff 	movw   $0x0,-0x1a6(%rbp)
    7c6c:	00 00 
    7c6e:	66 c7 85 5c fe ff ff 	movw   $0x3ecf,-0x1a4(%rbp)
    7c75:	cf 3e 
    7c77:	66 c7 85 5e fe ff ff 	movw   $0x1c5c,-0x1a2(%rbp)
    7c7e:	5c 1c 
    7c80:	66 c7 85 60 fe ff ff 	movw   $0x1,-0x1a0(%rbp)
    7c87:	01 00 
    7c89:	66 c7 85 62 fe ff ff 	movw   $0xebbf,-0x19e(%rbp)
    7c90:	bf eb 
    7c92:	66 c7 85 64 fe ff ff 	movw   $0x0,-0x19c(%rbp)
    7c99:	00 00 
    7c9b:	66 c7 85 66 fe ff ff 	movw   $0x1,-0x19a(%rbp)
    7ca2:	01 00 
    7ca4:	66 c7 85 68 fe ff ff 	movw   $0xab26,-0x198(%rbp)
    7cab:	26 ab 
    7cad:	66 c7 85 6a fe ff ff 	movw   $0x0,-0x196(%rbp)
    7cb4:	00 00 
    7cb6:	66 c7 85 6c fe ff ff 	movw   $0xe08b,-0x194(%rbp)
    7cbd:	8b e0 
    7cbf:	66 c7 85 6e fe ff ff 	movw   $0x0,-0x192(%rbp)
    7cc6:	00 00 
    7cc8:	66 c7 85 70 fe ff ff 	movw   $0xab26,-0x190(%rbp)
    7ccf:	26 ab 
    7cd1:	66 c7 85 72 fe ff ff 	movw   $0x1,-0x18e(%rbp)
    7cd8:	01 00 
    7cda:	66 c7 85 74 fe ff ff 	movw   $0x0,-0x18c(%rbp)
    7ce1:	00 00 
    7ce3:	66 c7 85 76 fe ff ff 	movw   $0x0,-0x18a(%rbp)
    7cea:	00 00 
    7cec:	66 c7 85 78 fe ff ff 	movw   $0xebbf,-0x188(%rbp)
    7cf3:	bf eb 
    7cf5:	66 c7 85 7a fe ff ff 	movw   $0x9,-0x186(%rbp)
    7cfc:	09 00 
    7cfe:	66 c7 85 7c fe ff ff 	movw   $0x1c5c,-0x184(%rbp)
    7d05:	5c 1c 
    7d07:	66 c7 85 7e fe ff ff 	movw   $0x0,-0x182(%rbp)
    7d0e:	00 00 
    7d10:	66 c7 85 80 fe ff ff 	movw   $0x1,-0x180(%rbp)
    7d17:	01 00 
    7d19:	66 c7 85 82 fe ff ff 	movw   $0x0,-0x17e(%rbp)
    7d20:	00 00 
    7d22:	66 c7 85 84 fe ff ff 	movw   $0x1c5c,-0x17c(%rbp)
    7d29:	5c 1c 
    7d2b:	66 c7 85 86 fe ff ff 	movw   $0xebbf,-0x17a(%rbp)
    7d32:	bf eb 
    7d34:	66 c7 85 88 fe ff ff 	movw   $0x0,-0x178(%rbp)
    7d3b:	00 00 
    7d3d:	66 c7 85 8a fe ff ff 	movw   $0x0,-0x176(%rbp)
    7d44:	00 00 
    7d46:	66 c7 85 8c fe ff ff 	movw   $0xebbf,-0x174(%rbp)
    7d4d:	bf eb 
    7d4f:	66 c7 85 8e fe ff ff 	movw   $0x9,-0x172(%rbp)
    7d56:	09 00 
    7d58:	66 c7 85 90 fe ff ff 	movw   $0x1c5c,-0x170(%rbp)
    7d5f:	5c 1c 
    7d61:	66 c7 85 92 fe ff ff 	movw   $0x0,-0x16e(%rbp)
    7d68:	00 00 
    7d6a:	66 c7 85 94 fe ff ff 	movw   $0x1,-0x16c(%rbp)
    7d71:	01 00 
    7d73:	66 c7 85 96 fe ff ff 	movw   $0x0,-0x16a(%rbp)
    7d7a:	00 00 
    7d7c:	48 8d 85 b8 fd ff ff 	lea    -0x248(%rbp),%rax
    7d83:	48 89 85 38 fe ff ff 	mov    %rax,-0x1c8(%rbp)
    7d8a:	48 c7 85 40 fe ff ff 	movq   $0x0,-0x1c0(%rbp)
    7d91:	00 00 00 00 
    7d95:	48 8d 05 c8 c2 00 00 	lea    0xc2c8(%rip),%rax        # 14064 <g_2385>
    7d9c:	48 89 85 48 fe ff ff 	mov    %rax,-0x1b8(%rbp)
    7da3:	48 8b 05 ae 1d 01 00 	mov    0x11dae(%rip),%rax        # 19b58 <g_1319>
    7daa:	be 01 00 00 00       	mov    $0x1,%esi
    7daf:	89 c7                	mov    %eax,%edi
    7db1:	e8 02 e1 ff ff       	callq  5eb8 <safe_add_func_uint32_t_u_u>
    7db6:	89 c0                	mov    %eax,%eax
    7db8:	48 89 05 99 1d 01 00 	mov    %rax,0x11d99(%rip)        # 19b58 <g_1319>
    7dbf:	48 8b 05 92 1d 01 00 	mov    0x11d92(%rip),%rax        # 19b58 <g_1319>
    7dc6:	48 83 f8 fd          	cmp    $0xfffffffffffffffd,%rax
    7dca:	0f 84 1f fe ff ff    	je     7bef <func_15+0x106>
    7dd0:	0f b6 85 b7 fd ff ff 	movzbl -0x249(%rbp),%eax
    7dd7:	48 8b 55 f8          	mov    -0x8(%rbp),%rdx
    7ddb:	64 48 33 14 25 28 00 	xor    %fs:0x28,%rdx
    7de2:	00 00 
    7de4:	74 05                	je     7deb <func_15+0x302>
    7de6:	e8 85 d2 ff ff       	callq  5070 <__stack_chk_fail@plt>
    7deb:	c9                   	leaveq 
    7dec:	c3                   	retq   

0000000000007ded <func_18>:
    7ded:	f3 0f 1e fa          	endbr64 
    7df1:	55                   	push   %rbp
    7df2:	48 89 e5             	mov    %rsp,%rbp
    7df5:	48 81 ec 30 05 00 00 	sub    $0x530,%rsp
    7dfc:	89 bd dc fa ff ff    	mov    %edi,-0x524(%rbp)
    7e02:	89 f0                	mov    %esi,%eax
    7e04:	88 85 d8 fa ff ff    	mov    %al,-0x528(%rbp)
    7e0a:	64 48 8b 04 25 28 00 	mov    %fs:0x28,%rax
    7e11:	00 00 
    7e13:	48 89 45 f8          	mov    %rax,-0x8(%rbp)
    7e17:	31 c0                	xor    %eax,%eax
    7e19:	48 c7 85 f0 fa ff ff 	movq   $0x0,-0x510(%rbp)
    7e20:	00 00 00 00 
    7e24:	48 c7 85 f8 fa ff ff 	movq   $0x0,-0x508(%rbp)
    7e2b:	00 00 00 00 
    7e2f:	48 c7 85 00 fb ff ff 	movq   $0x0,-0x500(%rbp)
    7e36:	00 00 00 00 
    7e3a:	48 c7 85 08 fb ff ff 	movq   $0x0,-0x4f8(%rbp)
    7e41:	00 00 00 00 
    7e45:	48 c7 85 10 fb ff ff 	movq   $0x0,-0x4f0(%rbp)
    7e4c:	00 00 00 00 
    7e50:	48 c7 85 18 fb ff ff 	movq   $0x0,-0x4e8(%rbp)
    7e57:	00 00 00 00 
    7e5b:	48 c7 85 20 fb ff ff 	movq   $0x0,-0x4e0(%rbp)
    7e62:	00 00 00 00 
    7e66:	48 c7 85 28 fb ff ff 	movq   $0x0,-0x4d8(%rbp)
    7e6d:	00 00 00 00 
    7e71:	48 c7 85 30 fb ff ff 	movq   $0x0,-0x4d0(%rbp)
    7e78:	00 00 00 00 
    7e7c:	48 c7 85 40 fb ff ff 	movq   $0x0,-0x4c0(%rbp)
    7e83:	00 00 00 00 
    7e87:	48 8d 85 f0 fa ff ff 	lea    -0x510(%rbp),%rax
    7e8e:	48 83 c0 18          	add    $0x18,%rax
    7e92:	48 89 85 48 fb ff ff 	mov    %rax,-0x4b8(%rbp)
    7e99:	48 8d 85 f0 fa ff ff 	lea    -0x510(%rbp),%rax
    7ea0:	48 83 c0 18          	add    $0x18,%rax
    7ea4:	48 89 85 50 fb ff ff 	mov    %rax,-0x4b0(%rbp)
    7eab:	48 8d 85 f0 fa ff ff 	lea    -0x510(%rbp),%rax
    7eb2:	48 83 c0 18          	add    $0x18,%rax
    7eb6:	48 89 85 58 fb ff ff 	mov    %rax,-0x4a8(%rbp)
    7ebd:	48 8d 85 f0 fa ff ff 	lea    -0x510(%rbp),%rax
    7ec4:	48 83 c0 38          	add    $0x38,%rax
    7ec8:	48 89 85 60 fb ff ff 	mov    %rax,-0x4a0(%rbp)
    7ecf:	48 8d 85 f0 fa ff ff 	lea    -0x510(%rbp),%rax
    7ed6:	48 83 c0 18          	add    $0x18,%rax
    7eda:	48 89 85 68 fb ff ff 	mov    %rax,-0x498(%rbp)
    7ee1:	48 8d 85 f0 fa ff ff 	lea    -0x510(%rbp),%rax
    7ee8:	48 83 c0 18          	add    $0x18,%rax
    7eec:	48 89 85 70 fb ff ff 	mov    %rax,-0x490(%rbp)
    7ef3:	48 c7 85 78 fb ff ff 	movq   $0x0,-0x488(%rbp)
    7efa:	00 00 00 00 
    7efe:	48 c7 85 80 fb ff ff 	movq   $0x0,-0x480(%rbp)
    7f05:	00 00 00 00 
    7f09:	48 8d 85 f0 fa ff ff 	lea    -0x510(%rbp),%rax
    7f10:	48 83 c0 18          	add    $0x18,%rax
    7f14:	48 89 85 88 fb ff ff 	mov    %rax,-0x478(%rbp)
    7f1b:	48 8d 85 f0 fa ff ff 	lea    -0x510(%rbp),%rax
    7f22:	48 83 c0 08          	add    $0x8,%rax
    7f26:	48 89 85 90 fb ff ff 	mov    %rax,-0x470(%rbp)
    7f2d:	48 c7 85 98 fb ff ff 	movq   $0x0,-0x468(%rbp)
    7f34:	00 00 00 00 
    7f38:	48 c7 85 a0 fb ff ff 	movq   $0x0,-0x460(%rbp)
    7f3f:	00 00 00 00 
    7f43:	48 8d 85 f0 fa ff ff 	lea    -0x510(%rbp),%rax
    7f4a:	48 83 c0 18          	add    $0x18,%rax
    7f4e:	48 89 85 a8 fb ff ff 	mov    %rax,-0x458(%rbp)
    7f55:	48 8d 85 f0 fa ff ff 	lea    -0x510(%rbp),%rax
    7f5c:	48 83 c0 18          	add    $0x18,%rax
    7f60:	48 89 85 b0 fb ff ff 	mov    %rax,-0x450(%rbp)
    7f67:	48 8d 85 f0 fa ff ff 	lea    -0x510(%rbp),%rax
    7f6e:	48 83 c0 18          	add    $0x18,%rax
    7f72:	48 89 85 b8 fb ff ff 	mov    %rax,-0x448(%rbp)
    7f79:	48 8d 85 f0 fa ff ff 	lea    -0x510(%rbp),%rax
    7f80:	48 83 c0 08          	add    $0x8,%rax
    7f84:	48 89 85 c0 fb ff ff 	mov    %rax,-0x440(%rbp)
    7f8b:	48 8d 85 f0 fa ff ff 	lea    -0x510(%rbp),%rax
    7f92:	48 83 c0 28          	add    $0x28,%rax
    7f96:	48 89 85 c8 fb ff ff 	mov    %rax,-0x438(%rbp)
    7f9d:	48 8d 85 f0 fa ff ff 	lea    -0x510(%rbp),%rax
    7fa4:	48 83 c0 18          	add    $0x18,%rax
    7fa8:	48 89 85 d0 fb ff ff 	mov    %rax,-0x430(%rbp)
    7faf:	48 8d 85 f0 fa ff ff 	lea    -0x510(%rbp),%rax
    7fb6:	48 83 c0 18          	add    $0x18,%rax
    7fba:	48 89 85 d8 fb ff ff 	mov    %rax,-0x428(%rbp)
    7fc1:	48 8d 85 f0 fa ff ff 	lea    -0x510(%rbp),%rax
    7fc8:	48 83 c0 18          	add    $0x18,%rax
    7fcc:	48 89 85 e0 fb ff ff 	mov    %rax,-0x420(%rbp)
    7fd3:	48 8d 85 f0 fa ff ff 	lea    -0x510(%rbp),%rax
    7fda:	48 83 c0 18          	add    $0x18,%rax
    7fde:	48 89 85 e8 fb ff ff 	mov    %rax,-0x418(%rbp)
    7fe5:	48 c7 85 f0 fb ff ff 	movq   $0x0,-0x410(%rbp)
    7fec:	00 00 00 00 
    7ff0:	48 8d 85 f0 fa ff ff 	lea    -0x510(%rbp),%rax
    7ff7:	48 83 c0 18          	add    $0x18,%rax
    7ffb:	48 89 85 f8 fb ff ff 	mov    %rax,-0x408(%rbp)
    8002:	48 8d 85 f0 fa ff ff 	lea    -0x510(%rbp),%rax
    8009:	48 83 c0 40          	add    $0x40,%rax
    800d:	48 89 85 00 fc ff ff 	mov    %rax,-0x400(%rbp)
    8014:	48 8d 85 f0 fa ff ff 	lea    -0x510(%rbp),%rax
    801b:	48 83 c0 40          	add    $0x40,%rax
    801f:	48 89 85 08 fc ff ff 	mov    %rax,-0x3f8(%rbp)
    8026:	48 8d 85 f0 fa ff ff 	lea    -0x510(%rbp),%rax
    802d:	48 83 c0 18          	add    $0x18,%rax
    8031:	48 89 85 10 fc ff ff 	mov    %rax,-0x3f0(%rbp)
    8038:	48 c7 85 18 fc ff ff 	movq   $0x0,-0x3e8(%rbp)
    803f:	00 00 00 00 
    8043:	48 8d 85 f0 fa ff ff 	lea    -0x510(%rbp),%rax
    804a:	48 83 c0 18          	add    $0x18,%rax
    804e:	48 89 85 20 fc ff ff 	mov    %rax,-0x3e0(%rbp)
    8055:	48 8d 85 f0 fa ff ff 	lea    -0x510(%rbp),%rax
    805c:	48 83 c0 18          	add    $0x18,%rax
    8060:	48 89 85 28 fc ff ff 	mov    %rax,-0x3d8(%rbp)
    8067:	48 8d 85 f0 fa ff ff 	lea    -0x510(%rbp),%rax
    806e:	48 83 c0 30          	add    $0x30,%rax
    8072:	48 89 85 30 fc ff ff 	mov    %rax,-0x3d0(%rbp)
    8079:	48 8d 85 f0 fa ff ff 	lea    -0x510(%rbp),%rax
    8080:	48 83 c0 10          	add    $0x10,%rax
    8084:	48 89 85 38 fc ff ff 	mov    %rax,-0x3c8(%rbp)
    808b:	48 c7 85 40 fc ff ff 	movq   $0x0,-0x3c0(%rbp)
    8092:	00 00 00 00 
    8096:	48 8d 85 f0 fa ff ff 	lea    -0x510(%rbp),%rax
    809d:	48 83 c0 18          	add    $0x18,%rax
    80a1:	48 89 85 48 fc ff ff 	mov    %rax,-0x3b8(%rbp)
    80a8:	48 8d 85 f0 fa ff ff 	lea    -0x510(%rbp),%rax
    80af:	48 83 c0 20          	add    $0x20,%rax
    80b3:	48 89 85 50 fc ff ff 	mov    %rax,-0x3b0(%rbp)
    80ba:	48 8d 85 f0 fa ff ff 	lea    -0x510(%rbp),%rax
    80c1:	48 83 c0 18          	add    $0x18,%rax
    80c5:	48 89 85 58 fc ff ff 	mov    %rax,-0x3a8(%rbp)
    80cc:	48 8d 85 f0 fa ff ff 	lea    -0x510(%rbp),%rax
    80d3:	48 83 c0 18          	add    $0x18,%rax
    80d7:	48 89 85 60 fc ff ff 	mov    %rax,-0x3a0(%rbp)
    80de:	48 8d 85 f0 fa ff ff 	lea    -0x510(%rbp),%rax
    80e5:	48 83 c0 18          	add    $0x18,%rax
    80e9:	48 89 85 68 fc ff ff 	mov    %rax,-0x398(%rbp)
    80f0:	48 8d 85 f0 fa ff ff 	lea    -0x510(%rbp),%rax
    80f7:	48 83 c0 30          	add    $0x30,%rax
    80fb:	48 89 85 70 fc ff ff 	mov    %rax,-0x390(%rbp)
    8102:	48 8d 85 f0 fa ff ff 	lea    -0x510(%rbp),%rax
    8109:	48 83 c0 18          	add    $0x18,%rax
    810d:	48 89 85 78 fc ff ff 	mov    %rax,-0x388(%rbp)
    8114:	48 8d 85 f0 fa ff ff 	lea    -0x510(%rbp),%rax
    811b:	48 83 c0 20          	add    $0x20,%rax
    811f:	48 89 85 80 fc ff ff 	mov    %rax,-0x380(%rbp)
    8126:	48 c7 85 88 fc ff ff 	movq   $0x0,-0x378(%rbp)
    812d:	00 00 00 00 
    8131:	48 8d 85 f0 fa ff ff 	lea    -0x510(%rbp),%rax
    8138:	48 83 c0 18          	add    $0x18,%rax
    813c:	48 89 85 90 fc ff ff 	mov    %rax,-0x370(%rbp)
    8143:	48 8d 85 f0 fa ff ff 	lea    -0x510(%rbp),%rax
    814a:	48 89 85 98 fc ff ff 	mov    %rax,-0x368(%rbp)
    8151:	48 8d 85 f0 fa ff ff 	lea    -0x510(%rbp),%rax
    8158:	48 83 c0 20          	add    $0x20,%rax
    815c:	48 89 85 a0 fc ff ff 	mov    %rax,-0x360(%rbp)
    8163:	48 8d 85 f0 fa ff ff 	lea    -0x510(%rbp),%rax
    816a:	48 83 c0 18          	add    $0x18,%rax
    816e:	48 89 85 a8 fc ff ff 	mov    %rax,-0x358(%rbp)
    8175:	48 8d 85 f0 fa ff ff 	lea    -0x510(%rbp),%rax
    817c:	48 83 c0 20          	add    $0x20,%rax
    8180:	48 89 85 b0 fc ff ff 	mov    %rax,-0x350(%rbp)
    8187:	48 c7 85 b8 fc ff ff 	movq   $0x0,-0x348(%rbp)
    818e:	00 00 00 00 
    8192:	48 8d 85 f0 fa ff ff 	lea    -0x510(%rbp),%rax
    8199:	48 83 c0 18          	add    $0x18,%rax
    819d:	48 89 85 c0 fc ff ff 	mov    %rax,-0x340(%rbp)
    81a4:	48 8d 85 f0 fa ff ff 	lea    -0x510(%rbp),%rax
    81ab:	48 83 c0 18          	add    $0x18,%rax
    81af:	48 89 85 c8 fc ff ff 	mov    %rax,-0x338(%rbp)
    81b6:	48 8d 85 f0 fa ff ff 	lea    -0x510(%rbp),%rax
    81bd:	48 83 c0 20          	add    $0x20,%rax
    81c1:	48 89 85 d0 fc ff ff 	mov    %rax,-0x330(%rbp)
    81c8:	48 8d 85 f0 fa ff ff 	lea    -0x510(%rbp),%rax
    81cf:	48 83 c0 18          	add    $0x18,%rax
    81d3:	48 89 85 d8 fc ff ff 	mov    %rax,-0x328(%rbp)
    81da:	48 c7 85 e0 fc ff ff 	movq   $0x0,-0x320(%rbp)
    81e1:	00 00 00 00 
    81e5:	48 8d 85 f0 fa ff ff 	lea    -0x510(%rbp),%rax
    81ec:	48 83 c0 10          	add    $0x10,%rax
    81f0:	48 89 85 e8 fc ff ff 	mov    %rax,-0x318(%rbp)
    81f7:	48 8d 85 f0 fa ff ff 	lea    -0x510(%rbp),%rax
    81fe:	48 89 85 f0 fc ff ff 	mov    %rax,-0x310(%rbp)
    8205:	48 8d 85 f0 fa ff ff 	lea    -0x510(%rbp),%rax
    820c:	48 83 c0 38          	add    $0x38,%rax
    8210:	48 89 85 f8 fc ff ff 	mov    %rax,-0x308(%rbp)
    8217:	48 8d 85 f0 fa ff ff 	lea    -0x510(%rbp),%rax
    821e:	48 83 c0 18          	add    $0x18,%rax
    8222:	48 89 85 00 fd ff ff 	mov    %rax,-0x300(%rbp)
    8229:	48 8d 85 f0 fa ff ff 	lea    -0x510(%rbp),%rax
    8230:	48 83 c0 18          	add    $0x18,%rax
    8234:	48 89 85 08 fd ff ff 	mov    %rax,-0x2f8(%rbp)
    823b:	48 8d 85 f0 fa ff ff 	lea    -0x510(%rbp),%rax
    8242:	48 83 c0 38          	add    $0x38,%rax
    8246:	48 89 85 10 fd ff ff 	mov    %rax,-0x2f0(%rbp)
    824d:	48 c7 85 18 fd ff ff 	movq   $0x0,-0x2e8(%rbp)
    8254:	00 00 00 00 
    8258:	48 8d 85 f0 fa ff ff 	lea    -0x510(%rbp),%rax
    825f:	48 83 c0 18          	add    $0x18,%rax
    8263:	48 89 85 20 fd ff ff 	mov    %rax,-0x2e0(%rbp)
    826a:	48 c7 85 28 fd ff ff 	movq   $0x0,-0x2d8(%rbp)
    8271:	00 00 00 00 
    8275:	48 8d 85 f0 fa ff ff 	lea    -0x510(%rbp),%rax
    827c:	48 83 c0 18          	add    $0x18,%rax
    8280:	48 89 85 30 fd ff ff 	mov    %rax,-0x2d0(%rbp)
    8287:	48 8d 85 f0 fa ff ff 	lea    -0x510(%rbp),%rax
    828e:	48 83 c0 18          	add    $0x18,%rax
    8292:	48 89 85 38 fd ff ff 	mov    %rax,-0x2c8(%rbp)
    8299:	48 8d 85 f0 fa ff ff 	lea    -0x510(%rbp),%rax
    82a0:	48 83 c0 18          	add    $0x18,%rax
    82a4:	48 89 85 40 fd ff ff 	mov    %rax,-0x2c0(%rbp)
    82ab:	48 8d 85 f0 fa ff ff 	lea    -0x510(%rbp),%rax
    82b2:	48 83 c0 30          	add    $0x30,%rax
    82b6:	48 89 85 48 fd ff ff 	mov    %rax,-0x2b8(%rbp)
    82bd:	48 8d 85 f0 fa ff ff 	lea    -0x510(%rbp),%rax
    82c4:	48 83 c0 18          	add    $0x18,%rax
    82c8:	48 89 85 50 fd ff ff 	mov    %rax,-0x2b0(%rbp)
    82cf:	48 8d 85 f0 fa ff ff 	lea    -0x510(%rbp),%rax
    82d6:	48 83 c0 18          	add    $0x18,%rax
    82da:	48 89 85 58 fd ff ff 	mov    %rax,-0x2a8(%rbp)
    82e1:	48 8d 85 f0 fa ff ff 	lea    -0x510(%rbp),%rax
    82e8:	48 83 c0 18          	add    $0x18,%rax
    82ec:	48 89 85 60 fd ff ff 	mov    %rax,-0x2a0(%rbp)
    82f3:	48 8d 85 f0 fa ff ff 	lea    -0x510(%rbp),%rax
    82fa:	48 83 c0 18          	add    $0x18,%rax
    82fe:	48 89 85 68 fd ff ff 	mov    %rax,-0x298(%rbp)
    8305:	48 c7 85 70 fd ff ff 	movq   $0x0,-0x290(%rbp)
    830c:	00 00 00 00 
    8310:	48 c7 85 78 fd ff ff 	movq   $0x0,-0x288(%rbp)
    8317:	00 00 00 00 
    831b:	48 8d 85 f0 fa ff ff 	lea    -0x510(%rbp),%rax
    8322:	48 83 c0 28          	add    $0x28,%rax
    8326:	48 89 85 80 fd ff ff 	mov    %rax,-0x280(%rbp)
    832d:	48 8d 85 f0 fa ff ff 	lea    -0x510(%rbp),%rax
    8334:	48 83 c0 20          	add    $0x20,%rax
    8338:	48 89 85 88 fd ff ff 	mov    %rax,-0x278(%rbp)
    833f:	48 c7 85 90 fd ff ff 	movq   $0x0,-0x270(%rbp)
    8346:	00 00 00 00 
    834a:	48 8d 85 f0 fa ff ff 	lea    -0x510(%rbp),%rax
    8351:	48 83 c0 40          	add    $0x40,%rax
    8355:	48 89 85 98 fd ff ff 	mov    %rax,-0x268(%rbp)
    835c:	48 c7 85 a0 fd ff ff 	movq   $0x0,-0x260(%rbp)
    8363:	00 00 00 00 
    8367:	48 8d 85 f0 fa ff ff 	lea    -0x510(%rbp),%rax
    836e:	48 83 c0 20          	add    $0x20,%rax
    8372:	48 89 85 a8 fd ff ff 	mov    %rax,-0x258(%rbp)
    8379:	48 8d 85 f0 fa ff ff 	lea    -0x510(%rbp),%rax
    8380:	48 83 c0 28          	add    $0x28,%rax
    8384:	48 89 85 b0 fd ff ff 	mov    %rax,-0x250(%rbp)
    838b:	48 c7 85 b8 fd ff ff 	movq   $0x0,-0x248(%rbp)
    8392:	00 00 00 00 
    8396:	48 c7 85 c0 fd ff ff 	movq   $0x0,-0x240(%rbp)
    839d:	00 00 00 00 
    83a1:	48 8d 85 f0 fa ff ff 	lea    -0x510(%rbp),%rax
    83a8:	48 83 c0 08          	add    $0x8,%rax
    83ac:	48 89 85 c8 fd ff ff 	mov    %rax,-0x238(%rbp)
    83b3:	48 8d 85 f0 fa ff ff 	lea    -0x510(%rbp),%rax
    83ba:	48 83 c0 18          	add    $0x18,%rax
    83be:	48 89 85 d0 fd ff ff 	mov    %rax,-0x230(%rbp)
    83c5:	48 8d 85 f0 fa ff ff 	lea    -0x510(%rbp),%rax
    83cc:	48 83 c0 40          	add    $0x40,%rax
    83d0:	48 89 85 d8 fd ff ff 	mov    %rax,-0x228(%rbp)
    83d7:	48 8d 85 f0 fa ff ff 	lea    -0x510(%rbp),%rax
    83de:	48 83 c0 18          	add    $0x18,%rax
    83e2:	48 89 85 e0 fd ff ff 	mov    %rax,-0x220(%rbp)
    83e9:	48 c7 85 e8 fd ff ff 	movq   $0x0,-0x218(%rbp)
    83f0:	00 00 00 00 
    83f4:	48 8d 85 f0 fa ff ff 	lea    -0x510(%rbp),%rax
    83fb:	48 83 c0 20          	add    $0x20,%rax
    83ff:	48 89 85 f0 fd ff ff 	mov    %rax,-0x210(%rbp)
    8406:	48 8d 85 f0 fa ff ff 	lea    -0x510(%rbp),%rax
    840d:	48 83 c0 18          	add    $0x18,%rax
    8411:	48 89 85 f8 fd ff ff 	mov    %rax,-0x208(%rbp)
    8418:	48 8d 85 f0 fa ff ff 	lea    -0x510(%rbp),%rax
    841f:	48 83 c0 38          	add    $0x38,%rax
    8423:	48 89 85 00 fe ff ff 	mov    %rax,-0x200(%rbp)
    842a:	48 8d 85 f0 fa ff ff 	lea    -0x510(%rbp),%rax
    8431:	48 83 c0 18          	add    $0x18,%rax
    8435:	48 89 85 08 fe ff ff 	mov    %rax,-0x1f8(%rbp)
    843c:	48 8d 85 f0 fa ff ff 	lea    -0x510(%rbp),%rax
    8443:	48 83 c0 08          	add    $0x8,%rax
    8447:	48 89 85 10 fe ff ff 	mov    %rax,-0x1f0(%rbp)
    844e:	48 8d 85 f0 fa ff ff 	lea    -0x510(%rbp),%rax
    8455:	48 83 c0 18          	add    $0x18,%rax
    8459:	48 89 85 18 fe ff ff 	mov    %rax,-0x1e8(%rbp)
    8460:	48 c7 85 20 fe ff ff 	movq   $0x0,-0x1e0(%rbp)
    8467:	00 00 00 00 
    846b:	48 c7 85 28 fe ff ff 	movq   $0x0,-0x1d8(%rbp)
    8472:	00 00 00 00 
    8476:	48 8d 85 f0 fa ff ff 	lea    -0x510(%rbp),%rax
    847d:	48 83 c0 10          	add    $0x10,%rax
    8481:	48 89 85 30 fe ff ff 	mov    %rax,-0x1d0(%rbp)
    8488:	48 c7 85 38 fe ff ff 	movq   $0x0,-0x1c8(%rbp)
    848f:	00 00 00 00 
    8493:	48 8d 85 f0 fa ff ff 	lea    -0x510(%rbp),%rax
    849a:	48 83 c0 18          	add    $0x18,%rax
    849e:	48 89 85 40 fe ff ff 	mov    %rax,-0x1c0(%rbp)
    84a5:	48 8d 85 f0 fa ff ff 	lea    -0x510(%rbp),%rax
    84ac:	48 89 85 48 fe ff ff 	mov    %rax,-0x1b8(%rbp)
    84b3:	48 8d 85 f0 fa ff ff 	lea    -0x510(%rbp),%rax
    84ba:	48 83 c0 18          	add    $0x18,%rax
    84be:	48 89 85 50 fe ff ff 	mov    %rax,-0x1b0(%rbp)
    84c5:	48 8d 85 f0 fa ff ff 	lea    -0x510(%rbp),%rax
    84cc:	48 83 c0 30          	add    $0x30,%rax
    84d0:	48 89 85 58 fe ff ff 	mov    %rax,-0x1a8(%rbp)
    84d7:	48 c7 85 60 fe ff ff 	movq   $0x0,-0x1a0(%rbp)
    84de:	00 00 00 00 
    84e2:	48 8d 85 f0 fa ff ff 	lea    -0x510(%rbp),%rax
    84e9:	48 83 c0 18          	add    $0x18,%rax
    84ed:	48 89 85 68 fe ff ff 	mov    %rax,-0x198(%rbp)
    84f4:	48 8d 85 f0 fa ff ff 	lea    -0x510(%rbp),%rax
    84fb:	48 83 c0 10          	add    $0x10,%rax
    84ff:	48 89 85 70 fe ff ff 	mov    %rax,-0x190(%rbp)
    8506:	48 8d 85 f0 fa ff ff 	lea    -0x510(%rbp),%rax
    850d:	48 89 85 78 fe ff ff 	mov    %rax,-0x188(%rbp)
    8514:	48 8d 85 f0 fa ff ff 	lea    -0x510(%rbp),%rax
    851b:	48 83 c0 18          	add    $0x18,%rax
    851f:	48 89 85 80 fe ff ff 	mov    %rax,-0x180(%rbp)
    8526:	48 8d 85 f0 fa ff ff 	lea    -0x510(%rbp),%rax
    852d:	48 83 c0 40          	add    $0x40,%rax
    8531:	48 89 85 88 fe ff ff 	mov    %rax,-0x178(%rbp)
    8538:	48 8d 85 f0 fa ff ff 	lea    -0x510(%rbp),%rax
    853f:	48 83 c0 18          	add    $0x18,%rax
    8543:	48 89 85 90 fe ff ff 	mov    %rax,-0x170(%rbp)
    854a:	48 8d 85 f0 fa ff ff 	lea    -0x510(%rbp),%rax
    8551:	48 83 c0 20          	add    $0x20,%rax
    8555:	48 89 85 98 fe ff ff 	mov    %rax,-0x168(%rbp)
    855c:	48 8d 85 f0 fa ff ff 	lea    -0x510(%rbp),%rax
    8563:	48 83 c0 18          	add    $0x18,%rax
    8567:	48 89 85 a0 fe ff ff 	mov    %rax,-0x160(%rbp)
    856e:	48 8d 85 f0 fa ff ff 	lea    -0x510(%rbp),%rax
    8575:	48 83 c0 10          	add    $0x10,%rax
    8579:	48 89 85 a8 fe ff ff 	mov    %rax,-0x158(%rbp)
    8580:	48 c7 85 b0 fe ff ff 	movq   $0x0,-0x150(%rbp)
    8587:	00 00 00 00 
    858b:	48 8d 85 f0 fa ff ff 	lea    -0x510(%rbp),%rax
    8592:	48 83 c0 18          	add    $0x18,%rax
    8596:	48 89 85 b8 fe ff ff 	mov    %rax,-0x148(%rbp)
    859d:	48 8d 85 f0 fa ff ff 	lea    -0x510(%rbp),%rax
    85a4:	48 83 c0 18          	add    $0x18,%rax
    85a8:	48 89 85 c0 fe ff ff 	mov    %rax,-0x140(%rbp)
    85af:	48 8d 85 f0 fa ff ff 	lea    -0x510(%rbp),%rax
    85b6:	48 83 c0 18          	add    $0x18,%rax
    85ba:	48 89 85 c8 fe ff ff 	mov    %rax,-0x138(%rbp)
    85c1:	48 c7 85 d0 fe ff ff 	movq   $0x0,-0x130(%rbp)
    85c8:	00 00 00 00 
    85cc:	48 8d 85 f0 fa ff ff 	lea    -0x510(%rbp),%rax
    85d3:	48 83 c0 30          	add    $0x30,%rax
    85d7:	48 89 85 d8 fe ff ff 	mov    %rax,-0x128(%rbp)
    85de:	48 8d 85 f0 fa ff ff 	lea    -0x510(%rbp),%rax
    85e5:	48 83 c0 40          	add    $0x40,%rax
    85e9:	48 89 85 e0 fe ff ff 	mov    %rax,-0x120(%rbp)
    85f0:	48 8d 85 f0 fa ff ff 	lea    -0x510(%rbp),%rax
    85f7:	48 83 c0 08          	add    $0x8,%rax
    85fb:	48 89 85 e8 fe ff ff 	mov    %rax,-0x118(%rbp)
    8602:	48 8d 85 f0 fa ff ff 	lea    -0x510(%rbp),%rax
    8609:	48 83 c0 18          	add    $0x18,%rax
    860d:	48 89 85 f0 fe ff ff 	mov    %rax,-0x110(%rbp)
    8614:	48 8d 85 f0 fa ff ff 	lea    -0x510(%rbp),%rax
    861b:	48 83 c0 30          	add    $0x30,%rax
    861f:	48 89 85 f8 fe ff ff 	mov    %rax,-0x108(%rbp)
    8626:	48 8d 85 f0 fa ff ff 	lea    -0x510(%rbp),%rax
    862d:	48 83 c0 18          	add    $0x18,%rax
    8631:	48 89 85 00 ff ff ff 	mov    %rax,-0x100(%rbp)
    8638:	48 c7 85 08 ff ff ff 	movq   $0x0,-0xf8(%rbp)
    863f:	00 00 00 00 
    8643:	48 c7 85 10 ff ff ff 	movq   $0x0,-0xf0(%rbp)
    864a:	00 00 00 00 
    864e:	48 8d 85 f0 fa ff ff 	lea    -0x510(%rbp),%rax
    8655:	48 83 c0 30          	add    $0x30,%rax
    8659:	48 89 85 18 ff ff ff 	mov    %rax,-0xe8(%rbp)
    8660:	48 c7 85 20 ff ff ff 	movq   $0x0,-0xe0(%rbp)
    8667:	00 00 00 00 
    866b:	48 8d 85 f0 fa ff ff 	lea    -0x510(%rbp),%rax
    8672:	48 83 c0 38          	add    $0x38,%rax
    8676:	48 89 85 28 ff ff ff 	mov    %rax,-0xd8(%rbp)
    867d:	48 8d 85 f0 fa ff ff 	lea    -0x510(%rbp),%rax
    8684:	48 83 c0 38          	add    $0x38,%rax
    8688:	48 89 85 30 ff ff ff 	mov    %rax,-0xd0(%rbp)
    868f:	48 c7 85 38 ff ff ff 	movq   $0x0,-0xc8(%rbp)
    8696:	00 00 00 00 
    869a:	48 8d 85 f0 fa ff ff 	lea    -0x510(%rbp),%rax
    86a1:	48 83 c0 30          	add    $0x30,%rax
    86a5:	48 89 85 40 ff ff ff 	mov    %rax,-0xc0(%rbp)
    86ac:	48 c7 85 48 ff ff ff 	movq   $0x0,-0xb8(%rbp)
    86b3:	00 00 00 00 
    86b7:	48 8d 85 f0 fa ff ff 	lea    -0x510(%rbp),%rax
    86be:	48 83 c0 20          	add    $0x20,%rax
    86c2:	48 89 85 50 ff ff ff 	mov    %rax,-0xb0(%rbp)
    86c9:	48 8d 85 f0 fa ff ff 	lea    -0x510(%rbp),%rax
    86d0:	48 83 c0 20          	add    $0x20,%rax
    86d4:	48 89 85 58 ff ff ff 	mov    %rax,-0xa8(%rbp)
    86db:	48 8d 85 f0 fa ff ff 	lea    -0x510(%rbp),%rax
    86e2:	48 83 c0 08          	add    $0x8,%rax
    86e6:	48 89 85 60 ff ff ff 	mov    %rax,-0xa0(%rbp)
    86ed:	48 8d 85 f0 fa ff ff 	lea    -0x510(%rbp),%rax
    86f4:	48 83 c0 30          	add    $0x30,%rax
    86f8:	48 89 85 68 ff ff ff 	mov    %rax,-0x98(%rbp)
    86ff:	48 c7 85 70 ff ff ff 	movq   $0x0,-0x90(%rbp)
    8706:	00 00 00 00 
    870a:	48 8d 85 f0 fa ff ff 	lea    -0x510(%rbp),%rax
    8711:	48 83 c0 18          	add    $0x18,%rax
    8715:	48 89 85 78 ff ff ff 	mov    %rax,-0x88(%rbp)
    871c:	48 c7 45 80 00 00 00 	movq   $0x0,-0x80(%rbp)
    8723:	00 
    8724:	48 8d 85 f0 fa ff ff 	lea    -0x510(%rbp),%rax
    872b:	48 83 c0 20          	add    $0x20,%rax
    872f:	48 89 45 88          	mov    %rax,-0x78(%rbp)
    8733:	48 8d 85 f0 fa ff ff 	lea    -0x510(%rbp),%rax
    873a:	48 83 c0 18          	add    $0x18,%rax
    873e:	48 89 45 90          	mov    %rax,-0x70(%rbp)
    8742:	48 8d 85 f0 fa ff ff 	lea    -0x510(%rbp),%rax
    8749:	48 83 c0 10          	add    $0x10,%rax
    874d:	48 89 45 98          	mov    %rax,-0x68(%rbp)
    8751:	48 8d 85 f0 fa ff ff 	lea    -0x510(%rbp),%rax
    8758:	48 83 c0 20          	add    $0x20,%rax
    875c:	48 89 45 a0          	mov    %rax,-0x60(%rbp)
    8760:	48 8d 85 f0 fa ff ff 	lea    -0x510(%rbp),%rax
    8767:	48 83 c0 30          	add    $0x30,%rax
    876b:	48 89 45 a8          	mov    %rax,-0x58(%rbp)
    876f:	48 8d 85 f0 fa ff ff 	lea    -0x510(%rbp),%rax
    8776:	48 83 c0 18          	add    $0x18,%rax
    877a:	48 89 45 b0          	mov    %rax,-0x50(%rbp)
    877e:	48 8d 85 f0 fa ff ff 	lea    -0x510(%rbp),%rax
    8785:	48 83 c0 18          	add    $0x18,%rax
    8789:	48 89 45 b8          	mov    %rax,-0x48(%rbp)
    878d:	48 8d 85 f0 fa ff ff 	lea    -0x510(%rbp),%rax
    8794:	48 83 c0 18          	add    $0x18,%rax
    8798:	48 89 45 c0          	mov    %rax,-0x40(%rbp)
    879c:	48 8d 85 f0 fa ff ff 	lea    -0x510(%rbp),%rax
    87a3:	48 83 c0 18          	add    $0x18,%rax
    87a7:	48 89 45 c8          	mov    %rax,-0x38(%rbp)
    87ab:	48 c7 45 d0 00 00 00 	movq   $0x0,-0x30(%rbp)
    87b2:	00 
    87b3:	48 8d 85 f0 fa ff ff 	lea    -0x510(%rbp),%rax
    87ba:	48 83 c0 30          	add    $0x30,%rax
    87be:	48 89 45 d8          	mov    %rax,-0x28(%rbp)
    87c2:	48 8d 85 f0 fa ff ff 	lea    -0x510(%rbp),%rax
    87c9:	48 83 c0 18          	add    $0x18,%rax
    87cd:	48 89 45 e0          	mov    %rax,-0x20(%rbp)
    87d1:	48 8d 85 f0 fa ff ff 	lea    -0x510(%rbp),%rax
    87d8:	48 83 c0 20          	add    $0x20,%rax
    87dc:	48 89 45 e8          	mov    %rax,-0x18(%rbp)
    87e0:	48 8d 85 40 fb ff ff 	lea    -0x4c0(%rbp),%rax
    87e7:	48 05 00 04 00 00    	add    $0x400,%rax
    87ed:	48 89 85 e0 fa ff ff 	mov    %rax,-0x520(%rbp)
    87f4:	48 8d 05 e5 22 01 00 	lea    0x122e5(%rip),%rax        # 1aae0 <g_42>
    87fb:	48 89 85 e8 fa ff ff 	mov    %rax,-0x518(%rbp)
    8802:	48 8b 85 e0 fa ff ff 	mov    -0x520(%rbp),%rax
    8809:	48 c7 00 00 00 00 00 	movq   $0x0,(%rax)
    8810:	48 8b 85 e8 fa ff ff 	mov    -0x518(%rbp),%rax
    8817:	48 8b 55 f8          	mov    -0x8(%rbp),%rdx
    881b:	64 48 33 14 25 28 00 	xor    %fs:0x28,%rdx
    8822:	00 00 
    8824:	74 05                	je     882b <func_18+0xa3e>
    8826:	e8 45 c8 ff ff       	callq  5070 <__stack_chk_fail@plt>
    882b:	c9                   	leaveq 
    882c:	c3                   	retq   

000000000000882d <func_21>:
    882d:	f3 0f 1e fa          	endbr64 
    8831:	55                   	push   %rbp
    8832:	48 89 e5             	mov    %rsp,%rbp
    8835:	53                   	push   %rbx
    8836:	48 81 ec 68 05 00 00 	sub    $0x568,%rsp
    883d:	89 bd ac fa ff ff    	mov    %edi,-0x554(%rbp)
    8843:	48 89 b5 a0 fa ff ff 	mov    %rsi,-0x560(%rbp)
    884a:	48 89 95 98 fa ff ff 	mov    %rdx,-0x568(%rbp)
    8851:	64 48 8b 04 25 28 00 	mov    %fs:0x28,%rax
    8858:	00 00 
    885a:	48 89 45 e8          	mov    %rax,-0x18(%rbp)
    885e:	31 c0                	xor    %eax,%eax
    8860:	48 8d 85 a0 fc ff ff 	lea    -0x360(%rbp),%rax
    8867:	48 8d 15 72 ba 00 00 	lea    0xba72(%rip),%rdx        # 142e0 <g_2569+0x276>
    886e:	b9 69 00 00 00       	mov    $0x69,%ecx
    8873:	48 89 c7             	mov    %rax,%rdi
    8876:	48 89 d6             	mov    %rdx,%rsi
    8879:	f3 48 a5             	rep movsq %ds:(%rsi),%es:(%rdi)
    887c:	c7 85 b0 fb ff ff 00 	movl   $0x0,-0x450(%rbp)
    8883:	00 00 00 
    8886:	c7 85 b4 fb ff ff ff 	movl   $0xffffffff,-0x44c(%rbp)
    888d:	ff ff ff 
    8890:	c7 85 b8 fb ff ff ff 	movl   $0xffffffff,-0x448(%rbp)
    8897:	ff ff ff 
    889a:	c7 85 bc fb ff ff 00 	movl   $0x0,-0x444(%rbp)
    88a1:	00 00 00 
    88a4:	c7 85 c0 fb ff ff ff 	movl   $0xffffffff,-0x440(%rbp)
    88ab:	ff ff ff 
    88ae:	c7 85 c4 fb ff ff ff 	movl   $0xffffffff,-0x43c(%rbp)
    88b5:	ff ff ff 
    88b8:	c7 85 c8 fb ff ff 00 	movl   $0x0,-0x438(%rbp)
    88bf:	00 00 00 
    88c2:	c7 85 cc fb ff ff ff 	movl   $0xffffffff,-0x434(%rbp)
    88c9:	ff ff ff 
    88cc:	c7 85 d0 fb ff ff ff 	movl   $0xffffffff,-0x430(%rbp)
    88d3:	ff ff ff 
    88d6:	c7 85 d4 fb ff ff 00 	movl   $0x0,-0x42c(%rbp)
    88dd:	00 00 00 
    88e0:	c7 85 d8 fb ff ff ff 	movl   $0xffffffff,-0x428(%rbp)
    88e7:	ff ff ff 
    88ea:	c7 85 dc fb ff ff ff 	movl   $0xffffffff,-0x424(%rbp)
    88f1:	ff ff ff 
    88f4:	c7 85 e0 fb ff ff 00 	movl   $0x0,-0x420(%rbp)
    88fb:	00 00 00 
    88fe:	c7 85 e4 fb ff ff ff 	movl   $0xffffffff,-0x41c(%rbp)
    8905:	ff ff ff 
    8908:	c7 85 e8 fb ff ff ff 	movl   $0xffffffff,-0x418(%rbp)
    890f:	ff ff ff 
    8912:	c7 85 ec fb ff ff 00 	movl   $0x0,-0x414(%rbp)
    8919:	00 00 00 
    891c:	c7 85 f0 fb ff ff ff 	movl   $0xffffffff,-0x410(%rbp)
    8923:	ff ff ff 
    8926:	c7 85 f4 fb ff ff ff 	movl   $0xffffffff,-0x40c(%rbp)
    892d:	ff ff ff 
    8930:	c7 85 f8 fb ff ff 00 	movl   $0x0,-0x408(%rbp)
    8937:	00 00 00 
    893a:	c7 85 fc fb ff ff ff 	movl   $0xffffffff,-0x404(%rbp)
    8941:	ff ff ff 
    8944:	c7 85 00 fc ff ff ff 	movl   $0xffffffff,-0x400(%rbp)
    894b:	ff ff ff 
    894e:	c7 85 04 fc ff ff 00 	movl   $0x0,-0x3fc(%rbp)
    8955:	00 00 00 
    8958:	c7 85 08 fc ff ff ff 	movl   $0xffffffff,-0x3f8(%rbp)
    895f:	ff ff ff 
    8962:	c7 85 0c fc ff ff ff 	movl   $0xffffffff,-0x3f4(%rbp)
    8969:	ff ff ff 
    896c:	c7 85 10 fc ff ff 00 	movl   $0x0,-0x3f0(%rbp)
    8973:	00 00 00 
    8976:	c7 85 14 fc ff ff ff 	movl   $0xffffffff,-0x3ec(%rbp)
    897d:	ff ff ff 
    8980:	c7 85 18 fc ff ff ff 	movl   $0xffffffff,-0x3e8(%rbp)
    8987:	ff ff ff 
    898a:	c7 85 1c fc ff ff 00 	movl   $0x0,-0x3e4(%rbp)
    8991:	00 00 00 
    8994:	c7 85 20 fc ff ff ff 	movl   $0xffffffff,-0x3e0(%rbp)
    899b:	ff ff ff 
    899e:	c7 85 24 fc ff ff ff 	movl   $0xffffffff,-0x3dc(%rbp)
    89a5:	ff ff ff 
    89a8:	c7 85 28 fc ff ff 00 	movl   $0x0,-0x3d8(%rbp)
    89af:	00 00 00 
    89b2:	c7 85 2c fc ff ff ff 	movl   $0xffffffff,-0x3d4(%rbp)
    89b9:	ff ff ff 
    89bc:	c7 85 30 fc ff ff ff 	movl   $0xffffffff,-0x3d0(%rbp)
    89c3:	ff ff ff 
    89c6:	c7 85 34 fc ff ff 00 	movl   $0x0,-0x3cc(%rbp)
    89cd:	00 00 00 
    89d0:	c7 85 38 fc ff ff ff 	movl   $0xffffffff,-0x3c8(%rbp)
    89d7:	ff ff ff 
    89da:	c7 85 3c fc ff ff ff 	movl   $0xffffffff,-0x3c4(%rbp)
    89e1:	ff ff ff 
    89e4:	c7 85 40 fc ff ff 00 	movl   $0x0,-0x3c0(%rbp)
    89eb:	00 00 00 
    89ee:	c7 85 44 fc ff ff ff 	movl   $0xffffffff,-0x3bc(%rbp)
    89f5:	ff ff ff 
    89f8:	c7 85 48 fc ff ff ff 	movl   $0xffffffff,-0x3b8(%rbp)
    89ff:	ff ff ff 
    8a02:	c7 85 4c fc ff ff 00 	movl   $0x0,-0x3b4(%rbp)
    8a09:	00 00 00 
    8a0c:	c7 85 50 fc ff ff ff 	movl   $0xffffffff,-0x3b0(%rbp)
    8a13:	ff ff ff 
    8a16:	c7 85 54 fc ff ff ff 	movl   $0xffffffff,-0x3ac(%rbp)
    8a1d:	ff ff ff 
    8a20:	c7 85 58 fc ff ff 00 	movl   $0x0,-0x3a8(%rbp)
    8a27:	00 00 00 
    8a2a:	c7 85 5c fc ff ff ff 	movl   $0xffffffff,-0x3a4(%rbp)
    8a31:	ff ff ff 
    8a34:	c7 85 60 fc ff ff ff 	movl   $0xffffffff,-0x3a0(%rbp)
    8a3b:	ff ff ff 
    8a3e:	c7 85 64 fc ff ff 00 	movl   $0x0,-0x39c(%rbp)
    8a45:	00 00 00 
    8a48:	c7 85 68 fc ff ff ff 	movl   $0xffffffff,-0x398(%rbp)
    8a4f:	ff ff ff 
    8a52:	c7 85 6c fc ff ff ff 	movl   $0xffffffff,-0x394(%rbp)
    8a59:	ff ff ff 
    8a5c:	c7 85 70 fc ff ff 00 	movl   $0x0,-0x390(%rbp)
    8a63:	00 00 00 
    8a66:	c7 85 74 fc ff ff ff 	movl   $0xffffffff,-0x38c(%rbp)
    8a6d:	ff ff ff 
    8a70:	c7 85 78 fc ff ff ff 	movl   $0xffffffff,-0x388(%rbp)
    8a77:	ff ff ff 
    8a7a:	c7 85 7c fc ff ff 00 	movl   $0x0,-0x384(%rbp)
    8a81:	00 00 00 
    8a84:	c7 85 80 fc ff ff ff 	movl   $0xffffffff,-0x380(%rbp)
    8a8b:	ff ff ff 
    8a8e:	c7 85 84 fc ff ff ff 	movl   $0xffffffff,-0x37c(%rbp)
    8a95:	ff ff ff 
    8a98:	c7 85 88 fc ff ff 01 	movl   $0x1,-0x378(%rbp)
    8a9f:	00 00 00 
    8aa2:	c7 85 8c fc ff ff 00 	movl   $0x0,-0x374(%rbp)
    8aa9:	00 00 00 
    8aac:	c7 85 90 fc ff ff 00 	movl   $0x0,-0x370(%rbp)
    8ab3:	00 00 00 
    8ab6:	c7 85 94 fc ff ff 01 	movl   $0x1,-0x36c(%rbp)
    8abd:	00 00 00 
    8ac0:	c7 85 98 fc ff ff 00 	movl   $0x0,-0x368(%rbp)
    8ac7:	00 00 00 
    8aca:	c7 85 9c fc ff ff 00 	movl   $0x0,-0x364(%rbp)
    8ad1:	00 00 00 
    8ad4:	48 8d 05 0d 24 01 00 	lea    0x1240d(%rip),%rax        # 1aee8 <g_764>
    8adb:	48 89 85 e0 fa ff ff 	mov    %rax,-0x520(%rbp)
    8ae2:	48 8d 05 ff 23 01 00 	lea    0x123ff(%rip),%rax        # 1aee8 <g_764>
    8ae9:	48 89 85 e8 fa ff ff 	mov    %rax,-0x518(%rbp)
    8af0:	48 8d 05 f1 23 01 00 	lea    0x123f1(%rip),%rax        # 1aee8 <g_764>
    8af7:	48 89 85 f0 fa ff ff 	mov    %rax,-0x510(%rbp)
    8afe:	48 8d 05 e3 23 01 00 	lea    0x123e3(%rip),%rax        # 1aee8 <g_764>
    8b05:	48 89 85 f8 fa ff ff 	mov    %rax,-0x508(%rbp)
    8b0c:	48 8d 05 d5 23 01 00 	lea    0x123d5(%rip),%rax        # 1aee8 <g_764>
    8b13:	48 89 85 00 fb ff ff 	mov    %rax,-0x500(%rbp)
    8b1a:	48 8d 05 c7 23 01 00 	lea    0x123c7(%rip),%rax        # 1aee8 <g_764>
    8b21:	48 89 85 08 fb ff ff 	mov    %rax,-0x4f8(%rbp)
    8b28:	48 8d 05 b9 23 01 00 	lea    0x123b9(%rip),%rax        # 1aee8 <g_764>
    8b2f:	48 89 85 10 fb ff ff 	mov    %rax,-0x4f0(%rbp)
    8b36:	48 8d 05 ab 23 01 00 	lea    0x123ab(%rip),%rax        # 1aee8 <g_764>
    8b3d:	48 89 85 18 fb ff ff 	mov    %rax,-0x4e8(%rbp)
    8b44:	48 8d 05 9d 23 01 00 	lea    0x1239d(%rip),%rax        # 1aee8 <g_764>
    8b4b:	48 89 85 20 fb ff ff 	mov    %rax,-0x4e0(%rbp)
    8b52:	48 8d 05 8f 23 01 00 	lea    0x1238f(%rip),%rax        # 1aee8 <g_764>
    8b59:	48 89 85 28 fb ff ff 	mov    %rax,-0x4d8(%rbp)
    8b60:	48 8d 05 81 23 01 00 	lea    0x12381(%rip),%rax        # 1aee8 <g_764>
    8b67:	48 89 85 30 fb ff ff 	mov    %rax,-0x4d0(%rbp)
    8b6e:	48 8d 05 73 23 01 00 	lea    0x12373(%rip),%rax        # 1aee8 <g_764>
    8b75:	48 89 85 38 fb ff ff 	mov    %rax,-0x4c8(%rbp)
    8b7c:	48 8d 05 65 23 01 00 	lea    0x12365(%rip),%rax        # 1aee8 <g_764>
    8b83:	48 89 85 40 fb ff ff 	mov    %rax,-0x4c0(%rbp)
    8b8a:	48 8d 05 57 23 01 00 	lea    0x12357(%rip),%rax        # 1aee8 <g_764>
    8b91:	48 89 85 48 fb ff ff 	mov    %rax,-0x4b8(%rbp)
    8b98:	48 8d 05 49 23 01 00 	lea    0x12349(%rip),%rax        # 1aee8 <g_764>
    8b9f:	48 89 85 50 fb ff ff 	mov    %rax,-0x4b0(%rbp)
    8ba6:	48 8d 05 3b 23 01 00 	lea    0x1233b(%rip),%rax        # 1aee8 <g_764>
    8bad:	48 89 85 58 fb ff ff 	mov    %rax,-0x4a8(%rbp)
    8bb4:	48 8d 05 2d 23 01 00 	lea    0x1232d(%rip),%rax        # 1aee8 <g_764>
    8bbb:	48 89 85 60 fb ff ff 	mov    %rax,-0x4a0(%rbp)
    8bc2:	48 8d 05 1f 23 01 00 	lea    0x1231f(%rip),%rax        # 1aee8 <g_764>
    8bc9:	48 89 85 68 fb ff ff 	mov    %rax,-0x498(%rbp)
    8bd0:	48 8d 05 11 23 01 00 	lea    0x12311(%rip),%rax        # 1aee8 <g_764>
    8bd7:	48 89 85 70 fb ff ff 	mov    %rax,-0x490(%rbp)
    8bde:	48 8d 05 03 23 01 00 	lea    0x12303(%rip),%rax        # 1aee8 <g_764>
    8be5:	48 89 85 78 fb ff ff 	mov    %rax,-0x488(%rbp)
    8bec:	48 8d 05 f5 22 01 00 	lea    0x122f5(%rip),%rax        # 1aee8 <g_764>
    8bf3:	48 89 85 80 fb ff ff 	mov    %rax,-0x480(%rbp)
    8bfa:	48 8d 05 e7 22 01 00 	lea    0x122e7(%rip),%rax        # 1aee8 <g_764>
    8c01:	48 89 85 88 fb ff ff 	mov    %rax,-0x478(%rbp)
    8c08:	48 8d 05 d9 22 01 00 	lea    0x122d9(%rip),%rax        # 1aee8 <g_764>
    8c0f:	48 89 85 90 fb ff ff 	mov    %rax,-0x470(%rbp)
    8c16:	48 8d 05 cb 22 01 00 	lea    0x122cb(%rip),%rax        # 1aee8 <g_764>
    8c1d:	48 89 85 98 fb ff ff 	mov    %rax,-0x468(%rbp)
    8c24:	48 8d 05 bd 22 01 00 	lea    0x122bd(%rip),%rax        # 1aee8 <g_764>
    8c2b:	48 89 85 a0 fb ff ff 	mov    %rax,-0x460(%rbp)
    8c32:	c7 85 bc fa ff ff 00 	movl   $0x0,-0x544(%rbp)
    8c39:	00 00 00 
    8c3c:	eb 1e                	jmp    8c5c <func_21+0x42f>
    8c3e:	8b 85 bc fa ff ff    	mov    -0x544(%rbp),%eax
    8c44:	48 98                	cltq   
    8c46:	48 8d 15 db 04 01 00 	lea    0x104db(%rip),%rdx        # 19128 <g_375>
    8c4d:	48 89 94 c5 c0 fa ff 	mov    %rdx,-0x540(%rbp,%rax,8)
    8c54:	ff 
    8c55:	83 85 bc fa ff ff 01 	addl   $0x1,-0x544(%rbp)
    8c5c:	83 bd bc fa ff ff 03 	cmpl   $0x3,-0x544(%rbp)
    8c63:	7e d9                	jle    8c3e <func_21+0x411>
    8c65:	8b 85 ac fa ff ff    	mov    -0x554(%rbp),%eax
    8c6b:	48 98                	cltq   
    8c6d:	48 09 85 98 fa ff ff 	or     %rax,-0x568(%rbp)
    8c74:	8b 85 e0 fb ff ff    	mov    -0x420(%rbp),%eax
    8c7a:	85 c0                	test   %eax,%eax
    8c7c:	75 2e                	jne    8cac <func_21+0x47f>
    8c7e:	8b 9d e0 fb ff ff    	mov    -0x420(%rbp),%ebx
    8c84:	8b 85 e0 fb ff ff    	mov    -0x420(%rbp),%eax
    8c8a:	0f b6 c0             	movzbl %al,%eax
    8c8d:	be 01 00 00 00       	mov    $0x1,%esi
    8c92:	89 c7                	mov    %eax,%edi
    8c94:	e8 b3 cf ff ff       	callq  5c4c <safe_lshift_func_uint8_t_u_u>
    8c99:	0f b6 c0             	movzbl %al,%eax
    8c9c:	39 85 ac fa ff ff    	cmp    %eax,-0x554(%rbp)
    8ca2:	0f 95 c0             	setne  %al
    8ca5:	0f b6 c0             	movzbl %al,%eax
    8ca8:	39 c3                	cmp    %eax,%ebx
    8caa:	73 07                	jae    8cb3 <func_21+0x486>
    8cac:	b8 01 00 00 00       	mov    $0x1,%eax
    8cb1:	eb 05                	jmp    8cb8 <func_21+0x48b>
    8cb3:	b8 00 00 00 00       	mov    $0x0,%eax
    8cb8:	0f be d0             	movsbl %al,%edx
    8cbb:	8b 45 b4             	mov    -0x4c(%rbp),%eax
    8cbe:	0f be c0             	movsbl %al,%eax
    8cc1:	89 d6                	mov    %edx,%esi
    8cc3:	89 c7                	mov    %eax,%edi
    8cc5:	e8 67 c5 ff ff       	callq  5231 <safe_mod_func_int8_t_s_s>
    8cca:	8b 85 e0 fb ff ff    	mov    -0x420(%rbp),%eax
    8cd0:	be f9 ff ff ff       	mov    $0xfffffff9,%esi
    8cd5:	89 c7                	mov    %eax,%edi
    8cd7:	e8 f4 d1 ff ff       	callq  5ed0 <safe_sub_func_uint32_t_u_u>
    8cdc:	8b 55 a8             	mov    -0x58(%rbp),%edx
    8cdf:	39 d0                	cmp    %edx,%eax
    8ce1:	0f 97 c0             	seta   %al
    8ce4:	0f b6 c0             	movzbl %al,%eax
    8ce7:	48 8b 95 a0 fa ff ff 	mov    -0x560(%rbp),%rdx
    8cee:	09 d0                	or     %edx,%eax
    8cf0:	89 85 d8 fc ff ff    	mov    %eax,-0x328(%rbp)
    8cf6:	8b 85 14 fc ff ff    	mov    -0x3ec(%rbp),%eax
    8cfc:	48 8b 4d e8          	mov    -0x18(%rbp),%rcx
    8d00:	64 48 33 0c 25 28 00 	xor    %fs:0x28,%rcx
    8d07:	00 00 
    8d09:	74 05                	je     8d10 <func_21+0x4e3>
    8d0b:	e8 60 c3 ff ff       	callq  5070 <__stack_chk_fail@plt>
    8d10:	48 81 c4 68 05 00 00 	add    $0x568,%rsp
    8d17:	5b                   	pop    %rbx
    8d18:	5d                   	pop    %rbp
    8d19:	c3                   	retq   

0000000000008d1a <func_27>:
    8d1a:	f3 0f 1e fa          	endbr64 
    8d1e:	55                   	push   %rbp
    8d1f:	48 89 e5             	mov    %rsp,%rbp
    8d22:	41 57                	push   %r15
    8d24:	41 56                	push   %r14
    8d26:	41 55                	push   %r13
    8d28:	41 54                	push   %r12
    8d2a:	53                   	push   %rbx
    8d2b:	48 81 ec 00 10 00 00 	sub    $0x1000,%rsp
    8d32:	48 83 0c 24 00       	orq    $0x0,(%rsp)
    8d37:	48 81 ec 00 10 00 00 	sub    $0x1000,%rsp
    8d3e:	48 83 0c 24 00       	orq    $0x0,(%rsp)
    8d43:	48 81 ec e8 07 00 00 	sub    $0x7e8,%rsp
    8d4a:	89 f8                	mov    %edi,%eax
    8d4c:	48 89 b5 10 d8 ff ff 	mov    %rsi,-0x27f0(%rbp)
    8d53:	48 89 95 08 d8 ff ff 	mov    %rdx,-0x27f8(%rbp)
    8d5a:	48 89 8d 00 d8 ff ff 	mov    %rcx,-0x2800(%rbp)
    8d61:	88 85 1c d8 ff ff    	mov    %al,-0x27e4(%rbp)
    8d67:	64 48 8b 04 25 28 00 	mov    %fs:0x28,%rax
    8d6e:	00 00 
    8d70:	48 89 45 c8          	mov    %rax,-0x38(%rbp)
    8d74:	31 c0                	xor    %eax,%eax
    8d76:	48 8d 85 30 e3 ff ff 	lea    -0x1cd0(%rbp),%rax
    8d7d:	48 8d 15 bc b8 00 00 	lea    0xb8bc(%rip),%rdx        # 14640 <g_2569+0x5d6>
    8d84:	b9 70 00 00 00       	mov    $0x70,%ecx
    8d89:	48 89 c7             	mov    %rax,%rdi
    8d8c:	48 89 d6             	mov    %rdx,%rsi
    8d8f:	f3 48 a5             	rep movsq %ds:(%rsi),%es:(%rdi)
    8d92:	48 c7 85 38 dc ff ff 	movq   $0x0,-0x23c8(%rbp)
    8d99:	00 00 00 00 
    8d9d:	48 c7 85 d0 d9 ff ff 	movq   $0x0,-0x2630(%rbp)
    8da4:	00 00 00 00 
    8da8:	48 8d 05 89 03 01 00 	lea    0x10389(%rip),%rax        # 19138 <g_504>
    8daf:	48 89 85 d8 d9 ff ff 	mov    %rax,-0x2628(%rbp)
    8db6:	48 8d 05 7b 03 01 00 	lea    0x1037b(%rip),%rax        # 19138 <g_504>
    8dbd:	48 89 85 e0 d9 ff ff 	mov    %rax,-0x2620(%rbp)
    8dc4:	48 8d 85 b0 eb ff ff 	lea    -0x1450(%rbp),%rax
    8dcb:	48 8d 15 ae 10 01 00 	lea    0x110ae(%rip),%rdx        # 19e80 <g_2930+0x170>
    8dd2:	b9 b4 00 00 00       	mov    $0xb4,%ecx
    8dd7:	48 89 c7             	mov    %rax,%rdi
    8dda:	48 89 d6             	mov    %rdx,%rsi
    8ddd:	f3 48 a5             	rep movsq %ds:(%rsi),%es:(%rdi)
    8de0:	c7 85 4c d8 ff ff 01 	movl   $0x1,-0x27b4(%rbp)
    8de7:	00 00 00 
    8dea:	48 8d 05 67 32 01 00 	lea    0x13267(%rip),%rax        # 1c058 <g_454>
    8df1:	48 89 85 e8 d9 ff ff 	mov    %rax,-0x2618(%rbp)
    8df8:	48 8d 05 69 02 01 00 	lea    0x10269(%rip),%rax        # 19068 <g_80>
    8dff:	48 89 85 40 dc ff ff 	mov    %rax,-0x23c0(%rbp)
    8e06:	48 8d 05 3b 02 01 00 	lea    0x1023b(%rip),%rax        # 19048 <g_32+0x8>
    8e0d:	48 89 85 48 dc ff ff 	mov    %rax,-0x23b8(%rbp)
    8e14:	48 c7 85 d0 da ff ff 	movq   $0x0,-0x2530(%rbp)
    8e1b:	00 00 00 00 
    8e1f:	c6 85 23 d8 ff ff 01 	movb   $0x1,-0x27dd(%rbp)
    8e26:	c7 85 50 d8 ff ff cd 	movl   $0xd5dfd4cd,-0x27b0(%rbp)
    8e2d:	d4 df d5 
    8e30:	c7 85 54 d8 ff ff 8e 	movl   $0x9122e78e,-0x27ac(%rbp)
    8e37:	e7 22 91 
    8e3a:	c7 85 cc d8 ff ff 9b 	movl   $0x4dd959b,-0x2734(%rbp)
    8e41:	95 dd 04 
    8e44:	c6 85 2b d8 ff ff 03 	movb   $0x3,-0x27d5(%rbp)
    8e4b:	c7 85 58 d8 ff ff 48 	movl   $0xe8ab0348,-0x27a8(%rbp)
    8e52:	03 ab e8 
    8e55:	48 8d 05 46 04 01 00 	lea    0x10446(%rip),%rax        # 192a2 <g_518+0x142>
    8e5c:	48 89 85 f0 d9 ff ff 	mov    %rax,-0x2610(%rbp)
    8e63:	48 8d 05 0e 02 01 00 	lea    0x1020e(%rip),%rax        # 19078 <g_108>
    8e6a:	48 89 85 f8 d9 ff ff 	mov    %rax,-0x2608(%rbp)
    8e71:	48 8d 85 f8 d9 ff ff 	lea    -0x2608(%rbp),%rax
    8e78:	48 89 85 00 da ff ff 	mov    %rax,-0x2600(%rbp)
    8e7f:	48 8d 85 00 da ff ff 	lea    -0x2600(%rbp),%rax
    8e86:	48 89 85 08 da ff ff 	mov    %rax,-0x25f8(%rbp)
    8e8d:	66 c7 85 32 d8 ff ff 	movw   $0xffff,-0x27ce(%rbp)
    8e94:	ff ff 
    8e96:	c7 85 5c d8 ff ff 32 	movl   $0x1ae18732,-0x27a4(%rbp)
    8e9d:	87 e1 1a 
    8ea0:	48 8d 05 91 20 01 00 	lea    0x12091(%rip),%rax        # 1af38 <g_811>
    8ea7:	48 89 85 10 da ff ff 	mov    %rax,-0x25f0(%rbp)
    8eae:	48 c7 85 18 da ff ff 	movq   $0x0,-0x25e8(%rbp)
    8eb5:	00 00 00 00 
    8eb9:	48 8d 85 18 da ff ff 	lea    -0x25e8(%rbp),%rax
    8ec0:	48 89 85 50 e1 ff ff 	mov    %rax,-0x1eb0(%rbp)
    8ec7:	48 8d 85 18 da ff ff 	lea    -0x25e8(%rbp),%rax
    8ece:	48 89 85 58 e1 ff ff 	mov    %rax,-0x1ea8(%rbp)
    8ed5:	48 8d 85 18 da ff ff 	lea    -0x25e8(%rbp),%rax
    8edc:	48 89 85 60 e1 ff ff 	mov    %rax,-0x1ea0(%rbp)
    8ee3:	48 8d 85 18 da ff ff 	lea    -0x25e8(%rbp),%rax
    8eea:	48 89 85 68 e1 ff ff 	mov    %rax,-0x1e98(%rbp)
    8ef1:	48 8d 85 18 da ff ff 	lea    -0x25e8(%rbp),%rax
    8ef8:	48 89 85 70 e1 ff ff 	mov    %rax,-0x1e90(%rbp)
    8eff:	48 8d 85 18 da ff ff 	lea    -0x25e8(%rbp),%rax
    8f06:	48 89 85 78 e1 ff ff 	mov    %rax,-0x1e88(%rbp)
    8f0d:	48 8d 85 18 da ff ff 	lea    -0x25e8(%rbp),%rax
    8f14:	48 89 85 80 e1 ff ff 	mov    %rax,-0x1e80(%rbp)
    8f1b:	48 8d 85 18 da ff ff 	lea    -0x25e8(%rbp),%rax
    8f22:	48 89 85 88 e1 ff ff 	mov    %rax,-0x1e78(%rbp)
    8f29:	48 8d 85 18 da ff ff 	lea    -0x25e8(%rbp),%rax
    8f30:	48 89 85 90 e1 ff ff 	mov    %rax,-0x1e70(%rbp)
    8f37:	48 8d 85 18 da ff ff 	lea    -0x25e8(%rbp),%rax
    8f3e:	48 89 85 98 e1 ff ff 	mov    %rax,-0x1e68(%rbp)
    8f45:	48 8d 85 18 da ff ff 	lea    -0x25e8(%rbp),%rax
    8f4c:	48 89 85 a0 e1 ff ff 	mov    %rax,-0x1e60(%rbp)
    8f53:	48 8d 85 18 da ff ff 	lea    -0x25e8(%rbp),%rax
    8f5a:	48 89 85 a8 e1 ff ff 	mov    %rax,-0x1e58(%rbp)
    8f61:	48 8d 85 18 da ff ff 	lea    -0x25e8(%rbp),%rax
    8f68:	48 89 85 b0 e1 ff ff 	mov    %rax,-0x1e50(%rbp)
    8f6f:	48 8d 85 18 da ff ff 	lea    -0x25e8(%rbp),%rax
    8f76:	48 89 85 b8 e1 ff ff 	mov    %rax,-0x1e48(%rbp)
    8f7d:	48 8d 85 18 da ff ff 	lea    -0x25e8(%rbp),%rax
    8f84:	48 89 85 c0 e1 ff ff 	mov    %rax,-0x1e40(%rbp)
    8f8b:	48 8d 85 18 da ff ff 	lea    -0x25e8(%rbp),%rax
    8f92:	48 89 85 c8 e1 ff ff 	mov    %rax,-0x1e38(%rbp)
    8f99:	48 8d 85 50 e1 ff ff 	lea    -0x1eb0(%rbp),%rax
    8fa0:	48 83 c0 70          	add    $0x70,%rax
    8fa4:	48 89 85 20 da ff ff 	mov    %rax,-0x25e0(%rbp)
    8fab:	48 c7 85 28 da ff ff 	movq   $0x0,-0x25d8(%rbp)
    8fb2:	00 00 00 00 
    8fb6:	48 8d 85 28 da ff ff 	lea    -0x25d8(%rbp),%rax
    8fbd:	48 89 85 20 dc ff ff 	mov    %rax,-0x23e0(%rbp)
    8fc4:	48 8d 05 fd 1e 01 00 	lea    0x11efd(%rip),%rax        # 1aec8 <g_754>
    8fcb:	48 89 85 28 dc ff ff 	mov    %rax,-0x23d8(%rbp)
    8fd2:	48 c7 85 e0 df ff ff 	movq   $0x0,-0x2020(%rbp)
    8fd9:	00 00 00 00 
    8fdd:	48 c7 85 e8 df ff ff 	movq   $0x0,-0x2018(%rbp)
    8fe4:	00 00 00 00 
    8fe8:	48 c7 85 f0 df ff ff 	movq   $0x0,-0x2010(%rbp)
    8fef:	00 00 00 00 
    8ff3:	48 c7 85 f8 df ff ff 	movq   $0x0,-0x2008(%rbp)
    8ffa:	00 00 00 00 
    8ffe:	48 c7 85 00 e0 ff ff 	movq   $0x0,-0x2000(%rbp)
    9005:	00 00 00 00 
    9009:	48 c7 85 08 e0 ff ff 	movq   $0x0,-0x1ff8(%rbp)
    9010:	00 00 00 00 
    9014:	48 8d 05 a9 03 01 00 	lea    0x103a9(%rip),%rax        # 193c4 <g_641>
    901b:	48 89 85 30 dc ff ff 	mov    %rax,-0x23d0(%rbp)
    9022:	c7 85 c8 d8 ff ff 6f 	movl   $0xc29cce6f,-0x2738(%rbp)
    9029:	ce 9c c2 
    902c:	c6 85 2a d8 ff ff ff 	movb   $0xff,-0x27d6(%rbp)
    9033:	48 c7 85 30 da ff ff 	movq   $0x0,-0x25d0(%rbp)
    903a:	00 00 00 00 
    903e:	48 8d 85 30 da ff ff 	lea    -0x25d0(%rbp),%rax
    9045:	48 89 85 38 da ff ff 	mov    %rax,-0x25c8(%rbp)
    904c:	48 8d 85 38 da ff ff 	lea    -0x25c8(%rbp),%rax
    9053:	48 89 85 40 da ff ff 	mov    %rax,-0x25c0(%rbp)
    905a:	48 8d 85 40 da ff ff 	lea    -0x25c0(%rbp),%rax
    9061:	48 89 85 10 dc ff ff 	mov    %rax,-0x23f0(%rbp)
    9068:	c6 85 29 d8 ff ff db 	movb   $0xdb,-0x27d7(%rbp)
    906f:	c7 85 bc d8 ff ff 01 	movl   $0x1,-0x2744(%rbp)
    9076:	00 00 00 
    9079:	c7 85 c0 d8 ff ff fc 	movl   $0xfffffffc,-0x2740(%rbp)
    9080:	ff ff ff 
    9083:	66 c7 85 34 d8 ff ff 	movw   $0x5227,-0x27cc(%rbp)
    908a:	27 52 
    908c:	48 c7 85 18 dc ff ff 	movq   $0x0,-0x23e8(%rbp)
    9093:	00 00 00 00 
    9097:	c7 85 60 d8 ff ff 01 	movl   $0x1,-0x27a0(%rbp)
    909e:	00 00 00 
    90a1:	c6 85 24 d8 ff ff fd 	movb   $0xfd,-0x27dc(%rbp)
    90a8:	c6 85 25 d8 ff ff 06 	movb   $0x6,-0x27db(%rbp)
    90af:	c7 85 c4 d8 ff ff 00 	movl   $0x0,-0x273c(%rbp)
    90b6:	00 00 00 
    90b9:	48 8d 05 90 2f 01 00 	lea    0x12f90(%rip),%rax        # 1c050 <g_369>
    90c0:	48 89 85 10 e0 ff ff 	mov    %rax,-0x1ff0(%rbp)
    90c7:	48 8d 05 82 2f 01 00 	lea    0x12f82(%rip),%rax        # 1c050 <g_369>
    90ce:	48 89 85 18 e0 ff ff 	mov    %rax,-0x1fe8(%rbp)
    90d5:	48 8d 05 74 2f 01 00 	lea    0x12f74(%rip),%rax        # 1c050 <g_369>
    90dc:	48 89 85 20 e0 ff ff 	mov    %rax,-0x1fe0(%rbp)
    90e3:	48 8d 05 66 2f 01 00 	lea    0x12f66(%rip),%rax        # 1c050 <g_369>
    90ea:	48 89 85 28 e0 ff ff 	mov    %rax,-0x1fd8(%rbp)
    90f1:	48 8d 05 58 2f 01 00 	lea    0x12f58(%rip),%rax        # 1c050 <g_369>
    90f8:	48 89 85 30 e0 ff ff 	mov    %rax,-0x1fd0(%rbp)
    90ff:	48 8d 05 4a 2f 01 00 	lea    0x12f4a(%rip),%rax        # 1c050 <g_369>
    9106:	48 89 85 38 e0 ff ff 	mov    %rax,-0x1fc8(%rbp)
    910d:	48 8d 05 3c 2f 01 00 	lea    0x12f3c(%rip),%rax        # 1c050 <g_369>
    9114:	48 89 85 40 e0 ff ff 	mov    %rax,-0x1fc0(%rbp)
    911b:	48 8d 85 10 e0 ff ff 	lea    -0x1ff0(%rbp),%rax
    9122:	48 83 c0 08          	add    $0x8,%rax
    9126:	48 89 85 f8 db ff ff 	mov    %rax,-0x2408(%rbp)
    912d:	c7 85 b4 d8 ff ff 00 	movl   $0x0,-0x274c(%rbp)
    9134:	00 00 00 
    9137:	48 b8 66 bd 75 57 a6 	movabs $0x806dc2a65775bd66,%rax
    913e:	c2 6d 80 
    9141:	48 89 85 48 da ff ff 	mov    %rax,-0x25b8(%rbp)
    9148:	c7 85 b8 d8 ff ff 1b 	movl   $0x8666531b,-0x2748(%rbp)
    914f:	53 66 86 
    9152:	48 8d 05 df ff 00 00 	lea    0xffdf(%rip),%rax        # 19138 <g_504>
    9159:	48 89 85 00 dc ff ff 	mov    %rax,-0x2400(%rbp)
    9160:	48 8d 05 e1 02 01 00 	lea    0x102e1(%rip),%rax        # 19448 <g_840>
    9167:	48 89 85 08 dc ff ff 	mov    %rax,-0x23f8(%rbp)
    916e:	48 8d 05 b3 ff 00 00 	lea    0xffb3(%rip),%rax        # 19128 <g_375>
    9175:	48 89 85 50 f1 ff ff 	mov    %rax,-0xeb0(%rbp)
    917c:	48 c7 85 58 f1 ff ff 	movq   $0x0,-0xea8(%rbp)
    9183:	00 00 00 00 
    9187:	48 8d 85 48 da ff ff 	lea    -0x25b8(%rbp),%rax
    918e:	48 89 85 60 f1 ff ff 	mov    %rax,-0xea0(%rbp)
    9195:	48 8d 85 48 da ff ff 	lea    -0x25b8(%rbp),%rax
    919c:	48 89 85 68 f1 ff ff 	mov    %rax,-0xe98(%rbp)
    91a3:	48 8d 85 48 da ff ff 	lea    -0x25b8(%rbp),%rax
    91aa:	48 89 85 70 f1 ff ff 	mov    %rax,-0xe90(%rbp)
    91b1:	48 8d 05 70 ff 00 00 	lea    0xff70(%rip),%rax        # 19128 <g_375>
    91b8:	48 89 85 78 f1 ff ff 	mov    %rax,-0xe88(%rbp)
    91bf:	48 c7 85 80 f1 ff ff 	movq   $0x0,-0xe80(%rbp)
    91c6:	00 00 00 00 
    91ca:	48 8d 05 57 ff 00 00 	lea    0xff57(%rip),%rax        # 19128 <g_375>
    91d1:	48 89 85 88 f1 ff ff 	mov    %rax,-0xe78(%rbp)
    91d8:	48 8d 85 48 da ff ff 	lea    -0x25b8(%rbp),%rax
    91df:	48 89 85 90 f1 ff ff 	mov    %rax,-0xe70(%rbp)
    91e6:	48 8d 05 6b 02 01 00 	lea    0x1026b(%rip),%rax        # 19458 <g_929>
    91ed:	48 89 85 98 f1 ff ff 	mov    %rax,-0xe68(%rbp)
    91f4:	48 8d 05 2d ff 00 00 	lea    0xff2d(%rip),%rax        # 19128 <g_375>
    91fb:	48 89 85 a0 f1 ff ff 	mov    %rax,-0xe60(%rbp)
    9202:	48 8d 85 48 da ff ff 	lea    -0x25b8(%rbp),%rax
    9209:	48 89 85 a8 f1 ff ff 	mov    %rax,-0xe58(%rbp)
    9210:	48 8d 85 48 da ff ff 	lea    -0x25b8(%rbp),%rax
    9217:	48 89 85 b0 f1 ff ff 	mov    %rax,-0xe50(%rbp)
    921e:	48 8d 05 33 02 01 00 	lea    0x10233(%rip),%rax        # 19458 <g_929>
    9225:	48 89 85 b8 f1 ff ff 	mov    %rax,-0xe48(%rbp)
    922c:	48 c7 85 c0 f1 ff ff 	movq   $0x0,-0xe40(%rbp)
    9233:	00 00 00 00 
    9237:	48 8d 05 ea fe 00 00 	lea    0xfeea(%rip),%rax        # 19128 <g_375>
    923e:	48 89 85 c8 f1 ff ff 	mov    %rax,-0xe38(%rbp)
    9245:	48 c7 85 d0 f1 ff ff 	movq   $0x0,-0xe30(%rbp)
    924c:	00 00 00 00 
    9250:	48 8d 05 01 02 01 00 	lea    0x10201(%rip),%rax        # 19458 <g_929>
    9257:	48 89 85 d8 f1 ff ff 	mov    %rax,-0xe28(%rbp)
    925e:	48 8d 85 48 da ff ff 	lea    -0x25b8(%rbp),%rax
    9265:	48 89 85 e0 f1 ff ff 	mov    %rax,-0xe20(%rbp)
    926c:	48 8d 85 48 da ff ff 	lea    -0x25b8(%rbp),%rax
    9273:	48 89 85 e8 f1 ff ff 	mov    %rax,-0xe18(%rbp)
    927a:	48 8d 05 a7 fe 00 00 	lea    0xfea7(%rip),%rax        # 19128 <g_375>
    9281:	48 89 85 f0 f1 ff ff 	mov    %rax,-0xe10(%rbp)
    9288:	48 8d 05 c9 01 01 00 	lea    0x101c9(%rip),%rax        # 19458 <g_929>
    928f:	48 89 85 f8 f1 ff ff 	mov    %rax,-0xe08(%rbp)
    9296:	48 8d 85 48 da ff ff 	lea    -0x25b8(%rbp),%rax
    929d:	48 89 85 00 f2 ff ff 	mov    %rax,-0xe00(%rbp)
    92a4:	48 8d 05 7d fe 00 00 	lea    0xfe7d(%rip),%rax        # 19128 <g_375>
    92ab:	48 89 85 08 f2 ff ff 	mov    %rax,-0xdf8(%rbp)
    92b2:	48 c7 85 10 f2 ff ff 	movq   $0x0,-0xdf0(%rbp)
    92b9:	00 00 00 00 
    92bd:	48 8d 05 64 fe 00 00 	lea    0xfe64(%rip),%rax        # 19128 <g_375>
    92c4:	48 89 85 18 f2 ff ff 	mov    %rax,-0xde8(%rbp)
    92cb:	48 8d 85 48 da ff ff 	lea    -0x25b8(%rbp),%rax
    92d2:	48 89 85 20 f2 ff ff 	mov    %rax,-0xde0(%rbp)
    92d9:	48 8d 85 48 da ff ff 	lea    -0x25b8(%rbp),%rax
    92e0:	48 89 85 28 f2 ff ff 	mov    %rax,-0xdd8(%rbp)
    92e7:	48 8d 85 48 da ff ff 	lea    -0x25b8(%rbp),%rax
    92ee:	48 89 85 30 f2 ff ff 	mov    %rax,-0xdd0(%rbp)
    92f5:	48 c7 85 38 f2 ff ff 	movq   $0x0,-0xdc8(%rbp)
    92fc:	00 00 00 00 
    9300:	48 8d 05 21 fe 00 00 	lea    0xfe21(%rip),%rax        # 19128 <g_375>
    9307:	48 89 85 40 f2 ff ff 	mov    %rax,-0xdc0(%rbp)
    930e:	48 8d 05 13 fe 00 00 	lea    0xfe13(%rip),%rax        # 19128 <g_375>
    9315:	48 89 85 48 f2 ff ff 	mov    %rax,-0xdb8(%rbp)
    931c:	48 8d 05 05 fe 00 00 	lea    0xfe05(%rip),%rax        # 19128 <g_375>
    9323:	48 89 85 50 f2 ff ff 	mov    %rax,-0xdb0(%rbp)
    932a:	48 8d 85 48 da ff ff 	lea    -0x25b8(%rbp),%rax
    9331:	48 89 85 58 f2 ff ff 	mov    %rax,-0xda8(%rbp)
    9338:	48 8d 85 48 da ff ff 	lea    -0x25b8(%rbp),%rax
    933f:	48 89 85 60 f2 ff ff 	mov    %rax,-0xda0(%rbp)
    9346:	48 8d 85 48 da ff ff 	lea    -0x25b8(%rbp),%rax
    934d:	48 89 85 68 f2 ff ff 	mov    %rax,-0xd98(%rbp)
    9354:	48 8d 05 fd 00 01 00 	lea    0x100fd(%rip),%rax        # 19458 <g_929>
    935b:	48 89 85 70 f2 ff ff 	mov    %rax,-0xd90(%rbp)
    9362:	48 8d 85 48 da ff ff 	lea    -0x25b8(%rbp),%rax
    9369:	48 89 85 78 f2 ff ff 	mov    %rax,-0xd88(%rbp)
    9370:	48 8d 85 48 da ff ff 	lea    -0x25b8(%rbp),%rax
    9377:	48 89 85 80 f2 ff ff 	mov    %rax,-0xd80(%rbp)
    937e:	48 8d 05 d3 00 01 00 	lea    0x100d3(%rip),%rax        # 19458 <g_929>
    9385:	48 89 85 88 f2 ff ff 	mov    %rax,-0xd78(%rbp)
    938c:	48 c7 85 90 f2 ff ff 	movq   $0x0,-0xd70(%rbp)
    9393:	00 00 00 00 
    9397:	48 8d 05 ba 00 01 00 	lea    0x100ba(%rip),%rax        # 19458 <g_929>
    939e:	48 89 85 98 f2 ff ff 	mov    %rax,-0xd68(%rbp)
    93a5:	48 8d 85 48 da ff ff 	lea    -0x25b8(%rbp),%rax
    93ac:	48 89 85 a0 f2 ff ff 	mov    %rax,-0xd60(%rbp)
    93b3:	48 8d 05 9e 00 01 00 	lea    0x1009e(%rip),%rax        # 19458 <g_929>
    93ba:	48 89 85 a8 f2 ff ff 	mov    %rax,-0xd58(%rbp)
    93c1:	48 8d 85 48 da ff ff 	lea    -0x25b8(%rbp),%rax
    93c8:	48 89 85 b0 f2 ff ff 	mov    %rax,-0xd50(%rbp)
    93cf:	48 8d 05 52 fd 00 00 	lea    0xfd52(%rip),%rax        # 19128 <g_375>
    93d6:	48 89 85 b8 f2 ff ff 	mov    %rax,-0xd48(%rbp)
    93dd:	48 8d 05 44 fd 00 00 	lea    0xfd44(%rip),%rax        # 19128 <g_375>
    93e4:	48 89 85 c0 f2 ff ff 	mov    %rax,-0xd40(%rbp)
    93eb:	48 8d 85 48 da ff ff 	lea    -0x25b8(%rbp),%rax
    93f2:	48 89 85 c8 f2 ff ff 	mov    %rax,-0xd38(%rbp)
    93f9:	48 8d 05 58 00 01 00 	lea    0x10058(%rip),%rax        # 19458 <g_929>
    9400:	48 89 85 d0 f2 ff ff 	mov    %rax,-0xd30(%rbp)
    9407:	48 8d 05 1a fd 00 00 	lea    0xfd1a(%rip),%rax        # 19128 <g_375>
    940e:	48 89 85 d8 f2 ff ff 	mov    %rax,-0xd28(%rbp)
    9415:	48 8d 05 0c fd 00 00 	lea    0xfd0c(%rip),%rax        # 19128 <g_375>
    941c:	48 89 85 e0 f2 ff ff 	mov    %rax,-0xd20(%rbp)
    9423:	48 c7 85 e8 f2 ff ff 	movq   $0x0,-0xd18(%rbp)
    942a:	00 00 00 00 
    942e:	48 8d 85 48 da ff ff 	lea    -0x25b8(%rbp),%rax
    9435:	48 89 85 f0 f2 ff ff 	mov    %rax,-0xd10(%rbp)
    943c:	48 c7 85 f8 f2 ff ff 	movq   $0x0,-0xd08(%rbp)
    9443:	00 00 00 00 
    9447:	48 8d 85 48 da ff ff 	lea    -0x25b8(%rbp),%rax
    944e:	48 89 85 00 f3 ff ff 	mov    %rax,-0xd00(%rbp)
    9455:	48 c7 85 08 f3 ff ff 	movq   $0x0,-0xcf8(%rbp)
    945c:	00 00 00 00 
    9460:	48 8d 85 48 da ff ff 	lea    -0x25b8(%rbp),%rax
    9467:	48 89 85 10 f3 ff ff 	mov    %rax,-0xcf0(%rbp)
    946e:	48 c7 85 18 f3 ff ff 	movq   $0x0,-0xce8(%rbp)
    9475:	00 00 00 00 
    9479:	48 8d 05 a8 fc 00 00 	lea    0xfca8(%rip),%rax        # 19128 <g_375>
    9480:	48 89 85 20 f3 ff ff 	mov    %rax,-0xce0(%rbp)
    9487:	48 8d 05 9a fc 00 00 	lea    0xfc9a(%rip),%rax        # 19128 <g_375>
    948e:	48 89 85 28 f3 ff ff 	mov    %rax,-0xcd8(%rbp)
    9495:	48 8d 05 bc ff 00 00 	lea    0xffbc(%rip),%rax        # 19458 <g_929>
    949c:	48 89 85 30 f3 ff ff 	mov    %rax,-0xcd0(%rbp)
    94a3:	48 8d 85 48 da ff ff 	lea    -0x25b8(%rbp),%rax
    94aa:	48 89 85 38 f3 ff ff 	mov    %rax,-0xcc8(%rbp)
    94b1:	48 8d 05 70 fc 00 00 	lea    0xfc70(%rip),%rax        # 19128 <g_375>
    94b8:	48 89 85 40 f3 ff ff 	mov    %rax,-0xcc0(%rbp)
    94bf:	48 8d 05 62 fc 00 00 	lea    0xfc62(%rip),%rax        # 19128 <g_375>
    94c6:	48 89 85 48 f3 ff ff 	mov    %rax,-0xcb8(%rbp)
    94cd:	48 8d 85 48 da ff ff 	lea    -0x25b8(%rbp),%rax
    94d4:	48 89 85 50 f3 ff ff 	mov    %rax,-0xcb0(%rbp)
    94db:	48 8d 05 76 ff 00 00 	lea    0xff76(%rip),%rax        # 19458 <g_929>
    94e2:	48 89 85 58 f3 ff ff 	mov    %rax,-0xca8(%rbp)
    94e9:	48 8d 85 48 da ff ff 	lea    -0x25b8(%rbp),%rax
    94f0:	48 89 85 60 f3 ff ff 	mov    %rax,-0xca0(%rbp)
    94f7:	48 8d 05 5a ff 00 00 	lea    0xff5a(%rip),%rax        # 19458 <g_929>
    94fe:	48 89 85 68 f3 ff ff 	mov    %rax,-0xc98(%rbp)
    9505:	48 c7 85 70 f3 ff ff 	movq   $0x0,-0xc90(%rbp)
    950c:	00 00 00 00 
    9510:	48 8d 05 41 ff 00 00 	lea    0xff41(%rip),%rax        # 19458 <g_929>
    9517:	48 89 85 78 f3 ff ff 	mov    %rax,-0xc88(%rbp)
    951e:	48 8d 85 48 da ff ff 	lea    -0x25b8(%rbp),%rax
    9525:	48 89 85 80 f3 ff ff 	mov    %rax,-0xc80(%rbp)
    952c:	48 8d 85 48 da ff ff 	lea    -0x25b8(%rbp),%rax
    9533:	48 89 85 88 f3 ff ff 	mov    %rax,-0xc78(%rbp)
    953a:	48 8d 05 17 ff 00 00 	lea    0xff17(%rip),%rax        # 19458 <g_929>
    9541:	48 89 85 90 f3 ff ff 	mov    %rax,-0xc70(%rbp)
    9548:	48 8d 85 48 da ff ff 	lea    -0x25b8(%rbp),%rax
    954f:	48 89 85 98 f3 ff ff 	mov    %rax,-0xc68(%rbp)
    9556:	48 8d 85 48 da ff ff 	lea    -0x25b8(%rbp),%rax
    955d:	48 89 85 a0 f3 ff ff 	mov    %rax,-0xc60(%rbp)
    9564:	48 8d 85 48 da ff ff 	lea    -0x25b8(%rbp),%rax
    956b:	48 89 85 a8 f3 ff ff 	mov    %rax,-0xc58(%rbp)
    9572:	48 8d 05 af fb 00 00 	lea    0xfbaf(%rip),%rax        # 19128 <g_375>
    9579:	48 89 85 b0 f3 ff ff 	mov    %rax,-0xc50(%rbp)
    9580:	48 8d 05 a1 fb 00 00 	lea    0xfba1(%rip),%rax        # 19128 <g_375>
    9587:	48 89 85 b8 f3 ff ff 	mov    %rax,-0xc48(%rbp)
    958e:	48 8d 05 93 fb 00 00 	lea    0xfb93(%rip),%rax        # 19128 <g_375>
    9595:	48 89 85 c0 f3 ff ff 	mov    %rax,-0xc40(%rbp)
    959c:	48 c7 85 c8 f3 ff ff 	movq   $0x0,-0xc38(%rbp)
    95a3:	00 00 00 00 
    95a7:	48 8d 85 48 da ff ff 	lea    -0x25b8(%rbp),%rax
    95ae:	48 89 85 d0 f3 ff ff 	mov    %rax,-0xc30(%rbp)
    95b5:	48 8d 85 48 da ff ff 	lea    -0x25b8(%rbp),%rax
    95bc:	48 89 85 d8 f3 ff ff 	mov    %rax,-0xc28(%rbp)
    95c3:	48 8d 85 48 da ff ff 	lea    -0x25b8(%rbp),%rax
    95ca:	48 89 85 e0 f3 ff ff 	mov    %rax,-0xc20(%rbp)
    95d1:	48 8d 05 50 fb 00 00 	lea    0xfb50(%rip),%rax        # 19128 <g_375>
    95d8:	48 89 85 e8 f3 ff ff 	mov    %rax,-0xc18(%rbp)
    95df:	48 c7 85 f0 f3 ff ff 	movq   $0x0,-0xc10(%rbp)
    95e6:	00 00 00 00 
    95ea:	48 8d 05 37 fb 00 00 	lea    0xfb37(%rip),%rax        # 19128 <g_375>
    95f1:	48 89 85 f8 f3 ff ff 	mov    %rax,-0xc08(%rbp)
    95f8:	48 8d 85 48 da ff ff 	lea    -0x25b8(%rbp),%rax
    95ff:	48 89 85 00 f4 ff ff 	mov    %rax,-0xc00(%rbp)
    9606:	48 8d 05 4b fe 00 00 	lea    0xfe4b(%rip),%rax        # 19458 <g_929>
    960d:	48 89 85 08 f4 ff ff 	mov    %rax,-0xbf8(%rbp)
    9614:	48 8d 05 0d fb 00 00 	lea    0xfb0d(%rip),%rax        # 19128 <g_375>
    961b:	48 89 85 10 f4 ff ff 	mov    %rax,-0xbf0(%rbp)
    9622:	48 8d 85 48 da ff ff 	lea    -0x25b8(%rbp),%rax
    9629:	48 89 85 18 f4 ff ff 	mov    %rax,-0xbe8(%rbp)
    9630:	48 8d 85 48 da ff ff 	lea    -0x25b8(%rbp),%rax
    9637:	48 89 85 20 f4 ff ff 	mov    %rax,-0xbe0(%rbp)
    963e:	48 8d 05 13 fe 00 00 	lea    0xfe13(%rip),%rax        # 19458 <g_929>
    9645:	48 89 85 28 f4 ff ff 	mov    %rax,-0xbd8(%rbp)
    964c:	48 c7 85 30 f4 ff ff 	movq   $0x0,-0xbd0(%rbp)
    9653:	00 00 00 00 
    9657:	48 8d 05 ca fa 00 00 	lea    0xfaca(%rip),%rax        # 19128 <g_375>
    965e:	48 89 85 38 f4 ff ff 	mov    %rax,-0xbc8(%rbp)
    9665:	48 c7 85 40 f4 ff ff 	movq   $0x0,-0xbc0(%rbp)
    966c:	00 00 00 00 
    9670:	48 8d 05 e1 fd 00 00 	lea    0xfde1(%rip),%rax        # 19458 <g_929>
    9677:	48 89 85 48 f4 ff ff 	mov    %rax,-0xbb8(%rbp)
    967e:	48 8d 85 48 da ff ff 	lea    -0x25b8(%rbp),%rax
    9685:	48 89 85 50 f4 ff ff 	mov    %rax,-0xbb0(%rbp)
    968c:	48 8d 85 48 da ff ff 	lea    -0x25b8(%rbp),%rax
    9693:	48 89 85 58 f4 ff ff 	mov    %rax,-0xba8(%rbp)
    969a:	48 8d 05 87 fa 00 00 	lea    0xfa87(%rip),%rax        # 19128 <g_375>
    96a1:	48 89 85 60 f4 ff ff 	mov    %rax,-0xba0(%rbp)
    96a8:	48 8d 05 a9 fd 00 00 	lea    0xfda9(%rip),%rax        # 19458 <g_929>
    96af:	48 89 85 68 f4 ff ff 	mov    %rax,-0xb98(%rbp)
    96b6:	48 8d 85 48 da ff ff 	lea    -0x25b8(%rbp),%rax
    96bd:	48 89 85 70 f4 ff ff 	mov    %rax,-0xb90(%rbp)
    96c4:	48 8d 05 5d fa 00 00 	lea    0xfa5d(%rip),%rax        # 19128 <g_375>
    96cb:	48 89 85 78 f4 ff ff 	mov    %rax,-0xb88(%rbp)
    96d2:	48 c7 85 80 f4 ff ff 	movq   $0x0,-0xb80(%rbp)
    96d9:	00 00 00 00 
    96dd:	48 8d 05 44 fa 00 00 	lea    0xfa44(%rip),%rax        # 19128 <g_375>
    96e4:	48 89 85 88 f4 ff ff 	mov    %rax,-0xb78(%rbp)
    96eb:	48 8d 85 48 da ff ff 	lea    -0x25b8(%rbp),%rax
    96f2:	48 89 85 90 f4 ff ff 	mov    %rax,-0xb70(%rbp)
    96f9:	48 8d 85 48 da ff ff 	lea    -0x25b8(%rbp),%rax
    9700:	48 89 85 98 f4 ff ff 	mov    %rax,-0xb68(%rbp)
    9707:	48 8d 85 48 da ff ff 	lea    -0x25b8(%rbp),%rax
    970e:	48 89 85 a0 f4 ff ff 	mov    %rax,-0xb60(%rbp)
    9715:	48 c7 85 a8 f4 ff ff 	movq   $0x0,-0xb58(%rbp)
    971c:	00 00 00 00 
    9720:	48 8d 05 01 fa 00 00 	lea    0xfa01(%rip),%rax        # 19128 <g_375>
    9727:	48 89 85 b0 f4 ff ff 	mov    %rax,-0xb50(%rbp)
    972e:	48 8d 05 23 fd 00 00 	lea    0xfd23(%rip),%rax        # 19458 <g_929>
    9735:	48 89 85 b8 f4 ff ff 	mov    %rax,-0xb48(%rbp)
    973c:	48 8d 05 15 fd 00 00 	lea    0xfd15(%rip),%rax        # 19458 <g_929>
    9743:	48 89 85 c0 f4 ff ff 	mov    %rax,-0xb40(%rbp)
    974a:	48 8d 05 d7 f9 00 00 	lea    0xf9d7(%rip),%rax        # 19128 <g_375>
    9751:	48 89 85 c8 f4 ff ff 	mov    %rax,-0xb38(%rbp)
    9758:	48 c7 85 d0 f4 ff ff 	movq   $0x0,-0xb30(%rbp)
    975f:	00 00 00 00 
    9763:	48 c7 85 d8 f4 ff ff 	movq   $0x0,-0xb28(%rbp)
    976a:	00 00 00 00 
    976e:	48 c7 85 e0 f4 ff ff 	movq   $0x0,-0xb20(%rbp)
    9775:	00 00 00 00 
    9779:	48 8d 85 48 da ff ff 	lea    -0x25b8(%rbp),%rax
    9780:	48 89 85 e8 f4 ff ff 	mov    %rax,-0xb18(%rbp)
    9787:	48 8d 85 48 da ff ff 	lea    -0x25b8(%rbp),%rax
    978e:	48 89 85 f0 f4 ff ff 	mov    %rax,-0xb10(%rbp)
    9795:	48 8d 05 bc fc 00 00 	lea    0xfcbc(%rip),%rax        # 19458 <g_929>
    979c:	48 89 85 f8 f4 ff ff 	mov    %rax,-0xb08(%rbp)
    97a3:	48 8d 05 ae fc 00 00 	lea    0xfcae(%rip),%rax        # 19458 <g_929>
    97aa:	48 89 85 00 f5 ff ff 	mov    %rax,-0xb00(%rbp)
    97b1:	48 8d 05 a0 fc 00 00 	lea    0xfca0(%rip),%rax        # 19458 <g_929>
    97b8:	48 89 85 08 f5 ff ff 	mov    %rax,-0xaf8(%rbp)
    97bf:	48 8d 85 48 da ff ff 	lea    -0x25b8(%rbp),%rax
    97c6:	48 89 85 10 f5 ff ff 	mov    %rax,-0xaf0(%rbp)
    97cd:	48 8d 85 48 da ff ff 	lea    -0x25b8(%rbp),%rax
    97d4:	48 89 85 18 f5 ff ff 	mov    %rax,-0xae8(%rbp)
    97db:	48 8d 85 48 da ff ff 	lea    -0x25b8(%rbp),%rax
    97e2:	48 89 85 20 f5 ff ff 	mov    %rax,-0xae0(%rbp)
    97e9:	48 8d 85 48 da ff ff 	lea    -0x25b8(%rbp),%rax
    97f0:	48 89 85 28 f5 ff ff 	mov    %rax,-0xad8(%rbp)
    97f7:	48 8d 05 2a f9 00 00 	lea    0xf92a(%rip),%rax        # 19128 <g_375>
    97fe:	48 89 85 30 f5 ff ff 	mov    %rax,-0xad0(%rbp)
    9805:	48 c7 85 38 f5 ff ff 	movq   $0x0,-0xac8(%rbp)
    980c:	00 00 00 00 
    9810:	48 8d 85 48 da ff ff 	lea    -0x25b8(%rbp),%rax
    9817:	48 89 85 40 f5 ff ff 	mov    %rax,-0xac0(%rbp)
    981e:	48 8d 85 48 da ff ff 	lea    -0x25b8(%rbp),%rax
    9825:	48 89 85 48 f5 ff ff 	mov    %rax,-0xab8(%rbp)
    982c:	48 8d 05 25 fc 00 00 	lea    0xfc25(%rip),%rax        # 19458 <g_929>
    9833:	48 89 85 50 f5 ff ff 	mov    %rax,-0xab0(%rbp)
    983a:	48 8d 05 e7 f8 00 00 	lea    0xf8e7(%rip),%rax        # 19128 <g_375>
    9841:	48 89 85 58 f5 ff ff 	mov    %rax,-0xaa8(%rbp)
    9848:	48 8d 85 48 da ff ff 	lea    -0x25b8(%rbp),%rax
    984f:	48 89 85 60 f5 ff ff 	mov    %rax,-0xaa0(%rbp)
    9856:	48 c7 85 68 f5 ff ff 	movq   $0x0,-0xa98(%rbp)
    985d:	00 00 00 00 
    9861:	48 8d 05 c0 f8 00 00 	lea    0xf8c0(%rip),%rax        # 19128 <g_375>
    9868:	48 89 85 70 f5 ff ff 	mov    %rax,-0xa90(%rbp)
    986f:	48 c7 85 78 f5 ff ff 	movq   $0x0,-0xa88(%rbp)
    9876:	00 00 00 00 
    987a:	48 8d 85 48 da ff ff 	lea    -0x25b8(%rbp),%rax
    9881:	48 89 85 80 f5 ff ff 	mov    %rax,-0xa80(%rbp)
    9888:	48 8d 05 99 f8 00 00 	lea    0xf899(%rip),%rax        # 19128 <g_375>
    988f:	48 89 85 88 f5 ff ff 	mov    %rax,-0xa78(%rbp)
    9896:	48 8d 05 bb fb 00 00 	lea    0xfbbb(%rip),%rax        # 19458 <g_929>
    989d:	48 89 85 90 f5 ff ff 	mov    %rax,-0xa70(%rbp)
    98a4:	48 8d 85 48 da ff ff 	lea    -0x25b8(%rbp),%rax
    98ab:	48 89 85 98 f5 ff ff 	mov    %rax,-0xa68(%rbp)
    98b2:	48 8d 85 48 da ff ff 	lea    -0x25b8(%rbp),%rax
    98b9:	48 89 85 a0 f5 ff ff 	mov    %rax,-0xa60(%rbp)
    98c0:	48 c7 85 a8 f5 ff ff 	movq   $0x0,-0xa58(%rbp)
    98c7:	00 00 00 00 
    98cb:	48 8d 05 56 f8 00 00 	lea    0xf856(%rip),%rax        # 19128 <g_375>
    98d2:	48 89 85 b0 f5 ff ff 	mov    %rax,-0xa50(%rbp)
    98d9:	48 8d 85 48 da ff ff 	lea    -0x25b8(%rbp),%rax
    98e0:	48 89 85 b8 f5 ff ff 	mov    %rax,-0xa48(%rbp)
    98e7:	48 8d 85 48 da ff ff 	lea    -0x25b8(%rbp),%rax
    98ee:	48 89 85 c0 f5 ff ff 	mov    %rax,-0xa40(%rbp)
    98f5:	48 8d 85 48 da ff ff 	lea    -0x25b8(%rbp),%rax
    98fc:	48 89 85 c8 f5 ff ff 	mov    %rax,-0xa38(%rbp)
    9903:	48 8d 85 48 da ff ff 	lea    -0x25b8(%rbp),%rax
    990a:	48 89 85 d0 f5 ff ff 	mov    %rax,-0xa30(%rbp)
    9911:	48 8d 05 40 fb 00 00 	lea    0xfb40(%rip),%rax        # 19458 <g_929>
    9918:	48 89 85 d8 f5 ff ff 	mov    %rax,-0xa28(%rbp)
    991f:	48 8d 05 32 fb 00 00 	lea    0xfb32(%rip),%rax        # 19458 <g_929>
    9926:	48 89 85 e0 f5 ff ff 	mov    %rax,-0xa20(%rbp)
    992d:	48 8d 05 24 fb 00 00 	lea    0xfb24(%rip),%rax        # 19458 <g_929>
    9934:	48 89 85 e8 f5 ff ff 	mov    %rax,-0xa18(%rbp)
    993b:	48 8d 85 48 da ff ff 	lea    -0x25b8(%rbp),%rax
    9942:	48 89 85 f0 f5 ff ff 	mov    %rax,-0xa10(%rbp)
    9949:	48 8d 85 48 da ff ff 	lea    -0x25b8(%rbp),%rax
    9950:	48 89 85 f8 f5 ff ff 	mov    %rax,-0xa08(%rbp)
    9957:	48 c7 85 00 f6 ff ff 	movq   $0x0,-0xa00(%rbp)
    995e:	00 00 00 00 
    9962:	48 c7 85 08 f6 ff ff 	movq   $0x0,-0x9f8(%rbp)
    9969:	00 00 00 00 
    996d:	48 c7 85 10 f6 ff ff 	movq   $0x0,-0x9f0(%rbp)
    9974:	00 00 00 00 
    9978:	48 8d 05 a9 f7 00 00 	lea    0xf7a9(%rip),%rax        # 19128 <g_375>
    997f:	48 89 85 18 f6 ff ff 	mov    %rax,-0x9e8(%rbp)
    9986:	48 8d 05 cb fa 00 00 	lea    0xfacb(%rip),%rax        # 19458 <g_929>
    998d:	48 89 85 20 f6 ff ff 	mov    %rax,-0x9e0(%rbp)
    9994:	48 8d 05 bd fa 00 00 	lea    0xfabd(%rip),%rax        # 19458 <g_929>
    999b:	48 89 85 28 f6 ff ff 	mov    %rax,-0x9d8(%rbp)
    99a2:	48 8d 05 7f f7 00 00 	lea    0xf77f(%rip),%rax        # 19128 <g_375>
    99a9:	48 89 85 30 f6 ff ff 	mov    %rax,-0x9d0(%rbp)
    99b0:	48 c7 85 38 f6 ff ff 	movq   $0x0,-0x9c8(%rbp)
    99b7:	00 00 00 00 
    99bb:	48 8d 85 48 da ff ff 	lea    -0x25b8(%rbp),%rax
    99c2:	48 89 85 40 f6 ff ff 	mov    %rax,-0x9c0(%rbp)
    99c9:	48 c7 85 48 f6 ff ff 	movq   $0x0,-0x9b8(%rbp)
    99d0:	00 00 00 00 
    99d4:	48 8d 85 48 da ff ff 	lea    -0x25b8(%rbp),%rax
    99db:	48 89 85 50 f6 ff ff 	mov    %rax,-0x9b0(%rbp)
    99e2:	48 8d 05 6f fa 00 00 	lea    0xfa6f(%rip),%rax        # 19458 <g_929>
    99e9:	48 89 85 58 f6 ff ff 	mov    %rax,-0x9a8(%rbp)
    99f0:	48 c7 85 60 f6 ff ff 	movq   $0x0,-0x9a0(%rbp)
    99f7:	00 00 00 00 
    99fb:	48 8d 85 48 da ff ff 	lea    -0x25b8(%rbp),%rax
    9a02:	48 89 85 68 f6 ff ff 	mov    %rax,-0x998(%rbp)
    9a09:	48 c7 85 70 f6 ff ff 	movq   $0x0,-0x990(%rbp)
    9a10:	00 00 00 00 
    9a14:	48 8d 85 48 da ff ff 	lea    -0x25b8(%rbp),%rax
    9a1b:	48 89 85 78 f6 ff ff 	mov    %rax,-0x988(%rbp)
    9a22:	48 8d 05 ff f6 00 00 	lea    0xf6ff(%rip),%rax        # 19128 <g_375>
    9a29:	48 89 85 80 f6 ff ff 	mov    %rax,-0x980(%rbp)
    9a30:	48 8d 85 48 da ff ff 	lea    -0x25b8(%rbp),%rax
    9a37:	48 89 85 88 f6 ff ff 	mov    %rax,-0x978(%rbp)
    9a3e:	48 8d 85 48 da ff ff 	lea    -0x25b8(%rbp),%rax
    9a45:	48 89 85 90 f6 ff ff 	mov    %rax,-0x970(%rbp)
    9a4c:	48 8d 85 48 da ff ff 	lea    -0x25b8(%rbp),%rax
    9a53:	48 89 85 98 f6 ff ff 	mov    %rax,-0x968(%rbp)
    9a5a:	48 8d 05 f7 f9 00 00 	lea    0xf9f7(%rip),%rax        # 19458 <g_929>
    9a61:	48 89 85 a0 f6 ff ff 	mov    %rax,-0x960(%rbp)
    9a68:	48 8d 05 e9 f9 00 00 	lea    0xf9e9(%rip),%rax        # 19458 <g_929>
    9a6f:	48 89 85 a8 f6 ff ff 	mov    %rax,-0x958(%rbp)
    9a76:	48 8d 05 db f9 00 00 	lea    0xf9db(%rip),%rax        # 19458 <g_929>
    9a7d:	48 89 85 b0 f6 ff ff 	mov    %rax,-0x950(%rbp)
    9a84:	48 8d 85 48 da ff ff 	lea    -0x25b8(%rbp),%rax
    9a8b:	48 89 85 b8 f6 ff ff 	mov    %rax,-0x948(%rbp)
    9a92:	48 8d 85 48 da ff ff 	lea    -0x25b8(%rbp),%rax
    9a99:	48 89 85 c0 f6 ff ff 	mov    %rax,-0x940(%rbp)
    9aa0:	48 8d 85 48 da ff ff 	lea    -0x25b8(%rbp),%rax
    9aa7:	48 89 85 c8 f6 ff ff 	mov    %rax,-0x938(%rbp)
    9aae:	48 8d 05 73 f6 00 00 	lea    0xf673(%rip),%rax        # 19128 <g_375>
    9ab5:	48 89 85 d0 f6 ff ff 	mov    %rax,-0x930(%rbp)
    9abc:	48 8d 85 48 da ff ff 	lea    -0x25b8(%rbp),%rax
    9ac3:	48 89 85 d8 f6 ff ff 	mov    %rax,-0x928(%rbp)
    9aca:	48 c7 85 e0 f6 ff ff 	movq   $0x0,-0x920(%rbp)
    9ad1:	00 00 00 00 
    9ad5:	48 8d 85 48 da ff ff 	lea    -0x25b8(%rbp),%rax
    9adc:	48 89 85 e8 f6 ff ff 	mov    %rax,-0x918(%rbp)
    9ae3:	48 c7 85 f0 f6 ff ff 	movq   $0x0,-0x910(%rbp)
    9aea:	00 00 00 00 
    9aee:	48 8d 05 63 f9 00 00 	lea    0xf963(%rip),%rax        # 19458 <g_929>
    9af5:	48 89 85 f8 f6 ff ff 	mov    %rax,-0x908(%rbp)
    9afc:	48 8d 85 48 da ff ff 	lea    -0x25b8(%rbp),%rax
    9b03:	48 89 85 00 f7 ff ff 	mov    %rax,-0x900(%rbp)
    9b0a:	48 c7 85 08 f7 ff ff 	movq   $0x0,-0x8f8(%rbp)
    9b11:	00 00 00 00 
    9b15:	48 8d 85 48 da ff ff 	lea    -0x25b8(%rbp),%rax
    9b1c:	48 89 85 10 f7 ff ff 	mov    %rax,-0x8f0(%rbp)
    9b23:	48 c7 85 18 f7 ff ff 	movq   $0x0,-0x8e8(%rbp)
    9b2a:	00 00 00 00 
    9b2e:	48 8d 05 f3 f5 00 00 	lea    0xf5f3(%rip),%rax        # 19128 <g_375>
    9b35:	48 89 85 20 f7 ff ff 	mov    %rax,-0x8e0(%rbp)
    9b3c:	48 8d 05 15 f9 00 00 	lea    0xf915(%rip),%rax        # 19458 <g_929>
    9b43:	48 89 85 28 f7 ff ff 	mov    %rax,-0x8d8(%rbp)
    9b4a:	48 8d 05 07 f9 00 00 	lea    0xf907(%rip),%rax        # 19458 <g_929>
    9b51:	48 89 85 30 f7 ff ff 	mov    %rax,-0x8d0(%rbp)
    9b58:	48 8d 05 c9 f5 00 00 	lea    0xf5c9(%rip),%rax        # 19128 <g_375>
    9b5f:	48 89 85 38 f7 ff ff 	mov    %rax,-0x8c8(%rbp)
    9b66:	48 c7 85 40 f7 ff ff 	movq   $0x0,-0x8c0(%rbp)
    9b6d:	00 00 00 00 
    9b71:	48 c7 85 48 f7 ff ff 	movq   $0x0,-0x8b8(%rbp)
    9b78:	00 00 00 00 
    9b7c:	48 c7 85 50 f7 ff ff 	movq   $0x0,-0x8b0(%rbp)
    9b83:	00 00 00 00 
    9b87:	48 8d 85 48 da ff ff 	lea    -0x25b8(%rbp),%rax
    9b8e:	48 89 85 58 f7 ff ff 	mov    %rax,-0x8a8(%rbp)
    9b95:	48 8d 85 48 da ff ff 	lea    -0x25b8(%rbp),%rax
    9b9c:	48 89 85 60 f7 ff ff 	mov    %rax,-0x8a0(%rbp)
    9ba3:	48 8d 05 ae f8 00 00 	lea    0xf8ae(%rip),%rax        # 19458 <g_929>
    9baa:	48 89 85 68 f7 ff ff 	mov    %rax,-0x898(%rbp)
    9bb1:	48 8d 05 a0 f8 00 00 	lea    0xf8a0(%rip),%rax        # 19458 <g_929>
    9bb8:	48 89 85 70 f7 ff ff 	mov    %rax,-0x890(%rbp)
    9bbf:	48 8d 05 92 f8 00 00 	lea    0xf892(%rip),%rax        # 19458 <g_929>
    9bc6:	48 89 85 78 f7 ff ff 	mov    %rax,-0x888(%rbp)
    9bcd:	48 8d 85 48 da ff ff 	lea    -0x25b8(%rbp),%rax
    9bd4:	48 89 85 80 f7 ff ff 	mov    %rax,-0x880(%rbp)
    9bdb:	48 8d 85 48 da ff ff 	lea    -0x25b8(%rbp),%rax
    9be2:	48 89 85 88 f7 ff ff 	mov    %rax,-0x878(%rbp)
    9be9:	48 8d 85 48 da ff ff 	lea    -0x25b8(%rbp),%rax
    9bf0:	48 89 85 90 f7 ff ff 	mov    %rax,-0x870(%rbp)
    9bf7:	48 8d 85 48 da ff ff 	lea    -0x25b8(%rbp),%rax
    9bfe:	48 89 85 98 f7 ff ff 	mov    %rax,-0x868(%rbp)
    9c05:	48 8d 05 1c f5 00 00 	lea    0xf51c(%rip),%rax        # 19128 <g_375>
    9c0c:	48 89 85 a0 f7 ff ff 	mov    %rax,-0x860(%rbp)
    9c13:	48 c7 85 a8 f7 ff ff 	movq   $0x0,-0x858(%rbp)
    9c1a:	00 00 00 00 
    9c1e:	48 8d 85 48 da ff ff 	lea    -0x25b8(%rbp),%rax
    9c25:	48 89 85 b0 f7 ff ff 	mov    %rax,-0x850(%rbp)
    9c2c:	48 8d 85 48 da ff ff 	lea    -0x25b8(%rbp),%rax
    9c33:	48 89 85 b8 f7 ff ff 	mov    %rax,-0x848(%rbp)
    9c3a:	48 8d 05 17 f8 00 00 	lea    0xf817(%rip),%rax        # 19458 <g_929>
    9c41:	48 89 85 c0 f7 ff ff 	mov    %rax,-0x840(%rbp)
    9c48:	48 8d 05 d9 f4 00 00 	lea    0xf4d9(%rip),%rax        # 19128 <g_375>
    9c4f:	48 89 85 c8 f7 ff ff 	mov    %rax,-0x838(%rbp)
    9c56:	48 8d 85 48 da ff ff 	lea    -0x25b8(%rbp),%rax
    9c5d:	48 89 85 d0 f7 ff ff 	mov    %rax,-0x830(%rbp)
    9c64:	48 c7 85 d8 f7 ff ff 	movq   $0x0,-0x828(%rbp)
    9c6b:	00 00 00 00 
    9c6f:	66 c7 85 d0 e1 ff ff 	movw   $0x2,-0x1e30(%rbp)
    9c76:	02 00 
    9c78:	66 c7 85 d2 e1 ff ff 	movw   $0xfe64,-0x1e2e(%rbp)
    9c7f:	64 fe 
    9c81:	66 c7 85 d4 e1 ff ff 	movw   $0xbd8b,-0x1e2c(%rbp)
    9c88:	8b bd 
    9c8a:	66 c7 85 d6 e1 ff ff 	movw   $0x7,-0x1e2a(%rbp)
    9c91:	07 00 
    9c93:	66 c7 85 d8 e1 ff ff 	movw   $0x1,-0x1e28(%rbp)
    9c9a:	01 00 
    9c9c:	66 c7 85 da e1 ff ff 	movw   $0x6420,-0x1e26(%rbp)
    9ca3:	20 64 
    9ca5:	66 c7 85 dc e1 ff ff 	movw   $0x3d25,-0x1e24(%rbp)
    9cac:	25 3d 
    9cae:	66 c7 85 de e1 ff ff 	movw   $0xffff,-0x1e22(%rbp)
    9cb5:	ff ff 
    9cb7:	66 c7 85 e0 e1 ff ff 	movw   $0xfffd,-0x1e20(%rbp)
    9cbe:	fd ff 
    9cc0:	66 c7 85 e2 e1 ff ff 	movw   $0xffff,-0x1e1e(%rbp)
    9cc7:	ff ff 
    9cc9:	66 c7 85 e4 e1 ff ff 	movw   $0xffff,-0x1e1c(%rbp)
    9cd0:	ff ff 
    9cd2:	66 c7 85 e6 e1 ff ff 	movw   $0x1,-0x1e1a(%rbp)
    9cd9:	01 00 
    9cdb:	66 c7 85 e8 e1 ff ff 	movw   $0x8fea,-0x1e18(%rbp)
    9ce2:	ea 8f 
    9ce4:	66 c7 85 ea e1 ff ff 	movw   $0x8,-0x1e16(%rbp)
    9ceb:	08 00 
    9ced:	66 c7 85 ec e1 ff ff 	movw   $0x8fea,-0x1e14(%rbp)
    9cf4:	ea 8f 
    9cf6:	66 c7 85 ee e1 ff ff 	movw   $0x1,-0x1e12(%rbp)
    9cfd:	01 00 
    9cff:	66 c7 85 f0 e1 ff ff 	movw   $0xffff,-0x1e10(%rbp)
    9d06:	ff ff 
    9d08:	66 c7 85 f2 e1 ff ff 	movw   $0xffff,-0x1e0e(%rbp)
    9d0f:	ff ff 
    9d11:	66 c7 85 f4 e1 ff ff 	movw   $0xfffd,-0x1e0c(%rbp)
    9d18:	fd ff 
    9d1a:	66 c7 85 f6 e1 ff ff 	movw   $0xffff,-0x1e0a(%rbp)
    9d21:	ff ff 
    9d23:	66 c7 85 f8 e1 ff ff 	movw   $0x3d25,-0x1e08(%rbp)
    9d2a:	25 3d 
    9d2c:	66 c7 85 fa e1 ff ff 	movw   $0x6420,-0x1e06(%rbp)
    9d33:	20 64 
    9d35:	66 c7 85 fc e1 ff ff 	movw   $0x1,-0x1e04(%rbp)
    9d3c:	01 00 
    9d3e:	66 c7 85 fe e1 ff ff 	movw   $0x7,-0x1e02(%rbp)
    9d45:	07 00 
    9d47:	66 c7 85 00 e2 ff ff 	movw   $0xbd8b,-0x1e00(%rbp)
    9d4e:	8b bd 
    9d50:	66 c7 85 02 e2 ff ff 	movw   $0xfe64,-0x1dfe(%rbp)
    9d57:	64 fe 
    9d59:	66 c7 85 04 e2 ff ff 	movw   $0x2,-0x1dfc(%rbp)
    9d60:	02 00 
    9d62:	66 c7 85 06 e2 ff ff 	movw   $0xfe64,-0x1dfa(%rbp)
    9d69:	64 fe 
    9d6b:	66 c7 85 08 e2 ff ff 	movw   $0xbd8b,-0x1df8(%rbp)
    9d72:	8b bd 
    9d74:	66 c7 85 0a e2 ff ff 	movw   $0x7,-0x1df6(%rbp)
    9d7b:	07 00 
    9d7d:	66 c7 85 0c e2 ff ff 	movw   $0x1,-0x1df4(%rbp)
    9d84:	01 00 
    9d86:	66 c7 85 0e e2 ff ff 	movw   $0x6420,-0x1df2(%rbp)
    9d8d:	20 64 
    9d8f:	66 c7 85 10 e2 ff ff 	movw   $0x3d25,-0x1df0(%rbp)
    9d96:	25 3d 
    9d98:	66 c7 85 12 e2 ff ff 	movw   $0xffff,-0x1dee(%rbp)
    9d9f:	ff ff 
    9da1:	66 c7 85 14 e2 ff ff 	movw   $0xfffd,-0x1dec(%rbp)
    9da8:	fd ff 
    9daa:	66 c7 85 16 e2 ff ff 	movw   $0xffff,-0x1dea(%rbp)
    9db1:	ff ff 
    9db3:	66 c7 85 18 e2 ff ff 	movw   $0xffff,-0x1de8(%rbp)
    9dba:	ff ff 
    9dbc:	66 c7 85 1a e2 ff ff 	movw   $0x1,-0x1de6(%rbp)
    9dc3:	01 00 
    9dc5:	66 c7 85 1c e2 ff ff 	movw   $0x8fea,-0x1de4(%rbp)
    9dcc:	ea 8f 
    9dce:	66 c7 85 1e e2 ff ff 	movw   $0x8,-0x1de2(%rbp)
    9dd5:	08 00 
    9dd7:	66 c7 85 20 e2 ff ff 	movw   $0x8fea,-0x1de0(%rbp)
    9dde:	ea 8f 
    9de0:	66 c7 85 22 e2 ff ff 	movw   $0x1,-0x1dde(%rbp)
    9de7:	01 00 
    9de9:	66 c7 85 24 e2 ff ff 	movw   $0xffff,-0x1ddc(%rbp)
    9df0:	ff ff 
    9df2:	66 c7 85 26 e2 ff ff 	movw   $0xffff,-0x1dda(%rbp)
    9df9:	ff ff 
    9dfb:	66 c7 85 28 e2 ff ff 	movw   $0xfffd,-0x1dd8(%rbp)
    9e02:	fd ff 
    9e04:	66 c7 85 2a e2 ff ff 	movw   $0xffff,-0x1dd6(%rbp)
    9e0b:	ff ff 
    9e0d:	66 c7 85 2c e2 ff ff 	movw   $0x3d25,-0x1dd4(%rbp)
    9e14:	25 3d 
    9e16:	66 c7 85 2e e2 ff ff 	movw   $0x6420,-0x1dd2(%rbp)
    9e1d:	20 64 
    9e1f:	66 c7 85 30 e2 ff ff 	movw   $0x1,-0x1dd0(%rbp)
    9e26:	01 00 
    9e28:	66 c7 85 32 e2 ff ff 	movw   $0x7,-0x1dce(%rbp)
    9e2f:	07 00 
    9e31:	66 c7 85 34 e2 ff ff 	movw   $0xbd8b,-0x1dcc(%rbp)
    9e38:	8b bd 
    9e3a:	66 c7 85 36 e2 ff ff 	movw   $0xfe64,-0x1dca(%rbp)
    9e41:	64 fe 
    9e43:	66 c7 85 38 e2 ff ff 	movw   $0x2,-0x1dc8(%rbp)
    9e4a:	02 00 
    9e4c:	66 c7 85 3a e2 ff ff 	movw   $0xfe64,-0x1dc6(%rbp)
    9e53:	64 fe 
    9e55:	66 c7 85 3c e2 ff ff 	movw   $0xbd8b,-0x1dc4(%rbp)
    9e5c:	8b bd 
    9e5e:	66 c7 85 3e e2 ff ff 	movw   $0x7,-0x1dc2(%rbp)
    9e65:	07 00 
    9e67:	66 c7 85 40 e2 ff ff 	movw   $0x1,-0x1dc0(%rbp)
    9e6e:	01 00 
    9e70:	66 c7 85 42 e2 ff ff 	movw   $0x6420,-0x1dbe(%rbp)
    9e77:	20 64 
    9e79:	66 c7 85 44 e2 ff ff 	movw   $0x3d25,-0x1dbc(%rbp)
    9e80:	25 3d 
    9e82:	66 c7 85 46 e2 ff ff 	movw   $0xffff,-0x1dba(%rbp)
    9e89:	ff ff 
    9e8b:	66 c7 85 48 e2 ff ff 	movw   $0xfffd,-0x1db8(%rbp)
    9e92:	fd ff 
    9e94:	66 c7 85 4a e2 ff ff 	movw   $0xffff,-0x1db6(%rbp)
    9e9b:	ff ff 
    9e9d:	66 c7 85 4c e2 ff ff 	movw   $0xffff,-0x1db4(%rbp)
    9ea4:	ff ff 
    9ea6:	66 c7 85 4e e2 ff ff 	movw   $0x1,-0x1db2(%rbp)
    9ead:	01 00 
    9eaf:	c7 85 b0 d8 ff ff 9e 	movl   $0x21402a9e,-0x2750(%rbp)
    9eb6:	2a 40 21 
    9eb9:	48 c7 85 f0 db ff ff 	movq   $0xfffffffffffffffe,-0x2410(%rbp)
    9ec0:	fe ff ff ff 
    9ec4:	48 b8 d2 66 39 dc dd 	movabs $0x8c3a52dddc3966d2,%rax
    9ecb:	52 3a 8c 
    9ece:	48 89 85 50 da ff ff 	mov    %rax,-0x25b0(%rbp)
    9ed5:	48 8d 85 20 df ff ff 	lea    -0x20e0(%rbp),%rax
    9edc:	48 83 c0 10          	add    $0x10,%rax
    9ee0:	48 89 85 58 da ff ff 	mov    %rax,-0x25a8(%rbp)
    9ee7:	48 8d 85 58 da ff ff 	lea    -0x25a8(%rbp),%rax
    9eee:	48 89 85 e8 db ff ff 	mov    %rax,-0x2418(%rbp)
    9ef5:	c7 85 ac d8 ff ff 00 	movl   $0x0,-0x2754(%rbp)
    9efc:	00 00 00 
    9eff:	eb 1b                	jmp    9f1c <func_27+0x1202>
    9f01:	8b 85 ac d8 ff ff    	mov    -0x2754(%rbp),%eax
    9f07:	48 98                	cltq   
    9f09:	48 c7 84 c5 00 df ff 	movq   $0x0,-0x2100(%rbp,%rax,8)
    9f10:	ff 00 00 00 00 
    9f15:	83 85 ac d8 ff ff 01 	addl   $0x1,-0x2754(%rbp)
    9f1c:	83 bd ac d8 ff ff 02 	cmpl   $0x2,-0x2754(%rbp)
    9f23:	7e dc                	jle    9f01 <func_27+0x11e7>
    9f25:	c7 85 ac d8 ff ff 00 	movl   $0x0,-0x2754(%rbp)
    9f2c:	00 00 00 
    9f2f:	eb 1a                	jmp    9f4b <func_27+0x1231>
    9f31:	8b 85 ac d8 ff ff    	mov    -0x2754(%rbp),%eax
    9f37:	48 98                	cltq   
    9f39:	c7 84 85 ec de ff ff 	movl   $0x52b75cd0,-0x2114(%rbp,%rax,4)
    9f40:	d0 5c b7 52 
    9f44:	83 85 ac d8 ff ff 01 	addl   $0x1,-0x2754(%rbp)
    9f4b:	83 bd ac d8 ff ff 00 	cmpl   $0x0,-0x2754(%rbp)
    9f52:	7e dd                	jle    9f31 <func_27+0x1217>
    9f54:	c7 85 ac d8 ff ff 00 	movl   $0x0,-0x2754(%rbp)
    9f5b:	00 00 00 
    9f5e:	eb 1a                	jmp    9f7a <func_27+0x1260>
    9f60:	8b 85 ac d8 ff ff    	mov    -0x2754(%rbp),%eax
    9f66:	48 98                	cltq   
    9f68:	c7 84 85 f0 de ff ff 	movl   $0xffffffff,-0x2110(%rbp,%rax,4)
    9f6f:	ff ff ff ff 
    9f73:	83 85 ac d8 ff ff 01 	addl   $0x1,-0x2754(%rbp)
    9f7a:	83 bd ac d8 ff ff 00 	cmpl   $0x0,-0x2754(%rbp)
    9f81:	7e dd                	jle    9f60 <func_27+0x1246>
    9f83:	c7 85 ac d8 ff ff 00 	movl   $0x0,-0x2754(%rbp)
    9f8a:	00 00 00 
    9f8d:	eb 1e                	jmp    9fad <func_27+0x1293>
    9f8f:	8b 85 ac d8 ff ff    	mov    -0x2754(%rbp),%eax
    9f95:	48 98                	cltq   
    9f97:	48 8d 15 7a f4 00 00 	lea    0xf47a(%rip),%rdx        # 19418 <g_714+0x38>
    9f9e:	48 89 94 c5 20 df ff 	mov    %rdx,-0x20e0(%rbp,%rax,8)
    9fa5:	ff 
    9fa6:	83 85 ac d8 ff ff 01 	addl   $0x1,-0x2754(%rbp)
    9fad:	83 bd ac d8 ff ff 02 	cmpl   $0x2,-0x2754(%rbp)
    9fb4:	7e d9                	jle    9f8f <func_27+0x1275>
    9fb6:	90                   	nop
    9fb7:	f3 0f 1e fa          	endbr64 
    9fbb:	48 8b 05 4e 0c 01 00 	mov    0x10c4e(%rip),%rax        # 1ac10 <g_213>
    9fc2:	48 8b 00             	mov    (%rax),%rax
    9fc5:	8b 95 98 e6 ff ff    	mov    -0x1968(%rbp),%edx
    9fcb:	89 d2                	mov    %edx,%edx
    9fcd:	48 21 d0             	and    %rdx,%rax
    9fd0:	48 83 e0 fb          	and    $0xfffffffffffffffb,%rax
    9fd4:	49 89 c4             	mov    %rax,%r12
    9fd7:	48 8b 95 10 df ff ff 	mov    -0x20f0(%rbp),%rdx
    9fde:	48 8b 05 db 0e 01 00 	mov    0x10edb(%rip),%rax        # 1aec0 <g_573>
    9fe5:	48 39 c2             	cmp    %rax,%rdx
    9fe8:	0f 95 c0             	setne  %al
    9feb:	0f b6 d0             	movzbl %al,%edx
    9fee:	8b 85 4c d8 ff ff    	mov    -0x27b4(%rbp),%eax
    9ff4:	31 d0                	xor    %edx,%eax
    9ff6:	89 85 4c d8 ff ff    	mov    %eax,-0x27b4(%rbp)
    9ffc:	8b 85 4c d8 ff ff    	mov    -0x27b4(%rbp),%eax
    a002:	85 c0                	test   %eax,%eax
    a004:	75 68                	jne    a06e <func_27+0x1354>
    a006:	48 8b 05 d3 0a 01 00 	mov    0x10ad3(%rip),%rax        # 1aae0 <g_42>
    a00d:	0f b6 00             	movzbl (%rax),%eax
    a010:	0f be d8             	movsbl %al,%ebx
    a013:	0f b6 85 1c d8 ff ff 	movzbl -0x27e4(%rbp),%eax
    a01a:	0f b6 d0             	movzbl %al,%edx
    a01d:	48 8b 85 e8 d9 ff ff 	mov    -0x2618(%rbp),%rax
    a024:	48 85 c0             	test   %rax,%rax
    a027:	0f 94 c0             	sete   %al
    a02a:	0f b6 c8             	movzbl %al,%ecx
    a02d:	48 8b 85 40 dc ff ff 	mov    -0x23c0(%rbp),%rax
    a034:	48 89 08             	mov    %rcx,(%rax)
    a037:	48 8b 85 40 dc ff ff 	mov    -0x23c0(%rbp),%rax
    a03e:	48 8b 00             	mov    (%rax),%rax
    a041:	48 89 d6             	mov    %rdx,%rsi
    a044:	48 89 c7             	mov    %rax,%rdi
    a047:	e8 34 c0 ff ff       	callq  6080 <safe_mod_func_uint64_t_u_u>
    a04c:	0f be c0             	movsbl %al,%eax
    a04f:	89 de                	mov    %ebx,%esi
    a051:	89 c7                	mov    %eax,%edi
    a053:	e8 12 b2 ff ff       	callq  526a <safe_div_func_int8_t_s_s>
    a058:	66 98                	cbtw   
    a05a:	0f b7 c0             	movzwl %ax,%eax
    a05d:	be 06 00 00 00       	mov    $0x6,%esi
    a062:	89 c7                	mov    %eax,%edi
    a064:	e8 11 be ff ff       	callq  5e7a <safe_rshift_func_uint16_t_u_u>
    a069:	66 85 c0             	test   %ax,%ax
    a06c:	74 07                	je     a075 <func_27+0x135b>
    a06e:	b8 01 00 00 00       	mov    $0x1,%eax
    a073:	eb 05                	jmp    a07a <func_27+0x1360>
    a075:	b8 00 00 00 00       	mov    $0x0,%eax
    a07a:	48 63 d0             	movslq %eax,%rdx
    a07d:	48 8b 05 ec ef 00 00 	mov    0xefec(%rip),%rax        # 19070 <g_86>
    a084:	48 31 d0             	xor    %rdx,%rax
    a087:	48 83 f0 01          	xor    $0x1,%rax
    a08b:	48 89 c2             	mov    %rax,%rdx
    a08e:	48 8b 85 08 d8 ff ff 	mov    -0x27f8(%rbp),%rax
    a095:	0f b6 00             	movzbl (%rax),%eax
    a098:	48 0f be c0          	movsbq %al,%rax
    a09c:	48 39 c2             	cmp    %rax,%rdx
    a09f:	0f 94 c0             	sete   %al
    a0a2:	0f b6 c0             	movzbl %al,%eax
    a0a5:	49 39 c4             	cmp    %rax,%r12
    a0a8:	0f 95 c0             	setne  %al
    a0ab:	0f b6 c0             	movzbl %al,%eax
    a0ae:	be 04 00 00 00       	mov    $0x4,%esi
    a0b3:	89 c7                	mov    %eax,%edi
    a0b5:	e8 21 bb ff ff       	callq  5bdb <safe_div_func_uint8_t_u_u>
    a0ba:	0f b6 85 1c d8 ff ff 	movzbl -0x27e4(%rbp),%eax
    a0c1:	0f b6 d0             	movzbl %al,%edx
    a0c4:	48 8b 05 4d 0b 01 00 	mov    0x10b4d(%rip),%rax        # 1ac18 <g_212>
    a0cb:	48 8b 00             	mov    (%rax),%rax
    a0ce:	48 8b 00             	mov    (%rax),%rax
    a0d1:	48 39 c2             	cmp    %rax,%rdx
    a0d4:	0f 8e cd 08 00 00    	jle    a9a7 <func_27+0x1c8d>
    a0da:	66 c7 85 3a d8 ff ff 	movw   $0x9d18,-0x27c6(%rbp)
    a0e1:	18 9d 
    a0e3:	c7 85 a0 da ff ff bc 	movl   $0xbbf5abbc,-0x2560(%rbp)
    a0ea:	ab f5 bb 
    a0ed:	48 8d 05 64 1f 01 00 	lea    0x11f64(%rip),%rax        # 1c058 <g_454>
    a0f4:	48 89 85 48 db ff ff 	mov    %rax,-0x24b8(%rbp)
    a0fb:	48 c7 85 50 db ff ff 	movq   $0x0,-0x24b0(%rbp)
    a102:	00 00 00 00 
    a106:	48 8d 05 13 f0 00 00 	lea    0xf013(%rip),%rax        # 19120 <g_371>
    a10d:	48 89 85 40 db ff ff 	mov    %rax,-0x24c0(%rbp)
    a114:	48 8d 05 fd ef 00 00 	lea    0xeffd(%rip),%rax        # 19118 <g_343>
    a11b:	48 89 85 28 db ff ff 	mov    %rax,-0x24d8(%rbp)
    a122:	48 8d 05 e7 ef 00 00 	lea    0xefe7(%rip),%rax        # 19110 <g_298>
    a129:	48 89 85 30 db ff ff 	mov    %rax,-0x24d0(%rbp)
    a130:	48 8d 05 8b f0 00 00 	lea    0xf08b(%rip),%rax        # 191c2 <g_518+0x62>
    a137:	48 89 85 38 db ff ff 	mov    %rax,-0x24c8(%rbp)
    a13e:	c6 85 98 da ff ff 5e 	movb   $0x5e,-0x2568(%rbp)
    a145:	48 8d 05 fc 1e 01 00 	lea    0x11efc(%rip),%rax        # 1c048 <g_53>
    a14c:	48 89 85 20 db ff ff 	mov    %rax,-0x24e0(%rbp)
    a153:	48 8d 05 0e ef 00 00 	lea    0xef0e(%rip),%rax        # 19068 <g_80>
    a15a:	48 89 85 e8 da ff ff 	mov    %rax,-0x2518(%rbp)
    a161:	48 c7 85 f0 da ff ff 	movq   $0x0,-0x2510(%rbp)
    a168:	00 00 00 00 
    a16c:	48 8d 05 a5 ef 00 00 	lea    0xefa5(%rip),%rax        # 19118 <g_343>
    a173:	48 89 85 f8 da ff ff 	mov    %rax,-0x2508(%rbp)
    a17a:	48 8d 85 4c d8 ff ff 	lea    -0x27b4(%rbp),%rax
    a181:	48 89 85 00 db ff ff 	mov    %rax,-0x2500(%rbp)
    a188:	48 8d 05 d9 ee 00 00 	lea    0xeed9(%rip),%rax        # 19068 <g_80>
    a18f:	48 89 85 08 db ff ff 	mov    %rax,-0x24f8(%rbp)
    a196:	48 8d 05 cb ee 00 00 	lea    0xeecb(%rip),%rax        # 19068 <g_80>
    a19d:	48 89 85 10 db ff ff 	mov    %rax,-0x24f0(%rbp)
    a1a4:	48 8d 85 a0 da ff ff 	lea    -0x2560(%rbp),%rax
    a1ab:	48 89 85 18 db ff ff 	mov    %rax,-0x24e8(%rbp)
    a1b2:	48 8d 85 4c d8 ff ff 	lea    -0x27b4(%rbp),%rax
    a1b9:	48 89 85 d8 da ff ff 	mov    %rax,-0x2528(%rbp)
    a1c0:	48 8d 05 a1 ee 00 00 	lea    0xeea1(%rip),%rax        # 19068 <g_80>
    a1c7:	48 89 85 e0 da ff ff 	mov    %rax,-0x2520(%rbp)
    a1ce:	48 8d 85 a0 da ff ff 	lea    -0x2560(%rbp),%rax
    a1d5:	48 89 85 b0 e6 ff ff 	mov    %rax,-0x1950(%rbp)
    a1dc:	48 8d 05 85 ee 00 00 	lea    0xee85(%rip),%rax        # 19068 <g_80>
    a1e3:	48 89 85 b8 e6 ff ff 	mov    %rax,-0x1948(%rbp)
    a1ea:	48 8d 05 77 ee 00 00 	lea    0xee77(%rip),%rax        # 19068 <g_80>
    a1f1:	48 89 85 c0 e6 ff ff 	mov    %rax,-0x1940(%rbp)
    a1f8:	48 8d 85 a0 da ff ff 	lea    -0x2560(%rbp),%rax
    a1ff:	48 89 85 c8 e6 ff ff 	mov    %rax,-0x1938(%rbp)
    a206:	48 8d 05 5b ee 00 00 	lea    0xee5b(%rip),%rax        # 19068 <g_80>
    a20d:	48 89 85 d0 e6 ff ff 	mov    %rax,-0x1930(%rbp)
    a214:	48 8d 05 4d ee 00 00 	lea    0xee4d(%rip),%rax        # 19068 <g_80>
    a21b:	48 89 85 d8 e6 ff ff 	mov    %rax,-0x1928(%rbp)
    a222:	48 8d 85 a0 da ff ff 	lea    -0x2560(%rbp),%rax
    a229:	48 89 85 e0 e6 ff ff 	mov    %rax,-0x1920(%rbp)
    a230:	48 8d 05 31 ee 00 00 	lea    0xee31(%rip),%rax        # 19068 <g_80>
    a237:	48 89 85 e8 e6 ff ff 	mov    %rax,-0x1918(%rbp)
    a23e:	48 8d 05 23 ee 00 00 	lea    0xee23(%rip),%rax        # 19068 <g_80>
    a245:	48 89 85 f0 e6 ff ff 	mov    %rax,-0x1910(%rbp)
    a24c:	48 8d 85 4c d8 ff ff 	lea    -0x27b4(%rbp),%rax
    a253:	48 89 85 f8 e6 ff ff 	mov    %rax,-0x1908(%rbp)
    a25a:	48 8d 05 07 ee 00 00 	lea    0xee07(%rip),%rax        # 19068 <g_80>
    a261:	48 89 85 00 e7 ff ff 	mov    %rax,-0x1900(%rbp)
    a268:	48 8d 05 f9 ed 00 00 	lea    0xedf9(%rip),%rax        # 19068 <g_80>
    a26f:	48 89 85 08 e7 ff ff 	mov    %rax,-0x18f8(%rbp)
    a276:	48 8d 85 4c d8 ff ff 	lea    -0x27b4(%rbp),%rax
    a27d:	48 89 85 10 e7 ff ff 	mov    %rax,-0x18f0(%rbp)
    a284:	48 8d 05 dd ed 00 00 	lea    0xeddd(%rip),%rax        # 19068 <g_80>
    a28b:	48 89 85 18 e7 ff ff 	mov    %rax,-0x18e8(%rbp)
    a292:	48 8d 05 cf ed 00 00 	lea    0xedcf(%rip),%rax        # 19068 <g_80>
    a299:	48 89 85 20 e7 ff ff 	mov    %rax,-0x18e0(%rbp)
    a2a0:	48 8d 85 4c d8 ff ff 	lea    -0x27b4(%rbp),%rax
    a2a7:	48 89 85 28 e7 ff ff 	mov    %rax,-0x18d8(%rbp)
    a2ae:	48 8d 05 b3 ed 00 00 	lea    0xedb3(%rip),%rax        # 19068 <g_80>
    a2b5:	48 89 85 30 e7 ff ff 	mov    %rax,-0x18d0(%rbp)
    a2bc:	48 8d 05 a5 ed 00 00 	lea    0xeda5(%rip),%rax        # 19068 <g_80>
    a2c3:	48 89 85 38 e7 ff ff 	mov    %rax,-0x18c8(%rbp)
    a2ca:	c7 45 c1 54 54 54 54 	movl   $0x54545454,-0x3f(%rbp)
    a2d1:	66 c7 45 c5 54 54    	movw   $0x5454,-0x3b(%rbp)
    a2d7:	c6 45 c7 54          	movb   $0x54,-0x39(%rbp)
    a2db:	48 8b 85 08 d8 ff ff 	mov    -0x27f8(%rbp),%rax
    a2e2:	0f b6 00             	movzbl (%rax),%eax
    a2e5:	0f be d8             	movsbl %al,%ebx
    a2e8:	48 8b 85 10 d8 ff ff 	mov    -0x27f0(%rbp),%rax
    a2ef:	44 0f bf e0          	movswl %ax,%r12d
    a2f3:	48 8d 05 4e ed 00 00 	lea    0xed4e(%rip),%rax        # 19048 <g_32+0x8>
    a2fa:	48 89 85 d0 da ff ff 	mov    %rax,-0x2530(%rbp)
    a301:	48 8b 85 d0 da ff ff 	mov    -0x2530(%rbp),%rax
    a308:	48 3b 85 48 dc ff ff 	cmp    -0x23b8(%rbp),%rax
    a30f:	0f 94 c0             	sete   %al
    a312:	0f b6 c0             	movzbl %al,%eax
    a315:	be 00 00 00 00       	mov    $0x0,%esi
    a31a:	89 c7                	mov    %eax,%edi
    a31c:	e8 1c ba ff ff       	callq  5d3d <safe_mul_func_uint16_t_u_u>
    a321:	4c 8b ad 10 d8 ff ff 	mov    -0x27f0(%rbp),%r13
    a328:	48 8b 85 e8 d9 ff ff 	mov    -0x2618(%rbp),%rax
    a32f:	48 39 85 48 db ff ff 	cmp    %rax,-0x24b8(%rbp)
    a336:	0f 95 c0             	setne  %al
    a339:	0f b6 c0             	movzbl %al,%eax
    a33c:	be 05 00 00 00       	mov    $0x5,%esi
    a341:	89 c7                	mov    %eax,%edi
    a343:	e8 76 b9 ff ff       	callq  5cbe <safe_rshift_func_uint8_t_u_u>
    a348:	0f b6 85 1c d8 ff ff 	movzbl -0x27e4(%rbp),%eax
    a34f:	0f b6 d0             	movzbl %al,%edx
    a352:	48 8b 85 40 db ff ff 	mov    -0x24c0(%rbp),%rax
    a359:	89 10                	mov    %edx,(%rax)
    a35b:	48 8b 85 40 db ff ff 	mov    -0x24c0(%rbp),%rax
    a362:	8b 00                	mov    (%rax),%eax
    a364:	0d f4 b9 2d c6       	or     $0xc62db9f4,%eax
    a369:	89 c2                	mov    %eax,%edx
    a36b:	48 8b 85 28 db ff ff 	mov    -0x24d8(%rbp),%rax
    a372:	89 10                	mov    %edx,(%rax)
    a374:	48 c7 c2 ff ff ff ff 	mov    $0xffffffffffffffff,%rdx
    a37b:	48 8b 85 30 db ff ff 	mov    -0x24d0(%rbp),%rax
    a382:	0f b7 00             	movzwl (%rax),%eax
    a385:	09 c2                	or     %eax,%edx
    a387:	48 8b 85 30 db ff ff 	mov    -0x24d0(%rbp),%rax
    a38e:	66 89 10             	mov    %dx,(%rax)
    a391:	48 8b 85 30 db ff ff 	mov    -0x24d0(%rbp),%rax
    a398:	0f b7 00             	movzwl (%rax),%eax
    a39b:	48 0f bf d0          	movswq %ax,%rdx
    a39f:	48 8b 85 10 d8 ff ff 	mov    -0x27f0(%rbp),%rax
    a3a6:	48 31 d0             	xor    %rdx,%rax
    a3a9:	4c 89 ee             	mov    %r13,%rsi
    a3ac:	48 89 c7             	mov    %rax,%rdi
    a3af:	e8 97 bc ff ff       	callq  604b <safe_sub_func_uint64_t_u_u>
    a3b4:	0f b7 15 cd ec 00 00 	movzwl 0xeccd(%rip),%edx        # 19088 <g_143>
    a3bb:	0f b7 d2             	movzwl %dx,%edx
    a3be:	48 39 d0             	cmp    %rdx,%rax
    a3c1:	76 08                	jbe    a3cb <func_27+0x16b1>
    a3c3:	8b 05 af ec 00 00    	mov    0xecaf(%rip),%eax        # 19078 <g_108>
    a3c9:	85 c0                	test   %eax,%eax
    a3cb:	48 8b 05 3e 08 01 00 	mov    0x1083e(%rip),%rax        # 1ac10 <g_213>
    a3d2:	48 8b 00             	mov    (%rax),%rax
    a3d5:	0f bf 85 3a d8 ff ff 	movswl -0x27c6(%rbp),%eax
    a3dc:	89 85 a0 da ff ff    	mov    %eax,-0x2560(%rbp)
    a3e2:	8b 85 a0 da ff ff    	mov    -0x2560(%rbp),%eax
    a3e8:	c1 e8 1f             	shr    $0x1f,%eax
    a3eb:	88 85 23 d8 ff ff    	mov    %al,-0x27dd(%rbp)
    a3f1:	0f b6 85 23 d8 ff ff 	movzbl -0x27dd(%rbp),%eax
    a3f8:	84 c0                	test   %al,%al
    a3fa:	74 19                	je     a415 <func_27+0x16fb>
    a3fc:	48 8b 05 55 08 01 00 	mov    0x10855(%rip),%rax        # 1ac58 <g_284>
    a403:	48 8b 00             	mov    (%rax),%rax
    a406:	0f b7 00             	movzwl (%rax),%eax
    a409:	66 85 c0             	test   %ax,%ax
    a40c:	74 07                	je     a415 <func_27+0x16fb>
    a40e:	b8 01 00 00 00       	mov    $0x1,%eax
    a413:	eb 05                	jmp    a41a <func_27+0x1700>
    a415:	b8 00 00 00 00       	mov    $0x0,%eax
    a41a:	85 c0                	test   %eax,%eax
    a41c:	0f 9f c0             	setg   %al
    a41f:	0f b6 d0             	movzbl %al,%edx
    a422:	48 8b 85 38 db ff ff 	mov    -0x24c8(%rbp),%rax
    a429:	66 89 10             	mov    %dx,(%rax)
    a42c:	48 8b 85 38 db ff ff 	mov    -0x24c8(%rbp),%rax
    a433:	0f b7 00             	movzwl (%rax),%eax
    a436:	98                   	cwtl   
    a437:	44 89 e6             	mov    %r12d,%esi
    a43a:	89 c7                	mov    %eax,%edi
    a43c:	e8 b4 af ff ff       	callq  53f5 <safe_mul_func_int16_t_s_s>
    a441:	0f be c0             	movsbl %al,%eax
    a444:	89 de                	mov    %ebx,%esi
    a446:	89 c7                	mov    %eax,%edi
    a448:	e8 1d ae ff ff       	callq  526a <safe_div_func_int8_t_s_s>
    a44d:	0f be d0             	movsbl %al,%edx
    a450:	0f b6 85 98 da ff ff 	movzbl -0x2568(%rbp),%eax
    a457:	0f b6 c0             	movzbl %al,%eax
    a45a:	39 c2                	cmp    %eax,%edx
    a45c:	0f 94 c0             	sete   %al
    a45f:	0f b6 c0             	movzbl %al,%eax
    a462:	89 85 4c d8 ff ff    	mov    %eax,-0x27b4(%rbp)
    a468:	8b 85 c8 e5 ff ff    	mov    -0x1a38(%rbp),%eax
    a46e:	85 c0                	test   %eax,%eax
    a470:	0f 84 14 05 00 00    	je     a98a <func_27+0x1c70>
    a476:	66 c7 85 38 d8 ff ff 	movw   $0x0,-0x27c8(%rbp)
    a47d:	00 00 
    a47f:	c7 85 80 d8 ff ff 00 	movl   $0x0,-0x2780(%rbp)
    a486:	00 00 00 
    a489:	48 c7 85 50 e2 ff ff 	movq   $0x0,-0x1db0(%rbp)
    a490:	00 00 00 00 
    a494:	48 8d 85 30 e3 ff ff 	lea    -0x1cd0(%rbp),%rax
    a49b:	48 05 68 03 00 00    	add    $0x368,%rax
    a4a1:	48 89 85 58 e2 ff ff 	mov    %rax,-0x1da8(%rbp)
    a4a8:	48 c7 85 60 e2 ff ff 	movq   $0x0,-0x1da0(%rbp)
    a4af:	00 00 00 00 
    a4b3:	48 c7 85 68 e2 ff ff 	movq   $0x0,-0x1d98(%rbp)
    a4ba:	00 00 00 00 
    a4be:	48 8d 85 30 e3 ff ff 	lea    -0x1cd0(%rbp),%rax
    a4c5:	48 05 68 03 00 00    	add    $0x368,%rax
    a4cb:	48 89 85 70 e2 ff ff 	mov    %rax,-0x1d90(%rbp)
    a4d2:	48 c7 85 78 e2 ff ff 	movq   $0x0,-0x1d88(%rbp)
    a4d9:	00 00 00 00 
    a4dd:	48 c7 85 80 e2 ff ff 	movq   $0x0,-0x1d80(%rbp)
    a4e4:	00 00 00 00 
    a4e8:	48 c7 85 b8 da ff ff 	movq   $0x0,-0x2548(%rbp)
    a4ef:	00 00 00 00 
    a4f3:	c7 85 4c d8 ff ff 00 	movl   $0x0,-0x27b4(%rbp)
    a4fa:	00 00 00 
    a4fd:	e9 77 04 00 00       	jmpq   a979 <func_27+0x1c5f>
    a502:	c7 85 84 d8 ff ff 87 	movl   $0x19a4e987,-0x277c(%rbp)
    a509:	e9 a4 19 
    a50c:	48 8d 05 cd eb 00 00 	lea    0xebcd(%rip),%rax        # 190e0 <g_195>
    a513:	48 89 85 c0 da ff ff 	mov    %rax,-0x2540(%rbp)
    a51a:	66 c7 85 36 d8 ff ff 	movw   $0xc686,-0x27ca(%rbp)
    a521:	86 c6 
    a523:	48 c7 85 e0 f7 ff ff 	movq   $0x0,-0x820(%rbp)
    a52a:	00 00 00 00 
    a52e:	48 8d 85 50 e2 ff ff 	lea    -0x1db0(%rbp),%rax
    a535:	48 83 c0 30          	add    $0x30,%rax
    a539:	48 89 85 e8 f7 ff ff 	mov    %rax,-0x818(%rbp)
    a540:	48 8d 85 50 e2 ff ff 	lea    -0x1db0(%rbp),%rax
    a547:	48 83 c0 30          	add    $0x30,%rax
    a54b:	48 89 85 f0 f7 ff ff 	mov    %rax,-0x810(%rbp)
    a552:	48 8d 85 50 e2 ff ff 	lea    -0x1db0(%rbp),%rax
    a559:	48 83 c0 30          	add    $0x30,%rax
    a55d:	48 89 85 f8 f7 ff ff 	mov    %rax,-0x808(%rbp)
    a564:	48 8d 85 50 e2 ff ff 	lea    -0x1db0(%rbp),%rax
    a56b:	48 83 c0 30          	add    $0x30,%rax
    a56f:	48 89 85 00 f8 ff ff 	mov    %rax,-0x800(%rbp)
    a576:	48 c7 85 08 f8 ff ff 	movq   $0x0,-0x7f8(%rbp)
    a57d:	00 00 00 00 
    a581:	48 8d 85 50 e2 ff ff 	lea    -0x1db0(%rbp),%rax
    a588:	48 83 c0 30          	add    $0x30,%rax
    a58c:	48 89 85 10 f8 ff ff 	mov    %rax,-0x7f0(%rbp)
    a593:	48 8d 85 50 e2 ff ff 	lea    -0x1db0(%rbp),%rax
    a59a:	48 83 c0 30          	add    $0x30,%rax
    a59e:	48 89 85 18 f8 ff ff 	mov    %rax,-0x7e8(%rbp)
    a5a5:	48 8d 85 50 e2 ff ff 	lea    -0x1db0(%rbp),%rax
    a5ac:	48 83 c0 30          	add    $0x30,%rax
    a5b0:	48 89 85 20 f8 ff ff 	mov    %rax,-0x7e0(%rbp)
    a5b7:	48 8d 85 50 e2 ff ff 	lea    -0x1db0(%rbp),%rax
    a5be:	48 83 c0 30          	add    $0x30,%rax
    a5c2:	48 89 85 28 f8 ff ff 	mov    %rax,-0x7d8(%rbp)
    a5c9:	48 c7 85 30 f8 ff ff 	movq   $0x0,-0x7d0(%rbp)
    a5d0:	00 00 00 00 
    a5d4:	48 8d 85 50 e2 ff ff 	lea    -0x1db0(%rbp),%rax
    a5db:	48 83 c0 30          	add    $0x30,%rax
    a5df:	48 89 85 38 f8 ff ff 	mov    %rax,-0x7c8(%rbp)
    a5e6:	48 8d 85 50 e2 ff ff 	lea    -0x1db0(%rbp),%rax
    a5ed:	48 83 c0 30          	add    $0x30,%rax
    a5f1:	48 89 85 40 f8 ff ff 	mov    %rax,-0x7c0(%rbp)
    a5f8:	48 8d 85 50 e2 ff ff 	lea    -0x1db0(%rbp),%rax
    a5ff:	48 83 c0 30          	add    $0x30,%rax
    a603:	48 89 85 48 f8 ff ff 	mov    %rax,-0x7b8(%rbp)
    a60a:	48 8d 85 50 e2 ff ff 	lea    -0x1db0(%rbp),%rax
    a611:	48 83 c0 30          	add    $0x30,%rax
    a615:	48 89 85 50 f8 ff ff 	mov    %rax,-0x7b0(%rbp)
    a61c:	48 c7 85 58 f8 ff ff 	movq   $0x0,-0x7a8(%rbp)
    a623:	00 00 00 00 
    a627:	48 8d 85 50 e2 ff ff 	lea    -0x1db0(%rbp),%rax
    a62e:	48 83 c0 30          	add    $0x30,%rax
    a632:	48 89 85 60 f8 ff ff 	mov    %rax,-0x7a0(%rbp)
    a639:	48 8d 85 50 e2 ff ff 	lea    -0x1db0(%rbp),%rax
    a640:	48 83 c0 30          	add    $0x30,%rax
    a644:	48 89 85 68 f8 ff ff 	mov    %rax,-0x798(%rbp)
    a64b:	48 8d 85 50 e2 ff ff 	lea    -0x1db0(%rbp),%rax
    a652:	48 83 c0 30          	add    $0x30,%rax
    a656:	48 89 85 70 f8 ff ff 	mov    %rax,-0x790(%rbp)
    a65d:	48 8d 85 50 e2 ff ff 	lea    -0x1db0(%rbp),%rax
    a664:	48 83 c0 30          	add    $0x30,%rax
    a668:	48 89 85 78 f8 ff ff 	mov    %rax,-0x788(%rbp)
    a66f:	48 8d 05 fa e9 00 00 	lea    0xe9fa(%rip),%rax        # 19070 <g_86>
    a676:	48 89 85 c8 da ff ff 	mov    %rax,-0x2538(%rbp)
    a67d:	48 8b 05 54 05 01 00 	mov    0x10554(%rip),%rax        # 1abd8 <g_110>
    a684:	8b 00                	mov    (%rax),%eax
    a686:	0f b6 85 1c d8 ff ff 	movzbl -0x27e4(%rbp),%eax
    a68d:	0f b6 c0             	movzbl %al,%eax
    a690:	89 c7                	mov    %eax,%edi
    a692:	e8 06 ad ff ff       	callq  539d <safe_unary_minus_func_int16_t_s>
    a697:	66 83 bd 38 d8 ff ff 	cmpw   $0x1,-0x27c8(%rbp)
    a69e:	01 
    a69f:	0f 95 c0             	setne  %al
    a6a2:	0f b6 f0             	movzbl %al,%esi
    a6a5:	48 8b 85 40 dc ff ff 	mov    -0x23c0(%rbp),%rax
    a6ac:	48 8b 00             	mov    (%rax),%rax
    a6af:	48 8d 48 ff          	lea    -0x1(%rax),%rcx
    a6b3:	48 8b 95 40 dc ff ff 	mov    -0x23c0(%rbp),%rdx
    a6ba:	48 89 0a             	mov    %rcx,(%rdx)
    a6bd:	48 39 c6             	cmp    %rax,%rsi
    a6c0:	72 34                	jb     a6f6 <func_27+0x19dc>
    a6c2:	8b 85 84 d8 ff ff    	mov    -0x277c(%rbp),%eax
    a6c8:	98                   	cwtl   
    a6c9:	89 c6                	mov    %eax,%esi
    a6cb:	bf 00 00 00 00       	mov    $0x0,%edi
    a6d0:	e8 fe ac ff ff       	callq  53d3 <safe_sub_func_int16_t_s_s>
    a6d5:	0f b7 c0             	movzwl %ax,%eax
    a6d8:	be 01 00 00 00       	mov    $0x1,%esi
    a6dd:	89 c7                	mov    %eax,%edi
    a6df:	e8 59 b6 ff ff       	callq  5d3d <safe_mul_func_uint16_t_u_u>
    a6e4:	98                   	cwtl   
    a6e5:	89 c6                	mov    %eax,%esi
    a6e7:	bf 01 00 00 00       	mov    $0x1,%edi
    a6ec:	e8 04 ad ff ff       	callq  53f5 <safe_mul_func_int16_t_s_s>
    a6f1:	66 85 c0             	test   %ax,%ax
    a6f4:	74 07                	je     a6fd <func_27+0x19e3>
    a6f6:	b8 01 00 00 00       	mov    $0x1,%eax
    a6fb:	eb 05                	jmp    a702 <func_27+0x19e8>
    a6fd:	b8 00 00 00 00       	mov    $0x0,%eax
    a702:	48 98                	cltq   
    a704:	48 be cb 3a 6e 5e e0 	movabs $0x695375e05e6e3acb,%rsi
    a70b:	75 53 69 
    a70e:	48 89 c7             	mov    %rax,%rdi
    a711:	e8 2b b1 ff ff       	callq  5841 <safe_add_func_int64_t_s_s>
    a716:	66 83 bd 38 d8 ff ff 	cmpw   $0x0,-0x27c8(%rbp)
    a71d:	00 
    a71e:	74 07                	je     a727 <func_27+0x1a0d>
    a720:	83 bd 84 d8 ff ff 00 	cmpl   $0x0,-0x277c(%rbp)
    a727:	0f b6 85 1c d8 ff ff 	movzbl -0x27e4(%rbp),%eax
    a72e:	0f b6 d0             	movzbl %al,%edx
    a731:	48 8b 85 38 db ff ff 	mov    -0x24c8(%rbp),%rax
    a738:	66 89 10             	mov    %dx,(%rax)
    a73b:	48 8b 85 38 db ff ff 	mov    -0x24c8(%rbp),%rax
    a742:	0f b7 00             	movzwl (%rax),%eax
    a745:	98                   	cwtl   
    a746:	be fa ff ff ff       	mov    $0xfffffffa,%esi
    a74b:	89 c7                	mov    %eax,%edi
    a74d:	e8 a3 ac ff ff       	callq  53f5 <safe_mul_func_int16_t_s_s>
    a752:	89 c2                	mov    %eax,%edx
    a754:	0f b7 85 38 d8 ff ff 	movzwl -0x27c8(%rbp),%eax
    a75b:	09 d0                	or     %edx,%eax
    a75d:	89 c2                	mov    %eax,%edx
    a75f:	48 8b 85 c0 da ff ff 	mov    -0x2540(%rbp),%rax
    a766:	88 10                	mov    %dl,(%rax)
    a768:	48 8b 85 c0 da ff ff 	mov    -0x2540(%rbp),%rax
    a76f:	0f b6 00             	movzbl (%rax),%eax
    a772:	0f b6 c0             	movzbl %al,%eax
    a775:	25 f2 00 00 00       	and    $0xf2,%eax
    a77a:	48 89 c2             	mov    %rax,%rdx
    a77d:	48 0f bf 85 38 d8 ff 	movswq -0x27c8(%rbp),%rax
    a784:	ff 
    a785:	48 39 c2             	cmp    %rax,%rdx
    a788:	74 10                	je     a79a <func_27+0x1a80>
    a78a:	0f b6 85 1c d8 ff ff 	movzbl -0x27e4(%rbp),%eax
    a791:	84 c0                	test   %al,%al
    a793:	74 11                	je     a7a6 <func_27+0x1a8c>
    a795:	e9 fe 01 00 00       	jmpq   a998 <func_27+0x1c7e>
    a79a:	48 8b 85 10 d8 ff ff 	mov    -0x27f0(%rbp),%rax
    a7a1:	e9 6c 63 00 00       	jmpq   10b12 <func_27+0x7df8>
    a7a6:	c7 85 80 d8 ff ff ba 	movl   $0xaeba,-0x2780(%rbp)
    a7ad:	ae 00 00 
    a7b0:	48 8b 85 80 e2 ff ff 	mov    -0x1d80(%rbp),%rax
    a7b7:	48 89 85 80 e2 ff ff 	mov    %rax,-0x1d80(%rbp)
    a7be:	66 83 bd 38 d8 ff ff 	cmpw   $0x0,-0x27c8(%rbp)
    a7c5:	00 
    a7c6:	0f 94 c0             	sete   %al
    a7c9:	0f b6 d0             	movzbl %al,%edx
    a7cc:	0f b7 85 36 d8 ff ff 	movzwl -0x27ca(%rbp),%eax
    a7d3:	89 d6                	mov    %edx,%esi
    a7d5:	89 c7                	mov    %eax,%edi
    a7d7:	e8 61 b5 ff ff       	callq  5d3d <safe_mul_func_uint16_t_u_u>
    a7dc:	66 83 bd 38 d8 ff ff 	cmpw   $0x2,-0x27c8(%rbp)
    a7e3:	02 
    a7e4:	0f 9f c0             	setg   %al
    a7e7:	0f b6 c0             	movzbl %al,%eax
    a7ea:	ba 01 00 00 00       	mov    $0x1,%edx
    a7ef:	66 85 d2             	test   %dx,%dx
    a7f2:	0f 9f c2             	setg   %dl
    a7f5:	0f b6 ca             	movzbl %dl,%ecx
    a7f8:	48 8b 95 10 d8 ff ff 	mov    -0x27f0(%rbp),%rdx
    a7ff:	48 09 ca             	or     %rcx,%rdx
    a802:	48 39 d0             	cmp    %rdx,%rax
    a805:	0f 95 c0             	setne  %al
    a808:	0f b6 d0             	movzbl %al,%edx
    a80b:	48 8b 85 40 db ff ff 	mov    -0x24c0(%rbp),%rax
    a812:	8b 00                	mov    (%rax),%eax
    a814:	09 c2                	or     %eax,%edx
    a816:	48 8b 85 40 db ff ff 	mov    -0x24c0(%rbp),%rax
    a81d:	89 10                	mov    %edx,(%rax)
    a81f:	48 c7 05 0e e9 00 00 	movq   $0x8,0xe90e(%rip)        # 19138 <g_504>
    a826:	08 00 00 00 
    a82a:	e9 2a 01 00 00       	jmpq   a959 <func_27+0x1c3f>
    a82f:	48 c7 85 b0 da ff ff 	movq   $0x0,-0x2550(%rbp)
    a836:	00 00 00 00 
    a83a:	0f b6 85 1c d8 ff ff 	movzbl -0x27e4(%rbp),%eax
    a841:	0f b6 d8             	movzbl %al,%ebx
    a844:	48 8b 85 c8 da ff ff 	mov    -0x2538(%rbp),%rax
    a84b:	48 3b 85 b8 da ff ff 	cmp    -0x2548(%rbp),%rax
    a852:	0f 95 c0             	setne  %al
    a855:	0f b6 d0             	movzbl %al,%edx
    a858:	48 8b 85 08 d8 ff ff 	mov    -0x27f8(%rbp),%rax
    a85f:	0f b6 00             	movzbl (%rax),%eax
    a862:	f7 d0                	not    %eax
    a864:	c0 e8 07             	shr    $0x7,%al
    a867:	0f b6 c8             	movzbl %al,%ecx
    a86a:	48 8b 85 10 d8 ff ff 	mov    -0x27f0(%rbp),%rax
    a871:	48 39 c1             	cmp    %rax,%rcx
    a874:	0f 97 c0             	seta   %al
    a877:	0f b6 c8             	movzbl %al,%ecx
    a87a:	0f b6 85 1c d8 ff ff 	movzbl -0x27e4(%rbp),%eax
    a881:	0f b6 c0             	movzbl %al,%eax
    a884:	21 c8                	and    %ecx,%eax
    a886:	98                   	cwtl   
    a887:	89 d6                	mov    %edx,%esi
    a889:	89 c7                	mov    %eax,%edi
    a88b:	e8 23 ab ff ff       	callq  53b3 <safe_add_func_int16_t_s_s>
    a890:	89 c2                	mov    %eax,%edx
    a892:	8b 85 80 d8 ff ff    	mov    -0x2780(%rbp),%eax
    a898:	31 d0                	xor    %edx,%eax
    a89a:	0f b6 c0             	movzbl %al,%eax
    a89d:	89 de                	mov    %ebx,%esi
    a89f:	89 c7                	mov    %eax,%edi
    a8a1:	e8 ed b2 ff ff       	callq  5b93 <safe_mul_func_uint8_t_u_u>
    a8a6:	0f b7 85 38 d8 ff ff 	movzwl -0x27c8(%rbp),%eax
    a8ad:	0f b7 c0             	movzwl %ax,%eax
    a8b0:	be 00 00 00 00       	mov    $0x0,%esi
    a8b5:	89 c7                	mov    %eax,%edi
    a8b7:	e8 81 b4 ff ff       	callq  5d3d <safe_mul_func_uint16_t_u_u>
    a8bc:	66 85 c0             	test   %ax,%ax
    a8bf:	0f 94 c0             	sete   %al
    a8c2:	0f b6 d0             	movzbl %al,%edx
    a8c5:	48 8b 85 40 db ff ff 	mov    -0x24c0(%rbp),%rax
    a8cc:	8b 00                	mov    (%rax),%eax
    a8ce:	31 c2                	xor    %eax,%edx
    a8d0:	48 8b 85 40 db ff ff 	mov    -0x24c0(%rbp),%rax
    a8d7:	89 10                	mov    %edx,(%rax)
    a8d9:	c7 05 dd ea 00 00 00 	movl   $0x0,0xeadd(%rip)        # 193c0 <g_630>
    a8e0:	00 00 00 
    a8e3:	eb 28                	jmp    a90d <func_27+0x1bf3>
    a8e5:	48 8b 85 40 db ff ff 	mov    -0x24c0(%rbp),%rax
    a8ec:	c7 00 ff ff ff ff    	movl   $0xffffffff,(%rax)
    a8f2:	8b 05 c8 ea 00 00    	mov    0xeac8(%rip),%eax        # 193c0 <g_630>
    a8f8:	48 98                	cltq   
    a8fa:	be 06 00 00 00       	mov    $0x6,%esi
    a8ff:	48 89 c7             	mov    %rax,%rdi
    a902:	e8 3a af ff ff       	callq  5841 <safe_add_func_int64_t_s_s>
    a907:	89 05 b3 ea 00 00    	mov    %eax,0xeab3(%rip)        # 193c0 <g_630>
    a90d:	8b 05 ad ea 00 00    	mov    0xeaad(%rip),%eax        # 193c0 <g_630>
    a913:	83 f8 02             	cmp    $0x2,%eax
    a916:	7e cd                	jle    a8e5 <func_27+0x1bcb>
    a918:	c7 05 0e e8 00 00 00 	movl   $0x0,0xe80e(%rip)        # 19130 <g_449>
    a91f:	00 00 00 
    a922:	90                   	nop
    a923:	8b 05 07 e8 00 00    	mov    0xe807(%rip),%eax        # 19130 <g_449>
    a929:	83 f8 11             	cmp    $0x11,%eax
    a92c:	7f 0c                	jg     a93a <func_27+0x1c20>
    a92e:	48 8b 85 10 d8 ff ff 	mov    -0x27f0(%rbp),%rax
    a935:	e9 d8 61 00 00       	jmpq   10b12 <func_27+0x7df8>
    a93a:	48 8b 05 f7 e7 00 00 	mov    0xe7f7(%rip),%rax        # 19138 <g_504>
    a941:	98                   	cwtl   
    a942:	be 05 00 00 00       	mov    $0x5,%esi
    a947:	89 c7                	mov    %eax,%edi
    a949:	e8 85 aa ff ff       	callq  53d3 <safe_sub_func_int16_t_s_s>
    a94e:	48 0f bf c0          	movswq %ax,%rax
    a952:	48 89 05 df e7 00 00 	mov    %rax,0xe7df(%rip)        # 19138 <g_504>
    a959:	48 8b 05 d8 e7 00 00 	mov    0xe7d8(%rip),%rax        # 19138 <g_504>
    a960:	48 83 f8 f2          	cmp    $0xfffffffffffffff2,%rax
    a964:	0f 8c c5 fe ff ff    	jl     a82f <func_27+0x1b15>
    a96a:	8b 85 4c d8 ff ff    	mov    -0x27b4(%rbp),%eax
    a970:	83 e8 01             	sub    $0x1,%eax
    a973:	89 85 4c d8 ff ff    	mov    %eax,-0x27b4(%rbp)
    a979:	8b 85 4c d8 ff ff    	mov    -0x27b4(%rbp),%eax
    a97f:	83 f8 e8             	cmp    $0xffffffe8,%eax
    a982:	0f 84 7a fb ff ff    	je     a502 <func_27+0x17e8>
    a988:	eb 0e                	jmp    a998 <func_27+0x1c7e>
    a98a:	48 8b 85 28 db ff ff 	mov    -0x24d8(%rbp),%rax
    a991:	8b 00                	mov    (%rax),%eax
    a993:	e9 7a 61 00 00       	jmpq   10b12 <func_27+0x7df8>
    a998:	0f b6 45 c4          	movzbl -0x3c(%rbp),%eax
    a99c:	83 e8 01             	sub    $0x1,%eax
    a99f:	88 45 c4             	mov    %al,-0x3c(%rbp)
    a9a2:	e9 68 0c 00 00       	jmpq   b60f <func_27+0x28f5>
    a9a7:	48 c7 85 b8 db ff ff 	movq   $0x1,-0x2448(%rbp)
    a9ae:	01 00 00 00 
    a9b2:	48 c7 85 c0 db ff ff 	movq   $0x0,-0x2440(%rbp)
    a9b9:	00 00 00 00 
    a9bd:	48 8d 05 9c e6 00 00 	lea    0xe69c(%rip),%rax        # 19060 <g_43>
    a9c4:	48 89 85 c8 db ff ff 	mov    %rax,-0x2438(%rbp)
    a9cb:	48 c7 85 d0 db ff ff 	movq   $0x0,-0x2430(%rbp)
    a9d2:	00 00 00 00 
    a9d6:	48 8d 85 ec de ff ff 	lea    -0x2114(%rbp),%rax
    a9dd:	48 89 85 d8 db ff ff 	mov    %rax,-0x2428(%rbp)
    a9e4:	48 8d 05 25 e7 00 00 	lea    0xe725(%rip),%rax        # 19110 <g_298>
    a9eb:	48 89 85 e0 db ff ff 	mov    %rax,-0x2420(%rbp)
    a9f2:	c7 85 a8 d8 ff ff 75 	movl   $0x68a9d975,-0x2758(%rbp)
    a9f9:	d9 a9 68 
    a9fc:	48 8d 05 35 05 01 00 	lea    0x10535(%rip),%rax        # 1af38 <g_811>
    aa03:	48 89 85 b0 db ff ff 	mov    %rax,-0x2450(%rbp)
    aa0a:	48 83 85 b8 db ff ff 	addq   $0x1,-0x2448(%rbp)
    aa11:	01 
    aa12:	0f b6 85 1c d8 ff ff 	movzbl -0x27e4(%rbp),%eax
    aa19:	0f be d8             	movsbl %al,%ebx
    aa1c:	0f b6 95 1c d8 ff ff 	movzbl -0x27e4(%rbp),%edx
    aa23:	48 8b 85 d8 d9 ff ff 	mov    -0x2628(%rbp),%rax
    aa2a:	0f b6 d2             	movzbl %dl,%edx
    aa2d:	48 89 10             	mov    %rdx,(%rax)
    aa30:	48 8d 05 8d e9 00 00 	lea    0xe98d(%rip),%rax        # 193c4 <g_641>
    aa37:	48 39 85 c0 db ff ff 	cmp    %rax,-0x2440(%rbp)
    aa3e:	48 8b 05 93 01 01 00 	mov    0x10193(%rip),%rax        # 1abd8 <g_110>
    aa45:	8b 00                	mov    (%rax),%eax
    aa47:	48 be 11 95 97 eb 3f 	movabs $0x57ad7f3feb979511,%rsi
    aa4e:	7f ad 57 
    aa51:	bf 03 00 00 00       	mov    $0x3,%edi
    aa56:	e8 54 b6 ff ff       	callq  60af <safe_div_func_uint64_t_u_u>
    aa5b:	48 83 f8 ff          	cmp    $0xffffffffffffffff,%rax
    aa5f:	0f 94 c0             	sete   %al
    aa62:	0f b6 d0             	movzbl %al,%edx
    aa65:	48 8b 05 74 00 01 00 	mov    0x10074(%rip),%rax        # 1aae0 <g_42>
    aa6c:	0f b6 00             	movzbl (%rax),%eax
    aa6f:	0f be c0             	movsbl %al,%eax
    aa72:	39 c2                	cmp    %eax,%edx
    aa74:	0f 95 c0             	setne  %al
    aa77:	0f b6 c0             	movzbl %al,%eax
    aa7a:	48 89 c6             	mov    %rax,%rsi
    aa7d:	48 bf 6e f9 5c d5 85 	movabs $0xef633685d55cf96e,%rdi
    aa84:	36 63 ef 
    aa87:	e8 b5 ad ff ff       	callq  5841 <safe_add_func_int64_t_s_s>
    aa8c:	48 8b 15 a5 e6 00 00 	mov    0xe6a5(%rip),%rdx        # 19138 <g_504>
    aa93:	48 39 d0             	cmp    %rdx,%rax
    aa96:	74 10                	je     aaa8 <func_27+0x1d8e>
    aa98:	80 bd 2b d8 ff ff 00 	cmpb   $0x0,-0x27d5(%rbp)
    aa9f:	74 07                	je     aaa8 <func_27+0x1d8e>
    aaa1:	b8 01 00 00 00       	mov    $0x1,%eax
    aaa6:	eb 05                	jmp    aaad <func_27+0x1d93>
    aaa8:	b8 00 00 00 00       	mov    $0x0,%eax
    aaad:	98                   	cwtl   
    aaae:	be 0d 00 00 00       	mov    $0xd,%esi
    aab3:	89 c7                	mov    %eax,%edi
    aab5:	e8 70 aa ff ff       	callq  552a <safe_rshift_func_int16_t_s_s>
    aaba:	0f b7 c0             	movzwl %ax,%eax
    aabd:	be 0c 00 00 00       	mov    $0xc,%esi
    aac2:	89 c7                	mov    %eax,%edi
    aac4:	e8 b1 b3 ff ff       	callq  5e7a <safe_rshift_func_uint16_t_u_u>
    aac9:	48 83 bd c8 db ff ff 	cmpq   $0x0,-0x2438(%rbp)
    aad0:	00 
    aad1:	75 0b                	jne    aade <func_27+0x1dc4>
    aad3:	0f b6 85 1c d8 ff ff 	movzbl -0x27e4(%rbp),%eax
    aada:	84 c0                	test   %al,%al
    aadc:	74 07                	je     aae5 <func_27+0x1dcb>
    aade:	b8 01 00 00 00       	mov    $0x1,%eax
    aae3:	eb 05                	jmp    aaea <func_27+0x1dd0>
    aae5:	b8 00 00 00 00       	mov    $0x0,%eax
    aaea:	89 c2                	mov    %eax,%edx
    aaec:	8b 05 62 e5 00 00    	mov    0xe562(%rip),%eax        # 19054 <g_32+0x14>
    aaf2:	39 c2                	cmp    %eax,%edx
    aaf4:	0f 94 c0             	sete   %al
    aaf7:	0f b6 c0             	movzbl %al,%eax
    aafa:	89 de                	mov    %ebx,%esi
    aafc:	89 c7                	mov    %eax,%edi
    aafe:	e8 67 a7 ff ff       	callq  526a <safe_div_func_int8_t_s_s>
    ab03:	0f be d0             	movsbl %al,%edx
    ab06:	0f b6 85 1c d8 ff ff 	movzbl -0x27e4(%rbp),%eax
    ab0d:	0f b6 c0             	movzbl %al,%eax
    ab10:	39 c2                	cmp    %eax,%edx
    ab12:	0f 9f c2             	setg   %dl
    ab15:	48 8b 05 c4 ff 00 00 	mov    0xffc4(%rip),%rax        # 1aae0 <g_42>
    ab1c:	88 10                	mov    %dl,(%rax)
    ab1e:	0f b6 00             	movzbl (%rax),%eax
    ab21:	84 c0                	test   %al,%al
    ab23:	74 07                	je     ab2c <func_27+0x1e12>
    ab25:	ba 01 00 00 00       	mov    $0x1,%edx
    ab2a:	eb 05                	jmp    ab31 <func_27+0x1e17>
    ab2c:	ba 00 00 00 00       	mov    $0x0,%edx
    ab31:	48 8b 85 10 d8 ff ff 	mov    -0x27f0(%rbp),%rax
    ab38:	48 39 c2             	cmp    %rax,%rdx
    ab3b:	0f 94 c0             	sete   %al
    ab3e:	0f b6 d0             	movzbl %al,%edx
    ab41:	48 8b 85 d8 db ff ff 	mov    -0x2428(%rbp),%rax
    ab48:	8b 00                	mov    (%rax),%eax
    ab4a:	09 c2                	or     %eax,%edx
    ab4c:	48 8b 85 d8 db ff ff 	mov    -0x2428(%rbp),%rax
    ab53:	89 10                	mov    %edx,(%rax)
    ab55:	66 c7 05 b2 e5 00 00 	movw   $0x0,0xe5b2(%rip)        # 19110 <g_298>
    ab5c:	00 00 
    ab5e:	90                   	nop
    ab5f:	0f b7 05 aa e5 00 00 	movzwl 0xe5aa(%rip),%eax        # 19110 <g_298>
    ab66:	66 83 f8 01          	cmp    $0x1,%ax
    ab6a:	0f 8f 69 0a 00 00    	jg     b5d9 <func_27+0x28bf>
    ab70:	c6 85 27 d8 ff ff 08 	movb   $0x8,-0x27d9(%rbp)
    ab77:	c7 85 98 d8 ff ff 02 	movl   $0x2,-0x2768(%rbp)
    ab7e:	00 00 00 
    ab81:	c7 85 9c d8 ff ff 07 	movl   $0x7,-0x2764(%rbp)
    ab88:	00 00 00 
    ab8b:	48 8d 05 32 e8 00 00 	lea    0xe832(%rip),%rax        # 193c4 <g_641>
    ab92:	48 89 85 88 db ff ff 	mov    %rax,-0x2478(%rbp)
    ab99:	48 8d 05 e8 e4 00 00 	lea    0xe4e8(%rip),%rax        # 19088 <g_143>
    aba0:	48 89 85 98 da ff ff 	mov    %rax,-0x2568(%rbp)
    aba7:	c7 85 a0 d8 ff ff f7 	movl   $0xfffffff7,-0x2760(%rbp)
    abae:	ff ff ff 
    abb1:	48 c7 05 84 e5 00 00 	movq   $0x1,0xe584(%rip)        # 19140 <g_512>
    abb8:	01 00 00 00 
    abbc:	e9 fd 09 00 00       	jmpq   b5be <func_27+0x28a4>
    abc1:	48 8d 85 b0 e6 ff ff 	lea    -0x1950(%rbp),%rax
    abc8:	48 8d 15 f1 9d 00 00 	lea    0x9df1(%rip),%rdx        # 149c0 <g_2569+0x956>
    abcf:	b9 1f 00 00 00       	mov    $0x1f,%ecx
    abd4:	48 89 c7             	mov    %rax,%rdi
    abd7:	48 89 d6             	mov    %rdx,%rsi
    abda:	f3 48 a5             	rep movsq %ds:(%rsi),%es:(%rdi)
    abdd:	48 89 f2             	mov    %rsi,%rdx
    abe0:	48 89 f8             	mov    %rdi,%rax
    abe3:	8b 0a                	mov    (%rdx),%ecx
    abe5:	89 08                	mov    %ecx,(%rax)
    abe7:	66 c7 85 3c d8 ff ff 	movw   $0x2ff,-0x27c4(%rbp)
    abee:	ff 02 
    abf0:	48 8d 85 50 d8 ff ff 	lea    -0x27b0(%rbp),%rax
    abf7:	48 89 85 90 db ff ff 	mov    %rax,-0x2470(%rbp)
    abfe:	c6 85 28 d8 ff ff 09 	movb   $0x9,-0x27d8(%rbp)
    ac05:	c7 85 a4 d8 ff ff f7 	movl   $0xfffffff7,-0x275c(%rbp)
    ac0c:	ff ff ff 
    ac0f:	c7 05 2f 14 01 00 03 	movl   $0x3,0x1142f(%rip)        # 1c048 <g_53>
    ac16:	00 00 00 
    ac19:	e9 58 09 00 00       	jmpq   b576 <func_27+0x285c>
    ac1e:	c7 85 88 d8 ff ff 7f 	movl   $0x2d2f827f,-0x2778(%rbp)
    ac25:	82 2f 2d 
    ac28:	48 8d 85 98 da ff ff 	lea    -0x2568(%rbp),%rax
    ac2f:	48 89 85 98 db ff ff 	mov    %rax,-0x2468(%rbp)
    ac36:	48 c7 85 a0 da ff ff 	movq   $0x0,-0x2560(%rbp)
    ac3d:	00 00 00 00 
    ac41:	48 8d 85 a0 da ff ff 	lea    -0x2560(%rbp),%rax
    ac48:	48 89 85 a0 db ff ff 	mov    %rax,-0x2460(%rbp)
    ac4f:	48 8d 05 e2 e4 00 00 	lea    0xe4e2(%rip),%rax        # 19138 <g_504>
    ac56:	48 89 85 50 e2 ff ff 	mov    %rax,-0x1db0(%rbp)
    ac5d:	48 8d 05 24 e4 00 00 	lea    0xe424(%rip),%rax        # 19088 <g_143>
    ac64:	48 89 85 58 e2 ff ff 	mov    %rax,-0x1da8(%rbp)
    ac6b:	48 8d 05 c6 e4 00 00 	lea    0xe4c6(%rip),%rax        # 19138 <g_504>
    ac72:	48 89 85 60 e2 ff ff 	mov    %rax,-0x1da0(%rbp)
    ac79:	48 8d 05 b8 e4 00 00 	lea    0xe4b8(%rip),%rax        # 19138 <g_504>
    ac80:	48 89 85 68 e2 ff ff 	mov    %rax,-0x1d98(%rbp)
    ac87:	48 8d 05 fa e3 00 00 	lea    0xe3fa(%rip),%rax        # 19088 <g_143>
    ac8e:	48 89 85 70 e2 ff ff 	mov    %rax,-0x1d90(%rbp)
    ac95:	48 8d 05 9c e4 00 00 	lea    0xe49c(%rip),%rax        # 19138 <g_504>
    ac9c:	48 89 85 78 e2 ff ff 	mov    %rax,-0x1d88(%rbp)
    aca3:	48 8d 05 8e e4 00 00 	lea    0xe48e(%rip),%rax        # 19138 <g_504>
    acaa:	48 89 85 80 e2 ff ff 	mov    %rax,-0x1d80(%rbp)
    acb1:	48 8d 05 d0 e3 00 00 	lea    0xe3d0(%rip),%rax        # 19088 <g_143>
    acb8:	48 89 85 88 e2 ff ff 	mov    %rax,-0x1d78(%rbp)
    acbf:	48 8d 05 72 e4 00 00 	lea    0xe472(%rip),%rax        # 19138 <g_504>
    acc6:	48 89 85 90 e2 ff ff 	mov    %rax,-0x1d70(%rbp)
    accd:	48 8d 85 50 e2 ff ff 	lea    -0x1db0(%rbp),%rax
    acd4:	48 83 c0 10          	add    $0x10,%rax
    acd8:	48 89 85 a8 db ff ff 	mov    %rax,-0x2458(%rbp)
    acdf:	48 8d 05 bc e5 00 00 	lea    0xe5bc(%rip),%rax        # 192a2 <g_518+0x142>
    ace6:	48 89 85 68 db ff ff 	mov    %rax,-0x2498(%rbp)
    aced:	48 8d 85 54 d8 ff ff 	lea    -0x27ac(%rbp),%rax
    acf4:	48 89 85 70 db ff ff 	mov    %rax,-0x2490(%rbp)
    acfb:	c7 85 90 d8 ff ff fe 	movl   $0xfffffffe,-0x2770(%rbp)
    ad02:	ff ff ff 
    ad05:	48 8b 05 34 e4 00 00 	mov    0xe434(%rip),%rax        # 19140 <g_512>
    ad0c:	48 8d 15 4d e3 00 00 	lea    0xe34d(%rip),%rdx        # 19060 <g_43>
    ad13:	0f b6 04 10          	movzbl (%rax,%rdx,1),%eax
    ad17:	0f be c0             	movsbl %al,%eax
    ad1a:	be 09 00 00 00       	mov    $0x9,%esi
    ad1f:	89 c7                	mov    %eax,%edi
    ad21:	e8 3d a8 ff ff       	callq  5563 <safe_rshift_func_int16_t_s_u>
    ad26:	48 8b 15 13 e4 00 00 	mov    0xe413(%rip),%rdx        # 19140 <g_512>
    ad2d:	48 8d 0d 2c e3 00 00 	lea    0xe32c(%rip),%rcx        # 19060 <g_43>
    ad34:	0f b6 14 0a          	movzbl (%rdx,%rcx,1),%edx
    ad38:	66 0f be d2          	movsbw %dl,%dx
    ad3c:	66 39 d0             	cmp    %dx,%ax
    ad3f:	0f 94 c0             	sete   %al
    ad42:	0f b6 c0             	movzbl %al,%eax
    ad45:	be 05 00 00 00       	mov    $0x5,%esi
    ad4a:	89 c7                	mov    %eax,%edi
    ad4c:	e8 f7 b0 ff ff       	callq  5e48 <safe_rshift_func_uint16_t_u_s>
    ad51:	66 85 c0             	test   %ax,%ax
    ad54:	0f 84 6c 01 00 00    	je     aec6 <func_27+0x21ac>
    ad5a:	48 8b 05 7f fd 00 00 	mov    0xfd7f(%rip),%rax        # 1aae0 <g_42>
    ad61:	0f b6 00             	movzbl (%rax),%eax
    ad64:	0f b6 d8             	movzbl %al,%ebx
    ad67:	0f b7 85 3c d8 ff ff 	movzwl -0x27c4(%rbp),%eax
    ad6e:	44 0f b6 e0          	movzbl %al,%r12d
    ad72:	0f b6 95 d3 e6 ff ff 	movzbl -0x192d(%rbp),%edx
    ad79:	48 8b 85 e0 d9 ff ff 	mov    -0x2620(%rbp),%rax
    ad80:	48 0f be d2          	movsbq %dl,%rdx
    ad84:	48 89 10             	mov    %rdx,(%rax)
    ad87:	4c 8b 28             	mov    (%rax),%r13
    ad8a:	48 8b 85 10 d8 ff ff 	mov    -0x27f0(%rbp),%rax
    ad91:	41 89 c6             	mov    %eax,%r14d
    ad94:	48 8b 05 3d fe 00 00 	mov    0xfe3d(%rip),%rax        # 1abd8 <g_110>
    ad9b:	8b 00                	mov    (%rax),%eax
    ad9d:	be c8 d4 ff ff       	mov    $0xffffd4c8,%esi
    ada2:	bf 00 00 00 00       	mov    $0x0,%edi
    ada7:	e8 49 a6 ff ff       	callq  53f5 <safe_mul_func_int16_t_s_s>
    adac:	0f b7 c0             	movzwl %ax,%eax
    adaf:	44 89 f6             	mov    %r14d,%esi
    adb2:	89 c7                	mov    %eax,%edi
    adb4:	e8 05 b0 ff ff       	callq  5dbe <safe_lshift_func_uint16_t_u_s>
    adb9:	0f b7 c0             	movzwl %ax,%eax
    adbc:	49 39 c5             	cmp    %rax,%r13
    adbf:	0f 9e c0             	setle  %al
    adc2:	0f b6 c0             	movzbl %al,%eax
    adc5:	be 06 00 00 00       	mov    $0x6,%esi
    adca:	89 c7                	mov    %eax,%edi
    adcc:	e8 64 a5 ff ff       	callq  5335 <safe_rshift_func_int8_t_s_s>
    add1:	84 c0                	test   %al,%al
    add3:	8b 05 ff e2 00 00    	mov    0xe2ff(%rip),%eax        # 190d8 <g_157+0x38>
    add9:	3d ff 59 93 d2       	cmp    $0xd29359ff,%eax
    adde:	0f 97 c0             	seta   %al
    ade1:	0f b6 c0             	movzbl %al,%eax
    ade4:	89 85 98 d8 ff ff    	mov    %eax,-0x2768(%rbp)
    adea:	8b 85 98 d8 ff ff    	mov    -0x2768(%rbp),%eax
    adf0:	0f b6 c0             	movzbl %al,%eax
    adf3:	44 89 e6             	mov    %r12d,%esi
    adf6:	89 c7                	mov    %eax,%edi
    adf8:	e8 de ad ff ff       	callq  5bdb <safe_div_func_uint8_t_u_u>
    adfd:	84 c0                	test   %al,%al
    adff:	74 10                	je     ae11 <func_27+0x20f7>
    ae01:	83 bd 9c d8 ff ff 00 	cmpl   $0x0,-0x2764(%rbp)
    ae08:	74 07                	je     ae11 <func_27+0x20f7>
    ae0a:	b8 01 00 00 00       	mov    $0x1,%eax
    ae0f:	eb 05                	jmp    ae16 <func_27+0x20fc>
    ae11:	b8 00 00 00 00       	mov    $0x0,%eax
    ae16:	89 c2                	mov    %eax,%edx
    ae18:	48 8b 05 a9 e5 00 00 	mov    0xe5a9(%rip),%rax        # 193c8 <g_668>
    ae1f:	0f b6 c0             	movzbl %al,%eax
    ae22:	89 d6                	mov    %edx,%esi
    ae24:	89 c7                	mov    %eax,%edi
    ae26:	e8 21 ae ff ff       	callq  5c4c <safe_lshift_func_uint8_t_u_u>
    ae2b:	0f b6 95 1c d8 ff ff 	movzbl -0x27e4(%rbp),%edx
    ae32:	38 d0                	cmp    %dl,%al
    ae34:	8b 05 86 e5 00 00    	mov    0xe586(%rip),%eax        # 193c0 <g_630>
    ae3a:	48 98                	cltq   
    ae3c:	0f b7 15 cd e2 00 00 	movzwl 0xe2cd(%rip),%edx        # 19110 <g_298>
    ae43:	0f bf d2             	movswl %dx,%edx
    ae46:	8d 72 01             	lea    0x1(%rdx),%esi
    ae49:	8b 15 f9 11 01 00    	mov    0x111f9(%rip),%edx        # 1c048 <g_53>
    ae4f:	8d 4a 04             	lea    0x4(%rdx),%ecx
    ae52:	0f b7 15 b7 e2 00 00 	movzwl 0xe2b7(%rip),%edx        # 19110 <g_298>
    ae59:	0f bf d2             	movswl %dx,%edx
    ae5c:	83 c2 02             	add    $0x2,%edx
    ae5f:	48 63 d2             	movslq %edx,%rdx
    ae62:	48 63 f6             	movslq %esi,%rsi
    ae65:	48 63 c9             	movslq %ecx,%rcx
    ae68:	48 c1 e6 03          	shl    $0x3,%rsi
    ae6c:	48 01 f1             	add    %rsi,%rcx
    ae6f:	48 c1 e1 02          	shl    $0x2,%rcx
    ae73:	48 01 ca             	add    %rcx,%rdx
    ae76:	8b 94 95 30 e3 ff ff 	mov    -0x1cd0(%rbp,%rdx,4),%edx
    ae7d:	89 d2                	mov    %edx,%edx
    ae7f:	48 89 c6             	mov    %rax,%rsi
    ae82:	48 89 d7             	mov    %rdx,%rdi
    ae85:	e8 2a ab ff ff       	callq  59b4 <safe_mod_func_int64_t_s_s>
    ae8a:	8b 0d 68 e2 00 00    	mov    0xe268(%rip),%ecx        # 190f8 <g_275>
    ae90:	48 8b 95 00 d8 ff ff 	mov    -0x2800(%rbp),%rdx
    ae97:	0f b6 12             	movzbl (%rdx),%edx
    ae9a:	0f be d2             	movsbl %dl,%edx
    ae9d:	39 d1                	cmp    %edx,%ecx
    ae9f:	0f 9e c2             	setle  %dl
    aea2:	0f b6 d2             	movzbl %dl,%edx
    aea5:	48 39 d0             	cmp    %rdx,%rax
    aea8:	0f 9d c0             	setge  %al
    aeab:	0f b6 d0             	movzbl %al,%edx
    aeae:	0f b6 85 27 d8 ff ff 	movzbl -0x27d9(%rbp),%eax
    aeb5:	39 c2                	cmp    %eax,%edx
    aeb7:	0f 9f c0             	setg   %al
    aeba:	0f b6 c0             	movzbl %al,%eax
    aebd:	89 de                	mov    %ebx,%esi
    aebf:	89 c7                	mov    %eax,%edi
    aec1:	e8 94 ac ff ff       	callq  5b5a <safe_add_func_uint8_t_u_u>
    aec6:	0f b6 85 1c d8 ff ff 	movzbl -0x27e4(%rbp),%eax
    aecd:	84 c0                	test   %al,%al
    aecf:	0f 85 b1 06 00 00    	jne    b586 <func_27+0x286c>
    aed5:	48 8b 85 10 d8 ff ff 	mov    -0x27f0(%rbp),%rax
    aedc:	89 85 9c d8 ff ff    	mov    %eax,-0x2764(%rbp)
    aee2:	0f b6 85 1c d8 ff ff 	movzbl -0x27e4(%rbp),%eax
    aee9:	0f b6 c0             	movzbl %al,%eax
    aeec:	8b 95 58 d8 ff ff    	mov    -0x27a8(%rbp),%edx
    aef2:	89 c6                	mov    %eax,%esi
    aef4:	89 d7                	mov    %edx,%edi
    aef6:	e8 d1 a7 ff ff       	callq  56cc <safe_mod_func_int32_t_s_s>
    aefb:	48 8b 05 3e e5 00 00 	mov    0xe53e(%rip),%rax        # 19440 <g_743>
    af02:	48 8b 95 98 da ff ff 	mov    -0x2568(%rbp),%rdx
    af09:	48 8b 85 98 db ff ff 	mov    -0x2468(%rbp),%rax
    af10:	48 89 10             	mov    %rdx,(%rax)
    af13:	48 8b 85 98 db ff ff 	mov    -0x2468(%rbp),%rax
    af1a:	48 8b 08             	mov    (%rax),%rcx
    af1d:	48 8b 85 a0 db ff ff 	mov    -0x2460(%rbp),%rax
    af24:	48 8d 95 1c d8 ff ff 	lea    -0x27e4(%rbp),%rdx
    af2b:	48 89 10             	mov    %rdx,(%rax)
    af2e:	48 8b 85 a8 db ff ff 	mov    -0x2458(%rbp),%rax
    af35:	48 8d 15 4c e1 00 00 	lea    0xe14c(%rip),%rdx        # 19088 <g_143>
    af3c:	48 89 10             	mov    %rdx,(%rax)
    af3f:	48 8b 85 a8 db ff ff 	mov    -0x2458(%rbp),%rax
    af46:	48 8b 00             	mov    (%rax),%rax
    af49:	48 39 c1             	cmp    %rax,%rcx
    af4c:	0f 95 c0             	setne  %al
    af4f:	0f b6 c0             	movzbl %al,%eax
    af52:	be 41 00 00 00       	mov    $0x41,%esi
    af57:	89 c7                	mov    %eax,%edi
    af59:	e8 50 ac ff ff       	callq  5bae <safe_mod_func_uint8_t_u_u>
    af5e:	48 8b 85 08 d8 ff ff 	mov    -0x27f8(%rbp),%rax
    af65:	0f b6 00             	movzbl (%rax),%eax
    af68:	0f be c0             	movsbl %al,%eax
    af6b:	23 85 9c d8 ff ff    	and    -0x2764(%rbp),%eax
    af71:	89 c2                	mov    %eax,%edx
    af73:	8b 05 c7 e1 00 00    	mov    0xe1c7(%rip),%eax        # 19140 <g_512>
    af79:	39 c2                	cmp    %eax,%edx
    af7b:	0f 95 c0             	setne  %al
    af7e:	0f b6 d0             	movzbl %al,%edx
    af81:	8b 05 69 e1 00 00    	mov    0xe169(%rip),%eax        # 190f0 <g_231>
    af87:	39 c2                	cmp    %eax,%edx
    af89:	74 2b                	je     afb6 <func_27+0x229c>
    af8b:	48 8d 05 8e e1 00 00 	lea    0xe18e(%rip),%rax        # 19120 <g_371>
    af92:	48 89 85 78 db ff ff 	mov    %rax,-0x2488(%rbp)
    af99:	48 8b 05 c8 10 01 00 	mov    0x110c8(%rip),%rax        # 1c068 <g_750>
    afa0:	48 8b 05 29 ff 00 00 	mov    0xff29(%rip),%rax        # 1aed0 <g_753>
    afa7:	48 8b 95 78 db ff ff 	mov    -0x2488(%rbp),%rdx
    afae:	48 89 10             	mov    %rdx,(%rax)
    afb1:	e9 c2 00 00 00       	jmpq   b078 <func_27+0x235e>
    afb6:	48 8d 85 08 da ff ff 	lea    -0x25f8(%rbp),%rax
    afbd:	48 89 85 60 db ff ff 	mov    %rax,-0x24a0(%rbp)
    afc4:	c7 85 94 d8 ff ff 00 	movl   $0x0,-0x276c(%rbp)
    afcb:	00 00 00 
    afce:	eb 1e                	jmp    afee <func_27+0x22d4>
    afd0:	8b 85 94 d8 ff ff    	mov    -0x276c(%rbp),%eax
    afd6:	48 98                	cltq   
    afd8:	48 8d 95 f0 d9 ff ff 	lea    -0x2610(%rbp),%rdx
    afdf:	48 89 94 c5 e0 f7 ff 	mov    %rdx,-0x820(%rbp,%rax,8)
    afe6:	ff 
    afe7:	83 85 94 d8 ff ff 01 	addl   $0x1,-0x276c(%rbp)
    afee:	83 bd 94 d8 ff ff 04 	cmpl   $0x4,-0x276c(%rbp)
    aff5:	7e d9                	jle    afd0 <func_27+0x22b6>
    aff7:	48 8b 85 f0 d9 ff ff 	mov    -0x2610(%rbp),%rax
    affe:	48 89 85 68 db ff ff 	mov    %rax,-0x2498(%rbp)
    b005:	48 8b 85 68 db ff ff 	mov    -0x2498(%rbp),%rax
    b00c:	48 3b 85 e0 db ff ff 	cmp    -0x2420(%rbp),%rax
    b013:	0f 94 c0             	sete   %al
    b016:	0f b6 d0             	movzbl %al,%edx
    b019:	48 8b 85 10 d8 ff ff 	mov    -0x27f0(%rbp),%rax
    b020:	48 39 c2             	cmp    %rax,%rdx
    b023:	0f 95 c0             	setne  %al
    b026:	0f b6 d0             	movzbl %al,%edx
    b029:	48 8b 85 d8 db ff ff 	mov    -0x2428(%rbp),%rax
    b030:	89 10                	mov    %edx,(%rax)
    b032:	48 8b 95 08 da ff ff 	mov    -0x25f8(%rbp),%rdx
    b039:	48 8b 85 60 db ff ff 	mov    -0x24a0(%rbp),%rax
    b040:	48 89 10             	mov    %rdx,(%rax)
    b043:	48 8b 05 a6 fe 00 00 	mov    0xfea6(%rip),%rax        # 1aef0 <g_763>
    b04a:	48 8b 95 60 db ff ff 	mov    -0x24a0(%rbp),%rdx
    b051:	48 8b 12             	mov    (%rdx),%rdx
    b054:	48 89 10             	mov    %rdx,(%rax)
    b057:	48 8b 85 90 db ff ff 	mov    -0x2470(%rbp),%rax
    b05e:	48 89 85 70 db ff ff 	mov    %rax,-0x2490(%rbp)
    b065:	48 8b 85 70 db ff ff 	mov    -0x2490(%rbp),%rax
    b06c:	8b 00                	mov    (%rax),%eax
    b06e:	85 c0                	test   %eax,%eax
    b070:	74 06                	je     b078 <func_27+0x235e>
    b072:	90                   	nop
    b073:	e9 0e 05 00 00       	jmpq   b586 <func_27+0x286c>
    b078:	c7 85 88 d8 ff ff 00 	movl   $0x0,-0x2778(%rbp)
    b07f:	00 00 00 
    b082:	e9 82 04 00 00       	jmpq   b509 <func_27+0x27ef>
    b087:	c7 85 90 da ff ff a7 	movl   $0x312a12a7,-0x2570(%rbp)
    b08e:	12 2a 31 
    b091:	48 8d 05 d0 df 00 00 	lea    0xdfd0(%rip),%rax        # 19068 <g_80>
    b098:	48 89 85 80 db ff ff 	mov    %rax,-0x2480(%rbp)
    b09f:	48 c7 85 e0 f7 ff ff 	movq   $0x0,-0x820(%rbp)
    b0a6:	00 00 00 00 
    b0aa:	48 8d 85 90 da ff ff 	lea    -0x2570(%rbp),%rax
    b0b1:	48 89 85 e8 f7 ff ff 	mov    %rax,-0x818(%rbp)
    b0b8:	48 8d 85 50 d8 ff ff 	lea    -0x27b0(%rbp),%rax
    b0bf:	48 89 85 f0 f7 ff ff 	mov    %rax,-0x810(%rbp)
    b0c6:	48 c7 85 f8 f7 ff ff 	movq   $0x0,-0x808(%rbp)
    b0cd:	00 00 00 00 
    b0d1:	48 c7 85 00 f8 ff ff 	movq   $0x0,-0x800(%rbp)
    b0d8:	00 00 00 00 
    b0dc:	48 8d 85 50 d8 ff ff 	lea    -0x27b0(%rbp),%rax
    b0e3:	48 89 85 08 f8 ff ff 	mov    %rax,-0x7f8(%rbp)
    b0ea:	48 8d 85 90 da ff ff 	lea    -0x2570(%rbp),%rax
    b0f1:	48 89 85 10 f8 ff ff 	mov    %rax,-0x7f0(%rbp)
    b0f8:	48 c7 85 18 f8 ff ff 	movq   $0x0,-0x7e8(%rbp)
    b0ff:	00 00 00 00 
    b103:	48 8d 85 90 da ff ff 	lea    -0x2570(%rbp),%rax
    b10a:	48 89 85 20 f8 ff ff 	mov    %rax,-0x7e0(%rbp)
    b111:	48 8d 85 50 d8 ff ff 	lea    -0x27b0(%rbp),%rax
    b118:	48 89 85 28 f8 ff ff 	mov    %rax,-0x7d8(%rbp)
    b11f:	48 c7 85 30 f8 ff ff 	movq   $0x0,-0x7d0(%rbp)
    b126:	00 00 00 00 
    b12a:	48 8d 85 54 d8 ff ff 	lea    -0x27ac(%rbp),%rax
    b131:	48 89 85 38 f8 ff ff 	mov    %rax,-0x7c8(%rbp)
    b138:	48 c7 85 40 f8 ff ff 	movq   $0x0,-0x7c0(%rbp)
    b13f:	00 00 00 00 
    b143:	48 8d 85 50 d8 ff ff 	lea    -0x27b0(%rbp),%rax
    b14a:	48 89 85 48 f8 ff ff 	mov    %rax,-0x7b8(%rbp)
    b151:	48 8d 85 90 da ff ff 	lea    -0x2570(%rbp),%rax
    b158:	48 89 85 50 f8 ff ff 	mov    %rax,-0x7b0(%rbp)
    b15f:	48 8d 85 90 da ff ff 	lea    -0x2570(%rbp),%rax
    b166:	48 89 85 58 f8 ff ff 	mov    %rax,-0x7a8(%rbp)
    b16d:	48 8d 85 50 d8 ff ff 	lea    -0x27b0(%rbp),%rax
    b174:	48 89 85 60 f8 ff ff 	mov    %rax,-0x7a0(%rbp)
    b17b:	48 8d 85 54 d8 ff ff 	lea    -0x27ac(%rbp),%rax
    b182:	48 89 85 68 f8 ff ff 	mov    %rax,-0x798(%rbp)
    b189:	48 8d 85 50 d8 ff ff 	lea    -0x27b0(%rbp),%rax
    b190:	48 89 85 70 f8 ff ff 	mov    %rax,-0x790(%rbp)
    b197:	48 8d 85 50 d8 ff ff 	lea    -0x27b0(%rbp),%rax
    b19e:	48 89 85 78 f8 ff ff 	mov    %rax,-0x788(%rbp)
    b1a5:	48 8d 85 54 d8 ff ff 	lea    -0x27ac(%rbp),%rax
    b1ac:	48 89 85 80 f8 ff ff 	mov    %rax,-0x780(%rbp)
    b1b3:	48 8d 85 50 d8 ff ff 	lea    -0x27b0(%rbp),%rax
    b1ba:	48 89 85 88 f8 ff ff 	mov    %rax,-0x778(%rbp)
    b1c1:	48 c7 85 90 f8 ff ff 	movq   $0x0,-0x770(%rbp)
    b1c8:	00 00 00 00 
    b1cc:	48 8d 85 50 d8 ff ff 	lea    -0x27b0(%rbp),%rax
    b1d3:	48 89 85 98 f8 ff ff 	mov    %rax,-0x768(%rbp)
    b1da:	48 8d 85 54 d8 ff ff 	lea    -0x27ac(%rbp),%rax
    b1e1:	48 89 85 a0 f8 ff ff 	mov    %rax,-0x760(%rbp)
    b1e8:	48 8d 85 50 d8 ff ff 	lea    -0x27b0(%rbp),%rax
    b1ef:	48 89 85 a8 f8 ff ff 	mov    %rax,-0x758(%rbp)
    b1f6:	48 c7 85 b0 f8 ff ff 	movq   $0x0,-0x750(%rbp)
    b1fd:	00 00 00 00 
    b201:	48 8d 85 50 d8 ff ff 	lea    -0x27b0(%rbp),%rax
    b208:	48 89 85 b8 f8 ff ff 	mov    %rax,-0x748(%rbp)
    b20f:	48 8d 85 54 d8 ff ff 	lea    -0x27ac(%rbp),%rax
    b216:	48 89 85 c0 f8 ff ff 	mov    %rax,-0x740(%rbp)
    b21d:	48 8d 85 50 d8 ff ff 	lea    -0x27b0(%rbp),%rax
    b224:	48 89 85 c8 f8 ff ff 	mov    %rax,-0x738(%rbp)
    b22b:	48 8d 85 50 d8 ff ff 	lea    -0x27b0(%rbp),%rax
    b232:	48 89 85 d0 f8 ff ff 	mov    %rax,-0x730(%rbp)
    b239:	48 8d 85 54 d8 ff ff 	lea    -0x27ac(%rbp),%rax
    b240:	48 89 85 d8 f8 ff ff 	mov    %rax,-0x728(%rbp)
    b247:	48 8d 85 50 d8 ff ff 	lea    -0x27b0(%rbp),%rax
    b24e:	48 89 85 e0 f8 ff ff 	mov    %rax,-0x720(%rbp)
    b255:	48 8d 85 90 da ff ff 	lea    -0x2570(%rbp),%rax
    b25c:	48 89 85 e8 f8 ff ff 	mov    %rax,-0x718(%rbp)
    b263:	48 8d 85 90 da ff ff 	lea    -0x2570(%rbp),%rax
    b26a:	48 89 85 f0 f8 ff ff 	mov    %rax,-0x710(%rbp)
    b271:	48 8d 85 50 d8 ff ff 	lea    -0x27b0(%rbp),%rax
    b278:	48 89 85 f8 f8 ff ff 	mov    %rax,-0x708(%rbp)
    b27f:	48 c7 85 00 f9 ff ff 	movq   $0x0,-0x700(%rbp)
    b286:	00 00 00 00 
    b28a:	48 8d 85 54 d8 ff ff 	lea    -0x27ac(%rbp),%rax
    b291:	48 89 85 08 f9 ff ff 	mov    %rax,-0x6f8(%rbp)
    b298:	48 c7 85 10 f9 ff ff 	movq   $0x0,-0x6f0(%rbp)
    b29f:	00 00 00 00 
    b2a3:	48 8d 85 50 d8 ff ff 	lea    -0x27b0(%rbp),%rax
    b2aa:	48 89 85 18 f9 ff ff 	mov    %rax,-0x6e8(%rbp)
    b2b1:	c7 85 8c d8 ff ff 00 	movl   $0x0,-0x2774(%rbp)
    b2b8:	00 00 00 
    b2bb:	eb 14                	jmp    b2d1 <func_27+0x25b7>
    b2bd:	8b 85 8c d8 ff ff    	mov    -0x2774(%rbp),%eax
    b2c3:	48 98                	cltq   
    b2c5:	c6 44 05 c1 d3       	movb   $0xd3,-0x3f(%rbp,%rax,1)
    b2ca:	83 85 8c d8 ff ff 01 	addl   $0x1,-0x2774(%rbp)
    b2d1:	83 bd 8c d8 ff ff 05 	cmpl   $0x5,-0x2774(%rbp)
    b2d8:	7e e3                	jle    b2bd <func_27+0x25a3>
    b2da:	0f b7 85 32 d8 ff ff 	movzwl -0x27ce(%rbp),%eax
    b2e1:	66 85 c0             	test   %ax,%ax
    b2e4:	0f 85 2e 02 00 00    	jne    b518 <func_27+0x27fe>
    b2ea:	48 8b 05 e7 f8 00 00 	mov    0xf8e7(%rip),%rax        # 1abd8 <g_110>
    b2f1:	8b 00                	mov    (%rax),%eax
    b2f3:	48 b8 62 6c f3 2d f8 	movabs $0xdaa8e0f82df36c62,%rax
    b2fa:	e0 a8 da 
    b2fd:	48 89 05 24 de 00 00 	mov    %rax,0xde24(%rip)        # 19128 <g_375>
    b304:	0f b6 85 1c d8 ff ff 	movzbl -0x27e4(%rbp),%eax
    b30b:	44 0f b6 e8          	movzbl %al,%r13d
    b30f:	48 8b 05 4a f9 00 00 	mov    0xf94a(%rip),%rax        # 1ac60 <g_283>
    b316:	48 8b 00             	mov    (%rax),%rax
    b319:	48 8b 00             	mov    (%rax),%rax
    b31c:	0f b7 00             	movzwl (%rax),%eax
    b31f:	0f bf d8             	movswl %ax,%ebx
    b322:	0f b6 85 1c d8 ff ff 	movzbl -0x27e4(%rbp),%eax
    b329:	44 0f b6 e0          	movzbl %al,%r12d
    b32d:	0f b7 05 0c de 00 00 	movzwl 0xde0c(%rip),%eax        # 19140 <g_512>
    b334:	0f b7 d0             	movzwl %ax,%edx
    b337:	48 8b 85 08 d8 ff ff 	mov    -0x27f8(%rbp),%rax
    b33e:	0f b6 00             	movzbl (%rax),%eax
    b341:	0f be c0             	movsbl %al,%eax
    b344:	89 d6                	mov    %edx,%esi
    b346:	89 c7                	mov    %eax,%edi
    b348:	e8 1f a0 ff ff       	callq  536c <safe_rshift_func_int8_t_s_u>
    b34d:	0f be d0             	movsbl %al,%edx
    b350:	8b 85 90 da ff ff    	mov    -0x2570(%rbp),%eax
    b356:	21 d0                	and    %edx,%eax
    b358:	48 98                	cltq   
    b35a:	4c 89 e6             	mov    %r12,%rsi
    b35d:	48 89 c7             	mov    %rax,%rdi
    b360:	e8 e6 ac ff ff       	callq  604b <safe_sub_func_uint64_t_u_u>
    b365:	48 8b 95 90 db ff ff 	mov    -0x2470(%rbp),%rdx
    b36c:	8b 12                	mov    (%rdx),%edx
    b36e:	09 d0                	or     %edx,%eax
    b370:	89 c2                	mov    %eax,%edx
    b372:	48 8b 85 90 db ff ff 	mov    -0x2470(%rbp),%rax
    b379:	89 10                	mov    %edx,(%rax)
    b37b:	48 8b 85 90 db ff ff 	mov    -0x2470(%rbp),%rax
    b382:	8b 00                	mov    (%rax),%eax
    b384:	85 c0                	test   %eax,%eax
    b386:	74 10                	je     b398 <func_27+0x267e>
    b388:	80 bd 28 d8 ff ff 00 	cmpb   $0x0,-0x27d8(%rbp)
    b38f:	74 07                	je     b398 <func_27+0x267e>
    b391:	ba 01 00 00 00       	mov    $0x1,%edx
    b396:	eb 05                	jmp    b39d <func_27+0x2683>
    b398:	ba 00 00 00 00       	mov    $0x0,%edx
    b39d:	0f b7 05 6c dd 00 00 	movzwl 0xdd6c(%rip),%eax        # 19110 <g_298>
    b3a4:	98                   	cwtl   
    b3a5:	89 d6                	mov    %edx,%esi
    b3a7:	48 63 d0             	movslq %eax,%rdx
    b3aa:	48 8d 0d af dc 00 00 	lea    0xdcaf(%rip),%rcx        # 19060 <g_43>
    b3b1:	40 88 34 0a          	mov    %sil,(%rdx,%rcx,1)
    b3b5:	48 98                	cltq   
    b3b7:	48 8d 15 a2 dc 00 00 	lea    0xdca2(%rip),%rdx        # 19060 <g_43>
    b3be:	0f b6 04 10          	movzbl (%rax,%rdx,1),%eax
    b3c2:	48 0f be d0          	movsbq %al,%rdx
    b3c6:	48 8b 85 10 d8 ff ff 	mov    -0x27f0(%rbp),%rax
    b3cd:	48 39 c2             	cmp    %rax,%rdx
    b3d0:	0f 94 c0             	sete   %al
    b3d3:	0f b6 c0             	movzbl %al,%eax
    b3d6:	48 8b 95 10 d8 ff ff 	mov    -0x27f0(%rbp),%rdx
    b3dd:	21 d0                	and    %edx,%eax
    b3df:	98                   	cwtl   
    b3e0:	89 de                	mov    %ebx,%esi
    b3e2:	89 c7                	mov    %eax,%edi
    b3e4:	e8 0c a0 ff ff       	callq  53f5 <safe_mul_func_int16_t_s_s>
    b3e9:	0f bf d0             	movswl %ax,%edx
    b3ec:	48 8b 85 d8 db ff ff 	mov    -0x2428(%rbp),%rax
    b3f3:	8b 00                	mov    (%rax),%eax
    b3f5:	39 c2                	cmp    %eax,%edx
    b3f7:	0f 9c c0             	setl   %al
    b3fa:	0f b6 c0             	movzbl %al,%eax
    b3fd:	be 6d 00 00 00       	mov    $0x6d,%esi
    b402:	89 c7                	mov    %eax,%edi
    b404:	e8 51 a7 ff ff       	callq  5b5a <safe_add_func_uint8_t_u_u>
    b409:	0f b6 c0             	movzbl %al,%eax
    b40c:	48 89 c6             	mov    %rax,%rsi
    b40f:	bf 00 00 00 00       	mov    $0x0,%edi
    b414:	e8 de a5 ff ff       	callq  59f7 <safe_div_func_int64_t_s_s>
    b419:	48 85 c0             	test   %rax,%rax
    b41c:	0f 94 c0             	sete   %al
    b41f:	0f b6 d0             	movzbl %al,%edx
    b422:	48 8b 85 10 d8 ff ff 	mov    -0x27f0(%rbp),%rax
    b429:	48 39 c2             	cmp    %rax,%rdx
    b42c:	0f 96 c0             	setbe  %al
    b42f:	0f b6 c0             	movzbl %al,%eax
    b432:	41 39 c5             	cmp    %eax,%r13d
    b435:	0f 95 c0             	setne  %al
    b438:	0f b6 d0             	movzbl %al,%edx
    b43b:	0f b6 85 1c d8 ff ff 	movzbl -0x27e4(%rbp),%eax
    b442:	0f b6 c0             	movzbl %al,%eax
    b445:	39 c2                	cmp    %eax,%edx
    b447:	48 8b 85 10 d8 ff ff 	mov    -0x27f0(%rbp),%rax
    b44e:	48 85 c0             	test   %rax,%rax
    b451:	0f 95 c0             	setne  %al
    b454:	0f b6 c0             	movzbl %al,%eax
    b457:	89 85 98 d8 ff ff    	mov    %eax,-0x2768(%rbp)
    b45d:	8b 85 98 d8 ff ff    	mov    -0x2768(%rbp),%eax
    b463:	0f b6 c0             	movzbl %al,%eax
    b466:	be ff 00 00 00       	mov    $0xff,%esi
    b46b:	89 c7                	mov    %eax,%edi
    b46d:	e8 06 a7 ff ff       	callq  5b78 <safe_sub_func_uint8_t_u_u>
    b472:	0f b6 d0             	movzbl %al,%edx
    b475:	8b 85 90 da ff ff    	mov    -0x2570(%rbp),%eax
    b47b:	0f b7 c0             	movzwl %ax,%eax
    b47e:	89 d6                	mov    %edx,%esi
    b480:	89 c7                	mov    %eax,%edi
    b482:	e8 d5 a8 ff ff       	callq  5d5c <safe_mod_func_uint16_t_u_u>
    b487:	8b 95 9c d8 ff ff    	mov    -0x2764(%rbp),%edx
    b48d:	0f b6 45 c6          	movzbl -0x3a(%rbp),%eax
    b491:	88 45 c6             	mov    %al,-0x3a(%rbp)
    b494:	0f b6 45 c6          	movzbl -0x3a(%rbp),%eax
    b498:	0f b6 c0             	movzbl %al,%eax
    b49b:	89 d6                	mov    %edx,%esi
    b49d:	89 c7                	mov    %eax,%edi
    b49f:	e8 1a a8 ff ff       	callq  5cbe <safe_rshift_func_uint8_t_u_u>
    b4a4:	be 9c 00 00 00       	mov    $0x9c,%esi
    b4a9:	bf 00 00 00 00       	mov    $0x0,%edi
    b4ae:	e8 e0 a6 ff ff       	callq  5b93 <safe_mul_func_uint8_t_u_u>
    b4b3:	0f b6 d0             	movzbl %al,%edx
    b4b6:	48 8b 85 10 d8 ff ff 	mov    -0x27f0(%rbp),%rax
    b4bd:	48 39 c2             	cmp    %rax,%rdx
    b4c0:	0f 96 c0             	setbe  %al
    b4c3:	0f b6 c0             	movzbl %al,%eax
    b4c6:	be 01 00 00 00       	mov    $0x1,%esi
    b4cb:	89 c7                	mov    %eax,%edi
    b4cd:	e8 7a a7 ff ff       	callq  5c4c <safe_lshift_func_uint8_t_u_u>
    b4d2:	0f b6 c0             	movzbl %al,%eax
    b4d5:	48 be 34 c7 4f 7f eb 	movabs $0x3570f3eb7f4fc734,%rsi
    b4dc:	f3 70 35 
    b4df:	48 89 c7             	mov    %rax,%rdi
    b4e2:	e8 cd a4 ff ff       	callq  59b4 <safe_mod_func_int64_t_s_s>
    b4e7:	48 8b 95 80 db ff ff 	mov    -0x2480(%rbp),%rdx
    b4ee:	8b 12                	mov    (%rdx),%edx
    b4f0:	09 c2                	or     %eax,%edx
    b4f2:	48 8b 85 80 db ff ff 	mov    -0x2480(%rbp),%rax
    b4f9:	89 10                	mov    %edx,(%rax)
    b4fb:	83 85 90 d8 ff ff 01 	addl   $0x1,-0x2770(%rbp)
    b502:	83 85 88 d8 ff ff 01 	addl   $0x1,-0x2778(%rbp)
    b509:	83 bd 88 d8 ff ff 03 	cmpl   $0x3,-0x2778(%rbp)
    b510:	0f 8e 71 fb ff ff    	jle    b087 <func_27+0x236d>
    b516:	eb 01                	jmp    b519 <func_27+0x27ff>
    b518:	90                   	nop
    b519:	c6 85 1c d8 ff ff 00 	movb   $0x0,-0x27e4(%rbp)
    b520:	90                   	nop
    b521:	0f b6 85 1c d8 ff ff 	movzbl -0x27e4(%rbp),%eax
    b528:	3c 03                	cmp    $0x3,%al
    b52a:	77 3b                	ja     b567 <func_27+0x284d>
    b52c:	48 8d 05 95 f9 00 00 	lea    0xf995(%rip),%rax        # 1aec8 <g_754>
    b533:	48 89 85 58 db ff ff 	mov    %rax,-0x24a8(%rbp)
    b53a:	48 8d 05 c7 f7 00 00 	lea    0xf7c7(%rip),%rax        # 1ad08 <g_453>
    b541:	48 89 05 e8 f9 00 00 	mov    %rax,0xf9e8(%rip)        # 1af30 <g_804>
    b548:	48 8b 05 81 f9 00 00 	mov    0xf981(%rip),%rax        # 1aed0 <g_753>
    b54f:	48 8b 10             	mov    (%rax),%rdx
    b552:	48 8b 85 58 db ff ff 	mov    -0x24a8(%rbp),%rax
    b559:	48 89 10             	mov    %rdx,(%rax)
    b55c:	8b 85 5c d8 ff ff    	mov    -0x27a4(%rbp),%eax
    b562:	e9 ab 55 00 00       	jmpq   10b12 <func_27+0x7df8>
    b567:	8b 05 db 0a 01 00    	mov    0x10adb(%rip),%eax        # 1c048 <g_53>
    b56d:	83 e8 01             	sub    $0x1,%eax
    b570:	89 05 d2 0a 01 00    	mov    %eax,0x10ad2(%rip)        # 1c048 <g_53>
    b576:	8b 05 cc 0a 01 00    	mov    0x10acc(%rip),%eax        # 1c048 <g_53>
    b57c:	85 c0                	test   %eax,%eax
    b57e:	0f 89 9a f6 ff ff    	jns    ac1e <func_27+0x1f04>
    b584:	eb 01                	jmp    b587 <func_27+0x286d>
    b586:	90                   	nop
    b587:	48 c7 05 96 db 00 00 	movq   $0x0,0xdb96(%rip)        # 19128 <g_375>
    b58e:	00 00 00 00 
    b592:	90                   	nop
    b593:	48 8b 05 8e db 00 00 	mov    0xdb8e(%rip),%rax        # 19128 <g_375>
    b59a:	48 83 f8 03          	cmp    $0x3,%rax
    b59e:	77 0c                	ja     b5ac <func_27+0x2892>
    b5a0:	48 8b 85 10 d8 ff ff 	mov    -0x27f0(%rbp),%rax
    b5a7:	e9 66 55 00 00       	jmpq   10b12 <func_27+0x7df8>
    b5ac:	48 8b 05 8d db 00 00 	mov    0xdb8d(%rip),%rax        # 19140 <g_512>
    b5b3:	48 83 e8 01          	sub    $0x1,%rax
    b5b7:	48 89 05 82 db 00 00 	mov    %rax,0xdb82(%rip)        # 19140 <g_512>
    b5be:	48 8b 05 7b db 00 00 	mov    0xdb7b(%rip),%rax        # 19140 <g_512>
    b5c5:	48 85 c0             	test   %rax,%rax
    b5c8:	0f 89 f3 f5 ff ff    	jns    abc1 <func_27+0x1ea7>
    b5ce:	8b 85 a0 d8 ff ff    	mov    -0x2760(%rbp),%eax
    b5d4:	e9 39 55 00 00       	jmpq   10b12 <func_27+0x7df8>
    b5d9:	48 8b 05 60 f9 00 00 	mov    0xf960(%rip),%rax        # 1af40 <g_810>
    b5e0:	48 89 85 b0 db ff ff 	mov    %rax,-0x2450(%rbp)
    b5e7:	48 8b 85 10 da ff ff 	mov    -0x25f0(%rbp),%rax
    b5ee:	48 39 85 b0 db ff ff 	cmp    %rax,-0x2450(%rbp)
    b5f5:	0f 95 c0             	setne  %al
    b5f8:	0f b6 d0             	movzbl %al,%edx
    b5fb:	48 8b 85 d8 db ff ff 	mov    -0x2428(%rbp),%rax
    b602:	8b 00                	mov    (%rax),%eax
    b604:	21 c2                	and    %eax,%edx
    b606:	48 8b 85 d8 db ff ff 	mov    -0x2428(%rbp),%rax
    b60d:	89 10                	mov    %edx,(%rax)
    b60f:	c7 05 5f da 00 00 00 	movl   $0x0,0xda5f(%rip)        # 19078 <g_108>
    b616:	00 00 00 
    b619:	e9 01 0a 00 00       	jmpq   c01f <func_27+0x3305>
    b61e:	c6 85 26 d8 ff ff f7 	movb   $0xf7,-0x27da(%rbp)
    b625:	48 8d 85 58 d8 ff ff 	lea    -0x27a8(%rbp),%rax
    b62c:	48 89 85 e0 e0 ff ff 	mov    %rax,-0x1f20(%rbp)
    b633:	48 8d 05 b6 dd 00 00 	lea    0xddb6(%rip),%rax        # 193f0 <g_714+0x10>
    b63a:	48 89 85 e8 e0 ff ff 	mov    %rax,-0x1f18(%rbp)
    b641:	48 8d 85 58 d8 ff ff 	lea    -0x27a8(%rbp),%rax
    b648:	48 89 85 f0 e0 ff ff 	mov    %rax,-0x1f10(%rbp)
    b64f:	48 8d 05 9a dd 00 00 	lea    0xdd9a(%rip),%rax        # 193f0 <g_714+0x10>
    b656:	48 89 85 f8 e0 ff ff 	mov    %rax,-0x1f08(%rbp)
    b65d:	48 8d 85 58 d8 ff ff 	lea    -0x27a8(%rbp),%rax
    b664:	48 89 85 00 e1 ff ff 	mov    %rax,-0x1f00(%rbp)
    b66b:	48 8d 05 7e dd 00 00 	lea    0xdd7e(%rip),%rax        # 193f0 <g_714+0x10>
    b672:	48 89 85 08 e1 ff ff 	mov    %rax,-0x1ef8(%rbp)
    b679:	48 8d 85 58 d8 ff ff 	lea    -0x27a8(%rbp),%rax
    b680:	48 89 85 10 e1 ff ff 	mov    %rax,-0x1ef0(%rbp)
    b687:	48 8d 05 62 dd 00 00 	lea    0xdd62(%rip),%rax        # 193f0 <g_714+0x10>
    b68e:	48 89 85 18 e1 ff ff 	mov    %rax,-0x1ee8(%rbp)
    b695:	48 8d 85 58 d8 ff ff 	lea    -0x27a8(%rbp),%rax
    b69c:	48 89 85 20 e1 ff ff 	mov    %rax,-0x1ee0(%rbp)
    b6a3:	48 8d 05 66 da 00 00 	lea    0xda66(%rip),%rax        # 19110 <g_298>
    b6aa:	48 89 85 a8 da ff ff 	mov    %rax,-0x2558(%rbp)
    b6b1:	c7 85 74 d8 ff ff 08 	movl   $0x8,-0x278c(%rbp)
    b6b8:	00 00 00 
    b6bb:	c7 85 68 d8 ff ff 16 	movl   $0x479dbc16,-0x2798(%rbp)
    b6c2:	bc 9d 47 
    b6c5:	c7 85 78 d8 ff ff 4c 	movl   $0x9e9e0c4c,-0x2788(%rbp)
    b6cc:	0c 9e 9e 
    b6cf:	c7 85 6c d8 ff ff f3 	movl   $0x41cb97f3,-0x2794(%rbp)
    b6d6:	97 cb 41 
    b6d9:	c7 85 7c d8 ff ff ff 	movl   $0xffffffff,-0x2784(%rbp)
    b6e0:	ff ff ff 
    b6e3:	66 c7 85 60 df ff ff 	movw   $0xfcc3,-0x20a0(%rbp)
    b6ea:	c3 fc 
    b6ec:	66 c7 85 62 df ff ff 	movw   $0xfcc3,-0x209e(%rbp)
    b6f3:	c3 fc 
    b6f5:	66 c7 85 64 df ff ff 	movw   $0xfcc3,-0x209c(%rbp)
    b6fc:	c3 fc 
    b6fe:	66 c7 85 66 df ff ff 	movw   $0xfcc3,-0x209a(%rbp)
    b705:	c3 fc 
    b707:	66 c7 85 68 df ff ff 	movw   $0xfcc3,-0x2098(%rbp)
    b70e:	c3 fc 
    b710:	66 c7 85 6a df ff ff 	movw   $0xfcc3,-0x2096(%rbp)
    b717:	c3 fc 
    b719:	66 c7 85 6c df ff ff 	movw   $0xfcc3,-0x2094(%rbp)
    b720:	c3 fc 
    b722:	48 8d 05 0f da 00 00 	lea    0xda0f(%rip),%rax        # 19138 <g_504>
    b729:	48 89 85 50 dc ff ff 	mov    %rax,-0x23b0(%rbp)
    b730:	c7 85 50 e2 ff ff a0 	movl   $0xe35534a0,-0x1db0(%rbp)
    b737:	34 55 e3 
    b73a:	c7 85 54 e2 ff ff 00 	movl   $0x0,-0x1dac(%rbp)
    b741:	00 00 00 
    b744:	c7 85 58 e2 ff ff 00 	movl   $0x0,-0x1da8(%rbp)
    b74b:	00 00 00 
    b74e:	c7 85 5c e2 ff ff 01 	movl   $0x1,-0x1da4(%rbp)
    b755:	00 00 00 
    b758:	c7 85 60 e2 ff ff f6 	movl   $0xfffffff6,-0x1da0(%rbp)
    b75f:	ff ff ff 
    b762:	c7 85 64 e2 ff ff dd 	movl   $0xb23b77dd,-0x1d9c(%rbp)
    b769:	77 3b b2 
    b76c:	c7 85 68 e2 ff ff a0 	movl   $0xe35534a0,-0x1d98(%rbp)
    b773:	34 55 e3 
    b776:	c7 85 6c e2 ff ff a0 	movl   $0xe35534a0,-0x1d94(%rbp)
    b77d:	34 55 e3 
    b780:	c7 85 70 e2 ff ff dd 	movl   $0xb23b77dd,-0x1d90(%rbp)
    b787:	77 3b b2 
    b78a:	c7 85 74 e2 ff ff f6 	movl   $0xfffffff6,-0x1d8c(%rbp)
    b791:	ff ff ff 
    b794:	c7 85 78 e2 ff ff 01 	movl   $0x1,-0x1d88(%rbp)
    b79b:	00 00 00 
    b79e:	c7 85 7c e2 ff ff 00 	movl   $0x0,-0x1d84(%rbp)
    b7a5:	00 00 00 
    b7a8:	c7 85 80 e2 ff ff 00 	movl   $0x0,-0x1d80(%rbp)
    b7af:	00 00 00 
    b7b2:	c7 85 84 e2 ff ff a0 	movl   $0xe35534a0,-0x1d7c(%rbp)
    b7b9:	34 55 e3 
    b7bc:	c7 85 88 e2 ff ff 00 	movl   $0x0,-0x1d78(%rbp)
    b7c3:	00 00 00 
    b7c6:	c7 85 8c e2 ff ff 00 	movl   $0x0,-0x1d74(%rbp)
    b7cd:	00 00 00 
    b7d0:	c7 85 90 e2 ff ff f6 	movl   $0xfffffff6,-0x1d70(%rbp)
    b7d7:	ff ff ff 
    b7da:	c7 85 94 e2 ff ff a0 	movl   $0xe35534a0,-0x1d6c(%rbp)
    b7e1:	34 55 e3 
    b7e4:	c7 85 98 e2 ff ff f6 	movl   $0xfffffff6,-0x1d68(%rbp)
    b7eb:	ff ff ff 
    b7ee:	c7 85 9c e2 ff ff 00 	movl   $0x0,-0x1d64(%rbp)
    b7f5:	00 00 00 
    b7f8:	c7 85 a0 e2 ff ff 00 	movl   $0x0,-0x1d60(%rbp)
    b7ff:	00 00 00 
    b802:	c7 85 a4 e2 ff ff a0 	movl   $0xe35534a0,-0x1d5c(%rbp)
    b809:	34 55 e3 
    b80c:	c7 85 a8 e2 ff ff 00 	movl   $0x0,-0x1d58(%rbp)
    b813:	00 00 00 
    b816:	c7 85 ac e2 ff ff 00 	movl   $0x0,-0x1d54(%rbp)
    b81d:	00 00 00 
    b820:	48 c7 85 58 dc ff ff 	movq   $0x0,-0x23a8(%rbp)
    b827:	00 00 00 00 
    b82b:	66 c7 85 3e d8 ff ff 	movw   $0xc2a8,-0x27c2(%rbp)
    b832:	a8 c2 
    b834:	48 8d 85 e0 f7 ff ff 	lea    -0x820(%rbp),%rax
    b83b:	48 8d 15 7e 92 00 00 	lea    0x927e(%rip),%rdx        # 14ac0 <g_2569+0xa56>
    b842:	b9 6c 00 00 00       	mov    $0x6c,%ecx
    b847:	48 89 c7             	mov    %rax,%rdi
    b84a:	48 89 d6             	mov    %rdx,%rsi
    b84d:	f3 48 a5             	rep movsq %ds:(%rsi),%es:(%rdi)
    b850:	48 8d 85 10 da ff ff 	lea    -0x25f0(%rbp),%rax
    b857:	48 89 85 60 dc ff ff 	mov    %rax,-0x23a0(%rbp)
    b85e:	48 8b 05 db db 00 00 	mov    0xdbdb(%rip),%rax        # 19440 <g_743>
    b865:	48 8b 85 08 d8 ff ff 	mov    -0x27f8(%rbp),%rax
    b86c:	0f b6 10             	movzbl (%rax),%edx
    b86f:	48 8b 85 10 d8 ff ff 	mov    -0x27f0(%rbp),%rax
    b876:	48 85 c0             	test   %rax,%rax
    b879:	0f 95 c0             	setne  %al
    b87c:	31 c2                	xor    %eax,%edx
    b87e:	48 8b 85 08 d8 ff ff 	mov    -0x27f8(%rbp),%rax
    b885:	88 10                	mov    %dl,(%rax)
    b887:	48 8b 85 08 d8 ff ff 	mov    -0x27f8(%rbp),%rax
    b88e:	0f b6 00             	movzbl (%rax),%eax
    b891:	0f be d8             	movsbl %al,%ebx
    b894:	48 8b 85 10 d8 ff ff 	mov    -0x27f0(%rbp),%rax
    b89b:	48 85 c0             	test   %rax,%rax
    b89e:	0f 84 dc 00 00 00    	je     b980 <func_27+0x2c66>
    b8a4:	48 8b 85 10 e1 ff ff 	mov    -0x1ef0(%rbp),%rax
    b8ab:	48 8d 15 96 d7 00 00 	lea    0xd796(%rip),%rdx        # 19048 <g_32+0x8>
    b8b2:	48 39 d0             	cmp    %rdx,%rax
    b8b5:	0f 94 c0             	sete   %al
    b8b8:	44 0f b6 e0          	movzbl %al,%r12d
    b8bc:	be fd 00 00 00       	mov    $0xfd,%esi
    b8c1:	bf f6 00 00 00       	mov    $0xf6,%edi
    b8c6:	e8 10 a3 ff ff       	callq  5bdb <safe_div_func_uint8_t_u_u>
    b8cb:	0f b6 d0             	movzbl %al,%edx
    b8ce:	48 8b 85 10 d8 ff ff 	mov    -0x27f0(%rbp),%rax
    b8d5:	48 09 c2             	or     %rax,%rdx
    b8d8:	48 0f be 85 26 d8 ff 	movsbq -0x27da(%rbp),%rax
    b8df:	ff 
    b8e0:	48 39 c2             	cmp    %rax,%rdx
    b8e3:	0f 94 c0             	sete   %al
    b8e6:	0f b6 d0             	movzbl %al,%edx
    b8e9:	48 8b 85 10 d8 ff ff 	mov    -0x27f0(%rbp),%rax
    b8f0:	48 39 c2             	cmp    %rax,%rdx
    b8f3:	0f 94 c0             	sete   %al
    b8f6:	0f b6 c0             	movzbl %al,%eax
    b8f9:	41 39 c4             	cmp    %eax,%r12d
    b8fc:	0f 9d c0             	setge  %al
    b8ff:	0f b6 d0             	movzbl %al,%edx
    b902:	66 0f be 85 26 d8 ff 	movsbw -0x27da(%rbp),%ax
    b909:	ff 
    b90a:	0f b7 c0             	movzwl %ax,%eax
    b90d:	89 d6                	mov    %edx,%esi
    b90f:	89 c7                	mov    %eax,%edi
    b911:	e8 27 a4 ff ff       	callq  5d3d <safe_mul_func_uint16_t_u_u>
    b916:	0f b7 d0             	movzwl %ax,%edx
    b919:	8b 85 ec de ff ff    	mov    -0x2114(%rbp),%eax
    b91f:	39 c2                	cmp    %eax,%edx
    b921:	0f 9d c0             	setge  %al
    b924:	0f b6 c0             	movzbl %al,%eax
    b927:	be 01 00 00 00       	mov    $0x1,%esi
    b92c:	89 c7                	mov    %eax,%edi
    b92e:	e8 c2 9a ff ff       	callq  53f5 <safe_mul_func_int16_t_s_s>
    b933:	98                   	cwtl   
    b934:	be a1 e6 ff ff       	mov    $0xffffe6a1,%esi
    b939:	89 c7                	mov    %eax,%edi
    b93b:	e8 b5 9a ff ff       	callq  53f5 <safe_mul_func_int16_t_s_s>
    b940:	98                   	cwtl   
    b941:	be 05 00 00 00       	mov    $0x5,%esi
    b946:	89 c7                	mov    %eax,%edi
    b948:	e8 16 9c ff ff       	callq  5563 <safe_rshift_func_int16_t_s_u>
    b94d:	0f bf d0             	movswl %ax,%edx
    b950:	66 0f be 85 26 d8 ff 	movsbw -0x27da(%rbp),%ax
    b957:	ff 
    b958:	0f b7 c0             	movzwl %ax,%eax
    b95b:	89 d6                	mov    %edx,%esi
    b95d:	89 c7                	mov    %eax,%edi
    b95f:	e8 a2 a4 ff ff       	callq  5e06 <safe_lshift_func_uint16_t_u_u>
    b964:	48 8b 05 f5 f2 00 00 	mov    0xf2f5(%rip),%rax        # 1ac60 <g_283>
    b96b:	48 8b 00             	mov    (%rax),%rax
    b96e:	48 8b 00             	mov    (%rax),%rax
    b971:	0f b7 00             	movzwl (%rax),%eax
    b974:	66 85 c0             	test   %ax,%ax
    b977:	74 07                	je     b980 <func_27+0x2c66>
    b979:	b8 01 00 00 00       	mov    $0x1,%eax
    b97e:	eb 05                	jmp    b985 <func_27+0x2c6b>
    b980:	b8 00 00 00 00       	mov    $0x0,%eax
    b985:	85 c0                	test   %eax,%eax
    b987:	0f 94 c0             	sete   %al
    b98a:	0f b6 c0             	movzbl %al,%eax
    b98d:	39 c3                	cmp    %eax,%ebx
    b98f:	0f 8e 37 06 00 00    	jle    bfcc <func_27+0x32b2>
    b995:	48 8d 85 00 da ff ff 	lea    -0x2600(%rbp),%rax
    b99c:	48 89 85 68 dc ff ff 	mov    %rax,-0x2398(%rbp)
    b9a3:	48 8d 05 36 f1 00 00 	lea    0xf136(%rip),%rax        # 1aae0 <g_42>
    b9aa:	48 89 85 60 da ff ff 	mov    %rax,-0x25a0(%rbp)
    b9b1:	48 8d 85 60 da ff ff 	lea    -0x25a0(%rbp),%rax
    b9b8:	48 89 85 68 da ff ff 	mov    %rax,-0x2598(%rbp)
    b9bf:	48 8d 85 68 da ff ff 	lea    -0x2598(%rbp),%rax
    b9c6:	48 89 85 70 dc ff ff 	mov    %rax,-0x2390(%rbp)
    b9cd:	48 c7 85 70 da ff ff 	movq   $0x0,-0x2590(%rbp)
    b9d4:	00 00 00 00 
    b9d8:	48 8d 85 70 da ff ff 	lea    -0x2590(%rbp),%rax
    b9df:	48 89 85 78 dc ff ff 	mov    %rax,-0x2388(%rbp)
    b9e6:	c7 85 70 d8 ff ff ff 	movl   $0xffffffff,-0x2790(%rbp)
    b9ed:	ff ff ff 
    b9f0:	c7 85 08 d9 ff ff 67 	movl   $0x8715f267,-0x26f8(%rbp)
    b9f7:	f2 15 87 
    b9fa:	48 8d 85 50 e0 ff ff 	lea    -0x1fb0(%rbp),%rax
    ba01:	48 83 c0 10          	add    $0x10,%rax
    ba05:	48 89 85 80 dc ff ff 	mov    %rax,-0x2380(%rbp)
    ba0c:	c7 85 80 df ff ff fe 	movl   $0x6fd738fe,-0x2080(%rbp)
    ba13:	38 d7 6f 
    ba16:	c7 85 84 df ff ff fe 	movl   $0x6fd738fe,-0x207c(%rbp)
    ba1d:	38 d7 6f 
    ba20:	c7 85 88 df ff ff fe 	movl   $0x6fd738fe,-0x2078(%rbp)
    ba27:	38 d7 6f 
    ba2a:	c7 85 8c df ff ff fe 	movl   $0x6fd738fe,-0x2074(%rbp)
    ba31:	38 d7 6f 
    ba34:	c7 85 0c d9 ff ff fc 	movl   $0xfffffffc,-0x26f4(%rbp)
    ba3b:	ff ff ff 
    ba3e:	48 8d 05 eb d6 00 00 	lea    0xd6eb(%rip),%rax        # 19130 <g_449>
    ba45:	48 89 85 b0 e6 ff ff 	mov    %rax,-0x1950(%rbp)
    ba4c:	48 8d 05 dd d6 00 00 	lea    0xd6dd(%rip),%rax        # 19130 <g_449>
    ba53:	48 89 85 b8 e6 ff ff 	mov    %rax,-0x1948(%rbp)
    ba5a:	48 c7 85 c0 e6 ff ff 	movq   $0x0,-0x1940(%rbp)
    ba61:	00 00 00 00 
    ba65:	48 c7 85 c8 e6 ff ff 	movq   $0x0,-0x1938(%rbp)
    ba6c:	00 00 00 00 
    ba70:	48 8d 05 b9 d6 00 00 	lea    0xd6b9(%rip),%rax        # 19130 <g_449>
    ba77:	48 89 85 d0 e6 ff ff 	mov    %rax,-0x1930(%rbp)
    ba7e:	48 8d 05 ab d6 00 00 	lea    0xd6ab(%rip),%rax        # 19130 <g_449>
    ba85:	48 89 85 d8 e6 ff ff 	mov    %rax,-0x1928(%rbp)
    ba8c:	48 c7 85 e0 e6 ff ff 	movq   $0x0,-0x1920(%rbp)
    ba93:	00 00 00 00 
    ba97:	48 c7 85 e8 e6 ff ff 	movq   $0x0,-0x1918(%rbp)
    ba9e:	00 00 00 00 
    baa2:	48 8d 05 87 d6 00 00 	lea    0xd687(%rip),%rax        # 19130 <g_449>
    baa9:	48 89 85 f0 e6 ff ff 	mov    %rax,-0x1910(%rbp)
    bab0:	48 8d 05 79 d6 00 00 	lea    0xd679(%rip),%rax        # 19130 <g_449>
    bab7:	48 89 85 f8 e6 ff ff 	mov    %rax,-0x1908(%rbp)
    babe:	48 c7 85 00 e7 ff ff 	movq   $0x0,-0x1900(%rbp)
    bac5:	00 00 00 00 
    bac9:	48 c7 85 08 e7 ff ff 	movq   $0x0,-0x18f8(%rbp)
    bad0:	00 00 00 00 
    bad4:	48 8d 05 55 d6 00 00 	lea    0xd655(%rip),%rax        # 19130 <g_449>
    badb:	48 89 85 10 e7 ff ff 	mov    %rax,-0x18f0(%rbp)
    bae2:	48 8d 05 47 d6 00 00 	lea    0xd647(%rip),%rax        # 19130 <g_449>
    bae9:	48 89 85 18 e7 ff ff 	mov    %rax,-0x18e8(%rbp)
    baf0:	48 c7 85 20 e7 ff ff 	movq   $0x0,-0x18e0(%rbp)
    baf7:	00 00 00 00 
    bafb:	48 c7 85 28 e7 ff ff 	movq   $0x0,-0x18d8(%rbp)
    bb02:	00 00 00 00 
    bb06:	48 8d 05 23 d6 00 00 	lea    0xd623(%rip),%rax        # 19130 <g_449>
    bb0d:	48 89 85 30 e7 ff ff 	mov    %rax,-0x18d0(%rbp)
    bb14:	48 8d 05 15 d6 00 00 	lea    0xd615(%rip),%rax        # 19130 <g_449>
    bb1b:	48 89 85 38 e7 ff ff 	mov    %rax,-0x18c8(%rbp)
    bb22:	48 c7 85 40 e7 ff ff 	movq   $0x0,-0x18c0(%rbp)
    bb29:	00 00 00 00 
    bb2d:	48 c7 85 48 e7 ff ff 	movq   $0x0,-0x18b8(%rbp)
    bb34:	00 00 00 00 
    bb38:	c7 85 10 d9 ff ff ea 	movl   $0x3ecd0ea,-0x26f0(%rbp)
    bb3f:	d0 ec 03 
    bb42:	c7 85 14 d9 ff ff 04 	movl   $0x6433a104,-0x26ec(%rbp)
    bb49:	a1 33 64 
    bb4c:	8b 05 26 d5 00 00    	mov    0xd526(%rip),%eax        # 19078 <g_108>
    bb52:	89 c0                	mov    %eax,%eax
    bb54:	48 8d 14 c5 00 00 00 	lea    0x0(,%rax,8),%rdx
    bb5b:	00 
    bb5c:	48 8d 05 7d f1 00 00 	lea    0xf17d(%rip),%rax        # 1ace0 <g_434>
    bb63:	48 01 d0             	add    %rdx,%rax
    bb66:	48 89 85 78 da ff ff 	mov    %rax,-0x2588(%rbp)
    bb6d:	48 8d 85 78 da ff ff 	lea    -0x2588(%rbp),%rax
    bb74:	48 89 85 80 da ff ff 	mov    %rax,-0x2580(%rbp)
    bb7b:	48 8d 85 80 da ff ff 	lea    -0x2580(%rbp),%rax
    bb82:	48 89 85 90 e0 ff ff 	mov    %rax,-0x1f70(%rbp)
    bb89:	48 8d 85 80 da ff ff 	lea    -0x2580(%rbp),%rax
    bb90:	48 89 85 98 e0 ff ff 	mov    %rax,-0x1f68(%rbp)
    bb97:	48 8d 85 80 da ff ff 	lea    -0x2580(%rbp),%rax
    bb9e:	48 89 85 a0 e0 ff ff 	mov    %rax,-0x1f60(%rbp)
    bba5:	48 8d 85 80 da ff ff 	lea    -0x2580(%rbp),%rax
    bbac:	48 89 85 a8 e0 ff ff 	mov    %rax,-0x1f58(%rbp)
    bbb3:	48 8d 85 80 da ff ff 	lea    -0x2580(%rbp),%rax
    bbba:	48 89 85 b0 e0 ff ff 	mov    %rax,-0x1f50(%rbp)
    bbc1:	48 8d 85 80 da ff ff 	lea    -0x2580(%rbp),%rax
    bbc8:	48 89 85 b8 e0 ff ff 	mov    %rax,-0x1f48(%rbp)
    bbcf:	48 8d 85 80 da ff ff 	lea    -0x2580(%rbp),%rax
    bbd6:	48 89 85 c0 e0 ff ff 	mov    %rax,-0x1f40(%rbp)
    bbdd:	48 8d 85 80 da ff ff 	lea    -0x2580(%rbp),%rax
    bbe4:	48 89 85 c8 e0 ff ff 	mov    %rax,-0x1f38(%rbp)
    bbeb:	48 c7 85 88 dc ff ff 	movq   $0x0,-0x2378(%rbp)
    bbf2:	00 00 00 00 
    bbf6:	48 8d 05 53 04 01 00 	lea    0x10453(%rip),%rax        # 1c050 <g_369>
    bbfd:	48 89 85 88 da ff ff 	mov    %rax,-0x2578(%rbp)
    bc04:	66 c7 85 40 d8 ff ff 	movw   $0x1,-0x27c0(%rbp)
    bc0b:	01 00 
    bc0d:	48 8d 05 44 04 01 00 	lea    0x10444(%rip),%rax        # 1c058 <g_454>
    bc14:	48 89 85 90 da ff ff 	mov    %rax,-0x2570(%rbp)
    bc1b:	48 8d 85 90 da ff ff 	lea    -0x2570(%rbp),%rax
    bc22:	48 89 85 90 dc ff ff 	mov    %rax,-0x2370(%rbp)
    bc29:	c6 85 2c d8 ff ff 41 	movb   $0x41,-0x27d4(%rbp)
    bc30:	c7 85 f4 d8 ff ff 00 	movl   $0x0,-0x270c(%rbp)
    bc37:	00 00 00 
    bc3a:	eb 19                	jmp    bc55 <func_27+0x2f3b>
    bc3c:	8b 85 f4 d8 ff ff    	mov    -0x270c(%rbp),%eax
    bc42:	48 98                	cltq   
    bc44:	66 c7 84 45 40 df ff 	movw   $0x1,-0x20c0(%rbp,%rax,2)
    bc4b:	ff 01 00 
    bc4e:	83 85 f4 d8 ff ff 01 	addl   $0x1,-0x270c(%rbp)
    bc55:	83 bd f4 d8 ff ff 00 	cmpl   $0x0,-0x270c(%rbp)
    bc5c:	7e de                	jle    bc3c <func_27+0x2f22>
    bc5e:	c7 85 f4 d8 ff ff 00 	movl   $0x0,-0x270c(%rbp)
    bc65:	00 00 00 
    bc68:	eb 1e                	jmp    bc88 <func_27+0x2f6e>
    bc6a:	8b 85 f4 d8 ff ff    	mov    -0x270c(%rbp),%eax
    bc70:	48 98                	cltq   
    bc72:	48 8d 15 67 d4 00 00 	lea    0xd467(%rip),%rdx        # 190e0 <g_195>
    bc79:	48 89 94 c5 50 e0 ff 	mov    %rdx,-0x1fb0(%rbp,%rax,8)
    bc80:	ff 
    bc81:	83 85 f4 d8 ff ff 01 	addl   $0x1,-0x270c(%rbp)
    bc88:	83 bd f4 d8 ff ff 04 	cmpl   $0x4,-0x270c(%rbp)
    bc8f:	7e d9                	jle    bc6a <func_27+0x2f50>
    bc91:	48 8b 15 30 f0 00 00 	mov    0xf030(%rip),%rdx        # 1acc8 <g_366>
    bc98:	48 8b 05 a9 f2 00 00 	mov    0xf2a9(%rip),%rax        # 1af48 <g_833>
    bc9f:	48 8b 12             	mov    (%rdx),%rdx
    bca2:	48 89 10             	mov    %rdx,(%rax)
    bca5:	0f b7 9d 40 df ff ff 	movzwl -0x20c0(%rbp),%ebx
    bcac:	48 83 bd 68 dc ff ff 	cmpq   $0x0,-0x2398(%rbp)
    bcb3:	00 
    bcb4:	0f 95 c0             	setne  %al
    bcb7:	0f b6 c0             	movzbl %al,%eax
    bcba:	89 c6                	mov    %eax,%esi
    bcbc:	bf ff ff 00 00       	mov    $0xffff,%edi
    bcc1:	e8 59 a0 ff ff       	callq  5d1f <safe_sub_func_uint16_t_u_u>
    bcc6:	66 39 c3             	cmp    %ax,%bx
    bcc9:	0f 85 ca 00 00 00    	jne    bd99 <func_27+0x307f>
    bccf:	8b 05 73 d7 00 00    	mov    0xd773(%rip),%eax        # 19448 <g_840>
    bcd5:	44 0f b6 e0          	movzbl %al,%r12d
    bcd9:	48 8b 85 78 dc ff ff 	mov    -0x2388(%rbp),%rax
    bce0:	48 8d 15 59 f2 00 00 	lea    0xf259(%rip),%rdx        # 1af40 <g_810>
    bce7:	48 89 10             	mov    %rdx,(%rax)
    bcea:	48 8d 05 4f f2 00 00 	lea    0xf24f(%rip),%rax        # 1af40 <g_810>
    bcf1:	48 39 85 70 dc ff ff 	cmp    %rax,-0x2390(%rbp)
    bcf8:	0f 94 c0             	sete   %al
    bcfb:	0f b6 c0             	movzbl %al,%eax
    bcfe:	48 8b 15 3b f2 00 00 	mov    0xf23b(%rip),%rdx        # 1af40 <g_810>
    bd05:	48 8b 12             	mov    (%rdx),%rdx
    bd08:	48 8b 1a             	mov    (%rdx),%rbx
    bd0b:	be 01 00 00 00       	mov    $0x1,%esi
    bd10:	89 c7                	mov    %eax,%edi
    bd12:	e8 8a 95 ff ff       	callq  52a1 <safe_lshift_func_int8_t_s_s>
    bd17:	88 03                	mov    %al,(%rbx)
    bd19:	0f b6 03             	movzbl (%rbx),%eax
    bd1c:	66 0f be d8          	movsbw %al,%bx
    bd20:	48 8b 85 10 d8 ff ff 	mov    -0x27f0(%rbp),%rax
    bd27:	0f bf d0             	movswl %ax,%edx
    bd2a:	48 8b 05 27 ef 00 00 	mov    0xef27(%rip),%rax        # 1ac58 <g_284>
    bd31:	48 8b 00             	mov    (%rax),%rax
    bd34:	0f b7 00             	movzwl (%rax),%eax
    bd37:	98                   	cwtl   
    bd38:	89 d6                	mov    %edx,%esi
    bd3a:	89 c7                	mov    %eax,%edi
    bd3c:	e8 92 96 ff ff       	callq  53d3 <safe_sub_func_int16_t_s_s>
    bd41:	66 39 c3             	cmp    %ax,%bx
    bd44:	0f 9d c0             	setge  %al
    bd47:	0f b6 d0             	movzbl %al,%edx
    bd4a:	48 8b 85 10 d8 ff ff 	mov    -0x27f0(%rbp),%rax
    bd51:	48 39 c2             	cmp    %rax,%rdx
    bd54:	0f 97 c2             	seta   %dl
    bd57:	48 8b 85 f0 d9 ff ff 	mov    -0x2610(%rbp),%rax
    bd5e:	0f b6 d2             	movzbl %dl,%edx
    bd61:	66 89 10             	mov    %dx,(%rax)
    bd64:	0f b7 00             	movzwl (%rax),%eax
    bd67:	0f bf d0             	movswl %ax,%edx
    bd6a:	0f b6 85 1c d8 ff ff 	movzbl -0x27e4(%rbp),%eax
    bd71:	0f b6 c0             	movzbl %al,%eax
    bd74:	21 c2                	and    %eax,%edx
    bd76:	8b 85 70 d8 ff ff    	mov    -0x2790(%rbp),%eax
    bd7c:	31 d0                	xor    %edx,%eax
    bd7e:	89 85 70 d8 ff ff    	mov    %eax,-0x2790(%rbp)
    bd84:	8b 85 70 d8 ff ff    	mov    -0x2790(%rbp),%eax
    bd8a:	0f b6 c0             	movzbl %al,%eax
    bd8d:	44 89 e6             	mov    %r12d,%esi
    bd90:	89 c7                	mov    %eax,%edi
    bd92:	e8 c3 9d ff ff       	callq  5b5a <safe_add_func_uint8_t_u_u>
    bd97:	84 c0                	test   %al,%al
    bd99:	48 c7 85 98 da ff ff 	movq   $0x0,-0x2568(%rbp)
    bda0:	00 00 00 00 
    bda4:	48 8d 85 f0 d9 ff ff 	lea    -0x2610(%rbp),%rax
    bdab:	48 89 85 98 dc ff ff 	mov    %rax,-0x2368(%rbp)
    bdb2:	c7 85 18 d9 ff ff 27 	movl   $0x635e4027,-0x26e8(%rbp)
    bdb9:	40 5e 63 
    bdbc:	c7 85 1c d9 ff ff ff 	movl   $0xffffffff,-0x26e4(%rbp)
    bdc3:	ff ff ff 
    bdc6:	c7 85 20 d9 ff ff cf 	movl   $0x58ff1dcf,-0x26e0(%rbp)
    bdcd:	1d ff 58 
    bdd0:	48 8d 85 40 df ff ff 	lea    -0x20c0(%rbp),%rax
    bdd7:	48 89 85 a0 dc ff ff 	mov    %rax,-0x2360(%rbp)
    bdde:	48 8d 85 00 df ff ff 	lea    -0x2100(%rbp),%rax
    bde5:	48 89 85 a8 dc ff ff 	mov    %rax,-0x2358(%rbp)
    bdec:	48 8d 05 ad 02 01 00 	lea    0x102ad(%rip),%rax        # 1c0a0 <g_1078>
    bdf3:	48 89 85 b0 dc ff ff 	mov    %rax,-0x2350(%rbp)
    bdfa:	48 8d 85 90 e0 ff ff 	lea    -0x1f70(%rbp),%rax
    be01:	48 89 85 b8 dc ff ff 	mov    %rax,-0x2348(%rbp)
    be08:	48 c7 85 a0 da ff ff 	movq   $0x0,-0x2560(%rbp)
    be0f:	00 00 00 00 
    be13:	48 b8 89 e2 dd f1 48 	movabs $0x7f528f48f1dde289,%rax
    be1a:	8f 52 7f 
    be1d:	48 89 85 c0 dc ff ff 	mov    %rax,-0x2340(%rbp)
    be24:	c7 85 24 d9 ff ff d6 	movl   $0xe25d1fd6,-0x26dc(%rbp)
    be2b:	1f 5d e2 
    be2e:	c7 85 28 d9 ff ff f7 	movl   $0xfffffff7,-0x26d8(%rbp)
    be35:	ff ff ff 
    be38:	c7 85 f8 d8 ff ff 00 	movl   $0x0,-0x2708(%rbp)
    be3f:	00 00 00 
    be42:	eb 1e                	jmp    be62 <func_27+0x3148>
    be44:	8b 85 f8 d8 ff ff    	mov    -0x2708(%rbp),%eax
    be4a:	48 98                	cltq   
    be4c:	48 8d 95 a0 da ff ff 	lea    -0x2560(%rbp),%rdx
    be53:	48 89 94 c5 b0 df ff 	mov    %rdx,-0x2050(%rbp,%rax,8)
    be5a:	ff 
    be5b:	83 85 f8 d8 ff ff 01 	addl   $0x1,-0x2708(%rbp)
    be62:	83 bd f8 d8 ff ff 02 	cmpl   $0x2,-0x2708(%rbp)
    be69:	7e d9                	jle    be44 <func_27+0x312a>
    be6b:	48 8b 85 08 d8 ff ff 	mov    -0x27f8(%rbp),%rax
    be72:	0f b6 00             	movzbl (%rax),%eax
    be75:	0f be d0             	movsbl %al,%edx
    be78:	48 8b 85 00 d8 ff ff 	mov    -0x2800(%rbp),%rax
    be7f:	0f b6 00             	movzbl (%rax),%eax
    be82:	0f be c0             	movsbl %al,%eax
    be85:	89 d6                	mov    %edx,%esi
    be87:	89 c7                	mov    %eax,%edi
    be89:	e8 84 93 ff ff       	callq  5212 <safe_mul_func_int8_t_s_s>
    be8e:	4c 0f be e0          	movsbq %al,%r12
    be92:	0f b6 85 1c d8 ff ff 	movzbl -0x27e4(%rbp),%eax
    be99:	0f b6 d8             	movzbl %al,%ebx
    be9c:	48 8b 05 8d f1 00 00 	mov    0xf18d(%rip),%rax        # 1b030 <g_904>
    bea3:	8b 00                	mov    (%rax),%eax
    bea5:	89 c1                	mov    %eax,%ecx
    bea7:	48 8b 85 08 d8 ff ff 	mov    -0x27f8(%rbp),%rax
    beae:	0f b6 00             	movzbl (%rax),%eax
    beb1:	0f be d0             	movsbl %al,%edx
    beb4:	8b 05 8e d1 00 00    	mov    0xd18e(%rip),%eax        # 19048 <g_32+0x8>
    beba:	39 c2                	cmp    %eax,%edx
    bebc:	0f 92 c0             	setb   %al
    bebf:	0f b6 d0             	movzbl %al,%edx
    bec2:	0f b6 85 1c d8 ff ff 	movzbl -0x27e4(%rbp),%eax
    bec9:	0f b6 c0             	movzbl %al,%eax
    becc:	31 c2                	xor    %eax,%edx
    bece:	8b 85 70 d8 ff ff    	mov    -0x2790(%rbp),%eax
    bed4:	09 d0                	or     %edx,%eax
    bed6:	89 85 70 d8 ff ff    	mov    %eax,-0x2790(%rbp)
    bedc:	8b 85 70 d8 ff ff    	mov    -0x2790(%rbp),%eax
    bee2:	89 ce                	mov    %ecx,%esi
    bee4:	89 c7                	mov    %eax,%edi
    bee6:	e8 3a a0 ff ff       	callq  5f25 <safe_div_func_uint32_t_u_u>
    beeb:	89 c0                	mov    %eax,%eax
    beed:	48 c7 c6 f8 ff ff ff 	mov    $0xfffffffffffffff8,%rsi
    bef4:	48 89 c7             	mov    %rax,%rdi
    bef7:	e8 32 a1 ff ff       	callq  602e <safe_add_func_uint64_t_u_u>
    befc:	48 8b 95 40 dc ff ff 	mov    -0x23c0(%rbp),%rdx
    bf03:	48 8b 12             	mov    (%rdx),%rdx
    bf06:	48 21 c2             	and    %rax,%rdx
    bf09:	48 8b 85 40 dc ff ff 	mov    -0x23c0(%rbp),%rax
    bf10:	48 89 10             	mov    %rdx,(%rax)
    bf13:	48 8b 85 40 dc ff ff 	mov    -0x23c0(%rbp),%rax
    bf1a:	48 8b 00             	mov    (%rax),%rax
    bf1d:	48 89 de             	mov    %rbx,%rsi
    bf20:	48 89 c7             	mov    %rax,%rdi
    bf23:	e8 23 a1 ff ff       	callq  604b <safe_sub_func_uint64_t_u_u>
    bf28:	89 85 68 d8 ff ff    	mov    %eax,-0x2798(%rbp)
    bf2e:	8b 95 68 d8 ff ff    	mov    -0x2798(%rbp),%edx
    bf34:	48 8b 85 00 d8 ff ff 	mov    -0x2800(%rbp),%rax
    bf3b:	0f b6 00             	movzbl (%rax),%eax
    bf3e:	0f be c0             	movsbl %al,%eax
    bf41:	39 c2                	cmp    %eax,%edx
    bf43:	0f 94 c2             	sete   %dl
    bf46:	48 8b 85 d8 d9 ff ff 	mov    -0x2628(%rbp),%rax
    bf4d:	0f b6 d2             	movzbl %dl,%edx
    bf50:	48 89 10             	mov    %rdx,(%rax)
    bf53:	48 8b 00             	mov    (%rax),%rax
    bf56:	49 39 c4             	cmp    %rax,%r12
    bf59:	0f 95 c0             	setne  %al
    bf5c:	0f b6 c0             	movzbl %al,%eax
    bf5f:	48 be 10 b9 f5 f1 59 	movabs $0xed1fb259f1f5b910,%rsi
    bf66:	b2 1f ed 
    bf69:	48 89 c7             	mov    %rax,%rdi
    bf6c:	e8 d0 98 ff ff       	callq  5841 <safe_add_func_int64_t_s_s>
    bf71:	48 8d 85 98 da ff ff 	lea    -0x2568(%rbp),%rax
    bf78:	48 89 85 c8 dc ff ff 	mov    %rax,-0x2338(%rbp)
    bf7f:	8b 35 f3 d0 00 00    	mov    0xd0f3(%rip),%esi        # 19078 <g_108>
    bf85:	48 8b 85 98 da ff ff 	mov    -0x2568(%rbp),%rax
    bf8c:	89 f2                	mov    %esi,%edx
    bf8e:	48 8d 0c d5 00 00 00 	lea    0x0(,%rdx,8),%rcx
    bf95:	00 
    bf96:	48 8d 15 43 ed 00 00 	lea    0xed43(%rip),%rdx        # 1ace0 <g_434>
    bf9d:	48 89 04 11          	mov    %rax,(%rcx,%rdx,1)
    bfa1:	89 f0                	mov    %esi,%eax
    bfa3:	48 8d 14 c5 00 00 00 	lea    0x0(,%rax,8),%rdx
    bfaa:	00 
    bfab:	48 8d 05 2e ed 00 00 	lea    0xed2e(%rip),%rax        # 1ace0 <g_434>
    bfb2:	48 8b 14 02          	mov    (%rdx,%rax,1),%rdx
    bfb6:	48 8b 85 c8 dc ff ff 	mov    -0x2338(%rbp),%rax
    bfbd:	48 89 10             	mov    %rdx,(%rax)
    bfc0:	48 8b 85 10 d8 ff ff 	mov    -0x27f0(%rbp),%rax
    bfc7:	e9 46 4b 00 00       	jmpq   10b12 <func_27+0x7df8>
    bfcc:	48 8d 85 b0 e6 ff ff 	lea    -0x1950(%rbp),%rax
    bfd3:	48 8d 15 46 8e 00 00 	lea    0x8e46(%rip),%rdx        # 14e20 <g_2569+0xdb6>
    bfda:	b9 1f 00 00 00       	mov    $0x1f,%ecx
    bfdf:	48 89 c7             	mov    %rax,%rdi
    bfe2:	48 89 d6             	mov    %rdx,%rsi
    bfe5:	f3 48 a5             	rep movsq %ds:(%rsi),%es:(%rdi)
    bfe8:	48 89 f2             	mov    %rsi,%rdx
    bfeb:	48 89 f8             	mov    %rdi,%rax
    bfee:	8b 0a                	mov    (%rdx),%ecx
    bff0:	89 08                	mov    %ecx,(%rax)
    bff2:	8b 85 1c e7 ff ff    	mov    -0x18e4(%rbp),%eax
    bff8:	85 c0                	test   %eax,%eax
    bffa:	75 33                	jne    c02f <func_27+0x3315>
    bffc:	48 8b 85 28 dc ff ff 	mov    -0x23d8(%rbp),%rax
    c003:	48 8b 10             	mov    (%rax),%rdx
    c006:	48 8b 85 28 dc ff ff 	mov    -0x23d8(%rbp),%rax
    c00d:	48 89 10             	mov    %rdx,(%rax)
    c010:	8b 05 62 d0 00 00    	mov    0xd062(%rip),%eax        # 19078 <g_108>
    c016:	83 c0 01             	add    $0x1,%eax
    c019:	89 05 59 d0 00 00    	mov    %eax,0xd059(%rip)        # 19078 <g_108>
    c01f:	8b 05 53 d0 00 00    	mov    0xd053(%rip),%eax        # 19078 <g_108>
    c025:	83 f8 03             	cmp    $0x3,%eax
    c028:	0f 86 f0 f5 ff ff    	jbe    b61e <func_27+0x2904>
    c02e:	90                   	nop
    c02f:	c6 85 1c d8 ff ff 00 	movb   $0x0,-0x27e4(%rbp)
    c036:	e9 14 2a 00 00       	jmpq   ea4f <func_27+0x5d35>
    c03b:	48 8d 05 06 d4 00 00 	lea    0xd406(%rip),%rax        # 19448 <g_840>
    c042:	48 89 85 d8 dd ff ff 	mov    %rax,-0x2228(%rbp)
    c049:	48 c7 85 60 da ff ff 	movq   $0x0,-0x25a0(%rbp)
    c050:	00 00 00 00 
    c054:	48 8d 85 60 da ff ff 	lea    -0x25a0(%rbp),%rax
    c05b:	48 89 85 68 da ff ff 	mov    %rax,-0x2598(%rbp)
    c062:	48 8d 85 68 da ff ff 	lea    -0x2598(%rbp),%rax
    c069:	48 89 85 e0 dd ff ff 	mov    %rax,-0x2220(%rbp)
    c070:	48 8d 05 89 ee 00 00 	lea    0xee89(%rip),%rax        # 1af00 <g_805>
    c077:	48 89 85 e8 dd ff ff 	mov    %rax,-0x2218(%rbp)
    c07e:	48 8d 05 5b d0 00 00 	lea    0xd05b(%rip),%rax        # 190e0 <g_195>
    c085:	48 89 85 f0 dd ff ff 	mov    %rax,-0x2210(%rbp)
    c08c:	48 8d 85 e0 d9 ff ff 	lea    -0x2620(%rbp),%rax
    c093:	48 89 85 70 da ff ff 	mov    %rax,-0x2590(%rbp)
    c09a:	48 8d 85 70 da ff ff 	lea    -0x2590(%rbp),%rax
    c0a1:	48 89 85 f8 dd ff ff 	mov    %rax,-0x2208(%rbp)
    c0a8:	48 c7 85 00 de ff ff 	movq   $0x0,-0x2200(%rbp)
    c0af:	00 00 00 00 
    c0b3:	48 8d 85 34 d8 ff ff 	lea    -0x27cc(%rbp),%rax
    c0ba:	48 89 85 50 e2 ff ff 	mov    %rax,-0x1db0(%rbp)
    c0c1:	48 8d 85 34 d8 ff ff 	lea    -0x27cc(%rbp),%rax
    c0c8:	48 89 85 58 e2 ff ff 	mov    %rax,-0x1da8(%rbp)
    c0cf:	48 c7 85 60 e2 ff ff 	movq   $0x0,-0x1da0(%rbp)
    c0d6:	00 00 00 00 
    c0da:	48 8d 05 2f d0 00 00 	lea    0xd02f(%rip),%rax        # 19110 <g_298>
    c0e1:	48 89 85 68 e2 ff ff 	mov    %rax,-0x1d98(%rbp)
    c0e8:	48 8d 85 32 d8 ff ff 	lea    -0x27ce(%rbp),%rax
    c0ef:	48 89 85 70 e2 ff ff 	mov    %rax,-0x1d90(%rbp)
    c0f6:	48 8d 85 32 d8 ff ff 	lea    -0x27ce(%rbp),%rax
    c0fd:	48 89 85 78 e2 ff ff 	mov    %rax,-0x1d88(%rbp)
    c104:	48 8d 85 32 d8 ff ff 	lea    -0x27ce(%rbp),%rax
    c10b:	48 89 85 80 e2 ff ff 	mov    %rax,-0x1d80(%rbp)
    c112:	48 8d 85 34 d8 ff ff 	lea    -0x27cc(%rbp),%rax
    c119:	48 89 85 88 e2 ff ff 	mov    %rax,-0x1d78(%rbp)
    c120:	48 8d 85 32 d8 ff ff 	lea    -0x27ce(%rbp),%rax
    c127:	48 89 85 90 e2 ff ff 	mov    %rax,-0x1d70(%rbp)
    c12e:	48 8d 85 32 d8 ff ff 	lea    -0x27ce(%rbp),%rax
    c135:	48 89 85 98 e2 ff ff 	mov    %rax,-0x1d68(%rbp)
    c13c:	48 8d 05 cd cf 00 00 	lea    0xcfcd(%rip),%rax        # 19110 <g_298>
    c143:	48 89 85 a0 e2 ff ff 	mov    %rax,-0x1d60(%rbp)
    c14a:	48 8d 85 34 d8 ff ff 	lea    -0x27cc(%rbp),%rax
    c151:	48 89 85 a8 e2 ff ff 	mov    %rax,-0x1d58(%rbp)
    c158:	48 8d 05 b1 cf 00 00 	lea    0xcfb1(%rip),%rax        # 19110 <g_298>
    c15f:	48 89 85 b0 e2 ff ff 	mov    %rax,-0x1d50(%rbp)
    c166:	48 8d 85 32 d8 ff ff 	lea    -0x27ce(%rbp),%rax
    c16d:	48 89 85 b8 e2 ff ff 	mov    %rax,-0x1d48(%rbp)
    c174:	48 8d 85 32 d8 ff ff 	lea    -0x27ce(%rbp),%rax
    c17b:	48 89 85 c0 e2 ff ff 	mov    %rax,-0x1d40(%rbp)
    c182:	48 8d 85 34 d8 ff ff 	lea    -0x27cc(%rbp),%rax
    c189:	48 89 85 c8 e2 ff ff 	mov    %rax,-0x1d38(%rbp)
    c190:	48 8d 85 32 d8 ff ff 	lea    -0x27ce(%rbp),%rax
    c197:	48 89 85 d0 e2 ff ff 	mov    %rax,-0x1d30(%rbp)
    c19e:	48 8d 85 32 d8 ff ff 	lea    -0x27ce(%rbp),%rax
    c1a5:	48 89 85 d8 e2 ff ff 	mov    %rax,-0x1d28(%rbp)
    c1ac:	48 8d 85 32 d8 ff ff 	lea    -0x27ce(%rbp),%rax
    c1b3:	48 89 85 e0 e2 ff ff 	mov    %rax,-0x1d20(%rbp)
    c1ba:	48 8d 05 4f cf 00 00 	lea    0xcf4f(%rip),%rax        # 19110 <g_298>
    c1c1:	48 89 85 e8 e2 ff ff 	mov    %rax,-0x1d18(%rbp)
    c1c8:	48 c7 85 f0 e2 ff ff 	movq   $0x0,-0x1d10(%rbp)
    c1cf:	00 00 00 00 
    c1d3:	48 8d 85 34 d8 ff ff 	lea    -0x27cc(%rbp),%rax
    c1da:	48 89 85 f8 e2 ff ff 	mov    %rax,-0x1d08(%rbp)
    c1e1:	48 8d 85 34 d8 ff ff 	lea    -0x27cc(%rbp),%rax
    c1e8:	48 89 85 00 e3 ff ff 	mov    %rax,-0x1d00(%rbp)
    c1ef:	48 c7 85 08 e3 ff ff 	movq   $0x0,-0x1cf8(%rbp)
    c1f6:	00 00 00 00 
    c1fa:	48 8d 85 32 d8 ff ff 	lea    -0x27ce(%rbp),%rax
    c201:	48 89 85 10 e3 ff ff 	mov    %rax,-0x1cf0(%rbp)
    c208:	48 8d 85 32 d8 ff ff 	lea    -0x27ce(%rbp),%rax
    c20f:	48 89 85 18 e3 ff ff 	mov    %rax,-0x1ce8(%rbp)
    c216:	48 c7 85 20 e3 ff ff 	movq   $0x0,-0x1ce0(%rbp)
    c21d:	00 00 00 00 
    c221:	48 8d 05 c0 ec 00 00 	lea    0xecc0(%rip),%rax        # 1aee8 <g_764>
    c228:	48 89 85 e0 e0 ff ff 	mov    %rax,-0x1f20(%rbp)
    c22f:	48 8d 05 b2 ec 00 00 	lea    0xecb2(%rip),%rax        # 1aee8 <g_764>
    c236:	48 89 85 e8 e0 ff ff 	mov    %rax,-0x1f18(%rbp)
    c23d:	48 8d 85 08 da ff ff 	lea    -0x25f8(%rbp),%rax
    c244:	48 89 85 f0 e0 ff ff 	mov    %rax,-0x1f10(%rbp)
    c24b:	48 8d 05 96 ec 00 00 	lea    0xec96(%rip),%rax        # 1aee8 <g_764>
    c252:	48 89 85 f8 e0 ff ff 	mov    %rax,-0x1f08(%rbp)
    c259:	48 8d 05 88 ec 00 00 	lea    0xec88(%rip),%rax        # 1aee8 <g_764>
    c260:	48 89 85 00 e1 ff ff 	mov    %rax,-0x1f00(%rbp)
    c267:	48 8d 85 08 da ff ff 	lea    -0x25f8(%rbp),%rax
    c26e:	48 89 85 08 e1 ff ff 	mov    %rax,-0x1ef8(%rbp)
    c275:	48 8d 05 6c ec 00 00 	lea    0xec6c(%rip),%rax        # 1aee8 <g_764>
    c27c:	48 89 85 10 e1 ff ff 	mov    %rax,-0x1ef0(%rbp)
    c283:	48 8d 05 5e ec 00 00 	lea    0xec5e(%rip),%rax        # 1aee8 <g_764>
    c28a:	48 89 85 18 e1 ff ff 	mov    %rax,-0x1ee8(%rbp)
    c291:	48 8d 85 08 da ff ff 	lea    -0x25f8(%rbp),%rax
    c298:	48 89 85 20 e1 ff ff 	mov    %rax,-0x1ee0(%rbp)
    c29f:	48 8d 05 42 ec 00 00 	lea    0xec42(%rip),%rax        # 1aee8 <g_764>
    c2a6:	48 89 85 28 e1 ff ff 	mov    %rax,-0x1ed8(%rbp)
    c2ad:	48 8d 05 34 ec 00 00 	lea    0xec34(%rip),%rax        # 1aee8 <g_764>
    c2b4:	48 89 85 30 e1 ff ff 	mov    %rax,-0x1ed0(%rbp)
    c2bb:	48 8d 85 08 da ff ff 	lea    -0x25f8(%rbp),%rax
    c2c2:	48 89 85 38 e1 ff ff 	mov    %rax,-0x1ec8(%rbp)
    c2c9:	48 8d 05 18 ec 00 00 	lea    0xec18(%rip),%rax        # 1aee8 <g_764>
    c2d0:	48 89 85 40 e1 ff ff 	mov    %rax,-0x1ec0(%rbp)
    c2d7:	48 8d 05 0a ec 00 00 	lea    0xec0a(%rip),%rax        # 1aee8 <g_764>
    c2de:	48 89 85 48 e1 ff ff 	mov    %rax,-0x1eb8(%rbp)
    c2e5:	c7 85 6c d8 ff ff 8f 	movl   $0xa4f2bf8f,-0x2794(%rbp)
    c2ec:	bf f2 a4 
    c2ef:	48 8d 05 3a ea 00 00 	lea    0xea3a(%rip),%rax        # 1ad30 <g_530>
    c2f6:	48 89 85 08 de ff ff 	mov    %rax,-0x21f8(%rbp)
    c2fd:	48 8d 85 50 e2 ff ff 	lea    -0x1db0(%rbp),%rax
    c304:	48 83 c0 60          	add    $0x60,%rax
    c308:	48 89 85 10 de ff ff 	mov    %rax,-0x21f0(%rbp)
    c30f:	48 8d 05 3a d1 00 00 	lea    0xd13a(%rip),%rax        # 19450 <g_874>
    c316:	48 89 85 18 de ff ff 	mov    %rax,-0x21e8(%rbp)
    c31d:	c7 85 a0 d9 ff ff 01 	movl   $0x1,-0x2660(%rbp)
    c324:	00 00 00 
    c327:	48 8d 85 6c d8 ff ff 	lea    -0x2794(%rbp),%rax
    c32e:	48 89 85 20 de ff ff 	mov    %rax,-0x21e0(%rbp)
    c335:	66 c7 85 46 d8 ff ff 	movw   $0x2b01,-0x27ba(%rbp)
    c33c:	01 2b 
    c33e:	c7 85 fc d8 ff ff 00 	movl   $0x0,-0x2704(%rbp)
    c345:	00 00 00 
    c348:	eb 76                	jmp    c3c0 <func_27+0x36a6>
    c34a:	c7 85 00 d9 ff ff 00 	movl   $0x0,-0x2700(%rbp)
    c351:	00 00 00 
    c354:	eb 5a                	jmp    c3b0 <func_27+0x3696>
    c356:	c7 85 04 d9 ff ff 00 	movl   $0x0,-0x26fc(%rbp)
    c35d:	00 00 00 
    c360:	eb 3e                	jmp    c3a0 <func_27+0x3686>
    c362:	8b 85 04 d9 ff ff    	mov    -0x26fc(%rbp),%eax
    c368:	48 98                	cltq   
    c36a:	8b 95 fc d8 ff ff    	mov    -0x2704(%rbp),%edx
    c370:	48 63 ca             	movslq %edx,%rcx
    c373:	8b 95 00 d9 ff ff    	mov    -0x2700(%rbp),%edx
    c379:	48 63 d2             	movslq %edx,%rdx
    c37c:	48 c1 e1 02          	shl    $0x2,%rcx
    c380:	48 01 ca             	add    %rcx,%rdx
    c383:	48 01 d2             	add    %rdx,%rdx
    c386:	48 8d 5d d0          	lea    -0x30(%rbp),%rbx
    c38a:	48 01 da             	add    %rbx,%rdx
    c38d:	48 01 d0             	add    %rdx,%rax
    c390:	48 2d 90 20 00 00    	sub    $0x2090,%rax
    c396:	c6 00 f9             	movb   $0xf9,(%rax)
    c399:	83 85 04 d9 ff ff 01 	addl   $0x1,-0x26fc(%rbp)
    c3a0:	83 bd 04 d9 ff ff 01 	cmpl   $0x1,-0x26fc(%rbp)
    c3a7:	7e b9                	jle    c362 <func_27+0x3648>
    c3a9:	83 85 00 d9 ff ff 01 	addl   $0x1,-0x2700(%rbp)
    c3b0:	83 bd 00 d9 ff ff 03 	cmpl   $0x3,-0x2700(%rbp)
    c3b7:	7e 9d                	jle    c356 <func_27+0x363c>
    c3b9:	83 85 fc d8 ff ff 01 	addl   $0x1,-0x2704(%rbp)
    c3c0:	83 bd fc d8 ff ff 02 	cmpl   $0x2,-0x2704(%rbp)
    c3c7:	7e 81                	jle    c34a <func_27+0x3630>
    c3c9:	c7 85 fc d8 ff ff 00 	movl   $0x0,-0x2704(%rbp)
    c3d0:	00 00 00 
    c3d3:	eb 1b                	jmp    c3f0 <func_27+0x36d6>
    c3d5:	8b 85 fc d8 ff ff    	mov    -0x2704(%rbp),%eax
    c3db:	48 98                	cltq   
    c3dd:	48 c7 84 c5 b0 df ff 	movq   $0x0,-0x2050(%rbp,%rax,8)
    c3e4:	ff 00 00 00 00 
    c3e9:	83 85 fc d8 ff ff 01 	addl   $0x1,-0x2704(%rbp)
    c3f0:	83 bd fc d8 ff ff 04 	cmpl   $0x4,-0x2704(%rbp)
    c3f7:	7e dc                	jle    c3d5 <func_27+0x36bb>
    c3f9:	c7 85 fc d8 ff ff 00 	movl   $0x0,-0x2704(%rbp)
    c400:	00 00 00 
    c403:	eb 1a                	jmp    c41f <func_27+0x3705>
    c405:	8b 85 fc d8 ff ff    	mov    -0x2704(%rbp),%eax
    c40b:	48 98                	cltq   
    c40d:	c7 84 85 f4 de ff ff 	movl   $0xcc02c1c1,-0x210c(%rbp,%rax,4)
    c414:	c1 c1 02 cc 
    c418:	83 85 fc d8 ff ff 01 	addl   $0x1,-0x2704(%rbp)
    c41f:	83 bd fc d8 ff ff 00 	cmpl   $0x0,-0x2704(%rbp)
    c426:	7e dd                	jle    c405 <func_27+0x36eb>
    c428:	48 8b 85 28 dc ff ff 	mov    -0x23d8(%rbp),%rax
    c42f:	48 8b 95 d8 dd ff ff 	mov    -0x2228(%rbp),%rdx
    c436:	48 89 10             	mov    %rdx,(%rax)
    c439:	48 8b 85 10 d8 ff ff 	mov    -0x27f0(%rbp),%rax
    c440:	41 89 c7             	mov    %eax,%r15d
    c443:	48 8d 85 e8 d9 ff ff 	lea    -0x2618(%rbp),%rax
    c44a:	48 89 85 e0 dd ff ff 	mov    %rax,-0x2220(%rbp)
    c451:	48 8d 85 e8 d9 ff ff 	lea    -0x2618(%rbp),%rax
    c458:	48 89 85 e8 dd ff ff 	mov    %rax,-0x2218(%rbp)
    c45f:	48 8b 85 e0 dd ff ff 	mov    -0x2220(%rbp),%rax
    c466:	48 3b 85 e8 dd ff ff 	cmp    -0x2218(%rbp),%rax
    c46d:	0f 85 1e 01 00 00    	jne    c591 <func_27+0x3877>
    c473:	48 8b 85 10 d8 ff ff 	mov    -0x27f0(%rbp),%rax
    c47a:	44 0f bf e0          	movswl %ax,%r12d
    c47e:	44 8b 2d 6b cf 00 00 	mov    0xcf6b(%rip),%r13d        # 193f0 <g_714+0x10>
    c485:	48 8b 85 08 d8 ff ff 	mov    -0x27f8(%rbp),%rax
    c48c:	0f b6 00             	movzbl (%rax),%eax
    c48f:	44 0f b6 f0          	movzbl %al,%r14d
    c493:	48 8b 05 be ed 00 00 	mov    0xedbe(%rip),%rax        # 1b258 <g_1352>
    c49a:	48 8b 85 18 dc ff ff 	mov    -0x23e8(%rbp),%rax
    c4a1:	48 3b 85 f8 dd ff ff 	cmp    -0x2208(%rbp),%rax
    c4a8:	0f 94 c0             	sete   %al
    c4ab:	0f b6 d0             	movzbl %al,%edx
    c4ae:	48 8b 85 10 d8 ff ff 	mov    -0x27f0(%rbp),%rax
    c4b5:	48 39 c2             	cmp    %rax,%rdx
    c4b8:	0f 96 c0             	setbe  %al
    c4bb:	0f b6 d0             	movzbl %al,%edx
    c4be:	48 8b 85 10 d8 ff ff 	mov    -0x27f0(%rbp),%rax
    c4c5:	89 c1                	mov    %eax,%ecx
    c4c7:	48 8b 85 f0 dd ff ff 	mov    -0x2210(%rbp),%rax
    c4ce:	88 08                	mov    %cl,(%rax)
    c4d0:	48 8b 85 f0 dd ff ff 	mov    -0x2210(%rbp),%rax
    c4d7:	0f b6 00             	movzbl (%rax),%eax
    c4da:	3c db                	cmp    $0xdb,%al
    c4dc:	0f 96 c0             	setbe  %al
    c4df:	0f b6 c0             	movzbl %al,%eax
    c4e2:	48 8b 9d f0 d9 ff ff 	mov    -0x2610(%rbp),%rbx
    c4e9:	89 d6                	mov    %edx,%esi
    c4eb:	89 c7                	mov    %eax,%edi
    c4ed:	e8 03 8f ff ff       	callq  53f5 <safe_mul_func_int16_t_s_s>
    c4f2:	66 89 03             	mov    %ax,(%rbx)
    c4f5:	0f b7 03             	movzwl (%rbx),%eax
    c4f8:	0f b6 95 44 df ff ff 	movzbl -0x20bc(%rbp),%edx
    c4ff:	21 d0                	and    %edx,%eax
    c501:	88 85 44 df ff ff    	mov    %al,-0x20bc(%rbp)
    c507:	0f b6 8d 44 df ff ff 	movzbl -0x20bc(%rbp),%ecx
    c50e:	48 8b 85 d8 dd ff ff 	mov    -0x2228(%rbp),%rax
    c515:	8b 10                	mov    (%rax),%edx
    c517:	0f b6 c1             	movzbl %cl,%eax
    c51a:	31 c2                	xor    %eax,%edx
    c51c:	48 8b 85 d8 dd ff ff 	mov    -0x2228(%rbp),%rax
    c523:	89 10                	mov    %edx,(%rax)
    c525:	48 8b 85 d8 dd ff ff 	mov    -0x2228(%rbp),%rax
    c52c:	8b 00                	mov    (%rax),%eax
    c52e:	98                   	cwtl   
    c52f:	be 86 67 00 00       	mov    $0x6786,%esi
    c534:	89 c7                	mov    %eax,%edi
    c536:	e8 98 8e ff ff       	callq  53d3 <safe_sub_func_int16_t_s_s>
    c53b:	89 c2                	mov    %eax,%edx
    c53d:	8b 85 60 d8 ff ff    	mov    -0x27a0(%rbp),%eax
    c543:	31 d0                	xor    %edx,%eax
    c545:	0f b6 c0             	movzbl %al,%eax
    c548:	44 89 f6             	mov    %r14d,%esi
    c54b:	89 c7                	mov    %eax,%edi
    c54d:	e8 26 96 ff ff       	callq  5b78 <safe_sub_func_uint8_t_u_u>
    c552:	0f b6 c0             	movzbl %al,%eax
    c555:	48 ba 24 3a 56 ef c5 	movabs $0x821916c5ef563a24,%rdx
    c55c:	16 19 82 
    c55f:	48 31 c2             	xor    %rax,%rdx
    c562:	0f b6 85 24 d8 ff ff 	movzbl -0x27dc(%rbp),%eax
    c569:	48 0f be c0          	movsbq %al,%rax
    c56d:	48 39 c2             	cmp    %rax,%rdx
    c570:	0f 94 c0             	sete   %al
    c573:	0f b6 c0             	movzbl %al,%eax
    c576:	44 89 ee             	mov    %r13d,%esi
    c579:	89 c7                	mov    %eax,%edi
    c57b:	e8 6e 8d ff ff       	callq  52ee <safe_lshift_func_int8_t_s_u>
    c580:	0f be c0             	movsbl %al,%eax
    c583:	44 89 e6             	mov    %r12d,%esi
    c586:	89 c7                	mov    %eax,%edi
    c588:	e8 26 8e ff ff       	callq  53b3 <safe_add_func_int16_t_s_s>
    c58d:	66 85 c0             	test   %ax,%ax
    c590:	90                   	nop
    c591:	48 8b 85 d8 dd ff ff 	mov    -0x2228(%rbp),%rax
    c598:	8b 00                	mov    (%rax),%eax
    c59a:	0f b6 c0             	movzbl %al,%eax
    c59d:	44 89 fe             	mov    %r15d,%esi
    c5a0:	89 c7                	mov    %eax,%edi
    c5a2:	e8 17 97 ff ff       	callq  5cbe <safe_rshift_func_uint8_t_u_u>
    c5a7:	0f b6 c0             	movzbl %al,%eax
    c5aa:	83 e0 fe             	and    $0xfffffffe,%eax
    c5ad:	89 c2                	mov    %eax,%edx
    c5af:	8b 85 50 d8 ff ff    	mov    -0x27b0(%rbp),%eax
    c5b5:	09 d0                	or     %edx,%eax
    c5b7:	89 85 50 d8 ff ff    	mov    %eax,-0x27b0(%rbp)
    c5bd:	48 c7 05 60 d3 00 00 	movq   $0x0,0xd360(%rip)        # 19928 <g_1100>
    c5c4:	00 00 00 00 
    c5c8:	e9 61 24 00 00       	jmpq   ea2e <func_27+0x5d14>
    c5cd:	c7 85 a4 d9 ff ff ff 	movl   $0xffffffff,-0x265c(%rbp)
    c5d4:	ff ff ff 
    c5d7:	48 c7 85 28 de ff ff 	movq   $0x9,-0x21d8(%rbp)
    c5de:	09 00 00 00 
    c5e2:	48 8d 85 b0 eb ff ff 	lea    -0x1450(%rbp),%rax
    c5e9:	48 05 b0 00 00 00    	add    $0xb0,%rax
    c5ef:	48 89 85 30 de ff ff 	mov    %rax,-0x21d0(%rbp)
    c5f6:	c7 85 80 df ff ff 1e 	movl   $0x9fb32e1e,-0x2080(%rbp)
    c5fd:	2e b3 9f 
    c600:	c7 85 84 df ff ff 1e 	movl   $0x9fb32e1e,-0x207c(%rbp)
    c607:	2e b3 9f 
    c60a:	c7 85 88 df ff ff 1e 	movl   $0x9fb32e1e,-0x2078(%rbp)
    c611:	2e b3 9f 
    c614:	c7 85 8c df ff ff 1e 	movl   $0x9fb32e1e,-0x2074(%rbp)
    c61b:	2e b3 9f 
    c61e:	c7 85 90 df ff ff 1e 	movl   $0x9fb32e1e,-0x2070(%rbp)
    c625:	2e b3 9f 
    c628:	c7 85 94 df ff ff 1e 	movl   $0x9fb32e1e,-0x206c(%rbp)
    c62f:	2e b3 9f 
    c632:	c7 85 98 df ff ff 1e 	movl   $0x9fb32e1e,-0x2068(%rbp)
    c639:	2e b3 9f 
    c63c:	c7 85 9c df ff ff 1e 	movl   $0x9fb32e1e,-0x2064(%rbp)
    c643:	2e b3 9f 
    c646:	c7 85 a0 df ff ff 1e 	movl   $0x9fb32e1e,-0x2060(%rbp)
    c64d:	2e b3 9f 
    c650:	48 8d 85 f0 d9 ff ff 	lea    -0x2610(%rbp),%rax
    c657:	48 89 85 38 de ff ff 	mov    %rax,-0x21c8(%rbp)
    c65e:	48 8d 85 ec de ff ff 	lea    -0x2114(%rbp),%rax
    c665:	48 89 85 40 de ff ff 	mov    %rax,-0x21c0(%rbp)
    c66c:	48 8d 85 50 e1 ff ff 	lea    -0x1eb0(%rbp),%rax
    c673:	48 83 c0 70          	add    $0x70,%rax
    c677:	48 89 85 48 de ff ff 	mov    %rax,-0x21b8(%rbp)
    c67e:	48 8d 05 13 e6 00 00 	lea    0xe613(%rip),%rax        # 1ac98 <g_367+0x18>
    c685:	48 89 85 50 de ff ff 	mov    %rax,-0x21b0(%rbp)
    c68c:	48 8d 85 f8 d9 ff ff 	lea    -0x2608(%rbp),%rax
    c693:	48 89 85 58 de ff ff 	mov    %rax,-0x21a8(%rbp)
    c69a:	c6 85 30 d8 ff ff 4b 	movb   $0x4b,-0x27d0(%rbp)
    c6a1:	48 c7 05 04 d3 00 00 	movq   $0x0,0xd304(%rip)        # 199b0 <g_1104>
    c6a8:	00 00 00 00 
    c6ac:	e9 5a 23 00 00       	jmpq   ea0b <func_27+0x5cf1>
    c6b1:	c7 85 a8 d9 ff ff fe 	movl   $0xfffffffe,-0x2658(%rbp)
    c6b8:	ff ff ff 
    c6bb:	48 8d 05 96 f9 00 00 	lea    0xf996(%rip),%rax        # 1c058 <g_454>
    c6c2:	48 89 85 78 da ff ff 	mov    %rax,-0x2588(%rbp)
    c6c9:	48 8d 85 24 d8 ff ff 	lea    -0x27dc(%rbp),%rax
    c6d0:	48 89 85 60 de ff ff 	mov    %rax,-0x21a0(%rbp)
    c6d7:	48 c7 85 68 de ff ff 	movq   $0xffffffffffffffff,-0x2198(%rbp)
    c6de:	ff ff ff ff 
    c6e2:	c6 85 68 d8 ff ff 01 	movb   $0x1,-0x2798(%rbp)
    c6e9:	48 8d 05 b0 d4 00 00 	lea    0xd4b0(%rip),%rax        # 19ba0 <g_1427>
    c6f0:	48 89 85 80 da ff ff 	mov    %rax,-0x2580(%rbp)
    c6f7:	48 8d 85 80 da ff ff 	lea    -0x2580(%rbp),%rax
    c6fe:	48 89 85 70 de ff ff 	mov    %rax,-0x2190(%rbp)
    c705:	c7 85 ac d9 ff ff f9 	movl   $0xfffffff9,-0x2654(%rbp)
    c70c:	ff ff ff 
    c70f:	48 8d 85 60 d8 ff ff 	lea    -0x27a0(%rbp),%rax
    c716:	48 89 85 78 de ff ff 	mov    %rax,-0x2188(%rbp)
    c71d:	48 8d 05 fc e4 00 00 	lea    0xe4fc(%rip),%rax        # 1ac20 <g_279>
    c724:	48 89 85 60 df ff ff 	mov    %rax,-0x20a0(%rbp)
    c72b:	48 8d 05 ee e4 00 00 	lea    0xe4ee(%rip),%rax        # 1ac20 <g_279>
    c732:	48 89 85 68 df ff ff 	mov    %rax,-0x2098(%rbp)
    c739:	48 8d 05 e0 e4 00 00 	lea    0xe4e0(%rip),%rax        # 1ac20 <g_279>
    c740:	48 89 85 70 df ff ff 	mov    %rax,-0x2090(%rbp)
    c747:	48 8d 05 d2 e4 00 00 	lea    0xe4d2(%rip),%rax        # 1ac20 <g_279>
    c74e:	48 89 85 78 df ff ff 	mov    %rax,-0x2088(%rbp)
    c755:	48 8d 85 b0 e6 ff ff 	lea    -0x1950(%rbp),%rax
    c75c:	48 8d 15 bd dc 00 00 	lea    0xdcbd(%rip),%rdx        # 1a420 <g_2930+0x710>
    c763:	b9 a0 00 00 00       	mov    $0xa0,%ecx
    c768:	48 89 c7             	mov    %rax,%rdi
    c76b:	48 89 d6             	mov    %rdx,%rsi
    c76e:	f3 48 a5             	rep movsq %ds:(%rsi),%es:(%rdi)
    c771:	48 8d 85 b0 e6 ff ff 	lea    -0x1950(%rbp),%rax
    c778:	48 05 d8 00 00 00    	add    $0xd8,%rax
    c77e:	48 89 85 80 de ff ff 	mov    %rax,-0x2180(%rbp)
    c785:	48 b8 63 63 de 9e 30 	movabs $0x301211309ede6363,%rax
    c78c:	11 12 30 
    c78f:	48 89 85 88 de ff ff 	mov    %rax,-0x2178(%rbp)
    c796:	c7 85 b0 d9 ff ff 53 	movl   $0x33ca9b53,-0x2650(%rbp)
    c79d:	9b ca 33 
    c7a0:	c7 85 b4 d9 ff ff 64 	movl   $0x8b975a64,-0x264c(%rbp)
    c7a7:	5a 97 8b 
    c7aa:	c7 85 b8 d9 ff ff 96 	movl   $0xde291b96,-0x2648(%rbp)
    c7b1:	1b 29 de 
    c7b4:	c7 85 bc d9 ff ff 07 	movl   $0x7,-0x2644(%rbp)
    c7bb:	00 00 00 
    c7be:	c7 85 c0 d9 ff ff 26 	movl   $0x9d41de26,-0x2640(%rbp)
    c7c5:	de 41 9d 
    c7c8:	c7 85 c4 d9 ff ff ff 	movl   $0xffffffff,-0x263c(%rbp)
    c7cf:	ff ff ff 
    c7d2:	66 c7 85 48 d8 ff ff 	movw   $0x8c28,-0x27b8(%rbp)
    c7d9:	28 8c 
    c7db:	48 8d 05 6e cc 00 00 	lea    0xcc6e(%rip),%rax        # 19450 <g_874>
    c7e2:	48 89 85 90 de ff ff 	mov    %rax,-0x2170(%rbp)
    c7e9:	48 8d 85 48 da ff ff 	lea    -0x25b8(%rbp),%rax
    c7f0:	48 89 85 98 de ff ff 	mov    %rax,-0x2168(%rbp)
    c7f7:	48 b8 b4 73 0e 5f 6f 	movabs $0xc386b56f5f0e73b4,%rax
    c7fe:	b5 86 c3 
    c801:	48 89 85 a0 de ff ff 	mov    %rax,-0x2160(%rbp)
    c808:	48 8d 85 30 e3 ff ff 	lea    -0x1cd0(%rbp),%rax
    c80f:	48 05 68 03 00 00    	add    $0x368,%rax
    c815:	48 89 85 88 da ff ff 	mov    %rax,-0x2578(%rbp)
    c81c:	48 8d 85 88 da ff ff 	lea    -0x2578(%rbp),%rax
    c823:	48 89 85 a8 de ff ff 	mov    %rax,-0x2158(%rbp)
    c82a:	c7 85 c8 d9 ff ff 9f 	movl   $0xcf90b29f,-0x2638(%rbp)
    c831:	b2 90 cf 
    c834:	66 c7 85 4a d8 ff ff 	movw   $0x1,-0x27b6(%rbp)
    c83b:	01 00 
    c83d:	c7 85 d0 d8 ff ff 00 	movl   $0x0,-0x2730(%rbp)
    c844:	00 00 00 
    c847:	eb 1a                	jmp    c863 <func_27+0x3b49>
    c849:	8b 85 d0 d8 ff ff    	mov    -0x2730(%rbp),%eax
    c84f:	48 98                	cltq   
    c851:	c7 84 85 f8 de ff ff 	movl   $0x0,-0x2108(%rbp,%rax,4)
    c858:	00 00 00 00 
    c85c:	83 85 d0 d8 ff ff 01 	addl   $0x1,-0x2730(%rbp)
    c863:	83 bd d0 d8 ff ff 01 	cmpl   $0x1,-0x2730(%rbp)
    c86a:	7e dd                	jle    c849 <func_27+0x3b2f>
    c86c:	0f b7 05 9d c8 00 00 	movzwl 0xc89d(%rip),%eax        # 19110 <g_298>
    c873:	0f be d8             	movsbl %al,%ebx
    c876:	44 8b a5 a4 d9 ff ff 	mov    -0x265c(%rbp),%r12d
    c87d:	48 8b 85 40 dc ff ff 	mov    -0x23c0(%rbp),%rax
    c884:	48 c7 00 f8 ff ff ff 	movq   $0xfffffffffffffff8,(%rax)
    c88b:	0f b6 85 1c d8 ff ff 	movzbl -0x27e4(%rbp),%eax
    c892:	0f be c0             	movsbl %al,%eax
    c895:	be 21 00 00 00       	mov    $0x21,%esi
    c89a:	89 c7                	mov    %eax,%edi
    c89c:	e8 33 89 ff ff       	callq  51d4 <safe_add_func_int8_t_s_s>
    c8a1:	48 0f be c0          	movsbq %al,%rax
    c8a5:	48 39 85 68 de ff ff 	cmp    %rax,-0x2198(%rbp)
    c8ac:	0f 95 c0             	setne  %al
    c8af:	0f b6 c0             	movzbl %al,%eax
    c8b2:	39 85 a4 d9 ff ff    	cmp    %eax,-0x265c(%rbp)
    c8b8:	0f 94 c0             	sete   %al
    c8bb:	0f b6 d0             	movzbl %al,%edx
    c8be:	48 8b 85 28 dc ff ff 	mov    -0x23d8(%rbp),%rax
    c8c5:	48 8b 00             	mov    (%rax),%rax
    c8c8:	8b 00                	mov    (%rax),%eax
    c8ca:	39 c2                	cmp    %eax,%edx
    c8cc:	0f 94 c0             	sete   %al
    c8cf:	0f b6 d0             	movzbl %al,%edx
    c8d2:	48 8b 05 67 e6 00 00 	mov    0xe667(%rip),%rax        # 1af40 <g_810>
    c8d9:	48 8b 00             	mov    (%rax),%rax
    c8dc:	48 8b 00             	mov    (%rax),%rax
    c8df:	0f b6 08             	movzbl (%rax),%ecx
    c8e2:	8b 85 a8 d9 ff ff    	mov    -0x2658(%rbp),%eax
    c8e8:	89 c6                	mov    %eax,%esi
    c8ea:	48 8b 05 4f e6 00 00 	mov    0xe64f(%rip),%rax        # 1af40 <g_810>
    c8f1:	48 8b 00             	mov    (%rax),%rax
    c8f4:	48 8b 00             	mov    (%rax),%rax
    c8f7:	09 f1                	or     %esi,%ecx
    c8f9:	88 08                	mov    %cl,(%rax)
    c8fb:	0f b6 00             	movzbl (%rax),%eax
    c8fe:	0f be c0             	movsbl %al,%eax
    c901:	89 d6                	mov    %edx,%esi
    c903:	89 c7                	mov    %eax,%edi
    c905:	e8 e8 88 ff ff       	callq  51f2 <safe_sub_func_int8_t_s_s>
    c90a:	66 98                	cbtw   
    c90c:	0f b7 c0             	movzwl %ax,%eax
    c90f:	be ae da 00 00       	mov    $0xdaae,%esi
    c914:	89 c7                	mov    %eax,%edi
    c916:	e8 22 94 ff ff       	callq  5d3d <safe_mul_func_uint16_t_u_u>
    c91b:	0f b7 c0             	movzwl %ax,%eax
    c91e:	be aa a7 e4 1b       	mov    $0x1be4a7aa,%esi
    c923:	89 c7                	mov    %eax,%edi
    c925:	e8 db 8c ff ff       	callq  5605 <safe_sub_func_int32_t_s_s>
    c92a:	0f b7 d0             	movzwl %ax,%edx
    c92d:	48 8b 85 e0 e0 ff ff 	mov    -0x1f20(%rbp),%rax
    c934:	48 85 c0             	test   %rax,%rax
    c937:	0f 94 c0             	sete   %al
    c93a:	0f b6 c0             	movzbl %al,%eax
    c93d:	89 d6                	mov    %edx,%esi
    c93f:	89 c7                	mov    %eax,%edi
    c941:	e8 16 94 ff ff       	callq  5d5c <safe_mod_func_uint16_t_u_u>
    c946:	0f b7 c0             	movzwl %ax,%eax
    c949:	48 c7 c6 ff ff ff ff 	mov    $0xffffffffffffffff,%rsi
    c950:	48 89 c7             	mov    %rax,%rdi
    c953:	e8 d6 96 ff ff       	callq  602e <safe_add_func_uint64_t_u_u>
    c958:	98                   	cwtl   
    c959:	be 1f 0f 00 00       	mov    $0xf1f,%esi
    c95e:	89 c7                	mov    %eax,%edi
    c960:	e8 6e 8a ff ff       	callq  53d3 <safe_sub_func_int16_t_s_s>
    c965:	98                   	cwtl   
    c966:	33 85 a4 d9 ff ff    	xor    -0x265c(%rbp),%eax
    c96c:	48 98                	cltq   
    c96e:	48 39 85 68 de ff ff 	cmp    %rax,-0x2198(%rbp)
    c975:	0f 9e c0             	setle  %al
    c978:	0f b6 c0             	movzbl %al,%eax
    c97b:	39 85 a4 d9 ff ff    	cmp    %eax,-0x265c(%rbp)
    c981:	7e 0d                	jle    c990 <func_27+0x3c76>
    c983:	48 8b 05 96 e6 00 00 	mov    0xe696(%rip),%rax        # 1b020 <g_858>
    c98a:	8b 00                	mov    (%rax),%eax
    c98c:	85 c0                	test   %eax,%eax
    c98e:	74 07                	je     c997 <func_27+0x3c7d>
    c990:	b8 01 00 00 00       	mov    $0x1,%eax
    c995:	eb 05                	jmp    c99c <func_27+0x3c82>
    c997:	b8 00 00 00 00       	mov    $0x0,%eax
    c99c:	98                   	cwtl   
    c99d:	44 89 e6             	mov    %r12d,%esi
    c9a0:	89 c7                	mov    %eax,%edi
    c9a2:	e8 3a 8b ff ff       	callq  54e1 <safe_lshift_func_int16_t_s_u>
    c9a7:	0f be c0             	movsbl %al,%eax
    c9aa:	89 de                	mov    %ebx,%esi
    c9ac:	89 c7                	mov    %eax,%edi
    c9ae:	e8 5f 88 ff ff       	callq  5212 <safe_mul_func_int8_t_s_s>
    c9b3:	48 8b 85 10 d8 ff ff 	mov    -0x27f0(%rbp),%rax
    c9ba:	89 c2                	mov    %eax,%edx
    c9bc:	48 8b 85 d8 dd ff ff 	mov    -0x2228(%rbp),%rax
    c9c3:	89 10                	mov    %edx,(%rax)
    c9c5:	48 83 bd 60 de ff ff 	cmpq   $0x0,-0x21a0(%rbp)
    c9cc:	00 
    c9cd:	0f 84 2b 01 00 00    	je     cafe <func_27+0x3de4>
    c9d3:	c7 85 5c d8 ff ff 10 	movl   $0x10,-0x27a4(%rbp)
    c9da:	00 00 00 
    c9dd:	90                   	nop
    c9de:	8b 85 5c d8 ff ff    	mov    -0x27a4(%rbp),%eax
    c9e4:	83 f8 e2             	cmp    $0xffffffe2,%eax
    c9e7:	0f 85 f7 11 00 00    	jne    dbe4 <func_27+0x4eca>
    c9ed:	c6 85 31 d8 ff ff 01 	movb   $0x1,-0x27cf(%rbp)
    c9f4:	0f b6 85 1c d8 ff ff 	movzbl -0x27e4(%rbp),%eax
    c9fb:	0f be d8             	movsbl %al,%ebx
    c9fe:	48 8b 05 5b d1 00 00 	mov    0xd15b(%rip),%rax        # 19b60 <g_1405>
    ca05:	44 0f b6 a5 31 d8 ff 	movzbl -0x27cf(%rbp),%r12d
    ca0c:	ff 
    ca0d:	44 8b 2d 34 c6 00 00 	mov    0xc634(%rip),%r13d        # 19048 <g_32+0x8>
    ca14:	48 8b 05 7d d1 00 00 	mov    0xd17d(%rip),%rax        # 19b98 <g_1416+0x18>
    ca1b:	48 8b 85 28 de ff ff 	mov    -0x21d8(%rbp),%rax
    ca22:	89 c2                	mov    %eax,%edx
    ca24:	8b 85 a4 d9 ff ff    	mov    -0x265c(%rbp),%eax
    ca2a:	0f b6 c0             	movzbl %al,%eax
    ca2d:	89 d6                	mov    %edx,%esi
    ca2f:	89 c7                	mov    %eax,%edi
    ca31:	e8 57 92 ff ff       	callq  5c8d <safe_rshift_func_uint8_t_u_s>
    ca36:	84 c0                	test   %al,%al
    ca38:	0f 95 c0             	setne  %al
    ca3b:	0f b6 d0             	movzbl %al,%edx
    ca3e:	0f b6 85 1c d8 ff ff 	movzbl -0x27e4(%rbp),%eax
    ca45:	0f b6 c0             	movzbl %al,%eax
    ca48:	39 c2                	cmp    %eax,%edx
    ca4a:	0f 95 c0             	setne  %al
    ca4d:	0f b6 c0             	movzbl %al,%eax
    ca50:	be 00 00 00 00       	mov    $0x0,%esi
    ca55:	89 c7                	mov    %eax,%edi
    ca57:	e8 aa 93 ff ff       	callq  5e06 <safe_lshift_func_uint16_t_u_u>
    ca5c:	0f b6 95 31 d8 ff ff 	movzbl -0x27cf(%rbp),%edx
    ca63:	48 8b 85 10 d8 ff ff 	mov    -0x27f0(%rbp),%rax
    ca6a:	98                   	cwtl   
    ca6b:	89 d6                	mov    %edx,%esi
    ca6d:	89 c7                	mov    %eax,%edi
    ca6f:	e8 ef 8a ff ff       	callq  5563 <safe_rshift_func_int16_t_s_u>
    ca74:	0f b7 d0             	movzwl %ax,%edx
    ca77:	81 bd a8 d9 ff ff 2f 	cmpl   $0x6aa54d2f,-0x2658(%rbp)
    ca7e:	4d a5 6a 
    ca81:	74 0b                	je     ca8e <func_27+0x3d74>
    ca83:	0f b6 85 68 d8 ff ff 	movzbl -0x2798(%rbp),%eax
    ca8a:	84 c0                	test   %al,%al
    ca8c:	74 07                	je     ca95 <func_27+0x3d7b>
    ca8e:	b8 01 00 00 00       	mov    $0x1,%eax
    ca93:	eb 05                	jmp    ca9a <func_27+0x3d80>
    ca95:	b8 00 00 00 00       	mov    $0x0,%eax
    ca9a:	0f b7 c0             	movzwl %ax,%eax
    ca9d:	89 d6                	mov    %edx,%esi
    ca9f:	89 c7                	mov    %eax,%edi
    caa1:	e8 97 92 ff ff       	callq  5d3d <safe_mul_func_uint16_t_u_u>
    caa6:	44 89 ee             	mov    %r13d,%esi
    caa9:	bf 01 00 00 00       	mov    $0x1,%edi
    caae:	e8 b0 8a ff ff       	callq  5563 <safe_rshift_func_int16_t_s_u>
    cab3:	0f b7 c0             	movzwl %ax,%eax
    cab6:	44 89 e6             	mov    %r12d,%esi
    cab9:	89 c7                	mov    %eax,%edi
    cabb:	e8 46 93 ff ff       	callq  5e06 <safe_lshift_func_uint16_t_u_u>
    cac0:	0f b6 85 1c d8 ff ff 	movzbl -0x27e4(%rbp),%eax
    cac7:	0f b6 d0             	movzbl %al,%edx
    caca:	48 8b 85 10 d8 ff ff 	mov    -0x27f0(%rbp),%rax
    cad1:	48 39 c2             	cmp    %rax,%rdx
    cad4:	0f 96 c0             	setbe  %al
    cad7:	0f b6 c0             	movzbl %al,%eax
    cada:	89 de                	mov    %ebx,%esi
    cadc:	89 c7                	mov    %eax,%edi
    cade:	e8 2f 87 ff ff       	callq  5212 <safe_mul_func_int8_t_s_s>
    cae3:	0f be d0             	movsbl %al,%edx
    cae6:	48 8b 85 d8 dd ff ff 	mov    -0x2228(%rbp),%rax
    caed:	89 10                	mov    %edx,(%rax)
    caef:	0f b6 85 1c d8 ff ff 	movzbl -0x27e4(%rbp),%eax
    caf6:	0f b6 c0             	movzbl %al,%eax
    caf9:	e9 14 40 00 00       	jmpq   10b12 <func_27+0x7df8>
    cafe:	48 8d 85 d8 d9 ff ff 	lea    -0x2628(%rbp),%rax
    cb05:	48 89 85 90 da ff ff 	mov    %rax,-0x2570(%rbp)
    cb0c:	48 8d 85 90 da ff ff 	lea    -0x2570(%rbp),%rax
    cb13:	48 89 85 90 e0 ff ff 	mov    %rax,-0x1f70(%rbp)
    cb1a:	48 8d 85 90 da ff ff 	lea    -0x2570(%rbp),%rax
    cb21:	48 89 85 98 e0 ff ff 	mov    %rax,-0x1f68(%rbp)
    cb28:	48 8d 85 90 da ff ff 	lea    -0x2570(%rbp),%rax
    cb2f:	48 89 85 a0 e0 ff ff 	mov    %rax,-0x1f60(%rbp)
    cb36:	48 8d 85 90 da ff ff 	lea    -0x2570(%rbp),%rax
    cb3d:	48 89 85 a8 e0 ff ff 	mov    %rax,-0x1f58(%rbp)
    cb44:	48 8d 85 90 da ff ff 	lea    -0x2570(%rbp),%rax
    cb4b:	48 89 85 b0 e0 ff ff 	mov    %rax,-0x1f50(%rbp)
    cb52:	48 8d 85 90 da ff ff 	lea    -0x2570(%rbp),%rax
    cb59:	48 89 85 b8 e0 ff ff 	mov    %rax,-0x1f48(%rbp)
    cb60:	48 8d 85 90 da ff ff 	lea    -0x2570(%rbp),%rax
    cb67:	48 89 85 c0 e0 ff ff 	mov    %rax,-0x1f40(%rbp)
    cb6e:	48 8d 85 90 da ff ff 	lea    -0x2570(%rbp),%rax
    cb75:	48 89 85 c8 e0 ff ff 	mov    %rax,-0x1f38(%rbp)
    cb7c:	48 8d 85 90 da ff ff 	lea    -0x2570(%rbp),%rax
    cb83:	48 89 85 d0 e0 ff ff 	mov    %rax,-0x1f30(%rbp)
    cb8a:	48 8d 85 90 da ff ff 	lea    -0x2570(%rbp),%rax
    cb91:	48 89 85 d8 e0 ff ff 	mov    %rax,-0x1f28(%rbp)
    cb98:	c7 85 70 d8 ff ff e6 	movl   $0x651d19e6,-0x2790(%rbp)
    cb9f:	19 1d 65 
    cba2:	48 8b 85 90 da ff ff 	mov    -0x2570(%rbp),%rax
    cba9:	48 89 85 70 de ff ff 	mov    %rax,-0x2190(%rbp)
    cbb0:	48 8d 05 e9 f4 00 00 	lea    0xf4e9(%rip),%rax        # 1c0a0 <g_1078>
    cbb7:	48 39 85 70 de ff ff 	cmp    %rax,-0x2190(%rbp)
    cbbe:	0f 94 c0             	sete   %al
    cbc1:	0f b6 c0             	movzbl %al,%eax
    cbc4:	89 85 ac d9 ff ff    	mov    %eax,-0x2654(%rbp)
    cbca:	8b 95 ac d9 ff ff    	mov    -0x2654(%rbp),%edx
    cbd0:	48 8b 85 d8 dd ff ff 	mov    -0x2228(%rbp),%rax
    cbd7:	8b 00                	mov    (%rax),%eax
    cbd9:	09 c2                	or     %eax,%edx
    cbdb:	48 8b 85 d8 dd ff ff 	mov    -0x2228(%rbp),%rax
    cbe2:	89 10                	mov    %edx,(%rax)
    cbe4:	48 8b 85 d8 dd ff ff 	mov    -0x2228(%rbp),%rax
    cbeb:	8b 00                	mov    (%rax),%eax
    cbed:	89 85 6c d8 ff ff    	mov    %eax,-0x2794(%rbp)
    cbf3:	0f b6 85 1c d8 ff ff 	movzbl -0x27e4(%rbp),%eax
    cbfa:	0f b6 c8             	movzbl %al,%ecx
    cbfd:	48 8b 85 38 da ff ff 	mov    -0x25c8(%rbp),%rax
    cc04:	48 c7 00 00 00 00 00 	movq   $0x0,(%rax)
    cc0b:	48 8b 00             	mov    (%rax),%rax
    cc0e:	48 8d 95 70 d8 ff ff 	lea    -0x2790(%rbp),%rdx
    cc15:	48 89 95 78 de ff ff 	mov    %rdx,-0x2188(%rbp)
    cc1c:	48 39 85 78 de ff ff 	cmp    %rax,-0x2188(%rbp)
    cc23:	0f b6 85 1c d8 ff ff 	movzbl -0x27e4(%rbp),%eax
    cc2a:	84 c0                	test   %al,%al
    cc2c:	74 07                	je     cc35 <func_27+0x3f1b>
    cc2e:	b8 01 00 00 00       	mov    $0x1,%eax
    cc33:	eb 05                	jmp    cc3a <func_27+0x3f20>
    cc35:	b8 00 00 00 00       	mov    $0x0,%eax
    cc3a:	83 f8 03             	cmp    $0x3,%eax
    cc3d:	0f 94 c0             	sete   %al
    cc40:	0f b6 c0             	movzbl %al,%eax
    cc43:	39 c1                	cmp    %eax,%ecx
    cc45:	0f 94 c0             	sete   %al
    cc48:	0f b6 c0             	movzbl %al,%eax
    cc4b:	89 85 70 d8 ff ff    	mov    %eax,-0x2790(%rbp)
    cc51:	c7 85 50 d8 ff ff 00 	movl   $0x0,-0x27b0(%rbp)
    cc58:	00 00 00 
    cc5b:	e9 43 0f 00 00       	jmpq   dba3 <func_27+0x4e89>
    cc60:	48 c7 85 e0 f7 ff ff 	movq   $0x0,-0x820(%rbp)
    cc67:	00 00 00 00 
    cc6b:	48 c7 85 e8 f7 ff ff 	movq   $0x0,-0x818(%rbp)
    cc72:	00 00 00 00 
    cc76:	48 c7 85 f0 f7 ff ff 	movq   $0x0,-0x810(%rbp)
    cc7d:	00 00 00 00 
    cc81:	48 8d 85 68 d8 ff ff 	lea    -0x2798(%rbp),%rax
    cc88:	48 89 85 f8 f7 ff ff 	mov    %rax,-0x808(%rbp)
    cc8f:	48 8d 85 25 d8 ff ff 	lea    -0x27db(%rbp),%rax
    cc96:	48 89 85 00 f8 ff ff 	mov    %rax,-0x800(%rbp)
    cc9d:	48 8d 85 25 d8 ff ff 	lea    -0x27db(%rbp),%rax
    cca4:	48 89 85 08 f8 ff ff 	mov    %rax,-0x7f8(%rbp)
    ccab:	48 8d 85 40 df ff ff 	lea    -0x20c0(%rbp),%rax
    ccb2:	48 83 c0 04          	add    $0x4,%rax
    ccb6:	48 89 85 10 f8 ff ff 	mov    %rax,-0x7f0(%rbp)
    ccbd:	48 8d 85 40 df ff ff 	lea    -0x20c0(%rbp),%rax
    ccc4:	48 83 c0 02          	add    $0x2,%rax
    ccc8:	48 89 85 18 f8 ff ff 	mov    %rax,-0x7e8(%rbp)
    cccf:	48 8d 85 40 df ff ff 	lea    -0x20c0(%rbp),%rax
    ccd6:	48 83 c0 04          	add    $0x4,%rax
    ccda:	48 89 85 20 f8 ff ff 	mov    %rax,-0x7e0(%rbp)
    cce1:	48 8d 85 40 df ff ff 	lea    -0x20c0(%rbp),%rax
    cce8:	48 83 c0 04          	add    $0x4,%rax
    ccec:	48 89 85 28 f8 ff ff 	mov    %rax,-0x7d8(%rbp)
    ccf3:	48 8d 85 40 df ff ff 	lea    -0x20c0(%rbp),%rax
    ccfa:	48 83 c0 04          	add    $0x4,%rax
    ccfe:	48 89 85 30 f8 ff ff 	mov    %rax,-0x7d0(%rbp)
    cd05:	48 8d 85 40 df ff ff 	lea    -0x20c0(%rbp),%rax
    cd0c:	48 83 c0 04          	add    $0x4,%rax
    cd10:	48 89 85 38 f8 ff ff 	mov    %rax,-0x7c8(%rbp)
    cd17:	48 c7 85 40 f8 ff ff 	movq   $0x0,-0x7c0(%rbp)
    cd1e:	00 00 00 00 
    cd22:	48 8d 85 40 df ff ff 	lea    -0x20c0(%rbp),%rax
    cd29:	48 83 c0 11          	add    $0x11,%rax
    cd2d:	48 89 85 48 f8 ff ff 	mov    %rax,-0x7b8(%rbp)
    cd34:	48 8d 85 25 d8 ff ff 	lea    -0x27db(%rbp),%rax
    cd3b:	48 89 85 50 f8 ff ff 	mov    %rax,-0x7b0(%rbp)
    cd42:	48 c7 85 58 f8 ff ff 	movq   $0x0,-0x7a8(%rbp)
    cd49:	00 00 00 00 
    cd4d:	48 8d 85 25 d8 ff ff 	lea    -0x27db(%rbp),%rax
    cd54:	48 89 85 60 f8 ff ff 	mov    %rax,-0x7a0(%rbp)
    cd5b:	48 8d 85 40 df ff ff 	lea    -0x20c0(%rbp),%rax
    cd62:	48 83 c0 04          	add    $0x4,%rax
    cd66:	48 89 85 68 f8 ff ff 	mov    %rax,-0x798(%rbp)
    cd6d:	48 8d 85 25 d8 ff ff 	lea    -0x27db(%rbp),%rax
    cd74:	48 89 85 70 f8 ff ff 	mov    %rax,-0x790(%rbp)
    cd7b:	48 c7 85 78 f8 ff ff 	movq   $0x0,-0x788(%rbp)
    cd82:	00 00 00 00 
    cd86:	48 8d 85 25 d8 ff ff 	lea    -0x27db(%rbp),%rax
    cd8d:	48 89 85 80 f8 ff ff 	mov    %rax,-0x780(%rbp)
    cd94:	48 8d 85 68 d8 ff ff 	lea    -0x2798(%rbp),%rax
    cd9b:	48 89 85 88 f8 ff ff 	mov    %rax,-0x778(%rbp)
    cda2:	48 8d 85 40 df ff ff 	lea    -0x20c0(%rbp),%rax
    cda9:	48 83 c0 04          	add    $0x4,%rax
    cdad:	48 89 85 90 f8 ff ff 	mov    %rax,-0x770(%rbp)
    cdb4:	48 c7 85 98 f8 ff ff 	movq   $0x0,-0x768(%rbp)
    cdbb:	00 00 00 00 
    cdbf:	48 8d 85 40 df ff ff 	lea    -0x20c0(%rbp),%rax
    cdc6:	48 83 c0 04          	add    $0x4,%rax
    cdca:	48 89 85 a0 f8 ff ff 	mov    %rax,-0x760(%rbp)
    cdd1:	48 8d 85 40 df ff ff 	lea    -0x20c0(%rbp),%rax
    cdd8:	48 83 c0 17          	add    $0x17,%rax
    cddc:	48 89 85 a8 f8 ff ff 	mov    %rax,-0x758(%rbp)
    cde3:	48 8d 85 40 df ff ff 	lea    -0x20c0(%rbp),%rax
    cdea:	48 83 c0 11          	add    $0x11,%rax
    cdee:	48 89 85 b0 f8 ff ff 	mov    %rax,-0x750(%rbp)
    cdf5:	48 8d 85 40 df ff ff 	lea    -0x20c0(%rbp),%rax
    cdfc:	48 83 c0 04          	add    $0x4,%rax
    ce00:	48 89 85 b8 f8 ff ff 	mov    %rax,-0x748(%rbp)
    ce07:	48 8d 85 40 df ff ff 	lea    -0x20c0(%rbp),%rax
    ce0e:	48 83 c0 04          	add    $0x4,%rax
    ce12:	48 89 85 c0 f8 ff ff 	mov    %rax,-0x740(%rbp)
    ce19:	48 8d 85 68 d8 ff ff 	lea    -0x2798(%rbp),%rax
    ce20:	48 89 85 c8 f8 ff ff 	mov    %rax,-0x738(%rbp)
    ce27:	48 8d 85 68 d8 ff ff 	lea    -0x2798(%rbp),%rax
    ce2e:	48 89 85 d0 f8 ff ff 	mov    %rax,-0x730(%rbp)
    ce35:	48 c7 85 d8 f8 ff ff 	movq   $0x0,-0x728(%rbp)
    ce3c:	00 00 00 00 
    ce40:	48 8d 85 40 df ff ff 	lea    -0x20c0(%rbp),%rax
    ce47:	48 83 c0 10          	add    $0x10,%rax
    ce4b:	48 89 85 e0 f8 ff ff 	mov    %rax,-0x720(%rbp)
    ce52:	48 8d 85 40 df ff ff 	lea    -0x20c0(%rbp),%rax
    ce59:	48 83 c0 04          	add    $0x4,%rax
    ce5d:	48 89 85 e8 f8 ff ff 	mov    %rax,-0x718(%rbp)
    ce64:	48 8d 85 40 df ff ff 	lea    -0x20c0(%rbp),%rax
    ce6b:	48 83 c0 04          	add    $0x4,%rax
    ce6f:	48 89 85 f0 f8 ff ff 	mov    %rax,-0x710(%rbp)
    ce76:	48 c7 85 f8 f8 ff ff 	movq   $0x0,-0x708(%rbp)
    ce7d:	00 00 00 00 
    ce81:	48 8d 85 68 d8 ff ff 	lea    -0x2798(%rbp),%rax
    ce88:	48 89 85 00 f9 ff ff 	mov    %rax,-0x700(%rbp)
    ce8f:	48 c7 85 08 f9 ff ff 	movq   $0x0,-0x6f8(%rbp)
    ce96:	00 00 00 00 
    ce9a:	48 8d 85 68 d8 ff ff 	lea    -0x2798(%rbp),%rax
    cea1:	48 89 85 10 f9 ff ff 	mov    %rax,-0x6f0(%rbp)
    cea8:	48 c7 85 18 f9 ff ff 	movq   $0x0,-0x6e8(%rbp)
    ceaf:	00 00 00 00 
    ceb3:	48 8d 85 40 df ff ff 	lea    -0x20c0(%rbp),%rax
    ceba:	48 83 c0 02          	add    $0x2,%rax
    cebe:	48 89 85 20 f9 ff ff 	mov    %rax,-0x6e0(%rbp)
    cec5:	48 8d 85 40 df ff ff 	lea    -0x20c0(%rbp),%rax
    cecc:	48 83 c0 04          	add    $0x4,%rax
    ced0:	48 89 85 28 f9 ff ff 	mov    %rax,-0x6d8(%rbp)
    ced7:	48 c7 85 30 f9 ff ff 	movq   $0x0,-0x6d0(%rbp)
    cede:	00 00 00 00 
    cee2:	48 8d 85 68 d8 ff ff 	lea    -0x2798(%rbp),%rax
    cee9:	48 89 85 38 f9 ff ff 	mov    %rax,-0x6c8(%rbp)
    cef0:	48 8d 85 25 d8 ff ff 	lea    -0x27db(%rbp),%rax
    cef7:	48 89 85 40 f9 ff ff 	mov    %rax,-0x6c0(%rbp)
    cefe:	48 8d 85 25 d8 ff ff 	lea    -0x27db(%rbp),%rax
    cf05:	48 89 85 48 f9 ff ff 	mov    %rax,-0x6b8(%rbp)
    cf0c:	48 8d 85 40 df ff ff 	lea    -0x20c0(%rbp),%rax
    cf13:	48 83 c0 04          	add    $0x4,%rax
    cf17:	48 89 85 50 f9 ff ff 	mov    %rax,-0x6b0(%rbp)
    cf1e:	48 8d 85 40 df ff ff 	lea    -0x20c0(%rbp),%rax
    cf25:	48 83 c0 04          	add    $0x4,%rax
    cf29:	48 89 85 58 f9 ff ff 	mov    %rax,-0x6a8(%rbp)
    cf30:	48 8d 85 40 df ff ff 	lea    -0x20c0(%rbp),%rax
    cf37:	48 83 c0 10          	add    $0x10,%rax
    cf3b:	48 89 85 60 f9 ff ff 	mov    %rax,-0x6a0(%rbp)
    cf42:	48 8d 85 68 d8 ff ff 	lea    -0x2798(%rbp),%rax
    cf49:	48 89 85 68 f9 ff ff 	mov    %rax,-0x698(%rbp)
    cf50:	48 8d 85 40 df ff ff 	lea    -0x20c0(%rbp),%rax
    cf57:	48 83 c0 04          	add    $0x4,%rax
    cf5b:	48 89 85 70 f9 ff ff 	mov    %rax,-0x690(%rbp)
    cf62:	48 8d 85 40 df ff ff 	lea    -0x20c0(%rbp),%rax
    cf69:	48 83 c0 04          	add    $0x4,%rax
    cf6d:	48 89 85 78 f9 ff ff 	mov    %rax,-0x688(%rbp)
    cf74:	48 8d 85 25 d8 ff ff 	lea    -0x27db(%rbp),%rax
    cf7b:	48 89 85 80 f9 ff ff 	mov    %rax,-0x680(%rbp)
    cf82:	48 c7 85 88 f9 ff ff 	movq   $0x0,-0x678(%rbp)
    cf89:	00 00 00 00 
    cf8d:	48 c7 85 90 f9 ff ff 	movq   $0x0,-0x670(%rbp)
    cf94:	00 00 00 00 
    cf98:	48 8d 85 25 d8 ff ff 	lea    -0x27db(%rbp),%rax
    cf9f:	48 89 85 98 f9 ff ff 	mov    %rax,-0x668(%rbp)
    cfa6:	48 c7 85 a0 f9 ff ff 	movq   $0x0,-0x660(%rbp)
    cfad:	00 00 00 00 
    cfb1:	48 8d 85 25 d8 ff ff 	lea    -0x27db(%rbp),%rax
    cfb8:	48 89 85 a8 f9 ff ff 	mov    %rax,-0x658(%rbp)
    cfbf:	48 c7 85 b0 f9 ff ff 	movq   $0x0,-0x650(%rbp)
    cfc6:	00 00 00 00 
    cfca:	48 8d 85 68 d8 ff ff 	lea    -0x2798(%rbp),%rax
    cfd1:	48 89 85 b8 f9 ff ff 	mov    %rax,-0x648(%rbp)
    cfd8:	48 8d 85 25 d8 ff ff 	lea    -0x27db(%rbp),%rax
    cfdf:	48 89 85 c0 f9 ff ff 	mov    %rax,-0x640(%rbp)
    cfe6:	48 8d 85 68 d8 ff ff 	lea    -0x2798(%rbp),%rax
    cfed:	48 89 85 c8 f9 ff ff 	mov    %rax,-0x638(%rbp)
    cff4:	48 8d 85 68 d8 ff ff 	lea    -0x2798(%rbp),%rax
    cffb:	48 89 85 d0 f9 ff ff 	mov    %rax,-0x630(%rbp)
    d002:	48 c7 85 d8 f9 ff ff 	movq   $0x0,-0x628(%rbp)
    d009:	00 00 00 00 
    d00d:	48 8d 85 68 d8 ff ff 	lea    -0x2798(%rbp),%rax
    d014:	48 89 85 e0 f9 ff ff 	mov    %rax,-0x620(%rbp)
    d01b:	48 c7 85 e8 f9 ff ff 	movq   $0x0,-0x618(%rbp)
    d022:	00 00 00 00 
    d026:	48 8d 85 40 df ff ff 	lea    -0x20c0(%rbp),%rax
    d02d:	48 83 c0 02          	add    $0x2,%rax
    d031:	48 89 85 f0 f9 ff ff 	mov    %rax,-0x610(%rbp)
    d038:	48 8d 85 25 d8 ff ff 	lea    -0x27db(%rbp),%rax
    d03f:	48 89 85 f8 f9 ff ff 	mov    %rax,-0x608(%rbp)
    d046:	48 8d 85 40 df ff ff 	lea    -0x20c0(%rbp),%rax
    d04d:	48 83 c0 04          	add    $0x4,%rax
    d051:	48 89 85 00 fa ff ff 	mov    %rax,-0x600(%rbp)
    d058:	48 8d 85 68 d8 ff ff 	lea    -0x2798(%rbp),%rax
    d05f:	48 89 85 08 fa ff ff 	mov    %rax,-0x5f8(%rbp)
    d066:	48 8d 85 40 df ff ff 	lea    -0x20c0(%rbp),%rax
    d06d:	48 83 c0 04          	add    $0x4,%rax
    d071:	48 89 85 10 fa ff ff 	mov    %rax,-0x5f0(%rbp)
    d078:	48 c7 85 18 fa ff ff 	movq   $0x0,-0x5e8(%rbp)
    d07f:	00 00 00 00 
    d083:	48 8d 85 68 d8 ff ff 	lea    -0x2798(%rbp),%rax
    d08a:	48 89 85 20 fa ff ff 	mov    %rax,-0x5e0(%rbp)
    d091:	48 c7 85 28 fa ff ff 	movq   $0x0,-0x5d8(%rbp)
    d098:	00 00 00 00 
    d09c:	48 c7 85 30 fa ff ff 	movq   $0x0,-0x5d0(%rbp)
    d0a3:	00 00 00 00 
    d0a7:	48 8d 85 68 d8 ff ff 	lea    -0x2798(%rbp),%rax
    d0ae:	48 89 85 38 fa ff ff 	mov    %rax,-0x5c8(%rbp)
    d0b5:	48 c7 85 40 fa ff ff 	movq   $0x0,-0x5c0(%rbp)
    d0bc:	00 00 00 00 
    d0c0:	48 8d 85 68 d8 ff ff 	lea    -0x2798(%rbp),%rax
    d0c7:	48 89 85 48 fa ff ff 	mov    %rax,-0x5b8(%rbp)
    d0ce:	48 8d 85 40 df ff ff 	lea    -0x20c0(%rbp),%rax
    d0d5:	48 83 c0 17          	add    $0x17,%rax
    d0d9:	48 89 85 50 fa ff ff 	mov    %rax,-0x5b0(%rbp)
    d0e0:	48 8d 85 40 df ff ff 	lea    -0x20c0(%rbp),%rax
    d0e7:	48 83 c0 04          	add    $0x4,%rax
    d0eb:	48 89 85 58 fa ff ff 	mov    %rax,-0x5a8(%rbp)
    d0f2:	48 8d 85 40 df ff ff 	lea    -0x20c0(%rbp),%rax
    d0f9:	48 83 c0 10          	add    $0x10,%rax
    d0fd:	48 89 85 60 fa ff ff 	mov    %rax,-0x5a0(%rbp)
    d104:	48 8d 85 68 d8 ff ff 	lea    -0x2798(%rbp),%rax
    d10b:	48 89 85 68 fa ff ff 	mov    %rax,-0x598(%rbp)
    d112:	48 c7 85 70 fa ff ff 	movq   $0x0,-0x590(%rbp)
    d119:	00 00 00 00 
    d11d:	48 8d 85 40 df ff ff 	lea    -0x20c0(%rbp),%rax
    d124:	48 83 c0 04          	add    $0x4,%rax
    d128:	48 89 85 78 fa ff ff 	mov    %rax,-0x588(%rbp)
    d12f:	48 8d 85 25 d8 ff ff 	lea    -0x27db(%rbp),%rax
    d136:	48 89 85 80 fa ff ff 	mov    %rax,-0x580(%rbp)
    d13d:	48 8d 85 68 d8 ff ff 	lea    -0x2798(%rbp),%rax
    d144:	48 89 85 88 fa ff ff 	mov    %rax,-0x578(%rbp)
    d14b:	48 c7 85 90 fa ff ff 	movq   $0x0,-0x570(%rbp)
    d152:	00 00 00 00 
    d156:	48 8d 85 25 d8 ff ff 	lea    -0x27db(%rbp),%rax
    d15d:	48 89 85 98 fa ff ff 	mov    %rax,-0x568(%rbp)
    d164:	48 8d 85 68 d8 ff ff 	lea    -0x2798(%rbp),%rax
    d16b:	48 89 85 a0 fa ff ff 	mov    %rax,-0x560(%rbp)
    d172:	48 8d 85 40 df ff ff 	lea    -0x20c0(%rbp),%rax
    d179:	48 83 c0 04          	add    $0x4,%rax
    d17d:	48 89 85 a8 fa ff ff 	mov    %rax,-0x558(%rbp)
    d184:	48 c7 85 b0 fa ff ff 	movq   $0x0,-0x550(%rbp)
    d18b:	00 00 00 00 
    d18f:	48 8d 85 40 df ff ff 	lea    -0x20c0(%rbp),%rax
    d196:	48 83 c0 02          	add    $0x2,%rax
    d19a:	48 89 85 b8 fa ff ff 	mov    %rax,-0x548(%rbp)
    d1a1:	48 8d 85 40 df ff ff 	lea    -0x20c0(%rbp),%rax
    d1a8:	48 83 c0 11          	add    $0x11,%rax
    d1ac:	48 89 85 c0 fa ff ff 	mov    %rax,-0x540(%rbp)
    d1b3:	48 8d 85 40 df ff ff 	lea    -0x20c0(%rbp),%rax
    d1ba:	48 83 c0 10          	add    $0x10,%rax
    d1be:	48 89 85 c8 fa ff ff 	mov    %rax,-0x538(%rbp)
    d1c5:	48 8d 85 40 df ff ff 	lea    -0x20c0(%rbp),%rax
    d1cc:	48 83 c0 10          	add    $0x10,%rax
    d1d0:	48 89 85 d0 fa ff ff 	mov    %rax,-0x530(%rbp)
    d1d7:	48 8d 85 40 df ff ff 	lea    -0x20c0(%rbp),%rax
    d1de:	48 83 c0 11          	add    $0x11,%rax
    d1e2:	48 89 85 d8 fa ff ff 	mov    %rax,-0x528(%rbp)
    d1e9:	48 8d 85 40 df ff ff 	lea    -0x20c0(%rbp),%rax
    d1f0:	48 83 c0 02          	add    $0x2,%rax
    d1f4:	48 89 85 e0 fa ff ff 	mov    %rax,-0x520(%rbp)
    d1fb:	48 8d 85 40 df ff ff 	lea    -0x20c0(%rbp),%rax
    d202:	48 83 c0 04          	add    $0x4,%rax
    d206:	48 89 85 e8 fa ff ff 	mov    %rax,-0x518(%rbp)
    d20d:	48 c7 85 f0 fa ff ff 	movq   $0x0,-0x510(%rbp)
    d214:	00 00 00 00 
    d218:	48 c7 85 f8 fa ff ff 	movq   $0x0,-0x508(%rbp)
    d21f:	00 00 00 00 
    d223:	48 8d 85 40 df ff ff 	lea    -0x20c0(%rbp),%rax
    d22a:	48 83 c0 04          	add    $0x4,%rax
    d22e:	48 89 85 00 fb ff ff 	mov    %rax,-0x500(%rbp)
    d235:	48 c7 85 08 fb ff ff 	movq   $0x0,-0x4f8(%rbp)
    d23c:	00 00 00 00 
    d240:	48 8d 85 68 d8 ff ff 	lea    -0x2798(%rbp),%rax
    d247:	48 89 85 10 fb ff ff 	mov    %rax,-0x4f0(%rbp)
    d24e:	48 8d 85 40 df ff ff 	lea    -0x20c0(%rbp),%rax
    d255:	48 83 c0 04          	add    $0x4,%rax
    d259:	48 89 85 18 fb ff ff 	mov    %rax,-0x4e8(%rbp)
    d260:	48 8d 85 25 d8 ff ff 	lea    -0x27db(%rbp),%rax
    d267:	48 89 85 20 fb ff ff 	mov    %rax,-0x4e0(%rbp)
    d26e:	48 8d 85 40 df ff ff 	lea    -0x20c0(%rbp),%rax
    d275:	48 83 c0 04          	add    $0x4,%rax
    d279:	48 89 85 28 fb ff ff 	mov    %rax,-0x4d8(%rbp)
    d280:	48 8d 85 25 d8 ff ff 	lea    -0x27db(%rbp),%rax
    d287:	48 89 85 30 fb ff ff 	mov    %rax,-0x4d0(%rbp)
    d28e:	48 8d 85 40 df ff ff 	lea    -0x20c0(%rbp),%rax
    d295:	48 83 c0 17          	add    $0x17,%rax
    d299:	48 89 85 38 fb ff ff 	mov    %rax,-0x4c8(%rbp)
    d2a0:	48 8d 85 40 df ff ff 	lea    -0x20c0(%rbp),%rax
    d2a7:	48 83 c0 02          	add    $0x2,%rax
    d2ab:	48 89 85 40 fb ff ff 	mov    %rax,-0x4c0(%rbp)
    d2b2:	48 8d 85 40 df ff ff 	lea    -0x20c0(%rbp),%rax
    d2b9:	48 83 c0 04          	add    $0x4,%rax
    d2bd:	48 89 85 48 fb ff ff 	mov    %rax,-0x4b8(%rbp)
    d2c4:	48 8d 85 40 df ff ff 	lea    -0x20c0(%rbp),%rax
    d2cb:	48 83 c0 11          	add    $0x11,%rax
    d2cf:	48 89 85 50 fb ff ff 	mov    %rax,-0x4b0(%rbp)
    d2d6:	48 8d 85 40 df ff ff 	lea    -0x20c0(%rbp),%rax
    d2dd:	48 83 c0 04          	add    $0x4,%rax
    d2e1:	48 89 85 58 fb ff ff 	mov    %rax,-0x4a8(%rbp)
    d2e8:	48 8d 85 68 d8 ff ff 	lea    -0x2798(%rbp),%rax
    d2ef:	48 89 85 60 fb ff ff 	mov    %rax,-0x4a0(%rbp)
    d2f6:	48 c7 85 68 fb ff ff 	movq   $0x0,-0x498(%rbp)
    d2fd:	00 00 00 00 
    d301:	48 c7 85 70 fb ff ff 	movq   $0x0,-0x490(%rbp)
    d308:	00 00 00 00 
    d30c:	48 8d 85 68 d8 ff ff 	lea    -0x2798(%rbp),%rax
    d313:	48 89 85 78 fb ff ff 	mov    %rax,-0x488(%rbp)
    d31a:	48 8d 85 68 d8 ff ff 	lea    -0x2798(%rbp),%rax
    d321:	48 89 85 80 fb ff ff 	mov    %rax,-0x480(%rbp)
    d328:	48 c7 85 88 fb ff ff 	movq   $0x0,-0x478(%rbp)
    d32f:	00 00 00 00 
    d333:	48 8d 85 40 df ff ff 	lea    -0x20c0(%rbp),%rax
    d33a:	48 83 c0 04          	add    $0x4,%rax
    d33e:	48 89 85 90 fb ff ff 	mov    %rax,-0x470(%rbp)
    d345:	48 c7 85 98 fb ff ff 	movq   $0x0,-0x468(%rbp)
    d34c:	00 00 00 00 
    d350:	48 8d 85 40 df ff ff 	lea    -0x20c0(%rbp),%rax
    d357:	48 83 c0 11          	add    $0x11,%rax
    d35b:	48 89 85 a0 fb ff ff 	mov    %rax,-0x460(%rbp)
    d362:	48 8d 85 40 df ff ff 	lea    -0x20c0(%rbp),%rax
    d369:	48 83 c0 04          	add    $0x4,%rax
    d36d:	48 89 85 a8 fb ff ff 	mov    %rax,-0x458(%rbp)
    d374:	48 8d 85 25 d8 ff ff 	lea    -0x27db(%rbp),%rax
    d37b:	48 89 85 b0 fb ff ff 	mov    %rax,-0x450(%rbp)
    d382:	48 8d 85 68 d8 ff ff 	lea    -0x2798(%rbp),%rax
    d389:	48 89 85 b8 fb ff ff 	mov    %rax,-0x448(%rbp)
    d390:	48 c7 85 c0 fb ff ff 	movq   $0x0,-0x440(%rbp)
    d397:	00 00 00 00 
    d39b:	48 8d 85 40 df ff ff 	lea    -0x20c0(%rbp),%rax
    d3a2:	48 83 c0 10          	add    $0x10,%rax
    d3a6:	48 89 85 c8 fb ff ff 	mov    %rax,-0x438(%rbp)
    d3ad:	48 8d 85 40 df ff ff 	lea    -0x20c0(%rbp),%rax
    d3b4:	48 83 c0 04          	add    $0x4,%rax
    d3b8:	48 89 85 d0 fb ff ff 	mov    %rax,-0x430(%rbp)
    d3bf:	48 8d 85 68 d8 ff ff 	lea    -0x2798(%rbp),%rax
    d3c6:	48 89 85 d8 fb ff ff 	mov    %rax,-0x428(%rbp)
    d3cd:	48 8d 85 40 df ff ff 	lea    -0x20c0(%rbp),%rax
    d3d4:	48 83 c0 04          	add    $0x4,%rax
    d3d8:	48 89 85 e0 fb ff ff 	mov    %rax,-0x420(%rbp)
    d3df:	48 8d 85 25 d8 ff ff 	lea    -0x27db(%rbp),%rax
    d3e6:	48 89 85 e8 fb ff ff 	mov    %rax,-0x418(%rbp)
    d3ed:	48 c7 85 f0 fb ff ff 	movq   $0x0,-0x410(%rbp)
    d3f4:	00 00 00 00 
    d3f8:	48 8d 85 25 d8 ff ff 	lea    -0x27db(%rbp),%rax
    d3ff:	48 89 85 f8 fb ff ff 	mov    %rax,-0x408(%rbp)
    d406:	48 8d 85 40 df ff ff 	lea    -0x20c0(%rbp),%rax
    d40d:	48 83 c0 04          	add    $0x4,%rax
    d411:	48 89 85 00 fc ff ff 	mov    %rax,-0x400(%rbp)
    d418:	48 8d 85 40 df ff ff 	lea    -0x20c0(%rbp),%rax
    d41f:	48 83 c0 17          	add    $0x17,%rax
    d423:	48 89 85 08 fc ff ff 	mov    %rax,-0x3f8(%rbp)
    d42a:	48 8d 85 40 df ff ff 	lea    -0x20c0(%rbp),%rax
    d431:	48 83 c0 17          	add    $0x17,%rax
    d435:	48 89 85 10 fc ff ff 	mov    %rax,-0x3f0(%rbp)
    d43c:	48 8d 85 40 df ff ff 	lea    -0x20c0(%rbp),%rax
    d443:	48 83 c0 04          	add    $0x4,%rax
    d447:	48 89 85 18 fc ff ff 	mov    %rax,-0x3e8(%rbp)
    d44e:	48 8d 85 68 d8 ff ff 	lea    -0x2798(%rbp),%rax
    d455:	48 89 85 20 fc ff ff 	mov    %rax,-0x3e0(%rbp)
    d45c:	48 c7 85 28 fc ff ff 	movq   $0x0,-0x3d8(%rbp)
    d463:	00 00 00 00 
    d467:	48 8d 85 40 df ff ff 	lea    -0x20c0(%rbp),%rax
    d46e:	48 83 c0 04          	add    $0x4,%rax
    d472:	48 89 85 30 fc ff ff 	mov    %rax,-0x3d0(%rbp)
    d479:	48 8d 85 40 df ff ff 	lea    -0x20c0(%rbp),%rax
    d480:	48 83 c0 04          	add    $0x4,%rax
    d484:	48 89 85 38 fc ff ff 	mov    %rax,-0x3c8(%rbp)
    d48b:	48 8d 85 25 d8 ff ff 	lea    -0x27db(%rbp),%rax
    d492:	48 89 85 40 fc ff ff 	mov    %rax,-0x3c0(%rbp)
    d499:	48 c7 85 48 fc ff ff 	movq   $0x0,-0x3b8(%rbp)
    d4a0:	00 00 00 00 
    d4a4:	48 8d 85 40 df ff ff 	lea    -0x20c0(%rbp),%rax
    d4ab:	48 83 c0 04          	add    $0x4,%rax
    d4af:	48 89 85 50 fc ff ff 	mov    %rax,-0x3b0(%rbp)
    d4b6:	48 c7 85 58 fc ff ff 	movq   $0x0,-0x3a8(%rbp)
    d4bd:	00 00 00 00 
    d4c1:	48 8d 85 40 df ff ff 	lea    -0x20c0(%rbp),%rax
    d4c8:	48 83 c0 04          	add    $0x4,%rax
    d4cc:	48 89 85 60 fc ff ff 	mov    %rax,-0x3a0(%rbp)
    d4d3:	48 8d 85 25 d8 ff ff 	lea    -0x27db(%rbp),%rax
    d4da:	48 89 85 68 fc ff ff 	mov    %rax,-0x398(%rbp)
    d4e1:	48 8d 85 25 d8 ff ff 	lea    -0x27db(%rbp),%rax
    d4e8:	48 89 85 70 fc ff ff 	mov    %rax,-0x390(%rbp)
    d4ef:	48 8d 85 40 df ff ff 	lea    -0x20c0(%rbp),%rax
    d4f6:	48 83 c0 04          	add    $0x4,%rax
    d4fa:	48 89 85 78 fc ff ff 	mov    %rax,-0x388(%rbp)
    d501:	48 8d 85 68 d8 ff ff 	lea    -0x2798(%rbp),%rax
    d508:	48 89 85 80 fc ff ff 	mov    %rax,-0x380(%rbp)
    d50f:	48 c7 85 88 fc ff ff 	movq   $0x0,-0x378(%rbp)
    d516:	00 00 00 00 
    d51a:	48 8d 85 40 df ff ff 	lea    -0x20c0(%rbp),%rax
    d521:	48 83 c0 04          	add    $0x4,%rax
    d525:	48 89 85 90 fc ff ff 	mov    %rax,-0x370(%rbp)
    d52c:	48 c7 85 98 fc ff ff 	movq   $0x0,-0x368(%rbp)
    d533:	00 00 00 00 
    d537:	48 8d 85 68 d8 ff ff 	lea    -0x2798(%rbp),%rax
    d53e:	48 89 85 a0 fc ff ff 	mov    %rax,-0x360(%rbp)
    d545:	48 8d 85 40 df ff ff 	lea    -0x20c0(%rbp),%rax
    d54c:	48 83 c0 04          	add    $0x4,%rax
    d550:	48 89 85 a8 fc ff ff 	mov    %rax,-0x358(%rbp)
    d557:	48 8d 85 40 df ff ff 	lea    -0x20c0(%rbp),%rax
    d55e:	48 83 c0 10          	add    $0x10,%rax
    d562:	48 89 85 b0 fc ff ff 	mov    %rax,-0x350(%rbp)
    d569:	48 8d 85 25 d8 ff ff 	lea    -0x27db(%rbp),%rax
    d570:	48 89 85 b8 fc ff ff 	mov    %rax,-0x348(%rbp)
    d577:	48 8d 85 68 d8 ff ff 	lea    -0x2798(%rbp),%rax
    d57e:	48 89 85 c0 fc ff ff 	mov    %rax,-0x340(%rbp)
    d585:	48 8d 85 40 df ff ff 	lea    -0x20c0(%rbp),%rax
    d58c:	48 83 c0 04          	add    $0x4,%rax
    d590:	48 89 85 c8 fc ff ff 	mov    %rax,-0x338(%rbp)
    d597:	48 c7 85 d0 fc ff ff 	movq   $0x0,-0x330(%rbp)
    d59e:	00 00 00 00 
    d5a2:	48 8d 85 25 d8 ff ff 	lea    -0x27db(%rbp),%rax
    d5a9:	48 89 85 d8 fc ff ff 	mov    %rax,-0x328(%rbp)
    d5b0:	48 c7 85 e0 fc ff ff 	movq   $0x0,-0x320(%rbp)
    d5b7:	00 00 00 00 
    d5bb:	48 8d 85 40 df ff ff 	lea    -0x20c0(%rbp),%rax
    d5c2:	48 83 c0 10          	add    $0x10,%rax
    d5c6:	48 89 85 e8 fc ff ff 	mov    %rax,-0x318(%rbp)
    d5cd:	48 8d 85 40 df ff ff 	lea    -0x20c0(%rbp),%rax
    d5d4:	48 83 c0 04          	add    $0x4,%rax
    d5d8:	48 89 85 f0 fc ff ff 	mov    %rax,-0x310(%rbp)
    d5df:	48 c7 85 f8 fc ff ff 	movq   $0x0,-0x308(%rbp)
    d5e6:	00 00 00 00 
    d5ea:	48 8d 85 40 df ff ff 	lea    -0x20c0(%rbp),%rax
    d5f1:	48 83 c0 04          	add    $0x4,%rax
    d5f5:	48 89 85 00 fd ff ff 	mov    %rax,-0x300(%rbp)
    d5fc:	48 8d 85 68 d8 ff ff 	lea    -0x2798(%rbp),%rax
    d603:	48 89 85 08 fd ff ff 	mov    %rax,-0x2f8(%rbp)
    d60a:	48 8d 85 40 df ff ff 	lea    -0x20c0(%rbp),%rax
    d611:	48 83 c0 04          	add    $0x4,%rax
    d615:	48 89 85 10 fd ff ff 	mov    %rax,-0x2f0(%rbp)
    d61c:	48 8d 85 40 df ff ff 	lea    -0x20c0(%rbp),%rax
    d623:	48 83 c0 04          	add    $0x4,%rax
    d627:	48 89 85 18 fd ff ff 	mov    %rax,-0x2e8(%rbp)
    d62e:	48 8d 85 68 d8 ff ff 	lea    -0x2798(%rbp),%rax
    d635:	48 89 85 20 fd ff ff 	mov    %rax,-0x2e0(%rbp)
    d63c:	48 8d 85 68 d8 ff ff 	lea    -0x2798(%rbp),%rax
    d643:	48 89 85 28 fd ff ff 	mov    %rax,-0x2d8(%rbp)
    d64a:	48 8d 85 68 d8 ff ff 	lea    -0x2798(%rbp),%rax
    d651:	48 89 85 30 fd ff ff 	mov    %rax,-0x2d0(%rbp)
    d658:	48 8d 85 68 d8 ff ff 	lea    -0x2798(%rbp),%rax
    d65f:	48 89 85 38 fd ff ff 	mov    %rax,-0x2c8(%rbp)
    d666:	48 8d 85 68 d8 ff ff 	lea    -0x2798(%rbp),%rax
    d66d:	48 89 85 40 fd ff ff 	mov    %rax,-0x2c0(%rbp)
    d674:	48 8d 85 25 d8 ff ff 	lea    -0x27db(%rbp),%rax
    d67b:	48 89 85 48 fd ff ff 	mov    %rax,-0x2b8(%rbp)
    d682:	48 c7 85 50 fd ff ff 	movq   $0x0,-0x2b0(%rbp)
    d689:	00 00 00 00 
    d68d:	48 8d 85 40 df ff ff 	lea    -0x20c0(%rbp),%rax
    d694:	48 83 c0 04          	add    $0x4,%rax
    d698:	48 89 85 58 fd ff ff 	mov    %rax,-0x2a8(%rbp)
    d69f:	48 8d 85 68 d8 ff ff 	lea    -0x2798(%rbp),%rax
    d6a6:	48 89 85 60 fd ff ff 	mov    %rax,-0x2a0(%rbp)
    d6ad:	48 c7 85 68 fd ff ff 	movq   $0x0,-0x298(%rbp)
    d6b4:	00 00 00 00 
    d6b8:	48 8d 85 40 df ff ff 	lea    -0x20c0(%rbp),%rax
    d6bf:	48 83 c0 04          	add    $0x4,%rax
    d6c3:	48 89 85 70 fd ff ff 	mov    %rax,-0x290(%rbp)
    d6ca:	48 8d 85 40 df ff ff 	lea    -0x20c0(%rbp),%rax
    d6d1:	48 83 c0 04          	add    $0x4,%rax
    d6d5:	48 89 85 78 fd ff ff 	mov    %rax,-0x288(%rbp)
    d6dc:	48 c7 85 80 fd ff ff 	movq   $0x0,-0x280(%rbp)
    d6e3:	00 00 00 00 
    d6e7:	48 8d 85 68 d8 ff ff 	lea    -0x2798(%rbp),%rax
    d6ee:	48 89 85 88 fd ff ff 	mov    %rax,-0x278(%rbp)
    d6f5:	48 c7 85 90 fd ff ff 	movq   $0x0,-0x270(%rbp)
    d6fc:	00 00 00 00 
    d700:	48 8d 85 25 d8 ff ff 	lea    -0x27db(%rbp),%rax
    d707:	48 89 85 98 fd ff ff 	mov    %rax,-0x268(%rbp)
    d70e:	48 8d 85 40 df ff ff 	lea    -0x20c0(%rbp),%rax
    d715:	48 83 c0 04          	add    $0x4,%rax
    d719:	48 89 85 a0 fd ff ff 	mov    %rax,-0x260(%rbp)
    d720:	48 8d 85 40 df ff ff 	lea    -0x20c0(%rbp),%rax
    d727:	48 83 c0 04          	add    $0x4,%rax
    d72b:	48 89 85 a8 fd ff ff 	mov    %rax,-0x258(%rbp)
    d732:	48 c7 85 b0 fd ff ff 	movq   $0x0,-0x250(%rbp)
    d739:	00 00 00 00 
    d73d:	48 c7 85 b8 fd ff ff 	movq   $0x0,-0x248(%rbp)
    d744:	00 00 00 00 
    d748:	48 8d 85 40 df ff ff 	lea    -0x20c0(%rbp),%rax
    d74f:	48 83 c0 04          	add    $0x4,%rax
    d753:	48 89 85 c0 fd ff ff 	mov    %rax,-0x240(%rbp)
    d75a:	48 8d 85 68 d8 ff ff 	lea    -0x2798(%rbp),%rax
    d761:	48 89 85 c8 fd ff ff 	mov    %rax,-0x238(%rbp)
    d768:	48 8d 85 40 df ff ff 	lea    -0x20c0(%rbp),%rax
    d76f:	48 83 c0 04          	add    $0x4,%rax
    d773:	48 89 85 d0 fd ff ff 	mov    %rax,-0x230(%rbp)
    d77a:	48 8d 85 68 d8 ff ff 	lea    -0x2798(%rbp),%rax
    d781:	48 89 85 d8 fd ff ff 	mov    %rax,-0x228(%rbp)
    d788:	48 8d 85 40 df ff ff 	lea    -0x20c0(%rbp),%rax
    d78f:	48 83 c0 04          	add    $0x4,%rax
    d793:	48 89 85 e0 fd ff ff 	mov    %rax,-0x220(%rbp)
    d79a:	48 8d 85 25 d8 ff ff 	lea    -0x27db(%rbp),%rax
    d7a1:	48 89 85 e8 fd ff ff 	mov    %rax,-0x218(%rbp)
    d7a8:	48 8d 85 40 df ff ff 	lea    -0x20c0(%rbp),%rax
    d7af:	48 83 c0 02          	add    $0x2,%rax
    d7b3:	48 89 85 f0 fd ff ff 	mov    %rax,-0x210(%rbp)
    d7ba:	48 c7 85 f8 fd ff ff 	movq   $0x0,-0x208(%rbp)
    d7c1:	00 00 00 00 
    d7c5:	48 8d 85 68 d8 ff ff 	lea    -0x2798(%rbp),%rax
    d7cc:	48 89 85 00 fe ff ff 	mov    %rax,-0x200(%rbp)
    d7d3:	48 8d 85 25 d8 ff ff 	lea    -0x27db(%rbp),%rax
    d7da:	48 89 85 08 fe ff ff 	mov    %rax,-0x1f8(%rbp)
    d7e1:	48 8d 85 25 d8 ff ff 	lea    -0x27db(%rbp),%rax
    d7e8:	48 89 85 10 fe ff ff 	mov    %rax,-0x1f0(%rbp)
    d7ef:	48 8d 85 40 df ff ff 	lea    -0x20c0(%rbp),%rax
    d7f6:	48 83 c0 04          	add    $0x4,%rax
    d7fa:	48 89 85 18 fe ff ff 	mov    %rax,-0x1e8(%rbp)
    d801:	48 8d 85 40 df ff ff 	lea    -0x20c0(%rbp),%rax
    d808:	48 83 c0 04          	add    $0x4,%rax
    d80c:	48 89 85 20 fe ff ff 	mov    %rax,-0x1e0(%rbp)
    d813:	48 8d 85 40 df ff ff 	lea    -0x20c0(%rbp),%rax
    d81a:	48 83 c0 10          	add    $0x10,%rax
    d81e:	48 89 85 28 fe ff ff 	mov    %rax,-0x1d8(%rbp)
    d825:	48 c7 85 30 fe ff ff 	movq   $0x0,-0x1d0(%rbp)
    d82c:	00 00 00 00 
    d830:	48 c7 85 38 fe ff ff 	movq   $0x0,-0x1c8(%rbp)
    d837:	00 00 00 00 
    d83b:	48 8d 85 68 d8 ff ff 	lea    -0x2798(%rbp),%rax
    d842:	48 89 85 40 fe ff ff 	mov    %rax,-0x1c0(%rbp)
    d849:	48 8d 85 40 df ff ff 	lea    -0x20c0(%rbp),%rax
    d850:	48 83 c0 02          	add    $0x2,%rax
    d854:	48 89 85 48 fe ff ff 	mov    %rax,-0x1b8(%rbp)
    d85b:	48 c7 85 50 fe ff ff 	movq   $0x0,-0x1b0(%rbp)
    d862:	00 00 00 00 
    d866:	48 c7 85 58 fe ff ff 	movq   $0x0,-0x1a8(%rbp)
    d86d:	00 00 00 00 
    d871:	48 8d 85 40 df ff ff 	lea    -0x20c0(%rbp),%rax
    d878:	48 83 c0 02          	add    $0x2,%rax
    d87c:	48 89 85 60 fe ff ff 	mov    %rax,-0x1a0(%rbp)
    d883:	48 8d 85 68 d8 ff ff 	lea    -0x2798(%rbp),%rax
    d88a:	48 89 85 68 fe ff ff 	mov    %rax,-0x198(%rbp)
    d891:	48 c7 85 70 fe ff ff 	movq   $0x0,-0x190(%rbp)
    d898:	00 00 00 00 
    d89c:	48 8d 85 40 df ff ff 	lea    -0x20c0(%rbp),%rax
    d8a3:	48 83 c0 04          	add    $0x4,%rax
    d8a7:	48 89 85 78 fe ff ff 	mov    %rax,-0x188(%rbp)
    d8ae:	48 c7 85 80 fe ff ff 	movq   $0x0,-0x180(%rbp)
    d8b5:	00 00 00 00 
    d8b9:	48 8d 85 68 d8 ff ff 	lea    -0x2798(%rbp),%rax
    d8c0:	48 89 85 88 fe ff ff 	mov    %rax,-0x178(%rbp)
    d8c7:	48 8d 85 25 d8 ff ff 	lea    -0x27db(%rbp),%rax
    d8ce:	48 89 85 90 fe ff ff 	mov    %rax,-0x170(%rbp)
    d8d5:	48 c7 85 98 fe ff ff 	movq   $0x0,-0x168(%rbp)
    d8dc:	00 00 00 00 
    d8e0:	48 8d 85 25 d8 ff ff 	lea    -0x27db(%rbp),%rax
    d8e7:	48 89 85 a0 fe ff ff 	mov    %rax,-0x160(%rbp)
    d8ee:	48 8d 85 40 df ff ff 	lea    -0x20c0(%rbp),%rax
    d8f5:	48 83 c0 04          	add    $0x4,%rax
    d8f9:	48 89 85 a8 fe ff ff 	mov    %rax,-0x158(%rbp)
    d900:	48 8d 85 68 d8 ff ff 	lea    -0x2798(%rbp),%rax
    d907:	48 89 85 b0 fe ff ff 	mov    %rax,-0x150(%rbp)
    d90e:	48 8d 85 40 df ff ff 	lea    -0x20c0(%rbp),%rax
    d915:	48 83 c0 04          	add    $0x4,%rax
    d919:	48 89 85 b8 fe ff ff 	mov    %rax,-0x148(%rbp)
    d920:	48 c7 85 c0 fe ff ff 	movq   $0x0,-0x140(%rbp)
    d927:	00 00 00 00 
    d92b:	48 c7 85 c8 fe ff ff 	movq   $0x0,-0x138(%rbp)
    d932:	00 00 00 00 
    d936:	48 8d 85 40 df ff ff 	lea    -0x20c0(%rbp),%rax
    d93d:	48 83 c0 04          	add    $0x4,%rax
    d941:	48 89 85 d0 fe ff ff 	mov    %rax,-0x130(%rbp)
    d948:	48 8d 85 40 df ff ff 	lea    -0x20c0(%rbp),%rax
    d94f:	48 83 c0 17          	add    $0x17,%rax
    d953:	48 89 85 d8 fe ff ff 	mov    %rax,-0x128(%rbp)
    d95a:	48 8d 85 40 df ff ff 	lea    -0x20c0(%rbp),%rax
    d961:	48 83 c0 04          	add    $0x4,%rax
    d965:	48 89 85 e0 fe ff ff 	mov    %rax,-0x120(%rbp)
    d96c:	48 8d 85 68 d8 ff ff 	lea    -0x2798(%rbp),%rax
    d973:	48 89 85 e8 fe ff ff 	mov    %rax,-0x118(%rbp)
    d97a:	48 8d 85 68 d8 ff ff 	lea    -0x2798(%rbp),%rax
    d981:	48 89 85 f0 fe ff ff 	mov    %rax,-0x110(%rbp)
    d988:	48 8d 85 68 d8 ff ff 	lea    -0x2798(%rbp),%rax
    d98f:	48 89 85 f8 fe ff ff 	mov    %rax,-0x108(%rbp)
    d996:	48 8d 85 68 d8 ff ff 	lea    -0x2798(%rbp),%rax
    d99d:	48 89 85 00 ff ff ff 	mov    %rax,-0x100(%rbp)
    d9a4:	48 8d 85 40 df ff ff 	lea    -0x20c0(%rbp),%rax
    d9ab:	48 83 c0 04          	add    $0x4,%rax
    d9af:	48 89 85 08 ff ff ff 	mov    %rax,-0xf8(%rbp)
    d9b6:	48 8d 85 68 d8 ff ff 	lea    -0x2798(%rbp),%rax
    d9bd:	48 89 85 10 ff ff ff 	mov    %rax,-0xf0(%rbp)
    d9c4:	48 8d 85 40 df ff ff 	lea    -0x20c0(%rbp),%rax
    d9cb:	48 83 c0 04          	add    $0x4,%rax
    d9cf:	48 89 85 18 ff ff ff 	mov    %rax,-0xe8(%rbp)
    d9d6:	48 8d 85 40 df ff ff 	lea    -0x20c0(%rbp),%rax
    d9dd:	48 83 c0 17          	add    $0x17,%rax
    d9e1:	48 89 85 20 ff ff ff 	mov    %rax,-0xe0(%rbp)
    d9e8:	48 c7 85 28 ff ff ff 	movq   $0x0,-0xd8(%rbp)
    d9ef:	00 00 00 00 
    d9f3:	48 c7 85 30 ff ff ff 	movq   $0x0,-0xd0(%rbp)
    d9fa:	00 00 00 00 
    d9fe:	48 8d 85 40 df ff ff 	lea    -0x20c0(%rbp),%rax
    da05:	48 83 c0 04          	add    $0x4,%rax
    da09:	48 89 85 38 ff ff ff 	mov    %rax,-0xc8(%rbp)
    da10:	48 c7 85 40 ff ff ff 	movq   $0x0,-0xc0(%rbp)
    da17:	00 00 00 00 
    da1b:	48 8d 85 25 d8 ff ff 	lea    -0x27db(%rbp),%rax
    da22:	48 89 85 48 ff ff ff 	mov    %rax,-0xb8(%rbp)
    da29:	48 8d 85 25 d8 ff ff 	lea    -0x27db(%rbp),%rax
    da30:	48 89 85 50 ff ff ff 	mov    %rax,-0xb0(%rbp)
    da37:	48 8d 85 40 df ff ff 	lea    -0x20c0(%rbp),%rax
    da3e:	48 83 c0 04          	add    $0x4,%rax
    da42:	48 89 85 58 ff ff ff 	mov    %rax,-0xa8(%rbp)
    da49:	48 8d 85 40 df ff ff 	lea    -0x20c0(%rbp),%rax
    da50:	48 83 c0 04          	add    $0x4,%rax
    da54:	48 89 85 60 ff ff ff 	mov    %rax,-0xa0(%rbp)
    da5b:	48 8d 85 40 df ff ff 	lea    -0x20c0(%rbp),%rax
    da62:	48 83 c0 04          	add    $0x4,%rax
    da66:	48 89 85 68 ff ff ff 	mov    %rax,-0x98(%rbp)
    da6d:	48 8d 85 40 df ff ff 	lea    -0x20c0(%rbp),%rax
    da74:	48 83 c0 04          	add    $0x4,%rax
    da78:	48 89 85 70 ff ff ff 	mov    %rax,-0x90(%rbp)
    da7f:	48 8d 85 68 d8 ff ff 	lea    -0x2798(%rbp),%rax
    da86:	48 89 85 78 ff ff ff 	mov    %rax,-0x88(%rbp)
    da8d:	48 8d 85 40 df ff ff 	lea    -0x20c0(%rbp),%rax
    da94:	48 83 c0 04          	add    $0x4,%rax
    da98:	48 89 45 80          	mov    %rax,-0x80(%rbp)
    da9c:	48 8d 85 40 df ff ff 	lea    -0x20c0(%rbp),%rax
    daa3:	48 83 c0 04          	add    $0x4,%rax
    daa7:	48 89 45 88          	mov    %rax,-0x78(%rbp)
    daab:	48 8d 85 40 df ff ff 	lea    -0x20c0(%rbp),%rax
    dab2:	48 83 c0 17          	add    $0x17,%rax
    dab6:	48 89 45 90          	mov    %rax,-0x70(%rbp)
    daba:	48 8d 85 40 df ff ff 	lea    -0x20c0(%rbp),%rax
    dac1:	48 83 c0 17          	add    $0x17,%rax
    dac5:	48 89 45 98          	mov    %rax,-0x68(%rbp)
    dac9:	48 8d 85 40 df ff ff 	lea    -0x20c0(%rbp),%rax
    dad0:	48 83 c0 04          	add    $0x4,%rax
    dad4:	48 89 45 a0          	mov    %rax,-0x60(%rbp)
    dad8:	48 8d 85 68 d8 ff ff 	lea    -0x2798(%rbp),%rax
    dadf:	48 89 45 a8          	mov    %rax,-0x58(%rbp)
    dae3:	48 c7 45 b0 00 00 00 	movq   $0x0,-0x50(%rbp)
    daea:	00 
    daeb:	48 8d 85 40 df ff ff 	lea    -0x20c0(%rbp),%rax
    daf2:	48 83 c0 04          	add    $0x4,%rax
    daf6:	48 89 45 b8          	mov    %rax,-0x48(%rbp)
    dafa:	48 8d 05 ef b5 00 00 	lea    0xb5ef(%rip),%rax        # 190f0 <g_231>
    db01:	48 89 85 b0 de ff ff 	mov    %rax,-0x2150(%rbp)
    db08:	48 8d 05 39 b9 00 00 	lea    0xb939(%rip),%rax        # 19448 <g_840>
    db0f:	48 89 85 98 da ff ff 	mov    %rax,-0x2568(%rbp)
    db16:	48 8d 85 98 da ff ff 	lea    -0x2568(%rbp),%rax
    db1d:	48 89 85 a0 da ff ff 	mov    %rax,-0x2560(%rbp)
    db24:	48 8d 85 a0 da ff ff 	lea    -0x2560(%rbp),%rax
    db2b:	48 89 85 b8 de ff ff 	mov    %rax,-0x2148(%rbp)
    db32:	c7 85 d4 d8 ff ff 00 	movl   $0x0,-0x272c(%rbp)
    db39:	00 00 00 
    db3c:	eb 4d                	jmp    db8b <func_27+0x4e71>
    db3e:	c7 85 d8 d8 ff ff 00 	movl   $0x0,-0x2728(%rbp)
    db45:	00 00 00 
    db48:	eb 31                	jmp    db7b <func_27+0x4e61>
    db4a:	8b 85 d8 d8 ff ff    	mov    -0x2728(%rbp),%eax
    db50:	48 63 c8             	movslq %eax,%rcx
    db53:	8b 85 d4 d8 ff ff    	mov    -0x272c(%rbp),%eax
    db59:	48 63 d0             	movslq %eax,%rdx
    db5c:	48 89 d0             	mov    %rdx,%rax
    db5f:	48 c1 e0 02          	shl    $0x2,%rax
    db63:	48 01 d0             	add    %rdx,%rax
    db66:	48 01 c8             	add    %rcx,%rax
    db69:	c7 84 85 50 e0 ff ff 	movl   $0xfffffff7,-0x1fb0(%rbp,%rax,4)
    db70:	f7 ff ff ff 
    db74:	83 85 d8 d8 ff ff 01 	addl   $0x1,-0x2728(%rbp)
    db7b:	83 bd d8 d8 ff ff 04 	cmpl   $0x4,-0x2728(%rbp)
    db82:	7e c6                	jle    db4a <func_27+0x4e30>
    db84:	83 85 d4 d8 ff ff 01 	addl   $0x1,-0x272c(%rbp)
    db8b:	83 bd d4 d8 ff ff 02 	cmpl   $0x2,-0x272c(%rbp)
    db92:	7e aa                	jle    db3e <func_27+0x4e24>
    db94:	8b 85 50 d8 ff ff    	mov    -0x27b0(%rbp),%eax
    db9a:	83 e8 01             	sub    $0x1,%eax
    db9d:	89 85 50 d8 ff ff    	mov    %eax,-0x27b0(%rbp)
    dba3:	8b 85 50 d8 ff ff    	mov    -0x27b0(%rbp),%eax
    dba9:	83 f8 e9             	cmp    $0xffffffe9,%eax
    dbac:	0f 85 ae f0 ff ff    	jne    cc60 <func_27+0x3f46>
    dbb2:	c7 05 94 b8 00 00 e9 	movl   $0xffffffe9,0xb894(%rip)        # 19450 <g_874>
    dbb9:	ff ff ff 
    dbbc:	90                   	nop
    dbbd:	8b 05 8d b8 00 00    	mov    0xb88d(%rip),%eax        # 19450 <g_874>
    dbc3:	83 f8 26             	cmp    $0x26,%eax
    dbc6:	77 1c                	ja     dbe4 <func_27+0x4eca>
    dbc8:	48 8b 85 38 da ff ff 	mov    -0x25c8(%rbp),%rax
    dbcf:	48 8d 95 70 d8 ff ff 	lea    -0x2790(%rbp),%rdx
    dbd6:	48 89 10             	mov    %rdx,(%rax)
    dbd9:	8b 85 70 d8 ff ff    	mov    -0x2790(%rbp),%eax
    dbdf:	e9 2e 2f 00 00       	jmpq   10b12 <func_27+0x7df8>
    dbe4:	48 8b 85 00 d8 ff ff 	mov    -0x2800(%rbp),%rax
    dbeb:	0f b6 00             	movzbl (%rax),%eax
    dbee:	66 0f be d8          	movsbw %al,%bx
    dbf2:	0f b6 85 1c d8 ff ff 	movzbl -0x27e4(%rbp),%eax
    dbf9:	0f be d0             	movsbl %al,%edx
    dbfc:	48 8b 05 45 d3 00 00 	mov    0xd345(%rip),%rax        # 1af48 <g_833>
    dc03:	48 8b 00             	mov    (%rax),%rax
    dc06:	48 39 85 f8 db ff ff 	cmp    %rax,-0x2408(%rbp)
    dc0d:	0f 95 c0             	setne  %al
    dc10:	0f b6 c0             	movzbl %al,%eax
    dc13:	89 d6                	mov    %edx,%esi
    dc15:	89 c7                	mov    %eax,%edi
    dc17:	e8 15 76 ff ff       	callq  5231 <safe_mod_func_int8_t_s_s>
    dc1c:	0f be c0             	movsbl %al,%eax
    dc1f:	be 01 00 00 00       	mov    $0x1,%esi
    dc24:	89 c7                	mov    %eax,%edi
    dc26:	e8 38 79 ff ff       	callq  5563 <safe_rshift_func_int16_t_s_u>
    dc2b:	66 39 c3             	cmp    %ax,%bx
    dc2e:	48 8b 85 10 d8 ff ff 	mov    -0x27f0(%rbp),%rax
    dc35:	0f bf d0             	movswl %ax,%edx
    dc38:	0f b6 85 1c d8 ff ff 	movzbl -0x27e4(%rbp),%eax
    dc3f:	0f b6 c0             	movzbl %al,%eax
    dc42:	89 d6                	mov    %edx,%esi
    dc44:	89 c7                	mov    %eax,%edi
    dc46:	e8 88 77 ff ff       	callq  53d3 <safe_sub_func_int16_t_s_s>
    dc4b:	89 c3                	mov    %eax,%ebx
    dc4d:	83 ad c4 d8 ff ff 01 	subl   $0x1,-0x273c(%rbp)
    dc54:	8b 95 c4 d8 ff ff    	mov    -0x273c(%rbp),%edx
    dc5a:	48 8b 85 28 dc ff ff 	mov    -0x23d8(%rbp),%rax
    dc61:	48 8b 00             	mov    (%rax),%rax
    dc64:	8b 00                	mov    (%rax),%eax
    dc66:	89 c1                	mov    %eax,%ecx
    dc68:	0f b7 05 41 bf 00 00 	movzwl 0xbf41(%rip),%eax        # 19bb0 <g_1451>
    dc6f:	09 d0                	or     %edx,%eax
    dc71:	66 89 05 38 bf 00 00 	mov    %ax,0xbf38(%rip)        # 19bb0 <g_1451>
    dc78:	0f b7 05 31 bf 00 00 	movzwl 0xbf31(%rip),%eax        # 19bb0 <g_1451>
    dc7f:	09 c8                	or     %ecx,%eax
    dc81:	0f b7 c0             	movzwl %ax,%eax
    dc84:	be 03 00 00 00       	mov    $0x3,%esi
    dc89:	89 c7                	mov    %eax,%edi
    dc8b:	e8 ea 81 ff ff       	callq  5e7a <safe_rshift_func_uint16_t_u_u>
    dc90:	89 c1                	mov    %eax,%ecx
    dc92:	48 8b 85 10 df ff ff 	mov    -0x20f0(%rbp),%rax
    dc99:	48 39 85 18 de ff ff 	cmp    %rax,-0x21e8(%rbp)
    dca0:	0f 94 c0             	sete   %al
    dca3:	0f b6 c0             	movzbl %al,%eax
    dca6:	48 33 85 88 de ff ff 	xor    -0x2178(%rbp),%rax
    dcad:	48 ba 6a e1 ee b7 06 	movabs $0x6bd2cd06b7eee16a,%rdx
    dcb4:	cd d2 6b 
    dcb7:	48 39 d0             	cmp    %rdx,%rax
    dcba:	0f 95 c0             	setne  %al
    dcbd:	09 c8                	or     %ecx,%eax
    dcbf:	31 d8                	xor    %ebx,%eax
    dcc1:	0f be d8             	movsbl %al,%ebx
    dcc4:	48 8b 05 85 cf 00 00 	mov    0xcf85(%rip),%rax        # 1ac50 <g_278>
    dccb:	48 8b 00             	mov    (%rax),%rax
    dcce:	0f b7 00             	movzwl (%rax),%eax
    dcd1:	98                   	cwtl   
    dcd2:	89 c7                	mov    %eax,%edi
    dcd4:	e8 c4 76 ff ff       	callq  539d <safe_unary_minus_func_int16_t_s>
    dcd9:	0f be c0             	movsbl %al,%eax
    dcdc:	89 de                	mov    %ebx,%esi
    dcde:	89 c7                	mov    %eax,%edi
    dce0:	e8 0d 75 ff ff       	callq  51f2 <safe_sub_func_int8_t_s_s>
    dce5:	84 c0                	test   %al,%al
    dce7:	0f 84 04 01 00 00    	je     ddf1 <func_27+0x50d7>
    dced:	48 c7 85 e0 de ff ff 	movq   $0x1,-0x2120(%rbp)
    dcf4:	01 00 00 00 
    dcf8:	c7 85 cc d9 ff ff 00 	movl   $0x0,-0x2634(%rbp)
    dcff:	00 00 00 
    dd02:	48 8b 85 10 d8 ff ff 	mov    -0x27f0(%rbp),%rax
    dd09:	89 c3                	mov    %eax,%ebx
    dd0b:	0f b6 85 1c d8 ff ff 	movzbl -0x27e4(%rbp),%eax
    dd12:	0f b6 c0             	movzbl %al,%eax
    dd15:	48 8b 95 e0 de ff ff 	mov    -0x2120(%rbp),%rdx
    dd1c:	48 89 d6             	mov    %rdx,%rsi
    dd1f:	48 89 c7             	mov    %rax,%rdi
    dd22:	e8 59 83 ff ff       	callq  6080 <safe_mod_func_uint64_t_u_u>
    dd27:	89 de                	mov    %ebx,%esi
    dd29:	bf 00 00 00 00       	mov    $0x0,%edi
    dd2e:	e8 ca 81 ff ff       	callq  5efd <safe_mod_func_uint32_t_u_u>
    dd33:	89 c1                	mov    %eax,%ecx
    dd35:	48 8b 85 80 da ff ff 	mov    -0x2580(%rbp),%rax
    dd3c:	48 8b 10             	mov    (%rax),%rdx
    dd3f:	89 c9                	mov    %ecx,%ecx
    dd41:	48 8b 85 80 da ff ff 	mov    -0x2580(%rbp),%rax
    dd48:	48 21 ca             	and    %rcx,%rdx
    dd4b:	48 89 10             	mov    %rdx,(%rax)
    dd4e:	48 8b 00             	mov    (%rax),%rax
    dd51:	35 92 33 d5 ac       	xor    $0xacd53392,%eax
    dd56:	41 89 c4             	mov    %eax,%r12d
    dd59:	8b 85 8c df ff ff    	mov    -0x2074(%rbp),%eax
    dd5f:	0f b6 d0             	movzbl %al,%edx
    dd62:	0f b6 85 1c d8 ff ff 	movzbl -0x27e4(%rbp),%eax
    dd69:	0f b6 c0             	movzbl %al,%eax
    dd6c:	89 d6                	mov    %edx,%esi
    dd6e:	89 c7                	mov    %eax,%edi
    dd70:	e8 1e 7e ff ff       	callq  5b93 <safe_mul_func_uint8_t_u_u>
    dd75:	89 c1                	mov    %eax,%ecx
    dd77:	48 8b 85 f0 dd ff ff 	mov    -0x2210(%rbp),%rax
    dd7e:	0f b6 00             	movzbl (%rax),%eax
    dd81:	8d 50 01             	lea    0x1(%rax),%edx
    dd84:	48 8b 85 f0 dd ff ff 	mov    -0x2210(%rbp),%rax
    dd8b:	88 10                	mov    %dl,(%rax)
    dd8d:	48 8b 85 f0 dd ff ff 	mov    -0x2210(%rbp),%rax
    dd94:	0f b6 00             	movzbl (%rax),%eax
    dd97:	31 c8                	xor    %ecx,%eax
    dd99:	0f b6 c0             	movzbl %al,%eax
    dd9c:	be 00 00 00 00       	mov    $0x0,%esi
    dda1:	89 c7                	mov    %eax,%edi
    dda3:	e8 0b 76 ff ff       	callq  53b3 <safe_add_func_int16_t_s_s>
    dda8:	48 0f bf c0          	movswq %ax,%rax
    ddac:	48 39 85 e0 de ff ff 	cmp    %rax,-0x2120(%rbp)
    ddb3:	0f 92 c0             	setb   %al
    ddb6:	0f b6 d8             	movzbl %al,%ebx
    ddb9:	8b 05 61 b3 00 00    	mov    0xb361(%rip),%eax        # 19120 <g_371>
    ddbf:	0f b7 c0             	movzwl %ax,%eax
    ddc2:	be fb ff 00 00       	mov    $0xfffb,%esi
    ddc7:	89 c7                	mov    %eax,%edi
    ddc9:	e8 8e 7f ff ff       	callq  5d5c <safe_mod_func_uint16_t_u_u>
    ddce:	0f b7 c0             	movzwl %ax,%eax
    ddd1:	39 c3                	cmp    %eax,%ebx
    ddd3:	0f 9f c0             	setg   %al
    ddd6:	0f b6 c0             	movzbl %al,%eax
    ddd9:	44 89 e6             	mov    %r12d,%esi
    dddc:	89 c7                	mov    %eax,%edi
    ddde:	e8 69 7e ff ff       	callq  5c4c <safe_lshift_func_uint8_t_u_u>
    dde3:	0f b6 c0             	movzbl %al,%eax
    dde6:	89 85 cc d9 ff ff    	mov    %eax,-0x2634(%rbp)
    ddec:	e9 fe 0b 00 00       	jmpq   e9ef <func_27+0x5cd5>
    ddf1:	48 c7 85 c0 de ff ff 	movq   $0x0,-0x2140(%rbp)
    ddf8:	00 00 00 00 
    ddfc:	48 8d 85 ec de ff ff 	lea    -0x2114(%rbp),%rax
    de03:	48 89 85 c8 de ff ff 	mov    %rax,-0x2138(%rbp)
    de0a:	48 c7 85 e0 f7 ff ff 	movq   $0x0,-0x820(%rbp)
    de11:	00 00 00 00 
    de15:	48 c7 85 e8 f7 ff ff 	movq   $0x0,-0x818(%rbp)
    de1c:	00 00 00 00 
    de20:	48 c7 85 f0 f7 ff ff 	movq   $0x0,-0x810(%rbp)
    de27:	00 00 00 00 
    de2b:	48 c7 85 f8 f7 ff ff 	movq   $0x0,-0x808(%rbp)
    de32:	00 00 00 00 
    de36:	48 8d 05 db b2 00 00 	lea    0xb2db(%rip),%rax        # 19118 <g_343>
    de3d:	48 89 85 00 f8 ff ff 	mov    %rax,-0x800(%rbp)
    de44:	48 8d 85 6c d8 ff ff 	lea    -0x2794(%rbp),%rax
    de4b:	48 89 85 08 f8 ff ff 	mov    %rax,-0x7f8(%rbp)
    de52:	48 c7 85 10 f8 ff ff 	movq   $0x0,-0x7f0(%rbp)
    de59:	00 00 00 00 
    de5d:	48 8d 85 50 d8 ff ff 	lea    -0x27b0(%rbp),%rax
    de64:	48 89 85 18 f8 ff ff 	mov    %rax,-0x7e8(%rbp)
    de6b:	48 c7 85 20 f8 ff ff 	movq   $0x0,-0x7e0(%rbp)
    de72:	00 00 00 00 
    de76:	48 c7 85 28 f8 ff ff 	movq   $0x0,-0x7d8(%rbp)
    de7d:	00 00 00 00 
    de81:	48 8d 05 90 b2 00 00 	lea    0xb290(%rip),%rax        # 19118 <g_343>
    de88:	48 89 85 30 f8 ff ff 	mov    %rax,-0x7d0(%rbp)
    de8f:	48 c7 85 38 f8 ff ff 	movq   $0x0,-0x7c8(%rbp)
    de96:	00 00 00 00 
    de9a:	48 c7 85 40 f8 ff ff 	movq   $0x0,-0x7c0(%rbp)
    dea1:	00 00 00 00 
    dea5:	48 c7 85 48 f8 ff ff 	movq   $0x0,-0x7b8(%rbp)
    deac:	00 00 00 00 
    deb0:	48 8d 85 6c d8 ff ff 	lea    -0x2794(%rbp),%rax
    deb7:	48 89 85 50 f8 ff ff 	mov    %rax,-0x7b0(%rbp)
    debe:	48 c7 85 58 f8 ff ff 	movq   $0x0,-0x7a8(%rbp)
    dec5:	00 00 00 00 
    dec9:	48 c7 85 60 f8 ff ff 	movq   $0x0,-0x7a0(%rbp)
    ded0:	00 00 00 00 
    ded4:	48 c7 85 68 f8 ff ff 	movq   $0x0,-0x798(%rbp)
    dedb:	00 00 00 00 
    dedf:	48 c7 85 70 f8 ff ff 	movq   $0x0,-0x790(%rbp)
    dee6:	00 00 00 00 
    deea:	48 8d 05 27 b2 00 00 	lea    0xb227(%rip),%rax        # 19118 <g_343>
    def1:	48 89 85 78 f8 ff ff 	mov    %rax,-0x788(%rbp)
    def8:	48 8d 85 6c d8 ff ff 	lea    -0x2794(%rbp),%rax
    deff:	48 89 85 80 f8 ff ff 	mov    %rax,-0x780(%rbp)
    df06:	48 c7 85 88 f8 ff ff 	movq   $0x0,-0x778(%rbp)
    df0d:	00 00 00 00 
    df11:	48 8d 85 50 d8 ff ff 	lea    -0x27b0(%rbp),%rax
    df18:	48 89 85 90 f8 ff ff 	mov    %rax,-0x770(%rbp)
    df1f:	48 c7 85 98 f8 ff ff 	movq   $0x0,-0x768(%rbp)
    df26:	00 00 00 00 
    df2a:	48 c7 85 a0 f8 ff ff 	movq   $0x0,-0x760(%rbp)
    df31:	00 00 00 00 
    df35:	48 8d 05 dc b1 00 00 	lea    0xb1dc(%rip),%rax        # 19118 <g_343>
    df3c:	48 89 85 a8 f8 ff ff 	mov    %rax,-0x758(%rbp)
    df43:	48 c7 85 b0 f8 ff ff 	movq   $0x0,-0x750(%rbp)
    df4a:	00 00 00 00 
    df4e:	48 c7 85 b8 f8 ff ff 	movq   $0x0,-0x748(%rbp)
    df55:	00 00 00 00 
    df59:	48 c7 85 c0 f8 ff ff 	movq   $0x0,-0x740(%rbp)
    df60:	00 00 00 00 
    df64:	48 8d 85 6c d8 ff ff 	lea    -0x2794(%rbp),%rax
    df6b:	48 89 85 c8 f8 ff ff 	mov    %rax,-0x738(%rbp)
    df72:	48 c7 85 d0 f8 ff ff 	movq   $0x0,-0x730(%rbp)
    df79:	00 00 00 00 
    df7d:	48 c7 85 d8 f8 ff ff 	movq   $0x0,-0x728(%rbp)
    df84:	00 00 00 00 
    df88:	48 c7 85 e0 f8 ff ff 	movq   $0x0,-0x720(%rbp)
    df8f:	00 00 00 00 
    df93:	48 c7 85 e8 f8 ff ff 	movq   $0x0,-0x718(%rbp)
    df9a:	00 00 00 00 
    df9e:	48 8d 05 73 b1 00 00 	lea    0xb173(%rip),%rax        # 19118 <g_343>
    dfa5:	48 89 85 f0 f8 ff ff 	mov    %rax,-0x710(%rbp)
    dfac:	48 8d 85 6c d8 ff ff 	lea    -0x2794(%rbp),%rax
    dfb3:	48 89 85 f8 f8 ff ff 	mov    %rax,-0x708(%rbp)
    dfba:	48 c7 85 00 f9 ff ff 	movq   $0x0,-0x700(%rbp)
    dfc1:	00 00 00 00 
    dfc5:	48 8d 85 50 d8 ff ff 	lea    -0x27b0(%rbp),%rax
    dfcc:	48 89 85 08 f9 ff ff 	mov    %rax,-0x6f8(%rbp)
    dfd3:	48 c7 85 10 f9 ff ff 	movq   $0x0,-0x6f0(%rbp)
    dfda:	00 00 00 00 
    dfde:	48 c7 85 18 f9 ff ff 	movq   $0x0,-0x6e8(%rbp)
    dfe5:	00 00 00 00 
    dfe9:	48 8d 05 28 b1 00 00 	lea    0xb128(%rip),%rax        # 19118 <g_343>
    dff0:	48 89 85 20 f9 ff ff 	mov    %rax,-0x6e0(%rbp)
    dff7:	48 c7 85 28 f9 ff ff 	movq   $0x0,-0x6d8(%rbp)
    dffe:	00 00 00 00 
    e002:	48 c7 85 30 f9 ff ff 	movq   $0x0,-0x6d0(%rbp)
    e009:	00 00 00 00 
    e00d:	48 c7 85 38 f9 ff ff 	movq   $0x0,-0x6c8(%rbp)
    e014:	00 00 00 00 
    e018:	48 8d 85 6c d8 ff ff 	lea    -0x2794(%rbp),%rax
    e01f:	48 89 85 40 f9 ff ff 	mov    %rax,-0x6c0(%rbp)
    e026:	48 c7 85 48 f9 ff ff 	movq   $0x0,-0x6b8(%rbp)
    e02d:	00 00 00 00 
    e031:	48 c7 85 50 f9 ff ff 	movq   $0x0,-0x6b0(%rbp)
    e038:	00 00 00 00 
    e03c:	48 c7 85 58 f9 ff ff 	movq   $0x0,-0x6a8(%rbp)
    e043:	00 00 00 00 
    e047:	48 c7 85 60 f9 ff ff 	movq   $0x0,-0x6a0(%rbp)
    e04e:	00 00 00 00 
    e052:	48 8d 05 bf b0 00 00 	lea    0xb0bf(%rip),%rax        # 19118 <g_343>
    e059:	48 89 85 68 f9 ff ff 	mov    %rax,-0x698(%rbp)
    e060:	48 8d 85 6c d8 ff ff 	lea    -0x2794(%rbp),%rax
    e067:	48 89 85 70 f9 ff ff 	mov    %rax,-0x690(%rbp)
    e06e:	48 c7 85 78 f9 ff ff 	movq   $0x0,-0x688(%rbp)
    e075:	00 00 00 00 
    e079:	48 8d 85 50 d8 ff ff 	lea    -0x27b0(%rbp),%rax
    e080:	48 89 85 80 f9 ff ff 	mov    %rax,-0x680(%rbp)
    e087:	48 c7 85 88 f9 ff ff 	movq   $0x0,-0x678(%rbp)
    e08e:	00 00 00 00 
    e092:	48 c7 85 90 f9 ff ff 	movq   $0x0,-0x670(%rbp)
    e099:	00 00 00 00 
    e09d:	48 8d 05 74 b0 00 00 	lea    0xb074(%rip),%rax        # 19118 <g_343>
    e0a4:	48 89 85 98 f9 ff ff 	mov    %rax,-0x668(%rbp)
    e0ab:	48 c7 85 a0 f9 ff ff 	movq   $0x0,-0x660(%rbp)
    e0b2:	00 00 00 00 
    e0b6:	48 c7 85 a8 f9 ff ff 	movq   $0x0,-0x658(%rbp)
    e0bd:	00 00 00 00 
    e0c1:	48 c7 85 b0 f9 ff ff 	movq   $0x0,-0x650(%rbp)
    e0c8:	00 00 00 00 
    e0cc:	48 8d 85 6c d8 ff ff 	lea    -0x2794(%rbp),%rax
    e0d3:	48 89 85 b8 f9 ff ff 	mov    %rax,-0x648(%rbp)
    e0da:	48 c7 85 c0 f9 ff ff 	movq   $0x0,-0x640(%rbp)
    e0e1:	00 00 00 00 
    e0e5:	48 c7 85 c8 f9 ff ff 	movq   $0x0,-0x638(%rbp)
    e0ec:	00 00 00 00 
    e0f0:	48 c7 85 d0 f9 ff ff 	movq   $0x0,-0x630(%rbp)
    e0f7:	00 00 00 00 
    e0fb:	48 c7 85 d8 f9 ff ff 	movq   $0x0,-0x628(%rbp)
    e102:	00 00 00 00 
    e106:	48 8d 05 0b b0 00 00 	lea    0xb00b(%rip),%rax        # 19118 <g_343>
    e10d:	48 89 85 e0 f9 ff ff 	mov    %rax,-0x620(%rbp)
    e114:	48 8d 85 6c d8 ff ff 	lea    -0x2794(%rbp),%rax
    e11b:	48 89 85 e8 f9 ff ff 	mov    %rax,-0x618(%rbp)
    e122:	48 c7 85 f0 f9 ff ff 	movq   $0x0,-0x610(%rbp)
    e129:	00 00 00 00 
    e12d:	48 8d 85 50 d8 ff ff 	lea    -0x27b0(%rbp),%rax
    e134:	48 89 85 f8 f9 ff ff 	mov    %rax,-0x608(%rbp)
    e13b:	48 c7 85 00 fa ff ff 	movq   $0x0,-0x600(%rbp)
    e142:	00 00 00 00 
    e146:	48 c7 85 08 fa ff ff 	movq   $0x0,-0x5f8(%rbp)
    e14d:	00 00 00 00 
    e151:	48 8d 05 c0 af 00 00 	lea    0xafc0(%rip),%rax        # 19118 <g_343>
    e158:	48 89 85 10 fa ff ff 	mov    %rax,-0x5f0(%rbp)
    e15f:	48 c7 85 18 fa ff ff 	movq   $0x0,-0x5e8(%rbp)
    e166:	00 00 00 00 
    e16a:	48 c7 85 20 fa ff ff 	movq   $0x0,-0x5e0(%rbp)
    e171:	00 00 00 00 
    e175:	48 c7 85 28 fa ff ff 	movq   $0x0,-0x5d8(%rbp)
    e17c:	00 00 00 00 
    e180:	48 8d 85 6c d8 ff ff 	lea    -0x2794(%rbp),%rax
    e187:	48 89 85 30 fa ff ff 	mov    %rax,-0x5d0(%rbp)
    e18e:	48 c7 85 38 fa ff ff 	movq   $0x0,-0x5c8(%rbp)
    e195:	00 00 00 00 
    e199:	48 c7 85 40 fa ff ff 	movq   $0x0,-0x5c0(%rbp)
    e1a0:	00 00 00 00 
    e1a4:	48 c7 85 48 fa ff ff 	movq   $0x0,-0x5b8(%rbp)
    e1ab:	00 00 00 00 
    e1af:	48 c7 85 50 fa ff ff 	movq   $0x0,-0x5b0(%rbp)
    e1b6:	00 00 00 00 
    e1ba:	48 8d 05 57 af 00 00 	lea    0xaf57(%rip),%rax        # 19118 <g_343>
    e1c1:	48 89 85 58 fa ff ff 	mov    %rax,-0x5a8(%rbp)
    e1c8:	48 8d 85 6c d8 ff ff 	lea    -0x2794(%rbp),%rax
    e1cf:	48 89 85 60 fa ff ff 	mov    %rax,-0x5a0(%rbp)
    e1d6:	48 c7 85 68 fa ff ff 	movq   $0x0,-0x598(%rbp)
    e1dd:	00 00 00 00 
    e1e1:	48 8d 85 50 d8 ff ff 	lea    -0x27b0(%rbp),%rax
    e1e8:	48 89 85 70 fa ff ff 	mov    %rax,-0x590(%rbp)
    e1ef:	48 c7 85 78 fa ff ff 	movq   $0x0,-0x588(%rbp)
    e1f6:	00 00 00 00 
    e1fa:	48 c7 85 80 fa ff ff 	movq   $0x0,-0x580(%rbp)
    e201:	00 00 00 00 
    e205:	48 8d 05 0c af 00 00 	lea    0xaf0c(%rip),%rax        # 19118 <g_343>
    e20c:	48 89 85 88 fa ff ff 	mov    %rax,-0x578(%rbp)
    e213:	48 c7 85 90 fa ff ff 	movq   $0x0,-0x570(%rbp)
    e21a:	00 00 00 00 
    e21e:	48 c7 85 98 fa ff ff 	movq   $0x0,-0x568(%rbp)
    e225:	00 00 00 00 
    e229:	48 c7 85 a0 fa ff ff 	movq   $0x0,-0x560(%rbp)
    e230:	00 00 00 00 
    e234:	48 8d 85 6c d8 ff ff 	lea    -0x2794(%rbp),%rax
    e23b:	48 89 85 a8 fa ff ff 	mov    %rax,-0x558(%rbp)
    e242:	48 c7 85 b0 fa ff ff 	movq   $0x0,-0x550(%rbp)
    e249:	00 00 00 00 
    e24d:	48 c7 85 b8 fa ff ff 	movq   $0x0,-0x548(%rbp)
    e254:	00 00 00 00 
    e258:	48 c7 85 c0 fa ff ff 	movq   $0x0,-0x540(%rbp)
    e25f:	00 00 00 00 
    e263:	48 c7 85 c8 fa ff ff 	movq   $0x0,-0x538(%rbp)
    e26a:	00 00 00 00 
    e26e:	48 8d 05 a3 ae 00 00 	lea    0xaea3(%rip),%rax        # 19118 <g_343>
    e275:	48 89 85 d0 fa ff ff 	mov    %rax,-0x530(%rbp)
    e27c:	48 8d 85 6c d8 ff ff 	lea    -0x2794(%rbp),%rax
    e283:	48 89 85 d8 fa ff ff 	mov    %rax,-0x528(%rbp)
    e28a:	48 c7 85 e0 fa ff ff 	movq   $0x0,-0x520(%rbp)
    e291:	00 00 00 00 
    e295:	48 8d 85 50 d8 ff ff 	lea    -0x27b0(%rbp),%rax
    e29c:	48 89 85 e8 fa ff ff 	mov    %rax,-0x518(%rbp)
    e2a3:	48 c7 85 f0 fa ff ff 	movq   $0x0,-0x510(%rbp)
    e2aa:	00 00 00 00 
    e2ae:	48 c7 85 f8 fa ff ff 	movq   $0x0,-0x508(%rbp)
    e2b5:	00 00 00 00 
    e2b9:	48 8d 05 58 ae 00 00 	lea    0xae58(%rip),%rax        # 19118 <g_343>
    e2c0:	48 89 85 00 fb ff ff 	mov    %rax,-0x500(%rbp)
    e2c7:	48 c7 85 08 fb ff ff 	movq   $0x0,-0x4f8(%rbp)
    e2ce:	00 00 00 00 
    e2d2:	48 c7 85 10 fb ff ff 	movq   $0x0,-0x4f0(%rbp)
    e2d9:	00 00 00 00 
    e2dd:	48 c7 85 18 fb ff ff 	movq   $0x0,-0x4e8(%rbp)
    e2e4:	00 00 00 00 
    e2e8:	48 8d 85 6c d8 ff ff 	lea    -0x2794(%rbp),%rax
    e2ef:	48 89 85 20 fb ff ff 	mov    %rax,-0x4e0(%rbp)
    e2f6:	48 c7 85 28 fb ff ff 	movq   $0x0,-0x4d8(%rbp)
    e2fd:	00 00 00 00 
    e301:	48 c7 85 30 fb ff ff 	movq   $0x0,-0x4d0(%rbp)
    e308:	00 00 00 00 
    e30c:	48 c7 85 38 fb ff ff 	movq   $0x0,-0x4c8(%rbp)
    e313:	00 00 00 00 
    e317:	48 c7 85 40 fb ff ff 	movq   $0x0,-0x4c0(%rbp)
    e31e:	00 00 00 00 
    e322:	48 8d 05 ef ad 00 00 	lea    0xadef(%rip),%rax        # 19118 <g_343>
    e329:	48 89 85 48 fb ff ff 	mov    %rax,-0x4b8(%rbp)
    e330:	48 8d 85 6c d8 ff ff 	lea    -0x2794(%rbp),%rax
    e337:	48 89 85 50 fb ff ff 	mov    %rax,-0x4b0(%rbp)
    e33e:	48 c7 85 58 fb ff ff 	movq   $0x0,-0x4a8(%rbp)
    e345:	00 00 00 00 
    e349:	48 8d 85 50 d8 ff ff 	lea    -0x27b0(%rbp),%rax
    e350:	48 89 85 60 fb ff ff 	mov    %rax,-0x4a0(%rbp)
    e357:	48 c7 85 68 fb ff ff 	movq   $0x0,-0x498(%rbp)
    e35e:	00 00 00 00 
    e362:	48 c7 85 70 fb ff ff 	movq   $0x0,-0x490(%rbp)
    e369:	00 00 00 00 
    e36d:	48 8d 05 a4 ad 00 00 	lea    0xada4(%rip),%rax        # 19118 <g_343>
    e374:	48 89 85 78 fb ff ff 	mov    %rax,-0x488(%rbp)
    e37b:	48 c7 85 80 fb ff ff 	movq   $0x0,-0x480(%rbp)
    e382:	00 00 00 00 
    e386:	48 c7 85 88 fb ff ff 	movq   $0x0,-0x478(%rbp)
    e38d:	00 00 00 00 
    e391:	48 c7 85 90 fb ff ff 	movq   $0x0,-0x470(%rbp)
    e398:	00 00 00 00 
    e39c:	48 8d 85 6c d8 ff ff 	lea    -0x2794(%rbp),%rax
    e3a3:	48 89 85 98 fb ff ff 	mov    %rax,-0x468(%rbp)
    e3aa:	48 8d 05 a7 b0 00 00 	lea    0xb0a7(%rip),%rax        # 19458 <g_929>
    e3b1:	48 89 85 a0 fb ff ff 	mov    %rax,-0x460(%rbp)
    e3b8:	48 c7 85 a8 fb ff ff 	movq   $0x0,-0x458(%rbp)
    e3bf:	00 00 00 00 
    e3c3:	48 8d 05 8e b0 00 00 	lea    0xb08e(%rip),%rax        # 19458 <g_929>
    e3ca:	48 89 85 b0 fb ff ff 	mov    %rax,-0x450(%rbp)
    e3d1:	48 8d 05 70 b0 00 00 	lea    0xb070(%rip),%rax        # 19448 <g_840>
    e3d8:	48 89 85 b8 fb ff ff 	mov    %rax,-0x448(%rbp)
    e3df:	48 c7 85 c0 fb ff ff 	movq   $0x0,-0x440(%rbp)
    e3e6:	00 00 00 00 
    e3ea:	48 8d 05 2f ad 00 00 	lea    0xad2f(%rip),%rax        # 19120 <g_371>
    e3f1:	48 89 85 c8 fb ff ff 	mov    %rax,-0x438(%rbp)
    e3f8:	48 8d 05 49 b0 00 00 	lea    0xb049(%rip),%rax        # 19448 <g_840>
    e3ff:	48 89 85 d0 fb ff ff 	mov    %rax,-0x430(%rbp)
    e406:	48 c7 85 d8 fb ff ff 	movq   $0x0,-0x428(%rbp)
    e40d:	00 00 00 00 
    e411:	48 c7 85 e0 fb ff ff 	movq   $0x0,-0x420(%rbp)
    e418:	00 00 00 00 
    e41c:	48 8d 05 35 b0 00 00 	lea    0xb035(%rip),%rax        # 19458 <g_929>
    e423:	48 89 85 e8 fb ff ff 	mov    %rax,-0x418(%rbp)
    e42a:	48 c7 85 f0 fb ff ff 	movq   $0x0,-0x410(%rbp)
    e431:	00 00 00 00 
    e435:	48 c7 85 f8 fb ff ff 	movq   $0x0,-0x408(%rbp)
    e43c:	00 00 00 00 
    e440:	48 c7 85 00 fc ff ff 	movq   $0x0,-0x400(%rbp)
    e447:	00 00 00 00 
    e44b:	48 c7 85 08 fc ff ff 	movq   $0x0,-0x3f8(%rbp)
    e452:	00 00 00 00 
    e456:	48 8d 05 c3 ac 00 00 	lea    0xacc3(%rip),%rax        # 19120 <g_371>
    e45d:	48 89 85 10 fc ff ff 	mov    %rax,-0x3f0(%rbp)
    e464:	48 8d 05 ed af 00 00 	lea    0xafed(%rip),%rax        # 19458 <g_929>
    e46b:	48 89 85 18 fc ff ff 	mov    %rax,-0x3e8(%rbp)
    e472:	48 c7 85 20 fc ff ff 	movq   $0x0,-0x3e0(%rbp)
    e479:	00 00 00 00 
    e47d:	48 8d 05 d4 af 00 00 	lea    0xafd4(%rip),%rax        # 19458 <g_929>
    e484:	48 89 85 28 fc ff ff 	mov    %rax,-0x3d8(%rbp)
    e48b:	48 8d 05 b6 af 00 00 	lea    0xafb6(%rip),%rax        # 19448 <g_840>
    e492:	48 89 85 30 fc ff ff 	mov    %rax,-0x3d0(%rbp)
    e499:	48 c7 85 38 fc ff ff 	movq   $0x0,-0x3c8(%rbp)
    e4a0:	00 00 00 00 
    e4a4:	48 8d 05 75 ac 00 00 	lea    0xac75(%rip),%rax        # 19120 <g_371>
    e4ab:	48 89 85 40 fc ff ff 	mov    %rax,-0x3c0(%rbp)
    e4b2:	48 8d 05 8f af 00 00 	lea    0xaf8f(%rip),%rax        # 19448 <g_840>
    e4b9:	48 89 85 48 fc ff ff 	mov    %rax,-0x3b8(%rbp)
    e4c0:	48 c7 85 50 fc ff ff 	movq   $0x0,-0x3b0(%rbp)
    e4c7:	00 00 00 00 
    e4cb:	48 c7 85 58 fc ff ff 	movq   $0x0,-0x3a8(%rbp)
    e4d2:	00 00 00 00 
    e4d6:	48 8d 05 7b af 00 00 	lea    0xaf7b(%rip),%rax        # 19458 <g_929>
    e4dd:	48 89 85 60 fc ff ff 	mov    %rax,-0x3a0(%rbp)
    e4e4:	48 c7 85 68 fc ff ff 	movq   $0x0,-0x398(%rbp)
    e4eb:	00 00 00 00 
    e4ef:	48 c7 85 70 fc ff ff 	movq   $0x0,-0x390(%rbp)
    e4f6:	00 00 00 00 
    e4fa:	48 c7 85 78 fc ff ff 	movq   $0x0,-0x388(%rbp)
    e501:	00 00 00 00 
    e505:	48 c7 85 80 fc ff ff 	movq   $0x0,-0x380(%rbp)
    e50c:	00 00 00 00 
    e510:	48 8d 05 09 ac 00 00 	lea    0xac09(%rip),%rax        # 19120 <g_371>
    e517:	48 89 85 88 fc ff ff 	mov    %rax,-0x378(%rbp)
    e51e:	48 8d 05 33 af 00 00 	lea    0xaf33(%rip),%rax        # 19458 <g_929>
    e525:	48 89 85 90 fc ff ff 	mov    %rax,-0x370(%rbp)
    e52c:	48 c7 85 98 fc ff ff 	movq   $0x0,-0x368(%rbp)
    e533:	00 00 00 00 
    e537:	48 8d 05 1a af 00 00 	lea    0xaf1a(%rip),%rax        # 19458 <g_929>
    e53e:	48 89 85 a0 fc ff ff 	mov    %rax,-0x360(%rbp)
    e545:	48 8d 05 fc ae 00 00 	lea    0xaefc(%rip),%rax        # 19448 <g_840>
    e54c:	48 89 85 a8 fc ff ff 	mov    %rax,-0x358(%rbp)
    e553:	48 c7 85 b0 fc ff ff 	movq   $0x0,-0x350(%rbp)
    e55a:	00 00 00 00 
    e55e:	48 8d 05 bb ab 00 00 	lea    0xabbb(%rip),%rax        # 19120 <g_371>
    e565:	48 89 85 b8 fc ff ff 	mov    %rax,-0x348(%rbp)
    e56c:	48 8d 05 d5 ae 00 00 	lea    0xaed5(%rip),%rax        # 19448 <g_840>
    e573:	48 89 85 c0 fc ff ff 	mov    %rax,-0x340(%rbp)
    e57a:	48 c7 85 c8 fc ff ff 	movq   $0x0,-0x338(%rbp)
    e581:	00 00 00 00 
    e585:	48 c7 85 d0 fc ff ff 	movq   $0x0,-0x330(%rbp)
    e58c:	00 00 00 00 
    e590:	48 8d 05 c1 ae 00 00 	lea    0xaec1(%rip),%rax        # 19458 <g_929>
    e597:	48 89 85 d8 fc ff ff 	mov    %rax,-0x328(%rbp)
    e59e:	48 c7 85 e0 fc ff ff 	movq   $0x0,-0x320(%rbp)
    e5a5:	00 00 00 00 
    e5a9:	48 c7 85 e8 fc ff ff 	movq   $0x0,-0x318(%rbp)
    e5b0:	00 00 00 00 
    e5b4:	48 c7 85 f0 fc ff ff 	movq   $0x0,-0x310(%rbp)
    e5bb:	00 00 00 00 
    e5bf:	48 c7 85 f8 fc ff ff 	movq   $0x0,-0x308(%rbp)
    e5c6:	00 00 00 00 
    e5ca:	48 8d 05 4f ab 00 00 	lea    0xab4f(%rip),%rax        # 19120 <g_371>
    e5d1:	48 89 85 00 fd ff ff 	mov    %rax,-0x300(%rbp)
    e5d8:	48 8d 05 79 ae 00 00 	lea    0xae79(%rip),%rax        # 19458 <g_929>
    e5df:	48 89 85 08 fd ff ff 	mov    %rax,-0x2f8(%rbp)
    e5e6:	48 c7 85 10 fd ff ff 	movq   $0x0,-0x2f0(%rbp)
    e5ed:	00 00 00 00 
    e5f1:	48 8d 05 60 ae 00 00 	lea    0xae60(%rip),%rax        # 19458 <g_929>
    e5f8:	48 89 85 18 fd ff ff 	mov    %rax,-0x2e8(%rbp)
    e5ff:	48 8d 05 42 ae 00 00 	lea    0xae42(%rip),%rax        # 19448 <g_840>
    e606:	48 89 85 20 fd ff ff 	mov    %rax,-0x2e0(%rbp)
    e60d:	48 c7 85 28 fd ff ff 	movq   $0x0,-0x2d8(%rbp)
    e614:	00 00 00 00 
    e618:	48 8d 05 01 ab 00 00 	lea    0xab01(%rip),%rax        # 19120 <g_371>
    e61f:	48 89 85 30 fd ff ff 	mov    %rax,-0x2d0(%rbp)
    e626:	48 8d 05 1b ae 00 00 	lea    0xae1b(%rip),%rax        # 19448 <g_840>
    e62d:	48 89 85 38 fd ff ff 	mov    %rax,-0x2c8(%rbp)
    e634:	48 c7 85 40 fd ff ff 	movq   $0x0,-0x2c0(%rbp)
    e63b:	00 00 00 00 
    e63f:	48 c7 85 48 fd ff ff 	movq   $0x0,-0x2b8(%rbp)
    e646:	00 00 00 00 
    e64a:	48 8d 05 07 ae 00 00 	lea    0xae07(%rip),%rax        # 19458 <g_929>
    e651:	48 89 85 50 fd ff ff 	mov    %rax,-0x2b0(%rbp)
    e658:	48 c7 85 58 fd ff ff 	movq   $0x0,-0x2a8(%rbp)
    e65f:	00 00 00 00 
    e663:	48 c7 85 60 fd ff ff 	movq   $0x0,-0x2a0(%rbp)
    e66a:	00 00 00 00 
    e66e:	48 c7 85 68 fd ff ff 	movq   $0x0,-0x298(%rbp)
    e675:	00 00 00 00 
    e679:	48 c7 85 70 fd ff ff 	movq   $0x0,-0x290(%rbp)
    e680:	00 00 00 00 
    e684:	48 8d 05 95 aa 00 00 	lea    0xaa95(%rip),%rax        # 19120 <g_371>
    e68b:	48 89 85 78 fd ff ff 	mov    %rax,-0x288(%rbp)
    e692:	48 8d 05 bf ad 00 00 	lea    0xadbf(%rip),%rax        # 19458 <g_929>
    e699:	48 89 85 80 fd ff ff 	mov    %rax,-0x280(%rbp)
    e6a0:	48 c7 85 88 fd ff ff 	movq   $0x0,-0x278(%rbp)
    e6a7:	00 00 00 00 
    e6ab:	48 8d 05 a6 ad 00 00 	lea    0xada6(%rip),%rax        # 19458 <g_929>
    e6b2:	48 89 85 90 fd ff ff 	mov    %rax,-0x270(%rbp)
    e6b9:	48 8d 05 88 ad 00 00 	lea    0xad88(%rip),%rax        # 19448 <g_840>
    e6c0:	48 89 85 98 fd ff ff 	mov    %rax,-0x268(%rbp)
    e6c7:	48 c7 85 a0 fd ff ff 	movq   $0x0,-0x260(%rbp)
    e6ce:	00 00 00 00 
    e6d2:	48 8d 05 47 aa 00 00 	lea    0xaa47(%rip),%rax        # 19120 <g_371>
    e6d9:	48 89 85 a8 fd ff ff 	mov    %rax,-0x258(%rbp)
    e6e0:	48 8d 05 61 ad 00 00 	lea    0xad61(%rip),%rax        # 19448 <g_840>
    e6e7:	48 89 85 b0 fd ff ff 	mov    %rax,-0x250(%rbp)
    e6ee:	48 c7 85 b8 fd ff ff 	movq   $0x0,-0x248(%rbp)
    e6f5:	00 00 00 00 
    e6f9:	48 c7 85 c0 fd ff ff 	movq   $0x0,-0x240(%rbp)
    e700:	00 00 00 00 
    e704:	48 8d 05 4d ad 00 00 	lea    0xad4d(%rip),%rax        # 19458 <g_929>
    e70b:	48 89 85 c8 fd ff ff 	mov    %rax,-0x238(%rbp)
    e712:	48 c7 85 d0 fd ff ff 	movq   $0x0,-0x230(%rbp)
    e719:	00 00 00 00 
    e71d:	48 c7 85 d8 fd ff ff 	movq   $0x0,-0x228(%rbp)
    e724:	00 00 00 00 
    e728:	48 c7 85 e0 fd ff ff 	movq   $0x0,-0x220(%rbp)
    e72f:	00 00 00 00 
    e733:	48 c7 85 e8 fd ff ff 	movq   $0x0,-0x218(%rbp)
    e73a:	00 00 00 00 
    e73e:	48 8d 05 db a9 00 00 	lea    0xa9db(%rip),%rax        # 19120 <g_371>
    e745:	48 89 85 f0 fd ff ff 	mov    %rax,-0x210(%rbp)
    e74c:	48 8d 05 05 ad 00 00 	lea    0xad05(%rip),%rax        # 19458 <g_929>
    e753:	48 89 85 f8 fd ff ff 	mov    %rax,-0x208(%rbp)
    e75a:	48 c7 85 00 fe ff ff 	movq   $0x0,-0x200(%rbp)
    e761:	00 00 00 00 
    e765:	48 8d 05 ec ac 00 00 	lea    0xacec(%rip),%rax        # 19458 <g_929>
    e76c:	48 89 85 08 fe ff ff 	mov    %rax,-0x1f8(%rbp)
    e773:	48 8d 05 ce ac 00 00 	lea    0xacce(%rip),%rax        # 19448 <g_840>
    e77a:	48 89 85 10 fe ff ff 	mov    %rax,-0x1f0(%rbp)
    e781:	48 c7 85 18 fe ff ff 	movq   $0x0,-0x1e8(%rbp)
    e788:	00 00 00 00 
    e78c:	48 8d 05 8d a9 00 00 	lea    0xa98d(%rip),%rax        # 19120 <g_371>
    e793:	48 89 85 20 fe ff ff 	mov    %rax,-0x1e0(%rbp)
    e79a:	48 8d 05 a7 ac 00 00 	lea    0xaca7(%rip),%rax        # 19448 <g_840>
    e7a1:	48 89 85 28 fe ff ff 	mov    %rax,-0x1d8(%rbp)
    e7a8:	48 c7 85 30 fe ff ff 	movq   $0x0,-0x1d0(%rbp)
    e7af:	00 00 00 00 
    e7b3:	48 c7 85 38 fe ff ff 	movq   $0x0,-0x1c8(%rbp)
    e7ba:	00 00 00 00 
    e7be:	48 8d 05 93 ac 00 00 	lea    0xac93(%rip),%rax        # 19458 <g_929>
    e7c5:	48 89 85 40 fe ff ff 	mov    %rax,-0x1c0(%rbp)
    e7cc:	48 c7 85 48 fe ff ff 	movq   $0x0,-0x1b8(%rbp)
    e7d3:	00 00 00 00 
    e7d7:	48 c7 85 50 fe ff ff 	movq   $0x0,-0x1b0(%rbp)
    e7de:	00 00 00 00 
    e7e2:	48 c7 85 58 fe ff ff 	movq   $0x0,-0x1a8(%rbp)
    e7e9:	00 00 00 00 
    e7ed:	48 c7 85 60 fe ff ff 	movq   $0x0,-0x1a0(%rbp)
    e7f4:	00 00 00 00 
    e7f8:	48 8d 05 21 a9 00 00 	lea    0xa921(%rip),%rax        # 19120 <g_371>
    e7ff:	48 89 85 68 fe ff ff 	mov    %rax,-0x198(%rbp)
    e806:	48 8d 05 4b ac 00 00 	lea    0xac4b(%rip),%rax        # 19458 <g_929>
    e80d:	48 89 85 70 fe ff ff 	mov    %rax,-0x190(%rbp)
    e814:	48 c7 85 78 fe ff ff 	movq   $0x0,-0x188(%rbp)
    e81b:	00 00 00 00 
    e81f:	48 8d 05 32 ac 00 00 	lea    0xac32(%rip),%rax        # 19458 <g_929>
    e826:	48 89 85 80 fe ff ff 	mov    %rax,-0x180(%rbp)
    e82d:	48 8d 05 14 ac 00 00 	lea    0xac14(%rip),%rax        # 19448 <g_840>
    e834:	48 89 85 88 fe ff ff 	mov    %rax,-0x178(%rbp)
    e83b:	48 c7 85 90 fe ff ff 	movq   $0x0,-0x170(%rbp)
    e842:	00 00 00 00 
    e846:	48 8d 05 d3 a8 00 00 	lea    0xa8d3(%rip),%rax        # 19120 <g_371>
    e84d:	48 89 85 98 fe ff ff 	mov    %rax,-0x168(%rbp)
    e854:	48 b8 1f c8 ac 08 f3 	movabs $0x8d29f5f308acc81f,%rax
    e85b:	f5 29 8d 
    e85e:	48 89 85 d0 de ff ff 	mov    %rax,-0x2130(%rbp)
    e865:	48 c7 85 d8 de ff ff 	movq   $0x0,-0x2128(%rbp)
    e86c:	00 00 00 00 
    e870:	48 8d 85 80 df ff ff 	lea    -0x2080(%rbp),%rax
    e877:	48 89 85 40 de ff ff 	mov    %rax,-0x21c0(%rbp)
    e87e:	48 8b 85 38 da ff ff 	mov    -0x25c8(%rbp),%rax
    e885:	48 8b 95 40 de ff ff 	mov    -0x21c0(%rbp),%rdx
    e88c:	48 89 10             	mov    %rdx,(%rax)
    e88f:	83 85 b4 d8 ff ff 01 	addl   $0x1,-0x274c(%rbp)
    e896:	0f b6 85 1c d8 ff ff 	movzbl -0x27e4(%rbp),%eax
    e89d:	0f b6 d8             	movzbl %al,%ebx
    e8a0:	48 8b 85 08 d8 ff ff 	mov    -0x27f8(%rbp),%rax
    e8a7:	0f b6 00             	movzbl (%rax),%eax
    e8aa:	44 0f b6 e0          	movzbl %al,%r12d
    e8ae:	48 8b 85 10 d8 ff ff 	mov    -0x27f0(%rbp),%rax
    e8b5:	48 83 f8 01          	cmp    $0x1,%rax
    e8b9:	0f 96 c0             	setbe  %al
    e8bc:	89 c2                	mov    %eax,%edx
    e8be:	48 8b 05 8b c3 00 00 	mov    0xc38b(%rip),%rax        # 1ac50 <g_278>
    e8c5:	48 8b 00             	mov    (%rax),%rax
    e8c8:	0f b7 00             	movzwl (%rax),%eax
    e8cb:	21 d0                	and    %edx,%eax
    e8cd:	0f b6 d0             	movzbl %al,%edx
    e8d0:	48 8b 05 e9 b2 00 00 	mov    0xb2e9(%rip),%rax        # 19bc0 <g_1553>
    e8d7:	48 8b 85 40 de ff ff 	mov    -0x21c0(%rbp),%rax
    e8de:	8b 00                	mov    (%rax),%eax
    e8e0:	0f b6 c0             	movzbl %al,%eax
    e8e3:	89 d6                	mov    %edx,%esi
    e8e5:	89 c7                	mov    %eax,%edi
    e8e7:	e8 ef 72 ff ff       	callq  5bdb <safe_div_func_uint8_t_u_u>
    e8ec:	0f b6 c0             	movzbl %al,%eax
    e8ef:	89 c6                	mov    %eax,%esi
    e8f1:	bf 01 00 00 00       	mov    $0x1,%edi
    e8f6:	e8 61 74 ff ff       	callq  5d5c <safe_mod_func_uint16_t_u_u>
    e8fb:	0f b6 95 1c d8 ff ff 	movzbl -0x27e4(%rbp),%edx
    e902:	0f b6 d2             	movzbl %dl,%edx
    e905:	66 39 d0             	cmp    %dx,%ax
    e908:	0f 92 c0             	setb   %al
    e90b:	0f b6 c0             	movzbl %al,%eax
    e90e:	44 89 e6             	mov    %r12d,%esi
    e911:	89 c7                	mov    %eax,%edi
    e913:	e8 7b 72 ff ff       	callq  5b93 <safe_mul_func_uint8_t_u_u>
    e918:	48 83 bd 48 de ff ff 	cmpq   $0x0,-0x21b8(%rbp)
    e91f:	00 
    e920:	0f 94 c0             	sete   %al
    e923:	0f b6 d0             	movzbl %al,%edx
    e926:	48 83 bd d8 de ff ff 	cmpq   $0x0,-0x2128(%rbp)
    e92d:	00 
    e92e:	0f 94 c0             	sete   %al
    e931:	0f b6 c0             	movzbl %al,%eax
    e934:	39 c2                	cmp    %eax,%edx
    e936:	0f 9e c0             	setle  %al
    e939:	0f b6 c0             	movzbl %al,%eax
    e93c:	89 de                	mov    %ebx,%esi
    e93e:	89 c7                	mov    %eax,%edi
    e940:	e8 b0 6a ff ff       	callq  53f5 <safe_mul_func_int16_t_s_s>
    e945:	48 8b 95 d8 dd ff ff 	mov    -0x2228(%rbp),%rdx
    e94c:	8b 12                	mov    (%rdx),%edx
    e94e:	98                   	cwtl   
    e94f:	09 c2                	or     %eax,%edx
    e951:	48 8b 85 d8 dd ff ff 	mov    -0x2228(%rbp),%rax
    e958:	89 10                	mov    %edx,(%rax)
    e95a:	48 c7 05 b3 ad 00 00 	movq   $0x0,0xadb3(%rip)        # 19718 <g_1090>
    e961:	00 00 00 00 
    e965:	eb 77                	jmp    e9de <func_27+0x5cc4>
    e967:	48 8b 05 8a b2 00 00 	mov    0xb28a(%rip),%rax        # 19bf8 <g_1556>
    e96e:	48 8b 85 90 de ff ff 	mov    -0x2170(%rbp),%rax
    e975:	48 3b 85 00 de ff ff 	cmp    -0x2200(%rbp),%rax
    e97c:	0f 95 c0             	setne  %al
    e97f:	0f b6 d8             	movzbl %al,%ebx
    e982:	48 8b 85 28 dc ff ff 	mov    -0x23d8(%rbp),%rax
    e989:	48 8b 00             	mov    (%rax),%rax
    e98c:	8b 00                	mov    (%rax),%eax
    e98e:	0f be d0             	movsbl %al,%edx
    e991:	48 8b 85 48 da ff ff 	mov    -0x25b8(%rbp),%rax
    e998:	0f be c0             	movsbl %al,%eax
    e99b:	89 d6                	mov    %edx,%esi
    e99d:	89 c7                	mov    %eax,%edi
    e99f:	e8 30 68 ff ff       	callq  51d4 <safe_add_func_int8_t_s_s>
    e9a4:	0f be c0             	movsbl %al,%eax
    e9a7:	39 c3                	cmp    %eax,%ebx
    e9a9:	0f 9f c0             	setg   %al
    e9ac:	0f b6 d0             	movzbl %al,%edx
    e9af:	48 8b 85 40 de ff ff 	mov    -0x21c0(%rbp),%rax
    e9b6:	8b 00                	mov    (%rax),%eax
    e9b8:	31 c2                	xor    %eax,%edx
    e9ba:	48 8b 85 40 de ff ff 	mov    -0x21c0(%rbp),%rax
    e9c1:	89 10                	mov    %edx,(%rax)
    e9c3:	48 8b 05 4e ad 00 00 	mov    0xad4e(%rip),%rax        # 19718 <g_1090>
    e9ca:	be 07 00 00 00       	mov    $0x7,%esi
    e9cf:	48 89 c7             	mov    %rax,%rdi
    e9d2:	e8 d1 6e ff ff       	callq  58a8 <safe_sub_func_int64_t_s_s>
    e9d7:	48 89 05 3a ad 00 00 	mov    %rax,0xad3a(%rip)        # 19718 <g_1090>
    e9de:	48 8b 05 33 ad 00 00 	mov    0xad33(%rip),%rax        # 19718 <g_1090>
    e9e5:	48 83 f8 f5          	cmp    $0xfffffffffffffff5,%rax
    e9e9:	0f 8d 78 ff ff ff    	jge    e967 <func_27+0x5c4d>
    e9ef:	48 8b 05 ba af 00 00 	mov    0xafba(%rip),%rax        # 199b0 <g_1104>
    e9f6:	be 01 00 00 00       	mov    $0x1,%esi
    e9fb:	89 c7                	mov    %eax,%edi
    e9fd:	e8 b4 6b ff ff       	callq  55b6 <safe_add_func_int32_t_s_s>
    ea02:	48 98                	cltq   
    ea04:	48 89 05 a5 af 00 00 	mov    %rax,0xafa5(%rip)        # 199b0 <g_1104>
    ea0b:	48 8b 05 9e af 00 00 	mov    0xaf9e(%rip),%rax        # 199b0 <g_1104>
    ea12:	48 83 f8 07          	cmp    $0x7,%rax
    ea16:	0f 8e 95 dc ff ff    	jle    c6b1 <func_27+0x3997>
    ea1c:	48 8b 05 05 af 00 00 	mov    0xaf05(%rip),%rax        # 19928 <g_1100>
    ea23:	48 83 e8 01          	sub    $0x1,%rax
    ea27:	48 89 05 fa ae 00 00 	mov    %rax,0xaefa(%rip)        # 19928 <g_1100>
    ea2e:	48 8b 05 f3 ae 00 00 	mov    0xaef3(%rip),%rax        # 19928 <g_1100>
    ea35:	48 83 f8 fe          	cmp    $0xfffffffffffffffe,%rax
    ea39:	0f 8d 8e db ff ff    	jge    c5cd <func_27+0x38b3>
    ea3f:	0f b6 85 1c d8 ff ff 	movzbl -0x27e4(%rbp),%eax
    ea46:	83 c0 01             	add    $0x1,%eax
    ea49:	88 85 1c d8 ff ff    	mov    %al,-0x27e4(%rbp)
    ea4f:	0f b6 85 1c d8 ff ff 	movzbl -0x27e4(%rbp),%eax
    ea56:	3c 1d                	cmp    $0x1d,%al
    ea58:	0f 87 dd d5 ff ff    	ja     c03b <func_27+0x3321>
    ea5e:	0f b6 85 1c d8 ff ff 	movzbl -0x27e4(%rbp),%eax
    ea65:	0f b6 d0             	movzbl %al,%edx
    ea68:	48 8b 85 48 dc ff ff 	mov    -0x23b8(%rbp),%rax
    ea6f:	89 10                	mov    %edx,(%rax)
    ea71:	48 8b 85 48 dc ff ff 	mov    -0x23b8(%rbp),%rax
    ea78:	8b 10                	mov    (%rax),%edx
    ea7a:	48 8b 85 00 dc ff ff 	mov    -0x2400(%rbp),%rax
    ea81:	89 10                	mov    %edx,(%rax)
    ea83:	0f b6 85 1c d8 ff ff 	movzbl -0x27e4(%rbp),%eax
    ea8a:	0f b6 d8             	movzbl %al,%ebx
    ea8d:	48 8b 05 6c b1 00 00 	mov    0xb16c(%rip),%rax        # 19c00 <g_1669>
    ea94:	8b 05 f6 d5 00 00    	mov    0xd5f6(%rip),%eax        # 1c090 <g_1008>
    ea9a:	48 63 d0             	movslq %eax,%rdx
    ea9d:	48 8b 85 40 dc ff ff 	mov    -0x23c0(%rbp),%rax
    eaa4:	48 89 10             	mov    %rdx,(%rax)
    eaa7:	48 8b 85 40 dc ff ff 	mov    -0x23c0(%rbp),%rax
    eaae:	48 8b 10             	mov    (%rax),%rdx
    eab1:	48 8b 85 08 dc ff ff 	mov    -0x23f8(%rbp),%rax
    eab8:	48 89 10             	mov    %rdx,(%rax)
    eabb:	48 8b 85 08 dc ff ff 	mov    -0x23f8(%rbp),%rax
    eac2:	48 8b 10             	mov    (%rax),%rdx
    eac5:	48 8b 85 10 d8 ff ff 	mov    -0x27f0(%rbp),%rax
    eacc:	48 21 d0             	and    %rdx,%rax
    eacf:	48 89 85 10 d8 ff ff 	mov    %rax,-0x27f0(%rbp)
    ead6:	48 8b 85 10 d8 ff ff 	mov    -0x27f0(%rbp),%rax
    eadd:	48 85 c0             	test   %rax,%rax
    eae0:	0f 85 b2 00 00 00    	jne    eb98 <func_27+0x5e7e>
    eae6:	0f b6 85 1c d8 ff ff 	movzbl -0x27e4(%rbp),%eax
    eaed:	44 0f b6 e0          	movzbl %al,%r12d
    eaf1:	48 8b 85 08 d8 ff ff 	mov    -0x27f8(%rbp),%rax
    eaf8:	0f b6 00             	movzbl (%rax),%eax
    eafb:	0f be c0             	movsbl %al,%eax
    eafe:	be 02 00 00 00       	mov    $0x2,%esi
    eb03:	89 c7                	mov    %eax,%edi
    eb05:	e8 97 67 ff ff       	callq  52a1 <safe_lshift_func_int8_t_s_s>
    eb0a:	66 98                	cbtw   
    eb0c:	0f b7 d0             	movzwl %ax,%edx
    eb0f:	48 8b 85 10 d8 ff ff 	mov    -0x27f0(%rbp),%rax
    eb16:	0f b7 c0             	movzwl %ax,%eax
    eb19:	89 d6                	mov    %edx,%esi
    eb1b:	89 c7                	mov    %eax,%edi
    eb1d:	e8 6c 72 ff ff       	callq  5d8e <safe_div_func_uint16_t_u_u>
    eb22:	0f b6 c0             	movzbl %al,%eax
    eb25:	be 05 00 00 00       	mov    $0x5,%esi
    eb2a:	89 c7                	mov    %eax,%edi
    eb2c:	e8 5c 71 ff ff       	callq  5c8d <safe_rshift_func_uint8_t_u_s>
    eb31:	0f b6 d0             	movzbl %al,%edx
    eb34:	48 8b 85 10 d8 ff ff 	mov    -0x27f0(%rbp),%rax
    eb3b:	48 21 d0             	and    %rdx,%rax
    eb3e:	48 85 c0             	test   %rax,%rax
    eb41:	75 0b                	jne    eb4e <func_27+0x5e34>
    eb43:	0f b6 85 1c d8 ff ff 	movzbl -0x27e4(%rbp),%eax
    eb4a:	84 c0                	test   %al,%al
    eb4c:	74 07                	je     eb55 <func_27+0x5e3b>
    eb4e:	b8 01 00 00 00       	mov    $0x1,%eax
    eb53:	eb 05                	jmp    eb5a <func_27+0x5e40>
    eb55:	b8 00 00 00 00       	mov    $0x0,%eax
    eb5a:	0f b7 c0             	movzwl %ax,%eax
    eb5d:	be 09 00 00 00       	mov    $0x9,%esi
    eb62:	89 c7                	mov    %eax,%edi
    eb64:	e8 11 73 ff ff       	callq  5e7a <safe_rshift_func_uint16_t_u_u>
    eb69:	0f b7 c0             	movzwl %ax,%eax
    eb6c:	44 89 e2             	mov    %r12d,%edx
    eb6f:	21 c2                	and    %eax,%edx
    eb71:	48 8b 85 28 dc ff ff 	mov    -0x23d8(%rbp),%rax
    eb78:	48 8b 00             	mov    (%rax),%rax
    eb7b:	8b 00                	mov    (%rax),%eax
    eb7d:	39 c2                	cmp    %eax,%edx
    eb7f:	0f 9c c0             	setl   %al
    eb82:	0f b6 c0             	movzbl %al,%eax
    eb85:	48 89 85 10 d8 ff ff 	mov    %rax,-0x27f0(%rbp)
    eb8c:	48 8b 85 10 d8 ff ff 	mov    -0x27f0(%rbp),%rax
    eb93:	48 85 c0             	test   %rax,%rax
    eb96:	74 07                	je     eb9f <func_27+0x5e85>
    eb98:	ba 01 00 00 00       	mov    $0x1,%edx
    eb9d:	eb 05                	jmp    eba4 <func_27+0x5e8a>
    eb9f:	ba 00 00 00 00       	mov    $0x0,%edx
    eba4:	0f b6 85 1c d8 ff ff 	movzbl -0x27e4(%rbp),%eax
    ebab:	0f b6 c0             	movzbl %al,%eax
    ebae:	09 d0                	or     %edx,%eax
    ebb0:	89 de                	mov    %ebx,%esi
    ebb2:	89 c7                	mov    %eax,%edi
    ebb4:	e8 fd 69 ff ff       	callq  55b6 <safe_add_func_int32_t_s_s>
    ebb9:	48 8b 15 78 c3 00 00 	mov    0xc378(%rip),%rdx        # 1af38 <g_811>
    ebc0:	48 8b 12             	mov    (%rdx),%rdx
    ebc3:	0f b6 12             	movzbl (%rdx),%edx
    ebc6:	0f be d2             	movsbl %dl,%edx
    ebc9:	39 d0                	cmp    %edx,%eax
    ebcb:	be ff ff ff ff       	mov    $0xffffffff,%esi
    ebd0:	bf 00 00 00 00       	mov    $0x0,%edi
    ebd5:	e8 f9 67 ff ff       	callq  53d3 <safe_sub_func_int16_t_s_s>
    ebda:	66 85 c0             	test   %ax,%ax
    ebdd:	0f 84 dd 1a 00 00    	je     106c0 <func_27+0x79a6>
    ebe3:	48 8d 05 c6 af 00 00 	lea    0xafc6(%rip),%rax        # 19bb0 <g_1451>
    ebea:	48 89 85 d8 dc ff ff 	mov    %rax,-0x2328(%rbp)
    ebf1:	48 8d 85 23 d8 ff ff 	lea    -0x27dd(%rbp),%rax
    ebf8:	48 89 85 90 da ff ff 	mov    %rax,-0x2570(%rbp)
    ebff:	48 c7 85 b0 e6 ff ff 	movq   $0x0,-0x1950(%rbp)
    ec06:	00 00 00 00 
    ec0a:	48 8d 85 90 da ff ff 	lea    -0x2570(%rbp),%rax
    ec11:	48 89 85 b8 e6 ff ff 	mov    %rax,-0x1948(%rbp)
    ec18:	48 c7 85 c0 e6 ff ff 	movq   $0x0,-0x1940(%rbp)
    ec1f:	00 00 00 00 
    ec23:	48 8d 85 90 da ff ff 	lea    -0x2570(%rbp),%rax
    ec2a:	48 89 85 c8 e6 ff ff 	mov    %rax,-0x1938(%rbp)
    ec31:	48 c7 85 d0 e6 ff ff 	movq   $0x0,-0x1930(%rbp)
    ec38:	00 00 00 00 
    ec3c:	48 8d 85 90 da ff ff 	lea    -0x2570(%rbp),%rax
    ec43:	48 89 85 d8 e6 ff ff 	mov    %rax,-0x1928(%rbp)
    ec4a:	48 c7 85 e0 e6 ff ff 	movq   $0x0,-0x1920(%rbp)
    ec51:	00 00 00 00 
    ec55:	48 8d 85 90 da ff ff 	lea    -0x2570(%rbp),%rax
    ec5c:	48 89 85 e8 e6 ff ff 	mov    %rax,-0x1918(%rbp)
    ec63:	48 c7 85 f0 e6 ff ff 	movq   $0x0,-0x1910(%rbp)
    ec6a:	00 00 00 00 
    ec6e:	48 8d 85 90 da ff ff 	lea    -0x2570(%rbp),%rax
    ec75:	48 89 85 f8 e6 ff ff 	mov    %rax,-0x1908(%rbp)
    ec7c:	48 8d 85 90 da ff ff 	lea    -0x2570(%rbp),%rax
    ec83:	48 89 85 00 e7 ff ff 	mov    %rax,-0x1900(%rbp)
    ec8a:	48 8d 85 90 da ff ff 	lea    -0x2570(%rbp),%rax
    ec91:	48 89 85 08 e7 ff ff 	mov    %rax,-0x18f8(%rbp)
    ec98:	48 8d 85 90 da ff ff 	lea    -0x2570(%rbp),%rax
    ec9f:	48 89 85 10 e7 ff ff 	mov    %rax,-0x18f0(%rbp)
    eca6:	48 8d 85 90 da ff ff 	lea    -0x2570(%rbp),%rax
    ecad:	48 89 85 18 e7 ff ff 	mov    %rax,-0x18e8(%rbp)
    ecb4:	48 8d 85 90 da ff ff 	lea    -0x2570(%rbp),%rax
    ecbb:	48 89 85 20 e7 ff ff 	mov    %rax,-0x18e0(%rbp)
    ecc2:	48 8d 85 90 da ff ff 	lea    -0x2570(%rbp),%rax
    ecc9:	48 89 85 28 e7 ff ff 	mov    %rax,-0x18d8(%rbp)
    ecd0:	48 8d 85 90 da ff ff 	lea    -0x2570(%rbp),%rax
    ecd7:	48 89 85 30 e7 ff ff 	mov    %rax,-0x18d0(%rbp)
    ecde:	48 8d 85 90 da ff ff 	lea    -0x2570(%rbp),%rax
    ece5:	48 89 85 38 e7 ff ff 	mov    %rax,-0x18c8(%rbp)
    ecec:	48 8d 85 90 da ff ff 	lea    -0x2570(%rbp),%rax
    ecf3:	48 89 85 40 e7 ff ff 	mov    %rax,-0x18c0(%rbp)
    ecfa:	48 8d 85 90 da ff ff 	lea    -0x2570(%rbp),%rax
    ed01:	48 89 85 48 e7 ff ff 	mov    %rax,-0x18b8(%rbp)
    ed08:	48 c7 85 50 e7 ff ff 	movq   $0x0,-0x18b0(%rbp)
    ed0f:	00 00 00 00 
    ed13:	48 8d 85 90 da ff ff 	lea    -0x2570(%rbp),%rax
    ed1a:	48 89 85 58 e7 ff ff 	mov    %rax,-0x18a8(%rbp)
    ed21:	48 c7 85 60 e7 ff ff 	movq   $0x0,-0x18a0(%rbp)
    ed28:	00 00 00 00 
    ed2c:	48 8d 85 90 da ff ff 	lea    -0x2570(%rbp),%rax
    ed33:	48 89 85 68 e7 ff ff 	mov    %rax,-0x1898(%rbp)
    ed3a:	48 c7 85 70 e7 ff ff 	movq   $0x0,-0x1890(%rbp)
    ed41:	00 00 00 00 
    ed45:	48 8d 85 90 da ff ff 	lea    -0x2570(%rbp),%rax
    ed4c:	48 89 85 78 e7 ff ff 	mov    %rax,-0x1888(%rbp)
    ed53:	48 c7 85 80 e7 ff ff 	movq   $0x0,-0x1880(%rbp)
    ed5a:	00 00 00 00 
    ed5e:	48 8d 85 90 da ff ff 	lea    -0x2570(%rbp),%rax
    ed65:	48 89 85 88 e7 ff ff 	mov    %rax,-0x1878(%rbp)
    ed6c:	48 c7 85 90 e7 ff ff 	movq   $0x0,-0x1870(%rbp)
    ed73:	00 00 00 00 
    ed77:	48 8d 85 90 da ff ff 	lea    -0x2570(%rbp),%rax
    ed7e:	48 89 85 98 e7 ff ff 	mov    %rax,-0x1868(%rbp)
    ed85:	c7 85 64 d8 ff ff 0f 	movl   $0xb04d440f,-0x279c(%rbp)
    ed8c:	44 4d b0 
    ed8f:	c7 85 68 d8 ff ff fb 	movl   $0x7a21fffb,-0x2798(%rbp)
    ed96:	ff 21 7a 
    ed99:	c7 85 6c d8 ff ff cd 	movl   $0x5260ccd,-0x2794(%rbp)
    eda0:	0c 26 05 
    eda3:	c7 85 70 d8 ff ff f9 	movl   $0x27aa78f9,-0x2790(%rbp)
    edaa:	78 aa 27 
    edad:	48 8d 05 f4 d2 00 00 	lea    0xd2f4(%rip),%rax        # 1c0a8 <g_1078+0x8>
    edb4:	48 89 85 e0 dc ff ff 	mov    %rax,-0x2320(%rbp)
    edbb:	c7 85 3c d9 ff ff 70 	movl   $0xaae9ee70,-0x26c4(%rbp)
    edc2:	ee e9 aa 
    edc5:	c7 85 60 da ff ff eb 	movl   $0xc2527deb,-0x25a0(%rbp)
    edcc:	7d 52 c2 
    edcf:	c7 85 68 da ff ff 00 	movl   $0x0,-0x2598(%rbp)
    edd6:	00 00 00 
    edd9:	66 c7 85 42 d8 ff ff 	movw   $0xd08f,-0x27be(%rbp)
    ede0:	8f d0 
    ede2:	c7 85 40 d9 ff ff 72 	movl   $0x916e6972,-0x26c0(%rbp)
    ede9:	69 6e 91 
    edec:	c7 85 44 d9 ff ff 00 	movl   $0x0,-0x26bc(%rbp)
    edf3:	00 00 00 
    edf6:	c7 85 48 d9 ff ff ff 	movl   $0xffffffff,-0x26b8(%rbp)
    edfd:	ff ff ff 
    ee00:	c7 85 70 da ff ff fd 	movl   $0xfffffffd,-0x2590(%rbp)
    ee07:	ff ff ff 
    ee0a:	c7 85 78 da ff ff ff 	movl   $0xffffffff,-0x2588(%rbp)
    ee11:	ff ff ff 
    ee14:	c7 85 4c d9 ff ff b3 	movl   $0x671b47b3,-0x26b4(%rbp)
    ee1b:	47 1b 67 
    ee1e:	c7 85 50 d9 ff ff 88 	movl   $0x15e6c288,-0x26b0(%rbp)
    ee25:	c2 e6 15 
    ee28:	c7 85 dc d8 ff ff ac 	movl   $0xc2f01fac,-0x2724(%rbp)
    ee2f:	1f f0 c2 
    ee32:	c7 85 e0 d8 ff ff f9 	movl   $0x5aabaaf9,-0x2720(%rbp)
    ee39:	aa ab 5a 
    ee3c:	c7 85 54 d9 ff ff 17 	movl   $0x74b01517,-0x26ac(%rbp)
    ee43:	15 b0 74 
    ee46:	c7 85 58 d9 ff ff 7e 	movl   $0xed77b17e,-0x26a8(%rbp)
    ee4d:	b1 77 ed 
    ee50:	48 8d 85 00 da ff ff 	lea    -0x2600(%rbp),%rax
    ee57:	48 89 85 e8 dc ff ff 	mov    %rax,-0x2318(%rbp)
    ee5e:	c7 85 50 e0 ff ff 07 	movl   $0x7,-0x1fb0(%rbp)
    ee65:	00 00 00 
    ee68:	c7 85 54 e0 ff ff f6 	movl   $0x40a03bf6,-0x1fac(%rbp)
    ee6f:	3b a0 40 
    ee72:	c7 85 58 e0 ff ff 07 	movl   $0x7,-0x1fa8(%rbp)
    ee79:	00 00 00 
    ee7c:	c7 85 5c e0 ff ff 07 	movl   $0x7,-0x1fa4(%rbp)
    ee83:	00 00 00 
    ee86:	c7 85 60 e0 ff ff f6 	movl   $0x40a03bf6,-0x1fa0(%rbp)
    ee8d:	3b a0 40 
    ee90:	c7 85 64 e0 ff ff 07 	movl   $0x7,-0x1f9c(%rbp)
    ee97:	00 00 00 
    ee9a:	c7 85 e4 d8 ff ff 00 	movl   $0x0,-0x271c(%rbp)
    eea1:	00 00 00 
    eea4:	eb 1a                	jmp    eec0 <func_27+0x61a6>
    eea6:	8b 85 e4 d8 ff ff    	mov    -0x271c(%rbp),%eax
    eeac:	48 98                	cltq   
    eeae:	c7 84 85 80 df ff ff 	movl   $0x164dd8c3,-0x2080(%rbp,%rax,4)
    eeb5:	c3 d8 4d 16 
    eeb9:	83 85 e4 d8 ff ff 01 	addl   $0x1,-0x271c(%rbp)
    eec0:	83 bd e4 d8 ff ff 01 	cmpl   $0x1,-0x271c(%rbp)
    eec7:	7e dd                	jle    eea6 <func_27+0x618c>
    eec9:	c7 85 e4 d8 ff ff 00 	movl   $0x0,-0x271c(%rbp)
    eed0:	00 00 00 
    eed3:	eb 1e                	jmp    eef3 <func_27+0x61d9>
    eed5:	8b 85 e4 d8 ff ff    	mov    -0x271c(%rbp),%eax
    eedb:	48 98                	cltq   
    eedd:	48 8d 15 ac d1 00 00 	lea    0xd1ac(%rip),%rdx        # 1c090 <g_1008>
    eee4:	48 89 94 c5 90 e0 ff 	mov    %rdx,-0x1f70(%rbp,%rax,8)
    eeeb:	ff 
    eeec:	83 85 e4 d8 ff ff 01 	addl   $0x1,-0x271c(%rbp)
    eef3:	83 bd e4 d8 ff ff 03 	cmpl   $0x3,-0x271c(%rbp)
    eefa:	7e d9                	jle    eed5 <func_27+0x61bb>
    eefc:	c7 05 4a ac 00 00 ea 	movl   $0xffffffea,0xac4a(%rip)        # 19b50 <g_1194>
    ef03:	ff ff ff 
    ef06:	e9 80 0a 00 00       	jmpq   f98b <func_27+0x6c71>
    ef0b:	c7 85 80 da ff ff 00 	movl   $0x0,-0x2580(%rbp)
    ef12:	00 00 00 
    ef15:	48 8d 85 50 e1 ff ff 	lea    -0x1eb0(%rbp),%rax
    ef1c:	48 83 c0 50          	add    $0x50,%rax
    ef20:	48 89 85 f0 dc ff ff 	mov    %rax,-0x2310(%rbp)
    ef27:	48 c7 85 f8 dc ff ff 	movq   $0x1,-0x2308(%rbp)
    ef2e:	01 00 00 00 
    ef32:	c7 85 60 d9 ff ff 61 	movl   $0x8d683661,-0x26a0(%rbp)
    ef39:	36 68 8d 
    ef3c:	48 8d 05 ad a4 00 00 	lea    0xa4ad(%rip),%rax        # 193f0 <g_714+0x10>
    ef43:	48 89 85 98 da ff ff 	mov    %rax,-0x2568(%rbp)
    ef4a:	48 8d 85 98 da ff ff 	lea    -0x2568(%rbp),%rax
    ef51:	48 89 85 00 dd ff ff 	mov    %rax,-0x2300(%rbp)
    ef58:	c6 85 2d d8 ff ff 01 	movb   $0x1,-0x27d3(%rbp)
    ef5f:	c7 85 64 d9 ff ff 02 	movl   $0xa3f7ce02,-0x269c(%rbp)
    ef66:	ce f7 a3 
    ef69:	48 8d 85 68 da ff ff 	lea    -0x2598(%rbp),%rax
    ef70:	48 89 85 08 dd ff ff 	mov    %rax,-0x22f8(%rbp)
    ef77:	c7 85 68 d9 ff ff ff 	movl   $0xffffffff,-0x2698(%rbp)
    ef7e:	ff ff ff 
    ef81:	c7 85 e8 d8 ff ff 00 	movl   $0x0,-0x2718(%rbp)
    ef88:	00 00 00 
    ef8b:	eb 1a                	jmp    efa7 <func_27+0x628d>
    ef8d:	8b 85 e8 d8 ff ff    	mov    -0x2718(%rbp),%eax
    ef93:	48 98                	cltq   
    ef95:	c7 84 85 b0 df ff ff 	movl   $0x1,-0x2050(%rbp,%rax,4)
    ef9c:	01 00 00 00 
    efa0:	83 85 e8 d8 ff ff 01 	addl   $0x1,-0x2718(%rbp)
    efa7:	83 bd e8 d8 ff ff 01 	cmpl   $0x1,-0x2718(%rbp)
    efae:	7e dd                	jle    ef8d <func_27+0x6273>
    efb0:	48 8b 85 48 dc ff ff 	mov    -0x23b8(%rbp),%rax
    efb7:	8b 00                	mov    (%rax),%eax
    efb9:	35 b6 08 b9 5d       	xor    $0x5db908b6,%eax
    efbe:	89 c2                	mov    %eax,%edx
    efc0:	48 8b 85 48 dc ff ff 	mov    -0x23b8(%rbp),%rax
    efc7:	89 10                	mov    %edx,(%rax)
    efc9:	8b 85 80 da ff ff    	mov    -0x2580(%rbp),%eax
    efcf:	89 c7                	mov    %eax,%edi
    efd1:	e8 c0 65 ff ff       	callq  5596 <safe_unary_minus_func_int32_t_s>
    efd6:	0f b6 c0             	movzbl %al,%eax
    efd9:	be 04 00 00 00       	mov    $0x4,%esi
    efde:	89 c7                	mov    %eax,%edi
    efe0:	e8 d9 6c ff ff       	callq  5cbe <safe_rshift_func_uint8_t_u_u>
    efe5:	0f b6 95 1c d8 ff ff 	movzbl -0x27e4(%rbp),%edx
    efec:	38 d0                	cmp    %dl,%al
    efee:	0f b6 85 1c d8 ff ff 	movzbl -0x27e4(%rbp),%eax
    eff5:	0f b6 c0             	movzbl %al,%eax
    eff8:	be 39 00 00 00       	mov    $0x39,%esi
    effd:	89 c7                	mov    %eax,%edi
    efff:	e8 d7 6b ff ff       	callq  5bdb <safe_div_func_uint8_t_u_u>
    f004:	0f b6 d0             	movzbl %al,%edx
    f007:	48 8b 05 e2 be 00 00 	mov    0xbee2(%rip),%rax        # 1aef0 <g_763>
    f00e:	48 8b 00             	mov    (%rax),%rax
    f011:	48 8d 0d c8 be 00 00 	lea    0xbec8(%rip),%rcx        # 1aee0 <g_765>
    f018:	48 39 c8             	cmp    %rcx,%rax
    f01b:	0f 94 c0             	sete   %al
    f01e:	0f b6 c8             	movzbl %al,%ecx
    f021:	8b 85 80 da ff ff    	mov    -0x2580(%rbp),%eax
    f027:	39 c1                	cmp    %eax,%ecx
    f029:	0f 94 c0             	sete   %al
    f02c:	0f b6 c0             	movzbl %al,%eax
    f02f:	89 d6                	mov    %edx,%esi
    f031:	89 c7                	mov    %eax,%edi
    f033:	e8 86 6d ff ff       	callq  5dbe <safe_lshift_func_uint16_t_u_s>
    f038:	c7 85 e0 f7 ff ff fd 	movl   $0xfffffffd,-0x820(%rbp)
    f03f:	ff ff ff 
    f042:	c7 85 e4 f7 ff ff fd 	movl   $0xfffffffd,-0x81c(%rbp)
    f049:	ff ff ff 
    f04c:	c7 85 e8 f7 ff ff fd 	movl   $0xfffffffd,-0x818(%rbp)
    f053:	ff ff ff 
    f056:	c7 85 ec f7 ff ff fd 	movl   $0xfffffffd,-0x814(%rbp)
    f05d:	ff ff ff 
    f060:	c7 85 f0 f7 ff ff fd 	movl   $0xfffffffd,-0x810(%rbp)
    f067:	ff ff ff 
    f06a:	c7 85 f4 f7 ff ff fd 	movl   $0xfffffffd,-0x80c(%rbp)
    f071:	ff ff ff 
    f074:	c7 85 f8 f7 ff ff fd 	movl   $0xfffffffd,-0x808(%rbp)
    f07b:	ff ff ff 
    f07e:	c7 85 fc f7 ff ff fd 	movl   $0xfffffffd,-0x804(%rbp)
    f085:	ff ff ff 
    f088:	c7 85 00 f8 ff ff fd 	movl   $0xfffffffd,-0x800(%rbp)
    f08f:	ff ff ff 
    f092:	c7 85 04 f8 ff ff 01 	movl   $0x1,-0x7fc(%rbp)
    f099:	00 00 00 
    f09c:	c7 85 08 f8 ff ff 01 	movl   $0x1,-0x7f8(%rbp)
    f0a3:	00 00 00 
    f0a6:	c7 85 0c f8 ff ff 01 	movl   $0x1,-0x7f4(%rbp)
    f0ad:	00 00 00 
    f0b0:	c7 85 10 f8 ff ff 01 	movl   $0x1,-0x7f0(%rbp)
    f0b7:	00 00 00 
    f0ba:	c7 85 14 f8 ff ff 01 	movl   $0x1,-0x7ec(%rbp)
    f0c1:	00 00 00 
    f0c4:	c7 85 18 f8 ff ff 01 	movl   $0x1,-0x7e8(%rbp)
    f0cb:	00 00 00 
    f0ce:	c7 85 1c f8 ff ff 01 	movl   $0x1,-0x7e4(%rbp)
    f0d5:	00 00 00 
    f0d8:	c7 85 20 f8 ff ff 01 	movl   $0x1,-0x7e0(%rbp)
    f0df:	00 00 00 
    f0e2:	c7 85 24 f8 ff ff 01 	movl   $0x1,-0x7dc(%rbp)
    f0e9:	00 00 00 
    f0ec:	48 c7 85 10 dd ff ff 	movq   $0x0,-0x22f0(%rbp)
    f0f3:	00 00 00 00 
    f0f7:	48 8d 85 b0 e6 ff ff 	lea    -0x1950(%rbp),%rax
    f0fe:	48 83 c0 30          	add    $0x30,%rax
    f102:	48 89 85 18 dd ff ff 	mov    %rax,-0x22e8(%rbp)
    f109:	48 c7 85 e0 e0 ff ff 	movq   $0x0,-0x1f20(%rbp)
    f110:	00 00 00 00 
    f114:	48 8d 05 c5 9f 00 00 	lea    0x9fc5(%rip),%rax        # 190e0 <g_195>
    f11b:	48 89 85 e8 e0 ff ff 	mov    %rax,-0x1f18(%rbp)
    f122:	48 c7 85 f0 e0 ff ff 	movq   $0x0,-0x1f10(%rbp)
    f129:	00 00 00 00 
    f12d:	48 c7 85 f8 e0 ff ff 	movq   $0x0,-0x1f08(%rbp)
    f134:	00 00 00 00 
    f138:	48 8d 05 a1 9f 00 00 	lea    0x9fa1(%rip),%rax        # 190e0 <g_195>
    f13f:	48 89 85 00 e1 ff ff 	mov    %rax,-0x1f00(%rbp)
    f146:	48 c7 85 08 e1 ff ff 	movq   $0x0,-0x1ef8(%rbp)
    f14d:	00 00 00 00 
    f151:	48 8d 85 24 d8 ff ff 	lea    -0x27dc(%rbp),%rax
    f158:	48 89 85 20 dd ff ff 	mov    %rax,-0x22e0(%rbp)
    f15f:	c7 85 6c d9 ff ff 05 	movl   $0xe9273e05,-0x2694(%rbp)
    f166:	3e 27 e9 
    f169:	48 8d 05 e8 ce 00 00 	lea    0xcee8(%rip),%rax        # 1c058 <g_454>
    f170:	48 89 85 28 dd ff ff 	mov    %rax,-0x22d8(%rbp)
    f177:	c6 85 2e d8 ff ff e8 	movb   $0xe8,-0x27d2(%rbp)
    f17e:	48 8d 05 0b cf 00 00 	lea    0xcf0b(%rip),%rax        # 1c090 <g_1008>
    f185:	48 89 85 30 dd ff ff 	mov    %rax,-0x22d0(%rbp)
    f18c:	c7 85 70 d9 ff ff 9e 	movl   $0xbe7e6a9e,-0x2690(%rbp)
    f193:	6a 7e be 
    f196:	c7 85 74 d9 ff ff c5 	movl   $0x52502ac5,-0x268c(%rbp)
    f19d:	2a 50 52 
    f1a0:	c7 85 78 d9 ff ff f8 	movl   $0xfffffff8,-0x2688(%rbp)
    f1a7:	ff ff ff 
    f1aa:	c7 85 7c d9 ff ff 5e 	movl   $0x6024235e,-0x2684(%rbp)
    f1b1:	23 24 60 
    f1b4:	c7 85 80 d9 ff ff 00 	movl   $0x0,-0x2680(%rbp)
    f1bb:	00 00 00 
    f1be:	c7 85 84 d9 ff ff b6 	movl   $0x28dd22b6,-0x267c(%rbp)
    f1c5:	22 dd 28 
    f1c8:	c6 85 2f d8 ff ff 01 	movb   $0x1,-0x27d1(%rbp)
    f1cf:	c7 85 ec d8 ff ff 00 	movl   $0x0,-0x2714(%rbp)
    f1d6:	00 00 00 
    f1d9:	eb 1b                	jmp    f1f6 <func_27+0x64dc>
    f1db:	8b 85 ec d8 ff ff    	mov    -0x2714(%rbp),%eax
    f1e1:	48 98                	cltq   
    f1e3:	48 c7 84 c5 60 df ff 	movq   $0x0,-0x20a0(%rbp,%rax,8)
    f1ea:	ff 00 00 00 00 
    f1ef:	83 85 ec d8 ff ff 01 	addl   $0x1,-0x2714(%rbp)
    f1f6:	83 bd ec d8 ff ff 00 	cmpl   $0x0,-0x2714(%rbp)
    f1fd:	7e dc                	jle    f1db <func_27+0x64c1>
    f1ff:	48 8b 85 28 dc ff ff 	mov    -0x23d8(%rbp),%rax
    f206:	48 8b 00             	mov    (%rax),%rax
    f209:	8b 00                	mov    (%rax),%eax
    f20b:	89 85 20 f8 ff ff    	mov    %eax,-0x7e0(%rbp)
    f211:	8b 85 20 f8 ff ff    	mov    -0x7e0(%rbp),%eax
    f217:	0f bf d0             	movswl %ax,%edx
    f21a:	48 8b 05 2f ba 00 00 	mov    0xba2f(%rip),%rax        # 1ac50 <g_278>
    f221:	48 8b 00             	mov    (%rax),%rax
    f224:	0f b7 00             	movzwl (%rax),%eax
    f227:	98                   	cwtl   
    f228:	89 d6                	mov    %edx,%esi
    f22a:	89 c7                	mov    %eax,%edi
    f22c:	e8 a2 61 ff ff       	callq  53d3 <safe_sub_func_int16_t_s_s>
    f231:	89 c2                	mov    %eax,%edx
    f233:	48 8b 05 c6 c0 00 00 	mov    0xc0c6(%rip),%rax        # 1b300 <g_1695>
    f23a:	0f bf d2             	movswl %dx,%edx
    f23d:	89 10                	mov    %edx,(%rax)
    f23f:	8b 9d 70 d8 ff ff    	mov    -0x2790(%rbp),%ebx
    f245:	0f b6 85 1c d8 ff ff 	movzbl -0x27e4(%rbp),%eax
    f24c:	44 0f b6 e0          	movzbl %al,%r12d
    f250:	44 8b ad 80 da ff ff 	mov    -0x2580(%rbp),%r13d
    f257:	8b 85 68 d8 ff ff    	mov    -0x2798(%rbp),%eax
    f25d:	44 0f b6 f0          	movzbl %al,%r14d
    f261:	0f b6 85 1c d8 ff ff 	movzbl -0x27e4(%rbp),%eax
    f268:	44 0f b6 f8          	movzbl %al,%r15d
    f26c:	48 8b 05 9d b9 00 00 	mov    0xb99d(%rip),%rax        # 1ac10 <g_213>
    f273:	48 8b 00             	mov    (%rax),%rax
    f276:	48 89 85 f8 d7 ff ff 	mov    %rax,-0x2808(%rbp)
    f27d:	8b 85 80 da ff ff    	mov    -0x2580(%rbp),%eax
    f283:	0f b6 d0             	movzbl %al,%edx
    f286:	0f b6 85 1c d8 ff ff 	movzbl -0x27e4(%rbp),%eax
    f28d:	0f b6 c8             	movzbl %al,%ecx
    f290:	8b 85 64 d8 ff ff    	mov    -0x279c(%rbp),%eax
    f296:	39 c1                	cmp    %eax,%ecx
    f298:	0f 9f c0             	setg   %al
    f29b:	0f b6 c0             	movzbl %al,%eax
    f29e:	89 85 64 d8 ff ff    	mov    %eax,-0x279c(%rbp)
    f2a4:	8b 85 64 d8 ff ff    	mov    -0x279c(%rbp),%eax
    f2aa:	0f b6 c0             	movzbl %al,%eax
    f2ad:	89 d6                	mov    %edx,%esi
    f2af:	89 c7                	mov    %eax,%edi
    f2b1:	e8 f8 68 ff ff       	callq  5bae <safe_mod_func_uint8_t_u_u>
    f2b6:	84 c0                	test   %al,%al
    f2b8:	0f 95 c0             	setne  %al
    f2bb:	0f b6 c0             	movzbl %al,%eax
    f2be:	be f7 ff ff ff       	mov    $0xfffffff7,%esi
    f2c3:	89 c7                	mov    %eax,%edi
    f2c5:	e8 ec 62 ff ff       	callq  55b6 <safe_add_func_int32_t_s_s>
    f2ca:	85 c0                	test   %eax,%eax
    f2cc:	74 07                	je     f2d5 <func_27+0x65bb>
    f2ce:	ba 01 00 00 00       	mov    $0x1,%edx
    f2d3:	eb 05                	jmp    f2da <func_27+0x65c0>
    f2d5:	ba 00 00 00 00       	mov    $0x0,%edx
    f2da:	0f b6 05 2f a9 00 00 	movzbl 0xa92f(%rip),%eax        # 19c10 <g_1728>
    f2e1:	0f be c0             	movsbl %al,%eax
    f2e4:	39 c2                	cmp    %eax,%edx
    f2e6:	0f 9e c0             	setle  %al
    f2e9:	88 05 f1 9d 00 00    	mov    %al,0x9df1(%rip)        # 190e0 <g_195>
    f2ef:	0f b6 05 ea 9d 00 00 	movzbl 0x9dea(%rip),%eax        # 190e0 <g_195>
    f2f6:	0f b6 d0             	movzbl %al,%edx
    f2f9:	48 8b 85 00 d8 ff ff 	mov    -0x2800(%rbp),%rax
    f300:	0f b6 00             	movzbl (%rax),%eax
    f303:	0f be c0             	movsbl %al,%eax
    f306:	39 c2                	cmp    %eax,%edx
    f308:	8b 85 1c f8 ff ff    	mov    -0x7e4(%rbp),%eax
    f30e:	be a6 18 8e 82       	mov    $0x828e18a6,%esi
    f313:	89 c7                	mov    %eax,%edi
    f315:	e8 e5 63 ff ff       	callq  56ff <safe_div_func_int32_t_s_s>
    f31a:	0f b6 95 1c d8 ff ff 	movzbl -0x27e4(%rbp),%edx
    f321:	0f b6 d2             	movzbl %dl,%edx
    f324:	39 d0                	cmp    %edx,%eax
    f326:	7d 0a                	jge    f332 <func_27+0x6618>
    f328:	8b 85 64 d8 ff ff    	mov    -0x279c(%rbp),%eax
    f32e:	85 c0                	test   %eax,%eax
    f330:	74 07                	je     f339 <func_27+0x661f>
    f332:	ba 01 00 00 00       	mov    $0x1,%edx
    f337:	eb 05                	jmp    f33e <func_27+0x6624>
    f339:	ba 00 00 00 00       	mov    $0x0,%edx
    f33e:	48 8b 85 20 dd ff ff 	mov    -0x22e0(%rbp),%rax
    f345:	0f b6 00             	movzbl (%rax),%eax
    f348:	21 c2                	and    %eax,%edx
    f34a:	48 8b 85 20 dd ff ff 	mov    -0x22e0(%rbp),%rax
    f351:	88 10                	mov    %dl,(%rax)
    f353:	48 8b 85 20 dd ff ff 	mov    -0x22e0(%rbp),%rax
    f35a:	0f b6 00             	movzbl (%rax),%eax
    f35d:	0f be c0             	movsbl %al,%eax
    f360:	be 02 00 00 00       	mov    $0x2,%esi
    f365:	89 c7                	mov    %eax,%edi
    f367:	e8 00 60 ff ff       	callq  536c <safe_rshift_func_int8_t_s_u>
    f36c:	0f be d0             	movsbl %al,%edx
    f36f:	8b 85 0c f8 ff ff    	mov    -0x7f4(%rbp),%eax
    f375:	39 c2                	cmp    %eax,%edx
    f377:	0f 94 c2             	sete   %dl
    f37a:	48 8b 85 e0 d9 ff ff 	mov    -0x2620(%rbp),%rax
    f381:	0f b6 d2             	movzbl %dl,%edx
    f384:	48 89 10             	mov    %rdx,(%rax)
    f387:	48 8b 00             	mov    (%rax),%rax
    f38a:	48 39 85 f8 d7 ff ff 	cmp    %rax,-0x2808(%rbp)
    f391:	0f 94 c0             	sete   %al
    f394:	0f b6 d0             	movzbl %al,%edx
    f397:	8b 85 80 da ff ff    	mov    -0x2580(%rbp),%eax
    f39d:	0f be c0             	movsbl %al,%eax
    f3a0:	89 d6                	mov    %edx,%esi
    f3a2:	89 c7                	mov    %eax,%edi
    f3a4:	e8 49 5e ff ff       	callq  51f2 <safe_sub_func_int8_t_s_s>
    f3a9:	0f be c0             	movsbl %al,%eax
    f3ac:	44 89 fe             	mov    %r15d,%esi
    f3af:	89 c7                	mov    %eax,%edi
    f3b1:	e8 4f 62 ff ff       	callq  5605 <safe_sub_func_int32_t_s_s>
    f3b6:	be 55 59 94 f6       	mov    $0xf6945955,%esi
    f3bb:	89 c7                	mov    %eax,%edi
    f3bd:	e8 43 62 ff ff       	callq  5605 <safe_sub_func_int32_t_s_s>
    f3c2:	48 8b 95 30 e7 ff ff 	mov    -0x18d0(%rbp),%rdx
    f3c9:	48 8b 85 18 dd ff ff 	mov    -0x22e8(%rbp),%rax
    f3d0:	48 89 10             	mov    %rdx,(%rax)
    f3d3:	0f b6 85 1c d8 ff ff 	movzbl -0x27e4(%rbp),%eax
    f3da:	83 c8 01             	or     $0x1,%eax
    f3dd:	0f b6 c0             	movzbl %al,%eax
    f3e0:	44 89 f6             	mov    %r14d,%esi
    f3e3:	89 c7                	mov    %eax,%edi
    f3e5:	e8 8e 67 ff ff       	callq  5b78 <safe_sub_func_uint8_t_u_u>
    f3ea:	0f b6 d0             	movzbl %al,%edx
    f3ed:	8b 85 20 f8 ff ff    	mov    -0x7e0(%rbp),%eax
    f3f3:	39 c2                	cmp    %eax,%edx
    f3f5:	0f 95 c0             	setne  %al
    f3f8:	0f b6 c0             	movzbl %al,%eax
    f3fb:	89 85 68 d8 ff ff    	mov    %eax,-0x2798(%rbp)
    f401:	8b 85 68 d8 ff ff    	mov    -0x2798(%rbp),%eax
    f407:	89 c2                	mov    %eax,%edx
    f409:	48 8b 85 08 d8 ff ff 	mov    -0x27f8(%rbp),%rax
    f410:	88 10                	mov    %dl,(%rax)
    f412:	48 8b 85 08 d8 ff ff 	mov    -0x27f8(%rbp),%rax
    f419:	0f b6 00             	movzbl (%rax),%eax
    f41c:	48 0f be d0          	movsbq %al,%rdx
    f420:	48 8b 85 10 d8 ff ff 	mov    -0x27f0(%rbp),%rax
    f427:	48 39 c2             	cmp    %rax,%rdx
    f42a:	8b 85 80 da ff ff    	mov    -0x2580(%rbp),%eax
    f430:	44 89 ee             	mov    %r13d,%esi
    f433:	89 c7                	mov    %eax,%edi
    f435:	e8 eb 6a ff ff       	callq  5f25 <safe_div_func_uint32_t_u_u>
    f43a:	0f b7 c0             	movzwl %ax,%eax
    f43d:	44 89 e6             	mov    %r12d,%esi
    f440:	89 c7                	mov    %eax,%edi
    f442:	e8 d8 68 ff ff       	callq  5d1f <safe_sub_func_uint16_t_u_u>
    f447:	89 c2                	mov    %eax,%edx
    f449:	48 8b 85 f0 d9 ff ff 	mov    -0x2610(%rbp),%rax
    f450:	66 89 10             	mov    %dx,(%rax)
    f453:	0f b6 85 1c d8 ff ff 	movzbl -0x27e4(%rbp),%eax
    f45a:	0f b6 d0             	movzbl %al,%edx
    f45d:	48 8b 85 10 d8 ff ff 	mov    -0x27f0(%rbp),%rax
    f464:	48 39 c2             	cmp    %rax,%rdx
    f467:	0f 94 c0             	sete   %al
    f46a:	0f b6 c0             	movzbl %al,%eax
    f46d:	21 85 6c d9 ff ff    	and    %eax,-0x2694(%rbp)
    f473:	8b 85 6c d9 ff ff    	mov    -0x2694(%rbp),%eax
    f479:	89 de                	mov    %ebx,%esi
    f47b:	89 c7                	mov    %eax,%edi
    f47d:	e8 83 61 ff ff       	callq  5605 <safe_sub_func_int32_t_s_s>
    f482:	0f b6 c0             	movzbl %al,%eax
    f485:	25 f1 00 00 00       	and    $0xf1,%eax
    f48a:	89 c2                	mov    %eax,%edx
    f48c:	0f b6 85 1c d8 ff ff 	movzbl -0x27e4(%rbp),%eax
    f493:	0f b6 c0             	movzbl %al,%eax
    f496:	89 d6                	mov    %edx,%esi
    f498:	89 c7                	mov    %eax,%edi
    f49a:	e8 d9 66 ff ff       	callq  5b78 <safe_sub_func_uint8_t_u_u>
    f49f:	48 c7 85 e0 dc ff ff 	movq   $0x0,-0x2320(%rbp)
    f4a6:	00 00 00 00 
    f4aa:	48 c7 05 eb 9f 00 00 	movq   $0x0,0x9feb(%rip)        # 194a0 <g_1086>
    f4b1:	00 00 00 00 
    f4b5:	90                   	nop
    f4b6:	48 8b 05 e3 9f 00 00 	mov    0x9fe3(%rip),%rax        # 194a0 <g_1086>
    f4bd:	48 83 f8 f7          	cmp    $0xfffffffffffffff7,%rax
    f4c1:	0f 8c 5d 02 00 00    	jl     f724 <func_27+0x6a0a>
    f4c7:	48 8d 85 60 df ff ff 	lea    -0x20a0(%rbp),%rax
    f4ce:	48 89 85 58 dd ff ff 	mov    %rax,-0x22a8(%rbp)
    f4d5:	48 c7 85 60 dd ff ff 	movq   $0x0,-0x22a0(%rbp)
    f4dc:	00 00 00 00 
    f4e0:	48 b8 6b 8d 00 4e c1 	movabs $0xe79618c14e008d6b,%rax
    f4e7:	18 96 e7 
    f4ea:	48 89 85 68 dd ff ff 	mov    %rax,-0x2298(%rbp)
    f4f1:	c7 85 9c d9 ff ff 00 	movl   $0x0,-0x2664(%rbp)
    f4f8:	00 00 00 
    f4fb:	c7 85 88 da ff ff ff 	movl   $0xffffffff,-0x2578(%rbp)
    f502:	ff ff ff 
    f505:	c7 85 a0 da ff ff 71 	movl   $0x346c4371,-0x2560(%rbp)
    f50c:	43 6c 34 
    f50f:	48 c7 85 70 dd ff ff 	movq   $0x0,-0x2290(%rbp)
    f516:	00 00 00 00 
    f51a:	48 8d 05 27 cb 00 00 	lea    0xcb27(%rip),%rax        # 1c048 <g_53>
    f521:	48 89 85 78 dd ff ff 	mov    %rax,-0x2288(%rbp)
    f528:	48 8d 85 88 da ff ff 	lea    -0x2578(%rbp),%rax
    f52f:	48 89 85 80 dd ff ff 	mov    %rax,-0x2280(%rbp)
    f536:	48 8d 05 e3 9b 00 00 	lea    0x9be3(%rip),%rax        # 19120 <g_371>
    f53d:	48 89 85 88 dd ff ff 	mov    %rax,-0x2278(%rbp)
    f544:	48 8d 05 0d 9f 00 00 	lea    0x9f0d(%rip),%rax        # 19458 <g_929>
    f54b:	48 89 85 90 dd ff ff 	mov    %rax,-0x2270(%rbp)
    f552:	48 c7 85 98 dd ff ff 	movq   $0x0,-0x2268(%rbp)
    f559:	00 00 00 00 
    f55d:	48 8d 85 f0 de ff ff 	lea    -0x2110(%rbp),%rax
    f564:	48 89 85 a0 dd ff ff 	mov    %rax,-0x2260(%rbp)
    f56b:	48 8d 85 b0 df ff ff 	lea    -0x2050(%rbp),%rax
    f572:	48 83 c0 04          	add    $0x4,%rax
    f576:	48 89 85 a8 dd ff ff 	mov    %rax,-0x2258(%rbp)
    f57d:	48 8d 85 a0 da ff ff 	lea    -0x2560(%rbp),%rax
    f584:	48 89 85 b0 dd ff ff 	mov    %rax,-0x2250(%rbp)
    f58b:	48 8d 85 70 d8 ff ff 	lea    -0x2790(%rbp),%rax
    f592:	48 89 85 b8 dd ff ff 	mov    %rax,-0x2248(%rbp)
    f599:	48 8d 85 ec de ff ff 	lea    -0x2114(%rbp),%rax
    f5a0:	48 89 85 c0 dd ff ff 	mov    %rax,-0x2240(%rbp)
    f5a7:	48 8d 85 4c d8 ff ff 	lea    -0x27b4(%rbp),%rax
    f5ae:	48 89 85 c8 dd ff ff 	mov    %rax,-0x2238(%rbp)
    f5b5:	48 8d 85 68 d8 ff ff 	lea    -0x2798(%rbp),%rax
    f5bc:	48 89 85 d0 dd ff ff 	mov    %rax,-0x2230(%rbp)
    f5c3:	48 8d 85 a0 da ff ff 	lea    -0x2560(%rbp),%rax
    f5ca:	48 89 85 50 e2 ff ff 	mov    %rax,-0x1db0(%rbp)
    f5d1:	48 8d 85 a0 da ff ff 	lea    -0x2560(%rbp),%rax
    f5d8:	48 89 85 58 e2 ff ff 	mov    %rax,-0x1da8(%rbp)
    f5df:	48 8d 85 a0 da ff ff 	lea    -0x2560(%rbp),%rax
    f5e6:	48 89 85 60 e2 ff ff 	mov    %rax,-0x1da0(%rbp)
    f5ed:	48 8d 85 a0 da ff ff 	lea    -0x2560(%rbp),%rax
    f5f4:	48 89 85 68 e2 ff ff 	mov    %rax,-0x1d98(%rbp)
    f5fb:	48 8d 85 a0 da ff ff 	lea    -0x2560(%rbp),%rax
    f602:	48 89 85 70 e2 ff ff 	mov    %rax,-0x1d90(%rbp)
    f609:	48 8d 85 a0 da ff ff 	lea    -0x2560(%rbp),%rax
    f610:	48 89 85 78 e2 ff ff 	mov    %rax,-0x1d88(%rbp)
    f617:	48 8d 85 a0 da ff ff 	lea    -0x2560(%rbp),%rax
    f61e:	48 89 85 80 e2 ff ff 	mov    %rax,-0x1d80(%rbp)
    f625:	48 8d 85 a0 da ff ff 	lea    -0x2560(%rbp),%rax
    f62c:	48 89 85 88 e2 ff ff 	mov    %rax,-0x1d78(%rbp)
    f633:	48 8b 85 10 d8 ff ff 	mov    -0x27f0(%rbp),%rax
    f63a:	89 c3                	mov    %eax,%ebx
    f63c:	48 8b 85 08 d8 ff ff 	mov    -0x27f8(%rbp),%rax
    f643:	c6 00 80             	movb   $0x80,(%rax)
    f646:	8b 85 00 f8 ff ff    	mov    -0x800(%rbp),%eax
    f64c:	41 89 c4             	mov    %eax,%r12d
    f64f:	48 8b 85 68 dd ff ff 	mov    -0x2298(%rbp),%rax
    f656:	41 89 c5             	mov    %eax,%r13d
    f659:	48 8b 85 28 dc ff ff 	mov    -0x23d8(%rbp),%rax
    f660:	48 8b 00             	mov    (%rax),%rax
    f663:	8b 00                	mov    (%rax),%eax
    f665:	89 c2                	mov    %eax,%edx
    f667:	48 8d 05 ea c9 00 00 	lea    0xc9ea(%rip),%rax        # 1c058 <g_454>
    f66e:	48 89 85 28 dd ff ff 	mov    %rax,-0x22d8(%rbp)
    f675:	89 d6                	mov    %edx,%esi
    f677:	bf 00 00 00 00       	mov    $0x0,%edi
    f67c:	e8 4f 68 ff ff       	callq  5ed0 <safe_sub_func_uint32_t_u_u>
    f681:	8b 85 20 f8 ff ff    	mov    -0x7e0(%rbp),%eax
    f687:	66 25 79 d5          	and    $0xd579,%ax
    f68b:	98                   	cwtl   
    f68c:	be 07 00 00 00       	mov    $0x7,%esi
    f691:	89 c7                	mov    %eax,%edi
    f693:	e8 92 5e ff ff       	callq  552a <safe_rshift_func_int16_t_s_s>
    f698:	89 c2                	mov    %eax,%edx
    f69a:	48 8b 05 af b5 00 00 	mov    0xb5af(%rip),%rax        # 1ac50 <g_278>
    f6a1:	48 8b 00             	mov    (%rax),%rax
    f6a4:	0f b7 00             	movzwl (%rax),%eax
    f6a7:	31 d0                	xor    %edx,%eax
    f6a9:	0f b6 c0             	movzbl %al,%eax
    f6ac:	44 89 ee             	mov    %r13d,%esi
    f6af:	89 c7                	mov    %eax,%edi
    f6b1:	e8 08 66 ff ff       	callq  5cbe <safe_rshift_func_uint8_t_u_u>
    f6b6:	8b 05 bc 99 00 00    	mov    0x99bc(%rip),%eax        # 19078 <g_108>
    f6bc:	89 c0                	mov    %eax,%eax
    f6be:	4c 89 e6             	mov    %r12,%rsi
    f6c1:	48 89 c7             	mov    %rax,%rdi
    f6c4:	e8 65 69 ff ff       	callq  602e <safe_add_func_uint64_t_u_u>
    f6c9:	48 85 c0             	test   %rax,%rax
    f6cc:	74 07                	je     f6d5 <func_27+0x69bb>
    f6ce:	b8 01 00 00 00       	mov    $0x1,%eax
    f6d3:	eb 05                	jmp    f6da <func_27+0x69c0>
    f6d5:	b8 00 00 00 00       	mov    $0x0,%eax
    f6da:	0f bf d0             	movswl %ax,%edx
    f6dd:	48 8b 8d 60 df ff ff 	mov    -0x20a0(%rbp),%rcx
    f6e4:	48 8b 85 58 dd ff ff 	mov    -0x22a8(%rbp),%rax
    f6eb:	48 89 08             	mov    %rcx,(%rax)
    f6ee:	48 8b 85 58 dd ff ff 	mov    -0x22a8(%rbp),%rax
    f6f5:	48 8b 00             	mov    (%rax),%rax
    f6f8:	48 39 85 f0 dc ff ff 	cmp    %rax,-0x2310(%rbp)
    f6ff:	0f 95 c0             	setne  %al
    f702:	0f b6 c0             	movzbl %al,%eax
    f705:	89 d6                	mov    %edx,%esi
    f707:	89 c7                	mov    %eax,%edi
    f709:	e8 e7 5c ff ff       	callq  53f5 <safe_mul_func_int16_t_s_s>
    f70e:	98                   	cwtl   
    f70f:	89 de                	mov    %ebx,%esi
    f711:	89 c7                	mov    %eax,%edi
    f713:	e8 b8 67 ff ff       	callq  5ed0 <safe_sub_func_uint32_t_u_u>
    f718:	48 8b 85 10 d8 ff ff 	mov    -0x27f0(%rbp),%rax
    f71f:	e9 ee 13 00 00       	jmpq   10b12 <func_27+0x7df8>
    f724:	80 bd 2f d8 ff ff 00 	cmpb   $0x0,-0x27d1(%rbp)
    f72b:	0f 85 4b 02 00 00    	jne    f97c <func_27+0x6c62>
    f731:	c7 85 c4 d8 ff ff e6 	movl   $0xffffffe6,-0x273c(%rbp)
    f738:	ff ff ff 
    f73b:	e9 2f 02 00 00       	jmpq   f96f <func_27+0x6c55>
    f740:	48 8d 85 d0 d9 ff ff 	lea    -0x2630(%rbp),%rax
    f747:	48 89 85 38 dd ff ff 	mov    %rax,-0x22c8(%rbp)
    f74e:	48 c7 85 40 dd ff ff 	movq   $0x1,-0x22c0(%rbp)
    f755:	01 00 00 00 
    f759:	48 8d 85 80 df ff ff 	lea    -0x2080(%rbp),%rax
    f760:	48 83 c0 04          	add    $0x4,%rax
    f764:	48 89 85 50 e2 ff ff 	mov    %rax,-0x1db0(%rbp)
    f76b:	48 8d 85 80 df ff ff 	lea    -0x2080(%rbp),%rax
    f772:	48 83 c0 04          	add    $0x4,%rax
    f776:	48 89 85 58 e2 ff ff 	mov    %rax,-0x1da8(%rbp)
    f77d:	48 8d 85 80 da ff ff 	lea    -0x2580(%rbp),%rax
    f784:	48 89 85 60 e2 ff ff 	mov    %rax,-0x1da0(%rbp)
    f78b:	48 8d 85 80 df ff ff 	lea    -0x2080(%rbp),%rax
    f792:	48 83 c0 04          	add    $0x4,%rax
    f796:	48 89 85 68 e2 ff ff 	mov    %rax,-0x1d98(%rbp)
    f79d:	48 8d 85 80 df ff ff 	lea    -0x2080(%rbp),%rax
    f7a4:	48 83 c0 04          	add    $0x4,%rax
    f7a8:	48 89 85 70 e2 ff ff 	mov    %rax,-0x1d90(%rbp)
    f7af:	48 8d 85 80 da ff ff 	lea    -0x2580(%rbp),%rax
    f7b6:	48 89 85 78 e2 ff ff 	mov    %rax,-0x1d88(%rbp)
    f7bd:	48 8d 85 80 df ff ff 	lea    -0x2080(%rbp),%rax
    f7c4:	48 83 c0 04          	add    $0x4,%rax
    f7c8:	48 89 85 80 e2 ff ff 	mov    %rax,-0x1d80(%rbp)
    f7cf:	48 8d 85 80 df ff ff 	lea    -0x2080(%rbp),%rax
    f7d6:	48 83 c0 04          	add    $0x4,%rax
    f7da:	48 89 85 88 e2 ff ff 	mov    %rax,-0x1d78(%rbp)
    f7e1:	48 8d 85 80 da ff ff 	lea    -0x2580(%rbp),%rax
    f7e8:	48 89 85 90 e2 ff ff 	mov    %rax,-0x1d70(%rbp)
    f7ef:	48 8d 85 80 df ff ff 	lea    -0x2080(%rbp),%rax
    f7f6:	48 83 c0 04          	add    $0x4,%rax
    f7fa:	48 89 85 98 e2 ff ff 	mov    %rax,-0x1d68(%rbp)
    f801:	48 8d 85 80 df ff ff 	lea    -0x2080(%rbp),%rax
    f808:	48 83 c0 04          	add    $0x4,%rax
    f80c:	48 89 85 a0 e2 ff ff 	mov    %rax,-0x1d60(%rbp)
    f813:	48 8d 85 80 da ff ff 	lea    -0x2580(%rbp),%rax
    f81a:	48 89 85 a8 e2 ff ff 	mov    %rax,-0x1d58(%rbp)
    f821:	48 8d 85 80 df ff ff 	lea    -0x2080(%rbp),%rax
    f828:	48 83 c0 04          	add    $0x4,%rax
    f82c:	48 89 85 b0 e2 ff ff 	mov    %rax,-0x1d50(%rbp)
    f833:	48 8d 85 80 df ff ff 	lea    -0x2080(%rbp),%rax
    f83a:	48 83 c0 04          	add    $0x4,%rax
    f83e:	48 89 85 b8 e2 ff ff 	mov    %rax,-0x1d48(%rbp)
    f845:	48 8d 85 80 da ff ff 	lea    -0x2580(%rbp),%rax
    f84c:	48 89 85 c0 e2 ff ff 	mov    %rax,-0x1d40(%rbp)
    f853:	48 8d 85 80 df ff ff 	lea    -0x2080(%rbp),%rax
    f85a:	48 83 c0 04          	add    $0x4,%rax
    f85e:	48 89 85 c8 e2 ff ff 	mov    %rax,-0x1d38(%rbp)
    f865:	48 8d 85 80 df ff ff 	lea    -0x2080(%rbp),%rax
    f86c:	48 83 c0 04          	add    $0x4,%rax
    f870:	48 89 85 d0 e2 ff ff 	mov    %rax,-0x1d30(%rbp)
    f877:	48 8d 85 80 da ff ff 	lea    -0x2580(%rbp),%rax
    f87e:	48 89 85 d8 e2 ff ff 	mov    %rax,-0x1d28(%rbp)
    f885:	c7 85 88 d9 ff ff 01 	movl   $0x1,-0x2678(%rbp)
    f88c:	00 00 00 
    f88f:	c7 85 e0 e0 ff ff 9f 	movl   $0x765d919f,-0x1f20(%rbp)
    f896:	91 5d 76 
    f899:	c7 85 e4 e0 ff ff 9f 	movl   $0x765d919f,-0x1f1c(%rbp)
    f8a0:	91 5d 76 
    f8a3:	c7 85 e8 e0 ff ff 00 	movl   $0x0,-0x1f18(%rbp)
    f8aa:	00 00 00 
    f8ad:	c7 85 ec e0 ff ff 9f 	movl   $0x765d919f,-0x1f14(%rbp)
    f8b4:	91 5d 76 
    f8b7:	c7 85 f0 e0 ff ff 9f 	movl   $0x765d919f,-0x1f10(%rbp)
    f8be:	91 5d 76 
    f8c1:	c7 85 f4 e0 ff ff 00 	movl   $0x0,-0x1f0c(%rbp)
    f8c8:	00 00 00 
    f8cb:	c7 85 f8 e0 ff ff 00 	movl   $0x0,-0x1f08(%rbp)
    f8d2:	00 00 00 
    f8d5:	c7 85 fc e0 ff ff 9f 	movl   $0x765d919f,-0x1f04(%rbp)
    f8dc:	91 5d 76 
    f8df:	66 c7 85 44 d8 ff ff 	movw   $0x17f2,-0x27bc(%rbp)
    f8e6:	f2 17 
    f8e8:	48 8d 05 19 a3 00 00 	lea    0xa319(%rip),%rax        # 19c08 <g_1680>
    f8ef:	48 89 85 a0 da ff ff 	mov    %rax,-0x2560(%rbp)
    f8f6:	48 8d 85 a0 da ff ff 	lea    -0x2560(%rbp),%rax
    f8fd:	48 89 85 48 dd ff ff 	mov    %rax,-0x22b8(%rbp)
    f904:	c7 85 8c d9 ff ff f9 	movl   $0xfffffff9,-0x2674(%rbp)
    f90b:	ff ff ff 
    f90e:	c7 85 90 d9 ff ff 8b 	movl   $0x651218b,-0x2670(%rbp)
    f915:	21 51 06 
    f918:	c7 85 94 d9 ff ff f5 	movl   $0x623b7bf5,-0x266c(%rbp)
    f91f:	7b 3b 62 
    f922:	48 8d 85 e0 f7 ff ff 	lea    -0x820(%rbp),%rax
    f929:	48 8d 15 f0 55 00 00 	lea    0x55f0(%rip),%rdx        # 14f20 <g_2569+0xeb6>
    f930:	b9 3f 00 00 00       	mov    $0x3f,%ecx
    f935:	48 89 c7             	mov    %rax,%rdi
    f938:	48 89 d6             	mov    %rdx,%rsi
    f93b:	f3 48 a5             	rep movsq %ds:(%rsi),%es:(%rdi)
    f93e:	48 8d 05 9b 97 00 00 	lea    0x979b(%rip),%rax        # 190e0 <g_195>
    f945:	48 89 85 50 dd ff ff 	mov    %rax,-0x22b0(%rbp)
    f94c:	c7 85 98 d9 ff ff 01 	movl   $0x1,-0x2668(%rbp)
    f953:	00 00 00 
    f956:	8b 85 c4 d8 ff ff    	mov    -0x273c(%rbp),%eax
    f95c:	be 02 00 00 00       	mov    $0x2,%esi
    f961:	48 89 c7             	mov    %rax,%rdi
    f964:	e8 c5 66 ff ff       	callq  602e <safe_add_func_uint64_t_u_u>
    f969:	89 85 c4 d8 ff ff    	mov    %eax,-0x273c(%rbp)
    f96f:	83 bd c4 d8 ff ff 27 	cmpl   $0x27,-0x273c(%rbp)
    f976:	0f 86 c4 fd ff ff    	jbe    f740 <func_27+0x6a26>
    f97c:	8b 05 ce a1 00 00    	mov    0xa1ce(%rip),%eax        # 19b50 <g_1194>
    f982:	83 e8 01             	sub    $0x1,%eax
    f985:	89 05 c5 a1 00 00    	mov    %eax,0xa1c5(%rip)        # 19b50 <g_1194>
    f98b:	8b 05 bf a1 00 00    	mov    0xa1bf(%rip),%eax        # 19b50 <g_1194>
    f991:	83 f8 e3             	cmp    $0xffffffe3,%eax
    f994:	0f 8d 71 f5 ff ff    	jge    ef0b <func_27+0x61f1>
    f99a:	c7 85 e0 d8 ff ff 00 	movl   $0x0,-0x2720(%rbp)
    f9a1:	00 00 00 
    f9a4:	e9 e5 0c 00 00       	jmpq   1068e <func_27+0x7974>
    f9a9:	48 c7 85 e0 f7 ff ff 	movq   $0x0,-0x820(%rbp)
    f9b0:	00 00 00 00 
    f9b4:	48 8d 05 5d 97 00 00 	lea    0x975d(%rip),%rax        # 19118 <g_343>
    f9bb:	48 89 85 e8 f7 ff ff 	mov    %rax,-0x818(%rbp)
    f9c2:	48 c7 85 f0 f7 ff ff 	movq   $0x0,-0x810(%rbp)
    f9c9:	00 00 00 00 
    f9cd:	48 8d 05 74 9a 00 00 	lea    0x9a74(%rip),%rax        # 19448 <g_840>
    f9d4:	48 89 85 f8 f7 ff ff 	mov    %rax,-0x808(%rbp)
    f9db:	48 c7 85 00 f8 ff ff 	movq   $0x0,-0x800(%rbp)
    f9e2:	00 00 00 00 
    f9e6:	48 8d 05 73 9a 00 00 	lea    0x9a73(%rip),%rax        # 19460 <g_962>
    f9ed:	48 89 85 08 f8 ff ff 	mov    %rax,-0x7f8(%rbp)
    f9f4:	48 8d 05 f5 99 00 00 	lea    0x99f5(%rip),%rax        # 193f0 <g_714+0x10>
    f9fb:	48 89 85 10 f8 ff ff 	mov    %rax,-0x7f0(%rbp)
    fa02:	48 8d 85 68 d8 ff ff 	lea    -0x2798(%rbp),%rax
    fa09:	48 89 85 18 f8 ff ff 	mov    %rax,-0x7e8(%rbp)
    fa10:	48 8d 85 68 d8 ff ff 	lea    -0x2798(%rbp),%rax
    fa17:	48 89 85 20 f8 ff ff 	mov    %rax,-0x7e0(%rbp)
    fa1e:	48 8d 05 cb 99 00 00 	lea    0x99cb(%rip),%rax        # 193f0 <g_714+0x10>
    fa25:	48 89 85 28 f8 ff ff 	mov    %rax,-0x7d8(%rbp)
    fa2c:	48 c7 85 30 f8 ff ff 	movq   $0x0,-0x7d0(%rbp)
    fa33:	00 00 00 00 
    fa37:	48 8d 05 da 96 00 00 	lea    0x96da(%rip),%rax        # 19118 <g_343>
    fa3e:	48 89 85 38 f8 ff ff 	mov    %rax,-0x7c8(%rbp)
    fa45:	48 c7 85 40 f8 ff ff 	movq   $0x0,-0x7c0(%rbp)
    fa4c:	00 00 00 00 
    fa50:	48 8d 05 f1 99 00 00 	lea    0x99f1(%rip),%rax        # 19448 <g_840>
    fa57:	48 89 85 48 f8 ff ff 	mov    %rax,-0x7b8(%rbp)
    fa5e:	48 c7 85 50 f8 ff ff 	movq   $0x0,-0x7b0(%rbp)
    fa65:	00 00 00 00 
    fa69:	48 8d 05 f0 99 00 00 	lea    0x99f0(%rip),%rax        # 19460 <g_962>
    fa70:	48 89 85 58 f8 ff ff 	mov    %rax,-0x7a8(%rbp)
    fa77:	48 8d 05 72 99 00 00 	lea    0x9972(%rip),%rax        # 193f0 <g_714+0x10>
    fa7e:	48 89 85 60 f8 ff ff 	mov    %rax,-0x7a0(%rbp)
    fa85:	48 8d 85 68 d8 ff ff 	lea    -0x2798(%rbp),%rax
    fa8c:	48 89 85 68 f8 ff ff 	mov    %rax,-0x798(%rbp)
    fa93:	48 8d 85 68 d8 ff ff 	lea    -0x2798(%rbp),%rax
    fa9a:	48 89 85 70 f8 ff ff 	mov    %rax,-0x790(%rbp)
    faa1:	48 8d 05 48 99 00 00 	lea    0x9948(%rip),%rax        # 193f0 <g_714+0x10>
    faa8:	48 89 85 78 f8 ff ff 	mov    %rax,-0x788(%rbp)
    faaf:	48 c7 85 80 f8 ff ff 	movq   $0x0,-0x780(%rbp)
    fab6:	00 00 00 00 
    faba:	48 8d 05 57 96 00 00 	lea    0x9657(%rip),%rax        # 19118 <g_343>
    fac1:	48 89 85 88 f8 ff ff 	mov    %rax,-0x778(%rbp)
    fac8:	48 c7 85 90 f8 ff ff 	movq   $0x0,-0x770(%rbp)
    facf:	00 00 00 00 
    fad3:	48 8d 05 6e 99 00 00 	lea    0x996e(%rip),%rax        # 19448 <g_840>
    fada:	48 89 85 98 f8 ff ff 	mov    %rax,-0x768(%rbp)
    fae1:	48 c7 85 a0 f8 ff ff 	movq   $0x0,-0x760(%rbp)
    fae8:	00 00 00 00 
    faec:	48 8d 05 6d 99 00 00 	lea    0x996d(%rip),%rax        # 19460 <g_962>
    faf3:	48 89 85 a8 f8 ff ff 	mov    %rax,-0x758(%rbp)
    fafa:	48 8d 05 ef 98 00 00 	lea    0x98ef(%rip),%rax        # 193f0 <g_714+0x10>
    fb01:	48 89 85 b0 f8 ff ff 	mov    %rax,-0x750(%rbp)
    fb08:	48 8d 85 68 d8 ff ff 	lea    -0x2798(%rbp),%rax
    fb0f:	48 89 85 b8 f8 ff ff 	mov    %rax,-0x748(%rbp)
    fb16:	48 8d 85 68 d8 ff ff 	lea    -0x2798(%rbp),%rax
    fb1d:	48 89 85 c0 f8 ff ff 	mov    %rax,-0x740(%rbp)
    fb24:	48 8d 05 c5 98 00 00 	lea    0x98c5(%rip),%rax        # 193f0 <g_714+0x10>
    fb2b:	48 89 85 c8 f8 ff ff 	mov    %rax,-0x738(%rbp)
    fb32:	48 c7 85 d0 f8 ff ff 	movq   $0x0,-0x730(%rbp)
    fb39:	00 00 00 00 
    fb3d:	48 8d 05 d4 95 00 00 	lea    0x95d4(%rip),%rax        # 19118 <g_343>
    fb44:	48 89 85 d8 f8 ff ff 	mov    %rax,-0x728(%rbp)
    fb4b:	48 c7 85 e0 f8 ff ff 	movq   $0x0,-0x720(%rbp)
    fb52:	00 00 00 00 
    fb56:	48 8d 05 eb 98 00 00 	lea    0x98eb(%rip),%rax        # 19448 <g_840>
    fb5d:	48 89 85 e8 f8 ff ff 	mov    %rax,-0x718(%rbp)
    fb64:	48 c7 85 f0 f8 ff ff 	movq   $0x0,-0x710(%rbp)
    fb6b:	00 00 00 00 
    fb6f:	48 8d 05 ea 98 00 00 	lea    0x98ea(%rip),%rax        # 19460 <g_962>
    fb76:	48 89 85 f8 f8 ff ff 	mov    %rax,-0x708(%rbp)
    fb7d:	48 8d 05 6c 98 00 00 	lea    0x986c(%rip),%rax        # 193f0 <g_714+0x10>
    fb84:	48 89 85 00 f9 ff ff 	mov    %rax,-0x700(%rbp)
    fb8b:	48 8d 85 68 d8 ff ff 	lea    -0x2798(%rbp),%rax
    fb92:	48 89 85 08 f9 ff ff 	mov    %rax,-0x6f8(%rbp)
    fb99:	48 8d 85 68 d8 ff ff 	lea    -0x2798(%rbp),%rax
    fba0:	48 89 85 10 f9 ff ff 	mov    %rax,-0x6f0(%rbp)
    fba7:	48 8d 05 42 98 00 00 	lea    0x9842(%rip),%rax        # 193f0 <g_714+0x10>
    fbae:	48 89 85 18 f9 ff ff 	mov    %rax,-0x6e8(%rbp)
    fbb5:	48 c7 85 20 f9 ff ff 	movq   $0x0,-0x6e0(%rbp)
    fbbc:	00 00 00 00 
    fbc0:	48 8d 05 51 95 00 00 	lea    0x9551(%rip),%rax        # 19118 <g_343>
    fbc7:	48 89 85 28 f9 ff ff 	mov    %rax,-0x6d8(%rbp)
    fbce:	48 c7 85 30 f9 ff ff 	movq   $0x0,-0x6d0(%rbp)
    fbd5:	00 00 00 00 
    fbd9:	48 8d 05 68 98 00 00 	lea    0x9868(%rip),%rax        # 19448 <g_840>
    fbe0:	48 89 85 38 f9 ff ff 	mov    %rax,-0x6c8(%rbp)
    fbe7:	48 c7 85 40 f9 ff ff 	movq   $0x0,-0x6c0(%rbp)
    fbee:	00 00 00 00 
    fbf2:	48 8d 05 67 98 00 00 	lea    0x9867(%rip),%rax        # 19460 <g_962>
    fbf9:	48 89 85 48 f9 ff ff 	mov    %rax,-0x6b8(%rbp)
    fc00:	48 8d 05 e9 97 00 00 	lea    0x97e9(%rip),%rax        # 193f0 <g_714+0x10>
    fc07:	48 89 85 50 f9 ff ff 	mov    %rax,-0x6b0(%rbp)
    fc0e:	48 8d 85 68 d8 ff ff 	lea    -0x2798(%rbp),%rax
    fc15:	48 89 85 58 f9 ff ff 	mov    %rax,-0x6a8(%rbp)
    fc1c:	48 8d 85 68 d8 ff ff 	lea    -0x2798(%rbp),%rax
    fc23:	48 89 85 60 f9 ff ff 	mov    %rax,-0x6a0(%rbp)
    fc2a:	48 8d 05 bf 97 00 00 	lea    0x97bf(%rip),%rax        # 193f0 <g_714+0x10>
    fc31:	48 89 85 68 f9 ff ff 	mov    %rax,-0x698(%rbp)
    fc38:	48 c7 85 70 f9 ff ff 	movq   $0x0,-0x690(%rbp)
    fc3f:	00 00 00 00 
    fc43:	48 8d 05 ce 94 00 00 	lea    0x94ce(%rip),%rax        # 19118 <g_343>
    fc4a:	48 89 85 78 f9 ff ff 	mov    %rax,-0x688(%rbp)
    fc51:	48 c7 85 80 f9 ff ff 	movq   $0x0,-0x680(%rbp)
    fc58:	00 00 00 00 
    fc5c:	48 8d 05 e5 97 00 00 	lea    0x97e5(%rip),%rax        # 19448 <g_840>
    fc63:	48 89 85 88 f9 ff ff 	mov    %rax,-0x678(%rbp)
    fc6a:	48 c7 85 90 f9 ff ff 	movq   $0x0,-0x670(%rbp)
    fc71:	00 00 00 00 
    fc75:	48 8d 05 e4 97 00 00 	lea    0x97e4(%rip),%rax        # 19460 <g_962>
    fc7c:	48 89 85 98 f9 ff ff 	mov    %rax,-0x668(%rbp)
    fc83:	48 8d 05 66 97 00 00 	lea    0x9766(%rip),%rax        # 193f0 <g_714+0x10>
    fc8a:	48 89 85 a0 f9 ff ff 	mov    %rax,-0x660(%rbp)
    fc91:	48 8d 85 68 d8 ff ff 	lea    -0x2798(%rbp),%rax
    fc98:	48 89 85 a8 f9 ff ff 	mov    %rax,-0x658(%rbp)
    fc9f:	48 8d 85 68 d8 ff ff 	lea    -0x2798(%rbp),%rax
    fca6:	48 89 85 b0 f9 ff ff 	mov    %rax,-0x650(%rbp)
    fcad:	48 8d 05 3c 97 00 00 	lea    0x973c(%rip),%rax        # 193f0 <g_714+0x10>
    fcb4:	48 89 85 b8 f9 ff ff 	mov    %rax,-0x648(%rbp)
    fcbb:	48 c7 85 c0 f9 ff ff 	movq   $0x0,-0x640(%rbp)
    fcc2:	00 00 00 00 
    fcc6:	48 8d 05 4b 94 00 00 	lea    0x944b(%rip),%rax        # 19118 <g_343>
    fccd:	48 89 85 c8 f9 ff ff 	mov    %rax,-0x638(%rbp)
    fcd4:	48 c7 85 d0 f9 ff ff 	movq   $0x0,-0x630(%rbp)
    fcdb:	00 00 00 00 
    fcdf:	48 8d 05 62 97 00 00 	lea    0x9762(%rip),%rax        # 19448 <g_840>
    fce6:	48 89 85 d8 f9 ff ff 	mov    %rax,-0x628(%rbp)
    fced:	48 c7 85 e0 f9 ff ff 	movq   $0x0,-0x620(%rbp)
    fcf4:	00 00 00 00 
    fcf8:	48 8d 05 61 97 00 00 	lea    0x9761(%rip),%rax        # 19460 <g_962>
    fcff:	48 89 85 e8 f9 ff ff 	mov    %rax,-0x618(%rbp)
    fd06:	48 8d 05 e3 96 00 00 	lea    0x96e3(%rip),%rax        # 193f0 <g_714+0x10>
    fd0d:	48 89 85 f0 f9 ff ff 	mov    %rax,-0x610(%rbp)
    fd14:	48 8d 85 68 d8 ff ff 	lea    -0x2798(%rbp),%rax
    fd1b:	48 89 85 f8 f9 ff ff 	mov    %rax,-0x608(%rbp)
    fd22:	48 8d 85 68 d8 ff ff 	lea    -0x2798(%rbp),%rax
    fd29:	48 89 85 00 fa ff ff 	mov    %rax,-0x600(%rbp)
    fd30:	48 8d 05 b9 96 00 00 	lea    0x96b9(%rip),%rax        # 193f0 <g_714+0x10>
    fd37:	48 89 85 08 fa ff ff 	mov    %rax,-0x5f8(%rbp)
    fd3e:	48 c7 85 10 fa ff ff 	movq   $0x0,-0x5f0(%rbp)
    fd45:	00 00 00 00 
    fd49:	48 8d 05 c8 93 00 00 	lea    0x93c8(%rip),%rax        # 19118 <g_343>
    fd50:	48 89 85 18 fa ff ff 	mov    %rax,-0x5e8(%rbp)
    fd57:	48 c7 85 20 fa ff ff 	movq   $0x0,-0x5e0(%rbp)
    fd5e:	00 00 00 00 
    fd62:	48 8d 05 df 96 00 00 	lea    0x96df(%rip),%rax        # 19448 <g_840>
    fd69:	48 89 85 28 fa ff ff 	mov    %rax,-0x5d8(%rbp)
    fd70:	48 c7 85 30 fa ff ff 	movq   $0x0,-0x5d0(%rbp)
    fd77:	00 00 00 00 
    fd7b:	48 8d 05 de 96 00 00 	lea    0x96de(%rip),%rax        # 19460 <g_962>
    fd82:	48 89 85 38 fa ff ff 	mov    %rax,-0x5c8(%rbp)
    fd89:	48 8d 05 60 96 00 00 	lea    0x9660(%rip),%rax        # 193f0 <g_714+0x10>
    fd90:	48 89 85 40 fa ff ff 	mov    %rax,-0x5c0(%rbp)
    fd97:	48 8d 85 68 d8 ff ff 	lea    -0x2798(%rbp),%rax
    fd9e:	48 89 85 48 fa ff ff 	mov    %rax,-0x5b8(%rbp)
    fda5:	48 8d 85 68 d8 ff ff 	lea    -0x2798(%rbp),%rax
    fdac:	48 89 85 50 fa ff ff 	mov    %rax,-0x5b0(%rbp)
    fdb3:	48 8d 05 36 96 00 00 	lea    0x9636(%rip),%rax        # 193f0 <g_714+0x10>
    fdba:	48 89 85 58 fa ff ff 	mov    %rax,-0x5a8(%rbp)
    fdc1:	48 c7 85 60 fa ff ff 	movq   $0x0,-0x5a0(%rbp)
    fdc8:	00 00 00 00 
    fdcc:	48 8d 05 45 93 00 00 	lea    0x9345(%rip),%rax        # 19118 <g_343>
    fdd3:	48 89 85 68 fa ff ff 	mov    %rax,-0x598(%rbp)
    fdda:	48 c7 85 70 fa ff ff 	movq   $0x0,-0x590(%rbp)
    fde1:	00 00 00 00 
    fde5:	48 8d 05 5c 96 00 00 	lea    0x965c(%rip),%rax        # 19448 <g_840>
    fdec:	48 89 85 78 fa ff ff 	mov    %rax,-0x588(%rbp)
    fdf3:	48 c7 85 80 fa ff ff 	movq   $0x0,-0x580(%rbp)
    fdfa:	00 00 00 00 
    fdfe:	48 8d 05 5b 96 00 00 	lea    0x965b(%rip),%rax        # 19460 <g_962>
    fe05:	48 89 85 88 fa ff ff 	mov    %rax,-0x578(%rbp)
    fe0c:	48 8d 05 dd 95 00 00 	lea    0x95dd(%rip),%rax        # 193f0 <g_714+0x10>
    fe13:	48 89 85 90 fa ff ff 	mov    %rax,-0x570(%rbp)
    fe1a:	48 8d 85 68 d8 ff ff 	lea    -0x2798(%rbp),%rax
    fe21:	48 89 85 98 fa ff ff 	mov    %rax,-0x568(%rbp)
    fe28:	48 8d 85 68 d8 ff ff 	lea    -0x2798(%rbp),%rax
    fe2f:	48 89 85 a0 fa ff ff 	mov    %rax,-0x560(%rbp)
    fe36:	48 8d 05 b3 95 00 00 	lea    0x95b3(%rip),%rax        # 193f0 <g_714+0x10>
    fe3d:	48 89 85 a8 fa ff ff 	mov    %rax,-0x558(%rbp)
    fe44:	48 c7 85 b0 fa ff ff 	movq   $0x0,-0x550(%rbp)
    fe4b:	00 00 00 00 
    fe4f:	48 8d 05 c2 92 00 00 	lea    0x92c2(%rip),%rax        # 19118 <g_343>
    fe56:	48 89 85 b8 fa ff ff 	mov    %rax,-0x548(%rbp)
    fe5d:	48 c7 85 c0 fa ff ff 	movq   $0x0,-0x540(%rbp)
    fe64:	00 00 00 00 
    fe68:	48 8d 05 d9 95 00 00 	lea    0x95d9(%rip),%rax        # 19448 <g_840>
    fe6f:	48 89 85 c8 fa ff ff 	mov    %rax,-0x538(%rbp)
    fe76:	48 c7 85 d0 fa ff ff 	movq   $0x0,-0x530(%rbp)
    fe7d:	00 00 00 00 
    fe81:	48 8d 05 d8 95 00 00 	lea    0x95d8(%rip),%rax        # 19460 <g_962>
    fe88:	48 89 85 d8 fa ff ff 	mov    %rax,-0x528(%rbp)
    fe8f:	48 8d 05 5a 95 00 00 	lea    0x955a(%rip),%rax        # 193f0 <g_714+0x10>
    fe96:	48 89 85 e0 fa ff ff 	mov    %rax,-0x520(%rbp)
    fe9d:	48 8d 85 68 d8 ff ff 	lea    -0x2798(%rbp),%rax
    fea4:	48 89 85 e8 fa ff ff 	mov    %rax,-0x518(%rbp)
    feab:	48 8d 85 68 d8 ff ff 	lea    -0x2798(%rbp),%rax
    feb2:	48 89 85 f0 fa ff ff 	mov    %rax,-0x510(%rbp)
    feb9:	48 8d 05 30 95 00 00 	lea    0x9530(%rip),%rax        # 193f0 <g_714+0x10>
    fec0:	48 89 85 f8 fa ff ff 	mov    %rax,-0x508(%rbp)
    fec7:	48 c7 85 00 fb ff ff 	movq   $0x0,-0x500(%rbp)
    fece:	00 00 00 00 
    fed2:	48 8d 05 3f 92 00 00 	lea    0x923f(%rip),%rax        # 19118 <g_343>
    fed9:	48 89 85 08 fb ff ff 	mov    %rax,-0x4f8(%rbp)
    fee0:	48 c7 85 10 fb ff ff 	movq   $0x0,-0x4f0(%rbp)
    fee7:	00 00 00 00 
    feeb:	48 8d 05 56 95 00 00 	lea    0x9556(%rip),%rax        # 19448 <g_840>
    fef2:	48 89 85 18 fb ff ff 	mov    %rax,-0x4e8(%rbp)
    fef9:	48 c7 85 20 fb ff ff 	movq   $0x0,-0x4e0(%rbp)
    ff00:	00 00 00 00 
    ff04:	48 8d 05 55 95 00 00 	lea    0x9555(%rip),%rax        # 19460 <g_962>
    ff0b:	48 89 85 28 fb ff ff 	mov    %rax,-0x4d8(%rbp)
    ff12:	48 8d 05 d7 94 00 00 	lea    0x94d7(%rip),%rax        # 193f0 <g_714+0x10>
    ff19:	48 89 85 30 fb ff ff 	mov    %rax,-0x4d0(%rbp)
    ff20:	48 8d 85 68 d8 ff ff 	lea    -0x2798(%rbp),%rax
    ff27:	48 89 85 38 fb ff ff 	mov    %rax,-0x4c8(%rbp)
    ff2e:	48 8d 85 68 d8 ff ff 	lea    -0x2798(%rbp),%rax
    ff35:	48 89 85 40 fb ff ff 	mov    %rax,-0x4c0(%rbp)
    ff3c:	48 8d 05 ad 94 00 00 	lea    0x94ad(%rip),%rax        # 193f0 <g_714+0x10>
    ff43:	48 89 85 48 fb ff ff 	mov    %rax,-0x4b8(%rbp)
    ff4a:	48 c7 85 50 fb ff ff 	movq   $0x0,-0x4b0(%rbp)
    ff51:	00 00 00 00 
    ff55:	48 8d 05 bc 91 00 00 	lea    0x91bc(%rip),%rax        # 19118 <g_343>
    ff5c:	48 89 85 58 fb ff ff 	mov    %rax,-0x4a8(%rbp)
    ff63:	48 c7 85 60 fb ff ff 	movq   $0x0,-0x4a0(%rbp)
    ff6a:	00 00 00 00 
    ff6e:	48 8d 05 d3 94 00 00 	lea    0x94d3(%rip),%rax        # 19448 <g_840>
    ff75:	48 89 85 68 fb ff ff 	mov    %rax,-0x498(%rbp)
    ff7c:	48 c7 85 70 fb ff ff 	movq   $0x0,-0x490(%rbp)
    ff83:	00 00 00 00 
    ff87:	48 8d 05 d2 94 00 00 	lea    0x94d2(%rip),%rax        # 19460 <g_962>
    ff8e:	48 89 85 78 fb ff ff 	mov    %rax,-0x488(%rbp)
    ff95:	48 8d 05 54 94 00 00 	lea    0x9454(%rip),%rax        # 193f0 <g_714+0x10>
    ff9c:	48 89 85 80 fb ff ff 	mov    %rax,-0x480(%rbp)
    ffa3:	48 8d 85 68 d8 ff ff 	lea    -0x2798(%rbp),%rax
    ffaa:	48 89 85 88 fb ff ff 	mov    %rax,-0x478(%rbp)
    ffb1:	48 8d 85 68 d8 ff ff 	lea    -0x2798(%rbp),%rax
    ffb8:	48 89 85 90 fb ff ff 	mov    %rax,-0x470(%rbp)
    ffbf:	48 8d 05 2a 94 00 00 	lea    0x942a(%rip),%rax        # 193f0 <g_714+0x10>
    ffc6:	48 89 85 98 fb ff ff 	mov    %rax,-0x468(%rbp)
    ffcd:	48 c7 85 a0 fb ff ff 	movq   $0x0,-0x460(%rbp)
    ffd4:	00 00 00 00 
    ffd8:	48 8d 05 39 91 00 00 	lea    0x9139(%rip),%rax        # 19118 <g_343>
    ffdf:	48 89 85 a8 fb ff ff 	mov    %rax,-0x458(%rbp)
    ffe6:	48 c7 85 b0 fb ff ff 	movq   $0x0,-0x450(%rbp)
    ffed:	00 00 00 00 
    fff1:	48 8d 05 50 94 00 00 	lea    0x9450(%rip),%rax        # 19448 <g_840>
    fff8:	48 89 85 b8 fb ff ff 	mov    %rax,-0x448(%rbp)
    ffff:	48 c7 85 c0 fb ff ff 	movq   $0x0,-0x440(%rbp)
   10006:	00 00 00 00 
   1000a:	48 8d 05 4f 94 00 00 	lea    0x944f(%rip),%rax        # 19460 <g_962>
   10011:	48 89 85 c8 fb ff ff 	mov    %rax,-0x438(%rbp)
   10018:	48 8d 05 d1 93 00 00 	lea    0x93d1(%rip),%rax        # 193f0 <g_714+0x10>
   1001f:	48 89 85 d0 fb ff ff 	mov    %rax,-0x430(%rbp)
   10026:	48 8d 85 68 d8 ff ff 	lea    -0x2798(%rbp),%rax
   1002d:	48 89 85 d8 fb ff ff 	mov    %rax,-0x428(%rbp)
   10034:	48 8d 85 68 d8 ff ff 	lea    -0x2798(%rbp),%rax
   1003b:	48 89 85 e0 fb ff ff 	mov    %rax,-0x420(%rbp)
   10042:	48 8d 05 a7 93 00 00 	lea    0x93a7(%rip),%rax        # 193f0 <g_714+0x10>
   10049:	48 89 85 e8 fb ff ff 	mov    %rax,-0x418(%rbp)
   10050:	48 c7 85 f0 fb ff ff 	movq   $0x0,-0x410(%rbp)
   10057:	00 00 00 00 
   1005b:	48 8d 05 b6 90 00 00 	lea    0x90b6(%rip),%rax        # 19118 <g_343>
   10062:	48 89 85 f8 fb ff ff 	mov    %rax,-0x408(%rbp)
   10069:	48 c7 85 00 fc ff ff 	movq   $0x0,-0x400(%rbp)
   10070:	00 00 00 00 
   10074:	48 8d 05 cd 93 00 00 	lea    0x93cd(%rip),%rax        # 19448 <g_840>
   1007b:	48 89 85 08 fc ff ff 	mov    %rax,-0x3f8(%rbp)
   10082:	48 c7 85 10 fc ff ff 	movq   $0x0,-0x3f0(%rbp)
   10089:	00 00 00 00 
   1008d:	48 8d 05 cc 93 00 00 	lea    0x93cc(%rip),%rax        # 19460 <g_962>
   10094:	48 89 85 18 fc ff ff 	mov    %rax,-0x3e8(%rbp)
   1009b:	48 8d 05 4e 93 00 00 	lea    0x934e(%rip),%rax        # 193f0 <g_714+0x10>
   100a2:	48 89 85 20 fc ff ff 	mov    %rax,-0x3e0(%rbp)
   100a9:	48 8d 85 68 d8 ff ff 	lea    -0x2798(%rbp),%rax
   100b0:	48 89 85 28 fc ff ff 	mov    %rax,-0x3d8(%rbp)
   100b7:	48 8d 85 68 d8 ff ff 	lea    -0x2798(%rbp),%rax
   100be:	48 89 85 30 fc ff ff 	mov    %rax,-0x3d0(%rbp)
   100c5:	48 8d 05 24 93 00 00 	lea    0x9324(%rip),%rax        # 193f0 <g_714+0x10>
   100cc:	48 89 85 38 fc ff ff 	mov    %rax,-0x3c8(%rbp)
   100d3:	48 c7 85 40 fc ff ff 	movq   $0x0,-0x3c0(%rbp)
   100da:	00 00 00 00 
   100de:	48 8d 05 33 90 00 00 	lea    0x9033(%rip),%rax        # 19118 <g_343>
   100e5:	48 89 85 48 fc ff ff 	mov    %rax,-0x3b8(%rbp)
   100ec:	48 c7 85 50 fc ff ff 	movq   $0x0,-0x3b0(%rbp)
   100f3:	00 00 00 00 
   100f7:	48 8d 05 4a 93 00 00 	lea    0x934a(%rip),%rax        # 19448 <g_840>
   100fe:	48 89 85 58 fc ff ff 	mov    %rax,-0x3a8(%rbp)
   10105:	48 c7 85 60 fc ff ff 	movq   $0x0,-0x3a0(%rbp)
   1010c:	00 00 00 00 
   10110:	48 8d 05 49 93 00 00 	lea    0x9349(%rip),%rax        # 19460 <g_962>
   10117:	48 89 85 68 fc ff ff 	mov    %rax,-0x398(%rbp)
   1011e:	48 8d 05 cb 92 00 00 	lea    0x92cb(%rip),%rax        # 193f0 <g_714+0x10>
   10125:	48 89 85 70 fc ff ff 	mov    %rax,-0x390(%rbp)
   1012c:	48 8d 85 68 d8 ff ff 	lea    -0x2798(%rbp),%rax
   10133:	48 89 85 78 fc ff ff 	mov    %rax,-0x388(%rbp)
   1013a:	48 8d 85 68 d8 ff ff 	lea    -0x2798(%rbp),%rax
   10141:	48 89 85 80 fc ff ff 	mov    %rax,-0x380(%rbp)
   10148:	48 8d 05 a1 92 00 00 	lea    0x92a1(%rip),%rax        # 193f0 <g_714+0x10>
   1014f:	48 89 85 88 fc ff ff 	mov    %rax,-0x378(%rbp)
   10156:	48 8d 85 70 da ff ff 	lea    -0x2590(%rbp),%rax
   1015d:	48 89 85 90 fc ff ff 	mov    %rax,-0x370(%rbp)
   10164:	48 c7 85 98 fc ff ff 	movq   $0x0,-0x368(%rbp)
   1016b:	00 00 00 00 
   1016f:	48 c7 85 a0 fc ff ff 	movq   $0x0,-0x360(%rbp)
   10176:	00 00 00 00 
   1017a:	48 8d 05 97 8f 00 00 	lea    0x8f97(%rip),%rax        # 19118 <g_343>
   10181:	48 89 85 a8 fc ff ff 	mov    %rax,-0x358(%rbp)
   10188:	48 8d 85 78 da ff ff 	lea    -0x2588(%rbp),%rax
   1018f:	48 89 85 b0 fc ff ff 	mov    %rax,-0x350(%rbp)
   10196:	48 8d 85 6c d8 ff ff 	lea    -0x2794(%rbp),%rax
   1019d:	48 89 85 b8 fc ff ff 	mov    %rax,-0x348(%rbp)
   101a4:	48 c7 85 c0 fc ff ff 	movq   $0x0,-0x340(%rbp)
   101ab:	00 00 00 00 
   101af:	48 8d 05 3a 92 00 00 	lea    0x923a(%rip),%rax        # 193f0 <g_714+0x10>
   101b6:	48 89 85 c8 fc ff ff 	mov    %rax,-0x338(%rbp)
   101bd:	48 8d 05 2c 92 00 00 	lea    0x922c(%rip),%rax        # 193f0 <g_714+0x10>
   101c4:	48 89 85 d0 fc ff ff 	mov    %rax,-0x330(%rbp)
   101cb:	48 c7 85 d8 fc ff ff 	movq   $0x0,-0x328(%rbp)
   101d2:	00 00 00 00 
   101d6:	48 8d 85 70 da ff ff 	lea    -0x2590(%rbp),%rax
   101dd:	48 89 85 e0 fc ff ff 	mov    %rax,-0x320(%rbp)
   101e4:	48 c7 85 e8 fc ff ff 	movq   $0x0,-0x318(%rbp)
   101eb:	00 00 00 00 
   101ef:	48 c7 85 f0 fc ff ff 	movq   $0x0,-0x310(%rbp)
   101f6:	00 00 00 00 
   101fa:	48 8d 05 17 8f 00 00 	lea    0x8f17(%rip),%rax        # 19118 <g_343>
   10201:	48 89 85 f8 fc ff ff 	mov    %rax,-0x308(%rbp)
   10208:	48 8d 85 78 da ff ff 	lea    -0x2588(%rbp),%rax
   1020f:	48 89 85 00 fd ff ff 	mov    %rax,-0x300(%rbp)
   10216:	48 8d 85 6c d8 ff ff 	lea    -0x2794(%rbp),%rax
   1021d:	48 89 85 08 fd ff ff 	mov    %rax,-0x2f8(%rbp)
   10224:	48 c7 85 10 fd ff ff 	movq   $0x0,-0x2f0(%rbp)
   1022b:	00 00 00 00 
   1022f:	48 8d 05 ba 91 00 00 	lea    0x91ba(%rip),%rax        # 193f0 <g_714+0x10>
   10236:	48 89 85 18 fd ff ff 	mov    %rax,-0x2e8(%rbp)
   1023d:	48 8d 05 ac 91 00 00 	lea    0x91ac(%rip),%rax        # 193f0 <g_714+0x10>
   10244:	48 89 85 20 fd ff ff 	mov    %rax,-0x2e0(%rbp)
   1024b:	48 c7 85 28 fd ff ff 	movq   $0x0,-0x2d8(%rbp)
   10252:	00 00 00 00 
   10256:	48 8d 85 70 da ff ff 	lea    -0x2590(%rbp),%rax
   1025d:	48 89 85 30 fd ff ff 	mov    %rax,-0x2d0(%rbp)
   10264:	48 c7 85 38 fd ff ff 	movq   $0x0,-0x2c8(%rbp)
   1026b:	00 00 00 00 
   1026f:	48 c7 85 40 fd ff ff 	movq   $0x0,-0x2c0(%rbp)
   10276:	00 00 00 00 
   1027a:	48 8d 05 97 8e 00 00 	lea    0x8e97(%rip),%rax        # 19118 <g_343>
   10281:	48 89 85 48 fd ff ff 	mov    %rax,-0x2b8(%rbp)
   10288:	48 8d 85 78 da ff ff 	lea    -0x2588(%rbp),%rax
   1028f:	48 89 85 50 fd ff ff 	mov    %rax,-0x2b0(%rbp)
   10296:	48 8d 85 6c d8 ff ff 	lea    -0x2794(%rbp),%rax
   1029d:	48 89 85 58 fd ff ff 	mov    %rax,-0x2a8(%rbp)
   102a4:	48 c7 85 60 fd ff ff 	movq   $0x0,-0x2a0(%rbp)
   102ab:	00 00 00 00 
   102af:	48 8d 05 3a 91 00 00 	lea    0x913a(%rip),%rax        # 193f0 <g_714+0x10>
   102b6:	48 89 85 68 fd ff ff 	mov    %rax,-0x298(%rbp)
   102bd:	48 8d 05 2c 91 00 00 	lea    0x912c(%rip),%rax        # 193f0 <g_714+0x10>
   102c4:	48 89 85 70 fd ff ff 	mov    %rax,-0x290(%rbp)
   102cb:	48 c7 85 78 fd ff ff 	movq   $0x0,-0x288(%rbp)
   102d2:	00 00 00 00 
   102d6:	48 8d 85 70 da ff ff 	lea    -0x2590(%rbp),%rax
   102dd:	48 89 85 80 fd ff ff 	mov    %rax,-0x280(%rbp)
   102e4:	48 c7 85 88 fd ff ff 	movq   $0x0,-0x278(%rbp)
   102eb:	00 00 00 00 
   102ef:	48 c7 85 90 fd ff ff 	movq   $0x0,-0x270(%rbp)
   102f6:	00 00 00 00 
   102fa:	48 8d 05 17 8e 00 00 	lea    0x8e17(%rip),%rax        # 19118 <g_343>
   10301:	48 89 85 98 fd ff ff 	mov    %rax,-0x268(%rbp)
   10308:	48 8d 85 78 da ff ff 	lea    -0x2588(%rbp),%rax
   1030f:	48 89 85 a0 fd ff ff 	mov    %rax,-0x260(%rbp)
   10316:	48 8d 85 6c d8 ff ff 	lea    -0x2794(%rbp),%rax
   1031d:	48 89 85 a8 fd ff ff 	mov    %rax,-0x258(%rbp)
   10324:	48 c7 85 b0 fd ff ff 	movq   $0x0,-0x250(%rbp)
   1032b:	00 00 00 00 
   1032f:	48 8d 05 ba 90 00 00 	lea    0x90ba(%rip),%rax        # 193f0 <g_714+0x10>
   10336:	48 89 85 b8 fd ff ff 	mov    %rax,-0x248(%rbp)
   1033d:	48 8d 05 ac 90 00 00 	lea    0x90ac(%rip),%rax        # 193f0 <g_714+0x10>
   10344:	48 89 85 c0 fd ff ff 	mov    %rax,-0x240(%rbp)
   1034b:	48 c7 85 c8 fd ff ff 	movq   $0x0,-0x238(%rbp)
   10352:	00 00 00 00 
   10356:	48 8d 85 70 da ff ff 	lea    -0x2590(%rbp),%rax
   1035d:	48 89 85 d0 fd ff ff 	mov    %rax,-0x230(%rbp)
   10364:	48 c7 85 d8 fd ff ff 	movq   $0x0,-0x228(%rbp)
   1036b:	00 00 00 00 
   1036f:	48 c7 85 e0 fd ff ff 	movq   $0x0,-0x220(%rbp)
   10376:	00 00 00 00 
   1037a:	48 8d 05 97 8d 00 00 	lea    0x8d97(%rip),%rax        # 19118 <g_343>
   10381:	48 89 85 e8 fd ff ff 	mov    %rax,-0x218(%rbp)
   10388:	48 8d 85 78 da ff ff 	lea    -0x2588(%rbp),%rax
   1038f:	48 89 85 f0 fd ff ff 	mov    %rax,-0x210(%rbp)
   10396:	48 8d 85 6c d8 ff ff 	lea    -0x2794(%rbp),%rax
   1039d:	48 89 85 f8 fd ff ff 	mov    %rax,-0x208(%rbp)
   103a4:	48 c7 85 00 fe ff ff 	movq   $0x0,-0x200(%rbp)
   103ab:	00 00 00 00 
   103af:	48 8d 05 3a 90 00 00 	lea    0x903a(%rip),%rax        # 193f0 <g_714+0x10>
   103b6:	48 89 85 08 fe ff ff 	mov    %rax,-0x1f8(%rbp)
   103bd:	48 8d 05 2c 90 00 00 	lea    0x902c(%rip),%rax        # 193f0 <g_714+0x10>
   103c4:	48 89 85 10 fe ff ff 	mov    %rax,-0x1f0(%rbp)
   103cb:	48 c7 85 18 fe ff ff 	movq   $0x0,-0x1e8(%rbp)
   103d2:	00 00 00 00 
   103d6:	48 8d 85 70 da ff ff 	lea    -0x2590(%rbp),%rax
   103dd:	48 89 85 20 fe ff ff 	mov    %rax,-0x1e0(%rbp)
   103e4:	48 c7 85 28 fe ff ff 	movq   $0x0,-0x1d8(%rbp)
   103eb:	00 00 00 00 
   103ef:	48 c7 85 30 fe ff ff 	movq   $0x0,-0x1d0(%rbp)
   103f6:	00 00 00 00 
   103fa:	48 8d 05 17 8d 00 00 	lea    0x8d17(%rip),%rax        # 19118 <g_343>
   10401:	48 89 85 38 fe ff ff 	mov    %rax,-0x1c8(%rbp)
   10408:	48 8d 85 78 da ff ff 	lea    -0x2588(%rbp),%rax
   1040f:	48 89 85 40 fe ff ff 	mov    %rax,-0x1c0(%rbp)
   10416:	48 8d 85 6c d8 ff ff 	lea    -0x2794(%rbp),%rax
   1041d:	48 89 85 48 fe ff ff 	mov    %rax,-0x1b8(%rbp)
   10424:	48 c7 85 50 fe ff ff 	movq   $0x0,-0x1b0(%rbp)
   1042b:	00 00 00 00 
   1042f:	48 8d 05 ba 8f 00 00 	lea    0x8fba(%rip),%rax        # 193f0 <g_714+0x10>
   10436:	48 89 85 58 fe ff ff 	mov    %rax,-0x1a8(%rbp)
   1043d:	48 8d 05 ac 8f 00 00 	lea    0x8fac(%rip),%rax        # 193f0 <g_714+0x10>
   10444:	48 89 85 60 fe ff ff 	mov    %rax,-0x1a0(%rbp)
   1044b:	48 c7 85 68 fe ff ff 	movq   $0x0,-0x198(%rbp)
   10452:	00 00 00 00 
   10456:	48 8d 85 70 da ff ff 	lea    -0x2590(%rbp),%rax
   1045d:	48 89 85 70 fe ff ff 	mov    %rax,-0x190(%rbp)
   10464:	48 c7 85 78 fe ff ff 	movq   $0x0,-0x188(%rbp)
   1046b:	00 00 00 00 
   1046f:	48 c7 85 80 fe ff ff 	movq   $0x0,-0x180(%rbp)
   10476:	00 00 00 00 
   1047a:	48 8d 05 97 8c 00 00 	lea    0x8c97(%rip),%rax        # 19118 <g_343>
   10481:	48 89 85 88 fe ff ff 	mov    %rax,-0x178(%rbp)
   10488:	48 8d 85 78 da ff ff 	lea    -0x2588(%rbp),%rax
   1048f:	48 89 85 90 fe ff ff 	mov    %rax,-0x170(%rbp)
   10496:	48 8d 85 6c d8 ff ff 	lea    -0x2794(%rbp),%rax
   1049d:	48 89 85 98 fe ff ff 	mov    %rax,-0x168(%rbp)
   104a4:	48 c7 85 a0 fe ff ff 	movq   $0x0,-0x160(%rbp)
   104ab:	00 00 00 00 
   104af:	48 8d 05 3a 8f 00 00 	lea    0x8f3a(%rip),%rax        # 193f0 <g_714+0x10>
   104b6:	48 89 85 a8 fe ff ff 	mov    %rax,-0x158(%rbp)
   104bd:	48 8d 05 2c 8f 00 00 	lea    0x8f2c(%rip),%rax        # 193f0 <g_714+0x10>
   104c4:	48 89 85 b0 fe ff ff 	mov    %rax,-0x150(%rbp)
   104cb:	48 c7 85 b8 fe ff ff 	movq   $0x0,-0x148(%rbp)
   104d2:	00 00 00 00 
   104d6:	48 8d 85 70 da ff ff 	lea    -0x2590(%rbp),%rax
   104dd:	48 89 85 c0 fe ff ff 	mov    %rax,-0x140(%rbp)
   104e4:	48 c7 85 c8 fe ff ff 	movq   $0x0,-0x138(%rbp)
   104eb:	00 00 00 00 
   104ef:	48 c7 85 d0 fe ff ff 	movq   $0x0,-0x130(%rbp)
   104f6:	00 00 00 00 
   104fa:	48 8d 05 17 8c 00 00 	lea    0x8c17(%rip),%rax        # 19118 <g_343>
   10501:	48 89 85 d8 fe ff ff 	mov    %rax,-0x128(%rbp)
   10508:	48 8d 85 78 da ff ff 	lea    -0x2588(%rbp),%rax
   1050f:	48 89 85 e0 fe ff ff 	mov    %rax,-0x120(%rbp)
   10516:	48 8d 85 6c d8 ff ff 	lea    -0x2794(%rbp),%rax
   1051d:	48 89 85 e8 fe ff ff 	mov    %rax,-0x118(%rbp)
   10524:	48 c7 85 f0 fe ff ff 	movq   $0x0,-0x110(%rbp)
   1052b:	00 00 00 00 
   1052f:	48 8d 05 ba 8e 00 00 	lea    0x8eba(%rip),%rax        # 193f0 <g_714+0x10>
   10536:	48 89 85 f8 fe ff ff 	mov    %rax,-0x108(%rbp)
   1053d:	48 8d 05 ac 8e 00 00 	lea    0x8eac(%rip),%rax        # 193f0 <g_714+0x10>
   10544:	48 89 85 00 ff ff ff 	mov    %rax,-0x100(%rbp)
   1054b:	48 c7 85 08 ff ff ff 	movq   $0x0,-0xf8(%rbp)
   10552:	00 00 00 00 
   10556:	48 8d 85 70 da ff ff 	lea    -0x2590(%rbp),%rax
   1055d:	48 89 85 10 ff ff ff 	mov    %rax,-0xf0(%rbp)
   10564:	48 c7 85 18 ff ff ff 	movq   $0x0,-0xe8(%rbp)
   1056b:	00 00 00 00 
   1056f:	48 c7 85 20 ff ff ff 	movq   $0x0,-0xe0(%rbp)
   10576:	00 00 00 00 
   1057a:	48 8d 05 97 8b 00 00 	lea    0x8b97(%rip),%rax        # 19118 <g_343>
   10581:	48 89 85 28 ff ff ff 	mov    %rax,-0xd8(%rbp)
   10588:	48 8d 85 78 da ff ff 	lea    -0x2588(%rbp),%rax
   1058f:	48 89 85 30 ff ff ff 	mov    %rax,-0xd0(%rbp)
   10596:	48 8d 85 6c d8 ff ff 	lea    -0x2794(%rbp),%rax
   1059d:	48 89 85 38 ff ff ff 	mov    %rax,-0xc8(%rbp)
   105a4:	48 c7 85 40 ff ff ff 	movq   $0x0,-0xc0(%rbp)
   105ab:	00 00 00 00 
   105af:	48 8d 05 3a 8e 00 00 	lea    0x8e3a(%rip),%rax        # 193f0 <g_714+0x10>
   105b6:	48 89 85 48 ff ff ff 	mov    %rax,-0xb8(%rbp)
   105bd:	48 8d 05 2c 8e 00 00 	lea    0x8e2c(%rip),%rax        # 193f0 <g_714+0x10>
   105c4:	48 89 85 50 ff ff ff 	mov    %rax,-0xb0(%rbp)
   105cb:	48 c7 85 58 ff ff ff 	movq   $0x0,-0xa8(%rbp)
   105d2:	00 00 00 00 
   105d6:	48 8d 85 70 da ff ff 	lea    -0x2590(%rbp),%rax
   105dd:	48 89 85 60 ff ff ff 	mov    %rax,-0xa0(%rbp)
   105e4:	48 c7 85 68 ff ff ff 	movq   $0x0,-0x98(%rbp)
   105eb:	00 00 00 00 
   105ef:	48 c7 85 70 ff ff ff 	movq   $0x0,-0x90(%rbp)
   105f6:	00 00 00 00 
   105fa:	48 8d 05 17 8b 00 00 	lea    0x8b17(%rip),%rax        # 19118 <g_343>
   10601:	48 89 85 78 ff ff ff 	mov    %rax,-0x88(%rbp)
   10608:	48 8d 85 78 da ff ff 	lea    -0x2588(%rbp),%rax
   1060f:	48 89 45 80          	mov    %rax,-0x80(%rbp)
   10613:	48 8d 85 6c d8 ff ff 	lea    -0x2794(%rbp),%rax
   1061a:	48 89 45 88          	mov    %rax,-0x78(%rbp)
   1061e:	48 c7 45 90 00 00 00 	movq   $0x0,-0x70(%rbp)
   10625:	00 
   10626:	48 8d 05 c3 8d 00 00 	lea    0x8dc3(%rip),%rax        # 193f0 <g_714+0x10>
   1062d:	48 89 45 98          	mov    %rax,-0x68(%rbp)
   10631:	48 8d 05 b8 8d 00 00 	lea    0x8db8(%rip),%rax        # 193f0 <g_714+0x10>
   10638:	48 89 45 a0          	mov    %rax,-0x60(%rbp)
   1063c:	48 c7 45 a8 00 00 00 	movq   $0x0,-0x58(%rbp)
   10643:	00 
   10644:	48 8b 85 38 da ff ff 	mov    -0x25c8(%rbp),%rax
   1064b:	48 8b 95 a0 fe ff ff 	mov    -0x160(%rbp),%rdx
   10652:	48 89 10             	mov    %rdx,(%rax)
   10655:	c7 85 dc d8 ff ff 05 	movl   $0x5,-0x2724(%rbp)
   1065c:	00 00 00 
   1065f:	eb 1d                	jmp    1067e <func_27+0x7964>
   10661:	c7 85 5c d9 ff ff e8 	movl   $0x37161fe8,-0x26a4(%rbp)
   10668:	1f 16 37 
   1066b:	8b 85 5c d9 ff ff    	mov    -0x26a4(%rbp),%eax
   10671:	89 85 64 e0 ff ff    	mov    %eax,-0x1f9c(%rbp)
   10677:	83 ad dc d8 ff ff 01 	subl   $0x1,-0x2724(%rbp)
   1067e:	83 bd dc d8 ff ff 00 	cmpl   $0x0,-0x2724(%rbp)
   10685:	7f da                	jg     10661 <func_27+0x7947>
   10687:	83 85 e0 d8 ff ff 01 	addl   $0x1,-0x2720(%rbp)
   1068e:	83 bd e0 d8 ff ff 02 	cmpl   $0x2,-0x2720(%rbp)
   10695:	0f 8e 0e f3 ff ff    	jle    f9a9 <func_27+0x6c8f>
   1069b:	8b 85 6c d8 ff ff    	mov    -0x2794(%rbp),%eax
   106a1:	89 85 64 d8 ff ff    	mov    %eax,-0x279c(%rbp)
   106a7:	8b 95 64 d8 ff ff    	mov    -0x279c(%rbp),%edx
   106ad:	8b 85 60 da ff ff    	mov    -0x25a0(%rbp),%eax
   106b3:	21 d0                	and    %edx,%eax
   106b5:	89 85 60 da ff ff    	mov    %eax,-0x25a0(%rbp)
   106bb:	e9 4b 04 00 00       	jmpq   10b0b <func_27+0x7df1>
   106c0:	66 c7 85 a0 da ff ff 	movw   $0x7f28,-0x2560(%rbp)
   106c7:	28 7f 
   106c9:	c7 85 2c d9 ff ff a8 	movl   $0xaeea4a8,-0x26d4(%rbp)
   106d0:	a4 ee 0a 
   106d3:	c7 85 f0 d8 ff ff 01 	movl   $0x1,-0x2710(%rbp)
   106da:	00 00 00 
   106dd:	c7 85 30 d9 ff ff ff 	movl   $0xffffffff,-0x26d0(%rbp)
   106e4:	ff ff ff 
   106e7:	c7 85 34 d9 ff ff fd 	movl   $0xfffffffd,-0x26cc(%rbp)
   106ee:	ff ff ff 
   106f1:	48 c7 85 d0 dc ff ff 	movq   $0xffffffffffffffff,-0x2330(%rbp)
   106f8:	ff ff ff ff 
   106fc:	66 c7 05 33 8a 00 00 	movw   $0xfff2,0x8a33(%rip)        # 19138 <g_504>
   10703:	f2 ff 
   10705:	90                   	nop
   10706:	0f b7 05 2b 8a 00 00 	movzwl 0x8a2b(%rip),%eax        # 19138 <g_504>
   1070d:	66 83 f8 3c          	cmp    $0x3c,%ax
   10711:	0f 87 11 01 00 00    	ja     10828 <func_27+0x7b0e>
   10717:	48 8d 85 25 d8 ff ff 	lea    -0x27db(%rbp),%rax
   1071e:	48 89 85 e0 f7 ff ff 	mov    %rax,-0x820(%rbp)
   10725:	48 8d 85 25 d8 ff ff 	lea    -0x27db(%rbp),%rax
   1072c:	48 89 85 e8 f7 ff ff 	mov    %rax,-0x818(%rbp)
   10733:	48 8d 85 25 d8 ff ff 	lea    -0x27db(%rbp),%rax
   1073a:	48 89 85 f0 f7 ff ff 	mov    %rax,-0x810(%rbp)
   10741:	48 8d 85 25 d8 ff ff 	lea    -0x27db(%rbp),%rax
   10748:	48 89 85 f8 f7 ff ff 	mov    %rax,-0x808(%rbp)
   1074f:	48 8d 85 25 d8 ff ff 	lea    -0x27db(%rbp),%rax
   10756:	48 89 85 00 f8 ff ff 	mov    %rax,-0x800(%rbp)
   1075d:	48 8d 85 25 d8 ff ff 	lea    -0x27db(%rbp),%rax
   10764:	48 89 85 08 f8 ff ff 	mov    %rax,-0x7f8(%rbp)
   1076b:	c7 85 38 d9 ff ff ff 	movl   $0xffffffff,-0x26c8(%rbp)
   10772:	ff ff ff 
   10775:	48 8b 85 08 d8 ff ff 	mov    -0x27f8(%rbp),%rax
   1077c:	0f b6 00             	movzbl (%rax),%eax
   1077f:	44 0f be e0          	movsbl %al,%r12d
   10783:	0f b7 85 a0 da ff ff 	movzwl -0x2560(%rbp),%eax
   1078a:	0f b7 d8             	movzwl %ax,%ebx
   1078d:	0f b7 85 a0 da ff ff 	movzwl -0x2560(%rbp),%eax
   10794:	44 0f b7 e8          	movzwl %ax,%r13d
   10798:	be 01 00 00 00       	mov    $0x1,%esi
   1079d:	bf 01 00 00 00       	mov    $0x1,%edi
   107a2:	e8 0f 4e ff ff       	callq  55b6 <safe_add_func_int32_t_s_s>
   107a7:	41 39 c5             	cmp    %eax,%r13d
   107aa:	0f 9e c0             	setle  %al
   107ad:	0f b6 c0             	movzbl %al,%eax
   107b0:	89 de                	mov    %ebx,%esi
   107b2:	89 c7                	mov    %eax,%edi
   107b4:	e8 44 57 ff ff       	callq  5efd <safe_mod_func_uint32_t_u_u>
   107b9:	44 89 e3             	mov    %r12d,%ebx
   107bc:	31 c3                	xor    %eax,%ebx
   107be:	48 8b 85 48 dc ff ff 	mov    -0x23b8(%rbp),%rax
   107c5:	c7 00 00 00 00 00    	movl   $0x0,(%rax)
   107cb:	0f b7 85 a0 da ff ff 	movzwl -0x2560(%rbp),%eax
   107d2:	0f b7 c0             	movzwl %ax,%eax
   107d5:	be 00 00 00 00       	mov    $0x0,%esi
   107da:	89 c7                	mov    %eax,%edi
   107dc:	e8 d5 4d ff ff       	callq  55b6 <safe_add_func_int32_t_s_s>
   107e1:	c7 85 38 d9 ff ff 00 	movl   $0x0,-0x26c8(%rbp)
   107e8:	00 00 00 
   107eb:	8b 85 38 d9 ff ff    	mov    -0x26c8(%rbp),%eax
   107f1:	0f b6 c0             	movzbl %al,%eax
   107f4:	be 03 00 00 00       	mov    $0x3,%esi
   107f9:	89 c7                	mov    %eax,%edi
   107fb:	e8 be 54 ff ff       	callq  5cbe <safe_rshift_func_uint8_t_u_u>
   10800:	0f be c0             	movsbl %al,%eax
   10803:	89 de                	mov    %ebx,%esi
   10805:	89 c7                	mov    %eax,%edi
   10807:	e8 60 4b ff ff       	callq  536c <safe_rshift_func_int8_t_s_u>
   1080c:	0f b6 85 1c d8 ff ff 	movzbl -0x27e4(%rbp),%eax
   10813:	0f b6 c0             	movzbl %al,%eax
   10816:	21 85 2c d9 ff ff    	and    %eax,-0x26d4(%rbp)
   1081c:	48 8b 85 10 d8 ff ff 	mov    -0x27f0(%rbp),%rax
   10823:	e9 ea 02 00 00       	jmpq   10b12 <func_27+0x7df8>
   10828:	48 8b 85 00 d8 ff ff 	mov    -0x2800(%rbp),%rax
   1082f:	0f b6 00             	movzbl (%rax),%eax
   10832:	0f b6 d8             	movzbl %al,%ebx
   10835:	48 8b 85 28 dc ff ff 	mov    -0x23d8(%rbp),%rax
   1083c:	48 8b 00             	mov    (%rax),%rax
   1083f:	8b 00                	mov    (%rax),%eax
   10841:	0f b7 c0             	movzwl %ax,%eax
   10844:	89 c6                	mov    %eax,%esi
   10846:	bf fc ff 00 00       	mov    $0xfffc,%edi
   1084b:	e8 ed 54 ff ff       	callq  5d3d <safe_mul_func_uint16_t_u_u>
   10850:	66 85 c0             	test   %ax,%ax
   10853:	0f 84 8c 00 00 00    	je     108e5 <func_27+0x7bcb>
   10859:	48 8b 05 58 8f 00 00 	mov    0x8f58(%rip),%rax        # 197b8 <g_1093>
   10860:	44 0f b6 e0          	movzbl %al,%r12d
   10864:	0f b7 85 a0 da ff ff 	movzwl -0x2560(%rbp),%eax
   1086b:	0f b7 c0             	movzwl %ax,%eax
   1086e:	be 00 00 00 00       	mov    $0x0,%esi
   10873:	89 c7                	mov    %eax,%edi
   10875:	e8 44 55 ff ff       	callq  5dbe <safe_lshift_func_uint16_t_u_s>
   1087a:	0f b6 95 1c d8 ff ff 	movzbl -0x27e4(%rbp),%edx
   10881:	0f b6 d2             	movzbl %dl,%edx
   10884:	66 39 d0             	cmp    %dx,%ax
   10887:	0f 93 c0             	setae  %al
   1088a:	0f b6 c0             	movzbl %al,%eax
   1088d:	8b 95 2c d9 ff ff    	mov    -0x26d4(%rbp),%edx
   10893:	48 63 ca             	movslq %edx,%rcx
   10896:	48 8b 95 10 d8 ff ff 	mov    -0x27f0(%rbp),%rdx
   1089d:	48 21 ca             	and    %rcx,%rdx
   108a0:	48 39 d0             	cmp    %rdx,%rax
   108a3:	0f 96 c0             	setbe  %al
   108a6:	0f b6 c0             	movzbl %al,%eax
   108a9:	44 89 e6             	mov    %r12d,%esi
   108ac:	89 c7                	mov    %eax,%edi
   108ae:	e8 28 53 ff ff       	callq  5bdb <safe_div_func_uint8_t_u_u>
   108b3:	0f b6 c0             	movzbl %al,%eax
   108b6:	48 89 c7             	mov    %rax,%rdi
   108b9:	e8 58 4f ff ff       	callq  5816 <safe_unary_minus_func_int64_t_s>
   108be:	31 85 f0 d8 ff ff    	xor    %eax,-0x2710(%rbp)
   108c4:	8b 85 f0 d8 ff ff    	mov    -0x2710(%rbp),%eax
   108ca:	48 98                	cltq   
   108cc:	48 89 c6             	mov    %rax,%rsi
   108cf:	bf 01 00 00 00       	mov    $0x1,%edi
   108d4:	e8 d6 57 ff ff       	callq  60af <safe_div_func_uint64_t_u_u>
   108d9:	48 85 c0             	test   %rax,%rax
   108dc:	74 07                	je     108e5 <func_27+0x7bcb>
   108de:	b8 01 00 00 00       	mov    $0x1,%eax
   108e3:	eb 05                	jmp    108ea <func_27+0x7bd0>
   108e5:	b8 00 00 00 00       	mov    $0x0,%eax
   108ea:	0f b6 c0             	movzbl %al,%eax
   108ed:	89 de                	mov    %ebx,%esi
   108ef:	89 c7                	mov    %eax,%edi
   108f1:	e8 64 52 ff ff       	callq  5b5a <safe_add_func_uint8_t_u_u>
   108f6:	3c 96                	cmp    $0x96,%al
   108f8:	0f 96 c0             	setbe  %al
   108fb:	0f b6 c0             	movzbl %al,%eax
   108fe:	21 85 30 d9 ff ff    	and    %eax,-0x26d0(%rbp)
   10904:	0f b6 85 1c d8 ff ff 	movzbl -0x27e4(%rbp),%eax
   1090b:	0f b6 d8             	movzbl %al,%ebx
   1090e:	0f b7 85 a0 da ff ff 	movzwl -0x2560(%rbp),%eax
   10915:	0f b7 d0             	movzwl %ax,%edx
   10918:	48 8b 05 99 8e 00 00 	mov    0x8e99(%rip),%rax        # 197b8 <g_1093>
   1091f:	0f b7 c0             	movzwl %ax,%eax
   10922:	89 d6                	mov    %edx,%esi
   10924:	89 c7                	mov    %eax,%edi
   10926:	e8 1d 55 ff ff       	callq  5e48 <safe_rshift_func_uint16_t_u_s>
   1092b:	0f b7 c0             	movzwl %ax,%eax
   1092e:	89 85 30 d9 ff ff    	mov    %eax,-0x26d0(%rbp)
   10934:	48 8b 85 f0 d9 ff ff 	mov    -0x2610(%rbp),%rax
   1093b:	8b 95 30 d9 ff ff    	mov    -0x26d0(%rbp),%edx
   10941:	66 89 10             	mov    %dx,(%rax)
   10944:	0f b7 00             	movzwl (%rax),%eax
   10947:	0f b7 d0             	movzwl %ax,%edx
   1094a:	48 8b 05 8f a1 00 00 	mov    0xa18f(%rip),%rax        # 1aae0 <g_42>
   10951:	0f b6 00             	movzbl (%rax),%eax
   10954:	0f be c8             	movsbl %al,%ecx
   10957:	48 8b 05 a2 a9 00 00 	mov    0xa9a2(%rip),%rax        # 1b300 <g_1695>
   1095e:	8b 30                	mov    (%rax),%esi
   10960:	0f b6 85 1c d8 ff ff 	movzbl -0x27e4(%rbp),%eax
   10967:	0f b6 c0             	movzbl %al,%eax
   1096a:	39 c6                	cmp    %eax,%esi
   1096c:	0f 9d c0             	setge  %al
   1096f:	0f b6 c0             	movzbl %al,%eax
   10972:	39 c1                	cmp    %eax,%ecx
   10974:	0f 9e c0             	setle  %al
   10977:	0f b6 c0             	movzbl %al,%eax
   1097a:	89 d6                	mov    %edx,%esi
   1097c:	89 c7                	mov    %eax,%edi
   1097e:	e8 0b 54 ff ff       	callq  5d8e <safe_div_func_uint16_t_u_u>
   10983:	0f b6 95 1c d8 ff ff 	movzbl -0x27e4(%rbp),%edx
   1098a:	0f b6 d2             	movzbl %dl,%edx
   1098d:	66 39 d0             	cmp    %dx,%ax
   10990:	0f 93 c0             	setae  %al
   10993:	44 0f b6 e0          	movzbl %al,%r12d
   10997:	8b 85 f0 d8 ff ff    	mov    -0x2710(%rbp),%eax
   1099d:	0f b6 c0             	movzbl %al,%eax
   109a0:	be 05 00 00 00       	mov    $0x5,%esi
   109a5:	89 c7                	mov    %eax,%edi
   109a7:	e8 a0 52 ff ff       	callq  5c4c <safe_lshift_func_uint8_t_u_u>
   109ac:	0f b6 d0             	movzbl %al,%edx
   109af:	0f b7 05 fa 91 00 00 	movzwl 0x91fa(%rip),%eax        # 19bb0 <g_1451>
   109b6:	89 c1                	mov    %eax,%ecx
   109b8:	44 89 e0             	mov    %r12d,%eax
   109bb:	31 c8                	xor    %ecx,%eax
   109bd:	66 89 05 ec 91 00 00 	mov    %ax,0x91ec(%rip)        # 19bb0 <g_1451>
   109c4:	0f b7 05 e5 91 00 00 	movzwl 0x91e5(%rip),%eax        # 19bb0 <g_1451>
   109cb:	0f b7 c0             	movzwl %ax,%eax
   109ce:	39 c2                	cmp    %eax,%edx
   109d0:	0f 9d c0             	setge  %al
   109d3:	44 0f b6 e0          	movzbl %al,%r12d
   109d7:	48 8b 85 08 d8 ff ff 	mov    -0x27f8(%rbp),%rax
   109de:	0f b6 00             	movzbl (%rax),%eax
   109e1:	0f be d0             	movsbl %al,%edx
   109e4:	8b 85 2c d9 ff ff    	mov    -0x26d4(%rbp),%eax
   109ea:	0f be c0             	movsbl %al,%eax
   109ed:	89 d6                	mov    %edx,%esi
   109ef:	89 c7                	mov    %eax,%edi
   109f1:	e8 1c 48 ff ff       	callq  5212 <safe_mul_func_int8_t_s_s>
   109f6:	48 0f be c0          	movsbq %al,%rax
   109fa:	4c 89 e6             	mov    %r12,%rsi
   109fd:	48 89 c7             	mov    %rax,%rdi
   10a00:	e8 46 56 ff ff       	callq  604b <safe_sub_func_uint64_t_u_u>
   10a05:	0f b7 c0             	movzwl %ax,%eax
   10a08:	be 09 00 00 00       	mov    $0x9,%esi
   10a0d:	89 c7                	mov    %eax,%edi
   10a0f:	e8 48 53 ff ff       	callq  5d5c <safe_mod_func_uint16_t_u_u>
   10a14:	0f b7 d0             	movzwl %ax,%edx
   10a17:	48 8b 85 10 d8 ff ff 	mov    -0x27f0(%rbp),%rax
   10a1e:	48 31 c2             	xor    %rax,%rdx
   10a21:	48 8b 85 10 d8 ff ff 	mov    -0x27f0(%rbp),%rax
   10a28:	48 39 c2             	cmp    %rax,%rdx
   10a2b:	0f 96 c0             	setbe  %al
   10a2e:	0f b6 c0             	movzbl %al,%eax
   10a31:	89 de                	mov    %ebx,%esi
   10a33:	89 c7                	mov    %eax,%edi
   10a35:	e8 1b 4a ff ff       	callq  5455 <safe_div_func_int16_t_s_s>
   10a3a:	b8 01 00 00 00       	mov    $0x1,%eax
   10a3f:	31 85 34 d9 ff ff    	xor    %eax,-0x26cc(%rbp)
   10a45:	48 8b 85 28 dc ff ff 	mov    -0x23d8(%rbp),%rax
   10a4c:	48 8b 00             	mov    (%rax),%rax
   10a4f:	8b 00                	mov    (%rax),%eax
   10a51:	0f be d0             	movsbl %al,%edx
   10a54:	0f b6 85 1c d8 ff ff 	movzbl -0x27e4(%rbp),%eax
   10a5b:	0f b6 c0             	movzbl %al,%eax
   10a5e:	39 85 34 d9 ff ff    	cmp    %eax,-0x26cc(%rbp)
   10a64:	0f 9c c0             	setl   %al
   10a67:	0f b6 c0             	movzbl %al,%eax
   10a6a:	89 d6                	mov    %edx,%esi
   10a6c:	89 c7                	mov    %eax,%edi
   10a6e:	e8 f7 47 ff ff       	callq  526a <safe_div_func_int8_t_s_s>
   10a73:	48 8b 85 08 d8 ff ff 	mov    -0x27f8(%rbp),%rax
   10a7a:	0f b6 00             	movzbl (%rax),%eax
   10a7d:	0f be d0             	movsbl %al,%edx
   10a80:	8b 85 2c d9 ff ff    	mov    -0x26d4(%rbp),%eax
   10a86:	48 98                	cltq   
   10a88:	48 39 85 d0 dc ff ff 	cmp    %rax,-0x2330(%rbp)
   10a8f:	0f 94 c0             	sete   %al
   10a92:	0f b6 c0             	movzbl %al,%eax
   10a95:	09 85 f0 d8 ff ff    	or     %eax,-0x2710(%rbp)
   10a9b:	81 bd f0 d8 ff ff ef 	cmpl   $0x4f63abef,-0x2710(%rbp)
   10aa2:	ab 63 4f 
   10aa5:	0f 94 c0             	sete   %al
   10aa8:	0f b6 c0             	movzbl %al,%eax
   10aab:	39 c2                	cmp    %eax,%edx
   10aad:	0f 9e c0             	setle  %al
   10ab0:	0f b6 c0             	movzbl %al,%eax
   10ab3:	39 85 2c d9 ff ff    	cmp    %eax,-0x26d4(%rbp)
   10ab9:	0f 94 c0             	sete   %al
   10abc:	0f b6 d0             	movzbl %al,%edx
   10abf:	48 8b 85 00 d8 ff ff 	mov    -0x2800(%rbp),%rax
   10ac6:	0f b6 00             	movzbl (%rax),%eax
   10ac9:	0f be c0             	movsbl %al,%eax
   10acc:	39 c2                	cmp    %eax,%edx
   10ace:	0f 9c c0             	setl   %al
   10ad1:	0f b6 c0             	movzbl %al,%eax
   10ad4:	48 89 c6             	mov    %rax,%rsi
   10ad7:	bf 01 00 00 00       	mov    $0x1,%edi
   10adc:	e8 c7 4d ff ff       	callq  58a8 <safe_sub_func_int64_t_s_s>
   10ae1:	8b 95 30 d9 ff ff    	mov    -0x26d0(%rbp),%edx
   10ae7:	48 63 d2             	movslq %edx,%rdx
   10aea:	48 39 d0             	cmp    %rdx,%rax
   10aed:	0f 9d c0             	setge  %al
   10af0:	0f b6 c8             	movzbl %al,%ecx
   10af3:	48 8b 85 00 d8 ff ff 	mov    -0x2800(%rbp),%rax
   10afa:	0f b6 00             	movzbl (%rax),%eax
   10afd:	0f be d0             	movsbl %al,%edx
   10b00:	48 8b 05 19 a5 00 00 	mov    0xa519(%rip),%rax        # 1b020 <g_858>
   10b07:	09 ca                	or     %ecx,%edx
   10b09:	89 10                	mov    %edx,(%rax)
   10b0b:	48 8b 85 10 d8 ff ff 	mov    -0x27f0(%rbp),%rax
   10b12:	48 8b 5d c8          	mov    -0x38(%rbp),%rbx
   10b16:	64 48 33 1c 25 28 00 	xor    %fs:0x28,%rbx
   10b1d:	00 00 
   10b1f:	74 05                	je     10b26 <func_27+0x7e0c>
   10b21:	e8 4a 45 ff ff       	callq  5070 <__stack_chk_fail@plt>
   10b26:	48 81 c4 e8 27 00 00 	add    $0x27e8,%rsp
   10b2d:	5b                   	pop    %rbx
   10b2e:	41 5c                	pop    %r12
   10b30:	41 5d                	pop    %r13
   10b32:	41 5e                	pop    %r14
   10b34:	41 5f                	pop    %r15
   10b36:	5d                   	pop    %rbp
   10b37:	c3                   	retq   

0000000000010b38 <func_33>:
   10b38:	f3 0f 1e fa          	endbr64 
   10b3c:	55                   	push   %rbp
   10b3d:	48 89 e5             	mov    %rsp,%rbp
   10b40:	48 81 ec b0 0e 00 00 	sub    $0xeb0,%rsp
   10b47:	48 89 bd 78 f1 ff ff 	mov    %rdi,-0xe88(%rbp)
   10b4e:	48 89 b5 70 f1 ff ff 	mov    %rsi,-0xe90(%rbp)
   10b55:	48 89 95 68 f1 ff ff 	mov    %rdx,-0xe98(%rbp)
   10b5c:	48 89 8d 60 f1 ff ff 	mov    %rcx,-0xea0(%rbp)
   10b63:	4c 89 85 58 f1 ff ff 	mov    %r8,-0xea8(%rbp)
   10b6a:	64 48 8b 04 25 28 00 	mov    %fs:0x28,%rax
   10b71:	00 00 
   10b73:	48 89 45 f8          	mov    %rax,-0x8(%rbp)
   10b77:	31 c0                	xor    %eax,%eax
   10b79:	c7 85 90 f1 ff ff 15 	movl   $0xdcab3915,-0xe70(%rbp)
   10b80:	39 ab dc 
   10b83:	48 8d 05 be b4 00 00 	lea    0xb4be(%rip),%rax        # 1c048 <g_53>
   10b8a:	48 89 85 30 f3 ff ff 	mov    %rax,-0xcd0(%rbp)
   10b91:	48 8d 05 b0 b4 00 00 	lea    0xb4b0(%rip),%rax        # 1c048 <g_53>
   10b98:	48 89 85 38 f3 ff ff 	mov    %rax,-0xcc8(%rbp)
   10b9f:	48 8d 05 a2 b4 00 00 	lea    0xb4a2(%rip),%rax        # 1c048 <g_53>
   10ba6:	48 89 85 40 f3 ff ff 	mov    %rax,-0xcc0(%rbp)
   10bad:	48 8d 05 94 b4 00 00 	lea    0xb494(%rip),%rax        # 1c048 <g_53>
   10bb4:	48 89 85 48 f3 ff ff 	mov    %rax,-0xcb8(%rbp)
   10bbb:	48 8d 05 86 b4 00 00 	lea    0xb486(%rip),%rax        # 1c048 <g_53>
   10bc2:	48 89 85 50 f3 ff ff 	mov    %rax,-0xcb0(%rbp)
   10bc9:	48 8d 05 78 b4 00 00 	lea    0xb478(%rip),%rax        # 1c048 <g_53>
   10bd0:	48 89 85 58 f3 ff ff 	mov    %rax,-0xca8(%rbp)
   10bd7:	48 8d 05 6a b4 00 00 	lea    0xb46a(%rip),%rax        # 1c048 <g_53>
   10bde:	48 89 85 60 f3 ff ff 	mov    %rax,-0xca0(%rbp)
   10be5:	48 8d 05 5c b4 00 00 	lea    0xb45c(%rip),%rax        # 1c048 <g_53>
   10bec:	48 89 85 68 f3 ff ff 	mov    %rax,-0xc98(%rbp)
   10bf3:	48 b8 7e 59 45 02 e2 	movabs $0x42ea6ae20245597e,%rax
   10bfa:	6a ea 42 
   10bfd:	48 89 85 e8 f1 ff ff 	mov    %rax,-0xe18(%rbp)
   10c04:	c6 85 82 f1 ff ff fb 	movb   $0xfb,-0xe7e(%rbp)
   10c0b:	c6 85 83 f1 ff ff 80 	movb   $0x80,-0xe7d(%rbp)
   10c12:	66 c7 85 88 f1 ff ff 	movw   $0x2b88,-0xe78(%rbp)
   10c19:	88 2b 
   10c1b:	c7 85 b0 f1 ff ff f9 	movl   $0xfffffff9,-0xe50(%rbp)
   10c22:	ff ff ff 
   10c25:	48 8d 05 5c 84 00 00 	lea    0x845c(%rip),%rax        # 19088 <g_143>
   10c2c:	48 89 85 20 f2 ff ff 	mov    %rax,-0xde0(%rbp)
   10c33:	c7 85 94 f1 ff ff fd 	movl   $0xfffffffd,-0xe6c(%rbp)
   10c3a:	ff ff ff 
   10c3d:	c7 85 b4 f1 ff ff 01 	movl   $0x1,-0xe4c(%rbp)
   10c44:	00 00 00 
   10c47:	66 c7 85 86 f1 ff ff 	movw   $0x1,-0xe7a(%rbp)
   10c4e:	01 00 
   10c50:	c7 85 8c f1 ff ff ff 	movl   $0xffffffff,-0xe74(%rbp)
   10c57:	ff ff ff 
   10c5a:	48 8d 05 2b 84 00 00 	lea    0x842b(%rip),%rax        # 1908c <g_156>
   10c61:	48 89 85 28 f2 ff ff 	mov    %rax,-0xdd8(%rbp)
   10c68:	c6 85 84 f1 ff ff 14 	movb   $0x14,-0xe7c(%rbp)
   10c6f:	48 8d 85 86 f1 ff ff 	lea    -0xe7a(%rbp),%rax
   10c76:	48 89 85 f0 f1 ff ff 	mov    %rax,-0xe10(%rbp)
   10c7d:	48 8d 85 f0 f1 ff ff 	lea    -0xe10(%rbp),%rax
   10c84:	48 89 85 30 f2 ff ff 	mov    %rax,-0xdd0(%rbp)
   10c8b:	48 c7 85 38 f2 ff ff 	movq   $0xfffffffffffffffe,-0xdc8(%rbp)
   10c92:	fe ff ff ff 
   10c96:	c7 85 98 f1 ff ff 00 	movl   $0x0,-0xe68(%rbp)
   10c9d:	00 00 00 
   10ca0:	eb 19                	jmp    10cbb <func_33+0x183>
   10ca2:	8b 85 98 f1 ff ff    	mov    -0xe68(%rbp),%eax
   10ca8:	48 98                	cltq   
   10caa:	66 c7 84 45 aa f2 ff 	movw   $0xfffb,-0xd56(%rbp,%rax,2)
   10cb1:	ff fb ff 
   10cb4:	83 85 98 f1 ff ff 01 	addl   $0x1,-0xe68(%rbp)
   10cbb:	83 bd 98 f1 ff ff 00 	cmpl   $0x0,-0xe68(%rbp)
   10cc2:	7e de                	jle    10ca2 <func_33+0x16a>
   10cc4:	c7 85 98 f1 ff ff 00 	movl   $0x0,-0xe68(%rbp)
   10ccb:	00 00 00 
   10cce:	eb 1a                	jmp    10cea <func_33+0x1b2>
   10cd0:	8b 85 98 f1 ff ff    	mov    -0xe68(%rbp),%eax
   10cd6:	48 98                	cltq   
   10cd8:	c7 84 85 ac f2 ff ff 	movl   $0x46cc7dbc,-0xd54(%rbp,%rax,4)
   10cdf:	bc 7d cc 46 
   10ce3:	83 85 98 f1 ff ff 01 	addl   $0x1,-0xe68(%rbp)
   10cea:	83 bd 98 f1 ff ff 00 	cmpl   $0x0,-0xe68(%rbp)
   10cf1:	7e dd                	jle    10cd0 <func_33+0x198>
   10cf3:	c7 85 98 f1 ff ff 00 	movl   $0x0,-0xe68(%rbp)
   10cfa:	00 00 00 
   10cfd:	eb 1b                	jmp    10d1a <func_33+0x1e2>
   10cff:	8b 85 98 f1 ff ff    	mov    -0xe68(%rbp),%eax
   10d05:	48 98                	cltq   
   10d07:	48 c7 84 c5 b0 f2 ff 	movq   $0x8,-0xd50(%rbp,%rax,8)
   10d0e:	ff 08 00 00 00 
   10d13:	83 85 98 f1 ff ff 01 	addl   $0x1,-0xe68(%rbp)
   10d1a:	83 bd 98 f1 ff ff 01 	cmpl   $0x1,-0xe68(%rbp)
   10d21:	7e dc                	jle    10cff <func_33+0x1c7>
   10d23:	48 c7 85 60 f1 ff ff 	movq   $0x0,-0xea0(%rbp)
   10d2a:	00 00 00 00 
   10d2e:	eb 2b                	jmp    10d5b <func_33+0x223>
   10d30:	48 8d 85 70 f8 ff ff 	lea    -0x790(%rbp),%rax
   10d37:	48 8d 15 e2 9b 00 00 	lea    0x9be2(%rip),%rdx        # 1a920 <g_2930+0xc10>
   10d3e:	b9 38 00 00 00       	mov    $0x38,%ecx
   10d43:	48 89 c7             	mov    %rax,%rdi
   10d46:	48 89 d6             	mov    %rdx,%rsi
   10d49:	f3 48 a5             	rep movsq %ds:(%rsi),%es:(%rdi)
   10d4c:	83 ad 90 f1 ff ff 01 	subl   $0x1,-0xe70(%rbp)
   10d53:	48 83 85 60 f1 ff ff 	addq   $0x1,-0xea0(%rbp)
   10d5a:	01 
   10d5b:	48 83 bd 60 f1 ff ff 	cmpq   $0xe,-0xea0(%rbp)
   10d62:	0e 
   10d63:	7e cb                	jle    10d30 <func_33+0x1f8>
   10d65:	48 be 07 10 ab 54 7f 	movabs $0x7268f57f54ab1007,%rsi
   10d6c:	f5 68 72 
   10d6f:	48 c7 c7 f9 ff ff ff 	mov    $0xfffffffffffffff9,%rdi
   10d76:	e8 7c 4c ff ff       	callq  59f7 <safe_div_func_int64_t_s_s>
   10d7b:	48 89 85 e8 f1 ff ff 	mov    %rax,-0xe18(%rbp)
   10d82:	48 c7 85 60 f1 ff ff 	movq   $0x0,-0xea0(%rbp)
   10d89:	00 00 00 00 
   10d8d:	e9 2b 01 00 00       	jmpq   10ebd <func_33+0x385>
   10d92:	c7 85 c8 f1 ff ff 08 	movl   $0x8,-0xe38(%rbp)
   10d99:	00 00 00 
   10d9c:	c7 85 cc f1 ff ff 26 	movl   $0x18ce6826,-0xe34(%rbp)
   10da3:	68 ce 18 
   10da6:	c7 85 d0 f1 ff ff 6f 	movl   $0xb76fef6f,-0xe30(%rbp)
   10dad:	ef 6f b7 
   10db0:	c7 85 d4 f1 ff ff 01 	movl   $0x1,-0xe2c(%rbp)
   10db7:	00 00 00 
   10dba:	c7 85 d8 f1 ff ff ff 	movl   $0xffffffff,-0xe28(%rbp)
   10dc1:	ff ff ff 
   10dc4:	c7 85 dc f1 ff ff 1e 	movl   $0xe6ee091e,-0xe24(%rbp)
   10dcb:	09 ee e6 
   10dce:	c7 85 e0 f1 ff ff 01 	movl   $0x196b4a01,-0xe20(%rbp)
   10dd5:	4a 6b 19 
   10dd8:	48 c7 85 78 f2 ff ff 	movq   $0x0,-0xd88(%rbp)
   10ddf:	00 00 00 00 
   10de3:	48 8d 85 70 f8 ff ff 	lea    -0x790(%rbp),%rax
   10dea:	48 83 c0 10          	add    $0x10,%rax
   10dee:	48 89 85 80 f2 ff ff 	mov    %rax,-0xd80(%rbp)
   10df5:	c7 85 e4 f1 ff ff ca 	movl   $0x3c8533ca,-0xe1c(%rbp)
   10dfc:	33 85 3c 
   10dff:	48 8d 85 e8 f1 ff ff 	lea    -0xe18(%rbp),%rax
   10e06:	48 89 85 88 f2 ff ff 	mov    %rax,-0xd78(%rbp)
   10e0d:	c6 85 85 f1 ff ff e8 	movb   $0xe8,-0xe7b(%rbp)
   10e14:	48 b8 1d f2 36 af 77 	movabs $0x8064e77af36f21d,%rax
   10e1b:	4e 06 08 
   10e1e:	48 89 85 90 f2 ff ff 	mov    %rax,-0xd70(%rbp)
   10e25:	48 c7 85 18 f2 ff ff 	movq   $0x0,-0xde8(%rbp)
   10e2c:	00 00 00 00 
   10e30:	48 8d 85 18 f2 ff ff 	lea    -0xde8(%rbp),%rax
   10e37:	48 89 85 98 f2 ff ff 	mov    %rax,-0xd68(%rbp)
   10e3e:	48 b8 82 82 54 b0 38 	movabs $0xbbaf738b0548282,%rax
   10e45:	f7 ba 0b 
   10e48:	48 89 85 a0 f2 ff ff 	mov    %rax,-0xd60(%rbp)
   10e4f:	c7 85 9c f1 ff ff 00 	movl   $0x0,-0xe64(%rbp)
   10e56:	00 00 00 
   10e59:	eb 1a                	jmp    10e75 <func_33+0x33d>
   10e5b:	8b 85 9c f1 ff ff    	mov    -0xe64(%rbp),%eax
   10e61:	48 98                	cltq   
   10e63:	c7 84 85 70 f4 ff ff 	movl   $0x4,-0xb90(%rbp,%rax,4)
   10e6a:	04 00 00 00 
   10e6e:	83 85 9c f1 ff ff 01 	addl   $0x1,-0xe64(%rbp)
   10e75:	83 bd 9c f1 ff ff 05 	cmpl   $0x5,-0xe64(%rbp)
   10e7c:	7e dd                	jle    10e5b <func_33+0x323>
   10e7e:	c7 85 9c f1 ff ff 00 	movl   $0x0,-0xe64(%rbp)
   10e85:	00 00 00 
   10e88:	eb 1b                	jmp    10ea5 <func_33+0x36d>
   10e8a:	8b 85 9c f1 ff ff    	mov    -0xe64(%rbp),%eax
   10e90:	48 98                	cltq   
   10e92:	48 c7 84 c5 70 f8 ff 	movq   $0x0,-0x790(%rbp,%rax,8)
   10e99:	ff 00 00 00 00 
   10e9e:	83 85 9c f1 ff ff 01 	addl   $0x1,-0xe64(%rbp)
   10ea5:	83 bd 9c f1 ff ff 02 	cmpl   $0x2,-0xe64(%rbp)
   10eac:	7e dc                	jle    10e8a <func_33+0x352>
   10eae:	83 ad e0 f1 ff ff 01 	subl   $0x1,-0xe20(%rbp)
   10eb5:	48 83 85 60 f1 ff ff 	addq   $0x1,-0xea0(%rbp)
   10ebc:	01 
   10ebd:	48 83 bd 60 f1 ff ff 	cmpq   $0x2,-0xea0(%rbp)
   10ec4:	02 
   10ec5:	0f 8e c7 fe ff ff    	jle    10d92 <func_33+0x25a>
   10ecb:	c7 85 8c f1 ff ff ed 	movl   $0xffffffed,-0xe74(%rbp)
   10ed2:	ff ff ff 
   10ed5:	e9 b1 12 00 00       	jmpq   1218b <func_33+0x1653>
   10eda:	48 8d 85 86 f1 ff ff 	lea    -0xe7a(%rbp),%rax
   10ee1:	48 89 85 f8 f1 ff ff 	mov    %rax,-0xe08(%rbp)
   10ee8:	48 8d 85 f8 f1 ff ff 	lea    -0xe08(%rbp),%rax
   10eef:	48 89 85 70 f8 ff ff 	mov    %rax,-0x790(%rbp)
   10ef6:	48 8d 85 f8 f1 ff ff 	lea    -0xe08(%rbp),%rax
   10efd:	48 89 85 78 f8 ff ff 	mov    %rax,-0x788(%rbp)
   10f04:	48 c7 85 80 f8 ff ff 	movq   $0x0,-0x780(%rbp)
   10f0b:	00 00 00 00 
   10f0f:	48 8d 85 f8 f1 ff ff 	lea    -0xe08(%rbp),%rax
   10f16:	48 89 85 88 f8 ff ff 	mov    %rax,-0x778(%rbp)
   10f1d:	48 8d 85 f8 f1 ff ff 	lea    -0xe08(%rbp),%rax
   10f24:	48 89 85 90 f8 ff ff 	mov    %rax,-0x770(%rbp)
   10f2b:	48 8d 85 f8 f1 ff ff 	lea    -0xe08(%rbp),%rax
   10f32:	48 89 85 98 f8 ff ff 	mov    %rax,-0x768(%rbp)
   10f39:	48 8d 85 f8 f1 ff ff 	lea    -0xe08(%rbp),%rax
   10f40:	48 89 85 a0 f8 ff ff 	mov    %rax,-0x760(%rbp)
   10f47:	48 8d 85 f8 f1 ff ff 	lea    -0xe08(%rbp),%rax
   10f4e:	48 89 85 a8 f8 ff ff 	mov    %rax,-0x758(%rbp)
   10f55:	48 8d 85 f8 f1 ff ff 	lea    -0xe08(%rbp),%rax
   10f5c:	48 89 85 b0 f8 ff ff 	mov    %rax,-0x750(%rbp)
   10f63:	48 8d 85 f8 f1 ff ff 	lea    -0xe08(%rbp),%rax
   10f6a:	48 89 85 b8 f8 ff ff 	mov    %rax,-0x748(%rbp)
   10f71:	48 8d 85 f8 f1 ff ff 	lea    -0xe08(%rbp),%rax
   10f78:	48 89 85 c0 f8 ff ff 	mov    %rax,-0x740(%rbp)
   10f7f:	48 8d 85 f8 f1 ff ff 	lea    -0xe08(%rbp),%rax
   10f86:	48 89 85 c8 f8 ff ff 	mov    %rax,-0x738(%rbp)
   10f8d:	48 8d 85 f8 f1 ff ff 	lea    -0xe08(%rbp),%rax
   10f94:	48 89 85 d0 f8 ff ff 	mov    %rax,-0x730(%rbp)
   10f9b:	48 8d 85 f8 f1 ff ff 	lea    -0xe08(%rbp),%rax
   10fa2:	48 89 85 d8 f8 ff ff 	mov    %rax,-0x728(%rbp)
   10fa9:	48 8d 85 f8 f1 ff ff 	lea    -0xe08(%rbp),%rax
   10fb0:	48 89 85 e0 f8 ff ff 	mov    %rax,-0x720(%rbp)
   10fb7:	48 c7 85 e8 f8 ff ff 	movq   $0x0,-0x718(%rbp)
   10fbe:	00 00 00 00 
   10fc2:	48 c7 85 f0 f8 ff ff 	movq   $0x0,-0x710(%rbp)
   10fc9:	00 00 00 00 
   10fcd:	48 8d 85 f8 f1 ff ff 	lea    -0xe08(%rbp),%rax
   10fd4:	48 89 85 f8 f8 ff ff 	mov    %rax,-0x708(%rbp)
   10fdb:	48 c7 85 00 f9 ff ff 	movq   $0x0,-0x700(%rbp)
   10fe2:	00 00 00 00 
   10fe6:	48 c7 85 08 f9 ff ff 	movq   $0x0,-0x6f8(%rbp)
   10fed:	00 00 00 00 
   10ff1:	48 8d 85 f8 f1 ff ff 	lea    -0xe08(%rbp),%rax
   10ff8:	48 89 85 10 f9 ff ff 	mov    %rax,-0x6f0(%rbp)
   10fff:	48 8d 85 f8 f1 ff ff 	lea    -0xe08(%rbp),%rax
   11006:	48 89 85 18 f9 ff ff 	mov    %rax,-0x6e8(%rbp)
   1100d:	48 c7 85 20 f9 ff ff 	movq   $0x0,-0x6e0(%rbp)
   11014:	00 00 00 00 
   11018:	48 8d 85 f8 f1 ff ff 	lea    -0xe08(%rbp),%rax
   1101f:	48 89 85 28 f9 ff ff 	mov    %rax,-0x6d8(%rbp)
   11026:	48 8d 85 f8 f1 ff ff 	lea    -0xe08(%rbp),%rax
   1102d:	48 89 85 30 f9 ff ff 	mov    %rax,-0x6d0(%rbp)
   11034:	48 8d 85 f8 f1 ff ff 	lea    -0xe08(%rbp),%rax
   1103b:	48 89 85 38 f9 ff ff 	mov    %rax,-0x6c8(%rbp)
   11042:	48 c7 85 40 f9 ff ff 	movq   $0x0,-0x6c0(%rbp)
   11049:	00 00 00 00 
   1104d:	48 8d 85 f8 f1 ff ff 	lea    -0xe08(%rbp),%rax
   11054:	48 89 85 48 f9 ff ff 	mov    %rax,-0x6b8(%rbp)
   1105b:	48 8d 85 f8 f1 ff ff 	lea    -0xe08(%rbp),%rax
   11062:	48 89 85 50 f9 ff ff 	mov    %rax,-0x6b0(%rbp)
   11069:	48 8d 85 f8 f1 ff ff 	lea    -0xe08(%rbp),%rax
   11070:	48 89 85 58 f9 ff ff 	mov    %rax,-0x6a8(%rbp)
   11077:	48 8d 85 f8 f1 ff ff 	lea    -0xe08(%rbp),%rax
   1107e:	48 89 85 60 f9 ff ff 	mov    %rax,-0x6a0(%rbp)
   11085:	48 8d 85 f8 f1 ff ff 	lea    -0xe08(%rbp),%rax
   1108c:	48 89 85 68 f9 ff ff 	mov    %rax,-0x698(%rbp)
   11093:	48 8d 85 f8 f1 ff ff 	lea    -0xe08(%rbp),%rax
   1109a:	48 89 85 70 f9 ff ff 	mov    %rax,-0x690(%rbp)
   110a1:	48 8d 85 f8 f1 ff ff 	lea    -0xe08(%rbp),%rax
   110a8:	48 89 85 78 f9 ff ff 	mov    %rax,-0x688(%rbp)
   110af:	48 8d 85 f8 f1 ff ff 	lea    -0xe08(%rbp),%rax
   110b6:	48 89 85 80 f9 ff ff 	mov    %rax,-0x680(%rbp)
   110bd:	48 c7 85 88 f9 ff ff 	movq   $0x0,-0x678(%rbp)
   110c4:	00 00 00 00 
   110c8:	48 8d 85 f8 f1 ff ff 	lea    -0xe08(%rbp),%rax
   110cf:	48 89 85 90 f9 ff ff 	mov    %rax,-0x670(%rbp)
   110d6:	48 8d 85 f8 f1 ff ff 	lea    -0xe08(%rbp),%rax
   110dd:	48 89 85 98 f9 ff ff 	mov    %rax,-0x668(%rbp)
   110e4:	48 8d 85 f8 f1 ff ff 	lea    -0xe08(%rbp),%rax
   110eb:	48 89 85 a0 f9 ff ff 	mov    %rax,-0x660(%rbp)
   110f2:	48 8d 85 f8 f1 ff ff 	lea    -0xe08(%rbp),%rax
   110f9:	48 89 85 a8 f9 ff ff 	mov    %rax,-0x658(%rbp)
   11100:	48 8d 85 f8 f1 ff ff 	lea    -0xe08(%rbp),%rax
   11107:	48 89 85 b0 f9 ff ff 	mov    %rax,-0x650(%rbp)
   1110e:	48 8d 85 f8 f1 ff ff 	lea    -0xe08(%rbp),%rax
   11115:	48 89 85 b8 f9 ff ff 	mov    %rax,-0x648(%rbp)
   1111c:	48 8d 85 f8 f1 ff ff 	lea    -0xe08(%rbp),%rax
   11123:	48 89 85 c0 f9 ff ff 	mov    %rax,-0x640(%rbp)
   1112a:	48 8d 85 f8 f1 ff ff 	lea    -0xe08(%rbp),%rax
   11131:	48 89 85 c8 f9 ff ff 	mov    %rax,-0x638(%rbp)
   11138:	48 8d 85 f8 f1 ff ff 	lea    -0xe08(%rbp),%rax
   1113f:	48 89 85 d0 f9 ff ff 	mov    %rax,-0x630(%rbp)
   11146:	48 8d 85 f8 f1 ff ff 	lea    -0xe08(%rbp),%rax
   1114d:	48 89 85 d8 f9 ff ff 	mov    %rax,-0x628(%rbp)
   11154:	48 8d 85 f8 f1 ff ff 	lea    -0xe08(%rbp),%rax
   1115b:	48 89 85 e0 f9 ff ff 	mov    %rax,-0x620(%rbp)
   11162:	48 c7 85 e8 f9 ff ff 	movq   $0x0,-0x618(%rbp)
   11169:	00 00 00 00 
   1116d:	48 8d 85 f8 f1 ff ff 	lea    -0xe08(%rbp),%rax
   11174:	48 89 85 f0 f9 ff ff 	mov    %rax,-0x610(%rbp)
   1117b:	48 8d 85 f8 f1 ff ff 	lea    -0xe08(%rbp),%rax
   11182:	48 89 85 f8 f9 ff ff 	mov    %rax,-0x608(%rbp)
   11189:	48 8d 85 f8 f1 ff ff 	lea    -0xe08(%rbp),%rax
   11190:	48 89 85 00 fa ff ff 	mov    %rax,-0x600(%rbp)
   11197:	48 8d 85 f8 f1 ff ff 	lea    -0xe08(%rbp),%rax
   1119e:	48 89 85 08 fa ff ff 	mov    %rax,-0x5f8(%rbp)
   111a5:	48 c7 85 10 fa ff ff 	movq   $0x0,-0x5f0(%rbp)
   111ac:	00 00 00 00 
   111b0:	48 8d 85 f8 f1 ff ff 	lea    -0xe08(%rbp),%rax
   111b7:	48 89 85 18 fa ff ff 	mov    %rax,-0x5e8(%rbp)
   111be:	48 8d 85 f8 f1 ff ff 	lea    -0xe08(%rbp),%rax
   111c5:	48 89 85 20 fa ff ff 	mov    %rax,-0x5e0(%rbp)
   111cc:	48 c7 85 28 fa ff ff 	movq   $0x0,-0x5d8(%rbp)
   111d3:	00 00 00 00 
   111d7:	48 8d 85 f8 f1 ff ff 	lea    -0xe08(%rbp),%rax
   111de:	48 89 85 30 fa ff ff 	mov    %rax,-0x5d0(%rbp)
   111e5:	48 8d 85 f8 f1 ff ff 	lea    -0xe08(%rbp),%rax
   111ec:	48 89 85 38 fa ff ff 	mov    %rax,-0x5c8(%rbp)
   111f3:	48 8d 85 f8 f1 ff ff 	lea    -0xe08(%rbp),%rax
   111fa:	48 89 85 40 fa ff ff 	mov    %rax,-0x5c0(%rbp)
   11201:	48 8d 85 f8 f1 ff ff 	lea    -0xe08(%rbp),%rax
   11208:	48 89 85 48 fa ff ff 	mov    %rax,-0x5b8(%rbp)
   1120f:	48 8d 85 f8 f1 ff ff 	lea    -0xe08(%rbp),%rax
   11216:	48 89 85 50 fa ff ff 	mov    %rax,-0x5b0(%rbp)
   1121d:	48 c7 85 58 fa ff ff 	movq   $0x0,-0x5a8(%rbp)
   11224:	00 00 00 00 
   11228:	48 8d 85 f8 f1 ff ff 	lea    -0xe08(%rbp),%rax
   1122f:	48 89 85 60 fa ff ff 	mov    %rax,-0x5a0(%rbp)
   11236:	48 8d 85 f8 f1 ff ff 	lea    -0xe08(%rbp),%rax
   1123d:	48 89 85 68 fa ff ff 	mov    %rax,-0x598(%rbp)
   11244:	48 8d 85 f8 f1 ff ff 	lea    -0xe08(%rbp),%rax
   1124b:	48 89 85 70 fa ff ff 	mov    %rax,-0x590(%rbp)
   11252:	48 c7 85 78 fa ff ff 	movq   $0x0,-0x588(%rbp)
   11259:	00 00 00 00 
   1125d:	48 8d 85 f8 f1 ff ff 	lea    -0xe08(%rbp),%rax
   11264:	48 89 85 80 fa ff ff 	mov    %rax,-0x580(%rbp)
   1126b:	48 8d 85 f8 f1 ff ff 	lea    -0xe08(%rbp),%rax
   11272:	48 89 85 88 fa ff ff 	mov    %rax,-0x578(%rbp)
   11279:	48 8d 85 f8 f1 ff ff 	lea    -0xe08(%rbp),%rax
   11280:	48 89 85 90 fa ff ff 	mov    %rax,-0x570(%rbp)
   11287:	48 c7 85 98 fa ff ff 	movq   $0x0,-0x568(%rbp)
   1128e:	00 00 00 00 
   11292:	48 8d 85 f8 f1 ff ff 	lea    -0xe08(%rbp),%rax
   11299:	48 89 85 a0 fa ff ff 	mov    %rax,-0x560(%rbp)
   112a0:	48 8d 85 f8 f1 ff ff 	lea    -0xe08(%rbp),%rax
   112a7:	48 89 85 a8 fa ff ff 	mov    %rax,-0x558(%rbp)
   112ae:	48 8d 85 f8 f1 ff ff 	lea    -0xe08(%rbp),%rax
   112b5:	48 89 85 b0 fa ff ff 	mov    %rax,-0x550(%rbp)
   112bc:	48 8d 85 f8 f1 ff ff 	lea    -0xe08(%rbp),%rax
   112c3:	48 89 85 b8 fa ff ff 	mov    %rax,-0x548(%rbp)
   112ca:	48 8d 85 f8 f1 ff ff 	lea    -0xe08(%rbp),%rax
   112d1:	48 89 85 c0 fa ff ff 	mov    %rax,-0x540(%rbp)
   112d8:	48 8d 85 f8 f1 ff ff 	lea    -0xe08(%rbp),%rax
   112df:	48 89 85 c8 fa ff ff 	mov    %rax,-0x538(%rbp)
   112e6:	48 8d 85 f8 f1 ff ff 	lea    -0xe08(%rbp),%rax
   112ed:	48 89 85 d0 fa ff ff 	mov    %rax,-0x530(%rbp)
   112f4:	48 c7 85 d8 fa ff ff 	movq   $0x0,-0x528(%rbp)
   112fb:	00 00 00 00 
   112ff:	48 c7 85 e0 fa ff ff 	movq   $0x0,-0x520(%rbp)
   11306:	00 00 00 00 
   1130a:	48 8d 85 f8 f1 ff ff 	lea    -0xe08(%rbp),%rax
   11311:	48 89 85 e8 fa ff ff 	mov    %rax,-0x518(%rbp)
   11318:	48 8d 85 f8 f1 ff ff 	lea    -0xe08(%rbp),%rax
   1131f:	48 89 85 f0 fa ff ff 	mov    %rax,-0x510(%rbp)
   11326:	48 8d 85 f8 f1 ff ff 	lea    -0xe08(%rbp),%rax
   1132d:	48 89 85 f8 fa ff ff 	mov    %rax,-0x508(%rbp)
   11334:	48 8d 85 f8 f1 ff ff 	lea    -0xe08(%rbp),%rax
   1133b:	48 89 85 00 fb ff ff 	mov    %rax,-0x500(%rbp)
   11342:	48 8d 85 f8 f1 ff ff 	lea    -0xe08(%rbp),%rax
   11349:	48 89 85 08 fb ff ff 	mov    %rax,-0x4f8(%rbp)
   11350:	48 8d 85 f8 f1 ff ff 	lea    -0xe08(%rbp),%rax
   11357:	48 89 85 10 fb ff ff 	mov    %rax,-0x4f0(%rbp)
   1135e:	48 8d 85 f8 f1 ff ff 	lea    -0xe08(%rbp),%rax
   11365:	48 89 85 18 fb ff ff 	mov    %rax,-0x4e8(%rbp)
   1136c:	48 c7 85 20 fb ff ff 	movq   $0x0,-0x4e0(%rbp)
   11373:	00 00 00 00 
   11377:	48 8d 85 f8 f1 ff ff 	lea    -0xe08(%rbp),%rax
   1137e:	48 89 85 28 fb ff ff 	mov    %rax,-0x4d8(%rbp)
   11385:	48 8d 85 f8 f1 ff ff 	lea    -0xe08(%rbp),%rax
   1138c:	48 89 85 30 fb ff ff 	mov    %rax,-0x4d0(%rbp)
   11393:	48 8d 85 f8 f1 ff ff 	lea    -0xe08(%rbp),%rax
   1139a:	48 89 85 38 fb ff ff 	mov    %rax,-0x4c8(%rbp)
   113a1:	48 8d 85 f8 f1 ff ff 	lea    -0xe08(%rbp),%rax
   113a8:	48 89 85 40 fb ff ff 	mov    %rax,-0x4c0(%rbp)
   113af:	48 8d 85 f8 f1 ff ff 	lea    -0xe08(%rbp),%rax
   113b6:	48 89 85 48 fb ff ff 	mov    %rax,-0x4b8(%rbp)
   113bd:	48 8d 85 f8 f1 ff ff 	lea    -0xe08(%rbp),%rax
   113c4:	48 89 85 50 fb ff ff 	mov    %rax,-0x4b0(%rbp)
   113cb:	48 8d 85 f8 f1 ff ff 	lea    -0xe08(%rbp),%rax
   113d2:	48 89 85 58 fb ff ff 	mov    %rax,-0x4a8(%rbp)
   113d9:	48 8d 85 f8 f1 ff ff 	lea    -0xe08(%rbp),%rax
   113e0:	48 89 85 60 fb ff ff 	mov    %rax,-0x4a0(%rbp)
   113e7:	48 8d 85 f8 f1 ff ff 	lea    -0xe08(%rbp),%rax
   113ee:	48 89 85 68 fb ff ff 	mov    %rax,-0x498(%rbp)
   113f5:	48 8d 85 f8 f1 ff ff 	lea    -0xe08(%rbp),%rax
   113fc:	48 89 85 70 fb ff ff 	mov    %rax,-0x490(%rbp)
   11403:	48 8d 85 f8 f1 ff ff 	lea    -0xe08(%rbp),%rax
   1140a:	48 89 85 78 fb ff ff 	mov    %rax,-0x488(%rbp)
   11411:	48 8d 85 f8 f1 ff ff 	lea    -0xe08(%rbp),%rax
   11418:	48 89 85 80 fb ff ff 	mov    %rax,-0x480(%rbp)
   1141f:	48 8d 85 f8 f1 ff ff 	lea    -0xe08(%rbp),%rax
   11426:	48 89 85 88 fb ff ff 	mov    %rax,-0x478(%rbp)
   1142d:	48 8d 85 f8 f1 ff ff 	lea    -0xe08(%rbp),%rax
   11434:	48 89 85 90 fb ff ff 	mov    %rax,-0x470(%rbp)
   1143b:	48 8d 85 f8 f1 ff ff 	lea    -0xe08(%rbp),%rax
   11442:	48 89 85 98 fb ff ff 	mov    %rax,-0x468(%rbp)
   11449:	48 8d 85 f8 f1 ff ff 	lea    -0xe08(%rbp),%rax
   11450:	48 89 85 a0 fb ff ff 	mov    %rax,-0x460(%rbp)
   11457:	48 8d 85 f8 f1 ff ff 	lea    -0xe08(%rbp),%rax
   1145e:	48 89 85 a8 fb ff ff 	mov    %rax,-0x458(%rbp)
   11465:	48 8d 85 f8 f1 ff ff 	lea    -0xe08(%rbp),%rax
   1146c:	48 89 85 b0 fb ff ff 	mov    %rax,-0x450(%rbp)
   11473:	48 8d 85 f8 f1 ff ff 	lea    -0xe08(%rbp),%rax
   1147a:	48 89 85 b8 fb ff ff 	mov    %rax,-0x448(%rbp)
   11481:	48 8d 85 f8 f1 ff ff 	lea    -0xe08(%rbp),%rax
   11488:	48 89 85 c0 fb ff ff 	mov    %rax,-0x440(%rbp)
   1148f:	48 8d 85 f8 f1 ff ff 	lea    -0xe08(%rbp),%rax
   11496:	48 89 85 c8 fb ff ff 	mov    %rax,-0x438(%rbp)
   1149d:	48 8d 85 f8 f1 ff ff 	lea    -0xe08(%rbp),%rax
   114a4:	48 89 85 d0 fb ff ff 	mov    %rax,-0x430(%rbp)
   114ab:	48 8d 85 f8 f1 ff ff 	lea    -0xe08(%rbp),%rax
   114b2:	48 89 85 d8 fb ff ff 	mov    %rax,-0x428(%rbp)
   114b9:	48 c7 85 e0 fb ff ff 	movq   $0x0,-0x420(%rbp)
   114c0:	00 00 00 00 
   114c4:	48 8d 85 f8 f1 ff ff 	lea    -0xe08(%rbp),%rax
   114cb:	48 89 85 e8 fb ff ff 	mov    %rax,-0x418(%rbp)
   114d2:	48 8d 85 f8 f1 ff ff 	lea    -0xe08(%rbp),%rax
   114d9:	48 89 85 f0 fb ff ff 	mov    %rax,-0x410(%rbp)
   114e0:	48 8d 85 f8 f1 ff ff 	lea    -0xe08(%rbp),%rax
   114e7:	48 89 85 f8 fb ff ff 	mov    %rax,-0x408(%rbp)
   114ee:	48 c7 85 00 fc ff ff 	movq   $0x0,-0x400(%rbp)
   114f5:	00 00 00 00 
   114f9:	48 8d 85 f8 f1 ff ff 	lea    -0xe08(%rbp),%rax
   11500:	48 89 85 08 fc ff ff 	mov    %rax,-0x3f8(%rbp)
   11507:	48 c7 85 10 fc ff ff 	movq   $0x0,-0x3f0(%rbp)
   1150e:	00 00 00 00 
   11512:	48 8d 85 f8 f1 ff ff 	lea    -0xe08(%rbp),%rax
   11519:	48 89 85 18 fc ff ff 	mov    %rax,-0x3e8(%rbp)
   11520:	48 8d 85 f8 f1 ff ff 	lea    -0xe08(%rbp),%rax
   11527:	48 89 85 20 fc ff ff 	mov    %rax,-0x3e0(%rbp)
   1152e:	48 8d 85 f8 f1 ff ff 	lea    -0xe08(%rbp),%rax
   11535:	48 89 85 28 fc ff ff 	mov    %rax,-0x3d8(%rbp)
   1153c:	48 8d 85 f8 f1 ff ff 	lea    -0xe08(%rbp),%rax
   11543:	48 89 85 30 fc ff ff 	mov    %rax,-0x3d0(%rbp)
   1154a:	48 8d 85 f8 f1 ff ff 	lea    -0xe08(%rbp),%rax
   11551:	48 89 85 38 fc ff ff 	mov    %rax,-0x3c8(%rbp)
   11558:	48 8d 85 f8 f1 ff ff 	lea    -0xe08(%rbp),%rax
   1155f:	48 89 85 40 fc ff ff 	mov    %rax,-0x3c0(%rbp)
   11566:	48 8d 85 f8 f1 ff ff 	lea    -0xe08(%rbp),%rax
   1156d:	48 89 85 48 fc ff ff 	mov    %rax,-0x3b8(%rbp)
   11574:	48 8d 85 f8 f1 ff ff 	lea    -0xe08(%rbp),%rax
   1157b:	48 89 85 50 fc ff ff 	mov    %rax,-0x3b0(%rbp)
   11582:	48 8d 85 f8 f1 ff ff 	lea    -0xe08(%rbp),%rax
   11589:	48 89 85 58 fc ff ff 	mov    %rax,-0x3a8(%rbp)
   11590:	48 8d 85 f8 f1 ff ff 	lea    -0xe08(%rbp),%rax
   11597:	48 89 85 60 fc ff ff 	mov    %rax,-0x3a0(%rbp)
   1159e:	48 8d 85 f8 f1 ff ff 	lea    -0xe08(%rbp),%rax
   115a5:	48 89 85 68 fc ff ff 	mov    %rax,-0x398(%rbp)
   115ac:	48 8d 85 f8 f1 ff ff 	lea    -0xe08(%rbp),%rax
   115b3:	48 89 85 70 fc ff ff 	mov    %rax,-0x390(%rbp)
   115ba:	48 8d 85 f8 f1 ff ff 	lea    -0xe08(%rbp),%rax
   115c1:	48 89 85 78 fc ff ff 	mov    %rax,-0x388(%rbp)
   115c8:	48 c7 85 80 fc ff ff 	movq   $0x0,-0x380(%rbp)
   115cf:	00 00 00 00 
   115d3:	48 8d 85 f8 f1 ff ff 	lea    -0xe08(%rbp),%rax
   115da:	48 89 85 88 fc ff ff 	mov    %rax,-0x378(%rbp)
   115e1:	48 8d 85 f8 f1 ff ff 	lea    -0xe08(%rbp),%rax
   115e8:	48 89 85 90 fc ff ff 	mov    %rax,-0x370(%rbp)
   115ef:	48 8d 85 f8 f1 ff ff 	lea    -0xe08(%rbp),%rax
   115f6:	48 89 85 98 fc ff ff 	mov    %rax,-0x368(%rbp)
   115fd:	48 8d 85 f8 f1 ff ff 	lea    -0xe08(%rbp),%rax
   11604:	48 89 85 a0 fc ff ff 	mov    %rax,-0x360(%rbp)
   1160b:	48 8d 85 f8 f1 ff ff 	lea    -0xe08(%rbp),%rax
   11612:	48 89 85 a8 fc ff ff 	mov    %rax,-0x358(%rbp)
   11619:	48 c7 85 b0 fc ff ff 	movq   $0x0,-0x350(%rbp)
   11620:	00 00 00 00 
   11624:	48 c7 85 b8 fc ff ff 	movq   $0x0,-0x348(%rbp)
   1162b:	00 00 00 00 
   1162f:	48 8d 85 f8 f1 ff ff 	lea    -0xe08(%rbp),%rax
   11636:	48 89 85 c0 fc ff ff 	mov    %rax,-0x340(%rbp)
   1163d:	48 c7 85 c8 fc ff ff 	movq   $0x0,-0x338(%rbp)
   11644:	00 00 00 00 
   11648:	48 8d 85 f8 f1 ff ff 	lea    -0xe08(%rbp),%rax
   1164f:	48 89 85 d0 fc ff ff 	mov    %rax,-0x330(%rbp)
   11656:	48 8d 85 f8 f1 ff ff 	lea    -0xe08(%rbp),%rax
   1165d:	48 89 85 d8 fc ff ff 	mov    %rax,-0x328(%rbp)
   11664:	48 8d 85 f8 f1 ff ff 	lea    -0xe08(%rbp),%rax
   1166b:	48 89 85 e0 fc ff ff 	mov    %rax,-0x320(%rbp)
   11672:	48 8d 85 f8 f1 ff ff 	lea    -0xe08(%rbp),%rax
   11679:	48 89 85 e8 fc ff ff 	mov    %rax,-0x318(%rbp)
   11680:	48 8d 85 f8 f1 ff ff 	lea    -0xe08(%rbp),%rax
   11687:	48 89 85 f0 fc ff ff 	mov    %rax,-0x310(%rbp)
   1168e:	48 8d 85 f8 f1 ff ff 	lea    -0xe08(%rbp),%rax
   11695:	48 89 85 f8 fc ff ff 	mov    %rax,-0x308(%rbp)
   1169c:	48 8d 85 f8 f1 ff ff 	lea    -0xe08(%rbp),%rax
   116a3:	48 89 85 00 fd ff ff 	mov    %rax,-0x300(%rbp)
   116aa:	48 8d 85 f8 f1 ff ff 	lea    -0xe08(%rbp),%rax
   116b1:	48 89 85 08 fd ff ff 	mov    %rax,-0x2f8(%rbp)
   116b8:	48 8d 85 f8 f1 ff ff 	lea    -0xe08(%rbp),%rax
   116bf:	48 89 85 10 fd ff ff 	mov    %rax,-0x2f0(%rbp)
   116c6:	48 8d 85 f8 f1 ff ff 	lea    -0xe08(%rbp),%rax
   116cd:	48 89 85 18 fd ff ff 	mov    %rax,-0x2e8(%rbp)
   116d4:	48 c7 85 20 fd ff ff 	movq   $0x0,-0x2e0(%rbp)
   116db:	00 00 00 00 
   116df:	48 8d 85 f8 f1 ff ff 	lea    -0xe08(%rbp),%rax
   116e6:	48 89 85 28 fd ff ff 	mov    %rax,-0x2d8(%rbp)
   116ed:	48 c7 85 30 fd ff ff 	movq   $0x0,-0x2d0(%rbp)
   116f4:	00 00 00 00 
   116f8:	48 c7 85 38 fd ff ff 	movq   $0x0,-0x2c8(%rbp)
   116ff:	00 00 00 00 
   11703:	48 8d 85 f8 f1 ff ff 	lea    -0xe08(%rbp),%rax
   1170a:	48 89 85 40 fd ff ff 	mov    %rax,-0x2c0(%rbp)
   11711:	48 c7 85 48 fd ff ff 	movq   $0x0,-0x2b8(%rbp)
   11718:	00 00 00 00 
   1171c:	48 c7 85 50 fd ff ff 	movq   $0x0,-0x2b0(%rbp)
   11723:	00 00 00 00 
   11727:	48 8d 85 f8 f1 ff ff 	lea    -0xe08(%rbp),%rax
   1172e:	48 89 85 58 fd ff ff 	mov    %rax,-0x2a8(%rbp)
   11735:	48 8d 85 f8 f1 ff ff 	lea    -0xe08(%rbp),%rax
   1173c:	48 89 85 60 fd ff ff 	mov    %rax,-0x2a0(%rbp)
   11743:	48 8d 85 f8 f1 ff ff 	lea    -0xe08(%rbp),%rax
   1174a:	48 89 85 68 fd ff ff 	mov    %rax,-0x298(%rbp)
   11751:	48 8d 85 f8 f1 ff ff 	lea    -0xe08(%rbp),%rax
   11758:	48 89 85 70 fd ff ff 	mov    %rax,-0x290(%rbp)
   1175f:	48 8d 85 f8 f1 ff ff 	lea    -0xe08(%rbp),%rax
   11766:	48 89 85 78 fd ff ff 	mov    %rax,-0x288(%rbp)
   1176d:	48 c7 85 80 fd ff ff 	movq   $0x0,-0x280(%rbp)
   11774:	00 00 00 00 
   11778:	48 8d 85 f8 f1 ff ff 	lea    -0xe08(%rbp),%rax
   1177f:	48 89 85 88 fd ff ff 	mov    %rax,-0x278(%rbp)
   11786:	48 8d 85 f8 f1 ff ff 	lea    -0xe08(%rbp),%rax
   1178d:	48 89 85 90 fd ff ff 	mov    %rax,-0x270(%rbp)
   11794:	48 8d 85 f8 f1 ff ff 	lea    -0xe08(%rbp),%rax
   1179b:	48 89 85 98 fd ff ff 	mov    %rax,-0x268(%rbp)
   117a2:	48 8d 85 f8 f1 ff ff 	lea    -0xe08(%rbp),%rax
   117a9:	48 89 85 a0 fd ff ff 	mov    %rax,-0x260(%rbp)
   117b0:	48 8d 85 f8 f1 ff ff 	lea    -0xe08(%rbp),%rax
   117b7:	48 89 85 a8 fd ff ff 	mov    %rax,-0x258(%rbp)
   117be:	48 8d 85 f8 f1 ff ff 	lea    -0xe08(%rbp),%rax
   117c5:	48 89 85 b0 fd ff ff 	mov    %rax,-0x250(%rbp)
   117cc:	48 8d 85 f8 f1 ff ff 	lea    -0xe08(%rbp),%rax
   117d3:	48 89 85 b8 fd ff ff 	mov    %rax,-0x248(%rbp)
   117da:	48 8d 85 f8 f1 ff ff 	lea    -0xe08(%rbp),%rax
   117e1:	48 89 85 c0 fd ff ff 	mov    %rax,-0x240(%rbp)
   117e8:	48 8d 85 f8 f1 ff ff 	lea    -0xe08(%rbp),%rax
   117ef:	48 89 85 c8 fd ff ff 	mov    %rax,-0x238(%rbp)
   117f6:	48 8d 85 f8 f1 ff ff 	lea    -0xe08(%rbp),%rax
   117fd:	48 89 85 d0 fd ff ff 	mov    %rax,-0x230(%rbp)
   11804:	48 8d 85 f8 f1 ff ff 	lea    -0xe08(%rbp),%rax
   1180b:	48 89 85 d8 fd ff ff 	mov    %rax,-0x228(%rbp)
   11812:	48 8d 85 f8 f1 ff ff 	lea    -0xe08(%rbp),%rax
   11819:	48 89 85 e0 fd ff ff 	mov    %rax,-0x220(%rbp)
   11820:	48 8d 85 f8 f1 ff ff 	lea    -0xe08(%rbp),%rax
   11827:	48 89 85 e8 fd ff ff 	mov    %rax,-0x218(%rbp)
   1182e:	48 8d 85 f8 f1 ff ff 	lea    -0xe08(%rbp),%rax
   11835:	48 89 85 f0 fd ff ff 	mov    %rax,-0x210(%rbp)
   1183c:	48 8d 85 f8 f1 ff ff 	lea    -0xe08(%rbp),%rax
   11843:	48 89 85 f8 fd ff ff 	mov    %rax,-0x208(%rbp)
   1184a:	48 8d 85 f8 f1 ff ff 	lea    -0xe08(%rbp),%rax
   11851:	48 89 85 00 fe ff ff 	mov    %rax,-0x200(%rbp)
   11858:	48 8d 85 f8 f1 ff ff 	lea    -0xe08(%rbp),%rax
   1185f:	48 89 85 08 fe ff ff 	mov    %rax,-0x1f8(%rbp)
   11866:	48 8d 85 f8 f1 ff ff 	lea    -0xe08(%rbp),%rax
   1186d:	48 89 85 10 fe ff ff 	mov    %rax,-0x1f0(%rbp)
   11874:	48 8d 85 f8 f1 ff ff 	lea    -0xe08(%rbp),%rax
   1187b:	48 89 85 18 fe ff ff 	mov    %rax,-0x1e8(%rbp)
   11882:	48 8d 85 f8 f1 ff ff 	lea    -0xe08(%rbp),%rax
   11889:	48 89 85 20 fe ff ff 	mov    %rax,-0x1e0(%rbp)
   11890:	48 8d 85 f8 f1 ff ff 	lea    -0xe08(%rbp),%rax
   11897:	48 89 85 28 fe ff ff 	mov    %rax,-0x1d8(%rbp)
   1189e:	48 8d 85 f8 f1 ff ff 	lea    -0xe08(%rbp),%rax
   118a5:	48 89 85 30 fe ff ff 	mov    %rax,-0x1d0(%rbp)
   118ac:	48 8d 85 f8 f1 ff ff 	lea    -0xe08(%rbp),%rax
   118b3:	48 89 85 38 fe ff ff 	mov    %rax,-0x1c8(%rbp)
   118ba:	48 8d 85 f8 f1 ff ff 	lea    -0xe08(%rbp),%rax
   118c1:	48 89 85 40 fe ff ff 	mov    %rax,-0x1c0(%rbp)
   118c8:	48 8d 85 f8 f1 ff ff 	lea    -0xe08(%rbp),%rax
   118cf:	48 89 85 48 fe ff ff 	mov    %rax,-0x1b8(%rbp)
   118d6:	48 8d 85 f8 f1 ff ff 	lea    -0xe08(%rbp),%rax
   118dd:	48 89 85 50 fe ff ff 	mov    %rax,-0x1b0(%rbp)
   118e4:	48 c7 85 58 fe ff ff 	movq   $0x0,-0x1a8(%rbp)
   118eb:	00 00 00 00 
   118ef:	48 8d 85 f8 f1 ff ff 	lea    -0xe08(%rbp),%rax
   118f6:	48 89 85 60 fe ff ff 	mov    %rax,-0x1a0(%rbp)
   118fd:	48 8d 85 f8 f1 ff ff 	lea    -0xe08(%rbp),%rax
   11904:	48 89 85 68 fe ff ff 	mov    %rax,-0x198(%rbp)
   1190b:	48 8d 85 f8 f1 ff ff 	lea    -0xe08(%rbp),%rax
   11912:	48 89 85 70 fe ff ff 	mov    %rax,-0x190(%rbp)
   11919:	48 c7 85 78 fe ff ff 	movq   $0x0,-0x188(%rbp)
   11920:	00 00 00 00 
   11924:	48 c7 85 80 fe ff ff 	movq   $0x0,-0x180(%rbp)
   1192b:	00 00 00 00 
   1192f:	48 c7 85 88 fe ff ff 	movq   $0x0,-0x178(%rbp)
   11936:	00 00 00 00 
   1193a:	48 8d 85 f8 f1 ff ff 	lea    -0xe08(%rbp),%rax
   11941:	48 89 85 90 fe ff ff 	mov    %rax,-0x170(%rbp)
   11948:	48 c7 85 98 fe ff ff 	movq   $0x0,-0x168(%rbp)
   1194f:	00 00 00 00 
   11953:	48 c7 85 a0 fe ff ff 	movq   $0x0,-0x160(%rbp)
   1195a:	00 00 00 00 
   1195e:	48 8d 85 f8 f1 ff ff 	lea    -0xe08(%rbp),%rax
   11965:	48 89 85 a8 fe ff ff 	mov    %rax,-0x158(%rbp)
   1196c:	48 8d 85 f8 f1 ff ff 	lea    -0xe08(%rbp),%rax
   11973:	48 89 85 b0 fe ff ff 	mov    %rax,-0x150(%rbp)
   1197a:	48 8d 85 f8 f1 ff ff 	lea    -0xe08(%rbp),%rax
   11981:	48 89 85 b8 fe ff ff 	mov    %rax,-0x148(%rbp)
   11988:	48 8d 85 f8 f1 ff ff 	lea    -0xe08(%rbp),%rax
   1198f:	48 89 85 c0 fe ff ff 	mov    %rax,-0x140(%rbp)
   11996:	48 8d 85 f8 f1 ff ff 	lea    -0xe08(%rbp),%rax
   1199d:	48 89 85 c8 fe ff ff 	mov    %rax,-0x138(%rbp)
   119a4:	48 8d 85 f8 f1 ff ff 	lea    -0xe08(%rbp),%rax
   119ab:	48 89 85 d0 fe ff ff 	mov    %rax,-0x130(%rbp)
   119b2:	48 8d 85 f8 f1 ff ff 	lea    -0xe08(%rbp),%rax
   119b9:	48 89 85 d8 fe ff ff 	mov    %rax,-0x128(%rbp)
   119c0:	48 8d 85 f8 f1 ff ff 	lea    -0xe08(%rbp),%rax
   119c7:	48 89 85 e0 fe ff ff 	mov    %rax,-0x120(%rbp)
   119ce:	48 c7 85 e8 fe ff ff 	movq   $0x0,-0x118(%rbp)
   119d5:	00 00 00 00 
   119d9:	48 8d 85 f8 f1 ff ff 	lea    -0xe08(%rbp),%rax
   119e0:	48 89 85 f0 fe ff ff 	mov    %rax,-0x110(%rbp)
   119e7:	48 8d 85 f8 f1 ff ff 	lea    -0xe08(%rbp),%rax
   119ee:	48 89 85 f8 fe ff ff 	mov    %rax,-0x108(%rbp)
   119f5:	48 8d 85 f8 f1 ff ff 	lea    -0xe08(%rbp),%rax
   119fc:	48 89 85 00 ff ff ff 	mov    %rax,-0x100(%rbp)
   11a03:	48 8d 85 f8 f1 ff ff 	lea    -0xe08(%rbp),%rax
   11a0a:	48 89 85 08 ff ff ff 	mov    %rax,-0xf8(%rbp)
   11a11:	48 8d 85 f8 f1 ff ff 	lea    -0xe08(%rbp),%rax
   11a18:	48 89 85 10 ff ff ff 	mov    %rax,-0xf0(%rbp)
   11a1f:	48 8d 85 f8 f1 ff ff 	lea    -0xe08(%rbp),%rax
   11a26:	48 89 85 18 ff ff ff 	mov    %rax,-0xe8(%rbp)
   11a2d:	48 8d 85 f8 f1 ff ff 	lea    -0xe08(%rbp),%rax
   11a34:	48 89 85 20 ff ff ff 	mov    %rax,-0xe0(%rbp)
   11a3b:	48 c7 85 28 ff ff ff 	movq   $0x0,-0xd8(%rbp)
   11a42:	00 00 00 00 
   11a46:	48 8d 85 f8 f1 ff ff 	lea    -0xe08(%rbp),%rax
   11a4d:	48 89 85 30 ff ff ff 	mov    %rax,-0xd0(%rbp)
   11a54:	48 8d 85 f8 f1 ff ff 	lea    -0xe08(%rbp),%rax
   11a5b:	48 89 85 38 ff ff ff 	mov    %rax,-0xc8(%rbp)
   11a62:	48 c7 85 40 ff ff ff 	movq   $0x0,-0xc0(%rbp)
   11a69:	00 00 00 00 
   11a6d:	48 8d 85 f8 f1 ff ff 	lea    -0xe08(%rbp),%rax
   11a74:	48 89 85 48 ff ff ff 	mov    %rax,-0xb8(%rbp)
   11a7b:	48 8d 85 f8 f1 ff ff 	lea    -0xe08(%rbp),%rax
   11a82:	48 89 85 50 ff ff ff 	mov    %rax,-0xb0(%rbp)
   11a89:	48 8d 85 f8 f1 ff ff 	lea    -0xe08(%rbp),%rax
   11a90:	48 89 85 58 ff ff ff 	mov    %rax,-0xa8(%rbp)
   11a97:	48 8d 85 f8 f1 ff ff 	lea    -0xe08(%rbp),%rax
   11a9e:	48 89 85 60 ff ff ff 	mov    %rax,-0xa0(%rbp)
   11aa5:	48 8d 85 f8 f1 ff ff 	lea    -0xe08(%rbp),%rax
   11aac:	48 89 85 68 ff ff ff 	mov    %rax,-0x98(%rbp)
   11ab3:	48 8d 85 f8 f1 ff ff 	lea    -0xe08(%rbp),%rax
   11aba:	48 89 85 70 ff ff ff 	mov    %rax,-0x90(%rbp)
   11ac1:	48 c7 85 78 ff ff ff 	movq   $0x0,-0x88(%rbp)
   11ac8:	00 00 00 00 
   11acc:	48 8d 85 f8 f1 ff ff 	lea    -0xe08(%rbp),%rax
   11ad3:	48 89 45 80          	mov    %rax,-0x80(%rbp)
   11ad7:	48 8d 85 f8 f1 ff ff 	lea    -0xe08(%rbp),%rax
   11ade:	48 89 45 88          	mov    %rax,-0x78(%rbp)
   11ae2:	48 8d 85 f8 f1 ff ff 	lea    -0xe08(%rbp),%rax
   11ae9:	48 89 45 90          	mov    %rax,-0x70(%rbp)
   11aed:	48 8d 85 f8 f1 ff ff 	lea    -0xe08(%rbp),%rax
   11af4:	48 89 45 98          	mov    %rax,-0x68(%rbp)
   11af8:	48 8d 85 f8 f1 ff ff 	lea    -0xe08(%rbp),%rax
   11aff:	48 89 45 a0          	mov    %rax,-0x60(%rbp)
   11b03:	48 8d 85 f8 f1 ff ff 	lea    -0xe08(%rbp),%rax
   11b0a:	48 89 45 a8          	mov    %rax,-0x58(%rbp)
   11b0e:	48 8d 85 f8 f1 ff ff 	lea    -0xe08(%rbp),%rax
   11b15:	48 89 45 b0          	mov    %rax,-0x50(%rbp)
   11b19:	48 8d 85 f8 f1 ff ff 	lea    -0xe08(%rbp),%rax
   11b20:	48 89 45 b8          	mov    %rax,-0x48(%rbp)
   11b24:	48 8d 85 f8 f1 ff ff 	lea    -0xe08(%rbp),%rax
   11b2b:	48 89 45 c0          	mov    %rax,-0x40(%rbp)
   11b2f:	48 c7 45 c8 00 00 00 	movq   $0x0,-0x38(%rbp)
   11b36:	00 
   11b37:	48 8d 85 f8 f1 ff ff 	lea    -0xe08(%rbp),%rax
   11b3e:	48 89 45 d0          	mov    %rax,-0x30(%rbp)
   11b42:	48 8d 85 f8 f1 ff ff 	lea    -0xe08(%rbp),%rax
   11b49:	48 89 45 d8          	mov    %rax,-0x28(%rbp)
   11b4d:	48 8d 85 f8 f1 ff ff 	lea    -0xe08(%rbp),%rax
   11b54:	48 89 45 e0          	mov    %rax,-0x20(%rbp)
   11b58:	48 8d 85 f8 f1 ff ff 	lea    -0xe08(%rbp),%rax
   11b5f:	48 89 45 e8          	mov    %rax,-0x18(%rbp)
   11b63:	48 8d 85 30 f3 ff ff 	lea    -0xcd0(%rbp),%rax
   11b6a:	48 83 c0 18          	add    $0x18,%rax
   11b6e:	48 89 85 00 f2 ff ff 	mov    %rax,-0xe00(%rbp)
   11b75:	48 8d 85 00 f2 ff ff 	lea    -0xe00(%rbp),%rax
   11b7c:	48 89 85 08 f2 ff ff 	mov    %rax,-0xdf8(%rbp)
   11b83:	48 8d 85 70 f8 ff ff 	lea    -0x790(%rbp),%rax
   11b8a:	48 05 f8 06 00 00    	add    $0x6f8,%rax
   11b90:	48 89 85 40 f2 ff ff 	mov    %rax,-0xdc0(%rbp)
   11b97:	c7 85 a0 f1 ff ff 00 	movl   $0x0,-0xe60(%rbp)
   11b9e:	00 00 00 
   11ba1:	eb 1a                	jmp    11bbd <func_33+0x1085>
   11ba3:	8b 85 a0 f1 ff ff    	mov    -0xe60(%rbp),%eax
   11ba9:	48 98                	cltq   
   11bab:	c7 84 85 d0 f2 ff ff 	movl   $0xd23c342e,-0xd30(%rbp,%rax,4)
   11bb2:	2e 34 3c d2 
   11bb6:	83 85 a0 f1 ff ff 01 	addl   $0x1,-0xe60(%rbp)
   11bbd:	83 bd a0 f1 ff ff 05 	cmpl   $0x5,-0xe60(%rbp)
   11bc4:	7e dd                	jle    11ba3 <func_33+0x106b>
   11bc6:	66 c7 85 86 f1 ff ff 	movw   $0x6,-0xe7a(%rbp)
   11bcd:	06 00 
   11bcf:	eb 75                	jmp    11c46 <func_33+0x110e>
   11bd1:	c7 85 a4 f1 ff ff 00 	movl   $0x0,-0xe5c(%rbp)
   11bd8:	00 00 00 
   11bdb:	eb 14                	jmp    11bf1 <func_33+0x10b9>
   11bdd:	8b 85 a4 f1 ff ff    	mov    -0xe5c(%rbp),%eax
   11be3:	48 98                	cltq   
   11be5:	c6 44 05 f3 00       	movb   $0x0,-0xd(%rbp,%rax,1)
   11bea:	83 85 a4 f1 ff ff 01 	addl   $0x1,-0xe5c(%rbp)
   11bf1:	83 bd a4 f1 ff ff 04 	cmpl   $0x4,-0xe5c(%rbp)
   11bf8:	7e e3                	jle    11bdd <func_33+0x10a5>
   11bfa:	48 8b 45 c0          	mov    -0x40(%rbp),%rax
   11bfe:	48 39 85 30 f2 ff ff 	cmp    %rax,-0xdd0(%rbp)
   11c05:	0f 94 c0             	sete   %al
   11c08:	0f b6 c0             	movzbl %al,%eax
   11c0b:	48 89 05 5e 74 00 00 	mov    %rax,0x745e(%rip)        # 19070 <g_86>
   11c12:	48 8b 05 57 74 00 00 	mov    0x7457(%rip),%rax        # 19070 <g_86>
   11c19:	48 85 c0             	test   %rax,%rax
   11c1c:	0f 95 c0             	setne  %al
   11c1f:	0f b6 d0             	movzbl %al,%edx
   11c22:	0f b6 45 f3          	movzbl -0xd(%rbp),%eax
   11c26:	21 d0                	and    %edx,%eax
   11c28:	88 45 f3             	mov    %al,-0xd(%rbp)
   11c2b:	0f b7 85 86 f1 ff ff 	movzwl -0xe7a(%rbp),%eax
   11c32:	98                   	cwtl   
   11c33:	be 06 00 00 00       	mov    $0x6,%esi
   11c38:	89 c7                	mov    %eax,%edi
   11c3a:	e8 74 37 ff ff       	callq  53b3 <safe_add_func_int16_t_s_s>
   11c3f:	66 89 85 86 f1 ff ff 	mov    %ax,-0xe7a(%rbp)
   11c46:	0f b7 85 86 f1 ff ff 	movzwl -0xe7a(%rbp),%eax
   11c4d:	66 83 f8 12          	cmp    $0x12,%ax
   11c51:	0f 84 7a ff ff ff    	je     11bd1 <func_33+0x1099>
   11c57:	48 83 bd 60 f1 ff ff 	cmpq   $0x0,-0xea0(%rbp)
   11c5e:	00 
   11c5f:	0f 85 0d 05 00 00    	jne    12172 <func_33+0x163a>
   11c65:	c7 85 90 f1 ff ff 00 	movl   $0x0,-0xe70(%rbp)
   11c6c:	00 00 00 
   11c6f:	e9 ef 04 00 00       	jmpq   12163 <func_33+0x162b>
   11c74:	48 8d 05 65 8e 00 00 	lea    0x8e65(%rip),%rax        # 1aae0 <g_42>
   11c7b:	48 89 85 48 f2 ff ff 	mov    %rax,-0xdb8(%rbp)
   11c82:	c7 85 a8 f1 ff ff 01 	movl   $0x1,-0xe58(%rbp)
   11c89:	00 00 00 
   11c8c:	48 8d 05 4d 8e 00 00 	lea    0x8e4d(%rip),%rax        # 1aae0 <g_42>
   11c93:	48 89 85 10 f2 ff ff 	mov    %rax,-0xdf0(%rbp)
   11c9a:	48 8d 85 10 f2 ff ff 	lea    -0xdf0(%rbp),%rax
   11ca1:	48 89 85 18 f2 ff ff 	mov    %rax,-0xde8(%rbp)
   11ca8:	48 8d 85 18 f2 ff ff 	lea    -0xde8(%rbp),%rax
   11caf:	48 89 85 50 f2 ff ff 	mov    %rax,-0xdb0(%rbp)
   11cb6:	48 8d 85 c0 f2 ff ff 	lea    -0xd40(%rbp),%rax
   11cbd:	48 89 85 f0 f2 ff ff 	mov    %rax,-0xd10(%rbp)
   11cc4:	48 8d 85 c0 f2 ff ff 	lea    -0xd40(%rbp),%rax
   11ccb:	48 89 85 f8 f2 ff ff 	mov    %rax,-0xd08(%rbp)
   11cd2:	48 8d 85 c0 f2 ff ff 	lea    -0xd40(%rbp),%rax
   11cd9:	48 89 85 00 f3 ff ff 	mov    %rax,-0xd00(%rbp)
   11ce0:	48 8d 85 c0 f2 ff ff 	lea    -0xd40(%rbp),%rax
   11ce7:	48 89 85 08 f3 ff ff 	mov    %rax,-0xcf8(%rbp)
   11cee:	48 8d 85 c0 f2 ff ff 	lea    -0xd40(%rbp),%rax
   11cf5:	48 89 85 10 f3 ff ff 	mov    %rax,-0xcf0(%rbp)
   11cfc:	48 8d 85 c0 f2 ff ff 	lea    -0xd40(%rbp),%rax
   11d03:	48 89 85 18 f3 ff ff 	mov    %rax,-0xce8(%rbp)
   11d0a:	48 8d 85 c0 f2 ff ff 	lea    -0xd40(%rbp),%rax
   11d11:	48 89 85 20 f3 ff ff 	mov    %rax,-0xce0(%rbp)
   11d18:	48 8d 85 08 f2 ff ff 	lea    -0xdf8(%rbp),%rax
   11d1f:	48 89 85 58 f2 ff ff 	mov    %rax,-0xda8(%rbp)
   11d26:	c7 85 b8 f1 ff ff 01 	movl   $0x1,-0xe48(%rbp)
   11d2d:	00 00 00 
   11d30:	48 8d 85 70 f3 ff ff 	lea    -0xc90(%rbp),%rax
   11d37:	48 8d 15 e2 33 00 00 	lea    0x33e2(%rip),%rdx        # 15120 <g_2569+0x10b6>
   11d3e:	b9 1f 00 00 00       	mov    $0x1f,%ecx
   11d43:	48 89 c7             	mov    %rax,%rdi
   11d46:	48 89 d6             	mov    %rdx,%rsi
   11d49:	f3 48 a5             	rep movsq %ds:(%rsi),%es:(%rdi)
   11d4c:	48 89 f2             	mov    %rsi,%rdx
   11d4f:	48 89 f8             	mov    %rdi,%rax
   11d52:	8b 0a                	mov    (%rdx),%ecx
   11d54:	89 08                	mov    %ecx,(%rax)
   11d56:	48 8d 40 04          	lea    0x4(%rax),%rax
   11d5a:	48 8d 52 04          	lea    0x4(%rdx),%rdx
   11d5e:	c7 85 ac f1 ff ff 00 	movl   $0x0,-0xe54(%rbp)
   11d65:	00 00 00 
   11d68:	eb 1e                	jmp    11d88 <func_33+0x1250>
   11d6a:	8b 85 ac f1 ff ff    	mov    -0xe54(%rbp),%eax
   11d70:	48 98                	cltq   
   11d72:	48 8d 15 d7 a2 00 00 	lea    0xa2d7(%rip),%rdx        # 1c050 <g_369>
   11d79:	48 89 94 c5 c0 f2 ff 	mov    %rdx,-0xd40(%rbp,%rax,8)
   11d80:	ff 
   11d81:	83 85 ac f1 ff ff 01 	addl   $0x1,-0xe54(%rbp)
   11d88:	83 bd ac f1 ff ff 01 	cmpl   $0x1,-0xe54(%rbp)
   11d8f:	7e d9                	jle    11d6a <func_33+0x1232>
   11d91:	c7 85 94 f1 ff ff 00 	movl   $0x0,-0xe6c(%rbp)
   11d98:	00 00 00 
   11d9b:	e9 9e 03 00 00       	jmpq   1213e <func_33+0x1606>
   11da0:	c7 85 bc f1 ff ff 01 	movl   $0x1,-0xe44(%rbp)
   11da7:	00 00 00 
   11daa:	c7 85 c0 f1 ff ff 00 	movl   $0x0,-0xe40(%rbp)
   11db1:	00 00 00 
   11db4:	48 8b 05 45 8f 00 00 	mov    0x8f45(%rip),%rax        # 1ad00 <g_433>
   11dbb:	48 8d 95 8c f1 ff ff 	lea    -0xe74(%rbp),%rdx
   11dc2:	48 89 10             	mov    %rdx,(%rax)
   11dc5:	66 c7 85 86 f1 ff ff 	movw   $0x3,-0xe7a(%rbp)
   11dcc:	03 00 
   11dce:	e9 95 00 00 00       	jmpq   11e68 <func_33+0x1330>
   11dd3:	c7 85 c4 f1 ff ff 82 	movl   $0xfa723d82,-0xe3c(%rbp)
   11dda:	3d 72 fa 
   11ddd:	48 83 bd 48 f2 ff ff 	cmpq   $0x0,-0xdb8(%rbp)
   11de4:	00 
   11de5:	0f 94 c0             	sete   %al
   11de8:	0f b6 c0             	movzbl %al,%eax
   11deb:	89 85 c4 f1 ff ff    	mov    %eax,-0xe3c(%rbp)
   11df1:	c7 05 91 72 00 00 00 	movl   $0x0,0x7291(%rip)        # 1908c <g_156>
   11df8:	00 00 00 
   11dfb:	eb 45                	jmp    11e42 <func_33+0x130a>
   11dfd:	48 8d 85 70 f4 ff ff 	lea    -0xb90(%rbp),%rax
   11e04:	48 8d 15 15 34 00 00 	lea    0x3415(%rip),%rdx        # 15220 <g_2569+0x11b6>
   11e0b:	b9 80 00 00 00       	mov    $0x80,%ecx
   11e10:	48 89 c7             	mov    %rax,%rdi
   11e13:	48 89 d6             	mov    %rdx,%rsi
   11e16:	f3 48 a5             	rep movsq %ds:(%rsi),%es:(%rdi)
   11e19:	83 bd 94 f1 ff ff 00 	cmpl   $0x0,-0xe6c(%rbp)
   11e20:	74 05                	je     11e27 <func_33+0x12ef>
   11e22:	e9 5b ef ff ff       	jmpq   10d82 <func_33+0x24a>
   11e27:	8b 85 c4 f1 ff ff    	mov    -0xe3c(%rbp),%eax
   11e2d:	89 85 a0 f4 ff ff    	mov    %eax,-0xb60(%rbp)
   11e33:	8b 05 53 72 00 00    	mov    0x7253(%rip),%eax        # 1908c <g_156>
   11e39:	83 c0 01             	add    $0x1,%eax
   11e3c:	89 05 4a 72 00 00    	mov    %eax,0x724a(%rip)        # 1908c <g_156>
   11e42:	8b 05 44 72 00 00    	mov    0x7244(%rip),%eax        # 1908c <g_156>
   11e48:	83 f8 01             	cmp    $0x1,%eax
   11e4b:	7e b0                	jle    11dfd <func_33+0x12c5>
   11e4d:	8b 85 e4 f2 ff ff    	mov    -0xd1c(%rbp),%eax
   11e53:	85 c0                	test   %eax,%eax
   11e55:	75 23                	jne    11e7a <func_33+0x1342>
   11e57:	0f b7 85 86 f1 ff ff 	movzwl -0xe7a(%rbp),%eax
   11e5e:	83 e8 01             	sub    $0x1,%eax
   11e61:	66 89 85 86 f1 ff ff 	mov    %ax,-0xe7a(%rbp)
   11e68:	0f b7 85 86 f1 ff ff 	movzwl -0xe7a(%rbp),%eax
   11e6f:	66 85 c0             	test   %ax,%ax
   11e72:	0f 89 5b ff ff ff    	jns    11dd3 <func_33+0x129b>
   11e78:	eb 01                	jmp    11e7b <func_33+0x1343>
   11e7a:	90                   	nop
   11e7b:	48 c7 85 e8 f1 ff ff 	movq   $0x0,-0xe18(%rbp)
   11e82:	00 00 00 00 
   11e86:	e9 84 02 00 00       	jmpq   1210f <func_33+0x15d7>
   11e8b:	48 8d 85 30 f3 ff ff 	lea    -0xcd0(%rbp),%rax
   11e92:	48 83 c0 38          	add    $0x38,%rax
   11e96:	48 89 85 60 f2 ff ff 	mov    %rax,-0xda0(%rbp)
   11e9d:	48 83 bd 60 f1 ff ff 	cmpq   $0x0,-0xea0(%rbp)
   11ea4:	00 
   11ea5:	74 0c                	je     11eb3 <func_33+0x137b>
   11ea7:	48 8b 85 60 f1 ff ff 	mov    -0xea0(%rbp),%rax
   11eae:	e9 ef 02 00 00       	jmpq   121a2 <func_33+0x166a>
   11eb3:	66 c7 85 8a f1 ff ff 	movw   $0x0,-0xe76(%rbp)
   11eba:	00 00 
   11ebc:	8b 85 dc f2 ff ff    	mov    -0xd24(%rbp),%eax
   11ec2:	3d fb 00 00 00       	cmp    $0xfb,%eax
   11ec7:	0f 96 c0             	setbe  %al
   11eca:	0f b6 c0             	movzbl %al,%eax
   11ecd:	89 85 bc f1 ff ff    	mov    %eax,-0xe44(%rbp)
   11ed3:	8b 85 bc f1 ff ff    	mov    -0xe44(%rbp),%eax
   11ed9:	66 09 85 8a f1 ff ff 	or     %ax,-0xe76(%rbp)
   11ee0:	8b 05 a6 71 00 00    	mov    0x71a6(%rip),%eax        # 1908c <g_156>
   11ee6:	0f b6 c0             	movzbl %al,%eax
   11ee9:	be 08 00 00 00       	mov    $0x8,%esi
   11eee:	89 c7                	mov    %eax,%edi
   11ef0:	e8 b9 3c ff ff       	callq  5bae <safe_mod_func_uint8_t_u_u>
   11ef5:	0f b6 c0             	movzbl %al,%eax
   11ef8:	33 85 bc f1 ff ff    	xor    -0xe44(%rbp),%eax
   11efe:	89 c2                	mov    %eax,%edx
   11f00:	8b 05 2a 72 00 00    	mov    0x722a(%rip),%eax        # 19130 <g_449>
   11f06:	0b 85 a8 f1 ff ff    	or     -0xe58(%rbp),%eax
   11f0c:	39 c2                	cmp    %eax,%edx
   11f0e:	0f 93 c0             	setae  %al
   11f11:	0f b6 c0             	movzbl %al,%eax
   11f14:	48 39 85 60 f1 ff ff 	cmp    %rax,-0xea0(%rbp)
   11f1b:	0f 94 c0             	sete   %al
   11f1e:	0f b6 d0             	movzbl %al,%edx
   11f21:	8b 85 a8 f1 ff ff    	mov    -0xe58(%rbp),%eax
   11f27:	0f b7 c0             	movzwl %ax,%eax
   11f2a:	89 d6                	mov    %edx,%esi
   11f2c:	89 c7                	mov    %eax,%edi
   11f2e:	e8 47 3f ff ff       	callq  5e7a <safe_rshift_func_uint16_t_u_u>
   11f33:	0f b7 c0             	movzwl %ax,%eax
   11f36:	89 85 c0 f1 ff ff    	mov    %eax,-0xe40(%rbp)
   11f3c:	83 bd c0 f1 ff ff 00 	cmpl   $0x0,-0xe40(%rbp)
   11f43:	74 5a                	je     11f9f <func_33+0x1467>
   11f45:	48 8d 85 70 f4 ff ff 	lea    -0xb90(%rbp),%rax
   11f4c:	48 8d 15 cd 36 00 00 	lea    0x36cd(%rip),%rdx        # 15620 <g_2569+0x15b6>
   11f53:	b9 70 00 00 00       	mov    $0x70,%ecx
   11f58:	48 89 c7             	mov    %rax,%rdi
   11f5b:	48 89 d6             	mov    %rdx,%rsi
   11f5e:	f3 48 a5             	rep movsq %ds:(%rsi),%es:(%rdi)
   11f61:	48 89 f2             	mov    %rsi,%rdx
   11f64:	48 89 f8             	mov    %rdi,%rax
   11f67:	8b 0a                	mov    (%rdx),%ecx
   11f69:	89 08                	mov    %ecx,(%rax)
   11f6b:	48 8d 40 04          	lea    0x4(%rax),%rax
   11f6f:	48 8d 52 04          	lea    0x4(%rdx),%rdx
   11f73:	48 8b 05 8e 8d 00 00 	mov    0x8d8e(%rip),%rax        # 1ad08 <g_453>
   11f7a:	48 8b 95 08 f2 ff ff 	mov    -0xdf8(%rbp),%rdx
   11f81:	48 89 10             	mov    %rdx,(%rax)
   11f84:	8b 85 78 f5 ff ff    	mov    -0xa88(%rbp),%eax
   11f8a:	85 c0                	test   %eax,%eax
   11f8c:	0f 85 5b 01 00 00    	jne    120ed <func_33+0x15b5>
   11f92:	8b 85 a8 f1 ff ff    	mov    -0xe58(%rbp),%eax
   11f98:	48 98                	cltq   
   11f9a:	e9 03 02 00 00       	jmpq   121a2 <func_33+0x166a>
   11f9f:	48 c7 85 68 f2 ff ff 	movq   $0x0,-0xd98(%rbp)
   11fa6:	00 00 00 00 
   11faa:	48 8d 05 bf 70 00 00 	lea    0x70bf(%rip),%rax        # 19070 <g_86>
   11fb1:	48 89 85 70 f2 ff ff 	mov    %rax,-0xd90(%rbp)
   11fb8:	48 8d 85 70 f4 ff ff 	lea    -0xb90(%rbp),%rax
   11fbf:	48 8d 15 fa 39 00 00 	lea    0x39fa(%rip),%rdx        # 159c0 <g_2569+0x1956>
   11fc6:	b9 1f 00 00 00       	mov    $0x1f,%ecx
   11fcb:	48 89 c7             	mov    %rax,%rdi
   11fce:	48 89 d6             	mov    %rdx,%rsi
   11fd1:	f3 48 a5             	rep movsq %ds:(%rsi),%es:(%rdi)
   11fd4:	48 89 f2             	mov    %rsi,%rdx
   11fd7:	48 89 f8             	mov    %rdi,%rax
   11fda:	8b 0a                	mov    (%rdx),%ecx
   11fdc:	89 08                	mov    %ecx,(%rax)
   11fde:	48 8d 40 04          	lea    0x4(%rax),%rax
   11fe2:	48 8d 52 04          	lea    0x4(%rdx),%rdx
   11fe6:	48 83 bd 60 f1 ff ff 	cmpq   $0x0,-0xea0(%rbp)
   11fed:	00 
   11fee:	75 0e                	jne    11ffe <func_33+0x14c6>
   11ff0:	48 8b 85 70 f2 ff ff 	mov    -0xd90(%rbp),%rax
   11ff7:	48 c7 00 06 00 00 00 	movq   $0x6,(%rax)
   11ffe:	48 8b 85 60 f1 ff ff 	mov    -0xea0(%rbp),%rax
   12005:	0f bf d0             	movswl %ax,%edx
   12008:	48 8b 05 51 8c 00 00 	mov    0x8c51(%rip),%rax        # 1ac60 <g_283>
   1200f:	48 8b 00             	mov    (%rax),%rax
   12012:	48 8b 00             	mov    (%rax),%rax
   12015:	0f b7 00             	movzwl (%rax),%eax
   12018:	98                   	cwtl   
   12019:	89 d6                	mov    %edx,%esi
   1201b:	89 c7                	mov    %eax,%edi
   1201d:	e8 91 33 ff ff       	callq  53b3 <safe_add_func_int16_t_s_s>
   12022:	89 c2                	mov    %eax,%edx
   12024:	48 8b 85 60 f2 ff ff 	mov    -0xda0(%rbp),%rax
   1202b:	48 8b 00             	mov    (%rax),%rax
   1202e:	0f bf d2             	movswl %dx,%edx
   12031:	89 10                	mov    %edx,(%rax)
   12033:	8b 00                	mov    (%rax),%eax
   12035:	48 98                	cltq   
   12037:	48 39 85 60 f1 ff ff 	cmp    %rax,-0xea0(%rbp)
   1203e:	0f 95 c0             	setne  %al
   12041:	0f b6 c0             	movzbl %al,%eax
   12044:	be 0c 00 00 00       	mov    $0xc,%esi
   12049:	89 c7                	mov    %eax,%edi
   1204b:	e8 42 34 ff ff       	callq  5492 <safe_lshift_func_int16_t_s_s>
   12050:	48 8b 05 c9 8c 00 00 	mov    0x8cc9(%rip),%rax        # 1ad20 <g_472>
   12057:	48 85 c0             	test   %rax,%rax
   1205a:	0f 94 c0             	sete   %al
   1205d:	0f b6 c0             	movzbl %al,%eax
   12060:	48 8b 95 60 f1 ff ff 	mov    -0xea0(%rbp),%rdx
   12067:	48 89 d6             	mov    %rdx,%rsi
   1206a:	48 89 c7             	mov    %rax,%rdi
   1206d:	e8 36 38 ff ff       	callq  58a8 <safe_sub_func_int64_t_s_s>
   12072:	48 85 c0             	test   %rax,%rax
   12075:	74 07                	je     1207e <func_33+0x1546>
   12077:	b8 01 00 00 00       	mov    $0x1,%eax
   1207c:	eb 05                	jmp    12083 <func_33+0x154b>
   1207e:	b8 00 00 00 00       	mov    $0x0,%eax
   12083:	48 63 d0             	movslq %eax,%rdx
   12086:	48 8b 85 08 f2 ff ff 	mov    -0xdf8(%rbp),%rax
   1208d:	48 8b 8d 60 f2 ff ff 	mov    -0xda0(%rbp),%rcx
   12094:	48 89 08             	mov    %rcx,(%rax)
   12097:	48 8b 00             	mov    (%rax),%rax
   1209a:	48 85 c0             	test   %rax,%rax
   1209d:	0f 94 c0             	sete   %al
   120a0:	0f b6 c0             	movzbl %al,%eax
   120a3:	48 89 d6             	mov    %rdx,%rsi
   120a6:	48 89 c7             	mov    %rax,%rdi
   120a9:	e8 fa 37 ff ff       	callq  58a8 <safe_sub_func_int64_t_s_s>
   120ae:	48 85 c0             	test   %rax,%rax
   120b1:	75 07                	jne    120ba <func_33+0x1582>
   120b3:	ba fb 36 be c9       	mov    $0xc9be36fb,%edx
   120b8:	eb 05                	jmp    120bf <func_33+0x1587>
   120ba:	ba fa 36 be c9       	mov    $0xc9be36fa,%edx
   120bf:	48 8b 05 1a 8a 00 00 	mov    0x8a1a(%rip),%rax        # 1aae0 <g_42>
   120c6:	c6 00 f6             	movb   $0xf6,(%rax)
   120c9:	89 d6                	mov    %edx,%esi
   120cb:	bf f6 ff ff ff       	mov    $0xfffffff6,%edi
   120d0:	e8 97 32 ff ff       	callq  536c <safe_rshift_func_int8_t_s_u>
   120d5:	be 49 30 00 00       	mov    $0x3049,%esi
   120da:	bf 53 9f ff ff       	mov    $0xffff9f53,%edi
   120df:	e8 cf 32 ff ff       	callq  53b3 <safe_add_func_int16_t_s_s>
   120e4:	98                   	cwtl   
   120e5:	21 85 a8 f1 ff ff    	and    %eax,-0xe58(%rbp)
   120eb:	eb 01                	jmp    120ee <func_33+0x15b6>
   120ed:	90                   	nop
   120ee:	48 8b 85 e8 f1 ff ff 	mov    -0xe18(%rbp),%rax
   120f5:	0f be c0             	movsbl %al,%eax
   120f8:	be 07 00 00 00       	mov    $0x7,%esi
   120fd:	89 c7                	mov    %eax,%edi
   120ff:	e8 d0 30 ff ff       	callq  51d4 <safe_add_func_int8_t_s_s>
   12104:	48 0f be c0          	movsbq %al,%rax
   12108:	48 89 85 e8 f1 ff ff 	mov    %rax,-0xe18(%rbp)
   1210f:	48 8b 85 e8 f1 ff ff 	mov    -0xe18(%rbp),%rax
   12116:	48 83 f8 3b          	cmp    $0x3b,%rax
   1211a:	0f 86 6b fd ff ff    	jbe    11e8b <func_33+0x1353>
   12120:	8b 85 94 f1 ff ff    	mov    -0xe6c(%rbp),%eax
   12126:	0f b7 c0             	movzwl %ax,%eax
   12129:	be 06 00 00 00       	mov    $0x6,%esi
   1212e:	89 c7                	mov    %eax,%edi
   12130:	e8 ca 3b ff ff       	callq  5cff <safe_add_func_uint16_t_u_u>
   12135:	0f b7 c0             	movzwl %ax,%eax
   12138:	89 85 94 f1 ff ff    	mov    %eax,-0xe6c(%rbp)
   1213e:	83 bd 94 f1 ff ff 08 	cmpl   $0x8,-0xe6c(%rbp)
   12145:	0f 86 55 fc ff ff    	jbe    11da0 <func_33+0x1268>
   1214b:	8b 85 90 f1 ff ff    	mov    -0xe70(%rbp),%eax
   12151:	be 07 00 00 00       	mov    $0x7,%esi
   12156:	89 c7                	mov    %eax,%edi
   12158:	e8 5b 3d ff ff       	callq  5eb8 <safe_add_func_uint32_t_u_u>
   1215d:	89 85 90 f1 ff ff    	mov    %eax,-0xe70(%rbp)
   12163:	83 bd 90 f1 ff ff 2c 	cmpl   $0x2c,-0xe70(%rbp)
   1216a:	0f 86 04 fb ff ff    	jbe    11c74 <func_33+0x113c>
   12170:	eb 01                	jmp    12173 <func_33+0x163b>
   12172:	90                   	nop
   12173:	8b 85 8c f1 ff ff    	mov    -0xe74(%rbp),%eax
   12179:	be 03 00 00 00       	mov    $0x3,%esi
   1217e:	89 c7                	mov    %eax,%edi
   12180:	e8 33 3d ff ff       	callq  5eb8 <safe_add_func_uint32_t_u_u>
   12185:	89 85 8c f1 ff ff    	mov    %eax,-0xe74(%rbp)
   1218b:	8b 85 8c f1 ff ff    	mov    -0xe74(%rbp),%eax
   12191:	83 f8 f9             	cmp    $0xfffffff9,%eax
   12194:	0f 8d 40 ed ff ff    	jge    10eda <func_33+0x3a2>
   1219a:	8b 05 38 6f 00 00    	mov    0x6f38(%rip),%eax        # 190d8 <g_157+0x38>
   121a0:	48 98                	cltq   
   121a2:	48 8b 4d f8          	mov    -0x8(%rbp),%rcx
   121a6:	64 48 33 0c 25 28 00 	xor    %fs:0x28,%rcx
   121ad:	00 00 
   121af:	74 05                	je     121b6 <func_33+0x167e>
   121b1:	e8 ba 2e ff ff       	callq  5070 <__stack_chk_fail@plt>
   121b6:	c9                   	leaveq 
   121b7:	c3                   	retq   

00000000000121b8 <func_39>:
   121b8:	f3 0f 1e fa          	endbr64 
   121bc:	55                   	push   %rbp
   121bd:	48 89 e5             	mov    %rsp,%rbp
   121c0:	48 89 7d e8          	mov    %rdi,-0x18(%rbp)
   121c4:	48 89 75 e0          	mov    %rsi,-0x20(%rbp)
   121c8:	48 8d 05 11 89 00 00 	lea    0x8911(%rip),%rax        # 1aae0 <g_42>
   121cf:	48 89 45 f8          	mov    %rax,-0x8(%rbp)
   121d3:	48 8b 45 f8          	mov    -0x8(%rbp),%rax
   121d7:	5d                   	pop    %rbp
   121d8:	c3                   	retq   

00000000000121d9 <main>:
   121d9:	f3 0f 1e fa          	endbr64 
   121dd:	55                   	push   %rbp
   121de:	48 89 e5             	mov    %rsp,%rbp
   121e1:	48 83 ec 20          	sub    $0x20,%rsp
   121e5:	89 7d ec             	mov    %edi,-0x14(%rbp)
   121e8:	48 89 75 e0          	mov    %rsi,-0x20(%rbp)
   121ec:	c7 45 fc 00 00 00 00 	movl   $0x0,-0x4(%rbp)
   121f3:	83 7d ec 02          	cmpl   $0x2,-0x14(%rbp)
   121f7:	75 25                	jne    1221e <main+0x45>
   121f9:	48 8b 45 e0          	mov    -0x20(%rbp),%rax
   121fd:	48 83 c0 08          	add    $0x8,%rax
   12201:	48 8b 00             	mov    (%rax),%rax
   12204:	48 8d 35 b1 38 00 00 	lea    0x38b1(%rip),%rsi        # 15abc <g_2569+0x1a52>
   1220b:	48 89 c7             	mov    %rax,%rdi
   1220e:	e8 7d 2e ff ff       	callq  5090 <strcmp@plt>
   12213:	85 c0                	test   %eax,%eax
   12215:	75 07                	jne    1221e <main+0x45>
   12217:	c7 45 fc 01 00 00 00 	movl   $0x1,-0x4(%rbp)
   1221e:	e8 66 2f ff ff       	callq  5189 <platform_main_begin>
   12223:	e8 70 43 ff ff       	callq  6598 <crc32_gentab>
   12228:	e8 88 45 ff ff       	callq  67b5 <func_1>
   1222d:	c7 45 f0 00 00 00 00 	movl   $0x0,-0x10(%rbp)
   12234:	e9 96 00 00 00       	jmpq   122cf <main+0xf6>
   12239:	c7 45 f4 00 00 00 00 	movl   $0x0,-0xc(%rbp)
   12240:	eb 7f                	jmp    122c1 <main+0xe8>
   12242:	c7 45 f8 00 00 00 00 	movl   $0x0,-0x8(%rbp)
   12249:	eb 6c                	jmp    122b7 <main+0xde>
   1224b:	8b 45 f8             	mov    -0x8(%rbp),%eax
   1224e:	48 98                	cltq   
   12250:	8b 55 f0             	mov    -0x10(%rbp),%edx
   12253:	48 63 ca             	movslq %edx,%rcx
   12256:	8b 55 f4             	mov    -0xc(%rbp),%edx
   12259:	48 63 d2             	movslq %edx,%rdx
   1225c:	48 01 c9             	add    %rcx,%rcx
   1225f:	48 01 ca             	add    %rcx,%rdx
   12262:	48 c1 e2 02          	shl    $0x2,%rdx
   12266:	48 01 d0             	add    %rdx,%rax
   12269:	48 8d 14 85 00 00 00 	lea    0x0(,%rax,4),%rdx
   12270:	00 
   12271:	48 8d 05 c8 6d 00 00 	lea    0x6dc8(%rip),%rax        # 19040 <g_32>
   12278:	8b 04 02             	mov    (%rdx,%rax,1),%eax
   1227b:	89 c1                	mov    %eax,%ecx
   1227d:	8b 45 fc             	mov    -0x4(%rbp),%eax
   12280:	89 c2                	mov    %eax,%edx
   12282:	48 8d 35 35 38 00 00 	lea    0x3835(%rip),%rsi        # 15abe <g_2569+0x1a54>
   12289:	48 89 cf             	mov    %rcx,%rdi
   1228c:	e8 62 44 ff ff       	callq  66f3 <transparent_crc>
   12291:	83 7d fc 00          	cmpl   $0x0,-0x4(%rbp)
   12295:	74 1c                	je     122b3 <main+0xda>
   12297:	8b 4d f8             	mov    -0x8(%rbp),%ecx
   1229a:	8b 55 f4             	mov    -0xc(%rbp),%edx
   1229d:	8b 45 f0             	mov    -0x10(%rbp),%eax
   122a0:	89 c6                	mov    %eax,%esi
   122a2:	48 8d 3d 23 38 00 00 	lea    0x3823(%rip),%rdi        # 15acc <g_2569+0x1a62>
   122a9:	b8 00 00 00 00       	mov    $0x0,%eax
   122ae:	e8 cd 2d ff ff       	callq  5080 <printf@plt>
   122b3:	83 45 f8 01          	addl   $0x1,-0x8(%rbp)
   122b7:	83 7d f8 03          	cmpl   $0x3,-0x8(%rbp)
   122bb:	7e 8e                	jle    1224b <main+0x72>
   122bd:	83 45 f4 01          	addl   $0x1,-0xc(%rbp)
   122c1:	83 7d f4 01          	cmpl   $0x1,-0xc(%rbp)
   122c5:	0f 8e 77 ff ff ff    	jle    12242 <main+0x69>
   122cb:	83 45 f0 01          	addl   $0x1,-0x10(%rbp)
   122cf:	83 7d f0 00          	cmpl   $0x0,-0x10(%rbp)
   122d3:	0f 8e 60 ff ff ff    	jle    12239 <main+0x60>
   122d9:	c7 45 f0 00 00 00 00 	movl   $0x0,-0x10(%rbp)
   122e0:	eb 46                	jmp    12328 <main+0x14f>
   122e2:	8b 45 f0             	mov    -0x10(%rbp),%eax
   122e5:	48 98                	cltq   
   122e7:	48 8d 15 72 6d 00 00 	lea    0x6d72(%rip),%rdx        # 19060 <g_43>
   122ee:	0f b6 04 10          	movzbl (%rax,%rdx,1),%eax
   122f2:	48 0f be c0          	movsbq %al,%rax
   122f6:	8b 55 fc             	mov    -0x4(%rbp),%edx
   122f9:	48 8d 35 e2 37 00 00 	lea    0x37e2(%rip),%rsi        # 15ae2 <g_2569+0x1a78>
   12300:	48 89 c7             	mov    %rax,%rdi
   12303:	e8 eb 43 ff ff       	callq  66f3 <transparent_crc>
   12308:	83 7d fc 00          	cmpl   $0x0,-0x4(%rbp)
   1230c:	74 16                	je     12324 <main+0x14b>
   1230e:	8b 45 f0             	mov    -0x10(%rbp),%eax
   12311:	89 c6                	mov    %eax,%esi
   12313:	48 8d 3d d0 37 00 00 	lea    0x37d0(%rip),%rdi        # 15aea <g_2569+0x1a80>
   1231a:	b8 00 00 00 00       	mov    $0x0,%eax
   1231f:	e8 5c 2d ff ff       	callq  5080 <printf@plt>
   12324:	83 45 f0 01          	addl   $0x1,-0x10(%rbp)
   12328:	83 7d f0 01          	cmpl   $0x1,-0x10(%rbp)
   1232c:	7e b4                	jle    122e2 <main+0x109>
   1232e:	8b 05 14 9d 00 00    	mov    0x9d14(%rip),%eax        # 1c048 <g_53>
   12334:	48 98                	cltq   
   12336:	8b 55 fc             	mov    -0x4(%rbp),%edx
   12339:	48 8d 35 b8 37 00 00 	lea    0x37b8(%rip),%rsi        # 15af8 <g_2569+0x1a8e>
   12340:	48 89 c7             	mov    %rax,%rdi
   12343:	e8 ab 43 ff ff       	callq  66f3 <transparent_crc>
   12348:	8b 05 1a 6d 00 00    	mov    0x6d1a(%rip),%eax        # 19068 <g_80>
   1234e:	89 c1                	mov    %eax,%ecx
   12350:	8b 45 fc             	mov    -0x4(%rbp),%eax
   12353:	89 c2                	mov    %eax,%edx
   12355:	48 8d 35 a1 37 00 00 	lea    0x37a1(%rip),%rsi        # 15afd <g_2569+0x1a93>
   1235c:	48 89 cf             	mov    %rcx,%rdi
   1235f:	e8 8f 43 ff ff       	callq  66f3 <transparent_crc>
   12364:	8b 05 fe 6c 00 00    	mov    0x6cfe(%rip),%eax        # 19068 <g_80>
   1236a:	48 98                	cltq   
   1236c:	8b 55 fc             	mov    -0x4(%rbp),%edx
   1236f:	48 8d 35 8f 37 00 00 	lea    0x378f(%rip),%rsi        # 15b05 <g_2569+0x1a9b>
   12376:	48 89 c7             	mov    %rax,%rdi
   12379:	e8 75 43 ff ff       	callq  66f3 <transparent_crc>
   1237e:	48 8b 05 eb 6c 00 00 	mov    0x6ceb(%rip),%rax        # 19070 <g_86>
   12385:	48 89 c1             	mov    %rax,%rcx
   12388:	8b 45 fc             	mov    -0x4(%rbp),%eax
   1238b:	89 c2                	mov    %eax,%edx
   1238d:	48 8d 35 79 37 00 00 	lea    0x3779(%rip),%rsi        # 15b0d <g_2569+0x1aa3>
   12394:	48 89 cf             	mov    %rcx,%rdi
   12397:	e8 57 43 ff ff       	callq  66f3 <transparent_crc>
   1239c:	8b 05 d6 6c 00 00    	mov    0x6cd6(%rip),%eax        # 19078 <g_108>
   123a2:	89 c1                	mov    %eax,%ecx
   123a4:	8b 45 fc             	mov    -0x4(%rbp),%eax
   123a7:	89 c2                	mov    %eax,%edx
   123a9:	48 8d 35 62 37 00 00 	lea    0x3762(%rip),%rsi        # 15b12 <g_2569+0x1aa8>
   123b0:	48 89 cf             	mov    %rcx,%rdi
   123b3:	e8 3b 43 ff ff       	callq  66f3 <transparent_crc>
   123b8:	8b 05 be 6c 00 00    	mov    0x6cbe(%rip),%eax        # 1907c <g_111>
   123be:	48 98                	cltq   
   123c0:	8b 55 fc             	mov    -0x4(%rbp),%edx
   123c3:	48 8d 35 4e 37 00 00 	lea    0x374e(%rip),%rsi        # 15b18 <g_2569+0x1aae>
   123ca:	48 89 c7             	mov    %rax,%rdi
   123cd:	e8 21 43 ff ff       	callq  66f3 <transparent_crc>
   123d2:	8b 05 a4 6c 00 00    	mov    0x6ca4(%rip),%eax        # 1907c <g_111>
   123d8:	48 98                	cltq   
   123da:	8b 55 fc             	mov    -0x4(%rbp),%edx
   123dd:	48 8d 35 3d 37 00 00 	lea    0x373d(%rip),%rsi        # 15b21 <g_2569+0x1ab7>
   123e4:	48 89 c7             	mov    %rax,%rdi
   123e7:	e8 07 43 ff ff       	callq  66f3 <transparent_crc>
   123ec:	0f b7 05 8d 6c 00 00 	movzwl 0x6c8d(%rip),%eax        # 19080 <g_131>
   123f3:	0f b7 c0             	movzwl %ax,%eax
   123f6:	8b 55 fc             	mov    -0x4(%rbp),%edx
   123f9:	48 8d 35 2a 37 00 00 	lea    0x372a(%rip),%rsi        # 15b2a <g_2569+0x1ac0>
   12400:	48 89 c7             	mov    %rax,%rdi
   12403:	e8 eb 42 ff ff       	callq  66f3 <transparent_crc>
   12408:	0f b7 05 79 6c 00 00 	movzwl 0x6c79(%rip),%eax        # 19088 <g_143>
   1240f:	0f b7 c0             	movzwl %ax,%eax
   12412:	8b 55 fc             	mov    -0x4(%rbp),%edx
   12415:	48 8d 35 17 37 00 00 	lea    0x3717(%rip),%rsi        # 15b33 <g_2569+0x1ac9>
   1241c:	48 89 c7             	mov    %rax,%rdi
   1241f:	e8 cf 42 ff ff       	callq  66f3 <transparent_crc>
   12424:	8b 05 62 6c 00 00    	mov    0x6c62(%rip),%eax        # 1908c <g_156>
   1242a:	48 98                	cltq   
   1242c:	8b 55 fc             	mov    -0x4(%rbp),%edx
   1242f:	48 8d 35 03 37 00 00 	lea    0x3703(%rip),%rsi        # 15b39 <g_2569+0x1acf>
   12436:	48 89 c7             	mov    %rax,%rdi
   12439:	e8 b5 42 ff ff       	callq  66f3 <transparent_crc>
   1243e:	8b 05 48 6c 00 00    	mov    0x6c48(%rip),%eax        # 1908c <g_156>
   12444:	48 98                	cltq   
   12446:	8b 55 fc             	mov    -0x4(%rbp),%edx
   12449:	48 8d 35 f2 36 00 00 	lea    0x36f2(%rip),%rsi        # 15b42 <g_2569+0x1ad8>
   12450:	48 89 c7             	mov    %rax,%rdi
   12453:	e8 9b 42 ff ff       	callq  66f3 <transparent_crc>
   12458:	c7 45 f0 00 00 00 00 	movl   $0x0,-0x10(%rbp)
   1245f:	e9 24 01 00 00       	jmpq   12588 <main+0x3af>
   12464:	c7 45 f4 00 00 00 00 	movl   $0x0,-0xc(%rbp)
   1246b:	e9 0a 01 00 00       	jmpq   1257a <main+0x3a1>
   12470:	c7 45 f8 00 00 00 00 	movl   $0x0,-0x8(%rbp)
   12477:	e9 f0 00 00 00       	jmpq   1256c <main+0x393>
   1247c:	8b 45 f8             	mov    -0x8(%rbp),%eax
   1247f:	48 98                	cltq   
   12481:	8b 55 f0             	mov    -0x10(%rbp),%edx
   12484:	48 63 ca             	movslq %edx,%rcx
   12487:	8b 55 f4             	mov    -0xc(%rbp),%edx
   1248a:	48 63 d2             	movslq %edx,%rdx
   1248d:	48 01 c9             	add    %rcx,%rcx
   12490:	48 01 ca             	add    %rcx,%rdx
   12493:	48 01 d2             	add    %rdx,%rdx
   12496:	48 01 d0             	add    %rdx,%rax
   12499:	48 8d 14 c5 00 00 00 	lea    0x0(,%rax,8),%rdx
   124a0:	00 
   124a1:	48 8d 05 f8 6b 00 00 	lea    0x6bf8(%rip),%rax        # 190a0 <g_157>
   124a8:	48 8b 04 02          	mov    (%rdx,%rax,1),%rax
   124ac:	8b 55 fc             	mov    -0x4(%rbp),%edx
   124af:	48 8d 35 95 36 00 00 	lea    0x3695(%rip),%rsi        # 15b4b <g_2569+0x1ae1>
   124b6:	48 89 c7             	mov    %rax,%rdi
   124b9:	e8 35 42 ff ff       	callq  66f3 <transparent_crc>
   124be:	8b 45 f8             	mov    -0x8(%rbp),%eax
   124c1:	48 98                	cltq   
   124c3:	8b 55 f0             	mov    -0x10(%rbp),%edx
   124c6:	48 63 ca             	movslq %edx,%rcx
   124c9:	8b 55 f4             	mov    -0xc(%rbp),%edx
   124cc:	48 63 d2             	movslq %edx,%rdx
   124cf:	48 01 c9             	add    %rcx,%rcx
   124d2:	48 01 ca             	add    %rcx,%rdx
   124d5:	48 01 d2             	add    %rdx,%rdx
   124d8:	48 01 d0             	add    %rdx,%rax
   124db:	48 8d 14 c5 00 00 00 	lea    0x0(,%rax,8),%rdx
   124e2:	00 
   124e3:	48 8d 05 b6 6b 00 00 	lea    0x6bb6(%rip),%rax        # 190a0 <g_157>
   124ea:	8b 04 02             	mov    (%rdx,%rax,1),%eax
   124ed:	89 c1                	mov    %eax,%ecx
   124ef:	8b 45 fc             	mov    -0x4(%rbp),%eax
   124f2:	89 c2                	mov    %eax,%edx
   124f4:	48 8d 35 62 36 00 00 	lea    0x3662(%rip),%rsi        # 15b5d <g_2569+0x1af3>
   124fb:	48 89 cf             	mov    %rcx,%rdi
   124fe:	e8 f0 41 ff ff       	callq  66f3 <transparent_crc>
   12503:	8b 45 f8             	mov    -0x8(%rbp),%eax
   12506:	48 98                	cltq   
   12508:	8b 55 f0             	mov    -0x10(%rbp),%edx
   1250b:	48 63 ca             	movslq %edx,%rcx
   1250e:	8b 55 f4             	mov    -0xc(%rbp),%edx
   12511:	48 63 d2             	movslq %edx,%rdx
   12514:	48 01 c9             	add    %rcx,%rcx
   12517:	48 01 ca             	add    %rcx,%rdx
   1251a:	48 01 d2             	add    %rdx,%rdx
   1251d:	48 01 d0             	add    %rdx,%rax
   12520:	48 8d 14 c5 00 00 00 	lea    0x0(,%rax,8),%rdx
   12527:	00 
   12528:	48 8d 05 71 6b 00 00 	lea    0x6b71(%rip),%rax        # 190a0 <g_157>
   1252f:	8b 04 02             	mov    (%rdx,%rax,1),%eax
   12532:	48 98                	cltq   
   12534:	8b 55 fc             	mov    -0x4(%rbp),%edx
   12537:	48 8d 35 31 36 00 00 	lea    0x3631(%rip),%rsi        # 15b6f <g_2569+0x1b05>
   1253e:	48 89 c7             	mov    %rax,%rdi
   12541:	e8 ad 41 ff ff       	callq  66f3 <transparent_crc>
   12546:	83 7d fc 00          	cmpl   $0x0,-0x4(%rbp)
   1254a:	74 1c                	je     12568 <main+0x38f>
   1254c:	8b 4d f8             	mov    -0x8(%rbp),%ecx
   1254f:	8b 55 f4             	mov    -0xc(%rbp),%edx
   12552:	8b 45 f0             	mov    -0x10(%rbp),%eax
   12555:	89 c6                	mov    %eax,%esi
   12557:	48 8d 3d 6e 35 00 00 	lea    0x356e(%rip),%rdi        # 15acc <g_2569+0x1a62>
   1255e:	b8 00 00 00 00       	mov    $0x0,%eax
   12563:	e8 18 2b ff ff       	callq  5080 <printf@plt>
   12568:	83 45 f8 01          	addl   $0x1,-0x8(%rbp)
   1256c:	83 7d f8 01          	cmpl   $0x1,-0x8(%rbp)
   12570:	0f 8e 06 ff ff ff    	jle    1247c <main+0x2a3>
   12576:	83 45 f4 01          	addl   $0x1,-0xc(%rbp)
   1257a:	83 7d f4 01          	cmpl   $0x1,-0xc(%rbp)
   1257e:	0f 8e ec fe ff ff    	jle    12470 <main+0x297>
   12584:	83 45 f0 01          	addl   $0x1,-0x10(%rbp)
   12588:	83 7d f0 01          	cmpl   $0x1,-0x10(%rbp)
   1258c:	0f 8e d2 fe ff ff    	jle    12464 <main+0x28b>
   12592:	0f b6 05 47 6b 00 00 	movzbl 0x6b47(%rip),%eax        # 190e0 <g_195>
   12599:	0f b6 c0             	movzbl %al,%eax
   1259c:	8b 55 fc             	mov    -0x4(%rbp),%edx
   1259f:	48 8d 35 db 35 00 00 	lea    0x35db(%rip),%rsi        # 15b81 <g_2569+0x1b17>
   125a6:	48 89 c7             	mov    %rax,%rdi
   125a9:	e8 45 41 ff ff       	callq  66f3 <transparent_crc>
   125ae:	48 8b 05 33 6b 00 00 	mov    0x6b33(%rip),%rax        # 190e8 <g_214>
   125b5:	48 89 c1             	mov    %rax,%rcx
   125b8:	8b 45 fc             	mov    -0x4(%rbp),%eax
   125bb:	89 c2                	mov    %eax,%edx
   125bd:	48 8d 35 c3 35 00 00 	lea    0x35c3(%rip),%rsi        # 15b87 <g_2569+0x1b1d>
   125c4:	48 89 cf             	mov    %rcx,%rdi
   125c7:	e8 27 41 ff ff       	callq  66f3 <transparent_crc>
   125cc:	8b 05 1e 6b 00 00    	mov    0x6b1e(%rip),%eax        # 190f0 <g_231>
   125d2:	48 98                	cltq   
   125d4:	8b 55 fc             	mov    -0x4(%rbp),%edx
   125d7:	48 8d 35 af 35 00 00 	lea    0x35af(%rip),%rsi        # 15b8d <g_2569+0x1b23>
   125de:	48 89 c7             	mov    %rax,%rdi
   125e1:	e8 0d 41 ff ff       	callq  66f3 <transparent_crc>
   125e6:	48 8b 05 0b 6b 00 00 	mov    0x6b0b(%rip),%rax        # 190f8 <g_275>
   125ed:	8b 55 fc             	mov    -0x4(%rbp),%edx
   125f0:	48 8d 35 9c 35 00 00 	lea    0x359c(%rip),%rsi        # 15b93 <g_2569+0x1b29>
   125f7:	48 89 c7             	mov    %rax,%rdi
   125fa:	e8 f4 40 ff ff       	callq  66f3 <transparent_crc>
   125ff:	8b 05 f3 6a 00 00    	mov    0x6af3(%rip),%eax        # 190f8 <g_275>
   12605:	89 c1                	mov    %eax,%ecx
   12607:	8b 45 fc             	mov    -0x4(%rbp),%eax
   1260a:	89 c2                	mov    %eax,%edx
   1260c:	48 8d 35 89 35 00 00 	lea    0x3589(%rip),%rsi        # 15b9c <g_2569+0x1b32>
   12613:	48 89 cf             	mov    %rcx,%rdi
   12616:	e8 d8 40 ff ff       	callq  66f3 <transparent_crc>
   1261b:	8b 05 d7 6a 00 00    	mov    0x6ad7(%rip),%eax        # 190f8 <g_275>
   12621:	48 98                	cltq   
   12623:	8b 55 fc             	mov    -0x4(%rbp),%edx
   12626:	48 8d 35 78 35 00 00 	lea    0x3578(%rip),%rsi        # 15ba5 <g_2569+0x1b3b>
   1262d:	48 89 c7             	mov    %rax,%rdi
   12630:	e8 be 40 ff ff       	callq  66f3 <transparent_crc>
   12635:	0f b7 05 c4 6a 00 00 	movzwl 0x6ac4(%rip),%eax        # 19100 <g_277>
   1263c:	0f b7 c0             	movzwl %ax,%eax
   1263f:	8b 55 fc             	mov    -0x4(%rbp),%edx
   12642:	48 8d 35 65 35 00 00 	lea    0x3565(%rip),%rsi        # 15bae <g_2569+0x1b44>
   12649:	48 89 c7             	mov    %rax,%rdi
   1264c:	e8 a2 40 ff ff       	callq  66f3 <transparent_crc>
   12651:	b8 01 00 00 00       	mov    $0x1,%eax
   12656:	48 0f bf c0          	movswq %ax,%rax
   1265a:	8b 55 fc             	mov    -0x4(%rbp),%edx
   1265d:	48 8d 35 53 35 00 00 	lea    0x3553(%rip),%rsi        # 15bb7 <g_2569+0x1b4d>
   12664:	48 89 c7             	mov    %rax,%rdi
   12667:	e8 87 40 ff ff       	callq  66f3 <transparent_crc>
   1266c:	0f b7 05 95 6a 00 00 	movzwl 0x6a95(%rip),%eax        # 19108 <g_285>
   12673:	0f b7 c0             	movzwl %ax,%eax
   12676:	8b 55 fc             	mov    -0x4(%rbp),%edx
   12679:	48 8d 35 3d 35 00 00 	lea    0x353d(%rip),%rsi        # 15bbd <g_2569+0x1b53>
   12680:	48 89 c7             	mov    %rax,%rdi
   12683:	e8 6b 40 ff ff       	callq  66f3 <transparent_crc>
   12688:	0f b7 05 81 6a 00 00 	movzwl 0x6a81(%rip),%eax        # 19110 <g_298>
   1268f:	48 0f bf c0          	movswq %ax,%rax
   12693:	8b 55 fc             	mov    -0x4(%rbp),%edx
   12696:	48 8d 35 29 35 00 00 	lea    0x3529(%rip),%rsi        # 15bc6 <g_2569+0x1b5c>
   1269d:	48 89 c7             	mov    %rax,%rdi
   126a0:	e8 4e 40 ff ff       	callq  66f3 <transparent_crc>
   126a5:	8b 05 6d 6a 00 00    	mov    0x6a6d(%rip),%eax        # 19118 <g_343>
   126ab:	89 c1                	mov    %eax,%ecx
   126ad:	8b 45 fc             	mov    -0x4(%rbp),%eax
   126b0:	89 c2                	mov    %eax,%edx
   126b2:	48 8d 35 13 35 00 00 	lea    0x3513(%rip),%rsi        # 15bcc <g_2569+0x1b62>
   126b9:	48 89 cf             	mov    %rcx,%rdi
   126bc:	e8 32 40 ff ff       	callq  66f3 <transparent_crc>
   126c1:	8b 05 51 6a 00 00    	mov    0x6a51(%rip),%eax        # 19118 <g_343>
   126c7:	48 98                	cltq   
   126c9:	8b 55 fc             	mov    -0x4(%rbp),%edx
   126cc:	48 8d 35 02 35 00 00 	lea    0x3502(%rip),%rsi        # 15bd5 <g_2569+0x1b6b>
   126d3:	48 89 c7             	mov    %rax,%rdi
   126d6:	e8 18 40 ff ff       	callq  66f3 <transparent_crc>
   126db:	8b 05 3f 6a 00 00    	mov    0x6a3f(%rip),%eax        # 19120 <g_371>
   126e1:	48 98                	cltq   
   126e3:	8b 55 fc             	mov    -0x4(%rbp),%edx
   126e6:	48 8d 35 f1 34 00 00 	lea    0x34f1(%rip),%rsi        # 15bde <g_2569+0x1b74>
   126ed:	48 89 c7             	mov    %rax,%rdi
   126f0:	e8 fe 3f ff ff       	callq  66f3 <transparent_crc>
   126f5:	0f b7 05 28 6a 00 00 	movzwl 0x6a28(%rip),%eax        # 19124 <g_372>
   126fc:	0f b7 c0             	movzwl %ax,%eax
   126ff:	8b 55 fc             	mov    -0x4(%rbp),%edx
   12702:	48 8d 35 db 34 00 00 	lea    0x34db(%rip),%rsi        # 15be4 <g_2569+0x1b7a>
   12709:	48 89 c7             	mov    %rax,%rdi
   1270c:	e8 e2 3f ff ff       	callq  66f3 <transparent_crc>
   12711:	48 8b 05 10 6a 00 00 	mov    0x6a10(%rip),%rax        # 19128 <g_375>
   12718:	8b 55 fc             	mov    -0x4(%rbp),%edx
   1271b:	48 8d 35 c8 34 00 00 	lea    0x34c8(%rip),%rsi        # 15bea <g_2569+0x1b80>
   12722:	48 89 c7             	mov    %rax,%rdi
   12725:	e8 c9 3f ff ff       	callq  66f3 <transparent_crc>
   1272a:	8b 05 00 6a 00 00    	mov    0x6a00(%rip),%eax        # 19130 <g_449>
   12730:	48 98                	cltq   
   12732:	8b 55 fc             	mov    -0x4(%rbp),%edx
   12735:	48 8d 35 b4 34 00 00 	lea    0x34b4(%rip),%rsi        # 15bf0 <g_2569+0x1b86>
   1273c:	48 89 c7             	mov    %rax,%rdi
   1273f:	e8 af 3f ff ff       	callq  66f3 <transparent_crc>
   12744:	8b 05 e6 69 00 00    	mov    0x69e6(%rip),%eax        # 19130 <g_449>
   1274a:	48 98                	cltq   
   1274c:	8b 55 fc             	mov    -0x4(%rbp),%edx
   1274f:	48 8d 35 a3 34 00 00 	lea    0x34a3(%rip),%rsi        # 15bf9 <g_2569+0x1b8f>
   12756:	48 89 c7             	mov    %rax,%rdi
   12759:	e8 95 3f ff ff       	callq  66f3 <transparent_crc>
   1275e:	0f b7 05 d3 69 00 00 	movzwl 0x69d3(%rip),%eax        # 19138 <g_504>
   12765:	0f b7 c0             	movzwl %ax,%eax
   12768:	8b 55 fc             	mov    -0x4(%rbp),%edx
   1276b:	48 8d 35 90 34 00 00 	lea    0x3490(%rip),%rsi        # 15c02 <g_2569+0x1b98>
   12772:	48 89 c7             	mov    %rax,%rdi
   12775:	e8 79 3f ff ff       	callq  66f3 <transparent_crc>
   1277a:	0f b7 05 bf 69 00 00 	movzwl 0x69bf(%rip),%eax        # 19140 <g_512>
   12781:	0f b7 c0             	movzwl %ax,%eax
   12784:	8b 55 fc             	mov    -0x4(%rbp),%edx
   12787:	48 8d 35 7d 34 00 00 	lea    0x347d(%rip),%rsi        # 15c0b <g_2569+0x1ba1>
   1278e:	48 89 c7             	mov    %rax,%rdi
   12791:	e8 5d 3f ff ff       	callq  66f3 <transparent_crc>
   12796:	48 8b 05 ab 69 00 00 	mov    0x69ab(%rip),%rax        # 19148 <g_515>
   1279d:	8b 55 fc             	mov    -0x4(%rbp),%edx
   127a0:	48 8d 35 6d 34 00 00 	lea    0x346d(%rip),%rsi        # 15c14 <g_2569+0x1baa>
   127a7:	48 89 c7             	mov    %rax,%rdi
   127aa:	e8 44 3f ff ff       	callq  66f3 <transparent_crc>
   127af:	8b 05 93 69 00 00    	mov    0x6993(%rip),%eax        # 19148 <g_515>
   127b5:	89 c1                	mov    %eax,%ecx
   127b7:	8b 45 fc             	mov    -0x4(%rbp),%eax
   127ba:	89 c2                	mov    %eax,%edx
   127bc:	48 8d 35 5a 34 00 00 	lea    0x345a(%rip),%rsi        # 15c1d <g_2569+0x1bb3>
   127c3:	48 89 cf             	mov    %rcx,%rdi
   127c6:	e8 28 3f ff ff       	callq  66f3 <transparent_crc>
   127cb:	8b 05 77 69 00 00    	mov    0x6977(%rip),%eax        # 19148 <g_515>
   127d1:	48 98                	cltq   
   127d3:	8b 55 fc             	mov    -0x4(%rbp),%edx
   127d6:	48 8d 35 49 34 00 00 	lea    0x3449(%rip),%rsi        # 15c26 <g_2569+0x1bbc>
   127dd:	48 89 c7             	mov    %rax,%rdi
   127e0:	e8 0e 3f ff ff       	callq  66f3 <transparent_crc>
   127e5:	c7 45 f0 00 00 00 00 	movl   $0x0,-0x10(%rbp)
   127ec:	e9 a0 00 00 00       	jmpq   12891 <main+0x6b8>
   127f1:	c7 45 f4 00 00 00 00 	movl   $0x0,-0xc(%rbp)
   127f8:	e9 86 00 00 00       	jmpq   12883 <main+0x6aa>
   127fd:	c7 45 f8 00 00 00 00 	movl   $0x0,-0x8(%rbp)
   12804:	eb 73                	jmp    12879 <main+0x6a0>
   12806:	8b 45 f8             	mov    -0x8(%rbp),%eax
   12809:	48 63 c8             	movslq %eax,%rcx
   1280c:	8b 45 f0             	mov    -0x10(%rbp),%eax
   1280f:	48 63 d0             	movslq %eax,%rdx
   12812:	8b 45 f4             	mov    -0xc(%rbp),%eax
   12815:	48 63 f0             	movslq %eax,%rsi
   12818:	48 89 d0             	mov    %rdx,%rax
   1281b:	48 01 c0             	add    %rax,%rax
   1281e:	48 01 d0             	add    %rdx,%rax
   12821:	48 01 c0             	add    %rax,%rax
   12824:	48 01 f0             	add    %rsi,%rax
   12827:	48 c1 e0 02          	shl    $0x2,%rax
   1282b:	48 01 c8             	add    %rcx,%rax
   1282e:	48 8d 14 00          	lea    (%rax,%rax,1),%rdx
   12832:	48 8d 05 27 69 00 00 	lea    0x6927(%rip),%rax        # 19160 <g_518>
   12839:	0f b7 04 02          	movzwl (%rdx,%rax,1),%eax
   1283d:	48 0f bf c0          	movswq %ax,%rax
   12841:	8b 55 fc             	mov    -0x4(%rbp),%edx
   12844:	48 8d 35 e4 33 00 00 	lea    0x33e4(%rip),%rsi        # 15c2f <g_2569+0x1bc5>
   1284b:	48 89 c7             	mov    %rax,%rdi
   1284e:	e8 a0 3e ff ff       	callq  66f3 <transparent_crc>
   12853:	83 7d fc 00          	cmpl   $0x0,-0x4(%rbp)
   12857:	74 1c                	je     12875 <main+0x69c>
   12859:	8b 4d f8             	mov    -0x8(%rbp),%ecx
   1285c:	8b 55 f4             	mov    -0xc(%rbp),%edx
   1285f:	8b 45 f0             	mov    -0x10(%rbp),%eax
   12862:	89 c6                	mov    %eax,%esi
   12864:	48 8d 3d 61 32 00 00 	lea    0x3261(%rip),%rdi        # 15acc <g_2569+0x1a62>
   1286b:	b8 00 00 00 00       	mov    $0x0,%eax
   12870:	e8 0b 28 ff ff       	callq  5080 <printf@plt>
   12875:	83 45 f8 01          	addl   $0x1,-0x8(%rbp)
   12879:	83 7d f8 03          	cmpl   $0x3,-0x8(%rbp)
   1287d:	7e 87                	jle    12806 <main+0x62d>
   1287f:	83 45 f4 01          	addl   $0x1,-0xc(%rbp)
   12883:	83 7d f4 05          	cmpl   $0x5,-0xc(%rbp)
   12887:	0f 8e 70 ff ff ff    	jle    127fd <main+0x624>
   1288d:	83 45 f0 01          	addl   $0x1,-0x10(%rbp)
   12891:	83 7d f0 08          	cmpl   $0x8,-0x10(%rbp)
   12895:	0f 8e 56 ff ff ff    	jle    127f1 <main+0x618>
   1289b:	8b 05 6f 6a 00 00    	mov    0x6a6f(%rip),%eax        # 19310 <g_557>
   128a1:	48 98                	cltq   
   128a3:	8b 55 fc             	mov    -0x4(%rbp),%edx
   128a6:	48 8d 35 91 33 00 00 	lea    0x3391(%rip),%rsi        # 15c3e <g_2569+0x1bd4>
   128ad:	48 89 c7             	mov    %rax,%rdi
   128b0:	e8 3e 3e ff ff       	callq  66f3 <transparent_crc>
   128b5:	8b 05 55 6a 00 00    	mov    0x6a55(%rip),%eax        # 19310 <g_557>
   128bb:	48 98                	cltq   
   128bd:	8b 55 fc             	mov    -0x4(%rbp),%edx
   128c0:	48 8d 35 80 33 00 00 	lea    0x3380(%rip),%rsi        # 15c47 <g_2569+0x1bdd>
   128c7:	48 89 c7             	mov    %rax,%rdi
   128ca:	e8 24 3e ff ff       	callq  66f3 <transparent_crc>
   128cf:	c7 45 f0 00 00 00 00 	movl   $0x0,-0x10(%rbp)
   128d6:	eb 77                	jmp    1294f <main+0x776>
   128d8:	c7 45 f4 00 00 00 00 	movl   $0x0,-0xc(%rbp)
   128df:	eb 64                	jmp    12945 <main+0x76c>
   128e1:	8b 45 f4             	mov    -0xc(%rbp),%eax
   128e4:	48 63 c8             	movslq %eax,%rcx
   128e7:	8b 45 f0             	mov    -0x10(%rbp),%eax
   128ea:	48 63 d0             	movslq %eax,%rdx
   128ed:	48 89 d0             	mov    %rdx,%rax
   128f0:	48 c1 e0 02          	shl    $0x2,%rax
   128f4:	48 01 d0             	add    %rdx,%rax
   128f7:	48 01 c8             	add    %rcx,%rax
   128fa:	48 8d 14 c5 00 00 00 	lea    0x0(,%rax,8),%rdx
   12901:	00 
   12902:	48 8d 05 17 6a 00 00 	lea    0x6a17(%rip),%rax        # 19320 <g_574>
   12909:	0f b7 04 02          	movzwl (%rdx,%rax,1),%eax
   1290d:	0f b7 c0             	movzwl %ax,%eax
   12910:	8b 55 fc             	mov    -0x4(%rbp),%edx
   12913:	48 8d 35 36 33 00 00 	lea    0x3336(%rip),%rsi        # 15c50 <g_2569+0x1be6>
   1291a:	48 89 c7             	mov    %rax,%rdi
   1291d:	e8 d1 3d ff ff       	callq  66f3 <transparent_crc>
   12922:	83 7d fc 00          	cmpl   $0x0,-0x4(%rbp)
   12926:	74 19                	je     12941 <main+0x768>
   12928:	8b 55 f4             	mov    -0xc(%rbp),%edx
   1292b:	8b 45 f0             	mov    -0x10(%rbp),%eax
   1292e:	89 c6                	mov    %eax,%esi
   12930:	48 8d 3d 28 33 00 00 	lea    0x3328(%rip),%rdi        # 15c5f <g_2569+0x1bf5>
   12937:	b8 00 00 00 00       	mov    $0x0,%eax
   1293c:	e8 3f 27 ff ff       	callq  5080 <printf@plt>
   12941:	83 45 f4 01          	addl   $0x1,-0xc(%rbp)
   12945:	83 7d f4 04          	cmpl   $0x4,-0xc(%rbp)
   12949:	7e 96                	jle    128e1 <main+0x708>
   1294b:	83 45 f0 01          	addl   $0x1,-0x10(%rbp)
   1294f:	83 7d f0 03          	cmpl   $0x3,-0x10(%rbp)
   12953:	7e 83                	jle    128d8 <main+0x6ff>
   12955:	8b 05 65 6a 00 00    	mov    0x6a65(%rip),%eax        # 193c0 <g_630>
   1295b:	48 98                	cltq   
   1295d:	8b 55 fc             	mov    -0x4(%rbp),%edx
   12960:	48 8d 35 0a 33 00 00 	lea    0x330a(%rip),%rsi        # 15c71 <g_2569+0x1c07>
   12967:	48 89 c7             	mov    %rax,%rdi
   1296a:	e8 84 3d ff ff       	callq  66f3 <transparent_crc>
   1296f:	8b 05 4b 6a 00 00    	mov    0x6a4b(%rip),%eax        # 193c0 <g_630>
   12975:	48 98                	cltq   
   12977:	8b 55 fc             	mov    -0x4(%rbp),%edx
   1297a:	48 8d 35 f9 32 00 00 	lea    0x32f9(%rip),%rsi        # 15c7a <g_2569+0x1c10>
   12981:	48 89 c7             	mov    %rax,%rdi
   12984:	e8 6a 3d ff ff       	callq  66f3 <transparent_crc>
   12989:	8b 05 35 6a 00 00    	mov    0x6a35(%rip),%eax        # 193c4 <g_641>
   1298f:	48 98                	cltq   
   12991:	8b 55 fc             	mov    -0x4(%rbp),%edx
   12994:	48 8d 35 e8 32 00 00 	lea    0x32e8(%rip),%rsi        # 15c83 <g_2569+0x1c19>
   1299b:	48 89 c7             	mov    %rax,%rdi
   1299e:	e8 50 3d ff ff       	callq  66f3 <transparent_crc>
   129a3:	8b 05 1b 6a 00 00    	mov    0x6a1b(%rip),%eax        # 193c4 <g_641>
   129a9:	48 98                	cltq   
   129ab:	8b 55 fc             	mov    -0x4(%rbp),%edx
   129ae:	48 8d 35 d7 32 00 00 	lea    0x32d7(%rip),%rsi        # 15c8c <g_2569+0x1c22>
   129b5:	48 89 c7             	mov    %rax,%rdi
   129b8:	e8 36 3d ff ff       	callq  66f3 <transparent_crc>
   129bd:	48 8b 05 04 6a 00 00 	mov    0x6a04(%rip),%rax        # 193c8 <g_668>
   129c4:	48 89 c1             	mov    %rax,%rcx
   129c7:	8b 45 fc             	mov    -0x4(%rbp),%eax
   129ca:	89 c2                	mov    %eax,%edx
   129cc:	48 8d 35 c2 32 00 00 	lea    0x32c2(%rip),%rsi        # 15c95 <g_2569+0x1c2b>
   129d3:	48 89 cf             	mov    %rcx,%rdi
   129d6:	e8 18 3d ff ff       	callq  66f3 <transparent_crc>
   129db:	c7 45 f0 00 00 00 00 	movl   $0x0,-0x10(%rbp)
   129e2:	e9 c1 00 00 00       	jmpq   12aa8 <main+0x8cf>
   129e7:	c7 45 f4 00 00 00 00 	movl   $0x0,-0xc(%rbp)
   129ee:	e9 a7 00 00 00       	jmpq   12a9a <main+0x8c1>
   129f3:	8b 45 f4             	mov    -0xc(%rbp),%eax
   129f6:	48 63 c8             	movslq %eax,%rcx
   129f9:	8b 45 f0             	mov    -0x10(%rbp),%eax
   129fc:	48 63 d0             	movslq %eax,%rdx
   129ff:	48 89 d0             	mov    %rdx,%rax
   12a02:	48 01 c0             	add    %rax,%rax
   12a05:	48 01 d0             	add    %rdx,%rax
   12a08:	48 01 c0             	add    %rax,%rax
   12a0b:	48 01 c8             	add    %rcx,%rax
   12a0e:	48 8d 14 c5 00 00 00 	lea    0x0(,%rax,8),%rdx
   12a15:	00 
   12a16:	48 8d 05 c3 69 00 00 	lea    0x69c3(%rip),%rax        # 193e0 <g_714>
   12a1d:	8b 04 02             	mov    (%rdx,%rax,1),%eax
   12a20:	89 c1                	mov    %eax,%ecx
   12a22:	8b 45 fc             	mov    -0x4(%rbp),%eax
   12a25:	89 c2                	mov    %eax,%edx
   12a27:	48 8d 35 6d 32 00 00 	lea    0x326d(%rip),%rsi        # 15c9b <g_2569+0x1c31>
   12a2e:	48 89 cf             	mov    %rcx,%rdi
   12a31:	e8 bd 3c ff ff       	callq  66f3 <transparent_crc>
   12a36:	8b 45 f4             	mov    -0xc(%rbp),%eax
   12a39:	48 63 c8             	movslq %eax,%rcx
   12a3c:	8b 45 f0             	mov    -0x10(%rbp),%eax
   12a3f:	48 63 d0             	movslq %eax,%rdx
   12a42:	48 89 d0             	mov    %rdx,%rax
   12a45:	48 01 c0             	add    %rax,%rax
   12a48:	48 01 d0             	add    %rdx,%rax
   12a4b:	48 01 c0             	add    %rax,%rax
   12a4e:	48 01 c8             	add    %rcx,%rax
   12a51:	48 8d 14 c5 00 00 00 	lea    0x0(,%rax,8),%rdx
   12a58:	00 
   12a59:	48 8d 05 80 69 00 00 	lea    0x6980(%rip),%rax        # 193e0 <g_714>
   12a60:	8b 04 02             	mov    (%rdx,%rax,1),%eax
   12a63:	48 98                	cltq   
   12a65:	8b 55 fc             	mov    -0x4(%rbp),%edx
   12a68:	48 8d 35 3b 32 00 00 	lea    0x323b(%rip),%rsi        # 15caa <g_2569+0x1c40>
   12a6f:	48 89 c7             	mov    %rax,%rdi
   12a72:	e8 7c 3c ff ff       	callq  66f3 <transparent_crc>
   12a77:	83 7d fc 00          	cmpl   $0x0,-0x4(%rbp)
   12a7b:	74 19                	je     12a96 <main+0x8bd>
   12a7d:	8b 55 f4             	mov    -0xc(%rbp),%edx
   12a80:	8b 45 f0             	mov    -0x10(%rbp),%eax
   12a83:	89 c6                	mov    %eax,%esi
   12a85:	48 8d 3d d3 31 00 00 	lea    0x31d3(%rip),%rdi        # 15c5f <g_2569+0x1bf5>
   12a8c:	b8 00 00 00 00       	mov    $0x0,%eax
   12a91:	e8 ea 25 ff ff       	callq  5080 <printf@plt>
   12a96:	83 45 f4 01          	addl   $0x1,-0xc(%rbp)
   12a9a:	83 7d f4 05          	cmpl   $0x5,-0xc(%rbp)
   12a9e:	0f 8e 4f ff ff ff    	jle    129f3 <main+0x81a>
   12aa4:	83 45 f0 01          	addl   $0x1,-0x10(%rbp)
   12aa8:	83 7d f0 01          	cmpl   $0x1,-0x10(%rbp)
   12aac:	0f 8e 35 ff ff ff    	jle    129e7 <main+0x80e>
   12ab2:	48 8b 05 87 69 00 00 	mov    0x6987(%rip),%rax        # 19440 <g_743>
   12ab9:	8b 55 fc             	mov    -0x4(%rbp),%edx
   12abc:	48 8d 35 f6 31 00 00 	lea    0x31f6(%rip),%rsi        # 15cb9 <g_2569+0x1c4f>
   12ac3:	48 89 c7             	mov    %rax,%rdi
   12ac6:	e8 28 3c ff ff       	callq  66f3 <transparent_crc>
   12acb:	8b 05 6f 69 00 00    	mov    0x696f(%rip),%eax        # 19440 <g_743>
   12ad1:	89 c1                	mov    %eax,%ecx
   12ad3:	8b 45 fc             	mov    -0x4(%rbp),%eax
   12ad6:	89 c2                	mov    %eax,%edx
   12ad8:	48 8d 35 e3 31 00 00 	lea    0x31e3(%rip),%rsi        # 15cc2 <g_2569+0x1c58>
   12adf:	48 89 cf             	mov    %rcx,%rdi
   12ae2:	e8 0c 3c ff ff       	callq  66f3 <transparent_crc>
   12ae7:	8b 05 53 69 00 00    	mov    0x6953(%rip),%eax        # 19440 <g_743>
   12aed:	48 98                	cltq   
   12aef:	8b 55 fc             	mov    -0x4(%rbp),%edx
   12af2:	48 8d 35 d2 31 00 00 	lea    0x31d2(%rip),%rsi        # 15ccb <g_2569+0x1c61>
   12af9:	48 89 c7             	mov    %rax,%rdi
   12afc:	e8 f2 3b ff ff       	callq  66f3 <transparent_crc>
   12b01:	0f b7 05 60 95 00 00 	movzwl 0x9560(%rip),%eax        # 1c068 <g_750>
   12b08:	0f b7 c0             	movzwl %ax,%eax
   12b0b:	8b 55 fc             	mov    -0x4(%rbp),%edx
   12b0e:	48 8d 35 bf 31 00 00 	lea    0x31bf(%rip),%rsi        # 15cd4 <g_2569+0x1c6a>
   12b15:	48 89 c7             	mov    %rax,%rdi
   12b18:	e8 d6 3b ff ff       	callq  66f3 <transparent_crc>
   12b1d:	8b 05 25 69 00 00    	mov    0x6925(%rip),%eax        # 19448 <g_840>
   12b23:	89 c1                	mov    %eax,%ecx
   12b25:	8b 45 fc             	mov    -0x4(%rbp),%eax
   12b28:	89 c2                	mov    %eax,%edx
   12b2a:	48 8d 35 ac 31 00 00 	lea    0x31ac(%rip),%rsi        # 15cdd <g_2569+0x1c73>
   12b31:	48 89 cf             	mov    %rcx,%rdi
   12b34:	e8 ba 3b ff ff       	callq  66f3 <transparent_crc>
   12b39:	8b 05 09 69 00 00    	mov    0x6909(%rip),%eax        # 19448 <g_840>
   12b3f:	48 98                	cltq   
   12b41:	8b 55 fc             	mov    -0x4(%rbp),%edx
   12b44:	48 8d 35 9b 31 00 00 	lea    0x319b(%rip),%rsi        # 15ce6 <g_2569+0x1c7c>
   12b4b:	48 89 c7             	mov    %rax,%rdi
   12b4e:	e8 a0 3b ff ff       	callq  66f3 <transparent_crc>
   12b53:	0f b7 05 f6 68 00 00 	movzwl 0x68f6(%rip),%eax        # 19450 <g_874>
   12b5a:	0f b7 c0             	movzwl %ax,%eax
   12b5d:	8b 55 fc             	mov    -0x4(%rbp),%edx
   12b60:	48 8d 35 88 31 00 00 	lea    0x3188(%rip),%rsi        # 15cef <g_2569+0x1c85>
   12b67:	48 89 c7             	mov    %rax,%rdi
   12b6a:	e8 84 3b ff ff       	callq  66f3 <transparent_crc>
   12b6f:	48 8b 05 e2 68 00 00 	mov    0x68e2(%rip),%rax        # 19458 <g_929>
   12b76:	8b 55 fc             	mov    -0x4(%rbp),%edx
   12b79:	48 8d 35 78 31 00 00 	lea    0x3178(%rip),%rsi        # 15cf8 <g_2569+0x1c8e>
   12b80:	48 89 c7             	mov    %rax,%rdi
   12b83:	e8 6b 3b ff ff       	callq  66f3 <transparent_crc>
   12b88:	8b 05 ca 68 00 00    	mov    0x68ca(%rip),%eax        # 19458 <g_929>
   12b8e:	89 c1                	mov    %eax,%ecx
   12b90:	8b 45 fc             	mov    -0x4(%rbp),%eax
   12b93:	89 c2                	mov    %eax,%edx
   12b95:	48 8d 35 65 31 00 00 	lea    0x3165(%rip),%rsi        # 15d01 <g_2569+0x1c97>
   12b9c:	48 89 cf             	mov    %rcx,%rdi
   12b9f:	e8 4f 3b ff ff       	callq  66f3 <transparent_crc>
   12ba4:	8b 05 ae 68 00 00    	mov    0x68ae(%rip),%eax        # 19458 <g_929>
   12baa:	48 98                	cltq   
   12bac:	8b 55 fc             	mov    -0x4(%rbp),%edx
   12baf:	48 8d 35 54 31 00 00 	lea    0x3154(%rip),%rsi        # 15d0a <g_2569+0x1ca0>
   12bb6:	48 89 c7             	mov    %rax,%rdi
   12bb9:	e8 35 3b ff ff       	callq  66f3 <transparent_crc>
   12bbe:	8b 05 9c 68 00 00    	mov    0x689c(%rip),%eax        # 19460 <g_962>
   12bc4:	48 98                	cltq   
   12bc6:	8b 55 fc             	mov    -0x4(%rbp),%edx
   12bc9:	48 8d 35 43 31 00 00 	lea    0x3143(%rip),%rsi        # 15d13 <g_2569+0x1ca9>
   12bd0:	48 89 c7             	mov    %rax,%rdi
   12bd3:	e8 1b 3b ff ff       	callq  66f3 <transparent_crc>
   12bd8:	8b 05 b2 94 00 00    	mov    0x94b2(%rip),%eax        # 1c090 <g_1008>
   12bde:	48 98                	cltq   
   12be0:	8b 55 fc             	mov    -0x4(%rbp),%edx
   12be3:	48 8d 35 2f 31 00 00 	lea    0x312f(%rip),%rsi        # 15d19 <g_2569+0x1caf>
   12bea:	48 89 c7             	mov    %rax,%rdi
   12bed:	e8 01 3b ff ff       	callq  66f3 <transparent_crc>
   12bf2:	8b 05 98 94 00 00    	mov    0x9498(%rip),%eax        # 1c090 <g_1008>
   12bf8:	48 98                	cltq   
   12bfa:	8b 55 fc             	mov    -0x4(%rbp),%edx
   12bfd:	48 8d 35 1f 31 00 00 	lea    0x311f(%rip),%rsi        # 15d23 <g_2569+0x1cb9>
   12c04:	48 89 c7             	mov    %rax,%rdi
   12c07:	e8 e7 3a ff ff       	callq  66f3 <transparent_crc>
   12c0c:	c7 45 f0 00 00 00 00 	movl   $0x0,-0x10(%rbp)
   12c13:	eb 76                	jmp    12c8b <main+0xab2>
   12c15:	8b 45 f0             	mov    -0x10(%rbp),%eax
   12c18:	48 98                	cltq   
   12c1a:	48 8d 14 85 00 00 00 	lea    0x0(,%rax,4),%rdx
   12c21:	00 
   12c22:	48 8d 05 47 68 00 00 	lea    0x6847(%rip),%rax        # 19470 <g_1024>
   12c29:	8b 04 02             	mov    (%rdx,%rax,1),%eax
   12c2c:	48 98                	cltq   
   12c2e:	8b 55 fc             	mov    -0x4(%rbp),%edx
   12c31:	48 8d 35 f5 30 00 00 	lea    0x30f5(%rip),%rsi        # 15d2d <g_2569+0x1cc3>
   12c38:	48 89 c7             	mov    %rax,%rdi
   12c3b:	e8 b3 3a ff ff       	callq  66f3 <transparent_crc>
   12c40:	8b 45 f0             	mov    -0x10(%rbp),%eax
   12c43:	48 98                	cltq   
   12c45:	48 8d 14 85 00 00 00 	lea    0x0(,%rax,4),%rdx
   12c4c:	00 
   12c4d:	48 8d 05 1c 68 00 00 	lea    0x681c(%rip),%rax        # 19470 <g_1024>
   12c54:	8b 04 02             	mov    (%rdx,%rax,1),%eax
   12c57:	48 98                	cltq   
   12c59:	8b 55 fc             	mov    -0x4(%rbp),%edx
   12c5c:	48 8d 35 d7 30 00 00 	lea    0x30d7(%rip),%rsi        # 15d3a <g_2569+0x1cd0>
   12c63:	48 89 c7             	mov    %rax,%rdi
   12c66:	e8 88 3a ff ff       	callq  66f3 <transparent_crc>
   12c6b:	83 7d fc 00          	cmpl   $0x0,-0x4(%rbp)
   12c6f:	74 16                	je     12c87 <main+0xaae>
   12c71:	8b 45 f0             	mov    -0x10(%rbp),%eax
   12c74:	89 c6                	mov    %eax,%esi
   12c76:	48 8d 3d 6d 2e 00 00 	lea    0x2e6d(%rip),%rdi        # 15aea <g_2569+0x1a80>
   12c7d:	b8 00 00 00 00       	mov    $0x0,%eax
   12c82:	e8 f9 23 ff ff       	callq  5080 <printf@plt>
   12c87:	83 45 f0 01          	addl   $0x1,-0x10(%rbp)
   12c8b:	83 7d f0 05          	cmpl   $0x5,-0x10(%rbp)
   12c8f:	7e 84                	jle    12c15 <main+0xa3c>
   12c91:	48 8b 05 f0 67 00 00 	mov    0x67f0(%rip),%rax        # 19488 <g_1083>
   12c98:	48 89 c1             	mov    %rax,%rcx
   12c9b:	8b 45 fc             	mov    -0x4(%rbp),%eax
   12c9e:	89 c2                	mov    %eax,%edx
   12ca0:	48 8d 35 a0 30 00 00 	lea    0x30a0(%rip),%rsi        # 15d47 <g_2569+0x1cdd>
   12ca7:	48 89 cf             	mov    %rcx,%rdi
   12caa:	e8 44 3a ff ff       	callq  66f3 <transparent_crc>
   12caf:	48 8b 05 da 67 00 00 	mov    0x67da(%rip),%rax        # 19490 <g_1084>
   12cb6:	48 89 c1             	mov    %rax,%rcx
   12cb9:	8b 45 fc             	mov    -0x4(%rbp),%eax
   12cbc:	89 c2                	mov    %eax,%edx
   12cbe:	48 8d 35 89 30 00 00 	lea    0x3089(%rip),%rsi        # 15d4e <g_2569+0x1ce4>
   12cc5:	48 89 cf             	mov    %rcx,%rdi
   12cc8:	e8 26 3a ff ff       	callq  66f3 <transparent_crc>
   12ccd:	48 8b 05 c4 67 00 00 	mov    0x67c4(%rip),%rax        # 19498 <g_1085>
   12cd4:	48 89 c1             	mov    %rax,%rcx
   12cd7:	8b 45 fc             	mov    -0x4(%rbp),%eax
   12cda:	89 c2                	mov    %eax,%edx
   12cdc:	48 8d 35 72 30 00 00 	lea    0x3072(%rip),%rsi        # 15d55 <g_2569+0x1ceb>
   12ce3:	48 89 cf             	mov    %rcx,%rdi
   12ce6:	e8 08 3a ff ff       	callq  66f3 <transparent_crc>
   12ceb:	48 8b 05 ae 67 00 00 	mov    0x67ae(%rip),%rax        # 194a0 <g_1086>
   12cf2:	48 89 c1             	mov    %rax,%rcx
   12cf5:	8b 45 fc             	mov    -0x4(%rbp),%eax
   12cf8:	89 c2                	mov    %eax,%edx
   12cfa:	48 8d 35 5b 30 00 00 	lea    0x305b(%rip),%rsi        # 15d5c <g_2569+0x1cf2>
   12d01:	48 89 cf             	mov    %rcx,%rdi
   12d04:	e8 ea 39 ff ff       	callq  66f3 <transparent_crc>
   12d09:	48 8b 05 98 67 00 00 	mov    0x6798(%rip),%rax        # 194a8 <g_1087>
   12d10:	48 89 c1             	mov    %rax,%rcx
   12d13:	8b 45 fc             	mov    -0x4(%rbp),%eax
   12d16:	89 c2                	mov    %eax,%edx
   12d18:	48 8d 35 44 30 00 00 	lea    0x3044(%rip),%rsi        # 15d63 <g_2569+0x1cf9>
   12d1f:	48 89 cf             	mov    %rcx,%rdi
   12d22:	e8 cc 39 ff ff       	callq  66f3 <transparent_crc>
   12d27:	48 8b 05 82 67 00 00 	mov    0x6782(%rip),%rax        # 194b0 <g_1088>
   12d2e:	48 89 c1             	mov    %rax,%rcx
   12d31:	8b 45 fc             	mov    -0x4(%rbp),%eax
   12d34:	89 c2                	mov    %eax,%edx
   12d36:	48 8d 35 2d 30 00 00 	lea    0x302d(%rip),%rsi        # 15d6a <g_2569+0x1d00>
   12d3d:	48 89 cf             	mov    %rcx,%rdi
   12d40:	e8 ae 39 ff ff       	callq  66f3 <transparent_crc>
   12d45:	c7 45 f0 00 00 00 00 	movl   $0x0,-0x10(%rbp)
   12d4c:	e9 bb 00 00 00       	jmpq   12e0c <main+0xc33>
   12d51:	c7 45 f4 00 00 00 00 	movl   $0x0,-0xc(%rbp)
   12d58:	e9 a1 00 00 00       	jmpq   12dfe <main+0xc25>
   12d5d:	c7 45 f8 00 00 00 00 	movl   $0x0,-0x8(%rbp)
   12d64:	e9 87 00 00 00       	jmpq   12df0 <main+0xc17>
   12d69:	8b 45 f8             	mov    -0x8(%rbp),%eax
   12d6c:	48 63 f0             	movslq %eax,%rsi
   12d6f:	8b 45 f0             	mov    -0x10(%rbp),%eax
   12d72:	48 63 d0             	movslq %eax,%rdx
   12d75:	8b 45 f4             	mov    -0xc(%rbp),%eax
   12d78:	48 63 c8             	movslq %eax,%rcx
   12d7b:	48 89 d0             	mov    %rdx,%rax
   12d7e:	48 c1 e0 02          	shl    $0x2,%rax
   12d82:	48 01 d0             	add    %rdx,%rax
   12d85:	48 8d 14 85 00 00 00 	lea    0x0(,%rax,4),%rdx
   12d8c:	00 
   12d8d:	48 01 d0             	add    %rdx,%rax
   12d90:	48 89 ca             	mov    %rcx,%rdx
   12d93:	48 c1 e2 02          	shl    $0x2,%rdx
   12d97:	48 01 ca             	add    %rcx,%rdx
   12d9a:	48 01 d0             	add    %rdx,%rax
   12d9d:	48 01 f0             	add    %rsi,%rax
   12da0:	48 8d 14 c5 00 00 00 	lea    0x0(,%rax,8),%rdx
   12da7:	00 
   12da8:	48 8d 05 11 67 00 00 	lea    0x6711(%rip),%rax        # 194c0 <g_1089>
   12daf:	48 8b 04 02          	mov    (%rdx,%rax,1),%rax
   12db3:	48 89 c1             	mov    %rax,%rcx
   12db6:	8b 45 fc             	mov    -0x4(%rbp),%eax
   12db9:	89 c2                	mov    %eax,%edx
   12dbb:	48 8d 35 af 2f 00 00 	lea    0x2faf(%rip),%rsi        # 15d71 <g_2569+0x1d07>
   12dc2:	48 89 cf             	mov    %rcx,%rdi
   12dc5:	e8 29 39 ff ff       	callq  66f3 <transparent_crc>
   12dca:	83 7d fc 00          	cmpl   $0x0,-0x4(%rbp)
   12dce:	74 1c                	je     12dec <main+0xc13>
   12dd0:	8b 4d f8             	mov    -0x8(%rbp),%ecx
   12dd3:	8b 55 f4             	mov    -0xc(%rbp),%edx
   12dd6:	8b 45 f0             	mov    -0x10(%rbp),%eax
   12dd9:	89 c6                	mov    %eax,%esi
   12ddb:	48 8d 3d ea 2c 00 00 	lea    0x2cea(%rip),%rdi        # 15acc <g_2569+0x1a62>
   12de2:	b8 00 00 00 00       	mov    $0x0,%eax
   12de7:	e8 94 22 ff ff       	callq  5080 <printf@plt>
   12dec:	83 45 f8 01          	addl   $0x1,-0x8(%rbp)
   12df0:	83 7d f8 04          	cmpl   $0x4,-0x8(%rbp)
   12df4:	0f 8e 6f ff ff ff    	jle    12d69 <main+0xb90>
   12dfa:	83 45 f4 01          	addl   $0x1,-0xc(%rbp)
   12dfe:	83 7d f4 04          	cmpl   $0x4,-0xc(%rbp)
   12e02:	0f 8e 55 ff ff ff    	jle    12d5d <main+0xb84>
   12e08:	83 45 f0 01          	addl   $0x1,-0x10(%rbp)
   12e0c:	83 7d f0 02          	cmpl   $0x2,-0x10(%rbp)
   12e10:	0f 8e 3b ff ff ff    	jle    12d51 <main+0xb78>
   12e16:	48 8b 05 fb 68 00 00 	mov    0x68fb(%rip),%rax        # 19718 <g_1090>
   12e1d:	48 89 c1             	mov    %rax,%rcx
   12e20:	8b 45 fc             	mov    -0x4(%rbp),%eax
   12e23:	89 c2                	mov    %eax,%edx
   12e25:	48 8d 35 55 2f 00 00 	lea    0x2f55(%rip),%rsi        # 15d81 <g_2569+0x1d17>
   12e2c:	48 89 cf             	mov    %rcx,%rdi
   12e2f:	e8 bf 38 ff ff       	callq  66f3 <transparent_crc>
   12e34:	c7 45 f0 00 00 00 00 	movl   $0x0,-0x10(%rbp)
   12e3b:	e9 9e 00 00 00       	jmpq   12ede <main+0xd05>
   12e40:	c7 45 f4 00 00 00 00 	movl   $0x0,-0xc(%rbp)
   12e47:	e9 84 00 00 00       	jmpq   12ed0 <main+0xcf7>
   12e4c:	c7 45 f8 00 00 00 00 	movl   $0x0,-0x8(%rbp)
   12e53:	eb 71                	jmp    12ec6 <main+0xced>
   12e55:	8b 45 f8             	mov    -0x8(%rbp),%eax
   12e58:	48 63 c8             	movslq %eax,%rcx
   12e5b:	8b 45 f0             	mov    -0x10(%rbp),%eax
   12e5e:	48 63 d0             	movslq %eax,%rdx
   12e61:	8b 45 f4             	mov    -0xc(%rbp),%eax
   12e64:	48 98                	cltq   
   12e66:	48 01 c2             	add    %rax,%rdx
   12e69:	48 89 d0             	mov    %rdx,%rax
   12e6c:	48 c1 e0 03          	shl    $0x3,%rax
   12e70:	48 01 d0             	add    %rdx,%rax
   12e73:	48 01 c8             	add    %rcx,%rax
   12e76:	48 8d 14 c5 00 00 00 	lea    0x0(,%rax,8),%rdx
   12e7d:	00 
   12e7e:	48 8d 05 9b 68 00 00 	lea    0x689b(%rip),%rax        # 19720 <g_1091>
   12e85:	48 8b 04 02          	mov    (%rdx,%rax,1),%rax
   12e89:	48 89 c1             	mov    %rax,%rcx
   12e8c:	8b 45 fc             	mov    -0x4(%rbp),%eax
   12e8f:	89 c2                	mov    %eax,%edx
   12e91:	48 8d 35 f0 2e 00 00 	lea    0x2ef0(%rip),%rsi        # 15d88 <g_2569+0x1d1e>
   12e98:	48 89 cf             	mov    %rcx,%rdi
   12e9b:	e8 53 38 ff ff       	callq  66f3 <transparent_crc>
   12ea0:	83 7d fc 00          	cmpl   $0x0,-0x4(%rbp)
   12ea4:	74 1c                	je     12ec2 <main+0xce9>
   12ea6:	8b 4d f8             	mov    -0x8(%rbp),%ecx
   12ea9:	8b 55 f4             	mov    -0xc(%rbp),%edx
   12eac:	8b 45 f0             	mov    -0x10(%rbp),%eax
   12eaf:	89 c6                	mov    %eax,%esi
   12eb1:	48 8d 3d 14 2c 00 00 	lea    0x2c14(%rip),%rdi        # 15acc <g_2569+0x1a62>
   12eb8:	b8 00 00 00 00       	mov    $0x0,%eax
   12ebd:	e8 be 21 ff ff       	callq  5080 <printf@plt>
   12ec2:	83 45 f8 01          	addl   $0x1,-0x8(%rbp)
   12ec6:	83 7d f8 08          	cmpl   $0x8,-0x8(%rbp)
   12eca:	7e 89                	jle    12e55 <main+0xc7c>
   12ecc:	83 45 f4 01          	addl   $0x1,-0xc(%rbp)
   12ed0:	83 7d f4 00          	cmpl   $0x0,-0xc(%rbp)
   12ed4:	0f 8e 72 ff ff ff    	jle    12e4c <main+0xc73>
   12eda:	83 45 f0 01          	addl   $0x1,-0x10(%rbp)
   12ede:	83 7d f0 01          	cmpl   $0x1,-0x10(%rbp)
   12ee2:	0f 8e 58 ff ff ff    	jle    12e40 <main+0xc67>
   12ee8:	48 8b 05 c1 68 00 00 	mov    0x68c1(%rip),%rax        # 197b0 <g_1092>
   12eef:	48 89 c1             	mov    %rax,%rcx
   12ef2:	8b 45 fc             	mov    -0x4(%rbp),%eax
   12ef5:	89 c2                	mov    %eax,%edx
   12ef7:	48 8d 35 9a 2e 00 00 	lea    0x2e9a(%rip),%rsi        # 15d98 <g_2569+0x1d2e>
   12efe:	48 89 cf             	mov    %rcx,%rdi
   12f01:	e8 ed 37 ff ff       	callq  66f3 <transparent_crc>
   12f06:	48 8b 05 ab 68 00 00 	mov    0x68ab(%rip),%rax        # 197b8 <g_1093>
   12f0d:	48 89 c1             	mov    %rax,%rcx
   12f10:	8b 45 fc             	mov    -0x4(%rbp),%eax
   12f13:	89 c2                	mov    %eax,%edx
   12f15:	48 8d 35 83 2e 00 00 	lea    0x2e83(%rip),%rsi        # 15d9f <g_2569+0x1d35>
   12f1c:	48 89 cf             	mov    %rcx,%rdi
   12f1f:	e8 cf 37 ff ff       	callq  66f3 <transparent_crc>
   12f24:	48 8b 05 85 91 00 00 	mov    0x9185(%rip),%rax        # 1c0b0 <g_1094>
   12f2b:	48 89 c1             	mov    %rax,%rcx
   12f2e:	8b 45 fc             	mov    -0x4(%rbp),%eax
   12f31:	89 c2                	mov    %eax,%edx
   12f33:	48 8d 35 6c 2e 00 00 	lea    0x2e6c(%rip),%rsi        # 15da6 <g_2569+0x1d3c>
   12f3a:	48 89 cf             	mov    %rcx,%rdi
   12f3d:	e8 b1 37 ff ff       	callq  66f3 <transparent_crc>
   12f42:	c7 45 f0 00 00 00 00 	movl   $0x0,-0x10(%rbp)
   12f49:	eb 4f                	jmp    12f9a <main+0xdc1>
   12f4b:	8b 45 f0             	mov    -0x10(%rbp),%eax
   12f4e:	48 98                	cltq   
   12f50:	48 8d 14 c5 00 00 00 	lea    0x0(,%rax,8),%rdx
   12f57:	00 
   12f58:	48 8d 05 61 91 00 00 	lea    0x9161(%rip),%rax        # 1c0c0 <g_1095>
   12f5f:	48 8b 04 02          	mov    (%rdx,%rax,1),%rax
   12f63:	48 89 c1             	mov    %rax,%rcx
   12f66:	8b 45 fc             	mov    -0x4(%rbp),%eax
   12f69:	89 c2                	mov    %eax,%edx
   12f6b:	48 8d 35 3b 2e 00 00 	lea    0x2e3b(%rip),%rsi        # 15dad <g_2569+0x1d43>
   12f72:	48 89 cf             	mov    %rcx,%rdi
   12f75:	e8 79 37 ff ff       	callq  66f3 <transparent_crc>
   12f7a:	83 7d fc 00          	cmpl   $0x0,-0x4(%rbp)
   12f7e:	74 16                	je     12f96 <main+0xdbd>
   12f80:	8b 45 f0             	mov    -0x10(%rbp),%eax
   12f83:	89 c6                	mov    %eax,%esi
   12f85:	48 8d 3d 5e 2b 00 00 	lea    0x2b5e(%rip),%rdi        # 15aea <g_2569+0x1a80>
   12f8c:	b8 00 00 00 00       	mov    $0x0,%eax
   12f91:	e8 ea 20 ff ff       	callq  5080 <printf@plt>
   12f96:	83 45 f0 01          	addl   $0x1,-0x10(%rbp)
   12f9a:	83 7d f0 02          	cmpl   $0x2,-0x10(%rbp)
   12f9e:	7e ab                	jle    12f4b <main+0xd72>
   12fa0:	c7 45 f0 00 00 00 00 	movl   $0x0,-0x10(%rbp)
   12fa7:	eb 79                	jmp    13022 <main+0xe49>
   12fa9:	c7 45 f4 00 00 00 00 	movl   $0x0,-0xc(%rbp)
   12fb0:	eb 66                	jmp    13018 <main+0xe3f>
   12fb2:	8b 45 f4             	mov    -0xc(%rbp),%eax
   12fb5:	48 63 c8             	movslq %eax,%rcx
   12fb8:	8b 45 f0             	mov    -0x10(%rbp),%eax
   12fbb:	48 63 d0             	movslq %eax,%rdx
   12fbe:	48 89 d0             	mov    %rdx,%rax
   12fc1:	48 c1 e0 03          	shl    $0x3,%rax
   12fc5:	48 29 d0             	sub    %rdx,%rax
   12fc8:	48 01 c8             	add    %rcx,%rax
   12fcb:	48 8d 14 c5 00 00 00 	lea    0x0(,%rax,8),%rdx
   12fd2:	00 
   12fd3:	48 8d 05 e6 67 00 00 	lea    0x67e6(%rip),%rax        # 197c0 <g_1096>
   12fda:	48 8b 04 02          	mov    (%rdx,%rax,1),%rax
   12fde:	48 89 c1             	mov    %rax,%rcx
   12fe1:	8b 45 fc             	mov    -0x4(%rbp),%eax
   12fe4:	89 c2                	mov    %eax,%edx
   12fe6:	48 8d 35 ca 2d 00 00 	lea    0x2dca(%rip),%rsi        # 15db7 <g_2569+0x1d4d>
   12fed:	48 89 cf             	mov    %rcx,%rdi
   12ff0:	e8 fe 36 ff ff       	callq  66f3 <transparent_crc>
   12ff5:	83 7d fc 00          	cmpl   $0x0,-0x4(%rbp)
   12ff9:	74 19                	je     13014 <main+0xe3b>
   12ffb:	8b 55 f4             	mov    -0xc(%rbp),%edx
   12ffe:	8b 45 f0             	mov    -0x10(%rbp),%eax
   13001:	89 c6                	mov    %eax,%esi
   13003:	48 8d 3d 55 2c 00 00 	lea    0x2c55(%rip),%rdi        # 15c5f <g_2569+0x1bf5>
   1300a:	b8 00 00 00 00       	mov    $0x0,%eax
   1300f:	e8 6c 20 ff ff       	callq  5080 <printf@plt>
   13014:	83 45 f4 01          	addl   $0x1,-0xc(%rbp)
   13018:	83 7d f4 06          	cmpl   $0x6,-0xc(%rbp)
   1301c:	7e 94                	jle    12fb2 <main+0xdd9>
   1301e:	83 45 f0 01          	addl   $0x1,-0x10(%rbp)
   13022:	83 7d f0 05          	cmpl   $0x5,-0x10(%rbp)
   13026:	7e 81                	jle    12fa9 <main+0xdd0>
   13028:	48 8b 05 e1 68 00 00 	mov    0x68e1(%rip),%rax        # 19910 <g_1097>
   1302f:	48 89 c1             	mov    %rax,%rcx
   13032:	8b 45 fc             	mov    -0x4(%rbp),%eax
   13035:	89 c2                	mov    %eax,%edx
   13037:	48 8d 35 86 2d 00 00 	lea    0x2d86(%rip),%rsi        # 15dc4 <g_2569+0x1d5a>
   1303e:	48 89 cf             	mov    %rcx,%rdi
   13041:	e8 ad 36 ff ff       	callq  66f3 <transparent_crc>
   13046:	48 8b 05 cb 68 00 00 	mov    0x68cb(%rip),%rax        # 19918 <g_1098>
   1304d:	48 89 c1             	mov    %rax,%rcx
   13050:	8b 45 fc             	mov    -0x4(%rbp),%eax
   13053:	89 c2                	mov    %eax,%edx
   13055:	48 8d 35 6f 2d 00 00 	lea    0x2d6f(%rip),%rsi        # 15dcb <g_2569+0x1d61>
   1305c:	48 89 cf             	mov    %rcx,%rdi
   1305f:	e8 8f 36 ff ff       	callq  66f3 <transparent_crc>
   13064:	48 8b 05 b5 68 00 00 	mov    0x68b5(%rip),%rax        # 19920 <g_1099>
   1306b:	48 89 c1             	mov    %rax,%rcx
   1306e:	8b 45 fc             	mov    -0x4(%rbp),%eax
   13071:	89 c2                	mov    %eax,%edx
   13073:	48 8d 35 58 2d 00 00 	lea    0x2d58(%rip),%rsi        # 15dd2 <g_2569+0x1d68>
   1307a:	48 89 cf             	mov    %rcx,%rdi
   1307d:	e8 71 36 ff ff       	callq  66f3 <transparent_crc>
   13082:	48 8b 05 9f 68 00 00 	mov    0x689f(%rip),%rax        # 19928 <g_1100>
   13089:	48 89 c1             	mov    %rax,%rcx
   1308c:	8b 45 fc             	mov    -0x4(%rbp),%eax
   1308f:	89 c2                	mov    %eax,%edx
   13091:	48 8d 35 41 2d 00 00 	lea    0x2d41(%rip),%rsi        # 15dd9 <g_2569+0x1d6f>
   13098:	48 89 cf             	mov    %rcx,%rdi
   1309b:	e8 53 36 ff ff       	callq  66f3 <transparent_crc>
   130a0:	c7 45 f0 00 00 00 00 	movl   $0x0,-0x10(%rbp)
   130a7:	eb 78                	jmp    13121 <main+0xf48>
   130a9:	c7 45 f4 00 00 00 00 	movl   $0x0,-0xc(%rbp)
   130b0:	eb 65                	jmp    13117 <main+0xf3e>
   130b2:	8b 45 f4             	mov    -0xc(%rbp),%eax
   130b5:	48 63 c8             	movslq %eax,%rcx
   130b8:	8b 45 f0             	mov    -0x10(%rbp),%eax
   130bb:	48 63 d0             	movslq %eax,%rdx
   130be:	48 89 d0             	mov    %rdx,%rax
   130c1:	48 01 c0             	add    %rax,%rax
   130c4:	48 01 d0             	add    %rdx,%rax
   130c7:	48 01 c8             	add    %rcx,%rax
   130ca:	48 8d 14 c5 00 00 00 	lea    0x0(,%rax,8),%rdx
   130d1:	00 
   130d2:	48 8d 05 67 68 00 00 	lea    0x6867(%rip),%rax        # 19940 <g_1101>
   130d9:	48 8b 04 02          	mov    (%rdx,%rax,1),%rax
   130dd:	48 89 c1             	mov    %rax,%rcx
   130e0:	8b 45 fc             	mov    -0x4(%rbp),%eax
   130e3:	89 c2                	mov    %eax,%edx
   130e5:	48 8d 35 f4 2c 00 00 	lea    0x2cf4(%rip),%rsi        # 15de0 <g_2569+0x1d76>
   130ec:	48 89 cf             	mov    %rcx,%rdi
   130ef:	e8 ff 35 ff ff       	callq  66f3 <transparent_crc>
   130f4:	83 7d fc 00          	cmpl   $0x0,-0x4(%rbp)
   130f8:	74 19                	je     13113 <main+0xf3a>
   130fa:	8b 55 f4             	mov    -0xc(%rbp),%edx
   130fd:	8b 45 f0             	mov    -0x10(%rbp),%eax
   13100:	89 c6                	mov    %eax,%esi
   13102:	48 8d 3d 56 2b 00 00 	lea    0x2b56(%rip),%rdi        # 15c5f <g_2569+0x1bf5>
   13109:	b8 00 00 00 00       	mov    $0x0,%eax
   1310e:	e8 6d 1f ff ff       	callq  5080 <printf@plt>
   13113:	83 45 f4 01          	addl   $0x1,-0xc(%rbp)
   13117:	83 7d f4 02          	cmpl   $0x2,-0xc(%rbp)
   1311b:	7e 95                	jle    130b2 <main+0xed9>
   1311d:	83 45 f0 01          	addl   $0x1,-0x10(%rbp)
   13121:	83 7d f0 03          	cmpl   $0x3,-0x10(%rbp)
   13125:	7e 82                	jle    130a9 <main+0xed0>
   13127:	48 8b 05 72 68 00 00 	mov    0x6872(%rip),%rax        # 199a0 <g_1102>
   1312e:	48 89 c1             	mov    %rax,%rcx
   13131:	8b 45 fc             	mov    -0x4(%rbp),%eax
   13134:	89 c2                	mov    %eax,%edx
   13136:	48 8d 35 b0 2c 00 00 	lea    0x2cb0(%rip),%rsi        # 15ded <g_2569+0x1d83>
   1313d:	48 89 cf             	mov    %rcx,%rdi
   13140:	e8 ae 35 ff ff       	callq  66f3 <transparent_crc>
   13145:	48 8b 05 5c 68 00 00 	mov    0x685c(%rip),%rax        # 199a8 <g_1103>
   1314c:	48 89 c1             	mov    %rax,%rcx
   1314f:	8b 45 fc             	mov    -0x4(%rbp),%eax
   13152:	89 c2                	mov    %eax,%edx
   13154:	48 8d 35 99 2c 00 00 	lea    0x2c99(%rip),%rsi        # 15df4 <g_2569+0x1d8a>
   1315b:	48 89 cf             	mov    %rcx,%rdi
   1315e:	e8 90 35 ff ff       	callq  66f3 <transparent_crc>
   13163:	48 8b 05 46 68 00 00 	mov    0x6846(%rip),%rax        # 199b0 <g_1104>
   1316a:	48 89 c1             	mov    %rax,%rcx
   1316d:	8b 45 fc             	mov    -0x4(%rbp),%eax
   13170:	89 c2                	mov    %eax,%edx
   13172:	48 8d 35 82 2c 00 00 	lea    0x2c82(%rip),%rsi        # 15dfb <g_2569+0x1d91>
   13179:	48 89 cf             	mov    %rcx,%rdi
   1317c:	e8 72 35 ff ff       	callq  66f3 <transparent_crc>
   13181:	c7 45 f0 00 00 00 00 	movl   $0x0,-0x10(%rbp)
   13188:	eb 72                	jmp    131fc <main+0x1023>
   1318a:	c7 45 f4 00 00 00 00 	movl   $0x0,-0xc(%rbp)
   13191:	eb 5f                	jmp    131f2 <main+0x1019>
   13193:	8b 45 f4             	mov    -0xc(%rbp),%eax
   13196:	48 98                	cltq   
   13198:	8b 55 f0             	mov    -0x10(%rbp),%edx
   1319b:	48 63 d2             	movslq %edx,%rdx
   1319e:	48 c1 e2 02          	shl    $0x2,%rdx
   131a2:	48 01 d0             	add    %rdx,%rax
   131a5:	48 8d 14 c5 00 00 00 	lea    0x0(,%rax,8),%rdx
   131ac:	00 
   131ad:	48 8d 05 0c 68 00 00 	lea    0x680c(%rip),%rax        # 199c0 <g_1105>
   131b4:	48 8b 04 02          	mov    (%rdx,%rax,1),%rax
   131b8:	48 89 c1             	mov    %rax,%rcx
   131bb:	8b 45 fc             	mov    -0x4(%rbp),%eax
   131be:	89 c2                	mov    %eax,%edx
   131c0:	48 8d 35 3b 2c 00 00 	lea    0x2c3b(%rip),%rsi        # 15e02 <g_2569+0x1d98>
   131c7:	48 89 cf             	mov    %rcx,%rdi
   131ca:	e8 24 35 ff ff       	callq  66f3 <transparent_crc>
   131cf:	83 7d fc 00          	cmpl   $0x0,-0x4(%rbp)
   131d3:	74 19                	je     131ee <main+0x1015>
   131d5:	8b 55 f4             	mov    -0xc(%rbp),%edx
   131d8:	8b 45 f0             	mov    -0x10(%rbp),%eax
   131db:	89 c6                	mov    %eax,%esi
   131dd:	48 8d 3d 7b 2a 00 00 	lea    0x2a7b(%rip),%rdi        # 15c5f <g_2569+0x1bf5>
   131e4:	b8 00 00 00 00       	mov    $0x0,%eax
   131e9:	e8 92 1e ff ff       	callq  5080 <printf@plt>
   131ee:	83 45 f4 01          	addl   $0x1,-0xc(%rbp)
   131f2:	83 7d f4 03          	cmpl   $0x3,-0xc(%rbp)
   131f6:	7e 9b                	jle    13193 <main+0xfba>
   131f8:	83 45 f0 01          	addl   $0x1,-0x10(%rbp)
   131fc:	83 7d f0 09          	cmpl   $0x9,-0x10(%rbp)
   13200:	7e 88                	jle    1318a <main+0xfb1>
   13202:	c7 45 f0 00 00 00 00 	movl   $0x0,-0x10(%rbp)
   13209:	eb 4f                	jmp    1325a <main+0x1081>
   1320b:	8b 45 f0             	mov    -0x10(%rbp),%eax
   1320e:	48 98                	cltq   
   13210:	48 8d 14 c5 00 00 00 	lea    0x0(,%rax,8),%rdx
   13217:	00 
   13218:	48 8d 05 e1 68 00 00 	lea    0x68e1(%rip),%rax        # 19b00 <g_1106>
   1321f:	48 8b 04 02          	mov    (%rdx,%rax,1),%rax
   13223:	48 89 c1             	mov    %rax,%rcx
   13226:	8b 45 fc             	mov    -0x4(%rbp),%eax
   13229:	89 c2                	mov    %eax,%edx
   1322b:	48 8d 35 dd 2b 00 00 	lea    0x2bdd(%rip),%rsi        # 15e0f <g_2569+0x1da5>
   13232:	48 89 cf             	mov    %rcx,%rdi
   13235:	e8 b9 34 ff ff       	callq  66f3 <transparent_crc>
   1323a:	83 7d fc 00          	cmpl   $0x0,-0x4(%rbp)
   1323e:	74 16                	je     13256 <main+0x107d>
   13240:	8b 45 f0             	mov    -0x10(%rbp),%eax
   13243:	89 c6                	mov    %eax,%esi
   13245:	48 8d 3d 9e 28 00 00 	lea    0x289e(%rip),%rdi        # 15aea <g_2569+0x1a80>
   1324c:	b8 00 00 00 00       	mov    $0x0,%eax
   13251:	e8 2a 1e ff ff       	callq  5080 <printf@plt>
   13256:	83 45 f0 01          	addl   $0x1,-0x10(%rbp)
   1325a:	83 7d f0 06          	cmpl   $0x6,-0x10(%rbp)
   1325e:	7e ab                	jle    1320b <main+0x1032>
   13260:	0f b7 05 d1 68 00 00 	movzwl 0x68d1(%rip),%eax        # 19b38 <g_1152>
   13267:	0f b7 c0             	movzwl %ax,%eax
   1326a:	8b 55 fc             	mov    -0x4(%rbp),%edx
   1326d:	48 8d 35 a5 2b 00 00 	lea    0x2ba5(%rip),%rsi        # 15e19 <g_2569+0x1daf>
   13274:	48 89 c7             	mov    %rax,%rdi
   13277:	e8 77 34 ff ff       	callq  66f3 <transparent_crc>
   1327c:	8b 05 be 68 00 00    	mov    0x68be(%rip),%eax        # 19b40 <g_1184>
   13282:	48 98                	cltq   
   13284:	8b 55 fc             	mov    -0x4(%rbp),%edx
   13287:	48 8d 35 95 2b 00 00 	lea    0x2b95(%rip),%rsi        # 15e23 <g_2569+0x1db9>
   1328e:	48 89 c7             	mov    %rax,%rdi
   13291:	e8 5d 34 ff ff       	callq  66f3 <transparent_crc>
   13296:	48 8b 05 ab 68 00 00 	mov    0x68ab(%rip),%rax        # 19b48 <g_1193>
   1329d:	48 89 c1             	mov    %rax,%rcx
   132a0:	8b 45 fc             	mov    -0x4(%rbp),%eax
   132a3:	89 c2                	mov    %eax,%edx
   132a5:	48 8d 35 7e 2b 00 00 	lea    0x2b7e(%rip),%rsi        # 15e2a <g_2569+0x1dc0>
   132ac:	48 89 cf             	mov    %rcx,%rdi
   132af:	e8 3f 34 ff ff       	callq  66f3 <transparent_crc>
   132b4:	8b 05 96 68 00 00    	mov    0x6896(%rip),%eax        # 19b50 <g_1194>
   132ba:	48 98                	cltq   
   132bc:	8b 55 fc             	mov    -0x4(%rbp),%edx
   132bf:	48 8d 35 6b 2b 00 00 	lea    0x2b6b(%rip),%rsi        # 15e31 <g_2569+0x1dc7>
   132c6:	48 89 c7             	mov    %rax,%rdi
   132c9:	e8 25 34 ff ff       	callq  66f3 <transparent_crc>
   132ce:	8b 05 80 68 00 00    	mov    0x6880(%rip),%eax        # 19b54 <g_1307>
   132d4:	89 c1                	mov    %eax,%ecx
   132d6:	8b 45 fc             	mov    -0x4(%rbp),%eax
   132d9:	89 c2                	mov    %eax,%edx
   132db:	48 8d 35 56 2b 00 00 	lea    0x2b56(%rip),%rsi        # 15e38 <g_2569+0x1dce>
   132e2:	48 89 cf             	mov    %rcx,%rdi
   132e5:	e8 09 34 ff ff       	callq  66f3 <transparent_crc>
   132ea:	48 8b 05 67 68 00 00 	mov    0x6867(%rip),%rax        # 19b58 <g_1319>
   132f1:	48 89 c1             	mov    %rax,%rcx
   132f4:	8b 45 fc             	mov    -0x4(%rbp),%eax
   132f7:	89 c2                	mov    %eax,%edx
   132f9:	48 8d 35 3f 2b 00 00 	lea    0x2b3f(%rip),%rsi        # 15e3f <g_2569+0x1dd5>
   13300:	48 89 cf             	mov    %rcx,%rdi
   13303:	e8 eb 33 ff ff       	callq  66f3 <transparent_crc>
   13308:	0f b7 05 51 68 00 00 	movzwl 0x6851(%rip),%eax        # 19b60 <g_1405>
   1330f:	0f b7 c0             	movzwl %ax,%eax
   13312:	8b 55 fc             	mov    -0x4(%rbp),%edx
   13315:	48 8d 35 2a 2b 00 00 	lea    0x2b2a(%rip),%rsi        # 15e46 <g_2569+0x1ddc>
   1331c:	48 89 c7             	mov    %rax,%rdi
   1331f:	e8 cf 33 ff ff       	callq  66f3 <transparent_crc>
   13324:	c7 45 f0 00 00 00 00 	movl   $0x0,-0x10(%rbp)
   1332b:	e9 a2 00 00 00       	jmpq   133d2 <main+0x11f9>
   13330:	8b 45 f0             	mov    -0x10(%rbp),%eax
   13333:	48 98                	cltq   
   13335:	48 8d 14 c5 00 00 00 	lea    0x0(,%rax,8),%rdx
   1333c:	00 
   1333d:	48 8d 05 3c 68 00 00 	lea    0x683c(%rip),%rax        # 19b80 <g_1416>
   13344:	48 8b 04 02          	mov    (%rdx,%rax,1),%rax
   13348:	8b 55 fc             	mov    -0x4(%rbp),%edx
   1334b:	48 8d 35 fe 2a 00 00 	lea    0x2afe(%rip),%rsi        # 15e50 <g_2569+0x1de6>
   13352:	48 89 c7             	mov    %rax,%rdi
   13355:	e8 99 33 ff ff       	callq  66f3 <transparent_crc>
   1335a:	8b 45 f0             	mov    -0x10(%rbp),%eax
   1335d:	48 98                	cltq   
   1335f:	48 8d 14 c5 00 00 00 	lea    0x0(,%rax,8),%rdx
   13366:	00 
   13367:	48 8d 05 12 68 00 00 	lea    0x6812(%rip),%rax        # 19b80 <g_1416>
   1336e:	8b 04 02             	mov    (%rdx,%rax,1),%eax
   13371:	89 c1                	mov    %eax,%ecx
   13373:	8b 45 fc             	mov    -0x4(%rbp),%eax
   13376:	89 c2                	mov    %eax,%edx
   13378:	48 8d 35 de 2a 00 00 	lea    0x2ade(%rip),%rsi        # 15e5d <g_2569+0x1df3>
   1337f:	48 89 cf             	mov    %rcx,%rdi
   13382:	e8 6c 33 ff ff       	callq  66f3 <transparent_crc>
   13387:	8b 45 f0             	mov    -0x10(%rbp),%eax
   1338a:	48 98                	cltq   
   1338c:	48 8d 14 c5 00 00 00 	lea    0x0(,%rax,8),%rdx
   13393:	00 
   13394:	48 8d 05 e5 67 00 00 	lea    0x67e5(%rip),%rax        # 19b80 <g_1416>
   1339b:	8b 04 02             	mov    (%rdx,%rax,1),%eax
   1339e:	48 98                	cltq   
   133a0:	8b 55 fc             	mov    -0x4(%rbp),%edx
   133a3:	48 8d 35 c0 2a 00 00 	lea    0x2ac0(%rip),%rsi        # 15e6a <g_2569+0x1e00>
   133aa:	48 89 c7             	mov    %rax,%rdi
   133ad:	e8 41 33 ff ff       	callq  66f3 <transparent_crc>
   133b2:	83 7d fc 00          	cmpl   $0x0,-0x4(%rbp)
   133b6:	74 16                	je     133ce <main+0x11f5>
   133b8:	8b 45 f0             	mov    -0x10(%rbp),%eax
   133bb:	89 c6                	mov    %eax,%esi
   133bd:	48 8d 3d 26 27 00 00 	lea    0x2726(%rip),%rdi        # 15aea <g_2569+0x1a80>
   133c4:	b8 00 00 00 00       	mov    $0x0,%eax
   133c9:	e8 b2 1c ff ff       	callq  5080 <printf@plt>
   133ce:	83 45 f0 01          	addl   $0x1,-0x10(%rbp)
   133d2:	83 7d f0 03          	cmpl   $0x3,-0x10(%rbp)
   133d6:	0f 8e 54 ff ff ff    	jle    13330 <main+0x1157>
   133dc:	48 8b 05 bd 67 00 00 	mov    0x67bd(%rip),%rax        # 19ba0 <g_1427>
   133e3:	48 89 c1             	mov    %rax,%rcx
   133e6:	8b 45 fc             	mov    -0x4(%rbp),%eax
   133e9:	89 c2                	mov    %eax,%edx
   133eb:	48 8d 35 85 2a 00 00 	lea    0x2a85(%rip),%rsi        # 15e77 <g_2569+0x1e0d>
   133f2:	48 89 cf             	mov    %rcx,%rdi
   133f5:	e8 f9 32 ff ff       	callq  66f3 <transparent_crc>
   133fa:	0f b7 05 a7 67 00 00 	movzwl 0x67a7(%rip),%eax        # 19ba8 <g_1431>
   13401:	0f b7 c0             	movzwl %ax,%eax
   13404:	8b 55 fc             	mov    -0x4(%rbp),%edx
   13407:	48 8d 35 70 2a 00 00 	lea    0x2a70(%rip),%rsi        # 15e7e <g_2569+0x1e14>
   1340e:	48 89 c7             	mov    %rax,%rdi
   13411:	e8 dd 32 ff ff       	callq  66f3 <transparent_crc>
   13416:	0f b7 05 93 67 00 00 	movzwl 0x6793(%rip),%eax        # 19bb0 <g_1451>
   1341d:	0f b7 c0             	movzwl %ax,%eax
   13420:	8b 55 fc             	mov    -0x4(%rbp),%edx
   13423:	48 8d 35 5e 2a 00 00 	lea    0x2a5e(%rip),%rsi        # 15e88 <g_2569+0x1e1e>
   1342a:	48 89 c7             	mov    %rax,%rdi
   1342d:	e8 c1 32 ff ff       	callq  66f3 <transparent_crc>
   13432:	8b 05 28 0c 00 00    	mov    0xc28(%rip),%eax        # 14060 <g_1516>
   13438:	48 98                	cltq   
   1343a:	8b 55 fc             	mov    -0x4(%rbp),%edx
   1343d:	48 8d 35 4e 2a 00 00 	lea    0x2a4e(%rip),%rsi        # 15e92 <g_2569+0x1e28>
   13444:	48 89 c7             	mov    %rax,%rdi
   13447:	e8 a7 32 ff ff       	callq  66f3 <transparent_crc>
   1344c:	b8 a5 75 94 26       	mov    $0x269475a5,%eax
   13451:	48 98                	cltq   
   13453:	8b 55 fc             	mov    -0x4(%rbp),%edx
   13456:	48 8d 35 3f 2a 00 00 	lea    0x2a3f(%rip),%rsi        # 15e9c <g_2569+0x1e32>
   1345d:	48 89 c7             	mov    %rax,%rdi
   13460:	e8 8e 32 ff ff       	callq  66f3 <transparent_crc>
   13465:	c7 45 f0 00 00 00 00 	movl   $0x0,-0x10(%rbp)
   1346c:	eb 4d                	jmp    134bb <main+0x12e2>
   1346e:	8b 45 f0             	mov    -0x10(%rbp),%eax
   13471:	48 98                	cltq   
   13473:	48 8d 14 c5 00 00 00 	lea    0x0(,%rax,8),%rdx
   1347a:	00 
   1347b:	48 8d 05 3e 67 00 00 	lea    0x673e(%rip),%rax        # 19bc0 <g_1553>
   13482:	0f b7 04 02          	movzwl (%rdx,%rax,1),%eax
   13486:	0f b7 c0             	movzwl %ax,%eax
   13489:	8b 55 fc             	mov    -0x4(%rbp),%edx
   1348c:	48 8d 35 13 2a 00 00 	lea    0x2a13(%rip),%rsi        # 15ea6 <g_2569+0x1e3c>
   13493:	48 89 c7             	mov    %rax,%rdi
   13496:	e8 58 32 ff ff       	callq  66f3 <transparent_crc>
   1349b:	83 7d fc 00          	cmpl   $0x0,-0x4(%rbp)
   1349f:	74 16                	je     134b7 <main+0x12de>
   134a1:	8b 45 f0             	mov    -0x10(%rbp),%eax
   134a4:	89 c6                	mov    %eax,%esi
   134a6:	48 8d 3d 3d 26 00 00 	lea    0x263d(%rip),%rdi        # 15aea <g_2569+0x1a80>
   134ad:	b8 00 00 00 00       	mov    $0x0,%eax
   134b2:	e8 c9 1b ff ff       	callq  5080 <printf@plt>
   134b7:	83 45 f0 01          	addl   $0x1,-0x10(%rbp)
   134bb:	83 7d f0 06          	cmpl   $0x6,-0x10(%rbp)
   134bf:	7e ad                	jle    1346e <main+0x1295>
   134c1:	48 8b 05 30 67 00 00 	mov    0x6730(%rip),%rax        # 19bf8 <g_1556>
   134c8:	8b 55 fc             	mov    -0x4(%rbp),%edx
   134cb:	48 8d 35 e1 29 00 00 	lea    0x29e1(%rip),%rsi        # 15eb3 <g_2569+0x1e49>
   134d2:	48 89 c7             	mov    %rax,%rdi
   134d5:	e8 19 32 ff ff       	callq  66f3 <transparent_crc>
   134da:	8b 05 18 67 00 00    	mov    0x6718(%rip),%eax        # 19bf8 <g_1556>
   134e0:	89 c1                	mov    %eax,%ecx
   134e2:	8b 45 fc             	mov    -0x4(%rbp),%eax
   134e5:	89 c2                	mov    %eax,%edx
   134e7:	48 8d 35 cf 29 00 00 	lea    0x29cf(%rip),%rsi        # 15ebd <g_2569+0x1e53>
   134ee:	48 89 cf             	mov    %rcx,%rdi
   134f1:	e8 fd 31 ff ff       	callq  66f3 <transparent_crc>
   134f6:	8b 05 fc 66 00 00    	mov    0x66fc(%rip),%eax        # 19bf8 <g_1556>
   134fc:	48 98                	cltq   
   134fe:	8b 55 fc             	mov    -0x4(%rbp),%edx
   13501:	48 8d 35 bf 29 00 00 	lea    0x29bf(%rip),%rsi        # 15ec7 <g_2569+0x1e5d>
   13508:	48 89 c7             	mov    %rax,%rdi
   1350b:	e8 e3 31 ff ff       	callq  66f3 <transparent_crc>
   13510:	0f b6 05 d1 8b 00 00 	movzbl 0x8bd1(%rip),%eax        # 1c0e8 <g_1662>
   13517:	48 0f be c0          	movsbq %al,%rax
   1351b:	8b 55 fc             	mov    -0x4(%rbp),%edx
   1351e:	48 8d 35 ac 29 00 00 	lea    0x29ac(%rip),%rsi        # 15ed1 <g_2569+0x1e67>
   13525:	48 89 c7             	mov    %rax,%rdi
   13528:	e8 c6 31 ff ff       	callq  66f3 <transparent_crc>
   1352d:	0f b7 05 cc 66 00 00 	movzwl 0x66cc(%rip),%eax        # 19c00 <g_1669>
   13534:	0f b7 c0             	movzwl %ax,%eax
   13537:	8b 55 fc             	mov    -0x4(%rbp),%edx
   1353a:	48 8d 35 97 29 00 00 	lea    0x2997(%rip),%rsi        # 15ed8 <g_2569+0x1e6e>
   13541:	48 89 c7             	mov    %rax,%rdi
   13544:	e8 aa 31 ff ff       	callq  66f3 <transparent_crc>
   13549:	c7 45 f0 00 00 00 00 	movl   $0x0,-0x10(%rbp)
   13550:	e9 12 01 00 00       	jmpq   13667 <main+0x148e>
   13555:	c7 45 f4 00 00 00 00 	movl   $0x0,-0xc(%rbp)
   1355c:	e9 f8 00 00 00       	jmpq   13659 <main+0x1480>
   13561:	c7 45 f8 00 00 00 00 	movl   $0x0,-0x8(%rbp)
   13568:	e9 de 00 00 00       	jmpq   1364b <main+0x1472>
   1356d:	8b 45 f8             	mov    -0x8(%rbp),%eax
   13570:	48 63 c8             	movslq %eax,%rcx
   13573:	8b 45 f4             	mov    -0xc(%rbp),%eax
   13576:	48 63 d0             	movslq %eax,%rdx
   13579:	8b 45 f0             	mov    -0x10(%rbp),%eax
   1357c:	48 98                	cltq   
   1357e:	48 01 ca             	add    %rcx,%rdx
   13581:	48 01 d0             	add    %rdx,%rax
   13584:	48 8d 14 c5 00 00 00 	lea    0x0(,%rax,8),%rdx
   1358b:	00 
   1358c:	48 8d 05 75 66 00 00 	lea    0x6675(%rip),%rax        # 19c08 <g_1680>
   13593:	48 8b 04 02          	mov    (%rdx,%rax,1),%rax
   13597:	8b 55 fc             	mov    -0x4(%rbp),%edx
   1359a:	48 8d 35 41 29 00 00 	lea    0x2941(%rip),%rsi        # 15ee2 <g_2569+0x1e78>
   135a1:	48 89 c7             	mov    %rax,%rdi
   135a4:	e8 4a 31 ff ff       	callq  66f3 <transparent_crc>
   135a9:	8b 45 f8             	mov    -0x8(%rbp),%eax
   135ac:	48 63 c8             	movslq %eax,%rcx
   135af:	8b 45 f4             	mov    -0xc(%rbp),%eax
   135b2:	48 63 d0             	movslq %eax,%rdx
   135b5:	8b 45 f0             	mov    -0x10(%rbp),%eax
   135b8:	48 98                	cltq   
   135ba:	48 01 ca             	add    %rcx,%rdx
   135bd:	48 01 d0             	add    %rdx,%rax
   135c0:	48 8d 14 c5 00 00 00 	lea    0x0(,%rax,8),%rdx
   135c7:	00 
   135c8:	48 8d 05 39 66 00 00 	lea    0x6639(%rip),%rax        # 19c08 <g_1680>
   135cf:	8b 04 02             	mov    (%rdx,%rax,1),%eax
   135d2:	89 c1                	mov    %eax,%ecx
   135d4:	8b 45 fc             	mov    -0x4(%rbp),%eax
   135d7:	89 c2                	mov    %eax,%edx
   135d9:	48 8d 35 15 29 00 00 	lea    0x2915(%rip),%rsi        # 15ef5 <g_2569+0x1e8b>
   135e0:	48 89 cf             	mov    %rcx,%rdi
   135e3:	e8 0b 31 ff ff       	callq  66f3 <transparent_crc>
   135e8:	8b 45 f8             	mov    -0x8(%rbp),%eax
   135eb:	48 63 c8             	movslq %eax,%rcx
   135ee:	8b 45 f4             	mov    -0xc(%rbp),%eax
   135f1:	48 63 d0             	movslq %eax,%rdx
   135f4:	8b 45 f0             	mov    -0x10(%rbp),%eax
   135f7:	48 98                	cltq   
   135f9:	48 01 ca             	add    %rcx,%rdx
   135fc:	48 01 d0             	add    %rdx,%rax
   135ff:	48 8d 14 c5 00 00 00 	lea    0x0(,%rax,8),%rdx
   13606:	00 
   13607:	48 8d 05 fa 65 00 00 	lea    0x65fa(%rip),%rax        # 19c08 <g_1680>
   1360e:	8b 04 02             	mov    (%rdx,%rax,1),%eax
   13611:	48 98                	cltq   
   13613:	8b 55 fc             	mov    -0x4(%rbp),%edx
   13616:	48 8d 35 eb 28 00 00 	lea    0x28eb(%rip),%rsi        # 15f08 <g_2569+0x1e9e>
   1361d:	48 89 c7             	mov    %rax,%rdi
   13620:	e8 ce 30 ff ff       	callq  66f3 <transparent_crc>
   13625:	83 7d fc 00          	cmpl   $0x0,-0x4(%rbp)
   13629:	74 1c                	je     13647 <main+0x146e>
   1362b:	8b 4d f8             	mov    -0x8(%rbp),%ecx
   1362e:	8b 55 f4             	mov    -0xc(%rbp),%edx
   13631:	8b 45 f0             	mov    -0x10(%rbp),%eax
   13634:	89 c6                	mov    %eax,%esi
   13636:	48 8d 3d 8f 24 00 00 	lea    0x248f(%rip),%rdi        # 15acc <g_2569+0x1a62>
   1363d:	b8 00 00 00 00       	mov    $0x0,%eax
   13642:	e8 39 1a ff ff       	callq  5080 <printf@plt>
   13647:	83 45 f8 01          	addl   $0x1,-0x8(%rbp)
   1364b:	83 7d f8 00          	cmpl   $0x0,-0x8(%rbp)
   1364f:	0f 8e 18 ff ff ff    	jle    1356d <main+0x1394>
   13655:	83 45 f4 01          	addl   $0x1,-0xc(%rbp)
   13659:	83 7d f4 00          	cmpl   $0x0,-0xc(%rbp)
   1365d:	0f 8e fe fe ff ff    	jle    13561 <main+0x1388>
   13663:	83 45 f0 01          	addl   $0x1,-0x10(%rbp)
   13667:	83 7d f0 00          	cmpl   $0x0,-0x10(%rbp)
   1366b:	0f 8e e4 fe ff ff    	jle    13555 <main+0x137c>
   13671:	0f b6 05 98 65 00 00 	movzbl 0x6598(%rip),%eax        # 19c10 <g_1728>
   13678:	48 0f be c0          	movsbq %al,%rax
   1367c:	8b 55 fc             	mov    -0x4(%rbp),%edx
   1367f:	48 8d 35 95 28 00 00 	lea    0x2895(%rip),%rsi        # 15f1b <g_2569+0x1eb1>
   13686:	48 89 c7             	mov    %rax,%rdi
   13689:	e8 65 30 ff ff       	callq  66f3 <transparent_crc>
   1368e:	0f b7 05 83 65 00 00 	movzwl 0x6583(%rip),%eax        # 19c18 <g_1894>
   13695:	0f b7 c0             	movzwl %ax,%eax
   13698:	8b 55 fc             	mov    -0x4(%rbp),%edx
   1369b:	48 8d 35 80 28 00 00 	lea    0x2880(%rip),%rsi        # 15f22 <g_2569+0x1eb8>
   136a2:	48 89 c7             	mov    %rax,%rdi
   136a5:	e8 49 30 ff ff       	callq  66f3 <transparent_crc>
   136aa:	c7 45 f0 00 00 00 00 	movl   $0x0,-0x10(%rbp)
   136b1:	eb 76                	jmp    13729 <main+0x1550>
   136b3:	8b 45 f0             	mov    -0x10(%rbp),%eax
   136b6:	48 98                	cltq   
   136b8:	48 8d 14 85 00 00 00 	lea    0x0(,%rax,4),%rdx
   136bf:	00 
   136c0:	48 8d 05 59 65 00 00 	lea    0x6559(%rip),%rax        # 19c20 <g_1925>
   136c7:	8b 04 02             	mov    (%rdx,%rax,1),%eax
   136ca:	48 98                	cltq   
   136cc:	8b 55 fc             	mov    -0x4(%rbp),%edx
   136cf:	48 8d 35 56 28 00 00 	lea    0x2856(%rip),%rsi        # 15f2c <g_2569+0x1ec2>
   136d6:	48 89 c7             	mov    %rax,%rdi
   136d9:	e8 15 30 ff ff       	callq  66f3 <transparent_crc>
   136de:	8b 45 f0             	mov    -0x10(%rbp),%eax
   136e1:	48 98                	cltq   
   136e3:	48 8d 14 85 00 00 00 	lea    0x0(,%rax,4),%rdx
   136ea:	00 
   136eb:	48 8d 05 2e 65 00 00 	lea    0x652e(%rip),%rax        # 19c20 <g_1925>
   136f2:	8b 04 02             	mov    (%rdx,%rax,1),%eax
   136f5:	48 98                	cltq   
   136f7:	8b 55 fc             	mov    -0x4(%rbp),%edx
   136fa:	48 8d 35 38 28 00 00 	lea    0x2838(%rip),%rsi        # 15f39 <g_2569+0x1ecf>
   13701:	48 89 c7             	mov    %rax,%rdi
   13704:	e8 ea 2f ff ff       	callq  66f3 <transparent_crc>
   13709:	83 7d fc 00          	cmpl   $0x0,-0x4(%rbp)
   1370d:	74 16                	je     13725 <main+0x154c>
   1370f:	8b 45 f0             	mov    -0x10(%rbp),%eax
   13712:	89 c6                	mov    %eax,%esi
   13714:	48 8d 3d cf 23 00 00 	lea    0x23cf(%rip),%rdi        # 15aea <g_2569+0x1a80>
   1371b:	b8 00 00 00 00       	mov    $0x0,%eax
   13720:	e8 5b 19 ff ff       	callq  5080 <printf@plt>
   13725:	83 45 f0 01          	addl   $0x1,-0x10(%rbp)
   13729:	83 7d f0 03          	cmpl   $0x3,-0x10(%rbp)
   1372d:	7e 84                	jle    136b3 <main+0x14da>
   1372f:	0f b7 05 fa 64 00 00 	movzwl 0x64fa(%rip),%eax        # 19c30 <g_1952>
   13736:	0f b7 c0             	movzwl %ax,%eax
   13739:	8b 55 fc             	mov    -0x4(%rbp),%edx
   1373c:	48 8d 35 03 28 00 00 	lea    0x2803(%rip),%rsi        # 15f46 <g_2569+0x1edc>
   13743:	48 89 c7             	mov    %rax,%rdi
   13746:	e8 a8 2f ff ff       	callq  66f3 <transparent_crc>
   1374b:	48 8b 05 e6 64 00 00 	mov    0x64e6(%rip),%rax        # 19c38 <g_2014>
   13752:	48 89 c1             	mov    %rax,%rcx
   13755:	8b 45 fc             	mov    -0x4(%rbp),%eax
   13758:	89 c2                	mov    %eax,%edx
   1375a:	48 8d 35 ec 27 00 00 	lea    0x27ec(%rip),%rsi        # 15f4d <g_2569+0x1ee3>
   13761:	48 89 cf             	mov    %rcx,%rdi
   13764:	e8 8a 2f ff ff       	callq  66f3 <transparent_crc>
   13769:	48 8b 05 d0 64 00 00 	mov    0x64d0(%rip),%rax        # 19c40 <g_2122>
   13770:	8b 55 fc             	mov    -0x4(%rbp),%edx
   13773:	48 8d 35 da 27 00 00 	lea    0x27da(%rip),%rsi        # 15f54 <g_2569+0x1eea>
   1377a:	48 89 c7             	mov    %rax,%rdi
   1377d:	e8 71 2f ff ff       	callq  66f3 <transparent_crc>
   13782:	8b 05 b8 64 00 00    	mov    0x64b8(%rip),%eax        # 19c40 <g_2122>
   13788:	89 c1                	mov    %eax,%ecx
   1378a:	8b 45 fc             	mov    -0x4(%rbp),%eax
   1378d:	89 c2                	mov    %eax,%edx
   1378f:	48 8d 35 c8 27 00 00 	lea    0x27c8(%rip),%rsi        # 15f5e <g_2569+0x1ef4>
   13796:	48 89 cf             	mov    %rcx,%rdi
   13799:	e8 55 2f ff ff       	callq  66f3 <transparent_crc>
   1379e:	8b 05 9c 64 00 00    	mov    0x649c(%rip),%eax        # 19c40 <g_2122>
   137a4:	48 98                	cltq   
   137a6:	8b 55 fc             	mov    -0x4(%rbp),%edx
   137a9:	48 8d 35 b8 27 00 00 	lea    0x27b8(%rip),%rsi        # 15f68 <g_2569+0x1efe>
   137b0:	48 89 c7             	mov    %rax,%rdi
   137b3:	e8 3b 2f ff ff       	callq  66f3 <transparent_crc>
   137b8:	48 8b 05 89 64 00 00 	mov    0x6489(%rip),%rax        # 19c48 <g_2148>
   137bf:	8b 55 fc             	mov    -0x4(%rbp),%edx
   137c2:	48 8d 35 a9 27 00 00 	lea    0x27a9(%rip),%rsi        # 15f72 <g_2569+0x1f08>
   137c9:	48 89 c7             	mov    %rax,%rdi
   137cc:	e8 22 2f ff ff       	callq  66f3 <transparent_crc>
   137d1:	8b 05 71 64 00 00    	mov    0x6471(%rip),%eax        # 19c48 <g_2148>
   137d7:	89 c1                	mov    %eax,%ecx
   137d9:	8b 45 fc             	mov    -0x4(%rbp),%eax
   137dc:	89 c2                	mov    %eax,%edx
   137de:	48 8d 35 97 27 00 00 	lea    0x2797(%rip),%rsi        # 15f7c <g_2569+0x1f12>
   137e5:	48 89 cf             	mov    %rcx,%rdi
   137e8:	e8 06 2f ff ff       	callq  66f3 <transparent_crc>
   137ed:	8b 05 55 64 00 00    	mov    0x6455(%rip),%eax        # 19c48 <g_2148>
   137f3:	48 98                	cltq   
   137f5:	8b 55 fc             	mov    -0x4(%rbp),%edx
   137f8:	48 8d 35 87 27 00 00 	lea    0x2787(%rip),%rsi        # 15f86 <g_2569+0x1f1c>
   137ff:	48 89 c7             	mov    %rax,%rdi
   13802:	e8 ec 2e ff ff       	callq  66f3 <transparent_crc>
   13807:	0f b7 05 42 64 00 00 	movzwl 0x6442(%rip),%eax        # 19c50 <g_2171>
   1380e:	0f b7 c0             	movzwl %ax,%eax
   13811:	8b 55 fc             	mov    -0x4(%rbp),%edx
   13814:	48 8d 35 75 27 00 00 	lea    0x2775(%rip),%rsi        # 15f90 <g_2569+0x1f26>
   1381b:	48 89 c7             	mov    %rax,%rdi
   1381e:	e8 d0 2e ff ff       	callq  66f3 <transparent_crc>
   13823:	0f b7 05 2e 64 00 00 	movzwl 0x642e(%rip),%eax        # 19c58 <g_2182>
   1382a:	0f b7 c0             	movzwl %ax,%eax
   1382d:	8b 55 fc             	mov    -0x4(%rbp),%edx
   13830:	48 8d 35 63 27 00 00 	lea    0x2763(%rip),%rsi        # 15f9a <g_2569+0x1f30>
   13837:	48 89 c7             	mov    %rax,%rdi
   1383a:	e8 b4 2e ff ff       	callq  66f3 <transparent_crc>
   1383f:	0f b7 05 1a 64 00 00 	movzwl 0x641a(%rip),%eax        # 19c60 <g_2323>
   13846:	0f b7 c0             	movzwl %ax,%eax
   13849:	8b 55 fc             	mov    -0x4(%rbp),%edx
   1384c:	48 8d 35 51 27 00 00 	lea    0x2751(%rip),%rsi        # 15fa4 <g_2569+0x1f3a>
   13853:	48 89 c7             	mov    %rax,%rdi
   13856:	e8 98 2e ff ff       	callq  66f3 <transparent_crc>
   1385b:	0f b7 05 06 64 00 00 	movzwl 0x6406(%rip),%eax        # 19c68 <g_2328>
   13862:	0f b7 c0             	movzwl %ax,%eax
   13865:	8b 55 fc             	mov    -0x4(%rbp),%edx
   13868:	48 8d 35 3f 27 00 00 	lea    0x273f(%rip),%rsi        # 15fae <g_2569+0x1f44>
   1386f:	48 89 c7             	mov    %rax,%rdi
   13872:	e8 7c 2e ff ff       	callq  66f3 <transparent_crc>
   13877:	8b 05 f3 63 00 00    	mov    0x63f3(%rip),%eax        # 19c70 <g_2342>
   1387d:	48 98                	cltq   
   1387f:	8b 55 fc             	mov    -0x4(%rbp),%edx
   13882:	48 8d 35 2f 27 00 00 	lea    0x272f(%rip),%rsi        # 15fb8 <g_2569+0x1f4e>
   13889:	48 89 c7             	mov    %rax,%rdi
   1388c:	e8 62 2e ff ff       	callq  66f3 <transparent_crc>
   13891:	8b 05 d9 63 00 00    	mov    0x63d9(%rip),%eax        # 19c70 <g_2342>
   13897:	48 98                	cltq   
   13899:	8b 55 fc             	mov    -0x4(%rbp),%edx
   1389c:	48 8d 35 1f 27 00 00 	lea    0x271f(%rip),%rsi        # 15fc2 <g_2569+0x1f58>
   138a3:	48 89 c7             	mov    %rax,%rdi
   138a6:	e8 48 2e ff ff       	callq  66f3 <transparent_crc>
   138ab:	b8 cd 9e 20 74       	mov    $0x74209ecd,%eax
   138b0:	48 98                	cltq   
   138b2:	8b 55 fc             	mov    -0x4(%rbp),%edx
   138b5:	48 8d 35 10 27 00 00 	lea    0x2710(%rip),%rsi        # 15fcc <g_2569+0x1f62>
   138bc:	48 89 c7             	mov    %rax,%rdi
   138bf:	e8 2f 2e ff ff       	callq  66f3 <transparent_crc>
   138c4:	8b 05 aa 63 00 00    	mov    0x63aa(%rip),%eax        # 19c74 <g_2417>
   138ca:	48 98                	cltq   
   138cc:	8b 55 fc             	mov    -0x4(%rbp),%edx
   138cf:	48 8d 35 fd 26 00 00 	lea    0x26fd(%rip),%rsi        # 15fd3 <g_2569+0x1f69>
   138d6:	48 89 c7             	mov    %rax,%rdi
   138d9:	e8 15 2e ff ff       	callq  66f3 <transparent_crc>
   138de:	8b 05 90 63 00 00    	mov    0x6390(%rip),%eax        # 19c74 <g_2417>
   138e4:	48 98                	cltq   
   138e6:	8b 55 fc             	mov    -0x4(%rbp),%edx
   138e9:	48 8d 35 ed 26 00 00 	lea    0x26ed(%rip),%rsi        # 15fdd <g_2569+0x1f73>
   138f0:	48 89 c7             	mov    %rax,%rdi
   138f3:	e8 fb 2d ff ff       	callq  66f3 <transparent_crc>
   138f8:	c7 45 f0 00 00 00 00 	movl   $0x0,-0x10(%rbp)
   138ff:	eb 74                	jmp    13975 <main+0x179c>
   13901:	c7 45 f4 00 00 00 00 	movl   $0x0,-0xc(%rbp)
   13908:	eb 61                	jmp    1396b <main+0x1792>
   1390a:	8b 45 f4             	mov    -0xc(%rbp),%eax
   1390d:	48 63 c8             	movslq %eax,%rcx
   13910:	8b 45 f0             	mov    -0x10(%rbp),%eax
   13913:	48 63 d0             	movslq %eax,%rdx
   13916:	48 89 d0             	mov    %rdx,%rax
   13919:	48 c1 e0 03          	shl    $0x3,%rax
   1391d:	48 29 d0             	sub    %rdx,%rax
   13920:	48 01 c8             	add    %rcx,%rax
   13923:	48 8d 14 c5 00 00 00 	lea    0x0(,%rax,8),%rdx
   1392a:	00 
   1392b:	48 8d 05 4e 63 00 00 	lea    0x634e(%rip),%rax        # 19c80 <g_2456>
   13932:	48 8b 04 02          	mov    (%rdx,%rax,1),%rax
   13936:	8b 55 fc             	mov    -0x4(%rbp),%edx
   13939:	48 8d 35 a7 26 00 00 	lea    0x26a7(%rip),%rsi        # 15fe7 <g_2569+0x1f7d>
   13940:	48 89 c7             	mov    %rax,%rdi
   13943:	e8 ab 2d ff ff       	callq  66f3 <transparent_crc>
   13948:	83 7d fc 00          	cmpl   $0x0,-0x4(%rbp)
   1394c:	74 19                	je     13967 <main+0x178e>
   1394e:	8b 55 f4             	mov    -0xc(%rbp),%edx
   13951:	8b 45 f0             	mov    -0x10(%rbp),%eax
   13954:	89 c6                	mov    %eax,%esi
   13956:	48 8d 3d 02 23 00 00 	lea    0x2302(%rip),%rdi        # 15c5f <g_2569+0x1bf5>
   1395d:	b8 00 00 00 00       	mov    $0x0,%eax
   13962:	e8 19 17 ff ff       	callq  5080 <printf@plt>
   13967:	83 45 f4 01          	addl   $0x1,-0xc(%rbp)
   1396b:	83 7d f4 06          	cmpl   $0x6,-0xc(%rbp)
   1396f:	7e 99                	jle    1390a <main+0x1731>
   13971:	83 45 f0 01          	addl   $0x1,-0x10(%rbp)
   13975:	83 7d f0 00          	cmpl   $0x0,-0x10(%rbp)
   13979:	7e 86                	jle    13901 <main+0x1728>
   1397b:	8b 05 37 63 00 00    	mov    0x6337(%rip),%eax        # 19cb8 <g_2457>
   13981:	48 98                	cltq   
   13983:	8b 55 fc             	mov    -0x4(%rbp),%edx
   13986:	48 8d 35 67 26 00 00 	lea    0x2667(%rip),%rsi        # 15ff4 <g_2569+0x1f8a>
   1398d:	48 89 c7             	mov    %rax,%rdi
   13990:	e8 5e 2d ff ff       	callq  66f3 <transparent_crc>
   13995:	8b 05 1d 63 00 00    	mov    0x631d(%rip),%eax        # 19cb8 <g_2457>
   1399b:	48 98                	cltq   
   1399d:	8b 55 fc             	mov    -0x4(%rbp),%edx
   139a0:	48 8d 35 57 26 00 00 	lea    0x2657(%rip),%rsi        # 15ffe <g_2569+0x1f94>
   139a7:	48 89 c7             	mov    %rax,%rdi
   139aa:	e8 44 2d ff ff       	callq  66f3 <transparent_crc>
   139af:	48 8b 05 0a 63 00 00 	mov    0x630a(%rip),%rax        # 19cc0 <g_2479>
   139b6:	8b 55 fc             	mov    -0x4(%rbp),%edx
   139b9:	48 8d 35 48 26 00 00 	lea    0x2648(%rip),%rsi        # 16008 <g_2569+0x1f9e>
   139c0:	48 89 c7             	mov    %rax,%rdi
   139c3:	e8 2b 2d ff ff       	callq  66f3 <transparent_crc>
   139c8:	8b 05 f2 62 00 00    	mov    0x62f2(%rip),%eax        # 19cc0 <g_2479>
   139ce:	89 c1                	mov    %eax,%ecx
   139d0:	8b 45 fc             	mov    -0x4(%rbp),%eax
   139d3:	89 c2                	mov    %eax,%edx
   139d5:	48 8d 35 36 26 00 00 	lea    0x2636(%rip),%rsi        # 16012 <g_2569+0x1fa8>
   139dc:	48 89 cf             	mov    %rcx,%rdi
   139df:	e8 0f 2d ff ff       	callq  66f3 <transparent_crc>
   139e4:	8b 05 d6 62 00 00    	mov    0x62d6(%rip),%eax        # 19cc0 <g_2479>
   139ea:	48 98                	cltq   
   139ec:	8b 55 fc             	mov    -0x4(%rbp),%edx
   139ef:	48 8d 35 26 26 00 00 	lea    0x2626(%rip),%rsi        # 1601c <g_2569+0x1fb2>
   139f6:	48 89 c7             	mov    %rax,%rdi
   139f9:	e8 f5 2c ff ff       	callq  66f3 <transparent_crc>
   139fe:	48 8b 05 c3 62 00 00 	mov    0x62c3(%rip),%rax        # 19cc8 <g_2484>
   13a05:	8b 55 fc             	mov    -0x4(%rbp),%edx
   13a08:	48 8d 35 17 26 00 00 	lea    0x2617(%rip),%rsi        # 16026 <g_2569+0x1fbc>
   13a0f:	48 89 c7             	mov    %rax,%rdi
   13a12:	e8 dc 2c ff ff       	callq  66f3 <transparent_crc>
   13a17:	8b 05 ab 62 00 00    	mov    0x62ab(%rip),%eax        # 19cc8 <g_2484>
   13a1d:	89 c1                	mov    %eax,%ecx
   13a1f:	8b 45 fc             	mov    -0x4(%rbp),%eax
   13a22:	89 c2                	mov    %eax,%edx
   13a24:	48 8d 35 05 26 00 00 	lea    0x2605(%rip),%rsi        # 16030 <g_2569+0x1fc6>
   13a2b:	48 89 cf             	mov    %rcx,%rdi
   13a2e:	e8 c0 2c ff ff       	callq  66f3 <transparent_crc>
   13a33:	8b 05 8f 62 00 00    	mov    0x628f(%rip),%eax        # 19cc8 <g_2484>
   13a39:	48 98                	cltq   
   13a3b:	8b 55 fc             	mov    -0x4(%rbp),%edx
   13a3e:	48 8d 35 f5 25 00 00 	lea    0x25f5(%rip),%rsi        # 1603a <g_2569+0x1fd0>
   13a45:	48 89 c7             	mov    %rax,%rdi
   13a48:	e8 a6 2c ff ff       	callq  66f3 <transparent_crc>
   13a4d:	c7 45 f0 00 00 00 00 	movl   $0x0,-0x10(%rbp)
   13a54:	eb 4a                	jmp    13aa0 <main+0x18c7>
   13a56:	8b 45 f0             	mov    -0x10(%rbp),%eax
   13a59:	48 98                	cltq   
   13a5b:	48 8d 14 00          	lea    (%rax,%rax,1),%rdx
   13a5f:	48 8d 05 6a 62 00 00 	lea    0x626a(%rip),%rax        # 19cd0 <g_2527>
   13a66:	0f b7 04 02          	movzwl (%rdx,%rax,1),%eax
   13a6a:	48 0f bf c0          	movswq %ax,%rax
   13a6e:	8b 55 fc             	mov    -0x4(%rbp),%edx
   13a71:	48 8d 35 cc 25 00 00 	lea    0x25cc(%rip),%rsi        # 16044 <g_2569+0x1fda>
   13a78:	48 89 c7             	mov    %rax,%rdi
   13a7b:	e8 73 2c ff ff       	callq  66f3 <transparent_crc>
   13a80:	83 7d fc 00          	cmpl   $0x0,-0x4(%rbp)
   13a84:	74 16                	je     13a9c <main+0x18c3>
   13a86:	8b 45 f0             	mov    -0x10(%rbp),%eax
   13a89:	89 c6                	mov    %eax,%esi
   13a8b:	48 8d 3d 58 20 00 00 	lea    0x2058(%rip),%rdi        # 15aea <g_2569+0x1a80>
   13a92:	b8 00 00 00 00       	mov    $0x0,%eax
   13a97:	e8 e4 15 ff ff       	callq  5080 <printf@plt>
   13a9c:	83 45 f0 01          	addl   $0x1,-0x10(%rbp)
   13aa0:	83 7d f0 06          	cmpl   $0x6,-0x10(%rbp)
   13aa4:	7e b0                	jle    13a56 <main+0x187d>
   13aa6:	48 8b 05 33 62 00 00 	mov    0x6233(%rip),%rax        # 19ce0 <g_2541>
   13aad:	8b 55 fc             	mov    -0x4(%rbp),%edx
   13ab0:	48 8d 35 97 25 00 00 	lea    0x2597(%rip),%rsi        # 1604e <g_2569+0x1fe4>
   13ab7:	48 89 c7             	mov    %rax,%rdi
   13aba:	e8 34 2c ff ff       	callq  66f3 <transparent_crc>
   13abf:	8b 05 1b 62 00 00    	mov    0x621b(%rip),%eax        # 19ce0 <g_2541>
   13ac5:	89 c1                	mov    %eax,%ecx
   13ac7:	8b 45 fc             	mov    -0x4(%rbp),%eax
   13aca:	89 c2                	mov    %eax,%edx
   13acc:	48 8d 35 85 25 00 00 	lea    0x2585(%rip),%rsi        # 16058 <g_2569+0x1fee>
   13ad3:	48 89 cf             	mov    %rcx,%rdi
   13ad6:	e8 18 2c ff ff       	callq  66f3 <transparent_crc>
   13adb:	8b 05 ff 61 00 00    	mov    0x61ff(%rip),%eax        # 19ce0 <g_2541>
   13ae1:	48 98                	cltq   
   13ae3:	8b 55 fc             	mov    -0x4(%rbp),%edx
   13ae6:	48 8d 35 75 25 00 00 	lea    0x2575(%rip),%rsi        # 16062 <g_2569+0x1ff8>
   13aed:	48 89 c7             	mov    %rax,%rdi
   13af0:	e8 fe 2b ff ff       	callq  66f3 <transparent_crc>
   13af5:	b8 ff ff ff ff       	mov    $0xffffffff,%eax
   13afa:	0f b7 c0             	movzwl %ax,%eax
   13afd:	8b 55 fc             	mov    -0x4(%rbp),%edx
   13b00:	48 8d 35 65 25 00 00 	lea    0x2565(%rip),%rsi        # 1606c <g_2569+0x2002>
   13b07:	48 89 c7             	mov    %rax,%rdi
   13b0a:	e8 e4 2b ff ff       	callq  66f3 <transparent_crc>
   13b0f:	b8 03 00 00 00       	mov    $0x3,%eax
   13b14:	0f b6 c0             	movzbl %al,%eax
   13b17:	8b 55 fc             	mov    -0x4(%rbp),%edx
   13b1a:	48 8d 35 52 25 00 00 	lea    0x2552(%rip),%rsi        # 16073 <g_2569+0x2009>
   13b21:	48 89 c7             	mov    %rax,%rdi
   13b24:	e8 ca 2b ff ff       	callq  66f3 <transparent_crc>
   13b29:	8b 05 b9 61 00 00    	mov    0x61b9(%rip),%eax        # 19ce8 <g_2607>
   13b2f:	89 c1                	mov    %eax,%ecx
   13b31:	8b 45 fc             	mov    -0x4(%rbp),%eax
   13b34:	89 c2                	mov    %eax,%edx
   13b36:	48 8d 35 3d 25 00 00 	lea    0x253d(%rip),%rsi        # 1607a <g_2569+0x2010>
   13b3d:	48 89 cf             	mov    %rcx,%rdi
   13b40:	e8 ae 2b ff ff       	callq  66f3 <transparent_crc>
   13b45:	0f b7 05 a4 61 00 00 	movzwl 0x61a4(%rip),%eax        # 19cf0 <g_2640>
   13b4c:	0f b7 c0             	movzwl %ax,%eax
   13b4f:	8b 55 fc             	mov    -0x4(%rbp),%edx
   13b52:	48 8d 35 28 25 00 00 	lea    0x2528(%rip),%rsi        # 16081 <g_2569+0x2017>
   13b59:	48 89 c7             	mov    %rax,%rdi
   13b5c:	e8 92 2b ff ff       	callq  66f3 <transparent_crc>
   13b61:	0f b7 05 a0 85 00 00 	movzwl 0x85a0(%rip),%eax        # 1c108 <g_2691>
   13b68:	0f b7 c0             	movzwl %ax,%eax
   13b6b:	8b 55 fc             	mov    -0x4(%rbp),%edx
   13b6e:	48 8d 35 16 25 00 00 	lea    0x2516(%rip),%rsi        # 1608b <g_2569+0x2021>
   13b75:	48 89 c7             	mov    %rax,%rdi
   13b78:	e8 76 2b ff ff       	callq  66f3 <transparent_crc>
   13b7d:	0f b7 05 74 61 00 00 	movzwl 0x6174(%rip),%eax        # 19cf8 <g_2725>
   13b84:	0f b7 c0             	movzwl %ax,%eax
   13b87:	8b 55 fc             	mov    -0x4(%rbp),%edx
   13b8a:	48 8d 35 04 25 00 00 	lea    0x2504(%rip),%rsi        # 16095 <g_2569+0x202b>
   13b91:	48 89 c7             	mov    %rax,%rdi
   13b94:	e8 5a 2b ff ff       	callq  66f3 <transparent_crc>
   13b99:	0f b7 05 60 61 00 00 	movzwl 0x6160(%rip),%eax        # 19d00 <g_2809>
   13ba0:	0f b7 c0             	movzwl %ax,%eax
   13ba3:	8b 55 fc             	mov    -0x4(%rbp),%edx
   13ba6:	48 8d 35 f2 24 00 00 	lea    0x24f2(%rip),%rsi        # 1609f <g_2569+0x2035>
   13bad:	48 89 c7             	mov    %rax,%rdi
   13bb0:	e8 3e 2b ff ff       	callq  66f3 <transparent_crc>
   13bb5:	0f b7 05 4c 61 00 00 	movzwl 0x614c(%rip),%eax        # 19d08 <g_2851>
   13bbc:	0f b7 c0             	movzwl %ax,%eax
   13bbf:	8b 55 fc             	mov    -0x4(%rbp),%edx
   13bc2:	48 8d 35 e0 24 00 00 	lea    0x24e0(%rip),%rsi        # 160a9 <g_2569+0x203f>
   13bc9:	48 89 c7             	mov    %rax,%rdi
   13bcc:	e8 22 2b ff ff       	callq  66f3 <transparent_crc>
   13bd1:	48 8b 05 38 61 00 00 	mov    0x6138(%rip),%rax        # 19d10 <g_2930>
   13bd8:	8b 55 fc             	mov    -0x4(%rbp),%edx
   13bdb:	48 8d 35 d1 24 00 00 	lea    0x24d1(%rip),%rsi        # 160b3 <g_2569+0x2049>
   13be2:	48 89 c7             	mov    %rax,%rdi
   13be5:	e8 09 2b ff ff       	callq  66f3 <transparent_crc>
   13bea:	8b 05 20 61 00 00    	mov    0x6120(%rip),%eax        # 19d10 <g_2930>
   13bf0:	89 c1                	mov    %eax,%ecx
   13bf2:	8b 45 fc             	mov    -0x4(%rbp),%eax
   13bf5:	89 c2                	mov    %eax,%edx
   13bf7:	48 8d 35 bf 24 00 00 	lea    0x24bf(%rip),%rsi        # 160bd <g_2569+0x2053>
   13bfe:	48 89 cf             	mov    %rcx,%rdi
   13c01:	e8 ed 2a ff ff       	callq  66f3 <transparent_crc>
   13c06:	8b 05 04 61 00 00    	mov    0x6104(%rip),%eax        # 19d10 <g_2930>
   13c0c:	48 98                	cltq   
   13c0e:	8b 55 fc             	mov    -0x4(%rbp),%edx
   13c11:	48 8d 35 af 24 00 00 	lea    0x24af(%rip),%rsi        # 160c7 <g_2569+0x205d>
   13c18:	48 89 c7             	mov    %rax,%rdi
   13c1b:	e8 d3 2a ff ff       	callq  66f3 <transparent_crc>
   13c20:	8b 05 fa 53 00 00    	mov    0x53fa(%rip),%eax        # 19020 <crc32_context>
   13c26:	f7 d0                	not    %eax
   13c28:	89 c2                	mov    %eax,%edx
   13c2a:	8b 45 fc             	mov    -0x4(%rbp),%eax
   13c2d:	89 c6                	mov    %eax,%esi
   13c2f:	89 d7                	mov    %edx,%edi
   13c31:	e8 5e 15 ff ff       	callq  5194 <platform_main_end>
   13c36:	b8 00 00 00 00       	mov    $0x0,%eax
   13c3b:	c9                   	leaveq 
   13c3c:	c3                   	retq   
   13c3d:	0f 1f 00             	nopl   (%rax)

0000000000013c40 <__libc_csu_init>:
   13c40:	f3 0f 1e fa          	endbr64 
   13c44:	41 57                	push   %r15
   13c46:	4c 8d 3d 83 4f 00 00 	lea    0x4f83(%rip),%r15        # 18bd0 <__frame_dummy_init_array_entry>
   13c4d:	41 56                	push   %r14
   13c4f:	49 89 d6             	mov    %rdx,%r14
   13c52:	41 55                	push   %r13
   13c54:	49 89 f5             	mov    %rsi,%r13
   13c57:	41 54                	push   %r12
   13c59:	41 89 fc             	mov    %edi,%r12d
   13c5c:	55                   	push   %rbp
   13c5d:	48 8d 2d 74 4f 00 00 	lea    0x4f74(%rip),%rbp        # 18bd8 <__do_global_dtors_aux_fini_array_entry>
   13c64:	53                   	push   %rbx
   13c65:	4c 29 fd             	sub    %r15,%rbp
   13c68:	48 83 ec 08          	sub    $0x8,%rsp
   13c6c:	e8 8f 13 ff ff       	callq  5000 <_init>
   13c71:	48 c1 fd 03          	sar    $0x3,%rbp
   13c75:	74 1f                	je     13c96 <__libc_csu_init+0x56>
   13c77:	31 db                	xor    %ebx,%ebx
   13c79:	0f 1f 80 00 00 00 00 	nopl   0x0(%rax)
   13c80:	4c 89 f2             	mov    %r14,%rdx
   13c83:	4c 89 ee             	mov    %r13,%rsi
   13c86:	44 89 e7             	mov    %r12d,%edi
   13c89:	41 ff 14 df          	callq  *(%r15,%rbx,8)
   13c8d:	48 83 c3 01          	add    $0x1,%rbx
   13c91:	48 39 dd             	cmp    %rbx,%rbp
   13c94:	75 ea                	jne    13c80 <__libc_csu_init+0x40>
   13c96:	48 83 c4 08          	add    $0x8,%rsp
   13c9a:	5b                   	pop    %rbx
   13c9b:	5d                   	pop    %rbp
   13c9c:	41 5c                	pop    %r12
   13c9e:	41 5d                	pop    %r13
   13ca0:	41 5e                	pop    %r14
   13ca2:	41 5f                	pop    %r15
   13ca4:	c3                   	retq   
   13ca5:	66 66 2e 0f 1f 84 00 	data16 nopw %cs:0x0(%rax,%rax,1)
   13cac:	00 00 00 00 

0000000000013cb0 <__libc_csu_fini>:
   13cb0:	f3 0f 1e fa          	endbr64 
   13cb4:	c3                   	retq   
