


Disassembly of section .text:

00000000000080a0 <_start>:
    80a0:	f3 0f 1e fa          	endbr64 
    80a4:	31 ed                	xor    %ebp,%ebp
    80a6:	49 89 d1             	mov    %rdx,%r9
    80a9:	5e                   	pop    %rsi
    80aa:	48 89 e2             	mov    %rsp,%rdx
    80ad:	48 83 e4 f0          	and    $0xfffffffffffffff0,%rsp
    80b1:	50                   	push   %rax
    80b2:	54                   	push   %rsp
    80b3:	4c 8d 05 c6 45 01 00 	lea    0x145c6(%rip),%r8        # 1c680 <__libc_csu_fini>
    80ba:	48 8d 0d 4f 45 01 00 	lea    0x1454f(%rip),%rcx        # 1c610 <__libc_csu_init>
    80c1:	48 8d 3d 3c 35 01 00 	lea    0x1353c(%rip),%rdi        # 1b604 <main>
    80c8:	ff 15 fa be 01 00    	callq  *0x1befa(%rip)        # 23fc8 <__libc_start_main@GLIBC_2.2.5>
    80ce:	f4                   	hlt    
    80cf:	90                   	nop

00000000000080d0 <deregister_tm_clones>:
    80d0:	48 8d 3d 99 f6 01 00 	lea    0x1f699(%rip),%rdi        # 27770 <__TMC_END__>
    80d7:	48 8d 05 92 f6 01 00 	lea    0x1f692(%rip),%rax        # 27770 <__TMC_END__>
    80de:	48 39 f8             	cmp    %rdi,%rax
    80e1:	74 15                	je     80f8 <deregister_tm_clones+0x28>
    80e3:	48 8b 05 d6 be 01 00 	mov    0x1bed6(%rip),%rax        # 23fc0 <_ITM_deregisterTMCloneTable>
    80ea:	48 85 c0             	test   %rax,%rax
    80ed:	74 09                	je     80f8 <deregister_tm_clones+0x28>
    80ef:	ff e0                	jmpq   *%rax
    80f1:	0f 1f 80 00 00 00 00 	nopl   0x0(%rax)
    80f8:	c3                   	retq   
    80f9:	0f 1f 80 00 00 00 00 	nopl   0x0(%rax)

0000000000008100 <register_tm_clones>:
    8100:	48 8d 3d 69 f6 01 00 	lea    0x1f669(%rip),%rdi        # 27770 <__TMC_END__>
    8107:	48 8d 35 62 f6 01 00 	lea    0x1f662(%rip),%rsi        # 27770 <__TMC_END__>
    810e:	48 29 fe             	sub    %rdi,%rsi
    8111:	48 89 f0             	mov    %rsi,%rax
    8114:	48 c1 ee 3f          	shr    $0x3f,%rsi
    8118:	48 c1 f8 03          	sar    $0x3,%rax
    811c:	48 01 c6             	add    %rax,%rsi
    811f:	48 d1 fe             	sar    %rsi
    8122:	74 14                	je     8138 <register_tm_clones+0x38>
    8124:	48 8b 05 ad be 01 00 	mov    0x1bead(%rip),%rax        # 23fd8 <_ITM_registerTMCloneTable>
    812b:	48 85 c0             	test   %rax,%rax
    812e:	74 08                	je     8138 <register_tm_clones+0x38>
    8130:	ff e0                	jmpq   *%rax
    8132:	66 0f 1f 44 00 00    	nopw   0x0(%rax,%rax,1)
    8138:	c3                   	retq   
    8139:	0f 1f 80 00 00 00 00 	nopl   0x0(%rax)

0000000000008140 <__do_global_dtors_aux>:
    8140:	f3 0f 1e fa          	endbr64 
    8144:	80 3d 35 f6 01 00 00 	cmpb   $0x0,0x1f635(%rip)        # 27780 <completed.8061>
    814b:	75 2b                	jne    8178 <__do_global_dtors_aux+0x38>
    814d:	55                   	push   %rbp
    814e:	48 83 3d 8a be 01 00 	cmpq   $0x0,0x1be8a(%rip)        # 23fe0 <__cxa_finalize@GLIBC_2.2.5>
    8155:	00 
    8156:	48 89 e5             	mov    %rsp,%rbp
    8159:	74 0c                	je     8167 <__do_global_dtors_aux+0x27>
    815b:	48 8b 3d a6 be 01 00 	mov    0x1bea6(%rip),%rdi        # 24008 <__dso_handle>
    8162:	e8 f9 fe ff ff       	callq  8060 <__cxa_finalize@plt>
    8167:	e8 64 ff ff ff       	callq  80d0 <deregister_tm_clones>
    816c:	c6 05 0d f6 01 00 01 	movb   $0x1,0x1f60d(%rip)        # 27780 <completed.8061>
    8173:	5d                   	pop    %rbp
    8174:	c3                   	retq   
    8175:	0f 1f 00             	nopl   (%rax)
    8178:	c3                   	retq   
    8179:	0f 1f 80 00 00 00 00 	nopl   0x0(%rax)

0000000000008180 <frame_dummy>:
    8180:	f3 0f 1e fa          	endbr64 
    8184:	e9 77 ff ff ff       	jmpq   8100 <register_tm_clones>

0000000000008189 <platform_main_begin>:
    8189:	f3 0f 1e fa          	endbr64 
    818d:	55                   	push   %rbp
    818e:	48 89 e5             	mov    %rsp,%rbp
    8191:	90                   	nop
    8192:	5d                   	pop    %rbp
    8193:	c3                   	retq   

0000000000008194 <platform_main_end>:
    8194:	f3 0f 1e fa          	endbr64 
    8198:	55                   	push   %rbp
    8199:	48 89 e5             	mov    %rsp,%rbp
    819c:	48 83 ec 10          	sub    $0x10,%rsp
    81a0:	89 7d fc             	mov    %edi,-0x4(%rbp)
    81a3:	89 75 f8             	mov    %esi,-0x8(%rbp)
    81a6:	8b 45 fc             	mov    -0x4(%rbp),%eax
    81a9:	89 c6                	mov    %eax,%esi
    81ab:	48 8d 3d 6e 4e 01 00 	lea    0x14e6e(%rip),%rdi        # 1d020 <_IO_stdin_used+0x20>
    81b2:	b8 00 00 00 00       	mov    $0x0,%eax
    81b7:	e8 c4 fe ff ff       	callq  8080 <printf@plt>
    81bc:	90                   	nop
    81bd:	c9                   	leaveq 
    81be:	c3                   	retq   

00000000000081bf <safe_unary_minus_func_int8_t_s>:
    81bf:	f3 0f 1e fa          	endbr64 
    81c3:	55                   	push   %rbp
    81c4:	48 89 e5             	mov    %rsp,%rbp
    81c7:	89 f8                	mov    %edi,%eax
    81c9:	88 45 fc             	mov    %al,-0x4(%rbp)
    81cc:	0f b6 45 fc          	movzbl -0x4(%rbp),%eax
    81d0:	f7 d8                	neg    %eax
    81d2:	5d                   	pop    %rbp
    81d3:	c3                   	retq   

00000000000081d4 <safe_add_func_int8_t_s_s>:
    81d4:	f3 0f 1e fa          	endbr64 
    81d8:	55                   	push   %rbp
    81d9:	48 89 e5             	mov    %rsp,%rbp
    81dc:	89 fa                	mov    %edi,%edx
    81de:	89 f0                	mov    %esi,%eax
    81e0:	88 55 fc             	mov    %dl,-0x4(%rbp)
    81e3:	88 45 f8             	mov    %al,-0x8(%rbp)
    81e6:	0f b6 55 fc          	movzbl -0x4(%rbp),%edx
    81ea:	0f b6 45 f8          	movzbl -0x8(%rbp),%eax
    81ee:	01 d0                	add    %edx,%eax
    81f0:	5d                   	pop    %rbp
    81f1:	c3                   	retq   

00000000000081f2 <safe_sub_func_int8_t_s_s>:
    81f2:	f3 0f 1e fa          	endbr64 
    81f6:	55                   	push   %rbp
    81f7:	48 89 e5             	mov    %rsp,%rbp
    81fa:	89 fa                	mov    %edi,%edx
    81fc:	89 f0                	mov    %esi,%eax
    81fe:	88 55 fc             	mov    %dl,-0x4(%rbp)
    8201:	88 45 f8             	mov    %al,-0x8(%rbp)
    8204:	0f b6 55 fc          	movzbl -0x4(%rbp),%edx
    8208:	0f b6 45 f8          	movzbl -0x8(%rbp),%eax
    820c:	29 c2                	sub    %eax,%edx
    820e:	89 d0                	mov    %edx,%eax
    8210:	5d                   	pop    %rbp
    8211:	c3                   	retq   

0000000000008212 <safe_mul_func_int8_t_s_s>:
    8212:	f3 0f 1e fa          	endbr64 
    8216:	55                   	push   %rbp
    8217:	48 89 e5             	mov    %rsp,%rbp
    821a:	89 fa                	mov    %edi,%edx
    821c:	89 f0                	mov    %esi,%eax
    821e:	88 55 fc             	mov    %dl,-0x4(%rbp)
    8221:	88 45 f8             	mov    %al,-0x8(%rbp)
    8224:	0f b6 45 fc          	movzbl -0x4(%rbp),%eax
    8228:	0f b6 55 f8          	movzbl -0x8(%rbp),%edx
    822c:	0f af c2             	imul   %edx,%eax
    822f:	5d                   	pop    %rbp
    8230:	c3                   	retq   

0000000000008231 <safe_mod_func_int8_t_s_s>:
    8231:	f3 0f 1e fa          	endbr64 
    8235:	55                   	push   %rbp
    8236:	48 89 e5             	mov    %rsp,%rbp
    8239:	89 fa                	mov    %edi,%edx
    823b:	89 f0                	mov    %esi,%eax
    823d:	88 55 fc             	mov    %dl,-0x4(%rbp)
    8240:	88 45 f8             	mov    %al,-0x8(%rbp)
    8243:	80 7d f8 00          	cmpb   $0x0,-0x8(%rbp)
    8247:	74 1b                	je     8264 <safe_mod_func_int8_t_s_s+0x33>
    8249:	80 7d fc 80          	cmpb   $0x80,-0x4(%rbp)
    824d:	75 06                	jne    8255 <safe_mod_func_int8_t_s_s+0x24>
    824f:	80 7d f8 ff          	cmpb   $0xff,-0x8(%rbp)
    8253:	74 0f                	je     8264 <safe_mod_func_int8_t_s_s+0x33>
    8255:	0f be 45 fc          	movsbl -0x4(%rbp),%eax
    8259:	0f be 4d f8          	movsbl -0x8(%rbp),%ecx
    825d:	99                   	cltd   
    825e:	f7 f9                	idiv   %ecx
    8260:	89 d0                	mov    %edx,%eax
    8262:	eb 04                	jmp    8268 <safe_mod_func_int8_t_s_s+0x37>
    8264:	0f b6 45 fc          	movzbl -0x4(%rbp),%eax
    8268:	5d                   	pop    %rbp
    8269:	c3                   	retq   

000000000000826a <safe_div_func_int8_t_s_s>:
    826a:	f3 0f 1e fa          	endbr64 
    826e:	55                   	push   %rbp
    826f:	48 89 e5             	mov    %rsp,%rbp
    8272:	89 fa                	mov    %edi,%edx
    8274:	89 f0                	mov    %esi,%eax
    8276:	88 55 fc             	mov    %dl,-0x4(%rbp)
    8279:	88 45 f8             	mov    %al,-0x8(%rbp)
    827c:	80 7d f8 00          	cmpb   $0x0,-0x8(%rbp)
    8280:	74 19                	je     829b <safe_div_func_int8_t_s_s+0x31>
    8282:	80 7d fc 80          	cmpb   $0x80,-0x4(%rbp)
    8286:	75 06                	jne    828e <safe_div_func_int8_t_s_s+0x24>
    8288:	80 7d f8 ff          	cmpb   $0xff,-0x8(%rbp)
    828c:	74 0d                	je     829b <safe_div_func_int8_t_s_s+0x31>
    828e:	0f be 45 fc          	movsbl -0x4(%rbp),%eax
    8292:	0f be 4d f8          	movsbl -0x8(%rbp),%ecx
    8296:	99                   	cltd   
    8297:	f7 f9                	idiv   %ecx
    8299:	eb 04                	jmp    829f <safe_div_func_int8_t_s_s+0x35>
    829b:	0f b6 45 fc          	movzbl -0x4(%rbp),%eax
    829f:	5d                   	pop    %rbp
    82a0:	c3                   	retq   

00000000000082a1 <safe_lshift_func_int8_t_s_s>:
    82a1:	f3 0f 1e fa          	endbr64 
    82a5:	55                   	push   %rbp
    82a6:	48 89 e5             	mov    %rsp,%rbp
    82a9:	89 f8                	mov    %edi,%eax
    82ab:	89 75 f8             	mov    %esi,-0x8(%rbp)
    82ae:	88 45 fc             	mov    %al,-0x4(%rbp)
    82b1:	80 7d fc 00          	cmpb   $0x0,-0x4(%rbp)
    82b5:	78 31                	js     82e8 <safe_lshift_func_int8_t_s_s+0x47>
    82b7:	83 7d f8 00          	cmpl   $0x0,-0x8(%rbp)
    82bb:	78 2b                	js     82e8 <safe_lshift_func_int8_t_s_s+0x47>
    82bd:	83 7d f8 1f          	cmpl   $0x1f,-0x8(%rbp)
    82c1:	7f 25                	jg     82e8 <safe_lshift_func_int8_t_s_s+0x47>
    82c3:	0f be 55 fc          	movsbl -0x4(%rbp),%edx
    82c7:	8b 45 f8             	mov    -0x8(%rbp),%eax
    82ca:	be 7f 00 00 00       	mov    $0x7f,%esi
    82cf:	89 c1                	mov    %eax,%ecx
    82d1:	d3 fe                	sar    %cl,%esi
    82d3:	89 f0                	mov    %esi,%eax
    82d5:	39 c2                	cmp    %eax,%edx
    82d7:	7f 0f                	jg     82e8 <safe_lshift_func_int8_t_s_s+0x47>
    82d9:	0f be 55 fc          	movsbl -0x4(%rbp),%edx
    82dd:	8b 45 f8             	mov    -0x8(%rbp),%eax
    82e0:	89 c1                	mov    %eax,%ecx
    82e2:	d3 e2                	shl    %cl,%edx
    82e4:	89 d0                	mov    %edx,%eax
    82e6:	eb 04                	jmp    82ec <safe_lshift_func_int8_t_s_s+0x4b>
    82e8:	0f b6 45 fc          	movzbl -0x4(%rbp),%eax
    82ec:	5d                   	pop    %rbp
    82ed:	c3                   	retq   

00000000000082ee <safe_lshift_func_int8_t_s_u>:
    82ee:	f3 0f 1e fa          	endbr64 
    82f2:	55                   	push   %rbp
    82f3:	48 89 e5             	mov    %rsp,%rbp
    82f6:	89 f8                	mov    %edi,%eax
    82f8:	89 75 f8             	mov    %esi,-0x8(%rbp)
    82fb:	88 45 fc             	mov    %al,-0x4(%rbp)
    82fe:	80 7d fc 00          	cmpb   $0x0,-0x4(%rbp)
    8302:	78 2b                	js     832f <safe_lshift_func_int8_t_s_u+0x41>
    8304:	83 7d f8 1f          	cmpl   $0x1f,-0x8(%rbp)
    8308:	77 25                	ja     832f <safe_lshift_func_int8_t_s_u+0x41>
    830a:	0f be 55 fc          	movsbl -0x4(%rbp),%edx
    830e:	8b 45 f8             	mov    -0x8(%rbp),%eax
    8311:	be 7f 00 00 00       	mov    $0x7f,%esi
    8316:	89 c1                	mov    %eax,%ecx
    8318:	d3 fe                	sar    %cl,%esi
    831a:	89 f0                	mov    %esi,%eax
    831c:	39 c2                	cmp    %eax,%edx
    831e:	7f 0f                	jg     832f <safe_lshift_func_int8_t_s_u+0x41>
    8320:	0f be 55 fc          	movsbl -0x4(%rbp),%edx
    8324:	8b 45 f8             	mov    -0x8(%rbp),%eax
    8327:	89 c1                	mov    %eax,%ecx
    8329:	d3 e2                	shl    %cl,%edx
    832b:	89 d0                	mov    %edx,%eax
    832d:	eb 04                	jmp    8333 <safe_lshift_func_int8_t_s_u+0x45>
    832f:	0f b6 45 fc          	movzbl -0x4(%rbp),%eax
    8333:	5d                   	pop    %rbp
    8334:	c3                   	retq   

0000000000008335 <safe_rshift_func_int8_t_s_s>:
    8335:	f3 0f 1e fa          	endbr64 
    8339:	55                   	push   %rbp
    833a:	48 89 e5             	mov    %rsp,%rbp
    833d:	89 f8                	mov    %edi,%eax
    833f:	89 75 f8             	mov    %esi,-0x8(%rbp)
    8342:	88 45 fc             	mov    %al,-0x4(%rbp)
    8345:	80 7d fc 00          	cmpb   $0x0,-0x4(%rbp)
    8349:	78 1b                	js     8366 <safe_rshift_func_int8_t_s_s+0x31>
    834b:	83 7d f8 00          	cmpl   $0x0,-0x8(%rbp)
    834f:	78 15                	js     8366 <safe_rshift_func_int8_t_s_s+0x31>
    8351:	83 7d f8 1f          	cmpl   $0x1f,-0x8(%rbp)
    8355:	7f 0f                	jg     8366 <safe_rshift_func_int8_t_s_s+0x31>
    8357:	0f be 55 fc          	movsbl -0x4(%rbp),%edx
    835b:	8b 45 f8             	mov    -0x8(%rbp),%eax
    835e:	89 c1                	mov    %eax,%ecx
    8360:	d3 fa                	sar    %cl,%edx
    8362:	89 d0                	mov    %edx,%eax
    8364:	eb 04                	jmp    836a <safe_rshift_func_int8_t_s_s+0x35>
    8366:	0f b6 45 fc          	movzbl -0x4(%rbp),%eax
    836a:	5d                   	pop    %rbp
    836b:	c3                   	retq   

000000000000836c <safe_rshift_func_int8_t_s_u>:
    836c:	f3 0f 1e fa          	endbr64 
    8370:	55                   	push   %rbp
    8371:	48 89 e5             	mov    %rsp,%rbp
    8374:	89 f8                	mov    %edi,%eax
    8376:	89 75 f8             	mov    %esi,-0x8(%rbp)
    8379:	88 45 fc             	mov    %al,-0x4(%rbp)
    837c:	80 7d fc 00          	cmpb   $0x0,-0x4(%rbp)
    8380:	78 15                	js     8397 <safe_rshift_func_int8_t_s_u+0x2b>
    8382:	83 7d f8 1f          	cmpl   $0x1f,-0x8(%rbp)
    8386:	77 0f                	ja     8397 <safe_rshift_func_int8_t_s_u+0x2b>
    8388:	0f be 55 fc          	movsbl -0x4(%rbp),%edx
    838c:	8b 45 f8             	mov    -0x8(%rbp),%eax
    838f:	89 c1                	mov    %eax,%ecx
    8391:	d3 fa                	sar    %cl,%edx
    8393:	89 d0                	mov    %edx,%eax
    8395:	eb 04                	jmp    839b <safe_rshift_func_int8_t_s_u+0x2f>
    8397:	0f b6 45 fc          	movzbl -0x4(%rbp),%eax
    839b:	5d                   	pop    %rbp
    839c:	c3                   	retq   

000000000000839d <safe_unary_minus_func_int16_t_s>:
    839d:	f3 0f 1e fa          	endbr64 
    83a1:	55                   	push   %rbp
    83a2:	48 89 e5             	mov    %rsp,%rbp
    83a5:	89 f8                	mov    %edi,%eax
    83a7:	66 89 45 fc          	mov    %ax,-0x4(%rbp)
    83ab:	0f b7 45 fc          	movzwl -0x4(%rbp),%eax
    83af:	f7 d8                	neg    %eax
    83b1:	5d                   	pop    %rbp
    83b2:	c3                   	retq   

00000000000083b3 <safe_add_func_int16_t_s_s>:
    83b3:	f3 0f 1e fa          	endbr64 
    83b7:	55                   	push   %rbp
    83b8:	48 89 e5             	mov    %rsp,%rbp
    83bb:	89 fa                	mov    %edi,%edx
    83bd:	89 f0                	mov    %esi,%eax
    83bf:	66 89 55 fc          	mov    %dx,-0x4(%rbp)
    83c3:	66 89 45 f8          	mov    %ax,-0x8(%rbp)
    83c7:	0f b7 55 fc          	movzwl -0x4(%rbp),%edx
    83cb:	0f b7 45 f8          	movzwl -0x8(%rbp),%eax
    83cf:	01 d0                	add    %edx,%eax
    83d1:	5d                   	pop    %rbp
    83d2:	c3                   	retq   

00000000000083d3 <safe_sub_func_int16_t_s_s>:
    83d3:	f3 0f 1e fa          	endbr64 
    83d7:	55                   	push   %rbp
    83d8:	48 89 e5             	mov    %rsp,%rbp
    83db:	89 fa                	mov    %edi,%edx
    83dd:	89 f0                	mov    %esi,%eax
    83df:	66 89 55 fc          	mov    %dx,-0x4(%rbp)
    83e3:	66 89 45 f8          	mov    %ax,-0x8(%rbp)
    83e7:	0f b7 55 fc          	movzwl -0x4(%rbp),%edx
    83eb:	0f b7 45 f8          	movzwl -0x8(%rbp),%eax
    83ef:	29 c2                	sub    %eax,%edx
    83f1:	89 d0                	mov    %edx,%eax
    83f3:	5d                   	pop    %rbp
    83f4:	c3                   	retq   

00000000000083f5 <safe_mul_func_int16_t_s_s>:
    83f5:	f3 0f 1e fa          	endbr64 
    83f9:	55                   	push   %rbp
    83fa:	48 89 e5             	mov    %rsp,%rbp
    83fd:	89 fa                	mov    %edi,%edx
    83ff:	89 f0                	mov    %esi,%eax
    8401:	66 89 55 fc          	mov    %dx,-0x4(%rbp)
    8405:	66 89 45 f8          	mov    %ax,-0x8(%rbp)
    8409:	0f b7 55 fc          	movzwl -0x4(%rbp),%edx
    840d:	0f b7 45 f8          	movzwl -0x8(%rbp),%eax
    8411:	0f af c2             	imul   %edx,%eax
    8414:	5d                   	pop    %rbp
    8415:	c3                   	retq   

0000000000008416 <safe_mod_func_int16_t_s_s>:
    8416:	f3 0f 1e fa          	endbr64 
    841a:	55                   	push   %rbp
    841b:	48 89 e5             	mov    %rsp,%rbp
    841e:	89 fa                	mov    %edi,%edx
    8420:	89 f0                	mov    %esi,%eax
    8422:	66 89 55 fc          	mov    %dx,-0x4(%rbp)
    8426:	66 89 45 f8          	mov    %ax,-0x8(%rbp)
    842a:	66 83 7d f8 00       	cmpw   $0x0,-0x8(%rbp)
    842f:	74 1e                	je     844f <safe_mod_func_int16_t_s_s+0x39>
    8431:	66 81 7d fc 00 80    	cmpw   $0x8000,-0x4(%rbp)
    8437:	75 07                	jne    8440 <safe_mod_func_int16_t_s_s+0x2a>
    8439:	66 83 7d f8 ff       	cmpw   $0xffff,-0x8(%rbp)
    843e:	74 0f                	je     844f <safe_mod_func_int16_t_s_s+0x39>
    8440:	0f bf 45 fc          	movswl -0x4(%rbp),%eax
    8444:	0f bf 4d f8          	movswl -0x8(%rbp),%ecx
    8448:	99                   	cltd   
    8449:	f7 f9                	idiv   %ecx
    844b:	89 d0                	mov    %edx,%eax
    844d:	eb 04                	jmp    8453 <safe_mod_func_int16_t_s_s+0x3d>
    844f:	0f b7 45 fc          	movzwl -0x4(%rbp),%eax
    8453:	5d                   	pop    %rbp
    8454:	c3                   	retq   

0000000000008455 <safe_div_func_int16_t_s_s>:
    8455:	f3 0f 1e fa          	endbr64 
    8459:	55                   	push   %rbp
    845a:	48 89 e5             	mov    %rsp,%rbp
    845d:	89 fa                	mov    %edi,%edx
    845f:	89 f0                	mov    %esi,%eax
    8461:	66 89 55 fc          	mov    %dx,-0x4(%rbp)
    8465:	66 89 45 f8          	mov    %ax,-0x8(%rbp)
    8469:	66 83 7d f8 00       	cmpw   $0x0,-0x8(%rbp)
    846e:	74 1c                	je     848c <safe_div_func_int16_t_s_s+0x37>
    8470:	66 81 7d fc 00 80    	cmpw   $0x8000,-0x4(%rbp)
    8476:	75 07                	jne    847f <safe_div_func_int16_t_s_s+0x2a>
    8478:	66 83 7d f8 ff       	cmpw   $0xffff,-0x8(%rbp)
    847d:	74 0d                	je     848c <safe_div_func_int16_t_s_s+0x37>
    847f:	0f bf 45 fc          	movswl -0x4(%rbp),%eax
    8483:	0f bf 4d f8          	movswl -0x8(%rbp),%ecx
    8487:	99                   	cltd   
    8488:	f7 f9                	idiv   %ecx
    848a:	eb 04                	jmp    8490 <safe_div_func_int16_t_s_s+0x3b>
    848c:	0f b7 45 fc          	movzwl -0x4(%rbp),%eax
    8490:	5d                   	pop    %rbp
    8491:	c3                   	retq   

0000000000008492 <safe_lshift_func_int16_t_s_s>:
    8492:	f3 0f 1e fa          	endbr64 
    8496:	55                   	push   %rbp
    8497:	48 89 e5             	mov    %rsp,%rbp
    849a:	89 f8                	mov    %edi,%eax
    849c:	89 75 f8             	mov    %esi,-0x8(%rbp)
    849f:	66 89 45 fc          	mov    %ax,-0x4(%rbp)
    84a3:	66 83 7d fc 00       	cmpw   $0x0,-0x4(%rbp)
    84a8:	78 31                	js     84db <safe_lshift_func_int16_t_s_s+0x49>
    84aa:	83 7d f8 00          	cmpl   $0x0,-0x8(%rbp)
    84ae:	78 2b                	js     84db <safe_lshift_func_int16_t_s_s+0x49>
    84b0:	83 7d f8 1f          	cmpl   $0x1f,-0x8(%rbp)
    84b4:	7f 25                	jg     84db <safe_lshift_func_int16_t_s_s+0x49>
    84b6:	0f bf 55 fc          	movswl -0x4(%rbp),%edx
    84ba:	8b 45 f8             	mov    -0x8(%rbp),%eax
    84bd:	be ff 7f 00 00       	mov    $0x7fff,%esi
    84c2:	89 c1                	mov    %eax,%ecx
    84c4:	d3 fe                	sar    %cl,%esi
    84c6:	89 f0                	mov    %esi,%eax
    84c8:	39 c2                	cmp    %eax,%edx
    84ca:	7f 0f                	jg     84db <safe_lshift_func_int16_t_s_s+0x49>
    84cc:	0f bf 55 fc          	movswl -0x4(%rbp),%edx
    84d0:	8b 45 f8             	mov    -0x8(%rbp),%eax
    84d3:	89 c1                	mov    %eax,%ecx
    84d5:	d3 e2                	shl    %cl,%edx
    84d7:	89 d0                	mov    %edx,%eax
    84d9:	eb 04                	jmp    84df <safe_lshift_func_int16_t_s_s+0x4d>
    84db:	0f b7 45 fc          	movzwl -0x4(%rbp),%eax
    84df:	5d                   	pop    %rbp
    84e0:	c3                   	retq   

00000000000084e1 <safe_lshift_func_int16_t_s_u>:
    84e1:	f3 0f 1e fa          	endbr64 
    84e5:	55                   	push   %rbp
    84e6:	48 89 e5             	mov    %rsp,%rbp
    84e9:	89 f8                	mov    %edi,%eax
    84eb:	89 75 f8             	mov    %esi,-0x8(%rbp)
    84ee:	66 89 45 fc          	mov    %ax,-0x4(%rbp)
    84f2:	66 83 7d fc 00       	cmpw   $0x0,-0x4(%rbp)
    84f7:	78 2b                	js     8524 <safe_lshift_func_int16_t_s_u+0x43>
    84f9:	83 7d f8 1f          	cmpl   $0x1f,-0x8(%rbp)
    84fd:	77 25                	ja     8524 <safe_lshift_func_int16_t_s_u+0x43>
    84ff:	0f bf 55 fc          	movswl -0x4(%rbp),%edx
    8503:	8b 45 f8             	mov    -0x8(%rbp),%eax
    8506:	be ff 7f 00 00       	mov    $0x7fff,%esi
    850b:	89 c1                	mov    %eax,%ecx
    850d:	d3 fe                	sar    %cl,%esi
    850f:	89 f0                	mov    %esi,%eax
    8511:	39 c2                	cmp    %eax,%edx
    8513:	7f 0f                	jg     8524 <safe_lshift_func_int16_t_s_u+0x43>
    8515:	0f bf 55 fc          	movswl -0x4(%rbp),%edx
    8519:	8b 45 f8             	mov    -0x8(%rbp),%eax
    851c:	89 c1                	mov    %eax,%ecx
    851e:	d3 e2                	shl    %cl,%edx
    8520:	89 d0                	mov    %edx,%eax
    8522:	eb 04                	jmp    8528 <safe_lshift_func_int16_t_s_u+0x47>
    8524:	0f b7 45 fc          	movzwl -0x4(%rbp),%eax
    8528:	5d                   	pop    %rbp
    8529:	c3                   	retq   

000000000000852a <safe_rshift_func_int16_t_s_s>:
    852a:	f3 0f 1e fa          	endbr64 
    852e:	55                   	push   %rbp
    852f:	48 89 e5             	mov    %rsp,%rbp
    8532:	89 f8                	mov    %edi,%eax
    8534:	89 75 f8             	mov    %esi,-0x8(%rbp)
    8537:	66 89 45 fc          	mov    %ax,-0x4(%rbp)
    853b:	66 83 7d fc 00       	cmpw   $0x0,-0x4(%rbp)
    8540:	78 1b                	js     855d <safe_rshift_func_int16_t_s_s+0x33>
    8542:	83 7d f8 00          	cmpl   $0x0,-0x8(%rbp)
    8546:	78 15                	js     855d <safe_rshift_func_int16_t_s_s+0x33>
    8548:	83 7d f8 1f          	cmpl   $0x1f,-0x8(%rbp)
    854c:	7f 0f                	jg     855d <safe_rshift_func_int16_t_s_s+0x33>
    854e:	0f bf 55 fc          	movswl -0x4(%rbp),%edx
    8552:	8b 45 f8             	mov    -0x8(%rbp),%eax
    8555:	89 c1                	mov    %eax,%ecx
    8557:	d3 fa                	sar    %cl,%edx
    8559:	89 d0                	mov    %edx,%eax
    855b:	eb 04                	jmp    8561 <safe_rshift_func_int16_t_s_s+0x37>
    855d:	0f b7 45 fc          	movzwl -0x4(%rbp),%eax
    8561:	5d                   	pop    %rbp
    8562:	c3                   	retq   

0000000000008563 <safe_rshift_func_int16_t_s_u>:
    8563:	f3 0f 1e fa          	endbr64 
    8567:	55                   	push   %rbp
    8568:	48 89 e5             	mov    %rsp,%rbp
    856b:	89 f8                	mov    %edi,%eax
    856d:	89 75 f8             	mov    %esi,-0x8(%rbp)
    8570:	66 89 45 fc          	mov    %ax,-0x4(%rbp)
    8574:	66 83 7d fc 00       	cmpw   $0x0,-0x4(%rbp)
    8579:	78 15                	js     8590 <safe_rshift_func_int16_t_s_u+0x2d>
    857b:	83 7d f8 1f          	cmpl   $0x1f,-0x8(%rbp)
    857f:	77 0f                	ja     8590 <safe_rshift_func_int16_t_s_u+0x2d>
    8581:	0f bf 55 fc          	movswl -0x4(%rbp),%edx
    8585:	8b 45 f8             	mov    -0x8(%rbp),%eax
    8588:	89 c1                	mov    %eax,%ecx
    858a:	d3 fa                	sar    %cl,%edx
    858c:	89 d0                	mov    %edx,%eax
    858e:	eb 04                	jmp    8594 <safe_rshift_func_int16_t_s_u+0x31>
    8590:	0f b7 45 fc          	movzwl -0x4(%rbp),%eax
    8594:	5d                   	pop    %rbp
    8595:	c3                   	retq   

0000000000008596 <safe_unary_minus_func_int32_t_s>:
    8596:	f3 0f 1e fa          	endbr64 
    859a:	55                   	push   %rbp
    859b:	48 89 e5             	mov    %rsp,%rbp
    859e:	89 7d fc             	mov    %edi,-0x4(%rbp)
    85a1:	81 7d fc 00 00 00 80 	cmpl   $0x80000000,-0x4(%rbp)
    85a8:	74 07                	je     85b1 <safe_unary_minus_func_int32_t_s+0x1b>
    85aa:	8b 45 fc             	mov    -0x4(%rbp),%eax
    85ad:	f7 d8                	neg    %eax
    85af:	eb 03                	jmp    85b4 <safe_unary_minus_func_int32_t_s+0x1e>
    85b1:	8b 45 fc             	mov    -0x4(%rbp),%eax
    85b4:	5d                   	pop    %rbp
    85b5:	c3                   	retq   

00000000000085b6 <safe_add_func_int32_t_s_s>:
    85b6:	f3 0f 1e fa          	endbr64 
    85ba:	55                   	push   %rbp
    85bb:	48 89 e5             	mov    %rsp,%rbp
    85be:	89 7d fc             	mov    %edi,-0x4(%rbp)
    85c1:	89 75 f8             	mov    %esi,-0x8(%rbp)
    85c4:	83 7d fc 00          	cmpl   $0x0,-0x4(%rbp)
    85c8:	7e 13                	jle    85dd <safe_add_func_int32_t_s_s+0x27>
    85ca:	83 7d f8 00          	cmpl   $0x0,-0x8(%rbp)
    85ce:	7e 0d                	jle    85dd <safe_add_func_int32_t_s_s+0x27>
    85d0:	b8 ff ff ff 7f       	mov    $0x7fffffff,%eax
    85d5:	2b 45 f8             	sub    -0x8(%rbp),%eax
    85d8:	39 45 fc             	cmp    %eax,-0x4(%rbp)
    85db:	7f 23                	jg     8600 <safe_add_func_int32_t_s_s+0x4a>
    85dd:	83 7d fc 00          	cmpl   $0x0,-0x4(%rbp)
    85e1:	79 13                	jns    85f6 <safe_add_func_int32_t_s_s+0x40>
    85e3:	83 7d f8 00          	cmpl   $0x0,-0x8(%rbp)
    85e7:	79 0d                	jns    85f6 <safe_add_func_int32_t_s_s+0x40>
    85e9:	b8 00 00 00 80       	mov    $0x80000000,%eax
    85ee:	2b 45 f8             	sub    -0x8(%rbp),%eax
    85f1:	39 45 fc             	cmp    %eax,-0x4(%rbp)
    85f4:	7c 0a                	jl     8600 <safe_add_func_int32_t_s_s+0x4a>
    85f6:	8b 55 fc             	mov    -0x4(%rbp),%edx
    85f9:	8b 45 f8             	mov    -0x8(%rbp),%eax
    85fc:	01 d0                	add    %edx,%eax
    85fe:	eb 03                	jmp    8603 <safe_add_func_int32_t_s_s+0x4d>
    8600:	8b 45 fc             	mov    -0x4(%rbp),%eax
    8603:	5d                   	pop    %rbp
    8604:	c3                   	retq   

0000000000008605 <safe_sub_func_int32_t_s_s>:
    8605:	f3 0f 1e fa          	endbr64 
    8609:	55                   	push   %rbp
    860a:	48 89 e5             	mov    %rsp,%rbp
    860d:	89 7d fc             	mov    %edi,-0x4(%rbp)
    8610:	89 75 f8             	mov    %esi,-0x8(%rbp)
    8613:	8b 45 fc             	mov    -0x4(%rbp),%eax
    8616:	33 45 f8             	xor    -0x8(%rbp),%eax
    8619:	89 c2                	mov    %eax,%edx
    861b:	8b 45 fc             	mov    -0x4(%rbp),%eax
    861e:	33 45 f8             	xor    -0x8(%rbp),%eax
    8621:	25 00 00 00 80       	and    $0x80000000,%eax
    8626:	33 45 fc             	xor    -0x4(%rbp),%eax
    8629:	2b 45 f8             	sub    -0x8(%rbp),%eax
    862c:	33 45 f8             	xor    -0x8(%rbp),%eax
    862f:	21 d0                	and    %edx,%eax
    8631:	85 c0                	test   %eax,%eax
    8633:	78 08                	js     863d <safe_sub_func_int32_t_s_s+0x38>
    8635:	8b 45 fc             	mov    -0x4(%rbp),%eax
    8638:	2b 45 f8             	sub    -0x8(%rbp),%eax
    863b:	eb 03                	jmp    8640 <safe_sub_func_int32_t_s_s+0x3b>
    863d:	8b 45 fc             	mov    -0x4(%rbp),%eax
    8640:	5d                   	pop    %rbp
    8641:	c3                   	retq   

0000000000008642 <safe_mul_func_int32_t_s_s>:
    8642:	f3 0f 1e fa          	endbr64 
    8646:	55                   	push   %rbp
    8647:	48 89 e5             	mov    %rsp,%rbp
    864a:	89 7d fc             	mov    %edi,-0x4(%rbp)
    864d:	89 75 f8             	mov    %esi,-0x8(%rbp)
    8650:	83 7d fc 00          	cmpl   $0x0,-0x4(%rbp)
    8654:	7e 14                	jle    866a <safe_mul_func_int32_t_s_s+0x28>
    8656:	83 7d f8 00          	cmpl   $0x0,-0x8(%rbp)
    865a:	7e 0e                	jle    866a <safe_mul_func_int32_t_s_s+0x28>
    865c:	b8 ff ff ff 7f       	mov    $0x7fffffff,%eax
    8661:	99                   	cltd   
    8662:	f7 7d f8             	idivl  -0x8(%rbp)
    8665:	39 45 fc             	cmp    %eax,-0x4(%rbp)
    8668:	7f 5d                	jg     86c7 <safe_mul_func_int32_t_s_s+0x85>
    866a:	83 7d fc 00          	cmpl   $0x0,-0x4(%rbp)
    866e:	7e 14                	jle    8684 <safe_mul_func_int32_t_s_s+0x42>
    8670:	83 7d f8 00          	cmpl   $0x0,-0x8(%rbp)
    8674:	7f 0e                	jg     8684 <safe_mul_func_int32_t_s_s+0x42>
    8676:	b8 00 00 00 80       	mov    $0x80000000,%eax
    867b:	99                   	cltd   
    867c:	f7 7d fc             	idivl  -0x4(%rbp)
    867f:	39 45 f8             	cmp    %eax,-0x8(%rbp)
    8682:	7c 43                	jl     86c7 <safe_mul_func_int32_t_s_s+0x85>
    8684:	83 7d fc 00          	cmpl   $0x0,-0x4(%rbp)
    8688:	7f 14                	jg     869e <safe_mul_func_int32_t_s_s+0x5c>
    868a:	83 7d f8 00          	cmpl   $0x0,-0x8(%rbp)
    868e:	7e 0e                	jle    869e <safe_mul_func_int32_t_s_s+0x5c>
    8690:	b8 00 00 00 80       	mov    $0x80000000,%eax
    8695:	99                   	cltd   
    8696:	f7 7d f8             	idivl  -0x8(%rbp)
    8699:	39 45 fc             	cmp    %eax,-0x4(%rbp)
    869c:	7c 29                	jl     86c7 <safe_mul_func_int32_t_s_s+0x85>
    869e:	83 7d fc 00          	cmpl   $0x0,-0x4(%rbp)
    86a2:	7f 1a                	jg     86be <safe_mul_func_int32_t_s_s+0x7c>
    86a4:	83 7d f8 00          	cmpl   $0x0,-0x8(%rbp)
    86a8:	7f 14                	jg     86be <safe_mul_func_int32_t_s_s+0x7c>
    86aa:	83 7d fc 00          	cmpl   $0x0,-0x4(%rbp)
    86ae:	74 0e                	je     86be <safe_mul_func_int32_t_s_s+0x7c>
    86b0:	b8 ff ff ff 7f       	mov    $0x7fffffff,%eax
    86b5:	99                   	cltd   
    86b6:	f7 7d fc             	idivl  -0x4(%rbp)
    86b9:	39 45 f8             	cmp    %eax,-0x8(%rbp)
    86bc:	7c 09                	jl     86c7 <safe_mul_func_int32_t_s_s+0x85>
    86be:	8b 45 fc             	mov    -0x4(%rbp),%eax
    86c1:	0f af 45 f8          	imul   -0x8(%rbp),%eax
    86c5:	eb 03                	jmp    86ca <safe_mul_func_int32_t_s_s+0x88>
    86c7:	8b 45 fc             	mov    -0x4(%rbp),%eax
    86ca:	5d                   	pop    %rbp
    86cb:	c3                   	retq   

00000000000086cc <safe_mod_func_int32_t_s_s>:
    86cc:	f3 0f 1e fa          	endbr64 
    86d0:	55                   	push   %rbp
    86d1:	48 89 e5             	mov    %rsp,%rbp
    86d4:	89 7d fc             	mov    %edi,-0x4(%rbp)
    86d7:	89 75 f8             	mov    %esi,-0x8(%rbp)
    86da:	83 7d f8 00          	cmpl   $0x0,-0x8(%rbp)
    86de:	74 1a                	je     86fa <safe_mod_func_int32_t_s_s+0x2e>
    86e0:	81 7d fc 00 00 00 80 	cmpl   $0x80000000,-0x4(%rbp)
    86e7:	75 06                	jne    86ef <safe_mod_func_int32_t_s_s+0x23>
    86e9:	83 7d f8 ff          	cmpl   $0xffffffff,-0x8(%rbp)
    86ed:	74 0b                	je     86fa <safe_mod_func_int32_t_s_s+0x2e>
    86ef:	8b 45 fc             	mov    -0x4(%rbp),%eax
    86f2:	99                   	cltd   
    86f3:	f7 7d f8             	idivl  -0x8(%rbp)
    86f6:	89 d0                	mov    %edx,%eax
    86f8:	eb 03                	jmp    86fd <safe_mod_func_int32_t_s_s+0x31>
    86fa:	8b 45 fc             	mov    -0x4(%rbp),%eax
    86fd:	5d                   	pop    %rbp
    86fe:	c3                   	retq   

00000000000086ff <safe_div_func_int32_t_s_s>:
    86ff:	f3 0f 1e fa          	endbr64 
    8703:	55                   	push   %rbp
    8704:	48 89 e5             	mov    %rsp,%rbp
    8707:	89 7d fc             	mov    %edi,-0x4(%rbp)
    870a:	89 75 f8             	mov    %esi,-0x8(%rbp)
    870d:	83 7d f8 00          	cmpl   $0x0,-0x8(%rbp)
    8711:	74 18                	je     872b <safe_div_func_int32_t_s_s+0x2c>
    8713:	81 7d fc 00 00 00 80 	cmpl   $0x80000000,-0x4(%rbp)
    871a:	75 06                	jne    8722 <safe_div_func_int32_t_s_s+0x23>
    871c:	83 7d f8 ff          	cmpl   $0xffffffff,-0x8(%rbp)
    8720:	74 09                	je     872b <safe_div_func_int32_t_s_s+0x2c>
    8722:	8b 45 fc             	mov    -0x4(%rbp),%eax
    8725:	99                   	cltd   
    8726:	f7 7d f8             	idivl  -0x8(%rbp)
    8729:	eb 03                	jmp    872e <safe_div_func_int32_t_s_s+0x2f>
    872b:	8b 45 fc             	mov    -0x4(%rbp),%eax
    872e:	5d                   	pop    %rbp
    872f:	c3                   	retq   

0000000000008730 <safe_lshift_func_int32_t_s_s>:
    8730:	f3 0f 1e fa          	endbr64 
    8734:	55                   	push   %rbp
    8735:	48 89 e5             	mov    %rsp,%rbp
    8738:	89 7d fc             	mov    %edi,-0x4(%rbp)
    873b:	89 75 f8             	mov    %esi,-0x8(%rbp)
    873e:	83 7d fc 00          	cmpl   $0x0,-0x4(%rbp)
    8742:	78 2d                	js     8771 <safe_lshift_func_int32_t_s_s+0x41>
    8744:	83 7d f8 00          	cmpl   $0x0,-0x8(%rbp)
    8748:	78 27                	js     8771 <safe_lshift_func_int32_t_s_s+0x41>
    874a:	83 7d f8 1f          	cmpl   $0x1f,-0x8(%rbp)
    874e:	7f 21                	jg     8771 <safe_lshift_func_int32_t_s_s+0x41>
    8750:	8b 45 f8             	mov    -0x8(%rbp),%eax
    8753:	ba ff ff ff 7f       	mov    $0x7fffffff,%edx
    8758:	89 c1                	mov    %eax,%ecx
    875a:	d3 fa                	sar    %cl,%edx
    875c:	89 d0                	mov    %edx,%eax
    875e:	39 45 fc             	cmp    %eax,-0x4(%rbp)
    8761:	7f 0e                	jg     8771 <safe_lshift_func_int32_t_s_s+0x41>
    8763:	8b 45 f8             	mov    -0x8(%rbp),%eax
    8766:	8b 55 fc             	mov    -0x4(%rbp),%edx
    8769:	89 c1                	mov    %eax,%ecx
    876b:	d3 e2                	shl    %cl,%edx
    876d:	89 d0                	mov    %edx,%eax
    876f:	eb 03                	jmp    8774 <safe_lshift_func_int32_t_s_s+0x44>
    8771:	8b 45 fc             	mov    -0x4(%rbp),%eax
    8774:	5d                   	pop    %rbp
    8775:	c3                   	retq   

0000000000008776 <safe_lshift_func_int32_t_s_u>:
    8776:	f3 0f 1e fa          	endbr64 
    877a:	55                   	push   %rbp
    877b:	48 89 e5             	mov    %rsp,%rbp
    877e:	89 7d fc             	mov    %edi,-0x4(%rbp)
    8781:	89 75 f8             	mov    %esi,-0x8(%rbp)
    8784:	83 7d fc 00          	cmpl   $0x0,-0x4(%rbp)
    8788:	78 27                	js     87b1 <safe_lshift_func_int32_t_s_u+0x3b>
    878a:	83 7d f8 1f          	cmpl   $0x1f,-0x8(%rbp)
    878e:	77 21                	ja     87b1 <safe_lshift_func_int32_t_s_u+0x3b>
    8790:	8b 45 f8             	mov    -0x8(%rbp),%eax
    8793:	ba ff ff ff 7f       	mov    $0x7fffffff,%edx
    8798:	89 c1                	mov    %eax,%ecx
    879a:	d3 fa                	sar    %cl,%edx
    879c:	89 d0                	mov    %edx,%eax
    879e:	39 45 fc             	cmp    %eax,-0x4(%rbp)
    87a1:	7f 0e                	jg     87b1 <safe_lshift_func_int32_t_s_u+0x3b>
    87a3:	8b 45 f8             	mov    -0x8(%rbp),%eax
    87a6:	8b 55 fc             	mov    -0x4(%rbp),%edx
    87a9:	89 c1                	mov    %eax,%ecx
    87ab:	d3 e2                	shl    %cl,%edx
    87ad:	89 d0                	mov    %edx,%eax
    87af:	eb 03                	jmp    87b4 <safe_lshift_func_int32_t_s_u+0x3e>
    87b1:	8b 45 fc             	mov    -0x4(%rbp),%eax
    87b4:	5d                   	pop    %rbp
    87b5:	c3                   	retq   

00000000000087b6 <safe_rshift_func_int32_t_s_s>:
    87b6:	f3 0f 1e fa          	endbr64 
    87ba:	55                   	push   %rbp
    87bb:	48 89 e5             	mov    %rsp,%rbp
    87be:	89 7d fc             	mov    %edi,-0x4(%rbp)
    87c1:	89 75 f8             	mov    %esi,-0x8(%rbp)
    87c4:	83 7d fc 00          	cmpl   $0x0,-0x4(%rbp)
    87c8:	78 1a                	js     87e4 <safe_rshift_func_int32_t_s_s+0x2e>
    87ca:	83 7d f8 00          	cmpl   $0x0,-0x8(%rbp)
    87ce:	78 14                	js     87e4 <safe_rshift_func_int32_t_s_s+0x2e>
    87d0:	83 7d f8 1f          	cmpl   $0x1f,-0x8(%rbp)
    87d4:	7f 0e                	jg     87e4 <safe_rshift_func_int32_t_s_s+0x2e>
    87d6:	8b 45 f8             	mov    -0x8(%rbp),%eax
    87d9:	8b 55 fc             	mov    -0x4(%rbp),%edx
    87dc:	89 c1                	mov    %eax,%ecx
    87de:	d3 fa                	sar    %cl,%edx
    87e0:	89 d0                	mov    %edx,%eax
    87e2:	eb 03                	jmp    87e7 <safe_rshift_func_int32_t_s_s+0x31>
    87e4:	8b 45 fc             	mov    -0x4(%rbp),%eax
    87e7:	5d                   	pop    %rbp
    87e8:	c3                   	retq   

00000000000087e9 <safe_rshift_func_int32_t_s_u>:
    87e9:	f3 0f 1e fa          	endbr64 
    87ed:	55                   	push   %rbp
    87ee:	48 89 e5             	mov    %rsp,%rbp
    87f1:	89 7d fc             	mov    %edi,-0x4(%rbp)
    87f4:	89 75 f8             	mov    %esi,-0x8(%rbp)
    87f7:	83 7d fc 00          	cmpl   $0x0,-0x4(%rbp)
    87fb:	78 14                	js     8811 <safe_rshift_func_int32_t_s_u+0x28>
    87fd:	83 7d f8 1f          	cmpl   $0x1f,-0x8(%rbp)
    8801:	77 0e                	ja     8811 <safe_rshift_func_int32_t_s_u+0x28>
    8803:	8b 45 f8             	mov    -0x8(%rbp),%eax
    8806:	8b 55 fc             	mov    -0x4(%rbp),%edx
    8809:	89 c1                	mov    %eax,%ecx
    880b:	d3 fa                	sar    %cl,%edx
    880d:	89 d0                	mov    %edx,%eax
    880f:	eb 03                	jmp    8814 <safe_rshift_func_int32_t_s_u+0x2b>
    8811:	8b 45 fc             	mov    -0x4(%rbp),%eax
    8814:	5d                   	pop    %rbp
    8815:	c3                   	retq   

0000000000008816 <safe_unary_minus_func_int64_t_s>:
    8816:	f3 0f 1e fa          	endbr64 
    881a:	55                   	push   %rbp
    881b:	48 89 e5             	mov    %rsp,%rbp
    881e:	48 89 7d f8          	mov    %rdi,-0x8(%rbp)
    8822:	48 b8 00 00 00 00 00 	movabs $0x8000000000000000,%rax
    8829:	00 00 80 
    882c:	48 39 45 f8          	cmp    %rax,-0x8(%rbp)
    8830:	74 09                	je     883b <safe_unary_minus_func_int64_t_s+0x25>
    8832:	48 8b 45 f8          	mov    -0x8(%rbp),%rax
    8836:	48 f7 d8             	neg    %rax
    8839:	eb 04                	jmp    883f <safe_unary_minus_func_int64_t_s+0x29>
    883b:	48 8b 45 f8          	mov    -0x8(%rbp),%rax
    883f:	5d                   	pop    %rbp
    8840:	c3                   	retq   

0000000000008841 <safe_add_func_int64_t_s_s>:
    8841:	f3 0f 1e fa          	endbr64 
    8845:	55                   	push   %rbp
    8846:	48 89 e5             	mov    %rsp,%rbp
    8849:	48 89 7d f8          	mov    %rdi,-0x8(%rbp)
    884d:	48 89 75 f0          	mov    %rsi,-0x10(%rbp)
    8851:	48 83 7d f8 00       	cmpq   $0x0,-0x8(%rbp)
    8856:	7e 1b                	jle    8873 <safe_add_func_int64_t_s_s+0x32>
    8858:	48 83 7d f0 00       	cmpq   $0x0,-0x10(%rbp)
    885d:	7e 14                	jle    8873 <safe_add_func_int64_t_s_s+0x32>
    885f:	48 b8 ff ff ff ff ff 	movabs $0x7fffffffffffffff,%rax
    8866:	ff ff 7f 
    8869:	48 2b 45 f0          	sub    -0x10(%rbp),%rax
    886d:	48 39 45 f8          	cmp    %rax,-0x8(%rbp)
    8871:	7f 2f                	jg     88a2 <safe_add_func_int64_t_s_s+0x61>
    8873:	48 83 7d f8 00       	cmpq   $0x0,-0x8(%rbp)
    8878:	79 1b                	jns    8895 <safe_add_func_int64_t_s_s+0x54>
    887a:	48 83 7d f0 00       	cmpq   $0x0,-0x10(%rbp)
    887f:	79 14                	jns    8895 <safe_add_func_int64_t_s_s+0x54>
    8881:	48 b8 00 00 00 00 00 	movabs $0x8000000000000000,%rax
    8888:	00 00 80 
    888b:	48 2b 45 f0          	sub    -0x10(%rbp),%rax
    888f:	48 39 45 f8          	cmp    %rax,-0x8(%rbp)
    8893:	7c 0d                	jl     88a2 <safe_add_func_int64_t_s_s+0x61>
    8895:	48 8b 55 f8          	mov    -0x8(%rbp),%rdx
    8899:	48 8b 45 f0          	mov    -0x10(%rbp),%rax
    889d:	48 01 d0             	add    %rdx,%rax
    88a0:	eb 04                	jmp    88a6 <safe_add_func_int64_t_s_s+0x65>
    88a2:	48 8b 45 f8          	mov    -0x8(%rbp),%rax
    88a6:	5d                   	pop    %rbp
    88a7:	c3                   	retq   

00000000000088a8 <safe_sub_func_int64_t_s_s>:
    88a8:	f3 0f 1e fa          	endbr64 
    88ac:	55                   	push   %rbp
    88ad:	48 89 e5             	mov    %rsp,%rbp
    88b0:	48 89 7d f8          	mov    %rdi,-0x8(%rbp)
    88b4:	48 89 75 f0          	mov    %rsi,-0x10(%rbp)
    88b8:	48 8b 45 f8          	mov    -0x8(%rbp),%rax
    88bc:	48 33 45 f0          	xor    -0x10(%rbp),%rax
    88c0:	48 89 c2             	mov    %rax,%rdx
    88c3:	48 8b 45 f8          	mov    -0x8(%rbp),%rax
    88c7:	48 33 45 f0          	xor    -0x10(%rbp),%rax
    88cb:	48 b9 00 00 00 00 00 	movabs $0x8000000000000000,%rcx
    88d2:	00 00 80 
    88d5:	48 21 c8             	and    %rcx,%rax
    88d8:	48 33 45 f8          	xor    -0x8(%rbp),%rax
    88dc:	48 2b 45 f0          	sub    -0x10(%rbp),%rax
    88e0:	48 33 45 f0          	xor    -0x10(%rbp),%rax
    88e4:	48 21 d0             	and    %rdx,%rax
    88e7:	48 85 c0             	test   %rax,%rax
    88ea:	78 0a                	js     88f6 <safe_sub_func_int64_t_s_s+0x4e>
    88ec:	48 8b 45 f8          	mov    -0x8(%rbp),%rax
    88f0:	48 2b 45 f0          	sub    -0x10(%rbp),%rax
    88f4:	eb 04                	jmp    88fa <safe_sub_func_int64_t_s_s+0x52>
    88f6:	48 8b 45 f8          	mov    -0x8(%rbp),%rax
    88fa:	5d                   	pop    %rbp
    88fb:	c3                   	retq   

00000000000088fc <safe_mul_func_int64_t_s_s>:
    88fc:	f3 0f 1e fa          	endbr64 
    8900:	55                   	push   %rbp
    8901:	48 89 e5             	mov    %rsp,%rbp
    8904:	48 89 7d f8          	mov    %rdi,-0x8(%rbp)
    8908:	48 89 75 f0          	mov    %rsi,-0x10(%rbp)
    890c:	48 83 7d f8 00       	cmpq   $0x0,-0x8(%rbp)
    8911:	7e 1d                	jle    8930 <safe_mul_func_int64_t_s_s+0x34>
    8913:	48 83 7d f0 00       	cmpq   $0x0,-0x10(%rbp)
    8918:	7e 16                	jle    8930 <safe_mul_func_int64_t_s_s+0x34>
    891a:	48 b8 ff ff ff ff ff 	movabs $0x7fffffffffffffff,%rax
    8921:	ff ff 7f 
    8924:	48 99                	cqto   
    8926:	48 f7 7d f0          	idivq  -0x10(%rbp)
    892a:	48 39 45 f8          	cmp    %rax,-0x8(%rbp)
    892e:	7f 7e                	jg     89ae <safe_mul_func_int64_t_s_s+0xb2>
    8930:	48 83 7d f8 00       	cmpq   $0x0,-0x8(%rbp)
    8935:	7e 1d                	jle    8954 <safe_mul_func_int64_t_s_s+0x58>
    8937:	48 83 7d f0 00       	cmpq   $0x0,-0x10(%rbp)
    893c:	7f 16                	jg     8954 <safe_mul_func_int64_t_s_s+0x58>
    893e:	48 b8 00 00 00 00 00 	movabs $0x8000000000000000,%rax
    8945:	00 00 80 
    8948:	48 99                	cqto   
    894a:	48 f7 7d f8          	idivq  -0x8(%rbp)
    894e:	48 39 45 f0          	cmp    %rax,-0x10(%rbp)
    8952:	7c 5a                	jl     89ae <safe_mul_func_int64_t_s_s+0xb2>
    8954:	48 83 7d f8 00       	cmpq   $0x0,-0x8(%rbp)
    8959:	7f 1d                	jg     8978 <safe_mul_func_int64_t_s_s+0x7c>
    895b:	48 83 7d f0 00       	cmpq   $0x0,-0x10(%rbp)
    8960:	7e 16                	jle    8978 <safe_mul_func_int64_t_s_s+0x7c>
    8962:	48 b8 00 00 00 00 00 	movabs $0x8000000000000000,%rax
    8969:	00 00 80 
    896c:	48 99                	cqto   
    896e:	48 f7 7d f0          	idivq  -0x10(%rbp)
    8972:	48 39 45 f8          	cmp    %rax,-0x8(%rbp)
    8976:	7c 36                	jl     89ae <safe_mul_func_int64_t_s_s+0xb2>
    8978:	48 83 7d f8 00       	cmpq   $0x0,-0x8(%rbp)
    897d:	7f 24                	jg     89a3 <safe_mul_func_int64_t_s_s+0xa7>
    897f:	48 83 7d f0 00       	cmpq   $0x0,-0x10(%rbp)
    8984:	7f 1d                	jg     89a3 <safe_mul_func_int64_t_s_s+0xa7>
    8986:	48 83 7d f8 00       	cmpq   $0x0,-0x8(%rbp)
    898b:	74 16                	je     89a3 <safe_mul_func_int64_t_s_s+0xa7>
    898d:	48 b8 ff ff ff ff ff 	movabs $0x7fffffffffffffff,%rax
    8994:	ff ff 7f 
    8997:	48 99                	cqto   
    8999:	48 f7 7d f8          	idivq  -0x8(%rbp)
    899d:	48 39 45 f0          	cmp    %rax,-0x10(%rbp)
    89a1:	7c 0b                	jl     89ae <safe_mul_func_int64_t_s_s+0xb2>
    89a3:	48 8b 45 f8          	mov    -0x8(%rbp),%rax
    89a7:	48 0f af 45 f0       	imul   -0x10(%rbp),%rax
    89ac:	eb 04                	jmp    89b2 <safe_mul_func_int64_t_s_s+0xb6>
    89ae:	48 8b 45 f8          	mov    -0x8(%rbp),%rax
    89b2:	5d                   	pop    %rbp
    89b3:	c3                   	retq   

00000000000089b4 <safe_mod_func_int64_t_s_s>:
    89b4:	f3 0f 1e fa          	endbr64 
    89b8:	55                   	push   %rbp
    89b9:	48 89 e5             	mov    %rsp,%rbp
    89bc:	48 89 7d f8          	mov    %rdi,-0x8(%rbp)
    89c0:	48 89 75 f0          	mov    %rsi,-0x10(%rbp)
    89c4:	48 83 7d f0 00       	cmpq   $0x0,-0x10(%rbp)
    89c9:	74 26                	je     89f1 <safe_mod_func_int64_t_s_s+0x3d>
    89cb:	48 b8 00 00 00 00 00 	movabs $0x8000000000000000,%rax
    89d2:	00 00 80 
    89d5:	48 39 45 f8          	cmp    %rax,-0x8(%rbp)
    89d9:	75 07                	jne    89e2 <safe_mod_func_int64_t_s_s+0x2e>
    89db:	48 83 7d f0 ff       	cmpq   $0xffffffffffffffff,-0x10(%rbp)
    89e0:	74 0f                	je     89f1 <safe_mod_func_int64_t_s_s+0x3d>
    89e2:	48 8b 45 f8          	mov    -0x8(%rbp),%rax
    89e6:	48 99                	cqto   
    89e8:	48 f7 7d f0          	idivq  -0x10(%rbp)
    89ec:	48 89 d0             	mov    %rdx,%rax
    89ef:	eb 04                	jmp    89f5 <safe_mod_func_int64_t_s_s+0x41>
    89f1:	48 8b 45 f8          	mov    -0x8(%rbp),%rax
    89f5:	5d                   	pop    %rbp
    89f6:	c3                   	retq   

00000000000089f7 <safe_div_func_int64_t_s_s>:
    89f7:	f3 0f 1e fa          	endbr64 
    89fb:	55                   	push   %rbp
    89fc:	48 89 e5             	mov    %rsp,%rbp
    89ff:	48 89 7d f8          	mov    %rdi,-0x8(%rbp)
    8a03:	48 89 75 f0          	mov    %rsi,-0x10(%rbp)
    8a07:	48 83 7d f0 00       	cmpq   $0x0,-0x10(%rbp)
    8a0c:	74 23                	je     8a31 <safe_div_func_int64_t_s_s+0x3a>
    8a0e:	48 b8 00 00 00 00 00 	movabs $0x8000000000000000,%rax
    8a15:	00 00 80 
    8a18:	48 39 45 f8          	cmp    %rax,-0x8(%rbp)
    8a1c:	75 07                	jne    8a25 <safe_div_func_int64_t_s_s+0x2e>
    8a1e:	48 83 7d f0 ff       	cmpq   $0xffffffffffffffff,-0x10(%rbp)
    8a23:	74 0c                	je     8a31 <safe_div_func_int64_t_s_s+0x3a>
    8a25:	48 8b 45 f8          	mov    -0x8(%rbp),%rax
    8a29:	48 99                	cqto   
    8a2b:	48 f7 7d f0          	idivq  -0x10(%rbp)
    8a2f:	eb 04                	jmp    8a35 <safe_div_func_int64_t_s_s+0x3e>
    8a31:	48 8b 45 f8          	mov    -0x8(%rbp),%rax
    8a35:	5d                   	pop    %rbp
    8a36:	c3                   	retq   

0000000000008a37 <safe_lshift_func_int64_t_s_s>:
    8a37:	f3 0f 1e fa          	endbr64 
    8a3b:	55                   	push   %rbp
    8a3c:	48 89 e5             	mov    %rsp,%rbp
    8a3f:	48 89 7d f8          	mov    %rdi,-0x8(%rbp)
    8a43:	89 75 f4             	mov    %esi,-0xc(%rbp)
    8a46:	48 83 7d f8 00       	cmpq   $0x0,-0x8(%rbp)
    8a4b:	78 38                	js     8a85 <safe_lshift_func_int64_t_s_s+0x4e>
    8a4d:	83 7d f4 00          	cmpl   $0x0,-0xc(%rbp)
    8a51:	78 32                	js     8a85 <safe_lshift_func_int64_t_s_s+0x4e>
    8a53:	83 7d f4 1f          	cmpl   $0x1f,-0xc(%rbp)
    8a57:	7f 2c                	jg     8a85 <safe_lshift_func_int64_t_s_s+0x4e>
    8a59:	8b 45 f4             	mov    -0xc(%rbp),%eax
    8a5c:	48 ba ff ff ff ff ff 	movabs $0x7fffffffffffffff,%rdx
    8a63:	ff ff 7f 
    8a66:	89 c1                	mov    %eax,%ecx
    8a68:	48 d3 fa             	sar    %cl,%rdx
    8a6b:	48 89 d0             	mov    %rdx,%rax
    8a6e:	48 39 45 f8          	cmp    %rax,-0x8(%rbp)
    8a72:	7f 11                	jg     8a85 <safe_lshift_func_int64_t_s_s+0x4e>
    8a74:	8b 45 f4             	mov    -0xc(%rbp),%eax
    8a77:	48 8b 55 f8          	mov    -0x8(%rbp),%rdx
    8a7b:	89 c1                	mov    %eax,%ecx
    8a7d:	48 d3 e2             	shl    %cl,%rdx
    8a80:	48 89 d0             	mov    %rdx,%rax
    8a83:	eb 04                	jmp    8a89 <safe_lshift_func_int64_t_s_s+0x52>
    8a85:	48 8b 45 f8          	mov    -0x8(%rbp),%rax
    8a89:	5d                   	pop    %rbp
    8a8a:	c3                   	retq   

0000000000008a8b <safe_lshift_func_int64_t_s_u>:
    8a8b:	f3 0f 1e fa          	endbr64 
    8a8f:	55                   	push   %rbp
    8a90:	48 89 e5             	mov    %rsp,%rbp
    8a93:	48 89 7d f8          	mov    %rdi,-0x8(%rbp)
    8a97:	89 75 f4             	mov    %esi,-0xc(%rbp)
    8a9a:	48 83 7d f8 00       	cmpq   $0x0,-0x8(%rbp)
    8a9f:	78 32                	js     8ad3 <safe_lshift_func_int64_t_s_u+0x48>
    8aa1:	83 7d f4 1f          	cmpl   $0x1f,-0xc(%rbp)
    8aa5:	77 2c                	ja     8ad3 <safe_lshift_func_int64_t_s_u+0x48>
    8aa7:	8b 45 f4             	mov    -0xc(%rbp),%eax
    8aaa:	48 ba ff ff ff ff ff 	movabs $0x7fffffffffffffff,%rdx
    8ab1:	ff ff 7f 
    8ab4:	89 c1                	mov    %eax,%ecx
    8ab6:	48 d3 fa             	sar    %cl,%rdx
    8ab9:	48 89 d0             	mov    %rdx,%rax
    8abc:	48 39 45 f8          	cmp    %rax,-0x8(%rbp)
    8ac0:	7f 11                	jg     8ad3 <safe_lshift_func_int64_t_s_u+0x48>
    8ac2:	8b 45 f4             	mov    -0xc(%rbp),%eax
    8ac5:	48 8b 55 f8          	mov    -0x8(%rbp),%rdx
    8ac9:	89 c1                	mov    %eax,%ecx
    8acb:	48 d3 e2             	shl    %cl,%rdx
    8ace:	48 89 d0             	mov    %rdx,%rax
    8ad1:	eb 04                	jmp    8ad7 <safe_lshift_func_int64_t_s_u+0x4c>
    8ad3:	48 8b 45 f8          	mov    -0x8(%rbp),%rax
    8ad7:	5d                   	pop    %rbp
    8ad8:	c3                   	retq   

0000000000008ad9 <safe_rshift_func_int64_t_s_s>:
    8ad9:	f3 0f 1e fa          	endbr64 
    8add:	55                   	push   %rbp
    8ade:	48 89 e5             	mov    %rsp,%rbp
    8ae1:	48 89 7d f8          	mov    %rdi,-0x8(%rbp)
    8ae5:	89 75 f4             	mov    %esi,-0xc(%rbp)
    8ae8:	48 83 7d f8 00       	cmpq   $0x0,-0x8(%rbp)
    8aed:	78 1d                	js     8b0c <safe_rshift_func_int64_t_s_s+0x33>
    8aef:	83 7d f4 00          	cmpl   $0x0,-0xc(%rbp)
    8af3:	78 17                	js     8b0c <safe_rshift_func_int64_t_s_s+0x33>
    8af5:	83 7d f4 1f          	cmpl   $0x1f,-0xc(%rbp)
    8af9:	7f 11                	jg     8b0c <safe_rshift_func_int64_t_s_s+0x33>
    8afb:	8b 45 f4             	mov    -0xc(%rbp),%eax
    8afe:	48 8b 55 f8          	mov    -0x8(%rbp),%rdx
    8b02:	89 c1                	mov    %eax,%ecx
    8b04:	48 d3 fa             	sar    %cl,%rdx
    8b07:	48 89 d0             	mov    %rdx,%rax
    8b0a:	eb 04                	jmp    8b10 <safe_rshift_func_int64_t_s_s+0x37>
    8b0c:	48 8b 45 f8          	mov    -0x8(%rbp),%rax
    8b10:	5d                   	pop    %rbp
    8b11:	c3                   	retq   

0000000000008b12 <safe_rshift_func_int64_t_s_u>:
    8b12:	f3 0f 1e fa          	endbr64 
    8b16:	55                   	push   %rbp
    8b17:	48 89 e5             	mov    %rsp,%rbp
    8b1a:	48 89 7d f8          	mov    %rdi,-0x8(%rbp)
    8b1e:	89 75 f4             	mov    %esi,-0xc(%rbp)
    8b21:	48 83 7d f8 00       	cmpq   $0x0,-0x8(%rbp)
    8b26:	78 17                	js     8b3f <safe_rshift_func_int64_t_s_u+0x2d>
    8b28:	83 7d f4 1f          	cmpl   $0x1f,-0xc(%rbp)
    8b2c:	77 11                	ja     8b3f <safe_rshift_func_int64_t_s_u+0x2d>
    8b2e:	8b 45 f4             	mov    -0xc(%rbp),%eax
    8b31:	48 8b 55 f8          	mov    -0x8(%rbp),%rdx
    8b35:	89 c1                	mov    %eax,%ecx
    8b37:	48 d3 fa             	sar    %cl,%rdx
    8b3a:	48 89 d0             	mov    %rdx,%rax
    8b3d:	eb 04                	jmp    8b43 <safe_rshift_func_int64_t_s_u+0x31>
    8b3f:	48 8b 45 f8          	mov    -0x8(%rbp),%rax
    8b43:	5d                   	pop    %rbp
    8b44:	c3                   	retq   

0000000000008b45 <safe_unary_minus_func_uint8_t_u>:
    8b45:	f3 0f 1e fa          	endbr64 
    8b49:	55                   	push   %rbp
    8b4a:	48 89 e5             	mov    %rsp,%rbp
    8b4d:	89 f8                	mov    %edi,%eax
    8b4f:	88 45 fc             	mov    %al,-0x4(%rbp)
    8b52:	0f b6 45 fc          	movzbl -0x4(%rbp),%eax
    8b56:	f7 d8                	neg    %eax
    8b58:	5d                   	pop    %rbp
    8b59:	c3                   	retq   

0000000000008b5a <safe_add_func_uint8_t_u_u>:
    8b5a:	f3 0f 1e fa          	endbr64 
    8b5e:	55                   	push   %rbp
    8b5f:	48 89 e5             	mov    %rsp,%rbp
    8b62:	89 fa                	mov    %edi,%edx
    8b64:	89 f0                	mov    %esi,%eax
    8b66:	88 55 fc             	mov    %dl,-0x4(%rbp)
    8b69:	88 45 f8             	mov    %al,-0x8(%rbp)
    8b6c:	0f b6 55 fc          	movzbl -0x4(%rbp),%edx
    8b70:	0f b6 45 f8          	movzbl -0x8(%rbp),%eax
    8b74:	01 d0                	add    %edx,%eax
    8b76:	5d                   	pop    %rbp
    8b77:	c3                   	retq   

0000000000008b78 <safe_sub_func_uint8_t_u_u>:
    8b78:	f3 0f 1e fa          	endbr64 
    8b7c:	55                   	push   %rbp
    8b7d:	48 89 e5             	mov    %rsp,%rbp
    8b80:	89 fa                	mov    %edi,%edx
    8b82:	89 f0                	mov    %esi,%eax
    8b84:	88 55 fc             	mov    %dl,-0x4(%rbp)
    8b87:	88 45 f8             	mov    %al,-0x8(%rbp)
    8b8a:	0f b6 45 fc          	movzbl -0x4(%rbp),%eax
    8b8e:	2a 45 f8             	sub    -0x8(%rbp),%al
    8b91:	5d                   	pop    %rbp
    8b92:	c3                   	retq   

0000000000008b93 <safe_mul_func_uint8_t_u_u>:
    8b93:	f3 0f 1e fa          	endbr64 
    8b97:	55                   	push   %rbp
    8b98:	48 89 e5             	mov    %rsp,%rbp
    8b9b:	89 fa                	mov    %edi,%edx
    8b9d:	89 f0                	mov    %esi,%eax
    8b9f:	88 55 fc             	mov    %dl,-0x4(%rbp)
    8ba2:	88 45 f8             	mov    %al,-0x8(%rbp)
    8ba5:	0f b6 45 fc          	movzbl -0x4(%rbp),%eax
    8ba9:	f6 65 f8             	mulb   -0x8(%rbp)
    8bac:	5d                   	pop    %rbp
    8bad:	c3                   	retq   

0000000000008bae <safe_mod_func_uint8_t_u_u>:
    8bae:	f3 0f 1e fa          	endbr64 
    8bb2:	55                   	push   %rbp
    8bb3:	48 89 e5             	mov    %rsp,%rbp
    8bb6:	89 fa                	mov    %edi,%edx
    8bb8:	89 f0                	mov    %esi,%eax
    8bba:	88 55 fc             	mov    %dl,-0x4(%rbp)
    8bbd:	88 45 f8             	mov    %al,-0x8(%rbp)
    8bc0:	80 7d f8 00          	cmpb   $0x0,-0x8(%rbp)
    8bc4:	74 0f                	je     8bd5 <safe_mod_func_uint8_t_u_u+0x27>
    8bc6:	0f b6 45 fc          	movzbl -0x4(%rbp),%eax
    8bca:	0f b6 c0             	movzbl %al,%eax
    8bcd:	f6 75 f8             	divb   -0x8(%rbp)
    8bd0:	0f b6 c4             	movzbl %ah,%eax
    8bd3:	eb 04                	jmp    8bd9 <safe_mod_func_uint8_t_u_u+0x2b>
    8bd5:	0f b6 45 fc          	movzbl -0x4(%rbp),%eax
    8bd9:	5d                   	pop    %rbp
    8bda:	c3                   	retq   

0000000000008bdb <safe_div_func_uint8_t_u_u>:
    8bdb:	f3 0f 1e fa          	endbr64 
    8bdf:	55                   	push   %rbp
    8be0:	48 89 e5             	mov    %rsp,%rbp
    8be3:	89 fa                	mov    %edi,%edx
    8be5:	89 f0                	mov    %esi,%eax
    8be7:	88 55 fc             	mov    %dl,-0x4(%rbp)
    8bea:	88 45 f8             	mov    %al,-0x8(%rbp)
    8bed:	80 7d f8 00          	cmpb   $0x0,-0x8(%rbp)
    8bf1:	74 0c                	je     8bff <safe_div_func_uint8_t_u_u+0x24>
    8bf3:	0f b6 45 fc          	movzbl -0x4(%rbp),%eax
    8bf7:	0f b6 c0             	movzbl %al,%eax
    8bfa:	f6 75 f8             	divb   -0x8(%rbp)
    8bfd:	eb 04                	jmp    8c03 <safe_div_func_uint8_t_u_u+0x28>
    8bff:	0f b6 45 fc          	movzbl -0x4(%rbp),%eax
    8c03:	5d                   	pop    %rbp
    8c04:	c3                   	retq   

0000000000008c05 <safe_lshift_func_uint8_t_u_s>:
    8c05:	f3 0f 1e fa          	endbr64 
    8c09:	55                   	push   %rbp
    8c0a:	48 89 e5             	mov    %rsp,%rbp
    8c0d:	89 f8                	mov    %edi,%eax
    8c0f:	89 75 f8             	mov    %esi,-0x8(%rbp)
    8c12:	88 45 fc             	mov    %al,-0x4(%rbp)
    8c15:	83 7d f8 00          	cmpl   $0x0,-0x8(%rbp)
    8c19:	78 2b                	js     8c46 <safe_lshift_func_uint8_t_u_s+0x41>
    8c1b:	83 7d f8 1f          	cmpl   $0x1f,-0x8(%rbp)
    8c1f:	7f 25                	jg     8c46 <safe_lshift_func_uint8_t_u_s+0x41>
    8c21:	0f b6 55 fc          	movzbl -0x4(%rbp),%edx
    8c25:	8b 45 f8             	mov    -0x8(%rbp),%eax
    8c28:	be ff 00 00 00       	mov    $0xff,%esi
    8c2d:	89 c1                	mov    %eax,%ecx
    8c2f:	d3 fe                	sar    %cl,%esi
    8c31:	89 f0                	mov    %esi,%eax
    8c33:	39 c2                	cmp    %eax,%edx
    8c35:	7f 0f                	jg     8c46 <safe_lshift_func_uint8_t_u_s+0x41>
    8c37:	0f b6 55 fc          	movzbl -0x4(%rbp),%edx
    8c3b:	8b 45 f8             	mov    -0x8(%rbp),%eax
    8c3e:	89 c1                	mov    %eax,%ecx
    8c40:	d3 e2                	shl    %cl,%edx
    8c42:	89 d0                	mov    %edx,%eax
    8c44:	eb 04                	jmp    8c4a <safe_lshift_func_uint8_t_u_s+0x45>
    8c46:	0f b6 45 fc          	movzbl -0x4(%rbp),%eax
    8c4a:	5d                   	pop    %rbp
    8c4b:	c3                   	retq   

0000000000008c4c <safe_lshift_func_uint8_t_u_u>:
    8c4c:	f3 0f 1e fa          	endbr64 
    8c50:	55                   	push   %rbp
    8c51:	48 89 e5             	mov    %rsp,%rbp
    8c54:	89 f8                	mov    %edi,%eax
    8c56:	89 75 f8             	mov    %esi,-0x8(%rbp)
    8c59:	88 45 fc             	mov    %al,-0x4(%rbp)
    8c5c:	83 7d f8 1f          	cmpl   $0x1f,-0x8(%rbp)
    8c60:	77 25                	ja     8c87 <safe_lshift_func_uint8_t_u_u+0x3b>
    8c62:	0f b6 55 fc          	movzbl -0x4(%rbp),%edx
    8c66:	8b 45 f8             	mov    -0x8(%rbp),%eax
    8c69:	be ff 00 00 00       	mov    $0xff,%esi
    8c6e:	89 c1                	mov    %eax,%ecx
    8c70:	d3 fe                	sar    %cl,%esi
    8c72:	89 f0                	mov    %esi,%eax
    8c74:	39 c2                	cmp    %eax,%edx
    8c76:	7f 0f                	jg     8c87 <safe_lshift_func_uint8_t_u_u+0x3b>
    8c78:	0f b6 55 fc          	movzbl -0x4(%rbp),%edx
    8c7c:	8b 45 f8             	mov    -0x8(%rbp),%eax
    8c7f:	89 c1                	mov    %eax,%ecx
    8c81:	d3 e2                	shl    %cl,%edx
    8c83:	89 d0                	mov    %edx,%eax
    8c85:	eb 04                	jmp    8c8b <safe_lshift_func_uint8_t_u_u+0x3f>
    8c87:	0f b6 45 fc          	movzbl -0x4(%rbp),%eax
    8c8b:	5d                   	pop    %rbp
    8c8c:	c3                   	retq   

0000000000008c8d <safe_rshift_func_uint8_t_u_s>:
    8c8d:	f3 0f 1e fa          	endbr64 
    8c91:	55                   	push   %rbp
    8c92:	48 89 e5             	mov    %rsp,%rbp
    8c95:	89 f8                	mov    %edi,%eax
    8c97:	89 75 f8             	mov    %esi,-0x8(%rbp)
    8c9a:	88 45 fc             	mov    %al,-0x4(%rbp)
    8c9d:	83 7d f8 00          	cmpl   $0x0,-0x8(%rbp)
    8ca1:	78 15                	js     8cb8 <safe_rshift_func_uint8_t_u_s+0x2b>
    8ca3:	83 7d f8 1f          	cmpl   $0x1f,-0x8(%rbp)
    8ca7:	7f 0f                	jg     8cb8 <safe_rshift_func_uint8_t_u_s+0x2b>
    8ca9:	0f b6 55 fc          	movzbl -0x4(%rbp),%edx
    8cad:	8b 45 f8             	mov    -0x8(%rbp),%eax
    8cb0:	89 c1                	mov    %eax,%ecx
    8cb2:	d3 fa                	sar    %cl,%edx
    8cb4:	89 d0                	mov    %edx,%eax
    8cb6:	eb 04                	jmp    8cbc <safe_rshift_func_uint8_t_u_s+0x2f>
    8cb8:	0f b6 45 fc          	movzbl -0x4(%rbp),%eax
    8cbc:	5d                   	pop    %rbp
    8cbd:	c3                   	retq   

0000000000008cbe <safe_rshift_func_uint8_t_u_u>:
    8cbe:	f3 0f 1e fa          	endbr64 
    8cc2:	55                   	push   %rbp
    8cc3:	48 89 e5             	mov    %rsp,%rbp
    8cc6:	89 f8                	mov    %edi,%eax
    8cc8:	89 75 f8             	mov    %esi,-0x8(%rbp)
    8ccb:	88 45 fc             	mov    %al,-0x4(%rbp)
    8cce:	83 7d f8 1f          	cmpl   $0x1f,-0x8(%rbp)
    8cd2:	77 0f                	ja     8ce3 <safe_rshift_func_uint8_t_u_u+0x25>
    8cd4:	0f b6 55 fc          	movzbl -0x4(%rbp),%edx
    8cd8:	8b 45 f8             	mov    -0x8(%rbp),%eax
    8cdb:	89 c1                	mov    %eax,%ecx
    8cdd:	d3 fa                	sar    %cl,%edx
    8cdf:	89 d0                	mov    %edx,%eax
    8ce1:	eb 04                	jmp    8ce7 <safe_rshift_func_uint8_t_u_u+0x29>
    8ce3:	0f b6 45 fc          	movzbl -0x4(%rbp),%eax
    8ce7:	5d                   	pop    %rbp
    8ce8:	c3                   	retq   

0000000000008ce9 <safe_unary_minus_func_uint16_t_u>:
    8ce9:	f3 0f 1e fa          	endbr64 
    8ced:	55                   	push   %rbp
    8cee:	48 89 e5             	mov    %rsp,%rbp
    8cf1:	89 f8                	mov    %edi,%eax
    8cf3:	66 89 45 fc          	mov    %ax,-0x4(%rbp)
    8cf7:	0f b7 45 fc          	movzwl -0x4(%rbp),%eax
    8cfb:	f7 d8                	neg    %eax
    8cfd:	5d                   	pop    %rbp
    8cfe:	c3                   	retq   

0000000000008cff <safe_add_func_uint16_t_u_u>:
    8cff:	f3 0f 1e fa          	endbr64 
    8d03:	55                   	push   %rbp
    8d04:	48 89 e5             	mov    %rsp,%rbp
    8d07:	89 fa                	mov    %edi,%edx
    8d09:	89 f0                	mov    %esi,%eax
    8d0b:	66 89 55 fc          	mov    %dx,-0x4(%rbp)
    8d0f:	66 89 45 f8          	mov    %ax,-0x8(%rbp)
    8d13:	0f b7 55 fc          	movzwl -0x4(%rbp),%edx
    8d17:	0f b7 45 f8          	movzwl -0x8(%rbp),%eax
    8d1b:	01 d0                	add    %edx,%eax
    8d1d:	5d                   	pop    %rbp
    8d1e:	c3                   	retq   

0000000000008d1f <safe_sub_func_uint16_t_u_u>:
    8d1f:	f3 0f 1e fa          	endbr64 
    8d23:	55                   	push   %rbp
    8d24:	48 89 e5             	mov    %rsp,%rbp
    8d27:	89 fa                	mov    %edi,%edx
    8d29:	89 f0                	mov    %esi,%eax
    8d2b:	66 89 55 fc          	mov    %dx,-0x4(%rbp)
    8d2f:	66 89 45 f8          	mov    %ax,-0x8(%rbp)
    8d33:	0f b7 45 fc          	movzwl -0x4(%rbp),%eax
    8d37:	66 2b 45 f8          	sub    -0x8(%rbp),%ax
    8d3b:	5d                   	pop    %rbp
    8d3c:	c3                   	retq   

0000000000008d3d <safe_mul_func_uint16_t_u_u>:
    8d3d:	f3 0f 1e fa          	endbr64 
    8d41:	55                   	push   %rbp
    8d42:	48 89 e5             	mov    %rsp,%rbp
    8d45:	89 fa                	mov    %edi,%edx
    8d47:	89 f0                	mov    %esi,%eax
    8d49:	66 89 55 fc          	mov    %dx,-0x4(%rbp)
    8d4d:	66 89 45 f8          	mov    %ax,-0x8(%rbp)
    8d51:	0f b7 45 fc          	movzwl -0x4(%rbp),%eax
    8d55:	66 0f af 45 f8       	imul   -0x8(%rbp),%ax
    8d5a:	5d                   	pop    %rbp
    8d5b:	c3                   	retq   

0000000000008d5c <safe_mod_func_uint16_t_u_u>:
    8d5c:	f3 0f 1e fa          	endbr64 
    8d60:	55                   	push   %rbp
    8d61:	48 89 e5             	mov    %rsp,%rbp
    8d64:	89 fa                	mov    %edi,%edx
    8d66:	89 f0                	mov    %esi,%eax
    8d68:	66 89 55 fc          	mov    %dx,-0x4(%rbp)
    8d6c:	66 89 45 f8          	mov    %ax,-0x8(%rbp)
    8d70:	66 83 7d f8 00       	cmpw   $0x0,-0x8(%rbp)
    8d75:	74 11                	je     8d88 <safe_mod_func_uint16_t_u_u+0x2c>
    8d77:	0f b7 45 fc          	movzwl -0x4(%rbp),%eax
    8d7b:	ba 00 00 00 00       	mov    $0x0,%edx
    8d80:	66 f7 75 f8          	divw   -0x8(%rbp)
    8d84:	89 d0                	mov    %edx,%eax
    8d86:	eb 04                	jmp    8d8c <safe_mod_func_uint16_t_u_u+0x30>
    8d88:	0f b7 45 fc          	movzwl -0x4(%rbp),%eax
    8d8c:	5d                   	pop    %rbp
    8d8d:	c3                   	retq   

0000000000008d8e <safe_div_func_uint16_t_u_u>:
    8d8e:	f3 0f 1e fa          	endbr64 
    8d92:	55                   	push   %rbp
    8d93:	48 89 e5             	mov    %rsp,%rbp
    8d96:	89 fa                	mov    %edi,%edx
    8d98:	89 f0                	mov    %esi,%eax
    8d9a:	66 89 55 fc          	mov    %dx,-0x4(%rbp)
    8d9e:	66 89 45 f8          	mov    %ax,-0x8(%rbp)
    8da2:	66 83 7d f8 00       	cmpw   $0x0,-0x8(%rbp)
    8da7:	74 0f                	je     8db8 <safe_div_func_uint16_t_u_u+0x2a>
    8da9:	0f b7 45 fc          	movzwl -0x4(%rbp),%eax
    8dad:	ba 00 00 00 00       	mov    $0x0,%edx
    8db2:	66 f7 75 f8          	divw   -0x8(%rbp)
    8db6:	eb 04                	jmp    8dbc <safe_div_func_uint16_t_u_u+0x2e>
    8db8:	0f b7 45 fc          	movzwl -0x4(%rbp),%eax
    8dbc:	5d                   	pop    %rbp
    8dbd:	c3                   	retq   

0000000000008dbe <safe_lshift_func_uint16_t_u_s>:
    8dbe:	f3 0f 1e fa          	endbr64 
    8dc2:	55                   	push   %rbp
    8dc3:	48 89 e5             	mov    %rsp,%rbp
    8dc6:	89 f8                	mov    %edi,%eax
    8dc8:	89 75 f8             	mov    %esi,-0x8(%rbp)
    8dcb:	66 89 45 fc          	mov    %ax,-0x4(%rbp)
    8dcf:	83 7d f8 00          	cmpl   $0x0,-0x8(%rbp)
    8dd3:	78 2b                	js     8e00 <safe_lshift_func_uint16_t_u_s+0x42>
    8dd5:	83 7d f8 1f          	cmpl   $0x1f,-0x8(%rbp)
    8dd9:	7f 25                	jg     8e00 <safe_lshift_func_uint16_t_u_s+0x42>
    8ddb:	0f b7 55 fc          	movzwl -0x4(%rbp),%edx
    8ddf:	8b 45 f8             	mov    -0x8(%rbp),%eax
    8de2:	be ff ff 00 00       	mov    $0xffff,%esi
    8de7:	89 c1                	mov    %eax,%ecx
    8de9:	d3 fe                	sar    %cl,%esi
    8deb:	89 f0                	mov    %esi,%eax
    8ded:	39 c2                	cmp    %eax,%edx
    8def:	7f 0f                	jg     8e00 <safe_lshift_func_uint16_t_u_s+0x42>
    8df1:	0f b7 55 fc          	movzwl -0x4(%rbp),%edx
    8df5:	8b 45 f8             	mov    -0x8(%rbp),%eax
    8df8:	89 c1                	mov    %eax,%ecx
    8dfa:	d3 e2                	shl    %cl,%edx
    8dfc:	89 d0                	mov    %edx,%eax
    8dfe:	eb 04                	jmp    8e04 <safe_lshift_func_uint16_t_u_s+0x46>
    8e00:	0f b7 45 fc          	movzwl -0x4(%rbp),%eax
    8e04:	5d                   	pop    %rbp
    8e05:	c3                   	retq   

0000000000008e06 <safe_lshift_func_uint16_t_u_u>:
    8e06:	f3 0f 1e fa          	endbr64 
    8e0a:	55                   	push   %rbp
    8e0b:	48 89 e5             	mov    %rsp,%rbp
    8e0e:	89 f8                	mov    %edi,%eax
    8e10:	89 75 f8             	mov    %esi,-0x8(%rbp)
    8e13:	66 89 45 fc          	mov    %ax,-0x4(%rbp)
    8e17:	83 7d f8 1f          	cmpl   $0x1f,-0x8(%rbp)
    8e1b:	77 25                	ja     8e42 <safe_lshift_func_uint16_t_u_u+0x3c>
    8e1d:	0f b7 55 fc          	movzwl -0x4(%rbp),%edx
    8e21:	8b 45 f8             	mov    -0x8(%rbp),%eax
    8e24:	be ff ff 00 00       	mov    $0xffff,%esi
    8e29:	89 c1                	mov    %eax,%ecx
    8e2b:	d3 fe                	sar    %cl,%esi
    8e2d:	89 f0                	mov    %esi,%eax
    8e2f:	39 c2                	cmp    %eax,%edx
    8e31:	7f 0f                	jg     8e42 <safe_lshift_func_uint16_t_u_u+0x3c>
    8e33:	0f b7 55 fc          	movzwl -0x4(%rbp),%edx
    8e37:	8b 45 f8             	mov    -0x8(%rbp),%eax
    8e3a:	89 c1                	mov    %eax,%ecx
    8e3c:	d3 e2                	shl    %cl,%edx
    8e3e:	89 d0                	mov    %edx,%eax
    8e40:	eb 04                	jmp    8e46 <safe_lshift_func_uint16_t_u_u+0x40>
    8e42:	0f b7 45 fc          	movzwl -0x4(%rbp),%eax
    8e46:	5d                   	pop    %rbp
    8e47:	c3                   	retq   

0000000000008e48 <safe_rshift_func_uint16_t_u_s>:
    8e48:	f3 0f 1e fa          	endbr64 
    8e4c:	55                   	push   %rbp
    8e4d:	48 89 e5             	mov    %rsp,%rbp
    8e50:	89 f8                	mov    %edi,%eax
    8e52:	89 75 f8             	mov    %esi,-0x8(%rbp)
    8e55:	66 89 45 fc          	mov    %ax,-0x4(%rbp)
    8e59:	83 7d f8 00          	cmpl   $0x0,-0x8(%rbp)
    8e5d:	78 15                	js     8e74 <safe_rshift_func_uint16_t_u_s+0x2c>
    8e5f:	83 7d f8 1f          	cmpl   $0x1f,-0x8(%rbp)
    8e63:	7f 0f                	jg     8e74 <safe_rshift_func_uint16_t_u_s+0x2c>
    8e65:	0f b7 55 fc          	movzwl -0x4(%rbp),%edx
    8e69:	8b 45 f8             	mov    -0x8(%rbp),%eax
    8e6c:	89 c1                	mov    %eax,%ecx
    8e6e:	d3 fa                	sar    %cl,%edx
    8e70:	89 d0                	mov    %edx,%eax
    8e72:	eb 04                	jmp    8e78 <safe_rshift_func_uint16_t_u_s+0x30>
    8e74:	0f b7 45 fc          	movzwl -0x4(%rbp),%eax
    8e78:	5d                   	pop    %rbp
    8e79:	c3                   	retq   

0000000000008e7a <safe_rshift_func_uint16_t_u_u>:
    8e7a:	f3 0f 1e fa          	endbr64 
    8e7e:	55                   	push   %rbp
    8e7f:	48 89 e5             	mov    %rsp,%rbp
    8e82:	89 f8                	mov    %edi,%eax
    8e84:	89 75 f8             	mov    %esi,-0x8(%rbp)
    8e87:	66 89 45 fc          	mov    %ax,-0x4(%rbp)
    8e8b:	83 7d f8 1f          	cmpl   $0x1f,-0x8(%rbp)
    8e8f:	77 0f                	ja     8ea0 <safe_rshift_func_uint16_t_u_u+0x26>
    8e91:	0f b7 55 fc          	movzwl -0x4(%rbp),%edx
    8e95:	8b 45 f8             	mov    -0x8(%rbp),%eax
    8e98:	89 c1                	mov    %eax,%ecx
    8e9a:	d3 fa                	sar    %cl,%edx
    8e9c:	89 d0                	mov    %edx,%eax
    8e9e:	eb 04                	jmp    8ea4 <safe_rshift_func_uint16_t_u_u+0x2a>
    8ea0:	0f b7 45 fc          	movzwl -0x4(%rbp),%eax
    8ea4:	5d                   	pop    %rbp
    8ea5:	c3                   	retq   

0000000000008ea6 <safe_unary_minus_func_uint32_t_u>:
    8ea6:	f3 0f 1e fa          	endbr64 
    8eaa:	55                   	push   %rbp
    8eab:	48 89 e5             	mov    %rsp,%rbp
    8eae:	89 7d fc             	mov    %edi,-0x4(%rbp)
    8eb1:	8b 45 fc             	mov    -0x4(%rbp),%eax
    8eb4:	f7 d8                	neg    %eax
    8eb6:	5d                   	pop    %rbp
    8eb7:	c3                   	retq   

0000000000008eb8 <safe_add_func_uint32_t_u_u>:
    8eb8:	f3 0f 1e fa          	endbr64 
    8ebc:	55                   	push   %rbp
    8ebd:	48 89 e5             	mov    %rsp,%rbp
    8ec0:	89 7d fc             	mov    %edi,-0x4(%rbp)
    8ec3:	89 75 f8             	mov    %esi,-0x8(%rbp)
    8ec6:	8b 55 fc             	mov    -0x4(%rbp),%edx
    8ec9:	8b 45 f8             	mov    -0x8(%rbp),%eax
    8ecc:	01 d0                	add    %edx,%eax
    8ece:	5d                   	pop    %rbp
    8ecf:	c3                   	retq   

0000000000008ed0 <safe_sub_func_uint32_t_u_u>:
    8ed0:	f3 0f 1e fa          	endbr64 
    8ed4:	55                   	push   %rbp
    8ed5:	48 89 e5             	mov    %rsp,%rbp
    8ed8:	89 7d fc             	mov    %edi,-0x4(%rbp)
    8edb:	89 75 f8             	mov    %esi,-0x8(%rbp)
    8ede:	8b 45 fc             	mov    -0x4(%rbp),%eax
    8ee1:	2b 45 f8             	sub    -0x8(%rbp),%eax
    8ee4:	5d                   	pop    %rbp
    8ee5:	c3                   	retq   

0000000000008ee6 <safe_mul_func_uint32_t_u_u>:
    8ee6:	f3 0f 1e fa          	endbr64 
    8eea:	55                   	push   %rbp
    8eeb:	48 89 e5             	mov    %rsp,%rbp
    8eee:	89 7d fc             	mov    %edi,-0x4(%rbp)
    8ef1:	89 75 f8             	mov    %esi,-0x8(%rbp)
    8ef4:	8b 45 fc             	mov    -0x4(%rbp),%eax
    8ef7:	0f af 45 f8          	imul   -0x8(%rbp),%eax
    8efb:	5d                   	pop    %rbp
    8efc:	c3                   	retq   

0000000000008efd <safe_mod_func_uint32_t_u_u>:
    8efd:	f3 0f 1e fa          	endbr64 
    8f01:	55                   	push   %rbp
    8f02:	48 89 e5             	mov    %rsp,%rbp
    8f05:	89 7d fc             	mov    %edi,-0x4(%rbp)
    8f08:	89 75 f8             	mov    %esi,-0x8(%rbp)
    8f0b:	83 7d f8 00          	cmpl   $0x0,-0x8(%rbp)
    8f0f:	74 0f                	je     8f20 <safe_mod_func_uint32_t_u_u+0x23>
    8f11:	8b 45 fc             	mov    -0x4(%rbp),%eax
    8f14:	ba 00 00 00 00       	mov    $0x0,%edx
    8f19:	f7 75 f8             	divl   -0x8(%rbp)
    8f1c:	89 d0                	mov    %edx,%eax
    8f1e:	eb 03                	jmp    8f23 <safe_mod_func_uint32_t_u_u+0x26>
    8f20:	8b 45 fc             	mov    -0x4(%rbp),%eax
    8f23:	5d                   	pop    %rbp
    8f24:	c3                   	retq   

0000000000008f25 <safe_div_func_uint32_t_u_u>:
    8f25:	f3 0f 1e fa          	endbr64 
    8f29:	55                   	push   %rbp
    8f2a:	48 89 e5             	mov    %rsp,%rbp
    8f2d:	89 7d fc             	mov    %edi,-0x4(%rbp)
    8f30:	89 75 f8             	mov    %esi,-0x8(%rbp)
    8f33:	83 7d f8 00          	cmpl   $0x0,-0x8(%rbp)
    8f37:	74 0d                	je     8f46 <safe_div_func_uint32_t_u_u+0x21>
    8f39:	8b 45 fc             	mov    -0x4(%rbp),%eax
    8f3c:	ba 00 00 00 00       	mov    $0x0,%edx
    8f41:	f7 75 f8             	divl   -0x8(%rbp)
    8f44:	eb 03                	jmp    8f49 <safe_div_func_uint32_t_u_u+0x24>
    8f46:	8b 45 fc             	mov    -0x4(%rbp),%eax
    8f49:	5d                   	pop    %rbp
    8f4a:	c3                   	retq   

0000000000008f4b <safe_lshift_func_uint32_t_u_s>:
    8f4b:	f3 0f 1e fa          	endbr64 
    8f4f:	55                   	push   %rbp
    8f50:	48 89 e5             	mov    %rsp,%rbp
    8f53:	89 7d fc             	mov    %edi,-0x4(%rbp)
    8f56:	89 75 f8             	mov    %esi,-0x8(%rbp)
    8f59:	83 7d f8 00          	cmpl   $0x0,-0x8(%rbp)
    8f5d:	78 27                	js     8f86 <safe_lshift_func_uint32_t_u_s+0x3b>
    8f5f:	83 7d f8 1f          	cmpl   $0x1f,-0x8(%rbp)
    8f63:	7f 21                	jg     8f86 <safe_lshift_func_uint32_t_u_s+0x3b>
    8f65:	8b 45 f8             	mov    -0x8(%rbp),%eax
    8f68:	ba ff ff ff ff       	mov    $0xffffffff,%edx
    8f6d:	89 c1                	mov    %eax,%ecx
    8f6f:	d3 ea                	shr    %cl,%edx
    8f71:	89 d0                	mov    %edx,%eax
    8f73:	39 45 fc             	cmp    %eax,-0x4(%rbp)
    8f76:	77 0e                	ja     8f86 <safe_lshift_func_uint32_t_u_s+0x3b>
    8f78:	8b 45 f8             	mov    -0x8(%rbp),%eax
    8f7b:	8b 55 fc             	mov    -0x4(%rbp),%edx
    8f7e:	89 c1                	mov    %eax,%ecx
    8f80:	d3 e2                	shl    %cl,%edx
    8f82:	89 d0                	mov    %edx,%eax
    8f84:	eb 03                	jmp    8f89 <safe_lshift_func_uint32_t_u_s+0x3e>
    8f86:	8b 45 fc             	mov    -0x4(%rbp),%eax
    8f89:	5d                   	pop    %rbp
    8f8a:	c3                   	retq   

0000000000008f8b <safe_lshift_func_uint32_t_u_u>:
    8f8b:	f3 0f 1e fa          	endbr64 
    8f8f:	55                   	push   %rbp
    8f90:	48 89 e5             	mov    %rsp,%rbp
    8f93:	89 7d fc             	mov    %edi,-0x4(%rbp)
    8f96:	89 75 f8             	mov    %esi,-0x8(%rbp)
    8f99:	83 7d f8 1f          	cmpl   $0x1f,-0x8(%rbp)
    8f9d:	77 21                	ja     8fc0 <safe_lshift_func_uint32_t_u_u+0x35>
    8f9f:	8b 45 f8             	mov    -0x8(%rbp),%eax
    8fa2:	ba ff ff ff ff       	mov    $0xffffffff,%edx
    8fa7:	89 c1                	mov    %eax,%ecx
    8fa9:	d3 ea                	shr    %cl,%edx
    8fab:	89 d0                	mov    %edx,%eax
    8fad:	39 45 fc             	cmp    %eax,-0x4(%rbp)
    8fb0:	77 0e                	ja     8fc0 <safe_lshift_func_uint32_t_u_u+0x35>
    8fb2:	8b 45 f8             	mov    -0x8(%rbp),%eax
    8fb5:	8b 55 fc             	mov    -0x4(%rbp),%edx
    8fb8:	89 c1                	mov    %eax,%ecx
    8fba:	d3 e2                	shl    %cl,%edx
    8fbc:	89 d0                	mov    %edx,%eax
    8fbe:	eb 03                	jmp    8fc3 <safe_lshift_func_uint32_t_u_u+0x38>
    8fc0:	8b 45 fc             	mov    -0x4(%rbp),%eax
    8fc3:	5d                   	pop    %rbp
    8fc4:	c3                   	retq   

0000000000008fc5 <safe_rshift_func_uint32_t_u_s>:
    8fc5:	f3 0f 1e fa          	endbr64 
    8fc9:	55                   	push   %rbp
    8fca:	48 89 e5             	mov    %rsp,%rbp
    8fcd:	89 7d fc             	mov    %edi,-0x4(%rbp)
    8fd0:	89 75 f8             	mov    %esi,-0x8(%rbp)
    8fd3:	83 7d f8 00          	cmpl   $0x0,-0x8(%rbp)
    8fd7:	78 14                	js     8fed <safe_rshift_func_uint32_t_u_s+0x28>
    8fd9:	83 7d f8 1f          	cmpl   $0x1f,-0x8(%rbp)
    8fdd:	7f 0e                	jg     8fed <safe_rshift_func_uint32_t_u_s+0x28>
    8fdf:	8b 45 f8             	mov    -0x8(%rbp),%eax
    8fe2:	8b 55 fc             	mov    -0x4(%rbp),%edx
    8fe5:	89 c1                	mov    %eax,%ecx
    8fe7:	d3 ea                	shr    %cl,%edx
    8fe9:	89 d0                	mov    %edx,%eax
    8feb:	eb 03                	jmp    8ff0 <safe_rshift_func_uint32_t_u_s+0x2b>
    8fed:	8b 45 fc             	mov    -0x4(%rbp),%eax
    8ff0:	5d                   	pop    %rbp
    8ff1:	c3                   	retq   

0000000000008ff2 <safe_rshift_func_uint32_t_u_u>:
    8ff2:	f3 0f 1e fa          	endbr64 
    8ff6:	55                   	push   %rbp
    8ff7:	48 89 e5             	mov    %rsp,%rbp
    8ffa:	89 7d fc             	mov    %edi,-0x4(%rbp)
    8ffd:	89 75 f8             	mov    %esi,-0x8(%rbp)
    9000:	83 7d f8 1f          	cmpl   $0x1f,-0x8(%rbp)
    9004:	77 0e                	ja     9014 <safe_rshift_func_uint32_t_u_u+0x22>
    9006:	8b 45 f8             	mov    -0x8(%rbp),%eax
    9009:	8b 55 fc             	mov    -0x4(%rbp),%edx
    900c:	89 c1                	mov    %eax,%ecx
    900e:	d3 ea                	shr    %cl,%edx
    9010:	89 d0                	mov    %edx,%eax
    9012:	eb 03                	jmp    9017 <safe_rshift_func_uint32_t_u_u+0x25>
    9014:	8b 45 fc             	mov    -0x4(%rbp),%eax
    9017:	5d                   	pop    %rbp
    9018:	c3                   	retq   

0000000000009019 <safe_unary_minus_func_uint64_t_u>:
    9019:	f3 0f 1e fa          	endbr64 
    901d:	55                   	push   %rbp
    901e:	48 89 e5             	mov    %rsp,%rbp
    9021:	48 89 7d f8          	mov    %rdi,-0x8(%rbp)
    9025:	48 8b 45 f8          	mov    -0x8(%rbp),%rax
    9029:	48 f7 d8             	neg    %rax
    902c:	5d                   	pop    %rbp
    902d:	c3                   	retq   

000000000000902e <safe_add_func_uint64_t_u_u>:
    902e:	f3 0f 1e fa          	endbr64 
    9032:	55                   	push   %rbp
    9033:	48 89 e5             	mov    %rsp,%rbp
    9036:	48 89 7d f8          	mov    %rdi,-0x8(%rbp)
    903a:	48 89 75 f0          	mov    %rsi,-0x10(%rbp)
    903e:	48 8b 55 f8          	mov    -0x8(%rbp),%rdx
    9042:	48 8b 45 f0          	mov    -0x10(%rbp),%rax
    9046:	48 01 d0             	add    %rdx,%rax
    9049:	5d                   	pop    %rbp
    904a:	c3                   	retq   

000000000000904b <safe_sub_func_uint64_t_u_u>:
    904b:	f3 0f 1e fa          	endbr64 
    904f:	55                   	push   %rbp
    9050:	48 89 e5             	mov    %rsp,%rbp
    9053:	48 89 7d f8          	mov    %rdi,-0x8(%rbp)
    9057:	48 89 75 f0          	mov    %rsi,-0x10(%rbp)
    905b:	48 8b 45 f8          	mov    -0x8(%rbp),%rax
    905f:	48 2b 45 f0          	sub    -0x10(%rbp),%rax
    9063:	5d                   	pop    %rbp
    9064:	c3                   	retq   

0000000000009065 <safe_mul_func_uint64_t_u_u>:
    9065:	f3 0f 1e fa          	endbr64 
    9069:	55                   	push   %rbp
    906a:	48 89 e5             	mov    %rsp,%rbp
    906d:	48 89 7d f8          	mov    %rdi,-0x8(%rbp)
    9071:	48 89 75 f0          	mov    %rsi,-0x10(%rbp)
    9075:	48 8b 45 f8          	mov    -0x8(%rbp),%rax
    9079:	48 0f af 45 f0       	imul   -0x10(%rbp),%rax
    907e:	5d                   	pop    %rbp
    907f:	c3                   	retq   

0000000000009080 <safe_mod_func_uint64_t_u_u>:
    9080:	f3 0f 1e fa          	endbr64 
    9084:	55                   	push   %rbp
    9085:	48 89 e5             	mov    %rsp,%rbp
    9088:	48 89 7d f8          	mov    %rdi,-0x8(%rbp)
    908c:	48 89 75 f0          	mov    %rsi,-0x10(%rbp)
    9090:	48 83 7d f0 00       	cmpq   $0x0,-0x10(%rbp)
    9095:	74 12                	je     90a9 <safe_mod_func_uint64_t_u_u+0x29>
    9097:	48 8b 45 f8          	mov    -0x8(%rbp),%rax
    909b:	ba 00 00 00 00       	mov    $0x0,%edx
    90a0:	48 f7 75 f0          	divq   -0x10(%rbp)
    90a4:	48 89 d0             	mov    %rdx,%rax
    90a7:	eb 04                	jmp    90ad <safe_mod_func_uint64_t_u_u+0x2d>
    90a9:	48 8b 45 f8          	mov    -0x8(%rbp),%rax
    90ad:	5d                   	pop    %rbp
    90ae:	c3                   	retq   

00000000000090af <safe_div_func_uint64_t_u_u>:
    90af:	f3 0f 1e fa          	endbr64 
    90b3:	55                   	push   %rbp
    90b4:	48 89 e5             	mov    %rsp,%rbp
    90b7:	48 89 7d f8          	mov    %rdi,-0x8(%rbp)
    90bb:	48 89 75 f0          	mov    %rsi,-0x10(%rbp)
    90bf:	48 83 7d f0 00       	cmpq   $0x0,-0x10(%rbp)
    90c4:	74 0f                	je     90d5 <safe_div_func_uint64_t_u_u+0x26>
    90c6:	48 8b 45 f8          	mov    -0x8(%rbp),%rax
    90ca:	ba 00 00 00 00       	mov    $0x0,%edx
    90cf:	48 f7 75 f0          	divq   -0x10(%rbp)
    90d3:	eb 04                	jmp    90d9 <safe_div_func_uint64_t_u_u+0x2a>
    90d5:	48 8b 45 f8          	mov    -0x8(%rbp),%rax
    90d9:	5d                   	pop    %rbp
    90da:	c3                   	retq   

00000000000090db <safe_lshift_func_uint64_t_u_s>:
    90db:	f3 0f 1e fa          	endbr64 
    90df:	55                   	push   %rbp
    90e0:	48 89 e5             	mov    %rsp,%rbp
    90e3:	48 89 7d f8          	mov    %rdi,-0x8(%rbp)
    90e7:	89 75 f4             	mov    %esi,-0xc(%rbp)
    90ea:	83 7d f4 00          	cmpl   $0x0,-0xc(%rbp)
    90ee:	78 2f                	js     911f <safe_lshift_func_uint64_t_u_s+0x44>
    90f0:	83 7d f4 1f          	cmpl   $0x1f,-0xc(%rbp)
    90f4:	7f 29                	jg     911f <safe_lshift_func_uint64_t_u_s+0x44>
    90f6:	8b 45 f4             	mov    -0xc(%rbp),%eax
    90f9:	48 c7 c2 ff ff ff ff 	mov    $0xffffffffffffffff,%rdx
    9100:	89 c1                	mov    %eax,%ecx
    9102:	48 d3 ea             	shr    %cl,%rdx
    9105:	48 89 d0             	mov    %rdx,%rax
    9108:	48 39 45 f8          	cmp    %rax,-0x8(%rbp)
    910c:	77 11                	ja     911f <safe_lshift_func_uint64_t_u_s+0x44>
    910e:	8b 45 f4             	mov    -0xc(%rbp),%eax
    9111:	48 8b 55 f8          	mov    -0x8(%rbp),%rdx
    9115:	89 c1                	mov    %eax,%ecx
    9117:	48 d3 e2             	shl    %cl,%rdx
    911a:	48 89 d0             	mov    %rdx,%rax
    911d:	eb 04                	jmp    9123 <safe_lshift_func_uint64_t_u_s+0x48>
    911f:	48 8b 45 f8          	mov    -0x8(%rbp),%rax
    9123:	5d                   	pop    %rbp
    9124:	c3                   	retq   

0000000000009125 <safe_lshift_func_uint64_t_u_u>:
    9125:	f3 0f 1e fa          	endbr64 
    9129:	55                   	push   %rbp
    912a:	48 89 e5             	mov    %rsp,%rbp
    912d:	48 89 7d f8          	mov    %rdi,-0x8(%rbp)
    9131:	89 75 f4             	mov    %esi,-0xc(%rbp)
    9134:	83 7d f4 1f          	cmpl   $0x1f,-0xc(%rbp)
    9138:	77 29                	ja     9163 <safe_lshift_func_uint64_t_u_u+0x3e>
    913a:	8b 45 f4             	mov    -0xc(%rbp),%eax
    913d:	48 c7 c2 ff ff ff ff 	mov    $0xffffffffffffffff,%rdx
    9144:	89 c1                	mov    %eax,%ecx
    9146:	48 d3 ea             	shr    %cl,%rdx
    9149:	48 89 d0             	mov    %rdx,%rax
    914c:	48 39 45 f8          	cmp    %rax,-0x8(%rbp)
    9150:	77 11                	ja     9163 <safe_lshift_func_uint64_t_u_u+0x3e>
    9152:	8b 45 f4             	mov    -0xc(%rbp),%eax
    9155:	48 8b 55 f8          	mov    -0x8(%rbp),%rdx
    9159:	89 c1                	mov    %eax,%ecx
    915b:	48 d3 e2             	shl    %cl,%rdx
    915e:	48 89 d0             	mov    %rdx,%rax
    9161:	eb 04                	jmp    9167 <safe_lshift_func_uint64_t_u_u+0x42>
    9163:	48 8b 45 f8          	mov    -0x8(%rbp),%rax
    9167:	5d                   	pop    %rbp
    9168:	c3                   	retq   

0000000000009169 <safe_rshift_func_uint64_t_u_s>:
    9169:	f3 0f 1e fa          	endbr64 
    916d:	55                   	push   %rbp
    916e:	48 89 e5             	mov    %rsp,%rbp
    9171:	48 89 7d f8          	mov    %rdi,-0x8(%rbp)
    9175:	89 75 f4             	mov    %esi,-0xc(%rbp)
    9178:	83 7d f4 00          	cmpl   $0x0,-0xc(%rbp)
    917c:	78 17                	js     9195 <safe_rshift_func_uint64_t_u_s+0x2c>
    917e:	83 7d f4 1f          	cmpl   $0x1f,-0xc(%rbp)
    9182:	7f 11                	jg     9195 <safe_rshift_func_uint64_t_u_s+0x2c>
    9184:	8b 45 f4             	mov    -0xc(%rbp),%eax
    9187:	48 8b 55 f8          	mov    -0x8(%rbp),%rdx
    918b:	89 c1                	mov    %eax,%ecx
    918d:	48 d3 ea             	shr    %cl,%rdx
    9190:	48 89 d0             	mov    %rdx,%rax
    9193:	eb 04                	jmp    9199 <safe_rshift_func_uint64_t_u_s+0x30>
    9195:	48 8b 45 f8          	mov    -0x8(%rbp),%rax
    9199:	5d                   	pop    %rbp
    919a:	c3                   	retq   

000000000000919b <safe_rshift_func_uint64_t_u_u>:
    919b:	f3 0f 1e fa          	endbr64 
    919f:	55                   	push   %rbp
    91a0:	48 89 e5             	mov    %rsp,%rbp
    91a3:	48 89 7d f8          	mov    %rdi,-0x8(%rbp)
    91a7:	89 75 f4             	mov    %esi,-0xc(%rbp)
    91aa:	83 7d f4 1f          	cmpl   $0x1f,-0xc(%rbp)
    91ae:	77 11                	ja     91c1 <safe_rshift_func_uint64_t_u_u+0x26>
    91b0:	8b 45 f4             	mov    -0xc(%rbp),%eax
    91b3:	48 8b 55 f8          	mov    -0x8(%rbp),%rdx
    91b7:	89 c1                	mov    %eax,%ecx
    91b9:	48 d3 ea             	shr    %cl,%rdx
    91bc:	48 89 d0             	mov    %rdx,%rax
    91bf:	eb 04                	jmp    91c5 <safe_rshift_func_uint64_t_u_u+0x2a>
    91c1:	48 8b 45 f8          	mov    -0x8(%rbp),%rax
    91c5:	5d                   	pop    %rbp
    91c6:	c3                   	retq   

00000000000091c7 <safe_add_func_float_f_f>:
    91c7:	f3 0f 1e fa          	endbr64 
    91cb:	55                   	push   %rbp
    91cc:	48 89 e5             	mov    %rsp,%rbp
    91cf:	f3 0f 11 45 fc       	movss  %xmm0,-0x4(%rbp)
    91d4:	f3 0f 11 4d f8       	movss  %xmm1,-0x8(%rbp)
    91d9:	f3 0f 10 4d fc       	movss  -0x4(%rbp),%xmm1
    91de:	f3 0f 10 05 3e 77 01 	movss  0x1773e(%rip),%xmm0        # 20924 <g_5653+0x3883>
    91e5:	00 
    91e6:	f3 0f 59 c8          	mulss  %xmm0,%xmm1
    91ea:	f3 0f 10 55 f8       	movss  -0x8(%rbp),%xmm2
    91ef:	f3 0f 10 05 2d 77 01 	movss  0x1772d(%rip),%xmm0        # 20924 <g_5653+0x3883>
    91f6:	00 
    91f7:	f3 0f 59 c2          	mulss  %xmm2,%xmm0
    91fb:	f3 0f 58 c1          	addss  %xmm1,%xmm0
    91ff:	f3 0f 10 0d 29 77 01 	movss  0x17729(%rip),%xmm1        # 20930 <g_5653+0x388f>
    9206:	00 
    9207:	0f 54 c1             	andps  %xmm1,%xmm0
    920a:	0f 2f 05 2f 77 01 00 	comiss 0x1772f(%rip),%xmm0        # 20940 <g_5653+0x389f>
    9211:	76 07                	jbe    921a <safe_add_func_float_f_f+0x53>
    9213:	f3 0f 10 45 fc       	movss  -0x4(%rbp),%xmm0
    9218:	eb 0a                	jmp    9224 <safe_add_func_float_f_f+0x5d>
    921a:	f3 0f 10 45 fc       	movss  -0x4(%rbp),%xmm0
    921f:	f3 0f 58 45 f8       	addss  -0x8(%rbp),%xmm0
    9224:	5d                   	pop    %rbp
    9225:	c3                   	retq   

0000000000009226 <safe_sub_func_float_f_f>:
    9226:	f3 0f 1e fa          	endbr64 
    922a:	55                   	push   %rbp
    922b:	48 89 e5             	mov    %rsp,%rbp
    922e:	f3 0f 11 45 fc       	movss  %xmm0,-0x4(%rbp)
    9233:	f3 0f 11 4d f8       	movss  %xmm1,-0x8(%rbp)
    9238:	f3 0f 10 4d fc       	movss  -0x4(%rbp),%xmm1
    923d:	f3 0f 10 05 df 76 01 	movss  0x176df(%rip),%xmm0        # 20924 <g_5653+0x3883>
    9244:	00 
    9245:	f3 0f 59 c1          	mulss  %xmm1,%xmm0
    9249:	f3 0f 10 55 f8       	movss  -0x8(%rbp),%xmm2
    924e:	f3 0f 10 0d ce 76 01 	movss  0x176ce(%rip),%xmm1        # 20924 <g_5653+0x3883>
    9255:	00 
    9256:	f3 0f 59 ca          	mulss  %xmm2,%xmm1
    925a:	f3 0f 5c c1          	subss  %xmm1,%xmm0
    925e:	f3 0f 10 0d ca 76 01 	movss  0x176ca(%rip),%xmm1        # 20930 <g_5653+0x388f>
    9265:	00 
    9266:	0f 54 c1             	andps  %xmm1,%xmm0
    9269:	0f 2f 05 d0 76 01 00 	comiss 0x176d0(%rip),%xmm0        # 20940 <g_5653+0x389f>
    9270:	76 07                	jbe    9279 <safe_sub_func_float_f_f+0x53>
    9272:	f3 0f 10 45 fc       	movss  -0x4(%rbp),%xmm0
    9277:	eb 0a                	jmp    9283 <safe_sub_func_float_f_f+0x5d>
    9279:	f3 0f 10 45 fc       	movss  -0x4(%rbp),%xmm0
    927e:	f3 0f 5c 45 f8       	subss  -0x8(%rbp),%xmm0
    9283:	5d                   	pop    %rbp
    9284:	c3                   	retq   

0000000000009285 <safe_mul_func_float_f_f>:
    9285:	f3 0f 1e fa          	endbr64 
    9289:	55                   	push   %rbp
    928a:	48 89 e5             	mov    %rsp,%rbp
    928d:	f3 0f 11 45 fc       	movss  %xmm0,-0x4(%rbp)
    9292:	f3 0f 11 4d f8       	movss  %xmm1,-0x8(%rbp)
    9297:	f3 0f 10 4d fc       	movss  -0x4(%rbp),%xmm1
    929c:	f3 0f 10 05 a0 76 01 	movss  0x176a0(%rip),%xmm0        # 20944 <g_5653+0x38a3>
    92a3:	00 
    92a4:	f3 0f 59 c8          	mulss  %xmm0,%xmm1
    92a8:	f3 0f 10 55 f8       	movss  -0x8(%rbp),%xmm2
    92ad:	f3 0f 10 05 93 76 01 	movss  0x17693(%rip),%xmm0        # 20948 <g_5653+0x38a7>
    92b4:	00 
    92b5:	f3 0f 59 c2          	mulss  %xmm2,%xmm0
    92b9:	f3 0f 59 c1          	mulss  %xmm1,%xmm0
    92bd:	f3 0f 10 0d 6b 76 01 	movss  0x1766b(%rip),%xmm1        # 20930 <g_5653+0x388f>
    92c4:	00 
    92c5:	0f 54 c1             	andps  %xmm1,%xmm0
    92c8:	0f 2f 05 7d 76 01 00 	comiss 0x1767d(%rip),%xmm0        # 2094c <g_5653+0x38ab>
    92cf:	76 07                	jbe    92d8 <safe_mul_func_float_f_f+0x53>
    92d1:	f3 0f 10 45 fc       	movss  -0x4(%rbp),%xmm0
    92d6:	eb 0a                	jmp    92e2 <safe_mul_func_float_f_f+0x5d>
    92d8:	f3 0f 10 45 fc       	movss  -0x4(%rbp),%xmm0
    92dd:	f3 0f 59 45 f8       	mulss  -0x8(%rbp),%xmm0
    92e2:	5d                   	pop    %rbp
    92e3:	c3                   	retq   

00000000000092e4 <safe_div_func_float_f_f>:
    92e4:	f3 0f 1e fa          	endbr64 
    92e8:	55                   	push   %rbp
    92e9:	48 89 e5             	mov    %rsp,%rbp
    92ec:	f3 0f 11 45 fc       	movss  %xmm0,-0x4(%rbp)
    92f1:	f3 0f 11 4d f8       	movss  %xmm1,-0x8(%rbp)
    92f6:	f3 0f 10 45 f8       	movss  -0x8(%rbp),%xmm0
    92fb:	f3 0f 10 0d 2d 76 01 	movss  0x1762d(%rip),%xmm1        # 20930 <g_5653+0x388f>
    9302:	00 
    9303:	0f 54 c8             	andps  %xmm0,%xmm1
    9306:	f3 0f 10 05 42 76 01 	movss  0x17642(%rip),%xmm0        # 20950 <g_5653+0x38af>
    930d:	00 
    930e:	0f 2f c1             	comiss %xmm1,%xmm0
    9311:	0f 97 c0             	seta   %al
    9314:	83 f0 01             	xor    $0x1,%eax
    9317:	84 c0                	test   %al,%al
    9319:	75 56                	jne    9371 <safe_div_func_float_f_f+0x8d>
    931b:	66 0f ef c0          	pxor   %xmm0,%xmm0
    931f:	0f 2e 45 f8          	ucomiss -0x8(%rbp),%xmm0
    9323:	7a 0a                	jp     932f <safe_div_func_float_f_f+0x4b>
    9325:	66 0f ef c0          	pxor   %xmm0,%xmm0
    9329:	0f 2e 45 f8          	ucomiss -0x8(%rbp),%xmm0
    932d:	74 4e                	je     937d <safe_div_func_float_f_f+0x99>
    932f:	f3 0f 10 4d fc       	movss  -0x4(%rbp),%xmm1
    9334:	f3 0f 10 05 18 76 01 	movss  0x17618(%rip),%xmm0        # 20954 <g_5653+0x38b3>
    933b:	00 
    933c:	f3 0f 59 c1          	mulss  %xmm1,%xmm0
    9340:	f3 0f 10 55 f8       	movss  -0x8(%rbp),%xmm2
    9345:	f3 0f 10 0d 0b 76 01 	movss  0x1760b(%rip),%xmm1        # 20958 <g_5653+0x38b7>
    934c:	00 
    934d:	f3 0f 59 ca          	mulss  %xmm2,%xmm1
    9351:	f3 0f 5e c1          	divss  %xmm1,%xmm0
    9355:	f3 0f 10 0d d3 75 01 	movss  0x175d3(%rip),%xmm1        # 20930 <g_5653+0x388f>
    935c:	00 
    935d:	0f 54 c1             	andps  %xmm1,%xmm0
    9360:	0f 2f 05 f5 75 01 00 	comiss 0x175f5(%rip),%xmm0        # 2095c <g_5653+0x38bb>
    9367:	0f 97 c0             	seta   %al
    936a:	83 f0 01             	xor    $0x1,%eax
    936d:	84 c0                	test   %al,%al
    936f:	74 0c                	je     937d <safe_div_func_float_f_f+0x99>
    9371:	f3 0f 10 45 fc       	movss  -0x4(%rbp),%xmm0
    9376:	f3 0f 5e 45 f8       	divss  -0x8(%rbp),%xmm0
    937b:	eb 05                	jmp    9382 <safe_div_func_float_f_f+0x9e>
    937d:	f3 0f 10 45 fc       	movss  -0x4(%rbp),%xmm0
    9382:	5d                   	pop    %rbp
    9383:	c3                   	retq   

0000000000009384 <safe_add_func_double_f_f>:
    9384:	f3 0f 1e fa          	endbr64 
    9388:	55                   	push   %rbp
    9389:	48 89 e5             	mov    %rsp,%rbp
    938c:	f2 0f 11 45 f8       	movsd  %xmm0,-0x8(%rbp)
    9391:	f2 0f 11 4d f0       	movsd  %xmm1,-0x10(%rbp)
    9396:	f2 0f 10 4d f8       	movsd  -0x8(%rbp),%xmm1
    939b:	f2 0f 10 05 bd 75 01 	movsd  0x175bd(%rip),%xmm0        # 20960 <g_5653+0x38bf>
    93a2:	00 
    93a3:	f2 0f 59 c8          	mulsd  %xmm0,%xmm1
    93a7:	f2 0f 10 55 f0       	movsd  -0x10(%rbp),%xmm2
    93ac:	f2 0f 10 05 ac 75 01 	movsd  0x175ac(%rip),%xmm0        # 20960 <g_5653+0x38bf>
    93b3:	00 
    93b4:	f2 0f 59 c2          	mulsd  %xmm2,%xmm0
    93b8:	f2 0f 58 c1          	addsd  %xmm1,%xmm0
    93bc:	f3 0f 7e 0d ac 75 01 	movq   0x175ac(%rip),%xmm1        # 20970 <g_5653+0x38cf>
    93c3:	00 
    93c4:	66 0f 54 c1          	andpd  %xmm1,%xmm0
    93c8:	66 0f 2f 05 b0 75 01 	comisd 0x175b0(%rip),%xmm0        # 20980 <g_5653+0x38df>
    93cf:	00 
    93d0:	76 07                	jbe    93d9 <safe_add_func_double_f_f+0x55>
    93d2:	f2 0f 10 45 f8       	movsd  -0x8(%rbp),%xmm0
    93d7:	eb 0a                	jmp    93e3 <safe_add_func_double_f_f+0x5f>
    93d9:	f2 0f 10 45 f8       	movsd  -0x8(%rbp),%xmm0
    93de:	f2 0f 58 45 f0       	addsd  -0x10(%rbp),%xmm0
    93e3:	5d                   	pop    %rbp
    93e4:	c3                   	retq   

00000000000093e5 <safe_sub_func_double_f_f>:
    93e5:	f3 0f 1e fa          	endbr64 
    93e9:	55                   	push   %rbp
    93ea:	48 89 e5             	mov    %rsp,%rbp
    93ed:	f2 0f 11 45 f8       	movsd  %xmm0,-0x8(%rbp)
    93f2:	f2 0f 11 4d f0       	movsd  %xmm1,-0x10(%rbp)
    93f7:	f2 0f 10 4d f8       	movsd  -0x8(%rbp),%xmm1
    93fc:	f2 0f 10 05 5c 75 01 	movsd  0x1755c(%rip),%xmm0        # 20960 <g_5653+0x38bf>
    9403:	00 
    9404:	f2 0f 59 c1          	mulsd  %xmm1,%xmm0
    9408:	f2 0f 10 55 f0       	movsd  -0x10(%rbp),%xmm2
    940d:	f2 0f 10 0d 4b 75 01 	movsd  0x1754b(%rip),%xmm1        # 20960 <g_5653+0x38bf>
    9414:	00 
    9415:	f2 0f 59 ca          	mulsd  %xmm2,%xmm1
    9419:	f2 0f 5c c1          	subsd  %xmm1,%xmm0
    941d:	f3 0f 7e 0d 4b 75 01 	movq   0x1754b(%rip),%xmm1        # 20970 <g_5653+0x38cf>
    9424:	00 
    9425:	66 0f 54 c1          	andpd  %xmm1,%xmm0
    9429:	66 0f 2f 05 4f 75 01 	comisd 0x1754f(%rip),%xmm0        # 20980 <g_5653+0x38df>
    9430:	00 
    9431:	76 07                	jbe    943a <safe_sub_func_double_f_f+0x55>
    9433:	f2 0f 10 45 f8       	movsd  -0x8(%rbp),%xmm0
    9438:	eb 0a                	jmp    9444 <safe_sub_func_double_f_f+0x5f>
    943a:	f2 0f 10 45 f8       	movsd  -0x8(%rbp),%xmm0
    943f:	f2 0f 5c 45 f0       	subsd  -0x10(%rbp),%xmm0
    9444:	5d                   	pop    %rbp
    9445:	c3                   	retq   

0000000000009446 <safe_mul_func_double_f_f>:
    9446:	f3 0f 1e fa          	endbr64 
    944a:	55                   	push   %rbp
    944b:	48 89 e5             	mov    %rsp,%rbp
    944e:	f2 0f 11 45 f8       	movsd  %xmm0,-0x8(%rbp)
    9453:	f2 0f 11 4d f0       	movsd  %xmm1,-0x10(%rbp)
    9458:	f2 0f 10 4d f8       	movsd  -0x8(%rbp),%xmm1
    945d:	f2 0f 10 05 23 75 01 	movsd  0x17523(%rip),%xmm0        # 20988 <g_5653+0x38e7>
    9464:	00 
    9465:	f2 0f 59 c8          	mulsd  %xmm0,%xmm1
    9469:	f2 0f 10 55 f0       	movsd  -0x10(%rbp),%xmm2
    946e:	f2 0f 10 05 1a 75 01 	movsd  0x1751a(%rip),%xmm0        # 20990 <g_5653+0x38ef>
    9475:	00 
    9476:	f2 0f 59 c2          	mulsd  %xmm2,%xmm0
    947a:	f2 0f 59 c1          	mulsd  %xmm1,%xmm0
    947e:	f3 0f 7e 0d ea 74 01 	movq   0x174ea(%rip),%xmm1        # 20970 <g_5653+0x38cf>
    9485:	00 
    9486:	66 0f 54 c1          	andpd  %xmm1,%xmm0
    948a:	66 0f 2f 05 06 75 01 	comisd 0x17506(%rip),%xmm0        # 20998 <g_5653+0x38f7>
    9491:	00 
    9492:	76 07                	jbe    949b <safe_mul_func_double_f_f+0x55>
    9494:	f2 0f 10 45 f8       	movsd  -0x8(%rbp),%xmm0
    9499:	eb 0a                	jmp    94a5 <safe_mul_func_double_f_f+0x5f>
    949b:	f2 0f 10 45 f8       	movsd  -0x8(%rbp),%xmm0
    94a0:	f2 0f 59 45 f0       	mulsd  -0x10(%rbp),%xmm0
    94a5:	5d                   	pop    %rbp
    94a6:	c3                   	retq   

00000000000094a7 <safe_div_func_double_f_f>:
    94a7:	f3 0f 1e fa          	endbr64 
    94ab:	55                   	push   %rbp
    94ac:	48 89 e5             	mov    %rsp,%rbp
    94af:	f2 0f 11 45 f8       	movsd  %xmm0,-0x8(%rbp)
    94b4:	f2 0f 11 4d f0       	movsd  %xmm1,-0x10(%rbp)
    94b9:	f2 0f 10 45 f0       	movsd  -0x10(%rbp),%xmm0
    94be:	f3 0f 7e 0d aa 74 01 	movq   0x174aa(%rip),%xmm1        # 20970 <g_5653+0x38cf>
    94c5:	00 
    94c6:	66 0f 54 c8          	andpd  %xmm0,%xmm1
    94ca:	f2 0f 10 05 ce 74 01 	movsd  0x174ce(%rip),%xmm0        # 209a0 <g_5653+0x38ff>
    94d1:	00 
    94d2:	66 0f 2f c1          	comisd %xmm1,%xmm0
    94d6:	0f 97 c0             	seta   %al
    94d9:	83 f0 01             	xor    $0x1,%eax
    94dc:	84 c0                	test   %al,%al
    94de:	75 5a                	jne    953a <safe_div_func_double_f_f+0x93>
    94e0:	66 0f ef c0          	pxor   %xmm0,%xmm0
    94e4:	66 0f 2e 45 f0       	ucomisd -0x10(%rbp),%xmm0
    94e9:	7a 0b                	jp     94f6 <safe_div_func_double_f_f+0x4f>
    94eb:	66 0f ef c0          	pxor   %xmm0,%xmm0
    94ef:	66 0f 2e 45 f0       	ucomisd -0x10(%rbp),%xmm0
    94f4:	74 50                	je     9546 <safe_div_func_double_f_f+0x9f>
    94f6:	f2 0f 10 4d f8       	movsd  -0x8(%rbp),%xmm1
    94fb:	f2 0f 10 05 a5 74 01 	movsd  0x174a5(%rip),%xmm0        # 209a8 <g_5653+0x3907>
    9502:	00 
    9503:	f2 0f 59 c1          	mulsd  %xmm1,%xmm0
    9507:	f2 0f 10 55 f0       	movsd  -0x10(%rbp),%xmm2
    950c:	f2 0f 10 0d 9c 74 01 	movsd  0x1749c(%rip),%xmm1        # 209b0 <g_5653+0x390f>
    9513:	00 
    9514:	f2 0f 59 ca          	mulsd  %xmm2,%xmm1
    9518:	f2 0f 5e c1          	divsd  %xmm1,%xmm0
    951c:	f3 0f 7e 0d 4c 74 01 	movq   0x1744c(%rip),%xmm1        # 20970 <g_5653+0x38cf>
    9523:	00 
    9524:	66 0f 54 c1          	andpd  %xmm1,%xmm0
    9528:	66 0f 2f 05 88 74 01 	comisd 0x17488(%rip),%xmm0        # 209b8 <g_5653+0x3917>
    952f:	00 
    9530:	0f 97 c0             	seta   %al
    9533:	83 f0 01             	xor    $0x1,%eax
    9536:	84 c0                	test   %al,%al
    9538:	74 0c                	je     9546 <safe_div_func_double_f_f+0x9f>
    953a:	f2 0f 10 45 f8       	movsd  -0x8(%rbp),%xmm0
    953f:	f2 0f 5e 45 f0       	divsd  -0x10(%rbp),%xmm0
    9544:	eb 05                	jmp    954b <safe_div_func_double_f_f+0xa4>
    9546:	f2 0f 10 45 f8       	movsd  -0x8(%rbp),%xmm0
    954b:	5d                   	pop    %rbp
    954c:	c3                   	retq   

000000000000954d <safe_convert_func_float_to_int32_t>:
    954d:	f3 0f 1e fa          	endbr64 
    9551:	55                   	push   %rbp
    9552:	48 89 e5             	mov    %rsp,%rbp
    9555:	f3 0f 11 45 fc       	movss  %xmm0,-0x4(%rbp)
    955a:	f3 0f 10 05 5e 74 01 	movss  0x1745e(%rip),%xmm0        # 209c0 <g_5653+0x391f>
    9561:	00 
    9562:	0f 2f 45 fc          	comiss -0x4(%rbp),%xmm0
    9566:	0f 93 c0             	setae  %al
    9569:	83 f0 01             	xor    $0x1,%eax
    956c:	84 c0                	test   %al,%al
    956e:	74 21                	je     9591 <safe_convert_func_float_to_int32_t+0x44>
    9570:	f3 0f 10 45 fc       	movss  -0x4(%rbp),%xmm0
    9575:	0f 2f 05 48 74 01 00 	comiss 0x17448(%rip),%xmm0        # 209c4 <g_5653+0x3923>
    957c:	0f 93 c0             	setae  %al
    957f:	83 f0 01             	xor    $0x1,%eax
    9582:	84 c0                	test   %al,%al
    9584:	74 0b                	je     9591 <safe_convert_func_float_to_int32_t+0x44>
    9586:	f3 0f 10 45 fc       	movss  -0x4(%rbp),%xmm0
    958b:	f3 0f 2c c0          	cvttss2si %xmm0,%eax
    958f:	eb 05                	jmp    9596 <safe_convert_func_float_to_int32_t+0x49>
    9591:	b8 ff ff ff 7f       	mov    $0x7fffffff,%eax
    9596:	5d                   	pop    %rbp
    9597:	c3                   	retq   

0000000000009598 <crc32_gentab>:
    9598:	f3 0f 1e fa          	endbr64 
    959c:	55                   	push   %rbp
    959d:	48 89 e5             	mov    %rsp,%rbp
    95a0:	c7 45 fc 20 83 b8 ed 	movl   $0xedb88320,-0x4(%rbp)
    95a7:	c7 45 f4 00 00 00 00 	movl   $0x0,-0xc(%rbp)
    95ae:	eb 51                	jmp    9601 <crc32_gentab+0x69>
    95b0:	8b 45 f4             	mov    -0xc(%rbp),%eax
    95b3:	89 45 f0             	mov    %eax,-0x10(%rbp)
    95b6:	c7 45 f8 08 00 00 00 	movl   $0x8,-0x8(%rbp)
    95bd:	eb 1e                	jmp    95dd <crc32_gentab+0x45>
    95bf:	8b 45 f0             	mov    -0x10(%rbp),%eax
    95c2:	83 e0 01             	and    $0x1,%eax
    95c5:	85 c0                	test   %eax,%eax
    95c7:	74 0d                	je     95d6 <crc32_gentab+0x3e>
    95c9:	8b 45 f0             	mov    -0x10(%rbp),%eax
    95cc:	d1 e8                	shr    %eax
    95ce:	33 45 fc             	xor    -0x4(%rbp),%eax
    95d1:	89 45 f0             	mov    %eax,-0x10(%rbp)
    95d4:	eb 03                	jmp    95d9 <crc32_gentab+0x41>
    95d6:	d1 6d f0             	shrl   -0x10(%rbp)
    95d9:	83 6d f8 01          	subl   $0x1,-0x8(%rbp)
    95dd:	83 7d f8 00          	cmpl   $0x0,-0x8(%rbp)
    95e1:	7f dc                	jg     95bf <crc32_gentab+0x27>
    95e3:	8b 45 f4             	mov    -0xc(%rbp),%eax
    95e6:	48 98                	cltq   
    95e8:	48 8d 0c 85 00 00 00 	lea    0x0(,%rax,4),%rcx
    95ef:	00 
    95f0:	48 8d 15 a9 e1 01 00 	lea    0x1e1a9(%rip),%rdx        # 277a0 <crc32_tab>
    95f7:	8b 45 f0             	mov    -0x10(%rbp),%eax
    95fa:	89 04 11             	mov    %eax,(%rcx,%rdx,1)
    95fd:	83 45 f4 01          	addl   $0x1,-0xc(%rbp)
    9601:	81 7d f4 ff 00 00 00 	cmpl   $0xff,-0xc(%rbp)
    9608:	7e a6                	jle    95b0 <crc32_gentab+0x18>
    960a:	90                   	nop
    960b:	90                   	nop
    960c:	5d                   	pop    %rbp
    960d:	c3                   	retq   

000000000000960e <crc32_byte>:
    960e:	f3 0f 1e fa          	endbr64 
    9612:	55                   	push   %rbp
    9613:	48 89 e5             	mov    %rsp,%rbp
    9616:	89 f8                	mov    %edi,%eax
    9618:	88 45 fc             	mov    %al,-0x4(%rbp)
    961b:	8b 05 ff a9 01 00    	mov    0x1a9ff(%rip),%eax        # 24020 <crc32_context>
    9621:	c1 e8 08             	shr    $0x8,%eax
    9624:	89 c1                	mov    %eax,%ecx
    9626:	0f b6 55 fc          	movzbl -0x4(%rbp),%edx
    962a:	8b 05 f0 a9 01 00    	mov    0x1a9f0(%rip),%eax        # 24020 <crc32_context>
    9630:	31 d0                	xor    %edx,%eax
    9632:	0f b6 c0             	movzbl %al,%eax
    9635:	89 c0                	mov    %eax,%eax
    9637:	48 8d 14 85 00 00 00 	lea    0x0(,%rax,4),%rdx
    963e:	00 
    963f:	48 8d 05 5a e1 01 00 	lea    0x1e15a(%rip),%rax        # 277a0 <crc32_tab>
    9646:	8b 04 02             	mov    (%rdx,%rax,1),%eax
    9649:	31 c8                	xor    %ecx,%eax
    964b:	89 05 cf a9 01 00    	mov    %eax,0x1a9cf(%rip)        # 24020 <crc32_context>
    9651:	90                   	nop
    9652:	5d                   	pop    %rbp
    9653:	c3                   	retq   

0000000000009654 <crc32_8bytes>:
    9654:	f3 0f 1e fa          	endbr64 
    9658:	55                   	push   %rbp
    9659:	48 89 e5             	mov    %rsp,%rbp
    965c:	48 83 ec 08          	sub    $0x8,%rsp
    9660:	48 89 7d f8          	mov    %rdi,-0x8(%rbp)
    9664:	48 8b 45 f8          	mov    -0x8(%rbp),%rax
    9668:	0f b6 c0             	movzbl %al,%eax
    966b:	89 c7                	mov    %eax,%edi
    966d:	e8 9c ff ff ff       	callq  960e <crc32_byte>
    9672:	48 8b 45 f8          	mov    -0x8(%rbp),%rax
    9676:	48 c1 e8 08          	shr    $0x8,%rax
    967a:	0f b6 c0             	movzbl %al,%eax
    967d:	89 c7                	mov    %eax,%edi
    967f:	e8 8a ff ff ff       	callq  960e <crc32_byte>
    9684:	48 8b 45 f8          	mov    -0x8(%rbp),%rax
    9688:	48 c1 e8 10          	shr    $0x10,%rax
    968c:	0f b6 c0             	movzbl %al,%eax
    968f:	89 c7                	mov    %eax,%edi
    9691:	e8 78 ff ff ff       	callq  960e <crc32_byte>
    9696:	48 8b 45 f8          	mov    -0x8(%rbp),%rax
    969a:	48 c1 e8 18          	shr    $0x18,%rax
    969e:	0f b6 c0             	movzbl %al,%eax
    96a1:	89 c7                	mov    %eax,%edi
    96a3:	e8 66 ff ff ff       	callq  960e <crc32_byte>
    96a8:	48 8b 45 f8          	mov    -0x8(%rbp),%rax
    96ac:	48 c1 e8 20          	shr    $0x20,%rax
    96b0:	0f b6 c0             	movzbl %al,%eax
    96b3:	89 c7                	mov    %eax,%edi
    96b5:	e8 54 ff ff ff       	callq  960e <crc32_byte>
    96ba:	48 8b 45 f8          	mov    -0x8(%rbp),%rax
    96be:	48 c1 e8 28          	shr    $0x28,%rax
    96c2:	0f b6 c0             	movzbl %al,%eax
    96c5:	89 c7                	mov    %eax,%edi
    96c7:	e8 42 ff ff ff       	callq  960e <crc32_byte>
    96cc:	48 8b 45 f8          	mov    -0x8(%rbp),%rax
    96d0:	48 c1 e8 30          	shr    $0x30,%rax
    96d4:	0f b6 c0             	movzbl %al,%eax
    96d7:	89 c7                	mov    %eax,%edi
    96d9:	e8 30 ff ff ff       	callq  960e <crc32_byte>
    96de:	48 8b 45 f8          	mov    -0x8(%rbp),%rax
    96e2:	48 c1 e8 38          	shr    $0x38,%rax
    96e6:	0f b6 c0             	movzbl %al,%eax
    96e9:	89 c7                	mov    %eax,%edi
    96eb:	e8 1e ff ff ff       	callq  960e <crc32_byte>
    96f0:	90                   	nop
    96f1:	c9                   	leaveq 
    96f2:	c3                   	retq   

00000000000096f3 <transparent_crc>:
    96f3:	f3 0f 1e fa          	endbr64 
    96f7:	55                   	push   %rbp
    96f8:	48 89 e5             	mov    %rsp,%rbp
    96fb:	48 83 ec 20          	sub    $0x20,%rsp
    96ff:	48 89 7d f8          	mov    %rdi,-0x8(%rbp)
    9703:	48 89 75 f0          	mov    %rsi,-0x10(%rbp)
    9707:	89 55 ec             	mov    %edx,-0x14(%rbp)
    970a:	48 8b 45 f8          	mov    -0x8(%rbp),%rax
    970e:	48 89 c7             	mov    %rax,%rdi
    9711:	e8 3e ff ff ff       	callq  9654 <crc32_8bytes>
    9716:	83 7d ec 00          	cmpl   $0x0,-0x14(%rbp)
    971a:	74 22                	je     973e <transparent_crc+0x4b>
    971c:	8b 05 fe a8 01 00    	mov    0x1a8fe(%rip),%eax        # 24020 <crc32_context>
    9722:	f7 d0                	not    %eax
    9724:	89 c2                	mov    %eax,%edx
    9726:	48 8b 45 f0          	mov    -0x10(%rbp),%rax
    972a:	48 89 c6             	mov    %rax,%rsi
    972d:	48 8d 3d fc 38 01 00 	lea    0x138fc(%rip),%rdi        # 1d030 <_IO_stdin_used+0x30>
    9734:	b8 00 00 00 00       	mov    $0x0,%eax
    9739:	e8 42 e9 ff ff       	callq  8080 <printf@plt>
    973e:	90                   	nop
    973f:	c9                   	leaveq 
    9740:	c3                   	retq   

0000000000009741 <transparent_crc_bytes>:
    9741:	f3 0f 1e fa          	endbr64 
    9745:	55                   	push   %rbp
    9746:	48 89 e5             	mov    %rsp,%rbp
    9749:	48 83 ec 30          	sub    $0x30,%rsp
    974d:	48 89 7d e8          	mov    %rdi,-0x18(%rbp)
    9751:	89 75 e4             	mov    %esi,-0x1c(%rbp)
    9754:	48 89 55 d8          	mov    %rdx,-0x28(%rbp)
    9758:	89 4d e0             	mov    %ecx,-0x20(%rbp)
    975b:	c7 45 fc 00 00 00 00 	movl   $0x0,-0x4(%rbp)
    9762:	eb 1e                	jmp    9782 <transparent_crc_bytes+0x41>
    9764:	8b 45 fc             	mov    -0x4(%rbp),%eax
    9767:	48 63 d0             	movslq %eax,%rdx
    976a:	48 8b 45 e8          	mov    -0x18(%rbp),%rax
    976e:	48 01 d0             	add    %rdx,%rax
    9771:	0f b6 00             	movzbl (%rax),%eax
    9774:	0f b6 c0             	movzbl %al,%eax
    9777:	89 c7                	mov    %eax,%edi
    9779:	e8 90 fe ff ff       	callq  960e <crc32_byte>
    977e:	83 45 fc 01          	addl   $0x1,-0x4(%rbp)
    9782:	8b 45 fc             	mov    -0x4(%rbp),%eax
    9785:	3b 45 e4             	cmp    -0x1c(%rbp),%eax
    9788:	7c da                	jl     9764 <transparent_crc_bytes+0x23>
    978a:	83 7d e0 00          	cmpl   $0x0,-0x20(%rbp)
    978e:	74 22                	je     97b2 <transparent_crc_bytes+0x71>
    9790:	8b 05 8a a8 01 00    	mov    0x1a88a(%rip),%eax        # 24020 <crc32_context>
    9796:	f7 d0                	not    %eax
    9798:	89 c2                	mov    %eax,%edx
    979a:	48 8b 45 d8          	mov    -0x28(%rbp),%rax
    979e:	48 89 c6             	mov    %rax,%rsi
    97a1:	48 8d 3d 88 38 01 00 	lea    0x13888(%rip),%rdi        # 1d030 <_IO_stdin_used+0x30>
    97a8:	b8 00 00 00 00       	mov    $0x0,%eax
    97ad:	e8 ce e8 ff ff       	callq  8080 <printf@plt>
    97b2:	90                   	nop
    97b3:	c9                   	leaveq 
    97b4:	c3                   	retq   

00000000000097b5 <func_1>:
    97b5:	f3 0f 1e fa          	endbr64 
    97b9:	55                   	push   %rbp
    97ba:	48 89 e5             	mov    %rsp,%rbp
    97bd:	41 57                	push   %r15
    97bf:	41 56                	push   %r14
    97c1:	41 55                	push   %r13
    97c3:	41 54                	push   %r12
    97c5:	53                   	push   %rbx
    97c6:	48 81 ec 08 01 00 00 	sub    $0x108,%rsp
    97cd:	64 48 8b 04 25 28 00 	mov    %fs:0x28,%rax
    97d4:	00 00 
    97d6:	48 89 45 c8          	mov    %rax,-0x38(%rbp)
    97da:	31 c0                	xor    %eax,%eax
    97dc:	48 c7 85 e8 fe ff ff 	movq   $0x7,-0x118(%rbp)
    97e3:	07 00 00 00 
    97e7:	66 c7 85 50 ff ff ff 	movw   $0x707d,-0xb0(%rbp)
    97ee:	7d 70 
    97f0:	66 c7 85 52 ff ff ff 	movw   $0x657a,-0xae(%rbp)
    97f7:	7a 65 
    97f9:	66 c7 85 54 ff ff ff 	movw   $0xffff,-0xac(%rbp)
    9800:	ff ff 
    9802:	66 c7 85 56 ff ff ff 	movw   $0x1,-0xaa(%rbp)
    9809:	01 00 
    980b:	66 c7 85 58 ff ff ff 	movw   $0x9deb,-0xa8(%rbp)
    9812:	eb 9d 
    9814:	66 c7 85 5a ff ff ff 	movw   $0x1,-0xa6(%rbp)
    981b:	01 00 
    981d:	66 c7 85 5c ff ff ff 	movw   $0xffff,-0xa4(%rbp)
    9824:	ff ff 
    9826:	66 c7 85 5e ff ff ff 	movw   $0x657a,-0xa2(%rbp)
    982d:	7a 65 
    982f:	66 c7 85 60 ff ff ff 	movw   $0x707d,-0xa0(%rbp)
    9836:	7d 70 
    9838:	66 c7 85 62 ff ff ff 	movw   $0x3,-0x9e(%rbp)
    983f:	03 00 
    9841:	66 c7 85 64 ff ff ff 	movw   $0x8,-0x9c(%rbp)
    9848:	08 00 
    984a:	66 c7 85 66 ff ff ff 	movw   $0x707d,-0x9a(%rbp)
    9851:	7d 70 
    9853:	66 c7 85 68 ff ff ff 	movw   $0x1,-0x98(%rbp)
    985a:	01 00 
    985c:	66 c7 85 6a ff ff ff 	movw   $0x657a,-0x96(%rbp)
    9863:	7a 65 
    9865:	66 c7 85 6c ff ff ff 	movw   $0xc8d3,-0x94(%rbp)
    986c:	d3 c8 
    986e:	66 c7 85 6e ff ff ff 	movw   $0x3,-0x92(%rbp)
    9875:	03 00 
    9877:	66 c7 85 70 ff ff ff 	movw   $0x1,-0x90(%rbp)
    987e:	01 00 
    9880:	66 c7 85 72 ff ff ff 	movw   $0xc8d3,-0x8e(%rbp)
    9887:	d3 c8 
    9889:	66 c7 85 74 ff ff ff 	movw   $0x1,-0x8c(%rbp)
    9890:	01 00 
    9892:	66 c7 85 76 ff ff ff 	movw   $0x8,-0x8a(%rbp)
    9899:	08 00 
    989b:	66 c7 85 78 ff ff ff 	movw   $0xffff,-0x88(%rbp)
    98a2:	ff ff 
    98a4:	66 c7 85 7a ff ff ff 	movw   $0xc8d3,-0x86(%rbp)
    98ab:	d3 c8 
    98ad:	66 c7 85 7c ff ff ff 	movw   $0xb0c7,-0x84(%rbp)
    98b4:	c7 b0 
    98b6:	66 c7 85 7e ff ff ff 	movw   $0xe76d,-0x82(%rbp)
    98bd:	6d e7 
    98bf:	66 c7 45 80 6d e7    	movw   $0xe76d,-0x80(%rbp)
    98c5:	66 c7 45 82 c7 b0    	movw   $0xb0c7,-0x7e(%rbp)
    98cb:	66 c7 45 84 d3 c8    	movw   $0xc8d3,-0x7c(%rbp)
    98d1:	66 c7 45 86 03 00    	movw   $0x3,-0x7a(%rbp)
    98d7:	66 c7 45 88 7a 65    	movw   $0x657a,-0x78(%rbp)
    98dd:	66 c7 45 8a 03 00    	movw   $0x3,-0x76(%rbp)
    98e3:	66 c7 45 8c 6d e7    	movw   $0xe76d,-0x74(%rbp)
    98e9:	66 c7 45 8e 7b eb    	movw   $0xeb7b,-0x72(%rbp)
    98ef:	66 c7 45 90 ff ff    	movw   $0xffff,-0x70(%rbp)
    98f5:	66 c7 45 92 6d e7    	movw   $0xe76d,-0x6e(%rbp)
    98fb:	66 c7 45 94 01 00    	movw   $0x1,-0x6c(%rbp)
    9901:	66 c7 45 96 7d 70    	movw   $0x707d,-0x6a(%rbp)
    9907:	66 c7 45 98 7d 70    	movw   $0x707d,-0x68(%rbp)
    990d:	66 c7 45 9a 01 00    	movw   $0x1,-0x66(%rbp)
    9913:	66 c7 45 9c 6d e7    	movw   $0xe76d,-0x64(%rbp)
    9919:	66 c7 45 9e ff ff    	movw   $0xffff,-0x62(%rbp)
    991f:	66 c7 45 a0 7b eb    	movw   $0xeb7b,-0x60(%rbp)
    9925:	66 c7 45 a2 6d e7    	movw   $0xe76d,-0x5e(%rbp)
    992b:	66 c7 45 a4 03 00    	movw   $0x3,-0x5c(%rbp)
    9931:	66 c7 45 a6 7a 65    	movw   $0x657a,-0x5a(%rbp)
    9937:	66 c7 45 a8 03 00    	movw   $0x3,-0x58(%rbp)
    993d:	66 c7 45 aa d3 c8    	movw   $0xc8d3,-0x56(%rbp)
    9943:	66 c7 45 ac c7 b0    	movw   $0xb0c7,-0x54(%rbp)
    9949:	66 c7 45 ae 6d e7    	movw   $0xe76d,-0x52(%rbp)
    994f:	66 c7 45 b0 6d e7    	movw   $0xe76d,-0x50(%rbp)
    9955:	66 c7 45 b2 c7 b0    	movw   $0xb0c7,-0x4e(%rbp)
    995b:	66 c7 45 b4 d3 c8    	movw   $0xc8d3,-0x4c(%rbp)
    9961:	66 c7 45 b6 ff ff    	movw   $0xffff,-0x4a(%rbp)
    9967:	66 c7 45 b8 08 00    	movw   $0x8,-0x48(%rbp)
    996d:	66 c7 45 ba 01 00    	movw   $0x1,-0x46(%rbp)
    9973:	48 8d 05 aa a6 01 00 	lea    0x1a6aa(%rip),%rax        # 24024 <g_9>
    997a:	48 89 85 f0 fe ff ff 	mov    %rax,-0x110(%rbp)
    9981:	48 c7 85 00 ff ff ff 	movq   $0x0,-0x100(%rbp)
    9988:	00 00 00 00 
    998c:	48 c7 85 08 ff ff ff 	movq   $0x0,-0xf8(%rbp)
    9993:	00 00 00 00 
    9997:	48 c7 85 10 ff ff ff 	movq   $0x0,-0xf0(%rbp)
    999e:	00 00 00 00 
    99a2:	48 c7 85 18 ff ff ff 	movq   $0x0,-0xe8(%rbp)
    99a9:	00 00 00 00 
    99ad:	66 c7 85 e2 fe ff ff 	movw   $0xfae,-0x11e(%rbp)
    99b4:	ae 0f 
    99b6:	48 8d 05 6f b1 01 00 	lea    0x1b16f(%rip),%rax        # 24b2c <g_3411>
    99bd:	48 89 85 f8 fe ff ff 	mov    %rax,-0x108(%rbp)
    99c4:	c7 85 e4 fe ff ff 00 	movl   $0x0,-0x11c(%rbp)
    99cb:	00 00 00 
    99ce:	eb 1e                	jmp    99ee <func_1+0x239>
    99d0:	8b 85 e4 fe ff ff    	mov    -0x11c(%rbp),%eax
    99d6:	48 98                	cltq   
    99d8:	48 8d 15 c9 d3 01 00 	lea    0x1d3c9(%rip),%rdx        # 26da8 <g_236+0x8>
    99df:	48 89 94 c5 20 ff ff 	mov    %rdx,-0xe0(%rbp,%rax,8)
    99e6:	ff 
    99e7:	83 85 e4 fe ff ff 01 	addl   $0x1,-0x11c(%rbp)
    99ee:	83 bd e4 fe ff ff 04 	cmpl   $0x4,-0x11c(%rbp)
    99f5:	7e d9                	jle    99d0 <func_1+0x21b>
    99f7:	48 8b 85 f0 fe ff ff 	mov    -0x110(%rbp),%rax
    99fe:	8b 00                	mov    (%rax),%eax
    9a00:	48 98                	cltq   
    9a02:	48 89 85 d8 fe ff ff 	mov    %rax,-0x128(%rbp)
    9a09:	48 8b 85 f0 fe ff ff 	mov    -0x110(%rbp),%rax
    9a10:	8b 00                	mov    (%rax),%eax
    9a12:	4c 63 e0             	movslq %eax,%r12
    9a15:	48 8b 85 f0 fe ff ff 	mov    -0x110(%rbp),%rax
    9a1c:	44 8b 28             	mov    (%rax),%r13d
    9a1f:	b8 91 b8 fb ef       	mov    $0xeffbb891,%eax
    9a24:	0f bf c8             	movswl %ax,%ecx
    9a27:	89 8d d4 fe ff ff    	mov    %ecx,-0x12c(%rbp)
    9a2d:	48 8b 85 f0 fe ff ff 	mov    -0x110(%rbp),%rax
    9a34:	8b 00                	mov    (%rax),%eax
    9a36:	4c 63 f0             	movslq %eax,%r14
    9a39:	48 8b 85 f0 fe ff ff 	mov    -0x110(%rbp),%rax
    9a40:	8b 00                	mov    (%rax),%eax
    9a42:	4c 63 f8             	movslq %eax,%r15
    9a45:	8b 1d d9 a5 01 00    	mov    0x1a5d9(%rip),%ebx        # 24024 <g_9>
    9a4b:	48 8b 85 e8 fe ff ff 	mov    -0x118(%rbp),%rax
    9a52:	89 c6                	mov    %eax,%esi
    9a54:	bf 07 00 00 00       	mov    $0x7,%edi
    9a59:	e8 9f f4 ff ff       	callq  8efd <safe_mod_func_uint32_t_u_u>
    9a5e:	98                   	cwtl   
    9a5f:	89 de                	mov    %ebx,%esi
    9a61:	89 c7                	mov    %eax,%edi
    9a63:	e8 c2 ea ff ff       	callq  852a <safe_rshift_func_int16_t_s_s>
    9a68:	b8 01 00 00 00       	mov    $0x1,%eax
    9a6d:	48 98                	cltq   
    9a6f:	48 39 85 e8 fe ff ff 	cmp    %rax,-0x118(%rbp)
    9a76:	0f 95 c0             	setne  %al
    9a79:	0f b6 c0             	movzbl %al,%eax
    9a7c:	be 09 00 00 00       	mov    $0x9,%esi
    9a81:	89 c7                	mov    %eax,%edi
    9a83:	e8 0a ea ff ff       	callq  8492 <safe_lshift_func_int16_t_s_s>
    9a88:	0f b7 85 6e ff ff ff 	movzwl -0x92(%rbp),%eax
    9a8f:	66 85 c0             	test   %ax,%ax
    9a92:	8b 05 8c a5 01 00    	mov    0x1a58c(%rip),%eax        # 24024 <g_9>
    9a98:	89 c1                	mov    %eax,%ecx
    9a9a:	48 8b 85 e8 fe ff ff 	mov    -0x118(%rbp),%rax
    9aa1:	0f be c0             	movsbl %al,%eax
    9aa4:	ba 00 00 00 00       	mov    $0x0,%edx
    9aa9:	89 ce                	mov    %ecx,%esi
    9aab:	89 c7                	mov    %eax,%edi
    9aad:	e8 8d 16 01 00       	callq  1b13f <func_42>
    9ab2:	89 c7                	mov    %eax,%edi
    9ab4:	48 8b 1d 15 d6 01 00 	mov    0x1d615(%rip),%rbx        # 270d0 <g_359>
    9abb:	48 8b 95 f0 fe ff ff 	mov    -0x110(%rbp),%rdx
    9ac2:	48 8b 85 f0 fe ff ff 	mov    -0x110(%rbp),%rax
    9ac9:	49 89 d0             	mov    %rdx,%r8
    9acc:	48 89 c1             	mov    %rax,%rcx
    9acf:	48 8d 15 4e a5 01 00 	lea    0x1a54e(%rip),%rdx        # 24024 <g_9>
    9ad6:	48 8d 35 47 a5 01 00 	lea    0x1a547(%rip),%rsi        # 24024 <g_9>
    9add:	e8 41 da 00 00       	callq  17523 <func_36>
    9ae2:	48 89 03             	mov    %rax,(%rbx)
    9ae5:	48 8b 03             	mov    (%rbx),%rax
    9ae8:	48 8d 15 35 a5 01 00 	lea    0x1a535(%rip),%rdx        # 24024 <g_9>
    9aef:	48 39 d0             	cmp    %rdx,%rax
    9af2:	0f 95 c0             	setne  %al
    9af5:	0f b6 c0             	movzbl %al,%eax
    9af8:	4c 89 fe             	mov    %r15,%rsi
    9afb:	89 c7                	mov    %eax,%edi
    9afd:	e8 81 c6 00 00       	callq  16183 <func_33>
    9b02:	48 89 c6             	mov    %rax,%rsi
    9b05:	48 8d 3d 18 a5 01 00 	lea    0x1a518(%rip),%rdi        # 24024 <g_9>
    9b0c:	e8 7a 8b 00 00       	callq  1268b <func_30>
    9b11:	0f b7 c0             	movzwl %ax,%eax
    9b14:	be 09 00 00 00       	mov    $0x9,%esi
    9b19:	89 c7                	mov    %eax,%edi
    9b1b:	e8 28 f3 ff ff       	callq  8e48 <safe_rshift_func_uint16_t_u_s>
    9b20:	0f b7 c0             	movzwl %ax,%eax
    9b23:	89 05 0f af 01 00    	mov    %eax,0x1af0f(%rip)        # 24a38 <g_2023>
    9b29:	8b 05 09 af 01 00    	mov    0x1af09(%rip),%eax        # 24a38 <g_2023>
    9b2f:	66 89 85 e2 fe ff ff 	mov    %ax,-0x11e(%rbp)
    9b36:	0f b7 85 e2 fe ff ff 	movzwl -0x11e(%rbp),%eax
    9b3d:	66 89 05 fa ae 01 00 	mov    %ax,0x1aefa(%rip)        # 24a3e <g_2025+0x2>
    9b44:	0f b7 05 f3 ae 01 00 	movzwl 0x1aef3(%rip),%eax        # 24a3e <g_2025+0x2>
    9b4b:	66 83 f8 01          	cmp    $0x1,%ax
    9b4f:	0f 97 c0             	seta   %al
    9b52:	0f b6 c0             	movzbl %al,%eax
    9b55:	be 0c c4 09 43       	mov    $0x4309c40c,%esi
    9b5a:	89 c7                	mov    %eax,%edi
    9b5c:	e8 9e eb ff ff       	callq  86ff <safe_div_func_int32_t_s_s>
    9b61:	0f b7 c0             	movzwl %ax,%eax
    9b64:	44 8b 85 d4 fe ff ff 	mov    -0x12c(%rbp),%r8d
    9b6b:	48 8d 0d 2a 35 01 00 	lea    0x1352a(%rip),%rcx        # 1d09c <g_1982>
    9b72:	48 8d 15 13 35 01 00 	lea    0x13513(%rip),%rdx        # 1d08c <g_1700+0x2c>
    9b79:	4c 89 f6             	mov    %r14,%rsi
    9b7c:	89 c7                	mov    %eax,%edi
    9b7e:	e8 dc 81 00 00       	callq  11d5f <func_19>
    9b83:	48 89 c2             	mov    %rax,%rdx
    9b86:	48 8b 85 f8 fe ff ff 	mov    -0x108(%rbp),%rax
    9b8d:	48 89 c6             	mov    %rax,%rsi
    9b90:	48 89 d7             	mov    %rdx,%rdi
    9b93:	e8 be 58 00 00       	callq  f456 <func_16>
    9b98:	3d 19 0d 8b fe       	cmp    $0xfe8b0d19,%eax
    9b9d:	0f 94 c0             	sete   %al
    9ba0:	0f b6 c0             	movzbl %al,%eax
    9ba3:	44 89 ee             	mov    %r13d,%esi
    9ba6:	89 c7                	mov    %eax,%edi
    9ba8:	e8 e0 f0 ff ff       	callq  8c8d <safe_rshift_func_uint8_t_u_s>
    9bad:	0f b6 c0             	movzbl %al,%eax
    9bb0:	48 89 c7             	mov    %rax,%rdi
    9bb3:	e8 8e 55 00 00       	callq  f146 <func_12>
    9bb8:	48 89 c7             	mov    %rax,%rdi
    9bbb:	e8 e0 54 00 00       	callq  f0a0 <func_10>
    9bc0:	48 8b 05 71 d6 01 00 	mov    0x1d671(%rip),%rax        # 27238 <g_1225>
    9bc7:	48 8b 10             	mov    (%rax),%rdx
    9bca:	48 8b 05 af d1 01 00 	mov    0x1d1af(%rip),%rax        # 26d80 <g_8>
    9bd1:	48 39 c2             	cmp    %rax,%rdx
    9bd4:	0f 94 c0             	sete   %al
    9bd7:	0f b6 c0             	movzbl %al,%eax
    9bda:	48 8b 1d 07 d8 01 00 	mov    0x1d807(%rip),%rbx        # 273e8 <g_1983>
    9be1:	4c 8b 85 d8 fe ff ff 	mov    -0x128(%rbp),%r8
    9be8:	48 8d 0d 35 a4 01 00 	lea    0x1a435(%rip),%rcx        # 24024 <g_9>
    9bef:	4c 89 e2             	mov    %r12,%rdx
    9bf2:	48 8d 35 2b a4 01 00 	lea    0x1a42b(%rip),%rsi        # 24024 <g_9>
    9bf9:	89 c7                	mov    %eax,%edi
    9bfb:	e8 3c 00 00 00       	callq  9c3c <func_2>
    9c00:	48 89 03             	mov    %rax,(%rbx)
    9c03:	48 8b 05 16 d5 01 00 	mov    0x1d516(%rip),%rax        # 27120 <g_676>
    9c0a:	48 8b 00             	mov    (%rax),%rax
    9c0d:	48 8b 00             	mov    (%rax),%rax
    9c10:	48 8b 00             	mov    (%rax),%rax
    9c13:	48 8b 00             	mov    (%rax),%rax
    9c16:	48 8b 4d c8          	mov    -0x38(%rbp),%rcx
    9c1a:	64 48 33 0c 25 28 00 	xor    %fs:0x28,%rcx
    9c21:	00 00 
    9c23:	74 05                	je     9c2a <func_1+0x475>
    9c25:	e8 46 e4 ff ff       	callq  8070 <__stack_chk_fail@plt>
    9c2a:	48 81 c4 08 01 00 00 	add    $0x108,%rsp
    9c31:	5b                   	pop    %rbx
    9c32:	41 5c                	pop    %r12
    9c34:	41 5d                	pop    %r13
    9c36:	41 5e                	pop    %r14
    9c38:	41 5f                	pop    %r15
    9c3a:	5d                   	pop    %rbp
    9c3b:	c3                   	retq   

0000000000009c3c <func_2>:
    9c3c:	f3 0f 1e fa          	endbr64 
    9c40:	55                   	push   %rbp
    9c41:	48 89 e5             	mov    %rsp,%rbp
    9c44:	41 57                	push   %r15
    9c46:	41 56                	push   %r14
    9c48:	41 55                	push   %r13
    9c4a:	41 54                	push   %r12
    9c4c:	53                   	push   %rbx
    9c4d:	48 81 ec 00 10 00 00 	sub    $0x1000,%rsp
    9c54:	48 83 0c 24 00       	orq    $0x0,(%rsp)
    9c59:	48 81 ec 88 0c 00 00 	sub    $0xc88,%rsp
    9c60:	89 f8                	mov    %edi,%eax
    9c62:	48 89 b5 70 e3 ff ff 	mov    %rsi,-0x1c90(%rbp)
    9c69:	48 89 95 68 e3 ff ff 	mov    %rdx,-0x1c98(%rbp)
    9c70:	48 89 8d 60 e3 ff ff 	mov    %rcx,-0x1ca0(%rbp)
    9c77:	4c 89 85 58 e3 ff ff 	mov    %r8,-0x1ca8(%rbp)
    9c7e:	88 85 7c e3 ff ff    	mov    %al,-0x1c84(%rbp)
    9c84:	64 48 8b 04 25 28 00 	mov    %fs:0x28,%rax
    9c8b:	00 00 
    9c8d:	48 89 45 c8          	mov    %rax,-0x38(%rbp)
    9c91:	31 c0                	xor    %eax,%eax
    9c93:	66 c7 85 94 e3 ff ff 	movw   $0xfffd,-0x1c6c(%rbp)
    9c9a:	fd ff 
    9c9c:	66 c7 85 d0 eb ff ff 	movw   $0xd2b4,-0x1430(%rbp)
    9ca3:	b4 d2 
    9ca5:	c6 85 d2 eb ff ff e5 	movb   $0xe5,-0x142e(%rbp)
    9cac:	66 c7 85 d3 eb ff ff 	movw   $0xb4d2,-0x142d(%rbp)
    9cb3:	d2 b4 
    9cb5:	c6 85 d5 eb ff ff 40 	movb   $0x40,-0x142b(%rbp)
    9cbc:	66 c7 85 d6 eb ff ff 	movw   $0xb4ff,-0x142a(%rbp)
    9cc3:	ff b4 
    9cc5:	c6 85 d8 eb ff ff 48 	movb   $0x48,-0x1428(%rbp)
    9ccc:	66 c7 85 d9 eb ff ff 	movw   $0xd200,-0x1427(%rbp)
    9cd3:	00 d2 
    9cd5:	c6 85 db eb ff ff f6 	movb   $0xf6,-0x1425(%rbp)
    9cdc:	66 c7 85 dc eb ff ff 	movw   $0xffff,-0x1424(%rbp)
    9ce3:	ff ff 
    9ce5:	c6 85 de eb ff ff f6 	movb   $0xf6,-0x1422(%rbp)
    9cec:	66 c7 85 df eb ff ff 	movw   $0xd2,-0x1421(%rbp)
    9cf3:	d2 00 
    9cf5:	c6 85 e1 eb ff ff 48 	movb   $0x48,-0x141f(%rbp)
    9cfc:	66 c7 85 e2 eb ff ff 	movw   $0xffb4,-0x141e(%rbp)
    9d03:	b4 ff 
    9d05:	c6 85 e4 eb ff ff 40 	movb   $0x40,-0x141c(%rbp)
    9d0c:	66 c7 85 e5 eb ff ff 	movw   $0xd2b4,-0x141b(%rbp)
    9d13:	b4 d2 
    9d15:	c6 85 e7 eb ff ff e5 	movb   $0xe5,-0x1419(%rbp)
    9d1c:	66 c7 85 e8 eb ff ff 	movw   $0xb4d2,-0x1418(%rbp)
    9d23:	d2 b4 
    9d25:	c6 85 ea eb ff ff 40 	movb   $0x40,-0x1416(%rbp)
    9d2c:	66 c7 85 eb eb ff ff 	movw   $0xb4ff,-0x1415(%rbp)
    9d33:	ff b4 
    9d35:	c6 85 ed eb ff ff 48 	movb   $0x48,-0x1413(%rbp)
    9d3c:	66 c7 85 ee eb ff ff 	movw   $0xff00,-0x1412(%rbp)
    9d43:	00 ff 
    9d45:	c6 85 f0 eb ff ff ff 	movb   $0xff,-0x1410(%rbp)
    9d4c:	66 c7 85 f1 eb ff ff 	movw   $0xfdfd,-0x140f(%rbp)
    9d53:	fd fd 
    9d55:	c6 85 f3 eb ff ff ff 	movb   $0xff,-0x140d(%rbp)
    9d5c:	66 c7 85 f4 eb ff ff 	movw   $0x12ff,-0x140c(%rbp)
    9d63:	ff 12 
    9d65:	c6 85 f6 eb ff ff f5 	movb   $0xf5,-0x140a(%rbp)
    9d6c:	66 c7 85 f7 eb ff ff 	movw   $0xfdff,-0x1409(%rbp)
    9d73:	ff fd 
    9d75:	c6 85 f9 eb ff ff 00 	movb   $0x0,-0x1407(%rbp)
    9d7c:	66 c7 85 fa eb ff ff 	movw   $0xffff,-0x1406(%rbp)
    9d83:	ff ff 
    9d85:	c6 85 fc eb ff ff 01 	movb   $0x1,-0x1404(%rbp)
    9d8c:	66 c7 85 fd eb ff ff 	movw   $0xffff,-0x1403(%rbp)
    9d93:	ff ff 
    9d95:	c6 85 ff eb ff ff 00 	movb   $0x0,-0x1401(%rbp)
    9d9c:	66 c7 85 00 ec ff ff 	movw   $0xfffd,-0x1400(%rbp)
    9da3:	fd ff 
    9da5:	c6 85 02 ec ff ff f5 	movb   $0xf5,-0x13fe(%rbp)
    9dac:	66 c7 85 03 ec ff ff 	movw   $0xff12,-0x13fd(%rbp)
    9db3:	12 ff 
    9db5:	c6 85 05 ec ff ff ff 	movb   $0xff,-0x13fb(%rbp)
    9dbc:	66 c7 85 06 ec ff ff 	movw   $0xfdfd,-0x13fa(%rbp)
    9dc3:	fd fd 
    9dc5:	c6 85 08 ec ff ff ff 	movb   $0xff,-0x13f8(%rbp)
    9dcc:	66 c7 85 09 ec ff ff 	movw   $0x12ff,-0x13f7(%rbp)
    9dd3:	ff 12 
    9dd5:	c6 85 0b ec ff ff f5 	movb   $0xf5,-0x13f5(%rbp)
    9ddc:	66 c7 85 0c ec ff ff 	movw   $0xfdff,-0x13f4(%rbp)
    9de3:	ff fd 
    9de5:	c6 85 0e ec ff ff 00 	movb   $0x0,-0x13f2(%rbp)
    9dec:	66 c7 85 0f ec ff ff 	movw   $0xffff,-0x13f1(%rbp)
    9df3:	ff ff 
    9df5:	c6 85 11 ec ff ff 01 	movb   $0x1,-0x13ef(%rbp)
    9dfc:	66 c7 85 12 ec ff ff 	movw   $0xffff,-0x13ee(%rbp)
    9e03:	ff ff 
    9e05:	c6 85 14 ec ff ff 00 	movb   $0x0,-0x13ec(%rbp)
    9e0c:	66 c7 85 15 ec ff ff 	movw   $0xfffd,-0x13eb(%rbp)
    9e13:	fd ff 
    9e15:	c6 85 17 ec ff ff f5 	movb   $0xf5,-0x13e9(%rbp)
    9e1c:	66 c7 85 18 ec ff ff 	movw   $0xff12,-0x13e8(%rbp)
    9e23:	12 ff 
    9e25:	c6 85 1a ec ff ff ff 	movb   $0xff,-0x13e6(%rbp)
    9e2c:	66 c7 85 1b ec ff ff 	movw   $0xfdfd,-0x13e5(%rbp)
    9e33:	fd fd 
    9e35:	c6 85 1d ec ff ff ff 	movb   $0xff,-0x13e3(%rbp)
    9e3c:	66 c7 85 1e ec ff ff 	movw   $0x12ff,-0x13e2(%rbp)
    9e43:	ff 12 
    9e45:	c6 85 20 ec ff ff f5 	movb   $0xf5,-0x13e0(%rbp)
    9e4c:	66 c7 85 21 ec ff ff 	movw   $0xfdff,-0x13df(%rbp)
    9e53:	ff fd 
    9e55:	c6 85 23 ec ff ff 00 	movb   $0x0,-0x13dd(%rbp)
    9e5c:	66 c7 85 24 ec ff ff 	movw   $0xffff,-0x13dc(%rbp)
    9e63:	ff ff 
    9e65:	c6 85 26 ec ff ff 01 	movb   $0x1,-0x13da(%rbp)
    9e6c:	66 c7 85 27 ec ff ff 	movw   $0xffff,-0x13d9(%rbp)
    9e73:	ff ff 
    9e75:	c6 85 29 ec ff ff 00 	movb   $0x0,-0x13d7(%rbp)
    9e7c:	66 c7 85 2a ec ff ff 	movw   $0xfffd,-0x13d6(%rbp)
    9e83:	fd ff 
    9e85:	c6 85 2c ec ff ff f5 	movb   $0xf5,-0x13d4(%rbp)
    9e8c:	66 c7 85 2d ec ff ff 	movw   $0xff12,-0x13d3(%rbp)
    9e93:	12 ff 
    9e95:	c6 85 2f ec ff ff ff 	movb   $0xff,-0x13d1(%rbp)
    9e9c:	66 c7 85 30 ec ff ff 	movw   $0xfdfd,-0x13d0(%rbp)
    9ea3:	fd fd 
    9ea5:	c6 85 32 ec ff ff ff 	movb   $0xff,-0x13ce(%rbp)
    9eac:	66 c7 85 33 ec ff ff 	movw   $0x12ff,-0x13cd(%rbp)
    9eb3:	ff 12 
    9eb5:	c6 85 35 ec ff ff f5 	movb   $0xf5,-0x13cb(%rbp)
    9ebc:	66 c7 85 36 ec ff ff 	movw   $0xfdff,-0x13ca(%rbp)
    9ec3:	ff fd 
    9ec5:	c6 85 38 ec ff ff 00 	movb   $0x0,-0x13c8(%rbp)
    9ecc:	66 c7 85 39 ec ff ff 	movw   $0xffff,-0x13c7(%rbp)
    9ed3:	ff ff 
    9ed5:	c6 85 3b ec ff ff 01 	movb   $0x1,-0x13c5(%rbp)
    9edc:	66 c7 85 3c ec ff ff 	movw   $0xffff,-0x13c4(%rbp)
    9ee3:	ff ff 
    9ee5:	c6 85 3e ec ff ff 00 	movb   $0x0,-0x13c2(%rbp)
    9eec:	66 c7 85 3f ec ff ff 	movw   $0xfffd,-0x13c1(%rbp)
    9ef3:	fd ff 
    9ef5:	c6 85 41 ec ff ff f5 	movb   $0xf5,-0x13bf(%rbp)
    9efc:	66 c7 85 42 ec ff ff 	movw   $0xff12,-0x13be(%rbp)
    9f03:	12 ff 
    9f05:	c6 85 44 ec ff ff ff 	movb   $0xff,-0x13bc(%rbp)
    9f0c:	66 c7 85 45 ec ff ff 	movw   $0xfdfd,-0x13bb(%rbp)
    9f13:	fd fd 
    9f15:	c6 85 47 ec ff ff ff 	movb   $0xff,-0x13b9(%rbp)
    9f1c:	66 c7 85 48 ec ff ff 	movw   $0x12ff,-0x13b8(%rbp)
    9f23:	ff 12 
    9f25:	c6 85 4a ec ff ff f5 	movb   $0xf5,-0x13b6(%rbp)
    9f2c:	66 c7 85 4b ec ff ff 	movw   $0xfdff,-0x13b5(%rbp)
    9f33:	ff fd 
    9f35:	c6 85 4d ec ff ff 00 	movb   $0x0,-0x13b3(%rbp)
    9f3c:	66 c7 85 4e ec ff ff 	movw   $0xffff,-0x13b2(%rbp)
    9f43:	ff ff 
    9f45:	c6 85 50 ec ff ff 01 	movb   $0x1,-0x13b0(%rbp)
    9f4c:	66 c7 85 51 ec ff ff 	movw   $0xffff,-0x13af(%rbp)
    9f53:	ff ff 
    9f55:	c6 85 53 ec ff ff 00 	movb   $0x0,-0x13ad(%rbp)
    9f5c:	66 c7 85 54 ec ff ff 	movw   $0xfffd,-0x13ac(%rbp)
    9f63:	fd ff 
    9f65:	c6 85 56 ec ff ff f5 	movb   $0xf5,-0x13aa(%rbp)
    9f6c:	66 c7 85 57 ec ff ff 	movw   $0xff12,-0x13a9(%rbp)
    9f73:	12 ff 
    9f75:	c6 85 59 ec ff ff ff 	movb   $0xff,-0x13a7(%rbp)
    9f7c:	66 c7 85 5a ec ff ff 	movw   $0xfdfd,-0x13a6(%rbp)
    9f83:	fd fd 
    9f85:	c6 85 5c ec ff ff ff 	movb   $0xff,-0x13a4(%rbp)
    9f8c:	66 c7 85 5d ec ff ff 	movw   $0x12ff,-0x13a3(%rbp)
    9f93:	ff 12 
    9f95:	c6 85 5f ec ff ff f5 	movb   $0xf5,-0x13a1(%rbp)
    9f9c:	66 c7 85 60 ec ff ff 	movw   $0xfdff,-0x13a0(%rbp)
    9fa3:	ff fd 
    9fa5:	c6 85 62 ec ff ff 00 	movb   $0x0,-0x139e(%rbp)
    9fac:	66 c7 85 63 ec ff ff 	movw   $0xffff,-0x139d(%rbp)
    9fb3:	ff ff 
    9fb5:	c6 85 65 ec ff ff 01 	movb   $0x1,-0x139b(%rbp)
    9fbc:	66 c7 85 66 ec ff ff 	movw   $0xffff,-0x139a(%rbp)
    9fc3:	ff ff 
    9fc5:	c6 85 68 ec ff ff 00 	movb   $0x0,-0x1398(%rbp)
    9fcc:	66 c7 85 69 ec ff ff 	movw   $0xfffd,-0x1397(%rbp)
    9fd3:	fd ff 
    9fd5:	c6 85 6b ec ff ff f5 	movb   $0xf5,-0x1395(%rbp)
    9fdc:	66 c7 85 6c ec ff ff 	movw   $0xff12,-0x1394(%rbp)
    9fe3:	12 ff 
    9fe5:	c6 85 6e ec ff ff ff 	movb   $0xff,-0x1392(%rbp)
    9fec:	66 c7 85 6f ec ff ff 	movw   $0xfdfd,-0x1391(%rbp)
    9ff3:	fd fd 
    9ff5:	c6 85 71 ec ff ff ff 	movb   $0xff,-0x138f(%rbp)
    9ffc:	66 c7 85 72 ec ff ff 	movw   $0x12ff,-0x138e(%rbp)
    a003:	ff 12 
    a005:	c6 85 74 ec ff ff f5 	movb   $0xf5,-0x138c(%rbp)
    a00c:	66 c7 85 75 ec ff ff 	movw   $0xfdff,-0x138b(%rbp)
    a013:	ff fd 
    a015:	c6 85 77 ec ff ff 00 	movb   $0x0,-0x1389(%rbp)
    a01c:	66 c7 85 78 ec ff ff 	movw   $0xffff,-0x1388(%rbp)
    a023:	ff ff 
    a025:	c6 85 7a ec ff ff 01 	movb   $0x1,-0x1386(%rbp)
    a02c:	66 c7 85 7b ec ff ff 	movw   $0xffff,-0x1385(%rbp)
    a033:	ff ff 
    a035:	c6 85 7d ec ff ff 00 	movb   $0x0,-0x1383(%rbp)
    a03c:	66 c7 85 7e ec ff ff 	movw   $0xfffd,-0x1382(%rbp)
    a043:	fd ff 
    a045:	c6 85 80 ec ff ff f5 	movb   $0xf5,-0x1380(%rbp)
    a04c:	66 c7 85 81 ec ff ff 	movw   $0xff12,-0x137f(%rbp)
    a053:	12 ff 
    a055:	c6 85 83 ec ff ff ff 	movb   $0xff,-0x137d(%rbp)
    a05c:	66 c7 85 84 ec ff ff 	movw   $0xfdfd,-0x137c(%rbp)
    a063:	fd fd 
    a065:	c6 85 86 ec ff ff ff 	movb   $0xff,-0x137a(%rbp)
    a06c:	66 c7 85 87 ec ff ff 	movw   $0x12ff,-0x1379(%rbp)
    a073:	ff 12 
    a075:	c6 85 89 ec ff ff f5 	movb   $0xf5,-0x1377(%rbp)
    a07c:	66 c7 85 8a ec ff ff 	movw   $0xfdff,-0x1376(%rbp)
    a083:	ff fd 
    a085:	c6 85 8c ec ff ff 00 	movb   $0x0,-0x1374(%rbp)
    a08c:	66 c7 85 8d ec ff ff 	movw   $0xffff,-0x1373(%rbp)
    a093:	ff ff 
    a095:	c6 85 8f ec ff ff 01 	movb   $0x1,-0x1371(%rbp)
    a09c:	66 c7 85 90 ec ff ff 	movw   $0xffff,-0x1370(%rbp)
    a0a3:	ff ff 
    a0a5:	c6 85 92 ec ff ff 00 	movb   $0x0,-0x136e(%rbp)
    a0ac:	66 c7 85 93 ec ff ff 	movw   $0xfffd,-0x136d(%rbp)
    a0b3:	fd ff 
    a0b5:	c6 85 95 ec ff ff f5 	movb   $0xf5,-0x136b(%rbp)
    a0bc:	66 c7 85 96 ec ff ff 	movw   $0xff12,-0x136a(%rbp)
    a0c3:	12 ff 
    a0c5:	c6 85 98 ec ff ff ff 	movb   $0xff,-0x1368(%rbp)
    a0cc:	66 c7 85 99 ec ff ff 	movw   $0xfdfd,-0x1367(%rbp)
    a0d3:	fd fd 
    a0d5:	c6 85 9b ec ff ff ff 	movb   $0xff,-0x1365(%rbp)
    a0dc:	66 c7 85 9c ec ff ff 	movw   $0x12ff,-0x1364(%rbp)
    a0e3:	ff 12 
    a0e5:	c6 85 9e ec ff ff f5 	movb   $0xf5,-0x1362(%rbp)
    a0ec:	66 c7 85 9f ec ff ff 	movw   $0xfdff,-0x1361(%rbp)
    a0f3:	ff fd 
    a0f5:	c6 85 a1 ec ff ff 00 	movb   $0x0,-0x135f(%rbp)
    a0fc:	48 c7 85 f8 e5 ff ff 	movq   $0x0,-0x1a08(%rbp)
    a103:	00 00 00 00 
    a107:	48 c7 85 60 e5 ff ff 	movq   $0x0,-0x1aa0(%rbp)
    a10e:	00 00 00 00 
    a112:	48 c7 85 60 e9 ff ff 	movq   $0x0,-0x16a0(%rbp)
    a119:	00 00 00 00 
    a11d:	48 c7 85 68 e9 ff ff 	movq   $0x0,-0x1698(%rbp)
    a124:	00 00 00 00 
    a128:	48 8d 85 60 e5 ff ff 	lea    -0x1aa0(%rbp),%rax
    a12f:	48 89 85 70 e9 ff ff 	mov    %rax,-0x1690(%rbp)
    a136:	48 c7 85 78 e9 ff ff 	movq   $0x0,-0x1688(%rbp)
    a13d:	00 00 00 00 
    a141:	48 c7 85 80 e9 ff ff 	movq   $0x0,-0x1680(%rbp)
    a148:	00 00 00 00 
    a14c:	48 8d 85 60 e5 ff ff 	lea    -0x1aa0(%rbp),%rax
    a153:	48 89 85 88 e9 ff ff 	mov    %rax,-0x1678(%rbp)
    a15a:	c7 85 54 e4 ff ff 09 	movl   $0x9,-0x1bac(%rbp)
    a161:	00 00 00 
    a164:	c7 85 ac e3 ff ff 01 	movl   $0x1,-0x1c54(%rbp)
    a16b:	00 00 00 
    a16e:	48 8d 85 d0 f4 ff ff 	lea    -0xb30(%rbp),%rax
    a175:	48 8d 15 44 2f 01 00 	lea    0x12f44(%rip),%rdx        # 1d0c0 <g_5653+0x1f>
    a17c:	b9 7e 00 00 00       	mov    $0x7e,%ecx
    a181:	48 89 c7             	mov    %rax,%rdi
    a184:	48 89 d6             	mov    %rdx,%rsi
    a187:	f3 48 a5             	rep movsq %ds:(%rsi),%es:(%rdi)
    a18a:	48 8d 85 ac e3 ff ff 	lea    -0x1c54(%rbp),%rax
    a191:	48 89 85 68 e5 ff ff 	mov    %rax,-0x1a98(%rbp)
    a198:	48 8d 05 69 d0 01 00 	lea    0x1d069(%rip),%rax        # 27208 <g_1022>
    a19f:	48 89 85 70 e5 ff ff 	mov    %rax,-0x1a90(%rbp)
    a1a6:	c7 85 58 e4 ff ff 79 	movl   $0x48e78b79,-0x1ba8(%rbp)
    a1ad:	8b e7 48 
    a1b0:	c6 85 89 e3 ff ff fc 	movb   $0xfc,-0x1c77(%rbp)
    a1b7:	c6 85 8a e3 ff ff ff 	movb   $0xff,-0x1c76(%rbp)
    a1be:	c7 85 b0 e3 ff ff 59 	movl   $0xced9359,-0x1c50(%rbp)
    a1c5:	93 ed 0c 
    a1c8:	c7 85 b4 e3 ff ff f4 	movl   $0xc161f7f4,-0x1c4c(%rbp)
    a1cf:	f7 61 c1 
    a1d2:	c7 85 5c e4 ff ff 09 	movl   $0xba7b7809,-0x1ba4(%rbp)
    a1d9:	78 7b ba 
    a1dc:	c7 85 b8 e3 ff ff e2 	movl   $0x72947be2,-0x1c48(%rbp)
    a1e3:	7b 94 72 
    a1e6:	c7 85 bc e3 ff ff 3f 	movl   $0x2861e33f,-0x1c44(%rbp)
    a1ed:	e3 61 28 
    a1f0:	48 c7 85 f0 e5 ff ff 	movq   $0x0,-0x1a10(%rbp)
    a1f7:	00 00 00 00 
    a1fb:	c7 85 1c e4 ff ff ae 	movl   $0x4754d2ae,-0x1be4(%rbp)
    a202:	d2 54 47 
    a205:	48 8d 05 64 d2 01 00 	lea    0x1d264(%rip),%rax        # 27470 <g_2574>
    a20c:	48 89 85 00 e6 ff ff 	mov    %rax,-0x1a00(%rbp)
    a213:	48 b8 16 c9 65 14 e7 	movabs $0x7482e1e71465c916,%rax
    a21a:	e1 82 74 
    a21d:	48 89 85 08 e6 ff ff 	mov    %rax,-0x19f8(%rbp)
    a224:	c7 85 60 e4 ff ff 00 	movl   $0xb9ca3a00,-0x1ba0(%rbp)
    a22b:	3a ca b9 
    a22e:	c7 85 c0 e3 ff ff 25 	movl   $0x1b7cf25,-0x1c40(%rbp)
    a235:	cf b7 01 
    a238:	c7 85 c4 e3 ff ff 00 	movl   $0x0,-0x1c3c(%rbp)
    a23f:	00 00 00 
    a242:	c7 85 c8 e3 ff ff 96 	movl   $0x9bda9196,-0x1c38(%rbp)
    a249:	91 da 9b 
    a24c:	c7 85 cc e3 ff ff 28 	movl   $0xfb821628,-0x1c34(%rbp)
    a253:	16 82 fb 
    a256:	c7 85 d0 e3 ff ff 06 	movl   $0x6,-0x1c30(%rbp)
    a25d:	00 00 00 
    a260:	c7 85 00 e9 ff ff ff 	movl   $0xffffffff,-0x1700(%rbp)
    a267:	ff ff ff 
    a26a:	c7 85 04 e9 ff ff 8b 	movl   $0x1592838b,-0x16fc(%rbp)
    a271:	83 92 15 
    a274:	c7 85 08 e9 ff ff ff 	movl   $0xffffffff,-0x16f8(%rbp)
    a27b:	ff ff ff 
    a27e:	c7 85 0c e9 ff ff 8b 	movl   $0x1592838b,-0x16f4(%rbp)
    a285:	83 92 15 
    a288:	c7 85 10 e9 ff ff ff 	movl   $0xffffffff,-0x16f0(%rbp)
    a28f:	ff ff ff 
    a292:	c7 85 14 e9 ff ff 8b 	movl   $0x1592838b,-0x16ec(%rbp)
    a299:	83 92 15 
    a29c:	c7 85 18 e9 ff ff ff 	movl   $0xffffffff,-0x16e8(%rbp)
    a2a3:	ff ff ff 
    a2a6:	c7 85 1c e9 ff ff 8b 	movl   $0x1592838b,-0x16e4(%rbp)
    a2ad:	83 92 15 
    a2b0:	c7 85 20 e9 ff ff ff 	movl   $0xffffffff,-0x16e0(%rbp)
    a2b7:	ff ff ff 
    a2ba:	48 8d 85 b0 ec ff ff 	lea    -0x1350(%rbp),%rax
    a2c1:	48 8d 15 18 aa 01 00 	lea    0x1aa18(%rip),%rdx        # 24ce0 <g_5661+0xc>
    a2c8:	b9 2d 00 00 00       	mov    $0x2d,%ecx
    a2cd:	48 89 c7             	mov    %rax,%rdi
    a2d0:	48 89 d6             	mov    %rdx,%rsi
    a2d3:	f3 48 a5             	rep movsq %ds:(%rsi),%es:(%rdi)
    a2d6:	48 8d 85 b0 ec ff ff 	lea    -0x1350(%rbp),%rax
    a2dd:	48 05 90 00 00 00    	add    $0x90,%rax
    a2e3:	48 89 85 78 e5 ff ff 	mov    %rax,-0x1a88(%rbp)
    a2ea:	48 8d 85 78 e5 ff ff 	lea    -0x1a88(%rbp),%rax
    a2f1:	48 89 85 10 e6 ff ff 	mov    %rax,-0x19f0(%rbp)
    a2f8:	48 c7 85 18 e6 ff ff 	movq   $0xffffffffffffffff,-0x19e8(%rbp)
    a2ff:	ff ff ff ff 
    a303:	c7 85 20 e4 ff ff fd 	movl   $0xfffffffd,-0x1be0(%rbp)
    a30a:	ff ff ff 
    a30d:	48 c7 85 80 e5 ff ff 	movq   $0x1,-0x1a80(%rbp)
    a314:	01 00 00 00 
    a318:	48 8d 85 f0 f0 ff ff 	lea    -0xf10(%rbp),%rax
    a31f:	48 8d 15 9a 31 01 00 	lea    0x1319a(%rip),%rdx        # 1d4c0 <g_5653+0x41f>
    a326:	b9 7a 00 00 00       	mov    $0x7a,%ecx
    a32b:	48 89 c7             	mov    %rax,%rdi
    a32e:	48 89 d6             	mov    %rdx,%rsi
    a331:	f3 48 a5             	rep movsq %ds:(%rsi),%es:(%rdi)
    a334:	48 89 f2             	mov    %rsi,%rdx
    a337:	48 89 f8             	mov    %rdi,%rax
    a33a:	8b 0a                	mov    (%rdx),%ecx
    a33c:	89 08                	mov    %ecx,(%rax)
    a33e:	48 8d 40 04          	lea    0x4(%rax),%rax
    a342:	48 8d 52 04          	lea    0x4(%rdx),%rdx
    a346:	48 c7 85 20 e6 ff ff 	movq   $0x1,-0x19e0(%rbp)
    a34d:	01 00 00 00 
    a351:	c7 85 64 e4 ff ff 05 	movl   $0x5,-0x1b9c(%rbp)
    a358:	00 00 00 
    a35b:	48 8d 05 46 dc 01 00 	lea    0x1dc46(%rip),%rax        # 27fa8 <g_1059>
    a362:	48 89 85 28 e6 ff ff 	mov    %rax,-0x19d8(%rbp)
    a369:	c7 85 68 e4 ff ff de 	movl   $0x83e19dde,-0x1b98(%rbp)
    a370:	9d e1 83 
    a373:	48 8d 05 36 d1 01 00 	lea    0x1d136(%rip),%rax        # 274b0 <g_3596>
    a37a:	48 89 85 30 e6 ff ff 	mov    %rax,-0x19d0(%rbp)
    a381:	48 b8 20 be f9 25 e2 	movabs $0x2db502e225f9be20,%rax
    a388:	02 b5 2d 
    a38b:	48 89 85 38 e6 ff ff 	mov    %rax,-0x19c8(%rbp)
    a392:	c7 85 24 e4 ff ff 08 	movl   $0x8,-0x1bdc(%rbp)
    a399:	00 00 00 
    a39c:	c7 85 6c e4 ff ff f7 	movl   $0xfffffff7,-0x1b94(%rbp)
    a3a3:	ff ff ff 
    a3a6:	c7 85 28 e4 ff ff 00 	movl   $0x0,-0x1bd8(%rbp)
    a3ad:	00 00 00 
    a3b0:	eb 1e                	jmp    a3d0 <func_2+0x794>
    a3b2:	8b 85 28 e4 ff ff    	mov    -0x1bd8(%rbp),%eax
    a3b8:	48 98                	cltq   
    a3ba:	48 8d 15 0f d1 01 00 	lea    0x1d10f(%rip),%rdx        # 274d0 <g_3674>
    a3c1:	48 89 94 c5 f0 e8 ff 	mov    %rdx,-0x1710(%rbp,%rax,8)
    a3c8:	ff 
    a3c9:	83 85 28 e4 ff ff 01 	addl   $0x1,-0x1bd8(%rbp)
    a3d0:	83 bd 28 e4 ff ff 01 	cmpl   $0x1,-0x1bd8(%rbp)
    a3d7:	7e d9                	jle    a3b2 <func_2+0x776>
    a3d9:	c7 85 28 e4 ff ff 00 	movl   $0x0,-0x1bd8(%rbp)
    a3e0:	00 00 00 
    a3e3:	eb 19                	jmp    a3fe <func_2+0x7c2>
    a3e5:	8b 85 28 e4 ff ff    	mov    -0x1bd8(%rbp),%eax
    a3eb:	48 98                	cltq   
    a3ed:	66 c7 84 45 e8 e8 ff 	movw   $0x0,-0x1718(%rbp,%rax,2)
    a3f4:	ff 00 00 
    a3f7:	83 85 28 e4 ff ff 01 	addl   $0x1,-0x1bd8(%rbp)
    a3fe:	83 bd 28 e4 ff ff 03 	cmpl   $0x3,-0x1bd8(%rbp)
    a405:	7e de                	jle    a3e5 <func_2+0x7a9>
    a407:	0f b6 85 7c e3 ff ff 	movzbl -0x1c84(%rbp),%eax
    a40e:	0f b6 d8             	movzbl %al,%ebx
    a411:	48 8b 05 50 d2 01 00 	mov    0x1d250(%rip),%rax        # 27668 <g_4155>
    a418:	48 8b 00             	mov    (%rax),%rax
    a41b:	48 8b 00             	mov    (%rax),%rax
    a41e:	48 8b 00             	mov    (%rax),%rax
    a421:	66 c7 00 00 00       	movw   $0x0,(%rax)
    a426:	bf 00 00 00 00       	mov    $0x0,%edi
    a42b:	e8 6d df ff ff       	callq  839d <safe_unary_minus_func_int16_t_s>
    a430:	98                   	cwtl   
    a431:	89 de                	mov    %ebx,%esi
    a433:	89 c7                	mov    %eax,%edi
    a435:	e8 79 df ff ff       	callq  83b3 <safe_add_func_int16_t_s_s>
    a43a:	0f b6 85 ea eb ff ff 	movzbl -0x1416(%rbp),%eax
    a441:	66 98                	cbtw   
    a443:	66 39 85 94 e3 ff ff 	cmp    %ax,-0x1c6c(%rbp)
    a44a:	0f 95 c0             	setne  %al
    a44d:	0f b6 d0             	movzbl %al,%edx
    a450:	48 8b 85 70 e3 ff ff 	mov    -0x1c90(%rbp),%rax
    a457:	89 10                	mov    %edx,(%rax)
    a459:	0f b6 85 ea eb ff ff 	movzbl -0x1416(%rbp),%eax
    a460:	0f be d8             	movsbl %al,%ebx
    a463:	0f b6 85 ea eb ff ff 	movzbl -0x1416(%rbp),%eax
    a46a:	0f be d0             	movsbl %al,%edx
    a46d:	0f b6 85 ea eb ff ff 	movzbl -0x1416(%rbp),%eax
    a474:	48 0f be c8          	movsbq %al,%rcx
    a478:	48 8b 05 79 cc 01 00 	mov    0x1cc79(%rip),%rax        # 270f8 <g_501>
    a47f:	48 8b 00             	mov    (%rax),%rax
    a482:	48 39 c1             	cmp    %rax,%rcx
    a485:	0f 9d c0             	setge  %al
    a488:	0f b6 c0             	movzbl %al,%eax
    a48b:	89 d6                	mov    %edx,%esi
    a48d:	89 c7                	mov    %eax,%edi
    a48f:	e8 fe df ff ff       	callq  8492 <safe_lshift_func_int16_t_s_s>
    a494:	98                   	cwtl   
    a495:	be 60 86 b7 6a       	mov    $0x6ab78660,%esi
    a49a:	89 c7                	mov    %eax,%edi
    a49c:	e8 17 ea ff ff       	callq  8eb8 <safe_add_func_uint32_t_u_u>
    a4a1:	bf 01 00 00 00       	mov    $0x1,%edi
    a4a6:	e8 6b e3 ff ff       	callq  8816 <safe_unary_minus_func_int64_t_s>
    a4ab:	89 de                	mov    %ebx,%esi
    a4ad:	89 c7                	mov    %eax,%edi
    a4af:	e8 49 ea ff ff       	callq  8efd <safe_mod_func_uint32_t_u_u>
    a4b4:	be 9e 43 ae 87       	mov    $0x87ae439e,%esi
    a4b9:	89 c7                	mov    %eax,%edi
    a4bb:	e8 45 e1 ff ff       	callq  8605 <safe_sub_func_int32_t_s_s>
    a4c0:	48 8b 15 81 d1 01 00 	mov    0x1d181(%rip),%rdx        # 27648 <g_3748>
    a4c7:	48 8b 12             	mov    (%rdx),%rdx
    a4ca:	48 8b 12             	mov    (%rdx),%rdx
    a4cd:	48 8b 12             	mov    (%rdx),%rdx
    a4d0:	0f b7 12             	movzwl (%rdx),%edx
    a4d3:	0f b7 d2             	movzwl %dx,%edx
    a4d6:	39 d0                	cmp    %edx,%eax
    a4d8:	be 71 32 00 00       	mov    $0x3271,%esi
    a4dd:	bf 00 00 00 00       	mov    $0x0,%edi
    a4e2:	e8 cc de ff ff       	callq  83b3 <safe_add_func_int16_t_s_s>
    a4e7:	66 85 c0             	test   %ax,%ax
    a4ea:	0f 84 fe 3d 00 00    	je     e2ee <func_2+0x46b2>
    a4f0:	48 c7 85 88 e5 ff ff 	movq   $0x0,-0x1a78(%rbp)
    a4f7:	00 00 00 00 
    a4fb:	48 8d 85 88 e5 ff ff 	lea    -0x1a78(%rbp),%rax
    a502:	48 89 85 90 e5 ff ff 	mov    %rax,-0x1a70(%rbp)
    a509:	48 8d 85 90 e5 ff ff 	lea    -0x1a70(%rbp),%rax
    a510:	48 89 85 e0 e6 ff ff 	mov    %rax,-0x1920(%rbp)
    a517:	48 8d 05 da ce 01 00 	lea    0x1ceda(%rip),%rax        # 273f8 <g_2059>
    a51e:	48 89 85 e8 e6 ff ff 	mov    %rax,-0x1918(%rbp)
    a525:	c7 85 d4 e3 ff ff 93 	movl   $0x6d76e193,-0x1c2c(%rbp)
    a52c:	e1 76 6d 
    a52f:	48 8d 05 92 ce 01 00 	lea    0x1ce92(%rip),%rax        # 273c8 <g_1496>
    a536:	48 89 85 98 e5 ff ff 	mov    %rax,-0x1a68(%rbp)
    a53d:	48 8d 85 98 e5 ff ff 	lea    -0x1a68(%rbp),%rax
    a544:	48 89 85 90 e9 ff ff 	mov    %rax,-0x1670(%rbp)
    a54b:	48 8d 85 98 e5 ff ff 	lea    -0x1a68(%rbp),%rax
    a552:	48 89 85 98 e9 ff ff 	mov    %rax,-0x1668(%rbp)
    a559:	48 8d 85 98 e5 ff ff 	lea    -0x1a68(%rbp),%rax
    a560:	48 89 85 a0 e9 ff ff 	mov    %rax,-0x1660(%rbp)
    a567:	48 8d 85 98 e5 ff ff 	lea    -0x1a68(%rbp),%rax
    a56e:	48 89 85 a8 e9 ff ff 	mov    %rax,-0x1658(%rbp)
    a575:	48 8d 85 98 e5 ff ff 	lea    -0x1a68(%rbp),%rax
    a57c:	48 89 85 b0 e9 ff ff 	mov    %rax,-0x1650(%rbp)
    a583:	48 8d 85 98 e5 ff ff 	lea    -0x1a68(%rbp),%rax
    a58a:	48 89 85 b8 e9 ff ff 	mov    %rax,-0x1648(%rbp)
    a591:	48 8d 85 98 e5 ff ff 	lea    -0x1a68(%rbp),%rax
    a598:	48 89 85 c0 e9 ff ff 	mov    %rax,-0x1640(%rbp)
    a59f:	48 8d 85 90 e9 ff ff 	lea    -0x1670(%rbp),%rax
    a5a6:	48 83 c0 28          	add    $0x28,%rax
    a5aa:	48 89 85 a0 e5 ff ff 	mov    %rax,-0x1a60(%rbp)
    a5b1:	48 8d 85 a0 e5 ff ff 	lea    -0x1a60(%rbp),%rax
    a5b8:	48 89 85 f0 e6 ff ff 	mov    %rax,-0x1910(%rbp)
    a5bf:	c7 85 d8 e3 ff ff 00 	movl   $0x0,-0x1c28(%rbp)
    a5c6:	00 00 00 
    a5c9:	c7 85 dc e3 ff ff 00 	movl   $0x0,-0x1c24(%rbp)
    a5d0:	00 00 00 
    a5d3:	66 c7 85 9c e3 ff ff 	movw   $0x0,-0x1c64(%rbp)
    a5da:	00 00 
    a5dc:	48 8d 05 95 a2 01 00 	lea    0x1a295(%rip),%rax        # 24878 <g_370>
    a5e3:	48 89 85 a8 e5 ff ff 	mov    %rax,-0x1a58(%rbp)
    a5ea:	66 c7 85 9e e3 ff ff 	movw   $0x0,-0x1c62(%rbp)
    a5f1:	00 00 
    a5f3:	c6 85 8e e3 ff ff 03 	movb   $0x3,-0x1c72(%rbp)
    a5fa:	48 8d 85 70 e5 ff ff 	lea    -0x1a90(%rbp),%rax
    a601:	48 89 85 f8 e6 ff ff 	mov    %rax,-0x1908(%rbp)
    a608:	c6 85 8f e3 ff ff 05 	movb   $0x5,-0x1c71(%rbp)
    a60f:	48 8d 05 72 a2 01 00 	lea    0x1a272(%rip),%rax        # 24888 <g_505>
    a616:	48 89 85 00 e7 ff ff 	mov    %rax,-0x1900(%rbp)
    a61d:	c7 85 e0 e3 ff ff f6 	movl   $0xfffffff6,-0x1c20(%rbp)
    a624:	ff ff ff 
    a627:	c7 85 e4 e3 ff ff b5 	movl   $0xe7dcdeb5,-0x1c1c(%rbp)
    a62e:	de dc e7 
    a631:	c7 85 e8 e3 ff ff 04 	movl   $0x4,-0x1c18(%rbp)
    a638:	00 00 00 
    a63b:	c7 85 ec e3 ff ff 03 	movl   $0x3,-0x1c14(%rbp)
    a642:	00 00 00 
    a645:	c7 85 f0 e3 ff ff 1e 	movl   $0x6995241e,-0x1c10(%rbp)
    a64c:	24 95 69 
    a64f:	c7 85 c4 e4 ff ff 75 	movl   $0xcb709375,-0x1b3c(%rbp)
    a656:	93 70 cb 
    a659:	c7 85 f4 e3 ff ff 01 	movl   $0x1,-0x1c0c(%rbp)
    a660:	00 00 00 
    a663:	c7 85 f8 e3 ff ff e8 	movl   $0x194af5e8,-0x1c08(%rbp)
    a66a:	f5 4a 19 
    a66d:	c7 85 fc e3 ff ff 3d 	movl   $0x21ec0c3d,-0x1c04(%rbp)
    a674:	0c ec 21 
    a677:	c7 85 00 e4 ff ff 00 	movl   $0x0,-0x1c00(%rbp)
    a67e:	00 00 00 
    a681:	c7 85 c8 e4 ff ff 3f 	movl   $0xa84e0e3f,-0x1b38(%rbp)
    a688:	0e 4e a8 
    a68b:	c7 85 04 e4 ff ff 05 	movl   $0x5,-0x1bfc(%rbp)
    a692:	00 00 00 
    a695:	c7 85 08 e4 ff ff a6 	movl   $0x60b97a6,-0x1bf8(%rbp)
    a69c:	97 0b 06 
    a69f:	66 c7 85 a0 e3 ff ff 	movw   $0x900a,-0x1c60(%rbp)
    a6a6:	0a 90 
    a6a8:	c7 85 0c e4 ff ff e8 	movl   $0xd4c0e8,-0x1bf4(%rbp)
    a6af:	c0 d4 00 
    a6b2:	c7 85 cc e4 ff ff f7 	movl   $0xfffffff7,-0x1b34(%rbp)
    a6b9:	ff ff ff 
    a6bc:	c7 85 d0 e4 ff ff 09 	movl   $0x79261a09,-0x1b30(%rbp)
    a6c3:	1a 26 79 
    a6c6:	48 c7 85 b0 e5 ff ff 	movq   $0x0,-0x1a50(%rbp)
    a6cd:	00 00 00 00 
    a6d1:	48 8d 85 b0 e5 ff ff 	lea    -0x1a50(%rbp),%rax
    a6d8:	48 89 85 08 e7 ff ff 	mov    %rax,-0x18f8(%rbp)
    a6df:	48 c7 85 10 e7 ff ff 	movq   $0x0,-0x18f0(%rbp)
    a6e6:	00 00 00 00 
    a6ea:	66 c7 85 a2 e3 ff ff 	movw   $0x6a53,-0x1c5e(%rbp)
    a6f1:	53 6a 
    a6f3:	c7 85 d4 e4 ff ff 9f 	movl   $0x8e40759f,-0x1b2c(%rbp)
    a6fa:	75 40 8e 
    a6fd:	c7 85 d8 e4 ff ff 00 	movl   $0x0,-0x1b28(%rbp)
    a704:	00 00 00 
    a707:	c7 85 dc e4 ff ff a9 	movl   $0x1060f4a9,-0x1b24(%rbp)
    a70e:	f4 60 10 
    a711:	c7 85 e0 e4 ff ff f8 	movl   $0xfffffff8,-0x1b20(%rbp)
    a718:	ff ff ff 
    a71b:	c7 85 e4 e4 ff ff bf 	movl   $0x9c659cbf,-0x1b1c(%rbp)
    a722:	9c 65 9c 
    a725:	c7 85 e8 e4 ff ff 85 	movl   $0x1458fc85,-0x1b18(%rbp)
    a72c:	fc 58 14 
    a72f:	c7 85 ec e4 ff ff 1d 	movl   $0xaba7541d,-0x1b14(%rbp)
    a736:	54 a7 ab 
    a739:	48 8d 05 68 d8 01 00 	lea    0x1d868(%rip),%rax        # 27fa8 <g_1059>
    a740:	48 89 85 b8 e5 ff ff 	mov    %rax,-0x1a48(%rbp)
    a747:	48 8d 85 b8 e5 ff ff 	lea    -0x1a48(%rbp),%rax
    a74e:	48 89 85 18 e7 ff ff 	mov    %rax,-0x18e8(%rbp)
    a755:	48 c7 85 c0 e5 ff ff 	movq   $0x0,-0x1a40(%rbp)
    a75c:	00 00 00 00 
    a760:	48 8d 85 c0 e5 ff ff 	lea    -0x1a40(%rbp),%rax
    a767:	48 89 85 50 ea ff ff 	mov    %rax,-0x15b0(%rbp)
    a76e:	48 8d 85 c0 e5 ff ff 	lea    -0x1a40(%rbp),%rax
    a775:	48 89 85 58 ea ff ff 	mov    %rax,-0x15a8(%rbp)
    a77c:	48 8d 85 c0 e5 ff ff 	lea    -0x1a40(%rbp),%rax
    a783:	48 89 85 60 ea ff ff 	mov    %rax,-0x15a0(%rbp)
    a78a:	48 8d 85 c0 e5 ff ff 	lea    -0x1a40(%rbp),%rax
    a791:	48 89 85 68 ea ff ff 	mov    %rax,-0x1598(%rbp)
    a798:	48 8d 85 c0 e5 ff ff 	lea    -0x1a40(%rbp),%rax
    a79f:	48 89 85 70 ea ff ff 	mov    %rax,-0x1590(%rbp)
    a7a6:	48 8d 85 c0 e5 ff ff 	lea    -0x1a40(%rbp),%rax
    a7ad:	48 89 85 78 ea ff ff 	mov    %rax,-0x1588(%rbp)
    a7b4:	48 8d 85 c0 e5 ff ff 	lea    -0x1a40(%rbp),%rax
    a7bb:	48 89 85 80 ea ff ff 	mov    %rax,-0x1580(%rbp)
    a7c2:	48 8d 85 c0 e5 ff ff 	lea    -0x1a40(%rbp),%rax
    a7c9:	48 89 85 88 ea ff ff 	mov    %rax,-0x1578(%rbp)
    a7d0:	c7 85 f0 e4 ff ff 68 	movl   $0x996ea968,-0x1b10(%rbp)
    a7d7:	a9 6e 99 
    a7da:	48 8b 85 68 e3 ff ff 	mov    -0x1c98(%rbp),%rax
    a7e1:	0f be d0             	movsbl %al,%edx
    a7e4:	0f b6 85 7c e3 ff ff 	movzbl -0x1c84(%rbp),%eax
    a7eb:	0f be c0             	movsbl %al,%eax
    a7ee:	89 d6                	mov    %edx,%esi
    a7f0:	89 c7                	mov    %eax,%edi
    a7f2:	e8 1b da ff ff       	callq  8212 <safe_mul_func_int8_t_s_s>
    a7f7:	41 89 c4             	mov    %eax,%r12d
    a7fa:	48 8b 95 90 e5 ff ff 	mov    -0x1a70(%rbp),%rdx
    a801:	48 8b 85 e0 e6 ff ff 	mov    -0x1920(%rbp),%rax
    a808:	48 89 10             	mov    %rdx,(%rax)
    a80b:	48 8b 85 e0 e6 ff ff 	mov    -0x1920(%rbp),%rax
    a812:	48 8b 00             	mov    (%rax),%rax
    a815:	48 39 85 f8 e5 ff ff 	cmp    %rax,-0x1a08(%rbp)
    a81c:	75 6d                	jne    a88b <func_2+0xc4f>
    a81e:	0f b6 85 7c e3 ff ff 	movzbl -0x1c84(%rbp),%eax
    a825:	0f b6 c0             	movzbl %al,%eax
    a828:	0f b6 95 ea eb ff ff 	movzbl -0x1416(%rbp),%edx
    a82f:	0f be ca             	movsbl %dl,%ecx
    a832:	0f b6 95 7c e3 ff ff 	movzbl -0x1c84(%rbp),%edx
    a839:	0f b6 d2             	movzbl %dl,%edx
    a83c:	21 ca                	and    %ecx,%edx
    a83e:	89 c6                	mov    %eax,%esi
    a840:	89 d7                	mov    %edx,%edi
    a842:	e8 b8 de ff ff       	callq  86ff <safe_div_func_int32_t_s_s>
    a847:	0f bf d8             	movswl %ax,%ebx
    a84a:	48 8b 05 cf c9 01 00 	mov    0x1c9cf(%rip),%rax        # 27220 <g_1126>
    a851:	48 8b 00             	mov    (%rax),%rax
    a854:	48 8b 10             	mov    (%rax),%rdx
    a857:	48 8b 05 a2 c9 01 00 	mov    0x1c9a2(%rip),%rax        # 27200 <g_1023>
    a85e:	0f b6 12             	movzbl (%rdx),%edx
    a861:	88 10                	mov    %dl,(%rax)
    a863:	0f b6 00             	movzbl (%rax),%eax
    a866:	0f b6 d0             	movzbl %al,%edx
    a869:	0f b6 85 7c e3 ff ff 	movzbl -0x1c84(%rbp),%eax
    a870:	0f b6 c0             	movzbl %al,%eax
    a873:	89 d6                	mov    %edx,%esi
    a875:	89 c7                	mov    %eax,%edi
    a877:	e8 d0 e3 ff ff       	callq  8c4c <safe_lshift_func_uint8_t_u_u>
    a87c:	0f b6 c0             	movzbl %al,%eax
    a87f:	89 de                	mov    %ebx,%esi
    a881:	89 c7                	mov    %eax,%edi
    a883:	e8 8e db ff ff       	callq  8416 <safe_mod_func_int16_t_s_s>
    a888:	66 85 c0             	test   %ax,%ax
    a88b:	48 8b 85 70 e3 ff ff 	mov    -0x1c90(%rbp),%rax
    a892:	8b 10                	mov    (%rax),%edx
    a894:	41 0f be c4          	movsbl %r12b,%eax
    a898:	09 c2                	or     %eax,%edx
    a89a:	48 8b 85 70 e3 ff ff 	mov    -0x1c90(%rbp),%rax
    a8a1:	89 10                	mov    %edx,(%rax)
    a8a3:	48 8b 85 70 e3 ff ff 	mov    -0x1c90(%rbp),%rax
    a8aa:	8b 00                	mov    (%rax),%eax
    a8ac:	89 c2                	mov    %eax,%edx
    a8ae:	48 83 bd 68 e3 ff ff 	cmpq   $0x1,-0x1c98(%rbp)
    a8b5:	01 
    a8b6:	0f 94 c0             	sete   %al
    a8b9:	09 d0                	or     %edx,%eax
    a8bb:	0f b6 c0             	movzbl %al,%eax
    a8be:	be 01 00 00 00       	mov    $0x1,%esi
    a8c3:	89 c7                	mov    %eax,%edi
    a8c5:	e8 3b e3 ff ff       	callq  8c05 <safe_lshift_func_uint8_t_u_s>
    a8ca:	0f be c0             	movsbl %al,%eax
    a8cd:	89 c6                	mov    %eax,%esi
    a8cf:	bf 00 00 00 00       	mov    $0x0,%edi
    a8d4:	e8 19 d9 ff ff       	callq  81f2 <safe_sub_func_int8_t_s_s>
    a8d9:	84 c0                	test   %al,%al
    a8db:	0f 84 ce 05 00 00    	je     aeaf <func_2+0x1273>
    a8e1:	48 b8 d9 a7 17 6f cb 	movabs $0xfb8350cb6f17a7d9,%rax
    a8e8:	50 83 fb 
    a8eb:	48 89 85 30 e8 ff ff 	mov    %rax,-0x17d0(%rbp)
    a8f2:	48 b8 8a aa 90 06 c9 	movabs $0x8c61b7c90690aa8a,%rax
    a8f9:	b7 61 8c 
    a8fc:	48 89 85 38 e8 ff ff 	mov    %rax,-0x17c8(%rbp)
    a903:	48 8d 05 ae a0 01 00 	lea    0x1a0ae(%rip),%rax        # 249b8 <g_1645>
    a90a:	48 89 85 40 e8 ff ff 	mov    %rax,-0x17c0(%rbp)
    a911:	48 8d 05 d8 c8 01 00 	lea    0x1c8d8(%rip),%rax        # 271f0 <g_711>
    a918:	48 89 85 48 e8 ff ff 	mov    %rax,-0x17b8(%rbp)
    a91f:	c7 85 c0 f8 ff ff b6 	movl   $0xf48b4eb6,-0x740(%rbp)
    a926:	4e 8b f4 
    a929:	c7 85 c4 f8 ff ff 22 	movl   $0x149cc722,-0x73c(%rbp)
    a930:	c7 9c 14 
    a933:	c7 85 c8 f8 ff ff b6 	movl   $0xf48b4eb6,-0x738(%rbp)
    a93a:	4e 8b f4 
    a93d:	c7 85 cc f8 ff ff 22 	movl   $0x149cc722,-0x734(%rbp)
    a944:	c7 9c 14 
    a947:	c7 85 d0 f8 ff ff b6 	movl   $0xf48b4eb6,-0x730(%rbp)
    a94e:	4e 8b f4 
    a951:	c7 85 d4 f8 ff ff 22 	movl   $0x149cc722,-0x72c(%rbp)
    a958:	c7 9c 14 
    a95b:	c7 85 d8 f8 ff ff b6 	movl   $0xf48b4eb6,-0x728(%rbp)
    a962:	4e 8b f4 
    a965:	c7 85 dc f8 ff ff 22 	movl   $0x149cc722,-0x724(%rbp)
    a96c:	c7 9c 14 
    a96f:	c7 85 e0 f8 ff ff b6 	movl   $0xf48b4eb6,-0x720(%rbp)
    a976:	4e 8b f4 
    a979:	48 8d 05 80 c8 01 00 	lea    0x1c880(%rip),%rax        # 27200 <g_1023>
    a980:	48 89 85 50 e8 ff ff 	mov    %rax,-0x17b0(%rbp)
    a987:	c7 85 20 ee ff ff 63 	movl   $0xcdf6bf63,-0x11e0(%rbp)
    a98e:	bf f6 cd 
    a991:	c7 85 24 ee ff ff 00 	movl   $0x0,-0x11dc(%rbp)
    a998:	00 00 00 
    a99b:	c7 85 28 ee ff ff 63 	movl   $0xcdf6bf63,-0x11d8(%rbp)
    a9a2:	bf f6 cd 
    a9a5:	c7 85 2c ee ff ff ff 	movl   $0xffffffff,-0x11d4(%rbp)
    a9ac:	ff ff ff 
    a9af:	c7 85 30 ee ff ff 63 	movl   $0xcdf6bf63,-0x11d0(%rbp)
    a9b6:	bf f6 cd 
    a9b9:	c7 85 34 ee ff ff ff 	movl   $0xffffffff,-0x11cc(%rbp)
    a9c0:	ff ff ff 
    a9c3:	c7 85 38 ee ff ff ff 	movl   $0xffffffff,-0x11c8(%rbp)
    a9ca:	ff ff ff 
    a9cd:	c7 85 3c ee ff ff 63 	movl   $0xcdf6bf63,-0x11c4(%rbp)
    a9d4:	bf f6 cd 
    a9d7:	c7 85 2c e4 ff ff 00 	movl   $0x0,-0x1bd4(%rbp)
    a9de:	00 00 00 
    a9e1:	eb 6c                	jmp    aa4f <func_2+0xe13>
    a9e3:	c7 85 30 e4 ff ff 00 	movl   $0x0,-0x1bd0(%rbp)
    a9ea:	00 00 00 
    a9ed:	eb 50                	jmp    aa3f <func_2+0xe03>
    a9ef:	c7 85 34 e4 ff ff 00 	movl   $0x0,-0x1bcc(%rbp)
    a9f6:	00 00 00 
    a9f9:	eb 34                	jmp    aa2f <func_2+0xdf3>
    a9fb:	8b 85 34 e4 ff ff    	mov    -0x1bcc(%rbp),%eax
    aa01:	48 98                	cltq   
    aa03:	8b 95 2c e4 ff ff    	mov    -0x1bd4(%rbp),%edx
    aa09:	48 63 ca             	movslq %edx,%rcx
    aa0c:	8b 95 30 e4 ff ff    	mov    -0x1bd0(%rbp),%edx
    aa12:	48 63 d2             	movslq %edx,%rdx
    aa15:	48 01 ca             	add    %rcx,%rdx
    aa18:	48 01 d2             	add    %rdx,%rdx
    aa1b:	48 01 d0             	add    %rdx,%rax
    aa1e:	66 c7 84 45 e0 ea ff 	movw   $0x13c7,-0x1520(%rbp,%rax,2)
    aa25:	ff c7 13 
    aa28:	83 85 34 e4 ff ff 01 	addl   $0x1,-0x1bcc(%rbp)
    aa2f:	83 bd 34 e4 ff ff 01 	cmpl   $0x1,-0x1bcc(%rbp)
    aa36:	7e c3                	jle    a9fb <func_2+0xdbf>
    aa38:	83 85 30 e4 ff ff 01 	addl   $0x1,-0x1bd0(%rbp)
    aa3f:	83 bd 30 e4 ff ff 00 	cmpl   $0x0,-0x1bd0(%rbp)
    aa46:	7e a7                	jle    a9ef <func_2+0xdb3>
    aa48:	83 85 2c e4 ff ff 01 	addl   $0x1,-0x1bd4(%rbp)
    aa4f:	83 bd 2c e4 ff ff 01 	cmpl   $0x1,-0x1bd4(%rbp)
    aa56:	7e 8b                	jle    a9e3 <func_2+0xda7>
    aa58:	0f bf 95 94 e3 ff ff 	movswl -0x1c6c(%rbp),%edx
    aa5f:	48 8b 05 ea cb 01 00 	mov    0x1cbea(%rip),%rax        # 27650 <g_4025>
    aa66:	48 8b 00             	mov    (%rax),%rax
    aa69:	48 39 85 e8 e6 ff ff 	cmp    %rax,-0x1918(%rbp)
    aa70:	0f 95 c0             	setne  %al
    aa73:	0f b6 c0             	movzbl %al,%eax
    aa76:	39 c2                	cmp    %eax,%edx
    aa78:	0f 95 c2             	setne  %dl
    aa7b:	48 8b 05 5e cc 01 00 	mov    0x1cc5e(%rip),%rax        # 276e0 <g_4764>
    aa82:	0f b6 d2             	movzbl %dl,%edx
    aa85:	89 10                	mov    %edx,(%rax)
    aa87:	0f b6 85 ea eb ff ff 	movzbl -0x1416(%rbp),%eax
    aa8e:	44 0f be f0          	movsbl %al,%r14d
    aa92:	48 8b 85 30 e8 ff ff 	mov    -0x17d0(%rbp),%rax
    aa99:	0f b6 d8             	movzbl %al,%ebx
    aa9c:	8b 85 d4 e3 ff ff    	mov    -0x1c2c(%rbp),%eax
    aaa2:	44 0f be e0          	movsbl %al,%r12d
    aaa6:	48 8b 85 70 e3 ff ff 	mov    -0x1c90(%rbp),%rax
    aaad:	44 8b 28             	mov    (%rax),%r13d
    aab0:	48 8b 85 38 e8 ff ff 	mov    -0x17c8(%rbp),%rax
    aab7:	0f b7 d0             	movzwl %ax,%edx
    aaba:	48 8d 05 7d a0 01 00 	lea    0x1a07d(%rip),%rax        # 24b3e <g_3676>
    aac1:	0f b7 00             	movzwl (%rax),%eax
    aac4:	89 c1                	mov    %eax,%ecx
    aac6:	48 8b 85 58 e3 ff ff 	mov    -0x1ca8(%rbp),%rax
    aacd:	48 3b 85 68 e3 ff ff 	cmp    -0x1c98(%rbp),%rax
    aad4:	0f 9d c0             	setge  %al
    aad7:	0f b6 c0             	movzbl %al,%eax
    aada:	31 c1                	xor    %eax,%ecx
    aadc:	48 8d 05 5b a0 01 00 	lea    0x1a05b(%rip),%rax        # 24b3e <g_3676>
    aae3:	66 89 08             	mov    %cx,(%rax)
    aae6:	0f b7 00             	movzwl (%rax),%eax
    aae9:	66 85 c0             	test   %ax,%ax
    aaec:	74 07                	je     aaf5 <func_2+0xeb9>
    aaee:	b8 01 00 00 00       	mov    $0x1,%eax
    aaf3:	eb 05                	jmp    aafa <func_2+0xebe>
    aaf5:	b8 00 00 00 00       	mov    $0x0,%eax
    aafa:	89 c1                	mov    %eax,%ecx
    aafc:	48 8b 85 58 e3 ff ff 	mov    -0x1ca8(%rbp),%rax
    ab03:	21 c8                	and    %ecx,%eax
    ab05:	0f b7 c0             	movzwl %ax,%eax
    ab08:	89 d6                	mov    %edx,%esi
    ab0a:	89 c7                	mov    %eax,%edi
    ab0c:	e8 2c e2 ff ff       	callq  8d3d <safe_mul_func_uint16_t_u_u>
    ab11:	48 0f bf 95 94 e3 ff 	movswq -0x1c6c(%rbp),%rdx
    ab18:	ff 
    ab19:	48 8b 85 40 e8 ff ff 	mov    -0x17c0(%rbp),%rax
    ab20:	48 89 10             	mov    %rdx,(%rax)
    ab23:	48 8b 85 40 e8 ff ff 	mov    -0x17c0(%rbp),%rax
    ab2a:	48 8b 00             	mov    (%rax),%rax
    ab2d:	66 89 85 ee e8 ff ff 	mov    %ax,-0x1712(%rbp)
    ab34:	44 89 ee             	mov    %r13d,%esi
    ab37:	bf 00 00 00 00       	mov    $0x0,%edi
    ab3c:	e8 be db ff ff       	callq  86ff <safe_div_func_int32_t_s_s>
    ab41:	48 98                	cltq   
    ab43:	48 39 85 38 e8 ff ff 	cmp    %rax,-0x17c8(%rbp)
    ab4a:	0f 93 c2             	setae  %dl
    ab4d:	48 8b 05 7c cb 01 00 	mov    0x1cb7c(%rip),%rax        # 276d0 <g_4401>
    ab54:	48 8b 00             	mov    (%rax),%rax
    ab57:	48 8b 00             	mov    (%rax),%rax
    ab5a:	0f b6 d2             	movzbl %dl,%edx
    ab5d:	89 10                	mov    %edx,(%rax)
    ab5f:	48 8b 85 68 e3 ff ff 	mov    -0x1c98(%rbp),%rax
    ab66:	83 f0 a2             	xor    $0xffffffa2,%eax
    ab69:	0f be c0             	movsbl %al,%eax
    ab6c:	44 89 e6             	mov    %r12d,%esi
    ab6f:	89 c7                	mov    %eax,%edi
    ab71:	e8 bb d6 ff ff       	callq  8231 <safe_mod_func_int8_t_s_s>
    ab76:	0f b6 c0             	movzbl %al,%eax
    ab79:	89 de                	mov    %ebx,%esi
    ab7b:	89 c7                	mov    %eax,%edi
    ab7d:	e8 59 e0 ff ff       	callq  8bdb <safe_div_func_uint8_t_u_u>
    ab82:	0f b6 c0             	movzbl %al,%eax
    ab85:	48 39 85 68 e3 ff ff 	cmp    %rax,-0x1c98(%rbp)
    ab8c:	0f b7 85 ee e8 ff ff 	movzwl -0x1712(%rbp),%eax
    ab93:	0f b7 d0             	movzwl %ax,%edx
    ab96:	48 8b 85 30 e8 ff ff 	mov    -0x17d0(%rbp),%rax
    ab9d:	89 c1                	mov    %eax,%ecx
    ab9f:	48 8b 05 da c1 01 00 	mov    0x1c1da(%rip),%rax        # 26d80 <g_8>
    aba6:	31 ca                	xor    %ecx,%edx
    aba8:	89 10                	mov    %edx,(%rax)
    abaa:	8b 00                	mov    (%rax),%eax
    abac:	41 39 c6             	cmp    %eax,%r14d
    abaf:	0f 9e c0             	setle  %al
    abb2:	0f b6 c0             	movzbl %al,%eax
    abb5:	48 23 85 68 e3 ff ff 	and    -0x1c98(%rbp),%rax
    abbc:	48 85 c0             	test   %rax,%rax
    abbf:	0f 85 c0 02 00 00    	jne    ae85 <func_2+0x1249>
    abc5:	c7 85 4c e5 ff ff 00 	movl   $0x0,-0x1ab4(%rbp)
    abcc:	00 00 00 
    abcf:	48 c7 85 58 e8 ff ff 	movq   $0x0,-0x17a8(%rbp)
    abd6:	00 00 00 00 
    abda:	48 8d 05 5f 9f 01 00 	lea    0x19f5f(%rip),%rax        # 24b40 <g_3696>
    abe1:	48 89 85 60 e8 ff ff 	mov    %rax,-0x17a0(%rbp)
    abe8:	c7 85 50 e5 ff ff ff 	movl   $0xffffffff,-0x1ab0(%rbp)
    abef:	ff ff ff 
    abf2:	c7 85 38 e4 ff ff 00 	movl   $0x0,-0x1bc8(%rbp)
    abf9:	00 00 00 
    abfc:	eb 1e                	jmp    ac1c <func_2+0xfe0>
    abfe:	8b 85 38 e4 ff ff    	mov    -0x1bc8(%rbp),%eax
    ac04:	48 98                	cltq   
    ac06:	48 8d 15 35 94 01 00 	lea    0x19435(%rip),%rdx        # 24042 <g_69+0x12>
    ac0d:	48 89 94 c5 30 eb ff 	mov    %rdx,-0x14d0(%rbp,%rax,8)
    ac14:	ff 
    ac15:	83 85 38 e4 ff ff 01 	addl   $0x1,-0x1bc8(%rbp)
    ac1c:	83 bd 38 e4 ff ff 01 	cmpl   $0x1,-0x1bc8(%rbp)
    ac23:	7e d9                	jle    abfe <func_2+0xfc2>
    ac25:	48 c7 85 48 e8 ff ff 	movq   $0x0,-0x17b8(%rbp)
    ac2c:	00 00 00 00 
    ac30:	48 8b 05 b9 c5 01 00 	mov    0x1c5b9(%rip),%rax        # 271f0 <g_711>
    ac37:	48 8b 95 58 e3 ff ff 	mov    -0x1ca8(%rbp),%rdx
    ac3e:	66 89 10             	mov    %dx,(%rax)
    ac41:	0f b7 00             	movzwl (%rax),%eax
    ac44:	0f b7 d8             	movzwl %ax,%ebx
    ac47:	8b 85 54 e4 ff ff    	mov    -0x1bac(%rbp),%eax
    ac4d:	0f be c0             	movsbl %al,%eax
    ac50:	be fd ff ff ff       	mov    $0xfffffffd,%esi
    ac55:	89 c7                	mov    %eax,%edi
    ac57:	e8 b6 d5 ff ff       	callq  8212 <safe_mul_func_int8_t_s_s>
    ac5c:	0f be c0             	movsbl %al,%eax
    ac5f:	89 de                	mov    %ebx,%esi
    ac61:	89 c7                	mov    %eax,%edi
    ac63:	e8 fb d8 ff ff       	callq  8563 <safe_rshift_func_int16_t_s_u>
    ac68:	8b 85 54 e4 ff ff    	mov    -0x1bac(%rbp),%eax
    ac6e:	0f be d0             	movsbl %al,%edx
    ac71:	8b 85 4c e5 ff ff    	mov    -0x1ab4(%rbp),%eax
    ac77:	89 85 ac e3 ff ff    	mov    %eax,-0x1c54(%rbp)
    ac7d:	8b 85 ac e3 ff ff    	mov    -0x1c54(%rbp),%eax
    ac83:	0f be c0             	movsbl %al,%eax
    ac86:	89 d6                	mov    %edx,%esi
    ac88:	89 c7                	mov    %eax,%edi
    ac8a:	e8 83 d5 ff ff       	callq  8212 <safe_mul_func_int8_t_s_s>
    ac8f:	66 0f be d0          	movsbw %al,%dx
    ac93:	0f b7 85 e2 ea ff ff 	movzwl -0x151e(%rbp),%eax
    ac9a:	66 39 c2             	cmp    %ax,%dx
    ac9d:	0f 94 c0             	sete   %al
    aca0:	0f b6 c8             	movzbl %al,%ecx
    aca3:	48 8b 85 40 e8 ff ff 	mov    -0x17c0(%rbp),%rax
    acaa:	48 8b 10             	mov    (%rax),%rdx
    acad:	48 63 c1             	movslq %ecx,%rax
    acb0:	48 31 c2             	xor    %rax,%rdx
    acb3:	48 8b 85 40 e8 ff ff 	mov    -0x17c0(%rbp),%rax
    acba:	48 89 10             	mov    %rdx,(%rax)
    acbd:	48 8b 85 40 e8 ff ff 	mov    -0x17c0(%rbp),%rax
    acc4:	48 8b 00             	mov    (%rax),%rax
    acc7:	48 85 c0             	test   %rax,%rax
    acca:	74 10                	je     acdc <func_2+0x10a0>
    accc:	83 bd 4c e5 ff ff 00 	cmpl   $0x0,-0x1ab4(%rbp)
    acd3:	74 07                	je     acdc <func_2+0x10a0>
    acd5:	b8 01 00 00 00       	mov    $0x1,%eax
    acda:	eb 05                	jmp    ace1 <func_2+0x10a5>
    acdc:	b8 00 00 00 00       	mov    $0x0,%eax
    ace1:	48 98                	cltq   
    ace3:	48 39 85 38 e8 ff ff 	cmp    %rax,-0x17c8(%rbp)
    acea:	74 08                	je     acf4 <func_2+0x10b8>
    acec:	48 83 bd 68 e3 ff ff 	cmpq   $0x0,-0x1c98(%rbp)
    acf3:	00 
    acf4:	48 b9 11 b6 99 0c c8 	movabs $0xf423fac80c99b611,%rcx
    acfb:	fa 23 f4 
    acfe:	0f b6 85 7c e3 ff ff 	movzbl -0x1c84(%rbp),%eax
    ad05:	0f b6 d0             	movzbl %al,%edx
    ad08:	0f bf 85 94 e3 ff ff 	movswl -0x1c6c(%rbp),%eax
    ad0f:	31 d0                	xor    %edx,%eax
    ad11:	85 c0                	test   %eax,%eax
    ad13:	0f 9e c0             	setle  %al
    ad16:	0f b6 d0             	movzbl %al,%edx
    ad19:	48 8b 85 60 e8 ff ff 	mov    -0x17a0(%rbp),%rax
    ad20:	48 8b 00             	mov    (%rax),%rax
    ad23:	48 09 c1             	or     %rax,%rcx
    ad26:	48 8b 85 60 e8 ff ff 	mov    -0x17a0(%rbp),%rax
    ad2d:	48 89 08             	mov    %rcx,(%rax)
    ad30:	48 8b 85 60 e8 ff ff 	mov    -0x17a0(%rbp),%rax
    ad37:	48 8b 00             	mov    (%rax),%rax
    ad3a:	48 09 c2             	or     %rax,%rdx
    ad3d:	48 8b 85 60 e3 ff ff 	mov    -0x1ca0(%rbp),%rax
    ad44:	8b 00                	mov    (%rax),%eax
    ad46:	89 c1                	mov    %eax,%ecx
    ad48:	89 d0                	mov    %edx,%eax
    ad4a:	09 c8                	or     %ecx,%eax
    ad4c:	89 c2                	mov    %eax,%edx
    ad4e:	48 8b 85 60 e3 ff ff 	mov    -0x1ca0(%rbp),%rax
    ad55:	89 10                	mov    %edx,(%rax)
    ad57:	8b 85 4c e5 ff ff    	mov    -0x1ab4(%rbp),%eax
    ad5d:	48 98                	cltq   
    ad5f:	48 39 85 68 e3 ff ff 	cmp    %rax,-0x1c98(%rbp)
    ad66:	0f 9c c0             	setl   %al
    ad69:	44 0f b6 f0          	movzbl %al,%r14d
    ad6d:	48 8b 05 8c c3 01 00 	mov    0x1c38c(%rip),%rax        # 27100 <g_500>
    ad74:	48 8b 00             	mov    (%rax),%rax
    ad77:	48 8b 18             	mov    (%rax),%rbx
    ad7a:	48 8b 05 07 c0 01 00 	mov    0x1c007(%rip),%rax        # 26d88 <g_146>
    ad81:	44 8b 20             	mov    (%rax),%r12d
    ad84:	44 8b bd e0 f8 ff ff 	mov    -0x720(%rbp),%r15d
    ad8b:	48 8b 05 b6 c8 01 00 	mov    0x1c8b6(%rip),%rax        # 27648 <g_3748>
    ad92:	48 8b 00             	mov    (%rax),%rax
    ad95:	48 8b 00             	mov    (%rax),%rax
    ad98:	48 8b 00             	mov    (%rax),%rax
    ad9b:	0f b7 00             	movzwl (%rax),%eax
    ad9e:	44 0f b7 e8          	movzwl %ax,%r13d
    ada2:	0f b6 85 7c e3 ff ff 	movzbl -0x1c84(%rbp),%eax
    ada9:	0f b6 c0             	movzbl %al,%eax
    adac:	89 c6                	mov    %eax,%esi
    adae:	bf 01 00 00 00       	mov    $0x1,%edi
    adb3:	e8 5e d6 ff ff       	callq  8416 <safe_mod_func_int16_t_s_s>
    adb8:	98                   	cwtl   
    adb9:	89 85 50 e5 ff ff    	mov    %eax,-0x1ab0(%rbp)
    adbf:	44 89 ea             	mov    %r13d,%edx
    adc2:	33 95 50 e5 ff ff    	xor    -0x1ab0(%rbp),%edx
    adc8:	0f b6 85 7c e3 ff ff 	movzbl -0x1c84(%rbp),%eax
    adcf:	0f b6 c0             	movzbl %al,%eax
    add2:	89 d1                	mov    %edx,%ecx
    add4:	31 c1                	xor    %eax,%ecx
    add6:	48 8b 05 03 c9 01 00 	mov    0x1c903(%rip),%rax        # 276e0 <g_4764>
    addd:	8b 10                	mov    (%rax),%edx
    addf:	48 8b 05 fa c8 01 00 	mov    0x1c8fa(%rip),%rax        # 276e0 <g_4764>
    ade6:	31 ca                	xor    %ecx,%edx
    ade8:	89 10                	mov    %edx,(%rax)
    adea:	48 8b 85 70 e3 ff ff 	mov    -0x1c90(%rbp),%rax
    adf1:	c7 00 01 00 00 00    	movl   $0x1,(%rax)
    adf7:	48 8b 85 70 e3 ff ff 	mov    -0x1c90(%rbp),%rax
    adfe:	8b 00                	mov    (%rax),%eax
    ae00:	35 95 79 8b 8a       	xor    $0x8a8b7995,%eax
    ae05:	44 09 f8             	or     %r15d,%eax
    ae08:	44 89 e6             	mov    %r12d,%esi
    ae0b:	89 c7                	mov    %eax,%edi
    ae0d:	e8 a6 e0 ff ff       	callq  8eb8 <safe_add_func_uint32_t_u_u>
    ae12:	0f b6 85 7c e3 ff ff 	movzbl -0x1c84(%rbp),%eax
    ae19:	3c 01                	cmp    $0x1,%al
    ae1b:	0f 94 c0             	sete   %al
    ae1e:	0f b6 c0             	movzbl %al,%eax
    ae21:	48 89 de             	mov    %rbx,%rsi
    ae24:	48 89 c7             	mov    %rax,%rdi
    ae27:	e8 88 db ff ff       	callq  89b4 <safe_mod_func_int64_t_s_s>
    ae2c:	44 89 f2             	mov    %r14d,%edx
    ae2f:	31 c2                	xor    %eax,%edx
    ae31:	8b 85 9c f7 ff ff    	mov    -0x864(%rbp),%eax
    ae37:	89 d6                	mov    %edx,%esi
    ae39:	89 c7                	mov    %eax,%edi
    ae3b:	e8 76 d7 ff ff       	callq  85b6 <safe_add_func_int32_t_s_s>
    ae40:	be 57 f3 d1 81       	mov    $0x81d1f357,%esi
    ae45:	89 c7                	mov    %eax,%edi
    ae47:	e8 84 e0 ff ff       	callq  8ed0 <safe_sub_func_uint32_t_u_u>
    ae4c:	89 85 3c ee ff ff    	mov    %eax,-0x11c4(%rbp)
    ae52:	8b 85 3c ee ff ff    	mov    -0x11c4(%rbp),%eax
    ae58:	0f be c0             	movsbl %al,%eax
    ae5b:	be 01 00 00 00       	mov    $0x1,%esi
    ae60:	89 c7                	mov    %eax,%edi
    ae62:	e8 6d d3 ff ff       	callq  81d4 <safe_add_func_int8_t_s_s>
    ae67:	0f be c0             	movsbl %al,%eax
    ae6a:	f7 d0                	not    %eax
    ae6c:	89 85 ac e3 ff ff    	mov    %eax,-0x1c54(%rbp)
    ae72:	48 8b 85 60 e3 ff ff 	mov    -0x1ca0(%rbp),%rax
    ae79:	48 89 85 68 e5 ff ff 	mov    %rax,-0x1a98(%rbp)
    ae80:	e9 c7 1d 00 00       	jmpq   cc4c <func_2+0x3010>
    ae85:	48 8b 05 5c c8 01 00 	mov    0x1c85c(%rip),%rax        # 276e8 <g_4973>
    ae8c:	48 8b 95 60 e3 ff ff 	mov    -0x1ca0(%rbp),%rdx
    ae93:	48 89 10             	mov    %rdx,(%rax)
    ae96:	48 8b 15 4b c5 01 00 	mov    0x1c54b(%rip),%rdx        # 273e8 <g_1983>
    ae9d:	48 8b 00             	mov    (%rax),%rax
    aea0:	48 89 02             	mov    %rax,(%rdx)
    aea3:	48 8b 85 70 e3 ff ff 	mov    -0x1c90(%rbp),%rax
    aeaa:	e9 cb 41 00 00       	jmpq   f07a <func_2+0x543e>
    aeaf:	c7 45 c1 fc 8e 8e fc 	movl   $0xfc8e8efc,-0x3f(%rbp)
    aeb6:	66 c7 45 c5 8e 8e    	movw   $0x8e8e,-0x3b(%rbp)
    aebc:	c6 45 c7 fc          	movb   $0xfc,-0x39(%rbp)
    aec0:	48 8d 85 68 e5 ff ff 	lea    -0x1a98(%rbp),%rax
    aec7:	48 89 85 20 e7 ff ff 	mov    %rax,-0x18e0(%rbp)
    aece:	48 8d 05 33 c3 01 00 	lea    0x1c333(%rip),%rax        # 27208 <g_1022>
    aed5:	48 89 85 c8 e5 ff ff 	mov    %rax,-0x1a38(%rbp)
    aedc:	48 8d 05 cd c5 01 00 	lea    0x1c5cd(%rip),%rax        # 274b0 <g_3596>
    aee3:	48 89 85 28 e7 ff ff 	mov    %rax,-0x18d8(%rbp)
    aeea:	48 b8 72 3d 38 7f 2c 	movabs $0xedde3d2c7f383d72,%rax
    aef1:	3d de ed 
    aef4:	48 89 85 30 e7 ff ff 	mov    %rax,-0x18d0(%rbp)
    aefb:	48 c7 85 30 e9 ff ff 	movq   $0x0,-0x16d0(%rbp)
    af02:	00 00 00 00 
    af06:	48 c7 85 38 e9 ff ff 	movq   $0x0,-0x16c8(%rbp)
    af0d:	00 00 00 00 
    af11:	48 c7 85 40 e9 ff ff 	movq   $0x0,-0x16c0(%rbp)
    af18:	00 00 00 00 
    af1c:	48 c7 85 48 e9 ff ff 	movq   $0x0,-0x16b8(%rbp)
    af23:	00 00 00 00 
    af27:	48 c7 85 50 e9 ff ff 	movq   $0x0,-0x16b0(%rbp)
    af2e:	00 00 00 00 
    af32:	c7 85 30 eb ff ff 19 	movl   $0x21e01f19,-0x14d0(%rbp)
    af39:	1f e0 21 
    af3c:	c7 85 34 eb ff ff 57 	movl   $0x1e65e857,-0x14cc(%rbp)
    af43:	e8 65 1e 
    af46:	c7 85 38 eb ff ff 01 	movl   $0x1,-0x14c8(%rbp)
    af4d:	00 00 00 
    af50:	c7 85 3c eb ff ff ff 	movl   $0xffffffff,-0x14c4(%rbp)
    af57:	ff ff ff 
    af5a:	c7 85 40 eb ff ff db 	movl   $0x705037db,-0x14c0(%rbp)
    af61:	37 50 70 
    af64:	c7 85 44 eb ff ff 01 	movl   $0x1,-0x14bc(%rbp)
    af6b:	00 00 00 
    af6e:	c7 85 48 eb ff ff 01 	movl   $0x1,-0x14b8(%rbp)
    af75:	00 00 00 
    af78:	c7 85 4c eb ff ff db 	movl   $0x705037db,-0x14b4(%rbp)
    af7f:	37 50 70 
    af82:	c7 85 50 eb ff ff 19 	movl   $0x21e01f19,-0x14b0(%rbp)
    af89:	1f e0 21 
    af8c:	c7 85 54 eb ff ff dc 	movl   $0x88b117dc,-0x14ac(%rbp)
    af93:	17 b1 88 
    af96:	c7 85 58 eb ff ff 01 	movl   $0x1,-0x14a8(%rbp)
    af9d:	00 00 00 
    afa0:	c7 85 5c eb ff ff bc 	movl   $0x843a30bc,-0x14a4(%rbp)
    afa7:	30 3a 84 
    afaa:	c7 85 60 eb ff ff f7 	movl   $0xfffffff7,-0x14a0(%rbp)
    afb1:	ff ff ff 
    afb4:	c7 85 64 eb ff ff c2 	movl   $0x707e10c2,-0x149c(%rbp)
    afbb:	10 7e 70 
    afbe:	c7 85 68 eb ff ff bc 	movl   $0x843a30bc,-0x1498(%rbp)
    afc5:	30 3a 84 
    afc8:	c7 85 6c eb ff ff fa 	movl   $0xfffffffa,-0x1494(%rbp)
    afcf:	ff ff ff 
    afd2:	c7 85 70 eb ff ff bc 	movl   $0x843a30bc,-0x1490(%rbp)
    afd9:	30 3a 84 
    afdc:	c7 85 74 eb ff ff fa 	movl   $0xfffffffa,-0x148c(%rbp)
    afe3:	ff ff ff 
    afe6:	c7 85 78 eb ff ff b3 	movl   $0x6c3a2cb3,-0x1488(%rbp)
    afed:	2c 3a 6c 
    aff0:	c7 85 7c eb ff ff fa 	movl   $0xfffffffa,-0x1484(%rbp)
    aff7:	ff ff ff 
    affa:	c7 85 80 eb ff ff 01 	movl   $0x1,-0x1480(%rbp)
    b001:	00 00 00 
    b004:	c7 85 84 eb ff ff c2 	movl   $0x707e10c2,-0x147c(%rbp)
    b00b:	10 7e 70 
    b00e:	c7 85 88 eb ff ff 57 	movl   $0x1e65e857,-0x1478(%rbp)
    b015:	e8 65 1e 
    b018:	c7 85 8c eb ff ff bc 	movl   $0x843a30bc,-0x1474(%rbp)
    b01f:	30 3a 84 
    b022:	c7 85 90 eb ff ff fa 	movl   $0xfffffffa,-0x1470(%rbp)
    b029:	ff ff ff 
    b02c:	c7 85 94 eb ff ff dc 	movl   $0x88b117dc,-0x146c(%rbp)
    b033:	17 b1 88 
    b036:	c7 85 98 eb ff ff fa 	movl   $0xfffffffa,-0x1468(%rbp)
    b03d:	ff ff ff 
    b040:	c7 85 9c eb ff ff db 	movl   $0x705037db,-0x1464(%rbp)
    b047:	37 50 70 
    b04a:	c7 85 a0 eb ff ff 57 	movl   $0x1e65e857,-0x1460(%rbp)
    b051:	e8 65 1e 
    b054:	c7 85 a4 eb ff ff 01 	movl   $0x1,-0x145c(%rbp)
    b05b:	00 00 00 
    b05e:	c7 85 a8 eb ff ff ff 	movl   $0xffffffff,-0x1458(%rbp)
    b065:	ff ff ff 
    b068:	c7 85 ac eb ff ff ff 	movl   $0xffffffff,-0x1454(%rbp)
    b06f:	ff ff ff 
    b072:	c7 85 b0 eb ff ff 57 	movl   $0x1e65e857,-0x1450(%rbp)
    b079:	e8 65 1e 
    b07c:	c7 85 b4 eb ff ff 57 	movl   $0x1e65e857,-0x144c(%rbp)
    b083:	e8 65 1e 
    b086:	c7 85 b8 eb ff ff fa 	movl   $0xfffffffa,-0x1448(%rbp)
    b08d:	ff ff ff 
    b090:	c7 85 bc eb ff ff 19 	movl   $0x21e01f19,-0x1444(%rbp)
    b097:	1f e0 21 
    b09a:	c7 85 c0 eb ff ff fa 	movl   $0xfffffffa,-0x1440(%rbp)
    b0a1:	ff ff ff 
    b0a4:	c7 85 c4 eb ff ff ff 	movl   $0xffffffff,-0x143c(%rbp)
    b0ab:	ff ff ff 
    b0ae:	c7 85 c8 eb ff ff 57 	movl   $0x1e65e857,-0x1438(%rbp)
    b0b5:	e8 65 1e 
    b0b8:	c7 85 cc eb ff ff dc 	movl   $0x88b117dc,-0x1434(%rbp)
    b0bf:	17 b1 88 
    b0c2:	48 c7 85 38 e7 ff ff 	movq   $0x0,-0x18c8(%rbp)
    b0c9:	00 00 00 00 
    b0cd:	c6 85 87 e3 ff ff 7b 	movb   $0x7b,-0x1c79(%rbp)
    b0d4:	66 c7 85 a4 e3 ff ff 	movw   $0x5595,-0x1c5c(%rbp)
    b0db:	95 55 
    b0dd:	c7 85 f4 e4 ff ff 01 	movl   $0x1,-0x1b0c(%rbp)
    b0e4:	00 00 00 
    b0e7:	48 c7 85 40 e7 ff ff 	movq   $0x0,-0x18c0(%rbp)
    b0ee:	00 00 00 00 
    b0f2:	c6 85 90 e3 ff ff fd 	movb   $0xfd,-0x1c70(%rbp)
    b0f9:	48 c7 85 48 e7 ff ff 	movq   $0xfffffffffffffff8,-0x18b8(%rbp)
    b100:	f8 ff ff ff 
    b104:	48 c7 85 50 e7 ff ff 	movq   $0x0,-0x18b0(%rbp)
    b10b:	00 00 00 00 
    b10f:	48 c7 85 58 e7 ff ff 	movq   $0x0,-0x18a8(%rbp)
    b116:	00 00 00 00 
    b11a:	48 8d 85 e8 e3 ff ff 	lea    -0x1c18(%rbp),%rax
    b121:	48 89 85 60 e7 ff ff 	mov    %rax,-0x18a0(%rbp)
    b128:	48 8d 85 d4 e3 ff ff 	lea    -0x1c2c(%rbp),%rax
    b12f:	48 89 85 68 e7 ff ff 	mov    %rax,-0x1898(%rbp)
    b136:	48 8d 85 cc e3 ff ff 	lea    -0x1c34(%rbp),%rax
    b13d:	48 89 85 70 e7 ff ff 	mov    %rax,-0x1890(%rbp)
    b144:	48 8d 85 b0 e3 ff ff 	lea    -0x1c50(%rbp),%rax
    b14b:	48 89 85 20 ee ff ff 	mov    %rax,-0x11e0(%rbp)
    b152:	48 c7 85 28 ee ff ff 	movq   $0x0,-0x11d8(%rbp)
    b159:	00 00 00 00 
    b15d:	48 8d 85 b4 e3 ff ff 	lea    -0x1c4c(%rbp),%rax
    b164:	48 89 85 30 ee ff ff 	mov    %rax,-0x11d0(%rbp)
    b16b:	48 c7 85 38 ee ff ff 	movq   $0x0,-0x11c8(%rbp)
    b172:	00 00 00 00 
    b176:	48 8d 85 b0 e3 ff ff 	lea    -0x1c50(%rbp),%rax
    b17d:	48 89 85 40 ee ff ff 	mov    %rax,-0x11c0(%rbp)
    b184:	48 c7 85 48 ee ff ff 	movq   $0x0,-0x11b8(%rbp)
    b18b:	00 00 00 00 
    b18f:	48 c7 85 50 ee ff ff 	movq   $0x0,-0x11b0(%rbp)
    b196:	00 00 00 00 
    b19a:	48 8d 85 b0 e3 ff ff 	lea    -0x1c50(%rbp),%rax
    b1a1:	48 89 85 58 ee ff ff 	mov    %rax,-0x11a8(%rbp)
    b1a8:	48 c7 85 60 ee ff ff 	movq   $0x0,-0x11a0(%rbp)
    b1af:	00 00 00 00 
    b1b3:	48 c7 85 68 ee ff ff 	movq   $0x0,-0x1198(%rbp)
    b1ba:	00 00 00 00 
    b1be:	48 c7 85 70 ee ff ff 	movq   $0x0,-0x1190(%rbp)
    b1c5:	00 00 00 00 
    b1c9:	48 c7 85 78 ee ff ff 	movq   $0x0,-0x1188(%rbp)
    b1d0:	00 00 00 00 
    b1d4:	48 8d 85 00 e9 ff ff 	lea    -0x1700(%rbp),%rax
    b1db:	48 83 c0 08          	add    $0x8,%rax
    b1df:	48 89 85 80 ee ff ff 	mov    %rax,-0x1180(%rbp)
    b1e6:	48 8d 85 b0 e3 ff ff 	lea    -0x1c50(%rbp),%rax
    b1ed:	48 89 85 88 ee ff ff 	mov    %rax,-0x1178(%rbp)
    b1f4:	48 8d 85 00 e9 ff ff 	lea    -0x1700(%rbp),%rax
    b1fb:	48 83 c0 08          	add    $0x8,%rax
    b1ff:	48 89 85 90 ee ff ff 	mov    %rax,-0x1170(%rbp)
    b206:	48 c7 85 98 ee ff ff 	movq   $0x0,-0x1168(%rbp)
    b20d:	00 00 00 00 
    b211:	48 c7 85 a0 ee ff ff 	movq   $0x0,-0x1160(%rbp)
    b218:	00 00 00 00 
    b21c:	48 8d 85 00 e9 ff ff 	lea    -0x1700(%rbp),%rax
    b223:	48 83 c0 08          	add    $0x8,%rax
    b227:	48 89 85 a8 ee ff ff 	mov    %rax,-0x1158(%rbp)
    b22e:	48 c7 85 b0 ee ff ff 	movq   $0x0,-0x1150(%rbp)
    b235:	00 00 00 00 
    b239:	48 c7 85 b8 ee ff ff 	movq   $0x0,-0x1148(%rbp)
    b240:	00 00 00 00 
    b244:	48 8d 85 b4 e3 ff ff 	lea    -0x1c4c(%rbp),%rax
    b24b:	48 89 85 c0 ee ff ff 	mov    %rax,-0x1140(%rbp)
    b252:	48 8d 85 b4 e3 ff ff 	lea    -0x1c4c(%rbp),%rax
    b259:	48 89 85 c8 ee ff ff 	mov    %rax,-0x1138(%rbp)
    b260:	48 c7 85 d0 ee ff ff 	movq   $0x0,-0x1130(%rbp)
    b267:	00 00 00 00 
    b26b:	48 c7 85 d8 ee ff ff 	movq   $0x0,-0x1128(%rbp)
    b272:	00 00 00 00 
    b276:	48 8d 85 00 e9 ff ff 	lea    -0x1700(%rbp),%rax
    b27d:	48 83 c0 08          	add    $0x8,%rax
    b281:	48 89 85 e0 ee ff ff 	mov    %rax,-0x1120(%rbp)
    b288:	48 8d 85 00 e9 ff ff 	lea    -0x1700(%rbp),%rax
    b28f:	48 83 c0 08          	add    $0x8,%rax
    b293:	48 89 85 e8 ee ff ff 	mov    %rax,-0x1118(%rbp)
    b29a:	48 8d 85 b4 e3 ff ff 	lea    -0x1c4c(%rbp),%rax
    b2a1:	48 89 85 f0 ee ff ff 	mov    %rax,-0x1110(%rbp)
    b2a8:	48 8d 85 b0 e3 ff ff 	lea    -0x1c50(%rbp),%rax
    b2af:	48 89 85 f8 ee ff ff 	mov    %rax,-0x1108(%rbp)
    b2b6:	48 8d 85 b8 e3 ff ff 	lea    -0x1c48(%rbp),%rax
    b2bd:	48 89 85 00 ef ff ff 	mov    %rax,-0x1100(%rbp)
    b2c4:	48 8d 85 b0 e3 ff ff 	lea    -0x1c50(%rbp),%rax
    b2cb:	48 89 85 08 ef ff ff 	mov    %rax,-0x10f8(%rbp)
    b2d2:	48 8d 85 b4 e3 ff ff 	lea    -0x1c4c(%rbp),%rax
    b2d9:	48 89 85 10 ef ff ff 	mov    %rax,-0x10f0(%rbp)
    b2e0:	48 8d 85 00 e9 ff ff 	lea    -0x1700(%rbp),%rax
    b2e7:	48 83 c0 08          	add    $0x8,%rax
    b2eb:	48 89 85 18 ef ff ff 	mov    %rax,-0x10e8(%rbp)
    b2f2:	48 8d 85 00 e9 ff ff 	lea    -0x1700(%rbp),%rax
    b2f9:	48 83 c0 08          	add    $0x8,%rax
    b2fd:	48 89 85 20 ef ff ff 	mov    %rax,-0x10e0(%rbp)
    b304:	48 c7 85 28 ef ff ff 	movq   $0x0,-0x10d8(%rbp)
    b30b:	00 00 00 00 
    b30f:	48 c7 85 30 ef ff ff 	movq   $0x0,-0x10d0(%rbp)
    b316:	00 00 00 00 
    b31a:	48 8d 85 b4 e3 ff ff 	lea    -0x1c4c(%rbp),%rax
    b321:	48 89 85 38 ef ff ff 	mov    %rax,-0x10c8(%rbp)
    b328:	48 8d 85 b4 e3 ff ff 	lea    -0x1c4c(%rbp),%rax
    b32f:	48 89 85 40 ef ff ff 	mov    %rax,-0x10c0(%rbp)
    b336:	48 c7 85 48 ef ff ff 	movq   $0x0,-0x10b8(%rbp)
    b33d:	00 00 00 00 
    b341:	48 c7 85 50 ef ff ff 	movq   $0x0,-0x10b0(%rbp)
    b348:	00 00 00 00 
    b34c:	48 8d 85 00 e9 ff ff 	lea    -0x1700(%rbp),%rax
    b353:	48 83 c0 08          	add    $0x8,%rax
    b357:	48 89 85 58 ef ff ff 	mov    %rax,-0x10a8(%rbp)
    b35e:	48 c7 85 60 ef ff ff 	movq   $0x0,-0x10a0(%rbp)
    b365:	00 00 00 00 
    b369:	48 c7 85 68 ef ff ff 	movq   $0x0,-0x1098(%rbp)
    b370:	00 00 00 00 
    b374:	48 8d 85 00 e9 ff ff 	lea    -0x1700(%rbp),%rax
    b37b:	48 83 c0 08          	add    $0x8,%rax
    b37f:	48 89 85 70 ef ff ff 	mov    %rax,-0x1090(%rbp)
    b386:	48 8d 85 b0 e3 ff ff 	lea    -0x1c50(%rbp),%rax
    b38d:	48 89 85 78 ef ff ff 	mov    %rax,-0x1088(%rbp)
    b394:	48 8d 85 00 e9 ff ff 	lea    -0x1700(%rbp),%rax
    b39b:	48 83 c0 08          	add    $0x8,%rax
    b39f:	48 89 85 80 ef ff ff 	mov    %rax,-0x1080(%rbp)
    b3a6:	48 c7 85 88 ef ff ff 	movq   $0x0,-0x1078(%rbp)
    b3ad:	00 00 00 00 
    b3b1:	48 c7 85 90 ef ff ff 	movq   $0x0,-0x1070(%rbp)
    b3b8:	00 00 00 00 
    b3bc:	48 c7 85 98 ef ff ff 	movq   $0x0,-0x1068(%rbp)
    b3c3:	00 00 00 00 
    b3c7:	48 8b 85 68 e3 ff ff 	mov    -0x1c98(%rbp),%rax
    b3ce:	0f b7 d8             	movzwl %ax,%ebx
    b3d1:	48 8b 05 f8 c0 01 00 	mov    0x1c0f8(%rip),%rax        # 274d0 <g_3674>
    b3d8:	48 8b 00             	mov    (%rax),%rax
    b3db:	66 c7 00 ff ff       	movw   $0xffff,(%rax)
    b3e0:	0f b6 85 7c e3 ff ff 	movzbl -0x1c84(%rbp),%eax
    b3e7:	0f b6 c0             	movzbl %al,%eax
    b3ea:	f7 d0                	not    %eax
    b3ec:	98                   	cwtl   
    b3ed:	be f9 ff ff ff       	mov    $0xfffffff9,%esi
    b3f2:	89 c7                	mov    %eax,%edi
    b3f4:	e8 1d d0 ff ff       	callq  8416 <safe_mod_func_int16_t_s_s>
    b3f9:	0f b7 c0             	movzwl %ax,%eax
    b3fc:	89 de                	mov    %ebx,%esi
    b3fe:	89 c7                	mov    %eax,%edi
    b400:	e8 89 d9 ff ff       	callq  8d8e <safe_div_func_uint16_t_u_u>
    b405:	0f b7 c8             	movzwl %ax,%ecx
    b408:	0f b6 45 c6          	movzbl -0x3a(%rbp),%eax
    b40c:	48 0f be c0          	movsbq %al,%rax
    b410:	48 39 85 58 e3 ff ff 	cmp    %rax,-0x1ca8(%rbp)
    b417:	0f 9c c2             	setl   %dl
    b41a:	48 8d 05 ef bc 01 00 	lea    0x1bcef(%rip),%rax        # 27110 <g_573>
    b421:	48 8b 00             	mov    (%rax),%rax
    b424:	0f b6 d2             	movzbl %dl,%edx
    b427:	48 89 10             	mov    %rdx,(%rax)
    b42a:	48 8b 05 9f bf 01 00 	mov    0x1bf9f(%rip),%rax        # 273d0 <g_1749>
    b431:	0f b7 00             	movzwl (%rax),%eax
    b434:	0f bf f8             	movswl %ax,%edi
    b437:	48 8b 05 c2 bd 01 00 	mov    0x1bdc2(%rip),%rax        # 27200 <g_1023>
    b43e:	0f b6 10             	movzbl (%rax),%edx
    b441:	8d 72 ff             	lea    -0x1(%rdx),%esi
    b444:	40 88 30             	mov    %sil,(%rax)
    b447:	0f b6 f2             	movzbl %dl,%esi
    b44a:	48 8b 85 20 e7 ff ff 	mov    -0x18e0(%rbp),%rax
    b451:	48 8b 95 60 e3 ff ff 	mov    -0x1ca0(%rbp),%rdx
    b458:	48 89 10             	mov    %rdx,(%rax)
    b45b:	48 8b 85 20 e7 ff ff 	mov    -0x18e0(%rbp),%rax
    b462:	48 8b 00             	mov    (%rax),%rax
    b465:	48 39 85 60 e3 ff ff 	cmp    %rax,-0x1ca0(%rbp)
    b46c:	0f 95 c0             	setne  %al
    b46f:	0f b6 c0             	movzbl %al,%eax
    b472:	48 39 85 68 e3 ff ff 	cmp    %rax,-0x1c98(%rbp)
    b479:	0f 9e c0             	setle  %al
    b47c:	0f b6 c0             	movzbl %al,%eax
    b47f:	39 c6                	cmp    %eax,%esi
    b481:	0f 9c c0             	setl   %al
    b484:	0f b6 c0             	movzbl %al,%eax
    b487:	21 f8                	and    %edi,%eax
    b489:	89 ce                	mov    %ecx,%esi
    b48b:	89 c7                	mov    %eax,%edi
    b48d:	e8 24 d1 ff ff       	callq  85b6 <safe_add_func_int32_t_s_s>
    b492:	85 c0                	test   %eax,%eax
    b494:	0f 84 d8 13 00 00    	je     c872 <func_2+0x2c36>
    b49a:	48 8d 05 ff 93 01 00 	lea    0x193ff(%rip),%rax        # 248a0 <g_1259>
    b4a1:	48 89 85 e8 e5 ff ff 	mov    %rax,-0x1a18(%rbp)
    b4a8:	c7 85 28 e5 ff ff df 	movl   $0xc00faedf,-0x1ad8(%rbp)
    b4af:	ae 0f c0 
    b4b2:	48 c7 85 d0 e5 ff ff 	movq   $0x0,-0x1a30(%rbp)
    b4b9:	00 00 00 00 
    b4bd:	48 8d 85 d0 e5 ff ff 	lea    -0x1a30(%rbp),%rax
    b4c4:	48 89 85 90 ea ff ff 	mov    %rax,-0x1570(%rbp)
    b4cb:	48 c7 85 98 ea ff ff 	movq   $0x0,-0x1568(%rbp)
    b4d2:	00 00 00 00 
    b4d6:	48 c7 85 a0 ea ff ff 	movq   $0x0,-0x1560(%rbp)
    b4dd:	00 00 00 00 
    b4e1:	48 8d 85 d0 e5 ff ff 	lea    -0x1a30(%rbp),%rax
    b4e8:	48 89 85 a8 ea ff ff 	mov    %rax,-0x1558(%rbp)
    b4ef:	48 c7 85 b0 ea ff ff 	movq   $0x0,-0x1550(%rbp)
    b4f6:	00 00 00 00 
    b4fa:	48 c7 85 b8 ea ff ff 	movq   $0x0,-0x1548(%rbp)
    b501:	00 00 00 00 
    b505:	48 8d 85 d0 e5 ff ff 	lea    -0x1a30(%rbp),%rax
    b50c:	48 89 85 c0 ea ff ff 	mov    %rax,-0x1540(%rbp)
    b513:	48 c7 85 c8 ea ff ff 	movq   $0x0,-0x1538(%rbp)
    b51a:	00 00 00 00 
    b51e:	48 c7 85 d0 ea ff ff 	movq   $0x0,-0x1530(%rbp)
    b525:	00 00 00 00 
    b529:	48 c7 85 98 e7 ff ff 	movq   $0x0,-0x1868(%rbp)
    b530:	00 00 00 00 
    b534:	48 8d 85 ac e3 ff ff 	lea    -0x1c54(%rbp),%rax
    b53b:	48 89 85 a0 e7 ff ff 	mov    %rax,-0x1860(%rbp)
    b542:	48 c7 85 a8 e7 ff ff 	movq   $0x0,-0x1858(%rbp)
    b549:	00 00 00 00 
    b54d:	48 8d 05 d4 8a 01 00 	lea    0x18ad4(%rip),%rax        # 24028 <g_62>
    b554:	48 89 85 b0 e7 ff ff 	mov    %rax,-0x1850(%rbp)
    b55b:	48 8d 85 d4 e3 ff ff 	lea    -0x1c2c(%rbp),%rax
    b562:	48 89 85 b8 e7 ff ff 	mov    %rax,-0x1848(%rbp)
    b569:	48 8d 05 bc 95 01 00 	lea    0x195bc(%rip),%rax        # 24b2c <g_3411>
    b570:	48 89 85 e0 ea ff ff 	mov    %rax,-0x1520(%rbp)
    b577:	48 8d 05 ae 95 01 00 	lea    0x195ae(%rip),%rax        # 24b2c <g_3411>
    b57e:	48 89 85 e8 ea ff ff 	mov    %rax,-0x1518(%rbp)
    b585:	48 8d 05 a0 95 01 00 	lea    0x195a0(%rip),%rax        # 24b2c <g_3411>
    b58c:	48 89 85 f0 ea ff ff 	mov    %rax,-0x1510(%rbp)
    b593:	48 8d 05 92 95 01 00 	lea    0x19592(%rip),%rax        # 24b2c <g_3411>
    b59a:	48 89 85 f8 ea ff ff 	mov    %rax,-0x1508(%rbp)
    b5a1:	48 8d 05 84 95 01 00 	lea    0x19584(%rip),%rax        # 24b2c <g_3411>
    b5a8:	48 89 85 00 eb ff ff 	mov    %rax,-0x1500(%rbp)
    b5af:	48 8d 05 76 95 01 00 	lea    0x19576(%rip),%rax        # 24b2c <g_3411>
    b5b6:	48 89 85 08 eb ff ff 	mov    %rax,-0x14f8(%rbp)
    b5bd:	48 8d 05 68 95 01 00 	lea    0x19568(%rip),%rax        # 24b2c <g_3411>
    b5c4:	48 89 85 10 eb ff ff 	mov    %rax,-0x14f0(%rbp)
    b5cb:	48 8d 05 5a 95 01 00 	lea    0x1955a(%rip),%rax        # 24b2c <g_3411>
    b5d2:	48 89 85 18 eb ff ff 	mov    %rax,-0x14e8(%rbp)
    b5d9:	48 8d 05 4c 95 01 00 	lea    0x1954c(%rip),%rax        # 24b2c <g_3411>
    b5e0:	48 89 85 20 eb ff ff 	mov    %rax,-0x14e0(%rbp)
    b5e7:	c7 85 3c e4 ff ff 00 	movl   $0x0,-0x1bc4(%rbp)
    b5ee:	00 00 00 
    b5f1:	eb 1e                	jmp    b611 <func_2+0x19d5>
    b5f3:	8b 85 3c e4 ff ff    	mov    -0x1bc4(%rbp),%eax
    b5f9:	48 98                	cltq   
    b5fb:	48 8d 15 3c 94 01 00 	lea    0x1943c(%rip),%rdx        # 24a3e <g_2025+0x2>
    b602:	48 89 94 c5 d0 e9 ff 	mov    %rdx,-0x1630(%rbp,%rax,8)
    b609:	ff 
    b60a:	83 85 3c e4 ff ff 01 	addl   $0x1,-0x1bc4(%rbp)
    b611:	83 bd 3c e4 ff ff 06 	cmpl   $0x6,-0x1bc4(%rbp)
    b618:	7e d9                	jle    b5f3 <func_2+0x19b7>
    b61a:	48 8b 05 67 b7 01 00 	mov    0x1b767(%rip),%rax        # 26d88 <g_146>
    b621:	8b 00                	mov    (%rax),%eax
    b623:	41 89 c7             	mov    %eax,%r15d
    b626:	48 8b 85 68 e5 ff ff 	mov    -0x1a98(%rbp),%rax
    b62d:	8b 00                	mov    (%rax),%eax
    b62f:	0f b6 d8             	movzbl %al,%ebx
    b632:	0f b6 85 7c e3 ff ff 	movzbl -0x1c84(%rbp),%eax
    b639:	44 0f b6 f0          	movzbl %al,%r14d
    b63d:	0f b6 85 7c e3 ff ff 	movzbl -0x1c84(%rbp),%eax
    b644:	44 0f b6 e0          	movzbl %al,%r12d
    b648:	48 8b 05 81 c0 01 00 	mov    0x1c081(%rip),%rax        # 276d0 <g_4401>
    b64f:	48 8b 00             	mov    (%rax),%rax
    b652:	48 8b 00             	mov    (%rax),%rax
    b655:	8b 08                	mov    (%rax),%ecx
    b657:	0f b6 95 7c e3 ff ff 	movzbl -0x1c84(%rbp),%edx
    b65e:	0f b6 d2             	movzbl %dl,%edx
    b661:	48 39 95 58 e3 ff ff 	cmp    %rdx,-0x1ca8(%rbp)
    b668:	0f 9f c2             	setg   %dl
    b66b:	0f b6 d2             	movzbl %dl,%edx
    b66e:	09 ca                	or     %ecx,%edx
    b670:	89 10                	mov    %edx,(%rax)
    b672:	48 8b 85 68 e5 ff ff 	mov    -0x1a98(%rbp),%rax
    b679:	44 8b 28             	mov    (%rax),%r13d
    b67c:	48 83 bd 58 e3 ff ff 	cmpq   $0x0,-0x1ca8(%rbp)
    b683:	00 
    b684:	75 3c                	jne    b6c2 <func_2+0x1a86>
    b686:	0f b6 85 7c e3 ff ff 	movzbl -0x1c84(%rbp),%eax
    b68d:	0f b6 d0             	movzbl %al,%edx
    b690:	48 8b 05 19 be 01 00 	mov    0x1be19(%rip),%rax        # 274b0 <g_3596>
    b697:	48 8b 8d c8 e5 ff ff 	mov    -0x1a38(%rbp),%rcx
    b69e:	48 89 08             	mov    %rcx,(%rax)
    b6a1:	48 8b 08             	mov    (%rax),%rcx
    b6a4:	48 8b 85 70 e5 ff ff 	mov    -0x1a90(%rbp),%rax
    b6ab:	48 39 c1             	cmp    %rax,%rcx
    b6ae:	0f 95 c0             	setne  %al
    b6b1:	0f b6 c0             	movzbl %al,%eax
    b6b4:	48 89 d6             	mov    %rdx,%rsi
    b6b7:	48 89 c7             	mov    %rax,%rdi
    b6ba:	e8 38 d3 ff ff       	callq  89f7 <safe_div_func_int64_t_s_s>
    b6bf:	48 85 c0             	test   %rax,%rax
    b6c2:	48 8b 85 68 e3 ff ff 	mov    -0x1c98(%rbp),%rax
    b6c9:	83 f0 01             	xor    $0x1,%eax
    b6cc:	44 89 ee             	mov    %r13d,%esi
    b6cf:	89 c7                	mov    %eax,%edi
    b6d1:	e8 29 d0 ff ff       	callq  86ff <safe_div_func_int32_t_s_s>
    b6d6:	48 8b 85 20 e7 ff ff 	mov    -0x18e0(%rbp),%rax
    b6dd:	48 8b 00             	mov    (%rax),%rax
    b6e0:	8b 00                	mov    (%rax),%eax
    b6e2:	98                   	cwtl   
    b6e3:	44 89 e6             	mov    %r12d,%esi
    b6e6:	89 c7                	mov    %eax,%edi
    b6e8:	e8 29 cd ff ff       	callq  8416 <safe_mod_func_int16_t_s_s>
    b6ed:	89 c2                	mov    %eax,%edx
    b6ef:	48 8b 05 da bd 01 00 	mov    0x1bdda(%rip),%rax        # 274d0 <g_3674>
    b6f6:	48 8b 00             	mov    (%rax),%rax
    b6f9:	66 89 10             	mov    %dx,(%rax)
    b6fc:	0f b7 00             	movzwl (%rax),%eax
    b6ff:	66 41 39 c6          	cmp    %ax,%r14w
    b703:	75 10                	jne    b715 <func_2+0x1ad9>
    b705:	48 8b 85 20 e7 ff ff 	mov    -0x18e0(%rbp),%rax
    b70c:	48 8b 00             	mov    (%rax),%rax
    b70f:	8b 00                	mov    (%rax),%eax
    b711:	85 c0                	test   %eax,%eax
    b713:	74 07                	je     b71c <func_2+0x1ae0>
    b715:	b8 01 00 00 00       	mov    $0x1,%eax
    b71a:	eb 05                	jmp    b721 <func_2+0x1ae5>
    b71c:	b8 00 00 00 00       	mov    $0x0,%eax
    b721:	39 85 58 e4 ff ff    	cmp    %eax,-0x1ba8(%rbp)
    b727:	75 0a                	jne    b733 <func_2+0x1af7>
    b729:	48 83 bd 68 e3 ff ff 	cmpq   $0x0,-0x1c98(%rbp)
    b730:	00 
    b731:	74 07                	je     b73a <func_2+0x1afe>
    b733:	b8 01 00 00 00       	mov    $0x1,%eax
    b738:	eb 05                	jmp    b73f <func_2+0x1b03>
    b73a:	b8 00 00 00 00       	mov    $0x0,%eax
    b73f:	85 c0                	test   %eax,%eax
    b741:	0f 94 c0             	sete   %al
    b744:	0f b6 c0             	movzbl %al,%eax
    b747:	89 de                	mov    %ebx,%esi
    b749:	89 c7                	mov    %eax,%edi
    b74b:	e8 43 d4 ff ff       	callq  8b93 <safe_mul_func_uint8_t_u_u>
    b750:	48 8b 15 99 ba 01 00 	mov    0x1ba99(%rip),%rdx        # 271f0 <g_711>
    b757:	0f b7 0a             	movzwl (%rdx),%ecx
    b75a:	0f b6 d0             	movzbl %al,%edx
    b75d:	48 8b 05 8c ba 01 00 	mov    0x1ba8c(%rip),%rax        # 271f0 <g_711>
    b764:	21 ca                	and    %ecx,%edx
    b766:	66 89 10             	mov    %dx,(%rax)
    b769:	0f b7 00             	movzwl (%rax),%eax
    b76c:	0f b7 c0             	movzwl %ax,%eax
    b76f:	be 56 65 00 00       	mov    $0x6556,%esi
    b774:	89 c7                	mov    %eax,%edi
    b776:	e8 84 d5 ff ff       	callq  8cff <safe_add_func_uint16_t_u_u>
    b77b:	44 89 fe             	mov    %r15d,%esi
    b77e:	bf ff ff ff ff       	mov    $0xffffffff,%edi
    b783:	e8 7d ce ff ff       	callq  8605 <safe_sub_func_int32_t_s_s>
    b788:	83 f8 ff             	cmp    $0xffffffff,%eax
    b78b:	0f 84 44 05 00 00    	je     bcd5 <func_2+0x2099>
    b791:	c7 85 34 e5 ff ff ff 	movl   $0xffffffff,-0x1acc(%rbp)
    b798:	ff ff ff 
    b79b:	c7 85 10 ea ff ff 01 	movl   $0x1,-0x15f0(%rbp)
    b7a2:	00 00 00 
    b7a5:	c7 85 14 ea ff ff 01 	movl   $0x1,-0x15ec(%rbp)
    b7ac:	00 00 00 
    b7af:	c7 85 18 ea ff ff 00 	movl   $0x0,-0x15e8(%rbp)
    b7b6:	00 00 00 
    b7b9:	c7 85 1c ea ff ff fc 	movl   $0xfffffffc,-0x15e4(%rbp)
    b7c0:	ff ff ff 
    b7c3:	c7 85 20 ea ff ff 04 	movl   $0x4,-0x15e0(%rbp)
    b7ca:	00 00 00 
    b7cd:	c7 85 24 ea ff ff 9e 	movl   $0xb371e79e,-0x15dc(%rbp)
    b7d4:	e7 71 b3 
    b7d7:	c7 85 28 ea ff ff 01 	movl   $0x1,-0x15d8(%rbp)
    b7de:	00 00 00 
    b7e1:	c7 85 2c ea ff ff 01 	movl   $0x1,-0x15d4(%rbp)
    b7e8:	00 00 00 
    b7eb:	c7 85 30 ea ff ff 01 	movl   $0x1,-0x15d0(%rbp)
    b7f2:	00 00 00 
    b7f5:	c7 85 34 ea ff ff 01 	movl   $0x1,-0x15cc(%rbp)
    b7fc:	00 00 00 
    b7ff:	c7 85 38 ea ff ff fc 	movl   $0xfffffffc,-0x15c8(%rbp)
    b806:	ff ff ff 
    b809:	c7 85 3c ea ff ff 01 	movl   $0x1,-0x15c4(%rbp)
    b810:	00 00 00 
    b813:	c7 85 40 ea ff ff fc 	movl   $0xfffffffc,-0x15c0(%rbp)
    b81a:	ff ff ff 
    b81d:	c7 85 44 ea ff ff 01 	movl   $0x1,-0x15bc(%rbp)
    b824:	00 00 00 
    b827:	c7 85 48 ea ff ff 01 	movl   $0x1,-0x15b8(%rbp)
    b82e:	00 00 00 
    b831:	48 8d 85 c8 e5 ff ff 	lea    -0x1a38(%rbp),%rax
    b838:	48 89 85 d8 e5 ff ff 	mov    %rax,-0x1a28(%rbp)
    b83f:	48 8d 85 d8 e5 ff ff 	lea    -0x1a28(%rbp),%rax
    b846:	48 89 85 d8 e7 ff ff 	mov    %rax,-0x1828(%rbp)
    b84d:	c7 85 c0 f8 ff ff 1e 	movl   $0x8974c1e,-0x740(%rbp)
    b854:	4c 97 08 
    b857:	c7 85 c4 f8 ff ff fd 	movl   $0xfffffffd,-0x73c(%rbp)
    b85e:	ff ff ff 
    b861:	c7 85 c8 f8 ff ff ff 	movl   $0xffffffff,-0x738(%rbp)
    b868:	ff ff ff 
    b86b:	c7 85 cc f8 ff ff c4 	movl   $0xefa7cc4,-0x734(%rbp)
    b872:	7c fa 0e 
    b875:	c7 85 d0 f8 ff ff f4 	movl   $0x78dd34f4,-0x730(%rbp)
    b87c:	34 dd 78 
    b87f:	c7 85 d4 f8 ff ff f4 	movl   $0x78dd34f4,-0x72c(%rbp)
    b886:	34 dd 78 
    b889:	c7 85 d8 f8 ff ff c4 	movl   $0xefa7cc4,-0x728(%rbp)
    b890:	7c fa 0e 
    b893:	c7 85 dc f8 ff ff ff 	movl   $0xffffffff,-0x724(%rbp)
    b89a:	ff ff ff 
    b89d:	c7 85 e0 f8 ff ff fd 	movl   $0xfffffffd,-0x720(%rbp)
    b8a4:	ff ff ff 
    b8a7:	c7 85 e4 f8 ff ff 1e 	movl   $0x8974c1e,-0x71c(%rbp)
    b8ae:	4c 97 08 
    b8b1:	c7 85 e8 f8 ff ff 00 	movl   $0x0,-0x718(%rbp)
    b8b8:	00 00 00 
    b8bb:	c7 85 ec f8 ff ff 1e 	movl   $0x8974c1e,-0x714(%rbp)
    b8c2:	4c 97 08 
    b8c5:	c7 85 f0 f8 ff ff fd 	movl   $0xfffffffd,-0x710(%rbp)
    b8cc:	ff ff ff 
    b8cf:	c7 85 f4 f8 ff ff ff 	movl   $0xffffffff,-0x70c(%rbp)
    b8d6:	ff ff ff 
    b8d9:	c7 85 f8 f8 ff ff c4 	movl   $0xefa7cc4,-0x708(%rbp)
    b8e0:	7c fa 0e 
    b8e3:	c7 85 fc f8 ff ff f4 	movl   $0x78dd34f4,-0x704(%rbp)
    b8ea:	34 dd 78 
    b8ed:	c7 85 00 f9 ff ff f4 	movl   $0x78dd34f4,-0x700(%rbp)
    b8f4:	34 dd 78 
    b8f7:	c7 85 04 f9 ff ff c4 	movl   $0xefa7cc4,-0x6fc(%rbp)
    b8fe:	7c fa 0e 
    b901:	c7 85 08 f9 ff ff ff 	movl   $0xffffffff,-0x6f8(%rbp)
    b908:	ff ff ff 
    b90b:	c7 85 0c f9 ff ff fd 	movl   $0xfffffffd,-0x6f4(%rbp)
    b912:	ff ff ff 
    b915:	c7 85 10 f9 ff ff 1e 	movl   $0x8974c1e,-0x6f0(%rbp)
    b91c:	4c 97 08 
    b91f:	c7 85 14 f9 ff ff 00 	movl   $0x0,-0x6ec(%rbp)
    b926:	00 00 00 
    b929:	c7 85 18 f9 ff ff 1e 	movl   $0x8974c1e,-0x6e8(%rbp)
    b930:	4c 97 08 
    b933:	c7 85 1c f9 ff ff fd 	movl   $0xfffffffd,-0x6e4(%rbp)
    b93a:	ff ff ff 
    b93d:	c7 85 20 f9 ff ff ff 	movl   $0xffffffff,-0x6e0(%rbp)
    b944:	ff ff ff 
    b947:	c7 85 24 f9 ff ff c4 	movl   $0xefa7cc4,-0x6dc(%rbp)
    b94e:	7c fa 0e 
    b951:	c7 85 28 f9 ff ff f4 	movl   $0x78dd34f4,-0x6d8(%rbp)
    b958:	34 dd 78 
    b95b:	c7 85 2c f9 ff ff f4 	movl   $0x78dd34f4,-0x6d4(%rbp)
    b962:	34 dd 78 
    b965:	c7 85 30 f9 ff ff c4 	movl   $0xefa7cc4,-0x6d0(%rbp)
    b96c:	7c fa 0e 
    b96f:	c7 85 34 f9 ff ff ff 	movl   $0xffffffff,-0x6cc(%rbp)
    b976:	ff ff ff 
    b979:	c7 85 38 f9 ff ff fd 	movl   $0xfffffffd,-0x6c8(%rbp)
    b980:	ff ff ff 
    b983:	c7 85 3c f9 ff ff 1e 	movl   $0x8974c1e,-0x6c4(%rbp)
    b98a:	4c 97 08 
    b98d:	c7 85 40 f9 ff ff 00 	movl   $0x0,-0x6c0(%rbp)
    b994:	00 00 00 
    b997:	c7 85 44 f9 ff ff 1e 	movl   $0x8974c1e,-0x6bc(%rbp)
    b99e:	4c 97 08 
    b9a1:	c7 85 48 f9 ff ff fd 	movl   $0xfffffffd,-0x6b8(%rbp)
    b9a8:	ff ff ff 
    b9ab:	c7 85 4c f9 ff ff ff 	movl   $0xffffffff,-0x6b4(%rbp)
    b9b2:	ff ff ff 
    b9b5:	c7 85 50 f9 ff ff c4 	movl   $0xefa7cc4,-0x6b0(%rbp)
    b9bc:	7c fa 0e 
    b9bf:	c7 85 54 f9 ff ff f4 	movl   $0x78dd34f4,-0x6ac(%rbp)
    b9c6:	34 dd 78 
    b9c9:	c7 85 58 f9 ff ff f4 	movl   $0x78dd34f4,-0x6a8(%rbp)
    b9d0:	34 dd 78 
    b9d3:	c7 85 5c f9 ff ff c4 	movl   $0xefa7cc4,-0x6a4(%rbp)
    b9da:	7c fa 0e 
    b9dd:	c7 85 60 f9 ff ff ff 	movl   $0xffffffff,-0x6a0(%rbp)
    b9e4:	ff ff ff 
    b9e7:	c7 85 64 f9 ff ff fd 	movl   $0xfffffffd,-0x69c(%rbp)
    b9ee:	ff ff ff 
    b9f1:	c7 85 68 f9 ff ff 1e 	movl   $0x8974c1e,-0x698(%rbp)
    b9f8:	4c 97 08 
    b9fb:	c7 85 6c f9 ff ff 00 	movl   $0x0,-0x694(%rbp)
    ba02:	00 00 00 
    ba05:	c7 85 70 f9 ff ff 1e 	movl   $0x8974c1e,-0x690(%rbp)
    ba0c:	4c 97 08 
    ba0f:	c7 85 74 f9 ff ff fd 	movl   $0xfffffffd,-0x68c(%rbp)
    ba16:	ff ff ff 
    ba19:	c7 85 78 f9 ff ff ff 	movl   $0xffffffff,-0x688(%rbp)
    ba20:	ff ff ff 
    ba23:	c7 85 7c f9 ff ff c4 	movl   $0xefa7cc4,-0x684(%rbp)
    ba2a:	7c fa 0e 
    ba2d:	c7 85 80 f9 ff ff 80 	movl   $0x4fce5880,-0x680(%rbp)
    ba34:	58 ce 4f 
    ba37:	48 8b 85 70 e3 ff ff 	mov    -0x1c90(%rbp),%rax
    ba3e:	8b 10                	mov    (%rax),%edx
    ba40:	48 8b 85 70 e3 ff ff 	mov    -0x1c90(%rbp),%rax
    ba47:	89 10                	mov    %edx,(%rax)
    ba49:	48 8b 85 60 e3 ff ff 	mov    -0x1ca0(%rbp),%rax
    ba50:	48 89 85 e8 e5 ff ff 	mov    %rax,-0x1a18(%rbp)
    ba57:	c7 05 0f c6 01 00 02 	movl   $0x2,0x1c60f(%rip)        # 28070 <g_4189>
    ba5e:	00 00 00 
    ba61:	90                   	nop
    ba62:	8b 05 08 c6 01 00    	mov    0x1c608(%rip),%eax        # 28070 <g_4189>
    ba68:	85 c0                	test   %eax,%eax
    ba6a:	0f 88 d9 05 00 00    	js     c049 <func_2+0x240d>
    ba70:	c7 85 38 e5 ff ff 06 	movl   $0x6,-0x1ac8(%rbp)
    ba77:	00 00 00 
    ba7a:	48 8d 05 4f 8f 01 00 	lea    0x18f4f(%rip),%rax        # 249d0 <g_1911>
    ba81:	48 89 85 e0 e7 ff ff 	mov    %rax,-0x1820(%rbp)
    ba88:	c7 85 3c e5 ff ff e2 	movl   $0x85ad01e2,-0x1ac4(%rbp)
    ba8f:	01 ad 85 
    ba92:	48 8d 05 2f b9 01 00 	lea    0x1b92f(%rip),%rax        # 273c8 <g_1496>
    ba99:	48 89 85 e0 e5 ff ff 	mov    %rax,-0x1a20(%rbp)
    baa0:	48 8d 85 e0 e5 ff ff 	lea    -0x1a20(%rbp),%rax
    baa7:	48 89 85 e8 e7 ff ff 	mov    %rax,-0x1818(%rbp)
    baae:	48 8b 05 a3 b9 01 00 	mov    0x1b9a3(%rip),%rax        # 27458 <g_2440>
    bab5:	48 8b 00             	mov    (%rax),%rax
    bab8:	0f b7 18             	movzwl (%rax),%ebx
    babb:	8d 53 ff             	lea    -0x1(%rbx),%edx
    babe:	66 89 10             	mov    %dx,(%rax)
    bac1:	48 8b 85 58 e3 ff ff 	mov    -0x1ca8(%rbp),%rax
    bac8:	44 0f b7 e0          	movzwl %ax,%r12d
    bacc:	48 8b 85 20 e7 ff ff 	mov    -0x18e0(%rbp),%rax
    bad3:	48 8b 00             	mov    (%rax),%rax
    bad6:	8b 95 34 e5 ff ff    	mov    -0x1acc(%rbp),%edx
    badc:	89 10                	mov    %edx,(%rax)
    bade:	8b 10                	mov    (%rax),%edx
    bae0:	8b 85 14 ea ff ff    	mov    -0x15ec(%rbp),%eax
    bae6:	31 d0                	xor    %edx,%eax
    bae8:	89 85 14 ea ff ff    	mov    %eax,-0x15ec(%rbp)
    baee:	8b 85 14 ea ff ff    	mov    -0x15ec(%rbp),%eax
    baf4:	41 89 c7             	mov    %eax,%r15d
    baf7:	4c 8b ad 58 e3 ff ff 	mov    -0x1ca8(%rbp),%r13
    bafe:	4c 8b b5 58 e3 ff ff 	mov    -0x1ca8(%rbp),%r14
    bb05:	8b 95 3c e5 ff ff    	mov    -0x1ac4(%rbp),%edx
    bb0b:	48 8b 05 76 b2 01 00 	mov    0x1b276(%rip),%rax        # 26d88 <g_146>
    bb12:	8b 08                	mov    (%rax),%ecx
    bb14:	8b 85 38 e5 ff ff    	mov    -0x1ac8(%rbp),%eax
    bb1a:	09 c8                	or     %ecx,%eax
    bb1c:	89 85 38 e5 ff ff    	mov    %eax,-0x1ac8(%rbp)
    bb22:	8b 85 38 e5 ff ff    	mov    -0x1ac8(%rbp),%eax
    bb28:	39 85 34 e5 ff ff    	cmp    %eax,-0x1acc(%rbp)
    bb2e:	0f 93 c0             	setae  %al
    bb31:	89 c1                	mov    %eax,%ecx
    bb33:	48 8b 85 e0 e7 ff ff 	mov    -0x1820(%rbp),%rax
    bb3a:	88 08                	mov    %cl,(%rax)
    bb3c:	48 8b 85 e0 e7 ff ff 	mov    -0x1820(%rbp),%rax
    bb43:	0f b6 00             	movzbl (%rax),%eax
    bb46:	66 98                	cbtw   
    bb48:	34 ff                	xor    $0xff,%al
    bb4a:	0f b7 c0             	movzwl %ax,%eax
    bb4d:	89 d6                	mov    %edx,%esi
    bb4f:	89 c7                	mov    %eax,%edi
    bb51:	e8 24 d3 ff ff       	callq  8e7a <safe_rshift_func_uint16_t_u_u>
    bb56:	8b 95 34 e5 ff ff    	mov    -0x1acc(%rbp),%edx
    bb5c:	48 8b 05 7d bb 01 00 	mov    0x1bb7d(%rip),%rax        # 276e0 <g_4764>
    bb63:	8b 00                	mov    (%rax),%eax
    bb65:	31 c2                	xor    %eax,%edx
    bb67:	48 8b 05 72 bb 01 00 	mov    0x1bb72(%rip),%rax        # 276e0 <g_4764>
    bb6e:	89 10                	mov    %edx,(%rax)
    bb70:	0f b6 85 7c e3 ff ff 	movzbl -0x1c84(%rbp),%eax
    bb77:	0f b6 c0             	movzbl %al,%eax
    bb7a:	39 85 28 e5 ff ff    	cmp    %eax,-0x1ad8(%rbp)
    bb80:	0f 9f c0             	setg   %al
    bb83:	0f b6 c0             	movzbl %al,%eax
    bb86:	39 85 34 e5 ff ff    	cmp    %eax,-0x1acc(%rbp)
    bb8c:	0f 96 c0             	setbe  %al
    bb8f:	0f b6 c0             	movzbl %al,%eax
    bb92:	be 03 00 00 00       	mov    $0x3,%esi
    bb97:	89 c7                	mov    %eax,%edi
    bb99:	e8 c5 c9 ff ff       	callq  8563 <safe_rshift_func_int16_t_s_u>
    bb9e:	4c 89 f6             	mov    %r14,%rsi
    bba1:	bf 00 00 00 00       	mov    $0x0,%edi
    bba6:	e8 83 d4 ff ff       	callq  902e <safe_add_func_uint64_t_u_u>
    bbab:	48 8b 85 58 e3 ff ff 	mov    -0x1ca8(%rbp),%rax
    bbb2:	48 89 c6             	mov    %rax,%rsi
    bbb5:	bf 01 00 00 00       	mov    $0x1,%edi
    bbba:	e8 38 ce ff ff       	callq  89f7 <safe_div_func_int64_t_s_s>
    bbbf:	48 8b 15 ca b1 01 00 	mov    0x1b1ca(%rip),%rdx        # 26d90 <g_145>
    bbc6:	48 8b 12             	mov    (%rdx),%rdx
    bbc9:	8b 12                	mov    (%rdx),%edx
    bbcb:	89 d2                	mov    %edx,%edx
    bbcd:	48 39 d0             	cmp    %rdx,%rax
    bbd0:	0f 94 c0             	sete   %al
    bbd3:	0f b6 c0             	movzbl %al,%eax
    bbd6:	4c 89 ee             	mov    %r13,%rsi
    bbd9:	48 89 c7             	mov    %rax,%rdi
    bbdc:	e8 9f d4 ff ff       	callq  9080 <safe_mod_func_uint64_t_u_u>
    bbe1:	8b 85 3c e5 ff ff    	mov    -0x1ac4(%rbp),%eax
    bbe7:	48 8b 95 68 e3 ff ff 	mov    -0x1c98(%rbp),%rdx
    bbee:	89 c6                	mov    %eax,%esi
    bbf0:	89 d7                	mov    %edx,%edi
    bbf2:	e8 2e d3 ff ff       	callq  8f25 <safe_div_func_uint32_t_u_u>
    bbf7:	41 39 c7             	cmp    %eax,%r15d
    bbfa:	48 83 bd 58 e3 ff ff 	cmpq   $0x0,-0x1ca8(%rbp)
    bc01:	00 
    bc02:	75 0a                	jne    bc0e <func_2+0x1fd2>
    bc04:	48 83 bd 68 e3 ff ff 	cmpq   $0x0,-0x1c98(%rbp)
    bc0b:	00 
    bc0c:	74 07                	je     bc15 <func_2+0x1fd9>
    bc0e:	b8 01 00 00 00       	mov    $0x1,%eax
    bc13:	eb 05                	jmp    bc1a <func_2+0x1fde>
    bc15:	b8 00 00 00 00       	mov    $0x0,%eax
    bc1a:	3d fa 00 00 00       	cmp    $0xfa,%eax
    bc1f:	0f 94 c0             	sete   %al
    bc22:	0f b6 d0             	movzbl %al,%edx
    bc25:	48 8b 05 a4 b8 01 00 	mov    0x1b8a4(%rip),%rax        # 274d0 <g_3674>
    bc2c:	48 8b 00             	mov    (%rax),%rax
    bc2f:	0f b7 00             	movzwl (%rax),%eax
    bc32:	0f b7 c0             	movzwl %ax,%eax
    bc35:	89 d6                	mov    %edx,%esi
    bc37:	89 c7                	mov    %eax,%edi
    bc39:	e8 c1 d0 ff ff       	callq  8cff <safe_add_func_uint16_t_u_u>
    bc3e:	0f b7 c0             	movzwl %ax,%eax
    bc41:	48 35 f4 ac d6 16    	xor    $0x16d6acf4,%rax
    bc47:	48 39 85 68 e3 ff ff 	cmp    %rax,-0x1c98(%rbp)
    bc4e:	0f 9e c0             	setle  %al
    bc51:	0f b6 c0             	movzbl %al,%eax
    bc54:	8b 95 34 e5 ff ff    	mov    -0x1acc(%rbp),%edx
    bc5a:	21 d0                	and    %edx,%eax
    bc5c:	0f b7 c0             	movzwl %ax,%eax
    bc5f:	44 89 e6             	mov    %r12d,%esi
    bc62:	89 c7                	mov    %eax,%edi
    bc64:	e8 f3 d0 ff ff       	callq  8d5c <safe_mod_func_uint16_t_u_u>
    bc69:	8b 85 34 e5 ff ff    	mov    -0x1acc(%rbp),%eax
    bc6f:	0f b6 c0             	movzbl %al,%eax
    bc72:	be 01 00 00 00       	mov    $0x1,%esi
    bc77:	89 c7                	mov    %eax,%edi
    bc79:	e8 15 cf ff ff       	callq  8b93 <safe_mul_func_uint8_t_u_u>
    bc7e:	0f b6 c0             	movzbl %al,%eax
    bc81:	66 39 c3             	cmp    %ax,%bx
    bc84:	0f 96 c0             	setbe  %al
    bc87:	0f b6 d0             	movzbl %al,%edx
    bc8a:	0f b6 85 7c e3 ff ff 	movzbl -0x1c84(%rbp),%eax
    bc91:	0f b6 c0             	movzbl %al,%eax
    bc94:	09 d0                	or     %edx,%eax
    bc96:	83 f8 07             	cmp    $0x7,%eax
    bc99:	0f 94 c0             	sete   %al
    bc9c:	0f b6 d0             	movzbl %al,%edx
    bc9f:	8b 85 34 f9 ff ff    	mov    -0x6cc(%rbp),%eax
    bca5:	21 d0                	and    %edx,%eax
    bca7:	89 85 34 f9 ff ff    	mov    %eax,-0x6cc(%rbp)
    bcad:	8b 95 14 ea ff ff    	mov    -0x15ec(%rbp),%edx
    bcb3:	48 83 bd e8 e7 ff ff 	cmpq   $0x0,-0x1818(%rbp)
    bcba:	00 
    bcbb:	0f 94 c0             	sete   %al
    bcbe:	0f b6 c0             	movzbl %al,%eax
    bcc1:	31 d0                	xor    %edx,%eax
    bcc3:	89 85 14 ea ff ff    	mov    %eax,-0x15ec(%rbp)
    bcc9:	48 8b 85 60 e3 ff ff 	mov    -0x1ca0(%rbp),%rax
    bcd0:	e9 a5 33 00 00       	jmpq   f07a <func_2+0x543e>
    bcd5:	c7 85 2c e5 ff ff bc 	movl   $0xbb6acbc,-0x1ad4(%rbp)
    bcdc:	ac b6 0b 
    bcdf:	48 8d 85 a0 e5 ff ff 	lea    -0x1a60(%rbp),%rax
    bce6:	48 89 85 c0 f8 ff ff 	mov    %rax,-0x740(%rbp)
    bced:	48 8d 85 a0 e5 ff ff 	lea    -0x1a60(%rbp),%rax
    bcf4:	48 89 85 c8 f8 ff ff 	mov    %rax,-0x738(%rbp)
    bcfb:	48 8d 85 a0 e5 ff ff 	lea    -0x1a60(%rbp),%rax
    bd02:	48 89 85 d0 f8 ff ff 	mov    %rax,-0x730(%rbp)
    bd09:	48 8d 85 a0 e5 ff ff 	lea    -0x1a60(%rbp),%rax
    bd10:	48 89 85 d8 f8 ff ff 	mov    %rax,-0x728(%rbp)
    bd17:	48 8d 85 a0 e5 ff ff 	lea    -0x1a60(%rbp),%rax
    bd1e:	48 89 85 e0 f8 ff ff 	mov    %rax,-0x720(%rbp)
    bd25:	48 8d 85 a0 e5 ff ff 	lea    -0x1a60(%rbp),%rax
    bd2c:	48 89 85 e8 f8 ff ff 	mov    %rax,-0x718(%rbp)
    bd33:	48 c7 85 c0 e7 ff ff 	movq   $0xffffffffffffffff,-0x1840(%rbp)
    bd3a:	ff ff ff ff 
    bd3e:	c7 85 30 e5 ff ff ff 	movl   $0xffffffff,-0x1ad0(%rbp)
    bd45:	ff ff ff 
    bd48:	48 8d 05 f9 82 01 00 	lea    0x182f9(%rip),%rax        # 24048 <g_85>
    bd4f:	48 89 85 c8 e7 ff ff 	mov    %rax,-0x1838(%rbp)
    bd56:	48 c7 85 d0 e7 ff ff 	movq   $0x0,-0x1830(%rbp)
    bd5d:	00 00 00 00 
    bd61:	c6 85 92 e3 ff ff ff 	movb   $0xff,-0x1c6e(%rbp)
    bd68:	48 8b 05 21 b0 01 00 	mov    0x1b021(%rip),%rax        # 26d90 <g_145>
    bd6f:	48 8b 00             	mov    (%rax),%rax
    bd72:	8b 00                	mov    (%rax),%eax
    bd74:	41 89 c5             	mov    %eax,%r13d
    bd77:	48 8b 85 58 e3 ff ff 	mov    -0x1ca8(%rbp),%rax
    bd7e:	0f b6 d8             	movzbl %al,%ebx
    bd81:	48 8b 05 a0 b3 01 00 	mov    0x1b3a0(%rip),%rax        # 27128 <g_689>
    bd88:	48 8b 00             	mov    (%rax),%rax
    bd8b:	8b 95 2c e5 ff ff    	mov    -0x1ad4(%rbp),%edx
    bd91:	48 89 10             	mov    %rdx,(%rax)
    bd94:	0f b6 85 89 e3 ff ff 	movzbl -0x1c77(%rbp),%eax
    bd9b:	44 0f b6 e0          	movzbl %al,%r12d
    bd9f:	48 8b 05 32 b3 01 00 	mov    0x1b332(%rip),%rax        # 270d8 <g_369>
    bda6:	8b 00                	mov    (%rax),%eax
    bda8:	89 c2                	mov    %eax,%edx
    bdaa:	48 8b 85 d8 f8 ff ff 	mov    -0x728(%rbp),%rax
    bdb1:	48 89 05 d0 c2 01 00 	mov    %rax,0x1c2d0(%rip)        # 28088 <g_5352>
    bdb8:	89 d6                	mov    %edx,%esi
    bdba:	bf 00 00 00 00       	mov    $0x0,%edi
    bdbf:	e8 39 d1 ff ff       	callq  8efd <safe_mod_func_uint32_t_u_u>
    bdc4:	48 8b 15 75 b8 01 00 	mov    0x1b875(%rip),%rdx        # 27640 <g_3749>
    bdcb:	48 8b 12             	mov    (%rdx),%rdx
    bdce:	48 8b 12             	mov    (%rdx),%rdx
    bdd1:	0f b7 12             	movzwl (%rdx),%edx
    bdd4:	0f b7 d2             	movzwl %dx,%edx
    bdd7:	39 d0                	cmp    %edx,%eax
    bdd9:	0f 93 c0             	setae  %al
    bddc:	0f b6 c0             	movzbl %al,%eax
    bddf:	44 89 e6             	mov    %r12d,%esi
    bde2:	89 c7                	mov    %eax,%edi
    bde4:	e8 c5 cd ff ff       	callq  8bae <safe_mod_func_uint8_t_u_u>
    bde9:	84 c0                	test   %al,%al
    bdeb:	be 01 00 00 00       	mov    $0x1,%esi
    bdf0:	bf 98 e6 00 00       	mov    $0xe698,%edi
    bdf5:	e8 43 cf ff ff       	callq  8d3d <safe_mul_func_uint16_t_u_u>
    bdfa:	89 c2                	mov    %eax,%edx
    bdfc:	48 8b 85 c0 e7 ff ff 	mov    -0x1840(%rbp),%rax
    be03:	09 d0                	or     %edx,%eax
    be05:	0f b6 c0             	movzbl %al,%eax
    be08:	89 de                	mov    %ebx,%esi
    be0a:	89 c7                	mov    %eax,%edi
    be0c:	e8 9d cd ff ff       	callq  8bae <safe_mod_func_uint8_t_u_u>
    be11:	88 85 7c e3 ff ff    	mov    %al,-0x1c84(%rbp)
    be17:	0f b6 95 7c e3 ff ff 	movzbl -0x1c84(%rbp),%edx
    be1e:	48 8b 05 db b3 01 00 	mov    0x1b3db(%rip),%rax        # 27200 <g_1023>
    be25:	0f b6 00             	movzbl (%rax),%eax
    be28:	38 c2                	cmp    %al,%dl
    be2a:	0f 94 c0             	sete   %al
    be2d:	0f b6 c0             	movzbl %al,%eax
    be30:	44 89 ee             	mov    %r13d,%esi
    be33:	89 c7                	mov    %eax,%edi
    be35:	e8 c5 c8 ff ff       	callq  86ff <safe_div_func_int32_t_s_s>
    be3a:	0f b6 c0             	movzbl %al,%eax
    be3d:	48 8b 15 0c b6 01 00 	mov    0x1b60c(%rip),%rdx        # 27450 <g_2275>
    be44:	48 8b 0a             	mov    (%rdx),%rcx
    be47:	48 8b 15 02 b6 01 00 	mov    0x1b602(%rip),%rdx        # 27450 <g_2275>
    be4e:	48 8b 12             	mov    (%rdx),%rdx
    be51:	48 8b 09             	mov    (%rcx),%rcx
    be54:	48 89 0a             	mov    %rcx,(%rdx)
    be57:	89 c6                	mov    %eax,%esi
    be59:	bf 00 00 00 00       	mov    $0x0,%edi
    be5e:	e8 78 cd ff ff       	callq  8bdb <safe_div_func_uint8_t_u_u>
    be63:	48 8b 95 68 e5 ff ff 	mov    -0x1a98(%rbp),%rdx
    be6a:	8b 0a                	mov    (%rdx),%ecx
    be6c:	0f b6 d0             	movzbl %al,%edx
    be6f:	48 8b 85 68 e5 ff ff 	mov    -0x1a98(%rbp),%rax
    be76:	21 ca                	and    %ecx,%edx
    be78:	89 10                	mov    %edx,(%rax)
    be7a:	8b 00                	mov    (%rax),%eax
    be7c:	89 85 d8 e3 ff ff    	mov    %eax,-0x1c28(%rbp)
    be82:	48 8b 05 77 b8 01 00 	mov    0x1b877(%rip),%rax        # 27700 <g_5357>
    be89:	48 8d 15 28 c1 01 00 	lea    0x1c128(%rip),%rdx        # 27fb8 <g_1148+0x8>
    be90:	48 89 10             	mov    %rdx,(%rax)
    be93:	48 8b 85 68 e3 ff ff 	mov    -0x1c98(%rbp),%rax
    be9a:	0f bf d8             	movswl %ax,%ebx
    be9d:	c7 85 30 e5 ff ff 12 	movl   $0x12,-0x1ad0(%rbp)
    bea4:	00 00 00 
    bea7:	48 8b 85 c8 e7 ff ff 	mov    -0x1838(%rbp),%rax
    beae:	8b 10                	mov    (%rax),%edx
    beb0:	48 8b 05 d9 ae 01 00 	mov    0x1aed9(%rip),%rax        # 26d90 <g_145>
    beb7:	48 8b 00             	mov    (%rax),%rax
    beba:	8b 00                	mov    (%rax),%eax
    bebc:	31 c2                	xor    %eax,%edx
    bebe:	48 8b 85 c8 e7 ff ff 	mov    -0x1838(%rbp),%rax
    bec5:	89 10                	mov    %edx,(%rax)
    bec7:	48 8b 85 c8 e7 ff ff 	mov    -0x1838(%rbp),%rax
    bece:	44 8b 28             	mov    (%rax),%r13d
    bed1:	48 8b 85 68 e5 ff ff 	mov    -0x1a98(%rbp),%rax
    bed8:	8b 00                	mov    (%rax),%eax
    beda:	44 0f be e0          	movsbl %al,%r12d
    bede:	0f b6 85 7c e3 ff ff 	movzbl -0x1c84(%rbp),%eax
    bee5:	84 c0                	test   %al,%al
    bee7:	75 0a                	jne    bef3 <func_2+0x22b7>
    bee9:	48 83 bd d0 e7 ff ff 	cmpq   $0x0,-0x1830(%rbp)
    bef0:	00 
    bef1:	75 07                	jne    befa <func_2+0x22be>
    bef3:	b8 01 00 00 00       	mov    $0x1,%eax
    bef8:	eb 05                	jmp    beff <func_2+0x22c3>
    befa:	b8 00 00 00 00       	mov    $0x0,%eax
    beff:	0f b6 c0             	movzbl %al,%eax
    bf02:	be 36 00 00 00       	mov    $0x36,%esi
    bf07:	89 c7                	mov    %eax,%edi
    bf09:	e8 cd cc ff ff       	callq  8bdb <safe_div_func_uint8_t_u_u>
    bf0e:	0f b6 95 7c e3 ff ff 	movzbl -0x1c84(%rbp),%edx
    bf15:	38 d0                	cmp    %dl,%al
    bf17:	0f 93 c0             	setae  %al
    bf1a:	0f b6 c0             	movzbl %al,%eax
    bf1d:	39 85 2c e5 ff ff    	cmp    %eax,-0x1ad4(%rbp)
    bf23:	0f 93 c0             	setae  %al
    bf26:	0f b6 c0             	movzbl %al,%eax
    bf29:	44 89 e6             	mov    %r12d,%esi
    bf2c:	89 c7                	mov    %eax,%edi
    bf2e:	e8 df c2 ff ff       	callq  8212 <safe_mul_func_int8_t_s_s>
    bf33:	48 0f be c0          	movsbq %al,%rax
    bf37:	48 39 85 30 e7 ff ff 	cmp    %rax,-0x18d0(%rbp)
    bf3e:	0f 9f c0             	setg   %al
    bf41:	0f b6 c0             	movzbl %al,%eax
    bf44:	41 39 c5             	cmp    %eax,%r13d
    bf47:	0f 95 c0             	setne  %al
    bf4a:	0f b6 d0             	movzbl %al,%edx
    bf4d:	48 8b 85 20 e7 ff ff 	mov    -0x18e0(%rbp),%rax
    bf54:	48 8b 00             	mov    (%rax),%rax
    bf57:	8b 00                	mov    (%rax),%eax
    bf59:	09 c2                	or     %eax,%edx
    bf5b:	0f b6 85 7c e3 ff ff 	movzbl -0x1c84(%rbp),%eax
    bf62:	0f b6 c0             	movzbl %al,%eax
    bf65:	09 d0                	or     %edx,%eax
    bf67:	85 c0                	test   %eax,%eax
    bf69:	75 0b                	jne    bf76 <func_2+0x233a>
    bf6b:	48 8b 85 68 e5 ff ff 	mov    -0x1a98(%rbp),%rax
    bf72:	8b 00                	mov    (%rax),%eax
    bf74:	85 c0                	test   %eax,%eax
    bf76:	48 8b 05 73 b7 01 00 	mov    0x1b773(%rip),%rax        # 276f0 <g_5136>
    bf7d:	48 8b 05 f4 b4 01 00 	mov    0x1b4f4(%rip),%rax        # 27478 <g_2573>
    bf84:	48 8b 00             	mov    (%rax),%rax
    bf87:	0f b7 08             	movzwl (%rax),%ecx
    bf8a:	48 83 bd 68 e3 ff ff 	cmpq   $0x1,-0x1c98(%rbp)
    bf91:	01 
    bf92:	0f 94 c0             	sete   %al
    bf95:	0f b6 d0             	movzbl %al,%edx
    bf98:	48 8b 05 d9 b4 01 00 	mov    0x1b4d9(%rip),%rax        # 27478 <g_2573>
    bf9f:	48 8b 00             	mov    (%rax),%rax
    bfa2:	09 ca                	or     %ecx,%edx
    bfa4:	66 89 10             	mov    %dx,(%rax)
    bfa7:	0f b7 00             	movzwl (%rax),%eax
    bfaa:	98                   	cwtl   
    bfab:	be 0e 00 00 00       	mov    $0xe,%esi
    bfb0:	89 c7                	mov    %eax,%edi
    bfb2:	e8 2a c5 ff ff       	callq  84e1 <safe_lshift_func_int16_t_s_u>
    bfb7:	89 c2                	mov    %eax,%edx
    bfb9:	48 8b 05 58 b1 01 00 	mov    0x1b158(%rip),%rax        # 27118 <g_677>
    bfc0:	48 8b 00             	mov    (%rax),%rax
    bfc3:	48 8b 00             	mov    (%rax),%rax
    bfc6:	48 0f bf d2          	movswq %dx,%rdx
    bfca:	48 89 10             	mov    %rdx,(%rax)
    bfcd:	48 8b 00             	mov    (%rax),%rax
    bfd0:	48 8b 95 58 e3 ff ff 	mov    -0x1ca8(%rbp),%rdx
    bfd7:	48 89 d6             	mov    %rdx,%rsi
    bfda:	48 89 c7             	mov    %rax,%rdi
    bfdd:	e8 15 ca ff ff       	callq  89f7 <safe_div_func_int64_t_s_s>
    bfe2:	be 04 00 00 00       	mov    $0x4,%esi
    bfe7:	bf 34 4c 00 00       	mov    $0x4c34,%edi
    bfec:	e8 cd cd ff ff       	callq  8dbe <safe_lshift_func_uint16_t_u_s>
    bff1:	83 f0 12             	xor    $0x12,%eax
    bff4:	89 c2                	mov    %eax,%edx
    bff6:	48 8b 85 68 e3 ff ff 	mov    -0x1c98(%rbp),%rax
    bffd:	09 d0                	or     %edx,%eax
    bfff:	98                   	cwtl   
    c000:	89 de                	mov    %ebx,%esi
    c002:	89 c7                	mov    %eax,%edi
    c004:	e8 aa c3 ff ff       	callq  83b3 <safe_add_func_int16_t_s_s>
    c009:	66 85 c0             	test   %ax,%ax
    c00c:	75 0a                	jne    c018 <func_2+0x23dc>
    c00e:	48 83 bd c0 e7 ff ff 	cmpq   $0x0,-0x1840(%rbp)
    c015:	00 
    c016:	74 07                	je     c01f <func_2+0x23e3>
    c018:	ba 01 00 00 00       	mov    $0x1,%edx
    c01d:	eb 05                	jmp    c024 <func_2+0x23e8>
    c01f:	ba 00 00 00 00       	mov    $0x0,%edx
    c024:	0f b6 85 92 e3 ff ff 	movzbl -0x1c6e(%rbp),%eax
    c02b:	39 c2                	cmp    %eax,%edx
    c02d:	0f 9e c0             	setle  %al
    c030:	0f b6 c0             	movzbl %al,%eax
    c033:	48 39 85 58 e3 ff ff 	cmp    %rax,-0x1ca8(%rbp)
    c03a:	0f 95 c2             	setne  %dl
    c03d:	48 8b 05 3c ad 01 00 	mov    0x1ad3c(%rip),%rax        # 26d80 <g_8>
    c044:	0f b6 d2             	movzbl %dl,%edx
    c047:	89 10                	mov    %edx,(%rax)
    c049:	c7 05 f5 7f 01 00 14 	movl   $0x14,0x17ff5(%rip)        # 24048 <g_85>
    c050:	00 00 00 
    c053:	90                   	nop
    c054:	8b 05 ee 7f 01 00    	mov    0x17fee(%rip),%eax        # 24048 <g_85>
    c05a:	83 f8 30             	cmp    $0x30,%eax
    c05d:	76 7d                	jbe    c0dc <func_2+0x24a0>
    c05f:	48 8d 05 0e 88 01 00 	lea    0x1880e(%rip),%rax        # 24874 <g_368>
    c066:	48 89 85 20 e8 ff ff 	mov    %rax,-0x17e0(%rbp)
    c06d:	48 c7 85 28 e8 ff ff 	movq   $0x0,-0x17d8(%rbp)
    c074:	00 00 00 00 
    c078:	48 8b 85 20 e8 ff ff 	mov    -0x17e0(%rbp),%rax
    c07f:	48 89 85 e0 e9 ff ff 	mov    %rax,-0x1620(%rbp)
    c086:	48 8b 85 e0 e9 ff ff 	mov    -0x1620(%rbp),%rax
    c08d:	48 39 85 20 e8 ff ff 	cmp    %rax,-0x17e0(%rbp)
    c094:	0f 95 c0             	setne  %al
    c097:	0f b6 c8             	movzbl %al,%ecx
    c09a:	48 8b 05 df ac 01 00 	mov    0x1acdf(%rip),%rax        # 26d80 <g_8>
    c0a1:	8b 10                	mov    (%rax),%edx
    c0a3:	48 8b 05 d6 ac 01 00 	mov    0x1acd6(%rip),%rax        # 26d80 <g_8>
    c0aa:	31 ca                	xor    %ecx,%edx
    c0ac:	89 10                	mov    %edx,(%rax)
    c0ae:	48 8b 85 20 e7 ff ff 	mov    -0x18e0(%rbp),%rax
    c0b5:	48 8b 95 60 e3 ff ff 	mov    -0x1ca0(%rbp),%rdx
    c0bc:	48 89 10             	mov    %rdx,(%rax)
    c0bf:	48 8b 85 20 e7 ff ff 	mov    -0x18e0(%rbp),%rax
    c0c6:	48 8b 00             	mov    (%rax),%rax
    c0c9:	48 89 85 70 e3 ff ff 	mov    %rax,-0x1c90(%rbp)
    c0d0:	48 8b 85 70 e3 ff ff 	mov    -0x1c90(%rbp),%rax
    c0d7:	e9 9e 2f 00 00       	jmpq   f07a <func_2+0x543e>
    c0dc:	48 83 ad f0 e5 ff ff 	subq   $0x1,-0x1a10(%rbp)
    c0e3:	01 
    c0e4:	c7 05 26 8a 01 00 f6 	movl   $0xfffffff6,0x18a26(%rip)        # 24b14 <g_2657>
    c0eb:	ff ff ff 
    c0ee:	e9 6b 07 00 00       	jmpq   c85e <func_2+0x2c22>
    c0f3:	48 8d 85 c0 f8 ff ff 	lea    -0x740(%rbp),%rax
    c0fa:	48 8d 15 9f 17 01 00 	lea    0x1179f(%rip),%rdx        # 1d8a0 <g_5653+0x7ff>
    c101:	b9 50 00 00 00       	mov    $0x50,%ecx
    c106:	48 89 c7             	mov    %rax,%rdi
    c109:	48 89 d6             	mov    %rdx,%rsi
    c10c:	f3 48 a5             	rep movsq %ds:(%rsi),%es:(%rdi)
    c10f:	48 8d 05 c2 b2 01 00 	lea    0x1b2c2(%rip),%rax        # 273d8 <g_1835>
    c116:	48 89 85 f0 e7 ff ff 	mov    %rax,-0x1810(%rbp)
    c11d:	c7 85 40 e5 ff ff ff 	movl   $0xffffffff,-0x1ac0(%rbp)
    c124:	ff ff ff 
    c127:	c7 85 b4 e3 ff ff 0a 	movl   $0xa,-0x1c4c(%rbp)
    c12e:	00 00 00 
    c131:	e9 7d 03 00 00       	jmpq   c4b3 <func_2+0x2877>
    c136:	c7 85 44 e5 ff ff fb 	movl   $0xfffffffb,-0x1abc(%rbp)
    c13d:	ff ff ff 
    c140:	c7 85 48 e5 ff ff 00 	movl   $0x0,-0x1ab8(%rbp)
    c147:	00 00 00 
    c14a:	c7 85 40 e4 ff ff 00 	movl   $0x0,-0x1bc0(%rbp)
    c151:	00 00 00 
    c154:	eb 1e                	jmp    c174 <func_2+0x2538>
    c156:	8b 85 40 e4 ff ff    	mov    -0x1bc0(%rbp),%eax
    c15c:	48 98                	cltq   
    c15e:	48 8d 15 db 89 01 00 	lea    0x189db(%rip),%rdx        # 24b40 <g_3696>
    c165:	48 89 94 c5 10 ea ff 	mov    %rdx,-0x15f0(%rbp,%rax,8)
    c16c:	ff 
    c16d:	83 85 40 e4 ff ff 01 	addl   $0x1,-0x1bc0(%rbp)
    c174:	83 bd 40 e4 ff ff 01 	cmpl   $0x1,-0x1bc0(%rbp)
    c17b:	7e d9                	jle    c156 <func_2+0x251a>
    c17d:	48 8b 85 68 e3 ff ff 	mov    -0x1c98(%rbp),%rax
    c184:	0f bf d8             	movswl %ax,%ebx
    c187:	48 8b 85 68 e3 ff ff 	mov    -0x1c98(%rbp),%rax
    c18e:	41 89 c6             	mov    %eax,%r14d
    c191:	8b 85 48 e5 ff ff    	mov    -0x1ab8(%rbp),%eax
    c197:	44 0f b7 e0          	movzwl %ax,%r12d
    c19b:	0f b6 85 7c e3 ff ff 	movzbl -0x1c84(%rbp),%eax
    c1a2:	44 0f b6 e8          	movzbl %al,%r13d
    c1a6:	0f b6 85 7c e3 ff ff 	movzbl -0x1c84(%rbp),%eax
    c1ad:	0f be d0             	movsbl %al,%edx
    c1b0:	48 8b 85 58 e3 ff ff 	mov    -0x1ca8(%rbp),%rax
    c1b7:	0f be c0             	movsbl %al,%eax
    c1ba:	89 d6                	mov    %edx,%esi
    c1bc:	89 c7                	mov    %eax,%edi
    c1be:	e8 11 c0 ff ff       	callq  81d4 <safe_add_func_int8_t_s_s>
    c1c3:	48 8b 05 fe b2 01 00 	mov    0x1b2fe(%rip),%rax        # 274c8 <g_3604>
    c1ca:	48 8b 00             	mov    (%rax),%rax
    c1cd:	48 8b 00             	mov    (%rax),%rax
    c1d0:	48 39 85 a0 e7 ff ff 	cmp    %rax,-0x1860(%rbp)
    c1d7:	81 bd 48 e5 ff ff 9b 	cmpl   $0xdc9b,-0x1ab8(%rbp)
    c1de:	dc 00 00 
    c1e1:	44 89 ee             	mov    %r13d,%esi
    c1e4:	bf 74 96 ff ff       	mov    $0xffff9674,%edi
    c1e9:	e8 28 c2 ff ff       	callq  8416 <safe_mod_func_int16_t_s_s>
    c1ee:	66 85 c0             	test   %ax,%ax
    c1f1:	75 0c                	jne    c1ff <func_2+0x25c3>
    c1f3:	48 8b 85 70 f9 ff ff 	mov    -0x690(%rbp),%rax
    c1fa:	48 85 c0             	test   %rax,%rax
    c1fd:	74 07                	je     c206 <func_2+0x25ca>
    c1ff:	b8 01 00 00 00       	mov    $0x1,%eax
    c204:	eb 05                	jmp    c20b <func_2+0x25cf>
    c206:	b8 00 00 00 00       	mov    $0x0,%eax
    c20b:	48 98                	cltq   
    c20d:	48 39 85 68 e3 ff ff 	cmp    %rax,-0x1c98(%rbp)
    c214:	0f 94 c0             	sete   %al
    c217:	0f b6 c0             	movzbl %al,%eax
    c21a:	89 c7                	mov    %eax,%edi
    c21c:	e8 9e bf ff ff       	callq  81bf <safe_unary_minus_func_int8_t_s>
    c221:	0f be c0             	movsbl %al,%eax
    c224:	89 c7                	mov    %eax,%edi
    c226:	e8 94 bf ff ff       	callq  81bf <safe_unary_minus_func_int8_t_s>
    c22b:	66 98                	cbtw   
    c22d:	0f b7 c0             	movzwl %ax,%eax
    c230:	44 89 e6             	mov    %r12d,%esi
    c233:	89 c7                	mov    %eax,%edi
    c235:	e8 22 cb ff ff       	callq  8d5c <safe_mod_func_uint16_t_u_u>
    c23a:	89 c2                	mov    %eax,%edx
    c23c:	48 8b 05 1d b4 01 00 	mov    0x1b41d(%rip),%rax        # 27660 <g_4156>
    c243:	48 8b 00             	mov    (%rax),%rax
    c246:	48 8b 00             	mov    (%rax),%rax
    c249:	66 89 10             	mov    %dx,(%rax)
    c24c:	0f b7 00             	movzwl (%rax),%eax
    c24f:	0f bf d0             	movswl %ax,%edx
    c252:	48 8b 85 e8 e5 ff ff 	mov    -0x1a18(%rbp),%rax
    c259:	89 10                	mov    %edx,(%rax)
    c25b:	48 8b 85 e8 e5 ff ff 	mov    -0x1a18(%rbp),%rax
    c262:	8b 00                	mov    (%rax),%eax
    c264:	44 0f b7 e0          	movzwl %ax,%r12d
    c268:	48 8b 05 09 b4 01 00 	mov    0x1b409(%rip),%rax        # 27678 <g_4342>
    c26f:	48 8b 00             	mov    (%rax),%rax
    c272:	48 8b 00             	mov    (%rax),%rax
    c275:	48 8b 00             	mov    (%rax),%rax
    c278:	48 89 c2             	mov    %rax,%rdx
    c27b:	48 8b 85 68 e3 ff ff 	mov    -0x1c98(%rbp),%rax
    c282:	89 85 44 e5 ff ff    	mov    %eax,-0x1abc(%rbp)
    c288:	8b 85 44 e5 ff ff    	mov    -0x1abc(%rbp),%eax
    c28e:	48 98                	cltq   
    c290:	48 89 d6             	mov    %rdx,%rsi
    c293:	48 89 c7             	mov    %rax,%rdi
    c296:	e8 93 cd ff ff       	callq  902e <safe_add_func_uint64_t_u_u>
    c29b:	0f b7 c0             	movzwl %ax,%eax
    c29e:	44 89 e6             	mov    %r12d,%esi
    c2a1:	89 c7                	mov    %eax,%edi
    c2a3:	e8 95 ca ff ff       	callq  8d3d <safe_mul_func_uint16_t_u_u>
    c2a8:	0f b7 c0             	movzwl %ax,%eax
    c2ab:	44 89 f6             	mov    %r14d,%esi
    c2ae:	89 c7                	mov    %eax,%edi
    c2b0:	e8 50 c3 ff ff       	callq  8605 <safe_sub_func_int32_t_s_s>
    c2b5:	98                   	cwtl   
    c2b6:	89 de                	mov    %ebx,%esi
    c2b8:	89 c7                	mov    %eax,%edi
    c2ba:	e8 96 c1 ff ff       	callq  8455 <safe_div_func_int16_t_s_s>
    c2bf:	0f b6 85 7c e3 ff ff 	movzbl -0x1c84(%rbp),%eax
    c2c6:	3c 01                	cmp    $0x1,%al
    c2c8:	48 8b 85 70 e3 ff ff 	mov    -0x1c90(%rbp),%rax
    c2cf:	48 89 85 a8 e5 ff ff 	mov    %rax,-0x1a58(%rbp)
    c2d6:	48 8b 95 a8 e5 ff ff 	mov    -0x1a58(%rbp),%rdx
    c2dd:	48 8b 85 20 e7 ff ff 	mov    -0x18e0(%rbp),%rax
    c2e4:	48 89 10             	mov    %rdx,(%rax)
    c2e7:	48 8b 05 12 af 01 00 	mov    0x1af12(%rip),%rax        # 27200 <g_1023>
    c2ee:	0f b6 00             	movzbl (%rax),%eax
    c2f1:	84 c0                	test   %al,%al
    c2f3:	0f 94 c0             	sete   %al
    c2f6:	44 0f b6 e0          	movzbl %al,%r12d
    c2fa:	48 8b 85 70 e3 ff ff 	mov    -0x1c90(%rbp),%rax
    c301:	8b 00                	mov    (%rax),%eax
    c303:	41 89 c5             	mov    %eax,%r13d
    c306:	48 8b 05 83 aa 01 00 	mov    0x1aa83(%rip),%rax        # 26d90 <g_145>
    c30d:	48 8b 00             	mov    (%rax),%rax
    c310:	8b 18                	mov    (%rax),%ebx
    c312:	8d 53 01             	lea    0x1(%rbx),%edx
    c315:	89 10                	mov    %edx,(%rax)
    c317:	48 8b 85 68 e3 ff ff 	mov    -0x1c98(%rbp),%rax
    c31e:	0f bf d0             	movswl %ax,%edx
    c321:	48 8b 85 70 f9 ff ff 	mov    -0x690(%rbp),%rax
    c328:	98                   	cwtl   
    c329:	89 d6                	mov    %edx,%esi
    c32b:	89 c7                	mov    %eax,%edi
    c32d:	e8 c3 c0 ff ff       	callq  83f5 <safe_mul_func_int16_t_s_s>
    c332:	98                   	cwtl   
    c333:	39 85 44 e5 ff ff    	cmp    %eax,-0x1abc(%rbp)
    c339:	0f 95 c0             	setne  %al
    c33c:	0f b6 c0             	movzbl %al,%eax
    c33f:	89 de                	mov    %ebx,%esi
    c341:	89 c7                	mov    %eax,%edi
    c343:	e8 dd cb ff ff       	callq  8f25 <safe_div_func_uint32_t_u_u>
    c348:	41 39 c5             	cmp    %eax,%r13d
    c34b:	0f 92 c0             	setb   %al
    c34e:	0f b6 c0             	movzbl %al,%eax
    c351:	44 89 e6             	mov    %r12d,%esi
    c354:	89 c7                	mov    %eax,%edi
    c356:	e8 5d cb ff ff       	callq  8eb8 <safe_add_func_uint32_t_u_u>
    c35b:	48 8b 85 58 e3 ff ff 	mov    -0x1ca8(%rbp),%rax
    c362:	89 c6                	mov    %eax,%esi
    c364:	bf ff 00 00 00       	mov    $0xff,%edi
    c369:	e8 97 c8 ff ff       	callq  8c05 <safe_lshift_func_uint8_t_u_s>
    c36e:	0f b6 85 7c e3 ff ff 	movzbl -0x1c84(%rbp),%eax
    c375:	3c 01                	cmp    $0x1,%al
    c377:	0f 94 c0             	sete   %al
    c37a:	0f b6 d0             	movzbl %al,%edx
    c37d:	48 8b 85 68 e5 ff ff 	mov    -0x1a98(%rbp),%rax
    c384:	8b 00                	mov    (%rax),%eax
    c386:	39 c2                	cmp    %eax,%edx
    c388:	0f 9d c0             	setge  %al
    c38b:	0f b6 c0             	movzbl %al,%eax
    c38e:	be 01 00 00 00       	mov    $0x1,%esi
    c393:	89 c7                	mov    %eax,%edi
    c395:	e8 f9 c7 ff ff       	callq  8b93 <safe_mul_func_uint8_t_u_u>
    c39a:	48 8b 85 b8 e7 ff ff 	mov    -0x1848(%rbp),%rax
    c3a1:	c7 00 22 f5 0c 45    	movl   $0x450cf522,(%rax)
    c3a7:	48 8b 05 c2 b0 01 00 	mov    0x1b0c2(%rip),%rax        # 27470 <g_2574>
    c3ae:	0f b7 00             	movzwl (%rax),%eax
    c3b1:	44 0f bf e8          	movswl %ax,%r13d
    c3b5:	48 8b 05 54 ad 01 00 	mov    0x1ad54(%rip),%rax        # 27110 <g_573>
    c3bc:	48 8b 18             	mov    (%rax),%rbx
    c3bf:	44 8b a5 44 e5 ff ff 	mov    -0x1abc(%rbp),%r12d
    c3c6:	48 8b 85 20 e7 ff ff 	mov    -0x18e0(%rbp),%rax
    c3cd:	48 8b 00             	mov    (%rax),%rax
    c3d0:	8b 00                	mov    (%rax),%eax
    c3d2:	48 63 d0             	movslq %eax,%rdx
    c3d5:	48 8b 85 20 fb ff ff 	mov    -0x4e0(%rbp),%rax
    c3dc:	48 39 c2             	cmp    %rax,%rdx
    c3df:	0f 95 c0             	setne  %al
    c3e2:	0f b6 c0             	movzbl %al,%eax
    c3e5:	be 02 00 00 00       	mov    $0x2,%esi
    c3ea:	89 c7                	mov    %eax,%edi
    c3ec:	e8 9c c8 ff ff       	callq  8c8d <safe_rshift_func_uint8_t_u_s>
    c3f1:	48 8b 85 58 e3 ff ff 	mov    -0x1ca8(%rbp),%rax
    c3f8:	0f b7 c0             	movzwl %ax,%eax
    c3fb:	44 89 e6             	mov    %r12d,%esi
    c3fe:	89 c7                	mov    %eax,%edi
    c400:	e8 75 ca ff ff       	callq  8e7a <safe_rshift_func_uint16_t_u_u>
    c405:	0f b7 c0             	movzwl %ax,%eax
    c408:	48 89 de             	mov    %rbx,%rsi
    c40b:	48 89 c7             	mov    %rax,%rdi
    c40e:	e8 95 c4 ff ff       	callq  88a8 <safe_sub_func_int64_t_s_s>
    c413:	48 8b 85 70 f9 ff ff 	mov    -0x690(%rbp),%rax
    c41a:	89 c6                	mov    %eax,%esi
    c41c:	bf 19 56 7f 00       	mov    $0x7f5619,%edi
    c421:	e8 a6 c2 ff ff       	callq  86cc <safe_mod_func_int32_t_s_s>
    c426:	48 98                	cltq   
    c428:	48 89 c6             	mov    %rax,%rsi
    c42b:	48 bf 69 37 c8 b8 06 	movabs $0xb7cdb006b8c83769,%rdi
    c432:	b0 cd b7 
    c435:	e8 bd c5 ff ff       	callq  89f7 <safe_div_func_int64_t_s_s>
    c43a:	48 85 c0             	test   %rax,%rax
    c43d:	75 09                	jne    c448 <func_2+0x280c>
    c43f:	83 bd 44 e5 ff ff 00 	cmpl   $0x0,-0x1abc(%rbp)
    c446:	74 07                	je     c44f <func_2+0x2813>
    c448:	b8 01 00 00 00       	mov    $0x1,%eax
    c44d:	eb 05                	jmp    c454 <func_2+0x2818>
    c44f:	b8 00 00 00 00       	mov    $0x0,%eax
    c454:	44 39 e8             	cmp    %r13d,%eax
    c457:	0f 9f c0             	setg   %al
    c45a:	0f b6 d0             	movzbl %al,%edx
    c45d:	48 8b 85 58 e3 ff ff 	mov    -0x1ca8(%rbp),%rax
    c464:	0f b7 c0             	movzwl %ax,%eax
    c467:	89 d6                	mov    %edx,%esi
    c469:	89 c7                	mov    %eax,%edi
    c46b:	e8 8f c8 ff ff       	callq  8cff <safe_add_func_uint16_t_u_u>
    c470:	0f b7 d0             	movzwl %ax,%edx
    c473:	48 8b 05 76 b2 01 00 	mov    0x1b276(%rip),%rax        # 276f0 <g_5136>
    c47a:	48 8b 00             	mov    (%rax),%rax
    c47d:	8b 00                	mov    (%rax),%eax
    c47f:	39 c2                	cmp    %eax,%edx
    c481:	0f 9e c0             	setle  %al
    c484:	0f b6 d0             	movzbl %al,%edx
    c487:	48 8b 85 b8 e7 ff ff 	mov    -0x1848(%rbp),%rax
    c48e:	8b 00                	mov    (%rax),%eax
    c490:	21 c2                	and    %eax,%edx
    c492:	48 8b 85 b8 e7 ff ff 	mov    -0x1848(%rbp),%rax
    c499:	89 10                	mov    %edx,(%rax)
    c49b:	8b 85 b4 e3 ff ff    	mov    -0x1c4c(%rbp),%eax
    c4a1:	be 05 00 00 00       	mov    $0x5,%esi
    c4a6:	89 c7                	mov    %eax,%edi
    c4a8:	e8 23 ca ff ff       	callq  8ed0 <safe_sub_func_uint32_t_u_u>
    c4ad:	89 85 b4 e3 ff ff    	mov    %eax,-0x1c4c(%rbp)
    c4b3:	8b 85 b4 e3 ff ff    	mov    -0x1c4c(%rbp),%eax
    c4b9:	83 f8 e3             	cmp    $0xffffffe3,%eax
    c4bc:	0f 8d 74 fc ff ff    	jge    c136 <func_2+0x24fa>
    c4c2:	48 8b 85 a8 e5 ff ff 	mov    -0x1a58(%rbp),%rax
    c4c9:	8b 00                	mov    (%rax),%eax
    c4cb:	85 c0                	test   %eax,%eax
    c4cd:	74 27                	je     c4f6 <func_2+0x28ba>
    c4cf:	48 8d 05 9a 83 01 00 	lea    0x1839a(%rip),%rax        # 24870 <g_355>
    c4d6:	48 89 85 18 e8 ff ff 	mov    %rax,-0x17e8(%rbp)
    c4dd:	48 8b 85 68 e5 ff ff 	mov    -0x1a98(%rbp),%rax
    c4e4:	c7 00 a9 2e 93 1c    	movl   $0x1c932ea9,(%rax)
    c4ea:	48 8b 85 18 e8 ff ff 	mov    -0x17e8(%rbp),%rax
    c4f1:	e9 84 2b 00 00       	jmpq   f07a <func_2+0x543e>
    c4f6:	48 8d 05 33 ad 01 00 	lea    0x1ad33(%rip),%rax        # 27230 <g_1226>
    c4fd:	48 89 85 f8 e7 ff ff 	mov    %rax,-0x1808(%rbp)
    c504:	48 c7 85 d8 e5 ff ff 	movq   $0x0,-0x1a28(%rbp)
    c50b:	00 00 00 00 
    c50f:	48 8d 85 d8 e5 ff ff 	lea    -0x1a28(%rbp),%rax
    c516:	48 89 85 e0 e5 ff ff 	mov    %rax,-0x1a20(%rbp)
    c51d:	48 8d 85 e0 e5 ff ff 	lea    -0x1a20(%rbp),%rax
    c524:	48 89 85 00 e8 ff ff 	mov    %rax,-0x1800(%rbp)
    c52b:	48 c7 85 08 e8 ff ff 	movq   $0x0,-0x17f8(%rbp)
    c532:	00 00 00 00 
    c536:	48 8d 05 83 b6 01 00 	lea    0x1b683(%rip),%rax        # 27bc0 <g_183>
    c53d:	48 89 85 10 e8 ff ff 	mov    %rax,-0x17f0(%rbp)
    c544:	c7 85 44 e4 ff ff 00 	movl   $0x0,-0x1bbc(%rbp)
    c54b:	00 00 00 
    c54e:	eb 22                	jmp    c572 <func_2+0x2936>
    c550:	8b 85 44 e4 ff ff    	mov    -0x1bbc(%rbp),%eax
    c556:	48 98                	cltq   
    c558:	48 8d 95 d0 eb ff ff 	lea    -0x1430(%rbp),%rdx
    c55f:	48 83 c2 1a          	add    $0x1a,%rdx
    c563:	48 89 94 c5 10 ea ff 	mov    %rdx,-0x15f0(%rbp,%rax,8)
    c56a:	ff 
    c56b:	83 85 44 e4 ff ff 01 	addl   $0x1,-0x1bbc(%rbp)
    c572:	83 bd 44 e4 ff ff 01 	cmpl   $0x1,-0x1bbc(%rbp)
    c579:	7e d5                	jle    c550 <func_2+0x2914>
    c57b:	c7 85 44 e4 ff ff 00 	movl   $0x0,-0x1bbc(%rbp)
    c582:	00 00 00 
    c585:	eb 1a                	jmp    c5a1 <func_2+0x2965>
    c587:	8b 85 44 e4 ff ff    	mov    -0x1bbc(%rbp),%eax
    c58d:	48 98                	cltq   
    c58f:	c7 84 85 e0 e8 ff ff 	movl   $0x7,-0x1720(%rbp,%rax,4)
    c596:	07 00 00 00 
    c59a:	83 85 44 e4 ff ff 01 	addl   $0x1,-0x1bbc(%rbp)
    c5a1:	83 bd 44 e4 ff ff 01 	cmpl   $0x1,-0x1bbc(%rbp)
    c5a8:	7e dd                	jle    c587 <func_2+0x294b>
    c5aa:	48 8b 85 f8 e7 ff ff 	mov    -0x1808(%rbp),%rax
    c5b1:	48 8d 95 d0 f4 ff ff 	lea    -0xb30(%rbp),%rdx
    c5b8:	48 81 c2 cc 02 00 00 	add    $0x2cc,%rdx
    c5bf:	48 89 10             	mov    %rdx,(%rax)
    c5c2:	8b 85 40 e5 ff ff    	mov    -0x1ac0(%rbp),%eax
    c5c8:	0f be d8             	movsbl %al,%ebx
    c5cb:	0f b6 85 7c e3 ff ff 	movzbl -0x1c84(%rbp),%eax
    c5d2:	44 0f be e0          	movsbl %al,%r12d
    c5d6:	48 8b 85 f8 e7 ff ff 	mov    -0x1808(%rbp),%rax
    c5dd:	48 8b 00             	mov    (%rax),%rax
    c5e0:	8b 00                	mov    (%rax),%eax
    c5e2:	89 c2                	mov    %eax,%edx
    c5e4:	48 8b 85 58 e3 ff ff 	mov    -0x1ca8(%rbp),%rax
    c5eb:	0f b7 c0             	movzwl %ax,%eax
    c5ee:	89 d6                	mov    %edx,%esi
    c5f0:	89 c7                	mov    %eax,%edi
    c5f2:	e8 83 c8 ff ff       	callq  8e7a <safe_rshift_func_uint16_t_u_u>
    c5f7:	48 8d 05 da ad 01 00 	lea    0x1adda(%rip),%rax        # 273d8 <g_1835>
    c5fe:	48 39 85 f0 e7 ff ff 	cmp    %rax,-0x1810(%rbp)
    c605:	0f b6 85 7c e3 ff ff 	movzbl -0x1c84(%rbp),%eax
    c60c:	0f b6 c0             	movzbl %al,%eax
    c60f:	48 89 c6             	mov    %rax,%rsi
    c612:	bf 01 00 00 00       	mov    $0x1,%edi
    c617:	e8 64 ca ff ff       	callq  9080 <safe_mod_func_uint64_t_u_u>
    c61c:	0f b7 c0             	movzwl %ax,%eax
    c61f:	be 08 00 00 00       	mov    $0x8,%esi
    c624:	89 c7                	mov    %eax,%edi
    c626:	e8 4f c8 ff ff       	callq  8e7a <safe_rshift_func_uint16_t_u_u>
    c62b:	98                   	cwtl   
    c62c:	be 01 00 00 00       	mov    $0x1,%esi
    c631:	89 c7                	mov    %eax,%edi
    c633:	e8 5a be ff ff       	callq  8492 <safe_lshift_func_int16_t_s_s>
    c638:	66 83 bd 9e e3 ff ff 	cmpw   $0x0,-0x1c62(%rbp)
    c63f:	00 
    c640:	75 09                	jne    c64b <func_2+0x2a0f>
    c642:	80 bd 8e e3 ff ff 00 	cmpb   $0x0,-0x1c72(%rbp)
    c649:	74 07                	je     c652 <func_2+0x2a16>
    c64b:	b8 01 00 00 00       	mov    $0x1,%eax
    c650:	eb 05                	jmp    c657 <func_2+0x2a1b>
    c652:	b8 00 00 00 00       	mov    $0x0,%eax
    c657:	89 85 b8 e3 ff ff    	mov    %eax,-0x1c48(%rbp)
    c65d:	0f b6 85 7c e3 ff ff 	movzbl -0x1c84(%rbp),%eax
    c664:	0f be c0             	movsbl %al,%eax
    c667:	be 05 00 00 00       	mov    $0x5,%esi
    c66c:	89 c7                	mov    %eax,%edi
    c66e:	e8 f9 bc ff ff       	callq  836c <safe_rshift_func_int8_t_s_u>
    c673:	89 c2                	mov    %eax,%edx
    c675:	48 8b 05 64 b0 01 00 	mov    0x1b064(%rip),%rax        # 276e0 <g_4764>
    c67c:	0f be d2             	movsbl %dl,%edx
    c67f:	89 10                	mov    %edx,(%rax)
    c681:	8b 00                	mov    (%rax),%eax
    c683:	be f7 ff ff ff       	mov    $0xfffffff7,%esi
    c688:	89 c7                	mov    %eax,%edi
    c68a:	e8 3d c0 ff ff       	callq  86cc <safe_mod_func_int32_t_s_s>
    c68f:	98                   	cwtl   
    c690:	be 01 00 00 00       	mov    $0x1,%esi
    c695:	89 c7                	mov    %eax,%edi
    c697:	e8 37 bd ff ff       	callq  83d3 <safe_sub_func_int16_t_s_s>
    c69c:	ba 00 00 00 00       	mov    $0x0,%edx
    c6a1:	48 8b 05 68 aa 01 00 	mov    0x1aa68(%rip),%rax        # 27110 <g_573>
    c6a8:	48 8b 08             	mov    (%rax),%rcx
    c6ab:	48 63 d2             	movslq %edx,%rdx
    c6ae:	48 8b 05 5b aa 01 00 	mov    0x1aa5b(%rip),%rax        # 27110 <g_573>
    c6b5:	48 09 ca             	or     %rcx,%rdx
    c6b8:	48 89 10             	mov    %rdx,(%rax)
    c6bb:	48 8b 85 20 e7 ff ff 	mov    -0x18e0(%rbp),%rax
    c6c2:	48 8b 00             	mov    (%rax),%rax
    c6c5:	8b 00                	mov    (%rax),%eax
    c6c7:	89 85 e0 e8 ff ff    	mov    %eax,-0x1720(%rbp)
    c6cd:	8b 85 e0 e8 ff ff    	mov    -0x1720(%rbp),%eax
    c6d3:	0f be c0             	movsbl %al,%eax
    c6d6:	44 89 e6             	mov    %r12d,%esi
    c6d9:	89 c7                	mov    %eax,%edi
    c6db:	e8 32 bb ff ff       	callq  8212 <safe_mul_func_int8_t_s_s>
    c6e0:	66 98                	cbtw   
    c6e2:	44 0f b7 e0          	movzwl %ax,%r12d
    c6e6:	8b 95 44 eb ff ff    	mov    -0x14bc(%rbp),%edx
    c6ec:	8b 85 1c e4 ff ff    	mov    -0x1be4(%rbp),%eax
    c6f2:	21 d0                	and    %edx,%eax
    c6f4:	89 85 1c e4 ff ff    	mov    %eax,-0x1be4(%rbp)
    c6fa:	48 8b 85 70 e3 ff ff 	mov    -0x1c90(%rbp),%rax
    c701:	8b 00                	mov    (%rax),%eax
    c703:	8b 95 1c e4 ff ff    	mov    -0x1be4(%rbp),%edx
    c709:	89 d6                	mov    %edx,%esi
    c70b:	89 c7                	mov    %eax,%edi
    c70d:	e8 a4 be ff ff       	callq  85b6 <safe_add_func_int32_t_s_s>
    c712:	89 c1                	mov    %eax,%ecx
    c714:	48 8b 95 e0 e5 ff ff 	mov    -0x1a20(%rbp),%rdx
    c71b:	48 8b 85 00 e8 ff ff 	mov    -0x1800(%rbp),%rax
    c722:	48 89 10             	mov    %rdx,(%rax)
    c725:	48 8b 85 00 e8 ff ff 	mov    -0x1800(%rbp),%rax
    c72c:	48 8b 10             	mov    (%rax),%rdx
    c72f:	48 8b 05 5a af 01 00 	mov    0x1af5a(%rip),%rax        # 27690 <g_4356>
    c736:	48 8b 00             	mov    (%rax),%rax
    c739:	48 8b 00             	mov    (%rax),%rax
    c73c:	48 39 c2             	cmp    %rax,%rdx
    c73f:	0f 95 c0             	setne  %al
    c742:	0f b6 c0             	movzbl %al,%eax
    c745:	31 c8                	xor    %ecx,%eax
    c747:	0f b7 c0             	movzwl %ax,%eax
    c74a:	44 89 e6             	mov    %r12d,%esi
    c74d:	89 c7                	mov    %eax,%edi
    c74f:	e8 cb c5 ff ff       	callq  8d1f <safe_sub_func_uint16_t_u_u>
    c754:	48 8b 05 95 aa 01 00 	mov    0x1aa95(%rip),%rax        # 271f0 <g_711>
    c75b:	66 c7 00 01 00       	movw   $0x1,(%rax)
    c760:	48 83 bd 68 e3 ff ff 	cmpq   $0x0,-0x1c98(%rbp)
    c767:	00 
    c768:	74 07                	je     c771 <func_2+0x2b35>
    c76a:	ba 01 00 00 00       	mov    $0x1,%edx
    c76f:	eb 05                	jmp    c776 <func_2+0x2b3a>
    c771:	ba 00 00 00 00       	mov    $0x0,%edx
    c776:	48 8b 05 53 ad 01 00 	mov    0x1ad53(%rip),%rax        # 274d0 <g_3674>
    c77d:	48 8b 00             	mov    (%rax),%rax
    c780:	66 89 10             	mov    %dx,(%rax)
    c783:	be 04 00 00 00       	mov    $0x4,%esi
    c788:	bf f9 ff ff ff       	mov    $0xfffffff9,%edi
    c78d:	e8 4f bd ff ff       	callq  84e1 <safe_lshift_func_int16_t_s_u>
    c792:	48 8b 95 10 e8 ff ff 	mov    -0x17f0(%rbp),%rdx
    c799:	48 8b 12             	mov    (%rdx),%rdx
    c79c:	48 0f bf c0          	movswq %ax,%rax
    c7a0:	48 09 c2             	or     %rax,%rdx
    c7a3:	48 8b 85 10 e8 ff ff 	mov    -0x17f0(%rbp),%rax
    c7aa:	48 89 10             	mov    %rdx,(%rax)
    c7ad:	48 8b 85 10 e8 ff ff 	mov    -0x17f0(%rbp),%rax
    c7b4:	48 8b 10             	mov    (%rax),%rdx
    c7b7:	48 8b 85 f8 e7 ff ff 	mov    -0x1808(%rbp),%rax
    c7be:	48 8b 00             	mov    (%rax),%rax
    c7c1:	8b 00                	mov    (%rax),%eax
    c7c3:	48 98                	cltq   
    c7c5:	48 39 c2             	cmp    %rax,%rdx
    c7c8:	0f 9f c0             	setg   %al
    c7cb:	0f b6 d0             	movzbl %al,%edx
    c7ce:	48 8b 05 2b aa 01 00 	mov    0x1aa2b(%rip),%rax        # 27200 <g_1023>
    c7d5:	0f b6 00             	movzbl (%rax),%eax
    c7d8:	0f b6 c0             	movzbl %al,%eax
    c7db:	39 c2                	cmp    %eax,%edx
    c7dd:	0f 94 c0             	sete   %al
    c7e0:	0f b6 d0             	movzbl %al,%edx
    c7e3:	48 8b 85 60 e3 ff ff 	mov    -0x1ca0(%rbp),%rax
    c7ea:	8b 00                	mov    (%rax),%eax
    c7ec:	39 c2                	cmp    %eax,%edx
    c7ee:	0f 95 c0             	setne  %al
    c7f1:	0f b6 c0             	movzbl %al,%eax
    c7f4:	89 de                	mov    %ebx,%esi
    c7f6:	89 c7                	mov    %eax,%edi
    c7f8:	e8 f5 b9 ff ff       	callq  81f2 <safe_sub_func_int8_t_s_s>
    c7fd:	48 8b 05 cc ae 01 00 	mov    0x1aecc(%rip),%rax        # 276d0 <g_4401>
    c804:	48 8b 00             	mov    (%rax),%rax
    c807:	48 8b 00             	mov    (%rax),%rax
    c80a:	48 39 85 60 e3 ff ff 	cmp    %rax,-0x1ca0(%rbp)
    c811:	0f 95 c0             	setne  %al
    c814:	0f b6 c0             	movzbl %al,%eax
    c817:	be f6 ff ff ff       	mov    $0xfffffff6,%esi
    c81c:	89 c7                	mov    %eax,%edi
    c81e:	e8 47 ba ff ff       	callq  826a <safe_div_func_int8_t_s_s>
    c823:	84 c0                	test   %al,%al
    c825:	0f 94 c0             	sete   %al
    c828:	0f b6 d0             	movzbl %al,%edx
    c82b:	48 8b 85 60 fa ff ff 	mov    -0x5a0(%rbp),%rax
    c832:	48 39 c2             	cmp    %rax,%rdx
    c835:	0f 93 c0             	setae  %al
    c838:	0f b6 d0             	movzbl %al,%edx
    c83b:	48 8b 85 b8 e7 ff ff 	mov    -0x1848(%rbp),%rax
    c842:	89 10                	mov    %edx,(%rax)
    c844:	8b 05 ca 82 01 00    	mov    0x182ca(%rip),%eax        # 24b14 <g_2657>
    c84a:	98                   	cwtl   
    c84b:	be 08 00 00 00       	mov    $0x8,%esi
    c850:	89 c7                	mov    %eax,%edi
    c852:	e8 5c bb ff ff       	callq  83b3 <safe_add_func_int16_t_s_s>
    c857:	98                   	cwtl   
    c858:	89 05 b6 82 01 00    	mov    %eax,0x182b6(%rip)        # 24b14 <g_2657>
    c85e:	8b 05 b0 82 01 00    	mov    0x182b0(%rip),%eax        # 24b14 <g_2657>
    c864:	83 f8 25             	cmp    $0x25,%eax
    c867:	0f 87 86 f8 ff ff    	ja     c0f3 <func_2+0x24b7>
    c86d:	e9 d3 03 00 00       	jmpq   cc45 <func_2+0x3009>
    c872:	c6 85 91 e3 ff ff 50 	movb   $0x50,-0x1c6f(%rbp)
    c879:	48 b8 00 07 46 ff 07 	movabs $0x1d60107ff460700,%rax
    c880:	01 d6 01 
    c883:	48 89 85 c0 f8 ff ff 	mov    %rax,-0x740(%rbp)
    c88a:	48 b8 01 00 01 00 01 	movabs $0x1ff270100010001,%rax
    c891:	27 ff 01 
    c894:	48 89 85 c8 f8 ff ff 	mov    %rax,-0x738(%rbp)
    c89b:	48 b8 01 f7 27 01 e5 	movabs $0xfe07e50127f701,%rax
    c8a2:	07 fe 00 
    c8a5:	48 89 85 d0 f8 ff ff 	mov    %rax,-0x730(%rbp)
    c8ac:	48 b8 f7 fe 27 ff bc 	movabs $0x27ffbcbcff27fef7,%rax
    c8b3:	bc ff 27 
    c8b6:	48 89 85 d8 f8 ff ff 	mov    %rax,-0x728(%rbp)
    c8bd:	48 b8 e5 e5 01 01 0f 	movabs $0xe5d6fd0f0101e5e5,%rax
    c8c4:	fd d6 e5 
    c8c7:	48 89 85 e0 f8 ff ff 	mov    %rax,-0x720(%rbp)
    c8ce:	48 b8 fe f7 46 bc d6 	movabs $0xe52746d6bc46f7fe,%rax
    c8d5:	46 27 e5 
    c8d8:	48 89 85 e8 f8 ff ff 	mov    %rax,-0x718(%rbp)
    c8df:	48 b8 f7 01 fe 01 fe 	movabs $0x27f701fe01fe01f7,%rax
    c8e6:	01 f7 27 
    c8e9:	48 89 85 f0 f8 ff ff 	mov    %rax,-0x710(%rbp)
    c8f0:	48 b8 00 01 27 ff 01 	movabs $0xd65f01ff270100,%rax
    c8f7:	5f d6 00 
    c8fa:	48 89 85 f8 f8 ff ff 	mov    %rax,-0x708(%rbp)
    c901:	48 b8 07 00 bc 01 01 	movabs $0x146460101bc0007,%rax
    c908:	46 46 01 
    c90b:	48 89 85 00 f9 ff ff 	mov    %rax,-0x700(%rbp)
    c912:	48 b8 00 27 27 00 fe 	movabs $0x1e507fe00272700,%rax
    c919:	07 e5 01 
    c91c:	48 89 85 08 f9 ff ff 	mov    %rax,-0x6f8(%rbp)
    c923:	48 b8 f7 e5 92 ff d6 	movabs $0xf7ff01d6ff92e5f7,%rax
    c92a:	01 ff f7 
    c92d:	48 89 85 10 f9 ff ff 	mov    %rax,-0x6f0(%rbp)
    c934:	48 b8 fe e5 bc 07 0f 	movabs $0xe5bc070f07bce5fe,%rax
    c93b:	07 bc e5 
    c93e:	48 89 85 18 f9 ff ff 	mov    %rax,-0x6e8(%rbp)
    c945:	48 b8 e5 27 46 d6 bc 	movabs $0xfff746bcd64627e5,%rax
    c94c:	46 f7 ff 
    c94f:	48 89 85 20 f9 ff ff 	mov    %rax,-0x6e0(%rbp)
    c956:	48 b8 07 27 0f 46 0f 	movabs $0x707f70f460f2707,%rax
    c95d:	f7 07 07 
    c960:	48 89 85 28 f9 ff ff 	mov    %rax,-0x6d8(%rbp)
    c967:	48 b8 92 46 01 01 46 	movabs $0x2709924601014692,%rax
    c96e:	92 09 27 
    c971:	48 89 85 30 f9 ff ff 	mov    %rax,-0x6d0(%rbp)
    c978:	48 b8 46 92 09 27 27 	movabs $0x27bc012727099246,%rax
    c97f:	01 bc 27 
    c982:	48 89 85 38 f9 ff ff 	mov    %rax,-0x6c8(%rbp)
    c989:	c7 85 f8 e4 ff ff 9f 	movl   $0x3aa69e9f,-0x1b08(%rbp)
    c990:	9e a6 3a 
    c993:	c7 85 10 ea ff ff ac 	movl   $0x4b3d31ac,-0x15f0(%rbp)
    c99a:	31 3d 4b 
    c99d:	c7 85 14 ea ff ff ac 	movl   $0x4b3d31ac,-0x15ec(%rbp)
    c9a4:	31 3d 4b 
    c9a7:	c7 85 18 ea ff ff 01 	movl   $0x1,-0x15e8(%rbp)
    c9ae:	00 00 00 
    c9b1:	c7 85 1c ea ff ff ac 	movl   $0x4b3d31ac,-0x15e4(%rbp)
    c9b8:	31 3d 4b 
    c9bb:	c7 85 20 ea ff ff ac 	movl   $0x4b3d31ac,-0x15e0(%rbp)
    c9c2:	31 3d 4b 
    c9c5:	c7 85 24 ea ff ff 01 	movl   $0x1,-0x15dc(%rbp)
    c9cc:	00 00 00 
    c9cf:	66 c7 85 a6 e3 ff ff 	movw   $0x99af,-0x1c5a(%rbp)
    c9d6:	af 99 
    c9d8:	48 b8 54 7d 89 88 a3 	movabs $0x4e7ab9a388897d54,%rax
    c9df:	b9 7a 4e 
    c9e2:	48 89 85 78 e7 ff ff 	mov    %rax,-0x1888(%rbp)
    c9e9:	c7 85 48 e4 ff ff 00 	movl   $0x0,-0x1bb8(%rbp)
    c9f0:	00 00 00 
    c9f3:	eb 50                	jmp    ca45 <func_2+0x2e09>
    c9f5:	c7 85 4c e4 ff ff 00 	movl   $0x0,-0x1bb4(%rbp)
    c9fc:	00 00 00 
    c9ff:	eb 34                	jmp    ca35 <func_2+0x2df9>
    ca01:	8b 85 4c e4 ff ff    	mov    -0x1bb4(%rbp),%eax
    ca07:	48 63 c8             	movslq %eax,%rcx
    ca0a:	8b 85 48 e4 ff ff    	mov    -0x1bb8(%rbp),%eax
    ca10:	48 63 d0             	movslq %eax,%rdx
    ca13:	48 89 d0             	mov    %rdx,%rax
    ca16:	48 01 c0             	add    %rax,%rax
    ca19:	48 01 d0             	add    %rdx,%rax
    ca1c:	48 01 c8             	add    %rcx,%rax
    ca1f:	48 8d 15 62 7e 01 00 	lea    0x17e62(%rip),%rdx        # 24888 <g_505>
    ca26:	48 89 94 c5 d0 e9 ff 	mov    %rdx,-0x1630(%rbp,%rax,8)
    ca2d:	ff 
    ca2e:	83 85 4c e4 ff ff 01 	addl   $0x1,-0x1bb4(%rbp)
    ca35:	83 bd 4c e4 ff ff 02 	cmpl   $0x2,-0x1bb4(%rbp)
    ca3c:	7e c3                	jle    ca01 <func_2+0x2dc5>
    ca3e:	83 85 48 e4 ff ff 01 	addl   $0x1,-0x1bb8(%rbp)
    ca45:	83 bd 48 e4 ff ff 00 	cmpl   $0x0,-0x1bb8(%rbp)
    ca4c:	7e a7                	jle    c9f5 <func_2+0x2db9>
    ca4e:	c7 05 18 81 01 00 01 	movl   $0x1,0x18118(%rip)        # 24b70 <g_4578>
    ca55:	00 00 00 
    ca58:	90                   	nop
    ca59:	8b 05 11 81 01 00    	mov    0x18111(%rip),%eax        # 24b70 <g_4578>
    ca5f:	85 c0                	test   %eax,%eax
    ca61:	78 0c                	js     ca6f <func_2+0x2e33>
    ca63:	48 8b 85 60 e3 ff ff 	mov    -0x1ca0(%rbp),%rax
    ca6a:	e9 0b 26 00 00       	jmpq   f07a <func_2+0x543e>
    ca6f:	48 8b 85 68 e5 ff ff 	mov    -0x1a98(%rbp),%rax
    ca76:	0f b6 95 91 e3 ff ff 	movzbl -0x1c6f(%rbp),%edx
    ca7d:	89 10                	mov    %edx,(%rax)
    ca7f:	c7 05 bf 75 01 00 f6 	movl   $0xfffffff6,0x175bf(%rip)        # 24048 <g_85>
    ca86:	ff ff ff 
    ca89:	e9 a8 01 00 00       	jmpq   cc36 <func_2+0x2ffa>
    ca8e:	c7 85 fc e4 ff ff 91 	movl   $0x770af91,-0x1b04(%rbp)
    ca95:	af 70 07 
    ca98:	c7 85 00 e5 ff ff e2 	movl   $0xc7ca78e2,-0x1b00(%rbp)
    ca9f:	78 ca c7 
    caa2:	c7 85 04 e5 ff ff f1 	movl   $0x93b47cf1,-0x1afc(%rbp)
    caa9:	7c b4 93 
    caac:	c7 85 08 e5 ff ff 56 	movl   $0xa5c03c56,-0x1af8(%rbp)
    cab3:	3c c0 a5 
    cab6:	c7 85 0c e5 ff ff 23 	movl   $0x6d516223,-0x1af4(%rbp)
    cabd:	62 51 6d 
    cac0:	c7 85 10 e5 ff ff 26 	movl   $0x48aec226,-0x1af0(%rbp)
    cac7:	c2 ae 48 
    caca:	c7 85 14 e5 ff ff ff 	movl   $0xffffffff,-0x1aec(%rbp)
    cad1:	ff ff ff 
    cad4:	c7 85 18 e5 ff ff f7 	movl   $0xfffffff7,-0x1ae8(%rbp)
    cadb:	ff ff ff 
    cade:	c7 85 1c e5 ff ff ff 	movl   $0xffffffff,-0x1ae4(%rbp)
    cae5:	ff ff ff 
    cae8:	c7 85 20 e5 ff ff 01 	movl   $0x1,-0x1ae0(%rbp)
    caef:	00 00 00 
    caf2:	c7 85 24 e5 ff ff ff 	movl   $0xffffffff,-0x1adc(%rbp)
    caf9:	ff ff ff 
    cafc:	c7 85 90 ea ff ff 90 	movl   $0x99865d90,-0x1570(%rbp)
    cb03:	5d 86 99 
    cb06:	c7 85 94 ea ff ff d6 	movl   $0xd31dbdd6,-0x156c(%rbp)
    cb0d:	bd 1d d3 
    cb10:	c7 85 98 ea ff ff 35 	movl   $0x97ceeb35,-0x1568(%rbp)
    cb17:	eb ce 97 
    cb1a:	c7 85 9c ea ff ff 35 	movl   $0x97ceeb35,-0x1564(%rbp)
    cb21:	eb ce 97 
    cb24:	c7 85 a0 ea ff ff d6 	movl   $0xd31dbdd6,-0x1560(%rbp)
    cb2b:	bd 1d d3 
    cb2e:	c7 85 a4 ea ff ff 90 	movl   $0x99865d90,-0x155c(%rbp)
    cb35:	5d 86 99 
    cb38:	c7 85 a8 ea ff ff d6 	movl   $0xd31dbdd6,-0x1558(%rbp)
    cb3f:	bd 1d d3 
    cb42:	c7 85 ac ea ff ff 35 	movl   $0x97ceeb35,-0x1554(%rbp)
    cb49:	eb ce 97 
    cb4c:	c7 85 b0 ea ff ff 35 	movl   $0x97ceeb35,-0x1550(%rbp)
    cb53:	eb ce 97 
    cb56:	c7 85 b4 ea ff ff d6 	movl   $0xd31dbdd6,-0x154c(%rbp)
    cb5d:	bd 1d d3 
    cb60:	48 8d 05 79 a5 01 00 	lea    0x1a579(%rip),%rax        # 270e0 <g_380>
    cb67:	48 89 85 80 e7 ff ff 	mov    %rax,-0x1880(%rbp)
    cb6e:	48 c7 85 88 e7 ff ff 	movq   $0x0,-0x1878(%rbp)
    cb75:	00 00 00 00 
    cb79:	48 c7 85 90 e7 ff ff 	movq   $0x0,-0x1870(%rbp)
    cb80:	00 00 00 00 
    cb84:	48 8d 85 87 e3 ff ff 	lea    -0x1c79(%rbp),%rax
    cb8b:	48 89 85 d8 e5 ff ff 	mov    %rax,-0x1a28(%rbp)
    cb92:	48 8d 85 d8 e5 ff ff 	lea    -0x1a28(%rbp),%rax
    cb99:	48 89 85 e0 e5 ff ff 	mov    %rax,-0x1a20(%rbp)
    cba0:	48 8d 85 e0 e5 ff ff 	lea    -0x1a20(%rbp),%rax
    cba7:	48 89 85 e0 ea ff ff 	mov    %rax,-0x1520(%rbp)
    cbae:	48 8d 85 e0 e5 ff ff 	lea    -0x1a20(%rbp),%rax
    cbb5:	48 89 85 e8 ea ff ff 	mov    %rax,-0x1518(%rbp)
    cbbc:	48 8d 85 e0 e5 ff ff 	lea    -0x1a20(%rbp),%rax
    cbc3:	48 89 85 f0 ea ff ff 	mov    %rax,-0x1510(%rbp)
    cbca:	48 8d 85 e0 e5 ff ff 	lea    -0x1a20(%rbp),%rax
    cbd1:	48 89 85 f8 ea ff ff 	mov    %rax,-0x1508(%rbp)
    cbd8:	48 8d 85 e0 e5 ff ff 	lea    -0x1a20(%rbp),%rax
    cbdf:	48 89 85 00 eb ff ff 	mov    %rax,-0x1500(%rbp)
    cbe6:	48 8d 85 e0 e5 ff ff 	lea    -0x1a20(%rbp),%rax
    cbed:	48 89 85 08 eb ff ff 	mov    %rax,-0x14f8(%rbp)
    cbf4:	48 8d 85 e0 e5 ff ff 	lea    -0x1a20(%rbp),%rax
    cbfb:	48 89 85 10 eb ff ff 	mov    %rax,-0x14f0(%rbp)
    cc02:	48 8d 85 e0 e5 ff ff 	lea    -0x1a20(%rbp),%rax
    cc09:	48 89 85 18 eb ff ff 	mov    %rax,-0x14e8(%rbp)
    cc10:	48 8d 85 e0 e5 ff ff 	lea    -0x1a20(%rbp),%rax
    cc17:	48 89 85 20 eb ff ff 	mov    %rax,-0x14e0(%rbp)
    cc1e:	8b 05 24 74 01 00    	mov    0x17424(%rip),%eax        # 24048 <g_85>
    cc24:	be 01 00 00 00       	mov    $0x1,%esi
    cc29:	89 c7                	mov    %eax,%edi
    cc2b:	e8 88 c2 ff ff       	callq  8eb8 <safe_add_func_uint32_t_u_u>
    cc30:	89 05 12 74 01 00    	mov    %eax,0x17412(%rip)        # 24048 <g_85>
    cc36:	8b 05 0c 74 01 00    	mov    0x1740c(%rip),%eax        # 24048 <g_85>
    cc3c:	83 f8 23             	cmp    $0x23,%eax
    cc3f:	0f 86 49 fe ff ff    	jbe    ca8e <func_2+0x2e52>
    cc45:	83 ad 20 e4 ff ff 01 	subl   $0x1,-0x1be0(%rbp)
    cc4c:	48 8b 85 08 e7 ff ff 	mov    -0x18f8(%rbp),%rax
    cc53:	48 8b 95 f8 e5 ff ff 	mov    -0x1a08(%rbp),%rdx
    cc5a:	48 89 10             	mov    %rdx,(%rax)
    cc5d:	48 8b 85 e0 e6 ff ff 	mov    -0x1920(%rbp),%rax
    cc64:	48 8b 95 f8 e5 ff ff 	mov    -0x1a08(%rbp),%rdx
    cc6b:	48 89 10             	mov    %rdx,(%rax)
    cc6e:	48 8b 85 80 e5 ff ff 	mov    -0x1a80(%rbp),%rax
    cc75:	48 85 c0             	test   %rax,%rax
    cc78:	0f 84 1f 05 00 00    	je     d19d <func_2+0x3561>
    cc7e:	48 c7 85 c0 f8 ff ff 	movq   $0x0,-0x740(%rbp)
    cc85:	00 00 00 00 
    cc89:	48 c7 85 c8 f8 ff ff 	movq   $0x0,-0x738(%rbp)
    cc90:	00 00 00 00 
    cc94:	48 c7 85 d0 f8 ff ff 	movq   $0x0,-0x730(%rbp)
    cc9b:	00 00 00 00 
    cc9f:	48 c7 85 d8 f8 ff ff 	movq   $0x0,-0x728(%rbp)
    cca6:	00 00 00 00 
    ccaa:	c7 85 e0 f8 ff ff 00 	movl   $0x0,-0x720(%rbp)
    ccb1:	00 00 00 
    ccb4:	48 8d 85 80 e5 ff ff 	lea    -0x1a80(%rbp),%rax
    ccbb:	48 89 85 68 e8 ff ff 	mov    %rax,-0x1798(%rbp)
    ccc2:	c7 05 a0 7b 01 00 0a 	movl   $0xa,0x17ba0(%rip)        # 2486c <g_321>
    ccc9:	00 00 00 
    cccc:	e9 15 01 00 00       	jmpq   cde6 <func_2+0x31aa>
    ccd1:	48 c7 85 d0 e8 ff ff 	movq   $0x0,-0x1730(%rbp)
    ccd8:	00 00 00 00 
    ccdc:	48 c7 85 d8 e8 ff ff 	movq   $0x0,-0x1728(%rbp)
    cce3:	00 00 00 00 
    cce7:	48 8b 85 d0 e8 ff ff 	mov    -0x1730(%rbp),%rax
    ccee:	48 89 85 10 e7 ff ff 	mov    %rax,-0x18f0(%rbp)
    ccf5:	8b 85 c8 f8 ff ff    	mov    -0x738(%rbp),%eax
    ccfb:	41 89 c5             	mov    %eax,%r13d
    ccfe:	0f b6 85 7c e3 ff ff 	movzbl -0x1c84(%rbp),%eax
    cd05:	0f b6 c0             	movzbl %al,%eax
    cd08:	48 89 c6             	mov    %rax,%rsi
    cd0b:	bf 00 00 00 00       	mov    $0x0,%edi
    cd10:	e8 9a c3 ff ff       	callq  90af <safe_div_func_uint64_t_u_u>
    cd15:	41 89 c6             	mov    %eax,%r14d
    cd18:	48 8b 85 58 e3 ff ff 	mov    -0x1ca8(%rbp),%rax
    cd1f:	0f b7 d8             	movzwl %ax,%ebx
    cd22:	48 8b 05 c7 a3 01 00 	mov    0x1a3c7(%rip),%rax        # 270f0 <g_378>
    cd29:	48 8b 00             	mov    (%rax),%rax
    cd2c:	48 8b 00             	mov    (%rax),%rax
    cd2f:	0f b6 00             	movzbl (%rax),%eax
    cd32:	44 0f be e0          	movsbl %al,%r12d
    cd36:	48 8b 85 68 e3 ff ff 	mov    -0x1c98(%rbp),%rax
    cd3d:	89 c1                	mov    %eax,%ecx
    cd3f:	48 8b 05 d2 a3 01 00 	mov    0x1a3d2(%rip),%rax        # 27118 <g_677>
    cd46:	48 8b 00             	mov    (%rax),%rax
    cd49:	48 8b 00             	mov    (%rax),%rax
    cd4c:	48 8b 95 68 e3 ff ff 	mov    -0x1c98(%rbp),%rdx
    cd53:	48 89 10             	mov    %rdx,(%rax)
    cd56:	b8 01 00 00 00       	mov    $0x1,%eax
    cd5b:	89 ce                	mov    %ecx,%esi
    cd5d:	89 c7                	mov    %eax,%edi
    cd5f:	e8 68 b9 ff ff       	callq  86cc <safe_mod_func_int32_t_s_s>
    cd64:	0f b6 85 7c e3 ff ff 	movzbl -0x1c84(%rbp),%eax
    cd6b:	84 c0                	test   %al,%al
    cd6d:	74 07                	je     cd76 <func_2+0x313a>
    cd6f:	b8 01 00 00 00       	mov    $0x1,%eax
    cd74:	eb 05                	jmp    cd7b <func_2+0x313f>
    cd76:	b8 00 00 00 00       	mov    $0x0,%eax
    cd7b:	0f be c0             	movsbl %al,%eax
    cd7e:	44 89 e6             	mov    %r12d,%esi
    cd81:	89 c7                	mov    %eax,%edi
    cd83:	e8 8a b4 ff ff       	callq  8212 <safe_mul_func_int8_t_s_s>
    cd88:	48 0f be c0          	movsbq %al,%rax
    cd8c:	48 35 35 f6 00 00    	xor    $0xf635,%rax
    cd92:	48 89 c2             	mov    %rax,%rdx
    cd95:	0f b6 85 7c e3 ff ff 	movzbl -0x1c84(%rbp),%eax
    cd9c:	0f b6 c0             	movzbl %al,%eax
    cd9f:	48 39 c2             	cmp    %rax,%rdx
    cda2:	0f 9d c0             	setge  %al
    cda5:	0f b6 c0             	movzbl %al,%eax
    cda8:	89 de                	mov    %ebx,%esi
    cdaa:	89 c7                	mov    %eax,%edi
    cdac:	e8 6e bf ff ff       	callq  8d1f <safe_sub_func_uint16_t_u_u>
    cdb1:	0f b7 c0             	movzwl %ax,%eax
    cdb4:	48 8b 95 58 e3 ff ff 	mov    -0x1ca8(%rbp),%rdx
    cdbb:	09 d0                	or     %edx,%eax
    cdbd:	44 31 f0             	xor    %r14d,%eax
    cdc0:	44 89 ee             	mov    %r13d,%esi
    cdc3:	89 c7                	mov    %eax,%edi
    cdc5:	e8 06 c1 ff ff       	callq  8ed0 <safe_sub_func_uint32_t_u_u>
    cdca:	48 8b 05 0f a9 01 00 	mov    0x1a90f(%rip),%rax        # 276e0 <g_4764>
    cdd1:	c7 00 00 00 00 00    	movl   $0x0,(%rax)
    cdd7:	8b 05 8f 7a 01 00    	mov    0x17a8f(%rip),%eax        # 2486c <g_321>
    cddd:	83 e8 01             	sub    $0x1,%eax
    cde0:	89 05 86 7a 01 00    	mov    %eax,0x17a86(%rip)        # 2486c <g_321>
    cde6:	8b 05 80 7a 01 00    	mov    0x17a80(%rip),%eax        # 2486c <g_321>
    cdec:	83 f8 01             	cmp    $0x1,%eax
    cdef:	0f 86 dc fe ff ff    	jbe    ccd1 <func_2+0x3095>
    cdf5:	c7 85 d4 e3 ff ff 00 	movl   $0x0,-0x1c2c(%rbp)
    cdfc:	00 00 00 
    cdff:	90                   	nop
    ce00:	8b 85 d4 e3 ff ff    	mov    -0x1c2c(%rbp),%eax
    ce06:	85 c0                	test   %eax,%eax
    ce08:	0f 88 55 03 00 00    	js     d163 <func_2+0x3527>
    ce0e:	c7 85 54 e5 ff ff 00 	movl   $0x0,-0x1aac(%rbp)
    ce15:	00 00 00 
    ce18:	48 8d 85 e8 e8 ff ff 	lea    -0x1718(%rbp),%rax
    ce1f:	48 83 c0 06          	add    $0x6,%rax
    ce23:	48 89 85 70 e8 ff ff 	mov    %rax,-0x1790(%rbp)
    ce2a:	c7 85 50 e4 ff ff 00 	movl   $0x0,-0x1bb0(%rbp)
    ce31:	00 00 00 
    ce34:	eb 1e                	jmp    ce54 <func_2+0x3218>
    ce36:	8b 85 50 e4 ff ff    	mov    -0x1bb0(%rbp),%eax
    ce3c:	48 98                	cltq   
    ce3e:	48 8d 95 e0 e3 ff ff 	lea    -0x1c20(%rbp),%rdx
    ce45:	48 89 94 c5 30 eb ff 	mov    %rdx,-0x14d0(%rbp,%rax,8)
    ce4c:	ff 
    ce4d:	83 85 50 e4 ff ff 01 	addl   $0x1,-0x1bb0(%rbp)
    ce54:	83 bd 50 e4 ff ff 00 	cmpl   $0x0,-0x1bb0(%rbp)
    ce5b:	7e d9                	jle    ce36 <func_2+0x31fa>
    ce5d:	48 8b 05 bc a2 01 00 	mov    0x1a2bc(%rip),%rax        # 27120 <g_676>
    ce64:	48 8b 00             	mov    (%rax),%rax
    ce67:	48 8b 00             	mov    (%rax),%rax
    ce6a:	48 8b 00             	mov    (%rax),%rax
    ce6d:	8b 85 54 e5 ff ff    	mov    -0x1aac(%rbp),%eax
    ce73:	0f b6 c0             	movzbl %al,%eax
    ce76:	be 00 00 00 00       	mov    $0x0,%esi
    ce7b:	89 c7                	mov    %eax,%edi
    ce7d:	e8 f6 bc ff ff       	callq  8b78 <safe_sub_func_uint8_t_u_u>
    ce82:	48 8b 85 68 e5 ff ff 	mov    -0x1a98(%rbp),%rax
    ce89:	8b 00                	mov    (%rax),%eax
    ce8b:	3d fe 00 00 00       	cmp    $0xfe,%eax
    ce90:	0f 97 c0             	seta   %al
    ce93:	0f b6 c0             	movzbl %al,%eax
    ce96:	48 be 8e 10 3f 41 8a 	movabs $0x4139678a413f108e,%rsi
    ce9d:	67 39 41 
    cea0:	48 89 c7             	mov    %rax,%rdi
    cea3:	e8 d8 c1 ff ff       	callq  9080 <safe_mod_func_uint64_t_u_u>
    cea8:	b8 01 00 00 00       	mov    $0x1,%eax
    cead:	0f b7 c0             	movzwl %ax,%eax
    ceb0:	be 07 00 00 00       	mov    $0x7,%esi
    ceb5:	89 c7                	mov    %eax,%edi
    ceb7:	e8 8c bf ff ff       	callq  8e48 <safe_rshift_func_uint16_t_u_s>
    cebc:	0f b7 c0             	movzwl %ax,%eax
    cebf:	48 89 c6             	mov    %rax,%rsi
    cec2:	48 bf bc 7b 6c bc 6e 	movabs $0x4bbe106ebc6c7bbc,%rdi
    cec9:	10 be 4b 
    cecc:	e8 70 b9 ff ff       	callq  8841 <safe_add_func_int64_t_s_s>
    ced1:	8b 85 c0 f8 ff ff    	mov    -0x740(%rbp),%eax
    ced7:	0f be c0             	movsbl %al,%eax
    ceda:	be 00 00 00 00       	mov    $0x0,%esi
    cedf:	89 c7                	mov    %eax,%edi
    cee1:	e8 ee b2 ff ff       	callq  81d4 <safe_add_func_int8_t_s_s>
    cee6:	3c f8                	cmp    $0xf8,%al
    cee8:	0f 84 7e 01 00 00    	je     d06c <func_2+0x3430>
    ceee:	48 8b 05 db a7 01 00 	mov    0x1a7db(%rip),%rax        # 276d0 <g_4401>
    cef5:	48 8b 00             	mov    (%rax),%rax
    cef8:	48 8b 00             	mov    (%rax),%rax
    cefb:	48 8b 05 76 a7 01 00 	mov    0x1a776(%rip),%rax        # 27678 <g_4342>
    cf02:	48 8b 00             	mov    (%rax),%rax
    cf05:	48 8b 00             	mov    (%rax),%rax
    cf08:	48 8b 18             	mov    (%rax),%rbx
    cf0b:	bf 01 00 00 00       	mov    $0x1,%edi
    cf10:	e8 88 b4 ff ff       	callq  839d <safe_unary_minus_func_int16_t_s>
    cf15:	48 0f bf c0          	movswq %ax,%rax
    cf19:	48 89 de             	mov    %rbx,%rsi
    cf1c:	48 89 c7             	mov    %rax,%rdi
    cf1f:	e8 84 b9 ff ff       	callq  88a8 <safe_sub_func_int64_t_s_s>
    cf24:	48 83 bd 60 e3 ff ff 	cmpq   $0x0,-0x1ca0(%rbp)
    cf2b:	00 
    cf2c:	0f 95 c2             	setne  %dl
    cf2f:	0f b6 d2             	movzbl %dl,%edx
    cf32:	48 39 d0             	cmp    %rdx,%rax
    cf35:	0f 95 c0             	setne  %al
    cf38:	0f b6 c0             	movzbl %al,%eax
    cf3b:	be 04 00 00 00       	mov    $0x4,%esi
    cf40:	89 c7                	mov    %eax,%edi
    cf42:	e8 a7 b3 ff ff       	callq  82ee <safe_lshift_func_int8_t_s_u>
    cf47:	0f be c0             	movsbl %al,%eax
    cf4a:	f7 d0                	not    %eax
    cf4c:	89 c1                	mov    %eax,%ecx
    cf4e:	48 8b 05 8b a7 01 00 	mov    0x1a78b(%rip),%rax        # 276e0 <g_4764>
    cf55:	8b 10                	mov    (%rax),%edx
    cf57:	48 8b 05 82 a7 01 00 	mov    0x1a782(%rip),%rax        # 276e0 <g_4764>
    cf5e:	09 ca                	or     %ecx,%edx
    cf60:	89 10                	mov    %edx,(%rax)
    cf62:	8b 00                	mov    (%rax),%eax
    cf64:	41 89 c5             	mov    %eax,%r13d
    cf67:	48 8b 85 70 e3 ff ff 	mov    -0x1c90(%rbp),%rax
    cf6e:	8b 00                	mov    (%rax),%eax
    cf70:	41 89 c4             	mov    %eax,%r12d
    cf73:	8b 85 54 e5 ff ff    	mov    -0x1aac(%rbp),%eax
    cf79:	0f b6 d8             	movzbl %al,%ebx
    cf7c:	48 83 bd 68 e8 ff ff 	cmpq   $0x0,-0x1798(%rbp)
    cf83:	00 
    cf84:	0f 94 c0             	sete   %al
    cf87:	0f b6 d0             	movzbl %al,%edx
    cf8a:	48 8b 85 68 e5 ff ff 	mov    -0x1a98(%rbp),%rax
    cf91:	8b 00                	mov    (%rax),%eax
    cf93:	31 d0                	xor    %edx,%eax
    cf95:	98                   	cwtl   
    cf96:	be 5a 9b ff ff       	mov    $0xffff9b5a,%esi
    cf9b:	89 c7                	mov    %eax,%edi
    cf9d:	e8 b3 b4 ff ff       	callq  8455 <safe_div_func_int16_t_s_s>
    cfa2:	66 85 c0             	test   %ax,%ax
    cfa5:	74 14                	je     cfbb <func_2+0x337f>
    cfa7:	48 8b 05 da 9d 01 00 	mov    0x19dda(%rip),%rax        # 26d88 <g_146>
    cfae:	8b 00                	mov    (%rax),%eax
    cfb0:	85 c0                	test   %eax,%eax
    cfb2:	74 07                	je     cfbb <func_2+0x337f>
    cfb4:	b8 01 00 00 00       	mov    $0x1,%eax
    cfb9:	eb 05                	jmp    cfc0 <func_2+0x3384>
    cfbb:	b8 00 00 00 00       	mov    $0x0,%eax
    cfc0:	0f b6 c0             	movzbl %al,%eax
    cfc3:	89 de                	mov    %ebx,%esi
    cfc5:	89 c7                	mov    %eax,%edi
    cfc7:	e8 c7 bb ff ff       	callq  8b93 <safe_mul_func_uint8_t_u_u>
    cfcc:	48 8b 05 2d a2 01 00 	mov    0x1a22d(%rip),%rax        # 27200 <g_1023>
    cfd3:	0f b6 00             	movzbl (%rax),%eax
    cfd6:	0f b6 d8             	movzbl %al,%ebx
    cfd9:	48 8b 05 b0 9d 01 00 	mov    0x19db0(%rip),%rax        # 26d90 <g_145>
    cfe0:	48 8b 00             	mov    (%rax),%rax
    cfe3:	8b 00                	mov    (%rax),%eax
    cfe5:	be b5 29 87 62       	mov    $0x628729b5,%esi
    cfea:	89 c7                	mov    %eax,%edi
    cfec:	e8 df be ff ff       	callq  8ed0 <safe_sub_func_uint32_t_u_u>
    cff1:	0f be c0             	movsbl %al,%eax
    cff4:	89 de                	mov    %ebx,%esi
    cff6:	89 c7                	mov    %eax,%edi
    cff8:	e8 6f b3 ff ff       	callq  836c <safe_rshift_func_int8_t_s_u>
    cffd:	0f b7 85 a2 e3 ff ff 	movzwl -0x1c5e(%rbp),%eax
    d004:	44 89 e6             	mov    %r12d,%esi
    d007:	89 c7                	mov    %eax,%edi
    d009:	e8 17 bf ff ff       	callq  8f25 <safe_div_func_uint32_t_u_u>
    d00e:	44 89 ea             	mov    %r13d,%edx
    d011:	09 c2                	or     %eax,%edx
    d013:	0f b6 85 7c e3 ff ff 	movzbl -0x1c84(%rbp),%eax
    d01a:	0f b6 c0             	movzbl %al,%eax
    d01d:	31 c2                	xor    %eax,%edx
    d01f:	8b 85 dc f8 ff ff    	mov    -0x724(%rbp),%eax
    d025:	31 d0                	xor    %edx,%eax
    d027:	89 85 dc f8 ff ff    	mov    %eax,-0x724(%rbp)
    d02d:	c7 85 1c e4 ff ff 05 	movl   $0x5,-0x1be4(%rbp)
    d034:	00 00 00 
    d037:	eb 11                	jmp    d04a <func_2+0x340e>
    d039:	8b 85 d0 f8 ff ff    	mov    -0x730(%rbp),%eax
    d03f:	85 c0                	test   %eax,%eax
    d041:	75 12                	jne    d055 <func_2+0x3419>
    d043:	83 ad 1c e4 ff ff 01 	subl   $0x1,-0x1be4(%rbp)
    d04a:	83 bd 1c e4 ff ff 00 	cmpl   $0x0,-0x1be4(%rbp)
    d051:	79 e6                	jns    d039 <func_2+0x33fd>
    d053:	eb 01                	jmp    d056 <func_2+0x341a>
    d055:	90                   	nop
    d056:	48 8b 85 70 e3 ff ff 	mov    -0x1c90(%rbp),%rax
    d05d:	8b 00                	mov    (%rax),%eax
    d05f:	85 c0                	test   %eax,%eax
    d061:	0f 84 f0 00 00 00    	je     d157 <func_2+0x351b>
    d067:	e9 f7 00 00 00       	jmpq   d163 <func_2+0x3527>
    d06c:	48 8d 85 e8 e8 ff ff 	lea    -0x1718(%rbp),%rax
    d073:	48 83 c0 06          	add    $0x6,%rax
    d077:	48 89 85 78 e8 ff ff 	mov    %rax,-0x1788(%rbp)
    d07e:	c7 85 20 ee ff ff 46 	movl   $0x9379be46,-0x11e0(%rbp)
    d085:	be 79 93 
    d088:	c7 85 24 ee ff ff 46 	movl   $0x9379be46,-0x11dc(%rbp)
    d08f:	be 79 93 
    d092:	c7 85 28 ee ff ff 46 	movl   $0x9379be46,-0x11d8(%rbp)
    d099:	be 79 93 
    d09c:	c7 85 2c ee ff ff 46 	movl   $0x9379be46,-0x11d4(%rbp)
    d0a3:	be 79 93 
    d0a6:	c6 85 8a e3 ff ff 00 	movb   $0x0,-0x1c76(%rbp)
    d0ad:	80 bd 8a e3 ff ff 00 	cmpb   $0x0,-0x1c76(%rbp)
    d0b4:	0f 88 9d 00 00 00    	js     d157 <func_2+0x351b>
    d0ba:	48 8d 85 a8 e5 ff ff 	lea    -0x1a58(%rbp),%rax
    d0c1:	48 89 85 80 e8 ff ff 	mov    %rax,-0x1780(%rbp)
    d0c8:	8b 85 54 e5 ff ff    	mov    -0x1aac(%rbp),%eax
    d0ce:	0f b6 c0             	movzbl %al,%eax
    d0d1:	be 03 00 00 00       	mov    $0x3,%esi
    d0d6:	89 c7                	mov    %eax,%edi
    d0d8:	e8 b0 bb ff ff       	callq  8c8d <safe_rshift_func_uint8_t_u_s>
    d0dd:	48 8b 85 30 eb ff ff 	mov    -0x14d0(%rbp),%rax
    d0e4:	48 85 c0             	test   %rax,%rax
    d0e7:	0f 95 c2             	setne  %dl
    d0ea:	48 8b 85 68 e5 ff ff 	mov    -0x1a98(%rbp),%rax
    d0f1:	0f b6 d2             	movzbl %dl,%edx
    d0f4:	89 10                	mov    %edx,(%rax)
    d0f6:	8b 10                	mov    (%rax),%edx
    d0f8:	48 8b 85 78 e8 ff ff 	mov    -0x1788(%rbp),%rax
    d0ff:	48 3b 85 70 e8 ff ff 	cmp    -0x1790(%rbp),%rax
    d106:	0f 95 c0             	setne  %al
    d109:	0f b6 c0             	movzbl %al,%eax
    d10c:	39 c2                	cmp    %eax,%edx
    d10e:	0f 9c c0             	setl   %al
    d111:	0f b6 c0             	movzbl %al,%eax
    d114:	48 39 85 68 e3 ff ff 	cmp    %rax,-0x1c98(%rbp)
    d11b:	8b 95 28 ee ff ff    	mov    -0x11d8(%rbp),%edx
    d121:	0f b6 85 7c e3 ff ff 	movzbl -0x1c84(%rbp),%eax
    d128:	0f b6 c0             	movzbl %al,%eax
    d12b:	39 c2                	cmp    %eax,%edx
    d12d:	48 8b 85 58 e3 ff ff 	mov    -0x1ca8(%rbp),%rax
    d134:	48 89 c6             	mov    %rax,%rsi
    d137:	bf 4e 00 00 00       	mov    $0x4e,%edi
    d13c:	e8 42 90 00 00       	callq  16183 <func_33>
    d141:	48 8b 95 80 e8 ff ff 	mov    -0x1780(%rbp),%rdx
    d148:	48 89 02             	mov    %rax,(%rdx)
    d14b:	48 8b 85 70 e3 ff ff 	mov    -0x1c90(%rbp),%rax
    d152:	e9 23 1f 00 00       	jmpq   f07a <func_2+0x543e>
    d157:	48 8b 85 60 e3 ff ff 	mov    -0x1ca0(%rbp),%rax
    d15e:	e9 17 1f 00 00       	jmpq   f07a <func_2+0x543e>
    d163:	c7 05 b7 6e 01 00 00 	movl   $0x0,0x16eb7(%rip)        # 24024 <g_9>
    d16a:	00 00 00 
    d16d:	eb 1e                	jmp    d18d <func_2+0x3551>
    d16f:	8b 05 03 77 01 00    	mov    0x17703(%rip),%eax        # 24878 <g_370>
    d175:	85 c0                	test   %eax,%eax
    d177:	74 05                	je     d17e <func_2+0x3542>
    d179:	e9 5c d6 ff ff       	jmpq   a7da <func_2+0xb9e>
    d17e:	8b 05 a0 6e 01 00    	mov    0x16ea0(%rip),%eax        # 24024 <g_9>
    d184:	83 e8 01             	sub    $0x1,%eax
    d187:	89 05 97 6e 01 00    	mov    %eax,0x16e97(%rip)        # 24024 <g_9>
    d18d:	8b 05 91 6e 01 00    	mov    0x16e91(%rip),%eax        # 24024 <g_9>
    d193:	83 f8 f2             	cmp    $0xfffffff2,%eax
    d196:	7c d7                	jl     d16f <func_2+0x3533>
    d198:	e9 cc 00 00 00       	jmpq   d269 <func_2+0x362d>
    d19d:	48 8b 05 a4 a4 01 00 	mov    0x1a4a4(%rip),%rax        # 27648 <g_3748>
    d1a4:	48 8b 00             	mov    (%rax),%rax
    d1a7:	48 8b 00             	mov    (%rax),%rax
    d1aa:	48 8b 00             	mov    (%rax),%rax
    d1ad:	0f b7 00             	movzwl (%rax),%eax
    d1b0:	0f b7 d0             	movzwl %ax,%edx
    d1b3:	48 8b 85 20 e6 ff ff 	mov    -0x19e0(%rbp),%rax
    d1ba:	98                   	cwtl   
    d1bb:	89 d6                	mov    %edx,%esi
    d1bd:	89 c7                	mov    %eax,%edi
    d1bf:	e8 1d b3 ff ff       	callq  84e1 <safe_lshift_func_int16_t_s_u>
    d1c4:	be 27 f0 97 93       	mov    $0x9397f027,%esi
    d1c9:	bf 01 00 00 00       	mov    $0x1,%edi
    d1ce:	e8 2c b5 ff ff       	callq  86ff <safe_div_func_int32_t_s_s>
    d1d3:	48 98                	cltq   
    d1d5:	48 39 85 68 e3 ff ff 	cmp    %rax,-0x1c98(%rbp)
    d1dc:	0f 9d c0             	setge  %al
    d1df:	0f b6 c0             	movzbl %al,%eax
    d1e2:	89 c6                	mov    %eax,%esi
    d1e4:	bf 52 00 00 00       	mov    $0x52,%edi
    d1e9:	e8 e6 af ff ff       	callq  81d4 <safe_add_func_int8_t_s_s>
    d1ee:	0f be c0             	movsbl %al,%eax
    d1f1:	25 fa 00 00 00       	and    $0xfa,%eax
    d1f6:	35 fc 91 92 cd       	xor    $0xcd9291fc,%eax
    d1fb:	89 c2                	mov    %eax,%edx
    d1fd:	48 8b 05 8c 9b 01 00 	mov    0x19b8c(%rip),%rax        # 26d90 <g_145>
    d204:	48 8b 00             	mov    (%rax),%rax
    d207:	8b 00                	mov    (%rax),%eax
    d209:	89 d6                	mov    %edx,%esi
    d20b:	89 c7                	mov    %eax,%edi
    d20d:	e8 eb bc ff ff       	callq  8efd <safe_mod_func_uint32_t_u_u>
    d212:	8b 85 38 f4 ff ff    	mov    -0xbc8(%rbp),%eax
    d218:	89 c0                	mov    %eax,%eax
    d21a:	48 be d8 cc 30 79 ba 	movabs $0xa91912ba7930ccd8,%rsi
    d221:	12 19 a9 
    d224:	48 89 c7             	mov    %rax,%rdi
    d227:	e8 02 be ff ff       	callq  902e <safe_add_func_uint64_t_u_u>
    d22c:	0f be c0             	movsbl %al,%eax
    d22f:	89 c6                	mov    %eax,%esi
    d231:	bf 00 00 00 00       	mov    $0x0,%edi
    d236:	e8 b7 af ff ff       	callq  81f2 <safe_sub_func_int8_t_s_s>
    d23b:	84 c0                	test   %al,%al
    d23d:	74 08                	je     d247 <func_2+0x360b>
    d23f:	48 83 bd 68 e3 ff ff 	cmpq   $0x0,-0x1c98(%rbp)
    d246:	00 
    d247:	48 bf 3a 5e 00 2d b8 	movabs $0x871452b82d005e3a,%rdi
    d24e:	52 14 87 
    d251:	e8 f0 1e 00 00       	callq  f146 <func_12>
    d256:	48 89 85 60 e3 ff ff 	mov    %rax,-0x1ca0(%rbp)
    d25d:	48 8b 85 60 e3 ff ff 	mov    -0x1ca0(%rbp),%rax
    d264:	e9 11 1e 00 00       	jmpq   f07a <func_2+0x543e>
    d269:	48 8b 85 68 e5 ff ff 	mov    -0x1a98(%rbp),%rax
    d270:	8b 00                	mov    (%rax),%eax
    d272:	85 c0                	test   %eax,%eax
    d274:	0f 84 a1 0c 00 00    	je     df1b <func_2+0x42df>
    d27a:	48 8d 85 f0 e3 ff ff 	lea    -0x1c10(%rbp),%rax
    d281:	48 89 85 98 e8 ff ff 	mov    %rax,-0x1768(%rbp)
    d288:	48 8d 85 b8 e3 ff ff 	lea    -0x1c48(%rbp),%rax
    d28f:	48 89 85 a0 e8 ff ff 	mov    %rax,-0x1760(%rbp)
    d296:	48 8d 85 00 e4 ff ff 	lea    -0x1c00(%rbp),%rax
    d29d:	48 89 85 a8 e8 ff ff 	mov    %rax,-0x1758(%rbp)
    d2a4:	48 8d 05 cd 75 01 00 	lea    0x175cd(%rip),%rax        # 24878 <g_370>
    d2ab:	48 89 85 b0 e8 ff ff 	mov    %rax,-0x1750(%rbp)
    d2b2:	48 8d 85 00 e9 ff ff 	lea    -0x1700(%rbp),%rax
    d2b9:	48 83 c0 08          	add    $0x8,%rax
    d2bd:	48 89 85 b8 e8 ff ff 	mov    %rax,-0x1748(%rbp)
    d2c4:	48 8d 85 20 ee ff ff 	lea    -0x11e0(%rbp),%rax
    d2cb:	48 8d 15 4e 08 01 00 	lea    0x1084e(%rip),%rdx        # 1db20 <g_5653+0xa7f>
    d2d2:	b9 5a 00 00 00       	mov    $0x5a,%ecx
    d2d7:	48 89 c7             	mov    %rax,%rdi
    d2da:	48 89 d6             	mov    %rdx,%rsi
    d2dd:	f3 48 a5             	rep movsq %ds:(%rsi),%es:(%rdi)
    d2e0:	48 8d 85 cc e3 ff ff 	lea    -0x1c34(%rbp),%rax
    d2e7:	48 89 85 c0 e8 ff ff 	mov    %rax,-0x1740(%rbp)
    d2ee:	48 8d 05 83 75 01 00 	lea    0x17583(%rip),%rax        # 24878 <g_370>
    d2f5:	48 89 85 c0 f8 ff ff 	mov    %rax,-0x740(%rbp)
    d2fc:	48 8d 85 ac e3 ff ff 	lea    -0x1c54(%rbp),%rax
    d303:	48 89 85 c8 f8 ff ff 	mov    %rax,-0x738(%rbp)
    d30a:	48 c7 85 d0 f8 ff ff 	movq   $0x0,-0x730(%rbp)
    d311:	00 00 00 00 
    d315:	48 8d 85 ec e3 ff ff 	lea    -0x1c14(%rbp),%rax
    d31c:	48 89 85 d8 f8 ff ff 	mov    %rax,-0x728(%rbp)
    d323:	48 c7 85 e0 f8 ff ff 	movq   $0x0,-0x720(%rbp)
    d32a:	00 00 00 00 
    d32e:	48 c7 85 e8 f8 ff ff 	movq   $0x0,-0x718(%rbp)
    d335:	00 00 00 00 
    d339:	48 c7 85 f0 f8 ff ff 	movq   $0x0,-0x710(%rbp)
    d340:	00 00 00 00 
    d344:	48 8d 85 0c e4 ff ff 	lea    -0x1bf4(%rbp),%rax
    d34b:	48 89 85 f8 f8 ff ff 	mov    %rax,-0x708(%rbp)
    d352:	48 8d 85 d0 e3 ff ff 	lea    -0x1c30(%rbp),%rax
    d359:	48 89 85 00 f9 ff ff 	mov    %rax,-0x700(%rbp)
    d360:	48 c7 85 08 f9 ff ff 	movq   $0x0,-0x6f8(%rbp)
    d367:	00 00 00 00 
    d36b:	48 8d 85 d8 e3 ff ff 	lea    -0x1c28(%rbp),%rax
    d372:	48 89 85 10 f9 ff ff 	mov    %rax,-0x6f0(%rbp)
    d379:	48 8d 85 04 e4 ff ff 	lea    -0x1bfc(%rbp),%rax
    d380:	48 89 85 18 f9 ff ff 	mov    %rax,-0x6e8(%rbp)
    d387:	48 8d 85 0c e4 ff ff 	lea    -0x1bf4(%rbp),%rax
    d38e:	48 89 85 20 f9 ff ff 	mov    %rax,-0x6e0(%rbp)
    d395:	48 c7 85 28 f9 ff ff 	movq   $0x0,-0x6d8(%rbp)
    d39c:	00 00 00 00 
    d3a0:	48 8d 85 0c e4 ff ff 	lea    -0x1bf4(%rbp),%rax
    d3a7:	48 89 85 30 f9 ff ff 	mov    %rax,-0x6d0(%rbp)
    d3ae:	48 8d 05 77 77 01 00 	lea    0x17777(%rip),%rax        # 24b2c <g_3411>
    d3b5:	48 89 85 38 f9 ff ff 	mov    %rax,-0x6c8(%rbp)
    d3bc:	48 8d 85 04 e4 ff ff 	lea    -0x1bfc(%rbp),%rax
    d3c3:	48 89 85 40 f9 ff ff 	mov    %rax,-0x6c0(%rbp)
    d3ca:	48 c7 85 48 f9 ff ff 	movq   $0x0,-0x6b8(%rbp)
    d3d1:	00 00 00 00 
    d3d5:	48 8d 85 ec e3 ff ff 	lea    -0x1c14(%rbp),%rax
    d3dc:	48 89 85 50 f9 ff ff 	mov    %rax,-0x6b0(%rbp)
    d3e3:	48 8d 85 fc e3 ff ff 	lea    -0x1c04(%rbp),%rax
    d3ea:	48 89 85 58 f9 ff ff 	mov    %rax,-0x6a8(%rbp)
    d3f1:	48 8d 85 e4 e3 ff ff 	lea    -0x1c1c(%rbp),%rax
    d3f8:	48 89 85 60 f9 ff ff 	mov    %rax,-0x6a0(%rbp)
    d3ff:	48 8d 85 d8 e3 ff ff 	lea    -0x1c28(%rbp),%rax
    d406:	48 89 85 68 f9 ff ff 	mov    %rax,-0x698(%rbp)
    d40d:	48 8d 85 ac e3 ff ff 	lea    -0x1c54(%rbp),%rax
    d414:	48 89 85 70 f9 ff ff 	mov    %rax,-0x690(%rbp)
    d41b:	48 c7 85 78 f9 ff ff 	movq   $0x0,-0x688(%rbp)
    d422:	00 00 00 00 
    d426:	48 8d 85 00 e9 ff ff 	lea    -0x1700(%rbp),%rax
    d42d:	48 83 c0 18          	add    $0x18,%rax
    d431:	48 89 85 80 f9 ff ff 	mov    %rax,-0x680(%rbp)
    d438:	48 8d 05 31 74 01 00 	lea    0x17431(%rip),%rax        # 24870 <g_355>
    d43f:	48 89 85 88 f9 ff ff 	mov    %rax,-0x678(%rbp)
    d446:	48 8d 85 ac e3 ff ff 	lea    -0x1c54(%rbp),%rax
    d44d:	48 89 85 90 f9 ff ff 	mov    %rax,-0x670(%rbp)
    d454:	48 c7 85 98 f9 ff ff 	movq   $0x0,-0x668(%rbp)
    d45b:	00 00 00 00 
    d45f:	48 8d 85 e4 e3 ff ff 	lea    -0x1c1c(%rbp),%rax
    d466:	48 89 85 a0 f9 ff ff 	mov    %rax,-0x660(%rbp)
    d46d:	48 c7 85 a8 f9 ff ff 	movq   $0x0,-0x658(%rbp)
    d474:	00 00 00 00 
    d478:	48 8d 85 ec e3 ff ff 	lea    -0x1c14(%rbp),%rax
    d47f:	48 89 85 b0 f9 ff ff 	mov    %rax,-0x650(%rbp)
    d486:	48 8d 85 ec e3 ff ff 	lea    -0x1c14(%rbp),%rax
    d48d:	48 89 85 b8 f9 ff ff 	mov    %rax,-0x648(%rbp)
    d494:	48 8d 85 04 e4 ff ff 	lea    -0x1bfc(%rbp),%rax
    d49b:	48 89 85 c0 f9 ff ff 	mov    %rax,-0x640(%rbp)
    d4a2:	48 c7 85 c8 f9 ff ff 	movq   $0x0,-0x638(%rbp)
    d4a9:	00 00 00 00 
    d4ad:	48 8d 85 0c e4 ff ff 	lea    -0x1bf4(%rbp),%rax
    d4b4:	48 89 85 d0 f9 ff ff 	mov    %rax,-0x630(%rbp)
    d4bb:	48 8d 85 e4 e3 ff ff 	lea    -0x1c1c(%rbp),%rax
    d4c2:	48 89 85 d8 f9 ff ff 	mov    %rax,-0x628(%rbp)
    d4c9:	48 8d 85 0c e4 ff ff 	lea    -0x1bf4(%rbp),%rax
    d4d0:	48 89 85 e0 f9 ff ff 	mov    %rax,-0x620(%rbp)
    d4d7:	48 8d 85 e4 e3 ff ff 	lea    -0x1c1c(%rbp),%rax
    d4de:	48 89 85 e8 f9 ff ff 	mov    %rax,-0x618(%rbp)
    d4e5:	48 8d 85 d8 e3 ff ff 	lea    -0x1c28(%rbp),%rax
    d4ec:	48 89 85 f0 f9 ff ff 	mov    %rax,-0x610(%rbp)
    d4f3:	48 8d 85 d4 e3 ff ff 	lea    -0x1c2c(%rbp),%rax
    d4fa:	48 89 85 f8 f9 ff ff 	mov    %rax,-0x608(%rbp)
    d501:	48 8d 85 d0 e3 ff ff 	lea    -0x1c30(%rbp),%rax
    d508:	48 89 85 00 fa ff ff 	mov    %rax,-0x600(%rbp)
    d50f:	48 8d 85 d8 e3 ff ff 	lea    -0x1c28(%rbp),%rax
    d516:	48 89 85 08 fa ff ff 	mov    %rax,-0x5f8(%rbp)
    d51d:	48 c7 85 10 fa ff ff 	movq   $0x0,-0x5f0(%rbp)
    d524:	00 00 00 00 
    d528:	48 8d 85 d0 e3 ff ff 	lea    -0x1c30(%rbp),%rax
    d52f:	48 89 85 18 fa ff ff 	mov    %rax,-0x5e8(%rbp)
    d536:	48 c7 85 20 fa ff ff 	movq   $0x0,-0x5e0(%rbp)
    d53d:	00 00 00 00 
    d541:	48 8d 85 04 e4 ff ff 	lea    -0x1bfc(%rbp),%rax
    d548:	48 89 85 28 fa ff ff 	mov    %rax,-0x5d8(%rbp)
    d54f:	48 c7 85 30 fa ff ff 	movq   $0x0,-0x5d0(%rbp)
    d556:	00 00 00 00 
    d55a:	48 8d 85 f8 e3 ff ff 	lea    -0x1c08(%rbp),%rax
    d561:	48 89 85 38 fa ff ff 	mov    %rax,-0x5c8(%rbp)
    d568:	48 8d 05 09 73 01 00 	lea    0x17309(%rip),%rax        # 24878 <g_370>
    d56f:	48 89 85 40 fa ff ff 	mov    %rax,-0x5c0(%rbp)
    d576:	48 8d 85 b0 e3 ff ff 	lea    -0x1c50(%rbp),%rax
    d57d:	48 89 85 48 fa ff ff 	mov    %rax,-0x5b8(%rbp)
    d584:	48 8d 85 00 e4 ff ff 	lea    -0x1c00(%rbp),%rax
    d58b:	48 89 85 50 fa ff ff 	mov    %rax,-0x5b0(%rbp)
    d592:	48 c7 85 58 fa ff ff 	movq   $0x0,-0x5a8(%rbp)
    d599:	00 00 00 00 
    d59d:	48 8d 85 e4 e3 ff ff 	lea    -0x1c1c(%rbp),%rax
    d5a4:	48 89 85 60 fa ff ff 	mov    %rax,-0x5a0(%rbp)
    d5ab:	48 8d 85 dc e3 ff ff 	lea    -0x1c24(%rbp),%rax
    d5b2:	48 89 85 68 fa ff ff 	mov    %rax,-0x598(%rbp)
    d5b9:	48 8d 85 ac e3 ff ff 	lea    -0x1c54(%rbp),%rax
    d5c0:	48 89 85 70 fa ff ff 	mov    %rax,-0x590(%rbp)
    d5c7:	48 8d 85 00 e4 ff ff 	lea    -0x1c00(%rbp),%rax
    d5ce:	48 89 85 78 fa ff ff 	mov    %rax,-0x588(%rbp)
    d5d5:	48 8d 85 20 ee ff ff 	lea    -0x11e0(%rbp),%rax
    d5dc:	48 83 c0 60          	add    $0x60,%rax
    d5e0:	48 89 85 80 fa ff ff 	mov    %rax,-0x580(%rbp)
    d5e7:	48 8d 85 d8 e3 ff ff 	lea    -0x1c28(%rbp),%rax
    d5ee:	48 89 85 88 fa ff ff 	mov    %rax,-0x578(%rbp)
    d5f5:	48 8d 85 c0 e3 ff ff 	lea    -0x1c40(%rbp),%rax
    d5fc:	48 89 85 90 fa ff ff 	mov    %rax,-0x570(%rbp)
    d603:	48 8d 85 f8 e3 ff ff 	lea    -0x1c08(%rbp),%rax
    d60a:	48 89 85 98 fa ff ff 	mov    %rax,-0x568(%rbp)
    d611:	48 c7 85 a0 fa ff ff 	movq   $0x0,-0x560(%rbp)
    d618:	00 00 00 00 
    d61c:	48 8d 85 c4 e3 ff ff 	lea    -0x1c3c(%rbp),%rax
    d623:	48 89 85 a8 fa ff ff 	mov    %rax,-0x558(%rbp)
    d62a:	48 c7 85 b0 fa ff ff 	movq   $0x0,-0x550(%rbp)
    d631:	00 00 00 00 
    d635:	48 8d 85 00 e4 ff ff 	lea    -0x1c00(%rbp),%rax
    d63c:	48 89 85 b8 fa ff ff 	mov    %rax,-0x548(%rbp)
    d643:	48 c7 85 c0 fa ff ff 	movq   $0x0,-0x540(%rbp)
    d64a:	00 00 00 00 
    d64e:	48 8d 85 d8 e3 ff ff 	lea    -0x1c28(%rbp),%rax
    d655:	48 89 85 c8 fa ff ff 	mov    %rax,-0x538(%rbp)
    d65c:	48 8d 85 d8 e3 ff ff 	lea    -0x1c28(%rbp),%rax
    d663:	48 89 85 d0 fa ff ff 	mov    %rax,-0x530(%rbp)
    d66a:	48 c7 85 d8 fa ff ff 	movq   $0x0,-0x528(%rbp)
    d671:	00 00 00 00 
    d675:	48 8d 05 f4 71 01 00 	lea    0x171f4(%rip),%rax        # 24870 <g_355>
    d67c:	48 89 85 e0 fa ff ff 	mov    %rax,-0x520(%rbp)
    d683:	48 c7 85 e8 fa ff ff 	movq   $0x0,-0x518(%rbp)
    d68a:	00 00 00 00 
    d68e:	48 c7 85 f0 fa ff ff 	movq   $0x0,-0x510(%rbp)
    d695:	00 00 00 00 
    d699:	48 8d 85 e4 e3 ff ff 	lea    -0x1c1c(%rbp),%rax
    d6a0:	48 89 85 f8 fa ff ff 	mov    %rax,-0x508(%rbp)
    d6a7:	48 8d 05 c2 71 01 00 	lea    0x171c2(%rip),%rax        # 24870 <g_355>
    d6ae:	48 89 85 00 fb ff ff 	mov    %rax,-0x500(%rbp)
    d6b5:	48 8d 85 00 e4 ff ff 	lea    -0x1c00(%rbp),%rax
    d6bc:	48 89 85 08 fb ff ff 	mov    %rax,-0x4f8(%rbp)
    d6c3:	48 8d 85 bc e3 ff ff 	lea    -0x1c44(%rbp),%rax
    d6ca:	48 89 85 10 fb ff ff 	mov    %rax,-0x4f0(%rbp)
    d6d1:	48 c7 85 18 fb ff ff 	movq   $0x0,-0x4e8(%rbp)
    d6d8:	00 00 00 00 
    d6dc:	48 8d 85 fc e3 ff ff 	lea    -0x1c04(%rbp),%rax
    d6e3:	48 89 85 20 fb ff ff 	mov    %rax,-0x4e0(%rbp)
    d6ea:	48 c7 85 28 fb ff ff 	movq   $0x0,-0x4d8(%rbp)
    d6f1:	00 00 00 00 
    d6f5:	48 8d 85 00 e9 ff ff 	lea    -0x1700(%rbp),%rax
    d6fc:	48 89 85 30 fb ff ff 	mov    %rax,-0x4d0(%rbp)
    d703:	48 8d 85 d8 e3 ff ff 	lea    -0x1c28(%rbp),%rax
    d70a:	48 89 85 38 fb ff ff 	mov    %rax,-0x4c8(%rbp)
    d711:	48 c7 85 40 fb ff ff 	movq   $0x0,-0x4c0(%rbp)
    d718:	00 00 00 00 
    d71c:	48 c7 85 48 fb ff ff 	movq   $0x0,-0x4b8(%rbp)
    d723:	00 00 00 00 
    d727:	48 c7 85 50 fb ff ff 	movq   $0x0,-0x4b0(%rbp)
    d72e:	00 00 00 00 
    d732:	48 c7 85 58 fb ff ff 	movq   $0x0,-0x4a8(%rbp)
    d739:	00 00 00 00 
    d73d:	48 8d 85 d4 e3 ff ff 	lea    -0x1c2c(%rbp),%rax
    d744:	48 89 85 60 fb ff ff 	mov    %rax,-0x4a0(%rbp)
    d74b:	48 8d 85 e4 e3 ff ff 	lea    -0x1c1c(%rbp),%rax
    d752:	48 89 85 68 fb ff ff 	mov    %rax,-0x498(%rbp)
    d759:	48 c7 85 70 fb ff ff 	movq   $0x0,-0x490(%rbp)
    d760:	00 00 00 00 
    d764:	48 c7 85 78 fb ff ff 	movq   $0x0,-0x488(%rbp)
    d76b:	00 00 00 00 
    d76f:	48 8d 85 fc e3 ff ff 	lea    -0x1c04(%rbp),%rax
    d776:	48 89 85 80 fb ff ff 	mov    %rax,-0x480(%rbp)
    d77d:	48 c7 85 88 fb ff ff 	movq   $0x0,-0x478(%rbp)
    d784:	00 00 00 00 
    d788:	48 8d 85 d8 e3 ff ff 	lea    -0x1c28(%rbp),%rax
    d78f:	48 89 85 90 fb ff ff 	mov    %rax,-0x470(%rbp)
    d796:	48 c7 85 98 fb ff ff 	movq   $0x0,-0x468(%rbp)
    d79d:	00 00 00 00 
    d7a1:	48 8d 85 b8 e3 ff ff 	lea    -0x1c48(%rbp),%rax
    d7a8:	48 89 85 a0 fb ff ff 	mov    %rax,-0x460(%rbp)
    d7af:	48 8d 85 dc e3 ff ff 	lea    -0x1c24(%rbp),%rax
    d7b6:	48 89 85 a8 fb ff ff 	mov    %rax,-0x458(%rbp)
    d7bd:	48 c7 85 b0 fb ff ff 	movq   $0x0,-0x450(%rbp)
    d7c4:	00 00 00 00 
    d7c8:	48 8d 85 04 e4 ff ff 	lea    -0x1bfc(%rbp),%rax
    d7cf:	48 89 85 b8 fb ff ff 	mov    %rax,-0x448(%rbp)
    d7d6:	48 c7 85 c0 fb ff ff 	movq   $0x0,-0x440(%rbp)
    d7dd:	00 00 00 00 
    d7e1:	48 c7 85 c8 fb ff ff 	movq   $0x0,-0x438(%rbp)
    d7e8:	00 00 00 00 
    d7ec:	48 8d 85 fc e3 ff ff 	lea    -0x1c04(%rbp),%rax
    d7f3:	48 89 85 d0 fb ff ff 	mov    %rax,-0x430(%rbp)
    d7fa:	48 8d 85 fc e3 ff ff 	lea    -0x1c04(%rbp),%rax
    d801:	48 89 85 d8 fb ff ff 	mov    %rax,-0x428(%rbp)
    d808:	48 c7 85 e0 fb ff ff 	movq   $0x0,-0x420(%rbp)
    d80f:	00 00 00 00 
    d813:	48 c7 85 e8 fb ff ff 	movq   $0x0,-0x418(%rbp)
    d81a:	00 00 00 00 
    d81e:	48 8d 05 53 70 01 00 	lea    0x17053(%rip),%rax        # 24878 <g_370>
    d825:	48 89 85 f0 fb ff ff 	mov    %rax,-0x410(%rbp)
    d82c:	48 c7 85 f8 fb ff ff 	movq   $0x0,-0x408(%rbp)
    d833:	00 00 00 00 
    d837:	48 8d 85 d8 e3 ff ff 	lea    -0x1c28(%rbp),%rax
    d83e:	48 89 85 00 fc ff ff 	mov    %rax,-0x400(%rbp)
    d845:	48 8d 85 0c e4 ff ff 	lea    -0x1bf4(%rbp),%rax
    d84c:	48 89 85 08 fc ff ff 	mov    %rax,-0x3f8(%rbp)
    d853:	48 8d 85 c0 e3 ff ff 	lea    -0x1c40(%rbp),%rax
    d85a:	48 89 85 10 fc ff ff 	mov    %rax,-0x3f0(%rbp)
    d861:	48 8d 85 c4 e3 ff ff 	lea    -0x1c3c(%rbp),%rax
    d868:	48 89 85 18 fc ff ff 	mov    %rax,-0x3e8(%rbp)
    d86f:	48 c7 85 20 fc ff ff 	movq   $0x0,-0x3e0(%rbp)
    d876:	00 00 00 00 
    d87a:	48 8d 85 ec e3 ff ff 	lea    -0x1c14(%rbp),%rax
    d881:	48 89 85 28 fc ff ff 	mov    %rax,-0x3d8(%rbp)
    d888:	48 c7 85 30 fc ff ff 	movq   $0x0,-0x3d0(%rbp)
    d88f:	00 00 00 00 
    d893:	48 8d 85 c0 e3 ff ff 	lea    -0x1c40(%rbp),%rax
    d89a:	48 89 85 38 fc ff ff 	mov    %rax,-0x3c8(%rbp)
    d8a1:	48 8d 85 e4 e3 ff ff 	lea    -0x1c1c(%rbp),%rax
    d8a8:	48 89 85 40 fc ff ff 	mov    %rax,-0x3c0(%rbp)
    d8af:	48 8d 85 ec e3 ff ff 	lea    -0x1c14(%rbp),%rax
    d8b6:	48 89 85 48 fc ff ff 	mov    %rax,-0x3b8(%rbp)
    d8bd:	48 c7 85 50 fc ff ff 	movq   $0x0,-0x3b0(%rbp)
    d8c4:	00 00 00 00 
    d8c8:	48 8d 85 c4 e3 ff ff 	lea    -0x1c3c(%rbp),%rax
    d8cf:	48 89 85 58 fc ff ff 	mov    %rax,-0x3a8(%rbp)
    d8d6:	48 8d 85 ec e3 ff ff 	lea    -0x1c14(%rbp),%rax
    d8dd:	48 89 85 60 fc ff ff 	mov    %rax,-0x3a0(%rbp)
    d8e4:	48 8d 85 0c e4 ff ff 	lea    -0x1bf4(%rbp),%rax
    d8eb:	48 89 85 68 fc ff ff 	mov    %rax,-0x398(%rbp)
    d8f2:	48 c7 85 70 fc ff ff 	movq   $0x0,-0x390(%rbp)
    d8f9:	00 00 00 00 
    d8fd:	48 c7 85 78 fc ff ff 	movq   $0x0,-0x388(%rbp)
    d904:	00 00 00 00 
    d908:	48 8d 05 69 6f 01 00 	lea    0x16f69(%rip),%rax        # 24878 <g_370>
    d90f:	48 89 85 80 fc ff ff 	mov    %rax,-0x380(%rbp)
    d916:	48 c7 85 88 fc ff ff 	movq   $0x0,-0x378(%rbp)
    d91d:	00 00 00 00 
    d921:	48 c7 85 90 fc ff ff 	movq   $0x0,-0x370(%rbp)
    d928:	00 00 00 00 
    d92c:	48 8d 85 fc e3 ff ff 	lea    -0x1c04(%rbp),%rax
    d933:	48 89 85 98 fc ff ff 	mov    %rax,-0x368(%rbp)
    d93a:	48 8d 85 d0 e3 ff ff 	lea    -0x1c30(%rbp),%rax
    d941:	48 89 85 a0 fc ff ff 	mov    %rax,-0x360(%rbp)
    d948:	48 c7 85 a8 fc ff ff 	movq   $0x0,-0x358(%rbp)
    d94f:	00 00 00 00 
    d953:	48 8d 85 20 ee ff ff 	lea    -0x11e0(%rbp),%rax
    d95a:	48 83 c0 60          	add    $0x60,%rax
    d95e:	48 89 85 b0 fc ff ff 	mov    %rax,-0x350(%rbp)
    d965:	48 8d 85 04 e4 ff ff 	lea    -0x1bfc(%rbp),%rax
    d96c:	48 89 85 b8 fc ff ff 	mov    %rax,-0x348(%rbp)
    d973:	48 8d 85 ac e3 ff ff 	lea    -0x1c54(%rbp),%rax
    d97a:	48 89 85 c0 fc ff ff 	mov    %rax,-0x340(%rbp)
    d981:	48 8d 85 dc e3 ff ff 	lea    -0x1c24(%rbp),%rax
    d988:	48 89 85 c8 fc ff ff 	mov    %rax,-0x338(%rbp)
    d98f:	48 8d 85 0c e4 ff ff 	lea    -0x1bf4(%rbp),%rax
    d996:	48 89 85 d0 fc ff ff 	mov    %rax,-0x330(%rbp)
    d99d:	48 c7 85 d8 fc ff ff 	movq   $0x0,-0x328(%rbp)
    d9a4:	00 00 00 00 
    d9a8:	48 c7 85 e0 fc ff ff 	movq   $0x0,-0x320(%rbp)
    d9af:	00 00 00 00 
    d9b3:	48 c7 85 e8 fc ff ff 	movq   $0x0,-0x318(%rbp)
    d9ba:	00 00 00 00 
    d9be:	48 c7 85 f0 fc ff ff 	movq   $0x0,-0x310(%rbp)
    d9c5:	00 00 00 00 
    d9c9:	48 c7 85 f8 fc ff ff 	movq   $0x0,-0x308(%rbp)
    d9d0:	00 00 00 00 
    d9d4:	48 8d 85 e4 e3 ff ff 	lea    -0x1c1c(%rbp),%rax
    d9db:	48 89 85 00 fd ff ff 	mov    %rax,-0x300(%rbp)
    d9e2:	48 8d 85 e4 e3 ff ff 	lea    -0x1c1c(%rbp),%rax
    d9e9:	48 89 85 08 fd ff ff 	mov    %rax,-0x2f8(%rbp)
    d9f0:	48 8d 85 c8 e3 ff ff 	lea    -0x1c38(%rbp),%rax
    d9f7:	48 89 85 10 fd ff ff 	mov    %rax,-0x2f0(%rbp)
    d9fe:	48 8d 05 73 6e 01 00 	lea    0x16e73(%rip),%rax        # 24878 <g_370>
    da05:	48 89 85 18 fd ff ff 	mov    %rax,-0x2e8(%rbp)
    da0c:	48 8d 05 5d 6e 01 00 	lea    0x16e5d(%rip),%rax        # 24870 <g_355>
    da13:	48 89 85 20 fd ff ff 	mov    %rax,-0x2e0(%rbp)
    da1a:	48 8d 85 d8 e3 ff ff 	lea    -0x1c28(%rbp),%rax
    da21:	48 89 85 28 fd ff ff 	mov    %rax,-0x2d8(%rbp)
    da28:	48 c7 85 30 fd ff ff 	movq   $0x0,-0x2d0(%rbp)
    da2f:	00 00 00 00 
    da33:	48 8d 85 d4 e3 ff ff 	lea    -0x1c2c(%rbp),%rax
    da3a:	48 89 85 38 fd ff ff 	mov    %rax,-0x2c8(%rbp)
    da41:	48 8d 85 cc e3 ff ff 	lea    -0x1c34(%rbp),%rax
    da48:	48 89 85 40 fd ff ff 	mov    %rax,-0x2c0(%rbp)
    da4f:	48 8d 85 d8 e3 ff ff 	lea    -0x1c28(%rbp),%rax
    da56:	48 89 85 48 fd ff ff 	mov    %rax,-0x2b8(%rbp)
    da5d:	48 8d 85 d8 e3 ff ff 	lea    -0x1c28(%rbp),%rax
    da64:	48 89 85 50 fd ff ff 	mov    %rax,-0x2b0(%rbp)
    da6b:	48 c7 85 58 fd ff ff 	movq   $0x0,-0x2a8(%rbp)
    da72:	00 00 00 00 
    da76:	48 8d 85 ac e3 ff ff 	lea    -0x1c54(%rbp),%rax
    da7d:	48 89 85 60 fd ff ff 	mov    %rax,-0x2a0(%rbp)
    da84:	48 8d 85 0c e4 ff ff 	lea    -0x1bf4(%rbp),%rax
    da8b:	48 89 85 68 fd ff ff 	mov    %rax,-0x298(%rbp)
    da92:	48 c7 85 70 fd ff ff 	movq   $0x0,-0x290(%rbp)
    da99:	00 00 00 00 
    da9d:	48 8d 85 00 e9 ff ff 	lea    -0x1700(%rbp),%rax
    daa4:	48 83 c0 18          	add    $0x18,%rax
    daa8:	48 89 85 78 fd ff ff 	mov    %rax,-0x288(%rbp)
    daaf:	48 8d 85 d8 e3 ff ff 	lea    -0x1c28(%rbp),%rax
    dab6:	48 89 85 80 fd ff ff 	mov    %rax,-0x280(%rbp)
    dabd:	48 8d 85 cc e3 ff ff 	lea    -0x1c34(%rbp),%rax
    dac4:	48 89 85 88 fd ff ff 	mov    %rax,-0x278(%rbp)
    dacb:	48 8d 85 d8 e3 ff ff 	lea    -0x1c28(%rbp),%rax
    dad2:	48 89 85 90 fd ff ff 	mov    %rax,-0x270(%rbp)
    dad9:	48 8d 85 ec e3 ff ff 	lea    -0x1c14(%rbp),%rax
    dae0:	48 89 85 98 fd ff ff 	mov    %rax,-0x268(%rbp)
    dae7:	48 8d 85 20 ee ff ff 	lea    -0x11e0(%rbp),%rax
    daee:	48 83 c0 60          	add    $0x60,%rax
    daf2:	48 89 85 a0 fd ff ff 	mov    %rax,-0x260(%rbp)
    daf9:	48 8d 85 d4 e3 ff ff 	lea    -0x1c2c(%rbp),%rax
    db00:	48 89 85 a8 fd ff ff 	mov    %rax,-0x258(%rbp)
    db07:	48 8d 85 bc e3 ff ff 	lea    -0x1c44(%rbp),%rax
    db0e:	48 89 85 b0 fd ff ff 	mov    %rax,-0x250(%rbp)
    db15:	48 8d 85 20 ee ff ff 	lea    -0x11e0(%rbp),%rax
    db1c:	48 83 c0 60          	add    $0x60,%rax
    db20:	48 89 85 b8 fd ff ff 	mov    %rax,-0x248(%rbp)
    db27:	48 c7 85 c0 fd ff ff 	movq   $0x0,-0x240(%rbp)
    db2e:	00 00 00 00 
    db32:	48 8d 85 c0 e3 ff ff 	lea    -0x1c40(%rbp),%rax
    db39:	48 89 85 c8 fd ff ff 	mov    %rax,-0x238(%rbp)
    db40:	48 8d 85 0c e4 ff ff 	lea    -0x1bf4(%rbp),%rax
    db47:	48 89 85 d0 fd ff ff 	mov    %rax,-0x230(%rbp)
    db4e:	48 c7 85 d8 fd ff ff 	movq   $0x0,-0x228(%rbp)
    db55:	00 00 00 00 
    db59:	48 c7 85 e0 fd ff ff 	movq   $0x0,-0x220(%rbp)
    db60:	00 00 00 00 
    db64:	48 8d 85 d8 e3 ff ff 	lea    -0x1c28(%rbp),%rax
    db6b:	48 89 85 e8 fd ff ff 	mov    %rax,-0x218(%rbp)
    db72:	48 8d 85 20 ee ff ff 	lea    -0x11e0(%rbp),%rax
    db79:	48 83 c0 60          	add    $0x60,%rax
    db7d:	48 89 85 f0 fd ff ff 	mov    %rax,-0x210(%rbp)
    db84:	48 8d 85 0c e4 ff ff 	lea    -0x1bf4(%rbp),%rax
    db8b:	48 89 85 f8 fd ff ff 	mov    %rax,-0x208(%rbp)
    db92:	48 8d 85 ac e3 ff ff 	lea    -0x1c54(%rbp),%rax
    db99:	48 89 85 00 fe ff ff 	mov    %rax,-0x200(%rbp)
    dba0:	48 8d 05 85 6f 01 00 	lea    0x16f85(%rip),%rax        # 24b2c <g_3411>
    dba7:	48 89 85 08 fe ff ff 	mov    %rax,-0x1f8(%rbp)
    dbae:	48 8d 85 cc e3 ff ff 	lea    -0x1c34(%rbp),%rax
    dbb5:	48 89 85 10 fe ff ff 	mov    %rax,-0x1f0(%rbp)
    dbbc:	48 8d 85 b8 e3 ff ff 	lea    -0x1c48(%rbp),%rax
    dbc3:	48 89 85 18 fe ff ff 	mov    %rax,-0x1e8(%rbp)
    dbca:	48 c7 85 20 fe ff ff 	movq   $0x0,-0x1e0(%rbp)
    dbd1:	00 00 00 00 
    dbd5:	48 8d 85 bc e3 ff ff 	lea    -0x1c44(%rbp),%rax
    dbdc:	48 89 85 28 fe ff ff 	mov    %rax,-0x1d8(%rbp)
    dbe3:	48 8d 85 d0 e3 ff ff 	lea    -0x1c30(%rbp),%rax
    dbea:	48 89 85 30 fe ff ff 	mov    %rax,-0x1d0(%rbp)
    dbf1:	48 c7 85 38 fe ff ff 	movq   $0x0,-0x1c8(%rbp)
    dbf8:	00 00 00 00 
    dbfc:	48 8d 85 d4 e3 ff ff 	lea    -0x1c2c(%rbp),%rax
    dc03:	48 89 85 40 fe ff ff 	mov    %rax,-0x1c0(%rbp)
    dc0a:	48 8d 85 08 e4 ff ff 	lea    -0x1bf8(%rbp),%rax
    dc11:	48 89 85 48 fe ff ff 	mov    %rax,-0x1b8(%rbp)
    dc18:	48 8d 85 ec e3 ff ff 	lea    -0x1c14(%rbp),%rax
    dc1f:	48 89 85 50 fe ff ff 	mov    %rax,-0x1b0(%rbp)
    dc26:	48 8d 85 d8 e3 ff ff 	lea    -0x1c28(%rbp),%rax
    dc2d:	48 89 85 58 fe ff ff 	mov    %rax,-0x1a8(%rbp)
    dc34:	48 8d 85 0c e4 ff ff 	lea    -0x1bf4(%rbp),%rax
    dc3b:	48 89 85 60 fe ff ff 	mov    %rax,-0x1a0(%rbp)
    dc42:	48 8d 85 d4 e3 ff ff 	lea    -0x1c2c(%rbp),%rax
    dc49:	48 89 85 68 fe ff ff 	mov    %rax,-0x198(%rbp)
    dc50:	48 8d 85 e4 e3 ff ff 	lea    -0x1c1c(%rbp),%rax
    dc57:	48 89 85 70 fe ff ff 	mov    %rax,-0x190(%rbp)
    dc5e:	48 8d 85 e4 e3 ff ff 	lea    -0x1c1c(%rbp),%rax
    dc65:	48 89 85 78 fe ff ff 	mov    %rax,-0x188(%rbp)
    dc6c:	48 c7 85 80 fe ff ff 	movq   $0x0,-0x180(%rbp)
    dc73:	00 00 00 00 
    dc77:	48 8d 85 00 e9 ff ff 	lea    -0x1700(%rbp),%rax
    dc7e:	48 83 c0 18          	add    $0x18,%rax
    dc82:	48 89 85 88 fe ff ff 	mov    %rax,-0x178(%rbp)
    dc89:	48 8d 85 c4 e3 ff ff 	lea    -0x1c3c(%rbp),%rax
    dc90:	48 89 85 90 fe ff ff 	mov    %rax,-0x170(%rbp)
    dc97:	48 8d 85 00 e9 ff ff 	lea    -0x1700(%rbp),%rax
    dc9e:	48 83 c0 18          	add    $0x18,%rax
    dca2:	48 89 85 98 fe ff ff 	mov    %rax,-0x168(%rbp)
    dca9:	48 8d 85 dc e3 ff ff 	lea    -0x1c24(%rbp),%rax
    dcb0:	48 89 85 a0 fe ff ff 	mov    %rax,-0x160(%rbp)
    dcb7:	48 8d 85 b8 e3 ff ff 	lea    -0x1c48(%rbp),%rax
    dcbe:	48 89 85 a8 fe ff ff 	mov    %rax,-0x158(%rbp)
    dcc5:	48 8d 85 f4 e3 ff ff 	lea    -0x1c0c(%rbp),%rax
    dccc:	48 89 85 b0 fe ff ff 	mov    %rax,-0x150(%rbp)
    dcd3:	48 c7 85 b8 fe ff ff 	movq   $0x0,-0x148(%rbp)
    dcda:	00 00 00 00 
    dcde:	48 c7 85 c0 fe ff ff 	movq   $0x0,-0x140(%rbp)
    dce5:	00 00 00 00 
    dce9:	48 8d 85 d8 e3 ff ff 	lea    -0x1c28(%rbp),%rax
    dcf0:	48 89 85 c8 fe ff ff 	mov    %rax,-0x138(%rbp)
    dcf7:	48 c7 85 d0 fe ff ff 	movq   $0x0,-0x130(%rbp)
    dcfe:	00 00 00 00 
    dd02:	48 8d 85 bc e3 ff ff 	lea    -0x1c44(%rbp),%rax
    dd09:	48 89 85 d8 fe ff ff 	mov    %rax,-0x128(%rbp)
    dd10:	48 8d 85 ec e3 ff ff 	lea    -0x1c14(%rbp),%rax
    dd17:	48 89 85 e0 fe ff ff 	mov    %rax,-0x120(%rbp)
    dd1e:	48 c7 85 e8 fe ff ff 	movq   $0x0,-0x118(%rbp)
    dd25:	00 00 00 00 
    dd29:	48 8d 85 ac e3 ff ff 	lea    -0x1c54(%rbp),%rax
    dd30:	48 89 85 f0 fe ff ff 	mov    %rax,-0x110(%rbp)
    dd37:	48 8d 05 3a 6b 01 00 	lea    0x16b3a(%rip),%rax        # 24878 <g_370>
    dd3e:	48 89 85 f8 fe ff ff 	mov    %rax,-0x108(%rbp)
    dd45:	48 8d 85 ec e3 ff ff 	lea    -0x1c14(%rbp),%rax
    dd4c:	48 89 85 00 ff ff ff 	mov    %rax,-0x100(%rbp)
    dd53:	48 8d 85 ac e3 ff ff 	lea    -0x1c54(%rbp),%rax
    dd5a:	48 89 85 08 ff ff ff 	mov    %rax,-0xf8(%rbp)
    dd61:	48 c7 85 10 ff ff ff 	movq   $0x0,-0xf0(%rbp)
    dd68:	00 00 00 00 
    dd6c:	48 c7 85 18 ff ff ff 	movq   $0x0,-0xe8(%rbp)
    dd73:	00 00 00 00 
    dd77:	48 c7 85 20 ff ff ff 	movq   $0x0,-0xe0(%rbp)
    dd7e:	00 00 00 00 
    dd82:	48 8d 05 ef 6a 01 00 	lea    0x16aef(%rip),%rax        # 24878 <g_370>
    dd89:	48 89 85 28 ff ff ff 	mov    %rax,-0xd8(%rbp)
    dd90:	48 8d 85 f4 e3 ff ff 	lea    -0x1c0c(%rbp),%rax
    dd97:	48 89 85 30 ff ff ff 	mov    %rax,-0xd0(%rbp)
    dd9e:	48 8d 85 0c e4 ff ff 	lea    -0x1bf4(%rbp),%rax
    dda5:	48 89 85 38 ff ff ff 	mov    %rax,-0xc8(%rbp)
    ddac:	48 8d 85 dc e3 ff ff 	lea    -0x1c24(%rbp),%rax
    ddb3:	48 89 85 40 ff ff ff 	mov    %rax,-0xc0(%rbp)
    ddba:	48 8d 85 fc e3 ff ff 	lea    -0x1c04(%rbp),%rax
    ddc1:	48 89 85 48 ff ff ff 	mov    %rax,-0xb8(%rbp)
    ddc8:	48 8d 85 c4 e3 ff ff 	lea    -0x1c3c(%rbp),%rax
    ddcf:	48 89 85 50 ff ff ff 	mov    %rax,-0xb0(%rbp)
    ddd6:	48 8d 85 ac e3 ff ff 	lea    -0x1c54(%rbp),%rax
    dddd:	48 89 85 58 ff ff ff 	mov    %rax,-0xa8(%rbp)
    dde4:	48 c7 85 60 ff ff ff 	movq   $0x0,-0xa0(%rbp)
    ddeb:	00 00 00 00 
    ddef:	48 c7 85 68 ff ff ff 	movq   $0x0,-0x98(%rbp)
    ddf6:	00 00 00 00 
    ddfa:	48 8d 85 e4 e3 ff ff 	lea    -0x1c1c(%rbp),%rax
    de01:	48 89 85 70 ff ff ff 	mov    %rax,-0x90(%rbp)
    de08:	48 8d 05 69 6a 01 00 	lea    0x16a69(%rip),%rax        # 24878 <g_370>
    de0f:	48 89 85 78 ff ff ff 	mov    %rax,-0x88(%rbp)
    de16:	48 8d 85 0c e4 ff ff 	lea    -0x1bf4(%rbp),%rax
    de1d:	48 89 45 80          	mov    %rax,-0x80(%rbp)
    de21:	48 8d 05 48 6a 01 00 	lea    0x16a48(%rip),%rax        # 24870 <g_355>
    de28:	48 89 45 88          	mov    %rax,-0x78(%rbp)
    de2c:	48 8d 85 ec e3 ff ff 	lea    -0x1c14(%rbp),%rax
    de33:	48 89 45 90          	mov    %rax,-0x70(%rbp)
    de37:	48 c7 45 98 00 00 00 	movq   $0x0,-0x68(%rbp)
    de3e:	00 
    de3f:	48 8d 85 d4 e3 ff ff 	lea    -0x1c2c(%rbp),%rax
    de46:	48 89 45 a0          	mov    %rax,-0x60(%rbp)
    de4a:	48 8d 85 d8 e3 ff ff 	lea    -0x1c28(%rbp),%rax
    de51:	48 89 45 a8          	mov    %rax,-0x58(%rbp)
    de55:	48 8d 85 d0 e3 ff ff 	lea    -0x1c30(%rbp),%rax
    de5c:	48 89 45 b0          	mov    %rax,-0x50(%rbp)
    de60:	48 8d 85 c0 e3 ff ff 	lea    -0x1c40(%rbp),%rax
    de67:	48 89 45 b8          	mov    %rax,-0x48(%rbp)
    de6b:	66 c7 85 aa e3 ff ff 	movw   $0xffff,-0x1c56(%rbp)
    de72:	ff ff 
    de74:	48 b8 4b 07 3e d6 99 	movabs $0xe47b8499d63e074b,%rax
    de7b:	84 7b e4 
    de7e:	48 89 85 c8 e8 ff ff 	mov    %rax,-0x1738(%rbp)
    de85:	c7 85 5c e5 ff ff ff 	movl   $0xffffffff,-0x1aa4(%rbp)
    de8c:	ff ff ff 
    de8f:	c7 85 30 eb ff ff c0 	movl   $0xf7cc6bc0,-0x14d0(%rbp)
    de96:	6b cc f7 
    de99:	c7 85 34 eb ff ff ff 	movl   $0xffffffff,-0x14cc(%rbp)
    dea0:	ff ff ff 
    dea3:	c7 85 38 eb ff ff ff 	movl   $0xffffffff,-0x14c8(%rbp)
    deaa:	ff ff ff 
    dead:	c7 85 3c eb ff ff c0 	movl   $0xf7cc6bc0,-0x14c4(%rbp)
    deb4:	6b cc f7 
    deb7:	c7 85 40 eb ff ff ff 	movl   $0xffffffff,-0x14c0(%rbp)
    debe:	ff ff ff 
    dec1:	c7 85 44 eb ff ff ff 	movl   $0xffffffff,-0x14bc(%rbp)
    dec8:	ff ff ff 
    decb:	c7 85 48 eb ff ff c0 	movl   $0xf7cc6bc0,-0x14b8(%rbp)
    ded2:	6b cc f7 
    ded5:	c7 85 4c eb ff ff ff 	movl   $0xffffffff,-0x14b4(%rbp)
    dedc:	ff ff ff 
    dedf:	c7 85 50 eb ff ff ff 	movl   $0xffffffff,-0x14b0(%rbp)
    dee6:	ff ff ff 
    dee9:	c7 85 54 eb ff ff c0 	movl   $0xf7cc6bc0,-0x14ac(%rbp)
    def0:	6b cc f7 
    def3:	c7 85 58 eb ff ff ff 	movl   $0xffffffff,-0x14a8(%rbp)
    defa:	ff ff ff 
    defd:	c7 85 5c eb ff ff ff 	movl   $0xffffffff,-0x14a4(%rbp)
    df04:	ff ff ff 
    df07:	8b 85 34 eb ff ff    	mov    -0x14cc(%rbp),%eax
    df0d:	83 c0 01             	add    $0x1,%eax
    df10:	89 85 34 eb ff ff    	mov    %eax,-0x14cc(%rbp)
    df16:	e9 74 02 00 00       	jmpq   e18f <func_2+0x4553>
    df1b:	48 8d 85 f4 e3 ff ff 	lea    -0x1c0c(%rbp),%rax
    df22:	48 89 85 88 e8 ff ff 	mov    %rax,-0x1778(%rbp)
    df29:	48 8d 05 c8 92 01 00 	lea    0x192c8(%rip),%rax        # 271f8 <g_710>
    df30:	48 89 85 90 e8 ff ff 	mov    %rax,-0x1770(%rbp)
    df37:	c6 85 93 e3 ff ff 01 	movb   $0x1,-0x1c6d(%rbp)
    df3e:	48 8b 85 88 e8 ff ff 	mov    -0x1778(%rbp),%rax
    df45:	48 89 05 4c a1 01 00 	mov    %rax,0x1a14c(%rip)        # 28098 <g_5787>
    df4c:	48 8b 05 fd 94 01 00 	mov    0x194fd(%rip),%rax        # 27450 <g_2275>
    df53:	48 8b 00             	mov    (%rax),%rax
    df56:	48 8b 95 90 e8 ff ff 	mov    -0x1770(%rbp),%rdx
    df5d:	48 89 10             	mov    %rdx,(%rax)
    df60:	c7 05 2e 69 01 00 17 	movl   $0x17,0x1692e(%rip)        # 24898 <g_989>
    df67:	00 00 00 
    df6a:	90                   	nop
    df6b:	8b 05 27 69 01 00    	mov    0x16927(%rip),%eax        # 24898 <g_989>
    df71:	83 f8 f9             	cmp    $0xfffffff9,%eax
    df74:	0f 8c 15 02 00 00    	jl     e18f <func_2+0x4553>
    df7a:	c7 85 58 e5 ff ff 00 	movl   $0x0,-0x1aa8(%rbp)
    df81:	00 00 00 
    df84:	c7 85 b8 e3 ff ff 01 	movl   $0x1,-0x1c48(%rbp)
    df8b:	00 00 00 
    df8e:	e9 e2 01 00 00       	jmpq   e175 <func_2+0x4539>
    df93:	66 c7 85 a8 e3 ff ff 	movw   $0xfff6,-0x1c58(%rbp)
    df9a:	f6 ff 
    df9c:	48 8b 85 a8 e5 ff ff 	mov    -0x1a58(%rbp),%rax
    dfa3:	44 8b 28             	mov    (%rax),%r13d
    dfa6:	44 0f bf b5 a8 e3 ff 	movswl -0x1c58(%rbp),%r14d
    dfad:	ff 
    dfae:	48 8b 85 58 e3 ff ff 	mov    -0x1ca8(%rbp),%rax
    dfb5:	41 89 c7             	mov    %eax,%r15d
    dfb8:	48 8b 05 a1 96 01 00 	mov    0x196a1(%rip),%rax        # 27660 <g_4156>
    dfbf:	48 8b 00             	mov    (%rax),%rax
    dfc2:	48 8b 00             	mov    (%rax),%rax
    dfc5:	0f b7 00             	movzwl (%rax),%eax
    dfc8:	0f bf d8             	movswl %ax,%ebx
    dfcb:	48 8b 85 58 e3 ff ff 	mov    -0x1ca8(%rbp),%rax
    dfd2:	89 85 54 e3 ff ff    	mov    %eax,-0x1cac(%rbp)
    dfd8:	48 8b 85 68 e5 ff ff 	mov    -0x1a98(%rbp),%rax
    dfdf:	8b 00                	mov    (%rax),%eax
    dfe1:	4c 63 e0             	movslq %eax,%r12
    dfe4:	0f b6 85 7c e3 ff ff 	movzbl -0x1c84(%rbp),%eax
    dfeb:	0f b6 c0             	movzbl %al,%eax
    dfee:	48 39 85 68 e3 ff ff 	cmp    %rax,-0x1c98(%rbp)
    dff5:	74 5a                	je     e051 <func_2+0x4415>
    dff7:	48 8b 85 68 e3 ff ff 	mov    -0x1c98(%rbp),%rax
    dffe:	0f b6 d0             	movzbl %al,%edx
    e001:	66 83 bd a8 e3 ff ff 	cmpw   $0x55,-0x1c58(%rbp)
    e008:	55 
    e009:	0f 9e c0             	setle  %al
    e00c:	0f b6 c0             	movzbl %al,%eax
    e00f:	48 39 85 68 e3 ff ff 	cmp    %rax,-0x1c98(%rbp)
    e016:	0f 94 c0             	sete   %al
    e019:	0f b6 c0             	movzbl %al,%eax
    e01c:	48 39 85 68 e3 ff ff 	cmp    %rax,-0x1c98(%rbp)
    e023:	0f 94 c0             	sete   %al
    e026:	0f b6 c0             	movzbl %al,%eax
    e029:	89 d6                	mov    %edx,%esi
    e02b:	89 c7                	mov    %eax,%edi
    e02d:	e8 61 ab ff ff       	callq  8b93 <safe_mul_func_uint8_t_u_u>
    e032:	0f b6 c0             	movzbl %al,%eax
    e035:	be 8a 85 a4 77       	mov    $0x77a4858a,%esi
    e03a:	89 c7                	mov    %eax,%edi
    e03c:	e8 8b a6 ff ff       	callq  86cc <safe_mod_func_int32_t_s_s>
    e041:	80 bd 93 e3 ff ff 00 	cmpb   $0x0,-0x1c6d(%rbp)
    e048:	74 07                	je     e051 <func_2+0x4415>
    e04a:	b8 01 00 00 00       	mov    $0x1,%eax
    e04f:	eb 05                	jmp    e056 <func_2+0x441a>
    e051:	b8 00 00 00 00       	mov    $0x0,%eax
    e056:	0f b7 c0             	movzwl %ax,%eax
    e059:	be 01 00 00 00       	mov    $0x1,%esi
    e05e:	89 c7                	mov    %eax,%edi
    e060:	e8 29 ad ff ff       	callq  8d8e <safe_div_func_uint16_t_u_u>
    e065:	0f b7 c0             	movzwl %ax,%eax
    e068:	4c 89 e6             	mov    %r12,%rsi
    e06b:	48 89 c7             	mov    %rax,%rdi
    e06e:	e8 3c b0 ff ff       	callq  90af <safe_div_func_uint64_t_u_u>
    e073:	48 8b 05 56 93 01 00 	mov    0x19356(%rip),%rax        # 273d0 <g_1749>
    e07a:	0f b7 00             	movzwl (%rax),%eax
    e07d:	0f bf d0             	movswl %ax,%edx
    e080:	48 8d 05 b7 6a 01 00 	lea    0x16ab7(%rip),%rax        # 24b3e <g_3676>
    e087:	0f b7 00             	movzwl (%rax),%eax
    e08a:	0f b7 c0             	movzwl %ax,%eax
    e08d:	39 c2                	cmp    %eax,%edx
    e08f:	74 09                	je     e09a <func_2+0x445e>
    e091:	83 bd 58 e5 ff ff 00 	cmpl   $0x0,-0x1aa8(%rbp)
    e098:	75 0b                	jne    e0a5 <func_2+0x4469>
    e09a:	0f b6 85 7c e3 ff ff 	movzbl -0x1c84(%rbp),%eax
    e0a1:	84 c0                	test   %al,%al
    e0a3:	74 07                	je     e0ac <func_2+0x4470>
    e0a5:	b8 01 00 00 00       	mov    $0x1,%eax
    e0aa:	eb 05                	jmp    e0b1 <func_2+0x4475>
    e0ac:	b8 00 00 00 00       	mov    $0x0,%eax
    e0b1:	89 c2                	mov    %eax,%edx
    e0b3:	48 8b 85 58 e3 ff ff 	mov    -0x1ca8(%rbp),%rax
    e0ba:	09 d0                	or     %edx,%eax
    e0bc:	0f be d0             	movsbl %al,%edx
    e0bf:	48 8b 85 88 e8 ff ff 	mov    -0x1778(%rbp),%rax
    e0c6:	8b 08                	mov    (%rax),%ecx
    e0c8:	48 8b 85 68 e5 ff ff 	mov    -0x1a98(%rbp),%rax
    e0cf:	8b 00                	mov    (%rax),%eax
    e0d1:	31 c1                	xor    %eax,%ecx
    e0d3:	48 8b 85 88 e8 ff ff 	mov    -0x1778(%rbp),%rax
    e0da:	89 08                	mov    %ecx,(%rax)
    e0dc:	48 8b 85 88 e8 ff ff 	mov    -0x1778(%rbp),%rax
    e0e3:	8b 00                	mov    (%rax),%eax
    e0e5:	0f be c0             	movsbl %al,%eax
    e0e8:	89 d6                	mov    %edx,%esi
    e0ea:	89 c7                	mov    %eax,%edi
    e0ec:	e8 79 a1 ff ff       	callq  826a <safe_div_func_int8_t_s_s>
    e0f1:	0f b6 c0             	movzbl %al,%eax
    e0f4:	8b b5 54 e3 ff ff    	mov    -0x1cac(%rbp),%esi
    e0fa:	89 c7                	mov    %eax,%edi
    e0fc:	e8 4b ab ff ff       	callq  8c4c <safe_lshift_func_uint8_t_u_u>
    e101:	0f b6 c0             	movzbl %al,%eax
    e104:	89 de                	mov    %ebx,%esi
    e106:	89 c7                	mov    %eax,%edi
    e108:	e8 b1 ac ff ff       	callq  8dbe <safe_lshift_func_uint16_t_u_s>
    e10d:	48 83 bd 58 e3 ff ff 	cmpq   $0x0,-0x1ca8(%rbp)
    e114:	00 
    e115:	75 0b                	jne    e122 <func_2+0x44e6>
    e117:	0f b6 85 7c e3 ff ff 	movzbl -0x1c84(%rbp),%eax
    e11e:	84 c0                	test   %al,%al
    e120:	74 07                	je     e129 <func_2+0x44ed>
    e122:	b8 01 00 00 00       	mov    $0x1,%eax
    e127:	eb 05                	jmp    e12e <func_2+0x44f2>
    e129:	b8 00 00 00 00       	mov    $0x0,%eax
    e12e:	83 f0 48             	xor    $0x48,%eax
    e131:	0f b6 c0             	movzbl %al,%eax
    e134:	44 89 fe             	mov    %r15d,%esi
    e137:	89 c7                	mov    %eax,%edi
    e139:	e8 4f ab ff ff       	callq  8c8d <safe_rshift_func_uint8_t_u_s>
    e13e:	0f b6 c0             	movzbl %al,%eax
    e141:	44 31 f0             	xor    %r14d,%eax
    e144:	83 f8 2c             	cmp    $0x2c,%eax
    e147:	0f 9f c0             	setg   %al
    e14a:	0f b6 c0             	movzbl %al,%eax
    e14d:	44 89 e9             	mov    %r13d,%ecx
    e150:	21 c1                	and    %eax,%ecx
    e152:	48 8b 05 87 95 01 00 	mov    0x19587(%rip),%rax        # 276e0 <g_4764>
    e159:	8b 10                	mov    (%rax),%edx
    e15b:	48 8b 05 7e 95 01 00 	mov    0x1957e(%rip),%rax        # 276e0 <g_4764>
    e162:	09 ca                	or     %ecx,%edx
    e164:	89 10                	mov    %edx,(%rax)
    e166:	8b 85 b8 e3 ff ff    	mov    -0x1c48(%rbp),%eax
    e16c:	83 e8 01             	sub    $0x1,%eax
    e16f:	89 85 b8 e3 ff ff    	mov    %eax,-0x1c48(%rbp)
    e175:	8b 85 b8 e3 ff ff    	mov    -0x1c48(%rbp),%eax
    e17b:	85 c0                	test   %eax,%eax
    e17d:	0f 89 10 fe ff ff    	jns    df93 <func_2+0x4357>
    e183:	48 8b 85 70 e3 ff ff 	mov    -0x1c90(%rbp),%rax
    e18a:	e9 eb 0e 00 00       	jmpq   f07a <func_2+0x543e>
    e18f:	8b 9d 68 e4 ff ff    	mov    -0x1b98(%rbp),%ebx
    e195:	8b 85 f0 e4 ff ff    	mov    -0x1b10(%rbp),%eax
    e19b:	44 0f be e0          	movsbl %al,%r12d
    e19f:	48 8b 85 70 e3 ff ff 	mov    -0x1c90(%rbp),%rax
    e1a6:	44 8b 28             	mov    (%rax),%r13d
    e1a9:	48 8b 85 68 e5 ff ff 	mov    -0x1a98(%rbp),%rax
    e1b0:	8b 00                	mov    (%rax),%eax
    e1b2:	41 89 c6             	mov    %eax,%r14d
    e1b5:	0f b6 85 7c e3 ff ff 	movzbl -0x1c84(%rbp),%eax
    e1bc:	0f b6 c0             	movzbl %al,%eax
    e1bf:	48 8b 95 a8 e5 ff ff 	mov    -0x1a58(%rbp),%rdx
    e1c6:	8b 12                	mov    (%rdx),%edx
    e1c8:	89 c6                	mov    %eax,%esi
    e1ca:	89 d7                	mov    %edx,%edi
    e1cc:	e8 54 ad ff ff       	callq  8f25 <safe_div_func_uint32_t_u_u>
    e1d1:	0f b6 85 7c e3 ff ff 	movzbl -0x1c84(%rbp),%eax
    e1d8:	0f b6 c8             	movzbl %al,%ecx
    e1db:	48 8b 95 b8 e5 ff ff 	mov    -0x1a48(%rbp),%rdx
    e1e2:	48 8b 85 18 e7 ff ff 	mov    -0x18e8(%rbp),%rax
    e1e9:	48 89 10             	mov    %rdx,(%rax)
    e1ec:	48 8b 85 18 e7 ff ff 	mov    -0x18e8(%rbp),%rax
    e1f3:	48 8b 00             	mov    (%rax),%rax
    e1f6:	48 8b 95 c0 e5 ff ff 	mov    -0x1a40(%rbp),%rdx
    e1fd:	48 89 95 28 e6 ff ff 	mov    %rdx,-0x19d8(%rbp)
    e204:	48 39 85 28 e6 ff ff 	cmp    %rax,-0x19d8(%rbp)
    e20b:	0f 94 c0             	sete   %al
    e20e:	0f b6 c0             	movzbl %al,%eax
    e211:	39 c1                	cmp    %eax,%ecx
    e213:	0f 9c c0             	setl   %al
    e216:	0f b6 d0             	movzbl %al,%edx
    e219:	48 8b 05 d0 8e 01 00 	mov    0x18ed0(%rip),%rax        # 270f0 <g_378>
    e220:	48 8b 00             	mov    (%rax),%rax
    e223:	48 8b 00             	mov    (%rax),%rax
    e226:	0f b6 00             	movzbl (%rax),%eax
    e229:	0f b6 c0             	movzbl %al,%eax
    e22c:	39 c2                	cmp    %eax,%edx
    e22e:	0f 9c c0             	setl   %al
    e231:	0f b6 c0             	movzbl %al,%eax
    e234:	44 89 f6             	mov    %r14d,%esi
    e237:	89 c7                	mov    %eax,%edi
    e239:	e8 bf ac ff ff       	callq  8efd <safe_mod_func_uint32_t_u_u>
    e23e:	48 8b 15 9b 94 01 00 	mov    0x1949b(%rip),%rdx        # 276e0 <g_4764>
    e245:	8b 12                	mov    (%rdx),%edx
    e247:	09 c2                	or     %eax,%edx
    e249:	48 8b 05 90 94 01 00 	mov    0x19490(%rip),%rax        # 276e0 <g_4764>
    e250:	89 10                	mov    %edx,(%rax)
    e252:	8b 00                	mov    (%rax),%eax
    e254:	44 89 ee             	mov    %r13d,%esi
    e257:	89 c7                	mov    %eax,%edi
    e259:	e8 a1 a4 ff ff       	callq  86ff <safe_div_func_int32_t_s_s>
    e25e:	be d6 4c e0 6e       	mov    $0x6ee04cd6,%esi
    e263:	89 c7                	mov    %eax,%edi
    e265:	e8 93 ac ff ff       	callq  8efd <safe_mod_func_uint32_t_u_u>
    e26a:	89 c2                	mov    %eax,%edx
    e26c:	48 8b 85 68 e5 ff ff 	mov    -0x1a98(%rbp),%rax
    e273:	8b 00                	mov    (%rax),%eax
    e275:	09 d0                	or     %edx,%eax
    e277:	0f be c0             	movsbl %al,%eax
    e27a:	44 89 e6             	mov    %r12d,%esi
    e27d:	89 c7                	mov    %eax,%edi
    e27f:	e8 8e 9f ff ff       	callq  8212 <safe_mul_func_int8_t_s_s>
    e284:	0f b6 c0             	movzbl %al,%eax
    e287:	89 c7                	mov    %eax,%edi
    e289:	e8 b7 a8 ff ff       	callq  8b45 <safe_unary_minus_func_uint8_t_u>
    e28e:	89 c2                	mov    %eax,%edx
    e290:	48 8b 05 29 94 01 00 	mov    0x19429(%rip),%rax        # 276c0 <g_4400>
    e297:	0f b6 d2             	movzbl %dl,%edx
    e29a:	89 10                	mov    %edx,(%rax)
    e29c:	48 8b 85 70 e3 ff ff 	mov    -0x1c90(%rbp),%rax
    e2a3:	8b 10                	mov    (%rax),%edx
    e2a5:	48 8b 85 68 e5 ff ff 	mov    -0x1a98(%rbp),%rax
    e2ac:	8b 00                	mov    (%rax),%eax
    e2ae:	89 d6                	mov    %edx,%esi
    e2b0:	89 c7                	mov    %eax,%edi
    e2b2:	e8 15 a4 ff ff       	callq  86cc <safe_mod_func_int32_t_s_s>
    e2b7:	48 8b 95 68 e5 ff ff 	mov    -0x1a98(%rbp),%rdx
    e2be:	8b 12                	mov    (%rdx),%edx
    e2c0:	39 d0                	cmp    %edx,%eax
    e2c2:	0f 9d c0             	setge  %al
    e2c5:	0f b6 c0             	movzbl %al,%eax
    e2c8:	89 de                	mov    %ebx,%esi
    e2ca:	89 c7                	mov    %eax,%edi
    e2cc:	e8 ed aa ff ff       	callq  8dbe <safe_lshift_func_uint16_t_u_s>
    e2d1:	48 8b 85 a8 e5 ff ff 	mov    -0x1a58(%rbp),%rax
    e2d8:	c7 00 ad 61 00 8c    	movl   $0x8c0061ad,(%rax)
    e2de:	48 8b 15 83 94 01 00 	mov    0x19483(%rip),%rdx        # 27768 <g_5834>
    e2e5:	8b 00                	mov    (%rax),%eax
    e2e7:	89 02                	mov    %eax,(%rdx)
    e2e9:	e9 85 0d 00 00       	jmpq   f073 <func_2+0x5437>
    e2ee:	48 c7 85 40 e6 ff ff 	movq   $0x4,-0x19c0(%rbp)
    e2f5:	04 00 00 00 
    e2f9:	c7 85 b8 e5 ff ff 01 	movl   $0x1,-0x1a48(%rbp)
    e300:	00 00 00 
    e303:	c7 85 18 e4 ff ff fc 	movl   $0xfffffffc,-0x1be8(%rbp)
    e30a:	ff ff ff 
    e30d:	66 c7 85 96 e3 ff ff 	movw   $0x942f,-0x1c6a(%rbp)
    e314:	2f 94 
    e316:	c7 85 70 e4 ff ff df 	movl   $0xff8fdedf,-0x1b90(%rbp)
    e31d:	de 8f ff 
    e320:	48 8d 05 19 8e 01 00 	lea    0x18e19(%rip),%rax        # 27140 <g_688>
    e327:	48 89 85 48 e6 ff ff 	mov    %rax,-0x19b8(%rbp)
    e32e:	48 8d 05 d3 8e 01 00 	lea    0x18ed3(%rip),%rax        # 27208 <g_1022>
    e335:	48 89 85 c0 e5 ff ff 	mov    %rax,-0x1a40(%rbp)
    e33c:	48 8d 85 c0 e5 ff ff 	lea    -0x1a40(%rbp),%rax
    e343:	48 89 85 50 ea ff ff 	mov    %rax,-0x15b0(%rbp)
    e34a:	48 8d 85 50 ea ff ff 	lea    -0x15b0(%rbp),%rax
    e351:	48 89 85 50 e6 ff ff 	mov    %rax,-0x19b0(%rbp)
    e358:	66 c7 85 98 e3 ff ff 	movw   $0x1,-0x1c68(%rbp)
    e35f:	01 00 
    e361:	c7 85 74 e4 ff ff fc 	movl   $0x468fc9fc,-0x1b8c(%rbp)
    e368:	c9 8f 46 
    e36b:	48 c7 85 58 e6 ff ff 	movq   $0x0,-0x19a8(%rbp)
    e372:	00 00 00 00 
    e376:	c7 85 78 e4 ff ff fa 	movl   $0xfffffffa,-0x1b88(%rbp)
    e37d:	ff ff ff 
    e380:	48 8d 85 b0 ec ff ff 	lea    -0x1350(%rbp),%rax
    e387:	48 05 90 00 00 00    	add    $0x90,%rax
    e38d:	48 89 85 60 e6 ff ff 	mov    %rax,-0x19a0(%rbp)
    e394:	48 8d 05 d9 64 01 00 	lea    0x164d9(%rip),%rax        # 24874 <g_368>
    e39b:	48 89 85 68 e6 ff ff 	mov    %rax,-0x1998(%rbp)
    e3a2:	48 83 85 40 e6 ff ff 	addq   $0x1,-0x19c0(%rbp)
    e3a9:	01 
    e3aa:	48 8b 05 1f 8d 01 00 	mov    0x18d1f(%rip),%rax        # 270d0 <g_359>
    e3b1:	48 8b 95 60 e3 ff ff 	mov    -0x1ca0(%rbp),%rdx
    e3b8:	48 89 10             	mov    %rdx,(%rax)
    e3bb:	c7 85 ac e3 ff ff 00 	movl   $0x0,-0x1c54(%rbp)
    e3c2:	00 00 00 
    e3c5:	e9 82 05 00 00       	jmpq   e94c <func_2+0x4d10>
    e3ca:	c6 85 88 e3 ff ff 06 	movb   $0x6,-0x1c78(%rbp)
    e3d1:	c7 85 b4 e4 ff ff 00 	movl   $0x0,-0x1b4c(%rbp)
    e3d8:	00 00 00 
    e3db:	c7 85 e0 ea ff ff 0f 	movl   $0x73e53a0f,-0x1520(%rbp)
    e3e2:	3a e5 73 
    e3e5:	c7 85 e4 ea ff ff 0f 	movl   $0x73e53a0f,-0x151c(%rbp)
    e3ec:	3a e5 73 
    e3ef:	c7 85 e8 ea ff ff 0f 	movl   $0x73e53a0f,-0x1518(%rbp)
    e3f6:	3a e5 73 
    e3f9:	c7 85 ec ea ff ff 0f 	movl   $0x73e53a0f,-0x1514(%rbp)
    e400:	3a e5 73 
    e403:	c7 85 f0 ea ff ff 0f 	movl   $0x73e53a0f,-0x1510(%rbp)
    e40a:	3a e5 73 
    e40d:	c7 85 f4 ea ff ff 0f 	movl   $0x73e53a0f,-0x150c(%rbp)
    e414:	3a e5 73 
    e417:	c7 85 f8 ea ff ff 0f 	movl   $0x73e53a0f,-0x1508(%rbp)
    e41e:	3a e5 73 
    e421:	c7 85 fc ea ff ff 0f 	movl   $0x73e53a0f,-0x1504(%rbp)
    e428:	3a e5 73 
    e42b:	48 8b 85 58 e3 ff ff 	mov    -0x1ca8(%rbp),%rax
    e432:	0f b6 d8             	movzbl %al,%ebx
    e435:	0f b6 85 7c e3 ff ff 	movzbl -0x1c84(%rbp),%eax
    e43c:	0f be c0             	movsbl %al,%eax
    e43f:	be 03 00 00 00       	mov    $0x3,%esi
    e444:	89 c7                	mov    %eax,%edi
    e446:	e8 a3 9e ff ff       	callq  82ee <safe_lshift_func_int8_t_s_u>
    e44b:	0f b6 c0             	movzbl %al,%eax
    e44e:	89 de                	mov    %ebx,%esi
    e450:	89 c7                	mov    %eax,%edi
    e452:	e8 57 a7 ff ff       	callq  8bae <safe_mod_func_uint8_t_u_u>
    e457:	48 8b 95 70 e3 ff ff 	mov    -0x1c90(%rbp),%rdx
    e45e:	8b 12                	mov    (%rdx),%edx
    e460:	0f b6 c0             	movzbl %al,%eax
    e463:	09 c2                	or     %eax,%edx
    e465:	48 8b 85 70 e3 ff ff 	mov    -0x1c90(%rbp),%rax
    e46c:	89 10                	mov    %edx,(%rax)
    e46e:	c7 85 c8 e3 ff ff 00 	movl   $0x0,-0x1c38(%rbp)
    e475:	00 00 00 
    e478:	e9 55 04 00 00       	jmpq   e8d2 <func_2+0x4c96>
    e47d:	48 8d 05 dc 92 01 00 	lea    0x192dc(%rip),%rax        # 27760 <g_5651>
    e484:	48 89 85 c8 e5 ff ff 	mov    %rax,-0x1a38(%rbp)
    e48b:	48 8d 85 c8 e5 ff ff 	lea    -0x1a38(%rbp),%rax
    e492:	48 89 85 b0 e6 ff ff 	mov    %rax,-0x1950(%rbp)
    e499:	c7 85 b8 e4 ff ff c0 	movl   $0x9bc002c0,-0x1b48(%rbp)
    e4a0:	02 c0 9b 
    e4a3:	48 8d 85 78 e5 ff ff 	lea    -0x1a88(%rbp),%rax
    e4aa:	48 89 85 c0 f8 ff ff 	mov    %rax,-0x740(%rbp)
    e4b1:	48 8d 85 78 e5 ff ff 	lea    -0x1a88(%rbp),%rax
    e4b8:	48 89 85 c8 f8 ff ff 	mov    %rax,-0x738(%rbp)
    e4bf:	48 8d 85 78 e5 ff ff 	lea    -0x1a88(%rbp),%rax
    e4c6:	48 89 85 d0 f8 ff ff 	mov    %rax,-0x730(%rbp)
    e4cd:	48 8d 85 78 e5 ff ff 	lea    -0x1a88(%rbp),%rax
    e4d4:	48 89 85 d8 f8 ff ff 	mov    %rax,-0x728(%rbp)
    e4db:	48 8d 85 78 e5 ff ff 	lea    -0x1a88(%rbp),%rax
    e4e2:	48 89 85 e0 f8 ff ff 	mov    %rax,-0x720(%rbp)
    e4e9:	48 8d 85 78 e5 ff ff 	lea    -0x1a88(%rbp),%rax
    e4f0:	48 89 85 e8 f8 ff ff 	mov    %rax,-0x718(%rbp)
    e4f7:	48 8d 85 78 e5 ff ff 	lea    -0x1a88(%rbp),%rax
    e4fe:	48 89 85 f0 f8 ff ff 	mov    %rax,-0x710(%rbp)
    e505:	c7 85 14 e4 ff ff 00 	movl   $0x0,-0x1bec(%rbp)
    e50c:	00 00 00 
    e50f:	eb 21                	jmp    e532 <func_2+0x48f6>
    e511:	8b 85 14 e4 ff ff    	mov    -0x1bec(%rbp),%eax
    e517:	48 98                	cltq   
    e519:	48 bb 9e 01 75 53 9a 	movabs $0x381b7a9a5375019e,%rbx
    e520:	7a 1b 38 
    e523:	48 89 9c c5 90 ea ff 	mov    %rbx,-0x1570(%rbp,%rax,8)
    e52a:	ff 
    e52b:	83 85 14 e4 ff ff 01 	addl   $0x1,-0x1bec(%rbp)
    e532:	83 bd 14 e4 ff ff 02 	cmpl   $0x2,-0x1bec(%rbp)
    e539:	7e d6                	jle    e511 <func_2+0x48d5>
    e53b:	48 8b 85 68 e5 ff ff 	mov    -0x1a98(%rbp),%rax
    e542:	8b 00                	mov    (%rax),%eax
    e544:	85 c0                	test   %eax,%eax
    e546:	0f 84 2f 03 00 00    	je     e87b <func_2+0x4c3f>
    e54c:	48 8d 85 d0 e3 ff ff 	lea    -0x1c30(%rbp),%rax
    e553:	48 89 85 c8 e6 ff ff 	mov    %rax,-0x1938(%rbp)
    e55a:	48 8d 85 b8 e5 ff ff 	lea    -0x1a48(%rbp),%rax
    e561:	48 89 85 d0 e6 ff ff 	mov    %rax,-0x1930(%rbp)
    e568:	48 8d 05 b5 5a 01 00 	lea    0x15ab5(%rip),%rax        # 24024 <g_9>
    e56f:	48 89 85 d8 e6 ff ff 	mov    %rax,-0x1928(%rbp)
    e576:	48 8d 05 ab 5a 01 00 	lea    0x15aab(%rip),%rax        # 24028 <g_62>
    e57d:	48 89 85 20 ee ff ff 	mov    %rax,-0x11e0(%rbp)
    e584:	48 8d 05 9d 5a 01 00 	lea    0x15a9d(%rip),%rax        # 24028 <g_62>
    e58b:	48 89 85 28 ee ff ff 	mov    %rax,-0x11d8(%rbp)
    e592:	48 8d 05 8f 5a 01 00 	lea    0x15a8f(%rip),%rax        # 24028 <g_62>
    e599:	48 89 85 30 ee ff ff 	mov    %rax,-0x11d0(%rbp)
    e5a0:	48 8d 05 81 5a 01 00 	lea    0x15a81(%rip),%rax        # 24028 <g_62>
    e5a7:	48 89 85 38 ee ff ff 	mov    %rax,-0x11c8(%rbp)
    e5ae:	48 8d 05 73 5a 01 00 	lea    0x15a73(%rip),%rax        # 24028 <g_62>
    e5b5:	48 89 85 40 ee ff ff 	mov    %rax,-0x11c0(%rbp)
    e5bc:	0f b6 85 88 e3 ff ff 	movzbl -0x1c78(%rbp),%eax
    e5c3:	83 c0 01             	add    $0x1,%eax
    e5c6:	88 85 88 e3 ff ff    	mov    %al,-0x1c78(%rbp)
    e5cc:	66 c7 05 9f 62 01 00 	movw   $0x0,0x1629f(%rip)        # 24874 <g_368>
    e5d3:	00 00 
    e5d5:	e9 8e 02 00 00       	jmpq   e868 <func_2+0x4c2c>
    e5da:	48 8d 05 27 8b 01 00 	lea    0x18b27(%rip),%rax        # 27108 <g_570>
    e5e1:	48 89 85 d0 e5 ff ff 	mov    %rax,-0x1a30(%rbp)
    e5e8:	48 8d 85 d0 e5 ff ff 	lea    -0x1a30(%rbp),%rax
    e5ef:	48 89 85 d8 e5 ff ff 	mov    %rax,-0x1a28(%rbp)
    e5f6:	48 8d 85 d8 e5 ff ff 	lea    -0x1a28(%rbp),%rax
    e5fd:	48 89 85 e0 e5 ff ff 	mov    %rax,-0x1a20(%rbp)
    e604:	48 8d 85 e0 e5 ff ff 	lea    -0x1a20(%rbp),%rax
    e60b:	48 89 85 30 eb ff ff 	mov    %rax,-0x14d0(%rbp)
    e612:	48 8d 85 e0 e5 ff ff 	lea    -0x1a20(%rbp),%rax
    e619:	48 89 85 38 eb ff ff 	mov    %rax,-0x14c8(%rbp)
    e620:	48 8d 85 e0 e5 ff ff 	lea    -0x1a20(%rbp),%rax
    e627:	48 89 85 40 eb ff ff 	mov    %rax,-0x14c0(%rbp)
    e62e:	48 8d 85 e0 e5 ff ff 	lea    -0x1a20(%rbp),%rax
    e635:	48 89 85 48 eb ff ff 	mov    %rax,-0x14b8(%rbp)
    e63c:	c7 85 bc e4 ff ff ac 	movl   $0x8e3d5eac,-0x1b44(%rbp)
    e643:	5e 3d 8e 
    e646:	c7 85 c0 e4 ff ff ff 	movl   $0xffffffff,-0x1b40(%rbp)
    e64d:	ff ff ff 
    e650:	0f b7 85 96 e3 ff ff 	movzwl -0x1c6a(%rbp),%eax
    e657:	0f b6 d8             	movzbl %al,%ebx
    e65a:	0f b6 85 7c e3 ff ff 	movzbl -0x1c84(%rbp),%eax
    e661:	0f b6 c0             	movzbl %al,%eax
    e664:	39 85 b8 e4 ff ff    	cmp    %eax,-0x1b48(%rbp)
    e66a:	0f 95 c0             	setne  %al
    e66d:	44 0f b6 e0          	movzbl %al,%r12d
    e671:	48 83 bd b0 e6 ff ff 	cmpq   $0x0,-0x1950(%rbp)
    e678:	00 
    e679:	0f 94 c0             	sete   %al
    e67c:	0f b6 c0             	movzbl %al,%eax
    e67f:	89 c6                	mov    %eax,%esi
    e681:	bf ff ff 00 00       	mov    $0xffff,%edi
    e686:	e8 94 a6 ff ff       	callq  8d1f <safe_sub_func_uint16_t_u_u>
    e68b:	0f b7 c0             	movzwl %ax,%eax
    e68e:	89 85 18 e4 ff ff    	mov    %eax,-0x1be8(%rbp)
    e694:	8b 85 18 e4 ff ff    	mov    -0x1be8(%rbp),%eax
    e69a:	89 c2                	mov    %eax,%edx
    e69c:	0f b6 85 88 e3 ff ff 	movzbl -0x1c78(%rbp),%eax
    e6a3:	21 d0                	and    %edx,%eax
    e6a5:	0f be c0             	movsbl %al,%eax
    e6a8:	44 89 e6             	mov    %r12d,%esi
    e6ab:	89 c7                	mov    %eax,%edi
    e6ad:	e8 40 9b ff ff       	callq  81f2 <safe_sub_func_int8_t_s_s>
    e6b2:	48 8b 85 90 ea ff ff 	mov    -0x1570(%rbp),%rax
    e6b9:	0f b6 c0             	movzbl %al,%eax
    e6bc:	89 de                	mov    %ebx,%esi
    e6be:	89 c7                	mov    %eax,%edi
    e6c0:	e8 ce a4 ff ff       	callq  8b93 <safe_mul_func_uint8_t_u_u>
    e6c5:	44 0f b6 e0          	movzbl %al,%r12d
    e6c9:	0f b6 85 7c e3 ff ff 	movzbl -0x1c84(%rbp),%eax
    e6d0:	0f b6 d8             	movzbl %al,%ebx
    e6d3:	48 8b 95 e0 f8 ff ff 	mov    -0x720(%rbp),%rdx
    e6da:	48 8b 85 30 eb ff ff 	mov    -0x14d0(%rbp),%rax
    e6e1:	48 39 c2             	cmp    %rax,%rdx
    e6e4:	0f 94 c0             	sete   %al
    e6e7:	0f b6 c0             	movzbl %al,%eax
    e6ea:	89 c7                	mov    %eax,%edi
    e6ec:	e8 f8 a5 ff ff       	callq  8ce9 <safe_unary_minus_func_uint16_t_u>
    e6f1:	48 89 de             	mov    %rbx,%rsi
    e6f4:	bf 00 00 00 00       	mov    $0x0,%edi
    e6f9:	e8 b6 a2 ff ff       	callq  89b4 <safe_mod_func_int64_t_s_s>
    e6fe:	4c 89 e2             	mov    %r12,%rdx
    e701:	48 09 c2             	or     %rax,%rdx
    e704:	48 8b 85 c8 e6 ff ff 	mov    -0x1938(%rbp),%rax
    e70b:	8b 00                	mov    (%rax),%eax
    e70d:	09 c2                	or     %eax,%edx
    e70f:	48 8b 85 c8 e6 ff ff 	mov    -0x1938(%rbp),%rax
    e716:	89 10                	mov    %edx,(%rax)
    e718:	48 8b 05 c1 8f 01 00 	mov    0x18fc1(%rip),%rax        # 276e0 <g_4764>
    e71f:	8b 08                	mov    (%rax),%ecx
    e721:	48 8b 85 60 e3 ff ff 	mov    -0x1ca0(%rbp),%rax
    e728:	8b 10                	mov    (%rax),%edx
    e72a:	48 8b 05 af 8f 01 00 	mov    0x18faf(%rip),%rax        # 276e0 <g_4764>
    e731:	09 ca                	or     %ecx,%edx
    e733:	89 10                	mov    %edx,(%rax)
    e735:	48 8b 85 58 e3 ff ff 	mov    -0x1ca8(%rbp),%rax
    e73c:	0f be d8             	movsbl %al,%ebx
    e73f:	8b 85 c0 e4 ff ff    	mov    -0x1b40(%rbp),%eax
    e745:	44 0f b7 e0          	movzwl %ax,%r12d
    e749:	be 00 00 00 00       	mov    $0x0,%esi
    e74e:	bf b7 00 00 00       	mov    $0xb7,%edi
    e753:	e8 f4 a4 ff ff       	callq  8c4c <safe_lshift_func_uint8_t_u_u>
    e758:	48 c7 05 2d 86 01 00 	movq   $0x0,0x1862d(%rip)        # 26d90 <g_145>
    e75f:	00 00 00 00 
    e763:	48 8b 05 26 86 01 00 	mov    0x18626(%rip),%rax        # 26d90 <g_145>
    e76a:	48 8d 15 17 86 01 00 	lea    0x18617(%rip),%rdx        # 26d88 <g_146>
    e771:	48 39 d0             	cmp    %rdx,%rax
    e774:	0f 94 c1             	sete   %cl
    e777:	48 8b 05 0a 86 01 00 	mov    0x1860a(%rip),%rax        # 26d88 <g_146>
    e77e:	8b 10                	mov    (%rax),%edx
    e780:	83 ea 01             	sub    $0x1,%edx
    e783:	89 10                	mov    %edx,(%rax)
    e785:	8b 00                	mov    (%rax),%eax
    e787:	39 85 70 e4 ff ff    	cmp    %eax,-0x1b90(%rbp)
    e78d:	0f 94 c0             	sete   %al
    e790:	09 c8                	or     %ecx,%eax
    e792:	0f b6 d0             	movzbl %al,%edx
    e795:	8b 85 bc e4 ff ff    	mov    -0x1b44(%rbp),%eax
    e79b:	89 d6                	mov    %edx,%esi
    e79d:	89 c7                	mov    %eax,%edi
    e79f:	e8 28 9f ff ff       	callq  86cc <safe_mod_func_int32_t_s_s>
    e7a4:	c7 85 b4 e4 ff ff 04 	movl   $0x4,-0x1b4c(%rbp)
    e7ab:	00 00 00 
    e7ae:	0f b6 85 7c e3 ff ff 	movzbl -0x1c84(%rbp),%eax
    e7b5:	3c 04                	cmp    $0x4,%al
    e7b7:	0f 97 c0             	seta   %al
    e7ba:	0f b6 c0             	movzbl %al,%eax
    e7bd:	89 85 e8 ea ff ff    	mov    %eax,-0x1518(%rbp)
    e7c3:	48 8b 85 58 e3 ff ff 	mov    -0x1ca8(%rbp),%rax
    e7ca:	0f b7 c0             	movzwl %ax,%eax
    e7cd:	89 c6                	mov    %eax,%esi
    e7cf:	bf 01 00 00 00       	mov    $0x1,%edi
    e7d4:	e8 64 a5 ff ff       	callq  8d3d <safe_mul_func_uint16_t_u_u>
    e7d9:	66 85 c0             	test   %ax,%ax
    e7dc:	75 0d                	jne    e7eb <func_2+0x4baf>
    e7de:	48 8b 05 9b 85 01 00 	mov    0x1859b(%rip),%rax        # 26d80 <g_8>
    e7e5:	8b 00                	mov    (%rax),%eax
    e7e7:	85 c0                	test   %eax,%eax
    e7e9:	74 07                	je     e7f2 <func_2+0x4bb6>
    e7eb:	b8 01 00 00 00       	mov    $0x1,%eax
    e7f0:	eb 05                	jmp    e7f7 <func_2+0x4bbb>
    e7f2:	b8 00 00 00 00       	mov    $0x0,%eax
    e7f7:	89 85 bc e4 ff ff    	mov    %eax,-0x1b44(%rbp)
    e7fd:	8b 85 bc e4 ff ff    	mov    -0x1b44(%rbp),%eax
    e803:	0f b7 c0             	movzwl %ax,%eax
    e806:	be 0d 00 00 00       	mov    $0xd,%esi
    e80b:	89 c7                	mov    %eax,%edi
    e80d:	e8 f4 a5 ff ff       	callq  8e06 <safe_lshift_func_uint16_t_u_u>
    e812:	0f b7 c0             	movzwl %ax,%eax
    e815:	44 89 e6             	mov    %r12d,%esi
    e818:	89 c7                	mov    %eax,%edi
    e81a:	e8 00 a5 ff ff       	callq  8d1f <safe_sub_func_uint16_t_u_u>
    e81f:	0f be c0             	movsbl %al,%eax
    e822:	89 de                	mov    %ebx,%esi
    e824:	89 c7                	mov    %eax,%edi
    e826:	e8 e7 99 ff ff       	callq  8212 <safe_mul_func_int8_t_s_s>
    e82b:	84 c0                	test   %al,%al
    e82d:	75 09                	jne    e838 <func_2+0x4bfc>
    e82f:	83 bd c0 e4 ff ff 00 	cmpl   $0x0,-0x1b40(%rbp)
    e836:	74 11                	je     e849 <func_2+0x4c0d>
    e838:	48 83 bd 68 e3 ff ff 	cmpq   $0x0,-0x1c98(%rbp)
    e83f:	00 
    e840:	74 07                	je     e849 <func_2+0x4c0d>
    e842:	ba 01 00 00 00       	mov    $0x1,%edx
    e847:	eb 05                	jmp    e84e <func_2+0x4c12>
    e849:	ba 00 00 00 00       	mov    $0x0,%edx
    e84e:	48 8b 85 d8 e6 ff ff 	mov    -0x1928(%rbp),%rax
    e855:	89 10                	mov    %edx,(%rax)
    e857:	0f b7 05 16 60 01 00 	movzwl 0x16016(%rip),%eax        # 24874 <g_368>
    e85e:	83 c0 01             	add    $0x1,%eax
    e861:	66 89 05 0c 60 01 00 	mov    %ax,0x1600c(%rip)        # 24874 <g_368>
    e868:	0f b7 05 05 60 01 00 	movzwl 0x16005(%rip),%eax        # 24874 <g_368>
    e86f:	66 83 f8 02          	cmp    $0x2,%ax
    e873:	0f 86 61 fd ff ff    	jbe    e5da <func_2+0x499e>
    e879:	eb 48                	jmp    e8c3 <func_2+0x4c87>
    e87b:	48 b8 29 42 04 85 06 	movabs $0xe2e5950685044229,%rax
    e882:	95 e5 e2 
    e885:	48 89 85 b8 e6 ff ff 	mov    %rax,-0x1948(%rbp)
    e88c:	48 c7 85 e0 e5 ff ff 	movq   $0x0,-0x1a20(%rbp)
    e893:	00 00 00 00 
    e897:	48 8d 85 e0 e5 ff ff 	lea    -0x1a20(%rbp),%rax
    e89e:	48 89 85 c0 e6 ff ff 	mov    %rax,-0x1940(%rbp)
    e8a5:	48 8b 95 e0 e5 ff ff 	mov    -0x1a20(%rbp),%rdx
    e8ac:	48 8b 85 c0 e6 ff ff 	mov    -0x1940(%rbp),%rax
    e8b3:	48 89 10             	mov    %rdx,(%rax)
    e8b6:	48 8b 05 23 8e 01 00 	mov    0x18e23(%rip),%rax        # 276e0 <g_4764>
    e8bd:	c7 00 00 00 00 00    	movl   $0x0,(%rax)
    e8c3:	8b 85 c8 e3 ff ff    	mov    -0x1c38(%rbp),%eax
    e8c9:	83 c0 01             	add    $0x1,%eax
    e8cc:	89 85 c8 e3 ff ff    	mov    %eax,-0x1c38(%rbp)
    e8d2:	8b 85 c8 e3 ff ff    	mov    -0x1c38(%rbp),%eax
    e8d8:	83 f8 02             	cmp    $0x2,%eax
    e8db:	0f 8e 9c fb ff ff    	jle    e47d <func_2+0x4841>
    e8e1:	c6 85 89 e3 ff ff ee 	movb   $0xee,-0x1c77(%rbp)
    e8e8:	eb 41                	jmp    e92b <func_2+0x4cef>
    e8ea:	c7 85 54 e4 ff ff 00 	movl   $0x0,-0x1bac(%rbp)
    e8f1:	00 00 00 
    e8f4:	eb 1c                	jmp    e912 <func_2+0x4cd6>
    e8f6:	8b 85 54 e4 ff ff    	mov    -0x1bac(%rbp),%eax
    e8fc:	48 8d 15 9d 97 01 00 	lea    0x1979d(%rip),%rdx        # 280a0 <g_5896>
    e903:	48 89 94 c5 60 e9 ff 	mov    %rdx,-0x16a0(%rbp,%rax,8)
    e90a:	ff 
    e90b:	83 85 54 e4 ff ff 01 	addl   $0x1,-0x1bac(%rbp)
    e912:	83 bd 54 e4 ff ff 05 	cmpl   $0x5,-0x1bac(%rbp)
    e919:	76 db                	jbe    e8f6 <func_2+0x4cba>
    e91b:	0f b6 85 89 e3 ff ff 	movzbl -0x1c77(%rbp),%eax
    e922:	83 c0 01             	add    $0x1,%eax
    e925:	88 85 89 e3 ff ff    	mov    %al,-0x1c77(%rbp)
    e92b:	80 bd 89 e3 ff ff 02 	cmpb   $0x2,-0x1c77(%rbp)
    e932:	7e b6                	jle    e8ea <func_2+0x4cae>
    e934:	8b 85 ac e3 ff ff    	mov    -0x1c54(%rbp),%eax
    e93a:	be 01 00 00 00       	mov    $0x1,%esi
    e93f:	89 c7                	mov    %eax,%edi
    e941:	e8 8a a5 ff ff       	callq  8ed0 <safe_sub_func_uint32_t_u_u>
    e946:	89 85 ac e3 ff ff    	mov    %eax,-0x1c54(%rbp)
    e94c:	8b 85 ac e3 ff ff    	mov    -0x1c54(%rbp),%eax
    e952:	83 f8 e5             	cmp    $0xffffffe5,%eax
    e955:	0f 8d 6f fa ff ff    	jge    e3ca <func_2+0x478e>
    e95b:	c7 05 ff 61 01 00 00 	movl   $0x0,0x161ff(%rip)        # 24b64 <g_4394>
    e962:	00 00 00 
    e965:	90                   	nop
    e966:	8b 05 f8 61 01 00    	mov    0x161f8(%rip),%eax        # 24b64 <g_4394>
    e96c:	83 f8 04             	cmp    $0x4,%eax
    e96f:	0f 87 fe 06 00 00    	ja     f073 <func_2+0x5437>
    e975:	c6 85 8b e3 ff ff 9a 	movb   $0x9a,-0x1c75(%rbp)
    e97c:	c7 85 7c e4 ff ff 7a 	movl   $0xe08d6a7a,-0x1b84(%rbp)
    e983:	6a 8d e0 
    e986:	c7 85 80 e4 ff ff ff 	movl   $0xffffffff,-0x1b80(%rbp)
    e98d:	ff ff ff 
    e990:	c7 85 84 e4 ff ff ff 	movl   $0xffffffff,-0x1b7c(%rbp)
    e997:	ff ff ff 
    e99a:	c7 85 88 e4 ff ff d5 	movl   $0x4db724d5,-0x1b78(%rbp)
    e9a1:	24 b7 4d 
    e9a4:	c6 05 1d 60 01 00 00 	movb   $0x0,0x1601d(%rip)        # 249c8 <g_1820>
    e9ab:	e9 a8 06 00 00       	jmpq   f058 <func_2+0x541c>
    e9b0:	48 c7 85 70 e6 ff ff 	movq   $0x0,-0x1990(%rbp)
    e9b7:	00 00 00 00 
    e9bb:	c7 85 e0 e5 ff ff f8 	movl   $0xfffffff8,-0x1a20(%rbp)
    e9c2:	ff ff ff 
    e9c5:	c7 85 8c e4 ff ff 05 	movl   $0x5,-0x1b74(%rbp)
    e9cc:	00 00 00 
    e9cf:	48 c7 85 78 e6 ff ff 	movq   $0x0,-0x1988(%rbp)
    e9d6:	00 00 00 00 
    e9da:	c7 85 90 e4 ff ff fd 	movl   $0xfffffffd,-0x1b70(%rbp)
    e9e1:	ff ff ff 
    e9e4:	c7 85 94 e4 ff ff ad 	movl   $0xf41a88ad,-0x1b6c(%rbp)
    e9eb:	88 1a f4 
    e9ee:	c7 85 98 e4 ff ff 62 	movl   $0x122daa62,-0x1b68(%rbp)
    e9f5:	aa 2d 12 
    e9f8:	c7 85 9c e4 ff ff fb 	movl   $0xfffffffb,-0x1b64(%rbp)
    e9ff:	ff ff ff 
    ea02:	c7 85 e0 ea ff ff f7 	movl   $0xfffffff7,-0x1520(%rbp)
    ea09:	ff ff ff 
    ea0c:	c7 85 e4 ea ff ff f7 	movl   $0xfffffff7,-0x151c(%rbp)
    ea13:	ff ff ff 
    ea16:	c7 85 e8 ea ff ff f7 	movl   $0xfffffff7,-0x1518(%rbp)
    ea1d:	ff ff ff 
    ea20:	c7 85 ec ea ff ff f7 	movl   $0xfffffff7,-0x1514(%rbp)
    ea27:	ff ff ff 
    ea2a:	c7 85 f0 ea ff ff f7 	movl   $0xfffffff7,-0x1510(%rbp)
    ea31:	ff ff ff 
    ea34:	c7 85 f4 ea ff ff f7 	movl   $0xfffffff7,-0x150c(%rbp)
    ea3b:	ff ff ff 
    ea3e:	c7 85 f8 ea ff ff f7 	movl   $0xfffffff7,-0x1508(%rbp)
    ea45:	ff ff ff 
    ea48:	48 8d 05 91 89 01 00 	lea    0x18991(%rip),%rax        # 273e0 <g_1984>
    ea4f:	48 89 85 80 e6 ff ff 	mov    %rax,-0x1980(%rbp)
    ea56:	48 c7 85 88 e6 ff ff 	movq   $0x0,-0x1978(%rbp)
    ea5d:	00 00 00 00 
    ea61:	48 c7 85 58 e3 ff ff 	movq   $0x0,-0x1ca8(%rbp)
    ea68:	00 00 00 00 
    ea6c:	e9 21 01 00 00       	jmpq   eb92 <func_2+0x4f56>
    ea71:	c6 85 8d e3 ff ff 7d 	movb   $0x7d,-0x1c73(%rbp)
    ea78:	48 c7 85 a8 e6 ff ff 	movq   $0x0,-0x1958(%rbp)
    ea7f:	00 00 00 00 
    ea83:	0f b6 85 8d e3 ff ff 	movzbl -0x1c73(%rbp),%eax
    ea8a:	83 e8 01             	sub    $0x1,%eax
    ea8d:	88 85 8d e3 ff ff    	mov    %al,-0x1c73(%rbp)
    ea93:	48 8b 85 48 e6 ff ff 	mov    -0x19b8(%rbp),%rax
    ea9a:	48 3b 85 a8 e6 ff ff 	cmp    -0x1958(%rbp),%rax
    eaa1:	0f 94 c0             	sete   %al
    eaa4:	0f b6 d0             	movzbl %al,%edx
    eaa7:	48 8b 85 58 e3 ff ff 	mov    -0x1ca8(%rbp),%rax
    eaae:	48 8d 48 03          	lea    0x3(%rax),%rcx
    eab2:	48 8d 05 c3 5d 01 00 	lea    0x15dc3(%rip),%rax        # 2487c <g_381>
    eab9:	0f b6 04 01          	movzbl (%rcx,%rax,1),%eax
    eabd:	0f b6 c0             	movzbl %al,%eax
    eac0:	48 39 c2             	cmp    %rax,%rdx
    eac3:	0f 9c c0             	setl   %al
    eac6:	88 85 7c e3 ff ff    	mov    %al,-0x1c84(%rbp)
    eacc:	0f b6 85 7c e3 ff ff 	movzbl -0x1c84(%rbp),%eax
    ead3:	0f b6 d8             	movzbl %al,%ebx
    ead6:	0f be 85 8b e3 ff ff 	movsbl -0x1c75(%rbp),%eax
    eadd:	be 98 33 da 2d       	mov    $0x2dda3398,%esi
    eae2:	89 c7                	mov    %eax,%edi
    eae4:	e8 cd 9a ff ff       	callq  85b6 <safe_add_func_int32_t_s_s>
    eae9:	85 c0                	test   %eax,%eax
    eaeb:	75 3c                	jne    eb29 <func_2+0x4eed>
    eaed:	0f be 95 8b e3 ff ff 	movsbl -0x1c75(%rbp),%edx
    eaf4:	8b 85 e0 e5 ff ff    	mov    -0x1a20(%rbp),%eax
    eafa:	89 d6                	mov    %edx,%esi
    eafc:	89 c7                	mov    %eax,%edi
    eafe:	e8 c9 9b ff ff       	callq  86cc <safe_mod_func_int32_t_s_s>
    eb03:	48 8b 85 30 e6 ff ff 	mov    -0x19d0(%rbp),%rax
    eb0a:	48 89 85 50 e6 ff ff 	mov    %rax,-0x19b0(%rbp)
    eb11:	48 8b 85 50 e6 ff ff 	mov    -0x19b0(%rbp),%rax
    eb18:	48 3b 85 70 e6 ff ff 	cmp    -0x1990(%rbp),%rax
    eb1f:	48 83 bd 68 e3 ff ff 	cmpq   $0x0,-0x1c98(%rbp)
    eb26:	00 
    eb27:	74 07                	je     eb30 <func_2+0x4ef4>
    eb29:	b8 01 00 00 00       	mov    $0x1,%eax
    eb2e:	eb 05                	jmp    eb35 <func_2+0x4ef9>
    eb30:	b8 00 00 00 00       	mov    $0x0,%eax
    eb35:	39 d8                	cmp    %ebx,%eax
    eb37:	0f 9e c0             	setle  %al
    eb3a:	0f b6 c0             	movzbl %al,%eax
    eb3d:	89 85 e0 e5 ff ff    	mov    %eax,-0x1a20(%rbp)
    eb43:	48 83 bd 68 e3 ff ff 	cmpq   $0x0,-0x1c98(%rbp)
    eb4a:	00 
    eb4b:	74 15                	je     eb62 <func_2+0x4f26>
    eb4d:	48 8b 05 c4 85 01 00 	mov    0x185c4(%rip),%rax        # 27118 <g_677>
    eb54:	48 8b 00             	mov    (%rax),%rax
    eb57:	48 8b 00             	mov    (%rax),%rax
    eb5a:	48 8b 00             	mov    (%rax),%rax
    eb5d:	48 85 c0             	test   %rax,%rax
    eb60:	75 0b                	jne    eb6d <func_2+0x4f31>
    eb62:	0f b6 85 7c e3 ff ff 	movzbl -0x1c84(%rbp),%eax
    eb69:	84 c0                	test   %al,%al
    eb6b:	74 07                	je     eb74 <func_2+0x4f38>
    eb6d:	b8 01 00 00 00       	mov    $0x1,%eax
    eb72:	eb 05                	jmp    eb79 <func_2+0x4f3d>
    eb74:	b8 00 00 00 00       	mov    $0x0,%eax
    eb79:	85 c0                	test   %eax,%eax
    eb7b:	0f 94 c2             	sete   %dl
    eb7e:	48 8b 05 fb 81 01 00 	mov    0x181fb(%rip),%rax        # 26d80 <g_8>
    eb85:	0f b6 d2             	movzbl %dl,%edx
    eb88:	89 10                	mov    %edx,(%rax)
    eb8a:	48 83 85 58 e3 ff ff 	addq   $0x1,-0x1ca8(%rbp)
    eb91:	01 
    eb92:	48 83 bd 58 e3 ff ff 	cmpq   $0x1,-0x1ca8(%rbp)
    eb99:	01 
    eb9a:	0f 8e d1 fe ff ff    	jle    ea71 <func_2+0x4e35>
    eba0:	48 8b 05 f1 88 01 00 	mov    0x188f1(%rip),%rax        # 27498 <g_3319>
    eba7:	48 8b 00             	mov    (%rax),%rax
    ebaa:	48 85 c0             	test   %rax,%rax
    ebad:	0f 94 c0             	sete   %al
    ebb0:	0f b6 c0             	movzbl %al,%eax
    ebb3:	be 2f 00 00 00       	mov    $0x2f,%esi
    ebb8:	89 c7                	mov    %eax,%edi
    ebba:	e8 b9 9f ff ff       	callq  8b78 <safe_sub_func_uint8_t_u_u>
    ebbf:	84 c0                	test   %al,%al
    ebc1:	74 5b                	je     ec1e <func_2+0x4fe2>
    ebc3:	66 c7 85 9a e3 ff ff 	movw   $0x1,-0x1c66(%rbp)
    ebca:	01 00 
    ebcc:	0f b6 85 7c e3 ff ff 	movzbl -0x1c84(%rbp),%eax
    ebd3:	0f be c0             	movsbl %al,%eax
    ebd6:	be 01 00 00 00       	mov    $0x1,%esi
    ebdb:	89 c7                	mov    %eax,%edi
    ebdd:	e8 0c 97 ff ff       	callq  82ee <safe_lshift_func_int8_t_s_u>
    ebe2:	0f be d8             	movsbl %al,%ebx
    ebe5:	48 0f be 85 8b e3 ff 	movsbq -0x1c75(%rbp),%rax
    ebec:	ff 
    ebed:	48 be 5c ab a9 f6 43 	movabs $0x829cc43f6a9ab5c,%rsi
    ebf4:	cc 29 08 
    ebf7:	48 89 c7             	mov    %rax,%rdi
    ebfa:	e8 42 9c ff ff       	callq  8841 <safe_add_func_int64_t_s_s>
    ebff:	09 c3                	or     %eax,%ebx
    ec01:	89 da                	mov    %ebx,%edx
    ec03:	48 8b 85 70 e3 ff ff 	mov    -0x1c90(%rbp),%rax
    ec0a:	89 10                	mov    %edx,(%rax)
    ec0c:	0f b7 85 9a e3 ff ff 	movzwl -0x1c66(%rbp),%eax
    ec13:	09 85 18 e4 ff ff    	or     %eax,-0x1be8(%rbp)
    ec19:	e9 c6 02 00 00       	jmpq   eee4 <func_2+0x52a8>
    ec1e:	c7 85 a0 e4 ff ff 4d 	movl   $0x5055624d,-0x1b60(%rbp)
    ec25:	62 55 50 
    ec28:	c7 85 a4 e4 ff ff 62 	movl   $0x6d88dc62,-0x1b5c(%rbp)
    ec2f:	dc 88 6d 
    ec32:	c7 85 a8 e4 ff ff 5a 	movl   $0xce9b625a,-0x1b58(%rbp)
    ec39:	62 9b ce 
    ec3c:	c7 85 ac e4 ff ff ff 	movl   $0xffffffff,-0x1b54(%rbp)
    ec43:	ff ff ff 
    ec46:	c7 85 b0 e4 ff ff 21 	movl   $0xf5963c21,-0x1b50(%rbp)
    ec4d:	3c 96 f5 
    ec50:	c7 85 10 e4 ff ff 00 	movl   $0x0,-0x1bf0(%rbp)
    ec57:	00 00 00 
    ec5a:	48 c7 85 90 e6 ff ff 	movq   $0x0,-0x1970(%rbp)
    ec61:	00 00 00 00 
    ec65:	48 8d 85 ac e3 ff ff 	lea    -0x1c54(%rbp),%rax
    ec6c:	48 89 85 98 e6 ff ff 	mov    %rax,-0x1968(%rbp)
    ec73:	48 8d 85 b8 e5 ff ff 	lea    -0x1a48(%rbp),%rax
    ec7a:	48 89 85 a0 e6 ff ff 	mov    %rax,-0x1960(%rbp)
    ec81:	48 8d 85 bc e3 ff ff 	lea    -0x1c44(%rbp),%rax
    ec88:	48 89 85 c0 f8 ff ff 	mov    %rax,-0x740(%rbp)
    ec8f:	48 8d 05 0a 5c 01 00 	lea    0x15c0a(%rip),%rax        # 248a0 <g_1259>
    ec96:	48 89 85 c8 f8 ff ff 	mov    %rax,-0x738(%rbp)
    ec9d:	48 8d 85 bc e3 ff ff 	lea    -0x1c44(%rbp),%rax
    eca4:	48 89 85 d0 f8 ff ff 	mov    %rax,-0x730(%rbp)
    ecab:	48 8d 05 ee 5b 01 00 	lea    0x15bee(%rip),%rax        # 248a0 <g_1259>
    ecb2:	48 89 85 d8 f8 ff ff 	mov    %rax,-0x728(%rbp)
    ecb9:	48 8d 85 bc e3 ff ff 	lea    -0x1c44(%rbp),%rax
    ecc0:	48 89 85 e0 f8 ff ff 	mov    %rax,-0x720(%rbp)
    ecc7:	48 8d 05 d2 5b 01 00 	lea    0x15bd2(%rip),%rax        # 248a0 <g_1259>
    ecce:	48 89 85 e8 f8 ff ff 	mov    %rax,-0x718(%rbp)
    ecd5:	48 8d 85 bc e3 ff ff 	lea    -0x1c44(%rbp),%rax
    ecdc:	48 89 85 f0 f8 ff ff 	mov    %rax,-0x710(%rbp)
    ece3:	48 8d 05 b6 5b 01 00 	lea    0x15bb6(%rip),%rax        # 248a0 <g_1259>
    ecea:	48 89 85 f8 f8 ff ff 	mov    %rax,-0x708(%rbp)
    ecf1:	48 8d 85 bc e3 ff ff 	lea    -0x1c44(%rbp),%rax
    ecf8:	48 89 85 00 f9 ff ff 	mov    %rax,-0x700(%rbp)
    ecff:	c7 85 e0 e5 ff ff 01 	movl   $0x1,-0x1a20(%rbp)
    ed06:	00 00 00 
    ed09:	e9 c1 01 00 00       	jmpq   eecf <func_2+0x5293>
    ed0e:	c6 85 8c e3 ff ff 49 	movb   $0x49,-0x1c74(%rbp)
    ed15:	48 c7 85 30 eb ff ff 	movq   $0xfffffffffffffffa,-0x14d0(%rbp)
    ed1c:	fa ff ff ff 
    ed20:	48 c7 85 38 eb ff ff 	movq   $0xfffffffffffffffa,-0x14c8(%rbp)
    ed27:	fa ff ff ff 
    ed2b:	48 c7 85 40 eb ff ff 	movq   $0xfffffffffffffffa,-0x14c0(%rbp)
    ed32:	fa ff ff ff 
    ed36:	48 c7 85 48 eb ff ff 	movq   $0xfffffffffffffffa,-0x14b8(%rbp)
    ed3d:	fa ff ff ff 
    ed41:	48 c7 85 50 eb ff ff 	movq   $0xfffffffffffffffa,-0x14b0(%rbp)
    ed48:	fa ff ff ff 
    ed4c:	48 c7 85 58 eb ff ff 	movq   $0xfffffffffffffffa,-0x14a8(%rbp)
    ed53:	fa ff ff ff 
    ed57:	48 8d 85 c4 e3 ff ff 	lea    -0x1c3c(%rbp),%rax
    ed5e:	48 89 85 20 ee ff ff 	mov    %rax,-0x11e0(%rbp)
    ed65:	48 8d 85 c4 e3 ff ff 	lea    -0x1c3c(%rbp),%rax
    ed6c:	48 89 85 28 ee ff ff 	mov    %rax,-0x11d8(%rbp)
    ed73:	48 8d 85 c4 e3 ff ff 	lea    -0x1c3c(%rbp),%rax
    ed7a:	48 89 85 30 ee ff ff 	mov    %rax,-0x11d0(%rbp)
    ed81:	48 8d 85 c4 e3 ff ff 	lea    -0x1c3c(%rbp),%rax
    ed88:	48 89 85 38 ee ff ff 	mov    %rax,-0x11c8(%rbp)
    ed8f:	48 8d 85 c4 e3 ff ff 	lea    -0x1c3c(%rbp),%rax
    ed96:	48 89 85 40 ee ff ff 	mov    %rax,-0x11c0(%rbp)
    ed9d:	48 8d 85 c4 e3 ff ff 	lea    -0x1c3c(%rbp),%rax
    eda4:	48 89 85 48 ee ff ff 	mov    %rax,-0x11b8(%rbp)
    edab:	48 8b 05 46 83 01 00 	mov    0x18346(%rip),%rax        # 270f8 <g_501>
    edb2:	48 8b 00             	mov    (%rax),%rax
    edb5:	48 ba 1f 2c 5f dc d5 	movabs $0x4ba117d5dc5f2c1f,%rdx
    edbc:	17 a1 4b 
    edbf:	48 31 d0             	xor    %rdx,%rax
    edc2:	49 89 c4             	mov    %rax,%r12
    edc5:	48 8b 85 68 e5 ff ff 	mov    -0x1a98(%rbp),%rax
    edcc:	8b 00                	mov    (%rax),%eax
    edce:	0f b6 c0             	movzbl %al,%eax
    edd1:	89 c6                	mov    %eax,%esi
    edd3:	bf 00 00 00 00       	mov    $0x0,%edi
    edd8:	e8 b6 9d ff ff       	callq  8b93 <safe_mul_func_uint8_t_u_u>
    eddd:	0f b6 c0             	movzbl %al,%eax
    ede0:	89 c6                	mov    %eax,%esi
    ede2:	bf 01 00 00 00       	mov    $0x1,%edi
    ede7:	e8 13 99 ff ff       	callq  86ff <safe_div_func_int32_t_s_s>
    edec:	48 8b 9d 58 e3 ff ff 	mov    -0x1ca8(%rbp),%rbx
    edf3:	8b 85 b8 e5 ff ff    	mov    -0x1a48(%rbp),%eax
    edf9:	89 c2                	mov    %eax,%edx
    edfb:	48 8b 85 60 e3 ff ff 	mov    -0x1ca0(%rbp),%rax
    ee02:	8b 00                	mov    (%rax),%eax
    ee04:	f7 d0                	not    %eax
    ee06:	c1 e8 1f             	shr    $0x1f,%eax
    ee09:	0f b6 c0             	movzbl %al,%eax
    ee0c:	89 d6                	mov    %edx,%esi
    ee0e:	89 c7                	mov    %eax,%edi
    ee10:	e8 a9 9e ff ff       	callq  8cbe <safe_rshift_func_uint8_t_u_u>
    ee15:	38 85 8c e3 ff ff    	cmp    %al,-0x1c74(%rbp)
    ee1b:	0f 96 c0             	setbe  %al
    ee1e:	0f b6 c0             	movzbl %al,%eax
    ee21:	48 39 85 68 e3 ff ff 	cmp    %rax,-0x1c98(%rbp)
    ee28:	0f 94 c0             	sete   %al
    ee2b:	0f b6 c0             	movzbl %al,%eax
    ee2e:	48 89 de             	mov    %rbx,%rsi
    ee31:	48 89 c7             	mov    %rax,%rdi
    ee34:	e8 12 a2 ff ff       	callq  904b <safe_sub_func_uint64_t_u_u>
    ee39:	48 89 c2             	mov    %rax,%rdx
    ee3c:	48 8b 05 45 7f 01 00 	mov    0x17f45(%rip),%rax        # 26d88 <g_146>
    ee43:	89 10                	mov    %edx,(%rax)
    ee45:	8b 00                	mov    (%rax),%eax
    ee47:	89 c0                	mov    %eax,%eax
    ee49:	48 0b 85 58 e3 ff ff 	or     -0x1ca8(%rbp),%rax
    ee50:	48 85 c0             	test   %rax,%rax
    ee53:	74 09                	je     ee5e <func_2+0x5222>
    ee55:	83 bd 70 e4 ff ff 00 	cmpl   $0x0,-0x1b90(%rbp)
    ee5c:	75 12                	jne    ee70 <func_2+0x5234>
    ee5e:	48 8b 05 0b 88 01 00 	mov    0x1880b(%rip),%rax        # 27670 <g_4343>
    ee65:	48 8b 00             	mov    (%rax),%rax
    ee68:	48 8b 00             	mov    (%rax),%rax
    ee6b:	48 85 c0             	test   %rax,%rax
    ee6e:	74 07                	je     ee77 <func_2+0x523b>
    ee70:	b8 01 00 00 00       	mov    $0x1,%eax
    ee75:	eb 05                	jmp    ee7c <func_2+0x5240>
    ee77:	b8 00 00 00 00       	mov    $0x0,%eax
    ee7c:	0f b7 c0             	movzwl %ax,%eax
    ee7f:	be 0f 00 00 00       	mov    $0xf,%esi
    ee84:	89 c7                	mov    %eax,%edi
    ee86:	e8 ef 9f ff ff       	callq  8e7a <safe_rshift_func_uint16_t_u_u>
    ee8b:	0f b7 c0             	movzwl %ax,%eax
    ee8e:	49 39 c4             	cmp    %rax,%r12
    ee91:	0f 9d c0             	setge  %al
    ee94:	0f b6 c8             	movzbl %al,%ecx
    ee97:	48 8b 05 42 88 01 00 	mov    0x18842(%rip),%rax        # 276e0 <g_4764>
    ee9e:	8b 10                	mov    (%rax),%edx
    eea0:	48 8b 05 39 88 01 00 	mov    0x18839(%rip),%rax        # 276e0 <g_4764>
    eea7:	31 ca                	xor    %ecx,%edx
    eea9:	89 10                	mov    %edx,(%rax)
    eeab:	83 85 10 e4 ff ff 01 	addl   $0x1,-0x1bf0(%rbp)
    eeb2:	48 8d 85 e0 e5 ff ff 	lea    -0x1a20(%rbp),%rax
    eeb9:	48 89 85 58 e6 ff ff 	mov    %rax,-0x19a8(%rbp)
    eec0:	8b 85 e0 e5 ff ff    	mov    -0x1a20(%rbp),%eax
    eec6:	83 e8 01             	sub    $0x1,%eax
    eec9:	89 85 e0 e5 ff ff    	mov    %eax,-0x1a20(%rbp)
    eecf:	8b 85 e0 e5 ff ff    	mov    -0x1a20(%rbp),%eax
    eed5:	85 c0                	test   %eax,%eax
    eed7:	0f 89 31 fe ff ff    	jns    ed0e <func_2+0x50d2>
    eedd:	83 85 24 e4 ff ff 01 	addl   $0x1,-0x1bdc(%rbp)
    eee4:	48 8b 85 80 e6 ff ff 	mov    -0x1980(%rbp),%rax
    eeeb:	48 8d 95 d0 f4 ff ff 	lea    -0xb30(%rbp),%rdx
    eef2:	48 81 c2 cc 02 00 00 	add    $0x2cc,%rdx
    eef9:	48 89 10             	mov    %rdx,(%rax)
    eefc:	48 8b 85 60 e6 ff ff 	mov    -0x19a0(%rbp),%rax
    ef03:	48 3b 85 88 e6 ff ff 	cmp    -0x1978(%rbp),%rax
    ef0a:	0f 94 c0             	sete   %al
    ef0d:	0f b6 c0             	movzbl %al,%eax
    ef10:	48 39 85 68 e3 ff ff 	cmp    %rax,-0x1c98(%rbp)
    ef17:	0f 9e c0             	setle  %al
    ef1a:	44 0f b6 e8          	movzbl %al,%r13d
    ef1e:	48 8b 85 68 e5 ff ff 	mov    -0x1a98(%rbp),%rax
    ef25:	8b 08                	mov    (%rax),%ecx
    ef27:	48 8b 85 60 e3 ff ff 	mov    -0x1ca0(%rbp),%rax
    ef2e:	8b 10                	mov    (%rax),%edx
    ef30:	48 8b 85 68 e5 ff ff 	mov    -0x1a98(%rbp),%rax
    ef37:	31 ca                	xor    %ecx,%edx
    ef39:	89 10                	mov    %edx,(%rax)
    ef3b:	48 8b 85 58 e3 ff ff 	mov    -0x1ca8(%rbp),%rax
    ef42:	89 85 80 e4 ff ff    	mov    %eax,-0x1b80(%rbp)
    ef48:	8b 85 80 e4 ff ff    	mov    -0x1b80(%rbp),%eax
    ef4e:	48 63 d0             	movslq %eax,%rdx
    ef51:	48 8b 85 68 e5 ff ff 	mov    -0x1a98(%rbp),%rax
    ef58:	8b 00                	mov    (%rax),%eax
    ef5a:	48 98                	cltq   
    ef5c:	48 89 d6             	mov    %rdx,%rsi
    ef5f:	48 89 c7             	mov    %rax,%rdi
    ef62:	e8 90 9a ff ff       	callq  89f7 <safe_div_func_int64_t_s_s>
    ef67:	48 39 85 68 e3 ff ff 	cmp    %rax,-0x1c98(%rbp)
    ef6e:	0f 9c c0             	setl   %al
    ef71:	0f b6 c0             	movzbl %al,%eax
    ef74:	89 85 6c e4 ff ff    	mov    %eax,-0x1b94(%rbp)
    ef7a:	48 8b 05 a7 82 01 00 	mov    0x182a7(%rip),%rax        # 27228 <g_1125>
    ef81:	48 8b 00             	mov    (%rax),%rax
    ef84:	48 8b 00             	mov    (%rax),%rax
    ef87:	48 8b 00             	mov    (%rax),%rax
    ef8a:	0f b6 00             	movzbl (%rax),%eax
    ef8d:	0f b6 d8             	movzbl %al,%ebx
    ef90:	44 0f be a5 8b e3 ff 	movsbl -0x1c75(%rbp),%r12d
    ef97:	ff 
    ef98:	be 00 00 00 00       	mov    $0x0,%esi
    ef9d:	bf 01 00 00 00       	mov    $0x1,%edi
    efa2:	e8 fa 92 ff ff       	callq  82a1 <safe_lshift_func_int8_t_s_s>
    efa7:	0f be c0             	movsbl %al,%eax
    efaa:	44 89 e6             	mov    %r12d,%esi
    efad:	89 c7                	mov    %eax,%edi
    efaf:	e8 1f 94 ff ff       	callq  83d3 <safe_sub_func_int16_t_s_s>
    efb4:	0f b6 c0             	movzbl %al,%eax
    efb7:	89 de                	mov    %ebx,%esi
    efb9:	89 c7                	mov    %eax,%edi
    efbb:	e8 9a 9b ff ff       	callq  8b5a <safe_add_func_uint8_t_u_u>
    efc0:	0f b6 c0             	movzbl %al,%eax
    efc3:	39 85 6c e4 ff ff    	cmp    %eax,-0x1b94(%rbp)
    efc9:	0f 9f c0             	setg   %al
    efcc:	0f b6 c0             	movzbl %al,%eax
    efcf:	41 39 c5             	cmp    %eax,%r13d
    efd2:	0f 9d c0             	setge  %al
    efd5:	0f b6 d0             	movzbl %al,%edx
    efd8:	48 8b 85 80 e6 ff ff 	mov    -0x1980(%rbp),%rax
    efdf:	48 8b 00             	mov    (%rax),%rax
    efe2:	8b 00                	mov    (%rax),%eax
    efe4:	39 c2                	cmp    %eax,%edx
    efe6:	0f 94 c0             	sete   %al
    efe9:	0f b6 d0             	movzbl %al,%edx
    efec:	48 8b 05 75 86 01 00 	mov    0x18675(%rip),%rax        # 27668 <g_4155>
    eff3:	48 8b 00             	mov    (%rax),%rax
    eff6:	48 8b 00             	mov    (%rax),%rax
    eff9:	48 8b 00             	mov    (%rax),%rax
    effc:	0f b7 00             	movzwl (%rax),%eax
    efff:	98                   	cwtl   
    f000:	21 d0                	and    %edx,%eax
    f002:	39 85 7c e4 ff ff    	cmp    %eax,-0x1b84(%rbp)
    f008:	0f 9f c0             	setg   %al
    f00b:	0f b6 c0             	movzbl %al,%eax
    f00e:	be 00 00 00 00       	mov    $0x0,%esi
    f013:	89 c7                	mov    %eax,%edi
    f015:	e8 99 93 ff ff       	callq  83b3 <safe_add_func_int16_t_s_s>
    f01a:	0f bf d0             	movswl %ax,%edx
    f01d:	48 8b 85 80 e6 ff ff 	mov    -0x1980(%rbp),%rax
    f024:	48 8b 00             	mov    (%rax),%rax
    f027:	8b 00                	mov    (%rax),%eax
    f029:	31 c2                	xor    %eax,%edx
    f02b:	0f be 85 8b e3 ff ff 	movsbl -0x1c75(%rbp),%eax
    f032:	39 c2                	cmp    %eax,%edx
    f034:	0f 95 c0             	setne  %al
    f037:	0f b6 d0             	movzbl %al,%edx
    f03a:	8b 85 e0 e5 ff ff    	mov    -0x1a20(%rbp),%eax
    f040:	09 d0                	or     %edx,%eax
    f042:	89 85 e0 e5 ff ff    	mov    %eax,-0x1a20(%rbp)
    f048:	0f b6 05 79 59 01 00 	movzbl 0x15979(%rip),%eax        # 249c8 <g_1820>
    f04f:	83 c0 01             	add    $0x1,%eax
    f052:	88 05 70 59 01 00    	mov    %al,0x15970(%rip)        # 249c8 <g_1820>
    f058:	0f b6 05 69 59 01 00 	movzbl 0x15969(%rip),%eax        # 249c8 <g_1820>
    f05f:	3c 04                	cmp    $0x4,%al
    f061:	0f 8e 49 f9 ff ff    	jle    e9b0 <func_2+0x4d74>
    f067:	48 8b 05 82 86 01 00 	mov    0x18682(%rip),%rax        # 276f0 <g_5136>
    f06e:	48 8b 00             	mov    (%rax),%rax
    f071:	eb 07                	jmp    f07a <func_2+0x543e>
    f073:	48 8b 85 60 e3 ff ff 	mov    -0x1ca0(%rbp),%rax
    f07a:	48 8b 5d c8          	mov    -0x38(%rbp),%rbx
    f07e:	64 48 33 1c 25 28 00 	xor    %fs:0x28,%rbx
    f085:	00 00 
    f087:	74 05                	je     f08e <func_2+0x5452>
    f089:	e8 e2 8f ff ff       	callq  8070 <__stack_chk_fail@plt>
    f08e:	48 81 c4 88 1c 00 00 	add    $0x1c88,%rsp
    f095:	5b                   	pop    %rbx
    f096:	41 5c                	pop    %r12
    f098:	41 5d                	pop    %r13
    f09a:	41 5e                	pop    %r14
    f09c:	41 5f                	pop    %r15
    f09e:	5d                   	pop    %rbp
    f09f:	c3                   	retq   

000000000000f0a0 <func_10>:
    f0a0:	f3 0f 1e fa          	endbr64 
    f0a4:	55                   	push   %rbp
    f0a5:	48 89 e5             	mov    %rsp,%rbp
    f0a8:	48 83 ec 70          	sub    $0x70,%rsp
    f0ac:	48 89 7d 98          	mov    %rdi,-0x68(%rbp)
    f0b0:	64 48 8b 04 25 28 00 	mov    %fs:0x28,%rax
    f0b7:	00 00 
    f0b9:	48 89 45 f8          	mov    %rax,-0x8(%rbp)
    f0bd:	31 c0                	xor    %eax,%eax
    f0bf:	48 8d 05 aa 57 01 00 	lea    0x157aa(%rip),%rax        # 24870 <g_355>
    f0c6:	48 89 45 a8          	mov    %rax,-0x58(%rbp)
    f0ca:	48 8d 05 d7 7c 01 00 	lea    0x17cd7(%rip),%rax        # 26da8 <g_236+0x8>
    f0d1:	48 89 45 b0          	mov    %rax,-0x50(%rbp)
    f0d5:	48 8d 05 cc 7c 01 00 	lea    0x17ccc(%rip),%rax        # 26da8 <g_236+0x8>
    f0dc:	48 89 45 b8          	mov    %rax,-0x48(%rbp)
    f0e0:	48 8d 05 c1 7c 01 00 	lea    0x17cc1(%rip),%rax        # 26da8 <g_236+0x8>
    f0e7:	48 89 45 c0          	mov    %rax,-0x40(%rbp)
    f0eb:	48 8d 05 b6 7c 01 00 	lea    0x17cb6(%rip),%rax        # 26da8 <g_236+0x8>
    f0f2:	48 89 45 c8          	mov    %rax,-0x38(%rbp)
    f0f6:	48 8d 05 ab 7c 01 00 	lea    0x17cab(%rip),%rax        # 26da8 <g_236+0x8>
    f0fd:	48 89 45 d0          	mov    %rax,-0x30(%rbp)
    f101:	48 8d 05 a0 7c 01 00 	lea    0x17ca0(%rip),%rax        # 26da8 <g_236+0x8>
    f108:	48 89 45 d8          	mov    %rax,-0x28(%rbp)
    f10c:	48 8d 05 95 7c 01 00 	lea    0x17c95(%rip),%rax        # 26da8 <g_236+0x8>
    f113:	48 89 45 e0          	mov    %rax,-0x20(%rbp)
    f117:	48 8d 05 8a 7c 01 00 	lea    0x17c8a(%rip),%rax        # 26da8 <g_236+0x8>
    f11e:	48 89 45 e8          	mov    %rax,-0x18(%rbp)
    f122:	48 8b 45 a8          	mov    -0x58(%rbp),%rax
    f126:	48 89 45 98          	mov    %rax,-0x68(%rbp)
    f12a:	48 8b 45 98          	mov    -0x68(%rbp),%rax
    f12e:	8b 00                	mov    (%rax),%eax
    f130:	48 8b 55 f8          	mov    -0x8(%rbp),%rdx
    f134:	64 48 33 14 25 28 00 	xor    %fs:0x28,%rdx
    f13b:	00 00 
    f13d:	74 05                	je     f144 <func_10+0xa4>
    f13f:	e8 2c 8f ff ff       	callq  8070 <__stack_chk_fail@plt>
    f144:	c9                   	leaveq 
    f145:	c3                   	retq   

000000000000f146 <func_12>:
    f146:	f3 0f 1e fa          	endbr64 
    f14a:	55                   	push   %rbp
    f14b:	48 89 e5             	mov    %rsp,%rbp
    f14e:	48 81 ec d0 01 00 00 	sub    $0x1d0,%rsp
    f155:	48 89 bd 38 fe ff ff 	mov    %rdi,-0x1c8(%rbp)
    f15c:	64 48 8b 04 25 28 00 	mov    %fs:0x28,%rax
    f163:	00 00 
    f165:	48 89 45 f8          	mov    %rax,-0x8(%rbp)
    f169:	31 c0                	xor    %eax,%eax
    f16b:	48 8d 05 06 57 01 00 	lea    0x15706(%rip),%rax        # 24878 <g_370>
    f172:	48 89 85 78 fe ff ff 	mov    %rax,-0x188(%rbp)
    f179:	48 8d 05 a8 4e 01 00 	lea    0x14ea8(%rip),%rax        # 24028 <g_62>
    f180:	48 89 85 80 fe ff ff 	mov    %rax,-0x180(%rbp)
    f187:	48 8d 05 12 57 01 00 	lea    0x15712(%rip),%rax        # 248a0 <g_1259>
    f18e:	48 89 85 88 fe ff ff 	mov    %rax,-0x178(%rbp)
    f195:	c7 85 50 fe ff ff 05 	movl   $0x5,-0x1b0(%rbp)
    f19c:	00 00 00 
    f19f:	48 8d 05 d2 56 01 00 	lea    0x156d2(%rip),%rax        # 24878 <g_370>
    f1a6:	48 89 85 90 fe ff ff 	mov    %rax,-0x170(%rbp)
    f1ad:	48 c7 85 98 fe ff ff 	movq   $0x0,-0x168(%rbp)
    f1b4:	00 00 00 00 
    f1b8:	c7 85 40 ff ff ff 68 	movl   $0x9ec46868,-0xc0(%rbp)
    f1bf:	68 c4 9e 
    f1c2:	c7 85 44 ff ff ff 68 	movl   $0x9ec46868,-0xbc(%rbp)
    f1c9:	68 c4 9e 
    f1cc:	c7 85 48 ff ff ff 68 	movl   $0x9ec46868,-0xb8(%rbp)
    f1d3:	68 c4 9e 
    f1d6:	c7 85 4c ff ff ff 68 	movl   $0x9ec46868,-0xb4(%rbp)
    f1dd:	68 c4 9e 
    f1e0:	c7 85 50 ff ff ff 68 	movl   $0x9ec46868,-0xb0(%rbp)
    f1e7:	68 c4 9e 
    f1ea:	c7 85 54 ff ff ff 68 	movl   $0x9ec46868,-0xac(%rbp)
    f1f1:	68 c4 9e 
    f1f4:	c7 85 58 ff ff ff 68 	movl   $0x9ec46868,-0xa8(%rbp)
    f1fb:	68 c4 9e 
    f1fe:	c7 85 5c ff ff ff 68 	movl   $0x9ec46868,-0xa4(%rbp)
    f205:	68 c4 9e 
    f208:	48 8d 05 1d 59 01 00 	lea    0x1591d(%rip),%rax        # 24b2c <g_3411>
    f20f:	48 89 85 a0 fe ff ff 	mov    %rax,-0x160(%rbp)
    f216:	48 8d 05 0b 4e 01 00 	lea    0x14e0b(%rip),%rax        # 24028 <g_62>
    f21d:	48 89 45 a0          	mov    %rax,-0x60(%rbp)
    f221:	48 8d 05 78 56 01 00 	lea    0x15678(%rip),%rax        # 248a0 <g_1259>
    f228:	48 89 45 a8          	mov    %rax,-0x58(%rbp)
    f22c:	48 8d 05 6d 56 01 00 	lea    0x1566d(%rip),%rax        # 248a0 <g_1259>
    f233:	48 89 45 b0          	mov    %rax,-0x50(%rbp)
    f237:	48 8d 05 ea 4d 01 00 	lea    0x14dea(%rip),%rax        # 24028 <g_62>
    f23e:	48 89 45 b8          	mov    %rax,-0x48(%rbp)
    f242:	48 8d 05 57 56 01 00 	lea    0x15657(%rip),%rax        # 248a0 <g_1259>
    f249:	48 89 45 c0          	mov    %rax,-0x40(%rbp)
    f24d:	48 8d 05 4c 56 01 00 	lea    0x1564c(%rip),%rax        # 248a0 <g_1259>
    f254:	48 89 45 c8          	mov    %rax,-0x38(%rbp)
    f258:	48 8d 05 c9 4d 01 00 	lea    0x14dc9(%rip),%rax        # 24028 <g_62>
    f25f:	48 89 45 d0          	mov    %rax,-0x30(%rbp)
    f263:	48 8d 05 36 56 01 00 	lea    0x15636(%rip),%rax        # 248a0 <g_1259>
    f26a:	48 89 45 d8          	mov    %rax,-0x28(%rbp)
    f26e:	48 8d 05 2b 56 01 00 	lea    0x1562b(%rip),%rax        # 248a0 <g_1259>
    f275:	48 89 45 e0          	mov    %rax,-0x20(%rbp)
    f279:	c6 85 4c fe ff ff fa 	movb   $0xfa,-0x1b4(%rbp)
    f280:	66 c7 85 4e fe ff ff 	movw   $0x1,-0x1b2(%rbp)
    f287:	01 00 
    f289:	48 8d 05 42 57 01 00 	lea    0x15742(%rip),%rax        # 249d2 <g_1911+0x2>
    f290:	48 89 85 a8 fe ff ff 	mov    %rax,-0x158(%rbp)
    f297:	48 c7 85 b0 fe ff ff 	movq   $0x0,-0x150(%rbp)
    f29e:	00 00 00 00 
    f2a2:	48 c7 85 b8 fe ff ff 	movq   $0x0,-0x148(%rbp)
    f2a9:	00 00 00 00 
    f2ad:	48 8d 05 4c 7f 01 00 	lea    0x17f4c(%rip),%rax        # 27200 <g_1023>
    f2b4:	48 89 85 c0 fe ff ff 	mov    %rax,-0x140(%rbp)
    f2bb:	48 8d 05 ee 81 01 00 	lea    0x181ee(%rip),%rax        # 274b0 <g_3596>
    f2c2:	48 89 85 c8 fe ff ff 	mov    %rax,-0x138(%rbp)
    f2c9:	c7 85 58 fe ff ff ff 	movl   $0xffffffff,-0x1a8(%rbp)
    f2d0:	ff ff ff 
    f2d3:	48 8d 05 9e 81 01 00 	lea    0x1819e(%rip),%rax        # 27478 <g_2573>
    f2da:	48 89 85 d0 fe ff ff 	mov    %rax,-0x130(%rbp)
    f2e1:	c7 85 5c fe ff ff 01 	movl   $0x1,-0x1a4(%rbp)
    f2e8:	00 00 00 
    f2eb:	48 8d 05 c6 56 01 00 	lea    0x156c6(%rip),%rax        # 249b8 <g_1645>
    f2f2:	48 89 85 d8 fe ff ff 	mov    %rax,-0x128(%rbp)
    f2f9:	c7 85 60 fe ff ff d3 	movl   $0x627216d3,-0x1a0(%rbp)
    f300:	16 72 62 
    f303:	48 c7 85 e0 fe ff ff 	movq   $0xffffffffffffffff,-0x120(%rbp)
    f30a:	ff ff ff ff 
    f30e:	c7 85 64 fe ff ff ff 	movl   $0xffffffff,-0x19c(%rbp)
    f315:	ff ff ff 
    f318:	c7 85 68 fe ff ff 4a 	movl   $0x9e92bf4a,-0x198(%rbp)
    f31f:	bf 92 9e 
    f322:	48 8d 05 9f 80 01 00 	lea    0x1809f(%rip),%rax        # 273c8 <g_1496>
    f329:	48 89 85 e8 fe ff ff 	mov    %rax,-0x118(%rbp)
    f330:	48 8d 05 71 8c 01 00 	lea    0x18c71(%rip),%rax        # 27fa8 <g_1059>
    f337:	48 89 85 70 fe ff ff 	mov    %rax,-0x190(%rbp)
    f33e:	c7 85 00 ff ff ff fc 	movl   $0xfffffffc,-0x100(%rbp)
    f345:	ff ff ff 
    f348:	c7 85 04 ff ff ff fc 	movl   $0xfffffffc,-0xfc(%rbp)
    f34f:	ff ff ff 
    f352:	c7 85 08 ff ff ff fc 	movl   $0xfffffffc,-0xf8(%rbp)
    f359:	ff ff ff 
    f35c:	c7 85 0c ff ff ff fc 	movl   $0xfffffffc,-0xf4(%rbp)
    f363:	ff ff ff 
    f366:	c7 85 10 ff ff ff fc 	movl   $0xfffffffc,-0xf0(%rbp)
    f36d:	ff ff ff 
    f370:	c7 85 6c fe ff ff 00 	movl   $0x0,-0x194(%rbp)
    f377:	00 00 00 
    f37a:	c6 85 4d fe ff ff 09 	movb   $0x9,-0x1b3(%rbp)
    f381:	48 8d 85 50 fe ff ff 	lea    -0x1b0(%rbp),%rax
    f388:	48 89 85 f0 fe ff ff 	mov    %rax,-0x110(%rbp)
    f38f:	48 c7 85 f8 fe ff ff 	movq   $0x0,-0x108(%rbp)
    f396:	00 00 00 00 
    f39a:	c7 85 54 fe ff ff 00 	movl   $0x0,-0x1ac(%rbp)
    f3a1:	00 00 00 
    f3a4:	eb 14                	jmp    f3ba <func_12+0x274>
    f3a6:	8b 85 54 fe ff ff    	mov    -0x1ac(%rbp),%eax
    f3ac:	48 98                	cltq   
    f3ae:	c6 44 05 f0 01       	movb   $0x1,-0x10(%rbp,%rax,1)
    f3b3:	83 85 54 fe ff ff 01 	addl   $0x1,-0x1ac(%rbp)
    f3ba:	83 bd 54 fe ff ff 07 	cmpl   $0x7,-0x1ac(%rbp)
    f3c1:	7e e3                	jle    f3a6 <func_12+0x260>
    f3c3:	c7 85 54 fe ff ff 00 	movl   $0x0,-0x1ac(%rbp)
    f3ca:	00 00 00 
    f3cd:	eb 1e                	jmp    f3ed <func_12+0x2a7>
    f3cf:	8b 85 54 fe ff ff    	mov    -0x1ac(%rbp),%eax
    f3d5:	48 98                	cltq   
    f3d7:	48 8d 15 92 54 01 00 	lea    0x15492(%rip),%rdx        # 24870 <g_355>
    f3de:	48 89 94 c5 60 ff ff 	mov    %rdx,-0xa0(%rbp,%rax,8)
    f3e5:	ff 
    f3e6:	83 85 54 fe ff ff 01 	addl   $0x1,-0x1ac(%rbp)
    f3ed:	83 bd 54 fe ff ff 07 	cmpl   $0x7,-0x1ac(%rbp)
    f3f4:	7e d9                	jle    f3cf <func_12+0x289>
    f3f6:	c7 85 54 fe ff ff 00 	movl   $0x0,-0x1ac(%rbp)
    f3fd:	00 00 00 
    f400:	eb 1e                	jmp    f420 <func_12+0x2da>
    f402:	8b 85 54 fe ff ff    	mov    -0x1ac(%rbp),%eax
    f408:	48 98                	cltq   
    f40a:	48 8d 95 70 fe ff ff 	lea    -0x190(%rbp),%rdx
    f411:	48 89 94 c5 20 ff ff 	mov    %rdx,-0xe0(%rbp,%rax,8)
    f418:	ff 
    f419:	83 85 54 fe ff ff 01 	addl   $0x1,-0x1ac(%rbp)
    f420:	83 bd 54 fe ff ff 02 	cmpl   $0x2,-0x1ac(%rbp)
    f427:	7e d9                	jle    f402 <func_12+0x2bc>
    f429:	0f b6 85 4c fe ff ff 	movzbl -0x1b4(%rbp),%eax
    f430:	83 e8 01             	sub    $0x1,%eax
    f433:	88 85 4c fe ff ff    	mov    %al,-0x1b4(%rbp)
    f439:	48 8b 85 f8 fe ff ff 	mov    -0x108(%rbp),%rax
    f440:	48 8b 4d f8          	mov    -0x8(%rbp),%rcx
    f444:	64 48 33 0c 25 28 00 	xor    %fs:0x28,%rcx
    f44b:	00 00 
    f44d:	74 05                	je     f454 <func_12+0x30e>
    f44f:	e8 1c 8c ff ff       	callq  8070 <__stack_chk_fail@plt>
    f454:	c9                   	leaveq 
    f455:	c3                   	retq   

000000000000f456 <func_16>:
    f456:	f3 0f 1e fa          	endbr64 
    f45a:	55                   	push   %rbp
    f45b:	48 89 e5             	mov    %rsp,%rbp
    f45e:	41 57                	push   %r15
    f460:	41 56                	push   %r14
    f462:	41 55                	push   %r13
    f464:	41 54                	push   %r12
    f466:	53                   	push   %rbx
    f467:	48 81 ec a8 0f 00 00 	sub    $0xfa8,%rsp
    f46e:	48 89 bd 48 f0 ff ff 	mov    %rdi,-0xfb8(%rbp)
    f475:	48 89 b5 40 f0 ff ff 	mov    %rsi,-0xfc0(%rbp)
    f47c:	64 48 8b 04 25 28 00 	mov    %fs:0x28,%rax
    f483:	00 00 
    f485:	48 89 45 c8          	mov    %rax,-0x38(%rbp)
    f489:	31 c0                	xor    %eax,%eax
    f48b:	c6 85 54 f0 ff ff fe 	movb   $0xfe,-0xfac(%rbp)
    f492:	48 c7 85 70 f1 ff ff 	movq   $0x2,-0xe90(%rbp)
    f499:	02 00 00 00 
    f49d:	48 c7 85 68 f1 ff ff 	movq   $0xffffffffffffffff,-0xe98(%rbp)
    f4a4:	ff ff ff ff 
    f4a8:	48 c7 85 78 f1 ff ff 	movq   $0x0,-0xe88(%rbp)
    f4af:	00 00 00 00 
    f4b3:	48 8d 05 46 55 01 00 	lea    0x15546(%rip),%rax        # 24a00 <g_1916>
    f4ba:	48 89 85 80 f1 ff ff 	mov    %rax,-0xe80(%rbp)
    f4c1:	48 8d 05 70 55 01 00 	lea    0x15570(%rip),%rax        # 24a38 <g_2023>
    f4c8:	48 89 85 88 f1 ff ff 	mov    %rax,-0xe78(%rbp)
    f4cf:	48 8d 85 54 f0 ff ff 	lea    -0xfac(%rbp),%rax
    f4d6:	48 89 85 30 f4 ff ff 	mov    %rax,-0xbd0(%rbp)
    f4dd:	48 8d 85 54 f0 ff ff 	lea    -0xfac(%rbp),%rax
    f4e4:	48 89 85 38 f4 ff ff 	mov    %rax,-0xbc8(%rbp)
    f4eb:	48 8d 85 54 f0 ff ff 	lea    -0xfac(%rbp),%rax
    f4f2:	48 89 85 40 f4 ff ff 	mov    %rax,-0xbc0(%rbp)
    f4f9:	48 8d 85 54 f0 ff ff 	lea    -0xfac(%rbp),%rax
    f500:	48 89 85 48 f4 ff ff 	mov    %rax,-0xbb8(%rbp)
    f507:	48 8d 85 54 f0 ff ff 	lea    -0xfac(%rbp),%rax
    f50e:	48 89 85 50 f4 ff ff 	mov    %rax,-0xbb0(%rbp)
    f515:	48 8d 85 54 f0 ff ff 	lea    -0xfac(%rbp),%rax
    f51c:	48 89 85 58 f4 ff ff 	mov    %rax,-0xba8(%rbp)
    f523:	48 8d 85 54 f0 ff ff 	lea    -0xfac(%rbp),%rax
    f52a:	48 89 85 60 f4 ff ff 	mov    %rax,-0xba0(%rbp)
    f531:	48 8d 85 54 f0 ff ff 	lea    -0xfac(%rbp),%rax
    f538:	48 89 85 68 f4 ff ff 	mov    %rax,-0xb98(%rbp)
    f53f:	48 8d 85 54 f0 ff ff 	lea    -0xfac(%rbp),%rax
    f546:	48 89 85 70 f4 ff ff 	mov    %rax,-0xb90(%rbp)
    f54d:	48 b8 e9 a7 18 cf ba 	movabs $0x9f0a5dbacf18a7e9,%rax
    f554:	5d 0a 9f 
    f557:	48 89 85 90 f1 ff ff 	mov    %rax,-0xe70(%rbp)
    f55e:	48 c7 85 98 f1 ff ff 	movq   $0x0,-0xe68(%rbp)
    f565:	00 00 00 00 
    f569:	48 c7 85 30 f1 ff ff 	movq   $0x0,-0xed0(%rbp)
    f570:	00 00 00 00 
    f574:	48 8d 85 30 f1 ff ff 	lea    -0xed0(%rbp),%rax
    f57b:	48 89 85 a0 f1 ff ff 	mov    %rax,-0xe60(%rbp)
    f582:	48 8d 05 b7 8a 01 00 	lea    0x18ab7(%rip),%rax        # 28040 <g_2442>
    f589:	48 89 85 a8 f1 ff ff 	mov    %rax,-0xe58(%rbp)
    f590:	48 c7 85 b0 f1 ff ff 	movq   $0x9,-0xe50(%rbp)
    f597:	09 00 00 00 
    f59b:	66 c7 85 58 f0 ff ff 	movw   $0x9163,-0xfa8(%rbp)
    f5a2:	63 91 
    f5a4:	48 8d 05 b5 8a 01 00 	lea    0x18ab5(%rip),%rax        # 28060 <g_3881>
    f5ab:	48 89 85 38 f1 ff ff 	mov    %rax,-0xec8(%rbp)
    f5b2:	48 8d 85 38 f1 ff ff 	lea    -0xec8(%rbp),%rax
    f5b9:	48 89 85 b8 f1 ff ff 	mov    %rax,-0xe48(%rbp)
    f5c0:	48 8d 05 49 7b 01 00 	lea    0x17b49(%rip),%rax        # 27110 <g_573>
    f5c7:	48 89 85 c0 f1 ff ff 	mov    %rax,-0xe40(%rbp)
    f5ce:	48 c7 85 c8 f1 ff ff 	movq   $0x1,-0xe38(%rbp)
    f5d5:	01 00 00 00 
    f5d9:	c7 85 64 f0 ff ff 00 	movl   $0x0,-0xf9c(%rbp)
    f5e0:	00 00 00 
    f5e3:	eb 1e                	jmp    f603 <func_16+0x1ad>
    f5e5:	8b 85 64 f0 ff ff    	mov    -0xf9c(%rbp),%eax
    f5eb:	48 98                	cltq   
    f5ed:	48 8d 15 a4 7e 01 00 	lea    0x17ea4(%rip),%rdx        # 27498 <g_3319>
    f5f4:	48 89 94 c5 20 f3 ff 	mov    %rdx,-0xce0(%rbp,%rax,8)
    f5fb:	ff 
    f5fc:	83 85 64 f0 ff ff 01 	addl   $0x1,-0xf9c(%rbp)
    f603:	83 bd 64 f0 ff ff 02 	cmpl   $0x2,-0xf9c(%rbp)
    f60a:	7e d9                	jle    f5e5 <func_16+0x18f>
    f60c:	c7 85 64 f0 ff ff 00 	movl   $0x0,-0xf9c(%rbp)
    f613:	00 00 00 
    f616:	eb 1b                	jmp    f633 <func_16+0x1dd>
    f618:	8b 85 64 f0 ff ff    	mov    -0xf9c(%rbp),%eax
    f61e:	48 98                	cltq   
    f620:	48 c7 84 c5 80 f4 ff 	movq   $0x0,-0xb80(%rbp,%rax,8)
    f627:	ff 00 00 00 00 
    f62c:	83 85 64 f0 ff ff 01 	addl   $0x1,-0xf9c(%rbp)
    f633:	83 bd 64 f0 ff ff 09 	cmpl   $0x9,-0xf9c(%rbp)
    f63a:	7e dc                	jle    f618 <func_16+0x1c2>
    f63c:	c7 85 64 f0 ff ff 00 	movl   $0x0,-0xf9c(%rbp)
    f643:	00 00 00 
    f646:	eb 6f                	jmp    f6b7 <func_16+0x261>
    f648:	c7 85 68 f0 ff ff 00 	movl   $0x0,-0xf98(%rbp)
    f64f:	00 00 00 
    f652:	eb 53                	jmp    f6a7 <func_16+0x251>
    f654:	c7 85 6c f0 ff ff 00 	movl   $0x0,-0xf94(%rbp)
    f65b:	00 00 00 
    f65e:	eb 37                	jmp    f697 <func_16+0x241>
    f660:	8b 85 6c f0 ff ff    	mov    -0xf94(%rbp),%eax
    f666:	48 98                	cltq   
    f668:	8b 95 64 f0 ff ff    	mov    -0xf9c(%rbp),%edx
    f66e:	48 63 ca             	movslq %edx,%rcx
    f671:	8b 95 68 f0 ff ff    	mov    -0xf98(%rbp),%edx
    f677:	48 63 d2             	movslq %edx,%rdx
    f67a:	48 01 ca             	add    %rcx,%rdx
    f67d:	48 c1 e2 02          	shl    $0x2,%rdx
    f681:	48 01 d0             	add    %rdx,%rax
    f684:	48 c7 84 c5 60 f3 ff 	movq   $0x5,-0xca0(%rbp,%rax,8)
    f68b:	ff 05 00 00 00 
    f690:	83 85 6c f0 ff ff 01 	addl   $0x1,-0xf94(%rbp)
    f697:	83 bd 6c f0 ff ff 03 	cmpl   $0x3,-0xf94(%rbp)
    f69e:	7e c0                	jle    f660 <func_16+0x20a>
    f6a0:	83 85 68 f0 ff ff 01 	addl   $0x1,-0xf98(%rbp)
    f6a7:	83 bd 68 f0 ff ff 00 	cmpl   $0x0,-0xf98(%rbp)
    f6ae:	7e a4                	jle    f654 <func_16+0x1fe>
    f6b0:	83 85 64 f0 ff ff 01 	addl   $0x1,-0xf9c(%rbp)
    f6b7:	83 bd 64 f0 ff ff 00 	cmpl   $0x0,-0xf9c(%rbp)
    f6be:	7e 88                	jle    f648 <func_16+0x1f2>
    f6c0:	48 c7 05 bd 51 01 00 	movq   $0x0,0x151bd(%rip)        # 24888 <g_505>
    f6c7:	00 00 00 00 
    f6cb:	e9 3d 0b 00 00       	jmpq   1020d <func_16+0xdb7>
    f6d0:	48 8d 05 c1 7d 01 00 	lea    0x17dc1(%rip),%rax        # 27498 <g_3319>
    f6d7:	48 89 85 98 f2 ff ff 	mov    %rax,-0xd68(%rbp)
    f6de:	48 b8 7c 13 c7 41 63 	movabs $0x67ac9b6341c7137c,%rax
    f6e5:	9b ac 67 
    f6e8:	48 89 85 a0 f2 ff ff 	mov    %rax,-0xd60(%rbp)
    f6ef:	48 c7 85 a8 f2 ff ff 	movq   $0x0,-0xd58(%rbp)
    f6f6:	00 00 00 00 
    f6fa:	48 c7 85 d0 f4 ff ff 	movq   $0x0,-0xb30(%rbp)
    f701:	00 00 00 00 
    f705:	48 c7 85 d8 f4 ff ff 	movq   $0x0,-0xb28(%rbp)
    f70c:	00 00 00 00 
    f710:	48 c7 85 e0 f4 ff ff 	movq   $0x0,-0xb20(%rbp)
    f717:	00 00 00 00 
    f71b:	48 b8 f2 15 d9 62 98 	movabs $0x53d5ff9862d915f2,%rax
    f722:	ff d5 53 
    f725:	48 89 85 e8 f4 ff ff 	mov    %rax,-0xb18(%rbp)
    f72c:	48 89 85 f0 f4 ff ff 	mov    %rax,-0xb10(%rbp)
    f733:	48 c7 85 f8 f4 ff ff 	movq   $0x0,-0xb08(%rbp)
    f73a:	00 00 00 00 
    f73e:	48 89 85 00 f5 ff ff 	mov    %rax,-0xb00(%rbp)
    f745:	c7 85 fc f0 ff ff 48 	movl   $0x2efb7048,-0xf04(%rbp)
    f74c:	70 fb 2e 
    f74f:	48 8d 05 22 7d 01 00 	lea    0x17d22(%rip),%rax        # 27478 <g_2573>
    f756:	48 89 85 58 f1 ff ff 	mov    %rax,-0xea8(%rbp)
    f75d:	48 8d 85 58 f1 ff ff 	lea    -0xea8(%rbp),%rax
    f764:	48 89 85 b0 f2 ff ff 	mov    %rax,-0xd50(%rbp)
    f76b:	c7 85 00 f1 ff ff fd 	movl   $0xdd8542fd,-0xf00(%rbp)
    f772:	42 85 dd 
    f775:	c7 85 70 f0 ff ff 00 	movl   $0x0,-0xf90(%rbp)
    f77c:	00 00 00 
    f77f:	eb 1a                	jmp    f79b <func_16+0x345>
    f781:	8b 85 70 f0 ff ff    	mov    -0xf90(%rbp),%eax
    f787:	48 98                	cltq   
    f789:	c7 84 85 00 f4 ff ff 	movl   $0x1,-0xc00(%rbp,%rax,4)
    f790:	01 00 00 00 
    f794:	83 85 70 f0 ff ff 01 	addl   $0x1,-0xf90(%rbp)
    f79b:	83 bd 70 f0 ff ff 04 	cmpl   $0x4,-0xf90(%rbp)
    f7a2:	7e dd                	jle    f781 <func_16+0x32b>
    f7a4:	48 8b 85 40 f0 ff ff 	mov    -0xfc0(%rbp),%rax
    f7ab:	c7 00 ff ff ff ff    	movl   $0xffffffff,(%rax)
    f7b1:	c7 05 6d 48 01 00 05 	movl   $0x5,0x1486d(%rip)        # 24028 <g_62>
    f7b8:	00 00 00 
    f7bb:	e9 29 0a 00 00       	jmpq   101e9 <func_16+0xd93>
    f7c0:	c7 85 04 f1 ff ff 7e 	movl   $0x648a997e,-0xefc(%rbp)
    f7c7:	99 8a 64 
    f7ca:	48 8d 05 17 7a 01 00 	lea    0x17a17(%rip),%rax        # 271e8 <g_687>
    f7d1:	48 89 85 b8 f2 ff ff 	mov    %rax,-0xd48(%rbp)
    f7d8:	48 c7 85 c0 f2 ff ff 	movq   $0x0,-0xd40(%rbp)
    f7df:	00 00 00 00 
    f7e3:	c7 85 74 f0 ff ff f6 	movl   $0xfffffff6,-0xf8c(%rbp)
    f7ea:	ff ff ff 
    f7ed:	c7 85 08 f1 ff ff d9 	movl   $0x9d50b9d9,-0xef8(%rbp)
    f7f4:	b9 50 9d 
    f7f7:	c7 85 d0 f3 ff ff 46 	movl   $0x80edaa46,-0xc30(%rbp)
    f7fe:	aa ed 80 
    f801:	c7 85 d4 f3 ff ff 46 	movl   $0x80edaa46,-0xc2c(%rbp)
    f808:	aa ed 80 
    f80b:	c7 85 d8 f3 ff ff 46 	movl   $0x80edaa46,-0xc28(%rbp)
    f812:	aa ed 80 
    f815:	c7 85 dc f3 ff ff 46 	movl   $0x80edaa46,-0xc24(%rbp)
    f81c:	aa ed 80 
    f81f:	48 8d 05 42 7e 01 00 	lea    0x17e42(%rip),%rax        # 27668 <g_4155>
    f826:	48 89 85 c8 f2 ff ff 	mov    %rax,-0xd38(%rbp)
    f82d:	48 8d 05 74 87 01 00 	lea    0x18774(%rip),%rax        # 27fa8 <g_1059>
    f834:	48 89 85 d0 f2 ff ff 	mov    %rax,-0xd30(%rbp)
    f83b:	48 8d 85 40 f8 ff ff 	lea    -0x7c0(%rbp),%rax
    f842:	48 8d 15 b7 e5 00 00 	lea    0xe5b7(%rip),%rdx        # 1de00 <g_5653+0xd5f>
    f849:	b9 f0 00 00 00       	mov    $0xf0,%ecx
    f84e:	48 89 c7             	mov    %rax,%rdi
    f851:	48 89 d6             	mov    %rdx,%rsi
    f854:	f3 48 a5             	rep movsq %ds:(%rsi),%es:(%rdi)
    f857:	83 bd 04 f1 ff ff 00 	cmpl   $0x0,-0xefc(%rbp)
    f85e:	74 14                	je     f874 <func_16+0x41e>
    f860:	48 8b 85 48 f0 ff ff 	mov    -0xfb8(%rbp),%rax
    f867:	98                   	cwtl   
    f868:	be 0c 00 00 00       	mov    $0xc,%esi
    f86d:	89 c7                	mov    %eax,%edi
    f86f:	e8 ef 8c ff ff       	callq  8563 <safe_rshift_func_int16_t_s_u>
    f874:	b8 00 00 00 00       	mov    $0x0,%eax
    f879:	83 e0 01             	and    $0x1,%eax
    f87c:	48 8b 95 98 f2 ff ff 	mov    -0xd68(%rbp),%rdx
    f883:	48 89 95 20 f3 ff ff 	mov    %rdx,-0xce0(%rbp)
    f88a:	48 8b 8d 20 f3 ff ff 	mov    -0xce0(%rbp),%rcx
    f891:	48 8b 95 98 f4 ff ff 	mov    -0xb68(%rbp),%rdx
    f898:	48 39 d1             	cmp    %rdx,%rcx
    f89b:	0f 95 c2             	setne  %dl
    f89e:	0f b6 ca             	movzbl %dl,%ecx
    f8a1:	48 8b 95 48 f0 ff ff 	mov    -0xfb8(%rbp),%rdx
    f8a8:	48 39 d1             	cmp    %rdx,%rcx
    f8ab:	0f 95 c2             	setne  %dl
    f8ae:	31 d0                	xor    %edx,%eax
    f8b0:	0f b6 d0             	movzbl %al,%edx
    f8b3:	48 8b 85 48 f0 ff ff 	mov    -0xfb8(%rbp),%rax
    f8ba:	48 39 c2             	cmp    %rax,%rdx
    f8bd:	0f 95 c0             	setne  %al
    f8c0:	0f b6 c0             	movzbl %al,%eax
    f8c3:	be 01 00 00 00       	mov    $0x1,%esi
    f8c8:	89 c7                	mov    %eax,%edi
    f8ca:	e8 6e 94 ff ff       	callq  8d3d <safe_mul_func_uint16_t_u_u>
    f8cf:	0f b7 d0             	movzwl %ax,%edx
    f8d2:	48 8b 85 40 f0 ff ff 	mov    -0xfc0(%rbp),%rax
    f8d9:	8b 00                	mov    (%rax),%eax
    f8db:	39 c2                	cmp    %eax,%edx
    f8dd:	8b 95 04 f1 ff ff    	mov    -0xefc(%rbp),%edx
    f8e3:	48 8b 85 48 f0 ff ff 	mov    -0xfb8(%rbp),%rax
    f8ea:	48 21 c2             	and    %rax,%rdx
    f8ed:	48 8b 85 48 f0 ff ff 	mov    -0xfb8(%rbp),%rax
    f8f4:	48 39 c2             	cmp    %rax,%rdx
    f8f7:	0f 95 c0             	setne  %al
    f8fa:	0f b6 d0             	movzbl %al,%edx
    f8fd:	48 8b 85 48 f0 ff ff 	mov    -0xfb8(%rbp),%rax
    f904:	48 39 c2             	cmp    %rax,%rdx
    f907:	0f 94 c0             	sete   %al
    f90a:	0f b6 d0             	movzbl %al,%edx
    f90d:	48 8b 85 48 f0 ff ff 	mov    -0xfb8(%rbp),%rax
    f914:	48 39 c2             	cmp    %rax,%rdx
    f917:	0f 97 c0             	seta   %al
    f91a:	0f b6 d0             	movzbl %al,%edx
    f91d:	8b 8d 04 f1 ff ff    	mov    -0xefc(%rbp),%ecx
    f923:	48 8b 85 48 f0 ff ff 	mov    -0xfb8(%rbp),%rax
    f92a:	48 39 c1             	cmp    %rax,%rcx
    f92d:	0f 92 c0             	setb   %al
    f930:	0f b6 c0             	movzbl %al,%eax
    f933:	48 89 d6             	mov    %rdx,%rsi
    f936:	48 89 c7             	mov    %rax,%rdi
    f939:	e8 6a 8f ff ff       	callq  88a8 <safe_sub_func_int64_t_s_s>
    f93e:	48 85 c0             	test   %rax,%rax
    f941:	0f 84 1a 02 00 00    	je     fb61 <func_16+0x70b>
    f947:	48 c7 85 e8 f2 ff ff 	movq   $0x0,-0xd18(%rbp)
    f94e:	00 00 00 00 
    f952:	48 8d 05 5f 50 01 00 	lea    0x1505f(%rip),%rax        # 249b8 <g_1645>
    f959:	48 89 85 f0 f2 ff ff 	mov    %rax,-0xd10(%rbp)
    f960:	c7 85 24 f1 ff ff 23 	movl   $0xfd872323,-0xedc(%rbp)
    f967:	23 87 fd 
    f96a:	48 8b 85 f0 f2 ff ff 	mov    -0xd10(%rbp),%rax
    f971:	48 8b 00             	mov    (%rax),%rax
    f974:	48 8d 50 01          	lea    0x1(%rax),%rdx
    f978:	48 8b 85 f0 f2 ff ff 	mov    -0xd10(%rbp),%rax
    f97f:	48 89 10             	mov    %rdx,(%rax)
    f982:	48 8b 85 f0 f2 ff ff 	mov    -0xd10(%rbp),%rax
    f989:	4c 8b 30             	mov    (%rax),%r14
    f98c:	8b 85 04 f1 ff ff    	mov    -0xefc(%rbp),%eax
    f992:	0f be d8             	movsbl %al,%ebx
    f995:	48 8b 85 48 f0 ff ff 	mov    -0xfb8(%rbp),%rax
    f99c:	44 0f be e0          	movsbl %al,%r12d
    f9a0:	be 05 00 00 00       	mov    $0x5,%esi
    f9a5:	bf 00 00 00 00       	mov    $0x0,%edi
    f9aa:	e8 bd 89 ff ff       	callq  836c <safe_rshift_func_int8_t_s_u>
    f9af:	48 8b 05 4a 78 01 00 	mov    0x1784a(%rip),%rax        # 27200 <g_1023>
    f9b6:	0f b6 10             	movzbl (%rax),%edx
    f9b9:	83 c2 01             	add    $0x1,%edx
    f9bc:	88 10                	mov    %dl,(%rax)
    f9be:	0f b6 00             	movzbl (%rax),%eax
    f9c1:	44 0f b6 f8          	movzbl %al,%r15d
    f9c5:	44 8b ad 24 f1 ff ff 	mov    -0xedc(%rbp),%r13d
    f9cc:	be 0b 00 00 00       	mov    $0xb,%esi
    f9d1:	bf fe ff ff ff       	mov    $0xfffffffe,%edi
    f9d6:	e8 b7 8a ff ff       	callq  8492 <safe_lshift_func_int16_t_s_s>
    f9db:	48 8b 85 48 f0 ff ff 	mov    -0xfb8(%rbp),%rax
    f9e2:	0f b6 c0             	movzbl %al,%eax
    f9e5:	8b 95 24 f1 ff ff    	mov    -0xedc(%rbp),%edx
    f9eb:	89 d6                	mov    %edx,%esi
    f9ed:	89 c7                	mov    %eax,%edi
    f9ef:	e8 99 92 ff ff       	callq  8c8d <safe_rshift_func_uint8_t_u_s>
    f9f4:	0f b6 d0             	movzbl %al,%edx
    f9f7:	48 8b 85 b8 f2 ff ff 	mov    -0xd48(%rbp),%rax
    f9fe:	48 3b 85 a8 f2 ff ff 	cmp    -0xd58(%rbp),%rax
    fa05:	0f 94 c0             	sete   %al
    fa08:	0f b6 c0             	movzbl %al,%eax
    fa0b:	89 d6                	mov    %edx,%esi
    fa0d:	89 c7                	mov    %eax,%edi
    fa0f:	e8 e9 94 ff ff       	callq  8efd <safe_mod_func_uint32_t_u_u>
    fa14:	44 89 ee             	mov    %r13d,%esi
    fa17:	89 c7                	mov    %eax,%edi
    fa19:	e8 9a 94 ff ff       	callq  8eb8 <safe_add_func_uint32_t_u_u>
    fa1e:	98                   	cwtl   
    fa1f:	be 0d 00 00 00       	mov    $0xd,%esi
    fa24:	89 c7                	mov    %eax,%edi
    fa26:	e8 b6 8a ff ff       	callq  84e1 <safe_lshift_func_int16_t_s_u>
    fa2b:	44 09 f8             	or     %r15d,%eax
    fa2e:	0f b7 c8             	movzwl %ax,%ecx
    fa31:	48 8b 05 b8 77 01 00 	mov    0x177b8(%rip),%rax        # 271f0 <g_711>
    fa38:	0f b7 10             	movzwl (%rax),%edx
    fa3b:	8d 72 01             	lea    0x1(%rdx),%esi
    fa3e:	66 89 30             	mov    %si,(%rax)
    fa41:	0f b7 c2             	movzwl %dx,%eax
    fa44:	89 ce                	mov    %ecx,%esi
    fa46:	89 c7                	mov    %eax,%edi
    fa48:	e8 f0 92 ff ff       	callq  8d3d <safe_mul_func_uint16_t_u_u>
    fa4d:	0f b7 c0             	movzwl %ax,%eax
    fa50:	83 e0 09             	and    $0x9,%eax
    fa53:	48 8b 95 a0 f2 ff ff 	mov    -0xd60(%rbp),%rdx
    fa5a:	89 c6                	mov    %eax,%esi
    fa5c:	89 d7                	mov    %edx,%edi
    fa5e:	e8 9a 94 ff ff       	callq  8efd <safe_mod_func_uint32_t_u_u>
    fa63:	85 c0                	test   %eax,%eax
    fa65:	75 0c                	jne    fa73 <func_16+0x61d>
    fa67:	48 8b 85 48 f0 ff ff 	mov    -0xfb8(%rbp),%rax
    fa6e:	48 85 c0             	test   %rax,%rax
    fa71:	74 07                	je     fa7a <func_16+0x624>
    fa73:	b8 01 00 00 00       	mov    $0x1,%eax
    fa78:	eb 05                	jmp    fa7f <func_16+0x629>
    fa7a:	b8 00 00 00 00       	mov    $0x0,%eax
    fa7f:	0f be c0             	movsbl %al,%eax
    fa82:	44 89 e6             	mov    %r12d,%esi
    fa85:	89 c7                	mov    %eax,%edi
    fa87:	e8 66 87 ff ff       	callq  81f2 <safe_sub_func_int8_t_s_s>
    fa8c:	48 8b 85 40 f0 ff ff 	mov    -0xfc0(%rbp),%rax
    fa93:	8b 00                	mov    (%rax),%eax
    fa95:	85 c0                	test   %eax,%eax
    fa97:	74 07                	je     faa0 <func_16+0x64a>
    fa99:	b8 01 00 00 00       	mov    $0x1,%eax
    fa9e:	eb 05                	jmp    faa5 <func_16+0x64f>
    faa0:	b8 00 00 00 00       	mov    $0x0,%eax
    faa5:	48 63 d0             	movslq %eax,%rdx
    faa8:	48 8b 85 e0 f4 ff ff 	mov    -0xb20(%rbp),%rax
    faaf:	48 39 c2             	cmp    %rax,%rdx
    fab2:	0f 9d c0             	setge  %al
    fab5:	0f b6 c0             	movzbl %al,%eax
    fab8:	89 c7                	mov    %eax,%edi
    faba:	e8 86 90 ff ff       	callq  8b45 <safe_unary_minus_func_uint8_t_u>
    fabf:	0f be c0             	movsbl %al,%eax
    fac2:	be 06 00 00 00       	mov    $0x6,%esi
    fac7:	89 c7                	mov    %eax,%edi
    fac9:	e8 63 87 ff ff       	callq  8231 <safe_mod_func_int8_t_s_s>
    face:	0f be c0             	movsbl %al,%eax
    fad1:	89 de                	mov    %ebx,%esi
    fad3:	89 c7                	mov    %eax,%edi
    fad5:	e8 18 87 ff ff       	callq  81f2 <safe_sub_func_int8_t_s_s>
    fada:	66 98                	cbtw   
    fadc:	0f b7 d8             	movzwl %ax,%ebx
    fadf:	48 8b 85 48 f0 ff ff 	mov    -0xfb8(%rbp),%rax
    fae6:	89 c1                	mov    %eax,%ecx
    fae8:	48 8b 05 99 72 01 00 	mov    0x17299(%rip),%rax        # 26d88 <g_146>
    faef:	8b 10                	mov    (%rax),%edx
    faf1:	83 ea 01             	sub    $0x1,%edx
    faf4:	89 10                	mov    %edx,(%rax)
    faf6:	8b 00                	mov    (%rax),%eax
    faf8:	89 ce                	mov    %ecx,%esi
    fafa:	89 c7                	mov    %eax,%edi
    fafc:	e8 24 94 ff ff       	callq  8f25 <safe_div_func_uint32_t_u_u>
    fb01:	0f b7 c0             	movzwl %ax,%eax
    fb04:	89 de                	mov    %ebx,%esi
    fb06:	89 c7                	mov    %eax,%edi
    fb08:	e8 f2 91 ff ff       	callq  8cff <safe_add_func_uint16_t_u_u>
    fb0d:	98                   	cwtl   
    fb0e:	be bd 8d ff ff       	mov    $0xffff8dbd,%esi
    fb13:	89 c7                	mov    %eax,%edi
    fb15:	e8 b9 88 ff ff       	callq  83d3 <safe_sub_func_int16_t_s_s>
    fb1a:	48 0f bf c0          	movswq %ax,%rax
    fb1e:	49 39 c6             	cmp    %rax,%r14
    fb21:	0f 96 c0             	setbe  %al
    fb24:	0f b6 d0             	movzbl %al,%edx
    fb27:	48 8d 05 e2 75 01 00 	lea    0x175e2(%rip),%rax        # 27110 <g_573>
    fb2e:	48 8b 00             	mov    (%rax),%rax
    fb31:	48 8b 00             	mov    (%rax),%rax
    fb34:	48 39 c2             	cmp    %rax,%rdx
    fb37:	0f 9d c0             	setge  %al
    fb3a:	0f b6 d0             	movzbl %al,%edx
    fb3d:	48 8b 85 48 f0 ff ff 	mov    -0xfb8(%rbp),%rax
    fb44:	98                   	cwtl   
    fb45:	89 d6                	mov    %edx,%esi
    fb47:	89 c7                	mov    %eax,%edi
    fb49:	e8 85 88 ff ff       	callq  83d3 <safe_sub_func_int16_t_s_s>
    fb4e:	89 c2                	mov    %eax,%edx
    fb50:	48 8b 85 40 f0 ff ff 	mov    -0xfc0(%rbp),%rax
    fb57:	0f bf d2             	movswl %dx,%edx
    fb5a:	89 10                	mov    %edx,(%rax)
    fb5c:	e9 61 01 00 00       	jmpq   fcc2 <func_16+0x86c>
    fb61:	48 8d 05 b8 4f 01 00 	lea    0x14fb8(%rip),%rax        # 24b20 <g_2842>
    fb68:	48 89 85 d8 f2 ff ff 	mov    %rax,-0xd28(%rbp)
    fb6f:	c7 85 0c f1 ff ff 01 	movl   $0x1,-0xef4(%rbp)
    fb76:	00 00 00 
    fb79:	c7 85 10 f1 ff ff 8a 	movl   $0xaedcd98a,-0xef0(%rbp)
    fb80:	d9 dc ae 
    fb83:	c7 85 14 f1 ff ff 05 	movl   $0x5,-0xeec(%rbp)
    fb8a:	00 00 00 
    fb8d:	c7 85 18 f1 ff ff 7c 	movl   $0x8081e67c,-0xee8(%rbp)
    fb94:	e6 81 80 
    fb97:	c7 85 1c f1 ff ff f9 	movl   $0xfffffff9,-0xee4(%rbp)
    fb9e:	ff ff ff 
    fba1:	c7 85 20 f1 ff ff 69 	movl   $0x8d473569,-0xee0(%rbp)
    fba8:	35 47 8d 
    fbab:	c7 85 78 f0 ff ff 00 	movl   $0x0,-0xf88(%rbp)
    fbb2:	00 00 00 
    fbb5:	eb 1a                	jmp    fbd1 <func_16+0x77b>
    fbb7:	8b 85 78 f0 ff ff    	mov    -0xf88(%rbp),%eax
    fbbd:	48 98                	cltq   
    fbbf:	c7 84 85 70 f5 ff ff 	movl   $0xfffffffd,-0xa90(%rbp,%rax,4)
    fbc6:	fd ff ff ff 
    fbca:	83 85 78 f0 ff ff 01 	addl   $0x1,-0xf88(%rbp)
    fbd1:	83 bd 78 f0 ff ff 00 	cmpl   $0x0,-0xf88(%rbp)
    fbd8:	7e dd                	jle    fbb7 <func_16+0x761>
    fbda:	48 8b 05 0f 75 01 00 	mov    0x1750f(%rip),%rax        # 270f0 <g_378>
    fbe1:	48 8b 00             	mov    (%rax),%rax
    fbe4:	48 8b 00             	mov    (%rax),%rax
    fbe7:	0f b6 00             	movzbl (%rax),%eax
    fbea:	3c 05                	cmp    $0x5,%al
    fbec:	0f 96 c0             	setbe  %al
    fbef:	0f b6 d0             	movzbl %al,%edx
    fbf2:	48 8b 05 ff 40 01 00 	mov    0x140ff(%rip),%rax        # 23cf8 <l_4124.4818+0x118>
    fbf9:	48 85 c0             	test   %rax,%rax
    fbfc:	0f 95 c0             	setne  %al
    fbff:	0f b6 c0             	movzbl %al,%eax
    fc02:	89 d6                	mov    %edx,%esi
    fc04:	89 c7                	mov    %eax,%edi
    fc06:	e8 88 8f ff ff       	callq  8b93 <safe_mul_func_uint8_t_u_u>
    fc0b:	84 c0                	test   %al,%al
    fc0d:	74 5d                	je     fc6c <func_16+0x816>
    fc0f:	48 c7 85 60 f1 ff ff 	movq   $0x0,-0xea0(%rbp)
    fc16:	00 00 00 00 
    fc1a:	48 8d 85 60 f1 ff ff 	lea    -0xea0(%rbp),%rax
    fc21:	48 89 85 e0 f2 ff ff 	mov    %rax,-0xd20(%rbp)
    fc28:	48 8b 05 91 78 01 00 	mov    0x17891(%rip),%rax        # 274c0 <g_3605>
    fc2f:	48 8b 85 98 f2 ff ff 	mov    -0xd68(%rbp),%rax
    fc36:	48 8b 00             	mov    (%rax),%rax
    fc39:	48 8b 00             	mov    (%rax),%rax
    fc3c:	48 8b 00             	mov    (%rax),%rax
    fc3f:	48 8b 95 c0 f2 ff ff 	mov    -0xd40(%rbp),%rdx
    fc46:	48 89 10             	mov    %rdx,(%rax)
    fc49:	48 8b 85 40 f0 ff ff 	mov    -0xfc0(%rbp),%rax
    fc50:	8b 00                	mov    (%rax),%eax
    fc52:	85 c0                	test   %eax,%eax
    fc54:	0f 85 a0 05 00 00    	jne    101fa <func_16+0xda4>
    fc5a:	48 8b 85 40 f0 ff ff 	mov    -0xfc0(%rbp),%rax
    fc61:	8b 00                	mov    (%rax),%eax
    fc63:	85 c0                	test   %eax,%eax
    fc65:	74 3c                	je     fca3 <func_16+0x84d>
    fc67:	e9 8f 05 00 00       	jmpq   101fb <func_16+0xda5>
    fc6c:	48 8b 85 98 f2 ff ff 	mov    -0xd68(%rbp),%rax
    fc73:	48 8b 00             	mov    (%rax),%rax
    fc76:	48 8b 00             	mov    (%rax),%rax
    fc79:	48 8b 00             	mov    (%rax),%rax
    fc7c:	48 c7 00 00 00 00 00 	movq   $0x0,(%rax)
    fc83:	48 8b 05 06 78 01 00 	mov    0x17806(%rip),%rax        # 27490 <g_3320>
    fc8a:	48 8b 00             	mov    (%rax),%rax
    fc8d:	48 8b 95 40 f0 ff ff 	mov    -0xfc0(%rbp),%rdx
    fc94:	48 89 10             	mov    %rdx,(%rax)
    fc97:	48 8b 85 48 f0 ff ff 	mov    -0xfb8(%rbp),%rax
    fc9e:	e9 96 20 00 00       	jmpq   11d39 <func_16+0x28e3>
    fca3:	48 83 bd d8 f2 ff ff 	cmpq   $0x0,-0xd28(%rbp)
    fcaa:	00 
    fcab:	0f 95 c2             	setne  %dl
    fcae:	48 8b 85 40 f0 ff ff 	mov    -0xfc0(%rbp),%rax
    fcb5:	0f b6 d2             	movzbl %dl,%edx
    fcb8:	89 10                	mov    %edx,(%rax)
    fcba:	48 83 ad 68 f1 ff ff 	subq   $0x1,-0xe98(%rbp)
    fcc1:	01 
    fcc2:	48 8b 15 9f 79 01 00 	mov    0x1799f(%rip),%rdx        # 27668 <g_4155>
    fcc9:	48 8b 85 c8 f2 ff ff 	mov    -0xd38(%rbp),%rax
    fcd0:	48 89 10             	mov    %rdx,(%rax)
    fcd3:	48 8b 85 c8 f2 ff ff 	mov    -0xd38(%rbp),%rax
    fcda:	48 8b 00             	mov    (%rax),%rax
    fcdd:	48 39 85 b0 f2 ff ff 	cmp    %rax,-0xd50(%rbp)
    fce4:	0f 95 c0             	setne  %al
    fce7:	0f b6 c0             	movzbl %al,%eax
    fcea:	89 c6                	mov    %eax,%esi
    fcec:	bf 01 00 00 00       	mov    $0x1,%edi
    fcf1:	e8 c0 88 ff ff       	callq  85b6 <safe_add_func_int32_t_s_s>
    fcf6:	48 8b 85 48 f0 ff ff 	mov    -0xfb8(%rbp),%rax
    fcfd:	0f b6 c0             	movzbl %al,%eax
    fd00:	be 00 00 00 00       	mov    $0x0,%esi
    fd05:	89 c7                	mov    %eax,%edi
    fd07:	e8 40 8f ff ff       	callq  8c4c <safe_lshift_func_uint8_t_u_u>
    fd0c:	48 8b 85 48 f0 ff ff 	mov    -0xfb8(%rbp),%rax
    fd13:	98                   	cwtl   
    fd14:	89 c6                	mov    %eax,%esi
    fd16:	bf 01 00 00 00       	mov    $0x1,%edi
    fd1b:	e8 93 86 ff ff       	callq  83b3 <safe_add_func_int16_t_s_s>
    fd20:	48 8b 15 51 77 01 00 	mov    0x17751(%rip),%rdx        # 27478 <g_2573>
    fd27:	48 8b 12             	mov    (%rdx),%rdx
    fd2a:	0f b7 12             	movzwl (%rdx),%edx
    fd2d:	31 d0                	xor    %edx,%eax
    fd2f:	0f bf d0             	movswl %ax,%edx
    fd32:	8b 85 04 f4 ff ff    	mov    -0xbfc(%rbp),%eax
    fd38:	09 d0                	or     %edx,%eax
    fd3a:	89 85 04 f4 ff ff    	mov    %eax,-0xbfc(%rbp)
    fd40:	48 c7 85 48 f0 ff ff 	movq   $0x1d,-0xfb8(%rbp)
    fd47:	1d 00 00 00 
    fd4b:	e9 f4 02 00 00       	jmpq   10044 <func_16+0xbee>
    fd50:	48 8d 05 69 4c 01 00 	lea    0x14c69(%rip),%rax        # 249c0 <g_1691>
    fd57:	48 89 85 00 f3 ff ff 	mov    %rax,-0xd00(%rbp)
    fd5e:	c7 85 2c f1 ff ff 08 	movl   $0x8,-0xed4(%rbp)
    fd65:	00 00 00 
    fd68:	48 8d 05 bd 4d 01 00 	lea    0x14dbd(%rip),%rax        # 24b2c <g_3411>
    fd6f:	48 89 85 08 f3 ff ff 	mov    %rax,-0xcf8(%rbp)
    fd76:	48 8d 05 f3 82 01 00 	lea    0x182f3(%rip),%rax        # 28070 <g_4189>
    fd7d:	48 89 85 10 f3 ff ff 	mov    %rax,-0xcf0(%rbp)
    fd84:	48 8b 85 48 f0 ff ff 	mov    -0xfb8(%rbp),%rax
    fd8b:	48 85 c0             	test   %rax,%rax
    fd8e:	48 8b 85 00 f3 ff ff 	mov    -0xd00(%rbp),%rax
    fd95:	0f b6 00             	movzbl (%rax),%eax
    fd98:	89 c2                	mov    %eax,%edx
    fd9a:	48 8b 85 48 f0 ff ff 	mov    -0xfb8(%rbp),%rax
    fda1:	09 d0                	or     %edx,%eax
    fda3:	89 c2                	mov    %eax,%edx
    fda5:	48 8b 85 00 f3 ff ff 	mov    -0xd00(%rbp),%rax
    fdac:	88 10                	mov    %dl,(%rax)
    fdae:	48 8b 85 00 f3 ff ff 	mov    -0xd00(%rbp),%rax
    fdb5:	0f b6 00             	movzbl (%rax),%eax
    fdb8:	44 0f be e0          	movsbl %al,%r12d
    fdbc:	48 8b 05 25 73 01 00 	mov    0x17325(%rip),%rax        # 270e8 <g_379>
    fdc3:	48 8b 00             	mov    (%rax),%rax
    fdc6:	0f b6 00             	movzbl (%rax),%eax
    fdc9:	84 c0                	test   %al,%al
    fdcb:	75 52                	jne    fe1f <func_16+0x9c9>
    fdcd:	48 8b 9d 48 f0 ff ff 	mov    -0xfb8(%rbp),%rbx
    fdd4:	8b 85 2c f1 ff ff    	mov    -0xed4(%rbp),%eax
    fdda:	89 c6                	mov    %eax,%esi
    fddc:	bf f6 ff ff ff       	mov    $0xfffffff6,%edi
    fde1:	e8 e6 88 ff ff       	callq  86cc <safe_mod_func_int32_t_s_s>
    fde6:	89 c2                	mov    %eax,%edx
    fde8:	48 8b 85 48 f0 ff ff 	mov    -0xfb8(%rbp),%rax
    fdef:	31 d0                	xor    %edx,%eax
    fdf1:	0f b6 c0             	movzbl %al,%eax
    fdf4:	be 07 00 00 00       	mov    $0x7,%esi
    fdf9:	89 c7                	mov    %eax,%edi
    fdfb:	e8 4c 8e ff ff       	callq  8c4c <safe_lshift_func_uint8_t_u_u>
    fe00:	48 8b 85 48 f0 ff ff 	mov    -0xfb8(%rbp),%rax
    fe07:	48 89 de             	mov    %rbx,%rsi
    fe0a:	48 89 c7             	mov    %rax,%rdi
    fe0d:	e8 1c 92 ff ff       	callq  902e <safe_add_func_uint64_t_u_u>
    fe12:	48 8b 05 6f 6f 01 00 	mov    0x16f6f(%rip),%rax        # 26d88 <g_146>
    fe19:	8b 00                	mov    (%rax),%eax
    fe1b:	85 c0                	test   %eax,%eax
    fe1d:	74 07                	je     fe26 <func_16+0x9d0>
    fe1f:	b8 01 00 00 00       	mov    $0x1,%eax
    fe24:	eb 05                	jmp    fe2b <func_16+0x9d5>
    fe26:	b8 00 00 00 00       	mov    $0x0,%eax
    fe2b:	44 39 e0             	cmp    %r12d,%eax
    fe2e:	48 8b 85 40 f0 ff ff 	mov    -0xfc0(%rbp),%rax
    fe35:	48 89 85 08 f3 ff ff 	mov    %rax,-0xcf8(%rbp)
    fe3c:	48 8b 85 08 f3 ff ff 	mov    -0xcf8(%rbp),%rax
    fe43:	8b 00                	mov    (%rax),%eax
    fe45:	0f b6 d8             	movzbl %al,%ebx
    fe48:	48 8b 05 21 76 01 00 	mov    0x17621(%rip),%rax        # 27470 <g_2574>
    fe4f:	0f b7 00             	movzwl (%rax),%eax
    fe52:	98                   	cwtl   
    fe53:	be 0d 00 00 00       	mov    $0xd,%esi
    fe58:	89 c7                	mov    %eax,%edi
    fe5a:	e8 04 87 ff ff       	callq  8563 <safe_rshift_func_int16_t_s_u>
    fe5f:	0f b7 c0             	movzwl %ax,%eax
    fe62:	be 03 00 00 00       	mov    $0x3,%esi
    fe67:	89 c7                	mov    %eax,%edi
    fe69:	e8 98 8f ff ff       	callq  8e06 <safe_lshift_func_uint16_t_u_u>
    fe6e:	0f be c0             	movsbl %al,%eax
    fe71:	be 06 00 00 00       	mov    $0x6,%esi
    fe76:	89 c7                	mov    %eax,%edi
    fe78:	e8 71 84 ff ff       	callq  82ee <safe_lshift_func_int8_t_s_u>
    fe7d:	84 c0                	test   %al,%al
    fe7f:	74 08                	je     fe89 <func_16+0xa33>
    fe81:	41 be 01 00 00 00    	mov    $0x1,%r14d
    fe87:	eb 06                	jmp    fe8f <func_16+0xa39>
    fe89:	41 be 00 00 00 00    	mov    $0x0,%r14d
    fe8f:	8b 85 00 f1 ff ff    	mov    -0xf00(%rbp),%eax
    fe95:	44 0f b6 e0          	movzbl %al,%r12d
    fe99:	48 8b 85 10 f3 ff ff 	mov    -0xcf0(%rbp),%rax
    fea0:	8b 10                	mov    (%rax),%edx
    fea2:	48 8b 05 1f 75 01 00 	mov    0x1751f(%rip),%rax        # 273c8 <g_1496>
    fea9:	8b 00                	mov    (%rax),%eax
    feab:	31 c2                	xor    %eax,%edx
    fead:	48 8b 85 10 f3 ff ff 	mov    -0xcf0(%rbp),%rax
    feb4:	89 10                	mov    %edx,(%rax)
    feb6:	48 8b 85 08 f3 ff ff 	mov    -0xcf8(%rbp),%rax
    febd:	8b 00                	mov    (%rax),%eax
    febf:	44 0f be e8          	movsbl %al,%r13d
    fec3:	48 8b 05 2e 72 01 00 	mov    0x1722e(%rip),%rax        # 270f8 <g_501>
    feca:	48 8b 00             	mov    (%rax),%rax
    fecd:	35 83 c4 2e 6e       	xor    $0x6e2ec483,%eax
    fed2:	89 c6                	mov    %eax,%esi
    fed4:	bf 65 00 00 00       	mov    $0x65,%edi
    fed9:	e8 10 84 ff ff       	callq  82ee <safe_lshift_func_int8_t_s_u>
    fede:	48 8b 85 48 f0 ff ff 	mov    -0xfb8(%rbp),%rax
    fee5:	0f b6 c0             	movzbl %al,%eax
    fee8:	89 c6                	mov    %eax,%esi
    feea:	bf ff 00 00 00       	mov    $0xff,%edi
    feef:	e8 84 8c ff ff       	callq  8b78 <safe_sub_func_uint8_t_u_u>
    fef4:	84 c0                	test   %al,%al
    fef6:	75 0f                	jne    ff07 <func_16+0xab1>
    fef8:	48 8b 05 d1 74 01 00 	mov    0x174d1(%rip),%rax        # 273d0 <g_1749>
    feff:	0f b7 00             	movzwl (%rax),%eax
    ff02:	66 85 c0             	test   %ax,%ax
    ff05:	74 07                	je     ff0e <func_16+0xab8>
    ff07:	b8 01 00 00 00       	mov    $0x1,%eax
    ff0c:	eb 05                	jmp    ff13 <func_16+0xabd>
    ff0e:	b8 00 00 00 00       	mov    $0x0,%eax
    ff13:	0f be c0             	movsbl %al,%eax
    ff16:	44 89 ee             	mov    %r13d,%esi
    ff19:	89 c7                	mov    %eax,%edi
    ff1b:	e8 b4 82 ff ff       	callq  81d4 <safe_add_func_int8_t_s_s>
    ff20:	48 8b 05 01 72 01 00 	mov    0x17201(%rip),%rax        # 27128 <g_689>
    ff27:	48 8b 00             	mov    (%rax),%rax
    ff2a:	48 8b 00             	mov    (%rax),%rax
    ff2d:	48 85 c0             	test   %rax,%rax
    ff30:	74 0d                	je     ff3f <func_16+0xae9>
    ff32:	48 8b 05 b7 72 01 00 	mov    0x172b7(%rip),%rax        # 271f0 <g_711>
    ff39:	0f b7 00             	movzwl (%rax),%eax
    ff3c:	66 85 c0             	test   %ax,%ax
    ff3f:	48 8b 05 4a 6e 01 00 	mov    0x16e4a(%rip),%rax        # 26d90 <g_145>
    ff46:	48 8b 00             	mov    (%rax),%rax
    ff49:	8b 10                	mov    (%rax),%edx
    ff4b:	48 8b 85 08 f3 ff ff 	mov    -0xcf8(%rbp),%rax
    ff52:	8b 00                	mov    (%rax),%eax
    ff54:	48 63 c8             	movslq %eax,%rcx
    ff57:	48 8b 85 48 f0 ff ff 	mov    -0xfb8(%rbp),%rax
    ff5e:	48 39 c1             	cmp    %rax,%rcx
    ff61:	0f 96 c0             	setbe  %al
    ff64:	0f b6 c0             	movzbl %al,%eax
    ff67:	39 c2                	cmp    %eax,%edx
    ff69:	0f 96 c0             	setbe  %al
    ff6c:	0f b6 c0             	movzbl %al,%eax
    ff6f:	44 89 e6             	mov    %r12d,%esi
    ff72:	89 c7                	mov    %eax,%edi
    ff74:	e8 1a 8c ff ff       	callq  8b93 <safe_mul_func_uint8_t_u_u>
    ff79:	0f b6 c0             	movzbl %al,%eax
    ff7c:	41 39 c6             	cmp    %eax,%r14d
    ff7f:	0f 9e c0             	setle  %al
    ff82:	0f b6 c0             	movzbl %al,%eax
    ff85:	89 de                	mov    %ebx,%esi
    ff87:	89 c7                	mov    %eax,%edi
    ff89:	e8 05 8c ff ff       	callq  8b93 <safe_mul_func_uint8_t_u_u>
    ff8e:	0f b6 d0             	movzbl %al,%edx
    ff91:	48 8b 05 d0 76 01 00 	mov    0x176d0(%rip),%rax        # 27668 <g_4155>
    ff98:	48 8b 00             	mov    (%rax),%rax
    ff9b:	48 8b 00             	mov    (%rax),%rax
    ff9e:	48 8b 00             	mov    (%rax),%rax
    ffa1:	0f b7 00             	movzwl (%rax),%eax
    ffa4:	98                   	cwtl   
    ffa5:	09 d0                	or     %edx,%eax
    ffa7:	89 c2                	mov    %eax,%edx
    ffa9:	48 8b 85 48 f0 ff ff 	mov    -0xfb8(%rbp),%rax
    ffb0:	0f be c0             	movsbl %al,%eax
    ffb3:	89 d6                	mov    %edx,%esi
    ffb5:	89 c7                	mov    %eax,%edi
    ffb7:	e8 b0 83 ff ff       	callq  836c <safe_rshift_func_int8_t_s_u>
    ffbc:	0f be d0             	movsbl %al,%edx
    ffbf:	48 8d 05 78 4b 01 00 	lea    0x14b78(%rip),%rax        # 24b3e <g_3676>
    ffc6:	0f b7 00             	movzwl (%rax),%eax
    ffc9:	0f b7 c0             	movzwl %ax,%eax
    ffcc:	31 d0                	xor    %edx,%eax
    ffce:	83 f8 ff             	cmp    $0xffffffff,%eax
    ffd1:	0f 9d c2             	setge  %dl
    ffd4:	48 8b 05 4d 71 01 00 	mov    0x1714d(%rip),%rax        # 27128 <g_689>
    ffdb:	48 8b 00             	mov    (%rax),%rax
    ffde:	0f b6 d2             	movzbl %dl,%edx
    ffe1:	48 89 10             	mov    %rdx,(%rax)
    ffe4:	48 8b 85 08 f3 ff ff 	mov    -0xcf8(%rbp),%rax
    ffeb:	8b 00                	mov    (%rax),%eax
    ffed:	0f b7 c0             	movzwl %ax,%eax
    fff0:	be 0b 00 00 00       	mov    $0xb,%esi
    fff5:	89 c7                	mov    %eax,%edi
    fff7:	e8 7e 8e ff ff       	callq  8e7a <safe_rshift_func_uint16_t_u_u>
    fffc:	89 c2                	mov    %eax,%edx
    fffe:	48 8b 85 40 f0 ff ff 	mov    -0xfc0(%rbp),%rax
   10005:	0f b7 d2             	movzwl %dx,%edx
   10008:	89 10                	mov    %edx,(%rax)
   1000a:	48 8b 05 3f 76 01 00 	mov    0x1763f(%rip),%rax        # 27650 <g_4025>
   10011:	48 8b 00             	mov    (%rax),%rax
   10014:	48 8b 00             	mov    (%rax),%rax
   10017:	48 8b 00             	mov    (%rax),%rax
   1001a:	48 8b 95 40 f0 ff ff 	mov    -0xfc0(%rbp),%rdx
   10021:	48 89 10             	mov    %rdx,(%rax)
   10024:	48 8b 85 40 f0 ff ff 	mov    -0xfc0(%rbp),%rax
   1002b:	48 89 85 08 f3 ff ff 	mov    %rax,-0xcf8(%rbp)
   10032:	48 8b 85 48 f0 ff ff 	mov    -0xfb8(%rbp),%rax
   10039:	48 83 e8 01          	sub    $0x1,%rax
   1003d:	48 89 85 48 f0 ff ff 	mov    %rax,-0xfb8(%rbp)
   10044:	48 8b 85 48 f0 ff ff 	mov    -0xfb8(%rbp),%rax
   1004b:	48 83 f8 09          	cmp    $0x9,%rax
   1004f:	0f 84 fb fc ff ff    	je     fd50 <func_16+0x8fa>
   10055:	c7 85 74 f0 ff ff 00 	movl   $0x0,-0xf8c(%rbp)
   1005c:	00 00 00 
   1005f:	e9 69 01 00 00       	jmpq   101cd <func_16+0xd77>
   10064:	48 c7 85 f8 f2 ff ff 	movq   $0x0,-0xd08(%rbp)
   1006b:	00 00 00 00 
   1006f:	48 8d 05 b6 3f 01 00 	lea    0x13fb6(%rip),%rax        # 2402c <g_67>
   10076:	48 89 85 70 f5 ff ff 	mov    %rax,-0xa90(%rbp)
   1007d:	48 8d 05 44 49 01 00 	lea    0x14944(%rip),%rax        # 249c8 <g_1820>
   10084:	48 89 85 78 f5 ff ff 	mov    %rax,-0xa88(%rbp)
   1008b:	48 8d 05 36 49 01 00 	lea    0x14936(%rip),%rax        # 249c8 <g_1820>
   10092:	48 89 85 80 f5 ff ff 	mov    %rax,-0xa80(%rbp)
   10099:	48 8d 05 8c 3f 01 00 	lea    0x13f8c(%rip),%rax        # 2402c <g_67>
   100a0:	48 89 85 88 f5 ff ff 	mov    %rax,-0xa78(%rbp)
   100a7:	48 8d 05 2e 49 01 00 	lea    0x1492e(%rip),%rax        # 249dc <g_1911+0xc>
   100ae:	48 89 85 90 f5 ff ff 	mov    %rax,-0xa70(%rbp)
   100b5:	48 8d 05 0c 49 01 00 	lea    0x1490c(%rip),%rax        # 249c8 <g_1820>
   100bc:	48 89 85 98 f5 ff ff 	mov    %rax,-0xa68(%rbp)
   100c3:	48 8d 05 e6 48 01 00 	lea    0x148e6(%rip),%rax        # 249b0 <g_1431>
   100ca:	48 89 85 a0 f5 ff ff 	mov    %rax,-0xa60(%rbp)
   100d1:	48 8d 05 f0 48 01 00 	lea    0x148f0(%rip),%rax        # 249c8 <g_1820>
   100d8:	48 89 85 a8 f5 ff ff 	mov    %rax,-0xa58(%rbp)
   100df:	48 8d 05 e2 48 01 00 	lea    0x148e2(%rip),%rax        # 249c8 <g_1820>
   100e6:	48 89 85 b0 f5 ff ff 	mov    %rax,-0xa50(%rbp)
   100ed:	48 8d 05 bc 48 01 00 	lea    0x148bc(%rip),%rax        # 249b0 <g_1431>
   100f4:	48 89 85 b8 f5 ff ff 	mov    %rax,-0xa48(%rbp)
   100fb:	48 8d 05 ae 48 01 00 	lea    0x148ae(%rip),%rax        # 249b0 <g_1431>
   10102:	48 89 85 c0 f5 ff ff 	mov    %rax,-0xa40(%rbp)
   10109:	48 8d 05 a0 48 01 00 	lea    0x148a0(%rip),%rax        # 249b0 <g_1431>
   10110:	48 89 85 c8 f5 ff ff 	mov    %rax,-0xa38(%rbp)
   10117:	c7 85 28 f1 ff ff 98 	movl   $0xebaa6798,-0xed8(%rbp)
   1011e:	67 aa eb 
   10121:	48 8b 85 48 f0 ff ff 	mov    -0xfb8(%rbp),%rax
   10128:	0f be d0             	movsbl %al,%edx
   1012b:	8b 85 74 f0 ff ff    	mov    -0xf8c(%rbp),%eax
   10131:	8d 70 02             	lea    0x2(%rax),%esi
   10134:	8b 85 74 f0 ff ff    	mov    -0xf8c(%rbp),%eax
   1013a:	8d 78 06             	lea    0x6(%rax),%edi
   1013d:	8b 85 74 f0 ff ff    	mov    -0xf8c(%rbp),%eax
   10143:	48 63 c8             	movslq %eax,%rcx
   10146:	48 63 c7             	movslq %edi,%rax
   10149:	48 63 f6             	movslq %esi,%rsi
   1014c:	48 c1 e6 03          	shl    $0x3,%rsi
   10150:	48 01 f1             	add    %rsi,%rcx
   10153:	48 01 c1             	add    %rax,%rcx
   10156:	48 8d 05 d3 3e 01 00 	lea    0x13ed3(%rip),%rax        # 24030 <g_69>
   1015d:	48 01 c8             	add    %rcx,%rax
   10160:	0f b6 00             	movzbl (%rax),%eax
   10163:	0f be c0             	movsbl %al,%eax
   10166:	09 85 28 f1 ff ff    	or     %eax,-0xed8(%rbp)
   1016c:	8b 85 28 f1 ff ff    	mov    -0xed8(%rbp),%eax
   10172:	48 8b 4d 98          	mov    -0x68(%rbp),%rcx
   10176:	48 98                	cltq   
   10178:	48 09 c8             	or     %rcx,%rax
   1017b:	48 89 45 98          	mov    %rax,-0x68(%rbp)
   1017f:	48 8b 45 98          	mov    -0x68(%rbp),%rax
   10183:	0f be c0             	movsbl %al,%eax
   10186:	89 d6                	mov    %edx,%esi
   10188:	89 c7                	mov    %eax,%edi
   1018a:	e8 45 80 ff ff       	callq  81d4 <safe_add_func_int8_t_s_s>
   1018f:	0f be c0             	movsbl %al,%eax
   10192:	be 04 00 00 00       	mov    $0x4,%esi
   10197:	89 c7                	mov    %eax,%edi
   10199:	e8 f4 82 ff ff       	callq  8492 <safe_lshift_func_int16_t_s_s>
   1019e:	48 0f bf d0          	movswq %ax,%rdx
   101a2:	48 8b 85 48 f0 ff ff 	mov    -0xfb8(%rbp),%rax
   101a9:	48 39 c2             	cmp    %rax,%rdx
   101ac:	0f 97 c0             	seta   %al
   101af:	0f b6 c8             	movzbl %al,%ecx
   101b2:	48 8b 85 40 f0 ff ff 	mov    -0xfc0(%rbp),%rax
   101b9:	8b 10                	mov    (%rax),%edx
   101bb:	48 8b 85 40 f0 ff ff 	mov    -0xfc0(%rbp),%rax
   101c2:	09 ca                	or     %ecx,%edx
   101c4:	89 10                	mov    %edx,(%rax)
   101c6:	83 ad 74 f0 ff ff 01 	subl   $0x1,-0xf8c(%rbp)
   101cd:	83 bd 74 f0 ff ff 00 	cmpl   $0x0,-0xf8c(%rbp)
   101d4:	0f 89 8a fe ff ff    	jns    10064 <func_16+0xc0e>
   101da:	8b 05 48 3e 01 00    	mov    0x13e48(%rip),%eax        # 24028 <g_62>
   101e0:	83 e8 01             	sub    $0x1,%eax
   101e3:	89 05 3f 3e 01 00    	mov    %eax,0x13e3f(%rip)        # 24028 <g_62>
   101e9:	8b 05 39 3e 01 00    	mov    0x13e39(%rip),%eax        # 24028 <g_62>
   101ef:	83 f8 fe             	cmp    $0xfffffffe,%eax
   101f2:	0f 8d c8 f5 ff ff    	jge    f7c0 <func_16+0x36a>
   101f8:	eb 01                	jmp    101fb <func_16+0xda5>
   101fa:	90                   	nop
   101fb:	48 8b 05 86 46 01 00 	mov    0x14686(%rip),%rax        # 24888 <g_505>
   10202:	48 83 c0 01          	add    $0x1,%rax
   10206:	48 89 05 7b 46 01 00 	mov    %rax,0x1467b(%rip)        # 24888 <g_505>
   1020d:	48 8b 05 74 46 01 00 	mov    0x14674(%rip),%rax        # 24888 <g_505>
   10214:	48 83 f8 2e          	cmp    $0x2e,%rax
   10218:	0f 87 b2 f4 ff ff    	ja     f6d0 <func_16+0x27a>
   1021e:	48 8b 05 d3 6e 01 00 	mov    0x16ed3(%rip),%rax        # 270f8 <g_501>
   10225:	48 8b 00             	mov    (%rax),%rax
   10228:	48 89 85 38 f0 ff ff 	mov    %rax,-0xfc8(%rbp)
   1022f:	48 8b 05 32 74 01 00 	mov    0x17432(%rip),%rax        # 27668 <g_4155>
   10236:	48 8b 00             	mov    (%rax),%rax
   10239:	48 8b 00             	mov    (%rax),%rax
   1023c:	48 8b 00             	mov    (%rax),%rax
   1023f:	0f b7 00             	movzwl (%rax),%eax
   10242:	0f bf d8             	movswl %ax,%ebx
   10245:	48 8d 05 f2 48 01 00 	lea    0x148f2(%rip),%rax        # 24b3e <g_3676>
   1024c:	66 c7 00 00 00       	movw   $0x0,(%rax)
   10251:	48 8b 85 48 f0 ff ff 	mov    -0xfb8(%rbp),%rax
   10258:	44 0f b6 e0          	movzbl %al,%r12d
   1025c:	48 8b 85 80 f1 ff ff 	mov    -0xe80(%rbp),%rax
   10263:	8b 00                	mov    (%rax),%eax
   10265:	8d 48 ff             	lea    -0x1(%rax),%ecx
   10268:	48 8b 95 80 f1 ff ff 	mov    -0xe80(%rbp),%rdx
   1026f:	89 0a                	mov    %ecx,(%rdx)
   10271:	48 8b 95 88 f1 ff ff 	mov    -0xe78(%rbp),%rdx
   10278:	89 02                	mov    %eax,(%rdx)
   1027a:	48 8b 85 88 f1 ff ff 	mov    -0xe78(%rbp),%rax
   10281:	8b 00                	mov    (%rax),%eax
   10283:	89 85 34 f0 ff ff    	mov    %eax,-0xfcc(%rbp)
   10289:	48 8b 85 48 f0 ff ff 	mov    -0xfb8(%rbp),%rax
   10290:	44 0f b6 e8          	movzbl %al,%r13d
   10294:	48 8b 85 40 f0 ff ff 	mov    -0xfc0(%rbp),%rax
   1029b:	44 8b 30             	mov    (%rax),%r14d
   1029e:	48 8b 85 48 f0 ff ff 	mov    -0xfb8(%rbp),%rax
   102a5:	89 85 30 f0 ff ff    	mov    %eax,-0xfd0(%rbp)
   102ab:	48 8b 85 40 f0 ff ff 	mov    -0xfc0(%rbp),%rax
   102b2:	44 8b 38             	mov    (%rax),%r15d
   102b5:	48 8b 85 48 f0 ff ff 	mov    -0xfb8(%rbp),%rax
   102bc:	0f be c0             	movsbl %al,%eax
   102bf:	89 c6                	mov    %eax,%esi
   102c1:	bf 0d 00 00 00       	mov    $0xd,%edi
   102c6:	e8 27 7f ff ff       	callq  81f2 <safe_sub_func_int8_t_s_s>
   102cb:	84 c0                	test   %al,%al
   102cd:	74 07                	je     102d6 <func_16+0xe80>
   102cf:	b8 01 00 00 00       	mov    $0x1,%eax
   102d4:	eb 05                	jmp    102db <func_16+0xe85>
   102d6:	b8 00 00 00 00       	mov    $0x0,%eax
   102db:	f7 d0                	not    %eax
   102dd:	44 89 fe             	mov    %r15d,%esi
   102e0:	89 c7                	mov    %eax,%edi
   102e2:	e8 cf 82 ff ff       	callq  85b6 <safe_add_func_int32_t_s_s>
   102e7:	0f be c0             	movsbl %al,%eax
   102ea:	8b b5 30 f0 ff ff    	mov    -0xfd0(%rbp),%esi
   102f0:	89 c7                	mov    %eax,%edi
   102f2:	e8 aa 7f ff ff       	callq  82a1 <safe_lshift_func_int8_t_s_s>
   102f7:	48 0f be d0          	movsbq %al,%rdx
   102fb:	48 8b 85 48 f0 ff ff 	mov    -0xfb8(%rbp),%rax
   10302:	48 09 c2             	or     %rax,%rdx
   10305:	48 8b 85 48 f0 ff ff 	mov    -0xfb8(%rbp),%rax
   1030c:	48 39 c2             	cmp    %rax,%rdx
   1030f:	0f 94 c0             	sete   %al
   10312:	0f b6 d0             	movzbl %al,%edx
   10315:	48 8b 85 48 f0 ff ff 	mov    -0xfb8(%rbp),%rax
   1031c:	48 39 c2             	cmp    %rax,%rdx
   1031f:	0f 94 c0             	sete   %al
   10322:	0f b6 c0             	movzbl %al,%eax
   10325:	48 89 85 60 f3 ff ff 	mov    %rax,-0xca0(%rbp)
   1032c:	48 8b 95 60 f3 ff ff 	mov    -0xca0(%rbp),%rdx
   10333:	48 8b 05 ee 6e 01 00 	mov    0x16eee(%rip),%rax        # 27228 <g_1125>
   1033a:	48 8b 00             	mov    (%rax),%rax
   1033d:	48 8b 00             	mov    (%rax),%rax
   10340:	48 8b 00             	mov    (%rax),%rax
   10343:	0f b6 00             	movzbl (%rax),%eax
   10346:	0f b6 c0             	movzbl %al,%eax
   10349:	48 39 c2             	cmp    %rax,%rdx
   1034c:	0f 92 c0             	setb   %al
   1034f:	0f b6 c0             	movzbl %al,%eax
   10352:	be 04 00 00 00       	mov    $0x4,%esi
   10357:	89 c7                	mov    %eax,%edi
   10359:	e8 d7 7f ff ff       	callq  8335 <safe_rshift_func_int8_t_s_s>
   1035e:	48 8b 05 e3 72 01 00 	mov    0x172e3(%rip),%rax        # 27648 <g_3748>
   10365:	48 8b 00             	mov    (%rax),%rax
   10368:	48 8b 00             	mov    (%rax),%rax
   1036b:	48 8b 00             	mov    (%rax),%rax
   1036e:	0f b7 00             	movzwl (%rax),%eax
   10371:	66 85 c0             	test   %ax,%ax
   10374:	74 1c                	je     10392 <func_16+0xf3c>
   10376:	48 8b 05 c3 72 01 00 	mov    0x172c3(%rip),%rax        # 27640 <g_3749>
   1037d:	48 8b 00             	mov    (%rax),%rax
   10380:	48 8b 00             	mov    (%rax),%rax
   10383:	0f b7 00             	movzwl (%rax),%eax
   10386:	66 85 c0             	test   %ax,%ax
   10389:	74 07                	je     10392 <func_16+0xf3c>
   1038b:	b8 01 00 00 00       	mov    $0x1,%eax
   10390:	eb 05                	jmp    10397 <func_16+0xf41>
   10392:	b8 00 00 00 00       	mov    $0x0,%eax
   10397:	44 89 f6             	mov    %r14d,%esi
   1039a:	89 c7                	mov    %eax,%edi
   1039c:	e8 5e 83 ff ff       	callq  86ff <safe_div_func_int32_t_s_s>
   103a1:	48 8b 05 40 6d 01 00 	mov    0x16d40(%rip),%rax        # 270e8 <g_379>
   103a8:	48 8b 00             	mov    (%rax),%rax
   103ab:	0f b6 00             	movzbl (%rax),%eax
   103ae:	0f b6 c0             	movzbl %al,%eax
   103b1:	44 89 ee             	mov    %r13d,%esi
   103b4:	89 c7                	mov    %eax,%edi
   103b6:	e8 bd 87 ff ff       	callq  8b78 <safe_sub_func_uint8_t_u_u>
   103bb:	0f b6 c0             	movzbl %al,%eax
   103be:	89 c6                	mov    %eax,%esi
   103c0:	bf fd 00 00 00       	mov    $0xfd,%edi
   103c5:	e8 82 88 ff ff       	callq  8c4c <safe_lshift_func_uint8_t_u_u>
   103ca:	0f b6 c0             	movzbl %al,%eax
   103cd:	33 85 34 f0 ff ff    	xor    -0xfcc(%rbp),%eax
   103d3:	89 c2                	mov    %eax,%edx
   103d5:	48 8b 85 48 f0 ff ff 	mov    -0xfb8(%rbp),%rax
   103dc:	48 39 c2             	cmp    %rax,%rdx
   103df:	0f 96 c0             	setbe  %al
   103e2:	0f b6 c0             	movzbl %al,%eax
   103e5:	44 89 e6             	mov    %r12d,%esi
   103e8:	89 c7                	mov    %eax,%edi
   103ea:	e8 89 87 ff ff       	callq  8b78 <safe_sub_func_uint8_t_u_u>
   103ef:	48 8b 05 92 69 01 00 	mov    0x16992(%rip),%rax        # 26d88 <g_146>
   103f6:	8b 00                	mov    (%rax),%eax
   103f8:	41 89 c4             	mov    %eax,%r12d
   103fb:	be 06 00 00 00       	mov    $0x6,%esi
   10400:	bf 06 00 00 00       	mov    $0x6,%edi
   10405:	e8 97 7e ff ff       	callq  82a1 <safe_lshift_func_int8_t_s_s>
   1040a:	84 c0                	test   %al,%al
   1040c:	0f 9e c0             	setle  %al
   1040f:	0f b6 d0             	movzbl %al,%edx
   10412:	48 8b 85 48 f0 ff ff 	mov    -0xfb8(%rbp),%rax
   10419:	48 09 d0             	or     %rdx,%rax
   1041c:	49 39 c4             	cmp    %rax,%r12
   1041f:	0f 92 c0             	setb   %al
   10422:	0f b6 c0             	movzbl %al,%eax
   10425:	48 39 85 90 f1 ff ff 	cmp    %rax,-0xe70(%rbp)
   1042c:	0f 96 c0             	setbe  %al
   1042f:	0f b6 c0             	movzbl %al,%eax
   10432:	89 de                	mov    %ebx,%esi
   10434:	89 c7                	mov    %eax,%edi
   10436:	e8 ef 80 ff ff       	callq  852a <safe_rshift_func_int16_t_s_s>
   1043b:	66 85 c0             	test   %ax,%ax
   1043e:	74 07                	je     10447 <func_16+0xff1>
   10440:	b8 01 00 00 00       	mov    $0x1,%eax
   10445:	eb 05                	jmp    1044c <func_16+0xff6>
   10447:	b8 00 00 00 00       	mov    $0x0,%eax
   1044c:	48 63 d0             	movslq %eax,%rdx
   1044f:	48 8b 05 d2 6c 01 00 	mov    0x16cd2(%rip),%rax        # 27128 <g_689>
   10456:	48 8b 00             	mov    (%rax),%rax
   10459:	48 8b 00             	mov    (%rax),%rax
   1045c:	48 39 c2             	cmp    %rax,%rdx
   1045f:	0f 9f c0             	setg   %al
   10462:	0f b6 c0             	movzbl %al,%eax
   10465:	f7 d0                	not    %eax
   10467:	48 63 d0             	movslq %eax,%rdx
   1046a:	48 8b 85 48 f0 ff ff 	mov    -0xfb8(%rbp),%rax
   10471:	48 39 c2             	cmp    %rax,%rdx
   10474:	0f 94 c0             	sete   %al
   10477:	0f b6 c0             	movzbl %al,%eax
   1047a:	48 89 85 48 f0 ff ff 	mov    %rax,-0xfb8(%rbp)
   10481:	48 8b 85 48 f0 ff ff 	mov    -0xfb8(%rbp),%rax
   10488:	48 8b b5 38 f0 ff ff 	mov    -0xfc8(%rbp),%rsi
   1048f:	48 89 c7             	mov    %rax,%rdi
   10492:	e8 97 8b ff ff       	callq  902e <safe_add_func_uint64_t_u_u>
   10497:	48 8b 05 ba 71 01 00 	mov    0x171ba(%rip),%rax        # 27658 <g_4060>
   1049e:	8b 00                	mov    (%rax),%eax
   104a0:	85 c0                	test   %eax,%eax
   104a2:	0f 84 a3 15 00 00    	je     11a4b <func_16+0x25f5>
   104a8:	48 8d 85 40 f8 ff ff 	lea    -0x7c0(%rbp),%rax
   104af:	48 8d 15 ca e0 00 00 	lea    0xe0ca(%rip),%rdx        # 1e580 <g_5653+0x14df>
   104b6:	b9 7e 00 00 00       	mov    $0x7e,%ecx
   104bb:	48 89 c7             	mov    %rax,%rdi
   104be:	48 89 d6             	mov    %rdx,%rsi
   104c1:	f3 48 a5             	rep movsq %ds:(%rsi),%es:(%rdi)
   104c4:	48 8d 05 fd 7a 01 00 	lea    0x17afd(%rip),%rax        # 27fc8 <g_1492>
   104cb:	48 89 85 d0 f4 ff ff 	mov    %rax,-0xb30(%rbp)
   104d2:	48 8d 05 ef 7a 01 00 	lea    0x17aef(%rip),%rax        # 27fc8 <g_1492>
   104d9:	48 89 85 d8 f4 ff ff 	mov    %rax,-0xb28(%rbp)
   104e0:	48 8d 05 e1 7a 01 00 	lea    0x17ae1(%rip),%rax        # 27fc8 <g_1492>
   104e7:	48 89 85 e0 f4 ff ff 	mov    %rax,-0xb20(%rbp)
   104ee:	48 8d 05 d3 7a 01 00 	lea    0x17ad3(%rip),%rax        # 27fc8 <g_1492>
   104f5:	48 89 85 e8 f4 ff ff 	mov    %rax,-0xb18(%rbp)
   104fc:	48 8d 05 c5 7a 01 00 	lea    0x17ac5(%rip),%rax        # 27fc8 <g_1492>
   10503:	48 89 85 f0 f4 ff ff 	mov    %rax,-0xb10(%rbp)
   1050a:	48 8d 05 b7 7a 01 00 	lea    0x17ab7(%rip),%rax        # 27fc8 <g_1492>
   10511:	48 89 85 f8 f4 ff ff 	mov    %rax,-0xb08(%rbp)
   10518:	48 8d 05 a9 7a 01 00 	lea    0x17aa9(%rip),%rax        # 27fc8 <g_1492>
   1051f:	48 89 85 00 f5 ff ff 	mov    %rax,-0xb00(%rbp)
   10526:	48 8d 05 9b 7a 01 00 	lea    0x17a9b(%rip),%rax        # 27fc8 <g_1492>
   1052d:	48 89 85 08 f5 ff ff 	mov    %rax,-0xaf8(%rbp)
   10534:	48 8d 05 8d 7a 01 00 	lea    0x17a8d(%rip),%rax        # 27fc8 <g_1492>
   1053b:	48 89 85 10 f5 ff ff 	mov    %rax,-0xaf0(%rbp)
   10542:	48 8d 05 7f 7a 01 00 	lea    0x17a7f(%rip),%rax        # 27fc8 <g_1492>
   10549:	48 89 85 18 f5 ff ff 	mov    %rax,-0xae8(%rbp)
   10550:	48 8d 05 71 7a 01 00 	lea    0x17a71(%rip),%rax        # 27fc8 <g_1492>
   10557:	48 89 85 20 f5 ff ff 	mov    %rax,-0xae0(%rbp)
   1055e:	48 8d 05 63 7a 01 00 	lea    0x17a63(%rip),%rax        # 27fc8 <g_1492>
   10565:	48 89 85 28 f5 ff ff 	mov    %rax,-0xad8(%rbp)
   1056c:	48 8d 05 55 7a 01 00 	lea    0x17a55(%rip),%rax        # 27fc8 <g_1492>
   10573:	48 89 85 30 f5 ff ff 	mov    %rax,-0xad0(%rbp)
   1057a:	48 8d 05 47 7a 01 00 	lea    0x17a47(%rip),%rax        # 27fc8 <g_1492>
   10581:	48 89 85 38 f5 ff ff 	mov    %rax,-0xac8(%rbp)
   10588:	48 8d 05 39 7a 01 00 	lea    0x17a39(%rip),%rax        # 27fc8 <g_1492>
   1058f:	48 89 85 40 f5 ff ff 	mov    %rax,-0xac0(%rbp)
   10596:	48 8d 05 2b 7a 01 00 	lea    0x17a2b(%rip),%rax        # 27fc8 <g_1492>
   1059d:	48 89 85 48 f5 ff ff 	mov    %rax,-0xab8(%rbp)
   105a4:	48 8d 05 1d 7a 01 00 	lea    0x17a1d(%rip),%rax        # 27fc8 <g_1492>
   105ab:	48 89 85 50 f5 ff ff 	mov    %rax,-0xab0(%rbp)
   105b2:	48 8d 05 0f 7a 01 00 	lea    0x17a0f(%rip),%rax        # 27fc8 <g_1492>
   105b9:	48 89 85 58 f5 ff ff 	mov    %rax,-0xaa8(%rbp)
   105c0:	48 8d 05 01 7a 01 00 	lea    0x17a01(%rip),%rax        # 27fc8 <g_1492>
   105c7:	48 89 85 60 f5 ff ff 	mov    %rax,-0xaa0(%rbp)
   105ce:	48 8d 05 f3 79 01 00 	lea    0x179f3(%rip),%rax        # 27fc8 <g_1492>
   105d5:	48 89 85 68 f5 ff ff 	mov    %rax,-0xa98(%rbp)
   105dc:	c6 85 56 f0 ff ff 4c 	movb   $0x4c,-0xfaa(%rbp)
   105e3:	48 8d 05 de 6d 01 00 	lea    0x16dde(%rip),%rax        # 273c8 <g_1496>
   105ea:	48 89 85 40 f1 ff ff 	mov    %rax,-0xec0(%rbp)
   105f1:	48 8d 85 40 f1 ff ff 	lea    -0xec0(%rbp),%rax
   105f8:	48 89 85 48 f1 ff ff 	mov    %rax,-0xeb8(%rbp)
   105ff:	48 8d 85 48 f1 ff ff 	lea    -0xeb8(%rbp),%rax
   10606:	48 89 85 f8 f1 ff ff 	mov    %rax,-0xe08(%rbp)
   1060d:	48 8d 05 18 45 01 00 	lea    0x14518(%rip),%rax        # 24b2c <g_3411>
   10614:	48 89 85 d0 f3 ff ff 	mov    %rax,-0xc30(%rbp)
   1061b:	48 8d 05 0a 45 01 00 	lea    0x1450a(%rip),%rax        # 24b2c <g_3411>
   10622:	48 89 85 d8 f3 ff ff 	mov    %rax,-0xc28(%rbp)
   10629:	48 8d 05 fc 44 01 00 	lea    0x144fc(%rip),%rax        # 24b2c <g_3411>
   10630:	48 89 85 e0 f3 ff ff 	mov    %rax,-0xc20(%rbp)
   10637:	48 8d 05 ee 44 01 00 	lea    0x144ee(%rip),%rax        # 24b2c <g_3411>
   1063e:	48 89 85 e8 f3 ff ff 	mov    %rax,-0xc18(%rbp)
   10645:	48 8d 05 e0 44 01 00 	lea    0x144e0(%rip),%rax        # 24b2c <g_3411>
   1064c:	48 89 85 f0 f3 ff ff 	mov    %rax,-0xc10(%rbp)
   10653:	c7 85 5c f0 ff ff bf 	movl   $0x7f9b9fbf,-0xfa4(%rbp)
   1065a:	9f 9b 7f 
   1065d:	c7 85 a4 f0 ff ff f6 	movl   $0xfffffff6,-0xf5c(%rbp)
   10664:	ff ff ff 
   10667:	c7 85 a8 f0 ff ff fc 	movl   $0xfffffffc,-0xf58(%rbp)
   1066e:	ff ff ff 
   10671:	c7 85 ac f0 ff ff fd 	movl   $0xfffffffd,-0xf54(%rbp)
   10678:	ff ff ff 
   1067b:	c7 85 a0 f3 ff ff e0 	movl   $0x42791ae0,-0xc60(%rbp)
   10682:	1a 79 42 
   10685:	c7 85 a4 f3 ff ff 35 	movl   $0x5820eb35,-0xc5c(%rbp)
   1068c:	eb 20 58 
   1068f:	c7 85 a8 f3 ff ff e0 	movl   $0x42791ae0,-0xc58(%rbp)
   10696:	1a 79 42 
   10699:	c7 85 ac f3 ff ff 35 	movl   $0x5820eb35,-0xc54(%rbp)
   106a0:	eb 20 58 
   106a3:	c7 85 b0 f3 ff ff e0 	movl   $0x42791ae0,-0xc50(%rbp)
   106aa:	1a 79 42 
   106ad:	c7 85 b4 f3 ff ff 35 	movl   $0x5820eb35,-0xc4c(%rbp)
   106b4:	eb 20 58 
   106b7:	c7 85 b8 f3 ff ff e0 	movl   $0x42791ae0,-0xc48(%rbp)
   106be:	1a 79 42 
   106c1:	c7 85 bc f3 ff ff 35 	movl   $0x5820eb35,-0xc44(%rbp)
   106c8:	eb 20 58 
   106cb:	c7 85 c0 f3 ff ff e0 	movl   $0x42791ae0,-0xc40(%rbp)
   106d2:	1a 79 42 
   106d5:	48 8b 85 48 f0 ff ff 	mov    -0xfb8(%rbp),%rax
   106dc:	89 c6                	mov    %eax,%esi
   106de:	bf 9e 71 00 00       	mov    $0x719e,%edi
   106e3:	e8 42 7e ff ff       	callq  852a <safe_rshift_func_int16_t_s_s>
   106e8:	0f bf d8             	movswl %ax,%ebx
   106eb:	48 8b 85 40 f0 ff ff 	mov    -0xfc0(%rbp),%rax
   106f2:	44 8b 20             	mov    (%rax),%r12d
   106f5:	48 8b 05 84 6d 01 00 	mov    0x16d84(%rip),%rax        # 27480 <g_2810>
   106fc:	48 8b 95 50 f5 ff ff 	mov    -0xab0(%rbp),%rdx
   10703:	48 89 10             	mov    %rdx,(%rax)
   10706:	be 07 00 00 00       	mov    $0x7,%esi
   1070b:	bf 01 00 00 00       	mov    $0x1,%edi
   10710:	e8 cc 7d ff ff       	callq  84e1 <safe_lshift_func_int16_t_s_u>
   10715:	0f be c0             	movsbl %al,%eax
   10718:	be f7 ff ff ff       	mov    $0xfffffff7,%esi
   1071d:	89 c7                	mov    %eax,%edi
   1071f:	e8 0d 7b ff ff       	callq  8231 <safe_mod_func_int8_t_s_s>
   10724:	0f be c0             	movsbl %al,%eax
   10727:	41 39 c4             	cmp    %eax,%r12d
   1072a:	0f 9d c0             	setge  %al
   1072d:	0f b6 c0             	movzbl %al,%eax
   10730:	8b 95 e4 f9 ff ff    	mov    -0x61c(%rbp),%edx
   10736:	89 d2                	mov    %edx,%edx
   10738:	48 39 d0             	cmp    %rdx,%rax
   1073b:	0f 93 c0             	setae  %al
   1073e:	0f b6 c0             	movzbl %al,%eax
   10741:	89 c7                	mov    %eax,%edi
   10743:	e8 4e 7e ff ff       	callq  8596 <safe_unary_minus_func_int32_t_s>
   10748:	89 c2                	mov    %eax,%edx
   1074a:	8b 85 e4 f9 ff ff    	mov    -0x61c(%rbp),%eax
   10750:	0f be c0             	movsbl %al,%eax
   10753:	89 d6                	mov    %edx,%esi
   10755:	89 c7                	mov    %eax,%edi
   10757:	e8 d9 7b ff ff       	callq  8335 <safe_rshift_func_int8_t_s_s>
   1075c:	0f be c0             	movsbl %al,%eax
   1075f:	09 d8                	or     %ebx,%eax
   10761:	89 c2                	mov    %eax,%edx
   10763:	8b 85 50 f9 ff ff    	mov    -0x6b0(%rbp),%eax
   10769:	89 d1                	mov    %edx,%ecx
   1076b:	21 c1                	and    %eax,%ecx
   1076d:	48 8b 05 e4 6e 01 00 	mov    0x16ee4(%rip),%rax        # 27658 <g_4060>
   10774:	8b 10                	mov    (%rax),%edx
   10776:	31 ca                	xor    %ecx,%edx
   10778:	89 10                	mov    %edx,(%rax)
   1077a:	c6 05 0f 41 01 00 0b 	movb   $0xb,0x1410f(%rip)        # 24890 <g_590>
   10781:	e9 b1 12 00 00       	jmpq   11a37 <func_16+0x25e1>
   10786:	c7 85 60 f0 ff ff fb 	movl   $0xfffffffb,-0xfa0(%rbp)
   1078d:	ff ff ff 
   10790:	c7 85 7c f0 ff ff 00 	movl   $0x0,-0xf84(%rbp)
   10797:	00 00 00 
   1079a:	48 8d 05 c7 6e 01 00 	lea    0x16ec7(%rip),%rax        # 27668 <g_4155>
   107a1:	48 89 85 00 f2 ff ff 	mov    %rax,-0xe00(%rbp)
   107a8:	c6 85 55 f0 ff ff 2d 	movb   $0x2d,-0xfab(%rbp)
   107af:	48 8d 05 da 6e 01 00 	lea    0x16eda(%rip),%rax        # 27690 <g_4356>
   107b6:	48 89 85 50 f1 ff ff 	mov    %rax,-0xeb0(%rbp)
   107bd:	48 c7 85 00 f4 ff ff 	movq   $0x0,-0xc00(%rbp)
   107c4:	00 00 00 00 
   107c8:	48 c7 85 08 f4 ff ff 	movq   $0x0,-0xbf8(%rbp)
   107cf:	00 00 00 00 
   107d3:	48 c7 85 10 f4 ff ff 	movq   $0x0,-0xbf0(%rbp)
   107da:	00 00 00 00 
   107de:	48 c7 85 18 f4 ff ff 	movq   $0x0,-0xbe8(%rbp)
   107e5:	00 00 00 00 
   107e9:	48 c7 85 20 f4 ff ff 	movq   $0x0,-0xbe0(%rbp)
   107f0:	00 00 00 00 
   107f4:	48 c7 85 28 f4 ff ff 	movq   $0x0,-0xbd8(%rbp)
   107fb:	00 00 00 00 
   107ff:	c7 85 b0 f0 ff ff f9 	movl   $0xfffffff9,-0xf50(%rbp)
   10806:	ff ff ff 
   10809:	c7 85 b4 f0 ff ff 14 	movl   $0x69cc3c14,-0xf4c(%rbp)
   10810:	3c cc 69 
   10813:	c7 85 b8 f0 ff ff 64 	movl   $0x6fb6b164,-0xf48(%rbp)
   1081a:	b1 b6 6f 
   1081d:	c7 85 bc f0 ff ff fb 	movl   $0xfffffffb,-0xf44(%rbp)
   10824:	ff ff ff 
   10827:	48 c7 85 08 f2 ff ff 	movq   $0x0,-0xdf8(%rbp)
   1082e:	00 00 00 00 
   10832:	48 8d 05 2f 43 01 00 	lea    0x1432f(%rip),%rax        # 24b68 <g_4450>
   10839:	48 89 85 58 f1 ff ff 	mov    %rax,-0xea8(%rbp)
   10840:	48 8d 85 58 f1 ff ff 	lea    -0xea8(%rbp),%rax
   10847:	48 89 85 10 f2 ff ff 	mov    %rax,-0xdf0(%rbp)
   1084e:	c6 05 6b 41 01 00 00 	movb   $0x0,0x1416b(%rip)        # 249c0 <g_1691>
   10855:	e9 70 09 00 00       	jmpq   111ca <func_16+0x1d74>
   1085a:	48 8d 05 67 77 01 00 	lea    0x17767(%rip),%rax        # 27fc8 <g_1492>
   10861:	48 89 85 58 f2 ff ff 	mov    %rax,-0xda8(%rbp)
   10868:	48 8d 85 48 f1 ff ff 	lea    -0xeb8(%rbp),%rax
   1086f:	48 89 85 60 f2 ff ff 	mov    %rax,-0xda0(%rbp)
   10876:	48 8d 05 bf 42 01 00 	lea    0x142bf(%rip),%rax        # 24b3c <g_3441+0x4>
   1087d:	48 89 85 68 f2 ff ff 	mov    %rax,-0xd98(%rbp)
   10884:	c7 85 e8 f0 ff ff 01 	movl   $0x1,-0xf18(%rbp)
   1088b:	00 00 00 
   1088e:	c7 85 ec f0 ff ff 01 	movl   $0x1,-0xf14(%rbp)
   10895:	00 00 00 
   10898:	48 8d 05 69 68 01 00 	lea    0x16869(%rip),%rax        # 27108 <g_570>
   1089f:	48 89 85 70 f2 ff ff 	mov    %rax,-0xd90(%rbp)
   108a6:	48 8d 05 2b 6b 01 00 	lea    0x16b2b(%rip),%rax        # 273d8 <g_1835>
   108ad:	48 89 85 78 f2 ff ff 	mov    %rax,-0xd88(%rbp)
   108b4:	48 8d 05 4d 68 01 00 	lea    0x1684d(%rip),%rax        # 27108 <g_570>
   108bb:	48 89 85 80 f3 ff ff 	mov    %rax,-0xc80(%rbp)
   108c2:	48 8d 05 3f 68 01 00 	lea    0x1683f(%rip),%rax        # 27108 <g_570>
   108c9:	48 89 85 88 f3 ff ff 	mov    %rax,-0xc78(%rbp)
   108d0:	48 8d 05 31 68 01 00 	lea    0x16831(%rip),%rax        # 27108 <g_570>
   108d7:	48 89 85 90 f3 ff ff 	mov    %rax,-0xc70(%rbp)
   108de:	48 8d 05 23 68 01 00 	lea    0x16823(%rip),%rax        # 27108 <g_570>
   108e5:	48 89 85 98 f3 ff ff 	mov    %rax,-0xc68(%rbp)
   108ec:	48 8d 85 80 f3 ff ff 	lea    -0xc80(%rbp),%rax
   108f3:	48 83 c0 18          	add    $0x18,%rax
   108f7:	48 89 85 80 f2 ff ff 	mov    %rax,-0xd80(%rbp)
   108fe:	c7 85 f0 f0 ff ff f6 	movl   $0xfffffff6,-0xf10(%rbp)
   10905:	ff ff ff 
   10908:	48 8d 05 61 6d 01 00 	lea    0x16d61(%rip),%rax        # 27670 <g_4343>
   1090f:	48 89 85 88 f2 ff ff 	mov    %rax,-0xd78(%rbp)
   10916:	48 8b 05 63 6b 01 00 	mov    0x16b63(%rip),%rax        # 27480 <g_2810>
   1091d:	48 8b 95 58 f2 ff ff 	mov    -0xda8(%rbp),%rdx
   10924:	48 89 10             	mov    %rdx,(%rax)
   10927:	48 8b 85 48 f0 ff ff 	mov    -0xfb8(%rbp),%rax
   1092e:	48 89 c2             	mov    %rax,%rdx
   10931:	48 8b 05 20 42 01 00 	mov    0x14220(%rip),%rax        # 24b58 <g_4279>
   10938:	48 89 d6             	mov    %rdx,%rsi
   1093b:	48 89 c7             	mov    %rax,%rdi
   1093e:	e8 65 7f ff ff       	callq  88a8 <safe_sub_func_int64_t_s_s>
   10943:	be 14 23 ff 87       	mov    $0x87ff2314,%esi
   10948:	89 c7                	mov    %eax,%edi
   1094a:	e8 69 85 ff ff       	callq  8eb8 <safe_add_func_uint32_t_u_u>
   1094f:	85 c0                	test   %eax,%eax
   10951:	0f 84 ab 00 00 00    	je     10a02 <func_16+0x15ac>
   10957:	48 8b 05 42 6b 01 00 	mov    0x16b42(%rip),%rax        # 274a0 <g_3521>
   1095e:	48 8b 00             	mov    (%rax),%rax
   10961:	48 89 85 e0 f3 ff ff 	mov    %rax,-0xc20(%rbp)
   10968:	48 83 bd a8 f1 ff ff 	cmpq   $0x0,-0xe58(%rbp)
   1096f:	00 
   10970:	0f 95 c0             	setne  %al
   10973:	0f b6 d0             	movzbl %al,%edx
   10976:	48 8b 85 78 f2 ff ff 	mov    -0xd88(%rbp),%rax
   1097d:	48 8b 8d 70 f2 ff ff 	mov    -0xd90(%rbp),%rcx
   10984:	48 89 08             	mov    %rcx,(%rax)
   10987:	48 8b 85 78 f2 ff ff 	mov    -0xd88(%rbp),%rax
   1098e:	48 8b 08             	mov    (%rax),%rcx
   10991:	48 8b 85 80 f2 ff ff 	mov    -0xd80(%rbp),%rax
   10998:	48 8d b5 30 f4 ff ff 	lea    -0xbd0(%rbp),%rsi
   1099f:	48 83 c6 38          	add    $0x38,%rsi
   109a3:	48 89 30             	mov    %rsi,(%rax)
   109a6:	48 8b 85 80 f2 ff ff 	mov    -0xd80(%rbp),%rax
   109ad:	48 8b 00             	mov    (%rax),%rax
   109b0:	48 39 c1             	cmp    %rax,%rcx
   109b3:	0f 94 c0             	sete   %al
   109b6:	0f b6 c0             	movzbl %al,%eax
   109b9:	48 8b 8d 48 f0 ff ff 	mov    -0xfb8(%rbp),%rcx
   109c0:	89 8d f0 f0 ff ff    	mov    %ecx,-0xf10(%rbp)
   109c6:	39 85 f0 f0 ff ff    	cmp    %eax,-0xf10(%rbp)
   109cc:	48 8b 85 48 f0 ff ff 	mov    -0xfb8(%rbp),%rax
   109d3:	98                   	cwtl   
   109d4:	89 d6                	mov    %edx,%esi
   109d6:	89 c7                	mov    %eax,%edi
   109d8:	e8 d6 79 ff ff       	callq  83b3 <safe_add_func_int16_t_s_s>
   109dd:	89 c2                	mov    %eax,%edx
   109df:	48 8b 85 40 f0 ff ff 	mov    -0xfc0(%rbp),%rax
   109e6:	0f bf d2             	movswl %dx,%edx
   109e9:	89 10                	mov    %edx,(%rax)
   109eb:	8b 00                	mov    (%rax),%eax
   109ed:	31 85 7c f0 ff ff    	xor    %eax,-0xf84(%rbp)
   109f3:	c7 05 6f 3e 01 00 00 	movl   $0x0,0x13e6f(%rip)        # 2486c <g_321>
   109fa:	00 00 00 
   109fd:	e9 a9 07 00 00       	jmpq   111ab <func_16+0x1d55>
   10a02:	48 8d 05 cf 69 01 00 	lea    0x169cf(%rip),%rax        # 273d8 <g_1835>
   10a09:	48 89 85 60 f1 ff ff 	mov    %rax,-0xea0(%rbp)
   10a10:	48 8d 85 60 f1 ff ff 	lea    -0xea0(%rbp),%rax
   10a17:	48 89 85 70 f5 ff ff 	mov    %rax,-0xa90(%rbp)
   10a1e:	48 8d 85 60 f1 ff ff 	lea    -0xea0(%rbp),%rax
   10a25:	48 89 85 78 f5 ff ff 	mov    %rax,-0xa88(%rbp)
   10a2c:	48 8d 85 60 f1 ff ff 	lea    -0xea0(%rbp),%rax
   10a33:	48 89 85 80 f5 ff ff 	mov    %rax,-0xa80(%rbp)
   10a3a:	48 8d 85 60 f1 ff ff 	lea    -0xea0(%rbp),%rax
   10a41:	48 89 85 88 f5 ff ff 	mov    %rax,-0xa78(%rbp)
   10a48:	48 8d 85 60 f1 ff ff 	lea    -0xea0(%rbp),%rax
   10a4f:	48 89 85 90 f5 ff ff 	mov    %rax,-0xa70(%rbp)
   10a56:	48 8d 85 60 f1 ff ff 	lea    -0xea0(%rbp),%rax
   10a5d:	48 89 85 98 f5 ff ff 	mov    %rax,-0xa68(%rbp)
   10a64:	48 8d 85 60 f1 ff ff 	lea    -0xea0(%rbp),%rax
   10a6b:	48 89 85 a0 f5 ff ff 	mov    %rax,-0xa60(%rbp)
   10a72:	48 8d 85 60 f1 ff ff 	lea    -0xea0(%rbp),%rax
   10a79:	48 89 85 a8 f5 ff ff 	mov    %rax,-0xa58(%rbp)
   10a80:	48 8d 85 60 f1 ff ff 	lea    -0xea0(%rbp),%rax
   10a87:	48 89 85 b0 f5 ff ff 	mov    %rax,-0xa50(%rbp)
   10a8e:	48 8d 85 60 f1 ff ff 	lea    -0xea0(%rbp),%rax
   10a95:	48 89 85 b8 f5 ff ff 	mov    %rax,-0xa48(%rbp)
   10a9c:	48 8d 85 60 f1 ff ff 	lea    -0xea0(%rbp),%rax
   10aa3:	48 89 85 c0 f5 ff ff 	mov    %rax,-0xa40(%rbp)
   10aaa:	48 8d 85 60 f1 ff ff 	lea    -0xea0(%rbp),%rax
   10ab1:	48 89 85 c8 f5 ff ff 	mov    %rax,-0xa38(%rbp)
   10ab8:	48 8d 85 60 f1 ff ff 	lea    -0xea0(%rbp),%rax
   10abf:	48 89 85 d0 f5 ff ff 	mov    %rax,-0xa30(%rbp)
   10ac6:	48 8d 85 60 f1 ff ff 	lea    -0xea0(%rbp),%rax
   10acd:	48 89 85 d8 f5 ff ff 	mov    %rax,-0xa28(%rbp)
   10ad4:	48 8d 85 60 f1 ff ff 	lea    -0xea0(%rbp),%rax
   10adb:	48 89 85 e0 f5 ff ff 	mov    %rax,-0xa20(%rbp)
   10ae2:	48 8d 85 60 f1 ff ff 	lea    -0xea0(%rbp),%rax
   10ae9:	48 89 85 e8 f5 ff ff 	mov    %rax,-0xa18(%rbp)
   10af0:	48 8d 85 60 f1 ff ff 	lea    -0xea0(%rbp),%rax
   10af7:	48 89 85 f0 f5 ff ff 	mov    %rax,-0xa10(%rbp)
   10afe:	48 8d 85 60 f1 ff ff 	lea    -0xea0(%rbp),%rax
   10b05:	48 89 85 f8 f5 ff ff 	mov    %rax,-0xa08(%rbp)
   10b0c:	48 8d 85 60 f1 ff ff 	lea    -0xea0(%rbp),%rax
   10b13:	48 89 85 00 f6 ff ff 	mov    %rax,-0xa00(%rbp)
   10b1a:	48 8d 85 60 f1 ff ff 	lea    -0xea0(%rbp),%rax
   10b21:	48 89 85 08 f6 ff ff 	mov    %rax,-0x9f8(%rbp)
   10b28:	48 8d 85 60 f1 ff ff 	lea    -0xea0(%rbp),%rax
   10b2f:	48 89 85 10 f6 ff ff 	mov    %rax,-0x9f0(%rbp)
   10b36:	48 8d 85 60 f1 ff ff 	lea    -0xea0(%rbp),%rax
   10b3d:	48 89 85 18 f6 ff ff 	mov    %rax,-0x9e8(%rbp)
   10b44:	48 8d 85 60 f1 ff ff 	lea    -0xea0(%rbp),%rax
   10b4b:	48 89 85 20 f6 ff ff 	mov    %rax,-0x9e0(%rbp)
   10b52:	48 8d 85 60 f1 ff ff 	lea    -0xea0(%rbp),%rax
   10b59:	48 89 85 28 f6 ff ff 	mov    %rax,-0x9d8(%rbp)
   10b60:	48 8d 85 60 f1 ff ff 	lea    -0xea0(%rbp),%rax
   10b67:	48 89 85 30 f6 ff ff 	mov    %rax,-0x9d0(%rbp)
   10b6e:	48 8d 85 60 f1 ff ff 	lea    -0xea0(%rbp),%rax
   10b75:	48 89 85 38 f6 ff ff 	mov    %rax,-0x9c8(%rbp)
   10b7c:	48 8d 85 60 f1 ff ff 	lea    -0xea0(%rbp),%rax
   10b83:	48 89 85 40 f6 ff ff 	mov    %rax,-0x9c0(%rbp)
   10b8a:	48 8d 85 60 f1 ff ff 	lea    -0xea0(%rbp),%rax
   10b91:	48 89 85 48 f6 ff ff 	mov    %rax,-0x9b8(%rbp)
   10b98:	48 8b 85 48 f0 ff ff 	mov    -0xfb8(%rbp),%rax
   10b9f:	0f be d8             	movsbl %al,%ebx
   10ba2:	8b 85 e8 f0 ff ff    	mov    -0xf18(%rbp),%eax
   10ba8:	44 0f bf e0          	movswl %ax,%r12d
   10bac:	48 8b 85 48 f0 ff ff 	mov    -0xfb8(%rbp),%rax
   10bb3:	0f be d0             	movsbl %al,%edx
   10bb6:	48 8b 05 93 6a 01 00 	mov    0x16a93(%rip),%rax        # 27650 <g_4025>
   10bbd:	48 8b 00             	mov    (%rax),%rax
   10bc0:	48 8b 00             	mov    (%rax),%rax
   10bc3:	48 39 85 a0 f1 ff ff 	cmp    %rax,-0xe60(%rbp)
   10bca:	0f 95 c0             	setne  %al
   10bcd:	0f b6 c0             	movzbl %al,%eax
   10bd0:	89 d6                	mov    %edx,%esi
   10bd2:	89 c7                	mov    %eax,%edi
   10bd4:	e8 39 76 ff ff       	callq  8212 <safe_mul_func_int8_t_s_s>
   10bd9:	48 8b 05 f0 68 01 00 	mov    0x168f0(%rip),%rax        # 274d0 <g_3674>
   10be0:	48 8b 00             	mov    (%rax),%rax
   10be3:	0f b7 00             	movzwl (%rax),%eax
   10be6:	0f b7 d0             	movzwl %ax,%edx
   10be9:	8b 85 60 f0 ff ff    	mov    -0xfa0(%rbp),%eax
   10bef:	39 c2                	cmp    %eax,%edx
   10bf1:	0f 96 c0             	setbe  %al
   10bf4:	0f b6 d0             	movzbl %al,%edx
   10bf7:	48 8b 85 48 f0 ff ff 	mov    -0xfb8(%rbp),%rax
   10bfe:	0f b6 c0             	movzbl %al,%eax
   10c01:	89 d6                	mov    %edx,%esi
   10c03:	89 c7                	mov    %eax,%edi
   10c05:	e8 89 7f ff ff       	callq  8b93 <safe_mul_func_uint8_t_u_u>
   10c0a:	48 8b 05 5f 68 01 00 	mov    0x1685f(%rip),%rax        # 27470 <g_2574>
   10c11:	0f b7 10             	movzwl (%rax),%edx
   10c14:	48 8b 05 45 6a 01 00 	mov    0x16a45(%rip),%rax        # 27660 <g_4156>
   10c1b:	48 8b 00             	mov    (%rax),%rax
   10c1e:	48 8b 00             	mov    (%rax),%rax
   10c21:	0f b7 00             	movzwl (%rax),%eax
   10c24:	66 39 c2             	cmp    %ax,%dx
   10c27:	0f 9f c0             	setg   %al
   10c2a:	0f b6 c0             	movzbl %al,%eax
   10c2d:	44 89 e6             	mov    %r12d,%esi
   10c30:	89 c7                	mov    %eax,%edi
   10c32:	e8 9c 77 ff ff       	callq  83d3 <safe_sub_func_int16_t_s_s>
   10c37:	48 0f bf c0          	movswq %ax,%rax
   10c3b:	48 be e8 a5 ba 3f 10 	movabs $0x8e11cb103fbaa5e8,%rsi
   10c42:	cb 11 8e 
   10c45:	48 89 c7             	mov    %rax,%rdi
   10c48:	e8 62 84 ff ff       	callq  90af <safe_div_func_uint64_t_u_u>
   10c4d:	89 c2                	mov    %eax,%edx
   10c4f:	48 8b 85 48 f0 ff ff 	mov    -0xfb8(%rbp),%rax
   10c56:	21 d0                	and    %edx,%eax
   10c58:	48 8b 95 48 f0 ff ff 	mov    -0xfb8(%rbp),%rdx
   10c5f:	21 d0                	and    %edx,%eax
   10c61:	0f b6 c0             	movzbl %al,%eax
   10c64:	be 7e 00 00 00       	mov    $0x7e,%esi
   10c69:	89 c7                	mov    %eax,%edi
   10c6b:	e8 08 7f ff ff       	callq  8b78 <safe_sub_func_uint8_t_u_u>
   10c70:	0f be c0             	movsbl %al,%eax
   10c73:	89 de                	mov    %ebx,%esi
   10c75:	89 c7                	mov    %eax,%edi
   10c77:	e8 96 75 ff ff       	callq  8212 <safe_mul_func_int8_t_s_s>
   10c7c:	48 8b 05 b5 65 01 00 	mov    0x165b5(%rip),%rax        # 27238 <g_1225>
   10c83:	8b 85 7c f0 ff ff    	mov    -0xf84(%rbp),%eax
   10c89:	89 85 e8 f0 ff ff    	mov    %eax,-0xf18(%rbp)
   10c8f:	83 bd e8 f0 ff ff 00 	cmpl   $0x0,-0xf18(%rbp)
   10c96:	74 13                	je     10cab <func_16+0x1855>
   10c98:	48 8b 85 48 f0 ff ff 	mov    -0xfb8(%rbp),%rax
   10c9f:	48 85 c0             	test   %rax,%rax
   10ca2:	74 07                	je     10cab <func_16+0x1855>
   10ca4:	b8 01 00 00 00       	mov    $0x1,%eax
   10ca9:	eb 05                	jmp    10cb0 <func_16+0x185a>
   10cab:	b8 00 00 00 00       	mov    $0x0,%eax
   10cb0:	0f b7 c0             	movzwl %ax,%eax
   10cb3:	be f9 ff 00 00       	mov    $0xfff9,%esi
   10cb8:	89 c7                	mov    %eax,%edi
   10cba:	e8 7e 80 ff ff       	callq  8d3d <safe_mul_func_uint16_t_u_u>
   10cbf:	0f b6 c0             	movzbl %al,%eax
   10cc2:	be f9 00 00 00       	mov    $0xf9,%esi
   10cc7:	89 c7                	mov    %eax,%edi
   10cc9:	e8 8c 7e ff ff       	callq  8b5a <safe_add_func_uint8_t_u_u>
   10cce:	84 c0                	test   %al,%al
   10cd0:	74 14                	je     10ce6 <func_16+0x1890>
   10cd2:	48 8b 85 40 f0 ff ff 	mov    -0xfc0(%rbp),%rax
   10cd9:	8b 00                	mov    (%rax),%eax
   10cdb:	85 c0                	test   %eax,%eax
   10cdd:	74 07                	je     10ce6 <func_16+0x1890>
   10cdf:	b8 01 00 00 00       	mov    $0x1,%eax
   10ce4:	eb 05                	jmp    10ceb <func_16+0x1895>
   10ce6:	b8 00 00 00 00       	mov    $0x0,%eax
   10ceb:	31 85 ec f0 ff ff    	xor    %eax,-0xf14(%rbp)
   10cf1:	48 8b 85 48 f0 ff ff 	mov    -0xfb8(%rbp),%rax
   10cf8:	e9 3c 10 00 00       	jmpq   11d39 <func_16+0x28e3>
   10cfd:	66 c7 85 70 f5 ff ff 	movw   $0x0,-0xa90(%rbp)
   10d04:	00 00 
   10d06:	66 c7 85 72 f5 ff ff 	movw   $0x1eb9,-0xa8e(%rbp)
   10d0d:	b9 1e 
   10d0f:	66 c7 85 74 f5 ff ff 	movw   $0x1eb9,-0xa8c(%rbp)
   10d16:	b9 1e 
   10d18:	66 c7 85 76 f5 ff ff 	movw   $0x0,-0xa8a(%rbp)
   10d1f:	00 00 
   10d21:	66 c7 85 78 f5 ff ff 	movw   $0x1eb9,-0xa88(%rbp)
   10d28:	b9 1e 
   10d2a:	66 c7 85 7a f5 ff ff 	movw   $0x1eb9,-0xa86(%rbp)
   10d31:	b9 1e 
   10d33:	66 c7 85 7c f5 ff ff 	movw   $0x0,-0xa84(%rbp)
   10d3a:	00 00 
   10d3c:	66 c7 85 7e f5 ff ff 	movw   $0x1eb9,-0xa82(%rbp)
   10d43:	b9 1e 
   10d45:	66 c7 85 80 f5 ff ff 	movw   $0x1eb9,-0xa80(%rbp)
   10d4c:	b9 1e 
   10d4e:	66 c7 85 82 f5 ff ff 	movw   $0x0,-0xa7e(%rbp)
   10d55:	00 00 
   10d57:	66 c7 85 84 f5 ff ff 	movw   $0x1eb9,-0xa7c(%rbp)
   10d5e:	b9 1e 
   10d60:	66 c7 85 86 f5 ff ff 	movw   $0x0,-0xa7a(%rbp)
   10d67:	00 00 
   10d69:	66 c7 85 88 f5 ff ff 	movw   $0x1eb9,-0xa78(%rbp)
   10d70:	b9 1e 
   10d72:	66 c7 85 8a f5 ff ff 	movw   $0x1eb9,-0xa76(%rbp)
   10d79:	b9 1e 
   10d7b:	66 c7 85 8c f5 ff ff 	movw   $0x0,-0xa74(%rbp)
   10d82:	00 00 
   10d84:	66 c7 85 8e f5 ff ff 	movw   $0x1eb9,-0xa72(%rbp)
   10d8b:	b9 1e 
   10d8d:	66 c7 85 90 f5 ff ff 	movw   $0x1eb9,-0xa70(%rbp)
   10d94:	b9 1e 
   10d96:	66 c7 85 92 f5 ff ff 	movw   $0x0,-0xa6e(%rbp)
   10d9d:	00 00 
   10d9f:	66 c7 85 94 f5 ff ff 	movw   $0x1eb9,-0xa6c(%rbp)
   10da6:	b9 1e 
   10da8:	66 c7 85 96 f5 ff ff 	movw   $0x1eb9,-0xa6a(%rbp)
   10daf:	b9 1e 
   10db1:	66 c7 85 98 f5 ff ff 	movw   $0x0,-0xa68(%rbp)
   10db8:	00 00 
   10dba:	66 c7 85 9a f5 ff ff 	movw   $0x0,-0xa66(%rbp)
   10dc1:	00 00 
   10dc3:	66 c7 85 9c f5 ff ff 	movw   $0x1,-0xa64(%rbp)
   10dca:	01 00 
   10dcc:	66 c7 85 9e f5 ff ff 	movw   $0x0,-0xa62(%rbp)
   10dd3:	00 00 
   10dd5:	66 c7 85 a0 f5 ff ff 	movw   $0x0,-0xa60(%rbp)
   10ddc:	00 00 
   10dde:	66 c7 85 a2 f5 ff ff 	movw   $0x1,-0xa5e(%rbp)
   10de5:	01 00 
   10de7:	66 c7 85 a4 f5 ff ff 	movw   $0x0,-0xa5c(%rbp)
   10dee:	00 00 
   10df0:	66 c7 85 a6 f5 ff ff 	movw   $0x0,-0xa5a(%rbp)
   10df7:	00 00 
   10df9:	66 c7 85 a8 f5 ff ff 	movw   $0x1,-0xa58(%rbp)
   10e00:	01 00 
   10e02:	66 c7 85 aa f5 ff ff 	movw   $0x0,-0xa56(%rbp)
   10e09:	00 00 
   10e0b:	66 c7 85 ac f5 ff ff 	movw   $0x0,-0xa54(%rbp)
   10e12:	00 00 
   10e14:	66 c7 85 ae f5 ff ff 	movw   $0x1eb9,-0xa52(%rbp)
   10e1b:	b9 1e 
   10e1d:	66 c7 85 b0 f5 ff ff 	movw   $0x1eb9,-0xa50(%rbp)
   10e24:	b9 1e 
   10e26:	66 c7 85 b2 f5 ff ff 	movw   $0x0,-0xa4e(%rbp)
   10e2d:	00 00 
   10e2f:	66 c7 85 b4 f5 ff ff 	movw   $0x1eb9,-0xa4c(%rbp)
   10e36:	b9 1e 
   10e38:	66 c7 85 b6 f5 ff ff 	movw   $0x1eb9,-0xa4a(%rbp)
   10e3f:	b9 1e 
   10e41:	66 c7 85 b8 f5 ff ff 	movw   $0x0,-0xa48(%rbp)
   10e48:	00 00 
   10e4a:	66 c7 85 ba f5 ff ff 	movw   $0x1eb9,-0xa46(%rbp)
   10e51:	b9 1e 
   10e53:	66 c7 85 bc f5 ff ff 	movw   $0x1eb9,-0xa44(%rbp)
   10e5a:	b9 1e 
   10e5c:	66 c7 85 be f5 ff ff 	movw   $0x0,-0xa42(%rbp)
   10e63:	00 00 
   10e65:	48 8d 85 54 f0 ff ff 	lea    -0xfac(%rbp),%rax
   10e6c:	48 89 85 90 f2 ff ff 	mov    %rax,-0xd70(%rbp)
   10e73:	c7 85 f4 f0 ff ff ff 	movl   $0xffffffff,-0xf0c(%rbp)
   10e7a:	ff ff ff 
   10e7d:	c6 85 57 f0 ff ff 00 	movb   $0x0,-0xfa9(%rbp)
   10e84:	66 c7 85 5a f0 ff ff 	movw   $0x5,-0xfa6(%rbp)
   10e8b:	05 00 
   10e8d:	48 c7 05 28 6d 01 00 	movq   $0x3,0x16d28(%rip)        # 27bc0 <g_183>
   10e94:	03 00 00 00 
   10e98:	90                   	nop
   10e99:	48 8b 05 20 6d 01 00 	mov    0x16d20(%rip),%rax        # 27bc0 <g_183>
   10ea0:	48 85 c0             	test   %rax,%rax
   10ea3:	0f 88 f3 02 00 00    	js     1119c <func_16+0x1d46>
   10ea9:	c7 85 f8 f0 ff ff 88 	movl   $0xbb021688,-0xf08(%rbp)
   10eb0:	16 02 bb 
   10eb3:	c7 85 80 f0 ff ff 00 	movl   $0x0,-0xf80(%rbp)
   10eba:	00 00 00 
   10ebd:	eb 1e                	jmp    10edd <func_16+0x1a87>
   10ebf:	8b 85 80 f0 ff ff    	mov    -0xf80(%rbp),%eax
   10ec5:	48 98                	cltq   
   10ec7:	48 8d 15 aa 67 01 00 	lea    0x167aa(%rip),%rdx        # 27678 <g_4342>
   10ece:	48 89 94 c5 40 f3 ff 	mov    %rdx,-0xcc0(%rbp,%rax,8)
   10ed5:	ff 
   10ed6:	83 85 80 f0 ff ff 01 	addl   $0x1,-0xf80(%rbp)
   10edd:	83 bd 80 f0 ff ff 02 	cmpl   $0x2,-0xf80(%rbp)
   10ee4:	7e d9                	jle    10ebf <func_16+0x1a69>
   10ee6:	48 8b 85 40 f0 ff ff 	mov    -0xfc0(%rbp),%rax
   10eed:	8b 00                	mov    (%rax),%eax
   10eef:	41 89 c5             	mov    %eax,%r13d
   10ef2:	48 8b 85 48 f0 ff ff 	mov    -0xfb8(%rbp),%rax
   10ef9:	0f b6 d8             	movzbl %al,%ebx
   10efc:	48 8b 85 48 f0 ff ff 	mov    -0xfb8(%rbp),%rax
   10f03:	66 89 85 ba f5 ff ff 	mov    %ax,-0xa46(%rbp)
   10f0a:	48 8b 85 48 f0 ff ff 	mov    -0xfb8(%rbp),%rax
   10f11:	44 0f b6 e0          	movzbl %al,%r12d
   10f15:	8b 85 f8 f0 ff ff    	mov    -0xf08(%rbp),%eax
   10f1b:	0f bf d0             	movswl %ax,%edx
   10f1e:	48 8b 85 78 f2 ff ff 	mov    -0xd88(%rbp),%rax
   10f25:	48 8b 00             	mov    (%rax),%rax
   10f28:	48 8b 8d 90 f2 ff ff 	mov    -0xd70(%rbp),%rcx
   10f2f:	48 89 08             	mov    %rcx,(%rax)
   10f32:	48 8b 85 48 f0 ff ff 	mov    -0xfb8(%rbp),%rax
   10f39:	98                   	cwtl   
   10f3a:	89 d6                	mov    %edx,%esi
   10f3c:	89 c7                	mov    %eax,%edi
   10f3e:	e8 90 74 ff ff       	callq  83d3 <safe_sub_func_int16_t_s_s>
   10f43:	0f b6 c0             	movzbl %al,%eax
   10f46:	44 89 e6             	mov    %r12d,%esi
   10f49:	89 c7                	mov    %eax,%edi
   10f4b:	e8 43 7c ff ff       	callq  8b93 <safe_mul_func_uint8_t_u_u>
   10f50:	48 8b 85 48 f0 ff ff 	mov    -0xfb8(%rbp),%rax
   10f57:	89 c2                	mov    %eax,%edx
   10f59:	48 8b 85 88 f1 ff ff 	mov    -0xe78(%rbp),%rax
   10f60:	89 10                	mov    %edx,(%rax)
   10f62:	be 01 00 00 00       	mov    $0x1,%esi
   10f67:	bf 01 00 00 00       	mov    $0x1,%edi
   10f6c:	e8 47 7f ff ff       	callq  8eb8 <safe_add_func_uint32_t_u_u>
   10f71:	85 c0                	test   %eax,%eax
   10f73:	0f 95 c0             	setne  %al
   10f76:	0f b6 c0             	movzbl %al,%eax
   10f79:	39 85 f4 f0 ff ff    	cmp    %eax,-0xf0c(%rbp)
   10f7f:	7d 0c                	jge    10f8d <func_16+0x1b37>
   10f81:	0f b7 85 ba f5 ff ff 	movzwl -0xa46(%rbp),%eax
   10f88:	66 85 c0             	test   %ax,%ax
   10f8b:	74 07                	je     10f94 <func_16+0x1b3e>
   10f8d:	b8 01 00 00 00       	mov    $0x1,%eax
   10f92:	eb 05                	jmp    10f99 <func_16+0x1b43>
   10f94:	b8 00 00 00 00       	mov    $0x0,%eax
   10f99:	98                   	cwtl   
   10f9a:	be fa ff ff ff       	mov    $0xfffffffa,%esi
   10f9f:	89 c7                	mov    %eax,%edi
   10fa1:	e8 0d 74 ff ff       	callq  83b3 <safe_add_func_int16_t_s_s>
   10fa6:	48 8b 85 48 f0 ff ff 	mov    -0xfb8(%rbp),%rax
   10fad:	48 3d fe ff 00 00    	cmp    $0xfffe,%rax
   10fb3:	0f 97 c0             	seta   %al
   10fb6:	0f b6 d0             	movzbl %al,%edx
   10fb9:	8b 85 60 f0 ff ff    	mov    -0xfa0(%rbp),%eax
   10fbf:	31 d0                	xor    %edx,%eax
   10fc1:	89 c2                	mov    %eax,%edx
   10fc3:	48 8b 85 48 f0 ff ff 	mov    -0xfb8(%rbp),%rax
   10fca:	48 39 c2             	cmp    %rax,%rdx
   10fcd:	0f 97 c0             	seta   %al
   10fd0:	0f b6 c0             	movzbl %al,%eax
   10fd3:	89 de                	mov    %ebx,%esi
   10fd5:	89 c7                	mov    %eax,%edi
   10fd7:	e8 9c 7b ff ff       	callq  8b78 <safe_sub_func_uint8_t_u_u>
   10fdc:	48 8b 85 48 f0 ff ff 	mov    -0xfb8(%rbp),%rax
   10fe3:	44 89 ee             	mov    %r13d,%esi
   10fe6:	89 c7                	mov    %eax,%edi
   10fe8:	e8 10 7f ff ff       	callq  8efd <safe_mod_func_uint32_t_u_u>
   10fed:	48 8b 15 9c 5d 01 00 	mov    0x15d9c(%rip),%rdx        # 26d90 <g_145>
   10ff4:	48 8b 12             	mov    (%rdx),%rdx
   10ff7:	8b 12                	mov    (%rdx),%edx
   10ff9:	39 d0                	cmp    %edx,%eax
   10ffb:	0f 93 c0             	setae  %al
   10ffe:	0f b6 c0             	movzbl %al,%eax
   11001:	89 c7                	mov    %eax,%edi
   11003:	e8 3d 7b ff ff       	callq  8b45 <safe_unary_minus_func_uint8_t_u>
   11008:	08 85 57 f0 ff ff    	or     %al,-0xfa9(%rbp)
   1100e:	66 0f be 85 55 f0 ff 	movsbw -0xfab(%rbp),%ax
   11015:	ff 
   11016:	0f b7 d8             	movzwl %ax,%ebx
   11019:	44 8b a5 f0 f0 ff ff 	mov    -0xf10(%rbp),%r12d
   11020:	48 8d 05 17 3b 01 00 	lea    0x13b17(%rip),%rax        # 24b3e <g_3676>
   11027:	0f b7 00             	movzwl (%rax),%eax
   1102a:	44 0f bf e8          	movswl %ax,%r13d
   1102e:	48 8b 05 43 66 01 00 	mov    0x16643(%rip),%rax        # 27678 <g_4342>
   11035:	48 89 85 88 f2 ff ff 	mov    %rax,-0xd78(%rbp)
   1103c:	48 83 bd 88 f2 ff ff 	cmpq   $0x0,-0xd78(%rbp)
   11043:	00 
   11044:	0f b6 05 15 3b 01 00 	movzbl 0x13b15(%rip),%eax        # 24b60 <g_4354>
   1104b:	44 0f b6 f0          	movzbl %al,%r14d
   1104f:	48 8b 85 48 f0 ff ff 	mov    -0xfb8(%rbp),%rax
   11056:	49 89 c7             	mov    %rax,%r15
   11059:	8b 85 f8 f0 ff ff    	mov    -0xf08(%rbp),%eax
   1105f:	98                   	cwtl   
   11060:	be 03 00 00 00       	mov    $0x3,%esi
   11065:	89 c7                	mov    %eax,%edi
   11067:	e8 75 74 ff ff       	callq  84e1 <safe_lshift_func_int16_t_s_u>
   1106c:	48 0f bf d0          	movswq %ax,%rdx
   11070:	48 8b 85 48 f0 ff ff 	mov    -0xfb8(%rbp),%rax
   11077:	48 39 c2             	cmp    %rax,%rdx
   1107a:	0f 97 c0             	seta   %al
   1107d:	0f b6 d0             	movzbl %al,%edx
   11080:	48 8b 85 48 f0 ff ff 	mov    -0xfb8(%rbp),%rax
   11087:	48 39 c2             	cmp    %rax,%rdx
   1108a:	0f 97 c0             	seta   %al
   1108d:	0f b6 d0             	movzbl %al,%edx
   11090:	0f bf 85 5a f0 ff ff 	movswl -0xfa6(%rbp),%eax
   11097:	39 c2                	cmp    %eax,%edx
   11099:	0f 9c c0             	setl   %al
   1109c:	0f b6 c0             	movzbl %al,%eax
   1109f:	4c 89 fe             	mov    %r15,%rsi
   110a2:	48 89 c7             	mov    %rax,%rdi
   110a5:	e8 fe 77 ff ff       	callq  88a8 <safe_sub_func_int64_t_s_s>
   110aa:	4c 89 f6             	mov    %r14,%rsi
   110ad:	48 89 c7             	mov    %rax,%rdi
   110b0:	e8 fa 7f ff ff       	callq  90af <safe_div_func_uint64_t_u_u>
   110b5:	48 85 c0             	test   %rax,%rax
   110b8:	0f 95 c0             	setne  %al
   110bb:	0f b6 c0             	movzbl %al,%eax
   110be:	48 89 85 48 f0 ff ff 	mov    %rax,-0xfb8(%rbp)
   110c5:	48 8b 85 48 f0 ff ff 	mov    -0xfb8(%rbp),%rax
   110cc:	48 89 c7             	mov    %rax,%rdi
   110cf:	e8 45 7f ff ff       	callq  9019 <safe_unary_minus_func_uint64_t_u>
   110d4:	48 8b 85 48 f0 ff ff 	mov    -0xfb8(%rbp),%rax
   110db:	48 ba 2e 1c 01 90 74 	movabs $0xfc51c57490011c2e,%rdx
   110e2:	c5 51 fc 
   110e5:	48 39 d0             	cmp    %rdx,%rax
   110e8:	0f 97 c0             	seta   %al
   110eb:	0f b6 c0             	movzbl %al,%eax
   110ee:	be 47 00 00 00       	mov    $0x47,%esi
   110f3:	89 c7                	mov    %eax,%edi
   110f5:	e8 99 7a ff ff       	callq  8b93 <safe_mul_func_uint8_t_u_u>
   110fa:	0f b6 c0             	movzbl %al,%eax
   110fd:	44 89 ee             	mov    %r13d,%esi
   11100:	89 c7                	mov    %eax,%edi
   11102:	e8 0f 73 ff ff       	callq  8416 <safe_mod_func_int16_t_s_s>
   11107:	8b 85 e8 f0 ff ff    	mov    -0xf18(%rbp),%eax
   1110d:	48 63 d0             	movslq %eax,%rdx
   11110:	48 8b 85 48 f0 ff ff 	mov    -0xfb8(%rbp),%rax
   11117:	48 39 c2             	cmp    %rax,%rdx
   1111a:	0f 96 c0             	setbe  %al
   1111d:	0f b6 c0             	movzbl %al,%eax
   11120:	4c 89 e6             	mov    %r12,%rsi
   11123:	48 89 c7             	mov    %rax,%rdi
   11126:	e8 03 7f ff ff       	callq  902e <safe_add_func_uint64_t_u_u>
   1112b:	0f b7 c0             	movzwl %ax,%eax
   1112e:	be 00 00 00 00       	mov    $0x0,%esi
   11133:	89 c7                	mov    %eax,%edi
   11135:	e8 c5 7b ff ff       	callq  8cff <safe_add_func_uint16_t_u_u>
   1113a:	0f b7 c0             	movzwl %ax,%eax
   1113d:	33 85 7c f0 ff ff    	xor    -0xf84(%rbp),%eax
   11143:	89 c2                	mov    %eax,%edx
   11145:	48 8b 05 14 65 01 00 	mov    0x16514(%rip),%rax        # 27660 <g_4156>
   1114c:	48 8b 00             	mov    (%rax),%rax
   1114f:	48 8b 00             	mov    (%rax),%rax
   11152:	0f b7 00             	movzwl (%rax),%eax
   11155:	98                   	cwtl   
   11156:	39 c2                	cmp    %eax,%edx
   11158:	0f b7 85 ba f5 ff ff 	movzwl -0xa46(%rbp),%eax
   1115f:	0f b7 c0             	movzwl %ax,%eax
   11162:	89 de                	mov    %ebx,%esi
   11164:	89 c7                	mov    %eax,%edi
   11166:	e8 b4 7b ff ff       	callq  8d1f <safe_sub_func_uint16_t_u_u>
   1116b:	48 8b 95 40 f0 ff ff 	mov    -0xfc0(%rbp),%rdx
   11172:	8b 0a                	mov    (%rdx),%ecx
   11174:	0f b7 d0             	movzwl %ax,%edx
   11177:	48 8b 85 40 f0 ff ff 	mov    -0xfc0(%rbp),%rax
   1117e:	21 ca                	and    %ecx,%edx
   11180:	89 10                	mov    %edx,(%rax)
   11182:	48 8b 05 27 65 01 00 	mov    0x16527(%rip),%rax        # 276b0 <g_4355+0x10>
   11189:	48 89 85 50 f1 ff ff 	mov    %rax,-0xeb0(%rbp)
   11190:	48 8b 85 48 f0 ff ff 	mov    -0xfb8(%rbp),%rax
   11197:	e9 9d 0b 00 00       	jmpq   11d39 <func_16+0x28e3>
   1119c:	8b 05 ca 36 01 00    	mov    0x136ca(%rip),%eax        # 2486c <g_321>
   111a2:	83 c0 01             	add    $0x1,%eax
   111a5:	89 05 c1 36 01 00    	mov    %eax,0x136c1(%rip)        # 2486c <g_321>
   111ab:	8b 05 bb 36 01 00    	mov    0x136bb(%rip),%eax        # 2486c <g_321>
   111b1:	83 f8 03             	cmp    $0x3,%eax
   111b4:	0f 86 43 fb ff ff    	jbe    10cfd <func_16+0x18a7>
   111ba:	0f b6 05 ff 37 01 00 	movzbl 0x137ff(%rip),%eax        # 249c0 <g_1691>
   111c1:	83 c0 01             	add    $0x1,%eax
   111c4:	88 05 f6 37 01 00    	mov    %al,0x137f6(%rip)        # 249c0 <g_1691>
   111ca:	0f b6 05 ef 37 01 00 	movzbl 0x137ef(%rip),%eax        # 249c0 <g_1691>
   111d1:	84 c0                	test   %al,%al
   111d3:	0f 8e 81 f6 ff ff    	jle    1085a <func_16+0x1404>
   111d9:	80 bd 55 f0 ff ff 00 	cmpb   $0x0,-0xfab(%rbp)
   111e0:	74 28                	je     1120a <func_16+0x1db4>
   111e2:	48 8b 05 67 64 01 00 	mov    0x16467(%rip),%rax        # 27650 <g_4025>
   111e9:	48 8b 00             	mov    (%rax),%rax
   111ec:	48 8b 00             	mov    (%rax),%rax
   111ef:	48 8d 95 40 f0 ff ff 	lea    -0xfc0(%rbp),%rdx
   111f6:	48 89 10             	mov    %rdx,(%rax)
   111f9:	48 8b 05 90 5b 01 00 	mov    0x15b90(%rip),%rax        # 26d90 <g_145>
   11200:	48 8b 00             	mov    (%rax),%rax
   11203:	8b 00                	mov    (%rax),%eax
   11205:	e9 2f 0b 00 00       	jmpq   11d39 <func_16+0x28e3>
   1120a:	48 c7 85 18 f2 ff ff 	movq   $0xffffffffffffffff,-0xde8(%rbp)
   11211:	ff ff ff ff 
   11215:	c7 85 c0 f0 ff ff 2a 	movl   $0xfc3a222a,-0xf40(%rbp)
   1121c:	22 3a fc 
   1121f:	c7 85 c4 f0 ff ff 01 	movl   $0x1,-0xf3c(%rbp)
   11226:	00 00 00 
   11229:	c7 85 c8 f0 ff ff fe 	movl   $0xacdf83fe,-0xf38(%rbp)
   11230:	83 df ac 
   11233:	c7 85 cc f0 ff ff 05 	movl   $0x5,-0xf34(%rbp)
   1123a:	00 00 00 
   1123d:	c7 85 d0 f0 ff ff 00 	movl   $0x0,-0xf30(%rbp)
   11244:	00 00 00 
   11247:	c7 85 40 f3 ff ff 01 	movl   $0x1,-0xcc0(%rbp)
   1124e:	00 00 00 
   11251:	c7 85 44 f3 ff ff ee 	movl   $0xd0e566ee,-0xcbc(%rbp)
   11258:	66 e5 d0 
   1125b:	c7 85 48 f3 ff ff 01 	movl   $0x1,-0xcb8(%rbp)
   11262:	00 00 00 
   11265:	c7 85 4c f3 ff ff 01 	movl   $0x1,-0xcb4(%rbp)
   1126c:	00 00 00 
   1126f:	c7 85 50 f3 ff ff ee 	movl   $0xd0e566ee,-0xcb0(%rbp)
   11276:	66 e5 d0 
   11279:	c7 85 54 f3 ff ff 01 	movl   $0x1,-0xcac(%rbp)
   11280:	00 00 00 
   11283:	c7 85 d4 f0 ff ff a1 	movl   $0x2915d7a1,-0xf2c(%rbp)
   1128a:	d7 15 29 
   1128d:	48 8d 05 34 61 01 00 	lea    0x16134(%rip),%rax        # 273c8 <g_1496>
   11294:	48 89 85 20 f2 ff ff 	mov    %rax,-0xde0(%rbp)
   1129b:	c7 85 84 f0 ff ff 00 	movl   $0x0,-0xf7c(%rbp)
   112a2:	00 00 00 
   112a5:	eb 21                	jmp    112c8 <func_16+0x1e72>
   112a7:	8b 85 84 f0 ff ff    	mov    -0xf7c(%rbp),%eax
   112ad:	48 98                	cltq   
   112af:	48 bb 94 77 9f 47 cd 	movabs $0x7286f2cd479f7794,%rbx
   112b6:	f2 86 72 
   112b9:	48 89 9c c5 18 f3 ff 	mov    %rbx,-0xce8(%rbp,%rax,8)
   112c0:	ff 
   112c1:	83 85 84 f0 ff ff 01 	addl   $0x1,-0xf7c(%rbp)
   112c8:	83 bd 84 f0 ff ff 00 	cmpl   $0x0,-0xf7c(%rbp)
   112cf:	7e d6                	jle    112a7 <func_16+0x1e51>
   112d1:	c6 05 54 2d 01 00 00 	movb   $0x0,0x12d54(%rip)        # 2402c <g_67>
   112d8:	e9 b3 00 00 00       	jmpq   11390 <func_16+0x1f3a>
   112dd:	c7 85 e4 f0 ff ff 03 	movl   $0x3,-0xf1c(%rbp)
   112e4:	00 00 00 
   112e7:	48 c7 85 48 f0 ff ff 	movq   $0x0,-0xfb8(%rbp)
   112ee:	00 00 00 00 
   112f2:	eb 1c                	jmp    11310 <func_16+0x1eba>
   112f4:	c7 85 5c f0 ff ff 00 	movl   $0x0,-0xfa4(%rbp)
   112fb:	00 00 00 
   112fe:	48 8b 85 48 f0 ff ff 	mov    -0xfb8(%rbp),%rax
   11305:	48 83 c0 01          	add    $0x1,%rax
   11309:	48 89 85 48 f0 ff ff 	mov    %rax,-0xfb8(%rbp)
   11310:	48 8b 85 48 f0 ff ff 	mov    -0xfb8(%rbp),%rax
   11317:	48 83 f8 1e          	cmp    $0x1e,%rax
   1131b:	74 d7                	je     112f4 <func_16+0x1e9e>
   1131d:	48 8b 85 40 f0 ff ff 	mov    -0xfc0(%rbp),%rax
   11324:	8b 10                	mov    (%rax),%edx
   11326:	48 8b 85 40 f0 ff ff 	mov    -0xfc0(%rbp),%rax
   1132d:	81 ca a4 95 2e ff    	or     $0xff2e95a4,%edx
   11333:	89 10                	mov    %edx,(%rax)
   11335:	c7 05 61 35 01 00 07 	movl   $0x7,0x13561(%rip)        # 248a0 <g_1259>
   1133c:	00 00 00 
   1133f:	eb 18                	jmp    11359 <func_16+0x1f03>
   11341:	83 bd e4 f0 ff ff 00 	cmpl   $0x0,-0xf1c(%rbp)
   11348:	75 1c                	jne    11366 <func_16+0x1f10>
   1134a:	8b 05 50 35 01 00    	mov    0x13550(%rip),%eax        # 248a0 <g_1259>
   11350:	83 c0 01             	add    $0x1,%eax
   11353:	89 05 47 35 01 00    	mov    %eax,0x13547(%rip)        # 248a0 <g_1259>
   11359:	8b 05 41 35 01 00    	mov    0x13541(%rip),%eax        # 248a0 <g_1259>
   1135f:	83 f8 0a             	cmp    $0xa,%eax
   11362:	7e dd                	jle    11341 <func_16+0x1eeb>
   11364:	eb 01                	jmp    11367 <func_16+0x1f11>
   11366:	90                   	nop
   11367:	48 8b 85 40 f0 ff ff 	mov    -0xfc0(%rbp),%rax
   1136e:	c7 00 01 00 00 00    	movl   $0x1,(%rax)
   11374:	0f b6 05 b1 2c 01 00 	movzbl 0x12cb1(%rip),%eax        # 2402c <g_67>
   1137b:	0f be c0             	movsbl %al,%eax
   1137e:	be 04 00 00 00       	mov    $0x4,%esi
   11383:	89 c7                	mov    %eax,%edi
   11385:	e8 7b 72 ff ff       	callq  8605 <safe_sub_func_int32_t_s_s>
   1138a:	88 05 9c 2c 01 00    	mov    %al,0x12c9c(%rip)        # 2402c <g_67>
   11390:	0f b6 05 95 2c 01 00 	movzbl 0x12c95(%rip),%eax        # 2402c <g_67>
   11397:	3c fe                	cmp    $0xfe,%al
   11399:	0f 84 3e ff ff ff    	je     112dd <func_16+0x1e87>
   1139f:	48 8b 05 e2 60 01 00 	mov    0x160e2(%rip),%rax        # 27488 <g_3123>
   113a6:	48 8d 95 5c f0 ff ff 	lea    -0xfa4(%rbp),%rdx
   113ad:	48 89 10             	mov    %rdx,(%rax)
   113b0:	48 83 bd b0 f1 ff ff 	cmpq   $0x0,-0xe50(%rbp)
   113b7:	00 
   113b8:	0f 84 a4 02 00 00    	je     11662 <func_16+0x220c>
   113be:	48 8d 05 9b 34 01 00 	lea    0x1349b(%rip),%rax        # 24860 <g_136>
   113c5:	48 89 85 38 f2 ff ff 	mov    %rax,-0xdc8(%rbp)
   113cc:	c7 85 60 f1 ff ff a0 	movl   $0x317847a0,-0xea0(%rbp)
   113d3:	47 78 31 
   113d6:	48 83 bd 38 f2 ff ff 	cmpq   $0x0,-0xdc8(%rbp)
   113dd:	00 
   113de:	0f 94 c0             	sete   %al
   113e1:	0f b6 c0             	movzbl %al,%eax
   113e4:	89 c7                	mov    %eax,%edi
   113e6:	e8 5a 77 ff ff       	callq  8b45 <safe_unary_minus_func_uint8_t_u>
   113eb:	89 c2                	mov    %eax,%edx
   113ed:	48 8b 05 64 60 01 00 	mov    0x16064(%rip),%rax        # 27458 <g_2440>
   113f4:	48 8b 00             	mov    (%rax),%rax
   113f7:	0f b6 d2             	movzbl %dl,%edx
   113fa:	66 89 10             	mov    %dx,(%rax)
   113fd:	0f b7 00             	movzwl (%rax),%eax
   11400:	0f bf d0             	movswl %ax,%edx
   11403:	48 8b 05 66 60 01 00 	mov    0x16066(%rip),%rax        # 27470 <g_2574>
   1140a:	0f b7 00             	movzwl (%rax),%eax
   1140d:	98                   	cwtl   
   1140e:	89 d6                	mov    %edx,%esi
   11410:	89 c7                	mov    %eax,%edi
   11412:	e8 ff 6f ff ff       	callq  8416 <safe_mod_func_int16_t_s_s>
   11417:	48 0f bf d0          	movswq %ax,%rdx
   1141b:	48 8b 85 48 f0 ff ff 	mov    -0xfb8(%rbp),%rax
   11422:	48 39 c2             	cmp    %rax,%rdx
   11425:	0f 86 b8 01 00 00    	jbe    115e3 <func_16+0x218d>
   1142b:	48 8d 85 60 f0 ff ff 	lea    -0xfa0(%rbp),%rax
   11432:	48 89 85 40 f2 ff ff 	mov    %rax,-0xdc0(%rbp)
   11439:	48 8d 05 fa 36 01 00 	lea    0x136fa(%rip),%rax        # 24b3a <g_3441+0x2>
   11440:	48 89 85 48 f2 ff ff 	mov    %rax,-0xdb8(%rbp)
   11447:	48 8d 05 4f 34 01 00 	lea    0x1344f(%rip),%rax        # 2489d <g_1028+0x1>
   1144e:	48 89 85 50 f2 ff ff 	mov    %rax,-0xdb0(%rbp)
   11455:	48 8b 05 cc 5d 01 00 	mov    0x15dcc(%rip),%rax        # 27228 <g_1125>
   1145c:	48 8b 00             	mov    (%rax),%rax
   1145f:	48 8b 00             	mov    (%rax),%rax
   11462:	48 8b 00             	mov    (%rax),%rax
   11465:	0f b6 00             	movzbl (%rax),%eax
   11468:	0f b6 d8             	movzbl %al,%ebx
   1146b:	48 8b 85 48 f0 ff ff 	mov    -0xfb8(%rbp),%rax
   11472:	41 89 c4             	mov    %eax,%r12d
   11475:	48 8d 85 40 f8 ff ff 	lea    -0x7c0(%rbp),%rax
   1147c:	48 05 a4 01 00 00    	add    $0x1a4,%rax
   11482:	48 89 85 28 f4 ff ff 	mov    %rax,-0xbd8(%rbp)
   11489:	48 8b 85 48 f0 ff ff 	mov    -0xfb8(%rbp),%rax
   11490:	48 85 c0             	test   %rax,%rax
   11493:	74 40                	je     114d5 <func_16+0x207f>
   11495:	48 8b 05 34 60 01 00 	mov    0x16034(%rip),%rax        # 274d0 <g_3674>
   1149c:	48 8b 00             	mov    (%rax),%rax
   1149f:	0f b7 10             	movzwl (%rax),%edx
   114a2:	8b 85 a4 f0 ff ff    	mov    -0xf5c(%rbp),%eax
   114a8:	89 c1                	mov    %eax,%ecx
   114aa:	48 8b 05 1f 60 01 00 	mov    0x1601f(%rip),%rax        # 274d0 <g_3674>
   114b1:	48 8b 00             	mov    (%rax),%rax
   114b4:	21 ca                	and    %ecx,%edx
   114b6:	66 89 10             	mov    %dx,(%rax)
   114b9:	0f b7 00             	movzwl (%rax),%eax
   114bc:	0f b7 c0             	movzwl %ax,%eax
   114bf:	31 85 7c f0 ff ff    	xor    %eax,-0xf84(%rbp)
   114c5:	83 bd 7c f0 ff ff 00 	cmpl   $0x0,-0xf84(%rbp)
   114cc:	74 07                	je     114d5 <func_16+0x207f>
   114ce:	b8 01 00 00 00       	mov    $0x1,%eax
   114d3:	eb 05                	jmp    114da <func_16+0x2084>
   114d5:	b8 00 00 00 00       	mov    $0x0,%eax
   114da:	3d ab 00 00 00       	cmp    $0xab,%eax
   114df:	0f 9e c0             	setle  %al
   114e2:	0f b6 c0             	movzbl %al,%eax
   114e5:	be 09 00 00 00       	mov    $0x9,%esi
   114ea:	89 c7                	mov    %eax,%edi
   114ec:	e8 79 6d ff ff       	callq  826a <safe_div_func_int8_t_s_s>
   114f1:	0f be c0             	movsbl %al,%eax
   114f4:	be 0b 00 00 00       	mov    $0xb,%esi
   114f9:	89 c7                	mov    %eax,%edi
   114fb:	e8 2a 70 ff ff       	callq  852a <safe_rshift_func_int16_t_s_s>
   11500:	48 8b 95 88 f1 ff ff 	mov    -0xe78(%rbp),%rdx
   11507:	8b 12                	mov    (%rdx),%edx
   11509:	98                   	cwtl   
   1150a:	31 c2                	xor    %eax,%edx
   1150c:	48 8b 85 88 f1 ff ff 	mov    -0xe78(%rbp),%rax
   11513:	89 10                	mov    %edx,(%rax)
   11515:	48 8b 85 88 f1 ff ff 	mov    -0xe78(%rbp),%rax
   1151c:	8b 10                	mov    (%rax),%edx
   1151e:	8b 05 a0 34 01 00    	mov    0x134a0(%rip),%eax        # 249c4 <g_1798>
   11524:	21 d0                	and    %edx,%eax
   11526:	89 05 98 34 01 00    	mov    %eax,0x13498(%rip)        # 249c4 <g_1798>
   1152c:	8b 05 92 34 01 00    	mov    0x13492(%rip),%eax        # 249c4 <g_1798>
   11532:	85 c0                	test   %eax,%eax
   11534:	48 8b 85 48 f0 ff ff 	mov    -0xfb8(%rbp),%rax
   1153b:	0f be c0             	movsbl %al,%eax
   1153e:	44 89 e6             	mov    %r12d,%esi
   11541:	89 c7                	mov    %eax,%edi
   11543:	e8 ed 6d ff ff       	callq  8335 <safe_rshift_func_int8_t_s_s>
   11548:	48 8b 85 48 f2 ff ff 	mov    -0xdb8(%rbp),%rax
   1154f:	c6 00 00             	movb   $0x0,(%rax)
   11552:	48 8b 85 48 f2 ff ff 	mov    -0xdb8(%rbp),%rax
   11559:	0f b6 00             	movzbl (%rax),%eax
   1155c:	84 c0                	test   %al,%al
   1155e:	48 8b 05 2b 58 01 00 	mov    0x1582b(%rip),%rax        # 26d90 <g_145>
   11565:	48 8b 95 40 f0 ff ff 	mov    -0xfc0(%rbp),%rdx
   1156c:	48 89 10             	mov    %rdx,(%rax)
   1156f:	b8 00 00 00 00       	mov    $0x0,%eax
   11574:	89 c2                	mov    %eax,%edx
   11576:	48 8b 85 48 f0 ff ff 	mov    -0xfb8(%rbp),%rax
   1157d:	31 c2                	xor    %eax,%edx
   1157f:	48 8b 85 50 f2 ff ff 	mov    -0xdb0(%rbp),%rax
   11586:	88 10                	mov    %dl,(%rax)
   11588:	48 8b 85 50 f2 ff ff 	mov    -0xdb0(%rbp),%rax
   1158f:	0f b6 00             	movzbl (%rax),%eax
   11592:	0f be d0             	movsbl %al,%edx
   11595:	48 8b 85 48 f0 ff ff 	mov    -0xfb8(%rbp),%rax
   1159c:	0f be c0             	movsbl %al,%eax
   1159f:	89 d6                	mov    %edx,%esi
   115a1:	89 c7                	mov    %eax,%edi
   115a3:	e8 6a 6c ff ff       	callq  8212 <safe_mul_func_int8_t_s_s>
   115a8:	0f b6 c0             	movzbl %al,%eax
   115ab:	89 de                	mov    %ebx,%esi
   115ad:	89 c7                	mov    %eax,%edi
   115af:	e8 df 75 ff ff       	callq  8b93 <safe_mul_func_uint8_t_u_u>
   115b4:	84 c0                	test   %al,%al
   115b6:	75 0a                	jne    115c2 <func_16+0x216c>
   115b8:	8b 85 60 f1 ff ff    	mov    -0xea0(%rbp),%eax
   115be:	85 c0                	test   %eax,%eax
   115c0:	74 07                	je     115c9 <func_16+0x2173>
   115c2:	b8 01 00 00 00       	mov    $0x1,%eax
   115c7:	eb 05                	jmp    115ce <func_16+0x2178>
   115c9:	b8 00 00 00 00       	mov    $0x0,%eax
   115ce:	48 8b 95 18 f3 ff ff 	mov    -0xce8(%rbp),%rdx
   115d5:	48 98                	cltq   
   115d7:	48 09 d0             	or     %rdx,%rax
   115da:	48 89 85 18 f3 ff ff 	mov    %rax,-0xce8(%rbp)
   115e1:	eb 1d                	jmp    11600 <func_16+0x21aa>
   115e3:	8b 05 7b 35 01 00    	mov    0x1357b(%rip),%eax        # 24b64 <g_4394>
   115e9:	8b 95 60 f1 ff ff    	mov    -0xea0(%rbp),%edx
   115ef:	39 d0                	cmp    %edx,%eax
   115f1:	0f 96 c2             	setbe  %dl
   115f4:	48 8b 85 40 f0 ff ff 	mov    -0xfc0(%rbp),%rax
   115fb:	0f b6 d2             	movzbl %dl,%edx
   115fe:	89 10                	mov    %edx,(%rax)
   11600:	80 bd 55 f0 ff ff 00 	cmpb   $0x0,-0xfab(%rbp)
   11607:	74 16                	je     1161f <func_16+0x21c9>
   11609:	48 8b 85 40 f0 ff ff 	mov    -0xfc0(%rbp),%rax
   11610:	8b 00                	mov    (%rax),%eax
   11612:	85 c0                	test   %eax,%eax
   11614:	0f 84 0d 04 00 00    	je     11a27 <func_16+0x25d1>
   1161a:	e9 13 07 00 00       	jmpq   11d32 <func_16+0x28dc>
   1161f:	48 8b 85 48 f0 ff ff 	mov    -0xfb8(%rbp),%rax
   11626:	0f be c0             	movsbl %al,%eax
   11629:	be 07 00 00 00       	mov    $0x7,%esi
   1162e:	89 c7                	mov    %eax,%edi
   11630:	e8 b9 6c ff ff       	callq  82ee <safe_lshift_func_int8_t_s_u>
   11635:	48 8b 95 40 f0 ff ff 	mov    -0xfc0(%rbp),%rdx
   1163c:	8b 0a                	mov    (%rdx),%ecx
   1163e:	0f be d0             	movsbl %al,%edx
   11641:	48 8b 85 40 f0 ff ff 	mov    -0xfc0(%rbp),%rax
   11648:	31 ca                	xor    %ecx,%edx
   1164a:	89 10                	mov    %edx,(%rax)
   1164c:	48 8b 05 35 5e 01 00 	mov    0x15e35(%rip),%rax        # 27488 <g_3123>
   11653:	48 8d 95 60 f1 ff ff 	lea    -0xea0(%rbp),%rdx
   1165a:	48 89 10             	mov    %rdx,(%rax)
   1165d:	e9 c5 03 00 00       	jmpq   11a27 <func_16+0x25d1>
   11662:	c7 85 d8 f0 ff ff 27 	movl   $0x7a224827,-0xf28(%rbp)
   11669:	48 22 7a 
   1166c:	48 8d 85 70 f5 ff ff 	lea    -0xa90(%rbp),%rax
   11673:	48 8d 15 06 d3 00 00 	lea    0xd306(%rip),%rdx        # 1e980 <g_5653+0x18df>
   1167a:	b9 5a 00 00 00       	mov    $0x5a,%ecx
   1167f:	48 89 c7             	mov    %rax,%rdi
   11682:	48 89 d6             	mov    %rdx,%rsi
   11685:	f3 48 a5             	rep movsq %ds:(%rsi),%es:(%rdi)
   11688:	c7 85 dc f0 ff ff 01 	movl   $0x1,-0xf24(%rbp)
   1168f:	00 00 00 
   11692:	48 8d 05 2f 5d 01 00 	lea    0x15d2f(%rip),%rax        # 273c8 <g_1496>
   11699:	48 89 85 28 f2 ff ff 	mov    %rax,-0xdd8(%rbp)
   116a0:	48 8d 05 b9 5f 01 00 	lea    0x15fb9(%rip),%rax        # 27660 <g_4156>
   116a7:	48 89 85 30 f2 ff ff 	mov    %rax,-0xdd0(%rbp)
   116ae:	48 8b 85 48 f0 ff ff 	mov    -0xfb8(%rbp),%rax
   116b5:	98                   	cwtl   
   116b6:	89 c7                	mov    %eax,%edi
   116b8:	e8 e0 6c ff ff       	callq  839d <safe_unary_minus_func_int16_t_s>
   116bd:	66 89 85 58 f0 ff ff 	mov    %ax,-0xfa8(%rbp)
   116c4:	c6 85 55 f0 ff ff 02 	movb   $0x2,-0xfab(%rbp)
   116cb:	e9 8c 01 00 00       	jmpq   1185c <func_16+0x2406>
   116d0:	c7 85 80 f3 ff ff f7 	movl   $0x228d67f7,-0xc80(%rbp)
   116d7:	67 8d 22 
   116da:	c7 85 84 f3 ff ff fb 	movl   $0xfffffffb,-0xc7c(%rbp)
   116e1:	ff ff ff 
   116e4:	c7 85 88 f3 ff ff f7 	movl   $0x228d67f7,-0xc78(%rbp)
   116eb:	67 8d 22 
   116ee:	c7 85 8c f3 ff ff f7 	movl   $0x228d67f7,-0xc74(%rbp)
   116f5:	67 8d 22 
   116f8:	c7 85 90 f3 ff ff fb 	movl   $0xfffffffb,-0xc70(%rbp)
   116ff:	ff ff ff 
   11702:	c7 85 94 f3 ff ff f7 	movl   $0x228d67f7,-0xc6c(%rbp)
   11709:	67 8d 22 
   1170c:	c7 85 98 f3 ff ff f7 	movl   $0x228d67f7,-0xc68(%rbp)
   11713:	67 8d 22 
   11716:	c7 85 e0 f0 ff ff fd 	movl   $0xfffffffd,-0xf20(%rbp)
   1171d:	ff ff ff 
   11720:	48 8b 05 a9 5f 01 00 	mov    0x15fa9(%rip),%rax        # 276d0 <g_4401>
   11727:	48 8b 15 9a 5f 01 00 	mov    0x15f9a(%rip),%rdx        # 276c8 <g_4399>
   1172e:	48 89 10             	mov    %rdx,(%rax)
   11731:	83 85 e0 f0 ff ff 01 	addl   $0x1,-0xf20(%rbp)
   11738:	0f be 85 55 f0 ff ff 	movsbl -0xfab(%rbp),%eax
   1173f:	8d 50 01             	lea    0x1(%rax),%edx
   11742:	0f be 85 55 f0 ff ff 	movsbl -0xfab(%rbp),%eax
   11749:	83 c0 01             	add    $0x1,%eax
   1174c:	48 63 c8             	movslq %eax,%rcx
   1174f:	48 63 d2             	movslq %edx,%rdx
   11752:	48 89 d0             	mov    %rdx,%rax
   11755:	48 01 c0             	add    %rax,%rax
   11758:	48 01 d0             	add    %rdx,%rax
   1175b:	48 01 c0             	add    %rax,%rax
   1175e:	48 01 c8             	add    %rcx,%rax
   11761:	48 8d 14 85 00 00 00 	lea    0x0(,%rax,4),%rdx
   11768:	00 
   11769:	48 8d 05 50 31 01 00 	lea    0x13150(%rip),%rax        # 248c0 <g_1356>
   11770:	8b 04 02             	mov    (%rdx,%rax,1),%eax
   11773:	41 89 c4             	mov    %eax,%r12d
   11776:	8b 9d d4 f0 ff ff    	mov    -0xf2c(%rbp),%ebx
   1177c:	8b 85 44 f3 ff ff    	mov    -0xcbc(%rbp),%eax
   11782:	48 98                	cltq   
   11784:	48 89 c6             	mov    %rax,%rsi
   11787:	bf 00 00 00 00       	mov    $0x0,%edi
   1178c:	e8 b0 70 ff ff       	callq  8841 <safe_add_func_int64_t_s_s>
   11791:	8b 95 b4 f0 ff ff    	mov    -0xf4c(%rbp),%edx
   11797:	48 63 d2             	movslq %edx,%rdx
   1179a:	48 39 d0             	cmp    %rdx,%rax
   1179d:	0f 9f c2             	setg   %dl
   117a0:	48 8b 05 e9 55 01 00 	mov    0x155e9(%rip),%rax        # 26d90 <g_145>
   117a7:	48 8b 00             	mov    (%rax),%rax
   117aa:	0f b6 d2             	movzbl %dl,%edx
   117ad:	89 10                	mov    %edx,(%rax)
   117af:	8b 00                	mov    (%rax),%eax
   117b1:	89 85 a8 f0 ff ff    	mov    %eax,-0xf58(%rbp)
   117b7:	8b 95 a8 f0 ff ff    	mov    -0xf58(%rbp),%edx
   117bd:	48 83 bd 08 f2 ff ff 	cmpq   $0x0,-0xdf8(%rbp)
   117c4:	00 
   117c5:	0f 95 c0             	setne  %al
   117c8:	0f b6 c0             	movzbl %al,%eax
   117cb:	89 d6                	mov    %edx,%esi
   117cd:	89 c7                	mov    %eax,%edi
   117cf:	e8 fc 76 ff ff       	callq  8ed0 <safe_sub_func_uint32_t_u_u>
   117d4:	0f b7 c0             	movzwl %ax,%eax
   117d7:	be 69 15 00 00       	mov    $0x1569,%esi
   117dc:	89 c7                	mov    %eax,%edi
   117de:	e8 5a 75 ff ff       	callq  8d3d <safe_mul_func_uint16_t_u_u>
   117e3:	0f b6 c0             	movzbl %al,%eax
   117e6:	89 c6                	mov    %eax,%esi
   117e8:	bf 38 00 00 00       	mov    $0x38,%edi
   117ed:	e8 68 73 ff ff       	callq  8b5a <safe_add_func_uint8_t_u_u>
   117f2:	84 c0                	test   %al,%al
   117f4:	48 8b 85 48 f0 ff ff 	mov    -0xfb8(%rbp),%rax
   117fb:	48 85 c0             	test   %rax,%rax
   117fe:	74 13                	je     11813 <func_16+0x23bd>
   11800:	48 8b 85 48 f0 ff ff 	mov    -0xfb8(%rbp),%rax
   11807:	48 85 c0             	test   %rax,%rax
   1180a:	74 07                	je     11813 <func_16+0x23bd>
   1180c:	b8 01 00 00 00       	mov    $0x1,%eax
   11811:	eb 05                	jmp    11818 <func_16+0x23c2>
   11813:	b8 00 00 00 00       	mov    $0x0,%eax
   11818:	48 98                	cltq   
   1181a:	48 89 de             	mov    %rbx,%rsi
   1181d:	48 89 c7             	mov    %rax,%rdi
   11820:	e8 1c 70 ff ff       	callq  8841 <safe_add_func_int64_t_s_s>
   11825:	49 39 c4             	cmp    %rax,%r12
   11828:	0f 94 c0             	sete   %al
   1182b:	0f b6 c0             	movzbl %al,%eax
   1182e:	be ff ff ff ff       	mov    $0xffffffff,%esi
   11833:	89 c7                	mov    %eax,%edi
   11835:	e8 f7 69 ff ff       	callq  8231 <safe_mod_func_int8_t_s_s>
   1183a:	89 c2                	mov    %eax,%edx
   1183c:	48 8b 05 95 58 01 00 	mov    0x15895(%rip),%rax        # 270d8 <g_369>
   11843:	8b 08                	mov    (%rax),%ecx
   11845:	0f be d2             	movsbl %dl,%edx
   11848:	09 ca                	or     %ecx,%edx
   1184a:	89 10                	mov    %edx,(%rax)
   1184c:	0f b6 85 55 f0 ff ff 	movzbl -0xfab(%rbp),%eax
   11853:	83 e8 01             	sub    $0x1,%eax
   11856:	88 85 55 f0 ff ff    	mov    %al,-0xfab(%rbp)
   1185c:	80 bd 55 f0 ff ff 00 	cmpb   $0x0,-0xfab(%rbp)
   11863:	0f 89 67 fe ff ff    	jns    116d0 <func_16+0x227a>
   11869:	48 8b 05 a0 58 01 00 	mov    0x158a0(%rip),%rax        # 27110 <g_573>
   11870:	48 8b 18             	mov    (%rax),%rbx
   11873:	48 8b 85 40 f0 ff ff 	mov    -0xfc0(%rbp),%rax
   1187a:	44 8b 20             	mov    (%rax),%r12d
   1187d:	48 8b 85 48 f0 ff ff 	mov    -0xfb8(%rbp),%rax
   11884:	41 89 c6             	mov    %eax,%r14d
   11887:	44 8b ad 48 f3 ff ff 	mov    -0xcb8(%rbp),%r13d
   1188e:	48 8b 05 3b 5c 01 00 	mov    0x15c3b(%rip),%rax        # 274d0 <g_3674>
   11895:	48 8b 00             	mov    (%rax),%rax
   11898:	0f b7 00             	movzwl (%rax),%eax
   1189b:	89 c2                	mov    %eax,%edx
   1189d:	48 83 bd 30 f2 ff ff 	cmpq   $0x0,-0xdd0(%rbp)
   118a4:	00 
   118a5:	0f 94 c0             	sete   %al
   118a8:	0f b6 c0             	movzbl %al,%eax
   118ab:	09 c2                	or     %eax,%edx
   118ad:	48 8b 05 1c 5c 01 00 	mov    0x15c1c(%rip),%rax        # 274d0 <g_3674>
   118b4:	48 8b 00             	mov    (%rax),%rax
   118b7:	66 89 10             	mov    %dx,(%rax)
   118ba:	0f b7 00             	movzwl (%rax),%eax
   118bd:	0f bf d0             	movswl %ax,%edx
   118c0:	48 8b 85 18 f3 ff ff 	mov    -0xce8(%rbp),%rax
   118c7:	98                   	cwtl   
   118c8:	89 d6                	mov    %edx,%esi
   118ca:	89 c7                	mov    %eax,%edi
   118cc:	e8 84 6b ff ff       	callq  8455 <safe_div_func_int16_t_s_s>
   118d1:	0f b6 c0             	movzbl %al,%eax
   118d4:	be 00 00 00 00       	mov    $0x0,%esi
   118d9:	89 c7                	mov    %eax,%edi
   118db:	e8 25 73 ff ff       	callq  8c05 <safe_lshift_func_uint8_t_u_s>
   118e0:	0f b6 d0             	movzbl %al,%edx
   118e3:	48 8b 85 48 f0 ff ff 	mov    -0xfb8(%rbp),%rax
   118ea:	48 09 c2             	or     %rax,%rdx
   118ed:	8b 85 d0 f7 ff ff    	mov    -0x830(%rbp),%eax
   118f3:	48 98                	cltq   
   118f5:	48 39 c2             	cmp    %rax,%rdx
   118f8:	0f 96 c0             	setbe  %al
   118fb:	0f b6 c0             	movzbl %al,%eax
   118fe:	41 39 c5             	cmp    %eax,%r13d
   11901:	0f 94 c0             	sete   %al
   11904:	0f b6 c0             	movzbl %al,%eax
   11907:	44 89 f6             	mov    %r14d,%esi
   1190a:	89 c7                	mov    %eax,%edi
   1190c:	e8 f4 72 ff ff       	callq  8c05 <safe_lshift_func_uint8_t_u_s>
   11911:	0f b6 d0             	movzbl %al,%edx
   11914:	8b 85 cc f5 ff ff    	mov    -0xa34(%rbp),%eax
   1191a:	39 c2                	cmp    %eax,%edx
   1191c:	0f 9e c0             	setle  %al
   1191f:	0f b6 c0             	movzbl %al,%eax
   11922:	89 85 7c f0 ff ff    	mov    %eax,-0xf84(%rbp)
   11928:	be ff 00 00 00       	mov    $0xff,%esi
   1192d:	bf ff 00 00 00       	mov    $0xff,%edi
   11932:	e8 77 72 ff ff       	callq  8bae <safe_mod_func_uint8_t_u_u>
   11937:	48 8b 85 48 f0 ff ff 	mov    -0xfb8(%rbp),%rax
   1193e:	0f b7 c0             	movzwl %ax,%eax
   11941:	be 0b 00 00 00       	mov    $0xb,%esi
   11946:	89 c7                	mov    %eax,%edi
   11948:	e8 b9 74 ff ff       	callq  8e06 <safe_lshift_func_uint16_t_u_u>
   1194d:	48 8b 95 18 f3 ff ff 	mov    -0xce8(%rbp),%rdx
   11954:	21 d0                	and    %edx,%eax
   11956:	0f bf d0             	movswl %ax,%edx
   11959:	48 8b 85 48 f0 ff ff 	mov    -0xfb8(%rbp),%rax
   11960:	98                   	cwtl   
   11961:	89 d6                	mov    %edx,%esi
   11963:	89 c7                	mov    %eax,%edi
   11965:	e8 69 6a ff ff       	callq  83d3 <safe_sub_func_int16_t_s_s>
   1196a:	66 85 c0             	test   %ax,%ax
   1196d:	74 13                	je     11982 <func_16+0x252c>
   1196f:	48 8b 85 48 f0 ff ff 	mov    -0xfb8(%rbp),%rax
   11976:	48 85 c0             	test   %rax,%rax
   11979:	74 07                	je     11982 <func_16+0x252c>
   1197b:	b8 01 00 00 00       	mov    $0x1,%eax
   11980:	eb 05                	jmp    11987 <func_16+0x2531>
   11982:	b8 00 00 00 00       	mov    $0x0,%eax
   11987:	0f be c0             	movsbl %al,%eax
   1198a:	be 04 00 00 00       	mov    $0x4,%esi
   1198f:	89 c7                	mov    %eax,%edi
   11991:	e8 d4 68 ff ff       	callq  826a <safe_div_func_int8_t_s_s>
   11996:	44 0f be e8          	movsbl %al,%r13d
   1199a:	48 8b 85 28 f2 ff ff 	mov    -0xdd8(%rbp),%rax
   119a1:	48 89 85 10 f2 ff ff 	mov    %rax,-0xdf0(%rbp)
   119a8:	48 8b 85 10 f2 ff ff 	mov    -0xdf0(%rbp),%rax
   119af:	48 3b 85 20 f2 ff ff 	cmp    -0xde0(%rbp),%rax
   119b6:	0f 94 c0             	sete   %al
   119b9:	0f b6 d0             	movzbl %al,%edx
   119bc:	8b 85 d4 f0 ff ff    	mov    -0xf2c(%rbp),%eax
   119c2:	0f be c0             	movsbl %al,%eax
   119c5:	89 d6                	mov    %edx,%esi
   119c7:	89 c7                	mov    %eax,%edi
   119c9:	e8 24 68 ff ff       	callq  81f2 <safe_sub_func_int8_t_s_s>
   119ce:	48 0f be c0          	movsbq %al,%rax
   119d2:	48 89 c7             	mov    %rax,%rdi
   119d5:	e8 3f 76 ff ff       	callq  9019 <safe_unary_minus_func_uint64_t_u>
   119da:	98                   	cwtl   
   119db:	44 89 ee             	mov    %r13d,%esi
   119de:	89 c7                	mov    %eax,%edi
   119e0:	e8 ce 69 ff ff       	callq  83b3 <safe_add_func_int16_t_s_s>
   119e5:	48 0f bf c0          	movswq %ax,%rax
   119e9:	48 c7 c6 ff ff ff ff 	mov    $0xffffffffffffffff,%rsi
   119f0:	48 89 c7             	mov    %rax,%rdi
   119f3:	e8 bc 6f ff ff       	callq  89b4 <safe_mod_func_int64_t_s_s>
   119f8:	48 3d 9e c9 e3 32    	cmp    $0x32e3c99e,%rax
   119fe:	0f 9f c0             	setg   %al
   11a01:	0f b6 c0             	movzbl %al,%eax
   11a04:	44 89 e6             	mov    %r12d,%esi
   11a07:	89 c7                	mov    %eax,%edi
   11a09:	e8 a8 6b ff ff       	callq  85b6 <safe_add_func_int32_t_s_s>
   11a0e:	48 98                	cltq   
   11a10:	48 89 de             	mov    %rbx,%rsi
   11a13:	48 89 c7             	mov    %rax,%rdi
   11a16:	e8 99 6f ff ff       	callq  89b4 <safe_mod_func_int64_t_s_s>
   11a1b:	48 89 c2             	mov    %rax,%rdx
   11a1e:	48 8b 85 40 f0 ff ff 	mov    -0xfc0(%rbp),%rax
   11a25:	89 10                	mov    %edx,(%rax)
   11a27:	0f b6 05 62 2e 01 00 	movzbl 0x12e62(%rip),%eax        # 24890 <g_590>
   11a2e:	83 c0 01             	add    $0x1,%eax
   11a31:	88 05 59 2e 01 00    	mov    %al,0x12e59(%rip)        # 24890 <g_590>
   11a37:	0f b6 05 52 2e 01 00 	movzbl 0x12e52(%rip),%eax        # 24890 <g_590>
   11a3e:	3c 0f                	cmp    $0xf,%al
   11a40:	0f 85 40 ed ff ff    	jne    10786 <func_16+0x1330>
   11a46:	e9 e7 02 00 00       	jmpq   11d32 <func_16+0x28dc>
   11a4b:	48 c7 85 d0 f1 ff ff 	movq   $0x0,-0xe30(%rbp)
   11a52:	00 00 00 00 
   11a56:	48 c7 85 d8 f1 ff ff 	movq   $0x0,-0xe28(%rbp)
   11a5d:	00 00 00 00 
   11a61:	48 8d 85 38 f1 ff ff 	lea    -0xec8(%rbp),%rax
   11a68:	48 89 85 e0 f1 ff ff 	mov    %rax,-0xe20(%rbp)
   11a6f:	c7 85 94 f0 ff ff ff 	movl   $0xffffffff,-0xf6c(%rbp)
   11a76:	ff ff ff 
   11a79:	48 8d 05 90 56 01 00 	lea    0x15690(%rip),%rax        # 27110 <g_573>
   11a80:	48 89 85 e8 f1 ff ff 	mov    %rax,-0xe18(%rbp)
   11a87:	c7 85 98 f0 ff ff 00 	movl   $0x0,-0xf68(%rbp)
   11a8e:	00 00 00 
   11a91:	48 8d 05 30 59 01 00 	lea    0x15930(%rip),%rax        # 273c8 <g_1496>
   11a98:	48 89 85 58 f1 ff ff 	mov    %rax,-0xea8(%rbp)
   11a9f:	48 8d 85 58 f1 ff ff 	lea    -0xea8(%rbp),%rax
   11aa6:	48 89 85 60 f1 ff ff 	mov    %rax,-0xea0(%rbp)
   11aad:	48 8d 85 60 f1 ff ff 	lea    -0xea0(%rbp),%rax
   11ab4:	48 89 85 f0 f1 ff ff 	mov    %rax,-0xe10(%rbp)
   11abb:	c7 85 9c f0 ff ff 00 	movl   $0x0,-0xf64(%rbp)
   11ac2:	00 00 00 
   11ac5:	c7 85 a0 f0 ff ff 48 	movl   $0x17d9f348,-0xf60(%rbp)
   11acc:	f3 d9 17 
   11acf:	c7 85 88 f0 ff ff 00 	movl   $0x0,-0xf78(%rbp)
   11ad6:	00 00 00 
   11ad9:	eb 77                	jmp    11b52 <func_16+0x26fc>
   11adb:	c7 85 8c f0 ff ff 00 	movl   $0x0,-0xf74(%rbp)
   11ae2:	00 00 00 
   11ae5:	eb 5b                	jmp    11b42 <func_16+0x26ec>
   11ae7:	c7 85 90 f0 ff ff 00 	movl   $0x0,-0xf70(%rbp)
   11aee:	00 00 00 
   11af1:	eb 3f                	jmp    11b32 <func_16+0x26dc>
   11af3:	8b 85 90 f0 ff ff    	mov    -0xf70(%rbp),%eax
   11af9:	48 63 c8             	movslq %eax,%rcx
   11afc:	8b 85 88 f0 ff ff    	mov    -0xf78(%rbp),%eax
   11b02:	48 63 d0             	movslq %eax,%rdx
   11b05:	8b 85 8c f0 ff ff    	mov    -0xf74(%rbp),%eax
   11b0b:	48 98                	cltq   
   11b0d:	48 01 c2             	add    %rax,%rdx
   11b10:	48 89 d0             	mov    %rdx,%rax
   11b13:	48 01 c0             	add    %rax,%rax
   11b16:	48 01 d0             	add    %rdx,%rax
   11b19:	48 01 c8             	add    %rcx,%rax
   11b1c:	48 8d 15 ed 55 01 00 	lea    0x155ed(%rip),%rdx        # 27110 <g_573>
   11b23:	48 89 94 c5 40 f8 ff 	mov    %rdx,-0x7c0(%rbp,%rax,8)
   11b2a:	ff 
   11b2b:	83 85 90 f0 ff ff 01 	addl   $0x1,-0xf70(%rbp)
   11b32:	83 bd 90 f0 ff ff 02 	cmpl   $0x2,-0xf70(%rbp)
   11b39:	7e b8                	jle    11af3 <func_16+0x269d>
   11b3b:	83 85 8c f0 ff ff 01 	addl   $0x1,-0xf74(%rbp)
   11b42:	83 bd 8c f0 ff ff 00 	cmpl   $0x0,-0xf74(%rbp)
   11b49:	7e 9c                	jle    11ae7 <func_16+0x2691>
   11b4b:	83 85 88 f0 ff ff 01 	addl   $0x1,-0xf78(%rbp)
   11b52:	83 bd 88 f0 ff ff 02 	cmpl   $0x2,-0xf78(%rbp)
   11b59:	7e 80                	jle    11adb <func_16+0x2685>
   11b5b:	48 8b 85 b8 f1 ff ff 	mov    -0xe48(%rbp),%rax
   11b62:	48 89 85 e0 f1 ff ff 	mov    %rax,-0xe20(%rbp)
   11b69:	be 06 00 00 00       	mov    $0x6,%esi
   11b6e:	bf 00 00 00 00       	mov    $0x0,%edi
   11b73:	e8 46 72 ff ff       	callq  8dbe <safe_lshift_func_uint16_t_u_s>
   11b78:	89 c3                	mov    %eax,%ebx
   11b7a:	48 8b 05 6f 56 01 00 	mov    0x1566f(%rip),%rax        # 271f0 <g_711>
   11b81:	0f b7 10             	movzwl (%rax),%edx
   11b84:	48 8b 85 48 f0 ff ff 	mov    -0xfb8(%rbp),%rax
   11b8b:	89 c1                	mov    %eax,%ecx
   11b8d:	48 8b 05 5c 56 01 00 	mov    0x1565c(%rip),%rax        # 271f0 <g_711>
   11b94:	31 ca                	xor    %ecx,%edx
   11b96:	66 89 10             	mov    %dx,(%rax)
   11b99:	0f b7 00             	movzwl (%rax),%eax
   11b9c:	41 89 c4             	mov    %eax,%r12d
   11b9f:	48 8b 85 40 f8 ff ff 	mov    -0x7c0(%rbp),%rax
   11ba6:	48 8b 95 c0 f1 ff ff 	mov    -0xe40(%rbp),%rdx
   11bad:	48 89 95 e8 f1 ff ff 	mov    %rdx,-0xe18(%rbp)
   11bb4:	48 39 85 e8 f1 ff ff 	cmp    %rax,-0xe18(%rbp)
   11bbb:	0f 95 c0             	setne  %al
   11bbe:	89 c2                	mov    %eax,%edx
   11bc0:	8b 85 94 f0 ff ff    	mov    -0xf6c(%rbp),%eax
   11bc6:	31 d0                	xor    %edx,%eax
   11bc8:	0f b6 c0             	movzbl %al,%eax
   11bcb:	be 03 00 00 00       	mov    $0x3,%esi
   11bd0:	89 c7                	mov    %eax,%edi
   11bd2:	e8 2e 70 ff ff       	callq  8c05 <safe_lshift_func_uint8_t_u_s>
   11bd7:	3c 09                	cmp    $0x9,%al
   11bd9:	0f 96 c0             	setbe  %al
   11bdc:	0f b6 c0             	movzbl %al,%eax
   11bdf:	44 89 e2             	mov    %r12d,%edx
   11be2:	21 c2                	and    %eax,%edx
   11be4:	48 8b 05 e5 58 01 00 	mov    0x158e5(%rip),%rax        # 274d0 <g_3674>
   11beb:	48 8b 00             	mov    (%rax),%rax
   11bee:	66 89 10             	mov    %dx,(%rax)
   11bf1:	0f b7 00             	movzwl (%rax),%eax
   11bf4:	0f b7 c0             	movzwl %ax,%eax
   11bf7:	be 0a 00 00 00       	mov    $0xa,%esi
   11bfc:	89 c7                	mov    %eax,%edi
   11bfe:	e8 03 72 ff ff       	callq  8e06 <safe_lshift_func_uint16_t_u_u>
   11c03:	66 39 c3             	cmp    %ax,%bx
   11c06:	0f 92 c0             	setb   %al
   11c09:	0f b6 d0             	movzbl %al,%edx
   11c0c:	48 8b 85 80 f1 ff ff 	mov    -0xe80(%rbp),%rax
   11c13:	89 10                	mov    %edx,(%rax)
   11c15:	48 8b 85 80 f1 ff ff 	mov    -0xe80(%rbp),%rax
   11c1c:	8b 00                	mov    (%rax),%eax
   11c1e:	89 c2                	mov    %eax,%edx
   11c20:	48 8b 85 40 f0 ff ff 	mov    -0xfc0(%rbp),%rax
   11c27:	8b 00                	mov    (%rax),%eax
   11c29:	21 d0                	and    %edx,%eax
   11c2b:	0f bf d0             	movswl %ax,%edx
   11c2e:	8b 85 94 f0 ff ff    	mov    -0xf6c(%rbp),%eax
   11c34:	98                   	cwtl   
   11c35:	89 d6                	mov    %edx,%esi
   11c37:	89 c7                	mov    %eax,%edi
   11c39:	e8 17 68 ff ff       	callq  8455 <safe_div_func_int16_t_s_s>
   11c3e:	98                   	cwtl   
   11c3f:	21 85 98 f0 ff ff    	and    %eax,-0xf68(%rbp)
   11c45:	8b 85 98 f0 ff ff    	mov    -0xf68(%rbp),%eax
   11c4b:	0f b6 d0             	movzbl %al,%edx
   11c4e:	48 8b 05 ab 55 01 00 	mov    0x155ab(%rip),%rax        # 27200 <g_1023>
   11c55:	0f b6 08             	movzbl (%rax),%ecx
   11c58:	83 c1 01             	add    $0x1,%ecx
   11c5b:	88 08                	mov    %cl,(%rax)
   11c5d:	0f b6 00             	movzbl (%rax),%eax
   11c60:	0f b6 c0             	movzbl %al,%eax
   11c63:	89 d6                	mov    %edx,%esi
   11c65:	89 c7                	mov    %eax,%edi
   11c67:	e8 27 6f ff ff       	callq  8b93 <safe_mul_func_uint8_t_u_u>
   11c6c:	0f b6 c0             	movzbl %al,%eax
   11c6f:	be 01 00 00 00       	mov    $0x1,%esi
   11c74:	89 c7                	mov    %eax,%edi
   11c76:	e8 d1 6f ff ff       	callq  8c4c <safe_lshift_func_uint8_t_u_u>
   11c7b:	48 83 bd f0 f1 ff ff 	cmpq   $0x0,-0xe10(%rbp)
   11c82:	00 
   11c83:	c7 85 94 f0 ff ff ff 	movl   $0xff,-0xf6c(%rbp)
   11c8a:	00 00 00 
   11c8d:	8b 85 94 f0 ff ff    	mov    -0xf6c(%rbp),%eax
   11c93:	48 63 d0             	movslq %eax,%rdx
   11c96:	48 8b 85 48 f0 ff ff 	mov    -0xfb8(%rbp),%rax
   11c9d:	48 39 c2             	cmp    %rax,%rdx
   11ca0:	0f 96 c0             	setbe  %al
   11ca3:	0f b6 c0             	movzbl %al,%eax
   11ca6:	89 85 9c f0 ff ff    	mov    %eax,-0xf64(%rbp)
   11cac:	48 8b 05 75 55 01 00 	mov    0x15575(%rip),%rax        # 27228 <g_1125>
   11cb3:	48 8b 00             	mov    (%rax),%rax
   11cb6:	48 8b 00             	mov    (%rax),%rax
   11cb9:	48 8b 00             	mov    (%rax),%rax
   11cbc:	0f b6 00             	movzbl (%rax),%eax
   11cbf:	48 8b 05 62 55 01 00 	mov    0x15562(%rip),%rax        # 27228 <g_1125>
   11cc6:	48 8b 00             	mov    (%rax),%rax
   11cc9:	48 8b 00             	mov    (%rax),%rax
   11ccc:	48 8b 00             	mov    (%rax),%rax
   11ccf:	0f b6 00             	movzbl (%rax),%eax
   11cd2:	0f b6 d0             	movzbl %al,%edx
   11cd5:	48 8b 85 48 f0 ff ff 	mov    -0xfb8(%rbp),%rax
   11cdc:	48 39 c2             	cmp    %rax,%rdx
   11cdf:	0f 97 c0             	seta   %al
   11ce2:	0f b6 d0             	movzbl %al,%edx
   11ce5:	48 8b 05 74 59 01 00 	mov    0x15974(%rip),%rax        # 27660 <g_4156>
   11cec:	48 8b 00             	mov    (%rax),%rax
   11cef:	48 8b 00             	mov    (%rax),%rax
   11cf2:	0f b7 00             	movzwl (%rax),%eax
   11cf5:	98                   	cwtl   
   11cf6:	89 d6                	mov    %edx,%esi
   11cf8:	89 c7                	mov    %eax,%edi
   11cfa:	e8 93 67 ff ff       	callq  8492 <safe_lshift_func_int16_t_s_s>
   11cff:	48 c7 c6 fe ff ff ff 	mov    $0xfffffffffffffffe,%rsi
   11d06:	bf 00 00 00 00       	mov    $0x0,%edi
   11d0b:	e8 70 73 ff ff       	callq  9080 <safe_mod_func_uint64_t_u_u>
   11d10:	48 85 c0             	test   %rax,%rax
   11d13:	74 07                	je     11d1c <func_16+0x28c6>
   11d15:	b8 01 00 00 00       	mov    $0x1,%eax
   11d1a:	eb 05                	jmp    11d21 <func_16+0x28cb>
   11d1c:	b8 00 00 00 00       	mov    $0x0,%eax
   11d21:	48 98                	cltq   
   11d23:	48 89 c7             	mov    %rax,%rdi
   11d26:	e8 ee 72 ff ff       	callq  9019 <safe_unary_minus_func_uint64_t_u>
   11d2b:	48 89 85 c8 f1 ff ff 	mov    %rax,-0xe38(%rbp)
   11d32:	48 8b 85 48 f0 ff ff 	mov    -0xfb8(%rbp),%rax
   11d39:	48 8b 5d c8          	mov    -0x38(%rbp),%rbx
   11d3d:	64 48 33 1c 25 28 00 	xor    %fs:0x28,%rbx
   11d44:	00 00 
   11d46:	74 05                	je     11d4d <func_16+0x28f7>
   11d48:	e8 23 63 ff ff       	callq  8070 <__stack_chk_fail@plt>
   11d4d:	48 81 c4 a8 0f 00 00 	add    $0xfa8,%rsp
   11d54:	5b                   	pop    %rbx
   11d55:	41 5c                	pop    %r12
   11d57:	41 5d                	pop    %r13
   11d59:	41 5e                	pop    %r14
   11d5b:	41 5f                	pop    %r15
   11d5d:	5d                   	pop    %rbp
   11d5e:	c3                   	retq   

0000000000011d5f <func_19>:
   11d5f:	f3 0f 1e fa          	endbr64 
   11d63:	55                   	push   %rbp
   11d64:	48 89 e5             	mov    %rsp,%rbp
   11d67:	48 81 ec f0 0c 00 00 	sub    $0xcf0,%rsp
   11d6e:	89 f8                	mov    %edi,%eax
   11d70:	48 89 b5 20 f3 ff ff 	mov    %rsi,-0xce0(%rbp)
   11d77:	48 89 95 18 f3 ff ff 	mov    %rdx,-0xce8(%rbp)
   11d7e:	48 89 8d 10 f3 ff ff 	mov    %rcx,-0xcf0(%rbp)
   11d85:	44 89 c2             	mov    %r8d,%edx
   11d88:	66 89 85 2c f3 ff ff 	mov    %ax,-0xcd4(%rbp)
   11d8f:	89 d0                	mov    %edx,%eax
   11d91:	66 89 85 28 f3 ff ff 	mov    %ax,-0xcd8(%rbp)
   11d98:	64 48 8b 04 25 28 00 	mov    %fs:0x28,%rax
   11d9f:	00 00 
   11da1:	48 89 45 f8          	mov    %rax,-0x8(%rbp)
   11da5:	31 c0                	xor    %eax,%eax
   11da7:	c7 85 54 f3 ff ff 00 	movl   $0x0,-0xcac(%rbp)
   11dae:	00 00 00 
   11db1:	48 8d 05 b8 2a 01 00 	lea    0x12ab8(%rip),%rax        # 24870 <g_355>
   11db8:	48 89 85 10 f4 ff ff 	mov    %rax,-0xbf0(%rbp)
   11dbf:	48 c7 85 90 f3 ff ff 	movq   $0x0,-0xc70(%rbp)
   11dc6:	00 00 00 00 
   11dca:	48 8d 05 1f 54 01 00 	lea    0x1541f(%rip),%rax        # 271f0 <g_711>
   11dd1:	48 89 85 18 f4 ff ff 	mov    %rax,-0xbe8(%rbp)
   11dd8:	48 8d 05 49 53 01 00 	lea    0x15349(%rip),%rax        # 27128 <g_689>
   11ddf:	48 89 85 20 f4 ff ff 	mov    %rax,-0xbe0(%rbp)
   11de6:	48 8d 05 e3 54 01 00 	lea    0x154e3(%rip),%rax        # 272d0 <g_1456+0x30>
   11ded:	48 89 85 50 f6 ff ff 	mov    %rax,-0x9b0(%rbp)
   11df4:	48 8d 05 d5 54 01 00 	lea    0x154d5(%rip),%rax        # 272d0 <g_1456+0x30>
   11dfb:	48 89 85 58 f6 ff ff 	mov    %rax,-0x9a8(%rbp)
   11e02:	48 8d 05 c7 54 01 00 	lea    0x154c7(%rip),%rax        # 272d0 <g_1456+0x30>
   11e09:	48 89 85 60 f6 ff ff 	mov    %rax,-0x9a0(%rbp)
   11e10:	48 8d 05 39 55 01 00 	lea    0x15539(%rip),%rax        # 27350 <g_1456+0xb0>
   11e17:	48 89 85 68 f6 ff ff 	mov    %rax,-0x998(%rbp)
   11e1e:	48 8d 05 2b 55 01 00 	lea    0x1552b(%rip),%rax        # 27350 <g_1456+0xb0>
   11e25:	48 89 85 70 f6 ff ff 	mov    %rax,-0x990(%rbp)
   11e2c:	48 8d 05 1d 55 01 00 	lea    0x1551d(%rip),%rax        # 27350 <g_1456+0xb0>
   11e33:	48 89 85 78 f6 ff ff 	mov    %rax,-0x988(%rbp)
   11e3a:	48 8d 05 8f 54 01 00 	lea    0x1548f(%rip),%rax        # 272d0 <g_1456+0x30>
   11e41:	48 89 85 80 f6 ff ff 	mov    %rax,-0x980(%rbp)
   11e48:	48 8d 05 81 54 01 00 	lea    0x15481(%rip),%rax        # 272d0 <g_1456+0x30>
   11e4f:	48 89 85 88 f6 ff ff 	mov    %rax,-0x978(%rbp)
   11e56:	48 8d 05 73 54 01 00 	lea    0x15473(%rip),%rax        # 272d0 <g_1456+0x30>
   11e5d:	48 89 85 90 f6 ff ff 	mov    %rax,-0x970(%rbp)
   11e64:	48 8d 05 e5 54 01 00 	lea    0x154e5(%rip),%rax        # 27350 <g_1456+0xb0>
   11e6b:	48 89 85 28 f4 ff ff 	mov    %rax,-0xbd8(%rbp)
   11e72:	c7 85 a0 f6 ff ff 2b 	movl   $0x309d902b,-0x960(%rbp)
   11e79:	90 9d 30 
   11e7c:	c7 85 a4 f6 ff ff 2b 	movl   $0x309d902b,-0x95c(%rbp)
   11e83:	90 9d 30 
   11e86:	c7 85 a8 f6 ff ff 00 	movl   $0x0,-0x958(%rbp)
   11e8d:	00 00 00 
   11e90:	c7 85 ac f6 ff ff 2b 	movl   $0x309d902b,-0x954(%rbp)
   11e97:	90 9d 30 
   11e9a:	c7 85 b0 f6 ff ff 2b 	movl   $0x309d902b,-0x950(%rbp)
   11ea1:	90 9d 30 
   11ea4:	c7 85 b4 f6 ff ff 00 	movl   $0x0,-0x94c(%rbp)
   11eab:	00 00 00 
   11eae:	c7 85 b8 f6 ff ff 2b 	movl   $0x309d902b,-0x948(%rbp)
   11eb5:	90 9d 30 
   11eb8:	c7 85 bc f6 ff ff 2b 	movl   $0x309d902b,-0x944(%rbp)
   11ebf:	90 9d 30 
   11ec2:	c7 85 c0 f6 ff ff 00 	movl   $0x0,-0x940(%rbp)
   11ec9:	00 00 00 
   11ecc:	c7 85 c4 f6 ff ff 2b 	movl   $0x309d902b,-0x93c(%rbp)
   11ed3:	90 9d 30 
   11ed6:	c7 85 c8 f6 ff ff 2b 	movl   $0x309d902b,-0x938(%rbp)
   11edd:	90 9d 30 
   11ee0:	c7 85 cc f6 ff ff 00 	movl   $0x0,-0x934(%rbp)
   11ee7:	00 00 00 
   11eea:	c7 85 d0 f6 ff ff 2b 	movl   $0x309d902b,-0x930(%rbp)
   11ef1:	90 9d 30 
   11ef4:	c7 85 d4 f6 ff ff 2b 	movl   $0x309d902b,-0x92c(%rbp)
   11efb:	90 9d 30 
   11efe:	c7 85 d8 f6 ff ff 00 	movl   $0x0,-0x928(%rbp)
   11f05:	00 00 00 
   11f08:	c7 85 dc f6 ff ff 2b 	movl   $0x309d902b,-0x924(%rbp)
   11f0f:	90 9d 30 
   11f12:	c7 85 e0 f6 ff ff 2b 	movl   $0x309d902b,-0x920(%rbp)
   11f19:	90 9d 30 
   11f1c:	c7 85 e4 f6 ff ff 00 	movl   $0x0,-0x91c(%rbp)
   11f23:	00 00 00 
   11f26:	c7 85 58 f3 ff ff b8 	movl   $0xd67efab8,-0xca8(%rbp)
   11f2d:	fa 7e d6 
   11f30:	48 8d 05 67 29 01 00 	lea    0x12967(%rip),%rax        # 2489e <g_1028+0x2>
   11f37:	48 89 85 98 f3 ff ff 	mov    %rax,-0xc68(%rbp)
   11f3e:	66 c7 85 3c f3 ff ff 	movw   $0xe364,-0xcc4(%rbp)
   11f45:	64 e3 
   11f47:	c7 85 4c f3 ff ff 28 	movl   $0xe8b21828,-0xcb4(%rbp)
   11f4e:	18 b2 e8 
   11f51:	c7 85 5c f3 ff ff 8c 	movl   $0x415c698c,-0xca4(%rbp)
   11f58:	69 5c 41 
   11f5b:	48 8d 85 e0 f8 ff ff 	lea    -0x720(%rbp),%rax
   11f62:	48 8d 15 f7 cc 00 00 	lea    0xccf7(%rip),%rdx        # 1ec60 <g_5653+0x1bbf>
   11f69:	b9 2d 00 00 00       	mov    $0x2d,%ecx
   11f6e:	48 89 c7             	mov    %rax,%rdi
   11f71:	48 89 d6             	mov    %rdx,%rsi
   11f74:	f3 48 a5             	rep movsq %ds:(%rsi),%es:(%rdi)
   11f77:	c7 85 60 f3 ff ff a3 	movl   $0xf72470a3,-0xca0(%rbp)
   11f7e:	70 24 f7 
   11f81:	48 8d 85 50 f6 ff ff 	lea    -0x9b0(%rbp),%rax
   11f88:	48 83 c0 38          	add    $0x38,%rax
   11f8c:	48 89 85 30 f4 ff ff 	mov    %rax,-0xbd0(%rbp)
   11f93:	48 8d 85 4c f3 ff ff 	lea    -0xcb4(%rbp),%rax
   11f9a:	48 89 85 38 f4 ff ff 	mov    %rax,-0xbc8(%rbp)
   11fa1:	c6 85 36 f3 ff ff fd 	movb   $0xfd,-0xcca(%rbp)
   11fa8:	48 b8 45 40 b2 1e 8f 	movabs $0xd7f67f8f1eb24045,%rax
   11faf:	7f f6 d7 
   11fb2:	48 89 85 40 f4 ff ff 	mov    %rax,-0xbc0(%rbp)
   11fb9:	48 8d 05 f8 29 01 00 	lea    0x129f8(%rip),%rax        # 249b8 <g_1645>
   11fc0:	48 89 85 90 f5 ff ff 	mov    %rax,-0xa70(%rbp)
   11fc7:	48 8d 05 ea 29 01 00 	lea    0x129ea(%rip),%rax        # 249b8 <g_1645>
   11fce:	48 89 85 98 f5 ff ff 	mov    %rax,-0xa68(%rbp)
   11fd5:	48 c7 85 a0 f5 ff ff 	movq   $0x0,-0xa60(%rbp)
   11fdc:	00 00 00 00 
   11fe0:	48 8d 05 d1 29 01 00 	lea    0x129d1(%rip),%rax        # 249b8 <g_1645>
   11fe7:	48 89 85 a8 f5 ff ff 	mov    %rax,-0xa58(%rbp)
   11fee:	48 8d 05 c3 29 01 00 	lea    0x129c3(%rip),%rax        # 249b8 <g_1645>
   11ff5:	48 89 85 b0 f5 ff ff 	mov    %rax,-0xa50(%rbp)
   11ffc:	48 c7 85 b8 f5 ff ff 	movq   $0x0,-0xa48(%rbp)
   12003:	00 00 00 00 
   12007:	48 8d 05 aa 29 01 00 	lea    0x129aa(%rip),%rax        # 249b8 <g_1645>
   1200e:	48 89 85 c0 f5 ff ff 	mov    %rax,-0xa40(%rbp)
   12015:	48 8d 85 90 f5 ff ff 	lea    -0xa70(%rbp),%rax
   1201c:	48 83 c0 30          	add    $0x30,%rax
   12020:	48 89 85 48 f4 ff ff 	mov    %rax,-0xbb8(%rbp)
   12027:	48 b8 83 26 00 e7 3f 	movabs $0xa92bd63fe7002683,%rax
   1202e:	d6 2b a9 
   12031:	48 89 85 50 f4 ff ff 	mov    %rax,-0xbb0(%rbp)
   12038:	48 8d 05 b1 51 01 00 	lea    0x151b1(%rip),%rax        # 271f0 <g_711>
   1203f:	48 89 85 58 f4 ff ff 	mov    %rax,-0xba8(%rbp)
   12046:	48 8d 05 5b 5f 01 00 	lea    0x15f5b(%rip),%rax        # 27fa8 <g_1059>
   1204d:	48 89 85 a0 f3 ff ff 	mov    %rax,-0xc60(%rbp)
   12054:	48 c7 85 60 f4 ff ff 	movq   $0xfffffffffffffffc,-0xba0(%rbp)
   1205b:	fc ff ff ff 
   1205f:	48 8d 05 02 28 01 00 	lea    0x12802(%rip),%rax        # 24868 <g_269>
   12066:	48 89 85 68 f4 ff ff 	mov    %rax,-0xb98(%rbp)
   1206d:	48 8d 05 2c 5f 01 00 	lea    0x15f2c(%rip),%rax        # 27fa0 <g_527>
   12074:	48 89 85 f0 f6 ff ff 	mov    %rax,-0x910(%rbp)
   1207b:	48 8d 05 1e 5f 01 00 	lea    0x15f1e(%rip),%rax        # 27fa0 <g_527>
   12082:	48 89 85 f8 f6 ff ff 	mov    %rax,-0x908(%rbp)
   12089:	48 8d 05 10 5f 01 00 	lea    0x15f10(%rip),%rax        # 27fa0 <g_527>
   12090:	48 89 85 00 f7 ff ff 	mov    %rax,-0x900(%rbp)
   12097:	48 8d 05 02 5f 01 00 	lea    0x15f02(%rip),%rax        # 27fa0 <g_527>
   1209e:	48 89 85 08 f7 ff ff 	mov    %rax,-0x8f8(%rbp)
   120a5:	48 8d 05 f4 5e 01 00 	lea    0x15ef4(%rip),%rax        # 27fa0 <g_527>
   120ac:	48 89 85 10 f7 ff ff 	mov    %rax,-0x8f0(%rbp)
   120b3:	48 8d 05 e6 5e 01 00 	lea    0x15ee6(%rip),%rax        # 27fa0 <g_527>
   120ba:	48 89 85 18 f7 ff ff 	mov    %rax,-0x8e8(%rbp)
   120c1:	48 8d 05 d8 5e 01 00 	lea    0x15ed8(%rip),%rax        # 27fa0 <g_527>
   120c8:	48 89 85 20 f7 ff ff 	mov    %rax,-0x8e0(%rbp)
   120cf:	48 8d 05 ca 5e 01 00 	lea    0x15eca(%rip),%rax        # 27fa0 <g_527>
   120d6:	48 89 85 28 f7 ff ff 	mov    %rax,-0x8d8(%rbp)
   120dd:	48 8d 05 bc 5e 01 00 	lea    0x15ebc(%rip),%rax        # 27fa0 <g_527>
   120e4:	48 89 85 30 f7 ff ff 	mov    %rax,-0x8d0(%rbp)
   120eb:	c6 85 37 f3 ff ff 02 	movb   $0x2,-0xcc9(%rbp)
   120f2:	48 c7 85 d0 f5 ff ff 	movq   $0x0,-0xa30(%rbp)
   120f9:	00 00 00 00 
   120fd:	48 c7 85 d8 f5 ff ff 	movq   $0x0,-0xa28(%rbp)
   12104:	00 00 00 00 
   12108:	48 c7 85 e0 f5 ff ff 	movq   $0x0,-0xa20(%rbp)
   1210f:	00 00 00 00 
   12113:	48 c7 85 e8 f5 ff ff 	movq   $0x0,-0xa18(%rbp)
   1211a:	00 00 00 00 
   1211e:	48 c7 85 f0 f5 ff ff 	movq   $0x0,-0xa10(%rbp)
   12125:	00 00 00 00 
   12129:	48 c7 85 f8 f5 ff ff 	movq   $0x0,-0xa08(%rbp)
   12130:	00 00 00 00 
   12134:	48 c7 85 00 f6 ff ff 	movq   $0x0,-0xa00(%rbp)
   1213b:	00 00 00 00 
   1213f:	66 c7 85 3e f3 ff ff 	movw   $0xffff,-0xcc2(%rbp)
   12146:	ff ff 
   12148:	48 8d 85 f0 f6 ff ff 	lea    -0x910(%rbp),%rax
   1214f:	48 83 c0 28          	add    $0x28,%rax
   12153:	48 89 85 70 f4 ff ff 	mov    %rax,-0xb90(%rbp)
   1215a:	c6 85 38 f3 ff ff 03 	movb   $0x3,-0xcc8(%rbp)
   12161:	48 8d 85 e0 f7 ff ff 	lea    -0x820(%rbp),%rax
   12168:	48 8d 15 71 cc 00 00 	lea    0xcc71(%rip),%rdx        # 1ede0 <g_5653+0x1d3f>
   1216f:	b9 1f 00 00 00       	mov    $0x1f,%ecx
   12174:	48 89 c7             	mov    %rax,%rdi
   12177:	48 89 d6             	mov    %rdx,%rsi
   1217a:	f3 48 a5             	rep movsq %ds:(%rsi),%es:(%rdi)
   1217d:	48 89 f2             	mov    %rsi,%rdx
   12180:	48 89 f8             	mov    %rdi,%rax
   12183:	8b 0a                	mov    (%rdx),%ecx
   12185:	89 08                	mov    %ecx,(%rax)
   12187:	48 8d 40 04          	lea    0x4(%rax),%rax
   1218b:	48 8d 52 04          	lea    0x4(%rdx),%rdx
   1218f:	c6 85 35 f3 ff ff f6 	movb   $0xf6,-0xccb(%rbp)
   12196:	c7 85 64 f3 ff ff fa 	movl   $0xfffffffa,-0xc9c(%rbp)
   1219d:	ff ff ff 
   121a0:	66 c7 85 40 f3 ff ff 	movw   $0x6,-0xcc0(%rbp)
   121a7:	06 00 
   121a9:	c6 85 39 f3 ff ff 01 	movb   $0x1,-0xcc7(%rbp)
   121b0:	48 b8 f2 58 52 f8 39 	movabs $0xd6de8d39f85258f2,%rax
   121b7:	8d de d6 
   121ba:	48 89 85 78 f4 ff ff 	mov    %rax,-0xb88(%rbp)
   121c1:	c7 85 68 f3 ff ff 09 	movl   $0x9,-0xc98(%rbp)
   121c8:	00 00 00 
   121cb:	48 8d 05 16 4c 01 00 	lea    0x14c16(%rip),%rax        # 26de8 <g_236+0x48>
   121d2:	48 89 85 a8 f3 ff ff 	mov    %rax,-0xc58(%rbp)
   121d9:	48 8d 85 a8 f3 ff ff 	lea    -0xc58(%rbp),%rax
   121e0:	48 89 85 80 f4 ff ff 	mov    %rax,-0xb80(%rbp)
   121e7:	48 8d 05 9a 4b 01 00 	lea    0x14b9a(%rip),%rax        # 26d88 <g_146>
   121ee:	48 89 85 88 f4 ff ff 	mov    %rax,-0xb78(%rbp)
   121f5:	48 8d 85 d0 f5 ff ff 	lea    -0xa30(%rbp),%rax
   121fc:	48 89 85 90 f4 ff ff 	mov    %rax,-0xb70(%rbp)
   12203:	48 8d 85 98 f3 ff ff 	lea    -0xc68(%rbp),%rax
   1220a:	48 89 85 b0 f3 ff ff 	mov    %rax,-0xc50(%rbp)
   12211:	c7 85 6c f3 ff ff 94 	movl   $0x6eb5b94,-0xc94(%rbp)
   12218:	5b eb 06 
   1221b:	48 c7 85 98 f4 ff ff 	movq   $0x1,-0xb68(%rbp)
   12222:	01 00 00 00 
   12226:	c6 85 3a f3 ff ff 53 	movb   $0x53,-0xcc6(%rbp)
   1222d:	66 c7 85 20 f5 ff ff 	movw   $0xbd70,-0xae0(%rbp)
   12234:	70 bd 
   12236:	66 c7 85 22 f5 ff ff 	movw   $0x70bd,-0xade(%rbp)
   1223d:	bd 70 
   1223f:	66 c7 85 24 f5 ff ff 	movw   $0xbdbd,-0xadc(%rbp)
   12246:	bd bd 
   12248:	66 c7 85 26 f5 ff ff 	movw   $0xbd70,-0xada(%rbp)
   1224f:	70 bd 
   12251:	66 c7 85 28 f5 ff ff 	movw   $0x70bd,-0xad8(%rbp)
   12258:	bd 70 
   1225a:	66 c7 85 2a f5 ff ff 	movw   $0xbdbd,-0xad6(%rbp)
   12261:	bd bd 
   12263:	66 c7 85 2c f5 ff ff 	movw   $0xbd70,-0xad4(%rbp)
   1226a:	70 bd 
   1226c:	66 c7 85 2e f5 ff ff 	movw   $0x70bd,-0xad2(%rbp)
   12273:	bd 70 
   12275:	66 c7 85 30 f5 ff ff 	movw   $0xbdbd,-0xad0(%rbp)
   1227c:	bd bd 
   1227e:	66 c7 85 32 f5 ff ff 	movw   $0xbd70,-0xace(%rbp)
   12285:	70 bd 
   12287:	48 c7 85 a0 f4 ff ff 	movq   $0xffffffffffffffff,-0xb60(%rbp)
   1228e:	ff ff ff ff 
   12292:	66 c7 85 42 f3 ff ff 	movw   $0x678,-0xcbe(%rbp)
   12299:	78 06 
   1229b:	c7 85 70 f3 ff ff 00 	movl   $0x0,-0xc90(%rbp)
   122a2:	00 00 00 
   122a5:	66 c7 85 44 f3 ff ff 	movw   $0x7641,-0xcbc(%rbp)
   122ac:	41 76 
   122ae:	48 8d 85 20 f5 ff ff 	lea    -0xae0(%rbp),%rax
   122b5:	48 89 85 b8 f3 ff ff 	mov    %rax,-0xc48(%rbp)
   122bc:	48 8d 85 60 f5 ff ff 	lea    -0xaa0(%rbp),%rax
   122c3:	48 83 c0 10          	add    $0x10,%rax
   122c7:	48 89 85 c0 f3 ff ff 	mov    %rax,-0xc40(%rbp)
   122ce:	48 8d 85 c0 f3 ff ff 	lea    -0xc40(%rbp),%rax
   122d5:	48 89 85 a8 f4 ff ff 	mov    %rax,-0xb58(%rbp)
   122dc:	48 b8 5c 05 84 a1 58 	movabs $0x146b658a184055c,%rax
   122e3:	b6 46 01 
   122e6:	48 89 85 b0 f4 ff ff 	mov    %rax,-0xb50(%rbp)
   122ed:	c7 85 74 f3 ff ff 01 	movl   $0x1,-0xc8c(%rbp)
   122f4:	00 00 00 
   122f7:	48 8d 05 7a 51 01 00 	lea    0x1517a(%rip),%rax        # 27478 <g_2573>
   122fe:	48 89 85 c8 f3 ff ff 	mov    %rax,-0xc38(%rbp)
   12305:	48 8d 85 c8 f3 ff ff 	lea    -0xc38(%rbp),%rax
   1230c:	48 89 85 b8 f4 ff ff 	mov    %rax,-0xb48(%rbp)
   12313:	66 c7 85 46 f3 ff ff 	movw   $0x4,-0xcba(%rbp)
   1231a:	04 00 
   1231c:	66 c7 85 48 f3 ff ff 	movw   $0xbdcd,-0xcb8(%rbp)
   12323:	cd bd 
   12325:	48 8d 85 35 f3 ff ff 	lea    -0xccb(%rbp),%rax
   1232c:	48 89 85 d0 f3 ff ff 	mov    %rax,-0xc30(%rbp)
   12333:	48 8d 85 d0 f3 ff ff 	lea    -0xc30(%rbp),%rax
   1233a:	48 89 85 d8 f3 ff ff 	mov    %rax,-0xc28(%rbp)
   12341:	48 8d 85 d8 f3 ff ff 	lea    -0xc28(%rbp),%rax
   12348:	48 89 85 c0 f4 ff ff 	mov    %rax,-0xb40(%rbp)
   1234f:	c7 85 78 f3 ff ff 01 	movl   $0x1,-0xc88(%rbp)
   12356:	00 00 00 
   12359:	48 8d 85 b0 f3 ff ff 	lea    -0xc50(%rbp),%rax
   12360:	48 89 85 e0 f3 ff ff 	mov    %rax,-0xc20(%rbp)
   12367:	48 8d 85 e0 f3 ff ff 	lea    -0xc20(%rbp),%rax
   1236e:	48 89 85 e8 f3 ff ff 	mov    %rax,-0xc18(%rbp)
   12375:	48 8d 05 04 4f 01 00 	lea    0x14f04(%rip),%rax        # 27280 <g_1426>
   1237c:	48 89 85 f0 f3 ff ff 	mov    %rax,-0xc10(%rbp)
   12383:	48 8d 85 f0 f3 ff ff 	lea    -0xc10(%rbp),%rax
   1238a:	48 89 85 f8 f3 ff ff 	mov    %rax,-0xc08(%rbp)
   12391:	48 8d 85 f8 f3 ff ff 	lea    -0xc08(%rbp),%rax
   12398:	48 89 85 c8 f4 ff ff 	mov    %rax,-0xb38(%rbp)
   1239f:	48 8d 05 4a 4e 01 00 	lea    0x14e4a(%rip),%rax        # 271f0 <g_711>
   123a6:	48 89 85 90 f7 ff ff 	mov    %rax,-0x870(%rbp)
   123ad:	48 8d 05 3c 4e 01 00 	lea    0x14e3c(%rip),%rax        # 271f0 <g_711>
   123b4:	48 89 85 98 f7 ff ff 	mov    %rax,-0x868(%rbp)
   123bb:	48 8d 05 2e 4e 01 00 	lea    0x14e2e(%rip),%rax        # 271f0 <g_711>
   123c2:	48 89 85 a0 f7 ff ff 	mov    %rax,-0x860(%rbp)
   123c9:	48 8d 05 20 4e 01 00 	lea    0x14e20(%rip),%rax        # 271f0 <g_711>
   123d0:	48 89 85 a8 f7 ff ff 	mov    %rax,-0x858(%rbp)
   123d7:	48 8d 05 12 4e 01 00 	lea    0x14e12(%rip),%rax        # 271f0 <g_711>
   123de:	48 89 85 b0 f7 ff ff 	mov    %rax,-0x850(%rbp)
   123e5:	48 8d 05 04 4e 01 00 	lea    0x14e04(%rip),%rax        # 271f0 <g_711>
   123ec:	48 89 85 b8 f7 ff ff 	mov    %rax,-0x848(%rbp)
   123f3:	48 8d 05 f6 4d 01 00 	lea    0x14df6(%rip),%rax        # 271f0 <g_711>
   123fa:	48 89 85 c0 f7 ff ff 	mov    %rax,-0x840(%rbp)
   12401:	48 8d 05 e8 4d 01 00 	lea    0x14de8(%rip),%rax        # 271f0 <g_711>
   12408:	48 89 85 c8 f7 ff ff 	mov    %rax,-0x838(%rbp)
   1240f:	48 8d 05 da 4d 01 00 	lea    0x14dda(%rip),%rax        # 271f0 <g_711>
   12416:	48 89 85 d0 f7 ff ff 	mov    %rax,-0x830(%rbp)
   1241d:	48 8d 05 cc 4d 01 00 	lea    0x14dcc(%rip),%rax        # 271f0 <g_711>
   12424:	48 89 85 d8 f7 ff ff 	mov    %rax,-0x828(%rbp)
   1242b:	48 8d 85 90 f7 ff ff 	lea    -0x870(%rbp),%rax
   12432:	48 89 85 00 f4 ff ff 	mov    %rax,-0xc00(%rbp)
   12439:	48 8d 85 00 f4 ff ff 	lea    -0xc00(%rbp),%rax
   12440:	48 89 85 08 f4 ff ff 	mov    %rax,-0xbf8(%rbp)
   12447:	48 8d 85 08 f4 ff ff 	lea    -0xbf8(%rbp),%rax
   1244e:	48 89 85 d0 f4 ff ff 	mov    %rax,-0xb30(%rbp)
   12455:	48 8d 05 8c 4d 01 00 	lea    0x14d8c(%rip),%rax        # 271e8 <g_687>
   1245c:	48 89 85 d8 f4 ff ff 	mov    %rax,-0xb28(%rbp)
   12463:	c7 85 7c f3 ff ff b6 	movl   $0x5cd7f1b6,-0xc84(%rbp)
   1246a:	f1 d7 5c 
   1246d:	66 c7 85 00 f5 ff ff 	movw   $0x85ba,-0xb00(%rbp)
   12474:	ba 85 
   12476:	66 c7 85 02 f5 ff ff 	movw   $0xffff,-0xafe(%rbp)
   1247d:	ff ff 
   1247f:	66 c7 85 04 f5 ff ff 	movw   $0x85ba,-0xafc(%rbp)
   12486:	ba 85 
   12488:	66 c7 85 06 f5 ff ff 	movw   $0x85ba,-0xafa(%rbp)
   1248f:	ba 85 
   12491:	66 c7 85 08 f5 ff ff 	movw   $0xffff,-0xaf8(%rbp)
   12498:	ff ff 
   1249a:	66 c7 85 0a f5 ff ff 	movw   $0x85ba,-0xaf6(%rbp)
   124a1:	ba 85 
   124a3:	66 c7 85 0c f5 ff ff 	movw   $0x85ba,-0xaf4(%rbp)
   124aa:	ba 85 
   124ac:	66 c7 85 0e f5 ff ff 	movw   $0xffff,-0xaf2(%rbp)
   124b3:	ff ff 
   124b5:	66 c7 85 10 f5 ff ff 	movw   $0x85ba,-0xaf0(%rbp)
   124bc:	ba 85 
   124be:	48 8d 05 03 4f 01 00 	lea    0x14f03(%rip),%rax        # 273c8 <g_1496>
   124c5:	48 89 85 e0 f4 ff ff 	mov    %rax,-0xb20(%rbp)
   124cc:	48 8d 85 90 f3 ff ff 	lea    -0xc70(%rbp),%rax
   124d3:	48 89 85 e8 f4 ff ff 	mov    %rax,-0xb18(%rbp)
   124da:	48 8d 85 a0 f3 ff ff 	lea    -0xc60(%rbp),%rax
   124e1:	48 89 85 f0 f4 ff ff 	mov    %rax,-0xb10(%rbp)
   124e8:	c6 85 3b f3 ff ff 07 	movb   $0x7,-0xcc5(%rbp)
   124ef:	48 b8 e1 cc 5a 8d e5 	movabs $0xdf468ce58d5acce1,%rax
   124f6:	8c 46 df 
   124f9:	48 89 85 f8 f4 ff ff 	mov    %rax,-0xb08(%rbp)
   12500:	c7 85 80 f3 ff ff fc 	movl   $0x48e560fc,-0xc80(%rbp)
   12507:	60 e5 48 
   1250a:	48 b8 03 5e 03 03 5e 	movabs $0x5e03035e03035e03,%rax
   12511:	03 03 5e 
   12514:	48 89 85 10 f6 ff ff 	mov    %rax,-0x9f0(%rbp)
   1251b:	48 b8 5e 03 03 5e 03 	movabs $0x35e03035e03035e,%rax
   12522:	03 5e 03 
   12525:	48 89 85 18 f6 ff ff 	mov    %rax,-0x9e8(%rbp)
   1252c:	48 b8 5e 5e f9 5e 5e 	movabs $0x5e5ef95e5ef95e5e,%rax
   12533:	f9 5e 5e 
   12536:	48 89 85 20 f6 ff ff 	mov    %rax,-0x9e0(%rbp)
   1253d:	48 b8 03 5e 03 03 03 	movabs $0x3f9f90303035e03,%rax
   12544:	f9 f9 03 
   12547:	48 89 85 28 f6 ff ff 	mov    %rax,-0x9d8(%rbp)
   1254e:	48 b8 03 f9 f9 03 f9 	movabs $0xf903f9f903f9f903,%rax
   12555:	f9 03 f9 
   12558:	48 89 85 30 f6 ff ff 	mov    %rax,-0x9d0(%rbp)
   1255f:	48 be 03 03 5e 03 03 	movabs $0x3035e03035e0303,%rsi
   12566:	5e 03 03 
   12569:	48 89 b5 38 f6 ff ff 	mov    %rsi,-0x9c8(%rbp)
   12570:	48 bf f9 03 f9 f9 03 	movabs $0x3f9f903f9f903f9,%rdi
   12577:	f9 f9 03 
   1257a:	48 89 bd 40 f6 ff ff 	mov    %rdi,-0x9c0(%rbp)
   12581:	48 89 85 48 f6 ff ff 	mov    %rax,-0x9b8(%rbp)
   12588:	48 8d 85 50 fa ff ff 	lea    -0x5b0(%rbp),%rax
   1258f:	48 8d 15 ca 28 01 00 	lea    0x128ca(%rip),%rdx        # 24e60 <g_5661+0x18c>
   12596:	b9 b4 00 00 00       	mov    $0xb4,%ecx
   1259b:	48 89 c7             	mov    %rax,%rdi
   1259e:	48 89 d6             	mov    %rdx,%rsi
   125a1:	f3 48 a5             	rep movsq %ds:(%rsi),%es:(%rdi)
   125a4:	c7 85 84 f3 ff ff 05 	movl   $0x5,-0xc7c(%rbp)
   125ab:	00 00 00 
   125ae:	66 c7 85 4a f3 ff ff 	movw   $0x130c,-0xcb6(%rbp)
   125b5:	0c 13 
   125b7:	c7 85 88 f3 ff ff cd 	movl   $0xb4a309cd,-0xc78(%rbp)
   125be:	09 a3 b4 
   125c1:	c7 85 8c f3 ff ff 63 	movl   $0x6bbe5663,-0xc74(%rbp)
   125c8:	56 be 6b 
   125cb:	c7 85 40 f5 ff ff 0b 	movl   $0xd6fd450b,-0xac0(%rbp)
   125d2:	45 fd d6 
   125d5:	c7 85 44 f5 ff ff 0b 	movl   $0xd6fd450b,-0xabc(%rbp)
   125dc:	45 fd d6 
   125df:	c7 85 48 f5 ff ff 0b 	movl   $0xd6fd450b,-0xab8(%rbp)
   125e6:	45 fd d6 
   125e9:	c7 85 4c f5 ff ff 0b 	movl   $0xd6fd450b,-0xab4(%rbp)
   125f0:	45 fd d6 
   125f3:	c7 85 50 f5 ff ff 0b 	movl   $0xd6fd450b,-0xab0(%rbp)
   125fa:	45 fd d6 
   125fd:	c7 85 54 f5 ff ff 0b 	movl   $0xd6fd450b,-0xaac(%rbp)
   12604:	45 fd d6 
   12607:	c7 85 50 f3 ff ff 00 	movl   $0x0,-0xcb0(%rbp)
   1260e:	00 00 00 
   12611:	eb 1e                	jmp    12631 <func_19+0x8d2>
   12613:	8b 85 50 f3 ff ff    	mov    -0xcb0(%rbp),%eax
   12619:	48 98                	cltq   
   1261b:	48 8d 95 b8 f3 ff ff 	lea    -0xc48(%rbp),%rdx
   12622:	48 89 94 c5 60 f5 ff 	mov    %rdx,-0xaa0(%rbp,%rax,8)
   12629:	ff 
   1262a:	83 85 50 f3 ff ff 01 	addl   $0x1,-0xcb0(%rbp)
   12631:	83 bd 50 f3 ff ff 05 	cmpl   $0x5,-0xcb0(%rbp)
   12638:	7e d9                	jle    12613 <func_19+0x8b4>
   1263a:	c7 85 50 f3 ff ff 00 	movl   $0x0,-0xcb0(%rbp)
   12641:	00 00 00 
   12644:	eb 1e                	jmp    12664 <func_19+0x905>
   12646:	8b 85 50 f3 ff ff    	mov    -0xcb0(%rbp),%eax
   1264c:	48 98                	cltq   
   1264e:	48 8d 95 e8 f3 ff ff 	lea    -0xc18(%rbp),%rdx
   12655:	48 89 94 c5 40 f7 ff 	mov    %rdx,-0x8c0(%rbp,%rax,8)
   1265c:	ff 
   1265d:	83 85 50 f3 ff ff 01 	addl   $0x1,-0xcb0(%rbp)
   12664:	83 bd 50 f3 ff ff 08 	cmpl   $0x8,-0xcb0(%rbp)
   1266b:	7e d9                	jle    12646 <func_19+0x8e7>
   1266d:	48 0f bf 85 28 f3 ff 	movswq -0xcd8(%rbp),%rax
   12674:	ff 
   12675:	48 8b 4d f8          	mov    -0x8(%rbp),%rcx
   12679:	64 48 33 0c 25 28 00 	xor    %fs:0x28,%rcx
   12680:	00 00 
   12682:	74 05                	je     12689 <func_19+0x92a>
   12684:	e8 e7 59 ff ff       	callq  8070 <__stack_chk_fail@plt>
   12689:	c9                   	leaveq 
   1268a:	c3                   	retq   

000000000001268b <func_30>:
   1268b:	f3 0f 1e fa          	endbr64 
   1268f:	55                   	push   %rbp
   12690:	48 89 e5             	mov    %rsp,%rbp
   12693:	41 57                	push   %r15
   12695:	41 56                	push   %r14
   12697:	41 55                	push   %r13
   12699:	41 54                	push   %r12
   1269b:	53                   	push   %rbx
   1269c:	48 81 ec 00 10 00 00 	sub    $0x1000,%rsp
   126a3:	48 83 0c 24 00       	orq    $0x0,(%rsp)
   126a8:	48 81 ec 88 07 00 00 	sub    $0x788,%rsp
   126af:	48 89 bd 68 e8 ff ff 	mov    %rdi,-0x1798(%rbp)
   126b6:	48 89 b5 60 e8 ff ff 	mov    %rsi,-0x17a0(%rbp)
   126bd:	64 48 8b 04 25 28 00 	mov    %fs:0x28,%rax
   126c4:	00 00 
   126c6:	48 89 45 c8          	mov    %rax,-0x38(%rbp)
   126ca:	31 c0                	xor    %eax,%eax
   126cc:	c7 85 98 e8 ff ff 07 	movl   $0x7,-0x1768(%rbp)
   126d3:	00 00 00 
   126d6:	c7 85 d0 e8 ff ff 86 	movl   $0xc3606786,-0x1730(%rbp)
   126dd:	67 60 c3 
   126e0:	c7 85 9c e8 ff ff ff 	movl   $0xffffffff,-0x1764(%rbp)
   126e7:	ff ff ff 
   126ea:	48 8d 85 a0 eb ff ff 	lea    -0x1460(%rbp),%rax
   126f1:	48 89 85 20 ec ff ff 	mov    %rax,-0x13e0(%rbp)
   126f8:	48 8d 85 a0 eb ff ff 	lea    -0x1460(%rbp),%rax
   126ff:	48 89 85 28 ec ff ff 	mov    %rax,-0x13d8(%rbp)
   12706:	48 8d 85 a0 eb ff ff 	lea    -0x1460(%rbp),%rax
   1270d:	48 89 85 30 ec ff ff 	mov    %rax,-0x13d0(%rbp)
   12714:	48 8d 85 a0 eb ff ff 	lea    -0x1460(%rbp),%rax
   1271b:	48 89 85 38 ec ff ff 	mov    %rax,-0x13c8(%rbp)
   12722:	48 8d 85 a0 eb ff ff 	lea    -0x1460(%rbp),%rax
   12729:	48 89 85 40 ec ff ff 	mov    %rax,-0x13c0(%rbp)
   12730:	48 8d 85 a0 eb ff ff 	lea    -0x1460(%rbp),%rax
   12737:	48 89 85 48 ec ff ff 	mov    %rax,-0x13b8(%rbp)
   1273e:	48 8d 85 a0 eb ff ff 	lea    -0x1460(%rbp),%rax
   12745:	48 89 85 50 ec ff ff 	mov    %rax,-0x13b0(%rbp)
   1274c:	48 8d 85 a0 eb ff ff 	lea    -0x1460(%rbp),%rax
   12753:	48 89 85 58 ec ff ff 	mov    %rax,-0x13a8(%rbp)
   1275a:	48 c7 85 d8 e9 ff ff 	movq   $0x0,-0x1628(%rbp)
   12761:	00 00 00 00 
   12765:	66 c7 85 8c e8 ff ff 	movw   $0x13d1,-0x1774(%rbp)
   1276c:	d1 13 
   1276e:	48 c7 85 80 e9 ff ff 	movq   $0x0,-0x1680(%rbp)
   12775:	00 00 00 00 
   12779:	48 8d 85 80 e9 ff ff 	lea    -0x1680(%rbp),%rax
   12780:	48 89 85 88 e9 ff ff 	mov    %rax,-0x1678(%rbp)
   12787:	48 8d 85 88 e9 ff ff 	lea    -0x1678(%rbp),%rax
   1278e:	48 89 85 e0 e9 ff ff 	mov    %rax,-0x1620(%rbp)
   12795:	48 8d 05 5c 4a 01 00 	lea    0x14a5c(%rip),%rax        # 271f8 <g_710>
   1279c:	48 89 85 e8 e9 ff ff 	mov    %rax,-0x1618(%rbp)
   127a3:	66 c7 85 8a e8 ff ff 	movw   $0xffff,-0x1776(%rbp)
   127aa:	ff ff 
   127ac:	c6 85 7e e8 ff ff c0 	movb   $0xc0,-0x1782(%rbp)
   127b3:	48 c7 85 f0 e9 ff ff 	movq   $0x1,-0x1610(%rbp)
   127ba:	01 00 00 00 
   127be:	c6 85 80 e8 ff ff 3a 	movb   $0x3a,-0x1780(%rbp)
   127c5:	c7 85 d4 e8 ff ff 67 	movl   $0x314e8e67,-0x172c(%rbp)
   127cc:	8e 4e 31 
   127cf:	66 c7 85 8e e8 ff ff 	movw   $0x0,-0x1772(%rbp)
   127d6:	00 00 
   127d8:	48 8d 05 09 4a 01 00 	lea    0x14a09(%rip),%rax        # 271e8 <g_687>
   127df:	48 89 85 f8 e9 ff ff 	mov    %rax,-0x1608(%rbp)
   127e6:	c6 85 81 e8 ff ff 01 	movb   $0x1,-0x177f(%rbp)
   127ed:	48 8d 05 14 4a 01 00 	lea    0x14a14(%rip),%rax        # 27208 <g_1022>
   127f4:	48 89 85 90 e9 ff ff 	mov    %rax,-0x1670(%rbp)
   127fb:	48 8d 85 90 e9 ff ff 	lea    -0x1670(%rbp),%rax
   12802:	48 89 85 98 e9 ff ff 	mov    %rax,-0x1668(%rbp)
   12809:	48 8d 05 f8 48 01 00 	lea    0x148f8(%rip),%rax        # 27108 <g_570>
   12810:	48 89 85 a0 e9 ff ff 	mov    %rax,-0x1660(%rbp)
   12817:	c6 85 82 e8 ff ff fb 	movb   $0xfb,-0x177e(%rbp)
   1281e:	c7 85 d8 e8 ff ff 49 	movl   $0x28e9c849,-0x1728(%rbp)
   12825:	c8 e9 28 
   12828:	c7 85 c0 e8 ff ff 00 	movl   $0x0,-0x1740(%rbp)
   1282f:	00 00 00 
   12832:	eb 1b                	jmp    1284f <func_30+0x1c4>
   12834:	8b 85 c0 e8 ff ff    	mov    -0x1740(%rbp),%eax
   1283a:	48 98                	cltq   
   1283c:	48 c7 84 c5 a0 eb ff 	movq   $0x0,-0x1460(%rbp,%rax,8)
   12843:	ff 00 00 00 00 
   12848:	83 85 c0 e8 ff ff 01 	addl   $0x1,-0x1740(%rbp)
   1284f:	83 bd c0 e8 ff ff 00 	cmpl   $0x0,-0x1740(%rbp)
   12856:	7e dc                	jle    12834 <func_30+0x1a9>
   12858:	c7 85 c0 e8 ff ff 00 	movl   $0x0,-0x1740(%rbp)
   1285f:	00 00 00 
   12862:	eb 1a                	jmp    1287e <func_30+0x1f3>
   12864:	8b 85 c0 e8 ff ff    	mov    -0x1740(%rbp),%eax
   1286a:	48 98                	cltq   
   1286c:	c7 84 85 98 eb ff ff 	movl   $0x2225f273,-0x1468(%rbp,%rax,4)
   12873:	73 f2 25 22 
   12877:	83 85 c0 e8 ff ff 01 	addl   $0x1,-0x1740(%rbp)
   1287e:	83 bd c0 e8 ff ff 00 	cmpl   $0x0,-0x1740(%rbp)
   12885:	7e dd                	jle    12864 <func_30+0x1d9>
   12887:	c7 05 0f 20 01 00 00 	movl   $0x0,0x1200f(%rip)        # 248a0 <g_1259>
   1288e:	00 00 00 
   12891:	e9 6d 17 00 00       	jmpq   14003 <func_30+0x1978>
   12896:	c7 85 c4 e8 ff ff fd 	movl   $0xfffffffd,-0x173c(%rbp)
   1289d:	ff ff ff 
   128a0:	c7 85 10 e9 ff ff b4 	movl   $0x3023eb4,-0x16f0(%rbp)
   128a7:	3e 02 03 
   128aa:	48 8d 05 c7 1f 01 00 	lea    0x11fc7(%rip),%rax        # 24878 <g_370>
   128b1:	48 89 85 d0 ea ff ff 	mov    %rax,-0x1530(%rbp)
   128b8:	48 8d 05 69 17 01 00 	lea    0x11769(%rip),%rax        # 24028 <g_62>
   128bf:	48 89 85 d8 ea ff ff 	mov    %rax,-0x1528(%rbp)
   128c6:	48 8d 05 7b 17 01 00 	lea    0x1177b(%rip),%rax        # 24048 <g_85>
   128cd:	48 89 85 e0 ea ff ff 	mov    %rax,-0x1520(%rbp)
   128d4:	48 c7 85 a8 e9 ff ff 	movq   $0x0,-0x1658(%rbp)
   128db:	00 00 00 00 
   128df:	48 8d 85 a8 e9 ff ff 	lea    -0x1658(%rbp),%rax
   128e6:	48 89 85 60 ec ff ff 	mov    %rax,-0x13a0(%rbp)
   128ed:	48 8d 85 a8 e9 ff ff 	lea    -0x1658(%rbp),%rax
   128f4:	48 89 85 68 ec ff ff 	mov    %rax,-0x1398(%rbp)
   128fb:	48 8d 85 a8 e9 ff ff 	lea    -0x1658(%rbp),%rax
   12902:	48 89 85 70 ec ff ff 	mov    %rax,-0x1390(%rbp)
   12909:	48 8d 85 a8 e9 ff ff 	lea    -0x1658(%rbp),%rax
   12910:	48 89 85 78 ec ff ff 	mov    %rax,-0x1388(%rbp)
   12917:	48 8d 85 a8 e9 ff ff 	lea    -0x1658(%rbp),%rax
   1291e:	48 89 85 80 ec ff ff 	mov    %rax,-0x1380(%rbp)
   12925:	66 c7 85 90 e8 ff ff 	movw   $0x6cf,-0x1770(%rbp)
   1292c:	cf 06 
   1292e:	c6 85 7f e8 ff ff 6e 	movb   $0x6e,-0x1781(%rbp)
   12935:	66 c7 85 94 e8 ff ff 	movw   $0x3849,-0x176c(%rbp)
   1293c:	49 38 
   1293e:	48 8d 05 43 1f 01 00 	lea    0x11f43(%rip),%rax        # 24888 <g_505>
   12945:	48 89 85 b0 e9 ff ff 	mov    %rax,-0x1650(%rbp)
   1294c:	48 8d 85 98 eb ff ff 	lea    -0x1468(%rbp),%rax
   12953:	48 89 85 e8 ea ff ff 	mov    %rax,-0x1518(%rbp)
   1295a:	48 b8 b9 e5 56 65 b9 	movabs $0xc1840eb96556e5b9,%rax
   12961:	0e 84 c1 
   12964:	48 89 85 f0 ea ff ff 	mov    %rax,-0x1510(%rbp)
   1296b:	48 8d 85 70 f1 ff ff 	lea    -0xe90(%rbp),%rax
   12972:	48 8d 15 87 2a 01 00 	lea    0x12a87(%rip),%rdx        # 25400 <g_5661+0x72c>
   12979:	b9 d8 00 00 00       	mov    $0xd8,%ecx
   1297e:	48 89 c7             	mov    %rax,%rdi
   12981:	48 89 d6             	mov    %rdx,%rsi
   12984:	f3 48 a5             	rep movsq %ds:(%rsi),%es:(%rdi)
   12987:	48 8d 85 70 f1 ff ff 	lea    -0xe90(%rbp),%rax
   1298e:	48 05 38 04 00 00    	add    $0x438,%rax
   12994:	48 89 85 c0 ec ff ff 	mov    %rax,-0x1340(%rbp)
   1299b:	48 8d 85 70 f1 ff ff 	lea    -0xe90(%rbp),%rax
   129a2:	48 05 38 04 00 00    	add    $0x438,%rax
   129a8:	48 89 85 c8 ec ff ff 	mov    %rax,-0x1338(%rbp)
   129af:	48 8d 85 70 f1 ff ff 	lea    -0xe90(%rbp),%rax
   129b6:	48 05 38 04 00 00    	add    $0x438,%rax
   129bc:	48 89 85 d0 ec ff ff 	mov    %rax,-0x1330(%rbp)
   129c3:	48 8d 85 70 f1 ff ff 	lea    -0xe90(%rbp),%rax
   129ca:	48 05 38 04 00 00    	add    $0x438,%rax
   129d0:	48 89 85 d8 ec ff ff 	mov    %rax,-0x1328(%rbp)
   129d7:	48 8d 85 70 f1 ff ff 	lea    -0xe90(%rbp),%rax
   129de:	48 05 38 04 00 00    	add    $0x438,%rax
   129e4:	48 89 85 e0 ec ff ff 	mov    %rax,-0x1320(%rbp)
   129eb:	48 8d 85 70 f1 ff ff 	lea    -0xe90(%rbp),%rax
   129f2:	48 05 38 04 00 00    	add    $0x438,%rax
   129f8:	48 89 85 e8 ec ff ff 	mov    %rax,-0x1318(%rbp)
   129ff:	48 8d 85 70 f1 ff ff 	lea    -0xe90(%rbp),%rax
   12a06:	48 05 38 04 00 00    	add    $0x438,%rax
   12a0c:	48 89 85 f0 ec ff ff 	mov    %rax,-0x1310(%rbp)
   12a13:	48 8d 85 70 f1 ff ff 	lea    -0xe90(%rbp),%rax
   12a1a:	48 05 38 04 00 00    	add    $0x438,%rax
   12a20:	48 89 85 f8 ec ff ff 	mov    %rax,-0x1308(%rbp)
   12a27:	c7 85 14 e9 ff ff 01 	movl   $0x1,-0x16ec(%rbp)
   12a2e:	00 00 00 
   12a31:	48 8d 85 f0 eb ff ff 	lea    -0x1410(%rbp),%rax
   12a38:	48 83 c0 10          	add    $0x10,%rax
   12a3c:	48 89 85 b8 e9 ff ff 	mov    %rax,-0x1648(%rbp)
   12a43:	48 8d 85 b8 e9 ff ff 	lea    -0x1648(%rbp),%rax
   12a4a:	48 89 85 f8 ea ff ff 	mov    %rax,-0x1508(%rbp)
   12a51:	48 8d 85 c0 eb ff ff 	lea    -0x1440(%rbp),%rax
   12a58:	48 89 85 00 eb ff ff 	mov    %rax,-0x1500(%rbp)
   12a5f:	c7 85 18 e9 ff ff f9 	movl   $0xfffffff9,-0x16e8(%rbp)
   12a66:	ff ff ff 
   12a69:	48 8d 05 98 47 01 00 	lea    0x14798(%rip),%rax        # 27208 <g_1022>
   12a70:	48 89 85 c0 e9 ff ff 	mov    %rax,-0x1640(%rbp)
   12a77:	48 8d 85 c0 e9 ff ff 	lea    -0x1640(%rbp),%rax
   12a7e:	48 89 85 08 eb ff ff 	mov    %rax,-0x14f8(%rbp)
   12a85:	c7 85 1c e9 ff ff e3 	movl   $0x2ba462e3,-0x16e4(%rbp)
   12a8c:	62 a4 2b 
   12a8f:	c7 85 c8 e8 ff ff 00 	movl   $0x0,-0x1738(%rbp)
   12a96:	00 00 00 
   12a99:	eb 1e                	jmp    12ab9 <func_30+0x42e>
   12a9b:	8b 85 c8 e8 ff ff    	mov    -0x1738(%rbp),%eax
   12aa1:	48 98                	cltq   
   12aa3:	48 8d 15 f6 54 01 00 	lea    0x154f6(%rip),%rdx        # 27fa0 <g_527>
   12aaa:	48 89 94 c5 f0 eb ff 	mov    %rdx,-0x1410(%rbp,%rax,8)
   12ab1:	ff 
   12ab2:	83 85 c8 e8 ff ff 01 	addl   $0x1,-0x1738(%rbp)
   12ab9:	83 bd c8 e8 ff ff 03 	cmpl   $0x3,-0x1738(%rbp)
   12ac0:	7e d9                	jle    12a9b <func_30+0x410>
   12ac2:	c7 85 c8 e8 ff ff 00 	movl   $0x0,-0x1738(%rbp)
   12ac9:	00 00 00 
   12acc:	eb 1e                	jmp    12aec <func_30+0x461>
   12ace:	8b 85 c8 e8 ff ff    	mov    -0x1738(%rbp),%eax
   12ad4:	48 98                	cltq   
   12ad6:	48 8d 95 b0 e9 ff ff 	lea    -0x1650(%rbp),%rdx
   12add:	48 89 94 c5 c0 eb ff 	mov    %rdx,-0x1440(%rbp,%rax,8)
   12ae4:	ff 
   12ae5:	83 85 c8 e8 ff ff 01 	addl   $0x1,-0x1738(%rbp)
   12aec:	83 bd c8 e8 ff ff 02 	cmpl   $0x2,-0x1738(%rbp)
   12af3:	7e d9                	jle    12ace <func_30+0x443>
   12af5:	8b 85 c4 e8 ff ff    	mov    -0x173c(%rbp),%eax
   12afb:	0f be d8             	movsbl %al,%ebx
   12afe:	8b 85 c4 e8 ff ff    	mov    -0x173c(%rbp),%eax
   12b04:	0f be d0             	movsbl %al,%edx
   12b07:	8b 85 10 e9 ff ff    	mov    -0x16f0(%rbp),%eax
   12b0d:	23 85 c4 e8 ff ff    	and    -0x173c(%rbp),%eax
   12b13:	89 85 10 e9 ff ff    	mov    %eax,-0x16f0(%rbp)
   12b19:	8b 85 10 e9 ff ff    	mov    -0x16f0(%rbp),%eax
   12b1f:	0f be c0             	movsbl %al,%eax
   12b22:	89 d6                	mov    %edx,%esi
   12b24:	89 c7                	mov    %eax,%edi
   12b26:	e8 06 57 ff ff       	callq  8231 <safe_mod_func_int8_t_s_s>
   12b2b:	66 98                	cbtw   
   12b2d:	0f b7 c0             	movzwl %ax,%eax
   12b30:	be 04 00 00 00       	mov    $0x4,%esi
   12b35:	89 c7                	mov    %eax,%edi
   12b37:	e8 82 62 ff ff       	callq  8dbe <safe_lshift_func_uint16_t_u_s>
   12b3c:	8b 85 c4 e8 ff ff    	mov    -0x173c(%rbp),%eax
   12b42:	66 89 05 1f 1d 01 00 	mov    %ax,0x11d1f(%rip)        # 24868 <g_269>
   12b49:	0f b7 05 18 1d 01 00 	movzwl 0x11d18(%rip),%eax        # 24868 <g_269>
   12b50:	0f bf d0             	movswl %ax,%edx
   12b53:	48 8b 05 be 46 01 00 	mov    0x146be(%rip),%rax        # 27218 <g_1057>
   12b5a:	48 8b 00             	mov    (%rax),%rax
   12b5d:	48 8b 00             	mov    (%rax),%rax
   12b60:	48 85 c0             	test   %rax,%rax
   12b63:	0f 95 c0             	setne  %al
   12b66:	0f b6 c0             	movzbl %al,%eax
   12b69:	39 c2                	cmp    %eax,%edx
   12b6b:	48 8b 85 d0 ea ff ff 	mov    -0x1530(%rbp),%rax
   12b72:	8b 95 d0 e8 ff ff    	mov    -0x1730(%rbp),%edx
   12b78:	89 10                	mov    %edx,(%rax)
   12b7a:	48 8b 85 d0 ea ff ff 	mov    -0x1530(%rbp),%rax
   12b81:	8b 10                	mov    (%rax),%edx
   12b83:	8b 85 9c e8 ff ff    	mov    -0x1764(%rbp),%eax
   12b89:	31 d0                	xor    %edx,%eax
   12b8b:	89 85 9c e8 ff ff    	mov    %eax,-0x1764(%rbp)
   12b91:	8b 85 9c e8 ff ff    	mov    -0x1764(%rbp),%eax
   12b97:	39 85 d0 e8 ff ff    	cmp    %eax,-0x1730(%rbp)
   12b9d:	0f 95 c0             	setne  %al
   12ba0:	0f b6 c0             	movzbl %al,%eax
   12ba3:	89 de                	mov    %ebx,%esi
   12ba5:	89 c7                	mov    %eax,%edi
   12ba7:	e8 66 56 ff ff       	callq  8212 <safe_mul_func_int8_t_s_s>
   12bac:	48 8b 95 d8 ea ff ff 	mov    -0x1528(%rbp),%rdx
   12bb3:	8b 12                	mov    (%rdx),%edx
   12bb5:	0f be c0             	movsbl %al,%eax
   12bb8:	09 c2                	or     %eax,%edx
   12bba:	48 8b 85 d8 ea ff ff 	mov    -0x1528(%rbp),%rax
   12bc1:	89 10                	mov    %edx,(%rax)
   12bc3:	48 8b 85 d0 ea ff ff 	mov    -0x1530(%rbp),%rax
   12bca:	8b 00                	mov    (%rax),%eax
   12bcc:	89 85 5c e8 ff ff    	mov    %eax,-0x17a4(%rbp)
   12bd2:	b8 ff ff ff ff       	mov    $0xffffffff,%eax
   12bd7:	89 85 50 e8 ff ff    	mov    %eax,-0x17b0(%rbp)
   12bdd:	48 8b 85 d8 ea ff ff 	mov    -0x1528(%rbp),%rax
   12be4:	8b 10                	mov    (%rax),%edx
   12be6:	48 8b 05 a3 41 01 00 	mov    0x141a3(%rip),%rax        # 26d90 <g_145>
   12bed:	48 8b 00             	mov    (%rax),%rax
   12bf0:	89 10                	mov    %edx,(%rax)
   12bf2:	8b 10                	mov    (%rax),%edx
   12bf4:	48 8b 85 e0 ea ff ff 	mov    -0x1520(%rbp),%rax
   12bfb:	89 10                	mov    %edx,(%rax)
   12bfd:	48 8b 85 e0 ea ff ff 	mov    -0x1520(%rbp),%rax
   12c04:	8b 00                	mov    (%rax),%eax
   12c06:	89 85 58 e8 ff ff    	mov    %eax,-0x17a8(%rbp)
   12c0c:	0f b7 05 55 1c 01 00 	movzwl 0x11c55(%rip),%eax        # 24868 <g_269>
   12c13:	0f bf d8             	movswl %ax,%ebx
   12c16:	44 8b 25 53 1c 01 00 	mov    0x11c53(%rip),%r12d        # 24870 <g_355>
   12c1d:	48 8b 85 d0 ea ff ff 	mov    -0x1530(%rbp),%rax
   12c24:	8b 00                	mov    (%rax),%eax
   12c26:	4c 63 e8             	movslq %eax,%r13
   12c29:	48 8b 85 d0 ea ff ff 	mov    -0x1530(%rbp),%rax
   12c30:	8b 00                	mov    (%rax),%eax
   12c32:	4c 63 f0             	movslq %eax,%r14
   12c35:	48 8b 85 d0 ea ff ff 	mov    -0x1530(%rbp),%rax
   12c3c:	8b 00                	mov    (%rax),%eax
   12c3e:	44 0f b6 f8          	movzbl %al,%r15d
   12c42:	8b 05 24 1c 01 00    	mov    0x11c24(%rip),%eax        # 2486c <g_321>
   12c48:	85 c0                	test   %eax,%eax
   12c4a:	0f 95 c0             	setne  %al
   12c4d:	0f b6 d0             	movzbl %al,%edx
   12c50:	8b 85 98 eb ff ff    	mov    -0x1468(%rbp),%eax
   12c56:	98                   	cwtl   
   12c57:	89 d6                	mov    %edx,%esi
   12c59:	89 c7                	mov    %eax,%edi
   12c5b:	e8 95 57 ff ff       	callq  83f5 <safe_mul_func_int16_t_s_s>
   12c60:	66 85 c0             	test   %ax,%ax
   12c63:	75 0d                	jne    12c72 <func_30+0x5e7>
   12c65:	48 8b 05 84 45 01 00 	mov    0x14584(%rip),%rax        # 271f0 <g_711>
   12c6c:	0f b7 00             	movzwl (%rax),%eax
   12c6f:	66 85 c0             	test   %ax,%ax
   12c72:	48 8b 85 a8 e9 ff ff 	mov    -0x1658(%rbp),%rax
   12c79:	48 89 85 30 ec ff ff 	mov    %rax,-0x13d0(%rbp)
   12c80:	48 8b 85 30 ec ff ff 	mov    -0x13d0(%rbp),%rax
   12c87:	48 8d 15 22 4f 01 00 	lea    0x14f22(%rip),%rdx        # 27bb0 <g_112>
   12c8e:	48 39 d0             	cmp    %rdx,%rax
   12c91:	75 0d                	jne    12ca0 <func_30+0x615>
   12c93:	48 8b 85 d0 ea ff ff 	mov    -0x1530(%rbp),%rax
   12c9a:	8b 00                	mov    (%rax),%eax
   12c9c:	85 c0                	test   %eax,%eax
   12c9e:	74 07                	je     12ca7 <func_30+0x61c>
   12ca0:	b8 01 00 00 00       	mov    $0x1,%eax
   12ca5:	eb 05                	jmp    12cac <func_30+0x621>
   12ca7:	b8 00 00 00 00       	mov    $0x0,%eax
   12cac:	89 c2                	mov    %eax,%edx
   12cae:	0f b7 85 94 e8 ff ff 	movzwl -0x176c(%rbp),%eax
   12cb5:	09 d0                	or     %edx,%eax
   12cb7:	0f b6 c0             	movzbl %al,%eax
   12cba:	44 89 fe             	mov    %r15d,%esi
   12cbd:	89 c7                	mov    %eax,%edi
   12cbf:	e8 17 5f ff ff       	callq  8bdb <safe_div_func_uint8_t_u_u>
   12cc4:	0f b6 c0             	movzbl %al,%eax
   12cc7:	be 00 00 00 00       	mov    $0x0,%esi
   12ccc:	48 89 c7             	mov    %rax,%rdi
   12ccf:	e8 6d 5b ff ff       	callq  8841 <safe_add_func_int64_t_s_s>
   12cd4:	4c 89 f6             	mov    %r14,%rsi
   12cd7:	48 89 c7             	mov    %rax,%rdi
   12cda:	e8 6c 63 ff ff       	callq  904b <safe_sub_func_uint64_t_u_u>
   12cdf:	48 89 c2             	mov    %rax,%rdx
   12ce2:	48 8b 05 17 45 01 00 	mov    0x14517(%rip),%rax        # 27200 <g_1023>
   12ce9:	88 10                	mov    %dl,(%rax)
   12ceb:	0f b6 00             	movzbl (%rax),%eax
   12cee:	0f b6 c0             	movzbl %al,%eax
   12cf1:	be fc 00 00 00       	mov    $0xfc,%esi
   12cf6:	89 c7                	mov    %eax,%edi
   12cf8:	e8 b1 5e ff ff       	callq  8bae <safe_mod_func_uint8_t_u_u>
   12cfd:	48 8d 05 0c 44 01 00 	lea    0x1440c(%rip),%rax        # 27110 <g_573>
   12d04:	48 8b 00             	mov    (%rax),%rax
   12d07:	48 8b 10             	mov    (%rax),%rdx
   12d0a:	48 8b 85 d0 ea ff ff 	mov    -0x1530(%rbp),%rax
   12d11:	8b 00                	mov    (%rax),%eax
   12d13:	48 98                	cltq   
   12d15:	48 39 c2             	cmp    %rax,%rdx
   12d18:	0f 9f c2             	setg   %dl
   12d1b:	48 8b 85 b0 e9 ff ff 	mov    -0x1650(%rbp),%rax
   12d22:	0f b6 d2             	movzbl %dl,%edx
   12d25:	48 89 10             	mov    %rdx,(%rax)
   12d28:	48 8b 00             	mov    (%rax),%rax
   12d2b:	4c 89 ee             	mov    %r13,%rsi
   12d2e:	48 89 c7             	mov    %rax,%rdi
   12d31:	e8 15 63 ff ff       	callq  904b <safe_sub_func_uint64_t_u_u>
   12d36:	48 8b 15 e3 44 01 00 	mov    0x144e3(%rip),%rdx        # 27220 <g_1126>
   12d3d:	48 8b 12             	mov    (%rdx),%rdx
   12d40:	48 8b 12             	mov    (%rdx),%rdx
   12d43:	0f b6 12             	movzbl (%rdx),%edx
   12d46:	0f b6 d2             	movzbl %dl,%edx
   12d49:	48 39 d0             	cmp    %rdx,%rax
   12d4c:	0f 94 c0             	sete   %al
   12d4f:	0f b6 c0             	movzbl %al,%eax
   12d52:	44 89 e6             	mov    %r12d,%esi
   12d55:	89 c7                	mov    %eax,%edi
   12d57:	e8 36 57 ff ff       	callq  8492 <safe_lshift_func_int16_t_s_s>
   12d5c:	98                   	cwtl   
   12d5d:	89 de                	mov    %ebx,%esi
   12d5f:	89 c7                	mov    %eax,%edi
   12d61:	e8 97 61 ff ff       	callq  8efd <safe_mod_func_uint32_t_u_u>
   12d66:	48 8b 95 e8 ea ff ff 	mov    -0x1518(%rbp),%rdx
   12d6d:	89 02                	mov    %eax,(%rdx)
   12d6f:	48 8b 85 e8 ea ff ff 	mov    -0x1518(%rbp),%rax
   12d76:	8b 00                	mov    (%rax),%eax
   12d78:	39 85 58 e8 ff ff    	cmp    %eax,-0x17a8(%rbp)
   12d7e:	0f 92 c0             	setb   %al
   12d81:	0f b6 c0             	movzbl %al,%eax
   12d84:	8b b5 50 e8 ff ff    	mov    -0x17b0(%rbp),%esi
   12d8a:	89 c7                	mov    %eax,%edi
   12d8c:	e8 01 57 ff ff       	callq  8492 <safe_lshift_func_int16_t_s_s>
   12d91:	f7 d0                	not    %eax
   12d93:	66 c1 e8 0f          	shr    $0xf,%ax
   12d97:	0f b6 c0             	movzbl %al,%eax
   12d9a:	39 85 5c e8 ff ff    	cmp    %eax,-0x17a4(%rbp)
   12da0:	0f 9d c0             	setge  %al
   12da3:	0f b6 d0             	movzbl %al,%edx
   12da6:	8b 85 98 e8 ff ff    	mov    -0x1768(%rbp),%eax
   12dac:	0f b7 c0             	movzwl %ax,%eax
   12daf:	89 d6                	mov    %edx,%esi
   12db1:	89 c7                	mov    %eax,%edi
   12db3:	e8 85 5f ff ff       	callq  8d3d <safe_mul_func_uint16_t_u_u>
   12db8:	0f b6 c0             	movzbl %al,%eax
   12dbb:	be ff 00 00 00       	mov    $0xff,%esi
   12dc0:	89 c7                	mov    %eax,%edi
   12dc2:	e8 b1 5d ff ff       	callq  8b78 <safe_sub_func_uint8_t_u_u>
   12dc7:	0f b6 d0             	movzbl %al,%edx
   12dca:	8b 05 78 1b 01 00    	mov    0x11b78(%rip),%eax        # 24948 <g_1356+0x88>
   12dd0:	39 c2                	cmp    %eax,%edx
   12dd2:	0f 94 c0             	sete   %al
   12dd5:	0f b6 d0             	movzbl %al,%edx
   12dd8:	48 8b 85 d0 ea ff ff 	mov    -0x1530(%rbp),%rax
   12ddf:	8b 00                	mov    (%rax),%eax
   12de1:	48 98                	cltq   
   12de3:	48 89 d6             	mov    %rdx,%rsi
   12de6:	48 89 c7             	mov    %rax,%rdi
   12de9:	e8 53 5a ff ff       	callq  8841 <safe_add_func_int64_t_s_s>
   12dee:	48 85 c0             	test   %rax,%rax
   12df1:	0f 84 05 06 00 00    	je     133fc <func_30+0xd71>
   12df7:	48 c7 85 90 ed ff ff 	movq   $0x0,-0x1270(%rbp)
   12dfe:	00 00 00 00 
   12e02:	48 c7 85 98 ed ff ff 	movq   $0x0,-0x1268(%rbp)
   12e09:	00 00 00 00 
   12e0d:	48 c7 85 a0 ed ff ff 	movq   $0x0,-0x1260(%rbp)
   12e14:	00 00 00 00 
   12e18:	48 8d 85 7f e8 ff ff 	lea    -0x1781(%rbp),%rax
   12e1f:	48 89 85 a8 ed ff ff 	mov    %rax,-0x1258(%rbp)
   12e26:	48 c7 85 b0 ed ff ff 	movq   $0x0,-0x1250(%rbp)
   12e2d:	00 00 00 00 
   12e31:	48 c7 85 b8 ed ff ff 	movq   $0x0,-0x1248(%rbp)
   12e38:	00 00 00 00 
   12e3c:	48 c7 85 c0 ed ff ff 	movq   $0x0,-0x1240(%rbp)
   12e43:	00 00 00 00 
   12e47:	48 8d 85 7f e8 ff ff 	lea    -0x1781(%rbp),%rax
   12e4e:	48 89 85 c8 ed ff ff 	mov    %rax,-0x1238(%rbp)
   12e55:	48 c7 85 d0 ed ff ff 	movq   $0x0,-0x1230(%rbp)
   12e5c:	00 00 00 00 
   12e60:	48 c7 85 d8 ed ff ff 	movq   $0x0,-0x1228(%rbp)
   12e67:	00 00 00 00 
   12e6b:	48 c7 85 e0 ed ff ff 	movq   $0x0,-0x1220(%rbp)
   12e72:	00 00 00 00 
   12e76:	48 8d 85 7f e8 ff ff 	lea    -0x1781(%rbp),%rax
   12e7d:	48 89 85 e8 ed ff ff 	mov    %rax,-0x1218(%rbp)
   12e84:	48 c7 85 f0 ed ff ff 	movq   $0x0,-0x1210(%rbp)
   12e8b:	00 00 00 00 
   12e8f:	48 c7 85 f8 ed ff ff 	movq   $0x0,-0x1208(%rbp)
   12e96:	00 00 00 00 
   12e9a:	48 c7 85 00 ee ff ff 	movq   $0x0,-0x1200(%rbp)
   12ea1:	00 00 00 00 
   12ea5:	48 8d 85 7f e8 ff ff 	lea    -0x1781(%rbp),%rax
   12eac:	48 89 85 08 ee ff ff 	mov    %rax,-0x11f8(%rbp)
   12eb3:	48 c7 85 10 ee ff ff 	movq   $0x0,-0x11f0(%rbp)
   12eba:	00 00 00 00 
   12ebe:	48 c7 85 18 ee ff ff 	movq   $0x0,-0x11e8(%rbp)
   12ec5:	00 00 00 00 
   12ec9:	48 c7 85 20 ee ff ff 	movq   $0x0,-0x11e0(%rbp)
   12ed0:	00 00 00 00 
   12ed4:	48 8d 85 7f e8 ff ff 	lea    -0x1781(%rbp),%rax
   12edb:	48 89 85 28 ee ff ff 	mov    %rax,-0x11d8(%rbp)
   12ee2:	c7 85 24 e9 ff ff ff 	movl   $0xffffffff,-0x16dc(%rbp)
   12ee9:	ff ff ff 
   12eec:	48 8d 05 1d 42 01 00 	lea    0x1421d(%rip),%rax        # 27110 <g_573>
   12ef3:	48 89 85 b0 ee ff ff 	mov    %rax,-0x1150(%rbp)
   12efa:	48 8d 05 0f 42 01 00 	lea    0x1420f(%rip),%rax        # 27110 <g_573>
   12f01:	48 89 85 b8 ee ff ff 	mov    %rax,-0x1148(%rbp)
   12f08:	48 8d 05 01 42 01 00 	lea    0x14201(%rip),%rax        # 27110 <g_573>
   12f0f:	48 89 85 c0 ee ff ff 	mov    %rax,-0x1140(%rbp)
   12f16:	48 8d 05 f3 41 01 00 	lea    0x141f3(%rip),%rax        # 27110 <g_573>
   12f1d:	48 89 85 c8 ee ff ff 	mov    %rax,-0x1138(%rbp)
   12f24:	48 8d 05 e5 41 01 00 	lea    0x141e5(%rip),%rax        # 27110 <g_573>
   12f2b:	48 89 85 d0 ee ff ff 	mov    %rax,-0x1130(%rbp)
   12f32:	48 8d 05 d7 41 01 00 	lea    0x141d7(%rip),%rax        # 27110 <g_573>
   12f39:	48 89 85 d8 ee ff ff 	mov    %rax,-0x1128(%rbp)
   12f40:	48 8d 05 c9 41 01 00 	lea    0x141c9(%rip),%rax        # 27110 <g_573>
   12f47:	48 89 85 e0 ee ff ff 	mov    %rax,-0x1120(%rbp)
   12f4e:	48 8d 05 bb 41 01 00 	lea    0x141bb(%rip),%rax        # 27110 <g_573>
   12f55:	48 89 85 e8 ee ff ff 	mov    %rax,-0x1118(%rbp)
   12f5c:	48 8d 05 ad 41 01 00 	lea    0x141ad(%rip),%rax        # 27110 <g_573>
   12f63:	48 89 85 f0 ee ff ff 	mov    %rax,-0x1110(%rbp)
   12f6a:	48 8d 05 9f 41 01 00 	lea    0x1419f(%rip),%rax        # 27110 <g_573>
   12f71:	48 89 85 f8 ee ff ff 	mov    %rax,-0x1108(%rbp)
   12f78:	48 8d 05 91 41 01 00 	lea    0x14191(%rip),%rax        # 27110 <g_573>
   12f7f:	48 89 85 00 ef ff ff 	mov    %rax,-0x1100(%rbp)
   12f86:	48 8d 05 83 41 01 00 	lea    0x14183(%rip),%rax        # 27110 <g_573>
   12f8d:	48 89 85 08 ef ff ff 	mov    %rax,-0x10f8(%rbp)
   12f94:	48 8d 05 75 41 01 00 	lea    0x14175(%rip),%rax        # 27110 <g_573>
   12f9b:	48 89 85 10 ef ff ff 	mov    %rax,-0x10f0(%rbp)
   12fa2:	48 8d 05 67 41 01 00 	lea    0x14167(%rip),%rax        # 27110 <g_573>
   12fa9:	48 89 85 18 ef ff ff 	mov    %rax,-0x10e8(%rbp)
   12fb0:	48 8d 05 59 41 01 00 	lea    0x14159(%rip),%rax        # 27110 <g_573>
   12fb7:	48 89 85 20 ef ff ff 	mov    %rax,-0x10e0(%rbp)
   12fbe:	48 8d 05 4b 41 01 00 	lea    0x1414b(%rip),%rax        # 27110 <g_573>
   12fc5:	48 89 85 28 ef ff ff 	mov    %rax,-0x10d8(%rbp)
   12fcc:	48 8d 05 3d 41 01 00 	lea    0x1413d(%rip),%rax        # 27110 <g_573>
   12fd3:	48 89 85 30 ef ff ff 	mov    %rax,-0x10d0(%rbp)
   12fda:	48 8d 05 2f 41 01 00 	lea    0x1412f(%rip),%rax        # 27110 <g_573>
   12fe1:	48 89 85 38 ef ff ff 	mov    %rax,-0x10c8(%rbp)
   12fe8:	48 8d 05 21 41 01 00 	lea    0x14121(%rip),%rax        # 27110 <g_573>
   12fef:	48 89 85 40 ef ff ff 	mov    %rax,-0x10c0(%rbp)
   12ff6:	48 8d 05 13 41 01 00 	lea    0x14113(%rip),%rax        # 27110 <g_573>
   12ffd:	48 89 85 48 ef ff ff 	mov    %rax,-0x10b8(%rbp)
   13004:	48 8d 05 05 41 01 00 	lea    0x14105(%rip),%rax        # 27110 <g_573>
   1300b:	48 89 85 50 ef ff ff 	mov    %rax,-0x10b0(%rbp)
   13012:	48 8d 05 f7 40 01 00 	lea    0x140f7(%rip),%rax        # 27110 <g_573>
   13019:	48 89 85 58 ef ff ff 	mov    %rax,-0x10a8(%rbp)
   13020:	48 8d 05 e9 40 01 00 	lea    0x140e9(%rip),%rax        # 27110 <g_573>
   13027:	48 89 85 60 ef ff ff 	mov    %rax,-0x10a0(%rbp)
   1302e:	48 8d 05 db 40 01 00 	lea    0x140db(%rip),%rax        # 27110 <g_573>
   13035:	48 89 85 68 ef ff ff 	mov    %rax,-0x1098(%rbp)
   1303c:	48 8d 05 cd 40 01 00 	lea    0x140cd(%rip),%rax        # 27110 <g_573>
   13043:	48 89 85 70 ef ff ff 	mov    %rax,-0x1090(%rbp)
   1304a:	48 8d 05 bf 40 01 00 	lea    0x140bf(%rip),%rax        # 27110 <g_573>
   13051:	48 89 85 78 ef ff ff 	mov    %rax,-0x1088(%rbp)
   13058:	48 8d 05 b1 40 01 00 	lea    0x140b1(%rip),%rax        # 27110 <g_573>
   1305f:	48 89 85 80 ef ff ff 	mov    %rax,-0x1080(%rbp)
   13066:	48 8d 05 a3 40 01 00 	lea    0x140a3(%rip),%rax        # 27110 <g_573>
   1306d:	48 89 85 88 ef ff ff 	mov    %rax,-0x1078(%rbp)
   13074:	48 8d 05 95 40 01 00 	lea    0x14095(%rip),%rax        # 27110 <g_573>
   1307b:	48 89 85 90 ef ff ff 	mov    %rax,-0x1070(%rbp)
   13082:	48 8d 05 87 40 01 00 	lea    0x14087(%rip),%rax        # 27110 <g_573>
   13089:	48 89 85 98 ef ff ff 	mov    %rax,-0x1068(%rbp)
   13090:	48 8d 05 79 40 01 00 	lea    0x14079(%rip),%rax        # 27110 <g_573>
   13097:	48 89 85 a0 ef ff ff 	mov    %rax,-0x1060(%rbp)
   1309e:	48 8d 05 6b 40 01 00 	lea    0x1406b(%rip),%rax        # 27110 <g_573>
   130a5:	48 89 85 a8 ef ff ff 	mov    %rax,-0x1058(%rbp)
   130ac:	c7 85 28 e9 ff ff 07 	movl   $0x7,-0x16d8(%rbp)
   130b3:	00 00 00 
   130b6:	c6 85 88 e8 ff ff 08 	movb   $0x8,-0x1778(%rbp)
   130bd:	c7 85 2c e9 ff ff 85 	movl   $0xdfad2485,-0x16d4(%rbp)
   130c4:	24 ad df 
   130c7:	48 8d 85 9c e8 ff ff 	lea    -0x1764(%rbp),%rax
   130ce:	48 89 85 18 eb ff ff 	mov    %rax,-0x14e8(%rbp)
   130d5:	48 8d 85 00 f0 ff ff 	lea    -0x1000(%rbp),%rax
   130dc:	48 8d 15 fd bd 00 00 	lea    0xbdfd(%rip),%rdx        # 1eee0 <g_5653+0x1e3f>
   130e3:	b9 23 00 00 00       	mov    $0x23,%ecx
   130e8:	48 89 c7             	mov    %rax,%rdi
   130eb:	48 89 d6             	mov    %rdx,%rsi
   130ee:	f3 48 a5             	rep movsq %ds:(%rsi),%es:(%rdi)
   130f1:	c7 85 30 e9 ff ff c9 	movl   $0x44111fc9,-0x16d0(%rbp)
   130f8:	1f 11 44 
   130fb:	c7 85 34 e9 ff ff 01 	movl   $0x1,-0x16cc(%rbp)
   13102:	00 00 00 
   13105:	48 8d 05 ec 40 01 00 	lea    0x140ec(%rip),%rax        # 271f8 <g_710>
   1310c:	48 89 85 20 eb ff ff 	mov    %rax,-0x14e0(%rbp)
   13113:	48 8d 05 6e 17 01 00 	lea    0x1176e(%rip),%rax        # 24888 <g_505>
   1311a:	48 89 85 28 eb ff ff 	mov    %rax,-0x14d8(%rbp)
   13121:	66 c7 05 4a 17 01 00 	movw   $0x0,0x1174a(%rip)        # 24874 <g_368>
   13128:	00 00 
   1312a:	e9 b8 02 00 00       	jmpq   133e7 <func_30+0xd5c>
   1312f:	48 8d 05 d2 3f 01 00 	lea    0x13fd2(%rip),%rax        # 27108 <g_570>
   13136:	48 89 85 30 eb ff ff 	mov    %rax,-0x14d0(%rbp)
   1313d:	c7 85 38 e9 ff ff 8a 	movl   $0xf74e738a,-0x16c8(%rbp)
   13144:	73 4e f7 
   13147:	48 8d 05 aa 3f 01 00 	lea    0x13faa(%rip),%rax        # 270f8 <g_501>
   1314e:	48 89 85 d0 e9 ff ff 	mov    %rax,-0x1630(%rbp)
   13155:	48 8d 85 d0 e9 ff ff 	lea    -0x1630(%rbp),%rax
   1315c:	48 89 85 38 eb ff ff 	mov    %rax,-0x14c8(%rbp)
   13163:	c7 85 3c e9 ff ff b3 	movl   $0xc4f579b3,-0x16c4(%rbp)
   1316a:	79 f5 c4 
   1316d:	c7 85 40 e9 ff ff f9 	movl   $0xfffffff9,-0x16c0(%rbp)
   13174:	ff ff ff 
   13177:	48 b8 87 87 87 87 87 	movabs $0x8787878787878787,%rax
   1317e:	87 87 87 
   13181:	48 89 45 bf          	mov    %rax,-0x41(%rbp)
   13185:	c6 45 c7 87          	movb   $0x87,-0x39(%rbp)
   13189:	c7 85 44 e9 ff ff f8 	movl   $0xfffffff8,-0x16bc(%rbp)
   13190:	ff ff ff 
   13193:	66 c7 85 96 e8 ff ff 	movw   $0x0,-0x176a(%rbp)
   1319a:	00 00 
   1319c:	c7 85 48 e9 ff ff 97 	movl   $0x9cf00a97,-0x16b8(%rbp)
   131a3:	0a f0 9c 
   131a6:	c7 85 4c e9 ff ff ff 	movl   $0xffffffff,-0x16b4(%rbp)
   131ad:	ff ff ff 
   131b0:	c7 85 50 e9 ff ff 05 	movl   $0x5,-0x16b0(%rbp)
   131b7:	00 00 00 
   131ba:	c7 85 54 e9 ff ff 00 	movl   $0x0,-0x16ac(%rbp)
   131c1:	00 00 00 
   131c4:	c7 85 58 e9 ff ff 04 	movl   $0xd64b6a04,-0x16a8(%rbp)
   131cb:	6a 4b d6 
   131ce:	48 8d 85 30 f8 ff ff 	lea    -0x7d0(%rbp),%rax
   131d5:	48 8d 15 24 be 00 00 	lea    0xbe24(%rip),%rdx        # 1f000 <g_5653+0x1f5f>
   131dc:	b9 23 00 00 00       	mov    $0x23,%ecx
   131e1:	48 89 c7             	mov    %rax,%rdi
   131e4:	48 89 d6             	mov    %rdx,%rsi
   131e7:	f3 48 a5             	rep movsq %ds:(%rsi),%es:(%rdi)
   131ea:	48 8d 05 97 16 01 00 	lea    0x11697(%rip),%rax        # 24888 <g_505>
   131f1:	48 89 85 40 eb ff ff 	mov    %rax,-0x14c0(%rbp)
   131f8:	c7 85 cc e8 ff ff 00 	movl   $0x0,-0x1734(%rbp)
   131ff:	00 00 00 
   13202:	eb 1b                	jmp    1321f <func_30+0xb94>
   13204:	8b 85 cc e8 ff ff    	mov    -0x1734(%rbp),%eax
   1320a:	48 98                	cltq   
   1320c:	48 c7 84 c5 b8 eb ff 	movq   $0x0,-0x1448(%rbp,%rax,8)
   13213:	ff 00 00 00 00 
   13218:	83 85 cc e8 ff ff 01 	addl   $0x1,-0x1734(%rbp)
   1321f:	83 bd cc e8 ff ff 00 	cmpl   $0x0,-0x1734(%rbp)
   13226:	7e dc                	jle    13204 <func_30+0xb79>
   13228:	8b 15 72 16 01 00    	mov    0x11672(%rip),%edx        # 248a0 <g_1259>
   1322e:	0f b7 05 3f 16 01 00 	movzwl 0x1163f(%rip),%eax        # 24874 <g_368>
   13235:	0f b7 c0             	movzwl %ax,%eax
   13238:	83 c0 01             	add    $0x1,%eax
   1323b:	48 98                	cltq   
   1323d:	48 63 d2             	movslq %edx,%rdx
   13240:	48 c1 e2 02          	shl    $0x2,%rdx
   13244:	48 01 c2             	add    %rax,%rdx
   13247:	48 8d 05 4e 16 01 00 	lea    0x1164e(%rip),%rax        # 2489c <g_1028>
   1324e:	48 01 d0             	add    %rdx,%rax
   13251:	0f b6 00             	movzbl (%rax),%eax
   13254:	0f b6 d8             	movzbl %al,%ebx
   13257:	48 8b 85 30 eb ff ff 	mov    -0x14d0(%rbp),%rax
   1325e:	48 c7 00 00 00 00 00 	movq   $0x0,(%rax)
   13265:	48 8b 85 10 ee ff ff 	mov    -0x11f0(%rbp),%rax
   1326c:	48 85 c0             	test   %rax,%rax
   1326f:	0f 95 c0             	setne  %al
   13272:	0f b6 c0             	movzbl %al,%eax
   13275:	89 85 38 e9 ff ff    	mov    %eax,-0x16c8(%rbp)
   1327b:	8b 85 38 e9 ff ff    	mov    -0x16c8(%rbp),%eax
   13281:	0f b7 c0             	movzwl %ax,%eax
   13284:	be 01 00 00 00       	mov    $0x1,%esi
   13289:	89 c7                	mov    %eax,%edi
   1328b:	e8 cc 5a ff ff       	callq  8d5c <safe_mod_func_uint16_t_u_u>
   13290:	98                   	cwtl   
   13291:	be 04 00 00 00       	mov    $0x4,%esi
   13296:	89 c7                	mov    %eax,%edi
   13298:	e8 44 52 ff ff       	callq  84e1 <safe_lshift_func_int16_t_s_u>
   1329d:	98                   	cwtl   
   1329e:	39 c3                	cmp    %eax,%ebx
   132a0:	0f 94 c0             	sete   %al
   132a3:	0f b6 d0             	movzbl %al,%edx
   132a6:	8b 0d f4 15 01 00    	mov    0x115f4(%rip),%ecx        # 248a0 <g_1259>
   132ac:	0f b7 05 c1 15 01 00 	movzwl 0x115c1(%rip),%eax        # 24874 <g_368>
   132b3:	0f b7 c0             	movzwl %ax,%eax
   132b6:	83 c0 01             	add    $0x1,%eax
   132b9:	48 98                	cltq   
   132bb:	48 63 c9             	movslq %ecx,%rcx
   132be:	48 c1 e1 02          	shl    $0x2,%rcx
   132c2:	48 01 c1             	add    %rax,%rcx
   132c5:	48 8d 05 d0 15 01 00 	lea    0x115d0(%rip),%rax        # 2489c <g_1028>
   132cc:	48 01 c8             	add    %rcx,%rax
   132cf:	0f b6 00             	movzbl (%rax),%eax
   132d2:	0f b6 c0             	movzbl %al,%eax
   132d5:	48 89 d6             	mov    %rdx,%rsi
   132d8:	48 89 c7             	mov    %rax,%rdi
   132db:	e8 c8 55 ff ff       	callq  88a8 <safe_sub_func_int64_t_s_s>
   132e0:	48 85 c0             	test   %rax,%rax
   132e3:	0f 84 a6 00 00 00    	je     1338f <func_30+0xd04>
   132e9:	48 8b 05 10 3f 01 00 	mov    0x13f10(%rip),%rax        # 27200 <g_1023>
   132f0:	0f b6 00             	movzbl (%rax),%eax
   132f3:	0f b6 d8             	movzbl %al,%ebx
   132f6:	48 8b 05 03 3f 01 00 	mov    0x13f03(%rip),%rax        # 27200 <g_1023>
   132fd:	0f b6 00             	movzbl (%rax),%eax
   13300:	0f be d0             	movsbl %al,%edx
   13303:	48 8b 05 ce 3d 01 00 	mov    0x13dce(%rip),%rax        # 270d8 <g_369>
   1330a:	8b 00                	mov    (%rax),%eax
   1330c:	39 85 24 e9 ff ff    	cmp    %eax,-0x16dc(%rbp)
   13312:	0f 9c c0             	setl   %al
   13315:	0f b6 c0             	movzbl %al,%eax
   13318:	89 d6                	mov    %edx,%esi
   1331a:	89 c7                	mov    %eax,%edi
   1331c:	e8 f1 4e ff ff       	callq  8212 <safe_mul_func_int8_t_s_s>
   13321:	0f be c0             	movsbl %al,%eax
   13324:	39 85 24 e9 ff ff    	cmp    %eax,-0x16dc(%rbp)
   1332a:	0f 9c c0             	setl   %al
   1332d:	0f b6 c0             	movzbl %al,%eax
   13330:	31 85 38 e9 ff ff    	xor    %eax,-0x16c8(%rbp)
   13336:	8b 85 38 e9 ff ff    	mov    -0x16c8(%rbp),%eax
   1333c:	0f be c0             	movsbl %al,%eax
   1333f:	be 01 00 00 00       	mov    $0x1,%esi
   13344:	89 c7                	mov    %eax,%edi
   13346:	e8 56 4f ff ff       	callq  82a1 <safe_lshift_func_int8_t_s_s>
   1334b:	48 0f be c0          	movsbq %al,%rax
   1334f:	48 be 04 2c 30 81 14 	movabs $0x3b5bbd1481302c04,%rsi
   13356:	bd 5b 3b 
   13359:	48 89 c7             	mov    %rax,%rdi
   1335c:	e8 96 56 ff ff       	callq  89f7 <safe_div_func_int64_t_s_s>
   13361:	89 de                	mov    %ebx,%esi
   13363:	bf ff 00 00 00       	mov    $0xff,%edi
   13368:	e8 26 58 ff ff       	callq  8b93 <safe_mul_func_uint8_t_u_u>
   1336d:	0f b6 05 b8 0c 01 00 	movzbl 0x10cb8(%rip),%eax        # 2402c <g_67>
   13374:	0f be c0             	movsbl %al,%eax
   13377:	0b 85 24 e9 ff ff    	or     -0x16dc(%rbp),%eax
   1337d:	39 85 24 e9 ff ff    	cmp    %eax,-0x16dc(%rbp)
   13383:	0f 9d c0             	setge  %al
   13386:	0f b6 c0             	movzbl %al,%eax
   13389:	39 85 24 e9 ff ff    	cmp    %eax,-0x16dc(%rbp)
   1338f:	48 8b 85 d0 ea ff ff 	mov    -0x1530(%rbp),%rax
   13396:	8b 00                	mov    (%rax),%eax
   13398:	33 85 24 e9 ff ff    	xor    -0x16dc(%rbp),%eax
   1339e:	3d b4 00 00 00       	cmp    $0xb4,%eax
   133a3:	0f 9f c0             	setg   %al
   133a6:	0f b6 d0             	movzbl %al,%edx
   133a9:	48 8b 85 d8 ea ff ff 	mov    -0x1528(%rbp),%rax
   133b0:	89 10                	mov    %edx,(%rax)
   133b2:	c7 05 b4 14 01 00 00 	movl   $0x0,0x114b4(%rip)        # 24870 <g_355>
   133b9:	00 00 00 
   133bc:	90                   	nop
   133bd:	8b 05 ad 14 01 00    	mov    0x114ad(%rip),%eax        # 24870 <g_355>
   133c3:	85 c0                	test   %eax,%eax
   133c5:	7f 0f                	jg     133d6 <func_30+0xd4b>
   133c7:	48 8b 05 22 3e 01 00 	mov    0x13e22(%rip),%rax        # 271f0 <g_711>
   133ce:	0f b7 00             	movzwl (%rax),%eax
   133d1:	e9 87 2d 00 00       	jmpq   1615d <func_30+0x3ad2>
   133d6:	0f b7 05 97 14 01 00 	movzwl 0x11497(%rip),%eax        # 24874 <g_368>
   133dd:	83 c0 01             	add    $0x1,%eax
   133e0:	66 89 05 8d 14 01 00 	mov    %ax,0x1148d(%rip)        # 24874 <g_368>
   133e7:	0f b7 05 86 14 01 00 	movzwl 0x11486(%rip),%eax        # 24874 <g_368>
   133ee:	66 85 c0             	test   %ax,%ax
   133f1:	0f 84 38 fd ff ff    	je     1312f <func_30+0xaa4>
   133f7:	e9 1a 02 00 00       	jmpq   13616 <func_30+0xf8b>
   133fc:	c7 85 30 f8 ff ff 4a 	movl   $0xd7d6734a,-0x7d0(%rbp)
   13403:	73 d6 d7 
   13406:	c7 85 34 f8 ff ff 4a 	movl   $0xd7d6734a,-0x7cc(%rbp)
   1340d:	73 d6 d7 
   13410:	c7 85 38 f8 ff ff 4a 	movl   $0xd7d6734a,-0x7c8(%rbp)
   13417:	73 d6 d7 
   1341a:	c7 85 3c f8 ff ff 4a 	movl   $0xd7d6734a,-0x7c4(%rbp)
   13421:	73 d6 d7 
   13424:	c7 85 40 f8 ff ff 4a 	movl   $0xd7d6734a,-0x7c0(%rbp)
   1342b:	73 d6 d7 
   1342e:	c7 85 44 f8 ff ff 4a 	movl   $0xd7d6734a,-0x7bc(%rbp)
   13435:	73 d6 d7 
   13438:	c7 85 48 f8 ff ff 4a 	movl   $0xd7d6734a,-0x7b8(%rbp)
   1343f:	73 d6 d7 
   13442:	48 8d 05 77 47 01 00 	lea    0x14777(%rip),%rax        # 27bc0 <g_183>
   13449:	48 89 85 10 eb ff ff 	mov    %rax,-0x14f0(%rbp)
   13450:	c7 85 20 e9 ff ff 37 	movl   $0xd1639237,-0x16e0(%rbp)
   13457:	92 63 d1 
   1345a:	8b 85 40 f8 ff ff    	mov    -0x7c0(%rbp),%eax
   13460:	48 63 d0             	movslq %eax,%rdx
   13463:	48 8b 85 10 eb ff ff 	mov    -0x14f0(%rbp),%rax
   1346a:	48 89 10             	mov    %rdx,(%rax)
   1346d:	48 8b 85 10 eb ff ff 	mov    -0x14f0(%rbp),%rax
   13474:	48 8b 10             	mov    (%rax),%rdx
   13477:	48 8b 0d 92 3c 01 00 	mov    0x13c92(%rip),%rcx        # 27110 <g_573>
   1347e:	48 8d 05 8b 3c 01 00 	lea    0x13c8b(%rip),%rax        # 27110 <g_573>
   13485:	48 8b 00             	mov    (%rax),%rax
   13488:	48 8b 09             	mov    (%rcx),%rcx
   1348b:	48 89 08             	mov    %rcx,(%rax)
   1348e:	48 8b 00             	mov    (%rax),%rax
   13491:	48 89 d6             	mov    %rdx,%rsi
   13494:	48 89 c7             	mov    %rax,%rdi
   13497:	e8 5b 55 ff ff       	callq  89f7 <safe_div_func_int64_t_s_s>
   1349c:	89 c2                	mov    %eax,%edx
   1349e:	48 8b 85 d0 ea ff ff 	mov    -0x1530(%rbp),%rax
   134a5:	89 10                	mov    %edx,(%rax)
   134a7:	48 8b 05 d2 3d 01 00 	mov    0x13dd2(%rip),%rax        # 27280 <g_1426>
   134ae:	48 8b 00             	mov    (%rax),%rax
   134b1:	0f b7 00             	movzwl (%rax),%eax
   134b4:	0f b7 d8             	movzwl %ax,%ebx
   134b7:	48 8b 05 c2 3d 01 00 	mov    0x13dc2(%rip),%rax        # 27280 <g_1426>
   134be:	48 8b 00             	mov    (%rax),%rax
   134c1:	0f b7 00             	movzwl (%rax),%eax
   134c4:	44 0f b7 e0          	movzwl %ax,%r12d
   134c8:	48 8b 05 b1 38 01 00 	mov    0x138b1(%rip),%rax        # 26d80 <g_8>
   134cf:	44 8b 28             	mov    (%rax),%r13d
   134d2:	48 8b 05 17 3d 01 00 	mov    0x13d17(%rip),%rax        # 271f0 <g_711>
   134d9:	0f b7 00             	movzwl (%rax),%eax
   134dc:	66 85 c0             	test   %ax,%ax
   134df:	75 18                	jne    134f9 <func_30+0xe6e>
   134e1:	8b 85 34 f8 ff ff    	mov    -0x7cc(%rbp),%eax
   134e7:	98                   	cwtl   
   134e8:	be ce 4a 00 00       	mov    $0x4ace,%esi
   134ed:	89 c7                	mov    %eax,%edi
   134ef:	e8 22 4f ff ff       	callq  8416 <safe_mod_func_int16_t_s_s>
   134f4:	66 85 c0             	test   %ax,%ax
   134f7:	74 07                	je     13500 <func_30+0xe75>
   134f9:	ba 01 00 00 00       	mov    $0x1,%edx
   134fe:	eb 05                	jmp    13505 <func_30+0xe7a>
   13500:	ba 00 00 00 00       	mov    $0x0,%edx
   13505:	48 8b 85 d0 ea ff ff 	mov    -0x1530(%rbp),%rax
   1350c:	89 10                	mov    %edx,(%rax)
   1350e:	48 8b 85 d0 ea ff ff 	mov    -0x1530(%rbp),%rax
   13515:	8b 00                	mov    (%rax),%eax
   13517:	83 f8 ff             	cmp    $0xffffffff,%eax
   1351a:	0f 9c c0             	setl   %al
   1351d:	0f b6 c0             	movzbl %al,%eax
   13520:	44 89 ee             	mov    %r13d,%esi
   13523:	89 c7                	mov    %eax,%edi
   13525:	e8 8c 50 ff ff       	callq  85b6 <safe_add_func_int32_t_s_s>
   1352a:	85 c0                	test   %eax,%eax
   1352c:	0f 84 b3 00 00 00    	je     135e5 <func_30+0xf5a>
   13532:	0f b6 05 65 13 01 00 	movzbl 0x11365(%rip),%eax        # 2489e <g_1028+0x2>
   13539:	44 0f b6 e8          	movzbl %al,%r13d
   1353d:	48 8b 05 44 13 01 00 	mov    0x11344(%rip),%rax        # 24888 <g_505>
   13544:	44 0f bf f0          	movswl %ax,%r14d
   13548:	0f b6 85 7e e8 ff ff 	movzbl -0x1782(%rbp),%eax
   1354f:	0f be d0             	movsbl %al,%edx
   13552:	8b 85 40 f8 ff ff    	mov    -0x7c0(%rbp),%eax
   13558:	39 c2                	cmp    %eax,%edx
   1355a:	0f 94 c0             	sete   %al
   1355d:	0f b6 c0             	movzbl %al,%eax
   13560:	be 03 00 00 00       	mov    $0x3,%esi
   13565:	89 c7                	mov    %eax,%edi
   13567:	e8 99 56 ff ff       	callq  8c05 <safe_lshift_func_uint8_t_u_s>
   1356c:	48 8b 05 75 3b 01 00 	mov    0x13b75(%rip),%rax        # 270e8 <g_379>
   13573:	48 8b 00             	mov    (%rax),%rax
   13576:	0f b6 00             	movzbl (%rax),%eax
   13579:	0f b6 d0             	movzbl %al,%edx
   1357c:	8b 85 44 f8 ff ff    	mov    -0x7bc(%rbp),%eax
   13582:	0f b6 c0             	movzbl %al,%eax
   13585:	89 d6                	mov    %edx,%esi
   13587:	89 c7                	mov    %eax,%edi
   13589:	e8 05 56 ff ff       	callq  8b93 <safe_mul_func_uint8_t_u_u>
   1358e:	0f b6 c0             	movzbl %al,%eax
   13591:	89 85 18 e9 ff ff    	mov    %eax,-0x16e8(%rbp)
   13597:	48 8b 05 82 3c 01 00 	mov    0x13c82(%rip),%rax        # 27220 <g_1126>
   1359e:	48 8b 00             	mov    (%rax),%rax
   135a1:	48 8b 00             	mov    (%rax),%rax
   135a4:	0f b6 00             	movzbl (%rax),%eax
   135a7:	84 c0                	test   %al,%al
   135a9:	74 11                	je     135bc <func_30+0xf31>
   135ab:	8b 85 48 f8 ff ff    	mov    -0x7b8(%rbp),%eax
   135b1:	85 c0                	test   %eax,%eax
   135b3:	74 07                	je     135bc <func_30+0xf31>
   135b5:	b8 01 00 00 00       	mov    $0x1,%eax
   135ba:	eb 05                	jmp    135c1 <func_30+0xf36>
   135bc:	b8 00 00 00 00       	mov    $0x0,%eax
   135c1:	98                   	cwtl   
   135c2:	44 89 f6             	mov    %r14d,%esi
   135c5:	89 c7                	mov    %eax,%edi
   135c7:	e8 4a 4e ff ff       	callq  8416 <safe_mod_func_int16_t_s_s>
   135cc:	44 89 ee             	mov    %r13d,%esi
   135cf:	bf 01 00 00 00       	mov    $0x1,%edi
   135d4:	e8 6f 58 ff ff       	callq  8e48 <safe_rshift_func_uint16_t_u_s>
   135d9:	66 85 c0             	test   %ax,%ax
   135dc:	74 07                	je     135e5 <func_30+0xf5a>
   135de:	b8 01 00 00 00       	mov    $0x1,%eax
   135e3:	eb 05                	jmp    135ea <func_30+0xf5f>
   135e5:	b8 00 00 00 00       	mov    $0x0,%eax
   135ea:	0f b7 c0             	movzwl %ax,%eax
   135ed:	44 89 e6             	mov    %r12d,%esi
   135f0:	89 c7                	mov    %eax,%edi
   135f2:	e8 28 57 ff ff       	callq  8d1f <safe_sub_func_uint16_t_u_u>
   135f7:	98                   	cwtl   
   135f8:	89 de                	mov    %ebx,%esi
   135fa:	89 c7                	mov    %eax,%edi
   135fc:	e8 e0 4e ff ff       	callq  84e1 <safe_lshift_func_int16_t_s_u>
   13601:	98                   	cwtl   
   13602:	89 85 40 f8 ff ff    	mov    %eax,-0x7c0(%rbp)
   13608:	80 ad 80 e8 ff ff 01 	subb   $0x1,-0x1780(%rbp)
   1360f:	83 85 20 e9 ff ff 01 	addl   $0x1,-0x16e0(%rbp)
   13616:	48 8b 85 d0 ea ff ff 	mov    -0x1530(%rbp),%rax
   1361d:	8b 10                	mov    (%rax),%edx
   1361f:	48 8b 85 68 e8 ff ff 	mov    -0x1798(%rbp),%rax
   13626:	8b 00                	mov    (%rax),%eax
   13628:	21 c2                	and    %eax,%edx
   1362a:	48 8b 85 d0 ea ff ff 	mov    -0x1530(%rbp),%rax
   13631:	89 10                	mov    %edx,(%rax)
   13633:	48 8b 95 c0 e9 ff ff 	mov    -0x1640(%rbp),%rdx
   1363a:	48 8b 85 08 eb ff ff 	mov    -0x14f8(%rbp),%rax
   13641:	48 89 10             	mov    %rdx,(%rax)
   13644:	48 8b 85 08 eb ff ff 	mov    -0x14f8(%rbp),%rax
   1364b:	48 8b 10             	mov    (%rax),%rdx
   1364e:	48 8b 05 d3 3b 01 00 	mov    0x13bd3(%rip),%rax        # 27228 <g_1125>
   13655:	48 8b 00             	mov    (%rax),%rax
   13658:	48 39 c2             	cmp    %rax,%rdx
   1365b:	0f 94 c0             	sete   %al
   1365e:	0f b6 c0             	movzbl %al,%eax
   13661:	89 c2                	mov    %eax,%edx
   13663:	0f b7 85 8e e8 ff ff 	movzwl -0x1772(%rbp),%eax
   1366a:	31 d0                	xor    %edx,%eax
   1366c:	66 89 85 8e e8 ff ff 	mov    %ax,-0x1772(%rbp)
   13673:	c6 05 b2 09 01 00 00 	movb   $0x0,0x109b2(%rip)        # 2402c <g_67>
   1367a:	e9 63 09 00 00       	jmpq   13fe2 <func_30+0x1957>
   1367f:	48 8d 85 30 f8 ff ff 	lea    -0x7d0(%rbp),%rax
   13686:	48 8d 15 33 24 01 00 	lea    0x12433(%rip),%rdx        # 25ac0 <g_5661+0xdec>
   1368d:	b9 f0 00 00 00       	mov    $0xf0,%ecx
   13692:	48 89 c7             	mov    %rax,%rdi
   13695:	48 89 d6             	mov    %rdx,%rsi
   13698:	f3 48 a5             	rep movsq %ds:(%rsi),%es:(%rdi)
   1369b:	c7 85 a0 e8 ff ff 01 	movl   $0x1,-0x1760(%rbp)
   136a2:	00 00 00 
   136a5:	48 c7 85 48 eb ff ff 	movq   $0x0,-0x14b8(%rbp)
   136ac:	00 00 00 00 
   136b0:	48 8d 05 d9 3c 01 00 	lea    0x13cd9(%rip),%rax        # 27390 <g_1455>
   136b7:	48 89 85 50 eb ff ff 	mov    %rax,-0x14b0(%rbp)
   136be:	c7 85 a8 e8 ff ff 57 	movl   $0x43777f57,-0x1758(%rbp)
   136c5:	7f 77 43 
   136c8:	48 8d 05 68 09 01 00 	lea    0x10968(%rip),%rax        # 24037 <g_69+0x7>
   136cf:	48 89 85 58 eb ff ff 	mov    %rax,-0x14a8(%rbp)
   136d6:	c7 85 5c e9 ff ff ff 	movl   $0xffffffff,-0x16a4(%rbp)
   136dd:	ff ff ff 
   136e0:	48 8d 85 a0 e8 ff ff 	lea    -0x1760(%rbp),%rax
   136e7:	48 89 85 60 eb ff ff 	mov    %rax,-0x14a0(%rbp)
   136ee:	c7 85 c4 e8 ff ff 00 	movl   $0x0,-0x173c(%rbp)
   136f5:	00 00 00 
   136f8:	e9 b8 03 00 00       	jmpq   13ab5 <func_30+0x142a>
   136fd:	c7 85 74 e9 ff ff 43 	movl   $0x17ff3543,-0x168c(%rbp)
   13704:	35 ff 17 
   13707:	c7 85 78 e9 ff ff 4d 	movl   $0x66f8b84d,-0x1688(%rbp)
   1370e:	b8 f8 66 
   13711:	48 c7 85 78 eb ff ff 	movq   $0x0,-0x1488(%rbp)
   13718:	00 00 00 00 
   1371c:	48 8d 85 8a e8 ff ff 	lea    -0x1776(%rbp),%rax
   13723:	48 89 85 80 eb ff ff 	mov    %rax,-0x1480(%rbp)
   1372a:	66 c7 85 90 e8 ff ff 	movw   $0x0,-0x1770(%rbp)
   13731:	00 00 
   13733:	e9 52 02 00 00       	jmpq   1398a <func_30+0x12ff>
   13738:	c7 85 7c e9 ff ff ff 	movl   $0xffffffff,-0x1684(%rbp)
   1373f:	ff ff ff 
   13742:	48 c7 85 b0 ee ff ff 	movq   $0x0,-0x1150(%rbp)
   13749:	00 00 00 00 
   1374d:	48 c7 85 b8 ee ff ff 	movq   $0x0,-0x1148(%rbp)
   13754:	00 00 00 00 
   13758:	48 c7 85 c0 ee ff ff 	movq   $0x0,-0x1140(%rbp)
   1375f:	00 00 00 00 
   13763:	c7 85 c8 ee ff ff 00 	movl   $0x0,-0x1138(%rbp)
   1376a:	00 00 00 
   1376d:	48 c7 85 88 eb ff ff 	movq   $0x0,-0x1478(%rbp)
   13774:	00 00 00 00 
   13778:	48 8d 85 00 f0 ff ff 	lea    -0x1000(%rbp),%rax
   1377f:	48 8d 15 9a b9 00 00 	lea    0xb99a(%rip),%rdx        # 1f120 <g_5653+0x207f>
   13786:	b9 28 00 00 00       	mov    $0x28,%ecx
   1378b:	48 89 c7             	mov    %rax,%rdi
   1378e:	48 89 d6             	mov    %rdx,%rsi
   13791:	f3 48 a5             	rep movsq %ds:(%rsi),%es:(%rdi)
   13794:	c7 05 da 10 01 00 00 	movl   $0x0,0x110da(%rip)        # 24878 <g_370>
   1379b:	00 00 00 
   1379e:	e9 c4 01 00 00       	jmpq   13967 <func_30+0x12dc>
   137a3:	48 b8 e6 de ec 3d 60 	movabs $0xe2b2f6603decdee6,%rax
   137aa:	f6 b2 e2 
   137ad:	48 89 85 90 eb ff ff 	mov    %rax,-0x1470(%rbp)
   137b4:	48 83 ad 90 eb ff ff 	subq   $0x1,-0x1470(%rbp)
   137bb:	01 
   137bc:	0f bf 85 90 e8 ff ff 	movswl -0x1770(%rbp),%eax
   137c3:	8d 70 02             	lea    0x2(%rax),%esi
   137c6:	8b 05 d4 10 01 00    	mov    0x110d4(%rip),%eax        # 248a0 <g_1259>
   137cc:	0f bf 95 90 e8 ff ff 	movswl -0x1770(%rbp),%edx
   137d3:	48 63 ca             	movslq %edx,%rcx
   137d6:	48 63 d6             	movslq %esi,%rdx
   137d9:	48 98                	cltq   
   137db:	48 01 c2             	add    %rax,%rdx
   137de:	48 89 d0             	mov    %rdx,%rax
   137e1:	48 01 c0             	add    %rax,%rax
   137e4:	48 01 d0             	add    %rdx,%rax
   137e7:	48 01 c0             	add    %rax,%rax
   137ea:	48 01 c8             	add    %rcx,%rax
   137ed:	48 8d 14 00          	lea    (%rax,%rax,1),%rdx
   137f1:	48 8d 05 88 11 01 00 	lea    0x11188(%rip),%rax        # 24980 <g_1383>
   137f8:	0f b7 04 02          	movzwl (%rdx,%rax,1),%eax
   137fc:	66 85 c0             	test   %ax,%ax
   137ff:	0f 85 73 01 00 00    	jne    13978 <func_30+0x12ed>
   13805:	0f b6 05 20 08 01 00 	movzbl 0x10820(%rip),%eax        # 2402c <g_67>
   1380c:	66 98                	cbtw   
   1380e:	0f b7 d8             	movzwl %ax,%ebx
   13811:	8b 85 7c e9 ff ff    	mov    -0x1684(%rbp),%eax
   13817:	44 0f b6 e0          	movzbl %al,%r12d
   1381b:	8b 85 b4 ee ff ff    	mov    -0x114c(%rbp),%eax
   13821:	0f b6 c8             	movzbl %al,%ecx
   13824:	0f bf 85 90 e8 ff ff 	movswl -0x1770(%rbp),%eax
   1382b:	44 8d 48 02          	lea    0x2(%rax),%r9d
   1382f:	44 8b 05 6a 10 01 00 	mov    0x1106a(%rip),%r8d        # 248a0 <g_1259>
   13836:	0f bf 95 90 e8 ff ff 	movswl -0x1770(%rbp),%edx
   1383d:	48 8b 85 f8 ea ff ff 	mov    -0x1508(%rbp),%rax
   13844:	48 8b 00             	mov    (%rax),%rax
   13847:	48 8b 30             	mov    (%rax),%rsi
   1384a:	48 63 fa             	movslq %edx,%rdi
   1384d:	49 63 d1             	movslq %r9d,%rdx
   13850:	49 63 c0             	movslq %r8d,%rax
   13853:	48 01 c2             	add    %rax,%rdx
   13856:	48 89 d0             	mov    %rdx,%rax
   13859:	48 01 c0             	add    %rax,%rax
   1385c:	48 01 d0             	add    %rdx,%rax
   1385f:	48 01 c0             	add    %rax,%rax
   13862:	48 01 f8             	add    %rdi,%rax
   13865:	48 8d 14 00          	lea    (%rax,%rax,1),%rdx
   13869:	48 8d 05 10 11 01 00 	lea    0x11110(%rip),%rax        # 24980 <g_1383>
   13870:	0f b7 04 02          	movzwl (%rdx,%rax,1),%eax
   13874:	66 89 06             	mov    %ax,(%rsi)
   13877:	89 ce                	mov    %ecx,%esi
   13879:	bf 00 00 00 00       	mov    $0x0,%edi
   1387e:	e8 2b 53 ff ff       	callq  8bae <safe_mod_func_uint8_t_u_u>
   13883:	84 c0                	test   %al,%al
   13885:	75 0e                	jne    13895 <func_30+0x120a>
   13887:	48 8b 05 72 39 01 00 	mov    0x13972(%rip),%rax        # 27200 <g_1023>
   1388e:	0f b6 00             	movzbl (%rax),%eax
   13891:	84 c0                	test   %al,%al
   13893:	74 07                	je     1389c <func_30+0x1211>
   13895:	b8 01 00 00 00       	mov    $0x1,%eax
   1389a:	eb 05                	jmp    138a1 <func_30+0x1216>
   1389c:	b8 00 00 00 00       	mov    $0x0,%eax
   138a1:	23 85 74 e9 ff ff    	and    -0x168c(%rbp),%eax
   138a7:	89 c2                	mov    %eax,%edx
   138a9:	8b 85 74 e9 ff ff    	mov    -0x168c(%rbp),%eax
   138af:	0f b6 c0             	movzbl %al,%eax
   138b2:	89 d6                	mov    %edx,%esi
   138b4:	89 c7                	mov    %eax,%edi
   138b6:	e8 91 53 ff ff       	callq  8c4c <safe_lshift_func_uint8_t_u_u>
   138bb:	84 c0                	test   %al,%al
   138bd:	74 15                	je     138d4 <func_30+0x1249>
   138bf:	48 8b 05 62 39 01 00 	mov    0x13962(%rip),%rax        # 27228 <g_1125>
   138c6:	48 8b 00             	mov    (%rax),%rax
   138c9:	48 8b 00             	mov    (%rax),%rax
   138cc:	48 8b 00             	mov    (%rax),%rax
   138cf:	0f b6 00             	movzbl (%rax),%eax
   138d2:	84 c0                	test   %al,%al
   138d4:	44 89 e6             	mov    %r12d,%esi
   138d7:	bf 01 00 00 00       	mov    $0x1,%edi
   138dc:	e8 b2 52 ff ff       	callq  8b93 <safe_mul_func_uint8_t_u_u>
   138e1:	0f b6 c0             	movzbl %al,%eax
   138e4:	66 35 1f 87          	xor    $0x871f,%ax
   138e8:	98                   	cwtl   
   138e9:	be 0f 00 00 00       	mov    $0xf,%esi
   138ee:	89 c7                	mov    %eax,%edi
   138f0:	e8 6e 4c ff ff       	callq  8563 <safe_rshift_func_int16_t_s_u>
   138f5:	89 de                	mov    %ebx,%esi
   138f7:	bf 00 00 00 00       	mov    $0x0,%edi
   138fc:	e8 3c 54 ff ff       	callq  8d3d <safe_mul_func_uint16_t_u_u>
   13901:	8b 85 74 e9 ff ff    	mov    -0x168c(%rbp),%eax
   13907:	0f be d0             	movsbl %al,%edx
   1390a:	8b 85 7c e9 ff ff    	mov    -0x1684(%rbp),%eax
   13910:	0f be c0             	movsbl %al,%eax
   13913:	89 d6                	mov    %edx,%esi
   13915:	89 c7                	mov    %eax,%edi
   13917:	e8 4e 49 ff ff       	callq  826a <safe_div_func_int8_t_s_s>
   1391c:	8b 85 b4 ee ff ff    	mov    -0x114c(%rbp),%eax
   13922:	83 f8 01             	cmp    $0x1,%eax
   13925:	48 8b 85 88 eb ff ff 	mov    -0x1478(%rbp),%rax
   1392c:	48 89 85 78 eb ff ff 	mov    %rax,-0x1488(%rbp)
   13933:	48 8b 85 78 eb ff ff 	mov    -0x1488(%rbp),%rax
   1393a:	48 89 85 70 f9 ff ff 	mov    %rax,-0x690(%rbp)
   13941:	8b 95 b0 f0 ff ff    	mov    -0xf50(%rbp),%edx
   13947:	48 8b 85 68 e8 ff ff 	mov    -0x1798(%rbp),%rax
   1394e:	8b 00                	mov    (%rax),%eax
   13950:	21 d0                	and    %edx,%eax
   13952:	89 85 b0 f0 ff ff    	mov    %eax,-0xf50(%rbp)
   13958:	8b 05 1a 0f 01 00    	mov    0x10f1a(%rip),%eax        # 24878 <g_370>
   1395e:	83 c0 01             	add    $0x1,%eax
   13961:	89 05 11 0f 01 00    	mov    %eax,0x10f11(%rip)        # 24878 <g_370>
   13967:	8b 05 0b 0f 01 00    	mov    0x10f0b(%rip),%eax        # 24878 <g_370>
   1396d:	83 f8 02             	cmp    $0x2,%eax
   13970:	0f 8e 2d fe ff ff    	jle    137a3 <func_30+0x1118>
   13976:	eb 01                	jmp    13979 <func_30+0x12ee>
   13978:	90                   	nop
   13979:	0f b7 85 90 e8 ff ff 	movzwl -0x1770(%rbp),%eax
   13980:	83 c0 01             	add    $0x1,%eax
   13983:	66 89 85 90 e8 ff ff 	mov    %ax,-0x1770(%rbp)
   1398a:	66 83 bd 90 e8 ff ff 	cmpw   $0x0,-0x1770(%rbp)
   13991:	00 
   13992:	0f 8e a0 fd ff ff    	jle    13738 <func_30+0x10ad>
   13998:	48 8b 85 d8 ea ff ff 	mov    -0x1528(%rbp),%rax
   1399f:	8b 00                	mov    (%rax),%eax
   139a1:	4c 63 e0             	movslq %eax,%r12
   139a4:	8b 85 a0 e8 ff ff    	mov    -0x1760(%rbp),%eax
   139aa:	41 89 c5             	mov    %eax,%r13d
   139ad:	8b 05 71 06 01 00    	mov    0x10671(%rip),%eax        # 24024 <g_9>
   139b3:	0f bf d8             	movswl %ax,%ebx
   139b6:	48 8b 85 d8 ea ff ff 	mov    -0x1528(%rbp),%rax
   139bd:	8b 10                	mov    (%rax),%edx
   139bf:	48 83 bd 50 eb ff ff 	cmpq   $0x0,-0x14b0(%rbp)
   139c6:	00 
   139c7:	0f 94 c0             	sete   %al
   139ca:	0f b6 c0             	movzbl %al,%eax
   139cd:	89 85 78 e9 ff ff    	mov    %eax,-0x1688(%rbp)
   139d3:	8b 85 78 e9 ff ff    	mov    -0x1688(%rbp),%eax
   139d9:	0f b7 c0             	movzwl %ax,%eax
   139dc:	89 d6                	mov    %edx,%esi
   139de:	89 c7                	mov    %eax,%edi
   139e0:	e8 63 54 ff ff       	callq  8e48 <safe_rshift_func_uint16_t_u_s>
   139e5:	0f b7 c0             	movzwl %ax,%eax
   139e8:	be 63 fc 79 c9       	mov    $0xc979fc63,%esi
   139ed:	89 c7                	mov    %eax,%edi
   139ef:	e8 dc 54 ff ff       	callq  8ed0 <safe_sub_func_uint32_t_u_u>
   139f4:	48 8b 05 8d 33 01 00 	mov    0x1338d(%rip),%rax        # 26d88 <g_146>
   139fb:	8b 00                	mov    (%rax),%eax
   139fd:	85 c0                	test   %eax,%eax
   139ff:	0f 95 c0             	setne  %al
   13a02:	0f b6 c0             	movzbl %al,%eax
   13a05:	be 00 00 00 00       	mov    $0x0,%esi
   13a0a:	89 c7                	mov    %eax,%edi
   13a0c:	e8 01 48 ff ff       	callq  8212 <safe_mul_func_int8_t_s_s>
   13a11:	0f be d0             	movsbl %al,%edx
   13a14:	48 8b 05 1d 38 01 00 	mov    0x1381d(%rip),%rax        # 27238 <g_1225>
   13a1b:	48 8b 00             	mov    (%rax),%rax
   13a1e:	8b 00                	mov    (%rax),%eax
   13a20:	31 d0                	xor    %edx,%eax
   13a22:	0d 4d c0 00 00       	or     $0xc04d,%eax
   13a27:	89 c2                	mov    %eax,%edx
   13a29:	48 8b 85 68 e8 ff ff 	mov    -0x1798(%rbp),%rax
   13a30:	8b 00                	mov    (%rax),%eax
   13a32:	89 d6                	mov    %edx,%esi
   13a34:	89 c7                	mov    %eax,%edi
   13a36:	e8 ca 4b ff ff       	callq  8605 <safe_sub_func_int32_t_s_s>
   13a3b:	98                   	cwtl   
   13a3c:	89 de                	mov    %ebx,%esi
   13a3e:	89 c7                	mov    %eax,%edi
   13a40:	e8 d1 49 ff ff       	callq  8416 <safe_mod_func_int16_t_s_s>
   13a45:	48 83 bd 48 eb ff ff 	cmpq   $0x0,-0x14b8(%rbp)
   13a4c:	00 
   13a4d:	0f 95 c2             	setne  %dl
   13a50:	48 83 bd 80 eb ff ff 	cmpq   $0x0,-0x1480(%rbp)
   13a57:	00 
   13a58:	0f 94 c0             	sete   %al
   13a5b:	09 d0                	or     %edx,%eax
   13a5d:	0f b6 c0             	movzbl %al,%eax
   13a60:	be 01 00 00 00       	mov    $0x1,%esi
   13a65:	89 c7                	mov    %eax,%edi
   13a67:	e8 64 54 ff ff       	callq  8ed0 <safe_sub_func_uint32_t_u_u>
   13a6c:	8b 95 74 e9 ff ff    	mov    -0x168c(%rbp),%edx
   13a72:	39 d0                	cmp    %edx,%eax
   13a74:	0f 95 c0             	setne  %al
   13a77:	0f b6 c0             	movzbl %al,%eax
   13a7a:	44 89 ee             	mov    %r13d,%esi
   13a7d:	89 c7                	mov    %eax,%edi
   13a7f:	e8 34 54 ff ff       	callq  8eb8 <safe_add_func_uint32_t_u_u>
   13a84:	85 c0                	test   %eax,%eax
   13a86:	8b 85 a0 e8 ff ff    	mov    -0x1760(%rbp),%eax
   13a8c:	48 98                	cltq   
   13a8e:	be 01 00 00 00       	mov    $0x1,%esi
   13a93:	48 89 c7             	mov    %rax,%rdi
   13a96:	e8 14 56 ff ff       	callq  90af <safe_div_func_uint64_t_u_u>
   13a9b:	4c 31 e0             	xor    %r12,%rax
   13a9e:	89 c2                	mov    %eax,%edx
   13aa0:	8b 85 a8 e8 ff ff    	mov    -0x1758(%rbp),%eax
   13aa6:	31 d0                	xor    %edx,%eax
   13aa8:	89 85 a8 e8 ff ff    	mov    %eax,-0x1758(%rbp)
   13aae:	83 85 c4 e8 ff ff 01 	addl   $0x1,-0x173c(%rbp)
   13ab5:	83 bd c4 e8 ff ff 00 	cmpl   $0x0,-0x173c(%rbp)
   13abc:	0f 84 3b fc ff ff    	je     136fd <func_30+0x1072>
   13ac2:	48 8b 85 e8 e9 ff ff 	mov    -0x1618(%rbp),%rax
   13ac9:	48 8b 00             	mov    (%rax),%rax
   13acc:	48 85 c0             	test   %rax,%rax
   13acf:	0f 84 c7 00 00 00    	je     13b9c <func_30+0x1511>
   13ad5:	48 8b 05 ac 32 01 00 	mov    0x132ac(%rip),%rax        # 26d88 <g_146>
   13adc:	8b 10                	mov    (%rax),%edx
   13ade:	8b 85 a8 e8 ff ff    	mov    -0x1758(%rbp),%eax
   13ae4:	39 c2                	cmp    %eax,%edx
   13ae6:	0f 93 c0             	setae  %al
   13ae9:	0f b6 c0             	movzbl %al,%eax
   13aec:	39 85 a8 e8 ff ff    	cmp    %eax,-0x1758(%rbp)
   13af2:	0f 94 c0             	sete   %al
   13af5:	0f b6 d0             	movzbl %al,%edx
   13af8:	48 8b 85 58 eb ff ff 	mov    -0x14a8(%rbp),%rax
   13aff:	0f b6 00             	movzbl (%rax),%eax
   13b02:	89 c1                	mov    %eax,%ecx
   13b04:	48 8b 05 ad 0e 01 00 	mov    0x10ead(%rip),%rax        # 249b8 <g_1645>
   13b0b:	21 c8                	and    %ecx,%eax
   13b0d:	89 c1                	mov    %eax,%ecx
   13b0f:	48 8b 85 58 eb ff ff 	mov    -0x14a8(%rbp),%rax
   13b16:	88 08                	mov    %cl,(%rax)
   13b18:	48 8b 85 58 eb ff ff 	mov    -0x14a8(%rbp),%rax
   13b1f:	0f b6 00             	movzbl (%rax),%eax
   13b22:	0f be c0             	movsbl %al,%eax
   13b25:	09 c2                	or     %eax,%edx
   13b27:	8b 85 a0 e8 ff ff    	mov    -0x1760(%rbp),%eax
   13b2d:	39 c2                	cmp    %eax,%edx
   13b2f:	48 8b 05 c2 35 01 00 	mov    0x135c2(%rip),%rax        # 270f8 <g_501>
   13b36:	48 8b 18             	mov    (%rax),%rbx
   13b39:	44 8b a5 a8 e8 ff ff 	mov    -0x1758(%rbp),%r12d
   13b40:	be 01 00 00 00       	mov    $0x1,%esi
   13b45:	bf fd ff ff ff       	mov    $0xfffffffd,%edi
   13b4a:	e8 e6 47 ff ff       	callq  8335 <safe_rshift_func_int8_t_s_s>
   13b4f:	0f be c0             	movsbl %al,%eax
   13b52:	39 85 a8 e8 ff ff    	cmp    %eax,-0x1758(%rbp)
   13b58:	0f 9e c0             	setle  %al
   13b5b:	0f b6 c0             	movzbl %al,%eax
   13b5e:	44 89 e6             	mov    %r12d,%esi
   13b61:	89 c7                	mov    %eax,%edi
   13b63:	e8 79 49 ff ff       	callq  84e1 <safe_lshift_func_int16_t_s_u>
   13b68:	89 c2                	mov    %eax,%edx
   13b6a:	48 8b 05 af 35 01 00 	mov    0x135af(%rip),%rax        # 27120 <g_676>
   13b71:	48 8b 00             	mov    (%rax),%rax
   13b74:	48 8b 00             	mov    (%rax),%rax
   13b77:	48 8b 00             	mov    (%rax),%rax
   13b7a:	48 0f bf d2          	movswq %dx,%rdx
   13b7e:	48 89 10             	mov    %rdx,(%rax)
   13b81:	48 8b 00             	mov    (%rax),%rax
   13b84:	48 89 de             	mov    %rbx,%rsi
   13b87:	48 89 c7             	mov    %rax,%rdi
   13b8a:	e8 b2 4c ff ff       	callq  8841 <safe_add_func_int64_t_s_s>
   13b8f:	48 89 c2             	mov    %rax,%rdx
   13b92:	48 8b 05 57 36 01 00 	mov    0x13657(%rip),%rax        # 271f0 <g_711>
   13b99:	66 89 10             	mov    %dx,(%rax)
   13b9c:	ba 01 00 00 00       	mov    $0x1,%edx
   13ba1:	8b 85 a0 e8 ff ff    	mov    -0x1760(%rbp),%eax
   13ba7:	39 c2                	cmp    %eax,%edx
   13ba9:	74 5a                	je     13c05 <func_30+0x157a>
   13bab:	c7 85 a8 e8 ff ff 00 	movl   $0x0,-0x1758(%rbp)
   13bb2:	00 00 00 
   13bb5:	eb 40                	jmp    13bf7 <func_30+0x156c>
   13bb7:	48 8d 05 2a 36 01 00 	lea    0x1362a(%rip),%rax        # 271e8 <g_687>
   13bbe:	48 89 85 68 eb ff ff 	mov    %rax,-0x1498(%rbp)
   13bc5:	66 c7 85 8e e8 ff ff 	movw   $0x0,-0x1772(%rbp)
   13bcc:	00 00 
   13bce:	eb 16                	jmp    13be6 <func_30+0x155b>
   13bd0:	48 8b 85 68 eb ff ff 	mov    -0x1498(%rbp),%rax
   13bd7:	48 89 85 f8 e9 ff ff 	mov    %rax,-0x1608(%rbp)
   13bde:	66 83 85 8e e8 ff ff 	addw   $0x1,-0x1772(%rbp)
   13be5:	01 
   13be6:	66 83 bd 8e e8 ff ff 	cmpw   $0x0,-0x1772(%rbp)
   13bed:	00 
   13bee:	74 e0                	je     13bd0 <func_30+0x1545>
   13bf0:	83 ad a8 e8 ff ff 01 	subl   $0x1,-0x1758(%rbp)
   13bf7:	83 bd a8 e8 ff ff 00 	cmpl   $0x0,-0x1758(%rbp)
   13bfe:	79 b7                	jns    13bb7 <func_30+0x152c>
   13c00:	e9 ad 00 00 00       	jmpq   13cb2 <func_30+0x1627>
   13c05:	48 8b 85 d8 ea ff ff 	mov    -0x1528(%rbp),%rax
   13c0c:	8b 00                	mov    (%rax),%eax
   13c0e:	33 85 a8 e8 ff ff    	xor    -0x1758(%rbp),%eax
   13c14:	89 c2                	mov    %eax,%edx
   13c16:	48 8b 85 d8 ea ff ff 	mov    -0x1528(%rbp),%rax
   13c1d:	89 10                	mov    %edx,(%rax)
   13c1f:	48 8b 85 d8 ea ff ff 	mov    -0x1528(%rbp),%rax
   13c26:	8b 10                	mov    (%rax),%edx
   13c28:	48 8b 85 d0 ea ff ff 	mov    -0x1530(%rbp),%rax
   13c2f:	89 10                	mov    %edx,(%rax)
   13c31:	48 8b 85 68 e8 ff ff 	mov    -0x1798(%rbp),%rax
   13c38:	8b 00                	mov    (%rax),%eax
   13c3a:	85 c0                	test   %eax,%eax
   13c3c:	0f 85 b1 03 00 00    	jne    13ff3 <func_30+0x1968>
   13c42:	0f b6 95 81 e8 ff ff 	movzbl -0x177f(%rbp),%edx
   13c49:	8b 85 1c e9 ff ff    	mov    -0x16e4(%rbp),%eax
   13c4f:	48 89 d6             	mov    %rdx,%rsi
   13c52:	48 89 c7             	mov    %rax,%rdi
   13c55:	e8 e7 4b ff ff       	callq  8841 <safe_add_func_int64_t_s_s>
   13c5a:	98                   	cwtl   
   13c5b:	be 05 00 00 00       	mov    $0x5,%esi
   13c60:	89 c7                	mov    %eax,%edi
   13c62:	e8 2b 48 ff ff       	callq  8492 <safe_lshift_func_int16_t_s_s>
   13c67:	48 8b 95 d8 ea ff ff 	mov    -0x1528(%rbp),%rdx
   13c6e:	8b 12                	mov    (%rdx),%edx
   13c70:	98                   	cwtl   
   13c71:	31 c2                	xor    %eax,%edx
   13c73:	48 8b 85 d8 ea ff ff 	mov    -0x1528(%rbp),%rax
   13c7a:	89 10                	mov    %edx,(%rax)
   13c7c:	c7 85 9c e8 ff ff 05 	movl   $0x5,-0x1764(%rbp)
   13c83:	00 00 00 
   13c86:	eb 20                	jmp    13ca8 <func_30+0x161d>
   13c88:	48 8b 05 b1 35 01 00 	mov    0x135b1(%rip),%rax        # 27240 <g_1273>
   13c8f:	48 8b 95 60 e8 ff ff 	mov    -0x17a0(%rbp),%rdx
   13c96:	48 89 10             	mov    %rdx,(%rax)
   13c99:	8b 85 9c e8 ff ff    	mov    -0x1764(%rbp),%eax
   13c9f:	83 e8 01             	sub    $0x1,%eax
   13ca2:	89 85 9c e8 ff ff    	mov    %eax,-0x1764(%rbp)
   13ca8:	8b 85 9c e8 ff ff    	mov    -0x1764(%rbp),%eax
   13cae:	85 c0                	test   %eax,%eax
   13cb0:	79 d6                	jns    13c88 <func_30+0x15fd>
   13cb2:	c7 05 dc 0b 01 00 00 	movl   $0x0,0x10bdc(%rip)        # 24898 <g_989>
   13cb9:	00 00 00 
   13cbc:	e9 03 03 00 00       	jmpq   13fc4 <func_30+0x1939>
   13cc1:	48 8d 85 30 f8 ff ff 	lea    -0x7d0(%rbp),%rax
   13cc8:	48 05 20 05 00 00    	add    $0x520,%rax
   13cce:	48 89 85 c8 e9 ff ff 	mov    %rax,-0x1638(%rbp)
   13cd5:	48 8d 85 c8 e9 ff ff 	lea    -0x1638(%rbp),%rax
   13cdc:	48 89 85 d0 e9 ff ff 	mov    %rax,-0x1630(%rbp)
   13ce3:	48 8d 85 d0 e9 ff ff 	lea    -0x1630(%rbp),%rax
   13cea:	48 89 85 70 eb ff ff 	mov    %rax,-0x1490(%rbp)
   13cf1:	c7 85 60 e9 ff ff ff 	movl   $0xffffffff,-0x16a0(%rbp)
   13cf8:	ff ff ff 
   13cfb:	48 8b 85 68 e8 ff ff 	mov    -0x1798(%rbp),%rax
   13d02:	8b 00                	mov    (%rax),%eax
   13d04:	85 c0                	test   %eax,%eax
   13d06:	0f 84 94 02 00 00    	je     13fa0 <func_30+0x1915>
   13d0c:	c7 85 64 e9 ff ff fb 	movl   $0xfffffffb,-0x169c(%rbp)
   13d13:	ff ff ff 
   13d16:	66 c7 05 55 0b 01 00 	movw   $0x0,0x10b55(%rip)        # 24874 <g_368>
   13d1d:	00 00 
   13d1f:	e9 c0 00 00 00       	jmpq   13de4 <func_30+0x1759>
   13d24:	c7 85 6c e9 ff ff 06 	movl   $0x6,-0x1694(%rbp)
   13d2b:	00 00 00 
   13d2e:	c7 85 70 e9 ff ff 17 	movl   $0xeba3f317,-0x1690(%rbp)
   13d35:	f3 a3 eb 
   13d38:	83 ad 6c e9 ff ff 01 	subl   $0x1,-0x1694(%rbp)
   13d3f:	8b 85 64 e9 ff ff    	mov    -0x169c(%rbp),%eax
   13d45:	98                   	cwtl   
   13d46:	be 0b 00 00 00       	mov    $0xb,%esi
   13d4b:	89 c7                	mov    %eax,%edi
   13d4d:	e8 8f 47 ff ff       	callq  84e1 <safe_lshift_func_int16_t_s_u>
   13d52:	66 85 c0             	test   %ax,%ax
   13d55:	74 11                	je     13d68 <func_30+0x16dd>
   13d57:	83 bd 5c e9 ff ff 00 	cmpl   $0x0,-0x16a4(%rbp)
   13d5e:	74 08                	je     13d68 <func_30+0x16dd>
   13d60:	83 bd 70 e9 ff ff 00 	cmpl   $0x0,-0x1690(%rbp)
   13d67:	90                   	nop
   13d68:	48 8b 85 68 e8 ff ff 	mov    -0x1798(%rbp),%rax
   13d6f:	8b 10                	mov    (%rax),%edx
   13d71:	0f b7 05 fc 0a 01 00 	movzwl 0x10afc(%rip),%eax        # 24874 <g_368>
   13d78:	0f b7 c8             	movzwl %ax,%ecx
   13d7b:	0f b6 05 aa 02 01 00 	movzbl 0x102aa(%rip),%eax        # 2402c <g_67>
   13d82:	0f be c0             	movsbl %al,%eax
   13d85:	83 c0 02             	add    $0x2,%eax
   13d88:	48 98                	cltq   
   13d8a:	48 63 c9             	movslq %ecx,%rcx
   13d8d:	48 c1 e1 02          	shl    $0x2,%rcx
   13d91:	48 01 c1             	add    %rax,%rcx
   13d94:	48 8d 05 01 0b 01 00 	lea    0x10b01(%rip),%rax        # 2489c <g_1028>
   13d9b:	48 01 c8             	add    %rcx,%rax
   13d9e:	0f b6 00             	movzbl (%rax),%eax
   13da1:	0f b6 c0             	movzbl %al,%eax
   13da4:	89 d6                	mov    %edx,%esi
   13da6:	89 c7                	mov    %eax,%edi
   13da8:	e8 09 48 ff ff       	callq  85b6 <safe_add_func_int32_t_s_s>
   13dad:	0f b6 c0             	movzbl %al,%eax
   13db0:	be ff 00 00 00       	mov    $0xff,%esi
   13db5:	89 c7                	mov    %eax,%edi
   13db7:	e8 9e 4d ff ff       	callq  8b5a <safe_add_func_uint8_t_u_u>
   13dbc:	48 8b 95 d8 ea ff ff 	mov    -0x1528(%rbp),%rdx
   13dc3:	8b 12                	mov    (%rdx),%edx
   13dc5:	0f b6 c0             	movzbl %al,%eax
   13dc8:	21 c2                	and    %eax,%edx
   13dca:	48 8b 85 d8 ea ff ff 	mov    -0x1528(%rbp),%rax
   13dd1:	89 10                	mov    %edx,(%rax)
   13dd3:	0f b7 05 9a 0a 01 00 	movzwl 0x10a9a(%rip),%eax        # 24874 <g_368>
   13dda:	83 c0 01             	add    $0x1,%eax
   13ddd:	66 89 05 90 0a 01 00 	mov    %ax,0x10a90(%rip)        # 24874 <g_368>
   13de4:	0f b7 05 89 0a 01 00 	movzwl 0x10a89(%rip),%eax        # 24874 <g_368>
   13deb:	66 85 c0             	test   %ax,%ax
   13dee:	0f 84 30 ff ff ff    	je     13d24 <func_30+0x1699>
   13df4:	c6 05 b5 0b 01 00 00 	movb   $0x0,0x10bb5(%rip)        # 249b0 <g_1431>
   13dfb:	e9 8f 01 00 00       	jmpq   13f8f <func_30+0x1904>
   13e00:	c6 85 89 e8 ff ff 01 	movb   $0x1,-0x1777(%rbp)
   13e07:	c7 85 68 e9 ff ff fe 	movl   $0xfffffffe,-0x1698(%rbp)
   13e0e:	ff ff ff 
   13e11:	48 8b 85 60 e8 ff ff 	mov    -0x17a0(%rbp),%rax
   13e18:	48 89 85 60 eb ff ff 	mov    %rax,-0x14a0(%rbp)
   13e1f:	48 8b 85 68 e8 ff ff 	mov    -0x1798(%rbp),%rax
   13e26:	8b 00                	mov    (%rax),%eax
   13e28:	85 c0                	test   %eax,%eax
   13e2a:	0f 85 4e 01 00 00    	jne    13f7e <func_30+0x18f3>
   13e30:	0f b6 05 89 0b 01 00 	movzbl 0x10b89(%rip),%eax        # 249c0 <g_1691>
   13e37:	48 0f be d8          	movsbq %al,%rbx
   13e3b:	48 8b 05 be 32 01 00 	mov    0x132be(%rip),%rax        # 27100 <g_500>
   13e42:	48 8b 00             	mov    (%rax),%rax
   13e45:	48 8b 00             	mov    (%rax),%rax
   13e48:	48 89 c2             	mov    %rax,%rdx
   13e4b:	8b 85 64 e9 ff ff    	mov    -0x169c(%rbp),%eax
   13e51:	48 89 d6             	mov    %rdx,%rsi
   13e54:	48 89 c7             	mov    %rax,%rdi
   13e57:	e8 24 52 ff ff       	callq  9080 <safe_mod_func_uint64_t_u_u>
   13e5c:	48 39 c3             	cmp    %rax,%rbx
   13e5f:	0f 95 c0             	setne  %al
   13e62:	44 0f b6 e0          	movzbl %al,%r12d
   13e66:	48 0f be 9d 89 e8 ff 	movsbq -0x1777(%rbp),%rbx
   13e6d:	ff 
   13e6e:	48 8b 85 d8 ea ff ff 	mov    -0x1528(%rbp),%rax
   13e75:	8b 00                	mov    (%rax),%eax
   13e77:	0f be c0             	movsbl %al,%eax
   13e7a:	be 03 00 00 00       	mov    $0x3,%esi
   13e7f:	89 c7                	mov    %eax,%edi
   13e81:	e8 68 44 ff ff       	callq  82ee <safe_lshift_func_int8_t_s_u>
   13e86:	8b 85 60 e9 ff ff    	mov    -0x16a0(%rbp),%eax
   13e8c:	83 f8 09             	cmp    $0x9,%eax
   13e8f:	0f 97 c0             	seta   %al
   13e92:	0f b6 d0             	movzbl %al,%edx
   13e95:	48 8b 05 e4 2e 01 00 	mov    0x12ee4(%rip),%rax        # 26d80 <g_8>
   13e9c:	8b 00                	mov    (%rax),%eax
   13e9e:	39 c2                	cmp    %eax,%edx
   13ea0:	0f 94 c0             	sete   %al
   13ea3:	0f b6 c0             	movzbl %al,%eax
   13ea6:	48 89 de             	mov    %rbx,%rsi
   13ea9:	48 89 c7             	mov    %rax,%rdi
   13eac:	e8 03 4b ff ff       	callq  89b4 <safe_mod_func_int64_t_s_s>
   13eb1:	49 39 c4             	cmp    %rax,%r12
   13eb4:	0f 9c c0             	setl   %al
   13eb7:	0f b6 d0             	movzbl %al,%edx
   13eba:	48 8b 05 cf 2e 01 00 	mov    0x12ecf(%rip),%rax        # 26d90 <g_145>
   13ec1:	48 8b 00             	mov    (%rax),%rax
   13ec4:	8b 00                	mov    (%rax),%eax
   13ec6:	39 c2                	cmp    %eax,%edx
   13ec8:	0f 92 c0             	setb   %al
   13ecb:	0f b6 c0             	movzbl %al,%eax
   13ece:	be 2c 89 00 00       	mov    $0x892c,%esi
   13ed3:	89 c7                	mov    %eax,%edi
   13ed5:	e8 25 4e ff ff       	callq  8cff <safe_add_func_uint16_t_u_u>
   13eda:	0f b6 c0             	movzbl %al,%eax
   13edd:	8b 95 64 e9 ff ff    	mov    -0x169c(%rbp),%edx
   13ee3:	89 d6                	mov    %edx,%esi
   13ee5:	89 c7                	mov    %eax,%edi
   13ee7:	e8 d2 4d ff ff       	callq  8cbe <safe_rshift_func_uint8_t_u_u>
   13eec:	0f b6 c8             	movzbl %al,%ecx
   13eef:	48 8b 05 0a 33 01 00 	mov    0x1330a(%rip),%rax        # 27200 <g_1023>
   13ef6:	0f b6 10             	movzbl (%rax),%edx
   13ef9:	8d 72 ff             	lea    -0x1(%rdx),%esi
   13efc:	40 88 30             	mov    %sil,(%rax)
   13eff:	0f b6 c2             	movzbl %dl,%eax
   13f02:	89 ce                	mov    %ecx,%esi
   13f04:	89 c7                	mov    %eax,%edi
   13f06:	e8 6d 4c ff ff       	callq  8b78 <safe_sub_func_uint8_t_u_u>
   13f0b:	0f b6 d8             	movzbl %al,%ebx
   13f0e:	48 0f be 95 89 e8 ff 	movsbq -0x1777(%rbp),%rdx
   13f15:	ff 
   13f16:	48 8b 05 0b 32 01 00 	mov    0x1320b(%rip),%rax        # 27128 <g_689>
   13f1d:	48 8b 00             	mov    (%rax),%rax
   13f20:	48 8b 30             	mov    (%rax),%rsi
   13f23:	48 8b 85 d8 ea ff ff 	mov    -0x1528(%rbp),%rax
   13f2a:	8b 00                	mov    (%rax),%eax
   13f2c:	48 63 c8             	movslq %eax,%rcx
   13f2f:	48 8b 05 f2 31 01 00 	mov    0x131f2(%rip),%rax        # 27128 <g_689>
   13f36:	48 8b 00             	mov    (%rax),%rax
   13f39:	48 31 f1             	xor    %rsi,%rcx
   13f3c:	48 89 08             	mov    %rcx,(%rax)
   13f3f:	48 8b 00             	mov    (%rax),%rax
   13f42:	48 39 c2             	cmp    %rax,%rdx
   13f45:	0f 95 c0             	setne  %al
   13f48:	0f b6 d0             	movzbl %al,%edx
   13f4b:	48 83 bd 70 eb ff ff 	cmpq   $0x0,-0x1490(%rbp)
   13f52:	00 
   13f53:	0f 95 c0             	setne  %al
   13f56:	0f b6 c0             	movzbl %al,%eax
   13f59:	89 d6                	mov    %edx,%esi
   13f5b:	89 c7                	mov    %eax,%edi
   13f5d:	e8 a3 46 ff ff       	callq  8605 <safe_sub_func_int32_t_s_s>
   13f62:	48 98                	cltq   
   13f64:	48 89 de             	mov    %rbx,%rsi
   13f67:	48 89 c7             	mov    %rax,%rdi
   13f6a:	e8 88 4a ff ff       	callq  89f7 <safe_div_func_int64_t_s_s>
   13f6f:	31 85 68 e9 ff ff    	xor    %eax,-0x1698(%rbp)
   13f75:	80 bd 89 e8 ff ff 00 	cmpb   $0x0,-0x1777(%rbp)
   13f7c:	eb 01                	jmp    13f7f <func_30+0x18f4>
   13f7e:	90                   	nop
   13f7f:	0f b6 05 2a 0a 01 00 	movzbl 0x10a2a(%rip),%eax        # 249b0 <g_1431>
   13f86:	83 e8 01             	sub    $0x1,%eax
   13f89:	88 05 21 0a 01 00    	mov    %al,0x10a21(%rip)        # 249b0 <g_1431>
   13f8f:	0f b6 05 1a 0a 01 00 	movzbl 0x10a1a(%rip),%eax        # 249b0 <g_1431>
   13f96:	84 c0                	test   %al,%al
   13f98:	0f 89 62 fe ff ff    	jns    13e00 <func_30+0x1775>
   13f9e:	eb 0a                	jmp    13faa <func_30+0x191f>
   13fa0:	b8 50 3e 42 de       	mov    $0xde423e50,%eax
   13fa5:	e9 b3 21 00 00       	jmpq   1615d <func_30+0x3ad2>
   13faa:	48 8b 85 68 e8 ff ff 	mov    -0x1798(%rbp),%rax
   13fb1:	8b 00                	mov    (%rax),%eax
   13fb3:	85 c0                	test   %eax,%eax
   13fb5:	8b 05 dd 08 01 00    	mov    0x108dd(%rip),%eax        # 24898 <g_989>
   13fbb:	83 e8 01             	sub    $0x1,%eax
   13fbe:	89 05 d4 08 01 00    	mov    %eax,0x108d4(%rip)        # 24898 <g_989>
   13fc4:	8b 05 ce 08 01 00    	mov    0x108ce(%rip),%eax        # 24898 <g_989>
   13fca:	85 c0                	test   %eax,%eax
   13fcc:	0f 89 ef fc ff ff    	jns    13cc1 <func_30+0x1636>
   13fd2:	0f b6 05 53 00 01 00 	movzbl 0x10053(%rip),%eax        # 2402c <g_67>
   13fd9:	83 e8 01             	sub    $0x1,%eax
   13fdc:	88 05 4a 00 01 00    	mov    %al,0x1004a(%rip)        # 2402c <g_67>
   13fe2:	0f b6 05 43 00 01 00 	movzbl 0x10043(%rip),%eax        # 2402c <g_67>
   13fe9:	84 c0                	test   %al,%al
   13feb:	0f 89 8e f6 ff ff    	jns    1367f <func_30+0xff4>
   13ff1:	eb 01                	jmp    13ff4 <func_30+0x1969>
   13ff3:	90                   	nop
   13ff4:	8b 05 a6 08 01 00    	mov    0x108a6(%rip),%eax        # 248a0 <g_1259>
   13ffa:	83 c0 01             	add    $0x1,%eax
   13ffd:	89 05 9d 08 01 00    	mov    %eax,0x1089d(%rip)        # 248a0 <g_1259>
   14003:	8b 05 97 08 01 00    	mov    0x10897(%rip),%eax        # 248a0 <g_1259>
   14009:	85 c0                	test   %eax,%eax
   1400b:	0f 8e 85 e8 ff ff    	jle    12896 <func_30+0x20b>
   14011:	66 c7 05 86 3f 01 00 	movw   $0x0,0x13f86(%rip)        # 27fa0 <g_527>
   14018:	00 00 
   1401a:	e9 28 21 00 00       	jmpq   16147 <func_30+0x3abc>
   1401f:	48 c7 85 a8 e9 ff ff 	movq   $0x0,-0x1658(%rbp)
   14026:	00 00 00 00 
   1402a:	48 8d 85 a8 e9 ff ff 	lea    -0x1658(%rbp),%rax
   14031:	48 89 85 00 ea ff ff 	mov    %rax,-0x1600(%rbp)
   14038:	48 8d 05 e9 30 01 00 	lea    0x130e9(%rip),%rax        # 27128 <g_689>
   1403f:	48 89 85 08 ea ff ff 	mov    %rax,-0x15f8(%rbp)
   14046:	c7 85 dc e8 ff ff 15 	movl   $0x465e6915,-0x1724(%rbp)
   1404d:	69 5e 46 
   14050:	c7 85 c0 eb ff ff 3f 	movl   $0xe5b633f,-0x1440(%rbp)
   14057:	63 5b 0e 
   1405a:	c7 85 c4 eb ff ff 00 	movl   $0x0,-0x143c(%rbp)
   14061:	00 00 00 
   14064:	c7 85 c8 eb ff ff 00 	movl   $0x0,-0x1438(%rbp)
   1406b:	00 00 00 
   1406e:	c7 85 cc eb ff ff 3f 	movl   $0xe5b633f,-0x1434(%rbp)
   14075:	63 5b 0e 
   14078:	c7 85 d0 eb ff ff 00 	movl   $0x0,-0x1430(%rbp)
   1407f:	00 00 00 
   14082:	c7 85 d4 eb ff ff 00 	movl   $0x0,-0x142c(%rbp)
   14089:	00 00 00 
   1408c:	c7 85 d8 eb ff ff 3f 	movl   $0xe5b633f,-0x1428(%rbp)
   14093:	63 5b 0e 
   14096:	c7 85 dc eb ff ff 00 	movl   $0x0,-0x1424(%rbp)
   1409d:	00 00 00 
   140a0:	c7 85 e0 eb ff ff 00 	movl   $0x0,-0x1420(%rbp)
   140a7:	00 00 00 
   140aa:	48 8d 05 d7 2c 01 00 	lea    0x12cd7(%rip),%rax        # 26d88 <g_146>
   140b1:	48 89 85 10 ea ff ff 	mov    %rax,-0x15f0(%rbp)
   140b8:	48 8d 05 49 30 01 00 	lea    0x13049(%rip),%rax        # 27108 <g_570>
   140bf:	48 89 85 18 ea ff ff 	mov    %rax,-0x15e8(%rbp)
   140c6:	48 8d 05 8b 8f 00 00 	lea    0x8f8b(%rip),%rax        # 1d058 <g_901>
   140cd:	48 89 85 20 ea ff ff 	mov    %rax,-0x15e0(%rbp)
   140d4:	48 8d 85 98 e9 ff ff 	lea    -0x1668(%rbp),%rax
   140db:	48 89 85 28 ea ff ff 	mov    %rax,-0x15d8(%rbp)
   140e2:	c7 85 e0 e8 ff ff 00 	movl   $0x0,-0x1720(%rbp)
   140e9:	00 00 00 
   140ec:	48 8d 05 55 08 01 00 	lea    0x10855(%rip),%rax        # 24948 <g_1356+0x88>
   140f3:	48 89 85 30 ea ff ff 	mov    %rax,-0x15d0(%rbp)
   140fa:	48 8d 05 ff 30 01 00 	lea    0x130ff(%rip),%rax        # 27200 <g_1023>
   14101:	48 89 85 38 ea ff ff 	mov    %rax,-0x15c8(%rbp)
   14108:	48 8d 05 8d 8f 00 00 	lea    0x8f8d(%rip),%rax        # 1d09c <g_1982>
   1410f:	48 89 85 40 ea ff ff 	mov    %rax,-0x15c0(%rbp)
   14116:	c7 85 ac e8 ff ff 00 	movl   $0x0,-0x1754(%rbp)
   1411d:	00 00 00 
   14120:	eb 1e                	jmp    14140 <func_30+0x1ab5>
   14122:	8b 85 ac e8 ff ff    	mov    -0x1754(%rbp),%eax
   14128:	48 98                	cltq   
   1412a:	48 8d 15 cf 30 01 00 	lea    0x130cf(%rip),%rdx        # 27200 <g_1023>
   14131:	48 89 94 c5 a8 eb ff 	mov    %rdx,-0x1458(%rbp,%rax,8)
   14138:	ff 
   14139:	83 85 ac e8 ff ff 01 	addl   $0x1,-0x1754(%rbp)
   14140:	83 bd ac e8 ff ff 00 	cmpl   $0x0,-0x1754(%rbp)
   14147:	7e d9                	jle    14122 <func_30+0x1a97>
   14149:	c7 05 19 07 01 00 00 	movl   $0x0,0x10719(%rip)        # 2486c <g_321>
   14150:	00 00 00 
   14153:	e9 8d 0e 00 00       	jmpq   14fe5 <func_30+0x295a>
   14158:	48 8d 85 30 f8 ff ff 	lea    -0x7d0(%rbp),%rax
   1415f:	48 8d 15 da 20 01 00 	lea    0x120da(%rip),%rdx        # 26240 <g_5661+0x156c>
   14166:	b9 a0 00 00 00       	mov    $0xa0,%ecx
   1416b:	48 89 c7             	mov    %rax,%rdi
   1416e:	48 89 d6             	mov    %rdx,%rsi
   14171:	f3 48 a5             	rep movsq %ds:(%rsi),%es:(%rdi)
   14174:	48 8d 85 30 f8 ff ff 	lea    -0x7d0(%rbp),%rax
   1417b:	48 05 68 02 00 00    	add    $0x268,%rax
   14181:	48 89 85 b0 e9 ff ff 	mov    %rax,-0x1650(%rbp)
   14188:	48 8d 05 99 2f 01 00 	lea    0x12f99(%rip),%rax        # 27128 <g_689>
   1418f:	48 89 85 78 ea ff ff 	mov    %rax,-0x1588(%rbp)
   14196:	c7 85 f8 e8 ff ff 01 	movl   $0x1,-0x1708(%rbp)
   1419d:	00 00 00 
   141a0:	48 c7 85 b8 e9 ff ff 	movq   $0x0,-0x1648(%rbp)
   141a7:	00 00 00 00 
   141ab:	48 8d 85 b8 e9 ff ff 	lea    -0x1648(%rbp),%rax
   141b2:	48 89 85 c0 e9 ff ff 	mov    %rax,-0x1640(%rbp)
   141b9:	48 8d 85 c0 e9 ff ff 	lea    -0x1640(%rbp),%rax
   141c0:	48 89 85 c0 ec ff ff 	mov    %rax,-0x1340(%rbp)
   141c7:	48 8d 85 c0 e9 ff ff 	lea    -0x1640(%rbp),%rax
   141ce:	48 89 85 c8 ec ff ff 	mov    %rax,-0x1338(%rbp)
   141d5:	48 8d 85 c0 e9 ff ff 	lea    -0x1640(%rbp),%rax
   141dc:	48 89 85 d0 ec ff ff 	mov    %rax,-0x1330(%rbp)
   141e3:	48 8d 85 c0 e9 ff ff 	lea    -0x1640(%rbp),%rax
   141ea:	48 89 85 d8 ec ff ff 	mov    %rax,-0x1328(%rbp)
   141f1:	48 8d 85 c0 e9 ff ff 	lea    -0x1640(%rbp),%rax
   141f8:	48 89 85 e0 ec ff ff 	mov    %rax,-0x1320(%rbp)
   141ff:	48 8d 85 c0 e9 ff ff 	lea    -0x1640(%rbp),%rax
   14206:	48 89 85 e8 ec ff ff 	mov    %rax,-0x1318(%rbp)
   1420d:	48 c7 85 f0 ec ff ff 	movq   $0x0,-0x1310(%rbp)
   14214:	00 00 00 00 
   14218:	48 8d 85 c0 e9 ff ff 	lea    -0x1640(%rbp),%rax
   1421f:	48 89 85 f8 ec ff ff 	mov    %rax,-0x1308(%rbp)
   14226:	48 8d 85 c0 e9 ff ff 	lea    -0x1640(%rbp),%rax
   1422d:	48 89 85 00 ed ff ff 	mov    %rax,-0x1300(%rbp)
   14234:	48 8d 85 c0 e9 ff ff 	lea    -0x1640(%rbp),%rax
   1423b:	48 89 85 08 ed ff ff 	mov    %rax,-0x12f8(%rbp)
   14242:	48 8d 85 c0 e9 ff ff 	lea    -0x1640(%rbp),%rax
   14249:	48 89 85 10 ed ff ff 	mov    %rax,-0x12f0(%rbp)
   14250:	48 8d 85 c0 e9 ff ff 	lea    -0x1640(%rbp),%rax
   14257:	48 89 85 18 ed ff ff 	mov    %rax,-0x12e8(%rbp)
   1425e:	48 8d 85 c0 e9 ff ff 	lea    -0x1640(%rbp),%rax
   14265:	48 89 85 20 ed ff ff 	mov    %rax,-0x12e0(%rbp)
   1426c:	48 8d 85 c0 e9 ff ff 	lea    -0x1640(%rbp),%rax
   14273:	48 89 85 28 ed ff ff 	mov    %rax,-0x12d8(%rbp)
   1427a:	48 8d 85 c0 e9 ff ff 	lea    -0x1640(%rbp),%rax
   14281:	48 89 85 30 ed ff ff 	mov    %rax,-0x12d0(%rbp)
   14288:	48 8d 85 c0 e9 ff ff 	lea    -0x1640(%rbp),%rax
   1428f:	48 89 85 38 ed ff ff 	mov    %rax,-0x12c8(%rbp)
   14296:	48 8d 85 c0 e9 ff ff 	lea    -0x1640(%rbp),%rax
   1429d:	48 89 85 40 ed ff ff 	mov    %rax,-0x12c0(%rbp)
   142a4:	48 8d 85 c0 e9 ff ff 	lea    -0x1640(%rbp),%rax
   142ab:	48 89 85 48 ed ff ff 	mov    %rax,-0x12b8(%rbp)
   142b2:	48 c7 85 50 ed ff ff 	movq   $0x0,-0x12b0(%rbp)
   142b9:	00 00 00 00 
   142bd:	48 8d 85 c0 e9 ff ff 	lea    -0x1640(%rbp),%rax
   142c4:	48 89 85 58 ed ff ff 	mov    %rax,-0x12a8(%rbp)
   142cb:	48 8d 85 c0 e9 ff ff 	lea    -0x1640(%rbp),%rax
   142d2:	48 89 85 60 ed ff ff 	mov    %rax,-0x12a0(%rbp)
   142d9:	48 8d 85 c0 e9 ff ff 	lea    -0x1640(%rbp),%rax
   142e0:	48 89 85 68 ed ff ff 	mov    %rax,-0x1298(%rbp)
   142e7:	48 8d 85 c0 e9 ff ff 	lea    -0x1640(%rbp),%rax
   142ee:	48 89 85 70 ed ff ff 	mov    %rax,-0x1290(%rbp)
   142f5:	48 8d 85 c0 e9 ff ff 	lea    -0x1640(%rbp),%rax
   142fc:	48 89 85 78 ed ff ff 	mov    %rax,-0x1288(%rbp)
   14303:	48 8d 85 c0 e9 ff ff 	lea    -0x1640(%rbp),%rax
   1430a:	48 89 85 80 ed ff ff 	mov    %rax,-0x1280(%rbp)
   14311:	48 8d 05 f0 2d 01 00 	lea    0x12df0(%rip),%rax        # 27108 <g_570>
   14318:	48 89 85 80 ea ff ff 	mov    %rax,-0x1580(%rbp)
   1431f:	48 8d 85 70 f1 ff ff 	lea    -0xe90(%rbp),%rax
   14326:	48 8d 15 33 af 00 00 	lea    0xaf33(%rip),%rdx        # 1f260 <g_5653+0x21bf>
   1432d:	b9 3c 00 00 00       	mov    $0x3c,%ecx
   14332:	48 89 c7             	mov    %rax,%rdi
   14335:	48 89 d6             	mov    %rdx,%rsi
   14338:	f3 48 a5             	rep movsq %ds:(%rsi),%es:(%rdi)
   1433b:	c6 85 85 e8 ff ff 09 	movb   $0x9,-0x177b(%rbp)
   14342:	48 8d 85 90 e9 ff ff 	lea    -0x1670(%rbp),%rax
   14349:	48 89 85 88 ea ff ff 	mov    %rax,-0x1578(%rbp)
   14350:	48 8d 05 51 3c 01 00 	lea    0x13c51(%rip),%rax        # 27fa8 <g_1059>
   14357:	48 89 85 c8 e9 ff ff 	mov    %rax,-0x1638(%rbp)
   1435e:	48 8d 85 c8 e9 ff ff 	lea    -0x1638(%rbp),%rax
   14365:	48 89 85 b0 ee ff ff 	mov    %rax,-0x1150(%rbp)
   1436c:	48 8d 85 c8 e9 ff ff 	lea    -0x1638(%rbp),%rax
   14373:	48 89 85 b8 ee ff ff 	mov    %rax,-0x1148(%rbp)
   1437a:	48 8d 85 c8 e9 ff ff 	lea    -0x1638(%rbp),%rax
   14381:	48 89 85 c0 ee ff ff 	mov    %rax,-0x1140(%rbp)
   14388:	48 8d 85 c8 e9 ff ff 	lea    -0x1638(%rbp),%rax
   1438f:	48 89 85 c8 ee ff ff 	mov    %rax,-0x1138(%rbp)
   14396:	48 8d 85 c8 e9 ff ff 	lea    -0x1638(%rbp),%rax
   1439d:	48 89 85 d0 ee ff ff 	mov    %rax,-0x1130(%rbp)
   143a4:	48 8d 85 c8 e9 ff ff 	lea    -0x1638(%rbp),%rax
   143ab:	48 89 85 d8 ee ff ff 	mov    %rax,-0x1128(%rbp)
   143b2:	48 8d 85 c8 e9 ff ff 	lea    -0x1638(%rbp),%rax
   143b9:	48 89 85 e0 ee ff ff 	mov    %rax,-0x1120(%rbp)
   143c0:	48 c7 85 e8 ee ff ff 	movq   $0x0,-0x1118(%rbp)
   143c7:	00 00 00 00 
   143cb:	48 c7 85 f0 ee ff ff 	movq   $0x0,-0x1110(%rbp)
   143d2:	00 00 00 00 
   143d6:	48 8d 85 c8 e9 ff ff 	lea    -0x1638(%rbp),%rax
   143dd:	48 89 85 f8 ee ff ff 	mov    %rax,-0x1108(%rbp)
   143e4:	48 8d 85 c8 e9 ff ff 	lea    -0x1638(%rbp),%rax
   143eb:	48 89 85 00 ef ff ff 	mov    %rax,-0x1100(%rbp)
   143f2:	48 c7 85 08 ef ff ff 	movq   $0x0,-0x10f8(%rbp)
   143f9:	00 00 00 00 
   143fd:	48 c7 85 10 ef ff ff 	movq   $0x0,-0x10f0(%rbp)
   14404:	00 00 00 00 
   14408:	48 8d 85 c8 e9 ff ff 	lea    -0x1638(%rbp),%rax
   1440f:	48 89 85 18 ef ff ff 	mov    %rax,-0x10e8(%rbp)
   14416:	48 8d 85 c8 e9 ff ff 	lea    -0x1638(%rbp),%rax
   1441d:	48 89 85 20 ef ff ff 	mov    %rax,-0x10e0(%rbp)
   14424:	48 8d 85 c8 e9 ff ff 	lea    -0x1638(%rbp),%rax
   1442b:	48 89 85 28 ef ff ff 	mov    %rax,-0x10d8(%rbp)
   14432:	48 8d 85 c8 e9 ff ff 	lea    -0x1638(%rbp),%rax
   14439:	48 89 85 30 ef ff ff 	mov    %rax,-0x10d0(%rbp)
   14440:	48 8d 85 c8 e9 ff ff 	lea    -0x1638(%rbp),%rax
   14447:	48 89 85 38 ef ff ff 	mov    %rax,-0x10c8(%rbp)
   1444e:	48 8d 85 c8 e9 ff ff 	lea    -0x1638(%rbp),%rax
   14455:	48 89 85 40 ef ff ff 	mov    %rax,-0x10c0(%rbp)
   1445c:	48 8d 85 c8 e9 ff ff 	lea    -0x1638(%rbp),%rax
   14463:	48 89 85 48 ef ff ff 	mov    %rax,-0x10b8(%rbp)
   1446a:	48 8d 85 c8 e9 ff ff 	lea    -0x1638(%rbp),%rax
   14471:	48 89 85 50 ef ff ff 	mov    %rax,-0x10b0(%rbp)
   14478:	48 c7 85 58 ef ff ff 	movq   $0x0,-0x10a8(%rbp)
   1447f:	00 00 00 00 
   14483:	48 8d 85 c8 e9 ff ff 	lea    -0x1638(%rbp),%rax
   1448a:	48 89 85 60 ef ff ff 	mov    %rax,-0x10a0(%rbp)
   14491:	48 8d 85 c8 e9 ff ff 	lea    -0x1638(%rbp),%rax
   14498:	48 89 85 68 ef ff ff 	mov    %rax,-0x1098(%rbp)
   1449f:	48 c7 85 70 ef ff ff 	movq   $0x0,-0x1090(%rbp)
   144a6:	00 00 00 00 
   144aa:	48 c7 85 78 ef ff ff 	movq   $0x0,-0x1088(%rbp)
   144b1:	00 00 00 00 
   144b5:	48 8d 85 c8 e9 ff ff 	lea    -0x1638(%rbp),%rax
   144bc:	48 89 85 80 ef ff ff 	mov    %rax,-0x1080(%rbp)
   144c3:	48 8d 85 c8 e9 ff ff 	lea    -0x1638(%rbp),%rax
   144ca:	48 89 85 88 ef ff ff 	mov    %rax,-0x1078(%rbp)
   144d1:	48 8d 85 c8 e9 ff ff 	lea    -0x1638(%rbp),%rax
   144d8:	48 89 85 90 ef ff ff 	mov    %rax,-0x1070(%rbp)
   144df:	48 8d 85 c8 e9 ff ff 	lea    -0x1638(%rbp),%rax
   144e6:	48 89 85 98 ef ff ff 	mov    %rax,-0x1068(%rbp)
   144ed:	48 8d 85 c8 e9 ff ff 	lea    -0x1638(%rbp),%rax
   144f4:	48 89 85 a0 ef ff ff 	mov    %rax,-0x1060(%rbp)
   144fb:	48 8d 85 c8 e9 ff ff 	lea    -0x1638(%rbp),%rax
   14502:	48 89 85 a8 ef ff ff 	mov    %rax,-0x1058(%rbp)
   14509:	48 8d 85 c8 e9 ff ff 	lea    -0x1638(%rbp),%rax
   14510:	48 89 85 b0 ef ff ff 	mov    %rax,-0x1050(%rbp)
   14517:	48 8d 85 c8 e9 ff ff 	lea    -0x1638(%rbp),%rax
   1451e:	48 89 85 b8 ef ff ff 	mov    %rax,-0x1048(%rbp)
   14525:	48 8d 85 c8 e9 ff ff 	lea    -0x1638(%rbp),%rax
   1452c:	48 89 85 c0 ef ff ff 	mov    %rax,-0x1040(%rbp)
   14533:	48 c7 85 c8 ef ff ff 	movq   $0x0,-0x1038(%rbp)
   1453a:	00 00 00 00 
   1453e:	48 c7 85 d0 ef ff ff 	movq   $0x0,-0x1030(%rbp)
   14545:	00 00 00 00 
   14549:	48 8d 85 c8 e9 ff ff 	lea    -0x1638(%rbp),%rax
   14550:	48 89 85 d8 ef ff ff 	mov    %rax,-0x1028(%rbp)
   14557:	48 8d 85 c8 e9 ff ff 	lea    -0x1638(%rbp),%rax
   1455e:	48 89 85 e0 ef ff ff 	mov    %rax,-0x1020(%rbp)
   14565:	48 c7 85 e8 ef ff ff 	movq   $0x0,-0x1018(%rbp)
   1456c:	00 00 00 00 
   14570:	48 c7 85 f0 ef ff ff 	movq   $0x0,-0x1010(%rbp)
   14577:	00 00 00 00 
   1457b:	48 8d 85 c8 e9 ff ff 	lea    -0x1638(%rbp),%rax
   14582:	48 89 85 f8 ef ff ff 	mov    %rax,-0x1008(%rbp)
   14589:	c7 85 fc e8 ff ff 7d 	movl   $0x272a4a7d,-0x1704(%rbp)
   14590:	4a 2a 27 
   14593:	48 8d 05 0a 03 01 00 	lea    0x1030a(%rip),%rax        # 248a4 <g_1260>
   1459a:	48 89 85 90 ea ff ff 	mov    %rax,-0x1570(%rbp)
   145a1:	c7 85 b0 e8 ff ff 00 	movl   $0x0,-0x1750(%rbp)
   145a8:	00 00 00 
   145ab:	eb 1a                	jmp    145c7 <func_30+0x1f3c>
   145ad:	8b 85 b0 e8 ff ff    	mov    -0x1750(%rbp),%eax
   145b3:	48 98                	cltq   
   145b5:	c7 84 85 f0 eb ff ff 	movl   $0xa821dea4,-0x1410(%rbp,%rax,4)
   145bc:	a4 de 21 a8 
   145c0:	83 85 b0 e8 ff ff 01 	addl   $0x1,-0x1750(%rbp)
   145c7:	83 bd b0 e8 ff ff 08 	cmpl   $0x8,-0x1750(%rbp)
   145ce:	7e dd                	jle    145ad <func_30+0x1f22>
   145d0:	c7 85 b0 e8 ff ff 00 	movl   $0x0,-0x1750(%rbp)
   145d7:	00 00 00 
   145da:	eb 1a                	jmp    145f6 <func_30+0x1f6b>
   145dc:	8b 85 b0 e8 ff ff    	mov    -0x1750(%rbp),%eax
   145e2:	48 98                	cltq   
   145e4:	c7 84 85 9c eb ff ff 	movl   $0xcb39230c,-0x1464(%rbp,%rax,4)
   145eb:	0c 23 39 cb 
   145ef:	83 85 b0 e8 ff ff 01 	addl   $0x1,-0x1750(%rbp)
   145f6:	83 bd b0 e8 ff ff 00 	cmpl   $0x0,-0x1750(%rbp)
   145fd:	7e dd                	jle    145dc <func_30+0x1f51>
   145ff:	c7 85 b0 e8 ff ff 00 	movl   $0x0,-0x1750(%rbp)
   14606:	00 00 00 
   14609:	eb 1e                	jmp    14629 <func_30+0x1f9e>
   1460b:	8b 85 b0 e8 ff ff    	mov    -0x1750(%rbp),%eax
   14611:	48 98                	cltq   
   14613:	48 8d 15 de 2b 01 00 	lea    0x12bde(%rip),%rdx        # 271f8 <g_710>
   1461a:	48 89 94 c5 b0 eb ff 	mov    %rdx,-0x1450(%rbp,%rax,8)
   14621:	ff 
   14622:	83 85 b0 e8 ff ff 01 	addl   $0x1,-0x1750(%rbp)
   14629:	83 bd b0 e8 ff ff 00 	cmpl   $0x0,-0x1750(%rbp)
   14630:	7e d9                	jle    1460b <func_30+0x1f80>
   14632:	c7 05 34 02 01 00 00 	movl   $0x0,0x10234(%rip)        # 24870 <g_355>
   14639:	00 00 00 
   1463c:	e9 69 07 00 00       	jmpq   14daa <func_30+0x271f>
   14641:	48 8d 85 b0 e9 ff ff 	lea    -0x1650(%rbp),%rax
   14648:	48 89 85 90 ed ff ff 	mov    %rax,-0x1270(%rbp)
   1464f:	48 c7 85 98 ed ff ff 	movq   $0x0,-0x1268(%rbp)
   14656:	00 00 00 00 
   1465a:	48 c7 85 a0 ed ff ff 	movq   $0x0,-0x1260(%rbp)
   14661:	00 00 00 00 
   14665:	48 8d 85 b0 e9 ff ff 	lea    -0x1650(%rbp),%rax
   1466c:	48 89 85 a8 ed ff ff 	mov    %rax,-0x1258(%rbp)
   14673:	48 c7 85 b0 ed ff ff 	movq   $0x0,-0x1250(%rbp)
   1467a:	00 00 00 00 
   1467e:	48 8d 85 b0 e9 ff ff 	lea    -0x1650(%rbp),%rax
   14685:	48 89 85 b8 ed ff ff 	mov    %rax,-0x1248(%rbp)
   1468c:	48 c7 85 c0 ed ff ff 	movq   $0x0,-0x1240(%rbp)
   14693:	00 00 00 00 
   14697:	48 c7 85 c8 ed ff ff 	movq   $0x0,-0x1238(%rbp)
   1469e:	00 00 00 00 
   146a2:	48 8d 85 b0 e9 ff ff 	lea    -0x1650(%rbp),%rax
   146a9:	48 89 85 d0 ed ff ff 	mov    %rax,-0x1230(%rbp)
   146b0:	48 8d 85 b0 e9 ff ff 	lea    -0x1650(%rbp),%rax
   146b7:	48 89 85 d8 ed ff ff 	mov    %rax,-0x1228(%rbp)
   146be:	48 8d 85 b0 e9 ff ff 	lea    -0x1650(%rbp),%rax
   146c5:	48 89 85 e0 ed ff ff 	mov    %rax,-0x1220(%rbp)
   146cc:	48 c7 85 e8 ed ff ff 	movq   $0x0,-0x1218(%rbp)
   146d3:	00 00 00 00 
   146d7:	48 c7 85 f0 ed ff ff 	movq   $0x0,-0x1210(%rbp)
   146de:	00 00 00 00 
   146e2:	48 8d 85 b0 e9 ff ff 	lea    -0x1650(%rbp),%rax
   146e9:	48 89 85 f8 ed ff ff 	mov    %rax,-0x1208(%rbp)
   146f0:	48 c7 85 00 ee ff ff 	movq   $0x0,-0x1200(%rbp)
   146f7:	00 00 00 00 
   146fb:	48 8d 85 b0 e9 ff ff 	lea    -0x1650(%rbp),%rax
   14702:	48 89 85 08 ee ff ff 	mov    %rax,-0x11f8(%rbp)
   14709:	48 c7 85 10 ee ff ff 	movq   $0x0,-0x11f0(%rbp)
   14710:	00 00 00 00 
   14714:	48 c7 85 18 ee ff ff 	movq   $0x0,-0x11e8(%rbp)
   1471b:	00 00 00 00 
   1471f:	48 8d 85 b0 e9 ff ff 	lea    -0x1650(%rbp),%rax
   14726:	48 89 85 20 ee ff ff 	mov    %rax,-0x11e0(%rbp)
   1472d:	48 8d 85 b0 e9 ff ff 	lea    -0x1650(%rbp),%rax
   14734:	48 89 85 28 ee ff ff 	mov    %rax,-0x11d8(%rbp)
   1473b:	48 8d 85 b0 e9 ff ff 	lea    -0x1650(%rbp),%rax
   14742:	48 89 85 30 ee ff ff 	mov    %rax,-0x11d0(%rbp)
   14749:	48 c7 85 38 ee ff ff 	movq   $0x0,-0x11c8(%rbp)
   14750:	00 00 00 00 
   14754:	48 c7 85 40 ee ff ff 	movq   $0x0,-0x11c0(%rbp)
   1475b:	00 00 00 00 
   1475f:	48 8d 85 b0 e9 ff ff 	lea    -0x1650(%rbp),%rax
   14766:	48 89 85 48 ee ff ff 	mov    %rax,-0x11b8(%rbp)
   1476d:	48 c7 85 50 ee ff ff 	movq   $0x0,-0x11b0(%rbp)
   14774:	00 00 00 00 
   14778:	48 8d 85 b0 e9 ff ff 	lea    -0x1650(%rbp),%rax
   1477f:	48 89 85 58 ee ff ff 	mov    %rax,-0x11a8(%rbp)
   14786:	48 c7 85 60 ee ff ff 	movq   $0x0,-0x11a0(%rbp)
   1478d:	00 00 00 00 
   14791:	48 c7 85 68 ee ff ff 	movq   $0x0,-0x1198(%rbp)
   14798:	00 00 00 00 
   1479c:	48 8d 85 b0 e9 ff ff 	lea    -0x1650(%rbp),%rax
   147a3:	48 89 85 70 ee ff ff 	mov    %rax,-0x1190(%rbp)
   147aa:	48 8d 85 b0 e9 ff ff 	lea    -0x1650(%rbp),%rax
   147b1:	48 89 85 78 ee ff ff 	mov    %rax,-0x1188(%rbp)
   147b8:	48 8d 85 b0 e9 ff ff 	lea    -0x1650(%rbp),%rax
   147bf:	48 89 85 80 ee ff ff 	mov    %rax,-0x1180(%rbp)
   147c6:	48 c7 85 88 ee ff ff 	movq   $0x0,-0x1178(%rbp)
   147cd:	00 00 00 00 
   147d1:	48 c7 85 90 ee ff ff 	movq   $0x0,-0x1170(%rbp)
   147d8:	00 00 00 00 
   147dc:	48 8d 85 b0 e9 ff ff 	lea    -0x1650(%rbp),%rax
   147e3:	48 89 85 98 ee ff ff 	mov    %rax,-0x1168(%rbp)
   147ea:	48 c7 85 a0 ee ff ff 	movq   $0x0,-0x1160(%rbp)
   147f1:	00 00 00 00 
   147f5:	48 8d 85 b0 e9 ff ff 	lea    -0x1650(%rbp),%rax
   147fc:	48 89 85 a8 ee ff ff 	mov    %rax,-0x1158(%rbp)
   14803:	48 c7 85 b8 ea ff ff 	movq   $0x0,-0x1548(%rbp)
   1480a:	00 00 00 00 
   1480e:	c7 85 04 e9 ff ff 5a 	movl   $0x1f998c5a,-0x16fc(%rbp)
   14815:	8c 99 1f 
   14818:	48 8d 05 23 f8 00 00 	lea    0xf823(%rip),%rax        # 24042 <g_69+0x12>
   1481f:	48 89 85 c0 ea ff ff 	mov    %rax,-0x1540(%rbp)
   14826:	c7 85 08 e9 ff ff 4d 	movl   $0x6c47344d,-0x16f8(%rbp)
   1482d:	34 47 6c 
   14830:	c6 85 87 e8 ff ff 01 	movb   $0x1,-0x1779(%rbp)
   14837:	48 8d 05 42 2a 01 00 	lea    0x12a42(%rip),%rax        # 27280 <g_1426>
   1483e:	48 89 85 d0 e9 ff ff 	mov    %rax,-0x1630(%rbp)
   14845:	48 8d 85 d0 e9 ff ff 	lea    -0x1630(%rbp),%rax
   1484c:	48 89 85 c8 ea ff ff 	mov    %rax,-0x1538(%rbp)
   14853:	c7 85 60 ec ff ff f8 	movl   $0x56401f8,-0x13a0(%rbp)
   1485a:	01 64 05 
   1485d:	66 c7 85 64 ec ff ff 	movw   $0x140,-0x139c(%rbp)
   14864:	40 01 
   14866:	c7 85 66 ec ff ff fe 	movl   $0xfc64fcfe,-0x139a(%rbp)
   1486d:	fc 64 fc 
   14870:	66 c7 85 6a ec ff ff 	movw   $0x1fe,-0x1396(%rbp)
   14877:	fe 01 
   14879:	c7 85 6c ec ff ff 40 	movl   $0x1640540,-0x1394(%rbp)
   14880:	05 64 01 
   14883:	66 c7 85 70 ec ff ff 	movw   $0x1f8,-0x1390(%rbp)
   1488a:	f8 01 
   1488c:	c7 85 72 ec ff ff f8 	movl   $0x56401f8,-0x138e(%rbp)
   14893:	01 64 05 
   14896:	66 c7 85 76 ec ff ff 	movw   $0x140,-0x138a(%rbp)
   1489d:	40 01 
   1489f:	c7 85 78 ec ff ff fe 	movl   $0xfc64fcfe,-0x1388(%rbp)
   148a6:	fc 64 fc 
   148a9:	66 c7 85 7c ec ff ff 	movw   $0x1fe,-0x1384(%rbp)
   148b0:	fe 01 
   148b2:	c7 85 7e ec ff ff 40 	movl   $0x1640540,-0x1382(%rbp)
   148b9:	05 64 01 
   148bc:	66 c7 85 82 ec ff ff 	movw   $0x1f8,-0x137e(%rbp)
   148c3:	f8 01 
   148c5:	c7 85 84 ec ff ff f8 	movl   $0x56401f8,-0x137c(%rbp)
   148cc:	01 64 05 
   148cf:	66 c7 85 88 ec ff ff 	movw   $0x140,-0x1378(%rbp)
   148d6:	40 01 
   148d8:	c7 85 8a ec ff ff fe 	movl   $0xfc64fcfe,-0x1376(%rbp)
   148df:	fc 64 fc 
   148e2:	66 c7 85 8e ec ff ff 	movw   $0x1fe,-0x1372(%rbp)
   148e9:	fe 01 
   148eb:	c7 85 90 ec ff ff 40 	movl   $0x1640540,-0x1370(%rbp)
   148f2:	05 64 01 
   148f5:	66 c7 85 94 ec ff ff 	movw   $0x1f8,-0x136c(%rbp)
   148fc:	f8 01 
   148fe:	c7 85 96 ec ff ff f8 	movl   $0x56401f8,-0x136a(%rbp)
   14905:	01 64 05 
   14908:	66 c7 85 9a ec ff ff 	movw   $0x140,-0x1366(%rbp)
   1490f:	40 01 
   14911:	c7 85 9c ec ff ff fe 	movl   $0xfc64fcfe,-0x1364(%rbp)
   14918:	fc 64 fc 
   1491b:	66 c7 85 a0 ec ff ff 	movw   $0x1fe,-0x1360(%rbp)
   14922:	fe 01 
   14924:	c7 85 a2 ec ff ff 40 	movl   $0x1640540,-0x135e(%rbp)
   1492b:	05 64 01 
   1492e:	66 c7 85 a6 ec ff ff 	movw   $0x1f8,-0x135a(%rbp)
   14935:	f8 01 
   14937:	c7 85 a8 ec ff ff f8 	movl   $0x56401f8,-0x1358(%rbp)
   1493e:	01 64 05 
   14941:	66 c7 85 ac ec ff ff 	movw   $0x140,-0x1354(%rbp)
   14948:	40 01 
   1494a:	c7 85 ae ec ff ff fe 	movl   $0xfc64fcfe,-0x1352(%rbp)
   14951:	fc 64 fc 
   14954:	66 c7 85 b2 ec ff ff 	movw   $0x1fe,-0x134e(%rbp)
   1495b:	fe 01 
   1495d:	c7 85 b4 ec ff ff 40 	movl   $0x1640540,-0x134c(%rbp)
   14964:	05 64 01 
   14967:	66 c7 85 b8 ec ff ff 	movw   $0x1f8,-0x1348(%rbp)
   1496e:	f8 01 
   14970:	c7 85 ba ec ff ff f8 	movl   $0x56401f8,-0x1346(%rbp)
   14977:	01 64 05 
   1497a:	66 c7 85 be ec ff ff 	movw   $0x140,-0x1342(%rbp)
   14981:	40 01 
   14983:	c7 85 b4 e8 ff ff 00 	movl   $0x0,-0x174c(%rbp)
   1498a:	00 00 00 
   1498d:	eb 1b                	jmp    149aa <func_30+0x231f>
   1498f:	8b 85 b4 e8 ff ff    	mov    -0x174c(%rbp),%eax
   14995:	48 98                	cltq   
   14997:	48 c7 84 c5 b8 eb ff 	movq   $0x0,-0x1448(%rbp,%rax,8)
   1499e:	ff 00 00 00 00 
   149a3:	83 85 b4 e8 ff ff 01 	addl   $0x1,-0x174c(%rbp)
   149aa:	83 bd b4 e8 ff ff 00 	cmpl   $0x0,-0x174c(%rbp)
   149b1:	7e dc                	jle    1498f <func_30+0x2304>
   149b3:	8b 9d f8 eb ff ff    	mov    -0x1408(%rbp),%ebx
   149b9:	8b 85 f8 eb ff ff    	mov    -0x1408(%rbp),%eax
   149bf:	44 0f b7 e0          	movzwl %ax,%r12d
   149c3:	0f b7 05 d6 35 01 00 	movzwl 0x135d6(%rip),%eax        # 27fa0 <g_527>
   149ca:	98                   	cwtl   
   149cb:	48 98                	cltq   
   149cd:	8b 84 85 98 eb ff ff 	mov    -0x1468(%rbp,%rax,4),%eax
   149d4:	89 85 5c e8 ff ff    	mov    %eax,-0x17a4(%rbp)
   149da:	0f b7 05 bf 35 01 00 	movzwl 0x135bf(%rip),%eax        # 27fa0 <g_527>
   149e1:	98                   	cwtl   
   149e2:	48 98                	cltq   
   149e4:	44 8b b4 85 98 eb ff 	mov    -0x1468(%rbp,%rax,4),%r14d
   149eb:	ff 
   149ec:	0f b7 05 ad 35 01 00 	movzwl 0x135ad(%rip),%eax        # 27fa0 <g_527>
   149f3:	98                   	cwtl   
   149f4:	48 98                	cltq   
   149f6:	8b 84 85 98 eb ff ff 	mov    -0x1468(%rbp,%rax,4),%eax
   149fd:	44 0f be e8          	movsbl %al,%r13d
   14a01:	0f b7 05 98 35 01 00 	movzwl 0x13598(%rip),%eax        # 27fa0 <g_527>
   14a08:	98                   	cwtl   
   14a09:	48 98                	cltq   
   14a0b:	44 8b bc 85 98 eb ff 	mov    -0x1468(%rbp,%rax,4),%r15d
   14a12:	ff 
   14a13:	48 8d 05 0e 27 01 00 	lea    0x1270e(%rip),%rax        # 27128 <g_689>
   14a1a:	48 89 85 78 ea ff ff 	mov    %rax,-0x1588(%rbp)
   14a21:	48 8b 85 78 ea ff ff 	mov    -0x1588(%rbp),%rax
   14a28:	48 3b 85 08 ea ff ff 	cmp    -0x15f8(%rbp),%rax
   14a2f:	75 07                	jne    14a38 <func_30+0x23ad>
   14a31:	b8 fe ff ff ff       	mov    $0xfffffffe,%eax
   14a36:	eb 05                	jmp    14a3d <func_30+0x23b2>
   14a38:	b8 ff ff ff ff       	mov    $0xffffffff,%eax
   14a3d:	66 89 05 24 fe 00 00 	mov    %ax,0xfe24(%rip)        # 24868 <g_269>
   14a44:	0f b7 05 1d fe 00 00 	movzwl 0xfe1d(%rip),%eax        # 24868 <g_269>
   14a4b:	98                   	cwtl   
   14a4c:	09 85 04 e9 ff ff    	or     %eax,-0x16fc(%rbp)
   14a52:	48 8b 85 b0 e9 ff ff 	mov    -0x1650(%rbp),%rax
   14a59:	48 89 85 00 ea ff ff 	mov    %rax,-0x1600(%rbp)
   14a60:	be 45 34 e6 22       	mov    $0x22e63445,%esi
   14a65:	bf 07 a4 e8 88       	mov    $0x88e8a407,%edi
   14a6a:	e8 47 3b ff ff       	callq  85b6 <safe_add_func_int32_t_s_s>
   14a6f:	89 85 50 e8 ff ff    	mov    %eax,-0x17b0(%rbp)
   14a75:	0f b7 05 24 35 01 00 	movzwl 0x13524(%rip),%eax        # 27fa0 <g_527>
   14a7c:	98                   	cwtl   
   14a7d:	8b 15 ed fd 00 00    	mov    0xfded(%rip),%edx        # 24870 <g_355>
   14a83:	83 c2 03             	add    $0x3,%edx
   14a86:	48 63 ca             	movslq %edx,%rcx
   14a89:	48 63 f0             	movslq %eax,%rsi
   14a8c:	48 c1 e6 02          	shl    $0x2,%rsi
   14a90:	48 01 ce             	add    %rcx,%rsi
   14a93:	48 8d 0d 02 fe 00 00 	lea    0xfe02(%rip),%rcx        # 2489c <g_1028>
   14a9a:	48 01 f1             	add    %rsi,%rcx
   14a9d:	0f b6 09             	movzbl (%rcx),%ecx
   14aa0:	8d 71 01             	lea    0x1(%rcx),%esi
   14aa3:	48 63 ca             	movslq %edx,%rcx
   14aa6:	48 63 f8             	movslq %eax,%rdi
   14aa9:	48 c1 e7 02          	shl    $0x2,%rdi
   14aad:	48 01 cf             	add    %rcx,%rdi
   14ab0:	48 8d 0d e5 fd 00 00 	lea    0xfde5(%rip),%rcx        # 2489c <g_1028>
   14ab7:	48 01 f9             	add    %rdi,%rcx
   14aba:	40 88 31             	mov    %sil,(%rcx)
   14abd:	48 63 d2             	movslq %edx,%rdx
   14ac0:	48 98                	cltq   
   14ac2:	48 c1 e0 02          	shl    $0x2,%rax
   14ac6:	48 01 c2             	add    %rax,%rdx
   14ac9:	48 8d 05 cc fd 00 00 	lea    0xfdcc(%rip),%rax        # 2489c <g_1028>
   14ad0:	48 01 d0             	add    %rdx,%rax
   14ad3:	0f b6 08             	movzbl (%rax),%ecx
   14ad6:	88 8d 58 e8 ff ff    	mov    %cl,-0x17a8(%rbp)
   14adc:	8b 05 8a fd 00 00    	mov    0xfd8a(%rip),%eax        # 2486c <g_321>
   14ae2:	89 c0                	mov    %eax,%eax
   14ae4:	8b 84 85 98 eb ff ff 	mov    -0x1468(%rbp,%rax,4),%eax
   14aeb:	0f b6 c0             	movzbl %al,%eax
   14aee:	89 c6                	mov    %eax,%esi
   14af0:	bf 52 00 00 00       	mov    $0x52,%edi
   14af5:	e8 7e 40 ff ff       	callq  8b78 <safe_sub_func_uint8_t_u_u>
   14afa:	22 85 58 e8 ff ff    	and    -0x17a8(%rbp),%al
   14b00:	0f b6 c0             	movzbl %al,%eax
   14b03:	8b b5 50 e8 ff ff    	mov    -0x17b0(%rbp),%esi
   14b09:	89 c7                	mov    %eax,%edi
   14b0b:	e8 ef 3b ff ff       	callq  86ff <safe_div_func_int32_t_s_s>
   14b10:	41 39 c7             	cmp    %eax,%r15d
   14b13:	0f 92 c0             	setb   %al
   14b16:	0f b6 c0             	movzbl %al,%eax
   14b19:	44 89 ee             	mov    %r13d,%esi
   14b1c:	89 c7                	mov    %eax,%edi
   14b1e:	e8 b1 36 ff ff       	callq  81d4 <safe_add_func_int8_t_s_s>
   14b23:	83 c8 07             	or     $0x7,%eax
   14b26:	89 c2                	mov    %eax,%edx
   14b28:	48 8b 05 61 22 01 00 	mov    0x12261(%rip),%rax        # 26d90 <g_145>
   14b2f:	48 8b 00             	mov    (%rax),%rax
   14b32:	0f be d2             	movsbl %dl,%edx
   14b35:	89 10                	mov    %edx,(%rax)
   14b37:	8b 00                	mov    (%rax),%eax
   14b39:	41 39 c6             	cmp    %eax,%r14d
   14b3c:	0f 97 c0             	seta   %al
   14b3f:	0f b6 c0             	movzbl %al,%eax
   14b42:	8b b5 5c e8 ff ff    	mov    -0x17a4(%rbp),%esi
   14b48:	89 c7                	mov    %eax,%edi
   14b4a:	e8 b6 3a ff ff       	callq  8605 <safe_sub_func_int32_t_s_s>
   14b4f:	0f be c0             	movsbl %al,%eax
   14b52:	be 05 00 00 00       	mov    $0x5,%esi
   14b57:	89 c7                	mov    %eax,%edi
   14b59:	e8 0e 38 ff ff       	callq  836c <safe_rshift_func_int8_t_s_u>
   14b5e:	0f b7 05 3b 34 01 00 	movzwl 0x1343b(%rip),%eax        # 27fa0 <g_527>
   14b65:	98                   	cwtl   
   14b66:	48 98                	cltq   
   14b68:	8b 94 85 98 eb ff ff 	mov    -0x1468(%rbp,%rax,4),%edx
   14b6f:	8b 85 f8 e8 ff ff    	mov    -0x1708(%rbp),%eax
   14b75:	39 c2                	cmp    %eax,%edx
   14b77:	0f 95 c0             	setne  %al
   14b7a:	0f b6 c0             	movzbl %al,%eax
   14b7d:	44 89 e6             	mov    %r12d,%esi
   14b80:	89 c7                	mov    %eax,%edi
   14b82:	e8 b6 41 ff ff       	callq  8d3d <safe_mul_func_uint16_t_u_u>
   14b87:	0f b7 d0             	movzwl %ax,%edx
   14b8a:	8b 85 f8 eb ff ff    	mov    -0x1408(%rbp),%eax
   14b90:	39 c2                	cmp    %eax,%edx
   14b92:	0f 9e c0             	setle  %al
   14b95:	0f b6 c0             	movzbl %al,%eax
   14b98:	89 de                	mov    %ebx,%esi
   14b9a:	89 c7                	mov    %eax,%edi
   14b9c:	e8 f1 38 ff ff       	callq  8492 <safe_lshift_func_int16_t_s_s>
   14ba1:	66 85 c0             	test   %ax,%ax
   14ba4:	75 15                	jne    14bbb <func_30+0x2530>
   14ba6:	0f b7 05 f3 33 01 00 	movzwl 0x133f3(%rip),%eax        # 27fa0 <g_527>
   14bad:	98                   	cwtl   
   14bae:	48 98                	cltq   
   14bb0:	8b 84 85 98 eb ff ff 	mov    -0x1468(%rbp,%rax,4),%eax
   14bb7:	85 c0                	test   %eax,%eax
   14bb9:	74 07                	je     14bc2 <func_30+0x2537>
   14bbb:	ba 01 00 00 00       	mov    $0x1,%edx
   14bc0:	eb 05                	jmp    14bc7 <func_30+0x253c>
   14bc2:	ba 00 00 00 00       	mov    $0x0,%edx
   14bc7:	48 8b 85 c0 ea ff ff 	mov    -0x1540(%rbp),%rax
   14bce:	0f b6 00             	movzbl (%rax),%eax
   14bd1:	21 c2                	and    %eax,%edx
   14bd3:	48 8b 85 c0 ea ff ff 	mov    -0x1540(%rbp),%rax
   14bda:	88 10                	mov    %dl,(%rax)
   14bdc:	48 8b 85 c0 ea ff ff 	mov    -0x1540(%rbp),%rax
   14be3:	0f b6 00             	movzbl (%rax),%eax
   14be6:	0f b6 c0             	movzbl %al,%eax
   14be9:	89 c6                	mov    %eax,%esi
   14beb:	bf 01 00 00 00       	mov    $0x1,%edi
   14bf0:	e8 e6 3f ff ff       	callq  8bdb <safe_div_func_uint8_t_u_u>
   14bf5:	0f b6 c0             	movzbl %al,%eax
   14bf8:	48 be c3 8a 2c 3c 19 	movabs $0xe9e9e2193c2c8ac3,%rsi
   14bff:	e2 e9 e9 
   14c02:	48 89 c7             	mov    %rax,%rdi
   14c05:	e8 aa 3d ff ff       	callq  89b4 <safe_mod_func_int64_t_s_s>
   14c0a:	31 85 08 e9 ff ff    	xor    %eax,-0x16f8(%rbp)
   14c10:	83 bd 08 e9 ff ff 00 	cmpl   $0x0,-0x16f8(%rbp)
   14c17:	74 37                	je     14c50 <func_30+0x25c5>
   14c19:	48 8d 85 00 f0 ff ff 	lea    -0x1000(%rbp),%rax
   14c20:	48 8d 15 19 a8 00 00 	lea    0xa819(%rip),%rdx        # 1f440 <g_5653+0x239f>
   14c27:	b9 2d 00 00 00       	mov    $0x2d,%ecx
   14c2c:	48 89 c7             	mov    %rax,%rdi
   14c2f:	48 89 d6             	mov    %rdx,%rsi
   14c32:	f3 48 a5             	rep movsq %ds:(%rsi),%es:(%rdi)
   14c35:	80 85 87 e8 ff ff 01 	addb   $0x1,-0x1779(%rbp)
   14c3c:	8b 05 2e fc 00 00    	mov    0xfc2e(%rip),%eax        # 24870 <g_355>
   14c42:	83 e8 01             	sub    $0x1,%eax
   14c45:	89 05 25 fc 00 00    	mov    %eax,0xfc25(%rip)        # 24870 <g_355>
   14c4b:	e9 5a 01 00 00       	jmpq   14daa <func_30+0x271f>
   14c50:	c7 85 0c e9 ff ff f6 	movl   $0xfffffff6,-0x16f4(%rbp)
   14c57:	ff ff ff 
   14c5a:	c6 85 81 e8 ff ff 00 	movb   $0x0,-0x177f(%rbp)
   14c61:	eb 1d                	jmp    14c80 <func_30+0x25f5>
   14c63:	48 8b 05 6e 24 01 00 	mov    0x1246e(%rip),%rax        # 270d8 <g_369>
   14c6a:	8b 08                	mov    (%rax),%ecx
   14c6c:	48 8b 95 68 e8 ff ff 	mov    -0x1798(%rbp),%rdx
   14c73:	8b 12                	mov    (%rdx),%edx
   14c75:	21 ca                	and    %ecx,%edx
   14c77:	89 10                	mov    %edx,(%rax)
   14c79:	80 85 81 e8 ff ff 01 	addb   $0x1,-0x177f(%rbp)
   14c80:	80 bd 81 e8 ff ff 02 	cmpb   $0x2,-0x177f(%rbp)
   14c87:	76 da                	jbe    14c63 <func_30+0x25d8>
   14c89:	66 c7 85 8c e8 ff ff 	movw   $0x0,-0x1774(%rbp)
   14c90:	00 00 
   14c92:	e9 ef 00 00 00       	jmpq   14d86 <func_30+0x26fb>
   14c97:	48 8b 05 9a 25 01 00 	mov    0x1259a(%rip),%rax        # 27238 <g_1225>
   14c9e:	48 8b 00             	mov    (%rax),%rax
   14ca1:	8b 00                	mov    (%rax),%eax
   14ca3:	89 85 0c e9 ff ff    	mov    %eax,-0x16f4(%rbp)
   14ca9:	83 bd 0c e9 ff ff 00 	cmpl   $0x0,-0x16f4(%rbp)
   14cb0:	75 40                	jne    14cf2 <func_30+0x2667>
   14cb2:	48 83 bd c8 ea ff ff 	cmpq   $0x0,-0x1538(%rbp)
   14cb9:	00 
   14cba:	0f 94 c0             	sete   %al
   14cbd:	0f b6 c0             	movzbl %al,%eax
   14cc0:	89 c2                	mov    %eax,%edx
   14cc2:	48 8b 05 c7 20 01 00 	mov    0x120c7(%rip),%rax        # 26d90 <g_145>
   14cc9:	48 8b 00             	mov    (%rax),%rax
   14ccc:	8b 00                	mov    (%rax),%eax
   14cce:	31 c2                	xor    %eax,%edx
   14cd0:	48 8b 05 b9 20 01 00 	mov    0x120b9(%rip),%rax        # 26d90 <g_145>
   14cd7:	48 8b 00             	mov    (%rax),%rax
   14cda:	f7 d2                	not    %edx
   14cdc:	89 10                	mov    %edx,(%rax)
   14cde:	8b 00                	mov    (%rax),%eax
   14ce0:	83 f0 01             	xor    $0x1,%eax
   14ce3:	89 c2                	mov    %eax,%edx
   14ce5:	48 8b 05 e4 26 01 00 	mov    0x126e4(%rip),%rax        # 273d0 <g_1749>
   14cec:	0f b7 00             	movzwl (%rax),%eax
   14cef:	98                   	cwtl   
   14cf0:	39 c2                	cmp    %eax,%edx
   14cf2:	48 8d 05 d7 26 01 00 	lea    0x126d7(%rip),%rax        # 273d0 <g_1749>
   14cf9:	48 8b 00             	mov    (%rax),%rax
   14cfc:	0f b7 00             	movzwl (%rax),%eax
   14cff:	8b 85 0c e9 ff ff    	mov    -0x16f4(%rbp),%eax
   14d05:	89 c6                	mov    %eax,%esi
   14d07:	bf 01 00 00 00       	mov    $0x1,%edi
   14d0c:	e8 19 38 ff ff       	callq  852a <safe_rshift_func_int16_t_s_s>
   14d11:	89 c2                	mov    %eax,%edx
   14d13:	8b 85 0c e9 ff ff    	mov    -0x16f4(%rbp),%eax
   14d19:	21 d0                	and    %edx,%eax
   14d1b:	0f b6 d8             	movzbl %al,%ebx
   14d1e:	48 8d 05 ab 26 01 00 	lea    0x126ab(%rip),%rax        # 273d0 <g_1749>
   14d25:	48 85 c0             	test   %rax,%rax
   14d28:	0f 94 c0             	sete   %al
   14d2b:	89 c2                	mov    %eax,%edx
   14d2d:	48 8b 05 f4 23 01 00 	mov    0x123f4(%rip),%rax        # 27128 <g_689>
   14d34:	48 8b 00             	mov    (%rax),%rax
   14d37:	48 8b 00             	mov    (%rax),%rax
   14d3a:	21 d0                	and    %edx,%eax
   14d3c:	0f b6 c0             	movzbl %al,%eax
   14d3f:	89 c6                	mov    %eax,%esi
   14d41:	bf 7a 00 00 00       	mov    $0x7a,%edi
   14d46:	e8 90 3e ff ff       	callq  8bdb <safe_div_func_uint8_t_u_u>
   14d4b:	0f b6 c0             	movzbl %al,%eax
   14d4e:	89 de                	mov    %ebx,%esi
   14d50:	89 c7                	mov    %eax,%edi
   14d52:	e8 3c 3e ff ff       	callq  8b93 <safe_mul_func_uint8_t_u_u>
   14d57:	c7 85 0c e9 ff ff 01 	movl   $0x1,-0x16f4(%rbp)
   14d5e:	00 00 00 
   14d61:	8b 85 0c ec ff ff    	mov    -0x13f4(%rbp),%eax
   14d67:	85 c0                	test   %eax,%eax
   14d69:	75 12                	jne    14d7d <func_30+0x26f2>
   14d6b:	0f b6 85 79 ec ff ff 	movzbl -0x1387(%rbp),%eax
   14d72:	83 c0 01             	add    $0x1,%eax
   14d75:	88 85 79 ec ff ff    	mov    %al,-0x1387(%rbp)
   14d7b:	eb 01                	jmp    14d7e <func_30+0x26f3>
   14d7d:	90                   	nop
   14d7e:	66 83 85 8c e8 ff ff 	addw   $0x1,-0x1774(%rbp)
   14d85:	01 
   14d86:	66 83 bd 8c e8 ff ff 	cmpw   $0x3,-0x1774(%rbp)
   14d8d:	03 
   14d8e:	0f 86 03 ff ff ff    	jbe    14c97 <func_30+0x260c>
   14d94:	0f b7 05 05 32 01 00 	movzwl 0x13205(%rip),%eax        # 27fa0 <g_527>
   14d9b:	98                   	cwtl   
   14d9c:	48 98                	cltq   
   14d9e:	8b 84 85 98 eb ff ff 	mov    -0x1468(%rbp,%rax,4),%eax
   14da5:	e9 b3 13 00 00       	jmpq   1615d <func_30+0x3ad2>
   14daa:	8b 05 c0 fa 00 00    	mov    0xfac0(%rip),%eax        # 24870 <g_355>
   14db0:	85 c0                	test   %eax,%eax
   14db2:	0f 89 89 f8 ff ff    	jns    14641 <func_30+0x1fb6>
   14db8:	66 c7 05 a7 fa 00 00 	movw   $0x0,0xfaa7(%rip)        # 24868 <g_269>
   14dbf:	00 00 
   14dc1:	e9 0d 01 00 00       	jmpq   14ed3 <func_30+0x2848>
   14dc6:	c6 85 86 e8 ff ff 06 	movb   $0x6,-0x177a(%rbp)
   14dcd:	48 8d 05 dc fb 00 00 	lea    0xfbdc(%rip),%rax        # 249b0 <g_1431>
   14dd4:	48 89 85 98 ea ff ff 	mov    %rax,-0x1568(%rbp)
   14ddb:	66 c7 85 92 e8 ff ff 	movw   $0xfff8,-0x176e(%rbp)
   14de2:	f8 ff 
   14de4:	c7 85 00 e9 ff ff 00 	movl   $0x0,-0x1700(%rbp)
   14deb:	00 00 00 
   14dee:	c7 85 00 f0 ff ff fa 	movl   $0xfffffffa,-0x1000(%rbp)
   14df5:	ff ff ff 
   14df8:	c7 85 04 f0 ff ff 0b 	movl   $0x9aff490b,-0xffc(%rbp)
   14dff:	49 ff 9a 
   14e02:	c7 85 08 f0 ff ff fa 	movl   $0xfffffffa,-0xff8(%rbp)
   14e09:	ff ff ff 
   14e0c:	c7 85 0c f0 ff ff a6 	movl   $0x77e27a6,-0xff4(%rbp)
   14e13:	27 7e 07 
   14e16:	c7 85 10 f0 ff ff a6 	movl   $0x77e27a6,-0xff0(%rbp)
   14e1d:	27 7e 07 
   14e20:	c7 85 14 f0 ff ff fa 	movl   $0xfffffffa,-0xfec(%rbp)
   14e27:	ff ff ff 
   14e2a:	c7 85 18 f0 ff ff 0b 	movl   $0x9aff490b,-0xfe8(%rbp)
   14e31:	49 ff 9a 
   14e34:	c7 85 1c f0 ff ff fa 	movl   $0xfffffffa,-0xfe4(%rbp)
   14e3b:	ff ff ff 
   14e3e:	c7 85 20 f0 ff ff 0b 	movl   $0x23ad7e0b,-0xfe0(%rbp)
   14e45:	7e ad 23 
   14e48:	c7 85 24 f0 ff ff a6 	movl   $0x77e27a6,-0xfdc(%rbp)
   14e4f:	27 7e 07 
   14e52:	c7 85 28 f0 ff ff 6f 	movl   $0x75e6196f,-0xfd8(%rbp)
   14e59:	19 e6 75 
   14e5c:	c7 85 2c f0 ff ff a6 	movl   $0x77e27a6,-0xfd4(%rbp)
   14e63:	27 7e 07 
   14e66:	c7 85 30 f0 ff ff 0b 	movl   $0x23ad7e0b,-0xfd0(%rbp)
   14e6d:	7e ad 23 
   14e70:	c7 85 34 f0 ff ff 0b 	movl   $0x23ad7e0b,-0xfcc(%rbp)
   14e77:	7e ad 23 
   14e7a:	c7 85 38 f0 ff ff a6 	movl   $0x77e27a6,-0xfc8(%rbp)
   14e81:	27 7e 07 
   14e84:	c7 85 3c f0 ff ff 6f 	movl   $0x75e6196f,-0xfc4(%rbp)
   14e8b:	19 e6 75 
   14e8e:	48 8d 05 33 31 01 00 	lea    0x13133(%rip),%rax        # 27fc8 <g_1492>
   14e95:	48 89 85 a0 ea ff ff 	mov    %rax,-0x1560(%rbp)
   14e9c:	48 c7 85 a8 ea ff ff 	movq   $0x0,-0x1558(%rbp)
   14ea3:	00 00 00 00 
   14ea7:	48 c7 85 b0 ea ff ff 	movq   $0x0,-0x1550(%rbp)
   14eae:	00 00 00 00 
   14eb2:	0f b6 85 86 e8 ff ff 	movzbl -0x177a(%rbp),%eax
   14eb9:	83 c0 01             	add    $0x1,%eax
   14ebc:	88 85 86 e8 ff ff    	mov    %al,-0x177a(%rbp)
   14ec2:	0f b7 05 9f f9 00 00 	movzwl 0xf99f(%rip),%eax        # 24868 <g_269>
   14ec9:	83 c0 01             	add    $0x1,%eax
   14ecc:	66 89 05 95 f9 00 00 	mov    %ax,0xf995(%rip)        # 24868 <g_269>
   14ed3:	0f b7 05 8e f9 00 00 	movzwl 0xf98e(%rip),%eax        # 24868 <g_269>
   14eda:	66 85 c0             	test   %ax,%ax
   14edd:	0f 8e e3 fe ff ff    	jle    14dc6 <func_30+0x273b>
   14ee3:	48 8d 85 98 e8 ff ff 	lea    -0x1768(%rbp),%rax
   14eea:	48 89 85 30 ea ff ff 	mov    %rax,-0x15d0(%rbp)
   14ef1:	8b 85 dc e8 ff ff    	mov    -0x1724(%rbp),%eax
   14ef7:	0f bf d8             	movswl %ax,%ebx
   14efa:	48 8b 05 27 23 01 00 	mov    0x12327(%rip),%rax        # 27228 <g_1125>
   14f01:	48 8b 85 90 ea ff ff 	mov    -0x1570(%rbp),%rax
   14f08:	48 3b 85 20 ea ff ff 	cmp    -0x15e0(%rbp),%rax
   14f0f:	0f 95 c0             	setne  %al
   14f12:	0f b6 c0             	movzbl %al,%eax
   14f15:	21 85 fc e8 ff ff    	and    %eax,-0x1704(%rbp)
   14f1b:	0f b7 05 7e 30 01 00 	movzwl 0x1307e(%rip),%eax        # 27fa0 <g_527>
   14f22:	98                   	cwtl   
   14f23:	48 98                	cltq   
   14f25:	8b 84 85 98 eb ff ff 	mov    -0x1468(%rbp,%rax,4),%eax
   14f2c:	89 c0                	mov    %eax,%eax
   14f2e:	be 00 00 00 00       	mov    $0x0,%esi
   14f33:	48 89 c7             	mov    %rax,%rdi
   14f36:	e8 06 39 ff ff       	callq  8841 <safe_add_func_int64_t_s_s>
   14f3b:	8b 15 2b f9 00 00    	mov    0xf92b(%rip),%edx        # 2486c <g_321>
   14f41:	8b 05 25 f9 00 00    	mov    0xf925(%rip),%eax        # 2486c <g_321>
   14f47:	83 c0 01             	add    $0x1,%eax
   14f4a:	89 c1                	mov    %eax,%ecx
   14f4c:	89 d0                	mov    %edx,%eax
   14f4e:	48 c1 e0 02          	shl    $0x2,%rax
   14f52:	48 8d 14 08          	lea    (%rax,%rcx,1),%rdx
   14f56:	48 8d 05 3f f9 00 00 	lea    0xf93f(%rip),%rax        # 2489c <g_1028>
   14f5d:	48 01 d0             	add    %rdx,%rax
   14f60:	0f b6 00             	movzbl (%rax),%eax
   14f63:	84 c0                	test   %al,%al
   14f65:	0f 94 c0             	sete   %al
   14f68:	0f b6 c0             	movzbl %al,%eax
   14f6b:	8b 15 fb f8 00 00    	mov    0xf8fb(%rip),%edx        # 2486c <g_321>
   14f71:	89 d2                	mov    %edx,%edx
   14f73:	8b 94 95 98 eb ff ff 	mov    -0x1468(%rbp,%rdx,4),%edx
   14f7a:	89 d2                	mov    %edx,%edx
   14f7c:	48 89 c6             	mov    %rax,%rsi
   14f7f:	48 89 d7             	mov    %rdx,%rdi
   14f82:	e8 c4 40 ff ff       	callq  904b <safe_sub_func_uint64_t_u_u>
   14f87:	bf 00 00 00 00       	mov    $0x0,%edi
   14f8c:	e8 85 38 ff ff       	callq  8816 <safe_unary_minus_func_int64_t_s>
   14f91:	98                   	cwtl   
   14f92:	89 de                	mov    %ebx,%esi
   14f94:	89 c7                	mov    %eax,%edi
   14f96:	e8 ba 34 ff ff       	callq  8455 <safe_div_func_int16_t_s_s>
   14f9b:	48 8b 05 de 1d 01 00 	mov    0x11dde(%rip),%rax        # 26d80 <g_8>
   14fa2:	8b 00                	mov    (%rax),%eax
   14fa4:	be 08 00 00 00       	mov    $0x8,%esi
   14fa9:	89 c7                	mov    %eax,%edi
   14fab:	e8 4f 37 ff ff       	callq  86ff <safe_div_func_int32_t_s_s>
   14fb0:	f7 d0                	not    %eax
   14fb2:	89 c2                	mov    %eax,%edx
   14fb4:	8b 85 00 ec ff ff    	mov    -0x1400(%rbp),%eax
   14fba:	21 d0                	and    %edx,%eax
   14fbc:	89 85 00 ec ff ff    	mov    %eax,-0x1400(%rbp)
   14fc2:	8b 95 0c ec ff ff    	mov    -0x13f4(%rbp),%edx
   14fc8:	8b 85 d4 eb ff ff    	mov    -0x142c(%rbp),%eax
   14fce:	31 d0                	xor    %edx,%eax
   14fd0:	89 85 0c ec ff ff    	mov    %eax,-0x13f4(%rbp)
   14fd6:	8b 05 90 f8 00 00    	mov    0xf890(%rip),%eax        # 2486c <g_321>
   14fdc:	83 c0 01             	add    $0x1,%eax
   14fdf:	89 05 87 f8 00 00    	mov    %eax,0xf887(%rip)        # 2486c <g_321>
   14fe5:	8b 05 81 f8 00 00    	mov    0xf881(%rip),%eax        # 2486c <g_321>
   14feb:	85 c0                	test   %eax,%eax
   14fed:	0f 84 65 f1 ff ff    	je     14158 <func_30+0x1acd>
   14ff3:	c6 85 81 e8 ff ff 00 	movb   $0x0,-0x177f(%rbp)
   14ffa:	e9 2a 11 00 00       	jmpq   16129 <func_30+0x3a9e>
   14fff:	c6 85 83 e8 ff ff 05 	movb   $0x5,-0x177d(%rbp)
   15006:	c7 85 e4 e8 ff ff 56 	movl   $0x1979d56,-0x171c(%rbp)
   1500d:	9d 97 01 
   15010:	c7 85 e8 e8 ff ff 90 	movl   $0xf3e09990,-0x1718(%rbp)
   15017:	99 e0 f3 
   1501a:	48 8d 05 cf 21 01 00 	lea    0x121cf(%rip),%rax        # 271f0 <g_711>
   15021:	48 89 85 48 ea ff ff 	mov    %rax,-0x15b8(%rbp)
   15028:	c7 85 b8 e8 ff ff 00 	movl   $0x0,-0x1748(%rbp)
   1502f:	00 00 00 
   15032:	eb 1a                	jmp    1504e <func_30+0x29c3>
   15034:	8b 85 b8 e8 ff ff    	mov    -0x1748(%rbp),%eax
   1503a:	48 98                	cltq   
   1503c:	c7 84 85 b0 ee ff ff 	movl   $0xaac2b227,-0x1150(%rbp,%rax,4)
   15043:	27 b2 c2 aa 
   15047:	83 85 b8 e8 ff ff 01 	addl   $0x1,-0x1748(%rbp)
   1504e:	83 bd b8 e8 ff ff 01 	cmpl   $0x1,-0x1748(%rbp)
   15055:	7e dd                	jle    15034 <func_30+0x29a9>
   15057:	c6 85 7e e8 ff ff 00 	movb   $0x0,-0x1782(%rbp)
   1505e:	e9 b0 10 00 00       	jmpq   16113 <func_30+0x3a88>
   15063:	c6 85 84 e8 ff ff 6f 	movb   $0x6f,-0x177c(%rbp)
   1506a:	48 8d 05 3f f9 00 00 	lea    0xf93f(%rip),%rax        # 249b0 <g_1431>
   15071:	48 89 85 30 f8 ff ff 	mov    %rax,-0x7d0(%rbp)
   15078:	48 c7 85 38 f8 ff ff 	movq   $0x0,-0x7c8(%rbp)
   1507f:	00 00 00 00 
   15083:	48 8d 05 b8 ef 00 00 	lea    0xefb8(%rip),%rax        # 24042 <g_69+0x12>
   1508a:	48 89 85 40 f8 ff ff 	mov    %rax,-0x7c0(%rbp)
   15091:	48 8d 05 a6 ef 00 00 	lea    0xefa6(%rip),%rax        # 2403e <g_69+0xe>
   15098:	48 89 85 48 f8 ff ff 	mov    %rax,-0x7b8(%rbp)
   1509f:	48 8d 85 7e e8 ff ff 	lea    -0x1782(%rbp),%rax
   150a6:	48 89 85 50 f8 ff ff 	mov    %rax,-0x7b0(%rbp)
   150ad:	48 8d 05 78 ef 00 00 	lea    0xef78(%rip),%rax        # 2402c <g_67>
   150b4:	48 89 85 58 f8 ff ff 	mov    %rax,-0x7a8(%rbp)
   150bb:	48 8d 05 78 ef 00 00 	lea    0xef78(%rip),%rax        # 2403a <g_69+0xa>
   150c2:	48 89 85 60 f8 ff ff 	mov    %rax,-0x7a0(%rbp)
   150c9:	48 c7 85 68 f8 ff ff 	movq   $0x0,-0x798(%rbp)
   150d0:	00 00 00 00 
   150d4:	48 8d 05 f5 f8 00 00 	lea    0xf8f5(%rip),%rax        # 249d0 <g_1911>
   150db:	48 89 85 70 f8 ff ff 	mov    %rax,-0x790(%rbp)
   150e2:	48 c7 85 78 f8 ff ff 	movq   $0x0,-0x788(%rbp)
   150e9:	00 00 00 00 
   150ed:	48 8d 05 de f8 00 00 	lea    0xf8de(%rip),%rax        # 249d2 <g_1911+0x2>
   150f4:	48 89 85 80 f8 ff ff 	mov    %rax,-0x780(%rbp)
   150fb:	48 c7 85 88 f8 ff ff 	movq   $0x0,-0x778(%rbp)
   15102:	00 00 00 00 
   15106:	48 8d 05 1f ef 00 00 	lea    0xef1f(%rip),%rax        # 2402c <g_67>
   1510d:	48 89 85 90 f8 ff ff 	mov    %rax,-0x770(%rbp)
   15114:	48 8d 05 26 ef 00 00 	lea    0xef26(%rip),%rax        # 24041 <g_69+0x11>
   1511b:	48 89 85 98 f8 ff ff 	mov    %rax,-0x768(%rbp)
   15122:	48 8d 05 19 ef 00 00 	lea    0xef19(%rip),%rax        # 24042 <g_69+0x12>
   15129:	48 89 85 a0 f8 ff ff 	mov    %rax,-0x760(%rbp)
   15130:	48 8d 05 a1 f8 00 00 	lea    0xf8a1(%rip),%rax        # 249d8 <g_1911+0x8>
   15137:	48 89 85 a8 f8 ff ff 	mov    %rax,-0x758(%rbp)
   1513e:	48 8d 05 fd ee 00 00 	lea    0xeefd(%rip),%rax        # 24042 <g_69+0x12>
   15145:	48 89 85 b0 f8 ff ff 	mov    %rax,-0x750(%rbp)
   1514c:	48 c7 85 b8 f8 ff ff 	movq   $0x0,-0x748(%rbp)
   15153:	00 00 00 00 
   15157:	48 8d 05 6a f8 00 00 	lea    0xf86a(%rip),%rax        # 249c8 <g_1820>
   1515e:	48 89 85 c0 f8 ff ff 	mov    %rax,-0x740(%rbp)
   15165:	48 8d 05 7a f8 00 00 	lea    0xf87a(%rip),%rax        # 249e6 <g_1911+0x16>
   1516c:	48 89 85 c8 f8 ff ff 	mov    %rax,-0x738(%rbp)
   15173:	48 8d 05 36 f8 00 00 	lea    0xf836(%rip),%rax        # 249b0 <g_1431>
   1517a:	48 89 85 d0 f8 ff ff 	mov    %rax,-0x730(%rbp)
   15181:	48 8d 05 ba ee 00 00 	lea    0xeeba(%rip),%rax        # 24042 <g_69+0x12>
   15188:	48 89 85 d8 f8 ff ff 	mov    %rax,-0x728(%rbp)
   1518f:	48 8d 05 ac ee 00 00 	lea    0xeeac(%rip),%rax        # 24042 <g_69+0x12>
   15196:	48 89 85 e0 f8 ff ff 	mov    %rax,-0x720(%rbp)
   1519d:	48 c7 85 e8 f8 ff ff 	movq   $0x0,-0x718(%rbp)
   151a4:	00 00 00 00 
   151a8:	48 c7 85 f0 f8 ff ff 	movq   $0x0,-0x710(%rbp)
   151af:	00 00 00 00 
   151b3:	48 8d 05 88 ee 00 00 	lea    0xee88(%rip),%rax        # 24042 <g_69+0x12>
   151ba:	48 89 85 f8 f8 ff ff 	mov    %rax,-0x708(%rbp)
   151c1:	48 8d 05 70 ee 00 00 	lea    0xee70(%rip),%rax        # 24038 <g_69+0x8>
   151c8:	48 89 85 00 f9 ff ff 	mov    %rax,-0x700(%rbp)
   151cf:	48 c7 85 08 f9 ff ff 	movq   $0x0,-0x6f8(%rbp)
   151d6:	00 00 00 00 
   151da:	48 8d 05 4b ee 00 00 	lea    0xee4b(%rip),%rax        # 2402c <g_67>
   151e1:	48 89 85 10 f9 ff ff 	mov    %rax,-0x6f0(%rbp)
   151e8:	48 c7 85 18 f9 ff ff 	movq   $0x0,-0x6e8(%rbp)
   151ef:	00 00 00 00 
   151f3:	48 8d 05 ec f7 00 00 	lea    0xf7ec(%rip),%rax        # 249e6 <g_1911+0x16>
   151fa:	48 89 85 20 f9 ff ff 	mov    %rax,-0x6e0(%rbp)
   15201:	48 8d 05 2f ee 00 00 	lea    0xee2f(%rip),%rax        # 24037 <g_69+0x7>
   15208:	48 89 85 28 f9 ff ff 	mov    %rax,-0x6d8(%rbp)
   1520f:	48 8d 05 2c ee 00 00 	lea    0xee2c(%rip),%rax        # 24042 <g_69+0x12>
   15216:	48 89 85 30 f9 ff ff 	mov    %rax,-0x6d0(%rbp)
   1521d:	48 8d 05 b4 f7 00 00 	lea    0xf7b4(%rip),%rax        # 249d8 <g_1911+0x8>
   15224:	48 89 85 38 f9 ff ff 	mov    %rax,-0x6c8(%rbp)
   1522b:	48 8d 05 fa ed 00 00 	lea    0xedfa(%rip),%rax        # 2402c <g_67>
   15232:	48 89 85 40 f9 ff ff 	mov    %rax,-0x6c0(%rbp)
   15239:	48 8d 85 7e e8 ff ff 	lea    -0x1782(%rbp),%rax
   15240:	48 89 85 48 f9 ff ff 	mov    %rax,-0x6b8(%rbp)
   15247:	48 8d 05 f3 ed 00 00 	lea    0xedf3(%rip),%rax        # 24041 <g_69+0x11>
   1524e:	48 89 85 50 f9 ff ff 	mov    %rax,-0x6b0(%rbp)
   15255:	48 8d 05 e2 ed 00 00 	lea    0xede2(%rip),%rax        # 2403e <g_69+0xe>
   1525c:	48 89 85 58 f9 ff ff 	mov    %rax,-0x6a8(%rbp)
   15263:	48 8d 05 c2 ed 00 00 	lea    0xedc2(%rip),%rax        # 2402c <g_67>
   1526a:	48 89 85 60 f9 ff ff 	mov    %rax,-0x6a0(%rbp)
   15271:	48 8d 05 6e f7 00 00 	lea    0xf76e(%rip),%rax        # 249e6 <g_1911+0x16>
   15278:	48 89 85 68 f9 ff ff 	mov    %rax,-0x698(%rbp)
   1527f:	48 c7 85 70 f9 ff ff 	movq   $0x0,-0x690(%rbp)
   15286:	00 00 00 00 
   1528a:	48 8d 05 2f f7 00 00 	lea    0xf72f(%rip),%rax        # 249c0 <g_1691>
   15291:	48 89 85 78 f9 ff ff 	mov    %rax,-0x688(%rbp)
   15298:	48 8d 05 a3 ed 00 00 	lea    0xeda3(%rip),%rax        # 24042 <g_69+0x12>
   1529f:	48 89 85 80 f9 ff ff 	mov    %rax,-0x680(%rbp)
   152a6:	48 8d 05 95 ed 00 00 	lea    0xed95(%rip),%rax        # 24042 <g_69+0x12>
   152ad:	48 89 85 88 f9 ff ff 	mov    %rax,-0x678(%rbp)
   152b4:	48 8d 05 7c ed 00 00 	lea    0xed7c(%rip),%rax        # 24037 <g_69+0x7>
   152bb:	48 89 85 90 f9 ff ff 	mov    %rax,-0x670(%rbp)
   152c2:	48 c7 85 98 f9 ff ff 	movq   $0x0,-0x668(%rbp)
   152c9:	00 00 00 00 
   152cd:	48 8d 05 6e ed 00 00 	lea    0xed6e(%rip),%rax        # 24042 <g_69+0x12>
   152d4:	48 89 85 a0 f9 ff ff 	mov    %rax,-0x660(%rbp)
   152db:	48 8d 05 60 ed 00 00 	lea    0xed60(%rip),%rax        # 24042 <g_69+0x12>
   152e2:	48 89 85 a8 f9 ff ff 	mov    %rax,-0x658(%rbp)
   152e9:	48 8d 85 7e e8 ff ff 	lea    -0x1782(%rbp),%rax
   152f0:	48 89 85 b0 f9 ff ff 	mov    %rax,-0x650(%rbp)
   152f7:	48 c7 85 b8 f9 ff ff 	movq   $0x0,-0x648(%rbp)
   152fe:	00 00 00 00 
   15302:	48 8d 85 7e e8 ff ff 	lea    -0x1782(%rbp),%rax
   15309:	48 89 85 c0 f9 ff ff 	mov    %rax,-0x640(%rbp)
   15310:	48 8d 05 24 ed 00 00 	lea    0xed24(%rip),%rax        # 2403b <g_69+0xb>
   15317:	48 89 85 c8 f9 ff ff 	mov    %rax,-0x638(%rbp)
   1531e:	48 8d 05 07 ed 00 00 	lea    0xed07(%rip),%rax        # 2402c <g_67>
   15325:	48 89 85 d0 f9 ff ff 	mov    %rax,-0x630(%rbp)
   1532c:	48 8d 05 95 f6 00 00 	lea    0xf695(%rip),%rax        # 249c8 <g_1820>
   15333:	48 89 85 d8 f9 ff ff 	mov    %rax,-0x628(%rbp)
   1533a:	48 8d 05 fd ec 00 00 	lea    0xecfd(%rip),%rax        # 2403e <g_69+0xe>
   15341:	48 89 85 e0 f9 ff ff 	mov    %rax,-0x620(%rbp)
   15348:	48 8d 05 f3 ec 00 00 	lea    0xecf3(%rip),%rax        # 24042 <g_69+0x12>
   1534f:	48 89 85 e8 f9 ff ff 	mov    %rax,-0x618(%rbp)
   15356:	48 8d 05 89 f6 00 00 	lea    0xf689(%rip),%rax        # 249e6 <g_1911+0x16>
   1535d:	48 89 85 f0 f9 ff ff 	mov    %rax,-0x610(%rbp)
   15364:	48 8d 05 6c f6 00 00 	lea    0xf66c(%rip),%rax        # 249d7 <g_1911+0x7>
   1536b:	48 89 85 f8 f9 ff ff 	mov    %rax,-0x608(%rbp)
   15372:	48 8d 05 b3 ec 00 00 	lea    0xecb3(%rip),%rax        # 2402c <g_67>
   15379:	48 89 85 00 fa ff ff 	mov    %rax,-0x600(%rbp)
   15380:	48 8d 05 bb ec 00 00 	lea    0xecbb(%rip),%rax        # 24042 <g_69+0x12>
   15387:	48 89 85 08 fa ff ff 	mov    %rax,-0x5f8(%rbp)
   1538e:	48 c7 85 10 fa ff ff 	movq   $0x0,-0x5f0(%rbp)
   15395:	00 00 00 00 
   15399:	48 8d 05 20 f6 00 00 	lea    0xf620(%rip),%rax        # 249c0 <g_1691>
   153a0:	48 89 85 18 fa ff ff 	mov    %rax,-0x5e8(%rbp)
   153a7:	48 8d 05 36 f6 00 00 	lea    0xf636(%rip),%rax        # 249e4 <g_1911+0x14>
   153ae:	48 89 85 20 fa ff ff 	mov    %rax,-0x5e0(%rbp)
   153b5:	48 8d 05 16 f6 00 00 	lea    0xf616(%rip),%rax        # 249d2 <g_1911+0x2>
   153bc:	48 89 85 28 fa ff ff 	mov    %rax,-0x5d8(%rbp)
   153c3:	48 8d 85 7e e8 ff ff 	lea    -0x1782(%rbp),%rax
   153ca:	48 89 85 30 fa ff ff 	mov    %rax,-0x5d0(%rbp)
   153d1:	48 c7 85 38 fa ff ff 	movq   $0x0,-0x5c8(%rbp)
   153d8:	00 00 00 00 
   153dc:	48 8d 05 cd f5 00 00 	lea    0xf5cd(%rip),%rax        # 249b0 <g_1431>
   153e3:	48 89 85 40 fa ff ff 	mov    %rax,-0x5c0(%rbp)
   153ea:	48 8d 05 f3 f5 00 00 	lea    0xf5f3(%rip),%rax        # 249e4 <g_1911+0x14>
   153f1:	48 89 85 48 fa ff ff 	mov    %rax,-0x5b8(%rbp)
   153f8:	48 8d 05 2d ec 00 00 	lea    0xec2d(%rip),%rax        # 2402c <g_67>
   153ff:	48 89 85 50 fa ff ff 	mov    %rax,-0x5b0(%rbp)
   15406:	48 8d 05 c5 f5 00 00 	lea    0xf5c5(%rip),%rax        # 249d2 <g_1911+0x2>
   1540d:	48 89 85 58 fa ff ff 	mov    %rax,-0x5a8(%rbp)
   15414:	48 8d 05 ba f5 00 00 	lea    0xf5ba(%rip),%rax        # 249d5 <g_1911+0x5>
   1541b:	48 89 85 60 fa ff ff 	mov    %rax,-0x5a0(%rbp)
   15422:	48 8d 85 7e e8 ff ff 	lea    -0x1782(%rbp),%rax
   15429:	48 89 85 68 fa ff ff 	mov    %rax,-0x598(%rbp)
   15430:	48 8d 05 fa eb 00 00 	lea    0xebfa(%rip),%rax        # 24031 <g_69+0x1>
   15437:	48 89 85 70 fa ff ff 	mov    %rax,-0x590(%rbp)
   1543e:	48 8d 05 83 f5 00 00 	lea    0xf583(%rip),%rax        # 249c8 <g_1820>
   15445:	48 89 85 78 fa ff ff 	mov    %rax,-0x588(%rbp)
   1544c:	48 8d 05 93 f5 00 00 	lea    0xf593(%rip),%rax        # 249e6 <g_1911+0x16>
   15453:	48 89 85 80 fa ff ff 	mov    %rax,-0x580(%rbp)
   1545a:	48 8d 05 67 f5 00 00 	lea    0xf567(%rip),%rax        # 249c8 <g_1820>
   15461:	48 89 85 88 fa ff ff 	mov    %rax,-0x578(%rbp)
   15468:	48 8d 05 d5 eb 00 00 	lea    0xebd5(%rip),%rax        # 24044 <g_69+0x14>
   1546f:	48 89 85 90 fa ff ff 	mov    %rax,-0x570(%rbp)
   15476:	48 8d 05 5a f5 00 00 	lea    0xf55a(%rip),%rax        # 249d7 <g_1911+0x7>
   1547d:	48 89 85 98 fa ff ff 	mov    %rax,-0x568(%rbp)
   15484:	48 8d 05 3d f5 00 00 	lea    0xf53d(%rip),%rax        # 249c8 <g_1820>
   1548b:	48 89 85 a0 fa ff ff 	mov    %rax,-0x560(%rbp)
   15492:	48 8d 05 a5 eb 00 00 	lea    0xeba5(%rip),%rax        # 2403e <g_69+0xe>
   15499:	48 89 85 a8 fa ff ff 	mov    %rax,-0x558(%rbp)
   154a0:	48 8d 05 2b f5 00 00 	lea    0xf52b(%rip),%rax        # 249d2 <g_1911+0x2>
   154a7:	48 89 85 b0 fa ff ff 	mov    %rax,-0x550(%rbp)
   154ae:	48 c7 85 b8 fa ff ff 	movq   $0x0,-0x548(%rbp)
   154b5:	00 00 00 00 
   154b9:	48 c7 85 c0 fa ff ff 	movq   $0x0,-0x540(%rbp)
   154c0:	00 00 00 00 
   154c4:	48 8d 05 07 f5 00 00 	lea    0xf507(%rip),%rax        # 249d2 <g_1911+0x2>
   154cb:	48 89 85 c8 fa ff ff 	mov    %rax,-0x538(%rbp)
   154d2:	48 8d 05 f7 f4 00 00 	lea    0xf4f7(%rip),%rax        # 249d0 <g_1911>
   154d9:	48 89 85 d0 fa ff ff 	mov    %rax,-0x530(%rbp)
   154e0:	48 8d 05 e1 f4 00 00 	lea    0xf4e1(%rip),%rax        # 249c8 <g_1820>
   154e7:	48 89 85 d8 fa ff ff 	mov    %rax,-0x528(%rbp)
   154ee:	48 c7 85 e0 fa ff ff 	movq   $0x0,-0x520(%rbp)
   154f5:	00 00 00 00 
   154f9:	48 8d 05 42 eb 00 00 	lea    0xeb42(%rip),%rax        # 24042 <g_69+0x12>
   15500:	48 89 85 e8 fa ff ff 	mov    %rax,-0x518(%rbp)
   15507:	48 8d 05 c2 f4 00 00 	lea    0xf4c2(%rip),%rax        # 249d0 <g_1911>
   1550e:	48 89 85 f0 fa ff ff 	mov    %rax,-0x510(%rbp)
   15515:	48 8d 05 25 eb 00 00 	lea    0xeb25(%rip),%rax        # 24041 <g_69+0x11>
   1551c:	48 89 85 f8 fa ff ff 	mov    %rax,-0x508(%rbp)
   15523:	48 c7 85 00 fb ff ff 	movq   $0x0,-0x500(%rbp)
   1552a:	00 00 00 00 
   1552e:	48 8d 05 93 f4 00 00 	lea    0xf493(%rip),%rax        # 249c8 <g_1820>
   15535:	48 89 85 08 fb ff ff 	mov    %rax,-0x4f8(%rbp)
   1553c:	48 8d 05 8f f4 00 00 	lea    0xf48f(%rip),%rax        # 249d2 <g_1911+0x2>
   15543:	48 89 85 10 fb ff ff 	mov    %rax,-0x4f0(%rbp)
   1554a:	48 8d 05 f1 ea 00 00 	lea    0xeaf1(%rip),%rax        # 24042 <g_69+0x12>
   15551:	48 89 85 18 fb ff ff 	mov    %rax,-0x4e8(%rbp)
   15558:	48 8d 05 69 f4 00 00 	lea    0xf469(%rip),%rax        # 249c8 <g_1820>
   1555f:	48 89 85 20 fb ff ff 	mov    %rax,-0x4e0(%rbp)
   15566:	48 8d 05 d5 ea 00 00 	lea    0xead5(%rip),%rax        # 24042 <g_69+0x12>
   1556d:	48 89 85 28 fb ff ff 	mov    %rax,-0x4d8(%rbp)
   15574:	48 8d 05 c9 ea 00 00 	lea    0xeac9(%rip),%rax        # 24044 <g_69+0x14>
   1557b:	48 89 85 30 fb ff ff 	mov    %rax,-0x4d0(%rbp)
   15582:	48 8d 05 b5 ea 00 00 	lea    0xeab5(%rip),%rax        # 2403e <g_69+0xe>
   15589:	48 89 85 38 fb ff ff 	mov    %rax,-0x4c8(%rbp)
   15590:	48 8d 05 4f f4 00 00 	lea    0xf44f(%rip),%rax        # 249e6 <g_1911+0x16>
   15597:	48 89 85 40 fb ff ff 	mov    %rax,-0x4c0(%rbp)
   1559e:	48 c7 85 48 fb ff ff 	movq   $0x0,-0x4b8(%rbp)
   155a5:	00 00 00 00 
   155a9:	48 8d 05 81 ea 00 00 	lea    0xea81(%rip),%rax        # 24031 <g_69+0x1>
   155b0:	48 89 85 50 fb ff ff 	mov    %rax,-0x4b0(%rbp)
   155b7:	48 8d 05 f2 f3 00 00 	lea    0xf3f2(%rip),%rax        # 249b0 <g_1431>
   155be:	48 89 85 58 fb ff ff 	mov    %rax,-0x4a8(%rbp)
   155c5:	48 8d 05 09 f4 00 00 	lea    0xf409(%rip),%rax        # 249d5 <g_1911+0x5>
   155cc:	48 89 85 60 fb ff ff 	mov    %rax,-0x4a0(%rbp)
   155d3:	48 8d 05 68 ea 00 00 	lea    0xea68(%rip),%rax        # 24042 <g_69+0x12>
   155da:	48 89 85 68 fb ff ff 	mov    %rax,-0x498(%rbp)
   155e1:	48 8d 05 44 ea 00 00 	lea    0xea44(%rip),%rax        # 2402c <g_67>
   155e8:	48 89 85 70 fb ff ff 	mov    %rax,-0x490(%rbp)
   155ef:	48 8d 05 ba f3 00 00 	lea    0xf3ba(%rip),%rax        # 249b0 <g_1431>
   155f6:	48 89 85 78 fb ff ff 	mov    %rax,-0x488(%rbp)
   155fd:	48 8d 05 ac f3 00 00 	lea    0xf3ac(%rip),%rax        # 249b0 <g_1431>
   15604:	48 89 85 80 fb ff ff 	mov    %rax,-0x480(%rbp)
   1560b:	48 c7 85 88 fb ff ff 	movq   $0x0,-0x478(%rbp)
   15612:	00 00 00 00 
   15616:	48 8d 85 7e e8 ff ff 	lea    -0x1782(%rbp),%rax
   1561d:	48 89 85 90 fb ff ff 	mov    %rax,-0x470(%rbp)
   15624:	48 8d 05 ad f3 00 00 	lea    0xf3ad(%rip),%rax        # 249d8 <g_1911+0x8>
   1562b:	48 89 85 98 fb ff ff 	mov    %rax,-0x468(%rbp)
   15632:	48 8d 05 ab f3 00 00 	lea    0xf3ab(%rip),%rax        # 249e4 <g_1911+0x14>
   15639:	48 89 85 a0 fb ff ff 	mov    %rax,-0x460(%rbp)
   15640:	48 8d 05 fb e9 00 00 	lea    0xe9fb(%rip),%rax        # 24042 <g_69+0x12>
   15647:	48 89 85 a8 fb ff ff 	mov    %rax,-0x458(%rbp)
   1564e:	48 c7 85 b0 fb ff ff 	movq   $0x0,-0x450(%rbp)
   15655:	00 00 00 00 
   15659:	48 c7 85 b8 fb ff ff 	movq   $0x0,-0x448(%rbp)
   15660:	00 00 00 00 
   15664:	48 8d 05 c1 e9 00 00 	lea    0xe9c1(%rip),%rax        # 2402c <g_67>
   1566b:	48 89 85 c0 fb ff ff 	mov    %rax,-0x440(%rbp)
   15672:	48 8d 05 c9 e9 00 00 	lea    0xe9c9(%rip),%rax        # 24042 <g_69+0x12>
   15679:	48 89 85 c8 fb ff ff 	mov    %rax,-0x438(%rbp)
   15680:	48 8d 05 5f f3 00 00 	lea    0xf35f(%rip),%rax        # 249e6 <g_1911+0x16>
   15687:	48 89 85 d0 fb ff ff 	mov    %rax,-0x430(%rbp)
   1568e:	48 c7 85 d8 fb ff ff 	movq   $0x0,-0x428(%rbp)
   15695:	00 00 00 00 
   15699:	48 8d 05 9e e9 00 00 	lea    0xe99e(%rip),%rax        # 2403e <g_69+0xe>
   156a0:	48 89 85 e0 fb ff ff 	mov    %rax,-0x420(%rbp)
   156a7:	48 8d 05 94 e9 00 00 	lea    0xe994(%rip),%rax        # 24042 <g_69+0x12>
   156ae:	48 89 85 e8 fb ff ff 	mov    %rax,-0x418(%rbp)
   156b5:	48 8d 05 70 e9 00 00 	lea    0xe970(%rip),%rax        # 2402c <g_67>
   156bc:	48 89 85 f0 fb ff ff 	mov    %rax,-0x410(%rbp)
   156c3:	48 c7 85 f8 fb ff ff 	movq   $0x0,-0x408(%rbp)
   156ca:	00 00 00 00 
   156ce:	48 8d 85 7e e8 ff ff 	lea    -0x1782(%rbp),%rax
   156d5:	48 89 85 00 fc ff ff 	mov    %rax,-0x400(%rbp)
   156dc:	48 8d 05 e5 f2 00 00 	lea    0xf2e5(%rip),%rax        # 249c8 <g_1820>
   156e3:	48 89 85 08 fc ff ff 	mov    %rax,-0x3f8(%rbp)
   156ea:	48 8d 85 7e e8 ff ff 	lea    -0x1782(%rbp),%rax
   156f1:	48 89 85 10 fc ff ff 	mov    %rax,-0x3f0(%rbp)
   156f8:	48 8d 05 c9 f2 00 00 	lea    0xf2c9(%rip),%rax        # 249c8 <g_1820>
   156ff:	48 89 85 18 fc ff ff 	mov    %rax,-0x3e8(%rbp)
   15706:	48 8d 05 35 e9 00 00 	lea    0xe935(%rip),%rax        # 24042 <g_69+0x12>
   1570d:	48 89 85 20 fc ff ff 	mov    %rax,-0x3e0(%rbp)
   15714:	48 8d 05 1d e9 00 00 	lea    0xe91d(%rip),%rax        # 24038 <g_69+0x8>
   1571b:	48 89 85 28 fc ff ff 	mov    %rax,-0x3d8(%rbp)
   15722:	48 c7 85 30 fc ff ff 	movq   $0x0,-0x3d0(%rbp)
   15729:	00 00 00 00 
   1572d:	48 8d 05 07 e9 00 00 	lea    0xe907(%rip),%rax        # 2403b <g_69+0xb>
   15734:	48 89 85 38 fc ff ff 	mov    %rax,-0x3c8(%rbp)
   1573b:	48 8d 85 7e e8 ff ff 	lea    -0x1782(%rbp),%rax
   15742:	48 89 85 40 fc ff ff 	mov    %rax,-0x3c0(%rbp)
   15749:	48 8d 05 96 f2 00 00 	lea    0xf296(%rip),%rax        # 249e6 <g_1911+0x16>
   15750:	48 89 85 48 fc ff ff 	mov    %rax,-0x3b8(%rbp)
   15757:	48 8d 05 6a f2 00 00 	lea    0xf26a(%rip),%rax        # 249c8 <g_1820>
   1575e:	48 89 85 50 fc ff ff 	mov    %rax,-0x3b0(%rbp)
   15765:	48 8d 05 c0 e8 00 00 	lea    0xe8c0(%rip),%rax        # 2402c <g_67>
   1576c:	48 89 85 58 fc ff ff 	mov    %rax,-0x3a8(%rbp)
   15773:	48 8d 85 7e e8 ff ff 	lea    -0x1782(%rbp),%rax
   1577a:	48 89 85 60 fc ff ff 	mov    %rax,-0x3a0(%rbp)
   15781:	48 c7 85 68 fc ff ff 	movq   $0x0,-0x398(%rbp)
   15788:	00 00 00 00 
   1578c:	48 8d 85 7e e8 ff ff 	lea    -0x1782(%rbp),%rax
   15793:	48 89 85 70 fc ff ff 	mov    %rax,-0x390(%rbp)
   1579a:	48 8d 05 1f f2 00 00 	lea    0xf21f(%rip),%rax        # 249c0 <g_1691>
   157a1:	48 89 85 78 fc ff ff 	mov    %rax,-0x388(%rbp)
   157a8:	48 c7 85 80 fc ff ff 	movq   $0x0,-0x380(%rbp)
   157af:	00 00 00 00 
   157b3:	48 8d 05 0e f2 00 00 	lea    0xf20e(%rip),%rax        # 249c8 <g_1820>
   157ba:	48 89 85 88 fc ff ff 	mov    %rax,-0x378(%rbp)
   157c1:	48 c7 85 90 fc ff ff 	movq   $0x0,-0x370(%rbp)
   157c8:	00 00 00 00 
   157cc:	48 8d 05 f5 f1 00 00 	lea    0xf1f5(%rip),%rax        # 249c8 <g_1820>
   157d3:	48 89 85 98 fc ff ff 	mov    %rax,-0x368(%rbp)
   157da:	48 8d 05 4b e8 00 00 	lea    0xe84b(%rip),%rax        # 2402c <g_67>
   157e1:	48 89 85 a0 fc ff ff 	mov    %rax,-0x360(%rbp)
   157e8:	48 c7 85 a8 fc ff ff 	movq   $0x0,-0x358(%rbp)
   157ef:	00 00 00 00 
   157f3:	48 8d 85 7e e8 ff ff 	lea    -0x1782(%rbp),%rax
   157fa:	48 89 85 b0 fc ff ff 	mov    %rax,-0x350(%rbp)
   15801:	48 8d 05 b8 f1 00 00 	lea    0xf1b8(%rip),%rax        # 249c0 <g_1691>
   15808:	48 89 85 b8 fc ff ff 	mov    %rax,-0x348(%rbp)
   1580f:	48 8d 05 bc f1 00 00 	lea    0xf1bc(%rip),%rax        # 249d2 <g_1911+0x2>
   15816:	48 89 85 c0 fc ff ff 	mov    %rax,-0x340(%rbp)
   1581d:	48 8d 05 16 e8 00 00 	lea    0xe816(%rip),%rax        # 2403a <g_69+0xa>
   15824:	48 89 85 c8 fc ff ff 	mov    %rax,-0x338(%rbp)
   1582b:	48 8d 05 10 e8 00 00 	lea    0xe810(%rip),%rax        # 24042 <g_69+0x12>
   15832:	48 89 85 d0 fc ff ff 	mov    %rax,-0x330(%rbp)
   15839:	48 c7 85 d8 fc ff ff 	movq   $0x0,-0x328(%rbp)
   15840:	00 00 00 00 
   15844:	48 c7 85 e0 fc ff ff 	movq   $0x0,-0x320(%rbp)
   1584b:	00 00 00 00 
   1584f:	48 8d 05 72 f1 00 00 	lea    0xf172(%rip),%rax        # 249c8 <g_1820>
   15856:	48 89 85 e8 fc ff ff 	mov    %rax,-0x318(%rbp)
   1585d:	48 8d 05 74 f1 00 00 	lea    0xf174(%rip),%rax        # 249d8 <g_1911+0x8>
   15864:	48 89 85 f0 fc ff ff 	mov    %rax,-0x310(%rbp)
   1586b:	48 8d 05 ba e7 00 00 	lea    0xe7ba(%rip),%rax        # 2402c <g_67>
   15872:	48 89 85 f8 fc ff ff 	mov    %rax,-0x308(%rbp)
   15879:	48 8d 05 57 f1 00 00 	lea    0xf157(%rip),%rax        # 249d7 <g_1911+0x7>
   15880:	48 89 85 00 fd ff ff 	mov    %rax,-0x300(%rbp)
   15887:	48 8d 85 7e e8 ff ff 	lea    -0x1782(%rbp),%rax
   1588e:	48 89 85 08 fd ff ff 	mov    %rax,-0x2f8(%rbp)
   15895:	48 c7 85 10 fd ff ff 	movq   $0x0,-0x2f0(%rbp)
   1589c:	00 00 00 00 
   158a0:	48 8d 85 7e e8 ff ff 	lea    -0x1782(%rbp),%rax
   158a7:	48 89 85 18 fd ff ff 	mov    %rax,-0x2e8(%rbp)
   158ae:	48 8d 05 0b f1 00 00 	lea    0xf10b(%rip),%rax        # 249c0 <g_1691>
   158b5:	48 89 85 20 fd ff ff 	mov    %rax,-0x2e0(%rbp)
   158bc:	48 8d 05 1a f1 00 00 	lea    0xf11a(%rip),%rax        # 249dd <g_1911+0xd>
   158c3:	48 89 85 28 fd ff ff 	mov    %rax,-0x2d8(%rbp)
   158ca:	48 8d 05 71 e7 00 00 	lea    0xe771(%rip),%rax        # 24042 <g_69+0x12>
   158d1:	48 89 85 30 fd ff ff 	mov    %rax,-0x2d0(%rbp)
   158d8:	48 c7 85 38 fd ff ff 	movq   $0x0,-0x2c8(%rbp)
   158df:	00 00 00 00 
   158e3:	48 8d 85 7e e8 ff ff 	lea    -0x1782(%rbp),%rax
   158ea:	48 89 85 40 fd ff ff 	mov    %rax,-0x2c0(%rbp)
   158f1:	48 8d 05 df f0 00 00 	lea    0xf0df(%rip),%rax        # 249d7 <g_1911+0x7>
   158f8:	48 89 85 48 fd ff ff 	mov    %rax,-0x2b8(%rbp)
   158ff:	48 8d 05 e0 f0 00 00 	lea    0xf0e0(%rip),%rax        # 249e6 <g_1911+0x16>
   15906:	48 89 85 50 fd ff ff 	mov    %rax,-0x2b0(%rbp)
   1590d:	48 8d 05 9c f0 00 00 	lea    0xf09c(%rip),%rax        # 249b0 <g_1431>
   15914:	48 89 85 58 fd ff ff 	mov    %rax,-0x2a8(%rbp)
   1591b:	48 8d 05 20 e7 00 00 	lea    0xe720(%rip),%rax        # 24042 <g_69+0x12>
   15922:	48 89 85 60 fd ff ff 	mov    %rax,-0x2a0(%rbp)
   15929:	48 8d 05 a2 f0 00 00 	lea    0xf0a2(%rip),%rax        # 249d2 <g_1911+0x2>
   15930:	48 89 85 68 fd ff ff 	mov    %rax,-0x298(%rbp)
   15937:	48 8d 05 ee e6 00 00 	lea    0xe6ee(%rip),%rax        # 2402c <g_67>
   1593e:	48 89 85 70 fd ff ff 	mov    %rax,-0x290(%rbp)
   15945:	48 8d 05 64 f0 00 00 	lea    0xf064(%rip),%rax        # 249b0 <g_1431>
   1594c:	48 89 85 78 fd ff ff 	mov    %rax,-0x288(%rbp)
   15953:	48 8d 05 56 f0 00 00 	lea    0xf056(%rip),%rax        # 249b0 <g_1431>
   1595a:	48 89 85 80 fd ff ff 	mov    %rax,-0x280(%rbp)
   15961:	48 8d 05 c4 e6 00 00 	lea    0xe6c4(%rip),%rax        # 2402c <g_67>
   15968:	48 89 85 88 fd ff ff 	mov    %rax,-0x278(%rbp)
   1596f:	48 8d 05 62 f0 00 00 	lea    0xf062(%rip),%rax        # 249d8 <g_1911+0x8>
   15976:	48 89 85 90 fd ff ff 	mov    %rax,-0x270(%rbp)
   1597d:	48 8d 05 b6 e6 00 00 	lea    0xe6b6(%rip),%rax        # 2403a <g_69+0xa>
   15984:	48 89 85 98 fd ff ff 	mov    %rax,-0x268(%rbp)
   1598b:	48 c7 85 a0 fd ff ff 	movq   $0x0,-0x260(%rbp)
   15992:	00 00 00 00 
   15996:	48 8d 05 33 f0 00 00 	lea    0xf033(%rip),%rax        # 249d0 <g_1911>
   1599d:	48 89 85 a8 fd ff ff 	mov    %rax,-0x258(%rbp)
   159a4:	48 8d 85 7e e8 ff ff 	lea    -0x1782(%rbp),%rax
   159ab:	48 89 85 b0 fd ff ff 	mov    %rax,-0x250(%rbp)
   159b2:	48 c7 85 b8 fd ff ff 	movq   $0x0,-0x248(%rbp)
   159b9:	00 00 00 00 
   159bd:	48 8d 05 7a e6 00 00 	lea    0xe67a(%rip),%rax        # 2403e <g_69+0xe>
   159c4:	48 89 85 c0 fd ff ff 	mov    %rax,-0x240(%rbp)
   159cb:	48 8d 05 70 e6 00 00 	lea    0xe670(%rip),%rax        # 24042 <g_69+0x12>
   159d2:	48 89 85 c8 fd ff ff 	mov    %rax,-0x238(%rbp)
   159d9:	48 8d 05 58 e6 00 00 	lea    0xe658(%rip),%rax        # 24038 <g_69+0x8>
   159e0:	48 89 85 d0 fd ff ff 	mov    %rax,-0x230(%rbp)
   159e7:	48 8d 05 e7 ef 00 00 	lea    0xefe7(%rip),%rax        # 249d5 <g_1911+0x5>
   159ee:	48 89 85 d8 fd ff ff 	mov    %rax,-0x228(%rbp)
   159f5:	48 8d 05 30 e6 00 00 	lea    0xe630(%rip),%rax        # 2402c <g_67>
   159fc:	48 89 85 e0 fd ff ff 	mov    %rax,-0x220(%rbp)
   15a03:	48 8d 05 38 e6 00 00 	lea    0xe638(%rip),%rax        # 24042 <g_69+0x12>
   15a0a:	48 89 85 e8 fd ff ff 	mov    %rax,-0x218(%rbp)
   15a11:	48 8d 05 2a e6 00 00 	lea    0xe62a(%rip),%rax        # 24042 <g_69+0x12>
   15a18:	48 89 85 f0 fd ff ff 	mov    %rax,-0x210(%rbp)
   15a1f:	48 c7 85 f8 fd ff ff 	movq   $0x0,-0x208(%rbp)
   15a26:	00 00 00 00 
   15a2a:	48 8d 05 a1 ef 00 00 	lea    0xefa1(%rip),%rax        # 249d2 <g_1911+0x2>
   15a31:	48 89 85 00 fe ff ff 	mov    %rax,-0x200(%rbp)
   15a38:	48 8d 05 91 ef 00 00 	lea    0xef91(%rip),%rax        # 249d0 <g_1911>
   15a3f:	48 89 85 08 fe ff ff 	mov    %rax,-0x1f8(%rbp)
   15a46:	48 8d 05 f5 e5 00 00 	lea    0xe5f5(%rip),%rax        # 24042 <g_69+0x12>
   15a4d:	48 89 85 10 fe ff ff 	mov    %rax,-0x1f0(%rbp)
   15a54:	48 8d 05 df e5 00 00 	lea    0xe5df(%rip),%rax        # 2403a <g_69+0xa>
   15a5b:	48 89 85 18 fe ff ff 	mov    %rax,-0x1e8(%rbp)
   15a62:	48 8d 85 7e e8 ff ff 	lea    -0x1782(%rbp),%rax
   15a69:	48 89 85 20 fe ff ff 	mov    %rax,-0x1e0(%rbp)
   15a70:	48 8d 05 b5 e5 00 00 	lea    0xe5b5(%rip),%rax        # 2402c <g_67>
   15a77:	48 89 85 28 fe ff ff 	mov    %rax,-0x1d8(%rbp)
   15a7e:	48 8d 05 43 ef 00 00 	lea    0xef43(%rip),%rax        # 249c8 <g_1820>
   15a85:	48 89 85 30 fe ff ff 	mov    %rax,-0x1d0(%rbp)
   15a8c:	48 8d 05 1d ef 00 00 	lea    0xef1d(%rip),%rax        # 249b0 <g_1431>
   15a93:	48 89 85 38 fe ff ff 	mov    %rax,-0x1c8(%rbp)
   15a9a:	48 8d 05 0f ef 00 00 	lea    0xef0f(%rip),%rax        # 249b0 <g_1431>
   15aa1:	48 89 85 40 fe ff ff 	mov    %rax,-0x1c0(%rbp)
   15aa8:	48 8d 05 23 ef 00 00 	lea    0xef23(%rip),%rax        # 249d2 <g_1911+0x2>
   15aaf:	48 89 85 48 fe ff ff 	mov    %rax,-0x1b8(%rbp)
   15ab6:	48 8d 05 85 e5 00 00 	lea    0xe585(%rip),%rax        # 24042 <g_69+0x12>
   15abd:	48 89 85 50 fe ff ff 	mov    %rax,-0x1b0(%rbp)
   15ac4:	48 8d 05 e5 ee 00 00 	lea    0xeee5(%rip),%rax        # 249b0 <g_1431>
   15acb:	48 89 85 58 fe ff ff 	mov    %rax,-0x1a8(%rbp)
   15ad2:	48 8d 05 53 e5 00 00 	lea    0xe553(%rip),%rax        # 2402c <g_67>
   15ad9:	48 89 85 60 fe ff ff 	mov    %rax,-0x1a0(%rbp)
   15ae0:	48 8d 05 f0 ee 00 00 	lea    0xeef0(%rip),%rax        # 249d7 <g_1911+0x7>
   15ae7:	48 89 85 68 fe ff ff 	mov    %rax,-0x198(%rbp)
   15aee:	48 8d 05 4d e5 00 00 	lea    0xe54d(%rip),%rax        # 24042 <g_69+0x12>
   15af5:	48 89 85 70 fe ff ff 	mov    %rax,-0x190(%rbp)
   15afc:	48 c7 85 78 fe ff ff 	movq   $0x0,-0x188(%rbp)
   15b03:	00 00 00 00 
   15b07:	48 8d 05 c2 ee 00 00 	lea    0xeec2(%rip),%rax        # 249d0 <g_1911>
   15b0e:	48 89 85 80 fe ff ff 	mov    %rax,-0x180(%rbp)
   15b15:	48 8d 05 c1 ee 00 00 	lea    0xeec1(%rip),%rax        # 249dd <g_1911+0xd>
   15b1c:	48 89 85 88 fe ff ff 	mov    %rax,-0x178(%rbp)
   15b23:	48 c7 85 90 fe ff ff 	movq   $0x0,-0x170(%rbp)
   15b2a:	00 00 00 00 
   15b2e:	48 8d 85 7e e8 ff ff 	lea    -0x1782(%rbp),%rax
   15b35:	48 89 85 98 fe ff ff 	mov    %rax,-0x168(%rbp)
   15b3c:	48 8d 05 a3 ee 00 00 	lea    0xeea3(%rip),%rax        # 249e6 <g_1911+0x16>
   15b43:	48 89 85 a0 fe ff ff 	mov    %rax,-0x160(%rbp)
   15b4a:	48 8d 85 7e e8 ff ff 	lea    -0x1782(%rbp),%rax
   15b51:	48 89 85 a8 fe ff ff 	mov    %rax,-0x158(%rbp)
   15b58:	48 8d 05 e5 e4 00 00 	lea    0xe4e5(%rip),%rax        # 24044 <g_69+0x14>
   15b5f:	48 89 85 b0 fe ff ff 	mov    %rax,-0x150(%rbp)
   15b66:	48 8d 05 bf e4 00 00 	lea    0xe4bf(%rip),%rax        # 2402c <g_67>
   15b6d:	48 89 85 b8 fe ff ff 	mov    %rax,-0x148(%rbp)
   15b74:	48 8d 85 7e e8 ff ff 	lea    -0x1782(%rbp),%rax
   15b7b:	48 89 85 c0 fe ff ff 	mov    %rax,-0x140(%rbp)
   15b82:	48 8d 05 3f ee 00 00 	lea    0xee3f(%rip),%rax        # 249c8 <g_1820>
   15b89:	48 89 85 c8 fe ff ff 	mov    %rax,-0x138(%rbp)
   15b90:	48 8d 05 ad e4 00 00 	lea    0xe4ad(%rip),%rax        # 24044 <g_69+0x14>
   15b97:	48 89 85 d0 fe ff ff 	mov    %rax,-0x130(%rbp)
   15b9e:	48 c7 85 d8 fe ff ff 	movq   $0x0,-0x128(%rbp)
   15ba5:	00 00 00 00 
   15ba9:	48 c7 85 e0 fe ff ff 	movq   $0x0,-0x120(%rbp)
   15bb0:	00 00 00 00 
   15bb4:	48 8d 05 7f e4 00 00 	lea    0xe47f(%rip),%rax        # 2403a <g_69+0xa>
   15bbb:	48 89 85 e8 fe ff ff 	mov    %rax,-0x118(%rbp)
   15bc2:	48 8d 05 71 e4 00 00 	lea    0xe471(%rip),%rax        # 2403a <g_69+0xa>
   15bc9:	48 89 85 f0 fe ff ff 	mov    %rax,-0x110(%rbp)
   15bd0:	48 8d 05 e9 ed 00 00 	lea    0xede9(%rip),%rax        # 249c0 <g_1691>
   15bd7:	48 89 85 f8 fe ff ff 	mov    %rax,-0x108(%rbp)
   15bde:	48 8d 05 47 e4 00 00 	lea    0xe447(%rip),%rax        # 2402c <g_67>
   15be5:	48 89 85 00 ff ff ff 	mov    %rax,-0x100(%rbp)
   15bec:	48 c7 85 08 ff ff ff 	movq   $0x0,-0xf8(%rbp)
   15bf3:	00 00 00 00 
   15bf7:	48 8d 05 3a e4 00 00 	lea    0xe43a(%rip),%rax        # 24038 <g_69+0x8>
   15bfe:	48 89 85 10 ff ff ff 	mov    %rax,-0xf0(%rbp)
   15c05:	48 8d 05 bc ed 00 00 	lea    0xedbc(%rip),%rax        # 249c8 <g_1820>
   15c0c:	48 89 85 18 ff ff ff 	mov    %rax,-0xe8(%rbp)
   15c13:	48 8d 85 7e e8 ff ff 	lea    -0x1782(%rbp),%rax
   15c1a:	48 89 85 20 ff ff ff 	mov    %rax,-0xe0(%rbp)
   15c21:	48 8d 05 a0 ed 00 00 	lea    0xeda0(%rip),%rax        # 249c8 <g_1820>
   15c28:	48 89 85 28 ff ff ff 	mov    %rax,-0xd8(%rbp)
   15c2f:	48 8d 05 0c e4 00 00 	lea    0xe40c(%rip),%rax        # 24042 <g_69+0x12>
   15c36:	48 89 85 30 ff ff ff 	mov    %rax,-0xd0(%rbp)
   15c3d:	48 8d 05 7c ed 00 00 	lea    0xed7c(%rip),%rax        # 249c0 <g_1691>
   15c44:	48 89 85 38 ff ff ff 	mov    %rax,-0xc8(%rbp)
   15c4b:	48 8d 05 da e3 00 00 	lea    0xe3da(%rip),%rax        # 2402c <g_67>
   15c52:	48 89 85 40 ff ff ff 	mov    %rax,-0xc0(%rbp)
   15c59:	48 c7 85 48 ff ff ff 	movq   $0x0,-0xb8(%rbp)
   15c60:	00 00 00 00 
   15c64:	48 8d 05 d7 e3 00 00 	lea    0xe3d7(%rip),%rax        # 24042 <g_69+0x12>
   15c6b:	48 89 85 50 ff ff ff 	mov    %rax,-0xb0(%rbp)
   15c72:	48 8d 05 b3 e3 00 00 	lea    0xe3b3(%rip),%rax        # 2402c <g_67>
   15c79:	48 89 85 58 ff ff ff 	mov    %rax,-0xa8(%rbp)
   15c80:	48 8d 05 29 ed 00 00 	lea    0xed29(%rip),%rax        # 249b0 <g_1431>
   15c87:	48 89 85 60 ff ff ff 	mov    %rax,-0xa0(%rbp)
   15c8e:	48 8d 05 51 ed 00 00 	lea    0xed51(%rip),%rax        # 249e6 <g_1911+0x16>
   15c95:	48 89 85 68 ff ff ff 	mov    %rax,-0x98(%rbp)
   15c9c:	48 8d 05 9e e3 00 00 	lea    0xe39e(%rip),%rax        # 24041 <g_69+0x11>
   15ca3:	48 89 85 70 ff ff ff 	mov    %rax,-0x90(%rbp)
   15caa:	48 8d 05 8a e3 00 00 	lea    0xe38a(%rip),%rax        # 2403b <g_69+0xb>
   15cb1:	48 89 85 78 ff ff ff 	mov    %rax,-0x88(%rbp)
   15cb8:	48 8d 05 01 ed 00 00 	lea    0xed01(%rip),%rax        # 249c0 <g_1691>
   15cbf:	48 89 45 80          	mov    %rax,-0x80(%rbp)
   15cc3:	48 8d 05 6e e3 00 00 	lea    0xe36e(%rip),%rax        # 24038 <g_69+0x8>
   15cca:	48 89 45 88          	mov    %rax,-0x78(%rbp)
   15cce:	48 8d 85 7e e8 ff ff 	lea    -0x1782(%rbp),%rax
   15cd5:	48 89 45 90          	mov    %rax,-0x70(%rbp)
   15cd9:	48 8d 05 4c e3 00 00 	lea    0xe34c(%rip),%rax        # 2402c <g_67>
   15ce0:	48 89 45 98          	mov    %rax,-0x68(%rbp)
   15ce4:	48 8d 85 7e e8 ff ff 	lea    -0x1782(%rbp),%rax
   15ceb:	48 89 45 a0          	mov    %rax,-0x60(%rbp)
   15cef:	48 8d 05 e1 ec 00 00 	lea    0xece1(%rip),%rax        # 249d7 <g_1911+0x7>
   15cf6:	48 89 45 a8          	mov    %rax,-0x58(%rbp)
   15cfa:	c7 85 ec e8 ff ff ff 	movl   $0xffffffff,-0x1714(%rbp)
   15d01:	ff ff ff 
   15d04:	c7 85 f0 e8 ff ff 02 	movl   $0x2,-0x1710(%rbp)
   15d0b:	00 00 00 
   15d0e:	48 8d 85 70 f1 ff ff 	lea    -0xe90(%rbp),%rax
   15d15:	48 8d 15 24 0a 01 00 	lea    0x10a24(%rip),%rdx        # 26740 <g_5661+0x1a6c>
   15d1c:	b9 c8 00 00 00       	mov    $0xc8,%ecx
   15d21:	48 89 c7             	mov    %rax,%rdi
   15d24:	48 89 d6             	mov    %rdx,%rsi
   15d27:	f3 48 a5             	rep movsq %ds:(%rsi),%es:(%rdi)
   15d2a:	48 8d 05 bf 14 01 00 	lea    0x114bf(%rip),%rax        # 271f0 <g_711>
   15d31:	48 89 85 50 ea ff ff 	mov    %rax,-0x15b0(%rbp)
   15d38:	c7 05 82 ec 00 00 00 	movl   $0x0,0xec82(%rip)        # 249c4 <g_1798>
   15d3f:	00 00 00 
   15d42:	e9 ae 03 00 00       	jmpq   160f5 <func_30+0x3a6a>
   15d47:	c7 85 bc e8 ff ff 02 	movl   $0x2,-0x1744(%rbp)
   15d4e:	00 00 00 
   15d51:	48 8d 05 60 ec 00 00 	lea    0xec60(%rip),%rax        # 249b8 <g_1645>
   15d58:	48 89 85 58 ea ff ff 	mov    %rax,-0x15a8(%rbp)
   15d5f:	48 c7 85 60 ea ff ff 	movq   $0x0,-0x15a0(%rbp)
   15d66:	00 00 00 00 
   15d6a:	48 8d 05 57 22 01 00 	lea    0x12257(%rip),%rax        # 27fc8 <g_1492>
   15d71:	48 89 85 68 ea ff ff 	mov    %rax,-0x1598(%rbp)
   15d78:	c7 85 a4 e8 ff ff 00 	movl   $0x0,-0x175c(%rbp)
   15d7f:	00 00 00 
   15d82:	eb 1e                	jmp    15da2 <func_30+0x3717>
   15d84:	8b 85 a4 e8 ff ff    	mov    -0x175c(%rbp),%eax
   15d8a:	48 98                	cltq   
   15d8c:	48 8d 95 a0 e9 ff ff 	lea    -0x1660(%rbp),%rdx
   15d93:	48 89 94 c5 00 f0 ff 	mov    %rdx,-0x1000(%rbp,%rax,8)
   15d9a:	ff 
   15d9b:	83 85 a4 e8 ff ff 01 	addl   $0x1,-0x175c(%rbp)
   15da2:	83 bd a4 e8 ff ff 09 	cmpl   $0x9,-0x175c(%rbp)
   15da9:	7e d9                	jle    15d84 <func_30+0x36f9>
   15dab:	c7 85 a4 e8 ff ff 00 	movl   $0x0,-0x175c(%rbp)
   15db2:	00 00 00 
   15db5:	eb 1a                	jmp    15dd1 <func_30+0x3746>
   15db7:	8b 85 a4 e8 ff ff    	mov    -0x175c(%rbp),%eax
   15dbd:	48 98                	cltq   
   15dbf:	c7 84 85 90 ed ff ff 	movl   $0x1,-0x1270(%rbp,%rax,4)
   15dc6:	01 00 00 00 
   15dca:	83 85 a4 e8 ff ff 01 	addl   $0x1,-0x175c(%rbp)
   15dd1:	83 bd a4 e8 ff ff 00 	cmpl   $0x0,-0x175c(%rbp)
   15dd8:	7e dd                	jle    15db7 <func_30+0x372c>
   15dda:	66 c7 85 8c e8 ff ff 	movw   $0x0,-0x1774(%rbp)
   15de1:	00 00 
   15de3:	eb 12                	jmp    15df7 <func_30+0x376c>
   15de5:	c7 85 bc e8 ff ff 42 	movl   $0xd2797342,-0x1744(%rbp)
   15dec:	73 79 d2 
   15def:	66 83 85 8c e8 ff ff 	addw   $0x1,-0x1774(%rbp)
   15df6:	01 
   15df7:	66 83 bd 8c e8 ff ff 	cmpw   $0x0,-0x1774(%rbp)
   15dfe:	00 
   15dff:	74 e4                	je     15de5 <func_30+0x375a>
   15e01:	8b 85 bc e8 ff ff    	mov    -0x1744(%rbp),%eax
   15e07:	0f b6 d8             	movzbl %al,%ebx
   15e0a:	44 0f b6 a5 84 e8 ff 	movzbl -0x177c(%rbp),%r12d
   15e11:	ff 
   15e12:	48 8b 05 c7 12 01 00 	mov    0x112c7(%rip),%rax        # 270e0 <g_380>
   15e19:	0f b6 00             	movzbl (%rax),%eax
   15e1c:	44 0f be e8          	movsbl %al,%r13d
   15e20:	44 0f b6 b5 84 e8 ff 	movzbl -0x177c(%rbp),%r14d
   15e27:	ff 
   15e28:	48 8b 05 c1 13 01 00 	mov    0x113c1(%rip),%rax        # 271f0 <g_711>
   15e2f:	0f b7 10             	movzwl (%rax),%edx
   15e32:	83 c2 01             	add    $0x1,%edx
   15e35:	66 89 10             	mov    %dx,(%rax)
   15e38:	0f b7 00             	movzwl (%rax),%eax
   15e3b:	0f b7 c0             	movzwl %ax,%eax
   15e3e:	89 85 5c e8 ff ff    	mov    %eax,-0x17a4(%rbp)
   15e44:	48 8d 05 c5 12 01 00 	lea    0x112c5(%rip),%rax        # 27110 <g_573>
   15e4b:	48 8b 00             	mov    (%rax),%rax
   15e4e:	48 8b 00             	mov    (%rax),%rax
   15e51:	48 89 85 50 e8 ff ff 	mov    %rax,-0x17b0(%rbp)
   15e58:	44 0f b6 bd 84 e8 ff 	movzbl -0x177c(%rbp),%r15d
   15e5f:	ff 
   15e60:	0f b6 95 84 e8 ff ff 	movzbl -0x177c(%rbp),%edx
   15e67:	0f b6 85 84 e8 ff ff 	movzbl -0x177c(%rbp),%eax
   15e6e:	89 d6                	mov    %edx,%esi
   15e70:	89 c7                	mov    %eax,%edi
   15e72:	e8 17 2f ff ff       	callq  8d8e <safe_div_func_uint16_t_u_u>
   15e77:	8b 85 bc e8 ff ff    	mov    -0x1744(%rbp),%eax
   15e7d:	0f be c0             	movsbl %al,%eax
   15e80:	44 89 fe             	mov    %r15d,%esi
   15e83:	89 c7                	mov    %eax,%edi
   15e85:	e8 64 24 ff ff       	callq  82ee <safe_lshift_func_int8_t_s_u>
   15e8a:	0f be c0             	movsbl %al,%eax
   15e8d:	39 85 bc e8 ff ff    	cmp    %eax,-0x1744(%rbp)
   15e93:	0f 9e c0             	setle  %al
   15e96:	0f b6 c0             	movzbl %al,%eax
   15e99:	8b 95 bc e8 ff ff    	mov    -0x1744(%rbp),%edx
   15e9f:	89 d6                	mov    %edx,%esi
   15ea1:	89 c7                	mov    %eax,%edi
   15ea3:	e8 e5 2d ff ff       	callq  8c8d <safe_rshift_func_uint8_t_u_s>
   15ea8:	0f b6 85 83 e8 ff ff 	movzbl -0x177d(%rbp),%eax
   15eaf:	48 8b b5 50 e8 ff ff 	mov    -0x17b0(%rbp),%rsi
   15eb6:	48 89 c7             	mov    %rax,%rdi
   15eb9:	e8 c2 31 ff ff       	callq  9080 <safe_mod_func_uint64_t_u_u>
   15ebe:	0f b6 95 83 e8 ff ff 	movzbl -0x177d(%rbp),%edx
   15ec5:	48 39 d0             	cmp    %rdx,%rax
   15ec8:	0f 94 c0             	sete   %al
   15ecb:	0f b6 c0             	movzbl %al,%eax
   15ece:	0b 85 5c e8 ff ff    	or     -0x17a4(%rbp),%eax
   15ed4:	85 c0                	test   %eax,%eax
   15ed6:	0f 94 c0             	sete   %al
   15ed9:	0f b6 c0             	movzbl %al,%eax
   15edc:	be 01 00 00 00       	mov    $0x1,%esi
   15ee1:	89 c7                	mov    %eax,%edi
   15ee3:	e8 ab 2c ff ff       	callq  8b93 <safe_mul_func_uint8_t_u_u>
   15ee8:	0f b6 c0             	movzbl %al,%eax
   15eeb:	44 89 f6             	mov    %r14d,%esi
   15eee:	89 c7                	mov    %eax,%edi
   15ef0:	e8 de 24 ff ff       	callq  83d3 <safe_sub_func_int16_t_s_s>
   15ef5:	0f b6 85 84 e8 ff ff 	movzbl -0x177c(%rbp),%eax
   15efc:	f7 d0                	not    %eax
   15efe:	0f be c0             	movsbl %al,%eax
   15f01:	44 89 ee             	mov    %r13d,%esi
   15f04:	89 c7                	mov    %eax,%edi
   15f06:	e8 07 23 ff ff       	callq  8212 <safe_mul_func_int8_t_s_s>
   15f0b:	8b 85 bc e8 ff ff    	mov    -0x1744(%rbp),%eax
   15f11:	0f be c0             	movsbl %al,%eax
   15f14:	be 01 00 00 00       	mov    $0x1,%esi
   15f19:	89 c7                	mov    %eax,%edi
   15f1b:	e8 f2 22 ff ff       	callq  8212 <safe_mul_func_int8_t_s_s>
   15f20:	0f b6 85 83 e8 ff ff 	movzbl -0x177d(%rbp),%eax
   15f27:	44 89 e6             	mov    %r12d,%esi
   15f2a:	89 c7                	mov    %eax,%edi
   15f2c:	e8 0c 2e ff ff       	callq  8d3d <safe_mul_func_uint16_t_u_u>
   15f31:	8b 85 bc e8 ff ff    	mov    -0x1744(%rbp),%eax
   15f37:	0f b6 95 84 e8 ff ff 	movzbl -0x177c(%rbp),%edx
   15f3e:	f7 d2                	not    %edx
   15f40:	89 c6                	mov    %eax,%esi
   15f42:	89 d7                	mov    %edx,%edi
   15f44:	e8 dc 2f ff ff       	callq  8f25 <safe_div_func_uint32_t_u_u>
   15f49:	48 8b 15 38 0e 01 00 	mov    0x10e38(%rip),%rdx        # 26d88 <g_146>
   15f50:	8b 12                	mov    (%rdx),%edx
   15f52:	09 d0                	or     %edx,%eax
   15f54:	89 c6                	mov    %eax,%esi
   15f56:	0f b6 85 7e e8 ff ff 	movzbl -0x1782(%rbp),%eax
   15f5d:	0f be d0             	movsbl %al,%edx
   15f60:	0f b6 85 81 e8 ff ff 	movzbl -0x177f(%rbp),%eax
   15f67:	48 98                	cltq   
   15f69:	48 63 d2             	movslq %edx,%rdx
   15f6c:	48 c1 e2 02          	shl    $0x2,%rdx
   15f70:	48 01 c2             	add    %rax,%rdx
   15f73:	48 8d 05 22 e9 00 00 	lea    0xe922(%rip),%rax        # 2489c <g_1028>
   15f7a:	48 01 d0             	add    %rdx,%rax
   15f7d:	0f b6 08             	movzbl (%rax),%ecx
   15f80:	0f b6 85 7e e8 ff ff 	movzbl -0x1782(%rbp),%eax
   15f87:	0f be c0             	movsbl %al,%eax
   15f8a:	0f b6 95 81 e8 ff ff 	movzbl -0x177f(%rbp),%edx
   15f91:	21 ce                	and    %ecx,%esi
   15f93:	48 63 ca             	movslq %edx,%rcx
   15f96:	48 63 f8             	movslq %eax,%rdi
   15f99:	48 c1 e7 02          	shl    $0x2,%rdi
   15f9d:	48 01 cf             	add    %rcx,%rdi
   15fa0:	48 8d 0d f5 e8 00 00 	lea    0xe8f5(%rip),%rcx        # 2489c <g_1028>
   15fa7:	48 01 f9             	add    %rdi,%rcx
   15faa:	40 88 31             	mov    %sil,(%rcx)
   15fad:	48 63 d2             	movslq %edx,%rdx
   15fb0:	48 98                	cltq   
   15fb2:	48 c1 e0 02          	shl    $0x2,%rax
   15fb6:	48 01 c2             	add    %rax,%rdx
   15fb9:	48 8d 05 dc e8 00 00 	lea    0xe8dc(%rip),%rax        # 2489c <g_1028>
   15fc0:	48 01 d0             	add    %rdx,%rax
   15fc3:	0f b6 00             	movzbl (%rax),%eax
   15fc6:	0f b6 c0             	movzbl %al,%eax
   15fc9:	89 de                	mov    %ebx,%esi
   15fcb:	89 c7                	mov    %eax,%edi
   15fcd:	e8 09 2c ff ff       	callq  8bdb <safe_div_func_uint8_t_u_u>
   15fd2:	0f b6 d0             	movzbl %al,%edx
   15fd5:	48 8b 85 68 e8 ff ff 	mov    -0x1798(%rbp),%rax
   15fdc:	8b 00                	mov    (%rax),%eax
   15fde:	39 c2                	cmp    %eax,%edx
   15fe0:	0f 94 c0             	sete   %al
   15fe3:	0f b6 c0             	movzbl %al,%eax
   15fe6:	be 01 00 00 00       	mov    $0x1,%esi
   15feb:	89 c7                	mov    %eax,%edi
   15fed:	e8 9b 2c ff ff       	callq  8c8d <safe_rshift_func_uint8_t_u_s>
   15ff2:	8b 95 e0 eb ff ff    	mov    -0x1420(%rbp),%edx
   15ff8:	0f b6 c0             	movzbl %al,%eax
   15ffb:	31 d0                	xor    %edx,%eax
   15ffd:	89 85 e0 eb ff ff    	mov    %eax,-0x1420(%rbp)
   16003:	8b 85 e0 eb ff ff    	mov    -0x1420(%rbp),%eax
   16009:	0f b6 d0             	movzbl %al,%edx
   1600c:	48 8b 85 28 ea ff ff 	mov    -0x15d8(%rbp),%rax
   16013:	48 8b 00             	mov    (%rax),%rax
   16016:	48 8b 00             	mov    (%rax),%rax
   16019:	48 8b 08             	mov    (%rax),%rcx
   1601c:	48 8b 85 98 e9 ff ff 	mov    -0x1668(%rbp),%rax
   16023:	48 8b 00             	mov    (%rax),%rax
   16026:	48 8b 00             	mov    (%rax),%rax
   16029:	48 39 c1             	cmp    %rax,%rcx
   1602c:	0f 95 c0             	setne  %al
   1602f:	0f b6 c0             	movzbl %al,%eax
   16032:	89 d6                	mov    %edx,%esi
   16034:	89 c7                	mov    %eax,%edi
   16036:	e8 1f 2b ff ff       	callq  8b5a <safe_add_func_uint8_t_u_u>
   1603b:	48 8b 85 40 ff ff ff 	mov    -0xc0(%rbp),%rax
   16042:	48 85 c0             	test   %rax,%rax
   16045:	0f 94 c0             	sete   %al
   16048:	0f b6 d0             	movzbl %al,%edx
   1604b:	0f b6 85 83 e8 ff ff 	movzbl -0x177d(%rbp),%eax
   16052:	39 c2                	cmp    %eax,%edx
   16054:	0f 9f c0             	setg   %al
   16057:	0f b6 c0             	movzbl %al,%eax
   1605a:	be 03 00 00 00       	mov    $0x3,%esi
   1605f:	89 c7                	mov    %eax,%edi
   16061:	e8 28 2d ff ff       	callq  8d8e <safe_div_func_uint16_t_u_u>
   16066:	0f b7 d0             	movzwl %ax,%edx
   16069:	48 8b 85 58 ea ff ff 	mov    -0x15a8(%rbp),%rax
   16070:	48 89 10             	mov    %rdx,(%rax)
   16073:	48 8d 05 b6 11 01 00 	lea    0x111b6(%rip),%rax        # 27230 <g_1226>
   1607a:	48 89 85 70 ea ff ff 	mov    %rax,-0x1590(%rbp)
   16081:	c7 85 f4 e8 ff ff 08 	movl   $0x8,-0x170c(%rbp)
   16088:	00 00 00 
   1608b:	48 8b 85 70 ea ff ff 	mov    -0x1590(%rbp),%rax
   16092:	48 8b 95 68 e8 ff ff 	mov    -0x1798(%rbp),%rdx
   16099:	48 89 10             	mov    %rdx,(%rax)
   1609c:	48 8b 85 70 ea ff ff 	mov    -0x1590(%rbp),%rax
   160a3:	48 8b 00             	mov    (%rax),%rax
   160a6:	48 89 85 40 ea ff ff 	mov    %rax,-0x15c0(%rbp)
   160ad:	48 8b 05 34 13 01 00 	mov    0x11334(%rip),%rax        # 273e8 <g_1983>
   160b4:	48 8b 95 40 ea ff ff 	mov    -0x15c0(%rbp),%rdx
   160bb:	48 89 10             	mov    %rdx,(%rax)
   160be:	48 83 85 60 ea ff ff 	addq   $0x1,-0x15a0(%rbp)
   160c5:	01 
   160c6:	48 8d 05 3b 10 01 00 	lea    0x1103b(%rip),%rax        # 27108 <g_570>
   160cd:	48 89 05 04 13 01 00 	mov    %rax,0x11304(%rip)        # 273d8 <g_1835>
   160d4:	48 8b 05 0d 13 01 00 	mov    0x1130d(%rip),%rax        # 273e8 <g_1983>
   160db:	48 8b 00             	mov    (%rax),%rax
   160de:	8b 00                	mov    (%rax),%eax
   160e0:	89 85 90 ed ff ff    	mov    %eax,-0x1270(%rbp)
   160e6:	8b 05 d8 e8 00 00    	mov    0xe8d8(%rip),%eax        # 249c4 <g_1798>
   160ec:	83 c0 01             	add    $0x1,%eax
   160ef:	89 05 cf e8 00 00    	mov    %eax,0xe8cf(%rip)        # 249c4 <g_1798>
   160f5:	8b 05 c9 e8 00 00    	mov    0xe8c9(%rip),%eax        # 249c4 <g_1798>
   160fb:	85 c0                	test   %eax,%eax
   160fd:	0f 84 44 fc ff ff    	je     15d47 <func_30+0x36bc>
   16103:	0f b6 85 7e e8 ff ff 	movzbl -0x1782(%rbp),%eax
   1610a:	83 c0 01             	add    $0x1,%eax
   1610d:	88 85 7e e8 ff ff    	mov    %al,-0x1782(%rbp)
   16113:	0f b6 85 7e e8 ff ff 	movzbl -0x1782(%rbp),%eax
   1611a:	84 c0                	test   %al,%al
   1611c:	0f 8e 41 ef ff ff    	jle    15063 <func_30+0x29d8>
   16122:	80 85 81 e8 ff ff 01 	addb   $0x1,-0x177f(%rbp)
   16129:	80 bd 81 e8 ff ff 00 	cmpb   $0x0,-0x177f(%rbp)
   16130:	0f 84 c9 ee ff ff    	je     14fff <func_30+0x2974>
   16136:	0f b7 05 63 1e 01 00 	movzwl 0x11e63(%rip),%eax        # 27fa0 <g_527>
   1613d:	83 c0 01             	add    $0x1,%eax
   16140:	66 89 05 59 1e 01 00 	mov    %ax,0x11e59(%rip)        # 27fa0 <g_527>
   16147:	0f b7 05 52 1e 01 00 	movzwl 0x11e52(%rip),%eax        # 27fa0 <g_527>
   1614e:	66 85 c0             	test   %ax,%ax
   16151:	0f 8e c8 de ff ff    	jle    1401f <func_30+0x1994>
   16157:	8b 85 d8 e8 ff ff    	mov    -0x1728(%rbp),%eax
   1615d:	48 8b 5d c8          	mov    -0x38(%rbp),%rbx
   16161:	64 48 33 1c 25 28 00 	xor    %fs:0x28,%rbx
   16168:	00 00 
   1616a:	74 05                	je     16171 <func_30+0x3ae6>
   1616c:	e8 ff 1e ff ff       	callq  8070 <__stack_chk_fail@plt>
   16171:	48 81 c4 88 17 00 00 	add    $0x1788,%rsp
   16178:	5b                   	pop    %rbx
   16179:	41 5c                	pop    %r12
   1617b:	41 5d                	pop    %r13
   1617d:	41 5e                	pop    %r14
   1617f:	41 5f                	pop    %r15
   16181:	5d                   	pop    %rbp
   16182:	c3                   	retq   

0000000000016183 <func_33>:
   16183:	f3 0f 1e fa          	endbr64 
   16187:	55                   	push   %rbp
   16188:	48 89 e5             	mov    %rsp,%rbp
   1618b:	41 57                	push   %r15
   1618d:	41 56                	push   %r14
   1618f:	41 55                	push   %r13
   16191:	41 54                	push   %r12
   16193:	53                   	push   %rbx
   16194:	48 81 ec 48 06 00 00 	sub    $0x648,%rsp
   1619b:	89 f8                	mov    %edi,%eax
   1619d:	48 89 b5 b0 f9 ff ff 	mov    %rsi,-0x650(%rbp)
   161a4:	88 85 bc f9 ff ff    	mov    %al,-0x644(%rbp)
   161aa:	64 48 8b 04 25 28 00 	mov    %fs:0x28,%rax
   161b1:	00 00 
   161b3:	48 89 45 c8          	mov    %rax,-0x38(%rbp)
   161b7:	31 c0                	xor    %eax,%eax
   161b9:	48 c7 85 48 fa ff ff 	movq   $0x0,-0x5b8(%rbp)
   161c0:	00 00 00 00 
   161c4:	48 8d 05 59 de 00 00 	lea    0xde59(%rip),%rax        # 24024 <g_9>
   161cb:	48 89 85 d0 fb ff ff 	mov    %rax,-0x430(%rbp)
   161d2:	48 8d 05 4b de 00 00 	lea    0xde4b(%rip),%rax        # 24024 <g_9>
   161d9:	48 89 85 d8 fb ff ff 	mov    %rax,-0x428(%rbp)
   161e0:	48 8d 05 3d de 00 00 	lea    0xde3d(%rip),%rax        # 24024 <g_9>
   161e7:	48 89 85 e0 fb ff ff 	mov    %rax,-0x420(%rbp)
   161ee:	48 8d 05 2f de 00 00 	lea    0xde2f(%rip),%rax        # 24024 <g_9>
   161f5:	48 89 85 e8 fb ff ff 	mov    %rax,-0x418(%rbp)
   161fc:	48 8d 05 21 de 00 00 	lea    0xde21(%rip),%rax        # 24024 <g_9>
   16203:	48 89 85 f0 fb ff ff 	mov    %rax,-0x410(%rbp)
   1620a:	48 8d 05 13 de 00 00 	lea    0xde13(%rip),%rax        # 24024 <g_9>
   16211:	48 89 85 f8 fb ff ff 	mov    %rax,-0x408(%rbp)
   16218:	48 8d 05 05 de 00 00 	lea    0xde05(%rip),%rax        # 24024 <g_9>
   1621f:	48 89 85 00 fc ff ff 	mov    %rax,-0x400(%rbp)
   16226:	48 8d 05 f7 dd 00 00 	lea    0xddf7(%rip),%rax        # 24024 <g_9>
   1622d:	48 89 85 08 fc ff ff 	mov    %rax,-0x3f8(%rbp)
   16234:	48 8d 05 e9 dd 00 00 	lea    0xdde9(%rip),%rax        # 24024 <g_9>
   1623b:	48 89 85 10 fc ff ff 	mov    %rax,-0x3f0(%rbp)
   16242:	c7 85 e4 f9 ff ff f6 	movl   $0xfffffff6,-0x61c(%rbp)
   16249:	ff ff ff 
   1624c:	c6 85 cc f9 ff ff a8 	movb   $0xa8,-0x634(%rbp)
   16253:	66 c7 85 d0 f9 ff ff 	movw   $0xed2a,-0x630(%rbp)
   1625a:	2a ed 
   1625c:	c7 85 e8 f9 ff ff 13 	movl   $0xad880813,-0x618(%rbp)
   16263:	08 88 ad 
   16266:	66 c7 85 d2 f9 ff ff 	movw   $0x7616,-0x62e(%rbp)
   1626d:	16 76 
   1626f:	48 c7 85 50 fa ff ff 	movq   $0x0,-0x5b0(%rbp)
   16276:	00 00 00 00 
   1627a:	48 c7 85 58 fa ff ff 	movq   $0x0,-0x5a8(%rbp)
   16281:	00 00 00 00 
   16285:	48 8d 05 74 0f 01 00 	lea    0x10f74(%rip),%rax        # 27200 <g_1023>
   1628c:	48 89 85 60 fa ff ff 	mov    %rax,-0x5a0(%rbp)
   16293:	48 8d 05 ce e5 00 00 	lea    0xe5ce(%rip),%rax        # 24868 <g_269>
   1629a:	48 89 85 20 fa ff ff 	mov    %rax,-0x5e0(%rbp)
   162a1:	48 8d 85 20 fa ff ff 	lea    -0x5e0(%rbp),%rax
   162a8:	48 89 85 68 fa ff ff 	mov    %rax,-0x598(%rbp)
   162af:	83 85 e4 f9 ff ff 01 	addl   $0x1,-0x61c(%rbp)
   162b6:	80 8d cc f9 ff ff 07 	orb    $0x7,-0x634(%rbp)
   162bd:	48 8b 05 64 0f 01 00 	mov    0x10f64(%rip),%rax        # 27228 <g_1125>
   162c4:	48 8d 15 1d 0e 01 00 	lea    0x10e1d(%rip),%rdx        # 270e8 <g_379>
   162cb:	48 89 10             	mov    %rdx,(%rax)
   162ce:	c7 05 98 e5 00 00 00 	movl   $0x0,0xe598(%rip)        # 24870 <g_355>
   162d5:	00 00 00 
   162d8:	e9 0a 12 00 00       	jmpq   174e7 <func_33+0x1364>
   162dd:	48 8d 05 5c 0e 01 00 	lea    0x10e5c(%rip),%rax        # 27140 <g_688>
   162e4:	48 89 85 70 fa ff ff 	mov    %rax,-0x590(%rbp)
   162eb:	48 8d 05 16 0f 01 00 	lea    0x10f16(%rip),%rax        # 27208 <g_1022>
   162f2:	48 89 85 28 fa ff ff 	mov    %rax,-0x5d8(%rbp)
   162f9:	c7 85 ec f9 ff ff 00 	movl   $0x0,-0x614(%rbp)
   16300:	00 00 00 
   16303:	48 8d 05 22 dd 00 00 	lea    0xdd22(%rip),%rax        # 2402c <g_67>
   1630a:	48 89 85 78 fa ff ff 	mov    %rax,-0x588(%rbp)
   16311:	66 c7 85 f0 fa ff ff 	movw   $0x1,-0x510(%rbp)
   16318:	01 00 
   1631a:	66 c7 85 f2 fa ff ff 	movw   $0x1640,-0x50e(%rbp)
   16321:	40 16 
   16323:	66 c7 85 f4 fa ff ff 	movw   $0x1640,-0x50c(%rbp)
   1632a:	40 16 
   1632c:	66 c7 85 f6 fa ff ff 	movw   $0x1,-0x50a(%rbp)
   16333:	01 00 
   16335:	66 c7 85 f8 fa ff ff 	movw   $0xffff,-0x508(%rbp)
   1633c:	ff ff 
   1633e:	66 c7 85 fa fa ff ff 	movw   $0x1,-0x506(%rbp)
   16345:	01 00 
   16347:	66 c7 85 fc fa ff ff 	movw   $0x1640,-0x504(%rbp)
   1634e:	40 16 
   16350:	66 c7 85 fe fa ff ff 	movw   $0x1640,-0x502(%rbp)
   16357:	40 16 
   16359:	66 c7 85 00 fb ff ff 	movw   $0x1,-0x500(%rbp)
   16360:	01 00 
   16362:	66 c7 85 02 fb ff ff 	movw   $0xffff,-0x4fe(%rbp)
   16369:	ff ff 
   1636b:	48 8d 85 10 fb ff ff 	lea    -0x4f0(%rbp),%rax
   16372:	48 83 c0 10          	add    $0x10,%rax
   16376:	48 89 85 a0 fb ff ff 	mov    %rax,-0x460(%rbp)
   1637d:	48 8d 85 10 fb ff ff 	lea    -0x4f0(%rbp),%rax
   16384:	48 83 c0 10          	add    $0x10,%rax
   16388:	48 89 85 a8 fb ff ff 	mov    %rax,-0x458(%rbp)
   1638f:	48 8d 85 10 fb ff ff 	lea    -0x4f0(%rbp),%rax
   16396:	48 83 c0 10          	add    $0x10,%rax
   1639a:	48 89 85 b0 fb ff ff 	mov    %rax,-0x450(%rbp)
   163a1:	48 8d 05 d0 e4 00 00 	lea    0xe4d0(%rip),%rax        # 24878 <g_370>
   163a8:	48 89 85 b8 fb ff ff 	mov    %rax,-0x448(%rbp)
   163af:	48 8d 05 c2 e4 00 00 	lea    0xe4c2(%rip),%rax        # 24878 <g_370>
   163b6:	48 89 85 c0 fb ff ff 	mov    %rax,-0x440(%rbp)
   163bd:	48 8d 05 b4 e4 00 00 	lea    0xe4b4(%rip),%rax        # 24878 <g_370>
   163c4:	48 89 85 c8 fb ff ff 	mov    %rax,-0x438(%rbp)
   163cb:	48 b8 b9 58 fd 72 b4 	movabs $0xd86d25b472fd58b9,%rax
   163d2:	25 6d d8 
   163d5:	48 89 85 80 fa ff ff 	mov    %rax,-0x580(%rbp)
   163dc:	48 c7 85 88 fa ff ff 	movq   $0x1,-0x578(%rbp)
   163e3:	01 00 00 00 
   163e7:	48 8d 05 8a e4 00 00 	lea    0xe48a(%rip),%rax        # 24878 <g_370>
   163ee:	48 89 85 90 fa ff ff 	mov    %rax,-0x570(%rbp)
   163f5:	48 c7 85 30 fa ff ff 	movq   $0x0,-0x5d0(%rbp)
   163fc:	00 00 00 00 
   16400:	48 8d 85 30 fa ff ff 	lea    -0x5d0(%rbp),%rax
   16407:	48 89 85 38 fa ff ff 	mov    %rax,-0x5c8(%rbp)
   1640e:	48 8d 85 38 fa ff ff 	lea    -0x5c8(%rbp),%rax
   16415:	48 89 85 40 fa ff ff 	mov    %rax,-0x5c0(%rbp)
   1641c:	c7 85 e0 f9 ff ff 00 	movl   $0x0,-0x620(%rbp)
   16423:	00 00 00 
   16426:	eb 1a                	jmp    16442 <func_33+0x2bf>
   16428:	8b 85 e0 f9 ff ff    	mov    -0x620(%rbp),%eax
   1642e:	48 98                	cltq   
   16430:	c7 84 85 10 fb ff ff 	movl   $0xc717d4c,-0x4f0(%rbp,%rax,4)
   16437:	4c 7d 71 0c 
   1643b:	83 85 e0 f9 ff ff 01 	addl   $0x1,-0x620(%rbp)
   16442:	83 bd e0 f9 ff ff 05 	cmpl   $0x5,-0x620(%rbp)
   16449:	7e dd                	jle    16428 <func_33+0x2a5>
   1644b:	c7 05 d3 db 00 00 00 	movl   $0x0,0xdbd3(%rip)        # 24028 <g_62>
   16452:	00 00 00 
   16455:	90                   	nop
   16456:	8b 05 cc db 00 00    	mov    0xdbcc(%rip),%eax        # 24028 <g_62>
   1645c:	83 f8 02             	cmp    $0x2,%eax
   1645f:	7f 0c                	jg     1646d <func_33+0x2ea>
   16461:	48 8b 85 48 fa ff ff 	mov    -0x5b8(%rbp),%rax
   16468:	e9 90 10 00 00       	jmpq   174fd <func_33+0x137a>
   1646d:	48 8b 85 b0 f9 ff ff 	mov    -0x650(%rbp),%rax
   16474:	0f b6 d8             	movzbl %al,%ebx
   16477:	48 8b 85 b0 f9 ff ff 	mov    -0x650(%rbp),%rax
   1647e:	0f be d0             	movsbl %al,%edx
   16481:	48 8b 85 28 fa ff ff 	mov    -0x5d8(%rbp),%rax
   16488:	48 c7 00 00 00 00 00 	movq   $0x0,(%rax)
   1648f:	48 8b 05 92 0d 01 00 	mov    0x10d92(%rip),%rax        # 27228 <g_1125>
   16496:	48 8b 00             	mov    (%rax),%rax
   16499:	48 8b 00             	mov    (%rax),%rax
   1649c:	48 85 c0             	test   %rax,%rax
   1649f:	0f 95 c0             	setne  %al
   164a2:	0f b6 c0             	movzbl %al,%eax
   164a5:	80 bd bc f9 ff ff 00 	cmpb   $0x0,-0x644(%rbp)
   164ac:	74 10                	je     164be <func_33+0x33b>
   164ae:	83 bd ec f9 ff ff 00 	cmpl   $0x0,-0x614(%rbp)
   164b5:	74 07                	je     164be <func_33+0x33b>
   164b7:	b9 01 00 00 00       	mov    $0x1,%ecx
   164bc:	eb 05                	jmp    164c3 <func_33+0x340>
   164be:	b9 00 00 00 00       	mov    $0x0,%ecx
   164c3:	23 8d ec f9 ff ff    	and    -0x614(%rbp),%ecx
   164c9:	48 63 f1             	movslq %ecx,%rsi
   164cc:	48 8b 8d b0 f9 ff ff 	mov    -0x650(%rbp),%rcx
   164d3:	48 09 f1             	or     %rsi,%rcx
   164d6:	48 39 c8             	cmp    %rcx,%rax
   164d9:	0f 94 c0             	sete   %al
   164dc:	0f b6 c8             	movzbl %al,%ecx
   164df:	48 8b 85 b0 f9 ff ff 	mov    -0x650(%rbp),%rax
   164e6:	48 39 c1             	cmp    %rax,%rcx
   164e9:	0f 9e c0             	setle  %al
   164ec:	0f b6 c8             	movzbl %al,%ecx
   164ef:	48 8b 85 78 fa ff ff 	mov    -0x588(%rbp),%rax
   164f6:	0f b6 00             	movzbl (%rax),%eax
   164f9:	09 c1                	or     %eax,%ecx
   164fb:	48 8b 85 78 fa ff ff 	mov    -0x588(%rbp),%rax
   16502:	88 08                	mov    %cl,(%rax)
   16504:	48 8b 85 78 fa ff ff 	mov    -0x588(%rbp),%rax
   1650b:	0f b6 00             	movzbl (%rax),%eax
   1650e:	0f be c0             	movsbl %al,%eax
   16511:	89 d6                	mov    %edx,%esi
   16513:	89 c7                	mov    %eax,%edi
   16515:	e8 17 1d ff ff       	callq  8231 <safe_mod_func_int8_t_s_s>
   1651a:	66 98                	cbtw   
   1651c:	0f b7 d0             	movzwl %ax,%edx
   1651f:	48 8b 05 ca 0c 01 00 	mov    0x10cca(%rip),%rax        # 271f0 <g_711>
   16526:	66 c7 00 00 00       	movw   $0x0,(%rax)
   1652b:	48 83 bd 70 fa ff ff 	cmpq   $0x0,-0x590(%rbp)
   16532:	00 
   16533:	0f 95 c0             	setne  %al
   16536:	0f b6 c0             	movzbl %al,%eax
   16539:	89 d6                	mov    %edx,%esi
   1653b:	89 c7                	mov    %eax,%edi
   1653d:	e8 bd 27 ff ff       	callq  8cff <safe_add_func_uint16_t_u_u>
   16542:	0f b6 c0             	movzbl %al,%eax
   16545:	89 de                	mov    %ebx,%esi
   16547:	89 c7                	mov    %eax,%edi
   16549:	e8 0c 26 ff ff       	callq  8b5a <safe_add_func_uint8_t_u_u>
   1654e:	84 c0                	test   %al,%al
   16550:	75 09                	jne    1655b <func_33+0x3d8>
   16552:	83 bd ec f9 ff ff 00 	cmpl   $0x0,-0x614(%rbp)
   16559:	74 07                	je     16562 <func_33+0x3df>
   1655b:	ba 01 00 00 00       	mov    $0x1,%edx
   16560:	eb 05                	jmp    16567 <func_33+0x3e4>
   16562:	ba 00 00 00 00       	mov    $0x0,%edx
   16567:	48 8b 05 92 0c 01 00 	mov    0x10c92(%rip),%rax        # 27200 <g_1023>
   1656e:	0f b6 00             	movzbl (%rax),%eax
   16571:	0f b6 c0             	movzbl %al,%eax
   16574:	39 c2                	cmp    %eax,%edx
   16576:	0f 9e c0             	setle  %al
   16579:	0f b6 c0             	movzbl %al,%eax
   1657c:	be 01 00 00 00       	mov    $0x1,%esi
   16581:	89 c7                	mov    %eax,%edi
   16583:	e8 59 1f ff ff       	callq  84e1 <safe_lshift_func_int16_t_s_u>
   16588:	0f b6 85 bc f9 ff ff 	movzbl -0x644(%rbp),%eax
   1658f:	8b 95 20 fb ff ff    	mov    -0x4e0(%rbp),%edx
   16595:	0f be c0             	movsbl %al,%eax
   16598:	21 d0                	and    %edx,%eax
   1659a:	89 85 20 fb ff ff    	mov    %eax,-0x4e0(%rbp)
   165a0:	83 bd ec f9 ff ff 00 	cmpl   $0x0,-0x614(%rbp)
   165a7:	0f 85 2a 0f 00 00    	jne    174d7 <func_33+0x1354>
   165ad:	66 c7 05 be e2 00 00 	movw   $0x0,0xe2be(%rip)        # 24874 <g_368>
   165b4:	00 00 
   165b6:	90                   	nop
   165b7:	0f b7 05 b6 e2 00 00 	movzwl 0xe2b6(%rip),%eax        # 24874 <g_368>
   165be:	66 83 f8 02          	cmp    $0x2,%ax
   165c2:	0f 87 10 0f 00 00    	ja     174d8 <func_33+0x1355>
   165c8:	c6 85 cd f9 ff ff 09 	movb   $0x9,-0x633(%rbp)
   165cf:	48 8d 05 c2 e2 00 00 	lea    0xe2c2(%rip),%rax        # 24898 <g_989>
   165d6:	48 89 85 98 fa ff ff 	mov    %rax,-0x568(%rbp)
   165dd:	48 b8 38 74 e7 77 54 	movabs $0xc977925477e77438,%rax
   165e4:	92 77 c9 
   165e7:	48 89 85 a0 fa ff ff 	mov    %rax,-0x560(%rbp)
   165ee:	c6 85 cb f9 ff ff fc 	movb   $0xfc,-0x635(%rbp)
   165f5:	48 8d 05 f4 0b 01 00 	lea    0x10bf4(%rip),%rax        # 271f0 <g_711>
   165fc:	48 89 85 50 fb ff ff 	mov    %rax,-0x4b0(%rbp)
   16603:	48 8d 05 e6 0b 01 00 	lea    0x10be6(%rip),%rax        # 271f0 <g_711>
   1660a:	48 89 85 58 fb ff ff 	mov    %rax,-0x4a8(%rbp)
   16611:	48 8d 05 d8 0b 01 00 	lea    0x10bd8(%rip),%rax        # 271f0 <g_711>
   16618:	48 89 85 60 fb ff ff 	mov    %rax,-0x4a0(%rbp)
   1661f:	48 8d 05 ca 0b 01 00 	lea    0x10bca(%rip),%rax        # 271f0 <g_711>
   16626:	48 89 85 68 fb ff ff 	mov    %rax,-0x498(%rbp)
   1662d:	66 c7 85 d4 f9 ff ff 	movw   $0x0,-0x62c(%rbp)
   16634:	00 00 
   16636:	48 8d 85 60 fe ff ff 	lea    -0x1a0(%rbp),%rax
   1663d:	48 8d 15 7c 8f 00 00 	lea    0x8f7c(%rip),%rdx        # 1f5c0 <g_5653+0x251f>
   16644:	b9 2d 00 00 00       	mov    $0x2d,%ecx
   16649:	48 89 c7             	mov    %rax,%rdi
   1664c:	48 89 d6             	mov    %rdx,%rsi
   1664f:	f3 48 a5             	rep movsq %ds:(%rsi),%es:(%rdi)
   16652:	c7 85 dc f9 ff ff 00 	movl   $0x0,-0x624(%rbp)
   16659:	00 00 00 
   1665c:	eb 1a                	jmp    16678 <func_33+0x4f5>
   1665e:	8b 85 dc f9 ff ff    	mov    -0x624(%rbp),%eax
   16664:	48 98                	cltq   
   16666:	c7 84 85 70 fb ff ff 	movl   $0xffffffff,-0x490(%rbp,%rax,4)
   1666d:	ff ff ff ff 
   16671:	83 85 dc f9 ff ff 01 	addl   $0x1,-0x624(%rbp)
   16678:	83 bd dc f9 ff ff 08 	cmpl   $0x8,-0x624(%rbp)
   1667f:	7e dd                	jle    1665e <func_33+0x4db>
   16681:	0f b7 85 fa fa ff ff 	movzwl -0x506(%rbp),%eax
   16688:	83 c0 01             	add    $0x1,%eax
   1668b:	66 89 85 fa fa ff ff 	mov    %ax,-0x506(%rbp)
   16692:	66 c7 05 05 19 01 00 	movw   $0x2,0x11905(%rip)        # 27fa0 <g_527>
   16699:	02 00 
   1669b:	e9 1b 0e 00 00       	jmpq   174bb <func_33+0x1338>
   166a0:	66 c7 85 ce f9 ff ff 	movw   $0x1,-0x632(%rbp)
   166a7:	01 00 
   166a9:	48 8d 05 b8 e1 00 00 	lea    0xe1b8(%rip),%rax        # 24868 <g_269>
   166b0:	48 89 85 a8 fa ff ff 	mov    %rax,-0x558(%rbp)
   166b7:	c7 85 f0 f9 ff ff 06 	movl   $0x6,-0x610(%rbp)
   166be:	00 00 00 
   166c1:	66 c7 85 d6 f9 ff ff 	movw   $0x1,-0x62a(%rbp)
   166c8:	01 00 
   166ca:	48 8d 85 40 fd ff ff 	lea    -0x2c0(%rbp),%rax
   166d1:	48 8d 15 68 90 00 00 	lea    0x9068(%rip),%rdx        # 1f740 <g_5653+0x269f>
   166d8:	b9 24 00 00 00       	mov    $0x24,%ecx
   166dd:	48 89 c7             	mov    %rax,%rdi
   166e0:	48 89 d6             	mov    %rdx,%rsi
   166e3:	f3 48 a5             	rep movsq %ds:(%rsi),%es:(%rdi)
   166e6:	c6 05 a3 e1 00 00 00 	movb   $0x0,0xe1a3(%rip)        # 24890 <g_590>
   166ed:	eb 60                	jmp    1674f <func_33+0x5cc>
   166ef:	66 83 ad ce f9 ff ff 	subw   $0x1,-0x632(%rbp)
   166f6:	01 
   166f7:	48 8b 05 ba 18 01 00 	mov    0x118ba(%rip),%rax        # 27fb8 <g_1148+0x8>
   166fe:	48 85 c0             	test   %rax,%rax
   16701:	0f 95 c0             	setne  %al
   16704:	0f b6 c0             	movzbl %al,%eax
   16707:	f7 d0                	not    %eax
   16709:	89 85 8c fb ff ff    	mov    %eax,-0x474(%rbp)
   1670f:	c7 05 7f e1 00 00 04 	movl   $0x4,0xe17f(%rip)        # 24898 <g_989>
   16716:	00 00 00 
   16719:	eb 1a                	jmp    16735 <func_33+0x5b2>
   1671b:	48 c7 85 a8 fb ff ff 	movq   $0x0,-0x458(%rbp)
   16722:	00 00 00 00 
   16726:	8b 05 6c e1 00 00    	mov    0xe16c(%rip),%eax        # 24898 <g_989>
   1672c:	83 e8 01             	sub    $0x1,%eax
   1672f:	89 05 63 e1 00 00    	mov    %eax,0xe163(%rip)        # 24898 <g_989>
   16735:	8b 05 5d e1 00 00    	mov    0xe15d(%rip),%eax        # 24898 <g_989>
   1673b:	85 c0                	test   %eax,%eax
   1673d:	79 dc                	jns    1671b <func_33+0x598>
   1673f:	0f b6 05 4a e1 00 00 	movzbl 0xe14a(%rip),%eax        # 24890 <g_590>
   16746:	83 c0 01             	add    $0x1,%eax
   16749:	88 05 41 e1 00 00    	mov    %al,0xe141(%rip)        # 24890 <g_590>
   1674f:	0f b6 05 3a e1 00 00 	movzbl 0xe13a(%rip),%eax        # 24890 <g_590>
   16756:	3c 05                	cmp    $0x5,%al
   16758:	76 95                	jbe    166ef <func_33+0x56c>
   1675a:	48 8b 85 a8 fa ff ff 	mov    -0x558(%rbp),%rax
   16761:	0f b7 00             	movzwl (%rax),%eax
   16764:	89 c7                	mov    %eax,%edi
   16766:	8b 05 04 e1 00 00    	mov    0xe104(%rip),%eax        # 24870 <g_355>
   1676c:	8d 48 03             	lea    0x3(%rax),%ecx
   1676f:	8b 05 fb e0 00 00    	mov    0xe0fb(%rip),%eax        # 24870 <g_355>
   16775:	0f b7 15 24 18 01 00 	movzwl 0x11824(%rip),%edx        # 27fa0 <g_527>
   1677c:	0f bf d2             	movswl %dx,%edx
   1677f:	83 c2 02             	add    $0x2,%edx
   16782:	48 63 f2             	movslq %edx,%rsi
   16785:	48 63 d1             	movslq %ecx,%rdx
   16788:	48 63 c8             	movslq %eax,%rcx
   1678b:	48 89 d0             	mov    %rdx,%rax
   1678e:	48 c1 e0 02          	shl    $0x2,%rax
   16792:	48 01 d0             	add    %rdx,%rax
   16795:	48 01 c0             	add    %rax,%rax
   16798:	48 89 ca             	mov    %rcx,%rdx
   1679b:	48 c1 e2 02          	shl    $0x2,%rdx
   1679f:	48 01 ca             	add    %rcx,%rdx
   167a2:	48 01 d0             	add    %rdx,%rax
   167a5:	48 01 f0             	add    %rsi,%rax
   167a8:	48 8d 14 85 00 00 00 	lea    0x0(,%rax,4),%rdx
   167af:	00 
   167b0:	48 8d 05 a9 d8 00 00 	lea    0xd8a9(%rip),%rax        # 24060 <g_108>
   167b7:	8b 04 02             	mov    (%rdx,%rax,1),%eax
   167ba:	21 f8                	and    %edi,%eax
   167bc:	89 c2                	mov    %eax,%edx
   167be:	48 8b 85 a8 fa ff ff 	mov    -0x558(%rbp),%rax
   167c5:	66 89 10             	mov    %dx,(%rax)
   167c8:	48 8b 85 a8 fa ff ff 	mov    -0x558(%rbp),%rax
   167cf:	0f b7 00             	movzwl (%rax),%eax
   167d2:	98                   	cwtl   
   167d3:	be 09 00 00 00       	mov    $0x9,%esi
   167d8:	89 c7                	mov    %eax,%edi
   167da:	e8 84 1d ff ff       	callq  8563 <safe_rshift_func_int16_t_s_u>
   167df:	41 89 c5             	mov    %eax,%r13d
   167e2:	8b 05 88 e0 00 00    	mov    0xe088(%rip),%eax        # 24870 <g_355>
   167e8:	8d 48 03             	lea    0x3(%rax),%ecx
   167eb:	8b 05 7f e0 00 00    	mov    0xe07f(%rip),%eax        # 24870 <g_355>
   167f1:	0f b7 15 a8 17 01 00 	movzwl 0x117a8(%rip),%edx        # 27fa0 <g_527>
   167f8:	0f bf d2             	movswl %dx,%edx
   167fb:	83 c2 02             	add    $0x2,%edx
   167fe:	48 63 f2             	movslq %edx,%rsi
   16801:	48 63 d1             	movslq %ecx,%rdx
   16804:	48 63 c8             	movslq %eax,%rcx
   16807:	48 89 d0             	mov    %rdx,%rax
   1680a:	48 c1 e0 02          	shl    $0x2,%rax
   1680e:	48 01 d0             	add    %rdx,%rax
   16811:	48 01 c0             	add    %rax,%rax
   16814:	48 89 ca             	mov    %rcx,%rdx
   16817:	48 c1 e2 02          	shl    $0x2,%rdx
   1681b:	48 01 ca             	add    %rcx,%rdx
   1681e:	48 01 d0             	add    %rdx,%rax
   16821:	48 01 f0             	add    %rsi,%rax
   16824:	48 8d 14 85 00 00 00 	lea    0x0(,%rax,4),%rdx
   1682b:	00 
   1682c:	48 8d 05 2d d8 00 00 	lea    0xd82d(%rip),%rax        # 24060 <g_108>
   16833:	8b 1c 02             	mov    (%rdx,%rax,1),%ebx
   16836:	8b 05 34 e0 00 00    	mov    0xe034(%rip),%eax        # 24870 <g_355>
   1683c:	8d 48 03             	lea    0x3(%rax),%ecx
   1683f:	8b 05 2b e0 00 00    	mov    0xe02b(%rip),%eax        # 24870 <g_355>
   16845:	0f b7 15 54 17 01 00 	movzwl 0x11754(%rip),%edx        # 27fa0 <g_527>
   1684c:	0f bf d2             	movswl %dx,%edx
   1684f:	83 c2 02             	add    $0x2,%edx
   16852:	48 63 f2             	movslq %edx,%rsi
   16855:	48 63 d1             	movslq %ecx,%rdx
   16858:	48 63 c8             	movslq %eax,%rcx
   1685b:	48 89 d0             	mov    %rdx,%rax
   1685e:	48 c1 e0 02          	shl    $0x2,%rax
   16862:	48 01 d0             	add    %rdx,%rax
   16865:	48 01 c0             	add    %rax,%rax
   16868:	48 89 ca             	mov    %rcx,%rdx
   1686b:	48 c1 e2 02          	shl    $0x2,%rdx
   1686f:	48 01 ca             	add    %rcx,%rdx
   16872:	48 01 d0             	add    %rdx,%rax
   16875:	48 01 f0             	add    %rsi,%rax
   16878:	48 8d 14 85 00 00 00 	lea    0x0(,%rax,4),%rdx
   1687f:	00 
   16880:	48 8d 05 d9 d7 00 00 	lea    0xd7d9(%rip),%rax        # 24060 <g_108>
   16887:	8b 04 02             	mov    (%rdx,%rax,1),%eax
   1688a:	89 c2                	mov    %eax,%edx
   1688c:	48 8b 05 7d 08 01 00 	mov    0x1087d(%rip),%rax        # 27110 <g_573>
   16893:	48 c7 00 00 00 00 00 	movq   $0x0,(%rax)
   1689a:	48 8b 00             	mov    (%rax),%rax
   1689d:	48 89 d6             	mov    %rdx,%rsi
   168a0:	48 89 c7             	mov    %rax,%rdi
   168a3:	e8 99 1f ff ff       	callq  8841 <safe_add_func_int64_t_s_s>
   168a8:	48 3d 33 23 00 00    	cmp    $0x2333,%rax
   168ae:	74 10                	je     168c0 <func_33+0x73d>
   168b0:	80 bd cd f9 ff ff 00 	cmpb   $0x0,-0x633(%rbp)
   168b7:	74 07                	je     168c0 <func_33+0x73d>
   168b9:	b8 01 00 00 00       	mov    $0x1,%eax
   168be:	eb 05                	jmp    168c5 <func_33+0x742>
   168c0:	b8 00 00 00 00       	mov    $0x0,%eax
   168c5:	89 85 78 fb ff ff    	mov    %eax,-0x488(%rbp)
   168cb:	8b 85 78 fb ff ff    	mov    -0x488(%rbp),%eax
   168d1:	0a 85 bc f9 ff ff    	or     -0x644(%rbp),%al
   168d7:	83 e0 f7             	and    $0xfffffff7,%eax
   168da:	44 0f be e0          	movsbl %al,%r12d
   168de:	44 0f b7 b5 ce f9 ff 	movzwl -0x632(%rbp),%r14d
   168e5:	ff 
   168e6:	0f be 85 cd f9 ff ff 	movsbl -0x633(%rbp),%eax
   168ed:	89 85 f0 f9 ff ff    	mov    %eax,-0x610(%rbp)
   168f3:	8b 85 f0 f9 ff ff    	mov    -0x610(%rbp),%eax
   168f9:	f7 d0                	not    %eax
   168fb:	98                   	cwtl   
   168fc:	be 02 00 00 00       	mov    $0x2,%esi
   16901:	89 c7                	mov    %eax,%edi
   16903:	e8 5b 1c ff ff       	callq  8563 <safe_rshift_func_int16_t_s_u>
   16908:	0f bf f0             	movswl %ax,%esi
   1690b:	0f b7 05 62 df 00 00 	movzwl 0xdf62(%rip),%eax        # 24874 <g_368>
   16912:	0f b7 c0             	movzwl %ax,%eax
   16915:	8d 48 02             	lea    0x2(%rax),%ecx
   16918:	0f b7 05 55 df 00 00 	movzwl 0xdf55(%rip),%eax        # 24874 <g_368>
   1691f:	0f b7 d0             	movzwl %ax,%edx
   16922:	0f b7 05 4b df 00 00 	movzwl 0xdf4b(%rip),%eax        # 24874 <g_368>
   16929:	0f b7 c0             	movzwl %ax,%eax
   1692c:	83 c0 01             	add    $0x1,%eax
   1692f:	48 63 f8             	movslq %eax,%rdi
   16932:	48 63 c1             	movslq %ecx,%rax
   16935:	48 63 ca             	movslq %edx,%rcx
   16938:	48 89 c2             	mov    %rax,%rdx
   1693b:	48 c1 e2 03          	shl    $0x3,%rdx
   1693f:	48 01 c2             	add    %rax,%rdx
   16942:	48 8d 04 12          	lea    (%rdx,%rdx,1),%rax
   16946:	48 89 c2             	mov    %rax,%rdx
   16949:	48 89 c8             	mov    %rcx,%rax
   1694c:	48 01 c0             	add    %rax,%rax
   1694f:	48 01 c8             	add    %rcx,%rax
   16952:	48 01 c0             	add    %rax,%rax
   16955:	48 01 d0             	add    %rdx,%rax
   16958:	48 01 f8             	add    %rdi,%rax
   1695b:	48 8d 14 c5 00 00 00 	lea    0x0(,%rax,8),%rdx
   16962:	00 
   16963:	48 8d 05 96 04 01 00 	lea    0x10496(%rip),%rax        # 26e00 <g_358>
   1696a:	48 8b 04 02          	mov    (%rdx,%rax,1),%rax
   1696e:	48 85 c0             	test   %rax,%rax
   16971:	0f 94 c0             	sete   %al
   16974:	0f b6 c0             	movzbl %al,%eax
   16977:	21 f0                	and    %esi,%eax
   16979:	41 39 c6             	cmp    %eax,%r14d
   1697c:	0f 9c c0             	setl   %al
   1697f:	0f b6 c0             	movzbl %al,%eax
   16982:	44 89 e6             	mov    %r12d,%esi
   16985:	89 c7                	mov    %eax,%edi
   16987:	e8 86 18 ff ff       	callq  8212 <safe_mul_func_int8_t_s_s>
   1698c:	0f be c0             	movsbl %al,%eax
   1698f:	89 de                	mov    %ebx,%esi
   16991:	89 c7                	mov    %eax,%edi
   16993:	e8 d4 19 ff ff       	callq  836c <safe_rshift_func_int8_t_s_u>
   16998:	66 98                	cbtw   
   1699a:	66 41 39 c5          	cmp    %ax,%r13w
   1699e:	0f 94 c0             	sete   %al
   169a1:	0f b6 d0             	movzbl %al,%edx
   169a4:	48 8b 05 55 08 01 00 	mov    0x10855(%rip),%rax        # 27200 <g_1023>
   169ab:	0f b6 00             	movzbl (%rax),%eax
   169ae:	0f b6 c0             	movzbl %al,%eax
   169b1:	39 c2                	cmp    %eax,%edx
   169b3:	0f 8c e5 01 00 00    	jl     16b9e <func_33+0xa1b>
   169b9:	66 c7 85 da f9 ff ff 	movw   $0xd33b,-0x626(%rbp)
   169c0:	3b d3 
   169c2:	c7 85 14 fa ff ff 15 	movl   $0xb1095615,-0x5ec(%rbp)
   169c9:	56 09 b1 
   169cc:	c7 05 96 de 00 00 00 	movl   $0x0,0xde96(%rip)        # 2486c <g_321>
   169d3:	00 00 00 
   169d6:	90                   	nop
   169d7:	8b 05 8f de 00 00    	mov    0xde8f(%rip),%eax        # 2486c <g_321>
   169dd:	83 f8 02             	cmp    $0x2,%eax
   169e0:	0f 87 a8 06 00 00    	ja     1708e <func_33+0xf0b>
   169e6:	c7 85 18 fa ff ff 00 	movl   $0x0,-0x5e8(%rbp)
   169ed:	00 00 00 
   169f0:	48 c7 85 c8 fa ff ff 	movq   $0x0,-0x538(%rbp)
   169f7:	00 00 00 00 
   169fb:	0f b7 9d da f9 ff ff 	movzwl -0x626(%rbp),%ebx
   16a02:	8b 85 8c fb ff ff    	mov    -0x474(%rbp),%eax
   16a08:	4c 63 e0             	movslq %eax,%r12
   16a0b:	48 8b 05 ae 11 01 00 	mov    0x111ae(%rip),%rax        # 27bc0 <g_183>
   16a12:	44 0f bf e8          	movswl %ax,%r13d
   16a16:	48 8b 05 e3 07 01 00 	mov    0x107e3(%rip),%rax        # 27200 <g_1023>
   16a1d:	0f b6 10             	movzbl (%rax),%edx
   16a20:	83 ea 01             	sub    $0x1,%edx
   16a23:	88 10                	mov    %dl,(%rax)
   16a25:	0f b6 00             	movzbl (%rax),%eax
   16a28:	84 c0                	test   %al,%al
   16a2a:	48 8b 05 bf 07 01 00 	mov    0x107bf(%rip),%rax        # 271f0 <g_711>
   16a31:	0f b7 00             	movzwl (%rax),%eax
   16a34:	44 0f b7 f0          	movzwl %ax,%r14d
   16a38:	8b 85 70 fb ff ff    	mov    -0x490(%rbp),%eax
   16a3e:	89 85 b8 f9 ff ff    	mov    %eax,-0x648(%rbp)
   16a44:	48 8b 85 b0 f9 ff ff 	mov    -0x650(%rbp),%rax
   16a4b:	44 0f bf f8          	movswl %ax,%r15d
   16a4f:	0f bf 95 d0 f9 ff ff 	movswl -0x630(%rbp),%edx
   16a56:	8b 85 88 fb ff ff    	mov    -0x478(%rbp),%eax
   16a5c:	0f b6 c0             	movzbl %al,%eax
   16a5f:	89 d6                	mov    %edx,%esi
   16a61:	89 c7                	mov    %eax,%edi
   16a63:	e8 e4 21 ff ff       	callq  8c4c <safe_lshift_func_uint8_t_u_u>
   16a68:	83 bd 18 fa ff ff 00 	cmpl   $0x0,-0x5e8(%rbp)
   16a6f:	0f 94 85 a8 f9 ff ff 	sete   -0x658(%rbp)
   16a76:	48 8b 05 63 06 01 00 	mov    0x10663(%rip),%rax        # 270e0 <g_380>
   16a7d:	0f b6 00             	movzbl (%rax),%eax
   16a80:	0f b6 c0             	movzbl %al,%eax
   16a83:	89 c6                	mov    %eax,%esi
   16a85:	bf 01 00 00 00       	mov    $0x1,%edi
   16a8a:	e8 2f 22 ff ff       	callq  8cbe <safe_rshift_func_uint8_t_u_u>
   16a8f:	48 8b 05 6a 07 01 00 	mov    0x1076a(%rip),%rax        # 27200 <g_1023>
   16a96:	c6 00 00             	movb   $0x0,(%rax)
   16a99:	0f b6 00             	movzbl (%rax),%eax
   16a9c:	84 c0                	test   %al,%al
   16a9e:	0f 94 c0             	sete   %al
   16aa1:	32 85 a8 f9 ff ff    	xor    -0x658(%rbp),%al
   16aa7:	0f b6 c0             	movzbl %al,%eax
   16aaa:	48 be 5c d1 16 f5 82 	movabs $0x2a47a282f516d15c,%rsi
   16ab1:	a2 47 2a 
   16ab4:	48 89 c7             	mov    %rax,%rdi
   16ab7:	e8 c4 25 ff ff       	callq  9080 <safe_mod_func_uint64_t_u_u>
   16abc:	89 c2                	mov    %eax,%edx
   16abe:	48 8b 85 a8 fa ff ff 	mov    -0x558(%rbp),%rax
   16ac5:	66 89 10             	mov    %dx,(%rax)
   16ac8:	48 8b 85 a8 fa ff ff 	mov    -0x558(%rbp),%rax
   16acf:	0f b7 00             	movzwl (%rax),%eax
   16ad2:	98                   	cwtl   
   16ad3:	44 89 fe             	mov    %r15d,%esi
   16ad6:	89 c7                	mov    %eax,%edi
   16ad8:	e8 18 19 ff ff       	callq  83f5 <safe_mul_func_int16_t_s_s>
   16add:	66 0f be 95 bc f9 ff 	movsbw -0x644(%rbp),%dx
   16ae4:	ff 
   16ae5:	66 39 d0             	cmp    %dx,%ax
   16ae8:	0f 94 c0             	sete   %al
   16aeb:	0f b6 c0             	movzbl %al,%eax
   16aee:	39 85 b8 f9 ff ff    	cmp    %eax,-0x648(%rbp)
   16af4:	0f 9c c0             	setl   %al
   16af7:	0f b6 d0             	movzbl %al,%edx
   16afa:	0f be 85 bc f9 ff ff 	movsbl -0x644(%rbp),%eax
   16b01:	31 d0                	xor    %edx,%eax
   16b03:	21 85 f0 f9 ff ff    	and    %eax,-0x610(%rbp)
   16b09:	0f be 85 bc f9 ff ff 	movsbl -0x644(%rbp),%eax
   16b10:	44 89 f6             	mov    %r14d,%esi
   16b13:	89 c7                	mov    %eax,%edi
   16b15:	e8 c7 19 ff ff       	callq  84e1 <safe_lshift_func_int16_t_s_u>
   16b1a:	66 3d 3b 31          	cmp    $0x313b,%ax
   16b1e:	0f 9e c0             	setle  %al
   16b21:	0f b6 c0             	movzbl %al,%eax
   16b24:	44 89 ee             	mov    %r13d,%esi
   16b27:	89 c7                	mov    %eax,%edi
   16b29:	e8 a5 18 ff ff       	callq  83d3 <safe_sub_func_int16_t_s_s>
   16b2e:	8b 85 8c fb ff ff    	mov    -0x474(%rbp),%eax
   16b34:	3d b4 3f 00 00       	cmp    $0x3fb4,%eax
   16b39:	0f 9f c0             	setg   %al
   16b3c:	0f b6 c0             	movzbl %al,%eax
   16b3f:	4c 89 e6             	mov    %r12,%rsi
   16b42:	48 89 c7             	mov    %rax,%rdi
   16b45:	e8 f7 1c ff ff       	callq  8841 <safe_add_func_int64_t_s_s>
   16b4a:	8b 05 20 dd 00 00    	mov    0xdd20(%rip),%eax        # 24870 <g_355>
   16b50:	83 c0 03             	add    $0x3,%eax
   16b53:	48 63 d0             	movslq %eax,%rdx
   16b56:	48 89 d0             	mov    %rdx,%rax
   16b59:	48 c1 e0 02          	shl    $0x2,%rax
   16b5d:	48 01 d0             	add    %rdx,%rax
   16b60:	48 01 c0             	add    %rax,%rax
   16b63:	48 8b 05 86 06 01 00 	mov    0x10686(%rip),%rax        # 271f0 <g_711>
   16b6a:	0f b7 00             	movzwl (%rax),%eax
   16b6d:	0f b7 c0             	movzwl %ax,%eax
   16b70:	89 de                	mov    %ebx,%esi
   16b72:	89 c7                	mov    %eax,%edi
   16b74:	e8 15 22 ff ff       	callq  8d8e <safe_div_func_uint16_t_u_u>
   16b79:	0f b7 c0             	movzwl %ax,%eax
   16b7c:	be 01 00 00 00       	mov    $0x1,%esi
   16b81:	89 c7                	mov    %eax,%edi
   16b83:	e8 77 1b ff ff       	callq  86ff <safe_div_func_int32_t_s_s>
   16b88:	c7 85 14 fa ff ff 01 	movl   $0x1,-0x5ec(%rbp)
   16b8f:	00 00 00 
   16b92:	48 8b 85 c8 fa ff ff 	mov    -0x538(%rbp),%rax
   16b99:	e9 5f 09 00 00       	jmpq   174fd <func_33+0x137a>
   16b9e:	66 c7 85 d8 f9 ff ff 	movw   $0xffff,-0x628(%rbp)
   16ba5:	ff ff 
   16ba7:	c7 85 f4 f9 ff ff ff 	movl   $0xffffffff,-0x60c(%rbp)
   16bae:	ff ff ff 
   16bb1:	c7 85 f8 f9 ff ff ff 	movl   $0xffffffff,-0x608(%rbp)
   16bb8:	ff ff ff 
   16bbb:	c7 85 fc f9 ff ff 19 	movl   $0xd450fa19,-0x604(%rbp)
   16bc2:	fa 50 d4 
   16bc5:	c7 85 00 fa ff ff 01 	movl   $0x1,-0x600(%rbp)
   16bcc:	00 00 00 
   16bcf:	c7 85 04 fa ff ff 0f 	movl   $0x99cc7f0f,-0x5fc(%rbp)
   16bd6:	7f cc 99 
   16bd9:	c7 85 08 fa ff ff fb 	movl   $0xfffffffb,-0x5f8(%rbp)
   16be0:	ff ff ff 
   16be3:	c7 85 30 fb ff ff 56 	movl   $0xbd070f56,-0x4d0(%rbp)
   16bea:	0f 07 bd 
   16bed:	c7 85 34 fb ff ff c1 	movl   $0xdb532cc1,-0x4cc(%rbp)
   16bf4:	2c 53 db 
   16bf7:	c7 85 38 fb ff ff 56 	movl   $0xbd070f56,-0x4c8(%rbp)
   16bfe:	0f 07 bd 
   16c01:	c7 85 3c fb ff ff 56 	movl   $0xbd070f56,-0x4c4(%rbp)
   16c08:	0f 07 bd 
   16c0b:	c7 85 40 fb ff ff c1 	movl   $0xdb532cc1,-0x4c0(%rbp)
   16c12:	2c 53 db 
   16c15:	c7 85 44 fb ff ff 56 	movl   $0xbd070f56,-0x4bc(%rbp)
   16c1c:	0f 07 bd 
   16c1f:	48 c7 85 b0 fa ff ff 	movq   $0x0,-0x550(%rbp)
   16c26:	00 00 00 00 
   16c2a:	66 0f be 85 cd f9 ff 	movsbw -0x633(%rbp),%ax
   16c31:	ff 
   16c32:	34 84                	xor    $0x84,%al
   16c34:	89 c2                	mov    %eax,%edx
   16c36:	0f b7 85 d8 f9 ff ff 	movzwl -0x628(%rbp),%eax
   16c3d:	21 d0                	and    %edx,%eax
   16c3f:	66 89 85 d8 f9 ff ff 	mov    %ax,-0x628(%rbp)
   16c46:	48 0f be 9d bc f9 ff 	movsbq -0x644(%rbp),%rbx
   16c4d:	ff 
   16c4e:	48 8b 85 b0 f9 ff ff 	mov    -0x650(%rbp),%rax
   16c55:	41 89 c4             	mov    %eax,%r12d
   16c58:	48 8b 85 b0 f9 ff ff 	mov    -0x650(%rbp),%rax
   16c5f:	89 c2                	mov    %eax,%edx
   16c61:	48 8b 85 a8 fb ff ff 	mov    -0x458(%rbp),%rax
   16c68:	48 89 85 98 fa ff ff 	mov    %rax,-0x568(%rbp)
   16c6f:	48 8b 85 98 fa ff ff 	mov    -0x568(%rbp),%rax
   16c76:	48 3b 85 48 fa ff ff 	cmp    -0x5b8(%rbp),%rax
   16c7d:	0f 94 c0             	sete   %al
   16c80:	0f b6 c0             	movzbl %al,%eax
   16c83:	89 d6                	mov    %edx,%esi
   16c85:	89 c7                	mov    %eax,%edi
   16c87:	e8 2c 22 ff ff       	callq  8eb8 <safe_add_func_uint32_t_u_u>
   16c8c:	89 c2                	mov    %eax,%edx
   16c8e:	48 8b 85 a0 fa ff ff 	mov    -0x560(%rbp),%rax
   16c95:	31 d0                	xor    %edx,%eax
   16c97:	44 89 e6             	mov    %r12d,%esi
   16c9a:	89 c7                	mov    %eax,%edi
   16c9c:	e8 2b 1a ff ff       	callq  86cc <safe_mod_func_int32_t_s_s>
   16ca1:	48 0f be 8d bc f9 ff 	movsbq -0x644(%rbp),%rcx
   16ca8:	ff 
   16ca9:	48 8b 15 60 04 01 00 	mov    0x10460(%rip),%rdx        # 27110 <g_573>
   16cb0:	48 8b 12             	mov    (%rdx),%rdx
   16cb3:	48 39 d1             	cmp    %rdx,%rcx
   16cb6:	0f 95 c2             	setne  %dl
   16cb9:	0f b6 d2             	movzbl %dl,%edx
   16cbc:	89 95 90 fb ff ff    	mov    %edx,-0x470(%rbp)
   16cc2:	8b 95 90 fb ff ff    	mov    -0x470(%rbp),%edx
   16cc8:	21 d0                	and    %edx,%eax
   16cca:	48 98                	cltq   
   16ccc:	48 89 de             	mov    %rbx,%rsi
   16ccf:	48 89 c7             	mov    %rax,%rdi
   16cd2:	e8 6a 1b ff ff       	callq  8841 <safe_add_func_int64_t_s_s>
   16cd7:	48 8b 95 b0 f9 ff ff 	mov    -0x650(%rbp),%rdx
   16cde:	48 39 d0             	cmp    %rdx,%rax
   16ce1:	0f 9e c0             	setle  %al
   16ce4:	0f b6 d0             	movzbl %al,%edx
   16ce7:	48 8b 05 02 05 01 00 	mov    0x10502(%rip),%rax        # 271f0 <g_711>
   16cee:	0f b7 00             	movzwl (%rax),%eax
   16cf1:	0f b7 c0             	movzwl %ax,%eax
   16cf4:	89 d6                	mov    %edx,%esi
   16cf6:	89 c7                	mov    %eax,%edi
   16cf8:	e8 02 20 ff ff       	callq  8cff <safe_add_func_uint16_t_u_u>
   16cfd:	0f b7 d0             	movzwl %ax,%edx
   16d00:	48 8b 85 b0 f9 ff ff 	mov    -0x650(%rbp),%rax
   16d07:	48 39 c2             	cmp    %rax,%rdx
   16d0a:	0f 94 c0             	sete   %al
   16d0d:	0f b6 c0             	movzbl %al,%eax
   16d10:	66 33 85 d6 f9 ff ff 	xor    -0x62a(%rbp),%ax
   16d17:	98                   	cwtl   
   16d18:	be 04 00 00 00       	mov    $0x4,%esi
   16d1d:	89 c7                	mov    %eax,%edi
   16d1f:	e8 3f 18 ff ff       	callq  8563 <safe_rshift_func_int16_t_s_u>
   16d24:	66 83 f8 fc          	cmp    $0xfffc,%ax
   16d28:	0f 9d c0             	setge  %al
   16d2b:	0f b6 c0             	movzbl %al,%eax
   16d2e:	be f8 14 0c a7       	mov    $0xa70c14f8,%esi
   16d33:	89 c7                	mov    %eax,%edi
   16d35:	e8 cb 18 ff ff       	callq  8605 <safe_sub_func_int32_t_s_s>
   16d3a:	b8 01 00 00 00       	mov    $0x1,%eax
   16d3f:	48 98                	cltq   
   16d41:	48 ba cd af e5 5b 7c 	movabs $0x7457e47c5be5afcd,%rdx
   16d48:	e4 57 74 
   16d4b:	48 21 d0             	and    %rdx,%rax
   16d4e:	48 85 c0             	test   %rax,%rax
   16d51:	0f 84 c6 00 00 00    	je     16e1d <func_33+0xc9a>
   16d57:	c7 85 20 fc ff ff ff 	movl   $0xffffffff,-0x3e0(%rbp)
   16d5e:	ff ff ff 
   16d61:	c7 85 24 fc ff ff 25 	movl   $0x6c67b825,-0x3dc(%rbp)
   16d68:	b8 67 6c 
   16d6b:	c7 85 28 fc ff ff 69 	movl   $0xc2726369,-0x3d8(%rbp)
   16d72:	63 72 c2 
   16d75:	c7 85 2c fc ff ff 69 	movl   $0xc2726369,-0x3d4(%rbp)
   16d7c:	63 72 c2 
   16d7f:	c7 85 30 fc ff ff 01 	movl   $0x1,-0x3d0(%rbp)
   16d86:	00 00 00 
   16d89:	c7 85 34 fc ff ff 01 	movl   $0x1,-0x3cc(%rbp)
   16d90:	00 00 00 
   16d93:	c7 85 38 fc ff ff ff 	movl   $0xffffffff,-0x3c8(%rbp)
   16d9a:	ff ff ff 
   16d9d:	c7 85 3c fc ff ff 69 	movl   $0xc2726369,-0x3c4(%rbp)
   16da4:	63 72 c2 
   16da7:	c7 85 40 fc ff ff 2c 	movl   $0xa2cfca2c,-0x3c0(%rbp)
   16dae:	ca cf a2 
   16db1:	c7 85 44 fc ff ff 25 	movl   $0x6c67b825,-0x3bc(%rbp)
   16db8:	b8 67 6c 
   16dbb:	c7 85 48 fc ff ff 2c 	movl   $0xa2cfca2c,-0x3b8(%rbp)
   16dc2:	ca cf a2 
   16dc5:	c7 85 4c fc ff ff ff 	movl   $0xffffffff,-0x3b4(%rbp)
   16dcc:	ff ff ff 
   16dcf:	c7 85 50 fc ff ff 2c 	movl   $0xa2cfca2c,-0x3b0(%rbp)
   16dd6:	ca cf a2 
   16dd9:	c7 85 54 fc ff ff ff 	movl   $0xffffffff,-0x3ac(%rbp)
   16de0:	ff ff ff 
   16de3:	c7 85 58 fc ff ff ff 	movl   $0xffffffff,-0x3a8(%rbp)
   16dea:	ff ff ff 
   16ded:	c7 85 5c fc ff ff 2c 	movl   $0xa2cfca2c,-0x3a4(%rbp)
   16df4:	ca cf a2 
   16df7:	0f b6 85 cb f9 ff ff 	movzbl -0x635(%rbp),%eax
   16dfe:	83 c0 01             	add    $0x1,%eax
   16e01:	88 85 cb f9 ff ff    	mov    %al,-0x635(%rbp)
   16e07:	48 8b 05 2a 04 01 00 	mov    0x1042a(%rip),%rax        # 27238 <g_1225>
   16e0e:	48 8b 95 90 fa ff ff 	mov    -0x570(%rbp),%rdx
   16e15:	48 89 10             	mov    %rdx,(%rax)
   16e18:	e9 71 02 00 00       	jmpq   1708e <func_33+0xf0b>
   16e1d:	48 8d 05 d4 03 01 00 	lea    0x103d4(%rip),%rax        # 271f8 <g_710>
   16e24:	48 89 85 b8 fa ff ff 	mov    %rax,-0x548(%rbp)
   16e2b:	48 c7 85 c0 fa ff ff 	movq   $0x0,-0x540(%rbp)
   16e32:	00 00 00 00 
   16e36:	48 8d 85 28 fa ff ff 	lea    -0x5d8(%rbp),%rax
   16e3d:	48 89 85 20 fc ff ff 	mov    %rax,-0x3e0(%rbp)
   16e44:	48 8d 85 28 fa ff ff 	lea    -0x5d8(%rbp),%rax
   16e4b:	48 89 85 28 fc ff ff 	mov    %rax,-0x3d8(%rbp)
   16e52:	48 8d 85 28 fa ff ff 	lea    -0x5d8(%rbp),%rax
   16e59:	48 89 85 30 fc ff ff 	mov    %rax,-0x3d0(%rbp)
   16e60:	48 8d 85 28 fa ff ff 	lea    -0x5d8(%rbp),%rax
   16e67:	48 89 85 38 fc ff ff 	mov    %rax,-0x3c8(%rbp)
   16e6e:	48 8d 85 28 fa ff ff 	lea    -0x5d8(%rbp),%rax
   16e75:	48 89 85 40 fc ff ff 	mov    %rax,-0x3c0(%rbp)
   16e7c:	48 8d 85 28 fa ff ff 	lea    -0x5d8(%rbp),%rax
   16e83:	48 89 85 48 fc ff ff 	mov    %rax,-0x3b8(%rbp)
   16e8a:	48 8d 85 28 fa ff ff 	lea    -0x5d8(%rbp),%rax
   16e91:	48 89 85 50 fc ff ff 	mov    %rax,-0x3b0(%rbp)
   16e98:	48 8d 85 28 fa ff ff 	lea    -0x5d8(%rbp),%rax
   16e9f:	48 89 85 58 fc ff ff 	mov    %rax,-0x3a8(%rbp)
   16ea6:	c7 85 0c fa ff ff 14 	movl   $0xc4dd8614,-0x5f4(%rbp)
   16ead:	86 dd c4 
   16eb0:	c7 85 10 fa ff ff fb 	movl   $0xfffffffb,-0x5f0(%rbp)
   16eb7:	ff ff ff 
   16eba:	48 8d 05 47 03 01 00 	lea    0x10347(%rip),%rax        # 27208 <g_1022>
   16ec1:	48 89 85 28 fa ff ff 	mov    %rax,-0x5d8(%rbp)
   16ec8:	48 8b 85 b0 fa ff ff 	mov    -0x550(%rbp),%rax
   16ecf:	48 89 85 40 fa ff ff 	mov    %rax,-0x5c0(%rbp)
   16ed6:	48 8b 05 43 02 01 00 	mov    0x10243(%rip),%rax        # 27120 <g_676>
   16edd:	48 8b 00             	mov    (%rax),%rax
   16ee0:	48 8b 00             	mov    (%rax),%rax
   16ee3:	48 8b 00             	mov    (%rax),%rax
   16ee6:	48 8b 85 b8 fa ff ff 	mov    -0x548(%rbp),%rax
   16eed:	48 8b 95 50 fa ff ff 	mov    -0x5b0(%rbp),%rdx
   16ef4:	48 89 10             	mov    %rdx,(%rax)
   16ef7:	66 83 bd d4 f9 ff ff 	cmpw   $0x1,-0x62c(%rbp)
   16efe:	01 
   16eff:	0f 95 c0             	setne  %al
   16f02:	0f b6 c0             	movzbl %al,%eax
   16f05:	89 c6                	mov    %eax,%esi
   16f07:	bf 00 00 00 00       	mov    $0x0,%edi
   16f0c:	e8 ad 1e ff ff       	callq  8dbe <safe_lshift_func_uint16_t_u_s>
   16f11:	ba 6d b9 41 2e       	mov    $0x2e41b96d,%edx
   16f16:	8b 85 8c fb ff ff    	mov    -0x474(%rbp),%eax
   16f1c:	21 d0                	and    %edx,%eax
   16f1e:	89 85 8c fb ff ff    	mov    %eax,-0x474(%rbp)
   16f24:	48 8b 05 5d fe 00 00 	mov    0xfe5d(%rip),%rax        # 26d88 <g_146>
   16f2b:	8b 00                	mov    (%rax),%eax
   16f2d:	85 c0                	test   %eax,%eax
   16f2f:	0f 85 02 01 00 00    	jne    17037 <func_33+0xeb4>
   16f35:	48 8b 85 b0 f9 ff ff 	mov    -0x650(%rbp),%rax
   16f3c:	98                   	cwtl   
   16f3d:	be 0d 00 00 00       	mov    $0xd,%esi
   16f42:	89 c7                	mov    %eax,%edi
   16f44:	e8 e1 15 ff ff       	callq  852a <safe_rshift_func_int16_t_s_s>
   16f49:	44 0f bf e0          	movswl %ax,%r12d
   16f4d:	0f be 9d bc f9 ff ff 	movsbl -0x644(%rbp),%ebx
   16f54:	48 8b 85 b0 f9 ff ff 	mov    -0x650(%rbp),%rax
   16f5b:	48 be cc 28 b2 39 3e 	movabs $0xf065d93e39b228cc,%rsi
   16f62:	d9 65 f0 
   16f65:	48 89 c7             	mov    %rax,%rdi
   16f68:	e8 3b 19 ff ff       	callq  88a8 <safe_sub_func_int64_t_s_s>
   16f6d:	0f b7 d0             	movzwl %ax,%edx
   16f70:	8b 05 2e d9 00 00    	mov    0xd92e(%rip),%eax        # 248a4 <g_1260>
   16f76:	8d 48 ff             	lea    -0x1(%rax),%ecx
   16f79:	89 0d 25 d9 00 00    	mov    %ecx,0xd925(%rip)        # 248a4 <g_1260>
   16f7f:	0f b7 c0             	movzwl %ax,%eax
   16f82:	89 d6                	mov    %edx,%esi
   16f84:	89 c7                	mov    %eax,%edi
   16f86:	e8 b2 1d ff ff       	callq  8d3d <safe_mul_func_uint16_t_u_u>
   16f8b:	98                   	cwtl   
   16f8c:	be 0d 00 00 00       	mov    $0xd,%esi
   16f91:	89 c7                	mov    %eax,%edi
   16f93:	e8 cb 15 ff ff       	callq  8563 <safe_rshift_func_int16_t_s_u>
   16f98:	0f b7 c0             	movzwl %ax,%eax
   16f9b:	89 c6                	mov    %eax,%esi
   16f9d:	bf 01 00 00 00       	mov    $0x1,%edi
   16fa2:	e8 b5 1d ff ff       	callq  8d5c <safe_mod_func_uint16_t_u_u>
   16fa7:	0f b7 d0             	movzwl %ax,%edx
   16faa:	48 8b 05 3f 02 01 00 	mov    0x1023f(%rip),%rax        # 271f0 <g_711>
   16fb1:	0f b7 00             	movzwl (%rax),%eax
   16fb4:	0f b7 c0             	movzwl %ax,%eax
   16fb7:	89 d6                	mov    %edx,%esi
   16fb9:	89 c7                	mov    %eax,%edi
   16fbb:	e8 ce 1d ff ff       	callq  8d8e <safe_div_func_uint16_t_u_u>
   16fc0:	8b 85 0c fa ff ff    	mov    -0x5f4(%rbp),%eax
   16fc6:	98                   	cwtl   
   16fc7:	89 de                	mov    %ebx,%esi
   16fc9:	89 c7                	mov    %eax,%edi
   16fcb:	e8 85 14 ff ff       	callq  8455 <safe_div_func_int16_t_s_s>
   16fd0:	48 8b 95 a8 fa ff ff 	mov    -0x558(%rbp),%rdx
   16fd7:	66 89 02             	mov    %ax,(%rdx)
   16fda:	48 8b 85 a8 fa ff ff 	mov    -0x558(%rbp),%rax
   16fe1:	0f b7 00             	movzwl (%rax),%eax
   16fe4:	0f bf d0             	movswl %ax,%edx
   16fe7:	66 0f be 85 bc f9 ff 	movsbw -0x644(%rbp),%ax
   16fee:	ff 
   16fef:	0f b7 c0             	movzwl %ax,%eax
   16ff2:	89 d6                	mov    %edx,%esi
   16ff4:	89 c7                	mov    %eax,%edi
   16ff6:	e8 c3 1d ff ff       	callq  8dbe <safe_lshift_func_uint16_t_u_s>
   16ffb:	0f b7 c0             	movzwl %ax,%eax
   16ffe:	41 39 c4             	cmp    %eax,%r12d
   17001:	0f 9c c0             	setl   %al
   17004:	0f b6 d0             	movzbl %al,%edx
   17007:	48 8d 05 02 01 01 00 	lea    0x10102(%rip),%rax        # 27110 <g_573>
   1700e:	48 8b 00             	mov    (%rax),%rax
   17011:	48 8b 08             	mov    (%rax),%rcx
   17014:	48 63 d2             	movslq %edx,%rdx
   17017:	48 21 ca             	and    %rcx,%rdx
   1701a:	48 89 10             	mov    %rdx,(%rax)
   1701d:	48 8b 10             	mov    (%rax),%rdx
   17020:	48 8b 85 b0 f9 ff ff 	mov    -0x650(%rbp),%rax
   17027:	48 39 c2             	cmp    %rax,%rdx
   1702a:	0f 94 c0             	sete   %al
   1702d:	0f b6 c0             	movzbl %al,%eax
   17030:	89 c7                	mov    %eax,%edi
   17032:	e8 0e 1b ff ff       	callq  8b45 <safe_unary_minus_func_uint8_t_u>
   17037:	b8 01 00 00 00       	mov    $0x1,%eax
   1703c:	83 c8 01             	or     $0x1,%eax
   1703f:	48 63 d0             	movslq %eax,%rdx
   17042:	48 8b 05 a7 01 01 00 	mov    0x101a7(%rip),%rax        # 271f0 <g_711>
   17049:	0f b7 00             	movzwl (%rax),%eax
   1704c:	0f b7 c0             	movzwl %ax,%eax
   1704f:	48 39 c2             	cmp    %rax,%rdx
   17052:	0f 93 c0             	setae  %al
   17055:	0f b6 c0             	movzbl %al,%eax
   17058:	89 c6                	mov    %eax,%esi
   1705a:	bf 01 00 00 00       	mov    $0x1,%edi
   1705f:	e8 a1 1b ff ff       	callq  8c05 <safe_lshift_func_uint8_t_u_s>
   17064:	be e3 50 00 00       	mov    $0x50e3,%esi
   17069:	bf aa 3f 00 00       	mov    $0x3faa,%edi
   1706e:	e8 82 13 ff ff       	callq  83f5 <safe_mul_func_int16_t_s_s>
   17073:	98                   	cwtl   
   17074:	89 85 10 fa ff ff    	mov    %eax,-0x5f0(%rbp)
   1707a:	8b 95 10 fa ff ff    	mov    -0x5f0(%rbp),%edx
   17080:	8b 85 5c fe ff ff    	mov    -0x1a4(%rbp),%eax
   17086:	09 d0                	or     %edx,%eax
   17088:	89 85 5c fe ff ff    	mov    %eax,-0x1a4(%rbp)
   1708e:	48 8b 05 43 00 01 00 	mov    0x10043(%rip),%rax        # 270d8 <g_369>
   17095:	8b 00                	mov    (%rax),%eax
   17097:	85 c0                	test   %eax,%eax
   17099:	0f 84 f8 03 00 00    	je     17497 <func_33+0x1314>
   1709f:	48 c7 85 d0 fa ff ff 	movq   $0xfffffffffffffff7,-0x530(%rbp)
   170a6:	f7 ff ff ff 
   170aa:	c7 85 1c fa ff ff 18 	movl   $0x48818618,-0x5e4(%rbp)
   170b1:	86 81 48 
   170b4:	48 8d 05 45 01 01 00 	lea    0x10145(%rip),%rax        # 27200 <g_1023>
   170bb:	48 89 85 d8 fa ff ff 	mov    %rax,-0x528(%rbp)
   170c2:	8b 85 58 ff ff ff    	mov    -0xa8(%rbp),%eax
   170c8:	85 c0                	test   %eax,%eax
   170ca:	74 59                	je     17125 <func_33+0xfa2>
   170cc:	48 c7 85 e0 fa ff ff 	movq   $0xfffffffffffffffa,-0x520(%rbp)
   170d3:	fa ff ff ff 
   170d7:	48 c7 85 e8 fa ff ff 	movq   $0x0,-0x518(%rbp)
   170de:	00 00 00 00 
   170e2:	8b 85 74 fb ff ff    	mov    -0x48c(%rbp),%eax
   170e8:	48 8b 95 b0 f9 ff ff 	mov    -0x650(%rbp),%rdx
   170ef:	21 d0                	and    %edx,%eax
   170f1:	89 85 74 fb ff ff    	mov    %eax,-0x48c(%rbp)
   170f7:	48 8b 85 b0 f9 ff ff 	mov    -0x650(%rbp),%rax
   170fe:	48 85 c0             	test   %rax,%rax
   17101:	0f 85 9f 03 00 00    	jne    174a6 <func_33+0x1323>
   17107:	48 83 85 e0 fa ff ff 	addq   $0x1,-0x520(%rbp)
   1710e:	01 
   1710f:	48 8b 05 2a 01 01 00 	mov    0x1012a(%rip),%rax        # 27240 <g_1273>
   17116:	48 8b 95 e8 fa ff ff 	mov    -0x518(%rbp),%rdx
   1711d:	48 89 10             	mov    %rdx,(%rax)
   17120:	e9 0c 03 00 00       	jmpq   17431 <func_33+0x12ae>
   17125:	48 8d 85 20 fc ff ff 	lea    -0x3e0(%rbp),%rax
   1712c:	48 8d 15 2d 87 00 00 	lea    0x872d(%rip),%rdx        # 1f860 <g_5653+0x27bf>
   17133:	b9 23 00 00 00       	mov    $0x23,%ecx
   17138:	48 89 c7             	mov    %rax,%rdi
   1713b:	48 89 d6             	mov    %rdx,%rsi
   1713e:	f3 48 a5             	rep movsq %ds:(%rsi),%es:(%rdi)
   17141:	48 8b 05 00 01 01 00 	mov    0x10100(%rip),%rax        # 27248 <g_1274>
   17148:	48 8d 95 70 fb ff ff 	lea    -0x490(%rbp),%rdx
   1714f:	48 83 c2 1c          	add    $0x1c,%rdx
   17153:	48 89 10             	mov    %rdx,(%rax)
   17156:	48 8b 05 a3 00 01 00 	mov    0x100a3(%rip),%rax        # 27200 <g_1023>
   1715d:	0f b6 00             	movzbl (%rax),%eax
   17160:	44 0f be f0          	movsbl %al,%r14d
   17164:	0f b6 85 bc f9 ff ff 	movzbl -0x644(%rbp),%eax
   1716b:	44 0f b6 f8          	movzbl %al,%r15d
   1716f:	8b 85 a8 fc ff ff    	mov    -0x358(%rbp),%eax
   17175:	89 85 b8 f9 ff ff    	mov    %eax,-0x648(%rbp)
   1717b:	48 8b 05 96 ff 00 00 	mov    0xff96(%rip),%rax        # 27118 <g_677>
   17182:	48 8b 00             	mov    (%rax),%rax
   17185:	48 8b 00             	mov    (%rax),%rax
   17188:	48 8b 00             	mov    (%rax),%rax
   1718b:	48 89 85 a8 f9 ff ff 	mov    %rax,-0x658(%rbp)
   17192:	0f b6 85 bc f9 ff ff 	movzbl -0x644(%rbp),%eax
   17199:	0f b6 c0             	movzbl %al,%eax
   1719c:	89 85 a4 f9 ff ff    	mov    %eax,-0x65c(%rbp)
   171a2:	48 8b 05 57 00 01 00 	mov    0x10057(%rip),%rax        # 27200 <g_1023>
   171a9:	0f b6 00             	movzbl (%rax),%eax
   171ac:	0f b6 c0             	movzbl %al,%eax
   171af:	89 85 a0 f9 ff ff    	mov    %eax,-0x660(%rbp)
   171b5:	48 8d 05 54 ff 00 00 	lea    0xff54(%rip),%rax        # 27110 <g_573>
   171bc:	48 8b 00             	mov    (%rax),%rax
   171bf:	48 8b 00             	mov    (%rax),%rax
   171c2:	48 89 85 98 f9 ff ff 	mov    %rax,-0x668(%rbp)
   171c9:	48 8b 95 28 fa ff ff 	mov    -0x5d8(%rbp),%rdx
   171d0:	48 8b 85 28 fa ff ff 	mov    -0x5d8(%rbp),%rax
   171d7:	48 8b 12             	mov    (%rdx),%rdx
   171da:	48 89 10             	mov    %rdx,(%rax)
   171dd:	48 8b 00             	mov    (%rax),%rax
   171e0:	48 39 85 58 fa ff ff 	cmp    %rax,-0x5a8(%rbp)
   171e7:	0f 95 c0             	setne  %al
   171ea:	0f b6 d0             	movzbl %al,%edx
   171ed:	48 0f be 8d bc f9 ff 	movsbq -0x644(%rbp),%rcx
   171f4:	ff 
   171f5:	48 8b 85 b0 f9 ff ff 	mov    -0x650(%rbp),%rax
   171fc:	48 39 c1             	cmp    %rax,%rcx
   171ff:	0f 95 c0             	setne  %al
   17202:	0f b6 c0             	movzbl %al,%eax
   17205:	31 d0                	xor    %edx,%eax
   17207:	35 a5 1b 67 3d       	xor    $0x3d671ba5,%eax
   1720c:	89 c2                	mov    %eax,%edx
   1720e:	0f b7 05 5f d6 00 00 	movzwl 0xd65f(%rip),%eax        # 24874 <g_368>
   17215:	0f b7 c0             	movzwl %ax,%eax
   17218:	44 8d 40 02          	lea    0x2(%rax),%r8d
   1721c:	8b 0d 4e d6 00 00    	mov    0xd64e(%rip),%ecx        # 24870 <g_355>
   17222:	0f b7 05 77 0d 01 00 	movzwl 0x10d77(%rip),%eax        # 27fa0 <g_527>
   17229:	0f bf f0             	movswl %ax,%esi
   1722c:	41 89 d2             	mov    %edx,%r10d
   1722f:	4c 63 ce             	movslq %esi,%r9
   17232:	49 63 c0             	movslq %r8d,%rax
   17235:	48 63 f9             	movslq %ecx,%rdi
   17238:	48 89 c2             	mov    %rax,%rdx
   1723b:	48 c1 e2 02          	shl    $0x2,%rdx
   1723f:	48 01 c2             	add    %rax,%rdx
   17242:	48 8d 04 12          	lea    (%rdx,%rdx,1),%rax
   17246:	48 89 c2             	mov    %rax,%rdx
   17249:	48 89 f8             	mov    %rdi,%rax
   1724c:	48 c1 e0 02          	shl    $0x2,%rax
   17250:	48 01 f8             	add    %rdi,%rax
   17253:	48 01 d0             	add    %rdx,%rax
   17256:	4c 01 c8             	add    %r9,%rax
   17259:	48 8d 14 85 00 00 00 	lea    0x0(,%rax,4),%rdx
   17260:	00 
   17261:	48 8d 05 f8 cd 00 00 	lea    0xcdf8(%rip),%rax        # 24060 <g_108>
   17268:	44 89 14 02          	mov    %r10d,(%rdx,%rax,1)
   1726c:	48 63 f6             	movslq %esi,%rsi
   1726f:	49 63 d0             	movslq %r8d,%rdx
   17272:	48 63 c9             	movslq %ecx,%rcx
   17275:	48 89 d0             	mov    %rdx,%rax
   17278:	48 c1 e0 02          	shl    $0x2,%rax
   1727c:	48 01 d0             	add    %rdx,%rax
   1727f:	48 01 c0             	add    %rax,%rax
   17282:	48 89 ca             	mov    %rcx,%rdx
   17285:	48 c1 e2 02          	shl    $0x2,%rdx
   17289:	48 01 ca             	add    %rcx,%rdx
   1728c:	48 01 d0             	add    %rdx,%rax
   1728f:	48 01 f0             	add    %rsi,%rax
   17292:	48 8d 14 85 00 00 00 	lea    0x0(,%rax,4),%rdx
   17299:	00 
   1729a:	48 8d 05 bf cd 00 00 	lea    0xcdbf(%rip),%rax        # 24060 <g_108>
   172a1:	44 8b 24 02          	mov    (%rdx,%rax,1),%r12d
   172a5:	0f b7 85 ce f9 ff ff 	movzwl -0x632(%rbp),%eax
   172ac:	0f bf d8             	movswl %ax,%ebx
   172af:	8b 85 a8 fc ff ff    	mov    -0x358(%rbp),%eax
   172b5:	41 89 c5             	mov    %eax,%r13d
   172b8:	0f be 85 bc f9 ff ff 	movsbl -0x644(%rbp),%eax
   172bf:	89 c6                	mov    %eax,%esi
   172c1:	bf b5 78 f8 11       	mov    $0x11f878b5,%edi
   172c6:	e8 5a 1c ff ff       	callq  8f25 <safe_div_func_uint32_t_u_u>
   172cb:	44 89 ee             	mov    %r13d,%esi
   172ce:	bf 00 00 00 00       	mov    $0x0,%edi
   172d3:	e8 a2 1b ff ff       	callq  8e7a <safe_rshift_func_uint16_t_u_u>
   172d8:	66 85 c0             	test   %ax,%ax
   172db:	74 11                	je     172ee <func_33+0x116b>
   172dd:	8b 85 a8 fc ff ff    	mov    -0x358(%rbp),%eax
   172e3:	85 c0                	test   %eax,%eax
   172e5:	74 07                	je     172ee <func_33+0x116b>
   172e7:	ba 01 00 00 00       	mov    $0x1,%edx
   172ec:	eb 05                	jmp    172f3 <func_33+0x1170>
   172ee:	ba 00 00 00 00       	mov    $0x0,%edx
   172f3:	48 8b 05 2e ff 00 00 	mov    0xff2e(%rip),%rax        # 27228 <g_1125>
   172fa:	48 8b 00             	mov    (%rax),%rax
   172fd:	48 8b 00             	mov    (%rax),%rax
   17300:	48 8b 00             	mov    (%rax),%rax
   17303:	0f b6 00             	movzbl (%rax),%eax
   17306:	0f b6 c0             	movzbl %al,%eax
   17309:	39 c2                	cmp    %eax,%edx
   1730b:	0f 94 c0             	sete   %al
   1730e:	0f b6 d0             	movzbl %al,%edx
   17311:	48 8b 85 a8 fa ff ff 	mov    -0x558(%rbp),%rax
   17318:	66 89 10             	mov    %dx,(%rax)
   1731b:	48 8b 85 a8 fa ff ff 	mov    -0x558(%rbp),%rax
   17322:	0f b7 00             	movzwl (%rax),%eax
   17325:	98                   	cwtl   
   17326:	89 de                	mov    %ebx,%esi
   17328:	89 c7                	mov    %eax,%edi
   1732a:	e8 c6 10 ff ff       	callq  83f5 <safe_mul_func_int16_t_s_s>
   1732f:	98                   	cwtl   
   17330:	41 39 c4             	cmp    %eax,%r12d
   17333:	0f 96 c0             	setbe  %al
   17336:	0f b6 d0             	movzbl %al,%edx
   17339:	48 8b 85 b0 f9 ff ff 	mov    -0x650(%rbp),%rax
   17340:	48 39 c2             	cmp    %rax,%rdx
   17343:	0f 9e c0             	setle  %al
   17346:	0f b6 c0             	movzbl %al,%eax
   17349:	48 8b b5 98 f9 ff ff 	mov    -0x668(%rbp),%rsi
   17350:	48 89 c7             	mov    %rax,%rdi
   17353:	e8 d6 1c ff ff       	callq  902e <safe_add_func_uint64_t_u_u>
   17358:	89 c2                	mov    %eax,%edx
   1735a:	48 8b 85 78 fa ff ff 	mov    -0x588(%rbp),%rax
   17361:	88 10                	mov    %dl,(%rax)
   17363:	48 8b 85 78 fa ff ff 	mov    -0x588(%rbp),%rax
   1736a:	0f b6 00             	movzbl (%rax),%eax
   1736d:	8b 95 f0 f9 ff ff    	mov    -0x610(%rbp),%edx
   17373:	21 d0                	and    %edx,%eax
   17375:	0f b6 c0             	movzbl %al,%eax
   17378:	8b b5 a0 f9 ff ff    	mov    -0x660(%rbp),%esi
   1737e:	89 c7                	mov    %eax,%edi
   17380:	e8 29 18 ff ff       	callq  8bae <safe_mod_func_uint8_t_u_u>
   17385:	0f b6 c0             	movzbl %al,%eax
   17388:	89 85 1c fa ff ff    	mov    %eax,-0x5e4(%rbp)
   1738e:	8b b5 a4 f9 ff ff    	mov    -0x65c(%rbp),%esi
   17394:	bf 03 00 00 00       	mov    $0x3,%edi
   17399:	e8 f5 17 ff ff       	callq  8b93 <safe_mul_func_uint8_t_u_u>
   1739e:	3c 33                	cmp    $0x33,%al
   173a0:	0f 96 c0             	setbe  %al
   173a3:	0f b6 d0             	movzbl %al,%edx
   173a6:	48 8b 85 90 fa ff ff 	mov    -0x570(%rbp),%rax
   173ad:	8b 00                	mov    (%rax),%eax
   173af:	39 c2                	cmp    %eax,%edx
   173b1:	7e 07                	jle    173ba <func_33+0x1237>
   173b3:	b8 01 00 00 00       	mov    $0x1,%eax
   173b8:	eb 05                	jmp    173bf <func_33+0x123c>
   173ba:	b8 00 00 00 00       	mov    $0x0,%eax
   173bf:	48 98                	cltq   
   173c1:	48 8b b5 a8 f9 ff ff 	mov    -0x658(%rbp),%rsi
   173c8:	48 89 c7             	mov    %rax,%rdi
   173cb:	e8 e4 15 ff ff       	callq  89b4 <safe_mod_func_int64_t_s_s>
   173d0:	8b b5 b8 f9 ff ff    	mov    -0x648(%rbp),%esi
   173d6:	89 c7                	mov    %eax,%edi
   173d8:	e8 20 1b ff ff       	callq  8efd <safe_mod_func_uint32_t_u_u>
   173dd:	0f b7 c0             	movzwl %ax,%eax
   173e0:	be 02 00 00 00       	mov    $0x2,%esi
   173e5:	89 c7                	mov    %eax,%edi
   173e7:	e8 8e 1a ff ff       	callq  8e7a <safe_rshift_func_uint16_t_u_u>
   173ec:	0f b6 c0             	movzbl %al,%eax
   173ef:	44 89 fe             	mov    %r15d,%esi
   173f2:	89 c7                	mov    %eax,%edi
   173f4:	e8 9a 17 ff ff       	callq  8b93 <safe_mul_func_uint8_t_u_u>
   173f9:	0f be c0             	movsbl %al,%eax
   173fc:	44 89 f6             	mov    %r14d,%esi
   173ff:	89 c7                	mov    %eax,%edi
   17401:	e8 ec 0d ff ff       	callq  81f2 <safe_sub_func_int8_t_s_s>
   17406:	48 8b 85 d8 fa ff ff 	mov    -0x528(%rbp),%rax
   1740d:	48 89 85 60 fa ff ff 	mov    %rax,-0x5a0(%rbp)
   17414:	48 8b 05 bd fc 00 00 	mov    0xfcbd(%rip),%rax        # 270d8 <g_369>
   1741b:	48 8b 85 b0 f9 ff ff 	mov    -0x650(%rbp),%rax
   17422:	09 85 f0 f9 ff ff    	or     %eax,-0x610(%rbp)
   17428:	80 bd bc f9 ff ff 00 	cmpb   $0x0,-0x644(%rbp)
   1742f:	75 78                	jne    174a9 <func_33+0x1326>
   17431:	48 c7 05 4c d4 00 00 	movq   $0x1,0xd44c(%rip)        # 24888 <g_505>
   17438:	01 00 00 00 
   1743c:	eb 4a                	jmp    17488 <func_33+0x1305>
   1743e:	48 83 bd 68 fa ff ff 	cmpq   $0x0,-0x598(%rbp)
   17445:	00 
   17446:	0f 94 c0             	sete   %al
   17449:	0f b6 d0             	movzbl %al,%edx
   1744c:	48 8b 05 35 d4 00 00 	mov    0xd435(%rip),%rax        # 24888 <g_505>
   17453:	8b 84 85 10 fb ff ff 	mov    -0x4f0(%rbp,%rax,4),%eax
   1745a:	39 c2                	cmp    %eax,%edx
   1745c:	0f 94 c2             	sete   %dl
   1745f:	0f b7 05 3a 0b 01 00 	movzwl 0x10b3a(%rip),%eax        # 27fa0 <g_527>
   17466:	98                   	cwtl   
   17467:	83 c0 02             	add    $0x2,%eax
   1746a:	0f b6 d2             	movzbl %dl,%edx
   1746d:	48 98                	cltq   
   1746f:	89 94 85 10 fb ff ff 	mov    %edx,-0x4f0(%rbp,%rax,4)
   17476:	48 8b 05 0b d4 00 00 	mov    0xd40b(%rip),%rax        # 24888 <g_505>
   1747d:	48 83 c0 01          	add    $0x1,%rax
   17481:	48 89 05 00 d4 00 00 	mov    %rax,0xd400(%rip)        # 24888 <g_505>
   17488:	48 8b 05 f9 d3 00 00 	mov    0xd3f9(%rip),%rax        # 24888 <g_505>
   1748f:	48 83 f8 05          	cmp    $0x5,%rax
   17493:	76 a9                	jbe    1743e <func_33+0x12bb>
   17495:	eb 13                	jmp    174aa <func_33+0x1327>
   17497:	48 8b 05 3a fc 00 00 	mov    0xfc3a(%rip),%rax        # 270d8 <g_369>
   1749e:	8b 00                	mov    (%rax),%eax
   174a0:	85 c0                	test   %eax,%eax
   174a2:	75 29                	jne    174cd <func_33+0x134a>
   174a4:	eb 04                	jmp    174aa <func_33+0x1327>
   174a6:	90                   	nop
   174a7:	eb 01                	jmp    174aa <func_33+0x1327>
   174a9:	90                   	nop
   174aa:	0f b7 05 ef 0a 01 00 	movzwl 0x10aef(%rip),%eax        # 27fa0 <g_527>
   174b1:	83 e8 01             	sub    $0x1,%eax
   174b4:	66 89 05 e5 0a 01 00 	mov    %ax,0x10ae5(%rip)        # 27fa0 <g_527>
   174bb:	0f b7 05 de 0a 01 00 	movzwl 0x10ade(%rip),%eax        # 27fa0 <g_527>
   174c2:	66 85 c0             	test   %ax,%ax
   174c5:	0f 89 d5 f1 ff ff    	jns    166a0 <func_33+0x51d>
   174cb:	eb 01                	jmp    174ce <func_33+0x134b>
   174cd:	90                   	nop
   174ce:	48 8b 85 48 fa ff ff 	mov    -0x5b8(%rbp),%rax
   174d5:	eb 26                	jmp    174fd <func_33+0x137a>
   174d7:	90                   	nop
   174d8:	8b 05 92 d3 00 00    	mov    0xd392(%rip),%eax        # 24870 <g_355>
   174de:	83 c0 01             	add    $0x1,%eax
   174e1:	89 05 89 d3 00 00    	mov    %eax,0xd389(%rip)        # 24870 <g_355>
   174e7:	8b 05 83 d3 00 00    	mov    0xd383(%rip),%eax        # 24870 <g_355>
   174ed:	83 f8 01             	cmp    $0x1,%eax
   174f0:	0f 8e e7 ed ff ff    	jle    162dd <func_33+0x15a>
   174f6:	48 8b 85 00 fc ff ff 	mov    -0x400(%rbp),%rax
   174fd:	48 8b 5d c8          	mov    -0x38(%rbp),%rbx
   17501:	64 48 33 1c 25 28 00 	xor    %fs:0x28,%rbx
   17508:	00 00 
   1750a:	74 05                	je     17511 <func_33+0x138e>
   1750c:	e8 5f 0b ff ff       	callq  8070 <__stack_chk_fail@plt>
   17511:	48 81 c4 48 06 00 00 	add    $0x648,%rsp
   17518:	5b                   	pop    %rbx
   17519:	41 5c                	pop    %r12
   1751b:	41 5d                	pop    %r13
   1751d:	41 5e                	pop    %r14
   1751f:	41 5f                	pop    %r15
   17521:	5d                   	pop    %rbp
   17522:	c3                   	retq   

0000000000017523 <func_36>:
   17523:	f3 0f 1e fa          	endbr64 
   17527:	55                   	push   %rbp
   17528:	48 89 e5             	mov    %rsp,%rbp
   1752b:	41 57                	push   %r15
   1752d:	41 56                	push   %r14
   1752f:	41 55                	push   %r13
   17531:	41 54                	push   %r12
   17533:	53                   	push   %rbx
   17534:	48 81 ec 00 10 00 00 	sub    $0x1000,%rsp
   1753b:	48 83 0c 24 00       	orq    $0x0,(%rsp)
   17540:	48 81 ec 98 07 00 00 	sub    $0x798,%rsp
   17547:	89 bd 6c e8 ff ff    	mov    %edi,-0x1794(%rbp)
   1754d:	48 89 b5 60 e8 ff ff 	mov    %rsi,-0x17a0(%rbp)
   17554:	48 89 95 58 e8 ff ff 	mov    %rdx,-0x17a8(%rbp)
   1755b:	48 89 8d 50 e8 ff ff 	mov    %rcx,-0x17b0(%rbp)
   17562:	4c 89 85 48 e8 ff ff 	mov    %r8,-0x17b8(%rbp)
   17569:	64 48 8b 04 25 28 00 	mov    %fs:0x28,%rax
   17570:	00 00 
   17572:	48 89 45 c8          	mov    %rax,-0x38(%rbp)
   17576:	31 c0                	xor    %eax,%eax
   17578:	48 8d 05 f9 d2 00 00 	lea    0xd2f9(%rip),%rax        # 24878 <g_370>
   1757f:	48 89 85 18 e9 ff ff 	mov    %rax,-0x16e8(%rbp)
   17586:	48 8d 05 9b ca 00 00 	lea    0xca9b(%rip),%rax        # 24028 <g_62>
   1758d:	48 89 85 20 e9 ff ff 	mov    %rax,-0x16e0(%rbp)
   17594:	48 8d 05 d5 d2 00 00 	lea    0xd2d5(%rip),%rax        # 24870 <g_355>
   1759b:	48 89 85 28 e9 ff ff 	mov    %rax,-0x16d8(%rbp)
   175a2:	48 c7 85 30 e9 ff ff 	movq   $0x0,-0x16d0(%rbp)
   175a9:	00 00 00 00 
   175ad:	48 8d 05 c4 d2 00 00 	lea    0xd2c4(%rip),%rax        # 24878 <g_370>
   175b4:	48 89 85 38 e9 ff ff 	mov    %rax,-0x16c8(%rbp)
   175bb:	48 8d 05 b6 d2 00 00 	lea    0xd2b6(%rip),%rax        # 24878 <g_370>
   175c2:	48 89 85 40 e9 ff ff 	mov    %rax,-0x16c0(%rbp)
   175c9:	48 8d 05 a8 d2 00 00 	lea    0xd2a8(%rip),%rax        # 24878 <g_370>
   175d0:	48 89 85 48 e9 ff ff 	mov    %rax,-0x16b8(%rbp)
   175d7:	66 c7 85 7a e8 ff ff 	movw   $0x1,-0x1786(%rbp)
   175de:	01 00 
   175e0:	c6 85 71 e8 ff ff fc 	movb   $0xfc,-0x178f(%rbp)
   175e7:	66 c7 85 76 e8 ff ff 	movw   $0x7237,-0x178a(%rbp)
   175ee:	37 72 
   175f0:	c7 85 f0 ea ff ff 42 	movl   $0x2a2b2e42,-0x1510(%rbp)
   175f7:	2e 2b 2a 
   175fa:	c7 85 f4 ea ff ff 42 	movl   $0x2a2b2e42,-0x150c(%rbp)
   17601:	2e 2b 2a 
   17604:	c7 85 f8 ea ff ff 42 	movl   $0x2a2b2e42,-0x1508(%rbp)
   1760b:	2e 2b 2a 
   1760e:	c7 85 fc ea ff ff 42 	movl   $0x2a2b2e42,-0x1504(%rbp)
   17615:	2e 2b 2a 
   17618:	48 8d 05 69 d2 00 00 	lea    0xd269(%rip),%rax        # 24888 <g_505>
   1761f:	48 89 85 50 e9 ff ff 	mov    %rax,-0x16b0(%rbp)
   17626:	66 c7 85 78 e8 ff ff 	movw   $0xd531,-0x1788(%rbp)
   1762d:	31 d5 
   1762f:	48 8d 05 52 f7 00 00 	lea    0xf752(%rip),%rax        # 26d88 <g_146>
   17636:	48 89 85 c0 e9 ff ff 	mov    %rax,-0x1640(%rbp)
   1763d:	48 c7 85 b8 e9 ff ff 	movq   $0xffffffffffffffff,-0x1648(%rbp)
   17644:	ff ff ff ff 
   17648:	66 c7 85 7c e8 ff ff 	movw   $0x7a80,-0x1784(%rbp)
   1764f:	80 7a 
   17651:	c7 85 8c e8 ff ff c8 	movl   $0xf458b1c8,-0x1774(%rbp)
   17658:	b1 58 f4 
   1765b:	48 8d 05 2e d2 00 00 	lea    0xd22e(%rip),%rax        # 24890 <g_590>
   17662:	48 89 85 58 e9 ff ff 	mov    %rax,-0x16a8(%rbp)
   17669:	48 c7 85 c8 e9 ff ff 	movq   $0x0,-0x1638(%rbp)
   17670:	00 00 00 00 
   17674:	48 8d 05 ad fa 00 00 	lea    0xfaad(%rip),%rax        # 27128 <g_689>
   1767b:	48 89 85 60 e9 ff ff 	mov    %rax,-0x16a0(%rbp)
   17682:	48 8d 85 60 e9 ff ff 	lea    -0x16a0(%rbp),%rax
   17689:	48 89 85 68 e9 ff ff 	mov    %rax,-0x1698(%rbp)
   17690:	48 8d 05 91 c9 00 00 	lea    0xc991(%rip),%rax        # 24028 <g_62>
   17697:	48 89 85 70 e9 ff ff 	mov    %rax,-0x1690(%rbp)
   1769e:	48 8d 85 10 eb ff ff 	lea    -0x14f0(%rbp),%rax
   176a5:	48 83 c0 10          	add    $0x10,%rax
   176a9:	48 89 85 d0 e9 ff ff 	mov    %rax,-0x1630(%rbp)
   176b0:	48 c7 85 78 e9 ff ff 	movq   $0x0,-0x1688(%rbp)
   176b7:	00 00 00 00 
   176bb:	66 c7 85 7e e8 ff ff 	movw   $0x903b,-0x1782(%rbp)
   176c2:	3b 90 
   176c4:	48 b8 76 d3 95 89 83 	movabs $0xf9b254838995d376,%rax
   176cb:	54 b2 f9 
   176ce:	48 89 85 d8 e9 ff ff 	mov    %rax,-0x1628(%rbp)
   176d5:	c7 85 b0 e8 ff ff cd 	movl   $0xec12c9cd,-0x1750(%rbp)
   176dc:	c9 12 ec 
   176df:	48 8d 85 78 e8 ff ff 	lea    -0x1788(%rbp),%rax
   176e6:	48 89 85 80 e9 ff ff 	mov    %rax,-0x1680(%rbp)
   176ed:	48 8d 85 80 e9 ff ff 	lea    -0x1680(%rbp),%rax
   176f4:	48 89 85 88 e9 ff ff 	mov    %rax,-0x1678(%rbp)
   176fb:	48 8d 85 88 e9 ff ff 	lea    -0x1678(%rbp),%rax
   17702:	48 89 85 e0 e9 ff ff 	mov    %rax,-0x1620(%rbp)
   17709:	c7 85 90 e8 ff ff 00 	movl   $0x0,-0x1770(%rbp)
   17710:	00 00 00 
   17713:	eb 47                	jmp    1775c <func_36+0x239>
   17715:	c7 85 94 e8 ff ff 00 	movl   $0x0,-0x176c(%rbp)
   1771c:	00 00 00 
   1771f:	eb 2b                	jmp    1774c <func_36+0x229>
   17721:	8b 85 94 e8 ff ff    	mov    -0x176c(%rbp),%eax
   17727:	48 63 d0             	movslq %eax,%rdx
   1772a:	8b 85 90 e8 ff ff    	mov    -0x1770(%rbp),%eax
   17730:	48 98                	cltq   
   17732:	48 8d 5d d0          	lea    -0x30(%rbp),%rbx
   17736:	48 01 da             	add    %rbx,%rdx
   17739:	48 01 d0             	add    %rdx,%rax
   1773c:	48 2d f0 14 00 00    	sub    $0x14f0,%rax
   17742:	c6 00 ff             	movb   $0xff,(%rax)
   17745:	83 85 94 e8 ff ff 01 	addl   $0x1,-0x176c(%rbp)
   1774c:	83 bd 94 e8 ff ff 00 	cmpl   $0x0,-0x176c(%rbp)
   17753:	7e cc                	jle    17721 <func_36+0x1fe>
   17755:	83 85 90 e8 ff ff 01 	addl   $0x1,-0x1770(%rbp)
   1775c:	83 bd 90 e8 ff ff 05 	cmpl   $0x5,-0x1770(%rbp)
   17763:	7e b0                	jle    17715 <func_36+0x1f2>
   17765:	c7 85 90 e8 ff ff 00 	movl   $0x0,-0x1770(%rbp)
   1776c:	00 00 00 
   1776f:	eb 50                	jmp    177c1 <func_36+0x29e>
   17771:	c7 85 94 e8 ff ff 00 	movl   $0x0,-0x176c(%rbp)
   17778:	00 00 00 
   1777b:	eb 34                	jmp    177b1 <func_36+0x28e>
   1777d:	8b 85 94 e8 ff ff    	mov    -0x176c(%rbp),%eax
   17783:	48 63 c8             	movslq %eax,%rcx
   17786:	8b 85 90 e8 ff ff    	mov    -0x1770(%rbp),%eax
   1778c:	48 63 d0             	movslq %eax,%rdx
   1778f:	48 89 d0             	mov    %rdx,%rax
   17792:	48 01 c0             	add    %rax,%rax
   17795:	48 01 d0             	add    %rdx,%rax
   17798:	48 01 c8             	add    %rcx,%rax
   1779b:	48 8d 15 ce d0 00 00 	lea    0xd0ce(%rip),%rdx        # 24870 <g_355>
   177a2:	48 89 94 c5 30 ec ff 	mov    %rdx,-0x13d0(%rbp,%rax,8)
   177a9:	ff 
   177aa:	83 85 94 e8 ff ff 01 	addl   $0x1,-0x176c(%rbp)
   177b1:	83 bd 94 e8 ff ff 02 	cmpl   $0x2,-0x176c(%rbp)
   177b8:	7e c3                	jle    1777d <func_36+0x25a>
   177ba:	83 85 90 e8 ff ff 01 	addl   $0x1,-0x1770(%rbp)
   177c1:	83 bd 90 e8 ff ff 05 	cmpl   $0x5,-0x1770(%rbp)
   177c8:	7e a7                	jle    17771 <func_36+0x24e>
   177ca:	c7 85 90 e8 ff ff 00 	movl   $0x0,-0x1770(%rbp)
   177d1:	00 00 00 
   177d4:	eb 51                	jmp    17827 <func_36+0x304>
   177d6:	c7 85 94 e8 ff ff 00 	movl   $0x0,-0x176c(%rbp)
   177dd:	00 00 00 
   177e0:	eb 35                	jmp    17817 <func_36+0x2f4>
   177e2:	8b 85 94 e8 ff ff    	mov    -0x176c(%rbp),%eax
   177e8:	48 63 c8             	movslq %eax,%rcx
   177eb:	8b 85 90 e8 ff ff    	mov    -0x1770(%rbp),%eax
   177f1:	48 63 d0             	movslq %eax,%rdx
   177f4:	48 89 d0             	mov    %rdx,%rax
   177f7:	48 01 c0             	add    %rax,%rax
   177fa:	48 01 d0             	add    %rdx,%rax
   177fd:	48 8d 14 08          	lea    (%rax,%rcx,1),%rdx
   17801:	48 8d 85 70 e9 ff ff 	lea    -0x1690(%rbp),%rax
   17808:	48 89 84 d5 10 eb ff 	mov    %rax,-0x14f0(%rbp,%rdx,8)
   1780f:	ff 
   17810:	83 85 94 e8 ff ff 01 	addl   $0x1,-0x176c(%rbp)
   17817:	83 bd 94 e8 ff ff 02 	cmpl   $0x2,-0x176c(%rbp)
   1781e:	7e c2                	jle    177e2 <func_36+0x2bf>
   17820:	83 85 90 e8 ff ff 01 	addl   $0x1,-0x1770(%rbp)
   17827:	83 bd 90 e8 ff ff 00 	cmpl   $0x0,-0x1770(%rbp)
   1782e:	7e a6                	jle    177d6 <func_36+0x2b3>
   17830:	0f b7 85 76 e8 ff ff 	movzwl -0x178a(%rbp),%eax
   17837:	83 c0 01             	add    $0x1,%eax
   1783a:	66 89 85 76 e8 ff ff 	mov    %ax,-0x178a(%rbp)
   17841:	8b 05 89 c8 00 00    	mov    0xc889(%rip),%eax        # 240d0 <g_108+0x70>
   17847:	0f b7 c0             	movzwl %ax,%eax
   1784a:	8b 95 6c e8 ff ff    	mov    -0x1794(%rbp),%edx
   17850:	89 d6                	mov    %edx,%esi
   17852:	89 c7                	mov    %eax,%edi
   17854:	e8 65 15 ff ff       	callq  8dbe <safe_lshift_func_uint16_t_u_s>
   17859:	41 89 c4             	mov    %eax,%r12d
   1785c:	0f b7 05 11 d0 00 00 	movzwl 0xd011(%rip),%eax        # 24874 <g_368>
   17863:	0f be d8             	movsbl %al,%ebx
   17866:	8b 85 6c e8 ff ff    	mov    -0x1794(%rbp),%eax
   1786c:	98                   	cwtl   
   1786d:	89 c7                	mov    %eax,%edi
   1786f:	e8 29 0b ff ff       	callq  839d <safe_unary_minus_func_int16_t_s>
   17874:	66 85 c0             	test   %ax,%ax
   17877:	75 3b                	jne    178b4 <func_36+0x391>
   17879:	8b 05 ed cf 00 00    	mov    0xcfed(%rip),%eax        # 2486c <g_321>
   1787f:	85 c0                	test   %eax,%eax
   17881:	74 07                	je     1788a <func_36+0x367>
   17883:	b8 01 00 00 00       	mov    $0x1,%eax
   17888:	eb 05                	jmp    1788f <func_36+0x36c>
   1788a:	b8 00 00 00 00       	mov    $0x0,%eax
   1788f:	3b 85 6c e8 ff ff    	cmp    -0x1794(%rbp),%eax
   17895:	0f 9c c0             	setl   %al
   17898:	0f b6 c0             	movzbl %al,%eax
   1789b:	8b 95 6c e8 ff ff    	mov    -0x1794(%rbp),%edx
   178a1:	89 d6                	mov    %edx,%esi
   178a3:	89 c7                	mov    %eax,%edi
   178a5:	e8 22 0e ff ff       	callq  86cc <safe_mod_func_int32_t_s_s>
   178aa:	48 8b 05 4f f8 00 00 	mov    0xf84f(%rip),%rax        # 27100 <g_500>
   178b1:	48 85 c0             	test   %rax,%rax
   178b4:	be 06 00 00 00       	mov    $0x6,%esi
   178b9:	bf 6f b7 00 00       	mov    $0xb76f,%edi
   178be:	e8 85 15 ff ff       	callq  8e48 <safe_rshift_func_uint16_t_u_s>
   178c3:	8b 05 af cf 00 00    	mov    0xcfaf(%rip),%eax        # 24878 <g_370>
   178c9:	0f be c0             	movsbl %al,%eax
   178cc:	89 de                	mov    %ebx,%esi
   178ce:	89 c7                	mov    %eax,%edi
   178d0:	e8 ff 08 ff ff       	callq  81d4 <safe_add_func_int8_t_s_s>
   178d5:	be 0f 00 00 00       	mov    $0xf,%esi
   178da:	bf 00 00 00 00       	mov    $0x0,%edi
   178df:	e8 da 14 ff ff       	callq  8dbe <safe_lshift_func_uint16_t_u_s>
   178e4:	66 41 39 c4          	cmp    %ax,%r12w
   178e8:	0f 92 c0             	setb   %al
   178eb:	0f b6 c8             	movzbl %al,%ecx
   178ee:	48 8b 85 28 e9 ff ff 	mov    -0x16d8(%rbp),%rax
   178f5:	8b 10                	mov    (%rax),%edx
   178f7:	48 8b 85 28 e9 ff ff 	mov    -0x16d8(%rbp),%rax
   178fe:	21 ca                	and    %ecx,%edx
   17900:	89 10                	mov    %edx,(%rax)
   17902:	8b 85 6c e8 ff ff    	mov    -0x1794(%rbp),%eax
   17908:	0f b7 d8             	movzwl %ax,%ebx
   1790b:	48 8b 85 50 e9 ff ff 	mov    -0x16b0(%rbp),%rax
   17912:	48 8b 10             	mov    (%rax),%rdx
   17915:	48 83 c2 01          	add    $0x1,%rdx
   17919:	48 89 10             	mov    %rdx,(%rax)
   1791c:	4c 8b 20             	mov    (%rax),%r12
   1791f:	0f b7 85 78 e8 ff ff 	movzwl -0x1788(%rbp),%eax
   17926:	0f b7 c0             	movzwl %ax,%eax
   17929:	be 00 00 00 00       	mov    $0x0,%esi
   1792e:	89 c7                	mov    %eax,%edi
   17930:	e8 ea 13 ff ff       	callq  8d1f <safe_sub_func_uint16_t_u_u>
   17935:	0f b7 c0             	movzwl %ax,%eax
   17938:	39 85 6c e8 ff ff    	cmp    %eax,-0x1794(%rbp)
   1793e:	0f 9d c0             	setge  %al
   17941:	0f b6 c0             	movzbl %al,%eax
   17944:	49 39 c4             	cmp    %rax,%r12
   17947:	0f 93 c0             	setae  %al
   1794a:	0f b6 c0             	movzbl %al,%eax
   1794d:	89 de                	mov    %ebx,%esi
   1794f:	89 c7                	mov    %eax,%edi
   17951:	e8 38 14 ff ff       	callq  8d8e <safe_div_func_uint16_t_u_u>
   17956:	66 85 c0             	test   %ax,%ax
   17959:	0f 84 0f 2a 00 00    	je     1a36e <func_36+0x2e4b>
   1795f:	48 8d 05 4a f4 00 00 	lea    0xf44a(%rip),%rax        # 26db0 <g_236+0x10>
   17966:	48 89 85 c0 f8 ff ff 	mov    %rax,-0x740(%rbp)
   1796d:	48 8d 85 48 e9 ff ff 	lea    -0x16b8(%rbp),%rax
   17974:	48 89 85 c8 f8 ff ff 	mov    %rax,-0x738(%rbp)
   1797b:	48 8d 85 30 e9 ff ff 	lea    -0x16d0(%rbp),%rax
   17982:	48 89 85 d0 f8 ff ff 	mov    %rax,-0x730(%rbp)
   17989:	48 8d 85 28 e9 ff ff 	lea    -0x16d8(%rbp),%rax
   17990:	48 89 85 d8 f8 ff ff 	mov    %rax,-0x728(%rbp)
   17997:	48 c7 85 e0 f8 ff ff 	movq   $0x0,-0x720(%rbp)
   1799e:	00 00 00 00 
   179a2:	48 8d 85 40 e9 ff ff 	lea    -0x16c0(%rbp),%rax
   179a9:	48 89 85 e8 f8 ff ff 	mov    %rax,-0x718(%rbp)
   179b0:	48 8d 85 30 ec ff ff 	lea    -0x13d0(%rbp),%rax
   179b7:	48 83 c0 40          	add    $0x40,%rax
   179bb:	48 89 85 f0 f8 ff ff 	mov    %rax,-0x710(%rbp)
   179c2:	48 8d 05 b7 f3 00 00 	lea    0xf3b7(%rip),%rax        # 26d80 <g_8>
   179c9:	48 89 85 f8 f8 ff ff 	mov    %rax,-0x708(%rbp)
   179d0:	48 8d 85 30 e9 ff ff 	lea    -0x16d0(%rbp),%rax
   179d7:	48 89 85 00 f9 ff ff 	mov    %rax,-0x700(%rbp)
   179de:	48 8d 85 30 ec ff ff 	lea    -0x13d0(%rbp),%rax
   179e5:	48 83 c0 08          	add    $0x8,%rax
   179e9:	48 89 85 08 f9 ff ff 	mov    %rax,-0x6f8(%rbp)
   179f0:	48 c7 85 10 f9 ff ff 	movq   $0x0,-0x6f0(%rbp)
   179f7:	00 00 00 00 
   179fb:	48 c7 85 18 f9 ff ff 	movq   $0x0,-0x6e8(%rbp)
   17a02:	00 00 00 00 
   17a06:	48 8d 05 73 f3 00 00 	lea    0xf373(%rip),%rax        # 26d80 <g_8>
   17a0d:	48 89 85 20 f9 ff ff 	mov    %rax,-0x6e0(%rbp)
   17a14:	48 8d 85 48 e9 ff ff 	lea    -0x16b8(%rbp),%rax
   17a1b:	48 89 85 28 f9 ff ff 	mov    %rax,-0x6d8(%rbp)
   17a22:	48 8d 05 a7 f3 00 00 	lea    0xf3a7(%rip),%rax        # 26dd0 <g_236+0x30>
   17a29:	48 89 85 30 f9 ff ff 	mov    %rax,-0x6d0(%rbp)
   17a30:	48 8d 85 18 e9 ff ff 	lea    -0x16e8(%rbp),%rax
   17a37:	48 89 85 38 f9 ff ff 	mov    %rax,-0x6c8(%rbp)
   17a3e:	48 c7 85 40 f9 ff ff 	movq   $0x0,-0x6c0(%rbp)
   17a45:	00 00 00 00 
   17a49:	48 8d 85 30 ec ff ff 	lea    -0x13d0(%rbp),%rax
   17a50:	48 83 c0 20          	add    $0x20,%rax
   17a54:	48 89 85 48 f9 ff ff 	mov    %rax,-0x6b8(%rbp)
   17a5b:	48 8d 85 28 e9 ff ff 	lea    -0x16d8(%rbp),%rax
   17a62:	48 89 85 50 f9 ff ff 	mov    %rax,-0x6b0(%rbp)
   17a69:	48 c7 85 58 f9 ff ff 	movq   $0x0,-0x6a8(%rbp)
   17a70:	00 00 00 00 
   17a74:	48 8d 85 30 e9 ff ff 	lea    -0x16d0(%rbp),%rax
   17a7b:	48 89 85 60 f9 ff ff 	mov    %rax,-0x6a0(%rbp)
   17a82:	48 c7 85 68 f9 ff ff 	movq   $0x0,-0x698(%rbp)
   17a89:	00 00 00 00 
   17a8d:	48 8d 05 34 f3 00 00 	lea    0xf334(%rip),%rax        # 26dc8 <g_236+0x28>
   17a94:	48 89 85 70 f9 ff ff 	mov    %rax,-0x690(%rbp)
   17a9b:	48 8d 85 20 e9 ff ff 	lea    -0x16e0(%rbp),%rax
   17aa2:	48 89 85 78 f9 ff ff 	mov    %rax,-0x688(%rbp)
   17aa9:	48 8d 85 28 e9 ff ff 	lea    -0x16d8(%rbp),%rax
   17ab0:	48 89 85 80 f9 ff ff 	mov    %rax,-0x680(%rbp)
   17ab7:	48 c7 85 88 f9 ff ff 	movq   $0x0,-0x678(%rbp)
   17abe:	00 00 00 00 
   17ac2:	48 8d 85 20 e9 ff ff 	lea    -0x16e0(%rbp),%rax
   17ac9:	48 89 85 90 f9 ff ff 	mov    %rax,-0x670(%rbp)
   17ad0:	48 8d 85 38 e9 ff ff 	lea    -0x16c8(%rbp),%rax
   17ad7:	48 89 85 98 f9 ff ff 	mov    %rax,-0x668(%rbp)
   17ade:	48 c7 85 a0 f9 ff ff 	movq   $0x0,-0x660(%rbp)
   17ae5:	00 00 00 00 
   17ae9:	48 8d 85 30 e9 ff ff 	lea    -0x16d0(%rbp),%rax
   17af0:	48 89 85 a8 f9 ff ff 	mov    %rax,-0x658(%rbp)
   17af7:	48 8d 85 30 ec ff ff 	lea    -0x13d0(%rbp),%rax
   17afe:	48 83 c0 08          	add    $0x8,%rax
   17b02:	48 89 85 b0 f9 ff ff 	mov    %rax,-0x650(%rbp)
   17b09:	48 8d 85 30 ec ff ff 	lea    -0x13d0(%rbp),%rax
   17b10:	48 83 c0 10          	add    $0x10,%rax
   17b14:	48 89 85 b8 f9 ff ff 	mov    %rax,-0x648(%rbp)
   17b1b:	48 8d 85 30 ec ff ff 	lea    -0x13d0(%rbp),%rax
   17b22:	48 83 c0 20          	add    $0x20,%rax
   17b26:	48 89 85 c0 f9 ff ff 	mov    %rax,-0x640(%rbp)
   17b2d:	48 8d 05 74 f2 00 00 	lea    0xf274(%rip),%rax        # 26da8 <g_236+0x8>
   17b34:	48 89 85 c8 f9 ff ff 	mov    %rax,-0x638(%rbp)
   17b3b:	48 8d 85 48 e9 ff ff 	lea    -0x16b8(%rbp),%rax
   17b42:	48 89 85 d0 f9 ff ff 	mov    %rax,-0x630(%rbp)
   17b49:	48 8d 05 80 f2 00 00 	lea    0xf280(%rip),%rax        # 26dd0 <g_236+0x30>
   17b50:	48 89 85 d8 f9 ff ff 	mov    %rax,-0x628(%rbp)
   17b57:	48 8d 85 30 ec ff ff 	lea    -0x13d0(%rbp),%rax
   17b5e:	48 83 c0 40          	add    $0x40,%rax
   17b62:	48 89 85 e0 f9 ff ff 	mov    %rax,-0x620(%rbp)
   17b69:	48 8d 85 30 ec ff ff 	lea    -0x13d0(%rbp),%rax
   17b70:	48 83 c0 20          	add    $0x20,%rax
   17b74:	48 89 85 e8 f9 ff ff 	mov    %rax,-0x618(%rbp)
   17b7b:	48 c7 85 f0 f9 ff ff 	movq   $0x0,-0x610(%rbp)
   17b82:	00 00 00 00 
   17b86:	48 8d 85 28 e9 ff ff 	lea    -0x16d8(%rbp),%rax
   17b8d:	48 89 85 f8 f9 ff ff 	mov    %rax,-0x608(%rbp)
   17b94:	48 c7 85 00 fa ff ff 	movq   $0x0,-0x600(%rbp)
   17b9b:	00 00 00 00 
   17b9f:	48 8d 85 30 e9 ff ff 	lea    -0x16d0(%rbp),%rax
   17ba6:	48 89 85 08 fa ff ff 	mov    %rax,-0x5f8(%rbp)
   17bad:	48 8d 05 f4 f1 00 00 	lea    0xf1f4(%rip),%rax        # 26da8 <g_236+0x8>
   17bb4:	48 89 85 10 fa ff ff 	mov    %rax,-0x5f0(%rbp)
   17bbb:	48 8d 85 48 e9 ff ff 	lea    -0x16b8(%rbp),%rax
   17bc2:	48 89 85 18 fa ff ff 	mov    %rax,-0x5e8(%rbp)
   17bc9:	48 8d 85 40 e9 ff ff 	lea    -0x16c0(%rbp),%rax
   17bd0:	48 89 85 20 fa ff ff 	mov    %rax,-0x5e0(%rbp)
   17bd7:	48 8d 85 28 e9 ff ff 	lea    -0x16d8(%rbp),%rax
   17bde:	48 89 85 28 fa ff ff 	mov    %rax,-0x5d8(%rbp)
   17be5:	48 8d 85 30 ec ff ff 	lea    -0x13d0(%rbp),%rax
   17bec:	48 83 c0 10          	add    $0x10,%rax
   17bf0:	48 89 85 30 fa ff ff 	mov    %rax,-0x5d0(%rbp)
   17bf7:	48 8d 85 30 e9 ff ff 	lea    -0x16d0(%rbp),%rax
   17bfe:	48 89 85 38 fa ff ff 	mov    %rax,-0x5c8(%rbp)
   17c05:	48 8d 85 30 ec ff ff 	lea    -0x13d0(%rbp),%rax
   17c0c:	48 83 c0 40          	add    $0x40,%rax
   17c10:	48 89 85 40 fa ff ff 	mov    %rax,-0x5c0(%rbp)
   17c17:	48 c7 85 48 fa ff ff 	movq   $0x0,-0x5b8(%rbp)
   17c1e:	00 00 00 00 
   17c22:	48 8d 85 30 e9 ff ff 	lea    -0x16d0(%rbp),%rax
   17c29:	48 89 85 50 fa ff ff 	mov    %rax,-0x5b0(%rbp)
   17c30:	48 8d 05 71 f1 00 00 	lea    0xf171(%rip),%rax        # 26da8 <g_236+0x8>
   17c37:	48 89 85 58 fa ff ff 	mov    %rax,-0x5a8(%rbp)
   17c3e:	48 8d 85 20 e9 ff ff 	lea    -0x16e0(%rbp),%rax
   17c45:	48 89 85 60 fa ff ff 	mov    %rax,-0x5a0(%rbp)
   17c4c:	48 c7 85 68 fa ff ff 	movq   $0x0,-0x598(%rbp)
   17c53:	00 00 00 00 
   17c57:	48 8d 85 30 ec ff ff 	lea    -0x13d0(%rbp),%rax
   17c5e:	48 83 c0 08          	add    $0x8,%rax
   17c62:	48 89 85 70 fa ff ff 	mov    %rax,-0x590(%rbp)
   17c69:	48 8d 85 48 e9 ff ff 	lea    -0x16b8(%rbp),%rax
   17c70:	48 89 85 78 fa ff ff 	mov    %rax,-0x588(%rbp)
   17c77:	48 c7 85 80 fa ff ff 	movq   $0x0,-0x580(%rbp)
   17c7e:	00 00 00 00 
   17c82:	48 8d 85 38 e9 ff ff 	lea    -0x16c8(%rbp),%rax
   17c89:	48 89 85 88 fa ff ff 	mov    %rax,-0x578(%rbp)
   17c90:	48 c7 85 90 fa ff ff 	movq   $0x0,-0x570(%rbp)
   17c97:	00 00 00 00 
   17c9b:	48 c7 85 98 fa ff ff 	movq   $0x0,-0x568(%rbp)
   17ca2:	00 00 00 00 
   17ca6:	48 8d 85 28 e9 ff ff 	lea    -0x16d8(%rbp),%rax
   17cad:	48 89 85 a0 fa ff ff 	mov    %rax,-0x560(%rbp)
   17cb4:	48 c7 85 a8 fa ff ff 	movq   $0x0,-0x558(%rbp)
   17cbb:	00 00 00 00 
   17cbf:	48 c7 85 b0 fa ff ff 	movq   $0x0,-0x550(%rbp)
   17cc6:	00 00 00 00 
   17cca:	48 c7 85 b8 fa ff ff 	movq   $0x0,-0x548(%rbp)
   17cd1:	00 00 00 00 
   17cd5:	48 8d 85 48 e9 ff ff 	lea    -0x16b8(%rbp),%rax
   17cdc:	48 89 85 c0 fa ff ff 	mov    %rax,-0x540(%rbp)
   17ce3:	48 8d 85 40 e9 ff ff 	lea    -0x16c0(%rbp),%rax
   17cea:	48 89 85 c8 fa ff ff 	mov    %rax,-0x538(%rbp)
   17cf1:	48 8d 85 28 e9 ff ff 	lea    -0x16d8(%rbp),%rax
   17cf8:	48 89 85 d0 fa ff ff 	mov    %rax,-0x530(%rbp)
   17cff:	48 8d 85 20 e9 ff ff 	lea    -0x16e0(%rbp),%rax
   17d06:	48 89 85 d8 fa ff ff 	mov    %rax,-0x528(%rbp)
   17d0d:	48 8d 85 20 e9 ff ff 	lea    -0x16e0(%rbp),%rax
   17d14:	48 89 85 e0 fa ff ff 	mov    %rax,-0x520(%rbp)
   17d1b:	48 8d 85 18 e9 ff ff 	lea    -0x16e8(%rbp),%rax
   17d22:	48 89 85 e8 fa ff ff 	mov    %rax,-0x518(%rbp)
   17d29:	48 c7 85 f0 fa ff ff 	movq   $0x0,-0x510(%rbp)
   17d30:	00 00 00 00 
   17d34:	48 8d 85 30 e9 ff ff 	lea    -0x16d0(%rbp),%rax
   17d3b:	48 89 85 f8 fa ff ff 	mov    %rax,-0x508(%rbp)
   17d42:	48 8d 05 37 f0 00 00 	lea    0xf037(%rip),%rax        # 26d80 <g_8>
   17d49:	48 89 85 00 fb ff ff 	mov    %rax,-0x500(%rbp)
   17d50:	48 8d 85 30 ec ff ff 	lea    -0x13d0(%rbp),%rax
   17d57:	48 83 c0 10          	add    $0x10,%rax
   17d5b:	48 89 85 08 fb ff ff 	mov    %rax,-0x4f8(%rbp)
   17d62:	48 c7 85 10 fb ff ff 	movq   $0x0,-0x4f0(%rbp)
   17d69:	00 00 00 00 
   17d6d:	48 8d 85 30 ec ff ff 	lea    -0x13d0(%rbp),%rax
   17d74:	48 83 c0 08          	add    $0x8,%rax
   17d78:	48 89 85 18 fb ff ff 	mov    %rax,-0x4e8(%rbp)
   17d7f:	48 8d 85 48 e9 ff ff 	lea    -0x16b8(%rbp),%rax
   17d86:	48 89 85 20 fb ff ff 	mov    %rax,-0x4e0(%rbp)
   17d8d:	48 8d 85 30 ec ff ff 	lea    -0x13d0(%rbp),%rax
   17d94:	48 83 c0 20          	add    $0x20,%rax
   17d98:	48 89 85 28 fb ff ff 	mov    %rax,-0x4d8(%rbp)
   17d9f:	48 8d 85 30 ec ff ff 	lea    -0x13d0(%rbp),%rax
   17da6:	48 83 c0 40          	add    $0x40,%rax
   17daa:	48 89 85 30 fb ff ff 	mov    %rax,-0x4d0(%rbp)
   17db1:	48 c7 85 38 fb ff ff 	movq   $0x0,-0x4c8(%rbp)
   17db8:	00 00 00 00 
   17dbc:	48 c7 85 40 fb ff ff 	movq   $0x0,-0x4c0(%rbp)
   17dc3:	00 00 00 00 
   17dc7:	48 8d 85 28 e9 ff ff 	lea    -0x16d8(%rbp),%rax
   17dce:	48 89 85 48 fb ff ff 	mov    %rax,-0x4b8(%rbp)
   17dd5:	48 8d 85 30 ec ff ff 	lea    -0x13d0(%rbp),%rax
   17ddc:	48 83 c0 20          	add    $0x20,%rax
   17de0:	48 89 85 50 fb ff ff 	mov    %rax,-0x4b0(%rbp)
   17de7:	48 8d 85 30 e9 ff ff 	lea    -0x16d0(%rbp),%rax
   17dee:	48 89 85 58 fb ff ff 	mov    %rax,-0x4a8(%rbp)
   17df5:	48 8d 05 b4 ef 00 00 	lea    0xefb4(%rip),%rax        # 26db0 <g_236+0x10>
   17dfc:	48 89 85 60 fb ff ff 	mov    %rax,-0x4a0(%rbp)
   17e03:	48 8d 85 48 e9 ff ff 	lea    -0x16b8(%rbp),%rax
   17e0a:	48 89 85 68 fb ff ff 	mov    %rax,-0x498(%rbp)
   17e11:	48 8d 85 20 e9 ff ff 	lea    -0x16e0(%rbp),%rax
   17e18:	48 89 85 70 fb ff ff 	mov    %rax,-0x490(%rbp)
   17e1f:	48 8d 85 30 ec ff ff 	lea    -0x13d0(%rbp),%rax
   17e26:	48 83 c0 20          	add    $0x20,%rax
   17e2a:	48 89 85 78 fb ff ff 	mov    %rax,-0x488(%rbp)
   17e31:	48 8d 85 30 ec ff ff 	lea    -0x13d0(%rbp),%rax
   17e38:	48 83 c0 10          	add    $0x10,%rax
   17e3c:	48 89 85 80 fb ff ff 	mov    %rax,-0x480(%rbp)
   17e43:	48 8d 85 40 e9 ff ff 	lea    -0x16c0(%rbp),%rax
   17e4a:	48 89 85 88 fb ff ff 	mov    %rax,-0x478(%rbp)
   17e51:	48 8d 85 18 e9 ff ff 	lea    -0x16e8(%rbp),%rax
   17e58:	48 89 85 90 fb ff ff 	mov    %rax,-0x470(%rbp)
   17e5f:	48 c7 85 98 fb ff ff 	movq   $0x0,-0x468(%rbp)
   17e66:	00 00 00 00 
   17e6a:	48 c7 85 a0 fb ff ff 	movq   $0x0,-0x460(%rbp)
   17e71:	00 00 00 00 
   17e75:	48 8d 05 2c ef 00 00 	lea    0xef2c(%rip),%rax        # 26da8 <g_236+0x8>
   17e7c:	48 89 85 a8 fb ff ff 	mov    %rax,-0x458(%rbp)
   17e83:	48 c7 85 b0 fb ff ff 	movq   $0x0,-0x450(%rbp)
   17e8a:	00 00 00 00 
   17e8e:	48 c7 85 b8 fb ff ff 	movq   $0x0,-0x448(%rbp)
   17e95:	00 00 00 00 
   17e99:	48 8d 05 08 ef 00 00 	lea    0xef08(%rip),%rax        # 26da8 <g_236+0x8>
   17ea0:	48 89 85 c0 fb ff ff 	mov    %rax,-0x440(%rbp)
   17ea7:	48 8d 05 1a ef 00 00 	lea    0xef1a(%rip),%rax        # 26dc8 <g_236+0x28>
   17eae:	48 89 85 c8 fb ff ff 	mov    %rax,-0x438(%rbp)
   17eb5:	48 c7 85 d0 fb ff ff 	movq   $0x0,-0x430(%rbp)
   17ebc:	00 00 00 00 
   17ec0:	48 8d 85 18 e9 ff ff 	lea    -0x16e8(%rbp),%rax
   17ec7:	48 89 85 d8 fb ff ff 	mov    %rax,-0x428(%rbp)
   17ece:	48 c7 85 e0 fb ff ff 	movq   $0x0,-0x420(%rbp)
   17ed5:	00 00 00 00 
   17ed9:	48 c7 85 e8 fb ff ff 	movq   $0x0,-0x418(%rbp)
   17ee0:	00 00 00 00 
   17ee4:	48 8d 85 30 ec ff ff 	lea    -0x13d0(%rbp),%rax
   17eeb:	48 83 c0 20          	add    $0x20,%rax
   17eef:	48 89 85 f0 fb ff ff 	mov    %rax,-0x410(%rbp)
   17ef6:	48 c7 85 f8 fb ff ff 	movq   $0x0,-0x408(%rbp)
   17efd:	00 00 00 00 
   17f01:	48 8d 85 30 e9 ff ff 	lea    -0x16d0(%rbp),%rax
   17f08:	48 89 85 00 fc ff ff 	mov    %rax,-0x400(%rbp)
   17f0f:	48 8d 05 9a ee 00 00 	lea    0xee9a(%rip),%rax        # 26db0 <g_236+0x10>
   17f16:	48 89 85 08 fc ff ff 	mov    %rax,-0x3f8(%rbp)
   17f1d:	48 8d 85 48 e9 ff ff 	lea    -0x16b8(%rbp),%rax
   17f24:	48 89 85 10 fc ff ff 	mov    %rax,-0x3f0(%rbp)
   17f2b:	48 8d 85 30 e9 ff ff 	lea    -0x16d0(%rbp),%rax
   17f32:	48 89 85 18 fc ff ff 	mov    %rax,-0x3e8(%rbp)
   17f39:	48 8d 85 28 e9 ff ff 	lea    -0x16d8(%rbp),%rax
   17f40:	48 89 85 20 fc ff ff 	mov    %rax,-0x3e0(%rbp)
   17f47:	48 c7 85 28 fc ff ff 	movq   $0x0,-0x3d8(%rbp)
   17f4e:	00 00 00 00 
   17f52:	48 8d 85 40 e9 ff ff 	lea    -0x16c0(%rbp),%rax
   17f59:	48 89 85 30 fc ff ff 	mov    %rax,-0x3d0(%rbp)
   17f60:	48 8d 85 30 ec ff ff 	lea    -0x13d0(%rbp),%rax
   17f67:	48 83 c0 40          	add    $0x40,%rax
   17f6b:	48 89 85 38 fc ff ff 	mov    %rax,-0x3c8(%rbp)
   17f72:	48 8d 05 07 ee 00 00 	lea    0xee07(%rip),%rax        # 26d80 <g_8>
   17f79:	48 89 85 40 fc ff ff 	mov    %rax,-0x3c0(%rbp)
   17f80:	48 8d 85 30 e9 ff ff 	lea    -0x16d0(%rbp),%rax
   17f87:	48 89 85 48 fc ff ff 	mov    %rax,-0x3b8(%rbp)
   17f8e:	48 8d 85 30 ec ff ff 	lea    -0x13d0(%rbp),%rax
   17f95:	48 83 c0 08          	add    $0x8,%rax
   17f99:	48 89 85 50 fc ff ff 	mov    %rax,-0x3b0(%rbp)
   17fa0:	48 c7 85 58 fc ff ff 	movq   $0x0,-0x3a8(%rbp)
   17fa7:	00 00 00 00 
   17fab:	48 c7 85 60 fc ff ff 	movq   $0x0,-0x3a0(%rbp)
   17fb2:	00 00 00 00 
   17fb6:	48 8d 05 c3 ed 00 00 	lea    0xedc3(%rip),%rax        # 26d80 <g_8>
   17fbd:	48 89 85 68 fc ff ff 	mov    %rax,-0x398(%rbp)
   17fc4:	48 8d 85 48 e9 ff ff 	lea    -0x16b8(%rbp),%rax
   17fcb:	48 89 85 70 fc ff ff 	mov    %rax,-0x390(%rbp)
   17fd2:	48 8d 05 f7 ed 00 00 	lea    0xedf7(%rip),%rax        # 26dd0 <g_236+0x30>
   17fd9:	48 89 85 78 fc ff ff 	mov    %rax,-0x388(%rbp)
   17fe0:	48 8d 85 18 e9 ff ff 	lea    -0x16e8(%rbp),%rax
   17fe7:	48 89 85 80 fc ff ff 	mov    %rax,-0x380(%rbp)
   17fee:	48 c7 85 88 fc ff ff 	movq   $0x0,-0x378(%rbp)
   17ff5:	00 00 00 00 
   17ff9:	48 8d 85 30 ec ff ff 	lea    -0x13d0(%rbp),%rax
   18000:	48 83 c0 20          	add    $0x20,%rax
   18004:	48 89 85 90 fc ff ff 	mov    %rax,-0x370(%rbp)
   1800b:	48 8d 85 28 e9 ff ff 	lea    -0x16d8(%rbp),%rax
   18012:	48 89 85 98 fc ff ff 	mov    %rax,-0x368(%rbp)
   18019:	48 c7 85 a0 fc ff ff 	movq   $0x0,-0x360(%rbp)
   18020:	00 00 00 00 
   18024:	48 8d 85 30 e9 ff ff 	lea    -0x16d0(%rbp),%rax
   1802b:	48 89 85 a8 fc ff ff 	mov    %rax,-0x358(%rbp)
   18032:	48 c7 85 b0 fc ff ff 	movq   $0x0,-0x350(%rbp)
   18039:	00 00 00 00 
   1803d:	48 8d 05 84 ed 00 00 	lea    0xed84(%rip),%rax        # 26dc8 <g_236+0x28>
   18044:	48 89 85 b8 fc ff ff 	mov    %rax,-0x348(%rbp)
   1804b:	48 8d 85 20 e9 ff ff 	lea    -0x16e0(%rbp),%rax
   18052:	48 89 85 c0 fc ff ff 	mov    %rax,-0x340(%rbp)
   18059:	48 8d 85 28 e9 ff ff 	lea    -0x16d8(%rbp),%rax
   18060:	48 89 85 c8 fc ff ff 	mov    %rax,-0x338(%rbp)
   18067:	48 c7 85 d0 fc ff ff 	movq   $0x0,-0x330(%rbp)
   1806e:	00 00 00 00 
   18072:	48 8d 85 20 e9 ff ff 	lea    -0x16e0(%rbp),%rax
   18079:	48 89 85 d8 fc ff ff 	mov    %rax,-0x328(%rbp)
   18080:	48 8d 85 38 e9 ff ff 	lea    -0x16c8(%rbp),%rax
   18087:	48 89 85 e0 fc ff ff 	mov    %rax,-0x320(%rbp)
   1808e:	48 c7 85 e8 fc ff ff 	movq   $0x0,-0x318(%rbp)
   18095:	00 00 00 00 
   18099:	48 8d 85 30 e9 ff ff 	lea    -0x16d0(%rbp),%rax
   180a0:	48 89 85 f0 fc ff ff 	mov    %rax,-0x310(%rbp)
   180a7:	48 8d 85 30 ec ff ff 	lea    -0x13d0(%rbp),%rax
   180ae:	48 83 c0 08          	add    $0x8,%rax
   180b2:	48 89 85 f8 fc ff ff 	mov    %rax,-0x308(%rbp)
   180b9:	48 8d 85 30 ec ff ff 	lea    -0x13d0(%rbp),%rax
   180c0:	48 83 c0 10          	add    $0x10,%rax
   180c4:	48 89 85 00 fd ff ff 	mov    %rax,-0x300(%rbp)
   180cb:	48 8d 85 30 ec ff ff 	lea    -0x13d0(%rbp),%rax
   180d2:	48 83 c0 20          	add    $0x20,%rax
   180d6:	48 89 85 08 fd ff ff 	mov    %rax,-0x2f8(%rbp)
   180dd:	48 8d 05 c4 ec 00 00 	lea    0xecc4(%rip),%rax        # 26da8 <g_236+0x8>
   180e4:	48 89 85 10 fd ff ff 	mov    %rax,-0x2f0(%rbp)
   180eb:	48 8d 85 48 e9 ff ff 	lea    -0x16b8(%rbp),%rax
   180f2:	48 89 85 18 fd ff ff 	mov    %rax,-0x2e8(%rbp)
   180f9:	48 8d 05 d0 ec 00 00 	lea    0xecd0(%rip),%rax        # 26dd0 <g_236+0x30>
   18100:	48 89 85 20 fd ff ff 	mov    %rax,-0x2e0(%rbp)
   18107:	48 8d 85 30 ec ff ff 	lea    -0x13d0(%rbp),%rax
   1810e:	48 83 c0 40          	add    $0x40,%rax
   18112:	48 89 85 28 fd ff ff 	mov    %rax,-0x2d8(%rbp)
   18119:	48 8d 85 30 ec ff ff 	lea    -0x13d0(%rbp),%rax
   18120:	48 83 c0 20          	add    $0x20,%rax
   18124:	48 89 85 30 fd ff ff 	mov    %rax,-0x2d0(%rbp)
   1812b:	48 c7 85 38 fd ff ff 	movq   $0x0,-0x2c8(%rbp)
   18132:	00 00 00 00 
   18136:	48 8d 85 28 e9 ff ff 	lea    -0x16d8(%rbp),%rax
   1813d:	48 89 85 40 fd ff ff 	mov    %rax,-0x2c0(%rbp)
   18144:	48 c7 85 48 fd ff ff 	movq   $0x0,-0x2b8(%rbp)
   1814b:	00 00 00 00 
   1814f:	48 8d 85 30 ec ff ff 	lea    -0x13d0(%rbp),%rax
   18156:	48 83 c0 20          	add    $0x20,%rax
   1815a:	48 89 85 50 fd ff ff 	mov    %rax,-0x2b0(%rbp)
   18161:	48 c7 85 58 fd ff ff 	movq   $0x0,-0x2a8(%rbp)
   18168:	00 00 00 00 
   1816c:	48 8d 85 48 e9 ff ff 	lea    -0x16b8(%rbp),%rax
   18173:	48 89 85 60 fd ff ff 	mov    %rax,-0x2a0(%rbp)
   1817a:	48 8d 85 28 e9 ff ff 	lea    -0x16d8(%rbp),%rax
   18181:	48 89 85 68 fd ff ff 	mov    %rax,-0x298(%rbp)
   18188:	48 8d 85 20 e9 ff ff 	lea    -0x16e0(%rbp),%rax
   1818f:	48 89 85 70 fd ff ff 	mov    %rax,-0x290(%rbp)
   18196:	48 8d 85 30 ec ff ff 	lea    -0x13d0(%rbp),%rax
   1819d:	48 83 c0 20          	add    $0x20,%rax
   181a1:	48 89 85 78 fd ff ff 	mov    %rax,-0x288(%rbp)
   181a8:	48 8d 85 20 e9 ff ff 	lea    -0x16e0(%rbp),%rax
   181af:	48 89 85 80 fd ff ff 	mov    %rax,-0x280(%rbp)
   181b6:	48 c7 85 88 fd ff ff 	movq   $0x0,-0x278(%rbp)
   181bd:	00 00 00 00 
   181c1:	48 8d 85 20 e9 ff ff 	lea    -0x16e0(%rbp),%rax
   181c8:	48 89 85 90 fd ff ff 	mov    %rax,-0x270(%rbp)
   181cf:	48 8d 85 30 ec ff ff 	lea    -0x13d0(%rbp),%rax
   181d6:	48 83 c0 20          	add    $0x20,%rax
   181da:	48 89 85 98 fd ff ff 	mov    %rax,-0x268(%rbp)
   181e1:	48 c7 85 a0 fd ff ff 	movq   $0x0,-0x260(%rbp)
   181e8:	00 00 00 00 
   181ec:	48 8d 85 38 e9 ff ff 	lea    -0x16c8(%rbp),%rax
   181f3:	48 89 85 a8 fd ff ff 	mov    %rax,-0x258(%rbp)
   181fa:	48 8d 85 18 e9 ff ff 	lea    -0x16e8(%rbp),%rax
   18201:	48 89 85 b0 fd ff ff 	mov    %rax,-0x250(%rbp)
   18208:	48 8d 85 20 e9 ff ff 	lea    -0x16e0(%rbp),%rax
   1820f:	48 89 85 b8 fd ff ff 	mov    %rax,-0x248(%rbp)
   18216:	48 8d 85 30 ec ff ff 	lea    -0x13d0(%rbp),%rax
   1821d:	48 83 c0 20          	add    $0x20,%rax
   18221:	48 89 85 c0 fd ff ff 	mov    %rax,-0x240(%rbp)
   18228:	48 8d 85 48 e9 ff ff 	lea    -0x16b8(%rbp),%rax
   1822f:	48 89 85 c8 fd ff ff 	mov    %rax,-0x238(%rbp)
   18236:	48 8d 85 30 ec ff ff 	lea    -0x13d0(%rbp),%rax
   1823d:	48 83 c0 20          	add    $0x20,%rax
   18241:	48 89 85 d0 fd ff ff 	mov    %rax,-0x230(%rbp)
   18248:	48 8d 85 48 e9 ff ff 	lea    -0x16b8(%rbp),%rax
   1824f:	48 89 85 d8 fd ff ff 	mov    %rax,-0x228(%rbp)
   18256:	48 8d 85 28 e9 ff ff 	lea    -0x16d8(%rbp),%rax
   1825d:	48 89 85 e0 fd ff ff 	mov    %rax,-0x220(%rbp)
   18264:	48 8d 85 20 e9 ff ff 	lea    -0x16e0(%rbp),%rax
   1826b:	48 89 85 e8 fd ff ff 	mov    %rax,-0x218(%rbp)
   18272:	48 8d 85 48 e9 ff ff 	lea    -0x16b8(%rbp),%rax
   18279:	48 89 85 f0 fd ff ff 	mov    %rax,-0x210(%rbp)
   18280:	48 c7 85 f8 fd ff ff 	movq   $0x0,-0x208(%rbp)
   18287:	00 00 00 00 
   1828b:	48 8d 85 30 e9 ff ff 	lea    -0x16d0(%rbp),%rax
   18292:	48 89 85 00 fe ff ff 	mov    %rax,-0x200(%rbp)
   18299:	48 8d 85 30 ec ff ff 	lea    -0x13d0(%rbp),%rax
   182a0:	48 83 c0 20          	add    $0x20,%rax
   182a4:	48 89 85 08 fe ff ff 	mov    %rax,-0x1f8(%rbp)
   182ab:	48 8d 85 28 e9 ff ff 	lea    -0x16d8(%rbp),%rax
   182b2:	48 89 85 10 fe ff ff 	mov    %rax,-0x1f0(%rbp)
   182b9:	48 8d 85 20 e9 ff ff 	lea    -0x16e0(%rbp),%rax
   182c0:	48 89 85 18 fe ff ff 	mov    %rax,-0x1e8(%rbp)
   182c7:	48 8d 85 38 e9 ff ff 	lea    -0x16c8(%rbp),%rax
   182ce:	48 89 85 20 fe ff ff 	mov    %rax,-0x1e0(%rbp)
   182d5:	48 8d 05 cc ea 00 00 	lea    0xeacc(%rip),%rax        # 26da8 <g_236+0x8>
   182dc:	48 89 85 28 fe ff ff 	mov    %rax,-0x1d8(%rbp)
   182e3:	48 c7 85 30 fe ff ff 	movq   $0x0,-0x1d0(%rbp)
   182ea:	00 00 00 00 
   182ee:	48 8d 85 20 e9 ff ff 	lea    -0x16e0(%rbp),%rax
   182f5:	48 89 85 38 fe ff ff 	mov    %rax,-0x1c8(%rbp)
   182fc:	48 8d 85 30 ec ff ff 	lea    -0x13d0(%rbp),%rax
   18303:	48 83 c0 20          	add    $0x20,%rax
   18307:	48 89 85 40 fe ff ff 	mov    %rax,-0x1c0(%rbp)
   1830e:	48 8d 85 40 e9 ff ff 	lea    -0x16c0(%rbp),%rax
   18315:	48 89 85 48 fe ff ff 	mov    %rax,-0x1b8(%rbp)
   1831c:	48 8d 85 30 ec ff ff 	lea    -0x13d0(%rbp),%rax
   18323:	48 83 c0 20          	add    $0x20,%rax
   18327:	48 89 85 50 fe ff ff 	mov    %rax,-0x1b0(%rbp)
   1832e:	48 8d 85 28 e9 ff ff 	lea    -0x16d8(%rbp),%rax
   18335:	48 89 85 58 fe ff ff 	mov    %rax,-0x1a8(%rbp)
   1833c:	48 8d 85 20 e9 ff ff 	lea    -0x16e0(%rbp),%rax
   18343:	48 89 85 60 fe ff ff 	mov    %rax,-0x1a0(%rbp)
   1834a:	48 8d 85 48 e9 ff ff 	lea    -0x16b8(%rbp),%rax
   18351:	48 89 85 68 fe ff ff 	mov    %rax,-0x198(%rbp)
   18358:	48 8d 85 40 e9 ff ff 	lea    -0x16c0(%rbp),%rax
   1835f:	48 89 85 70 fe ff ff 	mov    %rax,-0x190(%rbp)
   18366:	48 c7 85 78 fe ff ff 	movq   $0x0,-0x188(%rbp)
   1836d:	00 00 00 00 
   18371:	48 8d 85 18 e9 ff ff 	lea    -0x16e8(%rbp),%rax
   18378:	48 89 85 80 fe ff ff 	mov    %rax,-0x180(%rbp)
   1837f:	48 8d 85 28 e9 ff ff 	lea    -0x16d8(%rbp),%rax
   18386:	48 89 85 88 fe ff ff 	mov    %rax,-0x178(%rbp)
   1838d:	48 8d 85 20 e9 ff ff 	lea    -0x16e0(%rbp),%rax
   18394:	48 89 85 90 fe ff ff 	mov    %rax,-0x170(%rbp)
   1839b:	48 8d 05 06 ea 00 00 	lea    0xea06(%rip),%rax        # 26da8 <g_236+0x8>
   183a2:	48 89 85 98 fe ff ff 	mov    %rax,-0x168(%rbp)
   183a9:	48 8d 85 30 ec ff ff 	lea    -0x13d0(%rbp),%rax
   183b0:	48 83 c0 20          	add    $0x20,%rax
   183b4:	48 89 85 a0 fe ff ff 	mov    %rax,-0x160(%rbp)
   183bb:	48 8d 85 30 e9 ff ff 	lea    -0x16d0(%rbp),%rax
   183c2:	48 89 85 a8 fe ff ff 	mov    %rax,-0x158(%rbp)
   183c9:	48 8d 85 30 ec ff ff 	lea    -0x13d0(%rbp),%rax
   183d0:	48 83 c0 20          	add    $0x20,%rax
   183d4:	48 89 85 b0 fe ff ff 	mov    %rax,-0x150(%rbp)
   183db:	48 8d 05 c6 e9 00 00 	lea    0xe9c6(%rip),%rax        # 26da8 <g_236+0x8>
   183e2:	48 89 85 b8 fe ff ff 	mov    %rax,-0x148(%rbp)
   183e9:	48 8d 85 20 e9 ff ff 	lea    -0x16e0(%rbp),%rax
   183f0:	48 89 85 c0 fe ff ff 	mov    %rax,-0x140(%rbp)
   183f7:	48 8d 85 30 ec ff ff 	lea    -0x13d0(%rbp),%rax
   183fe:	48 83 c0 20          	add    $0x20,%rax
   18402:	48 89 85 c8 fe ff ff 	mov    %rax,-0x138(%rbp)
   18409:	48 8d 85 28 e9 ff ff 	lea    -0x16d8(%rbp),%rax
   18410:	48 89 85 d0 fe ff ff 	mov    %rax,-0x130(%rbp)
   18417:	48 c7 85 d8 fe ff ff 	movq   $0x0,-0x128(%rbp)
   1841e:	00 00 00 00 
   18422:	48 8d 85 48 e9 ff ff 	lea    -0x16b8(%rbp),%rax
   18429:	48 89 85 e0 fe ff ff 	mov    %rax,-0x120(%rbp)
   18430:	48 c7 85 e8 fe ff ff 	movq   $0x0,-0x118(%rbp)
   18437:	00 00 00 00 
   1843b:	48 c7 85 f0 fe ff ff 	movq   $0x0,-0x110(%rbp)
   18442:	00 00 00 00 
   18446:	48 8d 85 48 e9 ff ff 	lea    -0x16b8(%rbp),%rax
   1844d:	48 89 85 f8 fe ff ff 	mov    %rax,-0x108(%rbp)
   18454:	48 8d 85 28 e9 ff ff 	lea    -0x16d8(%rbp),%rax
   1845b:	48 89 85 00 ff ff ff 	mov    %rax,-0x100(%rbp)
   18462:	48 c7 85 08 ff ff ff 	movq   $0x0,-0xf8(%rbp)
   18469:	00 00 00 00 
   1846d:	48 8d 85 18 e9 ff ff 	lea    -0x16e8(%rbp),%rax
   18474:	48 89 85 10 ff ff ff 	mov    %rax,-0xf0(%rbp)
   1847b:	48 8d 85 48 e9 ff ff 	lea    -0x16b8(%rbp),%rax
   18482:	48 89 85 18 ff ff ff 	mov    %rax,-0xe8(%rbp)
   18489:	48 c7 85 20 ff ff ff 	movq   $0x0,-0xe0(%rbp)
   18490:	00 00 00 00 
   18494:	48 8d 85 18 e9 ff ff 	lea    -0x16e8(%rbp),%rax
   1849b:	48 89 85 28 ff ff ff 	mov    %rax,-0xd8(%rbp)
   184a2:	48 8d 85 18 e9 ff ff 	lea    -0x16e8(%rbp),%rax
   184a9:	48 89 85 30 ff ff ff 	mov    %rax,-0xd0(%rbp)
   184b0:	48 8d 85 20 e9 ff ff 	lea    -0x16e0(%rbp),%rax
   184b7:	48 89 85 38 ff ff ff 	mov    %rax,-0xc8(%rbp)
   184be:	48 8d 85 48 e9 ff ff 	lea    -0x16b8(%rbp),%rax
   184c5:	48 89 85 40 ff ff ff 	mov    %rax,-0xc0(%rbp)
   184cc:	48 8d 85 30 ec ff ff 	lea    -0x13d0(%rbp),%rax
   184d3:	48 83 c0 20          	add    $0x20,%rax
   184d7:	48 89 85 48 ff ff ff 	mov    %rax,-0xb8(%rbp)
   184de:	48 8d 85 30 e9 ff ff 	lea    -0x16d0(%rbp),%rax
   184e5:	48 89 85 50 ff ff ff 	mov    %rax,-0xb0(%rbp)
   184ec:	48 8d 85 48 e9 ff ff 	lea    -0x16b8(%rbp),%rax
   184f3:	48 89 85 58 ff ff ff 	mov    %rax,-0xa8(%rbp)
   184fa:	48 8d 85 20 e9 ff ff 	lea    -0x16e0(%rbp),%rax
   18501:	48 89 85 60 ff ff ff 	mov    %rax,-0xa0(%rbp)
   18508:	48 8d 85 20 e9 ff ff 	lea    -0x16e0(%rbp),%rax
   1850f:	48 89 85 68 ff ff ff 	mov    %rax,-0x98(%rbp)
   18516:	48 8d 85 48 e9 ff ff 	lea    -0x16b8(%rbp),%rax
   1851d:	48 89 85 70 ff ff ff 	mov    %rax,-0x90(%rbp)
   18524:	48 8d 85 28 e9 ff ff 	lea    -0x16d8(%rbp),%rax
   1852b:	48 89 85 78 ff ff ff 	mov    %rax,-0x88(%rbp)
   18532:	48 8d 85 c0 f8 ff ff 	lea    -0x740(%rbp),%rax
   18539:	48 05 d0 00 00 00    	add    $0xd0,%rax
   1853f:	48 89 85 20 ea ff ff 	mov    %rax,-0x15e0(%rbp)
   18546:	48 8d 05 1b c3 00 00 	lea    0xc31b(%rip),%rax        # 24868 <g_269>
   1854d:	48 89 85 90 e9 ff ff 	mov    %rax,-0x1670(%rbp)
   18554:	c7 85 c0 e8 ff ff fe 	movl   $0xfffffffe,-0x1740(%rbp)
   1855b:	ff ff ff 
   1855e:	48 bb f3 77 d3 db 36 	movabs $0x699bb936dbd377f3,%rbx
   18565:	b9 9b 69 
   18568:	48 89 9d 90 eb ff ff 	mov    %rbx,-0x1470(%rbp)
   1856f:	48 b8 ac 3d b3 4f 83 	movabs $0xf2b9c834fb33dac,%rax
   18576:	9c 2b 0f 
   18579:	48 89 85 98 eb ff ff 	mov    %rax,-0x1468(%rbp)
   18580:	48 89 85 a0 eb ff ff 	mov    %rax,-0x1460(%rbp)
   18587:	48 89 9d a8 eb ff ff 	mov    %rbx,-0x1458(%rbp)
   1858e:	48 89 85 b0 eb ff ff 	mov    %rax,-0x1450(%rbp)
   18595:	48 89 85 b8 eb ff ff 	mov    %rax,-0x1448(%rbp)
   1859c:	48 89 9d c0 eb ff ff 	mov    %rbx,-0x1440(%rbp)
   185a3:	48 89 85 c8 eb ff ff 	mov    %rax,-0x1438(%rbp)
   185aa:	48 c7 85 c0 ec ff ff 	movq   $0xffffffffffffffff,-0x1340(%rbp)
   185b1:	ff ff ff ff 
   185b5:	48 c7 85 c8 ec ff ff 	movq   $0xffffffffffffffff,-0x1338(%rbp)
   185bc:	ff ff ff ff 
   185c0:	48 b9 1a c4 0b 66 52 	movabs $0x30df8a52660bc41a,%rcx
   185c7:	8a df 30 
   185ca:	48 89 8d d0 ec ff ff 	mov    %rcx,-0x1330(%rbp)
   185d1:	48 c7 85 d8 ec ff ff 	movq   $0xffffffffffffffff,-0x1328(%rbp)
   185d8:	ff ff ff ff 
   185dc:	48 c7 85 e0 ec ff ff 	movq   $0xffffffffffffffff,-0x1320(%rbp)
   185e3:	ff ff ff ff 
   185e7:	48 c7 85 e8 ec ff ff 	movq   $0x0,-0x1318(%rbp)
   185ee:	00 00 00 00 
   185f2:	48 b8 68 1d 36 79 65 	movabs $0x62c81c6579361d68,%rax
   185f9:	1c c8 62 
   185fc:	48 89 85 f0 ec ff ff 	mov    %rax,-0x1310(%rbp)
   18603:	48 bb 68 af a2 c1 1a 	movabs $0xa251f31ac1a2af68,%rbx
   1860a:	f3 51 a2 
   1860d:	48 89 9d f8 ec ff ff 	mov    %rbx,-0x1308(%rbp)
   18614:	48 89 8d 00 ed ff ff 	mov    %rcx,-0x1300(%rbp)
   1861b:	48 89 85 08 ed ff ff 	mov    %rax,-0x12f8(%rbp)
   18622:	48 89 9d 10 ed ff ff 	mov    %rbx,-0x12f0(%rbp)
   18629:	48 c7 85 18 ed ff ff 	movq   $0x0,-0x12e8(%rbp)
   18630:	00 00 00 00 
   18634:	48 89 9d 20 ed ff ff 	mov    %rbx,-0x12e0(%rbp)
   1863b:	48 89 85 28 ed ff ff 	mov    %rax,-0x12d8(%rbp)
   18642:	48 89 8d 30 ed ff ff 	mov    %rcx,-0x12d0(%rbp)
   18649:	48 89 9d 38 ed ff ff 	mov    %rbx,-0x12c8(%rbp)
   18650:	48 89 85 40 ed ff ff 	mov    %rax,-0x12c0(%rbp)
   18657:	48 c7 85 48 ed ff ff 	movq   $0x0,-0x12b8(%rbp)
   1865e:	00 00 00 00 
   18662:	48 c7 85 50 ed ff ff 	movq   $0xffffffffffffffff,-0x12b0(%rbp)
   18669:	ff ff ff ff 
   1866d:	48 c7 85 58 ed ff ff 	movq   $0xffffffffffffffff,-0x12a8(%rbp)
   18674:	ff ff ff ff 
   18678:	48 8d 05 09 e7 00 00 	lea    0xe709(%rip),%rax        # 26d88 <g_146>
   1867f:	48 89 85 60 ed ff ff 	mov    %rax,-0x12a0(%rbp)
   18686:	48 8d 05 fb e6 00 00 	lea    0xe6fb(%rip),%rax        # 26d88 <g_146>
   1868d:	48 89 85 68 ed ff ff 	mov    %rax,-0x1298(%rbp)
   18694:	48 8d 05 ed e6 00 00 	lea    0xe6ed(%rip),%rax        # 26d88 <g_146>
   1869b:	48 89 85 70 ed ff ff 	mov    %rax,-0x1290(%rbp)
   186a2:	48 8d 05 df e6 00 00 	lea    0xe6df(%rip),%rax        # 26d88 <g_146>
   186a9:	48 89 85 78 ed ff ff 	mov    %rax,-0x1288(%rbp)
   186b0:	48 c7 85 80 ed ff ff 	movq   $0x0,-0x1280(%rbp)
   186b7:	00 00 00 00 
   186bb:	48 8d 05 c6 e6 00 00 	lea    0xe6c6(%rip),%rax        # 26d88 <g_146>
   186c2:	48 89 85 88 ed ff ff 	mov    %rax,-0x1278(%rbp)
   186c9:	48 8d 05 b8 e6 00 00 	lea    0xe6b8(%rip),%rax        # 26d88 <g_146>
   186d0:	48 89 85 90 ed ff ff 	mov    %rax,-0x1270(%rbp)
   186d7:	48 8d 05 aa e6 00 00 	lea    0xe6aa(%rip),%rax        # 26d88 <g_146>
   186de:	48 89 85 98 ed ff ff 	mov    %rax,-0x1268(%rbp)
   186e5:	48 8d 05 9c e6 00 00 	lea    0xe69c(%rip),%rax        # 26d88 <g_146>
   186ec:	48 89 85 a0 ed ff ff 	mov    %rax,-0x1260(%rbp)
   186f3:	48 8d 05 8e e6 00 00 	lea    0xe68e(%rip),%rax        # 26d88 <g_146>
   186fa:	48 89 85 a8 ed ff ff 	mov    %rax,-0x1258(%rbp)
   18701:	48 8d 05 80 e6 00 00 	lea    0xe680(%rip),%rax        # 26d88 <g_146>
   18708:	48 89 85 b0 ed ff ff 	mov    %rax,-0x1250(%rbp)
   1870f:	48 8d 05 72 e6 00 00 	lea    0xe672(%rip),%rax        # 26d88 <g_146>
   18716:	48 89 85 b8 ed ff ff 	mov    %rax,-0x1248(%rbp)
   1871d:	48 c7 85 c0 ed ff ff 	movq   $0x0,-0x1240(%rbp)
   18724:	00 00 00 00 
   18728:	48 c7 85 c8 ed ff ff 	movq   $0x0,-0x1238(%rbp)
   1872f:	00 00 00 00 
   18733:	48 8d 05 4e e6 00 00 	lea    0xe64e(%rip),%rax        # 26d88 <g_146>
   1873a:	48 89 85 d0 ed ff ff 	mov    %rax,-0x1230(%rbp)
   18741:	48 8d 05 40 e6 00 00 	lea    0xe640(%rip),%rax        # 26d88 <g_146>
   18748:	48 89 85 d8 ed ff ff 	mov    %rax,-0x1228(%rbp)
   1874f:	48 8d 05 32 e6 00 00 	lea    0xe632(%rip),%rax        # 26d88 <g_146>
   18756:	48 89 85 e0 ed ff ff 	mov    %rax,-0x1220(%rbp)
   1875d:	48 8d 05 24 e6 00 00 	lea    0xe624(%rip),%rax        # 26d88 <g_146>
   18764:	48 89 85 e8 ed ff ff 	mov    %rax,-0x1218(%rbp)
   1876b:	48 8d 05 16 e6 00 00 	lea    0xe616(%rip),%rax        # 26d88 <g_146>
   18772:	48 89 85 f0 ed ff ff 	mov    %rax,-0x1210(%rbp)
   18779:	48 8d 05 08 e6 00 00 	lea    0xe608(%rip),%rax        # 26d88 <g_146>
   18780:	48 89 85 f8 ed ff ff 	mov    %rax,-0x1208(%rbp)
   18787:	48 8d 05 fa e5 00 00 	lea    0xe5fa(%rip),%rax        # 26d88 <g_146>
   1878e:	48 89 85 00 ee ff ff 	mov    %rax,-0x1200(%rbp)
   18795:	48 8d 05 ec e5 00 00 	lea    0xe5ec(%rip),%rax        # 26d88 <g_146>
   1879c:	48 89 85 08 ee ff ff 	mov    %rax,-0x11f8(%rbp)
   187a3:	48 8d 05 de e5 00 00 	lea    0xe5de(%rip),%rax        # 26d88 <g_146>
   187aa:	48 89 85 10 ee ff ff 	mov    %rax,-0x11f0(%rbp)
   187b1:	48 8d 05 d0 e5 00 00 	lea    0xe5d0(%rip),%rax        # 26d88 <g_146>
   187b8:	48 89 85 18 ee ff ff 	mov    %rax,-0x11e8(%rbp)
   187bf:	c7 85 c4 e8 ff ff 07 	movl   $0x7,-0x173c(%rbp)
   187c6:	00 00 00 
   187c9:	c7 85 c8 e8 ff ff fa 	movl   $0xfffffffa,-0x1738(%rbp)
   187d0:	ff ff ff 
   187d3:	c7 85 cc e8 ff ff b0 	movl   $0xf4bdb6b0,-0x1734(%rbp)
   187da:	b6 bd f4 
   187dd:	c7 85 d0 e8 ff ff 08 	movl   $0x8,-0x1730(%rbp)
   187e4:	00 00 00 
   187e7:	c7 85 d4 e8 ff ff 98 	movl   $0x1358fe98,-0x172c(%rbp)
   187ee:	fe 58 13 
   187f1:	c7 85 98 e8 ff ff 00 	movl   $0x0,-0x1768(%rbp)
   187f8:	00 00 00 
   187fb:	eb 19                	jmp    18816 <func_36+0x12f3>
   187fd:	8b 85 98 e8 ff ff    	mov    -0x1768(%rbp),%eax
   18803:	48 98                	cltq   
   18805:	66 c7 84 45 e6 ea ff 	movw   $0xfff7,-0x151a(%rbp,%rax,2)
   1880c:	ff f7 ff 
   1880f:	83 85 98 e8 ff ff 01 	addl   $0x1,-0x1768(%rbp)
   18816:	83 bd 98 e8 ff ff 04 	cmpl   $0x4,-0x1768(%rbp)
   1881d:	7e de                	jle    187fd <func_36+0x12da>
   1881f:	90                   	nop
   18820:	48 8b 05 d9 e8 00 00 	mov    0xe8d9(%rip),%rax        # 27100 <g_500>
   18827:	8b 05 57 b8 00 00    	mov    0xb857(%rip),%eax        # 24084 <g_108+0x24>
   1882d:	0f be d8             	movsbl %al,%ebx
   18830:	48 8b 05 59 e5 00 00 	mov    0xe559(%rip),%rax        # 26d90 <g_145>
   18837:	48 8b 00             	mov    (%rax),%rax
   1883a:	8b 00                	mov    (%rax),%eax
   1883c:	48 8d 15 45 e5 00 00 	lea    0xe545(%rip),%rdx        # 26d88 <g_146>
   18843:	48 39 95 c0 e9 ff ff 	cmp    %rdx,-0x1640(%rbp)
   1884a:	0f 95 c2             	setne  %dl
   1884d:	0f b6 d2             	movzbl %dl,%edx
   18850:	23 95 6c e8 ff ff    	and    -0x1794(%rbp),%edx
   18856:	89 c6                	mov    %eax,%esi
   18858:	89 d7                	mov    %edx,%edi
   1885a:	e8 59 06 ff ff       	callq  8eb8 <safe_add_func_uint32_t_u_u>
   1885f:	89 c0                	mov    %eax,%eax
   18861:	48 c7 c6 ff ff ff ff 	mov    $0xffffffffffffffff,%rsi
   18868:	48 89 c7             	mov    %rax,%rdi
   1886b:	e8 87 01 ff ff       	callq  89f7 <safe_div_func_int64_t_s_s>
   18870:	48 8b 15 19 e5 00 00 	mov    0xe519(%rip),%rdx        # 26d90 <g_145>
   18877:	48 8b 12             	mov    (%rdx),%rdx
   1887a:	8b 12                	mov    (%rdx),%edx
   1887c:	89 d2                	mov    %edx,%edx
   1887e:	48 39 d0             	cmp    %rdx,%rax
   18881:	48 8b 05 f0 ba 00 00 	mov    0xbaf0(%rip),%rax        # 24378 <g_123+0x218>
   18888:	89 de                	mov    %ebx,%esi
   1888a:	bf fe ff ff ff       	mov    $0xfffffffe,%edi
   1888f:	e8 7e f9 fe ff       	callq  8212 <safe_mul_func_int8_t_s_s>
   18894:	0f be c0             	movsbl %al,%eax
   18897:	be 06 00 00 00       	mov    $0x6,%esi
   1889c:	89 c7                	mov    %eax,%edi
   1889e:	e8 92 fa fe ff       	callq  8335 <safe_rshift_func_int8_t_s_s>
   188a3:	84 c0                	test   %al,%al
   188a5:	74 0e                	je     188b5 <func_36+0x1392>
   188a7:	48 8b 05 e2 e4 00 00 	mov    0xe4e2(%rip),%rax        # 26d90 <g_145>
   188ae:	48 8b 00             	mov    (%rax),%rax
   188b1:	8b 00                	mov    (%rax),%eax
   188b3:	85 c0                	test   %eax,%eax
   188b5:	48 8b 85 28 e9 ff ff 	mov    -0x16d8(%rbp),%rax
   188bc:	8b 10                	mov    (%rax),%edx
   188be:	8b 05 b4 bf 00 00    	mov    0xbfb4(%rip),%eax        # 24878 <g_370>
   188c4:	39 85 6c e8 ff ff    	cmp    %eax,-0x1794(%rbp)
   188ca:	0f 95 c0             	setne  %al
   188cd:	0f b6 c0             	movzbl %al,%eax
   188d0:	39 c2                	cmp    %eax,%edx
   188d2:	48 8b 85 20 ea ff ff 	mov    -0x15e0(%rbp),%rax
   188d9:	48 8d 15 c8 e4 00 00 	lea    0xe4c8(%rip),%rdx        # 26da8 <g_236+0x8>
   188e0:	48 89 10             	mov    %rdx,(%rax)
   188e3:	48 8b 85 20 ea ff ff 	mov    -0x15e0(%rbp),%rax
   188ea:	48 8b 10             	mov    (%rax),%rdx
   188ed:	48 8d 85 58 e8 ff ff 	lea    -0x17a8(%rbp),%rax
   188f4:	48 39 c2             	cmp    %rax,%rdx
   188f7:	0f 95 c0             	setne  %al
   188fa:	0f b6 d0             	movzbl %al,%edx
   188fd:	8b 05 21 b7 00 00    	mov    0xb721(%rip),%eax        # 24024 <g_9>
   18903:	39 c2                	cmp    %eax,%edx
   18905:	0f 9c c0             	setl   %al
   18908:	0f b6 c0             	movzbl %al,%eax
   1890b:	66 89 05 8e f6 00 00 	mov    %ax,0xf68e(%rip)        # 27fa0 <g_527>
   18912:	48 8b 85 40 e9 ff ff 	mov    -0x16c0(%rbp),%rax
   18919:	48 8b 95 18 e9 ff ff 	mov    -0x16e8(%rbp),%rdx
   18920:	8b 00                	mov    (%rax),%eax
   18922:	89 02                	mov    %eax,(%rdx)
   18924:	48 8b 85 20 e9 ff ff 	mov    -0x16e0(%rbp),%rax
   1892b:	8b 12                	mov    (%rdx),%edx
   1892d:	89 10                	mov    %edx,(%rax)
   1892f:	8b 00                	mov    (%rax),%eax
   18931:	48 98                	cltq   
   18933:	48 31 85 b8 e9 ff ff 	xor    %rax,-0x1648(%rbp)
   1893a:	48 8b 85 28 e9 ff ff 	mov    -0x16d8(%rbp),%rax
   18941:	8b 10                	mov    (%rax),%edx
   18943:	48 8b 85 60 e8 ff ff 	mov    -0x17a0(%rbp),%rax
   1894a:	8b 00                	mov    (%rax),%eax
   1894c:	39 c2                	cmp    %eax,%edx
   1894e:	0f 8d bf 13 00 00    	jge    19d13 <func_36+0x27f0>
   18954:	48 8d 05 d1 b6 00 00 	lea    0xb6d1(%rip),%rax        # 2402c <g_67>
   1895b:	48 89 85 38 ea ff ff 	mov    %rax,-0x15c8(%rbp)
   18962:	c7 85 dc e8 ff ff 00 	movl   $0x0,-0x1724(%rbp)
   18969:	00 00 00 
   1896c:	c7 85 20 ee ff ff 01 	movl   $0x1,-0x11e0(%rbp)
   18973:	00 00 00 
   18976:	c7 85 24 ee ff ff ef 	movl   $0x6ff31bef,-0x11dc(%rbp)
   1897d:	1b f3 6f 
   18980:	c7 85 28 ee ff ff 01 	movl   $0x1,-0x11d8(%rbp)
   18987:	00 00 00 
   1898a:	c7 85 2c ee ff ff 4b 	movl   $0xdf9a714b,-0x11d4(%rbp)
   18991:	71 9a df 
   18994:	c7 85 30 ee ff ff ef 	movl   $0x6ff31bef,-0x11d0(%rbp)
   1899b:	1b f3 6f 
   1899e:	c7 85 34 ee ff ff f9 	movl   $0xfffffff9,-0x11cc(%rbp)
   189a5:	ff ff ff 
   189a8:	c7 85 38 ee ff ff 01 	movl   $0x1,-0x11c8(%rbp)
   189af:	00 00 00 
   189b2:	c7 85 3c ee ff ff 71 	movl   $0xe324ea71,-0x11c4(%rbp)
   189b9:	ea 24 e3 
   189bc:	c7 85 40 ee ff ff 4b 	movl   $0xdf9a714b,-0x11c0(%rbp)
   189c3:	71 9a df 
   189c6:	c7 85 44 ee ff ff 4b 	movl   $0xdf9a714b,-0x11bc(%rbp)
   189cd:	71 9a df 
   189d0:	c7 85 48 ee ff ff 71 	movl   $0xe324ea71,-0x11b8(%rbp)
   189d7:	ea 24 e3 
   189da:	c7 85 4c ee ff ff 01 	movl   $0x1,-0x11b4(%rbp)
   189e1:	00 00 00 
   189e4:	c7 85 50 ee ff ff 01 	movl   $0x1,-0x11b0(%rbp)
   189eb:	00 00 00 
   189ee:	c7 85 54 ee ff ff e4 	movl   $0x5297c7e4,-0x11ac(%rbp)
   189f5:	c7 97 52 
   189f8:	c7 85 58 ee ff ff f9 	movl   $0xfffffff9,-0x11a8(%rbp)
   189ff:	ff ff ff 
   18a02:	c7 85 5c ee ff ff 4b 	movl   $0xdf9a714b,-0x11a4(%rbp)
   18a09:	71 9a df 
   18a0c:	c7 85 60 ee ff ff e4 	movl   $0x5297c7e4,-0x11a0(%rbp)
   18a13:	c7 97 52 
   18a16:	c7 85 64 ee ff ff 4b 	movl   $0xdf9a714b,-0x119c(%rbp)
   18a1d:	71 9a df 
   18a20:	c7 85 68 ee ff ff 01 	movl   $0x1,-0x1198(%rbp)
   18a27:	00 00 00 
   18a2a:	c7 85 6c ee ff ff ef 	movl   $0x6ff31bef,-0x1194(%rbp)
   18a31:	1b f3 6f 
   18a34:	c7 85 70 ee ff ff 01 	movl   $0x1,-0x1190(%rbp)
   18a3b:	00 00 00 
   18a3e:	c7 85 74 ee ff ff 4b 	movl   $0xdf9a714b,-0x118c(%rbp)
   18a45:	71 9a df 
   18a48:	c7 85 78 ee ff ff ef 	movl   $0x6ff31bef,-0x1188(%rbp)
   18a4f:	1b f3 6f 
   18a52:	c7 85 7c ee ff ff f9 	movl   $0xfffffff9,-0x1184(%rbp)
   18a59:	ff ff ff 
   18a5c:	c7 85 80 ee ff ff 01 	movl   $0x1,-0x1180(%rbp)
   18a63:	00 00 00 
   18a66:	c7 85 84 ee ff ff 71 	movl   $0xe324ea71,-0x117c(%rbp)
   18a6d:	ea 24 e3 
   18a70:	c7 85 88 ee ff ff 4b 	movl   $0xdf9a714b,-0x1178(%rbp)
   18a77:	71 9a df 
   18a7a:	c7 85 8c ee ff ff 4b 	movl   $0xdf9a714b,-0x1174(%rbp)
   18a81:	71 9a df 
   18a84:	c7 85 90 ee ff ff 71 	movl   $0xe324ea71,-0x1170(%rbp)
   18a8b:	ea 24 e3 
   18a8e:	c7 85 94 ee ff ff 01 	movl   $0x1,-0x116c(%rbp)
   18a95:	00 00 00 
   18a98:	c7 85 98 ee ff ff 01 	movl   $0x1,-0x1168(%rbp)
   18a9f:	00 00 00 
   18aa2:	c7 85 9c ee ff ff e4 	movl   $0x5297c7e4,-0x1164(%rbp)
   18aa9:	c7 97 52 
   18aac:	c7 85 a0 ee ff ff f9 	movl   $0xfffffff9,-0x1160(%rbp)
   18ab3:	ff ff ff 
   18ab6:	c7 85 a4 ee ff ff 4b 	movl   $0xdf9a714b,-0x115c(%rbp)
   18abd:	71 9a df 
   18ac0:	c7 85 a8 ee ff ff e4 	movl   $0x5297c7e4,-0x1158(%rbp)
   18ac7:	c7 97 52 
   18aca:	c7 85 ac ee ff ff 4b 	movl   $0xdf9a714b,-0x1154(%rbp)
   18ad1:	71 9a df 
   18ad4:	c7 85 b0 ee ff ff 01 	movl   $0x1,-0x1150(%rbp)
   18adb:	00 00 00 
   18ade:	c7 85 b4 ee ff ff ef 	movl   $0x6ff31bef,-0x114c(%rbp)
   18ae5:	1b f3 6f 
   18ae8:	c7 85 b8 ee ff ff 01 	movl   $0x1,-0x1148(%rbp)
   18aef:	00 00 00 
   18af2:	c7 85 bc ee ff ff 4b 	movl   $0xdf9a714b,-0x1144(%rbp)
   18af9:	71 9a df 
   18afc:	c7 85 c0 ee ff ff ef 	movl   $0x6ff31bef,-0x1140(%rbp)
   18b03:	1b f3 6f 
   18b06:	c7 85 c4 ee ff ff f9 	movl   $0xfffffff9,-0x113c(%rbp)
   18b0d:	ff ff ff 
   18b10:	c7 85 c8 ee ff ff 01 	movl   $0x1,-0x1138(%rbp)
   18b17:	00 00 00 
   18b1a:	c7 85 cc ee ff ff 71 	movl   $0xe324ea71,-0x1134(%rbp)
   18b21:	ea 24 e3 
   18b24:	c7 85 d0 ee ff ff 4b 	movl   $0xdf9a714b,-0x1130(%rbp)
   18b2b:	71 9a df 
   18b2e:	c7 85 d4 ee ff ff 4b 	movl   $0xdf9a714b,-0x112c(%rbp)
   18b35:	71 9a df 
   18b38:	c7 85 d8 ee ff ff 71 	movl   $0xe324ea71,-0x1128(%rbp)
   18b3f:	ea 24 e3 
   18b42:	c7 85 dc ee ff ff 01 	movl   $0x1,-0x1124(%rbp)
   18b49:	00 00 00 
   18b4c:	c7 85 e0 ee ff ff 01 	movl   $0x1,-0x1120(%rbp)
   18b53:	00 00 00 
   18b56:	c7 85 e4 ee ff ff e4 	movl   $0x5297c7e4,-0x111c(%rbp)
   18b5d:	c7 97 52 
   18b60:	c7 85 e8 ee ff ff f9 	movl   $0xfffffff9,-0x1118(%rbp)
   18b67:	ff ff ff 
   18b6a:	c7 85 ec ee ff ff 4b 	movl   $0xdf9a714b,-0x1114(%rbp)
   18b71:	71 9a df 
   18b74:	c7 85 f0 ee ff ff e4 	movl   $0x5297c7e4,-0x1110(%rbp)
   18b7b:	c7 97 52 
   18b7e:	c7 85 f4 ee ff ff 4b 	movl   $0xdf9a714b,-0x110c(%rbp)
   18b85:	71 9a df 
   18b88:	c7 85 e0 e8 ff ff 61 	movl   $0xb5658161,-0x1720(%rbp)
   18b8f:	81 65 b5 
   18b92:	c7 85 d0 eb ff ff 3d 	movl   $0xeb85bf3d,-0x1430(%rbp)
   18b99:	bf 85 eb 
   18b9c:	c7 85 d4 eb ff ff 34 	movl   $0x196a9234,-0x142c(%rbp)
   18ba3:	92 6a 19 
   18ba6:	c7 85 d8 eb ff ff 3d 	movl   $0xeb85bf3d,-0x1428(%rbp)
   18bad:	bf 85 eb 
   18bb0:	c7 85 dc eb ff ff 2a 	movl   $0xb54ba32a,-0x1424(%rbp)
   18bb7:	a3 4b b5 
   18bba:	c7 85 e0 eb ff ff 08 	movl   $0x8,-0x1420(%rbp)
   18bc1:	00 00 00 
   18bc4:	c7 85 e4 eb ff ff 34 	movl   $0x196a9234,-0x141c(%rbp)
   18bcb:	92 6a 19 
   18bce:	c7 85 e8 eb ff ff fa 	movl   $0xfffffffa,-0x1418(%rbp)
   18bd5:	ff ff ff 
   18bd8:	c7 85 ec eb ff ff 34 	movl   $0x196a9234,-0x1414(%rbp)
   18bdf:	92 6a 19 
   18be2:	c7 85 f0 eb ff ff 08 	movl   $0x8,-0x1410(%rbp)
   18be9:	00 00 00 
   18bec:	c7 85 f4 eb ff ff 2a 	movl   $0xb54ba32a,-0x140c(%rbp)
   18bf3:	a3 4b b5 
   18bf6:	c7 85 f8 eb ff ff 3d 	movl   $0xeb85bf3d,-0x1408(%rbp)
   18bfd:	bf 85 eb 
   18c00:	c7 85 fc eb ff ff 34 	movl   $0x196a9234,-0x1404(%rbp)
   18c07:	92 6a 19 
   18c0a:	c7 85 00 ec ff ff 3d 	movl   $0xeb85bf3d,-0x1400(%rbp)
   18c11:	bf 85 eb 
   18c14:	c7 85 04 ec ff ff 34 	movl   $0x196a9234,-0x13fc(%rbp)
   18c1b:	92 6a 19 
   18c1e:	c7 85 08 ec ff ff fa 	movl   $0xfffffffa,-0x13f8(%rbp)
   18c25:	ff ff ff 
   18c28:	c7 85 0c ec ff ff 07 	movl   $0x7,-0x13f4(%rbp)
   18c2f:	00 00 00 
   18c32:	c7 85 10 ec ff ff 3d 	movl   $0xeb85bf3d,-0x13f0(%rbp)
   18c39:	bf 85 eb 
   18c3c:	c7 85 14 ec ff ff 2a 	movl   $0xb54ba32a,-0x13ec(%rbp)
   18c43:	a3 4b b5 
   18c46:	c7 85 18 ec ff ff 08 	movl   $0x8,-0x13e8(%rbp)
   18c4d:	00 00 00 
   18c50:	c7 85 1c ec ff ff 2a 	movl   $0xb54ba32a,-0x13e4(%rbp)
   18c57:	a3 4b b5 
   18c5a:	c7 85 20 ec ff ff 3d 	movl   $0xeb85bf3d,-0x13e0(%rbp)
   18c61:	bf 85 eb 
   18c64:	c7 85 24 ec ff ff 07 	movl   $0x7,-0x13dc(%rbp)
   18c6b:	00 00 00 
   18c6e:	c7 85 28 ec ff ff fa 	movl   $0xfffffffa,-0x13d8(%rbp)
   18c75:	ff ff ff 
   18c78:	c7 85 2c ec ff ff 2a 	movl   $0xb54ba32a,-0x13d4(%rbp)
   18c7f:	a3 4b b5 
   18c82:	48 8d 05 ff e0 00 00 	lea    0xe0ff(%rip),%rax        # 26d88 <g_146>
   18c89:	48 89 85 40 ea ff ff 	mov    %rax,-0x15c0(%rbp)
   18c90:	48 8d 85 60 eb ff ff 	lea    -0x14a0(%rbp),%rax
   18c97:	48 83 c0 08          	add    $0x8,%rax
   18c9b:	48 89 85 98 e9 ff ff 	mov    %rax,-0x1668(%rbp)
   18ca2:	48 8d 85 98 e9 ff ff 	lea    -0x1668(%rbp),%rax
   18ca9:	48 89 85 50 f0 ff ff 	mov    %rax,-0xfb0(%rbp)
   18cb0:	48 c7 85 58 f0 ff ff 	movq   $0x0,-0xfa8(%rbp)
   18cb7:	00 00 00 00 
   18cbb:	48 8d 85 98 e9 ff ff 	lea    -0x1668(%rbp),%rax
   18cc2:	48 89 85 60 f0 ff ff 	mov    %rax,-0xfa0(%rbp)
   18cc9:	48 8d 85 98 e9 ff ff 	lea    -0x1668(%rbp),%rax
   18cd0:	48 89 85 68 f0 ff ff 	mov    %rax,-0xf98(%rbp)
   18cd7:	48 8d 85 98 e9 ff ff 	lea    -0x1668(%rbp),%rax
   18cde:	48 89 85 70 f0 ff ff 	mov    %rax,-0xf90(%rbp)
   18ce5:	48 8d 85 98 e9 ff ff 	lea    -0x1668(%rbp),%rax
   18cec:	48 89 85 78 f0 ff ff 	mov    %rax,-0xf88(%rbp)
   18cf3:	48 8d 85 98 e9 ff ff 	lea    -0x1668(%rbp),%rax
   18cfa:	48 89 85 80 f0 ff ff 	mov    %rax,-0xf80(%rbp)
   18d01:	48 8d 85 98 e9 ff ff 	lea    -0x1668(%rbp),%rax
   18d08:	48 89 85 88 f0 ff ff 	mov    %rax,-0xf78(%rbp)
   18d0f:	48 8d 85 98 e9 ff ff 	lea    -0x1668(%rbp),%rax
   18d16:	48 89 85 90 f0 ff ff 	mov    %rax,-0xf70(%rbp)
   18d1d:	48 8d 85 98 e9 ff ff 	lea    -0x1668(%rbp),%rax
   18d24:	48 89 85 98 f0 ff ff 	mov    %rax,-0xf68(%rbp)
   18d2b:	48 8d 85 98 e9 ff ff 	lea    -0x1668(%rbp),%rax
   18d32:	48 89 85 a0 f0 ff ff 	mov    %rax,-0xf60(%rbp)
   18d39:	48 8d 85 98 e9 ff ff 	lea    -0x1668(%rbp),%rax
   18d40:	48 89 85 a8 f0 ff ff 	mov    %rax,-0xf58(%rbp)
   18d47:	48 8d 85 98 e9 ff ff 	lea    -0x1668(%rbp),%rax
   18d4e:	48 89 85 b0 f0 ff ff 	mov    %rax,-0xf50(%rbp)
   18d55:	48 8d 85 98 e9 ff ff 	lea    -0x1668(%rbp),%rax
   18d5c:	48 89 85 b8 f0 ff ff 	mov    %rax,-0xf48(%rbp)
   18d63:	48 8d 85 98 e9 ff ff 	lea    -0x1668(%rbp),%rax
   18d6a:	48 89 85 c0 f0 ff ff 	mov    %rax,-0xf40(%rbp)
   18d71:	48 8d 85 98 e9 ff ff 	lea    -0x1668(%rbp),%rax
   18d78:	48 89 85 c8 f0 ff ff 	mov    %rax,-0xf38(%rbp)
   18d7f:	48 c7 85 d0 f0 ff ff 	movq   $0x0,-0xf30(%rbp)
   18d86:	00 00 00 00 
   18d8a:	48 8d 85 98 e9 ff ff 	lea    -0x1668(%rbp),%rax
   18d91:	48 89 85 d8 f0 ff ff 	mov    %rax,-0xf28(%rbp)
   18d98:	48 c7 85 e0 f0 ff ff 	movq   $0x0,-0xf20(%rbp)
   18d9f:	00 00 00 00 
   18da3:	48 8d 85 98 e9 ff ff 	lea    -0x1668(%rbp),%rax
   18daa:	48 89 85 e8 f0 ff ff 	mov    %rax,-0xf18(%rbp)
   18db1:	48 8d 85 98 e9 ff ff 	lea    -0x1668(%rbp),%rax
   18db8:	48 89 85 f0 f0 ff ff 	mov    %rax,-0xf10(%rbp)
   18dbf:	48 c7 85 f8 f0 ff ff 	movq   $0x0,-0xf08(%rbp)
   18dc6:	00 00 00 00 
   18dca:	48 8d 85 98 e9 ff ff 	lea    -0x1668(%rbp),%rax
   18dd1:	48 89 85 00 f1 ff ff 	mov    %rax,-0xf00(%rbp)
   18dd8:	48 c7 85 08 f1 ff ff 	movq   $0x0,-0xef8(%rbp)
   18ddf:	00 00 00 00 
   18de3:	48 c7 85 10 f1 ff ff 	movq   $0x0,-0xef0(%rbp)
   18dea:	00 00 00 00 
   18dee:	48 8d 85 98 e9 ff ff 	lea    -0x1668(%rbp),%rax
   18df5:	48 89 85 18 f1 ff ff 	mov    %rax,-0xee8(%rbp)
   18dfc:	48 c7 85 20 f1 ff ff 	movq   $0x0,-0xee0(%rbp)
   18e03:	00 00 00 00 
   18e07:	48 8d 85 98 e9 ff ff 	lea    -0x1668(%rbp),%rax
   18e0e:	48 89 85 28 f1 ff ff 	mov    %rax,-0xed8(%rbp)
   18e15:	48 8d 85 98 e9 ff ff 	lea    -0x1668(%rbp),%rax
   18e1c:	48 89 85 30 f1 ff ff 	mov    %rax,-0xed0(%rbp)
   18e23:	48 c7 85 38 f1 ff ff 	movq   $0x0,-0xec8(%rbp)
   18e2a:	00 00 00 00 
   18e2e:	48 8d 85 98 e9 ff ff 	lea    -0x1668(%rbp),%rax
   18e35:	48 89 85 40 f1 ff ff 	mov    %rax,-0xec0(%rbp)
   18e3c:	48 c7 85 48 f1 ff ff 	movq   $0x0,-0xeb8(%rbp)
   18e43:	00 00 00 00 
   18e47:	48 8d 85 98 e9 ff ff 	lea    -0x1668(%rbp),%rax
   18e4e:	48 89 85 50 f1 ff ff 	mov    %rax,-0xeb0(%rbp)
   18e55:	48 8d 85 98 e9 ff ff 	lea    -0x1668(%rbp),%rax
   18e5c:	48 89 85 58 f1 ff ff 	mov    %rax,-0xea8(%rbp)
   18e63:	48 8d 85 98 e9 ff ff 	lea    -0x1668(%rbp),%rax
   18e6a:	48 89 85 60 f1 ff ff 	mov    %rax,-0xea0(%rbp)
   18e71:	48 8d 85 98 e9 ff ff 	lea    -0x1668(%rbp),%rax
   18e78:	48 89 85 68 f1 ff ff 	mov    %rax,-0xe98(%rbp)
   18e7f:	48 8d 85 98 e9 ff ff 	lea    -0x1668(%rbp),%rax
   18e86:	48 89 85 70 f1 ff ff 	mov    %rax,-0xe90(%rbp)
   18e8d:	48 8d 85 98 e9 ff ff 	lea    -0x1668(%rbp),%rax
   18e94:	48 89 85 78 f1 ff ff 	mov    %rax,-0xe88(%rbp)
   18e9b:	48 8d 85 98 e9 ff ff 	lea    -0x1668(%rbp),%rax
   18ea2:	48 89 85 80 f1 ff ff 	mov    %rax,-0xe80(%rbp)
   18ea9:	48 8d 85 98 e9 ff ff 	lea    -0x1668(%rbp),%rax
   18eb0:	48 89 85 88 f1 ff ff 	mov    %rax,-0xe78(%rbp)
   18eb7:	48 8d 85 98 e9 ff ff 	lea    -0x1668(%rbp),%rax
   18ebe:	48 89 85 90 f1 ff ff 	mov    %rax,-0xe70(%rbp)
   18ec5:	48 8d 85 98 e9 ff ff 	lea    -0x1668(%rbp),%rax
   18ecc:	48 89 85 98 f1 ff ff 	mov    %rax,-0xe68(%rbp)
   18ed3:	48 8d 85 98 e9 ff ff 	lea    -0x1668(%rbp),%rax
   18eda:	48 89 85 a0 f1 ff ff 	mov    %rax,-0xe60(%rbp)
   18ee1:	48 8d 85 98 e9 ff ff 	lea    -0x1668(%rbp),%rax
   18ee8:	48 89 85 a8 f1 ff ff 	mov    %rax,-0xe58(%rbp)
   18eef:	48 8d 85 98 e9 ff ff 	lea    -0x1668(%rbp),%rax
   18ef6:	48 89 85 b0 f1 ff ff 	mov    %rax,-0xe50(%rbp)
   18efd:	48 8d 85 98 e9 ff ff 	lea    -0x1668(%rbp),%rax
   18f04:	48 89 85 b8 f1 ff ff 	mov    %rax,-0xe48(%rbp)
   18f0b:	48 c7 85 c0 f1 ff ff 	movq   $0x0,-0xe40(%rbp)
   18f12:	00 00 00 00 
   18f16:	48 8d 85 98 e9 ff ff 	lea    -0x1668(%rbp),%rax
   18f1d:	48 89 85 c8 f1 ff ff 	mov    %rax,-0xe38(%rbp)
   18f24:	48 c7 85 d0 f1 ff ff 	movq   $0x0,-0xe30(%rbp)
   18f2b:	00 00 00 00 
   18f2f:	48 8d 85 98 e9 ff ff 	lea    -0x1668(%rbp),%rax
   18f36:	48 89 85 d8 f1 ff ff 	mov    %rax,-0xe28(%rbp)
   18f3d:	48 8d 85 98 e9 ff ff 	lea    -0x1668(%rbp),%rax
   18f44:	48 89 85 e0 f1 ff ff 	mov    %rax,-0xe20(%rbp)
   18f4b:	48 c7 85 e8 f1 ff ff 	movq   $0x0,-0xe18(%rbp)
   18f52:	00 00 00 00 
   18f56:	48 8d 85 98 e9 ff ff 	lea    -0x1668(%rbp),%rax
   18f5d:	48 89 85 f0 f1 ff ff 	mov    %rax,-0xe10(%rbp)
   18f64:	48 c7 85 f8 f1 ff ff 	movq   $0x0,-0xe08(%rbp)
   18f6b:	00 00 00 00 
   18f6f:	48 c7 85 00 f2 ff ff 	movq   $0x0,-0xe00(%rbp)
   18f76:	00 00 00 00 
   18f7a:	48 8d 85 98 e9 ff ff 	lea    -0x1668(%rbp),%rax
   18f81:	48 89 85 08 f2 ff ff 	mov    %rax,-0xdf8(%rbp)
   18f88:	48 c7 85 10 f2 ff ff 	movq   $0x0,-0xdf0(%rbp)
   18f8f:	00 00 00 00 
   18f93:	48 8d 85 98 e9 ff ff 	lea    -0x1668(%rbp),%rax
   18f9a:	48 89 85 18 f2 ff ff 	mov    %rax,-0xde8(%rbp)
   18fa1:	48 8d 85 98 e9 ff ff 	lea    -0x1668(%rbp),%rax
   18fa8:	48 89 85 20 f2 ff ff 	mov    %rax,-0xde0(%rbp)
   18faf:	48 c7 85 28 f2 ff ff 	movq   $0x0,-0xdd8(%rbp)
   18fb6:	00 00 00 00 
   18fba:	48 8d 85 00 ef ff ff 	lea    -0x1100(%rbp),%rax
   18fc1:	48 8d 15 b8 69 00 00 	lea    0x69b8(%rip),%rdx        # 1f980 <g_5653+0x28df>
   18fc8:	b9 2a 00 00 00       	mov    $0x2a,%ecx
   18fcd:	48 89 c7             	mov    %rax,%rdi
   18fd0:	48 89 d6             	mov    %rdx,%rsi
   18fd3:	f3 48 a5             	rep movsq %ds:(%rsi),%es:(%rdi)
   18fd6:	66 c7 85 84 e8 ff ff 	movw   $0x64ff,-0x177c(%rbp)
   18fdd:	ff 64 
   18fdf:	48 c7 85 48 ea ff ff 	movq   $0x0,-0x15b8(%rbp)
   18fe6:	00 00 00 00 
   18fea:	c7 85 9c e8 ff ff 00 	movl   $0x0,-0x1764(%rbp)
   18ff1:	00 00 00 
   18ff4:	eb 1e                	jmp    19014 <func_36+0x1af1>
   18ff6:	8b 85 9c e8 ff ff    	mov    -0x1764(%rbp),%eax
   18ffc:	48 98                	cltq   
   18ffe:	48 8d 15 8b b8 00 00 	lea    0xb88b(%rip),%rdx        # 24890 <g_590>
   19005:	48 89 94 c5 60 eb ff 	mov    %rdx,-0x14a0(%rbp,%rax,8)
   1900c:	ff 
   1900d:	83 85 9c e8 ff ff 01 	addl   $0x1,-0x1764(%rbp)
   19014:	83 bd 9c e8 ff ff 05 	cmpl   $0x5,-0x1764(%rbp)
   1901b:	7e d9                	jle    18ff6 <func_36+0x1ad3>
   1901d:	0f b7 05 7c ef 00 00 	movzwl 0xef7c(%rip),%eax        # 27fa0 <g_527>
   19024:	89 c2                	mov    %eax,%edx
   19026:	48 8b 85 38 ea ff ff 	mov    -0x15c8(%rbp),%rax
   1902d:	88 10                	mov    %dl,(%rax)
   1902f:	48 8b 85 38 ea ff ff 	mov    -0x15c8(%rbp),%rax
   19036:	0f b6 00             	movzbl (%rax),%eax
   19039:	0f be d0             	movsbl %al,%edx
   1903c:	48 8b 05 ad e0 00 00 	mov    0xe0ad(%rip),%rax        # 270f0 <g_378>
   19043:	48 8b 00             	mov    (%rax),%rax
   19046:	48 8b 00             	mov    (%rax),%rax
   19049:	0f b6 00             	movzbl (%rax),%eax
   1904c:	0f b6 c0             	movzbl %al,%eax
   1904f:	89 d6                	mov    %edx,%esi
   19051:	89 c7                	mov    %eax,%edi
   19053:	e8 35 fc fe ff       	callq  8c8d <safe_rshift_func_uint8_t_u_s>
   19058:	48 8b 85 c0 e9 ff ff 	mov    -0x1640(%rbp),%rax
   1905f:	48 8b 00             	mov    (%rax),%rax
   19062:	c7 00 00 00 00 00    	movl   $0x0,(%rax)
   19068:	48 8b 85 50 e9 ff ff 	mov    -0x16b0(%rbp),%rax
   1906f:	48 8b 10             	mov    (%rax),%rdx
   19072:	48 8d 4a ff          	lea    -0x1(%rdx),%rcx
   19076:	48 89 08             	mov    %rcx,(%rax)
   19079:	8b 85 6c e8 ff ff    	mov    -0x1794(%rbp),%eax
   1907f:	48 98                	cltq   
   19081:	48 39 c2             	cmp    %rax,%rdx
   19084:	8b 05 9e af 00 00    	mov    0xaf9e(%rip),%eax        # 24028 <g_62>
   1908a:	0f b6 d8             	movzbl %al,%ebx
   1908d:	48 8b 85 60 e8 ff ff 	mov    -0x17a0(%rbp),%rax
   19094:	44 8b 20             	mov    (%rax),%r12d
   19097:	0f b7 05 d6 b7 00 00 	movzwl 0xb7d6(%rip),%eax        # 24874 <g_368>
   1909e:	44 0f b7 e8          	movzwl %ax,%r13d
   190a2:	0f bf 85 7c e8 ff ff 	movswl -0x1784(%rbp),%eax
   190a9:	89 c6                	mov    %eax,%esi
   190ab:	bf 01 00 00 00       	mov    $0x1,%edi
   190b0:	e8 17 f6 fe ff       	callq  86cc <safe_mod_func_int32_t_s_s>
   190b5:	0f b6 c0             	movzbl %al,%eax
   190b8:	8b 95 dc e8 ff ff    	mov    -0x1724(%rbp),%edx
   190be:	89 d6                	mov    %edx,%esi
   190c0:	89 c7                	mov    %eax,%edi
   190c2:	e8 3e fb fe ff       	callq  8c05 <safe_lshift_func_uint8_t_u_s>
   190c7:	0f b6 c0             	movzbl %al,%eax
   190ca:	48 be 03 5b bd 4d 65 	movabs $0xaa01e9654dbd5b03,%rsi
   190d1:	e9 01 aa 
   190d4:	48 89 c7             	mov    %rax,%rdi
   190d7:	e8 6f ff fe ff       	callq  904b <safe_sub_func_uint64_t_u_u>
   190dc:	4c 09 e8             	or     %r13,%rax
   190df:	48 83 f8 01          	cmp    $0x1,%rax
   190e3:	0f 96 c0             	setbe  %al
   190e6:	0f b6 c0             	movzbl %al,%eax
   190e9:	44 89 e6             	mov    %r12d,%esi
   190ec:	89 c7                	mov    %eax,%edi
   190ee:	e8 c3 f4 fe ff       	callq  85b6 <safe_add_func_int32_t_s_s>
   190f3:	89 de                	mov    %ebx,%esi
   190f5:	bf 01 00 00 00       	mov    $0x1,%edi
   190fa:	e8 94 fa fe ff       	callq  8b93 <safe_mul_func_uint8_t_u_u>
   190ff:	0f b6 c0             	movzbl %al,%eax
   19102:	48 89 05 57 b7 00 00 	mov    %rax,0xb757(%rip)        # 24860 <g_136>
   19109:	0f b7 05 64 b7 00 00 	movzwl 0xb764(%rip),%eax        # 24874 <g_368>
   19110:	0f be c0             	movsbl %al,%eax
   19113:	8b 95 6c e8 ff ff    	mov    -0x1794(%rbp),%edx
   19119:	89 d6                	mov    %edx,%esi
   1911b:	89 c7                	mov    %eax,%edi
   1911d:	e8 7f f1 fe ff       	callq  82a1 <safe_lshift_func_int8_t_s_s>
   19122:	c0 e8 07             	shr    $0x7,%al
   19125:	0f b6 c0             	movzbl %al,%eax
   19128:	39 85 6c e8 ff ff    	cmp    %eax,-0x1794(%rbp)
   1912e:	0f 95 c0             	setne  %al
   19131:	0f b6 c0             	movzbl %al,%eax
   19134:	89 85 dc e8 ff ff    	mov    %eax,-0x1724(%rbp)
   1913a:	8b 85 dc e8 ff ff    	mov    -0x1724(%rbp),%eax
   19140:	83 c8 06             	or     $0x6,%eax
   19143:	98                   	cwtl   
   19144:	be 00 00 00 00       	mov    $0x0,%esi
   19149:	89 c7                	mov    %eax,%edi
   1914b:	e8 a5 f2 fe ff       	callq  83f5 <safe_mul_func_int16_t_s_s>
   19150:	48 8b 85 50 e8 ff ff 	mov    -0x17b0(%rbp),%rax
   19157:	8b 00                	mov    (%rax),%eax
   19159:	85 c0                	test   %eax,%eax
   1915b:	0f 84 92 01 00 00    	je     192f3 <func_36+0x1dd0>
   19161:	48 8b 05 88 df 00 00 	mov    0xdf88(%rip),%rax        # 270f0 <g_378>
   19168:	48 8b 00             	mov    (%rax),%rax
   1916b:	48 85 c0             	test   %rax,%rax
   1916e:	0f 95 c0             	setne  %al
   19171:	0f b6 c0             	movzbl %al,%eax
   19174:	23 85 6c e8 ff ff    	and    -0x1794(%rbp),%eax
   1917a:	21 85 dc e8 ff ff    	and    %eax,-0x1724(%rbp)
   19180:	8b 85 6c e8 ff ff    	mov    -0x1794(%rbp),%eax
   19186:	48 63 d0             	movslq %eax,%rdx
   19189:	48 8b 85 c8 eb ff ff 	mov    -0x1438(%rbp),%rax
   19190:	48 21 d0             	and    %rdx,%rax
   19193:	48 85 c0             	test   %rax,%rax
   19196:	0f 84 05 01 00 00    	je     192a1 <func_36+0x1d7e>
   1919c:	0f b7 05 fd ed 00 00 	movzwl 0xedfd(%rip),%eax        # 27fa0 <g_527>
   191a3:	0f b7 d8             	movzwl %ax,%ebx
   191a6:	48 8b 85 40 e9 ff ff 	mov    -0x16c0(%rbp),%rax
   191ad:	8b 00                	mov    (%rax),%eax
   191af:	41 89 c5             	mov    %eax,%r13d
   191b2:	8b 05 70 ae 00 00    	mov    0xae70(%rip),%eax        # 24028 <g_62>
   191b8:	44 0f bf e0          	movswl %ax,%r12d
   191bc:	48 c7 05 41 df 00 00 	movq   $0x0,0xdf41(%rip)        # 27108 <g_570>
   191c3:	00 00 00 00 
   191c7:	48 8b 05 3a df 00 00 	mov    0xdf3a(%rip),%rax        # 27108 <g_570>
   191ce:	48 85 c0             	test   %rax,%rax
   191d1:	0f 95 c0             	setne  %al
   191d4:	0f b6 c0             	movzbl %al,%eax
   191d7:	be 05 00 00 00       	mov    $0x5,%esi
   191dc:	89 c7                	mov    %eax,%edi
   191de:	e8 b0 f9 fe ff       	callq  8b93 <safe_mul_func_uint8_t_u_u>
   191e3:	be 01 00 00 00       	mov    $0x1,%esi
   191e8:	bf 07 00 00 00       	mov    $0x7,%edi
   191ed:	e8 a1 f9 fe ff       	callq  8b93 <safe_mul_func_uint8_t_u_u>
   191f2:	84 c0                	test   %al,%al
   191f4:	74 07                	je     191fd <func_36+0x1cda>
   191f6:	83 bd 6c e8 ff ff 00 	cmpl   $0x0,-0x1794(%rbp)
   191fd:	8b 85 dc e8 ff ff    	mov    -0x1724(%rbp),%eax
   19203:	3b 85 6c e8 ff ff    	cmp    -0x1794(%rbp),%eax
   19209:	0f 9f c0             	setg   %al
   1920c:	0f b6 c0             	movzbl %al,%eax
   1920f:	44 89 e6             	mov    %r12d,%esi
   19212:	89 c7                	mov    %eax,%edi
   19214:	e8 9a f1 fe ff       	callq  83b3 <safe_add_func_int16_t_s_s>
   19219:	98                   	cwtl   
   1921a:	44 89 ee             	mov    %r13d,%esi
   1921d:	89 c7                	mov    %eax,%edi
   1921f:	e8 bd f2 fe ff       	callq  84e1 <safe_lshift_func_int16_t_s_u>
   19224:	0f b6 05 01 ae 00 00 	movzbl 0xae01(%rip),%eax        # 2402c <g_67>
   1922b:	66 0f be d0          	movsbw %al,%dx
   1922f:	48 8b 05 c2 de 00 00 	mov    0xdec2(%rip),%rax        # 270f8 <g_501>
   19236:	48 8b 00             	mov    (%rax),%rax
   19239:	48 b9 30 3d 05 31 c1 	movabs $0x67d65ac131053d30,%rcx
   19240:	5a d6 67 
   19243:	48 39 c8             	cmp    %rcx,%rax
   19246:	0f 9f c0             	setg   %al
   19249:	0f b6 c0             	movzbl %al,%eax
   1924c:	21 d0                	and    %edx,%eax
   1924e:	0f b7 c0             	movzwl %ax,%eax
   19251:	89 de                	mov    %ebx,%esi
   19253:	89 c7                	mov    %eax,%edi
   19255:	e8 e3 fa fe ff       	callq  8d3d <safe_mul_func_uint16_t_u_u>
   1925a:	8b 85 28 ee ff ff    	mov    -0x11d8(%rbp),%eax
   19260:	8b 95 8c e8 ff ff    	mov    -0x1774(%rbp),%edx
   19266:	09 c2                	or     %eax,%edx
   19268:	48 8b 85 c0 e9 ff ff 	mov    -0x1640(%rbp),%rax
   1926f:	48 8b 00             	mov    (%rax),%rax
   19272:	8b 08                	mov    (%rax),%ecx
   19274:	83 e9 01             	sub    $0x1,%ecx
   19277:	89 08                	mov    %ecx,(%rax)
   19279:	48 8b 05 10 db 00 00 	mov    0xdb10(%rip),%rax        # 26d90 <g_145>
   19280:	48 8b 00             	mov    (%rax),%rax
   19283:	8b 8d 6c e8 ff ff    	mov    -0x1794(%rbp),%ecx
   19289:	89 08                	mov    %ecx,(%rax)
   1928b:	8b 00                	mov    (%rax),%eax
   1928d:	89 d6                	mov    %edx,%esi
   1928f:	89 c7                	mov    %eax,%edi
   19291:	e8 3a fc fe ff       	callq  8ed0 <safe_sub_func_uint32_t_u_u>
   19296:	85 c0                	test   %eax,%eax
   19298:	74 07                	je     192a1 <func_36+0x1d7e>
   1929a:	b8 01 00 00 00       	mov    $0x1,%eax
   1929f:	eb 05                	jmp    192a6 <func_36+0x1d83>
   192a1:	b8 00 00 00 00       	mov    $0x0,%eax
   192a6:	0f b6 d0             	movzbl %al,%edx
   192a9:	48 8b 05 40 de 00 00 	mov    0xde40(%rip),%rax        # 270f0 <g_378>
   192b0:	48 8b 00             	mov    (%rax),%rax
   192b3:	48 8b 00             	mov    (%rax),%rax
   192b6:	0f b6 00             	movzbl (%rax),%eax
   192b9:	0f b6 c0             	movzbl %al,%eax
   192bc:	89 d6                	mov    %edx,%esi
   192be:	89 c7                	mov    %eax,%edi
   192c0:	e8 ce f8 fe ff       	callq  8b93 <safe_mul_func_uint8_t_u_u>
   192c5:	89 c2                	mov    %eax,%edx
   192c7:	48 8b 85 40 e9 ff ff 	mov    -0x16c0(%rbp),%rax
   192ce:	0f b6 d2             	movzbl %dl,%edx
   192d1:	89 10                	mov    %edx,(%rax)
   192d3:	48 8d 05 86 b5 00 00 	lea    0xb586(%rip),%rax        # 24860 <g_136>
   192da:	48 89 05 2f de 00 00 	mov    %rax,0xde2f(%rip)        # 27110 <g_573>
   192e1:	48 8b 85 28 e9 ff ff 	mov    -0x16d8(%rbp),%rax
   192e8:	c7 00 01 00 00 00    	movl   $0x1,(%rax)
   192ee:	e9 5f 0c 00 00       	jmpq   19f52 <func_36+0x2a2f>
   192f3:	c7 85 00 eb ff ff ff 	movl   $0xffffffff,-0x1500(%rbp)
   192fa:	ff ff ff 
   192fd:	c7 85 04 eb ff ff ff 	movl   $0xffffffff,-0x14fc(%rbp)
   19304:	ff ff ff 
   19307:	c7 85 08 eb ff ff ff 	movl   $0xffffffff,-0x14f8(%rbp)
   1930e:	ff ff ff 
   19311:	c7 85 0c eb ff ff ff 	movl   $0xffffffff,-0x14f4(%rbp)
   19318:	ff ff ff 
   1931b:	48 b8 99 9e 51 f8 13 	movabs $0x2f8fcd13f8519e99,%rax
   19322:	cd 8f 2f 
   19325:	48 89 85 50 ea ff ff 	mov    %rax,-0x15b0(%rbp)
   1932c:	48 8d 85 30 eb ff ff 	lea    -0x14d0(%rbp),%rax
   19333:	48 83 c0 08          	add    $0x8,%rax
   19337:	48 89 85 a0 e9 ff ff 	mov    %rax,-0x1660(%rbp)
   1933e:	66 c7 85 86 e8 ff ff 	movw   $0x6a,-0x177a(%rbp)
   19345:	6a 00 
   19347:	48 b8 9d 3a 51 cb c5 	movabs $0x14503cc5cb513a9d,%rax
   1934e:	3c 50 14 
   19351:	48 89 85 58 ea ff ff 	mov    %rax,-0x15a8(%rbp)
   19358:	48 8d 85 d0 eb ff ff 	lea    -0x1430(%rbp),%rax
   1935f:	48 83 c0 50          	add    $0x50,%rax
   19363:	48 89 85 60 ea ff ff 	mov    %rax,-0x15a0(%rbp)
   1936a:	c7 85 a0 e8 ff ff 00 	movl   $0x0,-0x1760(%rbp)
   19371:	00 00 00 
   19374:	eb 1e                	jmp    19394 <func_36+0x1e71>
   19376:	8b 85 a0 e8 ff ff    	mov    -0x1760(%rbp),%eax
   1937c:	48 98                	cltq   
   1937e:	48 8d 15 0b b5 00 00 	lea    0xb50b(%rip),%rdx        # 24890 <g_590>
   19385:	48 89 94 c5 30 eb ff 	mov    %rdx,-0x14d0(%rbp,%rax,8)
   1938c:	ff 
   1938d:	83 85 a0 e8 ff ff 01 	addl   $0x1,-0x1760(%rbp)
   19394:	83 bd a0 e8 ff ff 04 	cmpl   $0x4,-0x1760(%rbp)
   1939b:	7e d9                	jle    19376 <func_36+0x1e53>
   1939d:	90                   	nop
   1939e:	c6 85 71 e8 ff ff ea 	movb   $0xea,-0x178f(%rbp)
   193a5:	e9 4b 02 00 00       	jmpq   195f5 <func_36+0x20d2>
   193aa:	c7 85 e4 e8 ff ff 01 	movl   $0x1,-0x171c(%rbp)
   193b1:	00 00 00 
   193b4:	c7 85 e8 e8 ff ff b2 	movl   $0xde7a61b2,-0x1718(%rbp)
   193bb:	61 7a de 
   193be:	48 8d 05 cb b4 00 00 	lea    0xb4cb(%rip),%rax        # 24890 <g_590>
   193c5:	48 89 85 a8 e9 ff ff 	mov    %rax,-0x1658(%rbp)
   193cc:	48 8d 85 a8 e9 ff ff 	lea    -0x1658(%rbp),%rax
   193d3:	48 89 85 b0 e9 ff ff 	mov    %rax,-0x1650(%rbp)
   193da:	48 8d 85 b0 e9 ff ff 	lea    -0x1650(%rbp),%rax
   193e1:	48 89 85 68 ea ff ff 	mov    %rax,-0x1598(%rbp)
   193e8:	48 8d 85 30 f2 ff ff 	lea    -0xdd0(%rbp),%rax
   193ef:	48 8d 15 ea 66 00 00 	lea    0x66ea(%rip),%rdx        # 1fae0 <g_5653+0x2a3f>
   193f6:	b9 64 00 00 00       	mov    $0x64,%ecx
   193fb:	48 89 c7             	mov    %rax,%rdi
   193fe:	48 89 d6             	mov    %rdx,%rsi
   19401:	f3 48 a5             	rep movsq %ds:(%rsi),%es:(%rdi)
   19404:	83 ad e8 e8 ff ff 01 	subl   $0x1,-0x1718(%rbp)
   1940b:	8b 85 28 ee ff ff    	mov    -0x11d8(%rbp),%eax
   19411:	0f be d8             	movsbl %al,%ebx
   19414:	48 8b 05 cd dc 00 00 	mov    0xdccd(%rip),%rax        # 270e8 <g_379>
   1941b:	48 8b 00             	mov    (%rax),%rax
   1941e:	0f b6 00             	movzbl (%rax),%eax
   19421:	44 0f b6 e8          	movzbl %al,%r13d
   19425:	48 8b 85 50 ea ff ff 	mov    -0x15b0(%rbp),%rax
   1942c:	44 0f be e0          	movsbl %al,%r12d
   19430:	48 8b 95 b0 e9 ff ff 	mov    -0x1650(%rbp),%rdx
   19437:	48 8b 85 68 ea ff ff 	mov    -0x1598(%rbp),%rax
   1943e:	48 89 10             	mov    %rdx,(%rax)
   19441:	48 8b 85 68 ea ff ff 	mov    -0x1598(%rbp),%rax
   19448:	48 8b 00             	mov    (%rax),%rax
   1944b:	48 8d 15 8e dc 00 00 	lea    0xdc8e(%rip),%rdx        # 270e0 <g_380>
   19452:	48 39 d0             	cmp    %rdx,%rax
   19455:	48 8b 05 34 d9 00 00 	mov    0xd934(%rip),%rax        # 26d90 <g_145>
   1945c:	48 8b 00             	mov    (%rax),%rax
   1945f:	c7 00 00 00 00 00    	movl   $0x0,(%rax)
   19465:	b8 01 00 00 00       	mov    $0x1,%eax
   1946a:	89 c2                	mov    %eax,%edx
   1946c:	8b 85 00 eb ff ff    	mov    -0x1500(%rbp),%eax
   19472:	39 c2                	cmp    %eax,%edx
   19474:	8b 85 00 eb ff ff    	mov    -0x1500(%rbp),%eax
   1947a:	89 c0                	mov    %eax,%eax
   1947c:	be 09 00 00 00       	mov    $0x9,%esi
   19481:	48 89 c7             	mov    %rax,%rdi
   19484:	e8 a5 fb fe ff       	callq  902e <safe_add_func_uint64_t_u_u>
   19489:	0f be c0             	movsbl %al,%eax
   1948c:	44 89 e6             	mov    %r12d,%esi
   1948f:	89 c7                	mov    %eax,%edi
   19491:	e8 d4 ed fe ff       	callq  826a <safe_div_func_int8_t_s_s>
   19496:	0f be c0             	movsbl %al,%eax
   19499:	44 89 ea             	mov    %r13d,%edx
   1949c:	09 c2                	or     %eax,%edx
   1949e:	48 8b 85 48 e8 ff ff 	mov    -0x17b8(%rbp),%rax
   194a5:	8b 00                	mov    (%rax),%eax
   194a7:	39 c2                	cmp    %eax,%edx
   194a9:	0f 9c c0             	setl   %al
   194ac:	0f b6 c0             	movzbl %al,%eax
   194af:	89 de                	mov    %ebx,%esi
   194b1:	89 c7                	mov    %eax,%edi
   194b3:	e8 3a ed fe ff       	callq  81f2 <safe_sub_func_int8_t_s_s>
   194b8:	0f be c0             	movsbl %al,%eax
   194bb:	39 85 6c e8 ff ff    	cmp    %eax,-0x1794(%rbp)
   194c1:	0f 9c c0             	setl   %al
   194c4:	0f b6 c0             	movzbl %al,%eax
   194c7:	39 85 dc e8 ff ff    	cmp    %eax,-0x1724(%rbp)
   194cd:	7c 07                	jl     194d6 <func_36+0x1fb3>
   194cf:	83 bd 6c e8 ff ff 00 	cmpl   $0x0,-0x1794(%rbp)
   194d6:	48 8b 85 50 ea ff ff 	mov    -0x15b0(%rbp),%rax
   194dd:	0f be c0             	movsbl %al,%eax
   194e0:	be 03 00 00 00       	mov    $0x3,%esi
   194e5:	89 c7                	mov    %eax,%edi
   194e7:	e8 80 ee fe ff       	callq  836c <safe_rshift_func_int8_t_s_u>
   194ec:	84 c0                	test   %al,%al
   194ee:	74 16                	je     19506 <func_36+0x1fe3>
   194f0:	48 8b 85 48 e8 ff ff 	mov    -0x17b8(%rbp),%rax
   194f7:	8b 00                	mov    (%rax),%eax
   194f9:	85 c0                	test   %eax,%eax
   194fb:	0f 84 db 00 00 00    	je     195dc <func_36+0x20b9>
   19501:	e9 fc 00 00 00       	jmpq   19602 <func_36+0x20df>
   19506:	c6 85 72 e8 ff ff cd 	movb   $0xcd,-0x178e(%rbp)
   1950d:	c6 85 73 e8 ff ff 01 	movb   $0x1,-0x178d(%rbp)
   19514:	48 8d 85 58 e9 ff ff 	lea    -0x16a8(%rbp),%rax
   1951b:	48 89 85 70 ea ff ff 	mov    %rax,-0x1590(%rbp)
   19522:	48 8d 05 47 b3 00 00 	lea    0xb347(%rip),%rax        # 24870 <g_355>
   19529:	48 89 85 78 ea ff ff 	mov    %rax,-0x1588(%rbp)
   19530:	48 8d 05 71 d8 00 00 	lea    0xd871(%rip),%rax        # 26da8 <g_236+0x8>
   19537:	48 89 85 80 ea ff ff 	mov    %rax,-0x1580(%rbp)
   1953e:	0f b6 85 73 e8 ff ff 	movzbl -0x178d(%rbp),%eax
   19545:	83 c0 01             	add    $0x1,%eax
   19548:	88 85 73 e8 ff ff    	mov    %al,-0x178d(%rbp)
   1954e:	0f b7 85 78 e8 ff ff 	movzwl -0x1788(%rbp),%eax
   19555:	66 85 c0             	test   %ax,%ax
   19558:	74 05                	je     1955f <func_36+0x203c>
   1955a:	e9 3f fe ff ff       	jmpq   1939e <func_36+0x1e7b>
   1955f:	48 8b 05 22 d8 00 00 	mov    0xd822(%rip),%rax        # 26d88 <g_146>
   19566:	8b 00                	mov    (%rax),%eax
   19568:	be ad cf e3 70       	mov    $0x70e3cfad,%esi
   1956d:	89 c7                	mov    %eax,%edi
   1956f:	e8 44 f9 fe ff       	callq  8eb8 <safe_add_func_uint32_t_u_u>
   19574:	48 8b 95 58 e9 ff ff 	mov    -0x16a8(%rbp),%rdx
   1957b:	48 8b 85 70 ea ff ff 	mov    -0x1590(%rbp),%rax
   19582:	48 89 10             	mov    %rdx,(%rax)
   19585:	48 8b 85 70 ea ff ff 	mov    -0x1590(%rbp),%rax
   1958c:	48 8b 10             	mov    (%rax),%rdx
   1958f:	48 8b 05 52 db 00 00 	mov    0xdb52(%rip),%rax        # 270e8 <g_379>
   19596:	48 8b 00             	mov    (%rax),%rax
   19599:	48 39 c2             	cmp    %rax,%rdx
   1959c:	48 8b 05 4d db 00 00 	mov    0xdb4d(%rip),%rax        # 270f0 <g_378>
   195a3:	48 8b 10             	mov    (%rax),%rdx
   195a6:	48 8b 85 a0 e9 ff ff 	mov    -0x1660(%rbp),%rax
   195ad:	48 39 c2             	cmp    %rax,%rdx
   195b0:	0f 94 c0             	sete   %al
   195b3:	0f b6 c0             	movzbl %al,%eax
   195b6:	39 85 6c e8 ff ff    	cmp    %eax,-0x1794(%rbp)
   195bc:	48 8b 85 80 ea ff ff 	mov    -0x1580(%rbp),%rax
   195c3:	48 8b 95 78 ea ff ff 	mov    -0x1588(%rbp),%rdx
   195ca:	48 89 10             	mov    %rdx,(%rax)
   195cd:	8b 95 00 eb ff ff    	mov    -0x1500(%rbp),%edx
   195d3:	48 8b 05 fe da 00 00 	mov    0xdafe(%rip),%rax        # 270d8 <g_369>
   195da:	89 10                	mov    %edx,(%rax)
   195dc:	0f be 85 71 e8 ff ff 	movsbl -0x178f(%rbp),%eax
   195e3:	be 01 00 00 00       	mov    $0x1,%esi
   195e8:	89 c7                	mov    %eax,%edi
   195ea:	e8 e5 eb fe ff       	callq  81d4 <safe_add_func_int8_t_s_s>
   195ef:	88 85 71 e8 ff ff    	mov    %al,-0x178f(%rbp)
   195f5:	80 bd 71 e8 ff ff 03 	cmpb   $0x3,-0x178f(%rbp)
   195fc:	0f 8f a8 fd ff ff    	jg     193aa <func_36+0x1e87>
   19602:	48 c7 05 7b b2 00 00 	movq   $0xb,0xb27b(%rip)        # 24888 <g_505>
   19609:	0b 00 00 00 
   1960d:	e9 eb 06 00 00       	jmpq   19cfd <func_36+0x27da>
   19612:	66 c7 85 88 e8 ff ff 	movw   $0x963,-0x1778(%rbp)
   19619:	63 09 
   1961b:	c7 85 b0 e9 ff ff 03 	movl   $0x3,-0x1650(%rbp)
   19622:	00 00 00 
   19625:	48 8b 05 64 d7 00 00 	mov    0xd764(%rip),%rax        # 26d90 <g_145>
   1962c:	48 8b 00             	mov    (%rax),%rax
   1962f:	8b 10                	mov    (%rax),%edx
   19631:	48 8b 85 20 e9 ff ff 	mov    -0x16e0(%rbp),%rax
   19638:	8b 00                	mov    (%rax),%eax
   1963a:	09 d0                	or     %edx,%eax
   1963c:	85 c0                	test   %eax,%eax
   1963e:	0f 84 db 01 00 00    	je     1981f <func_36+0x22fc>
   19644:	48 8d 05 3d d7 00 00 	lea    0xd73d(%rip),%rax        # 26d88 <g_146>
   1964b:	48 89 85 90 ea ff ff 	mov    %rax,-0x1570(%rbp)
   19652:	c7 85 ec e8 ff ff 55 	movl   $0x647f9755,-0x1714(%rbp)
   19659:	97 7f 64 
   1965c:	0f b6 05 cf a9 00 00 	movzbl 0xa9cf(%rip),%eax        # 24032 <g_69+0x2>
   19663:	48 0f be d8          	movsbq %al,%rbx
   19667:	44 8b a5 ec e8 ff ff 	mov    -0x1714(%rbp),%r12d
   1966e:	0f b6 05 0a b2 00 00 	movzbl 0xb20a(%rip),%eax        # 2487f <g_381+0x3>
   19675:	88 85 47 e8 ff ff    	mov    %al,-0x17b9(%rbp)
   1967b:	8b 85 6c e8 ff ff    	mov    -0x1794(%rbp),%eax
   19681:	44 0f bf e8          	movswl %ax,%r13d
   19685:	48 8b 85 20 e9 ff ff 	mov    -0x16e0(%rbp),%rax
   1968c:	44 8b 30             	mov    (%rax),%r14d
   1968f:	48 8b 85 58 ea ff ff 	mov    -0x15a8(%rbp),%rax
   19696:	44 0f be f8          	movsbl %al,%r15d
   1969a:	8b 85 6c e8 ff ff    	mov    -0x1794(%rbp),%eax
   196a0:	0f be d0             	movsbl %al,%edx
   196a3:	48 8d 05 de d6 00 00 	lea    0xd6de(%rip),%rax        # 26d88 <g_146>
   196aa:	48 39 85 90 ea ff ff 	cmp    %rax,-0x1570(%rbp)
   196b1:	0f 95 c0             	setne  %al
   196b4:	0f b6 c0             	movzbl %al,%eax
   196b7:	3d ff ff 00 00       	cmp    $0xffff,%eax
   196bc:	0f 97 c0             	seta   %al
   196bf:	0f b6 c0             	movzbl %al,%eax
   196c2:	89 d6                	mov    %edx,%esi
   196c4:	89 c7                	mov    %eax,%edi
   196c6:	e8 09 eb fe ff       	callq  81d4 <safe_add_func_int8_t_s_s>
   196cb:	0f be c0             	movsbl %al,%eax
   196ce:	44 89 fe             	mov    %r15d,%esi
   196d1:	89 c7                	mov    %eax,%edi
   196d3:	e8 3a eb fe ff       	callq  8212 <safe_mul_func_int8_t_s_s>
   196d8:	0f be c0             	movsbl %al,%eax
   196db:	f7 d0                	not    %eax
   196dd:	44 89 f6             	mov    %r14d,%esi
   196e0:	89 c7                	mov    %eax,%edi
   196e2:	e8 1e ef fe ff       	callq  8605 <safe_sub_func_int32_t_s_s>
   196e7:	0f b7 c0             	movzwl %ax,%eax
   196ea:	8b 95 6c e8 ff ff    	mov    -0x1794(%rbp),%edx
   196f0:	89 d6                	mov    %edx,%esi
   196f2:	89 c7                	mov    %eax,%edi
   196f4:	e8 c5 f6 fe ff       	callq  8dbe <safe_lshift_func_uint16_t_u_s>
   196f9:	89 c2                	mov    %eax,%edx
   196fb:	48 8b 85 40 e9 ff ff 	mov    -0x16c0(%rbp),%rax
   19702:	0f b7 d2             	movzwl %dx,%edx
   19705:	89 10                	mov    %edx,(%rax)
   19707:	8b 00                	mov    (%rax),%eax
   19709:	39 85 6c e8 ff ff    	cmp    %eax,-0x1794(%rbp)
   1970f:	0f 9d c0             	setge  %al
   19712:	0f b6 c0             	movzbl %al,%eax
   19715:	8b 95 6c e8 ff ff    	mov    -0x1794(%rbp),%edx
   1971b:	89 d6                	mov    %edx,%esi
   1971d:	89 c7                	mov    %eax,%edi
   1971f:	e8 7d eb fe ff       	callq  82a1 <safe_lshift_func_int8_t_s_s>
   19724:	8b 05 42 b1 00 00    	mov    0xb142(%rip),%eax        # 2486c <g_321>
   1972a:	98                   	cwtl   
   1972b:	44 89 ee             	mov    %r13d,%esi
   1972e:	89 c7                	mov    %eax,%edi
   19730:	e8 20 ed fe ff       	callq  8455 <safe_div_func_int16_t_s_s>
   19735:	98                   	cwtl   
   19736:	89 85 b0 e9 ff ff    	mov    %eax,-0x1650(%rbp)
   1973c:	8b 85 b0 e9 ff ff    	mov    -0x1650(%rbp),%eax
   19742:	85 c0                	test   %eax,%eax
   19744:	75 0c                	jne    19752 <func_36+0x222f>
   19746:	0f b7 05 53 e8 00 00 	movzwl 0xe853(%rip),%eax        # 27fa0 <g_527>
   1974d:	66 85 c0             	test   %ax,%ax
   19750:	74 07                	je     19759 <func_36+0x2236>
   19752:	b8 01 00 00 00       	mov    $0x1,%eax
   19757:	eb 05                	jmp    1975e <func_36+0x223b>
   19759:	b8 00 00 00 00       	mov    $0x0,%eax
   1975e:	48 98                	cltq   
   19760:	48 89 c7             	mov    %rax,%rdi
   19763:	e8 b1 f8 fe ff       	callq  9019 <safe_unary_minus_func_uint64_t_u>
   19768:	48 83 f8 01          	cmp    $0x1,%rax
   1976c:	0f 94 c0             	sete   %al
   1976f:	0f b6 d0             	movzbl %al,%edx
   19772:	48 8d 05 f7 b0 00 00 	lea    0xb0f7(%rip),%rax        # 24870 <g_355>
   19779:	48 89 85 50 e8 ff ff 	mov    %rax,-0x17b0(%rbp)
   19780:	48 8b 85 60 e8 ff ff 	mov    -0x17a0(%rbp),%rax
   19787:	48 39 85 50 e8 ff ff 	cmp    %rax,-0x17b0(%rbp)
   1978e:	0f 94 c0             	sete   %al
   19791:	0f b6 c0             	movzbl %al,%eax
   19794:	89 c1                	mov    %eax,%ecx
   19796:	0f b6 05 f3 b0 00 00 	movzbl 0xb0f3(%rip),%eax        # 24890 <g_590>
   1979d:	09 c8                	or     %ecx,%eax
   1979f:	88 05 eb b0 00 00    	mov    %al,0xb0eb(%rip)        # 24890 <g_590>
   197a5:	8b 85 6c e8 ff ff    	mov    -0x1794(%rbp),%eax
   197ab:	0f b7 c0             	movzwl %ax,%eax
   197ae:	89 d6                	mov    %edx,%esi
   197b0:	89 c7                	mov    %eax,%edi
   197b2:	e8 c3 f6 fe ff       	callq  8e7a <safe_rshift_func_uint16_t_u_u>
   197b7:	89 c2                	mov    %eax,%edx
   197b9:	8b 85 6c e8 ff ff    	mov    -0x1794(%rbp),%eax
   197bf:	21 d0                	and    %edx,%eax
   197c1:	0a 85 47 e8 ff ff    	or     -0x17b9(%rbp),%al
   197c7:	0f b6 c0             	movzbl %al,%eax
   197ca:	be 01 00 00 00       	mov    $0x1,%esi
   197cf:	89 c7                	mov    %eax,%edi
   197d1:	e8 05 f4 fe ff       	callq  8bdb <safe_div_func_uint8_t_u_u>
   197d6:	0f b6 c0             	movzbl %al,%eax
   197d9:	48 89 85 c0 ec ff ff 	mov    %rax,-0x1340(%rbp)
   197e0:	48 8b 85 c0 ec ff ff 	mov    -0x1340(%rbp),%rax
   197e7:	0f b6 c0             	movzbl %al,%eax
   197ea:	44 89 e6             	mov    %r12d,%esi
   197ed:	89 c7                	mov    %eax,%edi
   197ef:	e8 ca f4 fe ff       	callq  8cbe <safe_rshift_func_uint8_t_u_u>
   197f4:	0f b6 c0             	movzbl %al,%eax
   197f7:	48 c7 c6 f8 ff ff ff 	mov    $0xfffffffffffffff8,%rsi
   197fe:	48 89 c7             	mov    %rax,%rdi
   19801:	e8 28 f8 fe ff       	callq  902e <safe_add_func_uint64_t_u_u>
   19806:	48 89 de             	mov    %rbx,%rsi
   19809:	48 89 c7             	mov    %rax,%rdi
   1980c:	e8 a3 f1 fe ff       	callq  89b4 <safe_mod_func_int64_t_s_s>
   19811:	48 89 c2             	mov    %rax,%rdx
   19814:	48 8b 85 28 e9 ff ff 	mov    -0x16d8(%rbp),%rax
   1981b:	89 10                	mov    %edx,(%rax)
   1981d:	eb 35                	jmp    19854 <func_36+0x2331>
   1981f:	48 b8 78 e7 09 51 d7 	movabs $0xcf6b4ad75109e778,%rax
   19826:	4a 6b cf 
   19829:	48 89 85 88 ea ff ff 	mov    %rax,-0x1578(%rbp)
   19830:	48 8b 85 88 ea ff ff 	mov    -0x1578(%rbp),%rax
   19837:	0f be c0             	movsbl %al,%eax
   1983a:	be a7 ff ff ff       	mov    $0xffffffa7,%esi
   1983f:	89 c7                	mov    %eax,%edi
   19841:	e8 24 ea fe ff       	callq  826a <safe_div_func_int8_t_s_s>
   19846:	89 c2                	mov    %eax,%edx
   19848:	48 8b 85 38 e9 ff ff 	mov    -0x16c8(%rbp),%rax
   1984f:	0f be d2             	movsbl %dl,%edx
   19852:	89 10                	mov    %edx,(%rax)
   19854:	bf 01 00 00 00       	mov    $0x1,%edi
   19859:	e8 3f eb fe ff       	callq  839d <safe_unary_minus_func_int16_t_s>
   1985e:	0f bf d8             	movswl %ax,%ebx
   19861:	48 8b 85 48 e8 ff ff 	mov    -0x17b8(%rbp),%rax
   19868:	44 8b 20             	mov    (%rax),%r12d
   1986b:	48 8b 85 18 e9 ff ff 	mov    -0x16e8(%rbp),%rax
   19872:	44 8b 28             	mov    (%rax),%r13d
   19875:	0f b6 05 14 b0 00 00 	movzbl 0xb014(%rip),%eax        # 24890 <g_590>
   1987c:	0f b6 c0             	movzbl %al,%eax
   1987f:	be 0e 00 00 00       	mov    $0xe,%esi
   19884:	89 c7                	mov    %eax,%edi
   19886:	e8 ef f5 fe ff       	callq  8e7a <safe_rshift_func_uint16_t_u_u>
   1988b:	0f b6 c0             	movzbl %al,%eax
   1988e:	be 06 00 00 00       	mov    $0x6,%esi
   19893:	89 c7                	mov    %eax,%edi
   19895:	e8 6b f3 fe ff       	callq  8c05 <safe_lshift_func_uint8_t_u_s>
   1989a:	0f b6 c0             	movzbl %al,%eax
   1989d:	41 39 c5             	cmp    %eax,%r13d
   198a0:	0f 94 c0             	sete   %al
   198a3:	0f b6 c0             	movzbl %al,%eax
   198a6:	41 39 c4             	cmp    %eax,%r12d
   198a9:	0f 95 c0             	setne  %al
   198ac:	0f b6 c0             	movzbl %al,%eax
   198af:	39 c3                	cmp    %eax,%ebx
   198b1:	7e 66                	jle    19919 <func_36+0x23f6>
   198b3:	83 bd dc e8 ff ff 00 	cmpl   $0x0,-0x1724(%rbp)
   198ba:	74 05                	je     198c1 <func_36+0x239e>
   198bc:	e9 5f ef ff ff       	jmpq   18820 <func_36+0x12fd>
   198c1:	8b 85 6c e8 ff ff    	mov    -0x1794(%rbp),%eax
   198c7:	0f be d0             	movsbl %al,%edx
   198ca:	48 8b 05 2f d8 00 00 	mov    0xd82f(%rip),%rax        # 27100 <g_500>
   198d1:	83 bd 6c e8 ff ff 00 	cmpl   $0x0,-0x1794(%rbp)
   198d8:	0f 94 c0             	sete   %al
   198db:	89 c1                	mov    %eax,%ecx
   198dd:	48 8b 85 38 ea ff ff 	mov    -0x15c8(%rbp),%rax
   198e4:	88 08                	mov    %cl,(%rax)
   198e6:	48 8b 85 38 ea ff ff 	mov    -0x15c8(%rbp),%rax
   198ed:	0f b6 00             	movzbl (%rax),%eax
   198f0:	0f be c0             	movsbl %al,%eax
   198f3:	89 d6                	mov    %edx,%esi
   198f5:	89 c7                	mov    %eax,%edi
   198f7:	e8 16 e9 fe ff       	callq  8212 <safe_mul_func_int8_t_s_s>
   198fc:	0f be c0             	movsbl %al,%eax
   198ff:	39 85 6c e8 ff ff    	cmp    %eax,-0x1794(%rbp)
   19905:	0f 9d c2             	setge  %dl
   19908:	48 8b 85 40 e9 ff ff 	mov    -0x16c0(%rbp),%rax
   1990f:	0f b6 d2             	movzbl %dl,%edx
   19912:	89 10                	mov    %edx,(%rax)
   19914:	e9 ba 03 00 00       	jmpq   19cd3 <func_36+0x27b0>
   19919:	48 c7 85 30 f2 ff ff 	movq   $0x0,-0xdd0(%rbp)
   19920:	00 00 00 00 
   19924:	48 8d 85 a0 e9 ff ff 	lea    -0x1660(%rbp),%rax
   1992b:	48 89 85 38 f2 ff ff 	mov    %rax,-0xdc8(%rbp)
   19932:	48 c7 85 40 f2 ff ff 	movq   $0x0,-0xdc0(%rbp)
   19939:	00 00 00 00 
   1993d:	48 8d 85 a0 e9 ff ff 	lea    -0x1660(%rbp),%rax
   19944:	48 89 85 48 f2 ff ff 	mov    %rax,-0xdb8(%rbp)
   1994b:	48 c7 85 50 f2 ff ff 	movq   $0x0,-0xdb0(%rbp)
   19952:	00 00 00 00 
   19956:	48 8d 85 a0 e9 ff ff 	lea    -0x1660(%rbp),%rax
   1995d:	48 89 85 58 f2 ff ff 	mov    %rax,-0xda8(%rbp)
   19964:	48 c7 85 60 f2 ff ff 	movq   $0x0,-0xda0(%rbp)
   1996b:	00 00 00 00 
   1996f:	48 8d 85 a0 e9 ff ff 	lea    -0x1660(%rbp),%rax
   19976:	48 89 85 68 f2 ff ff 	mov    %rax,-0xd98(%rbp)
   1997d:	48 8d 85 90 eb ff ff 	lea    -0x1470(%rbp),%rax
   19984:	48 83 c0 38          	add    $0x38,%rax
   19988:	48 89 85 98 ea ff ff 	mov    %rax,-0x1568(%rbp)
   1998f:	c6 85 74 e8 ff ff 01 	movb   $0x1,-0x178c(%rbp)
   19996:	48 c7 85 a0 ea ff ff 	movq   $0x0,-0x1560(%rbp)
   1999d:	00 00 00 00 
   199a1:	48 8d 05 cc ae 00 00 	lea    0xaecc(%rip),%rax        # 24874 <g_368>
   199a8:	48 89 85 a8 ea ff ff 	mov    %rax,-0x1558(%rbp)
   199af:	c7 85 f0 e8 ff ff 16 	movl   $0x30e48416,-0x1710(%rbp)
   199b6:	84 e4 30 
   199b9:	0f b6 05 bd ae 00 00 	movzbl 0xaebd(%rip),%eax        # 2487d <g_381+0x1>
   199c0:	0f b6 d0             	movzbl %al,%edx
   199c3:	48 8b 8d 68 f2 ff ff 	mov    -0xd98(%rbp),%rcx
   199ca:	48 8b 85 f0 f1 ff ff 	mov    -0xe10(%rbp),%rax
   199d1:	48 39 c1             	cmp    %rax,%rcx
   199d4:	0f 94 c0             	sete   %al
   199d7:	0f b6 c0             	movzbl %al,%eax
   199da:	48 89 d6             	mov    %rdx,%rsi
   199dd:	48 89 c7             	mov    %rax,%rdi
   199e0:	e8 ca f6 fe ff       	callq  90af <safe_div_func_uint64_t_u_u>
   199e5:	48 c7 c1 f9 ff ff ff 	mov    $0xfffffffffffffff9,%rcx
   199ec:	48 8b 85 28 e9 ff ff 	mov    -0x16d8(%rbp),%rax
   199f3:	8b 10                	mov    (%rax),%edx
   199f5:	48 8b 85 28 e9 ff ff 	mov    -0x16d8(%rbp),%rax
   199fc:	31 ca                	xor    %ecx,%edx
   199fe:	89 10                	mov    %edx,(%rax)
   19a00:	8b 85 6c e8 ff ff    	mov    -0x1794(%rbp),%eax
   19a06:	48 63 d8             	movslq %eax,%rbx
   19a09:	8b 85 6c e8 ff ff    	mov    -0x1794(%rbp),%eax
   19a0f:	0f b7 d0             	movzwl %ax,%edx
   19a12:	8b 85 00 eb ff ff    	mov    -0x1500(%rbp),%eax
   19a18:	0f b7 c0             	movzwl %ax,%eax
   19a1b:	89 d6                	mov    %edx,%esi
   19a1d:	89 c7                	mov    %eax,%edi
   19a1f:	e8 fb f2 fe ff       	callq  8d1f <safe_sub_func_uint16_t_u_u>
   19a24:	0f b7 c0             	movzwl %ax,%eax
   19a27:	39 85 6c e8 ff ff    	cmp    %eax,-0x1794(%rbp)
   19a2d:	0f 95 c0             	setne  %al
   19a30:	89 c2                	mov    %eax,%edx
   19a32:	48 8b 05 d7 d6 00 00 	mov    0xd6d7(%rip),%rax        # 27110 <g_573>
   19a39:	48 8b 00             	mov    (%rax),%rax
   19a3c:	31 d0                	xor    %edx,%eax
   19a3e:	0f be d0             	movsbl %al,%edx
   19a41:	8b 85 6c e8 ff ff    	mov    -0x1794(%rbp),%eax
   19a47:	0f be c0             	movsbl %al,%eax
   19a4a:	89 d6                	mov    %edx,%esi
   19a4c:	89 c7                	mov    %eax,%edi
   19a4e:	e8 9f e7 fe ff       	callq  81f2 <safe_sub_func_int8_t_s_s>
   19a53:	48 8b 95 98 ea ff ff 	mov    -0x1568(%rbp),%rdx
   19a5a:	48 8b 12             	mov    (%rdx),%rdx
   19a5d:	48 0f be c0          	movsbq %al,%rax
   19a61:	48 31 c2             	xor    %rax,%rdx
   19a64:	48 8b 85 98 ea ff ff 	mov    -0x1568(%rbp),%rax
   19a6b:	48 89 10             	mov    %rdx,(%rax)
   19a6e:	48 8b 85 98 ea ff ff 	mov    -0x1568(%rbp),%rax
   19a75:	48 8b 00             	mov    (%rax),%rax
   19a78:	48 85 c0             	test   %rax,%rax
   19a7b:	75 0a                	jne    19a87 <func_36+0x2564>
   19a7d:	8b 85 b0 e9 ff ff    	mov    -0x1650(%rbp),%eax
   19a83:	85 c0                	test   %eax,%eax
   19a85:	74 07                	je     19a8e <func_36+0x256b>
   19a87:	b8 01 00 00 00       	mov    $0x1,%eax
   19a8c:	eb 05                	jmp    19a93 <func_36+0x2570>
   19a8e:	b8 00 00 00 00       	mov    $0x0,%eax
   19a93:	83 e0 01             	and    $0x1,%eax
   19a96:	89 85 e0 e8 ff ff    	mov    %eax,-0x1720(%rbp)
   19a9c:	83 bd 6c e8 ff ff 00 	cmpl   $0x0,-0x1794(%rbp)
   19aa3:	75 0c                	jne    19ab1 <func_36+0x258e>
   19aa5:	48 8b 05 dc ad 00 00 	mov    0xaddc(%rip),%rax        # 24888 <g_505>
   19aac:	48 85 c0             	test   %rax,%rax
   19aaf:	74 07                	je     19ab8 <func_36+0x2595>
   19ab1:	ba 01 00 00 00       	mov    $0x1,%edx
   19ab6:	eb 05                	jmp    19abd <func_36+0x259a>
   19ab8:	ba 00 00 00 00       	mov    $0x0,%edx
   19abd:	0f b7 85 88 e8 ff ff 	movzwl -0x1778(%rbp),%eax
   19ac4:	39 c2                	cmp    %eax,%edx
   19ac6:	0f 9f c0             	setg   %al
   19ac9:	0f b6 d0             	movzbl %al,%edx
   19acc:	48 8b 85 60 e8 ff ff 	mov    -0x17a0(%rbp),%rax
   19ad3:	8b 00                	mov    (%rax),%eax
   19ad5:	83 f8 01             	cmp    $0x1,%eax
   19ad8:	0f 9e c0             	setle  %al
   19adb:	0f b6 c0             	movzbl %al,%eax
   19ade:	39 c2                	cmp    %eax,%edx
   19ae0:	0f 9e c0             	setle  %al
   19ae3:	0f b6 c0             	movzbl %al,%eax
   19ae6:	48 89 de             	mov    %rbx,%rsi
   19ae9:	48 89 c7             	mov    %rax,%rdi
   19aec:	e8 50 ed fe ff       	callq  8841 <safe_add_func_int64_t_s_s>
   19af1:	48 8b 95 48 e9 ff ff 	mov    -0x16b8(%rbp),%rdx
   19af8:	8b 12                	mov    (%rdx),%edx
   19afa:	89 c1                	mov    %eax,%ecx
   19afc:	48 8b 85 48 e9 ff ff 	mov    -0x16b8(%rbp),%rax
   19b03:	21 ca                	and    %ecx,%edx
   19b05:	89 10                	mov    %edx,(%rax)
   19b07:	be 01 00 00 00       	mov    $0x1,%esi
   19b0c:	bf 00 00 00 00       	mov    $0x0,%edi
   19b11:	e8 f0 f2 fe ff       	callq  8e06 <safe_lshift_func_uint16_t_u_u>
   19b16:	66 85 c0             	test   %ax,%ax
   19b19:	74 11                	je     19b2c <func_36+0x2609>
   19b1b:	8b 05 4f ad 00 00    	mov    0xad4f(%rip),%eax        # 24870 <g_355>
   19b21:	85 c0                	test   %eax,%eax
   19b23:	74 07                	je     19b2c <func_36+0x2609>
   19b25:	b8 01 00 00 00       	mov    $0x1,%eax
   19b2a:	eb 05                	jmp    19b31 <func_36+0x260e>
   19b2c:	b8 00 00 00 00       	mov    $0x0,%eax
   19b31:	48 63 d0             	movslq %eax,%rdx
   19b34:	48 8b 05 e5 d5 00 00 	mov    0xd5e5(%rip),%rax        # 27120 <g_676>
   19b3b:	48 85 c0             	test   %rax,%rax
   19b3e:	0f 94 c0             	sete   %al
   19b41:	0f b6 c0             	movzbl %al,%eax
   19b44:	48 89 d6             	mov    %rdx,%rsi
   19b47:	48 89 c7             	mov    %rax,%rdi
   19b4a:	e8 f2 ec fe ff       	callq  8841 <safe_add_func_int64_t_s_s>
   19b4f:	0f b6 c0             	movzbl %al,%eax
   19b52:	be 05 00 00 00       	mov    $0x5,%esi
   19b57:	89 c7                	mov    %eax,%edi
   19b59:	e8 a7 f0 fe ff       	callq  8c05 <safe_lshift_func_uint8_t_u_s>
   19b5e:	8b 85 6c e8 ff ff    	mov    -0x1794(%rbp),%eax
   19b64:	98                   	cwtl   
   19b65:	89 c7                	mov    %eax,%edi
   19b67:	e8 31 e8 fe ff       	callq  839d <safe_unary_minus_func_int16_t_s>
   19b6c:	48 0f bf d0          	movswq %ax,%rdx
   19b70:	48 8b 05 e9 ac 00 00 	mov    0xace9(%rip),%rax        # 24860 <g_136>
   19b77:	48 21 c2             	and    %rax,%rdx
   19b7a:	48 8b 85 28 e9 ff ff 	mov    -0x16d8(%rbp),%rax
   19b81:	8b 00                	mov    (%rax),%eax
   19b83:	83 f8 09             	cmp    $0x9,%eax
   19b86:	0f 95 c0             	setne  %al
   19b89:	0f b6 c0             	movzbl %al,%eax
   19b8c:	48 31 d0             	xor    %rdx,%rax
   19b8f:	89 c2                	mov    %eax,%edx
   19b91:	0f b6 85 74 e8 ff ff 	movzbl -0x178c(%rbp),%eax
   19b98:	21 d0                	and    %edx,%eax
   19b9a:	88 85 74 e8 ff ff    	mov    %al,-0x178c(%rbp)
   19ba0:	0f bf 85 84 e8 ff ff 	movswl -0x177c(%rbp),%eax
   19ba7:	f7 d0                	not    %eax
   19ba9:	89 c2                	mov    %eax,%edx
   19bab:	8b 05 73 a4 00 00    	mov    0xa473(%rip),%eax        # 24024 <g_9>
   19bb1:	39 85 6c e8 ff ff    	cmp    %eax,-0x1794(%rbp)
   19bb7:	0f 94 c0             	sete   %al
   19bba:	0f b6 c0             	movzbl %al,%eax
   19bbd:	39 c2                	cmp    %eax,%edx
   19bbf:	0f 94 c0             	sete   %al
   19bc2:	44 0f b6 e0          	movzbl %al,%r12d
   19bc6:	0f b6 05 9d ac 00 00 	movzbl 0xac9d(%rip),%eax        # 2486a <g_314>
   19bcd:	0f be d0             	movsbl %al,%edx
   19bd0:	48 8b 85 48 ea ff ff 	mov    -0x15b8(%rbp),%rax
   19bd7:	48 89 05 0a d6 00 00 	mov    %rax,0xd60a(%rip)        # 271e8 <g_687>
   19bde:	48 8b 05 03 d6 00 00 	mov    0xd603(%rip),%rax        # 271e8 <g_687>
   19be5:	48 8d 0d 2c d5 00 00 	lea    0xd52c(%rip),%rcx        # 27118 <g_677>
   19bec:	48 39 c8             	cmp    %rcx,%rax
   19bef:	0f 94 c0             	sete   %al
   19bf2:	0f b6 c0             	movzbl %al,%eax
   19bf5:	39 c2                	cmp    %eax,%edx
   19bf7:	0f 94 c0             	sete   %al
   19bfa:	44 0f b6 e8          	movzbl %al,%r13d
   19bfe:	8b 85 28 ee ff ff    	mov    -0x11d8(%rbp),%eax
   19c04:	0f b7 d8             	movzwl %ax,%ebx
   19c07:	48 8b 85 a8 ea ff ff 	mov    -0x1558(%rbp),%rax
   19c0e:	0f b7 00             	movzwl (%rax),%eax
   19c11:	8d 48 01             	lea    0x1(%rax),%ecx
   19c14:	48 8b 95 a8 ea ff ff 	mov    -0x1558(%rbp),%rdx
   19c1b:	66 89 0a             	mov    %cx,(%rdx)
   19c1e:	44 0f b7 f0          	movzwl %ax,%r14d
   19c22:	48 8b 05 5f d1 00 00 	mov    0xd15f(%rip),%rax        # 26d88 <g_146>
   19c29:	8b 00                	mov    (%rax),%eax
   19c2b:	41 89 c7             	mov    %eax,%r15d
   19c2e:	48 8b 05 db d4 00 00 	mov    0xd4db(%rip),%rax        # 27110 <g_573>
   19c35:	48 8b 10             	mov    (%rax),%rdx
   19c38:	8b 85 6c e8 ff ff    	mov    -0x1794(%rbp),%eax
   19c3e:	48 98                	cltq   
   19c40:	48 89 d6             	mov    %rdx,%rsi
   19c43:	48 89 c7             	mov    %rax,%rdi
   19c46:	e8 69 ed fe ff       	callq  89b4 <safe_mod_func_int64_t_s_s>
   19c4b:	89 c7                	mov    %eax,%edi
   19c4d:	e8 44 e9 fe ff       	callq  8596 <safe_unary_minus_func_int32_t_s>
   19c52:	0f b7 c0             	movzwl %ax,%eax
   19c55:	89 c6                	mov    %eax,%esi
   19c57:	bf 01 00 00 00       	mov    $0x1,%edi
   19c5c:	e8 be f0 fe ff       	callq  8d1f <safe_sub_func_uint16_t_u_u>
   19c61:	48 be 02 5c ff 89 60 	movabs $0xaa0ddd6089ff5c02,%rsi
   19c68:	dd 0d aa 
   19c6b:	bf 00 00 00 00       	mov    $0x0,%edi
   19c70:	e8 d6 f3 fe ff       	callq  904b <safe_sub_func_uint64_t_u_u>
   19c75:	48 be 98 7d 51 eb 2c 	movabs $0xd6233f2ceb517d98,%rsi
   19c7c:	3f 23 d6 
   19c7f:	bf 01 00 00 00       	mov    $0x1,%edi
   19c84:	e8 26 f4 fe ff       	callq  90af <safe_div_func_uint64_t_u_u>
   19c89:	44 89 fe             	mov    %r15d,%esi
   19c8c:	89 c7                	mov    %eax,%edi
   19c8e:	e8 6c ea fe ff       	callq  86ff <safe_div_func_int32_t_s_s>
   19c93:	41 39 c6             	cmp    %eax,%r14d
   19c96:	0f 9f c0             	setg   %al
   19c99:	0f b6 c0             	movzbl %al,%eax
   19c9c:	89 de                	mov    %ebx,%esi
   19c9e:	89 c7                	mov    %eax,%edi
   19ca0:	e8 98 f0 fe ff       	callq  8d3d <safe_mul_func_uint16_t_u_u>
   19ca5:	0f b7 c0             	movzwl %ax,%eax
   19ca8:	41 39 c5             	cmp    %eax,%r13d
   19cab:	75 12                	jne    19cbf <func_36+0x279c>
   19cad:	0f b6 05 dc ab 00 00 	movzbl 0xabdc(%rip),%eax        # 24890 <g_590>
   19cb4:	84 c0                	test   %al,%al
   19cb6:	74 07                	je     19cbf <func_36+0x279c>
   19cb8:	b8 01 00 00 00       	mov    $0x1,%eax
   19cbd:	eb 05                	jmp    19cc4 <func_36+0x27a1>
   19cbf:	b8 00 00 00 00       	mov    $0x0,%eax
   19cc4:	44 39 e0             	cmp    %r12d,%eax
   19cc7:	0f 9c c0             	setl   %al
   19cca:	0f b6 c0             	movzbl %al,%eax
   19ccd:	89 85 f0 e8 ff ff    	mov    %eax,-0x1710(%rbp)
   19cd3:	48 8d 85 b0 e9 ff ff 	lea    -0x1650(%rbp),%rax
   19cda:	48 89 85 60 ea ff ff 	mov    %rax,-0x15a0(%rbp)
   19ce1:	48 8b 05 a0 ab 00 00 	mov    0xaba0(%rip),%rax        # 24888 <g_505>
   19ce8:	be 01 00 00 00       	mov    $0x1,%esi
   19ced:	89 c7                	mov    %eax,%edi
   19cef:	e8 c4 f1 fe ff       	callq  8eb8 <safe_add_func_uint32_t_u_u>
   19cf4:	89 c0                	mov    %eax,%eax
   19cf6:	48 89 05 8b ab 00 00 	mov    %rax,0xab8b(%rip)        # 24888 <g_505>
   19cfd:	48 8b 05 84 ab 00 00 	mov    0xab84(%rip),%rax        # 24888 <g_505>
   19d04:	48 83 f8 0e          	cmp    $0xe,%rax
   19d08:	0f 87 04 f9 ff ff    	ja     19612 <func_36+0x20ef>
   19d0e:	e9 3f 02 00 00       	jmpq   19f52 <func_36+0x2a2f>
   19d13:	c7 85 a4 e8 ff ff 00 	movl   $0x0,-0x175c(%rbp)
   19d1a:	00 00 00 
   19d1d:	eb 21                	jmp    19d40 <func_36+0x281d>
   19d1f:	8b 85 a4 e8 ff ff    	mov    -0x175c(%rbp),%eax
   19d25:	48 98                	cltq   
   19d27:	48 bb 92 2a b5 18 91 	movabs $0x2ff2419118b52a92,%rbx
   19d2e:	41 f2 2f 
   19d31:	48 89 9c c5 30 f2 ff 	mov    %rbx,-0xdd0(%rbp,%rax,8)
   19d38:	ff 
   19d39:	83 85 a4 e8 ff ff 01 	addl   $0x1,-0x175c(%rbp)
   19d40:	83 bd a4 e8 ff ff 02 	cmpl   $0x2,-0x175c(%rbp)
   19d47:	7e d6                	jle    19d1f <func_36+0x27fc>
   19d49:	48 8b 85 48 e9 ff ff 	mov    -0x16b8(%rbp),%rax
   19d50:	8b 10                	mov    (%rax),%edx
   19d52:	48 8b 85 48 e9 ff ff 	mov    -0x16b8(%rbp),%rax
   19d59:	83 e2 02             	and    $0x2,%edx
   19d5c:	89 10                	mov    %edx,(%rax)
   19d5e:	48 8b 85 c8 e9 ff ff 	mov    -0x1638(%rbp),%rax
   19d65:	48 89 05 8c d4 00 00 	mov    %rax,0xd48c(%rip)        # 271f8 <g_710>
   19d6c:	c7 05 f6 aa 00 00 fa 	movl   $0xfffffffa,0xaaf6(%rip)        # 2486c <g_321>
   19d73:	ff ff ff 
   19d76:	e9 c8 01 00 00       	jmpq   19f43 <func_36+0x2a20>
   19d7b:	48 c7 85 28 ea ff ff 	movq   $0x0,-0x15d8(%rbp)
   19d82:	00 00 00 00 
   19d86:	48 b8 4a 73 3a 59 2d 	movabs $0xf5ac8e2d593a734a,%rax
   19d8d:	8e ac f5 
   19d90:	48 89 85 30 ea ff ff 	mov    %rax,-0x15d0(%rbp)
   19d97:	c7 85 b0 e9 ff ff 4e 	movl   $0x77e7a44e,-0x1650(%rbp)
   19d9e:	a4 e7 77 
   19da1:	c6 05 84 a2 00 00 02 	movb   $0x2,0xa284(%rip)        # 2402c <g_67>
   19da8:	e9 69 01 00 00       	jmpq   19f16 <func_36+0x29f3>
   19dad:	66 c7 85 82 e8 ff ff 	movw   $0xffff,-0x177e(%rbp)
   19db4:	ff ff 
   19db6:	c7 05 b8 aa 00 00 00 	movl   $0x0,0xaab8(%rip)        # 24878 <g_370>
   19dbd:	00 00 00 
   19dc0:	e9 24 01 00 00       	jmpq   19ee9 <func_36+0x29c6>
   19dc5:	c7 85 d8 e8 ff ff 2d 	movl   $0xf73552d,-0x1728(%rbp)
   19dcc:	55 73 0f 
   19dcf:	48 8b 85 20 e9 ff ff 	mov    -0x16e0(%rbp),%rax
   19dd6:	8b 08                	mov    (%rax),%ecx
   19dd8:	48 8b 85 60 e8 ff ff 	mov    -0x17a0(%rbp),%rax
   19ddf:	8b 10                	mov    (%rax),%edx
   19de1:	48 8b 85 20 e9 ff ff 	mov    -0x16e0(%rbp),%rax
   19de8:	09 ca                	or     %ecx,%edx
   19dea:	89 10                	mov    %edx,(%rax)
   19dec:	48 83 bd 28 ea ff ff 	cmpq   $0x0,-0x15d8(%rbp)
   19df3:	00 
   19df4:	48 8b 85 40 e9 ff ff 	mov    -0x16c0(%rbp),%rax
   19dfb:	8b 00                	mov    (%rax),%eax
   19dfd:	3d 49 3b fd ae       	cmp    $0xaefd3b49,%eax
   19e02:	0f 9d c0             	setge  %al
   19e05:	44 0f b6 e0          	movzbl %al,%r12d
   19e09:	0f b7 85 82 e8 ff ff 	movzwl -0x177e(%rbp),%eax
   19e10:	0f bf d8             	movswl %ax,%ebx
   19e13:	48 8b 85 48 e8 ff ff 	mov    -0x17b8(%rbp),%rax
   19e1a:	8b 00                	mov    (%rax),%eax
   19e1c:	89 c1                	mov    %eax,%ecx
   19e1e:	48 8b 15 63 cf 00 00 	mov    0xcf63(%rip),%rdx        # 26d88 <g_146>
   19e25:	48 8b 05 5c cf 00 00 	mov    0xcf5c(%rip),%rax        # 26d88 <g_146>
   19e2c:	8b 12                	mov    (%rdx),%edx
   19e2e:	89 10                	mov    %edx,(%rax)
   19e30:	8b 00                	mov    (%rax),%eax
   19e32:	89 ce                	mov    %ecx,%esi
   19e34:	89 c7                	mov    %eax,%edi
   19e36:	e8 c2 f0 fe ff       	callq  8efd <safe_mod_func_uint32_t_u_u>
   19e3b:	98                   	cwtl   
   19e3c:	89 de                	mov    %ebx,%esi
   19e3e:	89 c7                	mov    %eax,%edi
   19e40:	e8 8e e5 fe ff       	callq  83d3 <safe_sub_func_int16_t_s_s>
   19e45:	98                   	cwtl   
   19e46:	44 89 e2             	mov    %r12d,%edx
   19e49:	21 c2                	and    %eax,%edx
   19e4b:	48 8b 05 be d2 00 00 	mov    0xd2be(%rip),%rax        # 27110 <g_573>
   19e52:	48 63 d2             	movslq %edx,%rdx
   19e55:	48 89 10             	mov    %rdx,(%rax)
   19e58:	48 8b 85 30 ea ff ff 	mov    -0x15d0(%rbp),%rax
   19e5f:	89 85 b0 e9 ff ff    	mov    %eax,-0x1650(%rbp)
   19e65:	8b 85 b0 e9 ff ff    	mov    -0x1650(%rbp),%eax
   19e6b:	85 c0                	test   %eax,%eax
   19e6d:	0f 95 c0             	setne  %al
   19e70:	0f b6 d0             	movzbl %al,%edx
   19e73:	8b 05 af a1 00 00    	mov    0xa1af(%rip),%eax        # 24028 <g_62>
   19e79:	31 c2                	xor    %eax,%edx
   19e7b:	8b 85 d8 e8 ff ff    	mov    -0x1728(%rbp),%eax
   19e81:	89 c6                	mov    %eax,%esi
   19e83:	89 d7                	mov    %edx,%edi
   19e85:	e8 75 e8 fe ff       	callq  86ff <safe_div_func_int32_t_s_s>
   19e8a:	98                   	cwtl   
   19e8b:	be 0d 00 00 00       	mov    $0xd,%esi
   19e90:	89 c7                	mov    %eax,%edi
   19e92:	e8 fb e5 fe ff       	callq  8492 <safe_lshift_func_int16_t_s_s>
   19e97:	be fb e7 ab 79       	mov    $0x79abe7fb,%esi
   19e9c:	bf 88 31 a5 b0       	mov    $0xb0a53188,%edi
   19ea1:	e8 10 e7 fe ff       	callq  85b6 <safe_add_func_int32_t_s_s>
   19ea6:	48 8b 15 43 d3 00 00 	mov    0xd343(%rip),%rdx        # 271f0 <g_711>
   19ead:	0f b7 12             	movzwl (%rdx),%edx
   19eb0:	0f b7 d2             	movzwl %dx,%edx
   19eb3:	39 d0                	cmp    %edx,%eax
   19eb5:	0f 9e c0             	setle  %al
   19eb8:	0f b6 c0             	movzbl %al,%eax
   19ebb:	89 c6                	mov    %eax,%esi
   19ebd:	bf 21 ad 03 cb       	mov    $0xcb03ad21,%edi
   19ec2:	e8 ef e6 fe ff       	callq  85b6 <safe_add_func_int32_t_s_s>
   19ec7:	39 85 6c e8 ff ff    	cmp    %eax,-0x1794(%rbp)
   19ecd:	0f 9d c0             	setge  %al
   19ed0:	0f b6 c0             	movzbl %al,%eax
   19ed3:	48 89 85 38 f2 ff ff 	mov    %rax,-0xdc8(%rbp)
   19eda:	8b 05 98 a9 00 00    	mov    0xa998(%rip),%eax        # 24878 <g_370>
   19ee0:	83 c0 01             	add    $0x1,%eax
   19ee3:	89 05 8f a9 00 00    	mov    %eax,0xa98f(%rip)        # 24878 <g_370>
   19ee9:	8b 05 89 a9 00 00    	mov    0xa989(%rip),%eax        # 24878 <g_370>
   19eef:	83 f8 02             	cmp    $0x2,%eax
   19ef2:	0f 8e cd fe ff ff    	jle    19dc5 <func_36+0x28a2>
   19ef8:	48 8d 85 b0 e9 ff ff 	lea    -0x1650(%rbp),%rax
   19eff:	48 89 85 58 e8 ff ff 	mov    %rax,-0x17a8(%rbp)
   19f06:	0f b6 05 1f a1 00 00 	movzbl 0xa11f(%rip),%eax        # 2402c <g_67>
   19f0d:	83 e8 01             	sub    $0x1,%eax
   19f10:	88 05 16 a1 00 00    	mov    %al,0xa116(%rip)        # 2402c <g_67>
   19f16:	0f b6 05 0f a1 00 00 	movzbl 0xa10f(%rip),%eax        # 2402c <g_67>
   19f1d:	84 c0                	test   %al,%al
   19f1f:	0f 89 88 fe ff ff    	jns    19dad <func_36+0x288a>
   19f25:	8b 05 41 a9 00 00    	mov    0xa941(%rip),%eax        # 2486c <g_321>
   19f2b:	0f b7 c0             	movzwl %ax,%eax
   19f2e:	be 08 00 00 00       	mov    $0x8,%esi
   19f33:	89 c7                	mov    %eax,%edi
   19f35:	e8 c5 ed fe ff       	callq  8cff <safe_add_func_uint16_t_u_u>
   19f3a:	0f b7 c0             	movzwl %ax,%eax
   19f3d:	89 05 29 a9 00 00    	mov    %eax,0xa929(%rip)        # 2486c <g_321>
   19f43:	8b 05 23 a9 00 00    	mov    0xa923(%rip),%eax        # 2486c <g_321>
   19f49:	83 f8 11             	cmp    $0x11,%eax
   19f4c:	0f 87 29 fe ff ff    	ja     19d7b <func_36+0x2858>
   19f52:	c7 05 14 a9 00 00 00 	movl   $0x0,0xa914(%rip)        # 24870 <g_355>
   19f59:	00 00 00 
   19f5c:	e9 f9 03 00 00       	jmpq   1a35a <func_36+0x2e37>
   19f61:	48 c7 85 b0 ea ff ff 	movq   $0x0,-0x1550(%rbp)
   19f68:	00 00 00 00 
   19f6c:	48 c7 85 b8 ea ff ff 	movq   $0x0,-0x1548(%rbp)
   19f73:	00 00 00 00 
   19f77:	c7 85 f4 e8 ff ff ff 	movl   $0xffffffff,-0x170c(%rbp)
   19f7e:	ff ff ff 
   19f81:	c7 85 f8 e8 ff ff 08 	movl   $0x8,-0x1708(%rbp)
   19f88:	00 00 00 
   19f8b:	48 8d 05 fe a8 00 00 	lea    0xa8fe(%rip),%rax        # 24890 <g_590>
   19f92:	48 89 85 b0 e9 ff ff 	mov    %rax,-0x1650(%rbp)
   19f99:	48 c7 85 50 f0 ff ff 	movq   $0x0,-0xfb0(%rbp)
   19fa0:	00 00 00 00 
   19fa4:	48 8d 85 b0 e9 ff ff 	lea    -0x1650(%rbp),%rax
   19fab:	48 89 85 58 f0 ff ff 	mov    %rax,-0xfa8(%rbp)
   19fb2:	48 c7 85 60 f0 ff ff 	movq   $0x0,-0xfa0(%rbp)
   19fb9:	00 00 00 00 
   19fbd:	48 c7 85 68 f0 ff ff 	movq   $0x0,-0xf98(%rbp)
   19fc4:	00 00 00 00 
   19fc8:	48 8d 85 b0 e9 ff ff 	lea    -0x1650(%rbp),%rax
   19fcf:	48 89 85 70 f0 ff ff 	mov    %rax,-0xf90(%rbp)
   19fd6:	48 c7 85 78 f0 ff ff 	movq   $0x0,-0xf88(%rbp)
   19fdd:	00 00 00 00 
   19fe1:	48 8d 85 50 f0 ff ff 	lea    -0xfb0(%rbp),%rax
   19fe8:	48 83 c0 18          	add    $0x18,%rax
   19fec:	48 89 85 c0 ea ff ff 	mov    %rax,-0x1540(%rbp)
   19ff3:	48 c7 85 c8 ea ff ff 	movq   $0x1,-0x1538(%rbp)
   19ffa:	01 00 00 00 
   19ffe:	c7 85 fc e8 ff ff 77 	movl   $0x4662ad77,-0x1704(%rbp)
   1a005:	ad 62 46 
   1a008:	c7 85 00 e9 ff ff ff 	movl   $0xffffffff,-0x1700(%rbp)
   1a00f:	ff ff ff 
   1a012:	c7 85 04 e9 ff ff d7 	movl   $0x46f1acd7,-0x16fc(%rbp)
   1a019:	ac f1 46 
   1a01c:	c6 85 75 e8 ff ff 9d 	movb   $0x9d,-0x178b(%rbp)
   1a023:	48 c7 85 d0 ea ff ff 	movq   $0x0,-0x1530(%rbp)
   1a02a:	00 00 00 00 
   1a02e:	66 c7 85 8a e8 ff ff 	movw   $0x8803,-0x1776(%rbp)
   1a035:	03 88 
   1a037:	c7 85 08 e9 ff ff ff 	movl   $0xffffffff,-0x16f8(%rbp)
   1a03e:	ff ff ff 
   1a041:	c7 85 0c e9 ff ff 62 	movl   $0xe6360162,-0x16f4(%rbp)
   1a048:	01 36 e6 
   1a04b:	c7 85 10 e9 ff ff 36 	movl   $0x6a4c1f36,-0x16f0(%rbp)
   1a052:	1f 4c 6a 
   1a055:	c7 85 00 ef ff ff 05 	movl   $0x5,-0x1100(%rbp)
   1a05c:	00 00 00 
   1a05f:	c7 85 04 ef ff ff 05 	movl   $0x5,-0x10fc(%rbp)
   1a066:	00 00 00 
   1a069:	c7 85 08 ef ff ff 05 	movl   $0x5,-0x10f8(%rbp)
   1a070:	00 00 00 
   1a073:	c7 85 0c ef ff ff 05 	movl   $0x5,-0x10f4(%rbp)
   1a07a:	00 00 00 
   1a07d:	c7 85 10 ef ff ff 05 	movl   $0x5,-0x10f0(%rbp)
   1a084:	00 00 00 
   1a087:	c7 85 14 ef ff ff 05 	movl   $0x5,-0x10ec(%rbp)
   1a08e:	00 00 00 
   1a091:	c7 85 18 ef ff ff 05 	movl   $0x5,-0x10e8(%rbp)
   1a098:	00 00 00 
   1a09b:	c7 85 1c ef ff ff 05 	movl   $0x5,-0x10e4(%rbp)
   1a0a2:	00 00 00 
   1a0a5:	c7 85 30 f2 ff ff fc 	movl   $0xfffffffc,-0xdd0(%rbp)
   1a0ac:	ff ff ff 
   1a0af:	c7 85 34 f2 ff ff ff 	movl   $0xffffffff,-0xdcc(%rbp)
   1a0b6:	ff ff ff 
   1a0b9:	c7 85 38 f2 ff ff fc 	movl   $0xfffffffc,-0xdc8(%rbp)
   1a0c0:	ff ff ff 
   1a0c3:	c7 85 3c f2 ff ff ff 	movl   $0xffffffff,-0xdc4(%rbp)
   1a0ca:	ff ff ff 
   1a0cd:	c7 85 40 f2 ff ff fc 	movl   $0xfffffffc,-0xdc0(%rbp)
   1a0d4:	ff ff ff 
   1a0d7:	c7 85 44 f2 ff ff ff 	movl   $0xffffffff,-0xdbc(%rbp)
   1a0de:	ff ff ff 
   1a0e1:	c7 85 48 f2 ff ff fc 	movl   $0xfffffffc,-0xdb8(%rbp)
   1a0e8:	ff ff ff 
   1a0eb:	c7 85 4c f2 ff ff ff 	movl   $0xffffffff,-0xdb4(%rbp)
   1a0f2:	ff ff ff 
   1a0f5:	c7 85 50 f2 ff ff fc 	movl   $0xfffffffc,-0xdb0(%rbp)
   1a0fc:	ff ff ff 
   1a0ff:	c7 85 54 f2 ff ff ff 	movl   $0xffffffff,-0xdac(%rbp)
   1a106:	ff ff ff 
   1a109:	c7 85 58 f2 ff ff 08 	movl   $0x8,-0xda8(%rbp)
   1a110:	00 00 00 
   1a113:	c7 85 5c f2 ff ff ff 	movl   $0xffffffff,-0xda4(%rbp)
   1a11a:	ff ff ff 
   1a11d:	c7 85 60 f2 ff ff 08 	movl   $0x8,-0xda0(%rbp)
   1a124:	00 00 00 
   1a127:	c7 85 64 f2 ff ff ff 	movl   $0xffffffff,-0xd9c(%rbp)
   1a12e:	ff ff ff 
   1a131:	c7 85 68 f2 ff ff 08 	movl   $0x8,-0xd98(%rbp)
   1a138:	00 00 00 
   1a13b:	c7 85 6c f2 ff ff ff 	movl   $0xffffffff,-0xd94(%rbp)
   1a142:	ff ff ff 
   1a145:	c7 85 70 f2 ff ff 08 	movl   $0x8,-0xd90(%rbp)
   1a14c:	00 00 00 
   1a14f:	c7 85 74 f2 ff ff ff 	movl   $0xffffffff,-0xd8c(%rbp)
   1a156:	ff ff ff 
   1a159:	c7 85 78 f2 ff ff 08 	movl   $0x8,-0xd88(%rbp)
   1a160:	00 00 00 
   1a163:	c7 85 7c f2 ff ff ff 	movl   $0xffffffff,-0xd84(%rbp)
   1a16a:	ff ff ff 
   1a16d:	c7 85 80 f2 ff ff fc 	movl   $0xfffffffc,-0xd80(%rbp)
   1a174:	ff ff ff 
   1a177:	c7 85 84 f2 ff ff ff 	movl   $0xffffffff,-0xd7c(%rbp)
   1a17e:	ff ff ff 
   1a181:	c7 85 88 f2 ff ff fc 	movl   $0xfffffffc,-0xd78(%rbp)
   1a188:	ff ff ff 
   1a18b:	c7 85 8c f2 ff ff ff 	movl   $0xffffffff,-0xd74(%rbp)
   1a192:	ff ff ff 
   1a195:	c7 85 90 f2 ff ff fc 	movl   $0xfffffffc,-0xd70(%rbp)
   1a19c:	ff ff ff 
   1a19f:	c7 85 94 f2 ff ff ff 	movl   $0xffffffff,-0xd6c(%rbp)
   1a1a6:	ff ff ff 
   1a1a9:	c7 85 98 f2 ff ff fc 	movl   $0xfffffffc,-0xd68(%rbp)
   1a1b0:	ff ff ff 
   1a1b3:	c7 85 9c f2 ff ff ff 	movl   $0xffffffff,-0xd64(%rbp)
   1a1ba:	ff ff ff 
   1a1bd:	c7 85 a0 f2 ff ff fc 	movl   $0xfffffffc,-0xd60(%rbp)
   1a1c4:	ff ff ff 
   1a1c7:	c7 85 a4 f2 ff ff ff 	movl   $0xffffffff,-0xd5c(%rbp)
   1a1ce:	ff ff ff 
   1a1d1:	c7 85 a8 f2 ff ff 08 	movl   $0x8,-0xd58(%rbp)
   1a1d8:	00 00 00 
   1a1db:	c7 85 ac f2 ff ff ff 	movl   $0xffffffff,-0xd54(%rbp)
   1a1e2:	ff ff ff 
   1a1e5:	c7 85 b0 f2 ff ff 08 	movl   $0x8,-0xd50(%rbp)
   1a1ec:	00 00 00 
   1a1ef:	c7 85 b4 f2 ff ff ff 	movl   $0xffffffff,-0xd4c(%rbp)
   1a1f6:	ff ff ff 
   1a1f9:	c7 85 b8 f2 ff ff 08 	movl   $0x8,-0xd48(%rbp)
   1a200:	00 00 00 
   1a203:	c7 85 bc f2 ff ff ff 	movl   $0xffffffff,-0xd44(%rbp)
   1a20a:	ff ff ff 
   1a20d:	c7 85 c0 f2 ff ff 08 	movl   $0x8,-0xd40(%rbp)
   1a214:	00 00 00 
   1a217:	c7 85 c4 f2 ff ff ff 	movl   $0xffffffff,-0xd3c(%rbp)
   1a21e:	ff ff ff 
   1a221:	c7 85 c8 f2 ff ff 08 	movl   $0x8,-0xd38(%rbp)
   1a228:	00 00 00 
   1a22b:	c7 85 cc f2 ff ff ff 	movl   $0xffffffff,-0xd34(%rbp)
   1a232:	ff ff ff 
   1a235:	c7 85 d0 f2 ff ff fc 	movl   $0xfffffffc,-0xd30(%rbp)
   1a23c:	ff ff ff 
   1a23f:	c7 85 d4 f2 ff ff ff 	movl   $0xffffffff,-0xd2c(%rbp)
   1a246:	ff ff ff 
   1a249:	c7 85 d8 f2 ff ff fc 	movl   $0xfffffffc,-0xd28(%rbp)
   1a250:	ff ff ff 
   1a253:	c7 85 dc f2 ff ff ff 	movl   $0xffffffff,-0xd24(%rbp)
   1a25a:	ff ff ff 
   1a25d:	c7 85 e0 f2 ff ff fc 	movl   $0xfffffffc,-0xd20(%rbp)
   1a264:	ff ff ff 
   1a267:	c7 85 e4 f2 ff ff ff 	movl   $0xffffffff,-0xd1c(%rbp)
   1a26e:	ff ff ff 
   1a271:	c7 85 e8 f2 ff ff fc 	movl   $0xfffffffc,-0xd18(%rbp)
   1a278:	ff ff ff 
   1a27b:	c7 85 ec f2 ff ff ff 	movl   $0xffffffff,-0xd14(%rbp)
   1a282:	ff ff ff 
   1a285:	c7 85 f0 f2 ff ff fc 	movl   $0xfffffffc,-0xd10(%rbp)
   1a28c:	ff ff ff 
   1a28f:	c7 85 f4 f2 ff ff ff 	movl   $0xffffffff,-0xd0c(%rbp)
   1a296:	ff ff ff 
   1a299:	c7 85 f8 f2 ff ff 08 	movl   $0x8,-0xd08(%rbp)
   1a2a0:	00 00 00 
   1a2a3:	c7 85 fc f2 ff ff ff 	movl   $0xffffffff,-0xd04(%rbp)
   1a2aa:	ff ff ff 
   1a2ad:	c7 85 00 f3 ff ff 08 	movl   $0x8,-0xd00(%rbp)
   1a2b4:	00 00 00 
   1a2b7:	c7 85 04 f3 ff ff ff 	movl   $0xffffffff,-0xcfc(%rbp)
   1a2be:	ff ff ff 
   1a2c1:	c7 85 08 f3 ff ff 08 	movl   $0x8,-0xcf8(%rbp)
   1a2c8:	00 00 00 
   1a2cb:	c7 85 0c f3 ff ff ff 	movl   $0xffffffff,-0xcf4(%rbp)
   1a2d2:	ff ff ff 
   1a2d5:	c7 85 10 f3 ff ff 08 	movl   $0x8,-0xcf0(%rbp)
   1a2dc:	00 00 00 
   1a2df:	c7 85 14 f3 ff ff ff 	movl   $0xffffffff,-0xcec(%rbp)
   1a2e6:	ff ff ff 
   1a2e9:	c7 85 18 f3 ff ff 08 	movl   $0x8,-0xce8(%rbp)
   1a2f0:	00 00 00 
   1a2f3:	c7 85 1c f3 ff ff ff 	movl   $0xffffffff,-0xce4(%rbp)
   1a2fa:	ff ff ff 
   1a2fd:	48 b8 bc c1 22 23 cb 	movabs $0x4bce98cb2322c1bc,%rax
   1a304:	98 ce 4b 
   1a307:	48 89 85 d8 ea ff ff 	mov    %rax,-0x1528(%rbp)
   1a30e:	c7 85 14 e9 ff ff f9 	movl   $0xfffffff9,-0x16ec(%rbp)
   1a315:	ff ff ff 
   1a318:	c7 85 a8 e8 ff ff 00 	movl   $0x0,-0x1758(%rbp)
   1a31f:	00 00 00 
   1a322:	eb 1e                	jmp    1a342 <func_36+0x2e1f>
   1a324:	8b 85 a8 e8 ff ff    	mov    -0x1758(%rbp),%eax
   1a32a:	48 98                	cltq   
   1a32c:	48 8d 15 fe 9c 00 00 	lea    0x9cfe(%rip),%rdx        # 24031 <g_69+0x1>
   1a333:	48 89 94 c5 20 ee ff 	mov    %rdx,-0x11e0(%rbp,%rax,8)
   1a33a:	ff 
   1a33b:	83 85 a8 e8 ff ff 01 	addl   $0x1,-0x1758(%rbp)
   1a342:	83 bd a8 e8 ff ff 00 	cmpl   $0x0,-0x1758(%rbp)
   1a349:	7e d9                	jle    1a324 <func_36+0x2e01>
   1a34b:	8b 05 1f a5 00 00    	mov    0xa51f(%rip),%eax        # 24870 <g_355>
   1a351:	83 e8 01             	sub    $0x1,%eax
   1a354:	89 05 16 a5 00 00    	mov    %eax,0xa516(%rip)        # 24870 <g_355>
   1a35a:	8b 05 10 a5 00 00    	mov    0xa510(%rip),%eax        # 24870 <g_355>
   1a360:	83 f8 f4             	cmp    $0xfffffff4,%eax
   1a363:	0f 8c f8 fb ff ff    	jl     19f61 <func_36+0x2a3e>
   1a369:	e9 0d 0d 00 00       	jmpq   1b07b <func_36+0x3b58>
   1a36e:	48 8d 05 ff a4 00 00 	lea    0xa4ff(%rip),%rax        # 24874 <g_368>
   1a375:	48 89 85 e8 e9 ff ff 	mov    %rax,-0x1618(%rbp)
   1a37c:	c7 85 b4 e8 ff ff 00 	movl   $0x0,-0x174c(%rbp)
   1a383:	00 00 00 
   1a386:	48 8d 85 30 f2 ff ff 	lea    -0xdd0(%rbp),%rax
   1a38d:	48 8d 15 6c 5a 00 00 	lea    0x5a6c(%rip),%rdx        # 1fe00 <g_5653+0x2d5f>
   1a394:	b9 d2 00 00 00       	mov    $0xd2,%ecx
   1a399:	48 89 c7             	mov    %rax,%rdi
   1a39c:	48 89 d6             	mov    %rdx,%rsi
   1a39f:	f3 48 a5             	rep movsq %ds:(%rsi),%es:(%rdi)
   1a3a2:	48 8d 85 78 e9 ff ff 	lea    -0x1688(%rbp),%rax
   1a3a9:	48 89 85 a8 e9 ff ff 	mov    %rax,-0x1658(%rbp)
   1a3b0:	48 8d 85 a8 e9 ff ff 	lea    -0x1658(%rbp),%rax
   1a3b7:	48 89 85 f0 e9 ff ff 	mov    %rax,-0x1610(%rbp)
   1a3be:	48 8d 05 63 9c 00 00 	lea    0x9c63(%rip),%rax        # 24028 <g_62>
   1a3c5:	48 89 85 f8 e9 ff ff 	mov    %rax,-0x1608(%rbp)
   1a3cc:	48 8d 85 88 e9 ff ff 	lea    -0x1678(%rbp),%rax
   1a3d3:	48 89 85 00 ea ff ff 	mov    %rax,-0x1600(%rbp)
   1a3da:	c6 05 af a4 00 00 eb 	movb   $0xeb,0xa4af(%rip)        # 24890 <g_590>
   1a3e1:	e9 42 0c 00 00       	jmpq   1b028 <func_36+0x3b05>
   1a3e6:	c7 85 b8 e8 ff ff ff 	movl   $0xffffffff,-0x1748(%rbp)
   1a3ed:	ff ff ff 
   1a3f0:	48 8d 85 50 e9 ff ff 	lea    -0x16b0(%rbp),%rax
   1a3f7:	48 89 85 b0 e9 ff ff 	mov    %rax,-0x1650(%rbp)
   1a3fe:	48 8d 85 b0 e9 ff ff 	lea    -0x1650(%rbp),%rax
   1a405:	48 89 85 08 ea ff ff 	mov    %rax,-0x15f8(%rbp)
   1a40c:	c7 85 bc e8 ff ff f8 	movl   $0x1c69df8,-0x1744(%rbp)
   1a413:	9d c6 01 
   1a416:	c7 05 4c a4 00 00 00 	movl   $0x0,0xa44c(%rip)        # 2486c <g_321>
   1a41d:	00 00 00 
   1a420:	e9 e4 0b 00 00       	jmpq   1b009 <func_36+0x3ae6>
   1a425:	48 8d 85 76 e8 ff ff 	lea    -0x178a(%rbp),%rax
   1a42c:	48 89 85 c0 f8 ff ff 	mov    %rax,-0x740(%rbp)
   1a433:	48 8d 05 3a a4 00 00 	lea    0xa43a(%rip),%rax        # 24874 <g_368>
   1a43a:	48 89 85 c8 f8 ff ff 	mov    %rax,-0x738(%rbp)
   1a441:	48 8d 85 76 e8 ff ff 	lea    -0x178a(%rbp),%rax
   1a448:	48 89 85 d0 f8 ff ff 	mov    %rax,-0x730(%rbp)
   1a44f:	48 8d 85 76 e8 ff ff 	lea    -0x178a(%rbp),%rax
   1a456:	48 89 85 d8 f8 ff ff 	mov    %rax,-0x728(%rbp)
   1a45d:	48 c7 85 e0 f8 ff ff 	movq   $0x0,-0x720(%rbp)
   1a464:	00 00 00 00 
   1a468:	48 8d 05 05 a4 00 00 	lea    0xa405(%rip),%rax        # 24874 <g_368>
   1a46f:	48 89 85 e8 f8 ff ff 	mov    %rax,-0x718(%rbp)
   1a476:	48 8d 05 f7 a3 00 00 	lea    0xa3f7(%rip),%rax        # 24874 <g_368>
   1a47d:	48 89 85 f0 f8 ff ff 	mov    %rax,-0x710(%rbp)
   1a484:	48 8d 05 e9 a3 00 00 	lea    0xa3e9(%rip),%rax        # 24874 <g_368>
   1a48b:	48 89 85 f8 f8 ff ff 	mov    %rax,-0x708(%rbp)
   1a492:	48 8d 85 76 e8 ff ff 	lea    -0x178a(%rbp),%rax
   1a499:	48 89 85 00 f9 ff ff 	mov    %rax,-0x700(%rbp)
   1a4a0:	48 8d 05 cd a3 00 00 	lea    0xa3cd(%rip),%rax        # 24874 <g_368>
   1a4a7:	48 89 85 08 f9 ff ff 	mov    %rax,-0x6f8(%rbp)
   1a4ae:	48 c7 85 10 f9 ff ff 	movq   $0x0,-0x6f0(%rbp)
   1a4b5:	00 00 00 00 
   1a4b9:	48 8d 85 76 e8 ff ff 	lea    -0x178a(%rbp),%rax
   1a4c0:	48 89 85 18 f9 ff ff 	mov    %rax,-0x6e8(%rbp)
   1a4c7:	48 8d 85 76 e8 ff ff 	lea    -0x178a(%rbp),%rax
   1a4ce:	48 89 85 20 f9 ff ff 	mov    %rax,-0x6e0(%rbp)
   1a4d5:	48 c7 85 28 f9 ff ff 	movq   $0x0,-0x6d8(%rbp)
   1a4dc:	00 00 00 00 
   1a4e0:	48 c7 85 30 f9 ff ff 	movq   $0x0,-0x6d0(%rbp)
   1a4e7:	00 00 00 00 
   1a4eb:	48 c7 85 38 f9 ff ff 	movq   $0x0,-0x6c8(%rbp)
   1a4f2:	00 00 00 00 
   1a4f6:	48 8d 05 77 a3 00 00 	lea    0xa377(%rip),%rax        # 24874 <g_368>
   1a4fd:	48 89 85 40 f9 ff ff 	mov    %rax,-0x6c0(%rbp)
   1a504:	48 c7 85 48 f9 ff ff 	movq   $0x0,-0x6b8(%rbp)
   1a50b:	00 00 00 00 
   1a50f:	48 8d 85 76 e8 ff ff 	lea    -0x178a(%rbp),%rax
   1a516:	48 89 85 50 f9 ff ff 	mov    %rax,-0x6b0(%rbp)
   1a51d:	48 8d 05 50 a3 00 00 	lea    0xa350(%rip),%rax        # 24874 <g_368>
   1a524:	48 89 85 58 f9 ff ff 	mov    %rax,-0x6a8(%rbp)
   1a52b:	48 c7 85 60 f9 ff ff 	movq   $0x0,-0x6a0(%rbp)
   1a532:	00 00 00 00 
   1a536:	48 8d 05 37 a3 00 00 	lea    0xa337(%rip),%rax        # 24874 <g_368>
   1a53d:	48 89 85 68 f9 ff ff 	mov    %rax,-0x698(%rbp)
   1a544:	48 8d 85 76 e8 ff ff 	lea    -0x178a(%rbp),%rax
   1a54b:	48 89 85 70 f9 ff ff 	mov    %rax,-0x690(%rbp)
   1a552:	48 8d 85 76 e8 ff ff 	lea    -0x178a(%rbp),%rax
   1a559:	48 89 85 78 f9 ff ff 	mov    %rax,-0x688(%rbp)
   1a560:	48 8d 85 76 e8 ff ff 	lea    -0x178a(%rbp),%rax
   1a567:	48 89 85 80 f9 ff ff 	mov    %rax,-0x680(%rbp)
   1a56e:	48 c7 85 88 f9 ff ff 	movq   $0x0,-0x678(%rbp)
   1a575:	00 00 00 00 
   1a579:	48 c7 85 90 f9 ff ff 	movq   $0x0,-0x670(%rbp)
   1a580:	00 00 00 00 
   1a584:	48 8d 85 76 e8 ff ff 	lea    -0x178a(%rbp),%rax
   1a58b:	48 89 85 98 f9 ff ff 	mov    %rax,-0x668(%rbp)
   1a592:	48 8d 85 76 e8 ff ff 	lea    -0x178a(%rbp),%rax
   1a599:	48 89 85 a0 f9 ff ff 	mov    %rax,-0x660(%rbp)
   1a5a0:	48 8d 85 76 e8 ff ff 	lea    -0x178a(%rbp),%rax
   1a5a7:	48 89 85 a8 f9 ff ff 	mov    %rax,-0x658(%rbp)
   1a5ae:	48 8d 85 76 e8 ff ff 	lea    -0x178a(%rbp),%rax
   1a5b5:	48 89 85 b0 f9 ff ff 	mov    %rax,-0x650(%rbp)
   1a5bc:	48 8d 85 76 e8 ff ff 	lea    -0x178a(%rbp),%rax
   1a5c3:	48 89 85 b8 f9 ff ff 	mov    %rax,-0x648(%rbp)
   1a5ca:	48 c7 85 c0 f9 ff ff 	movq   $0x0,-0x640(%rbp)
   1a5d1:	00 00 00 00 
   1a5d5:	48 8d 85 76 e8 ff ff 	lea    -0x178a(%rbp),%rax
   1a5dc:	48 89 85 c8 f9 ff ff 	mov    %rax,-0x638(%rbp)
   1a5e3:	48 8d 85 76 e8 ff ff 	lea    -0x178a(%rbp),%rax
   1a5ea:	48 89 85 d0 f9 ff ff 	mov    %rax,-0x630(%rbp)
   1a5f1:	48 c7 85 d8 f9 ff ff 	movq   $0x0,-0x628(%rbp)
   1a5f8:	00 00 00 00 
   1a5fc:	48 8d 05 71 a2 00 00 	lea    0xa271(%rip),%rax        # 24874 <g_368>
   1a603:	48 89 85 e0 f9 ff ff 	mov    %rax,-0x620(%rbp)
   1a60a:	48 8d 85 76 e8 ff ff 	lea    -0x178a(%rbp),%rax
   1a611:	48 89 85 e8 f9 ff ff 	mov    %rax,-0x618(%rbp)
   1a618:	48 c7 85 f0 f9 ff ff 	movq   $0x0,-0x610(%rbp)
   1a61f:	00 00 00 00 
   1a623:	48 8d 05 4a a2 00 00 	lea    0xa24a(%rip),%rax        # 24874 <g_368>
   1a62a:	48 89 85 f8 f9 ff ff 	mov    %rax,-0x608(%rbp)
   1a631:	48 8d 85 76 e8 ff ff 	lea    -0x178a(%rbp),%rax
   1a638:	48 89 85 00 fa ff ff 	mov    %rax,-0x600(%rbp)
   1a63f:	48 8d 05 2e a2 00 00 	lea    0xa22e(%rip),%rax        # 24874 <g_368>
   1a646:	48 89 85 08 fa ff ff 	mov    %rax,-0x5f8(%rbp)
   1a64d:	48 c7 85 10 fa ff ff 	movq   $0x0,-0x5f0(%rbp)
   1a654:	00 00 00 00 
   1a658:	48 8d 85 76 e8 ff ff 	lea    -0x178a(%rbp),%rax
   1a65f:	48 89 85 18 fa ff ff 	mov    %rax,-0x5e8(%rbp)
   1a666:	48 8d 85 76 e8 ff ff 	lea    -0x178a(%rbp),%rax
   1a66d:	48 89 85 20 fa ff ff 	mov    %rax,-0x5e0(%rbp)
   1a674:	48 8d 05 f9 a1 00 00 	lea    0xa1f9(%rip),%rax        # 24874 <g_368>
   1a67b:	48 89 85 28 fa ff ff 	mov    %rax,-0x5d8(%rbp)
   1a682:	48 8d 05 eb a1 00 00 	lea    0xa1eb(%rip),%rax        # 24874 <g_368>
   1a689:	48 89 85 30 fa ff ff 	mov    %rax,-0x5d0(%rbp)
   1a690:	48 8d 05 dd a1 00 00 	lea    0xa1dd(%rip),%rax        # 24874 <g_368>
   1a697:	48 89 85 38 fa ff ff 	mov    %rax,-0x5c8(%rbp)
   1a69e:	48 c7 85 40 fa ff ff 	movq   $0x0,-0x5c0(%rbp)
   1a6a5:	00 00 00 00 
   1a6a9:	48 c7 85 48 fa ff ff 	movq   $0x0,-0x5b8(%rbp)
   1a6b0:	00 00 00 00 
   1a6b4:	48 8d 85 76 e8 ff ff 	lea    -0x178a(%rbp),%rax
   1a6bb:	48 89 85 50 fa ff ff 	mov    %rax,-0x5b0(%rbp)
   1a6c2:	48 8d 05 ab a1 00 00 	lea    0xa1ab(%rip),%rax        # 24874 <g_368>
   1a6c9:	48 89 85 58 fa ff ff 	mov    %rax,-0x5a8(%rbp)
   1a6d0:	48 8d 85 76 e8 ff ff 	lea    -0x178a(%rbp),%rax
   1a6d7:	48 89 85 60 fa ff ff 	mov    %rax,-0x5a0(%rbp)
   1a6de:	48 8d 05 8f a1 00 00 	lea    0xa18f(%rip),%rax        # 24874 <g_368>
   1a6e5:	48 89 85 68 fa ff ff 	mov    %rax,-0x598(%rbp)
   1a6ec:	48 c7 85 70 fa ff ff 	movq   $0x0,-0x590(%rbp)
   1a6f3:	00 00 00 00 
   1a6f7:	48 8d 05 76 a1 00 00 	lea    0xa176(%rip),%rax        # 24874 <g_368>
   1a6fe:	48 89 85 78 fa ff ff 	mov    %rax,-0x588(%rbp)
   1a705:	48 8d 85 76 e8 ff ff 	lea    -0x178a(%rbp),%rax
   1a70c:	48 89 85 80 fa ff ff 	mov    %rax,-0x580(%rbp)
   1a713:	48 c7 85 88 fa ff ff 	movq   $0x0,-0x578(%rbp)
   1a71a:	00 00 00 00 
   1a71e:	48 8d 85 76 e8 ff ff 	lea    -0x178a(%rbp),%rax
   1a725:	48 89 85 90 fa ff ff 	mov    %rax,-0x570(%rbp)
   1a72c:	48 c7 85 98 fa ff ff 	movq   $0x0,-0x568(%rbp)
   1a733:	00 00 00 00 
   1a737:	48 8d 05 36 a1 00 00 	lea    0xa136(%rip),%rax        # 24874 <g_368>
   1a73e:	48 89 85 a0 fa ff ff 	mov    %rax,-0x560(%rbp)
   1a745:	48 c7 85 a8 fa ff ff 	movq   $0x0,-0x558(%rbp)
   1a74c:	00 00 00 00 
   1a750:	48 c7 85 b0 fa ff ff 	movq   $0x0,-0x550(%rbp)
   1a757:	00 00 00 00 
   1a75b:	48 8d 05 12 a1 00 00 	lea    0xa112(%rip),%rax        # 24874 <g_368>
   1a762:	48 89 85 b8 fa ff ff 	mov    %rax,-0x548(%rbp)
   1a769:	48 c7 85 c0 fa ff ff 	movq   $0x0,-0x540(%rbp)
   1a770:	00 00 00 00 
   1a774:	48 8d 05 f9 a0 00 00 	lea    0xa0f9(%rip),%rax        # 24874 <g_368>
   1a77b:	48 89 85 c8 fa ff ff 	mov    %rax,-0x538(%rbp)
   1a782:	48 8d 85 76 e8 ff ff 	lea    -0x178a(%rbp),%rax
   1a789:	48 89 85 d0 fa ff ff 	mov    %rax,-0x530(%rbp)
   1a790:	48 8d 05 dd a0 00 00 	lea    0xa0dd(%rip),%rax        # 24874 <g_368>
   1a797:	48 89 85 d8 fa ff ff 	mov    %rax,-0x528(%rbp)
   1a79e:	48 8d 05 cf a0 00 00 	lea    0xa0cf(%rip),%rax        # 24874 <g_368>
   1a7a5:	48 89 85 e0 fa ff ff 	mov    %rax,-0x520(%rbp)
   1a7ac:	48 c7 85 e8 fa ff ff 	movq   $0x0,-0x518(%rbp)
   1a7b3:	00 00 00 00 
   1a7b7:	48 8d 05 b6 a0 00 00 	lea    0xa0b6(%rip),%rax        # 24874 <g_368>
   1a7be:	48 89 85 f0 fa ff ff 	mov    %rax,-0x510(%rbp)
   1a7c5:	48 8d 05 a8 a0 00 00 	lea    0xa0a8(%rip),%rax        # 24874 <g_368>
   1a7cc:	48 89 85 f8 fa ff ff 	mov    %rax,-0x508(%rbp)
   1a7d3:	48 8d 85 76 e8 ff ff 	lea    -0x178a(%rbp),%rax
   1a7da:	48 89 85 00 fb ff ff 	mov    %rax,-0x500(%rbp)
   1a7e1:	48 8d 05 8c a0 00 00 	lea    0xa08c(%rip),%rax        # 24874 <g_368>
   1a7e8:	48 89 85 08 fb ff ff 	mov    %rax,-0x4f8(%rbp)
   1a7ef:	48 8d 85 76 e8 ff ff 	lea    -0x178a(%rbp),%rax
   1a7f6:	48 89 85 10 fb ff ff 	mov    %rax,-0x4f0(%rbp)
   1a7fd:	48 8d 85 76 e8 ff ff 	lea    -0x178a(%rbp),%rax
   1a804:	48 89 85 18 fb ff ff 	mov    %rax,-0x4e8(%rbp)
   1a80b:	48 c7 85 20 fb ff ff 	movq   $0x0,-0x4e0(%rbp)
   1a812:	00 00 00 00 
   1a816:	48 8d 05 57 a0 00 00 	lea    0xa057(%rip),%rax        # 24874 <g_368>
   1a81d:	48 89 85 28 fb ff ff 	mov    %rax,-0x4d8(%rbp)
   1a824:	48 8d 85 76 e8 ff ff 	lea    -0x178a(%rbp),%rax
   1a82b:	48 89 85 30 fb ff ff 	mov    %rax,-0x4d0(%rbp)
   1a832:	48 8d 05 3b a0 00 00 	lea    0xa03b(%rip),%rax        # 24874 <g_368>
   1a839:	48 89 85 38 fb ff ff 	mov    %rax,-0x4c8(%rbp)
   1a840:	48 8d 85 76 e8 ff ff 	lea    -0x178a(%rbp),%rax
   1a847:	48 89 85 40 fb ff ff 	mov    %rax,-0x4c0(%rbp)
   1a84e:	48 8d 85 76 e8 ff ff 	lea    -0x178a(%rbp),%rax
   1a855:	48 89 85 48 fb ff ff 	mov    %rax,-0x4b8(%rbp)
   1a85c:	48 8d 85 76 e8 ff ff 	lea    -0x178a(%rbp),%rax
   1a863:	48 89 85 50 fb ff ff 	mov    %rax,-0x4b0(%rbp)
   1a86a:	48 c7 85 58 fb ff ff 	movq   $0x0,-0x4a8(%rbp)
   1a871:	00 00 00 00 
   1a875:	48 8d 85 76 e8 ff ff 	lea    -0x178a(%rbp),%rax
   1a87c:	48 89 85 60 fb ff ff 	mov    %rax,-0x4a0(%rbp)
   1a883:	48 8d 85 76 e8 ff ff 	lea    -0x178a(%rbp),%rax
   1a88a:	48 89 85 68 fb ff ff 	mov    %rax,-0x498(%rbp)
   1a891:	48 c7 85 70 fb ff ff 	movq   $0x0,-0x490(%rbp)
   1a898:	00 00 00 00 
   1a89c:	48 8d 85 76 e8 ff ff 	lea    -0x178a(%rbp),%rax
   1a8a3:	48 89 85 78 fb ff ff 	mov    %rax,-0x488(%rbp)
   1a8aa:	48 8d 85 76 e8 ff ff 	lea    -0x178a(%rbp),%rax
   1a8b1:	48 89 85 80 fb ff ff 	mov    %rax,-0x480(%rbp)
   1a8b8:	48 8d 85 76 e8 ff ff 	lea    -0x178a(%rbp),%rax
   1a8bf:	48 89 85 88 fb ff ff 	mov    %rax,-0x478(%rbp)
   1a8c6:	48 8d 05 a7 9f 00 00 	lea    0x9fa7(%rip),%rax        # 24874 <g_368>
   1a8cd:	48 89 85 90 fb ff ff 	mov    %rax,-0x470(%rbp)
   1a8d4:	48 8d 85 76 e8 ff ff 	lea    -0x178a(%rbp),%rax
   1a8db:	48 89 85 98 fb ff ff 	mov    %rax,-0x468(%rbp)
   1a8e2:	48 8d 05 8b 9f 00 00 	lea    0x9f8b(%rip),%rax        # 24874 <g_368>
   1a8e9:	48 89 85 a0 fb ff ff 	mov    %rax,-0x460(%rbp)
   1a8f0:	48 c7 85 a8 fb ff ff 	movq   $0x0,-0x458(%rbp)
   1a8f7:	00 00 00 00 
   1a8fb:	48 8d 05 72 9f 00 00 	lea    0x9f72(%rip),%rax        # 24874 <g_368>
   1a902:	48 89 85 b0 fb ff ff 	mov    %rax,-0x450(%rbp)
   1a909:	48 8d 85 76 e8 ff ff 	lea    -0x178a(%rbp),%rax
   1a910:	48 89 85 b8 fb ff ff 	mov    %rax,-0x448(%rbp)
   1a917:	48 8d 85 76 e8 ff ff 	lea    -0x178a(%rbp),%rax
   1a91e:	48 89 85 c0 fb ff ff 	mov    %rax,-0x440(%rbp)
   1a925:	48 8d 05 48 9f 00 00 	lea    0x9f48(%rip),%rax        # 24874 <g_368>
   1a92c:	48 89 85 c8 fb ff ff 	mov    %rax,-0x438(%rbp)
   1a933:	48 c7 85 d0 fb ff ff 	movq   $0x0,-0x430(%rbp)
   1a93a:	00 00 00 00 
   1a93e:	48 8d 05 2f 9f 00 00 	lea    0x9f2f(%rip),%rax        # 24874 <g_368>
   1a945:	48 89 85 d8 fb ff ff 	mov    %rax,-0x428(%rbp)
   1a94c:	48 8d 85 76 e8 ff ff 	lea    -0x178a(%rbp),%rax
   1a953:	48 89 85 e0 fb ff ff 	mov    %rax,-0x420(%rbp)
   1a95a:	48 c7 85 e8 fb ff ff 	movq   $0x0,-0x418(%rbp)
   1a961:	00 00 00 00 
   1a965:	48 8d 85 76 e8 ff ff 	lea    -0x178a(%rbp),%rax
   1a96c:	48 89 85 f0 fb ff ff 	mov    %rax,-0x410(%rbp)
   1a973:	48 c7 85 f8 fb ff ff 	movq   $0x0,-0x408(%rbp)
   1a97a:	00 00 00 00 
   1a97e:	48 8d 85 76 e8 ff ff 	lea    -0x178a(%rbp),%rax
   1a985:	48 89 85 00 fc ff ff 	mov    %rax,-0x400(%rbp)
   1a98c:	48 c7 85 08 fc ff ff 	movq   $0x0,-0x3f8(%rbp)
   1a993:	00 00 00 00 
   1a997:	48 8d 85 76 e8 ff ff 	lea    -0x178a(%rbp),%rax
   1a99e:	48 89 85 10 fc ff ff 	mov    %rax,-0x3f0(%rbp)
   1a9a5:	48 8d 85 76 e8 ff ff 	lea    -0x178a(%rbp),%rax
   1a9ac:	48 89 85 18 fc ff ff 	mov    %rax,-0x3e8(%rbp)
   1a9b3:	48 c7 85 20 fc ff ff 	movq   $0x0,-0x3e0(%rbp)
   1a9ba:	00 00 00 00 
   1a9be:	48 8d 05 af 9e 00 00 	lea    0x9eaf(%rip),%rax        # 24874 <g_368>
   1a9c5:	48 89 85 28 fc ff ff 	mov    %rax,-0x3d8(%rbp)
   1a9cc:	48 8d 85 76 e8 ff ff 	lea    -0x178a(%rbp),%rax
   1a9d3:	48 89 85 30 fc ff ff 	mov    %rax,-0x3d0(%rbp)
   1a9da:	48 8d 05 93 9e 00 00 	lea    0x9e93(%rip),%rax        # 24874 <g_368>
   1a9e1:	48 89 85 38 fc ff ff 	mov    %rax,-0x3c8(%rbp)
   1a9e8:	48 8d 85 76 e8 ff ff 	lea    -0x178a(%rbp),%rax
   1a9ef:	48 89 85 40 fc ff ff 	mov    %rax,-0x3c0(%rbp)
   1a9f6:	48 8d 05 77 9e 00 00 	lea    0x9e77(%rip),%rax        # 24874 <g_368>
   1a9fd:	48 89 85 48 fc ff ff 	mov    %rax,-0x3b8(%rbp)
   1aa04:	48 8d 05 69 9e 00 00 	lea    0x9e69(%rip),%rax        # 24874 <g_368>
   1aa0b:	48 89 85 50 fc ff ff 	mov    %rax,-0x3b0(%rbp)
   1aa12:	48 8d 85 76 e8 ff ff 	lea    -0x178a(%rbp),%rax
   1aa19:	48 89 85 58 fc ff ff 	mov    %rax,-0x3a8(%rbp)
   1aa20:	48 8d 05 4d 9e 00 00 	lea    0x9e4d(%rip),%rax        # 24874 <g_368>
   1aa27:	48 89 85 60 fc ff ff 	mov    %rax,-0x3a0(%rbp)
   1aa2e:	48 8d 05 3f 9e 00 00 	lea    0x9e3f(%rip),%rax        # 24874 <g_368>
   1aa35:	48 89 85 68 fc ff ff 	mov    %rax,-0x398(%rbp)
   1aa3c:	48 8d 85 76 e8 ff ff 	lea    -0x178a(%rbp),%rax
   1aa43:	48 89 85 70 fc ff ff 	mov    %rax,-0x390(%rbp)
   1aa4a:	48 c7 85 78 fc ff ff 	movq   $0x0,-0x388(%rbp)
   1aa51:	00 00 00 00 
   1aa55:	48 c7 85 80 fc ff ff 	movq   $0x0,-0x380(%rbp)
   1aa5c:	00 00 00 00 
   1aa60:	48 8d 85 76 e8 ff ff 	lea    -0x178a(%rbp),%rax
   1aa67:	48 89 85 88 fc ff ff 	mov    %rax,-0x378(%rbp)
   1aa6e:	48 c7 85 90 fc ff ff 	movq   $0x0,-0x370(%rbp)
   1aa75:	00 00 00 00 
   1aa79:	48 8d 05 f4 9d 00 00 	lea    0x9df4(%rip),%rax        # 24874 <g_368>
   1aa80:	48 89 85 98 fc ff ff 	mov    %rax,-0x368(%rbp)
   1aa87:	48 8d 05 e6 9d 00 00 	lea    0x9de6(%rip),%rax        # 24874 <g_368>
   1aa8e:	48 89 85 a0 fc ff ff 	mov    %rax,-0x360(%rbp)
   1aa95:	48 8d 85 76 e8 ff ff 	lea    -0x178a(%rbp),%rax
   1aa9c:	48 89 85 a8 fc ff ff 	mov    %rax,-0x358(%rbp)
   1aaa3:	48 8d 85 76 e8 ff ff 	lea    -0x178a(%rbp),%rax
   1aaaa:	48 89 85 b0 fc ff ff 	mov    %rax,-0x350(%rbp)
   1aab1:	48 8d 05 bc 9d 00 00 	lea    0x9dbc(%rip),%rax        # 24874 <g_368>
   1aab8:	48 89 85 b8 fc ff ff 	mov    %rax,-0x348(%rbp)
   1aabf:	48 8d 85 76 e8 ff ff 	lea    -0x178a(%rbp),%rax
   1aac6:	48 89 85 c0 fc ff ff 	mov    %rax,-0x340(%rbp)
   1aacd:	48 8d 85 76 e8 ff ff 	lea    -0x178a(%rbp),%rax
   1aad4:	48 89 85 c8 fc ff ff 	mov    %rax,-0x338(%rbp)
   1aadb:	48 c7 85 d0 fc ff ff 	movq   $0x0,-0x330(%rbp)
   1aae2:	00 00 00 00 
   1aae6:	48 c7 85 d8 fc ff ff 	movq   $0x0,-0x328(%rbp)
   1aaed:	00 00 00 00 
   1aaf1:	48 8d 85 76 e8 ff ff 	lea    -0x178a(%rbp),%rax
   1aaf8:	48 89 85 e0 fc ff ff 	mov    %rax,-0x320(%rbp)
   1aaff:	48 8d 05 6e 9d 00 00 	lea    0x9d6e(%rip),%rax        # 24874 <g_368>
   1ab06:	48 89 85 e8 fc ff ff 	mov    %rax,-0x318(%rbp)
   1ab0d:	48 8d 85 76 e8 ff ff 	lea    -0x178a(%rbp),%rax
   1ab14:	48 89 85 f0 fc ff ff 	mov    %rax,-0x310(%rbp)
   1ab1b:	48 8d 85 76 e8 ff ff 	lea    -0x178a(%rbp),%rax
   1ab22:	48 89 85 f8 fc ff ff 	mov    %rax,-0x308(%rbp)
   1ab29:	48 c7 85 00 fd ff ff 	movq   $0x0,-0x300(%rbp)
   1ab30:	00 00 00 00 
   1ab34:	48 8d 05 39 9d 00 00 	lea    0x9d39(%rip),%rax        # 24874 <g_368>
   1ab3b:	48 89 85 08 fd ff ff 	mov    %rax,-0x2f8(%rbp)
   1ab42:	48 8d 05 2b 9d 00 00 	lea    0x9d2b(%rip),%rax        # 24874 <g_368>
   1ab49:	48 89 85 10 fd ff ff 	mov    %rax,-0x2f0(%rbp)
   1ab50:	48 8d 05 1d 9d 00 00 	lea    0x9d1d(%rip),%rax        # 24874 <g_368>
   1ab57:	48 89 85 18 fd ff ff 	mov    %rax,-0x2e8(%rbp)
   1ab5e:	48 8d 85 76 e8 ff ff 	lea    -0x178a(%rbp),%rax
   1ab65:	48 89 85 20 fd ff ff 	mov    %rax,-0x2e0(%rbp)
   1ab6c:	48 8d 05 01 9d 00 00 	lea    0x9d01(%rip),%rax        # 24874 <g_368>
   1ab73:	48 89 85 28 fd ff ff 	mov    %rax,-0x2d8(%rbp)
   1ab7a:	48 c7 85 30 fd ff ff 	movq   $0x0,-0x2d0(%rbp)
   1ab81:	00 00 00 00 
   1ab85:	48 8d 85 76 e8 ff ff 	lea    -0x178a(%rbp),%rax
   1ab8c:	48 89 85 38 fd ff ff 	mov    %rax,-0x2c8(%rbp)
   1ab93:	48 8d 85 76 e8 ff ff 	lea    -0x178a(%rbp),%rax
   1ab9a:	48 89 85 40 fd ff ff 	mov    %rax,-0x2c0(%rbp)
   1aba1:	48 c7 85 48 fd ff ff 	movq   $0x0,-0x2b8(%rbp)
   1aba8:	00 00 00 00 
   1abac:	48 c7 85 50 fd ff ff 	movq   $0x0,-0x2b0(%rbp)
   1abb3:	00 00 00 00 
   1abb7:	48 c7 85 58 fd ff ff 	movq   $0x0,-0x2a8(%rbp)
   1abbe:	00 00 00 00 
   1abc2:	48 8d 05 ab 9c 00 00 	lea    0x9cab(%rip),%rax        # 24874 <g_368>
   1abc9:	48 89 85 60 fd ff ff 	mov    %rax,-0x2a0(%rbp)
   1abd0:	48 c7 85 68 fd ff ff 	movq   $0x0,-0x298(%rbp)
   1abd7:	00 00 00 00 
   1abdb:	48 8d 85 76 e8 ff ff 	lea    -0x178a(%rbp),%rax
   1abe2:	48 89 85 70 fd ff ff 	mov    %rax,-0x290(%rbp)
   1abe9:	48 8d 05 84 9c 00 00 	lea    0x9c84(%rip),%rax        # 24874 <g_368>
   1abf0:	48 89 85 78 fd ff ff 	mov    %rax,-0x288(%rbp)
   1abf7:	48 c7 85 80 fd ff ff 	movq   $0x0,-0x280(%rbp)
   1abfe:	00 00 00 00 
   1ac02:	48 8d 05 6b 9c 00 00 	lea    0x9c6b(%rip),%rax        # 24874 <g_368>
   1ac09:	48 89 85 88 fd ff ff 	mov    %rax,-0x278(%rbp)
   1ac10:	48 8d 85 76 e8 ff ff 	lea    -0x178a(%rbp),%rax
   1ac17:	48 89 85 90 fd ff ff 	mov    %rax,-0x270(%rbp)
   1ac1e:	48 8d 85 76 e8 ff ff 	lea    -0x178a(%rbp),%rax
   1ac25:	48 89 85 98 fd ff ff 	mov    %rax,-0x268(%rbp)
   1ac2c:	48 8d 05 41 9c 00 00 	lea    0x9c41(%rip),%rax        # 24874 <g_368>
   1ac33:	48 89 85 a0 fd ff ff 	mov    %rax,-0x260(%rbp)
   1ac3a:	48 c7 85 a8 fd ff ff 	movq   $0x0,-0x258(%rbp)
   1ac41:	00 00 00 00 
   1ac45:	48 8d 05 28 9c 00 00 	lea    0x9c28(%rip),%rax        # 24874 <g_368>
   1ac4c:	48 89 85 b0 fd ff ff 	mov    %rax,-0x250(%rbp)
   1ac53:	48 8d 05 1a 9c 00 00 	lea    0x9c1a(%rip),%rax        # 24874 <g_368>
   1ac5a:	48 89 85 b8 fd ff ff 	mov    %rax,-0x248(%rbp)
   1ac61:	48 8d 05 0c 9c 00 00 	lea    0x9c0c(%rip),%rax        # 24874 <g_368>
   1ac68:	48 89 85 c0 fd ff ff 	mov    %rax,-0x240(%rbp)
   1ac6f:	48 8d 85 76 e8 ff ff 	lea    -0x178a(%rbp),%rax
   1ac76:	48 89 85 c8 fd ff ff 	mov    %rax,-0x238(%rbp)
   1ac7d:	48 c7 85 d0 fd ff ff 	movq   $0x0,-0x230(%rbp)
   1ac84:	00 00 00 00 
   1ac88:	48 8d 05 e5 9b 00 00 	lea    0x9be5(%rip),%rax        # 24874 <g_368>
   1ac8f:	48 89 85 d8 fd ff ff 	mov    %rax,-0x228(%rbp)
   1ac96:	48 8d 05 d7 9b 00 00 	lea    0x9bd7(%rip),%rax        # 24874 <g_368>
   1ac9d:	48 89 85 e0 fd ff ff 	mov    %rax,-0x220(%rbp)
   1aca4:	48 8d 05 c9 9b 00 00 	lea    0x9bc9(%rip),%rax        # 24874 <g_368>
   1acab:	48 89 85 e8 fd ff ff 	mov    %rax,-0x218(%rbp)
   1acb2:	48 8d 85 76 e8 ff ff 	lea    -0x178a(%rbp),%rax
   1acb9:	48 89 85 f0 fd ff ff 	mov    %rax,-0x210(%rbp)
   1acc0:	48 c7 85 f8 fd ff ff 	movq   $0x0,-0x208(%rbp)
   1acc7:	00 00 00 00 
   1accb:	48 8d 85 76 e8 ff ff 	lea    -0x178a(%rbp),%rax
   1acd2:	48 89 85 00 fe ff ff 	mov    %rax,-0x200(%rbp)
   1acd9:	48 c7 85 08 fe ff ff 	movq   $0x0,-0x1f8(%rbp)
   1ace0:	00 00 00 00 
   1ace4:	48 8d 05 89 9b 00 00 	lea    0x9b89(%rip),%rax        # 24874 <g_368>
   1aceb:	48 89 85 10 fe ff ff 	mov    %rax,-0x1f0(%rbp)
   1acf2:	48 c7 85 18 fe ff ff 	movq   $0x0,-0x1e8(%rbp)
   1acf9:	00 00 00 00 
   1acfd:	48 8d 85 76 e8 ff ff 	lea    -0x178a(%rbp),%rax
   1ad04:	48 89 85 20 fe ff ff 	mov    %rax,-0x1e0(%rbp)
   1ad0b:	48 c7 85 28 fe ff ff 	movq   $0x0,-0x1d8(%rbp)
   1ad12:	00 00 00 00 
   1ad16:	48 8d 05 57 9b 00 00 	lea    0x9b57(%rip),%rax        # 24874 <g_368>
   1ad1d:	48 89 85 30 fe ff ff 	mov    %rax,-0x1d0(%rbp)
   1ad24:	48 8d 05 49 9b 00 00 	lea    0x9b49(%rip),%rax        # 24874 <g_368>
   1ad2b:	48 89 85 38 fe ff ff 	mov    %rax,-0x1c8(%rbp)
   1ad32:	48 c7 85 40 fe ff ff 	movq   $0x0,-0x1c0(%rbp)
   1ad39:	00 00 00 00 
   1ad3d:	48 8d 05 30 9b 00 00 	lea    0x9b30(%rip),%rax        # 24874 <g_368>
   1ad44:	48 89 85 48 fe ff ff 	mov    %rax,-0x1b8(%rbp)
   1ad4b:	48 c7 85 50 fe ff ff 	movq   $0x0,-0x1b0(%rbp)
   1ad52:	00 00 00 00 
   1ad56:	48 c7 85 58 fe ff ff 	movq   $0x0,-0x1a8(%rbp)
   1ad5d:	00 00 00 00 
   1ad61:	48 c7 85 60 fe ff ff 	movq   $0x0,-0x1a0(%rbp)
   1ad68:	00 00 00 00 
   1ad6c:	48 c7 85 68 fe ff ff 	movq   $0x0,-0x198(%rbp)
   1ad73:	00 00 00 00 
   1ad77:	48 c7 85 70 fe ff ff 	movq   $0x0,-0x190(%rbp)
   1ad7e:	00 00 00 00 
   1ad82:	48 8d 85 76 e8 ff ff 	lea    -0x178a(%rbp),%rax
   1ad89:	48 89 85 78 fe ff ff 	mov    %rax,-0x188(%rbp)
   1ad90:	48 8d 85 76 e8 ff ff 	lea    -0x178a(%rbp),%rax
   1ad97:	48 89 85 80 fe ff ff 	mov    %rax,-0x180(%rbp)
   1ad9e:	48 c7 85 88 fe ff ff 	movq   $0x0,-0x178(%rbp)
   1ada5:	00 00 00 00 
   1ada9:	48 8d 05 c4 9a 00 00 	lea    0x9ac4(%rip),%rax        # 24874 <g_368>
   1adb0:	48 89 85 90 fe ff ff 	mov    %rax,-0x170(%rbp)
   1adb7:	48 8d 05 b6 9a 00 00 	lea    0x9ab6(%rip),%rax        # 24874 <g_368>
   1adbe:	48 89 85 98 fe ff ff 	mov    %rax,-0x168(%rbp)
   1adc5:	48 8d 85 76 e8 ff ff 	lea    -0x178a(%rbp),%rax
   1adcc:	48 89 85 a0 fe ff ff 	mov    %rax,-0x160(%rbp)
   1add3:	48 8d 85 76 e8 ff ff 	lea    -0x178a(%rbp),%rax
   1adda:	48 89 85 a8 fe ff ff 	mov    %rax,-0x158(%rbp)
   1ade1:	48 8d 85 76 e8 ff ff 	lea    -0x178a(%rbp),%rax
   1ade8:	48 89 85 b0 fe ff ff 	mov    %rax,-0x150(%rbp)
   1adef:	48 8d 05 7e 9a 00 00 	lea    0x9a7e(%rip),%rax        # 24874 <g_368>
   1adf6:	48 89 85 b8 fe ff ff 	mov    %rax,-0x148(%rbp)
   1adfd:	48 8d 85 76 e8 ff ff 	lea    -0x178a(%rbp),%rax
   1ae04:	48 89 85 c0 fe ff ff 	mov    %rax,-0x140(%rbp)
   1ae0b:	48 8d 85 76 e8 ff ff 	lea    -0x178a(%rbp),%rax
   1ae12:	48 89 85 c8 fe ff ff 	mov    %rax,-0x138(%rbp)
   1ae19:	48 8d 85 76 e8 ff ff 	lea    -0x178a(%rbp),%rax
   1ae20:	48 89 85 d0 fe ff ff 	mov    %rax,-0x130(%rbp)
   1ae27:	48 8d 05 46 9a 00 00 	lea    0x9a46(%rip),%rax        # 24874 <g_368>
   1ae2e:	48 89 85 d8 fe ff ff 	mov    %rax,-0x128(%rbp)
   1ae35:	48 8d 85 76 e8 ff ff 	lea    -0x178a(%rbp),%rax
   1ae3c:	48 89 85 e0 fe ff ff 	mov    %rax,-0x120(%rbp)
   1ae43:	48 c7 85 e8 fe ff ff 	movq   $0x0,-0x118(%rbp)
   1ae4a:	00 00 00 00 
   1ae4e:	48 c7 85 f0 fe ff ff 	movq   $0x0,-0x110(%rbp)
   1ae55:	00 00 00 00 
   1ae59:	48 8d 85 76 e8 ff ff 	lea    -0x178a(%rbp),%rax
   1ae60:	48 89 85 f8 fe ff ff 	mov    %rax,-0x108(%rbp)
   1ae67:	48 c7 85 00 ff ff ff 	movq   $0x0,-0x100(%rbp)
   1ae6e:	00 00 00 00 
   1ae72:	48 c7 85 08 ff ff ff 	movq   $0x0,-0xf8(%rbp)
   1ae79:	00 00 00 00 
   1ae7d:	48 c7 85 10 ff ff ff 	movq   $0x0,-0xf0(%rbp)
   1ae84:	00 00 00 00 
   1ae88:	48 c7 85 18 ff ff ff 	movq   $0x0,-0xe8(%rbp)
   1ae8f:	00 00 00 00 
   1ae93:	48 8d 05 da 99 00 00 	lea    0x99da(%rip),%rax        # 24874 <g_368>
   1ae9a:	48 89 85 20 ff ff ff 	mov    %rax,-0xe0(%rbp)
   1aea1:	48 8d 05 cc 99 00 00 	lea    0x99cc(%rip),%rax        # 24874 <g_368>
   1aea8:	48 89 85 28 ff ff ff 	mov    %rax,-0xd8(%rbp)
   1aeaf:	48 8d 05 be 99 00 00 	lea    0x99be(%rip),%rax        # 24874 <g_368>
   1aeb6:	48 89 85 30 ff ff ff 	mov    %rax,-0xd0(%rbp)
   1aebd:	48 8d 05 b0 99 00 00 	lea    0x99b0(%rip),%rax        # 24874 <g_368>
   1aec4:	48 89 85 38 ff ff ff 	mov    %rax,-0xc8(%rbp)
   1aecb:	48 8d 85 76 e8 ff ff 	lea    -0x178a(%rbp),%rax
   1aed2:	48 89 85 40 ff ff ff 	mov    %rax,-0xc0(%rbp)
   1aed9:	48 c7 85 48 ff ff ff 	movq   $0x0,-0xb8(%rbp)
   1aee0:	00 00 00 00 
   1aee4:	48 8d 85 76 e8 ff ff 	lea    -0x178a(%rbp),%rax
   1aeeb:	48 89 85 50 ff ff ff 	mov    %rax,-0xb0(%rbp)
   1aef2:	48 c7 85 58 ff ff ff 	movq   $0x0,-0xa8(%rbp)
   1aef9:	00 00 00 00 
   1aefd:	48 8d 85 76 e8 ff ff 	lea    -0x178a(%rbp),%rax
   1af04:	48 89 85 60 ff ff ff 	mov    %rax,-0xa0(%rbp)
   1af0b:	48 c7 85 68 ff ff ff 	movq   $0x0,-0x98(%rbp)
   1af12:	00 00 00 00 
   1af16:	48 8d 85 76 e8 ff ff 	lea    -0x178a(%rbp),%rax
   1af1d:	48 89 85 70 ff ff ff 	mov    %rax,-0x90(%rbp)
   1af24:	48 c7 85 78 ff ff ff 	movq   $0x0,-0x88(%rbp)
   1af2b:	00 00 00 00 
   1af2f:	48 8d 85 76 e8 ff ff 	lea    -0x178a(%rbp),%rax
   1af36:	48 89 45 80          	mov    %rax,-0x80(%rbp)
   1af3a:	48 8d 05 33 99 00 00 	lea    0x9933(%rip),%rax        # 24874 <g_368>
   1af41:	48 89 45 88          	mov    %rax,-0x78(%rbp)
   1af45:	48 8d 85 76 e8 ff ff 	lea    -0x178a(%rbp),%rax
   1af4c:	48 89 45 90          	mov    %rax,-0x70(%rbp)
   1af50:	48 8d 05 1d 99 00 00 	lea    0x991d(%rip),%rax        # 24874 <g_368>
   1af57:	48 89 45 98          	mov    %rax,-0x68(%rbp)
   1af5b:	48 8d 85 76 e8 ff ff 	lea    -0x178a(%rbp),%rax
   1af62:	48 89 45 a0          	mov    %rax,-0x60(%rbp)
   1af66:	48 8d 85 76 e8 ff ff 	lea    -0x178a(%rbp),%rax
   1af6d:	48 89 45 a8          	mov    %rax,-0x58(%rbp)
   1af71:	48 c7 45 b0 00 00 00 	movq   $0x0,-0x50(%rbp)
   1af78:	00 
   1af79:	48 8d 05 f4 98 00 00 	lea    0x98f4(%rip),%rax        # 24874 <g_368>
   1af80:	48 89 45 b8          	mov    %rax,-0x48(%rbp)
   1af84:	66 c7 85 80 e8 ff ff 	movw   $0x1,-0x1780(%rbp)
   1af8b:	01 00 
   1af8d:	48 8d 85 50 f0 ff ff 	lea    -0xfb0(%rbp),%rax
   1af94:	48 8d 15 05 55 00 00 	lea    0x5505(%rip),%rdx        # 204a0 <g_5653+0x33ff>
   1af9b:	b9 3c 00 00 00       	mov    $0x3c,%ecx
   1afa0:	48 89 c7             	mov    %rax,%rdi
   1afa3:	48 89 d6             	mov    %rdx,%rsi
   1afa6:	f3 48 a5             	rep movsq %ds:(%rsi),%es:(%rdi)
   1afa9:	48 8d 05 89 90 00 00 	lea    0x9089(%rip),%rax        # 24039 <g_69+0x9>
   1afb0:	48 89 85 10 ea ff ff 	mov    %rax,-0x15f0(%rbp)
   1afb7:	48 8d 85 8c e8 ff ff 	lea    -0x1774(%rbp),%rax
   1afbe:	48 89 85 18 ea ff ff 	mov    %rax,-0x15e8(%rbp)
   1afc5:	c7 85 ac e8 ff ff 00 	movl   $0x0,-0x1754(%rbp)
   1afcc:	00 00 00 
   1afcf:	eb 14                	jmp    1afe5 <func_36+0x3ac2>
   1afd1:	8b 85 ac e8 ff ff    	mov    -0x1754(%rbp),%eax
   1afd7:	48 98                	cltq   
   1afd9:	c6 44 05 c6 01       	movb   $0x1,-0x3a(%rbp,%rax,1)
   1afde:	83 85 ac e8 ff ff 01 	addl   $0x1,-0x1754(%rbp)
   1afe5:	83 bd ac e8 ff ff 01 	cmpl   $0x1,-0x1754(%rbp)
   1afec:	7e e3                	jle    1afd1 <func_36+0x3aae>
   1afee:	8b 05 78 98 00 00    	mov    0x9878(%rip),%eax        # 2486c <g_321>
   1aff4:	89 c0                	mov    %eax,%eax
   1aff6:	be 02 00 00 00       	mov    $0x2,%esi
   1affb:	48 89 c7             	mov    %rax,%rdi
   1affe:	e8 2b e0 fe ff       	callq  902e <safe_add_func_uint64_t_u_u>
   1b003:	89 05 63 98 00 00    	mov    %eax,0x9863(%rip)        # 2486c <g_321>
   1b009:	8b 05 5d 98 00 00    	mov    0x985d(%rip),%eax        # 2486c <g_321>
   1b00f:	83 f8 3a             	cmp    $0x3a,%eax
   1b012:	0f 86 0d f4 ff ff    	jbe    1a425 <func_36+0x2f02>
   1b018:	0f b6 05 71 98 00 00 	movzbl 0x9871(%rip),%eax        # 24890 <g_590>
   1b01f:	83 c0 01             	add    $0x1,%eax
   1b022:	88 05 68 98 00 00    	mov    %al,0x9868(%rip)        # 24890 <g_590>
   1b028:	0f b6 05 61 98 00 00 	movzbl 0x9861(%rip),%eax        # 24890 <g_590>
   1b02f:	3c 0d                	cmp    $0xd,%al
   1b031:	0f 87 af f3 ff ff    	ja     1a3e6 <func_36+0x2ec3>
   1b037:	c7 05 2f 98 00 00 01 	movl   $0x1,0x982f(%rip)        # 24870 <g_355>
   1b03e:	00 00 00 
   1b041:	90                   	nop
   1b042:	8b 05 28 98 00 00    	mov    0x9828(%rip),%eax        # 24870 <g_355>
   1b048:	83 f8 fd             	cmp    $0xfffffffd,%eax
   1b04b:	74 0c                	je     1b059 <func_36+0x3b36>
   1b04d:	48 8b 85 f8 e9 ff ff 	mov    -0x1608(%rbp),%rax
   1b054:	e9 c0 00 00 00       	jmpq   1b119 <func_36+0x3bf6>
   1b059:	48 8b 85 e0 e9 ff ff 	mov    -0x1620(%rbp),%rax
   1b060:	48 89 85 00 ea ff ff 	mov    %rax,-0x1600(%rbp)
   1b067:	48 8b 85 60 e8 ff ff 	mov    -0x17a0(%rbp),%rax
   1b06e:	8b 10                	mov    (%rax),%edx
   1b070:	48 8b 85 28 e9 ff ff 	mov    -0x16d8(%rbp),%rax
   1b077:	f7 d2                	not    %edx
   1b079:	89 10                	mov    %edx,(%rax)
   1b07b:	8b 05 a3 8f 00 00    	mov    0x8fa3(%rip),%eax        # 24024 <g_9>
   1b081:	85 c0                	test   %eax,%eax
   1b083:	75 33                	jne    1b0b8 <func_36+0x3b95>
   1b085:	48 8b 05 9c c0 00 00 	mov    0xc09c(%rip),%rax        # 27128 <g_689>
   1b08c:	48 8b 00             	mov    (%rax),%rax
   1b08f:	48 8b 00             	mov    (%rax),%rax
   1b092:	48 85 c0             	test   %rax,%rax
   1b095:	74 22                	je     1b0b9 <func_36+0x3b96>
   1b097:	8b 85 6c e8 ff ff    	mov    -0x1794(%rbp),%eax
   1b09d:	48 98                	cltq   
   1b09f:	48 89 c6             	mov    %rax,%rsi
   1b0a2:	bf 01 00 00 00       	mov    $0x1,%edi
   1b0a7:	e8 95 d7 fe ff       	callq  8841 <safe_add_func_int64_t_s_s>
   1b0ac:	48 85 c0             	test   %rax,%rax
   1b0af:	74 07                	je     1b0b8 <func_36+0x3b95>
   1b0b1:	83 bd 6c e8 ff ff 00 	cmpl   $0x0,-0x1794(%rbp)
   1b0b8:	90                   	nop
   1b0b9:	8b 85 6c e8 ff ff    	mov    -0x1794(%rbp),%eax
   1b0bf:	0f be c0             	movsbl %al,%eax
   1b0c2:	be 01 00 00 00       	mov    $0x1,%esi
   1b0c7:	89 c7                	mov    %eax,%edi
   1b0c9:	e8 d3 d1 fe ff       	callq  82a1 <safe_lshift_func_int8_t_s_s>
   1b0ce:	0f be c0             	movsbl %al,%eax
   1b0d1:	be f7 ff ff ff       	mov    $0xfffffff7,%esi
   1b0d6:	89 c7                	mov    %eax,%edi
   1b0d8:	e8 18 d3 fe ff       	callq  83f5 <safe_mul_func_int16_t_s_s>
   1b0dd:	48 0f bf c0          	movswq %ax,%rax
   1b0e1:	48 89 c6             	mov    %rax,%rsi
   1b0e4:	bf 01 00 00 00       	mov    $0x1,%edi
   1b0e9:	e8 ba d7 fe ff       	callq  88a8 <safe_sub_func_int64_t_s_s>
   1b0ee:	48 8b 05 93 bc 00 00 	mov    0xbc93(%rip),%rax        # 26d88 <g_146>
   1b0f5:	8b 00                	mov    (%rax),%eax
   1b0f7:	0d 31 ac 1a 1f       	or     $0x1f1aac31,%eax
   1b0fc:	89 c1                	mov    %eax,%ecx
   1b0fe:	48 8b 85 28 e9 ff ff 	mov    -0x16d8(%rbp),%rax
   1b105:	8b 10                	mov    (%rax),%edx
   1b107:	48 8b 85 28 e9 ff ff 	mov    -0x16d8(%rbp),%rax
   1b10e:	09 ca                	or     %ecx,%edx
   1b110:	89 10                	mov    %edx,(%rax)
   1b112:	48 8b 85 60 e8 ff ff 	mov    -0x17a0(%rbp),%rax
   1b119:	48 8b 5d c8          	mov    -0x38(%rbp),%rbx
   1b11d:	64 48 33 1c 25 28 00 	xor    %fs:0x28,%rbx
   1b124:	00 00 
   1b126:	74 05                	je     1b12d <func_36+0x3c0a>
   1b128:	e8 43 cf fe ff       	callq  8070 <__stack_chk_fail@plt>
   1b12d:	48 81 c4 98 17 00 00 	add    $0x1798,%rsp
   1b134:	5b                   	pop    %rbx
   1b135:	41 5c                	pop    %r12
   1b137:	41 5d                	pop    %r13
   1b139:	41 5e                	pop    %r14
   1b13b:	41 5f                	pop    %r15
   1b13d:	5d                   	pop    %rbp
   1b13e:	c3                   	retq   

000000000001b13f <func_42>:
   1b13f:	f3 0f 1e fa          	endbr64 
   1b143:	55                   	push   %rbp
   1b144:	48 89 e5             	mov    %rsp,%rbp
   1b147:	41 54                	push   %r12
   1b149:	53                   	push   %rbx
   1b14a:	48 81 ec c0 01 00 00 	sub    $0x1c0,%rsp
   1b151:	89 f8                	mov    %edi,%eax
   1b153:	89 b5 38 fe ff ff    	mov    %esi,-0x1c8(%rbp)
   1b159:	48 89 95 30 fe ff ff 	mov    %rdx,-0x1d0(%rbp)
   1b160:	88 85 3c fe ff ff    	mov    %al,-0x1c4(%rbp)
   1b166:	64 48 8b 04 25 28 00 	mov    %fs:0x28,%rax
   1b16d:	00 00 
   1b16f:	48 89 45 e8          	mov    %rax,-0x18(%rbp)
   1b173:	31 c0                	xor    %eax,%eax
   1b175:	c6 85 45 fe ff ff 00 	movb   $0x0,-0x1bb(%rbp)
   1b17c:	48 c7 85 70 fe ff ff 	movq   $0x0,-0x190(%rbp)
   1b183:	00 00 00 00 
   1b187:	48 8d 05 9a 8e 00 00 	lea    0x8e9a(%rip),%rax        # 24028 <g_62>
   1b18e:	48 89 85 78 fe ff ff 	mov    %rax,-0x188(%rbp)
   1b195:	48 8d 05 90 8e 00 00 	lea    0x8e90(%rip),%rax        # 2402c <g_67>
   1b19c:	48 89 85 80 fe ff ff 	mov    %rax,-0x180(%rbp)
   1b1a3:	48 8d 05 98 8e 00 00 	lea    0x8e98(%rip),%rax        # 24042 <g_69+0x12>
   1b1aa:	48 89 85 88 fe ff ff 	mov    %rax,-0x178(%rbp)
   1b1b1:	c6 85 46 fe ff ff 0f 	movb   $0xf,-0x1ba(%rbp)
   1b1b8:	48 c7 85 90 fe ff ff 	movq   $0x0,-0x170(%rbp)
   1b1bf:	00 00 00 00 
   1b1c3:	c7 85 54 fe ff ff ff 	movl   $0xffffffff,-0x1ac(%rbp)
   1b1ca:	ff ff ff 
   1b1cd:	48 c7 85 98 fe ff ff 	movq   $0x0,-0x168(%rbp)
   1b1d4:	00 00 00 00 
   1b1d8:	48 8d 05 69 8e 00 00 	lea    0x8e69(%rip),%rax        # 24048 <g_85>
   1b1df:	48 89 85 a0 fe ff ff 	mov    %rax,-0x160(%rbp)
   1b1e6:	48 c7 85 a8 fe ff ff 	movq   $0xfffffffffffffffc,-0x158(%rbp)
   1b1ed:	fc ff ff ff 
   1b1f1:	c7 85 58 fe ff ff d5 	movl   $0x12b152d5,-0x1a8(%rbp)
   1b1f8:	52 b1 12 
   1b1fb:	c7 85 5c fe ff ff 01 	movl   $0x1,-0x1a4(%rbp)
   1b202:	00 00 00 
   1b205:	c7 85 60 fe ff ff c9 	movl   $0x35d840c9,-0x1a0(%rbp)
   1b20c:	40 d8 35 
   1b20f:	c7 85 c0 fe ff ff 7e 	movl   $0x9fc4a87e,-0x140(%rbp)
   1b216:	a8 c4 9f 
   1b219:	c7 85 c4 fe ff ff a7 	movl   $0x343a15a7,-0x13c(%rbp)
   1b220:	15 3a 34 
   1b223:	c7 85 c8 fe ff ff 59 	movl   $0xe5c35859,-0x138(%rbp)
   1b22a:	58 c3 e5 
   1b22d:	c7 85 cc fe ff ff 59 	movl   $0xe5c35859,-0x134(%rbp)
   1b234:	58 c3 e5 
   1b237:	c7 85 d0 fe ff ff 7e 	movl   $0x9fc4a87e,-0x130(%rbp)
   1b23e:	a8 c4 9f 
   1b241:	c7 85 d4 fe ff ff 59 	movl   $0xe5c35859,-0x12c(%rbp)
   1b248:	58 c3 e5 
   1b24b:	c7 85 d8 fe ff ff 59 	movl   $0xe5c35859,-0x128(%rbp)
   1b252:	58 c3 e5 
   1b255:	c7 85 64 fe ff ff ff 	movl   $0xffffffff,-0x19c(%rbp)
   1b25c:	ff ff ff 
   1b25f:	c6 85 47 fe ff ff 96 	movb   $0x96,-0x1b9(%rbp)
   1b266:	48 c7 85 68 fe ff ff 	movq   $0x0,-0x198(%rbp)
   1b26d:	00 00 00 00 
   1b271:	48 8d 85 68 fe ff ff 	lea    -0x198(%rbp),%rax
   1b278:	48 89 85 10 ff ff ff 	mov    %rax,-0xf0(%rbp)
   1b27f:	48 8d 85 68 fe ff ff 	lea    -0x198(%rbp),%rax
   1b286:	48 89 85 18 ff ff ff 	mov    %rax,-0xe8(%rbp)
   1b28d:	48 8d 85 68 fe ff ff 	lea    -0x198(%rbp),%rax
   1b294:	48 89 85 20 ff ff ff 	mov    %rax,-0xe0(%rbp)
   1b29b:	48 8d 85 68 fe ff ff 	lea    -0x198(%rbp),%rax
   1b2a2:	48 89 85 28 ff ff ff 	mov    %rax,-0xd8(%rbp)
   1b2a9:	48 8d 85 68 fe ff ff 	lea    -0x198(%rbp),%rax
   1b2b0:	48 89 85 30 ff ff ff 	mov    %rax,-0xd0(%rbp)
   1b2b7:	48 8d 85 68 fe ff ff 	lea    -0x198(%rbp),%rax
   1b2be:	48 89 85 38 ff ff ff 	mov    %rax,-0xc8(%rbp)
   1b2c5:	48 8d 85 10 ff ff ff 	lea    -0xf0(%rbp),%rax
   1b2cc:	48 83 c0 08          	add    $0x8,%rax
   1b2d0:	48 89 85 b0 fe ff ff 	mov    %rax,-0x150(%rbp)
   1b2d7:	48 c7 85 b8 fe ff ff 	movq   $0x0,-0x148(%rbp)
   1b2de:	00 00 00 00 
   1b2e2:	66 c7 45 90 82 09    	movw   $0x982,-0x70(%rbp)
   1b2e8:	66 c7 45 92 82 09    	movw   $0x982,-0x6e(%rbp)
   1b2ee:	66 c7 45 94 82 09    	movw   $0x982,-0x6c(%rbp)
   1b2f4:	66 c7 45 96 82 09    	movw   $0x982,-0x6a(%rbp)
   1b2fa:	66 c7 45 98 82 09    	movw   $0x982,-0x68(%rbp)
   1b300:	66 c7 45 9a 82 09    	movw   $0x982,-0x66(%rbp)
   1b306:	66 c7 45 9c 82 09    	movw   $0x982,-0x64(%rbp)
   1b30c:	66 c7 45 9e 82 09    	movw   $0x982,-0x62(%rbp)
   1b312:	66 c7 45 a0 82 09    	movw   $0x982,-0x60(%rbp)
   1b318:	66 c7 45 a2 82 09    	movw   $0x982,-0x5e(%rbp)
   1b31e:	66 c7 45 a4 82 09    	movw   $0x982,-0x5c(%rbp)
   1b324:	66 c7 45 a6 82 09    	movw   $0x982,-0x5a(%rbp)
   1b32a:	66 c7 45 a8 82 09    	movw   $0x982,-0x58(%rbp)
   1b330:	66 c7 45 aa 82 09    	movw   $0x982,-0x56(%rbp)
   1b336:	66 c7 45 ac 82 09    	movw   $0x982,-0x54(%rbp)
   1b33c:	66 c7 45 ae 82 09    	movw   $0x982,-0x52(%rbp)
   1b342:	66 c7 45 b0 82 09    	movw   $0x982,-0x50(%rbp)
   1b348:	66 c7 45 b2 82 09    	movw   $0x982,-0x4e(%rbp)
   1b34e:	66 c7 45 b4 82 09    	movw   $0x982,-0x4c(%rbp)
   1b354:	66 c7 45 b6 82 09    	movw   $0x982,-0x4a(%rbp)
   1b35a:	66 c7 45 b8 82 09    	movw   $0x982,-0x48(%rbp)
   1b360:	66 c7 45 ba 82 09    	movw   $0x982,-0x46(%rbp)
   1b366:	66 c7 45 bc 82 09    	movw   $0x982,-0x44(%rbp)
   1b36c:	66 c7 45 be 82 09    	movw   $0x982,-0x42(%rbp)
   1b372:	66 c7 45 c0 82 09    	movw   $0x982,-0x40(%rbp)
   1b378:	66 c7 45 c2 82 09    	movw   $0x982,-0x3e(%rbp)
   1b37e:	66 c7 45 c4 82 09    	movw   $0x982,-0x3c(%rbp)
   1b384:	66 c7 45 c6 82 09    	movw   $0x982,-0x3a(%rbp)
   1b38a:	66 c7 45 c8 82 09    	movw   $0x982,-0x38(%rbp)
   1b390:	66 c7 45 ca 82 09    	movw   $0x982,-0x36(%rbp)
   1b396:	66 c7 45 cc 82 09    	movw   $0x982,-0x34(%rbp)
   1b39c:	66 c7 45 ce 82 09    	movw   $0x982,-0x32(%rbp)
   1b3a2:	66 c7 45 d0 82 09    	movw   $0x982,-0x30(%rbp)
   1b3a8:	66 c7 45 d2 82 09    	movw   $0x982,-0x2e(%rbp)
   1b3ae:	66 c7 45 d4 82 09    	movw   $0x982,-0x2c(%rbp)
   1b3b4:	66 c7 45 d6 82 09    	movw   $0x982,-0x2a(%rbp)
   1b3ba:	66 c7 45 d8 82 09    	movw   $0x982,-0x28(%rbp)
   1b3c0:	66 c7 45 da 82 09    	movw   $0x982,-0x26(%rbp)
   1b3c6:	66 c7 45 dc 82 09    	movw   $0x982,-0x24(%rbp)
   1b3cc:	66 c7 45 de 82 09    	movw   $0x982,-0x22(%rbp)
   1b3d2:	c7 85 48 fe ff ff 00 	movl   $0x0,-0x1b8(%rbp)
   1b3d9:	00 00 00 
   1b3dc:	eb 79                	jmp    1b457 <func_42+0x318>
   1b3de:	c7 85 4c fe ff ff 00 	movl   $0x0,-0x1b4(%rbp)
   1b3e5:	00 00 00 
   1b3e8:	eb 5d                	jmp    1b447 <func_42+0x308>
   1b3ea:	c7 85 50 fe ff ff 00 	movl   $0x0,-0x1b0(%rbp)
   1b3f1:	00 00 00 
   1b3f4:	eb 41                	jmp    1b437 <func_42+0x2f8>
   1b3f6:	8b 85 50 fe ff ff    	mov    -0x1b0(%rbp),%eax
   1b3fc:	48 63 c8             	movslq %eax,%rcx
   1b3ff:	8b 85 48 fe ff ff    	mov    -0x1b8(%rbp),%eax
   1b405:	48 63 d0             	movslq %eax,%rdx
   1b408:	8b 85 4c fe ff ff    	mov    -0x1b4(%rbp),%eax
   1b40e:	48 98                	cltq   
   1b410:	48 01 c2             	add    %rax,%rdx
   1b413:	48 89 d0             	mov    %rdx,%rax
   1b416:	48 c1 e0 02          	shl    $0x2,%rax
   1b41a:	48 01 d0             	add    %rdx,%rax
   1b41d:	48 8d 5d f0          	lea    -0x10(%rbp),%rbx
   1b421:	48 01 d8             	add    %rbx,%rax
   1b424:	48 01 c8             	add    %rcx,%rax
   1b427:	48 2d 10 01 00 00    	sub    $0x110,%rax
   1b42d:	c6 00 42             	movb   $0x42,(%rax)
   1b430:	83 85 50 fe ff ff 01 	addl   $0x1,-0x1b0(%rbp)
   1b437:	83 bd 50 fe ff ff 04 	cmpl   $0x4,-0x1b0(%rbp)
   1b43e:	7e b6                	jle    1b3f6 <func_42+0x2b7>
   1b440:	83 85 4c fe ff ff 01 	addl   $0x1,-0x1b4(%rbp)
   1b447:	83 bd 4c fe ff ff 00 	cmpl   $0x0,-0x1b4(%rbp)
   1b44e:	7e 9a                	jle    1b3ea <func_42+0x2ab>
   1b450:	83 85 48 fe ff ff 01 	addl   $0x1,-0x1b8(%rbp)
   1b457:	83 bd 48 fe ff ff 06 	cmpl   $0x6,-0x1b8(%rbp)
   1b45e:	0f 8e 7a ff ff ff    	jle    1b3de <func_42+0x29f>
   1b464:	c7 85 48 fe ff ff 00 	movl   $0x0,-0x1b8(%rbp)
   1b46b:	00 00 00 
   1b46e:	eb 78                	jmp    1b4e8 <func_42+0x3a9>
   1b470:	c7 85 4c fe ff ff 00 	movl   $0x0,-0x1b4(%rbp)
   1b477:	00 00 00 
   1b47a:	eb 5c                	jmp    1b4d8 <func_42+0x399>
   1b47c:	c7 85 50 fe ff ff 00 	movl   $0x0,-0x1b0(%rbp)
   1b483:	00 00 00 
   1b486:	eb 40                	jmp    1b4c8 <func_42+0x389>
   1b488:	8b 85 50 fe ff ff    	mov    -0x1b0(%rbp),%eax
   1b48e:	48 63 c8             	movslq %eax,%rcx
   1b491:	8b 85 48 fe ff ff    	mov    -0x1b8(%rbp),%eax
   1b497:	48 63 d0             	movslq %eax,%rdx
   1b49a:	8b 85 4c fe ff ff    	mov    -0x1b4(%rbp),%eax
   1b4a0:	48 63 f0             	movslq %eax,%rsi
   1b4a3:	48 89 d0             	mov    %rdx,%rax
   1b4a6:	48 c1 e0 02          	shl    $0x2,%rax
   1b4aa:	48 01 d0             	add    %rdx,%rax
   1b4ad:	48 01 f0             	add    %rsi,%rax
   1b4b0:	48 c1 e0 03          	shl    $0x3,%rax
   1b4b4:	48 01 c8             	add    %rcx,%rax
   1b4b7:	66 c7 84 45 40 ff ff 	movw   $0x749,-0xc0(%rbp,%rax,2)
   1b4be:	ff 49 07 
   1b4c1:	83 85 50 fe ff ff 01 	addl   $0x1,-0x1b0(%rbp)
   1b4c8:	83 bd 50 fe ff ff 07 	cmpl   $0x7,-0x1b0(%rbp)
   1b4cf:	7e b7                	jle    1b488 <func_42+0x349>
   1b4d1:	83 85 4c fe ff ff 01 	addl   $0x1,-0x1b4(%rbp)
   1b4d8:	83 bd 4c fe ff ff 04 	cmpl   $0x4,-0x1b4(%rbp)
   1b4df:	7e 9b                	jle    1b47c <func_42+0x33d>
   1b4e1:	83 85 48 fe ff ff 01 	addl   $0x1,-0x1b8(%rbp)
   1b4e8:	83 bd 48 fe ff ff 00 	cmpl   $0x0,-0x1b8(%rbp)
   1b4ef:	0f 8e 7b ff ff ff    	jle    1b470 <func_42+0x331>
   1b4f5:	48 8b 05 84 b8 00 00 	mov    0xb884(%rip),%rax        # 26d80 <g_8>
   1b4fc:	8b 18                	mov    (%rax),%ebx
   1b4fe:	80 bd 3c fe ff ff 00 	cmpb   $0x0,-0x1c4(%rbp)
   1b505:	0f 85 a5 00 00 00    	jne    1b5b0 <func_42+0x471>
   1b50b:	0f b6 85 45 fe ff ff 	movzbl -0x1bb(%rbp),%eax
   1b512:	0f be c0             	movsbl %al,%eax
   1b515:	be 03 00 00 00       	mov    $0x3,%esi
   1b51a:	89 c7                	mov    %eax,%edi
   1b51c:	e8 cd cd fe ff       	callq  82ee <safe_lshift_func_int8_t_s_u>
   1b521:	0f be d0             	movsbl %al,%edx
   1b524:	48 8b 85 78 fe ff ff 	mov    -0x188(%rbp),%rax
   1b52b:	89 10                	mov    %edx,(%rax)
   1b52d:	48 8b 85 78 fe ff ff 	mov    -0x188(%rbp),%rax
   1b534:	44 8b 20             	mov    (%rax),%r12d
   1b537:	48 8b 85 78 fe ff ff 	mov    -0x188(%rbp),%rax
   1b53e:	48 89 85 70 fe ff ff 	mov    %rax,-0x190(%rbp)
   1b545:	48 8d 05 d8 8a 00 00 	lea    0x8ad8(%rip),%rax        # 24024 <g_9>
   1b54c:	48 39 85 70 fe ff ff 	cmp    %rax,-0x190(%rbp)
   1b553:	0f 94 c0             	sete   %al
   1b556:	0f b6 c0             	movzbl %al,%eax
   1b559:	be 07 00 00 00       	mov    $0x7,%esi
   1b55e:	89 c7                	mov    %eax,%edi
   1b560:	e8 2d cf fe ff       	callq  8492 <safe_lshift_func_int16_t_s_s>
   1b565:	48 8b 85 80 fe ff ff 	mov    -0x180(%rbp),%rax
   1b56c:	c6 00 01             	movb   $0x1,(%rax)
   1b56f:	48 8b 85 80 fe ff ff 	mov    -0x180(%rbp),%rax
   1b576:	0f b6 00             	movzbl (%rax),%eax
   1b579:	48 0f be c0          	movsbq %al,%rax
   1b57d:	48 39 85 30 fe ff ff 	cmp    %rax,-0x1d0(%rbp)
   1b584:	0f 97 c0             	seta   %al
   1b587:	0f b6 c0             	movzbl %al,%eax
   1b58a:	41 39 c4             	cmp    %eax,%r12d
   1b58d:	7d 07                	jge    1b596 <func_42+0x457>
   1b58f:	ba 01 00 00 00       	mov    $0x1,%edx
   1b594:	eb 05                	jmp    1b59b <func_42+0x45c>
   1b596:	ba 00 00 00 00       	mov    $0x0,%edx
   1b59b:	48 8b 85 88 fe ff ff 	mov    -0x178(%rbp),%rax
   1b5a2:	0f b6 00             	movzbl (%rax),%eax
   1b5a5:	09 c2                	or     %eax,%edx
   1b5a7:	48 8b 85 88 fe ff ff 	mov    -0x178(%rbp),%rax
   1b5ae:	88 10                	mov    %dl,(%rax)
   1b5b0:	b8 01 00 00 00       	mov    $0x1,%eax
   1b5b5:	48 98                	cltq   
   1b5b7:	48 c7 c6 fc ff ff ff 	mov    $0xfffffffffffffffc,%rsi
   1b5be:	48 89 c7             	mov    %rax,%rdi
   1b5c1:	e8 85 da fe ff       	callq  904b <safe_sub_func_uint64_t_u_u>
   1b5c6:	89 de                	mov    %ebx,%esi
   1b5c8:	89 c7                	mov    %eax,%edi
   1b5ca:	e8 fd d0 fe ff       	callq  86cc <safe_mod_func_int32_t_s_s>
   1b5cf:	b8 01 00 00 00       	mov    $0x1,%eax
   1b5d4:	21 85 54 fe ff ff    	and    %eax,-0x1ac(%rbp)
   1b5da:	0f b6 05 a0 92 00 00 	movzbl 0x92a0(%rip),%eax        # 24881 <g_381+0x5>
   1b5e1:	0f b6 c0             	movzbl %al,%eax
   1b5e4:	48 8b 4d e8          	mov    -0x18(%rbp),%rcx
   1b5e8:	64 48 33 0c 25 28 00 	xor    %fs:0x28,%rcx
   1b5ef:	00 00 
   1b5f1:	74 05                	je     1b5f8 <func_42+0x4b9>
   1b5f3:	e8 78 ca fe ff       	callq  8070 <__stack_chk_fail@plt>
   1b5f8:	48 81 c4 c0 01 00 00 	add    $0x1c0,%rsp
   1b5ff:	5b                   	pop    %rbx
   1b600:	41 5c                	pop    %r12
   1b602:	5d                   	pop    %rbp
   1b603:	c3                   	retq   

000000000001b604 <main>:
   1b604:	f3 0f 1e fa          	endbr64 
   1b608:	55                   	push   %rbp
   1b609:	48 89 e5             	mov    %rsp,%rbp
   1b60c:	48 83 ec 20          	sub    $0x20,%rsp
   1b610:	89 7d ec             	mov    %edi,-0x14(%rbp)
   1b613:	48 89 75 e0          	mov    %rsi,-0x20(%rbp)
   1b617:	c7 45 fc 00 00 00 00 	movl   $0x0,-0x4(%rbp)
   1b61e:	83 7d ec 02          	cmpl   $0x2,-0x14(%rbp)
   1b622:	75 25                	jne    1b649 <main+0x45>
   1b624:	48 8b 45 e0          	mov    -0x20(%rbp),%rax
   1b628:	48 83 c0 08          	add    $0x8,%rax
   1b62c:	48 8b 00             	mov    (%rax),%rax
   1b62f:	48 8d 35 4a 50 00 00 	lea    0x504a(%rip),%rsi        # 20680 <g_5653+0x35df>
   1b636:	48 89 c7             	mov    %rax,%rdi
   1b639:	e8 52 ca fe ff       	callq  8090 <strcmp@plt>
   1b63e:	85 c0                	test   %eax,%eax
   1b640:	75 07                	jne    1b649 <main+0x45>
   1b642:	c7 45 fc 01 00 00 00 	movl   $0x1,-0x4(%rbp)
   1b649:	e8 3b cb fe ff       	callq  8189 <platform_main_begin>
   1b64e:	e8 45 df fe ff       	callq  9598 <crc32_gentab>
   1b653:	e8 5d e1 fe ff       	callq  97b5 <func_1>
   1b658:	8b 05 c6 89 00 00    	mov    0x89c6(%rip),%eax        # 24024 <g_9>
   1b65e:	48 98                	cltq   
   1b660:	8b 55 fc             	mov    -0x4(%rbp),%edx
   1b663:	48 8d 35 18 50 00 00 	lea    0x5018(%rip),%rsi        # 20682 <g_5653+0x35e1>
   1b66a:	48 89 c7             	mov    %rax,%rdi
   1b66d:	e8 81 e0 fe ff       	callq  96f3 <transparent_crc>
   1b672:	8b 05 b0 89 00 00    	mov    0x89b0(%rip),%eax        # 24028 <g_62>
   1b678:	48 98                	cltq   
   1b67a:	8b 55 fc             	mov    -0x4(%rbp),%edx
   1b67d:	48 8d 35 02 50 00 00 	lea    0x5002(%rip),%rsi        # 20686 <g_5653+0x35e5>
   1b684:	48 89 c7             	mov    %rax,%rdi
   1b687:	e8 67 e0 fe ff       	callq  96f3 <transparent_crc>
   1b68c:	0f b6 05 99 89 00 00 	movzbl 0x8999(%rip),%eax        # 2402c <g_67>
   1b693:	48 0f be c0          	movsbq %al,%rax
   1b697:	8b 55 fc             	mov    -0x4(%rbp),%edx
   1b69a:	48 8d 35 ea 4f 00 00 	lea    0x4fea(%rip),%rsi        # 2068b <g_5653+0x35ea>
   1b6a1:	48 89 c7             	mov    %rax,%rdi
   1b6a4:	e8 4a e0 fe ff       	callq  96f3 <transparent_crc>
   1b6a9:	c7 45 f0 00 00 00 00 	movl   $0x0,-0x10(%rbp)
   1b6b0:	e9 8a 00 00 00       	jmpq   1b73f <main+0x13b>
   1b6b5:	c7 45 f4 00 00 00 00 	movl   $0x0,-0xc(%rbp)
   1b6bc:	eb 77                	jmp    1b735 <main+0x131>
   1b6be:	c7 45 f8 00 00 00 00 	movl   $0x0,-0x8(%rbp)
   1b6c5:	eb 64                	jmp    1b72b <main+0x127>
   1b6c7:	8b 45 f8             	mov    -0x8(%rbp),%eax
   1b6ca:	48 63 d0             	movslq %eax,%rdx
   1b6cd:	8b 45 f4             	mov    -0xc(%rbp),%eax
   1b6d0:	48 98                	cltq   
   1b6d2:	8b 4d f0             	mov    -0x10(%rbp),%ecx
   1b6d5:	48 63 c9             	movslq %ecx,%rcx
   1b6d8:	48 c1 e1 03          	shl    $0x3,%rcx
   1b6dc:	48 01 ca             	add    %rcx,%rdx
   1b6df:	48 01 c2             	add    %rax,%rdx
   1b6e2:	48 8d 05 47 89 00 00 	lea    0x8947(%rip),%rax        # 24030 <g_69>
   1b6e9:	48 01 d0             	add    %rdx,%rax
   1b6ec:	0f b6 00             	movzbl (%rax),%eax
   1b6ef:	48 0f be c0          	movsbq %al,%rax
   1b6f3:	8b 55 fc             	mov    -0x4(%rbp),%edx
   1b6f6:	48 8d 35 93 4f 00 00 	lea    0x4f93(%rip),%rsi        # 20690 <g_5653+0x35ef>
   1b6fd:	48 89 c7             	mov    %rax,%rdi
   1b700:	e8 ee df fe ff       	callq  96f3 <transparent_crc>
   1b705:	83 7d fc 00          	cmpl   $0x0,-0x4(%rbp)
   1b709:	74 1c                	je     1b727 <main+0x123>
   1b70b:	8b 4d f8             	mov    -0x8(%rbp),%ecx
   1b70e:	8b 55 f4             	mov    -0xc(%rbp),%edx
   1b711:	8b 45 f0             	mov    -0x10(%rbp),%eax
   1b714:	89 c6                	mov    %eax,%esi
   1b716:	48 8d 3d 81 4f 00 00 	lea    0x4f81(%rip),%rdi        # 2069e <g_5653+0x35fd>
   1b71d:	b8 00 00 00 00       	mov    $0x0,%eax
   1b722:	e8 59 c9 fe ff       	callq  8080 <printf@plt>
   1b727:	83 45 f8 01          	addl   $0x1,-0x8(%rbp)
   1b72b:	83 7d f8 00          	cmpl   $0x0,-0x8(%rbp)
   1b72f:	7e 96                	jle    1b6c7 <main+0xc3>
   1b731:	83 45 f4 01          	addl   $0x1,-0xc(%rbp)
   1b735:	83 7d f4 07          	cmpl   $0x7,-0xc(%rbp)
   1b739:	7e 83                	jle    1b6be <main+0xba>
   1b73b:	83 45 f0 01          	addl   $0x1,-0x10(%rbp)
   1b73f:	83 7d f0 02          	cmpl   $0x2,-0x10(%rbp)
   1b743:	0f 8e 6c ff ff ff    	jle    1b6b5 <main+0xb1>
   1b749:	8b 05 f9 88 00 00    	mov    0x88f9(%rip),%eax        # 24048 <g_85>
   1b74f:	89 c1                	mov    %eax,%ecx
   1b751:	8b 45 fc             	mov    -0x4(%rbp),%eax
   1b754:	89 c2                	mov    %eax,%edx
   1b756:	48 8d 35 57 4f 00 00 	lea    0x4f57(%rip),%rsi        # 206b4 <g_5653+0x3613>
   1b75d:	48 89 cf             	mov    %rcx,%rdi
   1b760:	e8 8e df fe ff       	callq  96f3 <transparent_crc>
   1b765:	c7 45 f0 00 00 00 00 	movl   $0x0,-0x10(%rbp)
   1b76c:	e9 ae 00 00 00       	jmpq   1b81f <main+0x21b>
   1b771:	c7 45 f4 00 00 00 00 	movl   $0x0,-0xc(%rbp)
   1b778:	e9 94 00 00 00       	jmpq   1b811 <main+0x20d>
   1b77d:	c7 45 f8 00 00 00 00 	movl   $0x0,-0x8(%rbp)
   1b784:	eb 7d                	jmp    1b803 <main+0x1ff>
   1b786:	8b 45 f8             	mov    -0x8(%rbp),%eax
   1b789:	48 63 f0             	movslq %eax,%rsi
   1b78c:	8b 45 f0             	mov    -0x10(%rbp),%eax
   1b78f:	48 63 d0             	movslq %eax,%rdx
   1b792:	8b 45 f4             	mov    -0xc(%rbp),%eax
   1b795:	48 63 c8             	movslq %eax,%rcx
   1b798:	48 89 d0             	mov    %rdx,%rax
   1b79b:	48 c1 e0 02          	shl    $0x2,%rax
   1b79f:	48 01 d0             	add    %rdx,%rax
   1b7a2:	48 01 c0             	add    %rax,%rax
   1b7a5:	48 89 ca             	mov    %rcx,%rdx
   1b7a8:	48 c1 e2 02          	shl    $0x2,%rdx
   1b7ac:	48 01 ca             	add    %rcx,%rdx
   1b7af:	48 01 d0             	add    %rdx,%rax
   1b7b2:	48 01 f0             	add    %rsi,%rax
   1b7b5:	48 8d 14 85 00 00 00 	lea    0x0(,%rax,4),%rdx
   1b7bc:	00 
   1b7bd:	48 8d 05 9c 88 00 00 	lea    0x889c(%rip),%rax        # 24060 <g_108>
   1b7c4:	8b 04 02             	mov    (%rdx,%rax,1),%eax
   1b7c7:	89 c1                	mov    %eax,%ecx
   1b7c9:	8b 45 fc             	mov    -0x4(%rbp),%eax
   1b7cc:	89 c2                	mov    %eax,%edx
   1b7ce:	48 8d 35 e4 4e 00 00 	lea    0x4ee4(%rip),%rsi        # 206b9 <g_5653+0x3618>
   1b7d5:	48 89 cf             	mov    %rcx,%rdi
   1b7d8:	e8 16 df fe ff       	callq  96f3 <transparent_crc>
   1b7dd:	83 7d fc 00          	cmpl   $0x0,-0x4(%rbp)
   1b7e1:	74 1c                	je     1b7ff <main+0x1fb>
   1b7e3:	8b 4d f8             	mov    -0x8(%rbp),%ecx
   1b7e6:	8b 55 f4             	mov    -0xc(%rbp),%edx
   1b7e9:	8b 45 f0             	mov    -0x10(%rbp),%eax
   1b7ec:	89 c6                	mov    %eax,%esi
   1b7ee:	48 8d 3d a9 4e 00 00 	lea    0x4ea9(%rip),%rdi        # 2069e <g_5653+0x35fd>
   1b7f5:	b8 00 00 00 00       	mov    $0x0,%eax
   1b7fa:	e8 81 c8 fe ff       	callq  8080 <printf@plt>
   1b7ff:	83 45 f8 01          	addl   $0x1,-0x8(%rbp)
   1b803:	83 7d f8 04          	cmpl   $0x4,-0x8(%rbp)
   1b807:	0f 8e 79 ff ff ff    	jle    1b786 <main+0x182>
   1b80d:	83 45 f4 01          	addl   $0x1,-0xc(%rbp)
   1b811:	83 7d f4 01          	cmpl   $0x1,-0xc(%rbp)
   1b815:	0f 8e 62 ff ff ff    	jle    1b77d <main+0x179>
   1b81b:	83 45 f0 01          	addl   $0x1,-0x10(%rbp)
   1b81f:	83 7d f0 05          	cmpl   $0x5,-0x10(%rbp)
   1b823:	0f 8e 48 ff ff ff    	jle    1b771 <main+0x16d>
   1b829:	c7 45 f0 00 00 00 00 	movl   $0x0,-0x10(%rbp)
   1b830:	e9 9e 00 00 00       	jmpq   1b8d3 <main+0x2cf>
   1b835:	c7 45 f4 00 00 00 00 	movl   $0x0,-0xc(%rbp)
   1b83c:	e9 84 00 00 00       	jmpq   1b8c5 <main+0x2c1>
   1b841:	c7 45 f8 00 00 00 00 	movl   $0x0,-0x8(%rbp)
   1b848:	eb 71                	jmp    1b8bb <main+0x2b7>
   1b84a:	8b 45 f8             	mov    -0x8(%rbp),%eax
   1b84d:	48 63 c8             	movslq %eax,%rcx
   1b850:	8b 45 f0             	mov    -0x10(%rbp),%eax
   1b853:	48 63 d0             	movslq %eax,%rdx
   1b856:	8b 45 f4             	mov    -0xc(%rbp),%eax
   1b859:	48 63 f0             	movslq %eax,%rsi
   1b85c:	48 89 d0             	mov    %rdx,%rax
   1b85f:	48 c1 e0 03          	shl    $0x3,%rax
   1b863:	48 29 d0             	sub    %rdx,%rax
   1b866:	48 01 f0             	add    %rsi,%rax
   1b869:	48 c1 e0 02          	shl    $0x2,%rax
   1b86d:	48 01 c8             	add    %rcx,%rax
   1b870:	48 8d 14 c5 00 00 00 	lea    0x0(,%rax,8),%rdx
   1b877:	00 
   1b878:	48 8d 05 e1 88 00 00 	lea    0x88e1(%rip),%rax        # 24160 <g_123>
   1b87f:	48 8b 04 02          	mov    (%rdx,%rax,1),%rax
   1b883:	8b 55 fc             	mov    -0x4(%rbp),%edx
   1b886:	48 8d 35 3b 4e 00 00 	lea    0x4e3b(%rip),%rsi        # 206c8 <g_5653+0x3627>
   1b88d:	48 89 c7             	mov    %rax,%rdi
   1b890:	e8 5e de fe ff       	callq  96f3 <transparent_crc>
   1b895:	83 7d fc 00          	cmpl   $0x0,-0x4(%rbp)
   1b899:	74 1c                	je     1b8b7 <main+0x2b3>
   1b89b:	8b 4d f8             	mov    -0x8(%rbp),%ecx
   1b89e:	8b 55 f4             	mov    -0xc(%rbp),%edx
   1b8a1:	8b 45 f0             	mov    -0x10(%rbp),%eax
   1b8a4:	89 c6                	mov    %eax,%esi
   1b8a6:	48 8d 3d f1 4d 00 00 	lea    0x4df1(%rip),%rdi        # 2069e <g_5653+0x35fd>
   1b8ad:	b8 00 00 00 00       	mov    $0x0,%eax
   1b8b2:	e8 c9 c7 fe ff       	callq  8080 <printf@plt>
   1b8b7:	83 45 f8 01          	addl   $0x1,-0x8(%rbp)
   1b8bb:	83 7d f8 03          	cmpl   $0x3,-0x8(%rbp)
   1b8bf:	7e 89                	jle    1b84a <main+0x246>
   1b8c1:	83 45 f4 01          	addl   $0x1,-0xc(%rbp)
   1b8c5:	83 7d f4 06          	cmpl   $0x6,-0xc(%rbp)
   1b8c9:	0f 8e 72 ff ff ff    	jle    1b841 <main+0x23d>
   1b8cf:	83 45 f0 01          	addl   $0x1,-0x10(%rbp)
   1b8d3:	83 7d f0 07          	cmpl   $0x7,-0x10(%rbp)
   1b8d7:	0f 8e 58 ff ff ff    	jle    1b835 <main+0x231>
   1b8dd:	48 8b 05 7c 8f 00 00 	mov    0x8f7c(%rip),%rax        # 24860 <g_136>
   1b8e4:	48 89 c1             	mov    %rax,%rcx
   1b8e7:	8b 45 fc             	mov    -0x4(%rbp),%eax
   1b8ea:	89 c2                	mov    %eax,%edx
   1b8ec:	48 8d 35 e4 4d 00 00 	lea    0x4de4(%rip),%rsi        # 206d7 <g_5653+0x3636>
   1b8f3:	48 89 cf             	mov    %rcx,%rdi
   1b8f6:	e8 f8 dd fe ff       	callq  96f3 <transparent_crc>
   1b8fb:	0f b7 05 b6 c2 00 00 	movzwl 0xc2b6(%rip),%eax        # 27bb8 <g_152>
   1b902:	0f b7 c0             	movzwl %ax,%eax
   1b905:	8b 55 fc             	mov    -0x4(%rbp),%edx
   1b908:	48 8d 35 ce 4d 00 00 	lea    0x4dce(%rip),%rsi        # 206dd <g_5653+0x363c>
   1b90f:	48 89 c7             	mov    %rax,%rdi
   1b912:	e8 dc dd fe ff       	callq  96f3 <transparent_crc>
   1b917:	48 8b 05 a2 c2 00 00 	mov    0xc2a2(%rip),%rax        # 27bc0 <g_183>
   1b91e:	48 89 c1             	mov    %rax,%rcx
   1b921:	8b 45 fc             	mov    -0x4(%rbp),%eax
   1b924:	89 c2                	mov    %eax,%edx
   1b926:	48 8d 35 b6 4d 00 00 	lea    0x4db6(%rip),%rsi        # 206e3 <g_5653+0x3642>
   1b92d:	48 89 cf             	mov    %rcx,%rdi
   1b930:	e8 be dd fe ff       	callq  96f3 <transparent_crc>
   1b935:	0f b7 05 2c 8f 00 00 	movzwl 0x8f2c(%rip),%eax        # 24868 <g_269>
   1b93c:	48 0f bf c0          	movswq %ax,%rax
   1b940:	8b 55 fc             	mov    -0x4(%rbp),%edx
   1b943:	48 8d 35 9f 4d 00 00 	lea    0x4d9f(%rip),%rsi        # 206e9 <g_5653+0x3648>
   1b94a:	48 89 c7             	mov    %rax,%rdi
   1b94d:	e8 a1 dd fe ff       	callq  96f3 <transparent_crc>
   1b952:	0f b6 05 11 8f 00 00 	movzbl 0x8f11(%rip),%eax        # 2486a <g_314>
   1b959:	48 0f be c0          	movsbq %al,%rax
   1b95d:	8b 55 fc             	mov    -0x4(%rbp),%edx
   1b960:	48 8d 35 88 4d 00 00 	lea    0x4d88(%rip),%rsi        # 206ef <g_5653+0x364e>
   1b967:	48 89 c7             	mov    %rax,%rdi
   1b96a:	e8 84 dd fe ff       	callq  96f3 <transparent_crc>
   1b96f:	8b 05 f7 8e 00 00    	mov    0x8ef7(%rip),%eax        # 2486c <g_321>
   1b975:	89 c1                	mov    %eax,%ecx
   1b977:	8b 45 fc             	mov    -0x4(%rbp),%eax
   1b97a:	89 c2                	mov    %eax,%edx
   1b97c:	48 8d 35 72 4d 00 00 	lea    0x4d72(%rip),%rsi        # 206f5 <g_5653+0x3654>
   1b983:	48 89 cf             	mov    %rcx,%rdi
   1b986:	e8 68 dd fe ff       	callq  96f3 <transparent_crc>
   1b98b:	8b 05 df 8e 00 00    	mov    0x8edf(%rip),%eax        # 24870 <g_355>
   1b991:	48 98                	cltq   
   1b993:	8b 55 fc             	mov    -0x4(%rbp),%edx
   1b996:	48 8d 35 5e 4d 00 00 	lea    0x4d5e(%rip),%rsi        # 206fb <g_5653+0x365a>
   1b99d:	48 89 c7             	mov    %rax,%rdi
   1b9a0:	e8 4e dd fe ff       	callq  96f3 <transparent_crc>
   1b9a5:	0f b7 05 c8 8e 00 00 	movzwl 0x8ec8(%rip),%eax        # 24874 <g_368>
   1b9ac:	0f b7 c0             	movzwl %ax,%eax
   1b9af:	8b 55 fc             	mov    -0x4(%rbp),%edx
   1b9b2:	48 8d 35 48 4d 00 00 	lea    0x4d48(%rip),%rsi        # 20701 <g_5653+0x3660>
   1b9b9:	48 89 c7             	mov    %rax,%rdi
   1b9bc:	e8 32 dd fe ff       	callq  96f3 <transparent_crc>
   1b9c1:	8b 05 b1 8e 00 00    	mov    0x8eb1(%rip),%eax        # 24878 <g_370>
   1b9c7:	48 98                	cltq   
   1b9c9:	8b 55 fc             	mov    -0x4(%rbp),%edx
   1b9cc:	48 8d 35 34 4d 00 00 	lea    0x4d34(%rip),%rsi        # 20707 <g_5653+0x3666>
   1b9d3:	48 89 c7             	mov    %rax,%rdi
   1b9d6:	e8 18 dd fe ff       	callq  96f3 <transparent_crc>
   1b9db:	c7 45 f0 00 00 00 00 	movl   $0x0,-0x10(%rbp)
   1b9e2:	eb 45                	jmp    1ba29 <main+0x425>
   1b9e4:	8b 45 f0             	mov    -0x10(%rbp),%eax
   1b9e7:	48 98                	cltq   
   1b9e9:	48 8d 15 8c 8e 00 00 	lea    0x8e8c(%rip),%rdx        # 2487c <g_381>
   1b9f0:	0f b6 04 10          	movzbl (%rax,%rdx,1),%eax
   1b9f4:	0f b6 c0             	movzbl %al,%eax
   1b9f7:	8b 55 fc             	mov    -0x4(%rbp),%edx
   1b9fa:	48 8d 35 0c 4d 00 00 	lea    0x4d0c(%rip),%rsi        # 2070d <g_5653+0x366c>
   1ba01:	48 89 c7             	mov    %rax,%rdi
   1ba04:	e8 ea dc fe ff       	callq  96f3 <transparent_crc>
   1ba09:	83 7d fc 00          	cmpl   $0x0,-0x4(%rbp)
   1ba0d:	74 16                	je     1ba25 <main+0x421>
   1ba0f:	8b 45 f0             	mov    -0x10(%rbp),%eax
   1ba12:	89 c6                	mov    %eax,%esi
   1ba14:	48 8d 3d fb 4c 00 00 	lea    0x4cfb(%rip),%rdi        # 20716 <g_5653+0x3675>
   1ba1b:	b8 00 00 00 00       	mov    $0x0,%eax
   1ba20:	e8 5b c6 fe ff       	callq  8080 <printf@plt>
   1ba25:	83 45 f0 01          	addl   $0x1,-0x10(%rbp)
   1ba29:	83 7d f0 05          	cmpl   $0x5,-0x10(%rbp)
   1ba2d:	7e b5                	jle    1b9e4 <main+0x3e0>
   1ba2f:	48 8b 05 52 8e 00 00 	mov    0x8e52(%rip),%rax        # 24888 <g_505>
   1ba36:	8b 55 fc             	mov    -0x4(%rbp),%edx
   1ba39:	48 8d 35 e4 4c 00 00 	lea    0x4ce4(%rip),%rsi        # 20724 <g_5653+0x3683>
   1ba40:	48 89 c7             	mov    %rax,%rdi
   1ba43:	e8 ab dc fe ff       	callq  96f3 <transparent_crc>
   1ba48:	0f b7 05 51 c5 00 00 	movzwl 0xc551(%rip),%eax        # 27fa0 <g_527>
   1ba4f:	48 0f bf c0          	movswq %ax,%rax
   1ba53:	8b 55 fc             	mov    -0x4(%rbp),%edx
   1ba56:	48 8d 35 cd 4c 00 00 	lea    0x4ccd(%rip),%rsi        # 2072a <g_5653+0x3689>
   1ba5d:	48 89 c7             	mov    %rax,%rdi
   1ba60:	e8 8e dc fe ff       	callq  96f3 <transparent_crc>
   1ba65:	0f b6 05 24 8e 00 00 	movzbl 0x8e24(%rip),%eax        # 24890 <g_590>
   1ba6c:	0f b6 c0             	movzbl %al,%eax
   1ba6f:	8b 55 fc             	mov    -0x4(%rbp),%edx
   1ba72:	48 8d 35 b7 4c 00 00 	lea    0x4cb7(%rip),%rsi        # 20730 <g_5653+0x368f>
   1ba79:	48 89 c7             	mov    %rax,%rdi
   1ba7c:	e8 72 dc fe ff       	callq  96f3 <transparent_crc>
   1ba81:	b8 4b 92 b4 81       	mov    $0x81b4924b,%eax
   1ba86:	48 98                	cltq   
   1ba88:	8b 55 fc             	mov    -0x4(%rbp),%edx
   1ba8b:	48 8d 35 a4 4c 00 00 	lea    0x4ca4(%rip),%rsi        # 20736 <g_5653+0x3695>
   1ba92:	48 89 c7             	mov    %rax,%rdi
   1ba95:	e8 59 dc fe ff       	callq  96f3 <transparent_crc>
   1ba9a:	b8 ff ff ff ff       	mov    $0xffffffff,%eax
   1ba9f:	89 c1                	mov    %eax,%ecx
   1baa1:	8b 45 fc             	mov    -0x4(%rbp),%eax
   1baa4:	89 c2                	mov    %eax,%edx
   1baa6:	48 8d 35 8f 4c 00 00 	lea    0x4c8f(%rip),%rsi        # 2073c <g_5653+0x369b>
   1baad:	48 89 cf             	mov    %rcx,%rdi
   1bab0:	e8 3e dc fe ff       	callq  96f3 <transparent_crc>
   1bab5:	8b 05 d9 8d 00 00    	mov    0x8dd9(%rip),%eax        # 24894 <g_965>
   1babb:	48 98                	cltq   
   1babd:	8b 55 fc             	mov    -0x4(%rbp),%edx
   1bac0:	48 8d 35 7b 4c 00 00 	lea    0x4c7b(%rip),%rsi        # 20742 <g_5653+0x36a1>
   1bac7:	48 89 c7             	mov    %rax,%rdi
   1baca:	e8 24 dc fe ff       	callq  96f3 <transparent_crc>
   1bacf:	8b 05 c3 8d 00 00    	mov    0x8dc3(%rip),%eax        # 24898 <g_989>
   1bad5:	48 98                	cltq   
   1bad7:	8b 55 fc             	mov    -0x4(%rbp),%edx
   1bada:	48 8d 35 67 4c 00 00 	lea    0x4c67(%rip),%rsi        # 20748 <g_5653+0x36a7>
   1bae1:	48 89 c7             	mov    %rax,%rdi
   1bae4:	e8 0a dc fe ff       	callq  96f3 <transparent_crc>
   1bae9:	c7 45 f0 00 00 00 00 	movl   $0x0,-0x10(%rbp)
   1baf0:	eb 6a                	jmp    1bb5c <main+0x558>
   1baf2:	c7 45 f4 00 00 00 00 	movl   $0x0,-0xc(%rbp)
   1baf9:	eb 57                	jmp    1bb52 <main+0x54e>
   1bafb:	8b 45 f4             	mov    -0xc(%rbp),%eax
   1bafe:	48 98                	cltq   
   1bb00:	8b 55 f0             	mov    -0x10(%rbp),%edx
   1bb03:	48 63 d2             	movslq %edx,%rdx
   1bb06:	48 c1 e2 02          	shl    $0x2,%rdx
   1bb0a:	48 01 c2             	add    %rax,%rdx
   1bb0d:	48 8d 05 88 8d 00 00 	lea    0x8d88(%rip),%rax        # 2489c <g_1028>
   1bb14:	48 01 d0             	add    %rdx,%rax
   1bb17:	0f b6 00             	movzbl (%rax),%eax
   1bb1a:	0f b6 c0             	movzbl %al,%eax
   1bb1d:	8b 55 fc             	mov    -0x4(%rbp),%edx
   1bb20:	48 8d 35 27 4c 00 00 	lea    0x4c27(%rip),%rsi        # 2074e <g_5653+0x36ad>
   1bb27:	48 89 c7             	mov    %rax,%rdi
   1bb2a:	e8 c4 db fe ff       	callq  96f3 <transparent_crc>
   1bb2f:	83 7d fc 00          	cmpl   $0x0,-0x4(%rbp)
   1bb33:	74 19                	je     1bb4e <main+0x54a>
   1bb35:	8b 55 f4             	mov    -0xc(%rbp),%edx
   1bb38:	8b 45 f0             	mov    -0x10(%rbp),%eax
   1bb3b:	89 c6                	mov    %eax,%esi
   1bb3d:	48 8d 3d 17 4c 00 00 	lea    0x4c17(%rip),%rdi        # 2075b <g_5653+0x36ba>
   1bb44:	b8 00 00 00 00       	mov    $0x0,%eax
   1bb49:	e8 32 c5 fe ff       	callq  8080 <printf@plt>
   1bb4e:	83 45 f4 01          	addl   $0x1,-0xc(%rbp)
   1bb52:	83 7d f4 03          	cmpl   $0x3,-0xc(%rbp)
   1bb56:	7e a3                	jle    1bafb <main+0x4f7>
   1bb58:	83 45 f0 01          	addl   $0x1,-0x10(%rbp)
   1bb5c:	83 7d f0 00          	cmpl   $0x0,-0x10(%rbp)
   1bb60:	7e 90                	jle    1baf2 <main+0x4ee>
   1bb62:	8b 05 38 8d 00 00    	mov    0x8d38(%rip),%eax        # 248a0 <g_1259>
   1bb68:	48 98                	cltq   
   1bb6a:	8b 55 fc             	mov    -0x4(%rbp),%edx
   1bb6d:	48 8d 35 f9 4b 00 00 	lea    0x4bf9(%rip),%rsi        # 2076d <g_5653+0x36cc>
   1bb74:	48 89 c7             	mov    %rax,%rdi
   1bb77:	e8 77 db fe ff       	callq  96f3 <transparent_crc>
   1bb7c:	8b 05 22 8d 00 00    	mov    0x8d22(%rip),%eax        # 248a4 <g_1260>
   1bb82:	89 c1                	mov    %eax,%ecx
   1bb84:	8b 45 fc             	mov    -0x4(%rbp),%eax
   1bb87:	89 c2                	mov    %eax,%edx
   1bb89:	48 8d 35 e4 4b 00 00 	lea    0x4be4(%rip),%rsi        # 20774 <g_5653+0x36d3>
   1bb90:	48 89 cf             	mov    %rcx,%rdi
   1bb93:	e8 5b db fe ff       	callq  96f3 <transparent_crc>
   1bb98:	c7 45 f0 00 00 00 00 	movl   $0x0,-0x10(%rbp)
   1bb9f:	eb 79                	jmp    1bc1a <main+0x616>
   1bba1:	c7 45 f4 00 00 00 00 	movl   $0x0,-0xc(%rbp)
   1bba8:	eb 66                	jmp    1bc10 <main+0x60c>
   1bbaa:	8b 45 f4             	mov    -0xc(%rbp),%eax
   1bbad:	48 63 c8             	movslq %eax,%rcx
   1bbb0:	8b 45 f0             	mov    -0x10(%rbp),%eax
   1bbb3:	48 63 d0             	movslq %eax,%rdx
   1bbb6:	48 89 d0             	mov    %rdx,%rax
   1bbb9:	48 01 c0             	add    %rax,%rax
   1bbbc:	48 01 d0             	add    %rdx,%rax
   1bbbf:	48 01 c0             	add    %rax,%rax
   1bbc2:	48 01 c8             	add    %rcx,%rax
   1bbc5:	48 8d 14 85 00 00 00 	lea    0x0(,%rax,4),%rdx
   1bbcc:	00 
   1bbcd:	48 8d 05 ec 8c 00 00 	lea    0x8cec(%rip),%rax        # 248c0 <g_1356>
   1bbd4:	8b 04 02             	mov    (%rdx,%rax,1),%eax
   1bbd7:	89 c1                	mov    %eax,%ecx
   1bbd9:	8b 45 fc             	mov    -0x4(%rbp),%eax
   1bbdc:	89 c2                	mov    %eax,%edx
   1bbde:	48 8d 35 96 4b 00 00 	lea    0x4b96(%rip),%rsi        # 2077b <g_5653+0x36da>
   1bbe5:	48 89 cf             	mov    %rcx,%rdi
   1bbe8:	e8 06 db fe ff       	callq  96f3 <transparent_crc>
   1bbed:	83 7d fc 00          	cmpl   $0x0,-0x4(%rbp)
   1bbf1:	74 19                	je     1bc0c <main+0x608>
   1bbf3:	8b 55 f4             	mov    -0xc(%rbp),%edx
   1bbf6:	8b 45 f0             	mov    -0x10(%rbp),%eax
   1bbf9:	89 c6                	mov    %eax,%esi
   1bbfb:	48 8d 3d 59 4b 00 00 	lea    0x4b59(%rip),%rdi        # 2075b <g_5653+0x36ba>
   1bc02:	b8 00 00 00 00       	mov    $0x0,%eax
   1bc07:	e8 74 c4 fe ff       	callq  8080 <printf@plt>
   1bc0c:	83 45 f4 01          	addl   $0x1,-0xc(%rbp)
   1bc10:	83 7d f4 05          	cmpl   $0x5,-0xc(%rbp)
   1bc14:	7e 94                	jle    1bbaa <main+0x5a6>
   1bc16:	83 45 f0 01          	addl   $0x1,-0x10(%rbp)
   1bc1a:	83 7d f0 07          	cmpl   $0x7,-0x10(%rbp)
   1bc1e:	7e 81                	jle    1bba1 <main+0x59d>
   1bc20:	c7 45 f0 00 00 00 00 	movl   $0x0,-0x10(%rbp)
   1bc27:	e9 9b 00 00 00       	jmpq   1bcc7 <main+0x6c3>
   1bc2c:	c7 45 f4 00 00 00 00 	movl   $0x0,-0xc(%rbp)
   1bc33:	e9 81 00 00 00       	jmpq   1bcb9 <main+0x6b5>
   1bc38:	c7 45 f8 00 00 00 00 	movl   $0x0,-0x8(%rbp)
   1bc3f:	eb 6e                	jmp    1bcaf <main+0x6ab>
   1bc41:	8b 45 f8             	mov    -0x8(%rbp),%eax
   1bc44:	48 63 c8             	movslq %eax,%rcx
   1bc47:	8b 45 f0             	mov    -0x10(%rbp),%eax
   1bc4a:	48 63 d0             	movslq %eax,%rdx
   1bc4d:	8b 45 f4             	mov    -0xc(%rbp),%eax
   1bc50:	48 98                	cltq   
   1bc52:	48 01 c2             	add    %rax,%rdx
   1bc55:	48 89 d0             	mov    %rdx,%rax
   1bc58:	48 01 c0             	add    %rax,%rax
   1bc5b:	48 01 d0             	add    %rdx,%rax
   1bc5e:	48 01 c0             	add    %rax,%rax
   1bc61:	48 01 c8             	add    %rcx,%rax
   1bc64:	48 8d 14 00          	lea    (%rax,%rax,1),%rdx
   1bc68:	48 8d 05 11 8d 00 00 	lea    0x8d11(%rip),%rax        # 24980 <g_1383>
   1bc6f:	0f b7 04 02          	movzwl (%rdx,%rax,1),%eax
   1bc73:	48 0f bf c0          	movswq %ax,%rax
   1bc77:	8b 55 fc             	mov    -0x4(%rbp),%edx
   1bc7a:	48 8d 35 07 4b 00 00 	lea    0x4b07(%rip),%rsi        # 20788 <g_5653+0x36e7>
   1bc81:	48 89 c7             	mov    %rax,%rdi
   1bc84:	e8 6a da fe ff       	callq  96f3 <transparent_crc>
   1bc89:	83 7d fc 00          	cmpl   $0x0,-0x4(%rbp)
   1bc8d:	74 1c                	je     1bcab <main+0x6a7>
   1bc8f:	8b 4d f8             	mov    -0x8(%rbp),%ecx
   1bc92:	8b 55 f4             	mov    -0xc(%rbp),%edx
   1bc95:	8b 45 f0             	mov    -0x10(%rbp),%eax
   1bc98:	89 c6                	mov    %eax,%esi
   1bc9a:	48 8d 3d fd 49 00 00 	lea    0x49fd(%rip),%rdi        # 2069e <g_5653+0x35fd>
   1bca1:	b8 00 00 00 00       	mov    $0x0,%eax
   1bca6:	e8 d5 c3 fe ff       	callq  8080 <printf@plt>
   1bcab:	83 45 f8 01          	addl   $0x1,-0x8(%rbp)
   1bcaf:	83 7d f8 05          	cmpl   $0x5,-0x8(%rbp)
   1bcb3:	7e 8c                	jle    1bc41 <main+0x63d>
   1bcb5:	83 45 f4 01          	addl   $0x1,-0xc(%rbp)
   1bcb9:	83 7d f4 00          	cmpl   $0x0,-0xc(%rbp)
   1bcbd:	0f 8e 75 ff ff ff    	jle    1bc38 <main+0x634>
   1bcc3:	83 45 f0 01          	addl   $0x1,-0x10(%rbp)
   1bcc7:	83 7d f0 03          	cmpl   $0x3,-0x10(%rbp)
   1bccb:	0f 8e 5b ff ff ff    	jle    1bc2c <main+0x628>
   1bcd1:	0f b6 05 d8 8c 00 00 	movzbl 0x8cd8(%rip),%eax        # 249b0 <g_1431>
   1bcd8:	48 0f be c0          	movsbq %al,%rax
   1bcdc:	8b 55 fc             	mov    -0x4(%rbp),%edx
   1bcdf:	48 8d 35 b2 4a 00 00 	lea    0x4ab2(%rip),%rsi        # 20798 <g_5653+0x36f7>
   1bce6:	48 89 c7             	mov    %rax,%rdi
   1bce9:	e8 05 da fe ff       	callq  96f3 <transparent_crc>
   1bcee:	8b 05 c0 8c 00 00    	mov    0x8cc0(%rip),%eax        # 249b4 <g_1588>
   1bcf4:	48 98                	cltq   
   1bcf6:	8b 55 fc             	mov    -0x4(%rbp),%edx
   1bcf9:	48 8d 35 9f 4a 00 00 	lea    0x4a9f(%rip),%rsi        # 2079f <g_5653+0x36fe>
   1bd00:	48 89 c7             	mov    %rax,%rdi
   1bd03:	e8 eb d9 fe ff       	callq  96f3 <transparent_crc>
   1bd08:	48 8b 05 a9 8c 00 00 	mov    0x8ca9(%rip),%rax        # 249b8 <g_1645>
   1bd0f:	8b 55 fc             	mov    -0x4(%rbp),%edx
   1bd12:	48 8d 35 8d 4a 00 00 	lea    0x4a8d(%rip),%rsi        # 207a6 <g_5653+0x3705>
   1bd19:	48 89 c7             	mov    %rax,%rdi
   1bd1c:	e8 d2 d9 fe ff       	callq  96f3 <transparent_crc>
   1bd21:	0f b6 05 98 8c 00 00 	movzbl 0x8c98(%rip),%eax        # 249c0 <g_1691>
   1bd28:	48 0f be c0          	movsbq %al,%rax
   1bd2c:	8b 55 fc             	mov    -0x4(%rbp),%edx
   1bd2f:	48 8d 35 77 4a 00 00 	lea    0x4a77(%rip),%rsi        # 207ad <g_5653+0x370c>
   1bd36:	48 89 c7             	mov    %rax,%rdi
   1bd39:	e8 b5 d9 fe ff       	callq  96f3 <transparent_crc>
   1bd3e:	c7 45 f0 00 00 00 00 	movl   $0x0,-0x10(%rbp)
   1bd45:	eb 75                	jmp    1bdbc <main+0x7b8>
   1bd47:	c7 45 f4 00 00 00 00 	movl   $0x0,-0xc(%rbp)
   1bd4e:	eb 62                	jmp    1bdb2 <main+0x7ae>
   1bd50:	8b 45 f4             	mov    -0xc(%rbp),%eax
   1bd53:	48 63 c8             	movslq %eax,%rcx
   1bd56:	8b 45 f0             	mov    -0x10(%rbp),%eax
   1bd59:	48 63 d0             	movslq %eax,%rdx
   1bd5c:	48 89 d0             	mov    %rdx,%rax
   1bd5f:	48 c1 e0 02          	shl    $0x2,%rax
   1bd63:	48 01 d0             	add    %rdx,%rax
   1bd66:	48 01 c8             	add    %rcx,%rax
   1bd69:	48 8d 14 85 00 00 00 	lea    0x0(,%rax,4),%rdx
   1bd70:	00 
   1bd71:	48 8d 05 e8 12 00 00 	lea    0x12e8(%rip),%rax        # 1d060 <g_1700>
   1bd78:	8b 04 02             	mov    (%rdx,%rax,1),%eax
   1bd7b:	48 98                	cltq   
   1bd7d:	8b 55 fc             	mov    -0x4(%rbp),%edx
   1bd80:	48 8d 35 2d 4a 00 00 	lea    0x4a2d(%rip),%rsi        # 207b4 <g_5653+0x3713>
   1bd87:	48 89 c7             	mov    %rax,%rdi
   1bd8a:	e8 64 d9 fe ff       	callq  96f3 <transparent_crc>
   1bd8f:	83 7d fc 00          	cmpl   $0x0,-0x4(%rbp)
   1bd93:	74 19                	je     1bdae <main+0x7aa>
   1bd95:	8b 55 f4             	mov    -0xc(%rbp),%edx
   1bd98:	8b 45 f0             	mov    -0x10(%rbp),%eax
   1bd9b:	89 c6                	mov    %eax,%esi
   1bd9d:	48 8d 3d b7 49 00 00 	lea    0x49b7(%rip),%rdi        # 2075b <g_5653+0x36ba>
   1bda4:	b8 00 00 00 00       	mov    $0x0,%eax
   1bda9:	e8 d2 c2 fe ff       	callq  8080 <printf@plt>
   1bdae:	83 45 f4 01          	addl   $0x1,-0xc(%rbp)
   1bdb2:	83 7d f4 04          	cmpl   $0x4,-0xc(%rbp)
   1bdb6:	7e 98                	jle    1bd50 <main+0x74c>
   1bdb8:	83 45 f0 01          	addl   $0x1,-0x10(%rbp)
   1bdbc:	83 7d f0 02          	cmpl   $0x2,-0x10(%rbp)
   1bdc0:	7e 85                	jle    1bd47 <main+0x743>
   1bdc2:	8b 05 fc 8b 00 00    	mov    0x8bfc(%rip),%eax        # 249c4 <g_1798>
   1bdc8:	89 c1                	mov    %eax,%ecx
   1bdca:	8b 45 fc             	mov    -0x4(%rbp),%eax
   1bdcd:	89 c2                	mov    %eax,%edx
   1bdcf:	48 8d 35 eb 49 00 00 	lea    0x49eb(%rip),%rsi        # 207c1 <g_5653+0x3720>
   1bdd6:	48 89 cf             	mov    %rcx,%rdi
   1bdd9:	e8 15 d9 fe ff       	callq  96f3 <transparent_crc>
   1bdde:	0f b6 05 e3 8b 00 00 	movzbl 0x8be3(%rip),%eax        # 249c8 <g_1820>
   1bde5:	48 0f be c0          	movsbq %al,%rax
   1bde9:	8b 55 fc             	mov    -0x4(%rbp),%edx
   1bdec:	48 8d 35 d5 49 00 00 	lea    0x49d5(%rip),%rsi        # 207c8 <g_5653+0x3727>
   1bdf3:	48 89 c7             	mov    %rax,%rdi
   1bdf6:	e8 f8 d8 fe ff       	callq  96f3 <transparent_crc>
   1bdfb:	c7 45 f0 00 00 00 00 	movl   $0x0,-0x10(%rbp)
   1be02:	eb 72                	jmp    1be76 <main+0x872>
   1be04:	c7 45 f4 00 00 00 00 	movl   $0x0,-0xc(%rbp)
   1be0b:	eb 5f                	jmp    1be6c <main+0x868>
   1be0d:	8b 45 f4             	mov    -0xc(%rbp),%eax
   1be10:	48 63 c8             	movslq %eax,%rcx
   1be13:	8b 45 f0             	mov    -0x10(%rbp),%eax
   1be16:	48 63 d0             	movslq %eax,%rdx
   1be19:	48 89 d0             	mov    %rdx,%rax
   1be1c:	48 01 c0             	add    %rax,%rax
   1be1f:	48 01 d0             	add    %rdx,%rax
   1be22:	48 8d 14 08          	lea    (%rax,%rcx,1),%rdx
   1be26:	48 8d 05 a3 8b 00 00 	lea    0x8ba3(%rip),%rax        # 249d0 <g_1911>
   1be2d:	48 01 d0             	add    %rdx,%rax
   1be30:	0f b6 00             	movzbl (%rax),%eax
   1be33:	48 0f be c0          	movsbq %al,%rax
   1be37:	8b 55 fc             	mov    -0x4(%rbp),%edx
   1be3a:	48 8d 35 8e 49 00 00 	lea    0x498e(%rip),%rsi        # 207cf <g_5653+0x372e>
   1be41:	48 89 c7             	mov    %rax,%rdi
   1be44:	e8 aa d8 fe ff       	callq  96f3 <transparent_crc>
   1be49:	83 7d fc 00          	cmpl   $0x0,-0x4(%rbp)
   1be4d:	74 19                	je     1be68 <main+0x864>
   1be4f:	8b 55 f4             	mov    -0xc(%rbp),%edx
   1be52:	8b 45 f0             	mov    -0x10(%rbp),%eax
   1be55:	89 c6                	mov    %eax,%esi
   1be57:	48 8d 3d fd 48 00 00 	lea    0x48fd(%rip),%rdi        # 2075b <g_5653+0x36ba>
   1be5e:	b8 00 00 00 00       	mov    $0x0,%eax
   1be63:	e8 18 c2 fe ff       	callq  8080 <printf@plt>
   1be68:	83 45 f4 01          	addl   $0x1,-0xc(%rbp)
   1be6c:	83 7d f4 02          	cmpl   $0x2,-0xc(%rbp)
   1be70:	7e 9b                	jle    1be0d <main+0x809>
   1be72:	83 45 f0 01          	addl   $0x1,-0x10(%rbp)
   1be76:	83 7d f0 07          	cmpl   $0x7,-0x10(%rbp)
   1be7a:	7e 88                	jle    1be04 <main+0x800>
   1be7c:	0f b6 05 65 8b 00 00 	movzbl 0x8b65(%rip),%eax        # 249e8 <g_1913>
   1be83:	48 0f be c0          	movsbq %al,%rax
   1be87:	8b 55 fc             	mov    -0x4(%rbp),%edx
   1be8a:	48 8d 35 4b 49 00 00 	lea    0x494b(%rip),%rsi        # 207dc <g_5653+0x373b>
   1be91:	48 89 c7             	mov    %rax,%rdi
   1be94:	e8 5a d8 fe ff       	callq  96f3 <transparent_crc>
   1be99:	c7 45 f0 00 00 00 00 	movl   $0x0,-0x10(%rbp)
   1bea0:	eb 6f                	jmp    1bf11 <main+0x90d>
   1bea2:	c7 45 f4 00 00 00 00 	movl   $0x0,-0xc(%rbp)
   1bea9:	eb 5c                	jmp    1bf07 <main+0x903>
   1beab:	8b 45 f4             	mov    -0xc(%rbp),%eax
   1beae:	48 98                	cltq   
   1beb0:	8b 55 f0             	mov    -0x10(%rbp),%edx
   1beb3:	48 63 d2             	movslq %edx,%rdx
   1beb6:	48 01 d2             	add    %rdx,%rdx
   1beb9:	48 01 d0             	add    %rdx,%rax
   1bebc:	48 8d 14 85 00 00 00 	lea    0x0(,%rax,4),%rdx
   1bec3:	00 
   1bec4:	48 8d 05 35 8b 00 00 	lea    0x8b35(%rip),%rax        # 24a00 <g_1916>
   1becb:	8b 04 02             	mov    (%rdx,%rax,1),%eax
   1bece:	89 c1                	mov    %eax,%ecx
   1bed0:	8b 45 fc             	mov    -0x4(%rbp),%eax
   1bed3:	89 c2                	mov    %eax,%edx
   1bed5:	48 8d 35 07 49 00 00 	lea    0x4907(%rip),%rsi        # 207e3 <g_5653+0x3742>
   1bedc:	48 89 cf             	mov    %rcx,%rdi
   1bedf:	e8 0f d8 fe ff       	callq  96f3 <transparent_crc>
   1bee4:	83 7d fc 00          	cmpl   $0x0,-0x4(%rbp)
   1bee8:	74 19                	je     1bf03 <main+0x8ff>
   1beea:	8b 55 f4             	mov    -0xc(%rbp),%edx
   1beed:	8b 45 f0             	mov    -0x10(%rbp),%eax
   1bef0:	89 c6                	mov    %eax,%esi
   1bef2:	48 8d 3d 62 48 00 00 	lea    0x4862(%rip),%rdi        # 2075b <g_5653+0x36ba>
   1bef9:	b8 00 00 00 00       	mov    $0x0,%eax
   1befe:	e8 7d c1 fe ff       	callq  8080 <printf@plt>
   1bf03:	83 45 f4 01          	addl   $0x1,-0xc(%rbp)
   1bf07:	83 7d f4 01          	cmpl   $0x1,-0xc(%rbp)
   1bf0b:	7e 9e                	jle    1beab <main+0x8a7>
   1bf0d:	83 45 f0 01          	addl   $0x1,-0x10(%rbp)
   1bf11:	83 7d f0 06          	cmpl   $0x6,-0x10(%rbp)
   1bf15:	7e 8b                	jle    1bea2 <main+0x89e>
   1bf17:	b8 91 b8 fb ef       	mov    $0xeffbb891,%eax
   1bf1c:	48 98                	cltq   
   1bf1e:	8b 55 fc             	mov    -0x4(%rbp),%edx
   1bf21:	48 8d 35 c8 48 00 00 	lea    0x48c8(%rip),%rsi        # 207f0 <g_5653+0x374f>
   1bf28:	48 89 c7             	mov    %rax,%rdi
   1bf2b:	e8 c3 d7 fe ff       	callq  96f3 <transparent_crc>
   1bf30:	8b 05 02 8b 00 00    	mov    0x8b02(%rip),%eax        # 24a38 <g_2023>
   1bf36:	89 c1                	mov    %eax,%ecx
   1bf38:	8b 45 fc             	mov    -0x4(%rbp),%eax
   1bf3b:	89 c2                	mov    %eax,%edx
   1bf3d:	48 8d 35 b3 48 00 00 	lea    0x48b3(%rip),%rsi        # 207f7 <g_5653+0x3756>
   1bf44:	48 89 cf             	mov    %rcx,%rdi
   1bf47:	e8 a7 d7 fe ff       	callq  96f3 <transparent_crc>
   1bf4c:	c7 45 f0 00 00 00 00 	movl   $0x0,-0x10(%rbp)
   1bf53:	eb 49                	jmp    1bf9e <main+0x99a>
   1bf55:	8b 45 f0             	mov    -0x10(%rbp),%eax
   1bf58:	48 98                	cltq   
   1bf5a:	48 8d 14 00          	lea    (%rax,%rax,1),%rdx
   1bf5e:	48 8d 05 d7 8a 00 00 	lea    0x8ad7(%rip),%rax        # 24a3c <g_2025>
   1bf65:	0f b7 04 02          	movzwl (%rdx,%rax,1),%eax
   1bf69:	0f b7 c0             	movzwl %ax,%eax
   1bf6c:	8b 55 fc             	mov    -0x4(%rbp),%edx
   1bf6f:	48 8d 35 88 48 00 00 	lea    0x4888(%rip),%rsi        # 207fe <g_5653+0x375d>
   1bf76:	48 89 c7             	mov    %rax,%rdi
   1bf79:	e8 75 d7 fe ff       	callq  96f3 <transparent_crc>
   1bf7e:	83 7d fc 00          	cmpl   $0x0,-0x4(%rbp)
   1bf82:	74 16                	je     1bf9a <main+0x996>
   1bf84:	8b 45 f0             	mov    -0x10(%rbp),%eax
   1bf87:	89 c6                	mov    %eax,%esi
   1bf89:	48 8d 3d 86 47 00 00 	lea    0x4786(%rip),%rdi        # 20716 <g_5653+0x3675>
   1bf90:	b8 00 00 00 00       	mov    $0x0,%eax
   1bf95:	e8 e6 c0 fe ff       	callq  8080 <printf@plt>
   1bf9a:	83 45 f0 01          	addl   $0x1,-0x10(%rbp)
   1bf9e:	83 7d f0 01          	cmpl   $0x1,-0x10(%rbp)
   1bfa2:	7e b1                	jle    1bf55 <main+0x951>
   1bfa4:	8b 05 6e c0 00 00    	mov    0xc06e(%rip),%eax        # 28018 <g_2226>
   1bfaa:	48 98                	cltq   
   1bfac:	8b 55 fc             	mov    -0x4(%rbp),%edx
   1bfaf:	48 8d 35 52 48 00 00 	lea    0x4852(%rip),%rsi        # 20808 <g_5653+0x3767>
   1bfb6:	48 89 c7             	mov    %rax,%rdi
   1bfb9:	e8 35 d7 fe ff       	callq  96f3 <transparent_crc>
   1bfbe:	8b 05 7c 8a 00 00    	mov    0x8a7c(%rip),%eax        # 24a40 <g_2246>
   1bfc4:	89 c1                	mov    %eax,%ecx
   1bfc6:	8b 45 fc             	mov    -0x4(%rbp),%eax
   1bfc9:	89 c2                	mov    %eax,%edx
   1bfcb:	48 8d 35 3d 48 00 00 	lea    0x483d(%rip),%rsi        # 2080f <g_5653+0x376e>
   1bfd2:	48 89 cf             	mov    %rcx,%rdi
   1bfd5:	e8 19 d7 fe ff       	callq  96f3 <transparent_crc>
   1bfda:	8b 05 64 8a 00 00    	mov    0x8a64(%rip),%eax        # 24a44 <g_2522>
   1bfe0:	48 98                	cltq   
   1bfe2:	8b 55 fc             	mov    -0x4(%rbp),%edx
   1bfe5:	48 8d 35 2a 48 00 00 	lea    0x482a(%rip),%rsi        # 20816 <g_5653+0x3775>
   1bfec:	48 89 c7             	mov    %rax,%rdi
   1bfef:	e8 ff d6 fe ff       	callq  96f3 <transparent_crc>
   1bff4:	c7 45 f0 00 00 00 00 	movl   $0x0,-0x10(%rbp)
   1bffb:	e9 9c 00 00 00       	jmpq   1c09c <main+0xa98>
   1c000:	c7 45 f4 00 00 00 00 	movl   $0x0,-0xc(%rbp)
   1c007:	e9 82 00 00 00       	jmpq   1c08e <main+0xa8a>
   1c00c:	c7 45 f8 00 00 00 00 	movl   $0x0,-0x8(%rbp)
   1c013:	eb 6f                	jmp    1c084 <main+0xa80>
   1c015:	8b 45 f8             	mov    -0x8(%rbp),%eax
   1c018:	48 63 c8             	movslq %eax,%rcx
   1c01b:	8b 45 f0             	mov    -0x10(%rbp),%eax
   1c01e:	48 63 d0             	movslq %eax,%rdx
   1c021:	8b 45 f4             	mov    -0xc(%rbp),%eax
   1c024:	48 63 f0             	movslq %eax,%rsi
   1c027:	48 89 d0             	mov    %rdx,%rax
   1c02a:	48 c1 e0 03          	shl    $0x3,%rax
   1c02e:	48 01 d0             	add    %rdx,%rax
   1c031:	48 01 f0             	add    %rsi,%rax
   1c034:	48 01 c0             	add    %rax,%rax
   1c037:	48 8d 14 08          	lea    (%rax,%rcx,1),%rdx
   1c03b:	48 8d 05 1e 8a 00 00 	lea    0x8a1e(%rip),%rax        # 24a60 <g_2655>
   1c042:	48 01 d0             	add    %rdx,%rax
   1c045:	0f b6 00             	movzbl (%rax),%eax
   1c048:	48 0f be c0          	movsbq %al,%rax
   1c04c:	8b 55 fc             	mov    -0x4(%rbp),%edx
   1c04f:	48 8d 35 c7 47 00 00 	lea    0x47c7(%rip),%rsi        # 2081d <g_5653+0x377c>
   1c056:	48 89 c7             	mov    %rax,%rdi
   1c059:	e8 95 d6 fe ff       	callq  96f3 <transparent_crc>
   1c05e:	83 7d fc 00          	cmpl   $0x0,-0x4(%rbp)
   1c062:	74 1c                	je     1c080 <main+0xa7c>
   1c064:	8b 4d f8             	mov    -0x8(%rbp),%ecx
   1c067:	8b 55 f4             	mov    -0xc(%rbp),%edx
   1c06a:	8b 45 f0             	mov    -0x10(%rbp),%eax
   1c06d:	89 c6                	mov    %eax,%esi
   1c06f:	48 8d 3d 28 46 00 00 	lea    0x4628(%rip),%rdi        # 2069e <g_5653+0x35fd>
   1c076:	b8 00 00 00 00       	mov    $0x0,%eax
   1c07b:	e8 00 c0 fe ff       	callq  8080 <printf@plt>
   1c080:	83 45 f8 01          	addl   $0x1,-0x8(%rbp)
   1c084:	83 7d f8 01          	cmpl   $0x1,-0x8(%rbp)
   1c088:	7e 8b                	jle    1c015 <main+0xa11>
   1c08a:	83 45 f4 01          	addl   $0x1,-0xc(%rbp)
   1c08e:	83 7d f4 08          	cmpl   $0x8,-0xc(%rbp)
   1c092:	0f 8e 74 ff ff ff    	jle    1c00c <main+0xa08>
   1c098:	83 45 f0 01          	addl   $0x1,-0x10(%rbp)
   1c09c:	83 7d f0 09          	cmpl   $0x9,-0x10(%rbp)
   1c0a0:	0f 8e 5a ff ff ff    	jle    1c000 <main+0x9fc>
   1c0a6:	8b 05 68 8a 00 00    	mov    0x8a68(%rip),%eax        # 24b14 <g_2657>
   1c0ac:	89 c1                	mov    %eax,%ecx
   1c0ae:	8b 45 fc             	mov    -0x4(%rbp),%eax
   1c0b1:	89 c2                	mov    %eax,%edx
   1c0b3:	48 8d 35 73 47 00 00 	lea    0x4773(%rip),%rsi        # 2082d <g_5653+0x378c>
   1c0ba:	48 89 cf             	mov    %rcx,%rdi
   1c0bd:	e8 31 d6 fe ff       	callq  96f3 <transparent_crc>
   1c0c2:	8b 05 50 8a 00 00    	mov    0x8a50(%rip),%eax        # 24b18 <g_2707>
   1c0c8:	89 c1                	mov    %eax,%ecx
   1c0ca:	8b 45 fc             	mov    -0x4(%rbp),%eax
   1c0cd:	89 c2                	mov    %eax,%edx
   1c0cf:	48 8d 35 5e 47 00 00 	lea    0x475e(%rip),%rsi        # 20834 <g_5653+0x3793>
   1c0d6:	48 89 cf             	mov    %rcx,%rdi
   1c0d9:	e8 15 d6 fe ff       	callq  96f3 <transparent_crc>
   1c0de:	c7 45 f0 00 00 00 00 	movl   $0x0,-0x10(%rbp)
   1c0e5:	eb 73                	jmp    1c15a <main+0xb56>
   1c0e7:	c7 45 f4 00 00 00 00 	movl   $0x0,-0xc(%rbp)
   1c0ee:	eb 60                	jmp    1c150 <main+0xb4c>
   1c0f0:	8b 45 f4             	mov    -0xc(%rbp),%eax
   1c0f3:	48 63 c8             	movslq %eax,%rcx
   1c0f6:	8b 45 f0             	mov    -0x10(%rbp),%eax
   1c0f9:	48 63 d0             	movslq %eax,%rdx
   1c0fc:	48 89 d0             	mov    %rdx,%rax
   1c0ff:	48 01 c0             	add    %rax,%rax
   1c102:	48 01 d0             	add    %rdx,%rax
   1c105:	48 01 c8             	add    %rcx,%rax
   1c108:	48 8d 14 00          	lea    (%rax,%rax,1),%rdx
   1c10c:	48 8d 05 0d 8a 00 00 	lea    0x8a0d(%rip),%rax        # 24b20 <g_2842>
   1c113:	0f b7 04 02          	movzwl (%rdx,%rax,1),%eax
   1c117:	48 0f bf c0          	movswq %ax,%rax
   1c11b:	8b 55 fc             	mov    -0x4(%rbp),%edx
   1c11e:	48 8d 35 16 47 00 00 	lea    0x4716(%rip),%rsi        # 2083b <g_5653+0x379a>
   1c125:	48 89 c7             	mov    %rax,%rdi
   1c128:	e8 c6 d5 fe ff       	callq  96f3 <transparent_crc>
   1c12d:	83 7d fc 00          	cmpl   $0x0,-0x4(%rbp)
   1c131:	74 19                	je     1c14c <main+0xb48>
   1c133:	8b 55 f4             	mov    -0xc(%rbp),%edx
   1c136:	8b 45 f0             	mov    -0x10(%rbp),%eax
   1c139:	89 c6                	mov    %eax,%esi
   1c13b:	48 8d 3d 19 46 00 00 	lea    0x4619(%rip),%rdi        # 2075b <g_5653+0x36ba>
   1c142:	b8 00 00 00 00       	mov    $0x0,%eax
   1c147:	e8 34 bf fe ff       	callq  8080 <printf@plt>
   1c14c:	83 45 f4 01          	addl   $0x1,-0xc(%rbp)
   1c150:	83 7d f4 02          	cmpl   $0x2,-0xc(%rbp)
   1c154:	7e 9a                	jle    1c0f0 <main+0xaec>
   1c156:	83 45 f0 01          	addl   $0x1,-0x10(%rbp)
   1c15a:	83 7d f0 01          	cmpl   $0x1,-0x10(%rbp)
   1c15e:	7e 87                	jle    1c0e7 <main+0xae3>
   1c160:	8b 05 c6 89 00 00    	mov    0x89c6(%rip),%eax        # 24b2c <g_3411>
   1c166:	48 98                	cltq   
   1c168:	8b 55 fc             	mov    -0x4(%rbp),%edx
   1c16b:	48 8d 35 d6 46 00 00 	lea    0x46d6(%rip),%rsi        # 20848 <g_5653+0x37a7>
   1c172:	48 89 c7             	mov    %rax,%rdi
   1c175:	e8 79 d5 fe ff       	callq  96f3 <transparent_crc>
   1c17a:	48 8b 05 af 89 00 00 	mov    0x89af(%rip),%rax        # 24b30 <g_3437>
   1c181:	48 89 c1             	mov    %rax,%rcx
   1c184:	8b 45 fc             	mov    -0x4(%rbp),%eax
   1c187:	89 c2                	mov    %eax,%edx
   1c189:	48 8d 35 bf 46 00 00 	lea    0x46bf(%rip),%rsi        # 2084f <g_5653+0x37ae>
   1c190:	48 89 cf             	mov    %rcx,%rdi
   1c193:	e8 5b d5 fe ff       	callq  96f3 <transparent_crc>
   1c198:	c7 45 f0 00 00 00 00 	movl   $0x0,-0x10(%rbp)
   1c19f:	eb 45                	jmp    1c1e6 <main+0xbe2>
   1c1a1:	8b 45 f0             	mov    -0x10(%rbp),%eax
   1c1a4:	48 98                	cltq   
   1c1a6:	48 8d 15 8b 89 00 00 	lea    0x898b(%rip),%rdx        # 24b38 <g_3441>
   1c1ad:	0f b6 04 10          	movzbl (%rax,%rdx,1),%eax
   1c1b1:	0f b6 c0             	movzbl %al,%eax
   1c1b4:	8b 55 fc             	mov    -0x4(%rbp),%edx
   1c1b7:	48 8d 35 98 46 00 00 	lea    0x4698(%rip),%rsi        # 20856 <g_5653+0x37b5>
   1c1be:	48 89 c7             	mov    %rax,%rdi
   1c1c1:	e8 2d d5 fe ff       	callq  96f3 <transparent_crc>
   1c1c6:	83 7d fc 00          	cmpl   $0x0,-0x4(%rbp)
   1c1ca:	74 16                	je     1c1e2 <main+0xbde>
   1c1cc:	8b 45 f0             	mov    -0x10(%rbp),%eax
   1c1cf:	89 c6                	mov    %eax,%esi
   1c1d1:	48 8d 3d 3e 45 00 00 	lea    0x453e(%rip),%rdi        # 20716 <g_5653+0x3675>
   1c1d8:	b8 00 00 00 00       	mov    $0x0,%eax
   1c1dd:	e8 9e be fe ff       	callq  8080 <printf@plt>
   1c1e2:	83 45 f0 01          	addl   $0x1,-0x10(%rbp)
   1c1e6:	83 7d f0 04          	cmpl   $0x4,-0x10(%rbp)
   1c1ea:	7e b5                	jle    1c1a1 <main+0xb9d>
   1c1ec:	0f b6 05 4a 89 00 00 	movzbl 0x894a(%rip),%eax        # 24b3d <g_3619>
   1c1f3:	48 0f be c0          	movsbq %al,%rax
   1c1f7:	8b 55 fc             	mov    -0x4(%rbp),%edx
   1c1fa:	48 8d 35 5f 46 00 00 	lea    0x465f(%rip),%rsi        # 20860 <g_5653+0x37bf>
   1c201:	48 89 c7             	mov    %rax,%rdi
   1c204:	e8 ea d4 fe ff       	callq  96f3 <transparent_crc>
   1c209:	0f b7 05 2e 89 00 00 	movzwl 0x892e(%rip),%eax        # 24b3e <g_3676>
   1c210:	0f b7 c0             	movzwl %ax,%eax
   1c213:	8b 55 fc             	mov    -0x4(%rbp),%edx
   1c216:	48 8d 35 4a 46 00 00 	lea    0x464a(%rip),%rsi        # 20867 <g_5653+0x37c6>
   1c21d:	48 89 c7             	mov    %rax,%rdi
   1c220:	e8 ce d4 fe ff       	callq  96f3 <transparent_crc>
   1c225:	48 8b 05 14 89 00 00 	mov    0x8914(%rip),%rax        # 24b40 <g_3696>
   1c22c:	8b 55 fc             	mov    -0x4(%rbp),%edx
   1c22f:	48 8d 35 38 46 00 00 	lea    0x4638(%rip),%rsi        # 2086e <g_5653+0x37cd>
   1c236:	48 89 c7             	mov    %rax,%rdi
   1c239:	e8 b5 d4 fe ff       	callq  96f3 <transparent_crc>
   1c23e:	0f b6 05 03 89 00 00 	movzbl 0x8903(%rip),%eax        # 24b48 <g_3870>
   1c245:	48 0f be c0          	movsbq %al,%rax
   1c249:	8b 55 fc             	mov    -0x4(%rbp),%edx
   1c24c:	48 8d 35 22 46 00 00 	lea    0x4622(%rip),%rsi        # 20875 <g_5653+0x37d4>
   1c253:	48 89 c7             	mov    %rax,%rdi
   1c256:	e8 98 d4 fe ff       	callq  96f3 <transparent_crc>
   1c25b:	8b 05 eb 88 00 00    	mov    0x88eb(%rip),%eax        # 24b4c <g_3873>
   1c261:	48 98                	cltq   
   1c263:	8b 55 fc             	mov    -0x4(%rbp),%edx
   1c266:	48 8d 35 0f 46 00 00 	lea    0x460f(%rip),%rsi        # 2087c <g_5653+0x37db>
   1c26d:	48 89 c7             	mov    %rax,%rdi
   1c270:	e8 7e d4 fe ff       	callq  96f3 <transparent_crc>
   1c275:	8b 05 e5 bd 00 00    	mov    0xbde5(%rip),%eax        # 28060 <g_3881>
   1c27b:	89 c1                	mov    %eax,%ecx
   1c27d:	8b 45 fc             	mov    -0x4(%rbp),%eax
   1c280:	89 c2                	mov    %eax,%edx
   1c282:	48 8d 35 fa 45 00 00 	lea    0x45fa(%rip),%rsi        # 20883 <g_5653+0x37e2>
   1c289:	48 89 cf             	mov    %rcx,%rdi
   1c28c:	e8 62 d4 fe ff       	callq  96f3 <transparent_crc>
   1c291:	8b 05 b9 88 00 00    	mov    0x88b9(%rip),%eax        # 24b50 <g_3895>
   1c297:	89 c1                	mov    %eax,%ecx
   1c299:	8b 45 fc             	mov    -0x4(%rbp),%eax
   1c29c:	89 c2                	mov    %eax,%edx
   1c29e:	48 8d 35 e5 45 00 00 	lea    0x45e5(%rip),%rsi        # 2088a <g_5653+0x37e9>
   1c2a5:	48 89 cf             	mov    %rcx,%rdi
   1c2a8:	e8 46 d4 fe ff       	callq  96f3 <transparent_crc>
   1c2ad:	0f b7 05 a0 88 00 00 	movzwl 0x88a0(%rip),%eax        # 24b54 <g_4024>
   1c2b4:	48 0f bf c0          	movswq %ax,%rax
   1c2b8:	8b 55 fc             	mov    -0x4(%rbp),%edx
   1c2bb:	48 8d 35 cf 45 00 00 	lea    0x45cf(%rip),%rsi        # 20891 <g_5653+0x37f0>
   1c2c2:	48 89 c7             	mov    %rax,%rdi
   1c2c5:	e8 29 d4 fe ff       	callq  96f3 <transparent_crc>
   1c2ca:	8b 05 a0 bd 00 00    	mov    0xbda0(%rip),%eax        # 28070 <g_4189>
   1c2d0:	48 98                	cltq   
   1c2d2:	8b 55 fc             	mov    -0x4(%rbp),%edx
   1c2d5:	48 8d 35 bc 45 00 00 	lea    0x45bc(%rip),%rsi        # 20898 <g_5653+0x37f7>
   1c2dc:	48 89 c7             	mov    %rax,%rdi
   1c2df:	e8 0f d4 fe ff       	callq  96f3 <transparent_crc>
   1c2e4:	48 8b 05 6d 88 00 00 	mov    0x886d(%rip),%rax        # 24b58 <g_4279>
   1c2eb:	8b 55 fc             	mov    -0x4(%rbp),%edx
   1c2ee:	48 8d 35 aa 45 00 00 	lea    0x45aa(%rip),%rsi        # 2089f <g_5653+0x37fe>
   1c2f5:	48 89 c7             	mov    %rax,%rdi
   1c2f8:	e8 f6 d3 fe ff       	callq  96f3 <transparent_crc>
   1c2fd:	0f b6 05 5c 88 00 00 	movzbl 0x885c(%rip),%eax        # 24b60 <g_4354>
   1c304:	0f b6 c0             	movzbl %al,%eax
   1c307:	8b 55 fc             	mov    -0x4(%rbp),%edx
   1c30a:	48 8d 35 95 45 00 00 	lea    0x4595(%rip),%rsi        # 208a6 <g_5653+0x3805>
   1c311:	48 89 c7             	mov    %rax,%rdi
   1c314:	e8 da d3 fe ff       	callq  96f3 <transparent_crc>
   1c319:	8b 05 45 88 00 00    	mov    0x8845(%rip),%eax        # 24b64 <g_4394>
   1c31f:	89 c1                	mov    %eax,%ecx
   1c321:	8b 45 fc             	mov    -0x4(%rbp),%eax
   1c324:	89 c2                	mov    %eax,%edx
   1c326:	48 8d 35 80 45 00 00 	lea    0x4580(%rip),%rsi        # 208ad <g_5653+0x380c>
   1c32d:	48 89 cf             	mov    %rcx,%rdi
   1c330:	e8 be d3 fe ff       	callq  96f3 <transparent_crc>
   1c335:	8b 05 2d 88 00 00    	mov    0x882d(%rip),%eax        # 24b68 <g_4450>
   1c33b:	48 98                	cltq   
   1c33d:	8b 55 fc             	mov    -0x4(%rbp),%edx
   1c340:	48 8d 35 6d 45 00 00 	lea    0x456d(%rip),%rsi        # 208b4 <g_5653+0x3813>
   1c347:	48 89 c7             	mov    %rax,%rdi
   1c34a:	e8 a4 d3 fe ff       	callq  96f3 <transparent_crc>
   1c34f:	0f b6 05 16 88 00 00 	movzbl 0x8816(%rip),%eax        # 24b6c <g_4516>
   1c356:	48 0f be c0          	movsbq %al,%rax
   1c35a:	8b 55 fc             	mov    -0x4(%rbp),%edx
   1c35d:	48 8d 35 57 45 00 00 	lea    0x4557(%rip),%rsi        # 208bb <g_5653+0x381a>
   1c364:	48 89 c7             	mov    %rax,%rdi
   1c367:	e8 87 d3 fe ff       	callq  96f3 <transparent_crc>
   1c36c:	8b 05 fe 87 00 00    	mov    0x87fe(%rip),%eax        # 24b70 <g_4578>
   1c372:	48 98                	cltq   
   1c374:	8b 55 fc             	mov    -0x4(%rbp),%edx
   1c377:	48 8d 35 44 45 00 00 	lea    0x4544(%rip),%rsi        # 208c2 <g_5653+0x3821>
   1c37e:	48 89 c7             	mov    %rax,%rdi
   1c381:	e8 6d d3 fe ff       	callq  96f3 <transparent_crc>
   1c386:	48 8b 05 eb 87 00 00 	mov    0x87eb(%rip),%rax        # 24b78 <g_4607>
   1c38d:	48 89 c1             	mov    %rax,%rcx
   1c390:	8b 45 fc             	mov    -0x4(%rbp),%eax
   1c393:	89 c2                	mov    %eax,%edx
   1c395:	48 8d 35 2d 45 00 00 	lea    0x452d(%rip),%rsi        # 208c9 <g_5653+0x3828>
   1c39c:	48 89 cf             	mov    %rcx,%rdi
   1c39f:	e8 4f d3 fe ff       	callq  96f3 <transparent_crc>
   1c3a4:	8b 05 d6 87 00 00    	mov    0x87d6(%rip),%eax        # 24b80 <g_4693>
   1c3aa:	48 98                	cltq   
   1c3ac:	8b 55 fc             	mov    -0x4(%rbp),%edx
   1c3af:	48 8d 35 1a 45 00 00 	lea    0x451a(%rip),%rsi        # 208d0 <g_5653+0x382f>
   1c3b6:	48 89 c7             	mov    %rax,%rdi
   1c3b9:	e8 35 d3 fe ff       	callq  96f3 <transparent_crc>
   1c3be:	8b 05 c0 87 00 00    	mov    0x87c0(%rip),%eax        # 24b84 <g_4720>
   1c3c4:	48 98                	cltq   
   1c3c6:	8b 55 fc             	mov    -0x4(%rbp),%edx
   1c3c9:	48 8d 35 07 45 00 00 	lea    0x4507(%rip),%rsi        # 208d7 <g_5653+0x3836>
   1c3d0:	48 89 c7             	mov    %rax,%rdi
   1c3d3:	e8 1b d3 fe ff       	callq  96f3 <transparent_crc>
   1c3d8:	c7 45 f0 00 00 00 00 	movl   $0x0,-0x10(%rbp)
   1c3df:	eb 7b                	jmp    1c45c <main+0xe58>
   1c3e1:	c7 45 f4 00 00 00 00 	movl   $0x0,-0xc(%rbp)
   1c3e8:	eb 68                	jmp    1c452 <main+0xe4e>
   1c3ea:	8b 45 f4             	mov    -0xc(%rbp),%eax
   1c3ed:	48 63 c8             	movslq %eax,%rcx
   1c3f0:	8b 45 f0             	mov    -0x10(%rbp),%eax
   1c3f3:	48 63 d0             	movslq %eax,%rdx
   1c3f6:	48 89 d0             	mov    %rdx,%rax
   1c3f9:	48 01 c0             	add    %rax,%rax
   1c3fc:	48 01 d0             	add    %rdx,%rax
   1c3ff:	48 01 c0             	add    %rax,%rax
   1c402:	48 01 c8             	add    %rcx,%rax
   1c405:	48 8d 14 c5 00 00 00 	lea    0x0(,%rax,8),%rdx
   1c40c:	00 
   1c40d:	48 8d 05 8c 87 00 00 	lea    0x878c(%rip),%rax        # 24ba0 <g_4869>
   1c414:	48 8b 04 02          	mov    (%rdx,%rax,1),%rax
   1c418:	48 89 c1             	mov    %rax,%rcx
   1c41b:	8b 45 fc             	mov    -0x4(%rbp),%eax
   1c41e:	89 c2                	mov    %eax,%edx
   1c420:	48 8d 35 b7 44 00 00 	lea    0x44b7(%rip),%rsi        # 208de <g_5653+0x383d>
   1c427:	48 89 cf             	mov    %rcx,%rdi
   1c42a:	e8 c4 d2 fe ff       	callq  96f3 <transparent_crc>
   1c42f:	83 7d fc 00          	cmpl   $0x0,-0x4(%rbp)
   1c433:	74 19                	je     1c44e <main+0xe4a>
   1c435:	8b 55 f4             	mov    -0xc(%rbp),%edx
   1c438:	8b 45 f0             	mov    -0x10(%rbp),%eax
   1c43b:	89 c6                	mov    %eax,%esi
   1c43d:	48 8d 3d 17 43 00 00 	lea    0x4317(%rip),%rdi        # 2075b <g_5653+0x36ba>
   1c444:	b8 00 00 00 00       	mov    $0x0,%eax
   1c449:	e8 32 bc fe ff       	callq  8080 <printf@plt>
   1c44e:	83 45 f4 01          	addl   $0x1,-0xc(%rbp)
   1c452:	83 7d f4 05          	cmpl   $0x5,-0xc(%rbp)
   1c456:	7e 92                	jle    1c3ea <main+0xde6>
   1c458:	83 45 f0 01          	addl   $0x1,-0x10(%rbp)
   1c45c:	83 7d f0 03          	cmpl   $0x3,-0x10(%rbp)
   1c460:	0f 8e 7b ff ff ff    	jle    1c3e1 <main+0xddd>
   1c466:	8b 05 f4 87 00 00    	mov    0x87f4(%rip),%eax        # 24c60 <g_4932>
   1c46c:	48 98                	cltq   
   1c46e:	8b 55 fc             	mov    -0x4(%rbp),%edx
   1c471:	48 8d 35 73 44 00 00 	lea    0x4473(%rip),%rsi        # 208eb <g_5653+0x384a>
   1c478:	48 89 c7             	mov    %rax,%rdi
   1c47b:	e8 73 d2 fe ff       	callq  96f3 <transparent_crc>
   1c480:	b8 2e 00 00 00       	mov    $0x2e,%eax
   1c485:	48 0f be c0          	movsbq %al,%rax
   1c489:	8b 55 fc             	mov    -0x4(%rbp),%edx
   1c48c:	48 8d 35 5f 44 00 00 	lea    0x445f(%rip),%rsi        # 208f2 <g_5653+0x3851>
   1c493:	48 89 c7             	mov    %rax,%rdi
   1c496:	e8 58 d2 fe ff       	callq  96f3 <transparent_crc>
   1c49b:	0f b7 05 c2 87 00 00 	movzwl 0x87c2(%rip),%eax        # 24c64 <g_5230>
   1c4a2:	48 0f bf c0          	movswq %ax,%rax
   1c4a6:	8b 55 fc             	mov    -0x4(%rbp),%edx
   1c4a9:	48 8d 35 49 44 00 00 	lea    0x4449(%rip),%rsi        # 208f9 <g_5653+0x3858>
   1c4b0:	48 89 c7             	mov    %rax,%rdi
   1c4b3:	e8 3b d2 fe ff       	callq  96f3 <transparent_crc>
   1c4b8:	c7 45 f0 00 00 00 00 	movl   $0x0,-0x10(%rbp)
   1c4bf:	e9 b4 00 00 00       	jmpq   1c578 <main+0xf74>
   1c4c4:	c7 45 f4 00 00 00 00 	movl   $0x0,-0xc(%rbp)
   1c4cb:	e9 9a 00 00 00       	jmpq   1c56a <main+0xf66>
   1c4d0:	c7 45 f8 00 00 00 00 	movl   $0x0,-0x8(%rbp)
   1c4d7:	e9 80 00 00 00       	jmpq   1c55c <main+0xf58>
   1c4dc:	8b 45 f8             	mov    -0x8(%rbp),%eax
   1c4df:	48 63 f0             	movslq %eax,%rsi
   1c4e2:	8b 45 f0             	mov    -0x10(%rbp),%eax
   1c4e5:	48 98                	cltq   
   1c4e7:	8b 55 f4             	mov    -0xc(%rbp),%edx
   1c4ea:	48 63 ca             	movslq %edx,%rcx
   1c4ed:	48 89 c2             	mov    %rax,%rdx
   1c4f0:	48 01 d2             	add    %rdx,%rdx
   1c4f3:	48 01 c2             	add    %rax,%rdx
   1c4f6:	48 8d 04 95 00 00 00 	lea    0x0(,%rdx,4),%rax
   1c4fd:	00 
   1c4fe:	48 89 c2             	mov    %rax,%rdx
   1c501:	48 89 c8             	mov    %rcx,%rax
   1c504:	48 01 c0             	add    %rax,%rax
   1c507:	48 01 c8             	add    %rcx,%rax
   1c50a:	48 01 c0             	add    %rax,%rax
   1c50d:	48 01 d0             	add    %rdx,%rax
   1c510:	48 8d 14 30          	lea    (%rax,%rsi,1),%rdx
   1c514:	48 8d 05 65 87 00 00 	lea    0x8765(%rip),%rax        # 24c80 <g_5353>
   1c51b:	48 01 d0             	add    %rdx,%rax
   1c51e:	0f b6 00             	movzbl (%rax),%eax
   1c521:	0f b6 c0             	movzbl %al,%eax
   1c524:	8b 55 fc             	mov    -0x4(%rbp),%edx
   1c527:	48 8d 35 d2 43 00 00 	lea    0x43d2(%rip),%rsi        # 20900 <g_5653+0x385f>
   1c52e:	48 89 c7             	mov    %rax,%rdi
   1c531:	e8 bd d1 fe ff       	callq  96f3 <transparent_crc>
   1c536:	83 7d fc 00          	cmpl   $0x0,-0x4(%rbp)
   1c53a:	74 1c                	je     1c558 <main+0xf54>
   1c53c:	8b 4d f8             	mov    -0x8(%rbp),%ecx
   1c53f:	8b 55 f4             	mov    -0xc(%rbp),%edx
   1c542:	8b 45 f0             	mov    -0x10(%rbp),%eax
   1c545:	89 c6                	mov    %eax,%esi
   1c547:	48 8d 3d 50 41 00 00 	lea    0x4150(%rip),%rdi        # 2069e <g_5653+0x35fd>
   1c54e:	b8 00 00 00 00       	mov    $0x0,%eax
   1c553:	e8 28 bb fe ff       	callq  8080 <printf@plt>
   1c558:	83 45 f8 01          	addl   $0x1,-0x8(%rbp)
   1c55c:	83 7d f8 05          	cmpl   $0x5,-0x8(%rbp)
   1c560:	0f 8e 76 ff ff ff    	jle    1c4dc <main+0xed8>
   1c566:	83 45 f4 01          	addl   $0x1,-0xc(%rbp)
   1c56a:	83 7d f4 01          	cmpl   $0x1,-0xc(%rbp)
   1c56e:	0f 8e 5c ff ff ff    	jle    1c4d0 <main+0xecc>
   1c574:	83 45 f0 01          	addl   $0x1,-0x10(%rbp)
   1c578:	83 7d f0 06          	cmpl   $0x6,-0x10(%rbp)
   1c57c:	0f 8e 42 ff ff ff    	jle    1c4c4 <main+0xec0>
   1c582:	c7 45 f0 00 00 00 00 	movl   $0x0,-0x10(%rbp)
   1c589:	eb 45                	jmp    1c5d0 <main+0xfcc>
   1c58b:	8b 45 f0             	mov    -0x10(%rbp),%eax
   1c58e:	48 98                	cltq   
   1c590:	48 8d 15 0a 0b 00 00 	lea    0xb0a(%rip),%rdx        # 1d0a1 <g_5653>
   1c597:	0f b6 04 10          	movzbl (%rax,%rdx,1),%eax
   1c59b:	0f b6 c0             	movzbl %al,%eax
   1c59e:	8b 55 fc             	mov    -0x4(%rbp),%edx
   1c5a1:	48 8d 35 68 43 00 00 	lea    0x4368(%rip),%rsi        # 20910 <g_5653+0x386f>
   1c5a8:	48 89 c7             	mov    %rax,%rdi
   1c5ab:	e8 43 d1 fe ff       	callq  96f3 <transparent_crc>
   1c5b0:	83 7d fc 00          	cmpl   $0x0,-0x4(%rbp)
   1c5b4:	74 16                	je     1c5cc <main+0xfc8>
   1c5b6:	8b 45 f0             	mov    -0x10(%rbp),%eax
   1c5b9:	89 c6                	mov    %eax,%esi
   1c5bb:	48 8d 3d 54 41 00 00 	lea    0x4154(%rip),%rdi        # 20716 <g_5653+0x3675>
   1c5c2:	b8 00 00 00 00       	mov    $0x0,%eax
   1c5c7:	e8 b4 ba fe ff       	callq  8080 <printf@plt>
   1c5cc:	83 45 f0 01          	addl   $0x1,-0x10(%rbp)
   1c5d0:	83 7d f0 04          	cmpl   $0x4,-0x10(%rbp)
   1c5d4:	7e b5                	jle    1c58b <main+0xf87>
   1c5d6:	0f b7 05 f7 86 00 00 	movzwl 0x86f7(%rip),%eax        # 24cd4 <g_5661>
   1c5dd:	48 0f bf c0          	movswq %ax,%rax
   1c5e1:	8b 55 fc             	mov    -0x4(%rbp),%edx
   1c5e4:	48 8d 35 2f 43 00 00 	lea    0x432f(%rip),%rsi        # 2091a <g_5653+0x3879>
   1c5eb:	48 89 c7             	mov    %rax,%rdi
   1c5ee:	e8 00 d1 fe ff       	callq  96f3 <transparent_crc>
   1c5f3:	8b 05 27 7a 00 00    	mov    0x7a27(%rip),%eax        # 24020 <crc32_context>
   1c5f9:	f7 d0                	not    %eax
   1c5fb:	89 c2                	mov    %eax,%edx
   1c5fd:	8b 45 fc             	mov    -0x4(%rbp),%eax
   1c600:	89 c6                	mov    %eax,%esi
   1c602:	89 d7                	mov    %edx,%edi
   1c604:	e8 8b bb fe ff       	callq  8194 <platform_main_end>
   1c609:	b8 00 00 00 00       	mov    $0x0,%eax
   1c60e:	c9                   	leaveq 
   1c60f:	c3                   	retq   

000000000001c610 <__libc_csu_init>:
   1c610:	f3 0f 1e fa          	endbr64 
   1c614:	41 57                	push   %r15
   1c616:	4c 8d 3d 93 75 00 00 	lea    0x7593(%rip),%r15        # 23bb0 <__frame_dummy_init_array_entry>
   1c61d:	41 56                	push   %r14
   1c61f:	49 89 d6             	mov    %rdx,%r14
   1c622:	41 55                	push   %r13
   1c624:	49 89 f5             	mov    %rsi,%r13
   1c627:	41 54                	push   %r12
   1c629:	41 89 fc             	mov    %edi,%r12d
   1c62c:	55                   	push   %rbp
   1c62d:	48 8d 2d 84 75 00 00 	lea    0x7584(%rip),%rbp        # 23bb8 <__do_global_dtors_aux_fini_array_entry>
   1c634:	53                   	push   %rbx
   1c635:	4c 29 fd             	sub    %r15,%rbp
   1c638:	48 83 ec 08          	sub    $0x8,%rsp
   1c63c:	e8 bf b9 fe ff       	callq  8000 <_init>
   1c641:	48 c1 fd 03          	sar    $0x3,%rbp
   1c645:	74 1f                	je     1c666 <__libc_csu_init+0x56>
   1c647:	31 db                	xor    %ebx,%ebx
   1c649:	0f 1f 80 00 00 00 00 	nopl   0x0(%rax)
   1c650:	4c 89 f2             	mov    %r14,%rdx
   1c653:	4c 89 ee             	mov    %r13,%rsi
   1c656:	44 89 e7             	mov    %r12d,%edi
   1c659:	41 ff 14 df          	callq  *(%r15,%rbx,8)
   1c65d:	48 83 c3 01          	add    $0x1,%rbx
   1c661:	48 39 dd             	cmp    %rbx,%rbp
   1c664:	75 ea                	jne    1c650 <__libc_csu_init+0x40>
   1c666:	48 83 c4 08          	add    $0x8,%rsp
   1c66a:	5b                   	pop    %rbx
   1c66b:	5d                   	pop    %rbp
   1c66c:	41 5c                	pop    %r12
   1c66e:	41 5d                	pop    %r13
   1c670:	41 5e                	pop    %r14
   1c672:	41 5f                	pop    %r15
   1c674:	c3                   	retq   
   1c675:	66 66 2e 0f 1f 84 00 	data16 nopw %cs:0x0(%rax,%rax,1)
   1c67c:	00 00 00 00 

000000000001c680 <__libc_csu_fini>:
   1c680:	f3 0f 1e fa          	endbr64 
   1c684:	c3                   	retq   
